ARM GAS  /tmp/ccrysqwW.s 			page 1


   1              		.arch armv8.1-m.main
   2              		.fpu fpv5-d16
   3              		.arch_extension dsp
   4              		.arch_extension fp
   5              		.arch_extension fp.dp
   6              		.arch_extension mve
   7              		.arch_extension mve.fp
   8              		.eabi_attribute 5, "cortex-m55"
   9              		.eabi_attribute 28, 1
  10              		.eabi_attribute 20, 1
  11              		.eabi_attribute 21, 1
  12              		.eabi_attribute 23, 3
  13              		.eabi_attribute 24, 1
  14              		.eabi_attribute 25, 1
  15              		.eabi_attribute 26, 1
  16              		.eabi_attribute 30, 6
  17              		.eabi_attribute 34, 1
  18              		.eabi_attribute 38, 1
  19              		.eabi_attribute 18, 4
  20              		.file	"app.c"
  21              		.text
  22              	.Ltext0:
  23              		.cfi_sections	.debug_frame
  24              		.file 1 "Src/app.c"
  25              		.section	.text.LL_Buffer_addr_base,"ax",%progbits
  26              		.align	1
  27              		.syntax unified
  28              		.thumb
  29              		.thumb_func
  31              	LL_Buffer_addr_base:
  32              	.LFB2659:
  33              		.file 2 "Lib/AI_Runtime/Npu/ll_aton/ll_aton_NN_interface.h"
   1:Lib/AI_Runtime/Npu/ll_aton/ll_aton_NN_interface.h **** /**
   2:Lib/AI_Runtime/Npu/ll_aton/ll_aton_NN_interface.h ****  ******************************************************************************
   3:Lib/AI_Runtime/Npu/ll_aton/ll_aton_NN_interface.h ****  * @file    ll_aton_NN_interface.h
   4:Lib/AI_Runtime/Npu/ll_aton/ll_aton_NN_interface.h ****  * @author  SRA Artificial Intelligence & Embedded Architectures
   5:Lib/AI_Runtime/Npu/ll_aton/ll_aton_NN_interface.h ****  * @brief   Interface that defines a NN generated by the AtoNN Compiler.
   6:Lib/AI_Runtime/Npu/ll_aton/ll_aton_NN_interface.h ****  ******************************************************************************
   7:Lib/AI_Runtime/Npu/ll_aton/ll_aton_NN_interface.h ****  * @attention
   8:Lib/AI_Runtime/Npu/ll_aton/ll_aton_NN_interface.h ****  *
   9:Lib/AI_Runtime/Npu/ll_aton/ll_aton_NN_interface.h ****  * Copyright (c) 2024 STMicroelectronics.
  10:Lib/AI_Runtime/Npu/ll_aton/ll_aton_NN_interface.h ****  * All rights reserved.
  11:Lib/AI_Runtime/Npu/ll_aton/ll_aton_NN_interface.h ****  *
  12:Lib/AI_Runtime/Npu/ll_aton/ll_aton_NN_interface.h ****  * This software is licensed under terms that can be found in the LICENSE file
  13:Lib/AI_Runtime/Npu/ll_aton/ll_aton_NN_interface.h ****  * in the root directory of this software component.
  14:Lib/AI_Runtime/Npu/ll_aton/ll_aton_NN_interface.h ****  * If no LICENSE file comes with this software, it is provided AS-IS.
  15:Lib/AI_Runtime/Npu/ll_aton/ll_aton_NN_interface.h ****  *
  16:Lib/AI_Runtime/Npu/ll_aton/ll_aton_NN_interface.h ****  ******************************************************************************
  17:Lib/AI_Runtime/Npu/ll_aton/ll_aton_NN_interface.h ****  */
  18:Lib/AI_Runtime/Npu/ll_aton/ll_aton_NN_interface.h **** 
  19:Lib/AI_Runtime/Npu/ll_aton/ll_aton_NN_interface.h **** #ifndef __LL_ATON_NN_INTERFACE_H
  20:Lib/AI_Runtime/Npu/ll_aton/ll_aton_NN_interface.h **** #define __LL_ATON_NN_INTERFACE_H
  21:Lib/AI_Runtime/Npu/ll_aton/ll_aton_NN_interface.h **** 
  22:Lib/AI_Runtime/Npu/ll_aton/ll_aton_NN_interface.h **** #ifdef __cplusplus
  23:Lib/AI_Runtime/Npu/ll_aton/ll_aton_NN_interface.h **** extern "C"
  24:Lib/AI_Runtime/Npu/ll_aton/ll_aton_NN_interface.h **** {
  25:Lib/AI_Runtime/Npu/ll_aton/ll_aton_NN_interface.h **** #endif
ARM GAS  /tmp/ccrysqwW.s 			page 2


  26:Lib/AI_Runtime/Npu/ll_aton/ll_aton_NN_interface.h **** 
  27:Lib/AI_Runtime/Npu/ll_aton/ll_aton_NN_interface.h **** #include <assert.h>
  28:Lib/AI_Runtime/Npu/ll_aton/ll_aton_NN_interface.h **** #include <stdbool.h>
  29:Lib/AI_Runtime/Npu/ll_aton/ll_aton_NN_interface.h **** #include <stddef.h>
  30:Lib/AI_Runtime/Npu/ll_aton/ll_aton_NN_interface.h **** #include <stdint.h>
  31:Lib/AI_Runtime/Npu/ll_aton/ll_aton_NN_interface.h **** 
  32:Lib/AI_Runtime/Npu/ll_aton/ll_aton_NN_interface.h **** #include "ll_aton_config.h"
  33:Lib/AI_Runtime/Npu/ll_aton/ll_aton_NN_interface.h **** 
  34:Lib/AI_Runtime/Npu/ll_aton/ll_aton_NN_interface.h **** #include "ll_aton_attributes.h"
  35:Lib/AI_Runtime/Npu/ll_aton/ll_aton_NN_interface.h **** #include "ll_aton_util.h"
  36:Lib/AI_Runtime/Npu/ll_aton/ll_aton_NN_interface.h **** 
  37:Lib/AI_Runtime/Npu/ll_aton/ll_aton_NN_interface.h ****   /** @defgroup User I/O Return Values & Callback Event Types
  38:Lib/AI_Runtime/Npu/ll_aton/ll_aton_NN_interface.h ****    * @{
  39:Lib/AI_Runtime/Npu/ll_aton/ll_aton_NN_interface.h ****    */
  40:Lib/AI_Runtime/Npu/ll_aton/ll_aton_NN_interface.h **** 
  41:Lib/AI_Runtime/Npu/ll_aton/ll_aton_NN_interface.h ****   typedef enum LL_ATON_User_IO_Result
  42:Lib/AI_Runtime/Npu/ll_aton/ll_aton_NN_interface.h ****   {
  43:Lib/AI_Runtime/Npu/ll_aton/ll_aton_NN_interface.h ****     LL_ATON_User_IO_NOERROR,     /**< */
  44:Lib/AI_Runtime/Npu/ll_aton/ll_aton_NN_interface.h ****     LL_ATON_User_IO_WRONG_ALIGN, /**< */
  45:Lib/AI_Runtime/Npu/ll_aton/ll_aton_NN_interface.h ****     LL_ATON_User_IO_WRONG_SIZE,  /**< */
  46:Lib/AI_Runtime/Npu/ll_aton/ll_aton_NN_interface.h ****     LL_ATON_User_IO_WRONG_INDEX, /**< */
  47:Lib/AI_Runtime/Npu/ll_aton/ll_aton_NN_interface.h ****   } LL_ATON_User_IO_Result_t;
  48:Lib/AI_Runtime/Npu/ll_aton/ll_aton_NN_interface.h **** 
  49:Lib/AI_Runtime/Npu/ll_aton/ll_aton_NN_interface.h ****   typedef enum LL_ATON_RT_Callbacktype
  50:Lib/AI_Runtime/Npu/ll_aton/ll_aton_NN_interface.h ****   {
  51:Lib/AI_Runtime/Npu/ll_aton/ll_aton_NN_interface.h ****     LL_ATON_RT_Callbacktype_PRE_START,  /**< Callback called before start_epoch_block */
  52:Lib/AI_Runtime/Npu/ll_aton/ll_aton_NN_interface.h ****     LL_ATON_RT_Callbacktype_POST_START, /**< Callback called after start_epoch_block */
  53:Lib/AI_Runtime/Npu/ll_aton/ll_aton_NN_interface.h ****     LL_ATON_RT_Callbacktype_PRE_END,    /**< Callback called before end_epoch_block */
  54:Lib/AI_Runtime/Npu/ll_aton/ll_aton_NN_interface.h ****     LL_ATON_RT_Callbacktype_POST_END,   /**< Callback called after end_epoch_block */
  55:Lib/AI_Runtime/Npu/ll_aton/ll_aton_NN_interface.h ****     LL_ATON_RT_Callbacktype_NN_Init,    /**< Callback called after `LL_ATON_RT_Init_Network`,
  56:Lib/AI_Runtime/Npu/ll_aton/ll_aton_NN_interface.h ****                                          *     NOTE: 3rd parameter passed is `NULL` */
  57:Lib/AI_Runtime/Npu/ll_aton/ll_aton_NN_interface.h ****     LL_ATON_RT_Callbacktype_NN_DeInit,  /**< Callback called after `LL_ATON_RT_DeInit_Network`,
  58:Lib/AI_Runtime/Npu/ll_aton/ll_aton_NN_interface.h ****                                          *     NOTE: 3rd parameter passed is `NULL` */
  59:Lib/AI_Runtime/Npu/ll_aton/ll_aton_NN_interface.h ****     LL_ATON_RT_Callbacktype_RT_Init,    /**< Callback called after `LL_ATON_RT_RuntimeInit` */
  60:Lib/AI_Runtime/Npu/ll_aton/ll_aton_NN_interface.h ****     LL_ATON_RT_Callbacktype_RT_Deinit,  /**< Callback called before `LL_ATON_RT_RuntimeDeInit` */
  61:Lib/AI_Runtime/Npu/ll_aton/ll_aton_NN_interface.h ****   } LL_ATON_RT_Callbacktype_t;
  62:Lib/AI_Runtime/Npu/ll_aton/ll_aton_NN_interface.h **** 
  63:Lib/AI_Runtime/Npu/ll_aton/ll_aton_NN_interface.h ****   /**
  64:Lib/AI_Runtime/Npu/ll_aton/ll_aton_NN_interface.h ****    * @}
  65:Lib/AI_Runtime/Npu/ll_aton/ll_aton_NN_interface.h ****    */
  66:Lib/AI_Runtime/Npu/ll_aton/ll_aton_NN_interface.h **** 
  67:Lib/AI_Runtime/Npu/ll_aton/ll_aton_NN_interface.h ****   /** @defgroup Handle-style Data Types for Epoch Blocks
  68:Lib/AI_Runtime/Npu/ll_aton/ll_aton_NN_interface.h ****    * @{
  69:Lib/AI_Runtime/Npu/ll_aton/ll_aton_NN_interface.h ****    */
  70:Lib/AI_Runtime/Npu/ll_aton/ll_aton_NN_interface.h **** 
  71:Lib/AI_Runtime/Npu/ll_aton/ll_aton_NN_interface.h ****   /* this is needed to avoid some compilers (e.g. KEIL) that observe a strict semantic about conver
  72:Lib/AI_Runtime/Npu/ll_aton/ll_aton_NN_interface.h ****    * pointers to integers in cost initializers
  73:Lib/AI_Runtime/Npu/ll_aton/ll_aton_NN_interface.h ****    */
  74:Lib/AI_Runtime/Npu/ll_aton/ll_aton_NN_interface.h ****   typedef union
  75:Lib/AI_Runtime/Npu/ll_aton/ll_aton_NN_interface.h ****   {
  76:Lib/AI_Runtime/Npu/ll_aton/ll_aton_NN_interface.h ****     unsigned char *p;
  77:Lib/AI_Runtime/Npu/ll_aton/ll_aton_NN_interface.h ****     uintptr_t i;
  78:Lib/AI_Runtime/Npu/ll_aton/ll_aton_NN_interface.h ****   } __LL_address_t;
  79:Lib/AI_Runtime/Npu/ll_aton/ll_aton_NN_interface.h **** 
  80:Lib/AI_Runtime/Npu/ll_aton/ll_aton_NN_interface.h ****   typedef void (*EpochBlock_FuncPtr_t)(const void *epoch_block);
  81:Lib/AI_Runtime/Npu/ll_aton/ll_aton_NN_interface.h **** 
  82:Lib/AI_Runtime/Npu/ll_aton/ll_aton_NN_interface.h ****   typedef enum
ARM GAS  /tmp/ccrysqwW.s 			page 3


  83:Lib/AI_Runtime/Npu/ll_aton/ll_aton_NN_interface.h ****   {
  84:Lib/AI_Runtime/Npu/ll_aton/ll_aton_NN_interface.h ****     EpochBlock_Flags_NONE = 0x0,                 /**< */
  85:Lib/AI_Runtime/Npu/ll_aton/ll_aton_NN_interface.h ****     EpochBlock_Flags_epoch_start = (0x1 << 0),   /**< First EpochBlock of an Epoch */
  86:Lib/AI_Runtime/Npu/ll_aton/ll_aton_NN_interface.h ****     EpochBlock_Flags_epoch_end = (0x1 << 1),     /**< Last EpochBlock of an Epoch */
  87:Lib/AI_Runtime/Npu/ll_aton/ll_aton_NN_interface.h ****     EpochBlock_Flags_blob = (0x1 << 2),          /**< Item is an Epoch Blob */
  88:Lib/AI_Runtime/Npu/ll_aton/ll_aton_NN_interface.h ****     EpochBlock_Flags_last_eb = (0x1 << 3),       /**< Last EpochBlock */
  89:Lib/AI_Runtime/Npu/ll_aton/ll_aton_NN_interface.h ****     EpochBlock_Flags_pure_hw = (0x1 << 4),       /**< Pure HW EpochBlock */
  90:Lib/AI_Runtime/Npu/ll_aton/ll_aton_NN_interface.h ****     EpochBlock_Flags_pure_sw = (0x1 << 5),       /**< Pure SW EpochBlock */
  91:Lib/AI_Runtime/Npu/ll_aton/ll_aton_NN_interface.h ****     EpochBlock_Flags_hybrid = (0x1 << 6),        /**< Hybrid EpochBlock (i.e. mixed HW/SW) */
  92:Lib/AI_Runtime/Npu/ll_aton/ll_aton_NN_interface.h ****     EpochBlock_Flags_internal = (0x1 << 7),      /**< ATON lib internal EpochBlock (used to impleme
  93:Lib/AI_Runtime/Npu/ll_aton/ll_aton_NN_interface.h ****     EpochBlock_Flags_blob_encrypted = (0x1 << 8) /**< The blob is encrypted and must be decrypted o
  94:Lib/AI_Runtime/Npu/ll_aton/ll_aton_NN_interface.h ****   } EpochBlock_Flags_t;
  95:Lib/AI_Runtime/Npu/ll_aton/ll_aton_NN_interface.h **** 
  96:Lib/AI_Runtime/Npu/ll_aton/ll_aton_NN_interface.h ****   typedef struct
  97:Lib/AI_Runtime/Npu/ll_aton/ll_aton_NN_interface.h ****   {
  98:Lib/AI_Runtime/Npu/ll_aton/ll_aton_NN_interface.h ****     EpochBlock_FuncPtr_t start_epoch_block; /**< Method to execute the EpochBlock */
  99:Lib/AI_Runtime/Npu/ll_aton/ll_aton_NN_interface.h ****     EpochBlock_FuncPtr_t end_epoch_block;   /**< Method to be executed when the EpochBlock ends */
 100:Lib/AI_Runtime/Npu/ll_aton/ll_aton_NN_interface.h ****     uintptr_t blob_address;                 /**< Blob address (in case this EpochBlock represents a
 101:Lib/AI_Runtime/Npu/ll_aton/ll_aton_NN_interface.h ****     uint32_t wait_mask;                     /**< Mask needed to check when an EpochBlock ends
 102:Lib/AI_Runtime/Npu/ll_aton/ll_aton_NN_interface.h ****                                              *    - if epoch blob: number (not bitmask) of epoch co
 103:Lib/AI_Runtime/Npu/ll_aton/ll_aton_NN_interface.h ****                                              *    - otherwise: bitmask with all output streaming en
 104:Lib/AI_Runtime/Npu/ll_aton/ll_aton_NN_interface.h ****     uint16_t flags;                         /**< EpochBlock flags */
 105:Lib/AI_Runtime/Npu/ll_aton/ll_aton_NN_interface.h **** #ifdef LL_ATON_EB_DBG_INFO
 106:Lib/AI_Runtime/Npu/ll_aton/ll_aton_NN_interface.h ****     int16_t epoch_num;             /**< Epoch number / First epoch number within blob */
 107:Lib/AI_Runtime/Npu/ll_aton/ll_aton_NN_interface.h ****     int16_t last_epoch_num;        /**< Epoch number / Last epoch number within blob */
 108:Lib/AI_Runtime/Npu/ll_aton/ll_aton_NN_interface.h ****     uint32_t in_streng_mask;       /**< Debug information about input streaming engines used in epo
 109:Lib/AI_Runtime/Npu/ll_aton/ll_aton_NN_interface.h ****     uint32_t out_streng_mask;      /**< Debug information about output streaming engines used in ep
 110:Lib/AI_Runtime/Npu/ll_aton/ll_aton_NN_interface.h ****     uint64_t estimated_npu_cycles; /**< Debug information estimates for NPU cycles in epoch w/o mem
 111:Lib/AI_Runtime/Npu/ll_aton/ll_aton_NN_interface.h ****     uint64_t estimated_tot_cycles; /**< Debug information estimates for NPU cycles in epoch w/ memo
 112:Lib/AI_Runtime/Npu/ll_aton/ll_aton_NN_interface.h **** #endif                             // LL_ATON_EB_DBG_INFO
 113:Lib/AI_Runtime/Npu/ll_aton/ll_aton_NN_interface.h ****   } EpochBlock_ItemTypeDef;
 114:Lib/AI_Runtime/Npu/ll_aton/ll_aton_NN_interface.h ****   typedef EpochBlock_ItemTypeDef LL_ATON_RT_EpochBlockItem_t;
 115:Lib/AI_Runtime/Npu/ll_aton/ll_aton_NN_interface.h **** 
 116:Lib/AI_Runtime/Npu/ll_aton/ll_aton_NN_interface.h ****   /**
 117:Lib/AI_Runtime/Npu/ll_aton/ll_aton_NN_interface.h ****    * @}
 118:Lib/AI_Runtime/Npu/ll_aton/ll_aton_NN_interface.h ****    */
 119:Lib/AI_Runtime/Npu/ll_aton/ll_aton_NN_interface.h **** 
 120:Lib/AI_Runtime/Npu/ll_aton/ll_aton_NN_interface.h ****   /** @defgroup Helper Function Declarations for User Callbacks
 121:Lib/AI_Runtime/Npu/ll_aton/ll_aton_NN_interface.h ****    * @{
 122:Lib/AI_Runtime/Npu/ll_aton/ll_aton_NN_interface.h ****    */
 123:Lib/AI_Runtime/Npu/ll_aton/ll_aton_NN_interface.h **** 
 124:Lib/AI_Runtime/Npu/ll_aton/ll_aton_NN_interface.h ****   /**
 125:Lib/AI_Runtime/Npu/ll_aton/ll_aton_NN_interface.h ****    * @brief Checks if the pointed element is the last one of an array of `const EpochBlock_ItemType
 126:Lib/AI_Runtime/Npu/ll_aton/ll_aton_NN_interface.h ****    *
 127:Lib/AI_Runtime/Npu/ll_aton/ll_aton_NN_interface.h ****    */
 128:Lib/AI_Runtime/Npu/ll_aton/ll_aton_NN_interface.h ****   static inline bool EpochBlock_IsLastEpochBlock(const EpochBlock_ItemTypeDef *eb);
 129:Lib/AI_Runtime/Npu/ll_aton/ll_aton_NN_interface.h **** 
 130:Lib/AI_Runtime/Npu/ll_aton/ll_aton_NN_interface.h ****   /**
 131:Lib/AI_Runtime/Npu/ll_aton/ll_aton_NN_interface.h ****    * @brief Checks if the pointed element is the first EpochBlock of an Epoch
 132:Lib/AI_Runtime/Npu/ll_aton/ll_aton_NN_interface.h ****    *
 133:Lib/AI_Runtime/Npu/ll_aton/ll_aton_NN_interface.h ****    */
 134:Lib/AI_Runtime/Npu/ll_aton/ll_aton_NN_interface.h ****   static inline bool EpochBlock_IsEpochStart(const EpochBlock_ItemTypeDef *eb);
 135:Lib/AI_Runtime/Npu/ll_aton/ll_aton_NN_interface.h **** 
 136:Lib/AI_Runtime/Npu/ll_aton/ll_aton_NN_interface.h ****   /**
 137:Lib/AI_Runtime/Npu/ll_aton/ll_aton_NN_interface.h ****    * @brief Checks if the pointed element is the last EpochBlock of an Epoch
 138:Lib/AI_Runtime/Npu/ll_aton/ll_aton_NN_interface.h ****    *
 139:Lib/AI_Runtime/Npu/ll_aton/ll_aton_NN_interface.h ****    */
ARM GAS  /tmp/ccrysqwW.s 			page 4


 140:Lib/AI_Runtime/Npu/ll_aton/ll_aton_NN_interface.h ****   static inline bool EpochBlock_IsEpochEnd(const EpochBlock_ItemTypeDef *eb);
 141:Lib/AI_Runtime/Npu/ll_aton/ll_aton_NN_interface.h **** 
 142:Lib/AI_Runtime/Npu/ll_aton/ll_aton_NN_interface.h ****   /**
 143:Lib/AI_Runtime/Npu/ll_aton/ll_aton_NN_interface.h ****    * @brief Checks if the pointed element is the an Epoch Blob
 144:Lib/AI_Runtime/Npu/ll_aton/ll_aton_NN_interface.h ****    *
 145:Lib/AI_Runtime/Npu/ll_aton/ll_aton_NN_interface.h ****    */
 146:Lib/AI_Runtime/Npu/ll_aton/ll_aton_NN_interface.h ****   static inline bool EpochBlock_IsEpochBlob(const EpochBlock_ItemTypeDef *eb);
 147:Lib/AI_Runtime/Npu/ll_aton/ll_aton_NN_interface.h **** 
 148:Lib/AI_Runtime/Npu/ll_aton/ll_aton_NN_interface.h ****   /**
 149:Lib/AI_Runtime/Npu/ll_aton/ll_aton_NN_interface.h ****    * @brief Checks if - in case this epoch is a blob (see above) - the blob is encrypted
 150:Lib/AI_Runtime/Npu/ll_aton/ll_aton_NN_interface.h ****    *
 151:Lib/AI_Runtime/Npu/ll_aton/ll_aton_NN_interface.h ****    */
 152:Lib/AI_Runtime/Npu/ll_aton/ll_aton_NN_interface.h ****   static inline bool EpochBlock_IsBlobEncrypted(const EpochBlock_ItemTypeDef *eb);
 153:Lib/AI_Runtime/Npu/ll_aton/ll_aton_NN_interface.h **** 
 154:Lib/AI_Runtime/Npu/ll_aton/ll_aton_NN_interface.h ****   /**
 155:Lib/AI_Runtime/Npu/ll_aton/ll_aton_NN_interface.h ****    * @brief Checks if the pointed element is pure SW epoch
 156:Lib/AI_Runtime/Npu/ll_aton/ll_aton_NN_interface.h ****    *
 157:Lib/AI_Runtime/Npu/ll_aton/ll_aton_NN_interface.h ****    */
 158:Lib/AI_Runtime/Npu/ll_aton/ll_aton_NN_interface.h ****   static inline bool EpochBlock_IsEpochPureSW(const EpochBlock_ItemTypeDef *eb);
 159:Lib/AI_Runtime/Npu/ll_aton/ll_aton_NN_interface.h **** 
 160:Lib/AI_Runtime/Npu/ll_aton/ll_aton_NN_interface.h ****   /**
 161:Lib/AI_Runtime/Npu/ll_aton/ll_aton_NN_interface.h ****    * @brief Checks if the pointed element is a pure HW or mixed SW/HW epoch
 162:Lib/AI_Runtime/Npu/ll_aton/ll_aton_NN_interface.h ****    *
 163:Lib/AI_Runtime/Npu/ll_aton/ll_aton_NN_interface.h ****    */
 164:Lib/AI_Runtime/Npu/ll_aton/ll_aton_NN_interface.h ****   static inline bool EpochBlock_IsEpochPureHW(const EpochBlock_ItemTypeDef *eb);
 165:Lib/AI_Runtime/Npu/ll_aton/ll_aton_NN_interface.h **** 
 166:Lib/AI_Runtime/Npu/ll_aton/ll_aton_NN_interface.h ****   /**
 167:Lib/AI_Runtime/Npu/ll_aton/ll_aton_NN_interface.h ****    * @brief Checks if the pointed element is a hybrid epoch
 168:Lib/AI_Runtime/Npu/ll_aton/ll_aton_NN_interface.h ****    *
 169:Lib/AI_Runtime/Npu/ll_aton/ll_aton_NN_interface.h ****    */
 170:Lib/AI_Runtime/Npu/ll_aton/ll_aton_NN_interface.h ****   static inline bool EpochBlock_IsEpochHybrid(const EpochBlock_ItemTypeDef *eb);
 171:Lib/AI_Runtime/Npu/ll_aton/ll_aton_NN_interface.h **** 
 172:Lib/AI_Runtime/Npu/ll_aton/ll_aton_NN_interface.h ****   /**
 173:Lib/AI_Runtime/Npu/ll_aton/ll_aton_NN_interface.h ****    * @brief Checks if the pointed element is an internal epoch
 174:Lib/AI_Runtime/Npu/ll_aton/ll_aton_NN_interface.h ****    *
 175:Lib/AI_Runtime/Npu/ll_aton/ll_aton_NN_interface.h ****    */
 176:Lib/AI_Runtime/Npu/ll_aton/ll_aton_NN_interface.h ****   static inline bool EpochBlock_IsEpochInternal(const EpochBlock_ItemTypeDef *eb);
 177:Lib/AI_Runtime/Npu/ll_aton/ll_aton_NN_interface.h **** 
 178:Lib/AI_Runtime/Npu/ll_aton/ll_aton_NN_interface.h ****   /**
 179:Lib/AI_Runtime/Npu/ll_aton/ll_aton_NN_interface.h ****    * @brief Returns the Epoch controller id to use
 180:Lib/AI_Runtime/Npu/ll_aton/ll_aton_NN_interface.h ****    *
 181:Lib/AI_Runtime/Npu/ll_aton/ll_aton_NN_interface.h ****    */
 182:Lib/AI_Runtime/Npu/ll_aton/ll_aton_NN_interface.h ****   static inline uint32_t EpochBlock_EpochControllerUnit(const EpochBlock_ItemTypeDef *eb);
 183:Lib/AI_Runtime/Npu/ll_aton/ll_aton_NN_interface.h **** 
 184:Lib/AI_Runtime/Npu/ll_aton/ll_aton_NN_interface.h ****   /**
 185:Lib/AI_Runtime/Npu/ll_aton/ll_aton_NN_interface.h ****    * @brief Returns the address of the configuration of the epoch controller (the blob address)
 186:Lib/AI_Runtime/Npu/ll_aton/ll_aton_NN_interface.h ****    *
 187:Lib/AI_Runtime/Npu/ll_aton/ll_aton_NN_interface.h ****    */
 188:Lib/AI_Runtime/Npu/ll_aton/ll_aton_NN_interface.h ****   static inline uintptr_t EpochBlock_EpochBlobAddr(const EpochBlock_ItemTypeDef *eb);
 189:Lib/AI_Runtime/Npu/ll_aton/ll_aton_NN_interface.h **** 
 190:Lib/AI_Runtime/Npu/ll_aton/ll_aton_NN_interface.h ****   /**
 191:Lib/AI_Runtime/Npu/ll_aton/ll_aton_NN_interface.h ****    * @brief ATON buffer types definition
 192:Lib/AI_Runtime/Npu/ll_aton/ll_aton_NN_interface.h ****    */
 193:Lib/AI_Runtime/Npu/ll_aton/ll_aton_NN_interface.h **** 
 194:Lib/AI_Runtime/Npu/ll_aton/ll_aton_NN_interface.h ****   /**
 195:Lib/AI_Runtime/Npu/ll_aton/ll_aton_NN_interface.h ****    * @}
 196:Lib/AI_Runtime/Npu/ll_aton/ll_aton_NN_interface.h ****    */
ARM GAS  /tmp/ccrysqwW.s 			page 5


 197:Lib/AI_Runtime/Npu/ll_aton/ll_aton_NN_interface.h **** 
 198:Lib/AI_Runtime/Npu/ll_aton/ll_aton_NN_interface.h ****   /** @defgroup Handle-style Data Types for Input, Output, and Internal Buffers
 199:Lib/AI_Runtime/Npu/ll_aton/ll_aton_NN_interface.h ****    * @{
 200:Lib/AI_Runtime/Npu/ll_aton/ll_aton_NN_interface.h ****    */
 201:Lib/AI_Runtime/Npu/ll_aton/ll_aton_NN_interface.h **** 
 202:Lib/AI_Runtime/Npu/ll_aton/ll_aton_NN_interface.h ****   typedef enum
 203:Lib/AI_Runtime/Npu/ll_aton/ll_aton_NN_interface.h ****   {
 204:Lib/AI_Runtime/Npu/ll_aton/ll_aton_NN_interface.h ****     DataType_UNDEFINED = 0,
 205:Lib/AI_Runtime/Npu/ll_aton/ll_aton_NN_interface.h ****     DataType_FLOAT = 1,
 206:Lib/AI_Runtime/Npu/ll_aton/ll_aton_NN_interface.h ****     DataType_UINT2 = 2,
 207:Lib/AI_Runtime/Npu/ll_aton/ll_aton_NN_interface.h ****     DataType_INT2 = 3,
 208:Lib/AI_Runtime/Npu/ll_aton/ll_aton_NN_interface.h ****     DataType_UINT4 = 4,
 209:Lib/AI_Runtime/Npu/ll_aton/ll_aton_NN_interface.h ****     DataType_INT4 = 5,
 210:Lib/AI_Runtime/Npu/ll_aton/ll_aton_NN_interface.h ****     DataType_UINT8 = 6,
 211:Lib/AI_Runtime/Npu/ll_aton/ll_aton_NN_interface.h ****     DataType_INT8 = 7,
 212:Lib/AI_Runtime/Npu/ll_aton/ll_aton_NN_interface.h ****     DataType_UINT16 = 8,
 213:Lib/AI_Runtime/Npu/ll_aton/ll_aton_NN_interface.h ****     DataType_INT16 = 9,
 214:Lib/AI_Runtime/Npu/ll_aton/ll_aton_NN_interface.h ****     DataType_INT32 = 10,
 215:Lib/AI_Runtime/Npu/ll_aton/ll_aton_NN_interface.h ****     DataType_INT64 = 11,
 216:Lib/AI_Runtime/Npu/ll_aton/ll_aton_NN_interface.h ****     DataType_STRING = 12,
 217:Lib/AI_Runtime/Npu/ll_aton/ll_aton_NN_interface.h ****     DataType_BOOL = 13,
 218:Lib/AI_Runtime/Npu/ll_aton/ll_aton_NN_interface.h ****     DataType_FLOAT16 = 14,
 219:Lib/AI_Runtime/Npu/ll_aton/ll_aton_NN_interface.h ****     DataType_DOUBLE = 15,
 220:Lib/AI_Runtime/Npu/ll_aton/ll_aton_NN_interface.h ****     DataType_UINT32 = 16,
 221:Lib/AI_Runtime/Npu/ll_aton/ll_aton_NN_interface.h ****     DataType_UINT64 = 17,
 222:Lib/AI_Runtime/Npu/ll_aton/ll_aton_NN_interface.h ****     DataType_COMPLEX64 = 18,
 223:Lib/AI_Runtime/Npu/ll_aton/ll_aton_NN_interface.h ****     DataType_COMPLEX128 = 19,
 224:Lib/AI_Runtime/Npu/ll_aton/ll_aton_NN_interface.h ****     DataType_BFLOAT16 = 20,
 225:Lib/AI_Runtime/Npu/ll_aton/ll_aton_NN_interface.h ****     DataType_FXP = 100 // AtoNN specific
 226:Lib/AI_Runtime/Npu/ll_aton/ll_aton_NN_interface.h ****   } Buffer_DataType_TypeDef;
 227:Lib/AI_Runtime/Npu/ll_aton/ll_aton_NN_interface.h **** 
 228:Lib/AI_Runtime/Npu/ll_aton/ll_aton_NN_interface.h ****   /**
 229:Lib/AI_Runtime/Npu/ll_aton/ll_aton_NN_interface.h ****    * @brief ATON buffer Channel position
 230:Lib/AI_Runtime/Npu/ll_aton/ll_aton_NN_interface.h ****    */
 231:Lib/AI_Runtime/Npu/ll_aton/ll_aton_NN_interface.h **** 
 232:Lib/AI_Runtime/Npu/ll_aton/ll_aton_NN_interface.h ****   typedef enum
 233:Lib/AI_Runtime/Npu/ll_aton/ll_aton_NN_interface.h ****   {
 234:Lib/AI_Runtime/Npu/ll_aton/ll_aton_NN_interface.h ****     CHPos_UNDEFINED = 0, /**< No channel present */
 235:Lib/AI_Runtime/Npu/ll_aton/ll_aton_NN_interface.h ****     CHPos_First = 1,     /**< Channel First         ( ...B C H W )*/
 236:Lib/AI_Runtime/Npu/ll_aton/ll_aton_NN_interface.h ****     CHPos_Last = 2,      /**< Channel Last          ( ...B H W C ) */
 237:Lib/AI_Runtime/Npu/ll_aton/ll_aton_NN_interface.h ****     CHPos_Mixed = 3,     /**< Channel with Batch(b) ( ...B C/b H W b ) */
 238:Lib/AI_Runtime/Npu/ll_aton/ll_aton_NN_interface.h ****   } Buffer_CHPos_TypeDef;
 239:Lib/AI_Runtime/Npu/ll_aton/ll_aton_NN_interface.h **** 
 240:Lib/AI_Runtime/Npu/ll_aton/ll_aton_NN_interface.h ****   /**
 241:Lib/AI_Runtime/Npu/ll_aton/ll_aton_NN_interface.h ****    * @brief ATON buffer definition
 242:Lib/AI_Runtime/Npu/ll_aton/ll_aton_NN_interface.h ****    */
 243:Lib/AI_Runtime/Npu/ll_aton/ll_aton_NN_interface.h ****   typedef struct
 244:Lib/AI_Runtime/Npu/ll_aton/ll_aton_NN_interface.h ****   {
 245:Lib/AI_Runtime/Npu/ll_aton/ll_aton_NN_interface.h ****     const char *name;             /**< Buffer name. NULL if end of list */
 246:Lib/AI_Runtime/Npu/ll_aton/ll_aton_NN_interface.h ****     __LL_address_t addr_base;     /**< Buffer base address */
 247:Lib/AI_Runtime/Npu/ll_aton/ll_aton_NN_interface.h ****     uint32_t offset_start;        /**< Offset of the buffer start address from the base address */
 248:Lib/AI_Runtime/Npu/ll_aton/ll_aton_NN_interface.h ****     uint32_t offset_end;          /**< Offset of the buffer end address from the base address
 249:Lib/AI_Runtime/Npu/ll_aton/ll_aton_NN_interface.h ****                                    *   (first bytes address beyond buffer length) */
 250:Lib/AI_Runtime/Npu/ll_aton/ll_aton_NN_interface.h ****     uint32_t offset_limit;        /**< Offset of the limiter address from the base address,
 251:Lib/AI_Runtime/Npu/ll_aton/ll_aton_NN_interface.h ****                                    *   (needed for configuring streaming engines) */
 252:Lib/AI_Runtime/Npu/ll_aton/ll_aton_NN_interface.h ****     uint8_t is_user_allocated;    /**< */
 253:Lib/AI_Runtime/Npu/ll_aton/ll_aton_NN_interface.h ****     uint8_t is_param;             /**< */
ARM GAS  /tmp/ccrysqwW.s 			page 6


 254:Lib/AI_Runtime/Npu/ll_aton/ll_aton_NN_interface.h ****     uint16_t epoch;               /**< */
 255:Lib/AI_Runtime/Npu/ll_aton/ll_aton_NN_interface.h ****     uint32_t batch;               /**< */
 256:Lib/AI_Runtime/Npu/ll_aton/ll_aton_NN_interface.h ****     const uint32_t *mem_shape;    /**< shape as seen by the user in memory (only valid for input/ou
 257:Lib/AI_Runtime/Npu/ll_aton/ll_aton_NN_interface.h ****     uint16_t mem_ndims;           /**< Number of dimensions of mem_shape (Length of mem_shape) */
 258:Lib/AI_Runtime/Npu/ll_aton/ll_aton_NN_interface.h ****     Buffer_CHPos_TypeDef chpos;   /**< Position  of channels dimension in mem shape */
 259:Lib/AI_Runtime/Npu/ll_aton/ll_aton_NN_interface.h ****     Buffer_DataType_TypeDef type; /**< */
 260:Lib/AI_Runtime/Npu/ll_aton/ll_aton_NN_interface.h ****     int8_t Qm;                    /**< */
 261:Lib/AI_Runtime/Npu/ll_aton/ll_aton_NN_interface.h ****     int8_t Qn;                    /**< */
 262:Lib/AI_Runtime/Npu/ll_aton/ll_aton_NN_interface.h ****     uint8_t Qunsigned;            /**< */
 263:Lib/AI_Runtime/Npu/ll_aton/ll_aton_NN_interface.h ****     uint8_t ndims;                /**< */
 264:Lib/AI_Runtime/Npu/ll_aton/ll_aton_NN_interface.h ****     uint8_t nbits;                /**< */
 265:Lib/AI_Runtime/Npu/ll_aton/ll_aton_NN_interface.h ****     uint8_t per_channel;          /**< */
 266:Lib/AI_Runtime/Npu/ll_aton/ll_aton_NN_interface.h ****     const uint32_t *shape;        /**< */
 267:Lib/AI_Runtime/Npu/ll_aton/ll_aton_NN_interface.h ****     const float *scale;           /**< */
 268:Lib/AI_Runtime/Npu/ll_aton/ll_aton_NN_interface.h ****     const int16_t *offset;        /**< This can become int8 or uint8 based on the Qunsigned field.
 269:Lib/AI_Runtime/Npu/ll_aton/ll_aton_NN_interface.h ****                                    *   (This field Must have the same format of the quantized value
 270:Lib/AI_Runtime/Npu/ll_aton/ll_aton_NN_interface.h ****   } LL_Buffer_InfoTypeDef;
 271:Lib/AI_Runtime/Npu/ll_aton/ll_aton_NN_interface.h **** 
 272:Lib/AI_Runtime/Npu/ll_aton/ll_aton_NN_interface.h ****   /**
 273:Lib/AI_Runtime/Npu/ll_aton/ll_aton_NN_interface.h ****    * @}
 274:Lib/AI_Runtime/Npu/ll_aton/ll_aton_NN_interface.h ****    */
 275:Lib/AI_Runtime/Npu/ll_aton/ll_aton_NN_interface.h **** 
 276:Lib/AI_Runtime/Npu/ll_aton/ll_aton_NN_interface.h ****   /** @defgroup Helper Function Declarations for Buffer Analysis
 277:Lib/AI_Runtime/Npu/ll_aton/ll_aton_NN_interface.h ****    * @{
 278:Lib/AI_Runtime/Npu/ll_aton/ll_aton_NN_interface.h ****    */
 279:Lib/AI_Runtime/Npu/ll_aton/ll_aton_NN_interface.h **** 
 280:Lib/AI_Runtime/Npu/ll_aton/ll_aton_NN_interface.h ****   /**
 281:Lib/AI_Runtime/Npu/ll_aton/ll_aton_NN_interface.h ****    * @brief returns the base address of the mem pool the buffer is allocated in
 282:Lib/AI_Runtime/Npu/ll_aton/ll_aton_NN_interface.h ****    *
 283:Lib/AI_Runtime/Npu/ll_aton/ll_aton_NN_interface.h ****    */
 284:Lib/AI_Runtime/Npu/ll_aton/ll_aton_NN_interface.h ****   static inline unsigned char *LL_Buffer_addr_base(const LL_Buffer_InfoTypeDef *buf);
 285:Lib/AI_Runtime/Npu/ll_aton/ll_aton_NN_interface.h **** 
 286:Lib/AI_Runtime/Npu/ll_aton/ll_aton_NN_interface.h ****   /**
 287:Lib/AI_Runtime/Npu/ll_aton/ll_aton_NN_interface.h ****    * @brief returns the start address of the buffer
 288:Lib/AI_Runtime/Npu/ll_aton/ll_aton_NN_interface.h ****    *
 289:Lib/AI_Runtime/Npu/ll_aton/ll_aton_NN_interface.h ****    */
 290:Lib/AI_Runtime/Npu/ll_aton/ll_aton_NN_interface.h ****   static inline unsigned char *LL_Buffer_addr_start(const LL_Buffer_InfoTypeDef *buf);
 291:Lib/AI_Runtime/Npu/ll_aton/ll_aton_NN_interface.h **** 
 292:Lib/AI_Runtime/Npu/ll_aton/ll_aton_NN_interface.h ****   /**
 293:Lib/AI_Runtime/Npu/ll_aton/ll_aton_NN_interface.h ****    * @brief returns the end address of the buffer
 294:Lib/AI_Runtime/Npu/ll_aton/ll_aton_NN_interface.h ****    *
 295:Lib/AI_Runtime/Npu/ll_aton/ll_aton_NN_interface.h ****    */
 296:Lib/AI_Runtime/Npu/ll_aton/ll_aton_NN_interface.h ****   static inline unsigned char *LL_Buffer_addr_end(const LL_Buffer_InfoTypeDef *buf);
 297:Lib/AI_Runtime/Npu/ll_aton/ll_aton_NN_interface.h **** 
 298:Lib/AI_Runtime/Npu/ll_aton/ll_aton_NN_interface.h ****   /**
 299:Lib/AI_Runtime/Npu/ll_aton/ll_aton_NN_interface.h ****    * @brief returns the limit address of the buffer
 300:Lib/AI_Runtime/Npu/ll_aton/ll_aton_NN_interface.h ****    *
 301:Lib/AI_Runtime/Npu/ll_aton/ll_aton_NN_interface.h ****    */
 302:Lib/AI_Runtime/Npu/ll_aton/ll_aton_NN_interface.h ****   static inline unsigned char *LL_Buffer_addr_limit(const LL_Buffer_InfoTypeDef *buf);
 303:Lib/AI_Runtime/Npu/ll_aton/ll_aton_NN_interface.h **** 
 304:Lib/AI_Runtime/Npu/ll_aton/ll_aton_NN_interface.h ****   /**
 305:Lib/AI_Runtime/Npu/ll_aton/ll_aton_NN_interface.h ****    * @brief returns the length of the buffer
 306:Lib/AI_Runtime/Npu/ll_aton/ll_aton_NN_interface.h ****    *
 307:Lib/AI_Runtime/Npu/ll_aton/ll_aton_NN_interface.h ****    */
 308:Lib/AI_Runtime/Npu/ll_aton/ll_aton_NN_interface.h ****   static inline uint32_t LL_Buffer_len(const LL_Buffer_InfoTypeDef *buf);
 309:Lib/AI_Runtime/Npu/ll_aton/ll_aton_NN_interface.h **** 
 310:Lib/AI_Runtime/Npu/ll_aton/ll_aton_NN_interface.h ****   /**
ARM GAS  /tmp/ccrysqwW.s 			page 7


 311:Lib/AI_Runtime/Npu/ll_aton/ll_aton_NN_interface.h ****    * @brief returns the buffer elements number of bits
 312:Lib/AI_Runtime/Npu/ll_aton/ll_aton_NN_interface.h ****    *
 313:Lib/AI_Runtime/Npu/ll_aton/ll_aton_NN_interface.h ****    */
 314:Lib/AI_Runtime/Npu/ll_aton/ll_aton_NN_interface.h ****   static inline uint32_t LL_Buffer_bits(const LL_Buffer_InfoTypeDef *buf);
 315:Lib/AI_Runtime/Npu/ll_aton/ll_aton_NN_interface.h **** 
 316:Lib/AI_Runtime/Npu/ll_aton/ll_aton_NN_interface.h ****   /**
 317:Lib/AI_Runtime/Npu/ll_aton/ll_aton_NN_interface.h ****    * @}
 318:Lib/AI_Runtime/Npu/ll_aton/ll_aton_NN_interface.h ****    */
 319:Lib/AI_Runtime/Npu/ll_aton/ll_aton_NN_interface.h **** 
 320:Lib/AI_Runtime/Npu/ll_aton/ll_aton_NN_interface.h ****   /** @defgroup Handle-style Data Types and Declaration Macros for ATON Runtime Execution & User AP
 321:Lib/AI_Runtime/Npu/ll_aton/ll_aton_NN_interface.h ****    * @{
 322:Lib/AI_Runtime/Npu/ll_aton/ll_aton_NN_interface.h ****    */
 323:Lib/AI_Runtime/Npu/ll_aton/ll_aton_NN_interface.h **** 
 324:Lib/AI_Runtime/Npu/ll_aton/ll_aton_NN_interface.h ****   struct __nn_instance_struct; // forward declaration
 325:Lib/AI_Runtime/Npu/ll_aton/ll_aton_NN_interface.h ****   typedef struct __nn_instance_struct NN_Instance_TypeDef;
 326:Lib/AI_Runtime/Npu/ll_aton/ll_aton_NN_interface.h **** 
 327:Lib/AI_Runtime/Npu/ll_aton/ll_aton_NN_interface.h **** /**
 328:Lib/AI_Runtime/Npu/ll_aton/ll_aton_NN_interface.h ****  * @brief Declare the function prototypes for named NN interface functions generated by the AtoNN c
 329:Lib/AI_Runtime/Npu/ll_aton/ll_aton_NN_interface.h ****  * @param network_name name of the network as provided by option `--network-name`
 330:Lib/AI_Runtime/Npu/ll_aton/ll_aton_NN_interface.h ****  */
 331:Lib/AI_Runtime/Npu/ll_aton/ll_aton_NN_interface.h **** #define LL_ATON_DECLARE_NAMED_NN_PROTOS(network_name)                                              
 332:Lib/AI_Runtime/Npu/ll_aton/ll_aton_NN_interface.h ****   extern bool LL_ATON_EC_Network_Init_##network_name(void);                                        
 333:Lib/AI_Runtime/Npu/ll_aton/ll_aton_NN_interface.h ****   extern bool LL_ATON_EC_Inference_Init_##network_name(void);                                      
 334:Lib/AI_Runtime/Npu/ll_aton/ll_aton_NN_interface.h ****   extern LL_ATON_User_IO_Result_t LL_ATON_Set_User_Input_Buffer_##network_name(uint32_t num, void *
 335:Lib/AI_Runtime/Npu/ll_aton/ll_aton_NN_interface.h ****                                                                                uint32_t size);     
 336:Lib/AI_Runtime/Npu/ll_aton/ll_aton_NN_interface.h ****   extern void *LL_ATON_Get_User_Input_Buffer_##network_name(uint32_t num);                         
 337:Lib/AI_Runtime/Npu/ll_aton/ll_aton_NN_interface.h ****   extern LL_ATON_User_IO_Result_t LL_ATON_Set_User_Output_Buffer_##network_name(uint32_t num, void 
 338:Lib/AI_Runtime/Npu/ll_aton/ll_aton_NN_interface.h ****                                                                                 uint32_t size);    
 339:Lib/AI_Runtime/Npu/ll_aton/ll_aton_NN_interface.h ****   extern void *LL_ATON_Get_User_Output_Buffer_##network_name(uint32_t num);                        
 340:Lib/AI_Runtime/Npu/ll_aton/ll_aton_NN_interface.h ****   extern const EpochBlock_ItemTypeDef *LL_ATON_EpochBlockItems_##network_name(void);               
 341:Lib/AI_Runtime/Npu/ll_aton/ll_aton_NN_interface.h ****   extern const LL_Buffer_InfoTypeDef *LL_ATON_Output_Buffers_Info_##network_name(void);            
 342:Lib/AI_Runtime/Npu/ll_aton/ll_aton_NN_interface.h ****   extern const LL_Buffer_InfoTypeDef *LL_ATON_Input_Buffers_Info_##network_name(void);             
 343:Lib/AI_Runtime/Npu/ll_aton/ll_aton_NN_interface.h ****   extern const LL_Buffer_InfoTypeDef *LL_ATON_Internal_Buffers_Info_##network_name(void);
 344:Lib/AI_Runtime/Npu/ll_aton/ll_aton_NN_interface.h **** 
 345:Lib/AI_Runtime/Npu/ll_aton/ll_aton_NN_interface.h ****   /**
 346:Lib/AI_Runtime/Npu/ll_aton/ll_aton_NN_interface.h ****    * @brief  Type definitions for NN interface functions
 347:Lib/AI_Runtime/Npu/ll_aton/ll_aton_NN_interface.h ****    */
 348:Lib/AI_Runtime/Npu/ll_aton/ll_aton_NN_interface.h ****   typedef bool (*NN_EC_Hook_TypeDef)(void);
 349:Lib/AI_Runtime/Npu/ll_aton/ll_aton_NN_interface.h ****   typedef LL_ATON_User_IO_Result_t (*NN_InputSetter_TypeDef)(uint32_t num, void *buffer, uint32_t s
 350:Lib/AI_Runtime/Npu/ll_aton/ll_aton_NN_interface.h ****   typedef void *(*NN_InputGetter_TypeDef)(uint32_t num);
 351:Lib/AI_Runtime/Npu/ll_aton/ll_aton_NN_interface.h ****   typedef LL_ATON_User_IO_Result_t (*NN_OutputSetter_TypeDef)(uint32_t num, void *buffer, uint32_t 
 352:Lib/AI_Runtime/Npu/ll_aton/ll_aton_NN_interface.h ****   typedef void *(*NN_OutputGetter_TypeDef)(uint32_t num);
 353:Lib/AI_Runtime/Npu/ll_aton/ll_aton_NN_interface.h ****   typedef const EpochBlock_ItemTypeDef *(*NN_EpochBlockItems_TypeDef)(void);
 354:Lib/AI_Runtime/Npu/ll_aton/ll_aton_NN_interface.h ****   typedef const LL_Buffer_InfoTypeDef *(*NN_Buffers_Info_TypeDef)(void);
 355:Lib/AI_Runtime/Npu/ll_aton/ll_aton_NN_interface.h **** 
 356:Lib/AI_Runtime/Npu/ll_aton/ll_aton_NN_interface.h ****   typedef void (*TraceRuntime_FuncPtr_t)(LL_ATON_RT_Callbacktype_t ctype);
 357:Lib/AI_Runtime/Npu/ll_aton/ll_aton_NN_interface.h **** 
 358:Lib/AI_Runtime/Npu/ll_aton/ll_aton_NN_interface.h ****   typedef void (*TraceEpochBlock_FuncPtr_t)(LL_ATON_RT_Callbacktype_t ctype, const NN_Instance_Type
 359:Lib/AI_Runtime/Npu/ll_aton/ll_aton_NN_interface.h ****                                             const EpochBlock_ItemTypeDef *epoch_block);
 360:Lib/AI_Runtime/Npu/ll_aton/ll_aton_NN_interface.h **** 
 361:Lib/AI_Runtime/Npu/ll_aton/ll_aton_NN_interface.h ****   typedef struct
 362:Lib/AI_Runtime/Npu/ll_aton/ll_aton_NN_interface.h ****   {
 363:Lib/AI_Runtime/Npu/ll_aton/ll_aton_NN_interface.h ****     const char *network_name;
 364:Lib/AI_Runtime/Npu/ll_aton/ll_aton_NN_interface.h ****     NN_EC_Hook_TypeDef ec_network_init;
 365:Lib/AI_Runtime/Npu/ll_aton/ll_aton_NN_interface.h ****     NN_EC_Hook_TypeDef ec_inference_init;
 366:Lib/AI_Runtime/Npu/ll_aton/ll_aton_NN_interface.h ****     NN_InputSetter_TypeDef input_setter;
 367:Lib/AI_Runtime/Npu/ll_aton/ll_aton_NN_interface.h ****     NN_InputGetter_TypeDef input_getter;
ARM GAS  /tmp/ccrysqwW.s 			page 8


 368:Lib/AI_Runtime/Npu/ll_aton/ll_aton_NN_interface.h ****     NN_OutputSetter_TypeDef output_setter;
 369:Lib/AI_Runtime/Npu/ll_aton/ll_aton_NN_interface.h ****     NN_OutputGetter_TypeDef output_getter;
 370:Lib/AI_Runtime/Npu/ll_aton/ll_aton_NN_interface.h ****     NN_EpochBlockItems_TypeDef epoch_block_items;
 371:Lib/AI_Runtime/Npu/ll_aton/ll_aton_NN_interface.h ****     NN_Buffers_Info_TypeDef output_buffers_info;
 372:Lib/AI_Runtime/Npu/ll_aton/ll_aton_NN_interface.h ****     NN_Buffers_Info_TypeDef input_buffers_info;
 373:Lib/AI_Runtime/Npu/ll_aton/ll_aton_NN_interface.h ****     NN_Buffers_Info_TypeDef internal_buffers_info;
 374:Lib/AI_Runtime/Npu/ll_aton/ll_aton_NN_interface.h ****   } NN_Interface_TypeDef;
 375:Lib/AI_Runtime/Npu/ll_aton/ll_aton_NN_interface.h **** 
 376:Lib/AI_Runtime/Npu/ll_aton/ll_aton_NN_interface.h ****   typedef struct
 377:Lib/AI_Runtime/Npu/ll_aton/ll_aton_NN_interface.h ****   {
 378:Lib/AI_Runtime/Npu/ll_aton/ll_aton_NN_interface.h ****     const EpochBlock_ItemTypeDef *volatile current_epoch_block; // pointer to current epoch block
 379:Lib/AI_Runtime/Npu/ll_aton/ll_aton_NN_interface.h ****     const EpochBlock_ItemTypeDef *volatile first_epoch_block;   // pointer to first epoch block in 
 380:Lib/AI_Runtime/Npu/ll_aton/ll_aton_NN_interface.h ****     const EpochBlock_ItemTypeDef *volatile next_epoch_block;    // pointer to epoch block to be ins
 381:Lib/AI_Runtime/Npu/ll_aton/ll_aton_NN_interface.h **** 
 382:Lib/AI_Runtime/Npu/ll_aton/ll_aton_NN_interface.h ****     const EpochBlock_ItemTypeDef *volatile saved_current_epoch_block; // pointer to saved current e
 383:Lib/AI_Runtime/Npu/ll_aton/ll_aton_NN_interface.h ****     const EpochBlock_ItemTypeDef
 384:Lib/AI_Runtime/Npu/ll_aton/ll_aton_NN_interface.h ****         *volatile saved_first_epoch_block; // pointer to saved first epoch block in current epoch l
 385:Lib/AI_Runtime/Npu/ll_aton/ll_aton_NN_interface.h **** 
 386:Lib/AI_Runtime/Npu/ll_aton/ll_aton_NN_interface.h ****     bool inference_started; // inference has been started
 387:Lib/AI_Runtime/Npu/ll_aton/ll_aton_NN_interface.h **** 
 388:Lib/AI_Runtime/Npu/ll_aton/ll_aton_NN_interface.h **** #if (LL_ATON_RT_MODE == LL_ATON_RT_ASYNC)
 389:Lib/AI_Runtime/Npu/ll_aton/ll_aton_NN_interface.h ****     volatile uint32_t triggered_events;        // currently triggered events/IRQs in current epoch
 390:Lib/AI_Runtime/Npu/ll_aton/ll_aton_NN_interface.h ****     volatile bool current_epoch_block_started; // has current epoch block already been started
 391:Lib/AI_Runtime/Npu/ll_aton/ll_aton_NN_interface.h **** #endif                                         // (LL_ATON_RT_MODE == LL_ATON_RT_ASYNC)
 392:Lib/AI_Runtime/Npu/ll_aton/ll_aton_NN_interface.h **** 
 393:Lib/AI_Runtime/Npu/ll_aton/ll_aton_NN_interface.h **** #ifndef NDEBUG
 394:Lib/AI_Runtime/Npu/ll_aton/ll_aton_NN_interface.h ****     volatile uint32_t
 395:Lib/AI_Runtime/Npu/ll_aton/ll_aton_NN_interface.h ****         nr_of_epoch_blocks; // number of epoch blocks in network (includes also terminating empty e
 396:Lib/AI_Runtime/Npu/ll_aton/ll_aton_NN_interface.h ****     volatile uint32_t saved_nr_of_epoch_blocks; // number of epoch blocks in saved network (include
 397:Lib/AI_Runtime/Npu/ll_aton/ll_aton_NN_interface.h ****                                                 // empty epoch block)
 398:Lib/AI_Runtime/Npu/ll_aton/ll_aton_NN_interface.h **** #endif                                          // NDEBUG
 399:Lib/AI_Runtime/Npu/ll_aton/ll_aton_NN_interface.h **** 
 400:Lib/AI_Runtime/Npu/ll_aton/ll_aton_NN_interface.h ****     TraceEpochBlock_FuncPtr_t epoch_callback_function; // epoch callback function
 401:Lib/AI_Runtime/Npu/ll_aton/ll_aton_NN_interface.h **** 
 402:Lib/AI_Runtime/Npu/ll_aton/ll_aton_NN_interface.h **** #if defined(LL_ATON_RT_RELOC)
 403:Lib/AI_Runtime/Npu/ll_aton/ll_aton_NN_interface.h ****     uint32_t inst_reloc;
 404:Lib/AI_Runtime/Npu/ll_aton/ll_aton_NN_interface.h **** #endif
 405:Lib/AI_Runtime/Npu/ll_aton/ll_aton_NN_interface.h **** 
 406:Lib/AI_Runtime/Npu/ll_aton/ll_aton_NN_interface.h ****   } NN_Execution_State_TypeDef;
 407:Lib/AI_Runtime/Npu/ll_aton/ll_aton_NN_interface.h **** 
 408:Lib/AI_Runtime/Npu/ll_aton/ll_aton_NN_interface.h ****   struct __nn_instance_struct
 409:Lib/AI_Runtime/Npu/ll_aton/ll_aton_NN_interface.h ****   {
 410:Lib/AI_Runtime/Npu/ll_aton/ll_aton_NN_interface.h ****     const NN_Interface_TypeDef *network;
 411:Lib/AI_Runtime/Npu/ll_aton/ll_aton_NN_interface.h ****     NN_Execution_State_TypeDef exec_state;
 412:Lib/AI_Runtime/Npu/ll_aton/ll_aton_NN_interface.h ****   };
 413:Lib/AI_Runtime/Npu/ll_aton/ll_aton_NN_interface.h **** 
 414:Lib/AI_Runtime/Npu/ll_aton/ll_aton_NN_interface.h ****   /**
 415:Lib/AI_Runtime/Npu/ll_aton/ll_aton_NN_interface.h ****    * @}
 416:Lib/AI_Runtime/Npu/ll_aton/ll_aton_NN_interface.h ****    */
 417:Lib/AI_Runtime/Npu/ll_aton/ll_aton_NN_interface.h **** 
 418:Lib/AI_Runtime/Npu/ll_aton/ll_aton_NN_interface.h ****   /** @defgroup Helper Function Inline Implementations
 419:Lib/AI_Runtime/Npu/ll_aton/ll_aton_NN_interface.h ****    * @{
 420:Lib/AI_Runtime/Npu/ll_aton/ll_aton_NN_interface.h ****    */
 421:Lib/AI_Runtime/Npu/ll_aton/ll_aton_NN_interface.h **** 
 422:Lib/AI_Runtime/Npu/ll_aton/ll_aton_NN_interface.h ****   static inline bool EpochBlock_IsLastEpochBlock(const EpochBlock_ItemTypeDef *eb)
 423:Lib/AI_Runtime/Npu/ll_aton/ll_aton_NN_interface.h ****   {
 424:Lib/AI_Runtime/Npu/ll_aton/ll_aton_NN_interface.h ****     return ((eb->flags & EpochBlock_Flags_last_eb) != 0);
ARM GAS  /tmp/ccrysqwW.s 			page 9


 425:Lib/AI_Runtime/Npu/ll_aton/ll_aton_NN_interface.h ****   }
 426:Lib/AI_Runtime/Npu/ll_aton/ll_aton_NN_interface.h **** 
 427:Lib/AI_Runtime/Npu/ll_aton/ll_aton_NN_interface.h ****   static inline bool EpochBlock_IsEpochStart(const EpochBlock_ItemTypeDef *eb)
 428:Lib/AI_Runtime/Npu/ll_aton/ll_aton_NN_interface.h ****   {
 429:Lib/AI_Runtime/Npu/ll_aton/ll_aton_NN_interface.h ****     return ((eb->flags & EpochBlock_Flags_epoch_start) != 0);
 430:Lib/AI_Runtime/Npu/ll_aton/ll_aton_NN_interface.h ****   }
 431:Lib/AI_Runtime/Npu/ll_aton/ll_aton_NN_interface.h **** 
 432:Lib/AI_Runtime/Npu/ll_aton/ll_aton_NN_interface.h ****   static inline bool EpochBlock_IsEpochEnd(const EpochBlock_ItemTypeDef *eb)
 433:Lib/AI_Runtime/Npu/ll_aton/ll_aton_NN_interface.h ****   {
 434:Lib/AI_Runtime/Npu/ll_aton/ll_aton_NN_interface.h ****     return ((eb->flags & EpochBlock_Flags_epoch_end) != 0);
 435:Lib/AI_Runtime/Npu/ll_aton/ll_aton_NN_interface.h ****   }
 436:Lib/AI_Runtime/Npu/ll_aton/ll_aton_NN_interface.h **** 
 437:Lib/AI_Runtime/Npu/ll_aton/ll_aton_NN_interface.h ****   static inline bool EpochBlock_IsEpochBlob(const EpochBlock_ItemTypeDef *eb)
 438:Lib/AI_Runtime/Npu/ll_aton/ll_aton_NN_interface.h ****   {
 439:Lib/AI_Runtime/Npu/ll_aton/ll_aton_NN_interface.h ****     return ((eb->flags & EpochBlock_Flags_blob) != 0);
 440:Lib/AI_Runtime/Npu/ll_aton/ll_aton_NN_interface.h ****   }
 441:Lib/AI_Runtime/Npu/ll_aton/ll_aton_NN_interface.h **** 
 442:Lib/AI_Runtime/Npu/ll_aton/ll_aton_NN_interface.h ****   static inline bool EpochBlock_IsBlobEncrypted(const EpochBlock_ItemTypeDef *eb)
 443:Lib/AI_Runtime/Npu/ll_aton/ll_aton_NN_interface.h ****   {
 444:Lib/AI_Runtime/Npu/ll_aton/ll_aton_NN_interface.h ****     return ((eb->flags & EpochBlock_Flags_blob_encrypted) != 0);
 445:Lib/AI_Runtime/Npu/ll_aton/ll_aton_NN_interface.h ****   }
 446:Lib/AI_Runtime/Npu/ll_aton/ll_aton_NN_interface.h **** 
 447:Lib/AI_Runtime/Npu/ll_aton/ll_aton_NN_interface.h ****   static inline bool EpochBlock_IsEpochPureSW(const EpochBlock_ItemTypeDef *eb)
 448:Lib/AI_Runtime/Npu/ll_aton/ll_aton_NN_interface.h ****   {
 449:Lib/AI_Runtime/Npu/ll_aton/ll_aton_NN_interface.h ****     return ((eb->flags & EpochBlock_Flags_pure_sw) != 0);
 450:Lib/AI_Runtime/Npu/ll_aton/ll_aton_NN_interface.h ****   }
 451:Lib/AI_Runtime/Npu/ll_aton/ll_aton_NN_interface.h **** 
 452:Lib/AI_Runtime/Npu/ll_aton/ll_aton_NN_interface.h ****   static inline bool EpochBlock_IsEpochPureHW(const EpochBlock_ItemTypeDef *eb)
 453:Lib/AI_Runtime/Npu/ll_aton/ll_aton_NN_interface.h ****   {
 454:Lib/AI_Runtime/Npu/ll_aton/ll_aton_NN_interface.h ****     return ((eb->flags & EpochBlock_Flags_pure_hw) != 0);
 455:Lib/AI_Runtime/Npu/ll_aton/ll_aton_NN_interface.h ****   }
 456:Lib/AI_Runtime/Npu/ll_aton/ll_aton_NN_interface.h **** 
 457:Lib/AI_Runtime/Npu/ll_aton/ll_aton_NN_interface.h ****   static inline bool EpochBlock_IsEpochHybrid(const EpochBlock_ItemTypeDef *eb)
 458:Lib/AI_Runtime/Npu/ll_aton/ll_aton_NN_interface.h ****   {
 459:Lib/AI_Runtime/Npu/ll_aton/ll_aton_NN_interface.h ****     return ((eb->flags & EpochBlock_Flags_hybrid) != 0);
 460:Lib/AI_Runtime/Npu/ll_aton/ll_aton_NN_interface.h ****   }
 461:Lib/AI_Runtime/Npu/ll_aton/ll_aton_NN_interface.h **** 
 462:Lib/AI_Runtime/Npu/ll_aton/ll_aton_NN_interface.h ****   static inline bool EpochBlock_IsEpochInternal(const EpochBlock_ItemTypeDef *eb)
 463:Lib/AI_Runtime/Npu/ll_aton/ll_aton_NN_interface.h ****   {
 464:Lib/AI_Runtime/Npu/ll_aton/ll_aton_NN_interface.h ****     return ((eb->flags & EpochBlock_Flags_internal) != 0);
 465:Lib/AI_Runtime/Npu/ll_aton/ll_aton_NN_interface.h ****   }
 466:Lib/AI_Runtime/Npu/ll_aton/ll_aton_NN_interface.h **** 
 467:Lib/AI_Runtime/Npu/ll_aton/ll_aton_NN_interface.h ****   static inline uint32_t EpochBlock_EpochControllerUnit(const EpochBlock_ItemTypeDef *eb)
 468:Lib/AI_Runtime/Npu/ll_aton/ll_aton_NN_interface.h ****   {
 469:Lib/AI_Runtime/Npu/ll_aton/ll_aton_NN_interface.h ****     LL_ATON_ASSERT(EpochBlock_IsEpochBlob(eb));
 470:Lib/AI_Runtime/Npu/ll_aton/ll_aton_NN_interface.h ****     return eb->wait_mask;
 471:Lib/AI_Runtime/Npu/ll_aton/ll_aton_NN_interface.h ****   }
 472:Lib/AI_Runtime/Npu/ll_aton/ll_aton_NN_interface.h **** 
 473:Lib/AI_Runtime/Npu/ll_aton/ll_aton_NN_interface.h ****   static inline uintptr_t EpochBlock_EpochBlobAddr(const EpochBlock_ItemTypeDef *eb)
 474:Lib/AI_Runtime/Npu/ll_aton/ll_aton_NN_interface.h ****   {
 475:Lib/AI_Runtime/Npu/ll_aton/ll_aton_NN_interface.h ****     LL_ATON_ASSERT(EpochBlock_IsEpochBlob(eb));
 476:Lib/AI_Runtime/Npu/ll_aton/ll_aton_NN_interface.h ****     return eb->blob_address;
 477:Lib/AI_Runtime/Npu/ll_aton/ll_aton_NN_interface.h ****   }
 478:Lib/AI_Runtime/Npu/ll_aton/ll_aton_NN_interface.h **** 
 479:Lib/AI_Runtime/Npu/ll_aton/ll_aton_NN_interface.h ****   static inline unsigned char *LL_Buffer_addr_base(const LL_Buffer_InfoTypeDef *buf)
 480:Lib/AI_Runtime/Npu/ll_aton/ll_aton_NN_interface.h ****   {
  34              		.loc 2 480 3
ARM GAS  /tmp/ccrysqwW.s 			page 10


  35              		.cfi_startproc
  36              		@ args = 0, pretend = 0, frame = 16
  37              		@ frame_needed = 1, uses_anonymous_args = 0
  38              		@ link register save eliminated.
  39 0000 80B4     		push	{r7}
  40              		.cfi_def_cfa_offset 4
  41              		.cfi_offset 7, -4
  42 0002 85B0     		sub	sp, sp, #20
  43              		.cfi_def_cfa_offset 24
  44 0004 00AF     		add	r7, sp, #0
  45              		.cfi_def_cfa_register 7
  46 0006 7860     		str	r0, [r7, #4]
 481:Lib/AI_Runtime/Npu/ll_aton/ll_aton_NN_interface.h ****     if (buf->is_user_allocated)
  47              		.loc 2 481 12
  48 0008 7B68     		ldr	r3, [r7, #4]
  49 000a 1B7D     		ldrb	r3, [r3, #20]	@ zero_extendqisi2
  50              		.loc 2 481 8
  51 000c 002B     		cmp	r3, #0
  52 000e 05D0     		beq	.L2
  53              	.LBB108:
 482:Lib/AI_Runtime/Npu/ll_aton/ll_aton_NN_interface.h ****     {
 483:Lib/AI_Runtime/Npu/ll_aton/ll_aton_NN_interface.h ****       unsigned char **tmp = (unsigned char **)buf->addr_base.p;
  54              		.loc 2 483 23
  55 0010 7B68     		ldr	r3, [r7, #4]
  56 0012 5B68     		ldr	r3, [r3, #4]
  57 0014 FB60     		str	r3, [r7, #12]
 484:Lib/AI_Runtime/Npu/ll_aton/ll_aton_NN_interface.h ****       return *tmp;
  58              		.loc 2 484 14
  59 0016 FB68     		ldr	r3, [r7, #12]
  60 0018 1B68     		ldr	r3, [r3]
  61 001a 01E0     		b	.L3
  62              	.L2:
  63              	.LBE108:
 485:Lib/AI_Runtime/Npu/ll_aton/ll_aton_NN_interface.h ****     }
 486:Lib/AI_Runtime/Npu/ll_aton/ll_aton_NN_interface.h ****     return buf->addr_base.p;
  64              		.loc 2 486 26
  65 001c 7B68     		ldr	r3, [r7, #4]
  66 001e 5B68     		ldr	r3, [r3, #4]
  67              	.L3:
 487:Lib/AI_Runtime/Npu/ll_aton/ll_aton_NN_interface.h ****   }
  68              		.loc 2 487 3
  69 0020 1846     		mov	r0, r3
  70 0022 1437     		adds	r7, r7, #20
  71              		.cfi_def_cfa_offset 4
  72 0024 BD46     		mov	sp, r7
  73              		.cfi_def_cfa_register 13
  74              		@ sp needed
  75 0026 5DF8047B 		ldr	r7, [sp], #4
  76              		.cfi_restore 7
  77              		.cfi_def_cfa_offset 0
  78 002a 7047     		bx	lr
  79              		.cfi_endproc
  80              	.LFE2659:
  82              		.section	.text.LL_Buffer_addr_start,"ax",%progbits
  83              		.align	1
  84              		.syntax unified
  85              		.thumb
ARM GAS  /tmp/ccrysqwW.s 			page 11


  86              		.thumb_func
  88              	LL_Buffer_addr_start:
  89              	.LFB2660:
 488:Lib/AI_Runtime/Npu/ll_aton/ll_aton_NN_interface.h **** 
 489:Lib/AI_Runtime/Npu/ll_aton/ll_aton_NN_interface.h ****   static inline unsigned char *LL_Buffer_addr_start(const LL_Buffer_InfoTypeDef *buf)
 490:Lib/AI_Runtime/Npu/ll_aton/ll_aton_NN_interface.h ****   {
  90              		.loc 2 490 3
  91              		.cfi_startproc
  92              		@ args = 0, pretend = 0, frame = 8
  93              		@ frame_needed = 1, uses_anonymous_args = 0
  94 0000 80B5     		push	{r7, lr}
  95              		.cfi_def_cfa_offset 8
  96              		.cfi_offset 7, -8
  97              		.cfi_offset 14, -4
  98 0002 82B0     		sub	sp, sp, #8
  99              		.cfi_def_cfa_offset 16
 100 0004 00AF     		add	r7, sp, #0
 101              		.cfi_def_cfa_register 7
 102 0006 7860     		str	r0, [r7, #4]
 491:Lib/AI_Runtime/Npu/ll_aton/ll_aton_NN_interface.h ****     return LL_Buffer_addr_base(buf) + buf->offset_start;
 103              		.loc 2 491 12
 104 0008 7868     		ldr	r0, [r7, #4]
 105 000a FFF7FEFF 		bl	LL_Buffer_addr_base
 106 000e 0246     		mov	r2, r0
 107              		.loc 2 491 42 discriminator 1
 108 0010 7B68     		ldr	r3, [r7, #4]
 109 0012 9B68     		ldr	r3, [r3, #8]
 110              		.loc 2 491 37 discriminator 1
 111 0014 1344     		add	r3, r3, r2
 492:Lib/AI_Runtime/Npu/ll_aton/ll_aton_NN_interface.h ****   }
 112              		.loc 2 492 3
 113 0016 1846     		mov	r0, r3
 114 0018 0837     		adds	r7, r7, #8
 115              		.cfi_def_cfa_offset 8
 116 001a BD46     		mov	sp, r7
 117              		.cfi_def_cfa_register 13
 118              		@ sp needed
 119 001c 80BD     		pop	{r7, pc}
 120              		.cfi_endproc
 121              	.LFE2660:
 123              		.section	.text.LL_Buffer_len,"ax",%progbits
 124              		.align	1
 125              		.syntax unified
 126              		.thumb
 127              		.thumb_func
 129              	LL_Buffer_len:
 130              	.LFB2663:
 493:Lib/AI_Runtime/Npu/ll_aton/ll_aton_NN_interface.h **** 
 494:Lib/AI_Runtime/Npu/ll_aton/ll_aton_NN_interface.h ****   static inline unsigned char *LL_Buffer_addr_end(const LL_Buffer_InfoTypeDef *buf)
 495:Lib/AI_Runtime/Npu/ll_aton/ll_aton_NN_interface.h ****   {
 496:Lib/AI_Runtime/Npu/ll_aton/ll_aton_NN_interface.h ****     return LL_Buffer_addr_base(buf) + buf->offset_end;
 497:Lib/AI_Runtime/Npu/ll_aton/ll_aton_NN_interface.h ****   }
 498:Lib/AI_Runtime/Npu/ll_aton/ll_aton_NN_interface.h **** 
 499:Lib/AI_Runtime/Npu/ll_aton/ll_aton_NN_interface.h ****   static inline unsigned char *LL_Buffer_addr_limit(const LL_Buffer_InfoTypeDef *buf)
 500:Lib/AI_Runtime/Npu/ll_aton/ll_aton_NN_interface.h ****   {
 501:Lib/AI_Runtime/Npu/ll_aton/ll_aton_NN_interface.h ****     return LL_Buffer_addr_base(buf) + buf->offset_limit;
 502:Lib/AI_Runtime/Npu/ll_aton/ll_aton_NN_interface.h ****   }
ARM GAS  /tmp/ccrysqwW.s 			page 12


 503:Lib/AI_Runtime/Npu/ll_aton/ll_aton_NN_interface.h **** 
 504:Lib/AI_Runtime/Npu/ll_aton/ll_aton_NN_interface.h ****   static inline uint32_t LL_Buffer_len(const LL_Buffer_InfoTypeDef *buf)
 505:Lib/AI_Runtime/Npu/ll_aton/ll_aton_NN_interface.h ****   {
 131              		.loc 2 505 3
 132              		.cfi_startproc
 133              		@ args = 0, pretend = 0, frame = 8
 134              		@ frame_needed = 1, uses_anonymous_args = 0
 135              		@ link register save eliminated.
 136 0000 80B4     		push	{r7}
 137              		.cfi_def_cfa_offset 4
 138              		.cfi_offset 7, -4
 139 0002 83B0     		sub	sp, sp, #12
 140              		.cfi_def_cfa_offset 16
 141 0004 00AF     		add	r7, sp, #0
 142              		.cfi_def_cfa_register 7
 143 0006 7860     		str	r0, [r7, #4]
 506:Lib/AI_Runtime/Npu/ll_aton/ll_aton_NN_interface.h ****     return buf->offset_end - buf->offset_start;
 144              		.loc 2 506 15
 145 0008 7B68     		ldr	r3, [r7, #4]
 146 000a DA68     		ldr	r2, [r3, #12]
 147              		.loc 2 506 33
 148 000c 7B68     		ldr	r3, [r7, #4]
 149 000e 9B68     		ldr	r3, [r3, #8]
 150              		.loc 2 506 28
 151 0010 D31A     		subs	r3, r2, r3
 507:Lib/AI_Runtime/Npu/ll_aton/ll_aton_NN_interface.h ****   }
 152              		.loc 2 507 3
 153 0012 1846     		mov	r0, r3
 154 0014 0C37     		adds	r7, r7, #12
 155              		.cfi_def_cfa_offset 4
 156 0016 BD46     		mov	sp, r7
 157              		.cfi_def_cfa_register 13
 158              		@ sp needed
 159 0018 5DF8047B 		ldr	r7, [sp], #4
 160              		.cfi_restore 7
 161              		.cfi_def_cfa_offset 0
 162 001c 7047     		bx	lr
 163              		.cfi_endproc
 164              	.LFE2663:
 166              		.section	.text.nema_set_blend_blit,"ax",%progbits
 167              		.align	1
 168              		.syntax unified
 169              		.thumb
 170              		.thumb_func
 172              	nema_set_blend_blit:
 173              	.LFB7356:
 174              		.file 3 "Lib/NemaGFX/include/nema_blender.h"
   1:Lib/NemaGFX/include/nema_blender.h **** /* TSI 2023.xmo */
   2:Lib/NemaGFX/include/nema_blender.h **** /*******************************************************************************
   3:Lib/NemaGFX/include/nema_blender.h ****  * Copyright (c) 2023 Think Silicon Single Member PC
   4:Lib/NemaGFX/include/nema_blender.h ****  *
   5:Lib/NemaGFX/include/nema_blender.h ****  * Permission is hereby granted, free of charge, to any person obtaining a copy
   6:Lib/NemaGFX/include/nema_blender.h ****  * of this header file and/or associated documentation files to use, copy,
   7:Lib/NemaGFX/include/nema_blender.h ****  * modify, merge, publish, distribute, sublicense, and/or sell copies of the
   8:Lib/NemaGFX/include/nema_blender.h ****  * Materials, and to permit persons to whom the Materials are furnished to do
   9:Lib/NemaGFX/include/nema_blender.h ****  * so, subject to the following conditions:
  10:Lib/NemaGFX/include/nema_blender.h ****  *
ARM GAS  /tmp/ccrysqwW.s 			page 13


  11:Lib/NemaGFX/include/nema_blender.h ****  * The above copyright notice and this permission notice shall be included in
  12:Lib/NemaGFX/include/nema_blender.h ****  * all copies or substantial portions of the Materials.
  13:Lib/NemaGFX/include/nema_blender.h ****  *
  14:Lib/NemaGFX/include/nema_blender.h ****  * MODIFICATIONS TO THIS FILE MAY MEAN IT NO LONGER ACCURATELY REFLECTS
  15:Lib/NemaGFX/include/nema_blender.h ****  * NEMAGFX API. THE UNMODIFIED, NORMATIVE VERSIONS OF THINK-SILICON NEMAGFX
  16:Lib/NemaGFX/include/nema_blender.h ****  * SPECIFICATIONS AND HEADER INFORMATION ARE LOCATED AT:
  17:Lib/NemaGFX/include/nema_blender.h ****  *   https://think-silicon.com/products/software/nemagfx-api
  18:Lib/NemaGFX/include/nema_blender.h ****  *
  19:Lib/NemaGFX/include/nema_blender.h ****  *  The software is provided 'as is', without warranty of any kind, express or
  20:Lib/NemaGFX/include/nema_blender.h ****  *  implied, including but not limited to the warranties of merchantability,
  21:Lib/NemaGFX/include/nema_blender.h ****  *  fitness for a particular purpose and noninfringement. In no event shall
  22:Lib/NemaGFX/include/nema_blender.h ****  *  Think Silicon Single Member PC be liable for any claim, damages or other
  23:Lib/NemaGFX/include/nema_blender.h ****  *  liability, whether in an action of contract, tort or otherwise, arising
  24:Lib/NemaGFX/include/nema_blender.h ****  *  from, out of or in connection with the software or the use or other dealings
  25:Lib/NemaGFX/include/nema_blender.h ****  *  in the software.
  26:Lib/NemaGFX/include/nema_blender.h ****  ******************************************************************************/
  27:Lib/NemaGFX/include/nema_blender.h **** 
  28:Lib/NemaGFX/include/nema_blender.h **** 
  29:Lib/NemaGFX/include/nema_blender.h **** #ifndef NEMA_BLENDER_H__
  30:Lib/NemaGFX/include/nema_blender.h **** #define NEMA_BLENDER_H__
  31:Lib/NemaGFX/include/nema_blender.h **** 
  32:Lib/NemaGFX/include/nema_blender.h **** #include "nema_sys_defs.h"
  33:Lib/NemaGFX/include/nema_blender.h **** #include "nema_graphics.h"
  34:Lib/NemaGFX/include/nema_blender.h **** 
  35:Lib/NemaGFX/include/nema_blender.h **** #ifdef __cplusplus
  36:Lib/NemaGFX/include/nema_blender.h **** extern "C" {
  37:Lib/NemaGFX/include/nema_blender.h **** #endif
  38:Lib/NemaGFX/include/nema_blender.h **** 
  39:Lib/NemaGFX/include/nema_blender.h **** // Blending Factor Selector
  40:Lib/NemaGFX/include/nema_blender.h **** //-------------------------------------------------------------------------------------------------
  41:Lib/NemaGFX/include/nema_blender.h **** #define NEMA_BF_ZERO         (0x0U) /**< 0 */
  42:Lib/NemaGFX/include/nema_blender.h **** #define NEMA_BF_ONE          (0x1U) /**< 1 */
  43:Lib/NemaGFX/include/nema_blender.h **** #define NEMA_BF_SRCCOLOR     (0x2U) /**< Sc */
  44:Lib/NemaGFX/include/nema_blender.h **** #define NEMA_BF_INVSRCCOLOR  (0x3U) /**< (1-Sc) */
  45:Lib/NemaGFX/include/nema_blender.h **** #define NEMA_BF_SRCALPHA     (0x4U) /**< Sa */
  46:Lib/NemaGFX/include/nema_blender.h **** #define NEMA_BF_INVSRCALPHA  (0x5U) /**< (1-Sa) */
  47:Lib/NemaGFX/include/nema_blender.h **** #define NEMA_BF_DESTALPHA    (0x6U) /**< Da */
  48:Lib/NemaGFX/include/nema_blender.h **** #define NEMA_BF_INVDESTALPHA (0x7U) /**< (1-Da) */
  49:Lib/NemaGFX/include/nema_blender.h **** #define NEMA_BF_DESTCOLOR    (0x8U) /**< Dc */
  50:Lib/NemaGFX/include/nema_blender.h **** #define NEMA_BF_INVDESTCOLOR (0x9U) /**< (1-Dc) */
  51:Lib/NemaGFX/include/nema_blender.h **** #define NEMA_BF_CONSTCOLOR   (0xaU) /**< Cc */
  52:Lib/NemaGFX/include/nema_blender.h **** #define NEMA_BF_CONSTALPHA   (0xbU) /**< Ca */
  53:Lib/NemaGFX/include/nema_blender.h **** 
  54:Lib/NemaGFX/include/nema_blender.h ****     /*                  source factor         destination factor */
  55:Lib/NemaGFX/include/nema_blender.h **** #define NEMA_BL_SIMPLE     (  (uint32_t)NEMA_BF_SRCALPHA      |   ((uint32_t)NEMA_BF_INVSRCALPHA  <
  56:Lib/NemaGFX/include/nema_blender.h **** #define NEMA_BL_CLEAR      (  (uint32_t)NEMA_BF_ZERO        /*|   ((uint32_t)NEMA_BF_ZERO         <
  57:Lib/NemaGFX/include/nema_blender.h **** #define NEMA_BL_SRC        (  (uint32_t)NEMA_BF_ONE         /*|   ((uint32_t)NEMA_BF_ZERO         <
  58:Lib/NemaGFX/include/nema_blender.h **** #define NEMA_BL_SRC_OVER   (  (uint32_t)NEMA_BF_ONE           |   ((uint32_t)NEMA_BF_INVSRCALPHA  <
  59:Lib/NemaGFX/include/nema_blender.h **** #define NEMA_BL_DST_OVER   (  (uint32_t)NEMA_BF_INVDESTALPHA  |   ((uint32_t)NEMA_BF_ONE          <
  60:Lib/NemaGFX/include/nema_blender.h **** #define NEMA_BL_SRC_IN     (  (uint32_t)NEMA_BF_DESTALPHA   /*|   ((uint32_t)NEMA_BF_ZERO         <
  61:Lib/NemaGFX/include/nema_blender.h **** #define NEMA_BL_DST_IN     (/*(uint32_t)NEMA_BF_ZERO          |*/ ((uint32_t)NEMA_BF_SRCALPHA     <
  62:Lib/NemaGFX/include/nema_blender.h **** #define NEMA_BL_SRC_OUT    (  (uint32_t)NEMA_BF_INVDESTALPHA/*|   ((uint32_t)NEMA_BF_ZERO         <
  63:Lib/NemaGFX/include/nema_blender.h **** #define NEMA_BL_DST_OUT    (/*(uint32_t)NEMA_BF_ZERO          |*/ ((uint32_t)NEMA_BF_INVSRCALPHA  <
  64:Lib/NemaGFX/include/nema_blender.h **** #define NEMA_BL_SRC_ATOP   (  (uint32_t)NEMA_BF_DESTALPHA     |   ((uint32_t)NEMA_BF_INVSRCALPHA  <
  65:Lib/NemaGFX/include/nema_blender.h **** #define NEMA_BL_DST_ATOP   (  (uint32_t)NEMA_BF_INVDESTALPHA  |   ((uint32_t)NEMA_BF_SRCALPHA     <
  66:Lib/NemaGFX/include/nema_blender.h **** #define NEMA_BL_ADD        (  (uint32_t)NEMA_BF_ONE           |   ((uint32_t)NEMA_BF_ONE          <
  67:Lib/NemaGFX/include/nema_blender.h **** #define NEMA_BL_XOR        (  (uint32_t)NEMA_BF_INVDESTALPHA  |   ((uint32_t)NEMA_BF_INVSRCALPHA  <
ARM GAS  /tmp/ccrysqwW.s 			page 14


  68:Lib/NemaGFX/include/nema_blender.h **** 
  69:Lib/NemaGFX/include/nema_blender.h **** 
  70:Lib/NemaGFX/include/nema_blender.h **** #define NEMA_BLOP_NONE         (0U)           /**< No extra blending operation */
  71:Lib/NemaGFX/include/nema_blender.h **** #define NEMA_BLOP_RECOLOR      (0x00100000U)  /**< Cconst*Aconst + Csrc*(1-Aconst). Overrides MODUL
  72:Lib/NemaGFX/include/nema_blender.h **** #define NEMA_BLOP_LUT          (0x00200000U)  /**< src_tex as index, src2_tex as palette */
  73:Lib/NemaGFX/include/nema_blender.h **** #define NEMA_BLOP_STENCIL_XY   (0x00400000U)  /**< Use TEX3 as mask/stencil */
  74:Lib/NemaGFX/include/nema_blender.h **** #define NEMA_BLOP_STENCIL_TXTY (0x00800000U)  /**< Use TEX3 as mask/stencil */
  75:Lib/NemaGFX/include/nema_blender.h **** #define NEMA_BLOP_NO_USE_ROPBL (0x01000000U)  /**< Don't use Rop Blender even if present */
  76:Lib/NemaGFX/include/nema_blender.h **** #define NEMA_BLOP_DST_CKEY_NEG (0x02000000U)  /**< Apply Inverse Destination Color Keying - draw on
  77:Lib/NemaGFX/include/nema_blender.h **** #define NEMA_BLOP_SRC_PREMULT  (0x04000000U)  /**< Premultiply Source Color with Source Alpha (cann
  78:Lib/NemaGFX/include/nema_blender.h **** #define NEMA_BLOP_MODULATE_A   (0x08000000U)  /**< Modulate by Constant Alpha value*/
  79:Lib/NemaGFX/include/nema_blender.h **** #define NEMA_BLOP_FORCE_A      (0x10000000U)  /**< Force Constant Alpha value */
  80:Lib/NemaGFX/include/nema_blender.h **** #define NEMA_BLOP_MODULATE_RGB (0x20000000U)  /**< Modulate by Constant Color (RGB) values */
  81:Lib/NemaGFX/include/nema_blender.h **** #define NEMA_BLOP_SRC_CKEY     (0x40000000U)  /**< Apply Source Color Keying - draw only when src c
  82:Lib/NemaGFX/include/nema_blender.h **** #define NEMA_BLOP_DST_CKEY     (0x80000000U)  /**< Apply Destination Color Keying - draw only when 
  83:Lib/NemaGFX/include/nema_blender.h **** #define NEMA_BLOP_MASK         (0xfff00000U)
  84:Lib/NemaGFX/include/nema_blender.h **** 
  85:Lib/NemaGFX/include/nema_blender.h **** /** \brief Return blending mode given source and destination blending factors and additional blendi
  86:Lib/NemaGFX/include/nema_blender.h ****  *
  87:Lib/NemaGFX/include/nema_blender.h ****  * \param src Source Blending Factor
  88:Lib/NemaGFX/include/nema_blender.h ****  * \param dst Destination Blending Factor
  89:Lib/NemaGFX/include/nema_blender.h ****  * \param ops Additional Blending Operations
  90:Lib/NemaGFX/include/nema_blender.h ****  * \return Final Blending Mode
  91:Lib/NemaGFX/include/nema_blender.h ****  *
  92:Lib/NemaGFX/include/nema_blender.h ****  */
  93:Lib/NemaGFX/include/nema_blender.h **** static inline uint32_t nema_blending_mode(uint32_t src_bf, uint32_t dst_bf, uint32_t blops) {
  94:Lib/NemaGFX/include/nema_blender.h ****     return ( (src_bf) | (dst_bf << 8) | (blops&NEMA_BLOP_MASK) );
  95:Lib/NemaGFX/include/nema_blender.h **** }
  96:Lib/NemaGFX/include/nema_blender.h **** 
  97:Lib/NemaGFX/include/nema_blender.h **** /** \brief Set blending mode
  98:Lib/NemaGFX/include/nema_blender.h ****  *
  99:Lib/NemaGFX/include/nema_blender.h ****  * \param blending_mode Blending mode to be set
 100:Lib/NemaGFX/include/nema_blender.h ****  * \param dst_tex Destination Texture
 101:Lib/NemaGFX/include/nema_blender.h ****  * \param fg_tex Foreground (source) Texture
 102:Lib/NemaGFX/include/nema_blender.h ****  * \param bg_tex Background (source2) Texture
 103:Lib/NemaGFX/include/nema_blender.h ****  *
 104:Lib/NemaGFX/include/nema_blender.h ****  */
 105:Lib/NemaGFX/include/nema_blender.h **** void nema_set_blend(uint32_t blending_mode, nema_tex_t dst_tex, nema_tex_t fg_tex, nema_tex_t bg_te
 106:Lib/NemaGFX/include/nema_blender.h **** 
 107:Lib/NemaGFX/include/nema_blender.h **** /** \brief Set blending mode for filling
 108:Lib/NemaGFX/include/nema_blender.h ****  *
 109:Lib/NemaGFX/include/nema_blender.h ****  * \param blending_mode Blending mode to be set
 110:Lib/NemaGFX/include/nema_blender.h ****  *
 111:Lib/NemaGFX/include/nema_blender.h ****  */
 112:Lib/NemaGFX/include/nema_blender.h **** static inline void nema_set_blend_fill(uint32_t blending_mode) {
 113:Lib/NemaGFX/include/nema_blender.h ****     nema_set_blend(blending_mode, NEMA_TEX0, NEMA_NOTEX, NEMA_NOTEX);
 114:Lib/NemaGFX/include/nema_blender.h **** }
 115:Lib/NemaGFX/include/nema_blender.h **** 
 116:Lib/NemaGFX/include/nema_blender.h **** /** \brief Set blending mode for filling with composing
 117:Lib/NemaGFX/include/nema_blender.h ****  *
 118:Lib/NemaGFX/include/nema_blender.h ****  * \param blending_mode Blending mode to be set
 119:Lib/NemaGFX/include/nema_blender.h ****  *
 120:Lib/NemaGFX/include/nema_blender.h ****  */
 121:Lib/NemaGFX/include/nema_blender.h **** static inline void nema_set_blend_fill_compose(uint32_t blending_mode) {
 122:Lib/NemaGFX/include/nema_blender.h ****     nema_set_blend(blending_mode, NEMA_TEX0, NEMA_NOTEX, NEMA_TEX2);
 123:Lib/NemaGFX/include/nema_blender.h **** }
 124:Lib/NemaGFX/include/nema_blender.h **** 
ARM GAS  /tmp/ccrysqwW.s 			page 15


 125:Lib/NemaGFX/include/nema_blender.h **** /** \brief Set blending mode for blitting
 126:Lib/NemaGFX/include/nema_blender.h ****  *
 127:Lib/NemaGFX/include/nema_blender.h ****  * \param blending_mode Blending mode to be set
 128:Lib/NemaGFX/include/nema_blender.h ****  *
 129:Lib/NemaGFX/include/nema_blender.h ****  */
 130:Lib/NemaGFX/include/nema_blender.h **** static inline void nema_set_blend_blit(uint32_t blending_mode) {
 175              		.loc 3 130 64
 176              		.cfi_startproc
 177              		@ args = 0, pretend = 0, frame = 8
 178              		@ frame_needed = 1, uses_anonymous_args = 0
 179 0000 80B5     		push	{r7, lr}
 180              		.cfi_def_cfa_offset 8
 181              		.cfi_offset 7, -8
 182              		.cfi_offset 14, -4
 183 0002 82B0     		sub	sp, sp, #8
 184              		.cfi_def_cfa_offset 16
 185 0004 00AF     		add	r7, sp, #0
 186              		.cfi_def_cfa_register 7
 187 0006 7860     		str	r0, [r7, #4]
 131:Lib/NemaGFX/include/nema_blender.h ****     nema_set_blend(blending_mode, NEMA_TEX0, NEMA_TEX1, NEMA_NOTEX);
 188              		.loc 3 131 5
 189 0008 4FF0FF33 		mov	r3, #-1
 190 000c 0122     		movs	r2, #1
 191 000e 0021     		movs	r1, #0
 192 0010 7868     		ldr	r0, [r7, #4]
 193 0012 FFF7FEFF 		bl	nema_set_blend
 132:Lib/NemaGFX/include/nema_blender.h **** }
 194              		.loc 3 132 1
 195 0016 00BF     		nop
 196 0018 0837     		adds	r7, r7, #8
 197              		.cfi_def_cfa_offset 8
 198 001a BD46     		mov	sp, r7
 199              		.cfi_def_cfa_register 13
 200              		@ sp needed
 201 001c 80BD     		pop	{r7, pc}
 202              		.cfi_endproc
 203              	.LFE7356:
 205              		.section	.data.lcd_bg_area,"aw"
 206              		.align	2
 209              	lcd_bg_area:
 210 0000 00000000 		.word	0
 211 0004 00000000 		.word	0
 212 0008 20030000 		.word	800
 213 000c E0010000 		.word	480
 214              		.section	.data.lcd_fg_area,"aw"
 215              		.align	2
 218              	lcd_fg_area:
 219 0000 00000000 		.word	0
 220 0004 00000000 		.word	0
 221 0008 20030000 		.word	800
 222 000c E0010000 		.word	480
 223              		.section	.psram_bss,"aw"
 224              		.align	5
 227              	lcd_bg_buffer:
 228 0000 00000000 		.space	6144000
 228      00000000 
 228      00000000 
ARM GAS  /tmp/ccrysqwW.s 			page 16


 228      00000000 
 228      00000000 
 229              		.section	.data.lcd_bg_buffer_disp_idx,"aw"
 230              		.align	2
 233              	lcd_bg_buffer_disp_idx:
 234 0000 01000000 		.word	1
 235              		.section	.bss.lcd_bg_buffer_capt_idx,"aw",%nobits
 236              		.align	2
 239              	lcd_bg_buffer_capt_idx:
 240 0000 00000000 		.space	4
 241              		.section	.psram_bss
 242              		.align	5
 245              	lcd_fg_buffer:
 246 5dc000 00000000 		.space	1536000
 246      00000000 
 246      00000000 
 246      00000000 
 246      00000000 
 247              		.section	.bss.lcd_fg_buffer_rd_idx,"aw",%nobits
 248              		.align	2
 251              	lcd_fg_buffer_rd_idx:
 252 0000 00000000 		.space	4
 253              		.section	.data.disp,"aw"
 254              		.align	2
 257              	disp:
 258 0000 00000000 		.space	168
 258      00000000 
 258      00000000 
 258      00000000 
 258      00000000 
 259 00a8 00000000 		.space	20
 259      00000000 
 259      00000000 
 259      00000000 
 259      00000000 
 260 00bc 01000000 		.word	1
 261 00c0 00000000 		.word	0
 262 00c4 00000000 		.space	3800
 262      00000000 
 262      00000000 
 262      00000000 
 262      00000000 
 263              		.section	.bss.cpu_load,"aw",%nobits
 264              		.align	3
 267              	cpu_load:
 268 0000 00000000 		.space	224
 268      00000000 
 268      00000000 
 268      00000000 
 268      00000000 
 269              		.section	.psram_bss
 270              		.align	5
 273              	screen_buffer:
 274 753000 00000000 		.space	768000
 274      00000000 
 274      00000000 
 274      00000000 
ARM GAS  /tmp/ccrysqwW.s 			page 17


 274      00000000 
 275              		.section	.rodata
 276              		.align	2
 277              	.LC4:
 278 0000 796F6C6F 		.ascii	"yolo_detector\000"
 278      5F646574 
 278      6563746F 
 278      7200
 279              		.section	.rodata.NN_Interface_yolo_detector,"a"
 280              		.align	2
 283              	NN_Interface_yolo_detector:
 284 0000 00000000 		.word	.LC4
 285 0004 00000000 		.word	LL_ATON_EC_Network_Init_yolo_detector
 286 0008 00000000 		.word	LL_ATON_EC_Inference_Init_yolo_detector
 287 000c 00000000 		.word	LL_ATON_Set_User_Input_Buffer_yolo_detector
 288 0010 00000000 		.word	LL_ATON_Get_User_Input_Buffer_yolo_detector
 289 0014 00000000 		.word	LL_ATON_Set_User_Output_Buffer_yolo_detector
 290 0018 00000000 		.word	LL_ATON_Get_User_Output_Buffer_yolo_detector
 291 001c 00000000 		.word	LL_ATON_EpochBlockItems_yolo_detector
 292 0020 00000000 		.word	LL_ATON_Output_Buffers_Info_yolo_detector
 293 0024 00000000 		.word	LL_ATON_Input_Buffers_Info_yolo_detector
 294 0028 00000000 		.word	LL_ATON_Internal_Buffers_Info_yolo_detector
 295              		.section	.data.NN_Instance_yolo_detector,"aw"
 296              		.align	2
 299              	NN_Instance_yolo_detector:
 300 0000 00000000 		.word	NN_Interface_yolo_detector
 301 0004 00000000 		.word	0
 302 0008 00000000 		.space	40
 302      00000000 
 302      00000000 
 302      00000000 
 302      00000000 
 303              		.section	.rodata
 304 000e 0000     		.align	2
 305              	.LC5:
 306 0010 66616365 		.ascii	"face_landmark\000"
 306      5F6C616E 
 306      646D6172 
 306      6B00
 307              		.section	.rodata.NN_Interface_face_landmark,"a"
 308              		.align	2
 311              	NN_Interface_face_landmark:
 312 0000 10000000 		.word	.LC5
 313 0004 00000000 		.word	LL_ATON_EC_Network_Init_face_landmark
 314 0008 00000000 		.word	LL_ATON_EC_Inference_Init_face_landmark
 315 000c 00000000 		.word	LL_ATON_Set_User_Input_Buffer_face_landmark
 316 0010 00000000 		.word	LL_ATON_Get_User_Input_Buffer_face_landmark
 317 0014 00000000 		.word	LL_ATON_Set_User_Output_Buffer_face_landmark
 318 0018 00000000 		.word	LL_ATON_Get_User_Output_Buffer_face_landmark
 319 001c 00000000 		.word	LL_ATON_EpochBlockItems_face_landmark
 320 0020 00000000 		.word	LL_ATON_Output_Buffers_Info_face_landmark
 321 0024 00000000 		.word	LL_ATON_Input_Buffers_Info_face_landmark
 322 0028 00000000 		.word	LL_ATON_Internal_Buffers_Info_face_landmark
 323              		.section	.data.NN_Instance_face_landmark,"aw"
 324              		.align	2
 327              	NN_Instance_face_landmark:
 328 0000 00000000 		.word	NN_Interface_face_landmark
ARM GAS  /tmp/ccrysqwW.s 			page 18


 329 0004 00000000 		.word	0
 330 0008 00000000 		.space	40
 330      00000000 
 330      00000000 
 330      00000000 
 330      00000000 
 331              		.section	.bss.rois,"aw",%nobits
 332              		.align	2
 335              	rois:
 336 0000 00000000 		.space	20
 336      00000000 
 336      00000000 
 336      00000000 
 336      00000000 
 337              		.section	.bss.ld_landmarks,"aw",%nobits
 338              		.align	2
 341              	ld_landmarks:
 342 0000 00000000 		.space	3744
 342      00000000 
 342      00000000 
 342      00000000 
 342      00000000 
 343              		.section	.bss.frame_event_nb,"aw",%nobits
 344              		.align	2
 347              	frame_event_nb:
 348 0000 00000000 		.space	4
 349              		.section	.bss.frame_event_nb_for_resize,"aw",%nobits
 350              		.align	2
 353              	frame_event_nb_for_resize:
 354 0000 00000000 		.space	4
 355              		.section	.psram_bss
 356              		.align	5
 359              	nn_input_buffers:
 360 80e800 00000000 		.space	614400
 360      00000000 
 360      00000000 
 360      00000000 
 360      00000000 
 361              		.section	.bss.nn_input_queue,"aw",%nobits
 362              		.align	2
 365              	nn_input_queue:
 366 0000 00000000 		.space	188
 366      00000000 
 366      00000000 
 366      00000000 
 366      00000000 
 367              		.section	.bss.nn_thread,"aw",%nobits
 368              		.align	2
 371              	nn_thread:
 372 0000 00000000 		.space	96
 372      00000000 
 372      00000000 
 372      00000000 
 372      00000000 
 373              		.section	.bss.nn_thread_stack,"aw",%nobits
 374              		.align	2
 377              	nn_thread_stack:
ARM GAS  /tmp/ccrysqwW.s 			page 19


 378 0000 00000000 		.space	16384
 378      00000000 
 378      00000000 
 378      00000000 
 378      00000000 
 379              		.section	.bss.dp_thread,"aw",%nobits
 380              		.align	2
 383              	dp_thread:
 384 0000 00000000 		.space	96
 384      00000000 
 384      00000000 
 384      00000000 
 384      00000000 
 385              		.section	.bss.dp_thread_stack,"aw",%nobits
 386              		.align	2
 389              	dp_thread_stack:
 390 0000 00000000 		.space	8192
 390      00000000 
 390      00000000 
 390      00000000 
 390      00000000 
 391              		.section	.bss.isp_thread,"aw",%nobits
 392              		.align	2
 395              	isp_thread:
 396 0000 00000000 		.space	96
 396      00000000 
 396      00000000 
 396      00000000 
 396      00000000 
 397              		.section	.bss.isp_thread_stack,"aw",%nobits
 398              		.align	2
 401              	isp_thread_stack:
 402 0000 00000000 		.space	8192
 402      00000000 
 402      00000000 
 402      00000000 
 402      00000000 
 403              		.section	.bss.isp_sem,"aw",%nobits
 404              		.align	2
 407              	isp_sem:
 408 0000 00000000 		.space	4
 409              		.section	.bss.isp_sem_buffer,"aw",%nobits
 410              		.align	2
 413              	isp_sem_buffer:
 414 0000 00000000 		.space	80
 414      00000000 
 414      00000000 
 414      00000000 
 414      00000000 
 415              		.section	.bss.hgfxmmu,"aw",%nobits
 416              		.align	2
 419              	hgfxmmu:
 420 0000 00000000 		.space	48
 420      00000000 
 420      00000000 
 420      00000000 
 420      00000000 
ARM GAS  /tmp/ccrysqwW.s 			page 20


 421              		.section	.bss.cl,"aw",%nobits
 422              		.align	2
 425              	cl:
 426 0000 00000000 		.space	60
 426      00000000 
 426      00000000 
 426      00000000 
 426      00000000 
 427              		.section	.text.is_cache_enable,"ax",%progbits
 428              		.align	1
 429              		.syntax unified
 430              		.thumb
 431              		.thumb_func
 433              	is_cache_enable:
 434              	.LFB7358:
   1:Src/app.c     **** /**
   2:Src/app.c     ****   ******************************************************************************
   3:Src/app.c     ****   * @file    app.c
   4:Src/app.c     ****   * @author  MDG Application Team
   5:Src/app.c     ****   ******************************************************************************
   6:Src/app.c     ****   * @attention
   7:Src/app.c     ****   *
   8:Src/app.c     ****   * Copyright (c) 2024 STMicroelectronics.
   9:Src/app.c     ****   * All rights reserved.
  10:Src/app.c     ****   *
  11:Src/app.c     ****   * This software is licensed under terms that can be found in the LICENSE file
  12:Src/app.c     ****   * in the root directory of this software component.
  13:Src/app.c     ****   * If no LICENSE file comes with this software, it is provided AS-IS.
  14:Src/app.c     ****   *
  15:Src/app.c     ****   ******************************************************************************
  16:Src/app.c     ****   */
  17:Src/app.c     **** 
  18:Src/app.c     **** #include "app.h"
  19:Src/app.c     **** 
  20:Src/app.c     **** #include <stdint.h>
  21:Src/app.c     **** #include <stdio.h>
  22:Src/app.c     **** 
  23:Src/app.c     **** #include "app_cam.h"
  24:Src/app.c     **** #include "app_config.h"
  25:Src/app.c     **** #include "IPL_resize.h"
  26:Src/app.c     **** #include "app_postprocess.h"
  27:Src/app.c     **** #include "isp_api.h"
  28:Src/app.c     **** #include "ld.h"
  29:Src/app.c     **** #include "ll_aton_runtime.h"
  30:Src/app.c     **** #include "cmw_camera.h"
  31:Src/app.c     **** #include "scrl.h"
  32:Src/app.c     **** #ifdef STM32N6570_DK_REV
  33:Src/app.c     **** #include "stm32n6570_discovery.h"
  34:Src/app.c     **** #else
  35:Src/app.c     **** #include "stm32n6xx_nucleo.h"
  36:Src/app.c     **** #endif
  37:Src/app.c     **** #include "stm32_lcd.h"
  38:Src/app.c     **** #include "stm32_lcd_ex.h"
  39:Src/app.c     **** #include "stm32n6xx_hal.h"
  40:Src/app.c     **** #include "FreeRTOS.h"
  41:Src/app.c     **** #include "task.h"
  42:Src/app.c     **** #include "semphr.h"
ARM GAS  /tmp/ccrysqwW.s 			page 21


  43:Src/app.c     **** #include "utils.h"
  44:Src/app.c     **** 
  45:Src/app.c     **** #define FREERTOS_PRIORITY(p) ((UBaseType_t)((int)tskIDLE_PRIORITY + configMAX_PRIORITIES / 2 + (p))
  46:Src/app.c     **** 
  47:Src/app.c     **** #ifndef M_PI
  48:Src/app.c     **** #define M_PI 3.14159265358979323846
  49:Src/app.c     **** #endif
  50:Src/app.c     **** 
  51:Src/app.c     **** #if HAS_ROTATION_SUPPORT == 1
  52:Src/app.c     **** #include "nema_core.h"
  53:Src/app.c     **** #include "nema_error.h"
  54:Src/app.c     **** void nema_enable_tiling(int);
  55:Src/app.c     **** #endif
  56:Src/app.c     **** 
  57:Src/app.c     **** #define LCD_FG_WIDTH LCD_BG_WIDTH
  58:Src/app.c     **** #define LCD_FG_HEIGHT LCD_BG_HEIGHT
  59:Src/app.c     **** 
  60:Src/app.c     **** #define CACHE_OP(__op__) do { \
  61:Src/app.c     ****   if (is_cache_enable()) { \
  62:Src/app.c     ****     __op__; \
  63:Src/app.c     ****   } \
  64:Src/app.c     **** } while (0)
  65:Src/app.c     **** 
  66:Src/app.c     **** #define DBG_INFO 0
  67:Src/app.c     **** #define USE_FILTERED_TS 1
  68:Src/app.c     **** 
  69:Src/app.c     **** #define BQUEUE_MAX_BUFFERS 2
  70:Src/app.c     **** #define CPU_LOAD_HISTORY_DEPTH 8
  71:Src/app.c     **** 
  72:Src/app.c     **** #define DISPLAY_BUFFER_NB (DISPLAY_DELAY + 2)
  73:Src/app.c     **** 
  74:Src/app.c     **** /* palm detector */
  75:Src/app.c     **** #define PD_MAX_HAND_NB 1
  76:Src/app.c     **** 
  77:Src/app.c     **** #if HAS_ROTATION_SUPPORT == 1
  78:Src/app.c     **** typedef float app_v3_t[3];
  79:Src/app.c     **** #endif
  80:Src/app.c     **** 
  81:Src/app.c     **** typedef struct {
  82:Src/app.c     ****   float cx;
  83:Src/app.c     ****   float cy;
  84:Src/app.c     ****   float w;
  85:Src/app.c     ****   float h;
  86:Src/app.c     ****   float rotation;
  87:Src/app.c     **** } roi_t;
  88:Src/app.c     **** 
  89:Src/app.c     **** #define UTIL_LCD_COLOR_TRANSPARENT 0
  90:Src/app.c     **** 
  91:Src/app.c     **** #ifdef STM32N6570_DK_REV
  92:Src/app.c     **** #define LCD_FONT Font20
  93:Src/app.c     **** #define DISK_RADIUS 2
  94:Src/app.c     **** #else
  95:Src/app.c     **** #define LCD_FONT Font12
  96:Src/app.c     **** #define DISK_RADIUS 1
  97:Src/app.c     **** #endif
  98:Src/app.c     **** 
  99:Src/app.c     **** typedef struct
ARM GAS  /tmp/ccrysqwW.s 			page 22


 100:Src/app.c     **** {
 101:Src/app.c     ****   uint32_t X0;
 102:Src/app.c     ****   uint32_t Y0;
 103:Src/app.c     ****   uint32_t XSize;
 104:Src/app.c     ****   uint32_t YSize;
 105:Src/app.c     **** } Rectangle_TypeDef;
 106:Src/app.c     **** 
 107:Src/app.c     **** typedef struct {
 108:Src/app.c     ****   SemaphoreHandle_t free;
 109:Src/app.c     ****   StaticSemaphore_t free_buffer;
 110:Src/app.c     ****   SemaphoreHandle_t ready;
 111:Src/app.c     ****   StaticSemaphore_t ready_buffer;
 112:Src/app.c     ****   int buffer_nb;
 113:Src/app.c     ****   uint8_t *buffers[BQUEUE_MAX_BUFFERS];
 114:Src/app.c     ****   int free_idx;
 115:Src/app.c     ****   int ready_idx;
 116:Src/app.c     **** } bqueue_t;
 117:Src/app.c     **** 
 118:Src/app.c     **** typedef struct {
 119:Src/app.c     ****   uint64_t current_total;
 120:Src/app.c     ****   uint64_t current_thread_total;
 121:Src/app.c     ****   uint64_t prev_total;
 122:Src/app.c     ****   uint64_t prev_thread_total;
 123:Src/app.c     ****   struct {
 124:Src/app.c     ****     uint64_t total;
 125:Src/app.c     ****     uint64_t thread;
 126:Src/app.c     ****     uint32_t tick;
 127:Src/app.c     ****   } history[CPU_LOAD_HISTORY_DEPTH];
 128:Src/app.c     **** } cpuload_info_t;
 129:Src/app.c     **** 
 130:Src/app.c     **** typedef struct {
 131:Src/app.c     ****   int is_valid;
 132:Src/app.c     ****   pd_pp_box_t pd_hands;
 133:Src/app.c     ****   roi_t roi;
 134:Src/app.c     ****   ld_point_t ld_landmarks[LD_LANDMARK_NB];
 135:Src/app.c     **** } hand_info_t;
 136:Src/app.c     **** 
 137:Src/app.c     **** typedef struct {
 138:Src/app.c     ****   float nn_period_ms;
 139:Src/app.c     ****   uint32_t pd_ms;
 140:Src/app.c     ****   uint32_t hl_ms;
 141:Src/app.c     ****   uint32_t pp_ms;
 142:Src/app.c     ****   uint32_t disp_ms;
 143:Src/app.c     ****   int is_ld_displayed;
 144:Src/app.c     ****   int is_pd_displayed;
 145:Src/app.c     ****   int pd_hand_nb;
 146:Src/app.c     ****   float pd_max_prob;
 147:Src/app.c     ****   hand_info_t hands[PD_MAX_HAND_NB];
 148:Src/app.c     **** } display_info_t;
 149:Src/app.c     **** 
 150:Src/app.c     **** typedef struct {
 151:Src/app.c     ****   SemaphoreHandle_t update;
 152:Src/app.c     ****   StaticSemaphore_t update_buffer;
 153:Src/app.c     ****   SemaphoreHandle_t lock;
 154:Src/app.c     ****   StaticSemaphore_t lock_buffer;
 155:Src/app.c     ****   display_info_t info;
 156:Src/app.c     **** } display_t;
ARM GAS  /tmp/ccrysqwW.s 			page 23


 157:Src/app.c     **** 
 158:Src/app.c     **** typedef struct {
 159:Src/app.c     ****   uint32_t nn_in_len;
 160:Src/app.c     ****   float *prob_out;
 161:Src/app.c     ****   uint32_t prob_out_len;
 162:Src/app.c     ****   float *boxes_out;
 163:Src/app.c     ****   uint32_t boxes_out_len;
 164:Src/app.c     ****   pd_model_pp_static_param_t static_param;
 165:Src/app.c     ****   pd_pp_out_t pd_out;
 166:Src/app.c     **** } pd_model_info_t;
 167:Src/app.c     **** 
 168:Src/app.c     **** /**
 169:Src/app.c     ****  * @brief  YOLO detector model context struct
 170:Src/app.c     ****  */
 171:Src/app.c     **** typedef struct {
 172:Src/app.c     ****   // Input buffer info
 173:Src/app.c     ****   uint32_t nn_in_len;
 174:Src/app.c     **** 
 175:Src/app.c     ****   // Raw output buffer info from the model
 176:Src/app.c     ****   float *raw_detections_out;
 177:Src/app.c     ****   uint32_t raw_detections_out_len;
 178:Src/app.c     **** 
 179:Src/app.c     ****   // Post-processing parameters and final output
 180:Src/app.c     ****   od_yolov8_pp_static_param_t static_param;
 181:Src/app.c     ****   od_pp_out_t yolo_out; 
 182:Src/app.c     **** } yolo_detector_info_t;
 183:Src/app.c     **** 
 184:Src/app.c     **** typedef struct {
 185:Src/app.c     ****   uint8_t *nn_in;
 186:Src/app.c     ****   uint32_t nn_in_len;
 187:Src/app.c     ****   float *prob_out;
 188:Src/app.c     ****   uint32_t prob_out_len;
 189:Src/app.c     ****   float *landmarks_out;
 190:Src/app.c     ****   uint32_t landmarks_out_len;
 191:Src/app.c     **** } hl_model_info_t;
 192:Src/app.c     **** 
 193:Src/app.c     **** typedef struct {
 194:Src/app.c     ****   uint8_t *nn_in;
 195:Src/app.c     ****   uint32_t nn_in_len;
 196:Src/app.c     ****   float *prob_out;
 197:Src/app.c     ****   uint32_t prob_out_len;
 198:Src/app.c     ****   int8_t *landmarks_out; // CHANGE THIS from float* to int8_t*
 199:Src/app.c     ****   size_t landmarks_out_len;
 200:Src/app.c     **** } fl_model_info_t;
 201:Src/app.c     **** 
 202:Src/app.c     **** typedef struct {
 203:Src/app.c     ****   Button_TypeDef button_id;
 204:Src/app.c     ****   int prev_state;
 205:Src/app.c     ****   void (*on_click_handler)(void *cb_args);
 206:Src/app.c     ****   void *cb_args;
 207:Src/app.c     **** } button_t;
 208:Src/app.c     **** 
 209:Src/app.c     **** /* Globals */
 210:Src/app.c     **** /* Lcd Background area */
 211:Src/app.c     **** static Rectangle_TypeDef lcd_bg_area = {
 212:Src/app.c     ****   .X0 = 0,
 213:Src/app.c     ****   .Y0 = 0,
ARM GAS  /tmp/ccrysqwW.s 			page 24


 214:Src/app.c     ****   .XSize = LCD_BG_WIDTH,
 215:Src/app.c     ****   .YSize = LCD_BG_HEIGHT,
 216:Src/app.c     **** };
 217:Src/app.c     **** /* Lcd Foreground area */
 218:Src/app.c     **** static Rectangle_TypeDef lcd_fg_area = {
 219:Src/app.c     ****   .X0 = 0,
 220:Src/app.c     ****   .Y0 = 0,
 221:Src/app.c     ****   .XSize = LCD_FG_WIDTH,
 222:Src/app.c     ****   .YSize = LCD_FG_HEIGHT,
 223:Src/app.c     **** };
 224:Src/app.c     **** /* Lcd Background Buffer */
 225:Src/app.c     **** static uint8_t lcd_bg_buffer[DISPLAY_BUFFER_NB][LCD_BG_WIDTH * LCD_BG_HEIGHT * DISPLAY_BPP] ALIGN_3
 226:Src/app.c     **** static int lcd_bg_buffer_disp_idx = 1;
 227:Src/app.c     **** static int lcd_bg_buffer_capt_idx = 0;
 228:Src/app.c     **** /* Lcd Foreground Buffer */
 229:Src/app.c     **** static uint8_t lcd_fg_buffer[2][LCD_FG_WIDTH * LCD_FG_HEIGHT* 2] ALIGN_32 IN_PSRAM;
 230:Src/app.c     **** static int lcd_fg_buffer_rd_idx;
 231:Src/app.c     **** static display_t disp = {
 232:Src/app.c     ****   .info.is_ld_displayed = 1,
 233:Src/app.c     ****   .info.is_pd_displayed = 0,
 234:Src/app.c     **** };
 235:Src/app.c     **** static cpuload_info_t cpu_load;
 236:Src/app.c     **** /* screen buffer */
 237:Src/app.c     **** static uint8_t screen_buffer[LCD_BG_WIDTH * LCD_BG_HEIGHT * 2] ALIGN_32 IN_PSRAM;
 238:Src/app.c     **** 
 239:Src/app.c     **** /* model */
 240:Src/app.c     **** LL_ATON_DECLARE_NAMED_NN_INSTANCE_AND_INTERFACE(yolo_detector);
 241:Src/app.c     **** LL_ATON_DECLARE_NAMED_NN_INSTANCE_AND_INTERFACE(face_landmark);
 242:Src/app.c     **** static roi_t rois[PD_MAX_HAND_NB];
 243:Src/app.c     ****  /* hand landmark */
 244:Src/app.c     **** //LL_ATON_DECLARE_NAMED_NN_INSTANCE_AND_INTERFACE(hand_landmark);
 245:Src/app.c     **** static ld_point_t ld_landmarks[PD_MAX_HAND_NB][LD_LANDMARK_NB];
 246:Src/app.c     **** static uint32_t frame_event_nb;
 247:Src/app.c     **** static volatile uint32_t frame_event_nb_for_resize;
 248:Src/app.c     **** 
 249:Src/app.c     ****  /* nn input buffers */
 250:Src/app.c     **** static uint8_t nn_input_buffers[2][NN_WIDTH * NN_HEIGHT * NN_BPP] ALIGN_32 IN_PSRAM;
 251:Src/app.c     **** static bqueue_t nn_input_queue;
 252:Src/app.c     **** 
 253:Src/app.c     ****  /* rtos */
 254:Src/app.c     **** static StaticTask_t nn_thread;
 255:Src/app.c     **** static StackType_t nn_thread_stack[4 * configMINIMAL_STACK_SIZE];
 256:Src/app.c     **** static StaticTask_t dp_thread;
 257:Src/app.c     **** static StackType_t dp_thread_stack[2 *configMINIMAL_STACK_SIZE];
 258:Src/app.c     **** static StaticTask_t isp_thread;
 259:Src/app.c     **** static StackType_t isp_thread_stack[2 *configMINIMAL_STACK_SIZE];
 260:Src/app.c     **** static SemaphoreHandle_t isp_sem;
 261:Src/app.c     **** static StaticSemaphore_t isp_sem_buffer;
 262:Src/app.c     **** 
 263:Src/app.c     **** #if HAS_ROTATION_SUPPORT == 1
 264:Src/app.c     **** static GFXMMU_HandleTypeDef hgfxmmu;
 265:Src/app.c     **** static nema_cmdlist_t cl;
 266:Src/app.c     **** #endif
 267:Src/app.c     **** 
 268:Src/app.c     **** static int is_cache_enable()
 269:Src/app.c     **** {
 435              		.loc 1 269 1
ARM GAS  /tmp/ccrysqwW.s 			page 25


 436              		.cfi_startproc
 437              		@ args = 0, pretend = 0, frame = 0
 438              		@ frame_needed = 1, uses_anonymous_args = 0
 439              		@ link register save eliminated.
 440 0000 80B4     		push	{r7}
 441              		.cfi_def_cfa_offset 4
 442              		.cfi_offset 7, -4
 443 0002 00AF     		add	r7, sp, #0
 444              		.cfi_def_cfa_register 7
 270:Src/app.c     **** #if defined(USE_DCACHE)
 271:Src/app.c     ****   return 1;
 445              		.loc 1 271 10
 446 0004 0123     		movs	r3, #1
 272:Src/app.c     **** #else
 273:Src/app.c     ****   return 0;
 274:Src/app.c     **** #endif
 275:Src/app.c     **** }
 447              		.loc 1 275 1
 448 0006 1846     		mov	r0, r3
 449 0008 BD46     		mov	sp, r7
 450              		.cfi_def_cfa_register 13
 451              		@ sp needed
 452 000a 5DF8047B 		ldr	r7, [sp], #4
 453              		.cfi_restore 7
 454              		.cfi_def_cfa_offset 0
 455 000e 7047     		bx	lr
 456              		.cfi_endproc
 457              	.LFE7358:
 459              		.section	.text.pd_normalize_angle,"ax",%progbits
 460              		.align	1
 461              		.syntax unified
 462              		.thumb
 463              		.thumb_func
 465              	pd_normalize_angle:
 466              	.LFB7359:
 276:Src/app.c     **** 
 277:Src/app.c     **** static float pd_normalize_angle(float angle)
 278:Src/app.c     **** {
 467              		.loc 1 278 1
 468              		.cfi_startproc
 469              		@ args = 0, pretend = 0, frame = 8
 470              		@ frame_needed = 1, uses_anonymous_args = 0
 471 0000 80B5     		push	{r7, lr}
 472              		.cfi_def_cfa_offset 8
 473              		.cfi_offset 7, -8
 474              		.cfi_offset 14, -4
 475 0002 2DED028B 		vpush.64	{d8}
 476              		.cfi_def_cfa_offset 16
 477              		.cfi_offset 80, -16
 478              		.cfi_offset 81, -12
 479 0006 82B0     		sub	sp, sp, #8
 480              		.cfi_def_cfa_offset 24
 481 0008 00AF     		add	r7, sp, #0
 482              		.cfi_def_cfa_register 7
 483 000a 87ED010A 		vstr.32	s0, [r7, #4]
 279:Src/app.c     ****   return angle - 2 * M_PI * floorf((angle - (-M_PI)) / (2 * M_PI));
 484              		.loc 1 279 16
ARM GAS  /tmp/ccrysqwW.s 			page 26


 485 000e D7ED017A 		vldr.32	s15, [r7, #4]
 486 0012 B7EEE78A 		vcvt.f64.f32	d8, s15
 487              		.loc 1 279 43
 488 0016 D7ED017A 		vldr.32	s15, [r7, #4]
 489 001a B7EEE77A 		vcvt.f64.f32	d7, s15
 490 001e 9FED106B 		vldr.64	d6, .L13
 491 0022 37EE066B 		vadd.f64	d6, d7, d6
 492              		.loc 1 279 54
 493 0026 9FED105B 		vldr.64	d5, .L13+8
 494 002a 86EE057B 		vdiv.f64	d7, d6, d5
 495              		.loc 1 279 29
 496 002e F7EEC77B 		vcvt.f32.f64	s15, d7
 497 0032 B0EE670A 		vmov.f32	s0, s15
 498 0036 FFF7FEFF 		bl	floorf
 499 003a F0EE407A 		vmov.f32	s15, s0
 500              		.loc 1 279 29 is_stmt 0 discriminator 1
 501 003e B7EEE77A 		vcvt.f64.f32	d7, s15
 502              		.loc 1 279 27 is_stmt 1 discriminator 1
 503 0042 9FED096B 		vldr.64	d6, .L13+8
 504 0046 27EE067B 		vmul.f64	d7, d7, d6
 505              		.loc 1 279 16 discriminator 1
 506 004a 38EE477B 		vsub.f64	d7, d8, d7
 507 004e F7EEC77B 		vcvt.f32.f64	s15, d7
 280:Src/app.c     **** }
 508              		.loc 1 280 1
 509 0052 B0EE670A 		vmov.f32	s0, s15
 510 0056 0837     		adds	r7, r7, #8
 511              		.cfi_def_cfa_offset 16
 512 0058 BD46     		mov	sp, r7
 513              		.cfi_def_cfa_register 13
 514              		@ sp needed
 515 005a BDEC028B 		vldm	sp!, {d8}
 516              		.cfi_restore 80
 517              		.cfi_restore 81
 518              		.cfi_def_cfa_offset 8
 519 005e 80BD     		pop	{r7, pc}
 520              	.L14:
 521              		.align	3
 522              	.L13:
 523 0060 182D4454 		.word	1413754136
 524 0064 FB210940 		.word	1074340347
 525 0068 182D4454 		.word	1413754136
 526 006c FB211940 		.word	1075388923
 527              		.cfi_endproc
 528              	.LFE7359:
 530              		.section	.text.pd_cook_rotation,"ax",%progbits
 531              		.align	1
 532              		.syntax unified
 533              		.thumb
 534              		.thumb_func
 536              	pd_cook_rotation:
 537              	.LFB7360:
 281:Src/app.c     **** 
 282:Src/app.c     **** /* Without rotation support allow limited amount of angles */
 283:Src/app.c     **** #if HAS_ROTATION_SUPPORT == 0
 284:Src/app.c     **** static float pd_cook_rotation(float angle)
 285:Src/app.c     **** {
ARM GAS  /tmp/ccrysqwW.s 			page 27


 286:Src/app.c     ****   if (angle >= (3 * M_PI) / 4)
 287:Src/app.c     ****     angle = M_PI;
 288:Src/app.c     ****   else if (angle >= (1 * M_PI) / 4)
 289:Src/app.c     ****     angle = M_PI / 2;
 290:Src/app.c     ****   else if (angle >= -(1 * M_PI) / 4)
 291:Src/app.c     ****     angle = 0;
 292:Src/app.c     ****   else if (angle >= -(3 * M_PI) / 4)
 293:Src/app.c     ****     angle = -M_PI / 2;
 294:Src/app.c     ****   else
 295:Src/app.c     ****     angle = -M_PI;
 296:Src/app.c     **** 
 297:Src/app.c     ****   return angle;
 298:Src/app.c     **** }
 299:Src/app.c     **** #else
 300:Src/app.c     **** static float pd_cook_rotation(float angle)
 301:Src/app.c     **** {
 538              		.loc 1 301 1
 539              		.cfi_startproc
 540              		@ args = 0, pretend = 0, frame = 8
 541              		@ frame_needed = 1, uses_anonymous_args = 0
 542              		@ link register save eliminated.
 543 0000 80B4     		push	{r7}
 544              		.cfi_def_cfa_offset 4
 545              		.cfi_offset 7, -4
 546 0002 83B0     		sub	sp, sp, #12
 547              		.cfi_def_cfa_offset 16
 548 0004 00AF     		add	r7, sp, #0
 549              		.cfi_def_cfa_register 7
 550 0006 87ED010A 		vstr.32	s0, [r7, #4]
 302:Src/app.c     ****   return angle;
 551              		.loc 1 302 10
 552 000a 7B68     		ldr	r3, [r7, #4]	@ float
 553              		.loc 1 302 10 is_stmt 0 discriminator 1
 554 000c 07EE903A 		vmov	s15, r3
 303:Src/app.c     **** }
 555              		.loc 1 303 1 is_stmt 1
 556 0010 B0EE670A 		vmov.f32	s0, s15
 557 0014 0C37     		adds	r7, r7, #12
 558              		.cfi_def_cfa_offset 4
 559 0016 BD46     		mov	sp, r7
 560              		.cfi_def_cfa_register 13
 561              		@ sp needed
 562 0018 5DF8047B 		ldr	r7, [sp], #4
 563              		.cfi_restore 7
 564              		.cfi_def_cfa_offset 0
 565 001c 7047     		bx	lr
 566              		.cfi_endproc
 567              	.LFE7360:
 569              		.section	.text.pd_compute_rotation,"ax",%progbits
 570              		.align	1
 571              		.syntax unified
 572              		.thumb
 573              		.thumb_func
 575              	pd_compute_rotation:
 576              	.LFB7361:
 304:Src/app.c     **** #endif
 305:Src/app.c     **** 
ARM GAS  /tmp/ccrysqwW.s 			page 28


 306:Src/app.c     **** static float pd_compute_rotation(pd_pp_box_t *box)
 307:Src/app.c     **** {
 577              		.loc 1 307 1
 578              		.cfi_startproc
 579              		@ args = 0, pretend = 0, frame = 32
 580              		@ frame_needed = 1, uses_anonymous_args = 0
 581 0000 80B5     		push	{r7, lr}
 582              		.cfi_def_cfa_offset 8
 583              		.cfi_offset 7, -8
 584              		.cfi_offset 14, -4
 585 0002 88B0     		sub	sp, sp, #32
 586              		.cfi_def_cfa_offset 40
 587 0004 00AF     		add	r7, sp, #0
 588              		.cfi_def_cfa_register 7
 589 0006 7860     		str	r0, [r7, #4]
 308:Src/app.c     ****   float x0, y0, x1, y1;
 309:Src/app.c     ****   float rotation;
 310:Src/app.c     **** 
 311:Src/app.c     ****   x0 = box->pKps[0].x;
 590              		.loc 1 311 11
 591 0008 7B68     		ldr	r3, [r7, #4]
 592 000a 5B69     		ldr	r3, [r3, #20]
 593              		.loc 1 311 6
 594 000c 1B68     		ldr	r3, [r3]	@ float
 595 000e FB61     		str	r3, [r7, #28]	@ float
 312:Src/app.c     ****   y0 = box->pKps[0].y;
 596              		.loc 1 312 11
 597 0010 7B68     		ldr	r3, [r7, #4]
 598 0012 5B69     		ldr	r3, [r3, #20]
 599              		.loc 1 312 6
 600 0014 5B68     		ldr	r3, [r3, #4]	@ float
 601 0016 BB61     		str	r3, [r7, #24]	@ float
 313:Src/app.c     ****   x1 = box->pKps[2].x;
 602              		.loc 1 313 11
 603 0018 7B68     		ldr	r3, [r7, #4]
 604 001a 5B69     		ldr	r3, [r3, #20]
 605              		.loc 1 313 17
 606 001c 1033     		adds	r3, r3, #16
 607              		.loc 1 313 6
 608 001e 1B68     		ldr	r3, [r3]	@ float
 609 0020 7B61     		str	r3, [r7, #20]	@ float
 314:Src/app.c     ****   y1 = box->pKps[2].y;
 610              		.loc 1 314 11
 611 0022 7B68     		ldr	r3, [r7, #4]
 612 0024 5B69     		ldr	r3, [r3, #20]
 613              		.loc 1 314 17
 614 0026 1033     		adds	r3, r3, #16
 615              		.loc 1 314 6
 616 0028 5B68     		ldr	r3, [r3, #4]	@ float
 617 002a 3B61     		str	r3, [r7, #16]	@ float
 315:Src/app.c     **** 
 316:Src/app.c     ****   rotation = M_PI * 0.5 - atan2f(-(y1 - y0), x1 - x0);
 618              		.loc 1 316 39
 619 002c 97ED047A 		vldr.32	s14, [r7, #16]
 620 0030 D7ED067A 		vldr.32	s15, [r7, #24]
 621 0034 77EE677A 		vsub.f32	s15, s14, s15
 622              		.loc 1 316 27
ARM GAS  /tmp/ccrysqwW.s 			page 29


 623 0038 F1EE676A 		vneg.f32	s13, s15
 624 003c 97ED057A 		vldr.32	s14, [r7, #20]
 625 0040 D7ED077A 		vldr.32	s15, [r7, #28]
 626 0044 77EE677A 		vsub.f32	s15, s14, s15
 627 0048 F0EE670A 		vmov.f32	s1, s15
 628 004c B0EE660A 		vmov.f32	s0, s13
 629 0050 FFF7FEFF 		bl	atan2f
 630 0054 F0EE407A 		vmov.f32	s15, s0
 631              		.loc 1 316 27 is_stmt 0 discriminator 1
 632 0058 B7EEE77A 		vcvt.f64.f32	d7, s15
 633              		.loc 1 316 25 is_stmt 1 discriminator 1
 634 005c 9FED0C6B 		vldr.64	d6, .L19
 635 0060 36EE477B 		vsub.f64	d7, d6, d7
 636              		.loc 1 316 12 discriminator 1
 637 0064 F7EEC77B 		vcvt.f32.f64	s15, d7
 638 0068 C7ED037A 		vstr.32	s15, [r7, #12]
 317:Src/app.c     **** 
 318:Src/app.c     ****   return pd_cook_rotation(pd_normalize_angle(rotation));
 639              		.loc 1 318 10
 640 006c 97ED030A 		vldr.32	s0, [r7, #12]
 641 0070 FFF7FEFF 		bl	pd_normalize_angle
 642 0074 F0EE407A 		vmov.f32	s15, s0
 643              		.loc 1 318 10 is_stmt 0 discriminator 1
 644 0078 B0EE670A 		vmov.f32	s0, s15
 645 007c FFF7FEFF 		bl	pd_cook_rotation
 646 0080 F0EE407A 		vmov.f32	s15, s0
 319:Src/app.c     **** }
 647              		.loc 1 319 1 is_stmt 1
 648 0084 B0EE670A 		vmov.f32	s0, s15
 649 0088 2037     		adds	r7, r7, #32
 650              		.cfi_def_cfa_offset 8
 651 008a BD46     		mov	sp, r7
 652              		.cfi_def_cfa_register 13
 653              		@ sp needed
 654 008c 80BD     		pop	{r7, pc}
 655              	.L20:
 656 008e 00BF     		.align	3
 657              	.L19:
 658 0090 182D4454 		.word	1413754136
 659 0094 FB21F93F 		.word	1073291771
 660              		.cfi_endproc
 661              	.LFE7361:
 663              		.section	.text.cvt_pd_coord_to_screen_coord,"ax",%progbits
 664              		.align	1
 665              		.syntax unified
 666              		.thumb
 667              		.thumb_func
 669              	cvt_pd_coord_to_screen_coord:
 670              	.LFB7362:
 320:Src/app.c     **** 
 321:Src/app.c     **** static void cvt_pd_coord_to_screen_coord(pd_pp_box_t *box)
 322:Src/app.c     **** {
 671              		.loc 1 322 1
 672              		.cfi_startproc
 673              		@ args = 0, pretend = 0, frame = 16
 674              		@ frame_needed = 1, uses_anonymous_args = 0
 675              		@ link register save eliminated.
ARM GAS  /tmp/ccrysqwW.s 			page 30


 676 0000 80B4     		push	{r7}
 677              		.cfi_def_cfa_offset 4
 678              		.cfi_offset 7, -4
 679 0002 85B0     		sub	sp, sp, #20
 680              		.cfi_def_cfa_offset 24
 681 0004 00AF     		add	r7, sp, #0
 682              		.cfi_def_cfa_register 7
 683 0006 7860     		str	r0, [r7, #4]
 323:Src/app.c     ****   int i;
 324:Src/app.c     **** 
 325:Src/app.c     ****   /* This is not a typo. Since screen aspect ratio was conserved. We really want to use LCD_BG_WIDT
 326:Src/app.c     ****    * y positions.
 327:Src/app.c     ****    */
 328:Src/app.c     **** 
 329:Src/app.c     ****   box->x_center *= LCD_BG_WIDTH;
 684              		.loc 1 329 6
 685 0008 7B68     		ldr	r3, [r7, #4]
 686 000a D3ED017A 		vldr.32	s15, [r3, #4]
 687              		.loc 1 329 17
 688 000e 9FED2C7A 		vldr.32	s14, .L24
 689 0012 67EE877A 		vmul.f32	s15, s15, s14
 690 0016 7B68     		ldr	r3, [r7, #4]
 691 0018 C3ED017A 		vstr.32	s15, [r3, #4]
 330:Src/app.c     ****   box->y_center *= LCD_BG_WIDTH;
 692              		.loc 1 330 6
 693 001c 7B68     		ldr	r3, [r7, #4]
 694 001e D3ED027A 		vldr.32	s15, [r3, #8]
 695              		.loc 1 330 17
 696 0022 9FED277A 		vldr.32	s14, .L24
 697 0026 67EE877A 		vmul.f32	s15, s15, s14
 698 002a 7B68     		ldr	r3, [r7, #4]
 699 002c C3ED027A 		vstr.32	s15, [r3, #8]
 331:Src/app.c     ****   box->width *= LCD_BG_WIDTH;
 700              		.loc 1 331 6
 701 0030 7B68     		ldr	r3, [r7, #4]
 702 0032 D3ED037A 		vldr.32	s15, [r3, #12]
 703              		.loc 1 331 14
 704 0036 9FED227A 		vldr.32	s14, .L24
 705 003a 67EE877A 		vmul.f32	s15, s15, s14
 706 003e 7B68     		ldr	r3, [r7, #4]
 707 0040 C3ED037A 		vstr.32	s15, [r3, #12]
 332:Src/app.c     ****   box->height *= LCD_BG_WIDTH;
 708              		.loc 1 332 6
 709 0044 7B68     		ldr	r3, [r7, #4]
 710 0046 D3ED047A 		vldr.32	s15, [r3, #16]
 711              		.loc 1 332 15
 712 004a 9FED1D7A 		vldr.32	s14, .L24
 713 004e 67EE877A 		vmul.f32	s15, s15, s14
 714 0052 7B68     		ldr	r3, [r7, #4]
 715 0054 C3ED047A 		vstr.32	s15, [r3, #16]
 333:Src/app.c     ****   for (i = 0; i < AI_PD_MODEL_PP_NB_KEYPOINTS; i++) {
 716              		.loc 1 333 10
 717 0058 0023     		movs	r3, #0
 718 005a FB60     		str	r3, [r7, #12]
 719              		.loc 1 333 3
 720 005c 26E0     		b	.L22
 721              	.L23:
ARM GAS  /tmp/ccrysqwW.s 			page 31


 334:Src/app.c     ****     box->pKps[i].x *= LCD_BG_WIDTH;
 722              		.loc 1 334 8
 723 005e 7B68     		ldr	r3, [r7, #4]
 724 0060 5A69     		ldr	r2, [r3, #20]
 725              		.loc 1 334 14
 726 0062 FB68     		ldr	r3, [r7, #12]
 727 0064 DB00     		lsls	r3, r3, #3
 728 0066 1344     		add	r3, r3, r2
 729              		.loc 1 334 17
 730 0068 D3ED007A 		vldr.32	s15, [r3]
 731              		.loc 1 334 8
 732 006c 7B68     		ldr	r3, [r7, #4]
 733 006e 5A69     		ldr	r2, [r3, #20]
 734              		.loc 1 334 14
 735 0070 FB68     		ldr	r3, [r7, #12]
 736 0072 DB00     		lsls	r3, r3, #3
 737 0074 1344     		add	r3, r3, r2
 738              		.loc 1 334 20
 739 0076 9FED127A 		vldr.32	s14, .L24
 740 007a 67EE877A 		vmul.f32	s15, s15, s14
 741 007e C3ED007A 		vstr.32	s15, [r3]
 335:Src/app.c     ****     box->pKps[i].y *= LCD_BG_WIDTH;
 742              		.loc 1 335 8
 743 0082 7B68     		ldr	r3, [r7, #4]
 744 0084 5A69     		ldr	r2, [r3, #20]
 745              		.loc 1 335 14
 746 0086 FB68     		ldr	r3, [r7, #12]
 747 0088 DB00     		lsls	r3, r3, #3
 748 008a 1344     		add	r3, r3, r2
 749              		.loc 1 335 17
 750 008c D3ED017A 		vldr.32	s15, [r3, #4]
 751              		.loc 1 335 8
 752 0090 7B68     		ldr	r3, [r7, #4]
 753 0092 5A69     		ldr	r2, [r3, #20]
 754              		.loc 1 335 14
 755 0094 FB68     		ldr	r3, [r7, #12]
 756 0096 DB00     		lsls	r3, r3, #3
 757 0098 1344     		add	r3, r3, r2
 758              		.loc 1 335 20
 759 009a 9FED097A 		vldr.32	s14, .L24
 760 009e 67EE877A 		vmul.f32	s15, s15, s14
 761 00a2 C3ED017A 		vstr.32	s15, [r3, #4]
 333:Src/app.c     ****   for (i = 0; i < AI_PD_MODEL_PP_NB_KEYPOINTS; i++) {
 762              		.loc 1 333 49 discriminator 3
 763 00a6 FB68     		ldr	r3, [r7, #12]
 764 00a8 0133     		adds	r3, r3, #1
 765 00aa FB60     		str	r3, [r7, #12]
 766              	.L22:
 333:Src/app.c     ****   for (i = 0; i < AI_PD_MODEL_PP_NB_KEYPOINTS; i++) {
 767              		.loc 1 333 17 discriminator 1
 768 00ac FB68     		ldr	r3, [r7, #12]
 769 00ae 062B     		cmp	r3, #6
 770 00b0 D5DD     		ble	.L23
 336:Src/app.c     ****   }
 337:Src/app.c     **** }
 771              		.loc 1 337 1
 772 00b2 00BF     		nop
ARM GAS  /tmp/ccrysqwW.s 			page 32


 773 00b4 00BF     		nop
 774 00b6 1437     		adds	r7, r7, #20
 775              		.cfi_def_cfa_offset 4
 776 00b8 BD46     		mov	sp, r7
 777              		.cfi_def_cfa_register 13
 778              		@ sp needed
 779 00ba 5DF8047B 		ldr	r7, [sp], #4
 780              		.cfi_restore 7
 781              		.cfi_def_cfa_offset 0
 782 00be 7047     		bx	lr
 783              	.L25:
 784              		.align	2
 785              	.L24:
 786 00c0 00004844 		.word	1145569280
 787              		.cfi_endproc
 788              	.LFE7362:
 790              		.section	.text.roi_shift_and_scale,"ax",%progbits
 791              		.align	1
 792              		.syntax unified
 793              		.thumb
 794              		.thumb_func
 796              	roi_shift_and_scale:
 797              	.LFB7363:
 338:Src/app.c     **** 
 339:Src/app.c     **** static void roi_shift_and_scale(roi_t *roi, float shift_x, float shift_y, float scale_x, float scal
 340:Src/app.c     **** {
 798              		.loc 1 340 1
 799              		.cfi_startproc
 800              		@ args = 0, pretend = 0, frame = 40
 801              		@ frame_needed = 1, uses_anonymous_args = 0
 802 0000 80B5     		push	{r7, lr}
 803              		.cfi_def_cfa_offset 8
 804              		.cfi_offset 7, -8
 805              		.cfi_offset 14, -4
 806 0002 2DED048B 		vpush.64	{d8, d9}
 807              		.cfi_def_cfa_offset 24
 808              		.cfi_offset 80, -24
 809              		.cfi_offset 81, -20
 810              		.cfi_offset 82, -16
 811              		.cfi_offset 83, -12
 812 0006 8AB0     		sub	sp, sp, #40
 813              		.cfi_def_cfa_offset 64
 814 0008 00AF     		add	r7, sp, #0
 815              		.cfi_def_cfa_register 7
 816 000a 7861     		str	r0, [r7, #20]
 817 000c 87ED040A 		vstr.32	s0, [r7, #16]
 818 0010 C7ED030A 		vstr.32	s1, [r7, #12]
 819 0014 87ED021A 		vstr.32	s2, [r7, #8]
 820 0018 C7ED011A 		vstr.32	s3, [r7, #4]
 341:Src/app.c     ****   float long_side;
 342:Src/app.c     ****   float sx, sy;
 343:Src/app.c     **** 
 344:Src/app.c     ****   sx = (roi->w * shift_x * cos(roi->rotation) - roi->h * shift_y * sin(roi->rotation));
 821              		.loc 1 344 12
 822 001c 7B69     		ldr	r3, [r7, #20]
 823 001e 93ED027A 		vldr.32	s14, [r3, #8]
 824              		.loc 1 344 16
ARM GAS  /tmp/ccrysqwW.s 			page 33


 825 0022 D7ED047A 		vldr.32	s15, [r7, #16]
 826 0026 67EE277A 		vmul.f32	s15, s14, s15
 827 002a B7EEE78A 		vcvt.f64.f32	d8, s15
 828              		.loc 1 344 35
 829 002e 7B69     		ldr	r3, [r7, #20]
 830 0030 D3ED047A 		vldr.32	s15, [r3, #16]
 831              		.loc 1 344 28
 832 0034 B7EEE77A 		vcvt.f64.f32	d7, s15
 833 0038 B0EE470B 		vmov.f64	d0, d7
 834 003c FFF7FEFF 		bl	cos
 835 0040 B0EE407B 		vmov.f64	d7, d0
 836              		.loc 1 344 26 discriminator 1
 837 0044 28EE078B 		vmul.f64	d8, d8, d7
 838              		.loc 1 344 52 discriminator 1
 839 0048 7B69     		ldr	r3, [r7, #20]
 840 004a 93ED037A 		vldr.32	s14, [r3, #12]
 841              		.loc 1 344 56 discriminator 1
 842 004e D7ED037A 		vldr.32	s15, [r7, #12]
 843 0052 67EE277A 		vmul.f32	s15, s14, s15
 844 0056 B7EEE79A 		vcvt.f64.f32	d9, s15
 845              		.loc 1 344 75 discriminator 1
 846 005a 7B69     		ldr	r3, [r7, #20]
 847 005c D3ED047A 		vldr.32	s15, [r3, #16]
 848              		.loc 1 344 68 discriminator 1
 849 0060 B7EEE77A 		vcvt.f64.f32	d7, s15
 850 0064 B0EE470B 		vmov.f64	d0, d7
 851 0068 FFF7FEFF 		bl	sin
 852 006c B0EE407B 		vmov.f64	d7, d0
 853              		.loc 1 344 66 discriminator 2
 854 0070 29EE077B 		vmul.f64	d7, d9, d7
 855              		.loc 1 344 47 discriminator 2
 856 0074 38EE477B 		vsub.f64	d7, d8, d7
 857              		.loc 1 344 6 discriminator 2
 858 0078 F7EEC77B 		vcvt.f32.f64	s15, d7
 859 007c C7ED097A 		vstr.32	s15, [r7, #36]
 345:Src/app.c     ****   sy = (roi->w * shift_x * sin(roi->rotation) + roi->h * shift_y * cos(roi->rotation));
 860              		.loc 1 345 12
 861 0080 7B69     		ldr	r3, [r7, #20]
 862 0082 93ED027A 		vldr.32	s14, [r3, #8]
 863              		.loc 1 345 16
 864 0086 D7ED047A 		vldr.32	s15, [r7, #16]
 865 008a 67EE277A 		vmul.f32	s15, s14, s15
 866 008e B7EEE78A 		vcvt.f64.f32	d8, s15
 867              		.loc 1 345 35
 868 0092 7B69     		ldr	r3, [r7, #20]
 869 0094 D3ED047A 		vldr.32	s15, [r3, #16]
 870              		.loc 1 345 28
 871 0098 B7EEE77A 		vcvt.f64.f32	d7, s15
 872 009c B0EE470B 		vmov.f64	d0, d7
 873 00a0 FFF7FEFF 		bl	sin
 874 00a4 B0EE407B 		vmov.f64	d7, d0
 875              		.loc 1 345 26 discriminator 1
 876 00a8 28EE078B 		vmul.f64	d8, d8, d7
 877              		.loc 1 345 52 discriminator 1
 878 00ac 7B69     		ldr	r3, [r7, #20]
 879 00ae 93ED037A 		vldr.32	s14, [r3, #12]
 880              		.loc 1 345 56 discriminator 1
ARM GAS  /tmp/ccrysqwW.s 			page 34


 881 00b2 D7ED037A 		vldr.32	s15, [r7, #12]
 882 00b6 67EE277A 		vmul.f32	s15, s14, s15
 883 00ba B7EEE79A 		vcvt.f64.f32	d9, s15
 884              		.loc 1 345 75 discriminator 1
 885 00be 7B69     		ldr	r3, [r7, #20]
 886 00c0 D3ED047A 		vldr.32	s15, [r3, #16]
 887              		.loc 1 345 68 discriminator 1
 888 00c4 B7EEE77A 		vcvt.f64.f32	d7, s15
 889 00c8 B0EE470B 		vmov.f64	d0, d7
 890 00cc FFF7FEFF 		bl	cos
 891 00d0 B0EE407B 		vmov.f64	d7, d0
 892              		.loc 1 345 66 discriminator 2
 893 00d4 29EE077B 		vmul.f64	d7, d9, d7
 894              		.loc 1 345 47 discriminator 2
 895 00d8 38EE077B 		vadd.f64	d7, d8, d7
 896              		.loc 1 345 6 discriminator 2
 897 00dc F7EEC77B 		vcvt.f32.f64	s15, d7
 898 00e0 C7ED087A 		vstr.32	s15, [r7, #32]
 346:Src/app.c     **** 
 347:Src/app.c     ****   roi->cx += sx;
 899              		.loc 1 347 6
 900 00e4 7B69     		ldr	r3, [r7, #20]
 901 00e6 93ED007A 		vldr.32	s14, [r3]
 902              		.loc 1 347 11
 903 00ea D7ED097A 		vldr.32	s15, [r7, #36]
 904 00ee 77EE277A 		vadd.f32	s15, s14, s15
 905 00f2 7B69     		ldr	r3, [r7, #20]
 906 00f4 C3ED007A 		vstr.32	s15, [r3]
 348:Src/app.c     ****   roi->cy += sy;
 907              		.loc 1 348 6
 908 00f8 7B69     		ldr	r3, [r7, #20]
 909 00fa 93ED017A 		vldr.32	s14, [r3, #4]
 910              		.loc 1 348 11
 911 00fe D7ED087A 		vldr.32	s15, [r7, #32]
 912 0102 77EE277A 		vadd.f32	s15, s14, s15
 913 0106 7B69     		ldr	r3, [r7, #20]
 914 0108 C3ED017A 		vstr.32	s15, [r3, #4]
 349:Src/app.c     **** 
 350:Src/app.c     ****   long_side = MAX(roi->w, roi->h);
 915              		.loc 1 350 15
 916 010c 7B69     		ldr	r3, [r7, #20]
 917 010e 93ED027A 		vldr.32	s14, [r3, #8]
 918 0112 7B69     		ldr	r3, [r7, #20]
 919 0114 D3ED037A 		vldr.32	s15, [r3, #12]
 920 0118 B4EEE77A 		vcmpe.f32	s14, s15
 921 011c F1EE10FA 		vmrs	APSR_nzcv, FPSCR
 922 0120 02DD     		ble	.L31
 923              		.loc 1 350 15 is_stmt 0 discriminator 1
 924 0122 7B69     		ldr	r3, [r7, #20]
 925 0124 9B68     		ldr	r3, [r3, #8]	@ float
 926 0126 01E0     		b	.L29
 927              	.L31:
 928              		.loc 1 350 15 discriminator 2
 929 0128 7B69     		ldr	r3, [r7, #20]
 930 012a DB68     		ldr	r3, [r3, #12]	@ float
 931              	.L29:
 932              		.loc 1 350 13 is_stmt 1 discriminator 4
ARM GAS  /tmp/ccrysqwW.s 			page 35


 933 012c FB61     		str	r3, [r7, #28]	@ float
 351:Src/app.c     ****   roi->w = long_side;
 934              		.loc 1 351 10
 935 012e 7B69     		ldr	r3, [r7, #20]
 936 0130 FA69     		ldr	r2, [r7, #28]	@ float
 937 0132 9A60     		str	r2, [r3, #8]	@ float
 352:Src/app.c     ****   roi->h = long_side;
 938              		.loc 1 352 10
 939 0134 7B69     		ldr	r3, [r7, #20]
 940 0136 FA69     		ldr	r2, [r7, #28]	@ float
 941 0138 DA60     		str	r2, [r3, #12]	@ float
 353:Src/app.c     **** 
 354:Src/app.c     ****   roi->w *= scale_x;
 942              		.loc 1 354 6
 943 013a 7B69     		ldr	r3, [r7, #20]
 944 013c 93ED027A 		vldr.32	s14, [r3, #8]
 945              		.loc 1 354 10
 946 0140 D7ED027A 		vldr.32	s15, [r7, #8]
 947 0144 67EE277A 		vmul.f32	s15, s14, s15
 948 0148 7B69     		ldr	r3, [r7, #20]
 949 014a C3ED027A 		vstr.32	s15, [r3, #8]
 355:Src/app.c     ****   roi->h *= scale_y;
 950              		.loc 1 355 6
 951 014e 7B69     		ldr	r3, [r7, #20]
 952 0150 93ED037A 		vldr.32	s14, [r3, #12]
 953              		.loc 1 355 10
 954 0154 D7ED017A 		vldr.32	s15, [r7, #4]
 955 0158 67EE277A 		vmul.f32	s15, s14, s15
 956 015c 7B69     		ldr	r3, [r7, #20]
 957 015e C3ED037A 		vstr.32	s15, [r3, #12]
 356:Src/app.c     **** }
 958              		.loc 1 356 1
 959 0162 00BF     		nop
 960 0164 2837     		adds	r7, r7, #40
 961              		.cfi_def_cfa_offset 24
 962 0166 BD46     		mov	sp, r7
 963              		.cfi_def_cfa_register 13
 964              		@ sp needed
 965 0168 BDEC048B 		vldm	sp!, {d8-d9}
 966              		.cfi_restore 82
 967              		.cfi_restore 83
 968              		.cfi_restore 80
 969              		.cfi_restore 81
 970              		.cfi_def_cfa_offset 8
 971 016c 80BD     		pop	{r7, pc}
 972              		.cfi_endproc
 973              	.LFE7363:
 975              		.section	.text.pd_box_to_roi,"ax",%progbits
 976              		.align	1
 977              		.syntax unified
 978              		.thumb
 979              		.thumb_func
 981              	pd_box_to_roi:
 982              	.LFB7364:
 357:Src/app.c     **** 
 358:Src/app.c     **** static void pd_box_to_roi(pd_pp_box_t *box,  roi_t *roi)
 359:Src/app.c     **** {
ARM GAS  /tmp/ccrysqwW.s 			page 36


 983              		.loc 1 359 1
 984              		.cfi_startproc
 985              		@ args = 0, pretend = 0, frame = 24
 986              		@ frame_needed = 1, uses_anonymous_args = 0
 987 0000 80B5     		push	{r7, lr}
 988              		.cfi_def_cfa_offset 8
 989              		.cfi_offset 7, -8
 990              		.cfi_offset 14, -4
 991 0002 86B0     		sub	sp, sp, #24
 992              		.cfi_def_cfa_offset 32
 993 0004 00AF     		add	r7, sp, #0
 994              		.cfi_def_cfa_register 7
 995 0006 7860     		str	r0, [r7, #4]
 996 0008 3960     		str	r1, [r7]
 360:Src/app.c     ****   const float shift_x = 0;
 997              		.loc 1 360 15
 998 000a 4FF00003 		mov	r3, #0
 999 000e 7B61     		str	r3, [r7, #20]	@ float
 361:Src/app.c     ****   const float shift_y = -0.5;
 1000              		.loc 1 361 15
 1001 0010 4FF03F43 		mov	r3, #-1090519040
 1002 0014 3B61     		str	r3, [r7, #16]	@ float
 362:Src/app.c     ****   const float scale = 2.6;
 1003              		.loc 1 362 15
 1004 0016 144B     		ldr	r3, .L33
 1005 0018 FB60     		str	r3, [r7, #12]	@ float
 363:Src/app.c     **** 
 364:Src/app.c     ****   roi->cx = box->x_center;
 1006              		.loc 1 364 16
 1007 001a 7B68     		ldr	r3, [r7, #4]
 1008 001c 5A68     		ldr	r2, [r3, #4]	@ float
 1009              		.loc 1 364 11
 1010 001e 3B68     		ldr	r3, [r7]
 1011 0020 1A60     		str	r2, [r3]	@ float
 365:Src/app.c     ****   roi->cy = box->y_center;
 1012              		.loc 1 365 16
 1013 0022 7B68     		ldr	r3, [r7, #4]
 1014 0024 9A68     		ldr	r2, [r3, #8]	@ float
 1015              		.loc 1 365 11
 1016 0026 3B68     		ldr	r3, [r7]
 1017 0028 5A60     		str	r2, [r3, #4]	@ float
 366:Src/app.c     ****   roi->w = box->width;
 1018              		.loc 1 366 15
 1019 002a 7B68     		ldr	r3, [r7, #4]
 1020 002c DA68     		ldr	r2, [r3, #12]	@ float
 1021              		.loc 1 366 10
 1022 002e 3B68     		ldr	r3, [r7]
 1023 0030 9A60     		str	r2, [r3, #8]	@ float
 367:Src/app.c     ****   roi->h = box->height;
 1024              		.loc 1 367 15
 1025 0032 7B68     		ldr	r3, [r7, #4]
 1026 0034 1A69     		ldr	r2, [r3, #16]	@ float
 1027              		.loc 1 367 10
 1028 0036 3B68     		ldr	r3, [r7]
 1029 0038 DA60     		str	r2, [r3, #12]	@ float
 368:Src/app.c     ****   roi->rotation = pd_compute_rotation(box);
 1030              		.loc 1 368 19
ARM GAS  /tmp/ccrysqwW.s 			page 37


 1031 003a 7868     		ldr	r0, [r7, #4]
 1032 003c FFF7FEFF 		bl	pd_compute_rotation
 1033 0040 F0EE407A 		vmov.f32	s15, s0
 1034              		.loc 1 368 17 discriminator 1
 1035 0044 3B68     		ldr	r3, [r7]
 1036 0046 C3ED047A 		vstr.32	s15, [r3, #16]
 369:Src/app.c     **** 
 370:Src/app.c     ****   roi_shift_and_scale(roi, shift_x, shift_y, scale, scale);
 1037              		.loc 1 370 3
 1038 004a D7ED031A 		vldr.32	s3, [r7, #12]
 1039 004e 97ED031A 		vldr.32	s2, [r7, #12]
 1040 0052 D7ED040A 		vldr.32	s1, [r7, #16]
 1041 0056 97ED050A 		vldr.32	s0, [r7, #20]
 1042 005a 3868     		ldr	r0, [r7]
 1043 005c FFF7FEFF 		bl	roi_shift_and_scale
 371:Src/app.c     **** 
 372:Src/app.c     **** #if HAS_ROTATION_SUPPORT == 0
 373:Src/app.c     ****   /* In that case we can cancel rotation. This ensure corners are corrected oriented */
 374:Src/app.c     ****   roi->rotation = 0;
 375:Src/app.c     **** #endif
 376:Src/app.c     **** }
 1044              		.loc 1 376 1
 1045 0060 00BF     		nop
 1046 0062 1837     		adds	r7, r7, #24
 1047              		.cfi_def_cfa_offset 8
 1048 0064 BD46     		mov	sp, r7
 1049              		.cfi_def_cfa_register 13
 1050              		@ sp needed
 1051 0066 80BD     		pop	{r7, pc}
 1052              	.L34:
 1053              		.align	2
 1054              	.L33:
 1055 0068 66662640 		.word	1076258406
 1056              		.cfi_endproc
 1057              	.LFE7364:
 1059              		.section	.text.copy_yolo_box,"ax",%progbits
 1060              		.align	1
 1061              		.syntax unified
 1062              		.thumb
 1063              		.thumb_func
 1065              	copy_yolo_box:
 1066              	.LFB7365:
 377:Src/app.c     **** 
 378:Src/app.c     **** static void copy_yolo_box(od_pp_outBuffer_t *dst, const od_pp_outBuffer_t *src)
 379:Src/app.c     **** {
 1067              		.loc 1 379 1
 1068              		.cfi_startproc
 1069              		@ args = 0, pretend = 0, frame = 8
 1070              		@ frame_needed = 1, uses_anonymous_args = 0
 1071              		@ link register save eliminated.
 1072 0000 80B4     		push	{r7}
 1073              		.cfi_def_cfa_offset 4
 1074              		.cfi_offset 7, -4
 1075 0002 83B0     		sub	sp, sp, #12
 1076              		.cfi_def_cfa_offset 16
 1077 0004 00AF     		add	r7, sp, #0
 1078              		.cfi_def_cfa_register 7
ARM GAS  /tmp/ccrysqwW.s 			page 38


 1079 0006 7860     		str	r0, [r7, #4]
 1080 0008 3960     		str	r1, [r7]
 380:Src/app.c     ****   dst->conf = src->conf;
 1081              		.loc 1 380 18
 1082 000a 3B68     		ldr	r3, [r7]
 1083 000c 1A69     		ldr	r2, [r3, #16]	@ float
 1084              		.loc 1 380 13
 1085 000e 7B68     		ldr	r3, [r7, #4]
 1086 0010 1A61     		str	r2, [r3, #16]	@ float
 381:Src/app.c     ****   dst->x_center = src->x_center;
 1087              		.loc 1 381 22
 1088 0012 3B68     		ldr	r3, [r7]
 1089 0014 1A68     		ldr	r2, [r3]	@ float
 1090              		.loc 1 381 17
 1091 0016 7B68     		ldr	r3, [r7, #4]
 1092 0018 1A60     		str	r2, [r3]	@ float
 382:Src/app.c     ****   dst->y_center = src->y_center;
 1093              		.loc 1 382 22
 1094 001a 3B68     		ldr	r3, [r7]
 1095 001c 5A68     		ldr	r2, [r3, #4]	@ float
 1096              		.loc 1 382 17
 1097 001e 7B68     		ldr	r3, [r7, #4]
 1098 0020 5A60     		str	r2, [r3, #4]	@ float
 383:Src/app.c     ****   dst->width = src->width;
 1099              		.loc 1 383 19
 1100 0022 3B68     		ldr	r3, [r7]
 1101 0024 9A68     		ldr	r2, [r3, #8]	@ float
 1102              		.loc 1 383 14
 1103 0026 7B68     		ldr	r3, [r7, #4]
 1104 0028 9A60     		str	r2, [r3, #8]	@ float
 384:Src/app.c     ****   dst->height = src->height;
 1105              		.loc 1 384 20
 1106 002a 3B68     		ldr	r3, [r7]
 1107 002c DA68     		ldr	r2, [r3, #12]	@ float
 1108              		.loc 1 384 15
 1109 002e 7B68     		ldr	r3, [r7, #4]
 1110 0030 DA60     		str	r2, [r3, #12]	@ float
 385:Src/app.c     ****   dst->class_index = src->class_index;
 1111              		.loc 1 385 25
 1112 0032 3B68     		ldr	r3, [r7]
 1113 0034 5A69     		ldr	r2, [r3, #20]
 1114              		.loc 1 385 20
 1115 0036 7B68     		ldr	r3, [r7, #4]
 1116 0038 5A61     		str	r2, [r3, #20]
 386:Src/app.c     **** }
 1117              		.loc 1 386 1
 1118 003a 00BF     		nop
 1119 003c 0C37     		adds	r7, r7, #12
 1120              		.cfi_def_cfa_offset 4
 1121 003e BD46     		mov	sp, r7
 1122              		.cfi_def_cfa_register 13
 1123              		@ sp needed
 1124 0040 5DF8047B 		ldr	r7, [sp], #4
 1125              		.cfi_restore 7
 1126              		.cfi_def_cfa_offset 0
 1127 0044 7047     		bx	lr
 1128              		.cfi_endproc
ARM GAS  /tmp/ccrysqwW.s 			page 39


 1129              	.LFE7365:
 1131              		.section	.text.copy_pd_box,"ax",%progbits
 1132              		.align	1
 1133              		.syntax unified
 1134              		.thumb
 1135              		.thumb_func
 1137              	copy_pd_box:
 1138              	.LFB7366:
 387:Src/app.c     **** 
 388:Src/app.c     **** static void copy_pd_box(pd_pp_box_t *dst, pd_pp_box_t *src)
 389:Src/app.c     **** {
 1139              		.loc 1 389 1
 1140              		.cfi_startproc
 1141              		@ args = 0, pretend = 0, frame = 16
 1142              		@ frame_needed = 1, uses_anonymous_args = 0
 1143              		@ link register save eliminated.
 1144 0000 80B4     		push	{r7}
 1145              		.cfi_def_cfa_offset 4
 1146              		.cfi_offset 7, -4
 1147 0002 85B0     		sub	sp, sp, #20
 1148              		.cfi_def_cfa_offset 24
 1149 0004 00AF     		add	r7, sp, #0
 1150              		.cfi_def_cfa_register 7
 1151 0006 7860     		str	r0, [r7, #4]
 1152 0008 3960     		str	r1, [r7]
 390:Src/app.c     ****   int i;
 391:Src/app.c     **** 
 392:Src/app.c     ****   dst->prob = src->prob;
 1153              		.loc 1 392 18
 1154 000a 3B68     		ldr	r3, [r7]
 1155 000c 1A68     		ldr	r2, [r3]	@ float
 1156              		.loc 1 392 13
 1157 000e 7B68     		ldr	r3, [r7, #4]
 1158 0010 1A60     		str	r2, [r3]	@ float
 393:Src/app.c     ****   dst->x_center = src->x_center;
 1159              		.loc 1 393 22
 1160 0012 3B68     		ldr	r3, [r7]
 1161 0014 5A68     		ldr	r2, [r3, #4]	@ float
 1162              		.loc 1 393 17
 1163 0016 7B68     		ldr	r3, [r7, #4]
 1164 0018 5A60     		str	r2, [r3, #4]	@ float
 394:Src/app.c     ****   dst->y_center = src->y_center;
 1165              		.loc 1 394 22
 1166 001a 3B68     		ldr	r3, [r7]
 1167 001c 9A68     		ldr	r2, [r3, #8]	@ float
 1168              		.loc 1 394 17
 1169 001e 7B68     		ldr	r3, [r7, #4]
 1170 0020 9A60     		str	r2, [r3, #8]	@ float
 395:Src/app.c     ****   dst->width = src->width;
 1171              		.loc 1 395 19
 1172 0022 3B68     		ldr	r3, [r7]
 1173 0024 DA68     		ldr	r2, [r3, #12]	@ float
 1174              		.loc 1 395 14
 1175 0026 7B68     		ldr	r3, [r7, #4]
 1176 0028 DA60     		str	r2, [r3, #12]	@ float
 396:Src/app.c     ****   dst->height = src->height;
 1177              		.loc 1 396 20
ARM GAS  /tmp/ccrysqwW.s 			page 40


 1178 002a 3B68     		ldr	r3, [r7]
 1179 002c 1A69     		ldr	r2, [r3, #16]	@ float
 1180              		.loc 1 396 15
 1181 002e 7B68     		ldr	r3, [r7, #4]
 1182 0030 1A61     		str	r2, [r3, #16]	@ float
 397:Src/app.c     ****   for (i = 0 ; i < AI_PD_MODEL_PP_NB_KEYPOINTS; i++)
 1183              		.loc 1 397 10
 1184 0032 0023     		movs	r3, #0
 1185 0034 FB60     		str	r3, [r7, #12]
 1186              		.loc 1 397 3
 1187 0036 11E0     		b	.L37
 1188              	.L38:
 398:Src/app.c     ****     dst->pKps[i] = src->pKps[i];
 1189              		.loc 1 398 23
 1190 0038 3B68     		ldr	r3, [r7]
 1191 003a 5A69     		ldr	r2, [r3, #20]
 1192              		.loc 1 398 29
 1193 003c FB68     		ldr	r3, [r7, #12]
 1194 003e DB00     		lsls	r3, r3, #3
 1195 0040 D118     		adds	r1, r2, r3
 1196              		.loc 1 398 8
 1197 0042 7B68     		ldr	r3, [r7, #4]
 1198 0044 5A69     		ldr	r2, [r3, #20]
 1199              		.loc 1 398 14
 1200 0046 FB68     		ldr	r3, [r7, #12]
 1201 0048 DB00     		lsls	r3, r3, #3
 1202 004a 1344     		add	r3, r3, r2
 1203              		.loc 1 398 18
 1204 004c 0A46     		mov	r2, r1
 1205 004e 92E80300 		ldm	r2, {r0, r1}
 1206 0052 83E80300 		stm	r3, {r0, r1}
 397:Src/app.c     ****   for (i = 0 ; i < AI_PD_MODEL_PP_NB_KEYPOINTS; i++)
 1207              		.loc 1 397 50 discriminator 3
 1208 0056 FB68     		ldr	r3, [r7, #12]
 1209 0058 0133     		adds	r3, r3, #1
 1210 005a FB60     		str	r3, [r7, #12]
 1211              	.L37:
 397:Src/app.c     ****   for (i = 0 ; i < AI_PD_MODEL_PP_NB_KEYPOINTS; i++)
 1212              		.loc 1 397 18 discriminator 1
 1213 005c FB68     		ldr	r3, [r7, #12]
 1214 005e 062B     		cmp	r3, #6
 1215 0060 EADD     		ble	.L38
 399:Src/app.c     **** }
 1216              		.loc 1 399 1
 1217 0062 00BF     		nop
 1218 0064 00BF     		nop
 1219 0066 1437     		adds	r7, r7, #20
 1220              		.cfi_def_cfa_offset 4
 1221 0068 BD46     		mov	sp, r7
 1222              		.cfi_def_cfa_register 13
 1223              		@ sp needed
 1224 006a 5DF8047B 		ldr	r7, [sp], #4
 1225              		.cfi_restore 7
 1226              		.cfi_def_cfa_offset 0
 1227 006e 7047     		bx	lr
 1228              		.cfi_endproc
 1229              	.LFE7366:
ARM GAS  /tmp/ccrysqwW.s 			page 41


 1231              		.section	.rodata
 1232 001e 0000     		.align	2
 1233              	.LC6:
 1234 0020 72657420 		.ascii	"ret == BSP_ERROR_NONE\000"
 1234      3D3D2042 
 1234      53505F45 
 1234      52524F52 
 1234      5F4E4F4E 
 1235 0036 0000     		.align	2
 1236              	.LC7:
 1237 0038 5372632F 		.ascii	"Src/app.c\000"
 1237      6170702E 
 1237      6300
 1238              		.section	.text.button_init,"ax",%progbits
 1239              		.align	1
 1240              		.syntax unified
 1241              		.thumb
 1242              		.thumb_func
 1244              	button_init:
 1245              	.LFB7367:
 400:Src/app.c     **** 
 401:Src/app.c     **** static void button_init(button_t *b, Button_TypeDef id, void (*on_click_handler)(void *), void *cb_
 402:Src/app.c     **** {
 1246              		.loc 1 402 1
 1247              		.cfi_startproc
 1248              		@ args = 0, pretend = 0, frame = 24
 1249              		@ frame_needed = 1, uses_anonymous_args = 0
 1250 0000 80B5     		push	{r7, lr}
 1251              		.cfi_def_cfa_offset 8
 1252              		.cfi_offset 7, -8
 1253              		.cfi_offset 14, -4
 1254 0002 86B0     		sub	sp, sp, #24
 1255              		.cfi_def_cfa_offset 32
 1256 0004 00AF     		add	r7, sp, #0
 1257              		.cfi_def_cfa_register 7
 1258 0006 F860     		str	r0, [r7, #12]
 1259 0008 7A60     		str	r2, [r7, #4]
 1260 000a 3B60     		str	r3, [r7]
 1261 000c 0B46     		mov	r3, r1
 1262 000e FB72     		strb	r3, [r7, #11]
 403:Src/app.c     ****   int ret;
 404:Src/app.c     **** 
 405:Src/app.c     ****   ret = BSP_PB_Init(id, BUTTON_MODE_GPIO);
 1263              		.loc 1 405 9
 1264 0010 FB7A     		ldrb	r3, [r7, #11]	@ zero_extendqisi2
 1265 0012 0021     		movs	r1, #0
 1266 0014 1846     		mov	r0, r3
 1267 0016 FFF7FEFF 		bl	BSP_PB_Init
 1268 001a 7861     		str	r0, [r7, #20]
 406:Src/app.c     ****   assert(ret == BSP_ERROR_NONE);
 1269              		.loc 1 406 3
 1270 001c 7B69     		ldr	r3, [r7, #20]
 1271 001e 002B     		cmp	r3, #0
 1272 0020 06D0     		beq	.L40
 1273              		.loc 1 406 3 is_stmt 0 discriminator 1
 1274 0022 0B4B     		ldr	r3, .L41
 1275 0024 0B4A     		ldr	r2, .L41+4
ARM GAS  /tmp/ccrysqwW.s 			page 42


 1276 0026 4FF4CB71 		mov	r1, #406
 1277 002a 0B48     		ldr	r0, .L41+8
 1278 002c FFF7FEFF 		bl	__assert_func
 1279              	.L40:
 407:Src/app.c     **** 
 408:Src/app.c     ****   b->button_id = id;
 1280              		.loc 1 408 16 is_stmt 1
 1281 0030 FB68     		ldr	r3, [r7, #12]
 1282 0032 FA7A     		ldrb	r2, [r7, #11]
 1283 0034 1A70     		strb	r2, [r3]
 409:Src/app.c     ****   b->on_click_handler = on_click_handler;
 1284              		.loc 1 409 23
 1285 0036 FB68     		ldr	r3, [r7, #12]
 1286 0038 7A68     		ldr	r2, [r7, #4]
 1287 003a 9A60     		str	r2, [r3, #8]
 410:Src/app.c     ****   b->prev_state = 0;
 1288              		.loc 1 410 17
 1289 003c FB68     		ldr	r3, [r7, #12]
 1290 003e 0022     		movs	r2, #0
 1291 0040 5A60     		str	r2, [r3, #4]
 411:Src/app.c     ****   b->cb_args = cb_args;
 1292              		.loc 1 411 14
 1293 0042 FB68     		ldr	r3, [r7, #12]
 1294 0044 3A68     		ldr	r2, [r7]
 1295 0046 DA60     		str	r2, [r3, #12]
 412:Src/app.c     **** }
 1296              		.loc 1 412 1
 1297 0048 00BF     		nop
 1298 004a 1837     		adds	r7, r7, #24
 1299              		.cfi_def_cfa_offset 8
 1300 004c BD46     		mov	sp, r7
 1301              		.cfi_def_cfa_register 13
 1302              		@ sp needed
 1303 004e 80BD     		pop	{r7, pc}
 1304              	.L42:
 1305              		.align	2
 1306              	.L41:
 1307 0050 20000000 		.word	.LC6
 1308 0054 00000000 		.word	__func__.25
 1309 0058 38000000 		.word	.LC7
 1310              		.cfi_endproc
 1311              	.LFE7367:
 1313              		.section	.text.button_process,"ax",%progbits
 1314              		.align	1
 1315              		.syntax unified
 1316              		.thumb
 1317              		.thumb_func
 1319              	button_process:
 1320              	.LFB7368:
 413:Src/app.c     **** 
 414:Src/app.c     **** static void button_process(button_t *b)
 415:Src/app.c     **** {
 1321              		.loc 1 415 1
 1322              		.cfi_startproc
 1323              		@ args = 0, pretend = 0, frame = 16
 1324              		@ frame_needed = 1, uses_anonymous_args = 0
 1325 0000 80B5     		push	{r7, lr}
ARM GAS  /tmp/ccrysqwW.s 			page 43


 1326              		.cfi_def_cfa_offset 8
 1327              		.cfi_offset 7, -8
 1328              		.cfi_offset 14, -4
 1329 0002 84B0     		sub	sp, sp, #16
 1330              		.cfi_def_cfa_offset 24
 1331 0004 00AF     		add	r7, sp, #0
 1332              		.cfi_def_cfa_register 7
 1333 0006 7860     		str	r0, [r7, #4]
 416:Src/app.c     ****   int state = BSP_PB_GetState(b->button_id);
 1334              		.loc 1 416 15
 1335 0008 7B68     		ldr	r3, [r7, #4]
 1336 000a 1B78     		ldrb	r3, [r3]	@ zero_extendqisi2
 1337 000c 1846     		mov	r0, r3
 1338 000e FFF7FEFF 		bl	BSP_PB_GetState
 1339 0012 0346     		mov	r3, r0
 1340              		.loc 1 416 7 discriminator 1
 1341 0014 FB60     		str	r3, [r7, #12]
 417:Src/app.c     **** 
 418:Src/app.c     ****   if (state != b->prev_state && state && b->on_click_handler)
 1342              		.loc 1 418 17
 1343 0016 7B68     		ldr	r3, [r7, #4]
 1344 0018 5B68     		ldr	r3, [r3, #4]
 1345              		.loc 1 418 6
 1346 001a FA68     		ldr	r2, [r7, #12]
 1347 001c 9A42     		cmp	r2, r3
 1348 001e 0CD0     		beq	.L44
 1349              		.loc 1 418 30 discriminator 1
 1350 0020 FB68     		ldr	r3, [r7, #12]
 1351 0022 002B     		cmp	r3, #0
 1352 0024 09D0     		beq	.L44
 1353              		.loc 1 418 43 discriminator 2
 1354 0026 7B68     		ldr	r3, [r7, #4]
 1355 0028 9B68     		ldr	r3, [r3, #8]
 1356              		.loc 1 418 39 discriminator 2
 1357 002a 002B     		cmp	r3, #0
 1358 002c 05D0     		beq	.L44
 419:Src/app.c     ****     b->on_click_handler(b->cb_args);
 1359              		.loc 1 419 6
 1360 002e 7B68     		ldr	r3, [r7, #4]
 1361 0030 9B68     		ldr	r3, [r3, #8]
 1362              		.loc 1 419 5
 1363 0032 7A68     		ldr	r2, [r7, #4]
 1364 0034 D268     		ldr	r2, [r2, #12]
 1365 0036 1046     		mov	r0, r2
 1366 0038 9847     		blx	r3
 1367              	.LVL0:
 1368              	.L44:
 420:Src/app.c     **** 
 421:Src/app.c     ****   b->prev_state = state;
 1369              		.loc 1 421 17
 1370 003a 7B68     		ldr	r3, [r7, #4]
 1371 003c FA68     		ldr	r2, [r7, #12]
 1372 003e 5A60     		str	r2, [r3, #4]
 422:Src/app.c     **** }
 1373              		.loc 1 422 1
 1374 0040 00BF     		nop
 1375 0042 1037     		adds	r7, r7, #16
ARM GAS  /tmp/ccrysqwW.s 			page 44


 1376              		.cfi_def_cfa_offset 8
 1377 0044 BD46     		mov	sp, r7
 1378              		.cfi_def_cfa_register 13
 1379              		@ sp needed
 1380 0046 80BD     		pop	{r7, pc}
 1381              		.cfi_endproc
 1382              	.LFE7368:
 1384              		.section	.text.cpuload_init,"ax",%progbits
 1385              		.align	1
 1386              		.syntax unified
 1387              		.thumb
 1388              		.thumb_func
 1390              	cpuload_init:
 1391              	.LFB7369:
 423:Src/app.c     **** 
 424:Src/app.c     **** static void cpuload_init(cpuload_info_t *cpu_load)
 425:Src/app.c     **** {
 1392              		.loc 1 425 1
 1393              		.cfi_startproc
 1394              		@ args = 0, pretend = 0, frame = 8
 1395              		@ frame_needed = 1, uses_anonymous_args = 0
 1396 0000 80B5     		push	{r7, lr}
 1397              		.cfi_def_cfa_offset 8
 1398              		.cfi_offset 7, -8
 1399              		.cfi_offset 14, -4
 1400 0002 82B0     		sub	sp, sp, #8
 1401              		.cfi_def_cfa_offset 16
 1402 0004 00AF     		add	r7, sp, #0
 1403              		.cfi_def_cfa_register 7
 1404 0006 7860     		str	r0, [r7, #4]
 426:Src/app.c     ****   memset(cpu_load, 0, sizeof(cpuload_info_t));
 1405              		.loc 1 426 3
 1406 0008 E022     		movs	r2, #224
 1407 000a 0021     		movs	r1, #0
 1408 000c 7868     		ldr	r0, [r7, #4]
 1409 000e FFF7FEFF 		bl	memset
 427:Src/app.c     **** }
 1410              		.loc 1 427 1
 1411 0012 00BF     		nop
 1412 0014 0837     		adds	r7, r7, #8
 1413              		.cfi_def_cfa_offset 8
 1414 0016 BD46     		mov	sp, r7
 1415              		.cfi_def_cfa_register 13
 1416              		@ sp needed
 1417 0018 80BD     		pop	{r7, pc}
 1418              		.cfi_endproc
 1419              	.LFE7369:
 1421              		.section	.text.cpuload_update,"ax",%progbits
 1422              		.align	1
 1423              		.syntax unified
 1424              		.thumb
 1425              		.thumb_func
 1427              	cpuload_update:
 1428              	.LFB7370:
 428:Src/app.c     **** 
 429:Src/app.c     **** static void cpuload_update(cpuload_info_t *cpu_load)
 430:Src/app.c     **** {
ARM GAS  /tmp/ccrysqwW.s 			page 45


 1429              		.loc 1 430 1
 1430              		.cfi_startproc
 1431              		@ args = 0, pretend = 0, frame = 24
 1432              		@ frame_needed = 1, uses_anonymous_args = 0
 1433 0000 2DE9B04F 		push	{r4, r5, r7, r8, r9, r10, fp, lr}
 1434              		.cfi_def_cfa_offset 32
 1435              		.cfi_offset 4, -32
 1436              		.cfi_offset 5, -28
 1437              		.cfi_offset 7, -24
 1438              		.cfi_offset 8, -20
 1439              		.cfi_offset 9, -16
 1440              		.cfi_offset 10, -12
 1441              		.cfi_offset 11, -8
 1442              		.cfi_offset 14, -4
 1443 0004 86B0     		sub	sp, sp, #24
 1444              		.cfi_def_cfa_offset 56
 1445 0006 00AF     		add	r7, sp, #0
 1446              		.cfi_def_cfa_register 7
 1447 0008 F860     		str	r0, [r7, #12]
 431:Src/app.c     ****   int i;
 432:Src/app.c     **** 
 433:Src/app.c     ****   cpu_load->history[1] = cpu_load->history[0];
 1448              		.loc 1 433 24
 1449 000a FA68     		ldr	r2, [r7, #12]
 1450 000c FB68     		ldr	r3, [r7, #12]
 1451 000e 02F13804 		add	r4, r2, #56
 1452 0012 03F12005 		add	r5, r3, #32
 1453 0016 0FCD     		ldmia	r5!, {r0, r1, r2, r3}
 1454 0018 0FC4     		stmia	r4!, {r0, r1, r2, r3}
 1455 001a 95E80300 		ldm	r5, {r0, r1}
 1456 001e 84E80300 		stm	r4, {r0, r1}
 434:Src/app.c     ****   cpu_load->history[0].total = portGET_RUN_TIME_COUNTER_VALUE();
 1457              		.loc 1 434 32
 1458 0022 FFF7FEFF 		bl	TIM4_Get_Value
 1459 0026 0346     		mov	r3, r0
 1460              		.loc 1 434 32 is_stmt 0 discriminator 1
 1461 0028 0022     		movs	r2, #0
 1462 002a 3B60     		str	r3, [r7]
 1463 002c 7A60     		str	r2, [r7, #4]
 1464              		.loc 1 434 30 is_stmt 1 discriminator 1
 1465 002e FB68     		ldr	r3, [r7, #12]
 1466 0030 D7E90001 		ldrd	r0, [r7]
 1467 0034 C3E90801 		strd	r0, [r3, #32]
 435:Src/app.c     ****   cpu_load->history[0].thread = cpu_load->history[0].total - ulTaskGetIdleRunTimeCounter();
 1468              		.loc 1 435 53
 1469 0038 FB68     		ldr	r3, [r7, #12]
 1470 003a D3E90845 		ldrd	r4, [r3, #32]
 1471              		.loc 1 435 62
 1472 003e FFF7FEFF 		bl	ulTaskGetIdleRunTimeCounter
 1473 0042 0346     		mov	r3, r0
 1474              		.loc 1 435 62 is_stmt 0 discriminator 1
 1475 0044 0022     		movs	r2, #0
 1476 0046 9846     		mov	r8, r3
 1477 0048 9146     		mov	r9, r2
 1478              		.loc 1 435 60 is_stmt 1 discriminator 1
 1479 004a B4EB080A 		subs	r10, r4, r8
 1480 004e 65EB090B 		sbc	fp, r5, r9
ARM GAS  /tmp/ccrysqwW.s 			page 46


 1481              		.loc 1 435 31 discriminator 1
 1482 0052 FB68     		ldr	r3, [r7, #12]
 1483 0054 C3E90AAB 		strd	r10, [r3, #40]
 436:Src/app.c     ****   cpu_load->history[0].tick = HAL_GetTick();
 1484              		.loc 1 436 31
 1485 0058 FFF7FEFF 		bl	HAL_GetTick
 1486 005c 0246     		mov	r2, r0
 1487              		.loc 1 436 29 discriminator 1
 1488 005e FB68     		ldr	r3, [r7, #12]
 1489 0060 1A63     		str	r2, [r3, #48]
 437:Src/app.c     **** 
 438:Src/app.c     ****   if (cpu_load->history[1].tick - cpu_load->history[2].tick < 1000)
 1490              		.loc 1 438 27
 1491 0062 FB68     		ldr	r3, [r7, #12]
 1492 0064 9A6C     		ldr	r2, [r3, #72]
 1493              		.loc 1 438 55
 1494 0066 FB68     		ldr	r3, [r7, #12]
 1495 0068 1B6E     		ldr	r3, [r3, #96]
 1496              		.loc 1 438 33
 1497 006a D31A     		subs	r3, r2, r3
 1498              		.loc 1 438 6
 1499 006c B3F57A7F 		cmp	r3, #1000
 1500 0070 26D3     		bcc	.L51
 439:Src/app.c     ****     return ;
 440:Src/app.c     **** 
 441:Src/app.c     ****   for (i = 0; i < CPU_LOAD_HISTORY_DEPTH - 2; i++)
 1501              		.loc 1 441 10
 1502 0072 0023     		movs	r3, #0
 1503 0074 7B61     		str	r3, [r7, #20]
 1504              		.loc 1 441 3
 1505 0076 1FE0     		b	.L49
 1506              	.L50:
 442:Src/app.c     ****     cpu_load->history[CPU_LOAD_HISTORY_DEPTH - 1 - i] = cpu_load->history[CPU_LOAD_HISTORY_DEPTH - 
 1507              		.loc 1 442 106
 1508 0078 7B69     		ldr	r3, [r7, #20]
 1509 007a C3F10602 		rsb	r2, r3, #6
 1510              		.loc 1 442 50
 1511 007e 7B69     		ldr	r3, [r7, #20]
 1512 0080 C3F10701 		rsb	r1, r3, #7
 1513              		.loc 1 442 55
 1514 0084 F868     		ldr	r0, [r7, #12]
 1515 0086 0B46     		mov	r3, r1
 1516 0088 5B00     		lsls	r3, r3, #1
 1517 008a 0B44     		add	r3, r3, r1
 1518 008c DB00     		lsls	r3, r3, #3
 1519 008e 0344     		add	r3, r3, r0
 1520 0090 03F12000 		add	r0, r3, #32
 1521 0094 F968     		ldr	r1, [r7, #12]
 1522 0096 1346     		mov	r3, r2
 1523 0098 5B00     		lsls	r3, r3, #1
 1524 009a 1344     		add	r3, r3, r2
 1525 009c DB00     		lsls	r3, r3, #3
 1526 009e 0B44     		add	r3, r3, r1
 1527 00a0 2033     		adds	r3, r3, #32
 1528 00a2 0446     		mov	r4, r0
 1529 00a4 1D46     		mov	r5, r3
 1530 00a6 0FCD     		ldmia	r5!, {r0, r1, r2, r3}
ARM GAS  /tmp/ccrysqwW.s 			page 47


 1531 00a8 0FC4     		stmia	r4!, {r0, r1, r2, r3}
 1532 00aa 95E80300 		ldm	r5, {r0, r1}
 1533 00ae 84E80300 		stm	r4, {r0, r1}
 441:Src/app.c     ****     cpu_load->history[CPU_LOAD_HISTORY_DEPTH - 1 - i] = cpu_load->history[CPU_LOAD_HISTORY_DEPTH - 
 1534              		.loc 1 441 48 discriminator 3
 1535 00b2 7B69     		ldr	r3, [r7, #20]
 1536 00b4 0133     		adds	r3, r3, #1
 1537 00b6 7B61     		str	r3, [r7, #20]
 1538              	.L49:
 441:Src/app.c     ****     cpu_load->history[CPU_LOAD_HISTORY_DEPTH - 1 - i] = cpu_load->history[CPU_LOAD_HISTORY_DEPTH - 
 1539              		.loc 1 441 17 discriminator 1
 1540 00b8 7B69     		ldr	r3, [r7, #20]
 1541 00ba 052B     		cmp	r3, #5
 1542 00bc DCDD     		ble	.L50
 1543 00be 00E0     		b	.L46
 1544              	.L51:
 439:Src/app.c     ****     return ;
 1545              		.loc 1 439 5
 1546 00c0 00BF     		nop
 1547              	.L46:
 443:Src/app.c     **** }
 1548              		.loc 1 443 1
 1549 00c2 1837     		adds	r7, r7, #24
 1550              		.cfi_def_cfa_offset 32
 1551 00c4 BD46     		mov	sp, r7
 1552              		.cfi_def_cfa_register 13
 1553              		@ sp needed
 1554 00c6 BDE8B08F 		pop	{r4, r5, r7, r8, r9, r10, fp, pc}
 1555              		.cfi_endproc
 1556              	.LFE7370:
 1558              		.global	__aeabi_ul2d
 1559              		.section	.text.cpuload_get_info,"ax",%progbits
 1560              		.align	1
 1561              		.syntax unified
 1562              		.thumb
 1563              		.thumb_func
 1565              	cpuload_get_info:
 1566              	.LFB7371:
 444:Src/app.c     **** 
 445:Src/app.c     **** static void cpuload_get_info(cpuload_info_t *cpu_load, float *cpu_load_last, float *cpu_load_last_s
 446:Src/app.c     ****                              float *cpu_load_last_five_seconds)
 447:Src/app.c     **** {
 1567              		.loc 1 447 1
 1568              		.cfi_startproc
 1569              		@ args = 0, pretend = 0, frame = 40
 1570              		@ frame_needed = 1, uses_anonymous_args = 0
 1571 0000 2DE9F04F 		push	{r4, r5, r6, r7, r8, r9, r10, fp, lr}
 1572              		.cfi_def_cfa_offset 36
 1573              		.cfi_offset 4, -36
 1574              		.cfi_offset 5, -32
 1575              		.cfi_offset 6, -28
 1576              		.cfi_offset 7, -24
 1577              		.cfi_offset 8, -20
 1578              		.cfi_offset 9, -16
 1579              		.cfi_offset 10, -12
 1580              		.cfi_offset 11, -8
 1581              		.cfi_offset 14, -4
ARM GAS  /tmp/ccrysqwW.s 			page 48


 1582 0004 2DED028B 		vpush.64	{d8}
 1583              		.cfi_def_cfa_offset 44
 1584              		.cfi_offset 80, -44
 1585              		.cfi_offset 81, -40
 1586 0008 8BB0     		sub	sp, sp, #44
 1587              		.cfi_def_cfa_offset 88
 1588 000a 00AF     		add	r7, sp, #0
 1589              		.cfi_def_cfa_register 7
 1590 000c 7862     		str	r0, [r7, #36]
 1591 000e 3962     		str	r1, [r7, #32]
 1592 0010 FA61     		str	r2, [r7, #28]
 1593 0012 BB61     		str	r3, [r7, #24]
 448:Src/app.c     ****   if (cpu_load_last)
 1594              		.loc 1 448 6
 1595 0014 3B6A     		ldr	r3, [r7, #32]
 1596 0016 002B     		cmp	r3, #0
 1597 0018 2CD0     		beq	.L53
 449:Src/app.c     ****     *cpu_load_last = 100.0 * (cpu_load->history[0].thread - cpu_load->history[1].thread) /
 1598              		.loc 1 449 51
 1599 001a 7B6A     		ldr	r3, [r7, #36]
 1600 001c D3E90A01 		ldrd	r0, [r3, #40]
 1601              		.loc 1 449 81
 1602 0020 7B6A     		ldr	r3, [r7, #36]
 1603 0022 D3E91023 		ldrd	r2, [r3, #64]
 1604              		.loc 1 449 59
 1605 0026 861A     		subs	r6, r0, r2
 1606 0028 3E61     		str	r6, [r7, #16]
 1607 002a 61EB0303 		sbc	r3, r1, r3
 1608 002e 7B61     		str	r3, [r7, #20]
 1609              		.loc 1 449 28
 1610 0030 D7E90401 		ldrd	r0, [r7, #16]
 1611 0034 FFF7FEFF 		bl	__aeabi_ul2d
 1612 0038 41EC160B 		vmov	d6, r0, r1
 1613 003c 9FED407B 		vldr.64	d7, .L57
 1614 0040 26EE078B 		vmul.f64	d8, d6, d7
 450:Src/app.c     ****                      (cpu_load->history[0].total - cpu_load->history[1].total);
 1615              		.loc 1 450 43
 1616 0044 7B6A     		ldr	r3, [r7, #36]
 1617 0046 D3E90801 		ldrd	r0, [r3, #32]
 1618              		.loc 1 450 72
 1619 004a 7B6A     		ldr	r3, [r7, #36]
 1620 004c D3E90E23 		ldrd	r2, [r3, #56]
 1621              		.loc 1 450 50
 1622 0050 861A     		subs	r6, r0, r2
 1623 0052 BE60     		str	r6, [r7, #8]
 1624 0054 61EB0303 		sbc	r3, r1, r3
 1625 0058 FB60     		str	r3, [r7, #12]
 449:Src/app.c     ****     *cpu_load_last = 100.0 * (cpu_load->history[0].thread - cpu_load->history[1].thread) /
 1626              		.loc 1 449 90
 1627 005a D7E90201 		ldrd	r0, [r7, #8]
 1628 005e FFF7FEFF 		bl	__aeabi_ul2d
 1629 0062 41EC160B 		vmov	d6, r0, r1
 1630 0066 88EE067B 		vdiv.f64	d7, d8, d6
 1631 006a F7EEC77B 		vcvt.f32.f64	s15, d7
 449:Src/app.c     ****     *cpu_load_last = 100.0 * (cpu_load->history[0].thread - cpu_load->history[1].thread) /
 1632              		.loc 1 449 20
 1633 006e 3B6A     		ldr	r3, [r7, #32]
ARM GAS  /tmp/ccrysqwW.s 			page 49


 1634 0070 C3ED007A 		vstr.32	s15, [r3]
 1635              	.L53:
 451:Src/app.c     ****   if (cpu_load_last_second)
 1636              		.loc 1 451 6
 1637 0074 FB69     		ldr	r3, [r7, #28]
 1638 0076 002B     		cmp	r3, #0
 1639 0078 2BD0     		beq	.L54
 452:Src/app.c     ****     *cpu_load_last_second = 100.0 * (cpu_load->history[2].thread - cpu_load->history[3].thread) /
 1640              		.loc 1 452 58
 1641 007a 7B6A     		ldr	r3, [r7, #36]
 1642 007c D3E91601 		ldrd	r0, [r3, #88]
 1643              		.loc 1 452 88
 1644 0080 7B6A     		ldr	r3, [r7, #36]
 1645 0082 D3E91C23 		ldrd	r2, [r3, #112]
 1646              		.loc 1 452 66
 1647 0086 861A     		subs	r6, r0, r2
 1648 0088 3E60     		str	r6, [r7]
 1649 008a 61EB0303 		sbc	r3, r1, r3
 1650 008e 7B60     		str	r3, [r7, #4]
 1651              		.loc 1 452 35
 1652 0090 D7E90001 		ldrd	r0, [r7]
 1653 0094 FFF7FEFF 		bl	__aeabi_ul2d
 1654 0098 41EC160B 		vmov	d6, r0, r1
 1655 009c 9FED287B 		vldr.64	d7, .L57
 1656 00a0 26EE078B 		vmul.f64	d8, d6, d7
 453:Src/app.c     ****                      (cpu_load->history[2].total - cpu_load->history[3].total);
 1657              		.loc 1 453 43
 1658 00a4 7B6A     		ldr	r3, [r7, #36]
 1659 00a6 D3E91401 		ldrd	r0, [r3, #80]
 1660              		.loc 1 453 72
 1661 00aa 7B6A     		ldr	r3, [r7, #36]
 1662 00ac D3E91A23 		ldrd	r2, [r3, #104]
 1663              		.loc 1 453 50
 1664 00b0 B0EB020A 		subs	r10, r0, r2
 1665 00b4 61EB030B 		sbc	fp, r1, r3
 452:Src/app.c     ****     *cpu_load_last_second = 100.0 * (cpu_load->history[2].thread - cpu_load->history[3].thread) /
 1666              		.loc 1 452 97
 1667 00b8 5046     		mov	r0, r10
 1668 00ba 5946     		mov	r1, fp
 1669 00bc FFF7FEFF 		bl	__aeabi_ul2d
 1670 00c0 41EC160B 		vmov	d6, r0, r1
 1671 00c4 88EE067B 		vdiv.f64	d7, d8, d6
 1672 00c8 F7EEC77B 		vcvt.f32.f64	s15, d7
 452:Src/app.c     ****     *cpu_load_last_second = 100.0 * (cpu_load->history[2].thread - cpu_load->history[3].thread) /
 1673              		.loc 1 452 27
 1674 00cc FB69     		ldr	r3, [r7, #28]
 1675 00ce C3ED007A 		vstr.32	s15, [r3]
 1676              	.L54:
 454:Src/app.c     ****   if (cpu_load_last_five_seconds)
 1677              		.loc 1 454 6
 1678 00d2 BB69     		ldr	r3, [r7, #24]
 1679 00d4 002B     		cmp	r3, #0
 1680 00d6 29D0     		beq	.L56
 455:Src/app.c     ****     *cpu_load_last_five_seconds = 100.0 * (cpu_load->history[2].thread - cpu_load->history[7].threa
 1681              		.loc 1 455 64
 1682 00d8 7B6A     		ldr	r3, [r7, #36]
 1683 00da D3E91601 		ldrd	r0, [r3, #88]
ARM GAS  /tmp/ccrysqwW.s 			page 50


 1684              		.loc 1 455 94
 1685 00de 7B6A     		ldr	r3, [r7, #36]
 1686 00e0 D3E93423 		ldrd	r2, [r3, #208]
 1687              		.loc 1 455 72
 1688 00e4 B0EB0208 		subs	r8, r0, r2
 1689 00e8 61EB0309 		sbc	r9, r1, r3
 1690              		.loc 1 455 41
 1691 00ec 4046     		mov	r0, r8
 1692 00ee 4946     		mov	r1, r9
 1693 00f0 FFF7FEFF 		bl	__aeabi_ul2d
 1694 00f4 41EC160B 		vmov	d6, r0, r1
 1695 00f8 9FED117B 		vldr.64	d7, .L57
 1696 00fc 26EE078B 		vmul.f64	d8, d6, d7
 456:Src/app.c     ****                      (cpu_load->history[2].total - cpu_load->history[7].total);
 1697              		.loc 1 456 43
 1698 0100 7B6A     		ldr	r3, [r7, #36]
 1699 0102 D3E91401 		ldrd	r0, [r3, #80]
 1700              		.loc 1 456 72
 1701 0106 7B6A     		ldr	r3, [r7, #36]
 1702 0108 D3E93223 		ldrd	r2, [r3, #200]
 1703              		.loc 1 456 50
 1704 010c 841A     		subs	r4, r0, r2
 1705 010e 61EB0305 		sbc	r5, r1, r3
 455:Src/app.c     ****     *cpu_load_last_five_seconds = 100.0 * (cpu_load->history[2].thread - cpu_load->history[7].threa
 1706              		.loc 1 455 103
 1707 0112 2046     		mov	r0, r4
 1708 0114 2946     		mov	r1, r5
 1709 0116 FFF7FEFF 		bl	__aeabi_ul2d
 1710 011a 41EC160B 		vmov	d6, r0, r1
 1711 011e 88EE067B 		vdiv.f64	d7, d8, d6
 1712 0122 F7EEC77B 		vcvt.f32.f64	s15, d7
 455:Src/app.c     ****     *cpu_load_last_five_seconds = 100.0 * (cpu_load->history[2].thread - cpu_load->history[7].threa
 1713              		.loc 1 455 33
 1714 0126 BB69     		ldr	r3, [r7, #24]
 1715 0128 C3ED007A 		vstr.32	s15, [r3]
 1716              	.L56:
 457:Src/app.c     **** }
 1717              		.loc 1 457 1
 1718 012c 00BF     		nop
 1719 012e 2C37     		adds	r7, r7, #44
 1720              		.cfi_def_cfa_offset 44
 1721 0130 BD46     		mov	sp, r7
 1722              		.cfi_def_cfa_register 13
 1723              		@ sp needed
 1724 0132 BDEC028B 		vldm	sp!, {d8}
 1725              		.cfi_restore 80
 1726              		.cfi_restore 81
 1727              		.cfi_def_cfa_offset 36
 1728 0136 BDE8F08F 		pop	{r4, r5, r6, r7, r8, r9, r10, fp, pc}
 1729              	.L58:
 1730 013a 00BFAFF3 		.align	3
 1730      0080
 1731              	.L57:
 1732 0140 00000000 		.word	0
 1733 0144 00005940 		.word	1079574528
 1734              		.cfi_endproc
 1735              	.LFE7371:
ARM GAS  /tmp/ccrysqwW.s 			page 51


 1737              		.section	.rodata
 1738 0042 0000     		.align	2
 1739              	.LC8:
 1740 0044 62756666 		.ascii	"buffers[i]\000"
 1740      6572735B 
 1740      695D00
 1741              		.section	.text.bqueue_init,"ax",%progbits
 1742              		.align	1
 1743              		.syntax unified
 1744              		.thumb
 1745              		.thumb_func
 1747              	bqueue_init:
 1748              	.LFB7372:
 458:Src/app.c     **** 
 459:Src/app.c     **** static int bqueue_init(bqueue_t *bq, int buffer_nb, uint8_t **buffers)
 460:Src/app.c     **** {
 1749              		.loc 1 460 1
 1750              		.cfi_startproc
 1751              		@ args = 0, pretend = 0, frame = 24
 1752              		@ frame_needed = 1, uses_anonymous_args = 0
 1753 0000 80B5     		push	{r7, lr}
 1754              		.cfi_def_cfa_offset 8
 1755              		.cfi_offset 7, -8
 1756              		.cfi_offset 14, -4
 1757 0002 86B0     		sub	sp, sp, #24
 1758              		.cfi_def_cfa_offset 32
 1759 0004 00AF     		add	r7, sp, #0
 1760              		.cfi_def_cfa_register 7
 1761 0006 F860     		str	r0, [r7, #12]
 1762 0008 B960     		str	r1, [r7, #8]
 1763 000a 7A60     		str	r2, [r7, #4]
 461:Src/app.c     ****   int i;
 462:Src/app.c     **** 
 463:Src/app.c     ****   if (buffer_nb > BQUEUE_MAX_BUFFERS)
 1764              		.loc 1 463 6
 1765 000c BB68     		ldr	r3, [r7, #8]
 1766 000e 022B     		cmp	r3, #2
 1767 0010 02DD     		ble	.L60
 464:Src/app.c     ****     return -1;
 1768              		.loc 1 464 12
 1769 0012 4FF0FF33 		mov	r3, #-1
 1770 0016 56E0     		b	.L61
 1771              	.L60:
 465:Src/app.c     **** 
 466:Src/app.c     ****   bq->free = xSemaphoreCreateCountingStatic(buffer_nb, buffer_nb, &bq->free_buffer);
 1772              		.loc 1 466 14
 1773 0018 B868     		ldr	r0, [r7, #8]
 1774 001a B968     		ldr	r1, [r7, #8]
 1775 001c FB68     		ldr	r3, [r7, #12]
 1776 001e 0433     		adds	r3, r3, #4
 1777 0020 1A46     		mov	r2, r3
 1778 0022 FFF7FEFF 		bl	xQueueCreateCountingSemaphoreStatic
 1779 0026 0246     		mov	r2, r0
 1780              		.loc 1 466 12 discriminator 1
 1781 0028 FB68     		ldr	r3, [r7, #12]
 1782 002a 1A60     		str	r2, [r3]
 467:Src/app.c     ****   if (!bq->free)
ARM GAS  /tmp/ccrysqwW.s 			page 52


 1783              		.loc 1 467 10
 1784 002c FB68     		ldr	r3, [r7, #12]
 1785 002e 1B68     		ldr	r3, [r3]
 1786              		.loc 1 467 6
 1787 0030 002B     		cmp	r3, #0
 1788 0032 45D0     		beq	.L70
 468:Src/app.c     ****     goto free_sem_error;
 469:Src/app.c     ****   bq->ready = xSemaphoreCreateCountingStatic(buffer_nb, 0, &bq->ready_buffer);
 1789              		.loc 1 469 15
 1790 0034 B868     		ldr	r0, [r7, #8]
 1791 0036 FB68     		ldr	r3, [r7, #12]
 1792 0038 5833     		adds	r3, r3, #88
 1793 003a 1A46     		mov	r2, r3
 1794 003c 0021     		movs	r1, #0
 1795 003e FFF7FEFF 		bl	xQueueCreateCountingSemaphoreStatic
 1796 0042 0246     		mov	r2, r0
 1797              		.loc 1 469 13 discriminator 1
 1798 0044 FB68     		ldr	r3, [r7, #12]
 1799 0046 5A65     		str	r2, [r3, #84]
 470:Src/app.c     ****   if (!bq->ready)
 1800              		.loc 1 470 10
 1801 0048 FB68     		ldr	r3, [r7, #12]
 1802 004a 5B6D     		ldr	r3, [r3, #84]
 1803              		.loc 1 470 6
 1804 004c 002B     		cmp	r3, #0
 1805 004e 30D0     		beq	.L71
 471:Src/app.c     ****     goto ready_sem_error;
 472:Src/app.c     **** 
 473:Src/app.c     ****   bq->buffer_nb = buffer_nb;
 1806              		.loc 1 473 17
 1807 0050 FB68     		ldr	r3, [r7, #12]
 1808 0052 BA68     		ldr	r2, [r7, #8]
 1809 0054 C3F8A820 		str	r2, [r3, #168]
 474:Src/app.c     ****   for (i = 0; i < buffer_nb; i++) {
 1810              		.loc 1 474 10
 1811 0058 0023     		movs	r3, #0
 1812 005a 7B61     		str	r3, [r7, #20]
 1813              		.loc 1 474 3
 1814 005c 1BE0     		b	.L66
 1815              	.L68:
 475:Src/app.c     ****     assert(buffers[i]);
 1816              		.loc 1 475 5
 1817 005e 7B69     		ldr	r3, [r7, #20]
 1818 0060 9B00     		lsls	r3, r3, #2
 1819 0062 7A68     		ldr	r2, [r7, #4]
 1820 0064 1344     		add	r3, r3, r2
 1821 0066 1B68     		ldr	r3, [r3]
 1822 0068 002B     		cmp	r3, #0
 1823 006a 06D1     		bne	.L67
 1824              		.loc 1 475 5 is_stmt 0 discriminator 1
 1825 006c 184B     		ldr	r3, .L72
 1826 006e 194A     		ldr	r2, .L72+4
 1827 0070 40F2DB11 		movw	r1, #475
 1828 0074 1848     		ldr	r0, .L72+8
 1829 0076 FFF7FEFF 		bl	__assert_func
 1830              	.L67:
 476:Src/app.c     ****     bq->buffers[i] = buffers[i];
ARM GAS  /tmp/ccrysqwW.s 			page 53


 1831              		.loc 1 476 29 is_stmt 1
 1832 007a 7B69     		ldr	r3, [r7, #20]
 1833 007c 9B00     		lsls	r3, r3, #2
 1834 007e 7A68     		ldr	r2, [r7, #4]
 1835 0080 1344     		add	r3, r3, r2
 1836 0082 1A68     		ldr	r2, [r3]
 1837              		.loc 1 476 20
 1838 0084 F968     		ldr	r1, [r7, #12]
 1839 0086 7B69     		ldr	r3, [r7, #20]
 1840 0088 2A33     		adds	r3, r3, #42
 1841 008a 9B00     		lsls	r3, r3, #2
 1842 008c 0B44     		add	r3, r3, r1
 1843 008e 5A60     		str	r2, [r3, #4]
 474:Src/app.c     ****   for (i = 0; i < buffer_nb; i++) {
 1844              		.loc 1 474 31 discriminator 2
 1845 0090 7B69     		ldr	r3, [r7, #20]
 1846 0092 0133     		adds	r3, r3, #1
 1847 0094 7B61     		str	r3, [r7, #20]
 1848              	.L66:
 474:Src/app.c     ****   for (i = 0; i < buffer_nb; i++) {
 1849              		.loc 1 474 17 discriminator 1
 1850 0096 7A69     		ldr	r2, [r7, #20]
 1851 0098 BB68     		ldr	r3, [r7, #8]
 1852 009a 9A42     		cmp	r2, r3
 1853 009c DFDB     		blt	.L68
 477:Src/app.c     ****   }
 478:Src/app.c     ****   bq->free_idx = 0;
 1854              		.loc 1 478 16
 1855 009e FB68     		ldr	r3, [r7, #12]
 1856 00a0 0022     		movs	r2, #0
 1857 00a2 C3F8B420 		str	r2, [r3, #180]
 479:Src/app.c     ****   bq->ready_idx = 0;
 1858              		.loc 1 479 17
 1859 00a6 FB68     		ldr	r3, [r7, #12]
 1860 00a8 0022     		movs	r2, #0
 1861 00aa C3F8B820 		str	r2, [r3, #184]
 480:Src/app.c     **** 
 481:Src/app.c     ****   return 0;
 1862              		.loc 1 481 10
 1863 00ae 0023     		movs	r3, #0
 1864 00b0 09E0     		b	.L61
 1865              	.L71:
 471:Src/app.c     **** 
 1866              		.loc 1 471 5
 1867 00b2 00BF     		nop
 1868              	.L65:
 482:Src/app.c     **** 
 483:Src/app.c     **** ready_sem_error:
 484:Src/app.c     ****   vSemaphoreDelete(bq->free);
 1869              		.loc 1 484 3
 1870 00b4 FB68     		ldr	r3, [r7, #12]
 1871 00b6 1B68     		ldr	r3, [r3]
 1872 00b8 1846     		mov	r0, r3
 1873 00ba FFF7FEFF 		bl	vQueueDelete
 1874 00be 00E0     		b	.L63
 1875              	.L70:
 468:Src/app.c     ****   bq->ready = xSemaphoreCreateCountingStatic(buffer_nb, 0, &bq->ready_buffer);
ARM GAS  /tmp/ccrysqwW.s 			page 54


 1876              		.loc 1 468 5
 1877 00c0 00BF     		nop
 1878              	.L63:
 485:Src/app.c     **** free_sem_error:
 486:Src/app.c     ****   return -1;
 1879              		.loc 1 486 10
 1880 00c2 4FF0FF33 		mov	r3, #-1
 1881              	.L61:
 487:Src/app.c     **** }
 1882              		.loc 1 487 1
 1883 00c6 1846     		mov	r0, r3
 1884 00c8 1837     		adds	r7, r7, #24
 1885              		.cfi_def_cfa_offset 8
 1886 00ca BD46     		mov	sp, r7
 1887              		.cfi_def_cfa_register 13
 1888              		@ sp needed
 1889 00cc 80BD     		pop	{r7, pc}
 1890              	.L73:
 1891 00ce 00BF     		.align	2
 1892              	.L72:
 1893 00d0 44000000 		.word	.LC8
 1894 00d4 00000000 		.word	__func__.24
 1895 00d8 38000000 		.word	.LC7
 1896              		.cfi_endproc
 1897              	.LFE7372:
 1899              		.section	.text.bqueue_get_free,"ax",%progbits
 1900              		.align	1
 1901              		.syntax unified
 1902              		.thumb
 1903              		.thumb_func
 1905              	bqueue_get_free:
 1906              	.LFB7373:
 488:Src/app.c     **** 
 489:Src/app.c     **** static uint8_t *bqueue_get_free(bqueue_t *bq, int is_blocking)
 490:Src/app.c     **** {
 1907              		.loc 1 490 1
 1908              		.cfi_startproc
 1909              		@ args = 0, pretend = 0, frame = 16
 1910              		@ frame_needed = 1, uses_anonymous_args = 0
 1911 0000 80B5     		push	{r7, lr}
 1912              		.cfi_def_cfa_offset 8
 1913              		.cfi_offset 7, -8
 1914              		.cfi_offset 14, -4
 1915 0002 84B0     		sub	sp, sp, #16
 1916              		.cfi_def_cfa_offset 24
 1917 0004 00AF     		add	r7, sp, #0
 1918              		.cfi_def_cfa_register 7
 1919 0006 7860     		str	r0, [r7, #4]
 1920 0008 3960     		str	r1, [r7]
 491:Src/app.c     ****   uint8_t *res;
 492:Src/app.c     ****   int ret;
 493:Src/app.c     **** 
 494:Src/app.c     ****   ret = xSemaphoreTake(bq->free, is_blocking ? portMAX_DELAY : 0);
 1921              		.loc 1 494 9
 1922 000a 7B68     		ldr	r3, [r7, #4]
 1923 000c 1A68     		ldr	r2, [r3]
 1924 000e 3B68     		ldr	r3, [r7]
ARM GAS  /tmp/ccrysqwW.s 			page 55


 1925 0010 002B     		cmp	r3, #0
 1926 0012 02D0     		beq	.L75
 1927              		.loc 1 494 9 is_stmt 0 discriminator 1
 1928 0014 4FF0FF33 		mov	r3, #-1
 1929 0018 00E0     		b	.L76
 1930              	.L75:
 1931              		.loc 1 494 9 discriminator 2
 1932 001a 0023     		movs	r3, #0
 1933              	.L76:
 1934              		.loc 1 494 9 discriminator 4
 1935 001c 1946     		mov	r1, r3
 1936 001e 1046     		mov	r0, r2
 1937 0020 FFF7FEFF 		bl	xQueueSemaphoreTake
 1938 0024 F860     		str	r0, [r7, #12]
 495:Src/app.c     ****   if (ret == pdFALSE)
 1939              		.loc 1 495 6 is_stmt 1
 1940 0026 FB68     		ldr	r3, [r7, #12]
 1941 0028 002B     		cmp	r3, #0
 1942 002a 01D1     		bne	.L77
 496:Src/app.c     ****     return NULL;
 1943              		.loc 1 496 12
 1944 002c 0023     		movs	r3, #0
 1945 002e 18E0     		b	.L78
 1946              	.L77:
 497:Src/app.c     **** 
 498:Src/app.c     ****   res = bq->buffers[bq->free_idx];
 1947              		.loc 1 498 23
 1948 0030 7B68     		ldr	r3, [r7, #4]
 1949 0032 D3F8B430 		ldr	r3, [r3, #180]
 1950              		.loc 1 498 7
 1951 0036 7A68     		ldr	r2, [r7, #4]
 1952 0038 2A33     		adds	r3, r3, #42
 1953 003a 9B00     		lsls	r3, r3, #2
 1954 003c 1344     		add	r3, r3, r2
 1955 003e 5B68     		ldr	r3, [r3, #4]
 1956 0040 BB60     		str	r3, [r7, #8]
 499:Src/app.c     ****   bq->free_idx = (bq->free_idx + 1) % bq->buffer_nb;
 1957              		.loc 1 499 21
 1958 0042 7B68     		ldr	r3, [r7, #4]
 1959 0044 D3F8B430 		ldr	r3, [r3, #180]
 1960              		.loc 1 499 32
 1961 0048 0133     		adds	r3, r3, #1
 1962              		.loc 1 499 41
 1963 004a 7A68     		ldr	r2, [r7, #4]
 1964 004c D2F8A820 		ldr	r2, [r2, #168]
 1965              		.loc 1 499 37
 1966 0050 93FBF2F1 		sdiv	r1, r3, r2
 1967 0054 01FB02F2 		mul	r2, r1, r2
 1968 0058 9A1A     		subs	r2, r3, r2
 1969              		.loc 1 499 16
 1970 005a 7B68     		ldr	r3, [r7, #4]
 1971 005c C3F8B420 		str	r2, [r3, #180]
 500:Src/app.c     **** 
 501:Src/app.c     ****   return res;
 1972              		.loc 1 501 10
 1973 0060 BB68     		ldr	r3, [r7, #8]
 1974              	.L78:
ARM GAS  /tmp/ccrysqwW.s 			page 56


 502:Src/app.c     **** }
 1975              		.loc 1 502 1
 1976 0062 1846     		mov	r0, r3
 1977 0064 1037     		adds	r7, r7, #16
 1978              		.cfi_def_cfa_offset 8
 1979 0066 BD46     		mov	sp, r7
 1980              		.cfi_def_cfa_register 13
 1981              		@ sp needed
 1982 0068 80BD     		pop	{r7, pc}
 1983              		.cfi_endproc
 1984              	.LFE7373:
 1986              		.section	.rodata
 1987 004f 00       		.align	2
 1988              	.LC9:
 1989 0050 72657420 		.ascii	"ret == pdTRUE\000"
 1989      3D3D2070 
 1989      64545255 
 1989      4500
 1990              		.section	.text.bqueue_put_free,"ax",%progbits
 1991              		.align	1
 1992              		.syntax unified
 1993              		.thumb
 1994              		.thumb_func
 1996              	bqueue_put_free:
 1997              	.LFB7374:
 503:Src/app.c     **** 
 504:Src/app.c     **** static void bqueue_put_free(bqueue_t *bq)
 505:Src/app.c     **** {
 1998              		.loc 1 505 1
 1999              		.cfi_startproc
 2000              		@ args = 0, pretend = 0, frame = 16
 2001              		@ frame_needed = 1, uses_anonymous_args = 0
 2002 0000 80B5     		push	{r7, lr}
 2003              		.cfi_def_cfa_offset 8
 2004              		.cfi_offset 7, -8
 2005              		.cfi_offset 14, -4
 2006 0002 84B0     		sub	sp, sp, #16
 2007              		.cfi_def_cfa_offset 24
 2008 0004 00AF     		add	r7, sp, #0
 2009              		.cfi_def_cfa_register 7
 2010 0006 7860     		str	r0, [r7, #4]
 506:Src/app.c     ****   int ret;
 507:Src/app.c     **** 
 508:Src/app.c     ****   ret = xSemaphoreGive(bq->free);
 2011              		.loc 1 508 9
 2012 0008 7B68     		ldr	r3, [r7, #4]
 2013 000a 1868     		ldr	r0, [r3]
 2014 000c 0023     		movs	r3, #0
 2015 000e 0022     		movs	r2, #0
 2016 0010 0021     		movs	r1, #0
 2017 0012 FFF7FEFF 		bl	xQueueGenericSend
 2018 0016 F860     		str	r0, [r7, #12]
 509:Src/app.c     ****   assert(ret == pdTRUE);
 2019              		.loc 1 509 3
 2020 0018 FB68     		ldr	r3, [r7, #12]
 2021 001a 012B     		cmp	r3, #1
 2022 001c 06D0     		beq	.L81
ARM GAS  /tmp/ccrysqwW.s 			page 57


 2023              		.loc 1 509 3 is_stmt 0 discriminator 1
 2024 001e 054B     		ldr	r3, .L82
 2025 0020 054A     		ldr	r2, .L82+4
 2026 0022 40F2FD11 		movw	r1, #509
 2027 0026 0548     		ldr	r0, .L82+8
 2028 0028 FFF7FEFF 		bl	__assert_func
 2029              	.L81:
 510:Src/app.c     **** }
 2030              		.loc 1 510 1 is_stmt 1
 2031 002c 00BF     		nop
 2032 002e 1037     		adds	r7, r7, #16
 2033              		.cfi_def_cfa_offset 8
 2034 0030 BD46     		mov	sp, r7
 2035              		.cfi_def_cfa_register 13
 2036              		@ sp needed
 2037 0032 80BD     		pop	{r7, pc}
 2038              	.L83:
 2039              		.align	2
 2040              	.L82:
 2041 0034 50000000 		.word	.LC9
 2042 0038 00000000 		.word	__func__.23
 2043 003c 38000000 		.word	.LC7
 2044              		.cfi_endproc
 2045              	.LFE7374:
 2047              		.section	.text.bqueue_get_ready,"ax",%progbits
 2048              		.align	1
 2049              		.syntax unified
 2050              		.thumb
 2051              		.thumb_func
 2053              	bqueue_get_ready:
 2054              	.LFB7375:
 511:Src/app.c     **** 
 512:Src/app.c     **** static uint8_t *bqueue_get_ready(bqueue_t *bq)
 513:Src/app.c     **** {
 2055              		.loc 1 513 1
 2056              		.cfi_startproc
 2057              		@ args = 0, pretend = 0, frame = 16
 2058              		@ frame_needed = 1, uses_anonymous_args = 0
 2059 0000 80B5     		push	{r7, lr}
 2060              		.cfi_def_cfa_offset 8
 2061              		.cfi_offset 7, -8
 2062              		.cfi_offset 14, -4
 2063 0002 84B0     		sub	sp, sp, #16
 2064              		.cfi_def_cfa_offset 24
 2065 0004 00AF     		add	r7, sp, #0
 2066              		.cfi_def_cfa_register 7
 2067 0006 7860     		str	r0, [r7, #4]
 514:Src/app.c     ****   uint8_t *res;
 515:Src/app.c     ****   int ret;
 516:Src/app.c     **** 
 517:Src/app.c     ****   ret = xSemaphoreTake(bq->ready, portMAX_DELAY);
 2068              		.loc 1 517 9
 2069 0008 7B68     		ldr	r3, [r7, #4]
 2070 000a 5B6D     		ldr	r3, [r3, #84]
 2071 000c 4FF0FF31 		mov	r1, #-1
 2072 0010 1846     		mov	r0, r3
 2073 0012 FFF7FEFF 		bl	xQueueSemaphoreTake
ARM GAS  /tmp/ccrysqwW.s 			page 58


 2074 0016 F860     		str	r0, [r7, #12]
 518:Src/app.c     ****   assert(ret == pdTRUE);
 2075              		.loc 1 518 3
 2076 0018 FB68     		ldr	r3, [r7, #12]
 2077 001a 012B     		cmp	r3, #1
 2078 001c 06D0     		beq	.L85
 2079              		.loc 1 518 3 is_stmt 0 discriminator 1
 2080 001e 124B     		ldr	r3, .L87
 2081 0020 124A     		ldr	r2, .L87+4
 2082 0022 40F20621 		movw	r1, #518
 2083 0026 1248     		ldr	r0, .L87+8
 2084 0028 FFF7FEFF 		bl	__assert_func
 2085              	.L85:
 519:Src/app.c     **** 
 520:Src/app.c     ****   res = bq->buffers[bq->ready_idx];
 2086              		.loc 1 520 23 is_stmt 1
 2087 002c 7B68     		ldr	r3, [r7, #4]
 2088 002e D3F8B830 		ldr	r3, [r3, #184]
 2089              		.loc 1 520 7
 2090 0032 7A68     		ldr	r2, [r7, #4]
 2091 0034 2A33     		adds	r3, r3, #42
 2092 0036 9B00     		lsls	r3, r3, #2
 2093 0038 1344     		add	r3, r3, r2
 2094 003a 5B68     		ldr	r3, [r3, #4]
 2095 003c BB60     		str	r3, [r7, #8]
 521:Src/app.c     ****   bq->ready_idx = (bq->ready_idx + 1) % bq->buffer_nb;
 2096              		.loc 1 521 22
 2097 003e 7B68     		ldr	r3, [r7, #4]
 2098 0040 D3F8B830 		ldr	r3, [r3, #184]
 2099              		.loc 1 521 34
 2100 0044 0133     		adds	r3, r3, #1
 2101              		.loc 1 521 43
 2102 0046 7A68     		ldr	r2, [r7, #4]
 2103 0048 D2F8A820 		ldr	r2, [r2, #168]
 2104              		.loc 1 521 39
 2105 004c 93FBF2F1 		sdiv	r1, r3, r2
 2106 0050 01FB02F2 		mul	r2, r1, r2
 2107 0054 9A1A     		subs	r2, r3, r2
 2108              		.loc 1 521 17
 2109 0056 7B68     		ldr	r3, [r7, #4]
 2110 0058 C3F8B820 		str	r2, [r3, #184]
 522:Src/app.c     **** 
 523:Src/app.c     ****   return res;
 2111              		.loc 1 523 10
 2112 005c BB68     		ldr	r3, [r7, #8]
 524:Src/app.c     **** }
 2113              		.loc 1 524 1
 2114 005e 1846     		mov	r0, r3
 2115 0060 1037     		adds	r7, r7, #16
 2116              		.cfi_def_cfa_offset 8
 2117 0062 BD46     		mov	sp, r7
 2118              		.cfi_def_cfa_register 13
 2119              		@ sp needed
 2120 0064 80BD     		pop	{r7, pc}
 2121              	.L88:
 2122 0066 00BF     		.align	2
 2123              	.L87:
ARM GAS  /tmp/ccrysqwW.s 			page 59


 2124 0068 50000000 		.word	.LC9
 2125 006c 00000000 		.word	__func__.22
 2126 0070 38000000 		.word	.LC7
 2127              		.cfi_endproc
 2128              	.LFE7375:
 2130              		.section	.text.bqueue_put_ready,"ax",%progbits
 2131              		.align	1
 2132              		.syntax unified
 2133              		.thumb
 2134              		.thumb_func
 2136              	bqueue_put_ready:
 2137              	.LFB7376:
 525:Src/app.c     **** 
 526:Src/app.c     **** static void bqueue_put_ready(bqueue_t *bq)
 527:Src/app.c     **** {
 2138              		.loc 1 527 1
 2139              		.cfi_startproc
 2140              		@ args = 0, pretend = 0, frame = 16
 2141              		@ frame_needed = 1, uses_anonymous_args = 0
 2142 0000 80B5     		push	{r7, lr}
 2143              		.cfi_def_cfa_offset 8
 2144              		.cfi_offset 7, -8
 2145              		.cfi_offset 14, -4
 2146 0002 84B0     		sub	sp, sp, #16
 2147              		.cfi_def_cfa_offset 24
 2148 0004 00AF     		add	r7, sp, #0
 2149              		.cfi_def_cfa_register 7
 2150 0006 7860     		str	r0, [r7, #4]
 528:Src/app.c     ****   BaseType_t xHigherPriorityTaskWoken = pdFALSE;
 2151              		.loc 1 528 14
 2152 0008 0023     		movs	r3, #0
 2153 000a BB60     		str	r3, [r7, #8]
 529:Src/app.c     ****   int ret;
 530:Src/app.c     **** 
 531:Src/app.c     ****   if (xPortIsInsideInterrupt()) {
 2154              		.loc 1 531 7
 2155 000c FFF7FEFF 		bl	xPortIsInsideInterrupt
 2156 0010 0346     		mov	r3, r0
 2157              		.loc 1 531 6 discriminator 1
 2158 0012 002B     		cmp	r3, #0
 2159 0014 1AD0     		beq	.L90
 532:Src/app.c     ****     ret = xSemaphoreGiveFromISR(bq->ready, &xHigherPriorityTaskWoken);
 2160              		.loc 1 532 11
 2161 0016 7B68     		ldr	r3, [r7, #4]
 2162 0018 5B6D     		ldr	r3, [r3, #84]
 2163 001a 07F10802 		add	r2, r7, #8
 2164 001e 1146     		mov	r1, r2
 2165 0020 1846     		mov	r0, r3
 2166 0022 FFF7FEFF 		bl	xQueueGiveFromISR
 2167 0026 F860     		str	r0, [r7, #12]
 533:Src/app.c     ****     assert(ret == pdTRUE);
 2168              		.loc 1 533 5
 2169 0028 FB68     		ldr	r3, [r7, #12]
 2170 002a 012B     		cmp	r3, #1
 2171 002c 06D0     		beq	.L91
 2172              		.loc 1 533 5 is_stmt 0 discriminator 1
 2173 002e 124B     		ldr	r3, .L94
ARM GAS  /tmp/ccrysqwW.s 			page 60


 2174 0030 124A     		ldr	r2, .L94+4
 2175 0032 40F21521 		movw	r1, #533
 2176 0036 1248     		ldr	r0, .L94+8
 2177 0038 FFF7FEFF 		bl	__assert_func
 2178              	.L91:
 534:Src/app.c     ****     portYIELD_FROM_ISR(xHigherPriorityTaskWoken);
 2179              		.loc 1 534 5 is_stmt 1
 2180 003c BB68     		ldr	r3, [r7, #8]
 2181 003e 002B     		cmp	r3, #0
 2182 0040 16D0     		beq	.L93
 2183              		.loc 1 534 5 is_stmt 0 discriminator 1
 2184 0042 104B     		ldr	r3, .L94+12
 2185 0044 4FF08052 		mov	r2, #268435456
 2186 0048 1A60     		str	r2, [r3]
 535:Src/app.c     ****   } else {
 536:Src/app.c     ****     ret = xSemaphoreGive(bq->ready);
 537:Src/app.c     ****     assert(ret == pdTRUE);
 538:Src/app.c     ****   }
 539:Src/app.c     **** }
 2187              		.loc 1 539 1 is_stmt 1
 2188 004a 11E0     		b	.L93
 2189              	.L90:
 536:Src/app.c     ****     assert(ret == pdTRUE);
 2190              		.loc 1 536 11
 2191 004c 7B68     		ldr	r3, [r7, #4]
 2192 004e 586D     		ldr	r0, [r3, #84]
 2193 0050 0023     		movs	r3, #0
 2194 0052 0022     		movs	r2, #0
 2195 0054 0021     		movs	r1, #0
 2196 0056 FFF7FEFF 		bl	xQueueGenericSend
 2197 005a F860     		str	r0, [r7, #12]
 537:Src/app.c     ****   }
 2198              		.loc 1 537 5
 2199 005c FB68     		ldr	r3, [r7, #12]
 2200 005e 012B     		cmp	r3, #1
 2201 0060 06D0     		beq	.L93
 537:Src/app.c     ****   }
 2202              		.loc 1 537 5 is_stmt 0 discriminator 1
 2203 0062 054B     		ldr	r3, .L94
 2204 0064 054A     		ldr	r2, .L94+4
 2205 0066 40F21921 		movw	r1, #537
 2206 006a 0548     		ldr	r0, .L94+8
 2207 006c FFF7FEFF 		bl	__assert_func
 2208              	.L93:
 2209              		.loc 1 539 1 is_stmt 1
 2210 0070 00BF     		nop
 2211 0072 1037     		adds	r7, r7, #16
 2212              		.cfi_def_cfa_offset 8
 2213 0074 BD46     		mov	sp, r7
 2214              		.cfi_def_cfa_register 13
 2215              		@ sp needed
 2216 0076 80BD     		pop	{r7, pc}
 2217              	.L95:
 2218              		.align	2
 2219              	.L94:
 2220 0078 50000000 		.word	.LC9
 2221 007c 00000000 		.word	__func__.21
ARM GAS  /tmp/ccrysqwW.s 			page 61


 2222 0080 38000000 		.word	.LC7
 2223 0084 04ED00E0 		.word	-536810236
 2224              		.cfi_endproc
 2225              	.LFE7376:
 2227              		.section	.rodata
 2228 005e 0000     		.align	2
 2229              	.LC10:
 2230 0060 72657420 		.ascii	"ret == 0\000"
 2230      3D3D2030 
 2230      00
 2231              		.section	.text.reload_bg_layer,"ax",%progbits
 2232              		.align	1
 2233              		.syntax unified
 2234              		.thumb
 2235              		.thumb_func
 2237              	reload_bg_layer:
 2238              	.LFB7377:
 540:Src/app.c     **** 
 541:Src/app.c     **** static void reload_bg_layer(int next_disp_idx)
 542:Src/app.c     **** {
 2239              		.loc 1 542 1
 2240              		.cfi_startproc
 2241              		@ args = 0, pretend = 0, frame = 16
 2242              		@ frame_needed = 1, uses_anonymous_args = 0
 2243 0000 80B5     		push	{r7, lr}
 2244              		.cfi_def_cfa_offset 8
 2245              		.cfi_offset 7, -8
 2246              		.cfi_offset 14, -4
 2247 0002 84B0     		sub	sp, sp, #16
 2248              		.cfi_def_cfa_offset 24
 2249 0004 00AF     		add	r7, sp, #0
 2250              		.cfi_def_cfa_register 7
 2251 0006 7860     		str	r0, [r7, #4]
 543:Src/app.c     ****   int ret;
 544:Src/app.c     **** 
 545:Src/app.c     ****   ret = SCRL_SetAddress_NoReload(lcd_bg_buffer[next_disp_idx], SCRL_LAYER_0);
 2252              		.loc 1 545 47
 2253 0008 7B68     		ldr	r3, [r7, #4]
 2254 000a 194A     		ldr	r2, .L101
 2255 000c 02FB03F3 		mul	r3, r2, r3
 2256 0010 184A     		ldr	r2, .L101+4
 2257 0012 1344     		add	r3, r3, r2
 2258              		.loc 1 545 9
 2259 0014 0021     		movs	r1, #0
 2260 0016 1846     		mov	r0, r3
 2261 0018 FFF7FEFF 		bl	SCRL_SetAddress_NoReload
 2262 001c F860     		str	r0, [r7, #12]
 546:Src/app.c     ****   assert(ret == 0);
 2263              		.loc 1 546 3
 2264 001e FB68     		ldr	r3, [r7, #12]
 2265 0020 002B     		cmp	r3, #0
 2266 0022 06D0     		beq	.L97
 2267              		.loc 1 546 3 is_stmt 0 discriminator 1
 2268 0024 144B     		ldr	r3, .L101+8
 2269 0026 154A     		ldr	r2, .L101+12
 2270 0028 40F22221 		movw	r1, #546
 2271 002c 1448     		ldr	r0, .L101+16
ARM GAS  /tmp/ccrysqwW.s 			page 62


 2272 002e FFF7FEFF 		bl	__assert_func
 2273              	.L97:
 547:Src/app.c     ****   ret = SCRL_ReloadLayer(SCRL_LAYER_0);
 2274              		.loc 1 547 9 is_stmt 1
 2275 0032 0020     		movs	r0, #0
 2276 0034 FFF7FEFF 		bl	SCRL_ReloadLayer
 2277 0038 F860     		str	r0, [r7, #12]
 548:Src/app.c     ****   assert(ret == 0);
 2278              		.loc 1 548 3
 2279 003a FB68     		ldr	r3, [r7, #12]
 2280 003c 002B     		cmp	r3, #0
 2281 003e 06D0     		beq	.L98
 2282              		.loc 1 548 3 is_stmt 0 discriminator 1
 2283 0040 0D4B     		ldr	r3, .L101+8
 2284 0042 0E4A     		ldr	r2, .L101+12
 2285 0044 4FF40971 		mov	r1, #548
 2286 0048 0D48     		ldr	r0, .L101+16
 2287 004a FFF7FEFF 		bl	__assert_func
 2288              	.L98:
 549:Src/app.c     **** 
 550:Src/app.c     ****   ret = SRCL_Update();
 2289              		.loc 1 550 9 is_stmt 1
 2290 004e FFF7FEFF 		bl	SRCL_Update
 2291 0052 F860     		str	r0, [r7, #12]
 551:Src/app.c     ****   assert(ret == 0);
 2292              		.loc 1 551 3
 2293 0054 FB68     		ldr	r3, [r7, #12]
 2294 0056 002B     		cmp	r3, #0
 2295 0058 06D0     		beq	.L100
 2296              		.loc 1 551 3 is_stmt 0 discriminator 1
 2297 005a 074B     		ldr	r3, .L101+8
 2298 005c 074A     		ldr	r2, .L101+12
 2299 005e 40F22721 		movw	r1, #551
 2300 0062 0748     		ldr	r0, .L101+16
 2301 0064 FFF7FEFF 		bl	__assert_func
 2302              	.L100:
 552:Src/app.c     **** }
 2303              		.loc 1 552 1 is_stmt 1
 2304 0068 00BF     		nop
 2305 006a 1037     		adds	r7, r7, #16
 2306              		.cfi_def_cfa_offset 8
 2307 006c BD46     		mov	sp, r7
 2308              		.cfi_def_cfa_register 13
 2309              		@ sp needed
 2310 006e 80BD     		pop	{r7, pc}
 2311              	.L102:
 2312              		.align	2
 2313              	.L101:
 2314 0070 00701700 		.word	1536000
 2315 0074 00000000 		.word	lcd_bg_buffer
 2316 0078 60000000 		.word	.LC10
 2317 007c 00000000 		.word	__func__.20
 2318 0080 38000000 		.word	.LC7
 2319              		.cfi_endproc
 2320              	.LFE7377:
 2322              		.section	.rodata
 2323 0069 000000   		.align	2
ARM GAS  /tmp/ccrysqwW.s 			page 63


 2324              	.LC11:
 2325 006c 72657420 		.ascii	"ret == HAL_OK\000"
 2325      3D3D2048 
 2325      414C5F4F 
 2325      4B00
 2326              		.section	.text.app_main_pipe_frame_event,"ax",%progbits
 2327              		.align	1
 2328              		.syntax unified
 2329              		.thumb
 2330              		.thumb_func
 2332              	app_main_pipe_frame_event:
 2333              	.LFB7378:
 553:Src/app.c     **** 
 554:Src/app.c     **** static void app_main_pipe_frame_event()
 555:Src/app.c     **** {
 2334              		.loc 1 555 1
 2335              		.cfi_startproc
 2336              		@ args = 0, pretend = 0, frame = 16
 2337              		@ frame_needed = 1, uses_anonymous_args = 0
 2338 0000 80B5     		push	{r7, lr}
 2339              		.cfi_def_cfa_offset 8
 2340              		.cfi_offset 7, -8
 2341              		.cfi_offset 14, -4
 2342 0002 84B0     		sub	sp, sp, #16
 2343              		.cfi_def_cfa_offset 24
 2344 0004 00AF     		add	r7, sp, #0
 2345              		.cfi_def_cfa_register 7
 556:Src/app.c     ****   int next_disp_idx = (lcd_bg_buffer_disp_idx + 1) % DISPLAY_BUFFER_NB;
 2346              		.loc 1 556 47
 2347 0006 204B     		ldr	r3, .L105
 2348 0008 1B68     		ldr	r3, [r3]
 2349 000a 0133     		adds	r3, r3, #1
 2350              		.loc 1 556 7
 2351 000c 5A42     		rsbs	r2, r3, #0
 2352 000e 03F00303 		and	r3, r3, #3
 2353 0012 02F00302 		and	r2, r2, #3
 2354 0016 53EA42B3 		csneg	r3, r3, r2, mi
 2355 001a FB60     		str	r3, [r7, #12]
 557:Src/app.c     ****   int next_capt_idx = (lcd_bg_buffer_capt_idx + 1) % DISPLAY_BUFFER_NB;
 2356              		.loc 1 557 47
 2357 001c 1B4B     		ldr	r3, .L105+4
 2358 001e 1B68     		ldr	r3, [r3]
 2359 0020 0133     		adds	r3, r3, #1
 2360              		.loc 1 557 7
 2361 0022 5A42     		rsbs	r2, r3, #0
 2362 0024 03F00303 		and	r3, r3, #3
 2363 0028 02F00302 		and	r2, r2, #3
 2364 002c 53EA42B3 		csneg	r3, r3, r2, mi
 2365 0030 BB60     		str	r3, [r7, #8]
 558:Src/app.c     ****   int ret;
 559:Src/app.c     **** 
 560:Src/app.c     ****   ret = HAL_DCMIPP_PIPE_SetMemoryAddress(CMW_CAMERA_GetDCMIPPHandle(), DCMIPP_PIPE1,
 2366              		.loc 1 560 9
 2367 0032 FFF7FEFF 		bl	CMW_CAMERA_GetDCMIPPHandle
 561:Src/app.c     ****                                          DCMIPP_MEMORY_ADDRESS_0, (uint32_t) lcd_bg_buffer[next_cap
 2368              		.loc 1 561 78
 2369 0036 BB68     		ldr	r3, [r7, #8]
ARM GAS  /tmp/ccrysqwW.s 			page 64


 2370 0038 154A     		ldr	r2, .L105+8
 2371 003a 02FB03F3 		mul	r3, r2, r3
 2372 003e 154A     		ldr	r2, .L105+12
 2373 0040 1344     		add	r3, r3, r2
 560:Src/app.c     ****                                          DCMIPP_MEMORY_ADDRESS_0, (uint32_t) lcd_bg_buffer[next_cap
 2374              		.loc 1 560 9
 2375 0042 0022     		movs	r2, #0
 2376 0044 0121     		movs	r1, #1
 2377 0046 FFF7FEFF 		bl	HAL_DCMIPP_PIPE_SetMemoryAddress
 2378 004a 0346     		mov	r3, r0
 560:Src/app.c     ****                                          DCMIPP_MEMORY_ADDRESS_0, (uint32_t) lcd_bg_buffer[next_cap
 2379              		.loc 1 560 7 discriminator 2
 2380 004c 7B60     		str	r3, [r7, #4]
 562:Src/app.c     ****   assert(ret == HAL_OK);
 2381              		.loc 1 562 3
 2382 004e 7B68     		ldr	r3, [r7, #4]
 2383 0050 002B     		cmp	r3, #0
 2384 0052 06D0     		beq	.L104
 2385              		.loc 1 562 3 is_stmt 0 discriminator 1
 2386 0054 104B     		ldr	r3, .L105+16
 2387 0056 114A     		ldr	r2, .L105+20
 2388 0058 40F23221 		movw	r1, #562
 2389 005c 1048     		ldr	r0, .L105+24
 2390 005e FFF7FEFF 		bl	__assert_func
 2391              	.L104:
 563:Src/app.c     **** 
 564:Src/app.c     ****   reload_bg_layer(next_disp_idx);
 2392              		.loc 1 564 3 is_stmt 1
 2393 0062 F868     		ldr	r0, [r7, #12]
 2394 0064 FFF7FEFF 		bl	reload_bg_layer
 565:Src/app.c     ****   lcd_bg_buffer_disp_idx = next_disp_idx;
 2395              		.loc 1 565 26
 2396 0068 074A     		ldr	r2, .L105
 2397 006a FB68     		ldr	r3, [r7, #12]
 2398 006c 1360     		str	r3, [r2]
 566:Src/app.c     ****   lcd_bg_buffer_capt_idx = next_capt_idx;
 2399              		.loc 1 566 26
 2400 006e 074A     		ldr	r2, .L105+4
 2401 0070 BB68     		ldr	r3, [r7, #8]
 2402 0072 1360     		str	r3, [r2]
 567:Src/app.c     **** 
 568:Src/app.c     ****   frame_event_nb++;
 2403              		.loc 1 568 17
 2404 0074 0B4B     		ldr	r3, .L105+28
 2405 0076 1B68     		ldr	r3, [r3]
 2406 0078 0133     		adds	r3, r3, #1
 2407 007a 0A4A     		ldr	r2, .L105+28
 2408 007c 1360     		str	r3, [r2]
 569:Src/app.c     **** }
 2409              		.loc 1 569 1
 2410 007e 00BF     		nop
 2411 0080 1037     		adds	r7, r7, #16
 2412              		.cfi_def_cfa_offset 8
 2413 0082 BD46     		mov	sp, r7
 2414              		.cfi_def_cfa_register 13
 2415              		@ sp needed
 2416 0084 80BD     		pop	{r7, pc}
ARM GAS  /tmp/ccrysqwW.s 			page 65


 2417              	.L106:
 2418 0086 00BF     		.align	2
 2419              	.L105:
 2420 0088 00000000 		.word	lcd_bg_buffer_disp_idx
 2421 008c 00000000 		.word	lcd_bg_buffer_capt_idx
 2422 0090 00701700 		.word	1536000
 2423 0094 00000000 		.word	lcd_bg_buffer
 2424 0098 6C000000 		.word	.LC11
 2425 009c 00000000 		.word	__func__.19
 2426 00a0 38000000 		.word	.LC7
 2427 00a4 00000000 		.word	frame_event_nb
 2428              		.cfi_endproc
 2429              	.LFE7378:
 2431              		.section	.text.app_ancillary_pipe_frame_event,"ax",%progbits
 2432              		.align	1
 2433              		.syntax unified
 2434              		.thumb
 2435              		.thumb_func
 2437              	app_ancillary_pipe_frame_event:
 2438              	.LFB7379:
 570:Src/app.c     **** 
 571:Src/app.c     **** 
 572:Src/app.c     **** static void app_ancillary_pipe_frame_event()
 573:Src/app.c     **** {
 2439              		.loc 1 573 1
 2440              		.cfi_startproc
 2441              		@ args = 0, pretend = 0, frame = 8
 2442              		@ frame_needed = 1, uses_anonymous_args = 0
 2443 0000 80B5     		push	{r7, lr}
 2444              		.cfi_def_cfa_offset 8
 2445              		.cfi_offset 7, -8
 2446              		.cfi_offset 14, -4
 2447 0002 82B0     		sub	sp, sp, #8
 2448              		.cfi_def_cfa_offset 16
 2449 0004 00AF     		add	r7, sp, #0
 2450              		.cfi_def_cfa_register 7
 574:Src/app.c     ****   uint8_t *next_buffer;
 575:Src/app.c     ****   int ret;
 576:Src/app.c     **** 
 577:Src/app.c     ****   next_buffer = bqueue_get_free(&nn_input_queue, 0);
 2451              		.loc 1 577 17
 2452 0006 0021     		movs	r1, #0
 2453 0008 1248     		ldr	r0, .L111
 2454 000a FFF7FEFF 		bl	bqueue_get_free
 2455 000e 7860     		str	r0, [r7, #4]
 578:Src/app.c     ****   if (next_buffer) {
 2456              		.loc 1 578 6
 2457 0010 7B68     		ldr	r3, [r7, #4]
 2458 0012 002B     		cmp	r3, #0
 2459 0014 1AD0     		beq	.L110
 579:Src/app.c     ****     ret = HAL_DCMIPP_PIPE_SetMemoryAddress(CMW_CAMERA_GetDCMIPPHandle(), DCMIPP_PIPE2,
 2460              		.loc 1 579 11
 2461 0016 FFF7FEFF 		bl	CMW_CAMERA_GetDCMIPPHandle
 2462              		.loc 1 579 11 is_stmt 0 discriminator 1
 2463 001a 7B68     		ldr	r3, [r7, #4]
 2464 001c 0022     		movs	r2, #0
 2465 001e 0221     		movs	r1, #2
ARM GAS  /tmp/ccrysqwW.s 			page 66


 2466 0020 FFF7FEFF 		bl	HAL_DCMIPP_PIPE_SetMemoryAddress
 2467 0024 0346     		mov	r3, r0
 2468              		.loc 1 579 9 is_stmt 1 discriminator 2
 2469 0026 3B60     		str	r3, [r7]
 580:Src/app.c     ****                                            DCMIPP_MEMORY_ADDRESS_0, (uint32_t) next_buffer);
 581:Src/app.c     ****     assert(ret == HAL_OK);
 2470              		.loc 1 581 5
 2471 0028 3B68     		ldr	r3, [r7]
 2472 002a 002B     		cmp	r3, #0
 2473 002c 06D0     		beq	.L109
 2474              		.loc 1 581 5 is_stmt 0 discriminator 1
 2475 002e 0A4B     		ldr	r3, .L111+4
 2476 0030 0A4A     		ldr	r2, .L111+8
 2477 0032 40F24521 		movw	r1, #581
 2478 0036 0A48     		ldr	r0, .L111+12
 2479 0038 FFF7FEFF 		bl	__assert_func
 2480              	.L109:
 582:Src/app.c     ****     /* minus 1 since app_main_pipe_frame_event occur before app_ancillary_pipe_frame_event() */
 583:Src/app.c     ****     frame_event_nb_for_resize = frame_event_nb - 1;
 2481              		.loc 1 583 48 is_stmt 1
 2482 003c 094B     		ldr	r3, .L111+16
 2483 003e 1B68     		ldr	r3, [r3]
 2484 0040 013B     		subs	r3, r3, #1
 2485              		.loc 1 583 31
 2486 0042 094A     		ldr	r2, .L111+20
 2487 0044 1360     		str	r3, [r2]
 584:Src/app.c     ****     bqueue_put_ready(&nn_input_queue);
 2488              		.loc 1 584 5
 2489 0046 0348     		ldr	r0, .L111
 2490 0048 FFF7FEFF 		bl	bqueue_put_ready
 2491              	.L110:
 585:Src/app.c     ****   }
 586:Src/app.c     **** }
 2492              		.loc 1 586 1
 2493 004c 00BF     		nop
 2494 004e 0837     		adds	r7, r7, #8
 2495              		.cfi_def_cfa_offset 8
 2496 0050 BD46     		mov	sp, r7
 2497              		.cfi_def_cfa_register 13
 2498              		@ sp needed
 2499 0052 80BD     		pop	{r7, pc}
 2500              	.L112:
 2501              		.align	2
 2502              	.L111:
 2503 0054 00000000 		.word	nn_input_queue
 2504 0058 6C000000 		.word	.LC11
 2505 005c 00000000 		.word	__func__.18
 2506 0060 38000000 		.word	.LC7
 2507 0064 00000000 		.word	frame_event_nb
 2508 0068 00000000 		.word	frame_event_nb_for_resize
 2509              		.cfi_endproc
 2510              	.LFE7379:
 2512              		.section	.text.app_main_pipe_vsync_event,"ax",%progbits
 2513              		.align	1
 2514              		.syntax unified
 2515              		.thumb
 2516              		.thumb_func
ARM GAS  /tmp/ccrysqwW.s 			page 67


 2518              	app_main_pipe_vsync_event:
 2519              	.LFB7380:
 587:Src/app.c     **** 
 588:Src/app.c     **** static void app_main_pipe_vsync_event()
 589:Src/app.c     **** {
 2520              		.loc 1 589 1
 2521              		.cfi_startproc
 2522              		@ args = 0, pretend = 0, frame = 8
 2523              		@ frame_needed = 1, uses_anonymous_args = 0
 2524 0000 80B5     		push	{r7, lr}
 2525              		.cfi_def_cfa_offset 8
 2526              		.cfi_offset 7, -8
 2527              		.cfi_offset 14, -4
 2528 0002 82B0     		sub	sp, sp, #8
 2529              		.cfi_def_cfa_offset 16
 2530 0004 00AF     		add	r7, sp, #0
 2531              		.cfi_def_cfa_register 7
 590:Src/app.c     ****   BaseType_t xHigherPriorityTaskWoken = pdFALSE;
 2532              		.loc 1 590 14
 2533 0006 0023     		movs	r3, #0
 2534 0008 3B60     		str	r3, [r7]
 591:Src/app.c     ****   int ret;
 592:Src/app.c     **** 
 593:Src/app.c     ****   ret = xSemaphoreGiveFromISR(isp_sem, &xHigherPriorityTaskWoken);
 2535              		.loc 1 593 9
 2536 000a 0B4B     		ldr	r3, .L116
 2537 000c 1B68     		ldr	r3, [r3]
 2538 000e 3A46     		mov	r2, r7
 2539 0010 1146     		mov	r1, r2
 2540 0012 1846     		mov	r0, r3
 2541 0014 FFF7FEFF 		bl	xQueueGiveFromISR
 2542 0018 7860     		str	r0, [r7, #4]
 594:Src/app.c     ****   if (ret == pdTRUE)
 2543              		.loc 1 594 6
 2544 001a 7B68     		ldr	r3, [r7, #4]
 2545 001c 012B     		cmp	r3, #1
 2546 001e 06D1     		bne	.L115
 595:Src/app.c     ****     portYIELD_FROM_ISR(xHigherPriorityTaskWoken);
 2547              		.loc 1 595 5
 2548 0020 3B68     		ldr	r3, [r7]
 2549 0022 002B     		cmp	r3, #0
 2550 0024 03D0     		beq	.L115
 2551              		.loc 1 595 5 is_stmt 0 discriminator 1
 2552 0026 054B     		ldr	r3, .L116+4
 2553 0028 4FF08052 		mov	r2, #268435456
 2554 002c 1A60     		str	r2, [r3]
 2555              	.L115:
 596:Src/app.c     **** }
 2556              		.loc 1 596 1 is_stmt 1
 2557 002e 00BF     		nop
 2558 0030 0837     		adds	r7, r7, #8
 2559              		.cfi_def_cfa_offset 8
 2560 0032 BD46     		mov	sp, r7
 2561              		.cfi_def_cfa_register 13
 2562              		@ sp needed
 2563 0034 80BD     		pop	{r7, pc}
 2564              	.L117:
ARM GAS  /tmp/ccrysqwW.s 			page 68


 2565 0036 00BF     		.align	2
 2566              	.L116:
 2567 0038 00000000 		.word	isp_sem
 2568 003c 04ED00E0 		.word	-536810236
 2569              		.cfi_endproc
 2570              	.LFE7380:
 2572              		.section	.text.clamp_point,"ax",%progbits
 2573              		.align	1
 2574              		.syntax unified
 2575              		.thumb
 2576              		.thumb_func
 2578              	clamp_point:
 2579              	.LFB7381:
 597:Src/app.c     **** 
 598:Src/app.c     **** static int clamp_point(int *x, int *y)
 599:Src/app.c     **** {
 2580              		.loc 1 599 1
 2581              		.cfi_startproc
 2582              		@ args = 0, pretend = 0, frame = 16
 2583              		@ frame_needed = 1, uses_anonymous_args = 0
 2584              		@ link register save eliminated.
 2585 0000 80B4     		push	{r7}
 2586              		.cfi_def_cfa_offset 4
 2587              		.cfi_offset 7, -4
 2588 0002 85B0     		sub	sp, sp, #20
 2589              		.cfi_def_cfa_offset 24
 2590 0004 00AF     		add	r7, sp, #0
 2591              		.cfi_def_cfa_register 7
 2592 0006 7860     		str	r0, [r7, #4]
 2593 0008 3960     		str	r1, [r7]
 600:Src/app.c     ****   int xi = *x;
 2594              		.loc 1 600 7
 2595 000a 7B68     		ldr	r3, [r7, #4]
 2596 000c 1B68     		ldr	r3, [r3]
 2597 000e FB60     		str	r3, [r7, #12]
 601:Src/app.c     ****   int yi = *y;
 2598              		.loc 1 601 7
 2599 0010 3B68     		ldr	r3, [r7]
 2600 0012 1B68     		ldr	r3, [r3]
 2601 0014 BB60     		str	r3, [r7, #8]
 602:Src/app.c     **** 
 603:Src/app.c     ****   if (*x < 0)
 2602              		.loc 1 603 7
 2603 0016 7B68     		ldr	r3, [r7, #4]
 2604 0018 1B68     		ldr	r3, [r3]
 2605              		.loc 1 603 6
 2606 001a 002B     		cmp	r3, #0
 2607 001c 02DA     		bge	.L119
 604:Src/app.c     ****     *x = 0;
 2608              		.loc 1 604 8
 2609 001e 7B68     		ldr	r3, [r7, #4]
 2610 0020 0022     		movs	r2, #0
 2611 0022 1A60     		str	r2, [r3]
 2612              	.L119:
 605:Src/app.c     ****   if (*y < 0)
 2613              		.loc 1 605 7
 2614 0024 3B68     		ldr	r3, [r7]
ARM GAS  /tmp/ccrysqwW.s 			page 69


 2615 0026 1B68     		ldr	r3, [r3]
 2616              		.loc 1 605 6
 2617 0028 002B     		cmp	r3, #0
 2618 002a 02DA     		bge	.L120
 606:Src/app.c     ****     *y = 0;
 2619              		.loc 1 606 8
 2620 002c 3B68     		ldr	r3, [r7]
 2621 002e 0022     		movs	r2, #0
 2622 0030 1A60     		str	r2, [r3]
 2623              	.L120:
 607:Src/app.c     ****   if (*x >= lcd_bg_area.XSize)
 2624              		.loc 1 607 7
 2625 0032 7B68     		ldr	r3, [r7, #4]
 2626 0034 1B68     		ldr	r3, [r3]
 2627 0036 1A46     		mov	r2, r3
 2628              		.loc 1 607 24
 2629 0038 144B     		ldr	r3, .L127
 2630 003a 9B68     		ldr	r3, [r3, #8]
 2631              		.loc 1 607 6
 2632 003c 9A42     		cmp	r2, r3
 2633 003e 05D3     		bcc	.L121
 608:Src/app.c     ****     *x = lcd_bg_area.XSize - 1;
 2634              		.loc 1 608 21
 2635 0040 124B     		ldr	r3, .L127
 2636 0042 9B68     		ldr	r3, [r3, #8]
 2637              		.loc 1 608 28
 2638 0044 013B     		subs	r3, r3, #1
 2639 0046 1A46     		mov	r2, r3
 2640              		.loc 1 608 8
 2641 0048 7B68     		ldr	r3, [r7, #4]
 2642 004a 1A60     		str	r2, [r3]
 2643              	.L121:
 609:Src/app.c     ****   if (*y >= lcd_bg_area.YSize)
 2644              		.loc 1 609 7
 2645 004c 3B68     		ldr	r3, [r7]
 2646 004e 1B68     		ldr	r3, [r3]
 2647 0050 1A46     		mov	r2, r3
 2648              		.loc 1 609 24
 2649 0052 0E4B     		ldr	r3, .L127
 2650 0054 DB68     		ldr	r3, [r3, #12]
 2651              		.loc 1 609 6
 2652 0056 9A42     		cmp	r2, r3
 2653 0058 05D3     		bcc	.L122
 610:Src/app.c     ****     *y = lcd_bg_area.YSize - 1;
 2654              		.loc 1 610 21
 2655 005a 0C4B     		ldr	r3, .L127
 2656 005c DB68     		ldr	r3, [r3, #12]
 2657              		.loc 1 610 28
 2658 005e 013B     		subs	r3, r3, #1
 2659 0060 1A46     		mov	r2, r3
 2660              		.loc 1 610 8
 2661 0062 3B68     		ldr	r3, [r7]
 2662 0064 1A60     		str	r2, [r3]
 2663              	.L122:
 611:Src/app.c     **** 
 612:Src/app.c     ****   return (xi != *x) || (yi != *y);
 2664              		.loc 1 612 17
ARM GAS  /tmp/ccrysqwW.s 			page 70


 2665 0066 7B68     		ldr	r3, [r7, #4]
 2666 0068 1B68     		ldr	r3, [r3]
 2667              		.loc 1 612 21
 2668 006a FA68     		ldr	r2, [r7, #12]
 2669 006c 9A42     		cmp	r2, r3
 2670 006e 04D1     		bne	.L123
 2671              		.loc 1 612 31 discriminator 2
 2672 0070 3B68     		ldr	r3, [r7]
 2673 0072 1B68     		ldr	r3, [r3]
 2674              		.loc 1 612 21 discriminator 2
 2675 0074 BA68     		ldr	r2, [r7, #8]
 2676 0076 9A42     		cmp	r2, r3
 2677 0078 01D0     		beq	.L124
 2678              	.L123:
 2679              		.loc 1 612 21 is_stmt 0 discriminator 3
 2680 007a 0123     		movs	r3, #1
 2681              		.loc 1 612 21
 2682 007c 00E0     		b	.L126
 2683              	.L124:
 2684              		.loc 1 612 21 discriminator 4
 2685 007e 0023     		movs	r3, #0
 2686              	.L126:
 613:Src/app.c     **** }
 2687              		.loc 1 613 1 is_stmt 1
 2688 0080 1846     		mov	r0, r3
 2689 0082 1437     		adds	r7, r7, #20
 2690              		.cfi_def_cfa_offset 4
 2691 0084 BD46     		mov	sp, r7
 2692              		.cfi_def_cfa_register 13
 2693              		@ sp needed
 2694 0086 5DF8047B 		ldr	r7, [sp], #4
 2695              		.cfi_restore 7
 2696              		.cfi_def_cfa_offset 0
 2697 008a 7047     		bx	lr
 2698              	.L128:
 2699              		.align	2
 2700              	.L127:
 2701 008c 00000000 		.word	lcd_bg_area
 2702              		.cfi_endproc
 2703              	.LFE7381:
 2705              		.section	.text.clamp_point_with_margin,"ax",%progbits
 2706              		.align	1
 2707              		.syntax unified
 2708              		.thumb
 2709              		.thumb_func
 2711              	clamp_point_with_margin:
 2712              	.LFB7382:
 614:Src/app.c     **** 
 615:Src/app.c     **** static int clamp_point_with_margin(int *x, int *y, int margin)
 616:Src/app.c     **** {
 2713              		.loc 1 616 1
 2714              		.cfi_startproc
 2715              		@ args = 0, pretend = 0, frame = 24
 2716              		@ frame_needed = 1, uses_anonymous_args = 0
 2717              		@ link register save eliminated.
 2718 0000 80B4     		push	{r7}
 2719              		.cfi_def_cfa_offset 4
ARM GAS  /tmp/ccrysqwW.s 			page 71


 2720              		.cfi_offset 7, -4
 2721 0002 87B0     		sub	sp, sp, #28
 2722              		.cfi_def_cfa_offset 32
 2723 0004 00AF     		add	r7, sp, #0
 2724              		.cfi_def_cfa_register 7
 2725 0006 F860     		str	r0, [r7, #12]
 2726 0008 B960     		str	r1, [r7, #8]
 2727 000a 7A60     		str	r2, [r7, #4]
 617:Src/app.c     ****   int xi = *x;
 2728              		.loc 1 617 7
 2729 000c FB68     		ldr	r3, [r7, #12]
 2730 000e 1B68     		ldr	r3, [r3]
 2731 0010 7B61     		str	r3, [r7, #20]
 618:Src/app.c     ****   int yi = *y;
 2732              		.loc 1 618 7
 2733 0012 BB68     		ldr	r3, [r7, #8]
 2734 0014 1B68     		ldr	r3, [r3]
 2735 0016 3B61     		str	r3, [r7, #16]
 619:Src/app.c     **** 
 620:Src/app.c     ****   if (*x < margin)
 2736              		.loc 1 620 7
 2737 0018 FB68     		ldr	r3, [r7, #12]
 2738 001a 1B68     		ldr	r3, [r3]
 2739              		.loc 1 620 6
 2740 001c 7A68     		ldr	r2, [r7, #4]
 2741 001e 9A42     		cmp	r2, r3
 2742 0020 02DD     		ble	.L130
 621:Src/app.c     ****     *x = margin;
 2743              		.loc 1 621 8
 2744 0022 FB68     		ldr	r3, [r7, #12]
 2745 0024 7A68     		ldr	r2, [r7, #4]
 2746 0026 1A60     		str	r2, [r3]
 2747              	.L130:
 622:Src/app.c     ****   if (*y < margin)
 2748              		.loc 1 622 7
 2749 0028 BB68     		ldr	r3, [r7, #8]
 2750 002a 1B68     		ldr	r3, [r3]
 2751              		.loc 1 622 6
 2752 002c 7A68     		ldr	r2, [r7, #4]
 2753 002e 9A42     		cmp	r2, r3
 2754 0030 02DD     		ble	.L131
 623:Src/app.c     ****     *y = margin;
 2755              		.loc 1 623 8
 2756 0032 BB68     		ldr	r3, [r7, #8]
 2757 0034 7A68     		ldr	r2, [r7, #4]
 2758 0036 1A60     		str	r2, [r3]
 2759              	.L131:
 624:Src/app.c     ****   if (*x >= lcd_bg_area.XSize - margin)
 2760              		.loc 1 624 7
 2761 0038 FB68     		ldr	r3, [r7, #12]
 2762 003a 1B68     		ldr	r3, [r3]
 2763 003c 1946     		mov	r1, r3
 2764              		.loc 1 624 24
 2765 003e 194B     		ldr	r3, .L138
 2766 0040 9A68     		ldr	r2, [r3, #8]
 2767              		.loc 1 624 31
 2768 0042 7B68     		ldr	r3, [r7, #4]
ARM GAS  /tmp/ccrysqwW.s 			page 72


 2769 0044 D31A     		subs	r3, r2, r3
 2770              		.loc 1 624 6
 2771 0046 9942     		cmp	r1, r3
 2772 0048 07D3     		bcc	.L132
 625:Src/app.c     ****     *x = lcd_bg_area.XSize - margin - 1;
 2773              		.loc 1 625 21
 2774 004a 164B     		ldr	r3, .L138
 2775 004c 9A68     		ldr	r2, [r3, #8]
 2776              		.loc 1 625 28
 2777 004e 7B68     		ldr	r3, [r7, #4]
 2778 0050 D31A     		subs	r3, r2, r3
 2779              		.loc 1 625 37
 2780 0052 013B     		subs	r3, r3, #1
 2781 0054 1A46     		mov	r2, r3
 2782              		.loc 1 625 8
 2783 0056 FB68     		ldr	r3, [r7, #12]
 2784 0058 1A60     		str	r2, [r3]
 2785              	.L132:
 626:Src/app.c     ****   if (*y >= lcd_bg_area.YSize - margin)
 2786              		.loc 1 626 7
 2787 005a BB68     		ldr	r3, [r7, #8]
 2788 005c 1B68     		ldr	r3, [r3]
 2789 005e 1946     		mov	r1, r3
 2790              		.loc 1 626 24
 2791 0060 104B     		ldr	r3, .L138
 2792 0062 DA68     		ldr	r2, [r3, #12]
 2793              		.loc 1 626 31
 2794 0064 7B68     		ldr	r3, [r7, #4]
 2795 0066 D31A     		subs	r3, r2, r3
 2796              		.loc 1 626 6
 2797 0068 9942     		cmp	r1, r3
 2798 006a 07D3     		bcc	.L133
 627:Src/app.c     ****     *y = lcd_bg_area.YSize - margin - 1;
 2799              		.loc 1 627 21
 2800 006c 0D4B     		ldr	r3, .L138
 2801 006e DA68     		ldr	r2, [r3, #12]
 2802              		.loc 1 627 28
 2803 0070 7B68     		ldr	r3, [r7, #4]
 2804 0072 D31A     		subs	r3, r2, r3
 2805              		.loc 1 627 37
 2806 0074 013B     		subs	r3, r3, #1
 2807 0076 1A46     		mov	r2, r3
 2808              		.loc 1 627 8
 2809 0078 BB68     		ldr	r3, [r7, #8]
 2810 007a 1A60     		str	r2, [r3]
 2811              	.L133:
 628:Src/app.c     **** 
 629:Src/app.c     ****   return (xi != *x) || (yi != *y);
 2812              		.loc 1 629 17
 2813 007c FB68     		ldr	r3, [r7, #12]
 2814 007e 1B68     		ldr	r3, [r3]
 2815              		.loc 1 629 21
 2816 0080 7A69     		ldr	r2, [r7, #20]
 2817 0082 9A42     		cmp	r2, r3
 2818 0084 04D1     		bne	.L134
 2819              		.loc 1 629 31 discriminator 2
 2820 0086 BB68     		ldr	r3, [r7, #8]
ARM GAS  /tmp/ccrysqwW.s 			page 73


 2821 0088 1B68     		ldr	r3, [r3]
 2822              		.loc 1 629 21 discriminator 2
 2823 008a 3A69     		ldr	r2, [r7, #16]
 2824 008c 9A42     		cmp	r2, r3
 2825 008e 01D0     		beq	.L135
 2826              	.L134:
 2827              		.loc 1 629 21 is_stmt 0 discriminator 3
 2828 0090 0123     		movs	r3, #1
 2829              		.loc 1 629 21
 2830 0092 00E0     		b	.L137
 2831              	.L135:
 2832              		.loc 1 629 21 discriminator 4
 2833 0094 0023     		movs	r3, #0
 2834              	.L137:
 630:Src/app.c     **** }
 2835              		.loc 1 630 1 is_stmt 1
 2836 0096 1846     		mov	r0, r3
 2837 0098 1C37     		adds	r7, r7, #28
 2838              		.cfi_def_cfa_offset 4
 2839 009a BD46     		mov	sp, r7
 2840              		.cfi_def_cfa_register 13
 2841              		@ sp needed
 2842 009c 5DF8047B 		ldr	r7, [sp], #4
 2843              		.cfi_restore 7
 2844              		.cfi_def_cfa_offset 0
 2845 00a0 7047     		bx	lr
 2846              	.L139:
 2847 00a2 00BF     		.align	2
 2848              	.L138:
 2849 00a4 00000000 		.word	lcd_bg_area
 2850              		.cfi_endproc
 2851              	.LFE7382:
 2853              		.section	.text.display_pd_hand,"ax",%progbits
 2854              		.align	1
 2855              		.syntax unified
 2856              		.thumb
 2857              		.thumb_func
 2859              	display_pd_hand:
 2860              	.LFB7383:
 631:Src/app.c     **** 
 632:Src/app.c     **** static void display_pd_hand(pd_pp_box_t *hand)
 633:Src/app.c     **** {
 2861              		.loc 1 633 1
 2862              		.cfi_startproc
 2863              		@ args = 0, pretend = 0, frame = 48
 2864              		@ frame_needed = 1, uses_anonymous_args = 0
 2865 0000 90B5     		push	{r4, r7, lr}
 2866              		.cfi_def_cfa_offset 12
 2867              		.cfi_offset 4, -12
 2868              		.cfi_offset 7, -8
 2869              		.cfi_offset 14, -4
 2870 0002 8FB0     		sub	sp, sp, #60
 2871              		.cfi_def_cfa_offset 72
 2872 0004 02AF     		add	r7, sp, #8
 2873              		.cfi_def_cfa 7, 64
 2874 0006 7860     		str	r0, [r7, #4]
 634:Src/app.c     ****   int xc, yc;
ARM GAS  /tmp/ccrysqwW.s 			page 74


 635:Src/app.c     ****   int x0, y0;
 636:Src/app.c     ****   int x1, y1;
 637:Src/app.c     ****   int w, h;
 638:Src/app.c     ****   int i;
 639:Src/app.c     **** 
 640:Src/app.c     ****   /* display box around palm */
 641:Src/app.c     ****   xc = (int)hand->x_center;
 2875              		.loc 1 641 17
 2876 0008 7B68     		ldr	r3, [r7, #4]
 2877 000a D3ED017A 		vldr.32	s15, [r3, #4]
 2878              		.loc 1 641 6
 2879 000e FDEEE77A 		vcvt.s32.f32	s15, s15
 2880 0012 17EE903A 		vmov	r3, s15	@ int
 2881 0016 BB62     		str	r3, [r7, #40]
 642:Src/app.c     ****   yc = (int)hand->y_center;
 2882              		.loc 1 642 17
 2883 0018 7B68     		ldr	r3, [r7, #4]
 2884 001a D3ED027A 		vldr.32	s15, [r3, #8]
 2885              		.loc 1 642 6
 2886 001e FDEEE77A 		vcvt.s32.f32	s15, s15
 2887 0022 17EE903A 		vmov	r3, s15	@ int
 2888 0026 7B62     		str	r3, [r7, #36]
 643:Src/app.c     ****   w = (int)hand->width;
 2889              		.loc 1 643 16
 2890 0028 7B68     		ldr	r3, [r7, #4]
 2891 002a D3ED037A 		vldr.32	s15, [r3, #12]
 2892              		.loc 1 643 5
 2893 002e FDEEE77A 		vcvt.s32.f32	s15, s15
 2894 0032 17EE903A 		vmov	r3, s15	@ int
 2895 0036 3B62     		str	r3, [r7, #32]
 644:Src/app.c     ****   h = (int)hand->height;
 2896              		.loc 1 644 16
 2897 0038 7B68     		ldr	r3, [r7, #4]
 2898 003a D3ED047A 		vldr.32	s15, [r3, #16]
 2899              		.loc 1 644 5
 2900 003e FDEEE77A 		vcvt.s32.f32	s15, s15
 2901 0042 17EE903A 		vmov	r3, s15	@ int
 2902 0046 FB61     		str	r3, [r7, #28]
 645:Src/app.c     ****   x0 = xc - (w + 1) / 2;
 2903              		.loc 1 645 16
 2904 0048 3B6A     		ldr	r3, [r7, #32]
 2905 004a 0133     		adds	r3, r3, #1
 2906              		.loc 1 645 21
 2907 004c DA0F     		lsrs	r2, r3, #31
 2908 004e 1344     		add	r3, r3, r2
 2909 0050 5B10     		asrs	r3, r3, #1
 2910 0052 5B42     		rsbs	r3, r3, #0
 2911 0054 1A46     		mov	r2, r3
 2912              		.loc 1 645 11
 2913 0056 BB6A     		ldr	r3, [r7, #40]
 2914 0058 1344     		add	r3, r3, r2
 2915              		.loc 1 645 6
 2916 005a 7B61     		str	r3, [r7, #20]
 646:Src/app.c     ****   y0 = yc - (h + 1) / 2;
 2917              		.loc 1 646 16
 2918 005c FB69     		ldr	r3, [r7, #28]
 2919 005e 0133     		adds	r3, r3, #1
ARM GAS  /tmp/ccrysqwW.s 			page 75


 2920              		.loc 1 646 21
 2921 0060 DA0F     		lsrs	r2, r3, #31
 2922 0062 1344     		add	r3, r3, r2
 2923 0064 5B10     		asrs	r3, r3, #1
 2924 0066 5B42     		rsbs	r3, r3, #0
 2925 0068 1A46     		mov	r2, r3
 2926              		.loc 1 646 11
 2927 006a 7B6A     		ldr	r3, [r7, #36]
 2928 006c 1344     		add	r3, r3, r2
 2929              		.loc 1 646 6
 2930 006e 3B61     		str	r3, [r7, #16]
 647:Src/app.c     ****   x1 = xc + (w + 1) / 2;
 2931              		.loc 1 647 16
 2932 0070 3B6A     		ldr	r3, [r7, #32]
 2933 0072 0133     		adds	r3, r3, #1
 2934              		.loc 1 647 21
 2935 0074 DA0F     		lsrs	r2, r3, #31
 2936 0076 1344     		add	r3, r3, r2
 2937 0078 5B10     		asrs	r3, r3, #1
 2938 007a 1A46     		mov	r2, r3
 2939              		.loc 1 647 11
 2940 007c BB6A     		ldr	r3, [r7, #40]
 2941 007e 1344     		add	r3, r3, r2
 2942              		.loc 1 647 6
 2943 0080 FB60     		str	r3, [r7, #12]
 648:Src/app.c     ****   y1 = yc + (h + 1) / 2;
 2944              		.loc 1 648 16
 2945 0082 FB69     		ldr	r3, [r7, #28]
 2946 0084 0133     		adds	r3, r3, #1
 2947              		.loc 1 648 21
 2948 0086 DA0F     		lsrs	r2, r3, #31
 2949 0088 1344     		add	r3, r3, r2
 2950 008a 5B10     		asrs	r3, r3, #1
 2951 008c 1A46     		mov	r2, r3
 2952              		.loc 1 648 11
 2953 008e 7B6A     		ldr	r3, [r7, #36]
 2954 0090 1344     		add	r3, r3, r2
 2955              		.loc 1 648 6
 2956 0092 BB60     		str	r3, [r7, #8]
 649:Src/app.c     ****   clamp_point(&x0, &y0);
 2957              		.loc 1 649 3
 2958 0094 07F11002 		add	r2, r7, #16
 2959 0098 07F11403 		add	r3, r7, #20
 2960 009c 1146     		mov	r1, r2
 2961 009e 1846     		mov	r0, r3
 2962 00a0 FFF7FEFF 		bl	clamp_point
 650:Src/app.c     ****   clamp_point(&x1, &y1);
 2963              		.loc 1 650 3
 2964 00a4 07F10802 		add	r2, r7, #8
 2965 00a8 07F10C03 		add	r3, r7, #12
 2966 00ac 1146     		mov	r1, r2
 2967 00ae 1846     		mov	r0, r3
 2968 00b0 FFF7FEFF 		bl	clamp_point
 651:Src/app.c     ****   UTIL_LCD_DrawRect(x0, y0, x1 - x0, y1 - y0, UTIL_LCD_COLOR_GREEN);
 2969              		.loc 1 651 3
 2970 00b4 7B69     		ldr	r3, [r7, #20]
 2971 00b6 1846     		mov	r0, r3
ARM GAS  /tmp/ccrysqwW.s 			page 76


 2972 00b8 3B69     		ldr	r3, [r7, #16]
 2973 00ba 1946     		mov	r1, r3
 2974              		.loc 1 651 32
 2975 00bc FA68     		ldr	r2, [r7, #12]
 2976 00be 7B69     		ldr	r3, [r7, #20]
 2977 00c0 D31A     		subs	r3, r2, r3
 2978              		.loc 1 651 3
 2979 00c2 1C46     		mov	r4, r3
 2980              		.loc 1 651 41
 2981 00c4 BA68     		ldr	r2, [r7, #8]
 2982 00c6 3B69     		ldr	r3, [r7, #16]
 2983 00c8 D31A     		subs	r3, r2, r3
 2984              		.loc 1 651 3
 2985 00ca 1A46     		mov	r2, r3
 2986 00cc 4FF0FF23 		mov	r3, #-16711936
 2987 00d0 0093     		str	r3, [sp]
 2988 00d2 1346     		mov	r3, r2
 2989 00d4 2246     		mov	r2, r4
 2990 00d6 FFF7FEFF 		bl	UTIL_LCD_DrawRect
 652:Src/app.c     **** 
 653:Src/app.c     ****   /* display palm key points */
 654:Src/app.c     ****   for (i = 0; i < 7; i++) {
 2991              		.loc 1 654 10
 2992 00da 0023     		movs	r3, #0
 2993 00dc FB62     		str	r3, [r7, #44]
 2994              		.loc 1 654 3
 2995 00de 34E0     		b	.L141
 2996              	.L144:
 2997              	.LBB109:
 655:Src/app.c     ****     uint32_t color = (i != 0 && i != 2) ? UTIL_LCD_COLOR_RED : UTIL_LCD_COLOR_BLUE;
 2998              		.loc 1 655 62
 2999 00e0 FB6A     		ldr	r3, [r7, #44]
 3000 00e2 002B     		cmp	r3, #0
 3001 00e4 04D0     		beq	.L142
 3002              		.loc 1 655 30 discriminator 1
 3003 00e6 FB6A     		ldr	r3, [r7, #44]
 3004 00e8 022B     		cmp	r3, #2
 3005 00ea 01D0     		beq	.L142
 3006              		.loc 1 655 62 discriminator 3
 3007 00ec 1B4B     		ldr	r3, .L145
 3008              		.loc 1 655 62 is_stmt 0
 3009 00ee 00E0     		b	.L143
 3010              	.L142:
 3011              		.loc 1 655 62 discriminator 4
 3012 00f0 1B4B     		ldr	r3, .L145+4
 3013              	.L143:
 3014              		.loc 1 655 14 is_stmt 1 discriminator 6
 3015 00f2 BB61     		str	r3, [r7, #24]
 656:Src/app.c     **** 
 657:Src/app.c     ****     x0 = (int)hand->pKps[i].x;
 3016              		.loc 1 657 19
 3017 00f4 7B68     		ldr	r3, [r7, #4]
 3018 00f6 5A69     		ldr	r2, [r3, #20]
 3019              		.loc 1 657 25
 3020 00f8 FB6A     		ldr	r3, [r7, #44]
 3021 00fa DB00     		lsls	r3, r3, #3
 3022 00fc 1344     		add	r3, r3, r2
ARM GAS  /tmp/ccrysqwW.s 			page 77


 3023              		.loc 1 657 28
 3024 00fe D3ED007A 		vldr.32	s15, [r3]
 3025              		.loc 1 657 10
 3026 0102 FDEEE77A 		vcvt.s32.f32	s15, s15
 3027 0106 17EE903A 		vmov	r3, s15	@ int
 3028              		.loc 1 657 8
 3029 010a 7B61     		str	r3, [r7, #20]
 658:Src/app.c     ****     y0 = (int)hand->pKps[i].y;
 3030              		.loc 1 658 19
 3031 010c 7B68     		ldr	r3, [r7, #4]
 3032 010e 5A69     		ldr	r2, [r3, #20]
 3033              		.loc 1 658 25
 3034 0110 FB6A     		ldr	r3, [r7, #44]
 3035 0112 DB00     		lsls	r3, r3, #3
 3036 0114 1344     		add	r3, r3, r2
 3037              		.loc 1 658 28
 3038 0116 D3ED017A 		vldr.32	s15, [r3, #4]
 3039              		.loc 1 658 10
 3040 011a FDEEE77A 		vcvt.s32.f32	s15, s15
 3041 011e 17EE903A 		vmov	r3, s15	@ int
 3042              		.loc 1 658 8
 3043 0122 3B61     		str	r3, [r7, #16]
 659:Src/app.c     ****     clamp_point(&x0, &y0);
 3044              		.loc 1 659 5
 3045 0124 07F11002 		add	r2, r7, #16
 3046 0128 07F11403 		add	r3, r7, #20
 3047 012c 1146     		mov	r1, r2
 3048 012e 1846     		mov	r0, r3
 3049 0130 FFF7FEFF 		bl	clamp_point
 660:Src/app.c     ****     UTIL_LCD_FillCircle(x0, y0, 2, color);
 3050              		.loc 1 660 5
 3051 0134 7B69     		ldr	r3, [r7, #20]
 3052 0136 1846     		mov	r0, r3
 3053 0138 3B69     		ldr	r3, [r7, #16]
 3054 013a 1946     		mov	r1, r3
 3055 013c BB69     		ldr	r3, [r7, #24]
 3056 013e 0222     		movs	r2, #2
 3057 0140 FFF7FEFF 		bl	UTIL_LCD_FillCircle
 3058              	.LBE109:
 654:Src/app.c     ****     uint32_t color = (i != 0 && i != 2) ? UTIL_LCD_COLOR_RED : UTIL_LCD_COLOR_BLUE;
 3059              		.loc 1 654 23 discriminator 2
 3060 0144 FB6A     		ldr	r3, [r7, #44]
 3061 0146 0133     		adds	r3, r3, #1
 3062 0148 FB62     		str	r3, [r7, #44]
 3063              	.L141:
 654:Src/app.c     ****     uint32_t color = (i != 0 && i != 2) ? UTIL_LCD_COLOR_RED : UTIL_LCD_COLOR_BLUE;
 3064              		.loc 1 654 17 discriminator 1
 3065 014a FB6A     		ldr	r3, [r7, #44]
 3066 014c 062B     		cmp	r3, #6
 3067 014e C7DD     		ble	.L144
 661:Src/app.c     ****   }
 662:Src/app.c     **** }
 3068              		.loc 1 662 1
 3069 0150 00BF     		nop
 3070 0152 00BF     		nop
 3071 0154 3437     		adds	r7, r7, #52
 3072              		.cfi_def_cfa_offset 12
ARM GAS  /tmp/ccrysqwW.s 			page 78


 3073 0156 BD46     		mov	sp, r7
 3074              		.cfi_def_cfa_register 13
 3075              		@ sp needed
 3076 0158 90BD     		pop	{r4, r7, pc}
 3077              	.L146:
 3078 015a 00BF     		.align	2
 3079              	.L145:
 3080 015c 0000FFFF 		.word	-65536
 3081 0160 FF0000FF 		.word	-16776961
 3082              		.cfi_endproc
 3083              	.LFE7383:
 3085              		.section	.text.rotate_point,"ax",%progbits
 3086              		.align	1
 3087              		.syntax unified
 3088              		.thumb
 3089              		.thumb_func
 3091              	rotate_point:
 3092              	.LFB7384:
 663:Src/app.c     **** 
 664:Src/app.c     **** static void rotate_point(float pt[2], float rotation)
 665:Src/app.c     **** {
 3093              		.loc 1 665 1
 3094              		.cfi_startproc
 3095              		@ args = 0, pretend = 0, frame = 16
 3096              		@ frame_needed = 1, uses_anonymous_args = 0
 3097 0000 80B5     		push	{r7, lr}
 3098              		.cfi_def_cfa_offset 8
 3099              		.cfi_offset 7, -8
 3100              		.cfi_offset 14, -4
 3101 0002 2DED028B 		vpush.64	{d8}
 3102              		.cfi_def_cfa_offset 16
 3103              		.cfi_offset 80, -16
 3104              		.cfi_offset 81, -12
 3105 0006 84B0     		sub	sp, sp, #16
 3106              		.cfi_def_cfa_offset 32
 3107 0008 00AF     		add	r7, sp, #0
 3108              		.cfi_def_cfa_register 7
 3109 000a 7860     		str	r0, [r7, #4]
 3110 000c 87ED000A 		vstr.32	s0, [r7]
 666:Src/app.c     ****   float x = pt[0];
 3111              		.loc 1 666 9
 3112 0010 7B68     		ldr	r3, [r7, #4]
 3113 0012 1B68     		ldr	r3, [r3]	@ float
 3114 0014 FB60     		str	r3, [r7, #12]	@ float
 667:Src/app.c     ****   float y = pt[1];
 3115              		.loc 1 667 9
 3116 0016 7B68     		ldr	r3, [r7, #4]
 3117 0018 5B68     		ldr	r3, [r3, #4]	@ float
 3118 001a BB60     		str	r3, [r7, #8]	@ float
 668:Src/app.c     **** 
 669:Src/app.c     ****   pt[0] = cos(rotation) * x - sin(rotation) * y;
 3119              		.loc 1 669 11
 3120 001c D7ED007A 		vldr.32	s15, [r7]
 3121 0020 B7EEE77A 		vcvt.f64.f32	d7, s15
 3122 0024 B0EE470B 		vmov.f64	d0, d7
 3123 0028 FFF7FEFF 		bl	cos
 3124 002c B0EE406B 		vmov.f64	d6, d0
ARM GAS  /tmp/ccrysqwW.s 			page 79


 3125              		.loc 1 669 25 discriminator 1
 3126 0030 D7ED037A 		vldr.32	s15, [r7, #12]
 3127 0034 B7EEE77A 		vcvt.f64.f32	d7, s15
 3128 0038 26EE078B 		vmul.f64	d8, d6, d7
 3129              		.loc 1 669 31 discriminator 1
 3130 003c D7ED007A 		vldr.32	s15, [r7]
 3131 0040 B7EEE77A 		vcvt.f64.f32	d7, s15
 3132 0044 B0EE470B 		vmov.f64	d0, d7
 3133 0048 FFF7FEFF 		bl	sin
 3134 004c B0EE406B 		vmov.f64	d6, d0
 3135              		.loc 1 669 45 discriminator 2
 3136 0050 D7ED027A 		vldr.32	s15, [r7, #8]
 3137 0054 B7EEE77A 		vcvt.f64.f32	d7, s15
 3138 0058 26EE077B 		vmul.f64	d7, d6, d7
 3139              		.loc 1 669 29 discriminator 2
 3140 005c 38EE477B 		vsub.f64	d7, d8, d7
 3141 0060 F7EEC77B 		vcvt.f32.f64	s15, d7
 3142              		.loc 1 669 9 discriminator 2
 3143 0064 7B68     		ldr	r3, [r7, #4]
 3144 0066 C3ED007A 		vstr.32	s15, [r3]
 670:Src/app.c     ****   pt[1] = sin(rotation) * x + cos(rotation) * y;
 3145              		.loc 1 670 11
 3146 006a D7ED007A 		vldr.32	s15, [r7]
 3147 006e B7EEE77A 		vcvt.f64.f32	d7, s15
 3148 0072 B0EE470B 		vmov.f64	d0, d7
 3149 0076 FFF7FEFF 		bl	sin
 3150 007a B0EE406B 		vmov.f64	d6, d0
 3151              		.loc 1 670 25 discriminator 1
 3152 007e D7ED037A 		vldr.32	s15, [r7, #12]
 3153 0082 B7EEE77A 		vcvt.f64.f32	d7, s15
 3154 0086 26EE078B 		vmul.f64	d8, d6, d7
 3155              		.loc 1 670 31 discriminator 1
 3156 008a D7ED007A 		vldr.32	s15, [r7]
 3157 008e B7EEE77A 		vcvt.f64.f32	d7, s15
 3158 0092 B0EE470B 		vmov.f64	d0, d7
 3159 0096 FFF7FEFF 		bl	cos
 3160 009a B0EE406B 		vmov.f64	d6, d0
 3161              		.loc 1 670 45 discriminator 2
 3162 009e D7ED027A 		vldr.32	s15, [r7, #8]
 3163 00a2 B7EEE77A 		vcvt.f64.f32	d7, s15
 3164 00a6 26EE077B 		vmul.f64	d7, d6, d7
 3165              		.loc 1 670 29 discriminator 2
 3166 00aa 38EE077B 		vadd.f64	d7, d8, d7
 3167              		.loc 1 670 5 discriminator 2
 3168 00ae 7B68     		ldr	r3, [r7, #4]
 3169 00b0 0433     		adds	r3, r3, #4
 3170              		.loc 1 670 29 discriminator 2
 3171 00b2 F7EEC77B 		vcvt.f32.f64	s15, d7
 3172              		.loc 1 670 9 discriminator 2
 3173 00b6 C3ED007A 		vstr.32	s15, [r3]
 671:Src/app.c     **** }
 3174              		.loc 1 671 1
 3175 00ba 00BF     		nop
 3176 00bc 1037     		adds	r7, r7, #16
 3177              		.cfi_def_cfa_offset 16
 3178 00be BD46     		mov	sp, r7
 3179              		.cfi_def_cfa_register 13
ARM GAS  /tmp/ccrysqwW.s 			page 80


 3180              		@ sp needed
 3181 00c0 BDEC028B 		vldm	sp!, {d8}
 3182              		.cfi_restore 80
 3183              		.cfi_restore 81
 3184              		.cfi_def_cfa_offset 8
 3185 00c4 80BD     		pop	{r7, pc}
 3186              		.cfi_endproc
 3187              	.LFE7384:
 3189              		.section	.text.roi_to_corners,"ax",%progbits
 3190              		.align	1
 3191              		.syntax unified
 3192              		.thumb
 3193              		.thumb_func
 3195              	roi_to_corners:
 3196              	.LFB7385:
 672:Src/app.c     **** 
 673:Src/app.c     **** static void roi_to_corners(roi_t *roi, float corners[4][2])
 674:Src/app.c     **** {
 3197              		.loc 1 674 1
 3198              		.cfi_startproc
 3199              		@ args = 0, pretend = 0, frame = 48
 3200              		@ frame_needed = 1, uses_anonymous_args = 0
 3201 0000 80B5     		push	{r7, lr}
 3202              		.cfi_def_cfa_offset 8
 3203              		.cfi_offset 7, -8
 3204              		.cfi_offset 14, -4
 3205 0002 8CB0     		sub	sp, sp, #48
 3206              		.cfi_def_cfa_offset 56
 3207 0004 00AF     		add	r7, sp, #0
 3208              		.cfi_def_cfa_register 7
 3209 0006 7860     		str	r0, [r7, #4]
 3210 0008 3960     		str	r1, [r7]
 675:Src/app.c     ****   const float corners_init[4][2] = {
 676:Src/app.c     ****     {-roi->w / 2, -roi->h / 2},
 3211              		.loc 1 676 10
 3212 000a 7B68     		ldr	r3, [r7, #4]
 3213 000c D3ED027A 		vldr.32	s15, [r3, #8]
 3214              		.loc 1 676 6
 3215 0010 B1EE677A 		vneg.f32	s14, s15
 3216              		.loc 1 676 14
 3217 0014 F0EE006A 		vmov.f32	s13, #2.0e+0
 3218 0018 C7EE267A 		vdiv.f32	s15, s14, s13
 675:Src/app.c     ****   const float corners_init[4][2] = {
 3219              		.loc 1 675 15
 3220 001c C7ED037A 		vstr.32	s15, [r7, #12]
 3221              		.loc 1 676 23
 3222 0020 7B68     		ldr	r3, [r7, #4]
 3223 0022 D3ED037A 		vldr.32	s15, [r3, #12]
 3224              		.loc 1 676 19
 3225 0026 B1EE677A 		vneg.f32	s14, s15
 3226              		.loc 1 676 27
 3227 002a F0EE006A 		vmov.f32	s13, #2.0e+0
 3228 002e C7EE267A 		vdiv.f32	s15, s14, s13
 675:Src/app.c     ****   const float corners_init[4][2] = {
 3229              		.loc 1 675 15
 3230 0032 C7ED047A 		vstr.32	s15, [r7, #16]
 677:Src/app.c     ****     { roi->w / 2, -roi->h / 2},
ARM GAS  /tmp/ccrysqwW.s 			page 81


 3231              		.loc 1 677 10
 3232 0036 7B68     		ldr	r3, [r7, #4]
 3233 0038 93ED027A 		vldr.32	s14, [r3, #8]
 3234              		.loc 1 677 14
 3235 003c F0EE006A 		vmov.f32	s13, #2.0e+0
 3236 0040 C7EE267A 		vdiv.f32	s15, s14, s13
 675:Src/app.c     ****   const float corners_init[4][2] = {
 3237              		.loc 1 675 15
 3238 0044 C7ED057A 		vstr.32	s15, [r7, #20]
 3239              		.loc 1 677 23
 3240 0048 7B68     		ldr	r3, [r7, #4]
 3241 004a D3ED037A 		vldr.32	s15, [r3, #12]
 3242              		.loc 1 677 19
 3243 004e B1EE677A 		vneg.f32	s14, s15
 3244              		.loc 1 677 27
 3245 0052 F0EE006A 		vmov.f32	s13, #2.0e+0
 3246 0056 C7EE267A 		vdiv.f32	s15, s14, s13
 675:Src/app.c     ****   const float corners_init[4][2] = {
 3247              		.loc 1 675 15
 3248 005a C7ED067A 		vstr.32	s15, [r7, #24]
 678:Src/app.c     ****     { roi->w / 2,  roi->h / 2},
 3249              		.loc 1 678 10
 3250 005e 7B68     		ldr	r3, [r7, #4]
 3251 0060 93ED027A 		vldr.32	s14, [r3, #8]
 3252              		.loc 1 678 14
 3253 0064 F0EE006A 		vmov.f32	s13, #2.0e+0
 3254 0068 C7EE267A 		vdiv.f32	s15, s14, s13
 675:Src/app.c     ****   const float corners_init[4][2] = {
 3255              		.loc 1 675 15
 3256 006c C7ED077A 		vstr.32	s15, [r7, #28]
 3257              		.loc 1 678 23
 3258 0070 7B68     		ldr	r3, [r7, #4]
 3259 0072 93ED037A 		vldr.32	s14, [r3, #12]
 3260              		.loc 1 678 27
 3261 0076 F0EE006A 		vmov.f32	s13, #2.0e+0
 3262 007a C7EE267A 		vdiv.f32	s15, s14, s13
 675:Src/app.c     ****   const float corners_init[4][2] = {
 3263              		.loc 1 675 15
 3264 007e C7ED087A 		vstr.32	s15, [r7, #32]
 679:Src/app.c     ****     {-roi->w / 2,  roi->h / 2},
 3265              		.loc 1 679 10
 3266 0082 7B68     		ldr	r3, [r7, #4]
 3267 0084 D3ED027A 		vldr.32	s15, [r3, #8]
 3268              		.loc 1 679 6
 3269 0088 B1EE677A 		vneg.f32	s14, s15
 3270              		.loc 1 679 14
 3271 008c F0EE006A 		vmov.f32	s13, #2.0e+0
 3272 0090 C7EE267A 		vdiv.f32	s15, s14, s13
 675:Src/app.c     ****     {-roi->w / 2, -roi->h / 2},
 3273              		.loc 1 675 15
 3274 0094 C7ED097A 		vstr.32	s15, [r7, #36]
 3275              		.loc 1 679 23
 3276 0098 7B68     		ldr	r3, [r7, #4]
 3277 009a 93ED037A 		vldr.32	s14, [r3, #12]
 3278              		.loc 1 679 27
 3279 009e F0EE006A 		vmov.f32	s13, #2.0e+0
 3280 00a2 C7EE267A 		vdiv.f32	s15, s14, s13
ARM GAS  /tmp/ccrysqwW.s 			page 82


 675:Src/app.c     ****     {-roi->w / 2, -roi->h / 2},
 3281              		.loc 1 675 15
 3282 00a6 C7ED0A7A 		vstr.32	s15, [r7, #40]
 680:Src/app.c     ****   };
 681:Src/app.c     ****   int i;
 682:Src/app.c     **** 
 683:Src/app.c     ****   memcpy(corners, corners_init, sizeof(corners_init));
 3283              		.loc 1 683 3
 3284 00aa 07F10C03 		add	r3, r7, #12
 3285 00ae 2022     		movs	r2, #32
 3286 00b0 1946     		mov	r1, r3
 3287 00b2 3868     		ldr	r0, [r7]
 3288 00b4 FFF7FEFF 		bl	memcpy
 684:Src/app.c     ****   /* rotate */
 685:Src/app.c     ****   /*
 686:Src/app.c     ****   for (i = 0; i < 4; i++)
 687:Src/app.c     ****     rotate_point(corners[i], roi->rotation);
 688:Src/app.c     ****   */
 689:Src/app.c     ****   /* shift */
 690:Src/app.c     ****   for (i = 0; i < 4; i++) {
 3289              		.loc 1 690 10
 3290 00b8 0023     		movs	r3, #0
 3291 00ba FB62     		str	r3, [r7, #44]
 3292              		.loc 1 690 3
 3293 00bc 24E0     		b	.L149
 3294              	.L150:
 691:Src/app.c     ****     corners[i][0] += roi->cx;
 3295              		.loc 1 691 12
 3296 00be FB6A     		ldr	r3, [r7, #44]
 3297 00c0 DB00     		lsls	r3, r3, #3
 3298 00c2 3A68     		ldr	r2, [r7]
 3299 00c4 1344     		add	r3, r3, r2
 3300              		.loc 1 691 15
 3301 00c6 93ED007A 		vldr.32	s14, [r3]
 3302              		.loc 1 691 25
 3303 00ca 7B68     		ldr	r3, [r7, #4]
 3304 00cc D3ED007A 		vldr.32	s15, [r3]
 3305              		.loc 1 691 12
 3306 00d0 FB6A     		ldr	r3, [r7, #44]
 3307 00d2 DB00     		lsls	r3, r3, #3
 3308 00d4 3A68     		ldr	r2, [r7]
 3309 00d6 1344     		add	r3, r3, r2
 3310              		.loc 1 691 19
 3311 00d8 77EE277A 		vadd.f32	s15, s14, s15
 3312 00dc C3ED007A 		vstr.32	s15, [r3]
 692:Src/app.c     ****     corners[i][1] += roi->cy;
 3313              		.loc 1 692 12
 3314 00e0 FB6A     		ldr	r3, [r7, #44]
 3315 00e2 DB00     		lsls	r3, r3, #3
 3316 00e4 3A68     		ldr	r2, [r7]
 3317 00e6 1344     		add	r3, r3, r2
 3318              		.loc 1 692 15
 3319 00e8 93ED017A 		vldr.32	s14, [r3, #4]
 3320              		.loc 1 692 25
 3321 00ec 7B68     		ldr	r3, [r7, #4]
 3322 00ee D3ED017A 		vldr.32	s15, [r3, #4]
 3323              		.loc 1 692 12
ARM GAS  /tmp/ccrysqwW.s 			page 83


 3324 00f2 FB6A     		ldr	r3, [r7, #44]
 3325 00f4 DB00     		lsls	r3, r3, #3
 3326 00f6 3A68     		ldr	r2, [r7]
 3327 00f8 1344     		add	r3, r3, r2
 3328              		.loc 1 692 19
 3329 00fa 77EE277A 		vadd.f32	s15, s14, s15
 3330 00fe C3ED017A 		vstr.32	s15, [r3, #4]
 690:Src/app.c     ****     corners[i][0] += roi->cx;
 3331              		.loc 1 690 23 discriminator 3
 3332 0102 FB6A     		ldr	r3, [r7, #44]
 3333 0104 0133     		adds	r3, r3, #1
 3334 0106 FB62     		str	r3, [r7, #44]
 3335              	.L149:
 690:Src/app.c     ****     corners[i][0] += roi->cx;
 3336              		.loc 1 690 17 discriminator 1
 3337 0108 FB6A     		ldr	r3, [r7, #44]
 3338 010a 032B     		cmp	r3, #3
 3339 010c D7DD     		ble	.L150
 693:Src/app.c     ****   }
 694:Src/app.c     **** }
 3340              		.loc 1 694 1
 3341 010e 00BF     		nop
 3342 0110 00BF     		nop
 3343 0112 3037     		adds	r7, r7, #48
 3344              		.cfi_def_cfa_offset 8
 3345 0114 BD46     		mov	sp, r7
 3346              		.cfi_def_cfa_register 13
 3347              		@ sp needed
 3348 0116 80BD     		pop	{r7, pc}
 3349              		.cfi_endproc
 3350              	.LFE7385:
 3352              		.section	.text.clamp_corners,"ax",%progbits
 3353              		.align	1
 3354              		.syntax unified
 3355              		.thumb
 3356              		.thumb_func
 3358              	clamp_corners:
 3359              	.LFB7386:
 695:Src/app.c     **** 
 696:Src/app.c     **** static int clamp_corners(float corners_in[4][2], int corners_out[4][2])
 697:Src/app.c     **** {
 3360              		.loc 1 697 1
 3361              		.cfi_startproc
 3362              		@ args = 0, pretend = 0, frame = 16
 3363              		@ frame_needed = 1, uses_anonymous_args = 0
 3364 0000 80B5     		push	{r7, lr}
 3365              		.cfi_def_cfa_offset 8
 3366              		.cfi_offset 7, -8
 3367              		.cfi_offset 14, -4
 3368 0002 84B0     		sub	sp, sp, #16
 3369              		.cfi_def_cfa_offset 24
 3370 0004 00AF     		add	r7, sp, #0
 3371              		.cfi_def_cfa_register 7
 3372 0006 7860     		str	r0, [r7, #4]
 3373 0008 3960     		str	r1, [r7]
 698:Src/app.c     ****   int is_clamp = 0;
 3374              		.loc 1 698 7
ARM GAS  /tmp/ccrysqwW.s 			page 84


 3375 000a 0023     		movs	r3, #0
 3376 000c FB60     		str	r3, [r7, #12]
 699:Src/app.c     ****   int i;
 700:Src/app.c     **** 
 701:Src/app.c     ****   for (i = 0; i < 4; i++) {
 3377              		.loc 1 701 10
 3378 000e 0023     		movs	r3, #0
 3379 0010 BB60     		str	r3, [r7, #8]
 3380              		.loc 1 701 3
 3381 0012 31E0     		b	.L152
 3382              	.L153:
 702:Src/app.c     ****     corners_out[i][0] = (int)corners_in[i][0];
 3383              		.loc 1 702 40
 3384 0014 BB68     		ldr	r3, [r7, #8]
 3385 0016 DB00     		lsls	r3, r3, #3
 3386 0018 7A68     		ldr	r2, [r7, #4]
 3387 001a 1344     		add	r3, r3, r2
 3388              		.loc 1 702 43
 3389 001c D3ED007A 		vldr.32	s15, [r3]
 3390              		.loc 1 702 16
 3391 0020 BB68     		ldr	r3, [r7, #8]
 3392 0022 DB00     		lsls	r3, r3, #3
 3393 0024 3A68     		ldr	r2, [r7]
 3394 0026 1344     		add	r3, r3, r2
 3395              		.loc 1 702 25
 3396 0028 FDEEE77A 		vcvt.s32.f32	s15, s15
 3397 002c 17EE902A 		vmov	r2, s15	@ int
 3398              		.loc 1 702 23
 3399 0030 1A60     		str	r2, [r3]
 703:Src/app.c     ****     corners_out[i][1] = (int)corners_in[i][1];
 3400              		.loc 1 703 40
 3401 0032 BB68     		ldr	r3, [r7, #8]
 3402 0034 DB00     		lsls	r3, r3, #3
 3403 0036 7A68     		ldr	r2, [r7, #4]
 3404 0038 1344     		add	r3, r3, r2
 3405              		.loc 1 703 43
 3406 003a D3ED017A 		vldr.32	s15, [r3, #4]
 3407              		.loc 1 703 16
 3408 003e BB68     		ldr	r3, [r7, #8]
 3409 0040 DB00     		lsls	r3, r3, #3
 3410 0042 3A68     		ldr	r2, [r7]
 3411 0044 1344     		add	r3, r3, r2
 3412              		.loc 1 703 25
 3413 0046 FDEEE77A 		vcvt.s32.f32	s15, s15
 3414 004a 17EE902A 		vmov	r2, s15	@ int
 3415              		.loc 1 703 23
 3416 004e 5A60     		str	r2, [r3, #4]
 704:Src/app.c     ****     is_clamp |= clamp_point(&corners_out[i][0], &corners_out[i][1]);
 3417              		.loc 1 704 41
 3418 0050 BB68     		ldr	r3, [r7, #8]
 3419 0052 DB00     		lsls	r3, r3, #3
 3420 0054 3A68     		ldr	r2, [r7]
 3421 0056 1344     		add	r3, r3, r2
 3422              		.loc 1 704 17
 3423 0058 1846     		mov	r0, r3
 3424              		.loc 1 704 61
 3425 005a BB68     		ldr	r3, [r7, #8]
ARM GAS  /tmp/ccrysqwW.s 			page 85


 3426 005c DB00     		lsls	r3, r3, #3
 3427 005e 3A68     		ldr	r2, [r7]
 3428 0060 1344     		add	r3, r3, r2
 3429              		.loc 1 704 17
 3430 0062 0433     		adds	r3, r3, #4
 3431 0064 1946     		mov	r1, r3
 3432 0066 FFF7FEFF 		bl	clamp_point
 3433 006a 0246     		mov	r2, r0
 3434              		.loc 1 704 14 discriminator 1
 3435 006c FB68     		ldr	r3, [r7, #12]
 3436 006e 1343     		orrs	r3, r3, r2
 3437 0070 FB60     		str	r3, [r7, #12]
 701:Src/app.c     ****     corners_out[i][0] = (int)corners_in[i][0];
 3438              		.loc 1 701 23 discriminator 3
 3439 0072 BB68     		ldr	r3, [r7, #8]
 3440 0074 0133     		adds	r3, r3, #1
 3441 0076 BB60     		str	r3, [r7, #8]
 3442              	.L152:
 701:Src/app.c     ****     corners_out[i][0] = (int)corners_in[i][0];
 3443              		.loc 1 701 17 discriminator 1
 3444 0078 BB68     		ldr	r3, [r7, #8]
 3445 007a 032B     		cmp	r3, #3
 3446 007c CADD     		ble	.L153
 705:Src/app.c     ****   }
 706:Src/app.c     **** 
 707:Src/app.c     ****   return is_clamp;
 3447              		.loc 1 707 10
 3448 007e FB68     		ldr	r3, [r7, #12]
 708:Src/app.c     **** }
 3449              		.loc 1 708 1
 3450 0080 1846     		mov	r0, r3
 3451 0082 1037     		adds	r7, r7, #16
 3452              		.cfi_def_cfa_offset 8
 3453 0084 BD46     		mov	sp, r7
 3454              		.cfi_def_cfa_register 13
 3455              		@ sp needed
 3456 0086 80BD     		pop	{r7, pc}
 3457              		.cfi_endproc
 3458              	.LFE7386:
 3460              		.section	.text.display_roi,"ax",%progbits
 3461              		.align	1
 3462              		.syntax unified
 3463              		.thumb
 3464              		.thumb_func
 3466              	display_roi:
 3467              	.LFB7387:
 709:Src/app.c     **** 
 710:Src/app.c     **** static void display_roi(roi_t *roi)
 711:Src/app.c     **** {
 3468              		.loc 1 711 1
 3469              		.cfi_startproc
 3470              		@ args = 0, pretend = 0, frame = 80
 3471              		@ frame_needed = 1, uses_anonymous_args = 0
 3472 0000 90B5     		push	{r4, r7, lr}
 3473              		.cfi_def_cfa_offset 12
 3474              		.cfi_offset 4, -12
 3475              		.cfi_offset 7, -8
ARM GAS  /tmp/ccrysqwW.s 			page 86


 3476              		.cfi_offset 14, -4
 3477 0002 97B0     		sub	sp, sp, #92
 3478              		.cfi_def_cfa_offset 104
 3479 0004 02AF     		add	r7, sp, #8
 3480              		.cfi_def_cfa 7, 96
 3481 0006 7860     		str	r0, [r7, #4]
 712:Src/app.c     ****   float corners_f[4][2];
 713:Src/app.c     ****   int corners[4][2];
 714:Src/app.c     ****   int is_clamp;
 715:Src/app.c     ****   int i;
 716:Src/app.c     **** 
 717:Src/app.c     ****   /* compute box corners */
 718:Src/app.c     ****   roi_to_corners(roi, corners_f);
 3482              		.loc 1 718 3
 3483 0008 07F12803 		add	r3, r7, #40
 3484 000c 1946     		mov	r1, r3
 3485 000e 7868     		ldr	r0, [r7, #4]
 3486 0010 FFF7FEFF 		bl	roi_to_corners
 719:Src/app.c     **** 
 720:Src/app.c     ****   /* clamp */
 721:Src/app.c     ****   is_clamp = clamp_corners(corners_f, corners);
 3487              		.loc 1 721 14
 3488 0014 07F10802 		add	r2, r7, #8
 3489 0018 07F12803 		add	r3, r7, #40
 3490 001c 1146     		mov	r1, r2
 3491 001e 1846     		mov	r0, r3
 3492 0020 FFF7FEFF 		bl	clamp_corners
 3493 0024 B864     		str	r0, [r7, #72]
 722:Src/app.c     ****   if (is_clamp)
 3494              		.loc 1 722 6
 3495 0026 BB6C     		ldr	r3, [r7, #72]
 3496 0028 002B     		cmp	r3, #0
 3497 002a 3BD1     		bne	.L160
 723:Src/app.c     ****     return ;
 724:Src/app.c     **** 
 725:Src/app.c     ****   /* display */
 726:Src/app.c     ****   for (i = 0; i < 4; i++)
 3498              		.loc 1 726 10
 3499 002c 0023     		movs	r3, #0
 3500 002e FB64     		str	r3, [r7, #76]
 3501              		.loc 1 726 3
 3502 0030 34E0     		b	.L158
 3503              	.L159:
 727:Src/app.c     ****     UTIL_LCD_DrawLine(corners[i][0], corners[i][1], corners[(i + 1) % 4][0], corners[(i + 1) % 4][1
 3504              		.loc 1 727 33
 3505 0032 FB6C     		ldr	r3, [r7, #76]
 3506 0034 DB00     		lsls	r3, r3, #3
 3507 0036 5033     		adds	r3, r3, #80
 3508 0038 3B44     		add	r3, r3, r7
 3509 003a 53F8483C 		ldr	r3, [r3, #-72]
 3510              		.loc 1 727 5
 3511 003e 1846     		mov	r0, r3
 3512              		.loc 1 727 48
 3513 0040 FB6C     		ldr	r3, [r7, #76]
 3514 0042 DB00     		lsls	r3, r3, #3
 3515 0044 5033     		adds	r3, r3, #80
 3516 0046 3B44     		add	r3, r3, r7
ARM GAS  /tmp/ccrysqwW.s 			page 87


 3517 0048 53F8443C 		ldr	r3, [r3, #-68]
 3518              		.loc 1 727 5
 3519 004c 1946     		mov	r1, r3
 3520              		.loc 1 727 64
 3521 004e FB6C     		ldr	r3, [r7, #76]
 3522 0050 0133     		adds	r3, r3, #1
 3523              		.loc 1 727 69
 3524 0052 5A42     		rsbs	r2, r3, #0
 3525 0054 03F00303 		and	r3, r3, #3
 3526 0058 02F00302 		and	r2, r2, #3
 3527 005c 53EA42B3 		csneg	r3, r3, r2, mi
 3528              		.loc 1 727 73
 3529 0060 DB00     		lsls	r3, r3, #3
 3530 0062 5033     		adds	r3, r3, #80
 3531 0064 3B44     		add	r3, r3, r7
 3532 0066 53F8483C 		ldr	r3, [r3, #-72]
 3533              		.loc 1 727 5
 3534 006a 1C46     		mov	r4, r3
 3535              		.loc 1 727 89
 3536 006c FB6C     		ldr	r3, [r7, #76]
 3537 006e 0133     		adds	r3, r3, #1
 3538              		.loc 1 727 94
 3539 0070 5A42     		rsbs	r2, r3, #0
 3540 0072 03F00303 		and	r3, r3, #3
 3541 0076 02F00302 		and	r2, r2, #3
 3542 007a 53EA42B3 		csneg	r3, r3, r2, mi
 3543              		.loc 1 727 98
 3544 007e DB00     		lsls	r3, r3, #3
 3545 0080 5033     		adds	r3, r3, #80
 3546 0082 3B44     		add	r3, r3, r7
 3547 0084 53F8443C 		ldr	r3, [r3, #-68]
 3548              		.loc 1 727 5
 3549 0088 1A46     		mov	r2, r3
 3550 008a 084B     		ldr	r3, .L161
 3551 008c 0093     		str	r3, [sp]
 3552 008e 1346     		mov	r3, r2
 3553 0090 2246     		mov	r2, r4
 3554 0092 FFF7FEFF 		bl	UTIL_LCD_DrawLine
 726:Src/app.c     ****     UTIL_LCD_DrawLine(corners[i][0], corners[i][1], corners[(i + 1) % 4][0], corners[(i + 1) % 4][1
 3555              		.loc 1 726 23 discriminator 3
 3556 0096 FB6C     		ldr	r3, [r7, #76]
 3557 0098 0133     		adds	r3, r3, #1
 3558 009a FB64     		str	r3, [r7, #76]
 3559              	.L158:
 726:Src/app.c     ****     UTIL_LCD_DrawLine(corners[i][0], corners[i][1], corners[(i + 1) % 4][0], corners[(i + 1) % 4][1
 3560              		.loc 1 726 17 discriminator 1
 3561 009c FB6C     		ldr	r3, [r7, #76]
 3562 009e 032B     		cmp	r3, #3
 3563 00a0 C7DD     		ble	.L159
 3564 00a2 00E0     		b	.L155
 3565              	.L160:
 723:Src/app.c     ****     return ;
 3566              		.loc 1 723 5 discriminator 1
 3567 00a4 00BF     		nop
 3568              	.L155:
 728:Src/app.c     ****                       UTIL_LCD_COLOR_RED);
 729:Src/app.c     **** }
ARM GAS  /tmp/ccrysqwW.s 			page 88


 3569              		.loc 1 729 1
 3570 00a6 5437     		adds	r7, r7, #84
 3571              		.cfi_def_cfa_offset 12
 3572 00a8 BD46     		mov	sp, r7
 3573              		.cfi_def_cfa_register 13
 3574              		@ sp needed
 3575 00aa 90BD     		pop	{r4, r7, pc}
 3576              	.L162:
 3577              		.align	2
 3578              	.L161:
 3579 00ac 0000FFFF 		.word	-65536
 3580              		.cfi_endproc
 3581              	.LFE7387:
 3583              		.section	.text.decode_ld_landmark,"ax",%progbits
 3584              		.align	1
 3585              		.syntax unified
 3586              		.thumb
 3587              		.thumb_func
 3589              	decode_ld_landmark:
 3590              	.LFB7388:
 730:Src/app.c     **** 
 731:Src/app.c     **** static void decode_ld_landmark(roi_t *roi, ld_point_t *lm, ld_point_t *decoded)
 732:Src/app.c     **** {
 3591              		.loc 1 732 1
 3592              		.cfi_startproc
 3593              		@ args = 0, pretend = 0, frame = 32
 3594              		@ frame_needed = 1, uses_anonymous_args = 0
 3595 0000 80B5     		push	{r7, lr}
 3596              		.cfi_def_cfa_offset 8
 3597              		.cfi_offset 7, -8
 3598              		.cfi_offset 14, -4
 3599 0002 2DED048B 		vpush.64	{d8, d9}
 3600              		.cfi_def_cfa_offset 24
 3601              		.cfi_offset 80, -24
 3602              		.cfi_offset 81, -20
 3603              		.cfi_offset 82, -16
 3604              		.cfi_offset 83, -12
 3605 0006 88B0     		sub	sp, sp, #32
 3606              		.cfi_def_cfa_offset 56
 3607 0008 00AF     		add	r7, sp, #0
 3608              		.cfi_def_cfa_register 7
 3609 000a F860     		str	r0, [r7, #12]
 3610 000c B960     		str	r1, [r7, #8]
 3611 000e 7A60     		str	r2, [r7, #4]
 733:Src/app.c     ****   float rotation = roi->rotation;
 3612              		.loc 1 733 9
 3613 0010 FB68     		ldr	r3, [r7, #12]
 3614 0012 1B69     		ldr	r3, [r3, #16]	@ float
 3615 0014 FB61     		str	r3, [r7, #28]	@ float
 734:Src/app.c     ****   float w = roi->w;
 3616              		.loc 1 734 9
 3617 0016 FB68     		ldr	r3, [r7, #12]
 3618 0018 9B68     		ldr	r3, [r3, #8]	@ float
 3619 001a BB61     		str	r3, [r7, #24]	@ float
 735:Src/app.c     ****   float h = roi->h;
 3620              		.loc 1 735 9
 3621 001c FB68     		ldr	r3, [r7, #12]
ARM GAS  /tmp/ccrysqwW.s 			page 89


 3622 001e DB68     		ldr	r3, [r3, #12]	@ float
 3623 0020 7B61     		str	r3, [r7, #20]	@ float
 736:Src/app.c     **** 
 737:Src/app.c     ****   decoded->x = roi->cx + (lm->x - 0.5) * w * cos(rotation) - (lm->y - 0.5) * h * sin(rotation);
 3624              		.loc 1 737 19
 3625 0022 FB68     		ldr	r3, [r7, #12]
 3626 0024 D3ED007A 		vldr.32	s15, [r3]
 3627 0028 B7EEE78A 		vcvt.f64.f32	d8, s15
 3628              		.loc 1 737 29
 3629 002c BB68     		ldr	r3, [r7, #8]
 3630 002e D3ED007A 		vldr.32	s15, [r3]
 3631 0032 B7EEE77A 		vcvt.f64.f32	d7, s15
 3632              		.loc 1 737 33
 3633 0036 B6EE006B 		vmov.f64	d6, #5.0e-1
 3634 003a 37EE466B 		vsub.f64	d6, d7, d6
 3635              		.loc 1 737 40
 3636 003e D7ED067A 		vldr.32	s15, [r7, #24]
 3637 0042 B7EEE77A 		vcvt.f64.f32	d7, s15
 3638 0046 26EE079B 		vmul.f64	d9, d6, d7
 3639              		.loc 1 737 46
 3640 004a D7ED077A 		vldr.32	s15, [r7, #28]
 3641 004e B7EEE77A 		vcvt.f64.f32	d7, s15
 3642 0052 B0EE470B 		vmov.f64	d0, d7
 3643 0056 FFF7FEFF 		bl	cos
 3644 005a B0EE407B 		vmov.f64	d7, d0
 3645              		.loc 1 737 44 discriminator 1
 3646 005e 29EE077B 		vmul.f64	d7, d9, d7
 3647              		.loc 1 737 24 discriminator 1
 3648 0062 38EE078B 		vadd.f64	d8, d8, d7
 3649              		.loc 1 737 65 discriminator 1
 3650 0066 BB68     		ldr	r3, [r7, #8]
 3651 0068 D3ED017A 		vldr.32	s15, [r3, #4]
 3652 006c B7EEE77A 		vcvt.f64.f32	d7, s15
 3653              		.loc 1 737 69 discriminator 1
 3654 0070 B6EE006B 		vmov.f64	d6, #5.0e-1
 3655 0074 37EE466B 		vsub.f64	d6, d7, d6
 3656              		.loc 1 737 76 discriminator 1
 3657 0078 D7ED057A 		vldr.32	s15, [r7, #20]
 3658 007c B7EEE77A 		vcvt.f64.f32	d7, s15
 3659 0080 26EE079B 		vmul.f64	d9, d6, d7
 3660              		.loc 1 737 82 discriminator 1
 3661 0084 D7ED077A 		vldr.32	s15, [r7, #28]
 3662 0088 B7EEE77A 		vcvt.f64.f32	d7, s15
 3663 008c B0EE470B 		vmov.f64	d0, d7
 3664 0090 FFF7FEFF 		bl	sin
 3665 0094 B0EE407B 		vmov.f64	d7, d0
 3666              		.loc 1 737 80 discriminator 2
 3667 0098 29EE077B 		vmul.f64	d7, d9, d7
 3668              		.loc 1 737 60 discriminator 2
 3669 009c 38EE477B 		vsub.f64	d7, d8, d7
 3670 00a0 F7EEC77B 		vcvt.f32.f64	s15, d7
 3671              		.loc 1 737 14 discriminator 2
 3672 00a4 7B68     		ldr	r3, [r7, #4]
 3673 00a6 C3ED007A 		vstr.32	s15, [r3]
 738:Src/app.c     ****   decoded->y = roi->cy + (lm->x - 0.5) * w * sin(rotation) + (lm->y - 0.5) * h * cos(rotation);
 3674              		.loc 1 738 19
 3675 00aa FB68     		ldr	r3, [r7, #12]
ARM GAS  /tmp/ccrysqwW.s 			page 90


 3676 00ac D3ED017A 		vldr.32	s15, [r3, #4]
 3677 00b0 B7EEE78A 		vcvt.f64.f32	d8, s15
 3678              		.loc 1 738 29
 3679 00b4 BB68     		ldr	r3, [r7, #8]
 3680 00b6 D3ED007A 		vldr.32	s15, [r3]
 3681 00ba B7EEE77A 		vcvt.f64.f32	d7, s15
 3682              		.loc 1 738 33
 3683 00be B6EE006B 		vmov.f64	d6, #5.0e-1
 3684 00c2 37EE466B 		vsub.f64	d6, d7, d6
 3685              		.loc 1 738 40
 3686 00c6 D7ED067A 		vldr.32	s15, [r7, #24]
 3687 00ca B7EEE77A 		vcvt.f64.f32	d7, s15
 3688 00ce 26EE079B 		vmul.f64	d9, d6, d7
 3689              		.loc 1 738 46
 3690 00d2 D7ED077A 		vldr.32	s15, [r7, #28]
 3691 00d6 B7EEE77A 		vcvt.f64.f32	d7, s15
 3692 00da B0EE470B 		vmov.f64	d0, d7
 3693 00de FFF7FEFF 		bl	sin
 3694 00e2 B0EE407B 		vmov.f64	d7, d0
 3695              		.loc 1 738 44 discriminator 1
 3696 00e6 29EE077B 		vmul.f64	d7, d9, d7
 3697              		.loc 1 738 24 discriminator 1
 3698 00ea 38EE078B 		vadd.f64	d8, d8, d7
 3699              		.loc 1 738 65 discriminator 1
 3700 00ee BB68     		ldr	r3, [r7, #8]
 3701 00f0 D3ED017A 		vldr.32	s15, [r3, #4]
 3702 00f4 B7EEE77A 		vcvt.f64.f32	d7, s15
 3703              		.loc 1 738 69 discriminator 1
 3704 00f8 B6EE006B 		vmov.f64	d6, #5.0e-1
 3705 00fc 37EE466B 		vsub.f64	d6, d7, d6
 3706              		.loc 1 738 76 discriminator 1
 3707 0100 D7ED057A 		vldr.32	s15, [r7, #20]
 3708 0104 B7EEE77A 		vcvt.f64.f32	d7, s15
 3709 0108 26EE079B 		vmul.f64	d9, d6, d7
 3710              		.loc 1 738 82 discriminator 1
 3711 010c D7ED077A 		vldr.32	s15, [r7, #28]
 3712 0110 B7EEE77A 		vcvt.f64.f32	d7, s15
 3713 0114 B0EE470B 		vmov.f64	d0, d7
 3714 0118 FFF7FEFF 		bl	cos
 3715 011c B0EE407B 		vmov.f64	d7, d0
 3716              		.loc 1 738 80 discriminator 2
 3717 0120 29EE077B 		vmul.f64	d7, d9, d7
 3718              		.loc 1 738 60 discriminator 2
 3719 0124 38EE077B 		vadd.f64	d7, d8, d7
 3720 0128 F7EEC77B 		vcvt.f32.f64	s15, d7
 3721              		.loc 1 738 14 discriminator 2
 3722 012c 7B68     		ldr	r3, [r7, #4]
 3723 012e C3ED017A 		vstr.32	s15, [r3, #4]
 739:Src/app.c     **** }
 3724              		.loc 1 739 1
 3725 0132 00BF     		nop
 3726 0134 2037     		adds	r7, r7, #32
 3727              		.cfi_def_cfa_offset 24
 3728 0136 BD46     		mov	sp, r7
 3729              		.cfi_def_cfa_register 13
 3730              		@ sp needed
 3731 0138 BDEC048B 		vldm	sp!, {d8-d9}
ARM GAS  /tmp/ccrysqwW.s 			page 91


 3732              		.cfi_restore 82
 3733              		.cfi_restore 83
 3734              		.cfi_restore 80
 3735              		.cfi_restore 81
 3736              		.cfi_def_cfa_offset 8
 3737 013c 80BD     		pop	{r7, pc}
 3738              		.cfi_endproc
 3739              	.LFE7388:
 3741              		.section	.text.display_ld_hand,"ax",%progbits
 3742              		.align	1
 3743              		.syntax unified
 3744              		.thumb
 3745              		.thumb_func
 3747              	display_ld_hand:
 3748              	.LFB7389:
 740:Src/app.c     **** 
 741:Src/app.c     **** static void display_ld_hand(hand_info_t *hand)
 742:Src/app.c     **** {
 3749              		.loc 1 742 1
 3750              		.cfi_startproc
 3751              		@ args = 0, pretend = 0, frame = 32
 3752              		@ frame_needed = 1, uses_anonymous_args = 0
 3753 0000 80B5     		push	{r7, lr}
 3754              		.cfi_def_cfa_offset 8
 3755              		.cfi_offset 7, -8
 3756              		.cfi_offset 14, -4
 3757 0002 88B0     		sub	sp, sp, #32
 3758              		.cfi_def_cfa_offset 40
 3759 0004 00AF     		add	r7, sp, #0
 3760              		.cfi_def_cfa_register 7
 3761 0006 7860     		str	r0, [r7, #4]
 743:Src/app.c     ****   const int disk_radius = DISK_RADIUS;
 3762              		.loc 1 743 13
 3763 0008 0223     		movs	r3, #2
 3764 000a BB61     		str	r3, [r7, #24]
 744:Src/app.c     ****   roi_t *roi = &hand->roi;
 3765              		.loc 1 744 10
 3766 000c 7B68     		ldr	r3, [r7, #4]
 3767 000e 1C33     		adds	r3, r3, #28
 3768 0010 7B61     		str	r3, [r7, #20]
 745:Src/app.c     ****   static int x[LD_LANDMARK_NB];
 746:Src/app.c     ****   static int y[LD_LANDMARK_NB];
 747:Src/app.c     ****   static int is_clamped[LD_LANDMARK_NB];
 748:Src/app.c     ****   ld_point_t decoded;
 749:Src/app.c     ****   int i;
 750:Src/app.c     **** 
 751:Src/app.c     ****   for (i = 0; i < LD_LANDMARK_NB; i++) {
 3769              		.loc 1 751 10
 3770 0012 0023     		movs	r3, #0
 3771 0014 FB61     		str	r3, [r7, #28]
 3772              		.loc 1 751 3
 3773 0016 32E0     		b	.L165
 3774              	.L166:
 752:Src/app.c     ****     decode_ld_landmark(roi, &hand->ld_landmarks[i], &decoded);
 3775              		.loc 1 752 5
 3776 0018 FB69     		ldr	r3, [r7, #28]
 3777 001a 0633     		adds	r3, r3, #6
ARM GAS  /tmp/ccrysqwW.s 			page 92


 3778 001c DB00     		lsls	r3, r3, #3
 3779 001e 7A68     		ldr	r2, [r7, #4]
 3780 0020 1344     		add	r3, r3, r2
 3781 0022 07F10C02 		add	r2, r7, #12
 3782 0026 1946     		mov	r1, r3
 3783 0028 7869     		ldr	r0, [r7, #20]
 3784 002a FFF7FEFF 		bl	decode_ld_landmark
 753:Src/app.c     ****     x[i] = (int)decoded.x;
 3785              		.loc 1 753 24
 3786 002e D7ED037A 		vldr.32	s15, [r7, #12]
 3787              		.loc 1 753 12
 3788 0032 FDEEE77A 		vcvt.s32.f32	s15, s15
 3789 0036 17EE901A 		vmov	r1, s15	@ int
 3790              		.loc 1 753 10
 3791 003a 264A     		ldr	r2, .L172
 3792 003c FB69     		ldr	r3, [r7, #28]
 3793 003e 42F82310 		str	r1, [r2, r3, lsl #2]
 754:Src/app.c     ****     y[i] = (int)decoded.y;
 3794              		.loc 1 754 24
 3795 0042 D7ED047A 		vldr.32	s15, [r7, #16]
 3796              		.loc 1 754 12
 3797 0046 FDEEE77A 		vcvt.s32.f32	s15, s15
 3798 004a 17EE901A 		vmov	r1, s15	@ int
 3799              		.loc 1 754 10
 3800 004e 224A     		ldr	r2, .L172+4
 3801 0050 FB69     		ldr	r3, [r7, #28]
 3802 0052 42F82310 		str	r1, [r2, r3, lsl #2]
 755:Src/app.c     ****     is_clamped[i] = clamp_point_with_margin(&x[i], &y[i], disk_radius);
 3803              		.loc 1 755 21
 3804 0056 FB69     		ldr	r3, [r7, #28]
 3805 0058 9B00     		lsls	r3, r3, #2
 3806 005a 1E4A     		ldr	r2, .L172
 3807 005c 9818     		adds	r0, r3, r2
 3808 005e FB69     		ldr	r3, [r7, #28]
 3809 0060 9B00     		lsls	r3, r3, #2
 3810 0062 1D4A     		ldr	r2, .L172+4
 3811 0064 1344     		add	r3, r3, r2
 3812 0066 BA69     		ldr	r2, [r7, #24]
 3813 0068 1946     		mov	r1, r3
 3814 006a FFF7FEFF 		bl	clamp_point_with_margin
 3815 006e 0246     		mov	r2, r0
 3816              		.loc 1 755 19 discriminator 1
 3817 0070 1A49     		ldr	r1, .L172+8
 3818 0072 FB69     		ldr	r3, [r7, #28]
 3819 0074 41F82320 		str	r2, [r1, r3, lsl #2]
 751:Src/app.c     ****     decode_ld_landmark(roi, &hand->ld_landmarks[i], &decoded);
 3820              		.loc 1 751 36 discriminator 3
 3821 0078 FB69     		ldr	r3, [r7, #28]
 3822 007a 0133     		adds	r3, r3, #1
 3823 007c FB61     		str	r3, [r7, #28]
 3824              	.L165:
 751:Src/app.c     ****     decode_ld_landmark(roi, &hand->ld_landmarks[i], &decoded);
 3825              		.loc 1 751 17 discriminator 1
 3826 007e FB69     		ldr	r3, [r7, #28]
 3827 0080 B3F5EA7F 		cmp	r3, #468
 3828 0084 C8DB     		blt	.L166
 756:Src/app.c     ****   }
ARM GAS  /tmp/ccrysqwW.s 			page 93


 757:Src/app.c     **** 
 758:Src/app.c     ****   for (i = 0; i < LD_LANDMARK_NB; i++) {
 3829              		.loc 1 758 10
 3830 0086 0023     		movs	r3, #0
 3831 0088 FB61     		str	r3, [r7, #28]
 3832              		.loc 1 758 3
 3833 008a 19E0     		b	.L167
 3834              	.L170:
 759:Src/app.c     ****     if (is_clamped[i])
 3835              		.loc 1 759 19
 3836 008c 134A     		ldr	r2, .L172+8
 3837 008e FB69     		ldr	r3, [r7, #28]
 3838 0090 52F82330 		ldr	r3, [r2, r3, lsl #2]
 3839              		.loc 1 759 8
 3840 0094 002B     		cmp	r3, #0
 3841 0096 0FD1     		bne	.L171
 760:Src/app.c     ****       continue;
 761:Src/app.c     ****     UTIL_LCD_FillCircle(x[i], y[i], disk_radius, UTIL_LCD_COLOR_YELLOW);
 3842              		.loc 1 761 26
 3843 0098 0E4A     		ldr	r2, .L172
 3844 009a FB69     		ldr	r3, [r7, #28]
 3845 009c 52F82330 		ldr	r3, [r2, r3, lsl #2]
 3846              		.loc 1 761 5
 3847 00a0 1846     		mov	r0, r3
 3848              		.loc 1 761 32
 3849 00a2 0D4A     		ldr	r2, .L172+4
 3850 00a4 FB69     		ldr	r3, [r7, #28]
 3851 00a6 52F82330 		ldr	r3, [r2, r3, lsl #2]
 3852              		.loc 1 761 5
 3853 00aa 1946     		mov	r1, r3
