ARM GAS  /tmp/ccI6IEoE.s 			page 1


   1              		.arch armv8.1-m.main
   2              		.fpu fpv5-d16
   3              		.arch_extension dsp
   4              		.arch_extension fp
   5              		.arch_extension fp.dp
   6              		.arch_extension mve
   7              		.arch_extension mve.fp
   8              		.eabi_attribute 5, "cortex-m55"
   9              		.eabi_attribute 28, 1
  10              		.eabi_attribute 20, 1
  11              		.eabi_attribute 21, 1
  12              		.eabi_attribute 23, 3
  13              		.eabi_attribute 24, 1
  14              		.eabi_attribute 25, 1
  15              		.eabi_attribute 26, 1
  16              		.eabi_attribute 30, 6
  17              		.eabi_attribute 34, 1
  18              		.eabi_attribute 38, 1
  19              		.eabi_attribute 18, 4
  20              		.file	"app_fuseprogramming.c"
  21              		.text
  22              	.Ltext0:
  23              		.cfi_sections	.debug_frame
  24              		.file 1 "Src/app_fuseprogramming.c"
  25              		.section	.text.Fuse_Programming,"ax",%progbits
  26              		.align	1
  27              		.global	Fuse_Programming
  28              		.syntax unified
  29              		.thumb
  30              		.thumb_func
  32              	Fuse_Programming:
  33              	.LFB238:
   1:Src/app_fuseprogramming.c ****  /**
   2:Src/app_fuseprogramming.c ****  ******************************************************************************
   3:Src/app_fuseprogramming.c ****  * @file    app_fuseprogramming.c
   4:Src/app_fuseprogramming.c ****  * @author  GPM Application Team
   5:Src/app_fuseprogramming.c ****  *
   6:Src/app_fuseprogramming.c ****  ******************************************************************************
   7:Src/app_fuseprogramming.c ****  * @attention
   8:Src/app_fuseprogramming.c ****  *
   9:Src/app_fuseprogramming.c ****  * Copyright (c) 2023 STMicroelectronics.
  10:Src/app_fuseprogramming.c ****  * All rights reserved.
  11:Src/app_fuseprogramming.c ****  *
  12:Src/app_fuseprogramming.c ****  * This software is licensed under terms that can be found in the LICENSE file
  13:Src/app_fuseprogramming.c ****  * in the root directory of this software component.
  14:Src/app_fuseprogramming.c ****  * If no LICENSE file comes with this software, it is provided AS-IS.
  15:Src/app_fuseprogramming.c ****  *
  16:Src/app_fuseprogramming.c ****  ******************************************************************************
  17:Src/app_fuseprogramming.c ****  */
  18:Src/app_fuseprogramming.c **** 
  19:Src/app_fuseprogramming.c **** #include "stm32n6xx_hal_bsec.h"
  20:Src/app_fuseprogramming.c **** static void ErrorHandler(void);
  21:Src/app_fuseprogramming.c **** 
  22:Src/app_fuseprogramming.c **** #define BSEC_HW_CONFIG_ID        124U
  23:Src/app_fuseprogramming.c **** #define BSEC_HWS_HSLV_VDDIO3     15U
  24:Src/app_fuseprogramming.c **** #define BSEC_HWS_HSLV_VDDIO2     16U
  25:Src/app_fuseprogramming.c **** 
ARM GAS  /tmp/ccI6IEoE.s 			page 2


  26:Src/app_fuseprogramming.c **** #define BSEC_FUSE_ADDRESS        BSEC_HW_CONFIG_ID
  27:Src/app_fuseprogramming.c **** #define BSEC_FUSE_MASK           ((uint32_t)((1U << BSEC_HWS_HSLV_VDDIO3) | (1U << BSEC_HWS_HSLV_VD
  28:Src/app_fuseprogramming.c **** 
  29:Src/app_fuseprogramming.c **** 
  30:Src/app_fuseprogramming.c **** 
  31:Src/app_fuseprogramming.c **** 
  32:Src/app_fuseprogramming.c **** /**
  33:Src/app_fuseprogramming.c ****   * @brief  Check specific fuse configuration and update it if needed.
  34:Src/app_fuseprogramming.c ****   * @retval None
  35:Src/app_fuseprogramming.c ****   */
  36:Src/app_fuseprogramming.c **** void Fuse_Programming(void)
  37:Src/app_fuseprogramming.c **** {
  34              		.loc 1 37 1
  35              		.cfi_startproc
  36              		@ args = 0, pretend = 0, frame = 24
  37              		@ frame_needed = 1, uses_anonymous_args = 0
  38 0000 80B5     		push	{r7, lr}
  39              		.cfi_def_cfa_offset 8
  40              		.cfi_offset 7, -8
  41              		.cfi_offset 14, -4
  42 0002 86B0     		sub	sp, sp, #24
  43              		.cfi_def_cfa_offset 32
  44 0004 00AF     		add	r7, sp, #0
  45              		.cfi_def_cfa_register 7
  38:Src/app_fuseprogramming.c ****   uint32_t fuse_id, bit_mask, data;
  39:Src/app_fuseprogramming.c **** 
  40:Src/app_fuseprogramming.c ****   BSEC_HandleTypeDef sBsecHandler;
  41:Src/app_fuseprogramming.c **** 
  42:Src/app_fuseprogramming.c ****   sBsecHandler.Instance = BSEC;
  46              		.loc 1 42 25
  47 0006 214B     		ldr	r3, .L7
  48 0008 7B60     		str	r3, [r7, #4]
  43:Src/app_fuseprogramming.c **** 
  44:Src/app_fuseprogramming.c ****   /* Read current value of fuse */
  45:Src/app_fuseprogramming.c ****   fuse_id = BSEC_FUSE_ADDRESS;
  49              		.loc 1 45 11
  50 000a 7C23     		movs	r3, #124
  51 000c 7B61     		str	r3, [r7, #20]
  46:Src/app_fuseprogramming.c ****   if (HAL_BSEC_OTP_Read(&sBsecHandler, fuse_id, &data) == HAL_OK)
  52              		.loc 1 46 7
  53 000e 07F10C02 		add	r2, r7, #12
  54 0012 3B1D     		adds	r3, r7, #4
  55 0014 7969     		ldr	r1, [r7, #20]
  56 0016 1846     		mov	r0, r3
  57 0018 FFF7FEFF 		bl	HAL_BSEC_OTP_Read
  58 001c 0346     		mov	r3, r0
  59              		.loc 1 46 6 discriminator 1
  60 001e 002B     		cmp	r3, #0
  61 0020 2ED1     		bne	.L2
  47:Src/app_fuseprogramming.c ****   {
  48:Src/app_fuseprogramming.c ****     /* Check if bit has already been set */
  49:Src/app_fuseprogramming.c ****     bit_mask = BSEC_FUSE_MASK;
  62              		.loc 1 49 14
  63 0022 4FF4C033 		mov	r3, #98304
  64 0026 3B61     		str	r3, [r7, #16]
  50:Src/app_fuseprogramming.c ****     if ((data & bit_mask) != bit_mask)
  65              		.loc 1 50 15
ARM GAS  /tmp/ccI6IEoE.s 			page 3


  66 0028 FA68     		ldr	r2, [r7, #12]
  67 002a 3B69     		ldr	r3, [r7, #16]
  68 002c 1340     		ands	r3, r3, r2
  69              		.loc 1 50 8
  70 002e 3A69     		ldr	r2, [r7, #16]
  71 0030 9A42     		cmp	r2, r3
  72 0032 27D0     		beq	.L6
  51:Src/app_fuseprogramming.c ****     {
  52:Src/app_fuseprogramming.c ****       data |= bit_mask;
  73              		.loc 1 52 12
  74 0034 FA68     		ldr	r2, [r7, #12]
  75 0036 3B69     		ldr	r3, [r7, #16]
  76 0038 1343     		orrs	r3, r3, r2
  77 003a FB60     		str	r3, [r7, #12]
  53:Src/app_fuseprogramming.c ****       /* Bitwise programming of lower bits */
  54:Src/app_fuseprogramming.c ****       if (HAL_BSEC_OTP_Program(&sBsecHandler, fuse_id, data, HAL_BSEC_NORMAL_PROG) == HAL_OK)
  78              		.loc 1 54 11
  79 003c FA68     		ldr	r2, [r7, #12]
  80 003e 381D     		adds	r0, r7, #4
  81 0040 0023     		movs	r3, #0
  82 0042 7969     		ldr	r1, [r7, #20]
  83 0044 FFF7FEFF 		bl	HAL_BSEC_OTP_Program
  84 0048 0346     		mov	r3, r0
  85              		.loc 1 54 10 discriminator 1
  86 004a 002B     		cmp	r3, #0
  87 004c 15D1     		bne	.L4
  55:Src/app_fuseprogramming.c ****       {
  56:Src/app_fuseprogramming.c ****         /* Read lower bits to verify the correct programming */
  57:Src/app_fuseprogramming.c ****         if (HAL_BSEC_OTP_Read(&sBsecHandler, fuse_id, &data) == HAL_OK)
  88              		.loc 1 57 13
  89 004e 07F10C02 		add	r2, r7, #12
  90 0052 3B1D     		adds	r3, r7, #4
  91 0054 7969     		ldr	r1, [r7, #20]
  92 0056 1846     		mov	r0, r3
  93 0058 FFF7FEFF 		bl	HAL_BSEC_OTP_Read
  94 005c 0346     		mov	r3, r0
  95              		.loc 1 57 12 discriminator 1
  96 005e 002B     		cmp	r3, #0
  97 0060 08D1     		bne	.L5
  58:Src/app_fuseprogramming.c ****         {
  59:Src/app_fuseprogramming.c ****           if ((data & bit_mask) != bit_mask)
  98              		.loc 1 59 21
  99 0062 FA68     		ldr	r2, [r7, #12]
 100 0064 3B69     		ldr	r3, [r7, #16]
 101 0066 1340     		ands	r3, r3, r2
 102              		.loc 1 59 14
 103 0068 3A69     		ldr	r2, [r7, #16]
 104 006a 9A42     		cmp	r2, r3
 105 006c 0AD0     		beq	.L6
  60:Src/app_fuseprogramming.c ****           {
  61:Src/app_fuseprogramming.c ****             /* Error : Fuse programming not taken in account */
  62:Src/app_fuseprogramming.c ****             ErrorHandler();
 106              		.loc 1 62 13
 107 006e FFF7FEFF 		bl	ErrorHandler
  63:Src/app_fuseprogramming.c ****           }
  64:Src/app_fuseprogramming.c ****         }
  65:Src/app_fuseprogramming.c ****         else
ARM GAS  /tmp/ccI6IEoE.s 			page 4


  66:Src/app_fuseprogramming.c ****         {
  67:Src/app_fuseprogramming.c ****           /* Error : Fuse read unsuccessful */
  68:Src/app_fuseprogramming.c ****           ErrorHandler();
  69:Src/app_fuseprogramming.c ****         }
  70:Src/app_fuseprogramming.c ****       }
  71:Src/app_fuseprogramming.c ****       else
  72:Src/app_fuseprogramming.c ****       {
  73:Src/app_fuseprogramming.c ****         /* Error : Fuse programming unsuccessful */
  74:Src/app_fuseprogramming.c ****         ErrorHandler();
  75:Src/app_fuseprogramming.c ****       }
  76:Src/app_fuseprogramming.c ****     }
  77:Src/app_fuseprogramming.c ****     else
  78:Src/app_fuseprogramming.c ****     {
  79:Src/app_fuseprogramming.c **** 
  80:Src/app_fuseprogramming.c ****     }
  81:Src/app_fuseprogramming.c ****   }
  82:Src/app_fuseprogramming.c ****   else
  83:Src/app_fuseprogramming.c ****   {
  84:Src/app_fuseprogramming.c ****     /* Error  : Fuse read unsuccessful */
  85:Src/app_fuseprogramming.c ****     ErrorHandler();
  86:Src/app_fuseprogramming.c ****   }
  87:Src/app_fuseprogramming.c **** }
 108              		.loc 1 87 1
 109 0072 07E0     		b	.L6
 110              	.L5:
  68:Src/app_fuseprogramming.c ****         }
 111              		.loc 1 68 11
 112 0074 FFF7FEFF 		bl	ErrorHandler
 113              		.loc 1 87 1
 114 0078 04E0     		b	.L6
 115              	.L4:
  74:Src/app_fuseprogramming.c ****       }
 116              		.loc 1 74 9
 117 007a FFF7FEFF 		bl	ErrorHandler
 118              		.loc 1 87 1
 119 007e 01E0     		b	.L6
 120              	.L2:
  85:Src/app_fuseprogramming.c ****   }
 121              		.loc 1 85 5
 122 0080 FFF7FEFF 		bl	ErrorHandler
 123              	.L6:
 124              		.loc 1 87 1
 125 0084 00BF     		nop
 126 0086 1837     		adds	r7, r7, #24
 127              		.cfi_def_cfa_offset 8
 128 0088 BD46     		mov	sp, r7
 129              		.cfi_def_cfa_register 13
 130              		@ sp needed
 131 008a 80BD     		pop	{r7, pc}
 132              	.L8:
 133              		.align	2
 134              	.L7:
 135 008c 00900056 		.word	1442877440
 136              		.cfi_endproc
 137              	.LFE238:
 139              		.section	.text.ErrorHandler,"ax",%progbits
 140              		.align	1
ARM GAS  /tmp/ccI6IEoE.s 			page 5


 141              		.syntax unified
 142              		.thumb
 143              		.thumb_func
 145              	ErrorHandler:
 146              	.LFB239:
  88:Src/app_fuseprogramming.c **** 
  89:Src/app_fuseprogramming.c **** /**
  90:Src/app_fuseprogramming.c ****   * @brief  Handle error which occurs when calling HAL API
  91:Src/app_fuseprogramming.c ****   * @retval None
  92:Src/app_fuseprogramming.c ****   */
  93:Src/app_fuseprogramming.c **** static void ErrorHandler(void)
  94:Src/app_fuseprogramming.c **** {
 147              		.loc 1 94 1
 148              		.cfi_startproc
 149              		@ args = 0, pretend = 0, frame = 0
 150              		@ frame_needed = 1, uses_anonymous_args = 0
 151              		@ link register save eliminated.
 152 0000 80B4     		push	{r7}
 153              		.cfi_def_cfa_offset 4
 154              		.cfi_offset 7, -4
 155 0002 00AF     		add	r7, sp, #0
 156              		.cfi_def_cfa_register 7
 157              	.L10:
  95:Src/app_fuseprogramming.c ****   while(1);
 158              		.loc 1 95 8
 159 0004 00BF     		nop
 160 0006 FDE7     		b	.L10
 161              		.cfi_endproc
 162              	.LFE239:
 164              		.text
 165              	.Letext0:
 166              		.file 2 "/home/tanjiajun2002/renesas/rzv/e2studio_v2025-01_fsp_v3.1.0/toolchains/gcc_arm/arm-gnu-t
 167              		.file 3 "/home/tanjiajun2002/renesas/rzv/e2studio_v2025-01_fsp_v3.1.0/toolchains/gcc_arm/arm-gnu-t
 168              		.file 4 "STM32Cube_FW_N6/Drivers/CMSIS/Device/ST/STM32N6xx/Include/stm32n657xx.h"
 169              		.file 5 "STM32Cube_FW_N6/Drivers/STM32N6xx_HAL_Driver/Inc/stm32n6xx_hal_def.h"
 170              		.file 6 "STM32Cube_FW_N6/Drivers/STM32N6xx_HAL_Driver/Inc/stm32n6xx_hal_bsec.h"
ARM GAS  /tmp/ccI6IEoE.s 			page 6

