ARM GAS  /tmp/ccNbLpFw.s 			page 1


   1              		.arch armv8.1-m.main
   2              		.fpu fpv5-d16
   3              		.arch_extension dsp
   4              		.arch_extension fp
   5              		.arch_extension fp.dp
   6              		.arch_extension mve
   7              		.arch_extension mve.fp
   8              		.eabi_attribute 5, "cortex-m55"
   9              		.eabi_attribute 28, 1
  10              		.eabi_attribute 20, 1
  11              		.eabi_attribute 21, 1
  12              		.eabi_attribute 23, 3
  13              		.eabi_attribute 24, 1
  14              		.eabi_attribute 25, 1
  15              		.eabi_attribute 26, 1
  16              		.eabi_attribute 30, 6
  17              		.eabi_attribute 34, 1
  18              		.eabi_attribute 38, 1
  19              		.eabi_attribute 18, 4
  20              		.file	"cmw_imx335.c"
  21              		.text
  22              	.Ltext0:
  23              		.cfi_sections	.debug_frame
  24              		.file 1 "Lib/Camera_Middleware/sensors/cmw_imx335.c"
  25              		.section	.rodata.ISP_IQParamCacheInit_IMX335,"a"
  26              		.align	2
  29              	ISP_IQParamCacheInit_IMX335:
  30 0000 00       		.byte	0
  31 0001 000000   		.space	3
  32 0004 00000000 		.word	0
  33 0008 00000000 		.word	0
  34 000c 01       		.byte	1
  35 000d 00       		.byte	0
  36 000e 02       		.byte	2
  37 000f 04       		.byte	4
  38 0010 04       		.byte	4
  39 0011 06       		.byte	6
  40 0012 0000     		.space	2
  41 0014 00       		.byte	0
  42 0015 000000   		.space	3
  43 0018 00000000 		.word	0
  44 001c 00000000 		.word	0
  45 0020 00000000 		.word	0
  46 0024 00000000 		.word	0
  47 0028 00000000 		.word	0
  48 002c 00000000 		.word	0
  49 0030 00000000 		.word	0
  50 0034 00000000 		.word	0
  51 0038 00000000 		.word	0
  52 003c 88020000 		.word	648
  53 0040 E6010000 		.word	486
  54 0044 10050000 		.word	1296
  55 0048 CC030000 		.word	972
  56 004c 00000000 		.word	0
  57 0050 00000000 		.word	0
  58 0054 00       		.byte	0
  59 0055 000000   		.space	3
ARM GAS  /tmp/ccNbLpFw.s 			page 2


  60 0058 00000000 		.word	0
  61 005c 00       		.byte	0
  62 005d 00       		.byte	0
  63 005e 00000000 		.space	6
  63      0000
  64 0064 01       		.byte	1
  65 0065 0C       		.byte	12
  66 0066 0C       		.byte	12
  67 0067 0C       		.byte	12
  68 0068 01       		.byte	1
  69 0069 00       		.byte	0
  70 006a 00000000 		.space	6
  70      0000
  71 0070 00       		.byte	0
  72 0071 000000   		.space	3
  73 0074 01       		.byte	1
  74 0075 4100     		.ascii	"A\000"
  75 0077 00000000 		.space	30
  75      00000000 
  75      00000000 
  75      00000000 
  75      00000000 
  76 0095 544C3834 		.ascii	"TL84\000"
  76      00
  77 009a 00000000 		.space	27
  77      00000000 
  77      00000000 
  77      00000000 
  77      00000000 
  78 00b5 44353000 		.ascii	"D50\000"
  79 00b9 00000000 		.space	28
  79      00000000 
  79      00000000 
  79      00000000 
  79      00000000 
  80 00d5 44363500 		.ascii	"D65\000"
  81 00d9 00000000 		.space	28
  81      00000000 
  81      00000000 
  81      00000000 
  81      00000000 
  82 00f5 46726565 		.ascii	"Free slot\000"
  82      20736C6F 
  82      7400
  83 00ff 00000000 		.space	22
  83      00000000 
  83      00000000 
  83      00000000 
  83      00000000 
  84 0115 000000   		.space	3
  85 0118 280B0000 		.word	2856
  86 011c A00F0000 		.word	4000
  87 0120 88130000 		.word	5000
  88 0124 64190000 		.word	6500
  89 0128 00000000 		.word	0
  90 012c 003B5808 		.word	140000000
  91 0130 40CE8C0A 		.word	177000000
ARM GAS  /tmp/ccNbLpFw.s 			page 3


  92 0134 00EF1C0D 		.word	220000000
  93 0138 40679A0E 		.word	245000000
  94 013c 00000000 		.word	0
  95 0140 00E1F505 		.word	100000000
  96 0144 00E1F505 		.word	100000000
  97 0148 00E1F505 		.word	100000000
  98 014c 00E1F505 		.word	100000000
  99 0150 00000000 		.word	0
 100 0154 C02A6410 		.word	275000000
 101 0158 C0D0010E 		.word	235000000
 102 015c 0095BA0A 		.word	180000000
 103 0160 C01C3D09 		.word	155000000
 104 0164 00000000 		.word	0
 105 0168 A0180709 		.word	151460000
 106 016c 606AE6F9 		.word	-102340000
 107 0170 E08C0803 		.word	50892000
 108 0174 A8E1DFFA 		.word	-85991000
 109 0178 A04C930C 		.word	210980000
 110 017c 40C682FE 		.word	-24984000
 111 0180 40787D01 		.word	25000000
 112 0184 C07471F0 		.word	-261000000
 113 0188 403F5314 		.word	341000000
 114 018c 242A3F09 		.word	155134500
 115 0190 707FDDFB 		.word	-69370000
 116 0194 50FBC700 		.word	13106000
 117 0198 68EDB1FD 		.word	-38671000
 118 019c 48BEFE09 		.word	167689800
 119 01a0 802DFAFD 		.word	-33936000
 120 01a4 D8A05400 		.word	5546200
 121 01a8 B02B05FC 		.word	-66770000
 122 01ac 088E8809 		.word	159944200
 123 01b0 80CDBB0A 		.word	180080000
 124 01b4 C09E22FC 		.word	-64840000
 125 01b8 D09B17FF 		.word	-15230000
 126 01bc D08CE1FD 		.word	-35550000
 127 01c0 00C6200A 		.word	169920000
 128 01c4 2067F3FD 		.word	-34380000
 129 01c8 10149500 		.word	9770000
 130 01cc E0BB4BFA 		.word	-95700000
 131 01d0 2038150B 		.word	185940000
 132 01d4 80CDBB0A 		.word	180080000
 133 01d8 C09E22FC 		.word	-64840000
 134 01dc D09B17FF 		.word	-15230000
 135 01e0 D08CE1FD 		.word	-35550000
 136 01e4 00C6200A 		.word	169920000
 137 01e8 2067F3FD 		.word	-34380000
 138 01ec 10149500 		.word	9770000
 139 01f0 E0BB4BFA 		.word	-95700000
 140 01f4 2038150B 		.word	185940000
 141 01f8 00000000 		.word	0
 142 01fc 00000000 		.word	0
 143 0200 00000000 		.word	0
 144 0204 00000000 		.word	0
 145 0208 00000000 		.word	0
 146 020c 00000000 		.word	0
 147 0210 00000000 		.word	0
 148 0214 00000000 		.word	0
ARM GAS  /tmp/ccNbLpFw.s 			page 4


 149 0218 00000000 		.word	0
 150 021c 00       		.byte	0
 151 021d 000000   		.space	3
 152 0220 00000000 		.word	0
 153 0224 00000000 		.word	0
 154 0228 00000000 		.word	0
 155 022c 00       		.byte	0
 156 022d 000000   		.space	3
 157 0230 00000000 		.word	0
 158 0234 00000000 		.word	0
 159 0238 00000000 		.word	0
 160 023c 00000000 		.word	0
 161 0240 00000000 		.word	0
 162 0244 00000000 		.word	0
 163 0248 00000000 		.word	0
 164 024c 00000000 		.word	0
 165 0250 00000000 		.word	0
 166 0254 01       		.byte	1
 167 0255 01       		.byte	1
 168 0256 0000     		.space	2
 169              		.section	.rodata.ISP_IQParamCacheInit_VD66GY,"a"
 170              		.align	2
 173              	ISP_IQParamCacheInit_VD66GY:
 174 0000 00       		.byte	0
 175 0001 000000   		.space	3
 176 0004 00000000 		.word	0
 177 0008 00000000 		.word	0
 178 000c 01       		.byte	1
 179 000d 00       		.byte	0
 180 000e 02       		.byte	2
 181 000f 04       		.byte	4
 182 0010 04       		.byte	4
 183 0011 06       		.byte	6
 184 0012 0000     		.space	2
 185 0014 00       		.byte	0
 186 0015 000000   		.space	3
 187 0018 00000000 		.word	0
 188 001c 00000000 		.word	0
 189 0020 00000000 		.word	0
 190 0024 00000000 		.word	0
 191 0028 00000000 		.word	0
 192 002c 00000000 		.word	0
 193 0030 00000000 		.word	0
 194 0034 00000000 		.word	0
 195 0038 00000000 		.word	0
 196 003c 8C000000 		.word	140
 197 0040 55010000 		.word	341
 198 0044 48030000 		.word	840
 199 0048 AA020000 		.word	682
 200 004c 00000000 		.word	0
 201 0050 00000000 		.word	0
 202 0054 00       		.byte	0
 203 0055 000000   		.space	3
 204 0058 00000000 		.word	0
 205 005c 00       		.byte	0
 206 005d 00       		.byte	0
 207 005e 00000000 		.space	6
ARM GAS  /tmp/ccNbLpFw.s 			page 5


 207      0000
 208 0064 01       		.byte	1
 209 0065 10       		.byte	16
 210 0066 10       		.byte	16
 211 0067 10       		.byte	16
 212 0068 00       		.byte	0
 213 0069 00       		.byte	0
 214 006a 00000000 		.space	6
 214      0000
 215 0070 00       		.byte	0
 216 0071 000000   		.space	3
 217 0074 01       		.byte	1
 218 0075 4A756467 		.ascii	"JudgeII A\000"
 218      65494920 
 218      4100
 219 007f 00000000 		.space	22
 219      00000000 
 219      00000000 
 219      00000000 
 219      00000000 
 220 0095 4A756465 		.ascii	"JudegII TL84\000"
 220      67494920 
 220      544C3834 
 220      00
 221 00a2 00000000 		.space	19
 221      00000000 
 221      00000000 
 221      00000000 
 221      000000
 222 00b5 4A756465 		.ascii	"JudegeII DAY\000"
 222      67654949 
 222      20444159 
 222      00
 223 00c2 00000000 		.space	19
 223      00000000 
 223      00000000 
 223      00000000 
 223      000000
 224 00d5 00       		.ascii	"\000"
 225 00d6 00000000 		.space	31
 225      00000000 
 225      00000000 
 225      00000000 
 225      00000000 
 226 00f5 00       		.ascii	"\000"
 227 00f6 00000000 		.space	31
 227      00000000 
 227      00000000 
 227      00000000 
 227      00000000 
 228 0115 000000   		.space	3
 229 0118 BE0A0000 		.word	2750
 230 011c 36100000 		.word	4150
 231 0120 5E1A0000 		.word	6750
 232 0124 00000000 		.word	0
 233 0128 00000000 		.word	0
 234 012c C095A905 		.word	95000000
ARM GAS  /tmp/ccNbLpFw.s 			page 6


 235 0130 4047F906 		.word	117000000
 236 0134 005F4C09 		.word	156000000
 237 0138 00000000 		.word	0
 238 013c 00000000 		.word	0
 239 0140 00E1F505 		.word	100000000
 240 0144 00E1F505 		.word	100000000
 241 0148 00E1F505 		.word	100000000
 242 014c 00000000 		.word	0
 243 0150 00000000 		.word	0
 244 0154 80972F0E 		.word	238000000
 245 0158 40E9430B 		.word	189000000
 246 015c 80D1F008 		.word	150000000
 247 0160 00000000 		.word	0
 248 0164 00000000 		.word	0
 249 0168 1FC3FB07 		.word	133939999
 250 016c E0C0C4FE 		.word	-20660000
 251 0170 80B422FE 		.word	-31280000
 252 0174 30D8BDFD 		.word	-37890000
 253 0178 80EFEB08 		.word	149680000
 254 017c 618670FE 		.word	-26179999
 255 0180 C0201F00 		.word	2040000
 256 0184 404EAEFA 		.word	-89240000
 257 0188 70DB380D 		.word	221830000
 258 018c 006BCD08 		.word	147680000
 259 0190 7021B7FD 		.word	-38330000
 260 0194 800040FE 		.word	-29360000
 261 0198 00C498FD 		.word	-40320000
 262 019c 90EFB308 		.word	146010000
 263 01a0 C0DF20FE 		.word	-31400000
 264 01a4 E0C81000 		.word	1100000
 265 01a8 408D59FC 		.word	-61240000
 266 01ac 70156B0A 		.word	174790000
 267 01b0 90EFB308 		.word	146010000
 268 01b4 80A2A8FD 		.word	-39280000
 269 01b8 207629FF 		.word	-14060000
 270 01bc D0D367FE 		.word	-26750000
 271 01c0 10D01609 		.word	152490000
 272 01c4 403277FD 		.word	-42520000
 273 01c8 40B31100 		.word	1160000
 274 01cc B082B2FC 		.word	-55410000
 275 01d0 70E49308 		.word	143910000
 276 01d4 00000000 		.word	0
 277 01d8 00000000 		.word	0
 278 01dc 00000000 		.word	0
 279 01e0 00000000 		.word	0
 280 01e4 00000000 		.word	0
 281 01e8 00000000 		.word	0
 282 01ec 00000000 		.word	0
 283 01f0 00000000 		.word	0
 284 01f4 00000000 		.word	0
 285 01f8 00000000 		.word	0
 286 01fc 00000000 		.word	0
 287 0200 00000000 		.word	0
 288 0204 00000000 		.word	0
 289 0208 00000000 		.word	0
 290 020c 00000000 		.word	0
 291 0210 00000000 		.word	0
ARM GAS  /tmp/ccNbLpFw.s 			page 7


 292 0214 00000000 		.word	0
 293 0218 00000000 		.word	0
 294 021c 00       		.byte	0
 295 021d 000000   		.space	3
 296 0220 00000000 		.word	0
 297 0224 00000000 		.word	0
 298 0228 00000000 		.word	0
 299 022c 00       		.byte	0
 300 022d 000000   		.space	3
 301 0230 00000000 		.word	0
 302 0234 00000000 		.word	0
 303 0238 00000000 		.word	0
 304 023c 00000000 		.word	0
 305 0240 00000000 		.word	0
 306 0244 00000000 		.word	0
 307 0248 00000000 		.word	0
 308 024c 00000000 		.word	0
 309 0250 00000000 		.word	0
 310 0254 01       		.byte	1
 311 0255 01       		.byte	1
 312 0256 0000     		.space	2
 313              		.section	.data.ISP_IQParamCacheInit,"aw"
 314              		.align	2
 317              	ISP_IQParamCacheInit:
 318 0000 00000000 		.word	ISP_IQParamCacheInit_IMX335
 319 0004 00000000 		.word	ISP_IQParamCacheInit_VD66GY
 320              		.section	.text.CMW_IMX335_GetResType,"ax",%progbits
 321              		.align	1
 322              		.syntax unified
 323              		.thumb
 324              		.thumb_func
 326              	CMW_IMX335_GetResType:
 327              	.LFB3342:
   1:Lib/Camera_Middleware/sensors/cmw_imx335.c **** /**
   2:Lib/Camera_Middleware/sensors/cmw_imx335.c ****   ******************************************************************************
   3:Lib/Camera_Middleware/sensors/cmw_imx335.c ****   * @file    cmw_imx335.c
   4:Lib/Camera_Middleware/sensors/cmw_imx335.c ****   * @author  MDG Application Team
   5:Lib/Camera_Middleware/sensors/cmw_imx335.c ****   ******************************************************************************
   6:Lib/Camera_Middleware/sensors/cmw_imx335.c ****   * @attention
   7:Lib/Camera_Middleware/sensors/cmw_imx335.c ****   *
   8:Lib/Camera_Middleware/sensors/cmw_imx335.c ****   * Copyright (c) 2024 STMicroelectronics.
   9:Lib/Camera_Middleware/sensors/cmw_imx335.c ****   * All rights reserved.
  10:Lib/Camera_Middleware/sensors/cmw_imx335.c ****   *
  11:Lib/Camera_Middleware/sensors/cmw_imx335.c ****   * This software is licensed under terms that can be found in the LICENSE file
  12:Lib/Camera_Middleware/sensors/cmw_imx335.c ****   * in the root directory of this software component.
  13:Lib/Camera_Middleware/sensors/cmw_imx335.c ****   * If no LICENSE file comes with this software, it is provided AS-IS.
  14:Lib/Camera_Middleware/sensors/cmw_imx335.c ****   *
  15:Lib/Camera_Middleware/sensors/cmw_imx335.c ****   ******************************************************************************
  16:Lib/Camera_Middleware/sensors/cmw_imx335.c ****   */
  17:Lib/Camera_Middleware/sensors/cmw_imx335.c **** 
  18:Lib/Camera_Middleware/sensors/cmw_imx335.c **** #include <assert.h>
  19:Lib/Camera_Middleware/sensors/cmw_imx335.c **** #include <stdlib.h>
  20:Lib/Camera_Middleware/sensors/cmw_imx335.c **** #include <stdio.h>
  21:Lib/Camera_Middleware/sensors/cmw_imx335.c **** #include <stddef.h>
  22:Lib/Camera_Middleware/sensors/cmw_imx335.c **** #include <string.h>
  23:Lib/Camera_Middleware/sensors/cmw_imx335.c **** #include "cmw_imx335.h"
  24:Lib/Camera_Middleware/sensors/cmw_imx335.c **** #include "cmw_camera.h"
ARM GAS  /tmp/ccNbLpFw.s 			page 8


  25:Lib/Camera_Middleware/sensors/cmw_imx335.c **** #include "imx335_reg.h"
  26:Lib/Camera_Middleware/sensors/cmw_imx335.c **** #include "imx335.h"
  27:Lib/Camera_Middleware/sensors/cmw_imx335.c **** #ifndef ISP_MW_TUNING_TOOL_SUPPORT
  28:Lib/Camera_Middleware/sensors/cmw_imx335.c **** #include "isp_param_conf.h"
  29:Lib/Camera_Middleware/sensors/cmw_imx335.c **** #endif
  30:Lib/Camera_Middleware/sensors/cmw_imx335.c **** 
  31:Lib/Camera_Middleware/sensors/cmw_imx335.c **** #define ARRAY_SIZE(arr) (sizeof(arr) / sizeof((arr)[0]))
  32:Lib/Camera_Middleware/sensors/cmw_imx335.c **** 
  33:Lib/Camera_Middleware/sensors/cmw_imx335.c **** 
  34:Lib/Camera_Middleware/sensors/cmw_imx335.c **** static int CMW_IMX335_GetResType(uint32_t width, uint32_t height, uint32_t*res)
  35:Lib/Camera_Middleware/sensors/cmw_imx335.c **** {
 328              		.loc 1 35 1
 329              		.cfi_startproc
 330              		@ args = 0, pretend = 0, frame = 16
 331              		@ frame_needed = 1, uses_anonymous_args = 0
 332              		@ link register save eliminated.
 333 0000 80B4     		push	{r7}
 334              		.cfi_def_cfa_offset 4
 335              		.cfi_offset 7, -4
 336 0002 85B0     		sub	sp, sp, #20
 337              		.cfi_def_cfa_offset 24
 338 0004 00AF     		add	r7, sp, #0
 339              		.cfi_def_cfa_register 7
 340 0006 F860     		str	r0, [r7, #12]
 341 0008 B960     		str	r1, [r7, #8]
 342 000a 7A60     		str	r2, [r7, #4]
  36:Lib/Camera_Middleware/sensors/cmw_imx335.c ****   if (width == 2592 && height == 1944)
 343              		.loc 1 36 6
 344 000c FB68     		ldr	r3, [r7, #12]
 345 000e B3F5226F 		cmp	r3, #2592
 346 0012 08D1     		bne	.L2
 347              		.loc 1 36 21 discriminator 1
 348 0014 BB68     		ldr	r3, [r7, #8]
 349 0016 B3F5F36F 		cmp	r3, #1944
 350 001a 04D1     		bne	.L2
  37:Lib/Camera_Middleware/sensors/cmw_imx335.c ****   {
  38:Lib/Camera_Middleware/sensors/cmw_imx335.c ****     *res = IMX335_R2592_1944;
 351              		.loc 1 38 10
 352 001c 7B68     		ldr	r3, [r7, #4]
 353 001e 0622     		movs	r2, #6
 354 0020 1A60     		str	r2, [r3]
  39:Lib/Camera_Middleware/sensors/cmw_imx335.c ****   }
  40:Lib/Camera_Middleware/sensors/cmw_imx335.c ****   else
  41:Lib/Camera_Middleware/sensors/cmw_imx335.c ****   {
  42:Lib/Camera_Middleware/sensors/cmw_imx335.c ****     return CMW_ERROR_WRONG_PARAM;
  43:Lib/Camera_Middleware/sensors/cmw_imx335.c ****   }
  44:Lib/Camera_Middleware/sensors/cmw_imx335.c ****   return 0;
 355              		.loc 1 44 10
 356 0022 0023     		movs	r3, #0
 357 0024 01E0     		b	.L3
 358              	.L2:
  42:Lib/Camera_Middleware/sensors/cmw_imx335.c ****   }
 359              		.loc 1 42 12
 360 0026 6FF00103 		mvn	r3, #1
 361              	.L3:
  45:Lib/Camera_Middleware/sensors/cmw_imx335.c **** }
 362              		.loc 1 45 1
ARM GAS  /tmp/ccNbLpFw.s 			page 9


 363 002a 1846     		mov	r0, r3
 364 002c 1437     		adds	r7, r7, #20
 365              		.cfi_def_cfa_offset 4
 366 002e BD46     		mov	sp, r7
 367              		.cfi_def_cfa_register 13
 368              		@ sp needed
 369 0030 5DF8047B 		ldr	r7, [sp], #4
 370              		.cfi_restore 7
 371              		.cfi_def_cfa_offset 0
 372 0034 7047     		bx	lr
 373              		.cfi_endproc
 374              	.LFE3342:
 376              		.section	.text.CMW_IMX335_getMirrorFlipConfig,"ax",%progbits
 377              		.align	1
 378              		.syntax unified
 379              		.thumb
 380              		.thumb_func
 382              	CMW_IMX335_getMirrorFlipConfig:
 383              	.LFB3343:
  46:Lib/Camera_Middleware/sensors/cmw_imx335.c **** 
  47:Lib/Camera_Middleware/sensors/cmw_imx335.c **** static int32_t CMW_IMX335_getMirrorFlipConfig(uint32_t Config)
  48:Lib/Camera_Middleware/sensors/cmw_imx335.c **** {
 384              		.loc 1 48 1
 385              		.cfi_startproc
 386              		@ args = 0, pretend = 0, frame = 16
 387              		@ frame_needed = 1, uses_anonymous_args = 0
 388              		@ link register save eliminated.
 389 0000 80B4     		push	{r7}
 390              		.cfi_def_cfa_offset 4
 391              		.cfi_offset 7, -4
 392 0002 85B0     		sub	sp, sp, #20
 393              		.cfi_def_cfa_offset 24
 394 0004 00AF     		add	r7, sp, #0
 395              		.cfi_def_cfa_register 7
 396 0006 7860     		str	r0, [r7, #4]
  49:Lib/Camera_Middleware/sensors/cmw_imx335.c ****   int32_t ret;
  50:Lib/Camera_Middleware/sensors/cmw_imx335.c **** 
  51:Lib/Camera_Middleware/sensors/cmw_imx335.c ****   switch (Config)
 397              		.loc 1 51 3
 398 0008 7B68     		ldr	r3, [r7, #4]
 399 000a 022B     		cmp	r3, #2
 400 000c 0FD0     		beq	.L5
 401 000e 7B68     		ldr	r3, [r7, #4]
 402 0010 022B     		cmp	r3, #2
 403 0012 0FD8     		bhi	.L6
 404 0014 7B68     		ldr	r3, [r7, #4]
 405 0016 002B     		cmp	r3, #0
 406 0018 03D0     		beq	.L7
 407 001a 7B68     		ldr	r3, [r7, #4]
 408 001c 012B     		cmp	r3, #1
 409 001e 03D0     		beq	.L8
 410 0020 08E0     		b	.L6
 411              	.L7:
  52:Lib/Camera_Middleware/sensors/cmw_imx335.c ****   {
  53:Lib/Camera_Middleware/sensors/cmw_imx335.c ****     case CMW_MIRRORFLIP_NONE:
  54:Lib/Camera_Middleware/sensors/cmw_imx335.c ****       ret = IMX335_MIRROR_FLIP_NONE;
 412              		.loc 1 54 11
ARM GAS  /tmp/ccNbLpFw.s 			page 10


 413 0022 0023     		movs	r3, #0
 414 0024 FB60     		str	r3, [r7, #12]
  55:Lib/Camera_Middleware/sensors/cmw_imx335.c ****       break;
 415              		.loc 1 55 7
 416 0026 08E0     		b	.L9
 417              	.L8:
  56:Lib/Camera_Middleware/sensors/cmw_imx335.c ****     case CMW_MIRRORFLIP_FLIP:
  57:Lib/Camera_Middleware/sensors/cmw_imx335.c ****       ret = IMX335_FLIP;
 418              		.loc 1 57 11
 419 0028 0123     		movs	r3, #1
 420 002a FB60     		str	r3, [r7, #12]
  58:Lib/Camera_Middleware/sensors/cmw_imx335.c ****       break;
 421              		.loc 1 58 7
 422 002c 05E0     		b	.L9
 423              	.L5:
  59:Lib/Camera_Middleware/sensors/cmw_imx335.c ****     case CMW_MIRRORFLIP_MIRROR:
  60:Lib/Camera_Middleware/sensors/cmw_imx335.c ****       ret = IMX335_MIRROR;
 424              		.loc 1 60 11
 425 002e 0223     		movs	r3, #2
 426 0030 FB60     		str	r3, [r7, #12]
  61:Lib/Camera_Middleware/sensors/cmw_imx335.c ****       break;
 427              		.loc 1 61 7
 428 0032 02E0     		b	.L9
 429              	.L6:
  62:Lib/Camera_Middleware/sensors/cmw_imx335.c ****     case CMW_MIRRORFLIP_FLIP_MIRROR:
  63:Lib/Camera_Middleware/sensors/cmw_imx335.c ****     default:
  64:Lib/Camera_Middleware/sensors/cmw_imx335.c ****       ret = IMX335_MIRROR_FLIP;
 430              		.loc 1 64 11
 431 0034 0323     		movs	r3, #3
 432 0036 FB60     		str	r3, [r7, #12]
  65:Lib/Camera_Middleware/sensors/cmw_imx335.c ****       break;
 433              		.loc 1 65 7
 434 0038 00BF     		nop
 435              	.L9:
  66:Lib/Camera_Middleware/sensors/cmw_imx335.c ****   }
  67:Lib/Camera_Middleware/sensors/cmw_imx335.c **** 
  68:Lib/Camera_Middleware/sensors/cmw_imx335.c ****   return ret;
 436              		.loc 1 68 10
 437 003a FB68     		ldr	r3, [r7, #12]
  69:Lib/Camera_Middleware/sensors/cmw_imx335.c **** }
 438              		.loc 1 69 1
 439 003c 1846     		mov	r0, r3
 440 003e 1437     		adds	r7, r7, #20
 441              		.cfi_def_cfa_offset 4
 442 0040 BD46     		mov	sp, r7
 443              		.cfi_def_cfa_register 13
 444              		@ sp needed
 445 0042 5DF8047B 		ldr	r7, [sp], #4
 446              		.cfi_restore 7
 447              		.cfi_def_cfa_offset 0
 448 0046 7047     		bx	lr
 449              		.cfi_endproc
 450              	.LFE3343:
 452              		.section	.text.CMW_IMX335_DeInit,"ax",%progbits
 453              		.align	1
 454              		.syntax unified
 455              		.thumb
ARM GAS  /tmp/ccNbLpFw.s 			page 11


 456              		.thumb_func
 458              	CMW_IMX335_DeInit:
 459              	.LFB3344:
  70:Lib/Camera_Middleware/sensors/cmw_imx335.c **** 
  71:Lib/Camera_Middleware/sensors/cmw_imx335.c **** static int32_t CMW_IMX335_DeInit(void *io_ctx)
  72:Lib/Camera_Middleware/sensors/cmw_imx335.c **** {
 460              		.loc 1 72 1
 461              		.cfi_startproc
 462              		@ args = 0, pretend = 0, frame = 16
 463              		@ frame_needed = 1, uses_anonymous_args = 0
 464 0000 80B5     		push	{r7, lr}
 465              		.cfi_def_cfa_offset 8
 466              		.cfi_offset 7, -8
 467              		.cfi_offset 14, -4
 468 0002 84B0     		sub	sp, sp, #16
 469              		.cfi_def_cfa_offset 24
 470 0004 00AF     		add	r7, sp, #0
 471              		.cfi_def_cfa_register 7
 472 0006 7860     		str	r0, [r7, #4]
  73:Lib/Camera_Middleware/sensors/cmw_imx335.c ****   int ret = CMW_ERROR_NONE;
 473              		.loc 1 73 7
 474 0008 0023     		movs	r3, #0
 475 000a FB60     		str	r3, [r7, #12]
  74:Lib/Camera_Middleware/sensors/cmw_imx335.c ****   ret = ISP_DeInit(&((CMW_IMX335_t *)io_ctx)->hIsp);
 476              		.loc 1 74 9
 477 000c 7B68     		ldr	r3, [r7, #4]
 478 000e 3033     		adds	r3, r3, #48
 479 0010 1846     		mov	r0, r3
 480 0012 FFF7FEFF 		bl	ISP_DeInit
 481 0016 0346     		mov	r3, r0
 482              		.loc 1 74 7 discriminator 1
 483 0018 FB60     		str	r3, [r7, #12]
  75:Lib/Camera_Middleware/sensors/cmw_imx335.c ****   if (ret)
 484              		.loc 1 75 6
 485 001a FB68     		ldr	r3, [r7, #12]
 486 001c 002B     		cmp	r3, #0
 487 001e 02D0     		beq	.L12
  76:Lib/Camera_Middleware/sensors/cmw_imx335.c ****   {
  77:Lib/Camera_Middleware/sensors/cmw_imx335.c ****     return CMW_ERROR_COMPONENT_FAILURE;
 488              		.loc 1 77 12
 489 0020 6FF00403 		mvn	r3, #4
 490 0024 0CE0     		b	.L13
 491              	.L12:
  78:Lib/Camera_Middleware/sensors/cmw_imx335.c ****   }
  79:Lib/Camera_Middleware/sensors/cmw_imx335.c **** 
  80:Lib/Camera_Middleware/sensors/cmw_imx335.c ****   ret = IMX335_DeInit(&((CMW_IMX335_t *)io_ctx)->ctx_driver);
 492              		.loc 1 80 9
 493 0026 7B68     		ldr	r3, [r7, #4]
 494 0028 0833     		adds	r3, r3, #8
 495 002a 1846     		mov	r0, r3
 496 002c FFF7FEFF 		bl	IMX335_DeInit
 497 0030 F860     		str	r0, [r7, #12]
  81:Lib/Camera_Middleware/sensors/cmw_imx335.c ****   if (ret)
 498              		.loc 1 81 6
 499 0032 FB68     		ldr	r3, [r7, #12]
 500 0034 002B     		cmp	r3, #0
 501 0036 02D0     		beq	.L14
ARM GAS  /tmp/ccNbLpFw.s 			page 12


  82:Lib/Camera_Middleware/sensors/cmw_imx335.c ****   {
  83:Lib/Camera_Middleware/sensors/cmw_imx335.c ****     return CMW_ERROR_COMPONENT_FAILURE;
 502              		.loc 1 83 12
 503 0038 6FF00403 		mvn	r3, #4
 504 003c 00E0     		b	.L13
 505              	.L14:
  84:Lib/Camera_Middleware/sensors/cmw_imx335.c ****   }
  85:Lib/Camera_Middleware/sensors/cmw_imx335.c ****   return ret;
 506              		.loc 1 85 10
 507 003e FB68     		ldr	r3, [r7, #12]
 508              	.L13:
  86:Lib/Camera_Middleware/sensors/cmw_imx335.c **** }
 509              		.loc 1 86 1
 510 0040 1846     		mov	r0, r3
 511 0042 1037     		adds	r7, r7, #16
 512              		.cfi_def_cfa_offset 8
 513 0044 BD46     		mov	sp, r7
 514              		.cfi_def_cfa_register 13
 515              		@ sp needed
 516 0046 80BD     		pop	{r7, pc}
 517              		.cfi_endproc
 518              	.LFE3344:
 520              		.section	.text.CMW_IMX335_ReadID,"ax",%progbits
 521              		.align	1
 522              		.syntax unified
 523              		.thumb
 524              		.thumb_func
 526              	CMW_IMX335_ReadID:
 527              	.LFB3345:
  87:Lib/Camera_Middleware/sensors/cmw_imx335.c **** 
  88:Lib/Camera_Middleware/sensors/cmw_imx335.c **** static int32_t CMW_IMX335_ReadID(void *io_ctx, uint32_t *Id)
  89:Lib/Camera_Middleware/sensors/cmw_imx335.c **** {
 528              		.loc 1 89 1
 529              		.cfi_startproc
 530              		@ args = 0, pretend = 0, frame = 8
 531              		@ frame_needed = 1, uses_anonymous_args = 0
 532 0000 80B5     		push	{r7, lr}
 533              		.cfi_def_cfa_offset 8
 534              		.cfi_offset 7, -8
 535              		.cfi_offset 14, -4
 536 0002 82B0     		sub	sp, sp, #8
 537              		.cfi_def_cfa_offset 16
 538 0004 00AF     		add	r7, sp, #0
 539              		.cfi_def_cfa_register 7
 540 0006 7860     		str	r0, [r7, #4]
 541 0008 3960     		str	r1, [r7]
  90:Lib/Camera_Middleware/sensors/cmw_imx335.c ****   return IMX335_ReadID(&((CMW_IMX335_t *)io_ctx)->ctx_driver, Id);
 542              		.loc 1 90 10
 543 000a 7B68     		ldr	r3, [r7, #4]
 544 000c 0833     		adds	r3, r3, #8
 545 000e 3968     		ldr	r1, [r7]
 546 0010 1846     		mov	r0, r3
 547 0012 FFF7FEFF 		bl	IMX335_ReadID
 548 0016 0346     		mov	r3, r0
  91:Lib/Camera_Middleware/sensors/cmw_imx335.c **** }
 549              		.loc 1 91 1
 550 0018 1846     		mov	r0, r3
ARM GAS  /tmp/ccNbLpFw.s 			page 13


 551 001a 0837     		adds	r7, r7, #8
 552              		.cfi_def_cfa_offset 8
 553 001c BD46     		mov	sp, r7
 554              		.cfi_def_cfa_register 13
 555              		@ sp needed
 556 001e 80BD     		pop	{r7, pc}
 557              		.cfi_endproc
 558              	.LFE3345:
 560              		.section	.text.CMW_IMX335_SetGain,"ax",%progbits
 561              		.align	1
 562              		.syntax unified
 563              		.thumb
 564              		.thumb_func
 566              	CMW_IMX335_SetGain:
 567              	.LFB3346:
  92:Lib/Camera_Middleware/sensors/cmw_imx335.c **** 
  93:Lib/Camera_Middleware/sensors/cmw_imx335.c **** static int32_t CMW_IMX335_SetGain(void *io_ctx, int32_t gain)
  94:Lib/Camera_Middleware/sensors/cmw_imx335.c **** {
 568              		.loc 1 94 1
 569              		.cfi_startproc
 570              		@ args = 0, pretend = 0, frame = 8
 571              		@ frame_needed = 1, uses_anonymous_args = 0
 572 0000 80B5     		push	{r7, lr}
 573              		.cfi_def_cfa_offset 8
 574              		.cfi_offset 7, -8
 575              		.cfi_offset 14, -4
 576 0002 82B0     		sub	sp, sp, #8
 577              		.cfi_def_cfa_offset 16
 578 0004 00AF     		add	r7, sp, #0
 579              		.cfi_def_cfa_register 7
 580 0006 7860     		str	r0, [r7, #4]
 581 0008 3960     		str	r1, [r7]
  95:Lib/Camera_Middleware/sensors/cmw_imx335.c ****   return IMX335_SetGain(&((CMW_IMX335_t *)io_ctx)->ctx_driver, gain);
 582              		.loc 1 95 10
 583 000a 7B68     		ldr	r3, [r7, #4]
 584 000c 0833     		adds	r3, r3, #8
 585 000e 3968     		ldr	r1, [r7]
 586 0010 1846     		mov	r0, r3
 587 0012 FFF7FEFF 		bl	IMX335_SetGain
 588 0016 0346     		mov	r3, r0
  96:Lib/Camera_Middleware/sensors/cmw_imx335.c **** }
 589              		.loc 1 96 1
 590 0018 1846     		mov	r0, r3
 591 001a 0837     		adds	r7, r7, #8
 592              		.cfi_def_cfa_offset 8
 593 001c BD46     		mov	sp, r7
 594              		.cfi_def_cfa_register 13
 595              		@ sp needed
 596 001e 80BD     		pop	{r7, pc}
 597              		.cfi_endproc
 598              	.LFE3346:
 600              		.section	.text.CMW_IMX335_SetExposure,"ax",%progbits
 601              		.align	1
 602              		.syntax unified
 603              		.thumb
 604              		.thumb_func
 606              	CMW_IMX335_SetExposure:
ARM GAS  /tmp/ccNbLpFw.s 			page 14


 607              	.LFB3347:
  97:Lib/Camera_Middleware/sensors/cmw_imx335.c **** 
  98:Lib/Camera_Middleware/sensors/cmw_imx335.c **** static int32_t CMW_IMX335_SetExposure(void *io_ctx, int32_t exposure)
  99:Lib/Camera_Middleware/sensors/cmw_imx335.c **** {
 608              		.loc 1 99 1
 609              		.cfi_startproc
 610              		@ args = 0, pretend = 0, frame = 8
 611              		@ frame_needed = 1, uses_anonymous_args = 0
 612 0000 80B5     		push	{r7, lr}
 613              		.cfi_def_cfa_offset 8
 614              		.cfi_offset 7, -8
 615              		.cfi_offset 14, -4
 616 0002 82B0     		sub	sp, sp, #8
 617              		.cfi_def_cfa_offset 16
 618 0004 00AF     		add	r7, sp, #0
 619              		.cfi_def_cfa_register 7
 620 0006 7860     		str	r0, [r7, #4]
 621 0008 3960     		str	r1, [r7]
 100:Lib/Camera_Middleware/sensors/cmw_imx335.c ****   return IMX335_SetExposure(&((CMW_IMX335_t *)io_ctx)->ctx_driver, exposure);
 622              		.loc 1 100 10
 623 000a 7B68     		ldr	r3, [r7, #4]
 624 000c 0833     		adds	r3, r3, #8
 625 000e 3968     		ldr	r1, [r7]
 626 0010 1846     		mov	r0, r3
 627 0012 FFF7FEFF 		bl	IMX335_SetExposure
 628 0016 0346     		mov	r3, r0
 101:Lib/Camera_Middleware/sensors/cmw_imx335.c **** }
 629              		.loc 1 101 1
 630 0018 1846     		mov	r0, r3
 631 001a 0837     		adds	r7, r7, #8
 632              		.cfi_def_cfa_offset 8
 633 001c BD46     		mov	sp, r7
 634              		.cfi_def_cfa_register 13
 635              		@ sp needed
 636 001e 80BD     		pop	{r7, pc}
 637              		.cfi_endproc
 638              	.LFE3347:
 640              		.section	.text.CMW_IMX335_SetWBRefMode,"ax",%progbits
 641              		.align	1
 642              		.global	CMW_IMX335_SetWBRefMode
 643              		.syntax unified
 644              		.thumb
 645              		.thumb_func
 647              	CMW_IMX335_SetWBRefMode:
 648              	.LFB3348:
 102:Lib/Camera_Middleware/sensors/cmw_imx335.c **** 
 103:Lib/Camera_Middleware/sensors/cmw_imx335.c **** /**
 104:Lib/Camera_Middleware/sensors/cmw_imx335.c ****   * @brief  Set the sensor white balance mode
 105:Lib/Camera_Middleware/sensors/cmw_imx335.c ****   * @param  io_ctx  pointer to component object
 106:Lib/Camera_Middleware/sensors/cmw_imx335.c ****   * @param  Automatic automatic mode enable/disable
 107:Lib/Camera_Middleware/sensors/cmw_imx335.c ****   * @param  RefColorTemp color temperature if automatic mode is disabled
 108:Lib/Camera_Middleware/sensors/cmw_imx335.c ****   * @retval Component status
 109:Lib/Camera_Middleware/sensors/cmw_imx335.c ****   */
 110:Lib/Camera_Middleware/sensors/cmw_imx335.c **** int32_t CMW_IMX335_SetWBRefMode(void *io_ctx, uint8_t Automatic, uint32_t RefColorTemp)
 111:Lib/Camera_Middleware/sensors/cmw_imx335.c **** {
 649              		.loc 1 111 1
 650              		.cfi_startproc
ARM GAS  /tmp/ccNbLpFw.s 			page 15


 651              		@ args = 0, pretend = 0, frame = 24
 652              		@ frame_needed = 1, uses_anonymous_args = 0
 653 0000 80B5     		push	{r7, lr}
 654              		.cfi_def_cfa_offset 8
 655              		.cfi_offset 7, -8
 656              		.cfi_offset 14, -4
 657 0002 86B0     		sub	sp, sp, #24
 658              		.cfi_def_cfa_offset 32
 659 0004 00AF     		add	r7, sp, #0
 660              		.cfi_def_cfa_register 7
 661 0006 F860     		str	r0, [r7, #12]
 662 0008 0B46     		mov	r3, r1
 663 000a 7A60     		str	r2, [r7, #4]
 664 000c FB72     		strb	r3, [r7, #11]
 112:Lib/Camera_Middleware/sensors/cmw_imx335.c ****   int ret = CMW_ERROR_NONE;
 665              		.loc 1 112 7
 666 000e 0023     		movs	r3, #0
 667 0010 7B61     		str	r3, [r7, #20]
 113:Lib/Camera_Middleware/sensors/cmw_imx335.c **** 
 114:Lib/Camera_Middleware/sensors/cmw_imx335.c ****   ret = ISP_SetWBRefMode(&((CMW_IMX335_t *)io_ctx)->hIsp, Automatic, RefColorTemp);
 668              		.loc 1 114 9
 669 0012 FB68     		ldr	r3, [r7, #12]
 670 0014 3033     		adds	r3, r3, #48
 671 0016 F97A     		ldrb	r1, [r7, #11]	@ zero_extendqisi2
 672 0018 7A68     		ldr	r2, [r7, #4]
 673 001a 1846     		mov	r0, r3
 674 001c FFF7FEFF 		bl	ISP_SetWBRefMode
 675 0020 0346     		mov	r3, r0
 676              		.loc 1 114 7 discriminator 1
 677 0022 7B61     		str	r3, [r7, #20]
 115:Lib/Camera_Middleware/sensors/cmw_imx335.c ****   if (ret)
 678              		.loc 1 115 6
 679 0024 7B69     		ldr	r3, [r7, #20]
 680 0026 002B     		cmp	r3, #0
 681 0028 02D0     		beq	.L22
 116:Lib/Camera_Middleware/sensors/cmw_imx335.c ****   {
 117:Lib/Camera_Middleware/sensors/cmw_imx335.c ****     return CMW_ERROR_PERIPH_FAILURE;
 682              		.loc 1 117 12
 683 002a 6FF00303 		mvn	r3, #3
 684 002e 00E0     		b	.L23
 685              	.L22:
 118:Lib/Camera_Middleware/sensors/cmw_imx335.c ****   }
 119:Lib/Camera_Middleware/sensors/cmw_imx335.c **** 
 120:Lib/Camera_Middleware/sensors/cmw_imx335.c ****   return CMW_ERROR_NONE;
 686              		.loc 1 120 10
 687 0030 0023     		movs	r3, #0
 688              	.L23:
 121:Lib/Camera_Middleware/sensors/cmw_imx335.c **** }
 689              		.loc 1 121 1
 690 0032 1846     		mov	r0, r3
 691 0034 1837     		adds	r7, r7, #24
 692              		.cfi_def_cfa_offset 8
 693 0036 BD46     		mov	sp, r7
 694              		.cfi_def_cfa_register 13
 695              		@ sp needed
 696 0038 80BD     		pop	{r7, pc}
 697              		.cfi_endproc
ARM GAS  /tmp/ccNbLpFw.s 			page 16


 698              	.LFE3348:
 700              		.section	.text.CMW_IMX335_ListWBRefModes,"ax",%progbits
 701              		.align	1
 702              		.global	CMW_IMX335_ListWBRefModes
 703              		.syntax unified
 704              		.thumb
 705              		.thumb_func
 707              	CMW_IMX335_ListWBRefModes:
 708              	.LFB3349:
 122:Lib/Camera_Middleware/sensors/cmw_imx335.c **** 
 123:Lib/Camera_Middleware/sensors/cmw_imx335.c **** /**
 124:Lib/Camera_Middleware/sensors/cmw_imx335.c ****   * @brief  List the sensor white balance modes
 125:Lib/Camera_Middleware/sensors/cmw_imx335.c ****   * @param  io_ctx  pointer to component object
 126:Lib/Camera_Middleware/sensors/cmw_imx335.c ****   * @param  RefColorTemp color temperature list
 127:Lib/Camera_Middleware/sensors/cmw_imx335.c ****   * @retval Component status
 128:Lib/Camera_Middleware/sensors/cmw_imx335.c ****   */
 129:Lib/Camera_Middleware/sensors/cmw_imx335.c **** int32_t CMW_IMX335_ListWBRefModes(void *io_ctx, uint32_t RefColorTemp[])
 130:Lib/Camera_Middleware/sensors/cmw_imx335.c **** {
 709              		.loc 1 130 1
 710              		.cfi_startproc
 711              		@ args = 0, pretend = 0, frame = 16
 712              		@ frame_needed = 1, uses_anonymous_args = 0
 713 0000 80B5     		push	{r7, lr}
 714              		.cfi_def_cfa_offset 8
 715              		.cfi_offset 7, -8
 716              		.cfi_offset 14, -4
 717 0002 84B0     		sub	sp, sp, #16
 718              		.cfi_def_cfa_offset 24
 719 0004 00AF     		add	r7, sp, #0
 720              		.cfi_def_cfa_register 7
 721 0006 7860     		str	r0, [r7, #4]
 722 0008 3960     		str	r1, [r7]
 131:Lib/Camera_Middleware/sensors/cmw_imx335.c ****   int ret = CMW_ERROR_NONE;
 723              		.loc 1 131 7
 724 000a 0023     		movs	r3, #0
 725 000c FB60     		str	r3, [r7, #12]
 132:Lib/Camera_Middleware/sensors/cmw_imx335.c **** 
 133:Lib/Camera_Middleware/sensors/cmw_imx335.c ****   ret = ISP_ListWBRefModes(&((CMW_IMX335_t *)io_ctx)->hIsp, RefColorTemp);
 726              		.loc 1 133 9
 727 000e 7B68     		ldr	r3, [r7, #4]
 728 0010 3033     		adds	r3, r3, #48
 729 0012 3968     		ldr	r1, [r7]
 730 0014 1846     		mov	r0, r3
 731 0016 FFF7FEFF 		bl	ISP_ListWBRefModes
 732 001a 0346     		mov	r3, r0
 733              		.loc 1 133 7 discriminator 1
 734 001c FB60     		str	r3, [r7, #12]
 134:Lib/Camera_Middleware/sensors/cmw_imx335.c ****   if (ret)
 735              		.loc 1 134 6
 736 001e FB68     		ldr	r3, [r7, #12]
 737 0020 002B     		cmp	r3, #0
 738 0022 02D0     		beq	.L25
 135:Lib/Camera_Middleware/sensors/cmw_imx335.c ****   {
 136:Lib/Camera_Middleware/sensors/cmw_imx335.c ****     return CMW_ERROR_PERIPH_FAILURE;
 739              		.loc 1 136 12
 740 0024 6FF00303 		mvn	r3, #3
 741 0028 00E0     		b	.L26
ARM GAS  /tmp/ccNbLpFw.s 			page 17


 742              	.L25:
 137:Lib/Camera_Middleware/sensors/cmw_imx335.c ****   }
 138:Lib/Camera_Middleware/sensors/cmw_imx335.c **** 
 139:Lib/Camera_Middleware/sensors/cmw_imx335.c ****   return CMW_ERROR_NONE;
 743              		.loc 1 139 10
 744 002a 0023     		movs	r3, #0
 745              	.L26:
 140:Lib/Camera_Middleware/sensors/cmw_imx335.c **** }
 746              		.loc 1 140 1
 747 002c 1846     		mov	r0, r3
 748 002e 1037     		adds	r7, r7, #16
 749              		.cfi_def_cfa_offset 8
 750 0030 BD46     		mov	sp, r7
 751              		.cfi_def_cfa_register 13
 752              		@ sp needed
 753 0032 80BD     		pop	{r7, pc}
 754              		.cfi_endproc
 755              	.LFE3349:
 757              		.section	.text.CMW_IMX335_SetFrequency,"ax",%progbits
 758              		.align	1
 759              		.syntax unified
 760              		.thumb
 761              		.thumb_func
 763              	CMW_IMX335_SetFrequency:
 764              	.LFB3350:
 141:Lib/Camera_Middleware/sensors/cmw_imx335.c **** 
 142:Lib/Camera_Middleware/sensors/cmw_imx335.c **** static int32_t CMW_IMX335_SetFrequency(void *io_ctx, int32_t frequency)
 143:Lib/Camera_Middleware/sensors/cmw_imx335.c **** {
 765              		.loc 1 143 1
 766              		.cfi_startproc
 767              		@ args = 0, pretend = 0, frame = 8
 768              		@ frame_needed = 1, uses_anonymous_args = 0
 769 0000 80B5     		push	{r7, lr}
 770              		.cfi_def_cfa_offset 8
 771              		.cfi_offset 7, -8
 772              		.cfi_offset 14, -4
 773 0002 82B0     		sub	sp, sp, #8
 774              		.cfi_def_cfa_offset 16
 775 0004 00AF     		add	r7, sp, #0
 776              		.cfi_def_cfa_register 7
 777 0006 7860     		str	r0, [r7, #4]
 778 0008 3960     		str	r1, [r7]
 144:Lib/Camera_Middleware/sensors/cmw_imx335.c ****   return IMX335_SetFrequency(&((CMW_IMX335_t *)io_ctx)->ctx_driver, frequency);
 779              		.loc 1 144 10
 780 000a 7B68     		ldr	r3, [r7, #4]
 781 000c 0833     		adds	r3, r3, #8
 782 000e 3968     		ldr	r1, [r7]
 783 0010 1846     		mov	r0, r3
 784 0012 FFF7FEFF 		bl	IMX335_SetFrequency
 785 0016 0346     		mov	r3, r0
 145:Lib/Camera_Middleware/sensors/cmw_imx335.c **** }
 786              		.loc 1 145 1
 787 0018 1846     		mov	r0, r3
 788 001a 0837     		adds	r7, r7, #8
 789              		.cfi_def_cfa_offset 8
 790 001c BD46     		mov	sp, r7
 791              		.cfi_def_cfa_register 13
ARM GAS  /tmp/ccNbLpFw.s 			page 18


 792              		@ sp needed
 793 001e 80BD     		pop	{r7, pc}
 794              		.cfi_endproc
 795              	.LFE3350:
 797              		.section	.rodata
 798              		.align	2
 799              	.LC0:
 800 0000 0A000000 		.word	10
 801 0004 0F000000 		.word	15
 802 0008 14000000 		.word	20
 803 000c 19000000 		.word	25
 804 0010 1E000000 		.word	30
 805              		.section	.text.CMW_IMX335_SetFramerate,"ax",%progbits
 806              		.align	1
 807              		.syntax unified
 808              		.thumb
 809              		.thumb_func
 811              	CMW_IMX335_SetFramerate:
 812              	.LFB3351:
 146:Lib/Camera_Middleware/sensors/cmw_imx335.c **** 
 147:Lib/Camera_Middleware/sensors/cmw_imx335.c **** static int32_t CMW_IMX335_SetFramerate(void *io_ctx, int32_t framerate)
 148:Lib/Camera_Middleware/sensors/cmw_imx335.c **** {
 813              		.loc 1 148 1
 814              		.cfi_startproc
 815              		@ args = 0, pretend = 0, frame = 32
 816              		@ frame_needed = 1, uses_anonymous_args = 0
 817 0000 B0B5     		push	{r4, r5, r7, lr}
 818              		.cfi_def_cfa_offset 16
 819              		.cfi_offset 4, -16
 820              		.cfi_offset 5, -12
 821              		.cfi_offset 7, -8
 822              		.cfi_offset 14, -4
 823 0002 88B0     		sub	sp, sp, #32
 824              		.cfi_def_cfa_offset 48
 825 0004 00AF     		add	r7, sp, #0
 826              		.cfi_def_cfa_register 7
 827 0006 7860     		str	r0, [r7, #4]
 828 0008 3960     		str	r1, [r7]
 149:Lib/Camera_Middleware/sensors/cmw_imx335.c ****   const int32_t available_imx335_fps[] = {10, 15, 20, 25, 30};
 829              		.loc 1 149 17
 830 000a 144B     		ldr	r3, .L35
 831 000c 07F10804 		add	r4, r7, #8
 832 0010 1D46     		mov	r5, r3
 833 0012 0FCD     		ldmia	r5!, {r0, r1, r2, r3}
 834 0014 0FC4     		stmia	r4!, {r0, r1, r2, r3}
 835 0016 2B68     		ldr	r3, [r5]
 836 0018 2360     		str	r3, [r4]
 837              	.LBB2:
 150:Lib/Camera_Middleware/sensors/cmw_imx335.c **** 
 151:Lib/Camera_Middleware/sensors/cmw_imx335.c ****   for (int i = 0; i < ARRAY_SIZE(available_imx335_fps); i++)
 838              		.loc 1 151 12
 839 001a 0023     		movs	r3, #0
 840 001c FB61     		str	r3, [r7, #28]
 841              		.loc 1 151 3
 842 001e 13E0     		b	.L30
 843              	.L33:
 152:Lib/Camera_Middleware/sensors/cmw_imx335.c ****     if (framerate == available_imx335_fps[i])
ARM GAS  /tmp/ccNbLpFw.s 			page 19


 844              		.loc 1 152 42
 845 0020 FB69     		ldr	r3, [r7, #28]
 846 0022 9B00     		lsls	r3, r3, #2
 847 0024 2033     		adds	r3, r3, #32
 848 0026 3B44     		add	r3, r3, r7
 849 0028 53F8183C 		ldr	r3, [r3, #-24]
 850              		.loc 1 152 8
 851 002c 3A68     		ldr	r2, [r7]
 852 002e 9A42     		cmp	r2, r3
 853 0030 07D1     		bne	.L31
 153:Lib/Camera_Middleware/sensors/cmw_imx335.c ****       return IMX335_SetFramerate(&((CMW_IMX335_t *)io_ctx)->ctx_driver, framerate);
 854              		.loc 1 153 14
 855 0032 7B68     		ldr	r3, [r7, #4]
 856 0034 0833     		adds	r3, r3, #8
 857 0036 3968     		ldr	r1, [r7]
 858 0038 1846     		mov	r0, r3
 859 003a FFF7FEFF 		bl	IMX335_SetFramerate
 860 003e 0346     		mov	r3, r0
 861 0040 07E0     		b	.L34
 862              	.L31:
 151:Lib/Camera_Middleware/sensors/cmw_imx335.c ****     if (framerate == available_imx335_fps[i])
 863              		.loc 1 151 58 discriminator 2
 864 0042 FB69     		ldr	r3, [r7, #28]
 865 0044 0133     		adds	r3, r3, #1
 866 0046 FB61     		str	r3, [r7, #28]
 867              	.L30:
 151:Lib/Camera_Middleware/sensors/cmw_imx335.c ****     if (framerate == available_imx335_fps[i])
 868              		.loc 1 151 21 discriminator 1
 869 0048 FB69     		ldr	r3, [r7, #28]
 870 004a 042B     		cmp	r3, #4
 871 004c E8D9     		bls	.L33
 872              	.LBE2:
 154:Lib/Camera_Middleware/sensors/cmw_imx335.c **** 
 155:Lib/Camera_Middleware/sensors/cmw_imx335.c ****   return CMW_ERROR_WRONG_PARAM;
 873              		.loc 1 155 10
 874 004e 6FF00103 		mvn	r3, #1
 875              	.L34:
 156:Lib/Camera_Middleware/sensors/cmw_imx335.c **** }
 876              		.loc 1 156 1
 877 0052 1846     		mov	r0, r3
 878 0054 2037     		adds	r7, r7, #32
 879              		.cfi_def_cfa_offset 16
 880 0056 BD46     		mov	sp, r7
 881              		.cfi_def_cfa_register 13
 882              		@ sp needed
 883 0058 B0BD     		pop	{r4, r5, r7, pc}
 884              	.L36:
 885 005a 00BF     		.align	2
 886              	.L35:
 887 005c 00000000 		.word	.LC0
 888              		.cfi_endproc
 889              	.LFE3351:
 891              		.section	.text.CMW_IMX335_SetMirrorFlip,"ax",%progbits
 892              		.align	1
 893              		.syntax unified
 894              		.thumb
 895              		.thumb_func
ARM GAS  /tmp/ccNbLpFw.s 			page 20


 897              	CMW_IMX335_SetMirrorFlip:
 898              	.LFB3352:
 157:Lib/Camera_Middleware/sensors/cmw_imx335.c **** 
 158:Lib/Camera_Middleware/sensors/cmw_imx335.c **** static int32_t CMW_IMX335_SetMirrorFlip(void *io_ctx, uint32_t config)
 159:Lib/Camera_Middleware/sensors/cmw_imx335.c **** {
 899              		.loc 1 159 1
 900              		.cfi_startproc
 901              		@ args = 0, pretend = 0, frame = 16
 902              		@ frame_needed = 1, uses_anonymous_args = 0
 903 0000 80B5     		push	{r7, lr}
 904              		.cfi_def_cfa_offset 8
 905              		.cfi_offset 7, -8
 906              		.cfi_offset 14, -4
 907 0002 84B0     		sub	sp, sp, #16
 908              		.cfi_def_cfa_offset 24
 909 0004 00AF     		add	r7, sp, #0
 910              		.cfi_def_cfa_register 7
 911 0006 7860     		str	r0, [r7, #4]
 912 0008 3960     		str	r1, [r7]
 160:Lib/Camera_Middleware/sensors/cmw_imx335.c ****   int32_t mirrorFlip = CMW_IMX335_getMirrorFlipConfig(config);
 913              		.loc 1 160 24
 914 000a 3868     		ldr	r0, [r7]
 915 000c FFF7FEFF 		bl	CMW_IMX335_getMirrorFlipConfig
 916 0010 F860     		str	r0, [r7, #12]
 161:Lib/Camera_Middleware/sensors/cmw_imx335.c ****   return IMX335_MirrorFlipConfig(&((CMW_IMX335_t *)io_ctx)->ctx_driver, mirrorFlip);
 917              		.loc 1 161 10
 918 0012 7B68     		ldr	r3, [r7, #4]
 919 0014 0833     		adds	r3, r3, #8
 920 0016 FA68     		ldr	r2, [r7, #12]
 921 0018 1146     		mov	r1, r2
 922 001a 1846     		mov	r0, r3
 923 001c FFF7FEFF 		bl	IMX335_MirrorFlipConfig
 924 0020 0346     		mov	r3, r0
 162:Lib/Camera_Middleware/sensors/cmw_imx335.c **** }
 925              		.loc 1 162 1
 926 0022 1846     		mov	r0, r3
 927 0024 1037     		adds	r7, r7, #16
 928              		.cfi_def_cfa_offset 8
 929 0026 BD46     		mov	sp, r7
 930              		.cfi_def_cfa_register 13
 931              		@ sp needed
 932 0028 80BD     		pop	{r7, pc}
 933              		.cfi_endproc
 934              	.LFE3352:
 936              		.section	.rodata
 937              		.align	2
 938              	.LC1:
 939 0014 494D5833 		.ascii	"IMX335\000"
 939      333500
 940              		.section	.text.CMW_IMX335_GetSensorInfo,"ax",%progbits
 941              		.align	1
 942              		.syntax unified
 943              		.thumb
 944              		.thumb_func
 946              	CMW_IMX335_GetSensorInfo:
 947              	.LFB3353:
 163:Lib/Camera_Middleware/sensors/cmw_imx335.c **** 
ARM GAS  /tmp/ccNbLpFw.s 			page 21


 164:Lib/Camera_Middleware/sensors/cmw_imx335.c **** static int32_t CMW_IMX335_GetSensorInfo(void *io_ctx, ISP_SensorInfoTypeDef *info)
 165:Lib/Camera_Middleware/sensors/cmw_imx335.c **** {
 948              		.loc 1 165 1
 949              		.cfi_startproc
 950              		@ args = 0, pretend = 0, frame = 8
 951              		@ frame_needed = 1, uses_anonymous_args = 0
 952              		@ link register save eliminated.
 953 0000 80B4     		push	{r7}
 954              		.cfi_def_cfa_offset 4
 955              		.cfi_offset 7, -4
 956 0002 83B0     		sub	sp, sp, #12
 957              		.cfi_def_cfa_offset 16
 958 0004 00AF     		add	r7, sp, #0
 959              		.cfi_def_cfa_register 7
 960 0006 7860     		str	r0, [r7, #4]
 961 0008 3960     		str	r1, [r7]
 166:Lib/Camera_Middleware/sensors/cmw_imx335.c ****   if ((io_ctx ==  NULL) || (info == NULL))
 962              		.loc 1 166 6
 963 000a 7B68     		ldr	r3, [r7, #4]
 964 000c 002B     		cmp	r3, #0
 965 000e 02D0     		beq	.L40
 966              		.loc 1 166 25 discriminator 1
 967 0010 3B68     		ldr	r3, [r7]
 968 0012 002B     		cmp	r3, #0
 969 0014 02D1     		bne	.L41
 970              	.L40:
 167:Lib/Camera_Middleware/sensors/cmw_imx335.c ****   {
 168:Lib/Camera_Middleware/sensors/cmw_imx335.c ****     return CMW_ERROR_WRONG_PARAM;
 971              		.loc 1 168 12
 972 0016 6FF00103 		mvn	r3, #1
 973 001a 25E0     		b	.L42
 974              	.L41:
 169:Lib/Camera_Middleware/sensors/cmw_imx335.c ****   }
 170:Lib/Camera_Middleware/sensors/cmw_imx335.c **** 
 171:Lib/Camera_Middleware/sensors/cmw_imx335.c ****   if (sizeof(info->name) >= strlen(IMX335_NAME) + 1)
 172:Lib/Camera_Middleware/sensors/cmw_imx335.c ****   {
 173:Lib/Camera_Middleware/sensors/cmw_imx335.c ****     strcpy(info->name, IMX335_NAME);
 975              		.loc 1 173 16
 976 001c 3B68     		ldr	r3, [r7]
 977              		.loc 1 173 5
 978 001e 154A     		ldr	r2, .L43
 979 0020 1068     		ldr	r0, [r2]
 980 0022 1860     		str	r0, [r3]	@ unaligned
 981 0024 9188     		ldrh	r1, [r2, #4]	@ unaligned
 982 0026 9279     		ldrb	r2, [r2, #6]
 983 0028 9980     		strh	r1, [r3, #4]	@ unaligned
 984 002a 9A71     		strb	r2, [r3, #6]
 174:Lib/Camera_Middleware/sensors/cmw_imx335.c ****   }
 175:Lib/Camera_Middleware/sensors/cmw_imx335.c ****   else
 176:Lib/Camera_Middleware/sensors/cmw_imx335.c ****   {
 177:Lib/Camera_Middleware/sensors/cmw_imx335.c ****     return CMW_ERROR_COMPONENT_FAILURE;
 178:Lib/Camera_Middleware/sensors/cmw_imx335.c ****   }
 179:Lib/Camera_Middleware/sensors/cmw_imx335.c **** 
 180:Lib/Camera_Middleware/sensors/cmw_imx335.c ****   info->bayer_pattern = IMX335_BAYER_PATTERN;
 985              		.loc 1 180 23
 986 002c 3B68     		ldr	r3, [r7]
 987 002e 0022     		movs	r2, #0
ARM GAS  /tmp/ccNbLpFw.s 			page 22


 988 0030 83F82020 		strb	r2, [r3, #32]
 181:Lib/Camera_Middleware/sensors/cmw_imx335.c ****   info->color_depth = IMX335_COLOR_DEPTH;
 989              		.loc 1 181 21
 990 0034 3B68     		ldr	r3, [r7]
 991 0036 0A22     		movs	r2, #10
 992 0038 83F82120 		strb	r2, [r3, #33]
 182:Lib/Camera_Middleware/sensors/cmw_imx335.c ****   info->width = IMX335_WIDTH;
 993              		.loc 1 182 15
 994 003c 3B68     		ldr	r3, [r7]
 995 003e 4FF42262 		mov	r2, #2592
 996 0042 5A62     		str	r2, [r3, #36]
 183:Lib/Camera_Middleware/sensors/cmw_imx335.c ****   info->height = IMX335_HEIGHT;
 997              		.loc 1 183 16
 998 0044 3B68     		ldr	r3, [r7]
 999 0046 4FF4F362 		mov	r2, #1944
 1000 004a 9A62     		str	r2, [r3, #40]
 184:Lib/Camera_Middleware/sensors/cmw_imx335.c ****   info->gain_min = IMX335_GAIN_MIN;
 1001              		.loc 1 184 18
 1002 004c 3B68     		ldr	r3, [r7]
 1003 004e 0022     		movs	r2, #0
 1004 0050 DA62     		str	r2, [r3, #44]
 185:Lib/Camera_Middleware/sensors/cmw_imx335.c ****   info->gain_max = IMX335_GAIN_MAX;
 1005              		.loc 1 185 18
 1006 0052 3B68     		ldr	r3, [r7]
 1007 0054 084A     		ldr	r2, .L43+4
 1008 0056 1A63     		str	r2, [r3, #48]
 186:Lib/Camera_Middleware/sensors/cmw_imx335.c ****   info->exposure_min = IMX335_EXPOSURE_MIN;
 1009              		.loc 1 186 22
 1010 0058 3B68     		ldr	r3, [r7]
 1011 005a 0022     		movs	r2, #0
 1012 005c 5A63     		str	r2, [r3, #52]
 187:Lib/Camera_Middleware/sensors/cmw_imx335.c ****   info->exposure_max = IMX335_EXPOSURE_MAX;
 1013              		.loc 1 187 22
 1014 005e 3B68     		ldr	r3, [r7]
 1015 0060 48F2F212 		movw	r2, #33266
 1016 0064 9A63     		str	r2, [r3, #56]
 188:Lib/Camera_Middleware/sensors/cmw_imx335.c **** 
 189:Lib/Camera_Middleware/sensors/cmw_imx335.c ****   return CMW_ERROR_NONE;
 1017              		.loc 1 189 10
 1018 0066 0023     		movs	r3, #0
 1019              	.L42:
 190:Lib/Camera_Middleware/sensors/cmw_imx335.c **** }
 1020              		.loc 1 190 1
 1021 0068 1846     		mov	r0, r3
 1022 006a 0C37     		adds	r7, r7, #12
 1023              		.cfi_def_cfa_offset 4
 1024 006c BD46     		mov	sp, r7
 1025              		.cfi_def_cfa_register 13
 1026              		@ sp needed
 1027 006e 5DF8047B 		ldr	r7, [sp], #4
 1028              		.cfi_restore 7
 1029              		.cfi_def_cfa_offset 0
 1030 0072 7047     		bx	lr
 1031              	.L44:
 1032              		.align	2
 1033              	.L43:
 1034 0074 14000000 		.word	.LC1
ARM GAS  /tmp/ccNbLpFw.s 			page 23


 1035 0078 40190100 		.word	72000
 1036              		.cfi_endproc
 1037              	.LFE3353:
 1039              		.section	.text.CMW_IMX335_SetTestPattern,"ax",%progbits
 1040              		.align	1
 1041              		.syntax unified
 1042              		.thumb
 1043              		.thumb_func
 1045              	CMW_IMX335_SetTestPattern:
 1046              	.LFB3354:
 191:Lib/Camera_Middleware/sensors/cmw_imx335.c **** 
 192:Lib/Camera_Middleware/sensors/cmw_imx335.c **** static int32_t CMW_IMX335_SetTestPattern(void *io_ctx, int32_t mode)
 193:Lib/Camera_Middleware/sensors/cmw_imx335.c **** {
 1047              		.loc 1 193 1
 1048              		.cfi_startproc
 1049              		@ args = 0, pretend = 0, frame = 8
 1050              		@ frame_needed = 1, uses_anonymous_args = 0
 1051 0000 80B5     		push	{r7, lr}
 1052              		.cfi_def_cfa_offset 8
 1053              		.cfi_offset 7, -8
 1054              		.cfi_offset 14, -4
 1055 0002 82B0     		sub	sp, sp, #8
 1056              		.cfi_def_cfa_offset 16
 1057 0004 00AF     		add	r7, sp, #0
 1058              		.cfi_def_cfa_register 7
 1059 0006 7860     		str	r0, [r7, #4]
 1060 0008 3960     		str	r1, [r7]
 194:Lib/Camera_Middleware/sensors/cmw_imx335.c ****   return IMX335_SetTestPattern(&((CMW_IMX335_t *)io_ctx)->ctx_driver, mode);
 1061              		.loc 1 194 10
 1062 000a 7B68     		ldr	r3, [r7, #4]
 1063 000c 0833     		adds	r3, r3, #8
 1064 000e 3968     		ldr	r1, [r7]
 1065 0010 1846     		mov	r0, r3
 1066 0012 FFF7FEFF 		bl	IMX335_SetTestPattern
 1067 0016 0346     		mov	r3, r0
 195:Lib/Camera_Middleware/sensors/cmw_imx335.c **** }
 1068              		.loc 1 195 1
 1069 0018 1846     		mov	r0, r3
 1070 001a 0837     		adds	r7, r7, #8
 1071              		.cfi_def_cfa_offset 8
 1072 001c BD46     		mov	sp, r7
 1073              		.cfi_def_cfa_register 13
 1074              		@ sp needed
 1075 001e 80BD     		pop	{r7, pc}
 1076              		.cfi_endproc
 1077              	.LFE3354:
 1079              		.section	.text.CMW_IMX335_Init,"ax",%progbits
 1080              		.align	1
 1081              		.syntax unified
 1082              		.thumb
 1083              		.thumb_func
 1085              	CMW_IMX335_Init:
 1086              	.LFB3355:
 196:Lib/Camera_Middleware/sensors/cmw_imx335.c **** 
 197:Lib/Camera_Middleware/sensors/cmw_imx335.c **** static int32_t CMW_IMX335_Init(void *io_ctx, CMW_Sensor_Init_t *initSensor)
 198:Lib/Camera_Middleware/sensors/cmw_imx335.c **** {
 1087              		.loc 1 198 1
ARM GAS  /tmp/ccNbLpFw.s 			page 24


 1088              		.cfi_startproc
 1089              		@ args = 0, pretend = 0, frame = 16
 1090              		@ frame_needed = 1, uses_anonymous_args = 0
 1091 0000 80B5     		push	{r7, lr}
 1092              		.cfi_def_cfa_offset 8
 1093              		.cfi_offset 7, -8
 1094              		.cfi_offset 14, -4
 1095 0002 84B0     		sub	sp, sp, #16
 1096              		.cfi_def_cfa_offset 24
 1097 0004 00AF     		add	r7, sp, #0
 1098              		.cfi_def_cfa_register 7
 1099 0006 7860     		str	r0, [r7, #4]
 1100 0008 3960     		str	r1, [r7]
 199:Lib/Camera_Middleware/sensors/cmw_imx335.c ****   int ret = CMW_ERROR_NONE;
 1101              		.loc 1 199 7
 1102 000a 0023     		movs	r3, #0
 1103 000c FB60     		str	r3, [r7, #12]
 200:Lib/Camera_Middleware/sensors/cmw_imx335.c ****   uint32_t resolution;
 201:Lib/Camera_Middleware/sensors/cmw_imx335.c **** 
 202:Lib/Camera_Middleware/sensors/cmw_imx335.c ****   ret = CMW_IMX335_GetResType(initSensor->width, initSensor->height, &resolution);
 1104              		.loc 1 202 9
 1105 000e 3B68     		ldr	r3, [r7]
 1106 0010 1868     		ldr	r0, [r3]
 1107 0012 3B68     		ldr	r3, [r7]
 1108 0014 5B68     		ldr	r3, [r3, #4]
 1109 0016 07F10802 		add	r2, r7, #8
 1110 001a 1946     		mov	r1, r3
 1111 001c FFF7FEFF 		bl	CMW_IMX335_GetResType
 1112 0020 F860     		str	r0, [r7, #12]
 203:Lib/Camera_Middleware/sensors/cmw_imx335.c ****   if (ret)
 1113              		.loc 1 203 6
 1114 0022 FB68     		ldr	r3, [r7, #12]
 1115 0024 002B     		cmp	r3, #0
 1116 0026 02D0     		beq	.L48
 204:Lib/Camera_Middleware/sensors/cmw_imx335.c ****   {
 205:Lib/Camera_Middleware/sensors/cmw_imx335.c ****     return CMW_ERROR_WRONG_PARAM;
 1117              		.loc 1 205 12
 1118 0028 6FF00103 		mvn	r3, #1
 1119 002c 1DE0     		b	.L52
 1120              	.L48:
 206:Lib/Camera_Middleware/sensors/cmw_imx335.c ****   }
 207:Lib/Camera_Middleware/sensors/cmw_imx335.c **** 
 208:Lib/Camera_Middleware/sensors/cmw_imx335.c ****   ret = CMW_IMX335_SetMirrorFlip(io_ctx, initSensor->mirrorFlip);
 1121              		.loc 1 208 9
 1122 002e 3B68     		ldr	r3, [r7]
 1123 0030 1B69     		ldr	r3, [r3, #16]
 1124 0032 1946     		mov	r1, r3
 1125 0034 7868     		ldr	r0, [r7, #4]
 1126 0036 FFF7FEFF 		bl	CMW_IMX335_SetMirrorFlip
 1127 003a F860     		str	r0, [r7, #12]
 209:Lib/Camera_Middleware/sensors/cmw_imx335.c ****   if (ret)
 1128              		.loc 1 209 6
 1129 003c FB68     		ldr	r3, [r7, #12]
 1130 003e 002B     		cmp	r3, #0
 1131 0040 02D0     		beq	.L50
 210:Lib/Camera_Middleware/sensors/cmw_imx335.c ****   {
 211:Lib/Camera_Middleware/sensors/cmw_imx335.c ****     return CMW_ERROR_WRONG_PARAM;
ARM GAS  /tmp/ccNbLpFw.s 			page 25


 1132              		.loc 1 211 12
 1133 0042 6FF00103 		mvn	r3, #1
 1134 0046 10E0     		b	.L52
 1135              	.L50:
 212:Lib/Camera_Middleware/sensors/cmw_imx335.c ****   }
 213:Lib/Camera_Middleware/sensors/cmw_imx335.c **** 
 214:Lib/Camera_Middleware/sensors/cmw_imx335.c ****   ret = IMX335_Init(&((CMW_IMX335_t *)io_ctx)->ctx_driver, resolution, initSensor->pixel_format);
 1136              		.loc 1 214 9
 1137 0048 7B68     		ldr	r3, [r7, #4]
 1138 004a 03F10800 		add	r0, r3, #8
 1139 004e B968     		ldr	r1, [r7, #8]
 1140 0050 3B68     		ldr	r3, [r7]
 1141 0052 DB68     		ldr	r3, [r3, #12]
 1142 0054 1A46     		mov	r2, r3
 1143 0056 FFF7FEFF 		bl	IMX335_Init
 1144 005a F860     		str	r0, [r7, #12]
 215:Lib/Camera_Middleware/sensors/cmw_imx335.c ****   if (ret != IMX335_OK)
 1145              		.loc 1 215 6
 1146 005c FB68     		ldr	r3, [r7, #12]
 1147 005e 002B     		cmp	r3, #0
 1148 0060 02D0     		beq	.L51
 216:Lib/Camera_Middleware/sensors/cmw_imx335.c ****   {
 217:Lib/Camera_Middleware/sensors/cmw_imx335.c ****     return CMW_ERROR_COMPONENT_FAILURE;
 1149              		.loc 1 217 12
 1150 0062 6FF00403 		mvn	r3, #4
 1151 0066 00E0     		b	.L52
 1152              	.L51:
 218:Lib/Camera_Middleware/sensors/cmw_imx335.c ****   }
 219:Lib/Camera_Middleware/sensors/cmw_imx335.c **** 
 220:Lib/Camera_Middleware/sensors/cmw_imx335.c ****   return CMW_ERROR_NONE;
 1153              		.loc 1 220 10
 1154 0068 0023     		movs	r3, #0
 1155              	.L52:
 221:Lib/Camera_Middleware/sensors/cmw_imx335.c **** }
 1156              		.loc 1 221 1
 1157 006a 1846     		mov	r0, r3
 1158 006c 1037     		adds	r7, r7, #16
 1159              		.cfi_def_cfa_offset 8
 1160 006e BD46     		mov	sp, r7
 1161              		.cfi_def_cfa_register 13
 1162              		@ sp needed
 1163 0070 80BD     		pop	{r7, pc}
 1164              		.cfi_endproc
 1165              	.LFE3355:
 1167              		.section	.text.CMW_IMX335_Start,"ax",%progbits
 1168              		.align	1
 1169              		.syntax unified
 1170              		.thumb
 1171              		.thumb_func
 1173              	CMW_IMX335_Start:
 1174              	.LFB3356:
 222:Lib/Camera_Middleware/sensors/cmw_imx335.c **** 
 223:Lib/Camera_Middleware/sensors/cmw_imx335.c **** static int32_t CMW_IMX335_Start(void *io_ctx)
 224:Lib/Camera_Middleware/sensors/cmw_imx335.c **** {
 1175              		.loc 1 224 1
 1176              		.cfi_startproc
 1177              		@ args = 0, pretend = 0, frame = 16
ARM GAS  /tmp/ccNbLpFw.s 			page 26


 1178              		@ frame_needed = 1, uses_anonymous_args = 0
 1179 0000 80B5     		push	{r7, lr}
 1180              		.cfi_def_cfa_offset 8
 1181              		.cfi_offset 7, -8
 1182              		.cfi_offset 14, -4
 1183 0002 86B0     		sub	sp, sp, #24
 1184              		.cfi_def_cfa_offset 32
 1185 0004 02AF     		add	r7, sp, #8
 1186              		.cfi_def_cfa 7, 24
 1187 0006 7860     		str	r0, [r7, #4]
 225:Lib/Camera_Middleware/sensors/cmw_imx335.c **** #ifndef ISP_MW_TUNING_TOOL_SUPPORT
 226:Lib/Camera_Middleware/sensors/cmw_imx335.c ****   int ret;
 227:Lib/Camera_Middleware/sensors/cmw_imx335.c ****   /* Statistic area is provided with null value so that it force the ISP Library to get the statist
 228:Lib/Camera_Middleware/sensors/cmw_imx335.c ****    * area information from the tuning file.
 229:Lib/Camera_Middleware/sensors/cmw_imx335.c ****    */
 230:Lib/Camera_Middleware/sensors/cmw_imx335.c ****   (void) ISP_IQParamCacheInit; /* unused */
 231:Lib/Camera_Middleware/sensors/cmw_imx335.c ****   ret = ISP_Init(&((CMW_IMX335_t *)io_ctx)->hIsp, ((CMW_IMX335_t *)io_ctx)->hdcmipp, 0, &((CMW_IMX3
 1188              		.loc 1 231 9
 1189 0008 7B68     		ldr	r3, [r7, #4]
 1190 000a 03F13000 		add	r0, r3, #48
 1191              		.loc 1 231 75
 1192 000e 7B68     		ldr	r3, [r7, #4]
 1193 0010 D3F8DC10 		ldr	r1, [r3, #220]
 1194              		.loc 1 231 9
 1195 0014 7B68     		ldr	r3, [r7, #4]
 1196 0016 B833     		adds	r3, r3, #184
 1197 0018 114A     		ldr	r2, .L57
 1198 001a 0092     		str	r2, [sp]
 1199 001c 0022     		movs	r2, #0
 1200 001e FFF7FEFF 		bl	ISP_Init
 1201 0022 0346     		mov	r3, r0
 1202              		.loc 1 231 7 discriminator 1
 1203 0024 FB60     		str	r3, [r7, #12]
 232:Lib/Camera_Middleware/sensors/cmw_imx335.c ****   if (ret != ISP_OK)
 1204              		.loc 1 232 6
 1205 0026 FB68     		ldr	r3, [r7, #12]
 1206 0028 002B     		cmp	r3, #0
 1207 002a 02D0     		beq	.L54
 233:Lib/Camera_Middleware/sensors/cmw_imx335.c ****   {
 234:Lib/Camera_Middleware/sensors/cmw_imx335.c ****     return CMW_ERROR_COMPONENT_FAILURE;
 1208              		.loc 1 234 12
 1209 002c 6FF00403 		mvn	r3, #4
 1210 0030 12E0     		b	.L55
 1211              	.L54:
 235:Lib/Camera_Middleware/sensors/cmw_imx335.c ****   }
 236:Lib/Camera_Middleware/sensors/cmw_imx335.c **** 
 237:Lib/Camera_Middleware/sensors/cmw_imx335.c ****   ret = ISP_Start(&((CMW_IMX335_t *)io_ctx)->hIsp);
 1212              		.loc 1 237 9
 1213 0032 7B68     		ldr	r3, [r7, #4]
 1214 0034 3033     		adds	r3, r3, #48
 1215 0036 1846     		mov	r0, r3
 1216 0038 FFF7FEFF 		bl	ISP_Start
 1217 003c 0346     		mov	r3, r0
 1218              		.loc 1 237 7 discriminator 1
 1219 003e FB60     		str	r3, [r7, #12]
 238:Lib/Camera_Middleware/sensors/cmw_imx335.c ****   if (ret != ISP_OK)
 1220              		.loc 1 238 6
ARM GAS  /tmp/ccNbLpFw.s 			page 27


 1221 0040 FB68     		ldr	r3, [r7, #12]
 1222 0042 002B     		cmp	r3, #0
 1223 0044 02D0     		beq	.L56
 239:Lib/Camera_Middleware/sensors/cmw_imx335.c ****   {
 240:Lib/Camera_Middleware/sensors/cmw_imx335.c ****       return CMW_ERROR_PERIPH_FAILURE;
 1224              		.loc 1 240 14
 1225 0046 6FF00303 		mvn	r3, #3
 1226 004a 05E0     		b	.L55
 1227              	.L56:
 241:Lib/Camera_Middleware/sensors/cmw_imx335.c ****   }
 242:Lib/Camera_Middleware/sensors/cmw_imx335.c **** #endif
 243:Lib/Camera_Middleware/sensors/cmw_imx335.c ****   return IMX335_Start(&((CMW_IMX335_t *)io_ctx)->ctx_driver);
 1228              		.loc 1 243 10
 1229 004c 7B68     		ldr	r3, [r7, #4]
 1230 004e 0833     		adds	r3, r3, #8
 1231 0050 1846     		mov	r0, r3
 1232 0052 FFF7FEFF 		bl	IMX335_Start
 1233 0056 0346     		mov	r3, r0
 1234              	.L55:
 244:Lib/Camera_Middleware/sensors/cmw_imx335.c **** }
 1235              		.loc 1 244 1
 1236 0058 1846     		mov	r0, r3
 1237 005a 1037     		adds	r7, r7, #16
 1238              		.cfi_def_cfa_offset 8
 1239 005c BD46     		mov	sp, r7
 1240              		.cfi_def_cfa_register 13
 1241              		@ sp needed
 1242 005e 80BD     		pop	{r7, pc}
 1243              	.L58:
 1244              		.align	2
 1245              	.L57:
 1246 0060 00000000 		.word	ISP_IQParamCacheInit_IMX335
 1247              		.cfi_endproc
 1248              	.LFE3356:
 1250              		.section	.text.CMW_IMX335_Run,"ax",%progbits
 1251              		.align	1
 1252              		.syntax unified
 1253              		.thumb
 1254              		.thumb_func
 1256              	CMW_IMX335_Run:
 1257              	.LFB3357:
 245:Lib/Camera_Middleware/sensors/cmw_imx335.c **** 
 246:Lib/Camera_Middleware/sensors/cmw_imx335.c **** static int32_t CMW_IMX335_Run(void *io_ctx)
 247:Lib/Camera_Middleware/sensors/cmw_imx335.c **** {
 1258              		.loc 1 247 1
 1259              		.cfi_startproc
 1260              		@ args = 0, pretend = 0, frame = 16
 1261              		@ frame_needed = 1, uses_anonymous_args = 0
 1262 0000 80B5     		push	{r7, lr}
 1263              		.cfi_def_cfa_offset 8
 1264              		.cfi_offset 7, -8
 1265              		.cfi_offset 14, -4
 1266 0002 84B0     		sub	sp, sp, #16
 1267              		.cfi_def_cfa_offset 24
 1268 0004 00AF     		add	r7, sp, #0
 1269              		.cfi_def_cfa_register 7
 1270 0006 7860     		str	r0, [r7, #4]
ARM GAS  /tmp/ccNbLpFw.s 			page 28


 248:Lib/Camera_Middleware/sensors/cmw_imx335.c **** #ifndef ISP_MW_TUNING_TOOL_SUPPORT
 249:Lib/Camera_Middleware/sensors/cmw_imx335.c ****   int ret;
 250:Lib/Camera_Middleware/sensors/cmw_imx335.c ****   ret = ISP_BackgroundProcess(&((CMW_IMX335_t *)io_ctx)->hIsp);
 1271              		.loc 1 250 9
 1272 0008 7B68     		ldr	r3, [r7, #4]
 1273 000a 3033     		adds	r3, r3, #48
 1274 000c 1846     		mov	r0, r3
 1275 000e FFF7FEFF 		bl	ISP_BackgroundProcess
 1276 0012 0346     		mov	r3, r0
 1277              		.loc 1 250 7 discriminator 1
 1278 0014 FB60     		str	r3, [r7, #12]
 251:Lib/Camera_Middleware/sensors/cmw_imx335.c ****   if (ret != ISP_OK)
 1279              		.loc 1 251 6
 1280 0016 FB68     		ldr	r3, [r7, #12]
 1281 0018 002B     		cmp	r3, #0
 1282 001a 02D0     		beq	.L60
 252:Lib/Camera_Middleware/sensors/cmw_imx335.c ****   {
 253:Lib/Camera_Middleware/sensors/cmw_imx335.c ****       return CMW_ERROR_PERIPH_FAILURE;
 1283              		.loc 1 253 14
 1284 001c 6FF00303 		mvn	r3, #3
 1285 0020 00E0     		b	.L61
 1286              	.L60:
 254:Lib/Camera_Middleware/sensors/cmw_imx335.c ****   }
 255:Lib/Camera_Middleware/sensors/cmw_imx335.c **** #endif
 256:Lib/Camera_Middleware/sensors/cmw_imx335.c ****   return CMW_ERROR_NONE;
 1287              		.loc 1 256 10
 1288 0022 0023     		movs	r3, #0
 1289              	.L61:
 257:Lib/Camera_Middleware/sensors/cmw_imx335.c **** }
 1290              		.loc 1 257 1
 1291 0024 1846     		mov	r0, r3
 1292 0026 1037     		adds	r7, r7, #16
 1293              		.cfi_def_cfa_offset 8
 1294 0028 BD46     		mov	sp, r7
 1295              		.cfi_def_cfa_register 13
 1296              		@ sp needed
 1297 002a 80BD     		pop	{r7, pc}
 1298              		.cfi_endproc
 1299              	.LFE3357:
 1301              		.section	.text.CMW_IMX335_PowerOn,"ax",%progbits
 1302              		.align	1
 1303              		.syntax unified
 1304              		.thumb
 1305              		.thumb_func
 1307              	CMW_IMX335_PowerOn:
 1308              	.LFB3358:
 258:Lib/Camera_Middleware/sensors/cmw_imx335.c **** 
 259:Lib/Camera_Middleware/sensors/cmw_imx335.c **** static void CMW_IMX335_PowerOn(CMW_IMX335_t *io_ctx)
 260:Lib/Camera_Middleware/sensors/cmw_imx335.c **** {
 1309              		.loc 1 260 1
 1310              		.cfi_startproc
 1311              		@ args = 0, pretend = 0, frame = 8
 1312              		@ frame_needed = 1, uses_anonymous_args = 0
 1313 0000 80B5     		push	{r7, lr}
 1314              		.cfi_def_cfa_offset 8
 1315              		.cfi_offset 7, -8
 1316              		.cfi_offset 14, -4
ARM GAS  /tmp/ccNbLpFw.s 			page 29


 1317 0002 82B0     		sub	sp, sp, #8
 1318              		.cfi_def_cfa_offset 16
 1319 0004 00AF     		add	r7, sp, #0
 1320              		.cfi_def_cfa_register 7
 1321 0006 7860     		str	r0, [r7, #4]
 261:Lib/Camera_Middleware/sensors/cmw_imx335.c ****   io_ctx->ShutdownPin(0);  /* Disable MB1723 2V8 signal  */
 1322              		.loc 1 261 9
 1323 0008 7B68     		ldr	r3, [r7, #4]
 1324 000a D3F8FC30 		ldr	r3, [r3, #252]
 1325              		.loc 1 261 3
 1326 000e 0020     		movs	r0, #0
 1327 0010 9847     		blx	r3
 1328              	.LVL0:
 262:Lib/Camera_Middleware/sensors/cmw_imx335.c ****   io_ctx->Delay(100);
 1329              		.loc 1 262 9
 1330 0012 7B68     		ldr	r3, [r7, #4]
 1331 0014 D3F8F830 		ldr	r3, [r3, #248]
 1332              		.loc 1 262 3
 1333 0018 6420     		movs	r0, #100
 1334 001a 9847     		blx	r3
 1335              	.LVL1:
 263:Lib/Camera_Middleware/sensors/cmw_imx335.c ****   io_ctx->EnablePin(0);  /* RESET low (reset active low) */
 1336              		.loc 1 263 9
 1337 001c 7B68     		ldr	r3, [r7, #4]
 1338 001e D3F80031 		ldr	r3, [r3, #256]
 1339              		.loc 1 263 3
 1340 0022 0020     		movs	r0, #0
 1341 0024 9847     		blx	r3
 1342              	.LVL2:
 264:Lib/Camera_Middleware/sensors/cmw_imx335.c ****   io_ctx->Delay(100);
 1343              		.loc 1 264 9
 1344 0026 7B68     		ldr	r3, [r7, #4]
 1345 0028 D3F8F830 		ldr	r3, [r3, #248]
 1346              		.loc 1 264 3
 1347 002c 6420     		movs	r0, #100
 1348 002e 9847     		blx	r3
 1349              	.LVL3:
 265:Lib/Camera_Middleware/sensors/cmw_imx335.c ****   io_ctx->ShutdownPin(1);  /* Disable MB1723 2V8 signal  */
 1350              		.loc 1 265 9
 1351 0030 7B68     		ldr	r3, [r7, #4]
 1352 0032 D3F8FC30 		ldr	r3, [r3, #252]
 1353              		.loc 1 265 3
 1354 0036 0120     		movs	r0, #1
 1355 0038 9847     		blx	r3
 1356              	.LVL4:
 266:Lib/Camera_Middleware/sensors/cmw_imx335.c ****   io_ctx->Delay(100);
 1357              		.loc 1 266 9
 1358 003a 7B68     		ldr	r3, [r7, #4]
 1359 003c D3F8F830 		ldr	r3, [r3, #248]
 1360              		.loc 1 266 3
 1361 0040 6420     		movs	r0, #100
 1362 0042 9847     		blx	r3
 1363              	.LVL5:
 267:Lib/Camera_Middleware/sensors/cmw_imx335.c ****   io_ctx->EnablePin(1);  /* RESET low (reset active low) */
 1364              		.loc 1 267 9
 1365 0044 7B68     		ldr	r3, [r7, #4]
 1366 0046 D3F80031 		ldr	r3, [r3, #256]
ARM GAS  /tmp/ccNbLpFw.s 			page 30


 1367              		.loc 1 267 3
 1368 004a 0120     		movs	r0, #1
 1369 004c 9847     		blx	r3
 1370              	.LVL6:
 268:Lib/Camera_Middleware/sensors/cmw_imx335.c ****   io_ctx->Delay(100);
 1371              		.loc 1 268 9
 1372 004e 7B68     		ldr	r3, [r7, #4]
 1373 0050 D3F8F830 		ldr	r3, [r3, #248]
 1374              		.loc 1 268 3
 1375 0054 6420     		movs	r0, #100
 1376 0056 9847     		blx	r3
 1377              	.LVL7:
 269:Lib/Camera_Middleware/sensors/cmw_imx335.c **** }
 1378              		.loc 1 269 1
 1379 0058 00BF     		nop
 1380 005a 0837     		adds	r7, r7, #8
 1381              		.cfi_def_cfa_offset 8
 1382 005c BD46     		mov	sp, r7
 1383              		.cfi_def_cfa_register 13
 1384              		@ sp needed
 1385 005e 80BD     		pop	{r7, pc}
 1386              		.cfi_endproc
 1387              	.LFE3358:
 1389              		.section	.text.CMW_IMX335_VsyncEventCallback,"ax",%progbits
 1390              		.align	1
 1391              		.syntax unified
 1392              		.thumb
 1393              		.thumb_func
 1395              	CMW_IMX335_VsyncEventCallback:
 1396              	.LFB3359:
 270:Lib/Camera_Middleware/sensors/cmw_imx335.c **** 
 271:Lib/Camera_Middleware/sensors/cmw_imx335.c **** static void CMW_IMX335_VsyncEventCallback(void *io_ctx, uint32_t pipe)
 272:Lib/Camera_Middleware/sensors/cmw_imx335.c **** {
 1397              		.loc 1 272 1
 1398              		.cfi_startproc
 1399              		@ args = 0, pretend = 0, frame = 8
 1400              		@ frame_needed = 1, uses_anonymous_args = 0
 1401 0000 80B5     		push	{r7, lr}
 1402              		.cfi_def_cfa_offset 8
 1403              		.cfi_offset 7, -8
 1404              		.cfi_offset 14, -4
 1405 0002 82B0     		sub	sp, sp, #8
 1406              		.cfi_def_cfa_offset 16
 1407 0004 00AF     		add	r7, sp, #0
 1408              		.cfi_def_cfa_register 7
 1409 0006 7860     		str	r0, [r7, #4]
 1410 0008 3960     		str	r1, [r7]
 273:Lib/Camera_Middleware/sensors/cmw_imx335.c **** #ifndef ISP_MW_TUNING_TOOL_SUPPORT
 274:Lib/Camera_Middleware/sensors/cmw_imx335.c ****   /* Update the ISP frame counter and call its statistics handler */
 275:Lib/Camera_Middleware/sensors/cmw_imx335.c ****   switch (pipe)
 1411              		.loc 1 275 3
 1412 000a 3B68     		ldr	r3, [r7]
 1413 000c 022B     		cmp	r3, #2
 1414 000e 1AD0     		beq	.L64
 1415 0010 3B68     		ldr	r3, [r7]
 1416 0012 022B     		cmp	r3, #2
 1417 0014 1DD8     		bhi	.L68
ARM GAS  /tmp/ccNbLpFw.s 			page 31


 1418 0016 3B68     		ldr	r3, [r7]
 1419 0018 002B     		cmp	r3, #0
 1420 001a 03D0     		beq	.L66
 1421 001c 3B68     		ldr	r3, [r7]
 1422 001e 012B     		cmp	r3, #1
 1423 0020 06D0     		beq	.L67
 276:Lib/Camera_Middleware/sensors/cmw_imx335.c ****   {
 277:Lib/Camera_Middleware/sensors/cmw_imx335.c ****     case DCMIPP_PIPE0 :
 278:Lib/Camera_Middleware/sensors/cmw_imx335.c ****       ISP_IncDumpFrameId(&((CMW_IMX335_t *)io_ctx)->hIsp);
 279:Lib/Camera_Middleware/sensors/cmw_imx335.c ****       break;
 280:Lib/Camera_Middleware/sensors/cmw_imx335.c ****     case DCMIPP_PIPE1 :
 281:Lib/Camera_Middleware/sensors/cmw_imx335.c ****       ISP_IncMainFrameId(&((CMW_IMX335_t *)io_ctx)->hIsp);
 282:Lib/Camera_Middleware/sensors/cmw_imx335.c ****       ISP_GatherStatistics(&((CMW_IMX335_t *)io_ctx)->hIsp);
 283:Lib/Camera_Middleware/sensors/cmw_imx335.c ****       break;
 284:Lib/Camera_Middleware/sensors/cmw_imx335.c ****     case DCMIPP_PIPE2 :
 285:Lib/Camera_Middleware/sensors/cmw_imx335.c ****       ISP_IncAncillaryFrameId(&((CMW_IMX335_t *)io_ctx)->hIsp);
 286:Lib/Camera_Middleware/sensors/cmw_imx335.c ****       break;
 287:Lib/Camera_Middleware/sensors/cmw_imx335.c ****   }
 288:Lib/Camera_Middleware/sensors/cmw_imx335.c **** #endif
 289:Lib/Camera_Middleware/sensors/cmw_imx335.c **** }
 1424              		.loc 1 289 1
 1425 0022 16E0     		b	.L68
 1426              	.L66:
 278:Lib/Camera_Middleware/sensors/cmw_imx335.c ****       break;
 1427              		.loc 1 278 7
 1428 0024 7B68     		ldr	r3, [r7, #4]
 1429 0026 3033     		adds	r3, r3, #48
 1430 0028 1846     		mov	r0, r3
 1431 002a FFF7FEFF 		bl	ISP_IncDumpFrameId
 279:Lib/Camera_Middleware/sensors/cmw_imx335.c ****     case DCMIPP_PIPE1 :
 1432              		.loc 1 279 7
 1433 002e 10E0     		b	.L65
 1434              	.L67:
 281:Lib/Camera_Middleware/sensors/cmw_imx335.c ****       ISP_GatherStatistics(&((CMW_IMX335_t *)io_ctx)->hIsp);
 1435              		.loc 1 281 7
 1436 0030 7B68     		ldr	r3, [r7, #4]
 1437 0032 3033     		adds	r3, r3, #48
 1438 0034 1846     		mov	r0, r3
 1439 0036 FFF7FEFF 		bl	ISP_IncMainFrameId
 282:Lib/Camera_Middleware/sensors/cmw_imx335.c ****       break;
 1440              		.loc 1 282 7
 1441 003a 7B68     		ldr	r3, [r7, #4]
 1442 003c 3033     		adds	r3, r3, #48
 1443 003e 1846     		mov	r0, r3
 1444 0040 FFF7FEFF 		bl	ISP_GatherStatistics
 283:Lib/Camera_Middleware/sensors/cmw_imx335.c ****     case DCMIPP_PIPE2 :
 1445              		.loc 1 283 7
 1446 0044 05E0     		b	.L65
 1447              	.L64:
 285:Lib/Camera_Middleware/sensors/cmw_imx335.c ****       break;
 1448              		.loc 1 285 7
 1449 0046 7B68     		ldr	r3, [r7, #4]
 1450 0048 3033     		adds	r3, r3, #48
 1451 004a 1846     		mov	r0, r3
 1452 004c FFF7FEFF 		bl	ISP_IncAncillaryFrameId
 286:Lib/Camera_Middleware/sensors/cmw_imx335.c ****   }
 1453              		.loc 1 286 7
ARM GAS  /tmp/ccNbLpFw.s 			page 32


 1454 0050 00BF     		nop
 1455              	.L65:
 1456              	.L68:
 1457              		.loc 1 289 1
 1458 0052 00BF     		nop
 1459 0054 0837     		adds	r7, r7, #8
 1460              		.cfi_def_cfa_offset 8
 1461 0056 BD46     		mov	sp, r7
 1462              		.cfi_def_cfa_register 13
 1463              		@ sp needed
 1464 0058 80BD     		pop	{r7, pc}
 1465              		.cfi_endproc
 1466              	.LFE3359:
 1468              		.section	.text.CMW_IMX335_FrameEventCallback,"ax",%progbits
 1469              		.align	1
 1470              		.syntax unified
 1471              		.thumb
 1472              		.thumb_func
 1474              	CMW_IMX335_FrameEventCallback:
 1475              	.LFB3360:
 290:Lib/Camera_Middleware/sensors/cmw_imx335.c **** 
 291:Lib/Camera_Middleware/sensors/cmw_imx335.c **** static void CMW_IMX335_FrameEventCallback(void *io_ctx, uint32_t pipe)
 292:Lib/Camera_Middleware/sensors/cmw_imx335.c **** {
 1476              		.loc 1 292 1
 1477              		.cfi_startproc
 1478              		@ args = 0, pretend = 0, frame = 8
 1479              		@ frame_needed = 1, uses_anonymous_args = 0
 1480              		@ link register save eliminated.
 1481 0000 80B4     		push	{r7}
 1482              		.cfi_def_cfa_offset 4
 1483              		.cfi_offset 7, -4
 1484 0002 83B0     		sub	sp, sp, #12
 1485              		.cfi_def_cfa_offset 16
 1486 0004 00AF     		add	r7, sp, #0
 1487              		.cfi_def_cfa_register 7
 1488 0006 7860     		str	r0, [r7, #4]
 1489 0008 3960     		str	r1, [r7]
 293:Lib/Camera_Middleware/sensors/cmw_imx335.c **** }
 1490              		.loc 1 293 1
 1491 000a 00BF     		nop
 1492 000c 0C37     		adds	r7, r7, #12
 1493              		.cfi_def_cfa_offset 4
 1494 000e BD46     		mov	sp, r7
 1495              		.cfi_def_cfa_register 13
 1496              		@ sp needed
 1497 0010 5DF8047B 		ldr	r7, [sp], #4
 1498              		.cfi_restore 7
 1499              		.cfi_def_cfa_offset 0
 1500 0014 7047     		bx	lr
 1501              		.cfi_endproc
 1502              	.LFE3360:
 1504              		.section	.text.CMW_IMX335_Probe,"ax",%progbits
 1505              		.align	1
 1506              		.global	CMW_IMX335_Probe
 1507              		.syntax unified
 1508              		.thumb
 1509              		.thumb_func
ARM GAS  /tmp/ccNbLpFw.s 			page 33


 1511              	CMW_IMX335_Probe:
 1512              	.LFB3361:
 294:Lib/Camera_Middleware/sensors/cmw_imx335.c **** 
 295:Lib/Camera_Middleware/sensors/cmw_imx335.c **** int CMW_IMX335_Probe(CMW_IMX335_t *io_ctx, CMW_Sensor_if_t *imx335_if)
 296:Lib/Camera_Middleware/sensors/cmw_imx335.c **** {
 1513              		.loc 1 296 1
 1514              		.cfi_startproc
 1515              		@ args = 0, pretend = 0, frame = 16
 1516              		@ frame_needed = 1, uses_anonymous_args = 0
 1517 0000 80B5     		push	{r7, lr}
 1518              		.cfi_def_cfa_offset 8
 1519              		.cfi_offset 7, -8
 1520              		.cfi_offset 14, -4
 1521 0002 84B0     		sub	sp, sp, #16
 1522              		.cfi_def_cfa_offset 24
 1523 0004 00AF     		add	r7, sp, #0
 1524              		.cfi_def_cfa_register 7
 1525 0006 7860     		str	r0, [r7, #4]
 1526 0008 3960     		str	r1, [r7]
 297:Lib/Camera_Middleware/sensors/cmw_imx335.c ****   int ret = CMW_ERROR_NONE;
 1527              		.loc 1 297 7
 1528 000a 0023     		movs	r3, #0
 1529 000c FB60     		str	r3, [r7, #12]
 298:Lib/Camera_Middleware/sensors/cmw_imx335.c ****   uint32_t id;
 299:Lib/Camera_Middleware/sensors/cmw_imx335.c ****   io_ctx->ctx_driver.IO.Address = io_ctx->Address;
 1530              		.loc 1 299 41
 1531 000e 7B68     		ldr	r3, [r7, #4]
 1532 0010 1A88     		ldrh	r2, [r3]
 1533              		.loc 1 299 33
 1534 0012 7B68     		ldr	r3, [r7, #4]
 1535 0014 1A82     		strh	r2, [r3, #16]	@ movhi
 300:Lib/Camera_Middleware/sensors/cmw_imx335.c ****   io_ctx->ctx_driver.IO.Init = io_ctx->Init;
 1536              		.loc 1 300 38
 1537 0016 7B68     		ldr	r3, [r7, #4]
 1538 0018 D3F8E420 		ldr	r2, [r3, #228]
 1539              		.loc 1 300 30
 1540 001c 7B68     		ldr	r3, [r7, #4]
 1541 001e 9A60     		str	r2, [r3, #8]
 301:Lib/Camera_Middleware/sensors/cmw_imx335.c ****   io_ctx->ctx_driver.IO.DeInit = io_ctx->DeInit;
 1542              		.loc 1 301 40
 1543 0020 7B68     		ldr	r3, [r7, #4]
 1544 0022 D3F8E820 		ldr	r2, [r3, #232]
 1545              		.loc 1 301 32
 1546 0026 7B68     		ldr	r3, [r7, #4]
 1547 0028 DA60     		str	r2, [r3, #12]
 302:Lib/Camera_Middleware/sensors/cmw_imx335.c ****   io_ctx->ctx_driver.IO.GetTick = io_ctx->GetTick;
 1548              		.loc 1 302 41
 1549 002a 7B68     		ldr	r3, [r7, #4]
 1550 002c D3F8F420 		ldr	r2, [r3, #244]
 1551              		.loc 1 302 33
 1552 0030 7B68     		ldr	r3, [r7, #4]
 1553 0032 DA61     		str	r2, [r3, #28]
 303:Lib/Camera_Middleware/sensors/cmw_imx335.c ****   io_ctx->ctx_driver.IO.ReadReg = io_ctx->ReadReg;
 1554              		.loc 1 303 41
 1555 0034 7B68     		ldr	r3, [r7, #4]
 1556 0036 D3F8F020 		ldr	r2, [r3, #240]
 1557              		.loc 1 303 33
ARM GAS  /tmp/ccNbLpFw.s 			page 34


 1558 003a 7B68     		ldr	r3, [r7, #4]
 1559 003c 9A61     		str	r2, [r3, #24]
 304:Lib/Camera_Middleware/sensors/cmw_imx335.c ****   io_ctx->ctx_driver.IO.WriteReg = io_ctx->WriteReg;
 1560              		.loc 1 304 42
 1561 003e 7B68     		ldr	r3, [r7, #4]
 1562 0040 D3F8EC20 		ldr	r2, [r3, #236]
 1563              		.loc 1 304 34
 1564 0044 7B68     		ldr	r3, [r7, #4]
 1565 0046 5A61     		str	r2, [r3, #20]
 305:Lib/Camera_Middleware/sensors/cmw_imx335.c **** 
 306:Lib/Camera_Middleware/sensors/cmw_imx335.c ****   CMW_IMX335_PowerOn(io_ctx);
 1566              		.loc 1 306 3
 1567 0048 7868     		ldr	r0, [r7, #4]
 1568 004a FFF7FEFF 		bl	CMW_IMX335_PowerOn
 307:Lib/Camera_Middleware/sensors/cmw_imx335.c **** 
 308:Lib/Camera_Middleware/sensors/cmw_imx335.c ****   ret = IMX335_RegisterBusIO(&io_ctx->ctx_driver, &io_ctx->ctx_driver.IO);
 1569              		.loc 1 308 9
 1570 004e 7B68     		ldr	r3, [r7, #4]
 1571 0050 03F10802 		add	r2, r3, #8
 1572 0054 7B68     		ldr	r3, [r7, #4]
 1573 0056 0833     		adds	r3, r3, #8
 1574 0058 1946     		mov	r1, r3
 1575 005a 1046     		mov	r0, r2
 1576 005c FFF7FEFF 		bl	IMX335_RegisterBusIO
 1577 0060 F860     		str	r0, [r7, #12]
 309:Lib/Camera_Middleware/sensors/cmw_imx335.c ****   if (ret != IMX335_OK)
 1578              		.loc 1 309 6
 1579 0062 FB68     		ldr	r3, [r7, #12]
 1580 0064 002B     		cmp	r3, #0
 1581 0066 02D0     		beq	.L71
 310:Lib/Camera_Middleware/sensors/cmw_imx335.c ****   {
 311:Lib/Camera_Middleware/sensors/cmw_imx335.c ****     return CMW_ERROR_COMPONENT_FAILURE;
 1582              		.loc 1 311 12
 1583 0068 6FF00403 		mvn	r3, #4
 1584 006c 4AE0     		b	.L75
 1585              	.L71:
 312:Lib/Camera_Middleware/sensors/cmw_imx335.c ****   }
 313:Lib/Camera_Middleware/sensors/cmw_imx335.c **** 
 314:Lib/Camera_Middleware/sensors/cmw_imx335.c ****   ret = IMX335_ReadID(&io_ctx->ctx_driver, &id);
 1586              		.loc 1 314 9
 1587 006e 7B68     		ldr	r3, [r7, #4]
 1588 0070 0833     		adds	r3, r3, #8
 1589 0072 07F10802 		add	r2, r7, #8
 1590 0076 1146     		mov	r1, r2
 1591 0078 1846     		mov	r0, r3
 1592 007a FFF7FEFF 		bl	IMX335_ReadID
 1593 007e F860     		str	r0, [r7, #12]
 315:Lib/Camera_Middleware/sensors/cmw_imx335.c ****   if (ret != IMX335_OK)
 1594              		.loc 1 315 6
 1595 0080 FB68     		ldr	r3, [r7, #12]
 1596 0082 002B     		cmp	r3, #0
 1597 0084 02D0     		beq	.L73
 316:Lib/Camera_Middleware/sensors/cmw_imx335.c ****   {
 317:Lib/Camera_Middleware/sensors/cmw_imx335.c ****     return CMW_ERROR_COMPONENT_FAILURE;
 1598              		.loc 1 317 12
 1599 0086 6FF00403 		mvn	r3, #4
 1600 008a 3BE0     		b	.L75
ARM GAS  /tmp/ccNbLpFw.s 			page 35


 1601              	.L73:
 318:Lib/Camera_Middleware/sensors/cmw_imx335.c ****   }
 319:Lib/Camera_Middleware/sensors/cmw_imx335.c ****   if (id != IMX335_CHIP_ID)
 1602              		.loc 1 319 10
 1603 008c BB68     		ldr	r3, [r7, #8]
 1604              		.loc 1 319 6
 1605 008e 002B     		cmp	r3, #0
 1606 0090 02D0     		beq	.L74
 320:Lib/Camera_Middleware/sensors/cmw_imx335.c ****   {
 321:Lib/Camera_Middleware/sensors/cmw_imx335.c ****       ret = CMW_ERROR_UNKNOWN_COMPONENT;
 1607              		.loc 1 321 11
 1608 0092 6FF00603 		mvn	r3, #6
 1609 0096 FB60     		str	r3, [r7, #12]
 1610              	.L74:
 322:Lib/Camera_Middleware/sensors/cmw_imx335.c ****   }
 323:Lib/Camera_Middleware/sensors/cmw_imx335.c **** 
 324:Lib/Camera_Middleware/sensors/cmw_imx335.c ****   memset(imx335_if, 0, sizeof(*imx335_if));
 1611              		.loc 1 324 3
 1612 0098 6822     		movs	r2, #104
 1613 009a 0021     		movs	r1, #0
 1614 009c 3868     		ldr	r0, [r7]
 1615 009e FFF7FEFF 		bl	memset
 325:Lib/Camera_Middleware/sensors/cmw_imx335.c ****   imx335_if->Init = CMW_IMX335_Init;
 1616              		.loc 1 325 19
 1617 00a2 3B68     		ldr	r3, [r7]
 1618 00a4 194A     		ldr	r2, .L76
 1619 00a6 1A60     		str	r2, [r3]
 326:Lib/Camera_Middleware/sensors/cmw_imx335.c ****   imx335_if->Start = CMW_IMX335_Start;
 1620              		.loc 1 326 20
 1621 00a8 3B68     		ldr	r3, [r7]
 1622 00aa 194A     		ldr	r2, .L76+4
 1623 00ac 9A60     		str	r2, [r3, #8]
 327:Lib/Camera_Middleware/sensors/cmw_imx335.c ****   imx335_if->DeInit = CMW_IMX335_DeInit;
 1624              		.loc 1 327 21
 1625 00ae 3B68     		ldr	r3, [r7]
 1626 00b0 184A     		ldr	r2, .L76+8
 1627 00b2 5A60     		str	r2, [r3, #4]
 328:Lib/Camera_Middleware/sensors/cmw_imx335.c ****   imx335_if->Run = CMW_IMX335_Run;
 1628              		.loc 1 328 18
 1629 00b4 3B68     		ldr	r3, [r7]
 1630 00b6 184A     		ldr	r2, .L76+12
 1631 00b8 DA60     		str	r2, [r3, #12]
 329:Lib/Camera_Middleware/sensors/cmw_imx335.c ****   imx335_if->VsyncEventCallback = CMW_IMX335_VsyncEventCallback;
 1632              		.loc 1 329 33
 1633 00ba 3B68     		ldr	r3, [r7]
 1634 00bc 174A     		ldr	r2, .L76+16
 1635 00be 1A61     		str	r2, [r3, #16]
 330:Lib/Camera_Middleware/sensors/cmw_imx335.c ****   imx335_if->FrameEventCallback = CMW_IMX335_FrameEventCallback;
 1636              		.loc 1 330 33
 1637 00c0 3B68     		ldr	r3, [r7]
 1638 00c2 174A     		ldr	r2, .L76+20
 1639 00c4 5A61     		str	r2, [r3, #20]
 331:Lib/Camera_Middleware/sensors/cmw_imx335.c ****   imx335_if->ReadID = CMW_IMX335_ReadID;
 1640              		.loc 1 331 21
 1641 00c6 3B68     		ldr	r3, [r7]
 1642 00c8 164A     		ldr	r2, .L76+24
 1643 00ca DA61     		str	r2, [r3, #28]
ARM GAS  /tmp/ccNbLpFw.s 			page 36


 332:Lib/Camera_Middleware/sensors/cmw_imx335.c ****   imx335_if->SetGain = CMW_IMX335_SetGain;
 1644              		.loc 1 332 22
 1645 00cc 3B68     		ldr	r3, [r7]
 1646 00ce 164A     		ldr	r2, .L76+28
 1647 00d0 9A64     		str	r2, [r3, #72]
 333:Lib/Camera_Middleware/sensors/cmw_imx335.c ****   imx335_if->SetExposure = CMW_IMX335_SetExposure;
 1648              		.loc 1 333 26
 1649 00d2 3B68     		ldr	r3, [r7]
 1650 00d4 154A     		ldr	r2, .L76+32
 1651 00d6 DA64     		str	r2, [r3, #76]
 334:Lib/Camera_Middleware/sensors/cmw_imx335.c ****   imx335_if->SetWBRefMode = CMW_IMX335_SetWBRefMode;
 1652              		.loc 1 334 27
 1653 00d8 3B68     		ldr	r3, [r7]
 1654 00da 154A     		ldr	r2, .L76+36
 1655 00dc 5A65     		str	r2, [r3, #84]
 335:Lib/Camera_Middleware/sensors/cmw_imx335.c ****   imx335_if->ListWBRefModes = CMW_IMX335_ListWBRefModes;
 1656              		.loc 1 335 29
 1657 00de 3B68     		ldr	r3, [r7]
 1658 00e0 144A     		ldr	r2, .L76+40
 1659 00e2 9A65     		str	r2, [r3, #88]
 336:Lib/Camera_Middleware/sensors/cmw_imx335.c ****   imx335_if->SetFrequency = CMW_IMX335_SetFrequency;
 1660              		.loc 1 336 27
 1661 00e4 3B68     		ldr	r3, [r7]
 1662 00e6 144A     		ldr	r2, .L76+44
 1663 00e8 1A64     		str	r2, [r3, #64]
 337:Lib/Camera_Middleware/sensors/cmw_imx335.c ****   imx335_if->SetFramerate = CMW_IMX335_SetFramerate;
 1664              		.loc 1 337 27
 1665 00ea 3B68     		ldr	r3, [r7]
 1666 00ec 134A     		ldr	r2, .L76+48
 1667 00ee 5A64     		str	r2, [r3, #68]
 338:Lib/Camera_Middleware/sensors/cmw_imx335.c ****   imx335_if->SetMirrorFlip = CMW_IMX335_SetMirrorFlip;
 1668              		.loc 1 338 28
 1669 00f0 3B68     		ldr	r3, [r7]
 1670 00f2 134A     		ldr	r2, .L76+52
 1671 00f4 DA62     		str	r2, [r3, #44]
 339:Lib/Camera_Middleware/sensors/cmw_imx335.c ****   imx335_if->GetSensorInfo = CMW_IMX335_GetSensorInfo;
 1672              		.loc 1 339 28
 1673 00f6 3B68     		ldr	r3, [r7]
 1674 00f8 124A     		ldr	r2, .L76+56
 1675 00fa 1A66     		str	r2, [r3, #96]
 340:Lib/Camera_Middleware/sensors/cmw_imx335.c ****   imx335_if->SetTestPattern = CMW_IMX335_SetTestPattern;
 1676              		.loc 1 340 29
 1677 00fc 3B68     		ldr	r3, [r7]
 1678 00fe 124A     		ldr	r2, .L76+60
 1679 0100 5A66     		str	r2, [r3, #100]
 341:Lib/Camera_Middleware/sensors/cmw_imx335.c ****   return ret;
 1680              		.loc 1 341 10
 1681 0102 FB68     		ldr	r3, [r7, #12]
 1682              	.L75:
 342:Lib/Camera_Middleware/sensors/cmw_imx335.c **** }
 1683              		.loc 1 342 1
 1684 0104 1846     		mov	r0, r3
 1685 0106 1037     		adds	r7, r7, #16
 1686              		.cfi_def_cfa_offset 8
 1687 0108 BD46     		mov	sp, r7
 1688              		.cfi_def_cfa_register 13
 1689              		@ sp needed
ARM GAS  /tmp/ccNbLpFw.s 			page 37


 1690 010a 80BD     		pop	{r7, pc}
 1691              	.L77:
 1692              		.align	2
 1693              	.L76:
 1694 010c 00000000 		.word	CMW_IMX335_Init
 1695 0110 00000000 		.word	CMW_IMX335_Start
 1696 0114 00000000 		.word	CMW_IMX335_DeInit
 1697 0118 00000000 		.word	CMW_IMX335_Run
 1698 011c 00000000 		.word	CMW_IMX335_VsyncEventCallback
 1699 0120 00000000 		.word	CMW_IMX335_FrameEventCallback
 1700 0124 00000000 		.word	CMW_IMX335_ReadID
 1701 0128 00000000 		.word	CMW_IMX335_SetGain
 1702 012c 00000000 		.word	CMW_IMX335_SetExposure
 1703 0130 00000000 		.word	CMW_IMX335_SetWBRefMode
 1704 0134 00000000 		.word	CMW_IMX335_ListWBRefModes
 1705 0138 00000000 		.word	CMW_IMX335_SetFrequency
 1706 013c 00000000 		.word	CMW_IMX335_SetFramerate
 1707 0140 00000000 		.word	CMW_IMX335_SetMirrorFlip
 1708 0144 00000000 		.word	CMW_IMX335_GetSensorInfo
 1709 0148 00000000 		.word	CMW_IMX335_SetTestPattern
 1710              		.cfi_endproc
 1711              	.LFE3361:
 1713              		.text
 1714              	.Letext0:
 1715              		.file 2 "/home/tanjiajun2002/renesas/rzv/e2studio_v2025-01_fsp_v3.1.0/toolchains/gcc_arm/arm-gnu-t
 1716              		.file 3 "/home/tanjiajun2002/renesas/rzv/e2studio_v2025-01_fsp_v3.1.0/toolchains/gcc_arm/arm-gnu-t
 1717              		.file 4 "/home/tanjiajun2002/renesas/rzv/e2studio_v2025-01_fsp_v3.1.0/toolchains/gcc_arm/arm-gnu-t
 1718              		.file 5 "STM32Cube_FW_N6/Drivers/CMSIS/Device/ST/STM32N6xx/Include/stm32n657xx.h"
 1719              		.file 6 "STM32Cube_FW_N6/Drivers/STM32N6xx_HAL_Driver/Inc/stm32n6xx_hal_dcmipp.h"
 1720              		.file 7 "Lib/Camera_Middleware/ISP_Library/isp/Inc/isp_core.h"
 1721              		.file 8 "Lib/Camera_Middleware/sensors/cmw_sensors_if.h"
 1722              		.file 9 "Lib/Camera_Middleware/sensors/imx335/imx335_reg.h"
 1723              		.file 10 "Lib/Camera_Middleware/sensors/imx335/imx335.h"
 1724              		.file 11 "Lib/Camera_Middleware/sensors/cmw_imx335.h"
 1725              		.file 12 "Inc/imx335_isp_param_conf.h"
 1726              		.file 13 "Inc/vd66gy_isp_param_conf.h"
 1727              		.file 14 "Inc/isp_param_conf.h"
 1728              		.file 15 "/home/tanjiajun2002/renesas/rzv/e2studio_v2025-01_fsp_v3.1.0/toolchains/gcc_arm/arm-gnu-
 1729              		.file 16 "Lib/Camera_Middleware/ISP_Library/isp/Inc/isp_api.h"
ARM GAS  /tmp/ccNbLpFw.s 			page 38

