ARM GAS  /tmp/ccxnf62W.s 			page 1


   1              		.arch armv8.1-m.main
   2              		.fpu fpv5-d16
   3              		.arch_extension dsp
   4              		.arch_extension fp
   5              		.arch_extension fp.dp
   6              		.arch_extension mve
   7              		.arch_extension mve.fp
   8              		.eabi_attribute 5, "cortex-m55"
   9              		.eabi_attribute 28, 1
  10              		.eabi_attribute 20, 1
  11              		.eabi_attribute 21, 1
  12              		.eabi_attribute 23, 3
  13              		.eabi_attribute 24, 1
  14              		.eabi_attribute 25, 1
  15              		.eabi_attribute 26, 1
  16              		.eabi_attribute 30, 6
  17              		.eabi_attribute 34, 1
  18              		.eabi_attribute 38, 1
  19              		.eabi_attribute 18, 4
  20              		.file	"cmw_vd66gy.c"
  21              		.text
  22              	.Ltext0:
  23              		.cfi_sections	.debug_frame
  24              		.file 1 "Lib/Camera_Middleware/sensors/cmw_vd66gy.c"
  25              		.section	.rodata.ISP_IQParamCacheInit_IMX335,"a"
  26              		.align	2
  29              	ISP_IQParamCacheInit_IMX335:
  30 0000 00       		.byte	0
  31 0001 000000   		.space	3
  32 0004 00000000 		.word	0
  33 0008 00000000 		.word	0
  34 000c 01       		.byte	1
  35 000d 00       		.byte	0
  36 000e 02       		.byte	2
  37 000f 04       		.byte	4
  38 0010 04       		.byte	4
  39 0011 06       		.byte	6
  40 0012 0000     		.space	2
  41 0014 00       		.byte	0
  42 0015 000000   		.space	3
  43 0018 00000000 		.word	0
  44 001c 00000000 		.word	0
  45 0020 00000000 		.word	0
  46 0024 00000000 		.word	0
  47 0028 00000000 		.word	0
  48 002c 00000000 		.word	0
  49 0030 00000000 		.word	0
  50 0034 00000000 		.word	0
  51 0038 00000000 		.word	0
  52 003c 88020000 		.word	648
  53 0040 E6010000 		.word	486
  54 0044 10050000 		.word	1296
  55 0048 CC030000 		.word	972
  56 004c 00000000 		.word	0
  57 0050 00000000 		.word	0
  58 0054 00       		.byte	0
  59 0055 000000   		.space	3
ARM GAS  /tmp/ccxnf62W.s 			page 2


  60 0058 00000000 		.word	0
  61 005c 00       		.byte	0
  62 005d 00       		.byte	0
  63 005e 00000000 		.space	6
  63      0000
  64 0064 01       		.byte	1
  65 0065 0C       		.byte	12
  66 0066 0C       		.byte	12
  67 0067 0C       		.byte	12
  68 0068 01       		.byte	1
  69 0069 00       		.byte	0
  70 006a 00000000 		.space	6
  70      0000
  71 0070 00       		.byte	0
  72 0071 000000   		.space	3
  73 0074 01       		.byte	1
  74 0075 4100     		.ascii	"A\000"
  75 0077 00000000 		.space	30
  75      00000000 
  75      00000000 
  75      00000000 
  75      00000000 
  76 0095 544C3834 		.ascii	"TL84\000"
  76      00
  77 009a 00000000 		.space	27
  77      00000000 
  77      00000000 
  77      00000000 
  77      00000000 
  78 00b5 44353000 		.ascii	"D50\000"
  79 00b9 00000000 		.space	28
  79      00000000 
  79      00000000 
  79      00000000 
  79      00000000 
  80 00d5 44363500 		.ascii	"D65\000"
  81 00d9 00000000 		.space	28
  81      00000000 
  81      00000000 
  81      00000000 
  81      00000000 
  82 00f5 46726565 		.ascii	"Free slot\000"
  82      20736C6F 
  82      7400
  83 00ff 00000000 		.space	22
  83      00000000 
  83      00000000 
  83      00000000 
  83      00000000 
  84 0115 000000   		.space	3
  85 0118 280B0000 		.word	2856
  86 011c A00F0000 		.word	4000
  87 0120 88130000 		.word	5000
  88 0124 64190000 		.word	6500
  89 0128 00000000 		.word	0
  90 012c 003B5808 		.word	140000000
  91 0130 40CE8C0A 		.word	177000000
ARM GAS  /tmp/ccxnf62W.s 			page 3


  92 0134 00EF1C0D 		.word	220000000
  93 0138 40679A0E 		.word	245000000
  94 013c 00000000 		.word	0
  95 0140 00E1F505 		.word	100000000
  96 0144 00E1F505 		.word	100000000
  97 0148 00E1F505 		.word	100000000
  98 014c 00E1F505 		.word	100000000
  99 0150 00000000 		.word	0
 100 0154 C02A6410 		.word	275000000
 101 0158 C0D0010E 		.word	235000000
 102 015c 0095BA0A 		.word	180000000
 103 0160 C01C3D09 		.word	155000000
 104 0164 00000000 		.word	0
 105 0168 A0180709 		.word	151460000
 106 016c 606AE6F9 		.word	-102340000
 107 0170 E08C0803 		.word	50892000
 108 0174 A8E1DFFA 		.word	-85991000
 109 0178 A04C930C 		.word	210980000
 110 017c 40C682FE 		.word	-24984000
 111 0180 40787D01 		.word	25000000
 112 0184 C07471F0 		.word	-261000000
 113 0188 403F5314 		.word	341000000
 114 018c 242A3F09 		.word	155134500
 115 0190 707FDDFB 		.word	-69370000
 116 0194 50FBC700 		.word	13106000
 117 0198 68EDB1FD 		.word	-38671000
 118 019c 48BEFE09 		.word	167689800
 119 01a0 802DFAFD 		.word	-33936000
 120 01a4 D8A05400 		.word	5546200
 121 01a8 B02B05FC 		.word	-66770000
 122 01ac 088E8809 		.word	159944200
 123 01b0 80CDBB0A 		.word	180080000
 124 01b4 C09E22FC 		.word	-64840000
 125 01b8 D09B17FF 		.word	-15230000
 126 01bc D08CE1FD 		.word	-35550000
 127 01c0 00C6200A 		.word	169920000
 128 01c4 2067F3FD 		.word	-34380000
 129 01c8 10149500 		.word	9770000
 130 01cc E0BB4BFA 		.word	-95700000
 131 01d0 2038150B 		.word	185940000
 132 01d4 80CDBB0A 		.word	180080000
 133 01d8 C09E22FC 		.word	-64840000
 134 01dc D09B17FF 		.word	-15230000
 135 01e0 D08CE1FD 		.word	-35550000
 136 01e4 00C6200A 		.word	169920000
 137 01e8 2067F3FD 		.word	-34380000
 138 01ec 10149500 		.word	9770000
 139 01f0 E0BB4BFA 		.word	-95700000
 140 01f4 2038150B 		.word	185940000
 141 01f8 00000000 		.word	0
 142 01fc 00000000 		.word	0
 143 0200 00000000 		.word	0
 144 0204 00000000 		.word	0
 145 0208 00000000 		.word	0
 146 020c 00000000 		.word	0
 147 0210 00000000 		.word	0
 148 0214 00000000 		.word	0
ARM GAS  /tmp/ccxnf62W.s 			page 4


 149 0218 00000000 		.word	0
 150 021c 00       		.byte	0
 151 021d 000000   		.space	3
 152 0220 00000000 		.word	0
 153 0224 00000000 		.word	0
 154 0228 00000000 		.word	0
 155 022c 00       		.byte	0
 156 022d 000000   		.space	3
 157 0230 00000000 		.word	0
 158 0234 00000000 		.word	0
 159 0238 00000000 		.word	0
 160 023c 00000000 		.word	0
 161 0240 00000000 		.word	0
 162 0244 00000000 		.word	0
 163 0248 00000000 		.word	0
 164 024c 00000000 		.word	0
 165 0250 00000000 		.word	0
 166 0254 01       		.byte	1
 167 0255 01       		.byte	1
 168 0256 0000     		.space	2
 169              		.section	.rodata.ISP_IQParamCacheInit_VD66GY,"a"
 170              		.align	2
 173              	ISP_IQParamCacheInit_VD66GY:
 174 0000 00       		.byte	0
 175 0001 000000   		.space	3
 176 0004 00000000 		.word	0
 177 0008 00000000 		.word	0
 178 000c 01       		.byte	1
 179 000d 00       		.byte	0
 180 000e 02       		.byte	2
 181 000f 04       		.byte	4
 182 0010 04       		.byte	4
 183 0011 06       		.byte	6
 184 0012 0000     		.space	2
 185 0014 00       		.byte	0
 186 0015 000000   		.space	3
 187 0018 00000000 		.word	0
 188 001c 00000000 		.word	0
 189 0020 00000000 		.word	0
 190 0024 00000000 		.word	0
 191 0028 00000000 		.word	0
 192 002c 00000000 		.word	0
 193 0030 00000000 		.word	0
 194 0034 00000000 		.word	0
 195 0038 00000000 		.word	0
 196 003c 8C000000 		.word	140
 197 0040 55010000 		.word	341
 198 0044 48030000 		.word	840
 199 0048 AA020000 		.word	682
 200 004c 00000000 		.word	0
 201 0050 00000000 		.word	0
 202 0054 00       		.byte	0
 203 0055 000000   		.space	3
 204 0058 00000000 		.word	0
 205 005c 00       		.byte	0
 206 005d 00       		.byte	0
 207 005e 00000000 		.space	6
ARM GAS  /tmp/ccxnf62W.s 			page 5


 207      0000
 208 0064 01       		.byte	1
 209 0065 10       		.byte	16
 210 0066 10       		.byte	16
 211 0067 10       		.byte	16
 212 0068 00       		.byte	0
 213 0069 00       		.byte	0
 214 006a 00000000 		.space	6
 214      0000
 215 0070 00       		.byte	0
 216 0071 000000   		.space	3
 217 0074 01       		.byte	1
 218 0075 4A756467 		.ascii	"JudgeII A\000"
 218      65494920 
 218      4100
 219 007f 00000000 		.space	22
 219      00000000 
 219      00000000 
 219      00000000 
 219      00000000 
 220 0095 4A756465 		.ascii	"JudegII TL84\000"
 220      67494920 
 220      544C3834 
 220      00
 221 00a2 00000000 		.space	19
 221      00000000 
 221      00000000 
 221      00000000 
 221      000000
 222 00b5 4A756465 		.ascii	"JudegeII DAY\000"
 222      67654949 
 222      20444159 
 222      00
 223 00c2 00000000 		.space	19
 223      00000000 
 223      00000000 
 223      00000000 
 223      000000
 224 00d5 00       		.ascii	"\000"
 225 00d6 00000000 		.space	31
 225      00000000 
 225      00000000 
 225      00000000 
 225      00000000 
 226 00f5 00       		.ascii	"\000"
 227 00f6 00000000 		.space	31
 227      00000000 
 227      00000000 
 227      00000000 
 227      00000000 
 228 0115 000000   		.space	3
 229 0118 BE0A0000 		.word	2750
 230 011c 36100000 		.word	4150
 231 0120 5E1A0000 		.word	6750
 232 0124 00000000 		.word	0
 233 0128 00000000 		.word	0
 234 012c C095A905 		.word	95000000
ARM GAS  /tmp/ccxnf62W.s 			page 6


 235 0130 4047F906 		.word	117000000
 236 0134 005F4C09 		.word	156000000
 237 0138 00000000 		.word	0
 238 013c 00000000 		.word	0
 239 0140 00E1F505 		.word	100000000
 240 0144 00E1F505 		.word	100000000
 241 0148 00E1F505 		.word	100000000
 242 014c 00000000 		.word	0
 243 0150 00000000 		.word	0
 244 0154 80972F0E 		.word	238000000
 245 0158 40E9430B 		.word	189000000
 246 015c 80D1F008 		.word	150000000
 247 0160 00000000 		.word	0
 248 0164 00000000 		.word	0
 249 0168 1FC3FB07 		.word	133939999
 250 016c E0C0C4FE 		.word	-20660000
 251 0170 80B422FE 		.word	-31280000
 252 0174 30D8BDFD 		.word	-37890000
 253 0178 80EFEB08 		.word	149680000
 254 017c 618670FE 		.word	-26179999
 255 0180 C0201F00 		.word	2040000
 256 0184 404EAEFA 		.word	-89240000
 257 0188 70DB380D 		.word	221830000
 258 018c 006BCD08 		.word	147680000
 259 0190 7021B7FD 		.word	-38330000
 260 0194 800040FE 		.word	-29360000
 261 0198 00C498FD 		.word	-40320000
 262 019c 90EFB308 		.word	146010000
 263 01a0 C0DF20FE 		.word	-31400000
 264 01a4 E0C81000 		.word	1100000
 265 01a8 408D59FC 		.word	-61240000
 266 01ac 70156B0A 		.word	174790000
 267 01b0 90EFB308 		.word	146010000
 268 01b4 80A2A8FD 		.word	-39280000
 269 01b8 207629FF 		.word	-14060000
 270 01bc D0D367FE 		.word	-26750000
 271 01c0 10D01609 		.word	152490000
 272 01c4 403277FD 		.word	-42520000
 273 01c8 40B31100 		.word	1160000
 274 01cc B082B2FC 		.word	-55410000
 275 01d0 70E49308 		.word	143910000
 276 01d4 00000000 		.word	0
 277 01d8 00000000 		.word	0
 278 01dc 00000000 		.word	0
 279 01e0 00000000 		.word	0
 280 01e4 00000000 		.word	0
 281 01e8 00000000 		.word	0
 282 01ec 00000000 		.word	0
 283 01f0 00000000 		.word	0
 284 01f4 00000000 		.word	0
 285 01f8 00000000 		.word	0
 286 01fc 00000000 		.word	0
 287 0200 00000000 		.word	0
 288 0204 00000000 		.word	0
 289 0208 00000000 		.word	0
 290 020c 00000000 		.word	0
 291 0210 00000000 		.word	0
ARM GAS  /tmp/ccxnf62W.s 			page 7


 292 0214 00000000 		.word	0
 293 0218 00000000 		.word	0
 294 021c 00       		.byte	0
 295 021d 000000   		.space	3
 296 0220 00000000 		.word	0
 297 0224 00000000 		.word	0
 298 0228 00000000 		.word	0
 299 022c 00       		.byte	0
 300 022d 000000   		.space	3
 301 0230 00000000 		.word	0
 302 0234 00000000 		.word	0
 303 0238 00000000 		.word	0
 304 023c 00000000 		.word	0
 305 0240 00000000 		.word	0
 306 0244 00000000 		.word	0
 307 0248 00000000 		.word	0
 308 024c 00000000 		.word	0
 309 0250 00000000 		.word	0
 310 0254 01       		.byte	1
 311 0255 01       		.byte	1
 312 0256 0000     		.space	2
 313              		.section	.data.ISP_IQParamCacheInit,"aw"
 314              		.align	2
 317              	ISP_IQParamCacheInit:
 318 0000 00000000 		.word	ISP_IQParamCacheInit_IMX335
 319 0004 00000000 		.word	ISP_IQParamCacheInit_VD66GY
 320              		.section	.text.CMW_VD66GY_Read8,"ax",%progbits
 321              		.align	1
 322              		.syntax unified
 323              		.thumb
 324              		.thumb_func
 326              	CMW_VD66GY_Read8:
 327              	.LFB3342:
   1:Lib/Camera_Middleware/sensors/cmw_vd66gy.c **** /**
   2:Lib/Camera_Middleware/sensors/cmw_vd66gy.c ****   ******************************************************************************
   3:Lib/Camera_Middleware/sensors/cmw_vd66gy.c ****   * @file    cmw_vd66gy.c
   4:Lib/Camera_Middleware/sensors/cmw_vd66gy.c ****   * @author  MDG Application Team
   5:Lib/Camera_Middleware/sensors/cmw_vd66gy.c ****   ******************************************************************************
   6:Lib/Camera_Middleware/sensors/cmw_vd66gy.c ****   * @attention
   7:Lib/Camera_Middleware/sensors/cmw_vd66gy.c ****   *
   8:Lib/Camera_Middleware/sensors/cmw_vd66gy.c ****   * Copyright (c) 2024 STMicroelectronics.
   9:Lib/Camera_Middleware/sensors/cmw_vd66gy.c ****   * All rights reserved.
  10:Lib/Camera_Middleware/sensors/cmw_vd66gy.c ****   *
  11:Lib/Camera_Middleware/sensors/cmw_vd66gy.c ****   * This software is licensed under terms that can be found in the LICENSE file
  12:Lib/Camera_Middleware/sensors/cmw_vd66gy.c ****   * in the root directory of this software component.
  13:Lib/Camera_Middleware/sensors/cmw_vd66gy.c ****   * If no LICENSE file comes with this software, it is provided AS-IS.
  14:Lib/Camera_Middleware/sensors/cmw_vd66gy.c ****   *
  15:Lib/Camera_Middleware/sensors/cmw_vd66gy.c ****   ******************************************************************************
  16:Lib/Camera_Middleware/sensors/cmw_vd66gy.c ****   */
  17:Lib/Camera_Middleware/sensors/cmw_vd66gy.c **** 
  18:Lib/Camera_Middleware/sensors/cmw_vd66gy.c **** #include "cmw_vd66gy.h"
  19:Lib/Camera_Middleware/sensors/cmw_vd66gy.c **** 
  20:Lib/Camera_Middleware/sensors/cmw_vd66gy.c **** #include <assert.h>
  21:Lib/Camera_Middleware/sensors/cmw_vd66gy.c **** #include <stdlib.h>
  22:Lib/Camera_Middleware/sensors/cmw_vd66gy.c **** #include <stdio.h>
  23:Lib/Camera_Middleware/sensors/cmw_vd66gy.c **** #include <stddef.h>
  24:Lib/Camera_Middleware/sensors/cmw_vd66gy.c **** #include <string.h>
ARM GAS  /tmp/ccxnf62W.s 			page 8


  25:Lib/Camera_Middleware/sensors/cmw_vd66gy.c **** #include "cmw_camera.h"
  26:Lib/Camera_Middleware/sensors/cmw_vd66gy.c **** #ifndef ISP_MW_TUNING_TOOL_SUPPORT
  27:Lib/Camera_Middleware/sensors/cmw_vd66gy.c **** #include "isp_param_conf.h"
  28:Lib/Camera_Middleware/sensors/cmw_vd66gy.c **** #endif
  29:Lib/Camera_Middleware/sensors/cmw_vd66gy.c **** 
  30:Lib/Camera_Middleware/sensors/cmw_vd66gy.c **** #include "vd6g.h"
  31:Lib/Camera_Middleware/sensors/cmw_vd66gy.c **** 
  32:Lib/Camera_Middleware/sensors/cmw_vd66gy.c **** #define VD66GY_REG_MODEL_ID                   0x0000
  33:Lib/Camera_Middleware/sensors/cmw_vd66gy.c **** 
  34:Lib/Camera_Middleware/sensors/cmw_vd66gy.c **** #define container_of(ptr, type, member) (type *) ((unsigned char *)ptr - offsetof(type,member))
  35:Lib/Camera_Middleware/sensors/cmw_vd66gy.c **** 
  36:Lib/Camera_Middleware/sensors/cmw_vd66gy.c **** #define MIN(a, b)                           ((a) < (b) ?  (a) : (b))
  37:Lib/Camera_Middleware/sensors/cmw_vd66gy.c **** #define MDECIBEL_TO_LINEAR(mdB)             (pow(10.0, (mdB / 1000.0) / 20.0))
  38:Lib/Camera_Middleware/sensors/cmw_vd66gy.c **** #define LINEAR_TO_MDECIBEL(linearValue)     (1000 * (20.0 * log10(linearValue)))
  39:Lib/Camera_Middleware/sensors/cmw_vd66gy.c **** #define FLOAT_TO_FP58(x)                    (((uint16_t)(x) << 8) | ((uint16_t)((x - (uint16_t)(x))
  40:Lib/Camera_Middleware/sensors/cmw_vd66gy.c **** #define FP58_TO_FLOAT(fp)                   (((fp) >> 8) + ((fp) & 0xFF) / 256.0f)
  41:Lib/Camera_Middleware/sensors/cmw_vd66gy.c **** 
  42:Lib/Camera_Middleware/sensors/cmw_vd66gy.c **** static int CMW_VD66GY_Read8(CMW_VD66GY_t *pObj, uint16_t addr, uint8_t *value)
  43:Lib/Camera_Middleware/sensors/cmw_vd66gy.c **** {
 328              		.loc 1 43 1
 329              		.cfi_startproc
 330              		@ args = 0, pretend = 0, frame = 16
 331              		@ frame_needed = 1, uses_anonymous_args = 0
 332 0000 90B5     		push	{r4, r7, lr}
 333              		.cfi_def_cfa_offset 12
 334              		.cfi_offset 4, -12
 335              		.cfi_offset 7, -8
 336              		.cfi_offset 14, -4
 337 0002 85B0     		sub	sp, sp, #20
 338              		.cfi_def_cfa_offset 32
 339 0004 00AF     		add	r7, sp, #0
 340              		.cfi_def_cfa_register 7
 341 0006 F860     		str	r0, [r7, #12]
 342 0008 0B46     		mov	r3, r1
 343 000a 7A60     		str	r2, [r7, #4]
 344 000c 7B81     		strh	r3, [r7, #10]	@ movhi
  44:Lib/Camera_Middleware/sensors/cmw_vd66gy.c ****   return pObj->ReadReg(pObj->Address, addr, value, 1);
 345              		.loc 1 44 14
 346 000e FB68     		ldr	r3, [r7, #12]
 347 0010 D3F83041 		ldr	r4, [r3, #304]
 348              		.loc 1 44 10
 349 0014 FB68     		ldr	r3, [r7, #12]
 350 0016 1888     		ldrh	r0, [r3]
 351 0018 7989     		ldrh	r1, [r7, #10]
 352 001a 0123     		movs	r3, #1
 353 001c 7A68     		ldr	r2, [r7, #4]
 354 001e A047     		blx	r4
 355              	.LVL0:
 356 0020 0346     		mov	r3, r0
  45:Lib/Camera_Middleware/sensors/cmw_vd66gy.c **** }
 357              		.loc 1 45 1
 358 0022 1846     		mov	r0, r3
 359 0024 1437     		adds	r7, r7, #20
 360              		.cfi_def_cfa_offset 12
 361 0026 BD46     		mov	sp, r7
 362              		.cfi_def_cfa_register 13
 363              		@ sp needed
ARM GAS  /tmp/ccxnf62W.s 			page 9


 364 0028 90BD     		pop	{r4, r7, pc}
 365              		.cfi_endproc
 366              	.LFE3342:
 368              		.section	.text.CMW_VD66GY_Read16,"ax",%progbits
 369              		.align	1
 370              		.syntax unified
 371              		.thumb
 372              		.thumb_func
 374              	CMW_VD66GY_Read16:
 375              	.LFB3343:
  46:Lib/Camera_Middleware/sensors/cmw_vd66gy.c **** 
  47:Lib/Camera_Middleware/sensors/cmw_vd66gy.c **** static int CMW_VD66GY_Read16(CMW_VD66GY_t *pObj, uint16_t addr, uint16_t *value)
  48:Lib/Camera_Middleware/sensors/cmw_vd66gy.c **** {
 376              		.loc 1 48 1
 377              		.cfi_startproc
 378              		@ args = 0, pretend = 0, frame = 24
 379              		@ frame_needed = 1, uses_anonymous_args = 0
 380 0000 90B5     		push	{r4, r7, lr}
 381              		.cfi_def_cfa_offset 12
 382              		.cfi_offset 4, -12
 383              		.cfi_offset 7, -8
 384              		.cfi_offset 14, -4
 385 0002 87B0     		sub	sp, sp, #28
 386              		.cfi_def_cfa_offset 40
 387 0004 00AF     		add	r7, sp, #0
 388              		.cfi_def_cfa_register 7
 389 0006 F860     		str	r0, [r7, #12]
 390 0008 0B46     		mov	r3, r1
 391 000a 7A60     		str	r2, [r7, #4]
 392 000c 7B81     		strh	r3, [r7, #10]	@ movhi
  49:Lib/Camera_Middleware/sensors/cmw_vd66gy.c ****   uint8_t data[2];
  50:Lib/Camera_Middleware/sensors/cmw_vd66gy.c ****   int ret;
  51:Lib/Camera_Middleware/sensors/cmw_vd66gy.c **** 
  52:Lib/Camera_Middleware/sensors/cmw_vd66gy.c ****   ret = pObj->ReadReg(pObj->Address, addr, data, 2);
 393              		.loc 1 52 13
 394 000e FB68     		ldr	r3, [r7, #12]
 395 0010 D3F83041 		ldr	r4, [r3, #304]
 396              		.loc 1 52 9
 397 0014 FB68     		ldr	r3, [r7, #12]
 398 0016 1888     		ldrh	r0, [r3]
 399 0018 07F11002 		add	r2, r7, #16
 400 001c 7989     		ldrh	r1, [r7, #10]
 401 001e 0223     		movs	r3, #2
 402 0020 A047     		blx	r4
 403              	.LVL1:
 404 0022 7861     		str	r0, [r7, #20]
  53:Lib/Camera_Middleware/sensors/cmw_vd66gy.c ****   if (ret)
 405              		.loc 1 53 6
 406 0024 7B69     		ldr	r3, [r7, #20]
 407 0026 002B     		cmp	r3, #0
 408 0028 01D0     		beq	.L4
  54:Lib/Camera_Middleware/sensors/cmw_vd66gy.c ****     return ret;
 409              		.loc 1 54 12
 410 002a 7B69     		ldr	r3, [r7, #20]
 411 002c 0BE0     		b	.L6
 412              	.L4:
  55:Lib/Camera_Middleware/sensors/cmw_vd66gy.c **** 
ARM GAS  /tmp/ccxnf62W.s 			page 10


  56:Lib/Camera_Middleware/sensors/cmw_vd66gy.c ****   *value = (data[1] << 8) | data[0];
 413              		.loc 1 56 17
 414 002e 7B7C     		ldrb	r3, [r7, #17]	@ zero_extendqisi2
 415              		.loc 1 56 27
 416 0030 1BB2     		sxth	r3, r3
 417 0032 1B02     		lsls	r3, r3, #8
 418 0034 1AB2     		sxth	r2, r3
 419              		.loc 1 56 33
 420 0036 3B7C     		ldrb	r3, [r7, #16]	@ zero_extendqisi2
 421 0038 1BB2     		sxth	r3, r3
 422              		.loc 1 56 27
 423 003a 1343     		orrs	r3, r3, r2
 424 003c 1BB2     		sxth	r3, r3
 425 003e 9AB2     		uxth	r2, r3
 426              		.loc 1 56 10
 427 0040 7B68     		ldr	r3, [r7, #4]
 428 0042 1A80     		strh	r2, [r3]	@ movhi
  57:Lib/Camera_Middleware/sensors/cmw_vd66gy.c **** 
  58:Lib/Camera_Middleware/sensors/cmw_vd66gy.c ****   return CMW_ERROR_NONE;
 429              		.loc 1 58 10
 430 0044 0023     		movs	r3, #0
 431              	.L6:
  59:Lib/Camera_Middleware/sensors/cmw_vd66gy.c **** }
 432              		.loc 1 59 1
 433 0046 1846     		mov	r0, r3
 434 0048 1C37     		adds	r7, r7, #28
 435              		.cfi_def_cfa_offset 12
 436 004a BD46     		mov	sp, r7
 437              		.cfi_def_cfa_register 13
 438              		@ sp needed
 439 004c 90BD     		pop	{r4, r7, pc}
 440              		.cfi_endproc
 441              	.LFE3343:
 443              		.section	.text.CMW_VD66GY_Read32,"ax",%progbits
 444              		.align	1
 445              		.syntax unified
 446              		.thumb
 447              		.thumb_func
 449              	CMW_VD66GY_Read32:
 450              	.LFB3344:
  60:Lib/Camera_Middleware/sensors/cmw_vd66gy.c **** 
  61:Lib/Camera_Middleware/sensors/cmw_vd66gy.c **** static int CMW_VD66GY_Read32(CMW_VD66GY_t *pObj, uint16_t addr, uint32_t *value)
  62:Lib/Camera_Middleware/sensors/cmw_vd66gy.c **** {
 451              		.loc 1 62 1
 452              		.cfi_startproc
 453              		@ args = 0, pretend = 0, frame = 24
 454              		@ frame_needed = 1, uses_anonymous_args = 0
 455 0000 90B5     		push	{r4, r7, lr}
 456              		.cfi_def_cfa_offset 12
 457              		.cfi_offset 4, -12
 458              		.cfi_offset 7, -8
 459              		.cfi_offset 14, -4
 460 0002 87B0     		sub	sp, sp, #28
 461              		.cfi_def_cfa_offset 40
 462 0004 00AF     		add	r7, sp, #0
 463              		.cfi_def_cfa_register 7
 464 0006 F860     		str	r0, [r7, #12]
ARM GAS  /tmp/ccxnf62W.s 			page 11


 465 0008 0B46     		mov	r3, r1
 466 000a 7A60     		str	r2, [r7, #4]
 467 000c 7B81     		strh	r3, [r7, #10]	@ movhi
  63:Lib/Camera_Middleware/sensors/cmw_vd66gy.c ****   uint8_t data[4];
  64:Lib/Camera_Middleware/sensors/cmw_vd66gy.c ****   int ret;
  65:Lib/Camera_Middleware/sensors/cmw_vd66gy.c **** 
  66:Lib/Camera_Middleware/sensors/cmw_vd66gy.c ****   ret = pObj->ReadReg(pObj->Address, addr, data, 4);
 468              		.loc 1 66 13
 469 000e FB68     		ldr	r3, [r7, #12]
 470 0010 D3F83041 		ldr	r4, [r3, #304]
 471              		.loc 1 66 9
 472 0014 FB68     		ldr	r3, [r7, #12]
 473 0016 1888     		ldrh	r0, [r3]
 474 0018 07F11002 		add	r2, r7, #16
 475 001c 7989     		ldrh	r1, [r7, #10]
 476 001e 0423     		movs	r3, #4
 477 0020 A047     		blx	r4
 478              	.LVL2:
 479 0022 7861     		str	r0, [r7, #20]
  67:Lib/Camera_Middleware/sensors/cmw_vd66gy.c ****   if (ret)
 480              		.loc 1 67 6
 481 0024 7B69     		ldr	r3, [r7, #20]
 482 0026 002B     		cmp	r3, #0
 483 0028 01D0     		beq	.L8
  68:Lib/Camera_Middleware/sensors/cmw_vd66gy.c ****     return ret;
 484              		.loc 1 68 12
 485 002a 7B69     		ldr	r3, [r7, #20]
 486 002c 0DE0     		b	.L10
 487              	.L8:
  69:Lib/Camera_Middleware/sensors/cmw_vd66gy.c **** 
  70:Lib/Camera_Middleware/sensors/cmw_vd66gy.c ****   *value = (data[3] << 24) | (data[2] << 16) | (data[1] << 8) | data[0];
 488              		.loc 1 70 17
 489 002e FB7C     		ldrb	r3, [r7, #19]	@ zero_extendqisi2
 490              		.loc 1 70 21
 491 0030 1A06     		lsls	r2, r3, #24
 492              		.loc 1 70 35
 493 0032 BB7C     		ldrb	r3, [r7, #18]	@ zero_extendqisi2
 494              		.loc 1 70 39
 495 0034 1B04     		lsls	r3, r3, #16
 496              		.loc 1 70 28
 497 0036 1A43     		orrs	r2, r2, r3
 498              		.loc 1 70 53
 499 0038 7B7C     		ldrb	r3, [r7, #17]	@ zero_extendqisi2
 500              		.loc 1 70 57
 501 003a 1B02     		lsls	r3, r3, #8
 502              		.loc 1 70 46
 503 003c 1343     		orrs	r3, r3, r2
 504              		.loc 1 70 69
 505 003e 3A7C     		ldrb	r2, [r7, #16]	@ zero_extendqisi2
 506              		.loc 1 70 63
 507 0040 1343     		orrs	r3, r3, r2
 508 0042 1A46     		mov	r2, r3
 509              		.loc 1 70 10
 510 0044 7B68     		ldr	r3, [r7, #4]
 511 0046 1A60     		str	r2, [r3]
  71:Lib/Camera_Middleware/sensors/cmw_vd66gy.c **** 
  72:Lib/Camera_Middleware/sensors/cmw_vd66gy.c ****   return 0;
ARM GAS  /tmp/ccxnf62W.s 			page 12


 512              		.loc 1 72 10
 513 0048 0023     		movs	r3, #0
 514              	.L10:
  73:Lib/Camera_Middleware/sensors/cmw_vd66gy.c **** }
 515              		.loc 1 73 1
 516 004a 1846     		mov	r0, r3
 517 004c 1C37     		adds	r7, r7, #28
 518              		.cfi_def_cfa_offset 12
 519 004e BD46     		mov	sp, r7
 520              		.cfi_def_cfa_register 13
 521              		@ sp needed
 522 0050 90BD     		pop	{r4, r7, pc}
 523              		.cfi_endproc
 524              	.LFE3344:
 526              		.section	.text.CMW_VD66GY_Write8,"ax",%progbits
 527              		.align	1
 528              		.syntax unified
 529              		.thumb
 530              		.thumb_func
 532              	CMW_VD66GY_Write8:
 533              	.LFB3345:
  74:Lib/Camera_Middleware/sensors/cmw_vd66gy.c **** 
  75:Lib/Camera_Middleware/sensors/cmw_vd66gy.c **** static int CMW_VD66GY_Write8(CMW_VD66GY_t *pObj, uint16_t addr, uint8_t value)
  76:Lib/Camera_Middleware/sensors/cmw_vd66gy.c **** {
 534              		.loc 1 76 1
 535              		.cfi_startproc
 536              		@ args = 0, pretend = 0, frame = 8
 537              		@ frame_needed = 1, uses_anonymous_args = 0
 538 0000 90B5     		push	{r4, r7, lr}
 539              		.cfi_def_cfa_offset 12
 540              		.cfi_offset 4, -12
 541              		.cfi_offset 7, -8
 542              		.cfi_offset 14, -4
 543 0002 83B0     		sub	sp, sp, #12
 544              		.cfi_def_cfa_offset 24
 545 0004 00AF     		add	r7, sp, #0
 546              		.cfi_def_cfa_register 7
 547 0006 7860     		str	r0, [r7, #4]
 548 0008 0B46     		mov	r3, r1
 549 000a 7B80     		strh	r3, [r7, #2]	@ movhi
 550 000c 1346     		mov	r3, r2
 551 000e 7B70     		strb	r3, [r7, #1]
  77:Lib/Camera_Middleware/sensors/cmw_vd66gy.c ****   return pObj->WriteReg(pObj->Address, addr, &value, 1);
 552              		.loc 1 77 14
 553 0010 7B68     		ldr	r3, [r7, #4]
 554 0012 D3F82C41 		ldr	r4, [r3, #300]
 555              		.loc 1 77 10
 556 0016 7B68     		ldr	r3, [r7, #4]
 557 0018 1888     		ldrh	r0, [r3]
 558 001a 7A1C     		adds	r2, r7, #1
 559 001c 7988     		ldrh	r1, [r7, #2]
 560 001e 0123     		movs	r3, #1
 561 0020 A047     		blx	r4
 562              	.LVL3:
 563 0022 0346     		mov	r3, r0
  78:Lib/Camera_Middleware/sensors/cmw_vd66gy.c **** }
 564              		.loc 1 78 1
ARM GAS  /tmp/ccxnf62W.s 			page 13


 565 0024 1846     		mov	r0, r3
 566 0026 0C37     		adds	r7, r7, #12
 567              		.cfi_def_cfa_offset 12
 568 0028 BD46     		mov	sp, r7
 569              		.cfi_def_cfa_register 13
 570              		@ sp needed
 571 002a 90BD     		pop	{r4, r7, pc}
 572              		.cfi_endproc
 573              	.LFE3345:
 575              		.section	.text.CMW_VD66GY_Write16,"ax",%progbits
 576              		.align	1
 577              		.syntax unified
 578              		.thumb
 579              		.thumb_func
 581              	CMW_VD66GY_Write16:
 582              	.LFB3346:
  79:Lib/Camera_Middleware/sensors/cmw_vd66gy.c **** 
  80:Lib/Camera_Middleware/sensors/cmw_vd66gy.c **** static int CMW_VD66GY_Write16(CMW_VD66GY_t *pObj, uint16_t addr, uint16_t value)
  81:Lib/Camera_Middleware/sensors/cmw_vd66gy.c **** {
 583              		.loc 1 81 1
 584              		.cfi_startproc
 585              		@ args = 0, pretend = 0, frame = 8
 586              		@ frame_needed = 1, uses_anonymous_args = 0
 587 0000 90B5     		push	{r4, r7, lr}
 588              		.cfi_def_cfa_offset 12
 589              		.cfi_offset 4, -12
 590              		.cfi_offset 7, -8
 591              		.cfi_offset 14, -4
 592 0002 83B0     		sub	sp, sp, #12
 593              		.cfi_def_cfa_offset 24
 594 0004 00AF     		add	r7, sp, #0
 595              		.cfi_def_cfa_register 7
 596 0006 7860     		str	r0, [r7, #4]
 597 0008 0B46     		mov	r3, r1
 598 000a 7B80     		strh	r3, [r7, #2]	@ movhi
 599 000c 1346     		mov	r3, r2	@ movhi
 600 000e 3B80     		strh	r3, [r7]	@ movhi
  82:Lib/Camera_Middleware/sensors/cmw_vd66gy.c ****   return pObj->WriteReg(pObj->Address, addr, (uint8_t *) &value, 2);
 601              		.loc 1 82 14
 602 0010 7B68     		ldr	r3, [r7, #4]
 603 0012 D3F82C41 		ldr	r4, [r3, #300]
 604              		.loc 1 82 10
 605 0016 7B68     		ldr	r3, [r7, #4]
 606 0018 1888     		ldrh	r0, [r3]
 607 001a 3A46     		mov	r2, r7
 608 001c 7988     		ldrh	r1, [r7, #2]
 609 001e 0223     		movs	r3, #2
 610 0020 A047     		blx	r4
 611              	.LVL4:
 612 0022 0346     		mov	r3, r0
  83:Lib/Camera_Middleware/sensors/cmw_vd66gy.c **** }
 613              		.loc 1 83 1
 614 0024 1846     		mov	r0, r3
 615 0026 0C37     		adds	r7, r7, #12
 616              		.cfi_def_cfa_offset 12
 617 0028 BD46     		mov	sp, r7
 618              		.cfi_def_cfa_register 13
ARM GAS  /tmp/ccxnf62W.s 			page 14


 619              		@ sp needed
 620 002a 90BD     		pop	{r4, r7, pc}
 621              		.cfi_endproc
 622              	.LFE3346:
 624              		.section	.text.CMW_VD66GY_Write32,"ax",%progbits
 625              		.align	1
 626              		.syntax unified
 627              		.thumb
 628              		.thumb_func
 630              	CMW_VD66GY_Write32:
 631              	.LFB3347:
  84:Lib/Camera_Middleware/sensors/cmw_vd66gy.c **** 
  85:Lib/Camera_Middleware/sensors/cmw_vd66gy.c **** static int CMW_VD66GY_Write32(CMW_VD66GY_t *pObj, uint16_t addr, uint32_t value)
  86:Lib/Camera_Middleware/sensors/cmw_vd66gy.c **** {
 632              		.loc 1 86 1
 633              		.cfi_startproc
 634              		@ args = 0, pretend = 0, frame = 16
 635              		@ frame_needed = 1, uses_anonymous_args = 0
 636 0000 90B5     		push	{r4, r7, lr}
 637              		.cfi_def_cfa_offset 12
 638              		.cfi_offset 4, -12
 639              		.cfi_offset 7, -8
 640              		.cfi_offset 14, -4
 641 0002 85B0     		sub	sp, sp, #20
 642              		.cfi_def_cfa_offset 32
 643 0004 00AF     		add	r7, sp, #0
 644              		.cfi_def_cfa_register 7
 645 0006 F860     		str	r0, [r7, #12]
 646 0008 0B46     		mov	r3, r1
 647 000a 7A60     		str	r2, [r7, #4]
 648 000c 7B81     		strh	r3, [r7, #10]	@ movhi
  87:Lib/Camera_Middleware/sensors/cmw_vd66gy.c ****   return pObj->WriteReg(pObj->Address, addr, (uint8_t *) &value, 4);
 649              		.loc 1 87 14
 650 000e FB68     		ldr	r3, [r7, #12]
 651 0010 D3F82C41 		ldr	r4, [r3, #300]
 652              		.loc 1 87 10
 653 0014 FB68     		ldr	r3, [r7, #12]
 654 0016 1888     		ldrh	r0, [r3]
 655 0018 3A1D     		adds	r2, r7, #4
 656 001a 7989     		ldrh	r1, [r7, #10]
 657 001c 0423     		movs	r3, #4
 658 001e A047     		blx	r4
 659              	.LVL5:
 660 0020 0346     		mov	r3, r0
  88:Lib/Camera_Middleware/sensors/cmw_vd66gy.c **** }
 661              		.loc 1 88 1
 662 0022 1846     		mov	r0, r3
 663 0024 1437     		adds	r7, r7, #20
 664              		.cfi_def_cfa_offset 12
 665 0026 BD46     		mov	sp, r7
 666              		.cfi_def_cfa_register 13
 667              		@ sp needed
 668 0028 90BD     		pop	{r4, r7, pc}
 669              		.cfi_endproc
 670              	.LFE3347:
 672              		.section	.text.VD6G_ShutdownPin,"ax",%progbits
 673              		.align	1
ARM GAS  /tmp/ccxnf62W.s 			page 15


 674              		.syntax unified
 675              		.thumb
 676              		.thumb_func
 678              	VD6G_ShutdownPin:
 679              	.LFB3348:
  89:Lib/Camera_Middleware/sensors/cmw_vd66gy.c **** 
  90:Lib/Camera_Middleware/sensors/cmw_vd66gy.c **** static void VD6G_ShutdownPin(struct VD6G_Ctx *ctx, int value)
  91:Lib/Camera_Middleware/sensors/cmw_vd66gy.c **** {
 680              		.loc 1 91 1
 681              		.cfi_startproc
 682              		@ args = 0, pretend = 0, frame = 16
 683              		@ frame_needed = 1, uses_anonymous_args = 0
 684 0000 80B5     		push	{r7, lr}
 685              		.cfi_def_cfa_offset 8
 686              		.cfi_offset 7, -8
 687              		.cfi_offset 14, -4
 688 0002 84B0     		sub	sp, sp, #16
 689              		.cfi_def_cfa_offset 24
 690 0004 00AF     		add	r7, sp, #0
 691              		.cfi_def_cfa_register 7
 692 0006 7860     		str	r0, [r7, #4]
 693 0008 3960     		str	r1, [r7]
  92:Lib/Camera_Middleware/sensors/cmw_vd66gy.c ****   CMW_VD66GY_t *p_ctx = container_of(ctx, CMW_VD66GY_t, ctx_driver);
 694              		.loc 1 92 17
 695 000a 7B68     		ldr	r3, [r7, #4]
 696 000c 083B     		subs	r3, r3, #8
 697 000e FB60     		str	r3, [r7, #12]
  93:Lib/Camera_Middleware/sensors/cmw_vd66gy.c **** 
  94:Lib/Camera_Middleware/sensors/cmw_vd66gy.c ****   p_ctx->ShutdownPin(value);
 698              		.loc 1 94 8
 699 0010 FB68     		ldr	r3, [r7, #12]
 700 0012 D3F83C31 		ldr	r3, [r3, #316]
 701              		.loc 1 94 3
 702 0016 3868     		ldr	r0, [r7]
 703 0018 9847     		blx	r3
 704              	.LVL6:
  95:Lib/Camera_Middleware/sensors/cmw_vd66gy.c **** }
 705              		.loc 1 95 1
 706 001a 00BF     		nop
 707 001c 1037     		adds	r7, r7, #16
 708              		.cfi_def_cfa_offset 8
 709 001e BD46     		mov	sp, r7
 710              		.cfi_def_cfa_register 13
 711              		@ sp needed
 712 0020 80BD     		pop	{r7, pc}
 713              		.cfi_endproc
 714              	.LFE3348:
 716              		.section	.text.VD6G_Read8,"ax",%progbits
 717              		.align	1
 718              		.syntax unified
 719              		.thumb
 720              		.thumb_func
 722              	VD6G_Read8:
 723              	.LFB3349:
  96:Lib/Camera_Middleware/sensors/cmw_vd66gy.c **** 
  97:Lib/Camera_Middleware/sensors/cmw_vd66gy.c **** static int VD6G_Read8(struct VD6G_Ctx *ctx, uint16_t addr, uint8_t *value)
  98:Lib/Camera_Middleware/sensors/cmw_vd66gy.c **** {
ARM GAS  /tmp/ccxnf62W.s 			page 16


 724              		.loc 1 98 1
 725              		.cfi_startproc
 726              		@ args = 0, pretend = 0, frame = 24
 727              		@ frame_needed = 1, uses_anonymous_args = 0
 728 0000 80B5     		push	{r7, lr}
 729              		.cfi_def_cfa_offset 8
 730              		.cfi_offset 7, -8
 731              		.cfi_offset 14, -4
 732 0002 86B0     		sub	sp, sp, #24
 733              		.cfi_def_cfa_offset 32
 734 0004 00AF     		add	r7, sp, #0
 735              		.cfi_def_cfa_register 7
 736 0006 F860     		str	r0, [r7, #12]
 737 0008 0B46     		mov	r3, r1
 738 000a 7A60     		str	r2, [r7, #4]
 739 000c 7B81     		strh	r3, [r7, #10]	@ movhi
  99:Lib/Camera_Middleware/sensors/cmw_vd66gy.c ****   CMW_VD66GY_t *p_ctx = container_of(ctx, CMW_VD66GY_t, ctx_driver);
 740              		.loc 1 99 17
 741 000e FB68     		ldr	r3, [r7, #12]
 742 0010 083B     		subs	r3, r3, #8
 743 0012 7B61     		str	r3, [r7, #20]
 100:Lib/Camera_Middleware/sensors/cmw_vd66gy.c **** 
 101:Lib/Camera_Middleware/sensors/cmw_vd66gy.c ****   return CMW_VD66GY_Read8(p_ctx, addr, value);
 744              		.loc 1 101 10
 745 0014 7B89     		ldrh	r3, [r7, #10]
 746 0016 7A68     		ldr	r2, [r7, #4]
 747 0018 1946     		mov	r1, r3
 748 001a 7869     		ldr	r0, [r7, #20]
 749 001c FFF7FEFF 		bl	CMW_VD66GY_Read8
 750 0020 0346     		mov	r3, r0
 102:Lib/Camera_Middleware/sensors/cmw_vd66gy.c **** }
 751              		.loc 1 102 1
 752 0022 1846     		mov	r0, r3
 753 0024 1837     		adds	r7, r7, #24
 754              		.cfi_def_cfa_offset 8
 755 0026 BD46     		mov	sp, r7
 756              		.cfi_def_cfa_register 13
 757              		@ sp needed
 758 0028 80BD     		pop	{r7, pc}
 759              		.cfi_endproc
 760              	.LFE3349:
 762              		.section	.text.VD6G_Read16,"ax",%progbits
 763              		.align	1
 764              		.syntax unified
 765              		.thumb
 766              		.thumb_func
 768              	VD6G_Read16:
 769              	.LFB3350:
 103:Lib/Camera_Middleware/sensors/cmw_vd66gy.c **** 
 104:Lib/Camera_Middleware/sensors/cmw_vd66gy.c **** static int VD6G_Read16(struct VD6G_Ctx *ctx, uint16_t addr, uint16_t *value)
 105:Lib/Camera_Middleware/sensors/cmw_vd66gy.c **** {
 770              		.loc 1 105 1
 771              		.cfi_startproc
 772              		@ args = 0, pretend = 0, frame = 24
 773              		@ frame_needed = 1, uses_anonymous_args = 0
 774 0000 80B5     		push	{r7, lr}
 775              		.cfi_def_cfa_offset 8
ARM GAS  /tmp/ccxnf62W.s 			page 17


 776              		.cfi_offset 7, -8
 777              		.cfi_offset 14, -4
 778 0002 86B0     		sub	sp, sp, #24
 779              		.cfi_def_cfa_offset 32
 780 0004 00AF     		add	r7, sp, #0
 781              		.cfi_def_cfa_register 7
 782 0006 F860     		str	r0, [r7, #12]
 783 0008 0B46     		mov	r3, r1
 784 000a 7A60     		str	r2, [r7, #4]
 785 000c 7B81     		strh	r3, [r7, #10]	@ movhi
 106:Lib/Camera_Middleware/sensors/cmw_vd66gy.c ****   CMW_VD66GY_t *p_ctx = container_of(ctx, CMW_VD66GY_t, ctx_driver);
 786              		.loc 1 106 17
 787 000e FB68     		ldr	r3, [r7, #12]
 788 0010 083B     		subs	r3, r3, #8
 789 0012 7B61     		str	r3, [r7, #20]
 107:Lib/Camera_Middleware/sensors/cmw_vd66gy.c **** 
 108:Lib/Camera_Middleware/sensors/cmw_vd66gy.c ****   return CMW_VD66GY_Read16(p_ctx, addr, value);
 790              		.loc 1 108 10
 791 0014 7B89     		ldrh	r3, [r7, #10]
 792 0016 7A68     		ldr	r2, [r7, #4]
 793 0018 1946     		mov	r1, r3
 794 001a 7869     		ldr	r0, [r7, #20]
 795 001c FFF7FEFF 		bl	CMW_VD66GY_Read16
 796 0020 0346     		mov	r3, r0
 109:Lib/Camera_Middleware/sensors/cmw_vd66gy.c **** }
 797              		.loc 1 109 1
 798 0022 1846     		mov	r0, r3
 799 0024 1837     		adds	r7, r7, #24
 800              		.cfi_def_cfa_offset 8
 801 0026 BD46     		mov	sp, r7
 802              		.cfi_def_cfa_register 13
 803              		@ sp needed
 804 0028 80BD     		pop	{r7, pc}
 805              		.cfi_endproc
 806              	.LFE3350:
 808              		.section	.text.VD6G_Read32,"ax",%progbits
 809              		.align	1
 810              		.syntax unified
 811              		.thumb
 812              		.thumb_func
 814              	VD6G_Read32:
 815              	.LFB3351:
 110:Lib/Camera_Middleware/sensors/cmw_vd66gy.c **** 
 111:Lib/Camera_Middleware/sensors/cmw_vd66gy.c **** static int VD6G_Read32(struct VD6G_Ctx *ctx, uint16_t addr, uint32_t *value)
 112:Lib/Camera_Middleware/sensors/cmw_vd66gy.c **** {
 816              		.loc 1 112 1
 817              		.cfi_startproc
 818              		@ args = 0, pretend = 0, frame = 24
 819              		@ frame_needed = 1, uses_anonymous_args = 0
 820 0000 80B5     		push	{r7, lr}
 821              		.cfi_def_cfa_offset 8
 822              		.cfi_offset 7, -8
 823              		.cfi_offset 14, -4
 824 0002 86B0     		sub	sp, sp, #24
 825              		.cfi_def_cfa_offset 32
 826 0004 00AF     		add	r7, sp, #0
 827              		.cfi_def_cfa_register 7
ARM GAS  /tmp/ccxnf62W.s 			page 18


 828 0006 F860     		str	r0, [r7, #12]
 829 0008 0B46     		mov	r3, r1
 830 000a 7A60     		str	r2, [r7, #4]
 831 000c 7B81     		strh	r3, [r7, #10]	@ movhi
 113:Lib/Camera_Middleware/sensors/cmw_vd66gy.c ****   CMW_VD66GY_t *p_ctx = container_of(ctx, CMW_VD66GY_t, ctx_driver);
 832              		.loc 1 113 17
 833 000e FB68     		ldr	r3, [r7, #12]
 834 0010 083B     		subs	r3, r3, #8
 835 0012 7B61     		str	r3, [r7, #20]
 114:Lib/Camera_Middleware/sensors/cmw_vd66gy.c **** 
 115:Lib/Camera_Middleware/sensors/cmw_vd66gy.c ****   return CMW_VD66GY_Read32(p_ctx, addr, value);
 836              		.loc 1 115 10
 837 0014 7B89     		ldrh	r3, [r7, #10]
 838 0016 7A68     		ldr	r2, [r7, #4]
 839 0018 1946     		mov	r1, r3
 840 001a 7869     		ldr	r0, [r7, #20]
 841 001c FFF7FEFF 		bl	CMW_VD66GY_Read32
 842 0020 0346     		mov	r3, r0
 116:Lib/Camera_Middleware/sensors/cmw_vd66gy.c **** }
 843              		.loc 1 116 1
 844 0022 1846     		mov	r0, r3
 845 0024 1837     		adds	r7, r7, #24
 846              		.cfi_def_cfa_offset 8
 847 0026 BD46     		mov	sp, r7
 848              		.cfi_def_cfa_register 13
 849              		@ sp needed
 850 0028 80BD     		pop	{r7, pc}
 851              		.cfi_endproc
 852              	.LFE3351:
 854              		.section	.text.VD6G_Write8,"ax",%progbits
 855              		.align	1
 856              		.syntax unified
 857              		.thumb
 858              		.thumb_func
 860              	VD6G_Write8:
 861              	.LFB3352:
 117:Lib/Camera_Middleware/sensors/cmw_vd66gy.c **** 
 118:Lib/Camera_Middleware/sensors/cmw_vd66gy.c **** static int VD6G_Write8(struct VD6G_Ctx *ctx, uint16_t addr, uint8_t value)
 119:Lib/Camera_Middleware/sensors/cmw_vd66gy.c **** {
 862              		.loc 1 119 1
 863              		.cfi_startproc
 864              		@ args = 0, pretend = 0, frame = 16
 865              		@ frame_needed = 1, uses_anonymous_args = 0
 866 0000 80B5     		push	{r7, lr}
 867              		.cfi_def_cfa_offset 8
 868              		.cfi_offset 7, -8
 869              		.cfi_offset 14, -4
 870 0002 84B0     		sub	sp, sp, #16
 871              		.cfi_def_cfa_offset 24
 872 0004 00AF     		add	r7, sp, #0
 873              		.cfi_def_cfa_register 7
 874 0006 7860     		str	r0, [r7, #4]
 875 0008 0B46     		mov	r3, r1
 876 000a 7B80     		strh	r3, [r7, #2]	@ movhi
 877 000c 1346     		mov	r3, r2
 878 000e 7B70     		strb	r3, [r7, #1]
 120:Lib/Camera_Middleware/sensors/cmw_vd66gy.c ****   CMW_VD66GY_t *p_ctx = container_of(ctx, CMW_VD66GY_t, ctx_driver);
ARM GAS  /tmp/ccxnf62W.s 			page 19


 879              		.loc 1 120 17
 880 0010 7B68     		ldr	r3, [r7, #4]
 881 0012 083B     		subs	r3, r3, #8
 882 0014 FB60     		str	r3, [r7, #12]
 121:Lib/Camera_Middleware/sensors/cmw_vd66gy.c **** 
 122:Lib/Camera_Middleware/sensors/cmw_vd66gy.c ****   return CMW_VD66GY_Write8(p_ctx, addr, value);
 883              		.loc 1 122 10
 884 0016 7A78     		ldrb	r2, [r7, #1]	@ zero_extendqisi2
 885 0018 7B88     		ldrh	r3, [r7, #2]
 886 001a 1946     		mov	r1, r3
 887 001c F868     		ldr	r0, [r7, #12]
 888 001e FFF7FEFF 		bl	CMW_VD66GY_Write8
 889 0022 0346     		mov	r3, r0
 123:Lib/Camera_Middleware/sensors/cmw_vd66gy.c **** }
 890              		.loc 1 123 1
 891 0024 1846     		mov	r0, r3
 892 0026 1037     		adds	r7, r7, #16
 893              		.cfi_def_cfa_offset 8
 894 0028 BD46     		mov	sp, r7
 895              		.cfi_def_cfa_register 13
 896              		@ sp needed
 897 002a 80BD     		pop	{r7, pc}
 898              		.cfi_endproc
 899              	.LFE3352:
 901              		.section	.text.VD6G_Write16,"ax",%progbits
 902              		.align	1
 903              		.syntax unified
 904              		.thumb
 905              		.thumb_func
 907              	VD6G_Write16:
 908              	.LFB3353:
 124:Lib/Camera_Middleware/sensors/cmw_vd66gy.c **** 
 125:Lib/Camera_Middleware/sensors/cmw_vd66gy.c **** static int VD6G_Write16(struct VD6G_Ctx *ctx, uint16_t addr, uint16_t value)
 126:Lib/Camera_Middleware/sensors/cmw_vd66gy.c **** {
 909              		.loc 1 126 1
 910              		.cfi_startproc
 911              		@ args = 0, pretend = 0, frame = 16
 912              		@ frame_needed = 1, uses_anonymous_args = 0
 913 0000 80B5     		push	{r7, lr}
 914              		.cfi_def_cfa_offset 8
 915              		.cfi_offset 7, -8
 916              		.cfi_offset 14, -4
 917 0002 84B0     		sub	sp, sp, #16
 918              		.cfi_def_cfa_offset 24
 919 0004 00AF     		add	r7, sp, #0
 920              		.cfi_def_cfa_register 7
 921 0006 7860     		str	r0, [r7, #4]
 922 0008 0B46     		mov	r3, r1
 923 000a 7B80     		strh	r3, [r7, #2]	@ movhi
 924 000c 1346     		mov	r3, r2	@ movhi
 925 000e 3B80     		strh	r3, [r7]	@ movhi
 127:Lib/Camera_Middleware/sensors/cmw_vd66gy.c ****   CMW_VD66GY_t *p_ctx = container_of(ctx, CMW_VD66GY_t, ctx_driver);
 926              		.loc 1 127 17
 927 0010 7B68     		ldr	r3, [r7, #4]
 928 0012 083B     		subs	r3, r3, #8
 929 0014 FB60     		str	r3, [r7, #12]
 128:Lib/Camera_Middleware/sensors/cmw_vd66gy.c **** 
ARM GAS  /tmp/ccxnf62W.s 			page 20


 129:Lib/Camera_Middleware/sensors/cmw_vd66gy.c ****   return CMW_VD66GY_Write16(p_ctx, addr, value);
 930              		.loc 1 129 10
 931 0016 3A88     		ldrh	r2, [r7]
 932 0018 7B88     		ldrh	r3, [r7, #2]
 933 001a 1946     		mov	r1, r3
 934 001c F868     		ldr	r0, [r7, #12]
 935 001e FFF7FEFF 		bl	CMW_VD66GY_Write16
 936 0022 0346     		mov	r3, r0
 130:Lib/Camera_Middleware/sensors/cmw_vd66gy.c **** }
 937              		.loc 1 130 1
 938 0024 1846     		mov	r0, r3
 939 0026 1037     		adds	r7, r7, #16
 940              		.cfi_def_cfa_offset 8
 941 0028 BD46     		mov	sp, r7
 942              		.cfi_def_cfa_register 13
 943              		@ sp needed
 944 002a 80BD     		pop	{r7, pc}
 945              		.cfi_endproc
 946              	.LFE3353:
 948              		.section	.text.VD6G_Write32,"ax",%progbits
 949              		.align	1
 950              		.syntax unified
 951              		.thumb
 952              		.thumb_func
 954              	VD6G_Write32:
 955              	.LFB3354:
 131:Lib/Camera_Middleware/sensors/cmw_vd66gy.c **** 
 132:Lib/Camera_Middleware/sensors/cmw_vd66gy.c **** static int VD6G_Write32(struct VD6G_Ctx *ctx, uint16_t addr, uint32_t value)
 133:Lib/Camera_Middleware/sensors/cmw_vd66gy.c **** {
 956              		.loc 1 133 1
 957              		.cfi_startproc
 958              		@ args = 0, pretend = 0, frame = 24
 959              		@ frame_needed = 1, uses_anonymous_args = 0
 960 0000 80B5     		push	{r7, lr}
 961              		.cfi_def_cfa_offset 8
 962              		.cfi_offset 7, -8
 963              		.cfi_offset 14, -4
 964 0002 86B0     		sub	sp, sp, #24
 965              		.cfi_def_cfa_offset 32
 966 0004 00AF     		add	r7, sp, #0
 967              		.cfi_def_cfa_register 7
 968 0006 F860     		str	r0, [r7, #12]
 969 0008 0B46     		mov	r3, r1
 970 000a 7A60     		str	r2, [r7, #4]
 971 000c 7B81     		strh	r3, [r7, #10]	@ movhi
 134:Lib/Camera_Middleware/sensors/cmw_vd66gy.c ****   CMW_VD66GY_t *p_ctx = container_of(ctx, CMW_VD66GY_t, ctx_driver);
 972              		.loc 1 134 17
 973 000e FB68     		ldr	r3, [r7, #12]
 974 0010 083B     		subs	r3, r3, #8
 975 0012 7B61     		str	r3, [r7, #20]
 135:Lib/Camera_Middleware/sensors/cmw_vd66gy.c **** 
 136:Lib/Camera_Middleware/sensors/cmw_vd66gy.c ****   return CMW_VD66GY_Write32(p_ctx, addr, value);
 976              		.loc 1 136 10
 977 0014 7B89     		ldrh	r3, [r7, #10]
 978 0016 7A68     		ldr	r2, [r7, #4]
 979 0018 1946     		mov	r1, r3
 980 001a 7869     		ldr	r0, [r7, #20]
ARM GAS  /tmp/ccxnf62W.s 			page 21


 981 001c FFF7FEFF 		bl	CMW_VD66GY_Write32
 982 0020 0346     		mov	r3, r0
 137:Lib/Camera_Middleware/sensors/cmw_vd66gy.c **** }
 983              		.loc 1 137 1
 984 0022 1846     		mov	r0, r3
 985 0024 1837     		adds	r7, r7, #24
 986              		.cfi_def_cfa_offset 8
 987 0026 BD46     		mov	sp, r7
 988              		.cfi_def_cfa_register 13
 989              		@ sp needed
 990 0028 80BD     		pop	{r7, pc}
 991              		.cfi_endproc
 992              	.LFE3354:
 994              		.section	.text.VD6G_WriteArray,"ax",%progbits
 995              		.align	1
 996              		.syntax unified
 997              		.thumb
 998              		.thumb_func
 1000              	VD6G_WriteArray:
 1001              	.LFB3355:
 138:Lib/Camera_Middleware/sensors/cmw_vd66gy.c **** 
 139:Lib/Camera_Middleware/sensors/cmw_vd66gy.c **** static int VD6G_WriteArray(struct VD6G_Ctx *ctx, uint16_t addr, uint8_t *data, int data_len)
 140:Lib/Camera_Middleware/sensors/cmw_vd66gy.c **** {
 1002              		.loc 1 140 1
 1003              		.cfi_startproc
 1004              		@ args = 0, pretend = 0, frame = 32
 1005              		@ frame_needed = 1, uses_anonymous_args = 0
 1006 0000 90B5     		push	{r4, r7, lr}
 1007              		.cfi_def_cfa_offset 12
 1008              		.cfi_offset 4, -12
 1009              		.cfi_offset 7, -8
 1010              		.cfi_offset 14, -4
 1011 0002 89B0     		sub	sp, sp, #36
 1012              		.cfi_def_cfa_offset 48
 1013 0004 00AF     		add	r7, sp, #0
 1014              		.cfi_def_cfa_register 7
 1015 0006 F860     		str	r0, [r7, #12]
 1016 0008 7A60     		str	r2, [r7, #4]
 1017 000a 3B60     		str	r3, [r7]
 1018 000c 0B46     		mov	r3, r1	@ movhi
 1019 000e 7B81     		strh	r3, [r7, #10]	@ movhi
 141:Lib/Camera_Middleware/sensors/cmw_vd66gy.c ****   CMW_VD66GY_t *p_ctx = container_of(ctx, CMW_VD66GY_t, ctx_driver);
 1020              		.loc 1 141 17
 1021 0010 FB68     		ldr	r3, [r7, #12]
 1022 0012 083B     		subs	r3, r3, #8
 1023 0014 FB61     		str	r3, [r7, #28]
 142:Lib/Camera_Middleware/sensors/cmw_vd66gy.c ****   const unsigned int chunk_size = 128;
 1024              		.loc 1 142 22
 1025 0016 8023     		movs	r3, #128
 1026 0018 BB61     		str	r3, [r7, #24]
 143:Lib/Camera_Middleware/sensors/cmw_vd66gy.c ****   uint16_t sz;
 144:Lib/Camera_Middleware/sensors/cmw_vd66gy.c ****   int ret;
 145:Lib/Camera_Middleware/sensors/cmw_vd66gy.c **** 
 146:Lib/Camera_Middleware/sensors/cmw_vd66gy.c ****   while (data_len) {
 1027              		.loc 1 146 9
 1028 001a 20E0     		b	.L31
 1029              	.L34:
ARM GAS  /tmp/ccxnf62W.s 			page 22


 147:Lib/Camera_Middleware/sensors/cmw_vd66gy.c ****     sz = MIN(data_len, chunk_size);
 1030              		.loc 1 147 10
 1031 001c 3A68     		ldr	r2, [r7]
 1032 001e BB69     		ldr	r3, [r7, #24]
 1033 0020 9342     		cmp	r3, r2
 1034 0022 28BF     		it	cs
 1035 0024 1346     		movcs	r3, r2
 1036              		.loc 1 147 8
 1037 0026 FB82     		strh	r3, [r7, #22]	@ movhi
 148:Lib/Camera_Middleware/sensors/cmw_vd66gy.c ****     ret = p_ctx->WriteReg(p_ctx->Address, addr, data, sz);
 1038              		.loc 1 148 16
 1039 0028 FB69     		ldr	r3, [r7, #28]
 1040 002a D3F82C41 		ldr	r4, [r3, #300]
 1041              		.loc 1 148 11
 1042 002e FB69     		ldr	r3, [r7, #28]
 1043 0030 1888     		ldrh	r0, [r3]
 1044 0032 FB8A     		ldrh	r3, [r7, #22]
 1045 0034 7989     		ldrh	r1, [r7, #10]
 1046 0036 7A68     		ldr	r2, [r7, #4]
 1047 0038 A047     		blx	r4
 1048              	.LVL7:
 1049 003a 3861     		str	r0, [r7, #16]
 149:Lib/Camera_Middleware/sensors/cmw_vd66gy.c ****     if (ret)
 1050              		.loc 1 149 8
 1051 003c 3B69     		ldr	r3, [r7, #16]
 1052 003e 002B     		cmp	r3, #0
 1053 0040 01D0     		beq	.L32
 150:Lib/Camera_Middleware/sensors/cmw_vd66gy.c ****       return ret;
 1054              		.loc 1 150 14
 1055 0042 3B69     		ldr	r3, [r7, #16]
 1056 0044 0FE0     		b	.L33
 1057              	.L32:
 151:Lib/Camera_Middleware/sensors/cmw_vd66gy.c ****     data_len -= sz;
 1058              		.loc 1 151 14
 1059 0046 FB8A     		ldrh	r3, [r7, #22]
 1060 0048 3A68     		ldr	r2, [r7]
 1061 004a D31A     		subs	r3, r2, r3
 1062 004c 3B60     		str	r3, [r7]
 152:Lib/Camera_Middleware/sensors/cmw_vd66gy.c ****     addr += sz;
 1063              		.loc 1 152 10
 1064 004e 7A89     		ldrh	r2, [r7, #10]	@ movhi
 1065 0050 FB8A     		ldrh	r3, [r7, #22]	@ movhi
 1066 0052 1344     		add	r3, r3, r2
 1067 0054 7B81     		strh	r3, [r7, #10]	@ movhi
 153:Lib/Camera_Middleware/sensors/cmw_vd66gy.c ****     data += sz;
 1068              		.loc 1 153 10
 1069 0056 FB8A     		ldrh	r3, [r7, #22]
 1070 0058 7A68     		ldr	r2, [r7, #4]
 1071 005a 1344     		add	r3, r3, r2
 1072 005c 7B60     		str	r3, [r7, #4]
 1073              	.L31:
 146:Lib/Camera_Middleware/sensors/cmw_vd66gy.c ****     sz = MIN(data_len, chunk_size);
 1074              		.loc 1 146 10
 1075 005e 3B68     		ldr	r3, [r7]
 1076 0060 002B     		cmp	r3, #0
 1077 0062 DBD1     		bne	.L34
 154:Lib/Camera_Middleware/sensors/cmw_vd66gy.c ****   }
ARM GAS  /tmp/ccxnf62W.s 			page 23


 155:Lib/Camera_Middleware/sensors/cmw_vd66gy.c **** 
 156:Lib/Camera_Middleware/sensors/cmw_vd66gy.c ****   return 0;
 1078              		.loc 1 156 10
 1079 0064 0023     		movs	r3, #0
 1080              	.L33:
 157:Lib/Camera_Middleware/sensors/cmw_vd66gy.c **** }
 1081              		.loc 1 157 1
 1082 0066 1846     		mov	r0, r3
 1083 0068 2437     		adds	r7, r7, #36
 1084              		.cfi_def_cfa_offset 12
 1085 006a BD46     		mov	sp, r7
 1086              		.cfi_def_cfa_register 13
 1087              		@ sp needed
 1088 006c 90BD     		pop	{r4, r7, pc}
 1089              		.cfi_endproc
 1090              	.LFE3355:
 1092              		.section	.text.VD6G_Delay,"ax",%progbits
 1093              		.align	1
 1094              		.syntax unified
 1095              		.thumb
 1096              		.thumb_func
 1098              	VD6G_Delay:
 1099              	.LFB3356:
 158:Lib/Camera_Middleware/sensors/cmw_vd66gy.c **** 
 159:Lib/Camera_Middleware/sensors/cmw_vd66gy.c **** static void VD6G_Delay(struct VD6G_Ctx *ctx, uint32_t delay_in_ms)
 160:Lib/Camera_Middleware/sensors/cmw_vd66gy.c **** {
 1100              		.loc 1 160 1
 1101              		.cfi_startproc
 1102              		@ args = 0, pretend = 0, frame = 16
 1103              		@ frame_needed = 1, uses_anonymous_args = 0
 1104 0000 80B5     		push	{r7, lr}
 1105              		.cfi_def_cfa_offset 8
 1106              		.cfi_offset 7, -8
 1107              		.cfi_offset 14, -4
 1108 0002 84B0     		sub	sp, sp, #16
 1109              		.cfi_def_cfa_offset 24
 1110 0004 00AF     		add	r7, sp, #0
 1111              		.cfi_def_cfa_register 7
 1112 0006 7860     		str	r0, [r7, #4]
 1113 0008 3960     		str	r1, [r7]
 161:Lib/Camera_Middleware/sensors/cmw_vd66gy.c ****   CMW_VD66GY_t *p_ctx = container_of(ctx, CMW_VD66GY_t, ctx_driver);
 1114              		.loc 1 161 17
 1115 000a 7B68     		ldr	r3, [r7, #4]
 1116 000c 083B     		subs	r3, r3, #8
 1117 000e FB60     		str	r3, [r7, #12]
 162:Lib/Camera_Middleware/sensors/cmw_vd66gy.c **** 
 163:Lib/Camera_Middleware/sensors/cmw_vd66gy.c ****   p_ctx->Delay(delay_in_ms);
 1118              		.loc 1 163 8
 1119 0010 FB68     		ldr	r3, [r7, #12]
 1120 0012 D3F83831 		ldr	r3, [r3, #312]
 1121              		.loc 1 163 3
 1122 0016 3868     		ldr	r0, [r7]
 1123 0018 9847     		blx	r3
 1124              	.LVL8:
 164:Lib/Camera_Middleware/sensors/cmw_vd66gy.c **** }
 1125              		.loc 1 164 1
 1126 001a 00BF     		nop
ARM GAS  /tmp/ccxnf62W.s 			page 24


 1127 001c 1037     		adds	r7, r7, #16
 1128              		.cfi_def_cfa_offset 8
 1129 001e BD46     		mov	sp, r7
 1130              		.cfi_def_cfa_register 13
 1131              		@ sp needed
 1132 0020 80BD     		pop	{r7, pc}
 1133              		.cfi_endproc
 1134              	.LFE3356:
 1136              		.section	.text.VD6G_Log,"ax",%progbits
 1137              		.align	1
 1138              		.syntax unified
 1139              		.thumb
 1140              		.thumb_func
 1142              	VD6G_Log:
 1143              	.LFB3357:
 165:Lib/Camera_Middleware/sensors/cmw_vd66gy.c **** 
 166:Lib/Camera_Middleware/sensors/cmw_vd66gy.c **** static void VD6G_Log(struct VD6G_Ctx *ctx, int lvl, const char *format, va_list ap)
 167:Lib/Camera_Middleware/sensors/cmw_vd66gy.c **** {
 1144              		.loc 1 167 1
 1145              		.cfi_startproc
 1146              		@ args = 0, pretend = 0, frame = 16
 1147              		@ frame_needed = 1, uses_anonymous_args = 0
 1148              		@ link register save eliminated.
 1149 0000 80B4     		push	{r7}
 1150              		.cfi_def_cfa_offset 4
 1151              		.cfi_offset 7, -4
 1152 0002 85B0     		sub	sp, sp, #20
 1153              		.cfi_def_cfa_offset 24
 1154 0004 00AF     		add	r7, sp, #0
 1155              		.cfi_def_cfa_register 7
 1156 0006 F860     		str	r0, [r7, #12]
 1157 0008 B960     		str	r1, [r7, #8]
 1158 000a 7A60     		str	r2, [r7, #4]
 1159 000c 3B60     		str	r3, [r7]
 168:Lib/Camera_Middleware/sensors/cmw_vd66gy.c **** #if 0
 169:Lib/Camera_Middleware/sensors/cmw_vd66gy.c ****   const int current_lvl = VD6G_LVL_DBG(0);
 170:Lib/Camera_Middleware/sensors/cmw_vd66gy.c **** 
 171:Lib/Camera_Middleware/sensors/cmw_vd66gy.c ****   if (lvl > current_lvl)
 172:Lib/Camera_Middleware/sensors/cmw_vd66gy.c ****     return ;
 173:Lib/Camera_Middleware/sensors/cmw_vd66gy.c **** 
 174:Lib/Camera_Middleware/sensors/cmw_vd66gy.c ****   vprintf(format, ap);
 175:Lib/Camera_Middleware/sensors/cmw_vd66gy.c **** #endif
 176:Lib/Camera_Middleware/sensors/cmw_vd66gy.c **** }
 1160              		.loc 1 176 1
 1161 000e 00BF     		nop
 1162 0010 1437     		adds	r7, r7, #20
 1163              		.cfi_def_cfa_offset 4
 1164 0012 BD46     		mov	sp, r7
 1165              		.cfi_def_cfa_register 13
 1166              		@ sp needed
 1167 0014 5DF8047B 		ldr	r7, [sp], #4
 1168              		.cfi_restore 7
 1169              		.cfi_def_cfa_offset 0
 1170 0018 7047     		bx	lr
 1171              		.cfi_endproc
 1172              	.LFE3357:
 1174              		.section	.text.CMW_VD66GY_GetResType,"ax",%progbits
ARM GAS  /tmp/ccxnf62W.s 			page 25


 1175              		.align	1
 1176              		.syntax unified
 1177              		.thumb
 1178              		.thumb_func
 1180              	CMW_VD66GY_GetResType:
 1181              	.LFB3358:
 177:Lib/Camera_Middleware/sensors/cmw_vd66gy.c **** 
 178:Lib/Camera_Middleware/sensors/cmw_vd66gy.c **** static int CMW_VD66GY_GetResType(uint32_t width, uint32_t height, VD6G_Res_t *res)
 179:Lib/Camera_Middleware/sensors/cmw_vd66gy.c **** {
 1182              		.loc 1 179 1
 1183              		.cfi_startproc
 1184              		@ args = 0, pretend = 0, frame = 16
 1185              		@ frame_needed = 1, uses_anonymous_args = 0
 1186              		@ link register save eliminated.
 1187 0000 80B4     		push	{r7}
 1188              		.cfi_def_cfa_offset 4
 1189              		.cfi_offset 7, -4
 1190 0002 85B0     		sub	sp, sp, #20
 1191              		.cfi_def_cfa_offset 24
 1192 0004 00AF     		add	r7, sp, #0
 1193              		.cfi_def_cfa_register 7
 1194 0006 F860     		str	r0, [r7, #12]
 1195 0008 B960     		str	r1, [r7, #8]
 1196 000a 7A60     		str	r2, [r7, #4]
 180:Lib/Camera_Middleware/sensors/cmw_vd66gy.c ****   if (width == 320 && height == 240)
 1197              		.loc 1 180 6
 1198 000c FB68     		ldr	r3, [r7, #12]
 1199 000e B3F5A07F 		cmp	r3, #320
 1200 0012 06D1     		bne	.L38
 1201              		.loc 1 180 20 discriminator 1
 1202 0014 BB68     		ldr	r3, [r7, #8]
 1203 0016 F02B     		cmp	r3, #240
 1204 0018 03D1     		bne	.L38
 181:Lib/Camera_Middleware/sensors/cmw_vd66gy.c ****   {
 182:Lib/Camera_Middleware/sensors/cmw_vd66gy.c ****     *res = VD6G_RES_QVGA_320_240;
 1205              		.loc 1 182 10
 1206 001a 7B68     		ldr	r3, [r7, #4]
 1207 001c 0022     		movs	r2, #0
 1208 001e 1A70     		strb	r2, [r3]
 1209 0020 33E0     		b	.L39
 1210              	.L38:
 183:Lib/Camera_Middleware/sensors/cmw_vd66gy.c ****   }
 184:Lib/Camera_Middleware/sensors/cmw_vd66gy.c ****   else if (width == 640 && height == 480)
 1211              		.loc 1 184 11
 1212 0022 FB68     		ldr	r3, [r7, #12]
 1213 0024 B3F5207F 		cmp	r3, #640
 1214 0028 07D1     		bne	.L40
 1215              		.loc 1 184 25 discriminator 1
 1216 002a BB68     		ldr	r3, [r7, #8]
 1217 002c B3F5F07F 		cmp	r3, #480
 1218 0030 03D1     		bne	.L40
 185:Lib/Camera_Middleware/sensors/cmw_vd66gy.c ****   {
 186:Lib/Camera_Middleware/sensors/cmw_vd66gy.c ****     *res = VD6G_RES_VGA_640_480;
 1219              		.loc 1 186 10
 1220 0032 7B68     		ldr	r3, [r7, #4]
 1221 0034 0122     		movs	r2, #1
 1222 0036 1A70     		strb	r2, [r3]
ARM GAS  /tmp/ccxnf62W.s 			page 26


 1223 0038 27E0     		b	.L39
 1224              	.L40:
 187:Lib/Camera_Middleware/sensors/cmw_vd66gy.c ****   }
 188:Lib/Camera_Middleware/sensors/cmw_vd66gy.c ****   else if (width == 1024 && height == 768)
 1225              		.loc 1 188 11
 1226 003a FB68     		ldr	r3, [r7, #12]
 1227 003c B3F5806F 		cmp	r3, #1024
 1228 0040 07D1     		bne	.L41
 1229              		.loc 1 188 26 discriminator 1
 1230 0042 BB68     		ldr	r3, [r7, #8]
 1231 0044 B3F5407F 		cmp	r3, #768
 1232 0048 03D1     		bne	.L41
 189:Lib/Camera_Middleware/sensors/cmw_vd66gy.c ****   {
 190:Lib/Camera_Middleware/sensors/cmw_vd66gy.c ****     *res = VD6G_RES_XGA_1024_768;
 1233              		.loc 1 190 10
 1234 004a 7B68     		ldr	r3, [r7, #4]
 1235 004c 0322     		movs	r2, #3
 1236 004e 1A70     		strb	r2, [r3]
 1237 0050 1BE0     		b	.L39
 1238              	.L41:
 191:Lib/Camera_Middleware/sensors/cmw_vd66gy.c ****   }
 192:Lib/Camera_Middleware/sensors/cmw_vd66gy.c ****   else if (width == 1120 && height == 720)
 1239              		.loc 1 192 11
 1240 0052 FB68     		ldr	r3, [r7, #12]
 1241 0054 B3F58C6F 		cmp	r3, #1120
 1242 0058 07D1     		bne	.L42
 1243              		.loc 1 192 26 discriminator 1
 1244 005a BB68     		ldr	r3, [r7, #8]
 1245 005c B3F5347F 		cmp	r3, #720
 1246 0060 03D1     		bne	.L42
 193:Lib/Camera_Middleware/sensors/cmw_vd66gy.c ****   {
 194:Lib/Camera_Middleware/sensors/cmw_vd66gy.c ****     *res = VD6G_RES_PORTRAIT_1120_720;
 1247              		.loc 1 194 10
 1248 0062 7B68     		ldr	r3, [r7, #4]
 1249 0064 0722     		movs	r2, #7
 1250 0066 1A70     		strb	r2, [r3]
 1251 0068 0FE0     		b	.L39
 1252              	.L42:
 195:Lib/Camera_Middleware/sensors/cmw_vd66gy.c ****   }
 196:Lib/Camera_Middleware/sensors/cmw_vd66gy.c ****   else if (width == 1120 && height == 1364)
 1253              		.loc 1 196 11
 1254 006a FB68     		ldr	r3, [r7, #12]
 1255 006c B3F58C6F 		cmp	r3, #1120
 1256 0070 08D1     		bne	.L43
 1257              		.loc 1 196 26 discriminator 1
 1258 0072 BB68     		ldr	r3, [r7, #8]
 1259 0074 40F25452 		movw	r2, #1364
 1260 0078 9342     		cmp	r3, r2
 1261 007a 03D1     		bne	.L43
 197:Lib/Camera_Middleware/sensors/cmw_vd66gy.c ****   {
 198:Lib/Camera_Middleware/sensors/cmw_vd66gy.c ****     *res = VD6G_RES_FULL_1120_1364;
 1262              		.loc 1 198 10
 1263 007c 7B68     		ldr	r3, [r7, #4]
 1264 007e 0822     		movs	r2, #8
 1265 0080 1A70     		strb	r2, [r3]
 1266 0082 02E0     		b	.L39
 1267              	.L43:
ARM GAS  /tmp/ccxnf62W.s 			page 27


 199:Lib/Camera_Middleware/sensors/cmw_vd66gy.c ****   }
 200:Lib/Camera_Middleware/sensors/cmw_vd66gy.c ****   else
 201:Lib/Camera_Middleware/sensors/cmw_vd66gy.c ****   {
 202:Lib/Camera_Middleware/sensors/cmw_vd66gy.c ****     return CMW_ERROR_WRONG_PARAM;
 1268              		.loc 1 202 12
 1269 0084 6FF00103 		mvn	r3, #1
 1270 0088 00E0     		b	.L44
 1271              	.L39:
 203:Lib/Camera_Middleware/sensors/cmw_vd66gy.c ****   }
 204:Lib/Camera_Middleware/sensors/cmw_vd66gy.c ****   return 0;
 1272              		.loc 1 204 10
 1273 008a 0023     		movs	r3, #0
 1274              	.L44:
 205:Lib/Camera_Middleware/sensors/cmw_vd66gy.c **** }
 1275              		.loc 1 205 1
 1276 008c 1846     		mov	r0, r3
 1277 008e 1437     		adds	r7, r7, #20
 1278              		.cfi_def_cfa_offset 4
 1279 0090 BD46     		mov	sp, r7
 1280              		.cfi_def_cfa_register 13
 1281              		@ sp needed
 1282 0092 5DF8047B 		ldr	r7, [sp], #4
 1283              		.cfi_restore 7
 1284              		.cfi_def_cfa_offset 0
 1285 0096 7047     		bx	lr
 1286              		.cfi_endproc
 1287              	.LFE3358:
 1289              		.section	.text.CMW_VD66GY_getMirrorFlipConfig,"ax",%progbits
 1290              		.align	1
 1291              		.syntax unified
 1292              		.thumb
 1293              		.thumb_func
 1295              	CMW_VD66GY_getMirrorFlipConfig:
 1296              	.LFB3359:
 206:Lib/Camera_Middleware/sensors/cmw_vd66gy.c **** 
 207:Lib/Camera_Middleware/sensors/cmw_vd66gy.c **** static VD6G_MirrorFlip_t CMW_VD66GY_getMirrorFlipConfig(uint32_t Config)
 208:Lib/Camera_Middleware/sensors/cmw_vd66gy.c **** {
 1297              		.loc 1 208 1
 1298              		.cfi_startproc
 1299              		@ args = 0, pretend = 0, frame = 16
 1300              		@ frame_needed = 1, uses_anonymous_args = 0
 1301              		@ link register save eliminated.
 1302 0000 80B4     		push	{r7}
 1303              		.cfi_def_cfa_offset 4
 1304              		.cfi_offset 7, -4
 1305 0002 85B0     		sub	sp, sp, #20
 1306              		.cfi_def_cfa_offset 24
 1307 0004 00AF     		add	r7, sp, #0
 1308              		.cfi_def_cfa_register 7
 1309 0006 7860     		str	r0, [r7, #4]
 209:Lib/Camera_Middleware/sensors/cmw_vd66gy.c ****   VD6G_MirrorFlip_t ret;
 210:Lib/Camera_Middleware/sensors/cmw_vd66gy.c **** 
 211:Lib/Camera_Middleware/sensors/cmw_vd66gy.c ****   switch (Config)
 1310              		.loc 1 211 3
 1311 0008 7B68     		ldr	r3, [r7, #4]
 1312 000a 022B     		cmp	r3, #2
 1313 000c 0FD0     		beq	.L46
ARM GAS  /tmp/ccxnf62W.s 			page 28


 1314 000e 7B68     		ldr	r3, [r7, #4]
 1315 0010 022B     		cmp	r3, #2
 1316 0012 0FD8     		bhi	.L47
 1317 0014 7B68     		ldr	r3, [r7, #4]
 1318 0016 002B     		cmp	r3, #0
 1319 0018 03D0     		beq	.L48
 1320 001a 7B68     		ldr	r3, [r7, #4]
 1321 001c 012B     		cmp	r3, #1
 1322 001e 03D0     		beq	.L49
 1323 0020 08E0     		b	.L47
 1324              	.L48:
 212:Lib/Camera_Middleware/sensors/cmw_vd66gy.c ****   {
 213:Lib/Camera_Middleware/sensors/cmw_vd66gy.c ****     case CMW_MIRRORFLIP_NONE:
 214:Lib/Camera_Middleware/sensors/cmw_vd66gy.c ****       ret = VD6G_MIRROR_FLIP_NONE;
 1325              		.loc 1 214 11
 1326 0022 0023     		movs	r3, #0
 1327 0024 FB73     		strb	r3, [r7, #15]
 215:Lib/Camera_Middleware/sensors/cmw_vd66gy.c ****       break;
 1328              		.loc 1 215 7
 1329 0026 08E0     		b	.L50
 1330              	.L49:
 216:Lib/Camera_Middleware/sensors/cmw_vd66gy.c ****     case CMW_MIRRORFLIP_FLIP:
 217:Lib/Camera_Middleware/sensors/cmw_vd66gy.c ****       ret = VD6G_FLIP;
 1331              		.loc 1 217 11
 1332 0028 0123     		movs	r3, #1
 1333 002a FB73     		strb	r3, [r7, #15]
 218:Lib/Camera_Middleware/sensors/cmw_vd66gy.c ****       break;
 1334              		.loc 1 218 7
 1335 002c 05E0     		b	.L50
 1336              	.L46:
 219:Lib/Camera_Middleware/sensors/cmw_vd66gy.c ****     case CMW_MIRRORFLIP_MIRROR:
 220:Lib/Camera_Middleware/sensors/cmw_vd66gy.c ****       ret = VD6G_MIRROR;
 1337              		.loc 1 220 11
 1338 002e 0223     		movs	r3, #2
 1339 0030 FB73     		strb	r3, [r7, #15]
 221:Lib/Camera_Middleware/sensors/cmw_vd66gy.c ****       break;
 1340              		.loc 1 221 7
 1341 0032 02E0     		b	.L50
 1342              	.L47:
 222:Lib/Camera_Middleware/sensors/cmw_vd66gy.c ****     case CMW_MIRRORFLIP_FLIP_MIRROR:
 223:Lib/Camera_Middleware/sensors/cmw_vd66gy.c ****     default:
 224:Lib/Camera_Middleware/sensors/cmw_vd66gy.c ****       ret = VD6G_MIRROR_FLIP;
 1343              		.loc 1 224 11
 1344 0034 0323     		movs	r3, #3
 1345 0036 FB73     		strb	r3, [r7, #15]
 225:Lib/Camera_Middleware/sensors/cmw_vd66gy.c ****       break;
 1346              		.loc 1 225 7
 1347 0038 00BF     		nop
 1348              	.L50:
 226:Lib/Camera_Middleware/sensors/cmw_vd66gy.c ****   }
 227:Lib/Camera_Middleware/sensors/cmw_vd66gy.c **** 
 228:Lib/Camera_Middleware/sensors/cmw_vd66gy.c ****   return ret;
 1349              		.loc 1 228 10
 1350 003a FB7B     		ldrb	r3, [r7, #15]	@ zero_extendqisi2
 229:Lib/Camera_Middleware/sensors/cmw_vd66gy.c **** }
 1351              		.loc 1 229 1
 1352 003c 1846     		mov	r0, r3
ARM GAS  /tmp/ccxnf62W.s 			page 29


 1353 003e 1437     		adds	r7, r7, #20
 1354              		.cfi_def_cfa_offset 4
 1355 0040 BD46     		mov	sp, r7
 1356              		.cfi_def_cfa_register 13
 1357              		@ sp needed
 1358 0042 5DF8047B 		ldr	r7, [sp], #4
 1359              		.cfi_restore 7
 1360              		.cfi_def_cfa_offset 0
 1361 0046 7047     		bx	lr
 1362              		.cfi_endproc
 1363              	.LFE3359:
 1365              		.section	.text.CMW_VD66GY_Init,"ax",%progbits
 1366              		.align	1
 1367              		.syntax unified
 1368              		.thumb
 1369              		.thumb_func
 1371              	CMW_VD66GY_Init:
 1372              	.LFB3360:
 230:Lib/Camera_Middleware/sensors/cmw_vd66gy.c **** 
 231:Lib/Camera_Middleware/sensors/cmw_vd66gy.c **** static int32_t CMW_VD66GY_Init(void *io_ctx, CMW_Sensor_Init_t *initSensor)
 232:Lib/Camera_Middleware/sensors/cmw_vd66gy.c **** {
 1373              		.loc 1 232 1
 1374              		.cfi_startproc
 1375              		@ args = 0, pretend = 0, frame = 72
 1376              		@ frame_needed = 1, uses_anonymous_args = 0
 1377 0000 80B5     		push	{r7, lr}
 1378              		.cfi_def_cfa_offset 8
 1379              		.cfi_offset 7, -8
 1380              		.cfi_offset 14, -4
 1381 0002 92B0     		sub	sp, sp, #72
 1382              		.cfi_def_cfa_offset 80
 1383 0004 00AF     		add	r7, sp, #0
 1384              		.cfi_def_cfa_register 7
 1385 0006 7860     		str	r0, [r7, #4]
 1386 0008 3960     		str	r1, [r7]
 233:Lib/Camera_Middleware/sensors/cmw_vd66gy.c ****   VD6G_Config_t config = { 0 };
 1387              		.loc 1 233 17
 1388 000a 07F10803 		add	r3, r7, #8
 1389 000e 3822     		movs	r2, #56
 1390 0010 0021     		movs	r1, #0
 1391 0012 1846     		mov	r0, r3
 1392 0014 FFF7FEFF 		bl	memset
 234:Lib/Camera_Middleware/sensors/cmw_vd66gy.c ****   int ret;
 235:Lib/Camera_Middleware/sensors/cmw_vd66gy.c ****   int i;
 236:Lib/Camera_Middleware/sensors/cmw_vd66gy.c **** 
 237:Lib/Camera_Middleware/sensors/cmw_vd66gy.c ****   if (((CMW_VD66GY_t *)io_ctx)->IsInitialized)
 1393              		.loc 1 237 31
 1394 0018 7B68     		ldr	r3, [r7, #4]
 1395 001a 93F82031 		ldrb	r3, [r3, #288]	@ zero_extendqisi2
 1396              		.loc 1 237 6
 1397 001e 002B     		cmp	r3, #0
 1398 0020 01D0     		beq	.L53
 238:Lib/Camera_Middleware/sensors/cmw_vd66gy.c ****   {
 239:Lib/Camera_Middleware/sensors/cmw_vd66gy.c ****     return CMW_ERROR_NONE;
 1399              		.loc 1 239 12
 1400 0022 0023     		movs	r3, #0
 1401 0024 5DE0     		b	.L60
ARM GAS  /tmp/ccxnf62W.s 			page 30


 1402              	.L53:
 240:Lib/Camera_Middleware/sensors/cmw_vd66gy.c ****   }
 241:Lib/Camera_Middleware/sensors/cmw_vd66gy.c **** 
 242:Lib/Camera_Middleware/sensors/cmw_vd66gy.c **** 
 243:Lib/Camera_Middleware/sensors/cmw_vd66gy.c ****   config.frame_rate = initSensor->fps;
 1403              		.loc 1 243 33
 1404 0026 3B68     		ldr	r3, [r7]
 1405 0028 9B68     		ldr	r3, [r3, #8]
 1406              		.loc 1 243 21
 1407 002a 3B61     		str	r3, [r7, #16]
 244:Lib/Camera_Middleware/sensors/cmw_vd66gy.c ****   ret = CMW_VD66GY_GetResType(initSensor->width, initSensor->height, &config.resolution);
 1408              		.loc 1 244 9
 1409 002c 3B68     		ldr	r3, [r7]
 1410 002e 1868     		ldr	r0, [r3]
 1411 0030 3B68     		ldr	r3, [r7]
 1412 0032 5968     		ldr	r1, [r3, #4]
 1413 0034 07F10803 		add	r3, r7, #8
 1414 0038 0433     		adds	r3, r3, #4
 1415 003a 1A46     		mov	r2, r3
 1416 003c FFF7FEFF 		bl	CMW_VD66GY_GetResType
 1417 0040 3864     		str	r0, [r7, #64]
 245:Lib/Camera_Middleware/sensors/cmw_vd66gy.c ****   if (ret)
 1418              		.loc 1 245 6
 1419 0042 3B6C     		ldr	r3, [r7, #64]
 1420 0044 002B     		cmp	r3, #0
 1421 0046 02D0     		beq	.L55
 246:Lib/Camera_Middleware/sensors/cmw_vd66gy.c ****   {
 247:Lib/Camera_Middleware/sensors/cmw_vd66gy.c ****     return CMW_ERROR_WRONG_PARAM;
 1422              		.loc 1 247 12
 1423 0048 6FF00103 		mvn	r3, #1
 1424 004c 49E0     		b	.L60
 1425              	.L55:
 248:Lib/Camera_Middleware/sensors/cmw_vd66gy.c ****   }
 249:Lib/Camera_Middleware/sensors/cmw_vd66gy.c ****   config.ext_clock_freq_in_hz = ((CMW_VD66GY_t *)io_ctx)->ClockInHz;
 1426              		.loc 1 249 57
 1427 004e 7B68     		ldr	r3, [r7, #4]
 1428 0050 5B68     		ldr	r3, [r3, #4]
 1429              		.loc 1 249 31
 1430 0052 BB60     		str	r3, [r7, #8]
 250:Lib/Camera_Middleware/sensors/cmw_vd66gy.c ****   config.flip_mirror_mode = CMW_VD66GY_getMirrorFlipConfig(initSensor->mirrorFlip);
 1431              		.loc 1 250 29
 1432 0054 3B68     		ldr	r3, [r7]
 1433 0056 1B69     		ldr	r3, [r3, #16]
 1434 0058 1846     		mov	r0, r3
 1435 005a FFF7FEFF 		bl	CMW_VD66GY_getMirrorFlipConfig
 1436 005e 0346     		mov	r3, r0
 1437              		.loc 1 250 27 discriminator 1
 1438 0060 3B75     		strb	r3, [r7, #20]
 251:Lib/Camera_Middleware/sensors/cmw_vd66gy.c ****   config.line_len = 0;
 1439              		.loc 1 251 19
 1440 0062 0023     		movs	r3, #0
 1441 0064 BB61     		str	r3, [r7, #24]
 252:Lib/Camera_Middleware/sensors/cmw_vd66gy.c ****   config.patgen = VD6G_PATGEN_DISABLE;
 1442              		.loc 1 252 17
 1443 0066 0023     		movs	r3, #0
 1444 0068 3B77     		strb	r3, [r7, #28]
 253:Lib/Camera_Middleware/sensors/cmw_vd66gy.c ****   config.flicker = VD6G_FLICKER_FREE_NONE;
ARM GAS  /tmp/ccxnf62W.s 			page 31


 1445              		.loc 1 253 18
 1446 006a 0023     		movs	r3, #0
 1447 006c 7B77     		strb	r3, [r7, #29]
 254:Lib/Camera_Middleware/sensors/cmw_vd66gy.c ****   config.out_itf.datalane_nb = 2;
 1448              		.loc 1 254 30
 1449 006e 0223     		movs	r3, #2
 1450 0070 3B62     		str	r3, [r7, #32]
 255:Lib/Camera_Middleware/sensors/cmw_vd66gy.c ****   config.out_itf.clock_lane_swap_enable = 1;
 1451              		.loc 1 255 41
 1452 0072 0123     		movs	r3, #1
 1453 0074 7B62     		str	r3, [r7, #36]
 256:Lib/Camera_Middleware/sensors/cmw_vd66gy.c ****   config.out_itf.data_lane0_swap_enable = 1;
 1454              		.loc 1 256 41
 1455 0076 0123     		movs	r3, #1
 1456 0078 BB62     		str	r3, [r7, #40]
 257:Lib/Camera_Middleware/sensors/cmw_vd66gy.c ****   config.out_itf.data_lane1_swap_enable = 1;
 1457              		.loc 1 257 41
 1458 007a 0123     		movs	r3, #1
 1459 007c FB62     		str	r3, [r7, #44]
 258:Lib/Camera_Middleware/sensors/cmw_vd66gy.c ****   config.out_itf.data_lanes_mapping_swap_enable = 0;
 1460              		.loc 1 258 49
 1461 007e 0023     		movs	r3, #0
 1462 0080 3B63     		str	r3, [r7, #48]
 259:Lib/Camera_Middleware/sensors/cmw_vd66gy.c ****   for (i = 0; i < VD6G_GPIO_NB; i++)
 1463              		.loc 1 259 10
 1464 0082 0023     		movs	r3, #0
 1465 0084 7B64     		str	r3, [r7, #68]
 1466              		.loc 1 259 3
 1467 0086 08E0     		b	.L56
 1468              	.L57:
 260:Lib/Camera_Middleware/sensors/cmw_vd66gy.c ****   {
 261:Lib/Camera_Middleware/sensors/cmw_vd66gy.c ****     config.gpio_ctrl[i] = VD6G_GPIO_GPIO_IN;
 1469              		.loc 1 261 25
 1470 0088 07F13402 		add	r2, r7, #52
 1471 008c 7B6C     		ldr	r3, [r7, #68]
 1472 008e 1344     		add	r3, r3, r2
 1473 0090 0122     		movs	r2, #1
 1474 0092 1A70     		strb	r2, [r3]
 259:Lib/Camera_Middleware/sensors/cmw_vd66gy.c ****   for (i = 0; i < VD6G_GPIO_NB; i++)
 1475              		.loc 1 259 34 discriminator 3
 1476 0094 7B6C     		ldr	r3, [r7, #68]
 1477 0096 0133     		adds	r3, r3, #1
 1478 0098 7B64     		str	r3, [r7, #68]
 1479              	.L56:
 259:Lib/Camera_Middleware/sensors/cmw_vd66gy.c ****   for (i = 0; i < VD6G_GPIO_NB; i++)
 1480              		.loc 1 259 17 discriminator 1
 1481 009a 7B6C     		ldr	r3, [r7, #68]
 1482 009c 072B     		cmp	r3, #7
 1483 009e F3DD     		ble	.L57
 262:Lib/Camera_Middleware/sensors/cmw_vd66gy.c ****   }
 263:Lib/Camera_Middleware/sensors/cmw_vd66gy.c **** 
 264:Lib/Camera_Middleware/sensors/cmw_vd66gy.c ****   ret = VD6G_Init(&((CMW_VD66GY_t *)io_ctx)->ctx_driver, &config);
 1484              		.loc 1 264 9
 1485 00a0 7B68     		ldr	r3, [r7, #4]
 1486 00a2 0833     		adds	r3, r3, #8
 1487 00a4 07F10802 		add	r2, r7, #8
 1488 00a8 1146     		mov	r1, r2
ARM GAS  /tmp/ccxnf62W.s 			page 32


 1489 00aa 1846     		mov	r0, r3
 1490 00ac FFF7FEFF 		bl	VD6G_Init
 1491 00b0 3864     		str	r0, [r7, #64]
 265:Lib/Camera_Middleware/sensors/cmw_vd66gy.c ****   if (ret)
 1492              		.loc 1 265 6
 1493 00b2 3B6C     		ldr	r3, [r7, #64]
 1494 00b4 002B     		cmp	r3, #0
 1495 00b6 02D0     		beq	.L58
 266:Lib/Camera_Middleware/sensors/cmw_vd66gy.c ****   {
 267:Lib/Camera_Middleware/sensors/cmw_vd66gy.c ****     return CMW_ERROR_PERIPH_FAILURE;
 1496              		.loc 1 267 12
 1497 00b8 6FF00303 		mvn	r3, #3
 1498 00bc 11E0     		b	.L60
 1499              	.L58:
 268:Lib/Camera_Middleware/sensors/cmw_vd66gy.c ****   }
 269:Lib/Camera_Middleware/sensors/cmw_vd66gy.c **** 
 270:Lib/Camera_Middleware/sensors/cmw_vd66gy.c ****   if (((CMW_VD66GY_t *)io_ctx)->ctx_driver.bayer == VD6G_BAYER_NONE)
 1500              		.loc 1 270 43
 1501 00be 7B68     		ldr	r3, [r7, #4]
 1502 00c0 93F83030 		ldrb	r3, [r3, #48]	@ zero_extendqisi2
 1503              		.loc 1 270 6
 1504 00c4 002B     		cmp	r3, #0
 1505 00c6 07D1     		bne	.L59
 271:Lib/Camera_Middleware/sensors/cmw_vd66gy.c ****   {
 272:Lib/Camera_Middleware/sensors/cmw_vd66gy.c ****     VD6G_DeInit(&((CMW_VD66GY_t *)io_ctx)->ctx_driver);
 1506              		.loc 1 272 5
 1507 00c8 7B68     		ldr	r3, [r7, #4]
 1508 00ca 0833     		adds	r3, r3, #8
 1509 00cc 1846     		mov	r0, r3
 1510 00ce FFF7FEFF 		bl	VD6G_DeInit
 273:Lib/Camera_Middleware/sensors/cmw_vd66gy.c ****     return CMW_ERROR_PERIPH_FAILURE;
 1511              		.loc 1 273 12
 1512 00d2 6FF00303 		mvn	r3, #3
 1513 00d6 04E0     		b	.L60
 1514              	.L59:
 274:Lib/Camera_Middleware/sensors/cmw_vd66gy.c ****   }
 275:Lib/Camera_Middleware/sensors/cmw_vd66gy.c **** 
 276:Lib/Camera_Middleware/sensors/cmw_vd66gy.c ****   ((CMW_VD66GY_t *)io_ctx)->IsInitialized = 1;
 1515              		.loc 1 276 43
 1516 00d8 7B68     		ldr	r3, [r7, #4]
 1517 00da 0122     		movs	r2, #1
 1518 00dc 83F82021 		strb	r2, [r3, #288]
 277:Lib/Camera_Middleware/sensors/cmw_vd66gy.c ****   return CMW_ERROR_NONE;
 1519              		.loc 1 277 10
 1520 00e0 0023     		movs	r3, #0
 1521              	.L60:
 278:Lib/Camera_Middleware/sensors/cmw_vd66gy.c **** }
 1522              		.loc 1 278 1
 1523 00e2 1846     		mov	r0, r3
 1524 00e4 4837     		adds	r7, r7, #72
 1525              		.cfi_def_cfa_offset 8
 1526 00e6 BD46     		mov	sp, r7
 1527              		.cfi_def_cfa_register 13
 1528              		@ sp needed
 1529 00e8 80BD     		pop	{r7, pc}
 1530              		.cfi_endproc
 1531              	.LFE3360:
ARM GAS  /tmp/ccxnf62W.s 			page 33


 1533              		.section	.text.CMW_VD66GY_Start,"ax",%progbits
 1534              		.align	1
 1535              		.syntax unified
 1536              		.thumb
 1537              		.thumb_func
 1539              	CMW_VD66GY_Start:
 1540              	.LFB3361:
 279:Lib/Camera_Middleware/sensors/cmw_vd66gy.c **** 
 280:Lib/Camera_Middleware/sensors/cmw_vd66gy.c **** static int32_t CMW_VD66GY_Start(void *io_ctx)
 281:Lib/Camera_Middleware/sensors/cmw_vd66gy.c **** {
 1541              		.loc 1 281 1
 1542              		.cfi_startproc
 1543              		@ args = 0, pretend = 0, frame = 16
 1544              		@ frame_needed = 1, uses_anonymous_args = 0
 1545 0000 80B5     		push	{r7, lr}
 1546              		.cfi_def_cfa_offset 8
 1547              		.cfi_offset 7, -8
 1548              		.cfi_offset 14, -4
 1549 0002 86B0     		sub	sp, sp, #24
 1550              		.cfi_def_cfa_offset 32
 1551 0004 02AF     		add	r7, sp, #8
 1552              		.cfi_def_cfa 7, 24
 1553 0006 7860     		str	r0, [r7, #4]
 282:Lib/Camera_Middleware/sensors/cmw_vd66gy.c ****   int ret = CMW_ERROR_NONE;
 1554              		.loc 1 282 7
 1555 0008 0023     		movs	r3, #0
 1556 000a FB60     		str	r3, [r7, #12]
 283:Lib/Camera_Middleware/sensors/cmw_vd66gy.c **** 
 284:Lib/Camera_Middleware/sensors/cmw_vd66gy.c **** #ifndef ISP_MW_TUNING_TOOL_SUPPORT
 285:Lib/Camera_Middleware/sensors/cmw_vd66gy.c ****   /* Statistic area is provided with null value so that it force the ISP Library to get the statist
 286:Lib/Camera_Middleware/sensors/cmw_vd66gy.c ****    * area information from the tuning file.
 287:Lib/Camera_Middleware/sensors/cmw_vd66gy.c ****    */
 288:Lib/Camera_Middleware/sensors/cmw_vd66gy.c ****   (void) ISP_IQParamCacheInit; /* unused */
 289:Lib/Camera_Middleware/sensors/cmw_vd66gy.c ****   ret = ISP_Init(&((CMW_VD66GY_t *)io_ctx)->hIsp, ((CMW_VD66GY_t *)io_ctx)->hdcmipp, 0, &((CMW_VD66
 1557              		.loc 1 289 9
 1558 000c 7B68     		ldr	r3, [r7, #4]
 1559 000e 03F17000 		add	r0, r3, #112
 1560              		.loc 1 289 75
 1561 0012 7B68     		ldr	r3, [r7, #4]
 1562 0014 D3F81C11 		ldr	r1, [r3, #284]
 1563              		.loc 1 289 9
 1564 0018 7B68     		ldr	r3, [r7, #4]
 1565 001a F833     		adds	r3, r3, #248
 1566 001c 174A     		ldr	r2, .L66
 1567 001e 0092     		str	r2, [sp]
 1568 0020 0022     		movs	r2, #0
 1569 0022 FFF7FEFF 		bl	ISP_Init
 1570 0026 0346     		mov	r3, r0
 1571              		.loc 1 289 7 discriminator 1
 1572 0028 FB60     		str	r3, [r7, #12]
 290:Lib/Camera_Middleware/sensors/cmw_vd66gy.c ****   if (ret != ISP_OK)
 1573              		.loc 1 290 6
 1574 002a FB68     		ldr	r3, [r7, #12]
 1575 002c 002B     		cmp	r3, #0
 1576 002e 02D0     		beq	.L62
 291:Lib/Camera_Middleware/sensors/cmw_vd66gy.c ****   {
 292:Lib/Camera_Middleware/sensors/cmw_vd66gy.c ****     return CMW_ERROR_COMPONENT_FAILURE;
ARM GAS  /tmp/ccxnf62W.s 			page 34


 1577              		.loc 1 292 12
 1578 0030 6FF00403 		mvn	r3, #4
 1579 0034 1EE0     		b	.L63
 1580              	.L62:
 293:Lib/Camera_Middleware/sensors/cmw_vd66gy.c ****   }
 294:Lib/Camera_Middleware/sensors/cmw_vd66gy.c **** 
 295:Lib/Camera_Middleware/sensors/cmw_vd66gy.c ****   ret = ISP_Start(&((CMW_VD66GY_t *)io_ctx)->hIsp);
 1581              		.loc 1 295 9
 1582 0036 7B68     		ldr	r3, [r7, #4]
 1583 0038 7033     		adds	r3, r3, #112
 1584 003a 1846     		mov	r0, r3
 1585 003c FFF7FEFF 		bl	ISP_Start
 1586 0040 0346     		mov	r3, r0
 1587              		.loc 1 295 7 discriminator 1
 1588 0042 FB60     		str	r3, [r7, #12]
 296:Lib/Camera_Middleware/sensors/cmw_vd66gy.c ****   if (ret != ISP_OK)
 1589              		.loc 1 296 6
 1590 0044 FB68     		ldr	r3, [r7, #12]
 1591 0046 002B     		cmp	r3, #0
 1592 0048 02D0     		beq	.L64
 297:Lib/Camera_Middleware/sensors/cmw_vd66gy.c ****   {
 298:Lib/Camera_Middleware/sensors/cmw_vd66gy.c ****       return CMW_ERROR_PERIPH_FAILURE;
 1593              		.loc 1 298 14
 1594 004a 6FF00303 		mvn	r3, #3
 1595 004e 11E0     		b	.L63
 1596              	.L64:
 299:Lib/Camera_Middleware/sensors/cmw_vd66gy.c ****   }
 300:Lib/Camera_Middleware/sensors/cmw_vd66gy.c **** #endif
 301:Lib/Camera_Middleware/sensors/cmw_vd66gy.c ****   ret = VD6G_Start(&((CMW_VD66GY_t *)io_ctx)->ctx_driver);
 1597              		.loc 1 301 9
 1598 0050 7B68     		ldr	r3, [r7, #4]
 1599 0052 0833     		adds	r3, r3, #8
 1600 0054 1846     		mov	r0, r3
 1601 0056 FFF7FEFF 		bl	VD6G_Start
 1602 005a F860     		str	r0, [r7, #12]
 302:Lib/Camera_Middleware/sensors/cmw_vd66gy.c ****   if (ret) {
 1603              		.loc 1 302 6
 1604 005c FB68     		ldr	r3, [r7, #12]
 1605 005e 002B     		cmp	r3, #0
 1606 0060 07D0     		beq	.L65
 303:Lib/Camera_Middleware/sensors/cmw_vd66gy.c ****     VD6G_DeInit(&((CMW_VD66GY_t *)io_ctx)->ctx_driver);
 1607              		.loc 1 303 5
 1608 0062 7B68     		ldr	r3, [r7, #4]
 1609 0064 0833     		adds	r3, r3, #8
 1610 0066 1846     		mov	r0, r3
 1611 0068 FFF7FEFF 		bl	VD6G_DeInit
 304:Lib/Camera_Middleware/sensors/cmw_vd66gy.c ****     return CMW_ERROR_PERIPH_FAILURE;
 1612              		.loc 1 304 12
 1613 006c 6FF00303 		mvn	r3, #3
 1614 0070 00E0     		b	.L63
 1615              	.L65:
 305:Lib/Camera_Middleware/sensors/cmw_vd66gy.c ****   }
 306:Lib/Camera_Middleware/sensors/cmw_vd66gy.c ****   return CMW_ERROR_NONE;
 1616              		.loc 1 306 10
 1617 0072 0023     		movs	r3, #0
 1618              	.L63:
 307:Lib/Camera_Middleware/sensors/cmw_vd66gy.c **** }
ARM GAS  /tmp/ccxnf62W.s 			page 35


 1619              		.loc 1 307 1
 1620 0074 1846     		mov	r0, r3
 1621 0076 1037     		adds	r7, r7, #16
 1622              		.cfi_def_cfa_offset 8
 1623 0078 BD46     		mov	sp, r7
 1624              		.cfi_def_cfa_register 13
 1625              		@ sp needed
 1626 007a 80BD     		pop	{r7, pc}
 1627              	.L67:
 1628              		.align	2
 1629              	.L66:
 1630 007c 00000000 		.word	ISP_IQParamCacheInit_VD66GY
 1631              		.cfi_endproc
 1632              	.LFE3361:
 1634              		.section	.text.CMW_VD66GY_Run,"ax",%progbits
 1635              		.align	1
 1636              		.syntax unified
 1637              		.thumb
 1638              		.thumb_func
 1640              	CMW_VD66GY_Run:
 1641              	.LFB3362:
 308:Lib/Camera_Middleware/sensors/cmw_vd66gy.c **** 
 309:Lib/Camera_Middleware/sensors/cmw_vd66gy.c **** static int32_t CMW_VD66GY_Run(void *io_ctx)
 310:Lib/Camera_Middleware/sensors/cmw_vd66gy.c **** {
 1642              		.loc 1 310 1
 1643              		.cfi_startproc
 1644              		@ args = 0, pretend = 0, frame = 16
 1645              		@ frame_needed = 1, uses_anonymous_args = 0
 1646 0000 80B5     		push	{r7, lr}
 1647              		.cfi_def_cfa_offset 8
 1648              		.cfi_offset 7, -8
 1649              		.cfi_offset 14, -4
 1650 0002 84B0     		sub	sp, sp, #16
 1651              		.cfi_def_cfa_offset 24
 1652 0004 00AF     		add	r7, sp, #0
 1653              		.cfi_def_cfa_register 7
 1654 0006 7860     		str	r0, [r7, #4]
 311:Lib/Camera_Middleware/sensors/cmw_vd66gy.c **** #ifndef ISP_MW_TUNING_TOOL_SUPPORT
 312:Lib/Camera_Middleware/sensors/cmw_vd66gy.c ****   int ret;
 313:Lib/Camera_Middleware/sensors/cmw_vd66gy.c ****   ret = ISP_BackgroundProcess(&((CMW_VD66GY_t *)io_ctx)->hIsp);
 1655              		.loc 1 313 9
 1656 0008 7B68     		ldr	r3, [r7, #4]
 1657 000a 7033     		adds	r3, r3, #112
 1658 000c 1846     		mov	r0, r3
 1659 000e FFF7FEFF 		bl	ISP_BackgroundProcess
 1660 0012 0346     		mov	r3, r0
 1661              		.loc 1 313 7 discriminator 1
 1662 0014 FB60     		str	r3, [r7, #12]
 314:Lib/Camera_Middleware/sensors/cmw_vd66gy.c ****   if (ret != ISP_OK)
 1663              		.loc 1 314 6
 1664 0016 FB68     		ldr	r3, [r7, #12]
 1665 0018 002B     		cmp	r3, #0
 1666 001a 02D0     		beq	.L69
 315:Lib/Camera_Middleware/sensors/cmw_vd66gy.c ****   {
 316:Lib/Camera_Middleware/sensors/cmw_vd66gy.c ****       return CMW_ERROR_PERIPH_FAILURE;
 1667              		.loc 1 316 14
 1668 001c 6FF00303 		mvn	r3, #3
ARM GAS  /tmp/ccxnf62W.s 			page 36


 1669 0020 00E0     		b	.L70
 1670              	.L69:
 317:Lib/Camera_Middleware/sensors/cmw_vd66gy.c ****   }
 318:Lib/Camera_Middleware/sensors/cmw_vd66gy.c **** #endif
 319:Lib/Camera_Middleware/sensors/cmw_vd66gy.c ****   return CMW_ERROR_NONE;
 1671              		.loc 1 319 10
 1672 0022 0023     		movs	r3, #0
 1673              	.L70:
 320:Lib/Camera_Middleware/sensors/cmw_vd66gy.c **** }
 1674              		.loc 1 320 1
 1675 0024 1846     		mov	r0, r3
 1676 0026 1037     		adds	r7, r7, #16
 1677              		.cfi_def_cfa_offset 8
 1678 0028 BD46     		mov	sp, r7
 1679              		.cfi_def_cfa_register 13
 1680              		@ sp needed
 1681 002a 80BD     		pop	{r7, pc}
 1682              		.cfi_endproc
 1683              	.LFE3362:
 1685              		.section	.text.CMW_VD66GY_Stop,"ax",%progbits
 1686              		.align	1
 1687              		.syntax unified
 1688              		.thumb
 1689              		.thumb_func
 1691              	CMW_VD66GY_Stop:
 1692              	.LFB3363:
 321:Lib/Camera_Middleware/sensors/cmw_vd66gy.c **** 
 322:Lib/Camera_Middleware/sensors/cmw_vd66gy.c **** static int32_t CMW_VD66GY_Stop(void *io_ctx)
 323:Lib/Camera_Middleware/sensors/cmw_vd66gy.c **** {
 1693              		.loc 1 323 1
 1694              		.cfi_startproc
 1695              		@ args = 0, pretend = 0, frame = 16
 1696              		@ frame_needed = 1, uses_anonymous_args = 0
 1697 0000 80B5     		push	{r7, lr}
 1698              		.cfi_def_cfa_offset 8
 1699              		.cfi_offset 7, -8
 1700              		.cfi_offset 14, -4
 1701 0002 84B0     		sub	sp, sp, #16
 1702              		.cfi_def_cfa_offset 24
 1703 0004 00AF     		add	r7, sp, #0
 1704              		.cfi_def_cfa_register 7
 1705 0006 7860     		str	r0, [r7, #4]
 324:Lib/Camera_Middleware/sensors/cmw_vd66gy.c ****   int ret = CMW_ERROR_NONE;
 1706              		.loc 1 324 7
 1707 0008 0023     		movs	r3, #0
 1708 000a FB60     		str	r3, [r7, #12]
 325:Lib/Camera_Middleware/sensors/cmw_vd66gy.c **** 
 326:Lib/Camera_Middleware/sensors/cmw_vd66gy.c ****   ret = VD6G_Stop(&((CMW_VD66GY_t *)io_ctx)->ctx_driver);
 1709              		.loc 1 326 9
 1710 000c 7B68     		ldr	r3, [r7, #4]
 1711 000e 0833     		adds	r3, r3, #8
 1712 0010 1846     		mov	r0, r3
 1713 0012 FFF7FEFF 		bl	VD6G_Stop
 1714 0016 F860     		str	r0, [r7, #12]
 327:Lib/Camera_Middleware/sensors/cmw_vd66gy.c ****   if (ret)
 1715              		.loc 1 327 6
 1716 0018 FB68     		ldr	r3, [r7, #12]
ARM GAS  /tmp/ccxnf62W.s 			page 37


 1717 001a 002B     		cmp	r3, #0
 1718 001c 02D0     		beq	.L72
 328:Lib/Camera_Middleware/sensors/cmw_vd66gy.c ****   {
 329:Lib/Camera_Middleware/sensors/cmw_vd66gy.c ****     return CMW_ERROR_PERIPH_FAILURE;
 1719              		.loc 1 329 12
 1720 001e 6FF00303 		mvn	r3, #3
 1721 0022 00E0     		b	.L73
 1722              	.L72:
 330:Lib/Camera_Middleware/sensors/cmw_vd66gy.c ****   }
 331:Lib/Camera_Middleware/sensors/cmw_vd66gy.c ****   return CMW_ERROR_NONE;
 1723              		.loc 1 331 10
 1724 0024 0023     		movs	r3, #0
 1725              	.L73:
 332:Lib/Camera_Middleware/sensors/cmw_vd66gy.c **** }
 1726              		.loc 1 332 1
 1727 0026 1846     		mov	r0, r3
 1728 0028 1037     		adds	r7, r7, #16
 1729              		.cfi_def_cfa_offset 8
 1730 002a BD46     		mov	sp, r7
 1731              		.cfi_def_cfa_register 13
 1732              		@ sp needed
 1733 002c 80BD     		pop	{r7, pc}
 1734              		.cfi_endproc
 1735              	.LFE3363:
 1737              		.section	.text.CMW_VD66GY_DeInit,"ax",%progbits
 1738              		.align	1
 1739              		.syntax unified
 1740              		.thumb
 1741              		.thumb_func
 1743              	CMW_VD66GY_DeInit:
 1744              	.LFB3364:
 333:Lib/Camera_Middleware/sensors/cmw_vd66gy.c **** 
 334:Lib/Camera_Middleware/sensors/cmw_vd66gy.c **** static int32_t CMW_VD66GY_DeInit(void *io_ctx)
 335:Lib/Camera_Middleware/sensors/cmw_vd66gy.c **** {
 1745              		.loc 1 335 1
 1746              		.cfi_startproc
 1747              		@ args = 0, pretend = 0, frame = 16
 1748              		@ frame_needed = 1, uses_anonymous_args = 0
 1749 0000 80B5     		push	{r7, lr}
 1750              		.cfi_def_cfa_offset 8
 1751              		.cfi_offset 7, -8
 1752              		.cfi_offset 14, -4
 1753 0002 84B0     		sub	sp, sp, #16
 1754              		.cfi_def_cfa_offset 24
 1755 0004 00AF     		add	r7, sp, #0
 1756              		.cfi_def_cfa_register 7
 1757 0006 7860     		str	r0, [r7, #4]
 336:Lib/Camera_Middleware/sensors/cmw_vd66gy.c ****   int ret = CMW_ERROR_NONE;
 1758              		.loc 1 336 7
 1759 0008 0023     		movs	r3, #0
 1760 000a FB60     		str	r3, [r7, #12]
 337:Lib/Camera_Middleware/sensors/cmw_vd66gy.c **** 
 338:Lib/Camera_Middleware/sensors/cmw_vd66gy.c ****   ret = VD6G_Stop(&((CMW_VD66GY_t *)io_ctx)->ctx_driver);
 1761              		.loc 1 338 9
 1762 000c 7B68     		ldr	r3, [r7, #4]
 1763 000e 0833     		adds	r3, r3, #8
 1764 0010 1846     		mov	r0, r3
ARM GAS  /tmp/ccxnf62W.s 			page 38


 1765 0012 FFF7FEFF 		bl	VD6G_Stop
 1766 0016 F860     		str	r0, [r7, #12]
 339:Lib/Camera_Middleware/sensors/cmw_vd66gy.c ****   if (ret)
 1767              		.loc 1 339 6
 1768 0018 FB68     		ldr	r3, [r7, #12]
 1769 001a 002B     		cmp	r3, #0
 1770 001c 02D0     		beq	.L75
 340:Lib/Camera_Middleware/sensors/cmw_vd66gy.c ****   {
 341:Lib/Camera_Middleware/sensors/cmw_vd66gy.c ****     return CMW_ERROR_PERIPH_FAILURE;
 1771              		.loc 1 341 12
 1772 001e 6FF00303 		mvn	r3, #3
 1773 0022 10E0     		b	.L76
 1774              	.L75:
 342:Lib/Camera_Middleware/sensors/cmw_vd66gy.c ****   }
 343:Lib/Camera_Middleware/sensors/cmw_vd66gy.c **** 
 344:Lib/Camera_Middleware/sensors/cmw_vd66gy.c ****   ret = VD6G_DeInit(&((CMW_VD66GY_t *)io_ctx)->ctx_driver);
 1775              		.loc 1 344 9
 1776 0024 7B68     		ldr	r3, [r7, #4]
 1777 0026 0833     		adds	r3, r3, #8
 1778 0028 1846     		mov	r0, r3
 1779 002a FFF7FEFF 		bl	VD6G_DeInit
 1780 002e F860     		str	r0, [r7, #12]
 345:Lib/Camera_Middleware/sensors/cmw_vd66gy.c ****   if (ret)
 1781              		.loc 1 345 6
 1782 0030 FB68     		ldr	r3, [r7, #12]
 1783 0032 002B     		cmp	r3, #0
 1784 0034 02D0     		beq	.L77
 346:Lib/Camera_Middleware/sensors/cmw_vd66gy.c ****   {
 347:Lib/Camera_Middleware/sensors/cmw_vd66gy.c ****     return CMW_ERROR_PERIPH_FAILURE;
 1785              		.loc 1 347 12
 1786 0036 6FF00303 		mvn	r3, #3
 1787 003a 04E0     		b	.L76
 1788              	.L77:
 348:Lib/Camera_Middleware/sensors/cmw_vd66gy.c ****   }
 349:Lib/Camera_Middleware/sensors/cmw_vd66gy.c **** 
 350:Lib/Camera_Middleware/sensors/cmw_vd66gy.c ****   ((CMW_VD66GY_t *)io_ctx)->IsInitialized = 0;
 1789              		.loc 1 350 43
 1790 003c 7B68     		ldr	r3, [r7, #4]
 1791 003e 0022     		movs	r2, #0
 1792 0040 83F82021 		strb	r2, [r3, #288]
 351:Lib/Camera_Middleware/sensors/cmw_vd66gy.c ****   return CMW_ERROR_NONE;
 1793              		.loc 1 351 10
 1794 0044 0023     		movs	r3, #0
 1795              	.L76:
 352:Lib/Camera_Middleware/sensors/cmw_vd66gy.c **** }
 1796              		.loc 1 352 1
 1797 0046 1846     		mov	r0, r3
 1798 0048 1037     		adds	r7, r7, #16
 1799              		.cfi_def_cfa_offset 8
 1800 004a BD46     		mov	sp, r7
 1801              		.cfi_def_cfa_register 13
 1802              		@ sp needed
 1803 004c 80BD     		pop	{r7, pc}
 1804              		.cfi_endproc
 1805              	.LFE3364:
 1807              		.section	.text.CMW_VD66GY_SetGain,"ax",%progbits
 1808              		.align	1
ARM GAS  /tmp/ccxnf62W.s 			page 39


 1809              		.global	CMW_VD66GY_SetGain
 1810              		.syntax unified
 1811              		.thumb
 1812              		.thumb_func
 1814              	CMW_VD66GY_SetGain:
 1815              	.LFB3365:
 353:Lib/Camera_Middleware/sensors/cmw_vd66gy.c **** 
 354:Lib/Camera_Middleware/sensors/cmw_vd66gy.c **** /**
 355:Lib/Camera_Middleware/sensors/cmw_vd66gy.c ****   * @brief  Set the gain
 356:Lib/Camera_Middleware/sensors/cmw_vd66gy.c ****   * @param  pObj  pointer to component object
 357:Lib/Camera_Middleware/sensors/cmw_vd66gy.c ****   * @param  Gain Gain in mdB
 358:Lib/Camera_Middleware/sensors/cmw_vd66gy.c ****   * @retval Component status
 359:Lib/Camera_Middleware/sensors/cmw_vd66gy.c ****   */
 360:Lib/Camera_Middleware/sensors/cmw_vd66gy.c **** int32_t CMW_VD66GY_SetGain(void *io_ctx, int32_t gain)
 361:Lib/Camera_Middleware/sensors/cmw_vd66gy.c **** {
 1816              		.loc 1 361 1
 1817              		.cfi_startproc
 1818              		@ args = 0, pretend = 0, frame = 56
 1819              		@ frame_needed = 1, uses_anonymous_args = 0
 1820 0000 80B5     		push	{r7, lr}
 1821              		.cfi_def_cfa_offset 8
 1822              		.cfi_offset 7, -8
 1823              		.cfi_offset 14, -4
 1824 0002 8EB0     		sub	sp, sp, #56
 1825              		.cfi_def_cfa_offset 64
 1826 0004 00AF     		add	r7, sp, #0
 1827              		.cfi_def_cfa_register 7
 1828 0006 7860     		str	r0, [r7, #4]
 1829 0008 3960     		str	r1, [r7]
 362:Lib/Camera_Middleware/sensors/cmw_vd66gy.c ****   int32_t ret;
 363:Lib/Camera_Middleware/sensors/cmw_vd66gy.c ****   uint8_t again_regmin, again_regmax;
 364:Lib/Camera_Middleware/sensors/cmw_vd66gy.c ****   uint16_t dgain_regmin, dgain_regmax;
 365:Lib/Camera_Middleware/sensors/cmw_vd66gy.c ****   uint32_t again_min_mdB, again_max_mdB;
 366:Lib/Camera_Middleware/sensors/cmw_vd66gy.c ****   uint32_t dgain_min_mdB, dgain_max_mdB;
 367:Lib/Camera_Middleware/sensors/cmw_vd66gy.c ****   double analog_linear_gain, digital_linear_gain;
 368:Lib/Camera_Middleware/sensors/cmw_vd66gy.c **** 
 369:Lib/Camera_Middleware/sensors/cmw_vd66gy.c ****   ret = VD6G_GetAnalogGainRegRange(&((CMW_VD66GY_t *)io_ctx)->ctx_driver, &again_regmin, &again_reg
 1830              		.loc 1 369 9
 1831 000a 7B68     		ldr	r3, [r7, #4]
 1832 000c 0833     		adds	r3, r3, #8
 1833 000e 07F11202 		add	r2, r7, #18
 1834 0012 07F11301 		add	r1, r7, #19
 1835 0016 1846     		mov	r0, r3
 1836 0018 FFF7FEFF 		bl	VD6G_GetAnalogGainRegRange
 1837 001c 7862     		str	r0, [r7, #36]
 370:Lib/Camera_Middleware/sensors/cmw_vd66gy.c ****   if (ret)
 1838              		.loc 1 370 6
 1839 001e 7B6A     		ldr	r3, [r7, #36]
 1840 0020 002B     		cmp	r3, #0
 1841 0022 01D0     		beq	.L79
 371:Lib/Camera_Middleware/sensors/cmw_vd66gy.c ****     return ret;
 1842              		.loc 1 371 12
 1843 0024 7B6A     		ldr	r3, [r7, #36]
 1844 0026 4CE1     		b	.L88
 1845              	.L79:
 372:Lib/Camera_Middleware/sensors/cmw_vd66gy.c **** 
 373:Lib/Camera_Middleware/sensors/cmw_vd66gy.c ****   ret = VD6G_GetDigitalGainRegRange(&((CMW_VD66GY_t *)io_ctx)->ctx_driver, &dgain_regmin, &dgain_re
ARM GAS  /tmp/ccxnf62W.s 			page 40


 1846              		.loc 1 373 9
 1847 0028 7B68     		ldr	r3, [r7, #4]
 1848 002a 0833     		adds	r3, r3, #8
 1849 002c 07F10E02 		add	r2, r7, #14
 1850 0030 07F11001 		add	r1, r7, #16
 1851 0034 1846     		mov	r0, r3
 1852 0036 FFF7FEFF 		bl	VD6G_GetDigitalGainRegRange
 1853 003a 7862     		str	r0, [r7, #36]
 374:Lib/Camera_Middleware/sensors/cmw_vd66gy.c ****   if (ret)
 1854              		.loc 1 374 6
 1855 003c 7B6A     		ldr	r3, [r7, #36]
 1856 003e 002B     		cmp	r3, #0
 1857 0040 01D0     		beq	.L81
 375:Lib/Camera_Middleware/sensors/cmw_vd66gy.c ****     return ret;
 1858              		.loc 1 375 12
 1859 0042 7B6A     		ldr	r3, [r7, #36]
 1860 0044 3DE1     		b	.L88
 1861              	.L81:
 376:Lib/Camera_Middleware/sensors/cmw_vd66gy.c **** 
 377:Lib/Camera_Middleware/sensors/cmw_vd66gy.c ****   again_min_mdB = (uint32_t) LINEAR_TO_MDECIBEL(32 / (32 - again_regmin));
 1862              		.loc 1 377 30
 1863 0046 FB7C     		ldrb	r3, [r7, #19]	@ zero_extendqisi2
 1864 0048 C3F12003 		rsb	r3, r3, #32
 1865 004c 2022     		movs	r2, #32
 1866 004e 92FBF3F3 		sdiv	r3, r2, r3
 1867 0052 07EE903A 		vmov	s15, r3	@ int
 1868 0056 B8EEE77B 		vcvt.f64.s32	d7, s15
 1869 005a B0EE470B 		vmov.f64	d0, d7
 1870 005e FFF7FEFF 		bl	log10
 1871 0062 B0EE407B 		vmov.f64	d7, d0
 1872              		.loc 1 377 30 is_stmt 0 discriminator 1
 1873 0066 B3EE046B 		vmov.f64	d6, #2.0e+1
 1874 006a 27EE067B 		vmul.f64	d7, d7, d6
 1875 006e 9FED986B 		vldr.64	d6, .L89
 1876 0072 27EE067B 		vmul.f64	d7, d7, d6
 1877              		.loc 1 377 17 is_stmt 1 discriminator 1
 1878 0076 FCEEC77B 		vcvt.u32.f64	s15, d7
 1879 007a 17EE903A 		vmov	r3, s15	@ int
 1880 007e 3B62     		str	r3, [r7, #32]
 378:Lib/Camera_Middleware/sensors/cmw_vd66gy.c ****   again_max_mdB = (uint32_t) LINEAR_TO_MDECIBEL(32 / (32 - again_regmax));
 1881              		.loc 1 378 30
 1882 0080 BB7C     		ldrb	r3, [r7, #18]	@ zero_extendqisi2
 1883 0082 C3F12003 		rsb	r3, r3, #32
 1884 0086 2022     		movs	r2, #32
 1885 0088 92FBF3F3 		sdiv	r3, r2, r3
 1886 008c 07EE903A 		vmov	s15, r3	@ int
 1887 0090 B8EEE77B 		vcvt.f64.s32	d7, s15
 1888 0094 B0EE470B 		vmov.f64	d0, d7
 1889 0098 FFF7FEFF 		bl	log10
 1890 009c B0EE407B 		vmov.f64	d7, d0
 1891              		.loc 1 378 30 is_stmt 0 discriminator 1
 1892 00a0 B3EE046B 		vmov.f64	d6, #2.0e+1
 1893 00a4 27EE067B 		vmul.f64	d7, d7, d6
 1894 00a8 9FED896B 		vldr.64	d6, .L89
 1895 00ac 27EE067B 		vmul.f64	d7, d7, d6
 1896              		.loc 1 378 17 is_stmt 1 discriminator 1
 1897 00b0 FCEEC77B 		vcvt.u32.f64	s15, d7
ARM GAS  /tmp/ccxnf62W.s 			page 41


 1898 00b4 17EE903A 		vmov	r3, s15	@ int
 1899 00b8 FB61     		str	r3, [r7, #28]
 379:Lib/Camera_Middleware/sensors/cmw_vd66gy.c ****   dgain_min_mdB = (uint32_t) LINEAR_TO_MDECIBEL(FP58_TO_FLOAT(dgain_regmin));
 1900              		.loc 1 379 30
 1901 00ba 3B8A     		ldrh	r3, [r7, #16]
 1902 00bc 1B0A     		lsrs	r3, r3, #8
 1903 00be 9BB2     		uxth	r3, r3
 1904 00c0 07EE903A 		vmov	s15, r3	@ int
 1905 00c4 B8EEE77A 		vcvt.f32.s32	s14, s15
 1906 00c8 3B8A     		ldrh	r3, [r7, #16]
 1907 00ca DBB2     		uxtb	r3, r3
 1908 00cc 07EE903A 		vmov	s15, r3	@ int
 1909 00d0 F8EEE76A 		vcvt.f32.s32	s13, s15
 1910 00d4 9FED846A 		vldr.32	s12, .L89+24
 1911 00d8 C6EE867A 		vdiv.f32	s15, s13, s12
 1912 00dc 77EE277A 		vadd.f32	s15, s14, s15
 1913 00e0 B7EEE77A 		vcvt.f64.f32	d7, s15
 1914 00e4 B0EE470B 		vmov.f64	d0, d7
 1915 00e8 FFF7FEFF 		bl	log10
 1916 00ec B0EE407B 		vmov.f64	d7, d0
 1917              		.loc 1 379 30 is_stmt 0 discriminator 1
 1918 00f0 B3EE046B 		vmov.f64	d6, #2.0e+1
 1919 00f4 27EE067B 		vmul.f64	d7, d7, d6
 1920 00f8 9FED756B 		vldr.64	d6, .L89
 1921 00fc 27EE067B 		vmul.f64	d7, d7, d6
 1922              		.loc 1 379 17 is_stmt 1 discriminator 1
 1923 0100 FCEEC77B 		vcvt.u32.f64	s15, d7
 1924 0104 17EE903A 		vmov	r3, s15	@ int
 1925 0108 BB61     		str	r3, [r7, #24]
 380:Lib/Camera_Middleware/sensors/cmw_vd66gy.c ****   dgain_max_mdB = (uint32_t) LINEAR_TO_MDECIBEL(FP58_TO_FLOAT(dgain_regmax));
 1926              		.loc 1 380 30
 1927 010a FB89     		ldrh	r3, [r7, #14]
 1928 010c 1B0A     		lsrs	r3, r3, #8
 1929 010e 9BB2     		uxth	r3, r3
 1930 0110 07EE903A 		vmov	s15, r3	@ int
 1931 0114 B8EEE77A 		vcvt.f32.s32	s14, s15
 1932 0118 FB89     		ldrh	r3, [r7, #14]
 1933 011a DBB2     		uxtb	r3, r3
 1934 011c 07EE903A 		vmov	s15, r3	@ int
 1935 0120 F8EEE76A 		vcvt.f32.s32	s13, s15
 1936 0124 9FED706A 		vldr.32	s12, .L89+24
 1937 0128 C6EE867A 		vdiv.f32	s15, s13, s12
 1938 012c 77EE277A 		vadd.f32	s15, s14, s15
 1939 0130 B7EEE77A 		vcvt.f64.f32	d7, s15
 1940 0134 B0EE470B 		vmov.f64	d0, d7
 1941 0138 FFF7FEFF 		bl	log10
 1942 013c B0EE407B 		vmov.f64	d7, d0
 1943              		.loc 1 380 30 is_stmt 0 discriminator 1
 1944 0140 B3EE046B 		vmov.f64	d6, #2.0e+1
 1945 0144 27EE067B 		vmul.f64	d7, d7, d6
 1946 0148 9FED616B 		vldr.64	d6, .L89
 1947 014c 27EE067B 		vmul.f64	d7, d7, d6
 1948              		.loc 1 380 17 is_stmt 1 discriminator 1
 1949 0150 FCEEC77B 		vcvt.u32.f64	s15, d7
 1950 0154 17EE903A 		vmov	r3, s15	@ int
 1951 0158 7B61     		str	r3, [r7, #20]
 381:Lib/Camera_Middleware/sensors/cmw_vd66gy.c **** 
ARM GAS  /tmp/ccxnf62W.s 			page 42


 382:Lib/Camera_Middleware/sensors/cmw_vd66gy.c ****   if ((gain < dgain_min_mdB + again_min_mdB)
 1952              		.loc 1 382 29
 1953 015a BA69     		ldr	r2, [r7, #24]
 1954 015c 3B6A     		ldr	r3, [r7, #32]
 1955 015e 1A44     		add	r2, r2, r3
 1956              		.loc 1 382 13
 1957 0160 3B68     		ldr	r3, [r7]
 1958              		.loc 1 382 6
 1959 0162 9A42     		cmp	r2, r3
 1960 0164 05D8     		bhi	.L82
 383:Lib/Camera_Middleware/sensors/cmw_vd66gy.c ****       || (gain > dgain_max_mdB + again_max_mdB))
 1961              		.loc 1 383 32
 1962 0166 7A69     		ldr	r2, [r7, #20]
 1963 0168 FB69     		ldr	r3, [r7, #28]
 1964 016a 1A44     		add	r2, r2, r3
 1965              		.loc 1 383 16
 1966 016c 3B68     		ldr	r3, [r7]
 1967              		.loc 1 383 7
 1968 016e 9A42     		cmp	r2, r3
 1969 0170 02D2     		bcs	.L83
 1970              	.L82:
 384:Lib/Camera_Middleware/sensors/cmw_vd66gy.c ****     return -1;
 1971              		.loc 1 384 12
 1972 0172 4FF0FF33 		mov	r3, #-1
 1973 0176 A4E0     		b	.L88
 1974              	.L83:
 385:Lib/Camera_Middleware/sensors/cmw_vd66gy.c **** 
 386:Lib/Camera_Middleware/sensors/cmw_vd66gy.c ****   if (gain <= again_max_mdB)
 1975              		.loc 1 386 12
 1976 0178 3B68     		ldr	r3, [r7]
 1977              		.loc 1 386 6
 1978 017a FA69     		ldr	r2, [r7, #28]
 1979 017c 9A42     		cmp	r2, r3
 1980 017e 2CD3     		bcc	.L84
 387:Lib/Camera_Middleware/sensors/cmw_vd66gy.c ****   {
 388:Lib/Camera_Middleware/sensors/cmw_vd66gy.c ****     /* Use analog gain only and set digital gain to its minimum */
 389:Lib/Camera_Middleware/sensors/cmw_vd66gy.c ****     analog_linear_gain = MDECIBEL_TO_LINEAR((double)(gain - dgain_min_mdB));
 1981              		.loc 1 389 26
 1982 0180 3A68     		ldr	r2, [r7]
 1983 0182 BB69     		ldr	r3, [r7, #24]
 1984 0184 D31A     		subs	r3, r2, r3
 1985 0186 07EE903A 		vmov	s15, r3	@ int
 1986 018a B8EE676B 		vcvt.f64.u32	d6, s15
 1987 018e 9FED505B 		vldr.64	d5, .L89
 1988 0192 86EE057B 		vdiv.f64	d7, d6, d5
 1989 0196 B3EE045B 		vmov.f64	d5, #2.0e+1
 1990 019a 87EE056B 		vdiv.f64	d6, d7, d5
 1991 019e B0EE461B 		vmov.f64	d1, d6
 1992 01a2 B2EE040B 		vmov.f64	d0, #1.0e+1
 1993 01a6 FFF7FEFF 		bl	pow
 1994 01aa 87ED0C0B 		vstr.64	d0, [r7, #48]
 390:Lib/Camera_Middleware/sensors/cmw_vd66gy.c ****     digital_linear_gain = MDECIBEL_TO_LINEAR((double)dgain_min_mdB);
 1995              		.loc 1 390 27
 1996 01ae BB69     		ldr	r3, [r7, #24]
 1997 01b0 07EE903A 		vmov	s15, r3	@ int
 1998 01b4 B8EE676B 		vcvt.f64.u32	d6, s15
 1999 01b8 9FED455B 		vldr.64	d5, .L89
ARM GAS  /tmp/ccxnf62W.s 			page 43


 2000 01bc 86EE057B 		vdiv.f64	d7, d6, d5
 2001 01c0 B3EE045B 		vmov.f64	d5, #2.0e+1
 2002 01c4 87EE056B 		vdiv.f64	d6, d7, d5
 2003 01c8 B0EE461B 		vmov.f64	d1, d6
 2004 01cc B2EE040B 		vmov.f64	d0, #1.0e+1
 2005 01d0 FFF7FEFF 		bl	pow
 2006 01d4 87ED0A0B 		vstr.64	d0, [r7, #40]
 2007 01d8 2BE0     		b	.L85
 2008              	.L84:
 391:Lib/Camera_Middleware/sensors/cmw_vd66gy.c ****   }
 392:Lib/Camera_Middleware/sensors/cmw_vd66gy.c ****   else
 393:Lib/Camera_Middleware/sensors/cmw_vd66gy.c ****   {
 394:Lib/Camera_Middleware/sensors/cmw_vd66gy.c ****     /* For higher gain values, add digital gain */
 395:Lib/Camera_Middleware/sensors/cmw_vd66gy.c ****     analog_linear_gain = MDECIBEL_TO_LINEAR((double)again_max_mdB);
 2009              		.loc 1 395 26
 2010 01da FB69     		ldr	r3, [r7, #28]
 2011 01dc 07EE903A 		vmov	s15, r3	@ int
 2012 01e0 B8EE676B 		vcvt.f64.u32	d6, s15
 2013 01e4 9FED3A5B 		vldr.64	d5, .L89
 2014 01e8 86EE057B 		vdiv.f64	d7, d6, d5
 2015 01ec B3EE045B 		vmov.f64	d5, #2.0e+1
 2016 01f0 87EE056B 		vdiv.f64	d6, d7, d5
 2017 01f4 B0EE461B 		vmov.f64	d1, d6
 2018 01f8 B2EE040B 		vmov.f64	d0, #1.0e+1
 2019 01fc FFF7FEFF 		bl	pow
 2020 0200 87ED0C0B 		vstr.64	d0, [r7, #48]
 396:Lib/Camera_Middleware/sensors/cmw_vd66gy.c ****     digital_linear_gain = MDECIBEL_TO_LINEAR((double)(gain - again_max_mdB));
 2021              		.loc 1 396 27
 2022 0204 3A68     		ldr	r2, [r7]
 2023 0206 FB69     		ldr	r3, [r7, #28]
 2024 0208 D31A     		subs	r3, r2, r3
 2025 020a 07EE903A 		vmov	s15, r3	@ int
 2026 020e B8EE676B 		vcvt.f64.u32	d6, s15
 2027 0212 9FED2F5B 		vldr.64	d5, .L89
 2028 0216 86EE057B 		vdiv.f64	d7, d6, d5
 2029 021a B3EE045B 		vmov.f64	d5, #2.0e+1
 2030 021e 87EE056B 		vdiv.f64	d6, d7, d5
 2031 0222 B0EE461B 		vmov.f64	d1, d6
 2032 0226 B2EE040B 		vmov.f64	d0, #1.0e+1
 2033 022a FFF7FEFF 		bl	pow
 2034 022e 87ED0A0B 		vstr.64	d0, [r7, #40]
 2035              	.L85:
 397:Lib/Camera_Middleware/sensors/cmw_vd66gy.c ****   }
 398:Lib/Camera_Middleware/sensors/cmw_vd66gy.c **** 
 399:Lib/Camera_Middleware/sensors/cmw_vd66gy.c ****   ret = VD6G_SetAnalogGain(&((CMW_VD66GY_t *)io_ctx)->ctx_driver, (int) (32 - (32 / analog_linear_g
 2036              		.loc 1 399 9
 2037 0232 7B68     		ldr	r3, [r7, #4]
 2038 0234 0833     		adds	r3, r3, #8
 2039              		.loc 1 399 83
 2040 0236 9FED285B 		vldr.64	d5, .L89+8
 2041 023a 97ED0C6B 		vldr.64	d6, [r7, #48]
 2042 023e 85EE067B 		vdiv.f64	d7, d5, d6
 2043              		.loc 1 399 77
 2044 0242 9FED256B 		vldr.64	d6, .L89+8
 2045 0246 36EE477B 		vsub.f64	d7, d6, d7
 2046              		.loc 1 399 9
 2047 024a FDEEC77B 		vcvt.s32.f64	s15, d7
ARM GAS  /tmp/ccxnf62W.s 			page 44


 2048 024e 17EE901A 		vmov	r1, s15	@ int
 2049 0252 1846     		mov	r0, r3
 2050 0254 FFF7FEFF 		bl	VD6G_SetAnalogGain
 2051 0258 7862     		str	r0, [r7, #36]
 400:Lib/Camera_Middleware/sensors/cmw_vd66gy.c ****   if (ret)
 2052              		.loc 1 400 6
 2053 025a 7B6A     		ldr	r3, [r7, #36]
 2054 025c 002B     		cmp	r3, #0
 2055 025e 01D0     		beq	.L86
 401:Lib/Camera_Middleware/sensors/cmw_vd66gy.c ****     return ret;
 2056              		.loc 1 401 12
 2057 0260 7B6A     		ldr	r3, [r7, #36]
 2058 0262 2EE0     		b	.L88
 2059              	.L86:
 402:Lib/Camera_Middleware/sensors/cmw_vd66gy.c **** 
 403:Lib/Camera_Middleware/sensors/cmw_vd66gy.c ****   ret = VD6G_SetDigitalGain(&((CMW_VD66GY_t *)io_ctx)->ctx_driver, FLOAT_TO_FP58(digital_linear_gai
 2060              		.loc 1 403 9
 2061 0264 7B68     		ldr	r3, [r7, #4]
 2062 0266 03F10800 		add	r0, r3, #8
 2063              		.loc 1 403 68
 2064 026a 97ED0A7B 		vldr.64	d7, [r7, #40]
 2065 026e FCEEC77B 		vcvt.u32.f64	s15, d7
 2066 0272 17EE9039 		vmov.f16	r3, s15	@ int
 2067 0276 9BB2     		uxth	r3, r3
 2068 0278 1A02     		lsls	r2, r3, #8
 2069 027a 97ED0A7B 		vldr.64	d7, [r7, #40]
 2070 027e FCEEC77B 		vcvt.u32.f64	s15, d7
 2071 0282 17EE9039 		vmov.f16	r3, s15	@ int
 2072 0286 9BB2     		uxth	r3, r3
 2073 0288 07EE903A 		vmov	s15, r3	@ int
 2074 028c B8EEE77B 		vcvt.f64.s32	d7, s15
 2075 0290 97ED0A6B 		vldr.64	d6, [r7, #40]
 2076 0294 36EE477B 		vsub.f64	d7, d6, d7
 2077 0298 9FED116B 		vldr.64	d6, .L89+16
 2078 029c 27EE067B 		vmul.f64	d7, d7, d6
 2079 02a0 FCEEC77B 		vcvt.u32.f64	s15, d7
 2080 02a4 17EE9039 		vmov.f16	r3, s15	@ int
 2081 02a8 9BB2     		uxth	r3, r3
 2082 02aa DBB2     		uxtb	r3, r3
 2083              		.loc 1 403 9
 2084 02ac 1343     		orrs	r3, r3, r2
 2085 02ae 1946     		mov	r1, r3
 2086 02b0 FFF7FEFF 		bl	VD6G_SetDigitalGain
 2087 02b4 7862     		str	r0, [r7, #36]
 404:Lib/Camera_Middleware/sensors/cmw_vd66gy.c ****   if (ret)
 2088              		.loc 1 404 6
 2089 02b6 7B6A     		ldr	r3, [r7, #36]
 2090 02b8 002B     		cmp	r3, #0
 2091 02ba 01D0     		beq	.L87
 405:Lib/Camera_Middleware/sensors/cmw_vd66gy.c ****     return ret;
 2092              		.loc 1 405 12
 2093 02bc 7B6A     		ldr	r3, [r7, #36]
 2094 02be 00E0     		b	.L88
 2095              	.L87:
 406:Lib/Camera_Middleware/sensors/cmw_vd66gy.c **** 
 407:Lib/Camera_Middleware/sensors/cmw_vd66gy.c ****   return 0;
 2096              		.loc 1 407 10
ARM GAS  /tmp/ccxnf62W.s 			page 45


 2097 02c0 0023     		movs	r3, #0
 2098              	.L88:
 408:Lib/Camera_Middleware/sensors/cmw_vd66gy.c **** }
 2099              		.loc 1 408 1
 2100 02c2 1846     		mov	r0, r3
 2101 02c4 3837     		adds	r7, r7, #56
 2102              		.cfi_def_cfa_offset 8
 2103 02c6 BD46     		mov	sp, r7
 2104              		.cfi_def_cfa_register 13
 2105              		@ sp needed
 2106 02c8 80BD     		pop	{r7, pc}
 2107              	.L90:
 2108 02ca 00BFAFF3 		.align	3
 2108      0080
 2109              	.L89:
 2110 02d0 00000000 		.word	0
 2111 02d4 00408F40 		.word	1083129856
 2112 02d8 00000000 		.word	0
 2113 02dc 00004040 		.word	1077936128
 2114 02e0 00000000 		.word	0
 2115 02e4 00007040 		.word	1081081856
 2116 02e8 00008043 		.word	1132462080
 2117              		.cfi_endproc
 2118              	.LFE3365:
 2120              		.section	.text.CMW_VD66GY_SetExposure,"ax",%progbits
 2121              		.align	1
 2122              		.global	CMW_VD66GY_SetExposure
 2123              		.syntax unified
 2124              		.thumb
 2125              		.thumb_func
 2127              	CMW_VD66GY_SetExposure:
 2128              	.LFB3366:
 409:Lib/Camera_Middleware/sensors/cmw_vd66gy.c **** 
 410:Lib/Camera_Middleware/sensors/cmw_vd66gy.c **** /**
 411:Lib/Camera_Middleware/sensors/cmw_vd66gy.c ****   * @brief  Set the exposure
 412:Lib/Camera_Middleware/sensors/cmw_vd66gy.c ****   * @param  pObj  pointer to component object
 413:Lib/Camera_Middleware/sensors/cmw_vd66gy.c ****   * @param  Exposure Exposure in micro seconds
 414:Lib/Camera_Middleware/sensors/cmw_vd66gy.c ****   * @retval Component status
 415:Lib/Camera_Middleware/sensors/cmw_vd66gy.c ****   */
 416:Lib/Camera_Middleware/sensors/cmw_vd66gy.c **** int32_t CMW_VD66GY_SetExposure(void *io_ctx, int32_t exposure)
 417:Lib/Camera_Middleware/sensors/cmw_vd66gy.c **** {
 2129              		.loc 1 417 1
 2130              		.cfi_startproc
 2131              		@ args = 0, pretend = 0, frame = 8
 2132              		@ frame_needed = 1, uses_anonymous_args = 0
 2133 0000 80B5     		push	{r7, lr}
 2134              		.cfi_def_cfa_offset 8
 2135              		.cfi_offset 7, -8
 2136              		.cfi_offset 14, -4
 2137 0002 82B0     		sub	sp, sp, #8
 2138              		.cfi_def_cfa_offset 16
 2139 0004 00AF     		add	r7, sp, #0
 2140              		.cfi_def_cfa_register 7
 2141 0006 7860     		str	r0, [r7, #4]
 2142 0008 3960     		str	r1, [r7]
 418:Lib/Camera_Middleware/sensors/cmw_vd66gy.c ****   return VD6G_SetExposureTime(&((CMW_VD66GY_t *)io_ctx)->ctx_driver, exposure);
 2143              		.loc 1 418 10
ARM GAS  /tmp/ccxnf62W.s 			page 46


 2144 000a 7B68     		ldr	r3, [r7, #4]
 2145 000c 0833     		adds	r3, r3, #8
 2146 000e 3968     		ldr	r1, [r7]
 2147 0010 1846     		mov	r0, r3
 2148 0012 FFF7FEFF 		bl	VD6G_SetExposureTime
 2149 0016 0346     		mov	r3, r0
 419:Lib/Camera_Middleware/sensors/cmw_vd66gy.c **** }
 2150              		.loc 1 419 1
 2151 0018 1846     		mov	r0, r3
 2152 001a 0837     		adds	r7, r7, #8
 2153              		.cfi_def_cfa_offset 8
 2154 001c BD46     		mov	sp, r7
 2155              		.cfi_def_cfa_register 13
 2156              		@ sp needed
 2157 001e 80BD     		pop	{r7, pc}
 2158              		.cfi_endproc
 2159              	.LFE3366:
 2161              		.section	.text.CMW_VD66GY_SetExposureMode,"ax",%progbits
 2162              		.align	1
 2163              		.global	CMW_VD66GY_SetExposureMode
 2164              		.syntax unified
 2165              		.thumb
 2166              		.thumb_func
 2168              	CMW_VD66GY_SetExposureMode:
 2169              	.LFB3367:
 420:Lib/Camera_Middleware/sensors/cmw_vd66gy.c **** 
 421:Lib/Camera_Middleware/sensors/cmw_vd66gy.c **** /**
 422:Lib/Camera_Middleware/sensors/cmw_vd66gy.c ****   * @brief  Set the exposure mode
 423:Lib/Camera_Middleware/sensors/cmw_vd66gy.c ****   * @param  pObj  pointer to component object
 424:Lib/Camera_Middleware/sensors/cmw_vd66gy.c ****   * @param  Exposure Exposure mode
 425:Lib/Camera_Middleware/sensors/cmw_vd66gy.c ****   * @retval Component status
 426:Lib/Camera_Middleware/sensors/cmw_vd66gy.c ****   */
 427:Lib/Camera_Middleware/sensors/cmw_vd66gy.c **** int32_t CMW_VD66GY_SetExposureMode(void *io_ctx, int32_t mode)
 428:Lib/Camera_Middleware/sensors/cmw_vd66gy.c **** {
 2170              		.loc 1 428 1
 2171              		.cfi_startproc
 2172              		@ args = 0, pretend = 0, frame = 16
 2173              		@ frame_needed = 1, uses_anonymous_args = 0
 2174 0000 80B5     		push	{r7, lr}
 2175              		.cfi_def_cfa_offset 8
 2176              		.cfi_offset 7, -8
 2177              		.cfi_offset 14, -4
 2178 0002 84B0     		sub	sp, sp, #16
 2179              		.cfi_def_cfa_offset 24
 2180 0004 00AF     		add	r7, sp, #0
 2181              		.cfi_def_cfa_register 7
 2182 0006 7860     		str	r0, [r7, #4]
 2183 0008 3960     		str	r1, [r7]
 429:Lib/Camera_Middleware/sensors/cmw_vd66gy.c ****   int ret = -1;
 2184              		.loc 1 429 7
 2185 000a 4FF0FF33 		mov	r3, #-1
 2186 000e FB60     		str	r3, [r7, #12]
 430:Lib/Camera_Middleware/sensors/cmw_vd66gy.c **** 
 431:Lib/Camera_Middleware/sensors/cmw_vd66gy.c ****   switch (mode)
 2187              		.loc 1 431 3
 2188 0010 3B68     		ldr	r3, [r7]
 2189 0012 012B     		cmp	r3, #1
ARM GAS  /tmp/ccxnf62W.s 			page 47


 2190 0014 0AD0     		beq	.L94
 2191 0016 3B68     		ldr	r3, [r7]
 2192 0018 022B     		cmp	r3, #2
 2193 001a 0FD1     		bne	.L95
 432:Lib/Camera_Middleware/sensors/cmw_vd66gy.c ****   {
 433:Lib/Camera_Middleware/sensors/cmw_vd66gy.c ****     case CMW_EXPOSUREMODE_MANUAL:
 434:Lib/Camera_Middleware/sensors/cmw_vd66gy.c ****       ret = VD6G_SetExposureMode(&((CMW_VD66GY_t *)io_ctx)->ctx_driver, VD6G_EXPOSURE_MANUAL);
 2194              		.loc 1 434 13
 2195 001c 7B68     		ldr	r3, [r7, #4]
 2196 001e 0833     		adds	r3, r3, #8
 2197 0020 0221     		movs	r1, #2
 2198 0022 1846     		mov	r0, r3
 2199 0024 FFF7FEFF 		bl	VD6G_SetExposureMode
 2200 0028 F860     		str	r0, [r7, #12]
 435:Lib/Camera_Middleware/sensors/cmw_vd66gy.c ****       break;
 2201              		.loc 1 435 7
 2202 002a 0FE0     		b	.L96
 2203              	.L94:
 436:Lib/Camera_Middleware/sensors/cmw_vd66gy.c ****     case CMW_EXPOSUREMODE_AUTOFREEZE:
 437:Lib/Camera_Middleware/sensors/cmw_vd66gy.c ****       ret = VD6G_SetExposureMode(&((CMW_VD66GY_t *)io_ctx)->ctx_driver, VD6G_EXPOSURE_FREEZE_AEALGO
 2204              		.loc 1 437 13
 2205 002c 7B68     		ldr	r3, [r7, #4]
 2206 002e 0833     		adds	r3, r3, #8
 2207 0030 0121     		movs	r1, #1
 2208 0032 1846     		mov	r0, r3
 2209 0034 FFF7FEFF 		bl	VD6G_SetExposureMode
 2210 0038 F860     		str	r0, [r7, #12]
 438:Lib/Camera_Middleware/sensors/cmw_vd66gy.c ****       break;
 2211              		.loc 1 438 7
 2212 003a 07E0     		b	.L96
 2213              	.L95:
 439:Lib/Camera_Middleware/sensors/cmw_vd66gy.c ****     case CMW_EXPOSUREMODE_AUTO:
 440:Lib/Camera_Middleware/sensors/cmw_vd66gy.c ****     default:
 441:Lib/Camera_Middleware/sensors/cmw_vd66gy.c ****       ret = VD6G_SetExposureMode(&((CMW_VD66GY_t *)io_ctx)->ctx_driver, VD6G_EXPOSURE_AUTO);
 2214              		.loc 1 441 13
 2215 003c 7B68     		ldr	r3, [r7, #4]
 2216 003e 0833     		adds	r3, r3, #8
 2217 0040 0021     		movs	r1, #0
 2218 0042 1846     		mov	r0, r3
 2219 0044 FFF7FEFF 		bl	VD6G_SetExposureMode
 2220 0048 F860     		str	r0, [r7, #12]
 442:Lib/Camera_Middleware/sensors/cmw_vd66gy.c ****       break;
 2221              		.loc 1 442 7
 2222 004a 00BF     		nop
 2223              	.L96:
 443:Lib/Camera_Middleware/sensors/cmw_vd66gy.c ****   }
 444:Lib/Camera_Middleware/sensors/cmw_vd66gy.c **** 
 445:Lib/Camera_Middleware/sensors/cmw_vd66gy.c ****   return (ret == 0) ? CMW_ERROR_NONE : CMW_ERROR_UNKNOWN_FAILURE;
 2224              		.loc 1 445 38
 2225 004c FB68     		ldr	r3, [r7, #12]
 2226 004e 002B     		cmp	r3, #0
 2227 0050 01D1     		bne	.L97
 2228              		.loc 1 445 38 is_stmt 0 discriminator 1
 2229 0052 0023     		movs	r3, #0
 2230              		.loc 1 445 38
 2231 0054 01E0     		b	.L99
 2232              	.L97:
ARM GAS  /tmp/ccxnf62W.s 			page 48


 2233              		.loc 1 445 38 discriminator 2
 2234 0056 6FF00503 		mvn	r3, #5
 2235              	.L99:
 446:Lib/Camera_Middleware/sensors/cmw_vd66gy.c **** }
 2236              		.loc 1 446 1 is_stmt 1
 2237 005a 1846     		mov	r0, r3
 2238 005c 1037     		adds	r7, r7, #16
 2239              		.cfi_def_cfa_offset 8
 2240 005e BD46     		mov	sp, r7
 2241              		.cfi_def_cfa_register 13
 2242              		@ sp needed
 2243 0060 80BD     		pop	{r7, pc}
 2244              		.cfi_endproc
 2245              	.LFE3367:
 2247              		.section	.text.CMW_VD66GY_SetWBRefMode,"ax",%progbits
 2248              		.align	1
 2249              		.global	CMW_VD66GY_SetWBRefMode
 2250              		.syntax unified
 2251              		.thumb
 2252              		.thumb_func
 2254              	CMW_VD66GY_SetWBRefMode:
 2255              	.LFB3368:
 447:Lib/Camera_Middleware/sensors/cmw_vd66gy.c **** 
 448:Lib/Camera_Middleware/sensors/cmw_vd66gy.c **** /**
 449:Lib/Camera_Middleware/sensors/cmw_vd66gy.c ****   * @brief  Set the sensor white balance mode
 450:Lib/Camera_Middleware/sensors/cmw_vd66gy.c ****   * @param  io_ctx  pointer to component object
 451:Lib/Camera_Middleware/sensors/cmw_vd66gy.c ****   * @param  Automatic automatic mode enable/disable
 452:Lib/Camera_Middleware/sensors/cmw_vd66gy.c ****   * @param  RefColorTemp color temperature if automatic mode is disabled
 453:Lib/Camera_Middleware/sensors/cmw_vd66gy.c ****   * @retval Component status
 454:Lib/Camera_Middleware/sensors/cmw_vd66gy.c ****   */
 455:Lib/Camera_Middleware/sensors/cmw_vd66gy.c **** int32_t CMW_VD66GY_SetWBRefMode(void *io_ctx, uint8_t Automatic, uint32_t RefColorTemp)
 456:Lib/Camera_Middleware/sensors/cmw_vd66gy.c **** {
 2256              		.loc 1 456 1
 2257              		.cfi_startproc
 2258              		@ args = 0, pretend = 0, frame = 24
 2259              		@ frame_needed = 1, uses_anonymous_args = 0
 2260 0000 80B5     		push	{r7, lr}
 2261              		.cfi_def_cfa_offset 8
 2262              		.cfi_offset 7, -8
 2263              		.cfi_offset 14, -4
 2264 0002 86B0     		sub	sp, sp, #24
 2265              		.cfi_def_cfa_offset 32
 2266 0004 00AF     		add	r7, sp, #0
 2267              		.cfi_def_cfa_register 7
 2268 0006 F860     		str	r0, [r7, #12]
 2269 0008 0B46     		mov	r3, r1
 2270 000a 7A60     		str	r2, [r7, #4]
 2271 000c FB72     		strb	r3, [r7, #11]
 457:Lib/Camera_Middleware/sensors/cmw_vd66gy.c ****   int ret = CMW_ERROR_NONE;
 2272              		.loc 1 457 7
 2273 000e 0023     		movs	r3, #0
 2274 0010 7B61     		str	r3, [r7, #20]
 458:Lib/Camera_Middleware/sensors/cmw_vd66gy.c **** 
 459:Lib/Camera_Middleware/sensors/cmw_vd66gy.c ****   ret = ISP_SetWBRefMode(&((CMW_VD66GY_t *)io_ctx)->hIsp, Automatic, RefColorTemp);
 2275              		.loc 1 459 9
 2276 0012 FB68     		ldr	r3, [r7, #12]
 2277 0014 7033     		adds	r3, r3, #112
ARM GAS  /tmp/ccxnf62W.s 			page 49


 2278 0016 F97A     		ldrb	r1, [r7, #11]	@ zero_extendqisi2
 2279 0018 7A68     		ldr	r2, [r7, #4]
 2280 001a 1846     		mov	r0, r3
 2281 001c FFF7FEFF 		bl	ISP_SetWBRefMode
 2282 0020 0346     		mov	r3, r0
 2283              		.loc 1 459 7 discriminator 1
 2284 0022 7B61     		str	r3, [r7, #20]
 460:Lib/Camera_Middleware/sensors/cmw_vd66gy.c ****   if (ret)
 2285              		.loc 1 460 6
 2286 0024 7B69     		ldr	r3, [r7, #20]
 2287 0026 002B     		cmp	r3, #0
 2288 0028 02D0     		beq	.L101
 461:Lib/Camera_Middleware/sensors/cmw_vd66gy.c ****   {
 462:Lib/Camera_Middleware/sensors/cmw_vd66gy.c ****     return CMW_ERROR_PERIPH_FAILURE;
 2289              		.loc 1 462 12
 2290 002a 6FF00303 		mvn	r3, #3
 2291 002e 00E0     		b	.L102
 2292              	.L101:
 463:Lib/Camera_Middleware/sensors/cmw_vd66gy.c ****   }
 464:Lib/Camera_Middleware/sensors/cmw_vd66gy.c **** 
 465:Lib/Camera_Middleware/sensors/cmw_vd66gy.c ****   return CMW_ERROR_NONE;
 2293              		.loc 1 465 10
 2294 0030 0023     		movs	r3, #0
 2295              	.L102:
 466:Lib/Camera_Middleware/sensors/cmw_vd66gy.c **** }
 2296              		.loc 1 466 1
 2297 0032 1846     		mov	r0, r3
 2298 0034 1837     		adds	r7, r7, #24
 2299              		.cfi_def_cfa_offset 8
 2300 0036 BD46     		mov	sp, r7
 2301              		.cfi_def_cfa_register 13
 2302              		@ sp needed
 2303 0038 80BD     		pop	{r7, pc}
 2304              		.cfi_endproc
 2305              	.LFE3368:
 2307              		.section	.text.CMW_VD66GY_ListWBRefModes,"ax",%progbits
 2308              		.align	1
 2309              		.global	CMW_VD66GY_ListWBRefModes
 2310              		.syntax unified
 2311              		.thumb
 2312              		.thumb_func
 2314              	CMW_VD66GY_ListWBRefModes:
 2315              	.LFB3369:
 467:Lib/Camera_Middleware/sensors/cmw_vd66gy.c **** 
 468:Lib/Camera_Middleware/sensors/cmw_vd66gy.c **** /**
 469:Lib/Camera_Middleware/sensors/cmw_vd66gy.c ****   * @brief  List the sensor white balance modes
 470:Lib/Camera_Middleware/sensors/cmw_vd66gy.c ****   * @param  io_ctx  pointer to component object
 471:Lib/Camera_Middleware/sensors/cmw_vd66gy.c ****   * @param  RefColorTemp color temperature list
 472:Lib/Camera_Middleware/sensors/cmw_vd66gy.c ****   * @retval Component status
 473:Lib/Camera_Middleware/sensors/cmw_vd66gy.c ****   */
 474:Lib/Camera_Middleware/sensors/cmw_vd66gy.c **** int32_t CMW_VD66GY_ListWBRefModes(void *io_ctx, uint32_t RefColorTemp[])
 475:Lib/Camera_Middleware/sensors/cmw_vd66gy.c **** {
 2316              		.loc 1 475 1
 2317              		.cfi_startproc
 2318              		@ args = 0, pretend = 0, frame = 16
 2319              		@ frame_needed = 1, uses_anonymous_args = 0
 2320 0000 80B5     		push	{r7, lr}
ARM GAS  /tmp/ccxnf62W.s 			page 50


 2321              		.cfi_def_cfa_offset 8
 2322              		.cfi_offset 7, -8
 2323              		.cfi_offset 14, -4
 2324 0002 84B0     		sub	sp, sp, #16
 2325              		.cfi_def_cfa_offset 24
 2326 0004 00AF     		add	r7, sp, #0
 2327              		.cfi_def_cfa_register 7
 2328 0006 7860     		str	r0, [r7, #4]
 2329 0008 3960     		str	r1, [r7]
 476:Lib/Camera_Middleware/sensors/cmw_vd66gy.c ****   int ret = CMW_ERROR_NONE;
 2330              		.loc 1 476 7
 2331 000a 0023     		movs	r3, #0
 2332 000c FB60     		str	r3, [r7, #12]
 477:Lib/Camera_Middleware/sensors/cmw_vd66gy.c **** 
 478:Lib/Camera_Middleware/sensors/cmw_vd66gy.c ****   ret = ISP_ListWBRefModes(&((CMW_VD66GY_t *)io_ctx)->hIsp, RefColorTemp);
 2333              		.loc 1 478 9
 2334 000e 7B68     		ldr	r3, [r7, #4]
 2335 0010 7033     		adds	r3, r3, #112
 2336 0012 3968     		ldr	r1, [r7]
 2337 0014 1846     		mov	r0, r3
 2338 0016 FFF7FEFF 		bl	ISP_ListWBRefModes
 2339 001a 0346     		mov	r3, r0
 2340              		.loc 1 478 7 discriminator 1
 2341 001c FB60     		str	r3, [r7, #12]
 479:Lib/Camera_Middleware/sensors/cmw_vd66gy.c ****   if (ret)
 2342              		.loc 1 479 6
 2343 001e FB68     		ldr	r3, [r7, #12]
 2344 0020 002B     		cmp	r3, #0
 2345 0022 02D0     		beq	.L104
 480:Lib/Camera_Middleware/sensors/cmw_vd66gy.c ****   {
 481:Lib/Camera_Middleware/sensors/cmw_vd66gy.c ****     return CMW_ERROR_PERIPH_FAILURE;
 2346              		.loc 1 481 12
 2347 0024 6FF00303 		mvn	r3, #3
 2348 0028 00E0     		b	.L105
 2349              	.L104:
 482:Lib/Camera_Middleware/sensors/cmw_vd66gy.c ****   }
 483:Lib/Camera_Middleware/sensors/cmw_vd66gy.c **** 
 484:Lib/Camera_Middleware/sensors/cmw_vd66gy.c ****   return CMW_ERROR_NONE;
 2350              		.loc 1 484 10
 2351 002a 0023     		movs	r3, #0
 2352              	.L105:
 485:Lib/Camera_Middleware/sensors/cmw_vd66gy.c **** }
 2353              		.loc 1 485 1
 2354 002c 1846     		mov	r0, r3
 2355 002e 1037     		adds	r7, r7, #16
 2356              		.cfi_def_cfa_offset 8
 2357 0030 BD46     		mov	sp, r7
 2358              		.cfi_def_cfa_register 13
 2359              		@ sp needed
 2360 0032 80BD     		pop	{r7, pc}
 2361              		.cfi_endproc
 2362              	.LFE3369:
 2364              		.section	.rodata
 2365              		.align	2
 2366              	.LC0:
 2367 0000 56443636 		.ascii	"VD66GY\000"
 2367      475900
ARM GAS  /tmp/ccxnf62W.s 			page 51


 2368              		.section	.text.CMW_VD66GY_GetSensorInfo,"ax",%progbits
 2369              		.align	1
 2370              		.global	CMW_VD66GY_GetSensorInfo
 2371              		.syntax unified
 2372              		.thumb
 2373              		.thumb_func
 2375              	CMW_VD66GY_GetSensorInfo:
 2376              	.LFB3370:
 486:Lib/Camera_Middleware/sensors/cmw_vd66gy.c **** 
 487:Lib/Camera_Middleware/sensors/cmw_vd66gy.c **** /**
 488:Lib/Camera_Middleware/sensors/cmw_vd66gy.c ****   * @brief  Get the sensor info
 489:Lib/Camera_Middleware/sensors/cmw_vd66gy.c ****   * @param  pObj  pointer to component object
 490:Lib/Camera_Middleware/sensors/cmw_vd66gy.c ****   * @param  pInfo pointer to sensor info structure
 491:Lib/Camera_Middleware/sensors/cmw_vd66gy.c ****   * @retval Component status
 492:Lib/Camera_Middleware/sensors/cmw_vd66gy.c ****   */
 493:Lib/Camera_Middleware/sensors/cmw_vd66gy.c **** int32_t CMW_VD66GY_GetSensorInfo(void *io_ctx, ISP_SensorInfoTypeDef *info)
 494:Lib/Camera_Middleware/sensors/cmw_vd66gy.c **** {
 2377              		.loc 1 494 1
 2378              		.cfi_startproc
 2379              		@ args = 0, pretend = 0, frame = 40
 2380              		@ frame_needed = 1, uses_anonymous_args = 0
 2381 0000 80B5     		push	{r7, lr}
 2382              		.cfi_def_cfa_offset 8
 2383              		.cfi_offset 7, -8
 2384              		.cfi_offset 14, -4
 2385 0002 8AB0     		sub	sp, sp, #40
 2386              		.cfi_def_cfa_offset 48
 2387 0004 00AF     		add	r7, sp, #0
 2388              		.cfi_def_cfa_register 7
 2389 0006 7860     		str	r0, [r7, #4]
 2390 0008 3960     		str	r1, [r7]
 495:Lib/Camera_Middleware/sensors/cmw_vd66gy.c ****   uint8_t again_regmin, again_regmax;
 496:Lib/Camera_Middleware/sensors/cmw_vd66gy.c ****   uint16_t dgain_regmin, dgain_regmax;
 497:Lib/Camera_Middleware/sensors/cmw_vd66gy.c ****   uint32_t again_min_mdB, again_max_mdB;
 498:Lib/Camera_Middleware/sensors/cmw_vd66gy.c ****   uint32_t dgain_min_mdB, dgain_max_mdB;
 499:Lib/Camera_Middleware/sensors/cmw_vd66gy.c **** 
 500:Lib/Camera_Middleware/sensors/cmw_vd66gy.c ****   int ret;
 501:Lib/Camera_Middleware/sensors/cmw_vd66gy.c **** 
 502:Lib/Camera_Middleware/sensors/cmw_vd66gy.c ****   if ((!io_ctx) || (info == NULL))
 2391              		.loc 1 502 6
 2392 000a 7B68     		ldr	r3, [r7, #4]
 2393 000c 002B     		cmp	r3, #0
 2394 000e 02D0     		beq	.L107
 2395              		.loc 1 502 17 discriminator 1
 2396 0010 3B68     		ldr	r3, [r7]
 2397 0012 002B     		cmp	r3, #0
 2398 0014 02D1     		bne	.L108
 2399              	.L107:
 503:Lib/Camera_Middleware/sensors/cmw_vd66gy.c ****     return CMW_ERROR_WRONG_PARAM;
 2400              		.loc 1 503 12
 2401 0016 6FF00103 		mvn	r3, #1
 2402 001a DFE0     		b	.L113
 2403              	.L108:
 504:Lib/Camera_Middleware/sensors/cmw_vd66gy.c **** 
 505:Lib/Camera_Middleware/sensors/cmw_vd66gy.c ****   /* Get sensor name */
 506:Lib/Camera_Middleware/sensors/cmw_vd66gy.c ****   if (sizeof(info->name) >= strlen(VD66GY_NAME) + 1)
 507:Lib/Camera_Middleware/sensors/cmw_vd66gy.c ****   {
ARM GAS  /tmp/ccxnf62W.s 			page 52


 508:Lib/Camera_Middleware/sensors/cmw_vd66gy.c ****     strcpy(info->name, VD66GY_NAME);
 2404              		.loc 1 508 16
 2405 001c 3B68     		ldr	r3, [r7]
 2406              		.loc 1 508 5
 2407 001e 744A     		ldr	r2, .L114+8
 2408 0020 1068     		ldr	r0, [r2]
 2409 0022 1860     		str	r0, [r3]	@ unaligned
 2410 0024 9188     		ldrh	r1, [r2, #4]	@ unaligned
 2411 0026 9279     		ldrb	r2, [r2, #6]
 2412 0028 9980     		strh	r1, [r3, #4]	@ unaligned
 2413 002a 9A71     		strb	r2, [r3, #6]
 509:Lib/Camera_Middleware/sensors/cmw_vd66gy.c ****   }
 510:Lib/Camera_Middleware/sensors/cmw_vd66gy.c ****   else
 511:Lib/Camera_Middleware/sensors/cmw_vd66gy.c ****   {
 512:Lib/Camera_Middleware/sensors/cmw_vd66gy.c ****     return CMW_ERROR_WRONG_PARAM;
 513:Lib/Camera_Middleware/sensors/cmw_vd66gy.c ****   }
 514:Lib/Camera_Middleware/sensors/cmw_vd66gy.c **** 
 515:Lib/Camera_Middleware/sensors/cmw_vd66gy.c ****   /* Get isp bayer pattern info */
 516:Lib/Camera_Middleware/sensors/cmw_vd66gy.c ****   info->bayer_pattern = ((CMW_VD66GY_t *)io_ctx)->ctx_driver.bayer - 1;
 2414              		.loc 1 516 61
 2415 002c 7B68     		ldr	r3, [r7, #4]
 2416 002e 93F83030 		ldrb	r3, [r3, #48]	@ zero_extendqisi2
 2417              		.loc 1 516 68
 2418 0032 013B     		subs	r3, r3, #1
 2419 0034 DAB2     		uxtb	r2, r3
 2420              		.loc 1 516 23
 2421 0036 3B68     		ldr	r3, [r7]
 2422 0038 83F82020 		strb	r2, [r3, #32]
 517:Lib/Camera_Middleware/sensors/cmw_vd66gy.c **** 
 518:Lib/Camera_Middleware/sensors/cmw_vd66gy.c ****   /* Get color depth */
 519:Lib/Camera_Middleware/sensors/cmw_vd66gy.c ****   info->color_depth = VD6G_COLOR_DEPTH_RAW8;
 2423              		.loc 1 519 21
 2424 003c 3B68     		ldr	r3, [r7]
 2425 003e 0822     		movs	r2, #8
 2426 0040 83F82120 		strb	r2, [r3, #33]
 520:Lib/Camera_Middleware/sensors/cmw_vd66gy.c **** 
 521:Lib/Camera_Middleware/sensors/cmw_vd66gy.c ****   /* Get resolution info */
 522:Lib/Camera_Middleware/sensors/cmw_vd66gy.c ****   info->width = VD6G_MAX_WIDTH;
 2427              		.loc 1 522 15
 2428 0044 3B68     		ldr	r3, [r7]
 2429 0046 4FF48C62 		mov	r2, #1120
 2430 004a 5A62     		str	r2, [r3, #36]
 523:Lib/Camera_Middleware/sensors/cmw_vd66gy.c ****   info->height = VD6G_MAX_HEIGHT;
 2431              		.loc 1 523 16
 2432 004c 3B68     		ldr	r3, [r7]
 2433 004e 40F25452 		movw	r2, #1364
 2434 0052 9A62     		str	r2, [r3, #40]
 524:Lib/Camera_Middleware/sensors/cmw_vd66gy.c **** 
 525:Lib/Camera_Middleware/sensors/cmw_vd66gy.c ****   /* Get gain range */
 526:Lib/Camera_Middleware/sensors/cmw_vd66gy.c ****   ret = VD6G_GetAnalogGainRegRange(&((CMW_VD66GY_t *)io_ctx)->ctx_driver, &again_regmin, &again_reg
 2435              		.loc 1 526 9
 2436 0054 7B68     		ldr	r3, [r7, #4]
 2437 0056 0833     		adds	r3, r3, #8
 2438 0058 07F11202 		add	r2, r7, #18
 2439 005c 07F11301 		add	r1, r7, #19
 2440 0060 1846     		mov	r0, r3
 2441 0062 FFF7FEFF 		bl	VD6G_GetAnalogGainRegRange
ARM GAS  /tmp/ccxnf62W.s 			page 53


 2442 0066 7862     		str	r0, [r7, #36]
 527:Lib/Camera_Middleware/sensors/cmw_vd66gy.c ****   if (ret)
 2443              		.loc 1 527 6
 2444 0068 7B6A     		ldr	r3, [r7, #36]
 2445 006a 002B     		cmp	r3, #0
 2446 006c 01D0     		beq	.L110
 528:Lib/Camera_Middleware/sensors/cmw_vd66gy.c ****     return ret;
 2447              		.loc 1 528 12
 2448 006e 7B6A     		ldr	r3, [r7, #36]
 2449 0070 B4E0     		b	.L113
 2450              	.L110:
 529:Lib/Camera_Middleware/sensors/cmw_vd66gy.c **** 
 530:Lib/Camera_Middleware/sensors/cmw_vd66gy.c ****   ret = VD6G_GetDigitalGainRegRange(&((CMW_VD66GY_t *)io_ctx)->ctx_driver, &dgain_regmin, &dgain_re
 2451              		.loc 1 530 9
 2452 0072 7B68     		ldr	r3, [r7, #4]
 2453 0074 0833     		adds	r3, r3, #8
 2454 0076 07F10E02 		add	r2, r7, #14
 2455 007a 07F11001 		add	r1, r7, #16
 2456 007e 1846     		mov	r0, r3
 2457 0080 FFF7FEFF 		bl	VD6G_GetDigitalGainRegRange
 2458 0084 7862     		str	r0, [r7, #36]
 531:Lib/Camera_Middleware/sensors/cmw_vd66gy.c ****   if (ret)
 2459              		.loc 1 531 6
 2460 0086 7B6A     		ldr	r3, [r7, #36]
 2461 0088 002B     		cmp	r3, #0
 2462 008a 01D0     		beq	.L111
 532:Lib/Camera_Middleware/sensors/cmw_vd66gy.c ****     return ret;
 2463              		.loc 1 532 12
 2464 008c 7B6A     		ldr	r3, [r7, #36]
 2465 008e A5E0     		b	.L113
 2466              	.L111:
 533:Lib/Camera_Middleware/sensors/cmw_vd66gy.c **** 
 534:Lib/Camera_Middleware/sensors/cmw_vd66gy.c ****   again_min_mdB = (uint32_t) LINEAR_TO_MDECIBEL(32 / (32 - again_regmin));
 2467              		.loc 1 534 30
 2468 0090 FB7C     		ldrb	r3, [r7, #19]	@ zero_extendqisi2
 2469 0092 C3F12003 		rsb	r3, r3, #32
 2470 0096 2022     		movs	r2, #32
 2471 0098 92FBF3F3 		sdiv	r3, r2, r3
 2472 009c 07EE903A 		vmov	s15, r3	@ int
 2473 00a0 B8EEE77B 		vcvt.f64.s32	d7, s15
 2474 00a4 B0EE470B 		vmov.f64	d0, d7
 2475 00a8 FFF7FEFF 		bl	log10
 2476 00ac B0EE407B 		vmov.f64	d7, d0
 2477              		.loc 1 534 30 is_stmt 0 discriminator 1
 2478 00b0 B3EE046B 		vmov.f64	d6, #2.0e+1
 2479 00b4 27EE067B 		vmul.f64	d7, d7, d6
 2480 00b8 9FED4B6B 		vldr.64	d6, .L114
 2481 00bc 27EE067B 		vmul.f64	d7, d7, d6
 2482              		.loc 1 534 17 is_stmt 1 discriminator 1
 2483 00c0 FCEEC77B 		vcvt.u32.f64	s15, d7
 2484 00c4 17EE903A 		vmov	r3, s15	@ int
 2485 00c8 3B62     		str	r3, [r7, #32]
 535:Lib/Camera_Middleware/sensors/cmw_vd66gy.c ****   again_max_mdB = (uint32_t) LINEAR_TO_MDECIBEL(32 / (32 - again_regmax));
 2486              		.loc 1 535 30
 2487 00ca BB7C     		ldrb	r3, [r7, #18]	@ zero_extendqisi2
 2488 00cc C3F12003 		rsb	r3, r3, #32
 2489 00d0 2022     		movs	r2, #32
ARM GAS  /tmp/ccxnf62W.s 			page 54


 2490 00d2 92FBF3F3 		sdiv	r3, r2, r3
 2491 00d6 07EE903A 		vmov	s15, r3	@ int
 2492 00da B8EEE77B 		vcvt.f64.s32	d7, s15
 2493 00de B0EE470B 		vmov.f64	d0, d7
 2494 00e2 FFF7FEFF 		bl	log10
 2495 00e6 B0EE407B 		vmov.f64	d7, d0
 2496              		.loc 1 535 30 is_stmt 0 discriminator 1
 2497 00ea B3EE046B 		vmov.f64	d6, #2.0e+1
 2498 00ee 27EE067B 		vmul.f64	d7, d7, d6
 2499 00f2 9FED3D6B 		vldr.64	d6, .L114
 2500 00f6 27EE067B 		vmul.f64	d7, d7, d6
 2501              		.loc 1 535 17 is_stmt 1 discriminator 1
 2502 00fa FCEEC77B 		vcvt.u32.f64	s15, d7
 2503 00fe 17EE903A 		vmov	r3, s15	@ int
 2504 0102 FB61     		str	r3, [r7, #28]
 536:Lib/Camera_Middleware/sensors/cmw_vd66gy.c ****   dgain_min_mdB = (uint32_t) LINEAR_TO_MDECIBEL(FP58_TO_FLOAT(dgain_regmin));
 2505              		.loc 1 536 30
 2506 0104 3B8A     		ldrh	r3, [r7, #16]
 2507 0106 1B0A     		lsrs	r3, r3, #8
 2508 0108 9BB2     		uxth	r3, r3
 2509 010a 07EE903A 		vmov	s15, r3	@ int
 2510 010e B8EEE77A 		vcvt.f32.s32	s14, s15
 2511 0112 3B8A     		ldrh	r3, [r7, #16]
 2512 0114 DBB2     		uxtb	r3, r3
 2513 0116 07EE903A 		vmov	s15, r3	@ int
 2514 011a F8EEE76A 		vcvt.f32.s32	s13, s15
 2515 011e 9FED356A 		vldr.32	s12, .L114+12
 2516 0122 C6EE867A 		vdiv.f32	s15, s13, s12
 2517 0126 77EE277A 		vadd.f32	s15, s14, s15
 2518 012a B7EEE77A 		vcvt.f64.f32	d7, s15
 2519 012e B0EE470B 		vmov.f64	d0, d7
 2520 0132 FFF7FEFF 		bl	log10
 2521 0136 B0EE407B 		vmov.f64	d7, d0
 2522              		.loc 1 536 30 is_stmt 0 discriminator 1
 2523 013a B3EE046B 		vmov.f64	d6, #2.0e+1
 2524 013e 27EE067B 		vmul.f64	d7, d7, d6
 2525 0142 9FED296B 		vldr.64	d6, .L114
 2526 0146 27EE067B 		vmul.f64	d7, d7, d6
 2527              		.loc 1 536 17 is_stmt 1 discriminator 1
 2528 014a FCEEC77B 		vcvt.u32.f64	s15, d7
 2529 014e 17EE903A 		vmov	r3, s15	@ int
 2530 0152 BB61     		str	r3, [r7, #24]
 537:Lib/Camera_Middleware/sensors/cmw_vd66gy.c ****   dgain_max_mdB = (uint32_t) LINEAR_TO_MDECIBEL(FP58_TO_FLOAT(dgain_regmax));
 2531              		.loc 1 537 30
 2532 0154 FB89     		ldrh	r3, [r7, #14]
 2533 0156 1B0A     		lsrs	r3, r3, #8
 2534 0158 9BB2     		uxth	r3, r3
 2535 015a 07EE903A 		vmov	s15, r3	@ int
 2536 015e B8EEE77A 		vcvt.f32.s32	s14, s15
 2537 0162 FB89     		ldrh	r3, [r7, #14]
 2538 0164 DBB2     		uxtb	r3, r3
 2539 0166 07EE903A 		vmov	s15, r3	@ int
 2540 016a F8EEE76A 		vcvt.f32.s32	s13, s15
 2541 016e 9FED216A 		vldr.32	s12, .L114+12
 2542 0172 C6EE867A 		vdiv.f32	s15, s13, s12
 2543 0176 77EE277A 		vadd.f32	s15, s14, s15
 2544 017a B7EEE77A 		vcvt.f64.f32	d7, s15
ARM GAS  /tmp/ccxnf62W.s 			page 55


 2545 017e B0EE470B 		vmov.f64	d0, d7
 2546 0182 FFF7FEFF 		bl	log10
 2547 0186 B0EE407B 		vmov.f64	d7, d0
 2548              		.loc 1 537 30 is_stmt 0 discriminator 1
 2549 018a B3EE046B 		vmov.f64	d6, #2.0e+1
 2550 018e 27EE067B 		vmul.f64	d7, d7, d6
 2551 0192 9FED156B 		vldr.64	d6, .L114
 2552 0196 27EE067B 		vmul.f64	d7, d7, d6
 2553              		.loc 1 537 17 is_stmt 1 discriminator 1
 2554 019a FCEEC77B 		vcvt.u32.f64	s15, d7
 2555 019e 17EE903A 		vmov	r3, s15	@ int
 2556 01a2 7B61     		str	r3, [r7, #20]
 538:Lib/Camera_Middleware/sensors/cmw_vd66gy.c **** 
 539:Lib/Camera_Middleware/sensors/cmw_vd66gy.c ****   info->gain_min = again_min_mdB + dgain_min_mdB;
 2557              		.loc 1 539 34
 2558 01a4 3A6A     		ldr	r2, [r7, #32]
 2559 01a6 BB69     		ldr	r3, [r7, #24]
 2560 01a8 1A44     		add	r2, r2, r3
 2561              		.loc 1 539 18
 2562 01aa 3B68     		ldr	r3, [r7]
 2563 01ac DA62     		str	r2, [r3, #44]
 540:Lib/Camera_Middleware/sensors/cmw_vd66gy.c ****   info->gain_max = again_max_mdB + dgain_max_mdB;
 2564              		.loc 1 540 34
 2565 01ae FA69     		ldr	r2, [r7, #28]
 2566 01b0 7B69     		ldr	r3, [r7, #20]
 2567 01b2 1A44     		add	r2, r2, r3
 2568              		.loc 1 540 18
 2569 01b4 3B68     		ldr	r3, [r7]
 2570 01b6 1A63     		str	r2, [r3, #48]
 541:Lib/Camera_Middleware/sensors/cmw_vd66gy.c **** 
 542:Lib/Camera_Middleware/sensors/cmw_vd66gy.c ****   /* Get exposure range */
 543:Lib/Camera_Middleware/sensors/cmw_vd66gy.c ****   ret = VD6G_GetExposureRegRange(&((CMW_VD66GY_t *)io_ctx)->ctx_driver, &info->exposure_min, &info-
 2571              		.loc 1 543 9
 2572 01b8 7B68     		ldr	r3, [r7, #4]
 2573 01ba 03F10800 		add	r0, r3, #8
 2574 01be 3B68     		ldr	r3, [r7]
 2575 01c0 03F13401 		add	r1, r3, #52
 2576 01c4 3B68     		ldr	r3, [r7]
 2577 01c6 3833     		adds	r3, r3, #56
 2578 01c8 1A46     		mov	r2, r3
 2579 01ca FFF7FEFF 		bl	VD6G_GetExposureRegRange
 2580 01ce 7862     		str	r0, [r7, #36]
 544:Lib/Camera_Middleware/sensors/cmw_vd66gy.c ****   if (ret)
 2581              		.loc 1 544 6
 2582 01d0 7B6A     		ldr	r3, [r7, #36]
 2583 01d2 002B     		cmp	r3, #0
 2584 01d4 01D0     		beq	.L112
 545:Lib/Camera_Middleware/sensors/cmw_vd66gy.c ****     return ret;
 2585              		.loc 1 545 12
 2586 01d6 7B6A     		ldr	r3, [r7, #36]
 2587 01d8 00E0     		b	.L113
 2588              	.L112:
 546:Lib/Camera_Middleware/sensors/cmw_vd66gy.c **** 
 547:Lib/Camera_Middleware/sensors/cmw_vd66gy.c ****   return CMW_ERROR_NONE;
 2589              		.loc 1 547 10
 2590 01da 0023     		movs	r3, #0
 2591              	.L113:
ARM GAS  /tmp/ccxnf62W.s 			page 56


 548:Lib/Camera_Middleware/sensors/cmw_vd66gy.c **** }
 2592              		.loc 1 548 1
 2593 01dc 1846     		mov	r0, r3
 2594 01de 2837     		adds	r7, r7, #40
 2595              		.cfi_def_cfa_offset 8
 2596 01e0 BD46     		mov	sp, r7
 2597              		.cfi_def_cfa_register 13
 2598              		@ sp needed
 2599 01e2 80BD     		pop	{r7, pc}
 2600              	.L115:
 2601 01e4 AFF30080 		.align	3
 2602              	.L114:
 2603 01e8 00000000 		.word	0
 2604 01ec 00408F40 		.word	1083129856
 2605 01f0 00000000 		.word	.LC0
 2606 01f4 00008043 		.word	1132462080
 2607              		.cfi_endproc
 2608              	.LFE3370:
 2610              		.section	.text.CMW_VD66GY_VsyncEventCallback,"ax",%progbits
 2611              		.align	1
 2612              		.syntax unified
 2613              		.thumb
 2614              		.thumb_func
 2616              	CMW_VD66GY_VsyncEventCallback:
 2617              	.LFB3371:
 549:Lib/Camera_Middleware/sensors/cmw_vd66gy.c **** 
 550:Lib/Camera_Middleware/sensors/cmw_vd66gy.c **** static void CMW_VD66GY_VsyncEventCallback(void *io_ctx, uint32_t pipe)
 551:Lib/Camera_Middleware/sensors/cmw_vd66gy.c **** {
 2618              		.loc 1 551 1
 2619              		.cfi_startproc
 2620              		@ args = 0, pretend = 0, frame = 8
 2621              		@ frame_needed = 1, uses_anonymous_args = 0
 2622 0000 80B5     		push	{r7, lr}
 2623              		.cfi_def_cfa_offset 8
 2624              		.cfi_offset 7, -8
 2625              		.cfi_offset 14, -4
 2626 0002 82B0     		sub	sp, sp, #8
 2627              		.cfi_def_cfa_offset 16
 2628 0004 00AF     		add	r7, sp, #0
 2629              		.cfi_def_cfa_register 7
 2630 0006 7860     		str	r0, [r7, #4]
 2631 0008 3960     		str	r1, [r7]
 552:Lib/Camera_Middleware/sensors/cmw_vd66gy.c **** #ifndef ISP_MW_TUNING_TOOL_SUPPORT
 553:Lib/Camera_Middleware/sensors/cmw_vd66gy.c ****   /* Update the ISP frame counter and call its statistics handler */
 554:Lib/Camera_Middleware/sensors/cmw_vd66gy.c ****   switch (pipe)
 2632              		.loc 1 554 3
 2633 000a 3B68     		ldr	r3, [r7]
 2634 000c 022B     		cmp	r3, #2
 2635 000e 1AD0     		beq	.L117
 2636 0010 3B68     		ldr	r3, [r7]
 2637 0012 022B     		cmp	r3, #2
 2638 0014 1DD8     		bhi	.L121
 2639 0016 3B68     		ldr	r3, [r7]
 2640 0018 002B     		cmp	r3, #0
 2641 001a 03D0     		beq	.L119
 2642 001c 3B68     		ldr	r3, [r7]
 2643 001e 012B     		cmp	r3, #1
ARM GAS  /tmp/ccxnf62W.s 			page 57


 2644 0020 06D0     		beq	.L120
 555:Lib/Camera_Middleware/sensors/cmw_vd66gy.c ****   {
 556:Lib/Camera_Middleware/sensors/cmw_vd66gy.c ****     case DCMIPP_PIPE0 :
 557:Lib/Camera_Middleware/sensors/cmw_vd66gy.c ****       ISP_IncDumpFrameId(&((CMW_VD66GY_t *)io_ctx)->hIsp);
 558:Lib/Camera_Middleware/sensors/cmw_vd66gy.c ****       break;
 559:Lib/Camera_Middleware/sensors/cmw_vd66gy.c ****     case DCMIPP_PIPE1 :
 560:Lib/Camera_Middleware/sensors/cmw_vd66gy.c ****       ISP_IncMainFrameId(&((CMW_VD66GY_t *)io_ctx)->hIsp);
 561:Lib/Camera_Middleware/sensors/cmw_vd66gy.c ****       ISP_GatherStatistics(&((CMW_VD66GY_t *)io_ctx)->hIsp);
 562:Lib/Camera_Middleware/sensors/cmw_vd66gy.c ****       break;
 563:Lib/Camera_Middleware/sensors/cmw_vd66gy.c ****     case DCMIPP_PIPE2 :
 564:Lib/Camera_Middleware/sensors/cmw_vd66gy.c ****       ISP_IncAncillaryFrameId(&((CMW_VD66GY_t *)io_ctx)->hIsp);
 565:Lib/Camera_Middleware/sensors/cmw_vd66gy.c ****       break;
 566:Lib/Camera_Middleware/sensors/cmw_vd66gy.c ****   }
 567:Lib/Camera_Middleware/sensors/cmw_vd66gy.c **** #endif
 568:Lib/Camera_Middleware/sensors/cmw_vd66gy.c **** }
 2645              		.loc 1 568 1
 2646 0022 16E0     		b	.L121
 2647              	.L119:
 557:Lib/Camera_Middleware/sensors/cmw_vd66gy.c ****       break;
 2648              		.loc 1 557 7
 2649 0024 7B68     		ldr	r3, [r7, #4]
 2650 0026 7033     		adds	r3, r3, #112
 2651 0028 1846     		mov	r0, r3
 2652 002a FFF7FEFF 		bl	ISP_IncDumpFrameId
 558:Lib/Camera_Middleware/sensors/cmw_vd66gy.c ****     case DCMIPP_PIPE1 :
 2653              		.loc 1 558 7
 2654 002e 10E0     		b	.L118
 2655              	.L120:
 560:Lib/Camera_Middleware/sensors/cmw_vd66gy.c ****       ISP_GatherStatistics(&((CMW_VD66GY_t *)io_ctx)->hIsp);
 2656              		.loc 1 560 7
 2657 0030 7B68     		ldr	r3, [r7, #4]
 2658 0032 7033     		adds	r3, r3, #112
 2659 0034 1846     		mov	r0, r3
 2660 0036 FFF7FEFF 		bl	ISP_IncMainFrameId
 561:Lib/Camera_Middleware/sensors/cmw_vd66gy.c ****       break;
 2661              		.loc 1 561 7
 2662 003a 7B68     		ldr	r3, [r7, #4]
 2663 003c 7033     		adds	r3, r3, #112
 2664 003e 1846     		mov	r0, r3
 2665 0040 FFF7FEFF 		bl	ISP_GatherStatistics
 562:Lib/Camera_Middleware/sensors/cmw_vd66gy.c ****     case DCMIPP_PIPE2 :
 2666              		.loc 1 562 7
 2667 0044 05E0     		b	.L118
 2668              	.L117:
 564:Lib/Camera_Middleware/sensors/cmw_vd66gy.c ****       break;
 2669              		.loc 1 564 7
 2670 0046 7B68     		ldr	r3, [r7, #4]
 2671 0048 7033     		adds	r3, r3, #112
 2672 004a 1846     		mov	r0, r3
 2673 004c FFF7FEFF 		bl	ISP_IncAncillaryFrameId
 565:Lib/Camera_Middleware/sensors/cmw_vd66gy.c ****   }
 2674              		.loc 1 565 7
 2675 0050 00BF     		nop
 2676              	.L118:
 2677              	.L121:
 2678              		.loc 1 568 1
 2679 0052 00BF     		nop
ARM GAS  /tmp/ccxnf62W.s 			page 58


 2680 0054 0837     		adds	r7, r7, #8
 2681              		.cfi_def_cfa_offset 8
 2682 0056 BD46     		mov	sp, r7
 2683              		.cfi_def_cfa_register 13
 2684              		@ sp needed
 2685 0058 80BD     		pop	{r7, pc}
 2686              		.cfi_endproc
 2687              	.LFE3371:
 2689              		.section	.text.CMW_VD66GY_FrameEventCallback,"ax",%progbits
 2690              		.align	1
 2691              		.syntax unified
 2692              		.thumb
 2693              		.thumb_func
 2695              	CMW_VD66GY_FrameEventCallback:
 2696              	.LFB3372:
 569:Lib/Camera_Middleware/sensors/cmw_vd66gy.c **** 
 570:Lib/Camera_Middleware/sensors/cmw_vd66gy.c **** static void CMW_VD66GY_FrameEventCallback(void *io_ctx, uint32_t pipe)
 571:Lib/Camera_Middleware/sensors/cmw_vd66gy.c **** {
 2697              		.loc 1 571 1
 2698              		.cfi_startproc
 2699              		@ args = 0, pretend = 0, frame = 8
 2700              		@ frame_needed = 1, uses_anonymous_args = 0
 2701              		@ link register save eliminated.
 2702 0000 80B4     		push	{r7}
 2703              		.cfi_def_cfa_offset 4
 2704              		.cfi_offset 7, -4
 2705 0002 83B0     		sub	sp, sp, #12
 2706              		.cfi_def_cfa_offset 16
 2707 0004 00AF     		add	r7, sp, #0
 2708              		.cfi_def_cfa_register 7
 2709 0006 7860     		str	r0, [r7, #4]
 2710 0008 3960     		str	r1, [r7]
 572:Lib/Camera_Middleware/sensors/cmw_vd66gy.c **** }
 2711              		.loc 1 572 1
 2712 000a 00BF     		nop
 2713 000c 0C37     		adds	r7, r7, #12
 2714              		.cfi_def_cfa_offset 4
 2715 000e BD46     		mov	sp, r7
 2716              		.cfi_def_cfa_register 13
 2717              		@ sp needed
 2718 0010 5DF8047B 		ldr	r7, [sp], #4
 2719              		.cfi_restore 7
 2720              		.cfi_def_cfa_offset 0
 2721 0014 7047     		bx	lr
 2722              		.cfi_endproc
 2723              	.LFE3372:
 2725              		.section	.text.VD66GY_RegisterBusIO,"ax",%progbits
 2726              		.align	1
 2727              		.global	VD66GY_RegisterBusIO
 2728              		.syntax unified
 2729              		.thumb
 2730              		.thumb_func
 2732              	VD66GY_RegisterBusIO:
 2733              	.LFB3373:
 573:Lib/Camera_Middleware/sensors/cmw_vd66gy.c **** 
 574:Lib/Camera_Middleware/sensors/cmw_vd66gy.c **** int32_t VD66GY_RegisterBusIO(CMW_VD66GY_t *io_ctx)
 575:Lib/Camera_Middleware/sensors/cmw_vd66gy.c **** {
ARM GAS  /tmp/ccxnf62W.s 			page 59


 2734              		.loc 1 575 1
 2735              		.cfi_startproc
 2736              		@ args = 0, pretend = 0, frame = 16
 2737              		@ frame_needed = 1, uses_anonymous_args = 0
 2738 0000 80B5     		push	{r7, lr}
 2739              		.cfi_def_cfa_offset 8
 2740              		.cfi_offset 7, -8
 2741              		.cfi_offset 14, -4
 2742 0002 84B0     		sub	sp, sp, #16
 2743              		.cfi_def_cfa_offset 24
 2744 0004 00AF     		add	r7, sp, #0
 2745              		.cfi_def_cfa_register 7
 2746 0006 7860     		str	r0, [r7, #4]
 576:Lib/Camera_Middleware/sensors/cmw_vd66gy.c ****   int ret;
 577:Lib/Camera_Middleware/sensors/cmw_vd66gy.c **** 
 578:Lib/Camera_Middleware/sensors/cmw_vd66gy.c ****   if (!io_ctx)
 2747              		.loc 1 578 6
 2748 0008 7B68     		ldr	r3, [r7, #4]
 2749 000a 002B     		cmp	r3, #0
 2750 000c 02D1     		bne	.L124
 579:Lib/Camera_Middleware/sensors/cmw_vd66gy.c ****     return CMW_ERROR_COMPONENT_FAILURE;
 2751              		.loc 1 579 12
 2752 000e 6FF00403 		mvn	r3, #4
 2753 0012 0DE0     		b	.L125
 2754              	.L124:
 580:Lib/Camera_Middleware/sensors/cmw_vd66gy.c **** 
 581:Lib/Camera_Middleware/sensors/cmw_vd66gy.c ****   if (!io_ctx->Init)
 2755              		.loc 1 581 14
 2756 0014 7B68     		ldr	r3, [r7, #4]
 2757 0016 D3F82431 		ldr	r3, [r3, #292]
 2758              		.loc 1 581 6
 2759 001a 002B     		cmp	r3, #0
 2760 001c 02D1     		bne	.L126
 582:Lib/Camera_Middleware/sensors/cmw_vd66gy.c ****     return CMW_ERROR_COMPONENT_FAILURE;
 2761              		.loc 1 582 12
 2762 001e 6FF00403 		mvn	r3, #4
 2763 0022 05E0     		b	.L125
 2764              	.L126:
 583:Lib/Camera_Middleware/sensors/cmw_vd66gy.c **** 
 584:Lib/Camera_Middleware/sensors/cmw_vd66gy.c ****   ret = io_ctx->Init();
 2765              		.loc 1 584 15
 2766 0024 7B68     		ldr	r3, [r7, #4]
 2767 0026 D3F82431 		ldr	r3, [r3, #292]
 2768              		.loc 1 584 9
 2769 002a 9847     		blx	r3
 2770              	.LVL9:
 2771 002c F860     		str	r0, [r7, #12]
 585:Lib/Camera_Middleware/sensors/cmw_vd66gy.c **** 
 586:Lib/Camera_Middleware/sensors/cmw_vd66gy.c ****   return ret;
 2772              		.loc 1 586 10
 2773 002e FB68     		ldr	r3, [r7, #12]
 2774              	.L125:
 587:Lib/Camera_Middleware/sensors/cmw_vd66gy.c **** }
 2775              		.loc 1 587 1
 2776 0030 1846     		mov	r0, r3
 2777 0032 1037     		adds	r7, r7, #16
 2778              		.cfi_def_cfa_offset 8
ARM GAS  /tmp/ccxnf62W.s 			page 60


 2779 0034 BD46     		mov	sp, r7
 2780              		.cfi_def_cfa_register 13
 2781              		@ sp needed
 2782 0036 80BD     		pop	{r7, pc}
 2783              		.cfi_endproc
 2784              	.LFE3373:
 2786              		.section	.text.VD66GY_ReadID,"ax",%progbits
 2787              		.align	1
 2788              		.global	VD66GY_ReadID
 2789              		.syntax unified
 2790              		.thumb
 2791              		.thumb_func
 2793              	VD66GY_ReadID:
 2794              	.LFB3374:
 588:Lib/Camera_Middleware/sensors/cmw_vd66gy.c **** 
 589:Lib/Camera_Middleware/sensors/cmw_vd66gy.c **** int32_t VD66GY_ReadID(CMW_VD66GY_t *io_ctx, uint32_t *Id)
 590:Lib/Camera_Middleware/sensors/cmw_vd66gy.c **** {
 2795              		.loc 1 590 1
 2796              		.cfi_startproc
 2797              		@ args = 0, pretend = 0, frame = 16
 2798              		@ frame_needed = 1, uses_anonymous_args = 0
 2799 0000 80B5     		push	{r7, lr}
 2800              		.cfi_def_cfa_offset 8
 2801              		.cfi_offset 7, -8
 2802              		.cfi_offset 14, -4
 2803 0002 84B0     		sub	sp, sp, #16
 2804              		.cfi_def_cfa_offset 24
 2805 0004 00AF     		add	r7, sp, #0
 2806              		.cfi_def_cfa_register 7
 2807 0006 7860     		str	r0, [r7, #4]
 2808 0008 3960     		str	r1, [r7]
 591:Lib/Camera_Middleware/sensors/cmw_vd66gy.c ****   uint16_t reg16;
 592:Lib/Camera_Middleware/sensors/cmw_vd66gy.c ****   int32_t ret;
 593:Lib/Camera_Middleware/sensors/cmw_vd66gy.c **** 
 594:Lib/Camera_Middleware/sensors/cmw_vd66gy.c ****   ret = CMW_VD66GY_Read16(io_ctx, VD66GY_REG_MODEL_ID, &reg16);
 2809              		.loc 1 594 9
 2810 000a 07F10A03 		add	r3, r7, #10
 2811 000e 1A46     		mov	r2, r3
 2812 0010 0021     		movs	r1, #0
 2813 0012 7868     		ldr	r0, [r7, #4]
 2814 0014 FFF7FEFF 		bl	CMW_VD66GY_Read16
 2815 0018 F860     		str	r0, [r7, #12]
 595:Lib/Camera_Middleware/sensors/cmw_vd66gy.c ****   if (ret)
 2816              		.loc 1 595 6
 2817 001a FB68     		ldr	r3, [r7, #12]
 2818 001c 002B     		cmp	r3, #0
 2819 001e 01D0     		beq	.L128
 596:Lib/Camera_Middleware/sensors/cmw_vd66gy.c ****     return ret;
 2820              		.loc 1 596 12
 2821 0020 FB68     		ldr	r3, [r7, #12]
 2822 0022 04E0     		b	.L130
 2823              	.L128:
 597:Lib/Camera_Middleware/sensors/cmw_vd66gy.c **** 
 598:Lib/Camera_Middleware/sensors/cmw_vd66gy.c ****   *Id = reg16;
 2824              		.loc 1 598 7
 2825 0024 7B89     		ldrh	r3, [r7, #10]
 2826 0026 1A46     		mov	r2, r3
ARM GAS  /tmp/ccxnf62W.s 			page 61


 2827 0028 3B68     		ldr	r3, [r7]
 2828 002a 1A60     		str	r2, [r3]
 599:Lib/Camera_Middleware/sensors/cmw_vd66gy.c **** 
 600:Lib/Camera_Middleware/sensors/cmw_vd66gy.c ****   return CMW_ERROR_NONE;
 2829              		.loc 1 600 10
 2830 002c 0023     		movs	r3, #0
 2831              	.L130:
 601:Lib/Camera_Middleware/sensors/cmw_vd66gy.c **** }
 2832              		.loc 1 601 1
 2833 002e 1846     		mov	r0, r3
 2834 0030 1037     		adds	r7, r7, #16
 2835              		.cfi_def_cfa_offset 8
 2836 0032 BD46     		mov	sp, r7
 2837              		.cfi_def_cfa_register 13
 2838              		@ sp needed
 2839 0034 80BD     		pop	{r7, pc}
 2840              		.cfi_endproc
 2841              	.LFE3374:
 2843              		.section	.text.CMW_VD66GY_PowerOn,"ax",%progbits
 2844              		.align	1
 2845              		.syntax unified
 2846              		.thumb
 2847              		.thumb_func
 2849              	CMW_VD66GY_PowerOn:
 2850              	.LFB3375:
 602:Lib/Camera_Middleware/sensors/cmw_vd66gy.c **** 
 603:Lib/Camera_Middleware/sensors/cmw_vd66gy.c **** static void CMW_VD66GY_PowerOn(CMW_VD66GY_t *io_ctx)
 604:Lib/Camera_Middleware/sensors/cmw_vd66gy.c **** {
 2851              		.loc 1 604 1
 2852              		.cfi_startproc
 2853              		@ args = 0, pretend = 0, frame = 8
 2854              		@ frame_needed = 1, uses_anonymous_args = 0
 2855 0000 80B5     		push	{r7, lr}
 2856              		.cfi_def_cfa_offset 8
 2857              		.cfi_offset 7, -8
 2858              		.cfi_offset 14, -4
 2859 0002 82B0     		sub	sp, sp, #8
 2860              		.cfi_def_cfa_offset 16
 2861 0004 00AF     		add	r7, sp, #0
 2862              		.cfi_def_cfa_register 7
 2863 0006 7860     		str	r0, [r7, #4]
 605:Lib/Camera_Middleware/sensors/cmw_vd66gy.c ****   /* Camera sensor Power-On sequence */
 606:Lib/Camera_Middleware/sensors/cmw_vd66gy.c ****   /* Assert the camera  NRST pins */
 607:Lib/Camera_Middleware/sensors/cmw_vd66gy.c ****   io_ctx->EnablePin(1);
 2864              		.loc 1 607 9
 2865 0008 7B68     		ldr	r3, [r7, #4]
 2866 000a D3F84031 		ldr	r3, [r3, #320]
 2867              		.loc 1 607 3
 2868 000e 0120     		movs	r0, #1
 2869 0010 9847     		blx	r3
 2870              	.LVL10:
 608:Lib/Camera_Middleware/sensors/cmw_vd66gy.c ****   io_ctx->ShutdownPin(0);  /* Disable MB1723 2V8 signal  */
 2871              		.loc 1 608 9
 2872 0012 7B68     		ldr	r3, [r7, #4]
 2873 0014 D3F83C31 		ldr	r3, [r3, #316]
 2874              		.loc 1 608 3
 2875 0018 0020     		movs	r0, #0
ARM GAS  /tmp/ccxnf62W.s 			page 62


 2876 001a 9847     		blx	r3
 2877              	.LVL11:
 609:Lib/Camera_Middleware/sensors/cmw_vd66gy.c ****   HAL_Delay(200);   /* NRST signals asserted during 200ms */
 2878              		.loc 1 609 3
 2879 001c C820     		movs	r0, #200
 2880 001e FFF7FEFF 		bl	HAL_Delay
 610:Lib/Camera_Middleware/sensors/cmw_vd66gy.c ****   /* De-assert the camera STANDBY pin (active high) */
 611:Lib/Camera_Middleware/sensors/cmw_vd66gy.c ****   io_ctx->ShutdownPin(1);  /* Disable MB1723 2V8 signal  */
 2881              		.loc 1 611 9
 2882 0022 7B68     		ldr	r3, [r7, #4]
 2883 0024 D3F83C31 		ldr	r3, [r3, #316]
 2884              		.loc 1 611 3
 2885 0028 0120     		movs	r0, #1
 2886 002a 9847     		blx	r3
 2887              	.LVL12:
 612:Lib/Camera_Middleware/sensors/cmw_vd66gy.c ****   HAL_Delay(20);     /* NRST de-asserted during 20ms */
 2888              		.loc 1 612 3
 2889 002c 1420     		movs	r0, #20
 2890 002e FFF7FEFF 		bl	HAL_Delay
 613:Lib/Camera_Middleware/sensors/cmw_vd66gy.c **** }
 2891              		.loc 1 613 1
 2892 0032 00BF     		nop
 2893 0034 0837     		adds	r7, r7, #8
 2894              		.cfi_def_cfa_offset 8
 2895 0036 BD46     		mov	sp, r7
 2896              		.cfi_def_cfa_register 13
 2897              		@ sp needed
 2898 0038 80BD     		pop	{r7, pc}
 2899              		.cfi_endproc
 2900              	.LFE3375:
 2902              		.section	.text.CMW_VD66GY_Probe,"ax",%progbits
 2903              		.align	1
 2904              		.global	CMW_VD66GY_Probe
 2905              		.syntax unified
 2906              		.thumb
 2907              		.thumb_func
 2909              	CMW_VD66GY_Probe:
 2910              	.LFB3376:
 614:Lib/Camera_Middleware/sensors/cmw_vd66gy.c **** 
 615:Lib/Camera_Middleware/sensors/cmw_vd66gy.c **** int CMW_VD66GY_Probe(CMW_VD66GY_t *io_ctx, CMW_Sensor_if_t *vd6g_if)
 616:Lib/Camera_Middleware/sensors/cmw_vd66gy.c **** {
 2911              		.loc 1 616 1
 2912              		.cfi_startproc
 2913              		@ args = 0, pretend = 0, frame = 16
 2914              		@ frame_needed = 1, uses_anonymous_args = 0
 2915 0000 80B5     		push	{r7, lr}
 2916              		.cfi_def_cfa_offset 8
 2917              		.cfi_offset 7, -8
 2918              		.cfi_offset 14, -4
 2919 0002 84B0     		sub	sp, sp, #16
 2920              		.cfi_def_cfa_offset 24
 2921 0004 00AF     		add	r7, sp, #0
 2922              		.cfi_def_cfa_register 7
 2923 0006 7860     		str	r0, [r7, #4]
 2924 0008 3960     		str	r1, [r7]
 617:Lib/Camera_Middleware/sensors/cmw_vd66gy.c ****   int ret = CMW_ERROR_NONE;
 2925              		.loc 1 617 7
ARM GAS  /tmp/ccxnf62W.s 			page 63


 2926 000a 0023     		movs	r3, #0
 2927 000c FB60     		str	r3, [r7, #12]
 618:Lib/Camera_Middleware/sensors/cmw_vd66gy.c ****   uint32_t id;
 619:Lib/Camera_Middleware/sensors/cmw_vd66gy.c **** 
 620:Lib/Camera_Middleware/sensors/cmw_vd66gy.c ****   io_ctx->ctx_driver.shutdown_pin = VD6G_ShutdownPin;
 2928              		.loc 1 620 35
 2929 000e 7B68     		ldr	r3, [r7, #4]
 2930 0010 374A     		ldr	r2, .L138
 2931 0012 9A60     		str	r2, [r3, #8]
 621:Lib/Camera_Middleware/sensors/cmw_vd66gy.c ****   io_ctx->ctx_driver.read8 = VD6G_Read8;
 2932              		.loc 1 621 28
 2933 0014 7B68     		ldr	r3, [r7, #4]
 2934 0016 374A     		ldr	r2, .L138+4
 2935 0018 DA60     		str	r2, [r3, #12]
 622:Lib/Camera_Middleware/sensors/cmw_vd66gy.c ****   io_ctx->ctx_driver.read16 = VD6G_Read16;
 2936              		.loc 1 622 29
 2937 001a 7B68     		ldr	r3, [r7, #4]
 2938 001c 364A     		ldr	r2, .L138+8
 2939 001e 1A61     		str	r2, [r3, #16]
 623:Lib/Camera_Middleware/sensors/cmw_vd66gy.c ****   io_ctx->ctx_driver.read32 = VD6G_Read32;
 2940              		.loc 1 623 29
 2941 0020 7B68     		ldr	r3, [r7, #4]
 2942 0022 364A     		ldr	r2, .L138+12
 2943 0024 5A61     		str	r2, [r3, #20]
 624:Lib/Camera_Middleware/sensors/cmw_vd66gy.c ****   io_ctx->ctx_driver.write8 = VD6G_Write8;
 2944              		.loc 1 624 29
 2945 0026 7B68     		ldr	r3, [r7, #4]
 2946 0028 354A     		ldr	r2, .L138+16
 2947 002a 9A61     		str	r2, [r3, #24]
 625:Lib/Camera_Middleware/sensors/cmw_vd66gy.c ****   io_ctx->ctx_driver.write16 = VD6G_Write16;
 2948              		.loc 1 625 30
 2949 002c 7B68     		ldr	r3, [r7, #4]
 2950 002e 354A     		ldr	r2, .L138+20
 2951 0030 DA61     		str	r2, [r3, #28]
 626:Lib/Camera_Middleware/sensors/cmw_vd66gy.c ****   io_ctx->ctx_driver.write32 = VD6G_Write32;
 2952              		.loc 1 626 30
 2953 0032 7B68     		ldr	r3, [r7, #4]
 2954 0034 344A     		ldr	r2, .L138+24
 2955 0036 1A62     		str	r2, [r3, #32]
 627:Lib/Camera_Middleware/sensors/cmw_vd66gy.c ****   io_ctx->ctx_driver.write_array = VD6G_WriteArray;
 2956              		.loc 1 627 34
 2957 0038 7B68     		ldr	r3, [r7, #4]
 2958 003a 344A     		ldr	r2, .L138+28
 2959 003c 5A62     		str	r2, [r3, #36]
 628:Lib/Camera_Middleware/sensors/cmw_vd66gy.c ****   io_ctx->ctx_driver.delay = VD6G_Delay;
 2960              		.loc 1 628 28
 2961 003e 7B68     		ldr	r3, [r7, #4]
 2962 0040 334A     		ldr	r2, .L138+32
 2963 0042 9A62     		str	r2, [r3, #40]
 629:Lib/Camera_Middleware/sensors/cmw_vd66gy.c ****   io_ctx->ctx_driver.log = VD6G_Log;
 2964              		.loc 1 629 26
 2965 0044 7B68     		ldr	r3, [r7, #4]
 2966 0046 334A     		ldr	r2, .L138+36
 2967 0048 DA62     		str	r2, [r3, #44]
 630:Lib/Camera_Middleware/sensors/cmw_vd66gy.c **** 
 631:Lib/Camera_Middleware/sensors/cmw_vd66gy.c ****   CMW_VD66GY_PowerOn(io_ctx);
 2968              		.loc 1 631 3
ARM GAS  /tmp/ccxnf62W.s 			page 64


 2969 004a 7868     		ldr	r0, [r7, #4]
 2970 004c FFF7FEFF 		bl	CMW_VD66GY_PowerOn
 632:Lib/Camera_Middleware/sensors/cmw_vd66gy.c **** 
 633:Lib/Camera_Middleware/sensors/cmw_vd66gy.c ****   ret = VD66GY_RegisterBusIO(io_ctx);
 2971              		.loc 1 633 9
 2972 0050 7868     		ldr	r0, [r7, #4]
 2973 0052 FFF7FEFF 		bl	VD66GY_RegisterBusIO
 2974 0056 F860     		str	r0, [r7, #12]
 634:Lib/Camera_Middleware/sensors/cmw_vd66gy.c ****   if (ret != CMW_ERROR_NONE)
 2975              		.loc 1 634 6
 2976 0058 FB68     		ldr	r3, [r7, #12]
 2977 005a 002B     		cmp	r3, #0
 2978 005c 02D0     		beq	.L133
 635:Lib/Camera_Middleware/sensors/cmw_vd66gy.c ****   {
 636:Lib/Camera_Middleware/sensors/cmw_vd66gy.c ****     return CMW_ERROR_COMPONENT_FAILURE;
 2979              		.loc 1 636 12
 2980 005e 6FF00403 		mvn	r3, #4
 2981 0062 41E0     		b	.L137
 2982              	.L133:
 637:Lib/Camera_Middleware/sensors/cmw_vd66gy.c ****   }
 638:Lib/Camera_Middleware/sensors/cmw_vd66gy.c **** 
 639:Lib/Camera_Middleware/sensors/cmw_vd66gy.c ****   ret = VD66GY_ReadID(io_ctx, &id);
 2983              		.loc 1 639 9
 2984 0064 07F10803 		add	r3, r7, #8
 2985 0068 1946     		mov	r1, r3
 2986 006a 7868     		ldr	r0, [r7, #4]
 2987 006c FFF7FEFF 		bl	VD66GY_ReadID
 2988 0070 F860     		str	r0, [r7, #12]
 640:Lib/Camera_Middleware/sensors/cmw_vd66gy.c ****   if (ret != CMW_ERROR_NONE)
 2989              		.loc 1 640 6
 2990 0072 FB68     		ldr	r3, [r7, #12]
 2991 0074 002B     		cmp	r3, #0
 2992 0076 02D0     		beq	.L135
 641:Lib/Camera_Middleware/sensors/cmw_vd66gy.c ****   {
 642:Lib/Camera_Middleware/sensors/cmw_vd66gy.c ****     return CMW_ERROR_COMPONENT_FAILURE;
 2993              		.loc 1 642 12
 2994 0078 6FF00403 		mvn	r3, #4
 2995 007c 34E0     		b	.L137
 2996              	.L135:
 643:Lib/Camera_Middleware/sensors/cmw_vd66gy.c ****   }
 644:Lib/Camera_Middleware/sensors/cmw_vd66gy.c ****   if (id != VD66GY_CHIP_ID)
 2997              		.loc 1 644 10
 2998 007e BB68     		ldr	r3, [r7, #8]
 2999              		.loc 1 644 6
 3000 0080 45F20362 		movw	r2, #22019
 3001 0084 9342     		cmp	r3, r2
 3002 0086 02D0     		beq	.L136
 645:Lib/Camera_Middleware/sensors/cmw_vd66gy.c ****   {
 646:Lib/Camera_Middleware/sensors/cmw_vd66gy.c ****     return CMW_ERROR_COMPONENT_FAILURE;
 3003              		.loc 1 646 12
 3004 0088 6FF00403 		mvn	r3, #4
 3005 008c 2CE0     		b	.L137
 3006              	.L136:
 647:Lib/Camera_Middleware/sensors/cmw_vd66gy.c ****   }
 648:Lib/Camera_Middleware/sensors/cmw_vd66gy.c **** 
 649:Lib/Camera_Middleware/sensors/cmw_vd66gy.c ****   memset(vd6g_if, 0, sizeof(*vd6g_if));
 3007              		.loc 1 649 3
ARM GAS  /tmp/ccxnf62W.s 			page 65


 3008 008e 6822     		movs	r2, #104
 3009 0090 0021     		movs	r1, #0
 3010 0092 3868     		ldr	r0, [r7]
 3011 0094 FFF7FEFF 		bl	memset
 650:Lib/Camera_Middleware/sensors/cmw_vd66gy.c ****   vd6g_if->Init = CMW_VD66GY_Init;
 3012              		.loc 1 650 17
 3013 0098 3B68     		ldr	r3, [r7]
 3014 009a 1F4A     		ldr	r2, .L138+40
 3015 009c 1A60     		str	r2, [r3]
 651:Lib/Camera_Middleware/sensors/cmw_vd66gy.c ****   vd6g_if->DeInit = CMW_VD66GY_DeInit;
 3016              		.loc 1 651 19
 3017 009e 3B68     		ldr	r3, [r7]
 3018 00a0 1E4A     		ldr	r2, .L138+44
 3019 00a2 5A60     		str	r2, [r3, #4]
 652:Lib/Camera_Middleware/sensors/cmw_vd66gy.c ****   vd6g_if->Run = CMW_VD66GY_Run;
 3020              		.loc 1 652 16
 3021 00a4 3B68     		ldr	r3, [r7]
 3022 00a6 1E4A     		ldr	r2, .L138+48
 3023 00a8 DA60     		str	r2, [r3, #12]
 653:Lib/Camera_Middleware/sensors/cmw_vd66gy.c ****   vd6g_if->VsyncEventCallback = CMW_VD66GY_VsyncEventCallback;
 3024              		.loc 1 653 31
 3025 00aa 3B68     		ldr	r3, [r7]
 3026 00ac 1D4A     		ldr	r2, .L138+52
 3027 00ae 1A61     		str	r2, [r3, #16]
 654:Lib/Camera_Middleware/sensors/cmw_vd66gy.c ****   vd6g_if->FrameEventCallback = CMW_VD66GY_FrameEventCallback;
 3028              		.loc 1 654 31
 3029 00b0 3B68     		ldr	r3, [r7]
 3030 00b2 1D4A     		ldr	r2, .L138+56
 3031 00b4 5A61     		str	r2, [r3, #20]
 655:Lib/Camera_Middleware/sensors/cmw_vd66gy.c ****   vd6g_if->Start = CMW_VD66GY_Start;
 3032              		.loc 1 655 18
 3033 00b6 3B68     		ldr	r3, [r7]
 3034 00b8 1C4A     		ldr	r2, .L138+60
 3035 00ba 9A60     		str	r2, [r3, #8]
 656:Lib/Camera_Middleware/sensors/cmw_vd66gy.c ****   vd6g_if->Stop = CMW_VD66GY_Stop;
 3036              		.loc 1 656 17
 3037 00bc 3B68     		ldr	r3, [r7]
 3038 00be 1C4A     		ldr	r2, .L138+64
 3039 00c0 9A61     		str	r2, [r3, #24]
 657:Lib/Camera_Middleware/sensors/cmw_vd66gy.c ****   vd6g_if->SetGain = CMW_VD66GY_SetGain;
 3040              		.loc 1 657 20
 3041 00c2 3B68     		ldr	r3, [r7]
 3042 00c4 1B4A     		ldr	r2, .L138+68
 3043 00c6 9A64     		str	r2, [r3, #72]
 658:Lib/Camera_Middleware/sensors/cmw_vd66gy.c ****   vd6g_if->SetExposure = CMW_VD66GY_SetExposure;
 3044              		.loc 1 658 24
 3045 00c8 3B68     		ldr	r3, [r7]
 3046 00ca 1B4A     		ldr	r2, .L138+72
 3047 00cc DA64     		str	r2, [r3, #76]
 659:Lib/Camera_Middleware/sensors/cmw_vd66gy.c ****   vd6g_if->SetExposureMode = CMW_VD66GY_SetExposureMode;
 3048              		.loc 1 659 28
 3049 00ce 3B68     		ldr	r3, [r7]
 3050 00d0 1A4A     		ldr	r2, .L138+76
 3051 00d2 1A65     		str	r2, [r3, #80]
 660:Lib/Camera_Middleware/sensors/cmw_vd66gy.c ****   vd6g_if->SetWBRefMode = CMW_VD66GY_SetWBRefMode;
 3052              		.loc 1 660 25
 3053 00d4 3B68     		ldr	r3, [r7]
ARM GAS  /tmp/ccxnf62W.s 			page 66


 3054 00d6 1A4A     		ldr	r2, .L138+80
 3055 00d8 5A65     		str	r2, [r3, #84]
 661:Lib/Camera_Middleware/sensors/cmw_vd66gy.c ****   vd6g_if->ListWBRefModes = CMW_VD66GY_ListWBRefModes;
 3056              		.loc 1 661 27
 3057 00da 3B68     		ldr	r3, [r7]
 3058 00dc 194A     		ldr	r2, .L138+84
 3059 00de 9A65     		str	r2, [r3, #88]
 662:Lib/Camera_Middleware/sensors/cmw_vd66gy.c ****   vd6g_if->GetSensorInfo = CMW_VD66GY_GetSensorInfo;
 3060              		.loc 1 662 26
 3061 00e0 3B68     		ldr	r3, [r7]
 3062 00e2 194A     		ldr	r2, .L138+88
 3063 00e4 1A66     		str	r2, [r3, #96]
 663:Lib/Camera_Middleware/sensors/cmw_vd66gy.c ****   return ret;
 3064              		.loc 1 663 10
 3065 00e6 FB68     		ldr	r3, [r7, #12]
 3066              	.L137:
 664:Lib/Camera_Middleware/sensors/cmw_vd66gy.c **** }
 3067              		.loc 1 664 1
 3068 00e8 1846     		mov	r0, r3
 3069 00ea 1037     		adds	r7, r7, #16
 3070              		.cfi_def_cfa_offset 8
 3071 00ec BD46     		mov	sp, r7
 3072              		.cfi_def_cfa_register 13
 3073              		@ sp needed
 3074 00ee 80BD     		pop	{r7, pc}
 3075              	.L139:
 3076              		.align	2
 3077              	.L138:
 3078 00f0 00000000 		.word	VD6G_ShutdownPin
 3079 00f4 00000000 		.word	VD6G_Read8
 3080 00f8 00000000 		.word	VD6G_Read16
 3081 00fc 00000000 		.word	VD6G_Read32
 3082 0100 00000000 		.word	VD6G_Write8
 3083 0104 00000000 		.word	VD6G_Write16
 3084 0108 00000000 		.word	VD6G_Write32
 3085 010c 00000000 		.word	VD6G_WriteArray
 3086 0110 00000000 		.word	VD6G_Delay
 3087 0114 00000000 		.word	VD6G_Log
 3088 0118 00000000 		.word	CMW_VD66GY_Init
 3089 011c 00000000 		.word	CMW_VD66GY_DeInit
 3090 0120 00000000 		.word	CMW_VD66GY_Run
 3091 0124 00000000 		.word	CMW_VD66GY_VsyncEventCallback
 3092 0128 00000000 		.word	CMW_VD66GY_FrameEventCallback
 3093 012c 00000000 		.word	CMW_VD66GY_Start
 3094 0130 00000000 		.word	CMW_VD66GY_Stop
 3095 0134 00000000 		.word	CMW_VD66GY_SetGain
 3096 0138 00000000 		.word	CMW_VD66GY_SetExposure
 3097 013c 00000000 		.word	CMW_VD66GY_SetExposureMode
 3098 0140 00000000 		.word	CMW_VD66GY_SetWBRefMode
 3099 0144 00000000 		.word	CMW_VD66GY_ListWBRefModes
 3100 0148 00000000 		.word	CMW_VD66GY_GetSensorInfo
 3101              		.cfi_endproc
 3102              	.LFE3376:
 3104              		.text
 3105              	.Letext0:
 3106              		.file 2 "/home/tanjiajun2002/renesas/rzv/e2studio_v2025-01_fsp_v3.1.0/toolchains/gcc_arm/arm-gnu-t
 3107              		.file 3 "/home/tanjiajun2002/renesas/rzv/e2studio_v2025-01_fsp_v3.1.0/toolchains/gcc_arm/arm-gnu-t
ARM GAS  /tmp/ccxnf62W.s 			page 67


 3108              		.file 4 "/home/tanjiajun2002/renesas/rzv/e2studio_v2025-01_fsp_v3.1.0/toolchains/gcc_arm/arm-gnu-t
 3109              		.file 5 "STM32Cube_FW_N6/Drivers/CMSIS/Device/ST/STM32N6xx/Include/stm32n657xx.h"
 3110              		.file 6 "STM32Cube_FW_N6/Drivers/STM32N6xx_HAL_Driver/Inc/stm32n6xx_hal_dcmipp.h"
 3111              		.file 7 "/home/tanjiajun2002/renesas/rzv/e2studio_v2025-01_fsp_v3.1.0/toolchains/gcc_arm/arm-gnu-t
 3112              		.file 8 "/home/tanjiajun2002/renesas/rzv/e2studio_v2025-01_fsp_v3.1.0/toolchains/gcc_arm/arm-gnu-t
 3113              		.file 9 "Lib/Camera_Middleware/ISP_Library/isp/Inc/isp_core.h"
 3114              		.file 10 "Lib/Camera_Middleware/sensors/cmw_sensors_if.h"
 3115              		.file 11 "Lib/Camera_Middleware/sensors/vd6g/vd6g.h"
 3116              		.file 12 "Lib/Camera_Middleware/sensors/cmw_vd66gy.h"
 3117              		.file 13 "Inc/imx335_isp_param_conf.h"
 3118              		.file 14 "Inc/vd66gy_isp_param_conf.h"
 3119              		.file 15 "Inc/isp_param_conf.h"
 3120              		.file 16 "STM32Cube_FW_N6/Drivers/STM32N6xx_HAL_Driver/Inc/stm32n6xx_hal.h"
 3121              		.file 17 "Lib/Camera_Middleware/ISP_Library/isp/Inc/isp_api.h"
 3122              		.file 18 "/home/tanjiajun2002/renesas/rzv/e2studio_v2025-01_fsp_v3.1.0/toolchains/gcc_arm/arm-gnu-
 3123              		.file 19 "/home/tanjiajun2002/renesas/rzv/e2studio_v2025-01_fsp_v3.1.0/toolchains/gcc_arm/arm-gnu-
 3124              		.file 20 "<built-in>"
ARM GAS  /tmp/ccxnf62W.s 			page 68

