ARM GAS  /tmp/ccDLW83P.s 			page 1


   1              		.arch armv8.1-m.main
   2              		.fpu fpv5-d16
   3              		.arch_extension dsp
   4              		.arch_extension fp
   5              		.arch_extension fp.dp
   6              		.arch_extension mve
   7              		.arch_extension mve.fp
   8              		.eabi_attribute 5, "cortex-m55"
   9              		.eabi_attribute 28, 1
  10              		.eabi_attribute 20, 1
  11              		.eabi_attribute 21, 1
  12              		.eabi_attribute 23, 3
  13              		.eabi_attribute 24, 1
  14              		.eabi_attribute 25, 1
  15              		.eabi_attribute 26, 1
  16              		.eabi_attribute 30, 6
  17              		.eabi_attribute 34, 1
  18              		.eabi_attribute 38, 1
  19              		.eabi_attribute 18, 4
  20              		.file	"cmw_utils.c"
  21              		.text
  22              	.Ltext0:
  23              		.cfi_sections	.debug_frame
  24              		.file 1 "Lib/Camera_Middleware/cmw_utils.c"
  25              		.section	.text.CMW_UTILS_GetPipeConfig,"ax",%progbits
  26              		.align	1
  27              		.global	CMW_UTILS_GetPipeConfig
  28              		.syntax unified
  29              		.thumb
  30              		.thumb_func
  32              	CMW_UTILS_GetPipeConfig:
  33              	.LFB838:
   1:Lib/Camera_Middleware/cmw_utils.c ****  /**
   2:Lib/Camera_Middleware/cmw_utils.c ****  ******************************************************************************
   3:Lib/Camera_Middleware/cmw_utils.c ****  * @file    cmw_utils.c
   4:Lib/Camera_Middleware/cmw_utils.c ****  * @author  GPM Application Team
   5:Lib/Camera_Middleware/cmw_utils.c ****  *
   6:Lib/Camera_Middleware/cmw_utils.c ****  ******************************************************************************
   7:Lib/Camera_Middleware/cmw_utils.c ****  * @attention
   8:Lib/Camera_Middleware/cmw_utils.c ****  *
   9:Lib/Camera_Middleware/cmw_utils.c ****  * Copyright (c) 2024 STMicroelectronics.
  10:Lib/Camera_Middleware/cmw_utils.c ****  * All rights reserved.
  11:Lib/Camera_Middleware/cmw_utils.c ****  *
  12:Lib/Camera_Middleware/cmw_utils.c ****  * This software is licensed under terms that can be found in the LICENSE file
  13:Lib/Camera_Middleware/cmw_utils.c ****  * in the root directory of this software component.
  14:Lib/Camera_Middleware/cmw_utils.c ****  * If no LICENSE file comes with this software, it is provided AS-IS.
  15:Lib/Camera_Middleware/cmw_utils.c ****  *
  16:Lib/Camera_Middleware/cmw_utils.c ****  ******************************************************************************
  17:Lib/Camera_Middleware/cmw_utils.c ****  */
  18:Lib/Camera_Middleware/cmw_utils.c **** 
  19:Lib/Camera_Middleware/cmw_utils.c **** #include "cmw_utils.h"
  20:Lib/Camera_Middleware/cmw_utils.c **** 
  21:Lib/Camera_Middleware/cmw_utils.c **** #include <assert.h>
  22:Lib/Camera_Middleware/cmw_utils.c **** 
  23:Lib/Camera_Middleware/cmw_utils.c **** #ifndef MIN
  24:Lib/Camera_Middleware/cmw_utils.c **** #define MIN(a,b) ((a)<(b)?(a):(b))
  25:Lib/Camera_Middleware/cmw_utils.c **** #endif
ARM GAS  /tmp/ccDLW83P.s 			page 2


  26:Lib/Camera_Middleware/cmw_utils.c **** 
  27:Lib/Camera_Middleware/cmw_utils.c **** #ifndef MAX
  28:Lib/Camera_Middleware/cmw_utils.c **** #define MAX(a,b) ((a)>(b)?(a):(b))
  29:Lib/Camera_Middleware/cmw_utils.c **** #endif
  30:Lib/Camera_Middleware/cmw_utils.c **** 
  31:Lib/Camera_Middleware/cmw_utils.c **** static void CMW_UTILS_get_crop_config(uint32_t cam_width, uint32_t cam_height, uint32_t pipe_width,
  32:Lib/Camera_Middleware/cmw_utils.c ****                                       uint32_t pipe_height, DCMIPP_CropConfTypeDef *crop);
  33:Lib/Camera_Middleware/cmw_utils.c **** static void CMW_UTILS_get_crop_config_from_manual(CMW_Manual_roi_area_t *conf, DCMIPP_CropConfTypeD
  34:Lib/Camera_Middleware/cmw_utils.c **** static void CMW_UTILS_get_down_config(float ratio_width, float ratio_height, int width, int height,
  35:Lib/Camera_Middleware/cmw_utils.c ****                                       DCMIPP_DownsizeTypeDef *down);
  36:Lib/Camera_Middleware/cmw_utils.c **** static uint32_t CMW_UTILS_get_dec_ratio_and_update(float *ratio, int is_vertical);
  37:Lib/Camera_Middleware/cmw_utils.c **** static void CMW_UTILS_get_scale_configs(CMW_DCMIPP_Conf_t *p_conf, float ratio_width, float ratio_h
  38:Lib/Camera_Middleware/cmw_utils.c ****                                        DCMIPP_DecimationConfTypeDef *dec, DCMIPP_DownsizeTypeDef *d
  39:Lib/Camera_Middleware/cmw_utils.c **** 
  40:Lib/Camera_Middleware/cmw_utils.c **** void CMW_UTILS_GetPipeConfig(uint32_t cam_width, uint32_t cam_height, CMW_DCMIPP_Conf_t *p_conf,
  41:Lib/Camera_Middleware/cmw_utils.c ****                              DCMIPP_CropConfTypeDef *crop, DCMIPP_DecimationConfTypeDef *dec,
  42:Lib/Camera_Middleware/cmw_utils.c ****                              DCMIPP_DownsizeTypeDef *down)
  43:Lib/Camera_Middleware/cmw_utils.c **** {
  34              		.loc 1 43 1
  35              		.cfi_startproc
  36              		@ args = 8, pretend = 0, frame = 24
  37              		@ frame_needed = 1, uses_anonymous_args = 0
  38 0000 80B5     		push	{r7, lr}
  39              		.cfi_def_cfa_offset 8
  40              		.cfi_offset 7, -8
  41              		.cfi_offset 14, -4
  42 0002 88B0     		sub	sp, sp, #32
  43              		.cfi_def_cfa_offset 40
  44 0004 02AF     		add	r7, sp, #8
  45              		.cfi_def_cfa 7, 32
  46 0006 F860     		str	r0, [r7, #12]
  47 0008 B960     		str	r1, [r7, #8]
  48 000a 7A60     		str	r2, [r7, #4]
  49 000c 3B60     		str	r3, [r7]
  44:Lib/Camera_Middleware/cmw_utils.c ****   float ratio_height = 0;
  50              		.loc 1 44 9
  51 000e 4FF00003 		mov	r3, #0
  52 0012 7B61     		str	r3, [r7, #20]	@ float
  45:Lib/Camera_Middleware/cmw_utils.c ****   float ratio_width = 0;
  53              		.loc 1 45 9
  54 0014 4FF00003 		mov	r3, #0
  55 0018 3B61     		str	r3, [r7, #16]	@ float
  46:Lib/Camera_Middleware/cmw_utils.c **** 
  47:Lib/Camera_Middleware/cmw_utils.c ****   if (p_conf->mode == CMW_Aspect_ratio_crop)
  56              		.loc 1 47 13
  57 001a 7B68     		ldr	r3, [r7, #4]
  58 001c 9B69     		ldr	r3, [r3, #24]
  59              		.loc 1 47 6
  60 001e 002B     		cmp	r3, #0
  61 0020 2BD1     		bne	.L2
  48:Lib/Camera_Middleware/cmw_utils.c ****   {
  49:Lib/Camera_Middleware/cmw_utils.c ****     CMW_UTILS_get_crop_config(cam_width, cam_height, p_conf->output_width, p_conf->output_height, c
  62              		.loc 1 49 5
  63 0022 7B68     		ldr	r3, [r7, #4]
  64 0024 1A68     		ldr	r2, [r3]
  65 0026 7B68     		ldr	r3, [r7, #4]
  66 0028 5968     		ldr	r1, [r3, #4]
ARM GAS  /tmp/ccDLW83P.s 			page 3


  67 002a 3B68     		ldr	r3, [r7]
  68 002c 0093     		str	r3, [sp]
  69 002e 0B46     		mov	r3, r1
  70 0030 B968     		ldr	r1, [r7, #8]
  71 0032 F868     		ldr	r0, [r7, #12]
  72 0034 FFF7FEFF 		bl	CMW_UTILS_get_crop_config
  50:Lib/Camera_Middleware/cmw_utils.c ****     ratio_width = (float)crop->HSize / p_conf->output_width;
  73              		.loc 1 50 30
  74 0038 3B68     		ldr	r3, [r7]
  75 003a DB68     		ldr	r3, [r3, #12]
  76              		.loc 1 50 19
  77 003c 07EE903A 		vmov	s15, r3	@ int
  78 0040 F8EE676A 		vcvt.f32.u32	s13, s15
  79              		.loc 1 50 46
  80 0044 7B68     		ldr	r3, [r7, #4]
  81 0046 1B68     		ldr	r3, [r3]
  82              		.loc 1 50 38
  83 0048 07EE903A 		vmov	s15, r3	@ int
  84 004c B8EE677A 		vcvt.f32.u32	s14, s15
  85              		.loc 1 50 17
  86 0050 C6EE877A 		vdiv.f32	s15, s13, s14
  87 0054 C7ED047A 		vstr.32	s15, [r7, #16]
  51:Lib/Camera_Middleware/cmw_utils.c ****     ratio_height = (float)crop->VSize / p_conf->output_height;
  88              		.loc 1 51 31
  89 0058 3B68     		ldr	r3, [r7]
  90 005a 9B68     		ldr	r3, [r3, #8]
  91              		.loc 1 51 20
  92 005c 07EE903A 		vmov	s15, r3	@ int
  93 0060 F8EE676A 		vcvt.f32.u32	s13, s15
  94              		.loc 1 51 47
  95 0064 7B68     		ldr	r3, [r7, #4]
  96 0066 5B68     		ldr	r3, [r3, #4]
  97              		.loc 1 51 39
  98 0068 07EE903A 		vmov	s15, r3	@ int
  99 006c B8EE677A 		vcvt.f32.u32	s14, s15
 100              		.loc 1 51 18
 101 0070 C6EE877A 		vdiv.f32	s15, s13, s14
 102 0074 C7ED057A 		vstr.32	s15, [r7, #20]
 103 0078 5EE0     		b	.L3
 104              	.L2:
  52:Lib/Camera_Middleware/cmw_utils.c ****   }
  53:Lib/Camera_Middleware/cmw_utils.c ****   else if (p_conf->mode == CMW_Aspect_ratio_fit)
 105              		.loc 1 53 18
 106 007a 7B68     		ldr	r3, [r7, #4]
 107 007c 9B69     		ldr	r3, [r3, #24]
 108              		.loc 1 53 11
 109 007e 012B     		cmp	r3, #1
 110 0080 1ED1     		bne	.L4
  54:Lib/Camera_Middleware/cmw_utils.c ****   {
  55:Lib/Camera_Middleware/cmw_utils.c ****     ratio_width = (float)cam_width / p_conf->output_width;
 111              		.loc 1 55 19
 112 0082 FB68     		ldr	r3, [r7, #12]
 113 0084 07EE903A 		vmov	s15, r3	@ int
 114 0088 F8EE676A 		vcvt.f32.u32	s13, s15
 115              		.loc 1 55 44
 116 008c 7B68     		ldr	r3, [r7, #4]
 117 008e 1B68     		ldr	r3, [r3]
ARM GAS  /tmp/ccDLW83P.s 			page 4


 118              		.loc 1 55 36
 119 0090 07EE903A 		vmov	s15, r3	@ int
 120 0094 B8EE677A 		vcvt.f32.u32	s14, s15
 121              		.loc 1 55 17
 122 0098 C6EE877A 		vdiv.f32	s15, s13, s14
 123 009c C7ED047A 		vstr.32	s15, [r7, #16]
  56:Lib/Camera_Middleware/cmw_utils.c ****     ratio_height = (float)cam_height / p_conf->output_height;
 124              		.loc 1 56 20
 125 00a0 BB68     		ldr	r3, [r7, #8]
 126 00a2 07EE903A 		vmov	s15, r3	@ int
 127 00a6 F8EE676A 		vcvt.f32.u32	s13, s15
 128              		.loc 1 56 46
 129 00aa 7B68     		ldr	r3, [r7, #4]
 130 00ac 5B68     		ldr	r3, [r3, #4]
 131              		.loc 1 56 38
 132 00ae 07EE903A 		vmov	s15, r3	@ int
 133 00b2 B8EE677A 		vcvt.f32.u32	s14, s15
 134              		.loc 1 56 18
 135 00b6 C6EE877A 		vdiv.f32	s15, s13, s14
 136 00ba C7ED057A 		vstr.32	s15, [r7, #20]
 137 00be 3BE0     		b	.L3
 138              	.L4:
  57:Lib/Camera_Middleware/cmw_utils.c ****   }
  58:Lib/Camera_Middleware/cmw_utils.c ****   else if (p_conf->mode == CMW_Aspect_ratio_fullscreen)
 139              		.loc 1 58 18
 140 00c0 7B68     		ldr	r3, [r7, #4]
 141 00c2 9B69     		ldr	r3, [r3, #24]
 142              		.loc 1 58 11
 143 00c4 022B     		cmp	r3, #2
 144 00c6 11D1     		bne	.L5
  59:Lib/Camera_Middleware/cmw_utils.c ****   {
  60:Lib/Camera_Middleware/cmw_utils.c ****     ratio_height = (float) cam_height / p_conf->output_height;
 145              		.loc 1 60 20
 146 00c8 BB68     		ldr	r3, [r7, #8]
 147 00ca 07EE903A 		vmov	s15, r3	@ int
 148 00ce F8EE676A 		vcvt.f32.u32	s13, s15
 149              		.loc 1 60 47
 150 00d2 7B68     		ldr	r3, [r7, #4]
 151 00d4 5B68     		ldr	r3, [r3, #4]
 152              		.loc 1 60 39
 153 00d6 07EE903A 		vmov	s15, r3	@ int
 154 00da B8EE677A 		vcvt.f32.u32	s14, s15
 155              		.loc 1 60 18
 156 00de C6EE877A 		vdiv.f32	s15, s13, s14
 157 00e2 C7ED057A 		vstr.32	s15, [r7, #20]
  61:Lib/Camera_Middleware/cmw_utils.c ****     ratio_width = (float) ratio_height;
 158              		.loc 1 61 17
 159 00e6 7B69     		ldr	r3, [r7, #20]	@ float
 160 00e8 3B61     		str	r3, [r7, #16]	@ float
 161 00ea 25E0     		b	.L3
 162              	.L5:
  62:Lib/Camera_Middleware/cmw_utils.c ****   }
  63:Lib/Camera_Middleware/cmw_utils.c ****   else
  64:Lib/Camera_Middleware/cmw_utils.c ****   {
  65:Lib/Camera_Middleware/cmw_utils.c ****     CMW_UTILS_get_crop_config_from_manual(&p_conf->manual_conf, crop);
 163              		.loc 1 65 5
 164 00ec 7B68     		ldr	r3, [r7, #4]
ARM GAS  /tmp/ccDLW83P.s 			page 5


 165 00ee 1C33     		adds	r3, r3, #28
 166 00f0 3968     		ldr	r1, [r7]
 167 00f2 1846     		mov	r0, r3
 168 00f4 FFF7FEFF 		bl	CMW_UTILS_get_crop_config_from_manual
  66:Lib/Camera_Middleware/cmw_utils.c ****     ratio_width = (float)crop->HSize / p_conf->output_width;
 169              		.loc 1 66 30
 170 00f8 3B68     		ldr	r3, [r7]
 171 00fa DB68     		ldr	r3, [r3, #12]
 172              		.loc 1 66 19
 173 00fc 07EE903A 		vmov	s15, r3	@ int
 174 0100 F8EE676A 		vcvt.f32.u32	s13, s15
 175              		.loc 1 66 46
 176 0104 7B68     		ldr	r3, [r7, #4]
 177 0106 1B68     		ldr	r3, [r3]
 178              		.loc 1 66 38
 179 0108 07EE903A 		vmov	s15, r3	@ int
 180 010c B8EE677A 		vcvt.f32.u32	s14, s15
 181              		.loc 1 66 17
 182 0110 C6EE877A 		vdiv.f32	s15, s13, s14
 183 0114 C7ED047A 		vstr.32	s15, [r7, #16]
  67:Lib/Camera_Middleware/cmw_utils.c ****     ratio_height = (float)crop->VSize / p_conf->output_height;
 184              		.loc 1 67 31
 185 0118 3B68     		ldr	r3, [r7]
 186 011a 9B68     		ldr	r3, [r3, #8]
 187              		.loc 1 67 20
 188 011c 07EE903A 		vmov	s15, r3	@ int
 189 0120 F8EE676A 		vcvt.f32.u32	s13, s15
 190              		.loc 1 67 47
 191 0124 7B68     		ldr	r3, [r7, #4]
 192 0126 5B68     		ldr	r3, [r3, #4]
 193              		.loc 1 67 39
 194 0128 07EE903A 		vmov	s15, r3	@ int
 195 012c B8EE677A 		vcvt.f32.u32	s14, s15
 196              		.loc 1 67 18
 197 0130 C6EE877A 		vdiv.f32	s15, s13, s14
 198 0134 C7ED057A 		vstr.32	s15, [r7, #20]
 199              	.L3:
  68:Lib/Camera_Middleware/cmw_utils.c ****   }
  69:Lib/Camera_Middleware/cmw_utils.c **** 
  70:Lib/Camera_Middleware/cmw_utils.c ****   CMW_UTILS_get_scale_configs(p_conf, ratio_width, ratio_height, dec, down);
 200              		.loc 1 70 3
 201 0138 7A6A     		ldr	r2, [r7, #36]
 202 013a 396A     		ldr	r1, [r7, #32]
 203 013c D7ED050A 		vldr.32	s1, [r7, #20]
 204 0140 97ED040A 		vldr.32	s0, [r7, #16]
 205 0144 7868     		ldr	r0, [r7, #4]
 206 0146 FFF7FEFF 		bl	CMW_UTILS_get_scale_configs
  71:Lib/Camera_Middleware/cmw_utils.c **** }
 207              		.loc 1 71 1
 208 014a 00BF     		nop
 209 014c 1837     		adds	r7, r7, #24
 210              		.cfi_def_cfa_offset 8
 211 014e BD46     		mov	sp, r7
 212              		.cfi_def_cfa_register 13
 213              		@ sp needed
 214 0150 80BD     		pop	{r7, pc}
 215              		.cfi_endproc
ARM GAS  /tmp/ccDLW83P.s 			page 6


 216              	.LFE838:
 218              		.section	.rodata
 219              		.align	2
 220              	.LC0:
 221 0000 72617469 		.ascii	"ratio >= 1\000"
 221      6F203E3D 
 221      203100
 222 000b 00       		.align	2
 223              	.LC1:
 224 000c 4C69622F 		.ascii	"Lib/Camera_Middleware/cmw_utils.c\000"
 224      43616D65 
 224      72615F4D 
 224      6964646C 
 224      65776172 
 225 002e 0000     		.align	2
 226              	.LC2:
 227 0030 72617469 		.ascii	"ratio < 64\000"
 227      6F203C20 
 227      363400
 228              		.section	.text.CMW_UTILS_get_crop_config,"ax",%progbits
 229              		.align	1
 230              		.syntax unified
 231              		.thumb
 232              		.thumb_func
 234              	CMW_UTILS_get_crop_config:
 235              	.LFB839:
  72:Lib/Camera_Middleware/cmw_utils.c **** 
  73:Lib/Camera_Middleware/cmw_utils.c **** static void CMW_UTILS_get_crop_config(uint32_t cam_width, uint32_t cam_height, uint32_t pipe_width,
  74:Lib/Camera_Middleware/cmw_utils.c **** {
 236              		.loc 1 74 1
 237              		.cfi_startproc
 238              		@ args = 4, pretend = 0, frame = 32
 239              		@ frame_needed = 1, uses_anonymous_args = 0
 240 0000 80B5     		push	{r7, lr}
 241              		.cfi_def_cfa_offset 8
 242              		.cfi_offset 7, -8
 243              		.cfi_offset 14, -4
 244 0002 88B0     		sub	sp, sp, #32
 245              		.cfi_def_cfa_offset 40
 246 0004 00AF     		add	r7, sp, #0
 247              		.cfi_def_cfa_register 7
 248 0006 F860     		str	r0, [r7, #12]
 249 0008 B960     		str	r1, [r7, #8]
 250 000a 7A60     		str	r2, [r7, #4]
 251 000c 3B60     		str	r3, [r7]
  75:Lib/Camera_Middleware/cmw_utils.c ****   const float ratio_width = (float)cam_width / pipe_width ;
 252              		.loc 1 75 29
 253 000e FB68     		ldr	r3, [r7, #12]
 254 0010 07EE903A 		vmov	s15, r3	@ int
 255 0014 F8EE676A 		vcvt.f32.u32	s13, s15
 256              		.loc 1 75 46
 257 0018 7B68     		ldr	r3, [r7, #4]
 258 001a 07EE903A 		vmov	s15, r3	@ int
 259 001e B8EE677A 		vcvt.f32.u32	s14, s15
 260              		.loc 1 75 15
 261 0022 C6EE877A 		vdiv.f32	s15, s13, s14
 262 0026 C7ED077A 		vstr.32	s15, [r7, #28]
ARM GAS  /tmp/ccDLW83P.s 			page 7


  76:Lib/Camera_Middleware/cmw_utils.c ****   const float ratio_height = (float)cam_height / pipe_height;
 263              		.loc 1 76 30
 264 002a BB68     		ldr	r3, [r7, #8]
 265 002c 07EE903A 		vmov	s15, r3	@ int
 266 0030 F8EE676A 		vcvt.f32.u32	s13, s15
 267              		.loc 1 76 48
 268 0034 3B68     		ldr	r3, [r7]
 269 0036 07EE903A 		vmov	s15, r3	@ int
 270 003a B8EE677A 		vcvt.f32.u32	s14, s15
 271              		.loc 1 76 15
 272 003e C6EE877A 		vdiv.f32	s15, s13, s14
 273 0042 C7ED067A 		vstr.32	s15, [r7, #24]
  77:Lib/Camera_Middleware/cmw_utils.c ****   const float ratio = MIN(ratio_width, ratio_height);
 274              		.loc 1 77 23
 275 0046 97ED077A 		vldr.32	s14, [r7, #28]
 276 004a D7ED067A 		vldr.32	s15, [r7, #24]
 277 004e B4EEE77A 		vcmpe.f32	s14, s15
 278 0052 F1EE10FA 		vmrs	APSR_nzcv, FPSCR
 279 0056 01D5     		bpl	.L21
 280              		.loc 1 77 23 is_stmt 0 discriminator 1
 281 0058 FB69     		ldr	r3, [r7, #28]	@ float
 282 005a 00E0     		b	.L9
 283              	.L21:
 284              		.loc 1 77 23 discriminator 2
 285 005c BB69     		ldr	r3, [r7, #24]	@ float
 286              	.L9:
 287              		.loc 1 77 15 is_stmt 1 discriminator 4
 288 005e 7B61     		str	r3, [r7, #20]	@ float
  78:Lib/Camera_Middleware/cmw_utils.c **** 
  79:Lib/Camera_Middleware/cmw_utils.c ****   assert(ratio >= 1);
 289              		.loc 1 79 3
 290 0060 D7ED057A 		vldr.32	s15, [r7, #20]
 291 0064 B7EE007A 		vmov.f32	s14, #1.0e+0
 292 0068 F4EEC77A 		vcmpe.f32	s15, s14
 293 006c F1EE10FA 		vmrs	APSR_nzcv, FPSCR
 294 0070 05DA     		bge	.L10
 295              		.loc 1 79 3 is_stmt 0 discriminator 1
 296 0072 3F4B     		ldr	r3, .L24
 297 0074 3F4A     		ldr	r2, .L24+4
 298 0076 4F21     		movs	r1, #79
 299 0078 3F48     		ldr	r0, .L24+8
 300 007a FFF7FEFF 		bl	__assert_func
 301              	.L10:
  80:Lib/Camera_Middleware/cmw_utils.c ****   assert(ratio < 64);
 302              		.loc 1 80 3 is_stmt 1
 303 007e D7ED057A 		vldr.32	s15, [r7, #20]
 304 0082 9FED3E7A 		vldr.32	s14, .L24+12
 305 0086 F4EEC77A 		vcmpe.f32	s15, s14
 306 008a F1EE10FA 		vmrs	APSR_nzcv, FPSCR
 307 008e 05D4     		bmi	.L11
 308              		.loc 1 80 3 is_stmt 0 discriminator 1
 309 0090 3B4B     		ldr	r3, .L24+16
 310 0092 384A     		ldr	r2, .L24+4
 311 0094 5021     		movs	r1, #80
 312 0096 3848     		ldr	r0, .L24+8
 313 0098 FFF7FEFF 		bl	__assert_func
 314              	.L11:
ARM GAS  /tmp/ccDLW83P.s 			page 8


  81:Lib/Camera_Middleware/cmw_utils.c **** 
  82:Lib/Camera_Middleware/cmw_utils.c ****   crop->HSize = (uint32_t) MIN(pipe_width * ratio, cam_width);
 315              		.loc 1 82 28 is_stmt 1
 316 009c 7B68     		ldr	r3, [r7, #4]
 317 009e 07EE903A 		vmov	s15, r3	@ int
 318 00a2 B8EE677A 		vcvt.f32.u32	s14, s15
 319 00a6 D7ED057A 		vldr.32	s15, [r7, #20]
 320 00aa 27EE277A 		vmul.f32	s14, s14, s15
 321 00ae FB68     		ldr	r3, [r7, #12]
 322 00b0 07EE903A 		vmov	s15, r3	@ int
 323 00b4 F8EE677A 		vcvt.f32.u32	s15, s15
 324              		.loc 1 82 17
 325 00b8 B4EEE77A 		vcmpe.f32	s14, s15
 326 00bc F1EE10FA 		vmrs	APSR_nzcv, FPSCR
 327 00c0 0BD5     		bpl	.L22
 328              		.loc 1 82 28 discriminator 1
 329 00c2 7B68     		ldr	r3, [r7, #4]
 330 00c4 07EE903A 		vmov	s15, r3	@ int
 331 00c8 B8EE677A 		vcvt.f32.u32	s14, s15
 332 00cc D7ED057A 		vldr.32	s15, [r7, #20]
 333 00d0 67EE277A 		vmul.f32	s15, s14, s15
 334              		.loc 1 82 17 discriminator 1
 335 00d4 FCEEE77A 		vcvt.u32.f32	s15, s15
 336 00d8 06E0     		b	.L14
 337              	.L22:
 338              		.loc 1 82 17 is_stmt 0 discriminator 2
 339 00da FB68     		ldr	r3, [r7, #12]
 340 00dc 07EE903A 		vmov	s15, r3	@ int
 341 00e0 F8EE677A 		vcvt.f32.u32	s15, s15
 342 00e4 FCEEE77A 		vcvt.u32.f32	s15, s15
 343              	.L14:
 344              		.loc 1 82 15 is_stmt 1 discriminator 4
 345 00e8 BB6A     		ldr	r3, [r7, #40]
 346 00ea C3ED037A 		vstr.32	s15, [r3, #12]	@ int
  83:Lib/Camera_Middleware/cmw_utils.c ****   crop->VSize = (uint32_t) MIN(pipe_height * ratio, cam_height);
 347              		.loc 1 83 28
 348 00ee 3B68     		ldr	r3, [r7]
 349 00f0 07EE903A 		vmov	s15, r3	@ int
 350 00f4 B8EE677A 		vcvt.f32.u32	s14, s15
 351 00f8 D7ED057A 		vldr.32	s15, [r7, #20]
 352 00fc 27EE277A 		vmul.f32	s14, s14, s15
 353 0100 BB68     		ldr	r3, [r7, #8]
 354 0102 07EE903A 		vmov	s15, r3	@ int
 355 0106 F8EE677A 		vcvt.f32.u32	s15, s15
 356              		.loc 1 83 17
 357 010a B4EEE77A 		vcmpe.f32	s14, s15
 358 010e F1EE10FA 		vmrs	APSR_nzcv, FPSCR
 359 0112 0BD5     		bpl	.L23
 360              		.loc 1 83 28 discriminator 1
 361 0114 3B68     		ldr	r3, [r7]
 362 0116 07EE903A 		vmov	s15, r3	@ int
 363 011a B8EE677A 		vcvt.f32.u32	s14, s15
 364 011e D7ED057A 		vldr.32	s15, [r7, #20]
 365 0122 67EE277A 		vmul.f32	s15, s14, s15
 366              		.loc 1 83 17 discriminator 1
 367 0126 FCEEE77A 		vcvt.u32.f32	s15, s15
 368 012a 06E0     		b	.L17
ARM GAS  /tmp/ccDLW83P.s 			page 9


 369              	.L23:
 370              		.loc 1 83 17 is_stmt 0 discriminator 2
 371 012c BB68     		ldr	r3, [r7, #8]
 372 012e 07EE903A 		vmov	s15, r3	@ int
 373 0132 F8EE677A 		vcvt.f32.u32	s15, s15
 374 0136 FCEEE77A 		vcvt.u32.f32	s15, s15
 375              	.L17:
 376              		.loc 1 83 15 is_stmt 1 discriminator 4
 377 013a BB6A     		ldr	r3, [r7, #40]
 378 013c C3ED027A 		vstr.32	s15, [r3, #8]	@ int
  84:Lib/Camera_Middleware/cmw_utils.c ****   crop->HStart = (cam_width - crop->HSize + 1) / 2;
 379              		.loc 1 84 35
 380 0140 BB6A     		ldr	r3, [r7, #40]
 381 0142 DB68     		ldr	r3, [r3, #12]
 382              		.loc 1 84 29
 383 0144 FA68     		ldr	r2, [r7, #12]
 384 0146 D31A     		subs	r3, r2, r3
 385              		.loc 1 84 43
 386 0148 0133     		adds	r3, r3, #1
 387              		.loc 1 84 48
 388 014a 5A08     		lsrs	r2, r3, #1
 389              		.loc 1 84 16
 390 014c BB6A     		ldr	r3, [r7, #40]
 391 014e 5A60     		str	r2, [r3, #4]
  85:Lib/Camera_Middleware/cmw_utils.c ****   crop->VStart = (cam_height - crop->VSize + 1) / 2;
 392              		.loc 1 85 36
 393 0150 BB6A     		ldr	r3, [r7, #40]
 394 0152 9B68     		ldr	r3, [r3, #8]
 395              		.loc 1 85 30
 396 0154 BA68     		ldr	r2, [r7, #8]
 397 0156 D31A     		subs	r3, r2, r3
 398              		.loc 1 85 44
 399 0158 0133     		adds	r3, r3, #1
 400              		.loc 1 85 49
 401 015a 5A08     		lsrs	r2, r3, #1
 402              		.loc 1 85 16
 403 015c BB6A     		ldr	r3, [r7, #40]
 404 015e 1A60     		str	r2, [r3]
  86:Lib/Camera_Middleware/cmw_utils.c ****   crop->PipeArea = DCMIPP_POSITIVE_AREA;
 405              		.loc 1 86 18
 406 0160 BB6A     		ldr	r3, [r7, #40]
 407 0162 0022     		movs	r2, #0
 408 0164 1A61     		str	r2, [r3, #16]
  87:Lib/Camera_Middleware/cmw_utils.c **** }
 409              		.loc 1 87 1
 410 0166 00BF     		nop
 411 0168 2037     		adds	r7, r7, #32
 412              		.cfi_def_cfa_offset 8
 413 016a BD46     		mov	sp, r7
 414              		.cfi_def_cfa_register 13
 415              		@ sp needed
 416 016c 80BD     		pop	{r7, pc}
 417              	.L25:
 418 016e 00BF     		.align	2
 419              	.L24:
 420 0170 00000000 		.word	.LC0
 421 0174 00000000 		.word	__func__.1
ARM GAS  /tmp/ccDLW83P.s 			page 10


 422 0178 0C000000 		.word	.LC1
 423 017c 00008042 		.word	1115684864
 424 0180 30000000 		.word	.LC2
 425              		.cfi_endproc
 426              	.LFE839:
 428              		.section	.text.CMW_UTILS_get_crop_config_from_manual,"ax",%progbits
 429              		.align	1
 430              		.syntax unified
 431              		.thumb
 432              		.thumb_func
 434              	CMW_UTILS_get_crop_config_from_manual:
 435              	.LFB840:
  88:Lib/Camera_Middleware/cmw_utils.c **** 
  89:Lib/Camera_Middleware/cmw_utils.c **** static void CMW_UTILS_get_crop_config_from_manual(CMW_Manual_roi_area_t *roi, DCMIPP_CropConfTypeDe
  90:Lib/Camera_Middleware/cmw_utils.c **** {
 436              		.loc 1 90 1
 437              		.cfi_startproc
 438              		@ args = 0, pretend = 0, frame = 8
 439              		@ frame_needed = 1, uses_anonymous_args = 0
 440              		@ link register save eliminated.
 441 0000 80B4     		push	{r7}
 442              		.cfi_def_cfa_offset 4
 443              		.cfi_offset 7, -4
 444 0002 83B0     		sub	sp, sp, #12
 445              		.cfi_def_cfa_offset 16
 446 0004 00AF     		add	r7, sp, #0
 447              		.cfi_def_cfa_register 7
 448 0006 7860     		str	r0, [r7, #4]
 449 0008 3960     		str	r1, [r7]
  91:Lib/Camera_Middleware/cmw_utils.c ****   crop->HSize = roi->width;
 450              		.loc 1 91 20
 451 000a 7B68     		ldr	r3, [r7, #4]
 452 000c 1A68     		ldr	r2, [r3]
 453              		.loc 1 91 15
 454 000e 3B68     		ldr	r3, [r7]
 455 0010 DA60     		str	r2, [r3, #12]
  92:Lib/Camera_Middleware/cmw_utils.c ****   crop->VSize = roi->height;
 456              		.loc 1 92 20
 457 0012 7B68     		ldr	r3, [r7, #4]
 458 0014 5A68     		ldr	r2, [r3, #4]
 459              		.loc 1 92 15
 460 0016 3B68     		ldr	r3, [r7]
 461 0018 9A60     		str	r2, [r3, #8]
  93:Lib/Camera_Middleware/cmw_utils.c ****   crop->HStart = roi->offset_x;
 462              		.loc 1 93 21
 463 001a 7B68     		ldr	r3, [r7, #4]
 464 001c 9A68     		ldr	r2, [r3, #8]
 465              		.loc 1 93 16
 466 001e 3B68     		ldr	r3, [r7]
 467 0020 5A60     		str	r2, [r3, #4]
  94:Lib/Camera_Middleware/cmw_utils.c ****   crop->VStart = roi->offset_y;
 468              		.loc 1 94 21
 469 0022 7B68     		ldr	r3, [r7, #4]
 470 0024 DA68     		ldr	r2, [r3, #12]
 471              		.loc 1 94 16
 472 0026 3B68     		ldr	r3, [r7]
 473 0028 1A60     		str	r2, [r3]
ARM GAS  /tmp/ccDLW83P.s 			page 11


  95:Lib/Camera_Middleware/cmw_utils.c **** }
 474              		.loc 1 95 1
 475 002a 00BF     		nop
 476 002c 0C37     		adds	r7, r7, #12
 477              		.cfi_def_cfa_offset 4
 478 002e BD46     		mov	sp, r7
 479              		.cfi_def_cfa_register 13
 480              		@ sp needed
 481 0030 5DF8047B 		ldr	r7, [sp], #4
 482              		.cfi_restore 7
 483              		.cfi_def_cfa_offset 0
 484 0034 7047     		bx	lr
 485              		.cfi_endproc
 486              	.LFE840:
 488              		.section	.text.CMW_UTILS_get_down_config,"ax",%progbits
 489              		.align	1
 490              		.syntax unified
 491              		.thumb
 492              		.thumb_func
 494              	CMW_UTILS_get_down_config:
 495              	.LFB841:
  96:Lib/Camera_Middleware/cmw_utils.c **** 
  97:Lib/Camera_Middleware/cmw_utils.c **** static void CMW_UTILS_get_down_config(float ratio_width, float ratio_height, int width, int height,
  98:Lib/Camera_Middleware/cmw_utils.c **** {
 496              		.loc 1 98 1
 497              		.cfi_startproc
 498              		@ args = 0, pretend = 0, frame = 24
 499              		@ frame_needed = 1, uses_anonymous_args = 0
 500              		@ link register save eliminated.
 501 0000 80B4     		push	{r7}
 502              		.cfi_def_cfa_offset 4
 503              		.cfi_offset 7, -4
 504 0002 87B0     		sub	sp, sp, #28
 505              		.cfi_def_cfa_offset 32
 506 0004 00AF     		add	r7, sp, #0
 507              		.cfi_def_cfa_register 7
 508 0006 87ED050A 		vstr.32	s0, [r7, #20]
 509 000a C7ED040A 		vstr.32	s1, [r7, #16]
 510 000e F860     		str	r0, [r7, #12]
 511 0010 B960     		str	r1, [r7, #8]
 512 0012 7A60     		str	r2, [r7, #4]
  99:Lib/Camera_Middleware/cmw_utils.c ****   down->HRatio = (uint32_t) (8192 * ratio_width);
 513              		.loc 1 99 35
 514 0014 D7ED057A 		vldr.32	s15, [r7, #20]
 515 0018 9FED177A 		vldr.32	s14, .L28
 516 001c 67EE877A 		vmul.f32	s15, s15, s14
 517              		.loc 1 99 18
 518 0020 FCEEE77A 		vcvt.u32.f32	s15, s15
 519 0024 17EE902A 		vmov	r2, s15	@ int
 520              		.loc 1 99 16
 521 0028 7B68     		ldr	r3, [r7, #4]
 522 002a DA60     		str	r2, [r3, #12]
 100:Lib/Camera_Middleware/cmw_utils.c ****   down->VRatio = (uint32_t) (8192 * ratio_height);
 523              		.loc 1 100 35
 524 002c D7ED047A 		vldr.32	s15, [r7, #16]
 525 0030 9FED117A 		vldr.32	s14, .L28
 526 0034 67EE877A 		vmul.f32	s15, s15, s14
ARM GAS  /tmp/ccDLW83P.s 			page 12


 527              		.loc 1 100 18
 528 0038 FCEEE77A 		vcvt.u32.f32	s15, s15
 529 003c 17EE902A 		vmov	r2, s15	@ int
 530              		.loc 1 100 16
 531 0040 7B68     		ldr	r3, [r7, #4]
 532 0042 9A60     		str	r2, [r3, #8]
 101:Lib/Camera_Middleware/cmw_utils.c ****   down->HDivFactor = (1024 * 8192 - 1) / down->HRatio;
 533              		.loc 1 101 46
 534 0044 7B68     		ldr	r3, [r7, #4]
 535 0046 DB68     		ldr	r3, [r3, #12]
 536              		.loc 1 101 40
 537 0048 0C4A     		ldr	r2, .L28+4
 538 004a B2FBF3F2 		udiv	r2, r2, r3
 539              		.loc 1 101 20
 540 004e 7B68     		ldr	r3, [r7, #4]
 541 0050 5A61     		str	r2, [r3, #20]
 102:Lib/Camera_Middleware/cmw_utils.c ****   down->VDivFactor = (1024 * 8192 - 1) / down->VRatio;
 542              		.loc 1 102 46
 543 0052 7B68     		ldr	r3, [r7, #4]
 544 0054 9B68     		ldr	r3, [r3, #8]
 545              		.loc 1 102 40
 546 0056 094A     		ldr	r2, .L28+4
 547 0058 B2FBF3F2 		udiv	r2, r2, r3
 548              		.loc 1 102 20
 549 005c 7B68     		ldr	r3, [r7, #4]
 550 005e 1A61     		str	r2, [r3, #16]
 103:Lib/Camera_Middleware/cmw_utils.c ****   down->HSize = width;
 551              		.loc 1 103 15
 552 0060 FA68     		ldr	r2, [r7, #12]
 553 0062 7B68     		ldr	r3, [r7, #4]
 554 0064 5A60     		str	r2, [r3, #4]
 104:Lib/Camera_Middleware/cmw_utils.c ****   down->VSize = height;
 555              		.loc 1 104 15
 556 0066 BA68     		ldr	r2, [r7, #8]
 557 0068 7B68     		ldr	r3, [r7, #4]
 558 006a 1A60     		str	r2, [r3]
 105:Lib/Camera_Middleware/cmw_utils.c **** }
 559              		.loc 1 105 1
 560 006c 00BF     		nop
 561 006e 1C37     		adds	r7, r7, #28
 562              		.cfi_def_cfa_offset 4
 563 0070 BD46     		mov	sp, r7
 564              		.cfi_def_cfa_register 13
 565              		@ sp needed
 566 0072 5DF8047B 		ldr	r7, [sp], #4
 567              		.cfi_restore 7
 568              		.cfi_def_cfa_offset 0
 569 0076 7047     		bx	lr
 570              	.L29:
 571              		.align	2
 572              	.L28:
 573 0078 00000046 		.word	1174405120
 574 007c FFFF7F00 		.word	8388607
 575              		.cfi_endproc
 576              	.LFE841:
 578              		.section	.rodata
 579 003b 00       		.align	2
ARM GAS  /tmp/ccDLW83P.s 			page 13


 580              	.LC3:
 581 003c 3000     		.ascii	"0\000"
 582              		.section	.text.CMW_UTILS_get_dec_ratio_from_decimal_ratio,"ax",%progbits
 583              		.align	1
 584              		.syntax unified
 585              		.thumb
 586              		.thumb_func
 588              	CMW_UTILS_get_dec_ratio_from_decimal_ratio:
 589              	.LFB842:
 106:Lib/Camera_Middleware/cmw_utils.c **** 
 107:Lib/Camera_Middleware/cmw_utils.c **** static uint32_t CMW_UTILS_get_dec_ratio_from_decimal_ratio(int dec_ratio, int is_vertical)
 108:Lib/Camera_Middleware/cmw_utils.c **** {
 590              		.loc 1 108 1
 591              		.cfi_startproc
 592              		@ args = 0, pretend = 0, frame = 8
 593              		@ frame_needed = 1, uses_anonymous_args = 0
 594 0000 80B5     		push	{r7, lr}
 595              		.cfi_def_cfa_offset 8
 596              		.cfi_offset 7, -8
 597              		.cfi_offset 14, -4
 598 0002 82B0     		sub	sp, sp, #8
 599              		.cfi_def_cfa_offset 16
 600 0004 00AF     		add	r7, sp, #0
 601              		.cfi_def_cfa_register 7
 602 0006 7860     		str	r0, [r7, #4]
 603 0008 3960     		str	r1, [r7]
 109:Lib/Camera_Middleware/cmw_utils.c ****   switch (dec_ratio) {
 604              		.loc 1 109 3
 605 000a 7B68     		ldr	r3, [r7, #4]
 606 000c 013B     		subs	r3, r3, #1
 607 000e 072B     		cmp	r3, #7
 608 0010 29D8     		bhi	.L31
 609 0012 01A2     		adr	r2, .L33
 610 0014 52F823F0 		ldr	pc, [r2, r3, lsl #2]
 611              		.p2align 2
 612              	.L33:
 613 0018 39000000 		.word	.L36+1
 614 001c 3D000000 		.word	.L35+1
 615 0020 67000000 		.word	.L31+1
 616 0024 4B000000 		.word	.L34+1
 617 0028 67000000 		.word	.L31+1
 618 002c 67000000 		.word	.L31+1
 619 0030 67000000 		.word	.L31+1
 620 0034 59000000 		.word	.L32+1
 621              		.p2align 1
 622              	.L36:
 110:Lib/Camera_Middleware/cmw_utils.c ****   case 1:
 111:Lib/Camera_Middleware/cmw_utils.c ****     return is_vertical ? DCMIPP_VDEC_ALL : DCMIPP_HDEC_ALL;
 623              		.loc 1 111 42
 624 0038 0023     		movs	r3, #0
 625 003a 1AE0     		b	.L37
 626              	.L35:
 112:Lib/Camera_Middleware/cmw_utils.c ****   case 2:
 113:Lib/Camera_Middleware/cmw_utils.c ****     return is_vertical ? DCMIPP_VDEC_1_OUT_2 : DCMIPP_HDEC_1_OUT_2;
 627              		.loc 1 113 46
 628 003c 3B68     		ldr	r3, [r7]
 629 003e 002B     		cmp	r3, #0
ARM GAS  /tmp/ccDLW83P.s 			page 14


 630 0040 01D0     		beq	.L38
 631              		.loc 1 113 46 is_stmt 0 discriminator 1
 632 0042 0823     		movs	r3, #8
 633              		.loc 1 113 46
 634 0044 15E0     		b	.L37
 635              	.L38:
 636              		.loc 1 113 46 discriminator 2
 637 0046 0223     		movs	r3, #2
 638              		.loc 1 113 46
 639 0048 13E0     		b	.L37
 640              	.L34:
 114:Lib/Camera_Middleware/cmw_utils.c ****   case 4:
 115:Lib/Camera_Middleware/cmw_utils.c ****     return is_vertical ? DCMIPP_VDEC_1_OUT_4 : DCMIPP_HDEC_1_OUT_4;
 641              		.loc 1 115 46 is_stmt 1
 642 004a 3B68     		ldr	r3, [r7]
 643 004c 002B     		cmp	r3, #0
 644 004e 01D0     		beq	.L40
 645              		.loc 1 115 46 is_stmt 0 discriminator 1
 646 0050 1023     		movs	r3, #16
 647              		.loc 1 115 46
 648 0052 0EE0     		b	.L37
 649              	.L40:
 650              		.loc 1 115 46 discriminator 2
 651 0054 0423     		movs	r3, #4
 652              		.loc 1 115 46
 653 0056 0CE0     		b	.L37
 654              	.L32:
 116:Lib/Camera_Middleware/cmw_utils.c ****   case 8:
 117:Lib/Camera_Middleware/cmw_utils.c ****     return is_vertical ? DCMIPP_VDEC_1_OUT_8 : DCMIPP_HDEC_1_OUT_8;
 655              		.loc 1 117 46 is_stmt 1
 656 0058 3B68     		ldr	r3, [r7]
 657 005a 002B     		cmp	r3, #0
 658 005c 01D0     		beq	.L42
 659              		.loc 1 117 46 is_stmt 0 discriminator 1
 660 005e 1823     		movs	r3, #24
 661              		.loc 1 117 46
 662 0060 07E0     		b	.L37
 663              	.L42:
 664              		.loc 1 117 46 discriminator 2
 665 0062 0623     		movs	r3, #6
 666              		.loc 1 117 46
 667 0064 05E0     		b	.L37
 668              	.L31:
 118:Lib/Camera_Middleware/cmw_utils.c ****   default:
 119:Lib/Camera_Middleware/cmw_utils.c ****     assert(0);
 669              		.loc 1 119 5 is_stmt 1
 670 0066 054B     		ldr	r3, .L44
 671 0068 054A     		ldr	r2, .L44+4
 672 006a 7721     		movs	r1, #119
 673 006c 0548     		ldr	r0, .L44+8
 674 006e FFF7FEFF 		bl	__assert_func
 675              	.L37:
 120:Lib/Camera_Middleware/cmw_utils.c ****   }
 121:Lib/Camera_Middleware/cmw_utils.c **** 
 122:Lib/Camera_Middleware/cmw_utils.c ****   return is_vertical ? DCMIPP_VDEC_ALL : DCMIPP_HDEC_ALL;
 123:Lib/Camera_Middleware/cmw_utils.c **** }
 676              		.loc 1 123 1
ARM GAS  /tmp/ccDLW83P.s 			page 15


 677 0072 1846     		mov	r0, r3
 678 0074 0837     		adds	r7, r7, #8
 679              		.cfi_def_cfa_offset 8
 680 0076 BD46     		mov	sp, r7
 681              		.cfi_def_cfa_register 13
 682              		@ sp needed
 683 0078 80BD     		pop	{r7, pc}
 684              	.L45:
 685 007a 00BF     		.align	2
 686              	.L44:
 687 007c 3C000000 		.word	.LC3
 688 0080 00000000 		.word	__func__.0
 689 0084 0C000000 		.word	.LC1
 690              		.cfi_endproc
 691              	.LFE842:
 693              		.section	.text.CMW_UTILS_get_dec_ratio_and_update,"ax",%progbits
 694              		.align	1
 695              		.syntax unified
 696              		.thumb
 697              		.thumb_func
 699              	CMW_UTILS_get_dec_ratio_and_update:
 700              	.LFB843:
 124:Lib/Camera_Middleware/cmw_utils.c **** 
 125:Lib/Camera_Middleware/cmw_utils.c **** static uint32_t CMW_UTILS_get_dec_ratio_and_update(float *ratio, int is_vertical)
 126:Lib/Camera_Middleware/cmw_utils.c **** {
 701              		.loc 1 126 1
 702              		.cfi_startproc
 703              		@ args = 0, pretend = 0, frame = 16
 704              		@ frame_needed = 1, uses_anonymous_args = 0
 705 0000 80B5     		push	{r7, lr}
 706              		.cfi_def_cfa_offset 8
 707              		.cfi_offset 7, -8
 708              		.cfi_offset 14, -4
 709 0002 84B0     		sub	sp, sp, #16
 710              		.cfi_def_cfa_offset 24
 711 0004 00AF     		add	r7, sp, #0
 712              		.cfi_def_cfa_register 7
 713 0006 7860     		str	r0, [r7, #4]
 714 0008 3960     		str	r1, [r7]
 127:Lib/Camera_Middleware/cmw_utils.c ****   int dec_ratio = 1;
 715              		.loc 1 127 7
 716 000a 0123     		movs	r3, #1
 717 000c FB60     		str	r3, [r7, #12]
 128:Lib/Camera_Middleware/cmw_utils.c **** 
 129:Lib/Camera_Middleware/cmw_utils.c ****   while (*ratio >= 8) {
 718              		.loc 1 129 9
 719 000e 0CE0     		b	.L47
 720              	.L48:
 130:Lib/Camera_Middleware/cmw_utils.c ****     dec_ratio *= 2;
 721              		.loc 1 130 15
 722 0010 FB68     		ldr	r3, [r7, #12]
 723 0012 5B00     		lsls	r3, r3, #1
 724 0014 FB60     		str	r3, [r7, #12]
 131:Lib/Camera_Middleware/cmw_utils.c ****     *ratio /= 2;
 725              		.loc 1 131 5
 726 0016 7B68     		ldr	r3, [r7, #4]
 727 0018 93ED007A 		vldr.32	s14, [r3]
ARM GAS  /tmp/ccDLW83P.s 			page 16


 728              		.loc 1 131 12
 729 001c F0EE006A 		vmov.f32	s13, #2.0e+0
 730 0020 C7EE267A 		vdiv.f32	s15, s14, s13
 731 0024 7B68     		ldr	r3, [r7, #4]
 732 0026 C3ED007A 		vstr.32	s15, [r3]
 733              	.L47:
 129:Lib/Camera_Middleware/cmw_utils.c ****     dec_ratio *= 2;
 734              		.loc 1 129 10
 735 002a 7B68     		ldr	r3, [r7, #4]
 736 002c D3ED007A 		vldr.32	s15, [r3]
 129:Lib/Camera_Middleware/cmw_utils.c ****     dec_ratio *= 2;
 737              		.loc 1 129 17
 738 0030 B2EE007A 		vmov.f32	s14, #8.0e+0
 739 0034 F4EEC77A 		vcmpe.f32	s15, s14
 740 0038 F1EE10FA 		vmrs	APSR_nzcv, FPSCR
 741 003c E8DA     		bge	.L48
 132:Lib/Camera_Middleware/cmw_utils.c ****   }
 133:Lib/Camera_Middleware/cmw_utils.c **** 
 134:Lib/Camera_Middleware/cmw_utils.c ****   return CMW_UTILS_get_dec_ratio_from_decimal_ratio(dec_ratio, is_vertical);
 742              		.loc 1 134 10
 743 003e 3968     		ldr	r1, [r7]
 744 0040 F868     		ldr	r0, [r7, #12]
 745 0042 FFF7FEFF 		bl	CMW_UTILS_get_dec_ratio_from_decimal_ratio
 746 0046 0346     		mov	r3, r0
 135:Lib/Camera_Middleware/cmw_utils.c **** }
 747              		.loc 1 135 1
 748 0048 1846     		mov	r0, r3
 749 004a 1037     		adds	r7, r7, #16
 750              		.cfi_def_cfa_offset 8
 751 004c BD46     		mov	sp, r7
 752              		.cfi_def_cfa_register 13
 753              		@ sp needed
 754 004e 80BD     		pop	{r7, pc}
 755              		.cfi_endproc
 756              	.LFE843:
 758              		.section	.text.CMW_UTILS_get_scale_configs,"ax",%progbits
 759              		.align	1
 760              		.syntax unified
 761              		.thumb
 762              		.thumb_func
 764              	CMW_UTILS_get_scale_configs:
 765              	.LFB844:
 136:Lib/Camera_Middleware/cmw_utils.c **** 
 137:Lib/Camera_Middleware/cmw_utils.c **** static void CMW_UTILS_get_scale_configs(CMW_DCMIPP_Conf_t *p_conf, float ratio_width, float ratio_h
 138:Lib/Camera_Middleware/cmw_utils.c ****                                        DCMIPP_DecimationConfTypeDef *dec, DCMIPP_DownsizeTypeDef *d
 139:Lib/Camera_Middleware/cmw_utils.c **** {
 766              		.loc 1 139 1
 767              		.cfi_startproc
 768              		@ args = 0, pretend = 0, frame = 24
 769              		@ frame_needed = 1, uses_anonymous_args = 0
 770 0000 80B5     		push	{r7, lr}
 771              		.cfi_def_cfa_offset 8
 772              		.cfi_offset 7, -8
 773              		.cfi_offset 14, -4
 774 0002 86B0     		sub	sp, sp, #24
 775              		.cfi_def_cfa_offset 32
 776 0004 00AF     		add	r7, sp, #0
ARM GAS  /tmp/ccDLW83P.s 			page 17


 777              		.cfi_def_cfa_register 7
 778 0006 7861     		str	r0, [r7, #20]
 779 0008 87ED040A 		vstr.32	s0, [r7, #16]
 780 000c C7ED030A 		vstr.32	s1, [r7, #12]
 781 0010 B960     		str	r1, [r7, #8]
 782 0012 7A60     		str	r2, [r7, #4]
 140:Lib/Camera_Middleware/cmw_utils.c ****   dec->HRatio = CMW_UTILS_get_dec_ratio_and_update(&ratio_width, 0);
 783              		.loc 1 140 17
 784 0014 07F11003 		add	r3, r7, #16
 785 0018 0021     		movs	r1, #0
 786 001a 1846     		mov	r0, r3
 787 001c FFF7FEFF 		bl	CMW_UTILS_get_dec_ratio_and_update
 788 0020 0246     		mov	r2, r0
 789              		.loc 1 140 15 discriminator 1
 790 0022 BB68     		ldr	r3, [r7, #8]
 791 0024 5A60     		str	r2, [r3, #4]
 141:Lib/Camera_Middleware/cmw_utils.c ****   dec->VRatio = CMW_UTILS_get_dec_ratio_and_update(&ratio_height, 1);
 792              		.loc 1 141 17
 793 0026 07F10C03 		add	r3, r7, #12
 794 002a 0121     		movs	r1, #1
 795 002c 1846     		mov	r0, r3
 796 002e FFF7FEFF 		bl	CMW_UTILS_get_dec_ratio_and_update
 797 0032 0246     		mov	r2, r0
 798              		.loc 1 141 15 discriminator 1
 799 0034 BB68     		ldr	r3, [r7, #8]
 800 0036 1A60     		str	r2, [r3]
 142:Lib/Camera_Middleware/cmw_utils.c ****   CMW_UTILS_get_down_config(ratio_width, ratio_height, p_conf->output_width, p_conf->output_height,
 801              		.loc 1 142 3
 802 0038 D7ED047A 		vldr.32	s15, [r7, #16]
 803 003c 97ED037A 		vldr.32	s14, [r7, #12]
 804              		.loc 1 142 62
 805 0040 7B69     		ldr	r3, [r7, #20]
 806 0042 1B68     		ldr	r3, [r3]
 807              		.loc 1 142 3
 808 0044 1846     		mov	r0, r3
 809              		.loc 1 142 84
 810 0046 7B69     		ldr	r3, [r7, #20]
 811 0048 5B68     		ldr	r3, [r3, #4]
 812              		.loc 1 142 3
 813 004a 7A68     		ldr	r2, [r7, #4]
 814 004c 1946     		mov	r1, r3
 815 004e F0EE470A 		vmov.f32	s1, s14
 816 0052 B0EE670A 		vmov.f32	s0, s15
 817 0056 FFF7FEFF 		bl	CMW_UTILS_get_down_config
 143:Lib/Camera_Middleware/cmw_utils.c **** }
 818              		.loc 1 143 1
 819 005a 00BF     		nop
 820 005c 1837     		adds	r7, r7, #24
 821              		.cfi_def_cfa_offset 8
 822 005e BD46     		mov	sp, r7
 823              		.cfi_def_cfa_register 13
 824              		@ sp needed
 825 0060 80BD     		pop	{r7, pc}
 826              		.cfi_endproc
 827              	.LFE844:
 829              		.section	.rodata.__func__.1,"a"
 830              		.align	2
ARM GAS  /tmp/ccDLW83P.s 			page 18


 833              	__func__.1:
 834 0000 434D575F 		.ascii	"CMW_UTILS_get_crop_config\000"
 834      5554494C 
 834      535F6765 
 834      745F6372 
 834      6F705F63 
 835              		.section	.rodata.__func__.0,"a"
 836              		.align	2
 839              	__func__.0:
 840 0000 434D575F 		.ascii	"CMW_UTILS_get_dec_ratio_from_decimal_ratio\000"
 840      5554494C 
 840      535F6765 
 840      745F6465 
 840      635F7261 
 841              		.text
 842              	.Letext0:
 843              		.file 2 "/home/tanjiajun2002/renesas/rzv/e2studio_v2025-01_fsp_v3.1.0/toolchains/gcc_arm/arm-gnu-t
 844              		.file 3 "/home/tanjiajun2002/renesas/rzv/e2studio_v2025-01_fsp_v3.1.0/toolchains/gcc_arm/arm-gnu-t
 845              		.file 4 "STM32Cube_FW_N6/Drivers/STM32N6xx_HAL_Driver/Inc/stm32n6xx_hal_dcmipp.h"
 846              		.file 5 "Lib/Camera_Middleware/cmw_camera.h"
 847              		.file 6 "/home/tanjiajun2002/renesas/rzv/e2studio_v2025-01_fsp_v3.1.0/toolchains/gcc_arm/arm-gnu-t
ARM GAS  /tmp/ccDLW83P.s 			page 19

