ARM GAS  /tmp/cc4rvpEd.s 			page 1


   1              		.arch armv8.1-m.main
   2              		.fpu fpv5-d16
   3              		.arch_extension dsp
   4              		.arch_extension fp
   5              		.arch_extension fp.dp
   6              		.arch_extension mve
   7              		.arch_extension mve.fp
   8              		.eabi_attribute 5, "cortex-m55"
   9              		.eabi_attribute 28, 1
  10              		.eabi_attribute 20, 1
  11              		.eabi_attribute 21, 1
  12              		.eabi_attribute 23, 3
  13              		.eabi_attribute 24, 1
  14              		.eabi_attribute 25, 1
  15              		.eabi_attribute 26, 1
  16              		.eabi_attribute 30, 4
  17              		.eabi_attribute 34, 1
  18              		.eabi_attribute 38, 1
  19              		.eabi_attribute 18, 4
  20              		.file	"face_landmark.c"
  21              		.text
  22              	.Ltext0:
  23              		.cfi_sections	.debug_frame
  24              		.file 1 "Model/face_landmark.c"
  25              		.section	.text._ec_blob_cache_start_func_110,"ax",%progbits
  26              		.align	1
  27              		.syntax unified
  28              		.thumb
  29              		.thumb_func
  31              	_ec_blob_cache_start_func_110:
  32              	.LVL0:
  33              	.LFB4858:
   1:Model/face_landmark.c **** /* AUTOGENERATED DO NOT MODIFY */
   2:Model/face_landmark.c **** 
   3:Model/face_landmark.c **** /**
   4:Model/face_landmark.c ****   ******************************************************************************
   5:Model/face_landmark.c ****   * @file    face_landmark.c
   6:Model/face_landmark.c ****   * @brief   NN Code autogenerated DO NOT MODIFY IT
   7:Model/face_landmark.c ****   ******************************************************************************
   8:Model/face_landmark.c ****   * @attention
   9:Model/face_landmark.c ****   *
  10:Model/face_landmark.c ****   * Copyright (c) 2023 STMicroelectronics.
  11:Model/face_landmark.c ****   * All rights reserved.
  12:Model/face_landmark.c ****   *
  13:Model/face_landmark.c ****   * This software is licensed under terms that can be found in the LICENSE file
  14:Model/face_landmark.c ****   * in the root directory of this software component.
  15:Model/face_landmark.c ****   * If no LICENSE file comes with this software, it is provided AS-IS.
  16:Model/face_landmark.c ****   *
  17:Model/face_landmark.c ****   ******************************************************************************
  18:Model/face_landmark.c ****   */
  19:Model/face_landmark.c **** 
  20:Model/face_landmark.c **** /*
  21:Model/face_landmark.c ****  * GIT_SHA         "e619e8606099384540d70eeaaa8091752b1bebe9"
  22:Model/face_landmark.c ****  * GIT_BRANCH      "STAI-2.2"
  23:Model/face_landmark.c ****  * GIT_DESCRIPTION "atonn-v1.1.1-14-ge619e860"
  24:Model/face_landmark.c ****  *
  25:Model/face_landmark.c ****  * Command Line options:
ARM GAS  /tmp/cc4rvpEd.s 			page 2


  26:Model/face_landmark.c ****  * --load-mdesc-file = "/home/tanjiajun2002/ST/STEdgeAI/2.2/Utilities/configs/stm32n6"
  27:Model/face_landmark.c ****  * --load-mpool-file = "/home/tanjiajun2002/Work/local/st/hand-landmarks/my_models/my_mpools/face_l
  28:Model/face_landmark.c ****  * --cache-maintenance = true
  29:Model/face_landmark.c ****  * --enable-virtual-mem-pools = true
  30:Model/face_landmark.c ****  * --native-float = true
  31:Model/face_landmark.c ****  * --json-quant-file = "/home/tanjiajun2002/Work/local/st/hand-landmarks/my_models/st_ai_output/fac
  32:Model/face_landmark.c ****  * --optimization = 3
  33:Model/face_landmark.c ****  * --Os = true
  34:Model/face_landmark.c ****  * --Omax-ca-pipe = 4
  35:Model/face_landmark.c ****  * --Ocache-opt = true
  36:Model/face_landmark.c ****  * --enable-epoch-controller = true
  37:Model/face_landmark.c ****  * --output-info-file = "c_info"
  38:Model/face_landmark.c ****  * --Oalt-sched = true
  39:Model/face_landmark.c ****  * --onnx-input = "/home/tanjiajun2002/Work/local/st/hand-landmarks/my_models/st_ai_output/face_lan
  40:Model/face_landmark.c ****  * --out-dir-prefix = "/home/tanjiajun2002/Work/local/st/hand-landmarks/my_models/st_ai_ws/neural_a
  41:Model/face_landmark.c ****  * --network-name = "face_landmark"
  42:Model/face_landmark.c ****  * --all-buffers-info = true
  43:Model/face_landmark.c ****  * --mvei = true
  44:Model/face_landmark.c ****  */
  45:Model/face_landmark.c **** 
  46:Model/face_landmark.c **** #include "ll_aton_NN_interface.h"
  47:Model/face_landmark.c **** #include "ll_aton.h"
  48:Model/face_landmark.c **** #include "ll_aton_lib.h"
  49:Model/face_landmark.c **** #include "ll_aton_version.h"
  50:Model/face_landmark.c **** #include "ll_sw.h"
  51:Model/face_landmark.c **** #include "ecloader.h"
  52:Model/face_landmark.c **** 
  53:Model/face_landmark.c **** #if LL_ATON_VERSION_MAJOR != 1 || LL_ATON_VERSION_MINOR != 1 || LL_ATON_VERSION_MICRO != 1 || LL_AT
  54:Model/face_landmark.c **** #  error "Possible mismatch in ll_aton library used"
  55:Model/face_landmark.c **** #endif
  56:Model/face_landmark.c **** 
  57:Model/face_landmark.c **** #if !defined(LL_ATON_DBG_BUFFER_INFO_EXCLUDED)
  58:Model/face_landmark.c **** #  define LL_ATON_DBG_BUFFER_INFO_EXCLUDED 0
  59:Model/face_landmark.c **** #endif
  60:Model/face_landmark.c **** 
  61:Model/face_landmark.c **** /* global pool 4 is ? */
  62:Model/face_landmark.c **** /* index=4 file postfix=xSPI1 name=hyperRAM offset=0x90000000  absolute_mode size=16777208 READ_WRI
  63:Model/face_landmark.c **** /* global pool 5 is 628.06 KB */
  64:Model/face_landmark.c **** /* index=5 file postfix=xSPI2 name=octoFlash offset=0x70380000  absolute_mode size=2097144 READ_ONL
  65:Model/face_landmark.c **** /* global pool 8 is 720.00 KB */
  66:Model/face_landmark.c **** /* index=8 file postfix=AXISRAM3_AXISRAM4_AXISRAM5_AXISRAM6 name=npuRAM3_npuRAM4_npuRAM5_npuRAM6 of
  67:Model/face_landmark.c **** /* global pool 1 is ? */
  68:Model/face_landmark.c **** /* index=1 file postfix=AXISRAM5 name=npuRAM5 offset=0x342e0000  absolute_mode size=458752 READ_WRI
  69:Model/face_landmark.c **** /* global pool 2 is 272.00 KB */
  70:Model/face_landmark.c **** /* index=2 file postfix=AXISRAM4 name=npuRAM4 offset=0x34270000  absolute_mode size=458752 READ_WRI
  71:Model/face_landmark.c **** /* global pool 3 is 448.00 KB */
  72:Model/face_landmark.c **** /* index=3 file postfix=AXISRAM3 name=npuRAM3 offset=0x34200000  absolute_mode size=458752 READ_WRI
  73:Model/face_landmark.c **** /* global pool 0 is ? */
  74:Model/face_landmark.c **** /* index=0 file postfix=AXISRAM6 name=npuRAM6 offset=0x34350000  absolute_mode size=458744 READ_WRI
  75:Model/face_landmark.c **** 
  76:Model/face_landmark.c **** LL_ATON_User_IO_Result_t LL_ATON_Set_User_Input_Buffer_face_landmark(uint32_t num, void* buffer, ui
  77:Model/face_landmark.c **** {
  78:Model/face_landmark.c ****   { 
  79:Model/face_landmark.c ****     return LL_ATON_User_IO_WRONG_INDEX;
  80:Model/face_landmark.c ****   }
  81:Model/face_landmark.c **** }
  82:Model/face_landmark.c **** 
ARM GAS  /tmp/cc4rvpEd.s 			page 3


  83:Model/face_landmark.c **** void *LL_ATON_Get_User_Input_Buffer_face_landmark(uint32_t num)
  84:Model/face_landmark.c **** {
  85:Model/face_landmark.c ****   { 
  86:Model/face_landmark.c ****     return NULL;
  87:Model/face_landmark.c ****   }
  88:Model/face_landmark.c **** }
  89:Model/face_landmark.c **** 
  90:Model/face_landmark.c **** LL_ATON_User_IO_Result_t LL_ATON_Set_User_Output_Buffer_face_landmark(uint32_t num, void* buffer, u
  91:Model/face_landmark.c **** {
  92:Model/face_landmark.c ****   { 
  93:Model/face_landmark.c ****     return LL_ATON_User_IO_WRONG_INDEX;
  94:Model/face_landmark.c ****   }
  95:Model/face_landmark.c **** }
  96:Model/face_landmark.c **** 
  97:Model/face_landmark.c **** void *LL_ATON_Get_User_Output_Buffer_face_landmark(uint32_t num)
  98:Model/face_landmark.c **** {
  99:Model/face_landmark.c ****   { 
 100:Model/face_landmark.c ****     return NULL;
 101:Model/face_landmark.c ****   }
 102:Model/face_landmark.c **** }
 103:Model/face_landmark.c **** 
 104:Model/face_landmark.c **** #include "face_landmark_ecblobs.h"
 105:Model/face_landmark.c **** 
 106:Model/face_landmark.c **** /* scheduling epoch=0    nodes=239 ----------------------------------------------------------------
 107:Model/face_landmark.c **** 
 108:Model/face_landmark.c **** // Epoch Controller Blob (name='_ec_blob_face_landmark_1') micro instructions needed
 109:Model/face_landmark.c **** 
 110:Model/face_landmark.c **** 
 111:Model/face_landmark.c **** /* scheduling epoch=2    nodes=1   ----------------------------------------------------------------
 112:Model/face_landmark.c **** 
 113:Model/face_landmark.c **** static void LL_ATON_End_EpochBlock_2(const void *epoch_block)
 114:Model/face_landmark.c **** {
 115:Model/face_landmark.c ****   LL_ATON_LIB_UNUSED(epoch_block);
 116:Model/face_landmark.c **** 
 117:Model/face_landmark.c **** 
 118:Model/face_landmark.c **** /* Unit= 27 [PROCESSOR 0] */
 119:Model/face_landmark.c **** /* kind=QuantizeLinear node=Quantize_2 */
 120:Model/face_landmark.c ****   Quantizelinear_sw_info quantizelinear1_sw_info = {
 121:Model/face_landmark.c ****     /* "general.input" tensor-related info: */
 122:Model/face_landmark.c ****     .general.input.dim.tensor_b = 1,
 123:Model/face_landmark.c ****     .general.input.dim.tensor_h = 192,
 124:Model/face_landmark.c ****     .general.input.dim.tensor_w = 192,
 125:Model/face_landmark.c ****     .general.input.dim.tensor_c = 3,
 126:Model/face_landmark.c ****     .general.input.dim.num_elem = 110592,
 127:Model/face_landmark.c ****     .general.input.stride.b = 442368,
 128:Model/face_landmark.c ****     .general.input.stride.h = 2304,
 129:Model/face_landmark.c ****     .general.input.stride.w = 12,
 130:Model/face_landmark.c ****     .general.input.stride.c = 4,
 131:Model/face_landmark.c ****     .general.input.mem.start_offset = ((unsigned char *)(ATON_LIB_PHYSICAL_TO_VIRTUAL_ADDR(0x342000
 132:Model/face_landmark.c ****     .general.input.format.is_signed = 0,
 133:Model/face_landmark.c ****     /* "os" tensor-related info: */
 134:Model/face_landmark.c ****     .os.mem.start_offset = ((unsigned char *)(ATON_LIB_PHYSICAL_TO_VIRTUAL_ADDR(0x70380000UL + 6430
 135:Model/face_landmark.c ****     .os.format.is_signed = 1,
 136:Model/face_landmark.c ****     .os.dim.num_elem = 1,
 137:Model/face_landmark.c ****     /* "ozp" tensor-related info: */
 138:Model/face_landmark.c ****     .ozp.mem.start_offset = ((unsigned char *)(ATON_LIB_PHYSICAL_TO_VIRTUAL_ADDR(0x70380000UL + 643
 139:Model/face_landmark.c ****     .ozp.format.is_signed = 1,
ARM GAS  /tmp/cc4rvpEd.s 			page 4


 140:Model/face_landmark.c ****     .ozp.dim.num_elem = 1,
 141:Model/face_landmark.c ****     /* "general.output" tensor-related info: */
 142:Model/face_landmark.c ****     .general.output.dim.tensor_b = 1,
 143:Model/face_landmark.c ****     .general.output.dim.tensor_h = 192,
 144:Model/face_landmark.c ****     .general.output.dim.tensor_w = 192,
 145:Model/face_landmark.c ****     .general.output.dim.tensor_c = 3,
 146:Model/face_landmark.c ****     .general.output.dim.num_elem = 110592,
 147:Model/face_landmark.c ****     .general.output.stride.b = 110592,
 148:Model/face_landmark.c ****     .general.output.stride.h = 576,
 149:Model/face_landmark.c ****     .general.output.stride.w = 3,
 150:Model/face_landmark.c ****     .general.output.stride.c = 1,
 151:Model/face_landmark.c ****     .general.output.mem.start_offset = ((unsigned char *)(ATON_LIB_PHYSICAL_TO_VIRTUAL_ADDR(0x34200
 152:Model/face_landmark.c ****     .general.output.format.is_signed = 1,
 153:Model/face_landmark.c ****     .general.type = LL_SW_QUANTIZELINEAR,
 154:Model/face_landmark.c ****   };
 155:Model/face_landmark.c **** 
 156:Model/face_landmark.c ****   /* Low Level SW Layer function invocation. This will exploit EmbedNets libs) */
 157:Model/face_landmark.c ****   /* Node Quantize_2 mapped on EmbedNets (INTEGER) as QuantizeLinear | Category: Format-Converter *
 158:Model/face_landmark.c ****   ll_sw_forward_quantizelinear(&quantizelinear1_sw_info);
 159:Model/face_landmark.c ****   /* *** MCU cache clean (only) operation (SW, whole range) *** */
 160:Model/face_landmark.c ****   /*     memory pool: 8 */
 161:Model/face_landmark.c ****   /*     start: ((uintptr_t)(ATON_LIB_PHYSICAL_TO_VIRTUAL_ADDR(0x34200000UL + 442368))) */
 162:Model/face_landmark.c ****   /*     end:   ((uintptr_t)(ATON_LIB_PHYSICAL_TO_VIRTUAL_ADDR(0x34200000UL + 552960))) */
 163:Model/face_landmark.c ****   LL_ATON_Cache_MCU_Clean_Range(((uintptr_t)(ATON_LIB_PHYSICAL_TO_VIRTUAL_ADDR(0x34200000UL + 44236
 164:Model/face_landmark.c **** 
 165:Model/face_landmark.c **** }
 166:Model/face_landmark.c **** 
 167:Model/face_landmark.c **** 
 168:Model/face_landmark.c **** // Epoch Controller Blob (name='_ec_blob_face_landmark_3') micro instructions needed
 169:Model/face_landmark.c **** 
 170:Model/face_landmark.c **** // Epoch Controller Blob (name='_ec_blob_face_landmark_3') start function
 171:Model/face_landmark.c **** static void _ec_blob_cache_start_func_3(const void *epoch_block) {
 172:Model/face_landmark.c ****   LL_ATON_LIB_UNUSED(epoch_block);
 173:Model/face_landmark.c **** 
 174:Model/face_landmark.c ****   /* *** MCU cache invalidate (only) operation (HW, whole range) *** */
 175:Model/face_landmark.c ****   /*     memory pool: 8 */
 176:Model/face_landmark.c ****   /*     start: ((uintptr_t)(ATON_LIB_PHYSICAL_TO_VIRTUAL_ADDR(0x34200000UL + 73728))) */
 177:Model/face_landmark.c ****   /*     end:   ((uintptr_t)(ATON_LIB_PHYSICAL_TO_VIRTUAL_ADDR(0x34200000UL + 110592))) */
 178:Model/face_landmark.c ****   LL_ATON_Cache_MCU_Invalidate_Range(((uintptr_t)(ATON_LIB_PHYSICAL_TO_VIRTUAL_ADDR(0x34200000UL + 
 179:Model/face_landmark.c **** 
 180:Model/face_landmark.c **** };
 181:Model/face_landmark.c **** 
 182:Model/face_landmark.c **** 
 183:Model/face_landmark.c **** /* scheduling epoch=12   nodes=1   ----------------------------------------------------------------
 184:Model/face_landmark.c **** 
 185:Model/face_landmark.c **** static void LL_ATON_End_EpochBlock_12(const void *epoch_block)
 186:Model/face_landmark.c **** {
 187:Model/face_landmark.c ****   LL_ATON_LIB_UNUSED(epoch_block);
 188:Model/face_landmark.c **** 
 189:Model/face_landmark.c ****   /* *** MCU cache invalidate (only) operation (SW, whole range) *** */
 190:Model/face_landmark.c ****   /*     memory pool: 8 */
 191:Model/face_landmark.c ****   /*     start: ((uintptr_t)(ATON_LIB_PHYSICAL_TO_VIRTUAL_ADDR(0x34200000UL + 110592))) */
 192:Model/face_landmark.c ****   /*     end:   ((uintptr_t)(ATON_LIB_PHYSICAL_TO_VIRTUAL_ADDR(0x34200000UL + 147456))) */
 193:Model/face_landmark.c ****   LL_ATON_Cache_MCU_Invalidate_Range(((uintptr_t)(ATON_LIB_PHYSICAL_TO_VIRTUAL_ADDR(0x34200000UL + 
 194:Model/face_landmark.c **** 
 195:Model/face_landmark.c ****   /* Reset the stream switch */
 196:Model/face_landmark.c ****   LL_Switch_Init(NULL, 0);
ARM GAS  /tmp/cc4rvpEd.s 			page 5


 197:Model/face_landmark.c **** 
 198:Model/face_landmark.c **** /* Unit= 27 [PROCESSOR 0] */
 199:Model/face_landmark.c **** /* kind=Transpose node=Transpose_29 */
 200:Model/face_landmark.c ****   static const uint32_t Transpose_29_tensor_shape_in_12_shape_0[] = { 1, 48, 48, 16 };
 201:Model/face_landmark.c ****   static const LL_LIB_TensorShape_TypeDef Transpose_29_tensor_shape_in_12[] = {
 202:Model/face_landmark.c ****     {
 203:Model/face_landmark.c ****       .addr_base = {(unsigned char *)(0x34200000UL) /* Equivalent hex address = 0x34200000UL */},
 204:Model/face_landmark.c ****       .offset_start = 73728,
 205:Model/face_landmark.c ****       .offset_end = 110592,
 206:Model/face_landmark.c ****       .offset_limit = 110656,
 207:Model/face_landmark.c ****       .ndims = 4,
 208:Model/face_landmark.c ****       .nbits = 8,
 209:Model/face_landmark.c ****       .shape = Transpose_29_tensor_shape_in_12_shape_0,
 210:Model/face_landmark.c ****       .batch = 16,
 211:Model/face_landmark.c ****     }
 212:Model/face_landmark.c ****   };
 213:Model/face_landmark.c **** 
 214:Model/face_landmark.c ****   static const uint32_t Transpose_29_tensor_axes_offsets_in_12_0[] = { 36864, 768, 16, 1 };
 215:Model/face_landmark.c ****   static const uint32_t* Transpose_29_tensor_axes_offsets_in_12[] = {
 216:Model/face_landmark.c ****     Transpose_29_tensor_axes_offsets_in_12_0
 217:Model/face_landmark.c ****   };
 218:Model/face_landmark.c **** 
 219:Model/face_landmark.c ****   static const uint32_t Transpose_29_tensor_shape_out_12_shape_0[] = { 1, 16, 48, 48 };
 220:Model/face_landmark.c ****   static const LL_LIB_TensorShape_TypeDef Transpose_29_tensor_shape_out_12[] = {
 221:Model/face_landmark.c ****     {
 222:Model/face_landmark.c ****       .addr_base = {(unsigned char *)(0x34200000UL) /* Equivalent hex address = 0x34200000UL */},
 223:Model/face_landmark.c ****       .offset_start = 110592,
 224:Model/face_landmark.c ****       .offset_end = 147456,
 225:Model/face_landmark.c ****       .offset_limit = 147520,
 226:Model/face_landmark.c ****       .ndims = 4,
 227:Model/face_landmark.c ****       .nbits = 8,
 228:Model/face_landmark.c ****       .shape = Transpose_29_tensor_shape_out_12_shape_0,
 229:Model/face_landmark.c ****       .batch = 48,
 230:Model/face_landmark.c ****     }
 231:Model/face_landmark.c ****   };
 232:Model/face_landmark.c **** 
 233:Model/face_landmark.c ****   static const uint32_t Transpose_29_tensor_axes_offsets_out_12_0[] = { 36864, 2304, 48, 1 };
 234:Model/face_landmark.c ****   static const uint32_t* Transpose_29_tensor_axes_offsets_out_12[] = {
 235:Model/face_landmark.c ****     Transpose_29_tensor_axes_offsets_out_12_0
 236:Model/face_landmark.c ****   };
 237:Model/face_landmark.c **** 
 238:Model/face_landmark.c ****   static const uint8_t Transpose_29_perm_to_use_array_in_12[] = { 0, 3, 2, 1 };
 239:Model/face_landmark.c ****   static const uint8_t Transpose_29_target_pos_array_in_12[] = { 0, 3, 2, 1 };
 240:Model/face_landmark.c ****   LL_ATON_LIB_DMA_Transpose(&Transpose_29_tensor_shape_in_12[0], Transpose_29_tensor_axes_offsets_i
 241:Model/face_landmark.c **** 
 242:Model/face_landmark.c ****   /* *** MCU cache clean (only) operation (SW, whole range) *** */
 243:Model/face_landmark.c ****   /*     memory pool: 8 */
 244:Model/face_landmark.c ****   /*     start: ((uintptr_t)(ATON_LIB_PHYSICAL_TO_VIRTUAL_ADDR(0x34200000UL + 110592))) */
 245:Model/face_landmark.c ****   /*     end:   ((uintptr_t)(ATON_LIB_PHYSICAL_TO_VIRTUAL_ADDR(0x34200000UL + 147456))) */
 246:Model/face_landmark.c ****   LL_ATON_Cache_MCU_Clean_Range(((uintptr_t)(ATON_LIB_PHYSICAL_TO_VIRTUAL_ADDR(0x34200000UL + 11059
 247:Model/face_landmark.c **** 
 248:Model/face_landmark.c **** }
 249:Model/face_landmark.c **** 
 250:Model/face_landmark.c **** 
 251:Model/face_landmark.c **** // Epoch Controller Blob (name='_ec_blob_face_landmark_13') micro instructions needed
 252:Model/face_landmark.c **** 
 253:Model/face_landmark.c **** // Epoch Controller Blob (name='_ec_blob_face_landmark_13') start function
ARM GAS  /tmp/cc4rvpEd.s 			page 6


 254:Model/face_landmark.c **** static void _ec_blob_cache_start_func_13(const void *epoch_block) {
 255:Model/face_landmark.c ****   LL_ATON_LIB_UNUSED(epoch_block);
 256:Model/face_landmark.c **** 
 257:Model/face_landmark.c ****   /* *** MCU cache invalidate (only) operation (HW, whole range) *** */
 258:Model/face_landmark.c ****   /*     memory pool: 8 */
 259:Model/face_landmark.c ****   /*     start: ((uintptr_t)(ATON_LIB_PHYSICAL_TO_VIRTUAL_ADDR(0x34200000UL + 73728))) */
 260:Model/face_landmark.c ****   /*     end:   ((uintptr_t)(ATON_LIB_PHYSICAL_TO_VIRTUAL_ADDR(0x34200000UL + 147456))) */
 261:Model/face_landmark.c ****   LL_ATON_Cache_MCU_Invalidate_Range(((uintptr_t)(ATON_LIB_PHYSICAL_TO_VIRTUAL_ADDR(0x34200000UL + 
 262:Model/face_landmark.c **** 
 263:Model/face_landmark.c **** };
 264:Model/face_landmark.c **** 
 265:Model/face_landmark.c **** 
 266:Model/face_landmark.c **** /* scheduling epoch=15   nodes=1   ----------------------------------------------------------------
 267:Model/face_landmark.c **** 
 268:Model/face_landmark.c **** static void LL_ATON_End_EpochBlock_15(const void *epoch_block)
 269:Model/face_landmark.c **** {
 270:Model/face_landmark.c ****   LL_ATON_LIB_UNUSED(epoch_block);
 271:Model/face_landmark.c **** 
 272:Model/face_landmark.c ****   /* *** MCU cache invalidate (only) operation (SW, whole range) *** */
 273:Model/face_landmark.c ****   /*     memory pool: 8 */
 274:Model/face_landmark.c ****   /*     start: ((uintptr_t)(ATON_LIB_PHYSICAL_TO_VIRTUAL_ADDR(0x34200000UL + 147456))) */
 275:Model/face_landmark.c ****   /*     end:   ((uintptr_t)(ATON_LIB_PHYSICAL_TO_VIRTUAL_ADDR(0x34200000UL + 221184))) */
 276:Model/face_landmark.c ****   LL_ATON_Cache_MCU_Invalidate_Range(((uintptr_t)(ATON_LIB_PHYSICAL_TO_VIRTUAL_ADDR(0x34200000UL + 
 277:Model/face_landmark.c **** 
 278:Model/face_landmark.c ****   /* Reset the stream switch */
 279:Model/face_landmark.c ****   LL_Switch_Init(NULL, 0);
 280:Model/face_landmark.c **** 
 281:Model/face_landmark.c **** /* Unit= 27 [PROCESSOR 0] */
 282:Model/face_landmark.c **** /* kind=Transpose node=Transpose_31 */
 283:Model/face_landmark.c ****   static const uint32_t Transpose_31_tensor_shape_in_15_shape_0[] = { 1, 48, 32, 48 };
 284:Model/face_landmark.c ****   static const LL_LIB_TensorShape_TypeDef Transpose_31_tensor_shape_in_15[] = {
 285:Model/face_landmark.c ****     {
 286:Model/face_landmark.c ****       .addr_base = {(unsigned char *)(0x34200000UL) /* Equivalent hex address = 0x34200000UL */},
 287:Model/face_landmark.c ****       .offset_start = 73728,
 288:Model/face_landmark.c ****       .offset_end = 147456,
 289:Model/face_landmark.c ****       .offset_limit = 147520,
 290:Model/face_landmark.c ****       .ndims = 4,
 291:Model/face_landmark.c ****       .nbits = 8,
 292:Model/face_landmark.c ****       .shape = Transpose_31_tensor_shape_in_15_shape_0,
 293:Model/face_landmark.c ****       .batch = 1,
 294:Model/face_landmark.c ****     }
 295:Model/face_landmark.c ****   };
 296:Model/face_landmark.c **** 
 297:Model/face_landmark.c ****   static const uint32_t Transpose_31_tensor_axes_offsets_in_15_0[] = { 73728, 1536, 48, 1 };
 298:Model/face_landmark.c ****   static const uint32_t* Transpose_31_tensor_axes_offsets_in_15[] = {
 299:Model/face_landmark.c ****     Transpose_31_tensor_axes_offsets_in_15_0
 300:Model/face_landmark.c ****   };
 301:Model/face_landmark.c **** 
 302:Model/face_landmark.c ****   static const uint32_t Transpose_31_tensor_shape_out_15_shape_0[] = { 1, 32, 48, 48 };
 303:Model/face_landmark.c ****   static const LL_LIB_TensorShape_TypeDef Transpose_31_tensor_shape_out_15[] = {
 304:Model/face_landmark.c ****     {
 305:Model/face_landmark.c ****       .addr_base = {(unsigned char *)(0x34200000UL) /* Equivalent hex address = 0x34200000UL */},
 306:Model/face_landmark.c ****       .offset_start = 147456,
 307:Model/face_landmark.c ****       .offset_end = 221184,
 308:Model/face_landmark.c ****       .offset_limit = 221248,
 309:Model/face_landmark.c ****       .ndims = 4,
 310:Model/face_landmark.c ****       .nbits = 8,
ARM GAS  /tmp/cc4rvpEd.s 			page 7


 311:Model/face_landmark.c ****       .shape = Transpose_31_tensor_shape_out_15_shape_0,
 312:Model/face_landmark.c ****       .batch = 1,
 313:Model/face_landmark.c ****     }
 314:Model/face_landmark.c ****   };
 315:Model/face_landmark.c **** 
 316:Model/face_landmark.c ****   static const uint32_t Transpose_31_tensor_axes_offsets_out_15_0[] = { 73728, 2304, 48, 1 };
 317:Model/face_landmark.c ****   static const uint32_t* Transpose_31_tensor_axes_offsets_out_15[] = {
 318:Model/face_landmark.c ****     Transpose_31_tensor_axes_offsets_out_15_0
 319:Model/face_landmark.c ****   };
 320:Model/face_landmark.c **** 
 321:Model/face_landmark.c ****   static const uint8_t Transpose_31_perm_to_use_array_in_15[] = { 0, 2, 1, 3 };
 322:Model/face_landmark.c ****   static const uint8_t Transpose_31_target_pos_array_in_15[] = { 0, 2, 1, 3 };
 323:Model/face_landmark.c ****   LL_ATON_LIB_DMA_Transpose(&Transpose_31_tensor_shape_in_15[0], Transpose_31_tensor_axes_offsets_i
 324:Model/face_landmark.c **** 
 325:Model/face_landmark.c ****   /* *** MCU cache clean (only) operation (SW, whole range) *** */
 326:Model/face_landmark.c ****   /*     memory pool: 8 */
 327:Model/face_landmark.c ****   /*     start: ((uintptr_t)(ATON_LIB_PHYSICAL_TO_VIRTUAL_ADDR(0x34200000UL + 147456))) */
 328:Model/face_landmark.c ****   /*     end:   ((uintptr_t)(ATON_LIB_PHYSICAL_TO_VIRTUAL_ADDR(0x34200000UL + 221184))) */
 329:Model/face_landmark.c ****   LL_ATON_Cache_MCU_Clean_Range(((uintptr_t)(ATON_LIB_PHYSICAL_TO_VIRTUAL_ADDR(0x34200000UL + 14745
 330:Model/face_landmark.c **** 
 331:Model/face_landmark.c **** }
 332:Model/face_landmark.c **** 
 333:Model/face_landmark.c **** 
 334:Model/face_landmark.c **** // Epoch Controller Blob (name='_ec_blob_face_landmark_16') micro instructions needed
 335:Model/face_landmark.c **** 
 336:Model/face_landmark.c **** // Epoch Controller Blob (name='_ec_blob_face_landmark_16') start function
 337:Model/face_landmark.c **** static void _ec_blob_cache_start_func_16(const void *epoch_block) {
 338:Model/face_landmark.c ****   LL_ATON_LIB_UNUSED(epoch_block);
 339:Model/face_landmark.c **** 
 340:Model/face_landmark.c ****   /* *** MCU cache invalidate (only) operation (HW, whole range) *** */
 341:Model/face_landmark.c ****   /*     memory pool: 8 */
 342:Model/face_landmark.c ****   /*     start: ((uintptr_t)(ATON_LIB_PHYSICAL_TO_VIRTUAL_ADDR(0x34200000UL + 0))) */
 343:Model/face_landmark.c ****   /*     end:   ((uintptr_t)(ATON_LIB_PHYSICAL_TO_VIRTUAL_ADDR(0x34200000UL + 36864))) */
 344:Model/face_landmark.c ****   LL_ATON_Cache_MCU_Invalidate_Range(((uintptr_t)(ATON_LIB_PHYSICAL_TO_VIRTUAL_ADDR(0x34200000UL + 
 345:Model/face_landmark.c **** 
 346:Model/face_landmark.c **** };
 347:Model/face_landmark.c **** 
 348:Model/face_landmark.c **** 
 349:Model/face_landmark.c **** /* scheduling epoch=31   nodes=1   ----------------------------------------------------------------
 350:Model/face_landmark.c **** 
 351:Model/face_landmark.c **** static void LL_ATON_End_EpochBlock_31(const void *epoch_block)
 352:Model/face_landmark.c **** {
 353:Model/face_landmark.c ****   LL_ATON_LIB_UNUSED(epoch_block);
 354:Model/face_landmark.c **** 
 355:Model/face_landmark.c ****   /* *** MCU cache invalidate (only) operation (SW, whole range) *** */
 356:Model/face_landmark.c ****   /*     memory pool: 8 */
 357:Model/face_landmark.c ****   /*     start: ((uintptr_t)(ATON_LIB_PHYSICAL_TO_VIRTUAL_ADDR(0x34200000UL + 73728))) */
 358:Model/face_landmark.c ****   /*     end:   ((uintptr_t)(ATON_LIB_PHYSICAL_TO_VIRTUAL_ADDR(0x34200000UL + 110592))) */
 359:Model/face_landmark.c ****   LL_ATON_Cache_MCU_Invalidate_Range(((uintptr_t)(ATON_LIB_PHYSICAL_TO_VIRTUAL_ADDR(0x34200000UL + 
 360:Model/face_landmark.c **** 
 361:Model/face_landmark.c ****   /* Reset the stream switch */
 362:Model/face_landmark.c ****   LL_Switch_Init(NULL, 0);
 363:Model/face_landmark.c **** 
 364:Model/face_landmark.c **** /* Unit= 27 [PROCESSOR 0] */
 365:Model/face_landmark.c **** /* kind=Transpose node=Transpose_65 */
 366:Model/face_landmark.c ****   static const uint32_t Transpose_65_tensor_shape_in_31_shape_0[] = { 1, 24, 64, 24 };
 367:Model/face_landmark.c ****   static const LL_LIB_TensorShape_TypeDef Transpose_65_tensor_shape_in_31[] = {
ARM GAS  /tmp/cc4rvpEd.s 			page 8


 368:Model/face_landmark.c ****     {
 369:Model/face_landmark.c ****       .addr_base = {(unsigned char *)(0x34200000UL) /* Equivalent hex address = 0x34200000UL */},
 370:Model/face_landmark.c ****       .offset_start = 0,
 371:Model/face_landmark.c ****       .offset_end = 36864,
 372:Model/face_landmark.c ****       .offset_limit = 36928,
 373:Model/face_landmark.c ****       .ndims = 4,
 374:Model/face_landmark.c ****       .nbits = 8,
 375:Model/face_landmark.c ****       .shape = Transpose_65_tensor_shape_in_31_shape_0,
 376:Model/face_landmark.c ****       .batch = 1,
 377:Model/face_landmark.c ****     }
 378:Model/face_landmark.c ****   };
 379:Model/face_landmark.c **** 
 380:Model/face_landmark.c ****   static const uint32_t Transpose_65_tensor_axes_offsets_in_31_0[] = { 36864, 1536, 24, 1 };
 381:Model/face_landmark.c ****   static const uint32_t* Transpose_65_tensor_axes_offsets_in_31[] = {
 382:Model/face_landmark.c ****     Transpose_65_tensor_axes_offsets_in_31_0
 383:Model/face_landmark.c ****   };
 384:Model/face_landmark.c **** 
 385:Model/face_landmark.c ****   static const uint32_t Transpose_65_tensor_shape_out_31_shape_0[] = { 1, 64, 24, 24 };
 386:Model/face_landmark.c ****   static const LL_LIB_TensorShape_TypeDef Transpose_65_tensor_shape_out_31[] = {
 387:Model/face_landmark.c ****     {
 388:Model/face_landmark.c ****       .addr_base = {(unsigned char *)(0x34200000UL) /* Equivalent hex address = 0x34200000UL */},
 389:Model/face_landmark.c ****       .offset_start = 73728,
 390:Model/face_landmark.c ****       .offset_end = 110592,
 391:Model/face_landmark.c ****       .offset_limit = 110656,
 392:Model/face_landmark.c ****       .ndims = 4,
 393:Model/face_landmark.c ****       .nbits = 8,
 394:Model/face_landmark.c ****       .shape = Transpose_65_tensor_shape_out_31_shape_0,
 395:Model/face_landmark.c ****       .batch = 1,
 396:Model/face_landmark.c ****     }
 397:Model/face_landmark.c ****   };
 398:Model/face_landmark.c **** 
 399:Model/face_landmark.c ****   static const uint32_t Transpose_65_tensor_axes_offsets_out_31_0[] = { 36864, 576, 24, 1 };
 400:Model/face_landmark.c ****   static const uint32_t* Transpose_65_tensor_axes_offsets_out_31[] = {
 401:Model/face_landmark.c ****     Transpose_65_tensor_axes_offsets_out_31_0
 402:Model/face_landmark.c ****   };
 403:Model/face_landmark.c **** 
 404:Model/face_landmark.c ****   static const uint8_t Transpose_65_perm_to_use_array_in_31[] = { 0, 2, 1, 3 };
 405:Model/face_landmark.c ****   static const uint8_t Transpose_65_target_pos_array_in_31[] = { 0, 2, 1, 3 };
 406:Model/face_landmark.c ****   LL_ATON_LIB_DMA_Transpose(&Transpose_65_tensor_shape_in_31[0], Transpose_65_tensor_axes_offsets_i
 407:Model/face_landmark.c **** 
 408:Model/face_landmark.c ****   /* *** MCU cache clean (only) operation (SW, whole range) *** */
 409:Model/face_landmark.c ****   /*     memory pool: 8 */
 410:Model/face_landmark.c ****   /*     start: ((uintptr_t)(ATON_LIB_PHYSICAL_TO_VIRTUAL_ADDR(0x34200000UL + 73728))) */
 411:Model/face_landmark.c ****   /*     end:   ((uintptr_t)(ATON_LIB_PHYSICAL_TO_VIRTUAL_ADDR(0x34200000UL + 110592))) */
 412:Model/face_landmark.c ****   LL_ATON_Cache_MCU_Clean_Range(((uintptr_t)(ATON_LIB_PHYSICAL_TO_VIRTUAL_ADDR(0x34200000UL + 73728
 413:Model/face_landmark.c **** 
 414:Model/face_landmark.c **** }
 415:Model/face_landmark.c **** 
 416:Model/face_landmark.c **** 
 417:Model/face_landmark.c **** // Epoch Controller Blob (name='_ec_blob_face_landmark_32') micro instructions needed
 418:Model/face_landmark.c **** 
 419:Model/face_landmark.c **** // Epoch Controller Blob (name='_ec_blob_face_landmark_32') start function
 420:Model/face_landmark.c **** static void _ec_blob_cache_start_func_32(const void *epoch_block) {
 421:Model/face_landmark.c ****   LL_ATON_LIB_UNUSED(epoch_block);
 422:Model/face_landmark.c **** 
 423:Model/face_landmark.c ****   /* *** MCU cache invalidate (only) operation (HW, whole range) *** */
 424:Model/face_landmark.c ****   /*     memory pool: 8 */
ARM GAS  /tmp/cc4rvpEd.s 			page 9


 425:Model/face_landmark.c ****   /*     start: ((uintptr_t)(ATON_LIB_PHYSICAL_TO_VIRTUAL_ADDR(0x34200000UL + 0))) */
 426:Model/face_landmark.c ****   /*     end:   ((uintptr_t)(ATON_LIB_PHYSICAL_TO_VIRTUAL_ADDR(0x34200000UL + 18432))) */
 427:Model/face_landmark.c ****   LL_ATON_Cache_MCU_Invalidate_Range(((uintptr_t)(ATON_LIB_PHYSICAL_TO_VIRTUAL_ADDR(0x34200000UL + 
 428:Model/face_landmark.c **** 
 429:Model/face_landmark.c **** };
 430:Model/face_landmark.c **** 
 431:Model/face_landmark.c **** 
 432:Model/face_landmark.c **** /* scheduling epoch=47   nodes=1   ----------------------------------------------------------------
 433:Model/face_landmark.c **** 
 434:Model/face_landmark.c **** static void LL_ATON_End_EpochBlock_47(const void *epoch_block)
 435:Model/face_landmark.c **** {
 436:Model/face_landmark.c ****   LL_ATON_LIB_UNUSED(epoch_block);
 437:Model/face_landmark.c **** 
 438:Model/face_landmark.c ****   /* *** MCU cache invalidate (only) operation (SW, whole range) *** */
 439:Model/face_landmark.c ****   /*     memory pool: 8 */
 440:Model/face_landmark.c ****   /*     start: ((uintptr_t)(ATON_LIB_PHYSICAL_TO_VIRTUAL_ADDR(0x34200000UL + 36864))) */
 441:Model/face_landmark.c ****   /*     end:   ((uintptr_t)(ATON_LIB_PHYSICAL_TO_VIRTUAL_ADDR(0x34200000UL + 55296))) */
 442:Model/face_landmark.c ****   LL_ATON_Cache_MCU_Invalidate_Range(((uintptr_t)(ATON_LIB_PHYSICAL_TO_VIRTUAL_ADDR(0x34200000UL + 
 443:Model/face_landmark.c **** 
 444:Model/face_landmark.c ****   /* Reset the stream switch */
 445:Model/face_landmark.c ****   LL_Switch_Init(NULL, 0);
 446:Model/face_landmark.c **** 
 447:Model/face_landmark.c **** /* Unit= 27 [PROCESSOR 0] */
 448:Model/face_landmark.c **** /* kind=Transpose node=Transpose_99 */
 449:Model/face_landmark.c ****   static const uint32_t Transpose_99_tensor_shape_in_47_shape_0[] = { 1, 12, 128, 12 };
 450:Model/face_landmark.c ****   static const LL_LIB_TensorShape_TypeDef Transpose_99_tensor_shape_in_47[] = {
 451:Model/face_landmark.c ****     {
 452:Model/face_landmark.c ****       .addr_base = {(unsigned char *)(0x34200000UL) /* Equivalent hex address = 0x34200000UL */},
 453:Model/face_landmark.c ****       .offset_start = 0,
 454:Model/face_landmark.c ****       .offset_end = 18432,
 455:Model/face_landmark.c ****       .offset_limit = 18496,
 456:Model/face_landmark.c ****       .ndims = 4,
 457:Model/face_landmark.c ****       .nbits = 8,
 458:Model/face_landmark.c ****       .shape = Transpose_99_tensor_shape_in_47_shape_0,
 459:Model/face_landmark.c ****       .batch = 1,
 460:Model/face_landmark.c ****     }
 461:Model/face_landmark.c ****   };
 462:Model/face_landmark.c **** 
 463:Model/face_landmark.c ****   static const uint32_t Transpose_99_tensor_axes_offsets_in_47_0[] = { 18432, 1536, 12, 1 };
 464:Model/face_landmark.c ****   static const uint32_t* Transpose_99_tensor_axes_offsets_in_47[] = {
 465:Model/face_landmark.c ****     Transpose_99_tensor_axes_offsets_in_47_0
 466:Model/face_landmark.c ****   };
 467:Model/face_landmark.c **** 
 468:Model/face_landmark.c ****   static const uint32_t Transpose_99_tensor_shape_out_47_shape_0[] = { 1, 128, 12, 12 };
 469:Model/face_landmark.c ****   static const LL_LIB_TensorShape_TypeDef Transpose_99_tensor_shape_out_47[] = {
 470:Model/face_landmark.c ****     {
 471:Model/face_landmark.c ****       .addr_base = {(unsigned char *)(0x34200000UL) /* Equivalent hex address = 0x34200000UL */},
 472:Model/face_landmark.c ****       .offset_start = 36864,
 473:Model/face_landmark.c ****       .offset_end = 55296,
 474:Model/face_landmark.c ****       .offset_limit = 55360,
 475:Model/face_landmark.c ****       .ndims = 4,
 476:Model/face_landmark.c ****       .nbits = 8,
 477:Model/face_landmark.c ****       .shape = Transpose_99_tensor_shape_out_47_shape_0,
 478:Model/face_landmark.c ****       .batch = 1,
 479:Model/face_landmark.c ****     }
 480:Model/face_landmark.c ****   };
 481:Model/face_landmark.c **** 
ARM GAS  /tmp/cc4rvpEd.s 			page 10


 482:Model/face_landmark.c ****   static const uint32_t Transpose_99_tensor_axes_offsets_out_47_0[] = { 18432, 144, 12, 1 };
 483:Model/face_landmark.c ****   static const uint32_t* Transpose_99_tensor_axes_offsets_out_47[] = {
 484:Model/face_landmark.c ****     Transpose_99_tensor_axes_offsets_out_47_0
 485:Model/face_landmark.c ****   };
 486:Model/face_landmark.c **** 
 487:Model/face_landmark.c ****   static const uint8_t Transpose_99_perm_to_use_array_in_47[] = { 0, 2, 1, 3 };
 488:Model/face_landmark.c ****   static const uint8_t Transpose_99_target_pos_array_in_47[] = { 0, 2, 1, 3 };
 489:Model/face_landmark.c ****   LL_ATON_LIB_DMA_Transpose(&Transpose_99_tensor_shape_in_47[0], Transpose_99_tensor_axes_offsets_i
 490:Model/face_landmark.c **** 
 491:Model/face_landmark.c ****   /* *** MCU cache clean (only) operation (SW, whole range) *** */
 492:Model/face_landmark.c ****   /*     memory pool: 8 */
 493:Model/face_landmark.c ****   /*     start: ((uintptr_t)(ATON_LIB_PHYSICAL_TO_VIRTUAL_ADDR(0x34200000UL + 36864))) */
 494:Model/face_landmark.c ****   /*     end:   ((uintptr_t)(ATON_LIB_PHYSICAL_TO_VIRTUAL_ADDR(0x34200000UL + 55296))) */
 495:Model/face_landmark.c ****   LL_ATON_Cache_MCU_Clean_Range(((uintptr_t)(ATON_LIB_PHYSICAL_TO_VIRTUAL_ADDR(0x34200000UL + 36864
 496:Model/face_landmark.c **** 
 497:Model/face_landmark.c **** }
 498:Model/face_landmark.c **** 
 499:Model/face_landmark.c **** 
 500:Model/face_landmark.c **** // Epoch Controller Blob (name='_ec_blob_face_landmark_48') micro instructions needed
 501:Model/face_landmark.c **** 
 502:Model/face_landmark.c **** // Epoch Controller Blob (name='_ec_blob_face_landmark_48') start function
 503:Model/face_landmark.c **** static void _ec_blob_cache_start_func_48(const void *epoch_block) {
 504:Model/face_landmark.c ****   LL_ATON_LIB_UNUSED(epoch_block);
 505:Model/face_landmark.c **** 
 506:Model/face_landmark.c ****   /* *** MCU cache invalidate (only) operation (HW, whole range) *** */
 507:Model/face_landmark.c ****   /*     memory pool: 8 */
 508:Model/face_landmark.c ****   /*     start: ((uintptr_t)(ATON_LIB_PHYSICAL_TO_VIRTUAL_ADDR(0x34200000UL + 2304))) */
 509:Model/face_landmark.c ****   /*     end:   ((uintptr_t)(ATON_LIB_PHYSICAL_TO_VIRTUAL_ADDR(0x34200000UL + 2880))) */
 510:Model/face_landmark.c ****   LL_ATON_Cache_MCU_Invalidate_Range(((uintptr_t)(ATON_LIB_PHYSICAL_TO_VIRTUAL_ADDR(0x34200000UL + 
 511:Model/face_landmark.c **** 
 512:Model/face_landmark.c **** };
 513:Model/face_landmark.c **** 
 514:Model/face_landmark.c **** 
 515:Model/face_landmark.c **** /* scheduling epoch=92   nodes=1   ----------------------------------------------------------------
 516:Model/face_landmark.c **** 
 517:Model/face_landmark.c **** static void LL_ATON_End_EpochBlock_92(const void *epoch_block)
 518:Model/face_landmark.c **** {
 519:Model/face_landmark.c ****   LL_ATON_LIB_UNUSED(epoch_block);
 520:Model/face_landmark.c **** 
 521:Model/face_landmark.c ****   /* *** MCU cache invalidate (only) operation (SW, whole range) *** */
 522:Model/face_landmark.c ****   /*     memory pool: 8 */
 523:Model/face_landmark.c ****   /*     start: ((uintptr_t)(ATON_LIB_PHYSICAL_TO_VIRTUAL_ADDR(0x34200000UL + 4608))) */
 524:Model/face_landmark.c ****   /*     end:   ((uintptr_t)(ATON_LIB_PHYSICAL_TO_VIRTUAL_ADDR(0x34200000UL + 5184))) */
 525:Model/face_landmark.c ****   LL_ATON_Cache_MCU_Invalidate_Range(((uintptr_t)(ATON_LIB_PHYSICAL_TO_VIRTUAL_ADDR(0x34200000UL + 
 526:Model/face_landmark.c **** 
 527:Model/face_landmark.c ****   /* Reset the stream switch */
 528:Model/face_landmark.c ****   LL_Switch_Init(NULL, 0);
 529:Model/face_landmark.c **** 
 530:Model/face_landmark.c **** /* Unit= 27 [PROCESSOR 0] */
 531:Model/face_landmark.c **** /* kind=SpaceToDepth node=SpaceToDepth_inserted_id1063 */
 532:Model/face_landmark.c ****   static const uint32_t SpaceToDepth_inserted_id1063_tensor_info_in_92__shape_1_32_3_3[] = { 1, 3, 
 533:Model/face_landmark.c ****   static const uint32_t SpaceToDepth_inserted_id1063_tensor_info_in_92__mem_shape_L_1_32_3_3[] = { 
 534:Model/face_landmark.c ****   static const float SpaceToDepth_inserted_id1063_tensor_info_in_92_Conv2D_186_zero_off_out_330_cop
 535:Model/face_landmark.c ****   static const int16_t SpaceToDepth_inserted_id1063_tensor_info_in_92_Conv2D_186_zero_off_out_330_c
 536:Model/face_landmark.c ****   static const LL_Buffer_InfoTypeDef SpaceToDepth_inserted_id1063_tensor_info_in_92[] = {
 537:Model/face_landmark.c ****     {
 538:Model/face_landmark.c ****       .name = "Conv2D_186_zero_off_out_330_copy_in_52",
ARM GAS  /tmp/cc4rvpEd.s 			page 11


 539:Model/face_landmark.c ****       .addr_base = {(unsigned char *)(0x34200000UL) /* Equivalent hex address = 0x34200000UL */},
 540:Model/face_landmark.c ****       .offset_start = 2304,
 541:Model/face_landmark.c ****       .offset_end = 2880,
 542:Model/face_landmark.c ****       .offset_limit = 2944,
 543:Model/face_landmark.c ****       .is_user_allocated = 0,
 544:Model/face_landmark.c ****       .is_param = 0,
 545:Model/face_landmark.c ****       .epoch = 92,
 546:Model/face_landmark.c ****       .batch = 32,
 547:Model/face_landmark.c ****       .mem_shape = SpaceToDepth_inserted_id1063_tensor_info_in_92__mem_shape_L_1_32_3_3,
 548:Model/face_landmark.c ****       .mem_ndims = 4,
 549:Model/face_landmark.c ****       .chpos = CHPos_Last,
 550:Model/face_landmark.c ****       .Qm = 15,
 551:Model/face_landmark.c ****       .Qn = 0,
 552:Model/face_landmark.c ****       .Qunsigned = 0,
 553:Model/face_landmark.c ****       .type = DataType_INT16,
 554:Model/face_landmark.c ****       .nbits = 16,
 555:Model/face_landmark.c ****       .ndims = 4,
 556:Model/face_landmark.c ****       .shape = SpaceToDepth_inserted_id1063_tensor_info_in_92__shape_1_32_3_3,
 557:Model/face_landmark.c ****       .per_channel = 0,
 558:Model/face_landmark.c ****       .scale = SpaceToDepth_inserted_id1063_tensor_info_in_92_Conv2D_186_zero_off_out_330_copy_in_5
 559:Model/face_landmark.c ****       .offset = SpaceToDepth_inserted_id1063_tensor_info_in_92_Conv2D_186_zero_off_out_330_copy_in_
 560:Model/face_landmark.c ****     },
 561:Model/face_landmark.c ****     {
 562:Model/face_landmark.c ****       .name = NULL,
 563:Model/face_landmark.c ****     }
 564:Model/face_landmark.c ****   };
 565:Model/face_landmark.c **** 
 566:Model/face_landmark.c ****   static const uint32_t SpaceToDepth_inserted_id1063_tensor_info_out_92__shape_1_288_1_1[] = { 1, 1
 567:Model/face_landmark.c ****   static const uint32_t SpaceToDepth_inserted_id1063_tensor_info_out_92__mem_shape_F_1_288_1_1[] = 
 568:Model/face_landmark.c ****   static const float SpaceToDepth_inserted_id1063_tensor_info_out_92_Conv2D_186_zero_off_out_330_in
 569:Model/face_landmark.c ****   static const int16_t SpaceToDepth_inserted_id1063_tensor_info_out_92_Conv2D_186_zero_off_out_330_
 570:Model/face_landmark.c ****   static const LL_Buffer_InfoTypeDef SpaceToDepth_inserted_id1063_tensor_info_out_92[] = {
 571:Model/face_landmark.c ****     {
 572:Model/face_landmark.c ****       .name = "Conv2D_186_zero_off_out_330_inserted_out1062_cp_in_52",
 573:Model/face_landmark.c ****       .addr_base = {(unsigned char *)(0x34200000UL) /* Equivalent hex address = 0x34200000UL */},
 574:Model/face_landmark.c ****       .offset_start = 4608,
 575:Model/face_landmark.c ****       .offset_end = 5184,
 576:Model/face_landmark.c ****       .offset_limit = 5248,
 577:Model/face_landmark.c ****       .is_user_allocated = 0,
 578:Model/face_landmark.c ****       .is_param = 0,
 579:Model/face_landmark.c ****       .epoch = 92,
 580:Model/face_landmark.c ****       .batch = 288,
 581:Model/face_landmark.c ****       .mem_shape = SpaceToDepth_inserted_id1063_tensor_info_out_92__mem_shape_F_1_288_1_1,
 582:Model/face_landmark.c ****       .mem_ndims = 4,
 583:Model/face_landmark.c ****       .chpos = CHPos_First,
 584:Model/face_landmark.c ****       .Qm = 15,
 585:Model/face_landmark.c ****       .Qn = 0,
 586:Model/face_landmark.c ****       .Qunsigned = 0,
 587:Model/face_landmark.c ****       .type = DataType_INT16,
 588:Model/face_landmark.c ****       .nbits = 16,
 589:Model/face_landmark.c ****       .ndims = 4,
 590:Model/face_landmark.c ****       .shape = SpaceToDepth_inserted_id1063_tensor_info_out_92__shape_1_288_1_1,
 591:Model/face_landmark.c ****       .per_channel = 0,
 592:Model/face_landmark.c ****       .scale = SpaceToDepth_inserted_id1063_tensor_info_out_92_Conv2D_186_zero_off_out_330_inserted
 593:Model/face_landmark.c ****       .offset = SpaceToDepth_inserted_id1063_tensor_info_out_92_Conv2D_186_zero_off_out_330_inserte
 594:Model/face_landmark.c ****     },
 595:Model/face_landmark.c ****     {
ARM GAS  /tmp/cc4rvpEd.s 			page 12


 596:Model/face_landmark.c ****       .name = NULL,
 597:Model/face_landmark.c ****     }
 598:Model/face_landmark.c ****   };
 599:Model/face_landmark.c **** 
 600:Model/face_landmark.c ****   LL_ATON_LIB_DMA_SpaceToDepth(SpaceToDepth_inserted_id1063_tensor_info_in_92, 1, SpaceToDepth_inse
 601:Model/face_landmark.c **** 
 602:Model/face_landmark.c ****   /* *** MCU cache clean (only) operation (SW, whole range) *** */
 603:Model/face_landmark.c ****   /*     memory pool: 8 */
 604:Model/face_landmark.c ****   /*     start: ((uintptr_t)(ATON_LIB_PHYSICAL_TO_VIRTUAL_ADDR(0x34200000UL + 4608))) */
 605:Model/face_landmark.c ****   /*     end:   ((uintptr_t)(ATON_LIB_PHYSICAL_TO_VIRTUAL_ADDR(0x34200000UL + 5184))) */
 606:Model/face_landmark.c ****   LL_ATON_Cache_MCU_Clean_Range(((uintptr_t)(ATON_LIB_PHYSICAL_TO_VIRTUAL_ADDR(0x34200000UL + 4608)
 607:Model/face_landmark.c **** 
 608:Model/face_landmark.c **** }
 609:Model/face_landmark.c **** 
 610:Model/face_landmark.c **** 
 611:Model/face_landmark.c **** // Epoch Controller Blob (name='_ec_blob_face_landmark_93') micro instructions needed
 612:Model/face_landmark.c **** 
 613:Model/face_landmark.c **** // Epoch Controller Blob (name='_ec_blob_face_landmark_93') start function
 614:Model/face_landmark.c **** static void _ec_blob_cache_start_func_93(const void *epoch_block) {
 615:Model/face_landmark.c ****   LL_ATON_LIB_UNUSED(epoch_block);
 616:Model/face_landmark.c **** 
 617:Model/face_landmark.c ****   /* *** MCU cache invalidate (only) operation (HW, whole range) *** */
 618:Model/face_landmark.c ****   /*     memory pool: 8 */
 619:Model/face_landmark.c ****   /*     start: ((uintptr_t)(ATON_LIB_PHYSICAL_TO_VIRTUAL_ADDR(0x34200000UL + 5184))) */
 620:Model/face_landmark.c ****   /*     end:   ((uintptr_t)(ATON_LIB_PHYSICAL_TO_VIRTUAL_ADDR(0x34200000UL + 5216))) */
 621:Model/face_landmark.c ****   LL_ATON_Cache_MCU_Invalidate_Range(((uintptr_t)(ATON_LIB_PHYSICAL_TO_VIRTUAL_ADDR(0x34200000UL + 
 622:Model/face_landmark.c **** 
 623:Model/face_landmark.c **** };
 624:Model/face_landmark.c **** 
 625:Model/face_landmark.c **** 
 626:Model/face_landmark.c **** /* scheduling epoch=94   nodes=1   ----------------------------------------------------------------
 627:Model/face_landmark.c **** 
 628:Model/face_landmark.c **** static void LL_ATON_End_EpochBlock_94(const void *epoch_block)
 629:Model/face_landmark.c **** {
 630:Model/face_landmark.c ****   LL_ATON_LIB_UNUSED(epoch_block);
 631:Model/face_landmark.c **** 
 632:Model/face_landmark.c ****   /* *** MCU cache invalidate (only) operation for unaligned buffer start or end address (only line
 633:Model/face_landmark.c ****   /*     memory pool: 8 */
 634:Model/face_landmark.c ****   /*     start: ((uintptr_t)(ATON_LIB_PHYSICAL_TO_VIRTUAL_ADDR(0x34200000UL + 7008))) */
 635:Model/face_landmark.c ****   /*     end:   ((uintptr_t)(ATON_LIB_PHYSICAL_TO_VIRTUAL_ADDR(0x34200000UL + 7040))) */
 636:Model/face_landmark.c ****   LL_ATON_Cache_MCU_Invalidate_Range(((uintptr_t)(ATON_LIB_PHYSICAL_TO_VIRTUAL_ADDR(0x34200000UL + 
 637:Model/face_landmark.c **** 
 638:Model/face_landmark.c **** 
 639:Model/face_landmark.c **** /* Unit= 27 [PROCESSOR 0] */
 640:Model/face_landmark.c **** /* kind=DequantizeLinear node=Dequantize_188 */
 641:Model/face_landmark.c ****   Dequantizelinear_sw_info dequantizelinear2_sw_info = {
 642:Model/face_landmark.c ****     /* "general.input" tensor-related info: */
 643:Model/face_landmark.c ****     .general.input.dim.tensor_b = 1,
 644:Model/face_landmark.c ****     .general.input.dim.tensor_h = 1,
 645:Model/face_landmark.c ****     .general.input.dim.tensor_w = 1,
 646:Model/face_landmark.c ****     .general.input.dim.tensor_c = 1,
 647:Model/face_landmark.c ****     .general.input.dim.num_elem = 1,
 648:Model/face_landmark.c ****     .general.input.stride.b = 1,
 649:Model/face_landmark.c ****     .general.input.stride.h = 1,
 650:Model/face_landmark.c ****     .general.input.stride.w = 1,
 651:Model/face_landmark.c ****     .general.input.stride.c = 1,
 652:Model/face_landmark.c ****     .general.input.mem.start_offset = ((unsigned char *)(ATON_LIB_PHYSICAL_TO_VIRTUAL_ADDR(0x342000
ARM GAS  /tmp/cc4rvpEd.s 			page 13


 653:Model/face_landmark.c ****     .general.input.format.is_signed = 1,
 654:Model/face_landmark.c ****     /* "is" tensor-related info: */
 655:Model/face_landmark.c ****     .is.mem.start_offset = ((unsigned char *)(ATON_LIB_PHYSICAL_TO_VIRTUAL_ADDR(0x70380000UL + 6430
 656:Model/face_landmark.c ****     .is.format.is_signed = 1,
 657:Model/face_landmark.c ****     .is.dim.num_elem = 1,
 658:Model/face_landmark.c ****     /* "izp" tensor-related info: */
 659:Model/face_landmark.c ****     .izp.mem.start_offset = ((unsigned char *)(ATON_LIB_PHYSICAL_TO_VIRTUAL_ADDR(0x70380000UL + 643
 660:Model/face_landmark.c ****     .izp.format.is_signed = 1,
 661:Model/face_landmark.c ****     .izp.dim.num_elem = 1,
 662:Model/face_landmark.c ****     /* "general.output" tensor-related info: */
 663:Model/face_landmark.c ****     .general.output.dim.tensor_b = 1,
 664:Model/face_landmark.c ****     .general.output.dim.tensor_h = 1,
 665:Model/face_landmark.c ****     .general.output.dim.tensor_w = 1,
 666:Model/face_landmark.c ****     .general.output.dim.tensor_c = 1,
 667:Model/face_landmark.c ****     .general.output.dim.num_elem = 1,
 668:Model/face_landmark.c ****     .general.output.stride.b = 4,
 669:Model/face_landmark.c ****     .general.output.stride.h = 4,
 670:Model/face_landmark.c ****     .general.output.stride.w = 4,
 671:Model/face_landmark.c ****     .general.output.stride.c = 4,
 672:Model/face_landmark.c ****     .general.output.mem.start_offset = ((unsigned char *)(ATON_LIB_PHYSICAL_TO_VIRTUAL_ADDR(0x34200
 673:Model/face_landmark.c ****     .general.output.format.is_signed = 1,
 674:Model/face_landmark.c ****     .general.type = LL_SW_DEQUANTIZELINEAR,
 675:Model/face_landmark.c ****   };
 676:Model/face_landmark.c **** 
 677:Model/face_landmark.c ****   /* Low Level SW Layer function invocation. This will exploit EmbedNets libs) */
 678:Model/face_landmark.c ****   /* Node Dequantize_188 mapped on EmbedNets (INTEGER) as DequantizeLinear | Category: Format-Conve
 679:Model/face_landmark.c ****   ll_sw_forward_dequantizelinear(&dequantizelinear2_sw_info);
 680:Model/face_landmark.c ****   /* *** MCU cache clean (only) operation (SW, whole range) *** */
 681:Model/face_landmark.c ****   /*     memory pool: 8 */
 682:Model/face_landmark.c ****   /*     start: ((uintptr_t)(ATON_LIB_PHYSICAL_TO_VIRTUAL_ADDR(0x34200000UL + 7008))) */
 683:Model/face_landmark.c ****   /*     end:   ((uintptr_t)(ATON_LIB_PHYSICAL_TO_VIRTUAL_ADDR(0x34200000UL + 7040))) */
 684:Model/face_landmark.c ****   LL_ATON_Cache_MCU_Clean_Range(((uintptr_t)(ATON_LIB_PHYSICAL_TO_VIRTUAL_ADDR(0x34200000UL + 7008)
 685:Model/face_landmark.c **** 
 686:Model/face_landmark.c **** }
 687:Model/face_landmark.c **** 
 688:Model/face_landmark.c **** 
 689:Model/face_landmark.c **** // Epoch Controller Blob (name='_ec_blob_face_landmark_95') micro instructions needed
 690:Model/face_landmark.c **** 
 691:Model/face_landmark.c **** // Epoch Controller Blob (name='_ec_blob_face_landmark_95') start function
 692:Model/face_landmark.c **** static void _ec_blob_cache_start_func_95(const void *epoch_block) {
 693:Model/face_landmark.c ****   LL_ATON_LIB_UNUSED(epoch_block);
 694:Model/face_landmark.c **** 
 695:Model/face_landmark.c ****   /* *** MCU cache invalidate (only) operation (HW, whole range) *** */
 696:Model/face_landmark.c ****   /*     memory pool: 8 */
 697:Model/face_landmark.c ****   /*     start: ((uintptr_t)(ATON_LIB_PHYSICAL_TO_VIRTUAL_ADDR(0x34200000UL + 576))) */
 698:Model/face_landmark.c ****   /*     end:   ((uintptr_t)(ATON_LIB_PHYSICAL_TO_VIRTUAL_ADDR(0x34200000UL + 1152))) */
 699:Model/face_landmark.c ****   LL_ATON_Cache_MCU_Invalidate_Range(((uintptr_t)(ATON_LIB_PHYSICAL_TO_VIRTUAL_ADDR(0x34200000UL + 
 700:Model/face_landmark.c **** 
 701:Model/face_landmark.c **** };
 702:Model/face_landmark.c **** 
 703:Model/face_landmark.c **** 
 704:Model/face_landmark.c **** /* scheduling epoch=109  nodes=1   ----------------------------------------------------------------
 705:Model/face_landmark.c **** 
 706:Model/face_landmark.c **** static void LL_ATON_End_EpochBlock_109(const void *epoch_block)
 707:Model/face_landmark.c **** {
 708:Model/face_landmark.c ****   LL_ATON_LIB_UNUSED(epoch_block);
 709:Model/face_landmark.c **** 
ARM GAS  /tmp/cc4rvpEd.s 			page 14


 710:Model/face_landmark.c ****   /* *** MCU cache invalidate (only) operation (SW, whole range) *** */
 711:Model/face_landmark.c ****   /*     memory pool: 8 */
 712:Model/face_landmark.c ****   /*     start: ((uintptr_t)(ATON_LIB_PHYSICAL_TO_VIRTUAL_ADDR(0x34200000UL + 0))) */
 713:Model/face_landmark.c ****   /*     end:   ((uintptr_t)(ATON_LIB_PHYSICAL_TO_VIRTUAL_ADDR(0x34200000UL + 576))) */
 714:Model/face_landmark.c ****   LL_ATON_Cache_MCU_Invalidate_Range(((uintptr_t)(ATON_LIB_PHYSICAL_TO_VIRTUAL_ADDR(0x34200000UL + 
 715:Model/face_landmark.c **** 
 716:Model/face_landmark.c ****   /* Reset the stream switch */
 717:Model/face_landmark.c ****   LL_Switch_Init(NULL, 0);
 718:Model/face_landmark.c **** 
 719:Model/face_landmark.c **** /* Unit= 27 [PROCESSOR 0] */
 720:Model/face_landmark.c **** /* kind=SpaceToDepth node=SpaceToDepth_inserted_id1071 */
 721:Model/face_landmark.c ****   static const uint32_t SpaceToDepth_inserted_id1071_tensor_info_in_109__shape_1_32_3_3[] = { 1, 3,
 722:Model/face_landmark.c ****   static const uint32_t SpaceToDepth_inserted_id1071_tensor_info_in_109__mem_shape_L_1_32_3_3[] = {
 723:Model/face_landmark.c ****   static const float SpaceToDepth_inserted_id1071_tensor_info_in_109_Conv2D_234_zero_off_out_420_co
 724:Model/face_landmark.c ****   static const int16_t SpaceToDepth_inserted_id1071_tensor_info_in_109_Conv2D_234_zero_off_out_420_
 725:Model/face_landmark.c ****   static const LL_Buffer_InfoTypeDef SpaceToDepth_inserted_id1071_tensor_info_in_109[] = {
 726:Model/face_landmark.c ****     {
 727:Model/face_landmark.c ****       .name = "Conv2D_234_zero_off_out_420_copy_in_55",
 728:Model/face_landmark.c ****       .addr_base = {(unsigned char *)(0x34200000UL) /* Equivalent hex address = 0x34200000UL */},
 729:Model/face_landmark.c ****       .offset_start = 576,
 730:Model/face_landmark.c ****       .offset_end = 1152,
 731:Model/face_landmark.c ****       .offset_limit = 1216,
 732:Model/face_landmark.c ****       .is_user_allocated = 0,
 733:Model/face_landmark.c ****       .is_param = 0,
 734:Model/face_landmark.c ****       .epoch = 109,
 735:Model/face_landmark.c ****       .batch = 32,
 736:Model/face_landmark.c ****       .mem_shape = SpaceToDepth_inserted_id1071_tensor_info_in_109__mem_shape_L_1_32_3_3,
 737:Model/face_landmark.c ****       .mem_ndims = 4,
 738:Model/face_landmark.c ****       .chpos = CHPos_Last,
 739:Model/face_landmark.c ****       .Qm = 15,
 740:Model/face_landmark.c ****       .Qn = 0,
 741:Model/face_landmark.c ****       .Qunsigned = 0,
 742:Model/face_landmark.c ****       .type = DataType_INT16,
 743:Model/face_landmark.c ****       .nbits = 16,
 744:Model/face_landmark.c ****       .ndims = 4,
 745:Model/face_landmark.c ****       .shape = SpaceToDepth_inserted_id1071_tensor_info_in_109__shape_1_32_3_3,
 746:Model/face_landmark.c ****       .per_channel = 0,
 747:Model/face_landmark.c ****       .scale = SpaceToDepth_inserted_id1071_tensor_info_in_109_Conv2D_234_zero_off_out_420_copy_in_
 748:Model/face_landmark.c ****       .offset = SpaceToDepth_inserted_id1071_tensor_info_in_109_Conv2D_234_zero_off_out_420_copy_in
 749:Model/face_landmark.c ****     },
 750:Model/face_landmark.c ****     {
 751:Model/face_landmark.c ****       .name = NULL,
 752:Model/face_landmark.c ****     }
 753:Model/face_landmark.c ****   };
 754:Model/face_landmark.c **** 
 755:Model/face_landmark.c ****   static const uint32_t SpaceToDepth_inserted_id1071_tensor_info_out_109__shape_1_288_1_1[] = { 1, 
 756:Model/face_landmark.c ****   static const uint32_t SpaceToDepth_inserted_id1071_tensor_info_out_109__mem_shape_F_1_288_1_1[] =
 757:Model/face_landmark.c ****   static const float SpaceToDepth_inserted_id1071_tensor_info_out_109_Conv2D_234_zero_off_out_420_i
 758:Model/face_landmark.c ****   static const int16_t SpaceToDepth_inserted_id1071_tensor_info_out_109_Conv2D_234_zero_off_out_420
 759:Model/face_landmark.c ****   static const LL_Buffer_InfoTypeDef SpaceToDepth_inserted_id1071_tensor_info_out_109[] = {
 760:Model/face_landmark.c ****     {
 761:Model/face_landmark.c ****       .name = "Conv2D_234_zero_off_out_420_inserted_out1070_cp_in_55",
 762:Model/face_landmark.c ****       .addr_base = {(unsigned char *)(0x34200000UL) /* Equivalent hex address = 0x34200000UL */},
 763:Model/face_landmark.c ****       .offset_start = 0,
 764:Model/face_landmark.c ****       .offset_end = 576,
 765:Model/face_landmark.c ****       .offset_limit = 640,
 766:Model/face_landmark.c ****       .is_user_allocated = 0,
ARM GAS  /tmp/cc4rvpEd.s 			page 15


 767:Model/face_landmark.c ****       .is_param = 0,
 768:Model/face_landmark.c ****       .epoch = 109,
 769:Model/face_landmark.c ****       .batch = 288,
 770:Model/face_landmark.c ****       .mem_shape = SpaceToDepth_inserted_id1071_tensor_info_out_109__mem_shape_F_1_288_1_1,
 771:Model/face_landmark.c ****       .mem_ndims = 4,
 772:Model/face_landmark.c ****       .chpos = CHPos_First,
 773:Model/face_landmark.c ****       .Qm = 15,
 774:Model/face_landmark.c ****       .Qn = 0,
 775:Model/face_landmark.c ****       .Qunsigned = 0,
 776:Model/face_landmark.c ****       .type = DataType_INT16,
 777:Model/face_landmark.c ****       .nbits = 16,
 778:Model/face_landmark.c ****       .ndims = 4,
 779:Model/face_landmark.c ****       .shape = SpaceToDepth_inserted_id1071_tensor_info_out_109__shape_1_288_1_1,
 780:Model/face_landmark.c ****       .per_channel = 0,
 781:Model/face_landmark.c ****       .scale = SpaceToDepth_inserted_id1071_tensor_info_out_109_Conv2D_234_zero_off_out_420_inserte
 782:Model/face_landmark.c ****       .offset = SpaceToDepth_inserted_id1071_tensor_info_out_109_Conv2D_234_zero_off_out_420_insert
 783:Model/face_landmark.c ****     },
 784:Model/face_landmark.c ****     {
 785:Model/face_landmark.c ****       .name = NULL,
 786:Model/face_landmark.c ****     }
 787:Model/face_landmark.c ****   };
 788:Model/face_landmark.c **** 
 789:Model/face_landmark.c ****   LL_ATON_LIB_DMA_SpaceToDepth(SpaceToDepth_inserted_id1071_tensor_info_in_109, 1, SpaceToDepth_ins
 790:Model/face_landmark.c **** 
 791:Model/face_landmark.c ****   /* *** MCU cache clean (only) operation (SW, whole range) *** */
 792:Model/face_landmark.c ****   /*     memory pool: 8 */
 793:Model/face_landmark.c ****   /*     start: ((uintptr_t)(ATON_LIB_PHYSICAL_TO_VIRTUAL_ADDR(0x34200000UL + 0))) */
 794:Model/face_landmark.c ****   /*     end:   ((uintptr_t)(ATON_LIB_PHYSICAL_TO_VIRTUAL_ADDR(0x34200000UL + 576))) */
 795:Model/face_landmark.c ****   LL_ATON_Cache_MCU_Clean_Range(((uintptr_t)(ATON_LIB_PHYSICAL_TO_VIRTUAL_ADDR(0x34200000UL + 0))) 
 796:Model/face_landmark.c **** 
 797:Model/face_landmark.c **** }
 798:Model/face_landmark.c **** 
 799:Model/face_landmark.c **** 
 800:Model/face_landmark.c **** // Epoch Controller Blob (name='_ec_blob_face_landmark_110') micro instructions needed
 801:Model/face_landmark.c **** 
 802:Model/face_landmark.c **** // Epoch Controller Blob (name='_ec_blob_face_landmark_110') start function
 803:Model/face_landmark.c **** static void _ec_blob_cache_start_func_110(const void *epoch_block) {
  34              		.loc 1 803 68 view -0
  35              		.cfi_startproc
  36              		@ args = 0, pretend = 0, frame = 0
  37              		@ frame_needed = 0, uses_anonymous_args = 0
  38              		@ link register save eliminated.
 804:Model/face_landmark.c ****   LL_ATON_LIB_UNUSED(epoch_block);
  39              		.loc 1 804 3 view .LVU1
 805:Model/face_landmark.c **** 
 806:Model/face_landmark.c ****   /* *** MCU cache invalidate (only) operation (HW, whole range) *** */
 807:Model/face_landmark.c ****   /*     memory pool: 8 */
 808:Model/face_landmark.c ****   /*     start: ((uintptr_t)(ATON_LIB_PHYSICAL_TO_VIRTUAL_ADDR(0x34200000UL + 5600))) */
 809:Model/face_landmark.c ****   /*     end:   ((uintptr_t)(ATON_LIB_PHYSICAL_TO_VIRTUAL_ADDR(0x34200000UL + 7040))) */
 810:Model/face_landmark.c ****   LL_ATON_Cache_MCU_Invalidate_Range(((uintptr_t)(ATON_LIB_PHYSICAL_TO_VIRTUAL_ADDR(0x34200000UL + 
  40              		.loc 1 810 3 view .LVU2
  41              	.LBB52:
  42              	.LBI52:
  43              		.file 2 "Lib/AI_Runtime/Npu/ll_aton/ll_aton_caches_interface.h"
   1:Lib/AI_Runtime/Npu/ll_aton/ll_aton_caches_interface.h **** /**
   2:Lib/AI_Runtime/Npu/ll_aton/ll_aton_caches_interface.h ****  ******************************************************************************
   3:Lib/AI_Runtime/Npu/ll_aton/ll_aton_caches_interface.h ****  * @file    ll_aton_caches_interface.h
ARM GAS  /tmp/cc4rvpEd.s 			page 16


   4:Lib/AI_Runtime/Npu/ll_aton/ll_aton_caches_interface.h ****  * @author  SRA Artificial Intelligence & Embedded Architectures
   5:Lib/AI_Runtime/Npu/ll_aton/ll_aton_caches_interface.h ****  * @brief   Header file for defining an implementing generic cache handling
   6:Lib/AI_Runtime/Npu/ll_aton/ll_aton_caches_interface.h ****  *          functions for the application writer
   7:Lib/AI_Runtime/Npu/ll_aton/ll_aton_caches_interface.h ****  ******************************************************************************
   8:Lib/AI_Runtime/Npu/ll_aton/ll_aton_caches_interface.h ****  * @attention
   9:Lib/AI_Runtime/Npu/ll_aton/ll_aton_caches_interface.h ****  *
  10:Lib/AI_Runtime/Npu/ll_aton/ll_aton_caches_interface.h ****  * Copyright (c) 2024 STMicroelectronics.
  11:Lib/AI_Runtime/Npu/ll_aton/ll_aton_caches_interface.h ****  * All rights reserved.
  12:Lib/AI_Runtime/Npu/ll_aton/ll_aton_caches_interface.h ****  *
  13:Lib/AI_Runtime/Npu/ll_aton/ll_aton_caches_interface.h ****  * This software is licensed under terms that can be found in the LICENSE file
  14:Lib/AI_Runtime/Npu/ll_aton/ll_aton_caches_interface.h ****  * in the root directory of this software component.
  15:Lib/AI_Runtime/Npu/ll_aton/ll_aton_caches_interface.h ****  * If no LICENSE file comes with this software, it is provided AS-IS.
  16:Lib/AI_Runtime/Npu/ll_aton/ll_aton_caches_interface.h ****  *
  17:Lib/AI_Runtime/Npu/ll_aton/ll_aton_caches_interface.h ****  ******************************************************************************
  18:Lib/AI_Runtime/Npu/ll_aton/ll_aton_caches_interface.h ****  */
  19:Lib/AI_Runtime/Npu/ll_aton/ll_aton_caches_interface.h **** 
  20:Lib/AI_Runtime/Npu/ll_aton/ll_aton_caches_interface.h **** #ifndef __LL_ATON_CACHES_H
  21:Lib/AI_Runtime/Npu/ll_aton/ll_aton_caches_interface.h **** #define __LL_ATON_CACHES_H
  22:Lib/AI_Runtime/Npu/ll_aton/ll_aton_caches_interface.h **** 
  23:Lib/AI_Runtime/Npu/ll_aton/ll_aton_caches_interface.h **** #include <stdint.h>
  24:Lib/AI_Runtime/Npu/ll_aton/ll_aton_caches_interface.h **** 
  25:Lib/AI_Runtime/Npu/ll_aton/ll_aton_caches_interface.h **** #ifdef __cplusplus
  26:Lib/AI_Runtime/Npu/ll_aton/ll_aton_caches_interface.h **** extern "C"
  27:Lib/AI_Runtime/Npu/ll_aton/ll_aton_caches_interface.h **** {
  28:Lib/AI_Runtime/Npu/ll_aton/ll_aton_caches_interface.h **** #endif
  29:Lib/AI_Runtime/Npu/ll_aton/ll_aton_caches_interface.h **** 
  30:Lib/AI_Runtime/Npu/ll_aton/ll_aton_caches_interface.h **** #include "ll_aton_osal.h"
  31:Lib/AI_Runtime/Npu/ll_aton/ll_aton_caches_interface.h **** #include "ll_aton_platform.h"
  32:Lib/AI_Runtime/Npu/ll_aton/ll_aton_caches_interface.h **** 
  33:Lib/AI_Runtime/Npu/ll_aton/ll_aton_caches_interface.h **** #if !defined(BUILD_AI_NETWORK_RELOC)
  34:Lib/AI_Runtime/Npu/ll_aton/ll_aton_caches_interface.h **** 
  35:Lib/AI_Runtime/Npu/ll_aton/ll_aton_caches_interface.h **** #if (LL_ATON_PLATFORM == LL_ATON_PLAT_STM32N6)
  36:Lib/AI_Runtime/Npu/ll_aton/ll_aton_caches_interface.h **** 
  37:Lib/AI_Runtime/Npu/ll_aton/ll_aton_caches_interface.h ****   /*** MCU cache maintenance functions ***/
  38:Lib/AI_Runtime/Npu/ll_aton/ll_aton_caches_interface.h **** 
  39:Lib/AI_Runtime/Npu/ll_aton/ll_aton_caches_interface.h ****   /**
  40:Lib/AI_Runtime/Npu/ll_aton/ll_aton_caches_interface.h ****    * @brief perform MCU cache clean maintenance operation on an address range
  41:Lib/AI_Runtime/Npu/ll_aton/ll_aton_caches_interface.h ****    * @details whenever the content of a buffer is changed by the application (which is especially t
  42:Lib/AI_Runtime/Npu/ll_aton/ll_aton_caches_interface.h ****    *          buffers) cache maintenance MUST be taken into account before being able to run the ne
  43:Lib/AI_Runtime/Npu/ll_aton/ll_aton_caches_interface.h ****    * @param[in] virtual_addr start address (host-side/virtual) of address range
  44:Lib/AI_Runtime/Npu/ll_aton/ll_aton_caches_interface.h ****    * @param[in] size size of address range
  45:Lib/AI_Runtime/Npu/ll_aton/ll_aton_caches_interface.h ****    *
  46:Lib/AI_Runtime/Npu/ll_aton/ll_aton_caches_interface.h ****    * @note the address range should fulfill alignment constraints with respect to the MCU cache lin
  47:Lib/AI_Runtime/Npu/ll_aton/ll_aton_caches_interface.h ****    *       for both its `address` & `size` (to better correspond to what this operation will actual
  48:Lib/AI_Runtime/Npu/ll_aton/ll_aton_caches_interface.h ****    * @note this function is intended to handle the case where a buffer has been filled by the MCU/p
  49:Lib/AI_Runtime/Npu/ll_aton/ll_aton_caches_interface.h ****    *       passing thru the MCU cache) and should be called AFTER that the buffer has been filled
  50:Lib/AI_Runtime/Npu/ll_aton/ll_aton_caches_interface.h ****    */
  51:Lib/AI_Runtime/Npu/ll_aton/ll_aton_caches_interface.h ****   static inline void LL_ATON_Cache_MCU_Clean_Range(uintptr_t virtual_addr, uint32_t size)
  52:Lib/AI_Runtime/Npu/ll_aton/ll_aton_caches_interface.h ****   {
  53:Lib/AI_Runtime/Npu/ll_aton/ll_aton_caches_interface.h ****     LL_ATON_OSAL_LOCK_MCU_CACHE();
  54:Lib/AI_Runtime/Npu/ll_aton/ll_aton_caches_interface.h ****     mcu_cache_clean_range(virtual_addr, virtual_addr + size);
  55:Lib/AI_Runtime/Npu/ll_aton/ll_aton_caches_interface.h ****     LL_ATON_OSAL_UNLOCK_MCU_CACHE();
  56:Lib/AI_Runtime/Npu/ll_aton/ll_aton_caches_interface.h ****   }
  57:Lib/AI_Runtime/Npu/ll_aton/ll_aton_caches_interface.h **** 
  58:Lib/AI_Runtime/Npu/ll_aton/ll_aton_caches_interface.h ****   /**
  59:Lib/AI_Runtime/Npu/ll_aton/ll_aton_caches_interface.h ****    * @brief perform MCU cache invalidate maintenance operation on an address range
  60:Lib/AI_Runtime/Npu/ll_aton/ll_aton_caches_interface.h ****    * @details whenever the content of a buffer is changed by the application (which is especially t
ARM GAS  /tmp/cc4rvpEd.s 			page 17


  61:Lib/AI_Runtime/Npu/ll_aton/ll_aton_caches_interface.h ****    *          buffers) cache maintenance MUST be taken into account before being able to run the ne
  62:Lib/AI_Runtime/Npu/ll_aton/ll_aton_caches_interface.h ****    * @param[in] virtual_addr start address (host-side/virtual) of address range
  63:Lib/AI_Runtime/Npu/ll_aton/ll_aton_caches_interface.h ****    * @param[in] size size of address range
  64:Lib/AI_Runtime/Npu/ll_aton/ll_aton_caches_interface.h ****    *
  65:Lib/AI_Runtime/Npu/ll_aton/ll_aton_caches_interface.h ****    * @note the address range should fulfill alignment constraints with respect to the MCU cache lin
  66:Lib/AI_Runtime/Npu/ll_aton/ll_aton_caches_interface.h ****    *       for both its `address` & `size` (to better correspond to what this operation will actual
  67:Lib/AI_Runtime/Npu/ll_aton/ll_aton_caches_interface.h ****    * @note this function is intended to handle the case where a buffer has been filled by-passing t
  68:Lib/AI_Runtime/Npu/ll_aton/ll_aton_caches_interface.h ****    *       cache (e.g. using a DMA) and should be called BEFORE the buffer gets filled
  69:Lib/AI_Runtime/Npu/ll_aton/ll_aton_caches_interface.h ****    */
  70:Lib/AI_Runtime/Npu/ll_aton/ll_aton_caches_interface.h ****   static inline void LL_ATON_Cache_MCU_Invalidate_Range(uintptr_t virtual_addr, uint32_t size)
  44              		.loc 2 70 22 view .LVU3
  45              	.LBB53:
  71:Lib/AI_Runtime/Npu/ll_aton/ll_aton_caches_interface.h ****   {
  72:Lib/AI_Runtime/Npu/ll_aton/ll_aton_caches_interface.h ****     LL_ATON_OSAL_LOCK_MCU_CACHE();
  46              		.loc 2 72 34 view .LVU4
  73:Lib/AI_Runtime/Npu/ll_aton/ll_aton_caches_interface.h ****     mcu_cache_invalidate_range(virtual_addr, virtual_addr + size);
  47              		.loc 2 73 5 view .LVU5
  48 0000 0149     		ldr	r1, .L2
  49 0002 0248     		ldr	r0, .L2+4
  50              	.LVL1:
  51              		.loc 2 73 5 is_stmt 0 view .LVU6
  52 0004 FFF7FEBF 		b	mcu_cache_invalidate_range
  53              	.LVL2:
  54              	.L3:
  55              		.align	2
  56              	.L2:
  57 0008 801B2034 		.word	874519424
  58 000c E0152034 		.word	874517984
  59              	.LBE53:
  60              	.LBE52:
  61              		.cfi_endproc
  62              	.LFE4858:
  64              		.section	.text._ec_blob_cache_start_func_95,"ax",%progbits
  65              		.align	1
  66              		.syntax unified
  67              		.thumb
  68              		.thumb_func
  70              	_ec_blob_cache_start_func_95:
  71              	.LVL3:
  72              	.LFB4856:
 692:Model/face_landmark.c ****   LL_ATON_LIB_UNUSED(epoch_block);
  73              		.loc 1 692 67 is_stmt 1 view -0
  74              		.cfi_startproc
  75              		@ args = 0, pretend = 0, frame = 0
  76              		@ frame_needed = 0, uses_anonymous_args = 0
  77              		@ link register save eliminated.
 693:Model/face_landmark.c **** 
  78              		.loc 1 693 3 view .LVU8
 699:Model/face_landmark.c **** 
  79              		.loc 1 699 3 view .LVU9
  80              	.LBB54:
  81              	.LBI54:
  70:Lib/AI_Runtime/Npu/ll_aton/ll_aton_caches_interface.h ****   {
  82              		.loc 2 70 22 view .LVU10
  83              	.LBB55:
  72:Lib/AI_Runtime/Npu/ll_aton/ll_aton_caches_interface.h ****     mcu_cache_invalidate_range(virtual_addr, virtual_addr + size);
  84              		.loc 2 72 34 view .LVU11
ARM GAS  /tmp/cc4rvpEd.s 			page 18


  85              		.loc 2 73 5 view .LVU12
  86 0000 0149     		ldr	r1, .L5
  87 0002 0248     		ldr	r0, .L5+4
  88              	.LVL4:
  89              		.loc 2 73 5 is_stmt 0 view .LVU13
  90 0004 FFF7FEBF 		b	mcu_cache_invalidate_range
  91              	.LVL5:
  92              	.L6:
  93              		.align	2
  94              	.L5:
  95 0008 80042034 		.word	874513536
  96 000c 40022034 		.word	874512960
  97              	.LBE55:
  98              	.LBE54:
  99              		.cfi_endproc
 100              	.LFE4856:
 102              		.section	.text._ec_blob_cache_start_func_93,"ax",%progbits
 103              		.align	1
 104              		.syntax unified
 105              		.thumb
 106              		.thumb_func
 108              	_ec_blob_cache_start_func_93:
 109              	.LVL6:
 110              	.LFB4854:
 614:Model/face_landmark.c ****   LL_ATON_LIB_UNUSED(epoch_block);
 111              		.loc 1 614 67 is_stmt 1 view -0
 112              		.cfi_startproc
 113              		@ args = 0, pretend = 0, frame = 0
 114              		@ frame_needed = 0, uses_anonymous_args = 0
 115              		@ link register save eliminated.
 615:Model/face_landmark.c **** 
 116              		.loc 1 615 3 view .LVU15
 621:Model/face_landmark.c **** 
 117              		.loc 1 621 3 view .LVU16
 118              	.LBB56:
 119              	.LBI56:
  70:Lib/AI_Runtime/Npu/ll_aton/ll_aton_caches_interface.h ****   {
 120              		.loc 2 70 22 view .LVU17
 121              	.LBB57:
  72:Lib/AI_Runtime/Npu/ll_aton/ll_aton_caches_interface.h ****     mcu_cache_invalidate_range(virtual_addr, virtual_addr + size);
 122              		.loc 2 72 34 view .LVU18
 123              		.loc 2 73 5 view .LVU19
 124 0000 0149     		ldr	r1, .L8
 125 0002 0248     		ldr	r0, .L8+4
 126              	.LVL7:
 127              		.loc 2 73 5 is_stmt 0 view .LVU20
 128 0004 FFF7FEBF 		b	mcu_cache_invalidate_range
 129              	.LVL8:
 130              	.L9:
 131              		.align	2
 132              	.L8:
 133 0008 60142034 		.word	874517600
 134 000c 40142034 		.word	874517568
 135              	.LBE57:
 136              	.LBE56:
 137              		.cfi_endproc
 138              	.LFE4854:
ARM GAS  /tmp/cc4rvpEd.s 			page 19


 140              		.section	.text._ec_blob_cache_start_func_48,"ax",%progbits
 141              		.align	1
 142              		.syntax unified
 143              		.thumb
 144              		.thumb_func
 146              	_ec_blob_cache_start_func_48:
 147              	.LVL9:
 148              	.LFB4852:
 503:Model/face_landmark.c ****   LL_ATON_LIB_UNUSED(epoch_block);
 149              		.loc 1 503 67 is_stmt 1 view -0
 150              		.cfi_startproc
 151              		@ args = 0, pretend = 0, frame = 0
 152              		@ frame_needed = 0, uses_anonymous_args = 0
 153              		@ link register save eliminated.
 504:Model/face_landmark.c **** 
 154              		.loc 1 504 3 view .LVU22
 510:Model/face_landmark.c **** 
 155              		.loc 1 510 3 view .LVU23
 156              	.LBB58:
 157              	.LBI58:
  70:Lib/AI_Runtime/Npu/ll_aton/ll_aton_caches_interface.h ****   {
 158              		.loc 2 70 22 view .LVU24
 159              	.LBB59:
  72:Lib/AI_Runtime/Npu/ll_aton/ll_aton_caches_interface.h ****     mcu_cache_invalidate_range(virtual_addr, virtual_addr + size);
 160              		.loc 2 72 34 view .LVU25
 161              		.loc 2 73 5 view .LVU26
 162 0000 0149     		ldr	r1, .L11
 163 0002 0248     		ldr	r0, .L11+4
 164              	.LVL10:
 165              		.loc 2 73 5 is_stmt 0 view .LVU27
 166 0004 FFF7FEBF 		b	mcu_cache_invalidate_range
 167              	.LVL11:
 168              	.L12:
 169              		.align	2
 170              	.L11:
 171 0008 400B2034 		.word	874515264
 172 000c 00092034 		.word	874514688
 173              	.LBE59:
 174              	.LBE58:
 175              		.cfi_endproc
 176              	.LFE4852:
 178              		.section	.text._ec_blob_cache_start_func_32,"ax",%progbits
 179              		.align	1
 180              		.syntax unified
 181              		.thumb
 182              		.thumb_func
 184              	_ec_blob_cache_start_func_32:
 185              	.LVL12:
 186              	.LFB4850:
 420:Model/face_landmark.c ****   LL_ATON_LIB_UNUSED(epoch_block);
 187              		.loc 1 420 67 is_stmt 1 view -0
 188              		.cfi_startproc
 189              		@ args = 0, pretend = 0, frame = 0
 190              		@ frame_needed = 0, uses_anonymous_args = 0
 191              		@ link register save eliminated.
 421:Model/face_landmark.c **** 
 192              		.loc 1 421 3 view .LVU29
ARM GAS  /tmp/cc4rvpEd.s 			page 20


 427:Model/face_landmark.c **** 
 193              		.loc 1 427 3 view .LVU30
 194              	.LBB60:
 195              	.LBI60:
  70:Lib/AI_Runtime/Npu/ll_aton/ll_aton_caches_interface.h ****   {
 196              		.loc 2 70 22 view .LVU31
 197              	.LBB61:
  72:Lib/AI_Runtime/Npu/ll_aton/ll_aton_caches_interface.h ****     mcu_cache_invalidate_range(virtual_addr, virtual_addr + size);
 198              		.loc 2 72 34 view .LVU32
 199              		.loc 2 73 5 view .LVU33
 200 0000 0149     		ldr	r1, .L14
 201 0002 0248     		ldr	r0, .L14+4
 202              	.LVL13:
 203              		.loc 2 73 5 is_stmt 0 view .LVU34
 204 0004 FFF7FEBF 		b	mcu_cache_invalidate_range
 205              	.LVL14:
 206              	.L15:
 207              		.align	2
 208              	.L14:
 209 0008 00482034 		.word	874530816
 210 000c 00002034 		.word	874512384
 211              	.LBE61:
 212              	.LBE60:
 213              		.cfi_endproc
 214              	.LFE4850:
 216              		.section	.text._ec_blob_cache_start_func_16,"ax",%progbits
 217              		.align	1
 218              		.syntax unified
 219              		.thumb
 220              		.thumb_func
 222              	_ec_blob_cache_start_func_16:
 223              	.LVL15:
 224              	.LFB4848:
 337:Model/face_landmark.c ****   LL_ATON_LIB_UNUSED(epoch_block);
 225              		.loc 1 337 67 is_stmt 1 view -0
 226              		.cfi_startproc
 227              		@ args = 0, pretend = 0, frame = 0
 228              		@ frame_needed = 0, uses_anonymous_args = 0
 229              		@ link register save eliminated.
 338:Model/face_landmark.c **** 
 230              		.loc 1 338 3 view .LVU36
 344:Model/face_landmark.c **** 
 231              		.loc 1 344 3 view .LVU37
 232              	.LBB62:
 233              	.LBI62:
  70:Lib/AI_Runtime/Npu/ll_aton/ll_aton_caches_interface.h ****   {
 234              		.loc 2 70 22 view .LVU38
 235              	.LBB63:
  72:Lib/AI_Runtime/Npu/ll_aton/ll_aton_caches_interface.h ****     mcu_cache_invalidate_range(virtual_addr, virtual_addr + size);
 236              		.loc 2 72 34 view .LVU39
 237              		.loc 2 73 5 view .LVU40
 238 0000 0149     		ldr	r1, .L17
 239 0002 0248     		ldr	r0, .L17+4
 240              	.LVL16:
 241              		.loc 2 73 5 is_stmt 0 view .LVU41
 242 0004 FFF7FEBF 		b	mcu_cache_invalidate_range
 243              	.LVL17:
ARM GAS  /tmp/cc4rvpEd.s 			page 21


 244              	.L18:
 245              		.align	2
 246              	.L17:
 247 0008 00902034 		.word	874549248
 248 000c 00002034 		.word	874512384
 249              	.LBE63:
 250              	.LBE62:
 251              		.cfi_endproc
 252              	.LFE4848:
 254              		.section	.text._ec_blob_cache_start_func_13,"ax",%progbits
 255              		.align	1
 256              		.syntax unified
 257              		.thumb
 258              		.thumb_func
 260              	_ec_blob_cache_start_func_13:
 261              	.LVL18:
 262              	.LFB4846:
 254:Model/face_landmark.c ****   LL_ATON_LIB_UNUSED(epoch_block);
 263              		.loc 1 254 67 is_stmt 1 view -0
 264              		.cfi_startproc
 265              		@ args = 0, pretend = 0, frame = 0
 266              		@ frame_needed = 0, uses_anonymous_args = 0
 267              		@ link register save eliminated.
 255:Model/face_landmark.c **** 
 268              		.loc 1 255 3 view .LVU43
 261:Model/face_landmark.c **** 
 269              		.loc 1 261 3 view .LVU44
 270              	.LBB64:
 271              	.LBI64:
  70:Lib/AI_Runtime/Npu/ll_aton/ll_aton_caches_interface.h ****   {
 272              		.loc 2 70 22 view .LVU45
 273              	.LBB65:
  72:Lib/AI_Runtime/Npu/ll_aton/ll_aton_caches_interface.h ****     mcu_cache_invalidate_range(virtual_addr, virtual_addr + size);
 274              		.loc 2 72 34 view .LVU46
 275              		.loc 2 73 5 view .LVU47
 276 0000 0149     		ldr	r1, .L20
 277 0002 0248     		ldr	r0, .L20+4
 278              	.LVL19:
 279              		.loc 2 73 5 is_stmt 0 view .LVU48
 280 0004 FFF7FEBF 		b	mcu_cache_invalidate_range
 281              	.LVL20:
 282              	.L21:
 283              		.align	2
 284              	.L20:
 285 0008 00402234 		.word	874659840
 286 000c 00202134 		.word	874586112
 287              	.LBE65:
 288              	.LBE64:
 289              		.cfi_endproc
 290              	.LFE4846:
 292              		.section	.text._ec_blob_cache_start_func_3,"ax",%progbits
 293              		.align	1
 294              		.syntax unified
 295              		.thumb
 296              		.thumb_func
 298              	_ec_blob_cache_start_func_3:
 299              	.LVL21:
ARM GAS  /tmp/cc4rvpEd.s 			page 22


 300              	.LFB4844:
 171:Model/face_landmark.c ****   LL_ATON_LIB_UNUSED(epoch_block);
 301              		.loc 1 171 66 is_stmt 1 view -0
 302              		.cfi_startproc
 303              		@ args = 0, pretend = 0, frame = 0
 304              		@ frame_needed = 0, uses_anonymous_args = 0
 305              		@ link register save eliminated.
 172:Model/face_landmark.c **** 
 306              		.loc 1 172 3 view .LVU50
 178:Model/face_landmark.c **** 
 307              		.loc 1 178 3 view .LVU51
 308              	.LBB66:
 309              	.LBI66:
  70:Lib/AI_Runtime/Npu/ll_aton/ll_aton_caches_interface.h ****   {
 310              		.loc 2 70 22 view .LVU52
 311              	.LBB67:
  72:Lib/AI_Runtime/Npu/ll_aton/ll_aton_caches_interface.h ****     mcu_cache_invalidate_range(virtual_addr, virtual_addr + size);
 312              		.loc 2 72 34 view .LVU53
 313              		.loc 2 73 5 view .LVU54
 314 0000 0149     		ldr	r1, .L23
 315 0002 0248     		ldr	r0, .L23+4
 316              	.LVL22:
 317              		.loc 2 73 5 is_stmt 0 view .LVU55
 318 0004 FFF7FEBF 		b	mcu_cache_invalidate_range
 319              	.LVL23:
 320              	.L24:
 321              		.align	2
 322              	.L23:
 323 0008 00B02134 		.word	874622976
 324 000c 00202134 		.word	874586112
 325              	.LBE67:
 326              	.LBE66:
 327              		.cfi_endproc
 328              	.LFE4844:
 330              		.section	.text.LL_ATON_End_EpochBlock_111,"ax",%progbits
 331              		.align	1
 332              		.syntax unified
 333              		.thumb
 334              		.thumb_func
 336              	LL_ATON_End_EpochBlock_111:
 337              	.LVL24:
 338              	.LFB4859:
 811:Model/face_landmark.c **** 
 812:Model/face_landmark.c **** };
 813:Model/face_landmark.c **** 
 814:Model/face_landmark.c **** 
 815:Model/face_landmark.c **** /* scheduling epoch=111  nodes=1   ----------------------------------------------------------------
 816:Model/face_landmark.c **** 
 817:Model/face_landmark.c **** static void LL_ATON_End_EpochBlock_111(const void *epoch_block)
 818:Model/face_landmark.c **** {
 339              		.loc 1 818 1 is_stmt 1 view -0
 340              		.cfi_startproc
 341              		@ args = 0, pretend = 0, frame = 184
 342              		@ frame_needed = 0, uses_anonymous_args = 0
 819:Model/face_landmark.c ****   LL_ATON_LIB_UNUSED(epoch_block);
 343              		.loc 1 819 3 view .LVU57
 820:Model/face_landmark.c **** 
ARM GAS  /tmp/cc4rvpEd.s 			page 23


 821:Model/face_landmark.c ****   /* *** MCU cache invalidate (only) operation for unaligned buffer end address (last line) *** */
 822:Model/face_landmark.c ****   /*     memory pool: 8 */
 823:Model/face_landmark.c ****   /*     start: ((uintptr_t)(ATON_LIB_PHYSICAL_TO_VIRTUAL_ADDR(0x34200000UL + 5600))) */
 824:Model/face_landmark.c ****   /*     end:   ((uintptr_t)(ATON_LIB_PHYSICAL_TO_VIRTUAL_ADDR(0x34200000UL + 5632))) */
 825:Model/face_landmark.c ****   LL_ATON_Cache_MCU_Invalidate_Range(((uintptr_t)(ATON_LIB_PHYSICAL_TO_VIRTUAL_ADDR(0x34200000UL + 
 344              		.loc 1 825 3 view .LVU58
 345              	.LBB68:
 346              	.LBI68:
  70:Lib/AI_Runtime/Npu/ll_aton/ll_aton_caches_interface.h ****   {
 347              		.loc 2 70 22 view .LVU59
 348              	.LBB69:
  72:Lib/AI_Runtime/Npu/ll_aton/ll_aton_caches_interface.h ****     mcu_cache_invalidate_range(virtual_addr, virtual_addr + size);
 349              		.loc 2 72 34 view .LVU60
 350              		.loc 2 73 5 view .LVU61
 351              	.LBE69:
 352              	.LBE68:
 818:Model/face_landmark.c ****   LL_ATON_LIB_UNUSED(epoch_block);
 353              		.loc 1 818 1 is_stmt 0 view .LVU62
 354 0000 30B5     		push	{r4, r5, lr}
 355              		.cfi_def_cfa_offset 12
 356              		.cfi_offset 4, -12
 357              		.cfi_offset 5, -8
 358              		.cfi_offset 14, -4
 359              	.LBB72:
 360              	.LBB70:
 361              		.loc 2 73 5 view .LVU63
 362 0002 214D     		ldr	r5, .L26
 363              	.LBE70:
 364              	.LBE72:
 818:Model/face_landmark.c ****   LL_ATON_LIB_UNUSED(epoch_block);
 365              		.loc 1 818 1 view .LVU64
 366 0004 AFB0     		sub	sp, sp, #188
 367              		.cfi_def_cfa_offset 200
 368              	.LBB73:
 369              	.LBB71:
 370              		.loc 2 73 5 view .LVU65
 371 0006 2946     		mov	r1, r5
 372 0008 2048     		ldr	r0, .L26+4
 373              	.LVL25:
 374              		.loc 2 73 5 view .LVU66
 375 000a FFF7FEFF 		bl	mcu_cache_invalidate_range
 376              	.LVL26:
  74:Lib/AI_Runtime/Npu/ll_aton/ll_aton_caches_interface.h ****     LL_ATON_OSAL_UNLOCK_MCU_CACHE();
 377              		.loc 2 74 36 is_stmt 1 view .LVU67
 378              		.loc 2 74 36 is_stmt 0 view .LVU68
 379              	.LBE71:
 380              	.LBE73:
 826:Model/face_landmark.c **** 
 827:Model/face_landmark.c **** 
 828:Model/face_landmark.c **** /* Unit= 27 [PROCESSOR 0] */
 829:Model/face_landmark.c **** /* kind=DequantizeLinear node=Dequantize_236 */
 830:Model/face_landmark.c ****   Dequantizelinear_sw_info dequantizelinear3_sw_info = {
 381              		.loc 1 830 3 is_stmt 1 view .LVU69
 382              		.loc 1 830 28 is_stmt 0 view .LVU70
 383 000e B422     		movs	r2, #180
 384 0010 0021     		movs	r1, #0
 385 0012 01A8     		add	r0, sp, #4
ARM GAS  /tmp/cc4rvpEd.s 			page 24


 386 0014 FFF7FEFF 		bl	memset
 387              	.LVL27:
 388 0018 2A23     		movs	r3, #42
 389 001a 40F27C52 		movw	r2, #1404
 390 001e 8DF80430 		strb	r3, [sp, #4]
 391 0022 0123     		movs	r3, #1
 392 0024 1A49     		ldr	r1, .L26+8
 393 0026 CDE90423 		strd	r2, r3, [sp, #16]
 394 002a CDE90823 		strd	r2, r3, [sp, #32]
 395 002e CDE90F23 		strd	r2, r3, [sp, #60]
 396 0032 CDE90622 		strd	r2, r2, [sp, #24]
 397 0036 0A92     		str	r2, [sp, #40]
 398 0038 0B91     		str	r1, [sp, #44]
 399 003a 1192     		str	r2, [sp, #68]
 400 003c 0421     		movs	r1, #4
 401 003e 41F2F052 		movw	r2, #5616
 402 0042 CDE91412 		strd	r1, r2, [sp, #80]
 403 0046 CDE91222 		strd	r2, r2, [sp, #72]
 404 004a 124A     		ldr	r2, .L26+12
 405 004c 124C     		ldr	r4, .L26+16
 831:Model/face_landmark.c ****     /* "general.input" tensor-related info: */
 832:Model/face_landmark.c ****     .general.input.dim.tensor_b = 1,
 833:Model/face_landmark.c ****     .general.input.dim.tensor_h = 1,
 834:Model/face_landmark.c ****     .general.input.dim.tensor_w = 1,
 835:Model/face_landmark.c ****     .general.input.dim.tensor_c = 1404,
 836:Model/face_landmark.c ****     .general.input.dim.num_elem = 1404,
 837:Model/face_landmark.c ****     .general.input.stride.b = 1404,
 838:Model/face_landmark.c ****     .general.input.stride.h = 1404,
 839:Model/face_landmark.c ****     .general.input.stride.w = 1404,
 840:Model/face_landmark.c ****     .general.input.stride.c = 1,
 841:Model/face_landmark.c ****     .general.input.mem.start_offset = ((unsigned char *)(ATON_LIB_PHYSICAL_TO_VIRTUAL_ADDR(0x342000
 842:Model/face_landmark.c ****     .general.input.format.is_signed = 1,
 843:Model/face_landmark.c ****     /* "is" tensor-related info: */
 844:Model/face_landmark.c ****     .is.mem.start_offset = ((unsigned char *)(ATON_LIB_PHYSICAL_TO_VIRTUAL_ADDR(0x70380000UL + 6430
 845:Model/face_landmark.c ****     .is.format.is_signed = 1,
 846:Model/face_landmark.c ****     .is.dim.num_elem = 1,
 847:Model/face_landmark.c ****     /* "izp" tensor-related info: */
 848:Model/face_landmark.c ****     .izp.mem.start_offset = ((unsigned char *)(ATON_LIB_PHYSICAL_TO_VIRTUAL_ADDR(0x70380000UL + 643
 849:Model/face_landmark.c ****     .izp.format.is_signed = 1,
 850:Model/face_landmark.c ****     .izp.dim.num_elem = 1,
 851:Model/face_landmark.c ****     /* "general.output" tensor-related info: */
 852:Model/face_landmark.c ****     .general.output.dim.tensor_b = 1,
 853:Model/face_landmark.c ****     .general.output.dim.tensor_h = 1,
 854:Model/face_landmark.c ****     .general.output.dim.tensor_w = 1,
 855:Model/face_landmark.c ****     .general.output.dim.tensor_c = 1404,
 856:Model/face_landmark.c ****     .general.output.dim.num_elem = 1404,
 857:Model/face_landmark.c ****     .general.output.stride.b = 5616,
 858:Model/face_landmark.c ****     .general.output.stride.h = 5616,
 859:Model/face_landmark.c ****     .general.output.stride.w = 5616,
 860:Model/face_landmark.c ****     .general.output.stride.c = 4,
 861:Model/face_landmark.c ****     .general.output.mem.start_offset = ((unsigned char *)(ATON_LIB_PHYSICAL_TO_VIRTUAL_ADDR(0x34200
 862:Model/face_landmark.c ****     .general.output.format.is_signed = 1,
 863:Model/face_landmark.c ****     .general.type = LL_SW_DEQUANTIZELINEAR,
 864:Model/face_landmark.c ****   };
 865:Model/face_landmark.c **** 
 866:Model/face_landmark.c ****   /* Low Level SW Layer function invocation. This will exploit EmbedNets libs) */
 867:Model/face_landmark.c ****   /* Node Dequantize_236 mapped on EmbedNets (INTEGER) as DequantizeLinear | Category: Format-Conve
ARM GAS  /tmp/cc4rvpEd.s 			page 25


 868:Model/face_landmark.c ****   ll_sw_forward_dequantizelinear(&dequantizelinear3_sw_info);
 406              		.loc 1 868 3 view .LVU71
 407 004e 0DEB0100 		add	r0, sp, r1
 830:Model/face_landmark.c ****     /* "general.input" tensor-related info: */
 408              		.loc 1 830 28 view .LVU72
 409 0052 2192     		str	r2, [sp, #132]
 410 0054 3032     		adds	r2, r2, #48
 411 0056 CDE90233 		strd	r3, r3, [sp, #8]
 412 005a CDE90D33 		strd	r3, r3, [sp, #52]
 413 005e 8DF83030 		strb	r3, [sp, #48]
 414 0062 8DF85C30 		strb	r3, [sp, #92]
 415 0066 1C93     		str	r3, [sp, #112]
 416 0068 8DF88830 		strb	r3, [sp, #136]
 417 006c 2793     		str	r3, [sp, #156]
 418 006e 2C92     		str	r2, [sp, #176]
 419 0070 8DF8B430 		strb	r3, [sp, #180]
 420              		.loc 1 868 3 is_stmt 1 view .LVU73
 830:Model/face_landmark.c ****     /* "general.input" tensor-related info: */
 421              		.loc 1 830 28 is_stmt 0 view .LVU74
 422 0074 1694     		str	r4, [sp, #88]
 423              		.loc 1 868 3 view .LVU75
 424 0076 FFF7FEFF 		bl	ll_sw_forward_dequantizelinear
 425              	.LVL28:
 869:Model/face_landmark.c ****   /* *** MCU cache clean (only) operation (SW, whole range) *** */
 870:Model/face_landmark.c ****   /*     memory pool: 8 */
 871:Model/face_landmark.c ****   /*     start: ((uintptr_t)(ATON_LIB_PHYSICAL_TO_VIRTUAL_ADDR(0x34200000UL + 0))) */
 872:Model/face_landmark.c ****   /*     end:   ((uintptr_t)(ATON_LIB_PHYSICAL_TO_VIRTUAL_ADDR(0x34200000UL + 5632))) */
 873:Model/face_landmark.c ****   LL_ATON_Cache_MCU_Clean_Range(((uintptr_t)(ATON_LIB_PHYSICAL_TO_VIRTUAL_ADDR(0x34200000UL + 0))) 
 426              		.loc 1 873 3 is_stmt 1 view .LVU76
 427              	.LBB74:
 428              	.LBI74:
  51:Lib/AI_Runtime/Npu/ll_aton/ll_aton_caches_interface.h ****   {
 429              		.loc 2 51 22 view .LVU77
 430              	.LBB75:
  53:Lib/AI_Runtime/Npu/ll_aton/ll_aton_caches_interface.h ****     mcu_cache_clean_range(virtual_addr, virtual_addr + size);
 431              		.loc 2 53 34 view .LVU78
  54:Lib/AI_Runtime/Npu/ll_aton/ll_aton_caches_interface.h ****     LL_ATON_OSAL_UNLOCK_MCU_CACHE();
 432              		.loc 2 54 5 view .LVU79
 433 007a 2946     		mov	r1, r5
 434 007c 2046     		mov	r0, r4
 435 007e FFF7FEFF 		bl	mcu_cache_clean_range
 436              	.LVL29:
  55:Lib/AI_Runtime/Npu/ll_aton/ll_aton_caches_interface.h ****   }
 437              		.loc 2 55 36 view .LVU80
  55:Lib/AI_Runtime/Npu/ll_aton/ll_aton_caches_interface.h ****   }
 438              		.loc 2 55 36 is_stmt 0 view .LVU81
 439              	.LBE75:
 440              	.LBE74:
 874:Model/face_landmark.c **** 
 875:Model/face_landmark.c **** }
 441              		.loc 1 875 1 view .LVU82
 442 0082 2FB0     		add	sp, sp, #188
 443              		.cfi_def_cfa_offset 12
 444              		@ sp needed
 445 0084 30BD     		pop	{r4, r5, pc}
 446              	.L27:
 447 0086 00BF     		.align	2
ARM GAS  /tmp/cc4rvpEd.s 			page 26


 448              	.L26:
 449 0088 00162034 		.word	874518016
 450 008c E0152034 		.word	874517984
 451 0090 F0152034 		.word	874518000
 452 0094 00D04170 		.word	1883361280
 453 0098 00002034 		.word	874512384
 454              		.cfi_endproc
 455              	.LFE4859:
 457              		.section	.text.LL_ATON_End_EpochBlock_94,"ax",%progbits
 458              		.align	1
 459              		.syntax unified
 460              		.thumb
 461              		.thumb_func
 463              	LL_ATON_End_EpochBlock_94:
 464              	.LVL30:
 465              	.LFB4855:
 629:Model/face_landmark.c ****   LL_ATON_LIB_UNUSED(epoch_block);
 466              		.loc 1 629 1 is_stmt 1 view -0
 467              		.cfi_startproc
 468              		@ args = 0, pretend = 0, frame = 184
 469              		@ frame_needed = 0, uses_anonymous_args = 0
 630:Model/face_landmark.c **** 
 470              		.loc 1 630 3 view .LVU84
 636:Model/face_landmark.c **** 
 471              		.loc 1 636 3 view .LVU85
 472              	.LBB76:
 473              	.LBI76:
  70:Lib/AI_Runtime/Npu/ll_aton/ll_aton_caches_interface.h ****   {
 474              		.loc 2 70 22 view .LVU86
 475              	.LBB77:
  72:Lib/AI_Runtime/Npu/ll_aton/ll_aton_caches_interface.h ****     mcu_cache_invalidate_range(virtual_addr, virtual_addr + size);
 476              		.loc 2 72 34 view .LVU87
  73:Lib/AI_Runtime/Npu/ll_aton/ll_aton_caches_interface.h ****     LL_ATON_OSAL_UNLOCK_MCU_CACHE();
 477              		.loc 2 73 5 view .LVU88
 478              	.LBE77:
 479              	.LBE76:
 629:Model/face_landmark.c ****   LL_ATON_LIB_UNUSED(epoch_block);
 480              		.loc 1 629 1 is_stmt 0 view .LVU89
 481 0000 30B5     		push	{r4, r5, lr}
 482              		.cfi_def_cfa_offset 12
 483              		.cfi_offset 4, -12
 484              		.cfi_offset 5, -8
 485              		.cfi_offset 14, -4
 486              	.LBB80:
 487              	.LBB78:
  73:Lib/AI_Runtime/Npu/ll_aton/ll_aton_caches_interface.h ****     LL_ATON_OSAL_UNLOCK_MCU_CACHE();
 488              		.loc 2 73 5 view .LVU90
 489 0002 1F4D     		ldr	r5, .L29
 490 0004 1F4C     		ldr	r4, .L29+4
 491              	.LBE78:
 492              	.LBE80:
 629:Model/face_landmark.c ****   LL_ATON_LIB_UNUSED(epoch_block);
 493              		.loc 1 629 1 view .LVU91
 494 0006 AFB0     		sub	sp, sp, #188
 495              		.cfi_def_cfa_offset 200
 496              	.LBB81:
 497              	.LBB79:
ARM GAS  /tmp/cc4rvpEd.s 			page 27


  73:Lib/AI_Runtime/Npu/ll_aton/ll_aton_caches_interface.h ****     LL_ATON_OSAL_UNLOCK_MCU_CACHE();
 498              		.loc 2 73 5 view .LVU92
 499 0008 2946     		mov	r1, r5
 500 000a 2046     		mov	r0, r4
 501              	.LVL31:
  73:Lib/AI_Runtime/Npu/ll_aton/ll_aton_caches_interface.h ****     LL_ATON_OSAL_UNLOCK_MCU_CACHE();
 502              		.loc 2 73 5 view .LVU93
 503 000c FFF7FEFF 		bl	mcu_cache_invalidate_range
 504              	.LVL32:
 505              		.loc 2 74 36 is_stmt 1 view .LVU94
 506              		.loc 2 74 36 is_stmt 0 view .LVU95
 507              	.LBE79:
 508              	.LBE81:
 641:Model/face_landmark.c ****     /* "general.input" tensor-related info: */
 509              		.loc 1 641 3 is_stmt 1 view .LVU96
 641:Model/face_landmark.c ****     /* "general.input" tensor-related info: */
 510              		.loc 1 641 28 is_stmt 0 view .LVU97
 511 0010 0021     		movs	r1, #0
 512 0012 B422     		movs	r2, #180
 513 0014 01A8     		add	r0, sp, #4
 514 0016 FFF7FEFF 		bl	memset
 515              	.LVL33:
 516 001a 2A23     		movs	r3, #42
 517 001c 1A4A     		ldr	r2, .L29+8
 518 001e 8DF80430 		strb	r3, [sp, #4]
 519 0022 0B92     		str	r2, [sp, #44]
 520 0024 0422     		movs	r2, #4
 521 0026 0123     		movs	r3, #1
 522 0028 CDE91222 		strd	r2, r2, [sp, #72]
 523 002c CDE91422 		strd	r2, r2, [sp, #80]
 524 0030 164A     		ldr	r2, .L29+12
 679:Model/face_landmark.c ****   /* *** MCU cache clean (only) operation (SW, whole range) *** */
 525              		.loc 1 679 3 view .LVU98
 526 0032 01A8     		add	r0, sp, #4
 641:Model/face_landmark.c ****     /* "general.input" tensor-related info: */
 527              		.loc 1 641 28 view .LVU99
 528 0034 1692     		str	r2, [sp, #88]
 529 0036 164A     		ldr	r2, .L29+16
 530 0038 CDE90233 		strd	r3, r3, [sp, #8]
 531 003c 2192     		str	r2, [sp, #132]
 532 003e 3032     		adds	r2, r2, #48
 533 0040 CDE90433 		strd	r3, r3, [sp, #16]
 534 0044 CDE90633 		strd	r3, r3, [sp, #24]
 535 0048 CDE90833 		strd	r3, r3, [sp, #32]
 536 004c CDE90D33 		strd	r3, r3, [sp, #52]
 537 0050 CDE90F33 		strd	r3, r3, [sp, #60]
 538 0054 0A93     		str	r3, [sp, #40]
 539 0056 8DF83030 		strb	r3, [sp, #48]
 540 005a 1193     		str	r3, [sp, #68]
 541 005c 8DF85C30 		strb	r3, [sp, #92]
 542 0060 1C93     		str	r3, [sp, #112]
 543 0062 8DF88830 		strb	r3, [sp, #136]
 544 0066 2793     		str	r3, [sp, #156]
 545 0068 2C92     		str	r2, [sp, #176]
 546 006a 8DF8B430 		strb	r3, [sp, #180]
 679:Model/face_landmark.c ****   /* *** MCU cache clean (only) operation (SW, whole range) *** */
 547              		.loc 1 679 3 is_stmt 1 view .LVU100
ARM GAS  /tmp/cc4rvpEd.s 			page 28


 548 006e FFF7FEFF 		bl	ll_sw_forward_dequantizelinear
 549              	.LVL34:
 684:Model/face_landmark.c **** 
 550              		.loc 1 684 3 view .LVU101
 551              	.LBB82:
 552              	.LBI82:
  51:Lib/AI_Runtime/Npu/ll_aton/ll_aton_caches_interface.h ****   {
 553              		.loc 2 51 22 view .LVU102
 554              	.LBB83:
  53:Lib/AI_Runtime/Npu/ll_aton/ll_aton_caches_interface.h ****     mcu_cache_clean_range(virtual_addr, virtual_addr + size);
 555              		.loc 2 53 34 view .LVU103
  54:Lib/AI_Runtime/Npu/ll_aton/ll_aton_caches_interface.h ****     LL_ATON_OSAL_UNLOCK_MCU_CACHE();
 556              		.loc 2 54 5 view .LVU104
 557 0072 2946     		mov	r1, r5
 558 0074 2046     		mov	r0, r4
 559 0076 FFF7FEFF 		bl	mcu_cache_clean_range
 560              	.LVL35:
  55:Lib/AI_Runtime/Npu/ll_aton/ll_aton_caches_interface.h ****   }
 561              		.loc 2 55 36 view .LVU105
  55:Lib/AI_Runtime/Npu/ll_aton/ll_aton_caches_interface.h ****   }
 562              		.loc 2 55 36 is_stmt 0 view .LVU106
 563              	.LBE83:
 564              	.LBE82:
 686:Model/face_landmark.c **** 
 565              		.loc 1 686 1 view .LVU107
 566 007a 2FB0     		add	sp, sp, #188
 567              		.cfi_def_cfa_offset 12
 568              		@ sp needed
 569 007c 30BD     		pop	{r4, r5, pc}
 570              	.L30:
 571 007e 00BF     		.align	2
 572              	.L29:
 573 0080 801B2034 		.word	874519424
 574 0084 601B2034 		.word	874519392
 575 0088 40142034 		.word	874517568
 576 008c 701B2034 		.word	874519408
 577 0090 10D04170 		.word	1883361296
 578              		.cfi_endproc
 579              	.LFE4855:
 581              		.section	.text.LL_ATON_End_EpochBlock_109,"ax",%progbits
 582              		.align	1
 583              		.syntax unified
 584              		.thumb
 585              		.thumb_func
 587              	LL_ATON_End_EpochBlock_109:
 588              	.LVL36:
 589              	.LFB4857:
 707:Model/face_landmark.c ****   LL_ATON_LIB_UNUSED(epoch_block);
 590              		.loc 1 707 1 is_stmt 1 view -0
 591              		.cfi_startproc
 592              		@ args = 0, pretend = 0, frame = 0
 593              		@ frame_needed = 0, uses_anonymous_args = 0
 708:Model/face_landmark.c **** 
 594              		.loc 1 708 3 view .LVU109
 714:Model/face_landmark.c **** 
 595              		.loc 1 714 3 view .LVU110
 596              	.LBB84:
ARM GAS  /tmp/cc4rvpEd.s 			page 29


 597              	.LBI84:
  70:Lib/AI_Runtime/Npu/ll_aton/ll_aton_caches_interface.h ****   {
 598              		.loc 2 70 22 view .LVU111
 599              	.LBB85:
  72:Lib/AI_Runtime/Npu/ll_aton/ll_aton_caches_interface.h ****     mcu_cache_invalidate_range(virtual_addr, virtual_addr + size);
 600              		.loc 2 72 34 view .LVU112
  73:Lib/AI_Runtime/Npu/ll_aton/ll_aton_caches_interface.h ****     LL_ATON_OSAL_UNLOCK_MCU_CACHE();
 601              		.loc 2 73 5 view .LVU113
 602              	.LBE85:
 603              	.LBE84:
 707:Model/face_landmark.c ****   LL_ATON_LIB_UNUSED(epoch_block);
 604              		.loc 1 707 1 is_stmt 0 view .LVU114
 605 0000 30B5     		push	{r4, r5, lr}
 606              		.cfi_def_cfa_offset 12
 607              		.cfi_offset 4, -12
 608              		.cfi_offset 5, -8
 609              		.cfi_offset 14, -4
 610              	.LBB88:
 611              	.LBB86:
  73:Lib/AI_Runtime/Npu/ll_aton/ll_aton_caches_interface.h ****     LL_ATON_OSAL_UNLOCK_MCU_CACHE();
 612              		.loc 2 73 5 view .LVU115
 613 0002 0E4D     		ldr	r5, .L32
 614 0004 0E4C     		ldr	r4, .L32+4
 615              	.LBE86:
 616              	.LBE88:
 707:Model/face_landmark.c ****   LL_ATON_LIB_UNUSED(epoch_block);
 617              		.loc 1 707 1 view .LVU116
 618 0006 85B0     		sub	sp, sp, #20
 619              		.cfi_def_cfa_offset 32
 620              	.LBB89:
 621              	.LBB87:
  73:Lib/AI_Runtime/Npu/ll_aton/ll_aton_caches_interface.h ****     LL_ATON_OSAL_UNLOCK_MCU_CACHE();
 622              		.loc 2 73 5 view .LVU117
 623 0008 2946     		mov	r1, r5
 624 000a 2046     		mov	r0, r4
 625              	.LVL37:
  73:Lib/AI_Runtime/Npu/ll_aton/ll_aton_caches_interface.h ****     LL_ATON_OSAL_UNLOCK_MCU_CACHE();
 626              		.loc 2 73 5 view .LVU118
 627 000c FFF7FEFF 		bl	mcu_cache_invalidate_range
 628              	.LVL38:
 629              		.loc 2 74 36 is_stmt 1 view .LVU119
 630              		.loc 2 74 36 is_stmt 0 view .LVU120
 631              	.LBE87:
 632              	.LBE89:
 717:Model/face_landmark.c **** 
 633              		.loc 1 717 3 is_stmt 1 view .LVU121
 634 0010 0021     		movs	r1, #0
 635 0012 0846     		mov	r0, r1
 636 0014 FFF7FEFF 		bl	LL_Switch_Init
 637              	.LVL39:
 721:Model/face_landmark.c ****   static const uint32_t SpaceToDepth_inserted_id1071_tensor_info_in_109__mem_shape_L_1_32_3_3[] = {
 638              		.loc 1 721 3 view .LVU122
 722:Model/face_landmark.c ****   static const float SpaceToDepth_inserted_id1071_tensor_info_in_109_Conv2D_234_zero_off_out_420_co
 639              		.loc 1 722 3 view .LVU123
 723:Model/face_landmark.c ****   static const int16_t SpaceToDepth_inserted_id1071_tensor_info_in_109_Conv2D_234_zero_off_out_420_
 640              		.loc 1 723 3 view .LVU124
 724:Model/face_landmark.c ****   static const LL_Buffer_InfoTypeDef SpaceToDepth_inserted_id1071_tensor_info_in_109[] = {
ARM GAS  /tmp/cc4rvpEd.s 			page 30


 641              		.loc 1 724 3 view .LVU125
 725:Model/face_landmark.c ****     {
 642              		.loc 1 725 3 view .LVU126
 755:Model/face_landmark.c ****   static const uint32_t SpaceToDepth_inserted_id1071_tensor_info_out_109__mem_shape_F_1_288_1_1[] =
 643              		.loc 1 755 3 view .LVU127
 756:Model/face_landmark.c ****   static const float SpaceToDepth_inserted_id1071_tensor_info_out_109_Conv2D_234_zero_off_out_420_i
 644              		.loc 1 756 3 view .LVU128
 757:Model/face_landmark.c ****   static const int16_t SpaceToDepth_inserted_id1071_tensor_info_out_109_Conv2D_234_zero_off_out_420
 645              		.loc 1 757 3 view .LVU129
 758:Model/face_landmark.c ****   static const LL_Buffer_InfoTypeDef SpaceToDepth_inserted_id1071_tensor_info_out_109[] = {
 646              		.loc 1 758 3 view .LVU130
 759:Model/face_landmark.c ****     {
 647              		.loc 1 759 3 view .LVU131
 789:Model/face_landmark.c **** 
 648              		.loc 1 789 3 view .LVU132
 649 0018 0121     		movs	r1, #1
 650 001a 0023     		movs	r3, #0
 651 001c CDE90131 		strd	r3, r1, [sp, #4]
 652 0020 0323     		movs	r3, #3
 653 0022 084A     		ldr	r2, .L32+8
 654 0024 0093     		str	r3, [sp]
 655 0026 0848     		ldr	r0, .L32+12
 656 0028 FFF7FEFF 		bl	LL_ATON_LIB_DMA_SpaceToDepth
 657              	.LVL40:
 795:Model/face_landmark.c **** 
 658              		.loc 1 795 3 view .LVU133
 659              	.LBB90:
 660              	.LBI90:
  51:Lib/AI_Runtime/Npu/ll_aton/ll_aton_caches_interface.h ****   {
 661              		.loc 2 51 22 view .LVU134
 662              	.LBB91:
  53:Lib/AI_Runtime/Npu/ll_aton/ll_aton_caches_interface.h ****     mcu_cache_clean_range(virtual_addr, virtual_addr + size);
 663              		.loc 2 53 34 view .LVU135
  54:Lib/AI_Runtime/Npu/ll_aton/ll_aton_caches_interface.h ****     LL_ATON_OSAL_UNLOCK_MCU_CACHE();
 664              		.loc 2 54 5 view .LVU136
 665 002c 2946     		mov	r1, r5
 666 002e 2046     		mov	r0, r4
 667              	.LBE91:
 668              	.LBE90:
 797:Model/face_landmark.c **** 
 669              		.loc 1 797 1 is_stmt 0 view .LVU137
 670 0030 05B0     		add	sp, sp, #20
 671              		.cfi_def_cfa_offset 12
 672              		@ sp needed
 673 0032 BDE83040 		pop	{r4, r5, lr}
 674              		.cfi_restore 14
 675              		.cfi_restore 5
 676              		.cfi_restore 4
 677              		.cfi_def_cfa_offset 0
 678              	.LBB93:
 679              	.LBB92:
  54:Lib/AI_Runtime/Npu/ll_aton/ll_aton_caches_interface.h ****     LL_ATON_OSAL_UNLOCK_MCU_CACHE();
 680              		.loc 2 54 5 view .LVU138
 681 0036 FFF7FEBF 		b	mcu_cache_clean_range
 682              	.LVL41:
 683              	.L33:
 684 003a 00BF     		.align	2
ARM GAS  /tmp/cc4rvpEd.s 			page 31


 685              	.L32:
 686 003c 40022034 		.word	874512960
 687 0040 00002034 		.word	874512384
 688 0044 00000000 		.word	SpaceToDepth_inserted_id1071_tensor_info_out_109.428
 689 0048 00000000 		.word	SpaceToDepth_inserted_id1071_tensor_info_in_109.429
 690              	.LBE92:
 691              	.LBE93:
 692              		.cfi_endproc
 693              	.LFE4857:
 695              		.section	.text.LL_ATON_End_EpochBlock_92,"ax",%progbits
 696              		.align	1
 697              		.syntax unified
 698              		.thumb
 699              		.thumb_func
 701              	LL_ATON_End_EpochBlock_92:
 702              	.LVL42:
 703              	.LFB4853:
 518:Model/face_landmark.c ****   LL_ATON_LIB_UNUSED(epoch_block);
 704              		.loc 1 518 1 is_stmt 1 view -0
 705              		.cfi_startproc
 706              		@ args = 0, pretend = 0, frame = 0
 707              		@ frame_needed = 0, uses_anonymous_args = 0
 519:Model/face_landmark.c **** 
 708              		.loc 1 519 3 view .LVU140
 525:Model/face_landmark.c **** 
 709              		.loc 1 525 3 view .LVU141
 710              	.LBB94:
 711              	.LBI94:
  70:Lib/AI_Runtime/Npu/ll_aton/ll_aton_caches_interface.h ****   {
 712              		.loc 2 70 22 view .LVU142
 713              	.LBB95:
  72:Lib/AI_Runtime/Npu/ll_aton/ll_aton_caches_interface.h ****     mcu_cache_invalidate_range(virtual_addr, virtual_addr + size);
 714              		.loc 2 72 34 view .LVU143
  73:Lib/AI_Runtime/Npu/ll_aton/ll_aton_caches_interface.h ****     LL_ATON_OSAL_UNLOCK_MCU_CACHE();
 715              		.loc 2 73 5 view .LVU144
 716              	.LBE95:
 717              	.LBE94:
 518:Model/face_landmark.c ****   LL_ATON_LIB_UNUSED(epoch_block);
 718              		.loc 1 518 1 is_stmt 0 view .LVU145
 719 0000 30B5     		push	{r4, r5, lr}
 720              		.cfi_def_cfa_offset 12
 721              		.cfi_offset 4, -12
 722              		.cfi_offset 5, -8
 723              		.cfi_offset 14, -4
 724              	.LBB98:
 725              	.LBB96:
  73:Lib/AI_Runtime/Npu/ll_aton/ll_aton_caches_interface.h ****     LL_ATON_OSAL_UNLOCK_MCU_CACHE();
 726              		.loc 2 73 5 view .LVU146
 727 0002 0E4D     		ldr	r5, .L35
 728 0004 0E4C     		ldr	r4, .L35+4
 729              	.LBE96:
 730              	.LBE98:
 518:Model/face_landmark.c ****   LL_ATON_LIB_UNUSED(epoch_block);
 731              		.loc 1 518 1 view .LVU147
 732 0006 85B0     		sub	sp, sp, #20
 733              		.cfi_def_cfa_offset 32
 734              	.LBB99:
ARM GAS  /tmp/cc4rvpEd.s 			page 32


 735              	.LBB97:
  73:Lib/AI_Runtime/Npu/ll_aton/ll_aton_caches_interface.h ****     LL_ATON_OSAL_UNLOCK_MCU_CACHE();
 736              		.loc 2 73 5 view .LVU148
 737 0008 2946     		mov	r1, r5
 738 000a 2046     		mov	r0, r4
 739              	.LVL43:
  73:Lib/AI_Runtime/Npu/ll_aton/ll_aton_caches_interface.h ****     LL_ATON_OSAL_UNLOCK_MCU_CACHE();
 740              		.loc 2 73 5 view .LVU149
 741 000c FFF7FEFF 		bl	mcu_cache_invalidate_range
 742              	.LVL44:
 743              		.loc 2 74 36 is_stmt 1 view .LVU150
 744              		.loc 2 74 36 is_stmt 0 view .LVU151
 745              	.LBE97:
 746              	.LBE99:
 528:Model/face_landmark.c **** 
 747              		.loc 1 528 3 is_stmt 1 view .LVU152
 748 0010 0021     		movs	r1, #0
 749 0012 0846     		mov	r0, r1
 750 0014 FFF7FEFF 		bl	LL_Switch_Init
 751              	.LVL45:
 532:Model/face_landmark.c ****   static const uint32_t SpaceToDepth_inserted_id1063_tensor_info_in_92__mem_shape_L_1_32_3_3[] = { 
 752              		.loc 1 532 3 view .LVU153
 533:Model/face_landmark.c ****   static const float SpaceToDepth_inserted_id1063_tensor_info_in_92_Conv2D_186_zero_off_out_330_cop
 753              		.loc 1 533 3 view .LVU154
 534:Model/face_landmark.c ****   static const int16_t SpaceToDepth_inserted_id1063_tensor_info_in_92_Conv2D_186_zero_off_out_330_c
 754              		.loc 1 534 3 view .LVU155
 535:Model/face_landmark.c ****   static const LL_Buffer_InfoTypeDef SpaceToDepth_inserted_id1063_tensor_info_in_92[] = {
 755              		.loc 1 535 3 view .LVU156
 536:Model/face_landmark.c ****     {
 756              		.loc 1 536 3 view .LVU157
 566:Model/face_landmark.c ****   static const uint32_t SpaceToDepth_inserted_id1063_tensor_info_out_92__mem_shape_F_1_288_1_1[] = 
 757              		.loc 1 566 3 view .LVU158
 567:Model/face_landmark.c ****   static const float SpaceToDepth_inserted_id1063_tensor_info_out_92_Conv2D_186_zero_off_out_330_in
 758              		.loc 1 567 3 view .LVU159
 568:Model/face_landmark.c ****   static const int16_t SpaceToDepth_inserted_id1063_tensor_info_out_92_Conv2D_186_zero_off_out_330_
 759              		.loc 1 568 3 view .LVU160
 569:Model/face_landmark.c ****   static const LL_Buffer_InfoTypeDef SpaceToDepth_inserted_id1063_tensor_info_out_92[] = {
 760              		.loc 1 569 3 view .LVU161
 570:Model/face_landmark.c ****     {
 761              		.loc 1 570 3 view .LVU162
 600:Model/face_landmark.c **** 
 762              		.loc 1 600 3 view .LVU163
 763 0018 0323     		movs	r3, #3
 764 001a 0222     		movs	r2, #2
 765 001c 0121     		movs	r1, #1
 766 001e CDE90123 		strd	r2, r3, [sp, #4]
 767 0022 0093     		str	r3, [sp]
 768 0024 074A     		ldr	r2, .L35+8
 769 0026 0848     		ldr	r0, .L35+12
 770 0028 FFF7FEFF 		bl	LL_ATON_LIB_DMA_SpaceToDepth
 771              	.LVL46:
 606:Model/face_landmark.c **** 
 772              		.loc 1 606 3 view .LVU164
 773              	.LBB100:
 774              	.LBI100:
  51:Lib/AI_Runtime/Npu/ll_aton/ll_aton_caches_interface.h ****   {
 775              		.loc 2 51 22 view .LVU165
ARM GAS  /tmp/cc4rvpEd.s 			page 33


 776              	.LBB101:
  53:Lib/AI_Runtime/Npu/ll_aton/ll_aton_caches_interface.h ****     mcu_cache_clean_range(virtual_addr, virtual_addr + size);
 777              		.loc 2 53 34 view .LVU166
  54:Lib/AI_Runtime/Npu/ll_aton/ll_aton_caches_interface.h ****     LL_ATON_OSAL_UNLOCK_MCU_CACHE();
 778              		.loc 2 54 5 view .LVU167
 779 002c 2946     		mov	r1, r5
 780 002e 2046     		mov	r0, r4
 781              	.LBE101:
 782              	.LBE100:
 608:Model/face_landmark.c **** 
 783              		.loc 1 608 1 is_stmt 0 view .LVU168
 784 0030 05B0     		add	sp, sp, #20
 785              		.cfi_def_cfa_offset 12
 786              		@ sp needed
 787 0032 BDE83040 		pop	{r4, r5, lr}
 788              		.cfi_restore 14
 789              		.cfi_restore 5
 790              		.cfi_restore 4
 791              		.cfi_def_cfa_offset 0
 792              	.LBB103:
 793              	.LBB102:
  54:Lib/AI_Runtime/Npu/ll_aton/ll_aton_caches_interface.h ****     LL_ATON_OSAL_UNLOCK_MCU_CACHE();
 794              		.loc 2 54 5 view .LVU169
 795 0036 FFF7FEBF 		b	mcu_cache_clean_range
 796              	.LVL47:
 797              	.L36:
 798 003a 00BF     		.align	2
 799              	.L35:
 800 003c 40142034 		.word	874517568
 801 0040 00122034 		.word	874516992
 802 0044 00000000 		.word	SpaceToDepth_inserted_id1063_tensor_info_out_92.418
 803 0048 00000000 		.word	SpaceToDepth_inserted_id1063_tensor_info_in_92.419
 804              	.LBE102:
 805              	.LBE103:
 806              		.cfi_endproc
 807              	.LFE4853:
 809              		.section	.text.LL_ATON_End_EpochBlock_47,"ax",%progbits
 810              		.align	1
 811              		.syntax unified
 812              		.thumb
 813              		.thumb_func
 815              	LL_ATON_End_EpochBlock_47:
 816              	.LVL48:
 817              	.LFB4851:
 435:Model/face_landmark.c ****   LL_ATON_LIB_UNUSED(epoch_block);
 818              		.loc 1 435 1 is_stmt 1 view -0
 819              		.cfi_startproc
 820              		@ args = 0, pretend = 0, frame = 0
 821              		@ frame_needed = 0, uses_anonymous_args = 0
 436:Model/face_landmark.c **** 
 822              		.loc 1 436 3 view .LVU171
 442:Model/face_landmark.c **** 
 823              		.loc 1 442 3 view .LVU172
 824              	.LBB104:
 825              	.LBI104:
  70:Lib/AI_Runtime/Npu/ll_aton/ll_aton_caches_interface.h ****   {
 826              		.loc 2 70 22 view .LVU173
ARM GAS  /tmp/cc4rvpEd.s 			page 34


 827              	.LBB105:
  72:Lib/AI_Runtime/Npu/ll_aton/ll_aton_caches_interface.h ****     mcu_cache_invalidate_range(virtual_addr, virtual_addr + size);
 828              		.loc 2 72 34 view .LVU174
  73:Lib/AI_Runtime/Npu/ll_aton/ll_aton_caches_interface.h ****     LL_ATON_OSAL_UNLOCK_MCU_CACHE();
 829              		.loc 2 73 5 view .LVU175
 830              	.LBE105:
 831              	.LBE104:
 435:Model/face_landmark.c ****   LL_ATON_LIB_UNUSED(epoch_block);
 832              		.loc 1 435 1 is_stmt 0 view .LVU176
 833 0000 30B5     		push	{r4, r5, lr}
 834              		.cfi_def_cfa_offset 12
 835              		.cfi_offset 4, -12
 836              		.cfi_offset 5, -8
 837              		.cfi_offset 14, -4
 838              	.LBB108:
 839              	.LBB106:
  73:Lib/AI_Runtime/Npu/ll_aton/ll_aton_caches_interface.h ****     LL_ATON_OSAL_UNLOCK_MCU_CACHE();
 840              		.loc 2 73 5 view .LVU177
 841 0002 104D     		ldr	r5, .L38
 842 0004 104C     		ldr	r4, .L38+4
 843              	.LBE106:
 844              	.LBE108:
 435:Model/face_landmark.c ****   LL_ATON_LIB_UNUSED(epoch_block);
 845              		.loc 1 435 1 view .LVU178
 846 0006 85B0     		sub	sp, sp, #20
 847              		.cfi_def_cfa_offset 32
 848              	.LBB109:
 849              	.LBB107:
  73:Lib/AI_Runtime/Npu/ll_aton/ll_aton_caches_interface.h ****     LL_ATON_OSAL_UNLOCK_MCU_CACHE();
 850              		.loc 2 73 5 view .LVU179
 851 0008 2946     		mov	r1, r5
 852 000a 2046     		mov	r0, r4
 853              	.LVL49:
  73:Lib/AI_Runtime/Npu/ll_aton/ll_aton_caches_interface.h ****     LL_ATON_OSAL_UNLOCK_MCU_CACHE();
 854              		.loc 2 73 5 view .LVU180
 855 000c FFF7FEFF 		bl	mcu_cache_invalidate_range
 856              	.LVL50:
 857              		.loc 2 74 36 is_stmt 1 view .LVU181
 858              		.loc 2 74 36 is_stmt 0 view .LVU182
 859              	.LBE107:
 860              	.LBE109:
 445:Model/face_landmark.c **** 
 861              		.loc 1 445 3 is_stmt 1 view .LVU183
 862 0010 0021     		movs	r1, #0
 863 0012 0846     		mov	r0, r1
 864 0014 FFF7FEFF 		bl	LL_Switch_Init
 865              	.LVL51:
 449:Model/face_landmark.c ****   static const LL_LIB_TensorShape_TypeDef Transpose_99_tensor_shape_in_47[] = {
 866              		.loc 1 449 3 view .LVU184
 450:Model/face_landmark.c ****     {
 867              		.loc 1 450 3 view .LVU185
 463:Model/face_landmark.c ****   static const uint32_t* Transpose_99_tensor_axes_offsets_in_47[] = {
 868              		.loc 1 463 3 view .LVU186
 464:Model/face_landmark.c ****     Transpose_99_tensor_axes_offsets_in_47_0
 869              		.loc 1 464 3 view .LVU187
 468:Model/face_landmark.c ****   static const LL_LIB_TensorShape_TypeDef Transpose_99_tensor_shape_out_47[] = {
 870              		.loc 1 468 3 view .LVU188
ARM GAS  /tmp/cc4rvpEd.s 			page 35


 469:Model/face_landmark.c ****     {
 871              		.loc 1 469 3 view .LVU189
 482:Model/face_landmark.c ****   static const uint32_t* Transpose_99_tensor_axes_offsets_out_47[] = {
 872              		.loc 1 482 3 view .LVU190
 483:Model/face_landmark.c ****     Transpose_99_tensor_axes_offsets_out_47_0
 873              		.loc 1 483 3 view .LVU191
 487:Model/face_landmark.c ****   static const uint8_t Transpose_99_target_pos_array_in_47[] = { 0, 2, 1, 3 };
 874              		.loc 1 487 3 view .LVU192
 488:Model/face_landmark.c ****   LL_ATON_LIB_DMA_Transpose(&Transpose_99_tensor_shape_in_47[0], Transpose_99_tensor_axes_offsets_i
 875              		.loc 1 488 3 view .LVU193
 489:Model/face_landmark.c **** 
 876              		.loc 1 489 3 view .LVU194
 877 0018 0323     		movs	r3, #3
 878 001a 0422     		movs	r2, #4
 879 001c CDE90232 		strd	r3, r2, [sp, #8]
 880 0020 0A4B     		ldr	r3, .L38+8
 881 0022 0B4A     		ldr	r2, .L38+12
 882 0024 0193     		str	r3, [sp, #4]
 883 0026 0B4B     		ldr	r3, .L38+16
 884 0028 0B49     		ldr	r1, .L38+20
 885 002a 0093     		str	r3, [sp]
 886 002c 0B48     		ldr	r0, .L38+24
 887 002e 0C4B     		ldr	r3, .L38+28
 888 0030 FFF7FEFF 		bl	LL_ATON_LIB_DMA_Transpose
 889              	.LVL52:
 495:Model/face_landmark.c **** 
 890              		.loc 1 495 3 view .LVU195
 891              	.LBB110:
 892              	.LBI110:
  51:Lib/AI_Runtime/Npu/ll_aton/ll_aton_caches_interface.h ****   {
 893              		.loc 2 51 22 view .LVU196
 894              	.LBB111:
  53:Lib/AI_Runtime/Npu/ll_aton/ll_aton_caches_interface.h ****     mcu_cache_clean_range(virtual_addr, virtual_addr + size);
 895              		.loc 2 53 34 view .LVU197
  54:Lib/AI_Runtime/Npu/ll_aton/ll_aton_caches_interface.h ****     LL_ATON_OSAL_UNLOCK_MCU_CACHE();
 896              		.loc 2 54 5 view .LVU198
 897 0034 2946     		mov	r1, r5
 898 0036 2046     		mov	r0, r4
 899              	.LBE111:
 900              	.LBE110:
 497:Model/face_landmark.c **** 
 901              		.loc 1 497 1 is_stmt 0 view .LVU199
 902 0038 05B0     		add	sp, sp, #20
 903              		.cfi_def_cfa_offset 12
 904              		@ sp needed
 905 003a BDE83040 		pop	{r4, r5, lr}
 906              		.cfi_restore 14
 907              		.cfi_restore 5
 908              		.cfi_restore 4
 909              		.cfi_def_cfa_offset 0
 910              	.LBB113:
 911              	.LBB112:
  54:Lib/AI_Runtime/Npu/ll_aton/ll_aton_caches_interface.h ****     LL_ATON_OSAL_UNLOCK_MCU_CACHE();
 912              		.loc 2 54 5 view .LVU200
 913 003e FFF7FEBF 		b	mcu_cache_clean_range
 914              	.LVL53:
 915              	.L39:
ARM GAS  /tmp/cc4rvpEd.s 			page 36


 916 0042 00BF     		.align	2
 917              	.L38:
 918 0044 00D82034 		.word	874567680
 919 0048 00902034 		.word	874549248
 920 004c 00000000 		.word	Transpose_99_perm_to_use_array_in_47.404
 921 0050 00000000 		.word	Transpose_99_tensor_shape_out_47.406
 922 0054 00000000 		.word	Transpose_99_target_pos_array_in_47.405
 923 0058 00000000 		.word	Transpose_99_tensor_axes_offsets_in_47_0.401
 924 005c 00000000 		.word	Transpose_99_tensor_shape_in_47.407
 925 0060 00000000 		.word	Transpose_99_tensor_axes_offsets_out_47_0.403
 926              	.LBE112:
 927              	.LBE113:
 928              		.cfi_endproc
 929              	.LFE4851:
 931              		.section	.text.LL_ATON_End_EpochBlock_31,"ax",%progbits
 932              		.align	1
 933              		.syntax unified
 934              		.thumb
 935              		.thumb_func
 937              	LL_ATON_End_EpochBlock_31:
 938              	.LVL54:
 939              	.LFB4849:
 352:Model/face_landmark.c ****   LL_ATON_LIB_UNUSED(epoch_block);
 940              		.loc 1 352 1 is_stmt 1 view -0
 941              		.cfi_startproc
 942              		@ args = 0, pretend = 0, frame = 0
 943              		@ frame_needed = 0, uses_anonymous_args = 0
 353:Model/face_landmark.c **** 
 944              		.loc 1 353 3 view .LVU202
 359:Model/face_landmark.c **** 
 945              		.loc 1 359 3 view .LVU203
 946              	.LBB114:
 947              	.LBI114:
  70:Lib/AI_Runtime/Npu/ll_aton/ll_aton_caches_interface.h ****   {
 948              		.loc 2 70 22 view .LVU204
 949              	.LBB115:
  72:Lib/AI_Runtime/Npu/ll_aton/ll_aton_caches_interface.h ****     mcu_cache_invalidate_range(virtual_addr, virtual_addr + size);
 950              		.loc 2 72 34 view .LVU205
  73:Lib/AI_Runtime/Npu/ll_aton/ll_aton_caches_interface.h ****     LL_ATON_OSAL_UNLOCK_MCU_CACHE();
 951              		.loc 2 73 5 view .LVU206
 952              	.LBE115:
 953              	.LBE114:
 352:Model/face_landmark.c ****   LL_ATON_LIB_UNUSED(epoch_block);
 954              		.loc 1 352 1 is_stmt 0 view .LVU207
 955 0000 30B5     		push	{r4, r5, lr}
 956              		.cfi_def_cfa_offset 12
 957              		.cfi_offset 4, -12
 958              		.cfi_offset 5, -8
 959              		.cfi_offset 14, -4
 960              	.LBB118:
 961              	.LBB116:
  73:Lib/AI_Runtime/Npu/ll_aton/ll_aton_caches_interface.h ****     LL_ATON_OSAL_UNLOCK_MCU_CACHE();
 962              		.loc 2 73 5 view .LVU208
 963 0002 104D     		ldr	r5, .L41
 964 0004 104C     		ldr	r4, .L41+4
 965              	.LBE116:
 966              	.LBE118:
ARM GAS  /tmp/cc4rvpEd.s 			page 37


 352:Model/face_landmark.c ****   LL_ATON_LIB_UNUSED(epoch_block);
 967              		.loc 1 352 1 view .LVU209
 968 0006 85B0     		sub	sp, sp, #20
 969              		.cfi_def_cfa_offset 32
 970              	.LBB119:
 971              	.LBB117:
  73:Lib/AI_Runtime/Npu/ll_aton/ll_aton_caches_interface.h ****     LL_ATON_OSAL_UNLOCK_MCU_CACHE();
 972              		.loc 2 73 5 view .LVU210
 973 0008 2946     		mov	r1, r5
 974 000a 2046     		mov	r0, r4
 975              	.LVL55:
  73:Lib/AI_Runtime/Npu/ll_aton/ll_aton_caches_interface.h ****     LL_ATON_OSAL_UNLOCK_MCU_CACHE();
 976              		.loc 2 73 5 view .LVU211
 977 000c FFF7FEFF 		bl	mcu_cache_invalidate_range
 978              	.LVL56:
 979              		.loc 2 74 36 is_stmt 1 view .LVU212
 980              		.loc 2 74 36 is_stmt 0 view .LVU213
 981              	.LBE117:
 982              	.LBE119:
 362:Model/face_landmark.c **** 
 983              		.loc 1 362 3 is_stmt 1 view .LVU214
 984 0010 0021     		movs	r1, #0
 985 0012 0846     		mov	r0, r1
 986 0014 FFF7FEFF 		bl	LL_Switch_Init
 987              	.LVL57:
 366:Model/face_landmark.c ****   static const LL_LIB_TensorShape_TypeDef Transpose_65_tensor_shape_in_31[] = {
 988              		.loc 1 366 3 view .LVU215
 367:Model/face_landmark.c ****     {
 989              		.loc 1 367 3 view .LVU216
 380:Model/face_landmark.c ****   static const uint32_t* Transpose_65_tensor_axes_offsets_in_31[] = {
 990              		.loc 1 380 3 view .LVU217
 381:Model/face_landmark.c ****     Transpose_65_tensor_axes_offsets_in_31_0
 991              		.loc 1 381 3 view .LVU218
 385:Model/face_landmark.c ****   static const LL_LIB_TensorShape_TypeDef Transpose_65_tensor_shape_out_31[] = {
 992              		.loc 1 385 3 view .LVU219
 386:Model/face_landmark.c ****     {
 993              		.loc 1 386 3 view .LVU220
 399:Model/face_landmark.c ****   static const uint32_t* Transpose_65_tensor_axes_offsets_out_31[] = {
 994              		.loc 1 399 3 view .LVU221
 400:Model/face_landmark.c ****     Transpose_65_tensor_axes_offsets_out_31_0
 995              		.loc 1 400 3 view .LVU222
 404:Model/face_landmark.c ****   static const uint8_t Transpose_65_target_pos_array_in_31[] = { 0, 2, 1, 3 };
 996              		.loc 1 404 3 view .LVU223
 405:Model/face_landmark.c ****   LL_ATON_LIB_DMA_Transpose(&Transpose_65_tensor_shape_in_31[0], Transpose_65_tensor_axes_offsets_i
 997              		.loc 1 405 3 view .LVU224
 406:Model/face_landmark.c **** 
 998              		.loc 1 406 3 view .LVU225
 999 0018 0023     		movs	r3, #0
 1000 001a 0222     		movs	r2, #2
 1001 001c CDE90232 		strd	r3, r2, [sp, #8]
 1002 0020 0A4B     		ldr	r3, .L41+8
 1003 0022 0B4A     		ldr	r2, .L41+12
 1004 0024 0193     		str	r3, [sp, #4]
 1005 0026 0B4B     		ldr	r3, .L41+16
 1006 0028 0B49     		ldr	r1, .L41+20
 1007 002a 0093     		str	r3, [sp]
 1008 002c 0B48     		ldr	r0, .L41+24
ARM GAS  /tmp/cc4rvpEd.s 			page 38


 1009 002e 0C4B     		ldr	r3, .L41+28
 1010 0030 FFF7FEFF 		bl	LL_ATON_LIB_DMA_Transpose
 1011              	.LVL58:
 412:Model/face_landmark.c **** 
 1012              		.loc 1 412 3 view .LVU226
 1013              	.LBB120:
 1014              	.LBI120:
  51:Lib/AI_Runtime/Npu/ll_aton/ll_aton_caches_interface.h ****   {
 1015              		.loc 2 51 22 view .LVU227
 1016              	.LBB121:
  53:Lib/AI_Runtime/Npu/ll_aton/ll_aton_caches_interface.h ****     mcu_cache_clean_range(virtual_addr, virtual_addr + size);
 1017              		.loc 2 53 34 view .LVU228
  54:Lib/AI_Runtime/Npu/ll_aton/ll_aton_caches_interface.h ****     LL_ATON_OSAL_UNLOCK_MCU_CACHE();
 1018              		.loc 2 54 5 view .LVU229
 1019 0034 2946     		mov	r1, r5
 1020 0036 2046     		mov	r0, r4
 1021              	.LBE121:
 1022              	.LBE120:
 414:Model/face_landmark.c **** 
 1023              		.loc 1 414 1 is_stmt 0 view .LVU230
 1024 0038 05B0     		add	sp, sp, #20
 1025              		.cfi_def_cfa_offset 12
 1026              		@ sp needed
 1027 003a BDE83040 		pop	{r4, r5, lr}
 1028              		.cfi_restore 14
 1029              		.cfi_restore 5
 1030              		.cfi_restore 4
 1031              		.cfi_def_cfa_offset 0
 1032              	.LBB123:
 1033              	.LBB122:
  54:Lib/AI_Runtime/Npu/ll_aton/ll_aton_caches_interface.h ****     LL_ATON_OSAL_UNLOCK_MCU_CACHE();
 1034              		.loc 2 54 5 view .LVU231
 1035 003e FFF7FEBF 		b	mcu_cache_clean_range
 1036              	.LVL59:
 1037              	.L42:
 1038 0042 00BF     		.align	2
 1039              	.L41:
 1040 0044 00B02134 		.word	874622976
 1041 0048 00202134 		.word	874586112
 1042 004c 00000000 		.word	Transpose_65_perm_to_use_array_in_31.394
 1043 0050 00000000 		.word	Transpose_65_tensor_shape_out_31.396
 1044 0054 00000000 		.word	Transpose_65_target_pos_array_in_31.395
 1045 0058 00000000 		.word	Transpose_65_tensor_axes_offsets_in_31_0.391
 1046 005c 00000000 		.word	Transpose_65_tensor_shape_in_31.397
 1047 0060 00000000 		.word	Transpose_65_tensor_axes_offsets_out_31_0.393
 1048              	.LBE122:
 1049              	.LBE123:
 1050              		.cfi_endproc
 1051              	.LFE4849:
 1053              		.section	.text.LL_ATON_End_EpochBlock_15,"ax",%progbits
 1054              		.align	1
 1055              		.syntax unified
 1056              		.thumb
 1057              		.thumb_func
 1059              	LL_ATON_End_EpochBlock_15:
 1060              	.LVL60:
 1061              	.LFB4847:
ARM GAS  /tmp/cc4rvpEd.s 			page 39


 269:Model/face_landmark.c ****   LL_ATON_LIB_UNUSED(epoch_block);
 1062              		.loc 1 269 1 is_stmt 1 view -0
 1063              		.cfi_startproc
 1064              		@ args = 0, pretend = 0, frame = 0
 1065              		@ frame_needed = 0, uses_anonymous_args = 0
 270:Model/face_landmark.c **** 
 1066              		.loc 1 270 3 view .LVU233
 276:Model/face_landmark.c **** 
 1067              		.loc 1 276 3 view .LVU234
 1068              	.LBB124:
 1069              	.LBI124:
  70:Lib/AI_Runtime/Npu/ll_aton/ll_aton_caches_interface.h ****   {
 1070              		.loc 2 70 22 view .LVU235
 1071              	.LBB125:
  72:Lib/AI_Runtime/Npu/ll_aton/ll_aton_caches_interface.h ****     mcu_cache_invalidate_range(virtual_addr, virtual_addr + size);
 1072              		.loc 2 72 34 view .LVU236
  73:Lib/AI_Runtime/Npu/ll_aton/ll_aton_caches_interface.h ****     LL_ATON_OSAL_UNLOCK_MCU_CACHE();
 1073              		.loc 2 73 5 view .LVU237
 1074              	.LBE125:
 1075              	.LBE124:
 269:Model/face_landmark.c ****   LL_ATON_LIB_UNUSED(epoch_block);
 1076              		.loc 1 269 1 is_stmt 0 view .LVU238
 1077 0000 30B5     		push	{r4, r5, lr}
 1078              		.cfi_def_cfa_offset 12
 1079              		.cfi_offset 4, -12
 1080              		.cfi_offset 5, -8
 1081              		.cfi_offset 14, -4
 1082              	.LBB128:
 1083              	.LBB126:
  73:Lib/AI_Runtime/Npu/ll_aton/ll_aton_caches_interface.h ****     LL_ATON_OSAL_UNLOCK_MCU_CACHE();
 1084              		.loc 2 73 5 view .LVU239
 1085 0002 104D     		ldr	r5, .L44
 1086 0004 104C     		ldr	r4, .L44+4
 1087              	.LBE126:
 1088              	.LBE128:
 269:Model/face_landmark.c ****   LL_ATON_LIB_UNUSED(epoch_block);
 1089              		.loc 1 269 1 view .LVU240
 1090 0006 85B0     		sub	sp, sp, #20
 1091              		.cfi_def_cfa_offset 32
 1092              	.LBB129:
 1093              	.LBB127:
  73:Lib/AI_Runtime/Npu/ll_aton/ll_aton_caches_interface.h ****     LL_ATON_OSAL_UNLOCK_MCU_CACHE();
 1094              		.loc 2 73 5 view .LVU241
 1095 0008 2946     		mov	r1, r5
 1096 000a 2046     		mov	r0, r4
 1097              	.LVL61:
  73:Lib/AI_Runtime/Npu/ll_aton/ll_aton_caches_interface.h ****     LL_ATON_OSAL_UNLOCK_MCU_CACHE();
 1098              		.loc 2 73 5 view .LVU242
 1099 000c FFF7FEFF 		bl	mcu_cache_invalidate_range
 1100              	.LVL62:
 1101              		.loc 2 74 36 is_stmt 1 view .LVU243
 1102              		.loc 2 74 36 is_stmt 0 view .LVU244
 1103              	.LBE127:
 1104              	.LBE129:
 279:Model/face_landmark.c **** 
 1105              		.loc 1 279 3 is_stmt 1 view .LVU245
 1106 0010 0021     		movs	r1, #0
ARM GAS  /tmp/cc4rvpEd.s 			page 40


 1107 0012 0846     		mov	r0, r1
 1108 0014 FFF7FEFF 		bl	LL_Switch_Init
 1109              	.LVL63:
 283:Model/face_landmark.c ****   static const LL_LIB_TensorShape_TypeDef Transpose_31_tensor_shape_in_15[] = {
 1110              		.loc 1 283 3 view .LVU246
 284:Model/face_landmark.c ****     {
 1111              		.loc 1 284 3 view .LVU247
 297:Model/face_landmark.c ****   static const uint32_t* Transpose_31_tensor_axes_offsets_in_15[] = {
 1112              		.loc 1 297 3 view .LVU248
 298:Model/face_landmark.c ****     Transpose_31_tensor_axes_offsets_in_15_0
 1113              		.loc 1 298 3 view .LVU249
 302:Model/face_landmark.c ****   static const LL_LIB_TensorShape_TypeDef Transpose_31_tensor_shape_out_15[] = {
 1114              		.loc 1 302 3 view .LVU250
 303:Model/face_landmark.c ****     {
 1115              		.loc 1 303 3 view .LVU251
 316:Model/face_landmark.c ****   static const uint32_t* Transpose_31_tensor_axes_offsets_out_15[] = {
 1116              		.loc 1 316 3 view .LVU252
 317:Model/face_landmark.c ****     Transpose_31_tensor_axes_offsets_out_15_0
 1117              		.loc 1 317 3 view .LVU253
 321:Model/face_landmark.c ****   static const uint8_t Transpose_31_target_pos_array_in_15[] = { 0, 2, 1, 3 };
 1118              		.loc 1 321 3 view .LVU254
 322:Model/face_landmark.c ****   LL_ATON_LIB_DMA_Transpose(&Transpose_31_tensor_shape_in_15[0], Transpose_31_tensor_axes_offsets_i
 1119              		.loc 1 322 3 view .LVU255
 323:Model/face_landmark.c **** 
 1120              		.loc 1 323 3 view .LVU256
 1121 0018 0423     		movs	r3, #4
 1122 001a 0522     		movs	r2, #5
 1123 001c CDE90232 		strd	r3, r2, [sp, #8]
 1124 0020 0A4B     		ldr	r3, .L44+8
 1125 0022 0B4A     		ldr	r2, .L44+12
 1126 0024 0193     		str	r3, [sp, #4]
 1127 0026 0B4B     		ldr	r3, .L44+16
 1128 0028 0B49     		ldr	r1, .L44+20
 1129 002a 0093     		str	r3, [sp]
 1130 002c 0B48     		ldr	r0, .L44+24
 1131 002e 0C4B     		ldr	r3, .L44+28
 1132 0030 FFF7FEFF 		bl	LL_ATON_LIB_DMA_Transpose
 1133              	.LVL64:
 329:Model/face_landmark.c **** 
 1134              		.loc 1 329 3 view .LVU257
 1135              	.LBB130:
 1136              	.LBI130:
  51:Lib/AI_Runtime/Npu/ll_aton/ll_aton_caches_interface.h ****   {
 1137              		.loc 2 51 22 view .LVU258
 1138              	.LBB131:
  53:Lib/AI_Runtime/Npu/ll_aton/ll_aton_caches_interface.h ****     mcu_cache_clean_range(virtual_addr, virtual_addr + size);
 1139              		.loc 2 53 34 view .LVU259
  54:Lib/AI_Runtime/Npu/ll_aton/ll_aton_caches_interface.h ****     LL_ATON_OSAL_UNLOCK_MCU_CACHE();
 1140              		.loc 2 54 5 view .LVU260
 1141 0034 2946     		mov	r1, r5
 1142 0036 2046     		mov	r0, r4
 1143              	.LBE131:
 1144              	.LBE130:
 331:Model/face_landmark.c **** 
 1145              		.loc 1 331 1 is_stmt 0 view .LVU261
 1146 0038 05B0     		add	sp, sp, #20
 1147              		.cfi_def_cfa_offset 12
ARM GAS  /tmp/cc4rvpEd.s 			page 41


 1148              		@ sp needed
 1149 003a BDE83040 		pop	{r4, r5, lr}
 1150              		.cfi_restore 14
 1151              		.cfi_restore 5
 1152              		.cfi_restore 4
 1153              		.cfi_def_cfa_offset 0
 1154              	.LBB133:
 1155              	.LBB132:
  54:Lib/AI_Runtime/Npu/ll_aton/ll_aton_caches_interface.h ****     LL_ATON_OSAL_UNLOCK_MCU_CACHE();
 1156              		.loc 2 54 5 view .LVU262
 1157 003e FFF7FEBF 		b	mcu_cache_clean_range
 1158              	.LVL65:
 1159              	.L45:
 1160 0042 00BF     		.align	2
 1161              	.L44:
 1162 0044 00602334 		.word	874733568
 1163 0048 00402234 		.word	874659840
 1164 004c 00000000 		.word	Transpose_31_perm_to_use_array_in_15.384
 1165 0050 00000000 		.word	Transpose_31_tensor_shape_out_15.386
 1166 0054 00000000 		.word	Transpose_31_target_pos_array_in_15.385
 1167 0058 00000000 		.word	Transpose_31_tensor_axes_offsets_in_15_0.381
 1168 005c 00000000 		.word	Transpose_31_tensor_shape_in_15.387
 1169 0060 00000000 		.word	Transpose_31_tensor_axes_offsets_out_15_0.383
 1170              	.LBE132:
 1171              	.LBE133:
 1172              		.cfi_endproc
 1173              	.LFE4847:
 1175              		.section	.text.LL_ATON_End_EpochBlock_12,"ax",%progbits
 1176              		.align	1
 1177              		.syntax unified
 1178              		.thumb
 1179              		.thumb_func
 1181              	LL_ATON_End_EpochBlock_12:
 1182              	.LVL66:
 1183              	.LFB4845:
 186:Model/face_landmark.c ****   LL_ATON_LIB_UNUSED(epoch_block);
 1184              		.loc 1 186 1 is_stmt 1 view -0
 1185              		.cfi_startproc
 1186              		@ args = 0, pretend = 0, frame = 0
 1187              		@ frame_needed = 0, uses_anonymous_args = 0
 187:Model/face_landmark.c **** 
 1188              		.loc 1 187 3 view .LVU264
 193:Model/face_landmark.c **** 
 1189              		.loc 1 193 3 view .LVU265
 1190              	.LBB134:
 1191              	.LBI134:
  70:Lib/AI_Runtime/Npu/ll_aton/ll_aton_caches_interface.h ****   {
 1192              		.loc 2 70 22 view .LVU266
 1193              	.LBB135:
  72:Lib/AI_Runtime/Npu/ll_aton/ll_aton_caches_interface.h ****     mcu_cache_invalidate_range(virtual_addr, virtual_addr + size);
 1194              		.loc 2 72 34 view .LVU267
  73:Lib/AI_Runtime/Npu/ll_aton/ll_aton_caches_interface.h ****     LL_ATON_OSAL_UNLOCK_MCU_CACHE();
 1195              		.loc 2 73 5 view .LVU268
 1196              	.LBE135:
 1197              	.LBE134:
 186:Model/face_landmark.c ****   LL_ATON_LIB_UNUSED(epoch_block);
 1198              		.loc 1 186 1 is_stmt 0 view .LVU269
ARM GAS  /tmp/cc4rvpEd.s 			page 42


 1199 0000 30B5     		push	{r4, r5, lr}
 1200              		.cfi_def_cfa_offset 12
 1201              		.cfi_offset 4, -12
 1202              		.cfi_offset 5, -8
 1203              		.cfi_offset 14, -4
 1204              	.LBB138:
 1205              	.LBB136:
  73:Lib/AI_Runtime/Npu/ll_aton/ll_aton_caches_interface.h ****     LL_ATON_OSAL_UNLOCK_MCU_CACHE();
 1206              		.loc 2 73 5 view .LVU270
 1207 0002 104D     		ldr	r5, .L47
 1208 0004 104C     		ldr	r4, .L47+4
 1209              	.LBE136:
 1210              	.LBE138:
 186:Model/face_landmark.c ****   LL_ATON_LIB_UNUSED(epoch_block);
 1211              		.loc 1 186 1 view .LVU271
 1212 0006 85B0     		sub	sp, sp, #20
 1213              		.cfi_def_cfa_offset 32
 1214              	.LBB139:
 1215              	.LBB137:
  73:Lib/AI_Runtime/Npu/ll_aton/ll_aton_caches_interface.h ****     LL_ATON_OSAL_UNLOCK_MCU_CACHE();
 1216              		.loc 2 73 5 view .LVU272
 1217 0008 2946     		mov	r1, r5
 1218 000a 2046     		mov	r0, r4
 1219              	.LVL67:
  73:Lib/AI_Runtime/Npu/ll_aton/ll_aton_caches_interface.h ****     LL_ATON_OSAL_UNLOCK_MCU_CACHE();
 1220              		.loc 2 73 5 view .LVU273
 1221 000c FFF7FEFF 		bl	mcu_cache_invalidate_range
 1222              	.LVL68:
 1223              		.loc 2 74 36 is_stmt 1 view .LVU274
 1224              		.loc 2 74 36 is_stmt 0 view .LVU275
 1225              	.LBE137:
 1226              	.LBE139:
 196:Model/face_landmark.c **** 
 1227              		.loc 1 196 3 is_stmt 1 view .LVU276
 1228 0010 0021     		movs	r1, #0
 1229 0012 0846     		mov	r0, r1
 1230 0014 FFF7FEFF 		bl	LL_Switch_Init
 1231              	.LVL69:
 200:Model/face_landmark.c ****   static const LL_LIB_TensorShape_TypeDef Transpose_29_tensor_shape_in_12[] = {
 1232              		.loc 1 200 3 view .LVU277
 201:Model/face_landmark.c ****     {
 1233              		.loc 1 201 3 view .LVU278
 214:Model/face_landmark.c ****   static const uint32_t* Transpose_29_tensor_axes_offsets_in_12[] = {
 1234              		.loc 1 214 3 view .LVU279
 215:Model/face_landmark.c ****     Transpose_29_tensor_axes_offsets_in_12_0
 1235              		.loc 1 215 3 view .LVU280
 219:Model/face_landmark.c ****   static const LL_LIB_TensorShape_TypeDef Transpose_29_tensor_shape_out_12[] = {
 1236              		.loc 1 219 3 view .LVU281
 220:Model/face_landmark.c ****     {
 1237              		.loc 1 220 3 view .LVU282
 233:Model/face_landmark.c ****   static const uint32_t* Transpose_29_tensor_axes_offsets_out_12[] = {
 1238              		.loc 1 233 3 view .LVU283
 234:Model/face_landmark.c ****     Transpose_29_tensor_axes_offsets_out_12_0
 1239              		.loc 1 234 3 view .LVU284
 238:Model/face_landmark.c ****   static const uint8_t Transpose_29_target_pos_array_in_12[] = { 0, 3, 2, 1 };
 1240              		.loc 1 238 3 view .LVU285
 239:Model/face_landmark.c ****   LL_ATON_LIB_DMA_Transpose(&Transpose_29_tensor_shape_in_12[0], Transpose_29_tensor_axes_offsets_i
ARM GAS  /tmp/cc4rvpEd.s 			page 43


 1241              		.loc 1 239 3 view .LVU286
 240:Model/face_landmark.c **** 
 1242              		.loc 1 240 3 view .LVU287
 1243 0018 0223     		movs	r3, #2
 1244 001a 0322     		movs	r2, #3
 1245 001c CDE90232 		strd	r3, r2, [sp, #8]
 1246 0020 0A4B     		ldr	r3, .L47+8
 1247 0022 0B4A     		ldr	r2, .L47+12
 1248 0024 0193     		str	r3, [sp, #4]
 1249 0026 0B4B     		ldr	r3, .L47+16
 1250 0028 0B49     		ldr	r1, .L47+20
 1251 002a 0093     		str	r3, [sp]
 1252 002c 0B48     		ldr	r0, .L47+24
 1253 002e 0C4B     		ldr	r3, .L47+28
 1254 0030 FFF7FEFF 		bl	LL_ATON_LIB_DMA_Transpose
 1255              	.LVL70:
 246:Model/face_landmark.c **** 
 1256              		.loc 1 246 3 view .LVU288
 1257              	.LBB140:
 1258              	.LBI140:
  51:Lib/AI_Runtime/Npu/ll_aton/ll_aton_caches_interface.h ****   {
 1259              		.loc 2 51 22 view .LVU289
 1260              	.LBB141:
  53:Lib/AI_Runtime/Npu/ll_aton/ll_aton_caches_interface.h ****     mcu_cache_clean_range(virtual_addr, virtual_addr + size);
 1261              		.loc 2 53 34 view .LVU290
  54:Lib/AI_Runtime/Npu/ll_aton/ll_aton_caches_interface.h ****     LL_ATON_OSAL_UNLOCK_MCU_CACHE();
 1262              		.loc 2 54 5 view .LVU291
 1263 0034 2946     		mov	r1, r5
 1264 0036 2046     		mov	r0, r4
 1265              	.LBE141:
 1266              	.LBE140:
 248:Model/face_landmark.c **** 
 1267              		.loc 1 248 1 is_stmt 0 view .LVU292
 1268 0038 05B0     		add	sp, sp, #20
 1269              		.cfi_def_cfa_offset 12
 1270              		@ sp needed
 1271 003a BDE83040 		pop	{r4, r5, lr}
 1272              		.cfi_restore 14
 1273              		.cfi_restore 5
 1274              		.cfi_restore 4
 1275              		.cfi_def_cfa_offset 0
 1276              	.LBB143:
 1277              	.LBB142:
  54:Lib/AI_Runtime/Npu/ll_aton/ll_aton_caches_interface.h ****     LL_ATON_OSAL_UNLOCK_MCU_CACHE();
 1278              		.loc 2 54 5 view .LVU293
 1279 003e FFF7FEBF 		b	mcu_cache_clean_range
 1280              	.LVL71:
 1281              	.L48:
 1282 0042 00BF     		.align	2
 1283              	.L47:
 1284 0044 00402234 		.word	874659840
 1285 0048 00B02134 		.word	874622976
 1286 004c 00000000 		.word	Transpose_29_perm_to_use_array_in_12.374
 1287 0050 00000000 		.word	Transpose_29_tensor_shape_out_12.376
 1288 0054 00000000 		.word	Transpose_29_target_pos_array_in_12.375
 1289 0058 00000000 		.word	Transpose_29_tensor_axes_offsets_in_12_0.371
 1290 005c 00000000 		.word	Transpose_29_tensor_shape_in_12.377
ARM GAS  /tmp/cc4rvpEd.s 			page 44


 1291 0060 00000000 		.word	Transpose_29_tensor_axes_offsets_out_12_0.373
 1292              	.LBE142:
 1293              	.LBE143:
 1294              		.cfi_endproc
 1295              	.LFE4845:
 1297              		.section	.text.LL_ATON_End_EpochBlock_2,"ax",%progbits
 1298              		.align	1
 1299              		.syntax unified
 1300              		.thumb
 1301              		.thumb_func
 1303              	LL_ATON_End_EpochBlock_2:
 1304              	.LVL72:
 1305              	.LFB4843:
 114:Model/face_landmark.c ****   LL_ATON_LIB_UNUSED(epoch_block);
 1306              		.loc 1 114 1 is_stmt 1 view -0
 1307              		.cfi_startproc
 1308              		@ args = 0, pretend = 0, frame = 184
 1309              		@ frame_needed = 0, uses_anonymous_args = 0
 115:Model/face_landmark.c **** 
 1310              		.loc 1 115 3 view .LVU295
 120:Model/face_landmark.c ****     /* "general.input" tensor-related info: */
 1311              		.loc 1 120 3 view .LVU296
 114:Model/face_landmark.c ****   LL_ATON_LIB_UNUSED(epoch_block);
 1312              		.loc 1 114 1 is_stmt 0 view .LVU297
 1313 0000 10B5     		push	{r4, lr}
 1314              		.cfi_def_cfa_offset 8
 1315              		.cfi_offset 4, -8
 1316              		.cfi_offset 14, -4
 1317 0002 AEB0     		sub	sp, sp, #184
 1318              		.cfi_def_cfa_offset 192
 120:Model/face_landmark.c ****     /* "general.input" tensor-related info: */
 1319              		.loc 1 120 26 view .LVU298
 1320 0004 B422     		movs	r2, #180
 1321 0006 0021     		movs	r1, #0
 1322 0008 01A8     		add	r0, sp, #4
 1323              	.LVL73:
 120:Model/face_landmark.c ****     /* "general.input" tensor-related info: */
 1324              		.loc 1 120 26 view .LVU299
 1325 000a FFF7FEFF 		bl	memset
 1326              	.LVL74:
 1327 000e 4FF41064 		mov	r4, #2304
 1328 0012 4FF4D831 		mov	r1, #110592
 1329 0016 C022     		movs	r2, #192
 1330 0018 2823     		movs	r3, #40
 1331 001a 0320     		movs	r0, #3
 1332 001c 4FF00C0C 		mov	ip, #12
 1333 0020 CDE90614 		strd	r1, r4, [sp, #24]
 1334 0024 CDE90222 		strd	r2, r2, [sp, #8]
 1335 0028 CDE90D22 		strd	r2, r2, [sp, #52]
 1336 002c 0424     		movs	r4, #4
 1337 002e 4FF41072 		mov	r2, #576
 1338 0032 4FF4D82E 		mov	lr, #442368
 1339 0036 8DF80430 		strb	r3, [sp, #4]
 1340 003a 0123     		movs	r3, #1
 1341 003c CDE908C4 		strd	ip, r4, [sp, #32]
 1342 0040 CDE91220 		strd	r2, r0, [sp, #72]
 1343 0044 104C     		ldr	r4, .L50
ARM GAS  /tmp/cc4rvpEd.s 			page 45


 1344 0046 114A     		ldr	r2, .L50+4
 1345 0048 CDE90403 		strd	r0, r3, [sp, #16]
 1346 004c CDE90AE4 		strd	lr, r4, [sp, #40]
 1347 0050 CDE90F03 		strd	r0, r3, [sp, #60]
 1348 0054 04F5D824 		add	r4, r4, #442368
 1349 0058 2192     		str	r2, [sp, #132]
 158:Model/face_landmark.c ****   /* *** MCU cache clean (only) operation (SW, whole range) *** */
 1350              		.loc 1 158 3 view .LVU300
 1351 005a 01A8     		add	r0, sp, #4
 120:Model/face_landmark.c ****     /* "general.input" tensor-related info: */
 1352              		.loc 1 120 26 view .LVU301
 1353 005c 3032     		adds	r2, r2, #48
 1354 005e CDE91431 		strd	r3, r1, [sp, #80]
 1355 0062 1191     		str	r1, [sp, #68]
 1356 0064 8DF85C30 		strb	r3, [sp, #92]
 1357 0068 1C93     		str	r3, [sp, #112]
 1358 006a 8DF88830 		strb	r3, [sp, #136]
 1359 006e 2793     		str	r3, [sp, #156]
 1360 0070 2C92     		str	r2, [sp, #176]
 1361 0072 8DF8B430 		strb	r3, [sp, #180]
 158:Model/face_landmark.c ****   /* *** MCU cache clean (only) operation (SW, whole range) *** */
 1362              		.loc 1 158 3 is_stmt 1 view .LVU302
 120:Model/face_landmark.c ****     /* "general.input" tensor-related info: */
 1363              		.loc 1 120 26 is_stmt 0 view .LVU303
 1364 0076 1694     		str	r4, [sp, #88]
 158:Model/face_landmark.c ****   /* *** MCU cache clean (only) operation (SW, whole range) *** */
 1365              		.loc 1 158 3 view .LVU304
 1366 0078 FFF7FEFF 		bl	ll_sw_forward_quantizelinear
 1367              	.LVL75:
 163:Model/face_landmark.c **** 
 1368              		.loc 1 163 3 is_stmt 1 view .LVU305
 1369              	.LBB144:
 1370              	.LBI144:
  51:Lib/AI_Runtime/Npu/ll_aton/ll_aton_caches_interface.h ****   {
 1371              		.loc 2 51 22 view .LVU306
 1372              	.LBB145:
  53:Lib/AI_Runtime/Npu/ll_aton/ll_aton_caches_interface.h ****     mcu_cache_clean_range(virtual_addr, virtual_addr + size);
 1373              		.loc 2 53 34 view .LVU307
  54:Lib/AI_Runtime/Npu/ll_aton/ll_aton_caches_interface.h ****     LL_ATON_OSAL_UNLOCK_MCU_CACHE();
 1374              		.loc 2 54 5 view .LVU308
 1375 007c 2046     		mov	r0, r4
 1376 007e 0449     		ldr	r1, .L50+8
 1377 0080 FFF7FEFF 		bl	mcu_cache_clean_range
 1378              	.LVL76:
  55:Lib/AI_Runtime/Npu/ll_aton/ll_aton_caches_interface.h ****   }
 1379              		.loc 2 55 36 view .LVU309
  55:Lib/AI_Runtime/Npu/ll_aton/ll_aton_caches_interface.h ****   }
 1380              		.loc 2 55 36 is_stmt 0 view .LVU310
 1381              	.LBE145:
 1382              	.LBE144:
 165:Model/face_landmark.c **** 
 1383              		.loc 1 165 1 view .LVU311
 1384 0084 2EB0     		add	sp, sp, #184
 1385              		.cfi_def_cfa_offset 8
 1386              		@ sp needed
 1387 0086 10BD     		pop	{r4, pc}
 1388              	.L51:
ARM GAS  /tmp/cc4rvpEd.s 			page 46


 1389              		.align	2
 1390              	.L50:
 1391 0088 00002034 		.word	874512384
 1392 008c F0CF4170 		.word	1883361264
 1393 0090 00702834 		.word	875065344
 1394              		.cfi_endproc
 1395              	.LFE4843:
 1397              		.section	.text.LL_ATON_Set_User_Input_Buffer_face_landmark,"ax",%progbits
 1398              		.align	1
 1399              		.global	LL_ATON_Set_User_Input_Buffer_face_landmark
 1400              		.syntax unified
 1401              		.thumb
 1402              		.thumb_func
 1404              	LL_ATON_Set_User_Input_Buffer_face_landmark:
 1405              	.LVL77:
 1406              	.LFB4837:
  77:Model/face_landmark.c ****   { 
 1407              		.loc 1 77 1 is_stmt 1 view -0
 1408              		.cfi_startproc
 1409              		@ args = 0, pretend = 0, frame = 0
 1410              		@ frame_needed = 0, uses_anonymous_args = 0
 1411              		@ link register save eliminated.
  79:Model/face_landmark.c ****   }
 1412              		.loc 1 79 5 view .LVU313
  81:Model/face_landmark.c **** 
 1413              		.loc 1 81 1 is_stmt 0 view .LVU314
 1414 0000 0320     		movs	r0, #3
 1415              	.LVL78:
  81:Model/face_landmark.c **** 
 1416              		.loc 1 81 1 view .LVU315
 1417 0002 7047     		bx	lr
 1418              		.cfi_endproc
 1419              	.LFE4837:
 1421              		.section	.text.LL_ATON_Get_User_Input_Buffer_face_landmark,"ax",%progbits
 1422              		.align	1
 1423              		.global	LL_ATON_Get_User_Input_Buffer_face_landmark
 1424              		.syntax unified
 1425              		.thumb
 1426              		.thumb_func
 1428              	LL_ATON_Get_User_Input_Buffer_face_landmark:
 1429              	.LVL79:
 1430              	.LFB4838:
  84:Model/face_landmark.c ****   { 
 1431              		.loc 1 84 1 is_stmt 1 view -0
 1432              		.cfi_startproc
 1433              		@ args = 0, pretend = 0, frame = 0
 1434              		@ frame_needed = 0, uses_anonymous_args = 0
 1435              		@ link register save eliminated.
  86:Model/face_landmark.c ****   }
 1436              		.loc 1 86 5 view .LVU317
  88:Model/face_landmark.c **** 
 1437              		.loc 1 88 1 is_stmt 0 view .LVU318
 1438 0000 0020     		movs	r0, #0
 1439              	.LVL80:
  88:Model/face_landmark.c **** 
 1440              		.loc 1 88 1 view .LVU319
 1441 0002 7047     		bx	lr
ARM GAS  /tmp/cc4rvpEd.s 			page 47


 1442              		.cfi_endproc
 1443              	.LFE4838:
 1445              		.section	.text.LL_ATON_Set_User_Output_Buffer_face_landmark,"ax",%progbits
 1446              		.align	1
 1447              		.global	LL_ATON_Set_User_Output_Buffer_face_landmark
 1448              		.syntax unified
 1449              		.thumb
 1450              		.thumb_func
 1452              	LL_ATON_Set_User_Output_Buffer_face_landmark:
 1453              	.LFB4865:
 1454              		.cfi_startproc
  90:Model/face_landmark.c **** {
 1455              		.loc 1 90 26 is_stmt 1 view -0
 1456              		@ args = 0, pretend = 0, frame = 0
 1457              		@ frame_needed = 0, uses_anonymous_args = 0
 1458              		@ link register save eliminated.
 1459 0000 0320     		movs	r0, #3
 1460 0002 7047     		bx	lr
 1461              		.cfi_endproc
 1462              	.LFE4865:
 1464              		.section	.text.LL_ATON_Get_User_Output_Buffer_face_landmark,"ax",%progbits
 1465              		.align	1
 1466              		.global	LL_ATON_Get_User_Output_Buffer_face_landmark
 1467              		.syntax unified
 1468              		.thumb
 1469              		.thumb_func
 1471              	LL_ATON_Get_User_Output_Buffer_face_landmark:
 1472              	.LFB4867:
 1473              		.cfi_startproc
  97:Model/face_landmark.c **** {
 1474              		.loc 1 97 7 view -0
 1475              		@ args = 0, pretend = 0, frame = 0
 1476              		@ frame_needed = 0, uses_anonymous_args = 0
 1477              		@ link register save eliminated.
 1478 0000 0020     		movs	r0, #0
 1479 0002 7047     		bx	lr
 1480              		.cfi_endproc
 1481              	.LFE4867:
 1483              		.section	.text.LL_ATON_EC_Network_Init_face_landmark,"ax",%progbits
 1484              		.align	1
 1485              		.global	LL_ATON_EC_Network_Init_face_landmark
 1486              		.syntax unified
 1487              		.thumb
 1488              		.thumb_func
 1490              	LL_ATON_EC_Network_Init_face_landmark:
 1491              	.LFB4841:
 1492              		.file 3 "Model/face_landmark_ecblobs.h"
   1:Model/face_landmark_ecblobs.h **** /**
   2:Model/face_landmark_ecblobs.h ****   ******************************************************************************
   3:Model/face_landmark_ecblobs.h ****   * @file    face_landmark_ecblobs.h
   4:Model/face_landmark_ecblobs.h ****   * @brief   NN Code autogenerated DO NOT MODIFY IT
   5:Model/face_landmark_ecblobs.h ****   ******************************************************************************
   6:Model/face_landmark_ecblobs.h ****   * @attention
   7:Model/face_landmark_ecblobs.h ****   *
   8:Model/face_landmark_ecblobs.h ****   * Copyright (c) 2024 STMicroelectronics.
   9:Model/face_landmark_ecblobs.h ****   * All rights reserved.
  10:Model/face_landmark_ecblobs.h ****   *
ARM GAS  /tmp/cc4rvpEd.s 			page 48


  11:Model/face_landmark_ecblobs.h ****   * This software is licensed under terms that can be found in the LICENSE file
  12:Model/face_landmark_ecblobs.h ****   * in the root directory of this software component.
  13:Model/face_landmark_ecblobs.h ****   * If no LICENSE file comes with this software, it is provided AS-IS.
  14:Model/face_landmark_ecblobs.h ****   *
  15:Model/face_landmark_ecblobs.h ****   ******************************************************************************
  16:Model/face_landmark_ecblobs.h ****   */
  17:Model/face_landmark_ecblobs.h **** 
  18:Model/face_landmark_ecblobs.h **** 
  19:Model/face_landmark_ecblobs.h **** #ifdef __cplusplus
  20:Model/face_landmark_ecblobs.h **** extern "C" {
  21:Model/face_landmark_ecblobs.h **** #endif
  22:Model/face_landmark_ecblobs.h **** 
  23:Model/face_landmark_ecblobs.h **** #include "ll_aton_caches_interface.h"
  24:Model/face_landmark_ecblobs.h **** 
  25:Model/face_landmark_ecblobs.h **** #include <string.h>
  26:Model/face_landmark_ecblobs.h **** 
  27:Model/face_landmark_ecblobs.h **** #if !defined(ECBLOB_CONST_SECTION)
  28:Model/face_landmark_ecblobs.h **** #define ECBLOB_CONST_SECTION /* Empty */
  29:Model/face_landmark_ecblobs.h **** #endif
  30:Model/face_landmark_ecblobs.h **** #if !defined(ECBLOB_RUNTIME_SECTION)
  31:Model/face_landmark_ecblobs.h **** #define ECBLOB_RUNTIME_SECTION /* Empty */
  32:Model/face_landmark_ecblobs.h **** #endif
  33:Model/face_landmark_ecblobs.h **** 
  34:Model/face_landmark_ecblobs.h **** #define EC_DECRYPT__ec_blob_face_landmark_1 false    // Epoch Controller must NOT be programmed for
  35:Model/face_landmark_ecblobs.h **** 
  36:Model/face_landmark_ecblobs.h **** ECBLOB_CONST_SECTION
  37:Model/face_landmark_ecblobs.h **** static const uint64_t _ec_blob_face_landmark_1[] =
  38:Model/face_landmark_ecblobs.h **** {
  39:Model/face_landmark_ecblobs.h ****   0x00000002ca057a7aUL, 0x0000000c0000003dUL
  40:Model/face_landmark_ecblobs.h **** };
  41:Model/face_landmark_ecblobs.h **** 
  42:Model/face_landmark_ecblobs.h **** 
  43:Model/face_landmark_ecblobs.h **** #define EC_DECRYPT__ec_blob_face_landmark_3 false    // Epoch Controller must NOT be programmed for
  44:Model/face_landmark_ecblobs.h **** 
  45:Model/face_landmark_ecblobs.h **** ECBLOB_CONST_SECTION
  46:Model/face_landmark_ecblobs.h **** static const uint64_t _ec_blob_face_landmark_3[] =
  47:Model/face_landmark_ecblobs.h **** {
  48:Model/face_landmark_ecblobs.h ****   0x00000cc9ca057a7aUL, 0x008021410000007dUL, 0x000000543c007c00UL, 0x040303033c0200c3UL,
  49:Model/face_landmark_ecblobs.h ****   0x10a3420200002244UL, 0x023f000000c00240UL, 0x3c0a7c0000bf0000UL, 0x3c0c004300000000UL,
  50:Model/face_landmark_ecblobs.h ****   0x0000000000ffffffUL, 0x5c00004200802241UL, 0x0900006008000000UL, 0x000880005c027c00UL,
  51:Model/face_landmark_ecblobs.h ****   0x00004fae5c070043UL, 0x5c0c004300000000UL, 0x2042204200000000UL, 0x6000004200802261UL,
  52:Model/face_landmark_ecblobs.h ****   0x156000fc08000000UL, 0x000a000060020123UL, 0x0000000300000000UL, 0x00023fff00008fffUL,
  53:Model/face_landmark_ecblobs.h ****   0x0000000000006435UL, 0x0000000107c403fdUL, 0x00000000600c0043UL, 0x600b7c0020422042UL,
  54:Model/face_landmark_ecblobs.h ****   0x6100040300000001UL, 0x00008f6301086435UL, 0x0000dc14fefa6435UL, 0x0000cbe800b46435UL,
  55:Model/face_landmark_ecblobs.h ****   0x0000a8c000b16435UL, 0x0000480b01836435UL, 0x00003597013d6435UL, 0x000065a2fe7d6435UL,
  56:Model/face_landmark_ecblobs.h ****   0x0000911ffff76435UL, 0x00001931fec26435UL, 0x00005e20feff6435UL, 0x00008da200446435UL,
  57:Model/face_landmark_ecblobs.h ****   0x0000eb5a00856435UL, 0x00001ae7fff96435UL, 0x0000b4f100186435UL, 0x0000a9b201166435UL,
  58:Model/face_landmark_ecblobs.h ****   0x0000eb57004a6435UL, 0x6400004200802281UL, 0x05006e6008000000UL, 0x0000000064027c00UL,
  59:Model/face_landmark_ecblobs.h ****   0xfffdff8064070043UL, 0x640c004300000000UL, 0x1041104100000000UL, 0x68000042008022a1UL,
  60:Model/face_landmark_ecblobs.h ****   0x096000fc08000000UL, 0x0000000068020123UL, 0x0000000300000000UL, 0x00023fff00008fffUL,
  61:Model/face_landmark_ecblobs.h ****   0x0000000000000001UL, 0x0000000107c403fdUL, 0x00000000680c0043UL, 0x680b7c0010411041UL,
  62:Model/face_landmark_ecblobs.h ****   0x6900040300000001UL, 0x000000000000004fUL, 0x0000000000000040UL, 0x000000000000002dUL,
  63:Model/face_landmark_ecblobs.h ****   0x000000000000fffdUL, 0x0000000000000046UL, 0x0000000000000041UL, 0x0000000000000067UL,
  64:Model/face_landmark_ecblobs.h ****   0x000000000000ffe7UL, 0x000000000000007cUL, 0x000000000000007fUL, 0x0000000000000044UL,
  65:Model/face_landmark_ecblobs.h ****   0x000000000000002cUL, 0x000000000000fff6UL, 0x0000000000000020UL, 0x000000000000004dUL,
  66:Model/face_landmark_ecblobs.h ****   0x000000000000fff2UL, 0x2c007c00008020c1UL, 0x2c0200430008c100UL, 0x0001b0003426c000UL,
  67:Model/face_landmark_ecblobs.h ****   0x000000002c0500c3UL, 0x000000010001b000UL, 0x0000002400000000UL, 0x2c0c004200100000UL,
ARM GAS  /tmp/cc4rvpEd.s 			page 49


  68:Model/face_landmark_ecblobs.h ****   0x0000000700000006UL, 0x000000042c0d0043UL, 0x2c1100433428703fUL, 0x0000000000000000UL,
  69:Model/face_landmark_ecblobs.h ****   0x28007c00008020a1UL, 0x280200430008c184UL, 0x000001b07041cac0UL, 0x00000000280500c3UL,
  70:Model/face_landmark_ecblobs.h ****   0x0000000000000000UL, 0x0000002400000000UL, 0x280c004200100000UL, 0x0000000700000006UL,
  71:Model/face_landmark_ecblobs.h ****   0x00000001280d0043UL, 0x281100437041ccafUL, 0x0000000800000000UL, 0x14007c0000802001UL,
  72:Model/face_landmark_ecblobs.h ****   0x1402004300080108UL, 0x0000900034248000UL, 0x00000000140500c3UL, 0x0000000000009000UL,
  73:Model/face_landmark_ecblobs.h ****   0x0000002400000000UL, 0x140c004200100000UL, 0x0000000700000006UL, 0x00000004140d0043UL,
  74:Model/face_landmark_ecblobs.h ****   0x141100433426c03fUL, 0x0000000000000000UL, 0x18007c0000802021UL, 0x1802004300880108UL,
  75:Model/face_landmark_ecblobs.h ****   0x0000900034200000UL, 0x00000000180500c3UL, 0x0000000000012000UL, 0x0000002400000000UL,
  76:Model/face_landmark_ecblobs.h ****   0x180c004200100000UL, 0x0000000700000006UL, 0x00000004180d0043UL, 0x181100433424803fUL,
  77:Model/face_landmark_ecblobs.h ****   0x0000000000000000UL, 0x0000000210007c00UL, 0x0000006410000424UL, 0x10007c0000000000UL,
  78:Model/face_landmark_ecblobs.h ****   0x10007bc440000000UL, 0x0000000000000064UL, 0x0000000110007c00UL, 0x0000002710020043UL,
  79:Model/face_landmark_ecblobs.h ****   0x100c00430000002bUL, 0x0000000b0000000dUL, 0x00000015101e7c00UL, 0x0000002510207c00UL,
  80:Model/face_landmark_ecblobs.h ****   0x0000002710227c00UL, 0x0000002910247c00UL, 0x1800200114002001UL, 0x000000553c007c00UL,
  81:Model/face_landmark_ecblobs.h ****   0x600020015c002001UL, 0x6800200164002001UL, 0x2c00200128002001UL, 0x0000006414007fe4UL,
  82:Model/face_landmark_ecblobs.h ****   0x18007fe400000000UL, 0x0000000000000064UL, 0x0000000010020043UL, 0x100c004300000000UL,
  83:Model/face_landmark_ecblobs.h ****   0x0000000000000000UL, 0x00000000101e7c00UL, 0x0000000010207c00UL, 0x0000000010227c00UL,
  84:Model/face_landmark_ecblobs.h ****   0x0000000010247c00UL, 0x0000000214007c00UL, 0x0000006414000424UL, 0x14007c0000000000UL,
  85:Model/face_landmark_ecblobs.h ****   0x14007bc440000000UL, 0x0000000000000064UL, 0x18007c0000800001UL, 0x1800042400000002UL,
  86:Model/face_landmark_ecblobs.h ****   0x0000000000000064UL, 0x4000000018007c00UL, 0x0000006418007bc4UL, 0x0080002100000000UL,
  87:Model/face_landmark_ecblobs.h ****   0x000000023c007c00UL, 0x000000643c000424UL, 0x3c007c0000000000UL, 0x3c007bc440000000UL,
  88:Model/face_landmark_ecblobs.h ****   0x0000000000000064UL, 0x5c007c0000800141UL, 0x5c00042408000002UL, 0x0000000000000064UL,
  89:Model/face_landmark_ecblobs.h ****   0x480000005c007c00UL, 0x000000645c007bc4UL, 0x0080024100000000UL, 0x0800000260007c00UL,
  90:Model/face_landmark_ecblobs.h ****   0x0000006460000424UL, 0x60007c0000000000UL, 0x60007bc448000000UL, 0x0000000000000064UL,
  91:Model/face_landmark_ecblobs.h ****   0x64007c0000800261UL, 0x6400042408000002UL, 0x0000000000000064UL, 0x4800000064007c00UL,
  92:Model/face_landmark_ecblobs.h ****   0x0000006464007bc4UL, 0x0080028100000000UL, 0x0800000268007c00UL, 0x0000006468000424UL,
  93:Model/face_landmark_ecblobs.h ****   0x68007c0000000000UL, 0x68007bc448000000UL, 0x0000000000000064UL, 0x28007c00008002a1UL,
  94:Model/face_landmark_ecblobs.h ****   0x2800042400000002UL, 0x0000000000000064UL, 0x4000000028007c00UL, 0x0000006428007bc4UL,
  95:Model/face_landmark_ecblobs.h ****   0x008000a100000000UL, 0x000000022c007c00UL, 0x000000642c000424UL, 0x2c007c0000000000UL,
  96:Model/face_landmark_ecblobs.h ****   0x2c007bc440000000UL, 0x0000000000000064UL, 0x0000009d008000c1UL, 0x5c00004200802241UL,
  97:Model/face_landmark_ecblobs.h ****   0x156000fc08000000UL, 0x000a80005c020123UL, 0x0000000300000000UL, 0x00023fff00008fffUL,
  98:Model/face_landmark_ecblobs.h ****   0x0000000000004f90UL, 0x0000000107c403fdUL, 0x000000005c0c0043UL, 0x5c0b7c0010412042UL,
  99:Model/face_landmark_ecblobs.h ****   0x5d00040300000001UL, 0x0000a8ac00094f90UL, 0x0000ac4bfffb4f90UL, 0x0000f524ffe94f90UL,
 100:Model/face_landmark_ecblobs.h ****   0x000033ecffbd4f90UL, 0x0000447200014f90UL, 0x00009afcfffc4f90UL, 0x0000094800204f90UL,
 101:Model/face_landmark_ecblobs.h ****   0x0000b0b2ffa84f90UL, 0x00009dd100334f90UL, 0x000069e500364f90UL, 0x0000670fffff4f90UL,
 102:Model/face_landmark_ecblobs.h ****   0x00000673ffe94f90UL, 0x0000ad14ffb64f90UL, 0x0000d625ffdd4f90UL, 0x0000cb4a00074f90UL,
 103:Model/face_landmark_ecblobs.h ****   0x0000f24fffb24f90UL, 0x54007c0000802201UL, 0x540200430174104cUL, 0x029001cf00087f80UL,
 104:Model/face_landmark_ecblobs.h ****   0x0000000055000403UL, 0x0000000000000000UL, 0x0000000000000000UL, 0x0000000000000000UL,
 105:Model/face_landmark_ecblobs.h ****   0x0000000000000000UL, 0x0000000000000000UL, 0x0000000000000000UL, 0x0000000000000000UL,
 106:Model/face_landmark_ecblobs.h ****   0x00000009000000c1UL, 0x0000000900000009UL, 0x0000000900000009UL, 0x0000000900000009UL,
 107:Model/face_landmark_ecblobs.h ****   0x0000000900000009UL, 0x0000000900000009UL, 0x0000000900000009UL, 0x0000000900000009UL,
 108:Model/face_landmark_ecblobs.h ****   0x56000483000000caUL, 0x0000fe0000000000UL, 0x0000fe0000000000UL, 0x0000fe0000000000UL,
 109:Model/face_landmark_ecblobs.h ****   0x0000fe0000000000UL, 0x0000fe0000000000UL, 0x0000fe0000000000UL, 0x0000fe0000000000UL,
 110:Model/face_landmark_ecblobs.h ****   0x0000ff0000000000UL, 0x0000000000000000UL, 0x000000fa7f010000UL, 0x0000780000000000UL,
 111:Model/face_landmark_ecblobs.h ****   0x0000790000000000UL, 0x00007a0000000000UL, 0x00007b0000000000UL, 0x00007c0000000000UL,
 112:Model/face_landmark_ecblobs.h ****   0x00007d0000000000UL, 0x00007e0000000000UL, 0x00007f0000000000UL, 0x6000004200802261UL,
 113:Model/face_landmark_ecblobs.h ****   0x0500016008000000UL, 0x0007040060027c00UL, 0x4000400060070043UL, 0x600c004300004000UL,
 114:Model/face_landmark_ecblobs.h ****   0x1041104100000000UL, 0x40007c0000802161UL, 0x400200c300000054UL, 0x0000115504040303UL,
 115:Model/face_landmark_ecblobs.h ****   0x0060018010a34101UL, 0x005f0000017f0000UL, 0x00000000400a7c00UL, 0x00fffffe400c0043UL,
 116:Model/face_landmark_ecblobs.h ****   0x0080228100000000UL, 0x0800000064000042UL, 0x64027c0009000060UL, 0x6407004300078000UL,
 117:Model/face_landmark_ecblobs.h ****   0x00000000000072d4UL, 0x00000000640c0043UL, 0x008022a120422042UL, 0x0800000068000042UL,
 118:Model/face_landmark_ecblobs.h ****   0x68027c0015000060UL, 0x68070043000a0000UL, 0x000000b000004237UL, 0x00000000680c0043UL,
 119:Model/face_landmark_ecblobs.h ****   0x008020e120422042UL, 0x0088010030007c00UL, 0x3420000030020043UL, 0x300500c300009000UL,
 120:Model/face_landmark_ecblobs.h ****   0x0001200000000000UL, 0x0000000000000000UL, 0x0010000000000024UL, 0x00000006300c0042UL,
 121:Model/face_landmark_ecblobs.h ****   0x300d004300000007UL, 0x3424803f00000004UL, 0x0000000030110043UL, 0x0080204100000000UL,
 122:Model/face_landmark_ecblobs.h ****   0x000801001c007c00UL, 0x342480001c020043UL, 0x1c0500c300009000UL, 0x0000900000000000UL,
 123:Model/face_landmark_ecblobs.h ****   0x0000000000000000UL, 0x0010000000000024UL, 0x000000061c0c0042UL, 0x1c0d004300000007UL,
 124:Model/face_landmark_ecblobs.h ****   0x3426c03f00000004UL, 0x000000001c110043UL, 0x0080202100000000UL, 0x0008c18418007c00UL,
ARM GAS  /tmp/cc4rvpEd.s 			page 50


 125:Model/face_landmark_ecblobs.h ****   0x7041c20018020043UL, 0x180500c300000240UL, 0x0000000000000000UL, 0x0000000000000000UL,
 126:Model/face_landmark_ecblobs.h ****   0x0010000000000024UL, 0x00000006180c0042UL, 0x180d004300000007UL, 0x7041c47f00000001UL,
 127:Model/face_landmark_ecblobs.h ****   0x0000000018110043UL, 0x0080208100000008UL, 0x0008010824007c00UL, 0x3429000024020043UL,
 128:Model/face_landmark_ecblobs.h ****   0x240500c300009000UL, 0x0000900000000000UL, 0x0000000000000000UL, 0x0010000000000024UL,
 129:Model/face_landmark_ecblobs.h ****   0x00000006240c0042UL, 0x240d004300000007UL, 0x342b403f00000004UL, 0x0000000024110043UL,
 130:Model/face_landmark_ecblobs.h ****   0x008020c100000000UL, 0x000800082c007c00UL, 0x3426c0002c020123UL, 0x0010000400600060UL,
 131:Model/face_landmark_ecblobs.h ****   0x0000000400000600UL, 0x0002400000000004UL, 0x0010000000000024UL, 0x000000062c0c0042UL,
 132:Model/face_landmark_ecblobs.h ****   0x2c0d004300000007UL, 0x3429003f00000004UL, 0x000000002c110043UL, 0x10007c0000000000UL,
 133:Model/face_landmark_ecblobs.h ****   0x1000042400000002UL, 0x0000000000000064UL, 0x4000000010007c00UL, 0x0000006410007bc4UL,
 134:Model/face_landmark_ecblobs.h ****   0x10007c0000000000UL, 0x10067c0000000001UL, 0x10087c0000000027UL, 0x100f00430000002bUL,
 135:Model/face_landmark_ecblobs.h ****   0x00000003ff260427UL, 0x00000005101c7c00UL, 0x0000000f101e7c00UL, 0x0000002110200063UL,
 136:Model/face_landmark_ecblobs.h ****   0x0000001700000025UL, 0x0000002910247c00UL, 0x2c00200124002001UL, 0x0000005540007c00UL,
 137:Model/face_landmark_ecblobs.h ****   0x5c00200154002001UL, 0x6400200160002001UL, 0x1800200168002001UL, 0x300020011c002001UL,
 138:Model/face_landmark_ecblobs.h ****   0x0000006424007fe4UL, 0x2c007fe400000000UL, 0x0000000000000064UL, 0x0000000010067c00UL,
 139:Model/face_landmark_ecblobs.h ****   0x0000000010087c00UL, 0x00000000100f0043UL, 0x101c7c0000000000UL, 0x101e7c0000000000UL,
 140:Model/face_landmark_ecblobs.h ****   0x1020006300000000UL, 0x0000000000000000UL, 0x10247c0000000000UL, 0x24007c0000000000UL,
 141:Model/face_landmark_ecblobs.h ****   0x2400042400000002UL, 0x0000000000000064UL, 0x4000000024007c00UL, 0x0000006424007bc4UL,
 142:Model/face_landmark_ecblobs.h ****   0x0080008100000000UL, 0x000000022c007c00UL, 0x000000642c000424UL, 0x2c007c0000000000UL,
 143:Model/face_landmark_ecblobs.h ****   0x2c007bc440000000UL, 0x0000000000000064UL, 0x40007c00008000c1UL, 0x4000042400000002UL,
 144:Model/face_landmark_ecblobs.h ****   0x0000000000000064UL, 0x4000000040007c00UL, 0x0000006440007bc4UL, 0x0080016100000000UL,
 145:Model/face_landmark_ecblobs.h ****   0x0088108254007c00UL, 0x0000006454000424UL, 0x54007c0000000000UL, 0x54007bc440881080UL,
 146:Model/face_landmark_ecblobs.h ****   0x0000000000000064UL, 0x5c007c0000800201UL, 0x5c00042408000002UL, 0x0000000000000064UL,
 147:Model/face_landmark_ecblobs.h ****   0x480000005c007c00UL, 0x000000645c007bc4UL, 0x0080024100000000UL, 0x0800000260007c00UL,
 148:Model/face_landmark_ecblobs.h ****   0x0000006460000424UL, 0x60007c0000000000UL, 0x60007bc448000000UL, 0x0000000000000064UL,
 149:Model/face_landmark_ecblobs.h ****   0x64007c0000800261UL, 0x6400042408000002UL, 0x0000000000000064UL, 0x4800000064007c00UL,
 150:Model/face_landmark_ecblobs.h ****   0x0000006464007bc4UL, 0x0080028100000000UL, 0x0800000268007c00UL, 0x0000006468000424UL,
 151:Model/face_landmark_ecblobs.h ****   0x68007c0000000000UL, 0x68007bc448000000UL, 0x0000000000000064UL, 0x18007c00008002a1UL,
 152:Model/face_landmark_ecblobs.h ****   0x1800042400000002UL, 0x0000000000000064UL, 0x4000000018007c00UL, 0x0000006418007bc4UL,
 153:Model/face_landmark_ecblobs.h ****   0x0080002100000000UL, 0x000000021c007c00UL, 0x000000641c000424UL, 0x1c007c0000000000UL,
 154:Model/face_landmark_ecblobs.h ****   0x1c007bc440000000UL, 0x0000000000000064UL, 0x30007c0000800041UL, 0x3000042400000002UL,
 155:Model/face_landmark_ecblobs.h ****   0x0000000000000064UL, 0x4000000030007c00UL, 0x0000006430007bc4UL, 0x008000e100000000UL,
 156:Model/face_landmark_ecblobs.h ****   0x00802181000000bdUL, 0x0000005444007c00UL, 0x10100101440200c3UL, 0x10a3420200001100UL,
 157:Model/face_landmark_ecblobs.h ****   0x05ff000000600600UL, 0x440a7c00005f0000UL, 0x440c004300000000UL, 0x000000000000000bUL,
 158:Model/face_landmark_ecblobs.h ****   0x5c00004200802241UL, 0x0900006008000000UL, 0x000780005c027c00UL, 0x00006ccd5c070043UL,
 159:Model/face_landmark_ecblobs.h ****   0x5c0c004300000000UL, 0x2042204200000000UL, 0x6000004200802261UL, 0x156000fc08000000UL,
 160:Model/face_landmark_ecblobs.h ****   0x000a000060020123UL, 0x0000000f00000000UL, 0x00023fff00023fffUL, 0x0000000000005928UL,
 161:Model/face_landmark_ecblobs.h ****   0x0000000107c403f1UL, 0x00000000600c0043UL, 0x600b7c0020422042UL, 0x6100040300000001UL,
 162:Model/face_landmark_ecblobs.h ****   0x0000342affe45928UL, 0x00008a7c00085928UL, 0x0000ae0b00125928UL, 0x00008e53ffcf5928UL,
 163:Model/face_landmark_ecblobs.h ****   0x00003191ff9e5928UL, 0x0000278e001a5928UL, 0x0000b16affdb5928UL, 0x00003cf0ffe75928UL,
 164:Model/face_landmark_ecblobs.h ****   0x000042e8fff65928UL, 0x000056b0001b5928UL, 0x00001ae2ffae5928UL, 0x0000fca100065928UL,
 165:Model/face_landmark_ecblobs.h ****   0x0000c832ffa25928UL, 0x0000f320ffb55928UL, 0x000026d3ffcc5928UL, 0x0000a6c6ffe05928UL,
 166:Model/face_landmark_ecblobs.h ****   0x24007c0000802081UL, 0x240200430008c104UL, 0x000240003426c000UL, 0x00000000240500c3UL,
 167:Model/face_landmark_ecblobs.h ****   0x0000000100024000UL, 0x0000002400000000UL, 0x240c004200100000UL, 0x0000000700000006UL,
 168:Model/face_landmark_ecblobs.h ****   0x00000001240d0043UL, 0x241100433429003fUL, 0x0000000000000000UL, 0x1c007c0000802041UL,
 169:Model/face_landmark_ecblobs.h ****   0x1c0200430008c184UL, 0x000001007041cd90UL, 0x000000001c0500c3UL, 0x0000000000000000UL,
 170:Model/face_landmark_ecblobs.h ****   0x0000002400000000UL, 0x1c0c004200100000UL, 0x0000000700000006UL, 0x000000011c0d0043UL,
 171:Model/face_landmark_ecblobs.h ****   0x1c1100437041cecfUL, 0x0000000800000000UL, 0x28007c00008020a1UL, 0x280200430008010cUL,
 172:Model/face_landmark_ecblobs.h ****   0x0002400034200000UL, 0x00000000280500c3UL, 0x0000000000024000UL, 0x0000002400000000UL,
 173:Model/face_landmark_ecblobs.h ****   0x280c004200100000UL, 0x0000000700000006UL, 0x00000001280d0043UL, 0x281100433422403fUL,
 174:Model/face_landmark_ecblobs.h ****   0x0000000000000000UL, 0x0000000210007c00UL, 0x0000006410000424UL, 0x10007c0000000000UL,
 175:Model/face_landmark_ecblobs.h ****   0x10007bc440000000UL, 0x0000000000000064UL, 0x0000000110007c00UL, 0x0000002710077c00UL,
 176:Model/face_landmark_ecblobs.h ****   0x0000000910120043UL, 0x101e7c0000000005UL, 0x10207c0000000019UL, 0x2800200100000025UL,
 177:Model/face_landmark_ecblobs.h ****   0x0000005544007c00UL, 0x600020015c002001UL, 0x240020011c002001UL, 0x0000006428007fe4UL,
 178:Model/face_landmark_ecblobs.h ****   0x10077c0000000000UL, 0x1012004300000000UL, 0x0000000000000000UL, 0x00000000101e7c00UL,
 179:Model/face_landmark_ecblobs.h ****   0x0000000010207c00UL, 0x0000000228007c00UL, 0x0000006428000424UL, 0x28007c0000000000UL,
 180:Model/face_landmark_ecblobs.h ****   0x28007bc440000000UL, 0x0000000000000064UL, 0x44007c00008000a1UL, 0x4400042400000002UL,
 181:Model/face_landmark_ecblobs.h ****   0x0000000000000064UL, 0x4000000044007c00UL, 0x0000006444007bc4UL, 0x0080018100000000UL,
ARM GAS  /tmp/cc4rvpEd.s 			page 51


 182:Model/face_landmark_ecblobs.h ****   0x080000025c007c00UL, 0x000000645c000424UL, 0x5c007c0000000000UL, 0x5c007bc448000000UL,
 183:Model/face_landmark_ecblobs.h ****   0x0000000000000064UL, 0x60007c0000800241UL, 0x6000042408000002UL, 0x0000000000000064UL,
 184:Model/face_landmark_ecblobs.h ****   0x4800000060007c00UL, 0x0000006460007bc4UL, 0x0080026100000000UL, 0x000000021c007c00UL,
 185:Model/face_landmark_ecblobs.h ****   0x000000641c000424UL, 0x1c007c0000000000UL, 0x1c007bc440000000UL, 0x0000000000000064UL,
 186:Model/face_landmark_ecblobs.h ****   0x24007c0000800041UL, 0x2400042400000002UL, 0x0000000000000064UL, 0x4000000024007c00UL,
 187:Model/face_landmark_ecblobs.h ****   0x0000006424007bc4UL, 0x0080008100000000UL, 0x00802281000000ddUL, 0x0800000064000042UL,
 188:Model/face_landmark_ecblobs.h ****   0x64027c0005000160UL, 0x6407004300078c01UL, 0x00007a138b766d77UL, 0x00000000640c0043UL,
 189:Model/face_landmark_ecblobs.h ****   0x008022a110411041UL, 0x0800000068000042UL, 0x68027c0005006e60UL, 0x6807004300000000UL,
 190:Model/face_landmark_ecblobs.h ****   0x00000000fff5ff80UL, 0x00000000680c0043UL, 0x0080224110411041UL, 0x080000005c000042UL,
 191:Model/face_landmark_ecblobs.h ****   0x5c020123096000fcUL, 0x0000000000000000UL, 0x00008fff00000003UL, 0x0000000100023fffUL,
 192:Model/face_landmark_ecblobs.h ****   0x07c403fd00000000UL, 0x5c0c004300000001UL, 0x1041104100000000UL, 0x000000015c0b7c00UL,
 193:Model/face_landmark_ecblobs.h ****   0x0000ffcb5d000403UL, 0x0000002400000000UL, 0x0000ff8100000000UL, 0x0000ffbd00000000UL,
 194:Model/face_landmark_ecblobs.h ****   0x0000ffdd00000000UL, 0x0000ffc600000000UL, 0x0000fff000000000UL, 0x0000ffb300000000UL,
 195:Model/face_landmark_ecblobs.h ****   0x0000ffbc00000000UL, 0x0000005500000000UL, 0x0000ffec00000000UL, 0x0000000900000000UL,
 196:Model/face_landmark_ecblobs.h ****   0x0000001f00000000UL, 0x0000ffd300000000UL, 0x0000ffd000000000UL, 0x0000ffe000000000UL,
 197:Model/face_landmark_ecblobs.h ****   0x0080226100000000UL, 0x0800000060000042UL, 0x60020123156000fcUL, 0x00000000000a8000UL,
 198:Model/face_landmark_ecblobs.h ****   0x00008fff00000003UL, 0x0000497c00023fffUL, 0x07c403fd00000000UL, 0x600c004300000001UL,
 199:Model/face_landmark_ecblobs.h ****   0x1041204200000000UL, 0x00000001600b7c00UL, 0xf438497c61000403UL, 0xf551497c0000a63cUL,
 200:Model/face_landmark_ecblobs.h ****   0xf34e497c0000ac11UL, 0xf40c497c0000fd6eUL, 0xf471497c0000718bUL, 0xf428497c00007c44UL,
 201:Model/face_landmark_ecblobs.h ****   0xf4ad497c0000dc8fUL, 0xf3ec497c00007aa3UL, 0xf409497c0000de31UL, 0xf5ec497c00004935UL,
 202:Model/face_landmark_ecblobs.h ****   0xf4a0497c0000647dUL, 0xf4fc497c0000d94bUL, 0xf541497c00006b04UL, 0xf451497c0000e264UL,
 203:Model/face_landmark_ecblobs.h ****   0xf448497c0000e8eaUL, 0xf47a497c00006fe9UL, 0x008021210000f546UL, 0x0008010038007c00UL,
 204:Model/face_landmark_ecblobs.h ****   0x3429000038020043UL, 0x380500c300009000UL, 0x0000900000000000UL, 0x0000000000000000UL,
 205:Model/face_landmark_ecblobs.h ****   0x0010000000000024UL, 0x00000006380c0042UL, 0x380d004300000007UL, 0x342b403f00000004UL,
 206:Model/face_landmark_ecblobs.h ****   0x0000000038110043UL, 0x0080200100000000UL, 0x0008000014007c00UL, 0x3420000014020123UL,
 207:Model/face_landmark_ecblobs.h ****   0x0010000400600060UL, 0x0000000400000600UL, 0x0002400000000004UL, 0x0010000000000024UL,
 208:Model/face_landmark_ecblobs.h ****   0x00000006140c0042UL, 0x140d004300000007UL, 0x3422403f00000004UL, 0x0000000014110043UL,
 209:Model/face_landmark_ecblobs.h ****   0x0080206100000000UL, 0x0008010820007c00UL, 0x3422400020020043UL, 0x200500c300009000UL,
 210:Model/face_landmark_ecblobs.h ****   0x0000900000000000UL, 0x0000000000000000UL, 0x0010000000000024UL, 0x00000006200c0042UL,
 211:Model/face_landmark_ecblobs.h ****   0x200d004300000007UL, 0x3424803f00000004UL, 0x0000000020110043UL, 0x008020a100000000UL,
 212:Model/face_landmark_ecblobs.h ****   0x0008010828007c00UL, 0x3424800028020043UL, 0x280500c300009000UL, 0x0000900000000000UL,
 213:Model/face_landmark_ecblobs.h ****   0x0000000000000000UL, 0x0010000000000024UL, 0x00000006280c0042UL, 0x280d004300000007UL,
 214:Model/face_landmark_ecblobs.h ****   0x3426c03f00000004UL, 0x0000000028110043UL, 0x10007c0000000000UL, 0x1000042400000002UL,
 215:Model/face_landmark_ecblobs.h ****   0x0000000000000064UL, 0x4000000010007c00UL, 0x0000006410007bc4UL, 0x10007c0000000000UL,
 216:Model/face_landmark_ecblobs.h ****   0x10057c0000000001UL, 0x10077c0000000029UL, 0x101e7c0000000027UL, 0x10207c000000002bUL,
 217:Model/face_landmark_ecblobs.h ****   0x1022006300000025UL, 0x0000000100000013UL, 0x2000200100000029UL, 0x5c00200128002001UL,
 218:Model/face_landmark_ecblobs.h ****   0x6400200160002001UL, 0x1400200168002001UL, 0x20007fe438002001UL, 0x0000000000000064UL,
 219:Model/face_landmark_ecblobs.h ****   0x0000006428007fe4UL, 0x10057c0000000000UL, 0x10077c0000000000UL, 0x101e7c0000000000UL,
 220:Model/face_landmark_ecblobs.h ****   0x10207c0000000000UL, 0x1022006300000000UL, 0x0000000000000000UL, 0x20007c0000000000UL,
 221:Model/face_landmark_ecblobs.h ****   0x2000042400000002UL, 0x0000000000000064UL, 0x4000000020007c00UL, 0x0000006420007bc4UL,
 222:Model/face_landmark_ecblobs.h ****   0x0080006100000000UL, 0x0000000228007c00UL, 0x0000006428000424UL, 0x28007c0000000000UL,
 223:Model/face_landmark_ecblobs.h ****   0x28007bc440000000UL, 0x0000000000000064UL, 0x5c007c00008000a1UL, 0x5c00042408000002UL,
 224:Model/face_landmark_ecblobs.h ****   0x0000000000000064UL, 0x480000005c007c00UL, 0x000000645c007bc4UL, 0x0080024100000000UL,
 225:Model/face_landmark_ecblobs.h ****   0x0800000260007c00UL, 0x0000006460000424UL, 0x60007c0000000000UL, 0x60007bc448000000UL,
 226:Model/face_landmark_ecblobs.h ****   0x0000000000000064UL, 0x64007c0000800261UL, 0x6400042408000002UL, 0x0000000000000064UL,
 227:Model/face_landmark_ecblobs.h ****   0x4800000064007c00UL, 0x0000006464007bc4UL, 0x0080028100000000UL, 0x0800000268007c00UL,
 228:Model/face_landmark_ecblobs.h ****   0x0000006468000424UL, 0x68007c0000000000UL, 0x68007bc448000000UL, 0x0000000000000064UL,
 229:Model/face_landmark_ecblobs.h ****   0x14007c00008002a1UL, 0x1400042400000002UL, 0x0000000000000064UL, 0x4000000014007c00UL,
 230:Model/face_landmark_ecblobs.h ****   0x0000006414007bc4UL, 0x0080000100000000UL, 0x0000000238007c00UL, 0x0000006438000424UL,
 231:Model/face_landmark_ecblobs.h ****   0x38007c0000000000UL, 0x38007bc440000000UL, 0x0000000000000064UL, 0x000000fd00800121UL,
 232:Model/face_landmark_ecblobs.h ****   0x58007c0000802221UL, 0x580200430174104cUL, 0x029011cf00087f80UL, 0x0000000059000403UL,
 233:Model/face_landmark_ecblobs.h ****   0x0000000000000000UL, 0x0000000000000000UL, 0x0000000000000000UL, 0x0000000000000000UL,
 234:Model/face_landmark_ecblobs.h ****   0x0000000000000000UL, 0x0000000000000000UL, 0x000000c100000000UL, 0x0000000900000009UL,
 235:Model/face_landmark_ecblobs.h ****   0x0000000900000009UL, 0x0000000900000009UL, 0x0000000900000009UL, 0x0000000900000009UL,
 236:Model/face_landmark_ecblobs.h ****   0x0000000900000009UL, 0x0000000900000009UL, 0x0000000900000009UL, 0x5a000483000000caUL,
 237:Model/face_landmark_ecblobs.h ****   0x0000a70000000000UL, 0x0000a70000000000UL, 0x0000a70000000000UL, 0x0000a70000000000UL,
 238:Model/face_landmark_ecblobs.h ****   0x0000a70000000000UL, 0x0000a70000000000UL, 0x0000a70000000000UL, 0x0000a90000000000UL,
ARM GAS  /tmp/cc4rvpEd.s 			page 52


 239:Model/face_landmark_ecblobs.h ****   0x0000aa0000000000UL, 0x0000b83164040000UL, 0x0000740000000000UL, 0x0000750000000000UL,
 240:Model/face_landmark_ecblobs.h ****   0x0000770000000000UL, 0x0000780000000000UL, 0x00007a0000000000UL, 0x00007c0000000000UL,
 241:Model/face_landmark_ecblobs.h ****   0x00007d0000000000UL, 0x00007f0000000000UL, 0x5c00004200802241UL, 0x0500016008000000UL,
 242:Model/face_landmark_ecblobs.h ****   0x000718005c027c00UL, 0x590040005c070043UL, 0x5c0c004300004000UL, 0x1041104100000000UL,
 243:Model/face_landmark_ecblobs.h ****   0x48007c00008021a1UL, 0x480200c300000054UL, 0x0000115504040303UL, 0x0060018010a34202UL,
 244:Model/face_landmark_ecblobs.h ****   0x005f0000017f0000UL, 0x00000000480a7c00UL, 0x00ffffa7480c0043UL, 0x0080226100000000UL,
 245:Model/face_landmark_ecblobs.h ****   0x0800000060000042UL, 0x60027c0009000060UL, 0x6007004300078000UL, 0x0000000000004babUL,
 246:Model/face_landmark_ecblobs.h ****   0x00000000600c0043UL, 0x0080228120422042UL, 0x0800000064000042UL, 0x64027c0015000060UL,
 247:Model/face_landmark_ecblobs.h ****   0x64070043000a0000UL, 0x0000ff90000060c5UL, 0x00000000640c0043UL, 0x008020e120422042UL,
 248:Model/face_landmark_ecblobs.h ****   0x0008010030007c00UL, 0x3422400030020043UL, 0x300500c300009000UL, 0x0000900000000000UL,
 249:Model/face_landmark_ecblobs.h ****   0x0000000000000000UL, 0x0010000000000024UL, 0x00000006300c0042UL, 0x300d004300000007UL,
 250:Model/face_landmark_ecblobs.h ****   0x3424803f00000004UL, 0x0000000030110043UL, 0x0080200100000000UL, 0x0008010014007c00UL,
 251:Model/face_landmark_ecblobs.h ****   0x3424800014020043UL, 0x140500c300009000UL, 0x0000900000000000UL, 0x0000000000000000UL,
 252:Model/face_landmark_ecblobs.h ****   0x0010000000000024UL, 0x00000006140c0042UL, 0x140d004300000007UL, 0x3426c03f00000004UL,
 253:Model/face_landmark_ecblobs.h ****   0x0000000014110043UL, 0x0080210100000000UL, 0x0008c18434007c00UL, 0x7041c44034020043UL,
 254:Model/face_landmark_ecblobs.h ****   0x340500c300000240UL, 0x0000000000000000UL, 0x0000000000000000UL, 0x0010000000000024UL,
 255:Model/face_landmark_ecblobs.h ****   0x00000006340c0042UL, 0x340d004300000007UL, 0x7041c6bf00000001UL, 0x0000000034110043UL,
 256:Model/face_landmark_ecblobs.h ****   0x008020c100000008UL, 0x000801082c007c00UL, 0x3426c0002c020043UL, 0x2c0500c300009000UL,
 257:Model/face_landmark_ecblobs.h ****   0x0000900000000000UL, 0x0000000000000000UL, 0x0010000000000024UL, 0x000000062c0c0042UL,
 258:Model/face_landmark_ecblobs.h ****   0x2c0d004300000007UL, 0x3429003f00000004UL, 0x000000002c110043UL, 0x0080202100000000UL,
 259:Model/face_landmark_ecblobs.h ****   0x0008000818007c00UL, 0x3420000018020123UL, 0x0010000400600060UL, 0x0000000400000600UL,
 260:Model/face_landmark_ecblobs.h ****   0x0002400000000004UL, 0x0010000000000024UL, 0x00000006180c0042UL, 0x180d004300000007UL,
 261:Model/face_landmark_ecblobs.h ****   0x3422403f00000004UL, 0x0000000018110043UL, 0x10007c0000000000UL, 0x1000042400000002UL,
 262:Model/face_landmark_ecblobs.h ****   0x0000000000000064UL, 0x4000000010007c00UL, 0x0000006410007bc4UL, 0x10007c0000000000UL,
 263:Model/face_landmark_ecblobs.h ****   0x10037c0000000001UL, 0x10087c0000000029UL, 0x1015004300000025UL, 0x00000011ff240425UL,
 264:Model/face_landmark_ecblobs.h ****   0x0000000f101d0083UL, 0x0000000100000023UL, 0x10227c000000001bUL, 0x1800200100000027UL,
 265:Model/face_landmark_ecblobs.h ****   0x48007c002c002001UL, 0x5800200100000055UL, 0x600020015c002001UL, 0x1400200164002001UL,
 266:Model/face_landmark_ecblobs.h ****   0x3400200130002001UL, 0x0000006418007fe4UL, 0x2c007fe400000000UL, 0x0000000000000064UL,
 267:Model/face_landmark_ecblobs.h ****   0x0000000010037c00UL, 0x0000000010087c00UL, 0x0000000010150043UL, 0x101d008300000000UL,
 268:Model/face_landmark_ecblobs.h ****   0x0000000000000000UL, 0x0000000000000000UL, 0x0000000010227c00UL, 0x0000000218007c00UL,
 269:Model/face_landmark_ecblobs.h ****   0x0000006418000424UL, 0x18007c0000000000UL, 0x18007bc440000000UL, 0x0000000000000064UL,
 270:Model/face_landmark_ecblobs.h ****   0x2c007c0000800021UL, 0x2c00042400000002UL, 0x0000000000000064UL, 0x400000002c007c00UL,
 271:Model/face_landmark_ecblobs.h ****   0x000000642c007bc4UL, 0x008000c100000000UL, 0x0000000248007c00UL, 0x0000006448000424UL,
 272:Model/face_landmark_ecblobs.h ****   0x48007c0000000000UL, 0x48007bc440000000UL, 0x0000000000000064UL, 0x58007c00008001a1UL,
 273:Model/face_landmark_ecblobs.h ****   0x5800042400881082UL, 0x0000000000000064UL, 0x4088108058007c00UL, 0x0000006458007bc4UL,
 274:Model/face_landmark_ecblobs.h ****   0x0080022100000000UL, 0x080000025c007c00UL, 0x000000645c000424UL, 0x5c007c0000000000UL,
 275:Model/face_landmark_ecblobs.h ****   0x5c007bc448000000UL, 0x0000000000000064UL, 0x60007c0000800241UL, 0x6000042408000002UL,
 276:Model/face_landmark_ecblobs.h ****   0x0000000000000064UL, 0x4800000060007c00UL, 0x0000006460007bc4UL, 0x0080026100000000UL,
 277:Model/face_landmark_ecblobs.h ****   0x0800000264007c00UL, 0x0000006464000424UL, 0x64007c0000000000UL, 0x64007bc448000000UL,
 278:Model/face_landmark_ecblobs.h ****   0x0000000000000064UL, 0x14007c0000800281UL, 0x1400042400000002UL, 0x0000000000000064UL,
 279:Model/face_landmark_ecblobs.h ****   0x4000000014007c00UL, 0x0000006414007bc4UL, 0x0080000100000000UL, 0x0000000230007c00UL,
 280:Model/face_landmark_ecblobs.h ****   0x0000006430000424UL, 0x30007c0000000000UL, 0x30007bc440000000UL, 0x0000000000000064UL,
 281:Model/face_landmark_ecblobs.h ****   0x34007c00008000e1UL, 0x3400042400000002UL, 0x0000000000000064UL, 0x4000000034007c00UL,
 282:Model/face_landmark_ecblobs.h ****   0x0000006434007bc4UL, 0x0080010100000000UL, 0x008021410000011dUL, 0x000000543c007c00UL,
 283:Model/face_landmark_ecblobs.h ****   0x101001013c0200c3UL, 0x10a3410100001100UL, 0x05ff000000600600UL, 0x3c0a7c00005f0000UL,
 284:Model/face_landmark_ecblobs.h ****   0x3c0c004300000000UL, 0x0000000000fffff9UL, 0x68000042008022a1UL, 0x0900006008000000UL,
 285:Model/face_landmark_ecblobs.h ****   0x0007800068027c00UL, 0x00004c9d68070043UL, 0x680c004300000000UL, 0x2042204200000000UL,
 286:Model/face_landmark_ecblobs.h ****   0x5c00004200802241UL, 0x156000fc08000000UL, 0x000a00005c020123UL, 0x0000000f00000000UL,
 287:Model/face_landmark_ecblobs.h ****   0x00023fff00023fffUL, 0x0000000000006c61UL, 0x0000000107c403f1UL, 0x000000005c0c0043UL,
 288:Model/face_landmark_ecblobs.h ****   0x5c0b7c0020422042UL, 0x5d00040300000001UL, 0x0000fce003d66c61UL, 0x0000538f03b86c61UL,
 289:Model/face_landmark_ecblobs.h ****   0x000071cb03ca6c61UL, 0x00003033035a6c61UL, 0x0000aa3d03996c61UL, 0x0000f47403a56c61UL,
 290:Model/face_landmark_ecblobs.h ****   0x0000fce003d66c61UL, 0x00002fa403b76c61UL, 0x0000fa7f03cc6c61UL, 0x0000603403a96c61UL,
 291:Model/face_landmark_ecblobs.h ****   0x0000742c03d46c61UL, 0x0000d78003a66c61UL, 0x0000b9a003cc6c61UL, 0x0000a14103c56c61UL,
 292:Model/face_landmark_ecblobs.h ****   0x00003a1603ba6c61UL, 0x00004b5003a36c61UL, 0x20007c0000802061UL, 0x200200430008c104UL,
 293:Model/face_landmark_ecblobs.h ****   0x0002400034200000UL, 0x00000000200500c3UL, 0x0000000100024000UL, 0x0000002400000000UL,
 294:Model/face_landmark_ecblobs.h ****   0x200c004200100000UL, 0x0000000700000006UL, 0x00000001200d0043UL, 0x201100433422403fUL,
 295:Model/face_landmark_ecblobs.h ****   0x0000000000000000UL, 0x28007c00008020a1UL, 0x280200430008c184UL, 0x000001007041ce90UL,
ARM GAS  /tmp/cc4rvpEd.s 			page 53


 296:Model/face_landmark_ecblobs.h ****   0x00000000280500c3UL, 0x0000000000000000UL, 0x0000002400000000UL, 0x280c004200100000UL,
 297:Model/face_landmark_ecblobs.h ****   0x0000000700000006UL, 0x00000001280d0043UL, 0x281100437041cfcfUL, 0x0000000800000000UL,
 298:Model/face_landmark_ecblobs.h ****   0x38007c0000802121UL, 0x380200430008010cUL, 0x0002400034290000UL, 0x00000000380500c3UL,
 299:Model/face_landmark_ecblobs.h ****   0x0000000000024000UL, 0x0000002400000000UL, 0x380c004200100000UL, 0x0000000700000006UL,
 300:Model/face_landmark_ecblobs.h ****   0x00000001380d0043UL, 0x38110043342b403fUL, 0x0000000000000000UL, 0x0000000210007c00UL,
 301:Model/face_landmark_ecblobs.h ****   0x0000006410000424UL, 0x10007c0000000000UL, 0x10007bc440000000UL, 0x0000000000000064UL,
 302:Model/face_landmark_ecblobs.h ****   0x0000000110007c00UL, 0x00000025100b0063UL, 0x0000000b00000007UL, 0x0000002b101e7c00UL,
 303:Model/face_landmark_ecblobs.h ****   0x0000001510247c00UL, 0x3c007c0038002001UL, 0x5c00200100000055UL, 0x2000200168002001UL,
 304:Model/face_landmark_ecblobs.h ****   0x38007fe428002001UL, 0x0000000000000064UL, 0x00000000100b0063UL, 0x0000000000000000UL,
 305:Model/face_landmark_ecblobs.h ****   0x00000000101e7c00UL, 0x0000000010247c00UL, 0x0000000238007c00UL, 0x0000006438000424UL,
 306:Model/face_landmark_ecblobs.h ****   0x38007c0000000000UL, 0x38007bc440000000UL, 0x0000000000000064UL, 0x3c007c0000800121UL,
 307:Model/face_landmark_ecblobs.h ****   0x3c00042400000002UL, 0x0000000000000064UL, 0x400000003c007c00UL, 0x000000643c007bc4UL,
 308:Model/face_landmark_ecblobs.h ****   0x0080014100000000UL, 0x080000025c007c00UL, 0x000000645c000424UL, 0x5c007c0000000000UL,
 309:Model/face_landmark_ecblobs.h ****   0x5c007bc448000000UL, 0x0000000000000064UL, 0x68007c0000800241UL, 0x6800042408000002UL,
 310:Model/face_landmark_ecblobs.h ****   0x0000000000000064UL, 0x4800000068007c00UL, 0x0000006468007bc4UL, 0x008002a100000000UL,
 311:Model/face_landmark_ecblobs.h ****   0x0000000220007c00UL, 0x0000006420000424UL, 0x20007c0000000000UL, 0x20007bc440000000UL,
 312:Model/face_landmark_ecblobs.h ****   0x0000000000000064UL, 0x28007c0000800061UL, 0x2800042400000002UL, 0x0000000000000064UL,
 313:Model/face_landmark_ecblobs.h ****   0x4000000028007c00UL, 0x0000006428007bc4UL, 0x008000a100000000UL, 0x008022610000013dUL,
 314:Model/face_landmark_ecblobs.h ****   0x0800000060000042UL, 0x60027c0005000160UL, 0x6007004300071002UL, 0x000040117d176882UL,
 315:Model/face_landmark_ecblobs.h ****   0x00000000600c0043UL, 0x0080228110411041UL, 0x0800000064000042UL, 0x64027c0005006e60UL,
 316:Model/face_landmark_ecblobs.h ****   0x6407004300000000UL, 0x000000000035ff80UL, 0x00000000640c0043UL, 0x0080224110411041UL,
 317:Model/face_landmark_ecblobs.h ****   0x080000005c000042UL, 0x5c020123096000fcUL, 0x0000000000000000UL, 0x00008fff00000003UL,
 318:Model/face_landmark_ecblobs.h ****   0x0000000100023fffUL, 0x07c403fd00000000UL, 0x5c0c004300000001UL, 0x1041104100000000UL,
 319:Model/face_landmark_ecblobs.h ****   0x000000015c0b7c00UL, 0x000000105d000403UL, 0x0000002900000000UL, 0x0000001300000000UL,
 320:Model/face_landmark_ecblobs.h ****   0x0000ffcf00000000UL, 0x0000ffce00000000UL, 0x0000ff8100000000UL, 0x0000fff000000000UL,
 321:Model/face_landmark_ecblobs.h ****   0x0000000200000000UL, 0x0000002600000000UL, 0x0000001100000000UL, 0x0000fffb00000000UL,
 322:Model/face_landmark_ecblobs.h ****   0x0000007e00000000UL, 0x0000004500000000UL, 0x0000ffce00000000UL, 0x0000001a00000000UL,
 323:Model/face_landmark_ecblobs.h ****   0x0000002b00000000UL, 0x008022a100000000UL, 0x0800000068000042UL, 0x68020123156000fcUL,
 324:Model/face_landmark_ecblobs.h ****   0x00000000000a0000UL, 0x00008fff00000003UL, 0x000040b100023fffUL, 0x07c403fd00000000UL,
 325:Model/face_landmark_ecblobs.h ****   0x680c004300000001UL, 0x1041204200000000UL, 0x00000001680b7c00UL, 0xfc2940b169000403UL,
 326:Model/face_landmark_ecblobs.h ****   0xfada40b10000b6dfUL, 0xfc0140b10000e49cUL, 0xff9040b100008929UL, 0xff9d40b100003ff3UL,
 327:Model/face_landmark_ecblobs.h ****   0x03a440b10000a485UL, 0xfdd640b10000e472UL, 0xfce540b100004920UL, 0xfb0340b1000036dbUL,
 328:Model/face_landmark_ecblobs.h ****   0xfc1c40b100001252UL, 0xfd4240b10000524dUL, 0xf66840b10000f6daUL, 0xf96340b10000801fUL,
 329:Model/face_landmark_ecblobs.h ****   0xff9d40b10000e4a3UL, 0xfba340b10000a485UL, 0xfac040b10000c92bUL, 0x008020e100001b78UL,
 330:Model/face_landmark_ecblobs.h ****   0x0008010030007c00UL, 0x3426c00030020043UL, 0x300500c300009000UL, 0x0000900000000000UL,
 331:Model/face_landmark_ecblobs.h ****   0x0000000000000000UL, 0x0010000000000024UL, 0x00000006300c0042UL, 0x300d004300000007UL,
 332:Model/face_landmark_ecblobs.h ****   0x3429003f00000004UL, 0x0000000030110043UL, 0x0080200100000000UL, 0x0008000014007c00UL,
 333:Model/face_landmark_ecblobs.h ****   0x3429000014020123UL, 0x0010000400600060UL, 0x0000000400000600UL, 0x0002400000000004UL,
 334:Model/face_landmark_ecblobs.h ****   0x0010000000000024UL, 0x00000006140c0042UL, 0x140d004300000007UL, 0x342b403f00000004UL,
 335:Model/face_landmark_ecblobs.h ****   0x0000000014110043UL, 0x0080206100000000UL, 0x0008010820007c00UL, 0x3420000020020043UL,
 336:Model/face_landmark_ecblobs.h ****   0x200500c300009000UL, 0x0000900000000000UL, 0x0000000000000000UL, 0x0010000000000024UL,
 337:Model/face_landmark_ecblobs.h ****   0x00000006200c0042UL, 0x200d004300000007UL, 0x3422403f00000004UL, 0x0000000020110043UL,
 338:Model/face_landmark_ecblobs.h ****   0x0080212100000000UL, 0x0008010838007c00UL, 0x3422400038020043UL, 0x380500c300009000UL,
 339:Model/face_landmark_ecblobs.h ****   0x0000900000000000UL, 0x0000000000000000UL, 0x0010000000000024UL, 0x00000006380c0042UL,
 340:Model/face_landmark_ecblobs.h ****   0x380d004300000007UL, 0x3424803f00000004UL, 0x0000000038110043UL, 0x10007c0000000000UL,
 341:Model/face_landmark_ecblobs.h ****   0x1000042400000002UL, 0x0000000000000064UL, 0x4000000010007c00UL, 0x0000006410007bc4UL,
 342:Model/face_landmark_ecblobs.h ****   0x10007c0000000000UL, 0x10057c0000000001UL, 0x100b7c0000000027UL, 0x101e7c000000002bUL,
 343:Model/face_landmark_ecblobs.h ****   0x1020006300000029UL, 0x000000010000000fUL, 0x10247c0000000027UL, 0x2000200100000025UL,
 344:Model/face_landmark_ecblobs.h ****   0x5c00200138002001UL, 0x6400200160002001UL, 0x1400200168002001UL, 0x20007fe430002001UL,
 345:Model/face_landmark_ecblobs.h ****   0x0000000000000064UL, 0x0000006438007fe4UL, 0x10057c0000000000UL, 0x100b7c0000000000UL,
 346:Model/face_landmark_ecblobs.h ****   0x101e7c0000000000UL, 0x1020006300000000UL, 0x0000000000000000UL, 0x10247c0000000000UL,
 347:Model/face_landmark_ecblobs.h ****   0x20007c0000000000UL, 0x2000042400000002UL, 0x0000000000000064UL, 0x4000000020007c00UL,
 348:Model/face_landmark_ecblobs.h ****   0x0000006420007bc4UL, 0x0080006100000000UL, 0x0000000238007c00UL, 0x0000006438000424UL,
 349:Model/face_landmark_ecblobs.h ****   0x38007c0000000000UL, 0x38007bc440000000UL, 0x0000000000000064UL, 0x5c007c0000800121UL,
 350:Model/face_landmark_ecblobs.h ****   0x5c00042408000002UL, 0x0000000000000064UL, 0x480000005c007c00UL, 0x000000645c007bc4UL,
 351:Model/face_landmark_ecblobs.h ****   0x0080024100000000UL, 0x0800000260007c00UL, 0x0000006460000424UL, 0x60007c0000000000UL,
 352:Model/face_landmark_ecblobs.h ****   0x60007bc448000000UL, 0x0000000000000064UL, 0x64007c0000800261UL, 0x6400042408000002UL,
ARM GAS  /tmp/cc4rvpEd.s 			page 54


 353:Model/face_landmark_ecblobs.h ****   0x0000000000000064UL, 0x4800000064007c00UL, 0x0000006464007bc4UL, 0x0080028100000000UL,
 354:Model/face_landmark_ecblobs.h ****   0x0800000268007c00UL, 0x0000006468000424UL, 0x68007c0000000000UL, 0x68007bc448000000UL,
 355:Model/face_landmark_ecblobs.h ****   0x0000000000000064UL, 0x14007c00008002a1UL, 0x1400042400000002UL, 0x0000000000000064UL,
 356:Model/face_landmark_ecblobs.h ****   0x4000000014007c00UL, 0x0000006414007bc4UL, 0x0080000100000000UL, 0x0000000230007c00UL,
 357:Model/face_landmark_ecblobs.h ****   0x0000006430000424UL, 0x30007c0000000000UL, 0x30007bc440000000UL, 0x0000000000000064UL,
 358:Model/face_landmark_ecblobs.h ****   0x0000015d008000e1UL, 0x54007c0000802201UL, 0x540200430174104cUL, 0x0290220f00087f80UL,
 359:Model/face_landmark_ecblobs.h ****   0x0000000055000403UL, 0x0000000000000000UL, 0x0000000000000000UL, 0x0000000000000000UL,
 360:Model/face_landmark_ecblobs.h ****   0x0000000000000000UL, 0x0000000000000000UL, 0x0000000000000000UL, 0x0000000000000000UL,
 361:Model/face_landmark_ecblobs.h ****   0x0000000000000000UL, 0x0000000000000000UL, 0x0000000000000000UL, 0x000000c100000000UL,
 362:Model/face_landmark_ecblobs.h ****   0x0000000900000009UL, 0x0000000900000009UL, 0x0000000900000009UL, 0x0000000900000009UL,
 363:Model/face_landmark_ecblobs.h ****   0x56000483000000caUL, 0x0000e80000000000UL, 0x0000e80000000000UL, 0x0000e80000000000UL,
 364:Model/face_landmark_ecblobs.h ****   0x0000e80000000000UL, 0x0000e80000000000UL, 0x0000e80000000000UL, 0x0000e80000000000UL,
 365:Model/face_landmark_ecblobs.h ****   0x0000e90000000000UL, 0x0000ea8000000000UL, 0x0000a9264be50000UL, 0x0000378000000000UL,
 366:Model/face_landmark_ecblobs.h ****   0x0000388000000000UL, 0x00003a0000000000UL, 0x00003b0000000000UL, 0x00003c0000000000UL,
 367:Model/face_landmark_ecblobs.h ****   0x00003d8000000000UL, 0x00003e8000000000UL, 0x00003f8000000000UL, 0x5c00004200802241UL,
 368:Model/face_landmark_ecblobs.h ****   0x0500016008000000UL, 0x000714005c027c00UL, 0x600040005c070043UL, 0x5c0c004300004000UL,
 369:Model/face_landmark_ecblobs.h ****   0x1041104100000000UL, 0x40007c0000802161UL, 0x400200c300000054UL, 0x0000224404040303UL,
 370:Model/face_landmark_ecblobs.h ****   0x0060018010a34202UL, 0x005f0000017f0000UL, 0x00000000400a7c00UL, 0x00ffffd0400c0043UL,
 371:Model/face_landmark_ecblobs.h ****   0x0080226100000000UL, 0x0800000060000042UL, 0x60027c0009000060UL, 0x6007004300078000UL,
 372:Model/face_landmark_ecblobs.h ****   0x0000000000004b95UL, 0x00000000600c0043UL, 0x0080228120422042UL, 0x0800000064000042UL,
 373:Model/face_landmark_ecblobs.h ****   0x64027c0015000060UL, 0x64070043000a0000UL, 0x0000ffc000006c07UL, 0x00000000640c0043UL,
 374:Model/face_landmark_ecblobs.h ****   0x0080200120422042UL, 0x0008010014007c00UL, 0x3420000014020043UL, 0x140500c300009000UL,
 375:Model/face_landmark_ecblobs.h ****   0x0000900000000000UL, 0x0000000000000000UL, 0x0010000000000024UL, 0x00000006140c0042UL,
 376:Model/face_landmark_ecblobs.h ****   0x140d004300000007UL, 0x3422403f00000004UL, 0x0000000014110043UL, 0x008020c100000000UL,
 377:Model/face_landmark_ecblobs.h ****   0x000801002c007c00UL, 0x342240002c020043UL, 0x2c0500c300009000UL, 0x0000900000000000UL,
 378:Model/face_landmark_ecblobs.h ****   0x0000000000000000UL, 0x0010000000000024UL, 0x000000062c0c0042UL, 0x2c0d004300000007UL,
 379:Model/face_landmark_ecblobs.h ****   0x3424803f00000004UL, 0x000000002c110043UL, 0x0080208100000000UL, 0x0008c18424007c00UL,
 380:Model/face_landmark_ecblobs.h ****   0x7041c68024020043UL, 0x240500c300000240UL, 0x0000000000000000UL, 0x0000000000000000UL,
 381:Model/face_landmark_ecblobs.h ****   0x0010000000000024UL, 0x00000006240c0042UL, 0x240d004300000007UL, 0x7041c8ff00000001UL,
 382:Model/face_landmark_ecblobs.h ****   0x0000000024110043UL, 0x0080212100000008UL, 0x0008010838007c00UL, 0x3424800038020043UL,
 383:Model/face_landmark_ecblobs.h ****   0x380500c300009000UL, 0x0000900000000000UL, 0x0000000000000000UL, 0x0010000000000024UL,
 384:Model/face_landmark_ecblobs.h ****   0x00000006380c0042UL, 0x380d004300000007UL, 0x3426c03f00000004UL, 0x0000000038110043UL,
 385:Model/face_landmark_ecblobs.h ****   0x0080206100000000UL, 0x0008000820007c00UL, 0x3426c00020020123UL, 0x0010000400300030UL,
 386:Model/face_landmark_ecblobs.h ****   0x0000000400000300UL, 0x0000900000000004UL, 0x0010000000000024UL, 0x00000006200c0042UL,
 387:Model/face_landmark_ecblobs.h ****   0x200d004300000007UL, 0x3427503f00000004UL, 0x0000000020110043UL, 0x10007c0000000000UL,
 388:Model/face_landmark_ecblobs.h ****   0x1000042400000002UL, 0x0000000000000064UL, 0x4000000010007c00UL, 0x0000006410007bc4UL,
 389:Model/face_landmark_ecblobs.h ****   0x10007c0000000000UL, 0x10057c0000000001UL, 0x100b7c0000000029UL, 0x100f004300000025UL,
 390:Model/face_landmark_ecblobs.h ****   0x00000009ff240425UL, 0x00000001101c7c00UL, 0x00000021101e0063UL, 0x000000170000000dUL,
 391:Model/face_landmark_ecblobs.h ****   0x0000002710227c00UL, 0x3800200120002001UL, 0x0000005540007c00UL, 0x5c00200154002001UL,
 392:Model/face_landmark_ecblobs.h ****   0x6400200160002001UL, 0x2400200114002001UL, 0x20007fe42c002001UL, 0x0000000000000064UL,
 393:Model/face_landmark_ecblobs.h ****   0x0000006438007fe4UL, 0x10057c0000000000UL, 0x100b7c0000000000UL, 0x100f004300000000UL,
 394:Model/face_landmark_ecblobs.h ****   0x0000000000000000UL, 0x00000000101c7c00UL, 0x00000000101e0063UL, 0x0000000000000000UL,
 395:Model/face_landmark_ecblobs.h ****   0x0000000010227c00UL, 0x0000000220007c00UL, 0x0000006420000424UL, 0x20007c0000000000UL,
 396:Model/face_landmark_ecblobs.h ****   0x20007bc440000000UL, 0x0000000000000064UL, 0x38007c0000800061UL, 0x3800042400000002UL,
 397:Model/face_landmark_ecblobs.h ****   0x0000000000000064UL, 0x4000000038007c00UL, 0x0000006438007bc4UL, 0x0080012100000000UL,
 398:Model/face_landmark_ecblobs.h ****   0x0000000240007c00UL, 0x0000006440000424UL, 0x40007c0000000000UL, 0x40007bc440000000UL,
 399:Model/face_landmark_ecblobs.h ****   0x0000000000000064UL, 0x54007c0000800161UL, 0x5400042400881082UL, 0x0000000000000064UL,
 400:Model/face_landmark_ecblobs.h ****   0x4088108054007c00UL, 0x0000006454007bc4UL, 0x0080020100000000UL, 0x080000025c007c00UL,
 401:Model/face_landmark_ecblobs.h ****   0x000000645c000424UL, 0x5c007c0000000000UL, 0x5c007bc448000000UL, 0x0000000000000064UL,
 402:Model/face_landmark_ecblobs.h ****   0x60007c0000800241UL, 0x6000042408000002UL, 0x0000000000000064UL, 0x4800000060007c00UL,
 403:Model/face_landmark_ecblobs.h ****   0x0000006460007bc4UL, 0x0080026100000000UL, 0x0800000264007c00UL, 0x0000006464000424UL,
 404:Model/face_landmark_ecblobs.h ****   0x64007c0000000000UL, 0x64007bc448000000UL, 0x0000000000000064UL, 0x14007c0000800281UL,
 405:Model/face_landmark_ecblobs.h ****   0x1400042400000002UL, 0x0000000000000064UL, 0x4000000014007c00UL, 0x0000006414007bc4UL,
 406:Model/face_landmark_ecblobs.h ****   0x0080000100000000UL, 0x0000000224007c00UL, 0x0000006424000424UL, 0x24007c0000000000UL,
 407:Model/face_landmark_ecblobs.h ****   0x24007bc440000000UL, 0x0000000000000064UL, 0x2c007c0000800081UL, 0x2c00042400000002UL,
 408:Model/face_landmark_ecblobs.h ****   0x0000000000000064UL, 0x400000002c007c00UL, 0x000000642c007bc4UL, 0x008000c100000000UL,
 409:Model/face_landmark_ecblobs.h ****   0x008021810000017dUL, 0x0000005444007c00UL, 0x10100101440200c3UL, 0x10a3410100001100UL,
ARM GAS  /tmp/cc4rvpEd.s 			page 55


 410:Model/face_landmark_ecblobs.h ****   0x02ff000000300300UL, 0x440a7c00002f0000UL, 0x440c004300000000UL, 0x0000000000fffffcUL,
 411:Model/face_landmark_ecblobs.h ****   0x68000042008022a1UL, 0x0900006008000000UL, 0x0007800068027c00UL, 0x00005a9d68070043UL,
 412:Model/face_landmark_ecblobs.h ****   0x680c004300000000UL, 0x2042204200000000UL, 0x5c00004200802241UL, 0x156000fc08000000UL,
 413:Model/face_landmark_ecblobs.h ****   0x000a00005c020123UL, 0x0000000f00000000UL, 0x00011fff00008fffUL, 0x0000000000007978UL,
 414:Model/face_landmark_ecblobs.h ****   0x00000001078403f1UL, 0x000000005c0c0043UL, 0x5c0b7c0020422042UL, 0x5d00080300000001UL,
 415:Model/face_landmark_ecblobs.h ****   0x0000e5ab01397978UL, 0x0000f62800ea7978UL, 0x0000c7d701147978UL, 0x0000ef07008f7978UL,
 416:Model/face_landmark_ecblobs.h ****   0x00007bb101197978UL, 0x000090ba00f87978UL, 0x0000449400fd7978UL, 0x0000adf200f17978UL,
 417:Model/face_landmark_ecblobs.h ****   0x0000f1ea00d27978UL, 0x0000b818010c7978UL, 0x0000f713012c7978UL, 0x00002602012f7978UL,
 418:Model/face_landmark_ecblobs.h ****   0x0000a79a015b7978UL, 0x0000c62d01297978UL, 0x00008a8400df7978UL, 0x0000c62d01297978UL,
 419:Model/face_landmark_ecblobs.h ****   0x000009d700f57978UL, 0x0000e03300c97978UL, 0x0000e6b800f87978UL, 0x0000beeb01517978UL,
 420:Model/face_landmark_ecblobs.h ****   0x0000150900cf7978UL, 0x0000b38b00de7978UL, 0x0000096701627978UL, 0x0000b66e01217978UL,
 421:Model/face_landmark_ecblobs.h ****   0x000017ec01127978UL, 0x000035c101377978UL, 0x0000cfb601187978UL, 0x0000429d00fc7978UL,
 422:Model/face_landmark_ecblobs.h ****   0x0000004e01067978UL, 0x000004da01347978UL, 0x0000b58300df7978UL, 0x0000f43000e97978UL,
 423:Model/face_landmark_ecblobs.h ****   0x6c007c00008022c1UL, 0x6c0200e30041c0c0UL, 0x0060018010000892UL, 0x0000000000300030UL,
 424:Model/face_landmark_ecblobs.h ****   0x005f0000017f0000UL, 0x008020e100050001UL, 0x0008c10030007c00UL, 0x3426c00030020043UL,
 425:Model/face_landmark_ecblobs.h ****   0x300500c300009000UL, 0x0000900000000000UL, 0x0000000000000001UL, 0x0010000000000024UL,
 426:Model/face_landmark_ecblobs.h ****   0x00000006300c0042UL, 0x300d004300000007UL, 0x3427503f00000002UL, 0x0000000030110043UL,
 427:Model/face_landmark_ecblobs.h ****   0x0080202100000000UL, 0x0008c18418007c00UL, 0x7041c8c018020043UL, 0x180500c300000200UL,
 428:Model/face_landmark_ecblobs.h ****   0x0000000000000000UL, 0x0000000000000000UL, 0x0010000000000024UL, 0x00000006180c0042UL,
 429:Model/face_landmark_ecblobs.h ****   0x180d004300000007UL, 0x7041caff00000001UL, 0x0000000018110043UL, 0x0080204100000008UL,
 430:Model/face_landmark_ecblobs.h ****   0x000801001c007c00UL, 0x342480001c020043UL, 0x1c0500c300009000UL, 0x0000900000000000UL,
 431:Model/face_landmark_ecblobs.h ****   0x0000000000000000UL, 0x0010000000000024UL, 0x000000061c0c0042UL, 0x1c0d004300000007UL,
 432:Model/face_landmark_ecblobs.h ****   0x3426c03f00000004UL, 0x000000001c110043UL, 0x008020a100000000UL, 0x0008000828007c00UL,
 433:Model/face_landmark_ecblobs.h ****   0x3420000028020123UL, 0x0020001000300030UL, 0x0000001000000600UL, 0x0001200000000002UL,
 434:Model/face_landmark_ecblobs.h ****   0x0010000000000024UL, 0x00000006280c0042UL, 0x280d004300000007UL, 0x3421203f00000002UL,
 435:Model/face_landmark_ecblobs.h ****   0x0000000028110043UL, 0x0080212100000000UL, 0x0008000838007c00UL, 0x3421200038020123UL,
 436:Model/face_landmark_ecblobs.h ****   0x0010000400300030UL, 0x0000000400000300UL, 0x0000900000000004UL, 0x0010000000000024UL,
 437:Model/face_landmark_ecblobs.h ****   0x00000006380c0042UL, 0x380d004300000007UL, 0x3421b03f00000004UL, 0x0000000038110043UL,
 438:Model/face_landmark_ecblobs.h ****   0x10007c0000000000UL, 0x1000042400000002UL, 0x0000000000000064UL, 0x4000000010007c00UL,
 439:Model/face_landmark_ecblobs.h ****   0x0000006410007bc4UL, 0x10007c0000000000UL, 0x10077c0000000001UL, 0x100b7c0000000025UL,
 440:Model/face_landmark_ecblobs.h ****   0x101200430000002dUL, 0x000000030000000fUL, 0x0000002b101e7c00UL, 0x0000001910247c00UL,
 441:Model/face_landmark_ecblobs.h ****   0x0000000510267c00UL, 0x3800200128002001UL, 0x0000005544007c00UL, 0x680020015c002001UL,
 442:Model/face_landmark_ecblobs.h ****   0x180020016c002001UL, 0x300020011c002001UL, 0x0000006428007fe4UL, 0x38007fe400000000UL,
 443:Model/face_landmark_ecblobs.h ****   0x0000000000000064UL, 0x0000000010077c00UL, 0x00000000100b7c00UL, 0x0000000010120043UL,
 444:Model/face_landmark_ecblobs.h ****   0x101e7c0000000000UL, 0x10247c0000000000UL, 0x10267c0000000000UL, 0x28007c0000000000UL,
 445:Model/face_landmark_ecblobs.h ****   0x2800042400000002UL, 0x0000000000000064UL, 0x4000000028007c00UL, 0x0000006428007bc4UL,
 446:Model/face_landmark_ecblobs.h ****   0x008000a100000000UL, 0x0000000238007c00UL, 0x0000006438000424UL, 0x38007c0000000000UL,
 447:Model/face_landmark_ecblobs.h ****   0x38007bc440000000UL, 0x0000000000000064UL, 0x44007c0000800121UL, 0x4400042400000002UL,
 448:Model/face_landmark_ecblobs.h ****   0x0000000000000064UL, 0x4000000044007c00UL, 0x0000006444007bc4UL, 0x0080018100000000UL,
 449:Model/face_landmark_ecblobs.h ****   0x080000025c007c00UL, 0x000000645c000424UL, 0x5c007c0000000000UL, 0x5c007bc448000000UL,
 450:Model/face_landmark_ecblobs.h ****   0x0000000000000064UL, 0x68007c0000800241UL, 0x6800042408000002UL, 0x0000000000000064UL,
 451:Model/face_landmark_ecblobs.h ****   0x4800000068007c00UL, 0x0000006468007bc4UL, 0x008002a100000000UL, 0x004200026c007c00UL,
 452:Model/face_landmark_ecblobs.h ****   0x000000646c000424UL, 0x6c007c0000000000UL, 0x6c007bc440420000UL, 0x0000000000000064UL,
 453:Model/face_landmark_ecblobs.h ****   0x18007c00008002c1UL, 0x1800042400000002UL, 0x0000000000000064UL, 0x4000000018007c00UL,
 454:Model/face_landmark_ecblobs.h ****   0x0000006418007bc4UL, 0x0080002100000000UL, 0x000000021c007c00UL, 0x000000641c000424UL,
 455:Model/face_landmark_ecblobs.h ****   0x1c007c0000000000UL, 0x1c007bc440000000UL, 0x0000000000000064UL, 0x30007c0000800041UL,
 456:Model/face_landmark_ecblobs.h ****   0x3000042400000002UL, 0x0000000000000064UL, 0x4000000030007c00UL, 0x0000006430007bc4UL,
 457:Model/face_landmark_ecblobs.h ****   0x008000e100000000UL, 0x000000000000000cUL
 458:Model/face_landmark_ecblobs.h **** };
 459:Model/face_landmark_ecblobs.h **** 
 460:Model/face_landmark_ecblobs.h **** 
 461:Model/face_landmark_ecblobs.h **** #define EC_DECRYPT__ec_blob_face_landmark_13 false    // Epoch Controller must NOT be programmed fo
 462:Model/face_landmark_ecblobs.h **** 
 463:Model/face_landmark_ecblobs.h **** ECBLOB_CONST_SECTION
 464:Model/face_landmark_ecblobs.h **** static const uint64_t _ec_blob_face_landmark_13[] =
 465:Model/face_landmark_ecblobs.h **** {
 466:Model/face_landmark_ecblobs.h ****   0x000000f4ca057a7aUL, 0x008020c1000001bdUL, 0x000800002c007c00UL, 0x3421b0002c020123UL,
ARM GAS  /tmp/cc4rvpEd.s 			page 56


 467:Model/face_landmark_ecblobs.h ****   0x0030000100100030UL, 0x0000000100000900UL, 0x0000900000000030UL, 0x0010000000000024UL,
 468:Model/face_landmark_ecblobs.h ****   0x000000062c0c0042UL, 0x2c0d004300000007UL, 0x3422403f00000030UL, 0x000000002c110043UL,
 469:Model/face_landmark_ecblobs.h ****   0x0080204100000000UL, 0x000801081c007c00UL, 0x342240001c020043UL, 0x1c0500c300000300UL,
 470:Model/face_landmark_ecblobs.h ****   0x0000030000000000UL, 0x0000000000000000UL, 0x0010000000000024UL, 0x000000061c0c0042UL,
 471:Model/face_landmark_ecblobs.h ****   0x1c0d004300000007UL, 0x3422d03f00000030UL, 0x000000001c110043UL, 0x10007c0000000000UL,
 472:Model/face_landmark_ecblobs.h ****   0x1000042400000002UL, 0x0000000000000064UL, 0x4000000010007c00UL, 0x0000006410007bc4UL,
 473:Model/face_landmark_ecblobs.h ****   0x10007c0000000000UL, 0x10047c0000000001UL, 0x1c0020010000000dUL, 0x1c007fe42c002001UL,
 474:Model/face_landmark_ecblobs.h ****   0x0000000000000064UL, 0x0000000010047c00UL, 0x000000021c007c00UL, 0x000000641c000424UL,
 475:Model/face_landmark_ecblobs.h ****   0x1c007c0000000000UL, 0x1c007bc440000000UL, 0x0000000000000064UL, 0x2c007c0000800041UL,
 476:Model/face_landmark_ecblobs.h ****   0x2c00042400000002UL, 0x0000000000000064UL, 0x400000002c007c00UL, 0x000000642c007bc4UL,
 477:Model/face_landmark_ecblobs.h ****   0x008000c100000000UL, 0x008021a1000001ddUL, 0x0000003448007c00UL, 0x01010101480200c3UL,
 478:Model/face_landmark_ecblobs.h ****   0x1053400000001100UL, 0x002f000000100030UL, 0x480a7c00000f0000UL, 0x480d7c0010000000UL,
 479:Model/face_landmark_ecblobs.h ****   0x008021010000ffd0UL, 0x0008010034007c00UL, 0x3422400034020043UL, 0x340500c300000300UL,
 480:Model/face_landmark_ecblobs.h ****   0x0000000000000000UL, 0x0000030000000001UL, 0x0010000000000024UL, 0x00000006340c0042UL,
 481:Model/face_landmark_ecblobs.h ****   0x340d004300000007UL, 0x3422d03f00000030UL, 0x0000000034110043UL, 0x008020e100000000UL,
 482:Model/face_landmark_ecblobs.h ****   0x0008018430007c00UL, 0x7041cf9030020043UL, 0x300500c300000030UL, 0x0000000000000000UL,
 483:Model/face_landmark_ecblobs.h ****   0x0000000000000000UL, 0x0010000000000024UL, 0x00000006300c0042UL, 0x300d004300000007UL,
 484:Model/face_landmark_ecblobs.h ****   0x7041cfff00000001UL, 0x0000000030110043UL, 0x0080206100000008UL, 0x0008010820007c00UL,
 485:Model/face_landmark_ecblobs.h ****   0x3421200020020043UL, 0x200500c300000600UL, 0x0000060000000000UL, 0x0000000000000000UL,
 486:Model/face_landmark_ecblobs.h ****   0x0010000000000024UL, 0x00000006200c0042UL, 0x200d004300000007UL, 0x3422403f00000030UL,
 487:Model/face_landmark_ecblobs.h ****   0x0000000020110043UL, 0x10007c0000000000UL, 0x1000042400000002UL, 0x0000000000000064UL,
 488:Model/face_landmark_ecblobs.h ****   0x4000000010007c00UL, 0x0000006410007bc4UL, 0x10007c0000000000UL, 0x10057c0000000001UL,
 489:Model/face_landmark_ecblobs.h ****   0x101500430000001bUL, 0x0000000f00000011UL, 0x48007c0020002001UL, 0x3000200100000035UL,
 490:Model/face_landmark_ecblobs.h ****   0x20007fe434002001UL, 0x0000000000000064UL, 0x0000000010057c00UL, 0x0000000010150043UL,
 491:Model/face_landmark_ecblobs.h ****   0x20007c0000000000UL, 0x2000042400000002UL, 0x0000000000000064UL, 0x4000000020007c00UL,
 492:Model/face_landmark_ecblobs.h ****   0x0000006420007bc4UL, 0x0080006100000000UL, 0x0000000248007c00UL, 0x0000006448000424UL,
 493:Model/face_landmark_ecblobs.h ****   0x48007c0000000000UL, 0x48007bc440000000UL, 0x0000000000000064UL, 0x30007c00008001a1UL,
 494:Model/face_landmark_ecblobs.h ****   0x3000042400000002UL, 0x0000000000000064UL, 0x4000000030007c00UL, 0x0000006430007bc4UL,
 495:Model/face_landmark_ecblobs.h ****   0x008000e100000000UL, 0x0000000234007c00UL, 0x0000006434000424UL, 0x34007c0000000000UL,
 496:Model/face_landmark_ecblobs.h ****   0x34007bc440000000UL, 0x0000000000000064UL, 0x0000000c00800101UL
 497:Model/face_landmark_ecblobs.h **** };
 498:Model/face_landmark_ecblobs.h **** 
 499:Model/face_landmark_ecblobs.h **** 
 500:Model/face_landmark_ecblobs.h **** #define EC_DECRYPT__ec_blob_face_landmark_16 false    // Epoch Controller must NOT be programmed fo
 501:Model/face_landmark_ecblobs.h **** 
 502:Model/face_landmark_ecblobs.h **** ECBLOB_CONST_SECTION
 503:Model/face_landmark_ecblobs.h **** static const uint64_t _ec_blob_face_landmark_16[] =
 504:Model/face_landmark_ecblobs.h **** {
 505:Model/face_landmark_ecblobs.h ****   0x000010a4ca057a7aUL, 0x008022610000021dUL, 0x0800000060000042UL, 0x60027c0005000160UL,
 506:Model/face_landmark_ecblobs.h ****   0x6007004300079400UL, 0x000069d5404563ebUL, 0x00000000600c0043UL, 0x0080228110411041UL,
 507:Model/face_landmark_ecblobs.h ****   0x0800000064000042UL, 0x64027c0005006e60UL, 0x6407004300000000UL, 0x00000000fff7ff80UL,
 508:Model/face_landmark_ecblobs.h ****   0x00000000640c0043UL, 0x0080224110411041UL, 0x080000005c000042UL, 0x5c020123096000fcUL,
 509:Model/face_landmark_ecblobs.h ****   0x0000000000000000UL, 0x000008ff00000000UL, 0x0000000100011fffUL, 0x0784020000000000UL,
 510:Model/face_landmark_ecblobs.h ****   0x5c0c004300000001UL, 0x1041104100000000UL, 0x000000015c0b7c00UL, 0x0000ffd85d000803UL,
 511:Model/face_landmark_ecblobs.h ****   0x0000001800000000UL, 0x0000003a00000000UL, 0x0000000e00000000UL, 0x0000ffde00000000UL,
 512:Model/face_landmark_ecblobs.h ****   0x0000ffe000000000UL, 0x0000000f00000000UL, 0x0000fffa00000000UL, 0x0000ffd400000000UL,
 513:Model/face_landmark_ecblobs.h ****   0x0000005300000000UL, 0x0000000700000000UL, 0x0000002900000000UL, 0x0000002a00000000UL,
 514:Model/face_landmark_ecblobs.h ****   0x0000000600000000UL, 0x0000000b00000000UL, 0x0000007f00000000UL, 0x0000001800000000UL,
 515:Model/face_landmark_ecblobs.h ****   0x0000002c00000000UL, 0x0000ffff00000000UL, 0x0000fff800000000UL, 0x0000006a00000000UL,
 516:Model/face_landmark_ecblobs.h ****   0x0000000800000000UL, 0x0000ffeb00000000UL, 0x0000001b00000000UL, 0x0000003100000000UL,
 517:Model/face_landmark_ecblobs.h ****   0x0000001800000000UL, 0x0000000b00000000UL, 0x0000ffc200000000UL, 0x0000001f00000000UL,
 518:Model/face_landmark_ecblobs.h ****   0x0000000100000000UL, 0x0000ffd800000000UL, 0x0000ffc400000000UL, 0x008022a100000000UL,
 519:Model/face_landmark_ecblobs.h ****   0x0800000068000042UL, 0x68020123156000fcUL, 0x00000000000a8000UL, 0x000008ff00000000UL,
 520:Model/face_landmark_ecblobs.h ****   0x0000578700011fffUL, 0x0784020000000000UL, 0x680c004300000001UL, 0x1041204200000000UL,
 521:Model/face_landmark_ecblobs.h ****   0x00000001680b7c00UL, 0xfa04578769000803UL, 0xfac957870000eaa8UL, 0xfb3257870000d99bUL,
 522:Model/face_landmark_ecblobs.h ****   0xfaab57870000788cUL, 0xfa17578700001445UL, 0xfa1d57870000610fUL, 0xfaae578700008886UL,
 523:Model/face_landmark_ecblobs.h ****   0xfa6d578700002800UL, 0xf9f8578700008999UL, 0xfb7f578700009bb9UL, 0xfa955787000065e3UL,
ARM GAS  /tmp/cc4rvpEd.s 			page 57


 524:Model/face_landmark_ecblobs.h ****   0xfafe578700008a22UL, 0xfb01578700002913UL, 0xfa92578700003ccfUL, 0xfaa1578700007666UL,
 525:Model/face_landmark_ecblobs.h ****   0xfc0657870000d911UL, 0xfac957870000ca29UL, 0xfb0757870000d99bUL, 0xfa7c578700006447UL,
 526:Model/face_landmark_ecblobs.h ****   0xfa6757870000ec44UL, 0xfbc6578700006221UL, 0xfa98578700002bc2UL, 0xfa3f578700009ddeUL,
 527:Model/face_landmark_ecblobs.h ****   0xfad3578700006198UL, 0xfb165787000014ceUL, 0xfac957870000c6f1UL, 0xfaa157870000d99bUL,
 528:Model/face_landmark_ecblobs.h ****   0xf9c157870000d911UL, 0xfadf578700003884UL, 0xfa835787000063bdUL, 0xfa045787000013bbUL,
 529:Model/face_landmark_ecblobs.h ****   0xf9c757870000eaa8UL, 0x0080204100005ffcUL, 0x000801001c007c00UL, 0x342240001c020043UL,
 530:Model/face_landmark_ecblobs.h ****   0x1c0500c300000900UL, 0x0000090000000000UL, 0x0000000000000000UL, 0x0010000000000024UL,
 531:Model/face_landmark_ecblobs.h ****   0x000000061c0c0042UL, 0x1c0d004300000007UL, 0x3423603f00000020UL, 0x000000001c110043UL,
 532:Model/face_landmark_ecblobs.h ****   0x0080208100000000UL, 0x0008000024007c00UL, 0x3420000024020123UL, 0x0020000100300030UL,
 533:Model/face_landmark_ecblobs.h ****   0x0000000100000600UL, 0x0001200000000020UL, 0x0010000000000024UL, 0x00000006240c0042UL,
 534:Model/face_landmark_ecblobs.h ****   0x240d004300000007UL, 0x3421203f00000020UL, 0x0000000024110043UL, 0x008020a100000000UL,
 535:Model/face_landmark_ecblobs.h ****   0x0008010828007c00UL, 0x3423600028020043UL, 0x280500c300000900UL, 0x0000090000000000UL,
 536:Model/face_landmark_ecblobs.h ****   0x0000000000000000UL, 0x0010000000000024UL, 0x00000006280c0042UL, 0x280d004300000007UL,
 537:Model/face_landmark_ecblobs.h ****   0x3424803f00000020UL, 0x0000000028110043UL, 0x0080212100000000UL, 0x0008010838007c00UL,
 538:Model/face_landmark_ecblobs.h ****   0x3424800038020043UL, 0x380500c300000900UL, 0x0000090000000000UL, 0x0000000000000000UL,
 539:Model/face_landmark_ecblobs.h ****   0x0010000000000024UL, 0x00000006380c0042UL, 0x380d004300000007UL, 0x3425a03f00000020UL,
 540:Model/face_landmark_ecblobs.h ****   0x0000000038110043UL, 0x10007c0000000000UL, 0x1000042400000002UL, 0x0000000000000064UL,
 541:Model/face_landmark_ecblobs.h ****   0x4000000010007c00UL, 0x0000006410007bc4UL, 0x10007c0000000000UL, 0x10077c0000000001UL,
 542:Model/face_landmark_ecblobs.h ****   0x100b7c0000000027UL, 0x101e7c000000002bUL, 0x1020006300000029UL, 0x0000000900000005UL,
 543:Model/face_landmark_ecblobs.h ****   0x10247c0000000027UL, 0x2800200100000025UL, 0x5c00200138002001UL, 0x6400200160002001UL,
 544:Model/face_landmark_ecblobs.h ****   0x1c00200168002001UL, 0x28007fe424002001UL, 0x0000000000000064UL, 0x0000006438007fe4UL,
 545:Model/face_landmark_ecblobs.h ****   0x10077c0000000000UL, 0x100b7c0000000000UL, 0x101e7c0000000000UL, 0x1020006300000000UL,
 546:Model/face_landmark_ecblobs.h ****   0x0000000000000000UL, 0x10247c0000000000UL, 0x28007c0000000000UL, 0x2800042400000002UL,
 547:Model/face_landmark_ecblobs.h ****   0x0000000000000064UL, 0x4000000028007c00UL, 0x0000006428007bc4UL, 0x008000a100000000UL,
 548:Model/face_landmark_ecblobs.h ****   0x0000000238007c00UL, 0x0000006438000424UL, 0x38007c0000000000UL, 0x38007bc440000000UL,
 549:Model/face_landmark_ecblobs.h ****   0x0000000000000064UL, 0x5c007c0000800121UL, 0x5c00042408000002UL, 0x0000000000000064UL,
 550:Model/face_landmark_ecblobs.h ****   0x480000005c007c00UL, 0x000000645c007bc4UL, 0x0080024100000000UL, 0x0800000260007c00UL,
 551:Model/face_landmark_ecblobs.h ****   0x0000006460000424UL, 0x60007c0000000000UL, 0x60007bc448000000UL, 0x0000000000000064UL,
 552:Model/face_landmark_ecblobs.h ****   0x64007c0000800261UL, 0x6400042408000002UL, 0x0000000000000064UL, 0x4800000064007c00UL,
 553:Model/face_landmark_ecblobs.h ****   0x0000006464007bc4UL, 0x0080028100000000UL, 0x0800000268007c00UL, 0x0000006468000424UL,
 554:Model/face_landmark_ecblobs.h ****   0x68007c0000000000UL, 0x68007bc448000000UL, 0x0000000000000064UL, 0x1c007c00008002a1UL,
 555:Model/face_landmark_ecblobs.h ****   0x1c00042400000002UL, 0x0000000000000064UL, 0x400000001c007c00UL, 0x000000641c007bc4UL,
 556:Model/face_landmark_ecblobs.h ****   0x0080004100000000UL, 0x0000000224007c00UL, 0x0000006424000424UL, 0x24007c0000000000UL,
 557:Model/face_landmark_ecblobs.h ****   0x24007bc440000000UL, 0x0000000000000064UL, 0x0000023d00800081UL, 0x58007c0000802221UL,
 558:Model/face_landmark_ecblobs.h ****   0x580200430174104cUL, 0x029011cf00087f80UL, 0x0000000059000403UL, 0x0000000000000000UL,
 559:Model/face_landmark_ecblobs.h ****   0x0000000000000000UL, 0x0000000000000000UL, 0x0000000000000000UL, 0x0000000000000000UL,
 560:Model/face_landmark_ecblobs.h ****   0x0000000000000000UL, 0x000000c100000000UL, 0x0000000900000009UL, 0x0000000900000009UL,
 561:Model/face_landmark_ecblobs.h ****   0x0000000900000009UL, 0x0000000900000009UL, 0x0000000900000009UL, 0x0000000900000009UL,
 562:Model/face_landmark_ecblobs.h ****   0x0000000900000009UL, 0x0000000900000009UL, 0x5a000483000000caUL, 0x0000d40000000000UL,
 563:Model/face_landmark_ecblobs.h ****   0x0000d40000000000UL, 0x0000d40000000000UL, 0x0000d40000000000UL, 0x0000d40000000000UL,
 564:Model/face_landmark_ecblobs.h ****   0x0000d40000000000UL, 0x0000d40000000000UL, 0x0000d40000000000UL, 0x0000d40000000000UL,
 565:Model/face_landmark_ecblobs.h ****   0x0000df3f4ff80000UL, 0x0000750000000000UL, 0x0000760000000000UL, 0x0000780000000000UL,
 566:Model/face_landmark_ecblobs.h ****   0x0000790000000000UL, 0x00007a0000000000UL, 0x00007b0000000000UL, 0x00007d0000000000UL,
 567:Model/face_landmark_ecblobs.h ****   0x00007e0000000000UL, 0x5c00004200802241UL, 0x0500016008000000UL, 0x000714005c027c00UL,
 568:Model/face_landmark_ecblobs.h ****   0x580040005c070043UL, 0x5c0c004300004000UL, 0x1041104100000000UL, 0x30007c00008020e1UL,
 569:Model/face_landmark_ecblobs.h ****   0x3002004300080100UL, 0x0000090034236000UL, 0x00000000300500c3UL, 0x0000000000000900UL,
 570:Model/face_landmark_ecblobs.h ****   0x0000002400000000UL, 0x300c004200100000UL, 0x0000000700000006UL, 0x00000020300d0043UL,
 571:Model/face_landmark_ecblobs.h ****   0x301100433424803fUL, 0x0000000000000000UL, 0x24007c0000802081UL, 0x2402004300080100UL,
 572:Model/face_landmark_ecblobs.h ****   0x0000090034248000UL, 0x00000000240500c3UL, 0x0000000000000900UL, 0x0000002400000000UL,
 573:Model/face_landmark_ecblobs.h ****   0x240c004200100000UL, 0x0000000700000006UL, 0x00000020240d0043UL, 0x241100433425a03fUL,
 574:Model/face_landmark_ecblobs.h ****   0x0000000000000000UL, 0x34007c0000802101UL, 0x3402012300080008UL, 0x0030003034200000UL,
 575:Model/face_landmark_ecblobs.h ****   0x0000060000200001UL, 0x0000002000000001UL, 0x0000002400012000UL, 0x340c004200100000UL,
 576:Model/face_landmark_ecblobs.h ****   0x0000000700000006UL, 0x00000020340d0043UL, 0x341100433421203fUL, 0x0000000000000000UL,
 577:Model/face_landmark_ecblobs.h ****   0x0000000210007c00UL, 0x0000006410000424UL, 0x10007c0000000000UL, 0x10007bc440000000UL,
 578:Model/face_landmark_ecblobs.h ****   0x0000000000000064UL, 0x0000000110007c00UL, 0x00000025100a7c00UL, 0x0000000f101d0063UL,
 579:Model/face_landmark_ecblobs.h ****   0x0000000900000023UL, 0x5800200134002001UL, 0x240020015c002001UL, 0x34007fe430002001UL,
 580:Model/face_landmark_ecblobs.h ****   0x0000000000000064UL, 0x00000000100a7c00UL, 0x00000000101d0063UL, 0x0000000000000000UL,
ARM GAS  /tmp/cc4rvpEd.s 			page 58


 581:Model/face_landmark_ecblobs.h ****   0x0000000234007c00UL, 0x0000006434000424UL, 0x34007c0000000000UL, 0x34007bc440000000UL,
 582:Model/face_landmark_ecblobs.h ****   0x0000000000000064UL, 0x58007c0000800101UL, 0x5800042400881082UL, 0x0000000000000064UL,
 583:Model/face_landmark_ecblobs.h ****   0x4088108058007c00UL, 0x0000006458007bc4UL, 0x0080022100000000UL, 0x080000025c007c00UL,
 584:Model/face_landmark_ecblobs.h ****   0x000000645c000424UL, 0x5c007c0000000000UL, 0x5c007bc448000000UL, 0x0000000000000064UL,
 585:Model/face_landmark_ecblobs.h ****   0x24007c0000800241UL, 0x2400042400000002UL, 0x0000000000000064UL, 0x4000000024007c00UL,
 586:Model/face_landmark_ecblobs.h ****   0x0000006424007bc4UL, 0x0080008100000000UL, 0x0000000230007c00UL, 0x0000006430000424UL,
 587:Model/face_landmark_ecblobs.h ****   0x30007c0000000000UL, 0x30007bc440000000UL, 0x0000000000000064UL, 0x0000025d008000e1UL,
 588:Model/face_landmark_ecblobs.h ****   0x34007c0000802101UL, 0x340201230088c000UL, 0x0030003034200000UL, 0x0000060000200002UL,
 589:Model/face_landmark_ecblobs.h ****   0x0000000800000004UL, 0x0000002400012000UL, 0x340c004200100000UL, 0x0000000700000006UL,
 590:Model/face_landmark_ecblobs.h ****   0x00000008340d0043UL, 0x341100433421203fUL, 0x0000000000000000UL, 0x14007c0000802001UL,
 591:Model/face_landmark_ecblobs.h ****   0x1402004300880108UL, 0x0000120034224000UL, 0x00000000140500c3UL, 0x0000000000002400UL,
 592:Model/face_landmark_ecblobs.h ****   0x0000002400000000UL, 0x140c004200100000UL, 0x0000000700000006UL, 0x00000008140d0043UL,
 593:Model/face_landmark_ecblobs.h ****   0x141100433423603fUL, 0x0000000000000000UL, 0x0000000210007c00UL, 0x0000006410000424UL,
 594:Model/face_landmark_ecblobs.h ****   0x10007c0000000000UL, 0x10007bc440000000UL, 0x0000000000000064UL, 0x0000000110007c00UL,
 595:Model/face_landmark_ecblobs.h ****   0x0000001110027c00UL, 0x3400200114002001UL, 0x0000006414007fe4UL, 0x10027c0000000000UL,
 596:Model/face_landmark_ecblobs.h ****   0x14007c0000000000UL, 0x1400042400000002UL, 0x0000000000000064UL, 0x4000000014007c00UL,
 597:Model/face_landmark_ecblobs.h ****   0x0000006414007bc4UL, 0x0080000100000000UL, 0x0000000234007c00UL, 0x0000006434000424UL,
 598:Model/face_landmark_ecblobs.h ****   0x34007c0000000000UL, 0x34007bc440000000UL, 0x0000000000000064UL, 0x0000027d00800101UL,
 599:Model/face_landmark_ecblobs.h ****   0x3c007c0000802141UL, 0x3c0200c300000054UL, 0x0000115504040303UL, 0x003000c010a34202UL,
 600:Model/face_landmark_ecblobs.h ****   0x002f000000bf0000UL, 0x000000003c0a7c00UL, 0x00ffffd43c0c0043UL, 0x0080226100000000UL,
 601:Model/face_landmark_ecblobs.h ****   0x0800000060000042UL, 0x60027c0009000060UL, 0x6007004300078000UL, 0x0000000000004e73UL,
 602:Model/face_landmark_ecblobs.h ****   0x00000000600c0043UL, 0x0080228120422042UL, 0x0800000064000042UL, 0x64027c0015000060UL,
 603:Model/face_landmark_ecblobs.h ****   0x64070043000a0000UL, 0x0000ff7000006fa8UL, 0x00000000640c0043UL, 0x0080206120422042UL,
 604:Model/face_landmark_ecblobs.h ****   0x0008c10020007c00UL, 0x3422400020020043UL, 0x200500c300002400UL, 0x0000000000000000UL,
 605:Model/face_landmark_ecblobs.h ****   0x0000240000000001UL, 0x0010000000000024UL, 0x00000006200c0042UL, 0x200d004300000007UL,
 606:Model/face_landmark_ecblobs.h ****   0x3423603f00000008UL, 0x0000000020110043UL, 0x0080200100000000UL, 0x0008c18414007c00UL,
 607:Model/face_landmark_ecblobs.h ****   0x70419b8014020043UL, 0x140500c300000480UL, 0x0000000000000000UL, 0x0000000000000000UL,
 608:Model/face_landmark_ecblobs.h ****   0x0010000000000024UL, 0x00000006140c0042UL, 0x140d004300000007UL, 0x7041a03f00000001UL,
 609:Model/face_landmark_ecblobs.h ****   0x0000000014110043UL, 0x0080212100000008UL, 0x0008000838007c00UL, 0x3423600038020123UL,
 610:Model/face_landmark_ecblobs.h ****   0x0020000400300030UL, 0x0000000400000600UL, 0x0001200000000008UL, 0x0010000000000024UL,
 611:Model/face_landmark_ecblobs.h ****   0x00000006380c0042UL, 0x380d004300000007UL, 0x3424803f00000008UL, 0x0000000038110043UL,
 612:Model/face_landmark_ecblobs.h ****   0x10007c0000000000UL, 0x1000042400000002UL, 0x0000000000000064UL, 0x4000000010007c00UL,
 613:Model/face_landmark_ecblobs.h ****   0x0000006410007bc4UL, 0x10007c0000000000UL, 0x100b006300000001UL, 0x0000000700000029UL,
 614:Model/face_landmark_ecblobs.h ****   0x10207c0000000001UL, 0x10227c0000000015UL, 0x3800200100000027UL, 0x000000553c007c00UL,
 615:Model/face_landmark_ecblobs.h ****   0x6400200160002001UL, 0x2000200114002001UL, 0x0000006438007fe4UL, 0x100b006300000000UL,
 616:Model/face_landmark_ecblobs.h ****   0x0000000000000000UL, 0x10207c0000000000UL, 0x10227c0000000000UL, 0x38007c0000000000UL,
 617:Model/face_landmark_ecblobs.h ****   0x3800042400000002UL, 0x0000000000000064UL, 0x4000000038007c00UL, 0x0000006438007bc4UL,
 618:Model/face_landmark_ecblobs.h ****   0x0080012100000000UL, 0x000000023c007c00UL, 0x000000643c000424UL, 0x3c007c0000000000UL,
 619:Model/face_landmark_ecblobs.h ****   0x3c007bc440000000UL, 0x0000000000000064UL, 0x60007c0000800141UL, 0x6000042408000002UL,
 620:Model/face_landmark_ecblobs.h ****   0x0000000000000064UL, 0x4800000060007c00UL, 0x0000006460007bc4UL, 0x0080026100000000UL,
 621:Model/face_landmark_ecblobs.h ****   0x0800000264007c00UL, 0x0000006464000424UL, 0x64007c0000000000UL, 0x64007bc448000000UL,
 622:Model/face_landmark_ecblobs.h ****   0x0000000000000064UL, 0x14007c0000800281UL, 0x1400042400000002UL, 0x0000000000000064UL,
 623:Model/face_landmark_ecblobs.h ****   0x4000000014007c00UL, 0x0000006414007bc4UL, 0x0080000100000000UL, 0x0000000220007c00UL,
 624:Model/face_landmark_ecblobs.h ****   0x0000006420000424UL, 0x20007c0000000000UL, 0x20007bc440000000UL, 0x0000000000000064UL,
 625:Model/face_landmark_ecblobs.h ****   0x0000029d00800061UL, 0x40007c0000802161UL, 0x400200e300000054UL, 0x0000110010100101UL,
 626:Model/face_landmark_ecblobs.h ****   0x0030030010b74002UL, 0x002f000002ff0000UL, 0x400a7c00000f0020UL, 0x400c004300000000UL,
 627:Model/face_landmark_ecblobs.h ****   0x0000000000fffff7UL, 0x44007c0000802181UL, 0x440200e300000040UL, 0x0000110010100101UL,
 628:Model/face_landmark_ecblobs.h ****   0x0030030010a34200UL, 0x002f000002ff0000UL, 0x440a7c00001f1020UL, 0x440c004300000000UL,
 629:Model/face_landmark_ecblobs.h ****   0x0000000000fffff7UL, 0x68000042008022a1UL, 0x0900006008000000UL, 0x0007000068027c00UL,
 630:Model/face_landmark_ecblobs.h ****   0x000077cd68070043UL, 0x680c004300000000UL, 0x2042204200000000UL, 0x5c00004200802241UL,
 631:Model/face_landmark_ecblobs.h ****   0x156000fc08000000UL, 0x000a00005c020123UL, 0x0000000f00000000UL, 0x00011fff00008fffUL,
 632:Model/face_landmark_ecblobs.h ****   0x0000000000006459UL, 0x00000001078403f1UL, 0x000000005c0c0043UL, 0x5c0b7c0020422042UL,
 633:Model/face_landmark_ecblobs.h ****   0x5d00080300000001UL, 0x00009c8802a06459UL, 0x000061d602346459UL, 0x0000afc602756459UL,
 634:Model/face_landmark_ecblobs.h ****   0x00002a1002df6459UL, 0x000096fc02d16459UL, 0x0000af7302566459UL, 0x00004fe6024b6459UL,
 635:Model/face_landmark_ecblobs.h ****   0x000060da02f76459UL, 0x0000e92a02f56459UL, 0x0000b55102d46459UL, 0x00007950027c6459UL,
 636:Model/face_landmark_ecblobs.h ****   0x00001a6902af6459UL, 0x00005cf002a36459UL, 0x00007419023c6459UL, 0x0000bdcc029a6459UL,
 637:Model/face_landmark_ecblobs.h ****   0x0000ea7a02516459UL, 0x00003a5f02bd6459UL, 0x000016d3027a6459UL, 0x0000eb20028f6459UL,
ARM GAS  /tmp/cc4rvpEd.s 			page 59


 638:Model/face_landmark_ecblobs.h ****   0x0000dad202b16459UL, 0x0000177a02b86459UL, 0x0000ebc702cd6459UL, 0x00006d9202a06459UL,
 639:Model/face_landmark_ecblobs.h ****   0x00009945028a6459UL, 0x000012e902b66459UL, 0x0000c25c029c6459UL, 0x00004523023c6459UL,
 640:Model/face_landmark_ecblobs.h ****   0x00006f8702ca6459UL, 0x00008f2902b96459UL, 0x0000dbcd027e6459UL, 0x0000ffab02e06459UL,
 641:Model/face_landmark_ecblobs.h ****   0x0000f82b02e76459UL, 0x1c007c0000802041UL, 0x1c0201230008c000UL, 0x0030003034236000UL,
 642:Model/face_landmark_ecblobs.h ****   0x0000060000200010UL, 0x0000000100000020UL, 0x0000002400000000UL, 0x1c0c004200100000UL,
 643:Model/face_landmark_ecblobs.h ****   0x0000000700000006UL, 0x000000021c0d0043UL, 0x1c1100433424803fUL, 0x0000000000000000UL,
 644:Model/face_landmark_ecblobs.h ****   0x24007c0000802081UL, 0x240200430008c184UL, 0x000004007041b200UL, 0x00000000240500c3UL,
 645:Model/face_landmark_ecblobs.h ****   0x0000000000000000UL, 0x0000002400000000UL, 0x240c004200100000UL, 0x0000000700000006UL,
 646:Model/face_landmark_ecblobs.h ****   0x00000001240d0043UL, 0x241100437041b63fUL, 0x0000000800000000UL, 0x28007c00008020a1UL,
 647:Model/face_landmark_ecblobs.h ****   0x280201230008c000UL, 0x0030003034236010UL, 0x0000060000200010UL, 0x0000000100000020UL,
 648:Model/face_landmark_ecblobs.h ****   0x0000002400000000UL, 0x280c004200100000UL, 0x0000000700000006UL, 0x00000002280d0043UL,
 649:Model/face_landmark_ecblobs.h ****   0x281100433424803fUL, 0x0000000000000000UL, 0x34007c0000802101UL, 0x3402012300080008UL,
 650:Model/face_landmark_ecblobs.h ****   0x0030003034212000UL, 0x0000060000200010UL, 0x0000000200000010UL, 0x0000002400012000UL,
 651:Model/face_landmark_ecblobs.h ****   0x340c004200100000UL, 0x0000000700000006UL, 0x00000002340d0043UL, 0x341100433422403fUL,
 652:Model/face_landmark_ecblobs.h ****   0x0000000000000000UL, 0x0000000210007c00UL, 0x0000006410000424UL, 0x10007c0000000000UL,
 653:Model/face_landmark_ecblobs.h ****   0x10007bc440000000UL, 0x0000000000000064UL, 0x0000000110007c00UL, 0x00000025100a7c00UL,
 654:Model/face_landmark_ecblobs.h ****   0x00000005100f0043UL, 0x1012006300000009UL, 0x000000090000000bUL, 0x101e7c0000000017UL,
 655:Model/face_landmark_ecblobs.h ****   0x10247c000000002bUL, 0x3400200100000019UL, 0x0000005540007c00UL, 0x0000004144007c00UL,
 656:Model/face_landmark_ecblobs.h ****   0x680020015c002001UL, 0x240020011c002001UL, 0x34007fe428002001UL, 0x0000000000000064UL,
 657:Model/face_landmark_ecblobs.h ****   0x00000000100a7c00UL, 0x00000000100f0043UL, 0x1012006300000000UL, 0x0000000000000000UL,
 658:Model/face_landmark_ecblobs.h ****   0x101e7c0000000000UL, 0x10247c0000000000UL, 0x34007c0000000000UL, 0x3400042400000002UL,
 659:Model/face_landmark_ecblobs.h ****   0x0000000000000064UL, 0x4000000034007c00UL, 0x0000006434007bc4UL, 0x0080010100000000UL,
 660:Model/face_landmark_ecblobs.h ****   0x0000000240007c00UL, 0x0000006440000424UL, 0x40007c0000000000UL, 0x40007bc440000000UL,
 661:Model/face_landmark_ecblobs.h ****   0x0000000000000064UL, 0x44007c0000800161UL, 0x4400042400000002UL, 0x0000000000000064UL,
 662:Model/face_landmark_ecblobs.h ****   0x4000000044007c00UL, 0x0000006444007bc4UL, 0x0080018100000000UL, 0x080000025c007c00UL,
 663:Model/face_landmark_ecblobs.h ****   0x000000645c000424UL, 0x5c007c0000000000UL, 0x5c007bc448000000UL, 0x0000000000000064UL,
 664:Model/face_landmark_ecblobs.h ****   0x68007c0000800241UL, 0x6800042408000002UL, 0x0000000000000064UL, 0x4800000068007c00UL,
 665:Model/face_landmark_ecblobs.h ****   0x0000006468007bc4UL, 0x008002a100000000UL, 0x000000021c007c00UL, 0x000000641c000424UL,
 666:Model/face_landmark_ecblobs.h ****   0x1c007c0000000000UL, 0x1c007bc440000000UL, 0x0000000000000064UL, 0x24007c0000800041UL,
 667:Model/face_landmark_ecblobs.h ****   0x2400042400000002UL, 0x0000000000000064UL, 0x4000000024007c00UL, 0x0000006424007bc4UL,
 668:Model/face_landmark_ecblobs.h ****   0x0080008100000000UL, 0x0000000228007c00UL, 0x0000006428000424UL, 0x28007c0000000000UL,
 669:Model/face_landmark_ecblobs.h ****   0x28007bc440000000UL, 0x0000000000000064UL, 0x000002bd008000a1UL, 0x6000004200802261UL,
 670:Model/face_landmark_ecblobs.h ****   0x0500016008000000UL, 0x0007940060027c00UL, 0x464c5bdf60070043UL, 0x600c0043000072e4UL,
 671:Model/face_landmark_ecblobs.h ****   0x1041104100000000UL, 0x6400004200802281UL, 0x05006e6008000000UL, 0x0000000064027c00UL,
 672:Model/face_landmark_ecblobs.h ****   0x0015ff8064070043UL, 0x640c004300000000UL, 0x1041104100000000UL, 0x5c00004200802241UL,
 673:Model/face_landmark_ecblobs.h ****   0x096000fc08000000UL, 0x000000005c020123UL, 0x0000000000000000UL, 0x00011fff000008ffUL,
 674:Model/face_landmark_ecblobs.h ****   0x0000000000000001UL, 0x0000000107840200UL, 0x000000005c0c0043UL, 0x5c0b7c0010411041UL,
 675:Model/face_landmark_ecblobs.h ****   0x5d00080300000001UL, 0x0000000000000003UL, 0x0000000000000001UL, 0x0000000000000052UL,
 676:Model/face_landmark_ecblobs.h ****   0x0000000000000043UL, 0x000000000000001dUL, 0x000000000000001dUL, 0x0000000000000027UL,
 677:Model/face_landmark_ecblobs.h ****   0x0000000000000031UL, 0x000000000000ffd8UL, 0x0000000000000008UL, 0x000000000000001cUL,
 678:Model/face_landmark_ecblobs.h ****   0x000000000000ffa8UL, 0x0000000000000049UL, 0x0000000000000020UL, 0x0000000000000012UL,
 679:Model/face_landmark_ecblobs.h ****   0x000000000000001eUL, 0x000000000000ffe2UL, 0x0000000000000050UL, 0x000000000000007fUL,
 680:Model/face_landmark_ecblobs.h ****   0x0000000000000004UL, 0x000000000000002cUL, 0x000000000000ffbdUL, 0x0000000000000000UL,
 681:Model/face_landmark_ecblobs.h ****   0x000000000000ffb0UL, 0x000000000000fffcUL, 0x0000000000000058UL, 0x000000000000ffc0UL,
 682:Model/face_landmark_ecblobs.h ****   0x0000000000000011UL, 0x000000000000fffeUL, 0x0000000000000008UL, 0x000000000000004bUL,
 683:Model/face_landmark_ecblobs.h ****   0x000000000000ff9aUL, 0x68000042008022a1UL, 0x156000fc08000000UL, 0x000a800068020123UL,
 684:Model/face_landmark_ecblobs.h ****   0x0000000000000000UL, 0x00011fff000008ffUL, 0x000000000000438aUL, 0x0000000107840200UL,
 685:Model/face_landmark_ecblobs.h ****   0x00000000680c0043UL, 0x680b7c0010412042UL, 0x6900080300000001UL, 0x0000611ef62f438aUL,
 686:Model/face_landmark_ecblobs.h ****   0x000075b4f63a438aUL, 0x0000b3ecf479438aUL, 0x0000ce54f4cc438aUL, 0x0000557cf59f438aUL,
 687:Model/face_landmark_ecblobs.h ****   0x0000557cf59f438aUL, 0x0000ee8cf567438aUL, 0x0000879df530438aUL, 0x00009bbef71d438aUL,
 688:Model/face_landmark_ecblobs.h ****   0x0000ada6f613438aUL, 0x0000dfc7f5a4438aUL, 0x000089d6f827438aUL, 0x00009091f4ab438aUL,
 689:Model/face_landmark_ecblobs.h ****   0x0000b69af58e438aUL, 0x000046b7f5dc438aUL, 0x0000cb31f599438aUL, 0x000034cef6e6438aUL,
 690:Model/face_landmark_ecblobs.h ****   0x0000c883f484438aUL, 0x000064b6f380438aUL, 0x0000d6d3f629438aUL, 0x00003b14f54c438aUL,
 691:Model/face_landmark_ecblobs.h ****   0x000031abf7b3438aUL, 0x00000000f640438aUL, 0x0000377df7fb438aUL, 0x0000292cf656438aUL,
 692:Model/face_landmark_ecblobs.h ****   0x00007629f458438aUL, 0x000092caf7a2438aUL, 0x0000d102f5e1438aUL, 0x00001496f64b438aUL,
 693:Model/face_landmark_ecblobs.h ****   0x0000ada6f613438aUL, 0x00007bfaf4a0438aUL, 0x000019f2f875438aUL, 0x38007c0000802121UL,
 694:Model/face_landmark_ecblobs.h ****   0x3802012300080000UL, 0x0030003034200000UL, 0x0000060000200001UL, 0x0000002000000001UL,
ARM GAS  /tmp/cc4rvpEd.s 			page 60


 695:Model/face_landmark_ecblobs.h ****   0x0000002400012000UL, 0x380c004200100000UL, 0x0000000700000006UL, 0x00000020380d0043UL,
 696:Model/face_landmark_ecblobs.h ****   0x381100433421203fUL, 0x0000000000000000UL, 0x14007c0000802001UL, 0x1402012300080000UL,
 697:Model/face_landmark_ecblobs.h ****   0x0030003034212000UL, 0x0000060000200001UL, 0x0000002000000001UL, 0x0000002400012000UL,
 698:Model/face_landmark_ecblobs.h ****   0x140c004200100000UL, 0x0000000700000006UL, 0x00000020140d0043UL, 0x141100433422403fUL,
 699:Model/face_landmark_ecblobs.h ****   0x0000000000000000UL, 0x2c007c00008020c1UL, 0x2c02004300080108UL, 0x0000090034224000UL,
 700:Model/face_landmark_ecblobs.h ****   0x000000002c0500c3UL, 0x0000000000000900UL, 0x0000002400000000UL, 0x2c0c004200100000UL,
 701:Model/face_landmark_ecblobs.h ****   0x0000000700000006UL, 0x000000202c0d0043UL, 0x2c1100433423603fUL, 0x0000000000000000UL,
 702:Model/face_landmark_ecblobs.h ****   0x20007c0000802061UL, 0x2002004300080108UL, 0x0000090034236000UL, 0x00000000200500c3UL,
 703:Model/face_landmark_ecblobs.h ****   0x0000000000000900UL, 0x0000002400000000UL, 0x200c004200100000UL, 0x0000000700000006UL,
 704:Model/face_landmark_ecblobs.h ****   0x00000020200d0043UL, 0x201100433424803fUL, 0x0000000000000000UL, 0x0000000210007c00UL,
 705:Model/face_landmark_ecblobs.h ****   0x0000006410000424UL, 0x10007c0000000000UL, 0x10007bc440000000UL, 0x0000000000000064UL,
 706:Model/face_landmark_ecblobs.h ****   0x0000000110007c00UL, 0x0000002b10057c00UL, 0x0000002710087c00UL, 0x00000029101e7c00UL,
 707:Model/face_landmark_ecblobs.h ****   0x0000001310200063UL, 0x0000002700000001UL, 0x0000002510247c00UL, 0x2c00200120002001UL,
 708:Model/face_landmark_ecblobs.h ****   0x600020015c002001UL, 0x6800200164002001UL, 0x3800200114002001UL, 0x0000006420007fe4UL,
 709:Model/face_landmark_ecblobs.h ****   0x2c007fe400000000UL, 0x0000000000000064UL, 0x0000000010057c00UL, 0x0000000010087c00UL,
 710:Model/face_landmark_ecblobs.h ****   0x00000000101e7c00UL, 0x0000000010200063UL, 0x0000000000000000UL, 0x0000000010247c00UL,
 711:Model/face_landmark_ecblobs.h ****   0x0000000220007c00UL, 0x0000006420000424UL, 0x20007c0000000000UL, 0x20007bc440000000UL,
 712:Model/face_landmark_ecblobs.h ****   0x0000000000000064UL, 0x2c007c0000800061UL, 0x2c00042400000002UL, 0x0000000000000064UL,
 713:Model/face_landmark_ecblobs.h ****   0x400000002c007c00UL, 0x000000642c007bc4UL, 0x008000c100000000UL, 0x080000025c007c00UL,
 714:Model/face_landmark_ecblobs.h ****   0x000000645c000424UL, 0x5c007c0000000000UL, 0x5c007bc448000000UL, 0x0000000000000064UL,
 715:Model/face_landmark_ecblobs.h ****   0x60007c0000800241UL, 0x6000042408000002UL, 0x0000000000000064UL, 0x4800000060007c00UL,
 716:Model/face_landmark_ecblobs.h ****   0x0000006460007bc4UL, 0x0080026100000000UL, 0x0800000264007c00UL, 0x0000006464000424UL,
 717:Model/face_landmark_ecblobs.h ****   0x64007c0000000000UL, 0x64007bc448000000UL, 0x0000000000000064UL, 0x68007c0000800281UL,
 718:Model/face_landmark_ecblobs.h ****   0x6800042408000002UL, 0x0000000000000064UL, 0x4800000068007c00UL, 0x0000006468007bc4UL,
 719:Model/face_landmark_ecblobs.h ****   0x008002a100000000UL, 0x0000000214007c00UL, 0x0000006414000424UL, 0x14007c0000000000UL,
 720:Model/face_landmark_ecblobs.h ****   0x14007bc440000000UL, 0x0000000000000064UL, 0x38007c0000800001UL, 0x3800042400000002UL,
 721:Model/face_landmark_ecblobs.h ****   0x0000000000000064UL, 0x4000000038007c00UL, 0x0000006438007bc4UL, 0x0080012100000000UL,
 722:Model/face_landmark_ecblobs.h ****   0x00802201000002ddUL, 0x0174104c54007c00UL, 0x00087f8054020043UL, 0x55000403029011cfUL,
 723:Model/face_landmark_ecblobs.h ****   0x0000000000000000UL, 0x0000000000000000UL, 0x0000000000000000UL, 0x0000000000000000UL,
 724:Model/face_landmark_ecblobs.h ****   0x0000000000000000UL, 0x0000000000000000UL, 0x0000000000000000UL, 0x0000000000000000UL,
 725:Model/face_landmark_ecblobs.h ****   0x0000000000000000UL, 0x00000009000000c1UL, 0x0000000900000009UL, 0x0000000900000009UL,
 726:Model/face_landmark_ecblobs.h ****   0x0000000900000009UL, 0x0000000900000009UL, 0x0000000900000009UL, 0x000000ca00000009UL,
 727:Model/face_landmark_ecblobs.h ****   0x0000000056000483UL, 0x000000000000b200UL, 0x000000000000b200UL, 0x000000000000b200UL,
 728:Model/face_landmark_ecblobs.h ****   0x000000000000b200UL, 0x000000000000b200UL, 0x000000000000b200UL, 0x000000000000b200UL,
 729:Model/face_landmark_ecblobs.h ****   0x000000000000b400UL, 0x7bf900000000b600UL, 0x0000000000008952UL, 0x0000000000007200UL,
 730:Model/face_landmark_ecblobs.h ****   0x0000000000007400UL, 0x0000000000007600UL, 0x0000000000007800UL, 0x0000000000007a00UL,
 731:Model/face_landmark_ecblobs.h ****   0x0000000000007b00UL, 0x0000000000007d00UL, 0x0080224100007f00UL, 0x080000005c000042UL,
 732:Model/face_landmark_ecblobs.h ****   0x5c027c0005000160UL, 0x5c07004300071800UL, 0x000040004e004000UL, 0x000000005c0c0043UL,
 733:Model/face_landmark_ecblobs.h ****   0x0080202110411041UL, 0x0008010018007c00UL, 0x3422400018020043UL, 0x180500c300000900UL,
 734:Model/face_landmark_ecblobs.h ****   0x0000090000000000UL, 0x0000000000000000UL, 0x0010000000000024UL, 0x00000006180c0042UL,
 735:Model/face_landmark_ecblobs.h ****   0x180d004300000007UL, 0x3423603f00000020UL, 0x0000000018110043UL, 0x0080204100000000UL,
 736:Model/face_landmark_ecblobs.h ****   0x000801001c007c00UL, 0x342360001c020043UL, 0x1c0500c300000900UL, 0x0000090000000000UL,
 737:Model/face_landmark_ecblobs.h ****   0x0000000000000000UL, 0x0010000000000024UL, 0x000000061c0c0042UL, 0x1c0d004300000007UL,
 738:Model/face_landmark_ecblobs.h ****   0x3424803f00000020UL, 0x000000001c110043UL, 0x008020e100000000UL, 0x0008000830007c00UL,
 739:Model/face_landmark_ecblobs.h ****   0x3420000030020123UL, 0x0020000100300030UL, 0x0000000100000600UL, 0x0001200000000020UL,
 740:Model/face_landmark_ecblobs.h ****   0x0010000000000024UL, 0x00000006300c0042UL, 0x300d004300000007UL, 0x3421203f00000020UL,
 741:Model/face_landmark_ecblobs.h ****   0x0000000030110043UL, 0x10007c0000000000UL, 0x1000042400000002UL, 0x0000000000000064UL,
 742:Model/face_landmark_ecblobs.h ****   0x4000000010007c00UL, 0x0000006410007bc4UL, 0x10007c0000000000UL, 0x10097c0000000001UL,
 743:Model/face_landmark_ecblobs.h ****   0x101c7c0000000025UL, 0x101e004300000003UL, 0x0000000500000021UL, 0x5400200130002001UL,
 744:Model/face_landmark_ecblobs.h ****   0x180020015c002001UL, 0x30007fe41c002001UL, 0x0000000000000064UL, 0x0000000010097c00UL,
 745:Model/face_landmark_ecblobs.h ****   0x00000000101c7c00UL, 0x00000000101e0043UL, 0x30007c0000000000UL, 0x3000042400000002UL,
 746:Model/face_landmark_ecblobs.h ****   0x0000000000000064UL, 0x4000000030007c00UL, 0x0000006430007bc4UL, 0x008000e100000000UL,
 747:Model/face_landmark_ecblobs.h ****   0x0088108254007c00UL, 0x0000006454000424UL, 0x54007c0000000000UL, 0x54007bc440881080UL,
 748:Model/face_landmark_ecblobs.h ****   0x0000000000000064UL, 0x5c007c0000800201UL, 0x5c00042408000002UL, 0x0000000000000064UL,
 749:Model/face_landmark_ecblobs.h ****   0x480000005c007c00UL, 0x000000645c007bc4UL, 0x0080024100000000UL, 0x0000000218007c00UL,
 750:Model/face_landmark_ecblobs.h ****   0x0000006418000424UL, 0x18007c0000000000UL, 0x18007bc440000000UL, 0x0000000000000064UL,
 751:Model/face_landmark_ecblobs.h ****   0x1c007c0000800021UL, 0x1c00042400000002UL, 0x0000000000000064UL, 0x400000001c007c00UL,
ARM GAS  /tmp/cc4rvpEd.s 			page 61


 752:Model/face_landmark_ecblobs.h ****   0x000000641c007bc4UL, 0x0080004100000000UL, 0x008020a1000002fdUL, 0x0088c00028007c00UL,
 753:Model/face_landmark_ecblobs.h ****   0x3420000028020123UL, 0x0020000200300030UL, 0x0000000400000600UL, 0x0001200000000008UL,
 754:Model/face_landmark_ecblobs.h ****   0x0010000000000024UL, 0x00000006280c0042UL, 0x280d004300000007UL, 0x3421203f00000008UL,
 755:Model/face_landmark_ecblobs.h ****   0x0000000028110043UL, 0x0080204100000000UL, 0x008801081c007c00UL, 0x342240001c020043UL,
 756:Model/face_landmark_ecblobs.h ****   0x1c0500c300001200UL, 0x0000240000000000UL, 0x0000000000000000UL, 0x0010000000000024UL,
 757:Model/face_landmark_ecblobs.h ****   0x000000061c0c0042UL, 0x1c0d004300000007UL, 0x3423603f00000008UL, 0x000000001c110043UL,
 758:Model/face_landmark_ecblobs.h ****   0x10007c0000000000UL, 0x1000042400000002UL, 0x0000000000000064UL, 0x4000000010007c00UL,
 759:Model/face_landmark_ecblobs.h ****   0x0000006410007bc4UL, 0x10007c0000000000UL, 0x10047c0000000001UL, 0x1c0020010000000bUL,
 760:Model/face_landmark_ecblobs.h ****   0x1c007fe428002001UL, 0x0000000000000064UL, 0x0000000010047c00UL, 0x000000021c007c00UL,
 761:Model/face_landmark_ecblobs.h ****   0x000000641c000424UL, 0x1c007c0000000000UL, 0x1c007bc440000000UL, 0x0000000000000064UL,
 762:Model/face_landmark_ecblobs.h ****   0x28007c0000800041UL, 0x2800042400000002UL, 0x0000000000000064UL, 0x4000000028007c00UL,
 763:Model/face_landmark_ecblobs.h ****   0x0000006428007bc4UL, 0x008000a100000000UL, 0x008021a10000031dUL, 0x0000005448007c00UL,
 764:Model/face_landmark_ecblobs.h ****   0x04040303480200c3UL, 0x10a3410100001155UL, 0x00bf0000003000c0UL, 0x480a7c00002f0000UL,
 765:Model/face_landmark_ecblobs.h ****   0x480c004300000000UL, 0x0000000000ffffb2UL, 0x6000004200802261UL, 0x0900006008000000UL,
 766:Model/face_landmark_ecblobs.h ****   0x0008000060027c00UL, 0x0000763760070043UL, 0x600c004300000000UL, 0x2042204200000000UL,
 767:Model/face_landmark_ecblobs.h ****   0x6400004200802281UL, 0x1500006008000000UL, 0x000a000064027c00UL, 0x0000683364070043UL,
 768:Model/face_landmark_ecblobs.h ****   0x640c00430000ffb0UL, 0x2042204200000000UL, 0x34007c0000802101UL, 0x340200430008c100UL,
 769:Model/face_landmark_ecblobs.h ****   0x0000240034224000UL, 0x00000000340500c3UL, 0x0000000100000000UL, 0x0000002400002400UL,
 770:Model/face_landmark_ecblobs.h ****   0x340c004200100000UL, 0x0000000700000006UL, 0x00000008340d0043UL, 0x341100433423603fUL,
 771:Model/face_landmark_ecblobs.h ****   0x0000000000000000UL, 0x1c007c0000802041UL, 0x1c0200430008c184UL, 0x000004807041a000UL,
 772:Model/face_landmark_ecblobs.h ****   0x000000001c0500c3UL, 0x0000000000000000UL, 0x0000002400000000UL, 0x1c0c004200100000UL,
 773:Model/face_landmark_ecblobs.h ****   0x0000000700000006UL, 0x000000011c0d0043UL, 0x1c1100437041a4bfUL, 0x0000000800000000UL,
 774:Model/face_landmark_ecblobs.h ****   0x18007c0000802021UL, 0x1802012300080008UL, 0x0030003034236000UL, 0x0000060000200004UL,
 775:Model/face_landmark_ecblobs.h ****   0x0000000800000004UL, 0x0000002400012000UL, 0x180c004200100000UL, 0x0000000700000006UL,
 776:Model/face_landmark_ecblobs.h ****   0x00000008180d0043UL, 0x181100433424803fUL, 0x0000000000000000UL, 0x0000000210007c00UL,
 777:Model/face_landmark_ecblobs.h ****   0x0000006410000424UL, 0x10007c0000000000UL, 0x10007bc440000000UL, 0x0000000000000064UL,
 778:Model/face_landmark_ecblobs.h ****   0x0000000110007c00UL, 0x0000002910037c00UL, 0x0000001110150043UL, 0x10207c0000000005UL,
 779:Model/face_landmark_ecblobs.h ****   0x10227c000000001bUL, 0x1800200100000027UL, 0x0000005548007c00UL, 0x6400200160002001UL,
 780:Model/face_landmark_ecblobs.h ****   0x340020011c002001UL, 0x0000006418007fe4UL, 0x10037c0000000000UL, 0x1015004300000000UL,
