ARM GAS  /tmp/ccxD5M1z.s 			page 1


   1              		.arch armv8.1-m.main
   2              		.fpu fpv5-d16
   3              		.arch_extension dsp
   4              		.arch_extension fp
   5              		.arch_extension fp.dp
   6              		.arch_extension mve
   7              		.arch_extension mve.fp
   8              		.eabi_attribute 5, "cortex-m55"
   9              		.eabi_attribute 28, 1
  10              		.eabi_attribute 20, 1
  11              		.eabi_attribute 21, 1
  12              		.eabi_attribute 23, 3
  13              		.eabi_attribute 24, 1
  14              		.eabi_attribute 25, 1
  15              		.eabi_attribute 26, 1
  16              		.eabi_attribute 30, 6
  17              		.eabi_attribute 34, 1
  18              		.eabi_attribute 38, 1
  19              		.eabi_attribute 18, 4
  20              		.file	"imx335.c"
  21              		.text
  22              	.Ltext0:
  23              		.cfi_sections	.debug_frame
  24              		.file 1 "Lib/Camera_Middleware/sensors/imx335/imx335.c"
  25              		.section	.rodata.res_2592_1944_regs,"a"
  26              		.align	2
  29              	res_2592_1944_regs:
  30 0000 0030     		.short	12288
  31 0002 01       		.byte	1
  32 0003 00       		.space	1
  33 0004 0230     		.short	12290
  34 0006 00       		.byte	0
  35 0007 00       		.space	1
  36 0008 0C30     		.short	12300
  37 000a 3B       		.byte	59
  38 000b 00       		.space	1
  39 000c 0D30     		.short	12301
  40 000e 2A       		.byte	42
  41 000f 00       		.space	1
  42 0010 1830     		.short	12312
  43 0012 04       		.byte	4
  44 0013 00       		.space	1
  45 0014 2C30     		.short	12332
  46 0016 3C       		.byte	60
  47 0017 00       		.space	1
  48 0018 2E30     		.short	12334
  49 001a 20       		.byte	32
  50 001b 00       		.space	1
  51 001c 5630     		.short	12374
  52 001e 98       		.byte	-104
  53 001f 00       		.space	1
  54 0020 7430     		.short	12404
  55 0022 C8       		.byte	-56
  56 0023 00       		.space	1
  57 0024 7630     		.short	12406
  58 0026 30       		.byte	48
  59 0027 00       		.space	1
ARM GAS  /tmp/ccxD5M1z.s 			page 2


  60 0028 4C30     		.short	12364
  61 002a 00       		.byte	0
  62 002b 00       		.space	1
  63 002c 4C31     		.short	12620
  64 002e C6       		.byte	-58
  65 002f 00       		.space	1
  66 0030 5A31     		.short	12634
  67 0032 02       		.byte	2
  68 0033 00       		.space	1
  69 0034 6831     		.short	12648
  70 0036 A0       		.byte	-96
  71 0037 00       		.space	1
  72 0038 6A31     		.short	12650
  73 003a 7E       		.byte	126
  74 003b 00       		.space	1
  75 003c A131     		.short	12705
  76 003e 00       		.byte	0
  77 003f 00       		.space	1
  78 0040 8832     		.short	12936
  79 0042 21       		.byte	33
  80 0043 00       		.space	1
  81 0044 8A32     		.short	12938
  82 0046 02       		.byte	2
  83 0047 00       		.space	1
  84 0048 1434     		.short	13332
  85 004a 05       		.byte	5
  86 004b 00       		.space	1
  87 004c 1634     		.short	13334
  88 004e 18       		.byte	24
  89 004f 00       		.space	1
  90 0050 4836     		.short	13896
  91 0052 01       		.byte	1
  92 0053 00       		.space	1
  93 0054 4A36     		.short	13898
  94 0056 04       		.byte	4
  95 0057 00       		.space	1
  96 0058 4C36     		.short	13900
  97 005a 04       		.byte	4
  98 005b 00       		.space	1
  99 005c 7836     		.short	13944
 100 005e 01       		.byte	1
 101 005f 00       		.space	1
 102 0060 7C36     		.short	13948
 103 0062 31       		.byte	49
 104 0063 00       		.space	1
 105 0064 7E36     		.short	13950
 106 0066 31       		.byte	49
 107 0067 00       		.space	1
 108 0068 0637     		.short	14086
 109 006a 10       		.byte	16
 110 006b 00       		.space	1
 111 006c 0837     		.short	14088
 112 006e 03       		.byte	3
 113 006f 00       		.space	1
 114 0070 1437     		.short	14100
 115 0072 02       		.byte	2
 116 0073 00       		.space	1
ARM GAS  /tmp/ccxD5M1z.s 			page 3


 117 0074 1537     		.short	14101
 118 0076 02       		.byte	2
 119 0077 00       		.space	1
 120 0078 1637     		.short	14102
 121 007a 01       		.byte	1
 122 007b 00       		.space	1
 123 007c 1737     		.short	14103
 124 007e 03       		.byte	3
 125 007f 00       		.space	1
 126 0080 1C37     		.short	14108
 127 0082 3D       		.byte	61
 128 0083 00       		.space	1
 129 0084 1D37     		.short	14109
 130 0086 3F       		.byte	63
 131 0087 00       		.space	1
 132 0088 2C37     		.short	14124
 133 008a 00       		.byte	0
 134 008b 00       		.space	1
 135 008c 2D37     		.short	14125
 136 008e 00       		.byte	0
 137 008f 00       		.space	1
 138 0090 2E37     		.short	14126
 139 0092 46       		.byte	70
 140 0093 00       		.space	1
 141 0094 2F37     		.short	14127
 142 0096 00       		.byte	0
 143 0097 00       		.space	1
 144 0098 3037     		.short	14128
 145 009a 89       		.byte	-119
 146 009b 00       		.space	1
 147 009c 3137     		.short	14129
 148 009e 00       		.byte	0
 149 009f 00       		.space	1
 150 00a0 3237     		.short	14130
 151 00a2 08       		.byte	8
 152 00a3 00       		.space	1
 153 00a4 3337     		.short	14131
 154 00a6 01       		.byte	1
 155 00a7 00       		.space	1
 156 00a8 3437     		.short	14132
 157 00aa FE       		.byte	-2
 158 00ab 00       		.space	1
 159 00ac 3537     		.short	14133
 160 00ae 05       		.byte	5
 161 00af 00       		.space	1
 162 00b0 4037     		.short	14144
 163 00b2 02       		.byte	2
 164 00b3 00       		.space	1
 165 00b4 5D37     		.short	14173
 166 00b6 00       		.byte	0
 167 00b7 00       		.space	1
 168 00b8 5E37     		.short	14174
 169 00ba 00       		.byte	0
 170 00bb 00       		.space	1
 171 00bc 5F37     		.short	14175
 172 00be 11       		.byte	17
 173 00bf 00       		.space	1
ARM GAS  /tmp/ccxD5M1z.s 			page 4


 174 00c0 6037     		.short	14176
 175 00c2 01       		.byte	1
 176 00c3 00       		.space	1
 177 00c4 6837     		.short	14184
 178 00c6 1B       		.byte	27
 179 00c7 00       		.space	1
 180 00c8 6937     		.short	14185
 181 00ca 1B       		.byte	27
 182 00cb 00       		.space	1
 183 00cc 6A37     		.short	14186
 184 00ce 1B       		.byte	27
 185 00cf 00       		.space	1
 186 00d0 6B37     		.short	14187
 187 00d2 1B       		.byte	27
 188 00d3 00       		.space	1
 189 00d4 6C37     		.short	14188
 190 00d6 1A       		.byte	26
 191 00d7 00       		.space	1
 192 00d8 6D37     		.short	14189
 193 00da 17       		.byte	23
 194 00db 00       		.space	1
 195 00dc 6E37     		.short	14190
 196 00de 0F       		.byte	15
 197 00df 00       		.space	1
 198 00e0 7637     		.short	14198
 199 00e2 00       		.byte	0
 200 00e3 00       		.space	1
 201 00e4 7737     		.short	14199
 202 00e6 00       		.byte	0
 203 00e7 00       		.space	1
 204 00e8 7837     		.short	14200
 205 00ea 46       		.byte	70
 206 00eb 00       		.space	1
 207 00ec 7937     		.short	14201
 208 00ee 00       		.byte	0
 209 00ef 00       		.space	1
 210 00f0 7A37     		.short	14202
 211 00f2 89       		.byte	-119
 212 00f3 00       		.space	1
 213 00f4 7B37     		.short	14203
 214 00f6 00       		.byte	0
 215 00f7 00       		.space	1
 216 00f8 7C37     		.short	14204
 217 00fa 08       		.byte	8
 218 00fb 00       		.space	1
 219 00fc 7D37     		.short	14205
 220 00fe 01       		.byte	1
 221 00ff 00       		.space	1
 222 0100 7E37     		.short	14206
 223 0102 23       		.byte	35
 224 0103 00       		.space	1
 225 0104 7F37     		.short	14207
 226 0106 02       		.byte	2
 227 0107 00       		.space	1
 228 0108 8037     		.short	14208
 229 010a D9       		.byte	-39
 230 010b 00       		.space	1
ARM GAS  /tmp/ccxD5M1z.s 			page 5


 231 010c 8137     		.short	14209
 232 010e 03       		.byte	3
 233 010f 00       		.space	1
 234 0110 8237     		.short	14210
 235 0112 F5       		.byte	-11
 236 0113 00       		.space	1
 237 0114 8337     		.short	14211
 238 0116 06       		.byte	6
 239 0117 00       		.space	1
 240 0118 8437     		.short	14212
 241 011a A5       		.byte	-91
 242 011b 00       		.space	1
 243 011c 8837     		.short	14216
 244 011e 0F       		.byte	15
 245 011f 00       		.space	1
 246 0120 8A37     		.short	14218
 247 0122 D9       		.byte	-39
 248 0123 00       		.space	1
 249 0124 8B37     		.short	14219
 250 0126 03       		.byte	3
 251 0127 00       		.space	1
 252 0128 8C37     		.short	14220
 253 012a EB       		.byte	-21
 254 012b 00       		.space	1
 255 012c 8D37     		.short	14221
 256 012e 05       		.byte	5
 257 012f 00       		.space	1
 258 0130 8E37     		.short	14222
 259 0132 87       		.byte	-121
 260 0133 00       		.space	1
 261 0134 8F37     		.short	14223
 262 0136 06       		.byte	6
 263 0137 00       		.space	1
 264 0138 9037     		.short	14224
 265 013a F5       		.byte	-11
 266 013b 00       		.space	1
 267 013c 9237     		.short	14226
 268 013e 43       		.byte	67
 269 013f 00       		.space	1
 270 0140 9437     		.short	14228
 271 0142 7A       		.byte	122
 272 0143 00       		.space	1
 273 0144 9637     		.short	14230
 274 0146 A1       		.byte	-95
 275 0147 00       		.space	1
 276 0148 B037     		.short	14256
 277 014a 36       		.byte	54
 278 014b 00       		.space	1
 279 014c 003A     		.short	14848
 280 014e 01       		.byte	1
 281 014f 00       		.space	1
 282              		.section	.rodata.mode_2l_10b_regs,"a"
 283              		.align	2
 286              	mode_2l_10b_regs:
 287 0000 5030     		.short	12368
 288 0002 00       		.byte	0
 289 0003 00       		.space	1
ARM GAS  /tmp/ccxD5M1z.s 			page 6


 290 0004 9D31     		.short	12701
 291 0006 00       		.byte	0
 292 0007 00       		.space	1
 293 0008 1C34     		.short	13340
 294 000a FF       		.byte	-1
 295 000b 00       		.space	1
 296 000c 1D34     		.short	13341
 297 000e 01       		.byte	1
 298 000f 00       		.space	1
 299 0010 013A     		.short	14849
 300 0012 01       		.byte	1
 301 0013 00       		.space	1
 302              		.section	.rodata.inck_74Mhz_regs,"a"
 303              		.align	2
 306              	inck_74Mhz_regs:
 307 0000 0C30     		.short	12300
 308 0002 B6       		.byte	-74
 309 0003 00       		.space	1
 310 0004 0D30     		.short	12301
 311 0006 7F       		.byte	127
 312 0007 00       		.space	1
 313 0008 4C31     		.short	12620
 314 000a 80       		.byte	-128
 315 000b 00       		.space	1
 316 000c 4D31     		.short	12621
 317 000e 00       		.byte	0
 318 000f 00       		.space	1
 319 0010 5A31     		.short	12634
 320 0012 03       		.byte	3
 321 0013 00       		.space	1
 322 0014 6831     		.short	12648
 323 0016 68       		.byte	104
 324 0017 00       		.space	1
 325 0018 6A31     		.short	12650
 326 001a 7F       		.byte	127
 327 001b 00       		.space	1
 328              		.section	.rodata.inck_27Mhz_regs,"a"
 329              		.align	2
 332              	inck_27Mhz_regs:
 333 0000 0C30     		.short	12300
 334 0002 42       		.byte	66
 335 0003 00       		.space	1
 336 0004 0D30     		.short	12301
 337 0006 2E       		.byte	46
 338 0007 00       		.space	1
 339 0008 4C31     		.short	12620
 340 000a B0       		.byte	-80
 341 000b 00       		.space	1
 342 000c 4D31     		.short	12621
 343 000e 00       		.byte	0
 344 000f 00       		.space	1
 345 0010 5A31     		.short	12634
 346 0012 02       		.byte	2
 347 0013 00       		.space	1
 348 0014 6831     		.short	12648
 349 0016 8F       		.byte	-113
 350 0017 00       		.space	1
ARM GAS  /tmp/ccxD5M1z.s 			page 7


 351 0018 6A31     		.short	12650
 352 001a 7E       		.byte	126
 353 001b 00       		.space	1
 354              		.section	.rodata.inck_24Mhz_regs,"a"
 355              		.align	2
 358              	inck_24Mhz_regs:
 359 0000 0C30     		.short	12300
 360 0002 3B       		.byte	59
 361 0003 00       		.space	1
 362 0004 0D30     		.short	12301
 363 0006 2A       		.byte	42
 364 0007 00       		.space	1
 365 0008 4C31     		.short	12620
 366 000a C6       		.byte	-58
 367 000b 00       		.space	1
 368 000c 4D31     		.short	12621
 369 000e 00       		.byte	0
 370 000f 00       		.space	1
 371 0010 5A31     		.short	12634
 372 0012 02       		.byte	2
 373 0013 00       		.space	1
 374 0014 6831     		.short	12648
 375 0016 A0       		.byte	-96
 376 0017 00       		.space	1
 377 0018 6A31     		.short	12650
 378 001a 7E       		.byte	126
 379 001b 00       		.space	1
 380              		.section	.rodata.inck_18Mhz_regs,"a"
 381              		.align	2
 384              	inck_18Mhz_regs:
 385 0000 0C30     		.short	12300
 386 0002 2D       		.byte	45
 387 0003 00       		.space	1
 388 0004 0D30     		.short	12301
 389 0006 1F       		.byte	31
 390 0007 00       		.space	1
 391 0008 4C31     		.short	12620
 392 000a 84       		.byte	-124
 393 000b 00       		.space	1
 394 000c 4D31     		.short	12621
 395 000e 00       		.byte	0
 396 000f 00       		.space	1
 397 0010 5A31     		.short	12634
 398 0012 01       		.byte	1
 399 0013 00       		.space	1
 400 0014 6831     		.short	12648
 401 0016 6B       		.byte	107
 402 0017 00       		.space	1
 403 0018 6A31     		.short	12650
 404 001a 7D       		.byte	125
 405 001b 00       		.space	1
 406              		.section	.rodata.inck_6Mhz_regs,"a"
 407              		.align	2
 410              	inck_6Mhz_regs:
 411 0000 0C30     		.short	12300
 412 0002 0F       		.byte	15
 413 0003 00       		.space	1
ARM GAS  /tmp/ccxD5M1z.s 			page 8


 414 0004 0D30     		.short	12301
 415 0006 0B       		.byte	11
 416 0007 00       		.space	1
 417 0008 4C31     		.short	12620
 418 000a C6       		.byte	-58
 419 000b 00       		.space	1
 420 000c 4D31     		.short	12621
 421 000e 00       		.byte	0
 422 000f 00       		.space	1
 423 0010 5A31     		.short	12634
 424 0012 00       		.byte	0
 425 0013 00       		.space	1
 426 0014 6831     		.short	12648
 427 0016 A0       		.byte	-96
 428 0017 00       		.space	1
 429 0018 6A31     		.short	12650
 430 001a 7C       		.byte	124
 431 001b 00       		.space	1
 432              		.section	.rodata.framerate_10fps_regs,"a"
 433              		.align	2
 436              	framerate_10fps_regs:
 437 0000 3030     		.short	12336
 438 0002 C0       		.byte	-64
 439 0003 00       		.space	1
 440 0004 3130     		.short	12337
 441 0006 34       		.byte	52
 442 0007 00       		.space	1
 443              		.section	.rodata.framerate_15fps_regs,"a"
 444              		.align	2
 447              	framerate_15fps_regs:
 448 0000 3030     		.short	12336
 449 0002 2A       		.byte	42
 450 0003 00       		.space	1
 451 0004 3130     		.short	12337
 452 0006 23       		.byte	35
 453 0007 00       		.space	1
 454              		.section	.rodata.framerate_20fps_regs,"a"
 455              		.align	2
 458              	framerate_20fps_regs:
 459 0000 3030     		.short	12336
 460 0002 60       		.byte	96
 461 0003 00       		.space	1
 462 0004 3130     		.short	12337
 463 0006 1A       		.byte	26
 464 0007 00       		.space	1
 465              		.section	.rodata.framerate_25fps_regs,"a"
 466              		.align	2
 469              	framerate_25fps_regs:
 470 0000 3030     		.short	12336
 471 0002 1A       		.byte	26
 472 0003 00       		.space	1
 473 0004 3130     		.short	12337
 474 0006 15       		.byte	21
 475 0007 00       		.space	1
 476              		.section	.rodata.framerate_30fps_regs,"a"
 477              		.align	2
 480              	framerate_30fps_regs:
ARM GAS  /tmp/ccxD5M1z.s 			page 9


 481 0000 3030     		.short	12336
 482 0002 94       		.byte	-108
 483 0003 00       		.space	1
 484 0004 3130     		.short	12337
 485 0006 11       		.byte	17
 486 0007 00       		.space	1
 487              		.section	.rodata.mirrorflip_mode_regs,"a"
 488              		.align	2
 491              	mirrorflip_mode_regs:
 492 0000 7430     		.short	12404
 493 0002 C8       		.byte	-56
 494 0003 00       		.space	1
 495 0004 7530     		.short	12405
 496 0006 00       		.byte	0
 497 0007 00       		.space	1
 498 0008 4E30     		.short	12366
 499 000a 00       		.byte	0
 500 000b 00       		.space	1
 501 000c 4F30     		.short	12367
 502 000e 00       		.byte	0
 503 000f 00       		.space	1
 504 0010 8130     		.short	12417
 505 0012 02       		.byte	2
 506 0013 00       		.space	1
 507 0014 8330     		.short	12419
 508 0016 02       		.byte	2
 509 0017 00       		.space	1
 510 0018 B630     		.short	12470
 511 001a 00       		.byte	0
 512 001b 00       		.space	1
 513 001c B730     		.short	12471
 514 001e 00       		.byte	0
 515 001f 00       		.space	1
 516 0020 1631     		.short	12566
 517 0022 08       		.byte	8
 518 0023 00       		.space	1
 519 0024 1731     		.short	12567
 520 0026 00       		.byte	0
 521 0027 00       		.space	1
 522 0028 7430     		.short	12404
 523 002a F8       		.byte	-8
 524 002b 00       		.space	1
 525 002c 7530     		.short	12405
 526 002e 0F       		.byte	15
 527 002f 00       		.space	1
 528 0030 4E30     		.short	12366
 529 0032 00       		.byte	0
 530 0033 00       		.space	1
 531 0034 4F30     		.short	12367
 532 0036 01       		.byte	1
 533 0037 00       		.space	1
 534 0038 8130     		.short	12417
 535 003a FE       		.byte	-2
 536 003b 00       		.space	1
 537 003c 8330     		.short	12419
 538 003e FE       		.byte	-2
 539 003f 00       		.space	1
ARM GAS  /tmp/ccxD5M1z.s 			page 10


 540 0040 B630     		.short	12470
 541 0042 FA       		.byte	-6
 542 0043 00       		.space	1
 543 0044 B730     		.short	12471
 544 0046 01       		.byte	1
 545 0047 00       		.space	1
 546 0048 1631     		.short	12566
 547 004a 02       		.byte	2
 548 004b 00       		.space	1
 549 004c 1731     		.short	12567
 550 004e 00       		.byte	0
 551 004f 00       		.space	1
 552 0050 7430     		.short	12404
 553 0052 C8       		.byte	-56
 554 0053 00       		.space	1
 555 0054 7530     		.short	12405
 556 0056 00       		.byte	0
 557 0057 00       		.space	1
 558 0058 4E30     		.short	12366
 559 005a 01       		.byte	1
 560 005b 00       		.space	1
 561 005c 4F30     		.short	12367
 562 005e 00       		.byte	0
 563 005f 00       		.space	1
 564 0060 8130     		.short	12417
 565 0062 02       		.byte	2
 566 0063 00       		.space	1
 567 0064 8330     		.short	12419
 568 0066 02       		.byte	2
 569 0067 00       		.space	1
 570 0068 B630     		.short	12470
 571 006a 00       		.byte	0
 572 006b 00       		.space	1
 573 006c B730     		.short	12471
 574 006e 00       		.byte	0
 575 006f 00       		.space	1
 576 0070 1631     		.short	12566
 577 0072 08       		.byte	8
 578 0073 00       		.space	1
 579 0074 1731     		.short	12567
 580 0076 00       		.byte	0
 581 0077 00       		.space	1
 582 0078 7430     		.short	12404
 583 007a F8       		.byte	-8
 584 007b 00       		.space	1
 585 007c 7530     		.short	12405
 586 007e 0F       		.byte	15
 587 007f 00       		.space	1
 588 0080 4E30     		.short	12366
 589 0082 01       		.byte	1
 590 0083 00       		.space	1
 591 0084 4F30     		.short	12367
 592 0086 01       		.byte	1
 593 0087 00       		.space	1
 594 0088 8130     		.short	12417
 595 008a FE       		.byte	-2
 596 008b 00       		.space	1
ARM GAS  /tmp/ccxD5M1z.s 			page 11


 597 008c 8330     		.short	12419
 598 008e FE       		.byte	-2
 599 008f 00       		.space	1
 600 0090 B630     		.short	12470
 601 0092 FA       		.byte	-6
 602 0093 00       		.space	1
 603 0094 B730     		.short	12471
 604 0096 01       		.byte	1
 605 0097 00       		.space	1
 606 0098 1631     		.short	12566
 607 009a 02       		.byte	2
 608 009b 00       		.space	1
 609 009c 1731     		.short	12567
 610 009e 00       		.byte	0
 611 009f 00       		.space	1
 612              		.section	.rodata.test_pattern_enable_regs,"a"
 613              		.align	2
 616              	test_pattern_enable_regs:
 617 0000 4831     		.short	12616
 618 0002 10       		.byte	16
 619 0003 00       		.space	1
 620 0004 8032     		.short	12928
 621 0006 00       		.byte	0
 622 0007 00       		.space	1
 623 0008 9C32     		.short	12956
 624 000a 01       		.byte	1
 625 000b 00       		.space	1
 626 000c A032     		.short	12960
 627 000e 11       		.byte	17
 628 000f 00       		.space	1
 629 0010 0233     		.short	13058
 630 0012 00       		.byte	0
 631 0013 00       		.space	1
 632 0014 0333     		.short	13059
 633 0016 00       		.byte	0
 634 0017 00       		.space	1
 635 0018 6C33     		.short	13164
 636 001a 00       		.byte	0
 637 001b 00       		.space	1
 638              		.section	.rodata.test_pattern_disable_regs,"a"
 639              		.align	2
 642              	test_pattern_disable_regs:
 643 0000 4831     		.short	12616
 644 0002 00       		.byte	0
 645 0003 00       		.space	1
 646 0004 8032     		.short	12928
 647 0006 01       		.byte	1
 648 0007 00       		.space	1
 649 0008 9C32     		.short	12956
 650 000a 00       		.byte	0
 651 000b 00       		.space	1
 652 000c A032     		.short	12960
 653 000e 10       		.byte	16
 654 000f 00       		.space	1
 655 0010 0233     		.short	13058
 656 0012 32       		.byte	50
 657 0013 00       		.space	1
ARM GAS  /tmp/ccxD5M1z.s 			page 12


 658 0014 0333     		.short	13059
 659 0016 00       		.byte	0
 660 0017 00       		.space	1
 661 0018 6C33     		.short	13164
 662 001a 01       		.byte	1
 663 001b 00       		.space	1
 664              		.section	.text.IMX335_WriteTable,"ax",%progbits
 665              		.align	1
 666              		.syntax unified
 667              		.thumb
 668              		.thumb_func
 670              	IMX335_WriteTable:
 671              	.LFB141:
   1:Lib/Camera_Middleware/sensors/imx335/imx335.c **** /**
   2:Lib/Camera_Middleware/sensors/imx335/imx335.c ****   ******************************************************************************
   3:Lib/Camera_Middleware/sensors/imx335/imx335.c ****   * @file    imx335.c
   4:Lib/Camera_Middleware/sensors/imx335/imx335.c ****   * @author  MCD Application Team
   5:Lib/Camera_Middleware/sensors/imx335/imx335.c ****   * @brief   This file provides the IMX335 camera driver
   6:Lib/Camera_Middleware/sensors/imx335/imx335.c ****   ******************************************************************************
   7:Lib/Camera_Middleware/sensors/imx335/imx335.c ****   * @attention
   8:Lib/Camera_Middleware/sensors/imx335/imx335.c ****   *
   9:Lib/Camera_Middleware/sensors/imx335/imx335.c ****   * Copyright (c) 2022 STMicroelectronics.
  10:Lib/Camera_Middleware/sensors/imx335/imx335.c ****   * All rights reserved.
  11:Lib/Camera_Middleware/sensors/imx335/imx335.c ****   *
  12:Lib/Camera_Middleware/sensors/imx335/imx335.c ****   * This software is licensed under terms that can be found in the LICENSE file
  13:Lib/Camera_Middleware/sensors/imx335/imx335.c ****   * in the root directory of this software component.
  14:Lib/Camera_Middleware/sensors/imx335/imx335.c ****   * If no LICENSE file comes with this software, it is provided AS-IS.
  15:Lib/Camera_Middleware/sensors/imx335/imx335.c ****   *
  16:Lib/Camera_Middleware/sensors/imx335/imx335.c ****   ******************************************************************************
  17:Lib/Camera_Middleware/sensors/imx335/imx335.c ****   */
  18:Lib/Camera_Middleware/sensors/imx335/imx335.c **** 
  19:Lib/Camera_Middleware/sensors/imx335/imx335.c **** /* Includes ------------------------------------------------------------------*/
  20:Lib/Camera_Middleware/sensors/imx335/imx335.c **** #include "imx335.h"
  21:Lib/Camera_Middleware/sensors/imx335/imx335.c **** #include <string.h>
  22:Lib/Camera_Middleware/sensors/imx335/imx335.c **** 
  23:Lib/Camera_Middleware/sensors/imx335/imx335.c **** /** @addtogroup BSP
  24:Lib/Camera_Middleware/sensors/imx335/imx335.c ****   * @{
  25:Lib/Camera_Middleware/sensors/imx335/imx335.c ****   */
  26:Lib/Camera_Middleware/sensors/imx335/imx335.c **** 
  27:Lib/Camera_Middleware/sensors/imx335/imx335.c **** /** @addtogroup Components
  28:Lib/Camera_Middleware/sensors/imx335/imx335.c ****   * @{
  29:Lib/Camera_Middleware/sensors/imx335/imx335.c ****   */
  30:Lib/Camera_Middleware/sensors/imx335/imx335.c **** 
  31:Lib/Camera_Middleware/sensors/imx335/imx335.c **** /** @addtogroup IMX335
  32:Lib/Camera_Middleware/sensors/imx335/imx335.c ****   * @brief     This file provides a set of functions needed to drive the
  33:Lib/Camera_Middleware/sensors/imx335/imx335.c ****   *            IMX335 Camera module.
  34:Lib/Camera_Middleware/sensors/imx335/imx335.c ****   * @{
  35:Lib/Camera_Middleware/sensors/imx335/imx335.c ****   */
  36:Lib/Camera_Middleware/sensors/imx335/imx335.c **** 
  37:Lib/Camera_Middleware/sensors/imx335/imx335.c **** /** @defgroup IMX335_Private_TypesDefinitions Private Types definition
  38:Lib/Camera_Middleware/sensors/imx335/imx335.c ****   * @{
  39:Lib/Camera_Middleware/sensors/imx335/imx335.c ****   */
  40:Lib/Camera_Middleware/sensors/imx335/imx335.c **** #define ARRAY_SIZE(arr) (sizeof(arr) / sizeof((arr)[0]))
  41:Lib/Camera_Middleware/sensors/imx335/imx335.c **** 
  42:Lib/Camera_Middleware/sensors/imx335/imx335.c **** /** @defgroup IMX335_Private_Constants Private Constants
  43:Lib/Camera_Middleware/sensors/imx335/imx335.c ****   * @{
  44:Lib/Camera_Middleware/sensors/imx335/imx335.c ****   */
ARM GAS  /tmp/ccxD5M1z.s 			page 13


  45:Lib/Camera_Middleware/sensors/imx335/imx335.c **** struct regval {
  46:Lib/Camera_Middleware/sensors/imx335/imx335.c ****   uint16_t addr;
  47:Lib/Camera_Middleware/sensors/imx335/imx335.c ****   uint8_t val;
  48:Lib/Camera_Middleware/sensors/imx335/imx335.c **** };
  49:Lib/Camera_Middleware/sensors/imx335/imx335.c **** 
  50:Lib/Camera_Middleware/sensors/imx335/imx335.c **** static const struct regval res_2592_1944_regs[] = {
  51:Lib/Camera_Middleware/sensors/imx335/imx335.c ****   {0x3000, 0x01},
  52:Lib/Camera_Middleware/sensors/imx335/imx335.c ****   {0x3002, 0x00},
  53:Lib/Camera_Middleware/sensors/imx335/imx335.c ****   {0x300c, 0x3b},
  54:Lib/Camera_Middleware/sensors/imx335/imx335.c ****   {0x300d, 0x2a},
  55:Lib/Camera_Middleware/sensors/imx335/imx335.c ****   {0x3018, 0x04},
  56:Lib/Camera_Middleware/sensors/imx335/imx335.c ****   {0x302c, 0x3c},
  57:Lib/Camera_Middleware/sensors/imx335/imx335.c ****   {0x302e, 0x20},
  58:Lib/Camera_Middleware/sensors/imx335/imx335.c ****   {0x3056, 0x98},
  59:Lib/Camera_Middleware/sensors/imx335/imx335.c ****   {0x3074, 0xc8},
  60:Lib/Camera_Middleware/sensors/imx335/imx335.c ****   {0x3076, 0x30},
  61:Lib/Camera_Middleware/sensors/imx335/imx335.c ****   {0x304c, 0x00},
  62:Lib/Camera_Middleware/sensors/imx335/imx335.c ****   {0x314c, 0xc6},
  63:Lib/Camera_Middleware/sensors/imx335/imx335.c ****   {0x315a, 0x02},
  64:Lib/Camera_Middleware/sensors/imx335/imx335.c ****   {0x3168, 0xa0},
  65:Lib/Camera_Middleware/sensors/imx335/imx335.c ****   {0x316a, 0x7e},
  66:Lib/Camera_Middleware/sensors/imx335/imx335.c ****   {0x31a1, 0x00},
  67:Lib/Camera_Middleware/sensors/imx335/imx335.c ****   {0x3288, 0x21},
  68:Lib/Camera_Middleware/sensors/imx335/imx335.c ****   {0x328a, 0x02},
  69:Lib/Camera_Middleware/sensors/imx335/imx335.c ****   {0x3414, 0x05},
  70:Lib/Camera_Middleware/sensors/imx335/imx335.c ****   {0x3416, 0x18},
  71:Lib/Camera_Middleware/sensors/imx335/imx335.c ****   {0x3648, 0x01},
  72:Lib/Camera_Middleware/sensors/imx335/imx335.c ****   {0x364a, 0x04},
  73:Lib/Camera_Middleware/sensors/imx335/imx335.c ****   {0x364c, 0x04},
  74:Lib/Camera_Middleware/sensors/imx335/imx335.c ****   {0x3678, 0x01},
  75:Lib/Camera_Middleware/sensors/imx335/imx335.c ****   {0x367c, 0x31},
  76:Lib/Camera_Middleware/sensors/imx335/imx335.c ****   {0x367e, 0x31},
  77:Lib/Camera_Middleware/sensors/imx335/imx335.c ****   {0x3706, 0x10},
  78:Lib/Camera_Middleware/sensors/imx335/imx335.c ****   {0x3708, 0x03},
  79:Lib/Camera_Middleware/sensors/imx335/imx335.c ****   {0x3714, 0x02},
  80:Lib/Camera_Middleware/sensors/imx335/imx335.c ****   {0x3715, 0x02},
  81:Lib/Camera_Middleware/sensors/imx335/imx335.c ****   {0x3716, 0x01},
  82:Lib/Camera_Middleware/sensors/imx335/imx335.c ****   {0x3717, 0x03},
  83:Lib/Camera_Middleware/sensors/imx335/imx335.c ****   {0x371c, 0x3d},
  84:Lib/Camera_Middleware/sensors/imx335/imx335.c ****   {0x371d, 0x3f},
  85:Lib/Camera_Middleware/sensors/imx335/imx335.c ****   {0x372c, 0x00},
  86:Lib/Camera_Middleware/sensors/imx335/imx335.c ****   {0x372d, 0x00},
  87:Lib/Camera_Middleware/sensors/imx335/imx335.c ****   {0x372e, 0x46},
  88:Lib/Camera_Middleware/sensors/imx335/imx335.c ****   {0x372f, 0x00},
  89:Lib/Camera_Middleware/sensors/imx335/imx335.c ****   {0x3730, 0x89},
  90:Lib/Camera_Middleware/sensors/imx335/imx335.c ****   {0x3731, 0x00},
  91:Lib/Camera_Middleware/sensors/imx335/imx335.c ****   {0x3732, 0x08},
  92:Lib/Camera_Middleware/sensors/imx335/imx335.c ****   {0x3733, 0x01},
  93:Lib/Camera_Middleware/sensors/imx335/imx335.c ****   {0x3734, 0xfe},
  94:Lib/Camera_Middleware/sensors/imx335/imx335.c ****   {0x3735, 0x05},
  95:Lib/Camera_Middleware/sensors/imx335/imx335.c ****   {0x3740, 0x02},
  96:Lib/Camera_Middleware/sensors/imx335/imx335.c ****   {0x375d, 0x00},
  97:Lib/Camera_Middleware/sensors/imx335/imx335.c ****   {0x375e, 0x00},
  98:Lib/Camera_Middleware/sensors/imx335/imx335.c ****   {0x375f, 0x11},
  99:Lib/Camera_Middleware/sensors/imx335/imx335.c ****   {0x3760, 0x01},
 100:Lib/Camera_Middleware/sensors/imx335/imx335.c ****   {0x3768, 0x1b},
 101:Lib/Camera_Middleware/sensors/imx335/imx335.c ****   {0x3769, 0x1b},
ARM GAS  /tmp/ccxD5M1z.s 			page 14


 102:Lib/Camera_Middleware/sensors/imx335/imx335.c ****   {0x376a, 0x1b},
 103:Lib/Camera_Middleware/sensors/imx335/imx335.c ****   {0x376b, 0x1b},
 104:Lib/Camera_Middleware/sensors/imx335/imx335.c ****   {0x376c, 0x1a},
 105:Lib/Camera_Middleware/sensors/imx335/imx335.c ****   {0x376d, 0x17},
 106:Lib/Camera_Middleware/sensors/imx335/imx335.c ****   {0x376e, 0x0f},
 107:Lib/Camera_Middleware/sensors/imx335/imx335.c ****   {0x3776, 0x00},
 108:Lib/Camera_Middleware/sensors/imx335/imx335.c ****   {0x3777, 0x00},
 109:Lib/Camera_Middleware/sensors/imx335/imx335.c ****   {0x3778, 0x46},
 110:Lib/Camera_Middleware/sensors/imx335/imx335.c ****   {0x3779, 0x00},
 111:Lib/Camera_Middleware/sensors/imx335/imx335.c ****   {0x377a, 0x89},
 112:Lib/Camera_Middleware/sensors/imx335/imx335.c ****   {0x377b, 0x00},
 113:Lib/Camera_Middleware/sensors/imx335/imx335.c ****   {0x377c, 0x08},
 114:Lib/Camera_Middleware/sensors/imx335/imx335.c ****   {0x377d, 0x01},
 115:Lib/Camera_Middleware/sensors/imx335/imx335.c ****   {0x377e, 0x23},
 116:Lib/Camera_Middleware/sensors/imx335/imx335.c ****   {0x377f, 0x02},
 117:Lib/Camera_Middleware/sensors/imx335/imx335.c ****   {0x3780, 0xd9},
 118:Lib/Camera_Middleware/sensors/imx335/imx335.c ****   {0x3781, 0x03},
 119:Lib/Camera_Middleware/sensors/imx335/imx335.c ****   {0x3782, 0xf5},
 120:Lib/Camera_Middleware/sensors/imx335/imx335.c ****   {0x3783, 0x06},
 121:Lib/Camera_Middleware/sensors/imx335/imx335.c ****   {0x3784, 0xa5},
 122:Lib/Camera_Middleware/sensors/imx335/imx335.c ****   {0x3788, 0x0f},
 123:Lib/Camera_Middleware/sensors/imx335/imx335.c ****   {0x378a, 0xd9},
 124:Lib/Camera_Middleware/sensors/imx335/imx335.c ****   {0x378b, 0x03},
 125:Lib/Camera_Middleware/sensors/imx335/imx335.c ****   {0x378c, 0xeb},
 126:Lib/Camera_Middleware/sensors/imx335/imx335.c ****   {0x378d, 0x05},
 127:Lib/Camera_Middleware/sensors/imx335/imx335.c ****   {0x378e, 0x87},
 128:Lib/Camera_Middleware/sensors/imx335/imx335.c ****   {0x378f, 0x06},
 129:Lib/Camera_Middleware/sensors/imx335/imx335.c ****   {0x3790, 0xf5},
 130:Lib/Camera_Middleware/sensors/imx335/imx335.c ****   {0x3792, 0x43},
 131:Lib/Camera_Middleware/sensors/imx335/imx335.c ****   {0x3794, 0x7a},
 132:Lib/Camera_Middleware/sensors/imx335/imx335.c ****   {0x3796, 0xa1},
 133:Lib/Camera_Middleware/sensors/imx335/imx335.c ****   {0x37b0, 0x36},
 134:Lib/Camera_Middleware/sensors/imx335/imx335.c ****   {0x3a00, 0x01},
 135:Lib/Camera_Middleware/sensors/imx335/imx335.c **** };
 136:Lib/Camera_Middleware/sensors/imx335/imx335.c **** 
 137:Lib/Camera_Middleware/sensors/imx335/imx335.c **** static const struct regval mode_2l_10b_regs[] = {
 138:Lib/Camera_Middleware/sensors/imx335/imx335.c ****   {0x3050, 0x00},
 139:Lib/Camera_Middleware/sensors/imx335/imx335.c ****   {0x319D, 0x00},
 140:Lib/Camera_Middleware/sensors/imx335/imx335.c ****   {0x341c, 0xff},
 141:Lib/Camera_Middleware/sensors/imx335/imx335.c ****   {0x341d, 0x01},
 142:Lib/Camera_Middleware/sensors/imx335/imx335.c ****   {0x3a01, 0x01},
 143:Lib/Camera_Middleware/sensors/imx335/imx335.c **** };
 144:Lib/Camera_Middleware/sensors/imx335/imx335.c **** 
 145:Lib/Camera_Middleware/sensors/imx335/imx335.c **** static const struct regval inck_74Mhz_regs[] = {
 146:Lib/Camera_Middleware/sensors/imx335/imx335.c ****   {0x300c, 0xB6},
 147:Lib/Camera_Middleware/sensors/imx335/imx335.c ****   {0x300d, 0x7F},
 148:Lib/Camera_Middleware/sensors/imx335/imx335.c ****   {0x314c, 0x80},
 149:Lib/Camera_Middleware/sensors/imx335/imx335.c ****   {0x314d, 0x00},
 150:Lib/Camera_Middleware/sensors/imx335/imx335.c ****   {0x315a, 0x03},
 151:Lib/Camera_Middleware/sensors/imx335/imx335.c ****   {0x3168, 0x68},
 152:Lib/Camera_Middleware/sensors/imx335/imx335.c ****   {0x316a, 0x7F},
 153:Lib/Camera_Middleware/sensors/imx335/imx335.c **** };
 154:Lib/Camera_Middleware/sensors/imx335/imx335.c **** 
 155:Lib/Camera_Middleware/sensors/imx335/imx335.c **** static const struct regval inck_27Mhz_regs[] = {
 156:Lib/Camera_Middleware/sensors/imx335/imx335.c ****   {0x300c, 0x42},
 157:Lib/Camera_Middleware/sensors/imx335/imx335.c ****   {0x300d, 0x2E},
 158:Lib/Camera_Middleware/sensors/imx335/imx335.c ****   {0x314c, 0xB0},
ARM GAS  /tmp/ccxD5M1z.s 			page 15


 159:Lib/Camera_Middleware/sensors/imx335/imx335.c ****   {0x314d, 0x00},
 160:Lib/Camera_Middleware/sensors/imx335/imx335.c ****   {0x315a, 0x02},
 161:Lib/Camera_Middleware/sensors/imx335/imx335.c ****   {0x3168, 0x8F},
 162:Lib/Camera_Middleware/sensors/imx335/imx335.c ****   {0x316a, 0x7E},
 163:Lib/Camera_Middleware/sensors/imx335/imx335.c **** };
 164:Lib/Camera_Middleware/sensors/imx335/imx335.c **** 
 165:Lib/Camera_Middleware/sensors/imx335/imx335.c **** static const struct regval inck_24Mhz_regs[] = {
 166:Lib/Camera_Middleware/sensors/imx335/imx335.c ****   {0x300c, 0x3B},
 167:Lib/Camera_Middleware/sensors/imx335/imx335.c ****   {0x300d, 0x2A},
 168:Lib/Camera_Middleware/sensors/imx335/imx335.c ****   {0x314c, 0xC6},
 169:Lib/Camera_Middleware/sensors/imx335/imx335.c ****   {0x314d, 0x00},
 170:Lib/Camera_Middleware/sensors/imx335/imx335.c ****   {0x315a, 0x02},
 171:Lib/Camera_Middleware/sensors/imx335/imx335.c ****   {0x3168, 0xA0},
 172:Lib/Camera_Middleware/sensors/imx335/imx335.c ****   {0x316a, 0x7E},
 173:Lib/Camera_Middleware/sensors/imx335/imx335.c **** };
 174:Lib/Camera_Middleware/sensors/imx335/imx335.c **** 
 175:Lib/Camera_Middleware/sensors/imx335/imx335.c **** static const struct regval inck_18Mhz_regs[] = {
 176:Lib/Camera_Middleware/sensors/imx335/imx335.c ****   {0x300c, 0x2D},
 177:Lib/Camera_Middleware/sensors/imx335/imx335.c ****   {0x300d, 0x1F},
 178:Lib/Camera_Middleware/sensors/imx335/imx335.c ****   {0x314c, 0x84},
 179:Lib/Camera_Middleware/sensors/imx335/imx335.c ****   {0x314d, 0x00},
 180:Lib/Camera_Middleware/sensors/imx335/imx335.c ****   {0x315a, 0x01},
 181:Lib/Camera_Middleware/sensors/imx335/imx335.c ****   {0x3168, 0x6B},
 182:Lib/Camera_Middleware/sensors/imx335/imx335.c ****   {0x316a, 0x7D},
 183:Lib/Camera_Middleware/sensors/imx335/imx335.c **** };
 184:Lib/Camera_Middleware/sensors/imx335/imx335.c **** 
 185:Lib/Camera_Middleware/sensors/imx335/imx335.c **** static const struct regval inck_6Mhz_regs[] = {
 186:Lib/Camera_Middleware/sensors/imx335/imx335.c ****   {0x300c, 0x0F},
 187:Lib/Camera_Middleware/sensors/imx335/imx335.c ****   {0x300d, 0x0B},
 188:Lib/Camera_Middleware/sensors/imx335/imx335.c ****   {0x314c, 0xC6},
 189:Lib/Camera_Middleware/sensors/imx335/imx335.c ****   {0x314d, 0x00},
 190:Lib/Camera_Middleware/sensors/imx335/imx335.c ****   {0x315a, 0x00},
 191:Lib/Camera_Middleware/sensors/imx335/imx335.c ****   {0x3168, 0xA0},
 192:Lib/Camera_Middleware/sensors/imx335/imx335.c ****   {0x316a, 0x7C},
 193:Lib/Camera_Middleware/sensors/imx335/imx335.c **** };
 194:Lib/Camera_Middleware/sensors/imx335/imx335.c **** 
 195:Lib/Camera_Middleware/sensors/imx335/imx335.c **** static const struct regval framerate_10fps_regs[] = {
 196:Lib/Camera_Middleware/sensors/imx335/imx335.c ****   {0x3030, 0xC0},
 197:Lib/Camera_Middleware/sensors/imx335/imx335.c ****   {0x3031, 0x34},
 198:Lib/Camera_Middleware/sensors/imx335/imx335.c **** };
 199:Lib/Camera_Middleware/sensors/imx335/imx335.c **** 
 200:Lib/Camera_Middleware/sensors/imx335/imx335.c **** static const struct regval framerate_15fps_regs[] = {
 201:Lib/Camera_Middleware/sensors/imx335/imx335.c ****   {0x3030, 0x2A},
 202:Lib/Camera_Middleware/sensors/imx335/imx335.c ****   {0x3031, 0x23},
 203:Lib/Camera_Middleware/sensors/imx335/imx335.c **** };
 204:Lib/Camera_Middleware/sensors/imx335/imx335.c **** 
 205:Lib/Camera_Middleware/sensors/imx335/imx335.c **** static const struct regval framerate_20fps_regs[] = {
 206:Lib/Camera_Middleware/sensors/imx335/imx335.c ****   {0x3030, 0x60},
 207:Lib/Camera_Middleware/sensors/imx335/imx335.c ****   {0x3031, 0x1A},
 208:Lib/Camera_Middleware/sensors/imx335/imx335.c **** };
 209:Lib/Camera_Middleware/sensors/imx335/imx335.c **** 
 210:Lib/Camera_Middleware/sensors/imx335/imx335.c **** static const struct regval framerate_25fps_regs[] = {
 211:Lib/Camera_Middleware/sensors/imx335/imx335.c ****   {0x3030, 0x1A},
 212:Lib/Camera_Middleware/sensors/imx335/imx335.c ****   {0x3031, 0x15},
 213:Lib/Camera_Middleware/sensors/imx335/imx335.c **** };
 214:Lib/Camera_Middleware/sensors/imx335/imx335.c **** 
 215:Lib/Camera_Middleware/sensors/imx335/imx335.c **** static const struct regval framerate_30fps_regs[] = {
ARM GAS  /tmp/ccxD5M1z.s 			page 16


 216:Lib/Camera_Middleware/sensors/imx335/imx335.c ****   {0x3030, 0x94},
 217:Lib/Camera_Middleware/sensors/imx335/imx335.c ****   {0x3031, 0x11},
 218:Lib/Camera_Middleware/sensors/imx335/imx335.c **** };
 219:Lib/Camera_Middleware/sensors/imx335/imx335.c **** 
 220:Lib/Camera_Middleware/sensors/imx335/imx335.c **** static const struct regval mirrorflip_mode_regs[][10] = {
 221:Lib/Camera_Middleware/sensors/imx335/imx335.c ****   {
 222:Lib/Camera_Middleware/sensors/imx335/imx335.c ****     {AREA3_ST_ADR_1_LSB, 0xc8}, //AREA3_ST_ADR_1 LSB
 223:Lib/Camera_Middleware/sensors/imx335/imx335.c ****     {AREA3_ST_ADR_1_MSB, 0x00}, //AREA3_ST_ADR_1 MSB
 224:Lib/Camera_Middleware/sensors/imx335/imx335.c ****     {IMX335_REG_HREVERSE, 0x00}, //HREVERSE 0
 225:Lib/Camera_Middleware/sensors/imx335/imx335.c ****     {IMX335_REG_VREVERSE, 0x00}, //VREVERSE 0
 226:Lib/Camera_Middleware/sensors/imx335/imx335.c ****     {0x3081, 0x02}, //RESERVED
 227:Lib/Camera_Middleware/sensors/imx335/imx335.c ****     {0x3083, 0x02}, //RESERVED
 228:Lib/Camera_Middleware/sensors/imx335/imx335.c ****     {0x30b6, 0x00}, //RESERVED
 229:Lib/Camera_Middleware/sensors/imx335/imx335.c ****     {0x30b7, 0x00}, //RESERVED
 230:Lib/Camera_Middleware/sensors/imx335/imx335.c ****     {0x3116, 0x08}, //RESERVED
 231:Lib/Camera_Middleware/sensors/imx335/imx335.c ****     {0x3117, 0x00}, //RESERVED
 232:Lib/Camera_Middleware/sensors/imx335/imx335.c ****   },
 233:Lib/Camera_Middleware/sensors/imx335/imx335.c ****   {
 234:Lib/Camera_Middleware/sensors/imx335/imx335.c ****     {AREA3_ST_ADR_1_LSB, 0xf8}, //AREA3_ST_ADR_1 LSB
 235:Lib/Camera_Middleware/sensors/imx335/imx335.c ****     {AREA3_ST_ADR_1_MSB, 0x0f}, //AREA3_ST_ADR_1 MSB
 236:Lib/Camera_Middleware/sensors/imx335/imx335.c ****     {IMX335_REG_HREVERSE, 0x00}, //HREVERSE 0
 237:Lib/Camera_Middleware/sensors/imx335/imx335.c ****     {IMX335_REG_VREVERSE, 0x01}, //VREVERSE 1
 238:Lib/Camera_Middleware/sensors/imx335/imx335.c ****     {0x3081, 0xfe}, //RESERVED
 239:Lib/Camera_Middleware/sensors/imx335/imx335.c ****     {0x3083, 0xfe}, //RESERVED
 240:Lib/Camera_Middleware/sensors/imx335/imx335.c ****     {0x30b6, 0xfa}, //RESERVED
 241:Lib/Camera_Middleware/sensors/imx335/imx335.c ****     {0x30b7, 0x01}, //RESERVED
 242:Lib/Camera_Middleware/sensors/imx335/imx335.c ****     {0x3116, 0x02}, //RESERVED
 243:Lib/Camera_Middleware/sensors/imx335/imx335.c ****     {0x3117, 0x00}, //RESERVED
 244:Lib/Camera_Middleware/sensors/imx335/imx335.c ****   },
 245:Lib/Camera_Middleware/sensors/imx335/imx335.c ****   {
 246:Lib/Camera_Middleware/sensors/imx335/imx335.c ****     {AREA3_ST_ADR_1_LSB, 0xc8}, //AREA3_ST_ADR_1 LSB
 247:Lib/Camera_Middleware/sensors/imx335/imx335.c ****     {AREA3_ST_ADR_1_MSB, 0x00}, //AREA3_ST_ADR_1 MSB
 248:Lib/Camera_Middleware/sensors/imx335/imx335.c ****     {IMX335_REG_HREVERSE, 0x01}, //HREVERSE 1
 249:Lib/Camera_Middleware/sensors/imx335/imx335.c ****     {IMX335_REG_VREVERSE, 0x00}, //VREVERSE 0
 250:Lib/Camera_Middleware/sensors/imx335/imx335.c ****     {0x3081, 0x02}, //RESERVED
 251:Lib/Camera_Middleware/sensors/imx335/imx335.c ****     {0x3083, 0x02}, //RESERVED
 252:Lib/Camera_Middleware/sensors/imx335/imx335.c ****     {0x30b6, 0x00}, //RESERVED
 253:Lib/Camera_Middleware/sensors/imx335/imx335.c ****     {0x30b7, 0x00}, //RESERVED
 254:Lib/Camera_Middleware/sensors/imx335/imx335.c ****     {0x3116, 0x08}, //RESERVED
 255:Lib/Camera_Middleware/sensors/imx335/imx335.c ****     {0x3117, 0x00}, //RESERVED
 256:Lib/Camera_Middleware/sensors/imx335/imx335.c ****   },
 257:Lib/Camera_Middleware/sensors/imx335/imx335.c ****   {
 258:Lib/Camera_Middleware/sensors/imx335/imx335.c ****     {AREA3_ST_ADR_1_LSB, 0xf8}, //AREA3_ST_ADR_1 LSB
 259:Lib/Camera_Middleware/sensors/imx335/imx335.c ****     {AREA3_ST_ADR_1_MSB, 0x0f}, //AREA3_ST_ADR_1 MSB
 260:Lib/Camera_Middleware/sensors/imx335/imx335.c ****     {IMX335_REG_HREVERSE, 0x01}, //HREVERSE 1
 261:Lib/Camera_Middleware/sensors/imx335/imx335.c ****     {IMX335_REG_VREVERSE, 0x01}, //VREVERSE 1
 262:Lib/Camera_Middleware/sensors/imx335/imx335.c ****     {0x3081, 0xfe}, //RESERVED
 263:Lib/Camera_Middleware/sensors/imx335/imx335.c ****     {0x3083, 0xfe}, //RESERVED
 264:Lib/Camera_Middleware/sensors/imx335/imx335.c ****     {0x30b6, 0xfa}, //RESERVED
 265:Lib/Camera_Middleware/sensors/imx335/imx335.c ****     {0x30b7, 0x01}, //RESERVED
 266:Lib/Camera_Middleware/sensors/imx335/imx335.c ****     {0x3116, 0x02}, //RESERVED
 267:Lib/Camera_Middleware/sensors/imx335/imx335.c ****     {0x3117, 0x00}, //RESERVED
 268:Lib/Camera_Middleware/sensors/imx335/imx335.c ****   },
 269:Lib/Camera_Middleware/sensors/imx335/imx335.c **** };
 270:Lib/Camera_Middleware/sensors/imx335/imx335.c **** 
 271:Lib/Camera_Middleware/sensors/imx335/imx335.c **** static const struct regval test_pattern_enable_regs[] = {
 272:Lib/Camera_Middleware/sensors/imx335/imx335.c ****   {0x3148, 0x10},
ARM GAS  /tmp/ccxD5M1z.s 			page 17


 273:Lib/Camera_Middleware/sensors/imx335/imx335.c ****   {0x3280, 0x00},
 274:Lib/Camera_Middleware/sensors/imx335/imx335.c ****   {0x329c, 0x01},
 275:Lib/Camera_Middleware/sensors/imx335/imx335.c ****   {0x32a0, 0x11},
 276:Lib/Camera_Middleware/sensors/imx335/imx335.c ****   {0x3302, 0x00},
 277:Lib/Camera_Middleware/sensors/imx335/imx335.c ****   {0x3303, 0x00},
 278:Lib/Camera_Middleware/sensors/imx335/imx335.c ****   {0x336c, 0x00},
 279:Lib/Camera_Middleware/sensors/imx335/imx335.c **** };
 280:Lib/Camera_Middleware/sensors/imx335/imx335.c **** 
 281:Lib/Camera_Middleware/sensors/imx335/imx335.c **** static const struct regval test_pattern_disable_regs[] = {
 282:Lib/Camera_Middleware/sensors/imx335/imx335.c ****   {0x3148, 0x00},
 283:Lib/Camera_Middleware/sensors/imx335/imx335.c ****   {0x3280, 0x01},
 284:Lib/Camera_Middleware/sensors/imx335/imx335.c ****   {0x329c, 0x00},
 285:Lib/Camera_Middleware/sensors/imx335/imx335.c ****   {0x32a0, 0x10},
 286:Lib/Camera_Middleware/sensors/imx335/imx335.c ****   {0x3302, 0x32},
 287:Lib/Camera_Middleware/sensors/imx335/imx335.c ****   {0x3303, 0x00},
 288:Lib/Camera_Middleware/sensors/imx335/imx335.c ****   {0x336c, 0x01},
 289:Lib/Camera_Middleware/sensors/imx335/imx335.c **** };
 290:Lib/Camera_Middleware/sensors/imx335/imx335.c **** 
 291:Lib/Camera_Middleware/sensors/imx335/imx335.c **** #define IMX335_1H_PERIOD_USEC (1000000.0F / 4500 / 30)
 292:Lib/Camera_Middleware/sensors/imx335/imx335.c **** 
 293:Lib/Camera_Middleware/sensors/imx335/imx335.c **** /**
 294:Lib/Camera_Middleware/sensors/imx335/imx335.c ****   * @}
 295:Lib/Camera_Middleware/sensors/imx335/imx335.c ****   */
 296:Lib/Camera_Middleware/sensors/imx335/imx335.c **** 
 297:Lib/Camera_Middleware/sensors/imx335/imx335.c **** /** @defgroup IMX335_Private_Functions_Prototypes Private Functions Prototypes
 298:Lib/Camera_Middleware/sensors/imx335/imx335.c ****   * @{
 299:Lib/Camera_Middleware/sensors/imx335/imx335.c ****   */
 300:Lib/Camera_Middleware/sensors/imx335/imx335.c **** static int32_t IMX335_WriteTable(IMX335_Object_t *pObj, const struct regval *regs, uint32_t size);
 301:Lib/Camera_Middleware/sensors/imx335/imx335.c **** static int32_t IMX335_ReadRegWrap(void *handle, uint16_t Reg, uint8_t* Data, uint16_t Length);
 302:Lib/Camera_Middleware/sensors/imx335/imx335.c **** static int32_t IMX335_WriteRegWrap(void *handle, uint16_t Reg, uint8_t* Data, uint16_t Length);
 303:Lib/Camera_Middleware/sensors/imx335/imx335.c **** static int32_t IMX335_Delay(IMX335_Object_t *pObj, uint32_t Delay);
 304:Lib/Camera_Middleware/sensors/imx335/imx335.c **** 
 305:Lib/Camera_Middleware/sensors/imx335/imx335.c **** /**
 306:Lib/Camera_Middleware/sensors/imx335/imx335.c ****   * @}
 307:Lib/Camera_Middleware/sensors/imx335/imx335.c ****   */
 308:Lib/Camera_Middleware/sensors/imx335/imx335.c **** 
 309:Lib/Camera_Middleware/sensors/imx335/imx335.c **** /** @defgroup IMX335_Private_Functions Private Functions
 310:Lib/Camera_Middleware/sensors/imx335/imx335.c ****   * @{
 311:Lib/Camera_Middleware/sensors/imx335/imx335.c ****   */
 312:Lib/Camera_Middleware/sensors/imx335/imx335.c **** static int32_t IMX335_WriteTable(IMX335_Object_t *pObj, const struct regval *regs, uint32_t size)
 313:Lib/Camera_Middleware/sensors/imx335/imx335.c **** {
 672              		.loc 1 313 1
 673              		.cfi_startproc
 674              		@ args = 0, pretend = 0, frame = 24
 675              		@ frame_needed = 1, uses_anonymous_args = 0
 676 0000 80B5     		push	{r7, lr}
 677              		.cfi_def_cfa_offset 8
 678              		.cfi_offset 7, -8
 679              		.cfi_offset 14, -4
 680 0002 86B0     		sub	sp, sp, #24
 681              		.cfi_def_cfa_offset 32
 682 0004 00AF     		add	r7, sp, #0
 683              		.cfi_def_cfa_register 7
 684 0006 F860     		str	r0, [r7, #12]
 685 0008 B960     		str	r1, [r7, #8]
 686 000a 7A60     		str	r2, [r7, #4]
 314:Lib/Camera_Middleware/sensors/imx335/imx335.c ****   uint32_t index;
ARM GAS  /tmp/ccxD5M1z.s 			page 18


 315:Lib/Camera_Middleware/sensors/imx335/imx335.c ****   int32_t ret = IMX335_OK;
 687              		.loc 1 315 11
 688 000c 0023     		movs	r3, #0
 689 000e 3B61     		str	r3, [r7, #16]
 316:Lib/Camera_Middleware/sensors/imx335/imx335.c **** 
 317:Lib/Camera_Middleware/sensors/imx335/imx335.c ****   /* Set registers */
 318:Lib/Camera_Middleware/sensors/imx335/imx335.c ****   for(index=0; index<size ; index++)
 690              		.loc 1 318 12
 691 0010 0023     		movs	r3, #0
 692 0012 7B61     		str	r3, [r7, #20]
 693              		.loc 1 318 3
 694 0014 1CE0     		b	.L2
 695              	.L4:
 319:Lib/Camera_Middleware/sensors/imx335/imx335.c ****   {
 320:Lib/Camera_Middleware/sensors/imx335/imx335.c ****     if(ret != IMX335_ERROR)
 696              		.loc 1 320 7
 697 0016 3B69     		ldr	r3, [r7, #16]
 698 0018 B3F1FF3F 		cmp	r3, #-1
 699 001c 15D0     		beq	.L3
 321:Lib/Camera_Middleware/sensors/imx335/imx335.c ****     {
 322:Lib/Camera_Middleware/sensors/imx335/imx335.c ****       if(imx335_write_reg(&pObj->Ctx, regs[index].addr, (uint8_t *)&(regs[index].val), 1) != IMX335
 700              		.loc 1 322 10
 701 001e FB68     		ldr	r3, [r7, #12]
 702 0020 03F11800 		add	r0, r3, #24
 703              		.loc 1 322 43
 704 0024 7B69     		ldr	r3, [r7, #20]
 705 0026 9B00     		lsls	r3, r3, #2
 706 0028 BA68     		ldr	r2, [r7, #8]
 707 002a 1344     		add	r3, r3, r2
 708              		.loc 1 322 50
 709 002c 1988     		ldrh	r1, [r3]
 710              		.loc 1 322 74
 711 002e 7B69     		ldr	r3, [r7, #20]
 712 0030 9B00     		lsls	r3, r3, #2
 713 0032 BA68     		ldr	r2, [r7, #8]
 714 0034 1344     		add	r3, r3, r2
 715              		.loc 1 322 68
 716 0036 9A1C     		adds	r2, r3, #2
 717              		.loc 1 322 10
 718 0038 0123     		movs	r3, #1
 719 003a FFF7FEFF 		bl	imx335_write_reg
 720 003e 0346     		mov	r3, r0
 721              		.loc 1 322 9 discriminator 1
 722 0040 002B     		cmp	r3, #0
 723 0042 02D0     		beq	.L3
 323:Lib/Camera_Middleware/sensors/imx335/imx335.c ****       {
 324:Lib/Camera_Middleware/sensors/imx335/imx335.c ****         ret = IMX335_ERROR;
 724              		.loc 1 324 13
 725 0044 4FF0FF33 		mov	r3, #-1
 726 0048 3B61     		str	r3, [r7, #16]
 727              	.L3:
 318:Lib/Camera_Middleware/sensors/imx335/imx335.c ****   {
 728              		.loc 1 318 34 discriminator 2
 729 004a 7B69     		ldr	r3, [r7, #20]
 730 004c 0133     		adds	r3, r3, #1
 731 004e 7B61     		str	r3, [r7, #20]
 732              	.L2:
ARM GAS  /tmp/ccxD5M1z.s 			page 19


 318:Lib/Camera_Middleware/sensors/imx335/imx335.c ****   {
 733              		.loc 1 318 21 discriminator 1
 734 0050 7A69     		ldr	r2, [r7, #20]
 735 0052 7B68     		ldr	r3, [r7, #4]
 736 0054 9A42     		cmp	r2, r3
 737 0056 DED3     		bcc	.L4
 325:Lib/Camera_Middleware/sensors/imx335/imx335.c ****       }
 326:Lib/Camera_Middleware/sensors/imx335/imx335.c ****     }
 327:Lib/Camera_Middleware/sensors/imx335/imx335.c ****   }
 328:Lib/Camera_Middleware/sensors/imx335/imx335.c ****   return ret;
 738              		.loc 1 328 10
 739 0058 3B69     		ldr	r3, [r7, #16]
 329:Lib/Camera_Middleware/sensors/imx335/imx335.c **** }
 740              		.loc 1 329 1
 741 005a 1846     		mov	r0, r3
 742 005c 1837     		adds	r7, r7, #24
 743              		.cfi_def_cfa_offset 8
 744 005e BD46     		mov	sp, r7
 745              		.cfi_def_cfa_register 13
 746              		@ sp needed
 747 0060 80BD     		pop	{r7, pc}
 748              		.cfi_endproc
 749              	.LFE141:
 751              		.section	.text.IMX335_Delay,"ax",%progbits
 752              		.align	1
 753              		.syntax unified
 754              		.thumb
 755              		.thumb_func
 757              	IMX335_Delay:
 758              	.LFB142:
 330:Lib/Camera_Middleware/sensors/imx335/imx335.c **** 
 331:Lib/Camera_Middleware/sensors/imx335/imx335.c **** /**
 332:Lib/Camera_Middleware/sensors/imx335/imx335.c ****   * @brief This function provides accurate delay (in milliseconds)
 333:Lib/Camera_Middleware/sensors/imx335/imx335.c ****   * @param pObj   pointer to component object
 334:Lib/Camera_Middleware/sensors/imx335/imx335.c ****   * @param Delay  specifies the delay time length, in milliseconds
 335:Lib/Camera_Middleware/sensors/imx335/imx335.c ****   * @retval IMX335_OK
 336:Lib/Camera_Middleware/sensors/imx335/imx335.c ****   */
 337:Lib/Camera_Middleware/sensors/imx335/imx335.c **** static int32_t IMX335_Delay(IMX335_Object_t *pObj, uint32_t Delay)
 338:Lib/Camera_Middleware/sensors/imx335/imx335.c **** {
 759              		.loc 1 338 1
 760              		.cfi_startproc
 761              		@ args = 0, pretend = 0, frame = 16
 762              		@ frame_needed = 1, uses_anonymous_args = 0
 763 0000 80B5     		push	{r7, lr}
 764              		.cfi_def_cfa_offset 8
 765              		.cfi_offset 7, -8
 766              		.cfi_offset 14, -4
 767 0002 84B0     		sub	sp, sp, #16
 768              		.cfi_def_cfa_offset 24
 769 0004 00AF     		add	r7, sp, #0
 770              		.cfi_def_cfa_register 7
 771 0006 7860     		str	r0, [r7, #4]
 772 0008 3960     		str	r1, [r7]
 339:Lib/Camera_Middleware/sensors/imx335/imx335.c ****   uint32_t tickstart;
 340:Lib/Camera_Middleware/sensors/imx335/imx335.c ****   tickstart = pObj->IO.GetTick();
 773              		.loc 1 340 23
 774 000a 7B68     		ldr	r3, [r7, #4]
ARM GAS  /tmp/ccxD5M1z.s 			page 20


 775 000c 5B69     		ldr	r3, [r3, #20]
 776              		.loc 1 340 15
 777 000e 9847     		blx	r3
 778              	.LVL0:
 779 0010 0346     		mov	r3, r0
 780              		.loc 1 340 13 discriminator 1
 781 0012 FB60     		str	r3, [r7, #12]
 341:Lib/Camera_Middleware/sensors/imx335/imx335.c ****   while((pObj->IO.GetTick() - tickstart) < Delay)
 782              		.loc 1 341 8
 783 0014 00BF     		nop
 784              	.L7:
 785              		.loc 1 341 18 discriminator 1
 786 0016 7B68     		ldr	r3, [r7, #4]
 787 0018 5B69     		ldr	r3, [r3, #20]
 788              		.loc 1 341 10 discriminator 1
 789 001a 9847     		blx	r3
 790              	.LVL1:
 791 001c 0346     		mov	r3, r0
 792 001e 1A46     		mov	r2, r3
 793              		.loc 1 341 29 discriminator 1
 794 0020 FB68     		ldr	r3, [r7, #12]
 795 0022 D31A     		subs	r3, r2, r3
 796              		.loc 1 341 42 discriminator 1
 797 0024 3A68     		ldr	r2, [r7]
 798 0026 9A42     		cmp	r2, r3
 799 0028 F5D8     		bhi	.L7
 342:Lib/Camera_Middleware/sensors/imx335/imx335.c ****   {
 343:Lib/Camera_Middleware/sensors/imx335/imx335.c ****   }
 344:Lib/Camera_Middleware/sensors/imx335/imx335.c ****   return IMX335_OK;
 800              		.loc 1 344 10
 801 002a 0023     		movs	r3, #0
 345:Lib/Camera_Middleware/sensors/imx335/imx335.c **** }
 802              		.loc 1 345 1
 803 002c 1846     		mov	r0, r3
 804 002e 1037     		adds	r7, r7, #16
 805              		.cfi_def_cfa_offset 8
 806 0030 BD46     		mov	sp, r7
 807              		.cfi_def_cfa_register 13
 808              		@ sp needed
 809 0032 80BD     		pop	{r7, pc}
 810              		.cfi_endproc
 811              	.LFE142:
 813              		.section	.text.IMX335_ReadRegWrap,"ax",%progbits
 814              		.align	1
 815              		.syntax unified
 816              		.thumb
 817              		.thumb_func
 819              	IMX335_ReadRegWrap:
 820              	.LFB143:
 346:Lib/Camera_Middleware/sensors/imx335/imx335.c **** 
 347:Lib/Camera_Middleware/sensors/imx335/imx335.c **** /**
 348:Lib/Camera_Middleware/sensors/imx335/imx335.c ****   * @brief  Wrap component ReadReg to Bus Read function
 349:Lib/Camera_Middleware/sensors/imx335/imx335.c ****   * @param  handle  Component object handle
 350:Lib/Camera_Middleware/sensors/imx335/imx335.c ****   * @param  Reg  The target register address to write
 351:Lib/Camera_Middleware/sensors/imx335/imx335.c ****   * @param  pData  The target register value to be written
 352:Lib/Camera_Middleware/sensors/imx335/imx335.c ****   * @param  Length  buffer size to be written
 353:Lib/Camera_Middleware/sensors/imx335/imx335.c ****   * @retval error status
ARM GAS  /tmp/ccxD5M1z.s 			page 21


 354:Lib/Camera_Middleware/sensors/imx335/imx335.c ****   */
 355:Lib/Camera_Middleware/sensors/imx335/imx335.c **** static int32_t IMX335_ReadRegWrap(void *handle, uint16_t Reg, uint8_t* pData, uint16_t Length)
 356:Lib/Camera_Middleware/sensors/imx335/imx335.c **** {
 821              		.loc 1 356 1
 822              		.cfi_startproc
 823              		@ args = 0, pretend = 0, frame = 24
 824              		@ frame_needed = 1, uses_anonymous_args = 0
 825 0000 90B5     		push	{r4, r7, lr}
 826              		.cfi_def_cfa_offset 12
 827              		.cfi_offset 4, -12
 828              		.cfi_offset 7, -8
 829              		.cfi_offset 14, -4
 830 0002 87B0     		sub	sp, sp, #28
 831              		.cfi_def_cfa_offset 40
 832 0004 00AF     		add	r7, sp, #0
 833              		.cfi_def_cfa_register 7
 834 0006 F860     		str	r0, [r7, #12]
 835 0008 7A60     		str	r2, [r7, #4]
 836 000a 1A46     		mov	r2, r3
 837 000c 0B46     		mov	r3, r1	@ movhi
 838 000e 7B81     		strh	r3, [r7, #10]	@ movhi
 839 0010 1346     		mov	r3, r2	@ movhi
 840 0012 3B81     		strh	r3, [r7, #8]	@ movhi
 357:Lib/Camera_Middleware/sensors/imx335/imx335.c ****   IMX335_Object_t *pObj = (IMX335_Object_t *)handle;
 841              		.loc 1 357 20
 842 0014 FB68     		ldr	r3, [r7, #12]
 843 0016 7B61     		str	r3, [r7, #20]
 358:Lib/Camera_Middleware/sensors/imx335/imx335.c **** 
 359:Lib/Camera_Middleware/sensors/imx335/imx335.c ****   return pObj->IO.ReadReg(pObj->IO.Address, Reg, pData, Length);
 844              		.loc 1 359 18
 845 0018 7B69     		ldr	r3, [r7, #20]
 846 001a 1C69     		ldr	r4, [r3, #16]
 847              		.loc 1 359 10
 848 001c 7B69     		ldr	r3, [r7, #20]
 849 001e 1889     		ldrh	r0, [r3, #8]
 850 0020 3B89     		ldrh	r3, [r7, #8]
 851 0022 7989     		ldrh	r1, [r7, #10]
 852 0024 7A68     		ldr	r2, [r7, #4]
 853 0026 A047     		blx	r4
 854              	.LVL2:
 855 0028 0346     		mov	r3, r0
 360:Lib/Camera_Middleware/sensors/imx335/imx335.c **** }
 856              		.loc 1 360 1
 857 002a 1846     		mov	r0, r3
 858 002c 1C37     		adds	r7, r7, #28
 859              		.cfi_def_cfa_offset 12
 860 002e BD46     		mov	sp, r7
 861              		.cfi_def_cfa_register 13
 862              		@ sp needed
 863 0030 90BD     		pop	{r4, r7, pc}
 864              		.cfi_endproc
 865              	.LFE143:
 867              		.section	.text.IMX335_WriteRegWrap,"ax",%progbits
 868              		.align	1
 869              		.syntax unified
 870              		.thumb
 871              		.thumb_func
ARM GAS  /tmp/ccxD5M1z.s 			page 22


 873              	IMX335_WriteRegWrap:
 874              	.LFB144:
 361:Lib/Camera_Middleware/sensors/imx335/imx335.c **** 
 362:Lib/Camera_Middleware/sensors/imx335/imx335.c **** /**
 363:Lib/Camera_Middleware/sensors/imx335/imx335.c ****   * @brief  Wrap component WriteReg to Bus Write function
 364:Lib/Camera_Middleware/sensors/imx335/imx335.c ****   * @param  handle  Component object handle
 365:Lib/Camera_Middleware/sensors/imx335/imx335.c ****   * @param  Reg  The target register address to write
 366:Lib/Camera_Middleware/sensors/imx335/imx335.c ****   * @param  pData  The target register value to be written
 367:Lib/Camera_Middleware/sensors/imx335/imx335.c ****   * @param  Length  buffer size to be written
 368:Lib/Camera_Middleware/sensors/imx335/imx335.c ****   * @retval error status
 369:Lib/Camera_Middleware/sensors/imx335/imx335.c ****   */
 370:Lib/Camera_Middleware/sensors/imx335/imx335.c **** static int32_t IMX335_WriteRegWrap(void *handle, uint16_t Reg, uint8_t* pData, uint16_t Length)
 371:Lib/Camera_Middleware/sensors/imx335/imx335.c **** {
 875              		.loc 1 371 1
 876              		.cfi_startproc
 877              		@ args = 0, pretend = 0, frame = 24
 878              		@ frame_needed = 1, uses_anonymous_args = 0
 879 0000 90B5     		push	{r4, r7, lr}
 880              		.cfi_def_cfa_offset 12
 881              		.cfi_offset 4, -12
 882              		.cfi_offset 7, -8
 883              		.cfi_offset 14, -4
 884 0002 87B0     		sub	sp, sp, #28
 885              		.cfi_def_cfa_offset 40
 886 0004 00AF     		add	r7, sp, #0
 887              		.cfi_def_cfa_register 7
 888 0006 F860     		str	r0, [r7, #12]
 889 0008 7A60     		str	r2, [r7, #4]
 890 000a 1A46     		mov	r2, r3
 891 000c 0B46     		mov	r3, r1	@ movhi
 892 000e 7B81     		strh	r3, [r7, #10]	@ movhi
 893 0010 1346     		mov	r3, r2	@ movhi
 894 0012 3B81     		strh	r3, [r7, #8]	@ movhi
 372:Lib/Camera_Middleware/sensors/imx335/imx335.c ****   IMX335_Object_t *pObj = (IMX335_Object_t *)handle;
 895              		.loc 1 372 20
 896 0014 FB68     		ldr	r3, [r7, #12]
 897 0016 7B61     		str	r3, [r7, #20]
 373:Lib/Camera_Middleware/sensors/imx335/imx335.c **** 
 374:Lib/Camera_Middleware/sensors/imx335/imx335.c ****   return pObj->IO.WriteReg(pObj->IO.Address, Reg, pData, Length);
 898              		.loc 1 374 18
 899 0018 7B69     		ldr	r3, [r7, #20]
 900 001a DC68     		ldr	r4, [r3, #12]
 901              		.loc 1 374 10
 902 001c 7B69     		ldr	r3, [r7, #20]
 903 001e 1889     		ldrh	r0, [r3, #8]
 904 0020 3B89     		ldrh	r3, [r7, #8]
 905 0022 7989     		ldrh	r1, [r7, #10]
 906 0024 7A68     		ldr	r2, [r7, #4]
 907 0026 A047     		blx	r4
 908              	.LVL3:
 909 0028 0346     		mov	r3, r0
 375:Lib/Camera_Middleware/sensors/imx335/imx335.c **** }
 910              		.loc 1 375 1
 911 002a 1846     		mov	r0, r3
 912 002c 1C37     		adds	r7, r7, #28
 913              		.cfi_def_cfa_offset 12
 914 002e BD46     		mov	sp, r7
ARM GAS  /tmp/ccxD5M1z.s 			page 23


 915              		.cfi_def_cfa_register 13
 916              		@ sp needed
 917 0030 90BD     		pop	{r4, r7, pc}
 918              		.cfi_endproc
 919              	.LFE144:
 921              		.section	.text.IMX335_RegisterBusIO,"ax",%progbits
 922              		.align	1
 923              		.global	IMX335_RegisterBusIO
 924              		.syntax unified
 925              		.thumb
 926              		.thumb_func
 928              	IMX335_RegisterBusIO:
 929              	.LFB145:
 376:Lib/Camera_Middleware/sensors/imx335/imx335.c **** 
 377:Lib/Camera_Middleware/sensors/imx335/imx335.c **** /**
 378:Lib/Camera_Middleware/sensors/imx335/imx335.c ****   * @}
 379:Lib/Camera_Middleware/sensors/imx335/imx335.c ****   */
 380:Lib/Camera_Middleware/sensors/imx335/imx335.c **** 
 381:Lib/Camera_Middleware/sensors/imx335/imx335.c **** /** @defgroup IMX335_Exported_Functions IMX335 Exported Functions
 382:Lib/Camera_Middleware/sensors/imx335/imx335.c ****   * @{
 383:Lib/Camera_Middleware/sensors/imx335/imx335.c ****   */
 384:Lib/Camera_Middleware/sensors/imx335/imx335.c **** /**
 385:Lib/Camera_Middleware/sensors/imx335/imx335.c ****   * @brief  Register component IO bus
 386:Lib/Camera_Middleware/sensors/imx335/imx335.c ****   * @param  Component object pointer
 387:Lib/Camera_Middleware/sensors/imx335/imx335.c ****   * @retval Component status
 388:Lib/Camera_Middleware/sensors/imx335/imx335.c ****   */
 389:Lib/Camera_Middleware/sensors/imx335/imx335.c **** int32_t IMX335_RegisterBusIO(IMX335_Object_t *pObj, IMX335_IO_t *pIO)
 390:Lib/Camera_Middleware/sensors/imx335/imx335.c **** {
 930              		.loc 1 390 1
 931              		.cfi_startproc
 932              		@ args = 0, pretend = 0, frame = 16
 933              		@ frame_needed = 1, uses_anonymous_args = 0
 934 0000 80B5     		push	{r7, lr}
 935              		.cfi_def_cfa_offset 8
 936              		.cfi_offset 7, -8
 937              		.cfi_offset 14, -4
 938 0002 84B0     		sub	sp, sp, #16
 939              		.cfi_def_cfa_offset 24
 940 0004 00AF     		add	r7, sp, #0
 941              		.cfi_def_cfa_register 7
 942 0006 7860     		str	r0, [r7, #4]
 943 0008 3960     		str	r1, [r7]
 391:Lib/Camera_Middleware/sensors/imx335/imx335.c ****   int32_t ret;
 392:Lib/Camera_Middleware/sensors/imx335/imx335.c **** 
 393:Lib/Camera_Middleware/sensors/imx335/imx335.c ****   if (pObj == NULL)
 944              		.loc 1 393 6
 945 000a 7B68     		ldr	r3, [r7, #4]
 946 000c 002B     		cmp	r3, #0
 947 000e 03D1     		bne	.L14
 394:Lib/Camera_Middleware/sensors/imx335/imx335.c ****   {
 395:Lib/Camera_Middleware/sensors/imx335/imx335.c ****     ret = IMX335_ERROR;
 948              		.loc 1 395 9
 949 0010 4FF0FF33 		mov	r3, #-1
 950 0014 FB60     		str	r3, [r7, #12]
 951 0016 2CE0     		b	.L15
 952              	.L14:
 396:Lib/Camera_Middleware/sensors/imx335/imx335.c ****   }
ARM GAS  /tmp/ccxD5M1z.s 			page 24


 397:Lib/Camera_Middleware/sensors/imx335/imx335.c ****   else
 398:Lib/Camera_Middleware/sensors/imx335/imx335.c ****   {
 399:Lib/Camera_Middleware/sensors/imx335/imx335.c ****     pObj->IO.Init      = pIO->Init;
 953              		.loc 1 399 29
 954 0018 3B68     		ldr	r3, [r7]
 955 001a 1A68     		ldr	r2, [r3]
 956              		.loc 1 399 24
 957 001c 7B68     		ldr	r3, [r7, #4]
 958 001e 1A60     		str	r2, [r3]
 400:Lib/Camera_Middleware/sensors/imx335/imx335.c ****     pObj->IO.DeInit    = pIO->DeInit;
 959              		.loc 1 400 29
 960 0020 3B68     		ldr	r3, [r7]
 961 0022 5A68     		ldr	r2, [r3, #4]
 962              		.loc 1 400 24
 963 0024 7B68     		ldr	r3, [r7, #4]
 964 0026 5A60     		str	r2, [r3, #4]
 401:Lib/Camera_Middleware/sensors/imx335/imx335.c ****     pObj->IO.Address   = pIO->Address;
 965              		.loc 1 401 29
 966 0028 3B68     		ldr	r3, [r7]
 967 002a 1A89     		ldrh	r2, [r3, #8]
 968              		.loc 1 401 24
 969 002c 7B68     		ldr	r3, [r7, #4]
 970 002e 1A81     		strh	r2, [r3, #8]	@ movhi
 402:Lib/Camera_Middleware/sensors/imx335/imx335.c ****     pObj->IO.WriteReg  = pIO->WriteReg;
 971              		.loc 1 402 29
 972 0030 3B68     		ldr	r3, [r7]
 973 0032 DA68     		ldr	r2, [r3, #12]
 974              		.loc 1 402 24
 975 0034 7B68     		ldr	r3, [r7, #4]
 976 0036 DA60     		str	r2, [r3, #12]
 403:Lib/Camera_Middleware/sensors/imx335/imx335.c ****     pObj->IO.ReadReg   = pIO->ReadReg;
 977              		.loc 1 403 29
 978 0038 3B68     		ldr	r3, [r7]
 979 003a 1A69     		ldr	r2, [r3, #16]
 980              		.loc 1 403 24
 981 003c 7B68     		ldr	r3, [r7, #4]
 982 003e 1A61     		str	r2, [r3, #16]
 404:Lib/Camera_Middleware/sensors/imx335/imx335.c ****     pObj->IO.GetTick   = pIO->GetTick;
 983              		.loc 1 404 29
 984 0040 3B68     		ldr	r3, [r7]
 985 0042 5A69     		ldr	r2, [r3, #20]
 986              		.loc 1 404 24
 987 0044 7B68     		ldr	r3, [r7, #4]
 988 0046 5A61     		str	r2, [r3, #20]
 405:Lib/Camera_Middleware/sensors/imx335/imx335.c **** 
 406:Lib/Camera_Middleware/sensors/imx335/imx335.c ****     pObj->Ctx.ReadReg  = IMX335_ReadRegWrap;
 989              		.loc 1 406 24
 990 0048 7B68     		ldr	r3, [r7, #4]
 991 004a 0C4A     		ldr	r2, .L18
 992 004c DA61     		str	r2, [r3, #28]
 407:Lib/Camera_Middleware/sensors/imx335/imx335.c ****     pObj->Ctx.WriteReg = IMX335_WriteRegWrap;
 993              		.loc 1 407 24
 994 004e 7B68     		ldr	r3, [r7, #4]
 995 0050 0B4A     		ldr	r2, .L18+4
 996 0052 9A61     		str	r2, [r3, #24]
 408:Lib/Camera_Middleware/sensors/imx335/imx335.c ****     pObj->Ctx.handle   = pObj;
 997              		.loc 1 408 24
ARM GAS  /tmp/ccxD5M1z.s 			page 25


 998 0054 7B68     		ldr	r3, [r7, #4]
 999 0056 7A68     		ldr	r2, [r7, #4]
 1000 0058 1A62     		str	r2, [r3, #32]
 409:Lib/Camera_Middleware/sensors/imx335/imx335.c **** 
 410:Lib/Camera_Middleware/sensors/imx335/imx335.c ****     if(pObj->IO.Init != NULL)
 1001              		.loc 1 410 16
 1002 005a 7B68     		ldr	r3, [r7, #4]
 1003 005c 1B68     		ldr	r3, [r3]
 1004              		.loc 1 410 7
 1005 005e 002B     		cmp	r3, #0
 1006 0060 04D0     		beq	.L16
 411:Lib/Camera_Middleware/sensors/imx335/imx335.c ****     {
 412:Lib/Camera_Middleware/sensors/imx335/imx335.c ****       ret = pObj->IO.Init();
 1007              		.loc 1 412 21
 1008 0062 7B68     		ldr	r3, [r7, #4]
 1009 0064 1B68     		ldr	r3, [r3]
 1010              		.loc 1 412 13
 1011 0066 9847     		blx	r3
 1012              	.LVL4:
 1013 0068 F860     		str	r0, [r7, #12]
 1014 006a 02E0     		b	.L15
 1015              	.L16:
 413:Lib/Camera_Middleware/sensors/imx335/imx335.c ****     }
 414:Lib/Camera_Middleware/sensors/imx335/imx335.c ****     else
 415:Lib/Camera_Middleware/sensors/imx335/imx335.c ****     {
 416:Lib/Camera_Middleware/sensors/imx335/imx335.c ****       ret = IMX335_ERROR;
 1016              		.loc 1 416 11
 1017 006c 4FF0FF33 		mov	r3, #-1
 1018 0070 FB60     		str	r3, [r7, #12]
 1019              	.L15:
 417:Lib/Camera_Middleware/sensors/imx335/imx335.c ****     }
 418:Lib/Camera_Middleware/sensors/imx335/imx335.c ****   }
 419:Lib/Camera_Middleware/sensors/imx335/imx335.c **** 
 420:Lib/Camera_Middleware/sensors/imx335/imx335.c ****   return ret;
 1020              		.loc 1 420 10
 1021 0072 FB68     		ldr	r3, [r7, #12]
 421:Lib/Camera_Middleware/sensors/imx335/imx335.c **** }
 1022              		.loc 1 421 1
 1023 0074 1846     		mov	r0, r3
 1024 0076 1037     		adds	r7, r7, #16
 1025              		.cfi_def_cfa_offset 8
 1026 0078 BD46     		mov	sp, r7
 1027              		.cfi_def_cfa_register 13
 1028              		@ sp needed
 1029 007a 80BD     		pop	{r7, pc}
 1030              	.L19:
 1031              		.align	2
 1032              	.L18:
 1033 007c 00000000 		.word	IMX335_ReadRegWrap
 1034 0080 00000000 		.word	IMX335_WriteRegWrap
 1035              		.cfi_endproc
 1036              	.LFE145:
 1038              		.section	.text.IMX335_Init,"ax",%progbits
 1039              		.align	1
 1040              		.global	IMX335_Init
 1041              		.syntax unified
 1042              		.thumb
ARM GAS  /tmp/ccxD5M1z.s 			page 26


 1043              		.thumb_func
 1045              	IMX335_Init:
 1046              	.LFB146:
 422:Lib/Camera_Middleware/sensors/imx335/imx335.c **** 
 423:Lib/Camera_Middleware/sensors/imx335/imx335.c **** /**
 424:Lib/Camera_Middleware/sensors/imx335/imx335.c ****   * @brief  Initializes the IMX335 CAMERA component.
 425:Lib/Camera_Middleware/sensors/imx335/imx335.c ****   * @param  pObj  pointer to component object
 426:Lib/Camera_Middleware/sensors/imx335/imx335.c ****   * @param  Resolution  Camera resolution
 427:Lib/Camera_Middleware/sensors/imx335/imx335.c ****   * @param  PixelFormat pixel format to be configured
 428:Lib/Camera_Middleware/sensors/imx335/imx335.c ****   * @retval Component status
 429:Lib/Camera_Middleware/sensors/imx335/imx335.c ****   */
 430:Lib/Camera_Middleware/sensors/imx335/imx335.c **** int32_t IMX335_Init(IMX335_Object_t *pObj, uint32_t Resolution, uint32_t PixelFormat)
 431:Lib/Camera_Middleware/sensors/imx335/imx335.c **** {
 1047              		.loc 1 431 1
 1048              		.cfi_startproc
 1049              		@ args = 0, pretend = 0, frame = 24
 1050              		@ frame_needed = 1, uses_anonymous_args = 0
 1051 0000 80B5     		push	{r7, lr}
 1052              		.cfi_def_cfa_offset 8
 1053              		.cfi_offset 7, -8
 1054              		.cfi_offset 14, -4
 1055 0002 86B0     		sub	sp, sp, #24
 1056              		.cfi_def_cfa_offset 32
 1057 0004 00AF     		add	r7, sp, #0
 1058              		.cfi_def_cfa_register 7
 1059 0006 F860     		str	r0, [r7, #12]
 1060 0008 B960     		str	r1, [r7, #8]
 1061 000a 7A60     		str	r2, [r7, #4]
 432:Lib/Camera_Middleware/sensors/imx335/imx335.c ****   int32_t ret = IMX335_OK;
 1062              		.loc 1 432 11
 1063 000c 0023     		movs	r3, #0
 1064 000e 7B61     		str	r3, [r7, #20]
 433:Lib/Camera_Middleware/sensors/imx335/imx335.c **** 
 434:Lib/Camera_Middleware/sensors/imx335/imx335.c ****   if(pObj->IsInitialized == 0U)
 1065              		.loc 1 434 10
 1066 0010 FB68     		ldr	r3, [r7, #12]
 1067 0012 93F82430 		ldrb	r3, [r3, #36]	@ zero_extendqisi2
 1068              		.loc 1 434 5
 1069 0016 002B     		cmp	r3, #0
 1070 0018 26D1     		bne	.L21
 435:Lib/Camera_Middleware/sensors/imx335/imx335.c ****   {
 436:Lib/Camera_Middleware/sensors/imx335/imx335.c ****     switch (Resolution)
 1071              		.loc 1 436 5
 1072 001a BB68     		ldr	r3, [r7, #8]
 1073 001c 062B     		cmp	r3, #6
 1074 001e 0BD1     		bne	.L22
 437:Lib/Camera_Middleware/sensors/imx335/imx335.c ****     {
 438:Lib/Camera_Middleware/sensors/imx335/imx335.c ****       case IMX335_R2592_1944:
 439:Lib/Camera_Middleware/sensors/imx335/imx335.c ****         if(IMX335_WriteTable(pObj, res_2592_1944_regs, ARRAY_SIZE(res_2592_1944_regs)) != IMX335_OK
 1075              		.loc 1 439 12
 1076 0020 5422     		movs	r2, #84
 1077 0022 1449     		ldr	r1, .L28
 1078 0024 F868     		ldr	r0, [r7, #12]
 1079 0026 FFF7FEFF 		bl	IMX335_WriteTable
 1080 002a 0346     		mov	r3, r0
 1081              		.loc 1 439 11 discriminator 1
 1082 002c 002B     		cmp	r3, #0
ARM GAS  /tmp/ccxD5M1z.s 			page 27


 1083 002e 07D0     		beq	.L27
 440:Lib/Camera_Middleware/sensors/imx335/imx335.c ****         {
 441:Lib/Camera_Middleware/sensors/imx335/imx335.c ****           ret = IMX335_ERROR;
 1084              		.loc 1 441 15
 1085 0030 4FF0FF33 		mov	r3, #-1
 1086 0034 7B61     		str	r3, [r7, #20]
 442:Lib/Camera_Middleware/sensors/imx335/imx335.c ****         }
 443:Lib/Camera_Middleware/sensors/imx335/imx335.c ****         break;
 1087              		.loc 1 443 9
 1088 0036 03E0     		b	.L27
 1089              	.L22:
 444:Lib/Camera_Middleware/sensors/imx335/imx335.c ****       /* Add new resolution here */
 445:Lib/Camera_Middleware/sensors/imx335/imx335.c ****       default:
 446:Lib/Camera_Middleware/sensors/imx335/imx335.c ****         /* Resolution not supported */
 447:Lib/Camera_Middleware/sensors/imx335/imx335.c ****         ret = IMX335_ERROR;
 1090              		.loc 1 447 13
 1091 0038 4FF0FF33 		mov	r3, #-1
 1092 003c 7B61     		str	r3, [r7, #20]
 1093 003e 00E0     		b	.L24
 1094              	.L27:
 443:Lib/Camera_Middleware/sensors/imx335/imx335.c ****       /* Add new resolution here */
 1095              		.loc 1 443 9
 1096 0040 00BF     		nop
 1097              	.L24:
 448:Lib/Camera_Middleware/sensors/imx335/imx335.c ****     }
 449:Lib/Camera_Middleware/sensors/imx335/imx335.c **** 
 450:Lib/Camera_Middleware/sensors/imx335/imx335.c ****     if(!ret)
 1098              		.loc 1 450 7
 1099 0042 7B69     		ldr	r3, [r7, #20]
 1100 0044 002B     		cmp	r3, #0
 1101 0046 0FD1     		bne	.L21
 451:Lib/Camera_Middleware/sensors/imx335/imx335.c ****     {
 452:Lib/Camera_Middleware/sensors/imx335/imx335.c ****       if(IMX335_WriteTable(pObj, mode_2l_10b_regs, ARRAY_SIZE(mode_2l_10b_regs)) != IMX335_OK)
 1102              		.loc 1 452 10
 1103 0048 0522     		movs	r2, #5
 1104 004a 0B49     		ldr	r1, .L28+4
 1105 004c F868     		ldr	r0, [r7, #12]
 1106 004e FFF7FEFF 		bl	IMX335_WriteTable
 1107 0052 0346     		mov	r3, r0
 1108              		.loc 1 452 9 discriminator 1
 1109 0054 002B     		cmp	r3, #0
 1110 0056 03D0     		beq	.L25
 453:Lib/Camera_Middleware/sensors/imx335/imx335.c ****       {
 454:Lib/Camera_Middleware/sensors/imx335/imx335.c ****         ret = IMX335_ERROR;
 1111              		.loc 1 454 13
 1112 0058 4FF0FF33 		mov	r3, #-1
 1113 005c 7B61     		str	r3, [r7, #20]
 1114 005e 03E0     		b	.L21
 1115              	.L25:
 455:Lib/Camera_Middleware/sensors/imx335/imx335.c ****       }
 456:Lib/Camera_Middleware/sensors/imx335/imx335.c ****       else
 457:Lib/Camera_Middleware/sensors/imx335/imx335.c ****       {
 458:Lib/Camera_Middleware/sensors/imx335/imx335.c ****         pObj->IsInitialized = 1U;
 1116              		.loc 1 458 29
 1117 0060 FB68     		ldr	r3, [r7, #12]
 1118 0062 0122     		movs	r2, #1
 1119 0064 83F82420 		strb	r2, [r3, #36]
ARM GAS  /tmp/ccxD5M1z.s 			page 28


 1120              	.L21:
 459:Lib/Camera_Middleware/sensors/imx335/imx335.c ****       }
 460:Lib/Camera_Middleware/sensors/imx335/imx335.c ****     }
 461:Lib/Camera_Middleware/sensors/imx335/imx335.c ****   }
 462:Lib/Camera_Middleware/sensors/imx335/imx335.c **** 
 463:Lib/Camera_Middleware/sensors/imx335/imx335.c ****   return ret;
 1121              		.loc 1 463 10
 1122 0068 7B69     		ldr	r3, [r7, #20]
 464:Lib/Camera_Middleware/sensors/imx335/imx335.c **** }
 1123              		.loc 1 464 1
 1124 006a 1846     		mov	r0, r3
 1125 006c 1837     		adds	r7, r7, #24
 1126              		.cfi_def_cfa_offset 8
 1127 006e BD46     		mov	sp, r7
 1128              		.cfi_def_cfa_register 13
 1129              		@ sp needed
 1130 0070 80BD     		pop	{r7, pc}
 1131              	.L29:
 1132 0072 00BF     		.align	2
 1133              	.L28:
 1134 0074 00000000 		.word	res_2592_1944_regs
 1135 0078 00000000 		.word	mode_2l_10b_regs
 1136              		.cfi_endproc
 1137              	.LFE146:
 1139              		.section	.text.IMX335_Start,"ax",%progbits
 1140              		.align	1
 1141              		.global	IMX335_Start
 1142              		.syntax unified
 1143              		.thumb
 1144              		.thumb_func
 1146              	IMX335_Start:
 1147              	.LFB147:
 465:Lib/Camera_Middleware/sensors/imx335/imx335.c **** 
 466:Lib/Camera_Middleware/sensors/imx335/imx335.c **** /**
 467:Lib/Camera_Middleware/sensors/imx335/imx335.c ****   * @brief  Initializes the IMX335 CAMERA component.
 468:Lib/Camera_Middleware/sensors/imx335/imx335.c ****   * @param  pObj  pointer to component object
 469:Lib/Camera_Middleware/sensors/imx335/imx335.c ****   * @param  Resolution  Camera resolution
 470:Lib/Camera_Middleware/sensors/imx335/imx335.c ****   * @param  PixelFormat pixel format to be configured
 471:Lib/Camera_Middleware/sensors/imx335/imx335.c ****   * @retval Component status
 472:Lib/Camera_Middleware/sensors/imx335/imx335.c ****   */
 473:Lib/Camera_Middleware/sensors/imx335/imx335.c **** int32_t IMX335_Start(IMX335_Object_t *pObj)
 474:Lib/Camera_Middleware/sensors/imx335/imx335.c **** {
 1148              		.loc 1 474 1
 1149              		.cfi_startproc
 1150              		@ args = 0, pretend = 0, frame = 16
 1151              		@ frame_needed = 1, uses_anonymous_args = 0
 1152 0000 80B5     		push	{r7, lr}
 1153              		.cfi_def_cfa_offset 8
 1154              		.cfi_offset 7, -8
 1155              		.cfi_offset 14, -4
 1156 0002 84B0     		sub	sp, sp, #16
 1157              		.cfi_def_cfa_offset 24
 1158 0004 00AF     		add	r7, sp, #0
 1159              		.cfi_def_cfa_register 7
 1160 0006 7860     		str	r0, [r7, #4]
 475:Lib/Camera_Middleware/sensors/imx335/imx335.c ****   uint8_t tmp;
 476:Lib/Camera_Middleware/sensors/imx335/imx335.c ****   int32_t ret = IMX335_OK;
ARM GAS  /tmp/ccxD5M1z.s 			page 29


 1161              		.loc 1 476 11
 1162 0008 0023     		movs	r3, #0
 1163 000a FB60     		str	r3, [r7, #12]
 477:Lib/Camera_Middleware/sensors/imx335/imx335.c ****   /* Start streaming */
 478:Lib/Camera_Middleware/sensors/imx335/imx335.c ****   tmp = IMX335_MODE_STREAMING;
 1164              		.loc 1 478 7
 1165 000c 0023     		movs	r3, #0
 1166 000e FB72     		strb	r3, [r7, #11]
 479:Lib/Camera_Middleware/sensors/imx335/imx335.c ****   ret = imx335_write_reg(&pObj->Ctx, IMX335_REG_MODE_SELECT, &tmp, 1);
 1167              		.loc 1 479 9
 1168 0010 7B68     		ldr	r3, [r7, #4]
 1169 0012 03F11800 		add	r0, r3, #24
 1170 0016 07F10B02 		add	r2, r7, #11
 1171 001a 0123     		movs	r3, #1
 1172 001c 4FF44051 		mov	r1, #12288
 1173 0020 FFF7FEFF 		bl	imx335_write_reg
 1174 0024 F860     		str	r0, [r7, #12]
 480:Lib/Camera_Middleware/sensors/imx335/imx335.c ****   if (ret != IMX335_OK)
 1175              		.loc 1 480 6
 1176 0026 FB68     		ldr	r3, [r7, #12]
 1177 0028 002B     		cmp	r3, #0
 1178 002a 02D0     		beq	.L31
 481:Lib/Camera_Middleware/sensors/imx335/imx335.c ****   {
 482:Lib/Camera_Middleware/sensors/imx335/imx335.c ****     return IMX335_ERROR;
 1179              		.loc 1 482 12
 1180 002c 4FF0FF33 		mov	r3, #-1
 1181 0030 04E0     		b	.L33
 1182              	.L31:
 483:Lib/Camera_Middleware/sensors/imx335/imx335.c ****   }
 484:Lib/Camera_Middleware/sensors/imx335/imx335.c ****   IMX335_Delay(pObj, 20);
 1183              		.loc 1 484 3
 1184 0032 1421     		movs	r1, #20
 1185 0034 7868     		ldr	r0, [r7, #4]
 1186 0036 FFF7FEFF 		bl	IMX335_Delay
 485:Lib/Camera_Middleware/sensors/imx335/imx335.c ****   return ret;
 1187              		.loc 1 485 10
 1188 003a FB68     		ldr	r3, [r7, #12]
 1189              	.L33:
 486:Lib/Camera_Middleware/sensors/imx335/imx335.c **** }
 1190              		.loc 1 486 1
 1191 003c 1846     		mov	r0, r3
 1192 003e 1037     		adds	r7, r7, #16
 1193              		.cfi_def_cfa_offset 8
 1194 0040 BD46     		mov	sp, r7
 1195              		.cfi_def_cfa_register 13
 1196              		@ sp needed
 1197 0042 80BD     		pop	{r7, pc}
 1198              		.cfi_endproc
 1199              	.LFE147:
 1201              		.section	.text.IMX335_DeInit,"ax",%progbits
 1202              		.align	1
 1203              		.global	IMX335_DeInit
 1204              		.syntax unified
 1205              		.thumb
 1206              		.thumb_func
 1208              	IMX335_DeInit:
 1209              	.LFB148:
ARM GAS  /tmp/ccxD5M1z.s 			page 30


 487:Lib/Camera_Middleware/sensors/imx335/imx335.c **** 
 488:Lib/Camera_Middleware/sensors/imx335/imx335.c **** /**
 489:Lib/Camera_Middleware/sensors/imx335/imx335.c ****   * @brief  De-initializes the camera sensor.
 490:Lib/Camera_Middleware/sensors/imx335/imx335.c ****   * @param  pObj  pointer to component object
 491:Lib/Camera_Middleware/sensors/imx335/imx335.c ****   * @retval Component status
 492:Lib/Camera_Middleware/sensors/imx335/imx335.c ****   */
 493:Lib/Camera_Middleware/sensors/imx335/imx335.c **** int32_t IMX335_DeInit(IMX335_Object_t *pObj)
 494:Lib/Camera_Middleware/sensors/imx335/imx335.c **** {
 1210              		.loc 1 494 1
 1211              		.cfi_startproc
 1212              		@ args = 0, pretend = 0, frame = 8
 1213              		@ frame_needed = 1, uses_anonymous_args = 0
 1214              		@ link register save eliminated.
 1215 0000 80B4     		push	{r7}
 1216              		.cfi_def_cfa_offset 4
 1217              		.cfi_offset 7, -4
 1218 0002 83B0     		sub	sp, sp, #12
 1219              		.cfi_def_cfa_offset 16
 1220 0004 00AF     		add	r7, sp, #0
 1221              		.cfi_def_cfa_register 7
 1222 0006 7860     		str	r0, [r7, #4]
 495:Lib/Camera_Middleware/sensors/imx335/imx335.c ****   if(pObj->IsInitialized == 1U)
 1223              		.loc 1 495 10
 1224 0008 7B68     		ldr	r3, [r7, #4]
 1225 000a 93F82430 		ldrb	r3, [r3, #36]	@ zero_extendqisi2
 1226              		.loc 1 495 5
 1227 000e 012B     		cmp	r3, #1
 1228 0010 03D1     		bne	.L35
 496:Lib/Camera_Middleware/sensors/imx335/imx335.c ****   {
 497:Lib/Camera_Middleware/sensors/imx335/imx335.c ****     /* De-initialize camera sensor interface */
 498:Lib/Camera_Middleware/sensors/imx335/imx335.c ****     pObj->IsInitialized = 0U;
 1229              		.loc 1 498 25
 1230 0012 7B68     		ldr	r3, [r7, #4]
 1231 0014 0022     		movs	r2, #0
 1232 0016 83F82420 		strb	r2, [r3, #36]
 1233              	.L35:
 499:Lib/Camera_Middleware/sensors/imx335/imx335.c ****   }
 500:Lib/Camera_Middleware/sensors/imx335/imx335.c **** 
 501:Lib/Camera_Middleware/sensors/imx335/imx335.c ****   return IMX335_OK;
 1234              		.loc 1 501 10
 1235 001a 0023     		movs	r3, #0
 502:Lib/Camera_Middleware/sensors/imx335/imx335.c **** }
 1236              		.loc 1 502 1
 1237 001c 1846     		mov	r0, r3
 1238 001e 0C37     		adds	r7, r7, #12
 1239              		.cfi_def_cfa_offset 4
 1240 0020 BD46     		mov	sp, r7
 1241              		.cfi_def_cfa_register 13
 1242              		@ sp needed
 1243 0022 5DF8047B 		ldr	r7, [sp], #4
 1244              		.cfi_restore 7
 1245              		.cfi_def_cfa_offset 0
 1246 0026 7047     		bx	lr
 1247              		.cfi_endproc
 1248              	.LFE148:
 1250              		.section	.text.IMX335_ReadID,"ax",%progbits
 1251              		.align	1
ARM GAS  /tmp/ccxD5M1z.s 			page 31


 1252              		.global	IMX335_ReadID
 1253              		.syntax unified
 1254              		.thumb
 1255              		.thumb_func
 1257              	IMX335_ReadID:
 1258              	.LFB149:
 503:Lib/Camera_Middleware/sensors/imx335/imx335.c **** 
 504:Lib/Camera_Middleware/sensors/imx335/imx335.c **** /**
 505:Lib/Camera_Middleware/sensors/imx335/imx335.c ****   * @brief  Read the IMX335 Camera identity.
 506:Lib/Camera_Middleware/sensors/imx335/imx335.c ****   * @param  pObj  pointer to component object
 507:Lib/Camera_Middleware/sensors/imx335/imx335.c ****   * @param  Id    pointer to component ID
 508:Lib/Camera_Middleware/sensors/imx335/imx335.c ****   * @retval Component status
 509:Lib/Camera_Middleware/sensors/imx335/imx335.c ****   */
 510:Lib/Camera_Middleware/sensors/imx335/imx335.c **** int32_t IMX335_ReadID(IMX335_Object_t *pObj, uint32_t *Id)
 511:Lib/Camera_Middleware/sensors/imx335/imx335.c **** {
 1259              		.loc 1 511 1
 1260              		.cfi_startproc
 1261              		@ args = 0, pretend = 0, frame = 16
 1262              		@ frame_needed = 1, uses_anonymous_args = 0
 1263 0000 80B5     		push	{r7, lr}
 1264              		.cfi_def_cfa_offset 8
 1265              		.cfi_offset 7, -8
 1266              		.cfi_offset 14, -4
 1267 0002 84B0     		sub	sp, sp, #16
 1268              		.cfi_def_cfa_offset 24
 1269 0004 00AF     		add	r7, sp, #0
 1270              		.cfi_def_cfa_register 7
 1271 0006 7860     		str	r0, [r7, #4]
 1272 0008 3960     		str	r1, [r7]
 512:Lib/Camera_Middleware/sensors/imx335/imx335.c ****   int32_t ret;
 513:Lib/Camera_Middleware/sensors/imx335/imx335.c ****   uint8_t tmp;
 514:Lib/Camera_Middleware/sensors/imx335/imx335.c **** 
 515:Lib/Camera_Middleware/sensors/imx335/imx335.c ****   /* Initialize I2C */
 516:Lib/Camera_Middleware/sensors/imx335/imx335.c ****   pObj->IO.Init();
 1273              		.loc 1 516 11
 1274 000a 7B68     		ldr	r3, [r7, #4]
 1275 000c 1B68     		ldr	r3, [r3]
 1276              		.loc 1 516 3
 1277 000e 9847     		blx	r3
 1278              	.LVL5:
 517:Lib/Camera_Middleware/sensors/imx335/imx335.c **** 
 518:Lib/Camera_Middleware/sensors/imx335/imx335.c ****   if(imx335_read_reg(&pObj->Ctx, IMX335_REG_ID, &tmp, 1)!= IMX335_OK)
 1279              		.loc 1 518 6
 1280 0010 7B68     		ldr	r3, [r7, #4]
 1281 0012 03F11800 		add	r0, r3, #24
 1282 0016 07F10B02 		add	r2, r7, #11
 1283 001a 0123     		movs	r3, #1
 1284 001c 43F61211 		movw	r1, #14610
 1285 0020 FFF7FEFF 		bl	imx335_read_reg
 1286 0024 0346     		mov	r3, r0
 1287              		.loc 1 518 5 discriminator 1
 1288 0026 002B     		cmp	r3, #0
 1289 0028 03D0     		beq	.L38
 519:Lib/Camera_Middleware/sensors/imx335/imx335.c ****   {
 520:Lib/Camera_Middleware/sensors/imx335/imx335.c ****     ret = IMX335_ERROR;
 1290              		.loc 1 520 9
 1291 002a 4FF0FF33 		mov	r3, #-1
ARM GAS  /tmp/ccxD5M1z.s 			page 32


 1292 002e FB60     		str	r3, [r7, #12]
 1293 0030 05E0     		b	.L39
 1294              	.L38:
 521:Lib/Camera_Middleware/sensors/imx335/imx335.c ****   }
 522:Lib/Camera_Middleware/sensors/imx335/imx335.c ****   else
 523:Lib/Camera_Middleware/sensors/imx335/imx335.c ****   {
 524:Lib/Camera_Middleware/sensors/imx335/imx335.c ****     *Id = tmp;
 1295              		.loc 1 524 9
 1296 0032 FB7A     		ldrb	r3, [r7, #11]	@ zero_extendqisi2
 1297 0034 1A46     		mov	r2, r3
 1298 0036 3B68     		ldr	r3, [r7]
 1299 0038 1A60     		str	r2, [r3]
 525:Lib/Camera_Middleware/sensors/imx335/imx335.c ****     ret = IMX335_OK;
 1300              		.loc 1 525 9
 1301 003a 0023     		movs	r3, #0
 1302 003c FB60     		str	r3, [r7, #12]
 1303              	.L39:
 526:Lib/Camera_Middleware/sensors/imx335/imx335.c ****   }
 527:Lib/Camera_Middleware/sensors/imx335/imx335.c **** 
 528:Lib/Camera_Middleware/sensors/imx335/imx335.c ****   /* Component status */
 529:Lib/Camera_Middleware/sensors/imx335/imx335.c ****   return ret;
 1304              		.loc 1 529 10
 1305 003e FB68     		ldr	r3, [r7, #12]
 530:Lib/Camera_Middleware/sensors/imx335/imx335.c **** }
 1306              		.loc 1 530 1
 1307 0040 1846     		mov	r0, r3
 1308 0042 1037     		adds	r7, r7, #16
 1309              		.cfi_def_cfa_offset 8
 1310 0044 BD46     		mov	sp, r7
 1311              		.cfi_def_cfa_register 13
 1312              		@ sp needed
 1313 0046 80BD     		pop	{r7, pc}
 1314              		.cfi_endproc
 1315              	.LFE149:
 1317              		.section	.text.IMX335_GetCapabilities,"ax",%progbits
 1318              		.align	1
 1319              		.global	IMX335_GetCapabilities
 1320              		.syntax unified
 1321              		.thumb
 1322              		.thumb_func
 1324              	IMX335_GetCapabilities:
 1325              	.LFB150:
 531:Lib/Camera_Middleware/sensors/imx335/imx335.c **** 
 532:Lib/Camera_Middleware/sensors/imx335/imx335.c **** /**
 533:Lib/Camera_Middleware/sensors/imx335/imx335.c ****   * @brief  Read the IMX335 Camera Capabilities.
 534:Lib/Camera_Middleware/sensors/imx335/imx335.c ****   * @param  pObj          pointer to component object
 535:Lib/Camera_Middleware/sensors/imx335/imx335.c ****   * @param  Capabilities  pointer to component Capabilities
 536:Lib/Camera_Middleware/sensors/imx335/imx335.c ****   * @retval Component status
 537:Lib/Camera_Middleware/sensors/imx335/imx335.c ****   */
 538:Lib/Camera_Middleware/sensors/imx335/imx335.c **** int32_t IMX335_GetCapabilities(IMX335_Object_t *pObj, IMX335_Capabilities_t *Capabilities)
 539:Lib/Camera_Middleware/sensors/imx335/imx335.c **** {
 1326              		.loc 1 539 1
 1327              		.cfi_startproc
 1328              		@ args = 0, pretend = 0, frame = 16
 1329              		@ frame_needed = 1, uses_anonymous_args = 0
 1330              		@ link register save eliminated.
 1331 0000 80B4     		push	{r7}
ARM GAS  /tmp/ccxD5M1z.s 			page 33


 1332              		.cfi_def_cfa_offset 4
 1333              		.cfi_offset 7, -4
 1334 0002 85B0     		sub	sp, sp, #20
 1335              		.cfi_def_cfa_offset 24
 1336 0004 00AF     		add	r7, sp, #0
 1337              		.cfi_def_cfa_register 7
 1338 0006 7860     		str	r0, [r7, #4]
 1339 0008 3960     		str	r1, [r7]
 540:Lib/Camera_Middleware/sensors/imx335/imx335.c ****   int32_t ret;
 541:Lib/Camera_Middleware/sensors/imx335/imx335.c **** 
 542:Lib/Camera_Middleware/sensors/imx335/imx335.c ****   if(pObj == NULL)
 1340              		.loc 1 542 5
 1341 000a 7B68     		ldr	r3, [r7, #4]
 1342 000c 002B     		cmp	r3, #0
 1343 000e 03D1     		bne	.L42
 543:Lib/Camera_Middleware/sensors/imx335/imx335.c ****   {
 544:Lib/Camera_Middleware/sensors/imx335/imx335.c ****     ret = IMX335_ERROR;
 1344              		.loc 1 544 9
 1345 0010 4FF0FF33 		mov	r3, #-1
 1346 0014 FB60     		str	r3, [r7, #12]
 1347 0016 2EE0     		b	.L43
 1348              	.L42:
 545:Lib/Camera_Middleware/sensors/imx335/imx335.c ****   }
 546:Lib/Camera_Middleware/sensors/imx335/imx335.c ****   else
 547:Lib/Camera_Middleware/sensors/imx335/imx335.c ****   {
 548:Lib/Camera_Middleware/sensors/imx335/imx335.c ****     Capabilities->Config_Brightness    = 0;
 1349              		.loc 1 548 40
 1350 0018 3B68     		ldr	r3, [r7]
 1351 001a 0022     		movs	r2, #0
 1352 001c DA60     		str	r2, [r3, #12]
 549:Lib/Camera_Middleware/sensors/imx335/imx335.c ****     Capabilities->Config_Contrast      = 0;
 1353              		.loc 1 549 40
 1354 001e 3B68     		ldr	r3, [r7]
 1355 0020 0022     		movs	r2, #0
 1356 0022 5A61     		str	r2, [r3, #20]
 550:Lib/Camera_Middleware/sensors/imx335/imx335.c ****     Capabilities->Config_HueDegree     = 0;
 1357              		.loc 1 550 40
 1358 0024 3B68     		ldr	r3, [r7]
 1359 0026 0022     		movs	r2, #0
 1360 0028 9A61     		str	r2, [r3, #24]
 551:Lib/Camera_Middleware/sensors/imx335/imx335.c ****     Capabilities->Config_Gain          = 1;
 1361              		.loc 1 551 40
 1362 002a 3B68     		ldr	r3, [r7]
 1363 002c 0122     		movs	r2, #1
 1364 002e DA61     		str	r2, [r3, #28]
 552:Lib/Camera_Middleware/sensors/imx335/imx335.c ****     Capabilities->Config_Exposure      = 1;
 1365              		.loc 1 552 40
 1366 0030 3B68     		ldr	r3, [r7]
 1367 0032 0122     		movs	r2, #1
 1368 0034 1A62     		str	r2, [r3, #32]
 553:Lib/Camera_Middleware/sensors/imx335/imx335.c ****     Capabilities->Config_ExposureMode  = 0;
 1369              		.loc 1 553 40
 1370 0036 3B68     		ldr	r3, [r7]
 1371 0038 0022     		movs	r2, #0
 1372 003a 1A63     		str	r2, [r3, #48]
 554:Lib/Camera_Middleware/sensors/imx335/imx335.c ****     Capabilities->Config_LightMode     = 0;
 1373              		.loc 1 554 40
ARM GAS  /tmp/ccxD5M1z.s 			page 34


 1374 003c 3B68     		ldr	r3, [r7]
 1375 003e 0022     		movs	r2, #0
 1376 0040 5A60     		str	r2, [r3, #4]
 555:Lib/Camera_Middleware/sensors/imx335/imx335.c ****     Capabilities->Config_MirrorFlip    = 1;
 1377              		.loc 1 555 40
 1378 0042 3B68     		ldr	r3, [r7]
 1379 0044 0122     		movs	r2, #1
 1380 0046 5A62     		str	r2, [r3, #36]
 556:Lib/Camera_Middleware/sensors/imx335/imx335.c ****     Capabilities->Config_NightMode     = 0;
 1381              		.loc 1 556 40
 1382 0048 3B68     		ldr	r3, [r7]
 1383 004a 0022     		movs	r2, #0
 1384 004c DA62     		str	r2, [r3, #44]
 557:Lib/Camera_Middleware/sensors/imx335/imx335.c ****     Capabilities->Config_Resolution    = 0;
 1385              		.loc 1 557 40
 1386 004e 3B68     		ldr	r3, [r7]
 1387 0050 0022     		movs	r2, #0
 1388 0052 1A60     		str	r2, [r3]
 558:Lib/Camera_Middleware/sensors/imx335/imx335.c ****     Capabilities->Config_Saturation    = 0;
 1389              		.loc 1 558 40
 1390 0054 3B68     		ldr	r3, [r7]
 1391 0056 0022     		movs	r2, #0
 1392 0058 1A61     		str	r2, [r3, #16]
 559:Lib/Camera_Middleware/sensors/imx335/imx335.c ****     Capabilities->Config_SpecialEffect = 0;
 1393              		.loc 1 559 40
 1394 005a 3B68     		ldr	r3, [r7]
 1395 005c 0022     		movs	r2, #0
 1396 005e 9A60     		str	r2, [r3, #8]
 560:Lib/Camera_Middleware/sensors/imx335/imx335.c ****     Capabilities->Config_Zoom          = 0;
 1397              		.loc 1 560 40
 1398 0060 3B68     		ldr	r3, [r7]
 1399 0062 0022     		movs	r2, #0
 1400 0064 9A62     		str	r2, [r3, #40]
 561:Lib/Camera_Middleware/sensors/imx335/imx335.c ****     Capabilities->Config_SensorInfo    = 1;
 1401              		.loc 1 561 40
 1402 0066 3B68     		ldr	r3, [r7]
 1403 0068 0122     		movs	r2, #1
 1404 006a 5A63     		str	r2, [r3, #52]
 562:Lib/Camera_Middleware/sensors/imx335/imx335.c ****     Capabilities->Config_TestPattern   = 1;
 1405              		.loc 1 562 40
 1406 006c 3B68     		ldr	r3, [r7]
 1407 006e 0122     		movs	r2, #1
 1408 0070 9A63     		str	r2, [r3, #56]
 563:Lib/Camera_Middleware/sensors/imx335/imx335.c **** 
 564:Lib/Camera_Middleware/sensors/imx335/imx335.c ****     ret = IMX335_OK;
 1409              		.loc 1 564 9
 1410 0072 0023     		movs	r3, #0
 1411 0074 FB60     		str	r3, [r7, #12]
 1412              	.L43:
 565:Lib/Camera_Middleware/sensors/imx335/imx335.c ****   }
 566:Lib/Camera_Middleware/sensors/imx335/imx335.c **** 
 567:Lib/Camera_Middleware/sensors/imx335/imx335.c ****   return ret;
 1413              		.loc 1 567 10
 1414 0076 FB68     		ldr	r3, [r7, #12]
 568:Lib/Camera_Middleware/sensors/imx335/imx335.c **** }
 1415              		.loc 1 568 1
 1416 0078 1846     		mov	r0, r3
ARM GAS  /tmp/ccxD5M1z.s 			page 35


 1417 007a 1437     		adds	r7, r7, #20
 1418              		.cfi_def_cfa_offset 4
 1419 007c BD46     		mov	sp, r7
 1420              		.cfi_def_cfa_register 13
 1421              		@ sp needed
 1422 007e 5DF8047B 		ldr	r7, [sp], #4
 1423              		.cfi_restore 7
 1424              		.cfi_def_cfa_offset 0
 1425 0082 7047     		bx	lr
 1426              		.cfi_endproc
 1427              	.LFE150:
 1429              		.section	.text.IMX335_SetGain,"ax",%progbits
 1430              		.align	1
 1431              		.global	IMX335_SetGain
 1432              		.syntax unified
 1433              		.thumb
 1434              		.thumb_func
 1436              	IMX335_SetGain:
 1437              	.LFB151:
 569:Lib/Camera_Middleware/sensors/imx335/imx335.c **** 
 570:Lib/Camera_Middleware/sensors/imx335/imx335.c **** /**
 571:Lib/Camera_Middleware/sensors/imx335/imx335.c ****   * @brief  Set the gain
 572:Lib/Camera_Middleware/sensors/imx335/imx335.c ****   * @param  pObj  pointer to component object
 573:Lib/Camera_Middleware/sensors/imx335/imx335.c ****   * @param  Gain Gain in mdB
 574:Lib/Camera_Middleware/sensors/imx335/imx335.c ****   * @retval Component status
 575:Lib/Camera_Middleware/sensors/imx335/imx335.c ****   */
 576:Lib/Camera_Middleware/sensors/imx335/imx335.c **** int32_t IMX335_SetGain(IMX335_Object_t *pObj, int32_t gain)
 577:Lib/Camera_Middleware/sensors/imx335/imx335.c **** {
 1438              		.loc 1 577 1
 1439              		.cfi_startproc
 1440              		@ args = 0, pretend = 0, frame = 16
 1441              		@ frame_needed = 1, uses_anonymous_args = 0
 1442 0000 80B5     		push	{r7, lr}
 1443              		.cfi_def_cfa_offset 8
 1444              		.cfi_offset 7, -8
 1445              		.cfi_offset 14, -4
 1446 0002 84B0     		sub	sp, sp, #16
 1447              		.cfi_def_cfa_offset 24
 1448 0004 00AF     		add	r7, sp, #0
 1449              		.cfi_def_cfa_register 7
 1450 0006 7860     		str	r0, [r7, #4]
 1451 0008 3960     		str	r1, [r7]
 578:Lib/Camera_Middleware/sensors/imx335/imx335.c ****   int32_t ret = IMX335_OK;
 1452              		.loc 1 578 11
 1453 000a 0023     		movs	r3, #0
 1454 000c FB60     		str	r3, [r7, #12]
 579:Lib/Camera_Middleware/sensors/imx335/imx335.c ****   uint8_t hold;
 580:Lib/Camera_Middleware/sensors/imx335/imx335.c **** 
 581:Lib/Camera_Middleware/sensors/imx335/imx335.c ****   if ((gain > IMX335_GAIN_MAX) || (gain < IMX335_GAIN_MIN))
 1455              		.loc 1 581 13
 1456 000e 3B68     		ldr	r3, [r7]
 1457              		.loc 1 581 6
 1458 0010 254A     		ldr	r2, .L52
 1459 0012 9342     		cmp	r3, r2
 1460 0014 02DC     		bgt	.L46
 1461              		.loc 1 581 41 discriminator 1
 1462 0016 3B68     		ldr	r3, [r7]
ARM GAS  /tmp/ccxD5M1z.s 			page 36


 1463              		.loc 1 581 32 discriminator 1
 1464 0018 002B     		cmp	r3, #0
 1465 001a 03DA     		bge	.L47
 1466              	.L46:
 582:Lib/Camera_Middleware/sensors/imx335/imx335.c ****   {
 583:Lib/Camera_Middleware/sensors/imx335/imx335.c ****     ret = IMX335_ERROR;
 1467              		.loc 1 583 9
 1468 001c 4FF0FF33 		mov	r3, #-1
 1469 0020 FB60     		str	r3, [r7, #12]
 1470 0022 3CE0     		b	.L48
 1471              	.L47:
 584:Lib/Camera_Middleware/sensors/imx335/imx335.c ****   }
 585:Lib/Camera_Middleware/sensors/imx335/imx335.c ****   else
 586:Lib/Camera_Middleware/sensors/imx335/imx335.c ****   {
 587:Lib/Camera_Middleware/sensors/imx335/imx335.c ****     /* Convert to IMX335 gain unit (0.3 dB = 300 mdB) */
 588:Lib/Camera_Middleware/sensors/imx335/imx335.c ****     gain /= IMX335_GAIN_UNIT_MDB;
 1472              		.loc 1 588 10
 1473 0024 3B68     		ldr	r3, [r7]
 1474 0026 214A     		ldr	r2, .L52+4
 1475 0028 82FB0312 		smull	r1, r2, r2, r3
 1476 002c 5211     		asrs	r2, r2, #5
 1477 002e DB17     		asrs	r3, r3, #31
 1478 0030 D31A     		subs	r3, r2, r3
 1479 0032 3B60     		str	r3, [r7]
 589:Lib/Camera_Middleware/sensors/imx335/imx335.c **** 
 590:Lib/Camera_Middleware/sensors/imx335/imx335.c ****     hold = 1;
 1480              		.loc 1 590 10
 1481 0034 0123     		movs	r3, #1
 1482 0036 FB72     		strb	r3, [r7, #11]
 591:Lib/Camera_Middleware/sensors/imx335/imx335.c ****     if(imx335_write_reg(&pObj->Ctx, IMX335_REG_HOLD, &hold, 1) != IMX335_OK)
 1483              		.loc 1 591 8
 1484 0038 7B68     		ldr	r3, [r7, #4]
 1485 003a 03F11800 		add	r0, r3, #24
 1486 003e 07F10B02 		add	r2, r7, #11
 1487 0042 0123     		movs	r3, #1
 1488 0044 43F20101 		movw	r1, #12289
 1489 0048 FFF7FEFF 		bl	imx335_write_reg
 1490 004c 0346     		mov	r3, r0
 1491              		.loc 1 591 7 discriminator 1
 1492 004e 002B     		cmp	r3, #0
 1493 0050 03D0     		beq	.L49
 592:Lib/Camera_Middleware/sensors/imx335/imx335.c ****     {
 593:Lib/Camera_Middleware/sensors/imx335/imx335.c ****       ret = IMX335_ERROR;
 1494              		.loc 1 593 11
 1495 0052 4FF0FF33 		mov	r3, #-1
 1496 0056 FB60     		str	r3, [r7, #12]
 1497 0058 21E0     		b	.L48
 1498              	.L49:
 594:Lib/Camera_Middleware/sensors/imx335/imx335.c ****     }
 595:Lib/Camera_Middleware/sensors/imx335/imx335.c ****     else
 596:Lib/Camera_Middleware/sensors/imx335/imx335.c ****     {
 597:Lib/Camera_Middleware/sensors/imx335/imx335.c ****       if(imx335_write_reg(&pObj->Ctx, IMX335_REG_GAIN, (uint8_t *)&gain, 2) != IMX335_OK)
 1499              		.loc 1 597 10
 1500 005a 7B68     		ldr	r3, [r7, #4]
 1501 005c 03F11800 		add	r0, r3, #24
 1502 0060 3A46     		mov	r2, r7
 1503 0062 0223     		movs	r3, #2
ARM GAS  /tmp/ccxD5M1z.s 			page 37


 1504 0064 43F2E801 		movw	r1, #12520
 1505 0068 FFF7FEFF 		bl	imx335_write_reg
 1506 006c 0346     		mov	r3, r0
 1507              		.loc 1 597 9 discriminator 1
 1508 006e 002B     		cmp	r3, #0
 1509 0070 03D0     		beq	.L50
 598:Lib/Camera_Middleware/sensors/imx335/imx335.c ****       {
 599:Lib/Camera_Middleware/sensors/imx335/imx335.c ****         ret = IMX335_ERROR;
 1510              		.loc 1 599 13
 1511 0072 4FF0FF33 		mov	r3, #-1
 1512 0076 FB60     		str	r3, [r7, #12]
 1513 0078 11E0     		b	.L48
 1514              	.L50:
 600:Lib/Camera_Middleware/sensors/imx335/imx335.c ****       }
 601:Lib/Camera_Middleware/sensors/imx335/imx335.c ****       else
 602:Lib/Camera_Middleware/sensors/imx335/imx335.c ****       {
 603:Lib/Camera_Middleware/sensors/imx335/imx335.c ****         hold = 0;
 1515              		.loc 1 603 14
 1516 007a 0023     		movs	r3, #0
 1517 007c FB72     		strb	r3, [r7, #11]
 604:Lib/Camera_Middleware/sensors/imx335/imx335.c ****         if(imx335_write_reg(&pObj->Ctx, IMX335_REG_HOLD, &hold, 1) != IMX335_OK)
 1518              		.loc 1 604 12
 1519 007e 7B68     		ldr	r3, [r7, #4]
 1520 0080 03F11800 		add	r0, r3, #24
 1521 0084 07F10B02 		add	r2, r7, #11
 1522 0088 0123     		movs	r3, #1
 1523 008a 43F20101 		movw	r1, #12289
 1524 008e FFF7FEFF 		bl	imx335_write_reg
 1525 0092 0346     		mov	r3, r0
 1526              		.loc 1 604 11 discriminator 1
 1527 0094 002B     		cmp	r3, #0
 1528 0096 02D0     		beq	.L48
 605:Lib/Camera_Middleware/sensors/imx335/imx335.c ****         {
 606:Lib/Camera_Middleware/sensors/imx335/imx335.c ****           ret = IMX335_ERROR;
 1529              		.loc 1 606 15
 1530 0098 4FF0FF33 		mov	r3, #-1
 1531 009c FB60     		str	r3, [r7, #12]
 1532              	.L48:
 607:Lib/Camera_Middleware/sensors/imx335/imx335.c ****         }
 608:Lib/Camera_Middleware/sensors/imx335/imx335.c ****       }
 609:Lib/Camera_Middleware/sensors/imx335/imx335.c ****     }
 610:Lib/Camera_Middleware/sensors/imx335/imx335.c ****   }
 611:Lib/Camera_Middleware/sensors/imx335/imx335.c **** 
 612:Lib/Camera_Middleware/sensors/imx335/imx335.c **** return ret;
 1533              		.loc 1 612 8
 1534 009e FB68     		ldr	r3, [r7, #12]
 613:Lib/Camera_Middleware/sensors/imx335/imx335.c **** }
 1535              		.loc 1 613 1
 1536 00a0 1846     		mov	r0, r3
 1537 00a2 1037     		adds	r7, r7, #16
 1538              		.cfi_def_cfa_offset 8
 1539 00a4 BD46     		mov	sp, r7
 1540              		.cfi_def_cfa_register 13
 1541              		@ sp needed
 1542 00a6 80BD     		pop	{r7, pc}
 1543              	.L53:
 1544              		.align	2
ARM GAS  /tmp/ccxD5M1z.s 			page 38


 1545              	.L52:
 1546 00a8 40190100 		.word	72000
 1547 00ac B5814E1B 		.word	458129845
 1548              		.cfi_endproc
 1549              	.LFE151:
 1551              		.section	.text.IMX335_SetExposure,"ax",%progbits
 1552              		.align	1
 1553              		.global	IMX335_SetExposure
 1554              		.syntax unified
 1555              		.thumb
 1556              		.thumb_func
 1558              	IMX335_SetExposure:
 1559              	.LFB152:
 614:Lib/Camera_Middleware/sensors/imx335/imx335.c **** 
 615:Lib/Camera_Middleware/sensors/imx335/imx335.c **** /**
 616:Lib/Camera_Middleware/sensors/imx335/imx335.c ****   * @brief  Set the exposure
 617:Lib/Camera_Middleware/sensors/imx335/imx335.c ****   * @param  pObj  pointer to component object
 618:Lib/Camera_Middleware/sensors/imx335/imx335.c ****   * @param  Exposure Exposure in micro seconds
 619:Lib/Camera_Middleware/sensors/imx335/imx335.c ****   * @retval Component status
 620:Lib/Camera_Middleware/sensors/imx335/imx335.c ****   */
 621:Lib/Camera_Middleware/sensors/imx335/imx335.c **** int32_t IMX335_SetExposure(IMX335_Object_t *pObj, int32_t exposure)
 622:Lib/Camera_Middleware/sensors/imx335/imx335.c **** {
 1560              		.loc 1 622 1
 1561              		.cfi_startproc
 1562              		@ args = 0, pretend = 0, frame = 24
 1563              		@ frame_needed = 1, uses_anonymous_args = 0
 1564 0000 80B5     		push	{r7, lr}
 1565              		.cfi_def_cfa_offset 8
 1566              		.cfi_offset 7, -8
 1567              		.cfi_offset 14, -4
 1568 0002 86B0     		sub	sp, sp, #24
 1569              		.cfi_def_cfa_offset 32
 1570 0004 00AF     		add	r7, sp, #0
 1571              		.cfi_def_cfa_register 7
 1572 0006 7860     		str	r0, [r7, #4]
 1573 0008 3960     		str	r1, [r7]
 623:Lib/Camera_Middleware/sensors/imx335/imx335.c ****   int32_t ret = IMX335_OK;
 1574              		.loc 1 623 11
 1575 000a 0023     		movs	r3, #0
 1576 000c 7B61     		str	r3, [r7, #20]
 624:Lib/Camera_Middleware/sensors/imx335/imx335.c ****   uint32_t vmax, shutter;
 625:Lib/Camera_Middleware/sensors/imx335/imx335.c ****   uint8_t hold;
 626:Lib/Camera_Middleware/sensors/imx335/imx335.c **** 
 627:Lib/Camera_Middleware/sensors/imx335/imx335.c **** 
 628:Lib/Camera_Middleware/sensors/imx335/imx335.c ****   if (imx335_read_reg(&pObj->Ctx, IMX335_REG_VMAX, (uint8_t *)&vmax, 4) != IMX335_OK)
 1577              		.loc 1 628 7
 1578 000e 7B68     		ldr	r3, [r7, #4]
 1579 0010 03F11800 		add	r0, r3, #24
 1580 0014 07F11002 		add	r2, r7, #16
 1581 0018 0423     		movs	r3, #4
 1582 001a 43F23001 		movw	r1, #12336
 1583 001e FFF7FEFF 		bl	imx335_read_reg
 1584 0022 0346     		mov	r3, r0
 1585              		.loc 1 628 6 discriminator 1
 1586 0024 002B     		cmp	r3, #0
 1587 0026 03D0     		beq	.L55
 629:Lib/Camera_Middleware/sensors/imx335/imx335.c ****   {
ARM GAS  /tmp/ccxD5M1z.s 			page 39


 630:Lib/Camera_Middleware/sensors/imx335/imx335.c ****     ret = IMX335_ERROR;
 1588              		.loc 1 630 9
 1589 0028 4FF0FF33 		mov	r3, #-1
 1590 002c 7B61     		str	r3, [r7, #20]
 1591 002e 51E0     		b	.L56
 1592              	.L55:
 631:Lib/Camera_Middleware/sensors/imx335/imx335.c ****   }
 632:Lib/Camera_Middleware/sensors/imx335/imx335.c ****   else
 633:Lib/Camera_Middleware/sensors/imx335/imx335.c ****   {
 634:Lib/Camera_Middleware/sensors/imx335/imx335.c ****     shutter = (uint32_t) (vmax - (exposure / IMX335_1H_PERIOD_USEC));
 1593              		.loc 1 634 32
 1594 0030 3B69     		ldr	r3, [r7, #16]
 1595 0032 07EE903A 		vmov	s15, r3	@ int
 1596 0036 B8EE677A 		vcvt.f32.u32	s14, s15
 1597              		.loc 1 634 44
 1598 003a 3B68     		ldr	r3, [r7]
 1599 003c 07EE903A 		vmov	s15, r3	@ int
 1600 0040 F8EEE76A 		vcvt.f32.s32	s13, s15
 1601 0044 9FED266A 		vldr.32	s12, .L61
 1602 0048 C6EE867A 		vdiv.f32	s15, s13, s12
 1603              		.loc 1 634 32
 1604 004c 77EE677A 		vsub.f32	s15, s14, s15
 1605              		.loc 1 634 15
 1606 0050 FCEEE77A 		vcvt.u32.f32	s15, s15
 1607 0054 17EE903A 		vmov	r3, s15	@ int
 1608              		.loc 1 634 13
 1609 0058 FB60     		str	r3, [r7, #12]
 635:Lib/Camera_Middleware/sensors/imx335/imx335.c **** 
 636:Lib/Camera_Middleware/sensors/imx335/imx335.c ****     if (shutter < IMX335_SHUTTER_MIN)
 1610              		.loc 1 636 17
 1611 005a FB68     		ldr	r3, [r7, #12]
 1612              		.loc 1 636 8
 1613 005c 082B     		cmp	r3, #8
 1614 005e 03D8     		bhi	.L57
 637:Lib/Camera_Middleware/sensors/imx335/imx335.c ****     {
 638:Lib/Camera_Middleware/sensors/imx335/imx335.c ****       ret = IMX335_ERROR;
 1615              		.loc 1 638 11
 1616 0060 4FF0FF33 		mov	r3, #-1
 1617 0064 7B61     		str	r3, [r7, #20]
 1618 0066 35E0     		b	.L56
 1619              	.L57:
 639:Lib/Camera_Middleware/sensors/imx335/imx335.c ****     }
 640:Lib/Camera_Middleware/sensors/imx335/imx335.c ****     else
 641:Lib/Camera_Middleware/sensors/imx335/imx335.c ****     {
 642:Lib/Camera_Middleware/sensors/imx335/imx335.c ****       hold = 1;
 1620              		.loc 1 642 12
 1621 0068 0123     		movs	r3, #1
 1622 006a FB72     		strb	r3, [r7, #11]
 643:Lib/Camera_Middleware/sensors/imx335/imx335.c ****       if(imx335_write_reg(&pObj->Ctx, IMX335_REG_HOLD, &hold, 1) != IMX335_OK)
 1623              		.loc 1 643 10
 1624 006c 7B68     		ldr	r3, [r7, #4]
 1625 006e 03F11800 		add	r0, r3, #24
 1626 0072 07F10B02 		add	r2, r7, #11
 1627 0076 0123     		movs	r3, #1
 1628 0078 43F20101 		movw	r1, #12289
 1629 007c FFF7FEFF 		bl	imx335_write_reg
 1630 0080 0346     		mov	r3, r0
ARM GAS  /tmp/ccxD5M1z.s 			page 40


 1631              		.loc 1 643 9 discriminator 1
 1632 0082 002B     		cmp	r3, #0
 1633 0084 03D0     		beq	.L58
 644:Lib/Camera_Middleware/sensors/imx335/imx335.c ****       {
 645:Lib/Camera_Middleware/sensors/imx335/imx335.c ****         ret = IMX335_ERROR;
 1634              		.loc 1 645 13
 1635 0086 4FF0FF33 		mov	r3, #-1
 1636 008a 7B61     		str	r3, [r7, #20]
 1637 008c 22E0     		b	.L56
 1638              	.L58:
 646:Lib/Camera_Middleware/sensors/imx335/imx335.c ****       }
 647:Lib/Camera_Middleware/sensors/imx335/imx335.c ****       else
 648:Lib/Camera_Middleware/sensors/imx335/imx335.c ****       {
 649:Lib/Camera_Middleware/sensors/imx335/imx335.c ****         if(imx335_write_reg(&pObj->Ctx, IMX335_REG_SHUTTER, (uint8_t *)&shutter, 3) != IMX335_OK)
 1639              		.loc 1 649 12
 1640 008e 7B68     		ldr	r3, [r7, #4]
 1641 0090 03F11800 		add	r0, r3, #24
 1642 0094 07F10C02 		add	r2, r7, #12
 1643 0098 0323     		movs	r3, #3
 1644 009a 43F25801 		movw	r1, #12376
 1645 009e FFF7FEFF 		bl	imx335_write_reg
 1646 00a2 0346     		mov	r3, r0
 1647              		.loc 1 649 11 discriminator 1
 1648 00a4 002B     		cmp	r3, #0
 1649 00a6 03D0     		beq	.L59
 650:Lib/Camera_Middleware/sensors/imx335/imx335.c ****         {
 651:Lib/Camera_Middleware/sensors/imx335/imx335.c ****           ret = IMX335_ERROR;
 1650              		.loc 1 651 15
 1651 00a8 4FF0FF33 		mov	r3, #-1
 1652 00ac 7B61     		str	r3, [r7, #20]
 1653 00ae 11E0     		b	.L56
 1654              	.L59:
 652:Lib/Camera_Middleware/sensors/imx335/imx335.c ****         }
 653:Lib/Camera_Middleware/sensors/imx335/imx335.c ****         else
 654:Lib/Camera_Middleware/sensors/imx335/imx335.c ****         {
 655:Lib/Camera_Middleware/sensors/imx335/imx335.c ****           hold = 0;
 1655              		.loc 1 655 16
 1656 00b0 0023     		movs	r3, #0
 1657 00b2 FB72     		strb	r3, [r7, #11]
 656:Lib/Camera_Middleware/sensors/imx335/imx335.c ****           if(imx335_write_reg(&pObj->Ctx, IMX335_REG_HOLD, &hold, 1) != IMX335_OK)
 1658              		.loc 1 656 14
 1659 00b4 7B68     		ldr	r3, [r7, #4]
 1660 00b6 03F11800 		add	r0, r3, #24
 1661 00ba 07F10B02 		add	r2, r7, #11
 1662 00be 0123     		movs	r3, #1
 1663 00c0 43F20101 		movw	r1, #12289
 1664 00c4 FFF7FEFF 		bl	imx335_write_reg
 1665 00c8 0346     		mov	r3, r0
 1666              		.loc 1 656 13 discriminator 1
 1667 00ca 002B     		cmp	r3, #0
 1668 00cc 02D0     		beq	.L56
 657:Lib/Camera_Middleware/sensors/imx335/imx335.c ****           {
 658:Lib/Camera_Middleware/sensors/imx335/imx335.c ****             ret = IMX335_ERROR;
 1669              		.loc 1 658 17
 1670 00ce 4FF0FF33 		mov	r3, #-1
 1671 00d2 7B61     		str	r3, [r7, #20]
 1672              	.L56:
ARM GAS  /tmp/ccxD5M1z.s 			page 41


 659:Lib/Camera_Middleware/sensors/imx335/imx335.c ****           }
 660:Lib/Camera_Middleware/sensors/imx335/imx335.c ****         }
 661:Lib/Camera_Middleware/sensors/imx335/imx335.c ****       }
 662:Lib/Camera_Middleware/sensors/imx335/imx335.c ****     }
 663:Lib/Camera_Middleware/sensors/imx335/imx335.c ****   }
 664:Lib/Camera_Middleware/sensors/imx335/imx335.c **** 
 665:Lib/Camera_Middleware/sensors/imx335/imx335.c ****   return ret;
 1673              		.loc 1 665 10
 1674 00d4 7B69     		ldr	r3, [r7, #20]
 666:Lib/Camera_Middleware/sensors/imx335/imx335.c **** }
 1675              		.loc 1 666 1
 1676 00d6 1846     		mov	r0, r3
 1677 00d8 1837     		adds	r7, r7, #24
 1678              		.cfi_def_cfa_offset 8
 1679 00da BD46     		mov	sp, r7
 1680              		.cfi_def_cfa_register 13
 1681              		@ sp needed
 1682 00dc 80BD     		pop	{r7, pc}
 1683              	.L62:
 1684 00de 00BF     		.align	2
 1685              	.L61:
 1686 00e0 7C09ED40 		.word	1089276284
 1687              		.cfi_endproc
 1688              	.LFE152:
 1690              		.section	.text.IMX335_SetFrequency,"ax",%progbits
 1691              		.align	1
 1692              		.global	IMX335_SetFrequency
 1693              		.syntax unified
 1694              		.thumb
 1695              		.thumb_func
 1697              	IMX335_SetFrequency:
 1698              	.LFB153:
 667:Lib/Camera_Middleware/sensors/imx335/imx335.c **** 
 668:Lib/Camera_Middleware/sensors/imx335/imx335.c **** /**
 669:Lib/Camera_Middleware/sensors/imx335/imx335.c ****   * @brief  Set the Frequency
 670:Lib/Camera_Middleware/sensors/imx335/imx335.c ****   * @param  pObj  pointer to component object
 671:Lib/Camera_Middleware/sensors/imx335/imx335.c ****   * @param  frequency in Mhz
 672:Lib/Camera_Middleware/sensors/imx335/imx335.c ****   * @retval Component status
 673:Lib/Camera_Middleware/sensors/imx335/imx335.c ****   */
 674:Lib/Camera_Middleware/sensors/imx335/imx335.c **** int32_t IMX335_SetFrequency(IMX335_Object_t *pObj, int32_t frequency)
 675:Lib/Camera_Middleware/sensors/imx335/imx335.c **** {
 1699              		.loc 1 675 1
 1700              		.cfi_startproc
 1701              		@ args = 0, pretend = 0, frame = 16
 1702              		@ frame_needed = 1, uses_anonymous_args = 0
 1703 0000 80B5     		push	{r7, lr}
 1704              		.cfi_def_cfa_offset 8
 1705              		.cfi_offset 7, -8
 1706              		.cfi_offset 14, -4
 1707 0002 84B0     		sub	sp, sp, #16
 1708              		.cfi_def_cfa_offset 24
 1709 0004 00AF     		add	r7, sp, #0
 1710              		.cfi_def_cfa_register 7
 1711 0006 7860     		str	r0, [r7, #4]
 1712 0008 3960     		str	r1, [r7]
 676:Lib/Camera_Middleware/sensors/imx335/imx335.c ****   uint32_t ret = IMX335_OK;
 1713              		.loc 1 676 12
ARM GAS  /tmp/ccxD5M1z.s 			page 42


 1714 000a 0023     		movs	r3, #0
 1715 000c FB60     		str	r3, [r7, #12]
 677:Lib/Camera_Middleware/sensors/imx335/imx335.c **** 
 678:Lib/Camera_Middleware/sensors/imx335/imx335.c ****   switch (frequency)
 1716              		.loc 1 678 3
 1717 000e 3B68     		ldr	r3, [r7]
 1718 0010 013B     		subs	r3, r3, #1
 1719 0012 032B     		cmp	r3, #3
 1720 0014 3AD8     		bhi	.L64
 1721 0016 01A2     		adr	r2, .L66
 1722 0018 52F823F0 		ldr	pc, [r2, r3, lsl #2]
 1723              		.p2align 2
 1724              	.L66:
 1725 001c 75000000 		.word	.L69+1
 1726 0020 5D000000 		.word	.L68+1
 1727 0024 45000000 		.word	.L67+1
 1728 0028 2D000000 		.word	.L65+1
 1729              		.p2align 1
 1730              	.L65:
 679:Lib/Camera_Middleware/sensors/imx335/imx335.c ****   {
 680:Lib/Camera_Middleware/sensors/imx335/imx335.c ****     case IMX335_INCK_74MHZ:
 681:Lib/Camera_Middleware/sensors/imx335/imx335.c ****       if(IMX335_WriteTable(pObj, inck_74Mhz_regs, ARRAY_SIZE(inck_74Mhz_regs)) != IMX335_OK)
 1731              		.loc 1 681 10
 1732 002c 0722     		movs	r2, #7
 1733 002e 2449     		ldr	r1, .L82
 1734 0030 7868     		ldr	r0, [r7, #4]
 1735 0032 FFF7FEFF 		bl	IMX335_WriteTable
 1736 0036 0346     		mov	r3, r0
 1737              		.loc 1 681 9 discriminator 1
 1738 0038 002B     		cmp	r3, #0
 1739 003a 33D0     		beq	.L77
 682:Lib/Camera_Middleware/sensors/imx335/imx335.c ****       {
 683:Lib/Camera_Middleware/sensors/imx335/imx335.c ****         ret = IMX335_ERROR;
 1740              		.loc 1 683 13
 1741 003c 4FF0FF33 		mov	r3, #-1
 1742 0040 FB60     		str	r3, [r7, #12]
 684:Lib/Camera_Middleware/sensors/imx335/imx335.c ****       }
 685:Lib/Camera_Middleware/sensors/imx335/imx335.c ****       break;
 1743              		.loc 1 685 7
 1744 0042 2FE0     		b	.L77
 1745              	.L67:
 686:Lib/Camera_Middleware/sensors/imx335/imx335.c ****     case IMX335_INCK_27MHZ:
 687:Lib/Camera_Middleware/sensors/imx335/imx335.c ****       if(IMX335_WriteTable(pObj, inck_27Mhz_regs, ARRAY_SIZE(inck_27Mhz_regs)) != IMX335_OK)
 1746              		.loc 1 687 10
 1747 0044 0722     		movs	r2, #7
 1748 0046 1F49     		ldr	r1, .L82+4
 1749 0048 7868     		ldr	r0, [r7, #4]
 1750 004a FFF7FEFF 		bl	IMX335_WriteTable
 1751 004e 0346     		mov	r3, r0
 1752              		.loc 1 687 9 discriminator 1
 1753 0050 002B     		cmp	r3, #0
 1754 0052 29D0     		beq	.L78
 688:Lib/Camera_Middleware/sensors/imx335/imx335.c ****       {
 689:Lib/Camera_Middleware/sensors/imx335/imx335.c ****         ret = IMX335_ERROR;
 1755              		.loc 1 689 13
 1756 0054 4FF0FF33 		mov	r3, #-1
 1757 0058 FB60     		str	r3, [r7, #12]
ARM GAS  /tmp/ccxD5M1z.s 			page 43


 690:Lib/Camera_Middleware/sensors/imx335/imx335.c ****       }
 691:Lib/Camera_Middleware/sensors/imx335/imx335.c ****       break;
 1758              		.loc 1 691 7
 1759 005a 25E0     		b	.L78
 1760              	.L68:
 692:Lib/Camera_Middleware/sensors/imx335/imx335.c ****     case IMX335_INCK_24MHZ:
 693:Lib/Camera_Middleware/sensors/imx335/imx335.c ****       if(IMX335_WriteTable(pObj, inck_24Mhz_regs, ARRAY_SIZE(inck_24Mhz_regs)) != IMX335_OK)
 1761              		.loc 1 693 10
 1762 005c 0722     		movs	r2, #7
 1763 005e 1A49     		ldr	r1, .L82+8
 1764 0060 7868     		ldr	r0, [r7, #4]
 1765 0062 FFF7FEFF 		bl	IMX335_WriteTable
 1766 0066 0346     		mov	r3, r0
 1767              		.loc 1 693 9 discriminator 1
 1768 0068 002B     		cmp	r3, #0
 1769 006a 1FD0     		beq	.L79
 694:Lib/Camera_Middleware/sensors/imx335/imx335.c ****       {
 695:Lib/Camera_Middleware/sensors/imx335/imx335.c ****         ret = IMX335_ERROR;
 1770              		.loc 1 695 13
 1771 006c 4FF0FF33 		mov	r3, #-1
 1772 0070 FB60     		str	r3, [r7, #12]
 696:Lib/Camera_Middleware/sensors/imx335/imx335.c ****       }
 697:Lib/Camera_Middleware/sensors/imx335/imx335.c ****       break;
 1773              		.loc 1 697 7
 1774 0072 1BE0     		b	.L79
 1775              	.L69:
 698:Lib/Camera_Middleware/sensors/imx335/imx335.c ****     case IMX335_INCK_18MHZ:
 699:Lib/Camera_Middleware/sensors/imx335/imx335.c ****       if(IMX335_WriteTable(pObj, inck_18Mhz_regs, ARRAY_SIZE(inck_18Mhz_regs)) != IMX335_OK)
 1776              		.loc 1 699 10
 1777 0074 0722     		movs	r2, #7
 1778 0076 1549     		ldr	r1, .L82+12
 1779 0078 7868     		ldr	r0, [r7, #4]
 1780 007a FFF7FEFF 		bl	IMX335_WriteTable
 1781 007e 0346     		mov	r3, r0
 1782              		.loc 1 699 9 discriminator 1
 1783 0080 002B     		cmp	r3, #0
 1784 0082 15D0     		beq	.L80
 700:Lib/Camera_Middleware/sensors/imx335/imx335.c ****       {
 701:Lib/Camera_Middleware/sensors/imx335/imx335.c ****         ret = IMX335_ERROR;
 1785              		.loc 1 701 13
 1786 0084 4FF0FF33 		mov	r3, #-1
 1787 0088 FB60     		str	r3, [r7, #12]
 702:Lib/Camera_Middleware/sensors/imx335/imx335.c ****       }
 703:Lib/Camera_Middleware/sensors/imx335/imx335.c ****       break;
 1788              		.loc 1 703 7
 1789 008a 11E0     		b	.L80
 1790              	.L64:
 704:Lib/Camera_Middleware/sensors/imx335/imx335.c ****     default:
 705:Lib/Camera_Middleware/sensors/imx335/imx335.c ****       /* IMX335_INCK_6MHZ */
 706:Lib/Camera_Middleware/sensors/imx335/imx335.c ****       if(IMX335_WriteTable(pObj, inck_6Mhz_regs, ARRAY_SIZE(inck_6Mhz_regs)) != IMX335_OK)
 1791              		.loc 1 706 10
 1792 008c 0722     		movs	r2, #7
 1793 008e 1049     		ldr	r1, .L82+16
 1794 0090 7868     		ldr	r0, [r7, #4]
 1795 0092 FFF7FEFF 		bl	IMX335_WriteTable
 1796 0096 0346     		mov	r3, r0
 1797              		.loc 1 706 9 discriminator 1
ARM GAS  /tmp/ccxD5M1z.s 			page 44


 1798 0098 002B     		cmp	r3, #0
 1799 009a 0BD0     		beq	.L81
 707:Lib/Camera_Middleware/sensors/imx335/imx335.c ****       {
 708:Lib/Camera_Middleware/sensors/imx335/imx335.c ****         ret = IMX335_ERROR;
 1800              		.loc 1 708 13
 1801 009c 4FF0FF33 		mov	r3, #-1
 1802 00a0 FB60     		str	r3, [r7, #12]
 709:Lib/Camera_Middleware/sensors/imx335/imx335.c ****       }
 710:Lib/Camera_Middleware/sensors/imx335/imx335.c ****       break;
 1803              		.loc 1 710 7
 1804 00a2 07E0     		b	.L81
 1805              	.L77:
 685:Lib/Camera_Middleware/sensors/imx335/imx335.c ****     case IMX335_INCK_27MHZ:
 1806              		.loc 1 685 7
 1807 00a4 00BF     		nop
 1808 00a6 06E0     		b	.L71
 1809              	.L78:
 691:Lib/Camera_Middleware/sensors/imx335/imx335.c ****     case IMX335_INCK_24MHZ:
 1810              		.loc 1 691 7
 1811 00a8 00BF     		nop
 1812 00aa 04E0     		b	.L71
 1813              	.L79:
 697:Lib/Camera_Middleware/sensors/imx335/imx335.c ****     case IMX335_INCK_18MHZ:
 1814              		.loc 1 697 7
 1815 00ac 00BF     		nop
 1816 00ae 02E0     		b	.L71
 1817              	.L80:
 703:Lib/Camera_Middleware/sensors/imx335/imx335.c ****     default:
 1818              		.loc 1 703 7
 1819 00b0 00BF     		nop
 1820 00b2 00E0     		b	.L71
 1821              	.L81:
 1822              		.loc 1 710 7
 1823 00b4 00BF     		nop
 1824              	.L71:
 711:Lib/Camera_Middleware/sensors/imx335/imx335.c ****   };
 712:Lib/Camera_Middleware/sensors/imx335/imx335.c **** 
 713:Lib/Camera_Middleware/sensors/imx335/imx335.c ****   return ret;
 1825              		.loc 1 713 10
 1826 00b6 FB68     		ldr	r3, [r7, #12]
 714:Lib/Camera_Middleware/sensors/imx335/imx335.c **** }
 1827              		.loc 1 714 1
 1828 00b8 1846     		mov	r0, r3
 1829 00ba 1037     		adds	r7, r7, #16
 1830              		.cfi_def_cfa_offset 8
 1831 00bc BD46     		mov	sp, r7
 1832              		.cfi_def_cfa_register 13
 1833              		@ sp needed
 1834 00be 80BD     		pop	{r7, pc}
 1835              	.L83:
 1836              		.align	2
 1837              	.L82:
 1838 00c0 00000000 		.word	inck_74Mhz_regs
 1839 00c4 00000000 		.word	inck_27Mhz_regs
 1840 00c8 00000000 		.word	inck_24Mhz_regs
 1841 00cc 00000000 		.word	inck_18Mhz_regs
 1842 00d0 00000000 		.word	inck_6Mhz_regs
ARM GAS  /tmp/ccxD5M1z.s 			page 45


 1843              		.cfi_endproc
 1844              	.LFE153:
 1846              		.section	.text.IMX335_SetFramerate,"ax",%progbits
 1847              		.align	1
 1848              		.global	IMX335_SetFramerate
 1849              		.syntax unified
 1850              		.thumb
 1851              		.thumb_func
 1853              	IMX335_SetFramerate:
 1854              	.LFB154:
 715:Lib/Camera_Middleware/sensors/imx335/imx335.c **** 
 716:Lib/Camera_Middleware/sensors/imx335/imx335.c **** /**
 717:Lib/Camera_Middleware/sensors/imx335/imx335.c ****   * @brief  Set the Framerate
 718:Lib/Camera_Middleware/sensors/imx335/imx335.c ****   * @param  pObj  pointer to component object
 719:Lib/Camera_Middleware/sensors/imx335/imx335.c ****   * @param  framerate 10, 15, 20, 25 or 30fps
 720:Lib/Camera_Middleware/sensors/imx335/imx335.c ****   * @retval Component status
 721:Lib/Camera_Middleware/sensors/imx335/imx335.c ****   */
 722:Lib/Camera_Middleware/sensors/imx335/imx335.c **** int32_t IMX335_SetFramerate(IMX335_Object_t *pObj, int32_t framerate)
 723:Lib/Camera_Middleware/sensors/imx335/imx335.c **** {
 1855              		.loc 1 723 1
 1856              		.cfi_startproc
 1857              		@ args = 0, pretend = 0, frame = 16
 1858              		@ frame_needed = 1, uses_anonymous_args = 0
 1859 0000 80B5     		push	{r7, lr}
 1860              		.cfi_def_cfa_offset 8
 1861              		.cfi_offset 7, -8
 1862              		.cfi_offset 14, -4
 1863 0002 84B0     		sub	sp, sp, #16
 1864              		.cfi_def_cfa_offset 24
 1865 0004 00AF     		add	r7, sp, #0
 1866              		.cfi_def_cfa_register 7
 1867 0006 7860     		str	r0, [r7, #4]
 1868 0008 3960     		str	r1, [r7]
 724:Lib/Camera_Middleware/sensors/imx335/imx335.c ****   uint32_t ret = IMX335_OK;
 1869              		.loc 1 724 12
 1870 000a 0023     		movs	r3, #0
 1871 000c FB60     		str	r3, [r7, #12]
 725:Lib/Camera_Middleware/sensors/imx335/imx335.c ****   switch (framerate)
 1872              		.loc 1 725 3
 1873 000e 3B68     		ldr	r3, [r7]
 1874 0010 0A3B     		subs	r3, r3, #10
 1875 0012 0F2B     		cmp	r3, #15
 1876 0014 52D8     		bhi	.L85
 1877 0016 01A2     		adr	r2, .L87
 1878 0018 52F823F0 		ldr	pc, [r2, r3, lsl #2]
 1879              		.p2align 2
 1880              	.L87:
 1881 001c 5D000000 		.word	.L90+1
 1882 0020 BD000000 		.word	.L85+1
 1883 0024 BD000000 		.word	.L85+1
 1884 0028 BD000000 		.word	.L85+1
 1885 002c BD000000 		.word	.L85+1
 1886 0030 75000000 		.word	.L89+1
 1887 0034 BD000000 		.word	.L85+1
 1888 0038 BD000000 		.word	.L85+1
 1889 003c BD000000 		.word	.L85+1
 1890 0040 BD000000 		.word	.L85+1
ARM GAS  /tmp/ccxD5M1z.s 			page 46


 1891 0044 8D000000 		.word	.L88+1
 1892 0048 BD000000 		.word	.L85+1
 1893 004c BD000000 		.word	.L85+1
 1894 0050 BD000000 		.word	.L85+1
 1895 0054 BD000000 		.word	.L85+1
 1896 0058 A5000000 		.word	.L86+1
 1897              		.p2align 1
 1898              	.L90:
 726:Lib/Camera_Middleware/sensors/imx335/imx335.c ****   {
 727:Lib/Camera_Middleware/sensors/imx335/imx335.c ****     case 10:
 728:Lib/Camera_Middleware/sensors/imx335/imx335.c ****       if(IMX335_WriteTable(pObj, framerate_10fps_regs, ARRAY_SIZE(framerate_10fps_regs)) != IMX335_
 1899              		.loc 1 728 10
 1900 005c 0222     		movs	r2, #2
 1901 005e 2449     		ldr	r1, .L103
 1902 0060 7868     		ldr	r0, [r7, #4]
 1903 0062 FFF7FEFF 		bl	IMX335_WriteTable
 1904 0066 0346     		mov	r3, r0
 1905              		.loc 1 728 9 discriminator 1
 1906 0068 002B     		cmp	r3, #0
 1907 006a 33D0     		beq	.L98
 729:Lib/Camera_Middleware/sensors/imx335/imx335.c ****       {
 730:Lib/Camera_Middleware/sensors/imx335/imx335.c ****         ret = IMX335_ERROR;
 1908              		.loc 1 730 13
 1909 006c 4FF0FF33 		mov	r3, #-1
 1910 0070 FB60     		str	r3, [r7, #12]
 731:Lib/Camera_Middleware/sensors/imx335/imx335.c ****       }
 732:Lib/Camera_Middleware/sensors/imx335/imx335.c ****       break;
 1911              		.loc 1 732 7
 1912 0072 2FE0     		b	.L98
 1913              	.L89:
 733:Lib/Camera_Middleware/sensors/imx335/imx335.c ****     case 15:
 734:Lib/Camera_Middleware/sensors/imx335/imx335.c ****       if(IMX335_WriteTable(pObj, framerate_15fps_regs, ARRAY_SIZE(framerate_15fps_regs)) != IMX335_
 1914              		.loc 1 734 10
 1915 0074 0222     		movs	r2, #2
 1916 0076 1F49     		ldr	r1, .L103+4
 1917 0078 7868     		ldr	r0, [r7, #4]
 1918 007a FFF7FEFF 		bl	IMX335_WriteTable
 1919 007e 0346     		mov	r3, r0
 1920              		.loc 1 734 9 discriminator 1
 1921 0080 002B     		cmp	r3, #0
 1922 0082 29D0     		beq	.L99
 735:Lib/Camera_Middleware/sensors/imx335/imx335.c ****       {
 736:Lib/Camera_Middleware/sensors/imx335/imx335.c ****         ret = IMX335_ERROR;
 1923              		.loc 1 736 13
 1924 0084 4FF0FF33 		mov	r3, #-1
 1925 0088 FB60     		str	r3, [r7, #12]
 737:Lib/Camera_Middleware/sensors/imx335/imx335.c ****       }
 738:Lib/Camera_Middleware/sensors/imx335/imx335.c ****       break;
 1926              		.loc 1 738 7
 1927 008a 25E0     		b	.L99
 1928              	.L88:
 739:Lib/Camera_Middleware/sensors/imx335/imx335.c ****     case 20:
 740:Lib/Camera_Middleware/sensors/imx335/imx335.c ****       if(IMX335_WriteTable(pObj, framerate_20fps_regs, ARRAY_SIZE(framerate_20fps_regs)) != IMX335_
 1929              		.loc 1 740 10
 1930 008c 0222     		movs	r2, #2
 1931 008e 1A49     		ldr	r1, .L103+8
 1932 0090 7868     		ldr	r0, [r7, #4]
ARM GAS  /tmp/ccxD5M1z.s 			page 47


 1933 0092 FFF7FEFF 		bl	IMX335_WriteTable
 1934 0096 0346     		mov	r3, r0
 1935              		.loc 1 740 9 discriminator 1
 1936 0098 002B     		cmp	r3, #0
 1937 009a 1FD0     		beq	.L100
 741:Lib/Camera_Middleware/sensors/imx335/imx335.c ****       {
 742:Lib/Camera_Middleware/sensors/imx335/imx335.c ****        ret = IMX335_ERROR;
 1938              		.loc 1 742 12
 1939 009c 4FF0FF33 		mov	r3, #-1
 1940 00a0 FB60     		str	r3, [r7, #12]
 743:Lib/Camera_Middleware/sensors/imx335/imx335.c ****       }
 744:Lib/Camera_Middleware/sensors/imx335/imx335.c ****       break;
 1941              		.loc 1 744 7
 1942 00a2 1BE0     		b	.L100
 1943              	.L86:
 745:Lib/Camera_Middleware/sensors/imx335/imx335.c ****     case 25:
 746:Lib/Camera_Middleware/sensors/imx335/imx335.c ****       if(IMX335_WriteTable(pObj, framerate_25fps_regs, ARRAY_SIZE(framerate_25fps_regs)) != IMX335_
 1944              		.loc 1 746 10
 1945 00a4 0222     		movs	r2, #2
 1946 00a6 1549     		ldr	r1, .L103+12
 1947 00a8 7868     		ldr	r0, [r7, #4]
 1948 00aa FFF7FEFF 		bl	IMX335_WriteTable
 1949 00ae 0346     		mov	r3, r0
 1950              		.loc 1 746 9 discriminator 1
 1951 00b0 002B     		cmp	r3, #0
 1952 00b2 15D0     		beq	.L101
 747:Lib/Camera_Middleware/sensors/imx335/imx335.c ****       {
 748:Lib/Camera_Middleware/sensors/imx335/imx335.c ****         ret = IMX335_ERROR;
 1953              		.loc 1 748 13
 1954 00b4 4FF0FF33 		mov	r3, #-1
 1955 00b8 FB60     		str	r3, [r7, #12]
 749:Lib/Camera_Middleware/sensors/imx335/imx335.c ****       }
 750:Lib/Camera_Middleware/sensors/imx335/imx335.c ****       break;
 1956              		.loc 1 750 7
 1957 00ba 11E0     		b	.L101
 1958              	.L85:
 751:Lib/Camera_Middleware/sensors/imx335/imx335.c ****     default:
 752:Lib/Camera_Middleware/sensors/imx335/imx335.c ****       /* 30fps */
 753:Lib/Camera_Middleware/sensors/imx335/imx335.c ****       if(IMX335_WriteTable(pObj, framerate_30fps_regs, ARRAY_SIZE(framerate_30fps_regs)) != IMX335_
 1959              		.loc 1 753 10
 1960 00bc 0222     		movs	r2, #2
 1961 00be 1049     		ldr	r1, .L103+16
 1962 00c0 7868     		ldr	r0, [r7, #4]
 1963 00c2 FFF7FEFF 		bl	IMX335_WriteTable
 1964 00c6 0346     		mov	r3, r0
 1965              		.loc 1 753 9 discriminator 1
 1966 00c8 002B     		cmp	r3, #0
 1967 00ca 0BD0     		beq	.L102
 754:Lib/Camera_Middleware/sensors/imx335/imx335.c ****       {
 755:Lib/Camera_Middleware/sensors/imx335/imx335.c ****         ret = IMX335_ERROR;
 1968              		.loc 1 755 13
 1969 00cc 4FF0FF33 		mov	r3, #-1
 1970 00d0 FB60     		str	r3, [r7, #12]
 756:Lib/Camera_Middleware/sensors/imx335/imx335.c ****       }
 757:Lib/Camera_Middleware/sensors/imx335/imx335.c ****       break;
 1971              		.loc 1 757 7
 1972 00d2 07E0     		b	.L102
ARM GAS  /tmp/ccxD5M1z.s 			page 48


 1973              	.L98:
 732:Lib/Camera_Middleware/sensors/imx335/imx335.c ****     case 15:
 1974              		.loc 1 732 7
 1975 00d4 00BF     		nop
 1976 00d6 06E0     		b	.L92
 1977              	.L99:
 738:Lib/Camera_Middleware/sensors/imx335/imx335.c ****     case 20:
 1978              		.loc 1 738 7
 1979 00d8 00BF     		nop
 1980 00da 04E0     		b	.L92
 1981              	.L100:
 744:Lib/Camera_Middleware/sensors/imx335/imx335.c ****     case 25:
 1982              		.loc 1 744 7
 1983 00dc 00BF     		nop
 1984 00de 02E0     		b	.L92
 1985              	.L101:
 750:Lib/Camera_Middleware/sensors/imx335/imx335.c ****     default:
 1986              		.loc 1 750 7
 1987 00e0 00BF     		nop
 1988 00e2 00E0     		b	.L92
 1989              	.L102:
 1990              		.loc 1 757 7
 1991 00e4 00BF     		nop
 1992              	.L92:
 758:Lib/Camera_Middleware/sensors/imx335/imx335.c ****   };
 759:Lib/Camera_Middleware/sensors/imx335/imx335.c **** 
 760:Lib/Camera_Middleware/sensors/imx335/imx335.c ****   return ret;
 1993              		.loc 1 760 10
 1994 00e6 FB68     		ldr	r3, [r7, #12]
 761:Lib/Camera_Middleware/sensors/imx335/imx335.c **** }
 1995              		.loc 1 761 1
 1996 00e8 1846     		mov	r0, r3
 1997 00ea 1037     		adds	r7, r7, #16
 1998              		.cfi_def_cfa_offset 8
 1999 00ec BD46     		mov	sp, r7
 2000              		.cfi_def_cfa_register 13
 2001              		@ sp needed
 2002 00ee 80BD     		pop	{r7, pc}
 2003              	.L104:
 2004              		.align	2
 2005              	.L103:
 2006 00f0 00000000 		.word	framerate_10fps_regs
 2007 00f4 00000000 		.word	framerate_15fps_regs
 2008 00f8 00000000 		.word	framerate_20fps_regs
 2009 00fc 00000000 		.word	framerate_25fps_regs
 2010 0100 00000000 		.word	framerate_30fps_regs
 2011              		.cfi_endproc
 2012              	.LFE154:
 2014              		.section	.text.IMX335_MirrorFlipConfig,"ax",%progbits
 2015              		.align	1
 2016              		.global	IMX335_MirrorFlipConfig
 2017              		.syntax unified
 2018              		.thumb
 2019              		.thumb_func
 2021              	IMX335_MirrorFlipConfig:
 2022              	.LFB155:
 762:Lib/Camera_Middleware/sensors/imx335/imx335.c **** 
ARM GAS  /tmp/ccxD5M1z.s 			page 49


 763:Lib/Camera_Middleware/sensors/imx335/imx335.c **** /**
 764:Lib/Camera_Middleware/sensors/imx335/imx335.c ****   * @brief  Control imx335 camera mirror/vflip.
 765:Lib/Camera_Middleware/sensors/imx335/imx335.c ****   * @param  pObj  pointer to component object
 766:Lib/Camera_Middleware/sensors/imx335/imx335.c ****   * @param  Config To configure mirror, flip, both or none
 767:Lib/Camera_Middleware/sensors/imx335/imx335.c ****   * @retval Component status
 768:Lib/Camera_Middleware/sensors/imx335/imx335.c ****   */
 769:Lib/Camera_Middleware/sensors/imx335/imx335.c **** int32_t IMX335_MirrorFlipConfig(IMX335_Object_t *pObj, uint32_t Config)
 770:Lib/Camera_Middleware/sensors/imx335/imx335.c **** {
 2023              		.loc 1 770 1
 2024              		.cfi_startproc
 2025              		@ args = 0, pretend = 0, frame = 16
 2026              		@ frame_needed = 1, uses_anonymous_args = 0
 2027 0000 80B5     		push	{r7, lr}
 2028              		.cfi_def_cfa_offset 8
 2029              		.cfi_offset 7, -8
 2030              		.cfi_offset 14, -4
 2031 0002 84B0     		sub	sp, sp, #16
 2032              		.cfi_def_cfa_offset 24
 2033 0004 00AF     		add	r7, sp, #0
 2034              		.cfi_def_cfa_register 7
 2035 0006 7860     		str	r0, [r7, #4]
 2036 0008 3960     		str	r1, [r7]
 771:Lib/Camera_Middleware/sensors/imx335/imx335.c ****   int32_t ret = IMX335_OK;
 2037              		.loc 1 771 11
 2038 000a 0023     		movs	r3, #0
 2039 000c FB60     		str	r3, [r7, #12]
 772:Lib/Camera_Middleware/sensors/imx335/imx335.c **** 
 773:Lib/Camera_Middleware/sensors/imx335/imx335.c ****   switch (Config)
 2040              		.loc 1 773 3
 2041 000e 3B68     		ldr	r3, [r7]
 2042 0010 032B     		cmp	r3, #3
 2043 0012 17D0     		beq	.L106
 2044 0014 3B68     		ldr	r3, [r7]
 2045 0016 032B     		cmp	r3, #3
 2046 0018 1BD8     		bhi	.L107
 2047 001a 3B68     		ldr	r3, [r7]
 2048 001c 012B     		cmp	r3, #1
 2049 001e 03D0     		beq	.L108
 2050 0020 3B68     		ldr	r3, [r7]
 2051 0022 022B     		cmp	r3, #2
 2052 0024 07D0     		beq	.L109
 2053 0026 14E0     		b	.L107
 2054              	.L108:
 774:Lib/Camera_Middleware/sensors/imx335/imx335.c ****   {
 775:Lib/Camera_Middleware/sensors/imx335/imx335.c ****     case IMX335_FLIP:
 776:Lib/Camera_Middleware/sensors/imx335/imx335.c ****       ret = IMX335_WriteTable(pObj, mirrorflip_mode_regs[1], ARRAY_SIZE(mirrorflip_mode_regs[1]));
 2055              		.loc 1 776 13
 2056 0028 0A22     		movs	r2, #10
 2057 002a 1049     		ldr	r1, .L112
 2058 002c 7868     		ldr	r0, [r7, #4]
 2059 002e FFF7FEFF 		bl	IMX335_WriteTable
 2060 0032 F860     		str	r0, [r7, #12]
 777:Lib/Camera_Middleware/sensors/imx335/imx335.c ****       break;
 2061              		.loc 1 777 7
 2062 0034 14E0     		b	.L110
 2063              	.L109:
 778:Lib/Camera_Middleware/sensors/imx335/imx335.c ****     case IMX335_MIRROR:
ARM GAS  /tmp/ccxD5M1z.s 			page 50


 779:Lib/Camera_Middleware/sensors/imx335/imx335.c ****       ret = IMX335_WriteTable(pObj, mirrorflip_mode_regs[2], ARRAY_SIZE(mirrorflip_mode_regs[2]));
 2064              		.loc 1 779 13
 2065 0036 0A22     		movs	r2, #10
 2066 0038 0D49     		ldr	r1, .L112+4
 2067 003a 7868     		ldr	r0, [r7, #4]
 2068 003c FFF7FEFF 		bl	IMX335_WriteTable
 2069 0040 F860     		str	r0, [r7, #12]
 780:Lib/Camera_Middleware/sensors/imx335/imx335.c ****       break;
 2070              		.loc 1 780 7
 2071 0042 0DE0     		b	.L110
 2072              	.L106:
 781:Lib/Camera_Middleware/sensors/imx335/imx335.c ****     case IMX335_MIRROR_FLIP:
 782:Lib/Camera_Middleware/sensors/imx335/imx335.c ****       ret = IMX335_WriteTable(pObj, mirrorflip_mode_regs[3], ARRAY_SIZE(mirrorflip_mode_regs[3]));
 2073              		.loc 1 782 13
 2074 0044 0A22     		movs	r2, #10
 2075 0046 0B49     		ldr	r1, .L112+8
 2076 0048 7868     		ldr	r0, [r7, #4]
 2077 004a FFF7FEFF 		bl	IMX335_WriteTable
 2078 004e F860     		str	r0, [r7, #12]
 783:Lib/Camera_Middleware/sensors/imx335/imx335.c ****       break;
 2079              		.loc 1 783 7
 2080 0050 06E0     		b	.L110
 2081              	.L107:
 784:Lib/Camera_Middleware/sensors/imx335/imx335.c ****     case IMX335_MIRROR_FLIP_NONE:
 785:Lib/Camera_Middleware/sensors/imx335/imx335.c ****     default:
 786:Lib/Camera_Middleware/sensors/imx335/imx335.c ****       ret = IMX335_WriteTable(pObj, mirrorflip_mode_regs[0], ARRAY_SIZE(mirrorflip_mode_regs[0]));
 2082              		.loc 1 786 13
 2083 0052 0A22     		movs	r2, #10
 2084 0054 0849     		ldr	r1, .L112+12
 2085 0056 7868     		ldr	r0, [r7, #4]
 2086 0058 FFF7FEFF 		bl	IMX335_WriteTable
 2087 005c F860     		str	r0, [r7, #12]
 787:Lib/Camera_Middleware/sensors/imx335/imx335.c ****       break;
 2088              		.loc 1 787 7
 2089 005e 00BF     		nop
 2090              	.L110:
 788:Lib/Camera_Middleware/sensors/imx335/imx335.c ****   }
 789:Lib/Camera_Middleware/sensors/imx335/imx335.c ****   return ret;
 2091              		.loc 1 789 10
 2092 0060 FB68     		ldr	r3, [r7, #12]
 790:Lib/Camera_Middleware/sensors/imx335/imx335.c **** }
 2093              		.loc 1 790 1
 2094 0062 1846     		mov	r0, r3
 2095 0064 1037     		adds	r7, r7, #16
 2096              		.cfi_def_cfa_offset 8
 2097 0066 BD46     		mov	sp, r7
 2098              		.cfi_def_cfa_register 13
 2099              		@ sp needed
 2100 0068 80BD     		pop	{r7, pc}
 2101              	.L113:
 2102 006a 00BF     		.align	2
 2103              	.L112:
 2104 006c 28000000 		.word	mirrorflip_mode_regs+40
 2105 0070 50000000 		.word	mirrorflip_mode_regs+80
 2106 0074 78000000 		.word	mirrorflip_mode_regs+120
 2107 0078 00000000 		.word	mirrorflip_mode_regs
 2108              		.cfi_endproc
ARM GAS  /tmp/ccxD5M1z.s 			page 51


 2109              	.LFE155:
 2111              		.section	.text.IMX335_SetTestPattern,"ax",%progbits
 2112              		.align	1
 2113              		.global	IMX335_SetTestPattern
 2114              		.syntax unified
 2115              		.thumb
 2116              		.thumb_func
 2118              	IMX335_SetTestPattern:
 2119              	.LFB156:
 791:Lib/Camera_Middleware/sensors/imx335/imx335.c **** 
 792:Lib/Camera_Middleware/sensors/imx335/imx335.c **** /**
 793:Lib/Camera_Middleware/sensors/imx335/imx335.c ****   * @brief  Set the Test Pattern Generator
 794:Lib/Camera_Middleware/sensors/imx335/imx335.c ****   * @param  pObj  pointer to component object
 795:Lib/Camera_Middleware/sensors/imx335/imx335.c ****   * @param  mode Pattern mode:
 796:Lib/Camera_Middleware/sensors/imx335/imx335.c ****   *              -1 : Disable
 797:Lib/Camera_Middleware/sensors/imx335/imx335.c ****   *               0 : All 000h
 798:Lib/Camera_Middleware/sensors/imx335/imx335.c ****   *               1 : All FFFh
 799:Lib/Camera_Middleware/sensors/imx335/imx335.c ****   *               2 : All 555h
 800:Lib/Camera_Middleware/sensors/imx335/imx335.c ****   *               3 : All AAAh
 801:Lib/Camera_Middleware/sensors/imx335/imx335.c ****   *               4 : Toggle 555/AAAh
 802:Lib/Camera_Middleware/sensors/imx335/imx335.c ****   *               5 : Toggle AAA/555h
 803:Lib/Camera_Middleware/sensors/imx335/imx335.c ****   *               6 : Toggle 000/555h
 804:Lib/Camera_Middleware/sensors/imx335/imx335.c ****   *               7 : Toggle 555/000h
 805:Lib/Camera_Middleware/sensors/imx335/imx335.c ****   *               8 : Toggle 000/FFFh
 806:Lib/Camera_Middleware/sensors/imx335/imx335.c ****   *               9 : Toggle FFF/000h
 807:Lib/Camera_Middleware/sensors/imx335/imx335.c ****   *               10: Horizontal color bars
 808:Lib/Camera_Middleware/sensors/imx335/imx335.c ****   *               11: Vertical color bars
 809:Lib/Camera_Middleware/sensors/imx335/imx335.c ****   * @retval Component status
 810:Lib/Camera_Middleware/sensors/imx335/imx335.c ****   */
 811:Lib/Camera_Middleware/sensors/imx335/imx335.c **** int32_t IMX335_SetTestPattern(IMX335_Object_t *pObj, int32_t mode)
 812:Lib/Camera_Middleware/sensors/imx335/imx335.c **** {
 2120              		.loc 1 812 1
 2121              		.cfi_startproc
 2122              		@ args = 0, pretend = 0, frame = 16
 2123              		@ frame_needed = 1, uses_anonymous_args = 0
 2124 0000 80B5     		push	{r7, lr}
 2125              		.cfi_def_cfa_offset 8
 2126              		.cfi_offset 7, -8
 2127              		.cfi_offset 14, -4
 2128 0002 84B0     		sub	sp, sp, #16
 2129              		.cfi_def_cfa_offset 24
 2130 0004 00AF     		add	r7, sp, #0
 2131              		.cfi_def_cfa_register 7
 2132 0006 7860     		str	r0, [r7, #4]
 2133 0008 3960     		str	r1, [r7]
 813:Lib/Camera_Middleware/sensors/imx335/imx335.c ****   int32_t ret = IMX335_OK;
 2134              		.loc 1 813 11
 2135 000a 0023     		movs	r3, #0
 2136 000c FB60     		str	r3, [r7, #12]
 814:Lib/Camera_Middleware/sensors/imx335/imx335.c ****   uint8_t val;
 815:Lib/Camera_Middleware/sensors/imx335/imx335.c **** 
 816:Lib/Camera_Middleware/sensors/imx335/imx335.c ****   if (mode >= 0)
 2137              		.loc 1 816 6
 2138 000e 3B68     		ldr	r3, [r7]
 2139 0010 002B     		cmp	r3, #0
 2140 0012 1DDB     		blt	.L115
 817:Lib/Camera_Middleware/sensors/imx335/imx335.c ****   {
ARM GAS  /tmp/ccxD5M1z.s 			page 52


 818:Lib/Camera_Middleware/sensors/imx335/imx335.c ****     /* Enable Test Pattern #mode */
 819:Lib/Camera_Middleware/sensors/imx335/imx335.c ****     val = mode;
 2141              		.loc 1 819 9
 2142 0014 3B68     		ldr	r3, [r7]
 2143 0016 DBB2     		uxtb	r3, r3
 2144 0018 FB72     		strb	r3, [r7, #11]
 820:Lib/Camera_Middleware/sensors/imx335/imx335.c ****     if (imx335_write_reg(&pObj->Ctx, IMX335_REG_TPG, &val, 1) != IMX335_OK)
 2145              		.loc 1 820 9
 2146 001a 7B68     		ldr	r3, [r7, #4]
 2147 001c 03F11800 		add	r0, r3, #24
 2148 0020 07F10B02 		add	r2, r7, #11
 2149 0024 0123     		movs	r3, #1
 2150 0026 43F29E21 		movw	r1, #12958
 2151 002a FFF7FEFF 		bl	imx335_write_reg
 2152 002e 0346     		mov	r3, r0
 2153              		.loc 1 820 8 discriminator 1
 2154 0030 002B     		cmp	r3, #0
 2155 0032 02D0     		beq	.L116
 821:Lib/Camera_Middleware/sensors/imx335/imx335.c ****     {
 822:Lib/Camera_Middleware/sensors/imx335/imx335.c ****       return IMX335_ERROR;
 2156              		.loc 1 822 14
 2157 0034 4FF0FF33 		mov	r3, #-1
 2158 0038 16E0     		b	.L119
 2159              	.L116:
 823:Lib/Camera_Middleware/sensors/imx335/imx335.c ****     }
 824:Lib/Camera_Middleware/sensors/imx335/imx335.c ****     if (IMX335_WriteTable(pObj, test_pattern_enable_regs, ARRAY_SIZE(test_pattern_enable_regs)) != 
 2160              		.loc 1 824 9
 2161 003a 0722     		movs	r2, #7
 2162 003c 0C49     		ldr	r1, .L120
 2163 003e 7868     		ldr	r0, [r7, #4]
 2164 0040 FFF7FEFF 		bl	IMX335_WriteTable
 2165 0044 0346     		mov	r3, r0
 2166              		.loc 1 824 8 discriminator 1
 2167 0046 002B     		cmp	r3, #0
 2168 0048 0DD0     		beq	.L118
 825:Lib/Camera_Middleware/sensors/imx335/imx335.c ****     {
 826:Lib/Camera_Middleware/sensors/imx335/imx335.c ****       return IMX335_ERROR;
 2169              		.loc 1 826 14
 2170 004a 4FF0FF33 		mov	r3, #-1
 2171 004e 0BE0     		b	.L119
 2172              	.L115:
 827:Lib/Camera_Middleware/sensors/imx335/imx335.c ****     }
 828:Lib/Camera_Middleware/sensors/imx335/imx335.c ****   }
 829:Lib/Camera_Middleware/sensors/imx335/imx335.c ****   else
 830:Lib/Camera_Middleware/sensors/imx335/imx335.c ****   {
 831:Lib/Camera_Middleware/sensors/imx335/imx335.c ****     /* Disable Test Pattern */
 832:Lib/Camera_Middleware/sensors/imx335/imx335.c ****     if (IMX335_WriteTable(pObj, test_pattern_disable_regs, ARRAY_SIZE(test_pattern_disable_regs)) !
 2173              		.loc 1 832 9
 2174 0050 0722     		movs	r2, #7
 2175 0052 0849     		ldr	r1, .L120+4
 2176 0054 7868     		ldr	r0, [r7, #4]
 2177 0056 FFF7FEFF 		bl	IMX335_WriteTable
 2178 005a 0346     		mov	r3, r0
 2179              		.loc 1 832 8 discriminator 1
 2180 005c 002B     		cmp	r3, #0
 2181 005e 02D0     		beq	.L118
 833:Lib/Camera_Middleware/sensors/imx335/imx335.c ****     {
ARM GAS  /tmp/ccxD5M1z.s 			page 53


 834:Lib/Camera_Middleware/sensors/imx335/imx335.c ****       return IMX335_ERROR;
 2182              		.loc 1 834 14
 2183 0060 4FF0FF33 		mov	r3, #-1
 2184 0064 00E0     		b	.L119
 2185              	.L118:
 835:Lib/Camera_Middleware/sensors/imx335/imx335.c ****     }
 836:Lib/Camera_Middleware/sensors/imx335/imx335.c ****   }
 837:Lib/Camera_Middleware/sensors/imx335/imx335.c **** 
 838:Lib/Camera_Middleware/sensors/imx335/imx335.c ****   return ret;
 2186              		.loc 1 838 10
 2187 0066 FB68     		ldr	r3, [r7, #12]
 2188              	.L119:
 839:Lib/Camera_Middleware/sensors/imx335/imx335.c **** }
 2189              		.loc 1 839 1
 2190 0068 1846     		mov	r0, r3
 2191 006a 1037     		adds	r7, r7, #16
 2192              		.cfi_def_cfa_offset 8
 2193 006c BD46     		mov	sp, r7
 2194              		.cfi_def_cfa_register 13
 2195              		@ sp needed
 2196 006e 80BD     		pop	{r7, pc}
 2197              	.L121:
 2198              		.align	2
 2199              	.L120:
 2200 0070 00000000 		.word	test_pattern_enable_regs
 2201 0074 00000000 		.word	test_pattern_disable_regs
 2202              		.cfi_endproc
 2203              	.LFE156:
 2205              		.text
 2206              	.Letext0:
 2207              		.file 2 "/home/tanjiajun2002/renesas/rzv/e2studio_v2025-01_fsp_v3.1.0/toolchains/gcc_arm/arm-gnu-t
 2208              		.file 3 "/home/tanjiajun2002/renesas/rzv/e2studio_v2025-01_fsp_v3.1.0/toolchains/gcc_arm/arm-gnu-t
 2209              		.file 4 "Lib/Camera_Middleware/sensors/imx335/imx335_reg.h"
 2210              		.file 5 "Lib/Camera_Middleware/sensors/imx335/imx335.h"
ARM GAS  /tmp/ccxD5M1z.s 			page 54

