ARM GAS  /tmp/ccKI94Jd.s 			page 1


   1              		.arch armv8.1-m.main
   2              		.fpu fpv5-d16
   3              		.arch_extension dsp
   4              		.arch_extension fp
   5              		.arch_extension fp.dp
   6              		.arch_extension mve
   7              		.arch_extension mve.fp
   8              		.eabi_attribute 5, "cortex-m55"
   9              		.eabi_attribute 28, 1
  10              		.eabi_attribute 20, 1
  11              		.eabi_attribute 21, 1
  12              		.eabi_attribute 23, 3
  13              		.eabi_attribute 24, 1
  14              		.eabi_attribute 25, 1
  15              		.eabi_attribute 26, 1
  16              		.eabi_attribute 30, 6
  17              		.eabi_attribute 34, 1
  18              		.eabi_attribute 38, 1
  19              		.eabi_attribute 18, 4
  20              		.file	"isp_services.c"
  21              		.text
  22              	.Ltext0:
  23              		.cfi_sections	.debug_frame
  24              		.file 1 "Lib/Camera_Middleware/ISP_Library/isp/Src/isp_services.c"
  25              		.section	.bss.ISP_ManualWBRefColorTemp,"aw",%nobits
  26              		.align	2
  29              	ISP_ManualWBRefColorTemp:
  30 0000 00000000 		.space	4
  31              		.section	.data.ISP_DecimationValue,"aw"
  32              		.align	2
  35              	ISP_DecimationValue:
  36 0000 01       		.byte	1
  37              		.section	.bss.ISP_IQParamCache,"aw",%nobits
  38              		.align	2
  41              	ISP_IQParamCache:
  42 0000 00000000 		.space	600
  42      00000000 
  42      00000000 
  42      00000000 
  42      00000000 
  43              		.section	.bss.ISP_SVC_StatEngine,"aw",%nobits
  44              		.align	2
  47              	ISP_SVC_StatEngine:
  48 0000 00000000 		.space	352
  48      00000000 
  48      00000000 
  48      00000000 
  48      00000000 
  49              		.section	.bss.ISP_SensorDelayMeasureRun,"aw",%nobits
  52              	ISP_SensorDelayMeasureRun:
  53 0000 00       		.space	1
  54              		.section	.rodata.avgRGBUp,"a"
  55              		.align	2
  58              	avgRGBUp:
  59 0000 00000000 		.word	0
  60 0004 10000000 		.word	16
  61 0008 20000000 		.word	32
ARM GAS  /tmp/ccKI94Jd.s 			page 2


  62              		.section	.rodata.avgRGBDown,"a"
  63              		.align	2
  66              	avgRGBDown:
  67 0000 40000000 		.word	64
  68 0004 50000000 		.word	80
  69 0008 60000000 		.word	96
  70              		.section	.rodata.statConfUpBins_0_2,"a"
  71              		.align	2
  74              	statConfUpBins_0_2:
  75 0000 80000000 		.word	128
  76 0004 30000000 		.word	48
  77 0008 00000000 		.word	0
  78              		.section	.rodata.statConfUpBins_3_5,"a"
  79              		.align	2
  82              	statConfUpBins_3_5:
  83 0000 80000000 		.word	128
  84 0004 30000000 		.word	48
  85 0008 04000000 		.word	4
  86              		.section	.rodata.statConfUpBins_6_8,"a"
  87              		.align	2
  90              	statConfUpBins_6_8:
  91 0000 80000000 		.word	128
  92 0004 30000000 		.word	48
  93 0008 08000000 		.word	8
  94              		.section	.rodata.statConfUpBins_9_11,"a"
  95              		.align	2
  98              	statConfUpBins_9_11:
  99 0000 80000000 		.word	128
 100 0004 30000000 		.word	48
 101 0008 0C000000 		.word	12
 102              		.section	.rodata.statConfDownBins_0_2,"a"
 103              		.align	2
 106              	statConfDownBins_0_2:
 107 0000 80000000 		.word	128
 108 0004 70000000 		.word	112
 109 0008 00000000 		.word	0
 110              		.section	.rodata.statConfDownBins_3_5,"a"
 111              		.align	2
 114              	statConfDownBins_3_5:
 115 0000 80000000 		.word	128
 116 0004 70000000 		.word	112
 117 0008 04000000 		.word	4
 118              		.section	.rodata.statConfDownBins_6_8,"a"
 119              		.align	2
 122              	statConfDownBins_6_8:
 123 0000 80000000 		.word	128
 124 0004 70000000 		.word	112
 125 0008 08000000 		.word	8
 126              		.section	.rodata.statConfDownBins_9_11,"a"
 127              		.align	2
 130              	statConfDownBins_9_11:
 131 0000 80000000 		.word	128
 132 0004 70000000 		.word	112
 133 0008 0C000000 		.word	12
 134              		.global	__aeabi_uldivmod
 135              		.section	.text.To_Shift_Multiplier,"ax",%progbits
 136              		.align	1
ARM GAS  /tmp/ccKI94Jd.s 			page 3


 137              		.syntax unified
 138              		.thumb
 139              		.thumb_func
 141              	To_Shift_Multiplier:
 142              	.LFB838:
   1:Lib/Camera_Middleware/ISP_Library/isp/Src/isp_services.c **** /**
   2:Lib/Camera_Middleware/ISP_Library/isp/Src/isp_services.c ****  ******************************************************************************
   3:Lib/Camera_Middleware/ISP_Library/isp/Src/isp_services.c ****  * @file    isp_services.c
   4:Lib/Camera_Middleware/ISP_Library/isp/Src/isp_services.c ****  * @author  AIS Application Team
   5:Lib/Camera_Middleware/ISP_Library/isp/Src/isp_services.c ****  * @brief   Services of the ISP middleware
   6:Lib/Camera_Middleware/ISP_Library/isp/Src/isp_services.c ****  ******************************************************************************
   7:Lib/Camera_Middleware/ISP_Library/isp/Src/isp_services.c ****  * @attention
   8:Lib/Camera_Middleware/ISP_Library/isp/Src/isp_services.c ****  *
   9:Lib/Camera_Middleware/ISP_Library/isp/Src/isp_services.c ****  * Copyright (c) 2023 STMicroelectronics.
  10:Lib/Camera_Middleware/ISP_Library/isp/Src/isp_services.c ****  * All rights reserved.
  11:Lib/Camera_Middleware/ISP_Library/isp/Src/isp_services.c ****  *
  12:Lib/Camera_Middleware/ISP_Library/isp/Src/isp_services.c ****  * This software is licensed under terms that can be found in the LICENSE file
  13:Lib/Camera_Middleware/ISP_Library/isp/Src/isp_services.c ****  * in the root directory of this software component.
  14:Lib/Camera_Middleware/ISP_Library/isp/Src/isp_services.c ****  * If no LICENSE file comes with this software, it is provided AS-IS.
  15:Lib/Camera_Middleware/ISP_Library/isp/Src/isp_services.c ****  *
  16:Lib/Camera_Middleware/ISP_Library/isp/Src/isp_services.c ****  ******************************************************************************
  17:Lib/Camera_Middleware/ISP_Library/isp/Src/isp_services.c ****  */
  18:Lib/Camera_Middleware/ISP_Library/isp/Src/isp_services.c **** 
  19:Lib/Camera_Middleware/ISP_Library/isp/Src/isp_services.c **** /* Includes ------------------------------------------------------------------*/
  20:Lib/Camera_Middleware/ISP_Library/isp/Src/isp_services.c **** #include "isp_core.h"
  21:Lib/Camera_Middleware/ISP_Library/isp/Src/isp_services.c **** #include "isp_services.h"
  22:Lib/Camera_Middleware/ISP_Library/isp/Src/isp_services.c **** #ifdef ISP_MW_TUNING_TOOL_SUPPORT
  23:Lib/Camera_Middleware/ISP_Library/isp/Src/isp_services.c **** #include "isp_cmd_parser.h"
  24:Lib/Camera_Middleware/ISP_Library/isp/Src/isp_services.c **** #endif
  25:Lib/Camera_Middleware/ISP_Library/isp/Src/isp_services.c **** 
  26:Lib/Camera_Middleware/ISP_Library/isp/Src/isp_services.c **** /* Private types -------------------------------------------------------------*/
  27:Lib/Camera_Middleware/ISP_Library/isp/Src/isp_services.c **** typedef enum {
  28:Lib/Camera_Middleware/ISP_Library/isp/Src/isp_services.c ****   ISP_STAT_CFG_UP_AVG = 0,      /* Configure @Up   for average    */
  29:Lib/Camera_Middleware/ISP_Library/isp/Src/isp_services.c ****   ISP_STAT_CFG_UP_BINS_0_2,     /* Configure @Up   for bins[0:2]  */
  30:Lib/Camera_Middleware/ISP_Library/isp/Src/isp_services.c ****   ISP_STAT_CFG_UP_BINS_3_5,     /* Configure @Up   for bins[3:5]  */
  31:Lib/Camera_Middleware/ISP_Library/isp/Src/isp_services.c ****   ISP_STAT_CFG_UP_BINS_6_8,     /* Configure @Up   for bins[6:8]  */
  32:Lib/Camera_Middleware/ISP_Library/isp/Src/isp_services.c ****   ISP_STAT_CFG_UP_BINS_9_11,    /* Configure @Up   for bins[9:11] */
  33:Lib/Camera_Middleware/ISP_Library/isp/Src/isp_services.c ****   ISP_STAT_CFG_DOWN_AVG,        /* Configure @Down for average    */
  34:Lib/Camera_Middleware/ISP_Library/isp/Src/isp_services.c ****   ISP_STAT_CFG_DOWN_BINS_0_2,   /* Configure @Down for bins[0:2]  */
  35:Lib/Camera_Middleware/ISP_Library/isp/Src/isp_services.c ****   ISP_STAT_CFG_DOWN_BINS_3_5,   /* Configure @Down for bins[3:5]  */
  36:Lib/Camera_Middleware/ISP_Library/isp/Src/isp_services.c ****   ISP_STAT_CFG_DOWN_BINS_6_8,   /* Configure @Down for bins[6:8]  */
  37:Lib/Camera_Middleware/ISP_Library/isp/Src/isp_services.c ****   ISP_STAT_CFG_DOWN_BINS_9_11,  /* Configure @Down for bins[9:11] */
  38:Lib/Camera_Middleware/ISP_Library/isp/Src/isp_services.c ****   ISP_STAT_CFG_LAST = ISP_STAT_CFG_DOWN_BINS_9_11,
  39:Lib/Camera_Middleware/ISP_Library/isp/Src/isp_services.c ****   ISP_STAT_CFG_CYCLE_SIZE,
  40:Lib/Camera_Middleware/ISP_Library/isp/Src/isp_services.c **** } ISP_SVC_StatEngineStage;
  41:Lib/Camera_Middleware/ISP_Library/isp/Src/isp_services.c **** 
  42:Lib/Camera_Middleware/ISP_Library/isp/Src/isp_services.c **** typedef enum {
  43:Lib/Camera_Middleware/ISP_Library/isp/Src/isp_services.c ****   ISP_RED,
  44:Lib/Camera_Middleware/ISP_Library/isp/Src/isp_services.c ****   ISP_GREEN,
  45:Lib/Camera_Middleware/ISP_Library/isp/Src/isp_services.c ****   ISP_BLUE,
  46:Lib/Camera_Middleware/ISP_Library/isp/Src/isp_services.c **** } ISP_SVC_Component;
  47:Lib/Camera_Middleware/ISP_Library/isp/Src/isp_services.c **** 
  48:Lib/Camera_Middleware/ISP_Library/isp/Src/isp_services.c **** typedef struct {
  49:Lib/Camera_Middleware/ISP_Library/isp/Src/isp_services.c ****   ISP_stat_ready_cb callback;           /* Callback to inform that stats are ready */
  50:Lib/Camera_Middleware/ISP_Library/isp/Src/isp_services.c ****   ISP_AlgoTypeDef *pAlgo;               /* Callback context parameter */
  51:Lib/Camera_Middleware/ISP_Library/isp/Src/isp_services.c ****   ISP_SVC_StatStateTypeDef *pStats;     /* Output statistics */
  52:Lib/Camera_Middleware/ISP_Library/isp/Src/isp_services.c ****   uint32_t refFrameId;                  /* Frame reference for which stats are requested */
ARM GAS  /tmp/ccKI94Jd.s 			page 4


  53:Lib/Camera_Middleware/ISP_Library/isp/Src/isp_services.c ****   ISP_SVC_StatLocation location;        /* Location where stats are requested */
  54:Lib/Camera_Middleware/ISP_Library/isp/Src/isp_services.c ****   ISP_SVC_StatType type;                /* Type of requested stats */
  55:Lib/Camera_Middleware/ISP_Library/isp/Src/isp_services.c **** } ISP_SVC_StatRegisteredClient;
  56:Lib/Camera_Middleware/ISP_Library/isp/Src/isp_services.c **** 
  57:Lib/Camera_Middleware/ISP_Library/isp/Src/isp_services.c **** #define ISP_SVC_STAT_MAX_CB       (5U)
  58:Lib/Camera_Middleware/ISP_Library/isp/Src/isp_services.c **** typedef struct {
  59:Lib/Camera_Middleware/ISP_Library/isp/Src/isp_services.c ****   ISP_SVC_StatEngineStage stage;        /* Internal processing stage */
  60:Lib/Camera_Middleware/ISP_Library/isp/Src/isp_services.c ****   ISP_SVC_StatStateTypeDef last;        /* Last available statistics */
  61:Lib/Camera_Middleware/ISP_Library/isp/Src/isp_services.c ****   ISP_SVC_StatStateTypeDef ongoing;     /* Statistics being updated */
  62:Lib/Camera_Middleware/ISP_Library/isp/Src/isp_services.c ****   ISP_SVC_StatRegisteredClient client[ISP_SVC_STAT_MAX_CB]; /* Client waiting for stats */
  63:Lib/Camera_Middleware/ISP_Library/isp/Src/isp_services.c ****   ISP_SVC_StatType upRequest;           /* Type of statistics request at Up location */
  64:Lib/Camera_Middleware/ISP_Library/isp/Src/isp_services.c ****   ISP_SVC_StatType downRequest;         /* Type of statistics request at Down location */
  65:Lib/Camera_Middleware/ISP_Library/isp/Src/isp_services.c ****   uint32_t requestAllCounter;           /* Counter for the temporary "request all stats" mode */
  66:Lib/Camera_Middleware/ISP_Library/isp/Src/isp_services.c **** } ISP_SVC_StatEngineTypeDef;
  67:Lib/Camera_Middleware/ISP_Library/isp/Src/isp_services.c **** 
  68:Lib/Camera_Middleware/ISP_Library/isp/Src/isp_services.c **** /* Private constants ---------------------------------------------------------*/
  69:Lib/Camera_Middleware/ISP_Library/isp/Src/isp_services.c **** #define ISP_SVC_CONFIG_ORDER_RGB      0
  70:Lib/Camera_Middleware/ISP_Library/isp/Src/isp_services.c **** #define ISP_SVC_CONFIG_ORDER_BGR      1
  71:Lib/Camera_Middleware/ISP_Library/isp/Src/isp_services.c **** 
  72:Lib/Camera_Middleware/ISP_Library/isp/Src/isp_services.c **** #define ISP_SVC_CONFIG_DEVICE_N6      0x00000000
  73:Lib/Camera_Middleware/ISP_Library/isp/Src/isp_services.c **** #define ISP_SVC_CONFIG_DEVICE_MP25    0x00000001
  74:Lib/Camera_Middleware/ISP_Library/isp/Src/isp_services.c **** #define ISP_SVC_CONFIG_DEVICE_UNKNOWN 0xFFFFFFFF
  75:Lib/Camera_Middleware/ISP_Library/isp/Src/isp_services.c **** 
  76:Lib/Camera_Middleware/ISP_Library/isp/Src/isp_services.c **** /* Private macro -------------------------------------------------------------*/
  77:Lib/Camera_Middleware/ISP_Library/isp/Src/isp_services.c **** /* Private function prototypes -----------------------------------------------*/
  78:Lib/Camera_Middleware/ISP_Library/isp/Src/isp_services.c **** static void To_Shift_Multiplier(uint32_t Factor, uint8_t *pShift, uint8_t *pMultiplier);
  79:Lib/Camera_Middleware/ISP_Library/isp/Src/isp_services.c **** static uint32_t From_Shift_Multiplier(uint8_t Shift, uint8_t Multiplier);
  80:Lib/Camera_Middleware/ISP_Library/isp/Src/isp_services.c **** static int16_t To_CConv_Reg(int32_t Coeff);
  81:Lib/Camera_Middleware/ISP_Library/isp/Src/isp_services.c **** static int32_t From_CConv_Reg(int16_t Reg);
  82:Lib/Camera_Middleware/ISP_Library/isp/Src/isp_services.c **** 
  83:Lib/Camera_Middleware/ISP_Library/isp/Src/isp_services.c **** /* Private variables ---------------------------------------------------------*/
  84:Lib/Camera_Middleware/ISP_Library/isp/Src/isp_services.c **** static uint32_t ISP_ManualWBRefColorTemp = 0;
  85:Lib/Camera_Middleware/ISP_Library/isp/Src/isp_services.c **** static ISP_DecimationTypeDef ISP_DecimationValue = {ISP_DECIM_FACTOR_1};
  86:Lib/Camera_Middleware/ISP_Library/isp/Src/isp_services.c **** static ISP_IQParamTypeDef ISP_IQParamCache;
  87:Lib/Camera_Middleware/ISP_Library/isp/Src/isp_services.c **** static ISP_SVC_StatEngineTypeDef ISP_SVC_StatEngine;
  88:Lib/Camera_Middleware/ISP_Library/isp/Src/isp_services.c **** static bool ISP_SensorDelayMeasureRun;
  89:Lib/Camera_Middleware/ISP_Library/isp/Src/isp_services.c **** 
  90:Lib/Camera_Middleware/ISP_Library/isp/Src/isp_services.c **** static const uint32_t avgRGBUp[] = {
  91:Lib/Camera_Middleware/ISP_Library/isp/Src/isp_services.c ****     DCMIPP_STAT_EXT_SOURCE_PRE_BLKLVL_R, DCMIPP_STAT_EXT_SOURCE_PRE_BLKLVL_G, DCMIPP_STAT_EXT_SOURC
  92:Lib/Camera_Middleware/ISP_Library/isp/Src/isp_services.c **** };
  93:Lib/Camera_Middleware/ISP_Library/isp/Src/isp_services.c **** 
  94:Lib/Camera_Middleware/ISP_Library/isp/Src/isp_services.c **** static const uint32_t avgRGBDown[] = {
  95:Lib/Camera_Middleware/ISP_Library/isp/Src/isp_services.c ****     DCMIPP_STAT_EXT_SOURCE_POST_DEMOS_R, DCMIPP_STAT_EXT_SOURCE_POST_DEMOS_G, DCMIPP_STAT_EXT_SOURC
  96:Lib/Camera_Middleware/ISP_Library/isp/Src/isp_services.c **** };
  97:Lib/Camera_Middleware/ISP_Library/isp/Src/isp_services.c **** 
  98:Lib/Camera_Middleware/ISP_Library/isp/Src/isp_services.c **** static const DCMIPP_StatisticExtractionConfTypeDef statConfUpBins_0_2 = {
  99:Lib/Camera_Middleware/ISP_Library/isp/Src/isp_services.c ****     .Mode = DCMIPP_STAT_EXT_MODE_BINS,
 100:Lib/Camera_Middleware/ISP_Library/isp/Src/isp_services.c ****     .Source = DCMIPP_STAT_EXT_SOURCE_PRE_BLKLVL_L,
 101:Lib/Camera_Middleware/ISP_Library/isp/Src/isp_services.c ****     .Bins = DCMIPP_STAT_EXT_BINS_MODE_LOWER_BINS
 102:Lib/Camera_Middleware/ISP_Library/isp/Src/isp_services.c **** };
 103:Lib/Camera_Middleware/ISP_Library/isp/Src/isp_services.c **** 
 104:Lib/Camera_Middleware/ISP_Library/isp/Src/isp_services.c **** static const DCMIPP_StatisticExtractionConfTypeDef statConfUpBins_3_5 = {
 105:Lib/Camera_Middleware/ISP_Library/isp/Src/isp_services.c ****     .Mode = DCMIPP_STAT_EXT_MODE_BINS,
 106:Lib/Camera_Middleware/ISP_Library/isp/Src/isp_services.c ****     .Source = DCMIPP_STAT_EXT_SOURCE_PRE_BLKLVL_L,
 107:Lib/Camera_Middleware/ISP_Library/isp/Src/isp_services.c ****     .Bins = DCMIPP_STAT_EXT_BINS_MODE_LOWMID_BINS
 108:Lib/Camera_Middleware/ISP_Library/isp/Src/isp_services.c **** };
 109:Lib/Camera_Middleware/ISP_Library/isp/Src/isp_services.c **** 
ARM GAS  /tmp/ccKI94Jd.s 			page 5


 110:Lib/Camera_Middleware/ISP_Library/isp/Src/isp_services.c **** static const DCMIPP_StatisticExtractionConfTypeDef statConfUpBins_6_8 = {
 111:Lib/Camera_Middleware/ISP_Library/isp/Src/isp_services.c ****     .Mode = DCMIPP_STAT_EXT_MODE_BINS,
 112:Lib/Camera_Middleware/ISP_Library/isp/Src/isp_services.c ****     .Source = DCMIPP_STAT_EXT_SOURCE_PRE_BLKLVL_L,
 113:Lib/Camera_Middleware/ISP_Library/isp/Src/isp_services.c ****     .Bins = DCMIPP_STAT_EXT_BINS_MODE_UPMID_BINS
 114:Lib/Camera_Middleware/ISP_Library/isp/Src/isp_services.c **** };
 115:Lib/Camera_Middleware/ISP_Library/isp/Src/isp_services.c **** 
 116:Lib/Camera_Middleware/ISP_Library/isp/Src/isp_services.c **** static const DCMIPP_StatisticExtractionConfTypeDef statConfUpBins_9_11 = {
 117:Lib/Camera_Middleware/ISP_Library/isp/Src/isp_services.c ****     .Mode = DCMIPP_STAT_EXT_MODE_BINS,
 118:Lib/Camera_Middleware/ISP_Library/isp/Src/isp_services.c ****     .Source = DCMIPP_STAT_EXT_SOURCE_PRE_BLKLVL_L,
 119:Lib/Camera_Middleware/ISP_Library/isp/Src/isp_services.c ****     .Bins = DCMIPP_STAT_EXT_BINS_MODE_UP_BINS
 120:Lib/Camera_Middleware/ISP_Library/isp/Src/isp_services.c **** };
 121:Lib/Camera_Middleware/ISP_Library/isp/Src/isp_services.c **** 
 122:Lib/Camera_Middleware/ISP_Library/isp/Src/isp_services.c **** static const DCMIPP_StatisticExtractionConfTypeDef statConfDownBins_0_2 = {
 123:Lib/Camera_Middleware/ISP_Library/isp/Src/isp_services.c ****     .Mode = DCMIPP_STAT_EXT_MODE_BINS,
 124:Lib/Camera_Middleware/ISP_Library/isp/Src/isp_services.c ****     .Source = DCMIPP_STAT_EXT_SOURCE_POST_DEMOS_L,
 125:Lib/Camera_Middleware/ISP_Library/isp/Src/isp_services.c ****     .Bins = DCMIPP_STAT_EXT_BINS_MODE_LOWER_BINS
 126:Lib/Camera_Middleware/ISP_Library/isp/Src/isp_services.c **** };
 127:Lib/Camera_Middleware/ISP_Library/isp/Src/isp_services.c **** 
 128:Lib/Camera_Middleware/ISP_Library/isp/Src/isp_services.c **** static const DCMIPP_StatisticExtractionConfTypeDef statConfDownBins_3_5 = {
 129:Lib/Camera_Middleware/ISP_Library/isp/Src/isp_services.c ****     .Mode = DCMIPP_STAT_EXT_MODE_BINS,
 130:Lib/Camera_Middleware/ISP_Library/isp/Src/isp_services.c ****     .Source = DCMIPP_STAT_EXT_SOURCE_POST_DEMOS_L,
 131:Lib/Camera_Middleware/ISP_Library/isp/Src/isp_services.c ****     .Bins = DCMIPP_STAT_EXT_BINS_MODE_LOWMID_BINS
 132:Lib/Camera_Middleware/ISP_Library/isp/Src/isp_services.c **** };
 133:Lib/Camera_Middleware/ISP_Library/isp/Src/isp_services.c **** 
 134:Lib/Camera_Middleware/ISP_Library/isp/Src/isp_services.c **** static const DCMIPP_StatisticExtractionConfTypeDef statConfDownBins_6_8 = {
 135:Lib/Camera_Middleware/ISP_Library/isp/Src/isp_services.c ****     .Mode = DCMIPP_STAT_EXT_MODE_BINS,
 136:Lib/Camera_Middleware/ISP_Library/isp/Src/isp_services.c ****     .Source = DCMIPP_STAT_EXT_SOURCE_POST_DEMOS_L,
 137:Lib/Camera_Middleware/ISP_Library/isp/Src/isp_services.c ****     .Bins = DCMIPP_STAT_EXT_BINS_MODE_UPMID_BINS
 138:Lib/Camera_Middleware/ISP_Library/isp/Src/isp_services.c **** };
 139:Lib/Camera_Middleware/ISP_Library/isp/Src/isp_services.c **** 
 140:Lib/Camera_Middleware/ISP_Library/isp/Src/isp_services.c **** static const DCMIPP_StatisticExtractionConfTypeDef statConfDownBins_9_11 = {
 141:Lib/Camera_Middleware/ISP_Library/isp/Src/isp_services.c ****     .Mode = DCMIPP_STAT_EXT_MODE_BINS,
 142:Lib/Camera_Middleware/ISP_Library/isp/Src/isp_services.c ****     .Source = DCMIPP_STAT_EXT_SOURCE_POST_DEMOS_L,
 143:Lib/Camera_Middleware/ISP_Library/isp/Src/isp_services.c ****     .Bins = DCMIPP_STAT_EXT_BINS_MODE_UP_BINS
 144:Lib/Camera_Middleware/ISP_Library/isp/Src/isp_services.c **** };
 145:Lib/Camera_Middleware/ISP_Library/isp/Src/isp_services.c **** 
 146:Lib/Camera_Middleware/ISP_Library/isp/Src/isp_services.c **** /* Exported variables --------------------------------------------------------*/
 147:Lib/Camera_Middleware/ISP_Library/isp/Src/isp_services.c **** extern ISP_MetaTypeDef Meta;
 148:Lib/Camera_Middleware/ISP_Library/isp/Src/isp_services.c **** 
 149:Lib/Camera_Middleware/ISP_Library/isp/Src/isp_services.c **** /* Private functions ---------------------------------------------------------*/
 150:Lib/Camera_Middleware/ISP_Library/isp/Src/isp_services.c **** static void To_Shift_Multiplier(uint32_t Factor, uint8_t *pShift, uint8_t *pMultiplier)
 151:Lib/Camera_Middleware/ISP_Library/isp/Src/isp_services.c **** {
 143              		.loc 1 151 1
 144              		.cfi_startproc
 145              		@ args = 0, pretend = 0, frame = 24
 146              		@ frame_needed = 1, uses_anonymous_args = 0
 147 0000 B0B5     		push	{r4, r5, r7, lr}
 148              		.cfi_def_cfa_offset 16
 149              		.cfi_offset 4, -16
 150              		.cfi_offset 5, -12
 151              		.cfi_offset 7, -8
 152              		.cfi_offset 14, -4
 153 0002 86B0     		sub	sp, sp, #24
 154              		.cfi_def_cfa_offset 40
 155 0004 00AF     		add	r7, sp, #0
 156              		.cfi_def_cfa_register 7
 157 0006 F860     		str	r0, [r7, #12]
ARM GAS  /tmp/ccKI94Jd.s 			page 6


 158 0008 B960     		str	r1, [r7, #8]
 159 000a 7A60     		str	r2, [r7, #4]
 152:Lib/Camera_Middleware/ISP_Library/isp/Src/isp_services.c ****   /* Convert Factor (Unit = 100000000 for "x1.0") to Multiplier (where 128 means "x1.0") */
 153:Lib/Camera_Middleware/ISP_Library/isp/Src/isp_services.c ****   uint64_t Val = Factor;
 160              		.loc 1 153 12
 161 000c FB68     		ldr	r3, [r7, #12]
 162 000e 0022     		movs	r2, #0
 163 0010 1C46     		mov	r4, r3
 164 0012 1546     		mov	r5, r2
 165 0014 C7E90445 		strd	r4, [r7, #16]
 154:Lib/Camera_Middleware/ISP_Library/isp/Src/isp_services.c ****   Val = (Val * 128) / ISP_GAIN_PRECISION_FACTOR;
 166              		.loc 1 154 14
 167 0018 D7E90423 		ldrd	r2, [r7, #16]
 168 001c 1046     		mov	r0, r2
 169 001e 1946     		mov	r1, r3
 170 0020 50EACF11 		lsll	r0, r1, #7
 171              		.loc 1 154 7
 172 0024 14A3     		adr	r3, .L4
 173 0026 D3E90023 		ldrd	r2, [r3]
 174 002a FFF7FEFF 		bl	__aeabi_uldivmod
 175 002e 0246     		mov	r2, r0
 176 0030 0B46     		mov	r3, r1
 177 0032 C7E90423 		strd	r2, [r7, #16]
 155:Lib/Camera_Middleware/ISP_Library/isp/Src/isp_services.c **** 
 156:Lib/Camera_Middleware/ISP_Library/isp/Src/isp_services.c ****   /* Get Shift + Multiplier where Multiplier < 256 */
 157:Lib/Camera_Middleware/ISP_Library/isp/Src/isp_services.c ****   *pShift = 0;
 178              		.loc 1 157 11
 179 0036 BB68     		ldr	r3, [r7, #8]
 180 0038 0022     		movs	r2, #0
 181 003a 1A70     		strb	r2, [r3]
 158:Lib/Camera_Middleware/ISP_Library/isp/Src/isp_services.c ****   while (Val >= 256)
 182              		.loc 1 158 9
 183 003c 0BE0     		b	.L2
 184              	.L3:
 159:Lib/Camera_Middleware/ISP_Library/isp/Src/isp_services.c ****   {
 160:Lib/Camera_Middleware/ISP_Library/isp/Src/isp_services.c ****     Val /= 2;
 185              		.loc 1 160 9
 186 003e D7E90423 		ldrd	r2, [r7, #16]
 187 0042 52EA5F03 		lsrl	r2, r3, #1
 188 0046 C7E90423 		strd	r2, [r7, #16]
 161:Lib/Camera_Middleware/ISP_Library/isp/Src/isp_services.c ****     (*pShift)++;
 189              		.loc 1 161 6
 190 004a BB68     		ldr	r3, [r7, #8]
 191 004c 1B78     		ldrb	r3, [r3]	@ zero_extendqisi2
 192              		.loc 1 161 14
 193 004e 0133     		adds	r3, r3, #1
 194 0050 DAB2     		uxtb	r2, r3
 195 0052 BB68     		ldr	r3, [r7, #8]
 196 0054 1A70     		strb	r2, [r3]
 197              	.L2:
 158:Lib/Camera_Middleware/ISP_Library/isp/Src/isp_services.c ****   while (Val >= 256)
 198              		.loc 1 158 14
 199 0056 D7E90423 		ldrd	r2, [r7, #16]
 200 005a B2F5807F 		cmp	r2, #256
 201 005e 73F10003 		sbcs	r3, r3, #0
 202 0062 ECD2     		bcs	.L3
 162:Lib/Camera_Middleware/ISP_Library/isp/Src/isp_services.c ****   }
ARM GAS  /tmp/ccKI94Jd.s 			page 7


 163:Lib/Camera_Middleware/ISP_Library/isp/Src/isp_services.c **** 
 164:Lib/Camera_Middleware/ISP_Library/isp/Src/isp_services.c ****   *pMultiplier = Val;
 203              		.loc 1 164 16
 204 0064 3A7C     		ldrb	r2, [r7, #16]	@ zero_extendqisi2
 205 0066 7B68     		ldr	r3, [r7, #4]
 206 0068 1A70     		strb	r2, [r3]
 165:Lib/Camera_Middleware/ISP_Library/isp/Src/isp_services.c **** }
 207              		.loc 1 165 1
 208 006a 00BF     		nop
 209 006c 1837     		adds	r7, r7, #24
 210              		.cfi_def_cfa_offset 16
 211 006e BD46     		mov	sp, r7
 212              		.cfi_def_cfa_register 13
 213              		@ sp needed
 214 0070 B0BD     		pop	{r4, r5, r7, pc}
 215              	.L5:
 216 0072 00BFAFF3 		.align	3
 216      0080
 217              	.L4:
 218 0078 00E1F505 		.word	100000000
 219 007c 00000000 		.word	0
 220              		.cfi_endproc
 221              	.LFE838:
 223              		.section	.text.From_Shift_Multiplier,"ax",%progbits
 224              		.align	1
 225              		.syntax unified
 226              		.thumb
 227              		.thumb_func
 229              	From_Shift_Multiplier:
 230              	.LFB839:
 166:Lib/Camera_Middleware/ISP_Library/isp/Src/isp_services.c **** 
 167:Lib/Camera_Middleware/ISP_Library/isp/Src/isp_services.c **** static uint32_t From_Shift_Multiplier(uint8_t Shift, uint8_t Multiplier)
 168:Lib/Camera_Middleware/ISP_Library/isp/Src/isp_services.c **** {
 231              		.loc 1 168 1
 232              		.cfi_startproc
 233              		@ args = 0, pretend = 0, frame = 16
 234              		@ frame_needed = 1, uses_anonymous_args = 0
 235              		@ link register save eliminated.
 236 0000 2DE9F00F 		push	{r4, r5, r6, r7, r8, r9, r10, fp}
 237              		.cfi_def_cfa_offset 32
 238              		.cfi_offset 4, -32
 239              		.cfi_offset 5, -28
 240              		.cfi_offset 6, -24
 241              		.cfi_offset 7, -20
 242              		.cfi_offset 8, -16
 243              		.cfi_offset 9, -12
 244              		.cfi_offset 10, -8
 245              		.cfi_offset 11, -4
 246 0004 84B0     		sub	sp, sp, #16
 247              		.cfi_def_cfa_offset 48
 248 0006 00AF     		add	r7, sp, #0
 249              		.cfi_def_cfa_register 7
 250 0008 0646     		mov	r6, r0
 251 000a 0846     		mov	r0, r1
 252 000c 3146     		mov	r1, r6
 253 000e F971     		strb	r1, [r7, #7]
 254 0010 0146     		mov	r1, r0
ARM GAS  /tmp/ccKI94Jd.s 			page 8


 255 0012 B971     		strb	r1, [r7, #6]
 169:Lib/Camera_Middleware/ISP_Library/isp/Src/isp_services.c ****   /* Convert Shift + Multiplier to Factor (Unit = 100000000 for "x1.0") */
 170:Lib/Camera_Middleware/ISP_Library/isp/Src/isp_services.c ****   uint64_t Val = (1 << Shift);
 256              		.loc 1 170 21
 257 0014 F979     		ldrb	r1, [r7, #7]	@ zero_extendqisi2
 258 0016 0120     		movs	r0, #1
 259 0018 00FA01F1 		lsl	r1, r0, r1
 260              		.loc 1 170 12
 261 001c C817     		asrs	r0, r1, #31
 262 001e 8A46     		mov	r10, r1
 263 0020 8346     		mov	fp, r0
 264 0022 C7E902AB 		strd	r10, [r7, #8]
 171:Lib/Camera_Middleware/ISP_Library/isp/Src/isp_services.c ****   Val = (Val * Multiplier * ISP_GAIN_PRECISION_FACTOR) / 128;
 265              		.loc 1 171 14
 266 0026 B979     		ldrb	r1, [r7, #6]	@ zero_extendqisi2
 267 0028 0020     		movs	r0, #0
 268 002a 8846     		mov	r8, r1
 269 002c 8146     		mov	r9, r0
 270 002e B968     		ldr	r1, [r7, #8]
 271 0030 09FB01F0 		mul	r0, r9, r1
 272 0034 F968     		ldr	r1, [r7, #12]
 273 0036 08FB01F1 		mul	r1, r8, r1
 274 003a 0144     		add	r1, r1, r0
 275 003c B868     		ldr	r0, [r7, #8]
 276 003e A0FB0823 		umull	r2, r3, r0, r8
 277 0042 1944     		add	r1, r1, r3
 278 0044 0B46     		mov	r3, r1
 279              		.loc 1 171 27
 280 0046 0C49     		ldr	r1, .L8
 281 0048 01FB03F0 		mul	r0, r1, r3
 282 004c 0021     		movs	r1, #0
 283 004e 02FB01F1 		mul	r1, r2, r1
 284 0052 0144     		add	r1, r1, r0
 285 0054 0848     		ldr	r0, .L8
 286 0056 A2FB0045 		umull	r4, r5, r2, r0
 287 005a 4B19     		adds	r3, r1, r5
 288 005c 1D46     		mov	r5, r3
 289              		.loc 1 171 7
 290 005e 2246     		mov	r2, r4
 291 0060 2B46     		mov	r3, r5
 292 0062 52EADF13 		lsrl	r2, r3, #7
 293 0066 C7E90223 		strd	r2, [r7, #8]
 172:Lib/Camera_Middleware/ISP_Library/isp/Src/isp_services.c ****   return (uint32_t) Val;
 294              		.loc 1 172 10
 295 006a BB68     		ldr	r3, [r7, #8]
 173:Lib/Camera_Middleware/ISP_Library/isp/Src/isp_services.c **** }
 296              		.loc 1 173 1
 297 006c 1846     		mov	r0, r3
 298 006e 1037     		adds	r7, r7, #16
 299              		.cfi_def_cfa_offset 32
 300 0070 BD46     		mov	sp, r7
 301              		.cfi_def_cfa_register 13
 302              		@ sp needed
 303 0072 BDE8F00F 		pop	{r4, r5, r6, r7, r8, r9, r10, fp}
 304              		.cfi_restore 11
 305              		.cfi_restore 10
 306              		.cfi_restore 9
ARM GAS  /tmp/ccKI94Jd.s 			page 9


 307              		.cfi_restore 8
 308              		.cfi_restore 7
 309              		.cfi_restore 6
 310              		.cfi_restore 5
 311              		.cfi_restore 4
 312              		.cfi_def_cfa_offset 0
 313 0076 7047     		bx	lr
 314              	.L9:
 315              		.align	2
 316              	.L8:
 317 0078 00E1F505 		.word	100000000
 318              		.cfi_endproc
 319              	.LFE839:
 321              		.global	__aeabi_ldivmod
 322              		.section	.text.To_CConv_Reg,"ax",%progbits
 323              		.align	1
 324              		.syntax unified
 325              		.thumb
 326              		.thumb_func
 328              	To_CConv_Reg:
 329              	.LFB840:
 174:Lib/Camera_Middleware/ISP_Library/isp/Src/isp_services.c **** 
 175:Lib/Camera_Middleware/ISP_Library/isp/Src/isp_services.c **** static int16_t To_CConv_Reg(int32_t Coeff)
 176:Lib/Camera_Middleware/ISP_Library/isp/Src/isp_services.c **** {
 330              		.loc 1 176 1
 331              		.cfi_startproc
 332              		@ args = 0, pretend = 0, frame = 16
 333              		@ frame_needed = 1, uses_anonymous_args = 0
 334 0000 80B5     		push	{r7, lr}
 335              		.cfi_def_cfa_offset 8
 336              		.cfi_offset 7, -8
 337              		.cfi_offset 14, -4
 338 0002 84B0     		sub	sp, sp, #16
 339              		.cfi_def_cfa_offset 24
 340 0004 00AF     		add	r7, sp, #0
 341              		.cfi_def_cfa_register 7
 342 0006 7860     		str	r0, [r7, #4]
 177:Lib/Camera_Middleware/ISP_Library/isp/Src/isp_services.c ****   /* Convert Coefficient (Unit = 100000000 for "x1.0") to register format */
 178:Lib/Camera_Middleware/ISP_Library/isp/Src/isp_services.c ****   int64_t Val = Coeff;
 343              		.loc 1 178 11
 344 0008 7968     		ldr	r1, [r7, #4]
 345 000a C817     		asrs	r0, r1, #31
 346 000c 0A46     		mov	r2, r1
 347 000e 0346     		mov	r3, r0
 348 0010 C7E90223 		strd	r2, [r7, #8]
 179:Lib/Camera_Middleware/ISP_Library/isp/Src/isp_services.c **** 
 180:Lib/Camera_Middleware/ISP_Library/isp/Src/isp_services.c ****   Val = (Val * 256) / ISP_CCM_PRECISION_FACTOR;
 349              		.loc 1 180 7
 350 0014 D7E90201 		ldrd	r0, [r7, #8]
 351 0018 074A     		ldr	r2, .L12
 352 001a 4FF00003 		mov	r3, #0
 353 001e FFF7FEFF 		bl	__aeabi_ldivmod
 354 0022 0246     		mov	r2, r0
 355 0024 0B46     		mov	r3, r1
 356 0026 C7E90223 		strd	r2, [r7, #8]
 181:Lib/Camera_Middleware/ISP_Library/isp/Src/isp_services.c **** 
 182:Lib/Camera_Middleware/ISP_Library/isp/Src/isp_services.c ****   return (int16_t) Val;
ARM GAS  /tmp/ccKI94Jd.s 			page 10


 357              		.loc 1 182 10
 358 002a B7F90830 		ldrsh	r3, [r7, #8]
 183:Lib/Camera_Middleware/ISP_Library/isp/Src/isp_services.c **** }
 359              		.loc 1 183 1
 360 002e 1846     		mov	r0, r3
 361 0030 1037     		adds	r7, r7, #16
 362              		.cfi_def_cfa_offset 8
 363 0032 BD46     		mov	sp, r7
 364              		.cfi_def_cfa_register 13
 365              		@ sp needed
 366 0034 80BD     		pop	{r7, pc}
 367              	.L13:
 368 0036 00BF     		.align	2
 369              	.L12:
 370 0038 E1F50500 		.word	390625
 371              		.cfi_endproc
 372              	.LFE840:
 374              		.section	.text.From_CConv_Reg,"ax",%progbits
 375              		.align	1
 376              		.syntax unified
 377              		.thumb
 378              		.thumb_func
 380              	From_CConv_Reg:
 381              	.LFB841:
 184:Lib/Camera_Middleware/ISP_Library/isp/Src/isp_services.c **** 
 185:Lib/Camera_Middleware/ISP_Library/isp/Src/isp_services.c **** static int32_t From_CConv_Reg(int16_t Reg)
 186:Lib/Camera_Middleware/ISP_Library/isp/Src/isp_services.c **** {
 382              		.loc 1 186 1
 383              		.cfi_startproc
 384              		@ args = 0, pretend = 0, frame = 16
 385              		@ frame_needed = 1, uses_anonymous_args = 0
 386              		@ link register save eliminated.
 387 0000 B0B4     		push	{r4, r5, r7}
 388              		.cfi_def_cfa_offset 12
 389              		.cfi_offset 4, -12
 390              		.cfi_offset 5, -8
 391              		.cfi_offset 7, -4
 392 0002 85B0     		sub	sp, sp, #20
 393              		.cfi_def_cfa_offset 32
 394 0004 00AF     		add	r7, sp, #0
 395              		.cfi_def_cfa_register 7
 396 0006 0146     		mov	r1, r0
 397 0008 F980     		strh	r1, [r7, #6]	@ movhi
 187:Lib/Camera_Middleware/ISP_Library/isp/Src/isp_services.c ****   /* Convert from register format to Coefficient (Unit = 100000000 for "x1.0") */
 188:Lib/Camera_Middleware/ISP_Library/isp/Src/isp_services.c ****   int64_t Val = Reg;
 398              		.loc 1 188 11
 399 000a B7F90610 		ldrsh	r1, [r7, #6]
 400 000e C817     		asrs	r0, r1, #31
 401 0010 0C46     		mov	r4, r1
 402 0012 0546     		mov	r5, r0
 403 0014 C7E90245 		strd	r4, [r7, #8]
 189:Lib/Camera_Middleware/ISP_Library/isp/Src/isp_services.c **** 
 190:Lib/Camera_Middleware/ISP_Library/isp/Src/isp_services.c ****   Val = (Val * ISP_CCM_PRECISION_FACTOR) / 256;
 404              		.loc 1 190 7
 405 0018 F968     		ldr	r1, [r7, #12]
 406 001a 0C48     		ldr	r0, .L16
 407 001c 01FB00F0 		mul	r0, r1, r0
ARM GAS  /tmp/ccKI94Jd.s 			page 11


 408 0020 B968     		ldr	r1, [r7, #8]
 409 0022 0024     		movs	r4, #0
 410 0024 04FB01F1 		mul	r1, r4, r1
 411 0028 0144     		add	r1, r1, r0
 412 002a B868     		ldr	r0, [r7, #8]
 413 002c 074C     		ldr	r4, .L16
 414 002e A0FB0423 		umull	r2, r3, r0, r4
 415 0032 1944     		add	r1, r1, r3
 416 0034 0B46     		mov	r3, r1
 417 0036 C7E90223 		strd	r2, [r7, #8]
 418 003a C7E90223 		strd	r2, [r7, #8]
 191:Lib/Camera_Middleware/ISP_Library/isp/Src/isp_services.c **** 
 192:Lib/Camera_Middleware/ISP_Library/isp/Src/isp_services.c ****   return (int32_t) Val;
 419              		.loc 1 192 10
 420 003e BB68     		ldr	r3, [r7, #8]
 193:Lib/Camera_Middleware/ISP_Library/isp/Src/isp_services.c **** }
 421              		.loc 1 193 1
 422 0040 1846     		mov	r0, r3
 423 0042 1437     		adds	r7, r7, #20
 424              		.cfi_def_cfa_offset 12
 425 0044 BD46     		mov	sp, r7
 426              		.cfi_def_cfa_register 13
 427              		@ sp needed
 428 0046 B0BC     		pop	{r4, r5, r7}
 429              		.cfi_restore 7
 430              		.cfi_restore 5
 431              		.cfi_restore 4
 432              		.cfi_def_cfa_offset 0
 433 0048 7047     		bx	lr
 434              	.L17:
 435 004a 00BF     		.align	2
 436              	.L16:
 437 004c E1F50500 		.word	390625
 438              		.cfi_endproc
 439              	.LFE841:
 441              		.section	.text.GetAvgStats,"ax",%progbits
 442              		.align	1
 443              		.syntax unified
 444              		.thumb
 445              		.thumb_func
 447              	GetAvgStats:
 448              	.LFB842:
 194:Lib/Camera_Middleware/ISP_Library/isp/Src/isp_services.c **** 
 195:Lib/Camera_Middleware/ISP_Library/isp/Src/isp_services.c **** static uint8_t GetAvgStats(ISP_HandleTypeDef *hIsp, ISP_SVC_StatLocation location, ISP_SVC_Componen
 196:Lib/Camera_Middleware/ISP_Library/isp/Src/isp_services.c **** {
 449              		.loc 1 196 1
 450              		.cfi_startproc
 451              		@ args = 0, pretend = 0, frame = 24
 452              		@ frame_needed = 1, uses_anonymous_args = 0
 453              		@ link register save eliminated.
 454 0000 80B4     		push	{r7}
 455              		.cfi_def_cfa_offset 4
 456              		.cfi_offset 7, -4
 457 0002 87B0     		sub	sp, sp, #28
 458              		.cfi_def_cfa_offset 32
 459 0004 00AF     		add	r7, sp, #0
 460              		.cfi_def_cfa_register 7
ARM GAS  /tmp/ccKI94Jd.s 			page 12


 461 0006 F860     		str	r0, [r7, #12]
 462 0008 7B60     		str	r3, [r7, #4]
 463 000a 0B46     		mov	r3, r1
 464 000c FB72     		strb	r3, [r7, #11]
 465 000e 1346     		mov	r3, r2
 466 0010 BB72     		strb	r3, [r7, #10]
 197:Lib/Camera_Middleware/ISP_Library/isp/Src/isp_services.c ****   uint32_t nb_comp_pix, comp_divider;
 198:Lib/Camera_Middleware/ISP_Library/isp/Src/isp_services.c **** 
 199:Lib/Camera_Middleware/ISP_Library/isp/Src/isp_services.c ****   /* Number of pixels computed from Stat Area and considering decimation */
 200:Lib/Camera_Middleware/ISP_Library/isp/Src/isp_services.c ****   nb_comp_pix = hIsp->statArea.XSize * hIsp->statArea.YSize;
 467              		.loc 1 200 31
 468 0012 FB68     		ldr	r3, [r7, #12]
 469 0014 1B69     		ldr	r3, [r3, #16]
 470              		.loc 1 200 54
 471 0016 FA68     		ldr	r2, [r7, #12]
 472 0018 5269     		ldr	r2, [r2, #20]
 473              		.loc 1 200 15
 474 001a 02FB03F3 		mul	r3, r2, r3
 475 001e 3B61     		str	r3, [r7, #16]
 201:Lib/Camera_Middleware/ISP_Library/isp/Src/isp_services.c ****   nb_comp_pix /= ISP_DecimationValue.factor * ISP_DecimationValue.factor;
 476              		.loc 1 201 37
 477 0020 184B     		ldr	r3, .L25
 478 0022 1B78     		ldrb	r3, [r3]	@ zero_extendqisi2
 479 0024 1A46     		mov	r2, r3
 480              		.loc 1 201 66
 481 0026 174B     		ldr	r3, .L25
 482 0028 1B78     		ldrb	r3, [r3]	@ zero_extendqisi2
 483              		.loc 1 201 45
 484 002a 02FB03F3 		mul	r3, r2, r3
 485 002e 1A46     		mov	r2, r3
 486              		.loc 1 201 15
 487 0030 3B69     		ldr	r3, [r7, #16]
 488 0032 B3FBF2F3 		udiv	r3, r3, r2
 489 0036 3B61     		str	r3, [r7, #16]
 202:Lib/Camera_Middleware/ISP_Library/isp/Src/isp_services.c **** 
 203:Lib/Camera_Middleware/ISP_Library/isp/Src/isp_services.c ****   if (location == ISP_STAT_LOC_DOWN)
 490              		.loc 1 203 6
 491 0038 FB7A     		ldrb	r3, [r7, #11]	@ zero_extendqisi2
 492 003a 022B     		cmp	r3, #2
 493 003c 02D1     		bne	.L19
 204:Lib/Camera_Middleware/ISP_Library/isp/Src/isp_services.c ****   {
 205:Lib/Camera_Middleware/ISP_Library/isp/Src/isp_services.c ****     /* RGB format after demosaicing : 1 component per pixel */
 206:Lib/Camera_Middleware/ISP_Library/isp/Src/isp_services.c ****     comp_divider = 1;
 494              		.loc 1 206 18
 495 003e 0123     		movs	r3, #1
 496 0040 7B61     		str	r3, [r7, #20]
 497 0042 06E0     		b	.L20
 498              	.L19:
 207:Lib/Camera_Middleware/ISP_Library/isp/Src/isp_services.c ****   }
 208:Lib/Camera_Middleware/ISP_Library/isp/Src/isp_services.c ****   else
 209:Lib/Camera_Middleware/ISP_Library/isp/Src/isp_services.c ****   {
 210:Lib/Camera_Middleware/ISP_Library/isp/Src/isp_services.c ****     /* Only raw bayer sensor expected */
 211:Lib/Camera_Middleware/ISP_Library/isp/Src/isp_services.c ****     /* raw bayer: RGB component not present for all pixels */
 212:Lib/Camera_Middleware/ISP_Library/isp/Src/isp_services.c ****     comp_divider = (component == ISP_GREEN) ? 2 : 4;
 499              		.loc 1 212 49
 500 0044 BB7A     		ldrb	r3, [r7, #10]	@ zero_extendqisi2
 501 0046 012B     		cmp	r3, #1
ARM GAS  /tmp/ccKI94Jd.s 			page 13


 502 0048 01D1     		bne	.L21
 503              		.loc 1 212 49 is_stmt 0 discriminator 1
 504 004a 0223     		movs	r3, #2
 505 004c 00E0     		b	.L22
 506              	.L21:
 507              		.loc 1 212 49 discriminator 2
 508 004e 0423     		movs	r3, #4
 509              	.L22:
 510              		.loc 1 212 18 is_stmt 1 discriminator 4
 511 0050 7B61     		str	r3, [r7, #20]
 512              	.L20:
 213:Lib/Camera_Middleware/ISP_Library/isp/Src/isp_services.c ****   }
 214:Lib/Camera_Middleware/ISP_Library/isp/Src/isp_services.c **** 
 215:Lib/Camera_Middleware/ISP_Library/isp/Src/isp_services.c ****   /* Number of pixels per component */
 216:Lib/Camera_Middleware/ISP_Library/isp/Src/isp_services.c ****   nb_comp_pix /= comp_divider;
 513              		.loc 1 216 15
 514 0052 3A69     		ldr	r2, [r7, #16]
 515 0054 7B69     		ldr	r3, [r7, #20]
 516 0056 B2FBF3F3 		udiv	r3, r2, r3
 517 005a 3B61     		str	r3, [r7, #16]
 217:Lib/Camera_Middleware/ISP_Library/isp/Src/isp_services.c **** 
 218:Lib/Camera_Middleware/ISP_Library/isp/Src/isp_services.c ****   /* Compute average (rounding to closest integer) */
 219:Lib/Camera_Middleware/ISP_Library/isp/Src/isp_services.c ****   if (nb_comp_pix == 0)
 518              		.loc 1 219 6
 519 005c 3B69     		ldr	r3, [r7, #16]
 520 005e 002B     		cmp	r3, #0
 521 0060 01D1     		bne	.L23
 220:Lib/Camera_Middleware/ISP_Library/isp/Src/isp_services.c ****   {
 221:Lib/Camera_Middleware/ISP_Library/isp/Src/isp_services.c ****     return 0;
 522              		.loc 1 221 12
 523 0062 0023     		movs	r3, #0
 524 0064 08E0     		b	.L24
 525              	.L23:
 222:Lib/Camera_Middleware/ISP_Library/isp/Src/isp_services.c ****   }
 223:Lib/Camera_Middleware/ISP_Library/isp/Src/isp_services.c **** 
 224:Lib/Camera_Middleware/ISP_Library/isp/Src/isp_services.c ****   return ((accu * 256) + (nb_comp_pix / 2)) / nb_comp_pix;
 526              		.loc 1 224 17
 527 0066 7B68     		ldr	r3, [r7, #4]
 528 0068 1A02     		lsls	r2, r3, #8
 529              		.loc 1 224 39
 530 006a 3B69     		ldr	r3, [r7, #16]
 531 006c 5B08     		lsrs	r3, r3, #1
 532              		.loc 1 224 24
 533 006e 1A44     		add	r2, r2, r3
 534              		.loc 1 224 45
 535 0070 3B69     		ldr	r3, [r7, #16]
 536 0072 B2FBF3F3 		udiv	r3, r2, r3
 537 0076 DBB2     		uxtb	r3, r3
 538              	.L24:
 225:Lib/Camera_Middleware/ISP_Library/isp/Src/isp_services.c **** }
 539              		.loc 1 225 1
 540 0078 1846     		mov	r0, r3
 541 007a 1C37     		adds	r7, r7, #28
 542              		.cfi_def_cfa_offset 4
 543 007c BD46     		mov	sp, r7
 544              		.cfi_def_cfa_register 13
 545              		@ sp needed
ARM GAS  /tmp/ccKI94Jd.s 			page 14


 546 007e 5DF8047B 		ldr	r7, [sp], #4
 547              		.cfi_restore 7
 548              		.cfi_def_cfa_offset 0
 549 0082 7047     		bx	lr
 550              	.L26:
 551              		.align	2
 552              	.L25:
 553 0084 00000000 		.word	ISP_DecimationValue
 554              		.cfi_endproc
 555              	.LFE842:
 557              		.section	.text.ReadStatHistogram,"ax",%progbits
 558              		.align	1
 559              		.syntax unified
 560              		.thumb
 561              		.thumb_func
 563              	ReadStatHistogram:
 564              	.LFB843:
 226:Lib/Camera_Middleware/ISP_Library/isp/Src/isp_services.c **** 
 227:Lib/Camera_Middleware/ISP_Library/isp/Src/isp_services.c **** static void ReadStatHistogram(ISP_HandleTypeDef *hIsp, uint32_t *histogram)
 228:Lib/Camera_Middleware/ISP_Library/isp/Src/isp_services.c **** {
 565              		.loc 1 228 1
 566              		.cfi_startproc
 567              		@ args = 0, pretend = 0, frame = 16
 568              		@ frame_needed = 1, uses_anonymous_args = 0
 569 0000 80B5     		push	{r7, lr}
 570              		.cfi_def_cfa_offset 8
 571              		.cfi_offset 7, -8
 572              		.cfi_offset 14, -4
 573 0002 84B0     		sub	sp, sp, #16
 574              		.cfi_def_cfa_offset 24
 575 0004 00AF     		add	r7, sp, #0
 576              		.cfi_def_cfa_register 7
 577 0006 7860     		str	r0, [r7, #4]
 578 0008 3960     		str	r1, [r7]
 579              	.LBB2:
 229:Lib/Camera_Middleware/ISP_Library/isp/Src/isp_services.c ****   for (uint32_t i = DCMIPP_STATEXT_MODULE1; i <= DCMIPP_STATEXT_MODULE3; i++)
 580              		.loc 1 229 17
 581 000a 0123     		movs	r3, #1
 582 000c FB60     		str	r3, [r7, #12]
 583              		.loc 1 229 3
 584 000e 11E0     		b	.L28
 585              	.L29:
 230:Lib/Camera_Middleware/ISP_Library/isp/Src/isp_services.c ****   {
 231:Lib/Camera_Middleware/ISP_Library/isp/Src/isp_services.c ****     HAL_DCMIPP_PIPE_GetISPAccumulatedStatisticsCounter(hIsp->hDcmipp, DCMIPP_PIPE1, i, &(histogram[
 586              		.loc 1 231 60
 587 0010 7B68     		ldr	r3, [r7, #4]
 588 0012 1868     		ldr	r0, [r3]
 589              		.loc 1 231 5
 590 0014 FB68     		ldr	r3, [r7, #12]
 591 0016 D9B2     		uxtb	r1, r3
 592              		.loc 1 231 99
 593 0018 FB68     		ldr	r3, [r7, #12]
 594 001a 03F18043 		add	r3, r3, #1073741824
 595 001e 013B     		subs	r3, r3, #1
 596 0020 9B00     		lsls	r3, r3, #2
 597              		.loc 1 231 5
 598 0022 3A68     		ldr	r2, [r7]
ARM GAS  /tmp/ccKI94Jd.s 			page 15


 599 0024 1344     		add	r3, r3, r2
 600 0026 0A46     		mov	r2, r1
 601 0028 0121     		movs	r1, #1
 602 002a FFF7FEFF 		bl	HAL_DCMIPP_PIPE_GetISPAccumulatedStatisticsCounter
 229:Lib/Camera_Middleware/ISP_Library/isp/Src/isp_services.c ****   for (uint32_t i = DCMIPP_STATEXT_MODULE1; i <= DCMIPP_STATEXT_MODULE3; i++)
 603              		.loc 1 229 75 discriminator 3
 604 002e FB68     		ldr	r3, [r7, #12]
 605 0030 0133     		adds	r3, r3, #1
 606 0032 FB60     		str	r3, [r7, #12]
 607              	.L28:
 229:Lib/Camera_Middleware/ISP_Library/isp/Src/isp_services.c ****   for (uint32_t i = DCMIPP_STATEXT_MODULE1; i <= DCMIPP_STATEXT_MODULE3; i++)
 608              		.loc 1 229 47 discriminator 1
 609 0034 FB68     		ldr	r3, [r7, #12]
 610 0036 032B     		cmp	r3, #3
 611 0038 EAD9     		bls	.L29
 612              	.LBE2:
 232:Lib/Camera_Middleware/ISP_Library/isp/Src/isp_services.c ****   }
 233:Lib/Camera_Middleware/ISP_Library/isp/Src/isp_services.c **** }
 613              		.loc 1 233 1
 614 003a 00BF     		nop
 615 003c 00BF     		nop
 616 003e 1037     		adds	r7, r7, #16
 617              		.cfi_def_cfa_offset 8
 618 0040 BD46     		mov	sp, r7
 619              		.cfi_def_cfa_register 13
 620              		@ sp needed
 621 0042 80BD     		pop	{r7, pc}
 622              		.cfi_endproc
 623              	.LFE843:
 625              		.section	.text.SetStatConfig,"ax",%progbits
 626              		.align	1
 627              		.syntax unified
 628              		.thumb
 629              		.thumb_func
 631              	SetStatConfig:
 632              	.LFB844:
 234:Lib/Camera_Middleware/ISP_Library/isp/Src/isp_services.c **** 
 235:Lib/Camera_Middleware/ISP_Library/isp/Src/isp_services.c **** static void SetStatConfig(DCMIPP_StatisticExtractionConfTypeDef *statConf, const DCMIPP_StatisticEx
 236:Lib/Camera_Middleware/ISP_Library/isp/Src/isp_services.c **** {
 633              		.loc 1 236 1
 634              		.cfi_startproc
 635              		@ args = 0, pretend = 0, frame = 16
 636              		@ frame_needed = 1, uses_anonymous_args = 0
 637              		@ link register save eliminated.
 638 0000 80B4     		push	{r7}
 639              		.cfi_def_cfa_offset 4
 640              		.cfi_offset 7, -4
 641 0002 85B0     		sub	sp, sp, #20
 642              		.cfi_def_cfa_offset 24
 643 0004 00AF     		add	r7, sp, #0
 644              		.cfi_def_cfa_register 7
 645 0006 7860     		str	r0, [r7, #4]
 646 0008 3960     		str	r1, [r7]
 647              	.LBB3:
 237:Lib/Camera_Middleware/ISP_Library/isp/Src/isp_services.c ****   for (int i = 0; i < 3; i++)
 648              		.loc 1 237 12
 649 000a 0023     		movs	r3, #0
ARM GAS  /tmp/ccKI94Jd.s 			page 16


 650 000c FB60     		str	r3, [r7, #12]
 651              		.loc 1 237 3
 652 000e 0EE0     		b	.L31
 653              	.L32:
 238:Lib/Camera_Middleware/ISP_Library/isp/Src/isp_services.c ****   {
 239:Lib/Camera_Middleware/ISP_Library/isp/Src/isp_services.c ****     statConf[i] = *refConfig;
 654              		.loc 1 239 13
 655 0010 FA68     		ldr	r2, [r7, #12]
 656 0012 1346     		mov	r3, r2
 657 0014 5B00     		lsls	r3, r3, #1
 658 0016 1344     		add	r3, r3, r2
 659 0018 9B00     		lsls	r3, r3, #2
 660 001a 1A46     		mov	r2, r3
 661 001c 7B68     		ldr	r3, [r7, #4]
 662 001e 1344     		add	r3, r3, r2
 663              		.loc 1 239 17
 664 0020 3A68     		ldr	r2, [r7]
 665 0022 07CA     		ldm	r2, {r0, r1, r2}
 666 0024 83E80700 		stm	r3, {r0, r1, r2}
 237:Lib/Camera_Middleware/ISP_Library/isp/Src/isp_services.c ****   for (int i = 0; i < 3; i++)
 667              		.loc 1 237 27 discriminator 3
 668 0028 FB68     		ldr	r3, [r7, #12]
 669 002a 0133     		adds	r3, r3, #1
 670 002c FB60     		str	r3, [r7, #12]
 671              	.L31:
 237:Lib/Camera_Middleware/ISP_Library/isp/Src/isp_services.c ****   for (int i = 0; i < 3; i++)
 672              		.loc 1 237 21 discriminator 1
 673 002e FB68     		ldr	r3, [r7, #12]
 674 0030 022B     		cmp	r3, #2
 675 0032 EDDD     		ble	.L32
 676              	.LBE3:
 240:Lib/Camera_Middleware/ISP_Library/isp/Src/isp_services.c ****   }
 241:Lib/Camera_Middleware/ISP_Library/isp/Src/isp_services.c **** }
 677              		.loc 1 241 1
 678 0034 00BF     		nop
 679 0036 00BF     		nop
 680 0038 1437     		adds	r7, r7, #20
 681              		.cfi_def_cfa_offset 4
 682 003a BD46     		mov	sp, r7
 683              		.cfi_def_cfa_register 13
 684              		@ sp needed
 685 003c 5DF8047B 		ldr	r7, [sp], #4
 686              		.cfi_restore 7
 687              		.cfi_def_cfa_offset 0
 688 0040 7047     		bx	lr
 689              		.cfi_endproc
 690              	.LFE844:
 692              		.section	.text.GetNextStatStage,"ax",%progbits
 693              		.align	1
 694              		.syntax unified
 695              		.thumb
 696              		.thumb_func
 698              	GetNextStatStage:
 699              	.LFB845:
 242:Lib/Camera_Middleware/ISP_Library/isp/Src/isp_services.c **** 
 243:Lib/Camera_Middleware/ISP_Library/isp/Src/isp_services.c **** static ISP_SVC_StatEngineStage GetNextStatStage(ISP_SVC_StatEngineStage current)
 244:Lib/Camera_Middleware/ISP_Library/isp/Src/isp_services.c **** {
ARM GAS  /tmp/ccKI94Jd.s 			page 17


 700              		.loc 1 244 1
 701              		.cfi_startproc
 702              		@ args = 0, pretend = 0, frame = 16
 703              		@ frame_needed = 1, uses_anonymous_args = 0
 704              		@ link register save eliminated.
 705 0000 80B4     		push	{r7}
 706              		.cfi_def_cfa_offset 4
 707              		.cfi_offset 7, -4
 708 0002 85B0     		sub	sp, sp, #20
 709              		.cfi_def_cfa_offset 24
 710 0004 00AF     		add	r7, sp, #0
 711              		.cfi_def_cfa_register 7
 712 0006 0346     		mov	r3, r0
 713 0008 FB71     		strb	r3, [r7, #7]
 245:Lib/Camera_Middleware/ISP_Library/isp/Src/isp_services.c ****   ISP_SVC_StatEngineStage next = ISP_STAT_CFG_LAST;
 714              		.loc 1 245 27
 715 000a 0923     		movs	r3, #9
 716 000c FB73     		strb	r3, [r7, #15]
 246:Lib/Camera_Middleware/ISP_Library/isp/Src/isp_services.c **** 
 247:Lib/Camera_Middleware/ISP_Library/isp/Src/isp_services.c ****   /* Special mode for IQ tuning tool asking for all stats : go the the next step, no skip */
 248:Lib/Camera_Middleware/ISP_Library/isp/Src/isp_services.c ****   if ((ISP_SVC_StatEngine.upRequest & ISP_STAT_TYPE_ALL_TMP) ||
 717              		.loc 1 248 26
 718 000e 734B     		ldr	r3, .L66
 719 0010 93F85831 		ldrb	r3, [r3, #344]	@ zero_extendqisi2
 720              		.loc 1 248 37
 721 0014 03F00403 		and	r3, r3, #4
 722              		.loc 1 248 6
 723 0018 002B     		cmp	r3, #0
 724 001a 06D1     		bne	.L34
 249:Lib/Camera_Middleware/ISP_Library/isp/Src/isp_services.c ****       (ISP_SVC_StatEngine.downRequest & ISP_STAT_TYPE_ALL_TMP))
 725              		.loc 1 249 26
 726 001c 6F4B     		ldr	r3, .L66
 727 001e 93F85931 		ldrb	r3, [r3, #345]	@ zero_extendqisi2
 728              		.loc 1 249 39
 729 0022 03F00403 		and	r3, r3, #4
 248:Lib/Camera_Middleware/ISP_Library/isp/Src/isp_services.c ****       (ISP_SVC_StatEngine.downRequest & ISP_STAT_TYPE_ALL_TMP))
 730              		.loc 1 248 62 discriminator 1
 731 0026 002B     		cmp	r3, #0
 732 0028 0AD0     		beq	.L35
 733              	.L34:
 250:Lib/Camera_Middleware/ISP_Library/isp/Src/isp_services.c ****   {
 251:Lib/Camera_Middleware/ISP_Library/isp/Src/isp_services.c ****     next = (ISP_SVC_StatEngineStage) ((current < ISP_STAT_CFG_LAST) ? current + 1 : ISP_STAT_CFG_UP
 734              		.loc 1 251 12
 735 002a FB79     		ldrb	r3, [r7, #7]	@ zero_extendqisi2
 736 002c 082B     		cmp	r3, #8
 737 002e 03D8     		bhi	.L36
 738              		.loc 1 251 12 is_stmt 0 discriminator 1
 739 0030 FB79     		ldrb	r3, [r7, #7]
 740 0032 0133     		adds	r3, r3, #1
 741 0034 DBB2     		uxtb	r3, r3
 742 0036 00E0     		b	.L37
 743              	.L36:
 744              		.loc 1 251 12 discriminator 2
 745 0038 0023     		movs	r3, #0
 746              	.L37:
 747              		.loc 1 251 10 is_stmt 1 discriminator 4
 748 003a FB73     		strb	r3, [r7, #15]
ARM GAS  /tmp/ccKI94Jd.s 			page 18


 252:Lib/Camera_Middleware/ISP_Library/isp/Src/isp_services.c ****     return next;
 749              		.loc 1 252 12
 750 003c FB7B     		ldrb	r3, [r7, #15]	@ zero_extendqisi2
 751 003e C7E0     		b	.L38
 752              	.L35:
 253:Lib/Camera_Middleware/ISP_Library/isp/Src/isp_services.c ****   }
 254:Lib/Camera_Middleware/ISP_Library/isp/Src/isp_services.c **** 
 255:Lib/Camera_Middleware/ISP_Library/isp/Src/isp_services.c ****   /* Follow the below stage cycle, skipping steps where stats are not requested:
 256:Lib/Camera_Middleware/ISP_Library/isp/Src/isp_services.c ****    * - ISP_STAT_CFG_UP_AVG
 257:Lib/Camera_Middleware/ISP_Library/isp/Src/isp_services.c ****    * - ISP_STAT_CFG_UP_BINS_0_2 + BINS_3_5 + BINS_6_8 + BINS_9_11
 258:Lib/Camera_Middleware/ISP_Library/isp/Src/isp_services.c ****    * - ISP_STAT_CFG_DOWN_AVG
 259:Lib/Camera_Middleware/ISP_Library/isp/Src/isp_services.c ****    * - ISP_STAT_CFG_DOWN_BINS_0_2 + BINS_3_5 + BINS_6_8 + BINS_9_11
 260:Lib/Camera_Middleware/ISP_Library/isp/Src/isp_services.c ****   */
 261:Lib/Camera_Middleware/ISP_Library/isp/Src/isp_services.c ****   switch (current)
 753              		.loc 1 261 3
 754 0040 FB79     		ldrb	r3, [r7, #7]	@ zero_extendqisi2
 755 0042 092B     		cmp	r3, #9
 756 0044 00F2B880 		bhi	.L39
 757 0048 01A2     		adr	r2, .L41
 758 004a 52F823F0 		ldr	pc, [r2, r3, lsl #2]
 759 004e 00BF     		.p2align 2
 760              	.L41:
 761 0050 79000000 		.word	.L44+1
 762 0054 B9010000 		.word	.L39+1
 763 0058 B9010000 		.word	.L39+1
 764 005c B9010000 		.word	.L39+1
 765 0060 C9000000 		.word	.L43+1
 766 0064 19010000 		.word	.L42+1
 767 0068 B9010000 		.word	.L39+1
 768 006c B9010000 		.word	.L39+1
 769 0070 B9010000 		.word	.L39+1
 770 0074 69010000 		.word	.L40+1
 771              		.p2align 1
 772              	.L44:
 262:Lib/Camera_Middleware/ISP_Library/isp/Src/isp_services.c ****   {
 263:Lib/Camera_Middleware/ISP_Library/isp/Src/isp_services.c ****   case ISP_STAT_CFG_UP_AVG:
 264:Lib/Camera_Middleware/ISP_Library/isp/Src/isp_services.c ****     /* Try Up Bins */
 265:Lib/Camera_Middleware/ISP_Library/isp/Src/isp_services.c ****     if (ISP_SVC_StatEngine.upRequest & ISP_STAT_TYPE_BINS)
 773              		.loc 1 265 27
 774 0078 584B     		ldr	r3, .L66
 775 007a 93F85831 		ldrb	r3, [r3, #344]	@ zero_extendqisi2
 776              		.loc 1 265 38
 777 007e 03F00203 		and	r3, r3, #2
 778              		.loc 1 265 8
 779 0082 002B     		cmp	r3, #0
 780 0084 02D0     		beq	.L45
 266:Lib/Camera_Middleware/ISP_Library/isp/Src/isp_services.c ****     {
 267:Lib/Camera_Middleware/ISP_Library/isp/Src/isp_services.c ****       next = ISP_STAT_CFG_UP_BINS_0_2;
 781              		.loc 1 267 12
 782 0086 0123     		movs	r3, #1
 783 0088 FB73     		strb	r3, [r7, #15]
 268:Lib/Camera_Middleware/ISP_Library/isp/Src/isp_services.c ****     }
 269:Lib/Camera_Middleware/ISP_Library/isp/Src/isp_services.c ****     /* Skip Up Bins : try Down Avg */
 270:Lib/Camera_Middleware/ISP_Library/isp/Src/isp_services.c ****     else if (ISP_SVC_StatEngine.downRequest &  ISP_STAT_TYPE_AVG)
 271:Lib/Camera_Middleware/ISP_Library/isp/Src/isp_services.c ****     {
 272:Lib/Camera_Middleware/ISP_Library/isp/Src/isp_services.c ****       next = ISP_STAT_CFG_DOWN_AVG;
 273:Lib/Camera_Middleware/ISP_Library/isp/Src/isp_services.c ****     }
ARM GAS  /tmp/ccKI94Jd.s 			page 19


 274:Lib/Camera_Middleware/ISP_Library/isp/Src/isp_services.c ****     /* Skip Down Avg : try Down Bins */
 275:Lib/Camera_Middleware/ISP_Library/isp/Src/isp_services.c ****     else if (ISP_SVC_StatEngine.downRequest & ISP_STAT_TYPE_BINS)
 276:Lib/Camera_Middleware/ISP_Library/isp/Src/isp_services.c ****     {
 277:Lib/Camera_Middleware/ISP_Library/isp/Src/isp_services.c ****       next = ISP_STAT_CFG_DOWN_BINS_0_2;
 278:Lib/Camera_Middleware/ISP_Library/isp/Src/isp_services.c ****     }
 279:Lib/Camera_Middleware/ISP_Library/isp/Src/isp_services.c ****     /* Skip Down Bins : try Up Avg */
 280:Lib/Camera_Middleware/ISP_Library/isp/Src/isp_services.c ****     else if (ISP_SVC_StatEngine.upRequest & ISP_STAT_TYPE_AVG)
 281:Lib/Camera_Middleware/ISP_Library/isp/Src/isp_services.c ****     {
 282:Lib/Camera_Middleware/ISP_Library/isp/Src/isp_services.c ****       next = ISP_STAT_CFG_UP_AVG;
 283:Lib/Camera_Middleware/ISP_Library/isp/Src/isp_services.c ****     }
 284:Lib/Camera_Middleware/ISP_Library/isp/Src/isp_services.c ****     break;
 784              		.loc 1 284 5
 785 008a 99E0     		b	.L62
 786              	.L45:
 270:Lib/Camera_Middleware/ISP_Library/isp/Src/isp_services.c ****     {
 787              		.loc 1 270 32
 788 008c 534B     		ldr	r3, .L66
 789 008e 93F85931 		ldrb	r3, [r3, #345]	@ zero_extendqisi2
 270:Lib/Camera_Middleware/ISP_Library/isp/Src/isp_services.c ****     {
 790              		.loc 1 270 45
 791 0092 03F00103 		and	r3, r3, #1
 270:Lib/Camera_Middleware/ISP_Library/isp/Src/isp_services.c ****     {
 792              		.loc 1 270 13
 793 0096 002B     		cmp	r3, #0
 794 0098 02D0     		beq	.L47
 272:Lib/Camera_Middleware/ISP_Library/isp/Src/isp_services.c ****     }
 795              		.loc 1 272 12
 796 009a 0523     		movs	r3, #5
 797 009c FB73     		strb	r3, [r7, #15]
 798              		.loc 1 284 5
 799 009e 8FE0     		b	.L62
 800              	.L47:
 275:Lib/Camera_Middleware/ISP_Library/isp/Src/isp_services.c ****     {
 801              		.loc 1 275 32
 802 00a0 4E4B     		ldr	r3, .L66
 803 00a2 93F85931 		ldrb	r3, [r3, #345]	@ zero_extendqisi2
 275:Lib/Camera_Middleware/ISP_Library/isp/Src/isp_services.c ****     {
 804              		.loc 1 275 45
 805 00a6 03F00203 		and	r3, r3, #2
 275:Lib/Camera_Middleware/ISP_Library/isp/Src/isp_services.c ****     {
 806              		.loc 1 275 13
 807 00aa 002B     		cmp	r3, #0
 808 00ac 02D0     		beq	.L48
 277:Lib/Camera_Middleware/ISP_Library/isp/Src/isp_services.c ****     }
 809              		.loc 1 277 12
 810 00ae 0623     		movs	r3, #6
 811 00b0 FB73     		strb	r3, [r7, #15]
 812              		.loc 1 284 5
 813 00b2 85E0     		b	.L62
 814              	.L48:
 280:Lib/Camera_Middleware/ISP_Library/isp/Src/isp_services.c ****     {
 815              		.loc 1 280 32
 816 00b4 494B     		ldr	r3, .L66
 817 00b6 93F85831 		ldrb	r3, [r3, #344]	@ zero_extendqisi2
 280:Lib/Camera_Middleware/ISP_Library/isp/Src/isp_services.c ****     {
 818              		.loc 1 280 43
 819 00ba 03F00103 		and	r3, r3, #1
ARM GAS  /tmp/ccKI94Jd.s 			page 20


 280:Lib/Camera_Middleware/ISP_Library/isp/Src/isp_services.c ****     {
 820              		.loc 1 280 13
 821 00be 002B     		cmp	r3, #0
 822 00c0 7ED0     		beq	.L62
 282:Lib/Camera_Middleware/ISP_Library/isp/Src/isp_services.c ****     }
 823              		.loc 1 282 12
 824 00c2 0023     		movs	r3, #0
 825 00c4 FB73     		strb	r3, [r7, #15]
 826              		.loc 1 284 5
 827 00c6 7BE0     		b	.L62
 828              	.L43:
 285:Lib/Camera_Middleware/ISP_Library/isp/Src/isp_services.c **** 
 286:Lib/Camera_Middleware/ISP_Library/isp/Src/isp_services.c ****   case ISP_STAT_CFG_UP_BINS_9_11:
 287:Lib/Camera_Middleware/ISP_Library/isp/Src/isp_services.c ****     /* Try Down Avg */
 288:Lib/Camera_Middleware/ISP_Library/isp/Src/isp_services.c ****     if (ISP_SVC_StatEngine.downRequest & ISP_STAT_TYPE_AVG)
 829              		.loc 1 288 27
 830 00c8 444B     		ldr	r3, .L66
 831 00ca 93F85931 		ldrb	r3, [r3, #345]	@ zero_extendqisi2
 832              		.loc 1 288 40
 833 00ce 03F00103 		and	r3, r3, #1
 834              		.loc 1 288 8
 835 00d2 002B     		cmp	r3, #0
 836 00d4 02D0     		beq	.L50
 289:Lib/Camera_Middleware/ISP_Library/isp/Src/isp_services.c ****     {
 290:Lib/Camera_Middleware/ISP_Library/isp/Src/isp_services.c ****       next = ISP_STAT_CFG_DOWN_AVG;
 837              		.loc 1 290 12
 838 00d6 0523     		movs	r3, #5
 839 00d8 FB73     		strb	r3, [r7, #15]
 291:Lib/Camera_Middleware/ISP_Library/isp/Src/isp_services.c ****     }
 292:Lib/Camera_Middleware/ISP_Library/isp/Src/isp_services.c ****     /* Skip Down Avg : try Down Bins */
 293:Lib/Camera_Middleware/ISP_Library/isp/Src/isp_services.c ****     else if (ISP_SVC_StatEngine.downRequest & ISP_STAT_TYPE_BINS)
 294:Lib/Camera_Middleware/ISP_Library/isp/Src/isp_services.c ****     {
 295:Lib/Camera_Middleware/ISP_Library/isp/Src/isp_services.c ****       next = ISP_STAT_CFG_DOWN_BINS_0_2;
 296:Lib/Camera_Middleware/ISP_Library/isp/Src/isp_services.c ****     }
 297:Lib/Camera_Middleware/ISP_Library/isp/Src/isp_services.c ****     /* Skip Down Bins : try Up Avg */
 298:Lib/Camera_Middleware/ISP_Library/isp/Src/isp_services.c ****     else if (ISP_SVC_StatEngine.upRequest & ISP_STAT_TYPE_AVG)
 299:Lib/Camera_Middleware/ISP_Library/isp/Src/isp_services.c ****     {
 300:Lib/Camera_Middleware/ISP_Library/isp/Src/isp_services.c ****       next = ISP_STAT_CFG_UP_AVG;
 301:Lib/Camera_Middleware/ISP_Library/isp/Src/isp_services.c ****     }
 302:Lib/Camera_Middleware/ISP_Library/isp/Src/isp_services.c ****     /* Skip Up Avg : try on Up Bins */
 303:Lib/Camera_Middleware/ISP_Library/isp/Src/isp_services.c ****     else if (ISP_SVC_StatEngine.upRequest & ISP_STAT_TYPE_BINS)
 304:Lib/Camera_Middleware/ISP_Library/isp/Src/isp_services.c ****     {
 305:Lib/Camera_Middleware/ISP_Library/isp/Src/isp_services.c ****       next = ISP_STAT_CFG_UP_BINS_0_2;
 306:Lib/Camera_Middleware/ISP_Library/isp/Src/isp_services.c ****     }
 307:Lib/Camera_Middleware/ISP_Library/isp/Src/isp_services.c ****     break;
 840              		.loc 1 307 5
 841 00da 73E0     		b	.L63
 842              	.L50:
 293:Lib/Camera_Middleware/ISP_Library/isp/Src/isp_services.c ****     {
 843              		.loc 1 293 32
 844 00dc 3F4B     		ldr	r3, .L66
 845 00de 93F85931 		ldrb	r3, [r3, #345]	@ zero_extendqisi2
 293:Lib/Camera_Middleware/ISP_Library/isp/Src/isp_services.c ****     {
 846              		.loc 1 293 45
 847 00e2 03F00203 		and	r3, r3, #2
 293:Lib/Camera_Middleware/ISP_Library/isp/Src/isp_services.c ****     {
 848              		.loc 1 293 13
ARM GAS  /tmp/ccKI94Jd.s 			page 21


 849 00e6 002B     		cmp	r3, #0
 850 00e8 02D0     		beq	.L52
 295:Lib/Camera_Middleware/ISP_Library/isp/Src/isp_services.c ****     }
 851              		.loc 1 295 12
 852 00ea 0623     		movs	r3, #6
 853 00ec FB73     		strb	r3, [r7, #15]
 854              		.loc 1 307 5
 855 00ee 69E0     		b	.L63
 856              	.L52:
 298:Lib/Camera_Middleware/ISP_Library/isp/Src/isp_services.c ****     {
 857              		.loc 1 298 32
 858 00f0 3A4B     		ldr	r3, .L66
 859 00f2 93F85831 		ldrb	r3, [r3, #344]	@ zero_extendqisi2
 298:Lib/Camera_Middleware/ISP_Library/isp/Src/isp_services.c ****     {
 860              		.loc 1 298 43
 861 00f6 03F00103 		and	r3, r3, #1
 298:Lib/Camera_Middleware/ISP_Library/isp/Src/isp_services.c ****     {
 862              		.loc 1 298 13
 863 00fa 002B     		cmp	r3, #0
 864 00fc 02D0     		beq	.L53
 300:Lib/Camera_Middleware/ISP_Library/isp/Src/isp_services.c ****     }
 865              		.loc 1 300 12
 866 00fe 0023     		movs	r3, #0
 867 0100 FB73     		strb	r3, [r7, #15]
 868              		.loc 1 307 5
 869 0102 5FE0     		b	.L63
 870              	.L53:
 303:Lib/Camera_Middleware/ISP_Library/isp/Src/isp_services.c ****     {
 871              		.loc 1 303 32
 872 0104 354B     		ldr	r3, .L66
 873 0106 93F85831 		ldrb	r3, [r3, #344]	@ zero_extendqisi2
 303:Lib/Camera_Middleware/ISP_Library/isp/Src/isp_services.c ****     {
 874              		.loc 1 303 43
 875 010a 03F00203 		and	r3, r3, #2
 303:Lib/Camera_Middleware/ISP_Library/isp/Src/isp_services.c ****     {
 876              		.loc 1 303 13
 877 010e 002B     		cmp	r3, #0
 878 0110 58D0     		beq	.L63
 305:Lib/Camera_Middleware/ISP_Library/isp/Src/isp_services.c ****     }
 879              		.loc 1 305 12
 880 0112 0123     		movs	r3, #1
 881 0114 FB73     		strb	r3, [r7, #15]
 882              		.loc 1 307 5
 883 0116 55E0     		b	.L63
 884              	.L42:
 308:Lib/Camera_Middleware/ISP_Library/isp/Src/isp_services.c **** 
 309:Lib/Camera_Middleware/ISP_Library/isp/Src/isp_services.c ****   case ISP_STAT_CFG_DOWN_AVG:
 310:Lib/Camera_Middleware/ISP_Library/isp/Src/isp_services.c ****     /* Try Down Bins */
 311:Lib/Camera_Middleware/ISP_Library/isp/Src/isp_services.c ****     if (ISP_SVC_StatEngine.downRequest & ISP_STAT_TYPE_BINS)
 885              		.loc 1 311 27
 886 0118 304B     		ldr	r3, .L66
 887 011a 93F85931 		ldrb	r3, [r3, #345]	@ zero_extendqisi2
 888              		.loc 1 311 40
 889 011e 03F00203 		and	r3, r3, #2
 890              		.loc 1 311 8
 891 0122 002B     		cmp	r3, #0
 892 0124 02D0     		beq	.L54
ARM GAS  /tmp/ccKI94Jd.s 			page 22


 312:Lib/Camera_Middleware/ISP_Library/isp/Src/isp_services.c ****     {
 313:Lib/Camera_Middleware/ISP_Library/isp/Src/isp_services.c ****       next = ISP_STAT_CFG_DOWN_BINS_0_2;
 893              		.loc 1 313 12
 894 0126 0623     		movs	r3, #6
 895 0128 FB73     		strb	r3, [r7, #15]
 314:Lib/Camera_Middleware/ISP_Library/isp/Src/isp_services.c ****     }
 315:Lib/Camera_Middleware/ISP_Library/isp/Src/isp_services.c ****     /* Skip Down Bins : try Up Avg */
 316:Lib/Camera_Middleware/ISP_Library/isp/Src/isp_services.c ****     else if (ISP_SVC_StatEngine.upRequest & ISP_STAT_TYPE_AVG)
 317:Lib/Camera_Middleware/ISP_Library/isp/Src/isp_services.c ****     {
 318:Lib/Camera_Middleware/ISP_Library/isp/Src/isp_services.c ****       next = ISP_STAT_CFG_UP_AVG;
 319:Lib/Camera_Middleware/ISP_Library/isp/Src/isp_services.c ****     }
 320:Lib/Camera_Middleware/ISP_Library/isp/Src/isp_services.c ****     /* Skip Up Avg : try Up Bins */
 321:Lib/Camera_Middleware/ISP_Library/isp/Src/isp_services.c ****     else if (ISP_SVC_StatEngine.upRequest & ISP_STAT_TYPE_BINS)
 322:Lib/Camera_Middleware/ISP_Library/isp/Src/isp_services.c ****     {
 323:Lib/Camera_Middleware/ISP_Library/isp/Src/isp_services.c ****       next = ISP_STAT_CFG_UP_BINS_0_2;
 324:Lib/Camera_Middleware/ISP_Library/isp/Src/isp_services.c ****     }
 325:Lib/Camera_Middleware/ISP_Library/isp/Src/isp_services.c ****     /* Skip Up Bins : try Down Avg */
 326:Lib/Camera_Middleware/ISP_Library/isp/Src/isp_services.c ****     else if (ISP_SVC_StatEngine.downRequest & ISP_STAT_TYPE_AVG)
 327:Lib/Camera_Middleware/ISP_Library/isp/Src/isp_services.c ****     {
 328:Lib/Camera_Middleware/ISP_Library/isp/Src/isp_services.c ****       next = ISP_STAT_CFG_DOWN_AVG;
 329:Lib/Camera_Middleware/ISP_Library/isp/Src/isp_services.c ****     }
 330:Lib/Camera_Middleware/ISP_Library/isp/Src/isp_services.c ****     break;
 896              		.loc 1 330 5
 897 012a 4DE0     		b	.L64
 898              	.L54:
 316:Lib/Camera_Middleware/ISP_Library/isp/Src/isp_services.c ****     {
 899              		.loc 1 316 32
 900 012c 2B4B     		ldr	r3, .L66
 901 012e 93F85831 		ldrb	r3, [r3, #344]	@ zero_extendqisi2
 316:Lib/Camera_Middleware/ISP_Library/isp/Src/isp_services.c ****     {
 902              		.loc 1 316 43
 903 0132 03F00103 		and	r3, r3, #1
 316:Lib/Camera_Middleware/ISP_Library/isp/Src/isp_services.c ****     {
 904              		.loc 1 316 13
 905 0136 002B     		cmp	r3, #0
 906 0138 02D0     		beq	.L56
 318:Lib/Camera_Middleware/ISP_Library/isp/Src/isp_services.c ****     }
 907              		.loc 1 318 12
 908 013a 0023     		movs	r3, #0
 909 013c FB73     		strb	r3, [r7, #15]
 910              		.loc 1 330 5
 911 013e 43E0     		b	.L64
 912              	.L56:
 321:Lib/Camera_Middleware/ISP_Library/isp/Src/isp_services.c ****     {
 913              		.loc 1 321 32
 914 0140 264B     		ldr	r3, .L66
 915 0142 93F85831 		ldrb	r3, [r3, #344]	@ zero_extendqisi2
 321:Lib/Camera_Middleware/ISP_Library/isp/Src/isp_services.c ****     {
 916              		.loc 1 321 43
 917 0146 03F00203 		and	r3, r3, #2
 321:Lib/Camera_Middleware/ISP_Library/isp/Src/isp_services.c ****     {
 918              		.loc 1 321 13
 919 014a 002B     		cmp	r3, #0
 920 014c 02D0     		beq	.L57
 323:Lib/Camera_Middleware/ISP_Library/isp/Src/isp_services.c ****     }
 921              		.loc 1 323 12
 922 014e 0123     		movs	r3, #1
ARM GAS  /tmp/ccKI94Jd.s 			page 23


 923 0150 FB73     		strb	r3, [r7, #15]
 924              		.loc 1 330 5
 925 0152 39E0     		b	.L64
 926              	.L57:
 326:Lib/Camera_Middleware/ISP_Library/isp/Src/isp_services.c ****     {
 927              		.loc 1 326 32
 928 0154 214B     		ldr	r3, .L66
 929 0156 93F85931 		ldrb	r3, [r3, #345]	@ zero_extendqisi2
 326:Lib/Camera_Middleware/ISP_Library/isp/Src/isp_services.c ****     {
 930              		.loc 1 326 45
 931 015a 03F00103 		and	r3, r3, #1
 326:Lib/Camera_Middleware/ISP_Library/isp/Src/isp_services.c ****     {
 932              		.loc 1 326 13
 933 015e 002B     		cmp	r3, #0
 934 0160 32D0     		beq	.L64
 328:Lib/Camera_Middleware/ISP_Library/isp/Src/isp_services.c ****     }
 935              		.loc 1 328 12
 936 0162 0523     		movs	r3, #5
 937 0164 FB73     		strb	r3, [r7, #15]
 938              		.loc 1 330 5
 939 0166 2FE0     		b	.L64
 940              	.L40:
 331:Lib/Camera_Middleware/ISP_Library/isp/Src/isp_services.c **** 
 332:Lib/Camera_Middleware/ISP_Library/isp/Src/isp_services.c ****   case ISP_STAT_CFG_DOWN_BINS_9_11:
 333:Lib/Camera_Middleware/ISP_Library/isp/Src/isp_services.c ****     /* Try Up Avg */
 334:Lib/Camera_Middleware/ISP_Library/isp/Src/isp_services.c ****     if (ISP_SVC_StatEngine.upRequest & ISP_STAT_TYPE_AVG)
 941              		.loc 1 334 27
 942 0168 1C4B     		ldr	r3, .L66
 943 016a 93F85831 		ldrb	r3, [r3, #344]	@ zero_extendqisi2
 944              		.loc 1 334 38
 945 016e 03F00103 		and	r3, r3, #1
 946              		.loc 1 334 8
 947 0172 002B     		cmp	r3, #0
 948 0174 02D0     		beq	.L58
 335:Lib/Camera_Middleware/ISP_Library/isp/Src/isp_services.c ****     {
 336:Lib/Camera_Middleware/ISP_Library/isp/Src/isp_services.c ****       next = ISP_STAT_CFG_UP_AVG;
 949              		.loc 1 336 12
 950 0176 0023     		movs	r3, #0
 951 0178 FB73     		strb	r3, [r7, #15]
 337:Lib/Camera_Middleware/ISP_Library/isp/Src/isp_services.c ****     }
 338:Lib/Camera_Middleware/ISP_Library/isp/Src/isp_services.c ****     /* Skip Up Avg : try Up Bins */
 339:Lib/Camera_Middleware/ISP_Library/isp/Src/isp_services.c ****     else if (ISP_SVC_StatEngine.upRequest & ISP_STAT_TYPE_BINS)
 340:Lib/Camera_Middleware/ISP_Library/isp/Src/isp_services.c ****     {
 341:Lib/Camera_Middleware/ISP_Library/isp/Src/isp_services.c ****       next = ISP_STAT_CFG_UP_BINS_0_2;
 342:Lib/Camera_Middleware/ISP_Library/isp/Src/isp_services.c ****     }
 343:Lib/Camera_Middleware/ISP_Library/isp/Src/isp_services.c ****     /* Skip Up Bins : try Down Avg */
 344:Lib/Camera_Middleware/ISP_Library/isp/Src/isp_services.c ****     else if (ISP_SVC_StatEngine.downRequest & ISP_STAT_TYPE_AVG)
 345:Lib/Camera_Middleware/ISP_Library/isp/Src/isp_services.c ****     {
 346:Lib/Camera_Middleware/ISP_Library/isp/Src/isp_services.c ****       next = ISP_STAT_CFG_DOWN_AVG;
 347:Lib/Camera_Middleware/ISP_Library/isp/Src/isp_services.c ****     }
 348:Lib/Camera_Middleware/ISP_Library/isp/Src/isp_services.c ****     /* Skip Down Avg : try Down Bins */
 349:Lib/Camera_Middleware/ISP_Library/isp/Src/isp_services.c ****     else if (ISP_SVC_StatEngine.downRequest & ISP_STAT_TYPE_BINS)
 350:Lib/Camera_Middleware/ISP_Library/isp/Src/isp_services.c ****     {
 351:Lib/Camera_Middleware/ISP_Library/isp/Src/isp_services.c ****       next = ISP_STAT_CFG_DOWN_BINS_0_2;
 352:Lib/Camera_Middleware/ISP_Library/isp/Src/isp_services.c ****     }
 353:Lib/Camera_Middleware/ISP_Library/isp/Src/isp_services.c ****     break;
 952              		.loc 1 353 5
ARM GAS  /tmp/ccKI94Jd.s 			page 24


 953 017a 27E0     		b	.L65
 954              	.L58:
 339:Lib/Camera_Middleware/ISP_Library/isp/Src/isp_services.c ****     {
 955              		.loc 1 339 32
 956 017c 174B     		ldr	r3, .L66
 957 017e 93F85831 		ldrb	r3, [r3, #344]	@ zero_extendqisi2
 339:Lib/Camera_Middleware/ISP_Library/isp/Src/isp_services.c ****     {
 958              		.loc 1 339 43
 959 0182 03F00203 		and	r3, r3, #2
 339:Lib/Camera_Middleware/ISP_Library/isp/Src/isp_services.c ****     {
 960              		.loc 1 339 13
 961 0186 002B     		cmp	r3, #0
 962 0188 02D0     		beq	.L60
 341:Lib/Camera_Middleware/ISP_Library/isp/Src/isp_services.c ****     }
 963              		.loc 1 341 12
 964 018a 0123     		movs	r3, #1
 965 018c FB73     		strb	r3, [r7, #15]
 966              		.loc 1 353 5
 967 018e 1DE0     		b	.L65
 968              	.L60:
 344:Lib/Camera_Middleware/ISP_Library/isp/Src/isp_services.c ****     {
 969              		.loc 1 344 32
 970 0190 124B     		ldr	r3, .L66
 971 0192 93F85931 		ldrb	r3, [r3, #345]	@ zero_extendqisi2
 344:Lib/Camera_Middleware/ISP_Library/isp/Src/isp_services.c ****     {
 972              		.loc 1 344 45
 973 0196 03F00103 		and	r3, r3, #1
 344:Lib/Camera_Middleware/ISP_Library/isp/Src/isp_services.c ****     {
 974              		.loc 1 344 13
 975 019a 002B     		cmp	r3, #0
 976 019c 02D0     		beq	.L61
 346:Lib/Camera_Middleware/ISP_Library/isp/Src/isp_services.c ****     }
 977              		.loc 1 346 12
 978 019e 0523     		movs	r3, #5
 979 01a0 FB73     		strb	r3, [r7, #15]
 980              		.loc 1 353 5
 981 01a2 13E0     		b	.L65
 982              	.L61:
 349:Lib/Camera_Middleware/ISP_Library/isp/Src/isp_services.c ****     {
 983              		.loc 1 349 32
 984 01a4 0D4B     		ldr	r3, .L66
 985 01a6 93F85931 		ldrb	r3, [r3, #345]	@ zero_extendqisi2
 349:Lib/Camera_Middleware/ISP_Library/isp/Src/isp_services.c ****     {
 986              		.loc 1 349 45
 987 01aa 03F00203 		and	r3, r3, #2
 349:Lib/Camera_Middleware/ISP_Library/isp/Src/isp_services.c ****     {
 988              		.loc 1 349 13
 989 01ae 002B     		cmp	r3, #0
 990 01b0 0CD0     		beq	.L65
 351:Lib/Camera_Middleware/ISP_Library/isp/Src/isp_services.c ****     }
 991              		.loc 1 351 12
 992 01b2 0623     		movs	r3, #6
 993 01b4 FB73     		strb	r3, [r7, #15]
 994              		.loc 1 353 5
 995 01b6 09E0     		b	.L65
 996              	.L39:
 354:Lib/Camera_Middleware/ISP_Library/isp/Src/isp_services.c **** 
ARM GAS  /tmp/ccKI94Jd.s 			page 25


 355:Lib/Camera_Middleware/ISP_Library/isp/Src/isp_services.c ****   default:
 356:Lib/Camera_Middleware/ISP_Library/isp/Src/isp_services.c ****     /* In the middle of the bins measurement: continue with the next bins part */
 357:Lib/Camera_Middleware/ISP_Library/isp/Src/isp_services.c ****     next = (ISP_SVC_StatEngineStage) (current + 1);
 997              		.loc 1 357 10
 998 01b8 FB79     		ldrb	r3, [r7, #7]
 999 01ba 0133     		adds	r3, r3, #1
 1000 01bc FB73     		strb	r3, [r7, #15]
 358:Lib/Camera_Middleware/ISP_Library/isp/Src/isp_services.c ****     break;
 1001              		.loc 1 358 5
 1002 01be 06E0     		b	.L49
 1003              	.L62:
 284:Lib/Camera_Middleware/ISP_Library/isp/Src/isp_services.c **** 
 1004              		.loc 1 284 5
 1005 01c0 00BF     		nop
 1006 01c2 04E0     		b	.L49
 1007              	.L63:
 307:Lib/Camera_Middleware/ISP_Library/isp/Src/isp_services.c **** 
 1008              		.loc 1 307 5
 1009 01c4 00BF     		nop
 1010 01c6 02E0     		b	.L49
 1011              	.L64:
 330:Lib/Camera_Middleware/ISP_Library/isp/Src/isp_services.c **** 
 1012              		.loc 1 330 5
 1013 01c8 00BF     		nop
 1014 01ca 00E0     		b	.L49
 1015              	.L65:
 353:Lib/Camera_Middleware/ISP_Library/isp/Src/isp_services.c **** 
 1016              		.loc 1 353 5
 1017 01cc 00BF     		nop
 1018              	.L49:
 359:Lib/Camera_Middleware/ISP_Library/isp/Src/isp_services.c ****   }
 360:Lib/Camera_Middleware/ISP_Library/isp/Src/isp_services.c **** 
 361:Lib/Camera_Middleware/ISP_Library/isp/Src/isp_services.c ****   return next;
 1019              		.loc 1 361 10
 1020 01ce FB7B     		ldrb	r3, [r7, #15]	@ zero_extendqisi2
 1021              	.L38:
 362:Lib/Camera_Middleware/ISP_Library/isp/Src/isp_services.c **** }
 1022              		.loc 1 362 1
 1023 01d0 1846     		mov	r0, r3
 1024 01d2 1437     		adds	r7, r7, #20
 1025              		.cfi_def_cfa_offset 4
 1026 01d4 BD46     		mov	sp, r7
 1027              		.cfi_def_cfa_register 13
 1028              		@ sp needed
 1029 01d6 5DF8047B 		ldr	r7, [sp], #4
 1030              		.cfi_restore 7
 1031              		.cfi_def_cfa_offset 0
 1032 01da 7047     		bx	lr
 1033              	.L67:
 1034              		.align	2
 1035              	.L66:
 1036 01dc 00000000 		.word	ISP_SVC_StatEngine
 1037              		.cfi_endproc
 1038              	.LFE845:
 1040              		.section	.text.GetStatCycleStart,"ax",%progbits
 1041              		.align	1
 1042              		.syntax unified
ARM GAS  /tmp/ccKI94Jd.s 			page 26


 1043              		.thumb
 1044              		.thumb_func
 1046              	GetStatCycleStart:
 1047              	.LFB846:
 363:Lib/Camera_Middleware/ISP_Library/isp/Src/isp_services.c **** 
 364:Lib/Camera_Middleware/ISP_Library/isp/Src/isp_services.c **** static ISP_SVC_StatEngineStage GetStatCycleStart(ISP_SVC_StatLocation location)
 365:Lib/Camera_Middleware/ISP_Library/isp/Src/isp_services.c **** {
 1048              		.loc 1 365 1
 1049              		.cfi_startproc
 1050              		@ args = 0, pretend = 0, frame = 16
 1051              		@ frame_needed = 1, uses_anonymous_args = 0
 1052              		@ link register save eliminated.
 1053 0000 80B4     		push	{r7}
 1054              		.cfi_def_cfa_offset 4
 1055              		.cfi_offset 7, -4
 1056 0002 85B0     		sub	sp, sp, #20
 1057              		.cfi_def_cfa_offset 24
 1058 0004 00AF     		add	r7, sp, #0
 1059              		.cfi_def_cfa_register 7
 1060 0006 0346     		mov	r3, r0
 1061 0008 FB71     		strb	r3, [r7, #7]
 366:Lib/Camera_Middleware/ISP_Library/isp/Src/isp_services.c ****   ISP_SVC_StatEngineStage stage;
 367:Lib/Camera_Middleware/ISP_Library/isp/Src/isp_services.c **** 
 368:Lib/Camera_Middleware/ISP_Library/isp/Src/isp_services.c ****   if (location == ISP_STAT_LOC_UP)
 1062              		.loc 1 368 6
 1063 000a FB79     		ldrb	r3, [r7, #7]	@ zero_extendqisi2
 1064 000c 012B     		cmp	r3, #1
 1065 000e 13D1     		bne	.L69
 369:Lib/Camera_Middleware/ISP_Library/isp/Src/isp_services.c ****   {
 370:Lib/Camera_Middleware/ISP_Library/isp/Src/isp_services.c ****     if ((ISP_SVC_StatEngine.upRequest & ISP_STAT_TYPE_AVG) ||
 1066              		.loc 1 370 28
 1067 0010 164B     		ldr	r3, .L77
 1068 0012 93F85831 		ldrb	r3, [r3, #344]	@ zero_extendqisi2
 1069              		.loc 1 370 39
 1070 0016 03F00103 		and	r3, r3, #1
 1071              		.loc 1 370 8
 1072 001a 002B     		cmp	r3, #0
 1073 001c 06D1     		bne	.L70
 371:Lib/Camera_Middleware/ISP_Library/isp/Src/isp_services.c ****         (ISP_SVC_StatEngine.upRequest & ISP_STAT_TYPE_ALL_TMP))
 1074              		.loc 1 371 28
 1075 001e 134B     		ldr	r3, .L77
 1076 0020 93F85831 		ldrb	r3, [r3, #344]	@ zero_extendqisi2
 1077              		.loc 1 371 39
 1078 0024 03F00403 		and	r3, r3, #4
 370:Lib/Camera_Middleware/ISP_Library/isp/Src/isp_services.c ****         (ISP_SVC_StatEngine.upRequest & ISP_STAT_TYPE_ALL_TMP))
 1079              		.loc 1 370 60 discriminator 1
 1080 0028 002B     		cmp	r3, #0
 1081 002a 02D0     		beq	.L71
 1082              	.L70:
 372:Lib/Camera_Middleware/ISP_Library/isp/Src/isp_services.c ****     {
 373:Lib/Camera_Middleware/ISP_Library/isp/Src/isp_services.c ****       /* Stat up cycle starts with AVG measurement */
 374:Lib/Camera_Middleware/ISP_Library/isp/Src/isp_services.c ****       stage = ISP_STAT_CFG_UP_AVG;
 1083              		.loc 1 374 13
 1084 002c 0023     		movs	r3, #0
 1085 002e FB73     		strb	r3, [r7, #15]
 1086 0030 15E0     		b	.L73
 1087              	.L71:
ARM GAS  /tmp/ccKI94Jd.s 			page 27


 375:Lib/Camera_Middleware/ISP_Library/isp/Src/isp_services.c ****     }
 376:Lib/Camera_Middleware/ISP_Library/isp/Src/isp_services.c ****     else
 377:Lib/Camera_Middleware/ISP_Library/isp/Src/isp_services.c ****     {
 378:Lib/Camera_Middleware/ISP_Library/isp/Src/isp_services.c ****       /* Stat up cycle starts with 1st BIN measurement */
 379:Lib/Camera_Middleware/ISP_Library/isp/Src/isp_services.c ****       stage = ISP_STAT_CFG_UP_BINS_0_2;
 1088              		.loc 1 379 13
 1089 0032 0123     		movs	r3, #1
 1090 0034 FB73     		strb	r3, [r7, #15]
 1091 0036 12E0     		b	.L73
 1092              	.L69:
 380:Lib/Camera_Middleware/ISP_Library/isp/Src/isp_services.c ****     }
 381:Lib/Camera_Middleware/ISP_Library/isp/Src/isp_services.c ****   }
 382:Lib/Camera_Middleware/ISP_Library/isp/Src/isp_services.c ****   else
 383:Lib/Camera_Middleware/ISP_Library/isp/Src/isp_services.c ****   {
 384:Lib/Camera_Middleware/ISP_Library/isp/Src/isp_services.c ****     if ((ISP_SVC_StatEngine.downRequest & ISP_STAT_TYPE_AVG) ||
 1093              		.loc 1 384 28
 1094 0038 0C4B     		ldr	r3, .L77
 1095 003a 93F85931 		ldrb	r3, [r3, #345]	@ zero_extendqisi2
 1096              		.loc 1 384 41
 1097 003e 03F00103 		and	r3, r3, #1
 1098              		.loc 1 384 8
 1099 0042 002B     		cmp	r3, #0
 1100 0044 06D1     		bne	.L74
 385:Lib/Camera_Middleware/ISP_Library/isp/Src/isp_services.c ****         (ISP_SVC_StatEngine.downRequest & ISP_STAT_TYPE_ALL_TMP))
 1101              		.loc 1 385 28
 1102 0046 094B     		ldr	r3, .L77
 1103 0048 93F85931 		ldrb	r3, [r3, #345]	@ zero_extendqisi2
 1104              		.loc 1 385 41
 1105 004c 03F00403 		and	r3, r3, #4
 384:Lib/Camera_Middleware/ISP_Library/isp/Src/isp_services.c ****         (ISP_SVC_StatEngine.downRequest & ISP_STAT_TYPE_ALL_TMP))
 1106              		.loc 1 384 62 discriminator 1
 1107 0050 002B     		cmp	r3, #0
 1108 0052 02D0     		beq	.L75
 1109              	.L74:
 386:Lib/Camera_Middleware/ISP_Library/isp/Src/isp_services.c ****     {
 387:Lib/Camera_Middleware/ISP_Library/isp/Src/isp_services.c ****       /* Stat down cycle starts with AVG measurement */
 388:Lib/Camera_Middleware/ISP_Library/isp/Src/isp_services.c ****       stage = ISP_STAT_CFG_DOWN_AVG;
 1110              		.loc 1 388 13
 1111 0054 0523     		movs	r3, #5
 1112 0056 FB73     		strb	r3, [r7, #15]
 1113 0058 01E0     		b	.L73
 1114              	.L75:
 389:Lib/Camera_Middleware/ISP_Library/isp/Src/isp_services.c ****     }
 390:Lib/Camera_Middleware/ISP_Library/isp/Src/isp_services.c ****     else
 391:Lib/Camera_Middleware/ISP_Library/isp/Src/isp_services.c ****     {
 392:Lib/Camera_Middleware/ISP_Library/isp/Src/isp_services.c ****       /* Stat down cycle starts with 1st BIN measurement */
 393:Lib/Camera_Middleware/ISP_Library/isp/Src/isp_services.c ****       stage = ISP_STAT_CFG_DOWN_BINS_0_2;
 1115              		.loc 1 393 13
 1116 005a 0623     		movs	r3, #6
 1117 005c FB73     		strb	r3, [r7, #15]
 1118              	.L73:
 394:Lib/Camera_Middleware/ISP_Library/isp/Src/isp_services.c ****     }
 395:Lib/Camera_Middleware/ISP_Library/isp/Src/isp_services.c ****   }
 396:Lib/Camera_Middleware/ISP_Library/isp/Src/isp_services.c ****   return stage;
 1119              		.loc 1 396 10
 1120 005e FB7B     		ldrb	r3, [r7, #15]	@ zero_extendqisi2
 397:Lib/Camera_Middleware/ISP_Library/isp/Src/isp_services.c **** }
ARM GAS  /tmp/ccKI94Jd.s 			page 28


 1121              		.loc 1 397 1
 1122 0060 1846     		mov	r0, r3
 1123 0062 1437     		adds	r7, r7, #20
 1124              		.cfi_def_cfa_offset 4
 1125 0064 BD46     		mov	sp, r7
 1126              		.cfi_def_cfa_register 13
 1127              		@ sp needed
 1128 0066 5DF8047B 		ldr	r7, [sp], #4
 1129              		.cfi_restore 7
 1130              		.cfi_def_cfa_offset 0
 1131 006a 7047     		bx	lr
 1132              	.L78:
 1133              		.align	2
 1134              	.L77:
 1135 006c 00000000 		.word	ISP_SVC_StatEngine
 1136              		.cfi_endproc
 1137              	.LFE846:
 1139              		.section	.text.GetStatCycleEnd,"ax",%progbits
 1140              		.align	1
 1141              		.syntax unified
 1142              		.thumb
 1143              		.thumb_func
 1145              	GetStatCycleEnd:
 1146              	.LFB847:
 398:Lib/Camera_Middleware/ISP_Library/isp/Src/isp_services.c **** 
 399:Lib/Camera_Middleware/ISP_Library/isp/Src/isp_services.c **** static ISP_SVC_StatEngineStage GetStatCycleEnd(ISP_SVC_StatLocation location)
 400:Lib/Camera_Middleware/ISP_Library/isp/Src/isp_services.c **** {
 1147              		.loc 1 400 1
 1148              		.cfi_startproc
 1149              		@ args = 0, pretend = 0, frame = 16
 1150              		@ frame_needed = 1, uses_anonymous_args = 0
 1151              		@ link register save eliminated.
 1152 0000 80B4     		push	{r7}
 1153              		.cfi_def_cfa_offset 4
 1154              		.cfi_offset 7, -4
 1155 0002 85B0     		sub	sp, sp, #20
 1156              		.cfi_def_cfa_offset 24
 1157 0004 00AF     		add	r7, sp, #0
 1158              		.cfi_def_cfa_register 7
 1159 0006 0346     		mov	r3, r0
 1160 0008 FB71     		strb	r3, [r7, #7]
 401:Lib/Camera_Middleware/ISP_Library/isp/Src/isp_services.c ****   ISP_SVC_StatEngineStage stage;
 402:Lib/Camera_Middleware/ISP_Library/isp/Src/isp_services.c **** 
 403:Lib/Camera_Middleware/ISP_Library/isp/Src/isp_services.c ****   if (location == ISP_STAT_LOC_UP)
 1161              		.loc 1 403 6
 1162 000a FB79     		ldrb	r3, [r7, #7]	@ zero_extendqisi2
 1163 000c 012B     		cmp	r3, #1
 1164 000e 13D1     		bne	.L80
 404:Lib/Camera_Middleware/ISP_Library/isp/Src/isp_services.c ****   {
 405:Lib/Camera_Middleware/ISP_Library/isp/Src/isp_services.c ****     if ((ISP_SVC_StatEngine.upRequest & ISP_STAT_TYPE_BINS) ||
 1165              		.loc 1 405 28
 1166 0010 164B     		ldr	r3, .L88
 1167 0012 93F85831 		ldrb	r3, [r3, #344]	@ zero_extendqisi2
 1168              		.loc 1 405 39
 1169 0016 03F00203 		and	r3, r3, #2
 1170              		.loc 1 405 8
 1171 001a 002B     		cmp	r3, #0
ARM GAS  /tmp/ccKI94Jd.s 			page 29


 1172 001c 06D1     		bne	.L81
 406:Lib/Camera_Middleware/ISP_Library/isp/Src/isp_services.c ****         (ISP_SVC_StatEngine.upRequest & ISP_STAT_TYPE_ALL_TMP))
 1173              		.loc 1 406 28
 1174 001e 134B     		ldr	r3, .L88
 1175 0020 93F85831 		ldrb	r3, [r3, #344]	@ zero_extendqisi2
 1176              		.loc 1 406 39
 1177 0024 03F00403 		and	r3, r3, #4
 405:Lib/Camera_Middleware/ISP_Library/isp/Src/isp_services.c ****         (ISP_SVC_StatEngine.upRequest & ISP_STAT_TYPE_ALL_TMP))
 1178              		.loc 1 405 61 discriminator 1
 1179 0028 002B     		cmp	r3, #0
 1180 002a 02D0     		beq	.L82
 1181              	.L81:
 407:Lib/Camera_Middleware/ISP_Library/isp/Src/isp_services.c ****     {
 408:Lib/Camera_Middleware/ISP_Library/isp/Src/isp_services.c ****       /* Stat up cycle ends with last BINS measurement */
 409:Lib/Camera_Middleware/ISP_Library/isp/Src/isp_services.c ****       stage = ISP_STAT_CFG_UP_BINS_9_11;
 1182              		.loc 1 409 13
 1183 002c 0423     		movs	r3, #4
 1184 002e FB73     		strb	r3, [r7, #15]
 1185 0030 15E0     		b	.L84
 1186              	.L82:
 410:Lib/Camera_Middleware/ISP_Library/isp/Src/isp_services.c ****     }
 411:Lib/Camera_Middleware/ISP_Library/isp/Src/isp_services.c ****     else
 412:Lib/Camera_Middleware/ISP_Library/isp/Src/isp_services.c ****     {
 413:Lib/Camera_Middleware/ISP_Library/isp/Src/isp_services.c ****       /* Stat up cycle ends with AVG measurement */
 414:Lib/Camera_Middleware/ISP_Library/isp/Src/isp_services.c ****       stage = ISP_STAT_CFG_UP_AVG;
 1187              		.loc 1 414 13
 1188 0032 0023     		movs	r3, #0
 1189 0034 FB73     		strb	r3, [r7, #15]
 1190 0036 12E0     		b	.L84
 1191              	.L80:
 415:Lib/Camera_Middleware/ISP_Library/isp/Src/isp_services.c ****     }
 416:Lib/Camera_Middleware/ISP_Library/isp/Src/isp_services.c ****   }
 417:Lib/Camera_Middleware/ISP_Library/isp/Src/isp_services.c ****   else
 418:Lib/Camera_Middleware/ISP_Library/isp/Src/isp_services.c ****   {
 419:Lib/Camera_Middleware/ISP_Library/isp/Src/isp_services.c ****     if ((ISP_SVC_StatEngine.downRequest & ISP_STAT_TYPE_BINS) ||
 1192              		.loc 1 419 28
 1193 0038 0C4B     		ldr	r3, .L88
 1194 003a 93F85931 		ldrb	r3, [r3, #345]	@ zero_extendqisi2
 1195              		.loc 1 419 41
 1196 003e 03F00203 		and	r3, r3, #2
 1197              		.loc 1 419 8
 1198 0042 002B     		cmp	r3, #0
 1199 0044 06D1     		bne	.L85
 420:Lib/Camera_Middleware/ISP_Library/isp/Src/isp_services.c ****         (ISP_SVC_StatEngine.downRequest & ISP_STAT_TYPE_ALL_TMP))
 1200              		.loc 1 420 28
 1201 0046 094B     		ldr	r3, .L88
 1202 0048 93F85931 		ldrb	r3, [r3, #345]	@ zero_extendqisi2
 1203              		.loc 1 420 41
 1204 004c 03F00403 		and	r3, r3, #4
 419:Lib/Camera_Middleware/ISP_Library/isp/Src/isp_services.c ****         (ISP_SVC_StatEngine.downRequest & ISP_STAT_TYPE_ALL_TMP))
 1205              		.loc 1 419 63 discriminator 1
 1206 0050 002B     		cmp	r3, #0
 1207 0052 02D0     		beq	.L86
 1208              	.L85:
 421:Lib/Camera_Middleware/ISP_Library/isp/Src/isp_services.c ****     {
 422:Lib/Camera_Middleware/ISP_Library/isp/Src/isp_services.c ****       /* Stat down cycle ends with last BINS measurement */
 423:Lib/Camera_Middleware/ISP_Library/isp/Src/isp_services.c ****       stage = ISP_STAT_CFG_DOWN_BINS_9_11;
ARM GAS  /tmp/ccKI94Jd.s 			page 30


 1209              		.loc 1 423 13
 1210 0054 0923     		movs	r3, #9
 1211 0056 FB73     		strb	r3, [r7, #15]
 1212 0058 01E0     		b	.L84
 1213              	.L86:
 424:Lib/Camera_Middleware/ISP_Library/isp/Src/isp_services.c ****     }
 425:Lib/Camera_Middleware/ISP_Library/isp/Src/isp_services.c ****     else
 426:Lib/Camera_Middleware/ISP_Library/isp/Src/isp_services.c ****     {
 427:Lib/Camera_Middleware/ISP_Library/isp/Src/isp_services.c ****       /* Stat down cycle ends with AVG measurement */
 428:Lib/Camera_Middleware/ISP_Library/isp/Src/isp_services.c ****       stage = ISP_STAT_CFG_DOWN_AVG;
 1214              		.loc 1 428 13
 1215 005a 0523     		movs	r3, #5
 1216 005c FB73     		strb	r3, [r7, #15]
 1217              	.L84:
 429:Lib/Camera_Middleware/ISP_Library/isp/Src/isp_services.c ****     }
 430:Lib/Camera_Middleware/ISP_Library/isp/Src/isp_services.c ****   }
 431:Lib/Camera_Middleware/ISP_Library/isp/Src/isp_services.c ****   return stage;
 1218              		.loc 1 431 10
 1219 005e FB7B     		ldrb	r3, [r7, #15]	@ zero_extendqisi2
 432:Lib/Camera_Middleware/ISP_Library/isp/Src/isp_services.c **** }
 1220              		.loc 1 432 1
 1221 0060 1846     		mov	r0, r3
 1222 0062 1437     		adds	r7, r7, #20
 1223              		.cfi_def_cfa_offset 4
 1224 0064 BD46     		mov	sp, r7
 1225              		.cfi_def_cfa_register 13
 1226              		@ sp needed
 1227 0066 5DF8047B 		ldr	r7, [sp], #4
 1228              		.cfi_restore 7
 1229              		.cfi_def_cfa_offset 0
 1230 006a 7047     		bx	lr
 1231              	.L89:
 1232              		.align	2
 1233              	.L88:
 1234 006c 00000000 		.word	ISP_SVC_StatEngine
 1235              		.cfi_endproc
 1236              	.LFE847:
 1238              		.section	.text.LuminanceFromRGB,"ax",%progbits
 1239              		.align	1
 1240              		.global	LuminanceFromRGB
 1241              		.syntax unified
 1242              		.thumb
 1243              		.thumb_func
 1245              	LuminanceFromRGB:
 1246              	.LFB848:
 433:Lib/Camera_Middleware/ISP_Library/isp/Src/isp_services.c **** 
 434:Lib/Camera_Middleware/ISP_Library/isp/Src/isp_services.c **** uint8_t LuminanceFromRGB(uint8_t r, uint8_t g, uint8_t b)
 435:Lib/Camera_Middleware/ISP_Library/isp/Src/isp_services.c **** {
 1247              		.loc 1 435 1
 1248              		.cfi_startproc
 1249              		@ args = 0, pretend = 0, frame = 8
 1250              		@ frame_needed = 1, uses_anonymous_args = 0
 1251              		@ link register save eliminated.
 1252 0000 80B4     		push	{r7}
 1253              		.cfi_def_cfa_offset 4
 1254              		.cfi_offset 7, -4
 1255 0002 83B0     		sub	sp, sp, #12
ARM GAS  /tmp/ccKI94Jd.s 			page 31


 1256              		.cfi_def_cfa_offset 16
 1257 0004 00AF     		add	r7, sp, #0
 1258              		.cfi_def_cfa_register 7
 1259 0006 0346     		mov	r3, r0
 1260 0008 FB71     		strb	r3, [r7, #7]
 1261 000a 0B46     		mov	r3, r1
 1262 000c BB71     		strb	r3, [r7, #6]
 1263 000e 1346     		mov	r3, r2
 1264 0010 7B71     		strb	r3, [r7, #5]
 436:Lib/Camera_Middleware/ISP_Library/isp/Src/isp_services.c ****   /* Compute luminance from RGB components (BT.601) */
 437:Lib/Camera_Middleware/ISP_Library/isp/Src/isp_services.c ****   return (uint8_t) (r * 0.299 + g * 0.587 + b * 0.114);
 1265              		.loc 1 437 23
 1266 0012 FB79     		ldrb	r3, [r7, #7]	@ zero_extendqisi2
 1267 0014 07EE903A 		vmov	s15, r3	@ int
 1268 0018 B8EEE77B 		vcvt.f64.s32	d7, s15
 1269 001c 9FED126B 		vldr.64	d6, .L92
 1270 0020 27EE066B 		vmul.f64	d6, d7, d6
 1271              		.loc 1 437 35
 1272 0024 BB79     		ldrb	r3, [r7, #6]	@ zero_extendqisi2
 1273 0026 07EE903A 		vmov	s15, r3	@ int
 1274 002a B8EEE77B 		vcvt.f64.s32	d7, s15
 1275 002e 9FED105B 		vldr.64	d5, .L92+8
 1276 0032 27EE057B 		vmul.f64	d7, d7, d5
 1277              		.loc 1 437 31
 1278 0036 36EE076B 		vadd.f64	d6, d6, d7
 1279              		.loc 1 437 47
 1280 003a 7B79     		ldrb	r3, [r7, #5]	@ zero_extendqisi2
 1281 003c 07EE903A 		vmov	s15, r3	@ int
 1282 0040 B8EEE77B 		vcvt.f64.s32	d7, s15
 1283 0044 9FED0C5B 		vldr.64	d5, .L92+16
 1284 0048 27EE057B 		vmul.f64	d7, d7, d5
 1285              		.loc 1 437 43
 1286 004c 36EE077B 		vadd.f64	d7, d6, d7
 1287              		.loc 1 437 10
 1288 0050 FCEEC77B 		vcvt.u32.f64	s15, d7
 1289 0054 C7ED007A 		vstr.32	s15, [r7]	@ int
 1290 0058 3B78     		ldrb	r3, [r7]
 1291 005a DBB2     		uxtb	r3, r3
 438:Lib/Camera_Middleware/ISP_Library/isp/Src/isp_services.c **** }
 1292              		.loc 1 438 1
 1293 005c 1846     		mov	r0, r3
 1294 005e 0C37     		adds	r7, r7, #12
 1295              		.cfi_def_cfa_offset 4
 1296 0060 BD46     		mov	sp, r7
 1297              		.cfi_def_cfa_register 13
 1298              		@ sp needed
 1299 0062 5DF8047B 		ldr	r7, [sp], #4
 1300              		.cfi_restore 7
 1301              		.cfi_def_cfa_offset 0
 1302 0066 7047     		bx	lr
 1303              	.L93:
 1304              		.align	3
 1305              	.L92:
 1306 0068 894160E5 		.word	-446676599
 1307 006c D022D33F 		.word	1070801616
 1308 0070 62105839 		.word	962072674
 1309 0074 B4C8E23F 		.word	1071827124
ARM GAS  /tmp/ccKI94Jd.s 			page 32


 1310 0078 C976BE9F 		.word	-1614907703
 1311 007c 1A2FBD3F 		.word	1069362970
 1312              		.cfi_endproc
 1313              	.LFE848:
 1315              		.section	.text.LuminanceFromRGBMono,"ax",%progbits
 1316              		.align	1
 1317              		.global	LuminanceFromRGBMono
 1318              		.syntax unified
 1319              		.thumb
 1320              		.thumb_func
 1322              	LuminanceFromRGBMono:
 1323              	.LFB849:
 439:Lib/Camera_Middleware/ISP_Library/isp/Src/isp_services.c **** 
 440:Lib/Camera_Middleware/ISP_Library/isp/Src/isp_services.c **** uint8_t LuminanceFromRGBMono(uint8_t r, uint8_t g, uint8_t b)
 441:Lib/Camera_Middleware/ISP_Library/isp/Src/isp_services.c **** {
 1324              		.loc 1 441 1
 1325              		.cfi_startproc
 1326              		@ args = 0, pretend = 0, frame = 8
 1327              		@ frame_needed = 1, uses_anonymous_args = 0
 1328              		@ link register save eliminated.
 1329 0000 80B4     		push	{r7}
 1330              		.cfi_def_cfa_offset 4
 1331              		.cfi_offset 7, -4
 1332 0002 83B0     		sub	sp, sp, #12
 1333              		.cfi_def_cfa_offset 16
 1334 0004 00AF     		add	r7, sp, #0
 1335              		.cfi_def_cfa_register 7
 1336 0006 0346     		mov	r3, r0
 1337 0008 FB71     		strb	r3, [r7, #7]
 1338 000a 0B46     		mov	r3, r1
 1339 000c BB71     		strb	r3, [r7, #6]
 1340 000e 1346     		mov	r3, r2
 1341 0010 7B71     		strb	r3, [r7, #5]
 442:Lib/Camera_Middleware/ISP_Library/isp/Src/isp_services.c ****   /* Compute luminance from RGB components
 443:Lib/Camera_Middleware/ISP_Library/isp/Src/isp_services.c ****    * by adding together R, G, B components for monochrome sensor */
 444:Lib/Camera_Middleware/ISP_Library/isp/Src/isp_services.c ****   return r + g + b;
 1342              		.loc 1 444 12
 1343 0012 FA79     		ldrb	r2, [r7, #7]
 1344 0014 BB79     		ldrb	r3, [r7, #6]
 1345 0016 1344     		add	r3, r3, r2
 1346 0018 DAB2     		uxtb	r2, r3
 1347              		.loc 1 444 16
 1348 001a 7B79     		ldrb	r3, [r7, #5]
 1349 001c 1344     		add	r3, r3, r2
 1350 001e DBB2     		uxtb	r3, r3
 445:Lib/Camera_Middleware/ISP_Library/isp/Src/isp_services.c **** }
 1351              		.loc 1 445 1
 1352 0020 1846     		mov	r0, r3
 1353 0022 0C37     		adds	r7, r7, #12
 1354              		.cfi_def_cfa_offset 4
 1355 0024 BD46     		mov	sp, r7
 1356              		.cfi_def_cfa_register 13
 1357              		@ sp needed
 1358 0026 5DF8047B 		ldr	r7, [sp], #4
 1359              		.cfi_restore 7
 1360              		.cfi_def_cfa_offset 0
 1361 002a 7047     		bx	lr
ARM GAS  /tmp/ccKI94Jd.s 			page 33


 1362              		.cfi_endproc
 1363              	.LFE849:
 1365              		.section	.text.ISP_SVC_ISP_SetDemosaicing,"ax",%progbits
 1366              		.align	1
 1367              		.global	ISP_SVC_ISP_SetDemosaicing
 1368              		.syntax unified
 1369              		.thumb
 1370              		.thumb_func
 1372              	ISP_SVC_ISP_SetDemosaicing:
 1373              	.LFB850:
 446:Lib/Camera_Middleware/ISP_Library/isp/Src/isp_services.c **** 
 447:Lib/Camera_Middleware/ISP_Library/isp/Src/isp_services.c **** /* Exported functions --------------------------------------------------------*/
 448:Lib/Camera_Middleware/ISP_Library/isp/Src/isp_services.c **** /**
 449:Lib/Camera_Middleware/ISP_Library/isp/Src/isp_services.c ****   * @brief  ISP_SVC_ISP_SetDemosaicing
 450:Lib/Camera_Middleware/ISP_Library/isp/Src/isp_services.c ****   *         Set the ISP demosaicing configuration
 451:Lib/Camera_Middleware/ISP_Library/isp/Src/isp_services.c ****   * @param  hIsp: ISP device handle
 452:Lib/Camera_Middleware/ISP_Library/isp/Src/isp_services.c ****   * @param  pConfig: Pointer to the demosaicing configuration
 453:Lib/Camera_Middleware/ISP_Library/isp/Src/isp_services.c ****   * @retval operation result
 454:Lib/Camera_Middleware/ISP_Library/isp/Src/isp_services.c ****   */
 455:Lib/Camera_Middleware/ISP_Library/isp/Src/isp_services.c **** ISP_StatusTypeDef ISP_SVC_ISP_SetDemosaicing(ISP_HandleTypeDef *hIsp, ISP_DemosaicingTypeDef *pConf
 456:Lib/Camera_Middleware/ISP_Library/isp/Src/isp_services.c **** {
 1374              		.loc 1 456 1
 1375              		.cfi_startproc
 1376              		@ args = 0, pretend = 0, frame = 32
 1377              		@ frame_needed = 1, uses_anonymous_args = 0
 1378 0000 80B5     		push	{r7, lr}
 1379              		.cfi_def_cfa_offset 8
 1380              		.cfi_offset 7, -8
 1381              		.cfi_offset 14, -4
 1382 0002 88B0     		sub	sp, sp, #32
 1383              		.cfi_def_cfa_offset 40
 1384 0004 00AF     		add	r7, sp, #0
 1385              		.cfi_def_cfa_register 7
 1386 0006 7860     		str	r0, [r7, #4]
 1387 0008 3960     		str	r1, [r7]
 457:Lib/Camera_Middleware/ISP_Library/isp/Src/isp_services.c ****   HAL_StatusTypeDef halStatus;
 458:Lib/Camera_Middleware/ISP_Library/isp/Src/isp_services.c ****   DCMIPP_RawBayer2RGBConfTypeDef rawBayerCfg;
 459:Lib/Camera_Middleware/ISP_Library/isp/Src/isp_services.c **** 
 460:Lib/Camera_Middleware/ISP_Library/isp/Src/isp_services.c ****   if ((hIsp == NULL) || (pConfig == NULL) ||
 1388              		.loc 1 460 6
 1389 000a 7B68     		ldr	r3, [r7, #4]
 1390 000c 002B     		cmp	r3, #0
 1391 000e 12D0     		beq	.L97
 1392              		.loc 1 460 22 discriminator 1
 1393 0010 3B68     		ldr	r3, [r7]
 1394 0012 002B     		cmp	r3, #0
 1395 0014 0FD0     		beq	.L97
 461:Lib/Camera_Middleware/ISP_Library/isp/Src/isp_services.c ****       (pConfig->peak > ISP_DEMOS_STRENGTH_MAX) || (pConfig->lineV > ISP_DEMOS_STRENGTH_MAX) ||
 1396              		.loc 1 461 15
 1397 0016 3B68     		ldr	r3, [r7]
 1398 0018 9B78     		ldrb	r3, [r3, #2]	@ zero_extendqisi2
 460:Lib/Camera_Middleware/ISP_Library/isp/Src/isp_services.c ****       (pConfig->peak > ISP_DEMOS_STRENGTH_MAX) || (pConfig->lineV > ISP_DEMOS_STRENGTH_MAX) ||
 1399              		.loc 1 460 43 discriminator 2
 1400 001a 072B     		cmp	r3, #7
 1401 001c 0BD8     		bhi	.L97
 1402              		.loc 1 461 59
 1403 001e 3B68     		ldr	r3, [r7]
ARM GAS  /tmp/ccKI94Jd.s 			page 34


 1404 0020 DB78     		ldrb	r3, [r3, #3]	@ zero_extendqisi2
 1405              		.loc 1 461 48
 1406 0022 072B     		cmp	r3, #7
 1407 0024 07D8     		bhi	.L97
 462:Lib/Camera_Middleware/ISP_Library/isp/Src/isp_services.c ****       (pConfig->lineH > ISP_DEMOS_STRENGTH_MAX) || (pConfig->edge > ISP_DEMOS_STRENGTH_MAX))
 1408              		.loc 1 462 15
 1409 0026 3B68     		ldr	r3, [r7]
 1410 0028 1B79     		ldrb	r3, [r3, #4]	@ zero_extendqisi2
 461:Lib/Camera_Middleware/ISP_Library/isp/Src/isp_services.c ****       (pConfig->peak > ISP_DEMOS_STRENGTH_MAX) || (pConfig->lineV > ISP_DEMOS_STRENGTH_MAX) ||
 1411              		.loc 1 461 93 discriminator 1
 1412 002a 072B     		cmp	r3, #7
 1413 002c 03D8     		bhi	.L97
 1414              		.loc 1 462 60
 1415 002e 3B68     		ldr	r3, [r7]
 1416 0030 5B79     		ldrb	r3, [r3, #5]	@ zero_extendqisi2
 1417              		.loc 1 462 49
 1418 0032 072B     		cmp	r3, #7
 1419 0034 01D9     		bls	.L98
 1420              	.L97:
 463:Lib/Camera_Middleware/ISP_Library/isp/Src/isp_services.c ****   {
 464:Lib/Camera_Middleware/ISP_Library/isp/Src/isp_services.c ****     return ISP_ERR_DEMOSAICING_EINVAL;
 1421              		.loc 1 464 12
 1422 0036 0A23     		movs	r3, #10
 1423 0038 56E0     		b	.L111
 1424              	.L98:
 465:Lib/Camera_Middleware/ISP_Library/isp/Src/isp_services.c ****   }
 466:Lib/Camera_Middleware/ISP_Library/isp/Src/isp_services.c **** 
 467:Lib/Camera_Middleware/ISP_Library/isp/Src/isp_services.c ****   /* Do not enable demosaicing if the camera sensor is a monochrome sensor */
 468:Lib/Camera_Middleware/ISP_Library/isp/Src/isp_services.c ****   if ((pConfig->enable == 0) || (pConfig->type == ISP_DEMOS_TYPE_MONO))
 1425              		.loc 1 468 15
 1426 003a 3B68     		ldr	r3, [r7]
 1427 003c 1B78     		ldrb	r3, [r3]	@ zero_extendqisi2
 1428              		.loc 1 468 6
 1429 003e 002B     		cmp	r3, #0
 1430 0040 03D0     		beq	.L100
 1431              		.loc 1 468 41 discriminator 1
 1432 0042 3B68     		ldr	r3, [r7]
 1433 0044 5B78     		ldrb	r3, [r3, #1]	@ zero_extendqisi2
 1434              		.loc 1 468 30 discriminator 1
 1435 0046 042B     		cmp	r3, #4
 1436 0048 08D1     		bne	.L101
 1437              	.L100:
 469:Lib/Camera_Middleware/ISP_Library/isp/Src/isp_services.c ****   {
 470:Lib/Camera_Middleware/ISP_Library/isp/Src/isp_services.c ****     halStatus = HAL_DCMIPP_PIPE_DisableISPRawBayer2RGB(hIsp->hDcmipp, DCMIPP_PIPE1);
 1438              		.loc 1 470 60
 1439 004a 7B68     		ldr	r3, [r7, #4]
 1440 004c 1B68     		ldr	r3, [r3]
 1441              		.loc 1 470 17
 1442 004e 0121     		movs	r1, #1
 1443 0050 1846     		mov	r0, r3
 1444 0052 FFF7FEFF 		bl	HAL_DCMIPP_PIPE_DisableISPRawBayer2RGB
 1445 0056 0346     		mov	r3, r0
 1446 0058 FB77     		strb	r3, [r7, #31]
 1447              		.loc 1 470 15
 1448 005a 3FE0     		b	.L102
 1449              	.L101:
 471:Lib/Camera_Middleware/ISP_Library/isp/Src/isp_services.c ****   }
ARM GAS  /tmp/ccKI94Jd.s 			page 35


 472:Lib/Camera_Middleware/ISP_Library/isp/Src/isp_services.c ****   else
 473:Lib/Camera_Middleware/ISP_Library/isp/Src/isp_services.c ****   {
 474:Lib/Camera_Middleware/ISP_Library/isp/Src/isp_services.c ****     switch(pConfig->type)
 1450              		.loc 1 474 19
 1451 005c 3B68     		ldr	r3, [r7]
 1452 005e 5B78     		ldrb	r3, [r3, #1]	@ zero_extendqisi2
 1453              		.loc 1 474 5
 1454 0060 032B     		cmp	r3, #3
 1455 0062 17D8     		bhi	.L103
 1456 0064 01A2     		adr	r2, .L105
 1457 0066 52F823F0 		ldr	pc, [r2, r3, lsl #2]
 1458 006a 00BF     		.p2align 2
 1459              	.L105:
 1460 006c 7D000000 		.word	.L108+1
 1461 0070 83000000 		.word	.L107+1
 1462 0074 89000000 		.word	.L106+1
 1463 0078 8F000000 		.word	.L104+1
 1464              		.p2align 1
 1465              	.L108:
 475:Lib/Camera_Middleware/ISP_Library/isp/Src/isp_services.c ****     {
 476:Lib/Camera_Middleware/ISP_Library/isp/Src/isp_services.c ****       case ISP_DEMOS_TYPE_RGGB:
 477:Lib/Camera_Middleware/ISP_Library/isp/Src/isp_services.c ****         rawBayerCfg.RawBayerType = DCMIPP_RAWBAYER_RGGB;
 1466              		.loc 1 477 34
 1467 007c 0023     		movs	r3, #0
 1468 007e 3B61     		str	r3, [r7, #16]
 478:Lib/Camera_Middleware/ISP_Library/isp/Src/isp_services.c ****         break;
 1469              		.loc 1 478 9
 1470 0080 0BE0     		b	.L109
 1471              	.L107:
 479:Lib/Camera_Middleware/ISP_Library/isp/Src/isp_services.c ****       case ISP_DEMOS_TYPE_GRBG:
 480:Lib/Camera_Middleware/ISP_Library/isp/Src/isp_services.c ****         rawBayerCfg.RawBayerType = DCMIPP_RAWBAYER_GRBG;
 1472              		.loc 1 480 34
 1473 0082 0223     		movs	r3, #2
 1474 0084 3B61     		str	r3, [r7, #16]
 481:Lib/Camera_Middleware/ISP_Library/isp/Src/isp_services.c ****         break;
 1475              		.loc 1 481 9
 1476 0086 08E0     		b	.L109
 1477              	.L106:
 482:Lib/Camera_Middleware/ISP_Library/isp/Src/isp_services.c ****       case ISP_DEMOS_TYPE_GBRG:
 483:Lib/Camera_Middleware/ISP_Library/isp/Src/isp_services.c ****         rawBayerCfg.RawBayerType = DCMIPP_RAWBAYER_GBRG;
 1478              		.loc 1 483 34
 1479 0088 0423     		movs	r3, #4
 1480 008a 3B61     		str	r3, [r7, #16]
 484:Lib/Camera_Middleware/ISP_Library/isp/Src/isp_services.c ****         break;
 1481              		.loc 1 484 9
 1482 008c 05E0     		b	.L109
 1483              	.L104:
 485:Lib/Camera_Middleware/ISP_Library/isp/Src/isp_services.c ****       case ISP_DEMOS_TYPE_BGGR:
 486:Lib/Camera_Middleware/ISP_Library/isp/Src/isp_services.c ****         rawBayerCfg.RawBayerType = DCMIPP_RAWBAYER_BGGR;
 1484              		.loc 1 486 34
 1485 008e 0623     		movs	r3, #6
 1486 0090 3B61     		str	r3, [r7, #16]
 487:Lib/Camera_Middleware/ISP_Library/isp/Src/isp_services.c ****         break;
 1487              		.loc 1 487 9
 1488 0092 02E0     		b	.L109
 1489              	.L103:
 488:Lib/Camera_Middleware/ISP_Library/isp/Src/isp_services.c ****       default:
ARM GAS  /tmp/ccKI94Jd.s 			page 36


 489:Lib/Camera_Middleware/ISP_Library/isp/Src/isp_services.c ****         rawBayerCfg.RawBayerType = DCMIPP_RAWBAYER_RGGB;
 1490              		.loc 1 489 34
 1491 0094 0023     		movs	r3, #0
 1492 0096 3B61     		str	r3, [r7, #16]
 490:Lib/Camera_Middleware/ISP_Library/isp/Src/isp_services.c ****         break;
 1493              		.loc 1 490 9
 1494 0098 00BF     		nop
 1495              	.L109:
 491:Lib/Camera_Middleware/ISP_Library/isp/Src/isp_services.c ****     }
 492:Lib/Camera_Middleware/ISP_Library/isp/Src/isp_services.c **** 
 493:Lib/Camera_Middleware/ISP_Library/isp/Src/isp_services.c ****     rawBayerCfg.PeakStrength = (uint32_t) pConfig->peak;
 1496              		.loc 1 493 50
 1497 009a 3B68     		ldr	r3, [r7]
 1498 009c 9B78     		ldrb	r3, [r3, #2]	@ zero_extendqisi2
 1499              		.loc 1 493 30
 1500 009e 7B61     		str	r3, [r7, #20]
 494:Lib/Camera_Middleware/ISP_Library/isp/Src/isp_services.c ****     rawBayerCfg.VLineStrength = (uint32_t) pConfig->lineV;
 1501              		.loc 1 494 51
 1502 00a0 3B68     		ldr	r3, [r7]
 1503 00a2 DB78     		ldrb	r3, [r3, #3]	@ zero_extendqisi2
 1504              		.loc 1 494 31
 1505 00a4 BB60     		str	r3, [r7, #8]
 495:Lib/Camera_Middleware/ISP_Library/isp/Src/isp_services.c ****     rawBayerCfg.HLineStrength = (uint32_t) pConfig->lineH;
 1506              		.loc 1 495 51
 1507 00a6 3B68     		ldr	r3, [r7]
 1508 00a8 1B79     		ldrb	r3, [r3, #4]	@ zero_extendqisi2
 1509              		.loc 1 495 31
 1510 00aa FB60     		str	r3, [r7, #12]
 496:Lib/Camera_Middleware/ISP_Library/isp/Src/isp_services.c ****     rawBayerCfg.EdgeStrength = (uint32_t) pConfig->edge;
 1511              		.loc 1 496 50
 1512 00ac 3B68     		ldr	r3, [r7]
 1513 00ae 5B79     		ldrb	r3, [r3, #5]	@ zero_extendqisi2
 1514              		.loc 1 496 30
 1515 00b0 BB61     		str	r3, [r7, #24]
 497:Lib/Camera_Middleware/ISP_Library/isp/Src/isp_services.c ****     halStatus = HAL_DCMIPP_PIPE_SetISPRawBayer2RGBConfig(hIsp->hDcmipp, DCMIPP_PIPE1, &rawBayerCfg)
 1516              		.loc 1 497 62
 1517 00b2 7B68     		ldr	r3, [r7, #4]
 1518 00b4 1B68     		ldr	r3, [r3]
 1519              		.loc 1 497 17
 1520 00b6 07F10802 		add	r2, r7, #8
 1521 00ba 0121     		movs	r1, #1
 1522 00bc 1846     		mov	r0, r3
 1523 00be FFF7FEFF 		bl	HAL_DCMIPP_PIPE_SetISPRawBayer2RGBConfig
 1524 00c2 0346     		mov	r3, r0
 1525 00c4 FB77     		strb	r3, [r7, #31]
 498:Lib/Camera_Middleware/ISP_Library/isp/Src/isp_services.c **** 
 499:Lib/Camera_Middleware/ISP_Library/isp/Src/isp_services.c ****     if (halStatus == HAL_OK)
 1526              		.loc 1 499 8
 1527 00c6 FB7F     		ldrb	r3, [r7, #31]	@ zero_extendqisi2
 1528 00c8 002B     		cmp	r3, #0
 1529 00ca 07D1     		bne	.L102
 500:Lib/Camera_Middleware/ISP_Library/isp/Src/isp_services.c ****     {
 501:Lib/Camera_Middleware/ISP_Library/isp/Src/isp_services.c ****       halStatus = HAL_DCMIPP_PIPE_EnableISPRawBayer2RGB(hIsp->hDcmipp, DCMIPP_PIPE1);
 1530              		.loc 1 501 61
 1531 00cc 7B68     		ldr	r3, [r7, #4]
 1532 00ce 1B68     		ldr	r3, [r3]
 1533              		.loc 1 501 19
ARM GAS  /tmp/ccKI94Jd.s 			page 37


 1534 00d0 0121     		movs	r1, #1
 1535 00d2 1846     		mov	r0, r3
 1536 00d4 FFF7FEFF 		bl	HAL_DCMIPP_PIPE_EnableISPRawBayer2RGB
 1537 00d8 0346     		mov	r3, r0
 1538 00da FB77     		strb	r3, [r7, #31]
 1539              	.L102:
 502:Lib/Camera_Middleware/ISP_Library/isp/Src/isp_services.c ****     }
 503:Lib/Camera_Middleware/ISP_Library/isp/Src/isp_services.c ****   }
 504:Lib/Camera_Middleware/ISP_Library/isp/Src/isp_services.c **** 
 505:Lib/Camera_Middleware/ISP_Library/isp/Src/isp_services.c ****   if (halStatus != HAL_OK)
 1540              		.loc 1 505 6
 1541 00dc FB7F     		ldrb	r3, [r7, #31]	@ zero_extendqisi2
 1542 00de 002B     		cmp	r3, #0
 1543 00e0 01D0     		beq	.L110
 506:Lib/Camera_Middleware/ISP_Library/isp/Src/isp_services.c ****   {
 507:Lib/Camera_Middleware/ISP_Library/isp/Src/isp_services.c ****     return ISP_ERR_DEMOSAICING_HAL;
 1544              		.loc 1 507 12
 1545 00e2 0B23     		movs	r3, #11
 1546 00e4 00E0     		b	.L111
 1547              	.L110:
 508:Lib/Camera_Middleware/ISP_Library/isp/Src/isp_services.c ****   }
 509:Lib/Camera_Middleware/ISP_Library/isp/Src/isp_services.c **** 
 510:Lib/Camera_Middleware/ISP_Library/isp/Src/isp_services.c ****   return ISP_OK;
 1548              		.loc 1 510 10
 1549 00e6 0023     		movs	r3, #0
 1550              	.L111:
 511:Lib/Camera_Middleware/ISP_Library/isp/Src/isp_services.c **** }
 1551              		.loc 1 511 1
 1552 00e8 1846     		mov	r0, r3
 1553 00ea 2037     		adds	r7, r7, #32
 1554              		.cfi_def_cfa_offset 8
 1555 00ec BD46     		mov	sp, r7
 1556              		.cfi_def_cfa_register 13
 1557              		@ sp needed
 1558 00ee 80BD     		pop	{r7, pc}
 1559              		.cfi_endproc
 1560              	.LFE850:
 1562              		.section	.text.ISP_SVC_ISP_SetStatRemoval,"ax",%progbits
 1563              		.align	1
 1564              		.global	ISP_SVC_ISP_SetStatRemoval
 1565              		.syntax unified
 1566              		.thumb
 1567              		.thumb_func
 1569              	ISP_SVC_ISP_SetStatRemoval:
 1570              	.LFB851:
 512:Lib/Camera_Middleware/ISP_Library/isp/Src/isp_services.c **** 
 513:Lib/Camera_Middleware/ISP_Library/isp/Src/isp_services.c **** /**
 514:Lib/Camera_Middleware/ISP_Library/isp/Src/isp_services.c ****   * @brief  ISP_SVC_ISP_SetStatRemoval
 515:Lib/Camera_Middleware/ISP_Library/isp/Src/isp_services.c ****   *         Set the ISP Stat Removal configuration
 516:Lib/Camera_Middleware/ISP_Library/isp/Src/isp_services.c ****   * @param  hIsp: ISP device handle
 517:Lib/Camera_Middleware/ISP_Library/isp/Src/isp_services.c ****   * @param  pConfig: Pointer to the Stat Removal configuration
 518:Lib/Camera_Middleware/ISP_Library/isp/Src/isp_services.c ****   * @retval operation result
 519:Lib/Camera_Middleware/ISP_Library/isp/Src/isp_services.c ****   */
 520:Lib/Camera_Middleware/ISP_Library/isp/Src/isp_services.c **** ISP_StatusTypeDef ISP_SVC_ISP_SetStatRemoval(ISP_HandleTypeDef *hIsp, ISP_StatRemovalTypeDef *pConf
 521:Lib/Camera_Middleware/ISP_Library/isp/Src/isp_services.c **** {
 1571              		.loc 1 521 1
 1572              		.cfi_startproc
ARM GAS  /tmp/ccKI94Jd.s 			page 38


 1573              		@ args = 0, pretend = 0, frame = 16
 1574              		@ frame_needed = 1, uses_anonymous_args = 0
 1575 0000 80B5     		push	{r7, lr}
 1576              		.cfi_def_cfa_offset 8
 1577              		.cfi_offset 7, -8
 1578              		.cfi_offset 14, -4
 1579 0002 84B0     		sub	sp, sp, #16
 1580              		.cfi_def_cfa_offset 24
 1581 0004 00AF     		add	r7, sp, #0
 1582              		.cfi_def_cfa_register 7
 1583 0006 7860     		str	r0, [r7, #4]
 1584 0008 3960     		str	r1, [r7]
 522:Lib/Camera_Middleware/ISP_Library/isp/Src/isp_services.c ****   HAL_StatusTypeDef halStatus;
 523:Lib/Camera_Middleware/ISP_Library/isp/Src/isp_services.c **** 
 524:Lib/Camera_Middleware/ISP_Library/isp/Src/isp_services.c ****   if ((hIsp == NULL) || (pConfig == NULL) ||
 1585              		.loc 1 524 6
 1586 000a 7B68     		ldr	r3, [r7, #4]
 1587 000c 002B     		cmp	r3, #0
 1588 000e 0CD0     		beq	.L113
 1589              		.loc 1 524 22 discriminator 1
 1590 0010 3B68     		ldr	r3, [r7]
 1591 0012 002B     		cmp	r3, #0
 1592 0014 09D0     		beq	.L113
 525:Lib/Camera_Middleware/ISP_Library/isp/Src/isp_services.c ****       (pConfig->nbHeadLines > ISP_STATREMOVAL_HEADLINES_MAX) || (pConfig->nbValidLines > ISP_STATRE
 1593              		.loc 1 525 15
 1594 0016 3B68     		ldr	r3, [r7]
 1595 0018 5B68     		ldr	r3, [r3, #4]
 524:Lib/Camera_Middleware/ISP_Library/isp/Src/isp_services.c ****       (pConfig->nbHeadLines > ISP_STATREMOVAL_HEADLINES_MAX) || (pConfig->nbValidLines > ISP_STATRE
 1596              		.loc 1 524 43 discriminator 2
 1597 001a 072B     		cmp	r3, #7
 1598 001c 05D8     		bhi	.L113
 1599              		.loc 1 525 73
 1600 001e 3B68     		ldr	r3, [r7]
 1601 0020 9B68     		ldr	r3, [r3, #8]
 1602              		.loc 1 525 62
 1603 0022 40F6FE72 		movw	r2, #4094
 1604 0026 9342     		cmp	r3, r2
 1605 0028 01D9     		bls	.L114
 1606              	.L113:
 526:Lib/Camera_Middleware/ISP_Library/isp/Src/isp_services.c ****   {
 527:Lib/Camera_Middleware/ISP_Library/isp/Src/isp_services.c ****     return ISP_ERR_STATREMOVAL_EINVAL;
 1607              		.loc 1 527 12
 1608 002a 1423     		movs	r3, #20
 1609 002c 28E0     		b	.L115
 1610              	.L114:
 528:Lib/Camera_Middleware/ISP_Library/isp/Src/isp_services.c ****   }
 529:Lib/Camera_Middleware/ISP_Library/isp/Src/isp_services.c **** 
 530:Lib/Camera_Middleware/ISP_Library/isp/Src/isp_services.c ****   if (pConfig->enable == 0)
 1611              		.loc 1 530 14
 1612 002e 3B68     		ldr	r3, [r7]
 1613 0030 1B78     		ldrb	r3, [r3]	@ zero_extendqisi2
 1614              		.loc 1 530 6
 1615 0032 002B     		cmp	r3, #0
 1616 0034 08D1     		bne	.L116
 531:Lib/Camera_Middleware/ISP_Library/isp/Src/isp_services.c ****   {
 532:Lib/Camera_Middleware/ISP_Library/isp/Src/isp_services.c ****     halStatus = HAL_DCMIPP_PIPE_DisableISPRemovalStatistic(hIsp->hDcmipp, DCMIPP_PIPE1);
 1617              		.loc 1 532 64
ARM GAS  /tmp/ccKI94Jd.s 			page 39


 1618 0036 7B68     		ldr	r3, [r7, #4]
 1619 0038 1B68     		ldr	r3, [r3]
 1620              		.loc 1 532 17
 1621 003a 0121     		movs	r1, #1
 1622 003c 1846     		mov	r0, r3
 1623 003e FFF7FEFF 		bl	HAL_DCMIPP_PIPE_DisableISPRemovalStatistic
 1624 0042 0346     		mov	r3, r0
 1625 0044 FB73     		strb	r3, [r7, #15]
 1626 0046 15E0     		b	.L117
 1627              	.L116:
 533:Lib/Camera_Middleware/ISP_Library/isp/Src/isp_services.c ****   }
 534:Lib/Camera_Middleware/ISP_Library/isp/Src/isp_services.c ****   else
 535:Lib/Camera_Middleware/ISP_Library/isp/Src/isp_services.c ****   {
 536:Lib/Camera_Middleware/ISP_Library/isp/Src/isp_services.c ****     halStatus = HAL_DCMIPP_PIPE_SetISPRemovalStatisticConfig(hIsp->hDcmipp, DCMIPP_PIPE1, pConfig->
 1628              		.loc 1 536 66
 1629 0048 7B68     		ldr	r3, [r7, #4]
 1630 004a 1868     		ldr	r0, [r3]
 1631              		.loc 1 536 17
 1632 004c 3B68     		ldr	r3, [r7]
 1633 004e 5A68     		ldr	r2, [r3, #4]
 1634 0050 3B68     		ldr	r3, [r7]
 1635 0052 9B68     		ldr	r3, [r3, #8]
 1636 0054 0121     		movs	r1, #1
 1637 0056 FFF7FEFF 		bl	HAL_DCMIPP_PIPE_SetISPRemovalStatisticConfig
 1638 005a 0346     		mov	r3, r0
 1639 005c FB73     		strb	r3, [r7, #15]
 537:Lib/Camera_Middleware/ISP_Library/isp/Src/isp_services.c **** 
 538:Lib/Camera_Middleware/ISP_Library/isp/Src/isp_services.c ****     if (halStatus == HAL_OK)
 1640              		.loc 1 538 8
 1641 005e FB7B     		ldrb	r3, [r7, #15]	@ zero_extendqisi2
 1642 0060 002B     		cmp	r3, #0
 1643 0062 07D1     		bne	.L117
 539:Lib/Camera_Middleware/ISP_Library/isp/Src/isp_services.c ****     {
 540:Lib/Camera_Middleware/ISP_Library/isp/Src/isp_services.c ****       halStatus = HAL_DCMIPP_PIPE_EnableISPRemovalStatistic(hIsp->hDcmipp, DCMIPP_PIPE1);
 1644              		.loc 1 540 65
 1645 0064 7B68     		ldr	r3, [r7, #4]
 1646 0066 1B68     		ldr	r3, [r3]
 1647              		.loc 1 540 19
 1648 0068 0121     		movs	r1, #1
 1649 006a 1846     		mov	r0, r3
 1650 006c FFF7FEFF 		bl	HAL_DCMIPP_PIPE_EnableISPRemovalStatistic
 1651 0070 0346     		mov	r3, r0
 1652 0072 FB73     		strb	r3, [r7, #15]
 1653              	.L117:
 541:Lib/Camera_Middleware/ISP_Library/isp/Src/isp_services.c ****     }
 542:Lib/Camera_Middleware/ISP_Library/isp/Src/isp_services.c ****   }
 543:Lib/Camera_Middleware/ISP_Library/isp/Src/isp_services.c **** 
 544:Lib/Camera_Middleware/ISP_Library/isp/Src/isp_services.c ****   if (halStatus != HAL_OK)
 1654              		.loc 1 544 6
 1655 0074 FB7B     		ldrb	r3, [r7, #15]	@ zero_extendqisi2
 1656 0076 002B     		cmp	r3, #0
 1657 0078 01D0     		beq	.L118
 545:Lib/Camera_Middleware/ISP_Library/isp/Src/isp_services.c ****   {
 546:Lib/Camera_Middleware/ISP_Library/isp/Src/isp_services.c ****     return ISP_ERR_STATREMOVAL_HAL;
 1658              		.loc 1 546 12
 1659 007a 1523     		movs	r3, #21
 1660 007c 00E0     		b	.L115
ARM GAS  /tmp/ccKI94Jd.s 			page 40


 1661              	.L118:
 547:Lib/Camera_Middleware/ISP_Library/isp/Src/isp_services.c ****   }
 548:Lib/Camera_Middleware/ISP_Library/isp/Src/isp_services.c **** 
 549:Lib/Camera_Middleware/ISP_Library/isp/Src/isp_services.c ****   return ISP_OK;
 1662              		.loc 1 549 10
 1663 007e 0023     		movs	r3, #0
 1664              	.L115:
 550:Lib/Camera_Middleware/ISP_Library/isp/Src/isp_services.c **** }
 1665              		.loc 1 550 1
 1666 0080 1846     		mov	r0, r3
 1667 0082 1037     		adds	r7, r7, #16
 1668              		.cfi_def_cfa_offset 8
 1669 0084 BD46     		mov	sp, r7
 1670              		.cfi_def_cfa_register 13
 1671              		@ sp needed
 1672 0086 80BD     		pop	{r7, pc}
 1673              		.cfi_endproc
 1674              	.LFE851:
 1676              		.section	.text.ISP_SVC_ISP_SetDecimation,"ax",%progbits
 1677              		.align	1
 1678              		.global	ISP_SVC_ISP_SetDecimation
 1679              		.syntax unified
 1680              		.thumb
 1681              		.thumb_func
 1683              	ISP_SVC_ISP_SetDecimation:
 1684              	.LFB852:
 551:Lib/Camera_Middleware/ISP_Library/isp/Src/isp_services.c **** 
 552:Lib/Camera_Middleware/ISP_Library/isp/Src/isp_services.c **** /**
 553:Lib/Camera_Middleware/ISP_Library/isp/Src/isp_services.c ****   * @brief  ISP_SVC_ISP_SetDecimation
 554:Lib/Camera_Middleware/ISP_Library/isp/Src/isp_services.c ****   *         Set the ISP Decimation configuration
 555:Lib/Camera_Middleware/ISP_Library/isp/Src/isp_services.c ****   * @param  hIsp: ISP device handle
 556:Lib/Camera_Middleware/ISP_Library/isp/Src/isp_services.c ****   * @param  pConfig: Pointer to the decimation configuration
 557:Lib/Camera_Middleware/ISP_Library/isp/Src/isp_services.c ****   * @retval operation result
 558:Lib/Camera_Middleware/ISP_Library/isp/Src/isp_services.c ****   */
 559:Lib/Camera_Middleware/ISP_Library/isp/Src/isp_services.c **** ISP_StatusTypeDef ISP_SVC_ISP_SetDecimation(ISP_HandleTypeDef *hIsp, ISP_DecimationTypeDef *pConfig
 560:Lib/Camera_Middleware/ISP_Library/isp/Src/isp_services.c **** {
 1685              		.loc 1 560 1
 1686              		.cfi_startproc
 1687              		@ args = 0, pretend = 0, frame = 24
 1688              		@ frame_needed = 1, uses_anonymous_args = 0
 1689 0000 80B5     		push	{r7, lr}
 1690              		.cfi_def_cfa_offset 8
 1691              		.cfi_offset 7, -8
 1692              		.cfi_offset 14, -4
 1693 0002 86B0     		sub	sp, sp, #24
 1694              		.cfi_def_cfa_offset 32
 1695 0004 00AF     		add	r7, sp, #0
 1696              		.cfi_def_cfa_register 7
 1697 0006 7860     		str	r0, [r7, #4]
 1698 0008 3960     		str	r1, [r7]
 561:Lib/Camera_Middleware/ISP_Library/isp/Src/isp_services.c ****   DCMIPP_DecimationConfTypeDef decimationCfg;
 562:Lib/Camera_Middleware/ISP_Library/isp/Src/isp_services.c ****   ISP_StatusTypeDef ret = ISP_OK;
 1699              		.loc 1 562 21
 1700 000a 0023     		movs	r3, #0
 1701 000c FB75     		strb	r3, [r7, #23]
 563:Lib/Camera_Middleware/ISP_Library/isp/Src/isp_services.c **** 
 564:Lib/Camera_Middleware/ISP_Library/isp/Src/isp_services.c ****   /* Check handles validity */
ARM GAS  /tmp/ccKI94Jd.s 			page 41


 565:Lib/Camera_Middleware/ISP_Library/isp/Src/isp_services.c ****   if ((hIsp == NULL) || (pConfig == NULL))
 1702              		.loc 1 565 6
 1703 000e 7B68     		ldr	r3, [r7, #4]
 1704 0010 002B     		cmp	r3, #0
 1705 0012 02D0     		beq	.L120
 1706              		.loc 1 565 22 discriminator 1
 1707 0014 3B68     		ldr	r3, [r7]
 1708 0016 002B     		cmp	r3, #0
 1709 0018 01D1     		bne	.L121
 1710              	.L120:
 566:Lib/Camera_Middleware/ISP_Library/isp/Src/isp_services.c ****   {
 567:Lib/Camera_Middleware/ISP_Library/isp/Src/isp_services.c ****     return ISP_ERR_DECIMATION_EINVAL;
 1711              		.loc 1 567 12
 1712 001a 1E23     		movs	r3, #30
 1713 001c 4BE0     		b	.L132
 1714              	.L121:
 568:Lib/Camera_Middleware/ISP_Library/isp/Src/isp_services.c ****   }
 569:Lib/Camera_Middleware/ISP_Library/isp/Src/isp_services.c **** 
 570:Lib/Camera_Middleware/ISP_Library/isp/Src/isp_services.c ****   switch (pConfig->factor)
 1715              		.loc 1 570 18
 1716 001e 3B68     		ldr	r3, [r7]
 1717 0020 1B78     		ldrb	r3, [r3]	@ zero_extendqisi2
 1718              		.loc 1 570 3
 1719 0022 013B     		subs	r3, r3, #1
 1720 0024 072B     		cmp	r3, #7
 1721 0026 27D8     		bhi	.L123
 1722 0028 01A2     		adr	r2, .L125
 1723 002a 52F823F0 		ldr	pc, [r2, r3, lsl #2]
 1724 002e 00BF     		.p2align 2
 1725              	.L125:
 1726 0030 51000000 		.word	.L128+1
 1727 0034 5B000000 		.word	.L127+1
 1728 0038 79000000 		.word	.L123+1
 1729 003c 65000000 		.word	.L126+1
 1730 0040 79000000 		.word	.L123+1
 1731 0044 79000000 		.word	.L123+1
 1732 0048 79000000 		.word	.L123+1
 1733 004c 6F000000 		.word	.L124+1
 1734              		.p2align 1
 1735              	.L128:
 571:Lib/Camera_Middleware/ISP_Library/isp/Src/isp_services.c ****   {
 572:Lib/Camera_Middleware/ISP_Library/isp/Src/isp_services.c ****   case ISP_DECIM_FACTOR_1:
 573:Lib/Camera_Middleware/ISP_Library/isp/Src/isp_services.c ****     decimationCfg.VRatio = DCMIPP_VDEC_ALL;
 1736              		.loc 1 573 26
 1737 0050 0023     		movs	r3, #0
 1738 0052 FB60     		str	r3, [r7, #12]
 574:Lib/Camera_Middleware/ISP_Library/isp/Src/isp_services.c ****     decimationCfg.HRatio = DCMIPP_HDEC_ALL;
 1739              		.loc 1 574 26
 1740 0054 0023     		movs	r3, #0
 1741 0056 3B61     		str	r3, [r7, #16]
 575:Lib/Camera_Middleware/ISP_Library/isp/Src/isp_services.c ****     break;
 1742              		.loc 1 575 5
 1743 0058 10E0     		b	.L129
 1744              	.L127:
 576:Lib/Camera_Middleware/ISP_Library/isp/Src/isp_services.c **** 
 577:Lib/Camera_Middleware/ISP_Library/isp/Src/isp_services.c ****   case ISP_DECIM_FACTOR_2:
 578:Lib/Camera_Middleware/ISP_Library/isp/Src/isp_services.c ****     decimationCfg.VRatio = DCMIPP_VDEC_1_OUT_2;
ARM GAS  /tmp/ccKI94Jd.s 			page 42


 1745              		.loc 1 578 26
 1746 005a 0823     		movs	r3, #8
 1747 005c FB60     		str	r3, [r7, #12]
 579:Lib/Camera_Middleware/ISP_Library/isp/Src/isp_services.c ****     decimationCfg.HRatio = DCMIPP_HDEC_1_OUT_2;
 1748              		.loc 1 579 26
 1749 005e 0223     		movs	r3, #2
 1750 0060 3B61     		str	r3, [r7, #16]
 580:Lib/Camera_Middleware/ISP_Library/isp/Src/isp_services.c ****     break;
 1751              		.loc 1 580 5
 1752 0062 0BE0     		b	.L129
 1753              	.L126:
 581:Lib/Camera_Middleware/ISP_Library/isp/Src/isp_services.c **** 
 582:Lib/Camera_Middleware/ISP_Library/isp/Src/isp_services.c ****   case ISP_DECIM_FACTOR_4:
 583:Lib/Camera_Middleware/ISP_Library/isp/Src/isp_services.c ****     decimationCfg.VRatio = DCMIPP_VDEC_1_OUT_4;
 1754              		.loc 1 583 26
 1755 0064 1023     		movs	r3, #16
 1756 0066 FB60     		str	r3, [r7, #12]
 584:Lib/Camera_Middleware/ISP_Library/isp/Src/isp_services.c ****     decimationCfg.HRatio = DCMIPP_HDEC_1_OUT_4;
 1757              		.loc 1 584 26
 1758 0068 0423     		movs	r3, #4
 1759 006a 3B61     		str	r3, [r7, #16]
 585:Lib/Camera_Middleware/ISP_Library/isp/Src/isp_services.c ****     break;
 1760              		.loc 1 585 5
 1761 006c 06E0     		b	.L129
 1762              	.L124:
 586:Lib/Camera_Middleware/ISP_Library/isp/Src/isp_services.c **** 
 587:Lib/Camera_Middleware/ISP_Library/isp/Src/isp_services.c ****   case ISP_DECIM_FACTOR_8:
 588:Lib/Camera_Middleware/ISP_Library/isp/Src/isp_services.c ****     decimationCfg.VRatio = DCMIPP_VDEC_1_OUT_8;
 1763              		.loc 1 588 26
 1764 006e 1823     		movs	r3, #24
 1765 0070 FB60     		str	r3, [r7, #12]
 589:Lib/Camera_Middleware/ISP_Library/isp/Src/isp_services.c ****     decimationCfg.HRatio = DCMIPP_HDEC_1_OUT_8;
 1766              		.loc 1 589 26
 1767 0072 0623     		movs	r3, #6
 1768 0074 3B61     		str	r3, [r7, #16]
 590:Lib/Camera_Middleware/ISP_Library/isp/Src/isp_services.c ****     break;
 1769              		.loc 1 590 5
 1770 0076 01E0     		b	.L129
 1771              	.L123:
 591:Lib/Camera_Middleware/ISP_Library/isp/Src/isp_services.c **** 
 592:Lib/Camera_Middleware/ISP_Library/isp/Src/isp_services.c ****   default:
 593:Lib/Camera_Middleware/ISP_Library/isp/Src/isp_services.c ****     return ISP_ERR_DECIMATION_EINVAL;
 1772              		.loc 1 593 12
 1773 0078 1E23     		movs	r3, #30
 1774 007a 1CE0     		b	.L132
 1775              	.L129:
 594:Lib/Camera_Middleware/ISP_Library/isp/Src/isp_services.c ****   }
 595:Lib/Camera_Middleware/ISP_Library/isp/Src/isp_services.c **** 
 596:Lib/Camera_Middleware/ISP_Library/isp/Src/isp_services.c ****   if (HAL_DCMIPP_PIPE_SetISPDecimationConfig(hIsp->hDcmipp, DCMIPP_PIPE1, &decimationCfg) != HAL_OK
 1776              		.loc 1 596 50
 1777 007c 7B68     		ldr	r3, [r7, #4]
 1778 007e 1B68     		ldr	r3, [r3]
 1779              		.loc 1 596 7
 1780 0080 07F10C02 		add	r2, r7, #12
 1781 0084 0121     		movs	r1, #1
 1782 0086 1846     		mov	r0, r3
 1783 0088 FFF7FEFF 		bl	HAL_DCMIPP_PIPE_SetISPDecimationConfig
ARM GAS  /tmp/ccKI94Jd.s 			page 43


 1784 008c 0346     		mov	r3, r0
 1785              		.loc 1 596 6 discriminator 1
 1786 008e 002B     		cmp	r3, #0
 1787 0090 01D0     		beq	.L130
 597:Lib/Camera_Middleware/ISP_Library/isp/Src/isp_services.c ****   {
 598:Lib/Camera_Middleware/ISP_Library/isp/Src/isp_services.c ****     return ISP_ERR_DECIMATION_HAL;
 1788              		.loc 1 598 12
 1789 0092 1F23     		movs	r3, #31
 1790 0094 0FE0     		b	.L132
 1791              	.L130:
 599:Lib/Camera_Middleware/ISP_Library/isp/Src/isp_services.c ****   }
 600:Lib/Camera_Middleware/ISP_Library/isp/Src/isp_services.c **** 
 601:Lib/Camera_Middleware/ISP_Library/isp/Src/isp_services.c ****   if (HAL_DCMIPP_PIPE_EnableISPDecimation(hIsp->hDcmipp, DCMIPP_PIPE1) != HAL_OK)
 1792              		.loc 1 601 47
 1793 0096 7B68     		ldr	r3, [r7, #4]
 1794 0098 1B68     		ldr	r3, [r3]
 1795              		.loc 1 601 7
 1796 009a 0121     		movs	r1, #1
 1797 009c 1846     		mov	r0, r3
 1798 009e FFF7FEFF 		bl	HAL_DCMIPP_PIPE_EnableISPDecimation
 1799 00a2 0346     		mov	r3, r0
 1800              		.loc 1 601 6 discriminator 1
 1801 00a4 002B     		cmp	r3, #0
 1802 00a6 01D0     		beq	.L131
 602:Lib/Camera_Middleware/ISP_Library/isp/Src/isp_services.c ****   {
 603:Lib/Camera_Middleware/ISP_Library/isp/Src/isp_services.c ****     return ISP_ERR_DECIMATION_HAL;
 1803              		.loc 1 603 12
 1804 00a8 1F23     		movs	r3, #31
 1805 00aa 04E0     		b	.L132
 1806              	.L131:
 604:Lib/Camera_Middleware/ISP_Library/isp/Src/isp_services.c ****   }
 605:Lib/Camera_Middleware/ISP_Library/isp/Src/isp_services.c **** 
 606:Lib/Camera_Middleware/ISP_Library/isp/Src/isp_services.c ****   /* Save decimation value */
 607:Lib/Camera_Middleware/ISP_Library/isp/Src/isp_services.c ****   ISP_DecimationValue.factor = pConfig->factor;
 1807              		.loc 1 607 39
 1808 00ac 3B68     		ldr	r3, [r7]
 1809 00ae 1A78     		ldrb	r2, [r3]	@ zero_extendqisi2
 1810              		.loc 1 607 30
 1811 00b0 034B     		ldr	r3, .L133
 1812 00b2 1A70     		strb	r2, [r3]
 608:Lib/Camera_Middleware/ISP_Library/isp/Src/isp_services.c **** 
 609:Lib/Camera_Middleware/ISP_Library/isp/Src/isp_services.c ****   return ret;
 1813              		.loc 1 609 10
 1814 00b4 FB7D     		ldrb	r3, [r7, #23]	@ zero_extendqisi2
 1815              	.L132:
 610:Lib/Camera_Middleware/ISP_Library/isp/Src/isp_services.c **** }
 1816              		.loc 1 610 1
 1817 00b6 1846     		mov	r0, r3
 1818 00b8 1837     		adds	r7, r7, #24
 1819              		.cfi_def_cfa_offset 8
 1820 00ba BD46     		mov	sp, r7
 1821              		.cfi_def_cfa_register 13
 1822              		@ sp needed
 1823 00bc 80BD     		pop	{r7, pc}
 1824              	.L134:
 1825 00be 00BF     		.align	2
 1826              	.L133:
ARM GAS  /tmp/ccKI94Jd.s 			page 44


 1827 00c0 00000000 		.word	ISP_DecimationValue
 1828              		.cfi_endproc
 1829              	.LFE852:
 1831              		.section	.text.ISP_SVC_ISP_GetDecimation,"ax",%progbits
 1832              		.align	1
 1833              		.global	ISP_SVC_ISP_GetDecimation
 1834              		.syntax unified
 1835              		.thumb
 1836              		.thumb_func
 1838              	ISP_SVC_ISP_GetDecimation:
 1839              	.LFB853:
 611:Lib/Camera_Middleware/ISP_Library/isp/Src/isp_services.c **** 
 612:Lib/Camera_Middleware/ISP_Library/isp/Src/isp_services.c **** /**
 613:Lib/Camera_Middleware/ISP_Library/isp/Src/isp_services.c ****   * @brief  ISP_SVC_ISP_GetDecimation
 614:Lib/Camera_Middleware/ISP_Library/isp/Src/isp_services.c ****   *         Get the ISP Decimation configuration
 615:Lib/Camera_Middleware/ISP_Library/isp/Src/isp_services.c ****   * @param  hIsp: ISP device handle
 616:Lib/Camera_Middleware/ISP_Library/isp/Src/isp_services.c ****   * @param  pConfig: Pointer to the decimation configuration
 617:Lib/Camera_Middleware/ISP_Library/isp/Src/isp_services.c ****   * @retval operation result
 618:Lib/Camera_Middleware/ISP_Library/isp/Src/isp_services.c ****   */
 619:Lib/Camera_Middleware/ISP_Library/isp/Src/isp_services.c **** ISP_StatusTypeDef ISP_SVC_ISP_GetDecimation(ISP_HandleTypeDef *hIsp, ISP_DecimationTypeDef *pConfig
 620:Lib/Camera_Middleware/ISP_Library/isp/Src/isp_services.c **** {
 1840              		.loc 1 620 1
 1841              		.cfi_startproc
 1842              		@ args = 0, pretend = 0, frame = 8
 1843              		@ frame_needed = 1, uses_anonymous_args = 0
 1844              		@ link register save eliminated.
 1845 0000 80B4     		push	{r7}
 1846              		.cfi_def_cfa_offset 4
 1847              		.cfi_offset 7, -4
 1848 0002 83B0     		sub	sp, sp, #12
 1849              		.cfi_def_cfa_offset 16
 1850 0004 00AF     		add	r7, sp, #0
 1851              		.cfi_def_cfa_register 7
 1852 0006 7860     		str	r0, [r7, #4]
 1853 0008 3960     		str	r1, [r7]
 621:Lib/Camera_Middleware/ISP_Library/isp/Src/isp_services.c ****   pConfig->factor = ISP_DecimationValue.factor;
 1854              		.loc 1 621 40
 1855 000a 054B     		ldr	r3, .L137
 1856 000c 1A78     		ldrb	r2, [r3]	@ zero_extendqisi2
 1857              		.loc 1 621 19
 1858 000e 3B68     		ldr	r3, [r7]
 1859 0010 1A70     		strb	r2, [r3]
 622:Lib/Camera_Middleware/ISP_Library/isp/Src/isp_services.c **** 
 623:Lib/Camera_Middleware/ISP_Library/isp/Src/isp_services.c ****   return ISP_OK;
 1860              		.loc 1 623 10
 1861 0012 0023     		movs	r3, #0
 624:Lib/Camera_Middleware/ISP_Library/isp/Src/isp_services.c **** }
 1862              		.loc 1 624 1
 1863 0014 1846     		mov	r0, r3
 1864 0016 0C37     		adds	r7, r7, #12
 1865              		.cfi_def_cfa_offset 4
 1866 0018 BD46     		mov	sp, r7
 1867              		.cfi_def_cfa_register 13
 1868              		@ sp needed
 1869 001a 5DF8047B 		ldr	r7, [sp], #4
 1870              		.cfi_restore 7
 1871              		.cfi_def_cfa_offset 0
ARM GAS  /tmp/ccKI94Jd.s 			page 45


 1872 001e 7047     		bx	lr
 1873              	.L138:
 1874              		.align	2
 1875              	.L137:
 1876 0020 00000000 		.word	ISP_DecimationValue
 1877              		.cfi_endproc
 1878              	.LFE853:
 1880              		.section	.text.ISP_SVC_ISP_SetContrast,"ax",%progbits
 1881              		.align	1
 1882              		.global	ISP_SVC_ISP_SetContrast
 1883              		.syntax unified
 1884              		.thumb
 1885              		.thumb_func
 1887              	ISP_SVC_ISP_SetContrast:
 1888              	.LFB854:
 625:Lib/Camera_Middleware/ISP_Library/isp/Src/isp_services.c **** 
 626:Lib/Camera_Middleware/ISP_Library/isp/Src/isp_services.c **** /**
 627:Lib/Camera_Middleware/ISP_Library/isp/Src/isp_services.c ****   * @brief  ISP_SVC_ISP_SetContrast
 628:Lib/Camera_Middleware/ISP_Library/isp/Src/isp_services.c ****   *         Set the ISP Contrast luminance coefficients
 629:Lib/Camera_Middleware/ISP_Library/isp/Src/isp_services.c ****   * @param  hIsp: ISP device handle
 630:Lib/Camera_Middleware/ISP_Library/isp/Src/isp_services.c ****   * @param  pConfig: Pointer to the contrast configuration
 631:Lib/Camera_Middleware/ISP_Library/isp/Src/isp_services.c ****   * @retval operation result
 632:Lib/Camera_Middleware/ISP_Library/isp/Src/isp_services.c ****   */
 633:Lib/Camera_Middleware/ISP_Library/isp/Src/isp_services.c **** ISP_StatusTypeDef ISP_SVC_ISP_SetContrast(ISP_HandleTypeDef *hIsp, ISP_ContrastTypeDef *pConfig)
 634:Lib/Camera_Middleware/ISP_Library/isp/Src/isp_services.c **** {
 1889              		.loc 1 634 1
 1890              		.cfi_startproc
 1891              		@ args = 0, pretend = 0, frame = 24
 1892              		@ frame_needed = 1, uses_anonymous_args = 0
 1893 0000 80B5     		push	{r7, lr}
 1894              		.cfi_def_cfa_offset 8
 1895              		.cfi_offset 7, -8
 1896              		.cfi_offset 14, -4
 1897 0002 86B0     		sub	sp, sp, #24
 1898              		.cfi_def_cfa_offset 32
 1899 0004 00AF     		add	r7, sp, #0
 1900              		.cfi_def_cfa_register 7
 1901 0006 7860     		str	r0, [r7, #4]
 1902 0008 3960     		str	r1, [r7]
 635:Lib/Camera_Middleware/ISP_Library/isp/Src/isp_services.c ****   HAL_StatusTypeDef halStatus;
 636:Lib/Camera_Middleware/ISP_Library/isp/Src/isp_services.c ****   DCMIPP_ContrastConfTypeDef contrast;
 637:Lib/Camera_Middleware/ISP_Library/isp/Src/isp_services.c **** 
 638:Lib/Camera_Middleware/ISP_Library/isp/Src/isp_services.c ****   if ((hIsp == NULL) || (pConfig == NULL) ||
 1903              		.loc 1 638 6
 1904 000a 7B68     		ldr	r3, [r7, #4]
 1905 000c 002B     		cmp	r3, #0
 1906 000e 2FD0     		beq	.L140
 1907              		.loc 1 638 22 discriminator 1
 1908 0010 3B68     		ldr	r3, [r7]
 1909 0012 002B     		cmp	r3, #0
 1910 0014 2CD0     		beq	.L140
 639:Lib/Camera_Middleware/ISP_Library/isp/Src/isp_services.c ****       (pConfig->coeff.LUM_0 > ISP_CONTAST_LUMCOEFF_MAX) ||  (pConfig->coeff.LUM_32 > ISP_CONTAST_LU
 1911              		.loc 1 639 22
 1912 0016 3B68     		ldr	r3, [r7]
 1913 0018 5B68     		ldr	r3, [r3, #4]
 638:Lib/Camera_Middleware/ISP_Library/isp/Src/isp_services.c ****       (pConfig->coeff.LUM_0 > ISP_CONTAST_LUMCOEFF_MAX) ||  (pConfig->coeff.LUM_32 > ISP_CONTAST_LU
 1914              		.loc 1 638 43 discriminator 2
ARM GAS  /tmp/ccKI94Jd.s 			page 46


 1915 001a B3F5C57F 		cmp	r3, #394
 1916 001e 27D8     		bhi	.L140
 1917              		.loc 1 639 76
 1918 0020 3B68     		ldr	r3, [r7]
 1919 0022 9B68     		ldr	r3, [r3, #8]
 1920              		.loc 1 639 57
 1921 0024 B3F5C57F 		cmp	r3, #394
 1922 0028 22D8     		bhi	.L140
 640:Lib/Camera_Middleware/ISP_Library/isp/Src/isp_services.c ****       (pConfig->coeff.LUM_64 > ISP_CONTAST_LUMCOEFF_MAX) || (pConfig->coeff.LUM_96 > ISP_CONTAST_LU
 1923              		.loc 1 640 22
 1924 002a 3B68     		ldr	r3, [r7]
 1925 002c DB68     		ldr	r3, [r3, #12]
 639:Lib/Camera_Middleware/ISP_Library/isp/Src/isp_services.c ****       (pConfig->coeff.LUM_0 > ISP_CONTAST_LUMCOEFF_MAX) ||  (pConfig->coeff.LUM_32 > ISP_CONTAST_LU
 1926              		.loc 1 639 112 discriminator 1
 1927 002e B3F5C57F 		cmp	r3, #394
 1928 0032 1DD8     		bhi	.L140
 1929              		.loc 1 640 76
 1930 0034 3B68     		ldr	r3, [r7]
 1931 0036 1B69     		ldr	r3, [r3, #16]
 1932              		.loc 1 640 58
 1933 0038 B3F5C57F 		cmp	r3, #394
 1934 003c 18D8     		bhi	.L140
 641:Lib/Camera_Middleware/ISP_Library/isp/Src/isp_services.c ****       (pConfig->coeff.LUM_128 > ISP_CONTAST_LUMCOEFF_MAX) || (pConfig->coeff.LUM_160 > ISP_CONTAST_
 1935              		.loc 1 641 22
 1936 003e 3B68     		ldr	r3, [r7]
 1937 0040 5B69     		ldr	r3, [r3, #20]
 640:Lib/Camera_Middleware/ISP_Library/isp/Src/isp_services.c ****       (pConfig->coeff.LUM_64 > ISP_CONTAST_LUMCOEFF_MAX) || (pConfig->coeff.LUM_96 > ISP_CONTAST_LU
 1938              		.loc 1 640 112 discriminator 1
 1939 0042 B3F5C57F 		cmp	r3, #394
 1940 0046 13D8     		bhi	.L140
 1941              		.loc 1 641 77
 1942 0048 3B68     		ldr	r3, [r7]
 1943 004a 9B69     		ldr	r3, [r3, #24]
 1944              		.loc 1 641 59
 1945 004c B3F5C57F 		cmp	r3, #394
 1946 0050 0ED8     		bhi	.L140
 642:Lib/Camera_Middleware/ISP_Library/isp/Src/isp_services.c ****       (pConfig->coeff.LUM_192 > ISP_CONTAST_LUMCOEFF_MAX) || (pConfig->coeff.LUM_224 > ISP_CONTAST_
 1947              		.loc 1 642 22
 1948 0052 3B68     		ldr	r3, [r7]
 1949 0054 DB69     		ldr	r3, [r3, #28]
 641:Lib/Camera_Middleware/ISP_Library/isp/Src/isp_services.c ****       (pConfig->coeff.LUM_128 > ISP_CONTAST_LUMCOEFF_MAX) || (pConfig->coeff.LUM_160 > ISP_CONTAST_
 1950              		.loc 1 641 114 discriminator 1
 1951 0056 B3F5C57F 		cmp	r3, #394
 1952 005a 09D8     		bhi	.L140
 1953              		.loc 1 642 77
 1954 005c 3B68     		ldr	r3, [r7]
 1955 005e 1B6A     		ldr	r3, [r3, #32]
 1956              		.loc 1 642 59
 1957 0060 B3F5C57F 		cmp	r3, #394
 1958 0064 04D8     		bhi	.L140
 643:Lib/Camera_Middleware/ISP_Library/isp/Src/isp_services.c ****       (pConfig->coeff.LUM_256 > ISP_CONTAST_LUMCOEFF_MAX))
 1959              		.loc 1 643 22
 1960 0066 3B68     		ldr	r3, [r7]
 1961 0068 5B6A     		ldr	r3, [r3, #36]
 642:Lib/Camera_Middleware/ISP_Library/isp/Src/isp_services.c ****       (pConfig->coeff.LUM_192 > ISP_CONTAST_LUMCOEFF_MAX) || (pConfig->coeff.LUM_224 > ISP_CONTAST_
 1962              		.loc 1 642 114 discriminator 1
 1963 006a B3F5C57F 		cmp	r3, #394
ARM GAS  /tmp/ccKI94Jd.s 			page 47


 1964 006e 01D9     		bls	.L141
 1965              	.L140:
 644:Lib/Camera_Middleware/ISP_Library/isp/Src/isp_services.c ****   {
 645:Lib/Camera_Middleware/ISP_Library/isp/Src/isp_services.c ****     return ISP_ERR_CONTRAST_EINVAL;
 1966              		.loc 1 645 12
 1967 0070 2823     		movs	r3, #40
 1968 0072 78E0     		b	.L146
 1969              	.L141:
 646:Lib/Camera_Middleware/ISP_Library/isp/Src/isp_services.c ****   }
 647:Lib/Camera_Middleware/ISP_Library/isp/Src/isp_services.c **** 
 648:Lib/Camera_Middleware/ISP_Library/isp/Src/isp_services.c ****   if (pConfig->enable == 0)
 1970              		.loc 1 648 14
 1971 0074 3B68     		ldr	r3, [r7]
 1972 0076 1B78     		ldrb	r3, [r3]	@ zero_extendqisi2
 1973              		.loc 1 648 6
 1974 0078 002B     		cmp	r3, #0
 1975 007a 08D1     		bne	.L143
 649:Lib/Camera_Middleware/ISP_Library/isp/Src/isp_services.c ****   {
 650:Lib/Camera_Middleware/ISP_Library/isp/Src/isp_services.c ****     halStatus = HAL_DCMIPP_PIPE_DisableISPCtrlContrast(hIsp->hDcmipp, DCMIPP_PIPE1);
 1976              		.loc 1 650 60
 1977 007c 7B68     		ldr	r3, [r7, #4]
 1978 007e 1B68     		ldr	r3, [r3]
 1979              		.loc 1 650 17
 1980 0080 0121     		movs	r1, #1
 1981 0082 1846     		mov	r0, r3
 1982 0084 FFF7FEFF 		bl	HAL_DCMIPP_PIPE_DisableISPCtrlContrast
 1983 0088 0346     		mov	r3, r0
 1984 008a FB75     		strb	r3, [r7, #23]
 1985 008c 65E0     		b	.L144
 1986              	.L143:
 651:Lib/Camera_Middleware/ISP_Library/isp/Src/isp_services.c ****   }
 652:Lib/Camera_Middleware/ISP_Library/isp/Src/isp_services.c ****   else
 653:Lib/Camera_Middleware/ISP_Library/isp/Src/isp_services.c ****   {
 654:Lib/Camera_Middleware/ISP_Library/isp/Src/isp_services.c ****     /* Concert coefficient unit from "percentage" to "6 bit" */
 655:Lib/Camera_Middleware/ISP_Library/isp/Src/isp_services.c ****     contrast.LUM_0 = (pConfig->coeff.LUM_0 * 16) / 100;
 1987              		.loc 1 655 37
 1988 008e 3B68     		ldr	r3, [r7]
 1989 0090 5B68     		ldr	r3, [r3, #4]
 1990              		.loc 1 655 44
 1991 0092 1B01     		lsls	r3, r3, #4
 1992              		.loc 1 655 50
 1993 0094 364A     		ldr	r2, .L147
 1994 0096 A2FB0323 		umull	r2, r3, r2, r3
 1995 009a 5B09     		lsrs	r3, r3, #5
 1996              		.loc 1 655 20
 1997 009c DBB2     		uxtb	r3, r3
 1998 009e 3B73     		strb	r3, [r7, #12]
 656:Lib/Camera_Middleware/ISP_Library/isp/Src/isp_services.c ****     contrast.LUM_32 = (pConfig->coeff.LUM_32 * 16) / 100;
 1999              		.loc 1 656 38
 2000 00a0 3B68     		ldr	r3, [r7]
 2001 00a2 9B68     		ldr	r3, [r3, #8]
 2002              		.loc 1 656 46
 2003 00a4 1B01     		lsls	r3, r3, #4
 2004              		.loc 1 656 52
 2005 00a6 324A     		ldr	r2, .L147
 2006 00a8 A2FB0323 		umull	r2, r3, r2, r3
 2007 00ac 5B09     		lsrs	r3, r3, #5
ARM GAS  /tmp/ccKI94Jd.s 			page 48


 2008              		.loc 1 656 21
 2009 00ae DBB2     		uxtb	r3, r3
 2010 00b0 7B73     		strb	r3, [r7, #13]
 657:Lib/Camera_Middleware/ISP_Library/isp/Src/isp_services.c ****     contrast.LUM_64 = (pConfig->coeff.LUM_64 * 16) / 100;
 2011              		.loc 1 657 38
 2012 00b2 3B68     		ldr	r3, [r7]
 2013 00b4 DB68     		ldr	r3, [r3, #12]
 2014              		.loc 1 657 46
 2015 00b6 1B01     		lsls	r3, r3, #4
 2016              		.loc 1 657 52
 2017 00b8 2D4A     		ldr	r2, .L147
 2018 00ba A2FB0323 		umull	r2, r3, r2, r3
 2019 00be 5B09     		lsrs	r3, r3, #5
 2020              		.loc 1 657 21
 2021 00c0 DBB2     		uxtb	r3, r3
 2022 00c2 BB73     		strb	r3, [r7, #14]
 658:Lib/Camera_Middleware/ISP_Library/isp/Src/isp_services.c ****     contrast.LUM_96 = (pConfig->coeff.LUM_96 * 16) / 100;
 2023              		.loc 1 658 38
 2024 00c4 3B68     		ldr	r3, [r7]
 2025 00c6 1B69     		ldr	r3, [r3, #16]
 2026              		.loc 1 658 46
 2027 00c8 1B01     		lsls	r3, r3, #4
 2028              		.loc 1 658 52
 2029 00ca 294A     		ldr	r2, .L147
 2030 00cc A2FB0323 		umull	r2, r3, r2, r3
 2031 00d0 5B09     		lsrs	r3, r3, #5
 2032              		.loc 1 658 21
 2033 00d2 DBB2     		uxtb	r3, r3
 2034 00d4 FB73     		strb	r3, [r7, #15]
 659:Lib/Camera_Middleware/ISP_Library/isp/Src/isp_services.c ****     contrast.LUM_128 = (pConfig->coeff.LUM_128 * 16) / 100;
 2035              		.loc 1 659 39
 2036 00d6 3B68     		ldr	r3, [r7]
 2037 00d8 5B69     		ldr	r3, [r3, #20]
 2038              		.loc 1 659 48
 2039 00da 1B01     		lsls	r3, r3, #4
 2040              		.loc 1 659 54
 2041 00dc 244A     		ldr	r2, .L147
 2042 00de A2FB0323 		umull	r2, r3, r2, r3
 2043 00e2 5B09     		lsrs	r3, r3, #5
 2044              		.loc 1 659 22
 2045 00e4 DBB2     		uxtb	r3, r3
 2046 00e6 3B74     		strb	r3, [r7, #16]
 660:Lib/Camera_Middleware/ISP_Library/isp/Src/isp_services.c ****     contrast.LUM_160 = (pConfig->coeff.LUM_160 * 16) / 100;
 2047              		.loc 1 660 39
 2048 00e8 3B68     		ldr	r3, [r7]
 2049 00ea 9B69     		ldr	r3, [r3, #24]
 2050              		.loc 1 660 48
 2051 00ec 1B01     		lsls	r3, r3, #4
 2052              		.loc 1 660 54
 2053 00ee 204A     		ldr	r2, .L147
 2054 00f0 A2FB0323 		umull	r2, r3, r2, r3
 2055 00f4 5B09     		lsrs	r3, r3, #5
 2056              		.loc 1 660 22
 2057 00f6 DBB2     		uxtb	r3, r3
 2058 00f8 7B74     		strb	r3, [r7, #17]
 661:Lib/Camera_Middleware/ISP_Library/isp/Src/isp_services.c ****     contrast.LUM_192 = (pConfig->coeff.LUM_192 * 16) / 100;
 2059              		.loc 1 661 39
ARM GAS  /tmp/ccKI94Jd.s 			page 49


 2060 00fa 3B68     		ldr	r3, [r7]
 2061 00fc DB69     		ldr	r3, [r3, #28]
 2062              		.loc 1 661 48
 2063 00fe 1B01     		lsls	r3, r3, #4
 2064              		.loc 1 661 54
 2065 0100 1B4A     		ldr	r2, .L147
 2066 0102 A2FB0323 		umull	r2, r3, r2, r3
 2067 0106 5B09     		lsrs	r3, r3, #5
 2068              		.loc 1 661 22
 2069 0108 DBB2     		uxtb	r3, r3
 2070 010a BB74     		strb	r3, [r7, #18]
 662:Lib/Camera_Middleware/ISP_Library/isp/Src/isp_services.c ****     contrast.LUM_224 = (pConfig->coeff.LUM_224 * 16) / 100;
 2071              		.loc 1 662 39
 2072 010c 3B68     		ldr	r3, [r7]
 2073 010e 1B6A     		ldr	r3, [r3, #32]
 2074              		.loc 1 662 48
 2075 0110 1B01     		lsls	r3, r3, #4
 2076              		.loc 1 662 54
 2077 0112 174A     		ldr	r2, .L147
 2078 0114 A2FB0323 		umull	r2, r3, r2, r3
 2079 0118 5B09     		lsrs	r3, r3, #5
 2080              		.loc 1 662 22
 2081 011a DBB2     		uxtb	r3, r3
 2082 011c FB74     		strb	r3, [r7, #19]
 663:Lib/Camera_Middleware/ISP_Library/isp/Src/isp_services.c ****     contrast.LUM_256 = (pConfig->coeff.LUM_256 * 16) / 100;
 2083              		.loc 1 663 39
 2084 011e 3B68     		ldr	r3, [r7]
 2085 0120 5B6A     		ldr	r3, [r3, #36]
 2086              		.loc 1 663 48
 2087 0122 1B01     		lsls	r3, r3, #4
 2088              		.loc 1 663 54
 2089 0124 124A     		ldr	r2, .L147
 2090 0126 A2FB0323 		umull	r2, r3, r2, r3
 2091 012a 5B09     		lsrs	r3, r3, #5
 2092              		.loc 1 663 22
 2093 012c DBB2     		uxtb	r3, r3
 2094 012e 3B75     		strb	r3, [r7, #20]
 664:Lib/Camera_Middleware/ISP_Library/isp/Src/isp_services.c ****     halStatus = HAL_DCMIPP_PIPE_SetISPCtrlContrastConfig(hIsp->hDcmipp, DCMIPP_PIPE1, &contrast);
 2095              		.loc 1 664 62
 2096 0130 7B68     		ldr	r3, [r7, #4]
 2097 0132 1B68     		ldr	r3, [r3]
 2098              		.loc 1 664 17
 2099 0134 07F10C02 		add	r2, r7, #12
 2100 0138 0121     		movs	r1, #1
 2101 013a 1846     		mov	r0, r3
 2102 013c FFF7FEFF 		bl	HAL_DCMIPP_PIPE_SetISPCtrlContrastConfig
 2103 0140 0346     		mov	r3, r0
 2104 0142 FB75     		strb	r3, [r7, #23]
 665:Lib/Camera_Middleware/ISP_Library/isp/Src/isp_services.c **** 
 666:Lib/Camera_Middleware/ISP_Library/isp/Src/isp_services.c ****     if (halStatus == HAL_OK)
 2105              		.loc 1 666 8
 2106 0144 FB7D     		ldrb	r3, [r7, #23]	@ zero_extendqisi2
 2107 0146 002B     		cmp	r3, #0
 2108 0148 07D1     		bne	.L144
 667:Lib/Camera_Middleware/ISP_Library/isp/Src/isp_services.c ****     {
 668:Lib/Camera_Middleware/ISP_Library/isp/Src/isp_services.c ****       halStatus = HAL_DCMIPP_PIPE_EnableISPCtrlContrast(hIsp->hDcmipp, DCMIPP_PIPE1);
 2109              		.loc 1 668 61
ARM GAS  /tmp/ccKI94Jd.s 			page 50


 2110 014a 7B68     		ldr	r3, [r7, #4]
 2111 014c 1B68     		ldr	r3, [r3]
 2112              		.loc 1 668 19
 2113 014e 0121     		movs	r1, #1
 2114 0150 1846     		mov	r0, r3
 2115 0152 FFF7FEFF 		bl	HAL_DCMIPP_PIPE_EnableISPCtrlContrast
 2116 0156 0346     		mov	r3, r0
 2117 0158 FB75     		strb	r3, [r7, #23]
 2118              	.L144:
 669:Lib/Camera_Middleware/ISP_Library/isp/Src/isp_services.c ****     }
 670:Lib/Camera_Middleware/ISP_Library/isp/Src/isp_services.c ****   }
 671:Lib/Camera_Middleware/ISP_Library/isp/Src/isp_services.c **** 
 672:Lib/Camera_Middleware/ISP_Library/isp/Src/isp_services.c ****   if (halStatus != HAL_OK)
 2119              		.loc 1 672 6
 2120 015a FB7D     		ldrb	r3, [r7, #23]	@ zero_extendqisi2
 2121 015c 002B     		cmp	r3, #0
 2122 015e 01D0     		beq	.L145
 673:Lib/Camera_Middleware/ISP_Library/isp/Src/isp_services.c ****   {
 674:Lib/Camera_Middleware/ISP_Library/isp/Src/isp_services.c ****     return ISP_ERR_CONTRAST_HAL;
 2123              		.loc 1 674 12
 2124 0160 2923     		movs	r3, #41
 2125 0162 00E0     		b	.L146
 2126              	.L145:
 675:Lib/Camera_Middleware/ISP_Library/isp/Src/isp_services.c ****   }
 676:Lib/Camera_Middleware/ISP_Library/isp/Src/isp_services.c **** 
 677:Lib/Camera_Middleware/ISP_Library/isp/Src/isp_services.c ****   return ISP_OK;
 2127              		.loc 1 677 10
 2128 0164 0023     		movs	r3, #0
 2129              	.L146:
 678:Lib/Camera_Middleware/ISP_Library/isp/Src/isp_services.c **** }
 2130              		.loc 1 678 1
 2131 0166 1846     		mov	r0, r3
 2132 0168 1837     		adds	r7, r7, #24
 2133              		.cfi_def_cfa_offset 8
 2134 016a BD46     		mov	sp, r7
 2135              		.cfi_def_cfa_register 13
 2136              		@ sp needed
 2137 016c 80BD     		pop	{r7, pc}
 2138              	.L148:
 2139 016e 00BF     		.align	2
 2140              	.L147:
 2141 0170 1F85EB51 		.word	1374389535
 2142              		.cfi_endproc
 2143              	.LFE854:
 2145              		.section	.text.ISP_SVC_ISP_SetStatArea,"ax",%progbits
 2146              		.align	1
 2147              		.global	ISP_SVC_ISP_SetStatArea
 2148              		.syntax unified
 2149              		.thumb
 2150              		.thumb_func
 2152              	ISP_SVC_ISP_SetStatArea:
 2153              	.LFB855:
 679:Lib/Camera_Middleware/ISP_Library/isp/Src/isp_services.c **** 
 680:Lib/Camera_Middleware/ISP_Library/isp/Src/isp_services.c **** /**
 681:Lib/Camera_Middleware/ISP_Library/isp/Src/isp_services.c ****   * @brief  ISP_SVC_ISP_SetStatArea
 682:Lib/Camera_Middleware/ISP_Library/isp/Src/isp_services.c ****   *         Set the ISP Statistic area
 683:Lib/Camera_Middleware/ISP_Library/isp/Src/isp_services.c ****   * @param  hIsp: ISP device handle
ARM GAS  /tmp/ccKI94Jd.s 			page 51


 684:Lib/Camera_Middleware/ISP_Library/isp/Src/isp_services.c ****   * @param  pConfig: Pointer to statistic area used by the IQ algorithms
 685:Lib/Camera_Middleware/ISP_Library/isp/Src/isp_services.c ****   * @retval operation result
 686:Lib/Camera_Middleware/ISP_Library/isp/Src/isp_services.c ****   */
 687:Lib/Camera_Middleware/ISP_Library/isp/Src/isp_services.c **** ISP_StatusTypeDef ISP_SVC_ISP_SetStatArea(ISP_HandleTypeDef *hIsp, ISP_StatAreaTypeDef *pConfig)
 688:Lib/Camera_Middleware/ISP_Library/isp/Src/isp_services.c **** {
 2154              		.loc 1 688 1
 2155              		.cfi_startproc
 2156              		@ args = 0, pretend = 0, frame = 32
 2157              		@ frame_needed = 1, uses_anonymous_args = 0
 2158 0000 90B5     		push	{r4, r7, lr}
 2159              		.cfi_def_cfa_offset 12
 2160              		.cfi_offset 4, -12
 2161              		.cfi_offset 7, -8
 2162              		.cfi_offset 14, -4
 2163 0002 89B0     		sub	sp, sp, #36
 2164              		.cfi_def_cfa_offset 48
 2165 0004 00AF     		add	r7, sp, #0
 2166              		.cfi_def_cfa_register 7
 2167 0006 7860     		str	r0, [r7, #4]
 2168 0008 3960     		str	r1, [r7]
 689:Lib/Camera_Middleware/ISP_Library/isp/Src/isp_services.c ****   HAL_StatusTypeDef halStatus;
 690:Lib/Camera_Middleware/ISP_Library/isp/Src/isp_services.c ****   DCMIPP_StatisticExtractionAreaConfTypeDef currentStatAreaCfg;
 691:Lib/Camera_Middleware/ISP_Library/isp/Src/isp_services.c ****   ISP_StatusTypeDef ret = ISP_OK;
 2169              		.loc 1 691 21
 2170 000a 0023     		movs	r3, #0
 2171 000c FB77     		strb	r3, [r7, #31]
 692:Lib/Camera_Middleware/ISP_Library/isp/Src/isp_services.c **** 
 693:Lib/Camera_Middleware/ISP_Library/isp/Src/isp_services.c ****   if ((hIsp == NULL) || (pConfig == NULL) ||
 2172              		.loc 1 693 6
 2173 000e 7B68     		ldr	r3, [r7, #4]
 2174 0010 002B     		cmp	r3, #0
 2175 0012 34D0     		beq	.L150
 2176              		.loc 1 693 22 discriminator 1
 2177 0014 3B68     		ldr	r3, [r7]
 2178 0016 002B     		cmp	r3, #0
 2179 0018 31D0     		beq	.L150
 694:Lib/Camera_Middleware/ISP_Library/isp/Src/isp_services.c ****       (pConfig->X0 > ISP_STATWINDOW_MAX) ||
 2180              		.loc 1 694 15
 2181 001a 3B68     		ldr	r3, [r7]
 2182 001c 1B68     		ldr	r3, [r3]
 693:Lib/Camera_Middleware/ISP_Library/isp/Src/isp_services.c ****       (pConfig->X0 > ISP_STATWINDOW_MAX) ||
 2183              		.loc 1 693 43 discriminator 2
 2184 001e 40F6FE72 		movw	r2, #4094
 2185 0022 9342     		cmp	r3, r2
 2186 0024 2BD8     		bhi	.L150
 695:Lib/Camera_Middleware/ISP_Library/isp/Src/isp_services.c ****       (pConfig->Y0 > ISP_STATWINDOW_MAX) ||
 2187              		.loc 1 695 15
 2188 0026 3B68     		ldr	r3, [r7]
 2189 0028 5B68     		ldr	r3, [r3, #4]
 694:Lib/Camera_Middleware/ISP_Library/isp/Src/isp_services.c ****       (pConfig->X0 > ISP_STATWINDOW_MAX) ||
 2190              		.loc 1 694 42
 2191 002a 40F6FE72 		movw	r2, #4094
 2192 002e 9342     		cmp	r3, r2
 2193 0030 25D8     		bhi	.L150
 696:Lib/Camera_Middleware/ISP_Library/isp/Src/isp_services.c ****       (pConfig->XSize > ISP_STATWINDOW_MAX) ||
 2194              		.loc 1 696 15
 2195 0032 3B68     		ldr	r3, [r7]
ARM GAS  /tmp/ccKI94Jd.s 			page 52


 2196 0034 9B68     		ldr	r3, [r3, #8]
 695:Lib/Camera_Middleware/ISP_Library/isp/Src/isp_services.c ****       (pConfig->Y0 > ISP_STATWINDOW_MAX) ||
 2197              		.loc 1 695 42
 2198 0036 40F6FE72 		movw	r2, #4094
 2199 003a 9342     		cmp	r3, r2
 2200 003c 1FD8     		bhi	.L150
 697:Lib/Camera_Middleware/ISP_Library/isp/Src/isp_services.c ****       (pConfig->YSize > ISP_STATWINDOW_MAX) ||
 2201              		.loc 1 697 15
 2202 003e 3B68     		ldr	r3, [r7]
 2203 0040 DB68     		ldr	r3, [r3, #12]
 696:Lib/Camera_Middleware/ISP_Library/isp/Src/isp_services.c ****       (pConfig->XSize > ISP_STATWINDOW_MAX) ||
 2204              		.loc 1 696 45
 2205 0042 40F6FE72 		movw	r2, #4094
 2206 0046 9342     		cmp	r3, r2
 2207 0048 19D8     		bhi	.L150
 698:Lib/Camera_Middleware/ISP_Library/isp/Src/isp_services.c ****       (pConfig->XSize < ISP_STATWINDOW_MIN) ||
 2208              		.loc 1 698 15
 2209 004a 3B68     		ldr	r3, [r7]
 2210 004c 9B68     		ldr	r3, [r3, #8]
 697:Lib/Camera_Middleware/ISP_Library/isp/Src/isp_services.c ****       (pConfig->YSize > ISP_STATWINDOW_MAX) ||
 2211              		.loc 1 697 45
 2212 004e 032B     		cmp	r3, #3
 2213 0050 15D9     		bls	.L150
 699:Lib/Camera_Middleware/ISP_Library/isp/Src/isp_services.c ****       (pConfig->YSize < ISP_STATWINDOW_MIN) ||
 2214              		.loc 1 699 15
 2215 0052 3B68     		ldr	r3, [r7]
 2216 0054 DB68     		ldr	r3, [r3, #12]
 698:Lib/Camera_Middleware/ISP_Library/isp/Src/isp_services.c ****       (pConfig->XSize < ISP_STATWINDOW_MIN) ||
 2217              		.loc 1 698 45
 2218 0056 032B     		cmp	r3, #3
 2219 0058 11D9     		bls	.L150
 700:Lib/Camera_Middleware/ISP_Library/isp/Src/isp_services.c ****       (pConfig->X0 + pConfig->XSize > hIsp->sensorInfo.width) ||
 2220              		.loc 1 700 15
 2221 005a 3B68     		ldr	r3, [r7]
 2222 005c 1A68     		ldr	r2, [r3]
 2223              		.loc 1 700 29
 2224 005e 3B68     		ldr	r3, [r7]
 2225 0060 9B68     		ldr	r3, [r3, #8]
 2226              		.loc 1 700 20
 2227 0062 1A44     		add	r2, r2, r3
 2228              		.loc 1 700 55
 2229 0064 7B68     		ldr	r3, [r7, #4]
 2230 0066 1B6F     		ldr	r3, [r3, #112]
 699:Lib/Camera_Middleware/ISP_Library/isp/Src/isp_services.c ****       (pConfig->YSize < ISP_STATWINDOW_MIN) ||
 2231              		.loc 1 699 45
 2232 0068 9A42     		cmp	r2, r3
 2233 006a 08D8     		bhi	.L150
 701:Lib/Camera_Middleware/ISP_Library/isp/Src/isp_services.c ****       (pConfig->Y0 + pConfig->YSize > hIsp->sensorInfo.height))
 2234              		.loc 1 701 15
 2235 006c 3B68     		ldr	r3, [r7]
 2236 006e 5A68     		ldr	r2, [r3, #4]
 2237              		.loc 1 701 29
 2238 0070 3B68     		ldr	r3, [r7]
 2239 0072 DB68     		ldr	r3, [r3, #12]
 2240              		.loc 1 701 20
 2241 0074 1A44     		add	r2, r2, r3
 2242              		.loc 1 701 55
ARM GAS  /tmp/ccKI94Jd.s 			page 53


 2243 0076 7B68     		ldr	r3, [r7, #4]
 2244 0078 5B6F     		ldr	r3, [r3, #116]
 700:Lib/Camera_Middleware/ISP_Library/isp/Src/isp_services.c ****       (pConfig->X0 + pConfig->XSize > hIsp->sensorInfo.width) ||
 2245              		.loc 1 700 63
 2246 007a 9A42     		cmp	r2, r3
 2247 007c 01D9     		bls	.L151
 2248              	.L150:
 702:Lib/Camera_Middleware/ISP_Library/isp/Src/isp_services.c ****   {
 703:Lib/Camera_Middleware/ISP_Library/isp/Src/isp_services.c ****     return ISP_ERR_STATAREA_EINVAL;
 2249              		.loc 1 703 12
 2250 007e 3223     		movs	r3, #50
 2251 0080 3EE0     		b	.L155
 2252              	.L151:
 704:Lib/Camera_Middleware/ISP_Library/isp/Src/isp_services.c ****   }
 705:Lib/Camera_Middleware/ISP_Library/isp/Src/isp_services.c **** 
 706:Lib/Camera_Middleware/ISP_Library/isp/Src/isp_services.c ****   /* Set coordinates in the 'decimated' referential */
 707:Lib/Camera_Middleware/ISP_Library/isp/Src/isp_services.c ****   currentStatAreaCfg.HStart = pConfig->X0 / ISP_DecimationValue.factor;
 2253              		.loc 1 707 38
 2254 0082 3B68     		ldr	r3, [r7]
 2255 0084 1B68     		ldr	r3, [r3]
 2256              		.loc 1 707 64
 2257 0086 204A     		ldr	r2, .L156
 2258 0088 1278     		ldrb	r2, [r2]	@ zero_extendqisi2
 2259              		.loc 1 707 43
 2260 008a B3FBF2F3 		udiv	r3, r3, r2
 2261              		.loc 1 707 29
 2262 008e 3B61     		str	r3, [r7, #16]
 708:Lib/Camera_Middleware/ISP_Library/isp/Src/isp_services.c ****   currentStatAreaCfg.VStart = pConfig->Y0 / ISP_DecimationValue.factor;
 2263              		.loc 1 708 38
 2264 0090 3B68     		ldr	r3, [r7]
 2265 0092 5B68     		ldr	r3, [r3, #4]
 2266              		.loc 1 708 64
 2267 0094 1C4A     		ldr	r2, .L156
 2268 0096 1278     		ldrb	r2, [r2]	@ zero_extendqisi2
 2269              		.loc 1 708 43
 2270 0098 B3FBF2F3 		udiv	r3, r3, r2
 2271              		.loc 1 708 29
 2272 009c FB60     		str	r3, [r7, #12]
 709:Lib/Camera_Middleware/ISP_Library/isp/Src/isp_services.c ****   currentStatAreaCfg.HSize = pConfig->XSize / ISP_DecimationValue.factor;
 2273              		.loc 1 709 37
 2274 009e 3B68     		ldr	r3, [r7]
 2275 00a0 9B68     		ldr	r3, [r3, #8]
 2276              		.loc 1 709 66
 2277 00a2 194A     		ldr	r2, .L156
 2278 00a4 1278     		ldrb	r2, [r2]	@ zero_extendqisi2
 2279              		.loc 1 709 45
 2280 00a6 B3FBF2F3 		udiv	r3, r3, r2
 2281              		.loc 1 709 28
 2282 00aa BB61     		str	r3, [r7, #24]
 710:Lib/Camera_Middleware/ISP_Library/isp/Src/isp_services.c ****   currentStatAreaCfg.VSize = pConfig->YSize / ISP_DecimationValue.factor;
 2283              		.loc 1 710 37
 2284 00ac 3B68     		ldr	r3, [r7]
 2285 00ae DB68     		ldr	r3, [r3, #12]
 2286              		.loc 1 710 66
 2287 00b0 154A     		ldr	r2, .L156
 2288 00b2 1278     		ldrb	r2, [r2]	@ zero_extendqisi2
 2289              		.loc 1 710 45
ARM GAS  /tmp/ccKI94Jd.s 			page 54


 2290 00b4 B3FBF2F3 		udiv	r3, r3, r2
 2291              		.loc 1 710 28
 2292 00b8 7B61     		str	r3, [r7, #20]
 711:Lib/Camera_Middleware/ISP_Library/isp/Src/isp_services.c **** 
 712:Lib/Camera_Middleware/ISP_Library/isp/Src/isp_services.c ****   if (HAL_DCMIPP_PIPE_SetISPAreaStatisticExtractionConfig(hIsp->hDcmipp, DCMIPP_PIPE1,
 2293              		.loc 1 712 63
 2294 00ba 7B68     		ldr	r3, [r7, #4]
 2295 00bc 1B68     		ldr	r3, [r3]
 2296              		.loc 1 712 7
 2297 00be 07F10C02 		add	r2, r7, #12
 2298 00c2 0121     		movs	r1, #1
 2299 00c4 1846     		mov	r0, r3
 2300 00c6 FFF7FEFF 		bl	HAL_DCMIPP_PIPE_SetISPAreaStatisticExtractionConfig
 2301 00ca 0346     		mov	r3, r0
 2302              		.loc 1 712 6 discriminator 1
 2303 00cc 002B     		cmp	r3, #0
 2304 00ce 01D0     		beq	.L153
 713:Lib/Camera_Middleware/ISP_Library/isp/Src/isp_services.c ****                                                           &currentStatAreaCfg) != HAL_OK)
 714:Lib/Camera_Middleware/ISP_Library/isp/Src/isp_services.c ****   {
 715:Lib/Camera_Middleware/ISP_Library/isp/Src/isp_services.c ****     return ISP_ERR_STATAREA_HAL;
 2305              		.loc 1 715 12
 2306 00d0 3323     		movs	r3, #51
 2307 00d2 15E0     		b	.L155
 2308              	.L153:
 716:Lib/Camera_Middleware/ISP_Library/isp/Src/isp_services.c ****   }
 717:Lib/Camera_Middleware/ISP_Library/isp/Src/isp_services.c ****   else
 718:Lib/Camera_Middleware/ISP_Library/isp/Src/isp_services.c ****   {
 719:Lib/Camera_Middleware/ISP_Library/isp/Src/isp_services.c ****     halStatus = HAL_DCMIPP_PIPE_EnableISPAreaStatisticExtraction(hIsp->hDcmipp, DCMIPP_PIPE1);
 2309              		.loc 1 719 70
 2310 00d4 7B68     		ldr	r3, [r7, #4]
 2311 00d6 1B68     		ldr	r3, [r3]
 2312              		.loc 1 719 17
 2313 00d8 0121     		movs	r1, #1
 2314 00da 1846     		mov	r0, r3
 2315 00dc FFF7FEFF 		bl	HAL_DCMIPP_PIPE_EnableISPAreaStatisticExtraction
 2316 00e0 0346     		mov	r3, r0
 2317 00e2 BB77     		strb	r3, [r7, #30]
 720:Lib/Camera_Middleware/ISP_Library/isp/Src/isp_services.c ****   }
 721:Lib/Camera_Middleware/ISP_Library/isp/Src/isp_services.c **** 
 722:Lib/Camera_Middleware/ISP_Library/isp/Src/isp_services.c ****   if (halStatus != HAL_OK)
 2318              		.loc 1 722 6
 2319 00e4 BB7F     		ldrb	r3, [r7, #30]	@ zero_extendqisi2
 2320 00e6 002B     		cmp	r3, #0
 2321 00e8 01D0     		beq	.L154
 723:Lib/Camera_Middleware/ISP_Library/isp/Src/isp_services.c ****   {
 724:Lib/Camera_Middleware/ISP_Library/isp/Src/isp_services.c ****     return ISP_ERR_STATAREA_HAL;
 2322              		.loc 1 724 12
 2323 00ea 3323     		movs	r3, #51
 2324 00ec 08E0     		b	.L155
 2325              	.L154:
 725:Lib/Camera_Middleware/ISP_Library/isp/Src/isp_services.c ****   }
 726:Lib/Camera_Middleware/ISP_Library/isp/Src/isp_services.c **** 
 727:Lib/Camera_Middleware/ISP_Library/isp/Src/isp_services.c ****   /* Update internal state */
 728:Lib/Camera_Middleware/ISP_Library/isp/Src/isp_services.c ****   hIsp->statArea = *pConfig;
 2326              		.loc 1 728 18
 2327 00ee 7B68     		ldr	r3, [r7, #4]
 2328 00f0 3A68     		ldr	r2, [r7]
ARM GAS  /tmp/ccKI94Jd.s 			page 55


 2329 00f2 03F10804 		add	r4, r3, #8
 2330 00f6 1346     		mov	r3, r2
 2331 00f8 0FCB     		ldm	r3, {r0, r1, r2, r3}
 2332 00fa 84E80F00 		stm	r4, {r0, r1, r2, r3}
 729:Lib/Camera_Middleware/ISP_Library/isp/Src/isp_services.c **** 
 730:Lib/Camera_Middleware/ISP_Library/isp/Src/isp_services.c ****   return ret;
 2333              		.loc 1 730 10
 2334 00fe FB7F     		ldrb	r3, [r7, #31]	@ zero_extendqisi2
 2335              	.L155:
 731:Lib/Camera_Middleware/ISP_Library/isp/Src/isp_services.c **** }
 2336              		.loc 1 731 1
 2337 0100 1846     		mov	r0, r3
 2338 0102 2437     		adds	r7, r7, #36
 2339              		.cfi_def_cfa_offset 12
 2340 0104 BD46     		mov	sp, r7
 2341              		.cfi_def_cfa_register 13
 2342              		@ sp needed
 2343 0106 90BD     		pop	{r4, r7, pc}
 2344              	.L157:
 2345              		.align	2
 2346              	.L156:
 2347 0108 00000000 		.word	ISP_DecimationValue
 2348              		.cfi_endproc
 2349              	.LFE855:
 2351              		.section	.text.ISP_SVC_ISP_GetStatArea,"ax",%progbits
 2352              		.align	1
 2353              		.global	ISP_SVC_ISP_GetStatArea
 2354              		.syntax unified
 2355              		.thumb
 2356              		.thumb_func
 2358              	ISP_SVC_ISP_GetStatArea:
 2359              	.LFB856:
 732:Lib/Camera_Middleware/ISP_Library/isp/Src/isp_services.c **** 
 733:Lib/Camera_Middleware/ISP_Library/isp/Src/isp_services.c **** /**
 734:Lib/Camera_Middleware/ISP_Library/isp/Src/isp_services.c ****   * @brief  ISP_SVC_ISP_GetStatArea
 735:Lib/Camera_Middleware/ISP_Library/isp/Src/isp_services.c ****   *         Get the ISP Statistic area
 736:Lib/Camera_Middleware/ISP_Library/isp/Src/isp_services.c ****   * @param  hIsp: ISP device handle
 737:Lib/Camera_Middleware/ISP_Library/isp/Src/isp_services.c ****   * @param  pConfig: Pointer to statistic area used by the IQ algorithms
 738:Lib/Camera_Middleware/ISP_Library/isp/Src/isp_services.c ****   * @retval operation result
 739:Lib/Camera_Middleware/ISP_Library/isp/Src/isp_services.c ****   */
 740:Lib/Camera_Middleware/ISP_Library/isp/Src/isp_services.c **** ISP_StatusTypeDef ISP_SVC_ISP_GetStatArea(ISP_HandleTypeDef *hIsp, ISP_StatAreaTypeDef *pConfig)
 741:Lib/Camera_Middleware/ISP_Library/isp/Src/isp_services.c **** {
 2360              		.loc 1 741 1
 2361              		.cfi_startproc
 2362              		@ args = 0, pretend = 0, frame = 24
 2363              		@ frame_needed = 1, uses_anonymous_args = 0
 2364 0000 80B5     		push	{r7, lr}
 2365              		.cfi_def_cfa_offset 8
 2366              		.cfi_offset 7, -8
 2367              		.cfi_offset 14, -4
 2368 0002 86B0     		sub	sp, sp, #24
 2369              		.cfi_def_cfa_offset 32
 2370 0004 00AF     		add	r7, sp, #0
 2371              		.cfi_def_cfa_register 7
 2372 0006 7860     		str	r0, [r7, #4]
 2373 0008 3960     		str	r1, [r7]
 742:Lib/Camera_Middleware/ISP_Library/isp/Src/isp_services.c ****   DCMIPP_StatisticExtractionAreaConfTypeDef currentStatAreaCfg;
ARM GAS  /tmp/ccKI94Jd.s 			page 56


 743:Lib/Camera_Middleware/ISP_Library/isp/Src/isp_services.c **** 
 744:Lib/Camera_Middleware/ISP_Library/isp/Src/isp_services.c ****   /* Check handles validity */
 745:Lib/Camera_Middleware/ISP_Library/isp/Src/isp_services.c ****   if ((hIsp == NULL) || (pConfig == NULL))
 2374              		.loc 1 745 6
 2375 000a 7B68     		ldr	r3, [r7, #4]
 2376 000c 002B     		cmp	r3, #0
 2377 000e 02D0     		beq	.L159
 2378              		.loc 1 745 22 discriminator 1
 2379 0010 3B68     		ldr	r3, [r7]
 2380 0012 002B     		cmp	r3, #0
 2381 0014 01D1     		bne	.L160
 2382              	.L159:
 746:Lib/Camera_Middleware/ISP_Library/isp/Src/isp_services.c ****   {
 747:Lib/Camera_Middleware/ISP_Library/isp/Src/isp_services.c ****     return ISP_ERR_STATAREA_EINVAL;
 2383              		.loc 1 747 12
 2384 0016 3223     		movs	r3, #50
 2385 0018 3AE0     		b	.L164
 2386              	.L160:
 748:Lib/Camera_Middleware/ISP_Library/isp/Src/isp_services.c ****   }
 749:Lib/Camera_Middleware/ISP_Library/isp/Src/isp_services.c **** 
 750:Lib/Camera_Middleware/ISP_Library/isp/Src/isp_services.c ****   if (HAL_DCMIPP_PIPE_IsEnabledISPAreaStatisticExtraction(hIsp->hDcmipp, DCMIPP_PIPE1) == 0)
 2387              		.loc 1 750 63
 2388 001a 7B68     		ldr	r3, [r7, #4]
 2389 001c 1B68     		ldr	r3, [r3]
 2390              		.loc 1 750 7
 2391 001e 0121     		movs	r1, #1
 2392 0020 1846     		mov	r0, r3
 2393 0022 FFF7FEFF 		bl	HAL_DCMIPP_PIPE_IsEnabledISPAreaStatisticExtraction
 2394 0026 0346     		mov	r3, r0
 2395              		.loc 1 750 6 discriminator 1
 2396 0028 002B     		cmp	r3, #0
 2397 002a 0CD1     		bne	.L162
 751:Lib/Camera_Middleware/ISP_Library/isp/Src/isp_services.c ****   {
 752:Lib/Camera_Middleware/ISP_Library/isp/Src/isp_services.c ****     pConfig->X0 = 0;
 2398              		.loc 1 752 17
 2399 002c 3B68     		ldr	r3, [r7]
 2400 002e 0022     		movs	r2, #0
 2401 0030 1A60     		str	r2, [r3]
 753:Lib/Camera_Middleware/ISP_Library/isp/Src/isp_services.c ****     pConfig->Y0 = 0;
 2402              		.loc 1 753 17
 2403 0032 3B68     		ldr	r3, [r7]
 2404 0034 0022     		movs	r2, #0
 2405 0036 5A60     		str	r2, [r3, #4]
 754:Lib/Camera_Middleware/ISP_Library/isp/Src/isp_services.c ****     pConfig->XSize = 0;
 2406              		.loc 1 754 20
 2407 0038 3B68     		ldr	r3, [r7]
 2408 003a 0022     		movs	r2, #0
 2409 003c 9A60     		str	r2, [r3, #8]
 755:Lib/Camera_Middleware/ISP_Library/isp/Src/isp_services.c ****     pConfig->YSize = 0;
 2410              		.loc 1 755 20
 2411 003e 3B68     		ldr	r3, [r7]
 2412 0040 0022     		movs	r2, #0
 2413 0042 DA60     		str	r2, [r3, #12]
 2414 0044 23E0     		b	.L163
 2415              	.L162:
 756:Lib/Camera_Middleware/ISP_Library/isp/Src/isp_services.c ****   }
 757:Lib/Camera_Middleware/ISP_Library/isp/Src/isp_services.c ****   else
ARM GAS  /tmp/ccKI94Jd.s 			page 57


 758:Lib/Camera_Middleware/ISP_Library/isp/Src/isp_services.c ****   {
 759:Lib/Camera_Middleware/ISP_Library/isp/Src/isp_services.c ****     HAL_DCMIPP_PIPE_GetISPAreaStatisticExtractionConfig(hIsp->hDcmipp, DCMIPP_PIPE1,
 2416              		.loc 1 759 61
 2417 0046 7B68     		ldr	r3, [r7, #4]
 2418 0048 1B68     		ldr	r3, [r3]
 2419              		.loc 1 759 5
 2420 004a 07F10802 		add	r2, r7, #8
 2421 004e 0121     		movs	r1, #1
 2422 0050 1846     		mov	r0, r3
 2423 0052 FFF7FEFF 		bl	HAL_DCMIPP_PIPE_GetISPAreaStatisticExtractionConfig
 760:Lib/Camera_Middleware/ISP_Library/isp/Src/isp_services.c ****                                                         &currentStatAreaCfg);
 761:Lib/Camera_Middleware/ISP_Library/isp/Src/isp_services.c **** 
 762:Lib/Camera_Middleware/ISP_Library/isp/Src/isp_services.c ****     /* Consider decimation */
 763:Lib/Camera_Middleware/ISP_Library/isp/Src/isp_services.c ****     pConfig->X0 = currentStatAreaCfg.HStart * ISP_DecimationValue.factor;
 2424              		.loc 1 763 37
 2425 0056 FB68     		ldr	r3, [r7, #12]
 2426              		.loc 1 763 66
 2427 0058 0F4A     		ldr	r2, .L165
 2428 005a 1278     		ldrb	r2, [r2]	@ zero_extendqisi2
 2429              		.loc 1 763 45
 2430 005c 03FB02F2 		mul	r2, r3, r2
 2431              		.loc 1 763 17
 2432 0060 3B68     		ldr	r3, [r7]
 2433 0062 1A60     		str	r2, [r3]
 764:Lib/Camera_Middleware/ISP_Library/isp/Src/isp_services.c ****     pConfig->Y0 = currentStatAreaCfg.VStart * ISP_DecimationValue.factor;
 2434              		.loc 1 764 37
 2435 0064 BB68     		ldr	r3, [r7, #8]
 2436              		.loc 1 764 66
 2437 0066 0C4A     		ldr	r2, .L165
 2438 0068 1278     		ldrb	r2, [r2]	@ zero_extendqisi2
 2439              		.loc 1 764 45
 2440 006a 03FB02F2 		mul	r2, r3, r2
 2441              		.loc 1 764 17
 2442 006e 3B68     		ldr	r3, [r7]
 2443 0070 5A60     		str	r2, [r3, #4]
 765:Lib/Camera_Middleware/ISP_Library/isp/Src/isp_services.c ****     pConfig->XSize = currentStatAreaCfg.HSize * ISP_DecimationValue.factor;
 2444              		.loc 1 765 40
 2445 0072 7B69     		ldr	r3, [r7, #20]
 2446              		.loc 1 765 68
 2447 0074 084A     		ldr	r2, .L165
 2448 0076 1278     		ldrb	r2, [r2]	@ zero_extendqisi2
 2449              		.loc 1 765 47
 2450 0078 03FB02F2 		mul	r2, r3, r2
 2451              		.loc 1 765 20
 2452 007c 3B68     		ldr	r3, [r7]
 2453 007e 9A60     		str	r2, [r3, #8]
 766:Lib/Camera_Middleware/ISP_Library/isp/Src/isp_services.c ****     pConfig->YSize = currentStatAreaCfg.VSize * ISP_DecimationValue.factor;
 2454              		.loc 1 766 40
 2455 0080 3B69     		ldr	r3, [r7, #16]
 2456              		.loc 1 766 68
 2457 0082 054A     		ldr	r2, .L165
 2458 0084 1278     		ldrb	r2, [r2]	@ zero_extendqisi2
 2459              		.loc 1 766 47
 2460 0086 03FB02F2 		mul	r2, r3, r2
 2461              		.loc 1 766 20
 2462 008a 3B68     		ldr	r3, [r7]
 2463 008c DA60     		str	r2, [r3, #12]
ARM GAS  /tmp/ccKI94Jd.s 			page 58


 2464              	.L163:
 767:Lib/Camera_Middleware/ISP_Library/isp/Src/isp_services.c ****   }
 768:Lib/Camera_Middleware/ISP_Library/isp/Src/isp_services.c **** 
 769:Lib/Camera_Middleware/ISP_Library/isp/Src/isp_services.c ****   return ISP_OK;
 2465              		.loc 1 769 10
 2466 008e 0023     		movs	r3, #0
 2467              	.L164:
 770:Lib/Camera_Middleware/ISP_Library/isp/Src/isp_services.c **** }
 2468              		.loc 1 770 1
 2469 0090 1846     		mov	r0, r3
 2470 0092 1837     		adds	r7, r7, #24
 2471              		.cfi_def_cfa_offset 8
 2472 0094 BD46     		mov	sp, r7
 2473              		.cfi_def_cfa_register 13
 2474              		@ sp needed
 2475 0096 80BD     		pop	{r7, pc}
 2476              	.L166:
 2477              		.align	2
 2478              	.L165:
 2479 0098 00000000 		.word	ISP_DecimationValue
 2480              		.cfi_endproc
 2481              	.LFE856:
 2483              		.section	.text.ISP_SVC_ISP_SetBadPixel,"ax",%progbits
 2484              		.align	1
 2485              		.global	ISP_SVC_ISP_SetBadPixel
 2486              		.syntax unified
 2487              		.thumb
 2488              		.thumb_func
 2490              	ISP_SVC_ISP_SetBadPixel:
 2491              	.LFB857:
 771:Lib/Camera_Middleware/ISP_Library/isp/Src/isp_services.c **** 
 772:Lib/Camera_Middleware/ISP_Library/isp/Src/isp_services.c **** /**
 773:Lib/Camera_Middleware/ISP_Library/isp/Src/isp_services.c ****   * @brief  ISP_SVC_ISP_SetBadPixel
 774:Lib/Camera_Middleware/ISP_Library/isp/Src/isp_services.c ****   *         Set the ISP Bad pixel control configuration
 775:Lib/Camera_Middleware/ISP_Library/isp/Src/isp_services.c ****   * @param  hIsp: ISP device handle
 776:Lib/Camera_Middleware/ISP_Library/isp/Src/isp_services.c ****   * @param  pConfig: Pointer to the bad pixel configuration
 777:Lib/Camera_Middleware/ISP_Library/isp/Src/isp_services.c ****   * @retval operation result
 778:Lib/Camera_Middleware/ISP_Library/isp/Src/isp_services.c ****   */
 779:Lib/Camera_Middleware/ISP_Library/isp/Src/isp_services.c **** ISP_StatusTypeDef ISP_SVC_ISP_SetBadPixel(ISP_HandleTypeDef *hIsp, ISP_BadPixelTypeDef *pConfig)
 780:Lib/Camera_Middleware/ISP_Library/isp/Src/isp_services.c **** {
 2492              		.loc 1 780 1
 2493              		.cfi_startproc
 2494              		@ args = 0, pretend = 0, frame = 16
 2495              		@ frame_needed = 1, uses_anonymous_args = 0
 2496 0000 80B5     		push	{r7, lr}
 2497              		.cfi_def_cfa_offset 8
 2498              		.cfi_offset 7, -8
 2499              		.cfi_offset 14, -4
 2500 0002 84B0     		sub	sp, sp, #16
 2501              		.cfi_def_cfa_offset 24
 2502 0004 00AF     		add	r7, sp, #0
 2503              		.cfi_def_cfa_register 7
 2504 0006 7860     		str	r0, [r7, #4]
 2505 0008 3960     		str	r1, [r7]
 781:Lib/Camera_Middleware/ISP_Library/isp/Src/isp_services.c ****   HAL_StatusTypeDef halStatus;
 782:Lib/Camera_Middleware/ISP_Library/isp/Src/isp_services.c **** 
 783:Lib/Camera_Middleware/ISP_Library/isp/Src/isp_services.c ****   if ((hIsp == NULL) || (pConfig == NULL) || (pConfig->strength > ISP_BADPIXEL_STRENGTH_MAX))
ARM GAS  /tmp/ccKI94Jd.s 			page 59


 2506              		.loc 1 783 6
 2507 000a 7B68     		ldr	r3, [r7, #4]
 2508 000c 002B     		cmp	r3, #0
 2509 000e 06D0     		beq	.L168
 2510              		.loc 1 783 22 discriminator 1
 2511 0010 3B68     		ldr	r3, [r7]
 2512 0012 002B     		cmp	r3, #0
 2513 0014 03D0     		beq	.L168
 2514              		.loc 1 783 54 discriminator 2
 2515 0016 3B68     		ldr	r3, [r7]
 2516 0018 5B78     		ldrb	r3, [r3, #1]	@ zero_extendqisi2
 2517              		.loc 1 783 43 discriminator 2
 2518 001a 072B     		cmp	r3, #7
 2519 001c 01D9     		bls	.L169
 2520              	.L168:
 784:Lib/Camera_Middleware/ISP_Library/isp/Src/isp_services.c ****   {
 785:Lib/Camera_Middleware/ISP_Library/isp/Src/isp_services.c ****     return ISP_ERR_BADPIXEL_EINVAL;
 2521              		.loc 1 785 12
 2522 001e 3C23     		movs	r3, #60
 2523 0020 29E0     		b	.L170
 2524              	.L169:
 786:Lib/Camera_Middleware/ISP_Library/isp/Src/isp_services.c ****   }
 787:Lib/Camera_Middleware/ISP_Library/isp/Src/isp_services.c **** 
 788:Lib/Camera_Middleware/ISP_Library/isp/Src/isp_services.c ****   if (pConfig->enable == 0)
 2525              		.loc 1 788 14
 2526 0022 3B68     		ldr	r3, [r7]
 2527 0024 1B78     		ldrb	r3, [r3]	@ zero_extendqisi2
 2528              		.loc 1 788 6
 2529 0026 002B     		cmp	r3, #0
 2530 0028 08D1     		bne	.L171
 789:Lib/Camera_Middleware/ISP_Library/isp/Src/isp_services.c ****   {
 790:Lib/Camera_Middleware/ISP_Library/isp/Src/isp_services.c ****     halStatus = HAL_DCMIPP_PIPE_DisableISPBadPixelRemoval(hIsp->hDcmipp, DCMIPP_PIPE1);
 2531              		.loc 1 790 63
 2532 002a 7B68     		ldr	r3, [r7, #4]
 2533 002c 1B68     		ldr	r3, [r3]
 2534              		.loc 1 790 17
 2535 002e 0121     		movs	r1, #1
 2536 0030 1846     		mov	r0, r3
 2537 0032 FFF7FEFF 		bl	HAL_DCMIPP_PIPE_DisableISPBadPixelRemoval
 2538 0036 0346     		mov	r3, r0
 2539 0038 FB73     		strb	r3, [r7, #15]
 2540 003a 16E0     		b	.L172
 2541              	.L171:
 791:Lib/Camera_Middleware/ISP_Library/isp/Src/isp_services.c ****   }
 792:Lib/Camera_Middleware/ISP_Library/isp/Src/isp_services.c ****   else
 793:Lib/Camera_Middleware/ISP_Library/isp/Src/isp_services.c ****   {
 794:Lib/Camera_Middleware/ISP_Library/isp/Src/isp_services.c ****     halStatus = HAL_DCMIPP_PIPE_SetISPBadPixelRemovalConfig(hIsp->hDcmipp, DCMIPP_PIPE1, pConfig->s
 2542              		.loc 1 794 65
 2543 003c 7B68     		ldr	r3, [r7, #4]
 2544 003e 1868     		ldr	r0, [r3]
 2545              		.loc 1 794 97
 2546 0040 3B68     		ldr	r3, [r7]
 2547 0042 5B78     		ldrb	r3, [r3, #1]	@ zero_extendqisi2
 2548              		.loc 1 794 17
 2549 0044 1A46     		mov	r2, r3
 2550 0046 0121     		movs	r1, #1
 2551 0048 FFF7FEFF 		bl	HAL_DCMIPP_PIPE_SetISPBadPixelRemovalConfig
ARM GAS  /tmp/ccKI94Jd.s 			page 60


 2552 004c 0346     		mov	r3, r0
 2553 004e FB73     		strb	r3, [r7, #15]
 795:Lib/Camera_Middleware/ISP_Library/isp/Src/isp_services.c **** 
 796:Lib/Camera_Middleware/ISP_Library/isp/Src/isp_services.c ****     if (halStatus != HAL_OK)
 2554              		.loc 1 796 8
 2555 0050 FB7B     		ldrb	r3, [r7, #15]	@ zero_extendqisi2
 2556 0052 002B     		cmp	r3, #0
 2557 0054 01D0     		beq	.L173
 797:Lib/Camera_Middleware/ISP_Library/isp/Src/isp_services.c ****     {
 798:Lib/Camera_Middleware/ISP_Library/isp/Src/isp_services.c ****       return ISP_ERR_BADPIXEL_HAL;
 2558              		.loc 1 798 14
 2559 0056 3D23     		movs	r3, #61
 2560 0058 0DE0     		b	.L170
 2561              	.L173:
 799:Lib/Camera_Middleware/ISP_Library/isp/Src/isp_services.c ****     }
 800:Lib/Camera_Middleware/ISP_Library/isp/Src/isp_services.c **** 
 801:Lib/Camera_Middleware/ISP_Library/isp/Src/isp_services.c ****     halStatus = HAL_DCMIPP_PIPE_EnableISPBadPixelRemoval(hIsp->hDcmipp, DCMIPP_PIPE1);
 2562              		.loc 1 801 62
 2563 005a 7B68     		ldr	r3, [r7, #4]
 2564 005c 1B68     		ldr	r3, [r3]
 2565              		.loc 1 801 17
 2566 005e 0121     		movs	r1, #1
 2567 0060 1846     		mov	r0, r3
 2568 0062 FFF7FEFF 		bl	HAL_DCMIPP_PIPE_EnableISPBadPixelRemoval
 2569 0066 0346     		mov	r3, r0
 2570 0068 FB73     		strb	r3, [r7, #15]
 2571              	.L172:
 802:Lib/Camera_Middleware/ISP_Library/isp/Src/isp_services.c ****   }
 803:Lib/Camera_Middleware/ISP_Library/isp/Src/isp_services.c **** 
 804:Lib/Camera_Middleware/ISP_Library/isp/Src/isp_services.c ****   if (halStatus != HAL_OK)
 2572              		.loc 1 804 6
 2573 006a FB7B     		ldrb	r3, [r7, #15]	@ zero_extendqisi2
 2574 006c 002B     		cmp	r3, #0
 2575 006e 01D0     		beq	.L174
 805:Lib/Camera_Middleware/ISP_Library/isp/Src/isp_services.c ****   {
 806:Lib/Camera_Middleware/ISP_Library/isp/Src/isp_services.c ****     return ISP_ERR_BADPIXEL_HAL;
 2576              		.loc 1 806 12
 2577 0070 3D23     		movs	r3, #61
 2578 0072 00E0     		b	.L170
 2579              	.L174:
 807:Lib/Camera_Middleware/ISP_Library/isp/Src/isp_services.c ****   }
 808:Lib/Camera_Middleware/ISP_Library/isp/Src/isp_services.c **** 
 809:Lib/Camera_Middleware/ISP_Library/isp/Src/isp_services.c ****   return ISP_OK;
 2580              		.loc 1 809 10
 2581 0074 0023     		movs	r3, #0
 2582              	.L170:
 810:Lib/Camera_Middleware/ISP_Library/isp/Src/isp_services.c **** }
 2583              		.loc 1 810 1
 2584 0076 1846     		mov	r0, r3
 2585 0078 1037     		adds	r7, r7, #16
 2586              		.cfi_def_cfa_offset 8
 2587 007a BD46     		mov	sp, r7
 2588              		.cfi_def_cfa_register 13
 2589              		@ sp needed
 2590 007c 80BD     		pop	{r7, pc}
 2591              		.cfi_endproc
 2592              	.LFE857:
ARM GAS  /tmp/ccKI94Jd.s 			page 61


 2594              		.section	.text.ISP_SVC_ISP_GetBadPixel,"ax",%progbits
 2595              		.align	1
 2596              		.global	ISP_SVC_ISP_GetBadPixel
 2597              		.syntax unified
 2598              		.thumb
 2599              		.thumb_func
 2601              	ISP_SVC_ISP_GetBadPixel:
 2602              	.LFB858:
 811:Lib/Camera_Middleware/ISP_Library/isp/Src/isp_services.c **** 
 812:Lib/Camera_Middleware/ISP_Library/isp/Src/isp_services.c **** /**
 813:Lib/Camera_Middleware/ISP_Library/isp/Src/isp_services.c ****   * @brief  ISP_SVC_ISP_GetBadPixel
 814:Lib/Camera_Middleware/ISP_Library/isp/Src/isp_services.c ****   *         Get the ISP Bad pixel control configuration
 815:Lib/Camera_Middleware/ISP_Library/isp/Src/isp_services.c ****   * @param  hIsp: ISP device handle
 816:Lib/Camera_Middleware/ISP_Library/isp/Src/isp_services.c ****   * @param  pConfig: Pointer to the bad pixel configuration
 817:Lib/Camera_Middleware/ISP_Library/isp/Src/isp_services.c ****   * @retval operation result
 818:Lib/Camera_Middleware/ISP_Library/isp/Src/isp_services.c ****   */
 819:Lib/Camera_Middleware/ISP_Library/isp/Src/isp_services.c **** ISP_StatusTypeDef ISP_SVC_ISP_GetBadPixel(ISP_HandleTypeDef *hIsp, ISP_BadPixelTypeDef *pConfig)
 820:Lib/Camera_Middleware/ISP_Library/isp/Src/isp_services.c **** {
 2603              		.loc 1 820 1
 2604              		.cfi_startproc
 2605              		@ args = 0, pretend = 0, frame = 16
 2606              		@ frame_needed = 1, uses_anonymous_args = 0
 2607 0000 80B5     		push	{r7, lr}
 2608              		.cfi_def_cfa_offset 8
 2609              		.cfi_offset 7, -8
 2610              		.cfi_offset 14, -4
 2611 0002 84B0     		sub	sp, sp, #16
 2612              		.cfi_def_cfa_offset 24
 2613 0004 00AF     		add	r7, sp, #0
 2614              		.cfi_def_cfa_register 7
 2615 0006 7860     		str	r0, [r7, #4]
 2616 0008 3960     		str	r1, [r7]
 821:Lib/Camera_Middleware/ISP_Library/isp/Src/isp_services.c ****   HAL_StatusTypeDef halStatus;
 822:Lib/Camera_Middleware/ISP_Library/isp/Src/isp_services.c **** 
 823:Lib/Camera_Middleware/ISP_Library/isp/Src/isp_services.c ****   /* Check handle validity */
 824:Lib/Camera_Middleware/ISP_Library/isp/Src/isp_services.c ****   if ((hIsp == NULL) || (pConfig == NULL))
 2617              		.loc 1 824 6
 2618 000a 7B68     		ldr	r3, [r7, #4]
 2619 000c 002B     		cmp	r3, #0
 2620 000e 02D0     		beq	.L176
 2621              		.loc 1 824 22 discriminator 1
 2622 0010 3B68     		ldr	r3, [r7]
 2623 0012 002B     		cmp	r3, #0
 2624 0014 01D1     		bne	.L177
 2625              	.L176:
 825:Lib/Camera_Middleware/ISP_Library/isp/Src/isp_services.c ****   {
 826:Lib/Camera_Middleware/ISP_Library/isp/Src/isp_services.c ****     return ISP_ERR_BADPIXEL_EINVAL;
 2626              		.loc 1 826 12
 2627 0016 3C23     		movs	r3, #60
 2628 0018 23E0     		b	.L178
 2629              	.L177:
 827:Lib/Camera_Middleware/ISP_Library/isp/Src/isp_services.c ****   }
 828:Lib/Camera_Middleware/ISP_Library/isp/Src/isp_services.c **** 
 829:Lib/Camera_Middleware/ISP_Library/isp/Src/isp_services.c ****   pConfig->enable = HAL_DCMIPP_PIPE_IsEnabledISPBadPixelRemoval(hIsp->hDcmipp, DCMIPP_PIPE1);
 2630              		.loc 1 829 69
 2631 001a 7B68     		ldr	r3, [r7, #4]
 2632 001c 1B68     		ldr	r3, [r3]
ARM GAS  /tmp/ccKI94Jd.s 			page 62


 2633              		.loc 1 829 21
 2634 001e 0121     		movs	r1, #1
 2635 0020 1846     		mov	r0, r3
 2636 0022 FFF7FEFF 		bl	HAL_DCMIPP_PIPE_IsEnabledISPBadPixelRemoval
 2637 0026 0346     		mov	r3, r0
 2638              		.loc 1 829 19 discriminator 1
 2639 0028 DAB2     		uxtb	r2, r3
 2640 002a 3B68     		ldr	r3, [r7]
 2641 002c 1A70     		strb	r2, [r3]
 830:Lib/Camera_Middleware/ISP_Library/isp/Src/isp_services.c ****   pConfig->strength = (uint8_t) HAL_DCMIPP_PIPE_GetISPBadPixelRemovalConfig(hIsp->hDcmipp, DCMIPP_P
 2642              		.loc 1 830 81
 2643 002e 7B68     		ldr	r3, [r7, #4]
 2644 0030 1B68     		ldr	r3, [r3]
 2645              		.loc 1 830 33
 2646 0032 0121     		movs	r1, #1
 2647 0034 1846     		mov	r0, r3
 2648 0036 FFF7FEFF 		bl	HAL_DCMIPP_PIPE_GetISPBadPixelRemovalConfig
 2649 003a 0346     		mov	r3, r0
 2650              		.loc 1 830 23 discriminator 1
 2651 003c DAB2     		uxtb	r2, r3
 2652              		.loc 1 830 21 discriminator 1
 2653 003e 3B68     		ldr	r3, [r7]
 2654 0040 5A70     		strb	r2, [r3, #1]
 831:Lib/Camera_Middleware/ISP_Library/isp/Src/isp_services.c **** 
 832:Lib/Camera_Middleware/ISP_Library/isp/Src/isp_services.c ****   halStatus = HAL_DCMIPP_PIPE_GetISPRemovedBadPixelCounter(hIsp->hDcmipp, DCMIPP_PIPE1, &pConfig->c
 2655              		.loc 1 832 64
 2656 0042 7B68     		ldr	r3, [r7, #4]
 2657 0044 1868     		ldr	r0, [r3]
 2658              		.loc 1 832 15
 2659 0046 3B68     		ldr	r3, [r7]
 2660 0048 0433     		adds	r3, r3, #4
 2661 004a 1A46     		mov	r2, r3
 2662 004c 0121     		movs	r1, #1
 2663 004e FFF7FEFF 		bl	HAL_DCMIPP_PIPE_GetISPRemovedBadPixelCounter
 2664 0052 0346     		mov	r3, r0
 2665 0054 FB73     		strb	r3, [r7, #15]
 833:Lib/Camera_Middleware/ISP_Library/isp/Src/isp_services.c **** 
 834:Lib/Camera_Middleware/ISP_Library/isp/Src/isp_services.c ****   if (halStatus != HAL_OK)
 2666              		.loc 1 834 6
 2667 0056 FB7B     		ldrb	r3, [r7, #15]	@ zero_extendqisi2
 2668 0058 002B     		cmp	r3, #0
 2669 005a 01D0     		beq	.L179
 835:Lib/Camera_Middleware/ISP_Library/isp/Src/isp_services.c ****   {
 836:Lib/Camera_Middleware/ISP_Library/isp/Src/isp_services.c ****     return ISP_ERR_BADPIXEL_HAL;
 2670              		.loc 1 836 12
 2671 005c 3D23     		movs	r3, #61
 2672 005e 00E0     		b	.L178
 2673              	.L179:
 837:Lib/Camera_Middleware/ISP_Library/isp/Src/isp_services.c ****   }
 838:Lib/Camera_Middleware/ISP_Library/isp/Src/isp_services.c **** 
 839:Lib/Camera_Middleware/ISP_Library/isp/Src/isp_services.c ****   return ISP_OK;
 2674              		.loc 1 839 10
 2675 0060 0023     		movs	r3, #0
 2676              	.L178:
 840:Lib/Camera_Middleware/ISP_Library/isp/Src/isp_services.c **** }
 2677              		.loc 1 840 1
 2678 0062 1846     		mov	r0, r3
ARM GAS  /tmp/ccKI94Jd.s 			page 63


 2679 0064 1037     		adds	r7, r7, #16
 2680              		.cfi_def_cfa_offset 8
 2681 0066 BD46     		mov	sp, r7
 2682              		.cfi_def_cfa_register 13
 2683              		@ sp needed
 2684 0068 80BD     		pop	{r7, pc}
 2685              		.cfi_endproc
 2686              	.LFE858:
 2688              		.section	.text.ISP_SVC_ISP_SetBlackLevel,"ax",%progbits
 2689              		.align	1
 2690              		.global	ISP_SVC_ISP_SetBlackLevel
 2691              		.syntax unified
 2692              		.thumb
 2693              		.thumb_func
 2695              	ISP_SVC_ISP_SetBlackLevel:
 2696              	.LFB859:
 841:Lib/Camera_Middleware/ISP_Library/isp/Src/isp_services.c **** 
 842:Lib/Camera_Middleware/ISP_Library/isp/Src/isp_services.c **** /**
 843:Lib/Camera_Middleware/ISP_Library/isp/Src/isp_services.c ****   * @brief  ISP_SVC_ISP_SetBlackLevel
 844:Lib/Camera_Middleware/ISP_Library/isp/Src/isp_services.c ****   *         Set the ISP Black Level calibration
 845:Lib/Camera_Middleware/ISP_Library/isp/Src/isp_services.c ****   * @param  hIsp: ISP device handle
 846:Lib/Camera_Middleware/ISP_Library/isp/Src/isp_services.c ****   * @param  pConfig: Pointer to the black level configuration
 847:Lib/Camera_Middleware/ISP_Library/isp/Src/isp_services.c ****   * @retval operation result
 848:Lib/Camera_Middleware/ISP_Library/isp/Src/isp_services.c ****   */
 849:Lib/Camera_Middleware/ISP_Library/isp/Src/isp_services.c **** ISP_StatusTypeDef ISP_SVC_ISP_SetBlackLevel(ISP_HandleTypeDef *hIsp, ISP_BlackLevelTypeDef *pConfig
 850:Lib/Camera_Middleware/ISP_Library/isp/Src/isp_services.c **** {
 2697              		.loc 1 850 1
 2698              		.cfi_startproc
 2699              		@ args = 0, pretend = 0, frame = 16
 2700              		@ frame_needed = 1, uses_anonymous_args = 0
 2701 0000 80B5     		push	{r7, lr}
 2702              		.cfi_def_cfa_offset 8
 2703              		.cfi_offset 7, -8
 2704              		.cfi_offset 14, -4
 2705 0002 84B0     		sub	sp, sp, #16
 2706              		.cfi_def_cfa_offset 24
 2707 0004 00AF     		add	r7, sp, #0
 2708              		.cfi_def_cfa_register 7
 2709 0006 7860     		str	r0, [r7, #4]
 2710 0008 3960     		str	r1, [r7]
 851:Lib/Camera_Middleware/ISP_Library/isp/Src/isp_services.c ****   HAL_StatusTypeDef halStatus;
 852:Lib/Camera_Middleware/ISP_Library/isp/Src/isp_services.c ****   DCMIPP_BlackLevelConfTypeDef blackLevelConfig;
 853:Lib/Camera_Middleware/ISP_Library/isp/Src/isp_services.c **** 
 854:Lib/Camera_Middleware/ISP_Library/isp/Src/isp_services.c ****   /* Check handle validity */
 855:Lib/Camera_Middleware/ISP_Library/isp/Src/isp_services.c ****   if ((hIsp == NULL) || (pConfig == NULL))
 2711              		.loc 1 855 6
 2712 000a 7B68     		ldr	r3, [r7, #4]
 2713 000c 002B     		cmp	r3, #0
 2714 000e 02D0     		beq	.L181
 2715              		.loc 1 855 22 discriminator 1
 2716 0010 3B68     		ldr	r3, [r7]
 2717 0012 002B     		cmp	r3, #0
 2718 0014 01D1     		bne	.L182
 2719              	.L181:
 856:Lib/Camera_Middleware/ISP_Library/isp/Src/isp_services.c ****   {
 857:Lib/Camera_Middleware/ISP_Library/isp/Src/isp_services.c ****     return ISP_ERR_BLACKLEVEL_EINVAL;
 2720              		.loc 1 857 12
ARM GAS  /tmp/ccKI94Jd.s 			page 64


 2721 0016 4623     		movs	r3, #70
 2722 0018 30E0     		b	.L187
 2723              	.L182:
 858:Lib/Camera_Middleware/ISP_Library/isp/Src/isp_services.c ****   }
 859:Lib/Camera_Middleware/ISP_Library/isp/Src/isp_services.c **** 
 860:Lib/Camera_Middleware/ISP_Library/isp/Src/isp_services.c ****   if (pConfig->enable == 0)
 2724              		.loc 1 860 14
 2725 001a 3B68     		ldr	r3, [r7]
 2726 001c 1B78     		ldrb	r3, [r3]	@ zero_extendqisi2
 2727              		.loc 1 860 6
 2728 001e 002B     		cmp	r3, #0
 2729 0020 08D1     		bne	.L184
 861:Lib/Camera_Middleware/ISP_Library/isp/Src/isp_services.c ****   {
 862:Lib/Camera_Middleware/ISP_Library/isp/Src/isp_services.c ****     halStatus = HAL_DCMIPP_PIPE_DisableISPBlackLevelCalibration(hIsp->hDcmipp, DCMIPP_PIPE1);
 2730              		.loc 1 862 69
 2731 0022 7B68     		ldr	r3, [r7, #4]
 2732 0024 1B68     		ldr	r3, [r3]
 2733              		.loc 1 862 17
 2734 0026 0121     		movs	r1, #1
 2735 0028 1846     		mov	r0, r3
 2736 002a FFF7FEFF 		bl	HAL_DCMIPP_PIPE_DisableISPBlackLevelCalibration
 2737 002e 0346     		mov	r3, r0
 2738 0030 FB73     		strb	r3, [r7, #15]
 2739 0032 1DE0     		b	.L185
 2740              	.L184:
 863:Lib/Camera_Middleware/ISP_Library/isp/Src/isp_services.c ****   }
 864:Lib/Camera_Middleware/ISP_Library/isp/Src/isp_services.c ****   else
 865:Lib/Camera_Middleware/ISP_Library/isp/Src/isp_services.c ****   {
 866:Lib/Camera_Middleware/ISP_Library/isp/Src/isp_services.c ****     blackLevelConfig.RedCompBlackLevel = pConfig->BLCR;
 2741              		.loc 1 866 49
 2742 0034 3B68     		ldr	r3, [r7]
 2743 0036 5B78     		ldrb	r3, [r3, #1]	@ zero_extendqisi2
 2744              		.loc 1 866 40
 2745 0038 3B73     		strb	r3, [r7, #12]
 867:Lib/Camera_Middleware/ISP_Library/isp/Src/isp_services.c ****     blackLevelConfig.GreenCompBlackLevel = pConfig->BLCG;
 2746              		.loc 1 867 51
 2747 003a 3B68     		ldr	r3, [r7]
 2748 003c 9B78     		ldrb	r3, [r3, #2]	@ zero_extendqisi2
 2749              		.loc 1 867 42
 2750 003e 7B73     		strb	r3, [r7, #13]
 868:Lib/Camera_Middleware/ISP_Library/isp/Src/isp_services.c ****     blackLevelConfig.BlueCompBlackLevel = pConfig->BLCB;
 2751              		.loc 1 868 50
 2752 0040 3B68     		ldr	r3, [r7]
 2753 0042 DB78     		ldrb	r3, [r3, #3]	@ zero_extendqisi2
 2754              		.loc 1 868 41
 2755 0044 BB73     		strb	r3, [r7, #14]
 869:Lib/Camera_Middleware/ISP_Library/isp/Src/isp_services.c ****     halStatus = HAL_DCMIPP_PIPE_SetISPBlackLevelCalibrationConfig(hIsp->hDcmipp, DCMIPP_PIPE1, &bla
 2756              		.loc 1 869 71
 2757 0046 7B68     		ldr	r3, [r7, #4]
 2758 0048 1B68     		ldr	r3, [r3]
 2759              		.loc 1 869 17
 2760 004a 07F10C02 		add	r2, r7, #12
 2761 004e 0121     		movs	r1, #1
 2762 0050 1846     		mov	r0, r3
 2763 0052 FFF7FEFF 		bl	HAL_DCMIPP_PIPE_SetISPBlackLevelCalibrationConfig
 2764 0056 0346     		mov	r3, r0
 2765 0058 FB73     		strb	r3, [r7, #15]
ARM GAS  /tmp/ccKI94Jd.s 			page 65


 870:Lib/Camera_Middleware/ISP_Library/isp/Src/isp_services.c **** 
 871:Lib/Camera_Middleware/ISP_Library/isp/Src/isp_services.c ****     if (halStatus == HAL_OK)
 2766              		.loc 1 871 8
 2767 005a FB7B     		ldrb	r3, [r7, #15]	@ zero_extendqisi2
 2768 005c 002B     		cmp	r3, #0
 2769 005e 07D1     		bne	.L185
 872:Lib/Camera_Middleware/ISP_Library/isp/Src/isp_services.c ****     {
 873:Lib/Camera_Middleware/ISP_Library/isp/Src/isp_services.c ****       halStatus = HAL_DCMIPP_PIPE_EnableISPBlackLevelCalibration(hIsp->hDcmipp, DCMIPP_PIPE1);
 2770              		.loc 1 873 70
 2771 0060 7B68     		ldr	r3, [r7, #4]
 2772 0062 1B68     		ldr	r3, [r3]
 2773              		.loc 1 873 19
 2774 0064 0121     		movs	r1, #1
 2775 0066 1846     		mov	r0, r3
 2776 0068 FFF7FEFF 		bl	HAL_DCMIPP_PIPE_EnableISPBlackLevelCalibration
 2777 006c 0346     		mov	r3, r0
 2778 006e FB73     		strb	r3, [r7, #15]
 2779              	.L185:
 874:Lib/Camera_Middleware/ISP_Library/isp/Src/isp_services.c ****     }
 875:Lib/Camera_Middleware/ISP_Library/isp/Src/isp_services.c ****   }
 876:Lib/Camera_Middleware/ISP_Library/isp/Src/isp_services.c **** 
 877:Lib/Camera_Middleware/ISP_Library/isp/Src/isp_services.c ****   if (halStatus != HAL_OK)
 2780              		.loc 1 877 6
 2781 0070 FB7B     		ldrb	r3, [r7, #15]	@ zero_extendqisi2
 2782 0072 002B     		cmp	r3, #0
 2783 0074 01D0     		beq	.L186
 878:Lib/Camera_Middleware/ISP_Library/isp/Src/isp_services.c ****   {
 879:Lib/Camera_Middleware/ISP_Library/isp/Src/isp_services.c ****     return ISP_ERR_BLACKLEVEL_HAL;
 2784              		.loc 1 879 12
 2785 0076 4723     		movs	r3, #71
 2786 0078 00E0     		b	.L187
 2787              	.L186:
 880:Lib/Camera_Middleware/ISP_Library/isp/Src/isp_services.c ****   }
 881:Lib/Camera_Middleware/ISP_Library/isp/Src/isp_services.c **** 
 882:Lib/Camera_Middleware/ISP_Library/isp/Src/isp_services.c ****   return ISP_OK;
 2788              		.loc 1 882 10
 2789 007a 0023     		movs	r3, #0
 2790              	.L187:
 883:Lib/Camera_Middleware/ISP_Library/isp/Src/isp_services.c **** }
 2791              		.loc 1 883 1
 2792 007c 1846     		mov	r0, r3
 2793 007e 1037     		adds	r7, r7, #16
 2794              		.cfi_def_cfa_offset 8
 2795 0080 BD46     		mov	sp, r7
 2796              		.cfi_def_cfa_register 13
 2797              		@ sp needed
 2798 0082 80BD     		pop	{r7, pc}
 2799              		.cfi_endproc
 2800              	.LFE859:
 2802              		.section	.text.ISP_SVC_ISP_GetBlackLevel,"ax",%progbits
 2803              		.align	1
 2804              		.global	ISP_SVC_ISP_GetBlackLevel
 2805              		.syntax unified
 2806              		.thumb
 2807              		.thumb_func
 2809              	ISP_SVC_ISP_GetBlackLevel:
 2810              	.LFB860:
ARM GAS  /tmp/ccKI94Jd.s 			page 66


 884:Lib/Camera_Middleware/ISP_Library/isp/Src/isp_services.c **** 
 885:Lib/Camera_Middleware/ISP_Library/isp/Src/isp_services.c **** /**
 886:Lib/Camera_Middleware/ISP_Library/isp/Src/isp_services.c ****   * @brief  ISP_SVC_ISP_GetBlackLevel
 887:Lib/Camera_Middleware/ISP_Library/isp/Src/isp_services.c ****   *         Get the ISP Black Level calibration
 888:Lib/Camera_Middleware/ISP_Library/isp/Src/isp_services.c ****   * @param  hIsp: ISP device handle
 889:Lib/Camera_Middleware/ISP_Library/isp/Src/isp_services.c ****   * @param  pConfig: Pointer to the black level configuration
 890:Lib/Camera_Middleware/ISP_Library/isp/Src/isp_services.c ****   * @retval operation result
 891:Lib/Camera_Middleware/ISP_Library/isp/Src/isp_services.c ****   */
 892:Lib/Camera_Middleware/ISP_Library/isp/Src/isp_services.c **** ISP_StatusTypeDef ISP_SVC_ISP_GetBlackLevel(ISP_HandleTypeDef *hIsp, ISP_BlackLevelTypeDef *pConfig
 893:Lib/Camera_Middleware/ISP_Library/isp/Src/isp_services.c **** {
 2811              		.loc 1 893 1
 2812              		.cfi_startproc
 2813              		@ args = 0, pretend = 0, frame = 16
 2814              		@ frame_needed = 1, uses_anonymous_args = 0
 2815 0000 80B5     		push	{r7, lr}
 2816              		.cfi_def_cfa_offset 8
 2817              		.cfi_offset 7, -8
 2818              		.cfi_offset 14, -4
 2819 0002 84B0     		sub	sp, sp, #16
 2820              		.cfi_def_cfa_offset 24
 2821 0004 00AF     		add	r7, sp, #0
 2822              		.cfi_def_cfa_register 7
 2823 0006 7860     		str	r0, [r7, #4]
 2824 0008 3960     		str	r1, [r7]
 894:Lib/Camera_Middleware/ISP_Library/isp/Src/isp_services.c ****   DCMIPP_BlackLevelConfTypeDef blackLevelConfig;
 895:Lib/Camera_Middleware/ISP_Library/isp/Src/isp_services.c **** 
 896:Lib/Camera_Middleware/ISP_Library/isp/Src/isp_services.c ****   /* Check handle validity */
 897:Lib/Camera_Middleware/ISP_Library/isp/Src/isp_services.c ****   if ((hIsp == NULL) || (pConfig == NULL))
 2825              		.loc 1 897 6
 2826 000a 7B68     		ldr	r3, [r7, #4]
 2827 000c 002B     		cmp	r3, #0
 2828 000e 02D0     		beq	.L189
 2829              		.loc 1 897 22 discriminator 1
 2830 0010 3B68     		ldr	r3, [r7]
 2831 0012 002B     		cmp	r3, #0
 2832 0014 01D1     		bne	.L190
 2833              	.L189:
 898:Lib/Camera_Middleware/ISP_Library/isp/Src/isp_services.c ****   {
 899:Lib/Camera_Middleware/ISP_Library/isp/Src/isp_services.c ****     return ISP_ERR_BLACKLEVEL_EINVAL;
 2834              		.loc 1 899 12
 2835 0016 4623     		movs	r3, #70
 2836 0018 1BE0     		b	.L192
 2837              	.L190:
 900:Lib/Camera_Middleware/ISP_Library/isp/Src/isp_services.c ****   }
 901:Lib/Camera_Middleware/ISP_Library/isp/Src/isp_services.c **** 
 902:Lib/Camera_Middleware/ISP_Library/isp/Src/isp_services.c ****   pConfig->enable = HAL_DCMIPP_PIPE_IsEnabledISPBlackLevelCalibration(hIsp->hDcmipp, DCMIPP_PIPE1);
 2838              		.loc 1 902 75
 2839 001a 7B68     		ldr	r3, [r7, #4]
 2840 001c 1B68     		ldr	r3, [r3]
 2841              		.loc 1 902 21
 2842 001e 0121     		movs	r1, #1
 2843 0020 1846     		mov	r0, r3
 2844 0022 FFF7FEFF 		bl	HAL_DCMIPP_PIPE_IsEnabledISPBlackLevelCalibration
 2845 0026 0346     		mov	r3, r0
 2846              		.loc 1 902 19 discriminator 1
 2847 0028 DAB2     		uxtb	r2, r3
 2848 002a 3B68     		ldr	r3, [r7]
ARM GAS  /tmp/ccKI94Jd.s 			page 67


 2849 002c 1A70     		strb	r2, [r3]
 903:Lib/Camera_Middleware/ISP_Library/isp/Src/isp_services.c **** 
 904:Lib/Camera_Middleware/ISP_Library/isp/Src/isp_services.c ****   HAL_DCMIPP_PIPE_GetISPBlackLevelCalibrationConfig(hIsp->hDcmipp, DCMIPP_PIPE1, &blackLevelConfig)
 2850              		.loc 1 904 57
 2851 002e 7B68     		ldr	r3, [r7, #4]
 2852 0030 1B68     		ldr	r3, [r3]
 2853              		.loc 1 904 3
 2854 0032 07F10C02 		add	r2, r7, #12
 2855 0036 0121     		movs	r1, #1
 2856 0038 1846     		mov	r0, r3
 2857 003a FFF7FEFF 		bl	HAL_DCMIPP_PIPE_GetISPBlackLevelCalibrationConfig
 905:Lib/Camera_Middleware/ISP_Library/isp/Src/isp_services.c **** 
 906:Lib/Camera_Middleware/ISP_Library/isp/Src/isp_services.c ****   pConfig->BLCR = blackLevelConfig.RedCompBlackLevel;
 2858              		.loc 1 906 35
 2859 003e 3A7B     		ldrb	r2, [r7, #12]	@ zero_extendqisi2
 2860              		.loc 1 906 17
 2861 0040 3B68     		ldr	r3, [r7]
 2862 0042 5A70     		strb	r2, [r3, #1]
 907:Lib/Camera_Middleware/ISP_Library/isp/Src/isp_services.c ****   pConfig->BLCG = blackLevelConfig.GreenCompBlackLevel;
 2863              		.loc 1 907 35
 2864 0044 7A7B     		ldrb	r2, [r7, #13]	@ zero_extendqisi2
 2865              		.loc 1 907 17
 2866 0046 3B68     		ldr	r3, [r7]
 2867 0048 9A70     		strb	r2, [r3, #2]
 908:Lib/Camera_Middleware/ISP_Library/isp/Src/isp_services.c ****   pConfig->BLCB = blackLevelConfig.BlueCompBlackLevel;
 2868              		.loc 1 908 35
 2869 004a BA7B     		ldrb	r2, [r7, #14]	@ zero_extendqisi2
 2870              		.loc 1 908 17
 2871 004c 3B68     		ldr	r3, [r7]
 2872 004e DA70     		strb	r2, [r3, #3]
 909:Lib/Camera_Middleware/ISP_Library/isp/Src/isp_services.c **** 
 910:Lib/Camera_Middleware/ISP_Library/isp/Src/isp_services.c ****   return ISP_OK;
 2873              		.loc 1 910 10
 2874 0050 0023     		movs	r3, #0
 2875              	.L192:
 911:Lib/Camera_Middleware/ISP_Library/isp/Src/isp_services.c **** }
 2876              		.loc 1 911 1
 2877 0052 1846     		mov	r0, r3
 2878 0054 1037     		adds	r7, r7, #16
 2879              		.cfi_def_cfa_offset 8
 2880 0056 BD46     		mov	sp, r7
 2881              		.cfi_def_cfa_register 13
 2882              		@ sp needed
 2883 0058 80BD     		pop	{r7, pc}
 2884              		.cfi_endproc
 2885              	.LFE860:
 2887              		.section	.text.ISP_SVC_ISP_SetGain,"ax",%progbits
 2888              		.align	1
 2889              		.global	ISP_SVC_ISP_SetGain
 2890              		.syntax unified
 2891              		.thumb
 2892              		.thumb_func
 2894              	ISP_SVC_ISP_SetGain:
 2895              	.LFB861:
 912:Lib/Camera_Middleware/ISP_Library/isp/Src/isp_services.c **** 
 913:Lib/Camera_Middleware/ISP_Library/isp/Src/isp_services.c **** /**
 914:Lib/Camera_Middleware/ISP_Library/isp/Src/isp_services.c ****   * @brief  ISP_SVC_ISP_SetGain
ARM GAS  /tmp/ccKI94Jd.s 			page 68


 915:Lib/Camera_Middleware/ISP_Library/isp/Src/isp_services.c ****   *         Set the ISP Exposure and White Balance gains
 916:Lib/Camera_Middleware/ISP_Library/isp/Src/isp_services.c ****   * @param  hIsp: ISP device handle
 917:Lib/Camera_Middleware/ISP_Library/isp/Src/isp_services.c ****   * @param  pConfig: Pointer to the ISP gain configuration
 918:Lib/Camera_Middleware/ISP_Library/isp/Src/isp_services.c ****   * @retval operation result
 919:Lib/Camera_Middleware/ISP_Library/isp/Src/isp_services.c ****   */
 920:Lib/Camera_Middleware/ISP_Library/isp/Src/isp_services.c **** ISP_StatusTypeDef ISP_SVC_ISP_SetGain(ISP_HandleTypeDef *hIsp, ISP_ISPGainTypeDef *pConfig)
 921:Lib/Camera_Middleware/ISP_Library/isp/Src/isp_services.c **** {
 2896              		.loc 1 921 1
 2897              		.cfi_startproc
 2898              		@ args = 0, pretend = 0, frame = 16
 2899              		@ frame_needed = 1, uses_anonymous_args = 0
 2900 0000 80B5     		push	{r7, lr}
 2901              		.cfi_def_cfa_offset 8
 2902              		.cfi_offset 7, -8
 2903              		.cfi_offset 14, -4
 2904 0002 84B0     		sub	sp, sp, #16
 2905              		.cfi_def_cfa_offset 24
 2906 0004 00AF     		add	r7, sp, #0
 2907              		.cfi_def_cfa_register 7
 2908 0006 7860     		str	r0, [r7, #4]
 2909 0008 3960     		str	r1, [r7]
 922:Lib/Camera_Middleware/ISP_Library/isp/Src/isp_services.c ****   HAL_StatusTypeDef halStatus;
 923:Lib/Camera_Middleware/ISP_Library/isp/Src/isp_services.c ****   DCMIPP_ExposureConfTypeDef exposureConfig;
 924:Lib/Camera_Middleware/ISP_Library/isp/Src/isp_services.c **** 
 925:Lib/Camera_Middleware/ISP_Library/isp/Src/isp_services.c ****   if ((hIsp == NULL) || (pConfig == NULL) ||
 2910              		.loc 1 925 6
 2911 000a 7B68     		ldr	r3, [r7, #4]
 2912 000c 002B     		cmp	r3, #0
 2913 000e 11D0     		beq	.L194
 2914              		.loc 1 925 22 discriminator 1
 2915 0010 3B68     		ldr	r3, [r7]
 2916 0012 002B     		cmp	r3, #0
 2917 0014 0ED0     		beq	.L194
 926:Lib/Camera_Middleware/ISP_Library/isp/Src/isp_services.c ****       (pConfig->ispGainR > ISP_EXPOSURE_GAIN_MAX) || (pConfig->ispGainG > ISP_EXPOSURE_GAIN_MAX) ||
 2918              		.loc 1 926 15
 2919 0016 3B68     		ldr	r3, [r7]
 2920 0018 5B68     		ldr	r3, [r3, #4]
 925:Lib/Camera_Middleware/ISP_Library/isp/Src/isp_services.c ****       (pConfig->ispGainR > ISP_EXPOSURE_GAIN_MAX) || (pConfig->ispGainG > ISP_EXPOSURE_GAIN_MAX) ||
 2921              		.loc 1 925 43 discriminator 2
 2922 001a 2D4A     		ldr	r2, .L201
 2923 001c 9342     		cmp	r3, r2
 2924 001e 09D8     		bhi	.L194
 2925              		.loc 1 926 62
 2926 0020 3B68     		ldr	r3, [r7]
 2927 0022 9B68     		ldr	r3, [r3, #8]
 2928              		.loc 1 926 51
 2929 0024 2A4A     		ldr	r2, .L201
 2930 0026 9342     		cmp	r3, r2
 2931 0028 04D8     		bhi	.L194
 2932              		.loc 1 926 109 discriminator 1
 2933 002a 3B68     		ldr	r3, [r7]
 2934 002c DB68     		ldr	r3, [r3, #12]
 2935              		.loc 1 926 98 discriminator 1
 2936 002e 284A     		ldr	r2, .L201
 2937 0030 9342     		cmp	r3, r2
 2938 0032 01D9     		bls	.L195
 2939              	.L194:
ARM GAS  /tmp/ccKI94Jd.s 			page 69


 927:Lib/Camera_Middleware/ISP_Library/isp/Src/isp_services.c ****   {
 928:Lib/Camera_Middleware/ISP_Library/isp/Src/isp_services.c ****     return ISP_ERR_ISPGAIN_EINVAL;
 2940              		.loc 1 928 12
 2941 0034 5023     		movs	r3, #80
 2942 0036 47E0     		b	.L200
 2943              	.L195:
 929:Lib/Camera_Middleware/ISP_Library/isp/Src/isp_services.c ****   }
 930:Lib/Camera_Middleware/ISP_Library/isp/Src/isp_services.c **** 
 931:Lib/Camera_Middleware/ISP_Library/isp/Src/isp_services.c ****   if (pConfig->enable == 0)
 2944              		.loc 1 931 14
 2945 0038 3B68     		ldr	r3, [r7]
 2946 003a 1B78     		ldrb	r3, [r3]	@ zero_extendqisi2
 2947              		.loc 1 931 6
 2948 003c 002B     		cmp	r3, #0
 2949 003e 08D1     		bne	.L197
 932:Lib/Camera_Middleware/ISP_Library/isp/Src/isp_services.c ****   {
 933:Lib/Camera_Middleware/ISP_Library/isp/Src/isp_services.c ****     halStatus = HAL_DCMIPP_PIPE_DisableISPExposure(hIsp->hDcmipp, DCMIPP_PIPE1);
 2950              		.loc 1 933 56
 2951 0040 7B68     		ldr	r3, [r7, #4]
 2952 0042 1B68     		ldr	r3, [r3]
 2953              		.loc 1 933 17
 2954 0044 0121     		movs	r1, #1
 2955 0046 1846     		mov	r0, r3
 2956 0048 FFF7FEFF 		bl	HAL_DCMIPP_PIPE_DisableISPExposure
 2957 004c 0346     		mov	r3, r0
 2958 004e FB73     		strb	r3, [r7, #15]
 2959 0050 34E0     		b	.L198
 2960              	.L197:
 934:Lib/Camera_Middleware/ISP_Library/isp/Src/isp_services.c ****   }
 935:Lib/Camera_Middleware/ISP_Library/isp/Src/isp_services.c ****   else
 936:Lib/Camera_Middleware/ISP_Library/isp/Src/isp_services.c ****   {
 937:Lib/Camera_Middleware/ISP_Library/isp/Src/isp_services.c ****     To_Shift_Multiplier(pConfig->ispGainR, &exposureConfig.ShiftRed, &exposureConfig.MultiplierRed)
 2961              		.loc 1 937 5
 2962 0052 3B68     		ldr	r3, [r7]
 2963 0054 5868     		ldr	r0, [r3, #4]
 2964 0056 07F10803 		add	r3, r7, #8
 2965 005a 5A1C     		adds	r2, r3, #1
 2966 005c 07F10803 		add	r3, r7, #8
 2967 0060 1946     		mov	r1, r3
 2968 0062 FFF7FEFF 		bl	To_Shift_Multiplier
 938:Lib/Camera_Middleware/ISP_Library/isp/Src/isp_services.c ****     To_Shift_Multiplier(pConfig->ispGainG, &exposureConfig.ShiftGreen, &exposureConfig.MultiplierGr
 2969              		.loc 1 938 5
 2970 0066 3B68     		ldr	r3, [r7]
 2971 0068 9868     		ldr	r0, [r3, #8]
 2972 006a 07F10803 		add	r3, r7, #8
 2973 006e DA1C     		adds	r2, r3, #3
 2974 0070 07F10803 		add	r3, r7, #8
 2975 0074 0233     		adds	r3, r3, #2
 2976 0076 1946     		mov	r1, r3
 2977 0078 FFF7FEFF 		bl	To_Shift_Multiplier
 939:Lib/Camera_Middleware/ISP_Library/isp/Src/isp_services.c ****     To_Shift_Multiplier(pConfig->ispGainB, &exposureConfig.ShiftBlue, &exposureConfig.MultiplierBlu
 2978              		.loc 1 939 5
 2979 007c 3B68     		ldr	r3, [r7]
 2980 007e D868     		ldr	r0, [r3, #12]
 2981 0080 07F10803 		add	r3, r7, #8
 2982 0084 5A1D     		adds	r2, r3, #5
 2983 0086 07F10803 		add	r3, r7, #8
ARM GAS  /tmp/ccKI94Jd.s 			page 70


 2984 008a 0433     		adds	r3, r3, #4
 2985 008c 1946     		mov	r1, r3
 2986 008e FFF7FEFF 		bl	To_Shift_Multiplier
 940:Lib/Camera_Middleware/ISP_Library/isp/Src/isp_services.c ****     halStatus = HAL_DCMIPP_PIPE_SetISPExposureConfig(hIsp->hDcmipp, DCMIPP_PIPE1, &exposureConfig);
 2987              		.loc 1 940 58
 2988 0092 7B68     		ldr	r3, [r7, #4]
 2989 0094 1B68     		ldr	r3, [r3]
 2990              		.loc 1 940 17
 2991 0096 07F10802 		add	r2, r7, #8
 2992 009a 0121     		movs	r1, #1
 2993 009c 1846     		mov	r0, r3
 2994 009e FFF7FEFF 		bl	HAL_DCMIPP_PIPE_SetISPExposureConfig
 2995 00a2 0346     		mov	r3, r0
 2996 00a4 FB73     		strb	r3, [r7, #15]
 941:Lib/Camera_Middleware/ISP_Library/isp/Src/isp_services.c **** 
 942:Lib/Camera_Middleware/ISP_Library/isp/Src/isp_services.c ****     if (halStatus == HAL_OK)
 2997              		.loc 1 942 8
 2998 00a6 FB7B     		ldrb	r3, [r7, #15]	@ zero_extendqisi2
 2999 00a8 002B     		cmp	r3, #0
 3000 00aa 07D1     		bne	.L198
 943:Lib/Camera_Middleware/ISP_Library/isp/Src/isp_services.c ****     {
 944:Lib/Camera_Middleware/ISP_Library/isp/Src/isp_services.c ****       halStatus = HAL_DCMIPP_PIPE_EnableISPExposure(hIsp->hDcmipp, DCMIPP_PIPE1);
 3001              		.loc 1 944 57
 3002 00ac 7B68     		ldr	r3, [r7, #4]
 3003 00ae 1B68     		ldr	r3, [r3]
 3004              		.loc 1 944 19
 3005 00b0 0121     		movs	r1, #1
 3006 00b2 1846     		mov	r0, r3
 3007 00b4 FFF7FEFF 		bl	HAL_DCMIPP_PIPE_EnableISPExposure
 3008 00b8 0346     		mov	r3, r0
 3009 00ba FB73     		strb	r3, [r7, #15]
 3010              	.L198:
 945:Lib/Camera_Middleware/ISP_Library/isp/Src/isp_services.c ****     }
 946:Lib/Camera_Middleware/ISP_Library/isp/Src/isp_services.c ****   }
 947:Lib/Camera_Middleware/ISP_Library/isp/Src/isp_services.c **** 
 948:Lib/Camera_Middleware/ISP_Library/isp/Src/isp_services.c ****   if (halStatus != HAL_OK)
 3011              		.loc 1 948 6
 3012 00bc FB7B     		ldrb	r3, [r7, #15]	@ zero_extendqisi2
 3013 00be 002B     		cmp	r3, #0
 3014 00c0 01D0     		beq	.L199
 949:Lib/Camera_Middleware/ISP_Library/isp/Src/isp_services.c ****   {
 950:Lib/Camera_Middleware/ISP_Library/isp/Src/isp_services.c ****     return ISP_ERR_ISPGAIN_HAL;
 3015              		.loc 1 950 12
 3016 00c2 5123     		movs	r3, #81
 3017 00c4 00E0     		b	.L200
 3018              	.L199:
 951:Lib/Camera_Middleware/ISP_Library/isp/Src/isp_services.c ****   }
 952:Lib/Camera_Middleware/ISP_Library/isp/Src/isp_services.c **** 
 953:Lib/Camera_Middleware/ISP_Library/isp/Src/isp_services.c ****   return ISP_OK;
 3019              		.loc 1 953 10
 3020 00c6 0023     		movs	r3, #0
 3021              	.L200:
 954:Lib/Camera_Middleware/ISP_Library/isp/Src/isp_services.c **** }
 3022              		.loc 1 954 1
 3023 00c8 1846     		mov	r0, r3
 3024 00ca 1037     		adds	r7, r7, #16
 3025              		.cfi_def_cfa_offset 8
ARM GAS  /tmp/ccKI94Jd.s 			page 71


 3026 00cc BD46     		mov	sp, r7
 3027              		.cfi_def_cfa_register 13
 3028              		@ sp needed
 3029 00ce 80BD     		pop	{r7, pc}
 3030              	.L202:
 3031              		.align	2
 3032              	.L201:
 3033 00d0 00105E5F 		.word	1600000000
 3034              		.cfi_endproc
 3035              	.LFE861:
 3037              		.section	.text.ISP_SVC_ISP_GetGain,"ax",%progbits
 3038              		.align	1
 3039              		.global	ISP_SVC_ISP_GetGain
 3040              		.syntax unified
 3041              		.thumb
 3042              		.thumb_func
 3044              	ISP_SVC_ISP_GetGain:
 3045              	.LFB862:
 955:Lib/Camera_Middleware/ISP_Library/isp/Src/isp_services.c **** 
 956:Lib/Camera_Middleware/ISP_Library/isp/Src/isp_services.c **** /**
 957:Lib/Camera_Middleware/ISP_Library/isp/Src/isp_services.c ****   * @brief  ISP_SVC_ISP_GetGain
 958:Lib/Camera_Middleware/ISP_Library/isp/Src/isp_services.c ****   *         Get the ISP Exposure and White Balance gains
 959:Lib/Camera_Middleware/ISP_Library/isp/Src/isp_services.c ****   * @param  hIsp: ISP device handle
 960:Lib/Camera_Middleware/ISP_Library/isp/Src/isp_services.c ****   * @param  pConfig: Pointer to the ISP gain configuration
 961:Lib/Camera_Middleware/ISP_Library/isp/Src/isp_services.c ****   * @retval operation result
 962:Lib/Camera_Middleware/ISP_Library/isp/Src/isp_services.c ****   */
 963:Lib/Camera_Middleware/ISP_Library/isp/Src/isp_services.c **** ISP_StatusTypeDef ISP_SVC_ISP_GetGain(ISP_HandleTypeDef *hIsp, ISP_ISPGainTypeDef *pConfig)
 964:Lib/Camera_Middleware/ISP_Library/isp/Src/isp_services.c **** {
 3046              		.loc 1 964 1
 3047              		.cfi_startproc
 3048              		@ args = 0, pretend = 0, frame = 16
 3049              		@ frame_needed = 1, uses_anonymous_args = 0
 3050 0000 80B5     		push	{r7, lr}
 3051              		.cfi_def_cfa_offset 8
 3052              		.cfi_offset 7, -8
 3053              		.cfi_offset 14, -4
 3054 0002 84B0     		sub	sp, sp, #16
 3055              		.cfi_def_cfa_offset 24
 3056 0004 00AF     		add	r7, sp, #0
 3057              		.cfi_def_cfa_register 7
 3058 0006 7860     		str	r0, [r7, #4]
 3059 0008 3960     		str	r1, [r7]
 965:Lib/Camera_Middleware/ISP_Library/isp/Src/isp_services.c ****   DCMIPP_ExposureConfTypeDef exposureConfig;
 966:Lib/Camera_Middleware/ISP_Library/isp/Src/isp_services.c **** 
 967:Lib/Camera_Middleware/ISP_Library/isp/Src/isp_services.c ****   /* Check handle validity */
 968:Lib/Camera_Middleware/ISP_Library/isp/Src/isp_services.c ****   if ((hIsp == NULL) || (pConfig == NULL))
 3060              		.loc 1 968 6
 3061 000a 7B68     		ldr	r3, [r7, #4]
 3062 000c 002B     		cmp	r3, #0
 3063 000e 02D0     		beq	.L204
 3064              		.loc 1 968 22 discriminator 1
 3065 0010 3B68     		ldr	r3, [r7]
 3066 0012 002B     		cmp	r3, #0
 3067 0014 01D1     		bne	.L205
 3068              	.L204:
 969:Lib/Camera_Middleware/ISP_Library/isp/Src/isp_services.c ****   {
 970:Lib/Camera_Middleware/ISP_Library/isp/Src/isp_services.c ****     return ISP_ERR_ISPGAIN_EINVAL;
ARM GAS  /tmp/ccKI94Jd.s 			page 72


 3069              		.loc 1 970 12
 3070 0016 5023     		movs	r3, #80
 3071 0018 2DE0     		b	.L207
 3072              	.L205:
 971:Lib/Camera_Middleware/ISP_Library/isp/Src/isp_services.c ****   }
 972:Lib/Camera_Middleware/ISP_Library/isp/Src/isp_services.c **** 
 973:Lib/Camera_Middleware/ISP_Library/isp/Src/isp_services.c ****   pConfig->enable = HAL_DCMIPP_PIPE_IsEnabledISPExposure(hIsp->hDcmipp, DCMIPP_PIPE1);
 3073              		.loc 1 973 62
 3074 001a 7B68     		ldr	r3, [r7, #4]
 3075 001c 1B68     		ldr	r3, [r3]
 3076              		.loc 1 973 21
 3077 001e 0121     		movs	r1, #1
 3078 0020 1846     		mov	r0, r3
 3079 0022 FFF7FEFF 		bl	HAL_DCMIPP_PIPE_IsEnabledISPExposure
 3080 0026 0346     		mov	r3, r0
 3081              		.loc 1 973 19 discriminator 1
 3082 0028 DAB2     		uxtb	r2, r3
 3083 002a 3B68     		ldr	r3, [r7]
 3084 002c 1A70     		strb	r2, [r3]
 974:Lib/Camera_Middleware/ISP_Library/isp/Src/isp_services.c ****   HAL_DCMIPP_PIPE_GetISPExposureConfig(hIsp->hDcmipp, DCMIPP_PIPE1, &exposureConfig);
 3085              		.loc 1 974 44
 3086 002e 7B68     		ldr	r3, [r7, #4]
 3087 0030 1B68     		ldr	r3, [r3]
 3088              		.loc 1 974 3
 3089 0032 07F10802 		add	r2, r7, #8
 3090 0036 0121     		movs	r1, #1
 3091 0038 1846     		mov	r0, r3
 3092 003a FFF7FEFF 		bl	HAL_DCMIPP_PIPE_GetISPExposureConfig
 975:Lib/Camera_Middleware/ISP_Library/isp/Src/isp_services.c **** 
 976:Lib/Camera_Middleware/ISP_Library/isp/Src/isp_services.c ****   pConfig->ispGainR = From_Shift_Multiplier(exposureConfig.ShiftRed, exposureConfig.MultiplierRed);
 3093              		.loc 1 976 23
 3094 003e 3B7A     		ldrb	r3, [r7, #8]	@ zero_extendqisi2
 3095 0040 7A7A     		ldrb	r2, [r7, #9]	@ zero_extendqisi2
 3096 0042 1146     		mov	r1, r2
 3097 0044 1846     		mov	r0, r3
 3098 0046 FFF7FEFF 		bl	From_Shift_Multiplier
 3099 004a 0246     		mov	r2, r0
 3100              		.loc 1 976 21 discriminator 1
 3101 004c 3B68     		ldr	r3, [r7]
 3102 004e 5A60     		str	r2, [r3, #4]
 977:Lib/Camera_Middleware/ISP_Library/isp/Src/isp_services.c ****   pConfig->ispGainG = From_Shift_Multiplier(exposureConfig.ShiftGreen, exposureConfig.MultiplierGre
 3103              		.loc 1 977 23
 3104 0050 BB7A     		ldrb	r3, [r7, #10]	@ zero_extendqisi2
 3105 0052 FA7A     		ldrb	r2, [r7, #11]	@ zero_extendqisi2
 3106 0054 1146     		mov	r1, r2
 3107 0056 1846     		mov	r0, r3
 3108 0058 FFF7FEFF 		bl	From_Shift_Multiplier
 3109 005c 0246     		mov	r2, r0
 3110              		.loc 1 977 21 discriminator 1
 3111 005e 3B68     		ldr	r3, [r7]
 3112 0060 9A60     		str	r2, [r3, #8]
 978:Lib/Camera_Middleware/ISP_Library/isp/Src/isp_services.c ****   pConfig->ispGainB = From_Shift_Multiplier(exposureConfig.ShiftBlue, exposureConfig.MultiplierBlue
 3113              		.loc 1 978 23
 3114 0062 3B7B     		ldrb	r3, [r7, #12]	@ zero_extendqisi2
 3115 0064 7A7B     		ldrb	r2, [r7, #13]	@ zero_extendqisi2
 3116 0066 1146     		mov	r1, r2
 3117 0068 1846     		mov	r0, r3
ARM GAS  /tmp/ccKI94Jd.s 			page 73


 3118 006a FFF7FEFF 		bl	From_Shift_Multiplier
 3119 006e 0246     		mov	r2, r0
 3120              		.loc 1 978 21 discriminator 1
 3121 0070 3B68     		ldr	r3, [r7]
 3122 0072 DA60     		str	r2, [r3, #12]
 979:Lib/Camera_Middleware/ISP_Library/isp/Src/isp_services.c **** 
 980:Lib/Camera_Middleware/ISP_Library/isp/Src/isp_services.c ****   return ISP_OK;
 3123              		.loc 1 980 10
 3124 0074 0023     		movs	r3, #0
 3125              	.L207:
 981:Lib/Camera_Middleware/ISP_Library/isp/Src/isp_services.c **** }
 3126              		.loc 1 981 1
 3127 0076 1846     		mov	r0, r3
 3128 0078 1037     		adds	r7, r7, #16
 3129              		.cfi_def_cfa_offset 8
 3130 007a BD46     		mov	sp, r7
 3131              		.cfi_def_cfa_register 13
 3132              		@ sp needed
 3133 007c 80BD     		pop	{r7, pc}
 3134              		.cfi_endproc
 3135              	.LFE862:
 3137              		.section	.text.ISP_SVC_ISP_SetColorConv,"ax",%progbits
 3138              		.align	1
 3139              		.global	ISP_SVC_ISP_SetColorConv
 3140              		.syntax unified
 3141              		.thumb
 3142              		.thumb_func
 3144              	ISP_SVC_ISP_SetColorConv:
 3145              	.LFB863:
 982:Lib/Camera_Middleware/ISP_Library/isp/Src/isp_services.c **** 
 983:Lib/Camera_Middleware/ISP_Library/isp/Src/isp_services.c **** /**
 984:Lib/Camera_Middleware/ISP_Library/isp/Src/isp_services.c ****   * @brief  ISP_SVC_ISP_SetColorConv
 985:Lib/Camera_Middleware/ISP_Library/isp/Src/isp_services.c ****   *         Set the ISP Color Conversion
 986:Lib/Camera_Middleware/ISP_Library/isp/Src/isp_services.c ****   * @param  hIsp: ISP device handle
 987:Lib/Camera_Middleware/ISP_Library/isp/Src/isp_services.c ****   * @param  pConfig: Pointer to the Color Conversion configuration
 988:Lib/Camera_Middleware/ISP_Library/isp/Src/isp_services.c ****   * @retval operation result
 989:Lib/Camera_Middleware/ISP_Library/isp/Src/isp_services.c ****   */
 990:Lib/Camera_Middleware/ISP_Library/isp/Src/isp_services.c **** ISP_StatusTypeDef ISP_SVC_ISP_SetColorConv(ISP_HandleTypeDef *hIsp, ISP_ColorConvTypeDef *pConfig)
 991:Lib/Camera_Middleware/ISP_Library/isp/Src/isp_services.c **** {
 3146              		.loc 1 991 1
 3147              		.cfi_startproc
 3148              		@ args = 0, pretend = 0, frame = 48
 3149              		@ frame_needed = 1, uses_anonymous_args = 0
 3150 0000 80B5     		push	{r7, lr}
 3151              		.cfi_def_cfa_offset 8
 3152              		.cfi_offset 7, -8
 3153              		.cfi_offset 14, -4
 3154 0002 8CB0     		sub	sp, sp, #48
 3155              		.cfi_def_cfa_offset 56
 3156 0004 00AF     		add	r7, sp, #0
 3157              		.cfi_def_cfa_register 7
 3158 0006 7860     		str	r0, [r7, #4]
 3159 0008 3960     		str	r1, [r7]
 992:Lib/Camera_Middleware/ISP_Library/isp/Src/isp_services.c ****   HAL_StatusTypeDef halStatus;
 993:Lib/Camera_Middleware/ISP_Library/isp/Src/isp_services.c ****   DCMIPP_ColorConversionConfTypeDef colorConvConfig;
 994:Lib/Camera_Middleware/ISP_Library/isp/Src/isp_services.c ****   uint32_t i, j;
 995:Lib/Camera_Middleware/ISP_Library/isp/Src/isp_services.c **** 
ARM GAS  /tmp/ccKI94Jd.s 			page 74


 996:Lib/Camera_Middleware/ISP_Library/isp/Src/isp_services.c ****   memset(&colorConvConfig, 0, sizeof(colorConvConfig));
 3160              		.loc 1 996 3
 3161 000a 07F10803 		add	r3, r7, #8
 3162 000e 1A22     		movs	r2, #26
 3163 0010 0021     		movs	r1, #0
 3164 0012 1846     		mov	r0, r3
 3165 0014 FFF7FEFF 		bl	memset
 997:Lib/Camera_Middleware/ISP_Library/isp/Src/isp_services.c **** 
 998:Lib/Camera_Middleware/ISP_Library/isp/Src/isp_services.c ****   /* Check handle validity */
 999:Lib/Camera_Middleware/ISP_Library/isp/Src/isp_services.c ****   if ((hIsp == NULL) || (pConfig == NULL))
 3166              		.loc 1 999 6
 3167 0018 7B68     		ldr	r3, [r7, #4]
 3168 001a 002B     		cmp	r3, #0
 3169 001c 02D0     		beq	.L209
 3170              		.loc 1 999 22 discriminator 1
 3171 001e 3B68     		ldr	r3, [r7]
 3172 0020 002B     		cmp	r3, #0
 3173 0022 01D1     		bne	.L210
 3174              	.L209:
1000:Lib/Camera_Middleware/ISP_Library/isp/Src/isp_services.c ****   {
1001:Lib/Camera_Middleware/ISP_Library/isp/Src/isp_services.c ****     return ISP_ERR_COLORCONV_EINVAL;
 3175              		.loc 1 1001 12
 3176 0024 5A23     		movs	r3, #90
 3177 0026 99E0     		b	.L221
 3178              	.L210:
1002:Lib/Camera_Middleware/ISP_Library/isp/Src/isp_services.c ****   }
1003:Lib/Camera_Middleware/ISP_Library/isp/Src/isp_services.c **** 
1004:Lib/Camera_Middleware/ISP_Library/isp/Src/isp_services.c ****   for (i = 0; i < 3; i++)
 3179              		.loc 1 1004 10
 3180 0028 0023     		movs	r3, #0
 3181 002a BB62     		str	r3, [r7, #40]
 3182              		.loc 1 1004 3
 3183 002c 27E0     		b	.L212
 3184              	.L217:
1005:Lib/Camera_Middleware/ISP_Library/isp/Src/isp_services.c ****   {
1006:Lib/Camera_Middleware/ISP_Library/isp/Src/isp_services.c ****     for (j = 0; j < 3; j++)
 3185              		.loc 1 1006 12
 3186 002e 0023     		movs	r3, #0
 3187 0030 7B62     		str	r3, [r7, #36]
 3188              		.loc 1 1006 5
 3189 0032 1EE0     		b	.L213
 3190              	.L216:
1007:Lib/Camera_Middleware/ISP_Library/isp/Src/isp_services.c ****     {
1008:Lib/Camera_Middleware/ISP_Library/isp/Src/isp_services.c ****       if ((pConfig->coeff[i][j] > ISP_COLORCONV_MAX) || (pConfig->coeff[i][j] < -ISP_COLORCONV_MAX)
 3191              		.loc 1 1008 29
 3192 0034 3968     		ldr	r1, [r7]
 3193 0036 BA6A     		ldr	r2, [r7, #40]
 3194 0038 1346     		mov	r3, r2
 3195 003a 5B00     		lsls	r3, r3, #1
 3196 003c 1344     		add	r3, r3, r2
 3197 003e 7A6A     		ldr	r2, [r7, #36]
 3198 0040 1344     		add	r3, r3, r2
 3199 0042 9B00     		lsls	r3, r3, #2
 3200 0044 0B44     		add	r3, r3, r1
 3201 0046 5B68     		ldr	r3, [r3, #4]
 3202              		.loc 1 1008 10
 3203 0048 464A     		ldr	r2, .L222
ARM GAS  /tmp/ccKI94Jd.s 			page 75


 3204 004a 9342     		cmp	r3, r2
 3205 004c 0CDC     		bgt	.L214
 3206              		.loc 1 1008 75 discriminator 1
 3207 004e 3968     		ldr	r1, [r7]
 3208 0050 BA6A     		ldr	r2, [r7, #40]
 3209 0052 1346     		mov	r3, r2
 3210 0054 5B00     		lsls	r3, r3, #1
 3211 0056 1344     		add	r3, r3, r2
 3212 0058 7A6A     		ldr	r2, [r7, #36]
 3213 005a 1344     		add	r3, r3, r2
 3214 005c 9B00     		lsls	r3, r3, #2
 3215 005e 0B44     		add	r3, r3, r1
 3216 0060 5B68     		ldr	r3, [r3, #4]
 3217              		.loc 1 1008 54 discriminator 1
 3218 0062 414A     		ldr	r2, .L222+4
 3219 0064 9342     		cmp	r3, r2
 3220 0066 01DA     		bge	.L215
 3221              	.L214:
1009:Lib/Camera_Middleware/ISP_Library/isp/Src/isp_services.c ****       {
1010:Lib/Camera_Middleware/ISP_Library/isp/Src/isp_services.c ****         return ISP_ERR_COLORCONV_EINVAL;
 3222              		.loc 1 1010 16
 3223 0068 5A23     		movs	r3, #90
 3224 006a 77E0     		b	.L221
 3225              	.L215:
1006:Lib/Camera_Middleware/ISP_Library/isp/Src/isp_services.c ****     {
 3226              		.loc 1 1006 25 discriminator 2
 3227 006c 7B6A     		ldr	r3, [r7, #36]
 3228 006e 0133     		adds	r3, r3, #1
 3229 0070 7B62     		str	r3, [r7, #36]
 3230              	.L213:
1006:Lib/Camera_Middleware/ISP_Library/isp/Src/isp_services.c ****     {
 3231              		.loc 1 1006 19 discriminator 1
 3232 0072 7B6A     		ldr	r3, [r7, #36]
 3233 0074 022B     		cmp	r3, #2
 3234 0076 DDD9     		bls	.L216
1004:Lib/Camera_Middleware/ISP_Library/isp/Src/isp_services.c ****   {
 3235              		.loc 1 1004 23 discriminator 2
 3236 0078 BB6A     		ldr	r3, [r7, #40]
 3237 007a 0133     		adds	r3, r3, #1
 3238 007c BB62     		str	r3, [r7, #40]
 3239              	.L212:
1004:Lib/Camera_Middleware/ISP_Library/isp/Src/isp_services.c ****   {
 3240              		.loc 1 1004 17 discriminator 1
 3241 007e BB6A     		ldr	r3, [r7, #40]
 3242 0080 022B     		cmp	r3, #2
 3243 0082 D4D9     		bls	.L217
1011:Lib/Camera_Middleware/ISP_Library/isp/Src/isp_services.c ****       }
1012:Lib/Camera_Middleware/ISP_Library/isp/Src/isp_services.c ****     }
1013:Lib/Camera_Middleware/ISP_Library/isp/Src/isp_services.c ****   }
1014:Lib/Camera_Middleware/ISP_Library/isp/Src/isp_services.c **** 
1015:Lib/Camera_Middleware/ISP_Library/isp/Src/isp_services.c ****   if (pConfig->enable == 0)
 3244              		.loc 1 1015 14
 3245 0084 3B68     		ldr	r3, [r7]
 3246 0086 1B78     		ldrb	r3, [r3]	@ zero_extendqisi2
 3247              		.loc 1 1015 6
 3248 0088 002B     		cmp	r3, #0
 3249 008a 09D1     		bne	.L218
ARM GAS  /tmp/ccKI94Jd.s 			page 76


1016:Lib/Camera_Middleware/ISP_Library/isp/Src/isp_services.c ****   {
1017:Lib/Camera_Middleware/ISP_Library/isp/Src/isp_services.c ****     halStatus = HAL_DCMIPP_PIPE_DisableISPColorConversion(hIsp->hDcmipp, DCMIPP_PIPE1);
 3250              		.loc 1 1017 63
 3251 008c 7B68     		ldr	r3, [r7, #4]
 3252 008e 1B68     		ldr	r3, [r3]
 3253              		.loc 1 1017 17
 3254 0090 0121     		movs	r1, #1
 3255 0092 1846     		mov	r0, r3
 3256 0094 FFF7FEFF 		bl	HAL_DCMIPP_PIPE_DisableISPColorConversion
 3257 0098 0346     		mov	r3, r0
 3258 009a 87F82F30 		strb	r3, [r7, #47]
 3259 009e 56E0     		b	.L219
 3260              	.L218:
1018:Lib/Camera_Middleware/ISP_Library/isp/Src/isp_services.c ****   }
1019:Lib/Camera_Middleware/ISP_Library/isp/Src/isp_services.c ****   else
1020:Lib/Camera_Middleware/ISP_Library/isp/Src/isp_services.c ****   {
1021:Lib/Camera_Middleware/ISP_Library/isp/Src/isp_services.c ****     colorConvConfig.RR = To_CConv_Reg(pConfig->coeff[0][0]);
 3261              		.loc 1 1021 26
 3262 00a0 3B68     		ldr	r3, [r7]
 3263 00a2 5B68     		ldr	r3, [r3, #4]
 3264 00a4 1846     		mov	r0, r3
 3265 00a6 FFF7FEFF 		bl	To_CConv_Reg
 3266 00aa 0346     		mov	r3, r0
 3267              		.loc 1 1021 24 discriminator 1
 3268 00ac 7B81     		strh	r3, [r7, #10]	@ movhi
1022:Lib/Camera_Middleware/ISP_Library/isp/Src/isp_services.c ****     colorConvConfig.RG = To_CConv_Reg(pConfig->coeff[0][1]);
 3269              		.loc 1 1022 26
 3270 00ae 3B68     		ldr	r3, [r7]
 3271 00b0 9B68     		ldr	r3, [r3, #8]
 3272 00b2 1846     		mov	r0, r3
 3273 00b4 FFF7FEFF 		bl	To_CConv_Reg
 3274 00b8 0346     		mov	r3, r0
 3275              		.loc 1 1022 24 discriminator 1
 3276 00ba BB81     		strh	r3, [r7, #12]	@ movhi
1023:Lib/Camera_Middleware/ISP_Library/isp/Src/isp_services.c ****     colorConvConfig.RB = To_CConv_Reg(pConfig->coeff[0][2]);
 3277              		.loc 1 1023 26
 3278 00bc 3B68     		ldr	r3, [r7]
 3279 00be DB68     		ldr	r3, [r3, #12]
 3280 00c0 1846     		mov	r0, r3
 3281 00c2 FFF7FEFF 		bl	To_CConv_Reg
 3282 00c6 0346     		mov	r3, r0
 3283              		.loc 1 1023 24 discriminator 1
 3284 00c8 FB81     		strh	r3, [r7, #14]	@ movhi
1024:Lib/Camera_Middleware/ISP_Library/isp/Src/isp_services.c ****     colorConvConfig.GR = To_CConv_Reg(pConfig->coeff[1][0]);
 3285              		.loc 1 1024 26
 3286 00ca 3B68     		ldr	r3, [r7]
 3287 00cc 1B69     		ldr	r3, [r3, #16]
 3288 00ce 1846     		mov	r0, r3
 3289 00d0 FFF7FEFF 		bl	To_CConv_Reg
 3290 00d4 0346     		mov	r3, r0
 3291              		.loc 1 1024 24 discriminator 1
 3292 00d6 7B82     		strh	r3, [r7, #18]	@ movhi
1025:Lib/Camera_Middleware/ISP_Library/isp/Src/isp_services.c ****     colorConvConfig.GG = To_CConv_Reg(pConfig->coeff[1][1]);
 3293              		.loc 1 1025 26
 3294 00d8 3B68     		ldr	r3, [r7]
 3295 00da 5B69     		ldr	r3, [r3, #20]
 3296 00dc 1846     		mov	r0, r3
ARM GAS  /tmp/ccKI94Jd.s 			page 77


 3297 00de FFF7FEFF 		bl	To_CConv_Reg
 3298 00e2 0346     		mov	r3, r0
 3299              		.loc 1 1025 24 discriminator 1
 3300 00e4 BB82     		strh	r3, [r7, #20]	@ movhi
1026:Lib/Camera_Middleware/ISP_Library/isp/Src/isp_services.c ****     colorConvConfig.GB = To_CConv_Reg(pConfig->coeff[1][2]);
 3301              		.loc 1 1026 26
 3302 00e6 3B68     		ldr	r3, [r7]
 3303 00e8 9B69     		ldr	r3, [r3, #24]
 3304 00ea 1846     		mov	r0, r3
 3305 00ec FFF7FEFF 		bl	To_CConv_Reg
 3306 00f0 0346     		mov	r3, r0
 3307              		.loc 1 1026 24 discriminator 1
 3308 00f2 FB82     		strh	r3, [r7, #22]	@ movhi
1027:Lib/Camera_Middleware/ISP_Library/isp/Src/isp_services.c ****     colorConvConfig.BR = To_CConv_Reg(pConfig->coeff[2][0]);
 3309              		.loc 1 1027 26
 3310 00f4 3B68     		ldr	r3, [r7]
 3311 00f6 DB69     		ldr	r3, [r3, #28]
 3312 00f8 1846     		mov	r0, r3
 3313 00fa FFF7FEFF 		bl	To_CConv_Reg
 3314 00fe 0346     		mov	r3, r0
 3315              		.loc 1 1027 24 discriminator 1
 3316 0100 7B83     		strh	r3, [r7, #26]	@ movhi
1028:Lib/Camera_Middleware/ISP_Library/isp/Src/isp_services.c ****     colorConvConfig.BG = To_CConv_Reg(pConfig->coeff[2][1]);
 3317              		.loc 1 1028 26
 3318 0102 3B68     		ldr	r3, [r7]
 3319 0104 1B6A     		ldr	r3, [r3, #32]
 3320 0106 1846     		mov	r0, r3
 3321 0108 FFF7FEFF 		bl	To_CConv_Reg
 3322 010c 0346     		mov	r3, r0
 3323              		.loc 1 1028 24 discriminator 1
 3324 010e BB83     		strh	r3, [r7, #28]	@ movhi
1029:Lib/Camera_Middleware/ISP_Library/isp/Src/isp_services.c ****     colorConvConfig.BB = To_CConv_Reg(pConfig->coeff[2][2]);
 3325              		.loc 1 1029 26
 3326 0110 3B68     		ldr	r3, [r7]
 3327 0112 5B6A     		ldr	r3, [r3, #36]
 3328 0114 1846     		mov	r0, r3
 3329 0116 FFF7FEFF 		bl	To_CConv_Reg
 3330 011a 0346     		mov	r3, r0
 3331              		.loc 1 1029 24 discriminator 1
 3332 011c FB83     		strh	r3, [r7, #30]	@ movhi
1030:Lib/Camera_Middleware/ISP_Library/isp/Src/isp_services.c ****     halStatus = HAL_DCMIPP_PIPE_SetISPColorConversionConfig(hIsp->hDcmipp, DCMIPP_PIPE1, &colorConv
 3333              		.loc 1 1030 65
 3334 011e 7B68     		ldr	r3, [r7, #4]
 3335 0120 1B68     		ldr	r3, [r3]
 3336              		.loc 1 1030 17
 3337 0122 07F10802 		add	r2, r7, #8
 3338 0126 0121     		movs	r1, #1
 3339 0128 1846     		mov	r0, r3
 3340 012a FFF7FEFF 		bl	HAL_DCMIPP_PIPE_SetISPColorConversionConfig
 3341 012e 0346     		mov	r3, r0
 3342 0130 87F82F30 		strb	r3, [r7, #47]
1031:Lib/Camera_Middleware/ISP_Library/isp/Src/isp_services.c **** 
1032:Lib/Camera_Middleware/ISP_Library/isp/Src/isp_services.c ****     if (halStatus == HAL_OK)
 3343              		.loc 1 1032 8
 3344 0134 97F82F30 		ldrb	r3, [r7, #47]	@ zero_extendqisi2
 3345 0138 002B     		cmp	r3, #0
 3346 013a 08D1     		bne	.L219
ARM GAS  /tmp/ccKI94Jd.s 			page 78


1033:Lib/Camera_Middleware/ISP_Library/isp/Src/isp_services.c ****     {
1034:Lib/Camera_Middleware/ISP_Library/isp/Src/isp_services.c ****       halStatus = HAL_DCMIPP_PIPE_EnableISPColorConversion(hIsp->hDcmipp, DCMIPP_PIPE1);
 3347              		.loc 1 1034 64
 3348 013c 7B68     		ldr	r3, [r7, #4]
 3349 013e 1B68     		ldr	r3, [r3]
 3350              		.loc 1 1034 19
 3351 0140 0121     		movs	r1, #1
 3352 0142 1846     		mov	r0, r3
 3353 0144 FFF7FEFF 		bl	HAL_DCMIPP_PIPE_EnableISPColorConversion
 3354 0148 0346     		mov	r3, r0
 3355 014a 87F82F30 		strb	r3, [r7, #47]
 3356              	.L219:
1035:Lib/Camera_Middleware/ISP_Library/isp/Src/isp_services.c ****     }
1036:Lib/Camera_Middleware/ISP_Library/isp/Src/isp_services.c ****   }
1037:Lib/Camera_Middleware/ISP_Library/isp/Src/isp_services.c **** 
1038:Lib/Camera_Middleware/ISP_Library/isp/Src/isp_services.c ****   if (halStatus != HAL_OK)
 3357              		.loc 1 1038 6
 3358 014e 97F82F30 		ldrb	r3, [r7, #47]	@ zero_extendqisi2
 3359 0152 002B     		cmp	r3, #0
 3360 0154 01D0     		beq	.L220
1039:Lib/Camera_Middleware/ISP_Library/isp/Src/isp_services.c ****   {
1040:Lib/Camera_Middleware/ISP_Library/isp/Src/isp_services.c ****     return ISP_ERR_COLORCONV_HAL;
 3361              		.loc 1 1040 12
 3362 0156 5B23     		movs	r3, #91
 3363 0158 00E0     		b	.L221
 3364              	.L220:
1041:Lib/Camera_Middleware/ISP_Library/isp/Src/isp_services.c ****   }
1042:Lib/Camera_Middleware/ISP_Library/isp/Src/isp_services.c **** 
1043:Lib/Camera_Middleware/ISP_Library/isp/Src/isp_services.c ****   return ISP_OK;
 3365              		.loc 1 1043 10
 3366 015a 0023     		movs	r3, #0
 3367              	.L221:
1044:Lib/Camera_Middleware/ISP_Library/isp/Src/isp_services.c **** }
 3368              		.loc 1 1044 1
 3369 015c 1846     		mov	r0, r3
 3370 015e 3037     		adds	r7, r7, #48
 3371              		.cfi_def_cfa_offset 8
 3372 0160 BD46     		mov	sp, r7
 3373              		.cfi_def_cfa_register 13
 3374              		@ sp needed
 3375 0162 80BD     		pop	{r7, pc}
 3376              	.L223:
 3377              		.align	2
 3378              	.L222:
 3379 0164 C041C817 		.word	399000000
 3380 0168 40BE37E8 		.word	-399000000
 3381              		.cfi_endproc
 3382              	.LFE863:
 3384              		.section	.text.ISP_SVC_ISP_GetColorConv,"ax",%progbits
 3385              		.align	1
 3386              		.global	ISP_SVC_ISP_GetColorConv
 3387              		.syntax unified
 3388              		.thumb
 3389              		.thumb_func
 3391              	ISP_SVC_ISP_GetColorConv:
 3392              	.LFB864:
1045:Lib/Camera_Middleware/ISP_Library/isp/Src/isp_services.c **** 
ARM GAS  /tmp/ccKI94Jd.s 			page 79


1046:Lib/Camera_Middleware/ISP_Library/isp/Src/isp_services.c **** /**
1047:Lib/Camera_Middleware/ISP_Library/isp/Src/isp_services.c ****   * @brief  ISP_SVC_ISP_GetColorConv
1048:Lib/Camera_Middleware/ISP_Library/isp/Src/isp_services.c ****   *         Get the ISP Color Conversion
1049:Lib/Camera_Middleware/ISP_Library/isp/Src/isp_services.c ****   * @param  hIsp: ISP device handle
1050:Lib/Camera_Middleware/ISP_Library/isp/Src/isp_services.c ****   * @param  pConfig: Pointer to the Color Conversion configuration
1051:Lib/Camera_Middleware/ISP_Library/isp/Src/isp_services.c ****   * @retval operation result
1052:Lib/Camera_Middleware/ISP_Library/isp/Src/isp_services.c ****   */
1053:Lib/Camera_Middleware/ISP_Library/isp/Src/isp_services.c **** ISP_StatusTypeDef ISP_SVC_ISP_GetColorConv(ISP_HandleTypeDef *hIsp, ISP_ColorConvTypeDef *pConfig)
1054:Lib/Camera_Middleware/ISP_Library/isp/Src/isp_services.c **** {
 3393              		.loc 1 1054 1
 3394              		.cfi_startproc
 3395              		@ args = 0, pretend = 0, frame = 40
 3396              		@ frame_needed = 1, uses_anonymous_args = 0
 3397 0000 80B5     		push	{r7, lr}
 3398              		.cfi_def_cfa_offset 8
 3399              		.cfi_offset 7, -8
 3400              		.cfi_offset 14, -4
 3401 0002 8AB0     		sub	sp, sp, #40
 3402              		.cfi_def_cfa_offset 48
 3403 0004 00AF     		add	r7, sp, #0
 3404              		.cfi_def_cfa_register 7
 3405 0006 7860     		str	r0, [r7, #4]
 3406 0008 3960     		str	r1, [r7]
1055:Lib/Camera_Middleware/ISP_Library/isp/Src/isp_services.c ****   DCMIPP_ColorConversionConfTypeDef colorConvConfig;
1056:Lib/Camera_Middleware/ISP_Library/isp/Src/isp_services.c **** 
1057:Lib/Camera_Middleware/ISP_Library/isp/Src/isp_services.c ****   /* Check handle validity */
1058:Lib/Camera_Middleware/ISP_Library/isp/Src/isp_services.c ****   if ((hIsp == NULL) || (pConfig == NULL))
 3407              		.loc 1 1058 6
 3408 000a 7B68     		ldr	r3, [r7, #4]
 3409 000c 002B     		cmp	r3, #0
 3410 000e 02D0     		beq	.L225
 3411              		.loc 1 1058 22 discriminator 1
 3412 0010 3B68     		ldr	r3, [r7]
 3413 0012 002B     		cmp	r3, #0
 3414 0014 01D1     		bne	.L226
 3415              	.L225:
1059:Lib/Camera_Middleware/ISP_Library/isp/Src/isp_services.c ****   {
1060:Lib/Camera_Middleware/ISP_Library/isp/Src/isp_services.c ****     return ISP_ERR_COLORCONV_EINVAL;
 3416              		.loc 1 1060 12
 3417 0016 5A23     		movs	r3, #90
 3418 0018 5AE0     		b	.L228
 3419              	.L226:
1061:Lib/Camera_Middleware/ISP_Library/isp/Src/isp_services.c ****   }
1062:Lib/Camera_Middleware/ISP_Library/isp/Src/isp_services.c **** 
1063:Lib/Camera_Middleware/ISP_Library/isp/Src/isp_services.c ****   pConfig->enable = HAL_DCMIPP_PIPE_IsEnabledISPColorConversion(hIsp->hDcmipp, DCMIPP_PIPE1);
 3420              		.loc 1 1063 69
 3421 001a 7B68     		ldr	r3, [r7, #4]
 3422 001c 1B68     		ldr	r3, [r3]
 3423              		.loc 1 1063 21
 3424 001e 0121     		movs	r1, #1
 3425 0020 1846     		mov	r0, r3
 3426 0022 FFF7FEFF 		bl	HAL_DCMIPP_PIPE_IsEnabledISPColorConversion
 3427 0026 0346     		mov	r3, r0
 3428              		.loc 1 1063 19 discriminator 1
 3429 0028 DAB2     		uxtb	r2, r3
 3430 002a 3B68     		ldr	r3, [r7]
 3431 002c 1A70     		strb	r2, [r3]
ARM GAS  /tmp/ccKI94Jd.s 			page 80


1064:Lib/Camera_Middleware/ISP_Library/isp/Src/isp_services.c **** 
1065:Lib/Camera_Middleware/ISP_Library/isp/Src/isp_services.c ****   HAL_DCMIPP_PIPE_GetISPColorConversionConfig(hIsp->hDcmipp, DCMIPP_PIPE1, &colorConvConfig);
 3432              		.loc 1 1065 51
 3433 002e 7B68     		ldr	r3, [r7, #4]
 3434 0030 1B68     		ldr	r3, [r3]
 3435              		.loc 1 1065 3
 3436 0032 07F10C02 		add	r2, r7, #12
 3437 0036 0121     		movs	r1, #1
 3438 0038 1846     		mov	r0, r3
 3439 003a FFF7FEFF 		bl	HAL_DCMIPP_PIPE_GetISPColorConversionConfig
1066:Lib/Camera_Middleware/ISP_Library/isp/Src/isp_services.c **** 
1067:Lib/Camera_Middleware/ISP_Library/isp/Src/isp_services.c ****   pConfig->coeff[0][0] = From_CConv_Reg(colorConvConfig.RR);
 3440              		.loc 1 1067 26
 3441 003e B7F90E30 		ldrsh	r3, [r7, #14]
 3442 0042 1846     		mov	r0, r3
 3443 0044 FFF7FEFF 		bl	From_CConv_Reg
 3444 0048 0246     		mov	r2, r0
 3445              		.loc 1 1067 24 discriminator 1
 3446 004a 3B68     		ldr	r3, [r7]
 3447 004c 5A60     		str	r2, [r3, #4]
1068:Lib/Camera_Middleware/ISP_Library/isp/Src/isp_services.c ****   pConfig->coeff[0][1] = From_CConv_Reg(colorConvConfig.RG);
 3448              		.loc 1 1068 26
 3449 004e B7F91030 		ldrsh	r3, [r7, #16]
 3450 0052 1846     		mov	r0, r3
 3451 0054 FFF7FEFF 		bl	From_CConv_Reg
 3452 0058 0246     		mov	r2, r0
 3453              		.loc 1 1068 24 discriminator 1
 3454 005a 3B68     		ldr	r3, [r7]
 3455 005c 9A60     		str	r2, [r3, #8]
1069:Lib/Camera_Middleware/ISP_Library/isp/Src/isp_services.c ****   pConfig->coeff[0][2] = From_CConv_Reg(colorConvConfig.RB);
 3456              		.loc 1 1069 26
 3457 005e B7F91230 		ldrsh	r3, [r7, #18]
 3458 0062 1846     		mov	r0, r3
 3459 0064 FFF7FEFF 		bl	From_CConv_Reg
 3460 0068 0246     		mov	r2, r0
 3461              		.loc 1 1069 24 discriminator 1
 3462 006a 3B68     		ldr	r3, [r7]
 3463 006c DA60     		str	r2, [r3, #12]
1070:Lib/Camera_Middleware/ISP_Library/isp/Src/isp_services.c ****   pConfig->coeff[1][0] = From_CConv_Reg(colorConvConfig.GR);
 3464              		.loc 1 1070 26
 3465 006e B7F91630 		ldrsh	r3, [r7, #22]
 3466 0072 1846     		mov	r0, r3
 3467 0074 FFF7FEFF 		bl	From_CConv_Reg
 3468 0078 0246     		mov	r2, r0
 3469              		.loc 1 1070 24 discriminator 1
 3470 007a 3B68     		ldr	r3, [r7]
 3471 007c 1A61     		str	r2, [r3, #16]
1071:Lib/Camera_Middleware/ISP_Library/isp/Src/isp_services.c ****   pConfig->coeff[1][1] = From_CConv_Reg(colorConvConfig.GG);
 3472              		.loc 1 1071 26
 3473 007e B7F91830 		ldrsh	r3, [r7, #24]
 3474 0082 1846     		mov	r0, r3
 3475 0084 FFF7FEFF 		bl	From_CConv_Reg
 3476 0088 0246     		mov	r2, r0
 3477              		.loc 1 1071 24 discriminator 1
 3478 008a 3B68     		ldr	r3, [r7]
 3479 008c 5A61     		str	r2, [r3, #20]
1072:Lib/Camera_Middleware/ISP_Library/isp/Src/isp_services.c ****   pConfig->coeff[1][2] = From_CConv_Reg(colorConvConfig.GB);
ARM GAS  /tmp/ccKI94Jd.s 			page 81


 3480              		.loc 1 1072 26
 3481 008e B7F91A30 		ldrsh	r3, [r7, #26]
 3482 0092 1846     		mov	r0, r3
 3483 0094 FFF7FEFF 		bl	From_CConv_Reg
 3484 0098 0246     		mov	r2, r0
 3485              		.loc 1 1072 24 discriminator 1
 3486 009a 3B68     		ldr	r3, [r7]
 3487 009c 9A61     		str	r2, [r3, #24]
1073:Lib/Camera_Middleware/ISP_Library/isp/Src/isp_services.c ****   pConfig->coeff[2][0] = From_CConv_Reg(colorConvConfig.BR);
 3488              		.loc 1 1073 26
 3489 009e B7F91E30 		ldrsh	r3, [r7, #30]
 3490 00a2 1846     		mov	r0, r3
 3491 00a4 FFF7FEFF 		bl	From_CConv_Reg
 3492 00a8 0246     		mov	r2, r0
 3493              		.loc 1 1073 24 discriminator 1
 3494 00aa 3B68     		ldr	r3, [r7]
 3495 00ac DA61     		str	r2, [r3, #28]
1074:Lib/Camera_Middleware/ISP_Library/isp/Src/isp_services.c ****   pConfig->coeff[2][1] = From_CConv_Reg(colorConvConfig.BG);
 3496              		.loc 1 1074 26
 3497 00ae B7F92030 		ldrsh	r3, [r7, #32]
 3498 00b2 1846     		mov	r0, r3
 3499 00b4 FFF7FEFF 		bl	From_CConv_Reg
 3500 00b8 0246     		mov	r2, r0
 3501              		.loc 1 1074 24 discriminator 1
 3502 00ba 3B68     		ldr	r3, [r7]
 3503 00bc 1A62     		str	r2, [r3, #32]
1075:Lib/Camera_Middleware/ISP_Library/isp/Src/isp_services.c ****   pConfig->coeff[2][2] = From_CConv_Reg(colorConvConfig.BB);
 3504              		.loc 1 1075 26
 3505 00be B7F92230 		ldrsh	r3, [r7, #34]
 3506 00c2 1846     		mov	r0, r3
 3507 00c4 FFF7FEFF 		bl	From_CConv_Reg
 3508 00c8 0246     		mov	r2, r0
 3509              		.loc 1 1075 24 discriminator 1
 3510 00ca 3B68     		ldr	r3, [r7]
 3511 00cc 5A62     		str	r2, [r3, #36]
1076:Lib/Camera_Middleware/ISP_Library/isp/Src/isp_services.c **** 
1077:Lib/Camera_Middleware/ISP_Library/isp/Src/isp_services.c ****   return ISP_OK;
 3512              		.loc 1 1077 10
 3513 00ce 0023     		movs	r3, #0
 3514              	.L228:
1078:Lib/Camera_Middleware/ISP_Library/isp/Src/isp_services.c **** }
 3515              		.loc 1 1078 1
 3516 00d0 1846     		mov	r0, r3
 3517 00d2 2837     		adds	r7, r7, #40
 3518              		.cfi_def_cfa_offset 8
 3519 00d4 BD46     		mov	sp, r7
 3520              		.cfi_def_cfa_register 13
 3521              		@ sp needed
 3522 00d6 80BD     		pop	{r7, pc}
 3523              		.cfi_endproc
 3524              	.LFE864:
 3526              		.section	.text.ISP_SVC_Sensor_GetInfo,"ax",%progbits
 3527              		.align	1
 3528              		.global	ISP_SVC_Sensor_GetInfo
 3529              		.syntax unified
 3530              		.thumb
 3531              		.thumb_func
ARM GAS  /tmp/ccKI94Jd.s 			page 82


 3533              	ISP_SVC_Sensor_GetInfo:
 3534              	.LFB865:
1079:Lib/Camera_Middleware/ISP_Library/isp/Src/isp_services.c **** 
1080:Lib/Camera_Middleware/ISP_Library/isp/Src/isp_services.c **** /**
1081:Lib/Camera_Middleware/ISP_Library/isp/Src/isp_services.c ****   * @brief  ISP_SVC_Sensor_GetInfo
1082:Lib/Camera_Middleware/ISP_Library/isp/Src/isp_services.c ****   *         Get the sensor info
1083:Lib/Camera_Middleware/ISP_Library/isp/Src/isp_services.c ****   * @param  hIsp: ISP device handle
1084:Lib/Camera_Middleware/ISP_Library/isp/Src/isp_services.c ****   * @param  pConfig: Pointer to the sensor info
1085:Lib/Camera_Middleware/ISP_Library/isp/Src/isp_services.c ****   * @retval operation result
1086:Lib/Camera_Middleware/ISP_Library/isp/Src/isp_services.c ****   */
1087:Lib/Camera_Middleware/ISP_Library/isp/Src/isp_services.c **** ISP_StatusTypeDef ISP_SVC_Sensor_GetInfo(ISP_HandleTypeDef *hIsp, ISP_SensorInfoTypeDef *pConfig)
1088:Lib/Camera_Middleware/ISP_Library/isp/Src/isp_services.c **** {
 3535              		.loc 1 1088 1
 3536              		.cfi_startproc
 3537              		@ args = 0, pretend = 0, frame = 8
 3538              		@ frame_needed = 1, uses_anonymous_args = 0
 3539 0000 80B5     		push	{r7, lr}
 3540              		.cfi_def_cfa_offset 8
 3541              		.cfi_offset 7, -8
 3542              		.cfi_offset 14, -4
 3543 0002 82B0     		sub	sp, sp, #8
 3544              		.cfi_def_cfa_offset 16
 3545 0004 00AF     		add	r7, sp, #0
 3546              		.cfi_def_cfa_register 7
 3547 0006 7860     		str	r0, [r7, #4]
 3548 0008 3960     		str	r1, [r7]
1089:Lib/Camera_Middleware/ISP_Library/isp/Src/isp_services.c ****   /* Check handle validity */
1090:Lib/Camera_Middleware/ISP_Library/isp/Src/isp_services.c ****   if ((hIsp == NULL) || (pConfig == NULL))
 3549              		.loc 1 1090 6
 3550 000a 7B68     		ldr	r3, [r7, #4]
 3551 000c 002B     		cmp	r3, #0
 3552 000e 02D0     		beq	.L230
 3553              		.loc 1 1090 22 discriminator 1
 3554 0010 3B68     		ldr	r3, [r7]
 3555 0012 002B     		cmp	r3, #0
 3556 0014 01D1     		bne	.L231
 3557              	.L230:
1091:Lib/Camera_Middleware/ISP_Library/isp/Src/isp_services.c ****   {
1092:Lib/Camera_Middleware/ISP_Library/isp/Src/isp_services.c ****     return ISP_ERR_SENSORINFO_EINVAL;
 3558              		.loc 1 1092 12
 3559 0016 6E23     		movs	r3, #110
 3560 0018 10E0     		b	.L232
 3561              	.L231:
1093:Lib/Camera_Middleware/ISP_Library/isp/Src/isp_services.c ****   }
1094:Lib/Camera_Middleware/ISP_Library/isp/Src/isp_services.c **** 
1095:Lib/Camera_Middleware/ISP_Library/isp/Src/isp_services.c ****   if (hIsp->appliHelpers.GetSensorInfo != NULL)
 3562              		.loc 1 1095 25
 3563 001a 7B68     		ldr	r3, [r7, #4]
 3564 001c 9B6A     		ldr	r3, [r3, #40]
 3565              		.loc 1 1095 6
 3566 001e 002B     		cmp	r3, #0
 3567 0020 0BD0     		beq	.L233
1096:Lib/Camera_Middleware/ISP_Library/isp/Src/isp_services.c ****   {
1097:Lib/Camera_Middleware/ISP_Library/isp/Src/isp_services.c ****     if (hIsp->appliHelpers.GetSensorInfo(hIsp->cameraInstance, pConfig) != 0)
 3568              		.loc 1 1097 27
 3569 0022 7B68     		ldr	r3, [r7, #4]
 3570 0024 9B6A     		ldr	r3, [r3, #40]
ARM GAS  /tmp/ccKI94Jd.s 			page 83


 3571              		.loc 1 1097 9
 3572 0026 7A68     		ldr	r2, [r7, #4]
 3573 0028 5268     		ldr	r2, [r2, #4]
 3574 002a 3968     		ldr	r1, [r7]
 3575 002c 1046     		mov	r0, r2
 3576 002e 9847     		blx	r3
 3577              	.LVL0:
 3578 0030 0346     		mov	r3, r0
 3579              		.loc 1 1097 8 discriminator 1
 3580 0032 002B     		cmp	r3, #0
 3581 0034 01D0     		beq	.L233
1098:Lib/Camera_Middleware/ISP_Library/isp/Src/isp_services.c ****     {
1099:Lib/Camera_Middleware/ISP_Library/isp/Src/isp_services.c ****       return ISP_ERR_SENSORINFO;
 3582              		.loc 1 1099 14
 3583 0036 6F23     		movs	r3, #111
 3584 0038 00E0     		b	.L232
 3585              	.L233:
