ARM GAS  /tmp/ccodgxQi.s 			page 1


   1              		.arch armv8.1-m.main
   2              		.fpu fpv5-d16
   3              		.arch_extension dsp
   4              		.arch_extension fp
   5              		.arch_extension fp.dp
   6              		.arch_extension mve
   7              		.arch_extension mve.fp
   8              		.eabi_attribute 5, "cortex-m55"
   9              		.eabi_attribute 28, 1
  10              		.eabi_attribute 20, 1
  11              		.eabi_attribute 21, 1
  12              		.eabi_attribute 23, 3
  13              		.eabi_attribute 24, 1
  14              		.eabi_attribute 25, 1
  15              		.eabi_attribute 26, 1
  16              		.eabi_attribute 30, 6
  17              		.eabi_attribute 34, 1
  18              		.eabi_attribute 38, 1
  19              		.eabi_attribute 18, 4
  20              		.file	"isp_core.c"
  21              		.text
  22              	.Ltext0:
  23              		.cfi_sections	.debug_frame
  24              		.file 1 "Lib/Camera_Middleware/ISP_Library/isp/Src/isp_core.c"
  25              		.section	.rodata
  26              		.align	2
  27              	.LC0:
  28 0000 494E464F 		.ascii	"INFO: GetSensorInfo helper function is not implemen"
  28      3A204765 
  28      7453656E 
  28      736F7249 
  28      6E666F20 
  29 0033 7465640D 		.ascii	"ted\015\000"
  29      00
  30              		.align	2
  31              	.LC1:
  32 0038 494E464F 		.ascii	"INFO: SetSensorGain helper function is not implemen"
  32      3A205365 
  32      7453656E 
  32      736F7247 
  32      61696E20 
  33 006b 7465640D 		.ascii	"ted\015\000"
  33      00
  34              		.align	2
  35              	.LC2:
  36 0070 494E464F 		.ascii	"INFO: GetSensorGain helper function is not implemen"
  36      3A204765 
  36      7453656E 
  36      736F7247 
  36      61696E20 
  37 00a3 7465640D 		.ascii	"ted\015\000"
  37      00
  38              		.align	2
  39              	.LC3:
  40 00a8 494E464F 		.ascii	"INFO: SetSensorExposure helper function is not impl"
  40      3A205365 
  40      7453656E 
ARM GAS  /tmp/ccodgxQi.s 			page 2


  40      736F7245 
  40      78706F73 
  41 00db 656D656E 		.ascii	"emented\015\000"
  41      7465640D 
  41      00
  42              		.align	2
  43              	.LC4:
  44 00e4 494E464F 		.ascii	"INFO: GetSensorExposure helper function is not impl"
  44      3A204765 
  44      7453656E 
  44      736F7245 
  44      78706F73 
  45 0117 656D656E 		.ascii	"emented\015\000"
  45      7465640D 
  45      00
  46              		.align	2
  47              	.LC5:
  48 0120 4552524F 		.ascii	"ERROR: No possible decimation factor to target ISP "
  48      523A204E 
  48      6F20706F 
  48      73736962 
  48      6C652064 
  49 0153 52415720 		.ascii	"RAW width constraint\015\000"
  49      77696474 
  49      6820636F 
  49      6E737472 
  49      61696E74 
  50              		.section	.text.ISP_Init,"ax",%progbits
  51              		.align	1
  52              		.global	ISP_Init
  53              		.syntax unified
  54              		.thumb
  55              		.thumb_func
  57              	ISP_Init:
  58              	.LFB838:
   1:Lib/Camera_Middleware/ISP_Library/isp/Src/isp_core.c **** /**
   2:Lib/Camera_Middleware/ISP_Library/isp/Src/isp_core.c ****  ******************************************************************************
   3:Lib/Camera_Middleware/ISP_Library/isp/Src/isp_core.c ****  * @file    isp_core.c
   4:Lib/Camera_Middleware/ISP_Library/isp/Src/isp_core.c ****  * @author  AIS Application Team
   5:Lib/Camera_Middleware/ISP_Library/isp/Src/isp_core.c ****  * @brief   API and CORE parts of the ISP middleware
   6:Lib/Camera_Middleware/ISP_Library/isp/Src/isp_core.c ****  ******************************************************************************
   7:Lib/Camera_Middleware/ISP_Library/isp/Src/isp_core.c ****  * @attention
   8:Lib/Camera_Middleware/ISP_Library/isp/Src/isp_core.c ****  *
   9:Lib/Camera_Middleware/ISP_Library/isp/Src/isp_core.c ****  * Copyright (c) 2023 STMicroelectronics.
  10:Lib/Camera_Middleware/ISP_Library/isp/Src/isp_core.c ****  * All rights reserved.
  11:Lib/Camera_Middleware/ISP_Library/isp/Src/isp_core.c ****  *
  12:Lib/Camera_Middleware/ISP_Library/isp/Src/isp_core.c ****  * This software is licensed under terms that can be found in the LICENSE file
  13:Lib/Camera_Middleware/ISP_Library/isp/Src/isp_core.c ****  * in the root directory of this software component.
  14:Lib/Camera_Middleware/ISP_Library/isp/Src/isp_core.c ****  * If no LICENSE file comes with this software, it is provided AS-IS.
  15:Lib/Camera_Middleware/ISP_Library/isp/Src/isp_core.c ****  *
  16:Lib/Camera_Middleware/ISP_Library/isp/Src/isp_core.c ****  ******************************************************************************
  17:Lib/Camera_Middleware/ISP_Library/isp/Src/isp_core.c ****  */
  18:Lib/Camera_Middleware/ISP_Library/isp/Src/isp_core.c **** 
  19:Lib/Camera_Middleware/ISP_Library/isp/Src/isp_core.c **** /* Includes ------------------------------------------------------------------*/
  20:Lib/Camera_Middleware/ISP_Library/isp/Src/isp_core.c **** #include "isp_core.h"
  21:Lib/Camera_Middleware/ISP_Library/isp/Src/isp_core.c **** #include "isp_api.h"
  22:Lib/Camera_Middleware/ISP_Library/isp/Src/isp_core.c **** #include "isp_services.h"
ARM GAS  /tmp/ccodgxQi.s 			page 3


  23:Lib/Camera_Middleware/ISP_Library/isp/Src/isp_core.c **** #include "isp_algo.h"
  24:Lib/Camera_Middleware/ISP_Library/isp/Src/isp_core.c **** #ifdef ISP_MW_TUNING_TOOL_SUPPORT
  25:Lib/Camera_Middleware/ISP_Library/isp/Src/isp_core.c **** #include "isp_tool_com.h"
  26:Lib/Camera_Middleware/ISP_Library/isp/Src/isp_core.c **** #include "isp_cmd_parser.h"
  27:Lib/Camera_Middleware/ISP_Library/isp/Src/isp_core.c **** #endif
  28:Lib/Camera_Middleware/ISP_Library/isp/Src/isp_core.c **** #include <math.h>
  29:Lib/Camera_Middleware/ISP_Library/isp/Src/isp_core.c **** 
  30:Lib/Camera_Middleware/ISP_Library/isp/Src/isp_core.c **** /* Private types -------------------------------------------------------------*/
  31:Lib/Camera_Middleware/ISP_Library/isp/Src/isp_core.c **** /* Private constants ---------------------------------------------------------*/
  32:Lib/Camera_Middleware/ISP_Library/isp/Src/isp_core.c **** /* Private macro -------------------------------------------------------------*/
  33:Lib/Camera_Middleware/ISP_Library/isp/Src/isp_core.c **** /* Private function prototypes -----------------------------------------------*/
  34:Lib/Camera_Middleware/ISP_Library/isp/Src/isp_core.c **** /* Private variables ---------------------------------------------------------*/
  35:Lib/Camera_Middleware/ISP_Library/isp/Src/isp_core.c **** /* Private functions ---------------------------------------------------------*/
  36:Lib/Camera_Middleware/ISP_Library/isp/Src/isp_core.c **** 
  37:Lib/Camera_Middleware/ISP_Library/isp/Src/isp_core.c **** /* Exported functions --------------------------------------------------------*/
  38:Lib/Camera_Middleware/ISP_Library/isp/Src/isp_core.c **** /**
  39:Lib/Camera_Middleware/ISP_Library/isp/Src/isp_core.c ****   * @brief  ISP_Init
  40:Lib/Camera_Middleware/ISP_Library/isp/Src/isp_core.c ****   *         Initializes the ISP device
  41:Lib/Camera_Middleware/ISP_Library/isp/Src/isp_core.c ****   * @param  hIsp: ISP device handle
  42:Lib/Camera_Middleware/ISP_Library/isp/Src/isp_core.c ****   * @param  hDcmipp: HAL DCMIPP device handle
  43:Lib/Camera_Middleware/ISP_Library/isp/Src/isp_core.c ****   * @param  CameraInstance: BSP camera instance
  44:Lib/Camera_Middleware/ISP_Library/isp/Src/isp_core.c ****   * @param  pAppliHelpers: pointer to application helpers. The application helpers are used
  45:Lib/Camera_Middleware/ISP_Library/isp/Src/isp_core.c ****   *         by the ISP to interact with the application. get/set sensor exp/gain/ and get sensor in
  46:Lib/Camera_Middleware/ISP_Library/isp/Src/isp_core.c ****   *         while the other helpers are optional and can be set to NULL
  47:Lib/Camera_Middleware/ISP_Library/isp/Src/isp_core.c ****   * @param  ISP_IQParamCacheInit: pointer to ISP sensors specific params.
  48:Lib/Camera_Middleware/ISP_Library/isp/Src/isp_core.c ****   *         If NULL, then the statistic area IQ static parameter is used.
  49:Lib/Camera_Middleware/ISP_Library/isp/Src/isp_core.c ****   * @retval ISP status
  50:Lib/Camera_Middleware/ISP_Library/isp/Src/isp_core.c ****   */
  51:Lib/Camera_Middleware/ISP_Library/isp/Src/isp_core.c **** ISP_StatusTypeDef ISP_Init(ISP_HandleTypeDef *hIsp,
  52:Lib/Camera_Middleware/ISP_Library/isp/Src/isp_core.c ****                            void *hDcmipp,
  53:Lib/Camera_Middleware/ISP_Library/isp/Src/isp_core.c ****                            uint32_t CameraInstance,
  54:Lib/Camera_Middleware/ISP_Library/isp/Src/isp_core.c ****                            ISP_AppliHelpersTypeDef *pAppliHelpers,
  55:Lib/Camera_Middleware/ISP_Library/isp/Src/isp_core.c ****                            const ISP_IQParamTypeDef *ISP_IQParamCacheInit)
  56:Lib/Camera_Middleware/ISP_Library/isp/Src/isp_core.c **** {
  59              		.loc 1 56 1
  60              		.cfi_startproc
  61              		@ args = 4, pretend = 0, frame = 24
  62              		@ frame_needed = 1, uses_anonymous_args = 0
  63 0000 B0B5     		push	{r4, r5, r7, lr}
  64              		.cfi_def_cfa_offset 16
  65              		.cfi_offset 4, -16
  66              		.cfi_offset 5, -12
  67              		.cfi_offset 7, -8
  68              		.cfi_offset 14, -4
  69 0002 86B0     		sub	sp, sp, #24
  70              		.cfi_def_cfa_offset 40
  71 0004 00AF     		add	r7, sp, #0
  72              		.cfi_def_cfa_register 7
  73 0006 F860     		str	r0, [r7, #12]
  74 0008 B960     		str	r1, [r7, #8]
  75 000a 7A60     		str	r2, [r7, #4]
  76 000c 3B60     		str	r3, [r7]
  57:Lib/Camera_Middleware/ISP_Library/isp/Src/isp_core.c ****   ISP_StatusTypeDef ret;
  58:Lib/Camera_Middleware/ISP_Library/isp/Src/isp_core.c **** 
  59:Lib/Camera_Middleware/ISP_Library/isp/Src/isp_core.c ****   if ((hIsp == NULL) || (hDcmipp == NULL) || (pAppliHelpers == NULL))
  77              		.loc 1 59 6
  78 000e FB68     		ldr	r3, [r7, #12]
ARM GAS  /tmp/ccodgxQi.s 			page 4


  79 0010 002B     		cmp	r3, #0
  80 0012 05D0     		beq	.L2
  81              		.loc 1 59 22 discriminator 1
  82 0014 BB68     		ldr	r3, [r7, #8]
  83 0016 002B     		cmp	r3, #0
  84 0018 02D0     		beq	.L2
  85              		.loc 1 59 43 discriminator 2
  86 001a 3B68     		ldr	r3, [r7]
  87 001c 002B     		cmp	r3, #0
  88 001e 01D1     		bne	.L3
  89              	.L2:
  60:Lib/Camera_Middleware/ISP_Library/isp/Src/isp_core.c ****   {
  61:Lib/Camera_Middleware/ISP_Library/isp/Src/isp_core.c ****     return ISP_ERR_EINVAL;
  90              		.loc 1 61 12
  91 0020 0123     		movs	r3, #1
  92 0022 A3E0     		b	.L19
  93              	.L3:
  62:Lib/Camera_Middleware/ISP_Library/isp/Src/isp_core.c ****   }
  63:Lib/Camera_Middleware/ISP_Library/isp/Src/isp_core.c **** 
  64:Lib/Camera_Middleware/ISP_Library/isp/Src/isp_core.c ****   memset(hIsp, 0, sizeof(*hIsp));
  94              		.loc 1 64 3
  95 0024 8822     		movs	r2, #136
  96 0026 0021     		movs	r1, #0
  97 0028 F868     		ldr	r0, [r7, #12]
  98 002a FFF7FEFF 		bl	memset
  65:Lib/Camera_Middleware/ISP_Library/isp/Src/isp_core.c **** 
  66:Lib/Camera_Middleware/ISP_Library/isp/Src/isp_core.c **** #ifdef ISP_MW_TUNING_TOOL_SUPPORT
  67:Lib/Camera_Middleware/ISP_Library/isp/Src/isp_core.c ****   ISP_ToolCom_Init();
  68:Lib/Camera_Middleware/ISP_Library/isp/Src/isp_core.c **** #endif
  69:Lib/Camera_Middleware/ISP_Library/isp/Src/isp_core.c **** 
  70:Lib/Camera_Middleware/ISP_Library/isp/Src/isp_core.c ****   hIsp->hDcmipp = hDcmipp;
  99              		.loc 1 70 17
 100 002e FB68     		ldr	r3, [r7, #12]
 101 0030 BA68     		ldr	r2, [r7, #8]
 102 0032 1A60     		str	r2, [r3]
  71:Lib/Camera_Middleware/ISP_Library/isp/Src/isp_core.c ****   hIsp->cameraInstance = CameraInstance;
 103              		.loc 1 71 24
 104 0034 FB68     		ldr	r3, [r7, #12]
 105 0036 7A68     		ldr	r2, [r7, #4]
 106 0038 5A60     		str	r2, [r3, #4]
  72:Lib/Camera_Middleware/ISP_Library/isp/Src/isp_core.c ****   hIsp->MainPipe_FrameCount = 0;
 107              		.loc 1 72 29
 108 003a FB68     		ldr	r3, [r7, #12]
 109 003c 0022     		movs	r2, #0
 110 003e 1A64     		str	r2, [r3, #64]
  73:Lib/Camera_Middleware/ISP_Library/isp/Src/isp_core.c ****   hIsp->AncillaryPipe_FrameCount = 0;
 111              		.loc 1 73 34
 112 0040 FB68     		ldr	r3, [r7, #12]
 113 0042 0022     		movs	r2, #0
 114 0044 5A64     		str	r2, [r3, #68]
  74:Lib/Camera_Middleware/ISP_Library/isp/Src/isp_core.c ****   hIsp->DumpPipe_FrameCount = 0;
 115              		.loc 1 74 29
 116 0046 FB68     		ldr	r3, [r7, #12]
 117 0048 0022     		movs	r2, #0
 118 004a 9A64     		str	r2, [r3, #72]
  75:Lib/Camera_Middleware/ISP_Library/isp/Src/isp_core.c **** 
  76:Lib/Camera_Middleware/ISP_Library/isp/Src/isp_core.c ****   hIsp->appliHelpers = *pAppliHelpers;
ARM GAS  /tmp/ccodgxQi.s 			page 5


 119              		.loc 1 76 22
 120 004c FB68     		ldr	r3, [r7, #12]
 121 004e 3A68     		ldr	r2, [r7]
 122 0050 03F11C04 		add	r4, r3, #28
 123 0054 1546     		mov	r5, r2
 124 0056 0FCD     		ldmia	r5!, {r0, r1, r2, r3}
 125 0058 0FC4     		stmia	r4!, {r0, r1, r2, r3}
 126 005a 0FCD     		ldmia	r5!, {r0, r1, r2, r3}
 127 005c 0FC4     		stmia	r4!, {r0, r1, r2, r3}
 128 005e 2B68     		ldr	r3, [r5]
 129 0060 2360     		str	r3, [r4]
  77:Lib/Camera_Middleware/ISP_Library/isp/Src/isp_core.c ****   /* Appli CB is mandatory for the sensor get/set exp/gain function */
  78:Lib/Camera_Middleware/ISP_Library/isp/Src/isp_core.c ****   if (hIsp->appliHelpers.GetSensorInfo == NULL)
 130              		.loc 1 78 25
 131 0062 FB68     		ldr	r3, [r7, #12]
 132 0064 9B6A     		ldr	r3, [r3, #40]
 133              		.loc 1 78 6
 134 0066 002B     		cmp	r3, #0
 135 0068 04D1     		bne	.L5
  79:Lib/Camera_Middleware/ISP_Library/isp/Src/isp_core.c ****   {
  80:Lib/Camera_Middleware/ISP_Library/isp/Src/isp_core.c ****      printf("INFO: GetSensorInfo helper function is not implemented\r\n");
 136              		.loc 1 80 6
 137 006a 4248     		ldr	r0, .L20
 138 006c FFF7FEFF 		bl	puts
  81:Lib/Camera_Middleware/ISP_Library/isp/Src/isp_core.c ****      return ISP_ERR_APP_HELPER_UNDEFINED;
 139              		.loc 1 81 13
 140 0070 B423     		movs	r3, #180
 141 0072 7BE0     		b	.L19
 142              	.L5:
  82:Lib/Camera_Middleware/ISP_Library/isp/Src/isp_core.c ****    }
  83:Lib/Camera_Middleware/ISP_Library/isp/Src/isp_core.c ****   if (hIsp->appliHelpers.SetSensorGain == NULL)
 143              		.loc 1 83 25
 144 0074 FB68     		ldr	r3, [r7, #12]
 145 0076 DB6A     		ldr	r3, [r3, #44]
 146              		.loc 1 83 6
 147 0078 002B     		cmp	r3, #0
 148 007a 04D1     		bne	.L6
  84:Lib/Camera_Middleware/ISP_Library/isp/Src/isp_core.c ****   {
  85:Lib/Camera_Middleware/ISP_Library/isp/Src/isp_core.c ****       printf("INFO: SetSensorGain helper function is not implemented\r\n");
 149              		.loc 1 85 7
 150 007c 3E48     		ldr	r0, .L20+4
 151 007e FFF7FEFF 		bl	puts
  86:Lib/Camera_Middleware/ISP_Library/isp/Src/isp_core.c ****       return ISP_ERR_APP_HELPER_UNDEFINED;
 152              		.loc 1 86 14
 153 0082 B423     		movs	r3, #180
 154 0084 72E0     		b	.L19
 155              	.L6:
  87:Lib/Camera_Middleware/ISP_Library/isp/Src/isp_core.c ****   }
  88:Lib/Camera_Middleware/ISP_Library/isp/Src/isp_core.c ****   if (hIsp->appliHelpers.GetSensorGain == NULL)
 156              		.loc 1 88 25
 157 0086 FB68     		ldr	r3, [r7, #12]
 158 0088 1B6B     		ldr	r3, [r3, #48]
 159              		.loc 1 88 6
 160 008a 002B     		cmp	r3, #0
 161 008c 04D1     		bne	.L7
  89:Lib/Camera_Middleware/ISP_Library/isp/Src/isp_core.c ****   {
  90:Lib/Camera_Middleware/ISP_Library/isp/Src/isp_core.c ****      printf("INFO: GetSensorGain helper function is not implemented\r\n");
ARM GAS  /tmp/ccodgxQi.s 			page 6


 162              		.loc 1 90 6
 163 008e 3B48     		ldr	r0, .L20+8
 164 0090 FFF7FEFF 		bl	puts
  91:Lib/Camera_Middleware/ISP_Library/isp/Src/isp_core.c ****      return ISP_ERR_APP_HELPER_UNDEFINED;
 165              		.loc 1 91 13
 166 0094 B423     		movs	r3, #180
 167 0096 69E0     		b	.L19
 168              	.L7:
  92:Lib/Camera_Middleware/ISP_Library/isp/Src/isp_core.c ****    }
  93:Lib/Camera_Middleware/ISP_Library/isp/Src/isp_core.c ****   if (hIsp->appliHelpers.SetSensorExposure == NULL)
 169              		.loc 1 93 25
 170 0098 FB68     		ldr	r3, [r7, #12]
 171 009a 5B6B     		ldr	r3, [r3, #52]
 172              		.loc 1 93 6
 173 009c 002B     		cmp	r3, #0
 174 009e 04D1     		bne	.L8
  94:Lib/Camera_Middleware/ISP_Library/isp/Src/isp_core.c ****   {
  95:Lib/Camera_Middleware/ISP_Library/isp/Src/isp_core.c ****       printf("INFO: SetSensorExposure helper function is not implemented\r\n");
 175              		.loc 1 95 7
 176 00a0 3748     		ldr	r0, .L20+12
 177 00a2 FFF7FEFF 		bl	puts
  96:Lib/Camera_Middleware/ISP_Library/isp/Src/isp_core.c ****       return ISP_ERR_APP_HELPER_UNDEFINED;
 178              		.loc 1 96 14
 179 00a6 B423     		movs	r3, #180
 180 00a8 60E0     		b	.L19
 181              	.L8:
  97:Lib/Camera_Middleware/ISP_Library/isp/Src/isp_core.c ****   }
  98:Lib/Camera_Middleware/ISP_Library/isp/Src/isp_core.c ****   if (hIsp->appliHelpers.GetSensorExposure == NULL)
 182              		.loc 1 98 25
 183 00aa FB68     		ldr	r3, [r7, #12]
 184 00ac 9B6B     		ldr	r3, [r3, #56]
 185              		.loc 1 98 6
 186 00ae 002B     		cmp	r3, #0
 187 00b0 04D1     		bne	.L9
  99:Lib/Camera_Middleware/ISP_Library/isp/Src/isp_core.c ****   {
 100:Lib/Camera_Middleware/ISP_Library/isp/Src/isp_core.c ****      printf("INFO: GetSensorExposure helper function is not implemented\r\n");
 188              		.loc 1 100 6
 189 00b2 3448     		ldr	r0, .L20+16
 190 00b4 FFF7FEFF 		bl	puts
 101:Lib/Camera_Middleware/ISP_Library/isp/Src/isp_core.c ****      return ISP_ERR_APP_HELPER_UNDEFINED;
 191              		.loc 1 101 13
 192 00b8 B423     		movs	r3, #180
 193 00ba 57E0     		b	.L19
 194              	.L9:
 102:Lib/Camera_Middleware/ISP_Library/isp/Src/isp_core.c ****    }
 103:Lib/Camera_Middleware/ISP_Library/isp/Src/isp_core.c **** 
 104:Lib/Camera_Middleware/ISP_Library/isp/Src/isp_core.c ****   /* Initialize IQ param (read from non volatile memory) */
 105:Lib/Camera_Middleware/ISP_Library/isp/Src/isp_core.c ****   ret = ISP_SVC_IQParam_Init(hIsp, ISP_IQParamCacheInit);
 195              		.loc 1 105 9
 196 00bc B96A     		ldr	r1, [r7, #40]
 197 00be F868     		ldr	r0, [r7, #12]
 198 00c0 FFF7FEFF 		bl	ISP_SVC_IQParam_Init
 199 00c4 0346     		mov	r3, r0
 200 00c6 FB75     		strb	r3, [r7, #23]
 106:Lib/Camera_Middleware/ISP_Library/isp/Src/isp_core.c ****   if (ret != ISP_OK)
 201              		.loc 1 106 6
 202 00c8 FB7D     		ldrb	r3, [r7, #23]	@ zero_extendqisi2
ARM GAS  /tmp/ccodgxQi.s 			page 7


 203 00ca 002B     		cmp	r3, #0
 204 00cc 01D0     		beq	.L10
 107:Lib/Camera_Middleware/ISP_Library/isp/Src/isp_core.c ****   {
 108:Lib/Camera_Middleware/ISP_Library/isp/Src/isp_core.c ****     return ret;
 205              		.loc 1 108 12
 206 00ce FB7D     		ldrb	r3, [r7, #23]	@ zero_extendqisi2
 207 00d0 4CE0     		b	.L19
 208              	.L10:
 109:Lib/Camera_Middleware/ISP_Library/isp/Src/isp_core.c ****   }
 110:Lib/Camera_Middleware/ISP_Library/isp/Src/isp_core.c **** 
 111:Lib/Camera_Middleware/ISP_Library/isp/Src/isp_core.c ****   /* Set decimation configuration */
 112:Lib/Camera_Middleware/ISP_Library/isp/Src/isp_core.c ****   /* Get Sensor Info */
 113:Lib/Camera_Middleware/ISP_Library/isp/Src/isp_core.c ****   ret = ISP_SVC_Sensor_GetInfo(hIsp, &hIsp->sensorInfo);
 209              		.loc 1 113 9
 210 00d2 FB68     		ldr	r3, [r7, #12]
 211 00d4 4C33     		adds	r3, r3, #76
 212 00d6 1946     		mov	r1, r3
 213 00d8 F868     		ldr	r0, [r7, #12]
 214 00da FFF7FEFF 		bl	ISP_SVC_Sensor_GetInfo
 215 00de 0346     		mov	r3, r0
 216 00e0 FB75     		strb	r3, [r7, #23]
 114:Lib/Camera_Middleware/ISP_Library/isp/Src/isp_core.c ****   if (ret != ISP_OK)
 217              		.loc 1 114 6
 218 00e2 FB7D     		ldrb	r3, [r7, #23]	@ zero_extendqisi2
 219 00e4 002B     		cmp	r3, #0
 220 00e6 01D0     		beq	.L11
 115:Lib/Camera_Middleware/ISP_Library/isp/Src/isp_core.c ****   {
 116:Lib/Camera_Middleware/ISP_Library/isp/Src/isp_core.c ****     return ret;
 221              		.loc 1 116 12
 222 00e8 FB7D     		ldrb	r3, [r7, #23]	@ zero_extendqisi2
 223 00ea 3FE0     		b	.L19
 224              	.L11:
 117:Lib/Camera_Middleware/ISP_Library/isp/Src/isp_core.c ****   }
 118:Lib/Camera_Middleware/ISP_Library/isp/Src/isp_core.c ****   /* Compute the ISP decimation value according to the sensor resolution and the maximum ISP resolu
 119:Lib/Camera_Middleware/ISP_Library/isp/Src/isp_core.c ****   /* It is mandatory to ensure that RAW frame size does not exceed 2688 width prior to demosaicing 
 120:Lib/Camera_Middleware/ISP_Library/isp/Src/isp_core.c ****   ISP_DecimationTypeDef decimation;
 121:Lib/Camera_Middleware/ISP_Library/isp/Src/isp_core.c ****   if ((hIsp->sensorInfo.width / ISP_DECIM_FACTOR_1) < ISP_RAW_MAX_WIDTH)
 225              		.loc 1 121 24
 226 00ec FB68     		ldr	r3, [r7, #12]
 227 00ee 1B6F     		ldr	r3, [r3, #112]
 228              		.loc 1 121 6
 229 00f0 B3F5286F 		cmp	r3, #2688
 230 00f4 02D2     		bcs	.L12
 122:Lib/Camera_Middleware/ISP_Library/isp/Src/isp_core.c ****   {
 123:Lib/Camera_Middleware/ISP_Library/isp/Src/isp_core.c ****     decimation.factor = ISP_DECIM_FACTOR_1;
 231              		.loc 1 123 23
 232 00f6 0123     		movs	r3, #1
 233 00f8 3B75     		strb	r3, [r7, #20]
 234 00fa 1CE0     		b	.L13
 235              	.L12:
 124:Lib/Camera_Middleware/ISP_Library/isp/Src/isp_core.c ****   }
 125:Lib/Camera_Middleware/ISP_Library/isp/Src/isp_core.c ****   else if ((hIsp->sensorInfo.width  / ISP_DECIM_FACTOR_2) < ISP_RAW_MAX_WIDTH)
 236              		.loc 1 125 29
 237 00fc FB68     		ldr	r3, [r7, #12]
 238 00fe 1B6F     		ldr	r3, [r3, #112]
 239              		.loc 1 125 11
 240 0100 B3F5A85F 		cmp	r3, #5376
ARM GAS  /tmp/ccodgxQi.s 			page 8


 241 0104 02D2     		bcs	.L14
 126:Lib/Camera_Middleware/ISP_Library/isp/Src/isp_core.c ****   {
 127:Lib/Camera_Middleware/ISP_Library/isp/Src/isp_core.c ****     decimation.factor = ISP_DECIM_FACTOR_2;
 242              		.loc 1 127 23
 243 0106 0223     		movs	r3, #2
 244 0108 3B75     		strb	r3, [r7, #20]
 245 010a 14E0     		b	.L13
 246              	.L14:
 128:Lib/Camera_Middleware/ISP_Library/isp/Src/isp_core.c ****   }
 129:Lib/Camera_Middleware/ISP_Library/isp/Src/isp_core.c ****   else if ((hIsp->sensorInfo.width  / ISP_DECIM_FACTOR_4) < ISP_RAW_MAX_WIDTH)
 247              		.loc 1 129 29
 248 010c FB68     		ldr	r3, [r7, #12]
 249 010e 1B6F     		ldr	r3, [r3, #112]
 250              		.loc 1 129 11
 251 0110 B3F5285F 		cmp	r3, #10752
 252 0114 02D2     		bcs	.L15
 130:Lib/Camera_Middleware/ISP_Library/isp/Src/isp_core.c ****   {
 131:Lib/Camera_Middleware/ISP_Library/isp/Src/isp_core.c ****     decimation.factor = ISP_DECIM_FACTOR_4;
 253              		.loc 1 131 23
 254 0116 0423     		movs	r3, #4
 255 0118 3B75     		strb	r3, [r7, #20]
 256 011a 0CE0     		b	.L13
 257              	.L15:
 132:Lib/Camera_Middleware/ISP_Library/isp/Src/isp_core.c ****   }
 133:Lib/Camera_Middleware/ISP_Library/isp/Src/isp_core.c ****   else if ((hIsp->sensorInfo.width  / ISP_DECIM_FACTOR_8) < ISP_RAW_MAX_WIDTH)
 258              		.loc 1 133 29
 259 011c FB68     		ldr	r3, [r7, #12]
 260 011e 1B6F     		ldr	r3, [r3, #112]
 261              		.loc 1 133 11
 262 0120 B3F5A84F 		cmp	r3, #21504
 263 0124 02D2     		bcs	.L16
 134:Lib/Camera_Middleware/ISP_Library/isp/Src/isp_core.c ****   {
 135:Lib/Camera_Middleware/ISP_Library/isp/Src/isp_core.c ****     decimation.factor = ISP_DECIM_FACTOR_8;
 264              		.loc 1 135 23
 265 0126 0823     		movs	r3, #8
 266 0128 3B75     		strb	r3, [r7, #20]
 267 012a 04E0     		b	.L13
 268              	.L16:
 136:Lib/Camera_Middleware/ISP_Library/isp/Src/isp_core.c ****   }
 137:Lib/Camera_Middleware/ISP_Library/isp/Src/isp_core.c ****   else
 138:Lib/Camera_Middleware/ISP_Library/isp/Src/isp_core.c ****   {
 139:Lib/Camera_Middleware/ISP_Library/isp/Src/isp_core.c ****     printf("ERROR: No possible decimation factor to target ISP RAW width constraint\r\n");
 269              		.loc 1 139 5
 270 012c 1648     		ldr	r0, .L20+20
 271 012e FFF7FEFF 		bl	puts
 140:Lib/Camera_Middleware/ISP_Library/isp/Src/isp_core.c ****     return ISP_ERR_DECIMATION_EINVAL;
 272              		.loc 1 140 12
 273 0132 1E23     		movs	r3, #30
 274 0134 1AE0     		b	.L19
 275              	.L13:
 141:Lib/Camera_Middleware/ISP_Library/isp/Src/isp_core.c ****   }
 142:Lib/Camera_Middleware/ISP_Library/isp/Src/isp_core.c ****   ret = ISP_SVC_ISP_SetDecimation(hIsp, &decimation);
 276              		.loc 1 142 9
 277 0136 07F11403 		add	r3, r7, #20
 278 013a 1946     		mov	r1, r3
 279 013c F868     		ldr	r0, [r7, #12]
 280 013e FFF7FEFF 		bl	ISP_SVC_ISP_SetDecimation
ARM GAS  /tmp/ccodgxQi.s 			page 9


 281 0142 0346     		mov	r3, r0
 282 0144 FB75     		strb	r3, [r7, #23]
 143:Lib/Camera_Middleware/ISP_Library/isp/Src/isp_core.c ****   if (ret != ISP_OK)
 283              		.loc 1 143 6
 284 0146 FB7D     		ldrb	r3, [r7, #23]	@ zero_extendqisi2
 285 0148 002B     		cmp	r3, #0
 286 014a 01D0     		beq	.L17
 144:Lib/Camera_Middleware/ISP_Library/isp/Src/isp_core.c ****   {
 145:Lib/Camera_Middleware/ISP_Library/isp/Src/isp_core.c ****     return ret;
 287              		.loc 1 145 12
 288 014c FB7D     		ldrb	r3, [r7, #23]	@ zero_extendqisi2
 289 014e 0DE0     		b	.L19
 290              	.L17:
 146:Lib/Camera_Middleware/ISP_Library/isp/Src/isp_core.c ****   }
 147:Lib/Camera_Middleware/ISP_Library/isp/Src/isp_core.c **** 
 148:Lib/Camera_Middleware/ISP_Library/isp/Src/isp_core.c ****   /* Initialize algorithms */
 149:Lib/Camera_Middleware/ISP_Library/isp/Src/isp_core.c ****   ret = ISP_Algo_Init(hIsp);
 291              		.loc 1 149 9
 292 0150 F868     		ldr	r0, [r7, #12]
 293 0152 FFF7FEFF 		bl	ISP_Algo_Init
 294 0156 0346     		mov	r3, r0
 295 0158 FB75     		strb	r3, [r7, #23]
 150:Lib/Camera_Middleware/ISP_Library/isp/Src/isp_core.c ****   if (ret != ISP_OK)
 296              		.loc 1 150 6
 297 015a FB7D     		ldrb	r3, [r7, #23]	@ zero_extendqisi2
 298 015c 002B     		cmp	r3, #0
 299 015e 01D0     		beq	.L18
 151:Lib/Camera_Middleware/ISP_Library/isp/Src/isp_core.c ****   {
 152:Lib/Camera_Middleware/ISP_Library/isp/Src/isp_core.c ****     return ret;
 300              		.loc 1 152 12
 301 0160 FB7D     		ldrb	r3, [r7, #23]	@ zero_extendqisi2
 302 0162 03E0     		b	.L19
 303              	.L18:
 153:Lib/Camera_Middleware/ISP_Library/isp/Src/isp_core.c ****   }
 154:Lib/Camera_Middleware/ISP_Library/isp/Src/isp_core.c **** 
 155:Lib/Camera_Middleware/ISP_Library/isp/Src/isp_core.c ****   /* Initialize the statistic engine */
 156:Lib/Camera_Middleware/ISP_Library/isp/Src/isp_core.c ****   ISP_SVC_Stats_Init(hIsp);
 304              		.loc 1 156 3
 305 0164 F868     		ldr	r0, [r7, #12]
 306 0166 FFF7FEFF 		bl	ISP_SVC_Stats_Init
 157:Lib/Camera_Middleware/ISP_Library/isp/Src/isp_core.c **** 
 158:Lib/Camera_Middleware/ISP_Library/isp/Src/isp_core.c ****   return ISP_OK;
 307              		.loc 1 158 10
 308 016a 0023     		movs	r3, #0
 309              	.L19:
 159:Lib/Camera_Middleware/ISP_Library/isp/Src/isp_core.c **** }
 310              		.loc 1 159 1
 311 016c 1846     		mov	r0, r3
 312 016e 1837     		adds	r7, r7, #24
 313              		.cfi_def_cfa_offset 16
 314 0170 BD46     		mov	sp, r7
 315              		.cfi_def_cfa_register 13
 316              		@ sp needed
 317 0172 B0BD     		pop	{r4, r5, r7, pc}
 318              	.L21:
 319              		.align	2
 320              	.L20:
ARM GAS  /tmp/ccodgxQi.s 			page 10


 321 0174 00000000 		.word	.LC0
 322 0178 38000000 		.word	.LC1
 323 017c 70000000 		.word	.LC2
 324 0180 A8000000 		.word	.LC3
 325 0184 E4000000 		.word	.LC4
 326 0188 20010000 		.word	.LC5
 327              		.cfi_endproc
 328              	.LFE838:
 330              		.section	.text.ISP_DeInit,"ax",%progbits
 331              		.align	1
 332              		.global	ISP_DeInit
 333              		.syntax unified
 334              		.thumb
 335              		.thumb_func
 337              	ISP_DeInit:
 338              	.LFB839:
 160:Lib/Camera_Middleware/ISP_Library/isp/Src/isp_core.c **** 
 161:Lib/Camera_Middleware/ISP_Library/isp/Src/isp_core.c **** /**
 162:Lib/Camera_Middleware/ISP_Library/isp/Src/isp_core.c ****   * @brief  ISP_DeInit
 163:Lib/Camera_Middleware/ISP_Library/isp/Src/isp_core.c ****   *         Deinitializes the ISP device
 164:Lib/Camera_Middleware/ISP_Library/isp/Src/isp_core.c ****   * @param  hIsp: ISP device handle
 165:Lib/Camera_Middleware/ISP_Library/isp/Src/isp_core.c ****   * @retval ISP status
 166:Lib/Camera_Middleware/ISP_Library/isp/Src/isp_core.c ****   */
 167:Lib/Camera_Middleware/ISP_Library/isp/Src/isp_core.c **** ISP_StatusTypeDef ISP_DeInit(ISP_HandleTypeDef *hIsp)
 168:Lib/Camera_Middleware/ISP_Library/isp/Src/isp_core.c **** {
 339              		.loc 1 168 1
 340              		.cfi_startproc
 341              		@ args = 0, pretend = 0, frame = 16
 342              		@ frame_needed = 1, uses_anonymous_args = 0
 343 0000 80B5     		push	{r7, lr}
 344              		.cfi_def_cfa_offset 8
 345              		.cfi_offset 7, -8
 346              		.cfi_offset 14, -4
 347 0002 84B0     		sub	sp, sp, #16
 348              		.cfi_def_cfa_offset 24
 349 0004 00AF     		add	r7, sp, #0
 350              		.cfi_def_cfa_register 7
 351 0006 7860     		str	r0, [r7, #4]
 169:Lib/Camera_Middleware/ISP_Library/isp/Src/isp_core.c ****   ISP_StatusTypeDef ret;
 170:Lib/Camera_Middleware/ISP_Library/isp/Src/isp_core.c **** 
 171:Lib/Camera_Middleware/ISP_Library/isp/Src/isp_core.c ****   if (hIsp == NULL)
 352              		.loc 1 171 6
 353 0008 7B68     		ldr	r3, [r7, #4]
 354 000a 002B     		cmp	r3, #0
 355 000c 01D1     		bne	.L23
 172:Lib/Camera_Middleware/ISP_Library/isp/Src/isp_core.c ****   {
 173:Lib/Camera_Middleware/ISP_Library/isp/Src/isp_core.c ****     return ISP_ERR_EINVAL;
 356              		.loc 1 173 12
 357 000e 0123     		movs	r3, #1
 358 0010 0FE0     		b	.L24
 359              	.L23:
 174:Lib/Camera_Middleware/ISP_Library/isp/Src/isp_core.c ****   }
 175:Lib/Camera_Middleware/ISP_Library/isp/Src/isp_core.c **** 
 176:Lib/Camera_Middleware/ISP_Library/isp/Src/isp_core.c ****   /* DeInitialize algorithms */
 177:Lib/Camera_Middleware/ISP_Library/isp/Src/isp_core.c ****   ret = ISP_Algo_DeInit(hIsp);
 360              		.loc 1 177 9
 361 0012 7868     		ldr	r0, [r7, #4]
ARM GAS  /tmp/ccodgxQi.s 			page 11


 362 0014 FFF7FEFF 		bl	ISP_Algo_DeInit
 363 0018 0346     		mov	r3, r0
 364 001a FB73     		strb	r3, [r7, #15]
 178:Lib/Camera_Middleware/ISP_Library/isp/Src/isp_core.c ****   if (ret != ISP_OK)
 365              		.loc 1 178 6
 366 001c FB7B     		ldrb	r3, [r7, #15]	@ zero_extendqisi2
 367 001e 002B     		cmp	r3, #0
 368 0020 01D0     		beq	.L25
 179:Lib/Camera_Middleware/ISP_Library/isp/Src/isp_core.c ****   {
 180:Lib/Camera_Middleware/ISP_Library/isp/Src/isp_core.c ****     return ret;
 369              		.loc 1 180 12
 370 0022 FB7B     		ldrb	r3, [r7, #15]	@ zero_extendqisi2
 371 0024 05E0     		b	.L24
 372              	.L25:
 181:Lib/Camera_Middleware/ISP_Library/isp/Src/isp_core.c ****   }
 182:Lib/Camera_Middleware/ISP_Library/isp/Src/isp_core.c **** 
 183:Lib/Camera_Middleware/ISP_Library/isp/Src/isp_core.c ****   /* Re-initialized the hIsp structure */
 184:Lib/Camera_Middleware/ISP_Library/isp/Src/isp_core.c ****   memset(hIsp, 0, sizeof(*hIsp));
 373              		.loc 1 184 3
 374 0026 8822     		movs	r2, #136
 375 0028 0021     		movs	r1, #0
 376 002a 7868     		ldr	r0, [r7, #4]
 377 002c FFF7FEFF 		bl	memset
 185:Lib/Camera_Middleware/ISP_Library/isp/Src/isp_core.c **** 
 186:Lib/Camera_Middleware/ISP_Library/isp/Src/isp_core.c ****   return ISP_OK;
 378              		.loc 1 186 10
 379 0030 0023     		movs	r3, #0
 380              	.L24:
 187:Lib/Camera_Middleware/ISP_Library/isp/Src/isp_core.c **** }
 381              		.loc 1 187 1
 382 0032 1846     		mov	r0, r3
 383 0034 1037     		adds	r7, r7, #16
 384              		.cfi_def_cfa_offset 8
 385 0036 BD46     		mov	sp, r7
 386              		.cfi_def_cfa_register 13
 387              		@ sp needed
 388 0038 80BD     		pop	{r7, pc}
 389              		.cfi_endproc
 390              	.LFE839:
 392              		.section	.text.ISP_Start,"ax",%progbits
 393              		.align	1
 394              		.global	ISP_Start
 395              		.syntax unified
 396              		.thumb
 397              		.thumb_func
 399              	ISP_Start:
 400              	.LFB840:
 188:Lib/Camera_Middleware/ISP_Library/isp/Src/isp_core.c **** 
 189:Lib/Camera_Middleware/ISP_Library/isp/Src/isp_core.c **** /**
 190:Lib/Camera_Middleware/ISP_Library/isp/Src/isp_core.c ****   * @brief  ISP_Start
 191:Lib/Camera_Middleware/ISP_Library/isp/Src/isp_core.c ****   *         Configures the ISP device
 192:Lib/Camera_Middleware/ISP_Library/isp/Src/isp_core.c ****   * @param  hIsp: ISP device handle
 193:Lib/Camera_Middleware/ISP_Library/isp/Src/isp_core.c ****   * @retval ISP status
 194:Lib/Camera_Middleware/ISP_Library/isp/Src/isp_core.c ****   */
 195:Lib/Camera_Middleware/ISP_Library/isp/Src/isp_core.c **** ISP_StatusTypeDef ISP_Start(ISP_HandleTypeDef *hIsp)
 196:Lib/Camera_Middleware/ISP_Library/isp/Src/isp_core.c **** {
 401              		.loc 1 196 1
ARM GAS  /tmp/ccodgxQi.s 			page 12


 402              		.cfi_startproc
 403              		@ args = 0, pretend = 0, frame = 16
 404              		@ frame_needed = 1, uses_anonymous_args = 0
 405 0000 80B5     		push	{r7, lr}
 406              		.cfi_def_cfa_offset 8
 407              		.cfi_offset 7, -8
 408              		.cfi_offset 14, -4
 409 0002 84B0     		sub	sp, sp, #16
 410              		.cfi_def_cfa_offset 24
 411 0004 00AF     		add	r7, sp, #0
 412              		.cfi_def_cfa_register 7
 413 0006 7860     		str	r0, [r7, #4]
 197:Lib/Camera_Middleware/ISP_Library/isp/Src/isp_core.c ****   ISP_IQParamTypeDef *IQParamConfig;
 198:Lib/Camera_Middleware/ISP_Library/isp/Src/isp_core.c ****   ISP_StatusTypeDef ret;
 199:Lib/Camera_Middleware/ISP_Library/isp/Src/isp_core.c **** 
 200:Lib/Camera_Middleware/ISP_Library/isp/Src/isp_core.c ****   if (hIsp == NULL)
 414              		.loc 1 200 6
 415 0008 7B68     		ldr	r3, [r7, #4]
 416 000a 002B     		cmp	r3, #0
 417 000c 01D1     		bne	.L27
 201:Lib/Camera_Middleware/ISP_Library/isp/Src/isp_core.c ****   {
 202:Lib/Camera_Middleware/ISP_Library/isp/Src/isp_core.c ****     return ISP_ERR_EINVAL;
 418              		.loc 1 202 12
 419 000e 0123     		movs	r3, #1
 420 0010 F6E0     		b	.L28
 421              	.L27:
 203:Lib/Camera_Middleware/ISP_Library/isp/Src/isp_core.c ****   }
 204:Lib/Camera_Middleware/ISP_Library/isp/Src/isp_core.c **** 
 205:Lib/Camera_Middleware/ISP_Library/isp/Src/isp_core.c ****   ret = ISP_SVC_Misc_IsDCMIPPReady(hIsp);
 422              		.loc 1 205 9
 423 0012 7868     		ldr	r0, [r7, #4]
 424 0014 FFF7FEFF 		bl	ISP_SVC_Misc_IsDCMIPPReady
 425 0018 0346     		mov	r3, r0
 426 001a FB73     		strb	r3, [r7, #15]
 206:Lib/Camera_Middleware/ISP_Library/isp/Src/isp_core.c ****   if (ret != ISP_OK)
 427              		.loc 1 206 6
 428 001c FB7B     		ldrb	r3, [r7, #15]	@ zero_extendqisi2
 429 001e 002B     		cmp	r3, #0
 430 0020 01D0     		beq	.L29
 207:Lib/Camera_Middleware/ISP_Library/isp/Src/isp_core.c ****   {
 208:Lib/Camera_Middleware/ISP_Library/isp/Src/isp_core.c ****     return ret;
 431              		.loc 1 208 12
 432 0022 FB7B     		ldrb	r3, [r7, #15]	@ zero_extendqisi2
 433 0024 ECE0     		b	.L28
 434              	.L29:
 209:Lib/Camera_Middleware/ISP_Library/isp/Src/isp_core.c ****   }
 210:Lib/Camera_Middleware/ISP_Library/isp/Src/isp_core.c **** 
 211:Lib/Camera_Middleware/ISP_Library/isp/Src/isp_core.c ****   /* Get IQ Param config */
 212:Lib/Camera_Middleware/ISP_Library/isp/Src/isp_core.c ****   IQParamConfig = ISP_SVC_IQParam_Get(hIsp);
 435              		.loc 1 212 19
 436 0026 7868     		ldr	r0, [r7, #4]
 437 0028 FFF7FEFF 		bl	ISP_SVC_IQParam_Get
 438 002c B860     		str	r0, [r7, #8]
 213:Lib/Camera_Middleware/ISP_Library/isp/Src/isp_core.c **** 
 214:Lib/Camera_Middleware/ISP_Library/isp/Src/isp_core.c ****   /* Set static configurations */
 215:Lib/Camera_Middleware/ISP_Library/isp/Src/isp_core.c ****   ret = ISP_SVC_ISP_SetDemosaicing(hIsp, &IQParamConfig->demosaicing);
 439              		.loc 1 215 9
ARM GAS  /tmp/ccodgxQi.s 			page 13


 440 002e BB68     		ldr	r3, [r7, #8]
 441 0030 0C33     		adds	r3, r3, #12
 442 0032 1946     		mov	r1, r3
 443 0034 7868     		ldr	r0, [r7, #4]
 444 0036 FFF7FEFF 		bl	ISP_SVC_ISP_SetDemosaicing
 445 003a 0346     		mov	r3, r0
 446 003c FB73     		strb	r3, [r7, #15]
 216:Lib/Camera_Middleware/ISP_Library/isp/Src/isp_core.c ****   if (ret != ISP_OK)
 447              		.loc 1 216 6
 448 003e FB7B     		ldrb	r3, [r7, #15]	@ zero_extendqisi2
 449 0040 002B     		cmp	r3, #0
 450 0042 01D0     		beq	.L30
 217:Lib/Camera_Middleware/ISP_Library/isp/Src/isp_core.c ****   {
 218:Lib/Camera_Middleware/ISP_Library/isp/Src/isp_core.c ****     return ret;
 451              		.loc 1 218 12
 452 0044 FB7B     		ldrb	r3, [r7, #15]	@ zero_extendqisi2
 453 0046 DBE0     		b	.L28
 454              	.L30:
 219:Lib/Camera_Middleware/ISP_Library/isp/Src/isp_core.c ****   }
 220:Lib/Camera_Middleware/ISP_Library/isp/Src/isp_core.c **** 
 221:Lib/Camera_Middleware/ISP_Library/isp/Src/isp_core.c ****   ret = ISP_SVC_ISP_SetStatRemoval(hIsp, &IQParamConfig->statRemoval);
 455              		.loc 1 221 9
 456 0048 BB68     		ldr	r3, [r7, #8]
 457 004a 1946     		mov	r1, r3
 458 004c 7868     		ldr	r0, [r7, #4]
 459 004e FFF7FEFF 		bl	ISP_SVC_ISP_SetStatRemoval
 460 0052 0346     		mov	r3, r0
 461 0054 FB73     		strb	r3, [r7, #15]
 222:Lib/Camera_Middleware/ISP_Library/isp/Src/isp_core.c ****   if (ret != ISP_OK)
 462              		.loc 1 222 6
 463 0056 FB7B     		ldrb	r3, [r7, #15]	@ zero_extendqisi2
 464 0058 002B     		cmp	r3, #0
 465 005a 01D0     		beq	.L31
 223:Lib/Camera_Middleware/ISP_Library/isp/Src/isp_core.c ****   {
 224:Lib/Camera_Middleware/ISP_Library/isp/Src/isp_core.c ****     return ret;
 466              		.loc 1 224 12
 467 005c FB7B     		ldrb	r3, [r7, #15]	@ zero_extendqisi2
 468 005e CFE0     		b	.L28
 469              	.L31:
 225:Lib/Camera_Middleware/ISP_Library/isp/Src/isp_core.c ****   }
 226:Lib/Camera_Middleware/ISP_Library/isp/Src/isp_core.c **** 
 227:Lib/Camera_Middleware/ISP_Library/isp/Src/isp_core.c ****   ret = ISP_SVC_ISP_SetContrast(hIsp, &IQParamConfig->contrast);
 470              		.loc 1 227 9
 471 0060 BB68     		ldr	r3, [r7, #8]
 472 0062 1433     		adds	r3, r3, #20
 473 0064 1946     		mov	r1, r3
 474 0066 7868     		ldr	r0, [r7, #4]
 475 0068 FFF7FEFF 		bl	ISP_SVC_ISP_SetContrast
 476 006c 0346     		mov	r3, r0
 477 006e FB73     		strb	r3, [r7, #15]
 228:Lib/Camera_Middleware/ISP_Library/isp/Src/isp_core.c ****   if (ret != ISP_OK)
 478              		.loc 1 228 6
 479 0070 FB7B     		ldrb	r3, [r7, #15]	@ zero_extendqisi2
 480 0072 002B     		cmp	r3, #0
 481 0074 01D0     		beq	.L32
 229:Lib/Camera_Middleware/ISP_Library/isp/Src/isp_core.c ****   {
 230:Lib/Camera_Middleware/ISP_Library/isp/Src/isp_core.c ****     return ret;
ARM GAS  /tmp/ccodgxQi.s 			page 14


 482              		.loc 1 230 12
 483 0076 FB7B     		ldrb	r3, [r7, #15]	@ zero_extendqisi2
 484 0078 C2E0     		b	.L28
 485              	.L32:
 231:Lib/Camera_Middleware/ISP_Library/isp/Src/isp_core.c ****   }
 232:Lib/Camera_Middleware/ISP_Library/isp/Src/isp_core.c **** 
 233:Lib/Camera_Middleware/ISP_Library/isp/Src/isp_core.c ****   /* Set optional static configurations */
 234:Lib/Camera_Middleware/ISP_Library/isp/Src/isp_core.c ****   if ((IQParamConfig->sensorGainStatic.gain != 0) && (!IQParamConfig->AECAlgo.enable))
 486              		.loc 1 234 39
 487 007a BB68     		ldr	r3, [r7, #8]
 488 007c DB6C     		ldr	r3, [r3, #76]
 489              		.loc 1 234 6
 490 007e 002B     		cmp	r3, #0
 491 0080 11D0     		beq	.L33
 492              		.loc 1 234 78 discriminator 1
 493 0082 BB68     		ldr	r3, [r7, #8]
 494 0084 93F86830 		ldrb	r3, [r3, #104]	@ zero_extendqisi2
 495              		.loc 1 234 51 discriminator 1
 496 0088 002B     		cmp	r3, #0
 497 008a 0CD1     		bne	.L33
 235:Lib/Camera_Middleware/ISP_Library/isp/Src/isp_core.c ****   {
 236:Lib/Camera_Middleware/ISP_Library/isp/Src/isp_core.c ****     ret = ISP_SVC_Sensor_SetGain(hIsp, &IQParamConfig->sensorGainStatic);
 498              		.loc 1 236 11
 499 008c BB68     		ldr	r3, [r7, #8]
 500 008e 4C33     		adds	r3, r3, #76
 501 0090 1946     		mov	r1, r3
 502 0092 7868     		ldr	r0, [r7, #4]
 503 0094 FFF7FEFF 		bl	ISP_SVC_Sensor_SetGain
 504 0098 0346     		mov	r3, r0
 505 009a FB73     		strb	r3, [r7, #15]
 237:Lib/Camera_Middleware/ISP_Library/isp/Src/isp_core.c ****     if (ret != ISP_OK)
 506              		.loc 1 237 8
 507 009c FB7B     		ldrb	r3, [r7, #15]	@ zero_extendqisi2
 508 009e 002B     		cmp	r3, #0
 509 00a0 01D0     		beq	.L33
 238:Lib/Camera_Middleware/ISP_Library/isp/Src/isp_core.c ****     {
 239:Lib/Camera_Middleware/ISP_Library/isp/Src/isp_core.c ****       return ret;
 510              		.loc 1 239 14
 511 00a2 FB7B     		ldrb	r3, [r7, #15]	@ zero_extendqisi2
 512 00a4 ACE0     		b	.L28
 513              	.L33:
 240:Lib/Camera_Middleware/ISP_Library/isp/Src/isp_core.c ****     }
 241:Lib/Camera_Middleware/ISP_Library/isp/Src/isp_core.c ****   }
 242:Lib/Camera_Middleware/ISP_Library/isp/Src/isp_core.c **** 
 243:Lib/Camera_Middleware/ISP_Library/isp/Src/isp_core.c ****   if ((IQParamConfig->sensorExposureStatic.exposure != 0) && (!IQParamConfig->AECAlgo.enable))
 514              		.loc 1 243 43
 515 00a6 BB68     		ldr	r3, [r7, #8]
 516 00a8 1B6D     		ldr	r3, [r3, #80]
 517              		.loc 1 243 6
 518 00aa 002B     		cmp	r3, #0
 519 00ac 11D0     		beq	.L34
 520              		.loc 1 243 86 discriminator 1
 521 00ae BB68     		ldr	r3, [r7, #8]
 522 00b0 93F86830 		ldrb	r3, [r3, #104]	@ zero_extendqisi2
 523              		.loc 1 243 59 discriminator 1
 524 00b4 002B     		cmp	r3, #0
 525 00b6 0CD1     		bne	.L34
ARM GAS  /tmp/ccodgxQi.s 			page 15


 244:Lib/Camera_Middleware/ISP_Library/isp/Src/isp_core.c ****   {
 245:Lib/Camera_Middleware/ISP_Library/isp/Src/isp_core.c ****     ret = ISP_SVC_Sensor_SetExposure(hIsp, &IQParamConfig->sensorExposureStatic);
 526              		.loc 1 245 11
 527 00b8 BB68     		ldr	r3, [r7, #8]
 528 00ba 5033     		adds	r3, r3, #80
 529 00bc 1946     		mov	r1, r3
 530 00be 7868     		ldr	r0, [r7, #4]
 531 00c0 FFF7FEFF 		bl	ISP_SVC_Sensor_SetExposure
 532 00c4 0346     		mov	r3, r0
 533 00c6 FB73     		strb	r3, [r7, #15]
 246:Lib/Camera_Middleware/ISP_Library/isp/Src/isp_core.c ****     if (ret != ISP_OK)
 534              		.loc 1 246 8
 535 00c8 FB7B     		ldrb	r3, [r7, #15]	@ zero_extendqisi2
 536 00ca 002B     		cmp	r3, #0
 537 00cc 01D0     		beq	.L34
 247:Lib/Camera_Middleware/ISP_Library/isp/Src/isp_core.c ****     {
 248:Lib/Camera_Middleware/ISP_Library/isp/Src/isp_core.c ****       return ret;
 538              		.loc 1 248 14
 539 00ce FB7B     		ldrb	r3, [r7, #15]	@ zero_extendqisi2
 540 00d0 96E0     		b	.L28
 541              	.L34:
 249:Lib/Camera_Middleware/ISP_Library/isp/Src/isp_core.c ****     }
 250:Lib/Camera_Middleware/ISP_Library/isp/Src/isp_core.c ****   }
 251:Lib/Camera_Middleware/ISP_Library/isp/Src/isp_core.c **** 
 252:Lib/Camera_Middleware/ISP_Library/isp/Src/isp_core.c ****   if (IQParamConfig->badPixelStatic.enable != 0)
 542              		.loc 1 252 36
 543 00d2 BB68     		ldr	r3, [r7, #8]
 544 00d4 93F85C30 		ldrb	r3, [r3, #92]	@ zero_extendqisi2
 545              		.loc 1 252 6
 546 00d8 002B     		cmp	r3, #0
 547 00da 0CD0     		beq	.L35
 253:Lib/Camera_Middleware/ISP_Library/isp/Src/isp_core.c ****   {
 254:Lib/Camera_Middleware/ISP_Library/isp/Src/isp_core.c ****     ret = ISP_SVC_ISP_SetBadPixel(hIsp, &IQParamConfig->badPixelStatic);
 548              		.loc 1 254 11
 549 00dc BB68     		ldr	r3, [r7, #8]
 550 00de 5C33     		adds	r3, r3, #92
 551 00e0 1946     		mov	r1, r3
 552 00e2 7868     		ldr	r0, [r7, #4]
 553 00e4 FFF7FEFF 		bl	ISP_SVC_ISP_SetBadPixel
 554 00e8 0346     		mov	r3, r0
 555 00ea FB73     		strb	r3, [r7, #15]
 255:Lib/Camera_Middleware/ISP_Library/isp/Src/isp_core.c ****     if (ret != ISP_OK)
 556              		.loc 1 255 8
 557 00ec FB7B     		ldrb	r3, [r7, #15]	@ zero_extendqisi2
 558 00ee 002B     		cmp	r3, #0
 559 00f0 01D0     		beq	.L35
 256:Lib/Camera_Middleware/ISP_Library/isp/Src/isp_core.c ****     {
 257:Lib/Camera_Middleware/ISP_Library/isp/Src/isp_core.c ****       return ret;
 560              		.loc 1 257 14
 561 00f2 FB7B     		ldrb	r3, [r7, #15]	@ zero_extendqisi2
 562 00f4 84E0     		b	.L28
 563              	.L35:
 258:Lib/Camera_Middleware/ISP_Library/isp/Src/isp_core.c ****     }
 259:Lib/Camera_Middleware/ISP_Library/isp/Src/isp_core.c ****   }
 260:Lib/Camera_Middleware/ISP_Library/isp/Src/isp_core.c **** 
 261:Lib/Camera_Middleware/ISP_Library/isp/Src/isp_core.c ****   if (IQParamConfig->blackLevelStatic.enable != 0)
 564              		.loc 1 261 38
ARM GAS  /tmp/ccodgxQi.s 			page 16


 565 00f6 BB68     		ldr	r3, [r7, #8]
 566 00f8 93F86430 		ldrb	r3, [r3, #100]	@ zero_extendqisi2
 567              		.loc 1 261 6
 568 00fc 002B     		cmp	r3, #0
 569 00fe 0CD0     		beq	.L36
 262:Lib/Camera_Middleware/ISP_Library/isp/Src/isp_core.c ****   {
 263:Lib/Camera_Middleware/ISP_Library/isp/Src/isp_core.c ****     ret = ISP_SVC_ISP_SetBlackLevel(hIsp, &IQParamConfig->blackLevelStatic);
 570              		.loc 1 263 11
 571 0100 BB68     		ldr	r3, [r7, #8]
 572 0102 6433     		adds	r3, r3, #100
 573 0104 1946     		mov	r1, r3
 574 0106 7868     		ldr	r0, [r7, #4]
 575 0108 FFF7FEFF 		bl	ISP_SVC_ISP_SetBlackLevel
 576 010c 0346     		mov	r3, r0
 577 010e FB73     		strb	r3, [r7, #15]
 264:Lib/Camera_Middleware/ISP_Library/isp/Src/isp_core.c ****     if (ret != ISP_OK)
 578              		.loc 1 264 8
 579 0110 FB7B     		ldrb	r3, [r7, #15]	@ zero_extendqisi2
 580 0112 002B     		cmp	r3, #0
 581 0114 01D0     		beq	.L36
 265:Lib/Camera_Middleware/ISP_Library/isp/Src/isp_core.c ****     {
 266:Lib/Camera_Middleware/ISP_Library/isp/Src/isp_core.c ****       return ret;
 582              		.loc 1 266 14
 583 0116 FB7B     		ldrb	r3, [r7, #15]	@ zero_extendqisi2
 584 0118 72E0     		b	.L28
 585              	.L36:
 267:Lib/Camera_Middleware/ISP_Library/isp/Src/isp_core.c ****     }
 268:Lib/Camera_Middleware/ISP_Library/isp/Src/isp_core.c ****   }
 269:Lib/Camera_Middleware/ISP_Library/isp/Src/isp_core.c **** 
 270:Lib/Camera_Middleware/ISP_Library/isp/Src/isp_core.c ****   if ((IQParamConfig->ispGainStatic.enable != 0) && (!IQParamConfig->AWBAlgo.enable))
 586              		.loc 1 270 36
 587 011a BB68     		ldr	r3, [r7, #8]
 588 011c 93F81C32 		ldrb	r3, [r3, #540]	@ zero_extendqisi2
 589              		.loc 1 270 6
 590 0120 002B     		cmp	r3, #0
 591 0122 12D0     		beq	.L37
 592              		.loc 1 270 77 discriminator 1
 593 0124 BB68     		ldr	r3, [r7, #8]
 594 0126 93F87430 		ldrb	r3, [r3, #116]	@ zero_extendqisi2
 595              		.loc 1 270 50 discriminator 1
 596 012a 002B     		cmp	r3, #0
 597 012c 0DD1     		bne	.L37
 271:Lib/Camera_Middleware/ISP_Library/isp/Src/isp_core.c ****   {
 272:Lib/Camera_Middleware/ISP_Library/isp/Src/isp_core.c ****     ret = ISP_SVC_ISP_SetGain(hIsp, &IQParamConfig->ispGainStatic);
 598              		.loc 1 272 11
 599 012e BB68     		ldr	r3, [r7, #8]
 600 0130 03F50773 		add	r3, r3, #540
 601 0134 1946     		mov	r1, r3
 602 0136 7868     		ldr	r0, [r7, #4]
 603 0138 FFF7FEFF 		bl	ISP_SVC_ISP_SetGain
 604 013c 0346     		mov	r3, r0
 605 013e FB73     		strb	r3, [r7, #15]
 273:Lib/Camera_Middleware/ISP_Library/isp/Src/isp_core.c ****     if (ret != ISP_OK)
 606              		.loc 1 273 8
 607 0140 FB7B     		ldrb	r3, [r7, #15]	@ zero_extendqisi2
 608 0142 002B     		cmp	r3, #0
 609 0144 01D0     		beq	.L37
ARM GAS  /tmp/ccodgxQi.s 			page 17


 274:Lib/Camera_Middleware/ISP_Library/isp/Src/isp_core.c ****     {
 275:Lib/Camera_Middleware/ISP_Library/isp/Src/isp_core.c ****       return ret;
 610              		.loc 1 275 14
 611 0146 FB7B     		ldrb	r3, [r7, #15]	@ zero_extendqisi2
 612 0148 5AE0     		b	.L28
 613              	.L37:
 276:Lib/Camera_Middleware/ISP_Library/isp/Src/isp_core.c ****     }
 277:Lib/Camera_Middleware/ISP_Library/isp/Src/isp_core.c ****   }
 278:Lib/Camera_Middleware/ISP_Library/isp/Src/isp_core.c **** 
 279:Lib/Camera_Middleware/ISP_Library/isp/Src/isp_core.c ****   if ((IQParamConfig->colorConvStatic.enable != 0) && (!IQParamConfig->AWBAlgo.enable))
 614              		.loc 1 279 38
 615 014a BB68     		ldr	r3, [r7, #8]
 616 014c 93F82C32 		ldrb	r3, [r3, #556]	@ zero_extendqisi2
 617              		.loc 1 279 6
 618 0150 002B     		cmp	r3, #0
 619 0152 12D0     		beq	.L38
 620              		.loc 1 279 79 discriminator 1
 621 0154 BB68     		ldr	r3, [r7, #8]
 622 0156 93F87430 		ldrb	r3, [r3, #116]	@ zero_extendqisi2
 623              		.loc 1 279 52 discriminator 1
 624 015a 002B     		cmp	r3, #0
 625 015c 0DD1     		bne	.L38
 280:Lib/Camera_Middleware/ISP_Library/isp/Src/isp_core.c ****   {
 281:Lib/Camera_Middleware/ISP_Library/isp/Src/isp_core.c ****     ret = ISP_SVC_ISP_SetColorConv(hIsp, &IQParamConfig->colorConvStatic);
 626              		.loc 1 281 11
 627 015e BB68     		ldr	r3, [r7, #8]
 628 0160 03F50B73 		add	r3, r3, #556
 629 0164 1946     		mov	r1, r3
 630 0166 7868     		ldr	r0, [r7, #4]
 631 0168 FFF7FEFF 		bl	ISP_SVC_ISP_SetColorConv
 632 016c 0346     		mov	r3, r0
 633 016e FB73     		strb	r3, [r7, #15]
 282:Lib/Camera_Middleware/ISP_Library/isp/Src/isp_core.c ****     if (ret != ISP_OK)
 634              		.loc 1 282 8
 635 0170 FB7B     		ldrb	r3, [r7, #15]	@ zero_extendqisi2
 636 0172 002B     		cmp	r3, #0
 637 0174 01D0     		beq	.L38
 283:Lib/Camera_Middleware/ISP_Library/isp/Src/isp_core.c ****     {
 284:Lib/Camera_Middleware/ISP_Library/isp/Src/isp_core.c ****       return ret;
 638              		.loc 1 284 14
 639 0176 FB7B     		ldrb	r3, [r7, #15]	@ zero_extendqisi2
 640 0178 42E0     		b	.L28
 641              	.L38:
 285:Lib/Camera_Middleware/ISP_Library/isp/Src/isp_core.c ****     }
 286:Lib/Camera_Middleware/ISP_Library/isp/Src/isp_core.c ****   }
 287:Lib/Camera_Middleware/ISP_Library/isp/Src/isp_core.c **** 
 288:Lib/Camera_Middleware/ISP_Library/isp/Src/isp_core.c ****   /* Configure statistic area if not already configured by ISP_SetStatArea() */
 289:Lib/Camera_Middleware/ISP_Library/isp/Src/isp_core.c ****   if ((hIsp->statArea.XSize == 0) || (hIsp->statArea.YSize == 0))
 642              		.loc 1 289 22
 643 017a 7B68     		ldr	r3, [r7, #4]
 644 017c 1B69     		ldr	r3, [r3, #16]
 645              		.loc 1 289 6
 646 017e 002B     		cmp	r3, #0
 647 0180 03D0     		beq	.L39
 648              		.loc 1 289 53 discriminator 1
 649 0182 7B68     		ldr	r3, [r7, #4]
 650 0184 5B69     		ldr	r3, [r3, #20]
ARM GAS  /tmp/ccodgxQi.s 			page 18


 651              		.loc 1 289 35 discriminator 1
 652 0186 002B     		cmp	r3, #0
 653 0188 0CD1     		bne	.L40
 654              	.L39:
 290:Lib/Camera_Middleware/ISP_Library/isp/Src/isp_core.c ****   {
 291:Lib/Camera_Middleware/ISP_Library/isp/Src/isp_core.c ****     /* Configure statistic area from IQ params */
 292:Lib/Camera_Middleware/ISP_Library/isp/Src/isp_core.c ****     ret = ISP_SVC_ISP_SetStatArea(hIsp, &IQParamConfig->statAreaStatic);
 655              		.loc 1 292 11
 656 018a BB68     		ldr	r3, [r7, #8]
 657 018c 3C33     		adds	r3, r3, #60
 658 018e 1946     		mov	r1, r3
 659 0190 7868     		ldr	r0, [r7, #4]
 660 0192 FFF7FEFF 		bl	ISP_SVC_ISP_SetStatArea
 661 0196 0346     		mov	r3, r0
 662 0198 FB73     		strb	r3, [r7, #15]
 293:Lib/Camera_Middleware/ISP_Library/isp/Src/isp_core.c ****     if (ret != ISP_OK)
 663              		.loc 1 293 8
 664 019a FB7B     		ldrb	r3, [r7, #15]	@ zero_extendqisi2
 665 019c 002B     		cmp	r3, #0
 666 019e 01D0     		beq	.L40
 294:Lib/Camera_Middleware/ISP_Library/isp/Src/isp_core.c ****     {
 295:Lib/Camera_Middleware/ISP_Library/isp/Src/isp_core.c ****       return ret;
 667              		.loc 1 295 14
 668 01a0 FB7B     		ldrb	r3, [r7, #15]	@ zero_extendqisi2
 669 01a2 2DE0     		b	.L28
 670              	.L40:
 296:Lib/Camera_Middleware/ISP_Library/isp/Src/isp_core.c ****     }
 297:Lib/Camera_Middleware/ISP_Library/isp/Src/isp_core.c ****   }
 298:Lib/Camera_Middleware/ISP_Library/isp/Src/isp_core.c **** 
 299:Lib/Camera_Middleware/ISP_Library/isp/Src/isp_core.c ****   ret = ISP_SVC_ISP_SetGamma(hIsp, &IQParamConfig->gamma);
 671              		.loc 1 299 9
 672 01a4 BB68     		ldr	r3, [r7, #8]
 673 01a6 03F51573 		add	r3, r3, #596
 674 01aa 1946     		mov	r1, r3
 675 01ac 7868     		ldr	r0, [r7, #4]
 676 01ae FFF7FEFF 		bl	ISP_SVC_ISP_SetGamma
 677 01b2 0346     		mov	r3, r0
 678 01b4 FB73     		strb	r3, [r7, #15]
 300:Lib/Camera_Middleware/ISP_Library/isp/Src/isp_core.c ****   if (ret != ISP_OK)
 679              		.loc 1 300 6
 680 01b6 FB7B     		ldrb	r3, [r7, #15]	@ zero_extendqisi2
 681 01b8 002B     		cmp	r3, #0
 682 01ba 01D0     		beq	.L41
 301:Lib/Camera_Middleware/ISP_Library/isp/Src/isp_core.c ****   {
 302:Lib/Camera_Middleware/ISP_Library/isp/Src/isp_core.c ****     return ret;
 683              		.loc 1 302 12
 684 01bc FB7B     		ldrb	r3, [r7, #15]	@ zero_extendqisi2
 685 01be 1FE0     		b	.L28
 686              	.L41:
 303:Lib/Camera_Middleware/ISP_Library/isp/Src/isp_core.c ****   }
 304:Lib/Camera_Middleware/ISP_Library/isp/Src/isp_core.c **** 
 305:Lib/Camera_Middleware/ISP_Library/isp/Src/isp_core.c ****   /* Initialize the exposure target based on the selected exposure compensation */
 306:Lib/Camera_Middleware/ISP_Library/isp/Src/isp_core.c ****   IQParamConfig->AECAlgo.exposureTarget = (uint32_t) (ISP_IDEAL_TARGET_EXPOSURE * pow(2, (float)IQP
 687              		.loc 1 306 119
 688 01c0 BB68     		ldr	r3, [r7, #8]
 689 01c2 93F96930 		ldrsb	r3, [r3, #105]
 690              		.loc 1 306 90
ARM GAS  /tmp/ccodgxQi.s 			page 19


 691 01c6 07EE903A 		vmov	s15, r3	@ int
 692 01ca B8EEE77A 		vcvt.f32.s32	s14, s15
 693              		.loc 1 306 141
 694 01ce F0EE006A 		vmov.f32	s13, #2.0e+0
 695 01d2 C7EE267A 		vdiv.f32	s15, s14, s13
 696              		.loc 1 306 83
 697 01d6 B7EEE77A 		vcvt.f64.f32	d7, s15
 698 01da B0EE471B 		vmov.f64	d1, d7
 699 01de B0EE000B 		vmov.f64	d0, #2.0e+0
 700 01e2 FFF7FEFF 		bl	pow
 701 01e6 B0EE407B 		vmov.f64	d7, d0
 702              		.loc 1 306 81 discriminator 1
 703 01ea 9FED076B 		vldr.64	d6, .L42
 704 01ee 27EE067B 		vmul.f64	d7, d7, d6
 705              		.loc 1 306 43 discriminator 1
 706 01f2 FCEEC77B 		vcvt.u32.f64	s15, d7
 707 01f6 17EE902A 		vmov	r2, s15	@ int
 708              		.loc 1 306 41 discriminator 1
 709 01fa BB68     		ldr	r3, [r7, #8]
 710 01fc DA66     		str	r2, [r3, #108]
 307:Lib/Camera_Middleware/ISP_Library/isp/Src/isp_core.c **** 
 308:Lib/Camera_Middleware/ISP_Library/isp/Src/isp_core.c ****   return ISP_OK;
 711              		.loc 1 308 10
 712 01fe 0023     		movs	r3, #0
 713              	.L28:
 309:Lib/Camera_Middleware/ISP_Library/isp/Src/isp_core.c **** }
 714              		.loc 1 309 1
 715 0200 1846     		mov	r0, r3
 716 0202 1037     		adds	r7, r7, #16
 717              		.cfi_def_cfa_offset 8
 718 0204 BD46     		mov	sp, r7
 719              		.cfi_def_cfa_register 13
 720              		@ sp needed
 721 0206 80BD     		pop	{r7, pc}
 722              	.L43:
 723              		.align	3
 724              	.L42:
 725 0208 00000000 		.word	0
 726 020c 00004C40 		.word	1078722560
 727              		.cfi_endproc
 728              	.LFE840:
 730              		.section	.text.ISP_BackgroundProcess,"ax",%progbits
 731              		.align	1
 732              		.global	ISP_BackgroundProcess
 733              		.syntax unified
 734              		.thumb
 735              		.thumb_func
 737              	ISP_BackgroundProcess:
 738              	.LFB841:
 310:Lib/Camera_Middleware/ISP_Library/isp/Src/isp_core.c **** 
 311:Lib/Camera_Middleware/ISP_Library/isp/Src/isp_core.c **** /**
 312:Lib/Camera_Middleware/ISP_Library/isp/Src/isp_core.c ****   * @brief  ISP_BackgroundProcess
 313:Lib/Camera_Middleware/ISP_Library/isp/Src/isp_core.c ****   *         Run the background process of the ISP device
 314:Lib/Camera_Middleware/ISP_Library/isp/Src/isp_core.c ****   * @param  hIsp: ISP device handle
 315:Lib/Camera_Middleware/ISP_Library/isp/Src/isp_core.c ****   * @retval ISP status
 316:Lib/Camera_Middleware/ISP_Library/isp/Src/isp_core.c ****   */
 317:Lib/Camera_Middleware/ISP_Library/isp/Src/isp_core.c **** ISP_StatusTypeDef ISP_BackgroundProcess(ISP_HandleTypeDef *hIsp)
ARM GAS  /tmp/ccodgxQi.s 			page 20


 318:Lib/Camera_Middleware/ISP_Library/isp/Src/isp_core.c **** {
 739              		.loc 1 318 1
 740              		.cfi_startproc
 741              		@ args = 0, pretend = 0, frame = 16
 742              		@ frame_needed = 1, uses_anonymous_args = 0
 743 0000 80B5     		push	{r7, lr}
 744              		.cfi_def_cfa_offset 8
 745              		.cfi_offset 7, -8
 746              		.cfi_offset 14, -4
 747 0002 84B0     		sub	sp, sp, #16
 748              		.cfi_def_cfa_offset 24
 749 0004 00AF     		add	r7, sp, #0
 750              		.cfi_def_cfa_register 7
 751 0006 7860     		str	r0, [r7, #4]
 319:Lib/Camera_Middleware/ISP_Library/isp/Src/isp_core.c ****   ISP_StatusTypeDef retAlgo, retStats;
 320:Lib/Camera_Middleware/ISP_Library/isp/Src/isp_core.c **** #ifdef ISP_MW_TUNING_TOOL_SUPPORT
 321:Lib/Camera_Middleware/ISP_Library/isp/Src/isp_core.c ****   ISP_StatusTypeDef retCmdParser = ISP_OK;
 322:Lib/Camera_Middleware/ISP_Library/isp/Src/isp_core.c ****   uint8_t *cmd;
 323:Lib/Camera_Middleware/ISP_Library/isp/Src/isp_core.c **** #endif
 324:Lib/Camera_Middleware/ISP_Library/isp/Src/isp_core.c **** 
 325:Lib/Camera_Middleware/ISP_Library/isp/Src/isp_core.c ****   if (hIsp == NULL)
 752              		.loc 1 325 6
 753 0008 7B68     		ldr	r3, [r7, #4]
 754 000a 002B     		cmp	r3, #0
 755 000c 01D1     		bne	.L45
 326:Lib/Camera_Middleware/ISP_Library/isp/Src/isp_core.c ****   {
 327:Lib/Camera_Middleware/ISP_Library/isp/Src/isp_core.c ****     return ISP_ERR_EINVAL;
 756              		.loc 1 327 12
 757 000e 0123     		movs	r3, #1
 758 0010 14E0     		b	.L46
 759              	.L45:
 328:Lib/Camera_Middleware/ISP_Library/isp/Src/isp_core.c ****   }
 329:Lib/Camera_Middleware/ISP_Library/isp/Src/isp_core.c **** 
 330:Lib/Camera_Middleware/ISP_Library/isp/Src/isp_core.c **** #ifdef ISP_MW_TUNING_TOOL_SUPPORT
 331:Lib/Camera_Middleware/ISP_Library/isp/Src/isp_core.c ****   if (ISP_ToolCom_CheckCommandReceived(&cmd) > 0)
 332:Lib/Camera_Middleware/ISP_Library/isp/Src/isp_core.c ****   {
 333:Lib/Camera_Middleware/ISP_Library/isp/Src/isp_core.c ****     retCmdParser = ISP_CmdParser_ProcessCommand(hIsp, cmd);
 334:Lib/Camera_Middleware/ISP_Library/isp/Src/isp_core.c ****   }
 335:Lib/Camera_Middleware/ISP_Library/isp/Src/isp_core.c **** #endif
 336:Lib/Camera_Middleware/ISP_Library/isp/Src/isp_core.c **** 
 337:Lib/Camera_Middleware/ISP_Library/isp/Src/isp_core.c ****   /* Check if a statistics gathering cycle has been completed to call the statistic callbacks */
 338:Lib/Camera_Middleware/ISP_Library/isp/Src/isp_core.c ****   retStats = ISP_SVC_Stats_ProcessCallbacks(hIsp);
 760              		.loc 1 338 14
 761 0012 7868     		ldr	r0, [r7, #4]
 762 0014 FFF7FEFF 		bl	ISP_SVC_Stats_ProcessCallbacks
 763 0018 0346     		mov	r3, r0
 764 001a FB73     		strb	r3, [r7, #15]
 339:Lib/Camera_Middleware/ISP_Library/isp/Src/isp_core.c **** 
 340:Lib/Camera_Middleware/ISP_Library/isp/Src/isp_core.c ****   /* Process the algorithms */
 341:Lib/Camera_Middleware/ISP_Library/isp/Src/isp_core.c ****   retAlgo = ISP_Algo_Process(hIsp);
 765              		.loc 1 341 13
 766 001c 7868     		ldr	r0, [r7, #4]
 767 001e FFF7FEFF 		bl	ISP_Algo_Process
 768 0022 0346     		mov	r3, r0
 769 0024 BB73     		strb	r3, [r7, #14]
 342:Lib/Camera_Middleware/ISP_Library/isp/Src/isp_core.c **** 
 343:Lib/Camera_Middleware/ISP_Library/isp/Src/isp_core.c **** #ifdef ISP_MW_TUNING_TOOL_SUPPORT
ARM GAS  /tmp/ccodgxQi.s 			page 21


 344:Lib/Camera_Middleware/ISP_Library/isp/Src/isp_core.c ****   if (retCmdParser != ISP_OK)
 345:Lib/Camera_Middleware/ISP_Library/isp/Src/isp_core.c ****   {
 346:Lib/Camera_Middleware/ISP_Library/isp/Src/isp_core.c ****     return retCmdParser;
 347:Lib/Camera_Middleware/ISP_Library/isp/Src/isp_core.c ****   }
 348:Lib/Camera_Middleware/ISP_Library/isp/Src/isp_core.c **** #endif
 349:Lib/Camera_Middleware/ISP_Library/isp/Src/isp_core.c ****   if (retStats != ISP_OK)
 770              		.loc 1 349 6
 771 0026 FB7B     		ldrb	r3, [r7, #15]	@ zero_extendqisi2
 772 0028 002B     		cmp	r3, #0
 773 002a 01D0     		beq	.L47
 350:Lib/Camera_Middleware/ISP_Library/isp/Src/isp_core.c ****   {
 351:Lib/Camera_Middleware/ISP_Library/isp/Src/isp_core.c ****     return retStats;
 774              		.loc 1 351 12
 775 002c FB7B     		ldrb	r3, [r7, #15]	@ zero_extendqisi2
 776 002e 05E0     		b	.L46
 777              	.L47:
 352:Lib/Camera_Middleware/ISP_Library/isp/Src/isp_core.c ****   }
 353:Lib/Camera_Middleware/ISP_Library/isp/Src/isp_core.c ****   else if (retAlgo != ISP_OK)
 778              		.loc 1 353 11
 779 0030 BB7B     		ldrb	r3, [r7, #14]	@ zero_extendqisi2
 780 0032 002B     		cmp	r3, #0
 781 0034 01D0     		beq	.L48
 354:Lib/Camera_Middleware/ISP_Library/isp/Src/isp_core.c ****   {
 355:Lib/Camera_Middleware/ISP_Library/isp/Src/isp_core.c ****     return retAlgo;
 782              		.loc 1 355 12
 783 0036 BB7B     		ldrb	r3, [r7, #14]	@ zero_extendqisi2
 784 0038 00E0     		b	.L46
 785              	.L48:
 356:Lib/Camera_Middleware/ISP_Library/isp/Src/isp_core.c ****   }
 357:Lib/Camera_Middleware/ISP_Library/isp/Src/isp_core.c **** 
 358:Lib/Camera_Middleware/ISP_Library/isp/Src/isp_core.c ****   return ISP_OK;
 786              		.loc 1 358 10
 787 003a 0023     		movs	r3, #0
 788              	.L46:
 359:Lib/Camera_Middleware/ISP_Library/isp/Src/isp_core.c **** }
 789              		.loc 1 359 1
 790 003c 1846     		mov	r0, r3
 791 003e 1037     		adds	r7, r7, #16
 792              		.cfi_def_cfa_offset 8
 793 0040 BD46     		mov	sp, r7
 794              		.cfi_def_cfa_register 13
 795              		@ sp needed
 796 0042 80BD     		pop	{r7, pc}
 797              		.cfi_endproc
 798              	.LFE841:
 800              		.section	.text.ISP_SetExposureTarget,"ax",%progbits
 801              		.align	1
 802              		.global	ISP_SetExposureTarget
 803              		.syntax unified
 804              		.thumb
 805              		.thumb_func
 807              	ISP_SetExposureTarget:
 808              	.LFB842:
 360:Lib/Camera_Middleware/ISP_Library/isp/Src/isp_core.c **** 
 361:Lib/Camera_Middleware/ISP_Library/isp/Src/isp_core.c **** /**
 362:Lib/Camera_Middleware/ISP_Library/isp/Src/isp_core.c ****   * @brief  ISP_SetExposureTarget
 363:Lib/Camera_Middleware/ISP_Library/isp/Src/isp_core.c ****   *         Update the exposure target used by the AEC algorithm
ARM GAS  /tmp/ccodgxQi.s 			page 22


 364:Lib/Camera_Middleware/ISP_Library/isp/Src/isp_core.c ****   * @param  hIsp: ISP device handle
 365:Lib/Camera_Middleware/ISP_Library/isp/Src/isp_core.c ****   * @param  ExposureTarget: Exposure target
 366:Lib/Camera_Middleware/ISP_Library/isp/Src/isp_core.c ****   * @retval Operation status
 367:Lib/Camera_Middleware/ISP_Library/isp/Src/isp_core.c ****   */
 368:Lib/Camera_Middleware/ISP_Library/isp/Src/isp_core.c **** ISP_StatusTypeDef ISP_SetExposureTarget(ISP_HandleTypeDef *hIsp, ISP_ExposureCompTypeDef ExposureCo
 369:Lib/Camera_Middleware/ISP_Library/isp/Src/isp_core.c **** {
 809              		.loc 1 369 1
 810              		.cfi_startproc
 811              		@ args = 0, pretend = 0, frame = 16
 812              		@ frame_needed = 1, uses_anonymous_args = 0
 813 0000 80B5     		push	{r7, lr}
 814              		.cfi_def_cfa_offset 8
 815              		.cfi_offset 7, -8
 816              		.cfi_offset 14, -4
 817 0002 84B0     		sub	sp, sp, #16
 818              		.cfi_def_cfa_offset 24
 819 0004 00AF     		add	r7, sp, #0
 820              		.cfi_def_cfa_register 7
 821 0006 7860     		str	r0, [r7, #4]
 822 0008 0B46     		mov	r3, r1
 823 000a FB70     		strb	r3, [r7, #3]
 370:Lib/Camera_Middleware/ISP_Library/isp/Src/isp_core.c ****   ISP_IQParamTypeDef *IQParamConfig;
 371:Lib/Camera_Middleware/ISP_Library/isp/Src/isp_core.c **** 
 372:Lib/Camera_Middleware/ISP_Library/isp/Src/isp_core.c ****   IQParamConfig = ISP_SVC_IQParam_Get(hIsp);
 824              		.loc 1 372 19
 825 000c 7868     		ldr	r0, [r7, #4]
 826 000e FFF7FEFF 		bl	ISP_SVC_IQParam_Get
 827 0012 F860     		str	r0, [r7, #12]
 373:Lib/Camera_Middleware/ISP_Library/isp/Src/isp_core.c ****   IQParamConfig->AECAlgo.exposureCompensation = ExposureCompensation;
 828              		.loc 1 373 47
 829 0014 FB68     		ldr	r3, [r7, #12]
 830 0016 FA78     		ldrb	r2, [r7, #3]
 831 0018 83F86920 		strb	r2, [r3, #105]
 374:Lib/Camera_Middleware/ISP_Library/isp/Src/isp_core.c ****   IQParamConfig->AECAlgo.exposureTarget = (uint32_t) (ISP_IDEAL_TARGET_EXPOSURE * pow(2, (float)Exp
 832              		.loc 1 374 90
 833 001c 97F90330 		ldrsb	r3, [r7, #3]
 834 0020 07EE903A 		vmov	s15, r3	@ int
 835 0024 B8EEE77A 		vcvt.f32.s32	s14, s15
 836              		.loc 1 374 118
 837 0028 F0EE006A 		vmov.f32	s13, #2.0e+0
 838 002c C7EE267A 		vdiv.f32	s15, s14, s13
 839              		.loc 1 374 83
 840 0030 B7EEE77A 		vcvt.f64.f32	d7, s15
 841 0034 B0EE471B 		vmov.f64	d1, d7
 842 0038 B0EE000B 		vmov.f64	d0, #2.0e+0
 843 003c FFF7FEFF 		bl	pow
 844 0040 B0EE407B 		vmov.f64	d7, d0
 845              		.loc 1 374 81 discriminator 1
 846 0044 9FED086B 		vldr.64	d6, .L51
 847 0048 27EE067B 		vmul.f64	d7, d7, d6
 848              		.loc 1 374 43 discriminator 1
 849 004c FCEEC77B 		vcvt.u32.f64	s15, d7
 850 0050 17EE902A 		vmov	r2, s15	@ int
 851              		.loc 1 374 41 discriminator 1
 852 0054 FB68     		ldr	r3, [r7, #12]
 853 0056 DA66     		str	r2, [r3, #108]
 375:Lib/Camera_Middleware/ISP_Library/isp/Src/isp_core.c **** 
ARM GAS  /tmp/ccodgxQi.s 			page 23


 376:Lib/Camera_Middleware/ISP_Library/isp/Src/isp_core.c ****   return ISP_OK;
 854              		.loc 1 376 10
 855 0058 0023     		movs	r3, #0
 377:Lib/Camera_Middleware/ISP_Library/isp/Src/isp_core.c **** }
 856              		.loc 1 377 1
 857 005a 1846     		mov	r0, r3
 858 005c 1037     		adds	r7, r7, #16
 859              		.cfi_def_cfa_offset 8
 860 005e BD46     		mov	sp, r7
 861              		.cfi_def_cfa_register 13
 862              		@ sp needed
 863 0060 80BD     		pop	{r7, pc}
 864              	.L52:
 865 0062 00BFAFF3 		.align	3
 865      0080
 866              	.L51:
 867 0068 00000000 		.word	0
 868 006c 00004C40 		.word	1078722560
 869              		.cfi_endproc
 870              	.LFE842:
 872              		.section	.text.ISP_GetExposureTarget,"ax",%progbits
 873              		.align	1
 874              		.global	ISP_GetExposureTarget
 875              		.syntax unified
 876              		.thumb
 877              		.thumb_func
 879              	ISP_GetExposureTarget:
 880              	.LFB843:
 378:Lib/Camera_Middleware/ISP_Library/isp/Src/isp_core.c **** 
 379:Lib/Camera_Middleware/ISP_Library/isp/Src/isp_core.c **** /**
 380:Lib/Camera_Middleware/ISP_Library/isp/Src/isp_core.c ****   * @brief  ISP_GetExposureTarget
 381:Lib/Camera_Middleware/ISP_Library/isp/Src/isp_core.c ****   *         Get the exposure target used by the AEC algorithm
 382:Lib/Camera_Middleware/ISP_Library/isp/Src/isp_core.c ****   * @param  hIsp: ISP device handle
 383:Lib/Camera_Middleware/ISP_Library/isp/Src/isp_core.c ****   * @param  pExposureTarget: Pointer to exposure target
 384:Lib/Camera_Middleware/ISP_Library/isp/Src/isp_core.c ****   * @retval Operation status
 385:Lib/Camera_Middleware/ISP_Library/isp/Src/isp_core.c ****   */
 386:Lib/Camera_Middleware/ISP_Library/isp/Src/isp_core.c **** ISP_StatusTypeDef ISP_GetExposureTarget(ISP_HandleTypeDef *hIsp, ISP_ExposureCompTypeDef *pExposure
 387:Lib/Camera_Middleware/ISP_Library/isp/Src/isp_core.c **** {
 881              		.loc 1 387 1
 882              		.cfi_startproc
 883              		@ args = 0, pretend = 0, frame = 24
 884              		@ frame_needed = 1, uses_anonymous_args = 0
 885 0000 80B5     		push	{r7, lr}
 886              		.cfi_def_cfa_offset 8
 887              		.cfi_offset 7, -8
 888              		.cfi_offset 14, -4
 889 0002 86B0     		sub	sp, sp, #24
 890              		.cfi_def_cfa_offset 32
 891 0004 00AF     		add	r7, sp, #0
 892              		.cfi_def_cfa_register 7
 893 0006 F860     		str	r0, [r7, #12]
 894 0008 B960     		str	r1, [r7, #8]
 895 000a 7A60     		str	r2, [r7, #4]
 388:Lib/Camera_Middleware/ISP_Library/isp/Src/isp_core.c ****   ISP_IQParamTypeDef *IQParamConfig;
 389:Lib/Camera_Middleware/ISP_Library/isp/Src/isp_core.c **** 
 390:Lib/Camera_Middleware/ISP_Library/isp/Src/isp_core.c ****   IQParamConfig = ISP_SVC_IQParam_Get(hIsp);
 896              		.loc 1 390 19
ARM GAS  /tmp/ccodgxQi.s 			page 24


 897 000c F868     		ldr	r0, [r7, #12]
 898 000e FFF7FEFF 		bl	ISP_SVC_IQParam_Get
 899 0012 7861     		str	r0, [r7, #20]
 391:Lib/Camera_Middleware/ISP_Library/isp/Src/isp_core.c ****   *pExposureTarget = IQParamConfig->AECAlgo.exposureTarget;
 900              		.loc 1 391 44
 901 0014 7B69     		ldr	r3, [r7, #20]
 902 0016 DA6E     		ldr	r2, [r3, #108]
 903              		.loc 1 391 20
 904 0018 7B68     		ldr	r3, [r7, #4]
 905 001a 1A60     		str	r2, [r3]
 392:Lib/Camera_Middleware/ISP_Library/isp/Src/isp_core.c ****   *pExposureCompensation = IQParamConfig->AECAlgo.exposureCompensation;
 906              		.loc 1 392 50
 907 001c 7B69     		ldr	r3, [r7, #20]
 908 001e 93F96920 		ldrsb	r2, [r3, #105]
 909              		.loc 1 392 26
 910 0022 BB68     		ldr	r3, [r7, #8]
 911 0024 1A70     		strb	r2, [r3]
 393:Lib/Camera_Middleware/ISP_Library/isp/Src/isp_core.c **** 
 394:Lib/Camera_Middleware/ISP_Library/isp/Src/isp_core.c ****   return ISP_OK;
 912              		.loc 1 394 10
 913 0026 0023     		movs	r3, #0
 395:Lib/Camera_Middleware/ISP_Library/isp/Src/isp_core.c **** }
 914              		.loc 1 395 1
 915 0028 1846     		mov	r0, r3
 916 002a 1837     		adds	r7, r7, #24
 917              		.cfi_def_cfa_offset 8
 918 002c BD46     		mov	sp, r7
 919              		.cfi_def_cfa_register 13
 920              		@ sp needed
 921 002e 80BD     		pop	{r7, pc}
 922              		.cfi_endproc
 923              	.LFE843:
 925              		.section	.text.ISP_SetAECState,"ax",%progbits
 926              		.align	1
 927              		.global	ISP_SetAECState
 928              		.syntax unified
 929              		.thumb
 930              		.thumb_func
 932              	ISP_SetAECState:
 933              	.LFB844:
 396:Lib/Camera_Middleware/ISP_Library/isp/Src/isp_core.c **** 
 397:Lib/Camera_Middleware/ISP_Library/isp/Src/isp_core.c **** /**
 398:Lib/Camera_Middleware/ISP_Library/isp/Src/isp_core.c ****   * @brief  ISP_SetAECState
 399:Lib/Camera_Middleware/ISP_Library/isp/Src/isp_core.c ****   *         Set AEC algorithm state
 400:Lib/Camera_Middleware/ISP_Library/isp/Src/isp_core.c ****   * @param  hIsp: ISP device handle
 401:Lib/Camera_Middleware/ISP_Library/isp/Src/isp_core.c ****   * @param  enable: AEC algorithm state ('true' if algo is running, 'false' if algo is stopped)
 402:Lib/Camera_Middleware/ISP_Library/isp/Src/isp_core.c ****   * @retval Operation status
 403:Lib/Camera_Middleware/ISP_Library/isp/Src/isp_core.c ****   */
 404:Lib/Camera_Middleware/ISP_Library/isp/Src/isp_core.c **** ISP_StatusTypeDef ISP_SetAECState(ISP_HandleTypeDef *hIsp, uint8_t enable)
 405:Lib/Camera_Middleware/ISP_Library/isp/Src/isp_core.c **** {
 934              		.loc 1 405 1
 935              		.cfi_startproc
 936              		@ args = 0, pretend = 0, frame = 16
 937              		@ frame_needed = 1, uses_anonymous_args = 0
 938 0000 80B5     		push	{r7, lr}
 939              		.cfi_def_cfa_offset 8
 940              		.cfi_offset 7, -8
ARM GAS  /tmp/ccodgxQi.s 			page 25


 941              		.cfi_offset 14, -4
 942 0002 84B0     		sub	sp, sp, #16
 943              		.cfi_def_cfa_offset 24
 944 0004 00AF     		add	r7, sp, #0
 945              		.cfi_def_cfa_register 7
 946 0006 7860     		str	r0, [r7, #4]
 947 0008 0B46     		mov	r3, r1
 948 000a FB70     		strb	r3, [r7, #3]
 406:Lib/Camera_Middleware/ISP_Library/isp/Src/isp_core.c ****   ISP_IQParamTypeDef *IQParamConfig;
 407:Lib/Camera_Middleware/ISP_Library/isp/Src/isp_core.c **** 
 408:Lib/Camera_Middleware/ISP_Library/isp/Src/isp_core.c ****   IQParamConfig = ISP_SVC_IQParam_Get(hIsp);
 949              		.loc 1 408 19
 950 000c 7868     		ldr	r0, [r7, #4]
 951 000e FFF7FEFF 		bl	ISP_SVC_IQParam_Get
 952 0012 F860     		str	r0, [r7, #12]
 409:Lib/Camera_Middleware/ISP_Library/isp/Src/isp_core.c ****   IQParamConfig->AECAlgo.enable = enable;
 953              		.loc 1 409 33
 954 0014 FB68     		ldr	r3, [r7, #12]
 955 0016 FA78     		ldrb	r2, [r7, #3]
 956 0018 83F86820 		strb	r2, [r3, #104]
 410:Lib/Camera_Middleware/ISP_Library/isp/Src/isp_core.c **** 
 411:Lib/Camera_Middleware/ISP_Library/isp/Src/isp_core.c ****   return ISP_OK;
 957              		.loc 1 411 10
 958 001c 0023     		movs	r3, #0
 412:Lib/Camera_Middleware/ISP_Library/isp/Src/isp_core.c **** }
 959              		.loc 1 412 1
 960 001e 1846     		mov	r0, r3
 961 0020 1037     		adds	r7, r7, #16
 962              		.cfi_def_cfa_offset 8
 963 0022 BD46     		mov	sp, r7
 964              		.cfi_def_cfa_register 13
 965              		@ sp needed
 966 0024 80BD     		pop	{r7, pc}
 967              		.cfi_endproc
 968              	.LFE844:
 970              		.section	.text.ISP_GetAECState,"ax",%progbits
 971              		.align	1
 972              		.global	ISP_GetAECState
 973              		.syntax unified
 974              		.thumb
 975              		.thumb_func
 977              	ISP_GetAECState:
 978              	.LFB845:
 413:Lib/Camera_Middleware/ISP_Library/isp/Src/isp_core.c **** 
 414:Lib/Camera_Middleware/ISP_Library/isp/Src/isp_core.c **** /**
 415:Lib/Camera_Middleware/ISP_Library/isp/Src/isp_core.c ****   * @brief  ISP_GetAECState
 416:Lib/Camera_Middleware/ISP_Library/isp/Src/isp_core.c ****   *         Get AEC algorithm state
 417:Lib/Camera_Middleware/ISP_Library/isp/Src/isp_core.c ****   * @param  hIsp: ISP device handle
 418:Lib/Camera_Middleware/ISP_Library/isp/Src/isp_core.c ****   * @param  pEnable: AEC algorithm pointer to current state ('true' if algo is running, 'false' if 
 419:Lib/Camera_Middleware/ISP_Library/isp/Src/isp_core.c ****   * @retval Operation status
 420:Lib/Camera_Middleware/ISP_Library/isp/Src/isp_core.c ****   */
 421:Lib/Camera_Middleware/ISP_Library/isp/Src/isp_core.c **** ISP_StatusTypeDef ISP_GetAECState(ISP_HandleTypeDef *hIsp, uint8_t *pEnable)
 422:Lib/Camera_Middleware/ISP_Library/isp/Src/isp_core.c **** {
 979              		.loc 1 422 1
 980              		.cfi_startproc
 981              		@ args = 0, pretend = 0, frame = 16
 982              		@ frame_needed = 1, uses_anonymous_args = 0
ARM GAS  /tmp/ccodgxQi.s 			page 26


 983 0000 80B5     		push	{r7, lr}
 984              		.cfi_def_cfa_offset 8
 985              		.cfi_offset 7, -8
 986              		.cfi_offset 14, -4
 987 0002 84B0     		sub	sp, sp, #16
 988              		.cfi_def_cfa_offset 24
 989 0004 00AF     		add	r7, sp, #0
 990              		.cfi_def_cfa_register 7
 991 0006 7860     		str	r0, [r7, #4]
 992 0008 3960     		str	r1, [r7]
 423:Lib/Camera_Middleware/ISP_Library/isp/Src/isp_core.c ****   ISP_IQParamTypeDef *IQParamConfig;
 424:Lib/Camera_Middleware/ISP_Library/isp/Src/isp_core.c **** 
 425:Lib/Camera_Middleware/ISP_Library/isp/Src/isp_core.c ****   IQParamConfig = ISP_SVC_IQParam_Get(hIsp);
 993              		.loc 1 425 19
 994 000a 7868     		ldr	r0, [r7, #4]
 995 000c FFF7FEFF 		bl	ISP_SVC_IQParam_Get
 996 0010 F860     		str	r0, [r7, #12]
 426:Lib/Camera_Middleware/ISP_Library/isp/Src/isp_core.c ****   *pEnable = IQParamConfig->AECAlgo.enable;
 997              		.loc 1 426 36
 998 0012 FB68     		ldr	r3, [r7, #12]
 999 0014 93F86820 		ldrb	r2, [r3, #104]	@ zero_extendqisi2
 1000              		.loc 1 426 12
 1001 0018 3B68     		ldr	r3, [r7]
 1002 001a 1A70     		strb	r2, [r3]
 427:Lib/Camera_Middleware/ISP_Library/isp/Src/isp_core.c **** 
 428:Lib/Camera_Middleware/ISP_Library/isp/Src/isp_core.c ****   return ISP_OK;
 1003              		.loc 1 428 10
 1004 001c 0023     		movs	r3, #0
 429:Lib/Camera_Middleware/ISP_Library/isp/Src/isp_core.c **** }
 1005              		.loc 1 429 1
 1006 001e 1846     		mov	r0, r3
 1007 0020 1037     		adds	r7, r7, #16
 1008              		.cfi_def_cfa_offset 8
 1009 0022 BD46     		mov	sp, r7
 1010              		.cfi_def_cfa_register 13
 1011              		@ sp needed
 1012 0024 80BD     		pop	{r7, pc}
 1013              		.cfi_endproc
 1014              	.LFE845:
 1016              		.section	.text.ISP_ListWBRefModes,"ax",%progbits
 1017              		.align	1
 1018              		.global	ISP_ListWBRefModes
 1019              		.syntax unified
 1020              		.thumb
 1021              		.thumb_func
 1023              	ISP_ListWBRefModes:
 1024              	.LFB846:
 430:Lib/Camera_Middleware/ISP_Library/isp/Src/isp_core.c **** 
 431:Lib/Camera_Middleware/ISP_Library/isp/Src/isp_core.c **** /**
 432:Lib/Camera_Middleware/ISP_Library/isp/Src/isp_core.c ****   * @brief  ISP_ListWBRefModes
 433:Lib/Camera_Middleware/ISP_Library/isp/Src/isp_core.c ****   *         List the reference modes (color temperature) that define a white balance configuration
 434:Lib/Camera_Middleware/ISP_Library/isp/Src/isp_core.c ****   * @param  hIsp: ISP device handle
 435:Lib/Camera_Middleware/ISP_Library/isp/Src/isp_core.c ****   * @param  RefColorTemp: Array of reference color temperatures
 436:Lib/Camera_Middleware/ISP_Library/isp/Src/isp_core.c ****   * @retval Operation status
 437:Lib/Camera_Middleware/ISP_Library/isp/Src/isp_core.c ****   */
 438:Lib/Camera_Middleware/ISP_Library/isp/Src/isp_core.c **** ISP_StatusTypeDef ISP_ListWBRefModes(ISP_HandleTypeDef *hIsp, uint32_t RefColorTemp[])
 439:Lib/Camera_Middleware/ISP_Library/isp/Src/isp_core.c **** {
ARM GAS  /tmp/ccodgxQi.s 			page 27


 1025              		.loc 1 439 1
 1026              		.cfi_startproc
 1027              		@ args = 0, pretend = 0, frame = 16
 1028              		@ frame_needed = 1, uses_anonymous_args = 0
 1029 0000 80B5     		push	{r7, lr}
 1030              		.cfi_def_cfa_offset 8
 1031              		.cfi_offset 7, -8
 1032              		.cfi_offset 14, -4
 1033 0002 84B0     		sub	sp, sp, #16
 1034              		.cfi_def_cfa_offset 24
 1035 0004 00AF     		add	r7, sp, #0
 1036              		.cfi_def_cfa_register 7
 1037 0006 7860     		str	r0, [r7, #4]
 1038 0008 3960     		str	r1, [r7]
 440:Lib/Camera_Middleware/ISP_Library/isp/Src/isp_core.c ****   ISP_IQParamTypeDef *IQParamConfig;
 441:Lib/Camera_Middleware/ISP_Library/isp/Src/isp_core.c **** 
 442:Lib/Camera_Middleware/ISP_Library/isp/Src/isp_core.c ****   IQParamConfig = ISP_SVC_IQParam_Get(hIsp);
 1039              		.loc 1 442 19
 1040 000a 7868     		ldr	r0, [r7, #4]
 1041 000c FFF7FEFF 		bl	ISP_SVC_IQParam_Get
 1042 0010 F860     		str	r0, [r7, #12]
 443:Lib/Camera_Middleware/ISP_Library/isp/Src/isp_core.c **** 
 444:Lib/Camera_Middleware/ISP_Library/isp/Src/isp_core.c ****   memcpy(RefColorTemp, IQParamConfig->AWBAlgo.referenceColorTemp, sizeof(IQParamConfig->AWBAlgo.ref
 1043              		.loc 1 444 46
 1044 0012 FB68     		ldr	r3, [r7, #12]
 1045 0014 03F58C73 		add	r3, r3, #280
 1046              		.loc 1 444 3
 1047 0018 1422     		movs	r2, #20
 1048 001a 1946     		mov	r1, r3
 1049 001c 3868     		ldr	r0, [r7]
 1050 001e FFF7FEFF 		bl	memcpy
 445:Lib/Camera_Middleware/ISP_Library/isp/Src/isp_core.c **** 
 446:Lib/Camera_Middleware/ISP_Library/isp/Src/isp_core.c ****   return ISP_OK;
 1051              		.loc 1 446 10
 1052 0022 0023     		movs	r3, #0
 447:Lib/Camera_Middleware/ISP_Library/isp/Src/isp_core.c **** }
 1053              		.loc 1 447 1
 1054 0024 1846     		mov	r0, r3
 1055 0026 1037     		adds	r7, r7, #16
 1056              		.cfi_def_cfa_offset 8
 1057 0028 BD46     		mov	sp, r7
 1058              		.cfi_def_cfa_register 13
 1059              		@ sp needed
 1060 002a 80BD     		pop	{r7, pc}
 1061              		.cfi_endproc
 1062              	.LFE846:
 1064              		.section	.text.ISP_SetWBRefMode,"ax",%progbits
 1065              		.align	1
 1066              		.global	ISP_SetWBRefMode
 1067              		.syntax unified
 1068              		.thumb
 1069              		.thumb_func
 1071              	ISP_SetWBRefMode:
 1072              	.LFB847:
 448:Lib/Camera_Middleware/ISP_Library/isp/Src/isp_core.c **** 
 449:Lib/Camera_Middleware/ISP_Library/isp/Src/isp_core.c **** /**
 450:Lib/Camera_Middleware/ISP_Library/isp/Src/isp_core.c ****   * @brief  ISP_SetWBRefMode
ARM GAS  /tmp/ccodgxQi.s 			page 28


 451:Lib/Camera_Middleware/ISP_Library/isp/Src/isp_core.c ****   *         Set the reference mode that define a white balance configuration.
 452:Lib/Camera_Middleware/ISP_Library/isp/Src/isp_core.c ****   *         Can be a manual mode specified by a color temperature, or 'Automatic' relying on the AW
 453:Lib/Camera_Middleware/ISP_Library/isp/Src/isp_core.c ****   * @param  hIsp: ISP device handle
 454:Lib/Camera_Middleware/ISP_Library/isp/Src/isp_core.c ****   * @param  Automatic: 'true' if the AWB automatic mode is requested
 455:Lib/Camera_Middleware/ISP_Library/isp/Src/isp_core.c ****   * @param  RefColorTemp: Reference color temperature (manual mode). Not significant if Automatic i
 456:Lib/Camera_Middleware/ISP_Library/isp/Src/isp_core.c ****   * @retval Operation status
 457:Lib/Camera_Middleware/ISP_Library/isp/Src/isp_core.c ****   */
 458:Lib/Camera_Middleware/ISP_Library/isp/Src/isp_core.c **** ISP_StatusTypeDef ISP_SetWBRefMode(ISP_HandleTypeDef *hIsp, uint8_t Automatic, uint32_t RefColorTem
 459:Lib/Camera_Middleware/ISP_Library/isp/Src/isp_core.c **** {
 1073              		.loc 1 459 1
 1074              		.cfi_startproc
 1075              		@ args = 0, pretend = 0, frame = 88
 1076              		@ frame_needed = 1, uses_anonymous_args = 0
 1077 0000 80B5     		push	{r7, lr}
 1078              		.cfi_def_cfa_offset 8
 1079              		.cfi_offset 7, -8
 1080              		.cfi_offset 14, -4
 1081 0002 96B0     		sub	sp, sp, #88
 1082              		.cfi_def_cfa_offset 96
 1083 0004 00AF     		add	r7, sp, #0
 1084              		.cfi_def_cfa_register 7
 1085 0006 F860     		str	r0, [r7, #12]
 1086 0008 0B46     		mov	r3, r1
 1087 000a 7A60     		str	r2, [r7, #4]
 1088 000c FB72     		strb	r3, [r7, #11]
 460:Lib/Camera_Middleware/ISP_Library/isp/Src/isp_core.c ****   ISP_ISPGainTypeDef ISPGain;
 461:Lib/Camera_Middleware/ISP_Library/isp/Src/isp_core.c ****   ISP_ColorConvTypeDef ColorConv;
 462:Lib/Camera_Middleware/ISP_Library/isp/Src/isp_core.c ****   ISP_IQParamTypeDef *IQParamConfig;
 463:Lib/Camera_Middleware/ISP_Library/isp/Src/isp_core.c ****   ISP_StatusTypeDef ret;
 464:Lib/Camera_Middleware/ISP_Library/isp/Src/isp_core.c ****   uint32_t index;
 465:Lib/Camera_Middleware/ISP_Library/isp/Src/isp_core.c **** 
 466:Lib/Camera_Middleware/ISP_Library/isp/Src/isp_core.c ****   IQParamConfig = ISP_SVC_IQParam_Get(hIsp);
 1089              		.loc 1 466 19
 1090 000e F868     		ldr	r0, [r7, #12]
 1091 0010 FFF7FEFF 		bl	ISP_SVC_IQParam_Get
 1092 0014 3865     		str	r0, [r7, #80]
 467:Lib/Camera_Middleware/ISP_Library/isp/Src/isp_core.c **** 
 468:Lib/Camera_Middleware/ISP_Library/isp/Src/isp_core.c ****   if (Automatic)
 1093              		.loc 1 468 6
 1094 0016 FB7A     		ldrb	r3, [r7, #11]	@ zero_extendqisi2
 1095 0018 002B     		cmp	r3, #0
 1096 001a 04D0     		beq	.L62
 469:Lib/Camera_Middleware/ISP_Library/isp/Src/isp_core.c ****   {
 470:Lib/Camera_Middleware/ISP_Library/isp/Src/isp_core.c ****     /* Start the AWB algorithm */
 471:Lib/Camera_Middleware/ISP_Library/isp/Src/isp_core.c ****     IQParamConfig->AWBAlgo.enable = 1;
 1097              		.loc 1 471 35
 1098 001c 3B6D     		ldr	r3, [r7, #80]
 1099 001e 0122     		movs	r2, #1
 1100 0020 83F87420 		strb	r2, [r3, #116]
 1101 0024 76E0     		b	.L63
 1102              	.L62:
 472:Lib/Camera_Middleware/ISP_Library/isp/Src/isp_core.c ****   }
 473:Lib/Camera_Middleware/ISP_Library/isp/Src/isp_core.c ****   else
 474:Lib/Camera_Middleware/ISP_Library/isp/Src/isp_core.c ****   {
 475:Lib/Camera_Middleware/ISP_Library/isp/Src/isp_core.c ****     /* Check the validity of RefColorTemp */
 476:Lib/Camera_Middleware/ISP_Library/isp/Src/isp_core.c ****     for (index = 0; index < ISP_AWB_COLORTEMP_REF; index++)
 1103              		.loc 1 476 16
ARM GAS  /tmp/ccodgxQi.s 			page 29


 1104 0026 0023     		movs	r3, #0
 1105 0028 7B65     		str	r3, [r7, #84]
 1106              		.loc 1 476 5
 1107 002a 0BE0     		b	.L64
 1108              	.L67:
 477:Lib/Camera_Middleware/ISP_Library/isp/Src/isp_core.c ****     {
 478:Lib/Camera_Middleware/ISP_Library/isp/Src/isp_core.c ****       if (IQParamConfig->AWBAlgo.referenceColorTemp[index] == RefColorTemp)
 1109              		.loc 1 478 52
 1110 002c 3A6D     		ldr	r2, [r7, #80]
 1111 002e 7B6D     		ldr	r3, [r7, #84]
 1112 0030 4433     		adds	r3, r3, #68
 1113 0032 9B00     		lsls	r3, r3, #2
 1114 0034 1344     		add	r3, r3, r2
 1115 0036 9B68     		ldr	r3, [r3, #8]
 1116              		.loc 1 478 10
 1117 0038 7A68     		ldr	r2, [r7, #4]
 1118 003a 9A42     		cmp	r2, r3
 1119 003c 06D0     		beq	.L73
 476:Lib/Camera_Middleware/ISP_Library/isp/Src/isp_core.c ****     {
 1120              		.loc 1 476 57 discriminator 2
 1121 003e 7B6D     		ldr	r3, [r7, #84]
 1122 0040 0133     		adds	r3, r3, #1
 1123 0042 7B65     		str	r3, [r7, #84]
 1124              	.L64:
 476:Lib/Camera_Middleware/ISP_Library/isp/Src/isp_core.c ****     {
 1125              		.loc 1 476 27 discriminator 1
 1126 0044 7B6D     		ldr	r3, [r7, #84]
 1127 0046 042B     		cmp	r3, #4
 1128 0048 F0D9     		bls	.L67
 1129 004a 00E0     		b	.L66
 1130              	.L73:
 479:Lib/Camera_Middleware/ISP_Library/isp/Src/isp_core.c ****         break;
 1131              		.loc 1 479 9
 1132 004c 00BF     		nop
 1133              	.L66:
 480:Lib/Camera_Middleware/ISP_Library/isp/Src/isp_core.c ****     }
 481:Lib/Camera_Middleware/ISP_Library/isp/Src/isp_core.c **** 
 482:Lib/Camera_Middleware/ISP_Library/isp/Src/isp_core.c ****     if (index >= ISP_AWB_COLORTEMP_REF)
 1134              		.loc 1 482 8
 1135 004e 7B6D     		ldr	r3, [r7, #84]
 1136 0050 042B     		cmp	r3, #4
 1137 0052 01D9     		bls	.L68
 483:Lib/Camera_Middleware/ISP_Library/isp/Src/isp_core.c ****     {
 484:Lib/Camera_Middleware/ISP_Library/isp/Src/isp_core.c ****       /* Unknown reference color temperature */
 485:Lib/Camera_Middleware/ISP_Library/isp/Src/isp_core.c ****       return ISP_ERR_WB_COLORTEMP;
 1138              		.loc 1 485 14
 1139 0054 9623     		movs	r3, #150
 1140 0056 5EE0     		b	.L72
 1141              	.L68:
 486:Lib/Camera_Middleware/ISP_Library/isp/Src/isp_core.c ****     }
 487:Lib/Camera_Middleware/ISP_Library/isp/Src/isp_core.c **** 
 488:Lib/Camera_Middleware/ISP_Library/isp/Src/isp_core.c ****     /* Stop the AWB algorithm */
 489:Lib/Camera_Middleware/ISP_Library/isp/Src/isp_core.c ****     IQParamConfig->AWBAlgo.enable = 0;
 1142              		.loc 1 489 35
 1143 0058 3B6D     		ldr	r3, [r7, #80]
 1144 005a 0022     		movs	r2, #0
 1145 005c 83F87420 		strb	r2, [r3, #116]
ARM GAS  /tmp/ccodgxQi.s 			page 30


 490:Lib/Camera_Middleware/ISP_Library/isp/Src/isp_core.c **** 
 491:Lib/Camera_Middleware/ISP_Library/isp/Src/isp_core.c ****     /* Apply ISP RGB gains and Color Conversion */
 492:Lib/Camera_Middleware/ISP_Library/isp/Src/isp_core.c ****     ISPGain.enable = 1;
 1146              		.loc 1 492 20
 1147 0060 0123     		movs	r3, #1
 1148 0062 87F83C30 		strb	r3, [r7, #60]
 493:Lib/Camera_Middleware/ISP_Library/isp/Src/isp_core.c ****     ISPGain.ispGainR = IQParamConfig->AWBAlgo.ispGainR[index];
 1149              		.loc 1 493 55
 1150 0066 3A6D     		ldr	r2, [r7, #80]
 1151 0068 7B6D     		ldr	r3, [r7, #84]
 1152 006a 4A33     		adds	r3, r3, #74
 1153 006c 9B00     		lsls	r3, r3, #2
 1154 006e 1344     		add	r3, r3, r2
 1155 0070 5B68     		ldr	r3, [r3, #4]
 1156              		.loc 1 493 22
 1157 0072 3B64     		str	r3, [r7, #64]
 494:Lib/Camera_Middleware/ISP_Library/isp/Src/isp_core.c ****     ISPGain.ispGainG = IQParamConfig->AWBAlgo.ispGainG[index];
 1158              		.loc 1 494 55
 1159 0074 3A6D     		ldr	r2, [r7, #80]
 1160 0076 7B6D     		ldr	r3, [r7, #84]
 1161 0078 4E33     		adds	r3, r3, #78
 1162 007a 9B00     		lsls	r3, r3, #2
 1163 007c 1344     		add	r3, r3, r2
 1164 007e 9B68     		ldr	r3, [r3, #8]
 1165              		.loc 1 494 22
 1166 0080 7B64     		str	r3, [r7, #68]
 495:Lib/Camera_Middleware/ISP_Library/isp/Src/isp_core.c ****     ISPGain.ispGainB = IQParamConfig->AWBAlgo.ispGainB[index];
 1167              		.loc 1 495 55
 1168 0082 3A6D     		ldr	r2, [r7, #80]
 1169 0084 7B6D     		ldr	r3, [r7, #84]
 1170 0086 5433     		adds	r3, r3, #84
 1171 0088 9B00     		lsls	r3, r3, #2
 1172 008a 1344     		add	r3, r3, r2
 1173 008c 5B68     		ldr	r3, [r3, #4]
 1174              		.loc 1 495 22
 1175 008e BB64     		str	r3, [r7, #72]
 496:Lib/Camera_Middleware/ISP_Library/isp/Src/isp_core.c ****     ColorConv.enable = 1;
 1176              		.loc 1 496 22
 1177 0090 0123     		movs	r3, #1
 1178 0092 3B75     		strb	r3, [r7, #20]
 497:Lib/Camera_Middleware/ISP_Library/isp/Src/isp_core.c ****     memcpy(ColorConv.coeff, IQParamConfig->AWBAlgo.coeff[index], sizeof(ColorConv.coeff));
 1179              		.loc 1 497 57
 1180 0094 7A6D     		ldr	r2, [r7, #84]
 1181 0096 1346     		mov	r3, r2
 1182 0098 DB00     		lsls	r3, r3, #3
 1183 009a 1344     		add	r3, r3, r2
 1184 009c 9B00     		lsls	r3, r3, #2
 1185 009e 03F5B073 		add	r3, r3, #352
 1186 00a2 3A6D     		ldr	r2, [r7, #80]
 1187 00a4 1344     		add	r3, r3, r2
 1188 00a6 03F10801 		add	r1, r3, #8
 1189              		.loc 1 497 5
 1190 00aa 07F11403 		add	r3, r7, #20
 1191 00ae 0433     		adds	r3, r3, #4
 1192 00b0 2422     		movs	r2, #36
 1193 00b2 1846     		mov	r0, r3
 1194 00b4 FFF7FEFF 		bl	memcpy
ARM GAS  /tmp/ccodgxQi.s 			page 31


 498:Lib/Camera_Middleware/ISP_Library/isp/Src/isp_core.c **** 
 499:Lib/Camera_Middleware/ISP_Library/isp/Src/isp_core.c ****     ret = ISP_SVC_ISP_SetGain(hIsp, &ISPGain);
 1195              		.loc 1 499 11
 1196 00b8 07F13C03 		add	r3, r7, #60
 1197 00bc 1946     		mov	r1, r3
 1198 00be F868     		ldr	r0, [r7, #12]
 1199 00c0 FFF7FEFF 		bl	ISP_SVC_ISP_SetGain
 1200 00c4 0346     		mov	r3, r0
 1201 00c6 87F84F30 		strb	r3, [r7, #79]
 500:Lib/Camera_Middleware/ISP_Library/isp/Src/isp_core.c ****     if (ret != ISP_OK)
 1202              		.loc 1 500 8
 1203 00ca 97F84F30 		ldrb	r3, [r7, #79]	@ zero_extendqisi2
 1204 00ce 002B     		cmp	r3, #0
 1205 00d0 02D0     		beq	.L70
 501:Lib/Camera_Middleware/ISP_Library/isp/Src/isp_core.c ****     {
 502:Lib/Camera_Middleware/ISP_Library/isp/Src/isp_core.c ****       return ret;
 1206              		.loc 1 502 14
 1207 00d2 97F84F30 		ldrb	r3, [r7, #79]	@ zero_extendqisi2
 1208 00d6 1EE0     		b	.L72
 1209              	.L70:
 503:Lib/Camera_Middleware/ISP_Library/isp/Src/isp_core.c ****     }
 504:Lib/Camera_Middleware/ISP_Library/isp/Src/isp_core.c **** 
 505:Lib/Camera_Middleware/ISP_Library/isp/Src/isp_core.c ****     ret = ISP_SVC_ISP_SetColorConv(hIsp, &ColorConv);
 1210              		.loc 1 505 11
 1211 00d8 07F11403 		add	r3, r7, #20
 1212 00dc 1946     		mov	r1, r3
 1213 00de F868     		ldr	r0, [r7, #12]
 1214 00e0 FFF7FEFF 		bl	ISP_SVC_ISP_SetColorConv
 1215 00e4 0346     		mov	r3, r0
 1216 00e6 87F84F30 		strb	r3, [r7, #79]
 506:Lib/Camera_Middleware/ISP_Library/isp/Src/isp_core.c ****     if (ret != ISP_OK)
 1217              		.loc 1 506 8
 1218 00ea 97F84F30 		ldrb	r3, [r7, #79]	@ zero_extendqisi2
 1219 00ee 002B     		cmp	r3, #0
 1220 00f0 02D0     		beq	.L71
 507:Lib/Camera_Middleware/ISP_Library/isp/Src/isp_core.c ****     {
 508:Lib/Camera_Middleware/ISP_Library/isp/Src/isp_core.c ****       return ret;
 1221              		.loc 1 508 14
 1222 00f2 97F84F30 		ldrb	r3, [r7, #79]	@ zero_extendqisi2
 1223 00f6 0EE0     		b	.L72
 1224              	.L71:
 509:Lib/Camera_Middleware/ISP_Library/isp/Src/isp_core.c ****     }
 510:Lib/Camera_Middleware/ISP_Library/isp/Src/isp_core.c **** 
 511:Lib/Camera_Middleware/ISP_Library/isp/Src/isp_core.c ****     /* Store the selected mode */
 512:Lib/Camera_Middleware/ISP_Library/isp/Src/isp_core.c ****     ret = ISP_SVC_Misc_SetWBRefMode(hIsp, RefColorTemp);
 1225              		.loc 1 512 11
 1226 00f8 7968     		ldr	r1, [r7, #4]
 1227 00fa F868     		ldr	r0, [r7, #12]
 1228 00fc FFF7FEFF 		bl	ISP_SVC_Misc_SetWBRefMode
 1229 0100 0346     		mov	r3, r0
 1230 0102 87F84F30 		strb	r3, [r7, #79]
 513:Lib/Camera_Middleware/ISP_Library/isp/Src/isp_core.c ****     if (ret != ISP_OK)
 1231              		.loc 1 513 8
 1232 0106 97F84F30 		ldrb	r3, [r7, #79]	@ zero_extendqisi2
 1233 010a 002B     		cmp	r3, #0
 1234 010c 02D0     		beq	.L63
 514:Lib/Camera_Middleware/ISP_Library/isp/Src/isp_core.c ****     {
ARM GAS  /tmp/ccodgxQi.s 			page 32


 515:Lib/Camera_Middleware/ISP_Library/isp/Src/isp_core.c ****       return ret;
 1235              		.loc 1 515 14
 1236 010e 97F84F30 		ldrb	r3, [r7, #79]	@ zero_extendqisi2
 1237 0112 00E0     		b	.L72
 1238              	.L63:
 516:Lib/Camera_Middleware/ISP_Library/isp/Src/isp_core.c ****     }
 517:Lib/Camera_Middleware/ISP_Library/isp/Src/isp_core.c ****   }
 518:Lib/Camera_Middleware/ISP_Library/isp/Src/isp_core.c **** 
 519:Lib/Camera_Middleware/ISP_Library/isp/Src/isp_core.c ****   return ISP_OK;
 1239              		.loc 1 519 10
 1240 0114 0023     		movs	r3, #0
 1241              	.L72:
 520:Lib/Camera_Middleware/ISP_Library/isp/Src/isp_core.c **** }
 1242              		.loc 1 520 1
 1243 0116 1846     		mov	r0, r3
 1244 0118 5837     		adds	r7, r7, #88
 1245              		.cfi_def_cfa_offset 8
 1246 011a BD46     		mov	sp, r7
 1247              		.cfi_def_cfa_register 13
 1248              		@ sp needed
 1249 011c 80BD     		pop	{r7, pc}
 1250              		.cfi_endproc
 1251              	.LFE847:
 1253              		.section	.text.ISP_GetWBRefMode,"ax",%progbits
 1254              		.align	1
 1255              		.global	ISP_GetWBRefMode
 1256              		.syntax unified
 1257              		.thumb
 1258              		.thumb_func
 1260              	ISP_GetWBRefMode:
 1261              	.LFB848:
 521:Lib/Camera_Middleware/ISP_Library/isp/Src/isp_core.c **** 
 522:Lib/Camera_Middleware/ISP_Library/isp/Src/isp_core.c **** /**
 523:Lib/Camera_Middleware/ISP_Library/isp/Src/isp_core.c ****   * @brief  ISP_GetWBRefMode
 524:Lib/Camera_Middleware/ISP_Library/isp/Src/isp_core.c ****   *         Get the reference mode that define a white balance configuration.
 525:Lib/Camera_Middleware/ISP_Library/isp/Src/isp_core.c ****   *         Can be a manual mode specified by a color temperature, or 'Automatic' relying on the AW
 526:Lib/Camera_Middleware/ISP_Library/isp/Src/isp_core.c ****   * @param  hIsp: ISP device handle
 527:Lib/Camera_Middleware/ISP_Library/isp/Src/isp_core.c ****   * @param  pAutomatic: Pointer to the mode. 'true' means that AWB automatic mode is running.
 528:Lib/Camera_Middleware/ISP_Library/isp/Src/isp_core.c ****   * @param  pRefColorTemp: Pointer to reference color temperature (manual mode). Not significant if
 529:Lib/Camera_Middleware/ISP_Library/isp/Src/isp_core.c ****   * @retval Operation status
 530:Lib/Camera_Middleware/ISP_Library/isp/Src/isp_core.c ****   */
 531:Lib/Camera_Middleware/ISP_Library/isp/Src/isp_core.c **** ISP_StatusTypeDef ISP_GetWBRefMode(ISP_HandleTypeDef *hIsp, uint8_t *pAutomatic, uint32_t *pRefColo
 532:Lib/Camera_Middleware/ISP_Library/isp/Src/isp_core.c **** {
 1262              		.loc 1 532 1
 1263              		.cfi_startproc
 1264              		@ args = 0, pretend = 0, frame = 24
 1265              		@ frame_needed = 1, uses_anonymous_args = 0
 1266 0000 80B5     		push	{r7, lr}
 1267              		.cfi_def_cfa_offset 8
 1268              		.cfi_offset 7, -8
 1269              		.cfi_offset 14, -4
 1270 0002 86B0     		sub	sp, sp, #24
 1271              		.cfi_def_cfa_offset 32
 1272 0004 00AF     		add	r7, sp, #0
 1273              		.cfi_def_cfa_register 7
 1274 0006 F860     		str	r0, [r7, #12]
 1275 0008 B960     		str	r1, [r7, #8]
ARM GAS  /tmp/ccodgxQi.s 			page 33


 1276 000a 7A60     		str	r2, [r7, #4]
 533:Lib/Camera_Middleware/ISP_Library/isp/Src/isp_core.c ****   ISP_IQParamTypeDef *IQParamConfig;
 534:Lib/Camera_Middleware/ISP_Library/isp/Src/isp_core.c **** 
 535:Lib/Camera_Middleware/ISP_Library/isp/Src/isp_core.c ****   IQParamConfig = ISP_SVC_IQParam_Get(hIsp);
 1277              		.loc 1 535 19
 1278 000c F868     		ldr	r0, [r7, #12]
 1279 000e FFF7FEFF 		bl	ISP_SVC_IQParam_Get
 1280 0012 7861     		str	r0, [r7, #20]
 536:Lib/Camera_Middleware/ISP_Library/isp/Src/isp_core.c ****   *pAutomatic = IQParamConfig->AWBAlgo.enable;
 1281              		.loc 1 536 39
 1282 0014 7B69     		ldr	r3, [r7, #20]
 1283 0016 93F87420 		ldrb	r2, [r3, #116]	@ zero_extendqisi2
 1284              		.loc 1 536 15
 1285 001a BB68     		ldr	r3, [r7, #8]
 1286 001c 1A70     		strb	r2, [r3]
 537:Lib/Camera_Middleware/ISP_Library/isp/Src/isp_core.c **** 
 538:Lib/Camera_Middleware/ISP_Library/isp/Src/isp_core.c ****   if (!*pAutomatic)
 1287              		.loc 1 538 8
 1288 001e BB68     		ldr	r3, [r7, #8]
 1289 0020 1B78     		ldrb	r3, [r3]	@ zero_extendqisi2
 1290              		.loc 1 538 6
 1291 0022 002B     		cmp	r3, #0
 1292 0024 03D1     		bne	.L75
 539:Lib/Camera_Middleware/ISP_Library/isp/Src/isp_core.c ****     ISP_SVC_Misc_GetWBRefMode(hIsp, pRefColorTemp);
 1293              		.loc 1 539 5
 1294 0026 7968     		ldr	r1, [r7, #4]
 1295 0028 F868     		ldr	r0, [r7, #12]
 1296 002a FFF7FEFF 		bl	ISP_SVC_Misc_GetWBRefMode
 1297              	.L75:
 540:Lib/Camera_Middleware/ISP_Library/isp/Src/isp_core.c **** 
 541:Lib/Camera_Middleware/ISP_Library/isp/Src/isp_core.c ****   return ISP_OK;
 1298              		.loc 1 541 10
 1299 002e 0023     		movs	r3, #0
 542:Lib/Camera_Middleware/ISP_Library/isp/Src/isp_core.c **** }
 1300              		.loc 1 542 1
 1301 0030 1846     		mov	r0, r3
 1302 0032 1837     		adds	r7, r7, #24
 1303              		.cfi_def_cfa_offset 8
 1304 0034 BD46     		mov	sp, r7
 1305              		.cfi_def_cfa_register 13
 1306              		@ sp needed
 1307 0036 80BD     		pop	{r7, pc}
 1308              		.cfi_endproc
 1309              	.LFE848:
 1311              		.section	.text.ISP_GetDecimationFactor,"ax",%progbits
 1312              		.align	1
 1313              		.global	ISP_GetDecimationFactor
 1314              		.syntax unified
 1315              		.thumb
 1316              		.thumb_func
 1318              	ISP_GetDecimationFactor:
 1319              	.LFB849:
 543:Lib/Camera_Middleware/ISP_Library/isp/Src/isp_core.c **** 
 544:Lib/Camera_Middleware/ISP_Library/isp/Src/isp_core.c **** /**
 545:Lib/Camera_Middleware/ISP_Library/isp/Src/isp_core.c ****   * @brief  ISP_GetDecimationFactor
 546:Lib/Camera_Middleware/ISP_Library/isp/Src/isp_core.c ****   *         Get the decimation factor applied in the ISP pipeline.
 547:Lib/Camera_Middleware/ISP_Library/isp/Src/isp_core.c ****   *         This decimation factor ensures that RAW frame size does not exceed 2688 width prior to 
ARM GAS  /tmp/ccodgxQi.s 			page 34


 548:Lib/Camera_Middleware/ISP_Library/isp/Src/isp_core.c ****   * @param  hIsp: ISP device handle
 549:Lib/Camera_Middleware/ISP_Library/isp/Src/isp_core.c ****   * @param  pDecimation: Pointer to the decimation factor
 550:Lib/Camera_Middleware/ISP_Library/isp/Src/isp_core.c ****   * @retval Operation status
 551:Lib/Camera_Middleware/ISP_Library/isp/Src/isp_core.c ****   */
 552:Lib/Camera_Middleware/ISP_Library/isp/Src/isp_core.c **** ISP_StatusTypeDef ISP_GetDecimationFactor(ISP_HandleTypeDef *hIsp, ISP_DecimationTypeDef *pDecimati
 553:Lib/Camera_Middleware/ISP_Library/isp/Src/isp_core.c **** {
 1320              		.loc 1 553 1
 1321              		.cfi_startproc
 1322              		@ args = 0, pretend = 0, frame = 8
 1323              		@ frame_needed = 1, uses_anonymous_args = 0
 1324 0000 80B5     		push	{r7, lr}
 1325              		.cfi_def_cfa_offset 8
 1326              		.cfi_offset 7, -8
 1327              		.cfi_offset 14, -4
 1328 0002 82B0     		sub	sp, sp, #8
 1329              		.cfi_def_cfa_offset 16
 1330 0004 00AF     		add	r7, sp, #0
 1331              		.cfi_def_cfa_register 7
 1332 0006 7860     		str	r0, [r7, #4]
 1333 0008 3960     		str	r1, [r7]
 554:Lib/Camera_Middleware/ISP_Library/isp/Src/isp_core.c ****   return ISP_SVC_ISP_GetDecimation(hIsp, pDecimation);
 1334              		.loc 1 554 10
 1335 000a 3968     		ldr	r1, [r7]
 1336 000c 7868     		ldr	r0, [r7, #4]
 1337 000e FFF7FEFF 		bl	ISP_SVC_ISP_GetDecimation
 1338 0012 0346     		mov	r3, r0
 555:Lib/Camera_Middleware/ISP_Library/isp/Src/isp_core.c **** }
 1339              		.loc 1 555 1
 1340 0014 1846     		mov	r0, r3
 1341 0016 0837     		adds	r7, r7, #8
 1342              		.cfi_def_cfa_offset 8
 1343 0018 BD46     		mov	sp, r7
 1344              		.cfi_def_cfa_register 13
 1345              		@ sp needed
 1346 001a 80BD     		pop	{r7, pc}
 1347              		.cfi_endproc
 1348              	.LFE849:
 1350              		.section	.text.ISP_SetStatArea,"ax",%progbits
 1351              		.align	1
 1352              		.global	ISP_SetStatArea
 1353              		.syntax unified
 1354              		.thumb
 1355              		.thumb_func
 1357              	ISP_SetStatArea:
 1358              	.LFB850:
 556:Lib/Camera_Middleware/ISP_Library/isp/Src/isp_core.c **** 
 557:Lib/Camera_Middleware/ISP_Library/isp/Src/isp_core.c **** /**
 558:Lib/Camera_Middleware/ISP_Library/isp/Src/isp_core.c ****   * @brief  ISP_SetStatArea
 559:Lib/Camera_Middleware/ISP_Library/isp/Src/isp_core.c ****   *         Set statistic area (position and size) defined by the user
 560:Lib/Camera_Middleware/ISP_Library/isp/Src/isp_core.c ****   * @param  hIsp: ISP device handle
 561:Lib/Camera_Middleware/ISP_Library/isp/Src/isp_core.c ****   * @param  pStatArea: Pointer to the statistic area
 562:Lib/Camera_Middleware/ISP_Library/isp/Src/isp_core.c ****   * @retval Operation status
 563:Lib/Camera_Middleware/ISP_Library/isp/Src/isp_core.c ****   */
 564:Lib/Camera_Middleware/ISP_Library/isp/Src/isp_core.c **** ISP_StatusTypeDef ISP_SetStatArea(ISP_HandleTypeDef *hIsp, ISP_StatAreaTypeDef *pStatArea)
 565:Lib/Camera_Middleware/ISP_Library/isp/Src/isp_core.c **** {
 1359              		.loc 1 565 1
 1360              		.cfi_startproc
ARM GAS  /tmp/ccodgxQi.s 			page 35


 1361              		@ args = 0, pretend = 0, frame = 8
 1362              		@ frame_needed = 1, uses_anonymous_args = 0
 1363 0000 80B5     		push	{r7, lr}
 1364              		.cfi_def_cfa_offset 8
 1365              		.cfi_offset 7, -8
 1366              		.cfi_offset 14, -4
 1367 0002 82B0     		sub	sp, sp, #8
 1368              		.cfi_def_cfa_offset 16
 1369 0004 00AF     		add	r7, sp, #0
 1370              		.cfi_def_cfa_register 7
 1371 0006 7860     		str	r0, [r7, #4]
 1372 0008 3960     		str	r1, [r7]
 566:Lib/Camera_Middleware/ISP_Library/isp/Src/isp_core.c ****   return ISP_SVC_ISP_SetStatArea(hIsp, pStatArea);
 1373              		.loc 1 566 10
 1374 000a 3968     		ldr	r1, [r7]
 1375 000c 7868     		ldr	r0, [r7, #4]
 1376 000e FFF7FEFF 		bl	ISP_SVC_ISP_SetStatArea
 1377 0012 0346     		mov	r3, r0
 567:Lib/Camera_Middleware/ISP_Library/isp/Src/isp_core.c **** }
 1378              		.loc 1 567 1
 1379 0014 1846     		mov	r0, r3
 1380 0016 0837     		adds	r7, r7, #8
 1381              		.cfi_def_cfa_offset 8
 1382 0018 BD46     		mov	sp, r7
 1383              		.cfi_def_cfa_register 13
 1384              		@ sp needed
 1385 001a 80BD     		pop	{r7, pc}
 1386              		.cfi_endproc
 1387              	.LFE850:
 1389              		.section	.text.ISP_GetStatArea,"ax",%progbits
 1390              		.align	1
 1391              		.global	ISP_GetStatArea
 1392              		.syntax unified
 1393              		.thumb
 1394              		.thumb_func
 1396              	ISP_GetStatArea:
 1397              	.LFB851:
 568:Lib/Camera_Middleware/ISP_Library/isp/Src/isp_core.c **** 
 569:Lib/Camera_Middleware/ISP_Library/isp/Src/isp_core.c **** /**
 570:Lib/Camera_Middleware/ISP_Library/isp/Src/isp_core.c ****   * @brief  ISP_GetStatArea
 571:Lib/Camera_Middleware/ISP_Library/isp/Src/isp_core.c ****   *         Get current statistic area
 572:Lib/Camera_Middleware/ISP_Library/isp/Src/isp_core.c ****   * @param  hIsp: ISP device handle
 573:Lib/Camera_Middleware/ISP_Library/isp/Src/isp_core.c ****   * @param  pStatArea: Pointer to the statistic area
 574:Lib/Camera_Middleware/ISP_Library/isp/Src/isp_core.c ****   * @retval Operation status
 575:Lib/Camera_Middleware/ISP_Library/isp/Src/isp_core.c ****   */
 576:Lib/Camera_Middleware/ISP_Library/isp/Src/isp_core.c **** ISP_StatusTypeDef ISP_GetStatArea(ISP_HandleTypeDef *hIsp, ISP_StatAreaTypeDef *pStatArea)
 577:Lib/Camera_Middleware/ISP_Library/isp/Src/isp_core.c **** {
 1398              		.loc 1 577 1
 1399              		.cfi_startproc
 1400              		@ args = 0, pretend = 0, frame = 8
 1401              		@ frame_needed = 1, uses_anonymous_args = 0
 1402 0000 80B5     		push	{r7, lr}
 1403              		.cfi_def_cfa_offset 8
 1404              		.cfi_offset 7, -8
 1405              		.cfi_offset 14, -4
 1406 0002 82B0     		sub	sp, sp, #8
 1407              		.cfi_def_cfa_offset 16
ARM GAS  /tmp/ccodgxQi.s 			page 36


 1408 0004 00AF     		add	r7, sp, #0
 1409              		.cfi_def_cfa_register 7
 1410 0006 7860     		str	r0, [r7, #4]
 1411 0008 3960     		str	r1, [r7]
 578:Lib/Camera_Middleware/ISP_Library/isp/Src/isp_core.c ****   return ISP_SVC_ISP_GetStatArea(hIsp, pStatArea);
 1412              		.loc 1 578 10
 1413 000a 3968     		ldr	r1, [r7]
 1414 000c 7868     		ldr	r0, [r7, #4]
 1415 000e FFF7FEFF 		bl	ISP_SVC_ISP_GetStatArea
 1416 0012 0346     		mov	r3, r0
 579:Lib/Camera_Middleware/ISP_Library/isp/Src/isp_core.c **** }
 1417              		.loc 1 579 1
 1418 0014 1846     		mov	r0, r3
 1419 0016 0837     		adds	r7, r7, #8
 1420              		.cfi_def_cfa_offset 8
 1421 0018 BD46     		mov	sp, r7
 1422              		.cfi_def_cfa_register 13
 1423              		@ sp needed
 1424 001a 80BD     		pop	{r7, pc}
 1425              		.cfi_endproc
 1426              	.LFE851:
 1428              		.section	.text.ISP_GatherStatistics,"ax",%progbits
 1429              		.align	1
 1430              		.global	ISP_GatherStatistics
 1431              		.syntax unified
 1432              		.thumb
 1433              		.thumb_func
 1435              	ISP_GatherStatistics:
 1436              	.LFB852:
 580:Lib/Camera_Middleware/ISP_Library/isp/Src/isp_core.c **** 
 581:Lib/Camera_Middleware/ISP_Library/isp/Src/isp_core.c **** /**
 582:Lib/Camera_Middleware/ISP_Library/isp/Src/isp_core.c ****   * @brief  ISP_GatherStatistics
 583:Lib/Camera_Middleware/ISP_Library/isp/Src/isp_core.c ****   *         Gather statistics
 584:Lib/Camera_Middleware/ISP_Library/isp/Src/isp_core.c ****   * @param  hIsp: ISP device handle
 585:Lib/Camera_Middleware/ISP_Library/isp/Src/isp_core.c ****   * @retval None
 586:Lib/Camera_Middleware/ISP_Library/isp/Src/isp_core.c ****   */
 587:Lib/Camera_Middleware/ISP_Library/isp/Src/isp_core.c **** void ISP_GatherStatistics(ISP_HandleTypeDef *hIsp)
 588:Lib/Camera_Middleware/ISP_Library/isp/Src/isp_core.c **** {
 1437              		.loc 1 588 1
 1438              		.cfi_startproc
 1439              		@ args = 0, pretend = 0, frame = 8
 1440              		@ frame_needed = 1, uses_anonymous_args = 0
 1441 0000 80B5     		push	{r7, lr}
 1442              		.cfi_def_cfa_offset 8
 1443              		.cfi_offset 7, -8
 1444              		.cfi_offset 14, -4
 1445 0002 82B0     		sub	sp, sp, #8
 1446              		.cfi_def_cfa_offset 16
 1447 0004 00AF     		add	r7, sp, #0
 1448              		.cfi_def_cfa_register 7
 1449 0006 7860     		str	r0, [r7, #4]
 589:Lib/Camera_Middleware/ISP_Library/isp/Src/isp_core.c ****   ISP_SVC_Stats_Gather(hIsp);
 1450              		.loc 1 589 3
 1451 0008 7868     		ldr	r0, [r7, #4]
 1452 000a FFF7FEFF 		bl	ISP_SVC_Stats_Gather
 590:Lib/Camera_Middleware/ISP_Library/isp/Src/isp_core.c **** }
 1453              		.loc 1 590 1
ARM GAS  /tmp/ccodgxQi.s 			page 37


 1454 000e 00BF     		nop
 1455 0010 0837     		adds	r7, r7, #8
 1456              		.cfi_def_cfa_offset 8
 1457 0012 BD46     		mov	sp, r7
 1458              		.cfi_def_cfa_register 13
 1459              		@ sp needed
 1460 0014 80BD     		pop	{r7, pc}
 1461              		.cfi_endproc
 1462              	.LFE852:
 1464              		.section	.text.ISP_IncMainFrameId,"ax",%progbits
 1465              		.align	1
 1466              		.global	ISP_IncMainFrameId
 1467              		.syntax unified
 1468              		.thumb
 1469              		.thumb_func
 1471              	ISP_IncMainFrameId:
 1472              	.LFB853:
 591:Lib/Camera_Middleware/ISP_Library/isp/Src/isp_core.c **** 
 592:Lib/Camera_Middleware/ISP_Library/isp/Src/isp_core.c **** /**
 593:Lib/Camera_Middleware/ISP_Library/isp/Src/isp_core.c ****   * @brief  ISP_IncMainFrameId
 594:Lib/Camera_Middleware/ISP_Library/isp/Src/isp_core.c ****   *         Increment the frame ID of the frame output on the main pipe
 595:Lib/Camera_Middleware/ISP_Library/isp/Src/isp_core.c ****   * @param  hIsp: ISP device handle
 596:Lib/Camera_Middleware/ISP_Library/isp/Src/isp_core.c ****   * @retval None
 597:Lib/Camera_Middleware/ISP_Library/isp/Src/isp_core.c ****   */
 598:Lib/Camera_Middleware/ISP_Library/isp/Src/isp_core.c **** void ISP_IncMainFrameId(ISP_HandleTypeDef *hIsp)
 599:Lib/Camera_Middleware/ISP_Library/isp/Src/isp_core.c **** {
 1473              		.loc 1 599 1
 1474              		.cfi_startproc
 1475              		@ args = 0, pretend = 0, frame = 8
 1476              		@ frame_needed = 1, uses_anonymous_args = 0
 1477 0000 80B5     		push	{r7, lr}
 1478              		.cfi_def_cfa_offset 8
 1479              		.cfi_offset 7, -8
 1480              		.cfi_offset 14, -4
 1481 0002 82B0     		sub	sp, sp, #8
 1482              		.cfi_def_cfa_offset 16
 1483 0004 00AF     		add	r7, sp, #0
 1484              		.cfi_def_cfa_register 7
 1485 0006 7860     		str	r0, [r7, #4]
 600:Lib/Camera_Middleware/ISP_Library/isp/Src/isp_core.c ****   ISP_SVC_Misc_IncMainFrameId(hIsp);
 1486              		.loc 1 600 3
 1487 0008 7868     		ldr	r0, [r7, #4]
 1488 000a FFF7FEFF 		bl	ISP_SVC_Misc_IncMainFrameId
 601:Lib/Camera_Middleware/ISP_Library/isp/Src/isp_core.c **** }
 1489              		.loc 1 601 1
 1490 000e 00BF     		nop
 1491 0010 0837     		adds	r7, r7, #8
 1492              		.cfi_def_cfa_offset 8
 1493 0012 BD46     		mov	sp, r7
 1494              		.cfi_def_cfa_register 13
 1495              		@ sp needed
 1496 0014 80BD     		pop	{r7, pc}
 1497              		.cfi_endproc
 1498              	.LFE853:
 1500              		.section	.text.ISP_GetMainFrameId,"ax",%progbits
 1501              		.align	1
 1502              		.global	ISP_GetMainFrameId
ARM GAS  /tmp/ccodgxQi.s 			page 38


 1503              		.syntax unified
 1504              		.thumb
 1505              		.thumb_func
 1507              	ISP_GetMainFrameId:
 1508              	.LFB854:
 602:Lib/Camera_Middleware/ISP_Library/isp/Src/isp_core.c **** 
 603:Lib/Camera_Middleware/ISP_Library/isp/Src/isp_core.c **** /**
 604:Lib/Camera_Middleware/ISP_Library/isp/Src/isp_core.c ****   * @brief  ISP_GetMainFrameId
 605:Lib/Camera_Middleware/ISP_Library/isp/Src/isp_core.c ****   *         Return the frame ID of the last frame output on the main pipe
 606:Lib/Camera_Middleware/ISP_Library/isp/Src/isp_core.c ****   * @param  hIsp: ISP device handle
 607:Lib/Camera_Middleware/ISP_Library/isp/Src/isp_core.c ****   * @retval Id of the last frame output on the main pipe
 608:Lib/Camera_Middleware/ISP_Library/isp/Src/isp_core.c ****   */
 609:Lib/Camera_Middleware/ISP_Library/isp/Src/isp_core.c **** uint32_t ISP_GetMainFrameId(ISP_HandleTypeDef *hIsp)
 610:Lib/Camera_Middleware/ISP_Library/isp/Src/isp_core.c **** {
 1509              		.loc 1 610 1
 1510              		.cfi_startproc
 1511              		@ args = 0, pretend = 0, frame = 8
 1512              		@ frame_needed = 1, uses_anonymous_args = 0
 1513 0000 80B5     		push	{r7, lr}
 1514              		.cfi_def_cfa_offset 8
 1515              		.cfi_offset 7, -8
 1516              		.cfi_offset 14, -4
 1517 0002 82B0     		sub	sp, sp, #8
 1518              		.cfi_def_cfa_offset 16
 1519 0004 00AF     		add	r7, sp, #0
 1520              		.cfi_def_cfa_register 7
 1521 0006 7860     		str	r0, [r7, #4]
 611:Lib/Camera_Middleware/ISP_Library/isp/Src/isp_core.c ****   return ISP_SVC_Misc_GetMainFrameId(hIsp);
 1522              		.loc 1 611 10
 1523 0008 7868     		ldr	r0, [r7, #4]
 1524 000a FFF7FEFF 		bl	ISP_SVC_Misc_GetMainFrameId
 1525 000e 0346     		mov	r3, r0
 612:Lib/Camera_Middleware/ISP_Library/isp/Src/isp_core.c **** }
 1526              		.loc 1 612 1
 1527 0010 1846     		mov	r0, r3
 1528 0012 0837     		adds	r7, r7, #8
 1529              		.cfi_def_cfa_offset 8
 1530 0014 BD46     		mov	sp, r7
 1531              		.cfi_def_cfa_register 13
 1532              		@ sp needed
 1533 0016 80BD     		pop	{r7, pc}
 1534              		.cfi_endproc
 1535              	.LFE854:
 1537              		.section	.text.ISP_IncAncillaryFrameId,"ax",%progbits
 1538              		.align	1
 1539              		.global	ISP_IncAncillaryFrameId
 1540              		.syntax unified
 1541              		.thumb
 1542              		.thumb_func
 1544              	ISP_IncAncillaryFrameId:
 1545              	.LFB855:
 613:Lib/Camera_Middleware/ISP_Library/isp/Src/isp_core.c **** 
 614:Lib/Camera_Middleware/ISP_Library/isp/Src/isp_core.c **** /**
 615:Lib/Camera_Middleware/ISP_Library/isp/Src/isp_core.c ****   * @brief  ISP_IncAncillaryFrameId
 616:Lib/Camera_Middleware/ISP_Library/isp/Src/isp_core.c ****   *         Increment the frame ID of the frame output on the ancillary pipe
 617:Lib/Camera_Middleware/ISP_Library/isp/Src/isp_core.c ****   * @param  hIsp: ISP device handle
 618:Lib/Camera_Middleware/ISP_Library/isp/Src/isp_core.c ****   * @retval None
ARM GAS  /tmp/ccodgxQi.s 			page 39


 619:Lib/Camera_Middleware/ISP_Library/isp/Src/isp_core.c ****   */
 620:Lib/Camera_Middleware/ISP_Library/isp/Src/isp_core.c **** void ISP_IncAncillaryFrameId(ISP_HandleTypeDef *hIsp)
 621:Lib/Camera_Middleware/ISP_Library/isp/Src/isp_core.c **** {
 1546              		.loc 1 621 1
 1547              		.cfi_startproc
 1548              		@ args = 0, pretend = 0, frame = 8
 1549              		@ frame_needed = 1, uses_anonymous_args = 0
 1550 0000 80B5     		push	{r7, lr}
 1551              		.cfi_def_cfa_offset 8
 1552              		.cfi_offset 7, -8
 1553              		.cfi_offset 14, -4
 1554 0002 82B0     		sub	sp, sp, #8
 1555              		.cfi_def_cfa_offset 16
 1556 0004 00AF     		add	r7, sp, #0
 1557              		.cfi_def_cfa_register 7
 1558 0006 7860     		str	r0, [r7, #4]
 622:Lib/Camera_Middleware/ISP_Library/isp/Src/isp_core.c **** 	ISP_SVC_Misc_IncAncillaryFrameId(hIsp);
 1559              		.loc 1 622 2
 1560 0008 7868     		ldr	r0, [r7, #4]
 1561 000a FFF7FEFF 		bl	ISP_SVC_Misc_IncAncillaryFrameId
 623:Lib/Camera_Middleware/ISP_Library/isp/Src/isp_core.c **** }
 1562              		.loc 1 623 1
 1563 000e 00BF     		nop
 1564 0010 0837     		adds	r7, r7, #8
 1565              		.cfi_def_cfa_offset 8
 1566 0012 BD46     		mov	sp, r7
 1567              		.cfi_def_cfa_register 13
 1568              		@ sp needed
 1569 0014 80BD     		pop	{r7, pc}
 1570              		.cfi_endproc
 1571              	.LFE855:
 1573              		.section	.text.ISP_GetAncillaryFrameId,"ax",%progbits
 1574              		.align	1
 1575              		.global	ISP_GetAncillaryFrameId
 1576              		.syntax unified
 1577              		.thumb
 1578              		.thumb_func
 1580              	ISP_GetAncillaryFrameId:
 1581              	.LFB856:
 624:Lib/Camera_Middleware/ISP_Library/isp/Src/isp_core.c **** 
 625:Lib/Camera_Middleware/ISP_Library/isp/Src/isp_core.c **** /**
 626:Lib/Camera_Middleware/ISP_Library/isp/Src/isp_core.c ****   * @brief  ISP_GetAncillaryFrameId
 627:Lib/Camera_Middleware/ISP_Library/isp/Src/isp_core.c ****   *         Return the frame ID of the last frame output on the ancillary pipe
 628:Lib/Camera_Middleware/ISP_Library/isp/Src/isp_core.c ****   * @param  hIsp: ISP device handle
 629:Lib/Camera_Middleware/ISP_Library/isp/Src/isp_core.c ****   * @retval Id of the last frame output on the ancillary pipe
 630:Lib/Camera_Middleware/ISP_Library/isp/Src/isp_core.c ****   */
 631:Lib/Camera_Middleware/ISP_Library/isp/Src/isp_core.c **** uint32_t ISP_GetAncillaryFrameId(ISP_HandleTypeDef *hIsp)
 632:Lib/Camera_Middleware/ISP_Library/isp/Src/isp_core.c **** {
 1582              		.loc 1 632 1
 1583              		.cfi_startproc
 1584              		@ args = 0, pretend = 0, frame = 8
 1585              		@ frame_needed = 1, uses_anonymous_args = 0
 1586 0000 80B5     		push	{r7, lr}
 1587              		.cfi_def_cfa_offset 8
 1588              		.cfi_offset 7, -8
 1589              		.cfi_offset 14, -4
 1590 0002 82B0     		sub	sp, sp, #8
ARM GAS  /tmp/ccodgxQi.s 			page 40


 1591              		.cfi_def_cfa_offset 16
 1592 0004 00AF     		add	r7, sp, #0
 1593              		.cfi_def_cfa_register 7
 1594 0006 7860     		str	r0, [r7, #4]
 633:Lib/Camera_Middleware/ISP_Library/isp/Src/isp_core.c ****   return ISP_SVC_Misc_GetAncillaryFrameId(hIsp);
 1595              		.loc 1 633 10
 1596 0008 7868     		ldr	r0, [r7, #4]
 1597 000a FFF7FEFF 		bl	ISP_SVC_Misc_GetAncillaryFrameId
 1598 000e 0346     		mov	r3, r0
 634:Lib/Camera_Middleware/ISP_Library/isp/Src/isp_core.c **** }
 1599              		.loc 1 634 1
 1600 0010 1846     		mov	r0, r3
 1601 0012 0837     		adds	r7, r7, #8
 1602              		.cfi_def_cfa_offset 8
 1603 0014 BD46     		mov	sp, r7
 1604              		.cfi_def_cfa_register 13
 1605              		@ sp needed
 1606 0016 80BD     		pop	{r7, pc}
 1607              		.cfi_endproc
 1608              	.LFE856:
 1610              		.section	.text.ISP_IncDumpFrameId,"ax",%progbits
 1611              		.align	1
 1612              		.global	ISP_IncDumpFrameId
 1613              		.syntax unified
 1614              		.thumb
 1615              		.thumb_func
 1617              	ISP_IncDumpFrameId:
 1618              	.LFB857:
 635:Lib/Camera_Middleware/ISP_Library/isp/Src/isp_core.c **** 
 636:Lib/Camera_Middleware/ISP_Library/isp/Src/isp_core.c **** /**
 637:Lib/Camera_Middleware/ISP_Library/isp/Src/isp_core.c ****   * @brief  ISP_IncDumpFrameId
 638:Lib/Camera_Middleware/ISP_Library/isp/Src/isp_core.c ****   *         Increment the frame ID of the frame output on the dump pipe
 639:Lib/Camera_Middleware/ISP_Library/isp/Src/isp_core.c ****   * @param  hIsp: ISP device handle
 640:Lib/Camera_Middleware/ISP_Library/isp/Src/isp_core.c ****   * @retval None
 641:Lib/Camera_Middleware/ISP_Library/isp/Src/isp_core.c ****   */
 642:Lib/Camera_Middleware/ISP_Library/isp/Src/isp_core.c **** void ISP_IncDumpFrameId(ISP_HandleTypeDef *hIsp)
 643:Lib/Camera_Middleware/ISP_Library/isp/Src/isp_core.c **** {
 1619              		.loc 1 643 1
 1620              		.cfi_startproc
 1621              		@ args = 0, pretend = 0, frame = 8
 1622              		@ frame_needed = 1, uses_anonymous_args = 0
 1623 0000 80B5     		push	{r7, lr}
 1624              		.cfi_def_cfa_offset 8
 1625              		.cfi_offset 7, -8
 1626              		.cfi_offset 14, -4
 1627 0002 82B0     		sub	sp, sp, #8
 1628              		.cfi_def_cfa_offset 16
 1629 0004 00AF     		add	r7, sp, #0
 1630              		.cfi_def_cfa_register 7
 1631 0006 7860     		str	r0, [r7, #4]
 644:Lib/Camera_Middleware/ISP_Library/isp/Src/isp_core.c ****   ISP_SVC_Misc_IncDumpFrameId(hIsp);
 1632              		.loc 1 644 3
 1633 0008 7868     		ldr	r0, [r7, #4]
 1634 000a FFF7FEFF 		bl	ISP_SVC_Misc_IncDumpFrameId
 645:Lib/Camera_Middleware/ISP_Library/isp/Src/isp_core.c **** }
 1635              		.loc 1 645 1
 1636 000e 00BF     		nop
ARM GAS  /tmp/ccodgxQi.s 			page 41


 1637 0010 0837     		adds	r7, r7, #8
 1638              		.cfi_def_cfa_offset 8
 1639 0012 BD46     		mov	sp, r7
 1640              		.cfi_def_cfa_register 13
 1641              		@ sp needed
 1642 0014 80BD     		pop	{r7, pc}
 1643              		.cfi_endproc
 1644              	.LFE857:
 1646              		.section	.text.ISP_GetDumpFrameId,"ax",%progbits
 1647              		.align	1
 1648              		.global	ISP_GetDumpFrameId
 1649              		.syntax unified
 1650              		.thumb
 1651              		.thumb_func
 1653              	ISP_GetDumpFrameId:
 1654              	.LFB858:
 646:Lib/Camera_Middleware/ISP_Library/isp/Src/isp_core.c **** 
 647:Lib/Camera_Middleware/ISP_Library/isp/Src/isp_core.c **** /**
 648:Lib/Camera_Middleware/ISP_Library/isp/Src/isp_core.c ****   * @brief  ISP_GetDumpFrameId
 649:Lib/Camera_Middleware/ISP_Library/isp/Src/isp_core.c ****   *         Return the frame ID of the last frame output on the dump pipe
 650:Lib/Camera_Middleware/ISP_Library/isp/Src/isp_core.c ****   * @param  hIsp: ISP device handle
 651:Lib/Camera_Middleware/ISP_Library/isp/Src/isp_core.c ****   * @retval Id of the last frame output on the dump pipe
 652:Lib/Camera_Middleware/ISP_Library/isp/Src/isp_core.c ****   */
 653:Lib/Camera_Middleware/ISP_Library/isp/Src/isp_core.c **** uint32_t ISP_GetDumpFrameId(ISP_HandleTypeDef *hIsp)
 654:Lib/Camera_Middleware/ISP_Library/isp/Src/isp_core.c **** {
 1655              		.loc 1 654 1
 1656              		.cfi_startproc
 1657              		@ args = 0, pretend = 0, frame = 8
 1658              		@ frame_needed = 1, uses_anonymous_args = 0
 1659 0000 80B5     		push	{r7, lr}
 1660              		.cfi_def_cfa_offset 8
 1661              		.cfi_offset 7, -8
 1662              		.cfi_offset 14, -4
 1663 0002 82B0     		sub	sp, sp, #8
 1664              		.cfi_def_cfa_offset 16
 1665 0004 00AF     		add	r7, sp, #0
 1666              		.cfi_def_cfa_register 7
 1667 0006 7860     		str	r0, [r7, #4]
 655:Lib/Camera_Middleware/ISP_Library/isp/Src/isp_core.c ****   return ISP_SVC_Misc_GetDumpFrameId(hIsp);
 1668              		.loc 1 655 10
 1669 0008 7868     		ldr	r0, [r7, #4]
 1670 000a FFF7FEFF 		bl	ISP_SVC_Misc_GetDumpFrameId
 1671 000e 0346     		mov	r3, r0
 656:Lib/Camera_Middleware/ISP_Library/isp/Src/isp_core.c **** }
 1672              		.loc 1 656 1
 1673 0010 1846     		mov	r0, r3
 1674 0012 0837     		adds	r7, r7, #8
 1675              		.cfi_def_cfa_offset 8
 1676 0014 BD46     		mov	sp, r7
 1677              		.cfi_def_cfa_register 13
 1678              		@ sp needed
 1679 0016 80BD     		pop	{r7, pc}
 1680              		.cfi_endproc
 1681              	.LFE858:
 1683              		.section	.rodata
 1684 0169 000000   		.align	2
 1685              	.LC6:
ARM GAS  /tmp/ccodgxQi.s 			page 42


 1686 016c 4D657461 		.ascii	"Meta[%ld]: L = %d, TG = %ld, G = %ld, E = %ld, CT ="
 1686      5B256C64 
 1686      5D3A204C 
 1686      203D2025 
 1686      642C2054 
 1687 019f 20256C64 		.ascii	" %ld\015\012\000"
 1687      0D0A00
 1688              		.section	.text.ISP_OutputMeta,"ax",%progbits
 1689              		.align	1
 1690              		.global	ISP_OutputMeta
 1691              		.syntax unified
 1692              		.thumb
 1693              		.thumb_func
 1695              	ISP_OutputMeta:
 1696              	.LFB859:
 657:Lib/Camera_Middleware/ISP_Library/isp/Src/isp_core.c **** 
 658:Lib/Camera_Middleware/ISP_Library/isp/Src/isp_core.c **** /**
 659:Lib/Camera_Middleware/ISP_Library/isp/Src/isp_core.c ****   * @brief  ISP_OutputMeta
 660:Lib/Camera_Middleware/ISP_Library/isp/Src/isp_core.c ****   *         Print out ISP Meta data for test or debug purpose
 661:Lib/Camera_Middleware/ISP_Library/isp/Src/isp_core.c ****   * @param  hIsp: ISP device handle
 662:Lib/Camera_Middleware/ISP_Library/isp/Src/isp_core.c ****   * @retval None
 663:Lib/Camera_Middleware/ISP_Library/isp/Src/isp_core.c ****   */
 664:Lib/Camera_Middleware/ISP_Library/isp/Src/isp_core.c **** void ISP_OutputMeta(ISP_HandleTypeDef *hIsp)
 665:Lib/Camera_Middleware/ISP_Library/isp/Src/isp_core.c **** {
 1697              		.loc 1 665 1
 1698              		.cfi_startproc
 1699              		@ args = 0, pretend = 0, frame = 8
 1700              		@ frame_needed = 1, uses_anonymous_args = 0
 1701 0000 B0B5     		push	{r4, r5, r7, lr}
 1702              		.cfi_def_cfa_offset 16
 1703              		.cfi_offset 4, -16
 1704              		.cfi_offset 5, -12
 1705              		.cfi_offset 7, -8
 1706              		.cfi_offset 14, -4
 1707 0002 86B0     		sub	sp, sp, #24
 1708              		.cfi_def_cfa_offset 40
 1709 0004 04AF     		add	r7, sp, #16
 1710              		.cfi_def_cfa 7, 24
 1711 0006 7860     		str	r0, [r7, #4]
 666:Lib/Camera_Middleware/ISP_Library/isp/Src/isp_core.c ****   extern ISP_MetaTypeDef Meta;
 667:Lib/Camera_Middleware/ISP_Library/isp/Src/isp_core.c **** 
 668:Lib/Camera_Middleware/ISP_Library/isp/Src/isp_core.c ****   if (Meta.outputEnable)
 1712              		.loc 1 668 11
 1713 0008 0E4B     		ldr	r3, .L96
 1714 000a 1B78     		ldrb	r3, [r3]	@ zero_extendqisi2
 1715              		.loc 1 668 6
 1716 000c 002B     		cmp	r3, #0
 1717 000e 15D0     		beq	.L95
 669:Lib/Camera_Middleware/ISP_Library/isp/Src/isp_core.c ****   {
 670:Lib/Camera_Middleware/ISP_Library/isp/Src/isp_core.c ****     printf("Meta[%ld]: L = %d, TG = %ld, G = %ld, E = %ld, CT = %ld\r\n", hIsp->MainPipe_FrameCount
 1718              		.loc 1 670 5
 1719 0010 7B68     		ldr	r3, [r7, #4]
 1720 0012 186C     		ldr	r0, [r3, #64]
 1721              		.loc 1 670 106
 1722 0014 0B4B     		ldr	r3, .L96
 1723 0016 5B78     		ldrb	r3, [r3, #1]	@ zero_extendqisi2
 1724              		.loc 1 670 5
ARM GAS  /tmp/ccodgxQi.s 			page 43


 1725 0018 1D46     		mov	r5, r3
 1726 001a 0A4B     		ldr	r3, .L96
 1727 001c 5C68     		ldr	r4, [r3, #4]
 1728 001e 094B     		ldr	r3, .L96
 1729 0020 9B68     		ldr	r3, [r3, #8]
 1730 0022 084A     		ldr	r2, .L96
 1731 0024 D268     		ldr	r2, [r2, #12]
 1732 0026 0749     		ldr	r1, .L96
 1733 0028 0969     		ldr	r1, [r1, #16]
 1734 002a 0291     		str	r1, [sp, #8]
 1735 002c 0192     		str	r2, [sp, #4]
 1736 002e 0093     		str	r3, [sp]
 1737 0030 2346     		mov	r3, r4
 1738 0032 2A46     		mov	r2, r5
 1739 0034 0146     		mov	r1, r0
 1740 0036 0448     		ldr	r0, .L96+4
 1741 0038 FFF7FEFF 		bl	printf
 1742              	.L95:
 671:Lib/Camera_Middleware/ISP_Library/isp/Src/isp_core.c ****   }
 672:Lib/Camera_Middleware/ISP_Library/isp/Src/isp_core.c **** }
 1743              		.loc 1 672 1
 1744 003c 00BF     		nop
 1745 003e 0837     		adds	r7, r7, #8
 1746              		.cfi_def_cfa_offset 16
 1747 0040 BD46     		mov	sp, r7
 1748              		.cfi_def_cfa_register 13
 1749              		@ sp needed
 1750 0042 B0BD     		pop	{r4, r5, r7, pc}
 1751              	.L97:
 1752              		.align	2
 1753              	.L96:
 1754 0044 00000000 		.word	Meta
 1755 0048 6C010000 		.word	.LC6
 1756              		.cfi_endproc
 1757              	.LFE859:
 1759              		.text
 1760              	.Letext0:
 1761              		.file 2 "/home/tanjiajun2002/renesas/rzv/e2studio_v2025-01_fsp_v3.1.0/toolchains/gcc_arm/arm-gnu-t
 1762              		.file 3 "/home/tanjiajun2002/renesas/rzv/e2studio_v2025-01_fsp_v3.1.0/toolchains/gcc_arm/arm-gnu-t
 1763              		.file 4 "/home/tanjiajun2002/renesas/rzv/e2studio_v2025-01_fsp_v3.1.0/toolchains/gcc_arm/arm-gnu-t
 1764              		.file 5 "Lib/Camera_Middleware/ISP_Library/isp/Inc/isp_core.h"
 1765              		.file 6 "/home/tanjiajun2002/renesas/rzv/e2studio_v2025-01_fsp_v3.1.0/toolchains/gcc_arm/arm-gnu-t
 1766              		.file 7 "Lib/Camera_Middleware/ISP_Library/isp/Inc/isp_services.h"
 1767              		.file 8 "/home/tanjiajun2002/renesas/rzv/e2studio_v2025-01_fsp_v3.1.0/toolchains/gcc_arm/arm-gnu-t
 1768              		.file 9 "Lib/Camera_Middleware/ISP_Library/isp/Inc/isp_algo.h"
 1769              		.file 10 "/home/tanjiajun2002/renesas/rzv/e2studio_v2025-01_fsp_v3.1.0/toolchains/gcc_arm/arm-gnu-
ARM GAS  /tmp/ccodgxQi.s 			page 44

