ARM GAS  /tmp/ccIlBKJn.s 			page 1


   1              		.arch armv8.1-m.main
   2              		.fpu fpv5-d16
   3              		.arch_extension dsp
   4              		.arch_extension fp
   5              		.arch_extension fp.dp
   6              		.arch_extension mve
   7              		.arch_extension mve.fp
   8              		.eabi_attribute 5, "cortex-m55"
   9              		.eabi_attribute 28, 1
  10              		.eabi_attribute 20, 1
  11              		.eabi_attribute 21, 1
  12              		.eabi_attribute 23, 3
  13              		.eabi_attribute 24, 1
  14              		.eabi_attribute 25, 1
  15              		.eabi_attribute 26, 1
  16              		.eabi_attribute 30, 6
  17              		.eabi_attribute 34, 1
  18              		.eabi_attribute 38, 1
  19              		.eabi_attribute 18, 4
  20              		.file	"ld.c"
  21              		.text
  22              	.Ltext0:
  23              		.cfi_sections	.debug_frame
  24              		.file 1 "Src/ld.c"
  25              		.section	.text.ld_post_process,"ax",%progbits
  26              		.align	1
  27              		.global	ld_post_process
  28              		.syntax unified
  29              		.thumb
  30              		.thumb_func
  32              	ld_post_process:
  33              	.LFB3:
   1:Src/ld.c      **** /**
   2:Src/ld.c      ****   ******************************************************************************
   3:Src/ld.c      ****   * @file    ld.c
   4:Src/ld.c      ****   * @author  MDG Application Team
   5:Src/ld.c      ****   ******************************************************************************
   6:Src/ld.c      ****   * @attention
   7:Src/ld.c      ****   *
   8:Src/ld.c      ****   * Copyright (c) 2024 STMicroelectronics.
   9:Src/ld.c      ****   * All rights reserved.
  10:Src/ld.c      ****   *
  11:Src/ld.c      ****   * This software is licensed under terms that can be found in the LICENSE file
  12:Src/ld.c      ****   * in the root directory of this software component.
  13:Src/ld.c      ****   * If no LICENSE file comes with this software, it is provided AS-IS.
  14:Src/ld.c      ****   *
  15:Src/ld.c      ****   ******************************************************************************
  16:Src/ld.c      ****   */
  17:Src/ld.c      **** 
  18:Src/ld.c      **** #include "ld.h"
  19:Src/ld.c      **** 
  20:Src/ld.c      **** #include <stdio.h>
  21:Src/ld.c      **** 
  22:Src/ld.c      **** int ld_post_process(float *probs, float *raw_landmarks, ld_point_t landmarks[LD_LANDMARK_NB])
  23:Src/ld.c      **** {
  34              		.loc 1 23 1
  35              		.cfi_startproc
ARM GAS  /tmp/ccIlBKJn.s 			page 2


  36              		@ args = 0, pretend = 0, frame = 24
  37              		@ frame_needed = 1, uses_anonymous_args = 0
  38              		@ link register save eliminated.
  39 0000 80B4     		push	{r7}
  40              		.cfi_def_cfa_offset 4
  41              		.cfi_offset 7, -4
  42 0002 87B0     		sub	sp, sp, #28
  43              		.cfi_def_cfa_offset 32
  44 0004 00AF     		add	r7, sp, #0
  45              		.cfi_def_cfa_register 7
  46 0006 F860     		str	r0, [r7, #12]
  47 0008 B960     		str	r1, [r7, #8]
  48 000a 7A60     		str	r2, [r7, #4]
  24:Src/ld.c      ****   int i;
  25:Src/ld.c      **** 
  26:Src/ld.c      ****   if (*probs < LD_PROB_THRESHOLD)
  49              		.loc 1 26 7
  50 000c FB68     		ldr	r3, [r7, #12]
  51 000e D3ED007A 		vldr.32	s15, [r3]
  52              		.loc 1 26 6
  53 0012 B5EE007A 		vmov.f32	s14, #2.5e-1
  54 0016 F4EEC77A 		vcmpe.f32	s15, s14
  55 001a F1EE10FA 		vmrs	APSR_nzcv, FPSCR
  56 001e 25D5     		bpl	.L2
  27:Src/ld.c      ****     //return 0;
  28:Src/ld.c      **** 
  29:Src/ld.c      ****   for (i = 0; i < LD_LANDMARK_NB; i++) {
  57              		.loc 1 29 10
  58 0020 0023     		movs	r3, #0
  59 0022 7B61     		str	r3, [r7, #20]
  60              		.loc 1 29 3
  61 0024 1EE0     		b	.L4
  62              	.L5:
  30:Src/ld.c      ****     landmarks[i].x = raw_landmarks[i * 3 + 0];
  63              		.loc 1 30 35
  64 0026 7A69     		ldr	r2, [r7, #20]
  65 0028 1346     		mov	r3, r2
  66 002a 5B00     		lsls	r3, r3, #1
  67 002c 1344     		add	r3, r3, r2
  68 002e 9B00     		lsls	r3, r3, #2
  69 0030 1A46     		mov	r2, r3
  70 0032 BB68     		ldr	r3, [r7, #8]
  71 0034 1A44     		add	r2, r2, r3
  72              		.loc 1 30 14
  73 0036 7B69     		ldr	r3, [r7, #20]
  74 0038 DB00     		lsls	r3, r3, #3
  75 003a 7968     		ldr	r1, [r7, #4]
  76 003c 0B44     		add	r3, r3, r1
  77              		.loc 1 30 35
  78 003e 1268     		ldr	r2, [r2]	@ float
  79              		.loc 1 30 20
  80 0040 1A60     		str	r2, [r3]	@ float
  31:Src/ld.c      ****     landmarks[i].y = raw_landmarks[i * 3 + 1];
  81              		.loc 1 31 35
  82 0042 7A69     		ldr	r2, [r7, #20]
  83 0044 1346     		mov	r3, r2
  84 0046 5B00     		lsls	r3, r3, #1
ARM GAS  /tmp/ccIlBKJn.s 			page 3


  85 0048 1344     		add	r3, r3, r2
  86 004a 9B00     		lsls	r3, r3, #2
  87 004c 0433     		adds	r3, r3, #4
  88 004e BA68     		ldr	r2, [r7, #8]
  89 0050 1A44     		add	r2, r2, r3
  90              		.loc 1 31 14
  91 0052 7B69     		ldr	r3, [r7, #20]
  92 0054 DB00     		lsls	r3, r3, #3
  93 0056 7968     		ldr	r1, [r7, #4]
  94 0058 0B44     		add	r3, r3, r1
  95              		.loc 1 31 35
  96 005a 1268     		ldr	r2, [r2]	@ float
  97              		.loc 1 31 20
  98 005c 5A60     		str	r2, [r3, #4]	@ float
  29:Src/ld.c      ****     landmarks[i].x = raw_landmarks[i * 3 + 0];
  99              		.loc 1 29 36 discriminator 3
 100 005e 7B69     		ldr	r3, [r7, #20]
 101 0060 0133     		adds	r3, r3, #1
 102 0062 7B61     		str	r3, [r7, #20]
 103              	.L4:
  29:Src/ld.c      ****     landmarks[i].x = raw_landmarks[i * 3 + 0];
 104              		.loc 1 29 17 discriminator 1
 105 0064 7B69     		ldr	r3, [r7, #20]
 106 0066 B3F5EA7F 		cmp	r3, #468
 107 006a DCDB     		blt	.L5
 108              	.L2:
  32:Src/ld.c      ****   }
  33:Src/ld.c      **** 
  34:Src/ld.c      ****   return 1;
 109              		.loc 1 34 10
 110 006c 0123     		movs	r3, #1
  35:Src/ld.c      **** }
 111              		.loc 1 35 1
 112 006e 1846     		mov	r0, r3
 113 0070 1C37     		adds	r7, r7, #28
 114              		.cfi_def_cfa_offset 4
 115 0072 BD46     		mov	sp, r7
 116              		.cfi_def_cfa_register 13
 117              		@ sp needed
 118 0074 5DF8047B 		ldr	r7, [sp], #4
 119              		.cfi_restore 7
 120              		.cfi_def_cfa_offset 0
 121 0078 7047     		bx	lr
 122              		.cfi_endproc
 123              	.LFE3:
 125              		.text
 126              	.Letext0:
 127              		.file 2 "Inc/ld.h"
ARM GAS  /tmp/ccIlBKJn.s 			page 4


DEFINED SYMBOLS
                            *ABS*:00000000 ld.c
     /tmp/ccIlBKJn.s:26     .text.ld_post_process:00000000 $t
     /tmp/ccIlBKJn.s:32     .text.ld_post_process:00000000 ld_post_process
                           .group:00000000 wm4.0.2a10773746a5c5ebb5552f50e466f80b
                           .group:00000000 wm4.ld.h.19.137dbadf938c8a0cfe15d7982e5e13e2
                           .group:00000000 wm4._newlib_version.h.4.411db44ea2338a62eca2f0777f81481b
                           .group:00000000 wm4.newlib.h.27.4b972ceed5d01f491020c20f1e546cab
                           .group:00000000 wm4.ieeefp.h.77.bd5feb87d9990dd328793ced294f6a87
                           .group:00000000 wm4.features.h.22.9dfb1293666eb4caf24cccb81c86a551
                           .group:00000000 wm4.config.h.224.10ee1ad185d877c6e334e6581faab44d
                           .group:00000000 wm4._ansi.h.31.de524f58584151836e90d8620a16f8e8
                           .group:00000000 wm4.stdio.h.31.7c0e28c411445f3f9c5b11accf882760
                           .group:00000000 wm4._default_types.h.6.959254cf5f09734ea7516c89e8bb21bd
                           .group:00000000 wm4.stddef.h.185.cbb642e1ccd385e8aa504b15cb7fb086
                           .group:00000000 wm4.cdefs.h.49.70fc7af612f78ddcace70fdd90b5623b
                           .group:00000000 wm4.stddef.h.39.6817658cc6bc4c7c8354d2009e4a5777
                           .group:00000000 wm4.stdarg.h.34.3a23a216c0c293b3d2ea2e89281481e6
                           .group:00000000 wm4._types.h.20.dd0d04dca3800a0d2a6129b87f3adbb2
                           .group:00000000 wm4.stddef.h.158.6f8e08a347b1cff664332fa350bfceb3
                           .group:00000000 wm4._types.h.127.3bdfe3ff8ea2d0985b03d9cbe93480e3
                           .group:00000000 wm4.reent.h.18.25503cdc8b7e55dd0d6ea7b3e5af7a03
                           .group:00000000 wm4.lock.h.2.1461d1fff82dffe8bfddc23307f6484f
                           .group:00000000 wm4.reent.h.78.6b87466b04591b1f1cb88c14fdf2ba9e
                           .group:00000000 wm4.stdio.h.67.0cf8a9c281ab0b348aef5c02e7e48825
                           .group:00000000 wm4.stdio.h.2.4aa87247282eca6c8f36f9de33d8df1a
                           .group:00000000 wm4.stdio.h.87.a1e20d2651f9bfb66e51bfbe849db00a

NO UNDEFINED SYMBOLS
