ARM GAS  /tmp/ccxZaNgH.s 			page 1


   1              		.arch armv8.1-m.main
   2              		.fpu fpv5-d16
   3              		.arch_extension dsp
   4              		.arch_extension fp
   5              		.arch_extension fp.dp
   6              		.arch_extension mve
   7              		.arch_extension mve.fp
   8              		.eabi_attribute 5, "cortex-m55"
   9              		.eabi_attribute 28, 1
  10              		.eabi_attribute 20, 1
  11              		.eabi_attribute 21, 1
  12              		.eabi_attribute 23, 3
  13              		.eabi_attribute 24, 1
  14              		.eabi_attribute 25, 1
  15              		.eabi_attribute 26, 1
  16              		.eabi_attribute 30, 6
  17              		.eabi_attribute 34, 1
  18              		.eabi_attribute 38, 1
  19              		.eabi_attribute 18, 4
  20              		.file	"ll_aton.c"
  21              		.text
  22              	.Ltext0:
  23              		.cfi_sections	.debug_frame
  24              		.file 1 "Lib/AI_Runtime/Npu/ll_aton/ll_aton.c"
  25              		.section	.text.LL_Streng_len,"ax",%progbits
  26              		.align	1
  27              		.syntax unified
  28              		.thumb
  29              		.thumb_func
  31              	LL_Streng_len:
  32              	.LFB4810:
  33              		.file 2 "Lib/AI_Runtime/Npu/ll_aton/ll_aton.h"
   1:Lib/AI_Runtime/Npu/ll_aton/ll_aton.h **** /**
   2:Lib/AI_Runtime/Npu/ll_aton/ll_aton.h ****  ******************************************************************************
   3:Lib/AI_Runtime/Npu/ll_aton/ll_aton.h ****  * @file    ll_aton.h
   4:Lib/AI_Runtime/Npu/ll_aton/ll_aton.h ****  * @author  SRA Artificial Intelligence & Embedded Architectures
   5:Lib/AI_Runtime/Npu/ll_aton/ll_aton.h ****  * @brief   Header file of ATON LL module.
   6:Lib/AI_Runtime/Npu/ll_aton/ll_aton.h ****  ******************************************************************************
   7:Lib/AI_Runtime/Npu/ll_aton/ll_aton.h ****  * @attention
   8:Lib/AI_Runtime/Npu/ll_aton/ll_aton.h ****  *
   9:Lib/AI_Runtime/Npu/ll_aton/ll_aton.h ****  * Copyright (c) 2024 STMicroelectronics.
  10:Lib/AI_Runtime/Npu/ll_aton/ll_aton.h ****  * All rights reserved.
  11:Lib/AI_Runtime/Npu/ll_aton/ll_aton.h ****  *
  12:Lib/AI_Runtime/Npu/ll_aton/ll_aton.h ****  * This software is licensed under terms that can be found in the LICENSE file
  13:Lib/AI_Runtime/Npu/ll_aton/ll_aton.h ****  * in the root directory of this software component.
  14:Lib/AI_Runtime/Npu/ll_aton/ll_aton.h ****  * If no LICENSE file comes with this software, it is provided AS-IS.
  15:Lib/AI_Runtime/Npu/ll_aton/ll_aton.h ****  *
  16:Lib/AI_Runtime/Npu/ll_aton/ll_aton.h ****  ******************************************************************************
  17:Lib/AI_Runtime/Npu/ll_aton/ll_aton.h ****  */
  18:Lib/AI_Runtime/Npu/ll_aton/ll_aton.h **** 
  19:Lib/AI_Runtime/Npu/ll_aton/ll_aton.h **** #ifndef __LL_ATON_H
  20:Lib/AI_Runtime/Npu/ll_aton/ll_aton.h **** #define __LL_ATON_H
  21:Lib/AI_Runtime/Npu/ll_aton/ll_aton.h **** 
  22:Lib/AI_Runtime/Npu/ll_aton/ll_aton.h **** #ifdef __cplusplus
  23:Lib/AI_Runtime/Npu/ll_aton/ll_aton.h **** extern "C"
  24:Lib/AI_Runtime/Npu/ll_aton/ll_aton.h **** {
  25:Lib/AI_Runtime/Npu/ll_aton/ll_aton.h **** #endif
ARM GAS  /tmp/ccxZaNgH.s 			page 2


  26:Lib/AI_Runtime/Npu/ll_aton/ll_aton.h **** 
  27:Lib/AI_Runtime/Npu/ll_aton/ll_aton.h **** #include <assert.h>
  28:Lib/AI_Runtime/Npu/ll_aton/ll_aton.h **** #include <stddef.h>
  29:Lib/AI_Runtime/Npu/ll_aton/ll_aton.h **** #include <stdint.h>
  30:Lib/AI_Runtime/Npu/ll_aton/ll_aton.h **** 
  31:Lib/AI_Runtime/Npu/ll_aton/ll_aton.h **** #include "ll_aton_attributes.h"
  32:Lib/AI_Runtime/Npu/ll_aton/ll_aton.h **** #include "ll_aton_config.h"
  33:Lib/AI_Runtime/Npu/ll_aton/ll_aton.h **** 
  34:Lib/AI_Runtime/Npu/ll_aton/ll_aton.h **** #if (LL_ATON_PLATFORM != LL_ATON_PLAT_EC_TRACE)
  35:Lib/AI_Runtime/Npu/ll_aton/ll_aton.h **** #include "ll_aton_osal.h"
  36:Lib/AI_Runtime/Npu/ll_aton/ll_aton.h **** #include "ll_aton_platform.h"
  37:Lib/AI_Runtime/Npu/ll_aton/ll_aton.h **** #endif // LL_ATON_PLATFORM != LL_ATON_PLAT_EC_TRACE
  38:Lib/AI_Runtime/Npu/ll_aton/ll_aton.h **** 
  39:Lib/AI_Runtime/Npu/ll_aton/ll_aton.h **** /** @defgroup ATON_LL ATON_LL_Driver
  40:Lib/AI_Runtime/Npu/ll_aton/ll_aton.h ****  * @{
  41:Lib/AI_Runtime/Npu/ll_aton/ll_aton.h ****  */
  42:Lib/AI_Runtime/Npu/ll_aton/ll_aton.h **** 
  43:Lib/AI_Runtime/Npu/ll_aton/ll_aton.h **** /* LL ATON error codes */
  44:Lib/AI_Runtime/Npu/ll_aton/ll_aton.h **** #define LL_ATON_OK            (0)
  45:Lib/AI_Runtime/Npu/ll_aton/ll_aton.h **** #define LL_ATON_INVALID_ID    (-1)
  46:Lib/AI_Runtime/Npu/ll_aton/ll_aton.h **** #define LL_ATON_INVALID_PARAM (-2)
  47:Lib/AI_Runtime/Npu/ll_aton/ll_aton.h **** #define LL_ATON_TIMEOUT       (-3)
  48:Lib/AI_Runtime/Npu/ll_aton/ll_aton.h **** 
  49:Lib/AI_Runtime/Npu/ll_aton/ll_aton.h ****   /* this is needed to avoid some compilers (e.g. KEIL) that observe a strict semantic about conver
  50:Lib/AI_Runtime/Npu/ll_aton/ll_aton.h ****    * pointers to integers in const initializers
  51:Lib/AI_Runtime/Npu/ll_aton/ll_aton.h ****    */
  52:Lib/AI_Runtime/Npu/ll_aton/ll_aton.h ****   typedef union
  53:Lib/AI_Runtime/Npu/ll_aton/ll_aton.h ****   {
  54:Lib/AI_Runtime/Npu/ll_aton/ll_aton.h ****     unsigned char *p;
  55:Lib/AI_Runtime/Npu/ll_aton/ll_aton.h ****     uintptr_t i;
  56:Lib/AI_Runtime/Npu/ll_aton/ll_aton.h ****   } ll_aton_pointer;
  57:Lib/AI_Runtime/Npu/ll_aton/ll_aton.h **** 
  58:Lib/AI_Runtime/Npu/ll_aton/ll_aton.h ****   /* Method that translates an address from physical to virtual */
  59:Lib/AI_Runtime/Npu/ll_aton/ll_aton.h ****   unsigned char *LL_Address_Physical2Virtual(unsigned char *address);
  60:Lib/AI_Runtime/Npu/ll_aton/ll_aton.h **** 
  61:Lib/AI_Runtime/Npu/ll_aton/ll_aton.h ****   /* Method that translates an address from virtual to physical */
  62:Lib/AI_Runtime/Npu/ll_aton/ll_aton.h ****   unsigned char *LL_Address_Virtual2Physical(unsigned char *address);
  63:Lib/AI_Runtime/Npu/ll_aton/ll_aton.h **** 
  64:Lib/AI_Runtime/Npu/ll_aton/ll_aton.h **** /**
  65:Lib/AI_Runtime/Npu/ll_aton/ll_aton.h ****  * @brief ATON User Configuration macros
  66:Lib/AI_Runtime/Npu/ll_aton/ll_aton.h ****  */
  67:Lib/AI_Runtime/Npu/ll_aton/ll_aton.h **** /* Set beyond macro to 1 if you want to enable the generation of ATON event interrupts */
  68:Lib/AI_Runtime/Npu/ll_aton/ll_aton.h **** #ifndef LL_ATON_EN_EVENT_IRQ
  69:Lib/AI_Runtime/Npu/ll_aton/ll_aton.h **** #define LL_ATON_EN_EVENT_IRQ 1
  70:Lib/AI_Runtime/Npu/ll_aton/ll_aton.h **** #endif
  71:Lib/AI_Runtime/Npu/ll_aton/ll_aton.h **** 
  72:Lib/AI_Runtime/Npu/ll_aton/ll_aton.h **** /* Set beyond macro to 1 if you want to enable the generation of ATON configuration error interrupt
  73:Lib/AI_Runtime/Npu/ll_aton/ll_aton.h **** #ifndef LL_ATON_EN_ERROR_IRQ
  74:Lib/AI_Runtime/Npu/ll_aton/ll_aton.h **** #define LL_ATON_EN_ERROR_IRQ 1
  75:Lib/AI_Runtime/Npu/ll_aton/ll_aton.h **** #endif
  76:Lib/AI_Runtime/Npu/ll_aton/ll_aton.h **** 
  77:Lib/AI_Runtime/Npu/ll_aton/ll_aton.h ****   /** @defgroup ATON_INIT ATON Global initialization/deinitialization functions
  78:Lib/AI_Runtime/Npu/ll_aton/ll_aton.h ****    * @{
  79:Lib/AI_Runtime/Npu/ll_aton/ll_aton.h ****    */
  80:Lib/AI_Runtime/Npu/ll_aton/ll_aton.h ****   int LL_ATON_Init(void);
  81:Lib/AI_Runtime/Npu/ll_aton/ll_aton.h ****   int LL_ATON_DeInit(void);
  82:Lib/AI_Runtime/Npu/ll_aton/ll_aton.h ****   /**
ARM GAS  /tmp/ccxZaNgH.s 			page 3


  83:Lib/AI_Runtime/Npu/ll_aton/ll_aton.h ****    * @}
  84:Lib/AI_Runtime/Npu/ll_aton/ll_aton.h ****    */
  85:Lib/AI_Runtime/Npu/ll_aton/ll_aton.h **** 
  86:Lib/AI_Runtime/Npu/ll_aton/ll_aton.h ****   /**
  87:Lib/AI_Runtime/Npu/ll_aton/ll_aton.h ****    * @brief List of acceleration units types
  88:Lib/AI_Runtime/Npu/ll_aton/ll_aton.h ****    */
  89:Lib/AI_Runtime/Npu/ll_aton/ll_aton.h ****   enum AccelUnitsType
  90:Lib/AI_Runtime/Npu/ll_aton/ll_aton.h ****   {
  91:Lib/AI_Runtime/Npu/ll_aton/ll_aton.h ****     STRENG = 0,
  92:Lib/AI_Runtime/Npu/ll_aton/ll_aton.h ****     STRENG64,
  93:Lib/AI_Runtime/Npu/ll_aton/ll_aton.h ****     CONVACC,
  94:Lib/AI_Runtime/Npu/ll_aton/ll_aton.h ****     DECUN,
  95:Lib/AI_Runtime/Npu/ll_aton/ll_aton.h ****     ACTIV,
  96:Lib/AI_Runtime/Npu/ll_aton/ll_aton.h ****     ARITH,
  97:Lib/AI_Runtime/Npu/ll_aton/ll_aton.h ****     POOL,
  98:Lib/AI_Runtime/Npu/ll_aton/ll_aton.h ****     IMC,
  99:Lib/AI_Runtime/Npu/ll_aton/ll_aton.h ****     RECBUF,
 100:Lib/AI_Runtime/Npu/ll_aton/ll_aton.h ****   };
 101:Lib/AI_Runtime/Npu/ll_aton/ll_aton.h **** 
 102:Lib/AI_Runtime/Npu/ll_aton/ll_aton.h ****   typedef struct
 103:Lib/AI_Runtime/Npu/ll_aton/ll_aton.h ****   {
 104:Lib/AI_Runtime/Npu/ll_aton/ll_aton.h ****     enum AccelUnitsType unit_type;
 105:Lib/AI_Runtime/Npu/ll_aton/ll_aton.h ****     unsigned short unit_num;
 106:Lib/AI_Runtime/Npu/ll_aton/ll_aton.h ****   } AccelUnits;
 107:Lib/AI_Runtime/Npu/ll_aton/ll_aton.h **** 
 108:Lib/AI_Runtime/Npu/ll_aton/ll_aton.h ****   /**
 109:Lib/AI_Runtime/Npu/ll_aton/ll_aton.h ****    * @brief  Converts an Aton unit cardinal group id into a global one
 110:Lib/AI_Runtime/Npu/ll_aton/ll_aton.h ****    * @param  type enum specifying the unit group
 111:Lib/AI_Runtime/Npu/ll_aton/ll_aton.h ****    * @param  id Cardinal id of the unit in the group
 112:Lib/AI_Runtime/Npu/ll_aton/ll_aton.h ****    * @retval ATON Unit index
 113:Lib/AI_Runtime/Npu/ll_aton/ll_aton.h ****    * @todo   Add boundary checks
 114:Lib/AI_Runtime/Npu/ll_aton/ll_aton.h ****    */
 115:Lib/AI_Runtime/Npu/ll_aton/ll_aton.h ****   static inline AccelUnits LL_ATON_GetUnit_From_Cardinal_ID(enum AccelUnitsType type, int id)
 116:Lib/AI_Runtime/Npu/ll_aton/ll_aton.h ****   {
 117:Lib/AI_Runtime/Npu/ll_aton/ll_aton.h ****     return (AccelUnits){type, (unsigned short)id};
 118:Lib/AI_Runtime/Npu/ll_aton/ll_aton.h ****   }
 119:Lib/AI_Runtime/Npu/ll_aton/ll_aton.h **** 
 120:Lib/AI_Runtime/Npu/ll_aton/ll_aton.h ****   /**
 121:Lib/AI_Runtime/Npu/ll_aton/ll_aton.h ****    * @brief Activation Unit function types
 122:Lib/AI_Runtime/Npu/ll_aton/ll_aton.h ****    */
 123:Lib/AI_Runtime/Npu/ll_aton/ll_aton.h ****   typedef enum
 124:Lib/AI_Runtime/Npu/ll_aton/ll_aton.h ****   {
 125:Lib/AI_Runtime/Npu/ll_aton/ll_aton.h ****     ACTIV_RELU = 1,
 126:Lib/AI_Runtime/Npu/ll_aton/ll_aton.h ****     ACTIV_PRELU,
 127:Lib/AI_Runtime/Npu/ll_aton/ll_aton.h ****     ACTIV_TRELU,
 128:Lib/AI_Runtime/Npu/ll_aton/ll_aton.h ****     ACTIV_FUNC,
 129:Lib/AI_Runtime/Npu/ll_aton/ll_aton.h ****     ACTIV_LUT
 130:Lib/AI_Runtime/Npu/ll_aton/ll_aton.h ****   } LL_Activacc_Op;
 131:Lib/AI_Runtime/Npu/ll_aton/ll_aton.h **** 
 132:Lib/AI_Runtime/Npu/ll_aton/ll_aton.h ****   /**
 133:Lib/AI_Runtime/Npu/ll_aton/ll_aton.h ****    * @brief Activation unit Accelerator configuration structure
 134:Lib/AI_Runtime/Npu/ll_aton/ll_aton.h ****    */
 135:Lib/AI_Runtime/Npu/ll_aton/ll_aton.h ****   typedef struct
 136:Lib/AI_Runtime/Npu/ll_aton/ll_aton.h ****   {
 137:Lib/AI_Runtime/Npu/ll_aton/ll_aton.h ****     unsigned rounding_f : 1;     /**< Input feature data rounding control: 1=enable,0=disable */
 138:Lib/AI_Runtime/Npu/ll_aton/ll_aton.h ****     unsigned saturation_f : 1;   /**< Input feature data saturation control: 1=enable,0=disable */
 139:Lib/AI_Runtime/Npu/ll_aton/ll_aton.h ****     unsigned round_mode_f : 2;   /**< Input feature round mode */
ARM GAS  /tmp/ccxZaNgH.s 			page 4


 140:Lib/AI_Runtime/Npu/ll_aton/ll_aton.h ****     unsigned inbytes_f : 2;      /**< Input data width in bytes. Valid values are 1, 2 or 3 bytes *
 141:Lib/AI_Runtime/Npu/ll_aton/ll_aton.h ****     unsigned outbytes_f : 2;     /**< Input feature output bytes after shift. Valid values are 1 or
 142:Lib/AI_Runtime/Npu/ll_aton/ll_aton.h ****     unsigned rounding_o : 1;     /**< Output rounding control, 1=enable,0=disable */
 143:Lib/AI_Runtime/Npu/ll_aton/ll_aton.h ****     unsigned saturation_o : 1;   /**< Output saturation control,1=enable,0=disable */
 144:Lib/AI_Runtime/Npu/ll_aton/ll_aton.h ****     unsigned round_mode_o : 1;   /**< Output rounding mode */
 145:Lib/AI_Runtime/Npu/ll_aton/ll_aton.h ****     unsigned relu_mode_o : 1;    /**< Apply Relu operation before rounding */
 146:Lib/AI_Runtime/Npu/ll_aton/ll_aton.h ****     unsigned outbytes_o : 2;     /**< Number of output bytes: 1, 2 or 3 */
 147:Lib/AI_Runtime/Npu/ll_aton/ll_aton.h ****     unsigned signedop : 1;       /**< Signed/unsigned activations: 0: unsigned activations, 1 signe
 148:Lib/AI_Runtime/Npu/ll_aton/ll_aton.h ****     unsigned char shift_f;       /**< Input feature data shift. Negative values represent left shif
 149:Lib/AI_Runtime/Npu/ll_aton/ll_aton.h ****     unsigned char shift_o;       /**< Optional right shift to be applied to the function evaluator 
 150:Lib/AI_Runtime/Npu/ll_aton/ll_aton.h ****     unsigned parameter;          /**< ReLU parameter */
 151:Lib/AI_Runtime/Npu/ll_aton/ll_aton.h ****     unsigned parameter_2;        /**< Zero offset for TRELU operation for use in scale/offset integ
 152:Lib/AI_Runtime/Npu/ll_aton/ll_aton.h ****                                   *   Needs zp alignment */
 153:Lib/AI_Runtime/Npu/ll_aton/ll_aton.h ****     unsigned nbytes;             /**< Number of bytes of input data  */
 154:Lib/AI_Runtime/Npu/ll_aton/ll_aton.h ****     ll_aton_pointer ROM0_vector; /**< Address of ROM0 coefficients table */
 155:Lib/AI_Runtime/Npu/ll_aton/ll_aton.h ****     ll_aton_pointer ROM1_vector; /**< Address of ROM1 coefficients table */
 156:Lib/AI_Runtime/Npu/ll_aton/ll_aton.h ****     ll_aton_pointer LUT_vector;  /**< Address of LUT coefficients table */
 157:Lib/AI_Runtime/Npu/ll_aton/ll_aton.h ****     unsigned ROM0_nbytes;        /**< Length of ROM0 table */
 158:Lib/AI_Runtime/Npu/ll_aton/ll_aton.h ****     unsigned ROM1_nbytes;        /**< Length of ROM1 table */
 159:Lib/AI_Runtime/Npu/ll_aton/ll_aton.h ****     unsigned char shift_b;       /**< Optional left shift to be applied to coefficient B */
 160:Lib/AI_Runtime/Npu/ll_aton/ll_aton.h ****     unsigned char shift_c;       /**< Optional left shift to be applied to coefficient C */
 161:Lib/AI_Runtime/Npu/ll_aton/ll_aton.h ****     unsigned char shift_norm;    /**< Function input range normalization left shift parameter */
 162:Lib/AI_Runtime/Npu/ll_aton/ll_aton.h ****     unsigned char bwidth;        /**< Number of MSB bits of the input activation to be used to addr
 163:Lib/AI_Runtime/Npu/ll_aton/ll_aton.h ****                                   *   This field configures the number of outer segments (max outer
 164:Lib/AI_Runtime/Npu/ll_aton/ll_aton.h ****                                   *   Valid values range = 0,1,2,3,4 and 5 corresponding to 1,2,4,8
 165:Lib/AI_Runtime/Npu/ll_aton/ll_aton.h ****                                   *   respectively */
 166:Lib/AI_Runtime/Npu/ll_aton/ll_aton.h ****     int fsub;                    /**< Feature data subtract value */
 167:Lib/AI_Runtime/Npu/ll_aton/ll_aton.h ****     LL_Activacc_Op operation;    /**< Activation type. See LL_Activacc_Op */
 168:Lib/AI_Runtime/Npu/ll_aton/ll_aton.h ****   } LL_Activacc_InitTypeDef;
 169:Lib/AI_Runtime/Npu/ll_aton/ll_aton.h **** 
 170:Lib/AI_Runtime/Npu/ll_aton/ll_aton.h ****   /** @defgroup LL_ACTIV Activation unit configuration functions
 171:Lib/AI_Runtime/Npu/ll_aton/ll_aton.h ****    * @{
 172:Lib/AI_Runtime/Npu/ll_aton/ll_aton.h ****    */
 173:Lib/AI_Runtime/Npu/ll_aton/ll_aton.h ****   int LL_Activacc_Init(int id, const LL_Activacc_InitTypeDef *Activacc_InitStruct);
 174:Lib/AI_Runtime/Npu/ll_aton/ll_aton.h ****   /**
 175:Lib/AI_Runtime/Npu/ll_aton/ll_aton.h ****    * @}
 176:Lib/AI_Runtime/Npu/ll_aton/ll_aton.h ****    */
 177:Lib/AI_Runtime/Npu/ll_aton/ll_aton.h **** 
 178:Lib/AI_Runtime/Npu/ll_aton/ll_aton.h ****   /**
 179:Lib/AI_Runtime/Npu/ll_aton/ll_aton.h ****    * @brief Arithmetic unit operations
 180:Lib/AI_Runtime/Npu/ll_aton/ll_aton.h ****    */
 181:Lib/AI_Runtime/Npu/ll_aton/ll_aton.h ****   typedef enum
 182:Lib/AI_Runtime/Npu/ll_aton/ll_aton.h ****   {
 183:Lib/AI_Runtime/Npu/ll_aton/ll_aton.h ****     ARITH_AFFINE = 1,
 184:Lib/AI_Runtime/Npu/ll_aton/ll_aton.h ****     ARITH_MIN,
 185:Lib/AI_Runtime/Npu/ll_aton/ll_aton.h ****     ARITH_MAX,
 186:Lib/AI_Runtime/Npu/ll_aton/ll_aton.h ****     ARITH_MUL,
 187:Lib/AI_Runtime/Npu/ll_aton/ll_aton.h ****     ARITH_X_AND_Y,
 188:Lib/AI_Runtime/Npu/ll_aton/ll_aton.h ****     ARITH_X_OR_Y,
 189:Lib/AI_Runtime/Npu/ll_aton/ll_aton.h ****     ARITH_NOT_X,
 190:Lib/AI_Runtime/Npu/ll_aton/ll_aton.h ****     ARITH_X_XOR_Y,
 191:Lib/AI_Runtime/Npu/ll_aton/ll_aton.h ****     ARITH_X_EQ_Y,
 192:Lib/AI_Runtime/Npu/ll_aton/ll_aton.h ****     ARITH_X_LT_Y,
 193:Lib/AI_Runtime/Npu/ll_aton/ll_aton.h ****     ARITH_X_LE_Y,
 194:Lib/AI_Runtime/Npu/ll_aton/ll_aton.h ****     ARITH_X_GT_Y,
 195:Lib/AI_Runtime/Npu/ll_aton/ll_aton.h ****     ARITH_X_GE_Y,
 196:Lib/AI_Runtime/Npu/ll_aton/ll_aton.h ****     ARITH_ABS_X,
ARM GAS  /tmp/ccxZaNgH.s 			page 5


 197:Lib/AI_Runtime/Npu/ll_aton/ll_aton.h ****     ARITH_SIGN_X,
 198:Lib/AI_Runtime/Npu/ll_aton/ll_aton.h ****     ARITH_CLIP
 199:Lib/AI_Runtime/Npu/ll_aton/ll_aton.h ****   } LL_Arithacc_Op;
 200:Lib/AI_Runtime/Npu/ll_aton/ll_aton.h **** 
 201:Lib/AI_Runtime/Npu/ll_aton/ll_aton.h ****   /**
 202:Lib/AI_Runtime/Npu/ll_aton/ll_aton.h ****    * @brief Arithmetic constant broadcast modes
 203:Lib/AI_Runtime/Npu/ll_aton/ll_aton.h ****    */
 204:Lib/AI_Runtime/Npu/ll_aton/ll_aton.h ****   typedef enum
 205:Lib/AI_Runtime/Npu/ll_aton/ll_aton.h ****   {
 206:Lib/AI_Runtime/Npu/ll_aton/ll_aton.h ****     ARITH_BCAST_NONE,
 207:Lib/AI_Runtime/Npu/ll_aton/ll_aton.h ****     ARITH_BCAST_CHAN,
 208:Lib/AI_Runtime/Npu/ll_aton/ll_aton.h ****     ARITH_BCAST_HEIGHT,
 209:Lib/AI_Runtime/Npu/ll_aton/ll_aton.h ****     ARITH_BCAST_WIDTH,
 210:Lib/AI_Runtime/Npu/ll_aton/ll_aton.h ****     ARITH_BCAST_HEIGHT_WIDTH,
 211:Lib/AI_Runtime/Npu/ll_aton/ll_aton.h ****     ARITH_BCAST_SCALAR,
 212:Lib/AI_Runtime/Npu/ll_aton/ll_aton.h ****   } LL_Arithacc_Bcast;
 213:Lib/AI_Runtime/Npu/ll_aton/ll_aton.h **** 
 214:Lib/AI_Runtime/Npu/ll_aton/ll_aton.h ****   /**
 215:Lib/AI_Runtime/Npu/ll_aton/ll_aton.h ****    *	@brief Arithmetic unit Accelerator configuration structure
 216:Lib/AI_Runtime/Npu/ll_aton/ll_aton.h ****    */
 217:Lib/AI_Runtime/Npu/ll_aton/ll_aton.h ****   typedef struct
 218:Lib/AI_Runtime/Npu/ll_aton/ll_aton.h ****   {
 219:Lib/AI_Runtime/Npu/ll_aton/ll_aton.h ****     unsigned rounding_x : 1;   /**< Input feature data rounding for stream X */
 220:Lib/AI_Runtime/Npu/ll_aton/ll_aton.h ****     unsigned saturation_x : 1; /**< Input feature data saturation for stream X */
 221:Lib/AI_Runtime/Npu/ll_aton/ll_aton.h ****     unsigned round_mode_x : 2; /**< Input feature data rounding mode for stream X */
 222:Lib/AI_Runtime/Npu/ll_aton/ll_aton.h ****     unsigned inbytes_x : 2;    /**< Input data width in bytes for stream X. Valid values are 1, 2 o
 223:Lib/AI_Runtime/Npu/ll_aton/ll_aton.h ****     unsigned outbytes_x : 2;   /**< Number of output bytes to use for input feature data of stream 
 224:Lib/AI_Runtime/Npu/ll_aton/ll_aton.h ****                                 *  saturation. Valid values are 1 or 2 bytes */
 225:Lib/AI_Runtime/Npu/ll_aton/ll_aton.h ****     signed char shift_x;       /**< Input feature data shift for stream X. Use negative values for 
 226:Lib/AI_Runtime/Npu/ll_aton/ll_aton.h ****     unsigned rounding_y : 1;   /**< Input feature data rounding for stream Y */
 227:Lib/AI_Runtime/Npu/ll_aton/ll_aton.h ****     unsigned saturation_y : 1; /**< Input feature data saturation for stream Y */
 228:Lib/AI_Runtime/Npu/ll_aton/ll_aton.h ****     unsigned round_mode_y : 2; /**< Input feature data rounding mode for stream Y */
 229:Lib/AI_Runtime/Npu/ll_aton/ll_aton.h ****     unsigned inbytes_y : 2;    /**< Input data width in bytes for stream Y. Valid values are 1, 2 o
 230:Lib/AI_Runtime/Npu/ll_aton/ll_aton.h ****     unsigned outbytes_y : 2;   /**< Number of output bytes to use for input feature data of stream 
 231:Lib/AI_Runtime/Npu/ll_aton/ll_aton.h ****                                 *  saturation. Valid values are 1 or 2 bytes */
 232:Lib/AI_Runtime/Npu/ll_aton/ll_aton.h ****     unsigned combinebc : 1;    /**< Combine coeff B and C to form a 32b coeff BC = {B[15:0],C[15:0]
 233:Lib/AI_Runtime/Npu/ll_aton/ll_aton.h ****     unsigned clipout : 1;      /**< Controls output clipping to range specified by clip range confi
 234:Lib/AI_Runtime/Npu/ll_aton/ll_aton.h ****                                 *  0=disable */
 235:Lib/AI_Runtime/Npu/ll_aton/ll_aton.h ****     signed char shift_y;       /**< Input feature data shift for stream Y. Use negative values for 
 236:Lib/AI_Runtime/Npu/ll_aton/ll_aton.h ****     unsigned rounding_o : 1;   /**< Rounding control, 1=enable, 0=disable */
 237:Lib/AI_Runtime/Npu/ll_aton/ll_aton.h ****     unsigned saturation_o : 1; /**< Saturation control, 1=enable, 0=disable */
 238:Lib/AI_Runtime/Npu/ll_aton/ll_aton.h ****     unsigned round_mode_o : 1; /**< Otput rounding mode control */
 239:Lib/AI_Runtime/Npu/ll_aton/ll_aton.h ****     unsigned relu_mode_o : 1;  /**< Apply Relu operation before rounding */
 240:Lib/AI_Runtime/Npu/ll_aton/ll_aton.h ****     unsigned outbytes_o : 2;   /**< Number of output bytes: 1 or 2 */
 241:Lib/AI_Runtime/Npu/ll_aton/ll_aton.h ****     unsigned char shift_o;     /**< Optional right shift to apply to final result of operation */
 242:Lib/AI_Runtime/Npu/ll_aton/ll_aton.h ****     unsigned scalar : 1;       /**< Set Scalar/Vector mode */
 243:Lib/AI_Runtime/Npu/ll_aton/ll_aton.h ****     unsigned dualinput : 1;    /**< Dual input control, 1=both X,Y streams valid, 0=only X stream i
 244:Lib/AI_Runtime/Npu/ll_aton/ll_aton.h ****     LL_Arithacc_Op operation;  /**< Arithmetic operation to be applied. See LL_Arithacc_Op */
 245:Lib/AI_Runtime/Npu/ll_aton/ll_aton.h ****     LL_Arithacc_Bcast bcast;   /**< Set constant broadcast modes. See LL_Arithacc_Bcast */
 246:Lib/AI_Runtime/Npu/ll_aton/ll_aton.h ****     unsigned char Ax_shift;    /**< Optional right shift to result of Ax */
 247:Lib/AI_Runtime/Npu/ll_aton/ll_aton.h ****     unsigned char By_shift;    /**< Optional right shift to result of By */
 248:Lib/AI_Runtime/Npu/ll_aton/ll_aton.h ****     unsigned char C_shift;     /**< Optional left shift to apply to C */
 249:Lib/AI_Runtime/Npu/ll_aton/ll_aton.h ****     unsigned fWidth;           /**< Feature width */
 250:Lib/AI_Runtime/Npu/ll_aton/ll_aton.h ****     unsigned fHeight;          /**< Feature height */
 251:Lib/AI_Runtime/Npu/ll_aton/ll_aton.h ****     unsigned short fChannels;  /**< Number of feature channels */
 252:Lib/AI_Runtime/Npu/ll_aton/ll_aton.h ****     unsigned short batchDepth; /**< Batch depth */
 253:Lib/AI_Runtime/Npu/ll_aton/ll_aton.h ****     short clipmin;             /**< Signed 16b value specifying output clip min */
ARM GAS  /tmp/ccxZaNgH.s 			page 6


 254:Lib/AI_Runtime/Npu/ll_aton/ll_aton.h ****     short clipmax;             /**< Signed 16b value specifying output clip max */
 255:Lib/AI_Runtime/Npu/ll_aton/ll_aton.h ****     short A_scalar;            /**< Scalar coefficient A */
 256:Lib/AI_Runtime/Npu/ll_aton/ll_aton.h ****     short B_scalar;            /**< Scalar coefficient B */
 257:Lib/AI_Runtime/Npu/ll_aton/ll_aton.h ****     short C_scalar;            /**< Scalar coefficient C */
 258:Lib/AI_Runtime/Npu/ll_aton/ll_aton.h ****     ll_aton_pointer A_vector;  /**< Address of A vector table */
 259:Lib/AI_Runtime/Npu/ll_aton/ll_aton.h ****     ll_aton_pointer B_vector;  /**< Address of B vector table */
 260:Lib/AI_Runtime/Npu/ll_aton/ll_aton.h ****     ll_aton_pointer C_vector;  /**< Address of C vector table */
 261:Lib/AI_Runtime/Npu/ll_aton/ll_aton.h ****     unsigned char vec_precision[3]; /**< Number of bits for A, B and C vectors */
 262:Lib/AI_Runtime/Npu/ll_aton/ll_aton.h ****   } LL_Arithacc_InitTypeDef;
 263:Lib/AI_Runtime/Npu/ll_aton/ll_aton.h **** 
 264:Lib/AI_Runtime/Npu/ll_aton/ll_aton.h ****   /** @defgroup LL_ARITH Arithmetic Unit configuration functions
 265:Lib/AI_Runtime/Npu/ll_aton/ll_aton.h ****    * @{
 266:Lib/AI_Runtime/Npu/ll_aton/ll_aton.h ****    */
 267:Lib/AI_Runtime/Npu/ll_aton/ll_aton.h ****   int LL_Arithacc_Init(int id, const LL_Arithacc_InitTypeDef *Arithacc_InitStruct);
 268:Lib/AI_Runtime/Npu/ll_aton/ll_aton.h ****   /**
 269:Lib/AI_Runtime/Npu/ll_aton/ll_aton.h ****    * @}
 270:Lib/AI_Runtime/Npu/ll_aton/ll_aton.h ****    */
 271:Lib/AI_Runtime/Npu/ll_aton/ll_aton.h **** 
 272:Lib/AI_Runtime/Npu/ll_aton/ll_aton.h ****   typedef enum
 273:Lib/AI_Runtime/Npu/ll_aton/ll_aton.h ****   {
 274:Lib/AI_Runtime/Npu/ll_aton/ll_aton.h ****     AFILT_MODE_NONE = 0,
 275:Lib/AI_Runtime/Npu/ll_aton/ll_aton.h ****     AFILT_MODE_PIXELDROP = 1,
 276:Lib/AI_Runtime/Npu/ll_aton/ll_aton.h ****     AFILT_MODE_FRAMEDROP = 2,
 277:Lib/AI_Runtime/Npu/ll_aton/ll_aton.h ****     AFILT_MODE_FRAMEZERO = 3
 278:Lib/AI_Runtime/Npu/ll_aton/ll_aton.h ****   } LL_Convacc_Afilt_Mode;
 279:Lib/AI_Runtime/Npu/ll_aton/ll_aton.h **** 
 280:Lib/AI_Runtime/Npu/ll_aton/ll_aton.h ****   /**
 281:Lib/AI_Runtime/Npu/ll_aton/ll_aton.h ****    *	@brief Convolutional Accelerator configuration structure
 282:Lib/AI_Runtime/Npu/ll_aton/ll_aton.h ****    */
 283:Lib/AI_Runtime/Npu/ll_aton/ll_aton.h ****   typedef struct
 284:Lib/AI_Runtime/Npu/ll_aton/ll_aton.h ****   {
 285:Lib/AI_Runtime/Npu/ll_aton/ll_aton.h ****     unsigned rounding_f : 1;           /**< Input feature data rounding */
 286:Lib/AI_Runtime/Npu/ll_aton/ll_aton.h ****     unsigned saturation_f : 1;         /**< Input feature data saturation */
 287:Lib/AI_Runtime/Npu/ll_aton/ll_aton.h ****     unsigned round_mode_f : 2;         /**< Output data rounding mode */
 288:Lib/AI_Runtime/Npu/ll_aton/ll_aton.h ****     unsigned inbytes_f : 2;            /**< Input data width in bytes */
 289:Lib/AI_Runtime/Npu/ll_aton/ll_aton.h ****     unsigned rounding_o : 1;           /**< Output data rounding after right shift */
 290:Lib/AI_Runtime/Npu/ll_aton/ll_aton.h ****     unsigned saturation_o : 1;         /**< Output saturation */
 291:Lib/AI_Runtime/Npu/ll_aton/ll_aton.h ****     unsigned round_mode_o : 1;         /**< Output data rounding mode */
 292:Lib/AI_Runtime/Npu/ll_aton/ll_aton.h ****     unsigned relu_mode_o : 1;          /**< Apply Relu operation before rounding */
 293:Lib/AI_Runtime/Npu/ll_aton/ll_aton.h ****     unsigned outbytes_o : 2;           /**< Output data width in bytes */
 294:Lib/AI_Runtime/Npu/ll_aton/ll_aton.h ****     unsigned simd : 2;                 /**< Enable 8x8bit (1) or 16x8bit (2) SIMD mode */
 295:Lib/AI_Runtime/Npu/ll_aton/ll_aton.h ****     unsigned accumulate : 1;           /**< Sum and synchronize with stream link input #2 */
 296:Lib/AI_Runtime/Npu/ll_aton/ll_aton.h ****     unsigned accumulate_first : 1;     /**< No sum and synchronization with stream link input #2 fo
 297:Lib/AI_Runtime/Npu/ll_aton/ll_aton.h ****     unsigned accumulate_gen_first : 1; /**< Generate first accumulator input frame internally */
 298:Lib/AI_Runtime/Npu/ll_aton/ll_aton.h ****     unsigned fstat : 1;                /**< Feature data stationary */
 299:Lib/AI_Runtime/Npu/ll_aton/ll_aton.h ****     unsigned raw_o : 1;                /**< Use RAW file output format */
 300:Lib/AI_Runtime/Npu/ll_aton/ll_aton.h ****     unsigned kt1_mode : 1;             /**< Load kernel from T1 buffer */
 301:Lib/AI_Runtime/Npu/ll_aton/ll_aton.h ****     unsigned deepmode : 1;             /**< Enable Deep1x1 optimized mode */
 302:Lib/AI_Runtime/Npu/ll_aton/ll_aton.h ****     unsigned dss2mode : 1;             /**< Enable DSS2 (depth separable stride 2) optimized mode *
 303:Lib/AI_Runtime/Npu/ll_aton/ll_aton.h ****     unsigned f_unsigned : 1;           /**< Feature data unsigned */
 304:Lib/AI_Runtime/Npu/ll_aton/ll_aton.h ****     unsigned k_unsigned : 1;           /**< Kernel data unsigned */
 305:Lib/AI_Runtime/Npu/ll_aton/ll_aton.h ****     unsigned kseten : 2;               /**< Enable kernel set 0 (bit 0) or 1 (bit 1) if KT1 is 1,
 306:Lib/AI_Runtime/Npu/ll_aton/ll_aton.h ****                                         *   otherwise select byte 1 (0), byte 2 (1), byte 3 (2) or
 307:Lib/AI_Runtime/Npu/ll_aton/ll_aton.h ****                                         *   all bytes (Deep1x1 mode only) (3) of kernel stream in S
 308:Lib/AI_Runtime/Npu/ll_aton/ll_aton.h ****     unsigned char shift_f;             /**< Input feature data shift */
 309:Lib/AI_Runtime/Npu/ll_aton/ll_aton.h ****     unsigned char shift_a;             /**< Accumulator data input signed left shift */
 310:Lib/AI_Runtime/Npu/ll_aton/ll_aton.h ****     unsigned char shift_o;             /**< Result data output signed right shift */
ARM GAS  /tmp/ccxZaNgH.s 			page 7


 311:Lib/AI_Runtime/Npu/ll_aton/ll_aton.h ****     unsigned fWidth;                   /**< Feature data width */
 312:Lib/AI_Runtime/Npu/ll_aton/ll_aton.h ****     unsigned fHeight;                  /**< Feature data height */
 313:Lib/AI_Runtime/Npu/ll_aton/ll_aton.h ****     unsigned char kernelWidth;         /**< Kernel width */
 314:Lib/AI_Runtime/Npu/ll_aton/ll_aton.h ****     unsigned char kernelHeight;        /**< Kernel height */
 315:Lib/AI_Runtime/Npu/ll_aton/ll_aton.h ****     unsigned char nKernels;            /**< Total number of parallel kernels */
 316:Lib/AI_Runtime/Npu/ll_aton/ll_aton.h ****     unsigned short batchDepth;         /**< Batch Depth */
 317:Lib/AI_Runtime/Npu/ll_aton/ll_aton.h ****     unsigned char hstride;             /**< Horizontal stride */
 318:Lib/AI_Runtime/Npu/ll_aton/ll_aton.h ****     unsigned char vstride;             /**< Vertical stride */
 319:Lib/AI_Runtime/Npu/ll_aton/ll_aton.h ****     unsigned short left_padding;       /**< Number of vertical left dummy columns */
 320:Lib/AI_Runtime/Npu/ll_aton/ll_aton.h ****     unsigned short right_padding;      /**< Number of vertical right dummy columns */
 321:Lib/AI_Runtime/Npu/ll_aton/ll_aton.h ****     unsigned short top_padding;        /**< Number of horizontal top dummy lines */
 322:Lib/AI_Runtime/Npu/ll_aton/ll_aton.h ****     unsigned short bot_padding;        /**< Number of horizontal bottom dummy lines */
 323:Lib/AI_Runtime/Npu/ll_aton/ll_aton.h ****     unsigned short left_crop;          /**< Left feature data boundary */
 324:Lib/AI_Runtime/Npu/ll_aton/ll_aton.h ****     unsigned short right_crop;         /**< Right feature data boundary */
 325:Lib/AI_Runtime/Npu/ll_aton/ll_aton.h ****     unsigned short top_crop;           /**< Top feature data boundary */
 326:Lib/AI_Runtime/Npu/ll_aton/ll_aton.h ****     unsigned short bot_crop;           /**< Bottom feature data boundary */
 327:Lib/AI_Runtime/Npu/ll_aton/ll_aton.h ****     unsigned short fstatcnt;           /**< Number of frames before next reload of feature stationa
 328:Lib/AI_Runtime/Npu/ll_aton/ll_aton.h ****     LL_Convacc_Afilt_Mode afilt_mode;  /**< Accumulator port filter mode. See LL_Convacc_Afilt_Mode
 329:Lib/AI_Runtime/Npu/ll_aton/ll_aton.h ****     unsigned char afilt_tot;           /**< Total number of accumulation tensors */
 330:Lib/AI_Runtime/Npu/ll_aton/ll_aton.h ****     unsigned char afilt_first;         /**< First accumulation tensor */
 331:Lib/AI_Runtime/Npu/ll_aton/ll_aton.h ****     unsigned char afilt_last;          /**< Last accumulation tensor */
 332:Lib/AI_Runtime/Npu/ll_aton/ll_aton.h ****     unsigned char kfilt_tot;           /**< Total number of kernels */
 333:Lib/AI_Runtime/Npu/ll_aton/ll_aton.h ****     unsigned char kfilt_first;         /**< First kernel */
 334:Lib/AI_Runtime/Npu/ll_aton/ll_aton.h ****     unsigned char kfilt_last;          /**< Last kernel */
 335:Lib/AI_Runtime/Npu/ll_aton/ll_aton.h ****     int fsub;                          /**< Feature data subtract value */
 336:Lib/AI_Runtime/Npu/ll_aton/ll_aton.h ****     short zfbias;                      /**< Bias added to zero frames */
 337:Lib/AI_Runtime/Npu/ll_aton/ll_aton.h ****   } LL_Convacc_InitTypeDef;
 338:Lib/AI_Runtime/Npu/ll_aton/ll_aton.h **** 
 339:Lib/AI_Runtime/Npu/ll_aton/ll_aton.h ****   /** @defgroup LL_CONVACC Convolutional accelerator unit configuration functions
 340:Lib/AI_Runtime/Npu/ll_aton/ll_aton.h ****    * @{
 341:Lib/AI_Runtime/Npu/ll_aton/ll_aton.h ****    */
 342:Lib/AI_Runtime/Npu/ll_aton/ll_aton.h ****   int LL_Convacc_Init(int id, const LL_Convacc_InitTypeDef *Convacc_InitStruct);
 343:Lib/AI_Runtime/Npu/ll_aton/ll_aton.h ****   /**
 344:Lib/AI_Runtime/Npu/ll_aton/ll_aton.h ****    * @}
 345:Lib/AI_Runtime/Npu/ll_aton/ll_aton.h ****    */
 346:Lib/AI_Runtime/Npu/ll_aton/ll_aton.h **** 
 347:Lib/AI_Runtime/Npu/ll_aton/ll_aton.h ****   /**
 348:Lib/AI_Runtime/Npu/ll_aton/ll_aton.h ****    * @brief Pooling Acceleration supported operations
 349:Lib/AI_Runtime/Npu/ll_aton/ll_aton.h ****    */
 350:Lib/AI_Runtime/Npu/ll_aton/ll_aton.h ****   typedef enum
 351:Lib/AI_Runtime/Npu/ll_aton/ll_aton.h ****   {
 352:Lib/AI_Runtime/Npu/ll_aton/ll_aton.h ****     POOL_MAX = 1,
 353:Lib/AI_Runtime/Npu/ll_aton/ll_aton.h ****     POOL_MIN,
 354:Lib/AI_Runtime/Npu/ll_aton/ll_aton.h ****     POOL_AVG,
 355:Lib/AI_Runtime/Npu/ll_aton/ll_aton.h ****     POOL_GMAX,
 356:Lib/AI_Runtime/Npu/ll_aton/ll_aton.h ****     POOL_GMIN,
 357:Lib/AI_Runtime/Npu/ll_aton/ll_aton.h ****     POOL_GAVG
 358:Lib/AI_Runtime/Npu/ll_aton/ll_aton.h ****   } LL_Poolacc_Op;
 359:Lib/AI_Runtime/Npu/ll_aton/ll_aton.h **** 
 360:Lib/AI_Runtime/Npu/ll_aton/ll_aton.h ****   /**
 361:Lib/AI_Runtime/Npu/ll_aton/ll_aton.h ****    * @brief Pooling Accelerator configuration structure
 362:Lib/AI_Runtime/Npu/ll_aton/ll_aton.h ****    */
 363:Lib/AI_Runtime/Npu/ll_aton/ll_aton.h ****   typedef struct
 364:Lib/AI_Runtime/Npu/ll_aton/ll_aton.h ****   {
 365:Lib/AI_Runtime/Npu/ll_aton/ll_aton.h ****     LL_Poolacc_Op operation;   /**< Pooling operation type. See LL_Poolacc_Op */
 366:Lib/AI_Runtime/Npu/ll_aton/ll_aton.h ****     unsigned avgnopad : 1;     /**< Average pooling operation without padding */
 367:Lib/AI_Runtime/Npu/ll_aton/ll_aton.h ****     unsigned short inputX;     /**< Size X of the input feature */
ARM GAS  /tmp/ccxZaNgH.s 			page 8


 368:Lib/AI_Runtime/Npu/ll_aton/ll_aton.h ****     unsigned short inputY;     /**< Size Y of the input feature */
 369:Lib/AI_Runtime/Npu/ll_aton/ll_aton.h ****     unsigned short outputX;    /**< Size X of the output data */
 370:Lib/AI_Runtime/Npu/ll_aton/ll_aton.h ****     unsigned short outputY;    /**< Size Y of the output data */
 371:Lib/AI_Runtime/Npu/ll_aton/ll_aton.h ****     unsigned char poolWinX;    /**< Size X of pooling window */
 372:Lib/AI_Runtime/Npu/ll_aton/ll_aton.h ****     unsigned char poolWinY;    /**< Size Y of pooling window */
 373:Lib/AI_Runtime/Npu/ll_aton/ll_aton.h ****     unsigned char strideX;     /**< Stride value in X direction */
 374:Lib/AI_Runtime/Npu/ll_aton/ll_aton.h ****     unsigned char strideY;     /**< Stride value in Y direction */
 375:Lib/AI_Runtime/Npu/ll_aton/ll_aton.h ****     unsigned short topCrop;    /**< Top cropping size */
 376:Lib/AI_Runtime/Npu/ll_aton/ll_aton.h ****     unsigned short bottomCrop; /**< Bottom cropping size */
 377:Lib/AI_Runtime/Npu/ll_aton/ll_aton.h ****     unsigned short leftCrop;   /**< Left cropping size */
 378:Lib/AI_Runtime/Npu/ll_aton/ll_aton.h ****     unsigned short rightCrop;  /**< Right cropping size */
 379:Lib/AI_Runtime/Npu/ll_aton/ll_aton.h ****     unsigned short topPad;     /**< Top padding size */
 380:Lib/AI_Runtime/Npu/ll_aton/ll_aton.h ****     unsigned short bottomPad;  /**< Bottom padding size */
 381:Lib/AI_Runtime/Npu/ll_aton/ll_aton.h ****     unsigned short leftPad;    /**< Left padding size */
 382:Lib/AI_Runtime/Npu/ll_aton/ll_aton.h ****     unsigned short rightPad;   /**< Right padding size */
 383:Lib/AI_Runtime/Npu/ll_aton/ll_aton.h ****     unsigned short batchSize;  /**< Batch size */
 384:Lib/AI_Runtime/Npu/ll_aton/ll_aton.h ****     unsigned char shift_f;     /**< Input feature data shift */
 385:Lib/AI_Runtime/Npu/ll_aton/ll_aton.h ****     unsigned char shift_o;     /**< Optional right shift to apply the average pooling output */
 386:Lib/AI_Runtime/Npu/ll_aton/ll_aton.h ****     unsigned dualLine : 1;     /**< Enable dual line, allows each linebuffer line to work as 2 line
 387:Lib/AI_Runtime/Npu/ll_aton/ll_aton.h ****                                 *   applicable for 8-bit data */
 388:Lib/AI_Runtime/Npu/ll_aton/ll_aton.h ****     unsigned nbytes : 2;       /**< input data number of bytes */
 389:Lib/AI_Runtime/Npu/ll_aton/ll_aton.h ****     unsigned rounding_f : 1;   /**< Input feature data rounding */
 390:Lib/AI_Runtime/Npu/ll_aton/ll_aton.h ****     unsigned saturation_f : 1; /**< Input feature data saturation */
 391:Lib/AI_Runtime/Npu/ll_aton/ll_aton.h ****     unsigned round_mode_f : 2; /**< Rounding mode to apply to input feature data */
 392:Lib/AI_Runtime/Npu/ll_aton/ll_aton.h ****     unsigned inbytes_f : 2;    /**< Input data width in bytes. Valid values are 1, 2 or 3 bytes */
 393:Lib/AI_Runtime/Npu/ll_aton/ll_aton.h ****     unsigned outbytes_f : 2;   /**< Number of output bytes to use for final result after rounding o
 394:Lib/AI_Runtime/Npu/ll_aton/ll_aton.h ****                                 *   Valid values are 1 or 2 bytes */
 395:Lib/AI_Runtime/Npu/ll_aton/ll_aton.h ****     unsigned rounding_o : 1;   /**< Enable output rounding using round-to-nearest (round up)
 396:Lib/AI_Runtime/Npu/ll_aton/ll_aton.h ****                                 *   (applicable to average pooling operations) */
 397:Lib/AI_Runtime/Npu/ll_aton/ll_aton.h ****     unsigned saturation_o : 1; /**< Enable output saturation (applicable to average pooling operati
 398:Lib/AI_Runtime/Npu/ll_aton/ll_aton.h ****     unsigned round_mode_o : 1; /**< Rounding mode to apply to output feature data */
 399:Lib/AI_Runtime/Npu/ll_aton/ll_aton.h ****     unsigned relu_mode_o : 1;  /**< Apply Relu operation before rounding */
 400:Lib/AI_Runtime/Npu/ll_aton/ll_aton.h ****     unsigned outbytes_o : 2;   /**< Number of output bytes to use for final result after rounding o
 401:Lib/AI_Runtime/Npu/ll_aton/ll_aton.h ****                                 *   Valid values are 1 or 2 bytes */
 402:Lib/AI_Runtime/Npu/ll_aton/ll_aton.h ****     short mulval;              /**< constant to be multiplied to accumulated sum of pooling window.
 403:Lib/AI_Runtime/Npu/ll_aton/ll_aton.h ****                                 * For average operation, it represents the reciprocal of the diviso
 404:Lib/AI_Runtime/Npu/ll_aton/ll_aton.h ****                                 * The average is computed by multiplying this constant with the acc
 405:Lib/AI_Runtime/Npu/ll_aton/ll_aton.h ****                                 * relevant right shift at the output. (Applicable to average poolin
 406:Lib/AI_Runtime/Npu/ll_aton/ll_aton.h ****     unsigned pad_val_en : 1;   /**< Enable padding value */
 407:Lib/AI_Runtime/Npu/ll_aton/ll_aton.h ****     short pad_val;             /**< Padding value to be used for padding operation */
 408:Lib/AI_Runtime/Npu/ll_aton/ll_aton.h ****   } LL_Poolacc_InitTypeDef;
 409:Lib/AI_Runtime/Npu/ll_aton/ll_aton.h **** 
 410:Lib/AI_Runtime/Npu/ll_aton/ll_aton.h ****   /**
 411:Lib/AI_Runtime/Npu/ll_aton/ll_aton.h ****    * @brief Epoch Controller configuration structure
 412:Lib/AI_Runtime/Npu/ll_aton/ll_aton.h ****    */
 413:Lib/AI_Runtime/Npu/ll_aton/ll_aton.h ****   typedef struct
 414:Lib/AI_Runtime/Npu/ll_aton/ll_aton.h ****   {
 415:Lib/AI_Runtime/Npu/ll_aton/ll_aton.h ****     uint32_t blobaddr;     /**< Blob code start address. Must be 8 byte aligned */
 416:Lib/AI_Runtime/Npu/ll_aton/ll_aton.h ****     unsigned stepmode : 1; /**< Enable step mode. Used for debugging purposes */
 417:Lib/AI_Runtime/Npu/ll_aton/ll_aton.h ****   } LL_EpochCtrl_InitTypeDef;
 418:Lib/AI_Runtime/Npu/ll_aton/ll_aton.h **** 
 419:Lib/AI_Runtime/Npu/ll_aton/ll_aton.h ****   /** @defgroup LL_POOL Pooling unit configuration functions
 420:Lib/AI_Runtime/Npu/ll_aton/ll_aton.h ****    * @{
 421:Lib/AI_Runtime/Npu/ll_aton/ll_aton.h ****    */
 422:Lib/AI_Runtime/Npu/ll_aton/ll_aton.h ****   int LL_Poolacc_Init(int id, const LL_Poolacc_InitTypeDef *conf);
 423:Lib/AI_Runtime/Npu/ll_aton/ll_aton.h ****   /**
 424:Lib/AI_Runtime/Npu/ll_aton/ll_aton.h ****    * @}
ARM GAS  /tmp/ccxZaNgH.s 			page 9


 425:Lib/AI_Runtime/Npu/ll_aton/ll_aton.h ****    */
 426:Lib/AI_Runtime/Npu/ll_aton/ll_aton.h **** 
 427:Lib/AI_Runtime/Npu/ll_aton/ll_aton.h ****   /**
 428:Lib/AI_Runtime/Npu/ll_aton/ll_aton.h ****    * @brief Streaming engine configuration structure
 429:Lib/AI_Runtime/Npu/ll_aton/ll_aton.h ****    */
 430:Lib/AI_Runtime/Npu/ll_aton/ll_aton.h ****   typedef struct
 431:Lib/AI_Runtime/Npu/ll_aton/ll_aton.h ****   {
 432:Lib/AI_Runtime/Npu/ll_aton/ll_aton.h ****     unsigned dir : 1;             /**< Stream Direction: 0 input, 1 output */
 433:Lib/AI_Runtime/Npu/ll_aton/ll_aton.h ****     unsigned raw : 1;             /**< Set RAW mode (1) or raster mode (0) */
 434:Lib/AI_Runtime/Npu/ll_aton/ll_aton.h ****     unsigned raw_out : 1;         /**< Force RAW output (bus to stream only)
 435:Lib/AI_Runtime/Npu/ll_aton/ll_aton.h ****                                    *   even if the engine is programmed in raster mode */
 436:Lib/AI_Runtime/Npu/ll_aton/ll_aton.h ****     unsigned continuous : 1;      /**< Do not restart address pointer at end of frame */
 437:Lib/AI_Runtime/Npu/ll_aton/ll_aton.h ****     unsigned noblk : 1;           /**< Do not use blocks wider that the native bus size */
 438:Lib/AI_Runtime/Npu/ll_aton/ll_aton.h ****     unsigned noinc : 1;           /**< Do not increment address */
 439:Lib/AI_Runtime/Npu/ll_aton/ll_aton.h ****     unsigned align_right : 1;     /**< Alignment for data on switch (default left) */
 440:Lib/AI_Runtime/Npu/ll_aton/ll_aton.h ****     unsigned mem_lsb : 1;         /**< For when nbits_in != nbits_out to decide which bits are read
 441:Lib/AI_Runtime/Npu/ll_aton/ll_aton.h ****                                    *   (default msb) */
 442:Lib/AI_Runtime/Npu/ll_aton/ll_aton.h ****     unsigned sync_with_other : 1; /**< Enable synchronizations signals between engines */
 443:Lib/AI_Runtime/Npu/ll_aton/ll_aton.h ****     unsigned nbits_unsigned : 1;  /**< Disable sign extension */
 444:Lib/AI_Runtime/Npu/ll_aton/ll_aton.h ****     unsigned bus_cid : 3;         /**< Set Compartment ID cache attribute */
 445:Lib/AI_Runtime/Npu/ll_aton/ll_aton.h ****     unsigned cacheable : 1;       /**< Set cacheable bus attribute */
 446:Lib/AI_Runtime/Npu/ll_aton/ll_aton.h ****     unsigned cache_allocate : 1;  /**< Set cache allocate bus attribute */
 447:Lib/AI_Runtime/Npu/ll_aton/ll_aton.h ****     unsigned bus_pfetch : 1;      /**< Enable bus prefetch */
 448:Lib/AI_Runtime/Npu/ll_aton/ll_aton.h ****     unsigned cache_linesize : 2;  /**< Cache Line size: 0 -> 64B, 1 -> 128B, 2 -> 256B, 3 -> 512B *
 449:Lib/AI_Runtime/Npu/ll_aton/ll_aton.h ****     unsigned cipher_en : 1;       /**< Enable ciphering: 0 -> disable, 1-> enable  */
 450:Lib/AI_Runtime/Npu/ll_aton/ll_aton.h ****     unsigned key_sel : 1;         /**< Bus Interface key to be used for ciphering (0, 1) */
 451:Lib/AI_Runtime/Npu/ll_aton/ll_aton.h ****     unsigned char sync_dma;       /**< Synchronization signals source engine */
 452:Lib/AI_Runtime/Npu/ll_aton/ll_aton.h ****     ll_aton_pointer addr_base;    /**< Source/Destination base address */
 453:Lib/AI_Runtime/Npu/ll_aton/ll_aton.h ****     unsigned offset_start;        /**< Offset of the Source/Destination start address from the base
 454:Lib/AI_Runtime/Npu/ll_aton/ll_aton.h ****     unsigned offset_end;          /**< Offset of the Source/Destination end address from the base a
 455:Lib/AI_Runtime/Npu/ll_aton/ll_aton.h ****     unsigned offset_limit;        /**< Offset of the Stream engine address limit from the base addr
 456:Lib/AI_Runtime/Npu/ll_aton/ll_aton.h ****                                    *   Used to prevent prefetch beyond memory boundaries */
 457:Lib/AI_Runtime/Npu/ll_aton/ll_aton.h ****     unsigned frame_count;         /**< Number of frames to transfer */
 458:Lib/AI_Runtime/Npu/ll_aton/ll_aton.h ****     unsigned fwidth;              /**< Frame width (pixel per line) */
 459:Lib/AI_Runtime/Npu/ll_aton/ll_aton.h ****     unsigned fheight;             /**< Frame height (number of lines) */
 460:Lib/AI_Runtime/Npu/ll_aton/ll_aton.h ****     unsigned batch_depth;         /**< Batch depth (subpix per pixel) */
 461:Lib/AI_Runtime/Npu/ll_aton/ll_aton.h ****     unsigned batch_offset;        /**< Offset (bytes) between batches */
 462:Lib/AI_Runtime/Npu/ll_aton/ll_aton.h ****     unsigned frame_offset;        /**< Offset between multiple frames within frame repetition loop 
 463:Lib/AI_Runtime/Npu/ll_aton/ll_aton.h ****     unsigned line_offset;         /**< Offset between multiple frames within frame repetition loop.
 464:Lib/AI_Runtime/Npu/ll_aton/ll_aton.h ****                                    *   If set to zero it's derived from width and batch_offset */
 465:Lib/AI_Runtime/Npu/ll_aton/ll_aton.h ****     unsigned loop_offset;         /**< Offset between frame repetition loops */
 466:Lib/AI_Runtime/Npu/ll_aton/ll_aton.h ****     unsigned frame_loop_cnt;      /**< Number of frames to loop */
 467:Lib/AI_Runtime/Npu/ll_aton/ll_aton.h ****     unsigned
 468:Lib/AI_Runtime/Npu/ll_aton/ll_aton.h ****         loop_offset2; /**< 2nd level offset between frame repetition loops. If set, has priority ov
 469:Lib/AI_Runtime/Npu/ll_aton/ll_aton.h ****     unsigned frame_loop_cnt2; /**< 2nd level number of frames to loop */
 470:Lib/AI_Runtime/Npu/ll_aton/ll_aton.h ****     unsigned frame_tot_cnt;   /**< Frame limit */
 471:Lib/AI_Runtime/Npu/ll_aton/ll_aton.h ****     unsigned char nbits_in;   /**< Data size in bits if reading */
 472:Lib/AI_Runtime/Npu/ll_aton/ll_aton.h ****     unsigned char nbits_out;  /**< Data size in bits if writing */
 473:Lib/AI_Runtime/Npu/ll_aton/ll_aton.h ****   } LL_Streng_TensorInitTypeDef;
 474:Lib/AI_Runtime/Npu/ll_aton/ll_aton.h **** 
 475:Lib/AI_Runtime/Npu/ll_aton/ll_aton.h ****   static inline unsigned char *LL_Streng_addr_start(const LL_Streng_TensorInitTypeDef *conf)
 476:Lib/AI_Runtime/Npu/ll_aton/ll_aton.h ****   {
 477:Lib/AI_Runtime/Npu/ll_aton/ll_aton.h ****     return conf->addr_base.p + conf->offset_start;
 478:Lib/AI_Runtime/Npu/ll_aton/ll_aton.h ****   }
 479:Lib/AI_Runtime/Npu/ll_aton/ll_aton.h **** 
 480:Lib/AI_Runtime/Npu/ll_aton/ll_aton.h ****   static inline unsigned char *LL_Streng_addr_end(const LL_Streng_TensorInitTypeDef *conf)
 481:Lib/AI_Runtime/Npu/ll_aton/ll_aton.h ****   {
ARM GAS  /tmp/ccxZaNgH.s 			page 10


 482:Lib/AI_Runtime/Npu/ll_aton/ll_aton.h ****     return conf->addr_base.p + conf->offset_end;
 483:Lib/AI_Runtime/Npu/ll_aton/ll_aton.h ****   }
 484:Lib/AI_Runtime/Npu/ll_aton/ll_aton.h **** 
 485:Lib/AI_Runtime/Npu/ll_aton/ll_aton.h ****   static inline unsigned char *LL_Streng_addr_limit(const LL_Streng_TensorInitTypeDef *conf)
 486:Lib/AI_Runtime/Npu/ll_aton/ll_aton.h ****   {
 487:Lib/AI_Runtime/Npu/ll_aton/ll_aton.h ****     return conf->addr_base.p + conf->offset_limit;
 488:Lib/AI_Runtime/Npu/ll_aton/ll_aton.h ****   }
 489:Lib/AI_Runtime/Npu/ll_aton/ll_aton.h **** 
 490:Lib/AI_Runtime/Npu/ll_aton/ll_aton.h ****   static inline uint32_t LL_Streng_len(const LL_Streng_TensorInitTypeDef *conf)
 491:Lib/AI_Runtime/Npu/ll_aton/ll_aton.h ****   {
  34              		.loc 2 491 3
  35              		.cfi_startproc
  36              		@ args = 0, pretend = 0, frame = 8
  37              		@ frame_needed = 1, uses_anonymous_args = 0
  38              		@ link register save eliminated.
  39 0000 80B4     		push	{r7}
  40              		.cfi_def_cfa_offset 4
  41              		.cfi_offset 7, -4
  42 0002 83B0     		sub	sp, sp, #12
  43              		.cfi_def_cfa_offset 16
  44 0004 00AF     		add	r7, sp, #0
  45              		.cfi_def_cfa_register 7
  46 0006 7860     		str	r0, [r7, #4]
 492:Lib/AI_Runtime/Npu/ll_aton/ll_aton.h ****     return conf->offset_end - conf->offset_start;
  47              		.loc 2 492 16
  48 0008 7B68     		ldr	r3, [r7, #4]
  49 000a DA68     		ldr	r2, [r3, #12]
  50              		.loc 2 492 35
  51 000c 7B68     		ldr	r3, [r7, #4]
  52 000e 9B68     		ldr	r3, [r3, #8]
  53              		.loc 2 492 29
  54 0010 D31A     		subs	r3, r2, r3
 493:Lib/AI_Runtime/Npu/ll_aton/ll_aton.h ****   }
  55              		.loc 2 493 3
  56 0012 1846     		mov	r0, r3
  57 0014 0C37     		adds	r7, r7, #12
  58              		.cfi_def_cfa_offset 4
  59 0016 BD46     		mov	sp, r7
  60              		.cfi_def_cfa_register 13
  61              		@ sp needed
  62 0018 5DF8047B 		ldr	r7, [sp], #4
  63              		.cfi_restore 7
  64              		.cfi_def_cfa_offset 0
  65 001c 7047     		bx	lr
  66              		.cfi_endproc
  67              	.LFE4810:
  69              		.section	.text.LL_ATON_Cache_MCU_Clean_Invalidate_Range,"ax",%progbits
  70              		.align	1
  71              		.syntax unified
  72              		.thumb
  73              		.thumb_func
  75              	LL_ATON_Cache_MCU_Clean_Invalidate_Range:
  76              	.LFB4813:
  77              		.file 3 "Lib/AI_Runtime/Npu/ll_aton/ll_aton_caches_interface.h"
   1:Lib/AI_Runtime/Npu/ll_aton/ll_aton_caches_interface.h **** /**
   2:Lib/AI_Runtime/Npu/ll_aton/ll_aton_caches_interface.h ****  ******************************************************************************
   3:Lib/AI_Runtime/Npu/ll_aton/ll_aton_caches_interface.h ****  * @file    ll_aton_caches_interface.h
ARM GAS  /tmp/ccxZaNgH.s 			page 11


   4:Lib/AI_Runtime/Npu/ll_aton/ll_aton_caches_interface.h ****  * @author  SRA Artificial Intelligence & Embedded Architectures
   5:Lib/AI_Runtime/Npu/ll_aton/ll_aton_caches_interface.h ****  * @brief   Header file for defining an implementing generic cache handling
   6:Lib/AI_Runtime/Npu/ll_aton/ll_aton_caches_interface.h ****  *          functions for the application writer
   7:Lib/AI_Runtime/Npu/ll_aton/ll_aton_caches_interface.h ****  ******************************************************************************
   8:Lib/AI_Runtime/Npu/ll_aton/ll_aton_caches_interface.h ****  * @attention
   9:Lib/AI_Runtime/Npu/ll_aton/ll_aton_caches_interface.h ****  *
  10:Lib/AI_Runtime/Npu/ll_aton/ll_aton_caches_interface.h ****  * Copyright (c) 2024 STMicroelectronics.
  11:Lib/AI_Runtime/Npu/ll_aton/ll_aton_caches_interface.h ****  * All rights reserved.
  12:Lib/AI_Runtime/Npu/ll_aton/ll_aton_caches_interface.h ****  *
  13:Lib/AI_Runtime/Npu/ll_aton/ll_aton_caches_interface.h ****  * This software is licensed under terms that can be found in the LICENSE file
  14:Lib/AI_Runtime/Npu/ll_aton/ll_aton_caches_interface.h ****  * in the root directory of this software component.
  15:Lib/AI_Runtime/Npu/ll_aton/ll_aton_caches_interface.h ****  * If no LICENSE file comes with this software, it is provided AS-IS.
  16:Lib/AI_Runtime/Npu/ll_aton/ll_aton_caches_interface.h ****  *
  17:Lib/AI_Runtime/Npu/ll_aton/ll_aton_caches_interface.h ****  ******************************************************************************
  18:Lib/AI_Runtime/Npu/ll_aton/ll_aton_caches_interface.h ****  */
  19:Lib/AI_Runtime/Npu/ll_aton/ll_aton_caches_interface.h **** 
  20:Lib/AI_Runtime/Npu/ll_aton/ll_aton_caches_interface.h **** #ifndef __LL_ATON_CACHES_H
  21:Lib/AI_Runtime/Npu/ll_aton/ll_aton_caches_interface.h **** #define __LL_ATON_CACHES_H
  22:Lib/AI_Runtime/Npu/ll_aton/ll_aton_caches_interface.h **** 
  23:Lib/AI_Runtime/Npu/ll_aton/ll_aton_caches_interface.h **** #include <stdint.h>
  24:Lib/AI_Runtime/Npu/ll_aton/ll_aton_caches_interface.h **** 
  25:Lib/AI_Runtime/Npu/ll_aton/ll_aton_caches_interface.h **** #ifdef __cplusplus
  26:Lib/AI_Runtime/Npu/ll_aton/ll_aton_caches_interface.h **** extern "C"
  27:Lib/AI_Runtime/Npu/ll_aton/ll_aton_caches_interface.h **** {
  28:Lib/AI_Runtime/Npu/ll_aton/ll_aton_caches_interface.h **** #endif
  29:Lib/AI_Runtime/Npu/ll_aton/ll_aton_caches_interface.h **** 
  30:Lib/AI_Runtime/Npu/ll_aton/ll_aton_caches_interface.h **** #include "ll_aton_osal.h"
  31:Lib/AI_Runtime/Npu/ll_aton/ll_aton_caches_interface.h **** #include "ll_aton_platform.h"
  32:Lib/AI_Runtime/Npu/ll_aton/ll_aton_caches_interface.h **** 
  33:Lib/AI_Runtime/Npu/ll_aton/ll_aton_caches_interface.h **** #if !defined(BUILD_AI_NETWORK_RELOC)
  34:Lib/AI_Runtime/Npu/ll_aton/ll_aton_caches_interface.h **** 
  35:Lib/AI_Runtime/Npu/ll_aton/ll_aton_caches_interface.h **** #if (LL_ATON_PLATFORM == LL_ATON_PLAT_STM32N6)
  36:Lib/AI_Runtime/Npu/ll_aton/ll_aton_caches_interface.h **** 
  37:Lib/AI_Runtime/Npu/ll_aton/ll_aton_caches_interface.h ****   /*** MCU cache maintenance functions ***/
  38:Lib/AI_Runtime/Npu/ll_aton/ll_aton_caches_interface.h **** 
  39:Lib/AI_Runtime/Npu/ll_aton/ll_aton_caches_interface.h ****   /**
  40:Lib/AI_Runtime/Npu/ll_aton/ll_aton_caches_interface.h ****    * @brief perform MCU cache clean maintenance operation on an address range
  41:Lib/AI_Runtime/Npu/ll_aton/ll_aton_caches_interface.h ****    * @details whenever the content of a buffer is changed by the application (which is especially t
  42:Lib/AI_Runtime/Npu/ll_aton/ll_aton_caches_interface.h ****    *          buffers) cache maintenance MUST be taken into account before being able to run the ne
  43:Lib/AI_Runtime/Npu/ll_aton/ll_aton_caches_interface.h ****    * @param[in] virtual_addr start address (host-side/virtual) of address range
  44:Lib/AI_Runtime/Npu/ll_aton/ll_aton_caches_interface.h ****    * @param[in] size size of address range
  45:Lib/AI_Runtime/Npu/ll_aton/ll_aton_caches_interface.h ****    *
  46:Lib/AI_Runtime/Npu/ll_aton/ll_aton_caches_interface.h ****    * @note the address range should fulfill alignment constraints with respect to the MCU cache lin
  47:Lib/AI_Runtime/Npu/ll_aton/ll_aton_caches_interface.h ****    *       for both its `address` & `size` (to better correspond to what this operation will actual
  48:Lib/AI_Runtime/Npu/ll_aton/ll_aton_caches_interface.h ****    * @note this function is intended to handle the case where a buffer has been filled by the MCU/p
  49:Lib/AI_Runtime/Npu/ll_aton/ll_aton_caches_interface.h ****    *       passing thru the MCU cache) and should be called AFTER that the buffer has been filled
  50:Lib/AI_Runtime/Npu/ll_aton/ll_aton_caches_interface.h ****    */
  51:Lib/AI_Runtime/Npu/ll_aton/ll_aton_caches_interface.h ****   static inline void LL_ATON_Cache_MCU_Clean_Range(uintptr_t virtual_addr, uint32_t size)
  52:Lib/AI_Runtime/Npu/ll_aton/ll_aton_caches_interface.h ****   {
  53:Lib/AI_Runtime/Npu/ll_aton/ll_aton_caches_interface.h ****     LL_ATON_OSAL_LOCK_MCU_CACHE();
  54:Lib/AI_Runtime/Npu/ll_aton/ll_aton_caches_interface.h ****     mcu_cache_clean_range(virtual_addr, virtual_addr + size);
  55:Lib/AI_Runtime/Npu/ll_aton/ll_aton_caches_interface.h ****     LL_ATON_OSAL_UNLOCK_MCU_CACHE();
  56:Lib/AI_Runtime/Npu/ll_aton/ll_aton_caches_interface.h ****   }
  57:Lib/AI_Runtime/Npu/ll_aton/ll_aton_caches_interface.h **** 
  58:Lib/AI_Runtime/Npu/ll_aton/ll_aton_caches_interface.h ****   /**
  59:Lib/AI_Runtime/Npu/ll_aton/ll_aton_caches_interface.h ****    * @brief perform MCU cache invalidate maintenance operation on an address range
  60:Lib/AI_Runtime/Npu/ll_aton/ll_aton_caches_interface.h ****    * @details whenever the content of a buffer is changed by the application (which is especially t
ARM GAS  /tmp/ccxZaNgH.s 			page 12


  61:Lib/AI_Runtime/Npu/ll_aton/ll_aton_caches_interface.h ****    *          buffers) cache maintenance MUST be taken into account before being able to run the ne
  62:Lib/AI_Runtime/Npu/ll_aton/ll_aton_caches_interface.h ****    * @param[in] virtual_addr start address (host-side/virtual) of address range
  63:Lib/AI_Runtime/Npu/ll_aton/ll_aton_caches_interface.h ****    * @param[in] size size of address range
  64:Lib/AI_Runtime/Npu/ll_aton/ll_aton_caches_interface.h ****    *
  65:Lib/AI_Runtime/Npu/ll_aton/ll_aton_caches_interface.h ****    * @note the address range should fulfill alignment constraints with respect to the MCU cache lin
  66:Lib/AI_Runtime/Npu/ll_aton/ll_aton_caches_interface.h ****    *       for both its `address` & `size` (to better correspond to what this operation will actual
  67:Lib/AI_Runtime/Npu/ll_aton/ll_aton_caches_interface.h ****    * @note this function is intended to handle the case where a buffer has been filled by-passing t
  68:Lib/AI_Runtime/Npu/ll_aton/ll_aton_caches_interface.h ****    *       cache (e.g. using a DMA) and should be called BEFORE the buffer gets filled
  69:Lib/AI_Runtime/Npu/ll_aton/ll_aton_caches_interface.h ****    */
  70:Lib/AI_Runtime/Npu/ll_aton/ll_aton_caches_interface.h ****   static inline void LL_ATON_Cache_MCU_Invalidate_Range(uintptr_t virtual_addr, uint32_t size)
  71:Lib/AI_Runtime/Npu/ll_aton/ll_aton_caches_interface.h ****   {
  72:Lib/AI_Runtime/Npu/ll_aton/ll_aton_caches_interface.h ****     LL_ATON_OSAL_LOCK_MCU_CACHE();
  73:Lib/AI_Runtime/Npu/ll_aton/ll_aton_caches_interface.h ****     mcu_cache_invalidate_range(virtual_addr, virtual_addr + size);
  74:Lib/AI_Runtime/Npu/ll_aton/ll_aton_caches_interface.h ****     LL_ATON_OSAL_UNLOCK_MCU_CACHE();
  75:Lib/AI_Runtime/Npu/ll_aton/ll_aton_caches_interface.h ****   }
  76:Lib/AI_Runtime/Npu/ll_aton/ll_aton_caches_interface.h **** 
  77:Lib/AI_Runtime/Npu/ll_aton/ll_aton_caches_interface.h ****   /**
  78:Lib/AI_Runtime/Npu/ll_aton/ll_aton_caches_interface.h ****    * @brief perform MCU cache clean & invalidate maintenance operation on an address range
  79:Lib/AI_Runtime/Npu/ll_aton/ll_aton_caches_interface.h ****    * @details whenever the content of a buffer is changed by the application (which is especially t
  80:Lib/AI_Runtime/Npu/ll_aton/ll_aton_caches_interface.h ****    *          buffers) cache maintenance MUST be taken into account before being able to run the ne
  81:Lib/AI_Runtime/Npu/ll_aton/ll_aton_caches_interface.h ****    * @param[in] virtual_addr start address (host-side/virtual) of address range
  82:Lib/AI_Runtime/Npu/ll_aton/ll_aton_caches_interface.h ****    * @param[in] size size of address range
  83:Lib/AI_Runtime/Npu/ll_aton/ll_aton_caches_interface.h ****    *
  84:Lib/AI_Runtime/Npu/ll_aton/ll_aton_caches_interface.h ****    * @note the address range should fulfill alignment constraints with respect to the MCU cache lin
  85:Lib/AI_Runtime/Npu/ll_aton/ll_aton_caches_interface.h ****    *       for both its `address` & `size` (to better correspond to what this operation will actual
  86:Lib/AI_Runtime/Npu/ll_aton/ll_aton_caches_interface.h ****    * @note this function is intended to handle the case where a buffer has been filled by the MCU/p
  87:Lib/AI_Runtime/Npu/ll_aton/ll_aton_caches_interface.h ****    *       (such passing thru the MCU cache) and is gonna to be modified immediately afterwards by-
  88:Lib/AI_Runtime/Npu/ll_aton/ll_aton_caches_interface.h ****    *       the MCU/processor cache (e.g. using a DMA). It should be called AFTER that the buffer ha
  89:Lib/AI_Runtime/Npu/ll_aton/ll_aton_caches_interface.h ****    *       filled
  90:Lib/AI_Runtime/Npu/ll_aton/ll_aton_caches_interface.h ****    */
  91:Lib/AI_Runtime/Npu/ll_aton/ll_aton_caches_interface.h ****   static inline void LL_ATON_Cache_MCU_Clean_Invalidate_Range(uintptr_t virtual_addr, uint32_t size
  92:Lib/AI_Runtime/Npu/ll_aton/ll_aton_caches_interface.h ****   {
  78              		.loc 3 92 3
  79              		.cfi_startproc
  80              		@ args = 0, pretend = 0, frame = 8
  81              		@ frame_needed = 1, uses_anonymous_args = 0
  82 0000 80B5     		push	{r7, lr}
  83              		.cfi_def_cfa_offset 8
  84              		.cfi_offset 7, -8
  85              		.cfi_offset 14, -4
  86 0002 82B0     		sub	sp, sp, #8
  87              		.cfi_def_cfa_offset 16
  88 0004 00AF     		add	r7, sp, #0
  89              		.cfi_def_cfa_register 7
  90 0006 7860     		str	r0, [r7, #4]
  91 0008 3960     		str	r1, [r7]
  93:Lib/AI_Runtime/Npu/ll_aton/ll_aton_caches_interface.h ****     LL_ATON_OSAL_LOCK_MCU_CACHE();
  94:Lib/AI_Runtime/Npu/ll_aton/ll_aton_caches_interface.h ****     mcu_cache_clean_invalidate_range(virtual_addr, virtual_addr + size);
  92              		.loc 3 94 5
  93 000a 7A68     		ldr	r2, [r7, #4]
  94 000c 3B68     		ldr	r3, [r7]
  95 000e 1344     		add	r3, r3, r2
  96 0010 1946     		mov	r1, r3
  97 0012 7868     		ldr	r0, [r7, #4]
  98 0014 FFF7FEFF 		bl	mcu_cache_clean_invalidate_range
  95:Lib/AI_Runtime/Npu/ll_aton/ll_aton_caches_interface.h ****     LL_ATON_OSAL_UNLOCK_MCU_CACHE();
  96:Lib/AI_Runtime/Npu/ll_aton/ll_aton_caches_interface.h ****   }
ARM GAS  /tmp/ccxZaNgH.s 			page 13


  99              		.loc 3 96 3
 100 0018 00BF     		nop
 101 001a 0837     		adds	r7, r7, #8
 102              		.cfi_def_cfa_offset 8
 103 001c BD46     		mov	sp, r7
 104              		.cfi_def_cfa_register 13
 105              		@ sp needed
 106 001e 80BD     		pop	{r7, pc}
 107              		.cfi_endproc
 108              	.LFE4813:
 110              		.section	.bss.Conv_ctrl_bits,"aw",%nobits
 111              		.align	2
 114              	Conv_ctrl_bits:
 115 0000 00000000 		.space	16
 115      00000000 
 115      00000000 
 115      00000000 
 116              		.section	.rodata
 117              		.align	2
 118              	.LC3:
 119 0000 28307831 		.ascii	"(0x1UL) == __atonn_getSrcPortID(STRSWITCH, 0, STREN"
 119      554C2920 
 119      3D3D205F 
 119      5F61746F 
 119      6E6E5F67 
 120 0033 472C2031 		.ascii	"G, 1, 0)\000"
 120      2C203029 
 120      00
 121              		.align	2
 122              	.LC4:
 123 003c 4C69622F 		.ascii	"Lib/AI_Runtime/Npu/ll_aton/ll_aton.c\000"
 123      41495F52 
 123      756E7469 
 123      6D652F4E 
 123      70752F6C 
 124 0061 000000   		.align	2
 125              	.LC5:
 126 0064 28307838 		.ascii	"(0x8UL + ((1) << 2)) == __atonn_getDstPortID(STRSWI"
 126      554C202B 
 126      20282831 
 126      29203C3C 
 126      20322929 
 127 0097 5443482C 		.ascii	"TCH, 0, STRENG, 1, 0)\000"
 127      20302C20 
 127      53545245 
 127      4E472C20 
 127      312C2030 
 128 00ad 000000   		.align	2
 129              	.LC6:
 130 00b0 28307832 		.ascii	"(0x2UL) == __atonn_getSrcPortID(STRSWITCH, 0, STREN"
 130      554C2920 
 130      3D3D205F 
 130      5F61746F 
 130      6E6E5F67 
 131 00e3 472C2032 		.ascii	"G, 2, 0)\000"
 131      2C203029 
 131      00
ARM GAS  /tmp/ccxZaNgH.s 			page 14


 132              		.align	2
 133              	.LC7:
 134 00ec 28307838 		.ascii	"(0x8UL + ((2) << 2)) == __atonn_getDstPortID(STRSWI"
 134      554C202B 
 134      20282832 
 134      29203C3C 
 134      20322929 
 135 011f 5443482C 		.ascii	"TCH, 0, STRENG, 2, 0)\000"
 135      20302C20 
 135      53545245 
 135      4E472C20 
 135      322C2030 
 136              		.section	.text.ll_aton_static_checks,"ax",%progbits
 137              		.align	1
 138              		.syntax unified
 139              		.thumb
 140              		.thumb_func
 142              	ll_aton_static_checks:
 143              	.LFB4820:
   1:Lib/AI_Runtime/Npu/ll_aton/ll_aton.c **** /**
   2:Lib/AI_Runtime/Npu/ll_aton/ll_aton.c ****  ******************************************************************************
   3:Lib/AI_Runtime/Npu/ll_aton/ll_aton.c ****  * @file    ll_aton.c
   4:Lib/AI_Runtime/Npu/ll_aton/ll_aton.c ****  * @author  SRA Artificial Intelligence & Embedded Architectures
   5:Lib/AI_Runtime/Npu/ll_aton/ll_aton.c ****  * @brief   ATON LL module driver.
   6:Lib/AI_Runtime/Npu/ll_aton/ll_aton.c ****  ******************************************************************************
   7:Lib/AI_Runtime/Npu/ll_aton/ll_aton.c ****  * @attention
   8:Lib/AI_Runtime/Npu/ll_aton/ll_aton.c ****  *
   9:Lib/AI_Runtime/Npu/ll_aton/ll_aton.c ****  * Copyright (c) 2024 STMicroelectronics.
  10:Lib/AI_Runtime/Npu/ll_aton/ll_aton.c ****  * All rights reserved.
  11:Lib/AI_Runtime/Npu/ll_aton/ll_aton.c ****  *
  12:Lib/AI_Runtime/Npu/ll_aton/ll_aton.c ****  * This software is licensed under terms that can be found in the LICENSE file
  13:Lib/AI_Runtime/Npu/ll_aton/ll_aton.c ****  * in the root directory of this software component.
  14:Lib/AI_Runtime/Npu/ll_aton/ll_aton.c ****  * If no LICENSE file comes with this software, it is provided AS-IS.
  15:Lib/AI_Runtime/Npu/ll_aton/ll_aton.c ****  *
  16:Lib/AI_Runtime/Npu/ll_aton/ll_aton.c ****  ******************************************************************************
  17:Lib/AI_Runtime/Npu/ll_aton/ll_aton.c ****  */
  18:Lib/AI_Runtime/Npu/ll_aton/ll_aton.c **** 
  19:Lib/AI_Runtime/Npu/ll_aton/ll_aton.c **** #include <assert.h>
  20:Lib/AI_Runtime/Npu/ll_aton/ll_aton.c **** #include <inttypes.h>
  21:Lib/AI_Runtime/Npu/ll_aton/ll_aton.c **** #include <stddef.h>
  22:Lib/AI_Runtime/Npu/ll_aton/ll_aton.c **** #include <stdint.h>
  23:Lib/AI_Runtime/Npu/ll_aton/ll_aton.c **** #include <stdlib.h>
  24:Lib/AI_Runtime/Npu/ll_aton/ll_aton.c **** 
  25:Lib/AI_Runtime/Npu/ll_aton/ll_aton.c **** #include "ll_aton.h"
  26:Lib/AI_Runtime/Npu/ll_aton/ll_aton.c **** #include "ll_aton_caches_interface.h"
  27:Lib/AI_Runtime/Npu/ll_aton/ll_aton.c **** #include "ll_aton_util.h"
  28:Lib/AI_Runtime/Npu/ll_aton/ll_aton.c **** 
  29:Lib/AI_Runtime/Npu/ll_aton/ll_aton.c **** #define ATONN_CONST_SRCPORT(S, J, U, I, P) ATON_##S##_##J##_LINK_##U##_##I##_##P
  30:Lib/AI_Runtime/Npu/ll_aton/ll_aton.c **** #define ATONN_CONST_DSTPORT(S, J, U, I, P) ATON_##S##_DST_OFFSET(J, ATON_##S##_##J##_DST##U##_##I##
  31:Lib/AI_Runtime/Npu/ll_aton/ll_aton.c **** 
  32:Lib/AI_Runtime/Npu/ll_aton/ll_aton.c **** #ifdef ATON_CONVACC_NUM
  33:Lib/AI_Runtime/Npu/ll_aton/ll_aton.c **** static uint32_t Conv_ctrl_bits[ATON_CONVACC_NUM]; // this is an hack FIXME !!!
  34:Lib/AI_Runtime/Npu/ll_aton/ll_aton.c **** #endif
  35:Lib/AI_Runtime/Npu/ll_aton/ll_aton.c **** 
  36:Lib/AI_Runtime/Npu/ll_aton/ll_aton.c **** #if (ATON_POOL_VERSION_MAJOR_DT < 1) || ((ATON_POOL_VERSION_MAJOR_DT == 1) && (ATON_POOL_VERSION_MI
  37:Lib/AI_Runtime/Npu/ll_aton/ll_aton.c **** #define POOL_RC14    /* Pooling unit is not yet patched with respect to auto-clearing of `CLR` bit 
  38:Lib/AI_Runtime/Npu/ll_aton/ll_aton.c ****                         reset values */
ARM GAS  /tmp/ccxZaNgH.s 			page 15


  39:Lib/AI_Runtime/Npu/ll_aton/ll_aton.c **** #endif
  40:Lib/AI_Runtime/Npu/ll_aton/ll_aton.c **** 
  41:Lib/AI_Runtime/Npu/ll_aton/ll_aton.c **** #define ASSERT_UNITS_VERS_W_MSG(unitname, rtl_unitver)                                             
  42:Lib/AI_Runtime/Npu/ll_aton/ll_aton.c ****   do                                                                                               
  43:Lib/AI_Runtime/Npu/ll_aton/ll_aton.c ****   {                                                                                                
  44:Lib/AI_Runtime/Npu/ll_aton/ll_aton.c ****     rtl_unitver = ATON_##unitname##_VERSION_GET(0);                                                
  45:Lib/AI_Runtime/Npu/ll_aton/ll_aton.c ****   } while (rtl_unitver == 0);                                                                      
  46:Lib/AI_Runtime/Npu/ll_aton/ll_aton.c ****   assertf(ATON_##unitname##_VERSION_GET_TYPE(rtl_unitver) == ATON_##unitname##_VERSION_TYPE_DT &&  
  47:Lib/AI_Runtime/Npu/ll_aton/ll_aton.c ****               ATON_##unitname##_VERSION_GET_MAJOR(rtl_unitver) == ATON_##unitname##_VERSION_MAJOR_D
  48:Lib/AI_Runtime/Npu/ll_aton/ll_aton.c ****               ATON_##unitname##_VERSION_GET_MINOR(rtl_unitver) == ATON_##unitname##_VERSION_MINOR_D
  49:Lib/AI_Runtime/Npu/ll_aton/ll_aton.c ****           0,                                                                                       
  50:Lib/AI_Runtime/Npu/ll_aton/ll_aton.c ****           "%s unit ver mismatch: RTL:t=%" PRIu32 ",ver=%" PRIu32 ".%" PRIu32 "  ATON.h:t=%" PRIu32 
  51:Lib/AI_Runtime/Npu/ll_aton/ll_aton.c ****           ".%" PRIu32 "\n\r",                                                                      
  52:Lib/AI_Runtime/Npu/ll_aton/ll_aton.c ****           #unitname, ATON_##unitname##_VERSION_GET_TYPE(rtl_unitver),                              
  53:Lib/AI_Runtime/Npu/ll_aton/ll_aton.c ****           ATON_##unitname##_VERSION_GET_MAJOR(rtl_unitver), ATON_##unitname##_VERSION_GET_MINOR(rtl
  54:Lib/AI_Runtime/Npu/ll_aton/ll_aton.c ****           (uint32_t)ATON_##unitname##_VERSION_TYPE_DT, (uint32_t)ATON_##unitname##_VERSION_MAJOR_DT
  55:Lib/AI_Runtime/Npu/ll_aton/ll_aton.c ****           (uint32_t)ATON_##unitname##_VERSION_MINOR_DT)
  56:Lib/AI_Runtime/Npu/ll_aton/ll_aton.c **** 
  57:Lib/AI_Runtime/Npu/ll_aton/ll_aton.c **** /** @defgroup Simple watchdog management functions.
  58:Lib/AI_Runtime/Npu/ll_aton/ll_aton.c ****  *  Used to exit from LL_Streng_Wait() in case epoch locks
  59:Lib/AI_Runtime/Npu/ll_aton/ll_aton.c ****  * @{
  60:Lib/AI_Runtime/Npu/ll_aton/ll_aton.c ****  */
  61:Lib/AI_Runtime/Npu/ll_aton/ll_aton.c **** 
  62:Lib/AI_Runtime/Npu/ll_aton/ll_aton.c **** static inline void ll_aton_static_checks(void)
  63:Lib/AI_Runtime/Npu/ll_aton/ll_aton.c **** {
 144              		.loc 1 63 1
 145              		.cfi_startproc
 146              		@ args = 0, pretend = 0, frame = 0
 147              		@ frame_needed = 1, uses_anonymous_args = 0
 148 0000 80B5     		push	{r7, lr}
 149              		.cfi_def_cfa_offset 8
 150              		.cfi_offset 7, -8
 151              		.cfi_offset 14, -4
 152 0002 82B0     		sub	sp, sp, #8
 153              		.cfi_def_cfa_offset 16
 154 0004 02AF     		add	r7, sp, #8
 155              		.cfi_def_cfa 7, 8
  64:Lib/AI_Runtime/Npu/ll_aton/ll_aton.c ****   static char done = 0;
  65:Lib/AI_Runtime/Npu/ll_aton/ll_aton.c **** 
  66:Lib/AI_Runtime/Npu/ll_aton/ll_aton.c ****   if (done != 0)
 156              		.loc 1 66 12
 157 0006 274B     		ldr	r3, .L11
 158 0008 1B78     		ldrb	r3, [r3]	@ zero_extendqisi2
 159              		.loc 1 66 6
 160 000a 002B     		cmp	r3, #0
 161 000c 46D1     		bne	.L10
  67:Lib/AI_Runtime/Npu/ll_aton/ll_aton.c ****     return;
  68:Lib/AI_Runtime/Npu/ll_aton/ll_aton.c ****   done = 1;
 162              		.loc 1 68 8
 163 000e 254B     		ldr	r3, .L11
 164 0010 0122     		movs	r2, #1
 165 0012 1A70     		strb	r2, [r3]
  69:Lib/AI_Runtime/Npu/ll_aton/ll_aton.c **** 
  70:Lib/AI_Runtime/Npu/ll_aton/ll_aton.c **** #define ASSERT_ATONN_SRCPORT(S, J, U, I, P)                                                        
  71:Lib/AI_Runtime/Npu/ll_aton/ll_aton.c ****   LL_ATON_ASSERT(ATONN_CONST_SRCPORT(S, J, U, I, P) == __atonn_getSrcPortID(S, J, U, I, P))
  72:Lib/AI_Runtime/Npu/ll_aton/ll_aton.c **** #define ASSERT_ATONN_DSTPORT(S, J, U, I, P)                                                        
  73:Lib/AI_Runtime/Npu/ll_aton/ll_aton.c ****   LL_ATON_ASSERT(ATONN_CONST_DSTPORT(S, J, U, I, P) == __atonn_getDstPortID(S, J, U, I, P))
ARM GAS  /tmp/ccxZaNgH.s 			page 16


  74:Lib/AI_Runtime/Npu/ll_aton/ll_aton.c **** 
  75:Lib/AI_Runtime/Npu/ll_aton/ll_aton.c **** #if ATON_STRENG_NUM > 1
  76:Lib/AI_Runtime/Npu/ll_aton/ll_aton.c ****   ASSERT_ATONN_SRCPORT(STRSWITCH, 0, STRENG, 1, 0);
 166              		.loc 1 76 3
 167 0014 0023     		movs	r3, #0
 168 0016 0093     		str	r3, [sp]
 169 0018 0123     		movs	r3, #1
 170 001a 0022     		movs	r2, #0
 171 001c 0021     		movs	r1, #0
 172 001e 0020     		movs	r0, #0
 173 0020 FFF7FEFF 		bl	__atonn_getSrcPortID
 174 0024 0346     		mov	r3, r0
 175              		.loc 1 76 3 is_stmt 0 discriminator 1
 176 0026 012B     		cmp	r3, #1
 177 0028 05D0     		beq	.L7
 178 002a 1F4B     		ldr	r3, .L11+4
 179 002c 1F4A     		ldr	r2, .L11+8
 180 002e 4C21     		movs	r1, #76
 181 0030 1F48     		ldr	r0, .L11+12
 182 0032 FFF7FEFF 		bl	__assert_func
 183              	.L7:
  77:Lib/AI_Runtime/Npu/ll_aton/ll_aton.c ****   ASSERT_ATONN_DSTPORT(STRSWITCH, 0, STRENG, 1, 0);
 184              		.loc 1 77 3 is_stmt 1
 185 0036 0023     		movs	r3, #0
 186 0038 0093     		str	r3, [sp]
 187 003a 0123     		movs	r3, #1
 188 003c 0022     		movs	r2, #0
 189 003e 0021     		movs	r1, #0
 190 0040 0020     		movs	r0, #0
 191 0042 FFF7FEFF 		bl	__atonn_getDstPortID
 192 0046 0346     		mov	r3, r0
 193              		.loc 1 77 3 is_stmt 0 discriminator 1
 194 0048 0C2B     		cmp	r3, #12
 195 004a 05D0     		beq	.L8
 196 004c 194B     		ldr	r3, .L11+16
 197 004e 174A     		ldr	r2, .L11+8
 198 0050 4D21     		movs	r1, #77
 199 0052 1748     		ldr	r0, .L11+12
 200 0054 FFF7FEFF 		bl	__assert_func
 201              	.L8:
  78:Lib/AI_Runtime/Npu/ll_aton/ll_aton.c **** #endif
  79:Lib/AI_Runtime/Npu/ll_aton/ll_aton.c **** #if ATON_STRENG_NUM > 2
  80:Lib/AI_Runtime/Npu/ll_aton/ll_aton.c ****   ASSERT_ATONN_SRCPORT(STRSWITCH, 0, STRENG, 2, 0);
 202              		.loc 1 80 3 is_stmt 1
 203 0058 0023     		movs	r3, #0
 204 005a 0093     		str	r3, [sp]
 205 005c 0223     		movs	r3, #2
 206 005e 0022     		movs	r2, #0
 207 0060 0021     		movs	r1, #0
 208 0062 0020     		movs	r0, #0
 209 0064 FFF7FEFF 		bl	__atonn_getSrcPortID
 210 0068 0346     		mov	r3, r0
 211              		.loc 1 80 3 is_stmt 0 discriminator 1
 212 006a 022B     		cmp	r3, #2
 213 006c 05D0     		beq	.L9
 214 006e 124B     		ldr	r3, .L11+20
 215 0070 0E4A     		ldr	r2, .L11+8
ARM GAS  /tmp/ccxZaNgH.s 			page 17


 216 0072 5021     		movs	r1, #80
 217 0074 0E48     		ldr	r0, .L11+12
 218 0076 FFF7FEFF 		bl	__assert_func
 219              	.L9:
  81:Lib/AI_Runtime/Npu/ll_aton/ll_aton.c ****   ASSERT_ATONN_DSTPORT(STRSWITCH, 0, STRENG, 2, 0);
 220              		.loc 1 81 3 is_stmt 1
 221 007a 0023     		movs	r3, #0
 222 007c 0093     		str	r3, [sp]
 223 007e 0223     		movs	r3, #2
 224 0080 0022     		movs	r2, #0
 225 0082 0021     		movs	r1, #0
 226 0084 0020     		movs	r0, #0
 227 0086 FFF7FEFF 		bl	__atonn_getDstPortID
 228 008a 0346     		mov	r3, r0
 229              		.loc 1 81 3 is_stmt 0 discriminator 1
 230 008c 102B     		cmp	r3, #16
 231 008e 06D0     		beq	.L4
 232 0090 0A4B     		ldr	r3, .L11+24
 233 0092 064A     		ldr	r2, .L11+8
 234 0094 5121     		movs	r1, #81
 235 0096 0648     		ldr	r0, .L11+12
 236 0098 FFF7FEFF 		bl	__assert_func
 237              	.L10:
  67:Lib/AI_Runtime/Npu/ll_aton/ll_aton.c ****   done = 1;
 238              		.loc 1 67 5 is_stmt 1
 239 009c 00BF     		nop
 240              	.L4:
  82:Lib/AI_Runtime/Npu/ll_aton/ll_aton.c **** #endif
  83:Lib/AI_Runtime/Npu/ll_aton/ll_aton.c **** 
  84:Lib/AI_Runtime/Npu/ll_aton/ll_aton.c **** #if (LL_ATON_PLATFORM == LL_ATON_PLAT_EC_TRACE)
  85:Lib/AI_Runtime/Npu/ll_aton/ll_aton.c **** 
  86:Lib/AI_Runtime/Npu/ll_aton/ll_aton.c **** #if ATON_CONVACC_NUM > 1
  87:Lib/AI_Runtime/Npu/ll_aton/ll_aton.c ****   ASSERT_ATONN_SRCPORT(STRSWITCH, 0, CONVACC, 1, 0);
  88:Lib/AI_Runtime/Npu/ll_aton/ll_aton.c ****   ASSERT_ATONN_DSTPORT(STRSWITCH, 0, CONVACC, 1, 0);
  89:Lib/AI_Runtime/Npu/ll_aton/ll_aton.c ****   ASSERT_ATONN_DSTPORT(STRSWITCH, 0, CONVACC, 1, 1);
  90:Lib/AI_Runtime/Npu/ll_aton/ll_aton.c ****   ASSERT_ATONN_DSTPORT(STRSWITCH, 0, CONVACC, 1, 2);
  91:Lib/AI_Runtime/Npu/ll_aton/ll_aton.c **** #endif
  92:Lib/AI_Runtime/Npu/ll_aton/ll_aton.c **** 
  93:Lib/AI_Runtime/Npu/ll_aton/ll_aton.c **** #if ATON_CONVACC_NUM > 2
  94:Lib/AI_Runtime/Npu/ll_aton/ll_aton.c ****   ASSERT_ATONN_SRCPORT(STRSWITCH, 0, CONVACC, 2, 0);
  95:Lib/AI_Runtime/Npu/ll_aton/ll_aton.c ****   ASSERT_ATONN_DSTPORT(STRSWITCH, 0, CONVACC, 2, 0);
  96:Lib/AI_Runtime/Npu/ll_aton/ll_aton.c ****   ASSERT_ATONN_DSTPORT(STRSWITCH, 0, CONVACC, 2, 1);
  97:Lib/AI_Runtime/Npu/ll_aton/ll_aton.c ****   ASSERT_ATONN_DSTPORT(STRSWITCH, 0, CONVACC, 2, 2);
  98:Lib/AI_Runtime/Npu/ll_aton/ll_aton.c **** #endif
  99:Lib/AI_Runtime/Npu/ll_aton/ll_aton.c **** 
 100:Lib/AI_Runtime/Npu/ll_aton/ll_aton.c **** #if ATON_POOL_NUM > 1
 101:Lib/AI_Runtime/Npu/ll_aton/ll_aton.c ****   ASSERT_ATONN_SRCPORT(STRSWITCH, 0, POOL, 1, 0);
 102:Lib/AI_Runtime/Npu/ll_aton/ll_aton.c ****   ASSERT_ATONN_DSTPORT(STRSWITCH, 0, POOL, 1, 0);
 103:Lib/AI_Runtime/Npu/ll_aton/ll_aton.c **** #endif
 104:Lib/AI_Runtime/Npu/ll_aton/ll_aton.c **** 
 105:Lib/AI_Runtime/Npu/ll_aton/ll_aton.c **** #if ATON_ARITH_NUM > 1
 106:Lib/AI_Runtime/Npu/ll_aton/ll_aton.c ****   ASSERT_ATONN_SRCPORT(STRSWITCH, 0, ARITH, 1, 0);
 107:Lib/AI_Runtime/Npu/ll_aton/ll_aton.c ****   ASSERT_ATONN_DSTPORT(STRSWITCH, 0, ARITH, 1, 0);
 108:Lib/AI_Runtime/Npu/ll_aton/ll_aton.c ****   ASSERT_ATONN_DSTPORT(STRSWITCH, 0, ARITH, 1, 1);
 109:Lib/AI_Runtime/Npu/ll_aton/ll_aton.c **** #endif
 110:Lib/AI_Runtime/Npu/ll_aton/ll_aton.c **** 
 111:Lib/AI_Runtime/Npu/ll_aton/ll_aton.c **** #if ATON_ACTIV_NUM > 1
ARM GAS  /tmp/ccxZaNgH.s 			page 18


 112:Lib/AI_Runtime/Npu/ll_aton/ll_aton.c ****   ASSERT_ATONN_SRCPORT(STRSWITCH, 0, ACTIV, 1, 0);
 113:Lib/AI_Runtime/Npu/ll_aton/ll_aton.c ****   ASSERT_ATONN_DSTPORT(STRSWITCH, 0, ACTIV, 1, 0);
 114:Lib/AI_Runtime/Npu/ll_aton/ll_aton.c **** #endif
 115:Lib/AI_Runtime/Npu/ll_aton/ll_aton.c **** 
 116:Lib/AI_Runtime/Npu/ll_aton/ll_aton.c **** #if ATON_DECUN_NUM > 1
 117:Lib/AI_Runtime/Npu/ll_aton/ll_aton.c ****   ASSERT_ATONN_SRCPORT(STRSWITCH, 0, DECUN, 1, 0);
 118:Lib/AI_Runtime/Npu/ll_aton/ll_aton.c ****   ASSERT_ATONN_DSTPORT(STRSWITCH, 0, DECUN, 1, 0);
 119:Lib/AI_Runtime/Npu/ll_aton/ll_aton.c ****   ASSERT_ATONN_DSTPORT(STRSWITCH, 0, DECUN, 1, 1);
 120:Lib/AI_Runtime/Npu/ll_aton/ll_aton.c **** #endif
 121:Lib/AI_Runtime/Npu/ll_aton/ll_aton.c **** 
 122:Lib/AI_Runtime/Npu/ll_aton/ll_aton.c **** #endif // (LL_ATON_PLATFORM == LL_ATON_PLAT_EC_TRACE)
 123:Lib/AI_Runtime/Npu/ll_aton/ll_aton.c **** 
 124:Lib/AI_Runtime/Npu/ll_aton/ll_aton.c **** #undef ASSERT_ATONN_SRCPORT
 125:Lib/AI_Runtime/Npu/ll_aton/ll_aton.c **** #undef ASSERT_ATONN_DSTPORT
 126:Lib/AI_Runtime/Npu/ll_aton/ll_aton.c **** }
 241              		.loc 1 126 1
 242 009e BD46     		mov	sp, r7
 243              		.cfi_def_cfa_register 13
 244              		@ sp needed
 245 00a0 80BD     		pop	{r7, pc}
 246              	.L12:
 247 00a2 00BF     		.align	2
 248              	.L11:
 249 00a4 00000000 		.word	done.9
 250 00a8 00000000 		.word	.LC3
 251 00ac 00000000 		.word	__func__.8
 252 00b0 3C000000 		.word	.LC4
 253 00b4 64000000 		.word	.LC5
 254 00b8 B0000000 		.word	.LC6
 255 00bc EC000000 		.word	.LC7
 256              		.cfi_endproc
 257              	.LFE4820:
 259              		.section	.text.LL_Address_Physical2Virtual,"ax",%progbits
 260              		.align	1
 261              		.global	LL_Address_Physical2Virtual
 262              		.syntax unified
 263              		.thumb
 264              		.thumb_func
 266              	LL_Address_Physical2Virtual:
 267              	.LFB4821:
 127:Lib/AI_Runtime/Npu/ll_aton/ll_aton.c **** 
 128:Lib/AI_Runtime/Npu/ll_aton/ll_aton.c **** unsigned char *LL_Address_Physical2Virtual(unsigned char *address)
 129:Lib/AI_Runtime/Npu/ll_aton/ll_aton.c **** {
 268              		.loc 1 129 1
 269              		.cfi_startproc
 270              		@ args = 0, pretend = 0, frame = 8
 271              		@ frame_needed = 1, uses_anonymous_args = 0
 272              		@ link register save eliminated.
 273 0000 80B4     		push	{r7}
 274              		.cfi_def_cfa_offset 4
 275              		.cfi_offset 7, -4
 276 0002 83B0     		sub	sp, sp, #12
 277              		.cfi_def_cfa_offset 16
 278 0004 00AF     		add	r7, sp, #0
 279              		.cfi_def_cfa_register 7
 280 0006 7860     		str	r0, [r7, #4]
 130:Lib/AI_Runtime/Npu/ll_aton/ll_aton.c ****   return ATON_LIB_PHYSICAL_TO_VIRTUAL_ADDR(address);
ARM GAS  /tmp/ccxZaNgH.s 			page 19


 281              		.loc 1 130 10
 282 0008 7B68     		ldr	r3, [r7, #4]
 131:Lib/AI_Runtime/Npu/ll_aton/ll_aton.c **** }
 283              		.loc 1 131 1
 284 000a 1846     		mov	r0, r3
 285 000c 0C37     		adds	r7, r7, #12
 286              		.cfi_def_cfa_offset 4
 287 000e BD46     		mov	sp, r7
 288              		.cfi_def_cfa_register 13
 289              		@ sp needed
 290 0010 5DF8047B 		ldr	r7, [sp], #4
 291              		.cfi_restore 7
 292              		.cfi_def_cfa_offset 0
 293 0014 7047     		bx	lr
 294              		.cfi_endproc
 295              	.LFE4821:
 297              		.section	.text.LL_Address_Virtual2Physical,"ax",%progbits
 298              		.align	1
 299              		.global	LL_Address_Virtual2Physical
 300              		.syntax unified
 301              		.thumb
 302              		.thumb_func
 304              	LL_Address_Virtual2Physical:
 305              	.LFB4822:
 132:Lib/AI_Runtime/Npu/ll_aton/ll_aton.c **** 
 133:Lib/AI_Runtime/Npu/ll_aton/ll_aton.c **** unsigned char *LL_Address_Virtual2Physical(unsigned char *address)
 134:Lib/AI_Runtime/Npu/ll_aton/ll_aton.c **** {
 306              		.loc 1 134 1
 307              		.cfi_startproc
 308              		@ args = 0, pretend = 0, frame = 8
 309              		@ frame_needed = 1, uses_anonymous_args = 0
 310              		@ link register save eliminated.
 311 0000 80B4     		push	{r7}
 312              		.cfi_def_cfa_offset 4
 313              		.cfi_offset 7, -4
 314 0002 83B0     		sub	sp, sp, #12
 315              		.cfi_def_cfa_offset 16
 316 0004 00AF     		add	r7, sp, #0
 317              		.cfi_def_cfa_register 7
 318 0006 7860     		str	r0, [r7, #4]
 135:Lib/AI_Runtime/Npu/ll_aton/ll_aton.c ****   return ATON_LIB_VIRTUAL_TO_PHYSICAL_ADDR(address);
 319              		.loc 1 135 10
 320 0008 7B68     		ldr	r3, [r7, #4]
 136:Lib/AI_Runtime/Npu/ll_aton/ll_aton.c **** }
 321              		.loc 1 136 1
 322 000a 1846     		mov	r0, r3
 323 000c 0C37     		adds	r7, r7, #12
 324              		.cfi_def_cfa_offset 4
 325 000e BD46     		mov	sp, r7
 326              		.cfi_def_cfa_register 13
 327              		@ sp needed
 328 0010 5DF8047B 		ldr	r7, [sp], #4
 329              		.cfi_restore 7
 330              		.cfi_def_cfa_offset 0
 331 0014 7047     		bx	lr
 332              		.cfi_endproc
 333              	.LFE4822:
ARM GAS  /tmp/ccxZaNgH.s 			page 20


 335              		.section	.text.startWatchdog,"ax",%progbits
 336              		.align	1
 337              		.weak	startWatchdog
 338              		.syntax unified
 339              		.thumb
 340              		.thumb_func
 342              	startWatchdog:
 343              	.LFB4823:
 137:Lib/AI_Runtime/Npu/ll_aton/ll_aton.c **** 
 138:Lib/AI_Runtime/Npu/ll_aton/ll_aton.c **** /**
 139:Lib/AI_Runtime/Npu/ll_aton/ll_aton.c ****  * @brief Starts watchdog
 140:Lib/AI_Runtime/Npu/ll_aton/ll_aton.c ****  * @param timeout Watchdog timeout in cycles
 141:Lib/AI_Runtime/Npu/ll_aton/ll_aton.c ****  * @retval ATON Error code
 142:Lib/AI_Runtime/Npu/ll_aton/ll_aton.c ****  */
 143:Lib/AI_Runtime/Npu/ll_aton/ll_aton.c **** LL_ATON_WEAK int startWatchdog(uint32_t timeout)
 144:Lib/AI_Runtime/Npu/ll_aton/ll_aton.c **** {
 344              		.loc 1 144 1
 345              		.cfi_startproc
 346              		@ args = 0, pretend = 0, frame = 8
 347              		@ frame_needed = 1, uses_anonymous_args = 0
 348              		@ link register save eliminated.
 349 0000 80B4     		push	{r7}
 350              		.cfi_def_cfa_offset 4
 351              		.cfi_offset 7, -4
 352 0002 83B0     		sub	sp, sp, #12
 353              		.cfi_def_cfa_offset 16
 354 0004 00AF     		add	r7, sp, #0
 355              		.cfi_def_cfa_register 7
 356 0006 7860     		str	r0, [r7, #4]
 145:Lib/AI_Runtime/Npu/ll_aton/ll_aton.c ****   (void)timeout;
 146:Lib/AI_Runtime/Npu/ll_aton/ll_aton.c **** 
 147:Lib/AI_Runtime/Npu/ll_aton/ll_aton.c ****   return 0;
 357              		.loc 1 147 10
 358 0008 0023     		movs	r3, #0
 148:Lib/AI_Runtime/Npu/ll_aton/ll_aton.c **** }
 359              		.loc 1 148 1
 360 000a 1846     		mov	r0, r3
 361 000c 0C37     		adds	r7, r7, #12
 362              		.cfi_def_cfa_offset 4
 363 000e BD46     		mov	sp, r7
 364              		.cfi_def_cfa_register 13
 365              		@ sp needed
 366 0010 5DF8047B 		ldr	r7, [sp], #4
 367              		.cfi_restore 7
 368              		.cfi_def_cfa_offset 0
 369 0014 7047     		bx	lr
 370              		.cfi_endproc
 371              	.LFE4823:
 373              		.section	.text.checkWatchdog,"ax",%progbits
 374              		.align	1
 375              		.weak	checkWatchdog
 376              		.syntax unified
 377              		.thumb
 378              		.thumb_func
 380              	checkWatchdog:
 381              	.LFB4824:
 149:Lib/AI_Runtime/Npu/ll_aton/ll_aton.c **** 
ARM GAS  /tmp/ccxZaNgH.s 			page 21


 150:Lib/AI_Runtime/Npu/ll_aton/ll_aton.c **** /**
 151:Lib/AI_Runtime/Npu/ll_aton/ll_aton.c ****  * @brief Checkes whether watchdog has expired or not
 152:Lib/AI_Runtime/Npu/ll_aton/ll_aton.c ****  * @retval ATON Error code
 153:Lib/AI_Runtime/Npu/ll_aton/ll_aton.c ****  */
 154:Lib/AI_Runtime/Npu/ll_aton/ll_aton.c **** LL_ATON_WEAK int checkWatchdog(void)
 155:Lib/AI_Runtime/Npu/ll_aton/ll_aton.c **** {
 382              		.loc 1 155 1
 383              		.cfi_startproc
 384              		@ args = 0, pretend = 0, frame = 0
 385              		@ frame_needed = 1, uses_anonymous_args = 0
 386              		@ link register save eliminated.
 387 0000 80B4     		push	{r7}
 388              		.cfi_def_cfa_offset 4
 389              		.cfi_offset 7, -4
 390 0002 00AF     		add	r7, sp, #0
 391              		.cfi_def_cfa_register 7
 156:Lib/AI_Runtime/Npu/ll_aton/ll_aton.c ****   return 0;
 392              		.loc 1 156 10
 393 0004 0023     		movs	r3, #0
 157:Lib/AI_Runtime/Npu/ll_aton/ll_aton.c **** }
 394              		.loc 1 157 1
 395 0006 1846     		mov	r0, r3
 396 0008 BD46     		mov	sp, r7
 397              		.cfi_def_cfa_register 13
 398              		@ sp needed
 399 000a 5DF8047B 		ldr	r7, [sp], #4
 400              		.cfi_restore 7
 401              		.cfi_def_cfa_offset 0
 402 000e 7047     		bx	lr
 403              		.cfi_endproc
 404              	.LFE4824:
 406              		.section	.rodata
 407 0135 000000   		.align	2
 408              	.LC8:
 409 0138 4E6F6E65 		.ascii	"None\000"
 409      00
 410 013d 000000   		.align	2
 411              	.LC9:
 412 0140 5B455252 		.ascii	"[ERROR] (%s:%d: errno: %s) %s unit ver mismatch: RT"
 412      4F525D20 
 412      2825733A 
 412      25643A20 
 412      6572726E 
 413 0173 4C3A743D 		.ascii	"L:t=%lu,ver=%lu.%lu  ATON.h:t=%lu,ver=%lu.%lu\012\015"
 413      256C752C 
 413      7665723D 
 413      256C752E 
 413      256C7520 
 414 01a2 0A00     		.ascii	"\012\000"
 415              		.align	2
 416              	.LC10:
 417 01a4 53545245 		.ascii	"STRENG\000"
 417      4E4700
 418 01ab 00       		.align	2
 419              	.LC11:
 420 01ac 3000     		.ascii	"0\000"
 421 01ae 0000     		.align	2
ARM GAS  /tmp/ccxZaNgH.s 			page 22


 422              	.LC12:
 423 01b0 434F4E56 		.ascii	"CONVACC\000"
 423      41434300 
 424              		.align	2
 425              	.LC13:
 426 01b8 504F4F4C 		.ascii	"POOL\000"
 426      00
 427 01bd 000000   		.align	2
 428              	.LC14:
 429 01c0 41524954 		.ascii	"ARITH\000"
 429      4800
 430 01c6 0000     		.align	2
 431              	.LC15:
 432 01c8 41435449 		.ascii	"ACTIV\000"
 432      5600
 433 01ce 0000     		.align	2
 434              	.LC16:
 435 01d0 44454355 		.ascii	"DECUN\000"
 435      4E00
 436 01d6 0000     		.align	2
 437              	.LC17:
 438 01d8 45504F43 		.ascii	"EPOCHCTRL\000"
 438      48435452 
 438      4C00
 439 01e2 0000     		.align	2
 440              	.LC18:
 441 01e4 52454342 		.ascii	"RECBUF\000"
 441      554600
 442 01eb 00       		.align	2
 443              	.LC19:
 444 01ec 434C4B43 		.ascii	"CLKCTRL\000"
 444      54524C00 
 445              		.align	2
 446              	.LC20:
 447 01f4 494E5443 		.ascii	"INTCTRL\000"
 447      54524C00 
 448              		.align	2
 449              	.LC21:
 450 01fc 53545253 		.ascii	"STRSWITCH\000"
 450      57495443 
 450      4800
 451 0206 0000     		.align	2
 452              	.LC22:
 453 0208 42555349 		.ascii	"BUSIF\000"
 453      4600
 454              		.section	.text.LL_ATON_Init,"ax",%progbits
 455              		.align	1
 456              		.global	LL_ATON_Init
 457              		.syntax unified
 458              		.thumb
 459              		.thumb_func
 461              	LL_ATON_Init:
 462              	.LFB4825:
 158:Lib/AI_Runtime/Npu/ll_aton/ll_aton.c **** 
 159:Lib/AI_Runtime/Npu/ll_aton/ll_aton.c **** /**
 160:Lib/AI_Runtime/Npu/ll_aton/ll_aton.c ****  * @}
 161:Lib/AI_Runtime/Npu/ll_aton/ll_aton.c ****  */
ARM GAS  /tmp/ccxZaNgH.s 			page 23


 162:Lib/AI_Runtime/Npu/ll_aton/ll_aton.c **** 
 163:Lib/AI_Runtime/Npu/ll_aton/ll_aton.c **** /**
 164:Lib/AI_Runtime/Npu/ll_aton/ll_aton.c ****  * @brief  ATON global initialization. Initializes clocks and bus interfaces. Must be called before
 165:Lib/AI_Runtime/Npu/ll_aton/ll_aton.c ****  * @retval Always zero
 166:Lib/AI_Runtime/Npu/ll_aton/ll_aton.c ****  */
 167:Lib/AI_Runtime/Npu/ll_aton/ll_aton.c **** int LL_ATON_Init(void)
 168:Lib/AI_Runtime/Npu/ll_aton/ll_aton.c **** {
 463              		.loc 1 168 1
 464              		.cfi_startproc
 465              		@ args = 0, pretend = 0, frame = 8
 466              		@ frame_needed = 1, uses_anonymous_args = 0
 467 0000 90B5     		push	{r4, r7, lr}
 468              		.cfi_def_cfa_offset 12
 469              		.cfi_offset 4, -12
 470              		.cfi_offset 7, -8
 471              		.cfi_offset 14, -4
 472 0002 8BB0     		sub	sp, sp, #44
 473              		.cfi_def_cfa_offset 56
 474 0004 08AF     		add	r7, sp, #32
 475              		.cfi_def_cfa 7, 24
 169:Lib/AI_Runtime/Npu/ll_aton/ll_aton.c ****   uint32_t t;
 170:Lib/AI_Runtime/Npu/ll_aton/ll_aton.c ****   int i;
 171:Lib/AI_Runtime/Npu/ll_aton/ll_aton.c **** 
 172:Lib/AI_Runtime/Npu/ll_aton/ll_aton.c ****   ll_aton_static_checks();
 476              		.loc 1 172 3
 477 0006 FFF7FEFF 		bl	ll_aton_static_checks
 173:Lib/AI_Runtime/Npu/ll_aton/ll_aton.c **** 
 174:Lib/AI_Runtime/Npu/ll_aton/ll_aton.c ****   /* Clear pipeline */
 175:Lib/AI_Runtime/Npu/ll_aton/ll_aton.c ****   t = ATON_CLKCTRL_CTRL_GET(0);
 478              		.loc 1 175 7
 479 000a 974B     		ldr	r3, .L74
 480              		.loc 1 175 5
 481 000c 1B68     		ldr	r3, [r3]
 482 000e 7B60     		str	r3, [r7, #4]
 176:Lib/AI_Runtime/Npu/ll_aton/ll_aton.c ****   t = ATON_CLKCTRL_CTRL_SET_CLR(t, 1);
 483              		.loc 1 176 5
 484 0010 7B68     		ldr	r3, [r7, #4]
 485 0012 43F00203 		orr	r3, r3, #2
 486 0016 7B60     		str	r3, [r7, #4]
 177:Lib/AI_Runtime/Npu/ll_aton/ll_aton.c ****   ATON_CLKCTRL_CTRL_SET(0, t);
 487              		.loc 1 177 3
 488 0018 934A     		ldr	r2, .L74
 489 001a 7B68     		ldr	r3, [r7, #4]
 490 001c 1360     		str	r3, [r2]
 178:Lib/AI_Runtime/Npu/ll_aton/ll_aton.c **** 
 179:Lib/AI_Runtime/Npu/ll_aton/ll_aton.c ****   /* Enable all ATON clocks */
 180:Lib/AI_Runtime/Npu/ll_aton/ll_aton.c ****   ATON_CLKCTRL_CTRL_SET(0, 1);
 491              		.loc 1 180 3
 492 001e 924B     		ldr	r3, .L74
 493 0020 0122     		movs	r2, #1
 494 0022 1A60     		str	r2, [r3]
 181:Lib/AI_Runtime/Npu/ll_aton/ll_aton.c ****   ATON_CLKCTRL_AGATES0_SET(0, 0xffffffff);
 495              		.loc 1 181 3
 496 0024 914B     		ldr	r3, .L74+4
 497 0026 4FF0FF32 		mov	r2, #-1
 498 002a 1A60     		str	r2, [r3]
 182:Lib/AI_Runtime/Npu/ll_aton/ll_aton.c ****   ATON_CLKCTRL_AGATES1_SET(0, 0xffffffff);
ARM GAS  /tmp/ccxZaNgH.s 			page 24


 499              		.loc 1 182 3
 500 002c 904B     		ldr	r3, .L74+8
 501 002e 4FF0FF32 		mov	r2, #-1
 502 0032 1A60     		str	r2, [r3]
 183:Lib/AI_Runtime/Npu/ll_aton/ll_aton.c **** 
 184:Lib/AI_Runtime/Npu/ll_aton/ll_aton.c **** #if (LL_ATON_ENABLE_CLOCK_GATING == 1)
 185:Lib/AI_Runtime/Npu/ll_aton/ll_aton.c **** #if (LL_ATON_PLATFORM == LL_ATON_PLAT_EC_TRACE)
 186:Lib/AI_Runtime/Npu/ll_aton/ll_aton.c ****   ATON_CLKCTRL_BGATES_SET(0, (1 << ATON_EPOCHCTRL_CLKB_CLK(0)));
 187:Lib/AI_Runtime/Npu/ll_aton/ll_aton.c **** #else
 188:Lib/AI_Runtime/Npu/ll_aton/ll_aton.c ****   ATON_CLKCTRL_BGATES_SET(0, 0x0);
 503              		.loc 1 188 3
 504 0034 8F4B     		ldr	r3, .L74+12
 505 0036 0022     		movs	r2, #0
 506 0038 1A60     		str	r2, [r3]
 507              	.L22:
 189:Lib/AI_Runtime/Npu/ll_aton/ll_aton.c **** #endif
 190:Lib/AI_Runtime/Npu/ll_aton/ll_aton.c **** #else
 191:Lib/AI_Runtime/Npu/ll_aton/ll_aton.c ****   ATON_CLKCTRL_BGATES_SET(0, 0xffffffff);
 192:Lib/AI_Runtime/Npu/ll_aton/ll_aton.c **** #endif
 193:Lib/AI_Runtime/Npu/ll_aton/ll_aton.c **** 
 194:Lib/AI_Runtime/Npu/ll_aton/ll_aton.c **** #ifdef ATON_CLKCTRL_BGATES1_OFFSET
 195:Lib/AI_Runtime/Npu/ll_aton/ll_aton.c ****   ATON_CLKCTRL_BGATES1_SET(0, 0xffffffff);
 196:Lib/AI_Runtime/Npu/ll_aton/ll_aton.c **** #endif
 197:Lib/AI_Runtime/Npu/ll_aton/ll_aton.c **** 
 198:Lib/AI_Runtime/Npu/ll_aton/ll_aton.c ****   /* Check that RTL and ATON.h match. Only check first unit */
 199:Lib/AI_Runtime/Npu/ll_aton/ll_aton.c ****   ASSERT_UNITS_VERS_W_MSG(STRENG, t);
 508              		.loc 1 199 3 discriminator 1
 509 003a 8F4B     		ldr	r3, .L74+16
 510 003c 1B68     		ldr	r3, [r3]
 511 003e 7B60     		str	r3, [r7, #4]
 512 0040 7B68     		ldr	r3, [r7, #4]
 513 0042 002B     		cmp	r3, #0
 514 0044 F9D0     		beq	.L22
 515              		.loc 1 199 3 is_stmt 0 discriminator 2
 516 0046 7B68     		ldr	r3, [r7, #4]
 517 0048 DBB2     		uxtb	r3, r3
 518 004a 012B     		cmp	r3, #1
 519 004c 0AD1     		bne	.L23
 520              		.loc 1 199 3 discriminator 4
 521 004e 7B68     		ldr	r3, [r7, #4]
 522 0050 03F47043 		and	r3, r3, #61440
 523 0054 B3F5A04F 		cmp	r3, #20480
 524 0058 04D1     		bne	.L23
 525              		.loc 1 199 3 discriminator 6
 526 005a 7B68     		ldr	r3, [r7, #4]
 527 005c 03F47063 		and	r3, r3, #3840
 528 0060 002B     		cmp	r3, #0
 529 0062 2FD0     		beq	.L24
 530              	.L23:
 531              		.loc 1 199 3 discriminator 7
 532 0064 FFF7FEFF 		bl	__errno
 533 0068 0346     		mov	r3, r0
 534              		.loc 1 199 3 discriminator 1
 535 006a 1B68     		ldr	r3, [r3]
 536 006c 002B     		cmp	r3, #0
 537 006e 08D0     		beq	.L25
 538              		.loc 1 199 3 discriminator 8
ARM GAS  /tmp/ccxZaNgH.s 			page 25


 539 0070 FFF7FEFF 		bl	__errno
 540 0074 0346     		mov	r3, r0
 541              		.loc 1 199 3 discriminator 1
 542 0076 1B68     		ldr	r3, [r3]
 543 0078 1846     		mov	r0, r3
 544 007a FFF7FEFF 		bl	strerror
 545 007e 0346     		mov	r3, r0
 546 0080 00E0     		b	.L26
 547              	.L25:
 548              		.loc 1 199 3 discriminator 9
 549 0082 7E4B     		ldr	r3, .L74+20
 550              	.L26:
 551              		.loc 1 199 3 discriminator 11
 552 0084 7A68     		ldr	r2, [r7, #4]
 553 0086 D2B2     		uxtb	r2, r2
 554 0088 7968     		ldr	r1, [r7, #4]
 555 008a 090B     		lsrs	r1, r1, #12
 556 008c 01F00F01 		and	r1, r1, #15
 557 0090 7868     		ldr	r0, [r7, #4]
 558 0092 000A     		lsrs	r0, r0, #8
 559 0094 00F00F00 		and	r0, r0, #15
 560 0098 0024     		movs	r4, #0
 561 009a 0694     		str	r4, [sp, #24]
 562 009c 0524     		movs	r4, #5
 563 009e 0594     		str	r4, [sp, #20]
 564 00a0 0124     		movs	r4, #1
 565 00a2 0494     		str	r4, [sp, #16]
 566 00a4 0390     		str	r0, [sp, #12]
 567 00a6 0291     		str	r1, [sp, #8]
 568 00a8 0192     		str	r2, [sp, #4]
 569 00aa 754A     		ldr	r2, .L74+24
 570 00ac 0092     		str	r2, [sp]
 571 00ae C722     		movs	r2, #199
 572 00b0 7449     		ldr	r1, .L74+28
 573 00b2 7548     		ldr	r0, .L74+32
 574 00b4 FFF7FEFF 		bl	printf
 575              		.loc 1 199 3 discriminator 13
 576 00b8 744B     		ldr	r3, .L74+36
 577 00ba 754A     		ldr	r2, .L74+40
 578 00bc C721     		movs	r1, #199
 579 00be 7148     		ldr	r0, .L74+28
 580 00c0 FFF7FEFF 		bl	__assert_func
 581              	.L24:
 200:Lib/AI_Runtime/Npu/ll_aton/ll_aton.c **** 
 201:Lib/AI_Runtime/Npu/ll_aton/ll_aton.c **** #ifdef ATON_CONVACC_NUM
 202:Lib/AI_Runtime/Npu/ll_aton/ll_aton.c ****   ASSERT_UNITS_VERS_W_MSG(CONVACC, t);
 582              		.loc 1 202 3 is_stmt 1 discriminator 1
 583 00c4 734B     		ldr	r3, .L74+44
 584 00c6 1B68     		ldr	r3, [r3]
 585 00c8 7B60     		str	r3, [r7, #4]
 586 00ca 7B68     		ldr	r3, [r7, #4]
 587 00cc 002B     		cmp	r3, #0
 588 00ce F9D0     		beq	.L24
 589              		.loc 1 202 3 is_stmt 0 discriminator 2
 590 00d0 7B68     		ldr	r3, [r7, #4]
 591 00d2 DBB2     		uxtb	r3, r3
 592 00d4 172B     		cmp	r3, #23
ARM GAS  /tmp/ccxZaNgH.s 			page 26


 593 00d6 0BD1     		bne	.L27
 594              		.loc 1 202 3 discriminator 4
 595 00d8 7B68     		ldr	r3, [r7, #4]
 596 00da 03F47043 		and	r3, r3, #61440
 597 00de B3F5A04F 		cmp	r3, #20480
 598 00e2 05D1     		bne	.L27
 599              		.loc 1 202 3 discriminator 6
 600 00e4 7B68     		ldr	r3, [r7, #4]
 601 00e6 03F47063 		and	r3, r3, #3840
 602 00ea B3F5807F 		cmp	r3, #256
 603 00ee 2FD0     		beq	.L28
 604              	.L27:
 605              		.loc 1 202 3 discriminator 7
 606 00f0 FFF7FEFF 		bl	__errno
 607 00f4 0346     		mov	r3, r0
 608              		.loc 1 202 3 discriminator 1
 609 00f6 1B68     		ldr	r3, [r3]
 610 00f8 002B     		cmp	r3, #0
 611 00fa 08D0     		beq	.L29
 612              		.loc 1 202 3 discriminator 8
 613 00fc FFF7FEFF 		bl	__errno
 614 0100 0346     		mov	r3, r0
 615              		.loc 1 202 3 discriminator 1
 616 0102 1B68     		ldr	r3, [r3]
 617 0104 1846     		mov	r0, r3
 618 0106 FFF7FEFF 		bl	strerror
 619 010a 0346     		mov	r3, r0
 620 010c 00E0     		b	.L30
 621              	.L29:
 622              		.loc 1 202 3 discriminator 9
 623 010e 5B4B     		ldr	r3, .L74+20
 624              	.L30:
 625              		.loc 1 202 3 discriminator 11
 626 0110 7A68     		ldr	r2, [r7, #4]
 627 0112 D2B2     		uxtb	r2, r2
 628 0114 7968     		ldr	r1, [r7, #4]
 629 0116 090B     		lsrs	r1, r1, #12
 630 0118 01F00F01 		and	r1, r1, #15
 631 011c 7868     		ldr	r0, [r7, #4]
 632 011e 000A     		lsrs	r0, r0, #8
 633 0120 00F00F00 		and	r0, r0, #15
 634 0124 0124     		movs	r4, #1
 635 0126 0694     		str	r4, [sp, #24]
 636 0128 0524     		movs	r4, #5
 637 012a 0594     		str	r4, [sp, #20]
 638 012c 1724     		movs	r4, #23
 639 012e 0494     		str	r4, [sp, #16]
 640 0130 0390     		str	r0, [sp, #12]
 641 0132 0291     		str	r1, [sp, #8]
 642 0134 0192     		str	r2, [sp, #4]
 643 0136 584A     		ldr	r2, .L74+48
 644 0138 0092     		str	r2, [sp]
 645 013a CA22     		movs	r2, #202
 646 013c 5149     		ldr	r1, .L74+28
 647 013e 5248     		ldr	r0, .L74+32
 648 0140 FFF7FEFF 		bl	printf
 649              		.loc 1 202 3 discriminator 13
ARM GAS  /tmp/ccxZaNgH.s 			page 27


 650 0144 514B     		ldr	r3, .L74+36
 651 0146 524A     		ldr	r2, .L74+40
 652 0148 CA21     		movs	r1, #202
 653 014a 4E48     		ldr	r0, .L74+28
 654 014c FFF7FEFF 		bl	__assert_func
 655              	.L28:
 203:Lib/AI_Runtime/Npu/ll_aton/ll_aton.c **** #endif
 204:Lib/AI_Runtime/Npu/ll_aton/ll_aton.c **** 
 205:Lib/AI_Runtime/Npu/ll_aton/ll_aton.c **** #ifdef ATON_POOL_NUM
 206:Lib/AI_Runtime/Npu/ll_aton/ll_aton.c ****   ASSERT_UNITS_VERS_W_MSG(POOL, t);
 656              		.loc 1 206 3 is_stmt 1 discriminator 1
 657 0150 524B     		ldr	r3, .L74+52
 658 0152 1B68     		ldr	r3, [r3]
 659 0154 7B60     		str	r3, [r7, #4]
 660 0156 7B68     		ldr	r3, [r7, #4]
 661 0158 002B     		cmp	r3, #0
 662 015a F9D0     		beq	.L28
 663              		.loc 1 206 3 is_stmt 0 discriminator 2
 664 015c 7B68     		ldr	r3, [r7, #4]
 665 015e DBB2     		uxtb	r3, r3
 666 0160 1C2B     		cmp	r3, #28
 667 0162 0BD1     		bne	.L31
 668              		.loc 1 206 3 discriminator 4
 669 0164 7B68     		ldr	r3, [r7, #4]
 670 0166 03F47043 		and	r3, r3, #61440
 671 016a B3F5805F 		cmp	r3, #4096
 672 016e 05D1     		bne	.L31
 673              		.loc 1 206 3 discriminator 6
 674 0170 7B68     		ldr	r3, [r7, #4]
 675 0172 03F47063 		and	r3, r3, #3840
 676 0176 B3F5807F 		cmp	r3, #256
 677 017a 2FD0     		beq	.L32
 678              	.L31:
 679              		.loc 1 206 3 discriminator 7
 680 017c FFF7FEFF 		bl	__errno
 681 0180 0346     		mov	r3, r0
 682              		.loc 1 206 3 discriminator 1
 683 0182 1B68     		ldr	r3, [r3]
 684 0184 002B     		cmp	r3, #0
 685 0186 08D0     		beq	.L33
 686              		.loc 1 206 3 discriminator 8
 687 0188 FFF7FEFF 		bl	__errno
 688 018c 0346     		mov	r3, r0
 689              		.loc 1 206 3 discriminator 1
 690 018e 1B68     		ldr	r3, [r3]
 691 0190 1846     		mov	r0, r3
 692 0192 FFF7FEFF 		bl	strerror
 693 0196 0346     		mov	r3, r0
 694 0198 00E0     		b	.L34
 695              	.L33:
 696              		.loc 1 206 3 discriminator 9
 697 019a 384B     		ldr	r3, .L74+20
 698              	.L34:
 699              		.loc 1 206 3 discriminator 11
 700 019c 7A68     		ldr	r2, [r7, #4]
 701 019e D2B2     		uxtb	r2, r2
 702 01a0 7968     		ldr	r1, [r7, #4]
ARM GAS  /tmp/ccxZaNgH.s 			page 28


 703 01a2 090B     		lsrs	r1, r1, #12
 704 01a4 01F00F01 		and	r1, r1, #15
 705 01a8 7868     		ldr	r0, [r7, #4]
 706 01aa 000A     		lsrs	r0, r0, #8
 707 01ac 00F00F00 		and	r0, r0, #15
 708 01b0 0124     		movs	r4, #1
 709 01b2 0694     		str	r4, [sp, #24]
 710 01b4 0124     		movs	r4, #1
 711 01b6 0594     		str	r4, [sp, #20]
 712 01b8 1C24     		movs	r4, #28
 713 01ba 0494     		str	r4, [sp, #16]
 714 01bc 0390     		str	r0, [sp, #12]
 715 01be 0291     		str	r1, [sp, #8]
 716 01c0 0192     		str	r2, [sp, #4]
 717 01c2 374A     		ldr	r2, .L74+56
 718 01c4 0092     		str	r2, [sp]
 719 01c6 CE22     		movs	r2, #206
 720 01c8 2E49     		ldr	r1, .L74+28
 721 01ca 2F48     		ldr	r0, .L74+32
 722 01cc FFF7FEFF 		bl	printf
 723              		.loc 1 206 3 discriminator 13
 724 01d0 2E4B     		ldr	r3, .L74+36
 725 01d2 2F4A     		ldr	r2, .L74+40
 726 01d4 CE21     		movs	r1, #206
 727 01d6 2B48     		ldr	r0, .L74+28
 728 01d8 FFF7FEFF 		bl	__assert_func
 729              	.L32:
 207:Lib/AI_Runtime/Npu/ll_aton/ll_aton.c **** #endif
 208:Lib/AI_Runtime/Npu/ll_aton/ll_aton.c **** 
 209:Lib/AI_Runtime/Npu/ll_aton/ll_aton.c **** #ifdef ATON_ARITH_NUM
 210:Lib/AI_Runtime/Npu/ll_aton/ll_aton.c ****   ASSERT_UNITS_VERS_W_MSG(ARITH, t);
 730              		.loc 1 210 3 is_stmt 1 discriminator 1
 731 01dc 314B     		ldr	r3, .L74+60
 732 01de 1B68     		ldr	r3, [r3]
 733 01e0 7B60     		str	r3, [r7, #4]
 734 01e2 7B68     		ldr	r3, [r7, #4]
 735 01e4 002B     		cmp	r3, #0
 736 01e6 F9D0     		beq	.L32
 737              		.loc 1 210 3 is_stmt 0 discriminator 2
 738 01e8 7B68     		ldr	r3, [r7, #4]
 739 01ea DBB2     		uxtb	r3, r3
 740 01ec 1A2B     		cmp	r3, #26
 741 01ee 0AD1     		bne	.L35
 742              		.loc 1 210 3 discriminator 4
 743 01f0 7B68     		ldr	r3, [r7, #4]
 744 01f2 03F47043 		and	r3, r3, #61440
 745 01f6 B3F5805F 		cmp	r3, #4096
 746 01fa 04D1     		bne	.L35
 747              		.loc 1 210 3 discriminator 6
 748 01fc 7B68     		ldr	r3, [r7, #4]
 749 01fe 03F47063 		and	r3, r3, #3840
 750 0202 002B     		cmp	r3, #0
 751 0204 52D0     		beq	.L36
 752              	.L35:
 753              		.loc 1 210 3 discriminator 7
 754 0206 FFF7FEFF 		bl	__errno
 755 020a 0346     		mov	r3, r0
ARM GAS  /tmp/ccxZaNgH.s 			page 29


 756              		.loc 1 210 3 discriminator 1
 757 020c 1B68     		ldr	r3, [r3]
 758 020e 002B     		cmp	r3, #0
 759 0210 08D0     		beq	.L37
 760              		.loc 1 210 3 discriminator 8
 761 0212 FFF7FEFF 		bl	__errno
 762 0216 0346     		mov	r3, r0
 763              		.loc 1 210 3 discriminator 1
 764 0218 1B68     		ldr	r3, [r3]
 765 021a 1846     		mov	r0, r3
 766 021c FFF7FEFF 		bl	strerror
 767 0220 0346     		mov	r3, r0
 768 0222 00E0     		b	.L38
 769              	.L37:
 770              		.loc 1 210 3 discriminator 9
 771 0224 154B     		ldr	r3, .L74+20
 772              	.L38:
 773              		.loc 1 210 3 discriminator 11
 774 0226 7A68     		ldr	r2, [r7, #4]
 775 0228 D2B2     		uxtb	r2, r2
 776 022a 7968     		ldr	r1, [r7, #4]
 777 022c 090B     		lsrs	r1, r1, #12
 778 022e 01F00F01 		and	r1, r1, #15
 779 0232 7868     		ldr	r0, [r7, #4]
 780 0234 000A     		lsrs	r0, r0, #8
 781 0236 00F00F00 		and	r0, r0, #15
 782 023a 0024     		movs	r4, #0
 783 023c 0694     		str	r4, [sp, #24]
 784 023e 0124     		movs	r4, #1
 785 0240 0594     		str	r4, [sp, #20]
 786 0242 1A24     		movs	r4, #26
 787 0244 0494     		str	r4, [sp, #16]
 788 0246 0390     		str	r0, [sp, #12]
 789 0248 0291     		str	r1, [sp, #8]
 790 024a 0192     		str	r2, [sp, #4]
 791 024c 164A     		ldr	r2, .L74+64
 792 024e 0092     		str	r2, [sp]
 793 0250 D222     		movs	r2, #210
 794 0252 0C49     		ldr	r1, .L74+28
 795 0254 0C48     		ldr	r0, .L74+32
 796 0256 FFF7FEFF 		bl	printf
 797              		.loc 1 210 3 discriminator 13
 798 025a 0C4B     		ldr	r3, .L74+36
 799 025c 0C4A     		ldr	r2, .L74+40
 800 025e D221     		movs	r1, #210
 801 0260 0848     		ldr	r0, .L74+28
 802 0262 FFF7FEFF 		bl	__assert_func
 803              	.L75:
 804 0266 00BF     		.align	2
 805              	.L74:
 806 0268 00000E58 		.word	1477312512
 807 026c 08000E58 		.word	1477312520
 808 0270 0C000E58 		.word	1477312524
 809 0274 10000E58 		.word	1477312528
 810 0278 04500E58 		.word	1477332996
 811 027c 38010000 		.word	.LC8
 812 0280 A4010000 		.word	.LC10
ARM GAS  /tmp/ccxZaNgH.s 			page 30


 813 0284 3C000000 		.word	.LC4
 814 0288 40010000 		.word	.LC9
 815 028c AC010000 		.word	.LC11
 816 0290 00000000 		.word	__func__.10
 817 0294 04F00E58 		.word	1477373956
 818 0298 B0010000 		.word	.LC12
 819 029c 04B00F58 		.word	1477423108
 820 02a0 B8010000 		.word	.LC13
 821 02a4 04700F58 		.word	1477406724
 822 02a8 C0010000 		.word	.LC14
 823              	.L36:
 211:Lib/AI_Runtime/Npu/ll_aton/ll_aton.c **** #endif
 212:Lib/AI_Runtime/Npu/ll_aton/ll_aton.c **** 
 213:Lib/AI_Runtime/Npu/ll_aton/ll_aton.c **** #ifdef ATON_ACTIV_NUM
 214:Lib/AI_Runtime/Npu/ll_aton/ll_aton.c ****   ASSERT_UNITS_VERS_W_MSG(ACTIV, t);
 824              		.loc 1 214 3 is_stmt 1 discriminator 1
 825 02ac 9E4B     		ldr	r3, .L76
 826 02ae 1B68     		ldr	r3, [r3]
 827 02b0 7B60     		str	r3, [r7, #4]
 828 02b2 7B68     		ldr	r3, [r7, #4]
 829 02b4 002B     		cmp	r3, #0
 830 02b6 F9D0     		beq	.L36
 831              		.loc 1 214 3 is_stmt 0 discriminator 2
 832 02b8 7B68     		ldr	r3, [r7, #4]
 833 02ba DBB2     		uxtb	r3, r3
 834 02bc 1B2B     		cmp	r3, #27
 835 02be 0BD1     		bne	.L39
 836              		.loc 1 214 3 discriminator 4
 837 02c0 7B68     		ldr	r3, [r7, #4]
 838 02c2 03F47043 		and	r3, r3, #61440
 839 02c6 B3F5805F 		cmp	r3, #4096
 840 02ca 05D1     		bne	.L39
 841              		.loc 1 214 3 discriminator 6
 842 02cc 7B68     		ldr	r3, [r7, #4]
 843 02ce 03F47063 		and	r3, r3, #3840
 844 02d2 B3F5807F 		cmp	r3, #256
 845 02d6 2FD0     		beq	.L40
 846              	.L39:
 847              		.loc 1 214 3 discriminator 7
 848 02d8 FFF7FEFF 		bl	__errno
 849 02dc 0346     		mov	r3, r0
 850              		.loc 1 214 3 discriminator 1
 851 02de 1B68     		ldr	r3, [r3]
 852 02e0 002B     		cmp	r3, #0
 853 02e2 08D0     		beq	.L41
 854              		.loc 1 214 3 discriminator 8
 855 02e4 FFF7FEFF 		bl	__errno
 856 02e8 0346     		mov	r3, r0
 857              		.loc 1 214 3 discriminator 1
 858 02ea 1B68     		ldr	r3, [r3]
 859 02ec 1846     		mov	r0, r3
 860 02ee FFF7FEFF 		bl	strerror
 861 02f2 0346     		mov	r3, r0
 862 02f4 00E0     		b	.L42
 863              	.L41:
 864              		.loc 1 214 3 discriminator 9
 865 02f6 8D4B     		ldr	r3, .L76+4
ARM GAS  /tmp/ccxZaNgH.s 			page 31


 866              	.L42:
 867              		.loc 1 214 3 discriminator 11
 868 02f8 7A68     		ldr	r2, [r7, #4]
 869 02fa D2B2     		uxtb	r2, r2
 870 02fc 7968     		ldr	r1, [r7, #4]
 871 02fe 090B     		lsrs	r1, r1, #12
 872 0300 01F00F01 		and	r1, r1, #15
 873 0304 7868     		ldr	r0, [r7, #4]
 874 0306 000A     		lsrs	r0, r0, #8
 875 0308 00F00F00 		and	r0, r0, #15
 876 030c 0124     		movs	r4, #1
 877 030e 0694     		str	r4, [sp, #24]
 878 0310 0124     		movs	r4, #1
 879 0312 0594     		str	r4, [sp, #20]
 880 0314 1B24     		movs	r4, #27
 881 0316 0494     		str	r4, [sp, #16]
 882 0318 0390     		str	r0, [sp, #12]
 883 031a 0291     		str	r1, [sp, #8]
 884 031c 0192     		str	r2, [sp, #4]
 885 031e 844A     		ldr	r2, .L76+8
 886 0320 0092     		str	r2, [sp]
 887 0322 D622     		movs	r2, #214
 888 0324 8349     		ldr	r1, .L76+12
 889 0326 8448     		ldr	r0, .L76+16
 890 0328 FFF7FEFF 		bl	printf
 891              		.loc 1 214 3 discriminator 13
 892 032c 834B     		ldr	r3, .L76+20
 893 032e 844A     		ldr	r2, .L76+24
 894 0330 D621     		movs	r1, #214
 895 0332 8048     		ldr	r0, .L76+12
 896 0334 FFF7FEFF 		bl	__assert_func
 897              	.L40:
 215:Lib/AI_Runtime/Npu/ll_aton/ll_aton.c **** #endif
 216:Lib/AI_Runtime/Npu/ll_aton/ll_aton.c **** 
 217:Lib/AI_Runtime/Npu/ll_aton/ll_aton.c **** #ifdef ATON_DECUN_NUM
 218:Lib/AI_Runtime/Npu/ll_aton/ll_aton.c ****   ASSERT_UNITS_VERS_W_MSG(DECUN, t);
 898              		.loc 1 218 3 is_stmt 1 discriminator 1
 899 0338 824B     		ldr	r3, .L76+28
 900 033a 1B68     		ldr	r3, [r3]
 901 033c 7B60     		str	r3, [r7, #4]
 902 033e 7B68     		ldr	r3, [r7, #4]
 903 0340 002B     		cmp	r3, #0
 904 0342 F9D0     		beq	.L40
 905              		.loc 1 218 3 is_stmt 0 discriminator 2
 906 0344 7B68     		ldr	r3, [r7, #4]
 907 0346 DBB2     		uxtb	r3, r3
 908 0348 192B     		cmp	r3, #25
 909 034a 0BD1     		bne	.L43
 910              		.loc 1 218 3 discriminator 4
 911 034c 7B68     		ldr	r3, [r7, #4]
 912 034e 03F47043 		and	r3, r3, #61440
 913 0352 B3F5805F 		cmp	r3, #4096
 914 0356 05D1     		bne	.L43
 915              		.loc 1 218 3 discriminator 6
 916 0358 7B68     		ldr	r3, [r7, #4]
 917 035a 03F47063 		and	r3, r3, #3840
 918 035e B3F5206F 		cmp	r3, #2560
ARM GAS  /tmp/ccxZaNgH.s 			page 32


 919 0362 2FD0     		beq	.L44
 920              	.L43:
 921              		.loc 1 218 3 discriminator 7
 922 0364 FFF7FEFF 		bl	__errno
 923 0368 0346     		mov	r3, r0
 924              		.loc 1 218 3 discriminator 1
 925 036a 1B68     		ldr	r3, [r3]
 926 036c 002B     		cmp	r3, #0
 927 036e 08D0     		beq	.L45
 928              		.loc 1 218 3 discriminator 8
 929 0370 FFF7FEFF 		bl	__errno
 930 0374 0346     		mov	r3, r0
 931              		.loc 1 218 3 discriminator 1
 932 0376 1B68     		ldr	r3, [r3]
 933 0378 1846     		mov	r0, r3
 934 037a FFF7FEFF 		bl	strerror
 935 037e 0346     		mov	r3, r0
 936 0380 00E0     		b	.L46
 937              	.L45:
 938              		.loc 1 218 3 discriminator 9
 939 0382 6A4B     		ldr	r3, .L76+4
 940              	.L46:
 941              		.loc 1 218 3 discriminator 11
 942 0384 7A68     		ldr	r2, [r7, #4]
 943 0386 D2B2     		uxtb	r2, r2
 944 0388 7968     		ldr	r1, [r7, #4]
 945 038a 090B     		lsrs	r1, r1, #12
 946 038c 01F00F01 		and	r1, r1, #15
 947 0390 7868     		ldr	r0, [r7, #4]
 948 0392 000A     		lsrs	r0, r0, #8
 949 0394 00F00F00 		and	r0, r0, #15
 950 0398 0A24     		movs	r4, #10
 951 039a 0694     		str	r4, [sp, #24]
 952 039c 0124     		movs	r4, #1
 953 039e 0594     		str	r4, [sp, #20]
 954 03a0 1924     		movs	r4, #25
 955 03a2 0494     		str	r4, [sp, #16]
 956 03a4 0390     		str	r0, [sp, #12]
 957 03a6 0291     		str	r1, [sp, #8]
 958 03a8 0192     		str	r2, [sp, #4]
 959 03aa 674A     		ldr	r2, .L76+32
 960 03ac 0092     		str	r2, [sp]
 961 03ae DA22     		movs	r2, #218
 962 03b0 6049     		ldr	r1, .L76+12
 963 03b2 6148     		ldr	r0, .L76+16
 964 03b4 FFF7FEFF 		bl	printf
 965              		.loc 1 218 3 discriminator 13
 966 03b8 604B     		ldr	r3, .L76+20
 967 03ba 614A     		ldr	r2, .L76+24
 968 03bc DA21     		movs	r1, #218
 969 03be 5D48     		ldr	r0, .L76+12
 970 03c0 FFF7FEFF 		bl	__assert_func
 971              	.L44:
 219:Lib/AI_Runtime/Npu/ll_aton/ll_aton.c **** #endif
 220:Lib/AI_Runtime/Npu/ll_aton/ll_aton.c **** 
 221:Lib/AI_Runtime/Npu/ll_aton/ll_aton.c **** #ifdef ATON_EPOCHCTRL_VERSION_TYPE_DT
 222:Lib/AI_Runtime/Npu/ll_aton/ll_aton.c ****   ASSERT_UNITS_VERS_W_MSG(EPOCHCTRL, t);
ARM GAS  /tmp/ccxZaNgH.s 			page 33


 972              		.loc 1 222 3 is_stmt 1 discriminator 1
 973 03c4 614B     		ldr	r3, .L76+36
 974 03c6 1B68     		ldr	r3, [r3]
 975 03c8 7B60     		str	r3, [r7, #4]
 976 03ca 7B68     		ldr	r3, [r7, #4]
 977 03cc 002B     		cmp	r3, #0
 978 03ce F9D0     		beq	.L44
 979              		.loc 1 222 3 is_stmt 0 discriminator 2
 980 03d0 7B68     		ldr	r3, [r7, #4]
 981 03d2 DBB2     		uxtb	r3, r3
 982 03d4 212B     		cmp	r3, #33
 983 03d6 0BD1     		bne	.L47
 984              		.loc 1 222 3 discriminator 4
 985 03d8 7B68     		ldr	r3, [r7, #4]
 986 03da 03F47043 		and	r3, r3, #61440
 987 03de B3F5805F 		cmp	r3, #4096
 988 03e2 05D1     		bne	.L47
 989              		.loc 1 222 3 discriminator 6
 990 03e4 7B68     		ldr	r3, [r7, #4]
 991 03e6 03F47063 		and	r3, r3, #3840
 992 03ea B3F5807F 		cmp	r3, #256
 993 03ee 2FD0     		beq	.L48
 994              	.L47:
 995              		.loc 1 222 3 discriminator 7
 996 03f0 FFF7FEFF 		bl	__errno
 997 03f4 0346     		mov	r3, r0
 998              		.loc 1 222 3 discriminator 1
 999 03f6 1B68     		ldr	r3, [r3]
 1000 03f8 002B     		cmp	r3, #0
 1001 03fa 08D0     		beq	.L49
 1002              		.loc 1 222 3 discriminator 8
 1003 03fc FFF7FEFF 		bl	__errno
 1004 0400 0346     		mov	r3, r0
 1005              		.loc 1 222 3 discriminator 1
 1006 0402 1B68     		ldr	r3, [r3]
 1007 0404 1846     		mov	r0, r3
 1008 0406 FFF7FEFF 		bl	strerror
 1009 040a 0346     		mov	r3, r0
 1010 040c 00E0     		b	.L50
 1011              	.L49:
 1012              		.loc 1 222 3 discriminator 9
 1013 040e 474B     		ldr	r3, .L76+4
 1014              	.L50:
 1015              		.loc 1 222 3 discriminator 11
 1016 0410 7A68     		ldr	r2, [r7, #4]
 1017 0412 D2B2     		uxtb	r2, r2
 1018 0414 7968     		ldr	r1, [r7, #4]
 1019 0416 090B     		lsrs	r1, r1, #12
 1020 0418 01F00F01 		and	r1, r1, #15
 1021 041c 7868     		ldr	r0, [r7, #4]
 1022 041e 000A     		lsrs	r0, r0, #8
 1023 0420 00F00F00 		and	r0, r0, #15
 1024 0424 0124     		movs	r4, #1
 1025 0426 0694     		str	r4, [sp, #24]
 1026 0428 0124     		movs	r4, #1
 1027 042a 0594     		str	r4, [sp, #20]
 1028 042c 2124     		movs	r4, #33
ARM GAS  /tmp/ccxZaNgH.s 			page 34


 1029 042e 0494     		str	r4, [sp, #16]
 1030 0430 0390     		str	r0, [sp, #12]
 1031 0432 0291     		str	r1, [sp, #8]
 1032 0434 0192     		str	r2, [sp, #4]
 1033 0436 464A     		ldr	r2, .L76+40
 1034 0438 0092     		str	r2, [sp]
 1035 043a DE22     		movs	r2, #222
 1036 043c 3D49     		ldr	r1, .L76+12
 1037 043e 3E48     		ldr	r0, .L76+16
 1038 0440 FFF7FEFF 		bl	printf
 1039              		.loc 1 222 3 discriminator 13
 1040 0444 3D4B     		ldr	r3, .L76+20
 1041 0446 3E4A     		ldr	r2, .L76+24
 1042 0448 DE21     		movs	r1, #222
 1043 044a 3A48     		ldr	r0, .L76+12
 1044 044c FFF7FEFF 		bl	__assert_func
 1045              	.L48:
 223:Lib/AI_Runtime/Npu/ll_aton/ll_aton.c **** #endif
 224:Lib/AI_Runtime/Npu/ll_aton/ll_aton.c **** 
 225:Lib/AI_Runtime/Npu/ll_aton/ll_aton.c **** #ifdef ATON_RECBUF_VERSION_TYPE_DT
 226:Lib/AI_Runtime/Npu/ll_aton/ll_aton.c ****   ASSERT_UNITS_VERS_W_MSG(RECBUF, t);
 1046              		.loc 1 226 3 is_stmt 1 discriminator 1
 1047 0450 404B     		ldr	r3, .L76+44
 1048 0452 1B68     		ldr	r3, [r3]
 1049 0454 7B60     		str	r3, [r7, #4]
 1050 0456 7B68     		ldr	r3, [r7, #4]
 1051 0458 002B     		cmp	r3, #0
 1052 045a F9D0     		beq	.L48
 1053              		.loc 1 226 3 is_stmt 0 discriminator 2
 1054 045c 7B68     		ldr	r3, [r7, #4]
 1055 045e DBB2     		uxtb	r3, r3
 1056 0460 202B     		cmp	r3, #32
 1057 0462 0BD1     		bne	.L51
 1058              		.loc 1 226 3 discriminator 4
 1059 0464 7B68     		ldr	r3, [r7, #4]
 1060 0466 03F47043 		and	r3, r3, #61440
 1061 046a B3F5405F 		cmp	r3, #12288
 1062 046e 05D1     		bne	.L51
 1063              		.loc 1 226 3 discriminator 6
 1064 0470 7B68     		ldr	r3, [r7, #4]
 1065 0472 03F47063 		and	r3, r3, #3840
 1066 0476 B3F5007F 		cmp	r3, #512
 1067 047a 2FD0     		beq	.L52
 1068              	.L51:
 1069              		.loc 1 226 3 discriminator 7
 1070 047c FFF7FEFF 		bl	__errno
 1071 0480 0346     		mov	r3, r0
 1072              		.loc 1 226 3 discriminator 1
 1073 0482 1B68     		ldr	r3, [r3]
 1074 0484 002B     		cmp	r3, #0
 1075 0486 08D0     		beq	.L53
 1076              		.loc 1 226 3 discriminator 8
 1077 0488 FFF7FEFF 		bl	__errno
 1078 048c 0346     		mov	r3, r0
 1079              		.loc 1 226 3 discriminator 1
 1080 048e 1B68     		ldr	r3, [r3]
 1081 0490 1846     		mov	r0, r3
ARM GAS  /tmp/ccxZaNgH.s 			page 35


 1082 0492 FFF7FEFF 		bl	strerror
 1083 0496 0346     		mov	r3, r0
 1084 0498 00E0     		b	.L54
 1085              	.L53:
 1086              		.loc 1 226 3 discriminator 9
 1087 049a 244B     		ldr	r3, .L76+4
 1088              	.L54:
 1089              		.loc 1 226 3 discriminator 11
 1090 049c 7A68     		ldr	r2, [r7, #4]
 1091 049e D2B2     		uxtb	r2, r2
 1092 04a0 7968     		ldr	r1, [r7, #4]
 1093 04a2 090B     		lsrs	r1, r1, #12
 1094 04a4 01F00F01 		and	r1, r1, #15
 1095 04a8 7868     		ldr	r0, [r7, #4]
 1096 04aa 000A     		lsrs	r0, r0, #8
 1097 04ac 00F00F00 		and	r0, r0, #15
 1098 04b0 0224     		movs	r4, #2
 1099 04b2 0694     		str	r4, [sp, #24]
 1100 04b4 0324     		movs	r4, #3
 1101 04b6 0594     		str	r4, [sp, #20]
 1102 04b8 2024     		movs	r4, #32
 1103 04ba 0494     		str	r4, [sp, #16]
 1104 04bc 0390     		str	r0, [sp, #12]
 1105 04be 0291     		str	r1, [sp, #8]
 1106 04c0 0192     		str	r2, [sp, #4]
 1107 04c2 254A     		ldr	r2, .L76+48
 1108 04c4 0092     		str	r2, [sp]
 1109 04c6 E222     		movs	r2, #226
 1110 04c8 1A49     		ldr	r1, .L76+12
 1111 04ca 1B48     		ldr	r0, .L76+16
 1112 04cc FFF7FEFF 		bl	printf
 1113              		.loc 1 226 3 discriminator 13
 1114 04d0 1A4B     		ldr	r3, .L76+20
 1115 04d2 1B4A     		ldr	r2, .L76+24
 1116 04d4 E221     		movs	r1, #226
 1117 04d6 1748     		ldr	r0, .L76+12
 1118 04d8 FFF7FEFF 		bl	__assert_func
 1119              	.L52:
 227:Lib/AI_Runtime/Npu/ll_aton/ll_aton.c **** #endif
 228:Lib/AI_Runtime/Npu/ll_aton/ll_aton.c **** 
 229:Lib/AI_Runtime/Npu/ll_aton/ll_aton.c **** #ifdef ATON_STRENG64_NUM
 230:Lib/AI_Runtime/Npu/ll_aton/ll_aton.c ****   ASSERT_UNITS_VERS_W_MSG(STRENG64, t);
 231:Lib/AI_Runtime/Npu/ll_aton/ll_aton.c **** #endif
 232:Lib/AI_Runtime/Npu/ll_aton/ll_aton.c **** 
 233:Lib/AI_Runtime/Npu/ll_aton/ll_aton.c **** #ifdef ATON_STRSWITCH64_NUM
 234:Lib/AI_Runtime/Npu/ll_aton/ll_aton.c ****   ASSERT_UNITS_VERS_W_MSG(STRSWITCH64, t);
 235:Lib/AI_Runtime/Npu/ll_aton/ll_aton.c **** #endif
 236:Lib/AI_Runtime/Npu/ll_aton/ll_aton.c **** 
 237:Lib/AI_Runtime/Npu/ll_aton/ll_aton.c **** #ifdef ATON_STRSWITCH_VC_NUM
 238:Lib/AI_Runtime/Npu/ll_aton/ll_aton.c ****   ASSERT_UNITS_VERS_W_MSG(STRSWITCH_VC, t);
 239:Lib/AI_Runtime/Npu/ll_aton/ll_aton.c **** #endif
 240:Lib/AI_Runtime/Npu/ll_aton/ll_aton.c **** 
 241:Lib/AI_Runtime/Npu/ll_aton/ll_aton.c **** #ifdef ATON_IMC_NUM
 242:Lib/AI_Runtime/Npu/ll_aton/ll_aton.c ****   ASSERT_UNITS_VERS_W_MSG(IMC, t);
 243:Lib/AI_Runtime/Npu/ll_aton/ll_aton.c **** #endif
 244:Lib/AI_Runtime/Npu/ll_aton/ll_aton.c **** 
 245:Lib/AI_Runtime/Npu/ll_aton/ll_aton.c ****   ASSERT_UNITS_VERS_W_MSG(CLKCTRL, t);
ARM GAS  /tmp/ccxZaNgH.s 			page 36


 1120              		.loc 1 245 3 is_stmt 1 discriminator 1
 1121 04dc 1F4B     		ldr	r3, .L76+52
 1122 04de 1B68     		ldr	r3, [r3]
 1123 04e0 7B60     		str	r3, [r7, #4]
 1124 04e2 7B68     		ldr	r3, [r7, #4]
 1125 04e4 002B     		cmp	r3, #0
 1126 04e6 F9D0     		beq	.L52
 1127              		.loc 1 245 3 is_stmt 0 discriminator 2
 1128 04e8 7B68     		ldr	r3, [r7, #4]
 1129 04ea DBB2     		uxtb	r3, r3
 1130 04ec 1F2B     		cmp	r3, #31
 1131 04ee 0BD1     		bne	.L55
 1132              		.loc 1 245 3 discriminator 4
 1133 04f0 7B68     		ldr	r3, [r7, #4]
 1134 04f2 03F47043 		and	r3, r3, #61440
 1135 04f6 B3F5805F 		cmp	r3, #4096
 1136 04fa 05D1     		bne	.L55
 1137              		.loc 1 245 3 discriminator 6
 1138 04fc 7B68     		ldr	r3, [r7, #4]
 1139 04fe 03F47063 		and	r3, r3, #3840
 1140 0502 B3F5007F 		cmp	r3, #512
 1141 0506 4CD0     		beq	.L56
 1142              	.L55:
 1143              		.loc 1 245 3 discriminator 7
 1144 0508 FFF7FEFF 		bl	__errno
 1145 050c 0346     		mov	r3, r0
 1146              		.loc 1 245 3 discriminator 1
 1147 050e 1B68     		ldr	r3, [r3]
 1148 0510 002B     		cmp	r3, #0
 1149 0512 25D0     		beq	.L57
 1150              		.loc 1 245 3 discriminator 8
 1151 0514 FFF7FEFF 		bl	__errno
 1152 0518 0346     		mov	r3, r0
 1153              		.loc 1 245 3 discriminator 1
 1154 051a 1B68     		ldr	r3, [r3]
 1155 051c 1846     		mov	r0, r3
 1156 051e FFF7FEFF 		bl	strerror
 1157 0522 0346     		mov	r3, r0
 1158 0524 1DE0     		b	.L58
 1159              	.L77:
 1160 0526 00BF     		.align	2
 1161              	.L76:
 1162 0528 04500F58 		.word	1477398532
 1163 052c 38010000 		.word	.LC8
 1164 0530 C8010000 		.word	.LC15
 1165 0534 3C000000 		.word	.LC4
 1166 0538 40010000 		.word	.LC9
 1167 053c AC010000 		.word	.LC11
 1168 0540 00000000 		.word	__func__.10
 1169 0544 04300F58 		.word	1477390340
 1170 0548 D0010000 		.word	.LC16
 1171 054c 04E00F58 		.word	1477435396
 1172 0550 D8010000 		.word	.LC17
 1173 0554 04D00F58 		.word	1477431300
 1174 0558 E4010000 		.word	.LC18
 1175 055c 04000E58 		.word	1477312516
 1176              	.L57:
ARM GAS  /tmp/ccxZaNgH.s 			page 37


 1177              		.loc 1 245 3 discriminator 9
 1178 0560 854B     		ldr	r3, .L78
 1179              	.L58:
 1180              		.loc 1 245 3 discriminator 11
 1181 0562 7A68     		ldr	r2, [r7, #4]
 1182 0564 D2B2     		uxtb	r2, r2
 1183 0566 7968     		ldr	r1, [r7, #4]
 1184 0568 090B     		lsrs	r1, r1, #12
 1185 056a 01F00F01 		and	r1, r1, #15
 1186 056e 7868     		ldr	r0, [r7, #4]
 1187 0570 000A     		lsrs	r0, r0, #8
 1188 0572 00F00F00 		and	r0, r0, #15
 1189 0576 0224     		movs	r4, #2
 1190 0578 0694     		str	r4, [sp, #24]
 1191 057a 0124     		movs	r4, #1
 1192 057c 0594     		str	r4, [sp, #20]
 1193 057e 1F24     		movs	r4, #31
 1194 0580 0494     		str	r4, [sp, #16]
 1195 0582 0390     		str	r0, [sp, #12]
 1196 0584 0291     		str	r1, [sp, #8]
 1197 0586 0192     		str	r2, [sp, #4]
 1198 0588 7C4A     		ldr	r2, .L78+4
 1199 058a 0092     		str	r2, [sp]
 1200 058c F522     		movs	r2, #245
 1201 058e 7C49     		ldr	r1, .L78+8
 1202 0590 7C48     		ldr	r0, .L78+12
 1203 0592 FFF7FEFF 		bl	printf
 1204              		.loc 1 245 3 discriminator 13
 1205 0596 7C4B     		ldr	r3, .L78+16
 1206 0598 7C4A     		ldr	r2, .L78+20
 1207 059a F521     		movs	r1, #245
 1208 059c 7848     		ldr	r0, .L78+8
 1209 059e FFF7FEFF 		bl	__assert_func
 1210              	.L56:
 246:Lib/AI_Runtime/Npu/ll_aton/ll_aton.c **** 
 247:Lib/AI_Runtime/Npu/ll_aton/ll_aton.c ****   ASSERT_UNITS_VERS_W_MSG(INTCTRL, t);
 1211              		.loc 1 247 3 is_stmt 1 discriminator 1
 1212 05a2 7B4B     		ldr	r3, .L78+24
 1213 05a4 1B68     		ldr	r3, [r3]
 1214 05a6 7B60     		str	r3, [r7, #4]
 1215 05a8 7B68     		ldr	r3, [r7, #4]
 1216 05aa 002B     		cmp	r3, #0
 1217 05ac F9D0     		beq	.L56
 1218              		.loc 1 247 3 is_stmt 0 discriminator 2
 1219 05ae 7B68     		ldr	r3, [r7, #4]
 1220 05b0 DBB2     		uxtb	r3, r3
 1221 05b2 1E2B     		cmp	r3, #30
 1222 05b4 0BD1     		bne	.L59
 1223              		.loc 1 247 3 discriminator 4
 1224 05b6 7B68     		ldr	r3, [r7, #4]
 1225 05b8 03F47043 		and	r3, r3, #61440
 1226 05bc B3F5805F 		cmp	r3, #4096
 1227 05c0 05D1     		bne	.L59
 1228              		.loc 1 247 3 discriminator 6
 1229 05c2 7B68     		ldr	r3, [r7, #4]
 1230 05c4 03F47063 		and	r3, r3, #3840
 1231 05c8 B3F5807F 		cmp	r3, #256
ARM GAS  /tmp/ccxZaNgH.s 			page 38


 1232 05cc 2FD0     		beq	.L60
 1233              	.L59:
 1234              		.loc 1 247 3 discriminator 7
 1235 05ce FFF7FEFF 		bl	__errno
 1236 05d2 0346     		mov	r3, r0
 1237              		.loc 1 247 3 discriminator 1
 1238 05d4 1B68     		ldr	r3, [r3]
 1239 05d6 002B     		cmp	r3, #0
 1240 05d8 08D0     		beq	.L61
 1241              		.loc 1 247 3 discriminator 8
 1242 05da FFF7FEFF 		bl	__errno
 1243 05de 0346     		mov	r3, r0
 1244              		.loc 1 247 3 discriminator 1
 1245 05e0 1B68     		ldr	r3, [r3]
 1246 05e2 1846     		mov	r0, r3
 1247 05e4 FFF7FEFF 		bl	strerror
 1248 05e8 0346     		mov	r3, r0
 1249 05ea 00E0     		b	.L62
 1250              	.L61:
 1251              		.loc 1 247 3 discriminator 9
 1252 05ec 624B     		ldr	r3, .L78
 1253              	.L62:
 1254              		.loc 1 247 3 discriminator 11
 1255 05ee 7A68     		ldr	r2, [r7, #4]
 1256 05f0 D2B2     		uxtb	r2, r2
 1257 05f2 7968     		ldr	r1, [r7, #4]
 1258 05f4 090B     		lsrs	r1, r1, #12
 1259 05f6 01F00F01 		and	r1, r1, #15
 1260 05fa 7868     		ldr	r0, [r7, #4]
 1261 05fc 000A     		lsrs	r0, r0, #8
 1262 05fe 00F00F00 		and	r0, r0, #15
 1263 0602 0124     		movs	r4, #1
 1264 0604 0694     		str	r4, [sp, #24]
 1265 0606 0124     		movs	r4, #1
 1266 0608 0594     		str	r4, [sp, #20]
 1267 060a 1E24     		movs	r4, #30
 1268 060c 0494     		str	r4, [sp, #16]
 1269 060e 0390     		str	r0, [sp, #12]
 1270 0610 0291     		str	r1, [sp, #8]
 1271 0612 0192     		str	r2, [sp, #4]
 1272 0614 5F4A     		ldr	r2, .L78+28
 1273 0616 0092     		str	r2, [sp]
 1274 0618 F722     		movs	r2, #247
 1275 061a 5949     		ldr	r1, .L78+8
 1276 061c 5948     		ldr	r0, .L78+12
 1277 061e FFF7FEFF 		bl	printf
 1278              		.loc 1 247 3 discriminator 13
 1279 0622 594B     		ldr	r3, .L78+16
 1280 0624 594A     		ldr	r2, .L78+20
 1281 0626 F721     		movs	r1, #247
 1282 0628 5548     		ldr	r0, .L78+8
 1283 062a FFF7FEFF 		bl	__assert_func
 1284              	.L60:
 248:Lib/AI_Runtime/Npu/ll_aton/ll_aton.c **** 
 249:Lib/AI_Runtime/Npu/ll_aton/ll_aton.c ****   ASSERT_UNITS_VERS_W_MSG(STRSWITCH, t);
 1285              		.loc 1 249 3 is_stmt 1 discriminator 1
 1286 062e 5A4B     		ldr	r3, .L78+32
ARM GAS  /tmp/ccxZaNgH.s 			page 39


 1287 0630 1B68     		ldr	r3, [r3]
 1288 0632 7B60     		str	r3, [r7, #4]
 1289 0634 7B68     		ldr	r3, [r7, #4]
 1290 0636 002B     		cmp	r3, #0
 1291 0638 F9D0     		beq	.L60
 1292              		.loc 1 249 3 is_stmt 0 discriminator 2
 1293 063a 7B68     		ldr	r3, [r7, #4]
 1294 063c DBB2     		uxtb	r3, r3
 1295 063e 002B     		cmp	r3, #0
 1296 0640 0BD1     		bne	.L63
 1297              		.loc 1 249 3 discriminator 4
 1298 0642 7B68     		ldr	r3, [r7, #4]
 1299 0644 03F47043 		and	r3, r3, #61440
 1300 0648 B3F5805F 		cmp	r3, #4096
 1301 064c 05D1     		bne	.L63
 1302              		.loc 1 249 3 discriminator 6
 1303 064e 7B68     		ldr	r3, [r7, #4]
 1304 0650 03F47063 		and	r3, r3, #3840
 1305 0654 B3F5C06F 		cmp	r3, #1536
 1306 0658 2FD0     		beq	.L64
 1307              	.L63:
 1308              		.loc 1 249 3 discriminator 7
 1309 065a FFF7FEFF 		bl	__errno
 1310 065e 0346     		mov	r3, r0
 1311              		.loc 1 249 3 discriminator 1
 1312 0660 1B68     		ldr	r3, [r3]
 1313 0662 002B     		cmp	r3, #0
 1314 0664 08D0     		beq	.L65
 1315              		.loc 1 249 3 discriminator 8
 1316 0666 FFF7FEFF 		bl	__errno
 1317 066a 0346     		mov	r3, r0
 1318              		.loc 1 249 3 discriminator 1
 1319 066c 1B68     		ldr	r3, [r3]
 1320 066e 1846     		mov	r0, r3
 1321 0670 FFF7FEFF 		bl	strerror
 1322 0674 0346     		mov	r3, r0
 1323 0676 00E0     		b	.L66
 1324              	.L65:
 1325              		.loc 1 249 3 discriminator 9
 1326 0678 3F4B     		ldr	r3, .L78
 1327              	.L66:
 1328              		.loc 1 249 3 discriminator 11
 1329 067a 7A68     		ldr	r2, [r7, #4]
 1330 067c D2B2     		uxtb	r2, r2
 1331 067e 7968     		ldr	r1, [r7, #4]
 1332 0680 090B     		lsrs	r1, r1, #12
 1333 0682 01F00F01 		and	r1, r1, #15
 1334 0686 7868     		ldr	r0, [r7, #4]
 1335 0688 000A     		lsrs	r0, r0, #8
 1336 068a 00F00F00 		and	r0, r0, #15
 1337 068e 0624     		movs	r4, #6
 1338 0690 0694     		str	r4, [sp, #24]
 1339 0692 0124     		movs	r4, #1
 1340 0694 0594     		str	r4, [sp, #20]
 1341 0696 0024     		movs	r4, #0
 1342 0698 0494     		str	r4, [sp, #16]
 1343 069a 0390     		str	r0, [sp, #12]
ARM GAS  /tmp/ccxZaNgH.s 			page 40


 1344 069c 0291     		str	r1, [sp, #8]
 1345 069e 0192     		str	r2, [sp, #4]
 1346 06a0 3E4A     		ldr	r2, .L78+36
 1347 06a2 0092     		str	r2, [sp]
 1348 06a4 F922     		movs	r2, #249
 1349 06a6 3649     		ldr	r1, .L78+8
 1350 06a8 3648     		ldr	r0, .L78+12
 1351 06aa FFF7FEFF 		bl	printf
 1352              		.loc 1 249 3 discriminator 13
 1353 06ae 364B     		ldr	r3, .L78+16
 1354 06b0 364A     		ldr	r2, .L78+20
 1355 06b2 F921     		movs	r1, #249
 1356 06b4 3248     		ldr	r0, .L78+8
 1357 06b6 FFF7FEFF 		bl	__assert_func
 1358              	.L64:
 250:Lib/AI_Runtime/Npu/ll_aton/ll_aton.c **** 
 251:Lib/AI_Runtime/Npu/ll_aton/ll_aton.c ****   ASSERT_UNITS_VERS_W_MSG(BUSIF, t);
 1359              		.loc 1 251 3 is_stmt 1 discriminator 1
 1360 06ba 394B     		ldr	r3, .L78+40
 1361 06bc 1B68     		ldr	r3, [r3]
 1362 06be 7B60     		str	r3, [r7, #4]
 1363 06c0 7B68     		ldr	r3, [r7, #4]
 1364 06c2 002B     		cmp	r3, #0
 1365 06c4 F9D0     		beq	.L64
 1366              		.loc 1 251 3 is_stmt 0 discriminator 2
 1367 06c6 7B68     		ldr	r3, [r7, #4]
 1368 06c8 DBB2     		uxtb	r3, r3
 1369 06ca 1D2B     		cmp	r3, #29
 1370 06cc 0AD1     		bne	.L67
 1371              		.loc 1 251 3 discriminator 4
 1372 06ce 7B68     		ldr	r3, [r7, #4]
 1373 06d0 03F47043 		and	r3, r3, #61440
 1374 06d4 B3F5A04F 		cmp	r3, #20480
 1375 06d8 04D1     		bne	.L67
 1376              		.loc 1 251 3 discriminator 6
 1377 06da 7B68     		ldr	r3, [r7, #4]
 1378 06dc 03F47063 		and	r3, r3, #3840
 1379 06e0 002B     		cmp	r3, #0
 1380 06e2 2FD0     		beq	.L68
 1381              	.L67:
 1382              		.loc 1 251 3 discriminator 7
 1383 06e4 FFF7FEFF 		bl	__errno
 1384 06e8 0346     		mov	r3, r0
 1385              		.loc 1 251 3 discriminator 1
 1386 06ea 1B68     		ldr	r3, [r3]
 1387 06ec 002B     		cmp	r3, #0
 1388 06ee 08D0     		beq	.L69
 1389              		.loc 1 251 3 discriminator 8
 1390 06f0 FFF7FEFF 		bl	__errno
 1391 06f4 0346     		mov	r3, r0
 1392              		.loc 1 251 3 discriminator 1
 1393 06f6 1B68     		ldr	r3, [r3]
 1394 06f8 1846     		mov	r0, r3
 1395 06fa FFF7FEFF 		bl	strerror
 1396 06fe 0346     		mov	r3, r0
 1397 0700 00E0     		b	.L70
 1398              	.L69:
ARM GAS  /tmp/ccxZaNgH.s 			page 41


 1399              		.loc 1 251 3 discriminator 9
 1400 0702 1D4B     		ldr	r3, .L78
 1401              	.L70:
 1402              		.loc 1 251 3 discriminator 11
 1403 0704 7A68     		ldr	r2, [r7, #4]
 1404 0706 D2B2     		uxtb	r2, r2
 1405 0708 7968     		ldr	r1, [r7, #4]
 1406 070a 090B     		lsrs	r1, r1, #12
 1407 070c 01F00F01 		and	r1, r1, #15
 1408 0710 7868     		ldr	r0, [r7, #4]
 1409 0712 000A     		lsrs	r0, r0, #8
 1410 0714 00F00F00 		and	r0, r0, #15
 1411 0718 0024     		movs	r4, #0
 1412 071a 0694     		str	r4, [sp, #24]
 1413 071c 0524     		movs	r4, #5
 1414 071e 0594     		str	r4, [sp, #20]
 1415 0720 1D24     		movs	r4, #29
 1416 0722 0494     		str	r4, [sp, #16]
 1417 0724 0390     		str	r0, [sp, #12]
 1418 0726 0291     		str	r1, [sp, #8]
 1419 0728 0192     		str	r2, [sp, #4]
 1420 072a 1E4A     		ldr	r2, .L78+44
 1421 072c 0092     		str	r2, [sp]
 1422 072e FB22     		movs	r2, #251
 1423 0730 1349     		ldr	r1, .L78+8
 1424 0732 1448     		ldr	r0, .L78+12
 1425 0734 FFF7FEFF 		bl	printf
 1426              		.loc 1 251 3 discriminator 13
 1427 0738 134B     		ldr	r3, .L78+16
 1428 073a 144A     		ldr	r2, .L78+20
 1429 073c FB21     		movs	r1, #251
 1430 073e 1048     		ldr	r0, .L78+8
 1431 0740 FFF7FEFF 		bl	__assert_func
 1432              	.L68:
 252:Lib/AI_Runtime/Npu/ll_aton/ll_aton.c **** 
 253:Lib/AI_Runtime/Npu/ll_aton/ll_aton.c ****   /* Enable Bus Interfaces */
 254:Lib/AI_Runtime/Npu/ll_aton/ll_aton.c ****   for (i = 0; i < ATON_BUSIF_NUM; i++)
 1433              		.loc 1 254 10 is_stmt 1
 1434 0744 0023     		movs	r3, #0
 1435 0746 3B60     		str	r3, [r7]
 1436              		.loc 1 254 3
 1437 0748 0AE0     		b	.L71
 1438              	.L72:
 255:Lib/AI_Runtime/Npu/ll_aton/ll_aton.c ****   {
 256:Lib/AI_Runtime/Npu/ll_aton/ll_aton.c ****     ATON_BUSIF_CTRL_SET(i, 1);
 1439              		.loc 1 256 5
 1440 074a 3B68     		ldr	r3, [r7]
 1441 074c 03F5B023 		add	r3, r3, #360448
 1442 0750 E233     		adds	r3, r3, #226
 1443 0752 1B03     		lsls	r3, r3, #12
 1444 0754 1A46     		mov	r2, r3
 1445 0756 0123     		movs	r3, #1
 1446 0758 1360     		str	r3, [r2]
 254:Lib/AI_Runtime/Npu/ll_aton/ll_aton.c ****   {
 1447              		.loc 1 254 36 discriminator 3
 1448 075a 3B68     		ldr	r3, [r7]
 1449 075c 0133     		adds	r3, r3, #1
ARM GAS  /tmp/ccxZaNgH.s 			page 42


 1450 075e 3B60     		str	r3, [r7]
 1451              	.L71:
 254:Lib/AI_Runtime/Npu/ll_aton/ll_aton.c ****   {
 1452              		.loc 1 254 17 discriminator 1
 1453 0760 3B68     		ldr	r3, [r7]
 1454 0762 012B     		cmp	r3, #1
 1455 0764 F1DD     		ble	.L72
 257:Lib/AI_Runtime/Npu/ll_aton/ll_aton.c ****   }
 258:Lib/AI_Runtime/Npu/ll_aton/ll_aton.c **** 
 259:Lib/AI_Runtime/Npu/ll_aton/ll_aton.c ****   /* Enable Interrupt Controller */
 260:Lib/AI_Runtime/Npu/ll_aton/ll_aton.c ****   ATON_INTCTRL_CTRL_SET(0, 1);
 1456              		.loc 1 260 3
 1457 0766 104B     		ldr	r3, .L78+48
 1458 0768 0122     		movs	r2, #1
 1459 076a 1A60     		str	r2, [r3]
 261:Lib/AI_Runtime/Npu/ll_aton/ll_aton.c **** 
 262:Lib/AI_Runtime/Npu/ll_aton/ll_aton.c ****   return 0;
 1460              		.loc 1 262 10
 1461 076c 0023     		movs	r3, #0
 263:Lib/AI_Runtime/Npu/ll_aton/ll_aton.c **** }
 1462              		.loc 1 263 1
 1463 076e 1846     		mov	r0, r3
 1464 0770 0C37     		adds	r7, r7, #12
 1465              		.cfi_def_cfa_offset 12
 1466 0772 BD46     		mov	sp, r7
 1467              		.cfi_def_cfa_register 13
 1468              		@ sp needed
 1469 0774 90BD     		pop	{r4, r7, pc}
 1470              	.L79:
 1471 0776 00BF     		.align	2
 1472              	.L78:
 1473 0778 38010000 		.word	.LC8
 1474 077c EC010000 		.word	.LC19
 1475 0780 3C000000 		.word	.LC4
 1476 0784 40010000 		.word	.LC9
 1477 0788 AC010000 		.word	.LC11
 1478 078c 00000000 		.word	__func__.10
 1479 0790 04100E58 		.word	1477316612
 1480 0794 F4010000 		.word	.LC20
 1481 0798 04400E58 		.word	1477328900
 1482 079c FC010000 		.word	.LC21
 1483 07a0 04200E58 		.word	1477320708
 1484 07a4 08020000 		.word	.LC22
 1485 07a8 00100E58 		.word	1477316608
 1486              		.cfi_endproc
 1487              	.LFE4825:
 1489              		.section	.text.LL_ATON_DeInit,"ax",%progbits
 1490              		.align	1
 1491              		.global	LL_ATON_DeInit
 1492              		.syntax unified
 1493              		.thumb
 1494              		.thumb_func
 1496              	LL_ATON_DeInit:
 1497              	.LFB4826:
 264:Lib/AI_Runtime/Npu/ll_aton/ll_aton.c **** 
 265:Lib/AI_Runtime/Npu/ll_aton/ll_aton.c **** /**
 266:Lib/AI_Runtime/Npu/ll_aton/ll_aton.c ****  * @brief  ATON global de-initialization. Must be called at the very end
ARM GAS  /tmp/ccxZaNgH.s 			page 43


 267:Lib/AI_Runtime/Npu/ll_aton/ll_aton.c ****  * @retval Always zero
 268:Lib/AI_Runtime/Npu/ll_aton/ll_aton.c ****  */
 269:Lib/AI_Runtime/Npu/ll_aton/ll_aton.c **** int LL_ATON_DeInit(void)
 270:Lib/AI_Runtime/Npu/ll_aton/ll_aton.c **** {
 1498              		.loc 1 270 1
 1499              		.cfi_startproc
 1500              		@ args = 0, pretend = 0, frame = 8
 1501              		@ frame_needed = 1, uses_anonymous_args = 0
 1502              		@ link register save eliminated.
 1503 0000 80B4     		push	{r7}
 1504              		.cfi_def_cfa_offset 4
 1505              		.cfi_offset 7, -4
 1506 0002 83B0     		sub	sp, sp, #12
 1507              		.cfi_def_cfa_offset 16
 1508 0004 00AF     		add	r7, sp, #0
 1509              		.cfi_def_cfa_register 7
 271:Lib/AI_Runtime/Npu/ll_aton/ll_aton.c ****   int i;
 272:Lib/AI_Runtime/Npu/ll_aton/ll_aton.c **** 
 273:Lib/AI_Runtime/Npu/ll_aton/ll_aton.c ****   /* Disable Interrupt Controller */
 274:Lib/AI_Runtime/Npu/ll_aton/ll_aton.c ****   ATON_INTCTRL_CTRL_SET(0, 0);
 1510              		.loc 1 274 3
 1511 0006 134B     		ldr	r3, .L84
 1512 0008 0022     		movs	r2, #0
 1513 000a 1A60     		str	r2, [r3]
 275:Lib/AI_Runtime/Npu/ll_aton/ll_aton.c **** 
 276:Lib/AI_Runtime/Npu/ll_aton/ll_aton.c ****   /* Disable Bus Interfaces */
 277:Lib/AI_Runtime/Npu/ll_aton/ll_aton.c ****   for (i = 0; i < ATON_BUSIF_NUM; i++)
 1514              		.loc 1 277 10
 1515 000c 0023     		movs	r3, #0
 1516 000e 7B60     		str	r3, [r7, #4]
 1517              		.loc 1 277 3
 1518 0010 0AE0     		b	.L81
 1519              	.L82:
 278:Lib/AI_Runtime/Npu/ll_aton/ll_aton.c ****   {
 279:Lib/AI_Runtime/Npu/ll_aton/ll_aton.c ****     ATON_BUSIF_CTRL_SET(i, 0);
 1520              		.loc 1 279 5
 1521 0012 7B68     		ldr	r3, [r7, #4]
 1522 0014 03F5B023 		add	r3, r3, #360448
 1523 0018 E233     		adds	r3, r3, #226
 1524 001a 1B03     		lsls	r3, r3, #12
 1525 001c 1A46     		mov	r2, r3
 1526 001e 0023     		movs	r3, #0
 1527 0020 1360     		str	r3, [r2]
 277:Lib/AI_Runtime/Npu/ll_aton/ll_aton.c ****   {
 1528              		.loc 1 277 36 discriminator 3
 1529 0022 7B68     		ldr	r3, [r7, #4]
 1530 0024 0133     		adds	r3, r3, #1
 1531 0026 7B60     		str	r3, [r7, #4]
 1532              	.L81:
 277:Lib/AI_Runtime/Npu/ll_aton/ll_aton.c ****   {
 1533              		.loc 1 277 17 discriminator 1
 1534 0028 7B68     		ldr	r3, [r7, #4]
 1535 002a 012B     		cmp	r3, #1
 1536 002c F1DD     		ble	.L82
 280:Lib/AI_Runtime/Npu/ll_aton/ll_aton.c ****   }
 281:Lib/AI_Runtime/Npu/ll_aton/ll_aton.c **** 
 282:Lib/AI_Runtime/Npu/ll_aton/ll_aton.c ****   /* Disable all ATON clocks */
ARM GAS  /tmp/ccxZaNgH.s 			page 44


 283:Lib/AI_Runtime/Npu/ll_aton/ll_aton.c ****   ATON_CLKCTRL_AGATES0_SET(0, 0);
 1537              		.loc 1 283 3
 1538 002e 0A4B     		ldr	r3, .L84+4
 1539 0030 0022     		movs	r2, #0
 1540 0032 1A60     		str	r2, [r3]
 284:Lib/AI_Runtime/Npu/ll_aton/ll_aton.c ****   ATON_CLKCTRL_AGATES1_SET(0, 0);
 1541              		.loc 1 284 3
 1542 0034 094B     		ldr	r3, .L84+8
 1543 0036 0022     		movs	r2, #0
 1544 0038 1A60     		str	r2, [r3]
 285:Lib/AI_Runtime/Npu/ll_aton/ll_aton.c ****   ATON_CLKCTRL_BGATES_SET(0, 0);
 1545              		.loc 1 285 3
 1546 003a 094B     		ldr	r3, .L84+12
 1547 003c 0022     		movs	r2, #0
 1548 003e 1A60     		str	r2, [r3]
 286:Lib/AI_Runtime/Npu/ll_aton/ll_aton.c **** #ifdef ATON_CLKCTRL_BGATES1_OFFSET
 287:Lib/AI_Runtime/Npu/ll_aton/ll_aton.c ****   ATON_CLKCTRL_BGATES1_SET(0, 0);
 288:Lib/AI_Runtime/Npu/ll_aton/ll_aton.c **** #endif
 289:Lib/AI_Runtime/Npu/ll_aton/ll_aton.c ****   ATON_CLKCTRL_CTRL_SET(0, 0);
 1549              		.loc 1 289 3
 1550 0040 084B     		ldr	r3, .L84+16
 1551 0042 0022     		movs	r2, #0
 1552 0044 1A60     		str	r2, [r3]
 290:Lib/AI_Runtime/Npu/ll_aton/ll_aton.c **** 
 291:Lib/AI_Runtime/Npu/ll_aton/ll_aton.c ****   return 0;
 1553              		.loc 1 291 10
 1554 0046 0023     		movs	r3, #0
 292:Lib/AI_Runtime/Npu/ll_aton/ll_aton.c **** }
 1555              		.loc 1 292 1
 1556 0048 1846     		mov	r0, r3
 1557 004a 0C37     		adds	r7, r7, #12
 1558              		.cfi_def_cfa_offset 4
 1559 004c BD46     		mov	sp, r7
 1560              		.cfi_def_cfa_register 13
 1561              		@ sp needed
 1562 004e 5DF8047B 		ldr	r7, [sp], #4
 1563              		.cfi_restore 7
 1564              		.cfi_def_cfa_offset 0
 1565 0052 7047     		bx	lr
 1566              	.L85:
 1567              		.align	2
 1568              	.L84:
 1569 0054 00100E58 		.word	1477316608
 1570 0058 08000E58 		.word	1477312520
 1571 005c 0C000E58 		.word	1477312524
 1572 0060 10000E58 		.word	1477312528
 1573 0064 00000E58 		.word	1477312512
 1574              		.cfi_endproc
 1575              	.LFE4826:
 1577              		.section	.text.LL_ATON_EnableUnits_Init,"ax",%progbits
 1578              		.align	1
 1579              		.global	LL_ATON_EnableUnits_Init
 1580              		.syntax unified
 1581              		.thumb
 1582              		.thumb_func
 1584              	LL_ATON_EnableUnits_Init:
 1585              	.LFB4827:
ARM GAS  /tmp/ccxZaNgH.s 			page 45


 293:Lib/AI_Runtime/Npu/ll_aton/ll_aton.c **** 
 294:Lib/AI_Runtime/Npu/ll_aton/ll_aton.c **** /**
 295:Lib/AI_Runtime/Npu/ll_aton/ll_aton.c ****  * @brief  Enables a set of ATON units
 296:Lib/AI_Runtime/Npu/ll_aton/ll_aton.c ****  * @param  LL_ATON_EnableUnits_InitStruct Array of units to enable
 297:Lib/AI_Runtime/Npu/ll_aton/ll_aton.c ****  * @param  n Lenght of the initialization array
 298:Lib/AI_Runtime/Npu/ll_aton/ll_aton.c ****  * @retval Error code
 299:Lib/AI_Runtime/Npu/ll_aton/ll_aton.c ****  * @todo   Add boundary checks
 300:Lib/AI_Runtime/Npu/ll_aton/ll_aton.c ****  */
 301:Lib/AI_Runtime/Npu/ll_aton/ll_aton.c **** int LL_ATON_EnableUnits_Init(const LL_ATON_EnableUnits_InitTypeDef *LL_ATON_EnableUnits_InitStruct,
 302:Lib/AI_Runtime/Npu/ll_aton/ll_aton.c **** {
 1586              		.loc 1 302 1
 1587              		.cfi_startproc
 1588              		@ args = 0, pretend = 0, frame = 48
 1589              		@ frame_needed = 1, uses_anonymous_args = 0
 1590              		@ link register save eliminated.
 1591 0000 80B4     		push	{r7}
 1592              		.cfi_def_cfa_offset 4
 1593              		.cfi_offset 7, -4
 1594 0002 8DB0     		sub	sp, sp, #52
 1595              		.cfi_def_cfa_offset 56
 1596 0004 00AF     		add	r7, sp, #0
 1597              		.cfi_def_cfa_register 7
 1598 0006 7860     		str	r0, [r7, #4]
 1599 0008 3960     		str	r1, [r7]
 303:Lib/AI_Runtime/Npu/ll_aton/ll_aton.c ****   int i;
 304:Lib/AI_Runtime/Npu/ll_aton/ll_aton.c ****   enum AccelUnitsType unitType;
 305:Lib/AI_Runtime/Npu/ll_aton/ll_aton.c ****   uint32_t unitId;
 306:Lib/AI_Runtime/Npu/ll_aton/ll_aton.c **** 
 307:Lib/AI_Runtime/Npu/ll_aton/ll_aton.c ****   for (i = 0; i < n; i++)
 1600              		.loc 1 307 10
 1601 000a 0023     		movs	r3, #0
 1602 000c FB62     		str	r3, [r7, #44]
 1603              		.loc 1 307 3
 1604 000e A8E0     		b	.L87
 1605              	.L98:
 308:Lib/AI_Runtime/Npu/ll_aton/ll_aton.c ****   {
 309:Lib/AI_Runtime/Npu/ll_aton/ll_aton.c ****     unitType = LL_ATON_EnableUnits_InitStruct[i].unit.unit_type;
 1606              		.loc 1 309 46
 1607 0010 FB6A     		ldr	r3, [r7, #44]
 1608 0012 9B00     		lsls	r3, r3, #2
 1609 0014 7A68     		ldr	r2, [r7, #4]
 1610 0016 1344     		add	r3, r3, r2
 1611              		.loc 1 309 14
 1612 0018 1B78     		ldrb	r3, [r3]
 1613 001a 87F82B30 		strb	r3, [r7, #43]
 310:Lib/AI_Runtime/Npu/ll_aton/ll_aton.c ****     unitId = LL_ATON_EnableUnits_InitStruct[i].unit.unit_num;
 1614              		.loc 1 310 44
 1615 001e FB6A     		ldr	r3, [r7, #44]
 1616 0020 9B00     		lsls	r3, r3, #2
 1617 0022 7A68     		ldr	r2, [r7, #4]
 1618 0024 1344     		add	r3, r3, r2
 1619              		.loc 1 310 52
 1620 0026 5B88     		ldrh	r3, [r3, #2]
 1621              		.loc 1 310 12
 1622 0028 7B62     		str	r3, [r7, #36]
 311:Lib/AI_Runtime/Npu/ll_aton/ll_aton.c **** 
 312:Lib/AI_Runtime/Npu/ll_aton/ll_aton.c ****     switch (unitType)
ARM GAS  /tmp/ccxZaNgH.s 			page 46


 1623              		.loc 1 312 5
 1624 002a 97F82B30 		ldrb	r3, [r7, #43]	@ zero_extendqisi2
 1625 002e 082B     		cmp	r3, #8
 1626 0030 00F29380 		bhi	.L100
 1627 0034 01A2     		adr	r2, .L90
 1628 0036 52F823F0 		ldr	pc, [r2, r3, lsl #2]
 1629 003a 00BF     		.p2align 2
 1630              	.L90:
 1631 003c 61000000 		.word	.L96+1
 1632 0040 5B010000 		.word	.L100+1
 1633 0044 89000000 		.word	.L95+1
 1634 0048 A5000000 		.word	.L94+1
 1635 004c CD000000 		.word	.L93+1
 1636 0050 F5000000 		.word	.L92+1
 1637 0054 1D010000 		.word	.L91+1
 1638 0058 5B010000 		.word	.L100+1
 1639 005c 45010000 		.word	.L89+1
 1640              		.p2align 1
 1641              	.L96:
 1642              	.LBB2:
 313:Lib/AI_Runtime/Npu/ll_aton/ll_aton.c ****     {
 314:Lib/AI_Runtime/Npu/ll_aton/ll_aton.c ****     case STRENG:
 315:Lib/AI_Runtime/Npu/ll_aton/ll_aton.c ****       ATON_ENABLE(STRENG, unitId);
 1643              		.loc 1 315 7
 1644 0060 7B6A     		ldr	r3, [r7, #36]
 1645 0062 03F5B023 		add	r3, r3, #360448
 1646 0066 E533     		adds	r3, r3, #229
 1647 0068 1B03     		lsls	r3, r3, #12
 1648 006a 1B68     		ldr	r3, [r3]
 1649 006c FB60     		str	r3, [r7, #12]
 1650 006e FB68     		ldr	r3, [r7, #12]
 1651 0070 43F00103 		orr	r3, r3, #1
 1652 0074 FB60     		str	r3, [r7, #12]
 1653 0076 7B6A     		ldr	r3, [r7, #36]
 1654 0078 03F5B023 		add	r3, r3, #360448
 1655 007c E533     		adds	r3, r3, #229
 1656 007e 1B03     		lsls	r3, r3, #12
 1657 0080 1A46     		mov	r2, r3
 1658 0082 FB68     		ldr	r3, [r7, #12]
 1659 0084 1360     		str	r3, [r2]
 1660              	.LBE2:
 316:Lib/AI_Runtime/Npu/ll_aton/ll_aton.c ****       break;
 1661              		.loc 1 316 7
 1662 0086 69E0     		b	.L97
 1663              	.L95:
 317:Lib/AI_Runtime/Npu/ll_aton/ll_aton.c **** 
 318:Lib/AI_Runtime/Npu/ll_aton/ll_aton.c **** #ifdef ATON_STRENG64_NUM
 319:Lib/AI_Runtime/Npu/ll_aton/ll_aton.c ****     case STRENG64:
 320:Lib/AI_Runtime/Npu/ll_aton/ll_aton.c ****       ATON_ENABLE(STRENG64, unitId);
 321:Lib/AI_Runtime/Npu/ll_aton/ll_aton.c ****       break;
 322:Lib/AI_Runtime/Npu/ll_aton/ll_aton.c **** #endif
 323:Lib/AI_Runtime/Npu/ll_aton/ll_aton.c **** 
 324:Lib/AI_Runtime/Npu/ll_aton/ll_aton.c **** #ifdef ATON_CONVACC_NUM
 325:Lib/AI_Runtime/Npu/ll_aton/ll_aton.c ****     case CONVACC:
 326:Lib/AI_Runtime/Npu/ll_aton/ll_aton.c **** #if 0
 327:Lib/AI_Runtime/Npu/ll_aton/ll_aton.c ****       ATON_ENABLE(CONVACC, unitId);
 328:Lib/AI_Runtime/Npu/ll_aton/ll_aton.c **** #else
ARM GAS  /tmp/ccxZaNgH.s 			page 47


 329:Lib/AI_Runtime/Npu/ll_aton/ll_aton.c ****       ATON_CONVACC_CTRL_SET(unitId, ATON_CONVACC_CTRL_SET_EN(Conv_ctrl_bits[unitId], 1));
 1664              		.loc 1 329 7
 1665 0088 3C4A     		ldr	r2, .L101
 1666 008a 7B6A     		ldr	r3, [r7, #36]
 1667 008c 52F82320 		ldr	r2, [r2, r3, lsl #2]
 1668 0090 7B6A     		ldr	r3, [r7, #36]
 1669 0092 03F5B023 		add	r3, r3, #360448
 1670 0096 EF33     		adds	r3, r3, #239
 1671 0098 1B03     		lsls	r3, r3, #12
 1672 009a 1946     		mov	r1, r3
 1673 009c 42F00103 		orr	r3, r2, #1
 1674 00a0 0B60     		str	r3, [r1]
 330:Lib/AI_Runtime/Npu/ll_aton/ll_aton.c **** #endif
 331:Lib/AI_Runtime/Npu/ll_aton/ll_aton.c ****       break;
 1675              		.loc 1 331 7
 1676 00a2 5BE0     		b	.L97
 1677              	.L94:
 1678              	.LBB3:
 332:Lib/AI_Runtime/Npu/ll_aton/ll_aton.c **** #endif
 333:Lib/AI_Runtime/Npu/ll_aton/ll_aton.c **** 
 334:Lib/AI_Runtime/Npu/ll_aton/ll_aton.c **** #ifdef ATON_DECUN_NUM
 335:Lib/AI_Runtime/Npu/ll_aton/ll_aton.c ****     case DECUN:
 336:Lib/AI_Runtime/Npu/ll_aton/ll_aton.c ****       ATON_ENABLE(DECUN, unitId);
 1679              		.loc 1 336 7
 1680 00a4 7B6A     		ldr	r3, [r7, #36]
 1681 00a6 03F5B023 		add	r3, r3, #360448
 1682 00aa F333     		adds	r3, r3, #243
 1683 00ac 1B03     		lsls	r3, r3, #12
 1684 00ae 1B68     		ldr	r3, [r3]
 1685 00b0 3B61     		str	r3, [r7, #16]
 1686 00b2 3B69     		ldr	r3, [r7, #16]
 1687 00b4 43F00103 		orr	r3, r3, #1
 1688 00b8 3B61     		str	r3, [r7, #16]
 1689 00ba 7B6A     		ldr	r3, [r7, #36]
 1690 00bc 03F5B023 		add	r3, r3, #360448
 1691 00c0 F333     		adds	r3, r3, #243
 1692 00c2 1B03     		lsls	r3, r3, #12
 1693 00c4 1A46     		mov	r2, r3
 1694 00c6 3B69     		ldr	r3, [r7, #16]
 1695 00c8 1360     		str	r3, [r2]
 1696              	.LBE3:
 337:Lib/AI_Runtime/Npu/ll_aton/ll_aton.c ****       break;
 1697              		.loc 1 337 7
 1698 00ca 47E0     		b	.L97
 1699              	.L93:
 1700              	.LBB4:
 338:Lib/AI_Runtime/Npu/ll_aton/ll_aton.c **** #endif
 339:Lib/AI_Runtime/Npu/ll_aton/ll_aton.c **** 
 340:Lib/AI_Runtime/Npu/ll_aton/ll_aton.c **** #ifdef ATON_ACTIV_NUM
 341:Lib/AI_Runtime/Npu/ll_aton/ll_aton.c ****     case ACTIV:
 342:Lib/AI_Runtime/Npu/ll_aton/ll_aton.c ****       ATON_ENABLE(ACTIV, unitId);
 1701              		.loc 1 342 7
 1702 00cc 7B6A     		ldr	r3, [r7, #36]
 1703 00ce 03F5B023 		add	r3, r3, #360448
 1704 00d2 F533     		adds	r3, r3, #245
 1705 00d4 1B03     		lsls	r3, r3, #12
 1706 00d6 1B68     		ldr	r3, [r3]
ARM GAS  /tmp/ccxZaNgH.s 			page 48


 1707 00d8 7B61     		str	r3, [r7, #20]
 1708 00da 7B69     		ldr	r3, [r7, #20]
 1709 00dc 43F00103 		orr	r3, r3, #1
 1710 00e0 7B61     		str	r3, [r7, #20]
 1711 00e2 7B6A     		ldr	r3, [r7, #36]
 1712 00e4 03F5B023 		add	r3, r3, #360448
 1713 00e8 F533     		adds	r3, r3, #245
 1714 00ea 1B03     		lsls	r3, r3, #12
 1715 00ec 1A46     		mov	r2, r3
 1716 00ee 7B69     		ldr	r3, [r7, #20]
 1717 00f0 1360     		str	r3, [r2]
 1718              	.LBE4:
 343:Lib/AI_Runtime/Npu/ll_aton/ll_aton.c ****       break;
 1719              		.loc 1 343 7
 1720 00f2 33E0     		b	.L97
 1721              	.L92:
 1722              	.LBB5:
 344:Lib/AI_Runtime/Npu/ll_aton/ll_aton.c **** #endif
 345:Lib/AI_Runtime/Npu/ll_aton/ll_aton.c **** 
 346:Lib/AI_Runtime/Npu/ll_aton/ll_aton.c **** #ifdef ATON_ARITH_NUM
 347:Lib/AI_Runtime/Npu/ll_aton/ll_aton.c ****     case ARITH:
 348:Lib/AI_Runtime/Npu/ll_aton/ll_aton.c ****       ATON_ENABLE(ARITH, unitId);
 1723              		.loc 1 348 7
 1724 00f4 7B6A     		ldr	r3, [r7, #36]
 1725 00f6 03F5B023 		add	r3, r3, #360448
 1726 00fa F733     		adds	r3, r3, #247
 1727 00fc 1B03     		lsls	r3, r3, #12
 1728 00fe 1B68     		ldr	r3, [r3]
 1729 0100 BB61     		str	r3, [r7, #24]
 1730 0102 BB69     		ldr	r3, [r7, #24]
 1731 0104 43F00103 		orr	r3, r3, #1
 1732 0108 BB61     		str	r3, [r7, #24]
 1733 010a 7B6A     		ldr	r3, [r7, #36]
 1734 010c 03F5B023 		add	r3, r3, #360448
 1735 0110 F733     		adds	r3, r3, #247
 1736 0112 1B03     		lsls	r3, r3, #12
 1737 0114 1A46     		mov	r2, r3
 1738 0116 BB69     		ldr	r3, [r7, #24]
 1739 0118 1360     		str	r3, [r2]
 1740              	.LBE5:
 349:Lib/AI_Runtime/Npu/ll_aton/ll_aton.c ****       break;
 1741              		.loc 1 349 7
 1742 011a 1FE0     		b	.L97
 1743              	.L91:
 1744              	.LBB6:
 350:Lib/AI_Runtime/Npu/ll_aton/ll_aton.c **** #endif
 351:Lib/AI_Runtime/Npu/ll_aton/ll_aton.c **** 
 352:Lib/AI_Runtime/Npu/ll_aton/ll_aton.c **** #ifdef ATON_POOL_NUM
 353:Lib/AI_Runtime/Npu/ll_aton/ll_aton.c ****     case POOL:
 354:Lib/AI_Runtime/Npu/ll_aton/ll_aton.c **** #ifdef POOL_RC14
 355:Lib/AI_Runtime/Npu/ll_aton/ll_aton.c ****       ATON_POOL_CTRL_SET(unitId, ATON_POOL_CTRL_SET_EN(ATON_POOL_CTRL_GET(unitId), 1));
 356:Lib/AI_Runtime/Npu/ll_aton/ll_aton.c **** #else  // !POOL_RC14
 357:Lib/AI_Runtime/Npu/ll_aton/ll_aton.c ****       ATON_ENABLE(POOL, unitId);
 1745              		.loc 1 357 7
 1746 011c 7B6A     		ldr	r3, [r7, #36]
 1747 011e 03F5B023 		add	r3, r3, #360448
 1748 0122 FB33     		adds	r3, r3, #251
ARM GAS  /tmp/ccxZaNgH.s 			page 49


 1749 0124 1B03     		lsls	r3, r3, #12
 1750 0126 1B68     		ldr	r3, [r3]
 1751 0128 FB61     		str	r3, [r7, #28]
 1752 012a FB69     		ldr	r3, [r7, #28]
 1753 012c 43F00103 		orr	r3, r3, #1
 1754 0130 FB61     		str	r3, [r7, #28]
 1755 0132 7B6A     		ldr	r3, [r7, #36]
 1756 0134 03F5B023 		add	r3, r3, #360448
 1757 0138 FB33     		adds	r3, r3, #251
 1758 013a 1B03     		lsls	r3, r3, #12
 1759 013c 1A46     		mov	r2, r3
 1760 013e FB69     		ldr	r3, [r7, #28]
 1761 0140 1360     		str	r3, [r2]
 1762              	.LBE6:
 358:Lib/AI_Runtime/Npu/ll_aton/ll_aton.c **** #endif // !POOL_RC14
 359:Lib/AI_Runtime/Npu/ll_aton/ll_aton.c ****       break;
 1763              		.loc 1 359 7
 1764 0142 0BE0     		b	.L97
 1765              	.L89:
 1766              	.LBB7:
 360:Lib/AI_Runtime/Npu/ll_aton/ll_aton.c **** #endif
 361:Lib/AI_Runtime/Npu/ll_aton/ll_aton.c **** #ifdef ATON_RECBUF_NUM
 362:Lib/AI_Runtime/Npu/ll_aton/ll_aton.c ****     case RECBUF:
 363:Lib/AI_Runtime/Npu/ll_aton/ll_aton.c ****       ATON_ENABLE(RECBUF, unitId);
 1767              		.loc 1 363 7
 1768 0144 0E4B     		ldr	r3, .L101+4
 1769 0146 1B68     		ldr	r3, [r3]
 1770 0148 3B62     		str	r3, [r7, #32]
 1771 014a 3B6A     		ldr	r3, [r7, #32]
 1772 014c 43F00103 		orr	r3, r3, #1
 1773 0150 3B62     		str	r3, [r7, #32]
 1774 0152 0B4A     		ldr	r2, .L101+4
 1775 0154 3B6A     		ldr	r3, [r7, #32]
 1776 0156 1360     		str	r3, [r2]
 1777              	.LBE7:
 364:Lib/AI_Runtime/Npu/ll_aton/ll_aton.c ****       break;
 1778              		.loc 1 364 7
 1779 0158 00E0     		b	.L97
 1780              	.L100:
 365:Lib/AI_Runtime/Npu/ll_aton/ll_aton.c **** #endif
 366:Lib/AI_Runtime/Npu/ll_aton/ll_aton.c **** 
 367:Lib/AI_Runtime/Npu/ll_aton/ll_aton.c ****     default:
 368:Lib/AI_Runtime/Npu/ll_aton/ll_aton.c ****       break;
 1781              		.loc 1 368 7
 1782 015a 00BF     		nop
 1783              	.L97:
 307:Lib/AI_Runtime/Npu/ll_aton/ll_aton.c ****   {
 1784              		.loc 1 307 23 discriminator 2
 1785 015c FB6A     		ldr	r3, [r7, #44]
 1786 015e 0133     		adds	r3, r3, #1
 1787 0160 FB62     		str	r3, [r7, #44]
 1788              	.L87:
 307:Lib/AI_Runtime/Npu/ll_aton/ll_aton.c ****   {
 1789              		.loc 1 307 17 discriminator 1
 1790 0162 FA6A     		ldr	r2, [r7, #44]
 1791 0164 3B68     		ldr	r3, [r7]
 1792 0166 9A42     		cmp	r2, r3
ARM GAS  /tmp/ccxZaNgH.s 			page 50


 1793 0168 FFF652AF 		blt	.L98
 369:Lib/AI_Runtime/Npu/ll_aton/ll_aton.c ****     }
 370:Lib/AI_Runtime/Npu/ll_aton/ll_aton.c ****   }
 371:Lib/AI_Runtime/Npu/ll_aton/ll_aton.c **** 
 372:Lib/AI_Runtime/Npu/ll_aton/ll_aton.c ****   return 0;
 1794              		.loc 1 372 10
 1795 016c 0023     		movs	r3, #0
 373:Lib/AI_Runtime/Npu/ll_aton/ll_aton.c **** }
 1796              		.loc 1 373 1
 1797 016e 1846     		mov	r0, r3
 1798 0170 3437     		adds	r7, r7, #52
 1799              		.cfi_def_cfa_offset 4
 1800 0172 BD46     		mov	sp, r7
 1801              		.cfi_def_cfa_register 13
 1802              		@ sp needed
 1803 0174 5DF8047B 		ldr	r7, [sp], #4
 1804              		.cfi_restore 7
 1805              		.cfi_def_cfa_offset 0
 1806 0178 7047     		bx	lr
 1807              	.L102:
 1808 017a 00BF     		.align	2
 1809              	.L101:
 1810 017c 00000000 		.word	Conv_ctrl_bits
 1811 0180 00D00F58 		.word	1477431296
 1812              		.cfi_endproc
 1813              	.LFE4827:
 1815              		.section	.text.LL_ATON_DisableUnits_Init,"ax",%progbits
 1816              		.align	1
 1817              		.global	LL_ATON_DisableUnits_Init
 1818              		.syntax unified
 1819              		.thumb
 1820              		.thumb_func
 1822              	LL_ATON_DisableUnits_Init:
 1823              	.LFB4828:
 374:Lib/AI_Runtime/Npu/ll_aton/ll_aton.c **** 
 375:Lib/AI_Runtime/Npu/ll_aton/ll_aton.c **** /**
 376:Lib/AI_Runtime/Npu/ll_aton/ll_aton.c ****  * @brief  Disables a set of ATON units
 377:Lib/AI_Runtime/Npu/ll_aton/ll_aton.c ****  * @param  LL_ATON_DisableUnits_InitTypeDef Array of units to disable
 378:Lib/AI_Runtime/Npu/ll_aton/ll_aton.c ****  * @param  n Length of the initialization array
 379:Lib/AI_Runtime/Npu/ll_aton/ll_aton.c ****  * @retval Error code
 380:Lib/AI_Runtime/Npu/ll_aton/ll_aton.c ****  */
 381:Lib/AI_Runtime/Npu/ll_aton/ll_aton.c **** int LL_ATON_DisableUnits_Init(const LL_ATON_DisableUnits_InitTypeDef *LL_ATON_DisableUnits_InitStru
 382:Lib/AI_Runtime/Npu/ll_aton/ll_aton.c **** {
 1824              		.loc 1 382 1
 1825              		.cfi_startproc
 1826              		@ args = 0, pretend = 0, frame = 24
 1827              		@ frame_needed = 1, uses_anonymous_args = 0
 1828 0000 80B5     		push	{r7, lr}
 1829              		.cfi_def_cfa_offset 8
 1830              		.cfi_offset 7, -8
 1831              		.cfi_offset 14, -4
 1832 0002 86B0     		sub	sp, sp, #24
 1833              		.cfi_def_cfa_offset 32
 1834 0004 00AF     		add	r7, sp, #0
 1835              		.cfi_def_cfa_register 7
 1836 0006 7860     		str	r0, [r7, #4]
 1837 0008 3960     		str	r1, [r7]
ARM GAS  /tmp/ccxZaNgH.s 			page 51


 383:Lib/AI_Runtime/Npu/ll_aton/ll_aton.c ****   int i;
 384:Lib/AI_Runtime/Npu/ll_aton/ll_aton.c ****   enum AccelUnitsType unitType;
 385:Lib/AI_Runtime/Npu/ll_aton/ll_aton.c ****   uint32_t unitId;
 386:Lib/AI_Runtime/Npu/ll_aton/ll_aton.c ****   uint32_t t;
 387:Lib/AI_Runtime/Npu/ll_aton/ll_aton.c **** 
 388:Lib/AI_Runtime/Npu/ll_aton/ll_aton.c ****   for (i = 0; i < n; i++)
 1838              		.loc 1 388 10
 1839 000a 0023     		movs	r3, #0
 1840 000c 7B61     		str	r3, [r7, #20]
 1841              		.loc 1 388 3
 1842 000e B1E1     		b	.L104
 1843              	.L130:
 389:Lib/AI_Runtime/Npu/ll_aton/ll_aton.c ****   {
 390:Lib/AI_Runtime/Npu/ll_aton/ll_aton.c ****     unitType = LL_ATON_DisableUnits_InitStruct[i].unit.unit_type;
 1844              		.loc 1 390 47
 1845 0010 7B69     		ldr	r3, [r7, #20]
 1846 0012 9B00     		lsls	r3, r3, #2
 1847 0014 7A68     		ldr	r2, [r7, #4]
 1848 0016 1344     		add	r3, r3, r2
 1849              		.loc 1 390 14
 1850 0018 1B78     		ldrb	r3, [r3]
 1851 001a FB74     		strb	r3, [r7, #19]
 391:Lib/AI_Runtime/Npu/ll_aton/ll_aton.c ****     unitId = LL_ATON_DisableUnits_InitStruct[i].unit.unit_num;
 1852              		.loc 1 391 45
 1853 001c 7B69     		ldr	r3, [r7, #20]
 1854 001e 9B00     		lsls	r3, r3, #2
 1855 0020 7A68     		ldr	r2, [r7, #4]
 1856 0022 1344     		add	r3, r3, r2
 1857              		.loc 1 391 53
 1858 0024 5B88     		ldrh	r3, [r3, #2]
 1859              		.loc 1 391 12
 1860 0026 FB60     		str	r3, [r7, #12]
 392:Lib/AI_Runtime/Npu/ll_aton/ll_aton.c **** 
 393:Lib/AI_Runtime/Npu/ll_aton/ll_aton.c ****     switch (unitType)
 1861              		.loc 1 393 5
 1862 0028 FB7C     		ldrb	r3, [r7, #19]	@ zero_extendqisi2
 1863 002a 082B     		cmp	r3, #8
 1864 002c 00F29C81 		bhi	.L105
 1865 0030 01A2     		adr	r2, .L107
 1866 0032 52F823F0 		ldr	pc, [r2, r3, lsl #2]
 1867 0036 00BF     		.p2align 2
 1868              	.L107:
 1869 0038 5D000000 		.word	.L113+1
 1870 003c 69030000 		.word	.L105+1
 1871 0040 CD000000 		.word	.L112+1
 1872 0044 41010000 		.word	.L111+1
 1873 0048 B5010000 		.word	.L110+1
 1874 004c 29020000 		.word	.L109+1
 1875 0050 A1020000 		.word	.L108+1
 1876 0054 69030000 		.word	.L105+1
 1877 0058 19030000 		.word	.L106+1
 1878              		.p2align 1
 1879              	.L113:
 394:Lib/AI_Runtime/Npu/ll_aton/ll_aton.c ****     {
 395:Lib/AI_Runtime/Npu/ll_aton/ll_aton.c **** #ifdef ATON_STRENG_NUM
 396:Lib/AI_Runtime/Npu/ll_aton/ll_aton.c ****     case STRENG:
 397:Lib/AI_Runtime/Npu/ll_aton/ll_aton.c ****       ATON_DISABLE_CLR_CONFCLR(STRENG, unitId);
ARM GAS  /tmp/ccxZaNgH.s 			page 52


 1880              		.loc 1 397 7
 1881 005c 0023     		movs	r3, #0
 1882 005e BB60     		str	r3, [r7, #8]
 1883 0060 BB68     		ldr	r3, [r7, #8]
 1884 0062 23F00103 		bic	r3, r3, #1
 1885 0066 BB60     		str	r3, [r7, #8]
 1886 0068 BB68     		ldr	r3, [r7, #8]
 1887 006a 43F00203 		orr	r3, r3, #2
 1888 006e BB60     		str	r3, [r7, #8]
 1889 0070 FB68     		ldr	r3, [r7, #12]
 1890 0072 03F5B023 		add	r3, r3, #360448
 1891 0076 E533     		adds	r3, r3, #229
 1892 0078 1B03     		lsls	r3, r3, #12
 1893 007a 1A46     		mov	r2, r3
 1894 007c BB68     		ldr	r3, [r7, #8]
 1895 007e 1360     		str	r3, [r2]
 1896              	.L114:
 1897              		.loc 1 397 7 is_stmt 0 discriminator 2
 1898 0080 FB68     		ldr	r3, [r7, #12]
 1899 0082 03F5B023 		add	r3, r3, #360448
 1900 0086 E533     		adds	r3, r3, #229
 1901 0088 1B03     		lsls	r3, r3, #12
 1902 008a 1B68     		ldr	r3, [r3]
 1903 008c 03F00203 		and	r3, r3, #2
 1904 0090 002B     		cmp	r3, #0
 1905 0092 F5D1     		bne	.L114
 1906              		.loc 1 397 7 discriminator 3
 1907 0094 0023     		movs	r3, #0
 1908 0096 BB60     		str	r3, [r7, #8]
 1909 0098 BB68     		ldr	r3, [r7, #8]
 1910 009a 43F08043 		orr	r3, r3, #1073741824
 1911 009e BB60     		str	r3, [r7, #8]
 1912 00a0 FB68     		ldr	r3, [r7, #12]
 1913 00a2 03F5B023 		add	r3, r3, #360448
 1914 00a6 E533     		adds	r3, r3, #229
 1915 00a8 1B03     		lsls	r3, r3, #12
 1916 00aa 1A46     		mov	r2, r3
 1917 00ac BB68     		ldr	r3, [r7, #8]
 1918 00ae 1360     		str	r3, [r2]
 1919              	.L115:
 1920              		.loc 1 397 7 discriminator 5
 1921 00b0 FB68     		ldr	r3, [r7, #12]
 1922 00b2 03F5B023 		add	r3, r3, #360448
 1923 00b6 E533     		adds	r3, r3, #229
 1924 00b8 1B03     		lsls	r3, r3, #12
 1925 00ba 1B68     		ldr	r3, [r3]
 1926 00bc 03F08043 		and	r3, r3, #1073741824
 1927 00c0 002B     		cmp	r3, #0
 1928 00c2 F5D1     		bne	.L115
 398:Lib/AI_Runtime/Npu/ll_aton/ll_aton.c ****       LL_ATON_DisableClock(ATON_STRENG_CLKB_CLK(unitId));
 1929              		.loc 1 398 7 is_stmt 1
 1930 00c4 F868     		ldr	r0, [r7, #12]
 1931 00c6 FFF7FEFF 		bl	LL_ATON_DisableClock
 399:Lib/AI_Runtime/Npu/ll_aton/ll_aton.c ****       break;
 1932              		.loc 1 399 7
 1933 00ca 50E1     		b	.L116
 1934              	.L112:
ARM GAS  /tmp/ccxZaNgH.s 			page 53


 400:Lib/AI_Runtime/Npu/ll_aton/ll_aton.c **** #endif
 401:Lib/AI_Runtime/Npu/ll_aton/ll_aton.c **** 
 402:Lib/AI_Runtime/Npu/ll_aton/ll_aton.c **** #ifdef ATON_CONVACC_NUM
 403:Lib/AI_Runtime/Npu/ll_aton/ll_aton.c ****     case CONVACC:
 404:Lib/AI_Runtime/Npu/ll_aton/ll_aton.c ****       ATON_DISABLE_CLR_CONFCLR(CONVACC, unitId);
 1935              		.loc 1 404 7
 1936 00cc 0023     		movs	r3, #0
 1937 00ce BB60     		str	r3, [r7, #8]
 1938 00d0 BB68     		ldr	r3, [r7, #8]
 1939 00d2 23F00103 		bic	r3, r3, #1
 1940 00d6 BB60     		str	r3, [r7, #8]
 1941 00d8 BB68     		ldr	r3, [r7, #8]
 1942 00da 43F00203 		orr	r3, r3, #2
 1943 00de BB60     		str	r3, [r7, #8]
 1944 00e0 FB68     		ldr	r3, [r7, #12]
 1945 00e2 03F5B023 		add	r3, r3, #360448
 1946 00e6 EF33     		adds	r3, r3, #239
 1947 00e8 1B03     		lsls	r3, r3, #12
 1948 00ea 1A46     		mov	r2, r3
 1949 00ec BB68     		ldr	r3, [r7, #8]
 1950 00ee 1360     		str	r3, [r2]
 1951              	.L117:
 1952              		.loc 1 404 7 is_stmt 0 discriminator 2
 1953 00f0 FB68     		ldr	r3, [r7, #12]
 1954 00f2 03F5B023 		add	r3, r3, #360448
 1955 00f6 EF33     		adds	r3, r3, #239
 1956 00f8 1B03     		lsls	r3, r3, #12
 1957 00fa 1B68     		ldr	r3, [r3]
 1958 00fc 03F00203 		and	r3, r3, #2
 1959 0100 002B     		cmp	r3, #0
 1960 0102 F5D1     		bne	.L117
 1961              		.loc 1 404 7 discriminator 3
 1962 0104 0023     		movs	r3, #0
 1963 0106 BB60     		str	r3, [r7, #8]
 1964 0108 BB68     		ldr	r3, [r7, #8]
 1965 010a 43F08043 		orr	r3, r3, #1073741824
 1966 010e BB60     		str	r3, [r7, #8]
 1967 0110 FB68     		ldr	r3, [r7, #12]
 1968 0112 03F5B023 		add	r3, r3, #360448
 1969 0116 EF33     		adds	r3, r3, #239
 1970 0118 1B03     		lsls	r3, r3, #12
 1971 011a 1A46     		mov	r2, r3
 1972 011c BB68     		ldr	r3, [r7, #8]
 1973 011e 1360     		str	r3, [r2]
 1974              	.L118:
 1975              		.loc 1 404 7 discriminator 5
 1976 0120 FB68     		ldr	r3, [r7, #12]
 1977 0122 03F5B023 		add	r3, r3, #360448
 1978 0126 EF33     		adds	r3, r3, #239
 1979 0128 1B03     		lsls	r3, r3, #12
 1980 012a 1B68     		ldr	r3, [r3]
 1981 012c 03F08043 		and	r3, r3, #1073741824
 1982 0130 002B     		cmp	r3, #0
 1983 0132 F5D1     		bne	.L118
 405:Lib/AI_Runtime/Npu/ll_aton/ll_aton.c ****       LL_ATON_DisableClock(ATON_CONVACC_CLKB_CLK(unitId));
 1984              		.loc 1 405 28 is_stmt 1
 1985 0134 FB68     		ldr	r3, [r7, #12]
ARM GAS  /tmp/ccxZaNgH.s 			page 54


 1986 0136 0A33     		adds	r3, r3, #10
 1987              		.loc 1 405 7
 1988 0138 1846     		mov	r0, r3
 1989 013a FFF7FEFF 		bl	LL_ATON_DisableClock
 406:Lib/AI_Runtime/Npu/ll_aton/ll_aton.c ****       break;
 1990              		.loc 1 406 7
 1991 013e 16E1     		b	.L116
 1992              	.L111:
 407:Lib/AI_Runtime/Npu/ll_aton/ll_aton.c **** #endif
 408:Lib/AI_Runtime/Npu/ll_aton/ll_aton.c **** 
 409:Lib/AI_Runtime/Npu/ll_aton/ll_aton.c **** #ifdef ATON_DECUN_NUM
 410:Lib/AI_Runtime/Npu/ll_aton/ll_aton.c ****     case DECUN:
 411:Lib/AI_Runtime/Npu/ll_aton/ll_aton.c ****       ATON_DISABLE_CLR_CONFCLR(DECUN, unitId);
 1993              		.loc 1 411 7
 1994 0140 0023     		movs	r3, #0
 1995 0142 BB60     		str	r3, [r7, #8]
 1996 0144 BB68     		ldr	r3, [r7, #8]
 1997 0146 23F00103 		bic	r3, r3, #1
 1998 014a BB60     		str	r3, [r7, #8]
 1999 014c BB68     		ldr	r3, [r7, #8]
 2000 014e 43F00203 		orr	r3, r3, #2
 2001 0152 BB60     		str	r3, [r7, #8]
 2002 0154 FB68     		ldr	r3, [r7, #12]
 2003 0156 03F5B023 		add	r3, r3, #360448
 2004 015a F333     		adds	r3, r3, #243
 2005 015c 1B03     		lsls	r3, r3, #12
 2006 015e 1A46     		mov	r2, r3
 2007 0160 BB68     		ldr	r3, [r7, #8]
 2008 0162 1360     		str	r3, [r2]
 2009              	.L119:
 2010              		.loc 1 411 7 is_stmt 0 discriminator 2
 2011 0164 FB68     		ldr	r3, [r7, #12]
 2012 0166 03F5B023 		add	r3, r3, #360448
 2013 016a F333     		adds	r3, r3, #243
 2014 016c 1B03     		lsls	r3, r3, #12
 2015 016e 1B68     		ldr	r3, [r3]
 2016 0170 03F00203 		and	r3, r3, #2
 2017 0174 002B     		cmp	r3, #0
 2018 0176 F5D1     		bne	.L119
 2019              		.loc 1 411 7 discriminator 3
 2020 0178 0023     		movs	r3, #0
 2021 017a BB60     		str	r3, [r7, #8]
 2022 017c BB68     		ldr	r3, [r7, #8]
 2023 017e 43F08043 		orr	r3, r3, #1073741824
 2024 0182 BB60     		str	r3, [r7, #8]
 2025 0184 FB68     		ldr	r3, [r7, #12]
 2026 0186 03F5B023 		add	r3, r3, #360448
 2027 018a F333     		adds	r3, r3, #243
 2028 018c 1B03     		lsls	r3, r3, #12
 2029 018e 1A46     		mov	r2, r3
 2030 0190 BB68     		ldr	r3, [r7, #8]
 2031 0192 1360     		str	r3, [r2]
 2032              	.L120:
 2033              		.loc 1 411 7 discriminator 5
 2034 0194 FB68     		ldr	r3, [r7, #12]
 2035 0196 03F5B023 		add	r3, r3, #360448
 2036 019a F333     		adds	r3, r3, #243
ARM GAS  /tmp/ccxZaNgH.s 			page 55


 2037 019c 1B03     		lsls	r3, r3, #12
 2038 019e 1B68     		ldr	r3, [r3]
 2039 01a0 03F08043 		and	r3, r3, #1073741824
 2040 01a4 002B     		cmp	r3, #0
 2041 01a6 F5D1     		bne	.L120
 412:Lib/AI_Runtime/Npu/ll_aton/ll_aton.c ****       LL_ATON_DisableClock(ATON_DECUN_CLKB_CLK(unitId));
 2042              		.loc 1 412 28 is_stmt 1
 2043 01a8 FB68     		ldr	r3, [r7, #12]
 2044 01aa 0E33     		adds	r3, r3, #14
 2045              		.loc 1 412 7
 2046 01ac 1846     		mov	r0, r3
 2047 01ae FFF7FEFF 		bl	LL_ATON_DisableClock
 413:Lib/AI_Runtime/Npu/ll_aton/ll_aton.c ****       break;
 2048              		.loc 1 413 7
 2049 01b2 DCE0     		b	.L116
 2050              	.L110:
 414:Lib/AI_Runtime/Npu/ll_aton/ll_aton.c **** #endif
 415:Lib/AI_Runtime/Npu/ll_aton/ll_aton.c **** 
 416:Lib/AI_Runtime/Npu/ll_aton/ll_aton.c **** #ifdef ATON_ACTIV_NUM
 417:Lib/AI_Runtime/Npu/ll_aton/ll_aton.c ****     case ACTIV:
 418:Lib/AI_Runtime/Npu/ll_aton/ll_aton.c ****       ATON_DISABLE_CLR_CONFCLR(ACTIV, unitId);
 2051              		.loc 1 418 7
 2052 01b4 744B     		ldr	r3, .L131
 2053 01b6 BB60     		str	r3, [r7, #8]
 2054 01b8 BB68     		ldr	r3, [r7, #8]
 2055 01ba 23F00103 		bic	r3, r3, #1
 2056 01be BB60     		str	r3, [r7, #8]
 2057 01c0 BB68     		ldr	r3, [r7, #8]
 2058 01c2 43F00203 		orr	r3, r3, #2
 2059 01c6 BB60     		str	r3, [r7, #8]
 2060 01c8 FB68     		ldr	r3, [r7, #12]
 2061 01ca 03F5B023 		add	r3, r3, #360448
 2062 01ce F533     		adds	r3, r3, #245
 2063 01d0 1B03     		lsls	r3, r3, #12
 2064 01d2 1A46     		mov	r2, r3
 2065 01d4 BB68     		ldr	r3, [r7, #8]
 2066 01d6 1360     		str	r3, [r2]
 2067              	.L121:
 2068              		.loc 1 418 7 is_stmt 0 discriminator 2
 2069 01d8 FB68     		ldr	r3, [r7, #12]
 2070 01da 03F5B023 		add	r3, r3, #360448
 2071 01de F533     		adds	r3, r3, #245
 2072 01e0 1B03     		lsls	r3, r3, #12
 2073 01e2 1B68     		ldr	r3, [r3]
 2074 01e4 03F00203 		and	r3, r3, #2
 2075 01e8 002B     		cmp	r3, #0
 2076 01ea F5D1     		bne	.L121
 2077              		.loc 1 418 7 discriminator 3
 2078 01ec 664B     		ldr	r3, .L131
 2079 01ee BB60     		str	r3, [r7, #8]
 2080 01f0 BB68     		ldr	r3, [r7, #8]
 2081 01f2 43F08043 		orr	r3, r3, #1073741824
 2082 01f6 BB60     		str	r3, [r7, #8]
 2083 01f8 FB68     		ldr	r3, [r7, #12]
 2084 01fa 03F5B023 		add	r3, r3, #360448
 2085 01fe F533     		adds	r3, r3, #245
 2086 0200 1B03     		lsls	r3, r3, #12
ARM GAS  /tmp/ccxZaNgH.s 			page 56


 2087 0202 1A46     		mov	r2, r3
 2088 0204 BB68     		ldr	r3, [r7, #8]
 2089 0206 1360     		str	r3, [r2]
 2090              	.L122:
 2091              		.loc 1 418 7 discriminator 5
 2092 0208 FB68     		ldr	r3, [r7, #12]
 2093 020a 03F5B023 		add	r3, r3, #360448
 2094 020e F533     		adds	r3, r3, #245
 2095 0210 1B03     		lsls	r3, r3, #12
 2096 0212 1B68     		ldr	r3, [r3]
 2097 0214 03F08043 		and	r3, r3, #1073741824
 2098 0218 002B     		cmp	r3, #0
 2099 021a F5D1     		bne	.L122
 419:Lib/AI_Runtime/Npu/ll_aton/ll_aton.c ****       LL_ATON_DisableClock(ATON_ACTIV_CLKB_CLK(unitId));
 2100              		.loc 1 419 28 is_stmt 1
 2101 021c FB68     		ldr	r3, [r7, #12]
 2102 021e 1033     		adds	r3, r3, #16
 2103              		.loc 1 419 7
 2104 0220 1846     		mov	r0, r3
 2105 0222 FFF7FEFF 		bl	LL_ATON_DisableClock
 420:Lib/AI_Runtime/Npu/ll_aton/ll_aton.c ****       break;
 2106              		.loc 1 420 7
 2107 0226 A2E0     		b	.L116
 2108              	.L109:
 421:Lib/AI_Runtime/Npu/ll_aton/ll_aton.c **** #endif
 422:Lib/AI_Runtime/Npu/ll_aton/ll_aton.c **** 
 423:Lib/AI_Runtime/Npu/ll_aton/ll_aton.c **** #ifdef ATON_ARITH_NUM
 424:Lib/AI_Runtime/Npu/ll_aton/ll_aton.c ****     case ARITH:
 425:Lib/AI_Runtime/Npu/ll_aton/ll_aton.c ****       ATON_DISABLE_CLR_CONFCLR(ARITH, unitId);
 2109              		.loc 1 425 7
 2110 0228 4FF00063 		mov	r3, #134217728
 2111 022c BB60     		str	r3, [r7, #8]
 2112 022e BB68     		ldr	r3, [r7, #8]
 2113 0230 23F00103 		bic	r3, r3, #1
 2114 0234 BB60     		str	r3, [r7, #8]
 2115 0236 BB68     		ldr	r3, [r7, #8]
 2116 0238 43F00203 		orr	r3, r3, #2
 2117 023c BB60     		str	r3, [r7, #8]
 2118 023e FB68     		ldr	r3, [r7, #12]
 2119 0240 03F5B023 		add	r3, r3, #360448
 2120 0244 F733     		adds	r3, r3, #247
 2121 0246 1B03     		lsls	r3, r3, #12
 2122 0248 1A46     		mov	r2, r3
 2123 024a BB68     		ldr	r3, [r7, #8]
 2124 024c 1360     		str	r3, [r2]
 2125              	.L123:
 2126              		.loc 1 425 7 is_stmt 0 discriminator 2
 2127 024e FB68     		ldr	r3, [r7, #12]
 2128 0250 03F5B023 		add	r3, r3, #360448
 2129 0254 F733     		adds	r3, r3, #247
 2130 0256 1B03     		lsls	r3, r3, #12
 2131 0258 1B68     		ldr	r3, [r3]
 2132 025a 03F00203 		and	r3, r3, #2
 2133 025e 002B     		cmp	r3, #0
 2134 0260 F5D1     		bne	.L123
 2135              		.loc 1 425 7 discriminator 3
 2136 0262 4FF00063 		mov	r3, #134217728
ARM GAS  /tmp/ccxZaNgH.s 			page 57


 2137 0266 BB60     		str	r3, [r7, #8]
 2138 0268 BB68     		ldr	r3, [r7, #8]
 2139 026a 43F08043 		orr	r3, r3, #1073741824
 2140 026e BB60     		str	r3, [r7, #8]
 2141 0270 FB68     		ldr	r3, [r7, #12]
 2142 0272 03F5B023 		add	r3, r3, #360448
 2143 0276 F733     		adds	r3, r3, #247
 2144 0278 1B03     		lsls	r3, r3, #12
 2145 027a 1A46     		mov	r2, r3
 2146 027c BB68     		ldr	r3, [r7, #8]
 2147 027e 1360     		str	r3, [r2]
 2148              	.L124:
 2149              		.loc 1 425 7 discriminator 5
 2150 0280 FB68     		ldr	r3, [r7, #12]
 2151 0282 03F5B023 		add	r3, r3, #360448
 2152 0286 F733     		adds	r3, r3, #247
 2153 0288 1B03     		lsls	r3, r3, #12
 2154 028a 1B68     		ldr	r3, [r3]
 2155 028c 03F08043 		and	r3, r3, #1073741824
 2156 0290 002B     		cmp	r3, #0
 2157 0292 F5D1     		bne	.L124
 426:Lib/AI_Runtime/Npu/ll_aton/ll_aton.c ****       LL_ATON_DisableClock(ATON_ARITH_CLKB_CLK(unitId));
 2158              		.loc 1 426 28 is_stmt 1
 2159 0294 FB68     		ldr	r3, [r7, #12]
 2160 0296 1233     		adds	r3, r3, #18
 2161              		.loc 1 426 7
 2162 0298 1846     		mov	r0, r3
 2163 029a FFF7FEFF 		bl	LL_ATON_DisableClock
 427:Lib/AI_Runtime/Npu/ll_aton/ll_aton.c ****       break;
 2164              		.loc 1 427 7
 2165 029e 66E0     		b	.L116
 2166              	.L108:
 428:Lib/AI_Runtime/Npu/ll_aton/ll_aton.c **** #endif
 429:Lib/AI_Runtime/Npu/ll_aton/ll_aton.c **** 
 430:Lib/AI_Runtime/Npu/ll_aton/ll_aton.c **** #ifdef ATON_POOL_NUM
 431:Lib/AI_Runtime/Npu/ll_aton/ll_aton.c ****     case POOL:
 432:Lib/AI_Runtime/Npu/ll_aton/ll_aton.c **** #ifdef POOL_RC14
 433:Lib/AI_Runtime/Npu/ll_aton/ll_aton.c ****       ATON_POOL_CTRL_SET(unitId, ATON_POOL_CTRL_SET_EN(ATON_POOL_CTRL_GET(unitId), 0));
 434:Lib/AI_Runtime/Npu/ll_aton/ll_aton.c **** #else  // !POOL_RC14
 435:Lib/AI_Runtime/Npu/ll_aton/ll_aton.c ****       ATON_DISABLE_CLR_CONFCLR(POOL, unitId);
 2167              		.loc 1 435 7
 2168 02a0 4FF48403 		mov	r3, #4325376
 2169 02a4 BB60     		str	r3, [r7, #8]
 2170 02a6 BB68     		ldr	r3, [r7, #8]
 2171 02a8 23F00103 		bic	r3, r3, #1
 2172 02ac BB60     		str	r3, [r7, #8]
 2173 02ae BB68     		ldr	r3, [r7, #8]
 2174 02b0 43F00203 		orr	r3, r3, #2
 2175 02b4 BB60     		str	r3, [r7, #8]
 2176 02b6 FB68     		ldr	r3, [r7, #12]
 2177 02b8 03F5B023 		add	r3, r3, #360448
 2178 02bc FB33     		adds	r3, r3, #251
 2179 02be 1B03     		lsls	r3, r3, #12
 2180 02c0 1A46     		mov	r2, r3
 2181 02c2 BB68     		ldr	r3, [r7, #8]
 2182 02c4 1360     		str	r3, [r2]
 2183              	.L125:
ARM GAS  /tmp/ccxZaNgH.s 			page 58


 2184              		.loc 1 435 7 is_stmt 0 discriminator 2
 2185 02c6 FB68     		ldr	r3, [r7, #12]
 2186 02c8 03F5B023 		add	r3, r3, #360448
 2187 02cc FB33     		adds	r3, r3, #251
 2188 02ce 1B03     		lsls	r3, r3, #12
 2189 02d0 1B68     		ldr	r3, [r3]
 2190 02d2 03F00203 		and	r3, r3, #2
 2191 02d6 002B     		cmp	r3, #0
 2192 02d8 F5D1     		bne	.L125
 2193              		.loc 1 435 7 discriminator 3
 2194 02da 4FF48403 		mov	r3, #4325376
 2195 02de BB60     		str	r3, [r7, #8]
 2196 02e0 BB68     		ldr	r3, [r7, #8]
 2197 02e2 43F08043 		orr	r3, r3, #1073741824
 2198 02e6 BB60     		str	r3, [r7, #8]
 2199 02e8 FB68     		ldr	r3, [r7, #12]
 2200 02ea 03F5B023 		add	r3, r3, #360448
 2201 02ee FB33     		adds	r3, r3, #251
 2202 02f0 1B03     		lsls	r3, r3, #12
 2203 02f2 1A46     		mov	r2, r3
 2204 02f4 BB68     		ldr	r3, [r7, #8]
 2205 02f6 1360     		str	r3, [r2]
 2206              	.L126:
 2207              		.loc 1 435 7 discriminator 5
 2208 02f8 FB68     		ldr	r3, [r7, #12]
 2209 02fa 03F5B023 		add	r3, r3, #360448
 2210 02fe FB33     		adds	r3, r3, #251
 2211 0300 1B03     		lsls	r3, r3, #12
 2212 0302 1B68     		ldr	r3, [r3]
 2213 0304 03F08043 		and	r3, r3, #1073741824
 2214 0308 002B     		cmp	r3, #0
 2215 030a F5D1     		bne	.L126
 436:Lib/AI_Runtime/Npu/ll_aton/ll_aton.c **** #endif // !POOL_RC14
 437:Lib/AI_Runtime/Npu/ll_aton/ll_aton.c **** 
 438:Lib/AI_Runtime/Npu/ll_aton/ll_aton.c ****       LL_ATON_DisableClock(ATON_POOL_CLKB_CLK(unitId));
 2216              		.loc 1 438 28 is_stmt 1
 2217 030c FB68     		ldr	r3, [r7, #12]
 2218 030e 1633     		adds	r3, r3, #22
 2219              		.loc 1 438 7
 2220 0310 1846     		mov	r0, r3
 2221 0312 FFF7FEFF 		bl	LL_ATON_DisableClock
 439:Lib/AI_Runtime/Npu/ll_aton/ll_aton.c ****       break;
 2222              		.loc 1 439 7
 2223 0316 2AE0     		b	.L116
 2224              	.L106:
 440:Lib/AI_Runtime/Npu/ll_aton/ll_aton.c **** #endif
 441:Lib/AI_Runtime/Npu/ll_aton/ll_aton.c **** 
 442:Lib/AI_Runtime/Npu/ll_aton/ll_aton.c **** #ifdef ATON_RECBUF_NUM
 443:Lib/AI_Runtime/Npu/ll_aton/ll_aton.c ****     case RECBUF:
 444:Lib/AI_Runtime/Npu/ll_aton/ll_aton.c ****       ATON_DISABLE_CLR_CONFCLR(RECBUF, unitId);
 2225              		.loc 1 444 7
 2226 0318 0023     		movs	r3, #0
 2227 031a BB60     		str	r3, [r7, #8]
 2228 031c BB68     		ldr	r3, [r7, #8]
 2229 031e 23F00103 		bic	r3, r3, #1
 2230 0322 BB60     		str	r3, [r7, #8]
 2231 0324 BB68     		ldr	r3, [r7, #8]
ARM GAS  /tmp/ccxZaNgH.s 			page 59


 2232 0326 43F00203 		orr	r3, r3, #2
 2233 032a BB60     		str	r3, [r7, #8]
 2234 032c 174A     		ldr	r2, .L131+4
 2235 032e BB68     		ldr	r3, [r7, #8]
 2236 0330 1360     		str	r3, [r2]
 2237              	.L127:
 2238              		.loc 1 444 7 is_stmt 0 discriminator 2
 2239 0332 164B     		ldr	r3, .L131+4
 2240 0334 1B68     		ldr	r3, [r3]
 2241 0336 03F00203 		and	r3, r3, #2
 2242 033a 002B     		cmp	r3, #0
 2243 033c F9D1     		bne	.L127
 2244              		.loc 1 444 7 discriminator 3
 2245 033e 0023     		movs	r3, #0
 2246 0340 BB60     		str	r3, [r7, #8]
 2247 0342 BB68     		ldr	r3, [r7, #8]
 2248 0344 43F08043 		orr	r3, r3, #1073741824
 2249 0348 BB60     		str	r3, [r7, #8]
 2250 034a 104A     		ldr	r2, .L131+4
 2251 034c BB68     		ldr	r3, [r7, #8]
 2252 034e 1360     		str	r3, [r2]
 2253              	.L128:
 2254              		.loc 1 444 7 discriminator 5
 2255 0350 0E4B     		ldr	r3, .L131+4
 2256 0352 1B68     		ldr	r3, [r3]
 2257 0354 03F08043 		and	r3, r3, #1073741824
 2258 0358 002B     		cmp	r3, #0
 2259 035a F9D1     		bne	.L128
 445:Lib/AI_Runtime/Npu/ll_aton/ll_aton.c ****       LL_ATON_DisableClock(ATON_RECBUF_CLKB_CLK(unitId));
 2260              		.loc 1 445 28 is_stmt 1
 2261 035c FB68     		ldr	r3, [r7, #12]
 2262 035e 1833     		adds	r3, r3, #24
 2263              		.loc 1 445 7
 2264 0360 1846     		mov	r0, r3
 2265 0362 FFF7FEFF 		bl	LL_ATON_DisableClock
 446:Lib/AI_Runtime/Npu/ll_aton/ll_aton.c ****       break;
 2266              		.loc 1 446 7
 2267 0366 02E0     		b	.L116
 2268              	.L105:
 447:Lib/AI_Runtime/Npu/ll_aton/ll_aton.c **** #endif
 448:Lib/AI_Runtime/Npu/ll_aton/ll_aton.c **** 
 449:Lib/AI_Runtime/Npu/ll_aton/ll_aton.c ****     default:
 450:Lib/AI_Runtime/Npu/ll_aton/ll_aton.c ****       return LL_ATON_INVALID_PARAM;
 2269              		.loc 1 450 14
 2270 0368 6FF00103 		mvn	r3, #1
 2271 036c 08E0     		b	.L129
 2272              	.L116:
 388:Lib/AI_Runtime/Npu/ll_aton/ll_aton.c ****   {
 2273              		.loc 1 388 23 discriminator 2
 2274 036e 7B69     		ldr	r3, [r7, #20]
 2275 0370 0133     		adds	r3, r3, #1
 2276 0372 7B61     		str	r3, [r7, #20]
 2277              	.L104:
 388:Lib/AI_Runtime/Npu/ll_aton/ll_aton.c ****   {
 2278              		.loc 1 388 17 discriminator 1
 2279 0374 7A69     		ldr	r2, [r7, #20]
 2280 0376 3B68     		ldr	r3, [r7]
ARM GAS  /tmp/ccxZaNgH.s 			page 60


 2281 0378 9A42     		cmp	r2, r3
 2282 037a FFF649AE 		blt	.L130
 451:Lib/AI_Runtime/Npu/ll_aton/ll_aton.c ****     }
 452:Lib/AI_Runtime/Npu/ll_aton/ll_aton.c ****   }
 453:Lib/AI_Runtime/Npu/ll_aton/ll_aton.c **** 
 454:Lib/AI_Runtime/Npu/ll_aton/ll_aton.c ****   return LL_ATON_OK;
 2283              		.loc 1 454 10
 2284 037e 0023     		movs	r3, #0
 2285              	.L129:
 455:Lib/AI_Runtime/Npu/ll_aton/ll_aton.c **** }
 2286              		.loc 1 455 1
 2287 0380 1846     		mov	r0, r3
 2288 0382 1837     		adds	r7, r7, #24
 2289              		.cfi_def_cfa_offset 8
 2290 0384 BD46     		mov	sp, r7
 2291              		.cfi_def_cfa_register 13
 2292              		@ sp needed
 2293 0386 80BD     		pop	{r7, pc}
 2294              	.L132:
 2295              		.align	2
 2296              	.L131:
 2297 0388 80108800 		.word	8917120
 2298 038c 00D00F58 		.word	1477431296
 2299              		.cfi_endproc
 2300              	.LFE4828:
 2302              		.section	.rodata
 2303 020e 0000     		.align	2
 2304              	.LC23:
 2305 0210 63686563 		.ascii	"checkWatchdog() == 0\000"
 2305      6B576174 
 2305      6368646F 
 2305      67282920 
 2305      3D3D2030 
 2306              		.section	.text.LL_Streng_Wait,"ax",%progbits
 2307              		.align	1
 2308              		.global	LL_Streng_Wait
 2309              		.syntax unified
 2310              		.thumb
 2311              		.thumb_func
 2313              	LL_Streng_Wait:
 2314              	.LFB4829:
 456:Lib/AI_Runtime/Npu/ll_aton/ll_aton.c **** 
 457:Lib/AI_Runtime/Npu/ll_aton/ll_aton.c **** /**
 458:Lib/AI_Runtime/Npu/ll_aton/ll_aton.c ****  * @brief  Waits for streaming engine(s) to become idle
 459:Lib/AI_Runtime/Npu/ll_aton/ll_aton.c ****  * @param  mask Bitmask of DMA identifiers
 460:Lib/AI_Runtime/Npu/ll_aton/ll_aton.c ****  * @retval Error code
 461:Lib/AI_Runtime/Npu/ll_aton/ll_aton.c ****  */
 462:Lib/AI_Runtime/Npu/ll_aton/ll_aton.c **** int LL_Streng_Wait(uint32_t mask)
 463:Lib/AI_Runtime/Npu/ll_aton/ll_aton.c **** {
 2315              		.loc 1 463 1
 2316              		.cfi_startproc
 2317              		@ args = 0, pretend = 0, frame = 16
 2318              		@ frame_needed = 1, uses_anonymous_args = 0
 2319 0000 80B5     		push	{r7, lr}
 2320              		.cfi_def_cfa_offset 8
 2321              		.cfi_offset 7, -8
 2322              		.cfi_offset 14, -4
ARM GAS  /tmp/ccxZaNgH.s 			page 61


 2323 0002 84B0     		sub	sp, sp, #16
 2324              		.cfi_def_cfa_offset 24
 2325 0004 00AF     		add	r7, sp, #0
 2326              		.cfi_def_cfa_register 7
 2327 0006 7860     		str	r0, [r7, #4]
 464:Lib/AI_Runtime/Npu/ll_aton/ll_aton.c ****   int i;
 465:Lib/AI_Runtime/Npu/ll_aton/ll_aton.c ****   uint32_t enableFlags;
 466:Lib/AI_Runtime/Npu/ll_aton/ll_aton.c **** 
 467:Lib/AI_Runtime/Npu/ll_aton/ll_aton.c ****   startWatchdog(ATON_EPOCH_TIMEOUT);
 2328              		.loc 1 467 3
 2329 0008 1A48     		ldr	r0, .L140
 2330 000a FFF7FEFF 		bl	startWatchdog
 2331              	.L138:
 468:Lib/AI_Runtime/Npu/ll_aton/ll_aton.c **** 
 469:Lib/AI_Runtime/Npu/ll_aton/ll_aton.c ****   do
 470:Lib/AI_Runtime/Npu/ll_aton/ll_aton.c ****   {
 471:Lib/AI_Runtime/Npu/ll_aton/ll_aton.c ****     enableFlags = 0;
 2332              		.loc 1 471 17
 2333 000e 0023     		movs	r3, #0
 2334 0010 BB60     		str	r3, [r7, #8]
 472:Lib/AI_Runtime/Npu/ll_aton/ll_aton.c ****     for (i = 0; i < ATON_STRENG_NUM; i++)
 2335              		.loc 1 472 12
 2336 0012 0023     		movs	r3, #0
 2337 0014 FB60     		str	r3, [r7, #12]
 2338              		.loc 1 472 5
 2339 0016 16E0     		b	.L134
 2340              	.L136:
 473:Lib/AI_Runtime/Npu/ll_aton/ll_aton.c ****     {
 474:Lib/AI_Runtime/Npu/ll_aton/ll_aton.c ****       if (mask & (1 << i))
 2341              		.loc 1 474 21
 2342 0018 0122     		movs	r2, #1
 2343 001a FB68     		ldr	r3, [r7, #12]
 2344 001c 02FA03F3 		lsl	r3, r2, r3
 2345 0020 1A46     		mov	r2, r3
 2346              		.loc 1 474 16
 2347 0022 7B68     		ldr	r3, [r7, #4]
 2348 0024 1340     		ands	r3, r3, r2
 2349              		.loc 1 474 10
 2350 0026 002B     		cmp	r3, #0
 2351 0028 0AD0     		beq	.L135
 475:Lib/AI_Runtime/Npu/ll_aton/ll_aton.c ****       {
 476:Lib/AI_Runtime/Npu/ll_aton/ll_aton.c ****         enableFlags |= (ATON_STRENG_CTRL_GET(i) & (1U << ATON_STRENG_CTRL_RUNNING_LSB));
 2352              		.loc 1 476 25
 2353 002a FB68     		ldr	r3, [r7, #12]
 2354 002c 03F5B023 		add	r3, r3, #360448
 2355 0030 E533     		adds	r3, r3, #229
 2356 0032 1B03     		lsls	r3, r3, #12
 2357 0034 1B68     		ldr	r3, [r3]
 2358              		.loc 1 476 49
 2359 0036 03F00043 		and	r3, r3, #-2147483648
 2360              		.loc 1 476 21
 2361 003a BA68     		ldr	r2, [r7, #8]
 2362 003c 1343     		orrs	r3, r3, r2
 2363 003e BB60     		str	r3, [r7, #8]
 2364              	.L135:
 472:Lib/AI_Runtime/Npu/ll_aton/ll_aton.c ****     {
 2365              		.loc 1 472 39 discriminator 2
ARM GAS  /tmp/ccxZaNgH.s 			page 62


 2366 0040 FB68     		ldr	r3, [r7, #12]
 2367 0042 0133     		adds	r3, r3, #1
 2368 0044 FB60     		str	r3, [r7, #12]
 2369              	.L134:
 472:Lib/AI_Runtime/Npu/ll_aton/ll_aton.c ****     {
 2370              		.loc 1 472 19 discriminator 1
 2371 0046 FB68     		ldr	r3, [r7, #12]
 2372 0048 092B     		cmp	r3, #9
 2373 004a E5DD     		ble	.L136
 477:Lib/AI_Runtime/Npu/ll_aton/ll_aton.c ****       }
 478:Lib/AI_Runtime/Npu/ll_aton/ll_aton.c ****     }
 479:Lib/AI_Runtime/Npu/ll_aton/ll_aton.c **** 
 480:Lib/AI_Runtime/Npu/ll_aton/ll_aton.c ****     LL_ATON_ASSERT(checkWatchdog() == 0);
 2374              		.loc 1 480 5
 2375 004c FFF7FEFF 		bl	checkWatchdog
 2376 0050 0346     		mov	r3, r0
 2377              		.loc 1 480 5 is_stmt 0 discriminator 1
 2378 0052 002B     		cmp	r3, #0
 2379 0054 06D0     		beq	.L137
 2380 0056 084B     		ldr	r3, .L140+4
 2381 0058 084A     		ldr	r2, .L140+8
 2382 005a 4FF4F071 		mov	r1, #480
 2383 005e 0848     		ldr	r0, .L140+12
 2384 0060 FFF7FEFF 		bl	__assert_func
 2385              	.L137:
 481:Lib/AI_Runtime/Npu/ll_aton/ll_aton.c **** 
 482:Lib/AI_Runtime/Npu/ll_aton/ll_aton.c ****   } while (enableFlags);
 2386              		.loc 1 482 12 is_stmt 1
 2387 0064 BB68     		ldr	r3, [r7, #8]
 2388 0066 002B     		cmp	r3, #0
 2389 0068 D1D1     		bne	.L138
 483:Lib/AI_Runtime/Npu/ll_aton/ll_aton.c **** 
 484:Lib/AI_Runtime/Npu/ll_aton/ll_aton.c ****   return LL_ATON_OK;
 2390              		.loc 1 484 10
 2391 006a 0023     		movs	r3, #0
 485:Lib/AI_Runtime/Npu/ll_aton/ll_aton.c **** }
 2392              		.loc 1 485 1
 2393 006c 1846     		mov	r0, r3
 2394 006e 1037     		adds	r7, r7, #16
 2395              		.cfi_def_cfa_offset 8
 2396 0070 BD46     		mov	sp, r7
 2397              		.cfi_def_cfa_register 13
 2398              		@ sp needed
 2399 0072 80BD     		pop	{r7, pc}
 2400              	.L141:
 2401              		.align	2
 2402              	.L140:
 2403 0074 80969800 		.word	10000000
 2404 0078 10020000 		.word	.LC23
 2405 007c 00000000 		.word	__func__.7
 2406 0080 3C000000 		.word	.LC4
 2407              		.cfi_endproc
 2408              	.LFE4829:
 2410              		.section	.text.LL_Streng_TensorInit,"ax",%progbits
 2411              		.align	1
 2412              		.global	LL_Streng_TensorInit
 2413              		.syntax unified
ARM GAS  /tmp/ccxZaNgH.s 			page 63


 2414              		.thumb
 2415              		.thumb_func
 2417              	LL_Streng_TensorInit:
 2418              	.LFB4830:
 486:Lib/AI_Runtime/Npu/ll_aton/ll_aton.c **** 
 487:Lib/AI_Runtime/Npu/ll_aton/ll_aton.c **** /**
 488:Lib/AI_Runtime/Npu/ll_aton/ll_aton.c ****  * @brief  Configures streaming engine
 489:Lib/AI_Runtime/Npu/ll_aton/ll_aton.c ****  * @param  id Streaming engine identifier [0..ATON_STRENG_NUM-1]
 490:Lib/AI_Runtime/Npu/ll_aton/ll_aton.c ****  * @param  conf Pointer to structure(s) describing initialization parameters
 491:Lib/AI_Runtime/Npu/ll_aton/ll_aton.c ****  * @param  n Number of elements in initialization structure array
 492:Lib/AI_Runtime/Npu/ll_aton/ll_aton.c ****  * @retval error code. E.g.: Invalid ID, invalid parameters, not idle,..
 493:Lib/AI_Runtime/Npu/ll_aton/ll_aton.c ****  */
 494:Lib/AI_Runtime/Npu/ll_aton/ll_aton.c **** int LL_Streng_TensorInit(int id, const LL_Streng_TensorInitTypeDef *conf, int n)
 495:Lib/AI_Runtime/Npu/ll_aton/ll_aton.c **** {
 2419              		.loc 1 495 1
 2420              		.cfi_startproc
 2421              		@ args = 0, pretend = 0, frame = 88
 2422              		@ frame_needed = 1, uses_anonymous_args = 0
 2423 0000 80B5     		push	{r7, lr}
 2424              		.cfi_def_cfa_offset 8
 2425              		.cfi_offset 7, -8
 2426              		.cfi_offset 14, -4
 2427 0002 96B0     		sub	sp, sp, #88
 2428              		.cfi_def_cfa_offset 96
 2429 0004 00AF     		add	r7, sp, #0
 2430              		.cfi_def_cfa_register 7
 2431 0006 F860     		str	r0, [r7, #12]
 2432 0008 B960     		str	r1, [r7, #8]
 2433 000a 7A60     		str	r2, [r7, #4]
 496:Lib/AI_Runtime/Npu/ll_aton/ll_aton.c ****   uint32_t t;
 497:Lib/AI_Runtime/Npu/ll_aton/ll_aton.c **** 
 498:Lib/AI_Runtime/Npu/ll_aton/ll_aton.c ****   /* deferred register values */
 499:Lib/AI_Runtime/Npu/ll_aton/ll_aton.c ****   uint32_t t_streng_strd = ATON_STRENG_STRD_DT;
 2434              		.loc 1 499 12
 2435 000c 0023     		movs	r3, #0
 2436 000e 3B65     		str	r3, [r7, #80]
 500:Lib/AI_Runtime/Npu/ll_aton/ll_aton.c ****   uint32_t t_streng_cid_cache = ATON_STRENG_CID_CACHE_DT;
 2437              		.loc 1 500 12
 2438 0010 0023     		movs	r3, #0
 2439 0012 FB64     		str	r3, [r7, #76]
 501:Lib/AI_Runtime/Npu/ll_aton/ll_aton.c ****   uint32_t t_streng_event = ATON_STRENG_EVENT_DT;
 2440              		.loc 1 501 12
 2441 0014 0023     		movs	r3, #0
 2442 0016 BB64     		str	r3, [r7, #72]
 502:Lib/AI_Runtime/Npu/ll_aton/ll_aton.c **** 
 503:Lib/AI_Runtime/Npu/ll_aton/ll_aton.c ****   if (id >= ATON_STRENG_NUM)
 2443              		.loc 1 503 6
 2444 0018 FB68     		ldr	r3, [r7, #12]
 2445 001a 092B     		cmp	r3, #9
 2446 001c 02DD     		ble	.L143
 504:Lib/AI_Runtime/Npu/ll_aton/ll_aton.c ****     return LL_ATON_INVALID_ID;
 2447              		.loc 1 504 12
 2448 001e 4FF0FF33 		mov	r3, #-1
 2449 0022 42E3     		b	.L191
 2450              	.L143:
 505:Lib/AI_Runtime/Npu/ll_aton/ll_aton.c **** 
 506:Lib/AI_Runtime/Npu/ll_aton/ll_aton.c ****   LL_ATON_EnableClock(ATON_STRENG_CLKB_CLK(id));
ARM GAS  /tmp/ccxZaNgH.s 			page 64


 2451              		.loc 1 506 3
 2452 0024 FB68     		ldr	r3, [r7, #12]
 2453 0026 1846     		mov	r0, r3
 2454 0028 FFF7FEFF 		bl	LL_ATON_EnableClock
 507:Lib/AI_Runtime/Npu/ll_aton/ll_aton.c **** 
 508:Lib/AI_Runtime/Npu/ll_aton/ll_aton.c **** #define _LL_min(x, y) ((x) > (y) ? (y) : (x))
 509:Lib/AI_Runtime/Npu/ll_aton/ll_aton.c **** 
 510:Lib/AI_Runtime/Npu/ll_aton/ll_aton.c ****   if (n != 1)
 2455              		.loc 1 510 6
 2456 002c 7B68     		ldr	r3, [r7, #4]
 2457 002e 012B     		cmp	r3, #1
 2458 0030 02D0     		beq	.L145
 511:Lib/AI_Runtime/Npu/ll_aton/ll_aton.c ****     return -1;
 2459              		.loc 1 511 12
 2460 0032 4FF0FF33 		mov	r3, #-1
 2461 0036 38E3     		b	.L191
 2462              	.L145:
 512:Lib/AI_Runtime/Npu/ll_aton/ll_aton.c ****     // if (conf->dir == 0 && (conf->nbits_in > conf->nbits_out)) return -1;
 513:Lib/AI_Runtime/Npu/ll_aton/ll_aton.c **** #ifndef ATON_IMC_NUM
 514:Lib/AI_Runtime/Npu/ll_aton/ll_aton.c ****   if (conf->nbits_in > 24 || conf->nbits_out > 24)
 2463              		.loc 1 514 11
 2464 0038 BB68     		ldr	r3, [r7, #8]
 2465 003a 93F84430 		ldrb	r3, [r3, #68]	@ zero_extendqisi2
 2466              		.loc 1 514 6
 2467 003e 182B     		cmp	r3, #24
 2468 0040 04D8     		bhi	.L146
 2469              		.loc 1 514 34 discriminator 1
 2470 0042 BB68     		ldr	r3, [r7, #8]
 2471 0044 93F84530 		ldrb	r3, [r3, #69]	@ zero_extendqisi2
 2472              		.loc 1 514 27 discriminator 1
 2473 0048 182B     		cmp	r3, #24
 2474 004a 02D9     		bls	.L147
 2475              	.L146:
 515:Lib/AI_Runtime/Npu/ll_aton/ll_aton.c ****     return -1;
 2476              		.loc 1 515 12
 2477 004c 4FF0FF33 		mov	r3, #-1
 2478 0050 2BE3     		b	.L191
 2479              	.L147:
 516:Lib/AI_Runtime/Npu/ll_aton/ll_aton.c **** #endif
 517:Lib/AI_Runtime/Npu/ll_aton/ll_aton.c **** 
 518:Lib/AI_Runtime/Npu/ll_aton/ll_aton.c ****   t = ATON_STRENG_CTRL_DT;
 2480              		.loc 1 518 5
 2481 0052 0023     		movs	r3, #0
 2482 0054 7B65     		str	r3, [r7, #84]
 519:Lib/AI_Runtime/Npu/ll_aton/ll_aton.c ****   t = ATON_STRENG_CTRL_SET_DIR(t, (conf->dir != 0));
 2483              		.loc 1 519 7
 2484 0056 7B6D     		ldr	r3, [r7, #84]
 2485 0058 23F00802 		bic	r2, r3, #8
 2486 005c BB68     		ldr	r3, [r7, #8]
 2487 005e 1B78     		ldrb	r3, [r3]	@ zero_extendqisi2
 2488 0060 DB00     		lsls	r3, r3, #3
 2489 0062 03F00803 		and	r3, r3, #8
 2490              		.loc 1 519 5
 2491 0066 1343     		orrs	r3, r3, r2
 2492 0068 7B65     		str	r3, [r7, #84]
 520:Lib/AI_Runtime/Npu/ll_aton/ll_aton.c ****   t = ATON_STRENG_CTRL_SET_RAW(t, (conf->raw != 0));
 2493              		.loc 1 520 7
ARM GAS  /tmp/ccxZaNgH.s 			page 65


 2494 006a 7B6D     		ldr	r3, [r7, #84]
 2495 006c 23F48072 		bic	r2, r3, #256
 2496 0070 BB68     		ldr	r3, [r7, #8]
 2497 0072 1B78     		ldrb	r3, [r3]	@ zero_extendqisi2
 2498 0074 DB01     		lsls	r3, r3, #7
 2499 0076 03F48073 		and	r3, r3, #256
 2500              		.loc 1 520 5
 2501 007a 1343     		orrs	r3, r3, r2
 2502 007c 7B65     		str	r3, [r7, #84]
 521:Lib/AI_Runtime/Npu/ll_aton/ll_aton.c **** #ifdef ATON_STRENG_CTRL_SET_RAW_OUT
 522:Lib/AI_Runtime/Npu/ll_aton/ll_aton.c ****   t = ATON_STRENG_CTRL_SET_RAW_OUT(t, conf->raw_out);
 2503              		.loc 1 522 7
 2504 007e 7B6D     		ldr	r3, [r7, #84]
 2505 0080 23F40072 		bic	r2, r3, #512
 2506 0084 BB68     		ldr	r3, [r7, #8]
 2507 0086 1B78     		ldrb	r3, [r3]
 2508 0088 C3F38003 		ubfx	r3, r3, #2, #1
 2509 008c DBB2     		uxtb	r3, r3
 2510 008e 5B02     		lsls	r3, r3, #9
 2511 0090 03F40073 		and	r3, r3, #512
 2512              		.loc 1 522 5
 2513 0094 1343     		orrs	r3, r3, r2
 2514 0096 7B65     		str	r3, [r7, #84]
 523:Lib/AI_Runtime/Npu/ll_aton/ll_aton.c **** #else
 524:Lib/AI_Runtime/Npu/ll_aton/ll_aton.c ****   /* Hardware feature not supported */
 525:Lib/AI_Runtime/Npu/ll_aton/ll_aton.c ****   LL_ATON_ASSERT(conf->raw_out == 0);
 526:Lib/AI_Runtime/Npu/ll_aton/ll_aton.c **** #endif
 527:Lib/AI_Runtime/Npu/ll_aton/ll_aton.c ****   t = ATON_STRENG_CTRL_SET_NOBLK(t, (conf->noblk != 0));
 2515              		.loc 1 527 7
 2516 0098 7B6D     		ldr	r3, [r7, #84]
 2517 009a 23F40062 		bic	r2, r3, #2048
 2518 009e BB68     		ldr	r3, [r7, #8]
 2519 00a0 1B78     		ldrb	r3, [r3]	@ zero_extendqisi2
 2520 00a2 DB01     		lsls	r3, r3, #7
 2521 00a4 03F40063 		and	r3, r3, #2048
 2522              		.loc 1 527 5
 2523 00a8 1343     		orrs	r3, r3, r2
 2524 00aa 7B65     		str	r3, [r7, #84]
 528:Lib/AI_Runtime/Npu/ll_aton/ll_aton.c ****   t = ATON_STRENG_CTRL_SET_NOINC(t, (conf->noinc == 1));
 2525              		.loc 1 528 7
 2526 00ac 7B6D     		ldr	r3, [r7, #84]
 2527 00ae 23F01002 		bic	r2, r3, #16
 2528 00b2 BB68     		ldr	r3, [r7, #8]
 2529 00b4 1B78     		ldrb	r3, [r3]	@ zero_extendqisi2
 2530 00b6 5B08     		lsrs	r3, r3, #1
 2531 00b8 DBB2     		uxtb	r3, r3
 2532 00ba 03F01003 		and	r3, r3, #16
 2533              		.loc 1 528 5
 2534 00be 1343     		orrs	r3, r3, r2
 2535 00c0 7B65     		str	r3, [r7, #84]
 529:Lib/AI_Runtime/Npu/ll_aton/ll_aton.c ****   t = ATON_STRENG_CTRL_SET_SINGLE(t, conf->frame_tot_cnt == 1);
 2536              		.loc 1 529 7
 2537 00c2 7B6D     		ldr	r3, [r7, #84]
 2538 00c4 23F00403 		bic	r3, r3, #4
 2539 00c8 BA68     		ldr	r2, [r7, #8]
 2540 00ca 126C     		ldr	r2, [r2, #64]
 2541 00cc 012A     		cmp	r2, #1
ARM GAS  /tmp/ccxZaNgH.s 			page 66


 2542 00ce 01D1     		bne	.L148
 2543              		.loc 1 529 7 is_stmt 0 discriminator 1
 2544 00d0 0422     		movs	r2, #4
 2545 00d2 00E0     		b	.L149
 2546              	.L148:
 2547              		.loc 1 529 7 discriminator 2
 2548 00d4 0022     		movs	r2, #0
 2549              	.L149:
 2550              		.loc 1 529 5 is_stmt 1 discriminator 4
 2551 00d6 1343     		orrs	r3, r3, r2
 2552 00d8 7B65     		str	r3, [r7, #84]
 530:Lib/AI_Runtime/Npu/ll_aton/ll_aton.c ****   t = ATON_STRENG_CTRL_SET_CONT(t, conf->continuous == 1);
 2553              		.loc 1 530 7
 2554 00da 7B6D     		ldr	r3, [r7, #84]
 2555 00dc 23F08002 		bic	r2, r3, #128
 2556 00e0 BB68     		ldr	r3, [r7, #8]
 2557 00e2 1B78     		ldrb	r3, [r3]	@ zero_extendqisi2
 2558 00e4 1B01     		lsls	r3, r3, #4
 2559 00e6 03F08003 		and	r3, r3, #128
 2560              		.loc 1 530 5
 2561 00ea 1343     		orrs	r3, r3, r2
 2562 00ec 7B65     		str	r3, [r7, #84]
 531:Lib/AI_Runtime/Npu/ll_aton/ll_aton.c ****   t = ATON_STRENG_CTRL_SET_LSBMODE(t, conf->align_right == 1);
 2563              		.loc 1 531 7
 2564 00ee 7B6D     		ldr	r3, [r7, #84]
 2565 00f0 23F48042 		bic	r2, r3, #16384
 2566 00f4 BB68     		ldr	r3, [r7, #8]
 2567 00f6 1B78     		ldrb	r3, [r3]	@ zero_extendqisi2
 2568 00f8 1B02     		lsls	r3, r3, #8
 2569 00fa 03F48043 		and	r3, r3, #16384
 2570              		.loc 1 531 5
 2571 00fe 1343     		orrs	r3, r3, r2
 2572 0100 7B65     		str	r3, [r7, #84]
 532:Lib/AI_Runtime/Npu/ll_aton/ll_aton.c ****   t = ATON_STRENG_CTRL_SET_SIGNEXT(t, conf->align_right == 1 && conf->nbits_unsigned == 0);
 2573              		.loc 1 532 7
 2574 0102 7B6D     		ldr	r3, [r7, #84]
 2575 0104 23F40042 		bic	r2, r3, #32768
 2576 0108 BB68     		ldr	r3, [r7, #8]
 2577 010a 1B78     		ldrb	r3, [r3]	@ zero_extendqisi2
 2578 010c 03F04003 		and	r3, r3, #64
 2579 0110 DBB2     		uxtb	r3, r3
 2580 0112 002B     		cmp	r3, #0
 2581 0114 08D0     		beq	.L150
 2582              		.loc 1 532 7 is_stmt 0 discriminator 1
 2583 0116 BB68     		ldr	r3, [r7, #8]
 2584 0118 5B78     		ldrb	r3, [r3, #1]	@ zero_extendqisi2
 2585 011a 03F00203 		and	r3, r3, #2
 2586 011e DBB2     		uxtb	r3, r3
 2587 0120 002B     		cmp	r3, #0
 2588 0122 01D1     		bne	.L150
 2589              		.loc 1 532 7 discriminator 3
 2590 0124 0123     		movs	r3, #1
 2591              		.loc 1 532 7
 2592 0126 00E0     		b	.L151
 2593              	.L150:
 2594              		.loc 1 532 7 discriminator 4
 2595 0128 0023     		movs	r3, #0
ARM GAS  /tmp/ccxZaNgH.s 			page 67


 2596              	.L151:
 2597              		.loc 1 532 7 discriminator 6
 2598 012a DB03     		lsls	r3, r3, #15
 2599 012c 9BB2     		uxth	r3, r3
 2600              		.loc 1 532 5 is_stmt 1 discriminator 6
 2601 012e 1343     		orrs	r3, r3, r2
 2602 0130 7B65     		str	r3, [r7, #84]
 533:Lib/AI_Runtime/Npu/ll_aton/ll_aton.c **** 
 534:Lib/AI_Runtime/Npu/ll_aton/ll_aton.c ****   int ch_bits[3] = {0, 0, 0};
 2603              		.loc 1 534 7
 2604 0132 0023     		movs	r3, #0
 2605 0134 FB62     		str	r3, [r7, #44]
 2606 0136 0023     		movs	r3, #0
 2607 0138 3B63     		str	r3, [r7, #48]
 2608 013a 0023     		movs	r3, #0
 2609 013c 7B63     		str	r3, [r7, #52]
 535:Lib/AI_Runtime/Npu/ll_aton/ll_aton.c ****   int in_bits[3];
 536:Lib/AI_Runtime/Npu/ll_aton/ll_aton.c ****   int out_bits[3];
 537:Lib/AI_Runtime/Npu/ll_aton/ll_aton.c ****   int nbits_out = conf->nbits_out;
 2610              		.loc 1 537 23
 2611 013e BB68     		ldr	r3, [r7, #8]
 2612 0140 93F84530 		ldrb	r3, [r3, #69]	@ zero_extendqisi2
 2613              		.loc 1 537 7
 2614 0144 7B64     		str	r3, [r7, #68]
 538:Lib/AI_Runtime/Npu/ll_aton/ll_aton.c ****   int nbits_in = conf->nbits_in;
 2615              		.loc 1 538 22
 2616 0146 BB68     		ldr	r3, [r7, #8]
 2617 0148 93F84430 		ldrb	r3, [r3, #68]	@ zero_extendqisi2
 2618              		.loc 1 538 7
 2619 014c 3B64     		str	r3, [r7, #64]
 539:Lib/AI_Runtime/Npu/ll_aton/ll_aton.c **** 
 540:Lib/AI_Runtime/Npu/ll_aton/ll_aton.c ****   // case 0: bus -> stream --> in_bits > out_bits -> use FRONT_GAP
 541:Lib/AI_Runtime/Npu/ll_aton/ll_aton.c ****   //                      |
 542:Lib/AI_Runtime/Npu/ll_aton/ll_aton.c ****   // case 1:              --> in_bits <= out_bits -> use lanes but valid for out_bits=8,16,24 for o
 543:Lib/AI_Runtime/Npu/ll_aton/ll_aton.c ****   // is right shifted by (8,16,24) - out_bits
 544:Lib/AI_Runtime/Npu/ll_aton/ll_aton.c ****   //
 545:Lib/AI_Runtime/Npu/ll_aton/ll_aton.c ****   // case 2: stream->bus  --> in_bits >= out_bits -> use lanes but valid for in_bits=8,16,24 for ot
 546:Lib/AI_Runtime/Npu/ll_aton/ll_aton.c ****   // right shifted by (8,16,24) - out_bits
 547:Lib/AI_Runtime/Npu/ll_aton/ll_aton.c ****   //                      |
 548:Lib/AI_Runtime/Npu/ll_aton/ll_aton.c ****   // case 3:              --> in_bits < out_bits -> use FRONT_GAP
 549:Lib/AI_Runtime/Npu/ll_aton/ll_aton.c **** 
 550:Lib/AI_Runtime/Npu/ll_aton/ll_aton.c ****   int io_case = ((conf->dir != 0) << 1);
 2620              		.loc 1 550 29
 2621 014e BB68     		ldr	r3, [r7, #8]
 2622 0150 1B78     		ldrb	r3, [r3]	@ zero_extendqisi2
 2623              		.loc 1 550 35
 2624 0152 5B00     		lsls	r3, r3, #1
 2625              		.loc 1 550 7
 2626 0154 03F00203 		and	r3, r3, #2
 2627 0158 FB63     		str	r3, [r7, #60]
 551:Lib/AI_Runtime/Npu/ll_aton/ll_aton.c ****   io_case += (conf->dir == 0 ? (conf->nbits_in <= conf->nbits_out) : (conf->nbits_in < conf->nbits_
 2628              		.loc 1 551 25
 2629 015a BB68     		ldr	r3, [r7, #8]
 2630 015c 1B78     		ldrb	r3, [r3]	@ zero_extendqisi2
 2631 015e 03F00103 		and	r3, r3, #1
 2632 0162 DBB2     		uxtb	r3, r3
 2633              		.loc 1 551 68
ARM GAS  /tmp/ccxZaNgH.s 			page 68


 2634 0164 002B     		cmp	r3, #0
 2635 0166 0CD1     		bne	.L152
 2636              		.loc 1 551 37 discriminator 1
 2637 0168 BB68     		ldr	r3, [r7, #8]
 2638 016a 93F84420 		ldrb	r2, [r3, #68]	@ zero_extendqisi2
 2639              		.loc 1 551 55 discriminator 1
 2640 016e BB68     		ldr	r3, [r7, #8]
 2641 0170 93F84530 		ldrb	r3, [r3, #69]	@ zero_extendqisi2
 2642              		.loc 1 551 48 discriminator 1
 2643 0174 9A42     		cmp	r2, r3
 2644 0176 94BF     		ite	ls
 2645 0178 0123     		movls	r3, #1
 2646 017a 0023     		movhi	r3, #0
 2647 017c DBB2     		uxtb	r3, r3
 2648              		.loc 1 551 68 discriminator 1
 2649 017e 1A46     		mov	r2, r3
 2650 0180 0BE0     		b	.L153
 2651              	.L152:
 2652              		.loc 1 551 75 discriminator 2
 2653 0182 BB68     		ldr	r3, [r7, #8]
 2654 0184 93F84420 		ldrb	r2, [r3, #68]	@ zero_extendqisi2
 2655              		.loc 1 551 92 discriminator 2
 2656 0188 BB68     		ldr	r3, [r7, #8]
 2657 018a 93F84530 		ldrb	r3, [r3, #69]	@ zero_extendqisi2
 2658              		.loc 1 551 86 discriminator 2
 2659 018e 9A42     		cmp	r2, r3
 2660 0190 34BF     		ite	cc
 2661 0192 0123     		movcc	r3, #1
 2662 0194 0023     		movcs	r3, #0
 2663 0196 DBB2     		uxtb	r3, r3
 2664              		.loc 1 551 68 discriminator 2
 2665 0198 1A46     		mov	r2, r3
 2666              	.L153:
 2667              		.loc 1 551 11 discriminator 4
 2668 019a FB6B     		ldr	r3, [r7, #60]
 2669 019c 1344     		add	r3, r3, r2
 2670 019e FB63     		str	r3, [r7, #60]
 552:Lib/AI_Runtime/Npu/ll_aton/ll_aton.c **** 
 553:Lib/AI_Runtime/Npu/ll_aton/ll_aton.c ****   switch (io_case)
 2671              		.loc 1 553 3
 2672 01a0 FB6B     		ldr	r3, [r7, #60]
 2673 01a2 032B     		cmp	r3, #3
 2674 01a4 00F2C880 		bhi	.L154
 2675 01a8 01A2     		adr	r2, .L156
 2676 01aa 52F823F0 		ldr	pc, [r2, r3, lsl #2]
 2677 01ae 00BF     		.p2align 2
 2678              	.L156:
 2679 01b0 C1010000 		.word	.L159+1
 2680 01b4 01020000 		.word	.L158+1
 2681 01b8 BD020000 		.word	.L157+1
 2682 01bc 7D020000 		.word	.L155+1
 2683              		.p2align 1
 2684              	.L159:
 554:Lib/AI_Runtime/Npu/ll_aton/ll_aton.c ****   {
 555:Lib/AI_Runtime/Npu/ll_aton/ll_aton.c ****   case 0: // in_bits > out_bits && bus->stream
 556:Lib/AI_Runtime/Npu/ll_aton/ll_aton.c ****           // must use FRONT_GAP
 557:Lib/AI_Runtime/Npu/ll_aton/ll_aton.c ****   {
ARM GAS  /tmp/ccxZaNgH.s 			page 69


 558:Lib/AI_Runtime/Npu/ll_aton/ll_aton.c ****     if (conf->mem_lsb)
 2685              		.loc 1 558 9
 2686 01c0 BB68     		ldr	r3, [r7, #8]
 2687 01c2 1B78     		ldrb	r3, [r3]	@ zero_extendqisi2
 2688 01c4 23F07F03 		bic	r3, r3, #127
 2689 01c8 DBB2     		uxtb	r3, r3
 2690              		.loc 1 558 8
 2691 01ca 002B     		cmp	r3, #0
 2692 01cc 0BD0     		beq	.L160
 559:Lib/AI_Runtime/Npu/ll_aton/ll_aton.c ****       t_streng_strd = ATON_STRENG_STRD_SET_FGAP(t_streng_strd, (nbits_in - nbits_out));
 2693              		.loc 1 559 23
 2694 01ce 3B6D     		ldr	r3, [r7, #80]
 2695 01d0 23F47C12 		bic	r2, r3, #4128768
 2696 01d4 396C     		ldr	r1, [r7, #64]
 2697 01d6 7B6C     		ldr	r3, [r7, #68]
 2698 01d8 CB1A     		subs	r3, r1, r3
 2699 01da 1B04     		lsls	r3, r3, #16
 2700 01dc 03F47C13 		and	r3, r3, #4128768
 2701              		.loc 1 559 21
 2702 01e0 1343     		orrs	r3, r3, r2
 2703 01e2 3B65     		str	r3, [r7, #80]
 2704 01e4 0AE0     		b	.L161
 2705              	.L160:
 560:Lib/AI_Runtime/Npu/ll_aton/ll_aton.c ****     else
 561:Lib/AI_Runtime/Npu/ll_aton/ll_aton.c ****       t_streng_strd = ATON_STRENG_STRD_SET_BGAP(t_streng_strd, (nbits_in - nbits_out));
 2706              		.loc 1 561 23
 2707 01e6 3B6D     		ldr	r3, [r7, #80]
 2708 01e8 23F07C52 		bic	r2, r3, #1056964608
 2709 01ec 396C     		ldr	r1, [r7, #64]
 2710 01ee 7B6C     		ldr	r3, [r7, #68]
 2711 01f0 CB1A     		subs	r3, r1, r3
 2712 01f2 1B06     		lsls	r3, r3, #24
 2713 01f4 03F07C53 		and	r3, r3, #1056964608
 2714              		.loc 1 561 21
 2715 01f8 1343     		orrs	r3, r3, r2
 2716 01fa 3B65     		str	r3, [r7, #80]
 2717              	.L161:
 562:Lib/AI_Runtime/Npu/ll_aton/ll_aton.c ****     nbits_in = nbits_out;
 2718              		.loc 1 562 14
 2719 01fc 7B6C     		ldr	r3, [r7, #68]
 2720 01fe 3B64     		str	r3, [r7, #64]
 2721              	.L158:
 563:Lib/AI_Runtime/Npu/ll_aton/ll_aton.c ****   }
 564:Lib/AI_Runtime/Npu/ll_aton/ll_aton.c ****   // intentional fall through
 565:Lib/AI_Runtime/Npu/ll_aton/ll_aton.c ****   case 1: // in_bits <= out_bits && bus->stream
 566:Lib/AI_Runtime/Npu/ll_aton/ll_aton.c ****     in_bits[0] = _LL_min(8, nbits_in);
 2722              		.loc 1 566 18
 2723 0200 3B6C     		ldr	r3, [r7, #64]
 2724 0202 082B     		cmp	r3, #8
 2725 0204 A8BF     		it	ge
 2726 0206 0823     		movge	r3, #8
 2727              		.loc 1 566 16
 2728 0208 3B62     		str	r3, [r7, #32]
 567:Lib/AI_Runtime/Npu/ll_aton/ll_aton.c ****     in_bits[1] = nbits_in > 8 ? _LL_min(8, nbits_in - 8) : 0;
 2729              		.loc 1 567 58
 2730 020a 3B6C     		ldr	r3, [r7, #64]
 2731 020c 082B     		cmp	r3, #8
ARM GAS  /tmp/ccxZaNgH.s 			page 70


 2732 020e 05DD     		ble	.L162
 2733              		.loc 1 567 33 discriminator 1
 2734 0210 3B6C     		ldr	r3, [r7, #64]
 2735 0212 102B     		cmp	r3, #16
 2736 0214 A8BF     		it	ge
 2737 0216 1023     		movge	r3, #16
 2738              		.loc 1 567 58 discriminator 1
 2739 0218 083B     		subs	r3, r3, #8
 2740 021a 00E0     		b	.L163
 2741              	.L162:
 2742              		.loc 1 567 58 is_stmt 0 discriminator 2
 2743 021c 0023     		movs	r3, #0
 2744              	.L163:
 2745              		.loc 1 567 16 is_stmt 1 discriminator 4
 2746 021e 7B62     		str	r3, [r7, #36]
 568:Lib/AI_Runtime/Npu/ll_aton/ll_aton.c ****     in_bits[2] = nbits_in > 16 ? _LL_min(8, nbits_in - 16) : 0;
 2747              		.loc 1 568 60
 2748 0220 3B6C     		ldr	r3, [r7, #64]
 2749 0222 102B     		cmp	r3, #16
 2750 0224 05DD     		ble	.L164
 2751              		.loc 1 568 34 discriminator 1
 2752 0226 3B6C     		ldr	r3, [r7, #64]
 2753 0228 182B     		cmp	r3, #24
 2754 022a A8BF     		it	ge
 2755 022c 1823     		movge	r3, #24
 2756              		.loc 1 568 60 discriminator 1
 2757 022e 103B     		subs	r3, r3, #16
 2758 0230 00E0     		b	.L165
 2759              	.L164:
 2760              		.loc 1 568 60 is_stmt 0 discriminator 2
 2761 0232 0023     		movs	r3, #0
 2762              	.L165:
 2763              		.loc 1 568 16 is_stmt 1 discriminator 4
 2764 0234 BB62     		str	r3, [r7, #40]
 569:Lib/AI_Runtime/Npu/ll_aton/ll_aton.c ****     if (conf->align_right)
 2765              		.loc 1 569 9
 2766 0236 BB68     		ldr	r3, [r7, #8]
 2767 0238 1B78     		ldrb	r3, [r3]	@ zero_extendqisi2
 2768 023a 03F04003 		and	r3, r3, #64
 2769 023e DBB2     		uxtb	r3, r3
 2770              		.loc 1 569 8
 2771 0240 002B     		cmp	r3, #0
 2772 0242 06D0     		beq	.L166
 570:Lib/AI_Runtime/Npu/ll_aton/ll_aton.c ****     {
 571:Lib/AI_Runtime/Npu/ll_aton/ll_aton.c ****       ch_bits[0] = in_bits[0];
 2773              		.loc 1 571 27
 2774 0244 3B6A     		ldr	r3, [r7, #32]
 2775              		.loc 1 571 18
 2776 0246 FB62     		str	r3, [r7, #44]
 572:Lib/AI_Runtime/Npu/ll_aton/ll_aton.c ****       ch_bits[1] = in_bits[1];
 2777              		.loc 1 572 27
 2778 0248 7B6A     		ldr	r3, [r7, #36]
 2779              		.loc 1 572 18
 2780 024a 3B63     		str	r3, [r7, #48]
 573:Lib/AI_Runtime/Npu/ll_aton/ll_aton.c ****       ch_bits[2] = in_bits[2];
 2781              		.loc 1 573 27
 2782 024c BB6A     		ldr	r3, [r7, #40]
ARM GAS  /tmp/ccxZaNgH.s 			page 71


 2783              		.loc 1 573 18
 2784 024e 7B63     		str	r3, [r7, #52]
 574:Lib/AI_Runtime/Npu/ll_aton/ll_aton.c ****     }
 575:Lib/AI_Runtime/Npu/ll_aton/ll_aton.c ****     else
 576:Lib/AI_Runtime/Npu/ll_aton/ll_aton.c ****     {
 577:Lib/AI_Runtime/Npu/ll_aton/ll_aton.c ****       if (nbits_out > 16)
 578:Lib/AI_Runtime/Npu/ll_aton/ll_aton.c ****       {
 579:Lib/AI_Runtime/Npu/ll_aton/ll_aton.c ****         ch_bits[2] = in_bits[0];
 580:Lib/AI_Runtime/Npu/ll_aton/ll_aton.c ****         ch_bits[1] = in_bits[1];
 581:Lib/AI_Runtime/Npu/ll_aton/ll_aton.c ****         ch_bits[0] = in_bits[2];
 582:Lib/AI_Runtime/Npu/ll_aton/ll_aton.c ****       }
 583:Lib/AI_Runtime/Npu/ll_aton/ll_aton.c ****       else if (nbits_out > 8)
 584:Lib/AI_Runtime/Npu/ll_aton/ll_aton.c ****       {
 585:Lib/AI_Runtime/Npu/ll_aton/ll_aton.c ****         ch_bits[1] = in_bits[0];
 586:Lib/AI_Runtime/Npu/ll_aton/ll_aton.c ****         ch_bits[0] = in_bits[1];
 587:Lib/AI_Runtime/Npu/ll_aton/ll_aton.c ****       } // N.B. the DMA stuffs the bits to the left of the channel
 588:Lib/AI_Runtime/Npu/ll_aton/ll_aton.c ****       else
 589:Lib/AI_Runtime/Npu/ll_aton/ll_aton.c ****         ch_bits[0] = in_bits[0];
 590:Lib/AI_Runtime/Npu/ll_aton/ll_aton.c ****     }
 591:Lib/AI_Runtime/Npu/ll_aton/ll_aton.c ****     break;
 2785              		.loc 1 591 5
 2786 0250 72E0     		b	.L154
 2787              	.L166:
 577:Lib/AI_Runtime/Npu/ll_aton/ll_aton.c ****       {
 2788              		.loc 1 577 10
 2789 0252 7B6C     		ldr	r3, [r7, #68]
 2790 0254 102B     		cmp	r3, #16
 2791 0256 06DD     		ble	.L168
 579:Lib/AI_Runtime/Npu/ll_aton/ll_aton.c ****         ch_bits[1] = in_bits[1];
 2792              		.loc 1 579 29
 2793 0258 3B6A     		ldr	r3, [r7, #32]
 579:Lib/AI_Runtime/Npu/ll_aton/ll_aton.c ****         ch_bits[1] = in_bits[1];
 2794              		.loc 1 579 20
 2795 025a 7B63     		str	r3, [r7, #52]
 580:Lib/AI_Runtime/Npu/ll_aton/ll_aton.c ****         ch_bits[0] = in_bits[2];
 2796              		.loc 1 580 29
 2797 025c 7B6A     		ldr	r3, [r7, #36]
 580:Lib/AI_Runtime/Npu/ll_aton/ll_aton.c ****         ch_bits[0] = in_bits[2];
 2798              		.loc 1 580 20
 2799 025e 3B63     		str	r3, [r7, #48]
 581:Lib/AI_Runtime/Npu/ll_aton/ll_aton.c ****       }
 2800              		.loc 1 581 29
 2801 0260 BB6A     		ldr	r3, [r7, #40]
 581:Lib/AI_Runtime/Npu/ll_aton/ll_aton.c ****       }
 2802              		.loc 1 581 20
 2803 0262 FB62     		str	r3, [r7, #44]
 2804              		.loc 1 591 5
 2805 0264 68E0     		b	.L154
 2806              	.L168:
 583:Lib/AI_Runtime/Npu/ll_aton/ll_aton.c ****       {
 2807              		.loc 1 583 15
 2808 0266 7B6C     		ldr	r3, [r7, #68]
 2809 0268 082B     		cmp	r3, #8
 2810 026a 04DD     		ble	.L169
 585:Lib/AI_Runtime/Npu/ll_aton/ll_aton.c ****         ch_bits[0] = in_bits[1];
 2811              		.loc 1 585 29
 2812 026c 3B6A     		ldr	r3, [r7, #32]
ARM GAS  /tmp/ccxZaNgH.s 			page 72


 585:Lib/AI_Runtime/Npu/ll_aton/ll_aton.c ****         ch_bits[0] = in_bits[1];
 2813              		.loc 1 585 20
 2814 026e 3B63     		str	r3, [r7, #48]
 586:Lib/AI_Runtime/Npu/ll_aton/ll_aton.c ****       } // N.B. the DMA stuffs the bits to the left of the channel
 2815              		.loc 1 586 29
 2816 0270 7B6A     		ldr	r3, [r7, #36]
 586:Lib/AI_Runtime/Npu/ll_aton/ll_aton.c ****       } // N.B. the DMA stuffs the bits to the left of the channel
 2817              		.loc 1 586 20
 2818 0272 FB62     		str	r3, [r7, #44]
 2819              		.loc 1 591 5
 2820 0274 60E0     		b	.L154
 2821              	.L169:
 589:Lib/AI_Runtime/Npu/ll_aton/ll_aton.c ****     }
 2822              		.loc 1 589 29
 2823 0276 3B6A     		ldr	r3, [r7, #32]
 589:Lib/AI_Runtime/Npu/ll_aton/ll_aton.c ****     }
 2824              		.loc 1 589 20
 2825 0278 FB62     		str	r3, [r7, #44]
 2826              		.loc 1 591 5
 2827 027a 5DE0     		b	.L154
 2828              	.L155:
 592:Lib/AI_Runtime/Npu/ll_aton/ll_aton.c ****   case 3: // in_bits < out_bits && stream->bus
 593:Lib/AI_Runtime/Npu/ll_aton/ll_aton.c ****   {
 594:Lib/AI_Runtime/Npu/ll_aton/ll_aton.c ****     if (conf->mem_lsb)
 2829              		.loc 1 594 9
 2830 027c BB68     		ldr	r3, [r7, #8]
 2831 027e 1B78     		ldrb	r3, [r3]	@ zero_extendqisi2
 2832 0280 23F07F03 		bic	r3, r3, #127
 2833 0284 DBB2     		uxtb	r3, r3
 2834              		.loc 1 594 8
 2835 0286 002B     		cmp	r3, #0
 2836 0288 0BD0     		beq	.L170
 595:Lib/AI_Runtime/Npu/ll_aton/ll_aton.c ****       t_streng_strd = ATON_STRENG_STRD_SET_FGAP(t_streng_strd, (nbits_out - nbits_in));
 2837              		.loc 1 595 23
 2838 028a 3B6D     		ldr	r3, [r7, #80]
 2839 028c 23F47C12 		bic	r2, r3, #4128768
 2840 0290 796C     		ldr	r1, [r7, #68]
 2841 0292 3B6C     		ldr	r3, [r7, #64]
 2842 0294 CB1A     		subs	r3, r1, r3
 2843 0296 1B04     		lsls	r3, r3, #16
 2844 0298 03F47C13 		and	r3, r3, #4128768
 2845              		.loc 1 595 21
 2846 029c 1343     		orrs	r3, r3, r2
 2847 029e 3B65     		str	r3, [r7, #80]
 2848 02a0 0AE0     		b	.L171
 2849              	.L170:
 596:Lib/AI_Runtime/Npu/ll_aton/ll_aton.c ****     else
 597:Lib/AI_Runtime/Npu/ll_aton/ll_aton.c ****       t_streng_strd = ATON_STRENG_STRD_SET_BGAP(t_streng_strd, (nbits_out - nbits_in));
 2850              		.loc 1 597 23
 2851 02a2 3B6D     		ldr	r3, [r7, #80]
 2852 02a4 23F07C52 		bic	r2, r3, #1056964608
 2853 02a8 796C     		ldr	r1, [r7, #68]
 2854 02aa 3B6C     		ldr	r3, [r7, #64]
 2855 02ac CB1A     		subs	r3, r1, r3
 2856 02ae 1B06     		lsls	r3, r3, #24
 2857 02b0 03F07C53 		and	r3, r3, #1056964608
 2858              		.loc 1 597 21
ARM GAS  /tmp/ccxZaNgH.s 			page 73


 2859 02b4 1343     		orrs	r3, r3, r2
 2860 02b6 3B65     		str	r3, [r7, #80]
 2861              	.L171:
 598:Lib/AI_Runtime/Npu/ll_aton/ll_aton.c ****     nbits_out = nbits_in;
 2862              		.loc 1 598 15
 2863 02b8 3B6C     		ldr	r3, [r7, #64]
 2864 02ba 7B64     		str	r3, [r7, #68]
 2865              	.L157:
 599:Lib/AI_Runtime/Npu/ll_aton/ll_aton.c ****   }
 600:Lib/AI_Runtime/Npu/ll_aton/ll_aton.c ****   // intentional fall through
 601:Lib/AI_Runtime/Npu/ll_aton/ll_aton.c ****   case 2: // in_bits >= out_bits && stream->bus
 602:Lib/AI_Runtime/Npu/ll_aton/ll_aton.c ****     out_bits[0] = _LL_min(8, nbits_out);
 2866              		.loc 1 602 19
 2867 02bc 7B6C     		ldr	r3, [r7, #68]
 2868 02be 082B     		cmp	r3, #8
 2869 02c0 A8BF     		it	ge
 2870 02c2 0823     		movge	r3, #8
 2871              		.loc 1 602 17
 2872 02c4 7B61     		str	r3, [r7, #20]
 603:Lib/AI_Runtime/Npu/ll_aton/ll_aton.c ****     out_bits[1] = nbits_out > 8 ? _LL_min(8, nbits_out - 8) : 0;
 2873              		.loc 1 603 61
 2874 02c6 7B6C     		ldr	r3, [r7, #68]
 2875 02c8 082B     		cmp	r3, #8
 2876 02ca 05DD     		ble	.L172
 2877              		.loc 1 603 35 discriminator 1
 2878 02cc 7B6C     		ldr	r3, [r7, #68]
 2879 02ce 102B     		cmp	r3, #16
 2880 02d0 A8BF     		it	ge
 2881 02d2 1023     		movge	r3, #16
 2882              		.loc 1 603 61 discriminator 1
 2883 02d4 083B     		subs	r3, r3, #8
 2884 02d6 00E0     		b	.L173
 2885              	.L172:
 2886              		.loc 1 603 61 is_stmt 0 discriminator 2
 2887 02d8 0023     		movs	r3, #0
 2888              	.L173:
 2889              		.loc 1 603 17 is_stmt 1 discriminator 4
 2890 02da BB61     		str	r3, [r7, #24]
 604:Lib/AI_Runtime/Npu/ll_aton/ll_aton.c ****     out_bits[2] = nbits_out > 16 ? _LL_min(8, nbits_out - 16) : 0;
 2891              		.loc 1 604 63
 2892 02dc 7B6C     		ldr	r3, [r7, #68]
 2893 02de 102B     		cmp	r3, #16
 2894 02e0 05DD     		ble	.L174
 2895              		.loc 1 604 36 discriminator 1
 2896 02e2 7B6C     		ldr	r3, [r7, #68]
 2897 02e4 182B     		cmp	r3, #24
 2898 02e6 A8BF     		it	ge
 2899 02e8 1823     		movge	r3, #24
 2900              		.loc 1 604 63 discriminator 1
 2901 02ea 103B     		subs	r3, r3, #16
 2902 02ec 00E0     		b	.L175
 2903              	.L174:
 2904              		.loc 1 604 63 is_stmt 0 discriminator 2
 2905 02ee 0023     		movs	r3, #0
 2906              	.L175:
 2907              		.loc 1 604 17 is_stmt 1 discriminator 4
 2908 02f0 FB61     		str	r3, [r7, #28]
ARM GAS  /tmp/ccxZaNgH.s 			page 74


 605:Lib/AI_Runtime/Npu/ll_aton/ll_aton.c ****     if (conf->align_right)
 2909              		.loc 1 605 9
 2910 02f2 BB68     		ldr	r3, [r7, #8]
 2911 02f4 1B78     		ldrb	r3, [r3]	@ zero_extendqisi2
 2912 02f6 03F04003 		and	r3, r3, #64
 2913 02fa DBB2     		uxtb	r3, r3
 2914              		.loc 1 605 8
 2915 02fc 002B     		cmp	r3, #0
 2916 02fe 06D0     		beq	.L176
 606:Lib/AI_Runtime/Npu/ll_aton/ll_aton.c ****     {
 607:Lib/AI_Runtime/Npu/ll_aton/ll_aton.c ****       ch_bits[0] = out_bits[0];
 2917              		.loc 1 607 28
 2918 0300 7B69     		ldr	r3, [r7, #20]
 2919              		.loc 1 607 18
 2920 0302 FB62     		str	r3, [r7, #44]
 608:Lib/AI_Runtime/Npu/ll_aton/ll_aton.c ****       ch_bits[1] = out_bits[1];
 2921              		.loc 1 608 28
 2922 0304 BB69     		ldr	r3, [r7, #24]
 2923              		.loc 1 608 18
 2924 0306 3B63     		str	r3, [r7, #48]
 609:Lib/AI_Runtime/Npu/ll_aton/ll_aton.c ****       ch_bits[2] = out_bits[2];
 2925              		.loc 1 609 28
 2926 0308 FB69     		ldr	r3, [r7, #28]
 2927              		.loc 1 609 18
 2928 030a 7B63     		str	r3, [r7, #52]
 610:Lib/AI_Runtime/Npu/ll_aton/ll_aton.c ****     }
 611:Lib/AI_Runtime/Npu/ll_aton/ll_aton.c ****     else
 612:Lib/AI_Runtime/Npu/ll_aton/ll_aton.c ****     {
 613:Lib/AI_Runtime/Npu/ll_aton/ll_aton.c ****       if (nbits_in > 16)
 614:Lib/AI_Runtime/Npu/ll_aton/ll_aton.c ****       {
 615:Lib/AI_Runtime/Npu/ll_aton/ll_aton.c ****         ch_bits[2] = out_bits[0];
 616:Lib/AI_Runtime/Npu/ll_aton/ll_aton.c ****         ch_bits[1] = out_bits[1];
 617:Lib/AI_Runtime/Npu/ll_aton/ll_aton.c ****         ch_bits[0] = out_bits[2];
 618:Lib/AI_Runtime/Npu/ll_aton/ll_aton.c ****       }
 619:Lib/AI_Runtime/Npu/ll_aton/ll_aton.c ****       else if (nbits_in > 8)
 620:Lib/AI_Runtime/Npu/ll_aton/ll_aton.c ****       {
 621:Lib/AI_Runtime/Npu/ll_aton/ll_aton.c ****         ch_bits[1] = out_bits[0];
 622:Lib/AI_Runtime/Npu/ll_aton/ll_aton.c ****         ch_bits[0] = out_bits[1];
 623:Lib/AI_Runtime/Npu/ll_aton/ll_aton.c ****       } // N.B. the DMA stuffs the bits to the left of the channel
 624:Lib/AI_Runtime/Npu/ll_aton/ll_aton.c ****       else
 625:Lib/AI_Runtime/Npu/ll_aton/ll_aton.c ****         ch_bits[0] = out_bits[0];
 626:Lib/AI_Runtime/Npu/ll_aton/ll_aton.c ****     }
 627:Lib/AI_Runtime/Npu/ll_aton/ll_aton.c ****     break;
 2929              		.loc 1 627 5
 2930 030c 13E0     		b	.L192
 2931              	.L176:
 613:Lib/AI_Runtime/Npu/ll_aton/ll_aton.c ****       {
 2932              		.loc 1 613 10
 2933 030e 3B6C     		ldr	r3, [r7, #64]
 2934 0310 102B     		cmp	r3, #16
 2935 0312 06DD     		ble	.L178
 615:Lib/AI_Runtime/Npu/ll_aton/ll_aton.c ****         ch_bits[1] = out_bits[1];
 2936              		.loc 1 615 30
 2937 0314 7B69     		ldr	r3, [r7, #20]
 615:Lib/AI_Runtime/Npu/ll_aton/ll_aton.c ****         ch_bits[1] = out_bits[1];
 2938              		.loc 1 615 20
 2939 0316 7B63     		str	r3, [r7, #52]
ARM GAS  /tmp/ccxZaNgH.s 			page 75


 616:Lib/AI_Runtime/Npu/ll_aton/ll_aton.c ****         ch_bits[0] = out_bits[2];
 2940              		.loc 1 616 30
 2941 0318 BB69     		ldr	r3, [r7, #24]
 616:Lib/AI_Runtime/Npu/ll_aton/ll_aton.c ****         ch_bits[0] = out_bits[2];
 2942              		.loc 1 616 20
 2943 031a 3B63     		str	r3, [r7, #48]
 617:Lib/AI_Runtime/Npu/ll_aton/ll_aton.c ****       }
 2944              		.loc 1 617 30
 2945 031c FB69     		ldr	r3, [r7, #28]
 617:Lib/AI_Runtime/Npu/ll_aton/ll_aton.c ****       }
 2946              		.loc 1 617 20
 2947 031e FB62     		str	r3, [r7, #44]
 2948              		.loc 1 627 5
 2949 0320 09E0     		b	.L192
 2950              	.L178:
 619:Lib/AI_Runtime/Npu/ll_aton/ll_aton.c ****       {
 2951              		.loc 1 619 15
 2952 0322 3B6C     		ldr	r3, [r7, #64]
 2953 0324 082B     		cmp	r3, #8
 2954 0326 04DD     		ble	.L179
 621:Lib/AI_Runtime/Npu/ll_aton/ll_aton.c ****         ch_bits[0] = out_bits[1];
 2955              		.loc 1 621 30
 2956 0328 7B69     		ldr	r3, [r7, #20]
 621:Lib/AI_Runtime/Npu/ll_aton/ll_aton.c ****         ch_bits[0] = out_bits[1];
 2957              		.loc 1 621 20
 2958 032a 3B63     		str	r3, [r7, #48]
 622:Lib/AI_Runtime/Npu/ll_aton/ll_aton.c ****       } // N.B. the DMA stuffs the bits to the left of the channel
 2959              		.loc 1 622 30
 2960 032c BB69     		ldr	r3, [r7, #24]
 622:Lib/AI_Runtime/Npu/ll_aton/ll_aton.c ****       } // N.B. the DMA stuffs the bits to the left of the channel
 2961              		.loc 1 622 20
 2962 032e FB62     		str	r3, [r7, #44]
 2963              		.loc 1 627 5
 2964 0330 01E0     		b	.L192
 2965              	.L179:
 625:Lib/AI_Runtime/Npu/ll_aton/ll_aton.c ****     }
 2966              		.loc 1 625 30
 2967 0332 7B69     		ldr	r3, [r7, #20]
 625:Lib/AI_Runtime/Npu/ll_aton/ll_aton.c ****     }
 2968              		.loc 1 625 20
 2969 0334 FB62     		str	r3, [r7, #44]
 2970              	.L192:
 2971              		.loc 1 627 5
 2972 0336 00BF     		nop
 2973              	.L154:
 628:Lib/AI_Runtime/Npu/ll_aton/ll_aton.c ****   }
 629:Lib/AI_Runtime/Npu/ll_aton/ll_aton.c **** 
 630:Lib/AI_Runtime/Npu/ll_aton/ll_aton.c **** /* Take care of N64 single size register. TODO: double check this  */
 631:Lib/AI_Runtime/Npu/ll_aton/ll_aton.c **** #ifdef ATON_STRENG_CTRL_SET_SIZE1
 632:Lib/AI_Runtime/Npu/ll_aton/ll_aton.c ****   t = ATON_STRENG_CTRL_SET_SIZE0(t, ch_bits[0]);
 2974              		.loc 1 632 7
 2975 0338 7B6D     		ldr	r3, [r7, #84]
 2976 033a 23F47022 		bic	r2, r3, #983040
 2977 033e FB6A     		ldr	r3, [r7, #44]
 2978 0340 1B04     		lsls	r3, r3, #16
 2979 0342 03F47023 		and	r3, r3, #983040
 2980              		.loc 1 632 5
ARM GAS  /tmp/ccxZaNgH.s 			page 76


 2981 0346 1343     		orrs	r3, r3, r2
 2982 0348 7B65     		str	r3, [r7, #84]
 633:Lib/AI_Runtime/Npu/ll_aton/ll_aton.c ****   t = ATON_STRENG_CTRL_SET_SIZE1(t, ch_bits[1]);
 2983              		.loc 1 633 7
 2984 034a 7B6D     		ldr	r3, [r7, #84]
 2985 034c 23F47002 		bic	r2, r3, #15728640
 2986 0350 3B6B     		ldr	r3, [r7, #48]
 2987 0352 1B05     		lsls	r3, r3, #20
 2988 0354 03F47003 		and	r3, r3, #15728640
 2989              		.loc 1 633 5
 2990 0358 1343     		orrs	r3, r3, r2
 2991 035a 7B65     		str	r3, [r7, #84]
 634:Lib/AI_Runtime/Npu/ll_aton/ll_aton.c ****   t = ATON_STRENG_CTRL_SET_SIZE2(t, ch_bits[2]);
 2992              		.loc 1 634 7
 2993 035c 7B6D     		ldr	r3, [r7, #84]
 2994 035e 23F07062 		bic	r2, r3, #251658240
 2995 0362 7B6B     		ldr	r3, [r7, #52]
 2996 0364 1B06     		lsls	r3, r3, #24
 2997 0366 03F07063 		and	r3, r3, #251658240
 2998              		.loc 1 634 5
 2999 036a 1343     		orrs	r3, r3, r2
 3000 036c 7B65     		str	r3, [r7, #84]
 635:Lib/AI_Runtime/Npu/ll_aton/ll_aton.c **** #else
 636:Lib/AI_Runtime/Npu/ll_aton/ll_aton.c ****   if (conf->dir)
 637:Lib/AI_Runtime/Npu/ll_aton/ll_aton.c ****     t = ATON_STRENG_CTRL_SET_SIZE0(t, conf->nbits_out);
 638:Lib/AI_Runtime/Npu/ll_aton/ll_aton.c ****   else
 639:Lib/AI_Runtime/Npu/ll_aton/ll_aton.c ****     t = ATON_STRENG_CTRL_SET_SIZE0(t, conf->nbits_in);
 640:Lib/AI_Runtime/Npu/ll_aton/ll_aton.c **** #endif
 641:Lib/AI_Runtime/Npu/ll_aton/ll_aton.c **** 
 642:Lib/AI_Runtime/Npu/ll_aton/ll_aton.c ****   ATON_STRENG_CTRL_SET(id, t);
 3001              		.loc 1 642 3
 3002 036e FB68     		ldr	r3, [r7, #12]
 3003 0370 03F5B023 		add	r3, r3, #360448
 3004 0374 E533     		adds	r3, r3, #229
 3005 0376 1B03     		lsls	r3, r3, #12
 3006 0378 1A46     		mov	r2, r3
 3007 037a 7B6D     		ldr	r3, [r7, #84]
 3008 037c 1360     		str	r3, [r2]
 643:Lib/AI_Runtime/Npu/ll_aton/ll_aton.c **** 
 644:Lib/AI_Runtime/Npu/ll_aton/ll_aton.c ****   // ATON_STRENG_ADDR_SET(id, conf->addr_start.i);
 645:Lib/AI_Runtime/Npu/ll_aton/ll_aton.c ****   ATON_REG_WRITE_RELOC(((volatile uint32_t *)(uintptr_t)ATON_STRENG_ADDR_ADDR(id)), conf->addr_base
 3009              		.loc 1 645 3
 3010 037e BB68     		ldr	r3, [r7, #8]
 3011 0380 5968     		ldr	r1, [r3, #4]
 3012 0382 BB68     		ldr	r3, [r7, #8]
 3013 0384 9A68     		ldr	r2, [r3, #8]
 3014 0386 FB68     		ldr	r3, [r7, #12]
 3015 0388 1803     		lsls	r0, r3, #12
 3016 038a 2A4B     		ldr	r3, .L196
 3017 038c 0344     		add	r3, r3, r0
 3018 038e 1846     		mov	r0, r3
 3019 0390 8B18     		adds	r3, r1, r2
 3020 0392 0360     		str	r3, [r0]
 646:Lib/AI_Runtime/Npu/ll_aton/ll_aton.c ****                        conf->offset_start);
 647:Lib/AI_Runtime/Npu/ll_aton/ll_aton.c **** 
 648:Lib/AI_Runtime/Npu/ll_aton/ll_aton.c ****   if (conf->raw)
 3021              		.loc 1 648 7
ARM GAS  /tmp/ccxZaNgH.s 			page 77


 3022 0394 BB68     		ldr	r3, [r7, #8]
 3023 0396 1B78     		ldrb	r3, [r3]	@ zero_extendqisi2
 3024 0398 03F00203 		and	r3, r3, #2
 3025 039c DBB2     		uxtb	r3, r3
 3026              		.loc 1 648 6
 3027 039e 002B     		cmp	r3, #0
 3028 03a0 25D0     		beq	.L180
 649:Lib/AI_Runtime/Npu/ll_aton/ll_aton.c ****   {
 650:Lib/AI_Runtime/Npu/ll_aton/ll_aton.c ****     if (conf->frame_count)
 3029              		.loc 1 650 13
 3030 03a2 BB68     		ldr	r3, [r7, #8]
 3031 03a4 5B69     		ldr	r3, [r3, #20]
 3032              		.loc 1 650 8
 3033 03a6 002B     		cmp	r3, #0
 3034 03a8 03D0     		beq	.L181
 651:Lib/AI_Runtime/Npu/ll_aton/ll_aton.c ****       t = conf->frame_count;
 3035              		.loc 1 651 9
 3036 03aa BB68     		ldr	r3, [r7, #8]
 3037 03ac 5B69     		ldr	r3, [r3, #20]
 3038 03ae 7B65     		str	r3, [r7, #84]
 3039 03b0 15E0     		b	.L182
 3040              	.L181:
 652:Lib/AI_Runtime/Npu/ll_aton/ll_aton.c ****     else
 653:Lib/AI_Runtime/Npu/ll_aton/ll_aton.c ****     {
 654:Lib/AI_Runtime/Npu/ll_aton/ll_aton.c ****       // N.B. end - start must contain padding if nbits_in is not power of two
 655:Lib/AI_Runtime/Npu/ll_aton/ll_aton.c ****       t = (LL_Streng_len(conf) * 8) / (conf->dir == 0 ? conf->nbits_in : conf->nbits_out);
 3041              		.loc 1 655 12
 3042 03b2 B868     		ldr	r0, [r7, #8]
 3043 03b4 FFF7FEFF 		bl	LL_Streng_len
 3044 03b8 0346     		mov	r3, r0
 3045              		.loc 1 655 32 discriminator 1
 3046 03ba DB00     		lsls	r3, r3, #3
 3047              		.loc 1 655 44 discriminator 1
 3048 03bc BA68     		ldr	r2, [r7, #8]
 3049 03be 1278     		ldrb	r2, [r2]
 3050 03c0 C2F30002 		ubfx	r2, r2, #0, #1
 3051 03c4 D2B2     		uxtb	r2, r2
 3052              		.loc 1 655 72 discriminator 1
 3053 03c6 002A     		cmp	r2, #0
 3054 03c8 03D0     		beq	.L183
 3055              		.loc 1 655 78 discriminator 1
 3056 03ca BA68     		ldr	r2, [r7, #8]
 3057 03cc 92F84520 		ldrb	r2, [r2, #69]	@ zero_extendqisi2
 3058 03d0 02E0     		b	.L184
 3059              	.L183:
 3060              		.loc 1 655 61 discriminator 2
 3061 03d2 BA68     		ldr	r2, [r7, #8]
 3062 03d4 92F84420 		ldrb	r2, [r2, #68]	@ zero_extendqisi2
 3063              	.L184:
 3064              		.loc 1 655 9 discriminator 4
 3065 03d8 B3FBF2F3 		udiv	r3, r3, r2
 3066 03dc 7B65     		str	r3, [r7, #84]
 3067              	.L182:
 656:Lib/AI_Runtime/Npu/ll_aton/ll_aton.c ****     }
 657:Lib/AI_Runtime/Npu/ll_aton/ll_aton.c ****     ATON_STRENG_FSIZE_SET(id, t);
 3068              		.loc 1 657 5
 3069 03de FB68     		ldr	r3, [r7, #12]
ARM GAS  /tmp/ccxZaNgH.s 			page 78


 3070 03e0 1A03     		lsls	r2, r3, #12
 3071 03e2 154B     		ldr	r3, .L196+4
 3072 03e4 1344     		add	r3, r3, r2
 3073 03e6 1A46     		mov	r2, r3
 3074 03e8 7B6D     		ldr	r3, [r7, #84]
 3075 03ea 1360     		str	r3, [r2]
 3076 03ec 53E0     		b	.L185
 3077              	.L180:
 3078              	.LBB8:
 658:Lib/AI_Runtime/Npu/ll_aton/ll_aton.c ****   }
 659:Lib/AI_Runtime/Npu/ll_aton/ll_aton.c ****   else
 660:Lib/AI_Runtime/Npu/ll_aton/ll_aton.c ****   {
 661:Lib/AI_Runtime/Npu/ll_aton/ll_aton.c ****     t = ATON_STRENG_FSIZE_DT;
 3079              		.loc 1 661 7
 3080 03ee 0023     		movs	r3, #0
 3081 03f0 7B65     		str	r3, [r7, #84]
 662:Lib/AI_Runtime/Npu/ll_aton/ll_aton.c ****     t = ATON_STRENG_FSIZE_SET_WIDTH(t, conf->fwidth);
 3082              		.loc 1 662 9
 3083 03f2 7B6D     		ldr	r3, [r7, #84]
 3084 03f4 1B0C     		lsrs	r3, r3, #16
 3085 03f6 1B04     		lsls	r3, r3, #16
 3086 03f8 BA68     		ldr	r2, [r7, #8]
 3087 03fa 9269     		ldr	r2, [r2, #24]
 3088 03fc 92B2     		uxth	r2, r2
 3089              		.loc 1 662 7
 3090 03fe 1343     		orrs	r3, r3, r2
 3091 0400 7B65     		str	r3, [r7, #84]
 663:Lib/AI_Runtime/Npu/ll_aton/ll_aton.c ****     t = ATON_STRENG_FSIZE_SET_HEIGHT(t, conf->fheight);
 3092              		.loc 1 663 9
 3093 0402 7B6D     		ldr	r3, [r7, #84]
 3094 0404 9AB2     		uxth	r2, r3
 3095 0406 BB68     		ldr	r3, [r7, #8]
 3096 0408 DB69     		ldr	r3, [r3, #28]
 3097 040a 1B04     		lsls	r3, r3, #16
 3098              		.loc 1 663 7
 3099 040c 1343     		orrs	r3, r3, r2
 3100 040e 7B65     		str	r3, [r7, #84]
 664:Lib/AI_Runtime/Npu/ll_aton/ll_aton.c ****     ATON_STRENG_FSIZE_SET(id, t);
 3101              		.loc 1 664 5
 3102 0410 FB68     		ldr	r3, [r7, #12]
 3103 0412 1A03     		lsls	r2, r3, #12
 3104 0414 084B     		ldr	r3, .L196+4
 3105 0416 1344     		add	r3, r3, r2
 3106 0418 1A46     		mov	r2, r3
 3107 041a 7B6D     		ldr	r3, [r7, #84]
 3108 041c 1360     		str	r3, [r2]
 665:Lib/AI_Runtime/Npu/ll_aton/ll_aton.c **** 
 666:Lib/AI_Runtime/Npu/ll_aton/ll_aton.c ****     uint32_t line_offset = conf->line_offset == 0 ? conf->fwidth * conf->batch_offset : conf->line_
 3109              		.loc 1 666 32
 3110 041e BB68     		ldr	r3, [r7, #8]
 3111 0420 DB6A     		ldr	r3, [r3, #44]
 3112              		.loc 1 666 87
 3113 0422 002B     		cmp	r3, #0
 3114 0424 0AD1     		bne	.L186
 3115              		.loc 1 666 57 discriminator 1
 3116 0426 BB68     		ldr	r3, [r7, #8]
 3117 0428 9B69     		ldr	r3, [r3, #24]
ARM GAS  /tmp/ccxZaNgH.s 			page 79


 3118              		.loc 1 666 72 discriminator 1
 3119 042a BA68     		ldr	r2, [r7, #8]
 3120 042c 526A     		ldr	r2, [r2, #36]
 3121              		.loc 1 666 87 discriminator 1
 3122 042e 02FB03F3 		mul	r3, r2, r3
 3123 0432 05E0     		b	.L187
 3124              	.L197:
 3125              		.align	2
 3126              	.L196:
 3127 0434 08500E58 		.word	1477333000
 3128 0438 0C500E58 		.word	1477333004
 3129              	.L186:
 3130              		.loc 1 666 87 is_stmt 0 discriminator 2
 3131 043c BB68     		ldr	r3, [r7, #8]
 3132 043e DB6A     		ldr	r3, [r3, #44]
 3133              	.L187:
 3134              		.loc 1 666 14 is_stmt 1 discriminator 4
 3135 0440 BB63     		str	r3, [r7, #56]
 667:Lib/AI_Runtime/Npu/ll_aton/ll_aton.c ****     // if line_offset is left=0 then it's computed from the standard geometry of lines and batch
 668:Lib/AI_Runtime/Npu/ll_aton/ll_aton.c ****     t_streng_strd = ATON_STRENG_STRD_SET_LOFF(t_streng_strd, line_offset);
 3136              		.loc 1 668 21
 3137 0442 3B6D     		ldr	r3, [r7, #80]
 3138 0444 1B0C     		lsrs	r3, r3, #16
 3139 0446 1B04     		lsls	r3, r3, #16
 3140 0448 BA6B     		ldr	r2, [r7, #56]
 3141 044a 92B2     		uxth	r2, r2
 3142              		.loc 1 668 19
 3143 044c 1343     		orrs	r3, r3, r2
 3144 044e 3B65     		str	r3, [r7, #80]
 669:Lib/AI_Runtime/Npu/ll_aton/ll_aton.c **** 
 670:Lib/AI_Runtime/Npu/ll_aton/ll_aton.c **** #if defined(ATON_STRENG_CID_CACHE_SET_LOFF_MSB)
 671:Lib/AI_Runtime/Npu/ll_aton/ll_aton.c ****     t = t_streng_cid_cache;
 3145              		.loc 1 671 7
 3146 0450 FB6C     		ldr	r3, [r7, #76]
 3147 0452 7B65     		str	r3, [r7, #84]
 672:Lib/AI_Runtime/Npu/ll_aton/ll_aton.c ****     t = ATON_STRENG_CID_CACHE_SET_LOFF_MSB(t, (line_offset >> ATON_STRENG_STRD_LOFF_W));
 3148              		.loc 1 672 9
 3149 0454 7B6D     		ldr	r3, [r7, #84]
 3150 0456 9AB2     		uxth	r2, r3
 3151 0458 BB6B     		ldr	r3, [r7, #56]
 3152 045a 1B0C     		lsrs	r3, r3, #16
 3153 045c 1B04     		lsls	r3, r3, #16
 3154              		.loc 1 672 7
 3155 045e 1343     		orrs	r3, r3, r2
 3156 0460 7B65     		str	r3, [r7, #84]
 673:Lib/AI_Runtime/Npu/ll_aton/ll_aton.c ****     t_streng_cid_cache = t;
 3157              		.loc 1 673 24
 3158 0462 7B6D     		ldr	r3, [r7, #84]
 3159 0464 FB64     		str	r3, [r7, #76]
 674:Lib/AI_Runtime/Npu/ll_aton/ll_aton.c **** #endif
 675:Lib/AI_Runtime/Npu/ll_aton/ll_aton.c **** 
 676:Lib/AI_Runtime/Npu/ll_aton/ll_aton.c ****     t = ATON_STRENG_DEPTH_DT;
 3160              		.loc 1 676 7
 3161 0466 0023     		movs	r3, #0
 3162 0468 7B65     		str	r3, [r7, #84]
 677:Lib/AI_Runtime/Npu/ll_aton/ll_aton.c ****     t = ATON_STRENG_DEPTH_SET_SIZE(t, conf->batch_depth);
 3163              		.loc 1 677 9
ARM GAS  /tmp/ccxZaNgH.s 			page 80


 3164 046a 7B6D     		ldr	r3, [r7, #84]
 3165 046c 1B0C     		lsrs	r3, r3, #16
 3166 046e 1B04     		lsls	r3, r3, #16
 3167 0470 BA68     		ldr	r2, [r7, #8]
 3168 0472 126A     		ldr	r2, [r2, #32]
 3169 0474 92B2     		uxth	r2, r2
 3170              		.loc 1 677 7
 3171 0476 1343     		orrs	r3, r3, r2
 3172 0478 7B65     		str	r3, [r7, #84]
 678:Lib/AI_Runtime/Npu/ll_aton/ll_aton.c ****     t = ATON_STRENG_DEPTH_SET_OFFSET(t, conf->batch_offset);
 3173              		.loc 1 678 9
 3174 047a 7B6D     		ldr	r3, [r7, #84]
 3175 047c 9AB2     		uxth	r2, r3
 3176 047e BB68     		ldr	r3, [r7, #8]
 3177 0480 5B6A     		ldr	r3, [r3, #36]
 3178 0482 1B04     		lsls	r3, r3, #16
 3179              		.loc 1 678 7
 3180 0484 1343     		orrs	r3, r3, r2
 3181 0486 7B65     		str	r3, [r7, #84]
 679:Lib/AI_Runtime/Npu/ll_aton/ll_aton.c ****     ATON_STRENG_DEPTH_SET(id, t);
 3182              		.loc 1 679 5
 3183 0488 FB68     		ldr	r3, [r7, #12]
 3184 048a 1A03     		lsls	r2, r3, #12
 3185 048c 894B     		ldr	r3, .L198
 3186 048e 1344     		add	r3, r3, r2
 3187 0490 1A46     		mov	r2, r3
 3188 0492 7B6D     		ldr	r3, [r7, #84]
 3189 0494 1360     		str	r3, [r2]
 3190              	.L185:
 3191              	.LBE8:
 680:Lib/AI_Runtime/Npu/ll_aton/ll_aton.c ****   }
 681:Lib/AI_Runtime/Npu/ll_aton/ll_aton.c **** 
 682:Lib/AI_Runtime/Npu/ll_aton/ll_aton.c ****   ATON_STRENG_FOFFSET_SET(id, conf->frame_offset);
 3192              		.loc 1 682 3
 3193 0496 FB68     		ldr	r3, [r7, #12]
 3194 0498 1A03     		lsls	r2, r3, #12
 3195 049a 874B     		ldr	r3, .L198+4
 3196 049c 1344     		add	r3, r3, r2
 3197 049e 1A46     		mov	r2, r3
 3198 04a0 BB68     		ldr	r3, [r7, #8]
 3199 04a2 9B6A     		ldr	r3, [r3, #40]
 3200 04a4 1360     		str	r3, [r2]
 683:Lib/AI_Runtime/Npu/ll_aton/ll_aton.c **** 
 684:Lib/AI_Runtime/Npu/ll_aton/ll_aton.c ****   /* Frame repetition loop configuration */
 685:Lib/AI_Runtime/Npu/ll_aton/ll_aton.c ****   ATON_STRENG_FRPTOFF_SET(id, conf->loop_offset);
 3201              		.loc 1 685 3
 3202 04a6 FB68     		ldr	r3, [r7, #12]
 3203 04a8 1A03     		lsls	r2, r3, #12
 3204 04aa 844B     		ldr	r3, .L198+8
 3205 04ac 1344     		add	r3, r3, r2
 3206 04ae 1A46     		mov	r2, r3
 3207 04b0 BB68     		ldr	r3, [r7, #8]
 3208 04b2 1B6B     		ldr	r3, [r3, #48]
 3209 04b4 1360     		str	r3, [r2]
 686:Lib/AI_Runtime/Npu/ll_aton/ll_aton.c ****   ATON_STRENG_FRAME_RPT_SET(id, conf->frame_loop_cnt);
 3210              		.loc 1 686 3
 3211 04b6 FB68     		ldr	r3, [r7, #12]
ARM GAS  /tmp/ccxZaNgH.s 			page 81


 3212 04b8 1A03     		lsls	r2, r3, #12
 3213 04ba 814B     		ldr	r3, .L198+12
 3214 04bc 1344     		add	r3, r3, r2
 3215 04be 1A46     		mov	r2, r3
 3216 04c0 BB68     		ldr	r3, [r7, #8]
 3217 04c2 5B6B     		ldr	r3, [r3, #52]
 3218 04c4 1360     		str	r3, [r2]
 687:Lib/AI_Runtime/Npu/ll_aton/ll_aton.c **** 
 688:Lib/AI_Runtime/Npu/ll_aton/ll_aton.c ****   /* Second level frame repetition loop configuration (if available) */
 689:Lib/AI_Runtime/Npu/ll_aton/ll_aton.c **** #ifdef ATON_STRENG_FRAME_RPT2_DT
 690:Lib/AI_Runtime/Npu/ll_aton/ll_aton.c ****   if (conf->frame_loop_cnt2 != ATON_STRENG_FRAME_RPT2_DT)
 691:Lib/AI_Runtime/Npu/ll_aton/ll_aton.c ****     ATON_STRENG_FRAME_RPT2_SET(id, conf->frame_loop_cnt2);
 692:Lib/AI_Runtime/Npu/ll_aton/ll_aton.c ****   if (conf->loop_offset2 != ATON_STRENG_FRPTOFF2_DT)
 693:Lib/AI_Runtime/Npu/ll_aton/ll_aton.c ****     ATON_STRENG_FRPTOFF2_SET(id, conf->loop_offset2);
 694:Lib/AI_Runtime/Npu/ll_aton/ll_aton.c **** #endif
 695:Lib/AI_Runtime/Npu/ll_aton/ll_aton.c **** 
 696:Lib/AI_Runtime/Npu/ll_aton/ll_aton.c ****   t = ATON_STRENG_LIMITEN_DT; // all other fields set to zero
 3219              		.loc 1 696 5
 3220 04c6 0223     		movs	r3, #2
 3221 04c8 7B65     		str	r3, [r7, #84]
 697:Lib/AI_Runtime/Npu/ll_aton/ll_aton.c ****   t = ATON_STRENG_LIMITEN_SET_FRAMELIMIT(t, 1);
 3222              		.loc 1 697 5
 3223 04ca 7B6D     		ldr	r3, [r7, #84]
 3224 04cc 43F00403 		orr	r3, r3, #4
 3225 04d0 7B65     		str	r3, [r7, #84]
 698:Lib/AI_Runtime/Npu/ll_aton/ll_aton.c **** #if defined(ATON_STRENG_LIMITEN_SET_DOFF_MSB)
 699:Lib/AI_Runtime/Npu/ll_aton/ll_aton.c ****   t = ATON_STRENG_LIMITEN_SET_DOFF_MSB(t, conf->batch_offset >> ATON_STRENG_DEPTH_OFFSET_W);
 3226              		.loc 1 699 7
 3227 04d2 7B6D     		ldr	r3, [r7, #84]
 3228 04d4 9AB2     		uxth	r2, r3
 3229 04d6 BB68     		ldr	r3, [r7, #8]
 3230 04d8 5B6A     		ldr	r3, [r3, #36]
 3231 04da 1B0C     		lsrs	r3, r3, #16
 3232 04dc 1B04     		lsls	r3, r3, #16
 3233              		.loc 1 699 5
 3234 04de 1343     		orrs	r3, r3, r2
 3235 04e0 7B65     		str	r3, [r7, #84]
 700:Lib/AI_Runtime/Npu/ll_aton/ll_aton.c **** #endif
 701:Lib/AI_Runtime/Npu/ll_aton/ll_aton.c ****   ATON_STRENG_LIMITEN_SET(id, t);
 3236              		.loc 1 701 3
 3237 04e2 FB68     		ldr	r3, [r7, #12]
 3238 04e4 1A03     		lsls	r2, r3, #12
 3239 04e6 774B     		ldr	r3, .L198+16
 3240 04e8 1344     		add	r3, r3, r2
 3241 04ea 1A46     		mov	r2, r3
 3242 04ec 7B6D     		ldr	r3, [r7, #84]
 3243 04ee 1360     		str	r3, [r2]
 702:Lib/AI_Runtime/Npu/ll_aton/ll_aton.c **** 
 703:Lib/AI_Runtime/Npu/ll_aton/ll_aton.c ****   if (/*(conf->dir == 0) && */ (conf->offset_limit != 0x0))
 3244              		.loc 1 703 37
 3245 04f0 BB68     		ldr	r3, [r7, #8]
 3246 04f2 1B69     		ldr	r3, [r3, #16]
 3247              		.loc 1 703 6
 3248 04f4 002B     		cmp	r3, #0
 3249 04f6 1AD0     		beq	.L188
 704:Lib/AI_Runtime/Npu/ll_aton/ll_aton.c ****   {
 705:Lib/AI_Runtime/Npu/ll_aton/ll_aton.c ****     t = ATON_STRENG_LIMITEN_SET_ADDRLIMIT(t, 1);
ARM GAS  /tmp/ccxZaNgH.s 			page 82


 3250              		.loc 1 705 7
 3251 04f8 7B6D     		ldr	r3, [r7, #84]
 3252 04fa 43F00103 		orr	r3, r3, #1
 3253 04fe 7B65     		str	r3, [r7, #84]
 706:Lib/AI_Runtime/Npu/ll_aton/ll_aton.c ****     t = ATON_STRENG_LIMITEN_SET_STOPPREFTC(t, 1);
 3254              		.loc 1 706 7
 3255 0500 7B6D     		ldr	r3, [r7, #84]
 3256 0502 43F00203 		orr	r3, r3, #2
 3257 0506 7B65     		str	r3, [r7, #84]
 707:Lib/AI_Runtime/Npu/ll_aton/ll_aton.c ****     ATON_STRENG_LIMITEN_SET(id, t);
 3258              		.loc 1 707 5
 3259 0508 FB68     		ldr	r3, [r7, #12]
 3260 050a 1A03     		lsls	r2, r3, #12
 3261 050c 6D4B     		ldr	r3, .L198+16
 3262 050e 1344     		add	r3, r3, r2
 3263 0510 1A46     		mov	r2, r3
 3264 0512 7B6D     		ldr	r3, [r7, #84]
 3265 0514 1360     		str	r3, [r2]
 708:Lib/AI_Runtime/Npu/ll_aton/ll_aton.c ****     // NOTE: limiter is to be set to last accessible byte address
 709:Lib/AI_Runtime/Npu/ll_aton/ll_aton.c ****     // ATON_STRENG_LIMITADDR_SET(id, (conf->addr_limit.i - 1));
 710:Lib/AI_Runtime/Npu/ll_aton/ll_aton.c ****     ATON_REG_WRITE_RELOC(((volatile uint32_t *)(uintptr_t)ATON_STRENG_LIMITADDR_ADDR(id)), conf->ad
 3266              		.loc 1 710 5
 3267 0516 BB68     		ldr	r3, [r7, #8]
 3268 0518 5A68     		ldr	r2, [r3, #4]
 3269 051a BB68     		ldr	r3, [r7, #8]
 3270 051c 1B69     		ldr	r3, [r3, #16]
 3271 051e 1A44     		add	r2, r2, r3
 3272 0520 FB68     		ldr	r3, [r7, #12]
 3273 0522 1903     		lsls	r1, r3, #12
 3274 0524 684B     		ldr	r3, .L198+20
 3275 0526 0B44     		add	r3, r3, r1
 3276 0528 1946     		mov	r1, r3
 3277 052a 531E     		subs	r3, r2, #1
 3278 052c 0B60     		str	r3, [r1]
 3279              	.L188:
 711:Lib/AI_Runtime/Npu/ll_aton/ll_aton.c ****                          conf->offset_limit - 1);
 712:Lib/AI_Runtime/Npu/ll_aton/ll_aton.c ****   }
 713:Lib/AI_Runtime/Npu/ll_aton/ll_aton.c **** 
 714:Lib/AI_Runtime/Npu/ll_aton/ll_aton.c ****   ATON_STRENG_LIMIT_SET(id, conf->frame_tot_cnt);
 3280              		.loc 1 714 3
 3281 052e FB68     		ldr	r3, [r7, #12]
 3282 0530 1A03     		lsls	r2, r3, #12
 3283 0532 664B     		ldr	r3, .L198+24
 3284 0534 1344     		add	r3, r3, r2
 3285 0536 1A46     		mov	r2, r3
 3286 0538 BB68     		ldr	r3, [r7, #8]
 3287 053a 1B6C     		ldr	r3, [r3, #64]
 3288 053c 1360     		str	r3, [r2]
 715:Lib/AI_Runtime/Npu/ll_aton/ll_aton.c ****   // LL_ATON_PRINTF("frame_tot_cnt=%d\n", conf->frame_tot_cnt);
 716:Lib/AI_Runtime/Npu/ll_aton/ll_aton.c **** 
 717:Lib/AI_Runtime/Npu/ll_aton/ll_aton.c **** #if defined(ATON_STRENG_CID_CACHE_SET_CID)
 718:Lib/AI_Runtime/Npu/ll_aton/ll_aton.c ****   t_streng_cid_cache = ATON_STRENG_CID_CACHE_SET_CID(t_streng_cid_cache, conf->bus_cid);
 3289              		.loc 1 718 24
 3290 053e FB6C     		ldr	r3, [r7, #76]
 3291 0540 23F00703 		bic	r3, r3, #7
 3292 0544 BA68     		ldr	r2, [r7, #8]
 3293 0546 5278     		ldrb	r2, [r2, #1]
ARM GAS  /tmp/ccxZaNgH.s 			page 83


 3294 0548 C2F38202 		ubfx	r2, r2, #2, #3
 3295 054c D2B2     		uxtb	r2, r2
 3296              		.loc 1 718 22
 3297 054e 1343     		orrs	r3, r3, r2
 3298 0550 FB64     		str	r3, [r7, #76]
 719:Lib/AI_Runtime/Npu/ll_aton/ll_aton.c ****   t_streng_cid_cache = ATON_STRENG_CID_CACHE_SET_CACHEABLE(t_streng_cid_cache, conf->cacheable);
 3299              		.loc 1 719 24
 3300 0552 FB6C     		ldr	r3, [r7, #76]
 3301 0554 23F00802 		bic	r2, r3, #8
 3302 0558 BB68     		ldr	r3, [r7, #8]
 3303 055a 5B78     		ldrb	r3, [r3, #1]
 3304 055c C3F34013 		ubfx	r3, r3, #5, #1
 3305 0560 DBB2     		uxtb	r3, r3
 3306 0562 DB00     		lsls	r3, r3, #3
 3307 0564 03F00803 		and	r3, r3, #8
 3308              		.loc 1 719 22
 3309 0568 1343     		orrs	r3, r3, r2
 3310 056a FB64     		str	r3, [r7, #76]
 720:Lib/AI_Runtime/Npu/ll_aton/ll_aton.c ****   t_streng_cid_cache = ATON_STRENG_CID_CACHE_SET_ALLOC(t_streng_cid_cache, conf->cache_allocate);
 3311              		.loc 1 720 24
 3312 056c FB6C     		ldr	r3, [r7, #76]
 3313 056e 23F01002 		bic	r2, r3, #16
 3314 0572 BB68     		ldr	r3, [r7, #8]
 3315 0574 5B78     		ldrb	r3, [r3, #1]
 3316 0576 C3F38013 		ubfx	r3, r3, #6, #1
 3317 057a DBB2     		uxtb	r3, r3
 3318 057c 1B01     		lsls	r3, r3, #4
 3319 057e 03F01003 		and	r3, r3, #16
 3320              		.loc 1 720 22
 3321 0582 1343     		orrs	r3, r3, r2
 3322 0584 FB64     		str	r3, [r7, #76]
 721:Lib/AI_Runtime/Npu/ll_aton/ll_aton.c ****   t_streng_cid_cache = ATON_STRENG_CID_CACHE_SET_PFETCH(t_streng_cid_cache, conf->bus_pfetch);
 3323              		.loc 1 721 24
 3324 0586 FB6C     		ldr	r3, [r7, #76]
 3325 0588 23F02002 		bic	r2, r3, #32
 3326 058c BB68     		ldr	r3, [r7, #8]
 3327 058e 5B78     		ldrb	r3, [r3, #1]
 3328 0590 C3F3C013 		ubfx	r3, r3, #7, #1
 3329 0594 DBB2     		uxtb	r3, r3
 3330 0596 5B01     		lsls	r3, r3, #5
 3331 0598 03F02003 		and	r3, r3, #32
 3332              		.loc 1 721 22
 3333 059c 1343     		orrs	r3, r3, r2
 3334 059e FB64     		str	r3, [r7, #76]
 722:Lib/AI_Runtime/Npu/ll_aton/ll_aton.c ****   t_streng_cid_cache = ATON_STRENG_CID_CACHE_SET_LINESIZE(t_streng_cid_cache, conf->cache_linesize)
 3335              		.loc 1 722 24
 3336 05a0 FB6C     		ldr	r3, [r7, #76]
 3337 05a2 23F0C002 		bic	r2, r3, #192
 3338 05a6 BB68     		ldr	r3, [r7, #8]
 3339 05a8 9B78     		ldrb	r3, [r3, #2]
 3340 05aa C3F30103 		ubfx	r3, r3, #0, #2
 3341 05ae DBB2     		uxtb	r3, r3
 3342 05b0 9B01     		lsls	r3, r3, #6
 3343 05b2 DBB2     		uxtb	r3, r3
 3344              		.loc 1 722 22
 3345 05b4 1343     		orrs	r3, r3, r2
 3346 05b6 FB64     		str	r3, [r7, #76]
ARM GAS  /tmp/ccxZaNgH.s 			page 84


 723:Lib/AI_Runtime/Npu/ll_aton/ll_aton.c **** #endif
 724:Lib/AI_Runtime/Npu/ll_aton/ll_aton.c **** 
 725:Lib/AI_Runtime/Npu/ll_aton/ll_aton.c ****   /* Enable event interrupts */
 726:Lib/AI_Runtime/Npu/ll_aton/ll_aton.c ****   if (conf->dir == 1)
 3347              		.loc 1 726 17
 3348 05b8 BB68     		ldr	r3, [r7, #8]
 3349 05ba 1B78     		ldrb	r3, [r3]	@ zero_extendqisi2
 3350 05bc 03F00103 		and	r3, r3, #1
 3351 05c0 DBB2     		uxtb	r3, r3
 3352              		.loc 1 726 6
 3353 05c2 002B     		cmp	r3, #0
 3354 05c4 05D0     		beq	.L189
 727:Lib/AI_Runtime/Npu/ll_aton/ll_aton.c ****   {
 728:Lib/AI_Runtime/Npu/ll_aton/ll_aton.c **** #if LL_ATON_EN_EVENT_IRQ
 729:Lib/AI_Runtime/Npu/ll_aton/ll_aton.c ****     t_streng_event = 0;
 3355              		.loc 1 729 20
 3356 05c6 0023     		movs	r3, #0
 3357 05c8 BB64     		str	r3, [r7, #72]
 730:Lib/AI_Runtime/Npu/ll_aton/ll_aton.c ****     t_streng_event = ATON_STRENG_EVENT_SET_EN_OFLOW_FRM(t_streng_event, 1); // enable frame overflo
 3358              		.loc 1 730 20
 3359 05ca BB6C     		ldr	r3, [r7, #72]
 3360 05cc 43F40023 		orr	r3, r3, #524288
 3361 05d0 BB64     		str	r3, [r7, #72]
 3362              	.L189:
 731:Lib/AI_Runtime/Npu/ll_aton/ll_aton.c **** #if 0
 732:Lib/AI_Runtime/Npu/ll_aton/ll_aton.c ****     t_streng_event = ATON_STRENG_EVENT_SET_EN_OFLOW_ADD(t_streng_event, 1); // enable address limit
 733:Lib/AI_Runtime/Npu/ll_aton/ll_aton.c **** #endif
 734:Lib/AI_Runtime/Npu/ll_aton/ll_aton.c **** #endif // LL_ATON_EN_EVENT_IRQ
 735:Lib/AI_Runtime/Npu/ll_aton/ll_aton.c ****   }
 736:Lib/AI_Runtime/Npu/ll_aton/ll_aton.c **** 
 737:Lib/AI_Runtime/Npu/ll_aton/ll_aton.c ****   /* Enable illegal configuration interrupts */
 738:Lib/AI_Runtime/Npu/ll_aton/ll_aton.c **** #if LL_ATON_EN_ERROR_IRQ
 739:Lib/AI_Runtime/Npu/ll_aton/ll_aton.c ****   t = t_streng_event;
 3363              		.loc 1 739 5
 3364 05d2 BB6C     		ldr	r3, [r7, #72]
 3365 05d4 7B65     		str	r3, [r7, #84]
 740:Lib/AI_Runtime/Npu/ll_aton/ll_aton.c ****   t = ATON_STRENG_EVENT_SET_EN_ILLCFG(t, 1); // Enable Illegal Configuration interrupt
 3366              		.loc 1 740 5
 3367 05d6 7B6D     		ldr	r3, [r7, #84]
 3368 05d8 43F48013 		orr	r3, r3, #1048576
 3369 05dc 7B65     		str	r3, [r7, #84]
 741:Lib/AI_Runtime/Npu/ll_aton/ll_aton.c ****   // t = ATON_STRENG_EVENT_SET_EN_FMTMM(t, 1); // Enable Format Mismatch interrupt (intentionally n
 742:Lib/AI_Runtime/Npu/ll_aton/ll_aton.c ****   t_streng_event = t;
 3370              		.loc 1 742 18
 3371 05de 7B6D     		ldr	r3, [r7, #84]
 3372 05e0 BB64     		str	r3, [r7, #72]
 743:Lib/AI_Runtime/Npu/ll_aton/ll_aton.c **** #endif // LL_ATON_EN_ERROR_IRQ
 744:Lib/AI_Runtime/Npu/ll_aton/ll_aton.c **** 
 745:Lib/AI_Runtime/Npu/ll_aton/ll_aton.c ****   if ((conf->dir == 0) && conf->sync_with_other)
 3373              		.loc 1 745 18
 3374 05e2 BB68     		ldr	r3, [r7, #8]
 3375 05e4 1B78     		ldrb	r3, [r3]	@ zero_extendqisi2
 3376 05e6 03F00103 		and	r3, r3, #1
 3377 05ea DBB2     		uxtb	r3, r3
 3378              		.loc 1 745 6
 3379 05ec 002B     		cmp	r3, #0
 3380 05ee 18D1     		bne	.L190
ARM GAS  /tmp/ccxZaNgH.s 			page 85


 3381              		.loc 1 745 24 discriminator 1
 3382 05f0 BB68     		ldr	r3, [r7, #8]
 3383 05f2 5B78     		ldrb	r3, [r3, #1]	@ zero_extendqisi2
 3384 05f4 03F00103 		and	r3, r3, #1
 3385 05f8 DBB2     		uxtb	r3, r3
 3386 05fa 002B     		cmp	r3, #0
 3387 05fc 11D0     		beq	.L190
 746:Lib/AI_Runtime/Npu/ll_aton/ll_aton.c ****   {
 747:Lib/AI_Runtime/Npu/ll_aton/ll_aton.c ****     t = t_streng_event;
 3388              		.loc 1 747 7
 3389 05fe BB6C     		ldr	r3, [r7, #72]
 3390 0600 7B65     		str	r3, [r7, #84]
 748:Lib/AI_Runtime/Npu/ll_aton/ll_aton.c ****     t = ATON_STRENG_EVENT_SET_FRMTRG_EN(t, 1);               // Enable synchronizations of frames w
 3391              		.loc 1 748 7
 3392 0602 7B6D     		ldr	r3, [r7, #84]
 3393 0604 43F40003 		orr	r3, r3, #8388608
 3394 0608 7B65     		str	r3, [r7, #84]
 749:Lib/AI_Runtime/Npu/ll_aton/ll_aton.c ****     t = ATON_STRENG_EVENT_SET_FRMTRG_SRC(t, conf->sync_dma); // Enable synchronizations of frames w
 3395              		.loc 1 749 9
 3396 060a 7B6D     		ldr	r3, [r7, #84]
 3397 060c 23F0F852 		bic	r2, r3, #520093696
 3398 0610 BB68     		ldr	r3, [r7, #8]
 3399 0612 DB78     		ldrb	r3, [r3, #3]	@ zero_extendqisi2
 3400 0614 1B06     		lsls	r3, r3, #24
 3401 0616 03F0F853 		and	r3, r3, #520093696
 3402              		.loc 1 749 7
 3403 061a 1343     		orrs	r3, r3, r2
 3404 061c 7B65     		str	r3, [r7, #84]
 750:Lib/AI_Runtime/Npu/ll_aton/ll_aton.c ****     t_streng_event = t;
 3405              		.loc 1 750 20
 3406 061e 7B6D     		ldr	r3, [r7, #84]
 3407 0620 BB64     		str	r3, [r7, #72]
 3408              	.L190:
 751:Lib/AI_Runtime/Npu/ll_aton/ll_aton.c ****   }
 752:Lib/AI_Runtime/Npu/ll_aton/ll_aton.c **** 
 753:Lib/AI_Runtime/Npu/ll_aton/ll_aton.c **** #if 1
 754:Lib/AI_Runtime/Npu/ll_aton/ll_aton.c ****   t = ATON_STRENG_POS_DT;
 3409              		.loc 1 754 5
 3410 0622 2B4B     		ldr	r3, .L198+28
 3411 0624 7B65     		str	r3, [r7, #84]
 755:Lib/AI_Runtime/Npu/ll_aton/ll_aton.c ****   t = ATON_STRENG_POS_SET_GAPCYCLES(t, 0); // set interline gap cycle to 0, as it should be safe to
 3412              		.loc 1 755 5
 3413 0626 7B6D     		ldr	r3, [r7, #84]
 3414 0628 9BB2     		uxth	r3, r3
 3415 062a 7B65     		str	r3, [r7, #84]
 756:Lib/AI_Runtime/Npu/ll_aton/ll_aton.c ****   ATON_STRENG_POS_SET(id, t);
 3416              		.loc 1 756 3
 3417 062c FB68     		ldr	r3, [r7, #12]
 3418 062e 1A03     		lsls	r2, r3, #12
 3419 0630 284B     		ldr	r3, .L198+32
 3420 0632 1344     		add	r3, r3, r2
 3421 0634 1A46     		mov	r2, r3
 3422 0636 7B6D     		ldr	r3, [r7, #84]
 3423 0638 1360     		str	r3, [r2]
 757:Lib/AI_Runtime/Npu/ll_aton/ll_aton.c **** #endif
 758:Lib/AI_Runtime/Npu/ll_aton/ll_aton.c **** 
 759:Lib/AI_Runtime/Npu/ll_aton/ll_aton.c ****   /* deferred register setting */
ARM GAS  /tmp/ccxZaNgH.s 			page 86


 760:Lib/AI_Runtime/Npu/ll_aton/ll_aton.c ****   ATON_STRENG_STRD_SET(id, t_streng_strd);
 3424              		.loc 1 760 3
 3425 063a FB68     		ldr	r3, [r7, #12]
 3426 063c 1A03     		lsls	r2, r3, #12
 3427 063e 264B     		ldr	r3, .L198+36
 3428 0640 1344     		add	r3, r3, r2
 3429 0642 1A46     		mov	r2, r3
 3430 0644 3B6D     		ldr	r3, [r7, #80]
 3431 0646 1360     		str	r3, [r2]
 761:Lib/AI_Runtime/Npu/ll_aton/ll_aton.c ****   ATON_STRENG_CID_CACHE_SET(id, t_streng_cid_cache);
 3432              		.loc 1 761 3
 3433 0648 FB68     		ldr	r3, [r7, #12]
 3434 064a 1A03     		lsls	r2, r3, #12
 3435 064c 234B     		ldr	r3, .L198+40
 3436 064e 1344     		add	r3, r3, r2
 3437 0650 1A46     		mov	r2, r3
 3438 0652 FB6C     		ldr	r3, [r7, #76]
 3439 0654 1360     		str	r3, [r2]
 762:Lib/AI_Runtime/Npu/ll_aton/ll_aton.c ****   ATON_STRENG_EVENT_SET(id, t_streng_event);
 3440              		.loc 1 762 3
 3441 0656 FB68     		ldr	r3, [r7, #12]
 3442 0658 1A03     		lsls	r2, r3, #12
 3443 065a 214B     		ldr	r3, .L198+44
 3444 065c 1344     		add	r3, r3, r2
 3445 065e 1A46     		mov	r2, r3
 3446 0660 BB6C     		ldr	r3, [r7, #72]
 3447 0662 1360     		str	r3, [r2]
