ARM GAS  /tmp/ccxZaNgH.s 			page 1


   1              		.arch armv8.1-m.main
   2              		.fpu fpv5-d16
   3              		.arch_extension dsp
   4              		.arch_extension fp
   5              		.arch_extension fp.dp
   6              		.arch_extension mve
   7              		.arch_extension mve.fp
   8              		.eabi_attribute 5, "cortex-m55"
   9              		.eabi_attribute 28, 1
  10              		.eabi_attribute 20, 1
  11              		.eabi_attribute 21, 1
  12              		.eabi_attribute 23, 3
  13              		.eabi_attribute 24, 1
  14              		.eabi_attribute 25, 1
  15              		.eabi_attribute 26, 1
  16              		.eabi_attribute 30, 6
  17              		.eabi_attribute 34, 1
  18              		.eabi_attribute 38, 1
  19              		.eabi_attribute 18, 4
  20              		.file	"ll_aton.c"
  21              		.text
  22              	.Ltext0:
  23              		.cfi_sections	.debug_frame
  24              		.file 1 "Lib/AI_Runtime/Npu/ll_aton/ll_aton.c"
  25              		.section	.text.LL_Streng_len,"ax",%progbits
  26              		.align	1
  27              		.syntax unified
  28              		.thumb
  29              		.thumb_func
  31              	LL_Streng_len:
  32              	.LFB4810:
  33              		.file 2 "Lib/AI_Runtime/Npu/ll_aton/ll_aton.h"
   1:Lib/AI_Runtime/Npu/ll_aton/ll_aton.h **** /**
   2:Lib/AI_Runtime/Npu/ll_aton/ll_aton.h ****  ******************************************************************************
   3:Lib/AI_Runtime/Npu/ll_aton/ll_aton.h ****  * @file    ll_aton.h
   4:Lib/AI_Runtime/Npu/ll_aton/ll_aton.h ****  * @author  SRA Artificial Intelligence & Embedded Architectures
   5:Lib/AI_Runtime/Npu/ll_aton/ll_aton.h ****  * @brief   Header file of ATON LL module.
   6:Lib/AI_Runtime/Npu/ll_aton/ll_aton.h ****  ******************************************************************************
   7:Lib/AI_Runtime/Npu/ll_aton/ll_aton.h ****  * @attention
   8:Lib/AI_Runtime/Npu/ll_aton/ll_aton.h ****  *
   9:Lib/AI_Runtime/Npu/ll_aton/ll_aton.h ****  * Copyright (c) 2024 STMicroelectronics.
  10:Lib/AI_Runtime/Npu/ll_aton/ll_aton.h ****  * All rights reserved.
  11:Lib/AI_Runtime/Npu/ll_aton/ll_aton.h ****  *
  12:Lib/AI_Runtime/Npu/ll_aton/ll_aton.h ****  * This software is licensed under terms that can be found in the LICENSE file
  13:Lib/AI_Runtime/Npu/ll_aton/ll_aton.h ****  * in the root directory of this software component.
  14:Lib/AI_Runtime/Npu/ll_aton/ll_aton.h ****  * If no LICENSE file comes with this software, it is provided AS-IS.
  15:Lib/AI_Runtime/Npu/ll_aton/ll_aton.h ****  *
  16:Lib/AI_Runtime/Npu/ll_aton/ll_aton.h ****  ******************************************************************************
  17:Lib/AI_Runtime/Npu/ll_aton/ll_aton.h ****  */
  18:Lib/AI_Runtime/Npu/ll_aton/ll_aton.h **** 
  19:Lib/AI_Runtime/Npu/ll_aton/ll_aton.h **** #ifndef __LL_ATON_H
  20:Lib/AI_Runtime/Npu/ll_aton/ll_aton.h **** #define __LL_ATON_H
  21:Lib/AI_Runtime/Npu/ll_aton/ll_aton.h **** 
  22:Lib/AI_Runtime/Npu/ll_aton/ll_aton.h **** #ifdef __cplusplus
  23:Lib/AI_Runtime/Npu/ll_aton/ll_aton.h **** extern "C"
  24:Lib/AI_Runtime/Npu/ll_aton/ll_aton.h **** {
  25:Lib/AI_Runtime/Npu/ll_aton/ll_aton.h **** #endif
ARM GAS  /tmp/ccxZaNgH.s 			page 2


  26:Lib/AI_Runtime/Npu/ll_aton/ll_aton.h **** 
  27:Lib/AI_Runtime/Npu/ll_aton/ll_aton.h **** #include <assert.h>
  28:Lib/AI_Runtime/Npu/ll_aton/ll_aton.h **** #include <stddef.h>
  29:Lib/AI_Runtime/Npu/ll_aton/ll_aton.h **** #include <stdint.h>
  30:Lib/AI_Runtime/Npu/ll_aton/ll_aton.h **** 
  31:Lib/AI_Runtime/Npu/ll_aton/ll_aton.h **** #include "ll_aton_attributes.h"
  32:Lib/AI_Runtime/Npu/ll_aton/ll_aton.h **** #include "ll_aton_config.h"
  33:Lib/AI_Runtime/Npu/ll_aton/ll_aton.h **** 
  34:Lib/AI_Runtime/Npu/ll_aton/ll_aton.h **** #if (LL_ATON_PLATFORM != LL_ATON_PLAT_EC_TRACE)
  35:Lib/AI_Runtime/Npu/ll_aton/ll_aton.h **** #include "ll_aton_osal.h"
  36:Lib/AI_Runtime/Npu/ll_aton/ll_aton.h **** #include "ll_aton_platform.h"
  37:Lib/AI_Runtime/Npu/ll_aton/ll_aton.h **** #endif // LL_ATON_PLATFORM != LL_ATON_PLAT_EC_TRACE
  38:Lib/AI_Runtime/Npu/ll_aton/ll_aton.h **** 
  39:Lib/AI_Runtime/Npu/ll_aton/ll_aton.h **** /** @defgroup ATON_LL ATON_LL_Driver
  40:Lib/AI_Runtime/Npu/ll_aton/ll_aton.h ****  * @{
  41:Lib/AI_Runtime/Npu/ll_aton/ll_aton.h ****  */
  42:Lib/AI_Runtime/Npu/ll_aton/ll_aton.h **** 
  43:Lib/AI_Runtime/Npu/ll_aton/ll_aton.h **** /* LL ATON error codes */
  44:Lib/AI_Runtime/Npu/ll_aton/ll_aton.h **** #define LL_ATON_OK            (0)
  45:Lib/AI_Runtime/Npu/ll_aton/ll_aton.h **** #define LL_ATON_INVALID_ID    (-1)
  46:Lib/AI_Runtime/Npu/ll_aton/ll_aton.h **** #define LL_ATON_INVALID_PARAM (-2)
  47:Lib/AI_Runtime/Npu/ll_aton/ll_aton.h **** #define LL_ATON_TIMEOUT       (-3)
  48:Lib/AI_Runtime/Npu/ll_aton/ll_aton.h **** 
  49:Lib/AI_Runtime/Npu/ll_aton/ll_aton.h ****   /* this is needed to avoid some compilers (e.g. KEIL) that observe a strict semantic about conver
  50:Lib/AI_Runtime/Npu/ll_aton/ll_aton.h ****    * pointers to integers in const initializers
  51:Lib/AI_Runtime/Npu/ll_aton/ll_aton.h ****    */
  52:Lib/AI_Runtime/Npu/ll_aton/ll_aton.h ****   typedef union
  53:Lib/AI_Runtime/Npu/ll_aton/ll_aton.h ****   {
  54:Lib/AI_Runtime/Npu/ll_aton/ll_aton.h ****     unsigned char *p;
  55:Lib/AI_Runtime/Npu/ll_aton/ll_aton.h ****     uintptr_t i;
  56:Lib/AI_Runtime/Npu/ll_aton/ll_aton.h ****   } ll_aton_pointer;
  57:Lib/AI_Runtime/Npu/ll_aton/ll_aton.h **** 
  58:Lib/AI_Runtime/Npu/ll_aton/ll_aton.h ****   /* Method that translates an address from physical to virtual */
  59:Lib/AI_Runtime/Npu/ll_aton/ll_aton.h ****   unsigned char *LL_Address_Physical2Virtual(unsigned char *address);
  60:Lib/AI_Runtime/Npu/ll_aton/ll_aton.h **** 
  61:Lib/AI_Runtime/Npu/ll_aton/ll_aton.h ****   /* Method that translates an address from virtual to physical */
  62:Lib/AI_Runtime/Npu/ll_aton/ll_aton.h ****   unsigned char *LL_Address_Virtual2Physical(unsigned char *address);
  63:Lib/AI_Runtime/Npu/ll_aton/ll_aton.h **** 
  64:Lib/AI_Runtime/Npu/ll_aton/ll_aton.h **** /**
  65:Lib/AI_Runtime/Npu/ll_aton/ll_aton.h ****  * @brief ATON User Configuration macros
  66:Lib/AI_Runtime/Npu/ll_aton/ll_aton.h ****  */
  67:Lib/AI_Runtime/Npu/ll_aton/ll_aton.h **** /* Set beyond macro to 1 if you want to enable the generation of ATON event interrupts */
  68:Lib/AI_Runtime/Npu/ll_aton/ll_aton.h **** #ifndef LL_ATON_EN_EVENT_IRQ
  69:Lib/AI_Runtime/Npu/ll_aton/ll_aton.h **** #define LL_ATON_EN_EVENT_IRQ 1
  70:Lib/AI_Runtime/Npu/ll_aton/ll_aton.h **** #endif
  71:Lib/AI_Runtime/Npu/ll_aton/ll_aton.h **** 
  72:Lib/AI_Runtime/Npu/ll_aton/ll_aton.h **** /* Set beyond macro to 1 if you want to enable the generation of ATON configuration error interrupt
  73:Lib/AI_Runtime/Npu/ll_aton/ll_aton.h **** #ifndef LL_ATON_EN_ERROR_IRQ
  74:Lib/AI_Runtime/Npu/ll_aton/ll_aton.h **** #define LL_ATON_EN_ERROR_IRQ 1
  75:Lib/AI_Runtime/Npu/ll_aton/ll_aton.h **** #endif
  76:Lib/AI_Runtime/Npu/ll_aton/ll_aton.h **** 
  77:Lib/AI_Runtime/Npu/ll_aton/ll_aton.h ****   /** @defgroup ATON_INIT ATON Global initialization/deinitialization functions
  78:Lib/AI_Runtime/Npu/ll_aton/ll_aton.h ****    * @{
  79:Lib/AI_Runtime/Npu/ll_aton/ll_aton.h ****    */
  80:Lib/AI_Runtime/Npu/ll_aton/ll_aton.h ****   int LL_ATON_Init(void);
  81:Lib/AI_Runtime/Npu/ll_aton/ll_aton.h ****   int LL_ATON_DeInit(void);
  82:Lib/AI_Runtime/Npu/ll_aton/ll_aton.h ****   /**
ARM GAS  /tmp/ccxZaNgH.s 			page 3


  83:Lib/AI_Runtime/Npu/ll_aton/ll_aton.h ****    * @}
  84:Lib/AI_Runtime/Npu/ll_aton/ll_aton.h ****    */
  85:Lib/AI_Runtime/Npu/ll_aton/ll_aton.h **** 
  86:Lib/AI_Runtime/Npu/ll_aton/ll_aton.h ****   /**
  87:Lib/AI_Runtime/Npu/ll_aton/ll_aton.h ****    * @brief List of acceleration units types
  88:Lib/AI_Runtime/Npu/ll_aton/ll_aton.h ****    */
  89:Lib/AI_Runtime/Npu/ll_aton/ll_aton.h ****   enum AccelUnitsType
  90:Lib/AI_Runtime/Npu/ll_aton/ll_aton.h ****   {
  91:Lib/AI_Runtime/Npu/ll_aton/ll_aton.h ****     STRENG = 0,
  92:Lib/AI_Runtime/Npu/ll_aton/ll_aton.h ****     STRENG64,
  93:Lib/AI_Runtime/Npu/ll_aton/ll_aton.h ****     CONVACC,
  94:Lib/AI_Runtime/Npu/ll_aton/ll_aton.h ****     DECUN,
  95:Lib/AI_Runtime/Npu/ll_aton/ll_aton.h ****     ACTIV,
  96:Lib/AI_Runtime/Npu/ll_aton/ll_aton.h ****     ARITH,
  97:Lib/AI_Runtime/Npu/ll_aton/ll_aton.h ****     POOL,
  98:Lib/AI_Runtime/Npu/ll_aton/ll_aton.h ****     IMC,
  99:Lib/AI_Runtime/Npu/ll_aton/ll_aton.h ****     RECBUF,
 100:Lib/AI_Runtime/Npu/ll_aton/ll_aton.h ****   };
 101:Lib/AI_Runtime/Npu/ll_aton/ll_aton.h **** 
 102:Lib/AI_Runtime/Npu/ll_aton/ll_aton.h ****   typedef struct
 103:Lib/AI_Runtime/Npu/ll_aton/ll_aton.h ****   {
 104:Lib/AI_Runtime/Npu/ll_aton/ll_aton.h ****     enum AccelUnitsType unit_type;
 105:Lib/AI_Runtime/Npu/ll_aton/ll_aton.h ****     unsigned short unit_num;
 106:Lib/AI_Runtime/Npu/ll_aton/ll_aton.h ****   } AccelUnits;
 107:Lib/AI_Runtime/Npu/ll_aton/ll_aton.h **** 
 108:Lib/AI_Runtime/Npu/ll_aton/ll_aton.h ****   /**
 109:Lib/AI_Runtime/Npu/ll_aton/ll_aton.h ****    * @brief  Converts an Aton unit cardinal group id into a global one
 110:Lib/AI_Runtime/Npu/ll_aton/ll_aton.h ****    * @param  type enum specifying the unit group
 111:Lib/AI_Runtime/Npu/ll_aton/ll_aton.h ****    * @param  id Cardinal id of the unit in the group
 112:Lib/AI_Runtime/Npu/ll_aton/ll_aton.h ****    * @retval ATON Unit index
 113:Lib/AI_Runtime/Npu/ll_aton/ll_aton.h ****    * @todo   Add boundary checks
 114:Lib/AI_Runtime/Npu/ll_aton/ll_aton.h ****    */
 115:Lib/AI_Runtime/Npu/ll_aton/ll_aton.h ****   static inline AccelUnits LL_ATON_GetUnit_From_Cardinal_ID(enum AccelUnitsType type, int id)
 116:Lib/AI_Runtime/Npu/ll_aton/ll_aton.h ****   {
 117:Lib/AI_Runtime/Npu/ll_aton/ll_aton.h ****     return (AccelUnits){type, (unsigned short)id};
 118:Lib/AI_Runtime/Npu/ll_aton/ll_aton.h ****   }
 119:Lib/AI_Runtime/Npu/ll_aton/ll_aton.h **** 
 120:Lib/AI_Runtime/Npu/ll_aton/ll_aton.h ****   /**
 121:Lib/AI_Runtime/Npu/ll_aton/ll_aton.h ****    * @brief Activation Unit function types
 122:Lib/AI_Runtime/Npu/ll_aton/ll_aton.h ****    */
 123:Lib/AI_Runtime/Npu/ll_aton/ll_aton.h ****   typedef enum
 124:Lib/AI_Runtime/Npu/ll_aton/ll_aton.h ****   {
 125:Lib/AI_Runtime/Npu/ll_aton/ll_aton.h ****     ACTIV_RELU = 1,
 126:Lib/AI_Runtime/Npu/ll_aton/ll_aton.h ****     ACTIV_PRELU,
 127:Lib/AI_Runtime/Npu/ll_aton/ll_aton.h ****     ACTIV_TRELU,
 128:Lib/AI_Runtime/Npu/ll_aton/ll_aton.h ****     ACTIV_FUNC,
 129:Lib/AI_Runtime/Npu/ll_aton/ll_aton.h ****     ACTIV_LUT
 130:Lib/AI_Runtime/Npu/ll_aton/ll_aton.h ****   } LL_Activacc_Op;
 131:Lib/AI_Runtime/Npu/ll_aton/ll_aton.h **** 
 132:Lib/AI_Runtime/Npu/ll_aton/ll_aton.h ****   /**
 133:Lib/AI_Runtime/Npu/ll_aton/ll_aton.h ****    * @brief Activation unit Accelerator configuration structure
 134:Lib/AI_Runtime/Npu/ll_aton/ll_aton.h ****    */
 135:Lib/AI_Runtime/Npu/ll_aton/ll_aton.h ****   typedef struct
 136:Lib/AI_Runtime/Npu/ll_aton/ll_aton.h ****   {
 137:Lib/AI_Runtime/Npu/ll_aton/ll_aton.h ****     unsigned rounding_f : 1;     /**< Input feature data rounding control: 1=enable,0=disable */
 138:Lib/AI_Runtime/Npu/ll_aton/ll_aton.h ****     unsigned saturation_f : 1;   /**< Input feature data saturation control: 1=enable,0=disable */
 139:Lib/AI_Runtime/Npu/ll_aton/ll_aton.h ****     unsigned round_mode_f : 2;   /**< Input feature round mode */
ARM GAS  /tmp/ccxZaNgH.s 			page 4


 140:Lib/AI_Runtime/Npu/ll_aton/ll_aton.h ****     unsigned inbytes_f : 2;      /**< Input data width in bytes. Valid values are 1, 2 or 3 bytes *
 141:Lib/AI_Runtime/Npu/ll_aton/ll_aton.h ****     unsigned outbytes_f : 2;     /**< Input feature output bytes after shift. Valid values are 1 or
 142:Lib/AI_Runtime/Npu/ll_aton/ll_aton.h ****     unsigned rounding_o : 1;     /**< Output rounding control, 1=enable,0=disable */
 143:Lib/AI_Runtime/Npu/ll_aton/ll_aton.h ****     unsigned saturation_o : 1;   /**< Output saturation control,1=enable,0=disable */
 144:Lib/AI_Runtime/Npu/ll_aton/ll_aton.h ****     unsigned round_mode_o : 1;   /**< Output rounding mode */
 145:Lib/AI_Runtime/Npu/ll_aton/ll_aton.h ****     unsigned relu_mode_o : 1;    /**< Apply Relu operation before rounding */
 146:Lib/AI_Runtime/Npu/ll_aton/ll_aton.h ****     unsigned outbytes_o : 2;     /**< Number of output bytes: 1, 2 or 3 */
 147:Lib/AI_Runtime/Npu/ll_aton/ll_aton.h ****     unsigned signedop : 1;       /**< Signed/unsigned activations: 0: unsigned activations, 1 signe
 148:Lib/AI_Runtime/Npu/ll_aton/ll_aton.h ****     unsigned char shift_f;       /**< Input feature data shift. Negative values represent left shif
 149:Lib/AI_Runtime/Npu/ll_aton/ll_aton.h ****     unsigned char shift_o;       /**< Optional right shift to be applied to the function evaluator 
 150:Lib/AI_Runtime/Npu/ll_aton/ll_aton.h ****     unsigned parameter;          /**< ReLU parameter */
 151:Lib/AI_Runtime/Npu/ll_aton/ll_aton.h ****     unsigned parameter_2;        /**< Zero offset for TRELU operation for use in scale/offset integ
 152:Lib/AI_Runtime/Npu/ll_aton/ll_aton.h ****                                   *   Needs zp alignment */
 153:Lib/AI_Runtime/Npu/ll_aton/ll_aton.h ****     unsigned nbytes;             /**< Number of bytes of input data  */
 154:Lib/AI_Runtime/Npu/ll_aton/ll_aton.h ****     ll_aton_pointer ROM0_vector; /**< Address of ROM0 coefficients table */
 155:Lib/AI_Runtime/Npu/ll_aton/ll_aton.h ****     ll_aton_pointer ROM1_vector; /**< Address of ROM1 coefficients table */
 156:Lib/AI_Runtime/Npu/ll_aton/ll_aton.h ****     ll_aton_pointer LUT_vector;  /**< Address of LUT coefficients table */
 157:Lib/AI_Runtime/Npu/ll_aton/ll_aton.h ****     unsigned ROM0_nbytes;        /**< Length of ROM0 table */
 158:Lib/AI_Runtime/Npu/ll_aton/ll_aton.h ****     unsigned ROM1_nbytes;        /**< Length of ROM1 table */
 159:Lib/AI_Runtime/Npu/ll_aton/ll_aton.h ****     unsigned char shift_b;       /**< Optional left shift to be applied to coefficient B */
 160:Lib/AI_Runtime/Npu/ll_aton/ll_aton.h ****     unsigned char shift_c;       /**< Optional left shift to be applied to coefficient C */
 161:Lib/AI_Runtime/Npu/ll_aton/ll_aton.h ****     unsigned char shift_norm;    /**< Function input range normalization left shift parameter */
 162:Lib/AI_Runtime/Npu/ll_aton/ll_aton.h ****     unsigned char bwidth;        /**< Number of MSB bits of the input activation to be used to addr
 163:Lib/AI_Runtime/Npu/ll_aton/ll_aton.h ****                                   *   This field configures the number of outer segments (max outer
 164:Lib/AI_Runtime/Npu/ll_aton/ll_aton.h ****                                   *   Valid values range = 0,1,2,3,4 and 5 corresponding to 1,2,4,8
 165:Lib/AI_Runtime/Npu/ll_aton/ll_aton.h ****                                   *   respectively */
 166:Lib/AI_Runtime/Npu/ll_aton/ll_aton.h ****     int fsub;                    /**< Feature data subtract value */
 167:Lib/AI_Runtime/Npu/ll_aton/ll_aton.h ****     LL_Activacc_Op operation;    /**< Activation type. See LL_Activacc_Op */
 168:Lib/AI_Runtime/Npu/ll_aton/ll_aton.h ****   } LL_Activacc_InitTypeDef;
 169:Lib/AI_Runtime/Npu/ll_aton/ll_aton.h **** 
 170:Lib/AI_Runtime/Npu/ll_aton/ll_aton.h ****   /** @defgroup LL_ACTIV Activation unit configuration functions
 171:Lib/AI_Runtime/Npu/ll_aton/ll_aton.h ****    * @{
 172:Lib/AI_Runtime/Npu/ll_aton/ll_aton.h ****    */
 173:Lib/AI_Runtime/Npu/ll_aton/ll_aton.h ****   int LL_Activacc_Init(int id, const LL_Activacc_InitTypeDef *Activacc_InitStruct);
 174:Lib/AI_Runtime/Npu/ll_aton/ll_aton.h ****   /**
 175:Lib/AI_Runtime/Npu/ll_aton/ll_aton.h ****    * @}
 176:Lib/AI_Runtime/Npu/ll_aton/ll_aton.h ****    */
 177:Lib/AI_Runtime/Npu/ll_aton/ll_aton.h **** 
 178:Lib/AI_Runtime/Npu/ll_aton/ll_aton.h ****   /**
 179:Lib/AI_Runtime/Npu/ll_aton/ll_aton.h ****    * @brief Arithmetic unit operations
 180:Lib/AI_Runtime/Npu/ll_aton/ll_aton.h ****    */
 181:Lib/AI_Runtime/Npu/ll_aton/ll_aton.h ****   typedef enum
 182:Lib/AI_Runtime/Npu/ll_aton/ll_aton.h ****   {
 183:Lib/AI_Runtime/Npu/ll_aton/ll_aton.h ****     ARITH_AFFINE = 1,
 184:Lib/AI_Runtime/Npu/ll_aton/ll_aton.h ****     ARITH_MIN,
 185:Lib/AI_Runtime/Npu/ll_aton/ll_aton.h ****     ARITH_MAX,
 186:Lib/AI_Runtime/Npu/ll_aton/ll_aton.h ****     ARITH_MUL,
 187:Lib/AI_Runtime/Npu/ll_aton/ll_aton.h ****     ARITH_X_AND_Y,
 188:Lib/AI_Runtime/Npu/ll_aton/ll_aton.h ****     ARITH_X_OR_Y,
 189:Lib/AI_Runtime/Npu/ll_aton/ll_aton.h ****     ARITH_NOT_X,
 190:Lib/AI_Runtime/Npu/ll_aton/ll_aton.h ****     ARITH_X_XOR_Y,
 191:Lib/AI_Runtime/Npu/ll_aton/ll_aton.h ****     ARITH_X_EQ_Y,
 192:Lib/AI_Runtime/Npu/ll_aton/ll_aton.h ****     ARITH_X_LT_Y,
 193:Lib/AI_Runtime/Npu/ll_aton/ll_aton.h ****     ARITH_X_LE_Y,
 194:Lib/AI_Runtime/Npu/ll_aton/ll_aton.h ****     ARITH_X_GT_Y,
 195:Lib/AI_Runtime/Npu/ll_aton/ll_aton.h ****     ARITH_X_GE_Y,
 196:Lib/AI_Runtime/Npu/ll_aton/ll_aton.h ****     ARITH_ABS_X,
ARM GAS  /tmp/ccxZaNgH.s 			page 5


 197:Lib/AI_Runtime/Npu/ll_aton/ll_aton.h ****     ARITH_SIGN_X,
 198:Lib/AI_Runtime/Npu/ll_aton/ll_aton.h ****     ARITH_CLIP
 199:Lib/AI_Runtime/Npu/ll_aton/ll_aton.h ****   } LL_Arithacc_Op;
 200:Lib/AI_Runtime/Npu/ll_aton/ll_aton.h **** 
 201:Lib/AI_Runtime/Npu/ll_aton/ll_aton.h ****   /**
 202:Lib/AI_Runtime/Npu/ll_aton/ll_aton.h ****    * @brief Arithmetic constant broadcast modes
 203:Lib/AI_Runtime/Npu/ll_aton/ll_aton.h ****    */
 204:Lib/AI_Runtime/Npu/ll_aton/ll_aton.h ****   typedef enum
 205:Lib/AI_Runtime/Npu/ll_aton/ll_aton.h ****   {
 206:Lib/AI_Runtime/Npu/ll_aton/ll_aton.h ****     ARITH_BCAST_NONE,
 207:Lib/AI_Runtime/Npu/ll_aton/ll_aton.h ****     ARITH_BCAST_CHAN,
 208:Lib/AI_Runtime/Npu/ll_aton/ll_aton.h ****     ARITH_BCAST_HEIGHT,
 209:Lib/AI_Runtime/Npu/ll_aton/ll_aton.h ****     ARITH_BCAST_WIDTH,
 210:Lib/AI_Runtime/Npu/ll_aton/ll_aton.h ****     ARITH_BCAST_HEIGHT_WIDTH,
 211:Lib/AI_Runtime/Npu/ll_aton/ll_aton.h ****     ARITH_BCAST_SCALAR,
 212:Lib/AI_Runtime/Npu/ll_aton/ll_aton.h ****   } LL_Arithacc_Bcast;
 213:Lib/AI_Runtime/Npu/ll_aton/ll_aton.h **** 
 214:Lib/AI_Runtime/Npu/ll_aton/ll_aton.h ****   /**
 215:Lib/AI_Runtime/Npu/ll_aton/ll_aton.h ****    *	@brief Arithmetic unit Accelerator configuration structure
 216:Lib/AI_Runtime/Npu/ll_aton/ll_aton.h ****    */
 217:Lib/AI_Runtime/Npu/ll_aton/ll_aton.h ****   typedef struct
 218:Lib/AI_Runtime/Npu/ll_aton/ll_aton.h ****   {
 219:Lib/AI_Runtime/Npu/ll_aton/ll_aton.h ****     unsigned rounding_x : 1;   /**< Input feature data rounding for stream X */
 220:Lib/AI_Runtime/Npu/ll_aton/ll_aton.h ****     unsigned saturation_x : 1; /**< Input feature data saturation for stream X */
 221:Lib/AI_Runtime/Npu/ll_aton/ll_aton.h ****     unsigned round_mode_x : 2; /**< Input feature data rounding mode for stream X */
 222:Lib/AI_Runtime/Npu/ll_aton/ll_aton.h ****     unsigned inbytes_x : 2;    /**< Input data width in bytes for stream X. Valid values are 1, 2 o
 223:Lib/AI_Runtime/Npu/ll_aton/ll_aton.h ****     unsigned outbytes_x : 2;   /**< Number of output bytes to use for input feature data of stream 
 224:Lib/AI_Runtime/Npu/ll_aton/ll_aton.h ****                                 *  saturation. Valid values are 1 or 2 bytes */
 225:Lib/AI_Runtime/Npu/ll_aton/ll_aton.h ****     signed char shift_x;       /**< Input feature data shift for stream X. Use negative values for 
 226:Lib/AI_Runtime/Npu/ll_aton/ll_aton.h ****     unsigned rounding_y : 1;   /**< Input feature data rounding for stream Y */
 227:Lib/AI_Runtime/Npu/ll_aton/ll_aton.h ****     unsigned saturation_y : 1; /**< Input feature data saturation for stream Y */
 228:Lib/AI_Runtime/Npu/ll_aton/ll_aton.h ****     unsigned round_mode_y : 2; /**< Input feature data rounding mode for stream Y */
 229:Lib/AI_Runtime/Npu/ll_aton/ll_aton.h ****     unsigned inbytes_y : 2;    /**< Input data width in bytes for stream Y. Valid values are 1, 2 o
 230:Lib/AI_Runtime/Npu/ll_aton/ll_aton.h ****     unsigned outbytes_y : 2;   /**< Number of output bytes to use for input feature data of stream 
 231:Lib/AI_Runtime/Npu/ll_aton/ll_aton.h ****                                 *  saturation. Valid values are 1 or 2 bytes */
 232:Lib/AI_Runtime/Npu/ll_aton/ll_aton.h ****     unsigned combinebc : 1;    /**< Combine coeff B and C to form a 32b coeff BC = {B[15:0],C[15:0]
 233:Lib/AI_Runtime/Npu/ll_aton/ll_aton.h ****     unsigned clipout : 1;      /**< Controls output clipping to range specified by clip range confi
 234:Lib/AI_Runtime/Npu/ll_aton/ll_aton.h ****                                 *  0=disable */
 235:Lib/AI_Runtime/Npu/ll_aton/ll_aton.h ****     signed char shift_y;       /**< Input feature data shift for stream Y. Use negative values for 
 236:Lib/AI_Runtime/Npu/ll_aton/ll_aton.h ****     unsigned rounding_o : 1;   /**< Rounding control, 1=enable, 0=disable */
 237:Lib/AI_Runtime/Npu/ll_aton/ll_aton.h ****     unsigned saturation_o : 1; /**< Saturation control, 1=enable, 0=disable */
 238:Lib/AI_Runtime/Npu/ll_aton/ll_aton.h ****     unsigned round_mode_o : 1; /**< Otput rounding mode control */
 239:Lib/AI_Runtime/Npu/ll_aton/ll_aton.h ****     unsigned relu_mode_o : 1;  /**< Apply Relu operation before rounding */
 240:Lib/AI_Runtime/Npu/ll_aton/ll_aton.h ****     unsigned outbytes_o : 2;   /**< Number of output bytes: 1 or 2 */
 241:Lib/AI_Runtime/Npu/ll_aton/ll_aton.h ****     unsigned char shift_o;     /**< Optional right shift to apply to final result of operation */
 242:Lib/AI_Runtime/Npu/ll_aton/ll_aton.h ****     unsigned scalar : 1;       /**< Set Scalar/Vector mode */
 243:Lib/AI_Runtime/Npu/ll_aton/ll_aton.h ****     unsigned dualinput : 1;    /**< Dual input control, 1=both X,Y streams valid, 0=only X stream i
 244:Lib/AI_Runtime/Npu/ll_aton/ll_aton.h ****     LL_Arithacc_Op operation;  /**< Arithmetic operation to be applied. See LL_Arithacc_Op */
 245:Lib/AI_Runtime/Npu/ll_aton/ll_aton.h ****     LL_Arithacc_Bcast bcast;   /**< Set constant broadcast modes. See LL_Arithacc_Bcast */
 246:Lib/AI_Runtime/Npu/ll_aton/ll_aton.h ****     unsigned char Ax_shift;    /**< Optional right shift to result of Ax */
 247:Lib/AI_Runtime/Npu/ll_aton/ll_aton.h ****     unsigned char By_shift;    /**< Optional right shift to result of By */
 248:Lib/AI_Runtime/Npu/ll_aton/ll_aton.h ****     unsigned char C_shift;     /**< Optional left shift to apply to C */
 249:Lib/AI_Runtime/Npu/ll_aton/ll_aton.h ****     unsigned fWidth;           /**< Feature width */
 250:Lib/AI_Runtime/Npu/ll_aton/ll_aton.h ****     unsigned fHeight;          /**< Feature height */
 251:Lib/AI_Runtime/Npu/ll_aton/ll_aton.h ****     unsigned short fChannels;  /**< Number of feature channels */
 252:Lib/AI_Runtime/Npu/ll_aton/ll_aton.h ****     unsigned short batchDepth; /**< Batch depth */
 253:Lib/AI_Runtime/Npu/ll_aton/ll_aton.h ****     short clipmin;             /**< Signed 16b value specifying output clip min */
ARM GAS  /tmp/ccxZaNgH.s 			page 6


 254:Lib/AI_Runtime/Npu/ll_aton/ll_aton.h ****     short clipmax;             /**< Signed 16b value specifying output clip max */
 255:Lib/AI_Runtime/Npu/ll_aton/ll_aton.h ****     short A_scalar;            /**< Scalar coefficient A */
 256:Lib/AI_Runtime/Npu/ll_aton/ll_aton.h ****     short B_scalar;            /**< Scalar coefficient B */
 257:Lib/AI_Runtime/Npu/ll_aton/ll_aton.h ****     short C_scalar;            /**< Scalar coefficient C */
 258:Lib/AI_Runtime/Npu/ll_aton/ll_aton.h ****     ll_aton_pointer A_vector;  /**< Address of A vector table */
 259:Lib/AI_Runtime/Npu/ll_aton/ll_aton.h ****     ll_aton_pointer B_vector;  /**< Address of B vector table */
 260:Lib/AI_Runtime/Npu/ll_aton/ll_aton.h ****     ll_aton_pointer C_vector;  /**< Address of C vector table */
 261:Lib/AI_Runtime/Npu/ll_aton/ll_aton.h ****     unsigned char vec_precision[3]; /**< Number of bits for A, B and C vectors */
 262:Lib/AI_Runtime/Npu/ll_aton/ll_aton.h ****   } LL_Arithacc_InitTypeDef;
 263:Lib/AI_Runtime/Npu/ll_aton/ll_aton.h **** 
 264:Lib/AI_Runtime/Npu/ll_aton/ll_aton.h ****   /** @defgroup LL_ARITH Arithmetic Unit configuration functions
 265:Lib/AI_Runtime/Npu/ll_aton/ll_aton.h ****    * @{
 266:Lib/AI_Runtime/Npu/ll_aton/ll_aton.h ****    */
 267:Lib/AI_Runtime/Npu/ll_aton/ll_aton.h ****   int LL_Arithacc_Init(int id, const LL_Arithacc_InitTypeDef *Arithacc_InitStruct);
 268:Lib/AI_Runtime/Npu/ll_aton/ll_aton.h ****   /**
 269:Lib/AI_Runtime/Npu/ll_aton/ll_aton.h ****    * @}
 270:Lib/AI_Runtime/Npu/ll_aton/ll_aton.h ****    */
 271:Lib/AI_Runtime/Npu/ll_aton/ll_aton.h **** 
 272:Lib/AI_Runtime/Npu/ll_aton/ll_aton.h ****   typedef enum
 273:Lib/AI_Runtime/Npu/ll_aton/ll_aton.h ****   {
 274:Lib/AI_Runtime/Npu/ll_aton/ll_aton.h ****     AFILT_MODE_NONE = 0,
 275:Lib/AI_Runtime/Npu/ll_aton/ll_aton.h ****     AFILT_MODE_PIXELDROP = 1,
 276:Lib/AI_Runtime/Npu/ll_aton/ll_aton.h ****     AFILT_MODE_FRAMEDROP = 2,
 277:Lib/AI_Runtime/Npu/ll_aton/ll_aton.h ****     AFILT_MODE_FRAMEZERO = 3
 278:Lib/AI_Runtime/Npu/ll_aton/ll_aton.h ****   } LL_Convacc_Afilt_Mode;
 279:Lib/AI_Runtime/Npu/ll_aton/ll_aton.h **** 
 280:Lib/AI_Runtime/Npu/ll_aton/ll_aton.h ****   /**
 281:Lib/AI_Runtime/Npu/ll_aton/ll_aton.h ****    *	@brief Convolutional Accelerator configuration structure
 282:Lib/AI_Runtime/Npu/ll_aton/ll_aton.h ****    */
 283:Lib/AI_Runtime/Npu/ll_aton/ll_aton.h ****   typedef struct
 284:Lib/AI_Runtime/Npu/ll_aton/ll_aton.h ****   {
 285:Lib/AI_Runtime/Npu/ll_aton/ll_aton.h ****     unsigned rounding_f : 1;           /**< Input feature data rounding */
 286:Lib/AI_Runtime/Npu/ll_aton/ll_aton.h ****     unsigned saturation_f : 1;         /**< Input feature data saturation */
 287:Lib/AI_Runtime/Npu/ll_aton/ll_aton.h ****     unsigned round_mode_f : 2;         /**< Output data rounding mode */
 288:Lib/AI_Runtime/Npu/ll_aton/ll_aton.h ****     unsigned inbytes_f : 2;            /**< Input data width in bytes */
 289:Lib/AI_Runtime/Npu/ll_aton/ll_aton.h ****     unsigned rounding_o : 1;           /**< Output data rounding after right shift */
 290:Lib/AI_Runtime/Npu/ll_aton/ll_aton.h ****     unsigned saturation_o : 1;         /**< Output saturation */
 291:Lib/AI_Runtime/Npu/ll_aton/ll_aton.h ****     unsigned round_mode_o : 1;         /**< Output data rounding mode */
 292:Lib/AI_Runtime/Npu/ll_aton/ll_aton.h ****     unsigned relu_mode_o : 1;          /**< Apply Relu operation before rounding */
 293:Lib/AI_Runtime/Npu/ll_aton/ll_aton.h ****     unsigned outbytes_o : 2;           /**< Output data width in bytes */
 294:Lib/AI_Runtime/Npu/ll_aton/ll_aton.h ****     unsigned simd : 2;                 /**< Enable 8x8bit (1) or 16x8bit (2) SIMD mode */
 295:Lib/AI_Runtime/Npu/ll_aton/ll_aton.h ****     unsigned accumulate : 1;           /**< Sum and synchronize with stream link input #2 */
 296:Lib/AI_Runtime/Npu/ll_aton/ll_aton.h ****     unsigned accumulate_first : 1;     /**< No sum and synchronization with stream link input #2 fo
 297:Lib/AI_Runtime/Npu/ll_aton/ll_aton.h ****     unsigned accumulate_gen_first : 1; /**< Generate first accumulator input frame internally */
 298:Lib/AI_Runtime/Npu/ll_aton/ll_aton.h ****     unsigned fstat : 1;                /**< Feature data stationary */
 299:Lib/AI_Runtime/Npu/ll_aton/ll_aton.h ****     unsigned raw_o : 1;                /**< Use RAW file output format */
 300:Lib/AI_Runtime/Npu/ll_aton/ll_aton.h ****     unsigned kt1_mode : 1;             /**< Load kernel from T1 buffer */
 301:Lib/AI_Runtime/Npu/ll_aton/ll_aton.h ****     unsigned deepmode : 1;             /**< Enable Deep1x1 optimized mode */
 302:Lib/AI_Runtime/Npu/ll_aton/ll_aton.h ****     unsigned dss2mode : 1;             /**< Enable DSS2 (depth separable stride 2) optimized mode *
 303:Lib/AI_Runtime/Npu/ll_aton/ll_aton.h ****     unsigned f_unsigned : 1;           /**< Feature data unsigned */
 304:Lib/AI_Runtime/Npu/ll_aton/ll_aton.h ****     unsigned k_unsigned : 1;           /**< Kernel data unsigned */
 305:Lib/AI_Runtime/Npu/ll_aton/ll_aton.h ****     unsigned kseten : 2;               /**< Enable kernel set 0 (bit 0) or 1 (bit 1) if KT1 is 1,
 306:Lib/AI_Runtime/Npu/ll_aton/ll_aton.h ****                                         *   otherwise select byte 1 (0), byte 2 (1), byte 3 (2) or
 307:Lib/AI_Runtime/Npu/ll_aton/ll_aton.h ****                                         *   all bytes (Deep1x1 mode only) (3) of kernel stream in S
 308:Lib/AI_Runtime/Npu/ll_aton/ll_aton.h ****     unsigned char shift_f;             /**< Input feature data shift */
 309:Lib/AI_Runtime/Npu/ll_aton/ll_aton.h ****     unsigned char shift_a;             /**< Accumulator data input signed left shift */
 310:Lib/AI_Runtime/Npu/ll_aton/ll_aton.h ****     unsigned char shift_o;             /**< Result data output signed right shift */
ARM GAS  /tmp/ccxZaNgH.s 			page 7


 311:Lib/AI_Runtime/Npu/ll_aton/ll_aton.h ****     unsigned fWidth;                   /**< Feature data width */
 312:Lib/AI_Runtime/Npu/ll_aton/ll_aton.h ****     unsigned fHeight;                  /**< Feature data height */
 313:Lib/AI_Runtime/Npu/ll_aton/ll_aton.h ****     unsigned char kernelWidth;         /**< Kernel width */
 314:Lib/AI_Runtime/Npu/ll_aton/ll_aton.h ****     unsigned char kernelHeight;        /**< Kernel height */
 315:Lib/AI_Runtime/Npu/ll_aton/ll_aton.h ****     unsigned char nKernels;            /**< Total number of parallel kernels */
 316:Lib/AI_Runtime/Npu/ll_aton/ll_aton.h ****     unsigned short batchDepth;         /**< Batch Depth */
 317:Lib/AI_Runtime/Npu/ll_aton/ll_aton.h ****     unsigned char hstride;             /**< Horizontal stride */
 318:Lib/AI_Runtime/Npu/ll_aton/ll_aton.h ****     unsigned char vstride;             /**< Vertical stride */
 319:Lib/AI_Runtime/Npu/ll_aton/ll_aton.h ****     unsigned short left_padding;       /**< Number of vertical left dummy columns */
 320:Lib/AI_Runtime/Npu/ll_aton/ll_aton.h ****     unsigned short right_padding;      /**< Number of vertical right dummy columns */
 321:Lib/AI_Runtime/Npu/ll_aton/ll_aton.h ****     unsigned short top_padding;        /**< Number of horizontal top dummy lines */
 322:Lib/AI_Runtime/Npu/ll_aton/ll_aton.h ****     unsigned short bot_padding;        /**< Number of horizontal bottom dummy lines */
 323:Lib/AI_Runtime/Npu/ll_aton/ll_aton.h ****     unsigned short left_crop;          /**< Left feature data boundary */
 324:Lib/AI_Runtime/Npu/ll_aton/ll_aton.h ****     unsigned short right_crop;         /**< Right feature data boundary */
 325:Lib/AI_Runtime/Npu/ll_aton/ll_aton.h ****     unsigned short top_crop;           /**< Top feature data boundary */
 326:Lib/AI_Runtime/Npu/ll_aton/ll_aton.h ****     unsigned short bot_crop;           /**< Bottom feature data boundary */
 327:Lib/AI_Runtime/Npu/ll_aton/ll_aton.h ****     unsigned short fstatcnt;           /**< Number of frames before next reload of feature stationa
 328:Lib/AI_Runtime/Npu/ll_aton/ll_aton.h ****     LL_Convacc_Afilt_Mode afilt_mode;  /**< Accumulator port filter mode. See LL_Convacc_Afilt_Mode
 329:Lib/AI_Runtime/Npu/ll_aton/ll_aton.h ****     unsigned char afilt_tot;           /**< Total number of accumulation tensors */
 330:Lib/AI_Runtime/Npu/ll_aton/ll_aton.h ****     unsigned char afilt_first;         /**< First accumulation tensor */
 331:Lib/AI_Runtime/Npu/ll_aton/ll_aton.h ****     unsigned char afilt_last;          /**< Last accumulation tensor */
 332:Lib/AI_Runtime/Npu/ll_aton/ll_aton.h ****     unsigned char kfilt_tot;           /**< Total number of kernels */
 333:Lib/AI_Runtime/Npu/ll_aton/ll_aton.h ****     unsigned char kfilt_first;         /**< First kernel */
 334:Lib/AI_Runtime/Npu/ll_aton/ll_aton.h ****     unsigned char kfilt_last;          /**< Last kernel */
 335:Lib/AI_Runtime/Npu/ll_aton/ll_aton.h ****     int fsub;                          /**< Feature data subtract value */
 336:Lib/AI_Runtime/Npu/ll_aton/ll_aton.h ****     short zfbias;                      /**< Bias added to zero frames */
 337:Lib/AI_Runtime/Npu/ll_aton/ll_aton.h ****   } LL_Convacc_InitTypeDef;
 338:Lib/AI_Runtime/Npu/ll_aton/ll_aton.h **** 
 339:Lib/AI_Runtime/Npu/ll_aton/ll_aton.h ****   /** @defgroup LL_CONVACC Convolutional accelerator unit configuration functions
 340:Lib/AI_Runtime/Npu/ll_aton/ll_aton.h ****    * @{
 341:Lib/AI_Runtime/Npu/ll_aton/ll_aton.h ****    */
 342:Lib/AI_Runtime/Npu/ll_aton/ll_aton.h ****   int LL_Convacc_Init(int id, const LL_Convacc_InitTypeDef *Convacc_InitStruct);
 343:Lib/AI_Runtime/Npu/ll_aton/ll_aton.h ****   /**
 344:Lib/AI_Runtime/Npu/ll_aton/ll_aton.h ****    * @}
 345:Lib/AI_Runtime/Npu/ll_aton/ll_aton.h ****    */
 346:Lib/AI_Runtime/Npu/ll_aton/ll_aton.h **** 
 347:Lib/AI_Runtime/Npu/ll_aton/ll_aton.h ****   /**
 348:Lib/AI_Runtime/Npu/ll_aton/ll_aton.h ****    * @brief Pooling Acceleration supported operations
 349:Lib/AI_Runtime/Npu/ll_aton/ll_aton.h ****    */
 350:Lib/AI_Runtime/Npu/ll_aton/ll_aton.h ****   typedef enum
 351:Lib/AI_Runtime/Npu/ll_aton/ll_aton.h ****   {
 352:Lib/AI_Runtime/Npu/ll_aton/ll_aton.h ****     POOL_MAX = 1,
 353:Lib/AI_Runtime/Npu/ll_aton/ll_aton.h ****     POOL_MIN,
 354:Lib/AI_Runtime/Npu/ll_aton/ll_aton.h ****     POOL_AVG,
 355:Lib/AI_Runtime/Npu/ll_aton/ll_aton.h ****     POOL_GMAX,
 356:Lib/AI_Runtime/Npu/ll_aton/ll_aton.h ****     POOL_GMIN,
 357:Lib/AI_Runtime/Npu/ll_aton/ll_aton.h ****     POOL_GAVG
 358:Lib/AI_Runtime/Npu/ll_aton/ll_aton.h ****   } LL_Poolacc_Op;
 359:Lib/AI_Runtime/Npu/ll_aton/ll_aton.h **** 
 360:Lib/AI_Runtime/Npu/ll_aton/ll_aton.h ****   /**
 361:Lib/AI_Runtime/Npu/ll_aton/ll_aton.h ****    * @brief Pooling Accelerator configuration structure
 362:Lib/AI_Runtime/Npu/ll_aton/ll_aton.h ****    */
 363:Lib/AI_Runtime/Npu/ll_aton/ll_aton.h ****   typedef struct
 364:Lib/AI_Runtime/Npu/ll_aton/ll_aton.h ****   {
 365:Lib/AI_Runtime/Npu/ll_aton/ll_aton.h ****     LL_Poolacc_Op operation;   /**< Pooling operation type. See LL_Poolacc_Op */
 366:Lib/AI_Runtime/Npu/ll_aton/ll_aton.h ****     unsigned avgnopad : 1;     /**< Average pooling operation without padding */
 367:Lib/AI_Runtime/Npu/ll_aton/ll_aton.h ****     unsigned short inputX;     /**< Size X of the input feature */
ARM GAS  /tmp/ccxZaNgH.s 			page 8


 368:Lib/AI_Runtime/Npu/ll_aton/ll_aton.h ****     unsigned short inputY;     /**< Size Y of the input feature */
 369:Lib/AI_Runtime/Npu/ll_aton/ll_aton.h ****     unsigned short outputX;    /**< Size X of the output data */
 370:Lib/AI_Runtime/Npu/ll_aton/ll_aton.h ****     unsigned short outputY;    /**< Size Y of the output data */
 371:Lib/AI_Runtime/Npu/ll_aton/ll_aton.h ****     unsigned char poolWinX;    /**< Size X of pooling window */
 372:Lib/AI_Runtime/Npu/ll_aton/ll_aton.h ****     unsigned char poolWinY;    /**< Size Y of pooling window */
 373:Lib/AI_Runtime/Npu/ll_aton/ll_aton.h ****     unsigned char strideX;     /**< Stride value in X direction */
 374:Lib/AI_Runtime/Npu/ll_aton/ll_aton.h ****     unsigned char strideY;     /**< Stride value in Y direction */
 375:Lib/AI_Runtime/Npu/ll_aton/ll_aton.h ****     unsigned short topCrop;    /**< Top cropping size */
 376:Lib/AI_Runtime/Npu/ll_aton/ll_aton.h ****     unsigned short bottomCrop; /**< Bottom cropping size */
 377:Lib/AI_Runtime/Npu/ll_aton/ll_aton.h ****     unsigned short leftCrop;   /**< Left cropping size */
 378:Lib/AI_Runtime/Npu/ll_aton/ll_aton.h ****     unsigned short rightCrop;  /**< Right cropping size */
 379:Lib/AI_Runtime/Npu/ll_aton/ll_aton.h ****     unsigned short topPad;     /**< Top padding size */
 380:Lib/AI_Runtime/Npu/ll_aton/ll_aton.h ****     unsigned short bottomPad;  /**< Bottom padding size */
 381:Lib/AI_Runtime/Npu/ll_aton/ll_aton.h ****     unsigned short leftPad;    /**< Left padding size */
 382:Lib/AI_Runtime/Npu/ll_aton/ll_aton.h ****     unsigned short rightPad;   /**< Right padding size */
 383:Lib/AI_Runtime/Npu/ll_aton/ll_aton.h ****     unsigned short batchSize;  /**< Batch size */
 384:Lib/AI_Runtime/Npu/ll_aton/ll_aton.h ****     unsigned char shift_f;     /**< Input feature data shift */
 385:Lib/AI_Runtime/Npu/ll_aton/ll_aton.h ****     unsigned char shift_o;     /**< Optional right shift to apply the average pooling output */
 386:Lib/AI_Runtime/Npu/ll_aton/ll_aton.h ****     unsigned dualLine : 1;     /**< Enable dual line, allows each linebuffer line to work as 2 line
 387:Lib/AI_Runtime/Npu/ll_aton/ll_aton.h ****                                 *   applicable for 8-bit data */
 388:Lib/AI_Runtime/Npu/ll_aton/ll_aton.h ****     unsigned nbytes : 2;       /**< input data number of bytes */
 389:Lib/AI_Runtime/Npu/ll_aton/ll_aton.h ****     unsigned rounding_f : 1;   /**< Input feature data rounding */
 390:Lib/AI_Runtime/Npu/ll_aton/ll_aton.h ****     unsigned saturation_f : 1; /**< Input feature data saturation */
 391:Lib/AI_Runtime/Npu/ll_aton/ll_aton.h ****     unsigned round_mode_f : 2; /**< Rounding mode to apply to input feature data */
 392:Lib/AI_Runtime/Npu/ll_aton/ll_aton.h ****     unsigned inbytes_f : 2;    /**< Input data width in bytes. Valid values are 1, 2 or 3 bytes */
 393:Lib/AI_Runtime/Npu/ll_aton/ll_aton.h ****     unsigned outbytes_f : 2;   /**< Number of output bytes to use for final result after rounding o
 394:Lib/AI_Runtime/Npu/ll_aton/ll_aton.h ****                                 *   Valid values are 1 or 2 bytes */
 395:Lib/AI_Runtime/Npu/ll_aton/ll_aton.h ****     unsigned rounding_o : 1;   /**< Enable output rounding using round-to-nearest (round up)
 396:Lib/AI_Runtime/Npu/ll_aton/ll_aton.h ****                                 *   (applicable to average pooling operations) */
 397:Lib/AI_Runtime/Npu/ll_aton/ll_aton.h ****     unsigned saturation_o : 1; /**< Enable output saturation (applicable to average pooling operati
 398:Lib/AI_Runtime/Npu/ll_aton/ll_aton.h ****     unsigned round_mode_o : 1; /**< Rounding mode to apply to output feature data */
 399:Lib/AI_Runtime/Npu/ll_aton/ll_aton.h ****     unsigned relu_mode_o : 1;  /**< Apply Relu operation before rounding */
 400:Lib/AI_Runtime/Npu/ll_aton/ll_aton.h ****     unsigned outbytes_o : 2;   /**< Number of output bytes to use for final result after rounding o
 401:Lib/AI_Runtime/Npu/ll_aton/ll_aton.h ****                                 *   Valid values are 1 or 2 bytes */
 402:Lib/AI_Runtime/Npu/ll_aton/ll_aton.h ****     short mulval;              /**< constant to be multiplied to accumulated sum of pooling window.
 403:Lib/AI_Runtime/Npu/ll_aton/ll_aton.h ****                                 * For average operation, it represents the reciprocal of the diviso
 404:Lib/AI_Runtime/Npu/ll_aton/ll_aton.h ****                                 * The average is computed by multiplying this constant with the acc
 405:Lib/AI_Runtime/Npu/ll_aton/ll_aton.h ****                                 * relevant right shift at the output. (Applicable to average poolin
 406:Lib/AI_Runtime/Npu/ll_aton/ll_aton.h ****     unsigned pad_val_en : 1;   /**< Enable padding value */
 407:Lib/AI_Runtime/Npu/ll_aton/ll_aton.h ****     short pad_val;             /**< Padding value to be used for padding operation */
 408:Lib/AI_Runtime/Npu/ll_aton/ll_aton.h ****   } LL_Poolacc_InitTypeDef;
 409:Lib/AI_Runtime/Npu/ll_aton/ll_aton.h **** 
 410:Lib/AI_Runtime/Npu/ll_aton/ll_aton.h ****   /**
 411:Lib/AI_Runtime/Npu/ll_aton/ll_aton.h ****    * @brief Epoch Controller configuration structure
 412:Lib/AI_Runtime/Npu/ll_aton/ll_aton.h ****    */
 413:Lib/AI_Runtime/Npu/ll_aton/ll_aton.h ****   typedef struct
 414:Lib/AI_Runtime/Npu/ll_aton/ll_aton.h ****   {
 415:Lib/AI_Runtime/Npu/ll_aton/ll_aton.h ****     uint32_t blobaddr;     /**< Blob code start address. Must be 8 byte aligned */
 416:Lib/AI_Runtime/Npu/ll_aton/ll_aton.h ****     unsigned stepmode : 1; /**< Enable step mode. Used for debugging purposes */
 417:Lib/AI_Runtime/Npu/ll_aton/ll_aton.h ****   } LL_EpochCtrl_InitTypeDef;
 418:Lib/AI_Runtime/Npu/ll_aton/ll_aton.h **** 
 419:Lib/AI_Runtime/Npu/ll_aton/ll_aton.h ****   /** @defgroup LL_POOL Pooling unit configuration functions
 420:Lib/AI_Runtime/Npu/ll_aton/ll_aton.h ****    * @{
 421:Lib/AI_Runtime/Npu/ll_aton/ll_aton.h ****    */
 422:Lib/AI_Runtime/Npu/ll_aton/ll_aton.h ****   int LL_Poolacc_Init(int id, const LL_Poolacc_InitTypeDef *conf);
 423:Lib/AI_Runtime/Npu/ll_aton/ll_aton.h ****   /**
 424:Lib/AI_Runtime/Npu/ll_aton/ll_aton.h ****    * @}
ARM GAS  /tmp/ccxZaNgH.s 			page 9


 425:Lib/AI_Runtime/Npu/ll_aton/ll_aton.h ****    */
 426:Lib/AI_Runtime/Npu/ll_aton/ll_aton.h **** 
 427:Lib/AI_Runtime/Npu/ll_aton/ll_aton.h ****   /**
 428:Lib/AI_Runtime/Npu/ll_aton/ll_aton.h ****    * @brief Streaming engine configuration structure
 429:Lib/AI_Runtime/Npu/ll_aton/ll_aton.h ****    */
 430:Lib/AI_Runtime/Npu/ll_aton/ll_aton.h ****   typedef struct
 431:Lib/AI_Runtime/Npu/ll_aton/ll_aton.h ****   {
 432:Lib/AI_Runtime/Npu/ll_aton/ll_aton.h ****     unsigned dir : 1;             /**< Stream Direction: 0 input, 1 output */
 433:Lib/AI_Runtime/Npu/ll_aton/ll_aton.h ****     unsigned raw : 1;             /**< Set RAW mode (1) or raster mode (0) */
 434:Lib/AI_Runtime/Npu/ll_aton/ll_aton.h ****     unsigned raw_out : 1;         /**< Force RAW output (bus to stream only)
 435:Lib/AI_Runtime/Npu/ll_aton/ll_aton.h ****                                    *   even if the engine is programmed in raster mode */
 436:Lib/AI_Runtime/Npu/ll_aton/ll_aton.h ****     unsigned continuous : 1;      /**< Do not restart address pointer at end of frame */
 437:Lib/AI_Runtime/Npu/ll_aton/ll_aton.h ****     unsigned noblk : 1;           /**< Do not use blocks wider that the native bus size */
 438:Lib/AI_Runtime/Npu/ll_aton/ll_aton.h ****     unsigned noinc : 1;           /**< Do not increment address */
 439:Lib/AI_Runtime/Npu/ll_aton/ll_aton.h ****     unsigned align_right : 1;     /**< Alignment for data on switch (default left) */
 440:Lib/AI_Runtime/Npu/ll_aton/ll_aton.h ****     unsigned mem_lsb : 1;         /**< For when nbits_in != nbits_out to decide which bits are read
 441:Lib/AI_Runtime/Npu/ll_aton/ll_aton.h ****                                    *   (default msb) */
 442:Lib/AI_Runtime/Npu/ll_aton/ll_aton.h ****     unsigned sync_with_other : 1; /**< Enable synchronizations signals between engines */
 443:Lib/AI_Runtime/Npu/ll_aton/ll_aton.h ****     unsigned nbits_unsigned : 1;  /**< Disable sign extension */
 444:Lib/AI_Runtime/Npu/ll_aton/ll_aton.h ****     unsigned bus_cid : 3;         /**< Set Compartment ID cache attribute */
 445:Lib/AI_Runtime/Npu/ll_aton/ll_aton.h ****     unsigned cacheable : 1;       /**< Set cacheable bus attribute */
 446:Lib/AI_Runtime/Npu/ll_aton/ll_aton.h ****     unsigned cache_allocate : 1;  /**< Set cache allocate bus attribute */
 447:Lib/AI_Runtime/Npu/ll_aton/ll_aton.h ****     unsigned bus_pfetch : 1;      /**< Enable bus prefetch */
 448:Lib/AI_Runtime/Npu/ll_aton/ll_aton.h ****     unsigned cache_linesize : 2;  /**< Cache Line size: 0 -> 64B, 1 -> 128B, 2 -> 256B, 3 -> 512B *
 449:Lib/AI_Runtime/Npu/ll_aton/ll_aton.h ****     unsigned cipher_en : 1;       /**< Enable ciphering: 0 -> disable, 1-> enable  */
 450:Lib/AI_Runtime/Npu/ll_aton/ll_aton.h ****     unsigned key_sel : 1;         /**< Bus Interface key to be used for ciphering (0, 1) */
 451:Lib/AI_Runtime/Npu/ll_aton/ll_aton.h ****     unsigned char sync_dma;       /**< Synchronization signals source engine */
 452:Lib/AI_Runtime/Npu/ll_aton/ll_aton.h ****     ll_aton_pointer addr_base;    /**< Source/Destination base address */
 453:Lib/AI_Runtime/Npu/ll_aton/ll_aton.h ****     unsigned offset_start;        /**< Offset of the Source/Destination start address from the base
 454:Lib/AI_Runtime/Npu/ll_aton/ll_aton.h ****     unsigned offset_end;          /**< Offset of the Source/Destination end address from the base a
 455:Lib/AI_Runtime/Npu/ll_aton/ll_aton.h ****     unsigned offset_limit;        /**< Offset of the Stream engine address limit from the base addr
 456:Lib/AI_Runtime/Npu/ll_aton/ll_aton.h ****                                    *   Used to prevent prefetch beyond memory boundaries */
 457:Lib/AI_Runtime/Npu/ll_aton/ll_aton.h ****     unsigned frame_count;         /**< Number of frames to transfer */
 458:Lib/AI_Runtime/Npu/ll_aton/ll_aton.h ****     unsigned fwidth;              /**< Frame width (pixel per line) */
 459:Lib/AI_Runtime/Npu/ll_aton/ll_aton.h ****     unsigned fheight;             /**< Frame height (number of lines) */
 460:Lib/AI_Runtime/Npu/ll_aton/ll_aton.h ****     unsigned batch_depth;         /**< Batch depth (subpix per pixel) */
 461:Lib/AI_Runtime/Npu/ll_aton/ll_aton.h ****     unsigned batch_offset;        /**< Offset (bytes) between batches */
 462:Lib/AI_Runtime/Npu/ll_aton/ll_aton.h ****     unsigned frame_offset;        /**< Offset between multiple frames within frame repetition loop 
 463:Lib/AI_Runtime/Npu/ll_aton/ll_aton.h ****     unsigned line_offset;         /**< Offset between multiple frames within frame repetition loop.
 464:Lib/AI_Runtime/Npu/ll_aton/ll_aton.h ****                                    *   If set to zero it's derived from width and batch_offset */
 465:Lib/AI_Runtime/Npu/ll_aton/ll_aton.h ****     unsigned loop_offset;         /**< Offset between frame repetition loops */
 466:Lib/AI_Runtime/Npu/ll_aton/ll_aton.h ****     unsigned frame_loop_cnt;      /**< Number of frames to loop */
 467:Lib/AI_Runtime/Npu/ll_aton/ll_aton.h ****     unsigned
 468:Lib/AI_Runtime/Npu/ll_aton/ll_aton.h ****         loop_offset2; /**< 2nd level offset between frame repetition loops. If set, has priority ov
 469:Lib/AI_Runtime/Npu/ll_aton/ll_aton.h ****     unsigned frame_loop_cnt2; /**< 2nd level number of frames to loop */
 470:Lib/AI_Runtime/Npu/ll_aton/ll_aton.h ****     unsigned frame_tot_cnt;   /**< Frame limit */
 471:Lib/AI_Runtime/Npu/ll_aton/ll_aton.h ****     unsigned char nbits_in;   /**< Data size in bits if reading */
 472:Lib/AI_Runtime/Npu/ll_aton/ll_aton.h ****     unsigned char nbits_out;  /**< Data size in bits if writing */
 473:Lib/AI_Runtime/Npu/ll_aton/ll_aton.h ****   } LL_Streng_TensorInitTypeDef;
 474:Lib/AI_Runtime/Npu/ll_aton/ll_aton.h **** 
 475:Lib/AI_Runtime/Npu/ll_aton/ll_aton.h ****   static inline unsigned char *LL_Streng_addr_start(const LL_Streng_TensorInitTypeDef *conf)
 476:Lib/AI_Runtime/Npu/ll_aton/ll_aton.h ****   {
 477:Lib/AI_Runtime/Npu/ll_aton/ll_aton.h ****     return conf->addr_base.p + conf->offset_start;
 478:Lib/AI_Runtime/Npu/ll_aton/ll_aton.h ****   }
 479:Lib/AI_Runtime/Npu/ll_aton/ll_aton.h **** 
 480:Lib/AI_Runtime/Npu/ll_aton/ll_aton.h ****   static inline unsigned char *LL_Streng_addr_end(const LL_Streng_TensorInitTypeDef *conf)
 481:Lib/AI_Runtime/Npu/ll_aton/ll_aton.h ****   {
ARM GAS  /tmp/ccxZaNgH.s 			page 10


 482:Lib/AI_Runtime/Npu/ll_aton/ll_aton.h ****     return conf->addr_base.p + conf->offset_end;
 483:Lib/AI_Runtime/Npu/ll_aton/ll_aton.h ****   }
 484:Lib/AI_Runtime/Npu/ll_aton/ll_aton.h **** 
 485:Lib/AI_Runtime/Npu/ll_aton/ll_aton.h ****   static inline unsigned char *LL_Streng_addr_limit(const LL_Streng_TensorInitTypeDef *conf)
 486:Lib/AI_Runtime/Npu/ll_aton/ll_aton.h ****   {
 487:Lib/AI_Runtime/Npu/ll_aton/ll_aton.h ****     return conf->addr_base.p + conf->offset_limit;
 488:Lib/AI_Runtime/Npu/ll_aton/ll_aton.h ****   }
 489:Lib/AI_Runtime/Npu/ll_aton/ll_aton.h **** 
 490:Lib/AI_Runtime/Npu/ll_aton/ll_aton.h ****   static inline uint32_t LL_Streng_len(const LL_Streng_TensorInitTypeDef *conf)
 491:Lib/AI_Runtime/Npu/ll_aton/ll_aton.h ****   {
  34              		.loc 2 491 3
  35              		.cfi_startproc
  36              		@ args = 0, pretend = 0, frame = 8
  37              		@ frame_needed = 1, uses_anonymous_args = 0
  38              		@ link register save eliminated.
  39 0000 80B4     		push	{r7}
  40              		.cfi_def_cfa_offset 4
  41              		.cfi_offset 7, -4
  42 0002 83B0     		sub	sp, sp, #12
  43              		.cfi_def_cfa_offset 16
  44 0004 00AF     		add	r7, sp, #0
  45              		.cfi_def_cfa_register 7
  46 0006 7860     		str	r0, [r7, #4]
 492:Lib/AI_Runtime/Npu/ll_aton/ll_aton.h ****     return conf->offset_end - conf->offset_start;
  47              		.loc 2 492 16
  48 0008 7B68     		ldr	r3, [r7, #4]
  49 000a DA68     		ldr	r2, [r3, #12]
  50              		.loc 2 492 35
  51 000c 7B68     		ldr	r3, [r7, #4]
  52 000e 9B68     		ldr	r3, [r3, #8]
  53              		.loc 2 492 29
  54 0010 D31A     		subs	r3, r2, r3
 493:Lib/AI_Runtime/Npu/ll_aton/ll_aton.h ****   }
  55              		.loc 2 493 3
  56 0012 1846     		mov	r0, r3
  57 0014 0C37     		adds	r7, r7, #12
  58              		.cfi_def_cfa_offset 4
  59 0016 BD46     		mov	sp, r7
  60              		.cfi_def_cfa_register 13
  61              		@ sp needed
  62 0018 5DF8047B 		ldr	r7, [sp], #4
  63              		.cfi_restore 7
  64              		.cfi_def_cfa_offset 0
  65 001c 7047     		bx	lr
  66              		.cfi_endproc
  67              	.LFE4810:
  69              		.section	.text.LL_ATON_Cache_MCU_Clean_Invalidate_Range,"ax",%progbits
  70              		.align	1
  71              		.syntax unified
  72              		.thumb
  73              		.thumb_func
  75              	LL_ATON_Cache_MCU_Clean_Invalidate_Range:
  76              	.LFB4813:
  77              		.file 3 "Lib/AI_Runtime/Npu/ll_aton/ll_aton_caches_interface.h"
   1:Lib/AI_Runtime/Npu/ll_aton/ll_aton_caches_interface.h **** /**
   2:Lib/AI_Runtime/Npu/ll_aton/ll_aton_caches_interface.h ****  ******************************************************************************
   3:Lib/AI_Runtime/Npu/ll_aton/ll_aton_caches_interface.h ****  * @file    ll_aton_caches_interface.h
ARM GAS  /tmp/ccxZaNgH.s 			page 11


   4:Lib/AI_Runtime/Npu/ll_aton/ll_aton_caches_interface.h ****  * @author  SRA Artificial Intelligence & Embedded Architectures
   5:Lib/AI_Runtime/Npu/ll_aton/ll_aton_caches_interface.h ****  * @brief   Header file for defining an implementing generic cache handling
   6:Lib/AI_Runtime/Npu/ll_aton/ll_aton_caches_interface.h ****  *          functions for the application writer
   7:Lib/AI_Runtime/Npu/ll_aton/ll_aton_caches_interface.h ****  ******************************************************************************
   8:Lib/AI_Runtime/Npu/ll_aton/ll_aton_caches_interface.h ****  * @attention
   9:Lib/AI_Runtime/Npu/ll_aton/ll_aton_caches_interface.h ****  *
  10:Lib/AI_Runtime/Npu/ll_aton/ll_aton_caches_interface.h ****  * Copyright (c) 2024 STMicroelectronics.
  11:Lib/AI_Runtime/Npu/ll_aton/ll_aton_caches_interface.h ****  * All rights reserved.
  12:Lib/AI_Runtime/Npu/ll_aton/ll_aton_caches_interface.h ****  *
  13:Lib/AI_Runtime/Npu/ll_aton/ll_aton_caches_interface.h ****  * This software is licensed under terms that can be found in the LICENSE file
  14:Lib/AI_Runtime/Npu/ll_aton/ll_aton_caches_interface.h ****  * in the root directory of this software component.
  15:Lib/AI_Runtime/Npu/ll_aton/ll_aton_caches_interface.h ****  * If no LICENSE file comes with this software, it is provided AS-IS.
  16:Lib/AI_Runtime/Npu/ll_aton/ll_aton_caches_interface.h ****  *
  17:Lib/AI_Runtime/Npu/ll_aton/ll_aton_caches_interface.h ****  ******************************************************************************
  18:Lib/AI_Runtime/Npu/ll_aton/ll_aton_caches_interface.h ****  */
  19:Lib/AI_Runtime/Npu/ll_aton/ll_aton_caches_interface.h **** 
  20:Lib/AI_Runtime/Npu/ll_aton/ll_aton_caches_interface.h **** #ifndef __LL_ATON_CACHES_H
  21:Lib/AI_Runtime/Npu/ll_aton/ll_aton_caches_interface.h **** #define __LL_ATON_CACHES_H
  22:Lib/AI_Runtime/Npu/ll_aton/ll_aton_caches_interface.h **** 
  23:Lib/AI_Runtime/Npu/ll_aton/ll_aton_caches_interface.h **** #include <stdint.h>
  24:Lib/AI_Runtime/Npu/ll_aton/ll_aton_caches_interface.h **** 
  25:Lib/AI_Runtime/Npu/ll_aton/ll_aton_caches_interface.h **** #ifdef __cplusplus
  26:Lib/AI_Runtime/Npu/ll_aton/ll_aton_caches_interface.h **** extern "C"
  27:Lib/AI_Runtime/Npu/ll_aton/ll_aton_caches_interface.h **** {
  28:Lib/AI_Runtime/Npu/ll_aton/ll_aton_caches_interface.h **** #endif
  29:Lib/AI_Runtime/Npu/ll_aton/ll_aton_caches_interface.h **** 
  30:Lib/AI_Runtime/Npu/ll_aton/ll_aton_caches_interface.h **** #include "ll_aton_osal.h"
  31:Lib/AI_Runtime/Npu/ll_aton/ll_aton_caches_interface.h **** #include "ll_aton_platform.h"
  32:Lib/AI_Runtime/Npu/ll_aton/ll_aton_caches_interface.h **** 
  33:Lib/AI_Runtime/Npu/ll_aton/ll_aton_caches_interface.h **** #if !defined(BUILD_AI_NETWORK_RELOC)
  34:Lib/AI_Runtime/Npu/ll_aton/ll_aton_caches_interface.h **** 
  35:Lib/AI_Runtime/Npu/ll_aton/ll_aton_caches_interface.h **** #if (LL_ATON_PLATFORM == LL_ATON_PLAT_STM32N6)
  36:Lib/AI_Runtime/Npu/ll_aton/ll_aton_caches_interface.h **** 
  37:Lib/AI_Runtime/Npu/ll_aton/ll_aton_caches_interface.h ****   /*** MCU cache maintenance functions ***/
  38:Lib/AI_Runtime/Npu/ll_aton/ll_aton_caches_interface.h **** 
  39:Lib/AI_Runtime/Npu/ll_aton/ll_aton_caches_interface.h ****   /**
  40:Lib/AI_Runtime/Npu/ll_aton/ll_aton_caches_interface.h ****    * @brief perform MCU cache clean maintenance operation on an address range
  41:Lib/AI_Runtime/Npu/ll_aton/ll_aton_caches_interface.h ****    * @details whenever the content of a buffer is changed by the application (which is especially t
  42:Lib/AI_Runtime/Npu/ll_aton/ll_aton_caches_interface.h ****    *          buffers) cache maintenance MUST be taken into account before being able to run the ne
  43:Lib/AI_Runtime/Npu/ll_aton/ll_aton_caches_interface.h ****    * @param[in] virtual_addr start address (host-side/virtual) of address range
  44:Lib/AI_Runtime/Npu/ll_aton/ll_aton_caches_interface.h ****    * @param[in] size size of address range
  45:Lib/AI_Runtime/Npu/ll_aton/ll_aton_caches_interface.h ****    *
  46:Lib/AI_Runtime/Npu/ll_aton/ll_aton_caches_interface.h ****    * @note the address range should fulfill alignment constraints with respect to the MCU cache lin
  47:Lib/AI_Runtime/Npu/ll_aton/ll_aton_caches_interface.h ****    *       for both its `address` & `size` (to better correspond to what this operation will actual
  48:Lib/AI_Runtime/Npu/ll_aton/ll_aton_caches_interface.h ****    * @note this function is intended to handle the case where a buffer has been filled by the MCU/p
  49:Lib/AI_Runtime/Npu/ll_aton/ll_aton_caches_interface.h ****    *       passing thru the MCU cache) and should be called AFTER that the buffer has been filled
  50:Lib/AI_Runtime/Npu/ll_aton/ll_aton_caches_interface.h ****    */
  51:Lib/AI_Runtime/Npu/ll_aton/ll_aton_caches_interface.h ****   static inline void LL_ATON_Cache_MCU_Clean_Range(uintptr_t virtual_addr, uint32_t size)
  52:Lib/AI_Runtime/Npu/ll_aton/ll_aton_caches_interface.h ****   {
  53:Lib/AI_Runtime/Npu/ll_aton/ll_aton_caches_interface.h ****     LL_ATON_OSAL_LOCK_MCU_CACHE();
  54:Lib/AI_Runtime/Npu/ll_aton/ll_aton_caches_interface.h ****     mcu_cache_clean_range(virtual_addr, virtual_addr + size);
  55:Lib/AI_Runtime/Npu/ll_aton/ll_aton_caches_interface.h ****     LL_ATON_OSAL_UNLOCK_MCU_CACHE();
  56:Lib/AI_Runtime/Npu/ll_aton/ll_aton_caches_interface.h ****   }
  57:Lib/AI_Runtime/Npu/ll_aton/ll_aton_caches_interface.h **** 
  58:Lib/AI_Runtime/Npu/ll_aton/ll_aton_caches_interface.h ****   /**
  59:Lib/AI_Runtime/Npu/ll_aton/ll_aton_caches_interface.h ****    * @brief perform MCU cache invalidate maintenance operation on an address range
  60:Lib/AI_Runtime/Npu/ll_aton/ll_aton_caches_interface.h ****    * @details whenever the content of a buffer is changed by the application (which is especially t
ARM GAS  /tmp/ccxZaNgH.s 			page 12


  61:Lib/AI_Runtime/Npu/ll_aton/ll_aton_caches_interface.h ****    *          buffers) cache maintenance MUST be taken into account before being able to run the ne
  62:Lib/AI_Runtime/Npu/ll_aton/ll_aton_caches_interface.h ****    * @param[in] virtual_addr start address (host-side/virtual) of address range
  63:Lib/AI_Runtime/Npu/ll_aton/ll_aton_caches_interface.h ****    * @param[in] size size of address range
  64:Lib/AI_Runtime/Npu/ll_aton/ll_aton_caches_interface.h ****    *
  65:Lib/AI_Runtime/Npu/ll_aton/ll_aton_caches_interface.h ****    * @note the address range should fulfill alignment constraints with respect to the MCU cache lin
  66:Lib/AI_Runtime/Npu/ll_aton/ll_aton_caches_interface.h ****    *       for both its `address` & `size` (to better correspond to what this operation will actual
  67:Lib/AI_Runtime/Npu/ll_aton/ll_aton_caches_interface.h ****    * @note this function is intended to handle the case where a buffer has been filled by-passing t
  68:Lib/AI_Runtime/Npu/ll_aton/ll_aton_caches_interface.h ****    *       cache (e.g. using a DMA) and should be called BEFORE the buffer gets filled
  69:Lib/AI_Runtime/Npu/ll_aton/ll_aton_caches_interface.h ****    */
  70:Lib/AI_Runtime/Npu/ll_aton/ll_aton_caches_interface.h ****   static inline void LL_ATON_Cache_MCU_Invalidate_Range(uintptr_t virtual_addr, uint32_t size)
  71:Lib/AI_Runtime/Npu/ll_aton/ll_aton_caches_interface.h ****   {
  72:Lib/AI_Runtime/Npu/ll_aton/ll_aton_caches_interface.h ****     LL_ATON_OSAL_LOCK_MCU_CACHE();
  73:Lib/AI_Runtime/Npu/ll_aton/ll_aton_caches_interface.h ****     mcu_cache_invalidate_range(virtual_addr, virtual_addr + size);
  74:Lib/AI_Runtime/Npu/ll_aton/ll_aton_caches_interface.h ****     LL_ATON_OSAL_UNLOCK_MCU_CACHE();
  75:Lib/AI_Runtime/Npu/ll_aton/ll_aton_caches_interface.h ****   }
  76:Lib/AI_Runtime/Npu/ll_aton/ll_aton_caches_interface.h **** 
  77:Lib/AI_Runtime/Npu/ll_aton/ll_aton_caches_interface.h ****   /**
  78:Lib/AI_Runtime/Npu/ll_aton/ll_aton_caches_interface.h ****    * @brief perform MCU cache clean & invalidate maintenance operation on an address range
  79:Lib/AI_Runtime/Npu/ll_aton/ll_aton_caches_interface.h ****    * @details whenever the content of a buffer is changed by the application (which is especially t
  80:Lib/AI_Runtime/Npu/ll_aton/ll_aton_caches_interface.h ****    *          buffers) cache maintenance MUST be taken into account before being able to run the ne
  81:Lib/AI_Runtime/Npu/ll_aton/ll_aton_caches_interface.h ****    * @param[in] virtual_addr start address (host-side/virtual) of address range
  82:Lib/AI_Runtime/Npu/ll_aton/ll_aton_caches_interface.h ****    * @param[in] size size of address range
  83:Lib/AI_Runtime/Npu/ll_aton/ll_aton_caches_interface.h ****    *
  84:Lib/AI_Runtime/Npu/ll_aton/ll_aton_caches_interface.h ****    * @note the address range should fulfill alignment constraints with respect to the MCU cache lin
  85:Lib/AI_Runtime/Npu/ll_aton/ll_aton_caches_interface.h ****    *       for both its `address` & `size` (to better correspond to what this operation will actual
  86:Lib/AI_Runtime/Npu/ll_aton/ll_aton_caches_interface.h ****    * @note this function is intended to handle the case where a buffer has been filled by the MCU/p
  87:Lib/AI_Runtime/Npu/ll_aton/ll_aton_caches_interface.h ****    *       (such passing thru the MCU cache) and is gonna to be modified immediately afterwards by-
  88:Lib/AI_Runtime/Npu/ll_aton/ll_aton_caches_interface.h ****    *       the MCU/processor cache (e.g. using a DMA). It should be called AFTER that the buffer ha
  89:Lib/AI_Runtime/Npu/ll_aton/ll_aton_caches_interface.h ****    *       filled
  90:Lib/AI_Runtime/Npu/ll_aton/ll_aton_caches_interface.h ****    */
  91:Lib/AI_Runtime/Npu/ll_aton/ll_aton_caches_interface.h ****   static inline void LL_ATON_Cache_MCU_Clean_Invalidate_Range(uintptr_t virtual_addr, uint32_t size
  92:Lib/AI_Runtime/Npu/ll_aton/ll_aton_caches_interface.h ****   {
  78              		.loc 3 92 3
  79              		.cfi_startproc
  80              		@ args = 0, pretend = 0, frame = 8
  81              		@ frame_needed = 1, uses_anonymous_args = 0
  82 0000 80B5     		push	{r7, lr}
  83              		.cfi_def_cfa_offset 8
  84              		.cfi_offset 7, -8
  85              		.cfi_offset 14, -4
  86 0002 82B0     		sub	sp, sp, #8
  87              		.cfi_def_cfa_offset 16
  88 0004 00AF     		add	r7, sp, #0
  89              		.cfi_def_cfa_register 7
  90 0006 7860     		str	r0, [r7, #4]
  91 0008 3960     		str	r1, [r7]
  93:Lib/AI_Runtime/Npu/ll_aton/ll_aton_caches_interface.h ****     LL_ATON_OSAL_LOCK_MCU_CACHE();
  94:Lib/AI_Runtime/Npu/ll_aton/ll_aton_caches_interface.h ****     mcu_cache_clean_invalidate_range(virtual_addr, virtual_addr + size);
  92              		.loc 3 94 5
  93 000a 7A68     		ldr	r2, [r7, #4]
  94 000c 3B68     		ldr	r3, [r7]
  95 000e 1344     		add	r3, r3, r2
  96 0010 1946     		mov	r1, r3
  97 0012 7868     		ldr	r0, [r7, #4]
  98 0014 FFF7FEFF 		bl	mcu_cache_clean_invalidate_range
  95:Lib/AI_Runtime/Npu/ll_aton/ll_aton_caches_interface.h ****     LL_ATON_OSAL_UNLOCK_MCU_CACHE();
  96:Lib/AI_Runtime/Npu/ll_aton/ll_aton_caches_interface.h ****   }
ARM GAS  /tmp/ccxZaNgH.s 			page 13


  99              		.loc 3 96 3
 100 0018 00BF     		nop
 101 001a 0837     		adds	r7, r7, #8
 102              		.cfi_def_cfa_offset 8
 103 001c BD46     		mov	sp, r7
 104              		.cfi_def_cfa_register 13
 105              		@ sp needed
 106 001e 80BD     		pop	{r7, pc}
 107              		.cfi_endproc
 108              	.LFE4813:
 110              		.section	.bss.Conv_ctrl_bits,"aw",%nobits
 111              		.align	2
 114              	Conv_ctrl_bits:
 115 0000 00000000 		.space	16
 115      00000000 
 115      00000000 
 115      00000000 
 116              		.section	.rodata
 117              		.align	2
 118              	.LC3:
 119 0000 28307831 		.ascii	"(0x1UL) == __atonn_getSrcPortID(STRSWITCH, 0, STREN"
 119      554C2920 
 119      3D3D205F 
 119      5F61746F 
 119      6E6E5F67 
 120 0033 472C2031 		.ascii	"G, 1, 0)\000"
 120      2C203029 
 120      00
 121              		.align	2
 122              	.LC4:
 123 003c 4C69622F 		.ascii	"Lib/AI_Runtime/Npu/ll_aton/ll_aton.c\000"
 123      41495F52 
 123      756E7469 
 123      6D652F4E 
 123      70752F6C 
 124 0061 000000   		.align	2
 125              	.LC5:
 126 0064 28307838 		.ascii	"(0x8UL + ((1) << 2)) == __atonn_getDstPortID(STRSWI"
 126      554C202B 
 126      20282831 
 126      29203C3C 
 126      20322929 
 127 0097 5443482C 		.ascii	"TCH, 0, STRENG, 1, 0)\000"
 127      20302C20 
 127      53545245 
 127      4E472C20 
 127      312C2030 
 128 00ad 000000   		.align	2
 129              	.LC6:
 130 00b0 28307832 		.ascii	"(0x2UL) == __atonn_getSrcPortID(STRSWITCH, 0, STREN"
 130      554C2920 
 130      3D3D205F 
 130      5F61746F 
 130      6E6E5F67 
 131 00e3 472C2032 		.ascii	"G, 2, 0)\000"
 131      2C203029 
 131      00
ARM GAS  /tmp/ccxZaNgH.s 			page 14


 132              		.align	2
 133              	.LC7:
 134 00ec 28307838 		.ascii	"(0x8UL + ((2) << 2)) == __atonn_getDstPortID(STRSWI"
 134      554C202B 
 134      20282832 
 134      29203C3C 
 134      20322929 
 135 011f 5443482C 		.ascii	"TCH, 0, STRENG, 2, 0)\000"
 135      20302C20 
 135      53545245 
 135      4E472C20 
 135      322C2030 
 136              		.section	.text.ll_aton_static_checks,"ax",%progbits
 137              		.align	1
 138              		.syntax unified
 139              		.thumb
 140              		.thumb_func
 142              	ll_aton_static_checks:
 143              	.LFB4820:
   1:Lib/AI_Runtime/Npu/ll_aton/ll_aton.c **** /**
   2:Lib/AI_Runtime/Npu/ll_aton/ll_aton.c ****  ******************************************************************************
   3:Lib/AI_Runtime/Npu/ll_aton/ll_aton.c ****  * @file    ll_aton.c
   4:Lib/AI_Runtime/Npu/ll_aton/ll_aton.c ****  * @author  SRA Artificial Intelligence & Embedded Architectures
   5:Lib/AI_Runtime/Npu/ll_aton/ll_aton.c ****  * @brief   ATON LL module driver.
   6:Lib/AI_Runtime/Npu/ll_aton/ll_aton.c ****  ******************************************************************************
   7:Lib/AI_Runtime/Npu/ll_aton/ll_aton.c ****  * @attention
   8:Lib/AI_Runtime/Npu/ll_aton/ll_aton.c ****  *
   9:Lib/AI_Runtime/Npu/ll_aton/ll_aton.c ****  * Copyright (c) 2024 STMicroelectronics.
  10:Lib/AI_Runtime/Npu/ll_aton/ll_aton.c ****  * All rights reserved.
  11:Lib/AI_Runtime/Npu/ll_aton/ll_aton.c ****  *
  12:Lib/AI_Runtime/Npu/ll_aton/ll_aton.c ****  * This software is licensed under terms that can be found in the LICENSE file
  13:Lib/AI_Runtime/Npu/ll_aton/ll_aton.c ****  * in the root directory of this software component.
  14:Lib/AI_Runtime/Npu/ll_aton/ll_aton.c ****  * If no LICENSE file comes with this software, it is provided AS-IS.
  15:Lib/AI_Runtime/Npu/ll_aton/ll_aton.c ****  *
  16:Lib/AI_Runtime/Npu/ll_aton/ll_aton.c ****  ******************************************************************************
  17:Lib/AI_Runtime/Npu/ll_aton/ll_aton.c ****  */
  18:Lib/AI_Runtime/Npu/ll_aton/ll_aton.c **** 
  19:Lib/AI_Runtime/Npu/ll_aton/ll_aton.c **** #include <assert.h>
  20:Lib/AI_Runtime/Npu/ll_aton/ll_aton.c **** #include <inttypes.h>
  21:Lib/AI_Runtime/Npu/ll_aton/ll_aton.c **** #include <stddef.h>
  22:Lib/AI_Runtime/Npu/ll_aton/ll_aton.c **** #include <stdint.h>
  23:Lib/AI_Runtime/Npu/ll_aton/ll_aton.c **** #include <stdlib.h>
  24:Lib/AI_Runtime/Npu/ll_aton/ll_aton.c **** 
  25:Lib/AI_Runtime/Npu/ll_aton/ll_aton.c **** #include "ll_aton.h"
  26:Lib/AI_Runtime/Npu/ll_aton/ll_aton.c **** #include "ll_aton_caches_interface.h"
  27:Lib/AI_Runtime/Npu/ll_aton/ll_aton.c **** #include "ll_aton_util.h"
  28:Lib/AI_Runtime/Npu/ll_aton/ll_aton.c **** 
  29:Lib/AI_Runtime/Npu/ll_aton/ll_aton.c **** #define ATONN_CONST_SRCPORT(S, J, U, I, P) ATON_##S##_##J##_LINK_##U##_##I##_##P
  30:Lib/AI_Runtime/Npu/ll_aton/ll_aton.c **** #define ATONN_CONST_DSTPORT(S, J, U, I, P) ATON_##S##_DST_OFFSET(J, ATON_##S##_##J##_DST##U##_##I##
  31:Lib/AI_Runtime/Npu/ll_aton/ll_aton.c **** 
  32:Lib/AI_Runtime/Npu/ll_aton/ll_aton.c **** #ifdef ATON_CONVACC_NUM
  33:Lib/AI_Runtime/Npu/ll_aton/ll_aton.c **** static uint32_t Conv_ctrl_bits[ATON_CONVACC_NUM]; // this is an hack FIXME !!!
  34:Lib/AI_Runtime/Npu/ll_aton/ll_aton.c **** #endif
  35:Lib/AI_Runtime/Npu/ll_aton/ll_aton.c **** 
  36:Lib/AI_Runtime/Npu/ll_aton/ll_aton.c **** #if (ATON_POOL_VERSION_MAJOR_DT < 1) || ((ATON_POOL_VERSION_MAJOR_DT == 1) && (ATON_POOL_VERSION_MI
  37:Lib/AI_Runtime/Npu/ll_aton/ll_aton.c **** #define POOL_RC14    /* Pooling unit is not yet patched with respect to auto-clearing of `CLR` bit 
  38:Lib/AI_Runtime/Npu/ll_aton/ll_aton.c ****                         reset values */
ARM GAS  /tmp/ccxZaNgH.s 			page 15


  39:Lib/AI_Runtime/Npu/ll_aton/ll_aton.c **** #endif
  40:Lib/AI_Runtime/Npu/ll_aton/ll_aton.c **** 
  41:Lib/AI_Runtime/Npu/ll_aton/ll_aton.c **** #define ASSERT_UNITS_VERS_W_MSG(unitname, rtl_unitver)                                             
  42:Lib/AI_Runtime/Npu/ll_aton/ll_aton.c ****   do                                                                                               
  43:Lib/AI_Runtime/Npu/ll_aton/ll_aton.c ****   {                                                                                                
  44:Lib/AI_Runtime/Npu/ll_aton/ll_aton.c ****     rtl_unitver = ATON_##unitname##_VERSION_GET(0);                                                
  45:Lib/AI_Runtime/Npu/ll_aton/ll_aton.c ****   } while (rtl_unitver == 0);                                                                      
  46:Lib/AI_Runtime/Npu/ll_aton/ll_aton.c ****   assertf(ATON_##unitname##_VERSION_GET_TYPE(rtl_unitver) == ATON_##unitname##_VERSION_TYPE_DT &&  
  47:Lib/AI_Runtime/Npu/ll_aton/ll_aton.c ****               ATON_##unitname##_VERSION_GET_MAJOR(rtl_unitver) == ATON_##unitname##_VERSION_MAJOR_D
  48:Lib/AI_Runtime/Npu/ll_aton/ll_aton.c ****               ATON_##unitname##_VERSION_GET_MINOR(rtl_unitver) == ATON_##unitname##_VERSION_MINOR_D
  49:Lib/AI_Runtime/Npu/ll_aton/ll_aton.c ****           0,                                                                                       
  50:Lib/AI_Runtime/Npu/ll_aton/ll_aton.c ****           "%s unit ver mismatch: RTL:t=%" PRIu32 ",ver=%" PRIu32 ".%" PRIu32 "  ATON.h:t=%" PRIu32 
  51:Lib/AI_Runtime/Npu/ll_aton/ll_aton.c ****           ".%" PRIu32 "\n\r",                                                                      
  52:Lib/AI_Runtime/Npu/ll_aton/ll_aton.c ****           #unitname, ATON_##unitname##_VERSION_GET_TYPE(rtl_unitver),                              
  53:Lib/AI_Runtime/Npu/ll_aton/ll_aton.c ****           ATON_##unitname##_VERSION_GET_MAJOR(rtl_unitver), ATON_##unitname##_VERSION_GET_MINOR(rtl
  54:Lib/AI_Runtime/Npu/ll_aton/ll_aton.c ****           (uint32_t)ATON_##unitname##_VERSION_TYPE_DT, (uint32_t)ATON_##unitname##_VERSION_MAJOR_DT
  55:Lib/AI_Runtime/Npu/ll_aton/ll_aton.c ****           (uint32_t)ATON_##unitname##_VERSION_MINOR_DT)
  56:Lib/AI_Runtime/Npu/ll_aton/ll_aton.c **** 
  57:Lib/AI_Runtime/Npu/ll_aton/ll_aton.c **** /** @defgroup Simple watchdog management functions.
  58:Lib/AI_Runtime/Npu/ll_aton/ll_aton.c ****  *  Used to exit from LL_Streng_Wait() in case epoch locks
  59:Lib/AI_Runtime/Npu/ll_aton/ll_aton.c ****  * @{
  60:Lib/AI_Runtime/Npu/ll_aton/ll_aton.c ****  */
  61:Lib/AI_Runtime/Npu/ll_aton/ll_aton.c **** 
  62:Lib/AI_Runtime/Npu/ll_aton/ll_aton.c **** static inline void ll_aton_static_checks(void)
  63:Lib/AI_Runtime/Npu/ll_aton/ll_aton.c **** {
 144              		.loc 1 63 1
 145              		.cfi_startproc
 146              		@ args = 0, pretend = 0, frame = 0
 147              		@ frame_needed = 1, uses_anonymous_args = 0
 148 0000 80B5     		push	{r7, lr}
 149              		.cfi_def_cfa_offset 8
 150              		.cfi_offset 7, -8
 151              		.cfi_offset 14, -4
 152 0002 82B0     		sub	sp, sp, #8
 153              		.cfi_def_cfa_offset 16
 154 0004 02AF     		add	r7, sp, #8
 155              		.cfi_def_cfa 7, 8
  64:Lib/AI_Runtime/Npu/ll_aton/ll_aton.c ****   static char done = 0;
  65:Lib/AI_Runtime/Npu/ll_aton/ll_aton.c **** 
  66:Lib/AI_Runtime/Npu/ll_aton/ll_aton.c ****   if (done != 0)
 156              		.loc 1 66 12
 157 0006 274B     		ldr	r3, .L11
 158 0008 1B78     		ldrb	r3, [r3]	@ zero_extendqisi2
 159              		.loc 1 66 6
 160 000a 002B     		cmp	r3, #0
 161 000c 46D1     		bne	.L10
  67:Lib/AI_Runtime/Npu/ll_aton/ll_aton.c ****     return;
  68:Lib/AI_Runtime/Npu/ll_aton/ll_aton.c ****   done = 1;
 162              		.loc 1 68 8
 163 000e 254B     		ldr	r3, .L11
 164 0010 0122     		movs	r2, #1
 165 0012 1A70     		strb	r2, [r3]
  69:Lib/AI_Runtime/Npu/ll_aton/ll_aton.c **** 
  70:Lib/AI_Runtime/Npu/ll_aton/ll_aton.c **** #define ASSERT_ATONN_SRCPORT(S, J, U, I, P)                                                        
  71:Lib/AI_Runtime/Npu/ll_aton/ll_aton.c ****   LL_ATON_ASSERT(ATONN_CONST_SRCPORT(S, J, U, I, P) == __atonn_getSrcPortID(S, J, U, I, P))
  72:Lib/AI_Runtime/Npu/ll_aton/ll_aton.c **** #define ASSERT_ATONN_DSTPORT(S, J, U, I, P)                                                        
  73:Lib/AI_Runtime/Npu/ll_aton/ll_aton.c ****   LL_ATON_ASSERT(ATONN_CONST_DSTPORT(S, J, U, I, P) == __atonn_getDstPortID(S, J, U, I, P))
ARM GAS  /tmp/ccxZaNgH.s 			page 16


  74:Lib/AI_Runtime/Npu/ll_aton/ll_aton.c **** 
  75:Lib/AI_Runtime/Npu/ll_aton/ll_aton.c **** #if ATON_STRENG_NUM > 1
  76:Lib/AI_Runtime/Npu/ll_aton/ll_aton.c ****   ASSERT_ATONN_SRCPORT(STRSWITCH, 0, STRENG, 1, 0);
 166              		.loc 1 76 3
 167 0014 0023     		movs	r3, #0
 168 0016 0093     		str	r3, [sp]
 169 0018 0123     		movs	r3, #1
 170 001a 0022     		movs	r2, #0
 171 001c 0021     		movs	r1, #0
 172 001e 0020     		movs	r0, #0
 173 0020 FFF7FEFF 		bl	__atonn_getSrcPortID
 174 0024 0346     		mov	r3, r0
 175              		.loc 1 76 3 is_stmt 0 discriminator 1
 176 0026 012B     		cmp	r3, #1
 177 0028 05D0     		beq	.L7
 178 002a 1F4B     		ldr	r3, .L11+4
 179 002c 1F4A     		ldr	r2, .L11+8
 180 002e 4C21     		movs	r1, #76
 181 0030 1F48     		ldr	r0, .L11+12
 182 0032 FFF7FEFF 		bl	__assert_func
 183              	.L7:
  77:Lib/AI_Runtime/Npu/ll_aton/ll_aton.c ****   ASSERT_ATONN_DSTPORT(STRSWITCH, 0, STRENG, 1, 0);
 184              		.loc 1 77 3 is_stmt 1
 185 0036 0023     		movs	r3, #0
 186 0038 0093     		str	r3, [sp]
 187 003a 0123     		movs	r3, #1
 188 003c 0022     		movs	r2, #0
 189 003e 0021     		movs	r1, #0
 190 0040 0020     		movs	r0, #0
 191 0042 FFF7FEFF 		bl	__atonn_getDstPortID
 192 0046 0346     		mov	r3, r0
 193              		.loc 1 77 3 is_stmt 0 discriminator 1
 194 0048 0C2B     		cmp	r3, #12
 195 004a 05D0     		beq	.L8
 196 004c 194B     		ldr	r3, .L11+16
 197 004e 174A     		ldr	r2, .L11+8
 198 0050 4D21     		movs	r1, #77
 199 0052 1748     		ldr	r0, .L11+12
 200 0054 FFF7FEFF 		bl	__assert_func
 201              	.L8:
  78:Lib/AI_Runtime/Npu/ll_aton/ll_aton.c **** #endif
  79:Lib/AI_Runtime/Npu/ll_aton/ll_aton.c **** #if ATON_STRENG_NUM > 2
  80:Lib/AI_Runtime/Npu/ll_aton/ll_aton.c ****   ASSERT_ATONN_SRCPORT(STRSWITCH, 0, STRENG, 2, 0);
 202              		.loc 1 80 3 is_stmt 1
 203 0058 0023     		movs	r3, #0
 204 005a 0093     		str	r3, [sp]
 205 005c 0223     		movs	r3, #2
 206 005e 0022     		movs	r2, #0
 207 0060 0021     		movs	r1, #0
 208 0062 0020     		movs	r0, #0
 209 0064 FFF7FEFF 		bl	__atonn_getSrcPortID
 210 0068 0346     		mov	r3, r0
 211              		.loc 1 80 3 is_stmt 0 discriminator 1
 212 006a 022B     		cmp	r3, #2
 213 006c 05D0     		beq	.L9
 214 006e 124B     		ldr	r3, .L11+20
 215 0070 0E4A     		ldr	r2, .L11+8
ARM GAS  /tmp/ccxZaNgH.s 			page 17


 216 0072 5021     		movs	r1, #80
 217 0074 0E48     		ldr	r0, .L11+12
 218 0076 FFF7FEFF 		bl	__assert_func
 219              	.L9:
  81:Lib/AI_Runtime/Npu/ll_aton/ll_aton.c ****   ASSERT_ATONN_DSTPORT(STRSWITCH, 0, STRENG, 2, 0);
 220              		.loc 1 81 3 is_stmt 1
 221 007a 0023     		movs	r3, #0
 222 007c 0093     		str	r3, [sp]
 223 007e 0223     		movs	r3, #2
 224 0080 0022     		movs	r2, #0
 225 0082 0021     		movs	r1, #0
 226 0084 0020     		movs	r0, #0
 227 0086 FFF7FEFF 		bl	__atonn_getDstPortID
 228 008a 0346     		mov	r3, r0
 229              		.loc 1 81 3 is_stmt 0 discriminator 1
 230 008c 102B     		cmp	r3, #16
 231 008e 06D0     		beq	.L4
 232 0090 0A4B     		ldr	r3, .L11+24
 233 0092 064A     		ldr	r2, .L11+8
 234 0094 5121     		movs	r1, #81
 235 0096 0648     		ldr	r0, .L11+12
 236 0098 FFF7FEFF 		bl	__assert_func
 237              	.L10:
  67:Lib/AI_Runtime/Npu/ll_aton/ll_aton.c ****   done = 1;
 238              		.loc 1 67 5 is_stmt 1
 239 009c 00BF     		nop
 240              	.L4:
  82:Lib/AI_Runtime/Npu/ll_aton/ll_aton.c **** #endif
  83:Lib/AI_Runtime/Npu/ll_aton/ll_aton.c **** 
  84:Lib/AI_Runtime/Npu/ll_aton/ll_aton.c **** #if (LL_ATON_PLATFORM == LL_ATON_PLAT_EC_TRACE)
  85:Lib/AI_Runtime/Npu/ll_aton/ll_aton.c **** 
  86:Lib/AI_Runtime/Npu/ll_aton/ll_aton.c **** #if ATON_CONVACC_NUM > 1
  87:Lib/AI_Runtime/Npu/ll_aton/ll_aton.c ****   ASSERT_ATONN_SRCPORT(STRSWITCH, 0, CONVACC, 1, 0);
  88:Lib/AI_Runtime/Npu/ll_aton/ll_aton.c ****   ASSERT_ATONN_DSTPORT(STRSWITCH, 0, CONVACC, 1, 0);
  89:Lib/AI_Runtime/Npu/ll_aton/ll_aton.c ****   ASSERT_ATONN_DSTPORT(STRSWITCH, 0, CONVACC, 1, 1);
  90:Lib/AI_Runtime/Npu/ll_aton/ll_aton.c ****   ASSERT_ATONN_DSTPORT(STRSWITCH, 0, CONVACC, 1, 2);
  91:Lib/AI_Runtime/Npu/ll_aton/ll_aton.c **** #endif
  92:Lib/AI_Runtime/Npu/ll_aton/ll_aton.c **** 
  93:Lib/AI_Runtime/Npu/ll_aton/ll_aton.c **** #if ATON_CONVACC_NUM > 2
  94:Lib/AI_Runtime/Npu/ll_aton/ll_aton.c ****   ASSERT_ATONN_SRCPORT(STRSWITCH, 0, CONVACC, 2, 0);
  95:Lib/AI_Runtime/Npu/ll_aton/ll_aton.c ****   ASSERT_ATONN_DSTPORT(STRSWITCH, 0, CONVACC, 2, 0);
  96:Lib/AI_Runtime/Npu/ll_aton/ll_aton.c ****   ASSERT_ATONN_DSTPORT(STRSWITCH, 0, CONVACC, 2, 1);
  97:Lib/AI_Runtime/Npu/ll_aton/ll_aton.c ****   ASSERT_ATONN_DSTPORT(STRSWITCH, 0, CONVACC, 2, 2);
  98:Lib/AI_Runtime/Npu/ll_aton/ll_aton.c **** #endif
  99:Lib/AI_Runtime/Npu/ll_aton/ll_aton.c **** 
 100:Lib/AI_Runtime/Npu/ll_aton/ll_aton.c **** #if ATON_POOL_NUM > 1
 101:Lib/AI_Runtime/Npu/ll_aton/ll_aton.c ****   ASSERT_ATONN_SRCPORT(STRSWITCH, 0, POOL, 1, 0);
 102:Lib/AI_Runtime/Npu/ll_aton/ll_aton.c ****   ASSERT_ATONN_DSTPORT(STRSWITCH, 0, POOL, 1, 0);
 103:Lib/AI_Runtime/Npu/ll_aton/ll_aton.c **** #endif
 104:Lib/AI_Runtime/Npu/ll_aton/ll_aton.c **** 
 105:Lib/AI_Runtime/Npu/ll_aton/ll_aton.c **** #if ATON_ARITH_NUM > 1
 106:Lib/AI_Runtime/Npu/ll_aton/ll_aton.c ****   ASSERT_ATONN_SRCPORT(STRSWITCH, 0, ARITH, 1, 0);
 107:Lib/AI_Runtime/Npu/ll_aton/ll_aton.c ****   ASSERT_ATONN_DSTPORT(STRSWITCH, 0, ARITH, 1, 0);
 108:Lib/AI_Runtime/Npu/ll_aton/ll_aton.c ****   ASSERT_ATONN_DSTPORT(STRSWITCH, 0, ARITH, 1, 1);
 109:Lib/AI_Runtime/Npu/ll_aton/ll_aton.c **** #endif
 110:Lib/AI_Runtime/Npu/ll_aton/ll_aton.c **** 
 111:Lib/AI_Runtime/Npu/ll_aton/ll_aton.c **** #if ATON_ACTIV_NUM > 1
ARM GAS  /tmp/ccxZaNgH.s 			page 18


 112:Lib/AI_Runtime/Npu/ll_aton/ll_aton.c ****   ASSERT_ATONN_SRCPORT(STRSWITCH, 0, ACTIV, 1, 0);
 113:Lib/AI_Runtime/Npu/ll_aton/ll_aton.c ****   ASSERT_ATONN_DSTPORT(STRSWITCH, 0, ACTIV, 1, 0);
 114:Lib/AI_Runtime/Npu/ll_aton/ll_aton.c **** #endif
 115:Lib/AI_Runtime/Npu/ll_aton/ll_aton.c **** 
 116:Lib/AI_Runtime/Npu/ll_aton/ll_aton.c **** #if ATON_DECUN_NUM > 1
 117:Lib/AI_Runtime/Npu/ll_aton/ll_aton.c ****   ASSERT_ATONN_SRCPORT(STRSWITCH, 0, DECUN, 1, 0);
 118:Lib/AI_Runtime/Npu/ll_aton/ll_aton.c ****   ASSERT_ATONN_DSTPORT(STRSWITCH, 0, DECUN, 1, 0);
 119:Lib/AI_Runtime/Npu/ll_aton/ll_aton.c ****   ASSERT_ATONN_DSTPORT(STRSWITCH, 0, DECUN, 1, 1);
 120:Lib/AI_Runtime/Npu/ll_aton/ll_aton.c **** #endif
 121:Lib/AI_Runtime/Npu/ll_aton/ll_aton.c **** 
 122:Lib/AI_Runtime/Npu/ll_aton/ll_aton.c **** #endif // (LL_ATON_PLATFORM == LL_ATON_PLAT_EC_TRACE)
 123:Lib/AI_Runtime/Npu/ll_aton/ll_aton.c **** 
 124:Lib/AI_Runtime/Npu/ll_aton/ll_aton.c **** #undef ASSERT_ATONN_SRCPORT
 125:Lib/AI_Runtime/Npu/ll_aton/ll_aton.c **** #undef ASSERT_ATONN_DSTPORT
 126:Lib/AI_Runtime/Npu/ll_aton/ll_aton.c **** }
 241              		.loc 1 126 1
 242 009e BD46     		mov	sp, r7
 243              		.cfi_def_cfa_register 13
 244              		@ sp needed
 245 00a0 80BD     		pop	{r7, pc}
 246              	.L12:
 247 00a2 00BF     		.align	2
 248              	.L11:
 249 00a4 00000000 		.word	done.9
 250 00a8 00000000 		.word	.LC3
 251 00ac 00000000 		.word	__func__.8
 252 00b0 3C000000 		.word	.LC4
 253 00b4 64000000 		.word	.LC5
 254 00b8 B0000000 		.word	.LC6
 255 00bc EC000000 		.word	.LC7
 256              		.cfi_endproc
 257              	.LFE4820:
 259              		.section	.text.LL_Address_Physical2Virtual,"ax",%progbits
 260              		.align	1
 261              		.global	LL_Address_Physical2Virtual
 262              		.syntax unified
 263              		.thumb
 264              		.thumb_func
 266              	LL_Address_Physical2Virtual:
 267              	.LFB4821:
 127:Lib/AI_Runtime/Npu/ll_aton/ll_aton.c **** 
 128:Lib/AI_Runtime/Npu/ll_aton/ll_aton.c **** unsigned char *LL_Address_Physical2Virtual(unsigned char *address)
 129:Lib/AI_Runtime/Npu/ll_aton/ll_aton.c **** {
 268              		.loc 1 129 1
 269              		.cfi_startproc
 270              		@ args = 0, pretend = 0, frame = 8
 271              		@ frame_needed = 1, uses_anonymous_args = 0
 272              		@ link register save eliminated.
 273 0000 80B4     		push	{r7}
 274              		.cfi_def_cfa_offset 4
 275              		.cfi_offset 7, -4
 276 0002 83B0     		sub	sp, sp, #12
 277              		.cfi_def_cfa_offset 16
 278 0004 00AF     		add	r7, sp, #0
 279              		.cfi_def_cfa_register 7
 280 0006 7860     		str	r0, [r7, #4]
 130:Lib/AI_Runtime/Npu/ll_aton/ll_aton.c ****   return ATON_LIB_PHYSICAL_TO_VIRTUAL_ADDR(address);
ARM GAS  /tmp/ccxZaNgH.s 			page 19


 281              		.loc 1 130 10
 282 0008 7B68     		ldr	r3, [r7, #4]
 131:Lib/AI_Runtime/Npu/ll_aton/ll_aton.c **** }
 283              		.loc 1 131 1
 284 000a 1846     		mov	r0, r3
 285 000c 0C37     		adds	r7, r7, #12
 286              		.cfi_def_cfa_offset 4
 287 000e BD46     		mov	sp, r7
 288              		.cfi_def_cfa_register 13
 289              		@ sp needed
 290 0010 5DF8047B 		ldr	r7, [sp], #4
 291              		.cfi_restore 7
 292              		.cfi_def_cfa_offset 0
 293 0014 7047     		bx	lr
 294              		.cfi_endproc
 295              	.LFE4821:
 297              		.section	.text.LL_Address_Virtual2Physical,"ax",%progbits
 298              		.align	1
 299              		.global	LL_Address_Virtual2Physical
 300              		.syntax unified
 301              		.thumb
 302              		.thumb_func
 304              	LL_Address_Virtual2Physical:
 305              	.LFB4822:
 132:Lib/AI_Runtime/Npu/ll_aton/ll_aton.c **** 
 133:Lib/AI_Runtime/Npu/ll_aton/ll_aton.c **** unsigned char *LL_Address_Virtual2Physical(unsigned char *address)
 134:Lib/AI_Runtime/Npu/ll_aton/ll_aton.c **** {
 306              		.loc 1 134 1
 307              		.cfi_startproc
 308              		@ args = 0, pretend = 0, frame = 8
 309              		@ frame_needed = 1, uses_anonymous_args = 0
 310              		@ link register save eliminated.
 311 0000 80B4     		push	{r7}
 312              		.cfi_def_cfa_offset 4
 313              		.cfi_offset 7, -4
 314 0002 83B0     		sub	sp, sp, #12
 315              		.cfi_def_cfa_offset 16
 316 0004 00AF     		add	r7, sp, #0
 317              		.cfi_def_cfa_register 7
 318 0006 7860     		str	r0, [r7, #4]
 135:Lib/AI_Runtime/Npu/ll_aton/ll_aton.c ****   return ATON_LIB_VIRTUAL_TO_PHYSICAL_ADDR(address);
 319              		.loc 1 135 10
 320 0008 7B68     		ldr	r3, [r7, #4]
 136:Lib/AI_Runtime/Npu/ll_aton/ll_aton.c **** }
 321              		.loc 1 136 1
 322 000a 1846     		mov	r0, r3
 323 000c 0C37     		adds	r7, r7, #12
 324              		.cfi_def_cfa_offset 4
 325 000e BD46     		mov	sp, r7
 326              		.cfi_def_cfa_register 13
 327              		@ sp needed
 328 0010 5DF8047B 		ldr	r7, [sp], #4
 329              		.cfi_restore 7
 330              		.cfi_def_cfa_offset 0
 331 0014 7047     		bx	lr
 332              		.cfi_endproc
 333              	.LFE4822:
ARM GAS  /tmp/ccxZaNgH.s 			page 20


 335              		.section	.text.startWatchdog,"ax",%progbits
 336              		.align	1
 337              		.weak	startWatchdog
 338              		.syntax unified
 339              		.thumb
 340              		.thumb_func
 342              	startWatchdog:
 343              	.LFB4823:
 137:Lib/AI_Runtime/Npu/ll_aton/ll_aton.c **** 
 138:Lib/AI_Runtime/Npu/ll_aton/ll_aton.c **** /**
 139:Lib/AI_Runtime/Npu/ll_aton/ll_aton.c ****  * @brief Starts watchdog
 140:Lib/AI_Runtime/Npu/ll_aton/ll_aton.c ****  * @param timeout Watchdog timeout in cycles
 141:Lib/AI_Runtime/Npu/ll_aton/ll_aton.c ****  * @retval ATON Error code
 142:Lib/AI_Runtime/Npu/ll_aton/ll_aton.c ****  */
 143:Lib/AI_Runtime/Npu/ll_aton/ll_aton.c **** LL_ATON_WEAK int startWatchdog(uint32_t timeout)
 144:Lib/AI_Runtime/Npu/ll_aton/ll_aton.c **** {
 344              		.loc 1 144 1
 345              		.cfi_startproc
 346              		@ args = 0, pretend = 0, frame = 8
 347              		@ frame_needed = 1, uses_anonymous_args = 0
 348              		@ link register save eliminated.
 349 0000 80B4     		push	{r7}
 350              		.cfi_def_cfa_offset 4
 351              		.cfi_offset 7, -4
 352 0002 83B0     		sub	sp, sp, #12
 353              		.cfi_def_cfa_offset 16
 354 0004 00AF     		add	r7, sp, #0
 355              		.cfi_def_cfa_register 7
 356 0006 7860     		str	r0, [r7, #4]
 145:Lib/AI_Runtime/Npu/ll_aton/ll_aton.c ****   (void)timeout;
 146:Lib/AI_Runtime/Npu/ll_aton/ll_aton.c **** 
 147:Lib/AI_Runtime/Npu/ll_aton/ll_aton.c ****   return 0;
 357              		.loc 1 147 10
 358 0008 0023     		movs	r3, #0
 148:Lib/AI_Runtime/Npu/ll_aton/ll_aton.c **** }
 359              		.loc 1 148 1
 360 000a 1846     		mov	r0, r3
 361 000c 0C37     		adds	r7, r7, #12
 362              		.cfi_def_cfa_offset 4
 363 000e BD46     		mov	sp, r7
 364              		.cfi_def_cfa_register 13
 365              		@ sp needed
 366 0010 5DF8047B 		ldr	r7, [sp], #4
 367              		.cfi_restore 7
 368              		.cfi_def_cfa_offset 0
 369 0014 7047     		bx	lr
 370              		.cfi_endproc
 371              	.LFE4823:
 373              		.section	.text.checkWatchdog,"ax",%progbits
 374              		.align	1
 375              		.weak	checkWatchdog
 376              		.syntax unified
 377              		.thumb
 378              		.thumb_func
 380              	checkWatchdog:
 381              	.LFB4824:
 149:Lib/AI_Runtime/Npu/ll_aton/ll_aton.c **** 
ARM GAS  /tmp/ccxZaNgH.s 			page 21


 150:Lib/AI_Runtime/Npu/ll_aton/ll_aton.c **** /**
 151:Lib/AI_Runtime/Npu/ll_aton/ll_aton.c ****  * @brief Checkes whether watchdog has expired or not
 152:Lib/AI_Runtime/Npu/ll_aton/ll_aton.c ****  * @retval ATON Error code
 153:Lib/AI_Runtime/Npu/ll_aton/ll_aton.c ****  */
 154:Lib/AI_Runtime/Npu/ll_aton/ll_aton.c **** LL_ATON_WEAK int checkWatchdog(void)
 155:Lib/AI_Runtime/Npu/ll_aton/ll_aton.c **** {
 382              		.loc 1 155 1
 383              		.cfi_startproc
 384              		@ args = 0, pretend = 0, frame = 0
 385              		@ frame_needed = 1, uses_anonymous_args = 0
 386              		@ link register save eliminated.
 387 0000 80B4     		push	{r7}
 388              		.cfi_def_cfa_offset 4
 389              		.cfi_offset 7, -4
 390 0002 00AF     		add	r7, sp, #0
 391              		.cfi_def_cfa_register 7
 156:Lib/AI_Runtime/Npu/ll_aton/ll_aton.c ****   return 0;
 392              		.loc 1 156 10
 393 0004 0023     		movs	r3, #0
 157:Lib/AI_Runtime/Npu/ll_aton/ll_aton.c **** }
 394              		.loc 1 157 1
 395 0006 1846     		mov	r0, r3
 396 0008 BD46     		mov	sp, r7
 397              		.cfi_def_cfa_register 13
 398              		@ sp needed
 399 000a 5DF8047B 		ldr	r7, [sp], #4
 400              		.cfi_restore 7
 401              		.cfi_def_cfa_offset 0
 402 000e 7047     		bx	lr
 403              		.cfi_endproc
 404              	.LFE4824:
 406              		.section	.rodata
 407 0135 000000   		.align	2
 408              	.LC8:
 409 0138 4E6F6E65 		.ascii	"None\000"
 409      00
 410 013d 000000   		.align	2
 411              	.LC9:
 412 0140 5B455252 		.ascii	"[ERROR] (%s:%d: errno: %s) %s unit ver mismatch: RT"
 412      4F525D20 
 412      2825733A 
 412      25643A20 
 412      6572726E 
 413 0173 4C3A743D 		.ascii	"L:t=%lu,ver=%lu.%lu  ATON.h:t=%lu,ver=%lu.%lu\012\015"
 413      256C752C 
 413      7665723D 
 413      256C752E 
 413      256C7520 
 414 01a2 0A00     		.ascii	"\012\000"
 415              		.align	2
 416              	.LC10:
 417 01a4 53545245 		.ascii	"STRENG\000"
 417      4E4700
 418 01ab 00       		.align	2
 419              	.LC11:
 420 01ac 3000     		.ascii	"0\000"
 421 01ae 0000     		.align	2
ARM GAS  /tmp/ccxZaNgH.s 			page 22


 422              	.LC12:
 423 01b0 434F4E56 		.ascii	"CONVACC\000"
 423      41434300 
 424              		.align	2
 425              	.LC13:
 426 01b8 504F4F4C 		.ascii	"POOL\000"
 426      00
 427 01bd 000000   		.align	2
 428              	.LC14:
 429 01c0 41524954 		.ascii	"ARITH\000"
 429      4800
 430 01c6 0000     		.align	2
 431              	.LC15:
 432 01c8 41435449 		.ascii	"ACTIV\000"
 432      5600
 433 01ce 0000     		.align	2
 434              	.LC16:
 435 01d0 44454355 		.ascii	"DECUN\000"
 435      4E00
 436 01d6 0000     		.align	2
 437              	.LC17:
 438 01d8 45504F43 		.ascii	"EPOCHCTRL\000"
 438      48435452 
 438      4C00
 439 01e2 0000     		.align	2
 440              	.LC18:
 441 01e4 52454342 		.ascii	"RECBUF\000"
 441      554600
 442 01eb 00       		.align	2
 443              	.LC19:
 444 01ec 434C4B43 		.ascii	"CLKCTRL\000"
 444      54524C00 
 445              		.align	2
 446              	.LC20:
 447 01f4 494E5443 		.ascii	"INTCTRL\000"
 447      54524C00 
 448              		.align	2
 449              	.LC21:
 450 01fc 53545253 		.ascii	"STRSWITCH\000"
 450      57495443 
 450      4800
 451 0206 0000     		.align	2
 452              	.LC22:
 453 0208 42555349 		.ascii	"BUSIF\000"
 453      4600
 454              		.section	.text.LL_ATON_Init,"ax",%progbits
 455              		.align	1
 456              		.global	LL_ATON_Init
 457              		.syntax unified
 458              		.thumb
 459              		.thumb_func
 461              	LL_ATON_Init:
 462              	.LFB4825:
 158:Lib/AI_Runtime/Npu/ll_aton/ll_aton.c **** 
 159:Lib/AI_Runtime/Npu/ll_aton/ll_aton.c **** /**
 160:Lib/AI_Runtime/Npu/ll_aton/ll_aton.c ****  * @}
 161:Lib/AI_Runtime/Npu/ll_aton/ll_aton.c ****  */
ARM GAS  /tmp/ccxZaNgH.s 			page 23


 162:Lib/AI_Runtime/Npu/ll_aton/ll_aton.c **** 
 163:Lib/AI_Runtime/Npu/ll_aton/ll_aton.c **** /**
 164:Lib/AI_Runtime/Npu/ll_aton/ll_aton.c ****  * @brief  ATON global initialization. Initializes clocks and bus interfaces. Must be called before
 165:Lib/AI_Runtime/Npu/ll_aton/ll_aton.c ****  * @retval Always zero
 166:Lib/AI_Runtime/Npu/ll_aton/ll_aton.c ****  */
 167:Lib/AI_Runtime/Npu/ll_aton/ll_aton.c **** int LL_ATON_Init(void)
 168:Lib/AI_Runtime/Npu/ll_aton/ll_aton.c **** {
 463              		.loc 1 168 1
 464              		.cfi_startproc
 465              		@ args = 0, pretend = 0, frame = 8
 466              		@ frame_needed = 1, uses_anonymous_args = 0
 467 0000 90B5     		push	{r4, r7, lr}
 468              		.cfi_def_cfa_offset 12
 469              		.cfi_offset 4, -12
 470              		.cfi_offset 7, -8
 471              		.cfi_offset 14, -4
 472 0002 8BB0     		sub	sp, sp, #44
 473              		.cfi_def_cfa_offset 56
 474 0004 08AF     		add	r7, sp, #32
 475              		.cfi_def_cfa 7, 24
 169:Lib/AI_Runtime/Npu/ll_aton/ll_aton.c ****   uint32_t t;
 170:Lib/AI_Runtime/Npu/ll_aton/ll_aton.c ****   int i;
 171:Lib/AI_Runtime/Npu/ll_aton/ll_aton.c **** 
 172:Lib/AI_Runtime/Npu/ll_aton/ll_aton.c ****   ll_aton_static_checks();
 476              		.loc 1 172 3
 477 0006 FFF7FEFF 		bl	ll_aton_static_checks
 173:Lib/AI_Runtime/Npu/ll_aton/ll_aton.c **** 
 174:Lib/AI_Runtime/Npu/ll_aton/ll_aton.c ****   /* Clear pipeline */
 175:Lib/AI_Runtime/Npu/ll_aton/ll_aton.c ****   t = ATON_CLKCTRL_CTRL_GET(0);
 478              		.loc 1 175 7
 479 000a 974B     		ldr	r3, .L74
 480              		.loc 1 175 5
 481 000c 1B68     		ldr	r3, [r3]
 482 000e 7B60     		str	r3, [r7, #4]
 176:Lib/AI_Runtime/Npu/ll_aton/ll_aton.c ****   t = ATON_CLKCTRL_CTRL_SET_CLR(t, 1);
 483              		.loc 1 176 5
 484 0010 7B68     		ldr	r3, [r7, #4]
 485 0012 43F00203 		orr	r3, r3, #2
 486 0016 7B60     		str	r3, [r7, #4]
 177:Lib/AI_Runtime/Npu/ll_aton/ll_aton.c ****   ATON_CLKCTRL_CTRL_SET(0, t);
 487              		.loc 1 177 3
 488 0018 934A     		ldr	r2, .L74
 489 001a 7B68     		ldr	r3, [r7, #4]
 490 001c 1360     		str	r3, [r2]
 178:Lib/AI_Runtime/Npu/ll_aton/ll_aton.c **** 
 179:Lib/AI_Runtime/Npu/ll_aton/ll_aton.c ****   /* Enable all ATON clocks */
 180:Lib/AI_Runtime/Npu/ll_aton/ll_aton.c ****   ATON_CLKCTRL_CTRL_SET(0, 1);
 491              		.loc 1 180 3
 492 001e 924B     		ldr	r3, .L74
 493 0020 0122     		movs	r2, #1
 494 0022 1A60     		str	r2, [r3]
 181:Lib/AI_Runtime/Npu/ll_aton/ll_aton.c ****   ATON_CLKCTRL_AGATES0_SET(0, 0xffffffff);
 495              		.loc 1 181 3
 496 0024 914B     		ldr	r3, .L74+4
 497 0026 4FF0FF32 		mov	r2, #-1
 498 002a 1A60     		str	r2, [r3]
 182:Lib/AI_Runtime/Npu/ll_aton/ll_aton.c ****   ATON_CLKCTRL_AGATES1_SET(0, 0xffffffff);
ARM GAS  /tmp/ccxZaNgH.s 			page 24


 499              		.loc 1 182 3
 500 002c 904B     		ldr	r3, .L74+8
 501 002e 4FF0FF32 		mov	r2, #-1
 502 0032 1A60     		str	r2, [r3]
 183:Lib/AI_Runtime/Npu/ll_aton/ll_aton.c **** 
 184:Lib/AI_Runtime/Npu/ll_aton/ll_aton.c **** #if (LL_ATON_ENABLE_CLOCK_GATING == 1)
 185:Lib/AI_Runtime/Npu/ll_aton/ll_aton.c **** #if (LL_ATON_PLATFORM == LL_ATON_PLAT_EC_TRACE)
 186:Lib/AI_Runtime/Npu/ll_aton/ll_aton.c ****   ATON_CLKCTRL_BGATES_SET(0, (1 << ATON_EPOCHCTRL_CLKB_CLK(0)));
 187:Lib/AI_Runtime/Npu/ll_aton/ll_aton.c **** #else
 188:Lib/AI_Runtime/Npu/ll_aton/ll_aton.c ****   ATON_CLKCTRL_BGATES_SET(0, 0x0);
 503              		.loc 1 188 3
 504 0034 8F4B     		ldr	r3, .L74+12
 505 0036 0022     		movs	r2, #0
 506 0038 1A60     		str	r2, [r3]
 507              	.L22:
 189:Lib/AI_Runtime/Npu/ll_aton/ll_aton.c **** #endif
 190:Lib/AI_Runtime/Npu/ll_aton/ll_aton.c **** #else
 191:Lib/AI_Runtime/Npu/ll_aton/ll_aton.c ****   ATON_CLKCTRL_BGATES_SET(0, 0xffffffff);
 192:Lib/AI_Runtime/Npu/ll_aton/ll_aton.c **** #endif
 193:Lib/AI_Runtime/Npu/ll_aton/ll_aton.c **** 
 194:Lib/AI_Runtime/Npu/ll_aton/ll_aton.c **** #ifdef ATON_CLKCTRL_BGATES1_OFFSET
 195:Lib/AI_Runtime/Npu/ll_aton/ll_aton.c ****   ATON_CLKCTRL_BGATES1_SET(0, 0xffffffff);
 196:Lib/AI_Runtime/Npu/ll_aton/ll_aton.c **** #endif
 197:Lib/AI_Runtime/Npu/ll_aton/ll_aton.c **** 
 198:Lib/AI_Runtime/Npu/ll_aton/ll_aton.c ****   /* Check that RTL and ATON.h match. Only check first unit */
 199:Lib/AI_Runtime/Npu/ll_aton/ll_aton.c ****   ASSERT_UNITS_VERS_W_MSG(STRENG, t);
 508              		.loc 1 199 3 discriminator 1
 509 003a 8F4B     		ldr	r3, .L74+16
 510 003c 1B68     		ldr	r3, [r3]
 511 003e 7B60     		str	r3, [r7, #4]
 512 0040 7B68     		ldr	r3, [r7, #4]
 513 0042 002B     		cmp	r3, #0
 514 0044 F9D0     		beq	.L22
 515              		.loc 1 199 3 is_stmt 0 discriminator 2
 516 0046 7B68     		ldr	r3, [r7, #4]
 517 0048 DBB2     		uxtb	r3, r3
 518 004a 012B     		cmp	r3, #1
 519 004c 0AD1     		bne	.L23
 520              		.loc 1 199 3 discriminator 4
 521 004e 7B68     		ldr	r3, [r7, #4]
 522 0050 03F47043 		and	r3, r3, #61440
 523 0054 B3F5A04F 		cmp	r3, #20480
 524 0058 04D1     		bne	.L23
 525              		.loc 1 199 3 discriminator 6
 526 005a 7B68     		ldr	r3, [r7, #4]
 527 005c 03F47063 		and	r3, r3, #3840
 528 0060 002B     		cmp	r3, #0
 529 0062 2FD0     		beq	.L24
 530              	.L23:
 531              		.loc 1 199 3 discriminator 7
 532 0064 FFF7FEFF 		bl	__errno
 533 0068 0346     		mov	r3, r0
 534              		.loc 1 199 3 discriminator 1
 535 006a 1B68     		ldr	r3, [r3]
 536 006c 002B     		cmp	r3, #0
 537 006e 08D0     		beq	.L25
 538              		.loc 1 199 3 discriminator 8
ARM GAS  /tmp/ccxZaNgH.s 			page 25


 539 0070 FFF7FEFF 		bl	__errno
 540 0074 0346     		mov	r3, r0
 541              		.loc 1 199 3 discriminator 1
 542 0076 1B68     		ldr	r3, [r3]
 543 0078 1846     		mov	r0, r3
 544 007a FFF7FEFF 		bl	strerror
 545 007e 0346     		mov	r3, r0
 546 0080 00E0     		b	.L26
 547              	.L25:
 548              		.loc 1 199 3 discriminator 9
 549 0082 7E4B     		ldr	r3, .L74+20
 550              	.L26:
 551              		.loc 1 199 3 discriminator 11
 552 0084 7A68     		ldr	r2, [r7, #4]
 553 0086 D2B2     		uxtb	r2, r2
 554 0088 7968     		ldr	r1, [r7, #4]
 555 008a 090B     		lsrs	r1, r1, #12
 556 008c 01F00F01 		and	r1, r1, #15
 557 0090 7868     		ldr	r0, [r7, #4]
 558 0092 000A     		lsrs	r0, r0, #8
 559 0094 00F00F00 		and	r0, r0, #15
 560 0098 0024     		movs	r4, #0
 561 009a 0694     		str	r4, [sp, #24]
 562 009c 0524     		movs	r4, #5
 563 009e 0594     		str	r4, [sp, #20]
 564 00a0 0124     		movs	r4, #1
 565 00a2 0494     		str	r4, [sp, #16]
 566 00a4 0390     		str	r0, [sp, #12]
 567 00a6 0291     		str	r1, [sp, #8]
 568 00a8 0192     		str	r2, [sp, #4]
 569 00aa 754A     		ldr	r2, .L74+24
 570 00ac 0092     		str	r2, [sp]
 571 00ae C722     		movs	r2, #199
 572 00b0 7449     		ldr	r1, .L74+28
 573 00b2 7548     		ldr	r0, .L74+32
 574 00b4 FFF7FEFF 		bl	printf
 575              		.loc 1 199 3 discriminator 13
 576 00b8 744B     		ldr	r3, .L74+36
 577 00ba 754A     		ldr	r2, .L74+40
 578 00bc C721     		movs	r1, #199
 579 00be 7148     		ldr	r0, .L74+28
 580 00c0 FFF7FEFF 		bl	__assert_func
 581              	.L24:
 200:Lib/AI_Runtime/Npu/ll_aton/ll_aton.c **** 
 201:Lib/AI_Runtime/Npu/ll_aton/ll_aton.c **** #ifdef ATON_CONVACC_NUM
 202:Lib/AI_Runtime/Npu/ll_aton/ll_aton.c ****   ASSERT_UNITS_VERS_W_MSG(CONVACC, t);
 582              		.loc 1 202 3 is_stmt 1 discriminator 1
 583 00c4 734B     		ldr	r3, .L74+44
 584 00c6 1B68     		ldr	r3, [r3]
 585 00c8 7B60     		str	r3, [r7, #4]
 586 00ca 7B68     		ldr	r3, [r7, #4]
 587 00cc 002B     		cmp	r3, #0
 588 00ce F9D0     		beq	.L24
 589              		.loc 1 202 3 is_stmt 0 discriminator 2
 590 00d0 7B68     		ldr	r3, [r7, #4]
 591 00d2 DBB2     		uxtb	r3, r3
 592 00d4 172B     		cmp	r3, #23
ARM GAS  /tmp/ccxZaNgH.s 			page 26


 593 00d6 0BD1     		bne	.L27
 594              		.loc 1 202 3 discriminator 4
 595 00d8 7B68     		ldr	r3, [r7, #4]
 596 00da 03F47043 		and	r3, r3, #61440
 597 00de B3F5A04F 		cmp	r3, #20480
 598 00e2 05D1     		bne	.L27
 599              		.loc 1 202 3 discriminator 6
 600 00e4 7B68     		ldr	r3, [r7, #4]
 601 00e6 03F47063 		and	r3, r3, #3840
 602 00ea B3F5807F 		cmp	r3, #256
 603 00ee 2FD0     		beq	.L28
 604              	.L27:
 605              		.loc 1 202 3 discriminator 7
 606 00f0 FFF7FEFF 		bl	__errno
 607 00f4 0346     		mov	r3, r0
 608              		.loc 1 202 3 discriminator 1
 609 00f6 1B68     		ldr	r3, [r3]
 610 00f8 002B     		cmp	r3, #0
 611 00fa 08D0     		beq	.L29
 612              		.loc 1 202 3 discriminator 8
 613 00fc FFF7FEFF 		bl	__errno
 614 0100 0346     		mov	r3, r0
 615              		.loc 1 202 3 discriminator 1
 616 0102 1B68     		ldr	r3, [r3]
 617 0104 1846     		mov	r0, r3
 618 0106 FFF7FEFF 		bl	strerror
 619 010a 0346     		mov	r3, r0
 620 010c 00E0     		b	.L30
 621              	.L29:
 622              		.loc 1 202 3 discriminator 9
 623 010e 5B4B     		ldr	r3, .L74+20
 624              	.L30:
 625              		.loc 1 202 3 discriminator 11
 626 0110 7A68     		ldr	r2, [r7, #4]
 627 0112 D2B2     		uxtb	r2, r2
 628 0114 7968     		ldr	r1, [r7, #4]
 629 0116 090B     		lsrs	r1, r1, #12
 630 0118 01F00F01 		and	r1, r1, #15
 631 011c 7868     		ldr	r0, [r7, #4]
 632 011e 000A     		lsrs	r0, r0, #8
 633 0120 00F00F00 		and	r0, r0, #15
 634 0124 0124     		movs	r4, #1
 635 0126 0694     		str	r4, [sp, #24]
 636 0128 0524     		movs	r4, #5
 637 012a 0594     		str	r4, [sp, #20]
 638 012c 1724     		movs	r4, #23
 639 012e 0494     		str	r4, [sp, #16]
 640 0130 0390     		str	r0, [sp, #12]
 641 0132 0291     		str	r1, [sp, #8]
 642 0134 0192     		str	r2, [sp, #4]
 643 0136 584A     		ldr	r2, .L74+48
 644 0138 0092     		str	r2, [sp]
 645 013a CA22     		movs	r2, #202
 646 013c 5149     		ldr	r1, .L74+28
 647 013e 5248     		ldr	r0, .L74+32
 648 0140 FFF7FEFF 		bl	printf
 649              		.loc 1 202 3 discriminator 13
ARM GAS  /tmp/ccxZaNgH.s 			page 27


 650 0144 514B     		ldr	r3, .L74+36
 651 0146 524A     		ldr	r2, .L74+40
 652 0148 CA21     		movs	r1, #202
 653 014a 4E48     		ldr	r0, .L74+28
 654 014c FFF7FEFF 		bl	__assert_func
 655              	.L28:
 203:Lib/AI_Runtime/Npu/ll_aton/ll_aton.c **** #endif
 204:Lib/AI_Runtime/Npu/ll_aton/ll_aton.c **** 
 205:Lib/AI_Runtime/Npu/ll_aton/ll_aton.c **** #ifdef ATON_POOL_NUM
 206:Lib/AI_Runtime/Npu/ll_aton/ll_aton.c ****   ASSERT_UNITS_VERS_W_MSG(POOL, t);
 656              		.loc 1 206 3 is_stmt 1 discriminator 1
 657 0150 524B     		ldr	r3, .L74+52
 658 0152 1B68     		ldr	r3, [r3]
 659 0154 7B60     		str	r3, [r7, #4]
 660 0156 7B68     		ldr	r3, [r7, #4]
 661 0158 002B     		cmp	r3, #0
 662 015a F9D0     		beq	.L28
 663              		.loc 1 206 3 is_stmt 0 discriminator 2
 664 015c 7B68     		ldr	r3, [r7, #4]
 665 015e DBB2     		uxtb	r3, r3
 666 0160 1C2B     		cmp	r3, #28
 667 0162 0BD1     		bne	.L31
 668              		.loc 1 206 3 discriminator 4
 669 0164 7B68     		ldr	r3, [r7, #4]
 670 0166 03F47043 		and	r3, r3, #61440
 671 016a B3F5805F 		cmp	r3, #4096
 672 016e 05D1     		bne	.L31
 673              		.loc 1 206 3 discriminator 6
 674 0170 7B68     		ldr	r3, [r7, #4]
 675 0172 03F47063 		and	r3, r3, #3840
 676 0176 B3F5807F 		cmp	r3, #256
 677 017a 2FD0     		beq	.L32
 678              	.L31:
 679              		.loc 1 206 3 discriminator 7
 680 017c FFF7FEFF 		bl	__errno
 681 0180 0346     		mov	r3, r0
 682              		.loc 1 206 3 discriminator 1
 683 0182 1B68     		ldr	r3, [r3]
 684 0184 002B     		cmp	r3, #0
 685 0186 08D0     		beq	.L33
 686              		.loc 1 206 3 discriminator 8
 687 0188 FFF7FEFF 		bl	__errno
 688 018c 0346     		mov	r3, r0
 689              		.loc 1 206 3 discriminator 1
 690 018e 1B68     		ldr	r3, [r3]
 691 0190 1846     		mov	r0, r3
 692 0192 FFF7FEFF 		bl	strerror
 693 0196 0346     		mov	r3, r0
 694 0198 00E0     		b	.L34
 695              	.L33:
 696              		.loc 1 206 3 discriminator 9
 697 019a 384B     		ldr	r3, .L74+20
 698              	.L34:
 699              		.loc 1 206 3 discriminator 11
 700 019c 7A68     		ldr	r2, [r7, #4]
 701 019e D2B2     		uxtb	r2, r2
 702 01a0 7968     		ldr	r1, [r7, #4]
ARM GAS  /tmp/ccxZaNgH.s 			page 28


 703 01a2 090B     		lsrs	r1, r1, #12
 704 01a4 01F00F01 		and	r1, r1, #15
 705 01a8 7868     		ldr	r0, [r7, #4]
 706 01aa 000A     		lsrs	r0, r0, #8
 707 01ac 00F00F00 		and	r0, r0, #15
 708 01b0 0124     		movs	r4, #1
 709 01b2 0694     		str	r4, [sp, #24]
 710 01b4 0124     		movs	r4, #1
 711 01b6 0594     		str	r4, [sp, #20]
 712 01b8 1C24     		movs	r4, #28
 713 01ba 0494     		str	r4, [sp, #16]
 714 01bc 0390     		str	r0, [sp, #12]
 715 01be 0291     		str	r1, [sp, #8]
 716 01c0 0192     		str	r2, [sp, #4]
 717 01c2 374A     		ldr	r2, .L74+56
 718 01c4 0092     		str	r2, [sp]
 719 01c6 CE22     		movs	r2, #206
 720 01c8 2E49     		ldr	r1, .L74+28
 721 01ca 2F48     		ldr	r0, .L74+32
 722 01cc FFF7FEFF 		bl	printf
 723              		.loc 1 206 3 discriminator 13
 724 01d0 2E4B     		ldr	r3, .L74+36
 725 01d2 2F4A     		ldr	r2, .L74+40
 726 01d4 CE21     		movs	r1, #206
 727 01d6 2B48     		ldr	r0, .L74+28
 728 01d8 FFF7FEFF 		bl	__assert_func
 729              	.L32:
 207:Lib/AI_Runtime/Npu/ll_aton/ll_aton.c **** #endif
 208:Lib/AI_Runtime/Npu/ll_aton/ll_aton.c **** 
 209:Lib/AI_Runtime/Npu/ll_aton/ll_aton.c **** #ifdef ATON_ARITH_NUM
 210:Lib/AI_Runtime/Npu/ll_aton/ll_aton.c ****   ASSERT_UNITS_VERS_W_MSG(ARITH, t);
 730              		.loc 1 210 3 is_stmt 1 discriminator 1
 731 01dc 314B     		ldr	r3, .L74+60
 732 01de 1B68     		ldr	r3, [r3]
 733 01e0 7B60     		str	r3, [r7, #4]
 734 01e2 7B68     		ldr	r3, [r7, #4]
 735 01e4 002B     		cmp	r3, #0
 736 01e6 F9D0     		beq	.L32
 737              		.loc 1 210 3 is_stmt 0 discriminator 2
 738 01e8 7B68     		ldr	r3, [r7, #4]
 739 01ea DBB2     		uxtb	r3, r3
 740 01ec 1A2B     		cmp	r3, #26
 741 01ee 0AD1     		bne	.L35
 742              		.loc 1 210 3 discriminator 4
 743 01f0 7B68     		ldr	r3, [r7, #4]
 744 01f2 03F47043 		and	r3, r3, #61440
 745 01f6 B3F5805F 		cmp	r3, #4096
 746 01fa 04D1     		bne	.L35
 747              		.loc 1 210 3 discriminator 6
 748 01fc 7B68     		ldr	r3, [r7, #4]
 749 01fe 03F47063 		and	r3, r3, #3840
 750 0202 002B     		cmp	r3, #0
 751 0204 52D0     		beq	.L36
 752              	.L35:
 753              		.loc 1 210 3 discriminator 7
 754 0206 FFF7FEFF 		bl	__errno
 755 020a 0346     		mov	r3, r0
ARM GAS  /tmp/ccxZaNgH.s 			page 29


 756              		.loc 1 210 3 discriminator 1
 757 020c 1B68     		ldr	r3, [r3]
 758 020e 002B     		cmp	r3, #0
 759 0210 08D0     		beq	.L37
 760              		.loc 1 210 3 discriminator 8
 761 0212 FFF7FEFF 		bl	__errno
 762 0216 0346     		mov	r3, r0
 763              		.loc 1 210 3 discriminator 1
 764 0218 1B68     		ldr	r3, [r3]
 765 021a 1846     		mov	r0, r3
 766 021c FFF7FEFF 		bl	strerror
 767 0220 0346     		mov	r3, r0
 768 0222 00E0     		b	.L38
 769              	.L37:
 770              		.loc 1 210 3 discriminator 9
 771 0224 154B     		ldr	r3, .L74+20
 772              	.L38:
 773              		.loc 1 210 3 discriminator 11
 774 0226 7A68     		ldr	r2, [r7, #4]
 775 0228 D2B2     		uxtb	r2, r2
 776 022a 7968     		ldr	r1, [r7, #4]
 777 022c 090B     		lsrs	r1, r1, #12
 778 022e 01F00F01 		and	r1, r1, #15
 779 0232 7868     		ldr	r0, [r7, #4]
 780 0234 000A     		lsrs	r0, r0, #8
 781 0236 00F00F00 		and	r0, r0, #15
 782 023a 0024     		movs	r4, #0
 783 023c 0694     		str	r4, [sp, #24]
 784 023e 0124     		movs	r4, #1
 785 0240 0594     		str	r4, [sp, #20]
 786 0242 1A24     		movs	r4, #26
 787 0244 0494     		str	r4, [sp, #16]
 788 0246 0390     		str	r0, [sp, #12]
 789 0248 0291     		str	r1, [sp, #8]
 790 024a 0192     		str	r2, [sp, #4]
 791 024c 164A     		ldr	r2, .L74+64
 792 024e 0092     		str	r2, [sp]
 793 0250 D222     		movs	r2, #210
 794 0252 0C49     		ldr	r1, .L74+28
 795 0254 0C48     		ldr	r0, .L74+32
 796 0256 FFF7FEFF 		bl	printf
 797              		.loc 1 210 3 discriminator 13
 798 025a 0C4B     		ldr	r3, .L74+36
 799 025c 0C4A     		ldr	r2, .L74+40
 800 025e D221     		movs	r1, #210
 801 0260 0848     		ldr	r0, .L74+28
 802 0262 FFF7FEFF 		bl	__assert_func
 803              	.L75:
 804 0266 00BF     		.align	2
 805              	.L74:
 806 0268 00000E58 		.word	1477312512
 807 026c 08000E58 		.word	1477312520
 808 0270 0C000E58 		.word	1477312524
 809 0274 10000E58 		.word	1477312528
 810 0278 04500E58 		.word	1477332996
 811 027c 38010000 		.word	.LC8
 812 0280 A4010000 		.word	.LC10
ARM GAS  /tmp/ccxZaNgH.s 			page 30


 813 0284 3C000000 		.word	.LC4
 814 0288 40010000 		.word	.LC9
 815 028c AC010000 		.word	.LC11
 816 0290 00000000 		.word	__func__.10
 817 0294 04F00E58 		.word	1477373956
 818 0298 B0010000 		.word	.LC12
 819 029c 04B00F58 		.word	1477423108
 820 02a0 B8010000 		.word	.LC13
 821 02a4 04700F58 		.word	1477406724
 822 02a8 C0010000 		.word	.LC14
 823              	.L36:
 211:Lib/AI_Runtime/Npu/ll_aton/ll_aton.c **** #endif
 212:Lib/AI_Runtime/Npu/ll_aton/ll_aton.c **** 
 213:Lib/AI_Runtime/Npu/ll_aton/ll_aton.c **** #ifdef ATON_ACTIV_NUM
 214:Lib/AI_Runtime/Npu/ll_aton/ll_aton.c ****   ASSERT_UNITS_VERS_W_MSG(ACTIV, t);
 824              		.loc 1 214 3 is_stmt 1 discriminator 1
 825 02ac 9E4B     		ldr	r3, .L76
 826 02ae 1B68     		ldr	r3, [r3]
 827 02b0 7B60     		str	r3, [r7, #4]
 828 02b2 7B68     		ldr	r3, [r7, #4]
 829 02b4 002B     		cmp	r3, #0
 830 02b6 F9D0     		beq	.L36
 831              		.loc 1 214 3 is_stmt 0 discriminator 2
 832 02b8 7B68     		ldr	r3, [r7, #4]
 833 02ba DBB2     		uxtb	r3, r3
 834 02bc 1B2B     		cmp	r3, #27
 835 02be 0BD1     		bne	.L39
 836              		.loc 1 214 3 discriminator 4
 837 02c0 7B68     		ldr	r3, [r7, #4]
 838 02c2 03F47043 		and	r3, r3, #61440
 839 02c6 B3F5805F 		cmp	r3, #4096
 840 02ca 05D1     		bne	.L39
 841              		.loc 1 214 3 discriminator 6
 842 02cc 7B68     		ldr	r3, [r7, #4]
 843 02ce 03F47063 		and	r3, r3, #3840
 844 02d2 B3F5807F 		cmp	r3, #256
 845 02d6 2FD0     		beq	.L40
 846              	.L39:
 847              		.loc 1 214 3 discriminator 7
 848 02d8 FFF7FEFF 		bl	__errno
 849 02dc 0346     		mov	r3, r0
 850              		.loc 1 214 3 discriminator 1
 851 02de 1B68     		ldr	r3, [r3]
 852 02e0 002B     		cmp	r3, #0
 853 02e2 08D0     		beq	.L41
 854              		.loc 1 214 3 discriminator 8
 855 02e4 FFF7FEFF 		bl	__errno
 856 02e8 0346     		mov	r3, r0
 857              		.loc 1 214 3 discriminator 1
 858 02ea 1B68     		ldr	r3, [r3]
 859 02ec 1846     		mov	r0, r3
 860 02ee FFF7FEFF 		bl	strerror
 861 02f2 0346     		mov	r3, r0
 862 02f4 00E0     		b	.L42
 863              	.L41:
 864              		.loc 1 214 3 discriminator 9
 865 02f6 8D4B     		ldr	r3, .L76+4
ARM GAS  /tmp/ccxZaNgH.s 			page 31


 866              	.L42:
 867              		.loc 1 214 3 discriminator 11
 868 02f8 7A68     		ldr	r2, [r7, #4]
 869 02fa D2B2     		uxtb	r2, r2
 870 02fc 7968     		ldr	r1, [r7, #4]
 871 02fe 090B     		lsrs	r1, r1, #12
 872 0300 01F00F01 		and	r1, r1, #15
 873 0304 7868     		ldr	r0, [r7, #4]
 874 0306 000A     		lsrs	r0, r0, #8
 875 0308 00F00F00 		and	r0, r0, #15
 876 030c 0124     		movs	r4, #1
 877 030e 0694     		str	r4, [sp, #24]
 878 0310 0124     		movs	r4, #1
 879 0312 0594     		str	r4, [sp, #20]
 880 0314 1B24     		movs	r4, #27
 881 0316 0494     		str	r4, [sp, #16]
 882 0318 0390     		str	r0, [sp, #12]
 883 031a 0291     		str	r1, [sp, #8]
 884 031c 0192     		str	r2, [sp, #4]
 885 031e 844A     		ldr	r2, .L76+8
 886 0320 0092     		str	r2, [sp]
 887 0322 D622     		movs	r2, #214
 888 0324 8349     		ldr	r1, .L76+12
 889 0326 8448     		ldr	r0, .L76+16
 890 0328 FFF7FEFF 		bl	printf
 891              		.loc 1 214 3 discriminator 13
 892 032c 834B     		ldr	r3, .L76+20
 893 032e 844A     		ldr	r2, .L76+24
 894 0330 D621     		movs	r1, #214
 895 0332 8048     		ldr	r0, .L76+12
 896 0334 FFF7FEFF 		bl	__assert_func
 897              	.L40:
 215:Lib/AI_Runtime/Npu/ll_aton/ll_aton.c **** #endif
 216:Lib/AI_Runtime/Npu/ll_aton/ll_aton.c **** 
 217:Lib/AI_Runtime/Npu/ll_aton/ll_aton.c **** #ifdef ATON_DECUN_NUM
 218:Lib/AI_Runtime/Npu/ll_aton/ll_aton.c ****   ASSERT_UNITS_VERS_W_MSG(DECUN, t);
 898              		.loc 1 218 3 is_stmt 1 discriminator 1
 899 0338 824B     		ldr	r3, .L76+28
 900 033a 1B68     		ldr	r3, [r3]
 901 033c 7B60     		str	r3, [r7, #4]
 902 033e 7B68     		ldr	r3, [r7, #4]
 903 0340 002B     		cmp	r3, #0
 904 0342 F9D0     		beq	.L40
 905              		.loc 1 218 3 is_stmt 0 discriminator 2
 906 0344 7B68     		ldr	r3, [r7, #4]
 907 0346 DBB2     		uxtb	r3, r3
 908 0348 192B     		cmp	r3, #25
 909 034a 0BD1     		bne	.L43
 910              		.loc 1 218 3 discriminator 4
 911 034c 7B68     		ldr	r3, [r7, #4]
 912 034e 03F47043 		and	r3, r3, #61440
 913 0352 B3F5805F 		cmp	r3, #4096
 914 0356 05D1     		bne	.L43
 915              		.loc 1 218 3 discriminator 6
 916 0358 7B68     		ldr	r3, [r7, #4]
 917 035a 03F47063 		and	r3, r3, #3840
 918 035e B3F5206F 		cmp	r3, #2560
ARM GAS  /tmp/ccxZaNgH.s 			page 32


 919 0362 2FD0     		beq	.L44
 920              	.L43:
 921              		.loc 1 218 3 discriminator 7
 922 0364 FFF7FEFF 		bl	__errno
 923 0368 0346     		mov	r3, r0
 924              		.loc 1 218 3 discriminator 1
 925 036a 1B68     		ldr	r3, [r3]
 926 036c 002B     		cmp	r3, #0
 927 036e 08D0     		beq	.L45
 928              		.loc 1 218 3 discriminator 8
 929 0370 FFF7FEFF 		bl	__errno
 930 0374 0346     		mov	r3, r0
 931              		.loc 1 218 3 discriminator 1
 932 0376 1B68     		ldr	r3, [r3]
 933 0378 1846     		mov	r0, r3
 934 037a FFF7FEFF 		bl	strerror
 935 037e 0346     		mov	r3, r0
 936 0380 00E0     		b	.L46
 937              	.L45:
 938              		.loc 1 218 3 discriminator 9
 939 0382 6A4B     		ldr	r3, .L76+4
 940              	.L46:
 941              		.loc 1 218 3 discriminator 11
 942 0384 7A68     		ldr	r2, [r7, #4]
 943 0386 D2B2     		uxtb	r2, r2
 944 0388 7968     		ldr	r1, [r7, #4]
 945 038a 090B     		lsrs	r1, r1, #12
 946 038c 01F00F01 		and	r1, r1, #15
 947 0390 7868     		ldr	r0, [r7, #4]
 948 0392 000A     		lsrs	r0, r0, #8
 949 0394 00F00F00 		and	r0, r0, #15
 950 0398 0A24     		movs	r4, #10
 951 039a 0694     		str	r4, [sp, #24]
 952 039c 0124     		movs	r4, #1
 953 039e 0594     		str	r4, [sp, #20]
 954 03a0 1924     		movs	r4, #25
 955 03a2 0494     		str	r4, [sp, #16]
 956 03a4 0390     		str	r0, [sp, #12]
 957 03a6 0291     		str	r1, [sp, #8]
 958 03a8 0192     		str	r2, [sp, #4]
 959 03aa 674A     		ldr	r2, .L76+32
 960 03ac 0092     		str	r2, [sp]
 961 03ae DA22     		movs	r2, #218
 962 03b0 6049     		ldr	r1, .L76+12
 963 03b2 6148     		ldr	r0, .L76+16
 964 03b4 FFF7FEFF 		bl	printf
 965              		.loc 1 218 3 discriminator 13
 966 03b8 604B     		ldr	r3, .L76+20
 967 03ba 614A     		ldr	r2, .L76+24
 968 03bc DA21     		movs	r1, #218
 969 03be 5D48     		ldr	r0, .L76+12
 970 03c0 FFF7FEFF 		bl	__assert_func
 971              	.L44:
 219:Lib/AI_Runtime/Npu/ll_aton/ll_aton.c **** #endif
 220:Lib/AI_Runtime/Npu/ll_aton/ll_aton.c **** 
 221:Lib/AI_Runtime/Npu/ll_aton/ll_aton.c **** #ifdef ATON_EPOCHCTRL_VERSION_TYPE_DT
 222:Lib/AI_Runtime/Npu/ll_aton/ll_aton.c ****   ASSERT_UNITS_VERS_W_MSG(EPOCHCTRL, t);
ARM GAS  /tmp/ccxZaNgH.s 			page 33


 972              		.loc 1 222 3 is_stmt 1 discriminator 1
 973 03c4 614B     		ldr	r3, .L76+36
 974 03c6 1B68     		ldr	r3, [r3]
 975 03c8 7B60     		str	r3, [r7, #4]
 976 03ca 7B68     		ldr	r3, [r7, #4]
 977 03cc 002B     		cmp	r3, #0
 978 03ce F9D0     		beq	.L44
 979              		.loc 1 222 3 is_stmt 0 discriminator 2
 980 03d0 7B68     		ldr	r3, [r7, #4]
 981 03d2 DBB2     		uxtb	r3, r3
 982 03d4 212B     		cmp	r3, #33
 983 03d6 0BD1     		bne	.L47
 984              		.loc 1 222 3 discriminator 4
 985 03d8 7B68     		ldr	r3, [r7, #4]
 986 03da 03F47043 		and	r3, r3, #61440
 987 03de B3F5805F 		cmp	r3, #4096
 988 03e2 05D1     		bne	.L47
 989              		.loc 1 222 3 discriminator 6
 990 03e4 7B68     		ldr	r3, [r7, #4]
 991 03e6 03F47063 		and	r3, r3, #3840
 992 03ea B3F5807F 		cmp	r3, #256
 993 03ee 2FD0     		beq	.L48
 994              	.L47:
 995              		.loc 1 222 3 discriminator 7
 996 03f0 FFF7FEFF 		bl	__errno
 997 03f4 0346     		mov	r3, r0
 998              		.loc 1 222 3 discriminator 1
 999 03f6 1B68     		ldr	r3, [r3]
 1000 03f8 002B     		cmp	r3, #0
 1001 03fa 08D0     		beq	.L49
 1002              		.loc 1 222 3 discriminator 8
 1003 03fc FFF7FEFF 		bl	__errno
 1004 0400 0346     		mov	r3, r0
 1005              		.loc 1 222 3 discriminator 1
 1006 0402 1B68     		ldr	r3, [r3]
 1007 0404 1846     		mov	r0, r3
 1008 0406 FFF7FEFF 		bl	strerror
 1009 040a 0346     		mov	r3, r0
 1010 040c 00E0     		b	.L50
 1011              	.L49:
 1012              		.loc 1 222 3 discriminator 9
 1013 040e 474B     		ldr	r3, .L76+4
 1014              	.L50:
 1015              		.loc 1 222 3 discriminator 11
 1016 0410 7A68     		ldr	r2, [r7, #4]
 1017 0412 D2B2     		uxtb	r2, r2
 1018 0414 7968     		ldr	r1, [r7, #4]
 1019 0416 090B     		lsrs	r1, r1, #12
 1020 0418 01F00F01 		and	r1, r1, #15
 1021 041c 7868     		ldr	r0, [r7, #4]
 1022 041e 000A     		lsrs	r0, r0, #8
 1023 0420 00F00F00 		and	r0, r0, #15
 1024 0424 0124     		movs	r4, #1
 1025 0426 0694     		str	r4, [sp, #24]
 1026 0428 0124     		movs	r4, #1
 1027 042a 0594     		str	r4, [sp, #20]
 1028 042c 2124     		movs	r4, #33
ARM GAS  /tmp/ccxZaNgH.s 			page 34


 1029 042e 0494     		str	r4, [sp, #16]
 1030 0430 0390     		str	r0, [sp, #12]
 1031 0432 0291     		str	r1, [sp, #8]
 1032 0434 0192     		str	r2, [sp, #4]
 1033 0436 464A     		ldr	r2, .L76+40
 1034 0438 0092     		str	r2, [sp]
 1035 043a DE22     		movs	r2, #222
 1036 043c 3D49     		ldr	r1, .L76+12
 1037 043e 3E48     		ldr	r0, .L76+16
 1038 0440 FFF7FEFF 		bl	printf
 1039              		.loc 1 222 3 discriminator 13
 1040 0444 3D4B     		ldr	r3, .L76+20
 1041 0446 3E4A     		ldr	r2, .L76+24
 1042 0448 DE21     		movs	r1, #222
 1043 044a 3A48     		ldr	r0, .L76+12
 1044 044c FFF7FEFF 		bl	__assert_func
 1045              	.L48:
 223:Lib/AI_Runtime/Npu/ll_aton/ll_aton.c **** #endif
 224:Lib/AI_Runtime/Npu/ll_aton/ll_aton.c **** 
 225:Lib/AI_Runtime/Npu/ll_aton/ll_aton.c **** #ifdef ATON_RECBUF_VERSION_TYPE_DT
 226:Lib/AI_Runtime/Npu/ll_aton/ll_aton.c ****   ASSERT_UNITS_VERS_W_MSG(RECBUF, t);
 1046              		.loc 1 226 3 is_stmt 1 discriminator 1
 1047 0450 404B     		ldr	r3, .L76+44
 1048 0452 1B68     		ldr	r3, [r3]
 1049 0454 7B60     		str	r3, [r7, #4]
 1050 0456 7B68     		ldr	r3, [r7, #4]
 1051 0458 002B     		cmp	r3, #0
 1052 045a F9D0     		beq	.L48
 1053              		.loc 1 226 3 is_stmt 0 discriminator 2
 1054 045c 7B68     		ldr	r3, [r7, #4]
 1055 045e DBB2     		uxtb	r3, r3
 1056 0460 202B     		cmp	r3, #32
 1057 0462 0BD1     		bne	.L51
 1058              		.loc 1 226 3 discriminator 4
 1059 0464 7B68     		ldr	r3, [r7, #4]
 1060 0466 03F47043 		and	r3, r3, #61440
 1061 046a B3F5405F 		cmp	r3, #12288
 1062 046e 05D1     		bne	.L51
 1063              		.loc 1 226 3 discriminator 6
 1064 0470 7B68     		ldr	r3, [r7, #4]
 1065 0472 03F47063 		and	r3, r3, #3840
 1066 0476 B3F5007F 		cmp	r3, #512
 1067 047a 2FD0     		beq	.L52
 1068              	.L51:
 1069              		.loc 1 226 3 discriminator 7
 1070 047c FFF7FEFF 		bl	__errno
 1071 0480 0346     		mov	r3, r0
 1072              		.loc 1 226 3 discriminator 1
 1073 0482 1B68     		ldr	r3, [r3]
 1074 0484 002B     		cmp	r3, #0
 1075 0486 08D0     		beq	.L53
 1076              		.loc 1 226 3 discriminator 8
 1077 0488 FFF7FEFF 		bl	__errno
 1078 048c 0346     		mov	r3, r0
 1079              		.loc 1 226 3 discriminator 1
 1080 048e 1B68     		ldr	r3, [r3]
 1081 0490 1846     		mov	r0, r3
ARM GAS  /tmp/ccxZaNgH.s 			page 35


 1082 0492 FFF7FEFF 		bl	strerror
 1083 0496 0346     		mov	r3, r0
 1084 0498 00E0     		b	.L54
 1085              	.L53:
 1086              		.loc 1 226 3 discriminator 9
 1087 049a 244B     		ldr	r3, .L76+4
 1088              	.L54:
 1089              		.loc 1 226 3 discriminator 11
 1090 049c 7A68     		ldr	r2, [r7, #4]
 1091 049e D2B2     		uxtb	r2, r2
 1092 04a0 7968     		ldr	r1, [r7, #4]
 1093 04a2 090B     		lsrs	r1, r1, #12
 1094 04a4 01F00F01 		and	r1, r1, #15
 1095 04a8 7868     		ldr	r0, [r7, #4]
 1096 04aa 000A     		lsrs	r0, r0, #8
 1097 04ac 00F00F00 		and	r0, r0, #15
 1098 04b0 0224     		movs	r4, #2
 1099 04b2 0694     		str	r4, [sp, #24]
 1100 04b4 0324     		movs	r4, #3
 1101 04b6 0594     		str	r4, [sp, #20]
 1102 04b8 2024     		movs	r4, #32
 1103 04ba 0494     		str	r4, [sp, #16]
 1104 04bc 0390     		str	r0, [sp, #12]
 1105 04be 0291     		str	r1, [sp, #8]
 1106 04c0 0192     		str	r2, [sp, #4]
 1107 04c2 254A     		ldr	r2, .L76+48
 1108 04c4 0092     		str	r2, [sp]
 1109 04c6 E222     		movs	r2, #226
 1110 04c8 1A49     		ldr	r1, .L76+12
 1111 04ca 1B48     		ldr	r0, .L76+16
 1112 04cc FFF7FEFF 		bl	printf
 1113              		.loc 1 226 3 discriminator 13
 1114 04d0 1A4B     		ldr	r3, .L76+20
 1115 04d2 1B4A     		ldr	r2, .L76+24
 1116 04d4 E221     		movs	r1, #226
 1117 04d6 1748     		ldr	r0, .L76+12
 1118 04d8 FFF7FEFF 		bl	__assert_func
 1119              	.L52:
 227:Lib/AI_Runtime/Npu/ll_aton/ll_aton.c **** #endif
 228:Lib/AI_Runtime/Npu/ll_aton/ll_aton.c **** 
 229:Lib/AI_Runtime/Npu/ll_aton/ll_aton.c **** #ifdef ATON_STRENG64_NUM
 230:Lib/AI_Runtime/Npu/ll_aton/ll_aton.c ****   ASSERT_UNITS_VERS_W_MSG(STRENG64, t);
 231:Lib/AI_Runtime/Npu/ll_aton/ll_aton.c **** #endif
 232:Lib/AI_Runtime/Npu/ll_aton/ll_aton.c **** 
 233:Lib/AI_Runtime/Npu/ll_aton/ll_aton.c **** #ifdef ATON_STRSWITCH64_NUM
 234:Lib/AI_Runtime/Npu/ll_aton/ll_aton.c ****   ASSERT_UNITS_VERS_W_MSG(STRSWITCH64, t);
 235:Lib/AI_Runtime/Npu/ll_aton/ll_aton.c **** #endif
 236:Lib/AI_Runtime/Npu/ll_aton/ll_aton.c **** 
 237:Lib/AI_Runtime/Npu/ll_aton/ll_aton.c **** #ifdef ATON_STRSWITCH_VC_NUM
 238:Lib/AI_Runtime/Npu/ll_aton/ll_aton.c ****   ASSERT_UNITS_VERS_W_MSG(STRSWITCH_VC, t);
 239:Lib/AI_Runtime/Npu/ll_aton/ll_aton.c **** #endif
 240:Lib/AI_Runtime/Npu/ll_aton/ll_aton.c **** 
 241:Lib/AI_Runtime/Npu/ll_aton/ll_aton.c **** #ifdef ATON_IMC_NUM
 242:Lib/AI_Runtime/Npu/ll_aton/ll_aton.c ****   ASSERT_UNITS_VERS_W_MSG(IMC, t);
 243:Lib/AI_Runtime/Npu/ll_aton/ll_aton.c **** #endif
 244:Lib/AI_Runtime/Npu/ll_aton/ll_aton.c **** 
 245:Lib/AI_Runtime/Npu/ll_aton/ll_aton.c ****   ASSERT_UNITS_VERS_W_MSG(CLKCTRL, t);
ARM GAS  /tmp/ccxZaNgH.s 			page 36


 1120              		.loc 1 245 3 is_stmt 1 discriminator 1
 1121 04dc 1F4B     		ldr	r3, .L76+52
 1122 04de 1B68     		ldr	r3, [r3]
 1123 04e0 7B60     		str	r3, [r7, #4]
 1124 04e2 7B68     		ldr	r3, [r7, #4]
 1125 04e4 002B     		cmp	r3, #0
 1126 04e6 F9D0     		beq	.L52
 1127              		.loc 1 245 3 is_stmt 0 discriminator 2
 1128 04e8 7B68     		ldr	r3, [r7, #4]
 1129 04ea DBB2     		uxtb	r3, r3
 1130 04ec 1F2B     		cmp	r3, #31
 1131 04ee 0BD1     		bne	.L55
 1132              		.loc 1 245 3 discriminator 4
 1133 04f0 7B68     		ldr	r3, [r7, #4]
 1134 04f2 03F47043 		and	r3, r3, #61440
 1135 04f6 B3F5805F 		cmp	r3, #4096
 1136 04fa 05D1     		bne	.L55
 1137              		.loc 1 245 3 discriminator 6
 1138 04fc 7B68     		ldr	r3, [r7, #4]
 1139 04fe 03F47063 		and	r3, r3, #3840
 1140 0502 B3F5007F 		cmp	r3, #512
 1141 0506 4CD0     		beq	.L56
 1142              	.L55:
 1143              		.loc 1 245 3 discriminator 7
 1144 0508 FFF7FEFF 		bl	__errno
 1145 050c 0346     		mov	r3, r0
 1146              		.loc 1 245 3 discriminator 1
 1147 050e 1B68     		ldr	r3, [r3]
 1148 0510 002B     		cmp	r3, #0
 1149 0512 25D0     		beq	.L57
 1150              		.loc 1 245 3 discriminator 8
 1151 0514 FFF7FEFF 		bl	__errno
 1152 0518 0346     		mov	r3, r0
 1153              		.loc 1 245 3 discriminator 1
 1154 051a 1B68     		ldr	r3, [r3]
 1155 051c 1846     		mov	r0, r3
 1156 051e FFF7FEFF 		bl	strerror
 1157 0522 0346     		mov	r3, r0
 1158 0524 1DE0     		b	.L58
 1159              	.L77:
 1160 0526 00BF     		.align	2
 1161              	.L76:
 1162 0528 04500F58 		.word	1477398532
 1163 052c 38010000 		.word	.LC8
 1164 0530 C8010000 		.word	.LC15
 1165 0534 3C000000 		.word	.LC4
 1166 0538 40010000 		.word	.LC9
 1167 053c AC010000 		.word	.LC11
 1168 0540 00000000 		.word	__func__.10
 1169 0544 04300F58 		.word	1477390340
 1170 0548 D0010000 		.word	.LC16
 1171 054c 04E00F58 		.word	1477435396
 1172 0550 D8010000 		.word	.LC17
 1173 0554 04D00F58 		.word	1477431300
 1174 0558 E4010000 		.word	.LC18
 1175 055c 04000E58 		.word	1477312516
 1176              	.L57:
ARM GAS  /tmp/ccxZaNgH.s 			page 37


 1177              		.loc 1 245 3 discriminator 9
 1178 0560 854B     		ldr	r3, .L78
 1179              	.L58:
 1180              		.loc 1 245 3 discriminator 11
 1181 0562 7A68     		ldr	r2, [r7, #4]
 1182 0564 D2B2     		uxtb	r2, r2
 1183 0566 7968     		ldr	r1, [r7, #4]
 1184 0568 090B     		lsrs	r1, r1, #12
 1185 056a 01F00F01 		and	r1, r1, #15
 1186 056e 7868     		ldr	r0, [r7, #4]
 1187 0570 000A     		lsrs	r0, r0, #8
 1188 0572 00F00F00 		and	r0, r0, #15
 1189 0576 0224     		movs	r4, #2
 1190 0578 0694     		str	r4, [sp, #24]
 1191 057a 0124     		movs	r4, #1
 1192 057c 0594     		str	r4, [sp, #20]
 1193 057e 1F24     		movs	r4, #31
 1194 0580 0494     		str	r4, [sp, #16]
 1195 0582 0390     		str	r0, [sp, #12]
 1196 0584 0291     		str	r1, [sp, #8]
 1197 0586 0192     		str	r2, [sp, #4]
 1198 0588 7C4A     		ldr	r2, .L78+4
 1199 058a 0092     		str	r2, [sp]
 1200 058c F522     		movs	r2, #245
 1201 058e 7C49     		ldr	r1, .L78+8
 1202 0590 7C48     		ldr	r0, .L78+12
 1203 0592 FFF7FEFF 		bl	printf
 1204              		.loc 1 245 3 discriminator 13
 1205 0596 7C4B     		ldr	r3, .L78+16
 1206 0598 7C4A     		ldr	r2, .L78+20
 1207 059a F521     		movs	r1, #245
 1208 059c 7848     		ldr	r0, .L78+8
 1209 059e FFF7FEFF 		bl	__assert_func
 1210              	.L56:
 246:Lib/AI_Runtime/Npu/ll_aton/ll_aton.c **** 
 247:Lib/AI_Runtime/Npu/ll_aton/ll_aton.c ****   ASSERT_UNITS_VERS_W_MSG(INTCTRL, t);
 1211              		.loc 1 247 3 is_stmt 1 discriminator 1
 1212 05a2 7B4B     		ldr	r3, .L78+24
 1213 05a4 1B68     		ldr	r3, [r3]
 1214 05a6 7B60     		str	r3, [r7, #4]
 1215 05a8 7B68     		ldr	r3, [r7, #4]
 1216 05aa 002B     		cmp	r3, #0
 1217 05ac F9D0     		beq	.L56
 1218              		.loc 1 247 3 is_stmt 0 discriminator 2
 1219 05ae 7B68     		ldr	r3, [r7, #4]
 1220 05b0 DBB2     		uxtb	r3, r3
 1221 05b2 1E2B     		cmp	r3, #30
 1222 05b4 0BD1     		bne	.L59
 1223              		.loc 1 247 3 discriminator 4
 1224 05b6 7B68     		ldr	r3, [r7, #4]
 1225 05b8 03F47043 		and	r3, r3, #61440
 1226 05bc B3F5805F 		cmp	r3, #4096
 1227 05c0 05D1     		bne	.L59
 1228              		.loc 1 247 3 discriminator 6
 1229 05c2 7B68     		ldr	r3, [r7, #4]
 1230 05c4 03F47063 		and	r3, r3, #3840
 1231 05c8 B3F5807F 		cmp	r3, #256
ARM GAS  /tmp/ccxZaNgH.s 			page 38


 1232 05cc 2FD0     		beq	.L60
 1233              	.L59:
 1234              		.loc 1 247 3 discriminator 7
 1235 05ce FFF7FEFF 		bl	__errno
 1236 05d2 0346     		mov	r3, r0
 1237              		.loc 1 247 3 discriminator 1
 1238 05d4 1B68     		ldr	r3, [r3]
 1239 05d6 002B     		cmp	r3, #0
 1240 05d8 08D0     		beq	.L61
 1241              		.loc 1 247 3 discriminator 8
 1242 05da FFF7FEFF 		bl	__errno
 1243 05de 0346     		mov	r3, r0
 1244              		.loc 1 247 3 discriminator 1
 1245 05e0 1B68     		ldr	r3, [r3]
 1246 05e2 1846     		mov	r0, r3
 1247 05e4 FFF7FEFF 		bl	strerror
 1248 05e8 0346     		mov	r3, r0
 1249 05ea 00E0     		b	.L62
 1250              	.L61:
 1251              		.loc 1 247 3 discriminator 9
 1252 05ec 624B     		ldr	r3, .L78
 1253              	.L62:
 1254              		.loc 1 247 3 discriminator 11
 1255 05ee 7A68     		ldr	r2, [r7, #4]
 1256 05f0 D2B2     		uxtb	r2, r2
 1257 05f2 7968     		ldr	r1, [r7, #4]
 1258 05f4 090B     		lsrs	r1, r1, #12
 1259 05f6 01F00F01 		and	r1, r1, #15
 1260 05fa 7868     		ldr	r0, [r7, #4]
 1261 05fc 000A     		lsrs	r0, r0, #8
 1262 05fe 00F00F00 		and	r0, r0, #15
 1263 0602 0124     		movs	r4, #1
 1264 0604 0694     		str	r4, [sp, #24]
 1265 0606 0124     		movs	r4, #1
 1266 0608 0594     		str	r4, [sp, #20]
 1267 060a 1E24     		movs	r4, #30
 1268 060c 0494     		str	r4, [sp, #16]
 1269 060e 0390     		str	r0, [sp, #12]
 1270 0610 0291     		str	r1, [sp, #8]
 1271 0612 0192     		str	r2, [sp, #4]
 1272 0614 5F4A     		ldr	r2, .L78+28
 1273 0616 0092     		str	r2, [sp]
 1274 0618 F722     		movs	r2, #247
 1275 061a 5949     		ldr	r1, .L78+8
 1276 061c 5948     		ldr	r0, .L78+12
 1277 061e FFF7FEFF 		bl	printf
 1278              		.loc 1 247 3 discriminator 13
 1279 0622 594B     		ldr	r3, .L78+16
 1280 0624 594A     		ldr	r2, .L78+20
 1281 0626 F721     		movs	r1, #247
 1282 0628 5548     		ldr	r0, .L78+8
 1283 062a FFF7FEFF 		bl	__assert_func
 1284              	.L60:
 248:Lib/AI_Runtime/Npu/ll_aton/ll_aton.c **** 
 249:Lib/AI_Runtime/Npu/ll_aton/ll_aton.c ****   ASSERT_UNITS_VERS_W_MSG(STRSWITCH, t);
 1285              		.loc 1 249 3 is_stmt 1 discriminator 1
 1286 062e 5A4B     		ldr	r3, .L78+32
ARM GAS  /tmp/ccxZaNgH.s 			page 39


 1287 0630 1B68     		ldr	r3, [r3]
 1288 0632 7B60     		str	r3, [r7, #4]
 1289 0634 7B68     		ldr	r3, [r7, #4]
 1290 0636 002B     		cmp	r3, #0
 1291 0638 F9D0     		beq	.L60
 1292              		.loc 1 249 3 is_stmt 0 discriminator 2
 1293 063a 7B68     		ldr	r3, [r7, #4]
 1294 063c DBB2     		uxtb	r3, r3
 1295 063e 002B     		cmp	r3, #0
 1296 0640 0BD1     		bne	.L63
 1297              		.loc 1 249 3 discriminator 4
 1298 0642 7B68     		ldr	r3, [r7, #4]
 1299 0644 03F47043 		and	r3, r3, #61440
 1300 0648 B3F5805F 		cmp	r3, #4096
 1301 064c 05D1     		bne	.L63
 1302              		.loc 1 249 3 discriminator 6
 1303 064e 7B68     		ldr	r3, [r7, #4]
 1304 0650 03F47063 		and	r3, r3, #3840
 1305 0654 B3F5C06F 		cmp	r3, #1536
 1306 0658 2FD0     		beq	.L64
 1307              	.L63:
 1308              		.loc 1 249 3 discriminator 7
 1309 065a FFF7FEFF 		bl	__errno
 1310 065e 0346     		mov	r3, r0
 1311              		.loc 1 249 3 discriminator 1
 1312 0660 1B68     		ldr	r3, [r3]
 1313 0662 002B     		cmp	r3, #0
 1314 0664 08D0     		beq	.L65
 1315              		.loc 1 249 3 discriminator 8
 1316 0666 FFF7FEFF 		bl	__errno
 1317 066a 0346     		mov	r3, r0
 1318              		.loc 1 249 3 discriminator 1
 1319 066c 1B68     		ldr	r3, [r3]
 1320 066e 1846     		mov	r0, r3
 1321 0670 FFF7FEFF 		bl	strerror
 1322 0674 0346     		mov	r3, r0
 1323 0676 00E0     		b	.L66
 1324              	.L65:
 1325              		.loc 1 249 3 discriminator 9
 1326 0678 3F4B     		ldr	r3, .L78
 1327              	.L66:
 1328              		.loc 1 249 3 discriminator 11
 1329 067a 7A68     		ldr	r2, [r7, #4]
 1330 067c D2B2     		uxtb	r2, r2
 1331 067e 7968     		ldr	r1, [r7, #4]
 1332 0680 090B     		lsrs	r1, r1, #12
 1333 0682 01F00F01 		and	r1, r1, #15
 1334 0686 7868     		ldr	r0, [r7, #4]
 1335 0688 000A     		lsrs	r0, r0, #8
 1336 068a 00F00F00 		and	r0, r0, #15
 1337 068e 0624     		movs	r4, #6
 1338 0690 0694     		str	r4, [sp, #24]
 1339 0692 0124     		movs	r4, #1
 1340 0694 0594     		str	r4, [sp, #20]
 1341 0696 0024     		movs	r4, #0
 1342 0698 0494     		str	r4, [sp, #16]
 1343 069a 0390     		str	r0, [sp, #12]
ARM GAS  /tmp/ccxZaNgH.s 			page 40


 1344 069c 0291     		str	r1, [sp, #8]
 1345 069e 0192     		str	r2, [sp, #4]
 1346 06a0 3E4A     		ldr	r2, .L78+36
 1347 06a2 0092     		str	r2, [sp]
 1348 06a4 F922     		movs	r2, #249
 1349 06a6 3649     		ldr	r1, .L78+8
 1350 06a8 3648     		ldr	r0, .L78+12
 1351 06aa FFF7FEFF 		bl	printf
 1352              		.loc 1 249 3 discriminator 13
 1353 06ae 364B     		ldr	r3, .L78+16
 1354 06b0 364A     		ldr	r2, .L78+20
 1355 06b2 F921     		movs	r1, #249
 1356 06b4 3248     		ldr	r0, .L78+8
 1357 06b6 FFF7FEFF 		bl	__assert_func
 1358              	.L64:
 250:Lib/AI_Runtime/Npu/ll_aton/ll_aton.c **** 
 251:Lib/AI_Runtime/Npu/ll_aton/ll_aton.c ****   ASSERT_UNITS_VERS_W_MSG(BUSIF, t);
 1359              		.loc 1 251 3 is_stmt 1 discriminator 1
 1360 06ba 394B     		ldr	r3, .L78+40
 1361 06bc 1B68     		ldr	r3, [r3]
 1362 06be 7B60     		str	r3, [r7, #4]
 1363 06c0 7B68     		ldr	r3, [r7, #4]
 1364 06c2 002B     		cmp	r3, #0
 1365 06c4 F9D0     		beq	.L64
 1366              		.loc 1 251 3 is_stmt 0 discriminator 2
 1367 06c6 7B68     		ldr	r3, [r7, #4]
 1368 06c8 DBB2     		uxtb	r3, r3
 1369 06ca 1D2B     		cmp	r3, #29
 1370 06cc 0AD1     		bne	.L67
 1371              		.loc 1 251 3 discriminator 4
 1372 06ce 7B68     		ldr	r3, [r7, #4]
 1373 06d0 03F47043 		and	r3, r3, #61440
 1374 06d4 B3F5A04F 		cmp	r3, #20480
 1375 06d8 04D1     		bne	.L67
 1376              		.loc 1 251 3 discriminator 6
 1377 06da 7B68     		ldr	r3, [r7, #4]
 1378 06dc 03F47063 		and	r3, r3, #3840
 1379 06e0 002B     		cmp	r3, #0
 1380 06e2 2FD0     		beq	.L68
 1381              	.L67:
 1382              		.loc 1 251 3 discriminator 7
 1383 06e4 FFF7FEFF 		bl	__errno
 1384 06e8 0346     		mov	r3, r0
 1385              		.loc 1 251 3 discriminator 1
 1386 06ea 1B68     		ldr	r3, [r3]
 1387 06ec 002B     		cmp	r3, #0
 1388 06ee 08D0     		beq	.L69
 1389              		.loc 1 251 3 discriminator 8
 1390 06f0 FFF7FEFF 		bl	__errno
 1391 06f4 0346     		mov	r3, r0
 1392              		.loc 1 251 3 discriminator 1
 1393 06f6 1B68     		ldr	r3, [r3]
 1394 06f8 1846     		mov	r0, r3
 1395 06fa FFF7FEFF 		bl	strerror
 1396 06fe 0346     		mov	r3, r0
 1397 0700 00E0     		b	.L70
 1398              	.L69:
ARM GAS  /tmp/ccxZaNgH.s 			page 41


 1399              		.loc 1 251 3 discriminator 9
 1400 0702 1D4B     		ldr	r3, .L78
 1401              	.L70:
 1402              		.loc 1 251 3 discriminator 11
 1403 0704 7A68     		ldr	r2, [r7, #4]
 1404 0706 D2B2     		uxtb	r2, r2
 1405 0708 7968     		ldr	r1, [r7, #4]
 1406 070a 090B     		lsrs	r1, r1, #12
 1407 070c 01F00F01 		and	r1, r1, #15
 1408 0710 7868     		ldr	r0, [r7, #4]
 1409 0712 000A     		lsrs	r0, r0, #8
 1410 0714 00F00F00 		and	r0, r0, #15
 1411 0718 0024     		movs	r4, #0
 1412 071a 0694     		str	r4, [sp, #24]
 1413 071c 0524     		movs	r4, #5
 1414 071e 0594     		str	r4, [sp, #20]
 1415 0720 1D24     		movs	r4, #29
 1416 0722 0494     		str	r4, [sp, #16]
 1417 0724 0390     		str	r0, [sp, #12]
 1418 0726 0291     		str	r1, [sp, #8]
 1419 0728 0192     		str	r2, [sp, #4]
 1420 072a 1E4A     		ldr	r2, .L78+44
 1421 072c 0092     		str	r2, [sp]
 1422 072e FB22     		movs	r2, #251
 1423 0730 1349     		ldr	r1, .L78+8
 1424 0732 1448     		ldr	r0, .L78+12
 1425 0734 FFF7FEFF 		bl	printf
 1426              		.loc 1 251 3 discriminator 13
 1427 0738 134B     		ldr	r3, .L78+16
 1428 073a 144A     		ldr	r2, .L78+20
 1429 073c FB21     		movs	r1, #251
 1430 073e 1048     		ldr	r0, .L78+8
 1431 0740 FFF7FEFF 		bl	__assert_func
 1432              	.L68:
 252:Lib/AI_Runtime/Npu/ll_aton/ll_aton.c **** 
 253:Lib/AI_Runtime/Npu/ll_aton/ll_aton.c ****   /* Enable Bus Interfaces */
 254:Lib/AI_Runtime/Npu/ll_aton/ll_aton.c ****   for (i = 0; i < ATON_BUSIF_NUM; i++)
 1433              		.loc 1 254 10 is_stmt 1
 1434 0744 0023     		movs	r3, #0
 1435 0746 3B60     		str	r3, [r7]
 1436              		.loc 1 254 3
 1437 0748 0AE0     		b	.L71
 1438              	.L72:
 255:Lib/AI_Runtime/Npu/ll_aton/ll_aton.c ****   {
 256:Lib/AI_Runtime/Npu/ll_aton/ll_aton.c ****     ATON_BUSIF_CTRL_SET(i, 1);
 1439              		.loc 1 256 5
 1440 074a 3B68     		ldr	r3, [r7]
 1441 074c 03F5B023 		add	r3, r3, #360448
 1442 0750 E233     		adds	r3, r3, #226
 1443 0752 1B03     		lsls	r3, r3, #12
 1444 0754 1A46     		mov	r2, r3
 1445 0756 0123     		movs	r3, #1
 1446 0758 1360     		str	r3, [r2]
 254:Lib/AI_Runtime/Npu/ll_aton/ll_aton.c ****   {
 1447              		.loc 1 254 36 discriminator 3
 1448 075a 3B68     		ldr	r3, [r7]
 1449 075c 0133     		adds	r3, r3, #1
ARM GAS  /tmp/ccxZaNgH.s 			page 42


 1450 075e 3B60     		str	r3, [r7]
 1451              	.L71:
 254:Lib/AI_Runtime/Npu/ll_aton/ll_aton.c ****   {
 1452              		.loc 1 254 17 discriminator 1
 1453 0760 3B68     		ldr	r3, [r7]
 1454 0762 012B     		cmp	r3, #1
 1455 0764 F1DD     		ble	.L72
 257:Lib/AI_Runtime/Npu/ll_aton/ll_aton.c ****   }
 258:Lib/AI_Runtime/Npu/ll_aton/ll_aton.c **** 
 259:Lib/AI_Runtime/Npu/ll_aton/ll_aton.c ****   /* Enable Interrupt Controller */
 260:Lib/AI_Runtime/Npu/ll_aton/ll_aton.c ****   ATON_INTCTRL_CTRL_SET(0, 1);
 1456              		.loc 1 260 3
 1457 0766 104B     		ldr	r3, .L78+48
 1458 0768 0122     		movs	r2, #1
 1459 076a 1A60     		str	r2, [r3]
 261:Lib/AI_Runtime/Npu/ll_aton/ll_aton.c **** 
 262:Lib/AI_Runtime/Npu/ll_aton/ll_aton.c ****   return 0;
 1460              		.loc 1 262 10
 1461 076c 0023     		movs	r3, #0
 263:Lib/AI_Runtime/Npu/ll_aton/ll_aton.c **** }
 1462              		.loc 1 263 1
 1463 076e 1846     		mov	r0, r3
 1464 0770 0C37     		adds	r7, r7, #12
 1465              		.cfi_def_cfa_offset 12
 1466 0772 BD46     		mov	sp, r7
 1467              		.cfi_def_cfa_register 13
 1468              		@ sp needed
 1469 0774 90BD     		pop	{r4, r7, pc}
 1470              	.L79:
 1471 0776 00BF     		.align	2
 1472              	.L78:
 1473 0778 38010000 		.word	.LC8
 1474 077c EC010000 		.word	.LC19
 1475 0780 3C000000 		.word	.LC4
 1476 0784 40010000 		.word	.LC9
 1477 0788 AC010000 		.word	.LC11
 1478 078c 00000000 		.word	__func__.10
 1479 0790 04100E58 		.word	1477316612
 1480 0794 F4010000 		.word	.LC20
 1481 0798 04400E58 		.word	1477328900
 1482 079c FC010000 		.word	.LC21
 1483 07a0 04200E58 		.word	1477320708
 1484 07a4 08020000 		.word	.LC22
 1485 07a8 00100E58 		.word	1477316608
 1486              		.cfi_endproc
 1487              	.LFE4825:
 1489              		.section	.text.LL_ATON_DeInit,"ax",%progbits
 1490              		.align	1
 1491              		.global	LL_ATON_DeInit
 1492              		.syntax unified
 1493              		.thumb
 1494              		.thumb_func
 1496              	LL_ATON_DeInit:
 1497              	.LFB4826:
 264:Lib/AI_Runtime/Npu/ll_aton/ll_aton.c **** 
 265:Lib/AI_Runtime/Npu/ll_aton/ll_aton.c **** /**
 266:Lib/AI_Runtime/Npu/ll_aton/ll_aton.c ****  * @brief  ATON global de-initialization. Must be called at the very end
ARM GAS  /tmp/ccxZaNgH.s 			page 43


 267:Lib/AI_Runtime/Npu/ll_aton/ll_aton.c ****  * @retval Always zero
 268:Lib/AI_Runtime/Npu/ll_aton/ll_aton.c ****  */
 269:Lib/AI_Runtime/Npu/ll_aton/ll_aton.c **** int LL_ATON_DeInit(void)
 270:Lib/AI_Runtime/Npu/ll_aton/ll_aton.c **** {
 1498              		.loc 1 270 1
 1499              		.cfi_startproc
 1500              		@ args = 0, pretend = 0, frame = 8
 1501              		@ frame_needed = 1, uses_anonymous_args = 0
 1502              		@ link register save eliminated.
 1503 0000 80B4     		push	{r7}
 1504              		.cfi_def_cfa_offset 4
 1505              		.cfi_offset 7, -4
 1506 0002 83B0     		sub	sp, sp, #12
 1507              		.cfi_def_cfa_offset 16
 1508 0004 00AF     		add	r7, sp, #0
 1509              		.cfi_def_cfa_register 7
 271:Lib/AI_Runtime/Npu/ll_aton/ll_aton.c ****   int i;
 272:Lib/AI_Runtime/Npu/ll_aton/ll_aton.c **** 
 273:Lib/AI_Runtime/Npu/ll_aton/ll_aton.c ****   /* Disable Interrupt Controller */
 274:Lib/AI_Runtime/Npu/ll_aton/ll_aton.c ****   ATON_INTCTRL_CTRL_SET(0, 0);
 1510              		.loc 1 274 3
 1511 0006 134B     		ldr	r3, .L84
 1512 0008 0022     		movs	r2, #0
 1513 000a 1A60     		str	r2, [r3]
 275:Lib/AI_Runtime/Npu/ll_aton/ll_aton.c **** 
 276:Lib/AI_Runtime/Npu/ll_aton/ll_aton.c ****   /* Disable Bus Interfaces */
 277:Lib/AI_Runtime/Npu/ll_aton/ll_aton.c ****   for (i = 0; i < ATON_BUSIF_NUM; i++)
 1514              		.loc 1 277 10
 1515 000c 0023     		movs	r3, #0
 1516 000e 7B60     		str	r3, [r7, #4]
 1517              		.loc 1 277 3
 1518 0010 0AE0     		b	.L81
 1519              	.L82:
 278:Lib/AI_Runtime/Npu/ll_aton/ll_aton.c ****   {
 279:Lib/AI_Runtime/Npu/ll_aton/ll_aton.c ****     ATON_BUSIF_CTRL_SET(i, 0);
 1520              		.loc 1 279 5
 1521 0012 7B68     		ldr	r3, [r7, #4]
 1522 0014 03F5B023 		add	r3, r3, #360448
 1523 0018 E233     		adds	r3, r3, #226
 1524 001a 1B03     		lsls	r3, r3, #12
 1525 001c 1A46     		mov	r2, r3
 1526 001e 0023     		movs	r3, #0
 1527 0020 1360     		str	r3, [r2]
 277:Lib/AI_Runtime/Npu/ll_aton/ll_aton.c ****   {
 1528              		.loc 1 277 36 discriminator 3
 1529 0022 7B68     		ldr	r3, [r7, #4]
 1530 0024 0133     		adds	r3, r3, #1
 1531 0026 7B60     		str	r3, [r7, #4]
 1532              	.L81:
 277:Lib/AI_Runtime/Npu/ll_aton/ll_aton.c ****   {
 1533              		.loc 1 277 17 discriminator 1
 1534 0028 7B68     		ldr	r3, [r7, #4]
 1535 002a 012B     		cmp	r3, #1
 1536 002c F1DD     		ble	.L82
 280:Lib/AI_Runtime/Npu/ll_aton/ll_aton.c ****   }
 281:Lib/AI_Runtime/Npu/ll_aton/ll_aton.c **** 
 282:Lib/AI_Runtime/Npu/ll_aton/ll_aton.c ****   /* Disable all ATON clocks */
ARM GAS  /tmp/ccxZaNgH.s 			page 44


 283:Lib/AI_Runtime/Npu/ll_aton/ll_aton.c ****   ATON_CLKCTRL_AGATES0_SET(0, 0);
 1537              		.loc 1 283 3
 1538 002e 0A4B     		ldr	r3, .L84+4
 1539 0030 0022     		movs	r2, #0
 1540 0032 1A60     		str	r2, [r3]
 284:Lib/AI_Runtime/Npu/ll_aton/ll_aton.c ****   ATON_CLKCTRL_AGATES1_SET(0, 0);
 1541              		.loc 1 284 3
 1542 0034 094B     		ldr	r3, .L84+8
 1543 0036 0022     		movs	r2, #0
 1544 0038 1A60     		str	r2, [r3]
 285:Lib/AI_Runtime/Npu/ll_aton/ll_aton.c ****   ATON_CLKCTRL_BGATES_SET(0, 0);
 1545              		.loc 1 285 3
 1546 003a 094B     		ldr	r3, .L84+12
 1547 003c 0022     		movs	r2, #0
 1548 003e 1A60     		str	r2, [r3]
 286:Lib/AI_Runtime/Npu/ll_aton/ll_aton.c **** #ifdef ATON_CLKCTRL_BGATES1_OFFSET
 287:Lib/AI_Runtime/Npu/ll_aton/ll_aton.c ****   ATON_CLKCTRL_BGATES1_SET(0, 0);
 288:Lib/AI_Runtime/Npu/ll_aton/ll_aton.c **** #endif
 289:Lib/AI_Runtime/Npu/ll_aton/ll_aton.c ****   ATON_CLKCTRL_CTRL_SET(0, 0);
 1549              		.loc 1 289 3
 1550 0040 084B     		ldr	r3, .L84+16
 1551 0042 0022     		movs	r2, #0
 1552 0044 1A60     		str	r2, [r3]
 290:Lib/AI_Runtime/Npu/ll_aton/ll_aton.c **** 
 291:Lib/AI_Runtime/Npu/ll_aton/ll_aton.c ****   return 0;
 1553              		.loc 1 291 10
 1554 0046 0023     		movs	r3, #0
 292:Lib/AI_Runtime/Npu/ll_aton/ll_aton.c **** }
 1555              		.loc 1 292 1
 1556 0048 1846     		mov	r0, r3
 1557 004a 0C37     		adds	r7, r7, #12
 1558              		.cfi_def_cfa_offset 4
 1559 004c BD46     		mov	sp, r7
 1560              		.cfi_def_cfa_register 13
 1561              		@ sp needed
 1562 004e 5DF8047B 		ldr	r7, [sp], #4
 1563              		.cfi_restore 7
 1564              		.cfi_def_cfa_offset 0
 1565 0052 7047     		bx	lr
 1566              	.L85:
 1567              		.align	2
 1568              	.L84:
 1569 0054 00100E58 		.word	1477316608
 1570 0058 08000E58 		.word	1477312520
 1571 005c 0C000E58 		.word	1477312524
 1572 0060 10000E58 		.word	1477312528
 1573 0064 00000E58 		.word	1477312512
 1574              		.cfi_endproc
 1575              	.LFE4826:
 1577              		.section	.text.LL_ATON_EnableUnits_Init,"ax",%progbits
 1578              		.align	1
 1579              		.global	LL_ATON_EnableUnits_Init
 1580              		.syntax unified
 1581              		.thumb
 1582              		.thumb_func
 1584              	LL_ATON_EnableUnits_Init:
 1585              	.LFB4827:
ARM GAS  /tmp/ccxZaNgH.s 			page 45


 293:Lib/AI_Runtime/Npu/ll_aton/ll_aton.c **** 
 294:Lib/AI_Runtime/Npu/ll_aton/ll_aton.c **** /**
 295:Lib/AI_Runtime/Npu/ll_aton/ll_aton.c ****  * @brief  Enables a set of ATON units
 296:Lib/AI_Runtime/Npu/ll_aton/ll_aton.c ****  * @param  LL_ATON_EnableUnits_InitStruct Array of units to enable
 297:Lib/AI_Runtime/Npu/ll_aton/ll_aton.c ****  * @param  n Lenght of the initialization array
 298:Lib/AI_Runtime/Npu/ll_aton/ll_aton.c ****  * @retval Error code
 299:Lib/AI_Runtime/Npu/ll_aton/ll_aton.c ****  * @todo   Add boundary checks
 300:Lib/AI_Runtime/Npu/ll_aton/ll_aton.c ****  */
 301:Lib/AI_Runtime/Npu/ll_aton/ll_aton.c **** int LL_ATON_EnableUnits_Init(const LL_ATON_EnableUnits_InitTypeDef *LL_ATON_EnableUnits_InitStruct,
 302:Lib/AI_Runtime/Npu/ll_aton/ll_aton.c **** {
 1586              		.loc 1 302 1
 1587              		.cfi_startproc
 1588              		@ args = 0, pretend = 0, frame = 48
 1589              		@ frame_needed = 1, uses_anonymous_args = 0
 1590              		@ link register save eliminated.
 1591 0000 80B4     		push	{r7}
 1592              		.cfi_def_cfa_offset 4
 1593              		.cfi_offset 7, -4
 1594 0002 8DB0     		sub	sp, sp, #52
 1595              		.cfi_def_cfa_offset 56
 1596 0004 00AF     		add	r7, sp, #0
 1597              		.cfi_def_cfa_register 7
 1598 0006 7860     		str	r0, [r7, #4]
 1599 0008 3960     		str	r1, [r7]
 303:Lib/AI_Runtime/Npu/ll_aton/ll_aton.c ****   int i;
 304:Lib/AI_Runtime/Npu/ll_aton/ll_aton.c ****   enum AccelUnitsType unitType;
 305:Lib/AI_Runtime/Npu/ll_aton/ll_aton.c ****   uint32_t unitId;
 306:Lib/AI_Runtime/Npu/ll_aton/ll_aton.c **** 
 307:Lib/AI_Runtime/Npu/ll_aton/ll_aton.c ****   for (i = 0; i < n; i++)
 1600              		.loc 1 307 10
 1601 000a 0023     		movs	r3, #0
 1602 000c FB62     		str	r3, [r7, #44]
 1603              		.loc 1 307 3
 1604 000e A8E0     		b	.L87
 1605              	.L98:
 308:Lib/AI_Runtime/Npu/ll_aton/ll_aton.c ****   {
 309:Lib/AI_Runtime/Npu/ll_aton/ll_aton.c ****     unitType = LL_ATON_EnableUnits_InitStruct[i].unit.unit_type;
 1606              		.loc 1 309 46
 1607 0010 FB6A     		ldr	r3, [r7, #44]
 1608 0012 9B00     		lsls	r3, r3, #2
 1609 0014 7A68     		ldr	r2, [r7, #4]
 1610 0016 1344     		add	r3, r3, r2
 1611              		.loc 1 309 14
 1612 0018 1B78     		ldrb	r3, [r3]
 1613 001a 87F82B30 		strb	r3, [r7, #43]
 310:Lib/AI_Runtime/Npu/ll_aton/ll_aton.c ****     unitId = LL_ATON_EnableUnits_InitStruct[i].unit.unit_num;
 1614              		.loc 1 310 44
 1615 001e FB6A     		ldr	r3, [r7, #44]
 1616 0020 9B00     		lsls	r3, r3, #2
 1617 0022 7A68     		ldr	r2, [r7, #4]
 1618 0024 1344     		add	r3, r3, r2
 1619              		.loc 1 310 52
 1620 0026 5B88     		ldrh	r3, [r3, #2]
 1621              		.loc 1 310 12
 1622 0028 7B62     		str	r3, [r7, #36]
 311:Lib/AI_Runtime/Npu/ll_aton/ll_aton.c **** 
 312:Lib/AI_Runtime/Npu/ll_aton/ll_aton.c ****     switch (unitType)
ARM GAS  /tmp/ccxZaNgH.s 			page 46


 1623              		.loc 1 312 5
 1624 002a 97F82B30 		ldrb	r3, [r7, #43]	@ zero_extendqisi2
 1625 002e 082B     		cmp	r3, #8
 1626 0030 00F29380 		bhi	.L100
 1627 0034 01A2     		adr	r2, .L90
 1628 0036 52F823F0 		ldr	pc, [r2, r3, lsl #2]
 1629 003a 00BF     		.p2align 2
 1630              	.L90:
 1631 003c 61000000 		.word	.L96+1
 1632 0040 5B010000 		.word	.L100+1
 1633 0044 89000000 		.word	.L95+1
 1634 0048 A5000000 		.word	.L94+1
 1635 004c CD000000 		.word	.L93+1
 1636 0050 F5000000 		.word	.L92+1
 1637 0054 1D010000 		.word	.L91+1
 1638 0058 5B010000 		.word	.L100+1
 1639 005c 45010000 		.word	.L89+1
 1640              		.p2align 1
 1641              	.L96:
 1642              	.LBB2:
 313:Lib/AI_Runtime/Npu/ll_aton/ll_aton.c ****     {
 314:Lib/AI_Runtime/Npu/ll_aton/ll_aton.c ****     case STRENG:
 315:Lib/AI_Runtime/Npu/ll_aton/ll_aton.c ****       ATON_ENABLE(STRENG, unitId);
 1643              		.loc 1 315 7
 1644 0060 7B6A     		ldr	r3, [r7, #36]
 1645 0062 03F5B023 		add	r3, r3, #360448
 1646 0066 E533     		adds	r3, r3, #229
 1647 0068 1B03     		lsls	r3, r3, #12
 1648 006a 1B68     		ldr	r3, [r3]
 1649 006c FB60     		str	r3, [r7, #12]
 1650 006e FB68     		ldr	r3, [r7, #12]
 1651 0070 43F00103 		orr	r3, r3, #1
 1652 0074 FB60     		str	r3, [r7, #12]
 1653 0076 7B6A     		ldr	r3, [r7, #36]
 1654 0078 03F5B023 		add	r3, r3, #360448
 1655 007c E533     		adds	r3, r3, #229
 1656 007e 1B03     		lsls	r3, r3, #12
 1657 0080 1A46     		mov	r2, r3
 1658 0082 FB68     		ldr	r3, [r7, #12]
 1659 0084 1360     		str	r3, [r2]
 1660              	.LBE2:
 316:Lib/AI_Runtime/Npu/ll_aton/ll_aton.c ****       break;
 1661              		.loc 1 316 7
 1662 0086 69E0     		b	.L97
 1663              	.L95:
 317:Lib/AI_Runtime/Npu/ll_aton/ll_aton.c **** 
 318:Lib/AI_Runtime/Npu/ll_aton/ll_aton.c **** #ifdef ATON_STRENG64_NUM
 319:Lib/AI_Runtime/Npu/ll_aton/ll_aton.c ****     case STRENG64:
 320:Lib/AI_Runtime/Npu/ll_aton/ll_aton.c ****       ATON_ENABLE(STRENG64, unitId);
 321:Lib/AI_Runtime/Npu/ll_aton/ll_aton.c ****       break;
 322:Lib/AI_Runtime/Npu/ll_aton/ll_aton.c **** #endif
 323:Lib/AI_Runtime/Npu/ll_aton/ll_aton.c **** 
 324:Lib/AI_Runtime/Npu/ll_aton/ll_aton.c **** #ifdef ATON_CONVACC_NUM
 325:Lib/AI_Runtime/Npu/ll_aton/ll_aton.c ****     case CONVACC:
 326:Lib/AI_Runtime/Npu/ll_aton/ll_aton.c **** #if 0
 327:Lib/AI_Runtime/Npu/ll_aton/ll_aton.c ****       ATON_ENABLE(CONVACC, unitId);
 328:Lib/AI_Runtime/Npu/ll_aton/ll_aton.c **** #else
ARM GAS  /tmp/ccxZaNgH.s 			page 47


 329:Lib/AI_Runtime/Npu/ll_aton/ll_aton.c ****       ATON_CONVACC_CTRL_SET(unitId, ATON_CONVACC_CTRL_SET_EN(Conv_ctrl_bits[unitId], 1));
 1664              		.loc 1 329 7
 1665 0088 3C4A     		ldr	r2, .L101
 1666 008a 7B6A     		ldr	r3, [r7, #36]
 1667 008c 52F82320 		ldr	r2, [r2, r3, lsl #2]
 1668 0090 7B6A     		ldr	r3, [r7, #36]
 1669 0092 03F5B023 		add	r3, r3, #360448
 1670 0096 EF33     		adds	r3, r3, #239
 1671 0098 1B03     		lsls	r3, r3, #12
 1672 009a 1946     		mov	r1, r3
 1673 009c 42F00103 		orr	r3, r2, #1
 1674 00a0 0B60     		str	r3, [r1]
 330:Lib/AI_Runtime/Npu/ll_aton/ll_aton.c **** #endif
 331:Lib/AI_Runtime/Npu/ll_aton/ll_aton.c ****       break;
 1675              		.loc 1 331 7
 1676 00a2 5BE0     		b	.L97
 1677              	.L94:
 1678              	.LBB3:
 332:Lib/AI_Runtime/Npu/ll_aton/ll_aton.c **** #endif
 333:Lib/AI_Runtime/Npu/ll_aton/ll_aton.c **** 
 334:Lib/AI_Runtime/Npu/ll_aton/ll_aton.c **** #ifdef ATON_DECUN_NUM
 335:Lib/AI_Runtime/Npu/ll_aton/ll_aton.c ****     case DECUN:
 336:Lib/AI_Runtime/Npu/ll_aton/ll_aton.c ****       ATON_ENABLE(DECUN, unitId);
 1679              		.loc 1 336 7
 1680 00a4 7B6A     		ldr	r3, [r7, #36]
 1681 00a6 03F5B023 		add	r3, r3, #360448
 1682 00aa F333     		adds	r3, r3, #243
 1683 00ac 1B03     		lsls	r3, r3, #12
 1684 00ae 1B68     		ldr	r3, [r3]
 1685 00b0 3B61     		str	r3, [r7, #16]
 1686 00b2 3B69     		ldr	r3, [r7, #16]
 1687 00b4 43F00103 		orr	r3, r3, #1
 1688 00b8 3B61     		str	r3, [r7, #16]
 1689 00ba 7B6A     		ldr	r3, [r7, #36]
 1690 00bc 03F5B023 		add	r3, r3, #360448
 1691 00c0 F333     		adds	r3, r3, #243
 1692 00c2 1B03     		lsls	r3, r3, #12
 1693 00c4 1A46     		mov	r2, r3
 1694 00c6 3B69     		ldr	r3, [r7, #16]
 1695 00c8 1360     		str	r3, [r2]
 1696              	.LBE3:
 337:Lib/AI_Runtime/Npu/ll_aton/ll_aton.c ****       break;
 1697              		.loc 1 337 7
 1698 00ca 47E0     		b	.L97
 1699              	.L93:
 1700              	.LBB4:
 338:Lib/AI_Runtime/Npu/ll_aton/ll_aton.c **** #endif
 339:Lib/AI_Runtime/Npu/ll_aton/ll_aton.c **** 
 340:Lib/AI_Runtime/Npu/ll_aton/ll_aton.c **** #ifdef ATON_ACTIV_NUM
 341:Lib/AI_Runtime/Npu/ll_aton/ll_aton.c ****     case ACTIV:
 342:Lib/AI_Runtime/Npu/ll_aton/ll_aton.c ****       ATON_ENABLE(ACTIV, unitId);
 1701              		.loc 1 342 7
 1702 00cc 7B6A     		ldr	r3, [r7, #36]
 1703 00ce 03F5B023 		add	r3, r3, #360448
 1704 00d2 F533     		adds	r3, r3, #245
 1705 00d4 1B03     		lsls	r3, r3, #12
 1706 00d6 1B68     		ldr	r3, [r3]
ARM GAS  /tmp/ccxZaNgH.s 			page 48


 1707 00d8 7B61     		str	r3, [r7, #20]
 1708 00da 7B69     		ldr	r3, [r7, #20]
 1709 00dc 43F00103 		orr	r3, r3, #1
 1710 00e0 7B61     		str	r3, [r7, #20]
 1711 00e2 7B6A     		ldr	r3, [r7, #36]
 1712 00e4 03F5B023 		add	r3, r3, #360448
 1713 00e8 F533     		adds	r3, r3, #245
 1714 00ea 1B03     		lsls	r3, r3, #12
 1715 00ec 1A46     		mov	r2, r3
 1716 00ee 7B69     		ldr	r3, [r7, #20]
 1717 00f0 1360     		str	r3, [r2]
 1718              	.LBE4:
 343:Lib/AI_Runtime/Npu/ll_aton/ll_aton.c ****       break;
 1719              		.loc 1 343 7
 1720 00f2 33E0     		b	.L97
 1721              	.L92:
 1722              	.LBB5:
 344:Lib/AI_Runtime/Npu/ll_aton/ll_aton.c **** #endif
 345:Lib/AI_Runtime/Npu/ll_aton/ll_aton.c **** 
 346:Lib/AI_Runtime/Npu/ll_aton/ll_aton.c **** #ifdef ATON_ARITH_NUM
 347:Lib/AI_Runtime/Npu/ll_aton/ll_aton.c ****     case ARITH:
 348:Lib/AI_Runtime/Npu/ll_aton/ll_aton.c ****       ATON_ENABLE(ARITH, unitId);
 1723              		.loc 1 348 7
 1724 00f4 7B6A     		ldr	r3, [r7, #36]
 1725 00f6 03F5B023 		add	r3, r3, #360448
 1726 00fa F733     		adds	r3, r3, #247
 1727 00fc 1B03     		lsls	r3, r3, #12
 1728 00fe 1B68     		ldr	r3, [r3]
 1729 0100 BB61     		str	r3, [r7, #24]
 1730 0102 BB69     		ldr	r3, [r7, #24]
 1731 0104 43F00103 		orr	r3, r3, #1
 1732 0108 BB61     		str	r3, [r7, #24]
 1733 010a 7B6A     		ldr	r3, [r7, #36]
 1734 010c 03F5B023 		add	r3, r3, #360448
 1735 0110 F733     		adds	r3, r3, #247
 1736 0112 1B03     		lsls	r3, r3, #12
 1737 0114 1A46     		mov	r2, r3
 1738 0116 BB69     		ldr	r3, [r7, #24]
 1739 0118 1360     		str	r3, [r2]
 1740              	.LBE5:
 349:Lib/AI_Runtime/Npu/ll_aton/ll_aton.c ****       break;
 1741              		.loc 1 349 7
 1742 011a 1FE0     		b	.L97
 1743              	.L91:
 1744              	.LBB6:
 350:Lib/AI_Runtime/Npu/ll_aton/ll_aton.c **** #endif
 351:Lib/AI_Runtime/Npu/ll_aton/ll_aton.c **** 
 352:Lib/AI_Runtime/Npu/ll_aton/ll_aton.c **** #ifdef ATON_POOL_NUM
 353:Lib/AI_Runtime/Npu/ll_aton/ll_aton.c ****     case POOL:
 354:Lib/AI_Runtime/Npu/ll_aton/ll_aton.c **** #ifdef POOL_RC14
 355:Lib/AI_Runtime/Npu/ll_aton/ll_aton.c ****       ATON_POOL_CTRL_SET(unitId, ATON_POOL_CTRL_SET_EN(ATON_POOL_CTRL_GET(unitId), 1));
 356:Lib/AI_Runtime/Npu/ll_aton/ll_aton.c **** #else  // !POOL_RC14
 357:Lib/AI_Runtime/Npu/ll_aton/ll_aton.c ****       ATON_ENABLE(POOL, unitId);
 1745              		.loc 1 357 7
 1746 011c 7B6A     		ldr	r3, [r7, #36]
 1747 011e 03F5B023 		add	r3, r3, #360448
 1748 0122 FB33     		adds	r3, r3, #251
ARM GAS  /tmp/ccxZaNgH.s 			page 49


 1749 0124 1B03     		lsls	r3, r3, #12
 1750 0126 1B68     		ldr	r3, [r3]
 1751 0128 FB61     		str	r3, [r7, #28]
 1752 012a FB69     		ldr	r3, [r7, #28]
 1753 012c 43F00103 		orr	r3, r3, #1
 1754 0130 FB61     		str	r3, [r7, #28]
 1755 0132 7B6A     		ldr	r3, [r7, #36]
 1756 0134 03F5B023 		add	r3, r3, #360448
 1757 0138 FB33     		adds	r3, r3, #251
 1758 013a 1B03     		lsls	r3, r3, #12
 1759 013c 1A46     		mov	r2, r3
 1760 013e FB69     		ldr	r3, [r7, #28]
 1761 0140 1360     		str	r3, [r2]
 1762              	.LBE6:
 358:Lib/AI_Runtime/Npu/ll_aton/ll_aton.c **** #endif // !POOL_RC14
 359:Lib/AI_Runtime/Npu/ll_aton/ll_aton.c ****       break;
 1763              		.loc 1 359 7
 1764 0142 0BE0     		b	.L97
 1765              	.L89:
 1766              	.LBB7:
 360:Lib/AI_Runtime/Npu/ll_aton/ll_aton.c **** #endif
 361:Lib/AI_Runtime/Npu/ll_aton/ll_aton.c **** #ifdef ATON_RECBUF_NUM
 362:Lib/AI_Runtime/Npu/ll_aton/ll_aton.c ****     case RECBUF:
 363:Lib/AI_Runtime/Npu/ll_aton/ll_aton.c ****       ATON_ENABLE(RECBUF, unitId);
 1767              		.loc 1 363 7
 1768 0144 0E4B     		ldr	r3, .L101+4
 1769 0146 1B68     		ldr	r3, [r3]
 1770 0148 3B62     		str	r3, [r7, #32]
 1771 014a 3B6A     		ldr	r3, [r7, #32]
 1772 014c 43F00103 		orr	r3, r3, #1
 1773 0150 3B62     		str	r3, [r7, #32]
 1774 0152 0B4A     		ldr	r2, .L101+4
 1775 0154 3B6A     		ldr	r3, [r7, #32]
 1776 0156 1360     		str	r3, [r2]
 1777              	.LBE7:
 364:Lib/AI_Runtime/Npu/ll_aton/ll_aton.c ****       break;
 1778              		.loc 1 364 7
 1779 0158 00E0     		b	.L97
 1780              	.L100:
 365:Lib/AI_Runtime/Npu/ll_aton/ll_aton.c **** #endif
 366:Lib/AI_Runtime/Npu/ll_aton/ll_aton.c **** 
 367:Lib/AI_Runtime/Npu/ll_aton/ll_aton.c ****     default:
 368:Lib/AI_Runtime/Npu/ll_aton/ll_aton.c ****       break;
 1781              		.loc 1 368 7
 1782 015a 00BF     		nop
 1783              	.L97:
 307:Lib/AI_Runtime/Npu/ll_aton/ll_aton.c ****   {
 1784              		.loc 1 307 23 discriminator 2
 1785 015c FB6A     		ldr	r3, [r7, #44]
 1786 015e 0133     		adds	r3, r3, #1
 1787 0160 FB62     		str	r3, [r7, #44]
 1788              	.L87:
 307:Lib/AI_Runtime/Npu/ll_aton/ll_aton.c ****   {
 1789              		.loc 1 307 17 discriminator 1
 1790 0162 FA6A     		ldr	r2, [r7, #44]
 1791 0164 3B68     		ldr	r3, [r7]
 1792 0166 9A42     		cmp	r2, r3
ARM GAS  /tmp/ccxZaNgH.s 			page 50


 1793 0168 FFF652AF 		blt	.L98
 369:Lib/AI_Runtime/Npu/ll_aton/ll_aton.c ****     }
 370:Lib/AI_Runtime/Npu/ll_aton/ll_aton.c ****   }
 371:Lib/AI_Runtime/Npu/ll_aton/ll_aton.c **** 
 372:Lib/AI_Runtime/Npu/ll_aton/ll_aton.c ****   return 0;
 1794              		.loc 1 372 10
 1795 016c 0023     		movs	r3, #0
 373:Lib/AI_Runtime/Npu/ll_aton/ll_aton.c **** }
 1796              		.loc 1 373 1
 1797 016e 1846     		mov	r0, r3
 1798 0170 3437     		adds	r7, r7, #52
 1799              		.cfi_def_cfa_offset 4
 1800 0172 BD46     		mov	sp, r7
 1801              		.cfi_def_cfa_register 13
 1802              		@ sp needed
 1803 0174 5DF8047B 		ldr	r7, [sp], #4
 1804              		.cfi_restore 7
 1805              		.cfi_def_cfa_offset 0
 1806 0178 7047     		bx	lr
 1807              	.L102:
 1808 017a 00BF     		.align	2
 1809              	.L101:
 1810 017c 00000000 		.word	Conv_ctrl_bits
 1811 0180 00D00F58 		.word	1477431296
 1812              		.cfi_endproc
 1813              	.LFE4827:
 1815              		.section	.text.LL_ATON_DisableUnits_Init,"ax",%progbits
 1816              		.align	1
 1817              		.global	LL_ATON_DisableUnits_Init
 1818              		.syntax unified
 1819              		.thumb
 1820              		.thumb_func
 1822              	LL_ATON_DisableUnits_Init:
 1823              	.LFB4828:
 374:Lib/AI_Runtime/Npu/ll_aton/ll_aton.c **** 
 375:Lib/AI_Runtime/Npu/ll_aton/ll_aton.c **** /**
 376:Lib/AI_Runtime/Npu/ll_aton/ll_aton.c ****  * @brief  Disables a set of ATON units
 377:Lib/AI_Runtime/Npu/ll_aton/ll_aton.c ****  * @param  LL_ATON_DisableUnits_InitTypeDef Array of units to disable
 378:Lib/AI_Runtime/Npu/ll_aton/ll_aton.c ****  * @param  n Length of the initialization array
 379:Lib/AI_Runtime/Npu/ll_aton/ll_aton.c ****  * @retval Error code
 380:Lib/AI_Runtime/Npu/ll_aton/ll_aton.c ****  */
 381:Lib/AI_Runtime/Npu/ll_aton/ll_aton.c **** int LL_ATON_DisableUnits_Init(const LL_ATON_DisableUnits_InitTypeDef *LL_ATON_DisableUnits_InitStru
 382:Lib/AI_Runtime/Npu/ll_aton/ll_aton.c **** {
 1824              		.loc 1 382 1
 1825              		.cfi_startproc
 1826              		@ args = 0, pretend = 0, frame = 24
 1827              		@ frame_needed = 1, uses_anonymous_args = 0
 1828 0000 80B5     		push	{r7, lr}
 1829              		.cfi_def_cfa_offset 8
 1830              		.cfi_offset 7, -8
 1831              		.cfi_offset 14, -4
 1832 0002 86B0     		sub	sp, sp, #24
 1833              		.cfi_def_cfa_offset 32
 1834 0004 00AF     		add	r7, sp, #0
 1835              		.cfi_def_cfa_register 7
 1836 0006 7860     		str	r0, [r7, #4]
 1837 0008 3960     		str	r1, [r7]
ARM GAS  /tmp/ccxZaNgH.s 			page 51


 383:Lib/AI_Runtime/Npu/ll_aton/ll_aton.c ****   int i;
 384:Lib/AI_Runtime/Npu/ll_aton/ll_aton.c ****   enum AccelUnitsType unitType;
 385:Lib/AI_Runtime/Npu/ll_aton/ll_aton.c ****   uint32_t unitId;
 386:Lib/AI_Runtime/Npu/ll_aton/ll_aton.c ****   uint32_t t;
 387:Lib/AI_Runtime/Npu/ll_aton/ll_aton.c **** 
 388:Lib/AI_Runtime/Npu/ll_aton/ll_aton.c ****   for (i = 0; i < n; i++)
 1838              		.loc 1 388 10
 1839 000a 0023     		movs	r3, #0
 1840 000c 7B61     		str	r3, [r7, #20]
 1841              		.loc 1 388 3
 1842 000e B1E1     		b	.L104
 1843              	.L130:
 389:Lib/AI_Runtime/Npu/ll_aton/ll_aton.c ****   {
 390:Lib/AI_Runtime/Npu/ll_aton/ll_aton.c ****     unitType = LL_ATON_DisableUnits_InitStruct[i].unit.unit_type;
 1844              		.loc 1 390 47
 1845 0010 7B69     		ldr	r3, [r7, #20]
 1846 0012 9B00     		lsls	r3, r3, #2
 1847 0014 7A68     		ldr	r2, [r7, #4]
 1848 0016 1344     		add	r3, r3, r2
 1849              		.loc 1 390 14
 1850 0018 1B78     		ldrb	r3, [r3]
 1851 001a FB74     		strb	r3, [r7, #19]
 391:Lib/AI_Runtime/Npu/ll_aton/ll_aton.c ****     unitId = LL_ATON_DisableUnits_InitStruct[i].unit.unit_num;
 1852              		.loc 1 391 45
 1853 001c 7B69     		ldr	r3, [r7, #20]
 1854 001e 9B00     		lsls	r3, r3, #2
 1855 0020 7A68     		ldr	r2, [r7, #4]
 1856 0022 1344     		add	r3, r3, r2
 1857              		.loc 1 391 53
 1858 0024 5B88     		ldrh	r3, [r3, #2]
 1859              		.loc 1 391 12
 1860 0026 FB60     		str	r3, [r7, #12]
 392:Lib/AI_Runtime/Npu/ll_aton/ll_aton.c **** 
 393:Lib/AI_Runtime/Npu/ll_aton/ll_aton.c ****     switch (unitType)
 1861              		.loc 1 393 5
 1862 0028 FB7C     		ldrb	r3, [r7, #19]	@ zero_extendqisi2
 1863 002a 082B     		cmp	r3, #8
 1864 002c 00F29C81 		bhi	.L105
 1865 0030 01A2     		adr	r2, .L107
 1866 0032 52F823F0 		ldr	pc, [r2, r3, lsl #2]
 1867 0036 00BF     		.p2align 2
 1868              	.L107:
 1869 0038 5D000000 		.word	.L113+1
 1870 003c 69030000 		.word	.L105+1
 1871 0040 CD000000 		.word	.L112+1
 1872 0044 41010000 		.word	.L111+1
 1873 0048 B5010000 		.word	.L110+1
 1874 004c 29020000 		.word	.L109+1
 1875 0050 A1020000 		.word	.L108+1
 1876 0054 69030000 		.word	.L105+1
 1877 0058 19030000 		.word	.L106+1
 1878              		.p2align 1
 1879              	.L113:
 394:Lib/AI_Runtime/Npu/ll_aton/ll_aton.c ****     {
 395:Lib/AI_Runtime/Npu/ll_aton/ll_aton.c **** #ifdef ATON_STRENG_NUM
 396:Lib/AI_Runtime/Npu/ll_aton/ll_aton.c ****     case STRENG:
 397:Lib/AI_Runtime/Npu/ll_aton/ll_aton.c ****       ATON_DISABLE_CLR_CONFCLR(STRENG, unitId);
ARM GAS  /tmp/ccxZaNgH.s 			page 52


 1880              		.loc 1 397 7
 1881 005c 0023     		movs	r3, #0
 1882 005e BB60     		str	r3, [r7, #8]
 1883 0060 BB68     		ldr	r3, [r7, #8]
 1884 0062 23F00103 		bic	r3, r3, #1
 1885 0066 BB60     		str	r3, [r7, #8]
 1886 0068 BB68     		ldr	r3, [r7, #8]
 1887 006a 43F00203 		orr	r3, r3, #2
 1888 006e BB60     		str	r3, [r7, #8]
 1889 0070 FB68     		ldr	r3, [r7, #12]
 1890 0072 03F5B023 		add	r3, r3, #360448
 1891 0076 E533     		adds	r3, r3, #229
 1892 0078 1B03     		lsls	r3, r3, #12
 1893 007a 1A46     		mov	r2, r3
 1894 007c BB68     		ldr	r3, [r7, #8]
 1895 007e 1360     		str	r3, [r2]
 1896              	.L114:
 1897              		.loc 1 397 7 is_stmt 0 discriminator 2
 1898 0080 FB68     		ldr	r3, [r7, #12]
 1899 0082 03F5B023 		add	r3, r3, #360448
 1900 0086 E533     		adds	r3, r3, #229
 1901 0088 1B03     		lsls	r3, r3, #12
 1902 008a 1B68     		ldr	r3, [r3]
 1903 008c 03F00203 		and	r3, r3, #2
 1904 0090 002B     		cmp	r3, #0
 1905 0092 F5D1     		bne	.L114
 1906              		.loc 1 397 7 discriminator 3
 1907 0094 0023     		movs	r3, #0
 1908 0096 BB60     		str	r3, [r7, #8]
 1909 0098 BB68     		ldr	r3, [r7, #8]
 1910 009a 43F08043 		orr	r3, r3, #1073741824
 1911 009e BB60     		str	r3, [r7, #8]
 1912 00a0 FB68     		ldr	r3, [r7, #12]
 1913 00a2 03F5B023 		add	r3, r3, #360448
 1914 00a6 E533     		adds	r3, r3, #229
 1915 00a8 1B03     		lsls	r3, r3, #12
 1916 00aa 1A46     		mov	r2, r3
 1917 00ac BB68     		ldr	r3, [r7, #8]
 1918 00ae 1360     		str	r3, [r2]
 1919              	.L115:
 1920              		.loc 1 397 7 discriminator 5
 1921 00b0 FB68     		ldr	r3, [r7, #12]
 1922 00b2 03F5B023 		add	r3, r3, #360448
 1923 00b6 E533     		adds	r3, r3, #229
 1924 00b8 1B03     		lsls	r3, r3, #12
 1925 00ba 1B68     		ldr	r3, [r3]
 1926 00bc 03F08043 		and	r3, r3, #1073741824
 1927 00c0 002B     		cmp	r3, #0
 1928 00c2 F5D1     		bne	.L115
 398:Lib/AI_Runtime/Npu/ll_aton/ll_aton.c ****       LL_ATON_DisableClock(ATON_STRENG_CLKB_CLK(unitId));
 1929              		.loc 1 398 7 is_stmt 1
 1930 00c4 F868     		ldr	r0, [r7, #12]
 1931 00c6 FFF7FEFF 		bl	LL_ATON_DisableClock
 399:Lib/AI_Runtime/Npu/ll_aton/ll_aton.c ****       break;
 1932              		.loc 1 399 7
 1933 00ca 50E1     		b	.L116
 1934              	.L112:
ARM GAS  /tmp/ccxZaNgH.s 			page 53


 400:Lib/AI_Runtime/Npu/ll_aton/ll_aton.c **** #endif
 401:Lib/AI_Runtime/Npu/ll_aton/ll_aton.c **** 
 402:Lib/AI_Runtime/Npu/ll_aton/ll_aton.c **** #ifdef ATON_CONVACC_NUM
 403:Lib/AI_Runtime/Npu/ll_aton/ll_aton.c ****     case CONVACC:
 404:Lib/AI_Runtime/Npu/ll_aton/ll_aton.c ****       ATON_DISABLE_CLR_CONFCLR(CONVACC, unitId);
 1935              		.loc 1 404 7
 1936 00cc 0023     		movs	r3, #0
 1937 00ce BB60     		str	r3, [r7, #8]
 1938 00d0 BB68     		ldr	r3, [r7, #8]
 1939 00d2 23F00103 		bic	r3, r3, #1
 1940 00d6 BB60     		str	r3, [r7, #8]
 1941 00d8 BB68     		ldr	r3, [r7, #8]
 1942 00da 43F00203 		orr	r3, r3, #2
 1943 00de BB60     		str	r3, [r7, #8]
 1944 00e0 FB68     		ldr	r3, [r7, #12]
 1945 00e2 03F5B023 		add	r3, r3, #360448
 1946 00e6 EF33     		adds	r3, r3, #239
 1947 00e8 1B03     		lsls	r3, r3, #12
 1948 00ea 1A46     		mov	r2, r3
 1949 00ec BB68     		ldr	r3, [r7, #8]
 1950 00ee 1360     		str	r3, [r2]
 1951              	.L117:
 1952              		.loc 1 404 7 is_stmt 0 discriminator 2
 1953 00f0 FB68     		ldr	r3, [r7, #12]
 1954 00f2 03F5B023 		add	r3, r3, #360448
 1955 00f6 EF33     		adds	r3, r3, #239
 1956 00f8 1B03     		lsls	r3, r3, #12
 1957 00fa 1B68     		ldr	r3, [r3]
 1958 00fc 03F00203 		and	r3, r3, #2
 1959 0100 002B     		cmp	r3, #0
 1960 0102 F5D1     		bne	.L117
 1961              		.loc 1 404 7 discriminator 3
 1962 0104 0023     		movs	r3, #0
 1963 0106 BB60     		str	r3, [r7, #8]
 1964 0108 BB68     		ldr	r3, [r7, #8]
 1965 010a 43F08043 		orr	r3, r3, #1073741824
 1966 010e BB60     		str	r3, [r7, #8]
 1967 0110 FB68     		ldr	r3, [r7, #12]
 1968 0112 03F5B023 		add	r3, r3, #360448
 1969 0116 EF33     		adds	r3, r3, #239
 1970 0118 1B03     		lsls	r3, r3, #12
 1971 011a 1A46     		mov	r2, r3
 1972 011c BB68     		ldr	r3, [r7, #8]
 1973 011e 1360     		str	r3, [r2]
 1974              	.L118:
 1975              		.loc 1 404 7 discriminator 5
 1976 0120 FB68     		ldr	r3, [r7, #12]
 1977 0122 03F5B023 		add	r3, r3, #360448
 1978 0126 EF33     		adds	r3, r3, #239
 1979 0128 1B03     		lsls	r3, r3, #12
 1980 012a 1B68     		ldr	r3, [r3]
 1981 012c 03F08043 		and	r3, r3, #1073741824
 1982 0130 002B     		cmp	r3, #0
 1983 0132 F5D1     		bne	.L118
 405:Lib/AI_Runtime/Npu/ll_aton/ll_aton.c ****       LL_ATON_DisableClock(ATON_CONVACC_CLKB_CLK(unitId));
 1984              		.loc 1 405 28 is_stmt 1
 1985 0134 FB68     		ldr	r3, [r7, #12]
ARM GAS  /tmp/ccxZaNgH.s 			page 54


 1986 0136 0A33     		adds	r3, r3, #10
 1987              		.loc 1 405 7
 1988 0138 1846     		mov	r0, r3
 1989 013a FFF7FEFF 		bl	LL_ATON_DisableClock
 406:Lib/AI_Runtime/Npu/ll_aton/ll_aton.c ****       break;
 1990              		.loc 1 406 7
 1991 013e 16E1     		b	.L116
 1992              	.L111:
 407:Lib/AI_Runtime/Npu/ll_aton/ll_aton.c **** #endif
 408:Lib/AI_Runtime/Npu/ll_aton/ll_aton.c **** 
 409:Lib/AI_Runtime/Npu/ll_aton/ll_aton.c **** #ifdef ATON_DECUN_NUM
 410:Lib/AI_Runtime/Npu/ll_aton/ll_aton.c ****     case DECUN:
 411:Lib/AI_Runtime/Npu/ll_aton/ll_aton.c ****       ATON_DISABLE_CLR_CONFCLR(DECUN, unitId);
 1993              		.loc 1 411 7
 1994 0140 0023     		movs	r3, #0
 1995 0142 BB60     		str	r3, [r7, #8]
 1996 0144 BB68     		ldr	r3, [r7, #8]
 1997 0146 23F00103 		bic	r3, r3, #1
 1998 014a BB60     		str	r3, [r7, #8]
 1999 014c BB68     		ldr	r3, [r7, #8]
 2000 014e 43F00203 		orr	r3, r3, #2
 2001 0152 BB60     		str	r3, [r7, #8]
 2002 0154 FB68     		ldr	r3, [r7, #12]
 2003 0156 03F5B023 		add	r3, r3, #360448
 2004 015a F333     		adds	r3, r3, #243
 2005 015c 1B03     		lsls	r3, r3, #12
 2006 015e 1A46     		mov	r2, r3
 2007 0160 BB68     		ldr	r3, [r7, #8]
 2008 0162 1360     		str	r3, [r2]
 2009              	.L119:
 2010              		.loc 1 411 7 is_stmt 0 discriminator 2
 2011 0164 FB68     		ldr	r3, [r7, #12]
 2012 0166 03F5B023 		add	r3, r3, #360448
 2013 016a F333     		adds	r3, r3, #243
 2014 016c 1B03     		lsls	r3, r3, #12
 2015 016e 1B68     		ldr	r3, [r3]
 2016 0170 03F00203 		and	r3, r3, #2
 2017 0174 002B     		cmp	r3, #0
 2018 0176 F5D1     		bne	.L119
 2019              		.loc 1 411 7 discriminator 3
 2020 0178 0023     		movs	r3, #0
 2021 017a BB60     		str	r3, [r7, #8]
 2022 017c BB68     		ldr	r3, [r7, #8]
 2023 017e 43F08043 		orr	r3, r3, #1073741824
 2024 0182 BB60     		str	r3, [r7, #8]
 2025 0184 FB68     		ldr	r3, [r7, #12]
 2026 0186 03F5B023 		add	r3, r3, #360448
 2027 018a F333     		adds	r3, r3, #243
 2028 018c 1B03     		lsls	r3, r3, #12
 2029 018e 1A46     		mov	r2, r3
 2030 0190 BB68     		ldr	r3, [r7, #8]
 2031 0192 1360     		str	r3, [r2]
 2032              	.L120:
 2033              		.loc 1 411 7 discriminator 5
 2034 0194 FB68     		ldr	r3, [r7, #12]
 2035 0196 03F5B023 		add	r3, r3, #360448
 2036 019a F333     		adds	r3, r3, #243
ARM GAS  /tmp/ccxZaNgH.s 			page 55


 2037 019c 1B03     		lsls	r3, r3, #12
 2038 019e 1B68     		ldr	r3, [r3]
 2039 01a0 03F08043 		and	r3, r3, #1073741824
 2040 01a4 002B     		cmp	r3, #0
 2041 01a6 F5D1     		bne	.L120
 412:Lib/AI_Runtime/Npu/ll_aton/ll_aton.c ****       LL_ATON_DisableClock(ATON_DECUN_CLKB_CLK(unitId));
 2042              		.loc 1 412 28 is_stmt 1
 2043 01a8 FB68     		ldr	r3, [r7, #12]
 2044 01aa 0E33     		adds	r3, r3, #14
 2045              		.loc 1 412 7
 2046 01ac 1846     		mov	r0, r3
 2047 01ae FFF7FEFF 		bl	LL_ATON_DisableClock
 413:Lib/AI_Runtime/Npu/ll_aton/ll_aton.c ****       break;
 2048              		.loc 1 413 7
 2049 01b2 DCE0     		b	.L116
 2050              	.L110:
 414:Lib/AI_Runtime/Npu/ll_aton/ll_aton.c **** #endif
 415:Lib/AI_Runtime/Npu/ll_aton/ll_aton.c **** 
 416:Lib/AI_Runtime/Npu/ll_aton/ll_aton.c **** #ifdef ATON_ACTIV_NUM
 417:Lib/AI_Runtime/Npu/ll_aton/ll_aton.c ****     case ACTIV:
 418:Lib/AI_Runtime/Npu/ll_aton/ll_aton.c ****       ATON_DISABLE_CLR_CONFCLR(ACTIV, unitId);
 2051              		.loc 1 418 7
 2052 01b4 744B     		ldr	r3, .L131
 2053 01b6 BB60     		str	r3, [r7, #8]
 2054 01b8 BB68     		ldr	r3, [r7, #8]
 2055 01ba 23F00103 		bic	r3, r3, #1
 2056 01be BB60     		str	r3, [r7, #8]
 2057 01c0 BB68     		ldr	r3, [r7, #8]
 2058 01c2 43F00203 		orr	r3, r3, #2
 2059 01c6 BB60     		str	r3, [r7, #8]
 2060 01c8 FB68     		ldr	r3, [r7, #12]
 2061 01ca 03F5B023 		add	r3, r3, #360448
 2062 01ce F533     		adds	r3, r3, #245
 2063 01d0 1B03     		lsls	r3, r3, #12
 2064 01d2 1A46     		mov	r2, r3
 2065 01d4 BB68     		ldr	r3, [r7, #8]
 2066 01d6 1360     		str	r3, [r2]
 2067              	.L121:
 2068              		.loc 1 418 7 is_stmt 0 discriminator 2
 2069 01d8 FB68     		ldr	r3, [r7, #12]
 2070 01da 03F5B023 		add	r3, r3, #360448
 2071 01de F533     		adds	r3, r3, #245
 2072 01e0 1B03     		lsls	r3, r3, #12
 2073 01e2 1B68     		ldr	r3, [r3]
 2074 01e4 03F00203 		and	r3, r3, #2
 2075 01e8 002B     		cmp	r3, #0
 2076 01ea F5D1     		bne	.L121
 2077              		.loc 1 418 7 discriminator 3
 2078 01ec 664B     		ldr	r3, .L131
 2079 01ee BB60     		str	r3, [r7, #8]
 2080 01f0 BB68     		ldr	r3, [r7, #8]
 2081 01f2 43F08043 		orr	r3, r3, #1073741824
 2082 01f6 BB60     		str	r3, [r7, #8]
 2083 01f8 FB68     		ldr	r3, [r7, #12]
 2084 01fa 03F5B023 		add	r3, r3, #360448
 2085 01fe F533     		adds	r3, r3, #245
 2086 0200 1B03     		lsls	r3, r3, #12
ARM GAS  /tmp/ccxZaNgH.s 			page 56


 2087 0202 1A46     		mov	r2, r3
 2088 0204 BB68     		ldr	r3, [r7, #8]
 2089 0206 1360     		str	r3, [r2]
 2090              	.L122:
 2091              		.loc 1 418 7 discriminator 5
 2092 0208 FB68     		ldr	r3, [r7, #12]
 2093 020a 03F5B023 		add	r3, r3, #360448
 2094 020e F533     		adds	r3, r3, #245
 2095 0210 1B03     		lsls	r3, r3, #12
 2096 0212 1B68     		ldr	r3, [r3]
 2097 0214 03F08043 		and	r3, r3, #1073741824
 2098 0218 002B     		cmp	r3, #0
 2099 021a F5D1     		bne	.L122
 419:Lib/AI_Runtime/Npu/ll_aton/ll_aton.c ****       LL_ATON_DisableClock(ATON_ACTIV_CLKB_CLK(unitId));
 2100              		.loc 1 419 28 is_stmt 1
 2101 021c FB68     		ldr	r3, [r7, #12]
 2102 021e 1033     		adds	r3, r3, #16
 2103              		.loc 1 419 7
 2104 0220 1846     		mov	r0, r3
 2105 0222 FFF7FEFF 		bl	LL_ATON_DisableClock
 420:Lib/AI_Runtime/Npu/ll_aton/ll_aton.c ****       break;
 2106              		.loc 1 420 7
 2107 0226 A2E0     		b	.L116
 2108              	.L109:
 421:Lib/AI_Runtime/Npu/ll_aton/ll_aton.c **** #endif
 422:Lib/AI_Runtime/Npu/ll_aton/ll_aton.c **** 
 423:Lib/AI_Runtime/Npu/ll_aton/ll_aton.c **** #ifdef ATON_ARITH_NUM
 424:Lib/AI_Runtime/Npu/ll_aton/ll_aton.c ****     case ARITH:
 425:Lib/AI_Runtime/Npu/ll_aton/ll_aton.c ****       ATON_DISABLE_CLR_CONFCLR(ARITH, unitId);
 2109              		.loc 1 425 7
 2110 0228 4FF00063 		mov	r3, #134217728
 2111 022c BB60     		str	r3, [r7, #8]
 2112 022e BB68     		ldr	r3, [r7, #8]
 2113 0230 23F00103 		bic	r3, r3, #1
 2114 0234 BB60     		str	r3, [r7, #8]
 2115 0236 BB68     		ldr	r3, [r7, #8]
 2116 0238 43F00203 		orr	r3, r3, #2
 2117 023c BB60     		str	r3, [r7, #8]
 2118 023e FB68     		ldr	r3, [r7, #12]
 2119 0240 03F5B023 		add	r3, r3, #360448
 2120 0244 F733     		adds	r3, r3, #247
 2121 0246 1B03     		lsls	r3, r3, #12
 2122 0248 1A46     		mov	r2, r3
 2123 024a BB68     		ldr	r3, [r7, #8]
 2124 024c 1360     		str	r3, [r2]
 2125              	.L123:
 2126              		.loc 1 425 7 is_stmt 0 discriminator 2
 2127 024e FB68     		ldr	r3, [r7, #12]
 2128 0250 03F5B023 		add	r3, r3, #360448
 2129 0254 F733     		adds	r3, r3, #247
 2130 0256 1B03     		lsls	r3, r3, #12
 2131 0258 1B68     		ldr	r3, [r3]
 2132 025a 03F00203 		and	r3, r3, #2
 2133 025e 002B     		cmp	r3, #0
 2134 0260 F5D1     		bne	.L123
 2135              		.loc 1 425 7 discriminator 3
 2136 0262 4FF00063 		mov	r3, #134217728
ARM GAS  /tmp/ccxZaNgH.s 			page 57


 2137 0266 BB60     		str	r3, [r7, #8]
 2138 0268 BB68     		ldr	r3, [r7, #8]
 2139 026a 43F08043 		orr	r3, r3, #1073741824
 2140 026e BB60     		str	r3, [r7, #8]
 2141 0270 FB68     		ldr	r3, [r7, #12]
 2142 0272 03F5B023 		add	r3, r3, #360448
 2143 0276 F733     		adds	r3, r3, #247
 2144 0278 1B03     		lsls	r3, r3, #12
 2145 027a 1A46     		mov	r2, r3
 2146 027c BB68     		ldr	r3, [r7, #8]
 2147 027e 1360     		str	r3, [r2]
 2148              	.L124:
 2149              		.loc 1 425 7 discriminator 5
 2150 0280 FB68     		ldr	r3, [r7, #12]
 2151 0282 03F5B023 		add	r3, r3, #360448
 2152 0286 F733     		adds	r3, r3, #247
 2153 0288 1B03     		lsls	r3, r3, #12
 2154 028a 1B68     		ldr	r3, [r3]
 2155 028c 03F08043 		and	r3, r3, #1073741824
 2156 0290 002B     		cmp	r3, #0
 2157 0292 F5D1     		bne	.L124
 426:Lib/AI_Runtime/Npu/ll_aton/ll_aton.c ****       LL_ATON_DisableClock(ATON_ARITH_CLKB_CLK(unitId));
 2158              		.loc 1 426 28 is_stmt 1
 2159 0294 FB68     		ldr	r3, [r7, #12]
 2160 0296 1233     		adds	r3, r3, #18
 2161              		.loc 1 426 7
 2162 0298 1846     		mov	r0, r3
 2163 029a FFF7FEFF 		bl	LL_ATON_DisableClock
 427:Lib/AI_Runtime/Npu/ll_aton/ll_aton.c ****       break;
 2164              		.loc 1 427 7
 2165 029e 66E0     		b	.L116
 2166              	.L108:
 428:Lib/AI_Runtime/Npu/ll_aton/ll_aton.c **** #endif
 429:Lib/AI_Runtime/Npu/ll_aton/ll_aton.c **** 
 430:Lib/AI_Runtime/Npu/ll_aton/ll_aton.c **** #ifdef ATON_POOL_NUM
 431:Lib/AI_Runtime/Npu/ll_aton/ll_aton.c ****     case POOL:
 432:Lib/AI_Runtime/Npu/ll_aton/ll_aton.c **** #ifdef POOL_RC14
 433:Lib/AI_Runtime/Npu/ll_aton/ll_aton.c ****       ATON_POOL_CTRL_SET(unitId, ATON_POOL_CTRL_SET_EN(ATON_POOL_CTRL_GET(unitId), 0));
 434:Lib/AI_Runtime/Npu/ll_aton/ll_aton.c **** #else  // !POOL_RC14
 435:Lib/AI_Runtime/Npu/ll_aton/ll_aton.c ****       ATON_DISABLE_CLR_CONFCLR(POOL, unitId);
 2167              		.loc 1 435 7
 2168 02a0 4FF48403 		mov	r3, #4325376
 2169 02a4 BB60     		str	r3, [r7, #8]
 2170 02a6 BB68     		ldr	r3, [r7, #8]
 2171 02a8 23F00103 		bic	r3, r3, #1
 2172 02ac BB60     		str	r3, [r7, #8]
 2173 02ae BB68     		ldr	r3, [r7, #8]
 2174 02b0 43F00203 		orr	r3, r3, #2
 2175 02b4 BB60     		str	r3, [r7, #8]
 2176 02b6 FB68     		ldr	r3, [r7, #12]
 2177 02b8 03F5B023 		add	r3, r3, #360448
 2178 02bc FB33     		adds	r3, r3, #251
 2179 02be 1B03     		lsls	r3, r3, #12
 2180 02c0 1A46     		mov	r2, r3
 2181 02c2 BB68     		ldr	r3, [r7, #8]
 2182 02c4 1360     		str	r3, [r2]
 2183              	.L125:
ARM GAS  /tmp/ccxZaNgH.s 			page 58


 2184              		.loc 1 435 7 is_stmt 0 discriminator 2
 2185 02c6 FB68     		ldr	r3, [r7, #12]
 2186 02c8 03F5B023 		add	r3, r3, #360448
 2187 02cc FB33     		adds	r3, r3, #251
 2188 02ce 1B03     		lsls	r3, r3, #12
 2189 02d0 1B68     		ldr	r3, [r3]
 2190 02d2 03F00203 		and	r3, r3, #2
 2191 02d6 002B     		cmp	r3, #0
 2192 02d8 F5D1     		bne	.L125
 2193              		.loc 1 435 7 discriminator 3
 2194 02da 4FF48403 		mov	r3, #4325376
 2195 02de BB60     		str	r3, [r7, #8]
 2196 02e0 BB68     		ldr	r3, [r7, #8]
 2197 02e2 43F08043 		orr	r3, r3, #1073741824
 2198 02e6 BB60     		str	r3, [r7, #8]
 2199 02e8 FB68     		ldr	r3, [r7, #12]
 2200 02ea 03F5B023 		add	r3, r3, #360448
 2201 02ee FB33     		adds	r3, r3, #251
 2202 02f0 1B03     		lsls	r3, r3, #12
 2203 02f2 1A46     		mov	r2, r3
 2204 02f4 BB68     		ldr	r3, [r7, #8]
 2205 02f6 1360     		str	r3, [r2]
 2206              	.L126:
 2207              		.loc 1 435 7 discriminator 5
 2208 02f8 FB68     		ldr	r3, [r7, #12]
 2209 02fa 03F5B023 		add	r3, r3, #360448
 2210 02fe FB33     		adds	r3, r3, #251
 2211 0300 1B03     		lsls	r3, r3, #12
 2212 0302 1B68     		ldr	r3, [r3]
 2213 0304 03F08043 		and	r3, r3, #1073741824
 2214 0308 002B     		cmp	r3, #0
 2215 030a F5D1     		bne	.L126
 436:Lib/AI_Runtime/Npu/ll_aton/ll_aton.c **** #endif // !POOL_RC14
 437:Lib/AI_Runtime/Npu/ll_aton/ll_aton.c **** 
 438:Lib/AI_Runtime/Npu/ll_aton/ll_aton.c ****       LL_ATON_DisableClock(ATON_POOL_CLKB_CLK(unitId));
 2216              		.loc 1 438 28 is_stmt 1
 2217 030c FB68     		ldr	r3, [r7, #12]
 2218 030e 1633     		adds	r3, r3, #22
 2219              		.loc 1 438 7
 2220 0310 1846     		mov	r0, r3
 2221 0312 FFF7FEFF 		bl	LL_ATON_DisableClock
 439:Lib/AI_Runtime/Npu/ll_aton/ll_aton.c ****       break;
 2222              		.loc 1 439 7
 2223 0316 2AE0     		b	.L116
 2224              	.L106:
 440:Lib/AI_Runtime/Npu/ll_aton/ll_aton.c **** #endif
 441:Lib/AI_Runtime/Npu/ll_aton/ll_aton.c **** 
 442:Lib/AI_Runtime/Npu/ll_aton/ll_aton.c **** #ifdef ATON_RECBUF_NUM
 443:Lib/AI_Runtime/Npu/ll_aton/ll_aton.c ****     case RECBUF:
 444:Lib/AI_Runtime/Npu/ll_aton/ll_aton.c ****       ATON_DISABLE_CLR_CONFCLR(RECBUF, unitId);
 2225              		.loc 1 444 7
 2226 0318 0023     		movs	r3, #0
 2227 031a BB60     		str	r3, [r7, #8]
 2228 031c BB68     		ldr	r3, [r7, #8]
 2229 031e 23F00103 		bic	r3, r3, #1
 2230 0322 BB60     		str	r3, [r7, #8]
 2231 0324 BB68     		ldr	r3, [r7, #8]
ARM GAS  /tmp/ccxZaNgH.s 			page 59


 2232 0326 43F00203 		orr	r3, r3, #2
 2233 032a BB60     		str	r3, [r7, #8]
 2234 032c 174A     		ldr	r2, .L131+4
 2235 032e BB68     		ldr	r3, [r7, #8]
 2236 0330 1360     		str	r3, [r2]
 2237              	.L127:
 2238              		.loc 1 444 7 is_stmt 0 discriminator 2
 2239 0332 164B     		ldr	r3, .L131+4
 2240 0334 1B68     		ldr	r3, [r3]
 2241 0336 03F00203 		and	r3, r3, #2
 2242 033a 002B     		cmp	r3, #0
 2243 033c F9D1     		bne	.L127
 2244              		.loc 1 444 7 discriminator 3
 2245 033e 0023     		movs	r3, #0
 2246 0340 BB60     		str	r3, [r7, #8]
 2247 0342 BB68     		ldr	r3, [r7, #8]
 2248 0344 43F08043 		orr	r3, r3, #1073741824
 2249 0348 BB60     		str	r3, [r7, #8]
 2250 034a 104A     		ldr	r2, .L131+4
 2251 034c BB68     		ldr	r3, [r7, #8]
 2252 034e 1360     		str	r3, [r2]
 2253              	.L128:
 2254              		.loc 1 444 7 discriminator 5
 2255 0350 0E4B     		ldr	r3, .L131+4
 2256 0352 1B68     		ldr	r3, [r3]
 2257 0354 03F08043 		and	r3, r3, #1073741824
 2258 0358 002B     		cmp	r3, #0
 2259 035a F9D1     		bne	.L128
 445:Lib/AI_Runtime/Npu/ll_aton/ll_aton.c ****       LL_ATON_DisableClock(ATON_RECBUF_CLKB_CLK(unitId));
 2260              		.loc 1 445 28 is_stmt 1
 2261 035c FB68     		ldr	r3, [r7, #12]
 2262 035e 1833     		adds	r3, r3, #24
 2263              		.loc 1 445 7
 2264 0360 1846     		mov	r0, r3
 2265 0362 FFF7FEFF 		bl	LL_ATON_DisableClock
 446:Lib/AI_Runtime/Npu/ll_aton/ll_aton.c ****       break;
 2266              		.loc 1 446 7
 2267 0366 02E0     		b	.L116
 2268              	.L105:
 447:Lib/AI_Runtime/Npu/ll_aton/ll_aton.c **** #endif
 448:Lib/AI_Runtime/Npu/ll_aton/ll_aton.c **** 
 449:Lib/AI_Runtime/Npu/ll_aton/ll_aton.c ****     default:
 450:Lib/AI_Runtime/Npu/ll_aton/ll_aton.c ****       return LL_ATON_INVALID_PARAM;
 2269              		.loc 1 450 14
 2270 0368 6FF00103 		mvn	r3, #1
 2271 036c 08E0     		b	.L129
 2272              	.L116:
 388:Lib/AI_Runtime/Npu/ll_aton/ll_aton.c ****   {
 2273              		.loc 1 388 23 discriminator 2
 2274 036e 7B69     		ldr	r3, [r7, #20]
 2275 0370 0133     		adds	r3, r3, #1
 2276 0372 7B61     		str	r3, [r7, #20]
 2277              	.L104:
 388:Lib/AI_Runtime/Npu/ll_aton/ll_aton.c ****   {
 2278              		.loc 1 388 17 discriminator 1
 2279 0374 7A69     		ldr	r2, [r7, #20]
 2280 0376 3B68     		ldr	r3, [r7]
ARM GAS  /tmp/ccxZaNgH.s 			page 60


 2281 0378 9A42     		cmp	r2, r3
 2282 037a FFF649AE 		blt	.L130
 451:Lib/AI_Runtime/Npu/ll_aton/ll_aton.c ****     }
 452:Lib/AI_Runtime/Npu/ll_aton/ll_aton.c ****   }
 453:Lib/AI_Runtime/Npu/ll_aton/ll_aton.c **** 
 454:Lib/AI_Runtime/Npu/ll_aton/ll_aton.c ****   return LL_ATON_OK;
 2283              		.loc 1 454 10
 2284 037e 0023     		movs	r3, #0
 2285              	.L129:
 455:Lib/AI_Runtime/Npu/ll_aton/ll_aton.c **** }
 2286              		.loc 1 455 1
 2287 0380 1846     		mov	r0, r3
 2288 0382 1837     		adds	r7, r7, #24
 2289              		.cfi_def_cfa_offset 8
 2290 0384 BD46     		mov	sp, r7
 2291              		.cfi_def_cfa_register 13
 2292              		@ sp needed
 2293 0386 80BD     		pop	{r7, pc}
 2294              	.L132:
 2295              		.align	2
 2296              	.L131:
 2297 0388 80108800 		.word	8917120
 2298 038c 00D00F58 		.word	1477431296
 2299              		.cfi_endproc
 2300              	.LFE4828:
 2302              		.section	.rodata
 2303 020e 0000     		.align	2
 2304              	.LC23:
 2305 0210 63686563 		.ascii	"checkWatchdog() == 0\000"
 2305      6B576174 
 2305      6368646F 
 2305      67282920 
 2305      3D3D2030 
 2306              		.section	.text.LL_Streng_Wait,"ax",%progbits
 2307              		.align	1
 2308              		.global	LL_Streng_Wait
 2309              		.syntax unified
 2310              		.thumb
 2311              		.thumb_func
 2313              	LL_Streng_Wait:
 2314              	.LFB4829:
 456:Lib/AI_Runtime/Npu/ll_aton/ll_aton.c **** 
 457:Lib/AI_Runtime/Npu/ll_aton/ll_aton.c **** /**
 458:Lib/AI_Runtime/Npu/ll_aton/ll_aton.c ****  * @brief  Waits for streaming engine(s) to become idle
 459:Lib/AI_Runtime/Npu/ll_aton/ll_aton.c ****  * @param  mask Bitmask of DMA identifiers
 460:Lib/AI_Runtime/Npu/ll_aton/ll_aton.c ****  * @retval Error code
 461:Lib/AI_Runtime/Npu/ll_aton/ll_aton.c ****  */
 462:Lib/AI_Runtime/Npu/ll_aton/ll_aton.c **** int LL_Streng_Wait(uint32_t mask)
 463:Lib/AI_Runtime/Npu/ll_aton/ll_aton.c **** {
 2315              		.loc 1 463 1
 2316              		.cfi_startproc
 2317              		@ args = 0, pretend = 0, frame = 16
 2318              		@ frame_needed = 1, uses_anonymous_args = 0
 2319 0000 80B5     		push	{r7, lr}
 2320              		.cfi_def_cfa_offset 8
 2321              		.cfi_offset 7, -8
 2322              		.cfi_offset 14, -4
ARM GAS  /tmp/ccxZaNgH.s 			page 61


 2323 0002 84B0     		sub	sp, sp, #16
 2324              		.cfi_def_cfa_offset 24
 2325 0004 00AF     		add	r7, sp, #0
 2326              		.cfi_def_cfa_register 7
 2327 0006 7860     		str	r0, [r7, #4]
 464:Lib/AI_Runtime/Npu/ll_aton/ll_aton.c ****   int i;
 465:Lib/AI_Runtime/Npu/ll_aton/ll_aton.c ****   uint32_t enableFlags;
 466:Lib/AI_Runtime/Npu/ll_aton/ll_aton.c **** 
 467:Lib/AI_Runtime/Npu/ll_aton/ll_aton.c ****   startWatchdog(ATON_EPOCH_TIMEOUT);
 2328              		.loc 1 467 3
 2329 0008 1A48     		ldr	r0, .L140
 2330 000a FFF7FEFF 		bl	startWatchdog
 2331              	.L138:
 468:Lib/AI_Runtime/Npu/ll_aton/ll_aton.c **** 
 469:Lib/AI_Runtime/Npu/ll_aton/ll_aton.c ****   do
 470:Lib/AI_Runtime/Npu/ll_aton/ll_aton.c ****   {
 471:Lib/AI_Runtime/Npu/ll_aton/ll_aton.c ****     enableFlags = 0;
 2332              		.loc 1 471 17
 2333 000e 0023     		movs	r3, #0
 2334 0010 BB60     		str	r3, [r7, #8]
 472:Lib/AI_Runtime/Npu/ll_aton/ll_aton.c ****     for (i = 0; i < ATON_STRENG_NUM; i++)
 2335              		.loc 1 472 12
 2336 0012 0023     		movs	r3, #0
 2337 0014 FB60     		str	r3, [r7, #12]
 2338              		.loc 1 472 5
 2339 0016 16E0     		b	.L134
 2340              	.L136:
 473:Lib/AI_Runtime/Npu/ll_aton/ll_aton.c ****     {
 474:Lib/AI_Runtime/Npu/ll_aton/ll_aton.c ****       if (mask & (1 << i))
 2341              		.loc 1 474 21
 2342 0018 0122     		movs	r2, #1
 2343 001a FB68     		ldr	r3, [r7, #12]
 2344 001c 02FA03F3 		lsl	r3, r2, r3
 2345 0020 1A46     		mov	r2, r3
 2346              		.loc 1 474 16
 2347 0022 7B68     		ldr	r3, [r7, #4]
 2348 0024 1340     		ands	r3, r3, r2
 2349              		.loc 1 474 10
 2350 0026 002B     		cmp	r3, #0
 2351 0028 0AD0     		beq	.L135
 475:Lib/AI_Runtime/Npu/ll_aton/ll_aton.c ****       {
 476:Lib/AI_Runtime/Npu/ll_aton/ll_aton.c ****         enableFlags |= (ATON_STRENG_CTRL_GET(i) & (1U << ATON_STRENG_CTRL_RUNNING_LSB));
 2352              		.loc 1 476 25
 2353 002a FB68     		ldr	r3, [r7, #12]
 2354 002c 03F5B023 		add	r3, r3, #360448
 2355 0030 E533     		adds	r3, r3, #229
 2356 0032 1B03     		lsls	r3, r3, #12
 2357 0034 1B68     		ldr	r3, [r3]
 2358              		.loc 1 476 49
 2359 0036 03F00043 		and	r3, r3, #-2147483648
 2360              		.loc 1 476 21
 2361 003a BA68     		ldr	r2, [r7, #8]
 2362 003c 1343     		orrs	r3, r3, r2
 2363 003e BB60     		str	r3, [r7, #8]
 2364              	.L135:
 472:Lib/AI_Runtime/Npu/ll_aton/ll_aton.c ****     {
 2365              		.loc 1 472 39 discriminator 2
ARM GAS  /tmp/ccxZaNgH.s 			page 62


 2366 0040 FB68     		ldr	r3, [r7, #12]
 2367 0042 0133     		adds	r3, r3, #1
 2368 0044 FB60     		str	r3, [r7, #12]
 2369              	.L134:
 472:Lib/AI_Runtime/Npu/ll_aton/ll_aton.c ****     {
 2370              		.loc 1 472 19 discriminator 1
 2371 0046 FB68     		ldr	r3, [r7, #12]
 2372 0048 092B     		cmp	r3, #9
 2373 004a E5DD     		ble	.L136
 477:Lib/AI_Runtime/Npu/ll_aton/ll_aton.c ****       }
 478:Lib/AI_Runtime/Npu/ll_aton/ll_aton.c ****     }
 479:Lib/AI_Runtime/Npu/ll_aton/ll_aton.c **** 
 480:Lib/AI_Runtime/Npu/ll_aton/ll_aton.c ****     LL_ATON_ASSERT(checkWatchdog() == 0);
 2374              		.loc 1 480 5
 2375 004c FFF7FEFF 		bl	checkWatchdog
 2376 0050 0346     		mov	r3, r0
 2377              		.loc 1 480 5 is_stmt 0 discriminator 1
 2378 0052 002B     		cmp	r3, #0
 2379 0054 06D0     		beq	.L137
 2380 0056 084B     		ldr	r3, .L140+4
 2381 0058 084A     		ldr	r2, .L140+8
 2382 005a 4FF4F071 		mov	r1, #480
 2383 005e 0848     		ldr	r0, .L140+12
 2384 0060 FFF7FEFF 		bl	__assert_func
 2385              	.L137:
 481:Lib/AI_Runtime/Npu/ll_aton/ll_aton.c **** 
 482:Lib/AI_Runtime/Npu/ll_aton/ll_aton.c ****   } while (enableFlags);
 2386              		.loc 1 482 12 is_stmt 1
 2387 0064 BB68     		ldr	r3, [r7, #8]
 2388 0066 002B     		cmp	r3, #0
 2389 0068 D1D1     		bne	.L138
 483:Lib/AI_Runtime/Npu/ll_aton/ll_aton.c **** 
 484:Lib/AI_Runtime/Npu/ll_aton/ll_aton.c ****   return LL_ATON_OK;
 2390              		.loc 1 484 10
 2391 006a 0023     		movs	r3, #0
 485:Lib/AI_Runtime/Npu/ll_aton/ll_aton.c **** }
 2392              		.loc 1 485 1
 2393 006c 1846     		mov	r0, r3
 2394 006e 1037     		adds	r7, r7, #16
 2395              		.cfi_def_cfa_offset 8
 2396 0070 BD46     		mov	sp, r7
 2397              		.cfi_def_cfa_register 13
 2398              		@ sp needed
 2399 0072 80BD     		pop	{r7, pc}
 2400              	.L141:
 2401              		.align	2
 2402              	.L140:
 2403 0074 80969800 		.word	10000000
 2404 0078 10020000 		.word	.LC23
 2405 007c 00000000 		.word	__func__.7
 2406 0080 3C000000 		.word	.LC4
 2407              		.cfi_endproc
 2408              	.LFE4829:
 2410              		.section	.text.LL_Streng_TensorInit,"ax",%progbits
 2411              		.align	1
 2412              		.global	LL_Streng_TensorInit
 2413              		.syntax unified
ARM GAS  /tmp/ccxZaNgH.s 			page 63


 2414              		.thumb
 2415              		.thumb_func
 2417              	LL_Streng_TensorInit:
 2418              	.LFB4830:
 486:Lib/AI_Runtime/Npu/ll_aton/ll_aton.c **** 
 487:Lib/AI_Runtime/Npu/ll_aton/ll_aton.c **** /**
 488:Lib/AI_Runtime/Npu/ll_aton/ll_aton.c ****  * @brief  Configures streaming engine
 489:Lib/AI_Runtime/Npu/ll_aton/ll_aton.c ****  * @param  id Streaming engine identifier [0..ATON_STRENG_NUM-1]
 490:Lib/AI_Runtime/Npu/ll_aton/ll_aton.c ****  * @param  conf Pointer to structure(s) describing initialization parameters
 491:Lib/AI_Runtime/Npu/ll_aton/ll_aton.c ****  * @param  n Number of elements in initialization structure array
 492:Lib/AI_Runtime/Npu/ll_aton/ll_aton.c ****  * @retval error code. E.g.: Invalid ID, invalid parameters, not idle,..
 493:Lib/AI_Runtime/Npu/ll_aton/ll_aton.c ****  */
 494:Lib/AI_Runtime/Npu/ll_aton/ll_aton.c **** int LL_Streng_TensorInit(int id, const LL_Streng_TensorInitTypeDef *conf, int n)
 495:Lib/AI_Runtime/Npu/ll_aton/ll_aton.c **** {
 2419              		.loc 1 495 1
 2420              		.cfi_startproc
 2421              		@ args = 0, pretend = 0, frame = 88
 2422              		@ frame_needed = 1, uses_anonymous_args = 0
 2423 0000 80B5     		push	{r7, lr}
 2424              		.cfi_def_cfa_offset 8
 2425              		.cfi_offset 7, -8
 2426              		.cfi_offset 14, -4
 2427 0002 96B0     		sub	sp, sp, #88
 2428              		.cfi_def_cfa_offset 96
 2429 0004 00AF     		add	r7, sp, #0
 2430              		.cfi_def_cfa_register 7
 2431 0006 F860     		str	r0, [r7, #12]
 2432 0008 B960     		str	r1, [r7, #8]
 2433 000a 7A60     		str	r2, [r7, #4]
 496:Lib/AI_Runtime/Npu/ll_aton/ll_aton.c ****   uint32_t t;
 497:Lib/AI_Runtime/Npu/ll_aton/ll_aton.c **** 
 498:Lib/AI_Runtime/Npu/ll_aton/ll_aton.c ****   /* deferred register values */
 499:Lib/AI_Runtime/Npu/ll_aton/ll_aton.c ****   uint32_t t_streng_strd = ATON_STRENG_STRD_DT;
 2434              		.loc 1 499 12
 2435 000c 0023     		movs	r3, #0
 2436 000e 3B65     		str	r3, [r7, #80]
 500:Lib/AI_Runtime/Npu/ll_aton/ll_aton.c ****   uint32_t t_streng_cid_cache = ATON_STRENG_CID_CACHE_DT;
 2437              		.loc 1 500 12
 2438 0010 0023     		movs	r3, #0
 2439 0012 FB64     		str	r3, [r7, #76]
 501:Lib/AI_Runtime/Npu/ll_aton/ll_aton.c ****   uint32_t t_streng_event = ATON_STRENG_EVENT_DT;
 2440              		.loc 1 501 12
 2441 0014 0023     		movs	r3, #0
 2442 0016 BB64     		str	r3, [r7, #72]
 502:Lib/AI_Runtime/Npu/ll_aton/ll_aton.c **** 
 503:Lib/AI_Runtime/Npu/ll_aton/ll_aton.c ****   if (id >= ATON_STRENG_NUM)
 2443              		.loc 1 503 6
 2444 0018 FB68     		ldr	r3, [r7, #12]
 2445 001a 092B     		cmp	r3, #9
 2446 001c 02DD     		ble	.L143
 504:Lib/AI_Runtime/Npu/ll_aton/ll_aton.c ****     return LL_ATON_INVALID_ID;
 2447              		.loc 1 504 12
 2448 001e 4FF0FF33 		mov	r3, #-1
 2449 0022 42E3     		b	.L191
 2450              	.L143:
 505:Lib/AI_Runtime/Npu/ll_aton/ll_aton.c **** 
 506:Lib/AI_Runtime/Npu/ll_aton/ll_aton.c ****   LL_ATON_EnableClock(ATON_STRENG_CLKB_CLK(id));
ARM GAS  /tmp/ccxZaNgH.s 			page 64


 2451              		.loc 1 506 3
 2452 0024 FB68     		ldr	r3, [r7, #12]
 2453 0026 1846     		mov	r0, r3
 2454 0028 FFF7FEFF 		bl	LL_ATON_EnableClock
 507:Lib/AI_Runtime/Npu/ll_aton/ll_aton.c **** 
 508:Lib/AI_Runtime/Npu/ll_aton/ll_aton.c **** #define _LL_min(x, y) ((x) > (y) ? (y) : (x))
 509:Lib/AI_Runtime/Npu/ll_aton/ll_aton.c **** 
 510:Lib/AI_Runtime/Npu/ll_aton/ll_aton.c ****   if (n != 1)
 2455              		.loc 1 510 6
 2456 002c 7B68     		ldr	r3, [r7, #4]
 2457 002e 012B     		cmp	r3, #1
 2458 0030 02D0     		beq	.L145
 511:Lib/AI_Runtime/Npu/ll_aton/ll_aton.c ****     return -1;
 2459              		.loc 1 511 12
 2460 0032 4FF0FF33 		mov	r3, #-1
 2461 0036 38E3     		b	.L191
 2462              	.L145:
 512:Lib/AI_Runtime/Npu/ll_aton/ll_aton.c ****     // if (conf->dir == 0 && (conf->nbits_in > conf->nbits_out)) return -1;
 513:Lib/AI_Runtime/Npu/ll_aton/ll_aton.c **** #ifndef ATON_IMC_NUM
 514:Lib/AI_Runtime/Npu/ll_aton/ll_aton.c ****   if (conf->nbits_in > 24 || conf->nbits_out > 24)
 2463              		.loc 1 514 11
 2464 0038 BB68     		ldr	r3, [r7, #8]
 2465 003a 93F84430 		ldrb	r3, [r3, #68]	@ zero_extendqisi2
 2466              		.loc 1 514 6
 2467 003e 182B     		cmp	r3, #24
 2468 0040 04D8     		bhi	.L146
 2469              		.loc 1 514 34 discriminator 1
 2470 0042 BB68     		ldr	r3, [r7, #8]
 2471 0044 93F84530 		ldrb	r3, [r3, #69]	@ zero_extendqisi2
 2472              		.loc 1 514 27 discriminator 1
 2473 0048 182B     		cmp	r3, #24
 2474 004a 02D9     		bls	.L147
 2475              	.L146:
 515:Lib/AI_Runtime/Npu/ll_aton/ll_aton.c ****     return -1;
 2476              		.loc 1 515 12
 2477 004c 4FF0FF33 		mov	r3, #-1
 2478 0050 2BE3     		b	.L191
 2479              	.L147:
 516:Lib/AI_Runtime/Npu/ll_aton/ll_aton.c **** #endif
 517:Lib/AI_Runtime/Npu/ll_aton/ll_aton.c **** 
 518:Lib/AI_Runtime/Npu/ll_aton/ll_aton.c ****   t = ATON_STRENG_CTRL_DT;
 2480              		.loc 1 518 5
 2481 0052 0023     		movs	r3, #0
 2482 0054 7B65     		str	r3, [r7, #84]
 519:Lib/AI_Runtime/Npu/ll_aton/ll_aton.c ****   t = ATON_STRENG_CTRL_SET_DIR(t, (conf->dir != 0));
 2483              		.loc 1 519 7
 2484 0056 7B6D     		ldr	r3, [r7, #84]
 2485 0058 23F00802 		bic	r2, r3, #8
 2486 005c BB68     		ldr	r3, [r7, #8]
 2487 005e 1B78     		ldrb	r3, [r3]	@ zero_extendqisi2
 2488 0060 DB00     		lsls	r3, r3, #3
 2489 0062 03F00803 		and	r3, r3, #8
 2490              		.loc 1 519 5
 2491 0066 1343     		orrs	r3, r3, r2
 2492 0068 7B65     		str	r3, [r7, #84]
 520:Lib/AI_Runtime/Npu/ll_aton/ll_aton.c ****   t = ATON_STRENG_CTRL_SET_RAW(t, (conf->raw != 0));
 2493              		.loc 1 520 7
ARM GAS  /tmp/ccxZaNgH.s 			page 65


 2494 006a 7B6D     		ldr	r3, [r7, #84]
 2495 006c 23F48072 		bic	r2, r3, #256
 2496 0070 BB68     		ldr	r3, [r7, #8]
 2497 0072 1B78     		ldrb	r3, [r3]	@ zero_extendqisi2
 2498 0074 DB01     		lsls	r3, r3, #7
 2499 0076 03F48073 		and	r3, r3, #256
 2500              		.loc 1 520 5
 2501 007a 1343     		orrs	r3, r3, r2
 2502 007c 7B65     		str	r3, [r7, #84]
 521:Lib/AI_Runtime/Npu/ll_aton/ll_aton.c **** #ifdef ATON_STRENG_CTRL_SET_RAW_OUT
 522:Lib/AI_Runtime/Npu/ll_aton/ll_aton.c ****   t = ATON_STRENG_CTRL_SET_RAW_OUT(t, conf->raw_out);
 2503              		.loc 1 522 7
 2504 007e 7B6D     		ldr	r3, [r7, #84]
 2505 0080 23F40072 		bic	r2, r3, #512
 2506 0084 BB68     		ldr	r3, [r7, #8]
 2507 0086 1B78     		ldrb	r3, [r3]
 2508 0088 C3F38003 		ubfx	r3, r3, #2, #1
 2509 008c DBB2     		uxtb	r3, r3
 2510 008e 5B02     		lsls	r3, r3, #9
 2511 0090 03F40073 		and	r3, r3, #512
 2512              		.loc 1 522 5
 2513 0094 1343     		orrs	r3, r3, r2
 2514 0096 7B65     		str	r3, [r7, #84]
 523:Lib/AI_Runtime/Npu/ll_aton/ll_aton.c **** #else
 524:Lib/AI_Runtime/Npu/ll_aton/ll_aton.c ****   /* Hardware feature not supported */
 525:Lib/AI_Runtime/Npu/ll_aton/ll_aton.c ****   LL_ATON_ASSERT(conf->raw_out == 0);
 526:Lib/AI_Runtime/Npu/ll_aton/ll_aton.c **** #endif
 527:Lib/AI_Runtime/Npu/ll_aton/ll_aton.c ****   t = ATON_STRENG_CTRL_SET_NOBLK(t, (conf->noblk != 0));
 2515              		.loc 1 527 7
 2516 0098 7B6D     		ldr	r3, [r7, #84]
 2517 009a 23F40062 		bic	r2, r3, #2048
 2518 009e BB68     		ldr	r3, [r7, #8]
 2519 00a0 1B78     		ldrb	r3, [r3]	@ zero_extendqisi2
 2520 00a2 DB01     		lsls	r3, r3, #7
 2521 00a4 03F40063 		and	r3, r3, #2048
 2522              		.loc 1 527 5
 2523 00a8 1343     		orrs	r3, r3, r2
 2524 00aa 7B65     		str	r3, [r7, #84]
 528:Lib/AI_Runtime/Npu/ll_aton/ll_aton.c ****   t = ATON_STRENG_CTRL_SET_NOINC(t, (conf->noinc == 1));
 2525              		.loc 1 528 7
 2526 00ac 7B6D     		ldr	r3, [r7, #84]
 2527 00ae 23F01002 		bic	r2, r3, #16
 2528 00b2 BB68     		ldr	r3, [r7, #8]
 2529 00b4 1B78     		ldrb	r3, [r3]	@ zero_extendqisi2
 2530 00b6 5B08     		lsrs	r3, r3, #1
 2531 00b8 DBB2     		uxtb	r3, r3
 2532 00ba 03F01003 		and	r3, r3, #16
 2533              		.loc 1 528 5
 2534 00be 1343     		orrs	r3, r3, r2
 2535 00c0 7B65     		str	r3, [r7, #84]
 529:Lib/AI_Runtime/Npu/ll_aton/ll_aton.c ****   t = ATON_STRENG_CTRL_SET_SINGLE(t, conf->frame_tot_cnt == 1);
 2536              		.loc 1 529 7
 2537 00c2 7B6D     		ldr	r3, [r7, #84]
 2538 00c4 23F00403 		bic	r3, r3, #4
 2539 00c8 BA68     		ldr	r2, [r7, #8]
 2540 00ca 126C     		ldr	r2, [r2, #64]
 2541 00cc 012A     		cmp	r2, #1
ARM GAS  /tmp/ccxZaNgH.s 			page 66


 2542 00ce 01D1     		bne	.L148
 2543              		.loc 1 529 7 is_stmt 0 discriminator 1
 2544 00d0 0422     		movs	r2, #4
 2545 00d2 00E0     		b	.L149
 2546              	.L148:
 2547              		.loc 1 529 7 discriminator 2
 2548 00d4 0022     		movs	r2, #0
 2549              	.L149:
 2550              		.loc 1 529 5 is_stmt 1 discriminator 4
 2551 00d6 1343     		orrs	r3, r3, r2
 2552 00d8 7B65     		str	r3, [r7, #84]
 530:Lib/AI_Runtime/Npu/ll_aton/ll_aton.c ****   t = ATON_STRENG_CTRL_SET_CONT(t, conf->continuous == 1);
 2553              		.loc 1 530 7
 2554 00da 7B6D     		ldr	r3, [r7, #84]
 2555 00dc 23F08002 		bic	r2, r3, #128
 2556 00e0 BB68     		ldr	r3, [r7, #8]
 2557 00e2 1B78     		ldrb	r3, [r3]	@ zero_extendqisi2
 2558 00e4 1B01     		lsls	r3, r3, #4
 2559 00e6 03F08003 		and	r3, r3, #128
 2560              		.loc 1 530 5
 2561 00ea 1343     		orrs	r3, r3, r2
 2562 00ec 7B65     		str	r3, [r7, #84]
 531:Lib/AI_Runtime/Npu/ll_aton/ll_aton.c ****   t = ATON_STRENG_CTRL_SET_LSBMODE(t, conf->align_right == 1);
 2563              		.loc 1 531 7
 2564 00ee 7B6D     		ldr	r3, [r7, #84]
 2565 00f0 23F48042 		bic	r2, r3, #16384
 2566 00f4 BB68     		ldr	r3, [r7, #8]
 2567 00f6 1B78     		ldrb	r3, [r3]	@ zero_extendqisi2
 2568 00f8 1B02     		lsls	r3, r3, #8
 2569 00fa 03F48043 		and	r3, r3, #16384
 2570              		.loc 1 531 5
 2571 00fe 1343     		orrs	r3, r3, r2
 2572 0100 7B65     		str	r3, [r7, #84]
 532:Lib/AI_Runtime/Npu/ll_aton/ll_aton.c ****   t = ATON_STRENG_CTRL_SET_SIGNEXT(t, conf->align_right == 1 && conf->nbits_unsigned == 0);
 2573              		.loc 1 532 7
 2574 0102 7B6D     		ldr	r3, [r7, #84]
 2575 0104 23F40042 		bic	r2, r3, #32768
 2576 0108 BB68     		ldr	r3, [r7, #8]
 2577 010a 1B78     		ldrb	r3, [r3]	@ zero_extendqisi2
 2578 010c 03F04003 		and	r3, r3, #64
 2579 0110 DBB2     		uxtb	r3, r3
 2580 0112 002B     		cmp	r3, #0
 2581 0114 08D0     		beq	.L150
 2582              		.loc 1 532 7 is_stmt 0 discriminator 1
 2583 0116 BB68     		ldr	r3, [r7, #8]
 2584 0118 5B78     		ldrb	r3, [r3, #1]	@ zero_extendqisi2
 2585 011a 03F00203 		and	r3, r3, #2
 2586 011e DBB2     		uxtb	r3, r3
 2587 0120 002B     		cmp	r3, #0
 2588 0122 01D1     		bne	.L150
 2589              		.loc 1 532 7 discriminator 3
 2590 0124 0123     		movs	r3, #1
 2591              		.loc 1 532 7
 2592 0126 00E0     		b	.L151
 2593              	.L150:
 2594              		.loc 1 532 7 discriminator 4
 2595 0128 0023     		movs	r3, #0
ARM GAS  /tmp/ccxZaNgH.s 			page 67


 2596              	.L151:
 2597              		.loc 1 532 7 discriminator 6
 2598 012a DB03     		lsls	r3, r3, #15
 2599 012c 9BB2     		uxth	r3, r3
 2600              		.loc 1 532 5 is_stmt 1 discriminator 6
 2601 012e 1343     		orrs	r3, r3, r2
 2602 0130 7B65     		str	r3, [r7, #84]
 533:Lib/AI_Runtime/Npu/ll_aton/ll_aton.c **** 
 534:Lib/AI_Runtime/Npu/ll_aton/ll_aton.c ****   int ch_bits[3] = {0, 0, 0};
 2603              		.loc 1 534 7
 2604 0132 0023     		movs	r3, #0
 2605 0134 FB62     		str	r3, [r7, #44]
 2606 0136 0023     		movs	r3, #0
 2607 0138 3B63     		str	r3, [r7, #48]
 2608 013a 0023     		movs	r3, #0
 2609 013c 7B63     		str	r3, [r7, #52]
 535:Lib/AI_Runtime/Npu/ll_aton/ll_aton.c ****   int in_bits[3];
 536:Lib/AI_Runtime/Npu/ll_aton/ll_aton.c ****   int out_bits[3];
 537:Lib/AI_Runtime/Npu/ll_aton/ll_aton.c ****   int nbits_out = conf->nbits_out;
 2610              		.loc 1 537 23
 2611 013e BB68     		ldr	r3, [r7, #8]
 2612 0140 93F84530 		ldrb	r3, [r3, #69]	@ zero_extendqisi2
 2613              		.loc 1 537 7
 2614 0144 7B64     		str	r3, [r7, #68]
 538:Lib/AI_Runtime/Npu/ll_aton/ll_aton.c ****   int nbits_in = conf->nbits_in;
 2615              		.loc 1 538 22
 2616 0146 BB68     		ldr	r3, [r7, #8]
 2617 0148 93F84430 		ldrb	r3, [r3, #68]	@ zero_extendqisi2
 2618              		.loc 1 538 7
 2619 014c 3B64     		str	r3, [r7, #64]
 539:Lib/AI_Runtime/Npu/ll_aton/ll_aton.c **** 
 540:Lib/AI_Runtime/Npu/ll_aton/ll_aton.c ****   // case 0: bus -> stream --> in_bits > out_bits -> use FRONT_GAP
 541:Lib/AI_Runtime/Npu/ll_aton/ll_aton.c ****   //                      |
 542:Lib/AI_Runtime/Npu/ll_aton/ll_aton.c ****   // case 1:              --> in_bits <= out_bits -> use lanes but valid for out_bits=8,16,24 for o
 543:Lib/AI_Runtime/Npu/ll_aton/ll_aton.c ****   // is right shifted by (8,16,24) - out_bits
 544:Lib/AI_Runtime/Npu/ll_aton/ll_aton.c ****   //
 545:Lib/AI_Runtime/Npu/ll_aton/ll_aton.c ****   // case 2: stream->bus  --> in_bits >= out_bits -> use lanes but valid for in_bits=8,16,24 for ot
 546:Lib/AI_Runtime/Npu/ll_aton/ll_aton.c ****   // right shifted by (8,16,24) - out_bits
 547:Lib/AI_Runtime/Npu/ll_aton/ll_aton.c ****   //                      |
 548:Lib/AI_Runtime/Npu/ll_aton/ll_aton.c ****   // case 3:              --> in_bits < out_bits -> use FRONT_GAP
 549:Lib/AI_Runtime/Npu/ll_aton/ll_aton.c **** 
 550:Lib/AI_Runtime/Npu/ll_aton/ll_aton.c ****   int io_case = ((conf->dir != 0) << 1);
 2620              		.loc 1 550 29
 2621 014e BB68     		ldr	r3, [r7, #8]
 2622 0150 1B78     		ldrb	r3, [r3]	@ zero_extendqisi2
 2623              		.loc 1 550 35
 2624 0152 5B00     		lsls	r3, r3, #1
 2625              		.loc 1 550 7
 2626 0154 03F00203 		and	r3, r3, #2
 2627 0158 FB63     		str	r3, [r7, #60]
 551:Lib/AI_Runtime/Npu/ll_aton/ll_aton.c ****   io_case += (conf->dir == 0 ? (conf->nbits_in <= conf->nbits_out) : (conf->nbits_in < conf->nbits_
 2628              		.loc 1 551 25
 2629 015a BB68     		ldr	r3, [r7, #8]
 2630 015c 1B78     		ldrb	r3, [r3]	@ zero_extendqisi2
 2631 015e 03F00103 		and	r3, r3, #1
 2632 0162 DBB2     		uxtb	r3, r3
 2633              		.loc 1 551 68
ARM GAS  /tmp/ccxZaNgH.s 			page 68


 2634 0164 002B     		cmp	r3, #0
 2635 0166 0CD1     		bne	.L152
 2636              		.loc 1 551 37 discriminator 1
 2637 0168 BB68     		ldr	r3, [r7, #8]
 2638 016a 93F84420 		ldrb	r2, [r3, #68]	@ zero_extendqisi2
 2639              		.loc 1 551 55 discriminator 1
 2640 016e BB68     		ldr	r3, [r7, #8]
 2641 0170 93F84530 		ldrb	r3, [r3, #69]	@ zero_extendqisi2
 2642              		.loc 1 551 48 discriminator 1
 2643 0174 9A42     		cmp	r2, r3
 2644 0176 94BF     		ite	ls
 2645 0178 0123     		movls	r3, #1
 2646 017a 0023     		movhi	r3, #0
 2647 017c DBB2     		uxtb	r3, r3
 2648              		.loc 1 551 68 discriminator 1
 2649 017e 1A46     		mov	r2, r3
 2650 0180 0BE0     		b	.L153
 2651              	.L152:
 2652              		.loc 1 551 75 discriminator 2
 2653 0182 BB68     		ldr	r3, [r7, #8]
 2654 0184 93F84420 		ldrb	r2, [r3, #68]	@ zero_extendqisi2
 2655              		.loc 1 551 92 discriminator 2
 2656 0188 BB68     		ldr	r3, [r7, #8]
 2657 018a 93F84530 		ldrb	r3, [r3, #69]	@ zero_extendqisi2
 2658              		.loc 1 551 86 discriminator 2
 2659 018e 9A42     		cmp	r2, r3
 2660 0190 34BF     		ite	cc
 2661 0192 0123     		movcc	r3, #1
 2662 0194 0023     		movcs	r3, #0
 2663 0196 DBB2     		uxtb	r3, r3
 2664              		.loc 1 551 68 discriminator 2
 2665 0198 1A46     		mov	r2, r3
 2666              	.L153:
 2667              		.loc 1 551 11 discriminator 4
 2668 019a FB6B     		ldr	r3, [r7, #60]
 2669 019c 1344     		add	r3, r3, r2
 2670 019e FB63     		str	r3, [r7, #60]
 552:Lib/AI_Runtime/Npu/ll_aton/ll_aton.c **** 
 553:Lib/AI_Runtime/Npu/ll_aton/ll_aton.c ****   switch (io_case)
 2671              		.loc 1 553 3
 2672 01a0 FB6B     		ldr	r3, [r7, #60]
 2673 01a2 032B     		cmp	r3, #3
 2674 01a4 00F2C880 		bhi	.L154
 2675 01a8 01A2     		adr	r2, .L156
 2676 01aa 52F823F0 		ldr	pc, [r2, r3, lsl #2]
 2677 01ae 00BF     		.p2align 2
 2678              	.L156:
 2679 01b0 C1010000 		.word	.L159+1
 2680 01b4 01020000 		.word	.L158+1
 2681 01b8 BD020000 		.word	.L157+1
 2682 01bc 7D020000 		.word	.L155+1
 2683              		.p2align 1
 2684              	.L159:
 554:Lib/AI_Runtime/Npu/ll_aton/ll_aton.c ****   {
 555:Lib/AI_Runtime/Npu/ll_aton/ll_aton.c ****   case 0: // in_bits > out_bits && bus->stream
 556:Lib/AI_Runtime/Npu/ll_aton/ll_aton.c ****           // must use FRONT_GAP
 557:Lib/AI_Runtime/Npu/ll_aton/ll_aton.c ****   {
ARM GAS  /tmp/ccxZaNgH.s 			page 69


 558:Lib/AI_Runtime/Npu/ll_aton/ll_aton.c ****     if (conf->mem_lsb)
 2685              		.loc 1 558 9
 2686 01c0 BB68     		ldr	r3, [r7, #8]
 2687 01c2 1B78     		ldrb	r3, [r3]	@ zero_extendqisi2
 2688 01c4 23F07F03 		bic	r3, r3, #127
 2689 01c8 DBB2     		uxtb	r3, r3
 2690              		.loc 1 558 8
 2691 01ca 002B     		cmp	r3, #0
 2692 01cc 0BD0     		beq	.L160
 559:Lib/AI_Runtime/Npu/ll_aton/ll_aton.c ****       t_streng_strd = ATON_STRENG_STRD_SET_FGAP(t_streng_strd, (nbits_in - nbits_out));
 2693              		.loc 1 559 23
 2694 01ce 3B6D     		ldr	r3, [r7, #80]
 2695 01d0 23F47C12 		bic	r2, r3, #4128768
 2696 01d4 396C     		ldr	r1, [r7, #64]
 2697 01d6 7B6C     		ldr	r3, [r7, #68]
 2698 01d8 CB1A     		subs	r3, r1, r3
 2699 01da 1B04     		lsls	r3, r3, #16
 2700 01dc 03F47C13 		and	r3, r3, #4128768
 2701              		.loc 1 559 21
 2702 01e0 1343     		orrs	r3, r3, r2
 2703 01e2 3B65     		str	r3, [r7, #80]
 2704 01e4 0AE0     		b	.L161
 2705              	.L160:
 560:Lib/AI_Runtime/Npu/ll_aton/ll_aton.c ****     else
 561:Lib/AI_Runtime/Npu/ll_aton/ll_aton.c ****       t_streng_strd = ATON_STRENG_STRD_SET_BGAP(t_streng_strd, (nbits_in - nbits_out));
 2706              		.loc 1 561 23
 2707 01e6 3B6D     		ldr	r3, [r7, #80]
 2708 01e8 23F07C52 		bic	r2, r3, #1056964608
 2709 01ec 396C     		ldr	r1, [r7, #64]
 2710 01ee 7B6C     		ldr	r3, [r7, #68]
 2711 01f0 CB1A     		subs	r3, r1, r3
 2712 01f2 1B06     		lsls	r3, r3, #24
 2713 01f4 03F07C53 		and	r3, r3, #1056964608
 2714              		.loc 1 561 21
 2715 01f8 1343     		orrs	r3, r3, r2
 2716 01fa 3B65     		str	r3, [r7, #80]
 2717              	.L161:
 562:Lib/AI_Runtime/Npu/ll_aton/ll_aton.c ****     nbits_in = nbits_out;
 2718              		.loc 1 562 14
 2719 01fc 7B6C     		ldr	r3, [r7, #68]
 2720 01fe 3B64     		str	r3, [r7, #64]
 2721              	.L158:
 563:Lib/AI_Runtime/Npu/ll_aton/ll_aton.c ****   }
 564:Lib/AI_Runtime/Npu/ll_aton/ll_aton.c ****   // intentional fall through
 565:Lib/AI_Runtime/Npu/ll_aton/ll_aton.c ****   case 1: // in_bits <= out_bits && bus->stream
 566:Lib/AI_Runtime/Npu/ll_aton/ll_aton.c ****     in_bits[0] = _LL_min(8, nbits_in);
 2722              		.loc 1 566 18
 2723 0200 3B6C     		ldr	r3, [r7, #64]
 2724 0202 082B     		cmp	r3, #8
 2725 0204 A8BF     		it	ge
 2726 0206 0823     		movge	r3, #8
 2727              		.loc 1 566 16
 2728 0208 3B62     		str	r3, [r7, #32]
 567:Lib/AI_Runtime/Npu/ll_aton/ll_aton.c ****     in_bits[1] = nbits_in > 8 ? _LL_min(8, nbits_in - 8) : 0;
 2729              		.loc 1 567 58
 2730 020a 3B6C     		ldr	r3, [r7, #64]
 2731 020c 082B     		cmp	r3, #8
ARM GAS  /tmp/ccxZaNgH.s 			page 70


 2732 020e 05DD     		ble	.L162
 2733              		.loc 1 567 33 discriminator 1
 2734 0210 3B6C     		ldr	r3, [r7, #64]
 2735 0212 102B     		cmp	r3, #16
 2736 0214 A8BF     		it	ge
 2737 0216 1023     		movge	r3, #16
 2738              		.loc 1 567 58 discriminator 1
 2739 0218 083B     		subs	r3, r3, #8
 2740 021a 00E0     		b	.L163
 2741              	.L162:
 2742              		.loc 1 567 58 is_stmt 0 discriminator 2
 2743 021c 0023     		movs	r3, #0
 2744              	.L163:
 2745              		.loc 1 567 16 is_stmt 1 discriminator 4
 2746 021e 7B62     		str	r3, [r7, #36]
 568:Lib/AI_Runtime/Npu/ll_aton/ll_aton.c ****     in_bits[2] = nbits_in > 16 ? _LL_min(8, nbits_in - 16) : 0;
 2747              		.loc 1 568 60
 2748 0220 3B6C     		ldr	r3, [r7, #64]
 2749 0222 102B     		cmp	r3, #16
 2750 0224 05DD     		ble	.L164
 2751              		.loc 1 568 34 discriminator 1
 2752 0226 3B6C     		ldr	r3, [r7, #64]
 2753 0228 182B     		cmp	r3, #24
 2754 022a A8BF     		it	ge
 2755 022c 1823     		movge	r3, #24
 2756              		.loc 1 568 60 discriminator 1
 2757 022e 103B     		subs	r3, r3, #16
 2758 0230 00E0     		b	.L165
 2759              	.L164:
 2760              		.loc 1 568 60 is_stmt 0 discriminator 2
 2761 0232 0023     		movs	r3, #0
 2762              	.L165:
 2763              		.loc 1 568 16 is_stmt 1 discriminator 4
 2764 0234 BB62     		str	r3, [r7, #40]
 569:Lib/AI_Runtime/Npu/ll_aton/ll_aton.c ****     if (conf->align_right)
 2765              		.loc 1 569 9
 2766 0236 BB68     		ldr	r3, [r7, #8]
 2767 0238 1B78     		ldrb	r3, [r3]	@ zero_extendqisi2
 2768 023a 03F04003 		and	r3, r3, #64
 2769 023e DBB2     		uxtb	r3, r3
 2770              		.loc 1 569 8
 2771 0240 002B     		cmp	r3, #0
 2772 0242 06D0     		beq	.L166
 570:Lib/AI_Runtime/Npu/ll_aton/ll_aton.c ****     {
 571:Lib/AI_Runtime/Npu/ll_aton/ll_aton.c ****       ch_bits[0] = in_bits[0];
 2773              		.loc 1 571 27
 2774 0244 3B6A     		ldr	r3, [r7, #32]
 2775              		.loc 1 571 18
 2776 0246 FB62     		str	r3, [r7, #44]
 572:Lib/AI_Runtime/Npu/ll_aton/ll_aton.c ****       ch_bits[1] = in_bits[1];
 2777              		.loc 1 572 27
 2778 0248 7B6A     		ldr	r3, [r7, #36]
 2779              		.loc 1 572 18
 2780 024a 3B63     		str	r3, [r7, #48]
 573:Lib/AI_Runtime/Npu/ll_aton/ll_aton.c ****       ch_bits[2] = in_bits[2];
 2781              		.loc 1 573 27
 2782 024c BB6A     		ldr	r3, [r7, #40]
ARM GAS  /tmp/ccxZaNgH.s 			page 71


 2783              		.loc 1 573 18
 2784 024e 7B63     		str	r3, [r7, #52]
 574:Lib/AI_Runtime/Npu/ll_aton/ll_aton.c ****     }
 575:Lib/AI_Runtime/Npu/ll_aton/ll_aton.c ****     else
 576:Lib/AI_Runtime/Npu/ll_aton/ll_aton.c ****     {
 577:Lib/AI_Runtime/Npu/ll_aton/ll_aton.c ****       if (nbits_out > 16)
 578:Lib/AI_Runtime/Npu/ll_aton/ll_aton.c ****       {
 579:Lib/AI_Runtime/Npu/ll_aton/ll_aton.c ****         ch_bits[2] = in_bits[0];
 580:Lib/AI_Runtime/Npu/ll_aton/ll_aton.c ****         ch_bits[1] = in_bits[1];
 581:Lib/AI_Runtime/Npu/ll_aton/ll_aton.c ****         ch_bits[0] = in_bits[2];
 582:Lib/AI_Runtime/Npu/ll_aton/ll_aton.c ****       }
 583:Lib/AI_Runtime/Npu/ll_aton/ll_aton.c ****       else if (nbits_out > 8)
 584:Lib/AI_Runtime/Npu/ll_aton/ll_aton.c ****       {
 585:Lib/AI_Runtime/Npu/ll_aton/ll_aton.c ****         ch_bits[1] = in_bits[0];
 586:Lib/AI_Runtime/Npu/ll_aton/ll_aton.c ****         ch_bits[0] = in_bits[1];
 587:Lib/AI_Runtime/Npu/ll_aton/ll_aton.c ****       } // N.B. the DMA stuffs the bits to the left of the channel
 588:Lib/AI_Runtime/Npu/ll_aton/ll_aton.c ****       else
 589:Lib/AI_Runtime/Npu/ll_aton/ll_aton.c ****         ch_bits[0] = in_bits[0];
 590:Lib/AI_Runtime/Npu/ll_aton/ll_aton.c ****     }
 591:Lib/AI_Runtime/Npu/ll_aton/ll_aton.c ****     break;
 2785              		.loc 1 591 5
 2786 0250 72E0     		b	.L154
 2787              	.L166:
 577:Lib/AI_Runtime/Npu/ll_aton/ll_aton.c ****       {
 2788              		.loc 1 577 10
 2789 0252 7B6C     		ldr	r3, [r7, #68]
 2790 0254 102B     		cmp	r3, #16
 2791 0256 06DD     		ble	.L168
 579:Lib/AI_Runtime/Npu/ll_aton/ll_aton.c ****         ch_bits[1] = in_bits[1];
 2792              		.loc 1 579 29
 2793 0258 3B6A     		ldr	r3, [r7, #32]
 579:Lib/AI_Runtime/Npu/ll_aton/ll_aton.c ****         ch_bits[1] = in_bits[1];
 2794              		.loc 1 579 20
 2795 025a 7B63     		str	r3, [r7, #52]
 580:Lib/AI_Runtime/Npu/ll_aton/ll_aton.c ****         ch_bits[0] = in_bits[2];
 2796              		.loc 1 580 29
 2797 025c 7B6A     		ldr	r3, [r7, #36]
 580:Lib/AI_Runtime/Npu/ll_aton/ll_aton.c ****         ch_bits[0] = in_bits[2];
 2798              		.loc 1 580 20
 2799 025e 3B63     		str	r3, [r7, #48]
 581:Lib/AI_Runtime/Npu/ll_aton/ll_aton.c ****       }
 2800              		.loc 1 581 29
 2801 0260 BB6A     		ldr	r3, [r7, #40]
 581:Lib/AI_Runtime/Npu/ll_aton/ll_aton.c ****       }
 2802              		.loc 1 581 20
 2803 0262 FB62     		str	r3, [r7, #44]
 2804              		.loc 1 591 5
 2805 0264 68E0     		b	.L154
 2806              	.L168:
 583:Lib/AI_Runtime/Npu/ll_aton/ll_aton.c ****       {
 2807              		.loc 1 583 15
 2808 0266 7B6C     		ldr	r3, [r7, #68]
 2809 0268 082B     		cmp	r3, #8
 2810 026a 04DD     		ble	.L169
 585:Lib/AI_Runtime/Npu/ll_aton/ll_aton.c ****         ch_bits[0] = in_bits[1];
 2811              		.loc 1 585 29
 2812 026c 3B6A     		ldr	r3, [r7, #32]
ARM GAS  /tmp/ccxZaNgH.s 			page 72


 585:Lib/AI_Runtime/Npu/ll_aton/ll_aton.c ****         ch_bits[0] = in_bits[1];
 2813              		.loc 1 585 20
 2814 026e 3B63     		str	r3, [r7, #48]
 586:Lib/AI_Runtime/Npu/ll_aton/ll_aton.c ****       } // N.B. the DMA stuffs the bits to the left of the channel
 2815              		.loc 1 586 29
 2816 0270 7B6A     		ldr	r3, [r7, #36]
 586:Lib/AI_Runtime/Npu/ll_aton/ll_aton.c ****       } // N.B. the DMA stuffs the bits to the left of the channel
 2817              		.loc 1 586 20
 2818 0272 FB62     		str	r3, [r7, #44]
 2819              		.loc 1 591 5
 2820 0274 60E0     		b	.L154
 2821              	.L169:
 589:Lib/AI_Runtime/Npu/ll_aton/ll_aton.c ****     }
 2822              		.loc 1 589 29
 2823 0276 3B6A     		ldr	r3, [r7, #32]
 589:Lib/AI_Runtime/Npu/ll_aton/ll_aton.c ****     }
 2824              		.loc 1 589 20
 2825 0278 FB62     		str	r3, [r7, #44]
 2826              		.loc 1 591 5
 2827 027a 5DE0     		b	.L154
 2828              	.L155:
 592:Lib/AI_Runtime/Npu/ll_aton/ll_aton.c ****   case 3: // in_bits < out_bits && stream->bus
 593:Lib/AI_Runtime/Npu/ll_aton/ll_aton.c ****   {
 594:Lib/AI_Runtime/Npu/ll_aton/ll_aton.c ****     if (conf->mem_lsb)
 2829              		.loc 1 594 9
 2830 027c BB68     		ldr	r3, [r7, #8]
 2831 027e 1B78     		ldrb	r3, [r3]	@ zero_extendqisi2
 2832 0280 23F07F03 		bic	r3, r3, #127
 2833 0284 DBB2     		uxtb	r3, r3
 2834              		.loc 1 594 8
 2835 0286 002B     		cmp	r3, #0
 2836 0288 0BD0     		beq	.L170
 595:Lib/AI_Runtime/Npu/ll_aton/ll_aton.c ****       t_streng_strd = ATON_STRENG_STRD_SET_FGAP(t_streng_strd, (nbits_out - nbits_in));
 2837              		.loc 1 595 23
 2838 028a 3B6D     		ldr	r3, [r7, #80]
 2839 028c 23F47C12 		bic	r2, r3, #4128768
 2840 0290 796C     		ldr	r1, [r7, #68]
 2841 0292 3B6C     		ldr	r3, [r7, #64]
 2842 0294 CB1A     		subs	r3, r1, r3
 2843 0296 1B04     		lsls	r3, r3, #16
 2844 0298 03F47C13 		and	r3, r3, #4128768
 2845              		.loc 1 595 21
 2846 029c 1343     		orrs	r3, r3, r2
 2847 029e 3B65     		str	r3, [r7, #80]
 2848 02a0 0AE0     		b	.L171
 2849              	.L170:
 596:Lib/AI_Runtime/Npu/ll_aton/ll_aton.c ****     else
 597:Lib/AI_Runtime/Npu/ll_aton/ll_aton.c ****       t_streng_strd = ATON_STRENG_STRD_SET_BGAP(t_streng_strd, (nbits_out - nbits_in));
 2850              		.loc 1 597 23
 2851 02a2 3B6D     		ldr	r3, [r7, #80]
 2852 02a4 23F07C52 		bic	r2, r3, #1056964608
 2853 02a8 796C     		ldr	r1, [r7, #68]
 2854 02aa 3B6C     		ldr	r3, [r7, #64]
 2855 02ac CB1A     		subs	r3, r1, r3
 2856 02ae 1B06     		lsls	r3, r3, #24
 2857 02b0 03F07C53 		and	r3, r3, #1056964608
 2858              		.loc 1 597 21
ARM GAS  /tmp/ccxZaNgH.s 			page 73


 2859 02b4 1343     		orrs	r3, r3, r2
 2860 02b6 3B65     		str	r3, [r7, #80]
 2861              	.L171:
 598:Lib/AI_Runtime/Npu/ll_aton/ll_aton.c ****     nbits_out = nbits_in;
 2862              		.loc 1 598 15
 2863 02b8 3B6C     		ldr	r3, [r7, #64]
 2864 02ba 7B64     		str	r3, [r7, #68]
 2865              	.L157:
 599:Lib/AI_Runtime/Npu/ll_aton/ll_aton.c ****   }
 600:Lib/AI_Runtime/Npu/ll_aton/ll_aton.c ****   // intentional fall through
 601:Lib/AI_Runtime/Npu/ll_aton/ll_aton.c ****   case 2: // in_bits >= out_bits && stream->bus
 602:Lib/AI_Runtime/Npu/ll_aton/ll_aton.c ****     out_bits[0] = _LL_min(8, nbits_out);
 2866              		.loc 1 602 19
 2867 02bc 7B6C     		ldr	r3, [r7, #68]
 2868 02be 082B     		cmp	r3, #8
 2869 02c0 A8BF     		it	ge
 2870 02c2 0823     		movge	r3, #8
 2871              		.loc 1 602 17
 2872 02c4 7B61     		str	r3, [r7, #20]
 603:Lib/AI_Runtime/Npu/ll_aton/ll_aton.c ****     out_bits[1] = nbits_out > 8 ? _LL_min(8, nbits_out - 8) : 0;
 2873              		.loc 1 603 61
 2874 02c6 7B6C     		ldr	r3, [r7, #68]
 2875 02c8 082B     		cmp	r3, #8
 2876 02ca 05DD     		ble	.L172
 2877              		.loc 1 603 35 discriminator 1
 2878 02cc 7B6C     		ldr	r3, [r7, #68]
 2879 02ce 102B     		cmp	r3, #16
 2880 02d0 A8BF     		it	ge
 2881 02d2 1023     		movge	r3, #16
 2882              		.loc 1 603 61 discriminator 1
 2883 02d4 083B     		subs	r3, r3, #8
 2884 02d6 00E0     		b	.L173
 2885              	.L172:
 2886              		.loc 1 603 61 is_stmt 0 discriminator 2
 2887 02d8 0023     		movs	r3, #0
 2888              	.L173:
 2889              		.loc 1 603 17 is_stmt 1 discriminator 4
 2890 02da BB61     		str	r3, [r7, #24]
 604:Lib/AI_Runtime/Npu/ll_aton/ll_aton.c ****     out_bits[2] = nbits_out > 16 ? _LL_min(8, nbits_out - 16) : 0;
 2891              		.loc 1 604 63
 2892 02dc 7B6C     		ldr	r3, [r7, #68]
 2893 02de 102B     		cmp	r3, #16
 2894 02e0 05DD     		ble	.L174
 2895              		.loc 1 604 36 discriminator 1
 2896 02e2 7B6C     		ldr	r3, [r7, #68]
 2897 02e4 182B     		cmp	r3, #24
 2898 02e6 A8BF     		it	ge
 2899 02e8 1823     		movge	r3, #24
 2900              		.loc 1 604 63 discriminator 1
 2901 02ea 103B     		subs	r3, r3, #16
 2902 02ec 00E0     		b	.L175
 2903              	.L174:
 2904              		.loc 1 604 63 is_stmt 0 discriminator 2
 2905 02ee 0023     		movs	r3, #0
 2906              	.L175:
 2907              		.loc 1 604 17 is_stmt 1 discriminator 4
 2908 02f0 FB61     		str	r3, [r7, #28]
ARM GAS  /tmp/ccxZaNgH.s 			page 74


 605:Lib/AI_Runtime/Npu/ll_aton/ll_aton.c ****     if (conf->align_right)
 2909              		.loc 1 605 9
 2910 02f2 BB68     		ldr	r3, [r7, #8]
 2911 02f4 1B78     		ldrb	r3, [r3]	@ zero_extendqisi2
 2912 02f6 03F04003 		and	r3, r3, #64
 2913 02fa DBB2     		uxtb	r3, r3
 2914              		.loc 1 605 8
 2915 02fc 002B     		cmp	r3, #0
 2916 02fe 06D0     		beq	.L176
 606:Lib/AI_Runtime/Npu/ll_aton/ll_aton.c ****     {
 607:Lib/AI_Runtime/Npu/ll_aton/ll_aton.c ****       ch_bits[0] = out_bits[0];
 2917              		.loc 1 607 28
 2918 0300 7B69     		ldr	r3, [r7, #20]
 2919              		.loc 1 607 18
 2920 0302 FB62     		str	r3, [r7, #44]
 608:Lib/AI_Runtime/Npu/ll_aton/ll_aton.c ****       ch_bits[1] = out_bits[1];
 2921              		.loc 1 608 28
 2922 0304 BB69     		ldr	r3, [r7, #24]
 2923              		.loc 1 608 18
 2924 0306 3B63     		str	r3, [r7, #48]
 609:Lib/AI_Runtime/Npu/ll_aton/ll_aton.c ****       ch_bits[2] = out_bits[2];
 2925              		.loc 1 609 28
 2926 0308 FB69     		ldr	r3, [r7, #28]
 2927              		.loc 1 609 18
 2928 030a 7B63     		str	r3, [r7, #52]
 610:Lib/AI_Runtime/Npu/ll_aton/ll_aton.c ****     }
 611:Lib/AI_Runtime/Npu/ll_aton/ll_aton.c ****     else
 612:Lib/AI_Runtime/Npu/ll_aton/ll_aton.c ****     {
 613:Lib/AI_Runtime/Npu/ll_aton/ll_aton.c ****       if (nbits_in > 16)
 614:Lib/AI_Runtime/Npu/ll_aton/ll_aton.c ****       {
 615:Lib/AI_Runtime/Npu/ll_aton/ll_aton.c ****         ch_bits[2] = out_bits[0];
 616:Lib/AI_Runtime/Npu/ll_aton/ll_aton.c ****         ch_bits[1] = out_bits[1];
 617:Lib/AI_Runtime/Npu/ll_aton/ll_aton.c ****         ch_bits[0] = out_bits[2];
 618:Lib/AI_Runtime/Npu/ll_aton/ll_aton.c ****       }
 619:Lib/AI_Runtime/Npu/ll_aton/ll_aton.c ****       else if (nbits_in > 8)
 620:Lib/AI_Runtime/Npu/ll_aton/ll_aton.c ****       {
 621:Lib/AI_Runtime/Npu/ll_aton/ll_aton.c ****         ch_bits[1] = out_bits[0];
 622:Lib/AI_Runtime/Npu/ll_aton/ll_aton.c ****         ch_bits[0] = out_bits[1];
 623:Lib/AI_Runtime/Npu/ll_aton/ll_aton.c ****       } // N.B. the DMA stuffs the bits to the left of the channel
 624:Lib/AI_Runtime/Npu/ll_aton/ll_aton.c ****       else
 625:Lib/AI_Runtime/Npu/ll_aton/ll_aton.c ****         ch_bits[0] = out_bits[0];
 626:Lib/AI_Runtime/Npu/ll_aton/ll_aton.c ****     }
 627:Lib/AI_Runtime/Npu/ll_aton/ll_aton.c ****     break;
 2929              		.loc 1 627 5
 2930 030c 13E0     		b	.L192
 2931              	.L176:
 613:Lib/AI_Runtime/Npu/ll_aton/ll_aton.c ****       {
 2932              		.loc 1 613 10
 2933 030e 3B6C     		ldr	r3, [r7, #64]
 2934 0310 102B     		cmp	r3, #16
 2935 0312 06DD     		ble	.L178
 615:Lib/AI_Runtime/Npu/ll_aton/ll_aton.c ****         ch_bits[1] = out_bits[1];
 2936              		.loc 1 615 30
 2937 0314 7B69     		ldr	r3, [r7, #20]
 615:Lib/AI_Runtime/Npu/ll_aton/ll_aton.c ****         ch_bits[1] = out_bits[1];
 2938              		.loc 1 615 20
 2939 0316 7B63     		str	r3, [r7, #52]
ARM GAS  /tmp/ccxZaNgH.s 			page 75


 616:Lib/AI_Runtime/Npu/ll_aton/ll_aton.c ****         ch_bits[0] = out_bits[2];
 2940              		.loc 1 616 30
 2941 0318 BB69     		ldr	r3, [r7, #24]
 616:Lib/AI_Runtime/Npu/ll_aton/ll_aton.c ****         ch_bits[0] = out_bits[2];
 2942              		.loc 1 616 20
 2943 031a 3B63     		str	r3, [r7, #48]
 617:Lib/AI_Runtime/Npu/ll_aton/ll_aton.c ****       }
 2944              		.loc 1 617 30
 2945 031c FB69     		ldr	r3, [r7, #28]
 617:Lib/AI_Runtime/Npu/ll_aton/ll_aton.c ****       }
 2946              		.loc 1 617 20
 2947 031e FB62     		str	r3, [r7, #44]
 2948              		.loc 1 627 5
 2949 0320 09E0     		b	.L192
 2950              	.L178:
 619:Lib/AI_Runtime/Npu/ll_aton/ll_aton.c ****       {
 2951              		.loc 1 619 15
 2952 0322 3B6C     		ldr	r3, [r7, #64]
 2953 0324 082B     		cmp	r3, #8
 2954 0326 04DD     		ble	.L179
 621:Lib/AI_Runtime/Npu/ll_aton/ll_aton.c ****         ch_bits[0] = out_bits[1];
 2955              		.loc 1 621 30
 2956 0328 7B69     		ldr	r3, [r7, #20]
 621:Lib/AI_Runtime/Npu/ll_aton/ll_aton.c ****         ch_bits[0] = out_bits[1];
 2957              		.loc 1 621 20
 2958 032a 3B63     		str	r3, [r7, #48]
 622:Lib/AI_Runtime/Npu/ll_aton/ll_aton.c ****       } // N.B. the DMA stuffs the bits to the left of the channel
 2959              		.loc 1 622 30
 2960 032c BB69     		ldr	r3, [r7, #24]
 622:Lib/AI_Runtime/Npu/ll_aton/ll_aton.c ****       } // N.B. the DMA stuffs the bits to the left of the channel
 2961              		.loc 1 622 20
 2962 032e FB62     		str	r3, [r7, #44]
 2963              		.loc 1 627 5
 2964 0330 01E0     		b	.L192
 2965              	.L179:
 625:Lib/AI_Runtime/Npu/ll_aton/ll_aton.c ****     }
 2966              		.loc 1 625 30
 2967 0332 7B69     		ldr	r3, [r7, #20]
 625:Lib/AI_Runtime/Npu/ll_aton/ll_aton.c ****     }
 2968              		.loc 1 625 20
 2969 0334 FB62     		str	r3, [r7, #44]
 2970              	.L192:
 2971              		.loc 1 627 5
 2972 0336 00BF     		nop
 2973              	.L154:
 628:Lib/AI_Runtime/Npu/ll_aton/ll_aton.c ****   }
 629:Lib/AI_Runtime/Npu/ll_aton/ll_aton.c **** 
 630:Lib/AI_Runtime/Npu/ll_aton/ll_aton.c **** /* Take care of N64 single size register. TODO: double check this  */
 631:Lib/AI_Runtime/Npu/ll_aton/ll_aton.c **** #ifdef ATON_STRENG_CTRL_SET_SIZE1
 632:Lib/AI_Runtime/Npu/ll_aton/ll_aton.c ****   t = ATON_STRENG_CTRL_SET_SIZE0(t, ch_bits[0]);
 2974              		.loc 1 632 7
 2975 0338 7B6D     		ldr	r3, [r7, #84]
 2976 033a 23F47022 		bic	r2, r3, #983040
 2977 033e FB6A     		ldr	r3, [r7, #44]
 2978 0340 1B04     		lsls	r3, r3, #16
 2979 0342 03F47023 		and	r3, r3, #983040
 2980              		.loc 1 632 5
ARM GAS  /tmp/ccxZaNgH.s 			page 76


 2981 0346 1343     		orrs	r3, r3, r2
 2982 0348 7B65     		str	r3, [r7, #84]
 633:Lib/AI_Runtime/Npu/ll_aton/ll_aton.c ****   t = ATON_STRENG_CTRL_SET_SIZE1(t, ch_bits[1]);
 2983              		.loc 1 633 7
 2984 034a 7B6D     		ldr	r3, [r7, #84]
 2985 034c 23F47002 		bic	r2, r3, #15728640
 2986 0350 3B6B     		ldr	r3, [r7, #48]
 2987 0352 1B05     		lsls	r3, r3, #20
 2988 0354 03F47003 		and	r3, r3, #15728640
 2989              		.loc 1 633 5
 2990 0358 1343     		orrs	r3, r3, r2
 2991 035a 7B65     		str	r3, [r7, #84]
 634:Lib/AI_Runtime/Npu/ll_aton/ll_aton.c ****   t = ATON_STRENG_CTRL_SET_SIZE2(t, ch_bits[2]);
 2992              		.loc 1 634 7
 2993 035c 7B6D     		ldr	r3, [r7, #84]
 2994 035e 23F07062 		bic	r2, r3, #251658240
 2995 0362 7B6B     		ldr	r3, [r7, #52]
 2996 0364 1B06     		lsls	r3, r3, #24
 2997 0366 03F07063 		and	r3, r3, #251658240
 2998              		.loc 1 634 5
 2999 036a 1343     		orrs	r3, r3, r2
 3000 036c 7B65     		str	r3, [r7, #84]
 635:Lib/AI_Runtime/Npu/ll_aton/ll_aton.c **** #else
 636:Lib/AI_Runtime/Npu/ll_aton/ll_aton.c ****   if (conf->dir)
 637:Lib/AI_Runtime/Npu/ll_aton/ll_aton.c ****     t = ATON_STRENG_CTRL_SET_SIZE0(t, conf->nbits_out);
 638:Lib/AI_Runtime/Npu/ll_aton/ll_aton.c ****   else
 639:Lib/AI_Runtime/Npu/ll_aton/ll_aton.c ****     t = ATON_STRENG_CTRL_SET_SIZE0(t, conf->nbits_in);
 640:Lib/AI_Runtime/Npu/ll_aton/ll_aton.c **** #endif
 641:Lib/AI_Runtime/Npu/ll_aton/ll_aton.c **** 
 642:Lib/AI_Runtime/Npu/ll_aton/ll_aton.c ****   ATON_STRENG_CTRL_SET(id, t);
 3001              		.loc 1 642 3
 3002 036e FB68     		ldr	r3, [r7, #12]
 3003 0370 03F5B023 		add	r3, r3, #360448
 3004 0374 E533     		adds	r3, r3, #229
 3005 0376 1B03     		lsls	r3, r3, #12
 3006 0378 1A46     		mov	r2, r3
 3007 037a 7B6D     		ldr	r3, [r7, #84]
 3008 037c 1360     		str	r3, [r2]
 643:Lib/AI_Runtime/Npu/ll_aton/ll_aton.c **** 
 644:Lib/AI_Runtime/Npu/ll_aton/ll_aton.c ****   // ATON_STRENG_ADDR_SET(id, conf->addr_start.i);
 645:Lib/AI_Runtime/Npu/ll_aton/ll_aton.c ****   ATON_REG_WRITE_RELOC(((volatile uint32_t *)(uintptr_t)ATON_STRENG_ADDR_ADDR(id)), conf->addr_base
 3009              		.loc 1 645 3
 3010 037e BB68     		ldr	r3, [r7, #8]
 3011 0380 5968     		ldr	r1, [r3, #4]
 3012 0382 BB68     		ldr	r3, [r7, #8]
 3013 0384 9A68     		ldr	r2, [r3, #8]
 3014 0386 FB68     		ldr	r3, [r7, #12]
 3015 0388 1803     		lsls	r0, r3, #12
 3016 038a 2A4B     		ldr	r3, .L196
 3017 038c 0344     		add	r3, r3, r0
 3018 038e 1846     		mov	r0, r3
 3019 0390 8B18     		adds	r3, r1, r2
 3020 0392 0360     		str	r3, [r0]
 646:Lib/AI_Runtime/Npu/ll_aton/ll_aton.c ****                        conf->offset_start);
 647:Lib/AI_Runtime/Npu/ll_aton/ll_aton.c **** 
 648:Lib/AI_Runtime/Npu/ll_aton/ll_aton.c ****   if (conf->raw)
 3021              		.loc 1 648 7
ARM GAS  /tmp/ccxZaNgH.s 			page 77


 3022 0394 BB68     		ldr	r3, [r7, #8]
 3023 0396 1B78     		ldrb	r3, [r3]	@ zero_extendqisi2
 3024 0398 03F00203 		and	r3, r3, #2
 3025 039c DBB2     		uxtb	r3, r3
 3026              		.loc 1 648 6
 3027 039e 002B     		cmp	r3, #0
 3028 03a0 25D0     		beq	.L180
 649:Lib/AI_Runtime/Npu/ll_aton/ll_aton.c ****   {
 650:Lib/AI_Runtime/Npu/ll_aton/ll_aton.c ****     if (conf->frame_count)
 3029              		.loc 1 650 13
 3030 03a2 BB68     		ldr	r3, [r7, #8]
 3031 03a4 5B69     		ldr	r3, [r3, #20]
 3032              		.loc 1 650 8
 3033 03a6 002B     		cmp	r3, #0
 3034 03a8 03D0     		beq	.L181
 651:Lib/AI_Runtime/Npu/ll_aton/ll_aton.c ****       t = conf->frame_count;
 3035              		.loc 1 651 9
 3036 03aa BB68     		ldr	r3, [r7, #8]
 3037 03ac 5B69     		ldr	r3, [r3, #20]
 3038 03ae 7B65     		str	r3, [r7, #84]
 3039 03b0 15E0     		b	.L182
 3040              	.L181:
 652:Lib/AI_Runtime/Npu/ll_aton/ll_aton.c ****     else
 653:Lib/AI_Runtime/Npu/ll_aton/ll_aton.c ****     {
 654:Lib/AI_Runtime/Npu/ll_aton/ll_aton.c ****       // N.B. end - start must contain padding if nbits_in is not power of two
 655:Lib/AI_Runtime/Npu/ll_aton/ll_aton.c ****       t = (LL_Streng_len(conf) * 8) / (conf->dir == 0 ? conf->nbits_in : conf->nbits_out);
 3041              		.loc 1 655 12
 3042 03b2 B868     		ldr	r0, [r7, #8]
 3043 03b4 FFF7FEFF 		bl	LL_Streng_len
 3044 03b8 0346     		mov	r3, r0
 3045              		.loc 1 655 32 discriminator 1
 3046 03ba DB00     		lsls	r3, r3, #3
 3047              		.loc 1 655 44 discriminator 1
 3048 03bc BA68     		ldr	r2, [r7, #8]
 3049 03be 1278     		ldrb	r2, [r2]
 3050 03c0 C2F30002 		ubfx	r2, r2, #0, #1
 3051 03c4 D2B2     		uxtb	r2, r2
 3052              		.loc 1 655 72 discriminator 1
 3053 03c6 002A     		cmp	r2, #0
 3054 03c8 03D0     		beq	.L183
 3055              		.loc 1 655 78 discriminator 1
 3056 03ca BA68     		ldr	r2, [r7, #8]
 3057 03cc 92F84520 		ldrb	r2, [r2, #69]	@ zero_extendqisi2
 3058 03d0 02E0     		b	.L184
 3059              	.L183:
 3060              		.loc 1 655 61 discriminator 2
 3061 03d2 BA68     		ldr	r2, [r7, #8]
 3062 03d4 92F84420 		ldrb	r2, [r2, #68]	@ zero_extendqisi2
 3063              	.L184:
 3064              		.loc 1 655 9 discriminator 4
 3065 03d8 B3FBF2F3 		udiv	r3, r3, r2
 3066 03dc 7B65     		str	r3, [r7, #84]
 3067              	.L182:
 656:Lib/AI_Runtime/Npu/ll_aton/ll_aton.c ****     }
 657:Lib/AI_Runtime/Npu/ll_aton/ll_aton.c ****     ATON_STRENG_FSIZE_SET(id, t);
 3068              		.loc 1 657 5
 3069 03de FB68     		ldr	r3, [r7, #12]
ARM GAS  /tmp/ccxZaNgH.s 			page 78


 3070 03e0 1A03     		lsls	r2, r3, #12
 3071 03e2 154B     		ldr	r3, .L196+4
 3072 03e4 1344     		add	r3, r3, r2
 3073 03e6 1A46     		mov	r2, r3
 3074 03e8 7B6D     		ldr	r3, [r7, #84]
 3075 03ea 1360     		str	r3, [r2]
 3076 03ec 53E0     		b	.L185
 3077              	.L180:
 3078              	.LBB8:
 658:Lib/AI_Runtime/Npu/ll_aton/ll_aton.c ****   }
 659:Lib/AI_Runtime/Npu/ll_aton/ll_aton.c ****   else
 660:Lib/AI_Runtime/Npu/ll_aton/ll_aton.c ****   {
 661:Lib/AI_Runtime/Npu/ll_aton/ll_aton.c ****     t = ATON_STRENG_FSIZE_DT;
 3079              		.loc 1 661 7
 3080 03ee 0023     		movs	r3, #0
 3081 03f0 7B65     		str	r3, [r7, #84]
 662:Lib/AI_Runtime/Npu/ll_aton/ll_aton.c ****     t = ATON_STRENG_FSIZE_SET_WIDTH(t, conf->fwidth);
 3082              		.loc 1 662 9
 3083 03f2 7B6D     		ldr	r3, [r7, #84]
 3084 03f4 1B0C     		lsrs	r3, r3, #16
 3085 03f6 1B04     		lsls	r3, r3, #16
 3086 03f8 BA68     		ldr	r2, [r7, #8]
 3087 03fa 9269     		ldr	r2, [r2, #24]
 3088 03fc 92B2     		uxth	r2, r2
 3089              		.loc 1 662 7
 3090 03fe 1343     		orrs	r3, r3, r2
 3091 0400 7B65     		str	r3, [r7, #84]
 663:Lib/AI_Runtime/Npu/ll_aton/ll_aton.c ****     t = ATON_STRENG_FSIZE_SET_HEIGHT(t, conf->fheight);
 3092              		.loc 1 663 9
 3093 0402 7B6D     		ldr	r3, [r7, #84]
 3094 0404 9AB2     		uxth	r2, r3
 3095 0406 BB68     		ldr	r3, [r7, #8]
 3096 0408 DB69     		ldr	r3, [r3, #28]
 3097 040a 1B04     		lsls	r3, r3, #16
 3098              		.loc 1 663 7
 3099 040c 1343     		orrs	r3, r3, r2
 3100 040e 7B65     		str	r3, [r7, #84]
 664:Lib/AI_Runtime/Npu/ll_aton/ll_aton.c ****     ATON_STRENG_FSIZE_SET(id, t);
 3101              		.loc 1 664 5
 3102 0410 FB68     		ldr	r3, [r7, #12]
 3103 0412 1A03     		lsls	r2, r3, #12
 3104 0414 084B     		ldr	r3, .L196+4
 3105 0416 1344     		add	r3, r3, r2
 3106 0418 1A46     		mov	r2, r3
 3107 041a 7B6D     		ldr	r3, [r7, #84]
 3108 041c 1360     		str	r3, [r2]
 665:Lib/AI_Runtime/Npu/ll_aton/ll_aton.c **** 
 666:Lib/AI_Runtime/Npu/ll_aton/ll_aton.c ****     uint32_t line_offset = conf->line_offset == 0 ? conf->fwidth * conf->batch_offset : conf->line_
 3109              		.loc 1 666 32
 3110 041e BB68     		ldr	r3, [r7, #8]
 3111 0420 DB6A     		ldr	r3, [r3, #44]
 3112              		.loc 1 666 87
 3113 0422 002B     		cmp	r3, #0
 3114 0424 0AD1     		bne	.L186
 3115              		.loc 1 666 57 discriminator 1
 3116 0426 BB68     		ldr	r3, [r7, #8]
 3117 0428 9B69     		ldr	r3, [r3, #24]
ARM GAS  /tmp/ccxZaNgH.s 			page 79


 3118              		.loc 1 666 72 discriminator 1
 3119 042a BA68     		ldr	r2, [r7, #8]
 3120 042c 526A     		ldr	r2, [r2, #36]
 3121              		.loc 1 666 87 discriminator 1
 3122 042e 02FB03F3 		mul	r3, r2, r3
 3123 0432 05E0     		b	.L187
 3124              	.L197:
 3125              		.align	2
 3126              	.L196:
 3127 0434 08500E58 		.word	1477333000
 3128 0438 0C500E58 		.word	1477333004
 3129              	.L186:
 3130              		.loc 1 666 87 is_stmt 0 discriminator 2
 3131 043c BB68     		ldr	r3, [r7, #8]
 3132 043e DB6A     		ldr	r3, [r3, #44]
 3133              	.L187:
 3134              		.loc 1 666 14 is_stmt 1 discriminator 4
 3135 0440 BB63     		str	r3, [r7, #56]
 667:Lib/AI_Runtime/Npu/ll_aton/ll_aton.c ****     // if line_offset is left=0 then it's computed from the standard geometry of lines and batch
 668:Lib/AI_Runtime/Npu/ll_aton/ll_aton.c ****     t_streng_strd = ATON_STRENG_STRD_SET_LOFF(t_streng_strd, line_offset);
 3136              		.loc 1 668 21
 3137 0442 3B6D     		ldr	r3, [r7, #80]
 3138 0444 1B0C     		lsrs	r3, r3, #16
 3139 0446 1B04     		lsls	r3, r3, #16
 3140 0448 BA6B     		ldr	r2, [r7, #56]
 3141 044a 92B2     		uxth	r2, r2
 3142              		.loc 1 668 19
 3143 044c 1343     		orrs	r3, r3, r2
 3144 044e 3B65     		str	r3, [r7, #80]
 669:Lib/AI_Runtime/Npu/ll_aton/ll_aton.c **** 
 670:Lib/AI_Runtime/Npu/ll_aton/ll_aton.c **** #if defined(ATON_STRENG_CID_CACHE_SET_LOFF_MSB)
 671:Lib/AI_Runtime/Npu/ll_aton/ll_aton.c ****     t = t_streng_cid_cache;
 3145              		.loc 1 671 7
 3146 0450 FB6C     		ldr	r3, [r7, #76]
 3147 0452 7B65     		str	r3, [r7, #84]
 672:Lib/AI_Runtime/Npu/ll_aton/ll_aton.c ****     t = ATON_STRENG_CID_CACHE_SET_LOFF_MSB(t, (line_offset >> ATON_STRENG_STRD_LOFF_W));
 3148              		.loc 1 672 9
 3149 0454 7B6D     		ldr	r3, [r7, #84]
 3150 0456 9AB2     		uxth	r2, r3
 3151 0458 BB6B     		ldr	r3, [r7, #56]
 3152 045a 1B0C     		lsrs	r3, r3, #16
 3153 045c 1B04     		lsls	r3, r3, #16
 3154              		.loc 1 672 7
 3155 045e 1343     		orrs	r3, r3, r2
 3156 0460 7B65     		str	r3, [r7, #84]
 673:Lib/AI_Runtime/Npu/ll_aton/ll_aton.c ****     t_streng_cid_cache = t;
 3157              		.loc 1 673 24
 3158 0462 7B6D     		ldr	r3, [r7, #84]
 3159 0464 FB64     		str	r3, [r7, #76]
 674:Lib/AI_Runtime/Npu/ll_aton/ll_aton.c **** #endif
 675:Lib/AI_Runtime/Npu/ll_aton/ll_aton.c **** 
 676:Lib/AI_Runtime/Npu/ll_aton/ll_aton.c ****     t = ATON_STRENG_DEPTH_DT;
 3160              		.loc 1 676 7
 3161 0466 0023     		movs	r3, #0
 3162 0468 7B65     		str	r3, [r7, #84]
 677:Lib/AI_Runtime/Npu/ll_aton/ll_aton.c ****     t = ATON_STRENG_DEPTH_SET_SIZE(t, conf->batch_depth);
 3163              		.loc 1 677 9
ARM GAS  /tmp/ccxZaNgH.s 			page 80


 3164 046a 7B6D     		ldr	r3, [r7, #84]
 3165 046c 1B0C     		lsrs	r3, r3, #16
 3166 046e 1B04     		lsls	r3, r3, #16
 3167 0470 BA68     		ldr	r2, [r7, #8]
 3168 0472 126A     		ldr	r2, [r2, #32]
 3169 0474 92B2     		uxth	r2, r2
 3170              		.loc 1 677 7
 3171 0476 1343     		orrs	r3, r3, r2
 3172 0478 7B65     		str	r3, [r7, #84]
 678:Lib/AI_Runtime/Npu/ll_aton/ll_aton.c ****     t = ATON_STRENG_DEPTH_SET_OFFSET(t, conf->batch_offset);
 3173              		.loc 1 678 9
 3174 047a 7B6D     		ldr	r3, [r7, #84]
 3175 047c 9AB2     		uxth	r2, r3
 3176 047e BB68     		ldr	r3, [r7, #8]
 3177 0480 5B6A     		ldr	r3, [r3, #36]
 3178 0482 1B04     		lsls	r3, r3, #16
 3179              		.loc 1 678 7
 3180 0484 1343     		orrs	r3, r3, r2
 3181 0486 7B65     		str	r3, [r7, #84]
 679:Lib/AI_Runtime/Npu/ll_aton/ll_aton.c ****     ATON_STRENG_DEPTH_SET(id, t);
 3182              		.loc 1 679 5
 3183 0488 FB68     		ldr	r3, [r7, #12]
 3184 048a 1A03     		lsls	r2, r3, #12
 3185 048c 894B     		ldr	r3, .L198
 3186 048e 1344     		add	r3, r3, r2
 3187 0490 1A46     		mov	r2, r3
 3188 0492 7B6D     		ldr	r3, [r7, #84]
 3189 0494 1360     		str	r3, [r2]
 3190              	.L185:
 3191              	.LBE8:
 680:Lib/AI_Runtime/Npu/ll_aton/ll_aton.c ****   }
 681:Lib/AI_Runtime/Npu/ll_aton/ll_aton.c **** 
 682:Lib/AI_Runtime/Npu/ll_aton/ll_aton.c ****   ATON_STRENG_FOFFSET_SET(id, conf->frame_offset);
 3192              		.loc 1 682 3
 3193 0496 FB68     		ldr	r3, [r7, #12]
 3194 0498 1A03     		lsls	r2, r3, #12
 3195 049a 874B     		ldr	r3, .L198+4
 3196 049c 1344     		add	r3, r3, r2
 3197 049e 1A46     		mov	r2, r3
 3198 04a0 BB68     		ldr	r3, [r7, #8]
 3199 04a2 9B6A     		ldr	r3, [r3, #40]
 3200 04a4 1360     		str	r3, [r2]
 683:Lib/AI_Runtime/Npu/ll_aton/ll_aton.c **** 
 684:Lib/AI_Runtime/Npu/ll_aton/ll_aton.c ****   /* Frame repetition loop configuration */
 685:Lib/AI_Runtime/Npu/ll_aton/ll_aton.c ****   ATON_STRENG_FRPTOFF_SET(id, conf->loop_offset);
 3201              		.loc 1 685 3
 3202 04a6 FB68     		ldr	r3, [r7, #12]
 3203 04a8 1A03     		lsls	r2, r3, #12
 3204 04aa 844B     		ldr	r3, .L198+8
 3205 04ac 1344     		add	r3, r3, r2
 3206 04ae 1A46     		mov	r2, r3
 3207 04b0 BB68     		ldr	r3, [r7, #8]
 3208 04b2 1B6B     		ldr	r3, [r3, #48]
 3209 04b4 1360     		str	r3, [r2]
 686:Lib/AI_Runtime/Npu/ll_aton/ll_aton.c ****   ATON_STRENG_FRAME_RPT_SET(id, conf->frame_loop_cnt);
 3210              		.loc 1 686 3
 3211 04b6 FB68     		ldr	r3, [r7, #12]
ARM GAS  /tmp/ccxZaNgH.s 			page 81


 3212 04b8 1A03     		lsls	r2, r3, #12
 3213 04ba 814B     		ldr	r3, .L198+12
 3214 04bc 1344     		add	r3, r3, r2
 3215 04be 1A46     		mov	r2, r3
 3216 04c0 BB68     		ldr	r3, [r7, #8]
 3217 04c2 5B6B     		ldr	r3, [r3, #52]
 3218 04c4 1360     		str	r3, [r2]
 687:Lib/AI_Runtime/Npu/ll_aton/ll_aton.c **** 
 688:Lib/AI_Runtime/Npu/ll_aton/ll_aton.c ****   /* Second level frame repetition loop configuration (if available) */
 689:Lib/AI_Runtime/Npu/ll_aton/ll_aton.c **** #ifdef ATON_STRENG_FRAME_RPT2_DT
 690:Lib/AI_Runtime/Npu/ll_aton/ll_aton.c ****   if (conf->frame_loop_cnt2 != ATON_STRENG_FRAME_RPT2_DT)
 691:Lib/AI_Runtime/Npu/ll_aton/ll_aton.c ****     ATON_STRENG_FRAME_RPT2_SET(id, conf->frame_loop_cnt2);
 692:Lib/AI_Runtime/Npu/ll_aton/ll_aton.c ****   if (conf->loop_offset2 != ATON_STRENG_FRPTOFF2_DT)
 693:Lib/AI_Runtime/Npu/ll_aton/ll_aton.c ****     ATON_STRENG_FRPTOFF2_SET(id, conf->loop_offset2);
 694:Lib/AI_Runtime/Npu/ll_aton/ll_aton.c **** #endif
 695:Lib/AI_Runtime/Npu/ll_aton/ll_aton.c **** 
 696:Lib/AI_Runtime/Npu/ll_aton/ll_aton.c ****   t = ATON_STRENG_LIMITEN_DT; // all other fields set to zero
 3219              		.loc 1 696 5
 3220 04c6 0223     		movs	r3, #2
 3221 04c8 7B65     		str	r3, [r7, #84]
 697:Lib/AI_Runtime/Npu/ll_aton/ll_aton.c ****   t = ATON_STRENG_LIMITEN_SET_FRAMELIMIT(t, 1);
 3222              		.loc 1 697 5
 3223 04ca 7B6D     		ldr	r3, [r7, #84]
 3224 04cc 43F00403 		orr	r3, r3, #4
 3225 04d0 7B65     		str	r3, [r7, #84]
 698:Lib/AI_Runtime/Npu/ll_aton/ll_aton.c **** #if defined(ATON_STRENG_LIMITEN_SET_DOFF_MSB)
 699:Lib/AI_Runtime/Npu/ll_aton/ll_aton.c ****   t = ATON_STRENG_LIMITEN_SET_DOFF_MSB(t, conf->batch_offset >> ATON_STRENG_DEPTH_OFFSET_W);
 3226              		.loc 1 699 7
 3227 04d2 7B6D     		ldr	r3, [r7, #84]
 3228 04d4 9AB2     		uxth	r2, r3
 3229 04d6 BB68     		ldr	r3, [r7, #8]
 3230 04d8 5B6A     		ldr	r3, [r3, #36]
 3231 04da 1B0C     		lsrs	r3, r3, #16
 3232 04dc 1B04     		lsls	r3, r3, #16
 3233              		.loc 1 699 5
 3234 04de 1343     		orrs	r3, r3, r2
 3235 04e0 7B65     		str	r3, [r7, #84]
 700:Lib/AI_Runtime/Npu/ll_aton/ll_aton.c **** #endif
 701:Lib/AI_Runtime/Npu/ll_aton/ll_aton.c ****   ATON_STRENG_LIMITEN_SET(id, t);
 3236              		.loc 1 701 3
 3237 04e2 FB68     		ldr	r3, [r7, #12]
 3238 04e4 1A03     		lsls	r2, r3, #12
 3239 04e6 774B     		ldr	r3, .L198+16
 3240 04e8 1344     		add	r3, r3, r2
 3241 04ea 1A46     		mov	r2, r3
 3242 04ec 7B6D     		ldr	r3, [r7, #84]
 3243 04ee 1360     		str	r3, [r2]
 702:Lib/AI_Runtime/Npu/ll_aton/ll_aton.c **** 
 703:Lib/AI_Runtime/Npu/ll_aton/ll_aton.c ****   if (/*(conf->dir == 0) && */ (conf->offset_limit != 0x0))
 3244              		.loc 1 703 37
 3245 04f0 BB68     		ldr	r3, [r7, #8]
 3246 04f2 1B69     		ldr	r3, [r3, #16]
 3247              		.loc 1 703 6
 3248 04f4 002B     		cmp	r3, #0
 3249 04f6 1AD0     		beq	.L188
 704:Lib/AI_Runtime/Npu/ll_aton/ll_aton.c ****   {
 705:Lib/AI_Runtime/Npu/ll_aton/ll_aton.c ****     t = ATON_STRENG_LIMITEN_SET_ADDRLIMIT(t, 1);
ARM GAS  /tmp/ccxZaNgH.s 			page 82


 3250              		.loc 1 705 7
 3251 04f8 7B6D     		ldr	r3, [r7, #84]
 3252 04fa 43F00103 		orr	r3, r3, #1
 3253 04fe 7B65     		str	r3, [r7, #84]
 706:Lib/AI_Runtime/Npu/ll_aton/ll_aton.c ****     t = ATON_STRENG_LIMITEN_SET_STOPPREFTC(t, 1);
 3254              		.loc 1 706 7
 3255 0500 7B6D     		ldr	r3, [r7, #84]
 3256 0502 43F00203 		orr	r3, r3, #2
 3257 0506 7B65     		str	r3, [r7, #84]
 707:Lib/AI_Runtime/Npu/ll_aton/ll_aton.c ****     ATON_STRENG_LIMITEN_SET(id, t);
 3258              		.loc 1 707 5
 3259 0508 FB68     		ldr	r3, [r7, #12]
 3260 050a 1A03     		lsls	r2, r3, #12
 3261 050c 6D4B     		ldr	r3, .L198+16
 3262 050e 1344     		add	r3, r3, r2
 3263 0510 1A46     		mov	r2, r3
 3264 0512 7B6D     		ldr	r3, [r7, #84]
 3265 0514 1360     		str	r3, [r2]
 708:Lib/AI_Runtime/Npu/ll_aton/ll_aton.c ****     // NOTE: limiter is to be set to last accessible byte address
 709:Lib/AI_Runtime/Npu/ll_aton/ll_aton.c ****     // ATON_STRENG_LIMITADDR_SET(id, (conf->addr_limit.i - 1));
 710:Lib/AI_Runtime/Npu/ll_aton/ll_aton.c ****     ATON_REG_WRITE_RELOC(((volatile uint32_t *)(uintptr_t)ATON_STRENG_LIMITADDR_ADDR(id)), conf->ad
 3266              		.loc 1 710 5
 3267 0516 BB68     		ldr	r3, [r7, #8]
 3268 0518 5A68     		ldr	r2, [r3, #4]
 3269 051a BB68     		ldr	r3, [r7, #8]
 3270 051c 1B69     		ldr	r3, [r3, #16]
 3271 051e 1A44     		add	r2, r2, r3
 3272 0520 FB68     		ldr	r3, [r7, #12]
 3273 0522 1903     		lsls	r1, r3, #12
 3274 0524 684B     		ldr	r3, .L198+20
 3275 0526 0B44     		add	r3, r3, r1
 3276 0528 1946     		mov	r1, r3
 3277 052a 531E     		subs	r3, r2, #1
 3278 052c 0B60     		str	r3, [r1]
 3279              	.L188:
 711:Lib/AI_Runtime/Npu/ll_aton/ll_aton.c ****                          conf->offset_limit - 1);
 712:Lib/AI_Runtime/Npu/ll_aton/ll_aton.c ****   }
 713:Lib/AI_Runtime/Npu/ll_aton/ll_aton.c **** 
 714:Lib/AI_Runtime/Npu/ll_aton/ll_aton.c ****   ATON_STRENG_LIMIT_SET(id, conf->frame_tot_cnt);
 3280              		.loc 1 714 3
 3281 052e FB68     		ldr	r3, [r7, #12]
 3282 0530 1A03     		lsls	r2, r3, #12
 3283 0532 664B     		ldr	r3, .L198+24
 3284 0534 1344     		add	r3, r3, r2
 3285 0536 1A46     		mov	r2, r3
 3286 0538 BB68     		ldr	r3, [r7, #8]
 3287 053a 1B6C     		ldr	r3, [r3, #64]
 3288 053c 1360     		str	r3, [r2]
 715:Lib/AI_Runtime/Npu/ll_aton/ll_aton.c ****   // LL_ATON_PRINTF("frame_tot_cnt=%d\n", conf->frame_tot_cnt);
 716:Lib/AI_Runtime/Npu/ll_aton/ll_aton.c **** 
 717:Lib/AI_Runtime/Npu/ll_aton/ll_aton.c **** #if defined(ATON_STRENG_CID_CACHE_SET_CID)
 718:Lib/AI_Runtime/Npu/ll_aton/ll_aton.c ****   t_streng_cid_cache = ATON_STRENG_CID_CACHE_SET_CID(t_streng_cid_cache, conf->bus_cid);
 3289              		.loc 1 718 24
 3290 053e FB6C     		ldr	r3, [r7, #76]
 3291 0540 23F00703 		bic	r3, r3, #7
 3292 0544 BA68     		ldr	r2, [r7, #8]
 3293 0546 5278     		ldrb	r2, [r2, #1]
ARM GAS  /tmp/ccxZaNgH.s 			page 83


 3294 0548 C2F38202 		ubfx	r2, r2, #2, #3
 3295 054c D2B2     		uxtb	r2, r2
 3296              		.loc 1 718 22
 3297 054e 1343     		orrs	r3, r3, r2
 3298 0550 FB64     		str	r3, [r7, #76]
 719:Lib/AI_Runtime/Npu/ll_aton/ll_aton.c ****   t_streng_cid_cache = ATON_STRENG_CID_CACHE_SET_CACHEABLE(t_streng_cid_cache, conf->cacheable);
 3299              		.loc 1 719 24
 3300 0552 FB6C     		ldr	r3, [r7, #76]
 3301 0554 23F00802 		bic	r2, r3, #8
 3302 0558 BB68     		ldr	r3, [r7, #8]
 3303 055a 5B78     		ldrb	r3, [r3, #1]
 3304 055c C3F34013 		ubfx	r3, r3, #5, #1
 3305 0560 DBB2     		uxtb	r3, r3
 3306 0562 DB00     		lsls	r3, r3, #3
 3307 0564 03F00803 		and	r3, r3, #8
 3308              		.loc 1 719 22
 3309 0568 1343     		orrs	r3, r3, r2
 3310 056a FB64     		str	r3, [r7, #76]
 720:Lib/AI_Runtime/Npu/ll_aton/ll_aton.c ****   t_streng_cid_cache = ATON_STRENG_CID_CACHE_SET_ALLOC(t_streng_cid_cache, conf->cache_allocate);
 3311              		.loc 1 720 24
 3312 056c FB6C     		ldr	r3, [r7, #76]
 3313 056e 23F01002 		bic	r2, r3, #16
 3314 0572 BB68     		ldr	r3, [r7, #8]
 3315 0574 5B78     		ldrb	r3, [r3, #1]
 3316 0576 C3F38013 		ubfx	r3, r3, #6, #1
 3317 057a DBB2     		uxtb	r3, r3
 3318 057c 1B01     		lsls	r3, r3, #4
 3319 057e 03F01003 		and	r3, r3, #16
 3320              		.loc 1 720 22
 3321 0582 1343     		orrs	r3, r3, r2
 3322 0584 FB64     		str	r3, [r7, #76]
 721:Lib/AI_Runtime/Npu/ll_aton/ll_aton.c ****   t_streng_cid_cache = ATON_STRENG_CID_CACHE_SET_PFETCH(t_streng_cid_cache, conf->bus_pfetch);
 3323              		.loc 1 721 24
 3324 0586 FB6C     		ldr	r3, [r7, #76]
 3325 0588 23F02002 		bic	r2, r3, #32
 3326 058c BB68     		ldr	r3, [r7, #8]
 3327 058e 5B78     		ldrb	r3, [r3, #1]
 3328 0590 C3F3C013 		ubfx	r3, r3, #7, #1
 3329 0594 DBB2     		uxtb	r3, r3
 3330 0596 5B01     		lsls	r3, r3, #5
 3331 0598 03F02003 		and	r3, r3, #32
 3332              		.loc 1 721 22
 3333 059c 1343     		orrs	r3, r3, r2
 3334 059e FB64     		str	r3, [r7, #76]
 722:Lib/AI_Runtime/Npu/ll_aton/ll_aton.c ****   t_streng_cid_cache = ATON_STRENG_CID_CACHE_SET_LINESIZE(t_streng_cid_cache, conf->cache_linesize)
 3335              		.loc 1 722 24
 3336 05a0 FB6C     		ldr	r3, [r7, #76]
 3337 05a2 23F0C002 		bic	r2, r3, #192
 3338 05a6 BB68     		ldr	r3, [r7, #8]
 3339 05a8 9B78     		ldrb	r3, [r3, #2]
 3340 05aa C3F30103 		ubfx	r3, r3, #0, #2
 3341 05ae DBB2     		uxtb	r3, r3
 3342 05b0 9B01     		lsls	r3, r3, #6
 3343 05b2 DBB2     		uxtb	r3, r3
 3344              		.loc 1 722 22
 3345 05b4 1343     		orrs	r3, r3, r2
 3346 05b6 FB64     		str	r3, [r7, #76]
ARM GAS  /tmp/ccxZaNgH.s 			page 84


 723:Lib/AI_Runtime/Npu/ll_aton/ll_aton.c **** #endif
 724:Lib/AI_Runtime/Npu/ll_aton/ll_aton.c **** 
 725:Lib/AI_Runtime/Npu/ll_aton/ll_aton.c ****   /* Enable event interrupts */
 726:Lib/AI_Runtime/Npu/ll_aton/ll_aton.c ****   if (conf->dir == 1)
 3347              		.loc 1 726 17
 3348 05b8 BB68     		ldr	r3, [r7, #8]
 3349 05ba 1B78     		ldrb	r3, [r3]	@ zero_extendqisi2
 3350 05bc 03F00103 		and	r3, r3, #1
 3351 05c0 DBB2     		uxtb	r3, r3
 3352              		.loc 1 726 6
 3353 05c2 002B     		cmp	r3, #0
 3354 05c4 05D0     		beq	.L189
 727:Lib/AI_Runtime/Npu/ll_aton/ll_aton.c ****   {
 728:Lib/AI_Runtime/Npu/ll_aton/ll_aton.c **** #if LL_ATON_EN_EVENT_IRQ
 729:Lib/AI_Runtime/Npu/ll_aton/ll_aton.c ****     t_streng_event = 0;
 3355              		.loc 1 729 20
 3356 05c6 0023     		movs	r3, #0
 3357 05c8 BB64     		str	r3, [r7, #72]
 730:Lib/AI_Runtime/Npu/ll_aton/ll_aton.c ****     t_streng_event = ATON_STRENG_EVENT_SET_EN_OFLOW_FRM(t_streng_event, 1); // enable frame overflo
 3358              		.loc 1 730 20
 3359 05ca BB6C     		ldr	r3, [r7, #72]
 3360 05cc 43F40023 		orr	r3, r3, #524288
 3361 05d0 BB64     		str	r3, [r7, #72]
 3362              	.L189:
 731:Lib/AI_Runtime/Npu/ll_aton/ll_aton.c **** #if 0
 732:Lib/AI_Runtime/Npu/ll_aton/ll_aton.c ****     t_streng_event = ATON_STRENG_EVENT_SET_EN_OFLOW_ADD(t_streng_event, 1); // enable address limit
 733:Lib/AI_Runtime/Npu/ll_aton/ll_aton.c **** #endif
 734:Lib/AI_Runtime/Npu/ll_aton/ll_aton.c **** #endif // LL_ATON_EN_EVENT_IRQ
 735:Lib/AI_Runtime/Npu/ll_aton/ll_aton.c ****   }
 736:Lib/AI_Runtime/Npu/ll_aton/ll_aton.c **** 
 737:Lib/AI_Runtime/Npu/ll_aton/ll_aton.c ****   /* Enable illegal configuration interrupts */
 738:Lib/AI_Runtime/Npu/ll_aton/ll_aton.c **** #if LL_ATON_EN_ERROR_IRQ
 739:Lib/AI_Runtime/Npu/ll_aton/ll_aton.c ****   t = t_streng_event;
 3363              		.loc 1 739 5
 3364 05d2 BB6C     		ldr	r3, [r7, #72]
 3365 05d4 7B65     		str	r3, [r7, #84]
 740:Lib/AI_Runtime/Npu/ll_aton/ll_aton.c ****   t = ATON_STRENG_EVENT_SET_EN_ILLCFG(t, 1); // Enable Illegal Configuration interrupt
 3366              		.loc 1 740 5
 3367 05d6 7B6D     		ldr	r3, [r7, #84]
 3368 05d8 43F48013 		orr	r3, r3, #1048576
 3369 05dc 7B65     		str	r3, [r7, #84]
 741:Lib/AI_Runtime/Npu/ll_aton/ll_aton.c ****   // t = ATON_STRENG_EVENT_SET_EN_FMTMM(t, 1); // Enable Format Mismatch interrupt (intentionally n
 742:Lib/AI_Runtime/Npu/ll_aton/ll_aton.c ****   t_streng_event = t;
 3370              		.loc 1 742 18
 3371 05de 7B6D     		ldr	r3, [r7, #84]
 3372 05e0 BB64     		str	r3, [r7, #72]
 743:Lib/AI_Runtime/Npu/ll_aton/ll_aton.c **** #endif // LL_ATON_EN_ERROR_IRQ
 744:Lib/AI_Runtime/Npu/ll_aton/ll_aton.c **** 
 745:Lib/AI_Runtime/Npu/ll_aton/ll_aton.c ****   if ((conf->dir == 0) && conf->sync_with_other)
 3373              		.loc 1 745 18
 3374 05e2 BB68     		ldr	r3, [r7, #8]
 3375 05e4 1B78     		ldrb	r3, [r3]	@ zero_extendqisi2
 3376 05e6 03F00103 		and	r3, r3, #1
 3377 05ea DBB2     		uxtb	r3, r3
 3378              		.loc 1 745 6
 3379 05ec 002B     		cmp	r3, #0
 3380 05ee 18D1     		bne	.L190
ARM GAS  /tmp/ccxZaNgH.s 			page 85


 3381              		.loc 1 745 24 discriminator 1
 3382 05f0 BB68     		ldr	r3, [r7, #8]
 3383 05f2 5B78     		ldrb	r3, [r3, #1]	@ zero_extendqisi2
 3384 05f4 03F00103 		and	r3, r3, #1
 3385 05f8 DBB2     		uxtb	r3, r3
 3386 05fa 002B     		cmp	r3, #0
 3387 05fc 11D0     		beq	.L190
 746:Lib/AI_Runtime/Npu/ll_aton/ll_aton.c ****   {
 747:Lib/AI_Runtime/Npu/ll_aton/ll_aton.c ****     t = t_streng_event;
 3388              		.loc 1 747 7
 3389 05fe BB6C     		ldr	r3, [r7, #72]
 3390 0600 7B65     		str	r3, [r7, #84]
 748:Lib/AI_Runtime/Npu/ll_aton/ll_aton.c ****     t = ATON_STRENG_EVENT_SET_FRMTRG_EN(t, 1);               // Enable synchronizations of frames w
 3391              		.loc 1 748 7
 3392 0602 7B6D     		ldr	r3, [r7, #84]
 3393 0604 43F40003 		orr	r3, r3, #8388608
 3394 0608 7B65     		str	r3, [r7, #84]
 749:Lib/AI_Runtime/Npu/ll_aton/ll_aton.c ****     t = ATON_STRENG_EVENT_SET_FRMTRG_SRC(t, conf->sync_dma); // Enable synchronizations of frames w
 3395              		.loc 1 749 9
 3396 060a 7B6D     		ldr	r3, [r7, #84]
 3397 060c 23F0F852 		bic	r2, r3, #520093696
 3398 0610 BB68     		ldr	r3, [r7, #8]
 3399 0612 DB78     		ldrb	r3, [r3, #3]	@ zero_extendqisi2
 3400 0614 1B06     		lsls	r3, r3, #24
 3401 0616 03F0F853 		and	r3, r3, #520093696
 3402              		.loc 1 749 7
 3403 061a 1343     		orrs	r3, r3, r2
 3404 061c 7B65     		str	r3, [r7, #84]
 750:Lib/AI_Runtime/Npu/ll_aton/ll_aton.c ****     t_streng_event = t;
 3405              		.loc 1 750 20
 3406 061e 7B6D     		ldr	r3, [r7, #84]
 3407 0620 BB64     		str	r3, [r7, #72]
 3408              	.L190:
 751:Lib/AI_Runtime/Npu/ll_aton/ll_aton.c ****   }
 752:Lib/AI_Runtime/Npu/ll_aton/ll_aton.c **** 
 753:Lib/AI_Runtime/Npu/ll_aton/ll_aton.c **** #if 1
 754:Lib/AI_Runtime/Npu/ll_aton/ll_aton.c ****   t = ATON_STRENG_POS_DT;
 3409              		.loc 1 754 5
 3410 0622 2B4B     		ldr	r3, .L198+28
 3411 0624 7B65     		str	r3, [r7, #84]
 755:Lib/AI_Runtime/Npu/ll_aton/ll_aton.c ****   t = ATON_STRENG_POS_SET_GAPCYCLES(t, 0); // set interline gap cycle to 0, as it should be safe to
 3412              		.loc 1 755 5
 3413 0626 7B6D     		ldr	r3, [r7, #84]
 3414 0628 9BB2     		uxth	r3, r3
 3415 062a 7B65     		str	r3, [r7, #84]
 756:Lib/AI_Runtime/Npu/ll_aton/ll_aton.c ****   ATON_STRENG_POS_SET(id, t);
 3416              		.loc 1 756 3
 3417 062c FB68     		ldr	r3, [r7, #12]
 3418 062e 1A03     		lsls	r2, r3, #12
 3419 0630 284B     		ldr	r3, .L198+32
 3420 0632 1344     		add	r3, r3, r2
 3421 0634 1A46     		mov	r2, r3
 3422 0636 7B6D     		ldr	r3, [r7, #84]
 3423 0638 1360     		str	r3, [r2]
 757:Lib/AI_Runtime/Npu/ll_aton/ll_aton.c **** #endif
 758:Lib/AI_Runtime/Npu/ll_aton/ll_aton.c **** 
 759:Lib/AI_Runtime/Npu/ll_aton/ll_aton.c ****   /* deferred register setting */
ARM GAS  /tmp/ccxZaNgH.s 			page 86


 760:Lib/AI_Runtime/Npu/ll_aton/ll_aton.c ****   ATON_STRENG_STRD_SET(id, t_streng_strd);
 3424              		.loc 1 760 3
 3425 063a FB68     		ldr	r3, [r7, #12]
 3426 063c 1A03     		lsls	r2, r3, #12
 3427 063e 264B     		ldr	r3, .L198+36
 3428 0640 1344     		add	r3, r3, r2
 3429 0642 1A46     		mov	r2, r3
 3430 0644 3B6D     		ldr	r3, [r7, #80]
 3431 0646 1360     		str	r3, [r2]
 761:Lib/AI_Runtime/Npu/ll_aton/ll_aton.c ****   ATON_STRENG_CID_CACHE_SET(id, t_streng_cid_cache);
 3432              		.loc 1 761 3
 3433 0648 FB68     		ldr	r3, [r7, #12]
 3434 064a 1A03     		lsls	r2, r3, #12
 3435 064c 234B     		ldr	r3, .L198+40
 3436 064e 1344     		add	r3, r3, r2
 3437 0650 1A46     		mov	r2, r3
 3438 0652 FB6C     		ldr	r3, [r7, #76]
 3439 0654 1360     		str	r3, [r2]
 762:Lib/AI_Runtime/Npu/ll_aton/ll_aton.c ****   ATON_STRENG_EVENT_SET(id, t_streng_event);
 3440              		.loc 1 762 3
 3441 0656 FB68     		ldr	r3, [r7, #12]
 3442 0658 1A03     		lsls	r2, r3, #12
 3443 065a 214B     		ldr	r3, .L198+44
 3444 065c 1344     		add	r3, r3, r2
 3445 065e 1A46     		mov	r2, r3
 3446 0660 BB6C     		ldr	r3, [r7, #72]
 3447 0662 1360     		str	r3, [r2]
 763:Lib/AI_Runtime/Npu/ll_aton/ll_aton.c **** 
 764:Lib/AI_Runtime/Npu/ll_aton/ll_aton.c ****   /* Ciphering settings */
 765:Lib/AI_Runtime/Npu/ll_aton/ll_aton.c **** #if (ATON_STRENG_VERSION_ENCR_DT == 1)
 766:Lib/AI_Runtime/Npu/ll_aton/ll_aton.c ****   t = ATON_STRENG_ENCR_MSB_DT;
 3448              		.loc 1 766 5
 3449 0664 0023     		movs	r3, #0
 3450 0666 7B65     		str	r3, [r7, #84]
 767:Lib/AI_Runtime/Npu/ll_aton/ll_aton.c ****   t = ATON_STRENG_ENCR_MSB_SET_EN(t, conf->cipher_en);
 3451              		.loc 1 767 7
 3452 0668 7B6D     		ldr	r3, [r7, #84]
 3453 066a 23F48052 		bic	r2, r3, #4096
 3454 066e BB68     		ldr	r3, [r7, #8]
 3455 0670 9B78     		ldrb	r3, [r3, #2]
 3456 0672 C3F38003 		ubfx	r3, r3, #2, #1
 3457 0676 DBB2     		uxtb	r3, r3
 3458 0678 1B03     		lsls	r3, r3, #12
 3459 067a 03F48053 		and	r3, r3, #4096
 3460              		.loc 1 767 5
 3461 067e 1343     		orrs	r3, r3, r2
 3462 0680 7B65     		str	r3, [r7, #84]
 768:Lib/AI_Runtime/Npu/ll_aton/ll_aton.c ****   t = ATON_STRENG_ENCR_MSB_SET_KEY_SEL(t, conf->key_sel);
 3463              		.loc 1 768 7
 3464 0682 7B6D     		ldr	r3, [r7, #84]
 3465 0684 23F44042 		bic	r2, r3, #49152
 3466 0688 BB68     		ldr	r3, [r7, #8]
 3467 068a 9B78     		ldrb	r3, [r3, #2]
 3468 068c C3F3C003 		ubfx	r3, r3, #3, #1
 3469 0690 DBB2     		uxtb	r3, r3
 3470 0692 9B03     		lsls	r3, r3, #14
 3471 0694 9BB2     		uxth	r3, r3
ARM GAS  /tmp/ccxZaNgH.s 			page 87


 3472              		.loc 1 768 5
 3473 0696 1343     		orrs	r3, r3, r2
 3474 0698 7B65     		str	r3, [r7, #84]
 769:Lib/AI_Runtime/Npu/ll_aton/ll_aton.c ****   ATON_STRENG_ENCR_MSB_SET(id, t);
 3475              		.loc 1 769 3
 3476 069a FB68     		ldr	r3, [r7, #12]
 3477 069c 1A03     		lsls	r2, r3, #12
 3478 069e 114B     		ldr	r3, .L198+48
 3479 06a0 1344     		add	r3, r3, r2
 3480 06a2 1A46     		mov	r2, r3
 3481 06a4 7B6D     		ldr	r3, [r7, #84]
 3482 06a6 1360     		str	r3, [r2]
 770:Lib/AI_Runtime/Npu/ll_aton/ll_aton.c **** #endif
 771:Lib/AI_Runtime/Npu/ll_aton/ll_aton.c **** 
 772:Lib/AI_Runtime/Npu/ll_aton/ll_aton.c ****   return 0;
 3483              		.loc 1 772 10
 3484 06a8 0023     		movs	r3, #0
 3485              	.L191:
 773:Lib/AI_Runtime/Npu/ll_aton/ll_aton.c **** }
 3486              		.loc 1 773 1
 3487 06aa 1846     		mov	r0, r3
 3488 06ac 5837     		adds	r7, r7, #88
 3489              		.cfi_def_cfa_offset 8
 3490 06ae BD46     		mov	sp, r7
 3491              		.cfi_def_cfa_register 13
 3492              		@ sp needed
 3493 06b0 80BD     		pop	{r7, pc}
 3494              	.L199:
 3495 06b2 00BF     		.align	2
 3496              	.L198:
 3497 06b4 10500E58 		.word	1477333008
 3498 06b8 18500E58 		.word	1477333016
 3499 06bc 20500E58 		.word	1477333024
 3500 06c0 1C500E58 		.word	1477333020
 3501 06c4 30500E58 		.word	1477333040
 3502 06c8 38500E58 		.word	1477333048
 3503 06cc 34500E58 		.word	1477333044
 3504 06d0 24000800 		.word	524324
 3505 06d4 24500E58 		.word	1477333028
 3506 06d8 14500E58 		.word	1477333012
 3507 06dc 48500E58 		.word	1477333064
 3508 06e0 28500E58 		.word	1477333032
 3509 06e4 44500E58 		.word	1477333060
 3510              		.cfi_endproc
 3511              	.LFE4830:
 3513              		.section	.text.LL_Streng_ExtSyncInit,"ax",%progbits
 3514              		.align	1
 3515              		.global	LL_Streng_ExtSyncInit
 3516              		.syntax unified
 3517              		.thumb
 3518              		.thumb_func
 3520              	LL_Streng_ExtSyncInit:
 3521              	.LFB4831:
 774:Lib/AI_Runtime/Npu/ll_aton/ll_aton.c **** 
 775:Lib/AI_Runtime/Npu/ll_aton/ll_aton.c **** /**
 776:Lib/AI_Runtime/Npu/ll_aton/ll_aton.c ****  * @brief Configures the Streaming Engine External trigger source
 777:Lib/AI_Runtime/Npu/ll_aton/ll_aton.c ****  *        To be used, for example, for configuring synchronization with DCMIPP
ARM GAS  /tmp/ccxZaNgH.s 			page 88


 778:Lib/AI_Runtime/Npu/ll_aton/ll_aton.c ****  * @param id Streaming engine identifier [0..ATON_STRENG_NUM-1]
 779:Lib/AI_Runtime/Npu/ll_aton/ll_aton.c ****  * @param conf Pointer to structure describing External Sync configuration
 780:Lib/AI_Runtime/Npu/ll_aton/ll_aton.c ****  */
 781:Lib/AI_Runtime/Npu/ll_aton/ll_aton.c **** int LL_Streng_ExtSyncInit(int id, LL_Streng_ExtSyncTypedef *conf)
 782:Lib/AI_Runtime/Npu/ll_aton/ll_aton.c **** {
 3522              		.loc 1 782 1
 3523              		.cfi_startproc
 3524              		@ args = 0, pretend = 0, frame = 16
 3525              		@ frame_needed = 1, uses_anonymous_args = 0
 3526 0000 80B5     		push	{r7, lr}
 3527              		.cfi_def_cfa_offset 8
 3528              		.cfi_offset 7, -8
 3529              		.cfi_offset 14, -4
 3530 0002 84B0     		sub	sp, sp, #16
 3531              		.cfi_def_cfa_offset 24
 3532 0004 00AF     		add	r7, sp, #0
 3533              		.cfi_def_cfa_register 7
 3534 0006 7860     		str	r0, [r7, #4]
 3535 0008 3960     		str	r1, [r7]
 783:Lib/AI_Runtime/Npu/ll_aton/ll_aton.c **** #ifdef ATON_STRENG_EXTSYNC_SET
 784:Lib/AI_Runtime/Npu/ll_aton/ll_aton.c ****   uint32_t t;
 785:Lib/AI_Runtime/Npu/ll_aton/ll_aton.c **** 
 786:Lib/AI_Runtime/Npu/ll_aton/ll_aton.c ****   if (id >= ATON_STRENG_NUM)
 3536              		.loc 1 786 6
 3537 000a 7B68     		ldr	r3, [r7, #4]
 3538 000c 092B     		cmp	r3, #9
 3539 000e 02DD     		ble	.L201
 787:Lib/AI_Runtime/Npu/ll_aton/ll_aton.c ****     return LL_ATON_INVALID_ID;
 3540              		.loc 1 787 12
 3541 0010 4FF0FF33 		mov	r3, #-1
 3542 0014 42E0     		b	.L202
 3543              	.L201:
 788:Lib/AI_Runtime/Npu/ll_aton/ll_aton.c **** 
 789:Lib/AI_Runtime/Npu/ll_aton/ll_aton.c ****   LL_ATON_EnableClock(ATON_STRENG_CLKB_CLK(id));
 3544              		.loc 1 789 3
 3545 0016 7B68     		ldr	r3, [r7, #4]
 3546 0018 1846     		mov	r0, r3
 3547 001a FFF7FEFF 		bl	LL_ATON_EnableClock
 790:Lib/AI_Runtime/Npu/ll_aton/ll_aton.c **** 
 791:Lib/AI_Runtime/Npu/ll_aton/ll_aton.c ****   t = ATON_STRENG_EXTSYNC_DT;
 3548              		.loc 1 791 5
 3549 001e 0023     		movs	r3, #0
 3550 0020 FB60     		str	r3, [r7, #12]
 792:Lib/AI_Runtime/Npu/ll_aton/ll_aton.c ****   t = ATON_STRENG_EXTSYNC_SET_EN(t, conf->enable);
 3551              		.loc 1 792 7
 3552 0022 FB68     		ldr	r3, [r7, #12]
 3553 0024 23F00103 		bic	r3, r3, #1
 3554 0028 3A68     		ldr	r2, [r7]
 3555 002a 1278     		ldrb	r2, [r2]
 3556 002c C2F30002 		ubfx	r2, r2, #0, #1
 3557 0030 D2B2     		uxtb	r2, r2
 3558              		.loc 1 792 5
 3559 0032 1343     		orrs	r3, r3, r2
 3560 0034 FB60     		str	r3, [r7, #12]
 793:Lib/AI_Runtime/Npu/ll_aton/ll_aton.c ****   t = ATON_STRENG_EXTSYNC_SET_SRC(t, conf->trig_source);
 3561              		.loc 1 793 7
 3562 0036 FB68     		ldr	r3, [r7, #12]
ARM GAS  /tmp/ccxZaNgH.s 			page 89


 3563 0038 23F0F002 		bic	r2, r3, #240
 3564 003c 3B68     		ldr	r3, [r7]
 3565 003e 1B78     		ldrb	r3, [r3]
 3566 0040 C3F34303 		ubfx	r3, r3, #1, #4
 3567 0044 DBB2     		uxtb	r3, r3
 3568 0046 1B01     		lsls	r3, r3, #4
 3569 0048 DBB2     		uxtb	r3, r3
 3570              		.loc 1 793 5
 3571 004a 1343     		orrs	r3, r3, r2
 3572 004c FB60     		str	r3, [r7, #12]
 794:Lib/AI_Runtime/Npu/ll_aton/ll_aton.c ****   t = ATON_STRENG_EXTSYNC_SET_LINES(t, conf->lines);
 3573              		.loc 1 794 7
 3574 004e FB68     		ldr	r3, [r7, #12]
 3575 0050 9AB2     		uxth	r2, r3
 3576 0052 3B68     		ldr	r3, [r7]
 3577 0054 5B68     		ldr	r3, [r3, #4]
 3578 0056 1B04     		lsls	r3, r3, #16
 3579              		.loc 1 794 5
 3580 0058 1343     		orrs	r3, r3, r2
 3581 005a FB60     		str	r3, [r7, #12]
 795:Lib/AI_Runtime/Npu/ll_aton/ll_aton.c ****   ATON_STRENG_EXTSYNC_SET(id, t);
 3582              		.loc 1 795 3
 3583 005c 7B68     		ldr	r3, [r7, #4]
 3584 005e 1A03     		lsls	r2, r3, #12
 3585 0060 104B     		ldr	r3, .L203
 3586 0062 1344     		add	r3, r3, r2
 3587 0064 1A46     		mov	r2, r3
 3588 0066 FB68     		ldr	r3, [r7, #12]
 3589 0068 1360     		str	r3, [r2]
 796:Lib/AI_Runtime/Npu/ll_aton/ll_aton.c **** 
 797:Lib/AI_Runtime/Npu/ll_aton/ll_aton.c ****   t = ATON_STRENG_EXTSYNC2_DT;
 3590              		.loc 1 797 5
 3591 006a 0023     		movs	r3, #0
 3592 006c FB60     		str	r3, [r7, #12]
 798:Lib/AI_Runtime/Npu/ll_aton/ll_aton.c ****   t = ATON_STRENG_EXTSYNC2_SET_LINES(t, conf->lines_offset);
 3593              		.loc 1 798 7
 3594 006e FB68     		ldr	r3, [r7, #12]
 3595 0070 1B0C     		lsrs	r3, r3, #16
 3596 0072 1B04     		lsls	r3, r3, #16
 3597 0074 3A68     		ldr	r2, [r7]
 3598 0076 9268     		ldr	r2, [r2, #8]
 3599 0078 92B2     		uxth	r2, r2
 3600              		.loc 1 798 5
 3601 007a 1343     		orrs	r3, r3, r2
 3602 007c FB60     		str	r3, [r7, #12]
 799:Lib/AI_Runtime/Npu/ll_aton/ll_aton.c ****   t = ATON_STRENG_EXTSYNC2_SET_OFF(t, conf->offset);
 3603              		.loc 1 799 7
 3604 007e FB68     		ldr	r3, [r7, #12]
 3605 0080 9AB2     		uxth	r2, r3
 3606 0082 3B68     		ldr	r3, [r7]
 3607 0084 DB68     		ldr	r3, [r3, #12]
 3608 0086 1B04     		lsls	r3, r3, #16
 3609              		.loc 1 799 5
 3610 0088 1343     		orrs	r3, r3, r2
 3611 008a FB60     		str	r3, [r7, #12]
 800:Lib/AI_Runtime/Npu/ll_aton/ll_aton.c ****   ATON_STRENG_EXTSYNC2_SET(id, t);
 3612              		.loc 1 800 3
ARM GAS  /tmp/ccxZaNgH.s 			page 90


 3613 008c 7B68     		ldr	r3, [r7, #4]
 3614 008e 1A03     		lsls	r2, r3, #12
 3615 0090 054B     		ldr	r3, .L203+4
 3616 0092 1344     		add	r3, r3, r2
 3617 0094 1A46     		mov	r2, r3
 3618 0096 FB68     		ldr	r3, [r7, #12]
 3619 0098 1360     		str	r3, [r2]
 801:Lib/AI_Runtime/Npu/ll_aton/ll_aton.c **** #endif
 802:Lib/AI_Runtime/Npu/ll_aton/ll_aton.c ****   return 0;
 3620              		.loc 1 802 10
 3621 009a 0023     		movs	r3, #0
 3622              	.L202:
 803:Lib/AI_Runtime/Npu/ll_aton/ll_aton.c **** }
 3623              		.loc 1 803 1
 3624 009c 1846     		mov	r0, r3
 3625 009e 1037     		adds	r7, r7, #16
 3626              		.cfi_def_cfa_offset 8
 3627 00a0 BD46     		mov	sp, r7
 3628              		.cfi_def_cfa_register 13
 3629              		@ sp needed
 3630 00a2 80BD     		pop	{r7, pc}
 3631              	.L204:
 3632              		.align	2
 3633              	.L203:
 3634 00a4 4C500E58 		.word	1477333068
 3635 00a8 50500E58 		.word	1477333072
 3636              		.cfi_endproc
 3637              	.LFE4831:
 3639              		.section	.text.LL_TriggerHigh,"ax",%progbits
 3640              		.align	1
 3641              		.global	LL_TriggerHigh
 3642              		.syntax unified
 3643              		.thumb
 3644              		.thumb_func
 3646              	LL_TriggerHigh:
 3647              	.LFB4832:
 804:Lib/AI_Runtime/Npu/ll_aton/ll_aton.c **** 
 805:Lib/AI_Runtime/Npu/ll_aton/ll_aton.c **** #if defined(ATON_EPOCHCTRL_NUM)
 806:Lib/AI_Runtime/Npu/ll_aton/ll_aton.c **** /**
 807:Lib/AI_Runtime/Npu/ll_aton/ll_aton.c ****  * @brief Sets external trigger signal to hi. Used to synchronize with external units, e.g.: HSP
 808:Lib/AI_Runtime/Npu/ll_aton/ll_aton.c ****  * @param irq Interrupt line used as trigger signal
 809:Lib/AI_Runtime/Npu/ll_aton/ll_aton.c ****  * @note uses Epoch Controller noack interrupt as irq source
 810:Lib/AI_Runtime/Npu/ll_aton/ll_aton.c ****  */
 811:Lib/AI_Runtime/Npu/ll_aton/ll_aton.c **** int LL_TriggerHigh(int irq)
 812:Lib/AI_Runtime/Npu/ll_aton/ll_aton.c **** {
 3648              		.loc 1 812 1
 3649              		.cfi_startproc
 3650              		@ args = 0, pretend = 0, frame = 8
 3651              		@ frame_needed = 1, uses_anonymous_args = 0
 3652              		@ link register save eliminated.
 3653 0000 80B4     		push	{r7}
 3654              		.cfi_def_cfa_offset 4
 3655              		.cfi_offset 7, -4
 3656 0002 83B0     		sub	sp, sp, #12
 3657              		.cfi_def_cfa_offset 16
 3658 0004 00AF     		add	r7, sp, #0
 3659              		.cfi_def_cfa_register 7
ARM GAS  /tmp/ccxZaNgH.s 			page 91


 3660 0006 7860     		str	r0, [r7, #4]
 813:Lib/AI_Runtime/Npu/ll_aton/ll_aton.c ****   if (irq >= ATON_INTCTRL_INTS(0))
 3661              		.loc 1 813 6
 3662 0008 7B68     		ldr	r3, [r7, #4]
 3663 000a 1F2B     		cmp	r3, #31
 3664 000c 02DD     		ble	.L206
 814:Lib/AI_Runtime/Npu/ll_aton/ll_aton.c ****     return LL_ATON_INVALID_PARAM;
 3665              		.loc 1 814 12
 3666 000e 6FF00103 		mvn	r3, #1
 3667 0012 14E0     		b	.L207
 3668              	.L206:
 815:Lib/AI_Runtime/Npu/ll_aton/ll_aton.c **** 
 816:Lib/AI_Runtime/Npu/ll_aton/ll_aton.c ****   ATON_INTCTRL_INTORMSK_SET(0, irq, ~(1 << ATON_INTCTRL_0_INTORMSK_EPOCHCTRL_0_1_IDX));
 3669              		.loc 1 816 3
 3670 0014 7B68     		ldr	r3, [r7, #4]
 3671 0016 002B     		cmp	r3, #0
 3672 0018 08DB     		blt	.L208
 3673              		.loc 1 816 3 is_stmt 0 discriminator 1
 3674 001a 7B68     		ldr	r3, [r7, #4]
 3675 001c 032B     		cmp	r3, #3
 3676 001e 05DC     		bgt	.L208
 3677              		.loc 1 816 3 discriminator 3
 3678 0020 7B68     		ldr	r3, [r7, #4]
 3679 0022 9B00     		lsls	r3, r3, #2
 3680 0024 1A46     		mov	r2, r3
 3681 0026 094B     		ldr	r3, .L210
 3682 0028 1344     		add	r3, r3, r2
 3683              		.loc 1 816 3
 3684 002a 00E0     		b	.L209
 3685              	.L208:
 3686              		.loc 1 816 3 discriminator 4
 3687 002c 084B     		ldr	r3, .L210+4
 3688              	.L209:
 3689              		.loc 1 816 3 discriminator 6
 3690 002e 6FF00052 		mvn	r2, #536870912
 3691 0032 1A60     		str	r2, [r3]
 817:Lib/AI_Runtime/Npu/ll_aton/ll_aton.c ****   ATON_INTCTRL_INTSET_SET(0, (1 << ATON_INTCTRL_0_INTSET_EPOCHCTRL_0_1_IDX));
 3692              		.loc 1 817 3 is_stmt 1
 3693 0034 074B     		ldr	r3, .L210+8
 3694 0036 4FF00052 		mov	r2, #536870912
 3695 003a 1A60     		str	r2, [r3]
 818:Lib/AI_Runtime/Npu/ll_aton/ll_aton.c ****   return 0;
 3696              		.loc 1 818 10
 3697 003c 0023     		movs	r3, #0
 3698              	.L207:
 819:Lib/AI_Runtime/Npu/ll_aton/ll_aton.c **** }
 3699              		.loc 1 819 1
 3700 003e 1846     		mov	r0, r3
 3701 0040 0C37     		adds	r7, r7, #12
 3702              		.cfi_def_cfa_offset 4
 3703 0042 BD46     		mov	sp, r7
 3704              		.cfi_def_cfa_register 13
 3705              		@ sp needed
 3706 0044 5DF8047B 		ldr	r7, [sp], #4
 3707              		.cfi_restore 7
 3708              		.cfi_def_cfa_offset 0
 3709 0048 7047     		bx	lr
ARM GAS  /tmp/ccxZaNgH.s 			page 92


 3710              	.L211:
 3711 004a 00BF     		.align	2
 3712              	.L210:
 3713 004c 14100E58 		.word	1477316628
 3714 0050 00100E58 		.word	1477316608
 3715 0054 0C100E58 		.word	1477316620
 3716              		.cfi_endproc
 3717              	.LFE4832:
 3719              		.section	.text.LL_TriggerLow,"ax",%progbits
 3720              		.align	1
 3721              		.global	LL_TriggerLow
 3722              		.syntax unified
 3723              		.thumb
 3724              		.thumb_func
 3726              	LL_TriggerLow:
 3727              	.LFB4833:
 820:Lib/AI_Runtime/Npu/ll_aton/ll_aton.c **** 
 821:Lib/AI_Runtime/Npu/ll_aton/ll_aton.c **** /**
 822:Lib/AI_Runtime/Npu/ll_aton/ll_aton.c ****  * @brief Sets external trigger signal to low. Used to synchronize with external units, e.g.: HSP
 823:Lib/AI_Runtime/Npu/ll_aton/ll_aton.c ****  * @param irq Interrupt line used as trigger signal
 824:Lib/AI_Runtime/Npu/ll_aton/ll_aton.c ****  * @note uses Epoch Controller noack interrupt as irq source
 825:Lib/AI_Runtime/Npu/ll_aton/ll_aton.c ****  */
 826:Lib/AI_Runtime/Npu/ll_aton/ll_aton.c **** int LL_TriggerLow(int irq)
 827:Lib/AI_Runtime/Npu/ll_aton/ll_aton.c **** {
 3728              		.loc 1 827 1
 3729              		.cfi_startproc
 3730              		@ args = 0, pretend = 0, frame = 8
 3731              		@ frame_needed = 1, uses_anonymous_args = 0
 3732              		@ link register save eliminated.
 3733 0000 80B4     		push	{r7}
 3734              		.cfi_def_cfa_offset 4
 3735              		.cfi_offset 7, -4
 3736 0002 83B0     		sub	sp, sp, #12
 3737              		.cfi_def_cfa_offset 16
 3738 0004 00AF     		add	r7, sp, #0
 3739              		.cfi_def_cfa_register 7
 3740 0006 7860     		str	r0, [r7, #4]
 828:Lib/AI_Runtime/Npu/ll_aton/ll_aton.c ****   if (irq >= ATON_INTCTRL_INTS(0))
 3741              		.loc 1 828 6
 3742 0008 7B68     		ldr	r3, [r7, #4]
 3743 000a 1F2B     		cmp	r3, #31
 3744 000c 02DD     		ble	.L213
 829:Lib/AI_Runtime/Npu/ll_aton/ll_aton.c ****     return LL_ATON_INVALID_PARAM;
 3745              		.loc 1 829 12
 3746 000e 6FF00103 		mvn	r3, #1
 3747 0012 04E0     		b	.L214
 3748              	.L213:
 830:Lib/AI_Runtime/Npu/ll_aton/ll_aton.c **** 
 831:Lib/AI_Runtime/Npu/ll_aton/ll_aton.c ****   ATON_INTCTRL_INTCLR_SET(0, (1 << ATON_INTCTRL_0_INTCLR_EPOCHCTRL_0_1_IDX));
 3749              		.loc 1 831 3
 3750 0014 054B     		ldr	r3, .L215
 3751 0016 4FF00052 		mov	r2, #536870912
 3752 001a 1A60     		str	r2, [r3]
 832:Lib/AI_Runtime/Npu/ll_aton/ll_aton.c ****   return 0;
 3753              		.loc 1 832 10
 3754 001c 0023     		movs	r3, #0
 3755              	.L214:
ARM GAS  /tmp/ccxZaNgH.s 			page 93


 833:Lib/AI_Runtime/Npu/ll_aton/ll_aton.c **** }
 3756              		.loc 1 833 1
 3757 001e 1846     		mov	r0, r3
 3758 0020 0C37     		adds	r7, r7, #12
 3759              		.cfi_def_cfa_offset 4
 3760 0022 BD46     		mov	sp, r7
 3761              		.cfi_def_cfa_register 13
 3762              		@ sp needed
 3763 0024 5DF8047B 		ldr	r7, [sp], #4
 3764              		.cfi_restore 7
 3765              		.cfi_def_cfa_offset 0
 3766 0028 7047     		bx	lr
 3767              	.L216:
 3768 002a 00BF     		.align	2
 3769              	.L215:
 3770 002c 10100E58 		.word	1477316624
 3771              		.cfi_endproc
 3772              	.LFE4833:
 3774              		.section	.rodata
 3775 0225 000000   		.align	2
 3776              	.LC24:
 3777 0228 73755F6E 		.ascii	"su_num == 0\000"
 3777      756D203D 
 3777      3D203000 
 3778              		.align	2
 3779              	.LC25:
 3780 0234 706F7274 		.ascii	"port == 0\000"
 3780      203D3D20 
 3780      3000
 3781 023e 0000     		.align	2
 3782              	.LC26:
 3783 0240 61755F6E 		.ascii	"au_num < 10\000"
 3783      756D203C 
 3783      20313000 
 3784              		.align	2
 3785              	.LC27:
 3786 024c 61755F6E 		.ascii	"au_num < 4\000"
 3786      756D203C 
 3786      203400
 3787 0257 00       		.align	2
 3788              	.LC28:
 3789 0258 61755F6E 		.ascii	"au_num < 2\000"
 3789      756D203C 
 3789      203200
 3790              		.section	.text.__atonn_getSrcPortID,"ax",%progbits
 3791              		.align	1
 3792              		.global	__atonn_getSrcPortID
 3793              		.syntax unified
 3794              		.thumb
 3795              		.thumb_func
 3797              	__atonn_getSrcPortID:
 3798              	.LFB4834:
 834:Lib/AI_Runtime/Npu/ll_aton/ll_aton.c **** #endif
 835:Lib/AI_Runtime/Npu/ll_aton/ll_aton.c **** 
 836:Lib/AI_Runtime/Npu/ll_aton/ll_aton.c **** unsigned __atonn_getSrcPortID(enum SwitchUnitsType sut, unsigned char su_num, enum AccelUnitsType a
 837:Lib/AI_Runtime/Npu/ll_aton/ll_aton.c ****                               unsigned char au_num, unsigned char port)
 838:Lib/AI_Runtime/Npu/ll_aton/ll_aton.c **** {
ARM GAS  /tmp/ccxZaNgH.s 			page 94


 3799              		.loc 1 838 1
 3800              		.cfi_startproc
 3801              		@ args = 4, pretend = 0, frame = 8
 3802              		@ frame_needed = 1, uses_anonymous_args = 0
 3803 0000 90B5     		push	{r4, r7, lr}
 3804              		.cfi_def_cfa_offset 12
 3805              		.cfi_offset 4, -12
 3806              		.cfi_offset 7, -8
 3807              		.cfi_offset 14, -4
 3808 0002 83B0     		sub	sp, sp, #12
 3809              		.cfi_def_cfa_offset 24
 3810 0004 00AF     		add	r7, sp, #0
 3811              		.cfi_def_cfa_register 7
 3812 0006 0446     		mov	r4, r0
 3813 0008 0846     		mov	r0, r1
 3814 000a 1146     		mov	r1, r2
 3815 000c 1A46     		mov	r2, r3
 3816 000e 2346     		mov	r3, r4
 3817 0010 FB71     		strb	r3, [r7, #7]
 3818 0012 0346     		mov	r3, r0
 3819 0014 BB71     		strb	r3, [r7, #6]
 3820 0016 0B46     		mov	r3, r1
 3821 0018 7B71     		strb	r3, [r7, #5]
 3822 001a 1346     		mov	r3, r2
 3823 001c 3B71     		strb	r3, [r7, #4]
 839:Lib/AI_Runtime/Npu/ll_aton/ll_aton.c ****   // FIXME
 840:Lib/AI_Runtime/Npu/ll_aton/ll_aton.c ****   LL_ATON_ASSERT(su_num == 0);
 3824              		.loc 1 840 3
 3825 001e BB79     		ldrb	r3, [r7, #6]	@ zero_extendqisi2
 3826 0020 002B     		cmp	r3, #0
 3827 0022 06D0     		beq	.L218
 3828              		.loc 1 840 3 is_stmt 0 discriminator 1
 3829 0024 664B     		ldr	r3, .L244
 3830 0026 674A     		ldr	r2, .L244+4
 3831 0028 4FF45271 		mov	r1, #840
 3832 002c 6648     		ldr	r0, .L244+8
 3833 002e FFF7FEFF 		bl	__assert_func
 3834              	.L218:
 841:Lib/AI_Runtime/Npu/ll_aton/ll_aton.c ****   switch (sut)
 3835              		.loc 1 841 3 is_stmt 1
 3836 0032 FB79     		ldrb	r3, [r7, #7]	@ zero_extendqisi2
 3837 0034 022B     		cmp	r3, #2
 3838 0036 00F0B680 		beq	.L219
 3839 003a 022B     		cmp	r3, #2
 3840 003c 00F3BA80 		bgt	.L220
 3841 0040 002B     		cmp	r3, #0
 3842 0042 03D0     		beq	.L221
 3843 0044 012B     		cmp	r3, #1
 3844 0046 00F0A780 		beq	.L222
 3845 004a B3E0     		b	.L220
 3846              	.L221:
 842:Lib/AI_Runtime/Npu/ll_aton/ll_aton.c ****   {
 843:Lib/AI_Runtime/Npu/ll_aton/ll_aton.c ****   case STRSWITCH:
 844:Lib/AI_Runtime/Npu/ll_aton/ll_aton.c ****     switch (aut)
 3847              		.loc 1 844 5
 3848 004c 7B79     		ldrb	r3, [r7, #5]	@ zero_extendqisi2
 3849 004e 062B     		cmp	r3, #6
ARM GAS  /tmp/ccxZaNgH.s 			page 95


 3850 0050 00F29B80 		bhi	.L223
 3851 0054 01A2     		adr	r2, .L225
 3852 0056 52F823F0 		ldr	pc, [r2, r3, lsl #2]
 3853 005a 00BF     		.p2align 2
 3854              	.L225:
 3855 005c 79000000 		.word	.L230+1
 3856 0060 8B010000 		.word	.L223+1
 3857 0064 A5000000 		.word	.L229+1
 3858 0068 D3000000 		.word	.L228+1
 3859 006c 01010000 		.word	.L227+1
 3860 0070 2F010000 		.word	.L226+1
 3861 0074 5D010000 		.word	.L224+1
 3862              		.p2align 1
 3863              	.L230:
 845:Lib/AI_Runtime/Npu/ll_aton/ll_aton.c ****     {
 846:Lib/AI_Runtime/Npu/ll_aton/ll_aton.c **** #if defined(ATON_STRENG_NUM)
 847:Lib/AI_Runtime/Npu/ll_aton/ll_aton.c ****     case STRENG:
 848:Lib/AI_Runtime/Npu/ll_aton/ll_aton.c ****       LL_ATON_ASSERT(port == 0);
 3864              		.loc 1 848 7
 3865 0078 3B7E     		ldrb	r3, [r7, #24]	@ zero_extendqisi2
 3866 007a 002B     		cmp	r3, #0
 3867 007c 06D0     		beq	.L231
 3868              		.loc 1 848 7 is_stmt 0 discriminator 1
 3869 007e 534B     		ldr	r3, .L244+12
 3870 0080 504A     		ldr	r2, .L244+4
 3871 0082 4FF45471 		mov	r1, #848
 3872 0086 5048     		ldr	r0, .L244+8
 3873 0088 FFF7FEFF 		bl	__assert_func
 3874              	.L231:
 849:Lib/AI_Runtime/Npu/ll_aton/ll_aton.c ****       LL_ATON_ASSERT(au_num < ATON_STRENG_NUM);
 3875              		.loc 1 849 7 is_stmt 1
 3876 008c 3B79     		ldrb	r3, [r7, #4]	@ zero_extendqisi2
 3877 008e 092B     		cmp	r3, #9
 3878 0090 06D9     		bls	.L232
 3879              		.loc 1 849 7 is_stmt 0 discriminator 1
 3880 0092 4F4B     		ldr	r3, .L244+16
 3881 0094 4B4A     		ldr	r2, .L244+4
 3882 0096 40F25131 		movw	r1, #849
 3883 009a 4B48     		ldr	r0, .L244+8
 3884 009c FFF7FEFF 		bl	__assert_func
 3885              	.L232:
 850:Lib/AI_Runtime/Npu/ll_aton/ll_aton.c ****       return ATONN_CONST_SRCPORT(STRSWITCH, 0, STRENG, 0, 0) + au_num;
 3886              		.loc 1 850 62 is_stmt 1
 3887 00a0 3B79     		ldrb	r3, [r7, #4]	@ zero_extendqisi2
 3888 00a2 88E0     		b	.L233
 3889              	.L229:
 851:Lib/AI_Runtime/Npu/ll_aton/ll_aton.c ****       break;
 852:Lib/AI_Runtime/Npu/ll_aton/ll_aton.c **** #endif
 853:Lib/AI_Runtime/Npu/ll_aton/ll_aton.c **** #if defined(ATON_CONVACC_NUM)
 854:Lib/AI_Runtime/Npu/ll_aton/ll_aton.c ****     case CONVACC:
 855:Lib/AI_Runtime/Npu/ll_aton/ll_aton.c ****       LL_ATON_ASSERT(port == 0);
 3890              		.loc 1 855 7
 3891 00a4 3B7E     		ldrb	r3, [r7, #24]	@ zero_extendqisi2
 3892 00a6 002B     		cmp	r3, #0
 3893 00a8 06D0     		beq	.L234
 3894              		.loc 1 855 7 is_stmt 0 discriminator 1
 3895 00aa 484B     		ldr	r3, .L244+12
ARM GAS  /tmp/ccxZaNgH.s 			page 96


 3896 00ac 454A     		ldr	r2, .L244+4
 3897 00ae 40F25731 		movw	r1, #855
 3898 00b2 4548     		ldr	r0, .L244+8
 3899 00b4 FFF7FEFF 		bl	__assert_func
 3900              	.L234:
 856:Lib/AI_Runtime/Npu/ll_aton/ll_aton.c ****       LL_ATON_ASSERT(au_num < ATON_CONVACC_NUM);
 3901              		.loc 1 856 7 is_stmt 1
 3902 00b8 3B79     		ldrb	r3, [r7, #4]	@ zero_extendqisi2
 3903 00ba 032B     		cmp	r3, #3
 3904 00bc 06D9     		bls	.L235
 3905              		.loc 1 856 7 is_stmt 0 discriminator 1
 3906 00be 454B     		ldr	r3, .L244+20
 3907 00c0 404A     		ldr	r2, .L244+4
 3908 00c2 4FF45671 		mov	r1, #856
 3909 00c6 4048     		ldr	r0, .L244+8
 3910 00c8 FFF7FEFF 		bl	__assert_func
 3911              	.L235:
 857:Lib/AI_Runtime/Npu/ll_aton/ll_aton.c ****       return ATONN_CONST_SRCPORT(STRSWITCH, 0, CONVACC, 0, 0) + au_num;
 3912              		.loc 1 857 63 is_stmt 1
 3913 00cc 3B79     		ldrb	r3, [r7, #4]	@ zero_extendqisi2
 3914 00ce 0A33     		adds	r3, r3, #10
 3915 00d0 71E0     		b	.L233
 3916              	.L228:
 858:Lib/AI_Runtime/Npu/ll_aton/ll_aton.c ****       break;
 859:Lib/AI_Runtime/Npu/ll_aton/ll_aton.c **** #endif
 860:Lib/AI_Runtime/Npu/ll_aton/ll_aton.c **** #if defined(ATON_DECUN_NUM)
 861:Lib/AI_Runtime/Npu/ll_aton/ll_aton.c ****     case DECUN:
 862:Lib/AI_Runtime/Npu/ll_aton/ll_aton.c ****       LL_ATON_ASSERT(port == 0);
 3917              		.loc 1 862 7
 3918 00d2 3B7E     		ldrb	r3, [r7, #24]	@ zero_extendqisi2
 3919 00d4 002B     		cmp	r3, #0
 3920 00d6 06D0     		beq	.L236
 3921              		.loc 1 862 7 is_stmt 0 discriminator 1
 3922 00d8 3C4B     		ldr	r3, .L244+12
 3923 00da 3A4A     		ldr	r2, .L244+4
 3924 00dc 40F25E31 		movw	r1, #862
 3925 00e0 3948     		ldr	r0, .L244+8
 3926 00e2 FFF7FEFF 		bl	__assert_func
 3927              	.L236:
 863:Lib/AI_Runtime/Npu/ll_aton/ll_aton.c ****       LL_ATON_ASSERT(au_num < ATON_DECUN_NUM);
 3928              		.loc 1 863 7 is_stmt 1
 3929 00e6 3B79     		ldrb	r3, [r7, #4]	@ zero_extendqisi2
 3930 00e8 012B     		cmp	r3, #1
 3931 00ea 06D9     		bls	.L237
 3932              		.loc 1 863 7 is_stmt 0 discriminator 1
 3933 00ec 3A4B     		ldr	r3, .L244+24
 3934 00ee 354A     		ldr	r2, .L244+4
 3935 00f0 40F25F31 		movw	r1, #863
 3936 00f4 3448     		ldr	r0, .L244+8
 3937 00f6 FFF7FEFF 		bl	__assert_func
 3938              	.L237:
 864:Lib/AI_Runtime/Npu/ll_aton/ll_aton.c ****       return ATONN_CONST_SRCPORT(STRSWITCH, 0, DECUN, 0, 0) + au_num;
 3939              		.loc 1 864 61 is_stmt 1
 3940 00fa 3B79     		ldrb	r3, [r7, #4]	@ zero_extendqisi2
 3941 00fc 0E33     		adds	r3, r3, #14
 3942 00fe 5AE0     		b	.L233
 3943              	.L227:
ARM GAS  /tmp/ccxZaNgH.s 			page 97


 865:Lib/AI_Runtime/Npu/ll_aton/ll_aton.c ****       break;
 866:Lib/AI_Runtime/Npu/ll_aton/ll_aton.c **** #endif
 867:Lib/AI_Runtime/Npu/ll_aton/ll_aton.c **** #if defined(ATON_ACTIV_NUM)
 868:Lib/AI_Runtime/Npu/ll_aton/ll_aton.c ****     case ACTIV:
 869:Lib/AI_Runtime/Npu/ll_aton/ll_aton.c ****       LL_ATON_ASSERT(port == 0);
 3944              		.loc 1 869 7
 3945 0100 3B7E     		ldrb	r3, [r7, #24]	@ zero_extendqisi2
 3946 0102 002B     		cmp	r3, #0
 3947 0104 06D0     		beq	.L238
 3948              		.loc 1 869 7 is_stmt 0 discriminator 1
 3949 0106 314B     		ldr	r3, .L244+12
 3950 0108 2E4A     		ldr	r2, .L244+4
 3951 010a 40F26531 		movw	r1, #869
 3952 010e 2E48     		ldr	r0, .L244+8
 3953 0110 FFF7FEFF 		bl	__assert_func
 3954              	.L238:
 870:Lib/AI_Runtime/Npu/ll_aton/ll_aton.c ****       LL_ATON_ASSERT(au_num < ATON_ACTIV_NUM);
 3955              		.loc 1 870 7 is_stmt 1
 3956 0114 3B79     		ldrb	r3, [r7, #4]	@ zero_extendqisi2
 3957 0116 012B     		cmp	r3, #1
 3958 0118 06D9     		bls	.L239
 3959              		.loc 1 870 7 is_stmt 0 discriminator 1
 3960 011a 2F4B     		ldr	r3, .L244+24
 3961 011c 294A     		ldr	r2, .L244+4
 3962 011e 40F26631 		movw	r1, #870
 3963 0122 2948     		ldr	r0, .L244+8
 3964 0124 FFF7FEFF 		bl	__assert_func
 3965              	.L239:
 871:Lib/AI_Runtime/Npu/ll_aton/ll_aton.c ****       return ATONN_CONST_SRCPORT(STRSWITCH, 0, ACTIV, 0, 0) + au_num;
 3966              		.loc 1 871 61 is_stmt 1
 3967 0128 3B79     		ldrb	r3, [r7, #4]	@ zero_extendqisi2
 3968 012a 1033     		adds	r3, r3, #16
 3969 012c 43E0     		b	.L233
 3970              	.L226:
 872:Lib/AI_Runtime/Npu/ll_aton/ll_aton.c ****       break;
 873:Lib/AI_Runtime/Npu/ll_aton/ll_aton.c **** #endif
 874:Lib/AI_Runtime/Npu/ll_aton/ll_aton.c **** #if defined(ATON_ARITH_NUM)
 875:Lib/AI_Runtime/Npu/ll_aton/ll_aton.c ****     case ARITH:
 876:Lib/AI_Runtime/Npu/ll_aton/ll_aton.c ****       LL_ATON_ASSERT(port == 0);
 3971              		.loc 1 876 7
 3972 012e 3B7E     		ldrb	r3, [r7, #24]	@ zero_extendqisi2
 3973 0130 002B     		cmp	r3, #0
 3974 0132 06D0     		beq	.L240
 3975              		.loc 1 876 7 is_stmt 0 discriminator 1
 3976 0134 254B     		ldr	r3, .L244+12
 3977 0136 234A     		ldr	r2, .L244+4
 3978 0138 4FF45B71 		mov	r1, #876
 3979 013c 2248     		ldr	r0, .L244+8
 3980 013e FFF7FEFF 		bl	__assert_func
 3981              	.L240:
 877:Lib/AI_Runtime/Npu/ll_aton/ll_aton.c ****       LL_ATON_ASSERT(au_num < ATON_ARITH_NUM);
 3982              		.loc 1 877 7 is_stmt 1
 3983 0142 3B79     		ldrb	r3, [r7, #4]	@ zero_extendqisi2
 3984 0144 032B     		cmp	r3, #3
 3985 0146 06D9     		bls	.L241
 3986              		.loc 1 877 7 is_stmt 0 discriminator 1
 3987 0148 224B     		ldr	r3, .L244+20
ARM GAS  /tmp/ccxZaNgH.s 			page 98


 3988 014a 1E4A     		ldr	r2, .L244+4
 3989 014c 40F26D31 		movw	r1, #877
 3990 0150 1D48     		ldr	r0, .L244+8
 3991 0152 FFF7FEFF 		bl	__assert_func
 3992              	.L241:
 878:Lib/AI_Runtime/Npu/ll_aton/ll_aton.c ****       return ATONN_CONST_SRCPORT(STRSWITCH, 0, ARITH, 0, 0) + au_num;
 3993              		.loc 1 878 61 is_stmt 1
 3994 0156 3B79     		ldrb	r3, [r7, #4]	@ zero_extendqisi2
 3995 0158 1233     		adds	r3, r3, #18
 3996 015a 2CE0     		b	.L233
 3997              	.L224:
 879:Lib/AI_Runtime/Npu/ll_aton/ll_aton.c ****       break;
 880:Lib/AI_Runtime/Npu/ll_aton/ll_aton.c **** #endif
 881:Lib/AI_Runtime/Npu/ll_aton/ll_aton.c **** #if defined(ATON_POOL_NUM)
 882:Lib/AI_Runtime/Npu/ll_aton/ll_aton.c ****     case POOL:
 883:Lib/AI_Runtime/Npu/ll_aton/ll_aton.c ****       LL_ATON_ASSERT(port == 0);
 3998              		.loc 1 883 7
 3999 015c 3B7E     		ldrb	r3, [r7, #24]	@ zero_extendqisi2
 4000 015e 002B     		cmp	r3, #0
 4001 0160 06D0     		beq	.L242
 4002              		.loc 1 883 7 is_stmt 0 discriminator 1
 4003 0162 1A4B     		ldr	r3, .L244+12
 4004 0164 174A     		ldr	r2, .L244+4
 4005 0166 40F27331 		movw	r1, #883
 4006 016a 1748     		ldr	r0, .L244+8
 4007 016c FFF7FEFF 		bl	__assert_func
 4008              	.L242:
 884:Lib/AI_Runtime/Npu/ll_aton/ll_aton.c ****       LL_ATON_ASSERT(au_num < ATON_POOL_NUM);
 4009              		.loc 1 884 7 is_stmt 1
 4010 0170 3B79     		ldrb	r3, [r7, #4]	@ zero_extendqisi2
 4011 0172 012B     		cmp	r3, #1
 4012 0174 06D9     		bls	.L243
 4013              		.loc 1 884 7 is_stmt 0 discriminator 1
 4014 0176 184B     		ldr	r3, .L244+24
 4015 0178 124A     		ldr	r2, .L244+4
 4016 017a 4FF45D71 		mov	r1, #884
 4017 017e 1248     		ldr	r0, .L244+8
 4018 0180 FFF7FEFF 		bl	__assert_func
 4019              	.L243:
 885:Lib/AI_Runtime/Npu/ll_aton/ll_aton.c ****       return ATONN_CONST_SRCPORT(STRSWITCH, 0, POOL, 0, 0) + au_num;
 4020              		.loc 1 885 60 is_stmt 1
 4021 0184 3B79     		ldrb	r3, [r7, #4]	@ zero_extendqisi2
 4022 0186 1633     		adds	r3, r3, #22
 4023 0188 15E0     		b	.L233
 4024              	.L223:
 886:Lib/AI_Runtime/Npu/ll_aton/ll_aton.c ****       break;
 887:Lib/AI_Runtime/Npu/ll_aton/ll_aton.c **** #endif
 888:Lib/AI_Runtime/Npu/ll_aton/ll_aton.c ****     default:
 889:Lib/AI_Runtime/Npu/ll_aton/ll_aton.c ****       LL_ATON_ASSERT(0);
 4025              		.loc 1 889 7
 4026 018a 144B     		ldr	r3, .L244+28
 4027 018c 0D4A     		ldr	r2, .L244+4
 4028 018e 40F27931 		movw	r1, #889
 4029 0192 0D48     		ldr	r0, .L244+8
 4030 0194 FFF7FEFF 		bl	__assert_func
 4031              	.L222:
 890:Lib/AI_Runtime/Npu/ll_aton/ll_aton.c ****       break;
ARM GAS  /tmp/ccxZaNgH.s 			page 99


 891:Lib/AI_Runtime/Npu/ll_aton/ll_aton.c ****     }
 892:Lib/AI_Runtime/Npu/ll_aton/ll_aton.c ****     break;
 893:Lib/AI_Runtime/Npu/ll_aton/ll_aton.c ****   case STRSWITCH64:
 894:Lib/AI_Runtime/Npu/ll_aton/ll_aton.c ****     // TODO
 895:Lib/AI_Runtime/Npu/ll_aton/ll_aton.c ****     LL_ATON_ASSERT(0);
 4032              		.loc 1 895 5
 4033 0198 104B     		ldr	r3, .L244+28
 4034 019a 0A4A     		ldr	r2, .L244+4
 4035 019c 40F27F31 		movw	r1, #895
 4036 01a0 0948     		ldr	r0, .L244+8
 4037 01a2 FFF7FEFF 		bl	__assert_func
 4038              	.L219:
 896:Lib/AI_Runtime/Npu/ll_aton/ll_aton.c ****     break;
 897:Lib/AI_Runtime/Npu/ll_aton/ll_aton.c ****   case STRSWITCH_VC:
 898:Lib/AI_Runtime/Npu/ll_aton/ll_aton.c ****     // TODO
 899:Lib/AI_Runtime/Npu/ll_aton/ll_aton.c ****     LL_ATON_ASSERT(0);
 4039              		.loc 1 899 5
 4040 01a6 0D4B     		ldr	r3, .L244+28
 4041 01a8 064A     		ldr	r2, .L244+4
 4042 01aa 40F28331 		movw	r1, #899
 4043 01ae 0648     		ldr	r0, .L244+8
 4044 01b0 FFF7FEFF 		bl	__assert_func
 4045              	.L220:
 900:Lib/AI_Runtime/Npu/ll_aton/ll_aton.c ****     break;
 901:Lib/AI_Runtime/Npu/ll_aton/ll_aton.c ****   }
 902:Lib/AI_Runtime/Npu/ll_aton/ll_aton.c ****   return 0;
 4046              		.loc 1 902 10
 4047 01b4 0023     		movs	r3, #0
 4048              	.L233:
 903:Lib/AI_Runtime/Npu/ll_aton/ll_aton.c **** }
 4049              		.loc 1 903 1
 4050 01b6 1846     		mov	r0, r3
 4051 01b8 0C37     		adds	r7, r7, #12
 4052              		.cfi_def_cfa_offset 12
 4053 01ba BD46     		mov	sp, r7
 4054              		.cfi_def_cfa_register 13
 4055              		@ sp needed
 4056 01bc 90BD     		pop	{r4, r7, pc}
 4057              	.L245:
 4058 01be 00BF     		.align	2
 4059              	.L244:
 4060 01c0 28020000 		.word	.LC24
 4061 01c4 00000000 		.word	__func__.6
 4062 01c8 3C000000 		.word	.LC4
 4063 01cc 34020000 		.word	.LC25
 4064 01d0 40020000 		.word	.LC26
 4065 01d4 4C020000 		.word	.LC27
 4066 01d8 58020000 		.word	.LC28
 4067 01dc AC010000 		.word	.LC11
 4068              		.cfi_endproc
 4069              	.LFE4834:
 4071              		.section	.rodata
 4072 0263 00       		.align	2
 4073              	.LC29:
 4074 0264 706F7274 		.ascii	"port < 3\000"
 4074      203C2033 
 4074      00
ARM GAS  /tmp/ccxZaNgH.s 			page 100


 4075 026d 000000   		.align	2
 4076              	.LC30:
 4077 0270 706F7274 		.ascii	"port < 2\000"
 4077      203C2032 
 4077      00
 4078              		.section	.text.__atonn_getDstPortID,"ax",%progbits
 4079              		.align	1
 4080              		.global	__atonn_getDstPortID
 4081              		.syntax unified
 4082              		.thumb
 4083              		.thumb_func
 4085              	__atonn_getDstPortID:
 4086              	.LFB4835:
 904:Lib/AI_Runtime/Npu/ll_aton/ll_aton.c **** 
 905:Lib/AI_Runtime/Npu/ll_aton/ll_aton.c **** unsigned __atonn_getDstPortID(enum SwitchUnitsType sut, unsigned char su_num, enum AccelUnitsType a
 906:Lib/AI_Runtime/Npu/ll_aton/ll_aton.c ****                               unsigned char au_num, unsigned char port)
 907:Lib/AI_Runtime/Npu/ll_aton/ll_aton.c **** {
 4087              		.loc 1 907 1
 4088              		.cfi_startproc
 4089              		@ args = 4, pretend = 0, frame = 8
 4090              		@ frame_needed = 1, uses_anonymous_args = 0
 4091 0000 90B5     		push	{r4, r7, lr}
 4092              		.cfi_def_cfa_offset 12
 4093              		.cfi_offset 4, -12
 4094              		.cfi_offset 7, -8
 4095              		.cfi_offset 14, -4
 4096 0002 83B0     		sub	sp, sp, #12
 4097              		.cfi_def_cfa_offset 24
 4098 0004 00AF     		add	r7, sp, #0
 4099              		.cfi_def_cfa_register 7
 4100 0006 0446     		mov	r4, r0
 4101 0008 0846     		mov	r0, r1
 4102 000a 1146     		mov	r1, r2
 4103 000c 1A46     		mov	r2, r3
 4104 000e 2346     		mov	r3, r4
 4105 0010 FB71     		strb	r3, [r7, #7]
 4106 0012 0346     		mov	r3, r0
 4107 0014 BB71     		strb	r3, [r7, #6]
 4108 0016 0B46     		mov	r3, r1
 4109 0018 7B71     		strb	r3, [r7, #5]
 4110 001a 1346     		mov	r3, r2
 4111 001c 3B71     		strb	r3, [r7, #4]
 908:Lib/AI_Runtime/Npu/ll_aton/ll_aton.c ****   // FIXME
 909:Lib/AI_Runtime/Npu/ll_aton/ll_aton.c ****   LL_ATON_ASSERT(su_num == 0);
 4112              		.loc 1 909 3
 4113 001e BB79     		ldrb	r3, [r7, #6]	@ zero_extendqisi2
 4114 0020 002B     		cmp	r3, #0
 4115 0022 06D0     		beq	.L247
 4116              		.loc 1 909 3 is_stmt 0 discriminator 1
 4117 0024 6F4B     		ldr	r3, .L273
 4118 0026 704A     		ldr	r2, .L273+4
 4119 0028 40F28D31 		movw	r1, #909
 4120 002c 6F48     		ldr	r0, .L273+8
 4121 002e FFF7FEFF 		bl	__assert_func
 4122              	.L247:
 910:Lib/AI_Runtime/Npu/ll_aton/ll_aton.c ****   switch (sut)
 4123              		.loc 1 910 3 is_stmt 1
ARM GAS  /tmp/ccxZaNgH.s 			page 101


 4124 0032 FB79     		ldrb	r3, [r7, #7]	@ zero_extendqisi2
 4125 0034 022B     		cmp	r3, #2
 4126 0036 00F0C880 		beq	.L248
 4127 003a 022B     		cmp	r3, #2
 4128 003c 00F3CC80 		bgt	.L249
 4129 0040 002B     		cmp	r3, #0
 4130 0042 03D0     		beq	.L250
 4131 0044 012B     		cmp	r3, #1
 4132 0046 00F0B980 		beq	.L251
 4133 004a C5E0     		b	.L249
 4134              	.L250:
 911:Lib/AI_Runtime/Npu/ll_aton/ll_aton.c ****   {
 912:Lib/AI_Runtime/Npu/ll_aton/ll_aton.c ****   case STRSWITCH:
 913:Lib/AI_Runtime/Npu/ll_aton/ll_aton.c ****     switch (aut)
 4135              		.loc 1 913 5
 4136 004c 7B79     		ldrb	r3, [r7, #5]	@ zero_extendqisi2
 4137 004e 062B     		cmp	r3, #6
 4138 0050 00F2AD80 		bhi	.L252
 4139 0054 01A2     		adr	r2, .L254
 4140 0056 52F823F0 		ldr	pc, [r2, r3, lsl #2]
 4141 005a 00BF     		.p2align 2
 4142              	.L254:
 4143 005c 79000000 		.word	.L259+1
 4144 0060 AF010000 		.word	.L252+1
 4145 0064 A9000000 		.word	.L258+1
 4146 0068 E3000000 		.word	.L257+1
 4147 006c 19010000 		.word	.L256+1
 4148 0070 49010000 		.word	.L255+1
 4149 0074 7F010000 		.word	.L253+1
 4150              		.p2align 1
 4151              	.L259:
 914:Lib/AI_Runtime/Npu/ll_aton/ll_aton.c ****     {
 915:Lib/AI_Runtime/Npu/ll_aton/ll_aton.c **** #if defined(ATON_STRENG_NUM)
 916:Lib/AI_Runtime/Npu/ll_aton/ll_aton.c ****     case STRENG:
 917:Lib/AI_Runtime/Npu/ll_aton/ll_aton.c ****       LL_ATON_ASSERT(port == 0);
 4152              		.loc 1 917 7
 4153 0078 3B7E     		ldrb	r3, [r7, #24]	@ zero_extendqisi2
 4154 007a 002B     		cmp	r3, #0
 4155 007c 06D0     		beq	.L260
 4156              		.loc 1 917 7 is_stmt 0 discriminator 1
 4157 007e 5C4B     		ldr	r3, .L273+12
 4158 0080 594A     		ldr	r2, .L273+4
 4159 0082 40F29531 		movw	r1, #917
 4160 0086 5948     		ldr	r0, .L273+8
 4161 0088 FFF7FEFF 		bl	__assert_func
 4162              	.L260:
 918:Lib/AI_Runtime/Npu/ll_aton/ll_aton.c ****       LL_ATON_ASSERT(au_num < ATON_STRENG_NUM);
 4163              		.loc 1 918 7 is_stmt 1
 4164 008c 3B79     		ldrb	r3, [r7, #4]	@ zero_extendqisi2
 4165 008e 092B     		cmp	r3, #9
 4166 0090 06D9     		bls	.L261
 4167              		.loc 1 918 7 is_stmt 0 discriminator 1
 4168 0092 584B     		ldr	r3, .L273+16
 4169 0094 544A     		ldr	r2, .L273+4
 4170 0096 40F29631 		movw	r1, #918
 4171 009a 5448     		ldr	r0, .L273+8
 4172 009c FFF7FEFF 		bl	__assert_func
ARM GAS  /tmp/ccxZaNgH.s 			page 102


 4173              	.L261:
 919:Lib/AI_Runtime/Npu/ll_aton/ll_aton.c ****       return ATONN_CONST_DSTPORT(STRSWITCH, 0, STRENG, 0, 0) + (0x4 * au_num);
 4174              		.loc 1 919 69 is_stmt 1
 4175 00a0 3B79     		ldrb	r3, [r7, #4]	@ zero_extendqisi2
 4176 00a2 9B00     		lsls	r3, r3, #2
 4177              		.loc 1 919 62
 4178 00a4 0833     		adds	r3, r3, #8
 4179 00a6 98E0     		b	.L262
 4180              	.L258:
 920:Lib/AI_Runtime/Npu/ll_aton/ll_aton.c ****       break;
 921:Lib/AI_Runtime/Npu/ll_aton/ll_aton.c **** #endif
 922:Lib/AI_Runtime/Npu/ll_aton/ll_aton.c **** #if defined(ATON_CONVACC_NUM)
 923:Lib/AI_Runtime/Npu/ll_aton/ll_aton.c ****     case CONVACC:
 924:Lib/AI_Runtime/Npu/ll_aton/ll_aton.c ****       LL_ATON_ASSERT(port < 3);
 4181              		.loc 1 924 7
 4182 00a8 3B7E     		ldrb	r3, [r7, #24]	@ zero_extendqisi2
 4183 00aa 022B     		cmp	r3, #2
 4184 00ac 06D9     		bls	.L263
 4185              		.loc 1 924 7 is_stmt 0 discriminator 1
 4186 00ae 524B     		ldr	r3, .L273+20
 4187 00b0 4D4A     		ldr	r2, .L273+4
 4188 00b2 4FF46771 		mov	r1, #924
 4189 00b6 4D48     		ldr	r0, .L273+8
 4190 00b8 FFF7FEFF 		bl	__assert_func
 4191              	.L263:
 925:Lib/AI_Runtime/Npu/ll_aton/ll_aton.c ****       LL_ATON_ASSERT(au_num < ATON_CONVACC_NUM);
 4192              		.loc 1 925 7 is_stmt 1
 4193 00bc 3B79     		ldrb	r3, [r7, #4]	@ zero_extendqisi2
 4194 00be 032B     		cmp	r3, #3
 4195 00c0 06D9     		bls	.L264
 4196              		.loc 1 925 7 is_stmt 0 discriminator 1
 4197 00c2 4E4B     		ldr	r3, .L273+24
 4198 00c4 484A     		ldr	r2, .L273+4
 4199 00c6 40F29D31 		movw	r1, #925
 4200 00ca 4848     		ldr	r0, .L273+8
 4201 00cc FFF7FEFF 		bl	__assert_func
 4202              	.L264:
 926:Lib/AI_Runtime/Npu/ll_aton/ll_aton.c ****       return ATONN_CONST_DSTPORT(STRSWITCH, 0, CONVACC, 0, 0) + (0x4 * (3 * au_num + port));
 4203              		.loc 1 926 75 is_stmt 1
 4204 00d0 3A79     		ldrb	r2, [r7, #4]	@ zero_extendqisi2
 4205 00d2 1346     		mov	r3, r2
 4206 00d4 5B00     		lsls	r3, r3, #1
 4207 00d6 1A44     		add	r2, r2, r3
 4208              		.loc 1 926 84
 4209 00d8 3B7E     		ldrb	r3, [r7, #24]	@ zero_extendqisi2
 4210 00da 1344     		add	r3, r3, r2
 4211              		.loc 1 926 70
 4212 00dc 9B00     		lsls	r3, r3, #2
 4213              		.loc 1 926 63
 4214 00de 3033     		adds	r3, r3, #48
 4215 00e0 7BE0     		b	.L262
 4216              	.L257:
 927:Lib/AI_Runtime/Npu/ll_aton/ll_aton.c ****       break;
 928:Lib/AI_Runtime/Npu/ll_aton/ll_aton.c **** #endif
 929:Lib/AI_Runtime/Npu/ll_aton/ll_aton.c **** #if defined(ATON_DECUN_NUM)
 930:Lib/AI_Runtime/Npu/ll_aton/ll_aton.c ****     case DECUN:
 931:Lib/AI_Runtime/Npu/ll_aton/ll_aton.c ****       LL_ATON_ASSERT(port < 2);
ARM GAS  /tmp/ccxZaNgH.s 			page 103


 4217              		.loc 1 931 7
 4218 00e2 3B7E     		ldrb	r3, [r7, #24]	@ zero_extendqisi2
 4219 00e4 012B     		cmp	r3, #1
 4220 00e6 06D9     		bls	.L265
 4221              		.loc 1 931 7 is_stmt 0 discriminator 1
 4222 00e8 454B     		ldr	r3, .L273+28
 4223 00ea 3F4A     		ldr	r2, .L273+4
 4224 00ec 40F2A331 		movw	r1, #931
 4225 00f0 3E48     		ldr	r0, .L273+8
 4226 00f2 FFF7FEFF 		bl	__assert_func
 4227              	.L265:
 932:Lib/AI_Runtime/Npu/ll_aton/ll_aton.c ****       LL_ATON_ASSERT(au_num < ATON_DECUN_NUM);
 4228              		.loc 1 932 7 is_stmt 1
 4229 00f6 3B79     		ldrb	r3, [r7, #4]	@ zero_extendqisi2
 4230 00f8 012B     		cmp	r3, #1
 4231 00fa 06D9     		bls	.L266
 4232              		.loc 1 932 7 is_stmt 0 discriminator 1
 4233 00fc 414B     		ldr	r3, .L273+32
 4234 00fe 3A4A     		ldr	r2, .L273+4
 4235 0100 4FF46971 		mov	r1, #932
 4236 0104 3948     		ldr	r0, .L273+8
 4237 0106 FFF7FEFF 		bl	__assert_func
 4238              	.L266:
 933:Lib/AI_Runtime/Npu/ll_aton/ll_aton.c ****       return ATONN_CONST_DSTPORT(STRSWITCH, 0, DECUN, 0, 0) + (0x4 * (2 * au_num + port));
 4239              		.loc 1 933 73 is_stmt 1
 4240 010a 3B79     		ldrb	r3, [r7, #4]	@ zero_extendqisi2
 4241 010c 5A00     		lsls	r2, r3, #1
 4242              		.loc 1 933 82
 4243 010e 3B7E     		ldrb	r3, [r7, #24]	@ zero_extendqisi2
 4244 0110 1344     		add	r3, r3, r2
 4245              		.loc 1 933 68
 4246 0112 9B00     		lsls	r3, r3, #2
 4247              		.loc 1 933 61
 4248 0114 6033     		adds	r3, r3, #96
 4249 0116 60E0     		b	.L262
 4250              	.L256:
 934:Lib/AI_Runtime/Npu/ll_aton/ll_aton.c ****       break;
 935:Lib/AI_Runtime/Npu/ll_aton/ll_aton.c **** #endif
 936:Lib/AI_Runtime/Npu/ll_aton/ll_aton.c **** #if defined(ATON_ACTIV_NUM)
 937:Lib/AI_Runtime/Npu/ll_aton/ll_aton.c ****     case ACTIV:
 938:Lib/AI_Runtime/Npu/ll_aton/ll_aton.c ****       LL_ATON_ASSERT(port == 0);
 4251              		.loc 1 938 7
 4252 0118 3B7E     		ldrb	r3, [r7, #24]	@ zero_extendqisi2
 4253 011a 002B     		cmp	r3, #0
 4254 011c 06D0     		beq	.L267
 4255              		.loc 1 938 7 is_stmt 0 discriminator 1
 4256 011e 344B     		ldr	r3, .L273+12
 4257 0120 314A     		ldr	r2, .L273+4
 4258 0122 40F2AA31 		movw	r1, #938
 4259 0126 3148     		ldr	r0, .L273+8
 4260 0128 FFF7FEFF 		bl	__assert_func
 4261              	.L267:
 939:Lib/AI_Runtime/Npu/ll_aton/ll_aton.c ****       LL_ATON_ASSERT(au_num < ATON_ACTIV_NUM);
 4262              		.loc 1 939 7 is_stmt 1
 4263 012c 3B79     		ldrb	r3, [r7, #4]	@ zero_extendqisi2
 4264 012e 012B     		cmp	r3, #1
 4265 0130 06D9     		bls	.L268
ARM GAS  /tmp/ccxZaNgH.s 			page 104


 4266              		.loc 1 939 7 is_stmt 0 discriminator 1
 4267 0132 344B     		ldr	r3, .L273+32
 4268 0134 2C4A     		ldr	r2, .L273+4
 4269 0136 40F2AB31 		movw	r1, #939
 4270 013a 2C48     		ldr	r0, .L273+8
 4271 013c FFF7FEFF 		bl	__assert_func
 4272              	.L268:
 940:Lib/AI_Runtime/Npu/ll_aton/ll_aton.c ****       return ATONN_CONST_DSTPORT(STRSWITCH, 0, ACTIV, 0, 0) + (0x4 * au_num);
 4273              		.loc 1 940 68 is_stmt 1
 4274 0140 3B79     		ldrb	r3, [r7, #4]	@ zero_extendqisi2
 4275 0142 9B00     		lsls	r3, r3, #2
 4276              		.loc 1 940 61
 4277 0144 7033     		adds	r3, r3, #112
 4278 0146 48E0     		b	.L262
 4279              	.L255:
 941:Lib/AI_Runtime/Npu/ll_aton/ll_aton.c ****       break;
 942:Lib/AI_Runtime/Npu/ll_aton/ll_aton.c **** #endif
 943:Lib/AI_Runtime/Npu/ll_aton/ll_aton.c **** #if defined(ATON_ARITH_NUM)
 944:Lib/AI_Runtime/Npu/ll_aton/ll_aton.c ****     case ARITH:
 945:Lib/AI_Runtime/Npu/ll_aton/ll_aton.c ****       LL_ATON_ASSERT(port < 2);
 4280              		.loc 1 945 7
 4281 0148 3B7E     		ldrb	r3, [r7, #24]	@ zero_extendqisi2
 4282 014a 012B     		cmp	r3, #1
 4283 014c 06D9     		bls	.L269
 4284              		.loc 1 945 7 is_stmt 0 discriminator 1
 4285 014e 2C4B     		ldr	r3, .L273+28
 4286 0150 254A     		ldr	r2, .L273+4
 4287 0152 40F2B131 		movw	r1, #945
 4288 0156 2548     		ldr	r0, .L273+8
 4289 0158 FFF7FEFF 		bl	__assert_func
 4290              	.L269:
 946:Lib/AI_Runtime/Npu/ll_aton/ll_aton.c ****       LL_ATON_ASSERT(au_num < ATON_ARITH_NUM);
 4291              		.loc 1 946 7 is_stmt 1
 4292 015c 3B79     		ldrb	r3, [r7, #4]	@ zero_extendqisi2
 4293 015e 032B     		cmp	r3, #3
 4294 0160 06D9     		bls	.L270
 4295              		.loc 1 946 7 is_stmt 0 discriminator 1
 4296 0162 264B     		ldr	r3, .L273+24
 4297 0164 204A     		ldr	r2, .L273+4
 4298 0166 40F2B231 		movw	r1, #946
 4299 016a 2048     		ldr	r0, .L273+8
 4300 016c FFF7FEFF 		bl	__assert_func
 4301              	.L270:
 947:Lib/AI_Runtime/Npu/ll_aton/ll_aton.c ****       return ATONN_CONST_DSTPORT(STRSWITCH, 0, ARITH, 0, 0) + (0x4 * (2 * au_num + port));
 4302              		.loc 1 947 73 is_stmt 1
 4303 0170 3B79     		ldrb	r3, [r7, #4]	@ zero_extendqisi2
 4304 0172 5A00     		lsls	r2, r3, #1
 4305              		.loc 1 947 82
 4306 0174 3B7E     		ldrb	r3, [r7, #24]	@ zero_extendqisi2
 4307 0176 1344     		add	r3, r3, r2
 4308              		.loc 1 947 68
 4309 0178 9B00     		lsls	r3, r3, #2
 4310              		.loc 1 947 61
 4311 017a 7833     		adds	r3, r3, #120
 4312 017c 2DE0     		b	.L262
 4313              	.L253:
 948:Lib/AI_Runtime/Npu/ll_aton/ll_aton.c ****       break;
ARM GAS  /tmp/ccxZaNgH.s 			page 105


 949:Lib/AI_Runtime/Npu/ll_aton/ll_aton.c **** #endif
 950:Lib/AI_Runtime/Npu/ll_aton/ll_aton.c **** #if defined(ATON_POOL_NUM)
 951:Lib/AI_Runtime/Npu/ll_aton/ll_aton.c ****     case POOL:
 952:Lib/AI_Runtime/Npu/ll_aton/ll_aton.c ****       LL_ATON_ASSERT(port == 0);
 4314              		.loc 1 952 7
 4315 017e 3B7E     		ldrb	r3, [r7, #24]	@ zero_extendqisi2
 4316 0180 002B     		cmp	r3, #0
 4317 0182 06D0     		beq	.L271
 4318              		.loc 1 952 7 is_stmt 0 discriminator 1
 4319 0184 1A4B     		ldr	r3, .L273+12
 4320 0186 184A     		ldr	r2, .L273+4
 4321 0188 4FF46E71 		mov	r1, #952
 4322 018c 1748     		ldr	r0, .L273+8
 4323 018e FFF7FEFF 		bl	__assert_func
 4324              	.L271:
 953:Lib/AI_Runtime/Npu/ll_aton/ll_aton.c ****       LL_ATON_ASSERT(au_num < ATON_POOL_NUM);
 4325              		.loc 1 953 7 is_stmt 1
 4326 0192 3B79     		ldrb	r3, [r7, #4]	@ zero_extendqisi2
 4327 0194 012B     		cmp	r3, #1
 4328 0196 06D9     		bls	.L272
 4329              		.loc 1 953 7 is_stmt 0 discriminator 1
 4330 0198 1A4B     		ldr	r3, .L273+32
 4331 019a 134A     		ldr	r2, .L273+4
 4332 019c 40F2B931 		movw	r1, #953
 4333 01a0 1248     		ldr	r0, .L273+8
 4334 01a2 FFF7FEFF 		bl	__assert_func
 4335              	.L272:
 954:Lib/AI_Runtime/Npu/ll_aton/ll_aton.c ****       return ATONN_CONST_DSTPORT(STRSWITCH, 0, POOL, 0, 0) + (0x4 * au_num);
 4336              		.loc 1 954 67 is_stmt 1
 4337 01a6 3B79     		ldrb	r3, [r7, #4]	@ zero_extendqisi2
 4338 01a8 9B00     		lsls	r3, r3, #2
 4339              		.loc 1 954 60
 4340 01aa 9833     		adds	r3, r3, #152
 4341 01ac 15E0     		b	.L262
 4342              	.L252:
 955:Lib/AI_Runtime/Npu/ll_aton/ll_aton.c ****       break;
 956:Lib/AI_Runtime/Npu/ll_aton/ll_aton.c **** #endif
 957:Lib/AI_Runtime/Npu/ll_aton/ll_aton.c ****     default:
 958:Lib/AI_Runtime/Npu/ll_aton/ll_aton.c ****       LL_ATON_ASSERT(0);
 4343              		.loc 1 958 7
 4344 01ae 164B     		ldr	r3, .L273+36
 4345 01b0 0D4A     		ldr	r2, .L273+4
 4346 01b2 40F2BE31 		movw	r1, #958
 4347 01b6 0D48     		ldr	r0, .L273+8
 4348 01b8 FFF7FEFF 		bl	__assert_func
 4349              	.L251:
 959:Lib/AI_Runtime/Npu/ll_aton/ll_aton.c ****       break;
 960:Lib/AI_Runtime/Npu/ll_aton/ll_aton.c ****     }
 961:Lib/AI_Runtime/Npu/ll_aton/ll_aton.c ****     break;
 962:Lib/AI_Runtime/Npu/ll_aton/ll_aton.c ****   case STRSWITCH64:
 963:Lib/AI_Runtime/Npu/ll_aton/ll_aton.c ****     // TODO
 964:Lib/AI_Runtime/Npu/ll_aton/ll_aton.c ****     LL_ATON_ASSERT(0);
 4350              		.loc 1 964 5
 4351 01bc 124B     		ldr	r3, .L273+36
 4352 01be 0A4A     		ldr	r2, .L273+4
 4353 01c0 4FF47171 		mov	r1, #964
 4354 01c4 0948     		ldr	r0, .L273+8
ARM GAS  /tmp/ccxZaNgH.s 			page 106


 4355 01c6 FFF7FEFF 		bl	__assert_func
 4356              	.L248:
 965:Lib/AI_Runtime/Npu/ll_aton/ll_aton.c ****     break;
 966:Lib/AI_Runtime/Npu/ll_aton/ll_aton.c ****   case STRSWITCH_VC:
 967:Lib/AI_Runtime/Npu/ll_aton/ll_aton.c ****     // TODO
 968:Lib/AI_Runtime/Npu/ll_aton/ll_aton.c ****     LL_ATON_ASSERT(0);
 4357              		.loc 1 968 5
 4358 01ca 0F4B     		ldr	r3, .L273+36
 4359 01cc 064A     		ldr	r2, .L273+4
 4360 01ce 4FF47271 		mov	r1, #968
 4361 01d2 0648     		ldr	r0, .L273+8
 4362 01d4 FFF7FEFF 		bl	__assert_func
 4363              	.L249:
 969:Lib/AI_Runtime/Npu/ll_aton/ll_aton.c ****     break;
 970:Lib/AI_Runtime/Npu/ll_aton/ll_aton.c ****   }
 971:Lib/AI_Runtime/Npu/ll_aton/ll_aton.c ****   return 0;
 4364              		.loc 1 971 10
 4365 01d8 0023     		movs	r3, #0
 4366              	.L262:
 972:Lib/AI_Runtime/Npu/ll_aton/ll_aton.c **** }
 4367              		.loc 1 972 1
 4368 01da 1846     		mov	r0, r3
 4369 01dc 0C37     		adds	r7, r7, #12
 4370              		.cfi_def_cfa_offset 12
 4371 01de BD46     		mov	sp, r7
 4372              		.cfi_def_cfa_register 13
 4373              		@ sp needed
 4374 01e0 90BD     		pop	{r4, r7, pc}
 4375              	.L274:
 4376 01e2 00BF     		.align	2
 4377              	.L273:
 4378 01e4 28020000 		.word	.LC24
 4379 01e8 00000000 		.word	__func__.5
 4380 01ec 3C000000 		.word	.LC4
 4381 01f0 34020000 		.word	.LC25
 4382 01f4 40020000 		.word	.LC26
 4383 01f8 64020000 		.word	.LC29
 4384 01fc 4C020000 		.word	.LC27
 4385 0200 70020000 		.word	.LC30
 4386 0204 58020000 		.word	.LC28
 4387 0208 AC010000 		.word	.LC11
 4388              		.cfi_endproc
 4389              	.LFE4835:
 4391              		.section	.rodata
 4392 0279 000000   		.align	2
 4393              	.LC0:
 4394 027c 01000000 		.word	1
 4395 0280 11000000 		.word	17
 4396              		.align	2
 4397              	.LC1:
 4398 0284 08000000 		.word	8
 4399 0288 18000000 		.word	24
 4400              		.align	2
 4401              	.LC2:
 4402 028c 00FF0000 		.word	65280
 4403 0290 000000FF 		.word	-16777216
 4404              		.section	.text.LL_Switch_Init_NoReset,"ax",%progbits
ARM GAS  /tmp/ccxZaNgH.s 			page 107


 4405              		.align	1
 4406              		.global	LL_Switch_Init_NoReset
 4407              		.syntax unified
 4408              		.thumb
 4409              		.thumb_func
 4411              	LL_Switch_Init_NoReset:
 4412              	.LFB4836:
 973:Lib/AI_Runtime/Npu/ll_aton/ll_aton.c **** 
 974:Lib/AI_Runtime/Npu/ll_aton/ll_aton.c **** /**
 975:Lib/AI_Runtime/Npu/ll_aton/ll_aton.c ****  * @brief  Connects input and output port(s) on the streaming switch (without clearing configuratio
 976:Lib/AI_Runtime/Npu/ll_aton/ll_aton.c ****  * @param  LL_Switch_InitStruct Pointer to structure(s) describing ports to be connected
 977:Lib/AI_Runtime/Npu/ll_aton/ll_aton.c ****  * @param  n Number of entries in configuration array
 978:Lib/AI_Runtime/Npu/ll_aton/ll_aton.c ****  * @retval Error code
 979:Lib/AI_Runtime/Npu/ll_aton/ll_aton.c ****  */
 980:Lib/AI_Runtime/Npu/ll_aton/ll_aton.c **** int LL_Switch_Init_NoReset(const LL_Switch_InitTypeDef *LL_Switch_InitStruct, int n)
 981:Lib/AI_Runtime/Npu/ll_aton/ll_aton.c **** {
 4413              		.loc 1 981 1
 4414              		.cfi_startproc
 4415              		@ args = 0, pretend = 0, frame = 56
 4416              		@ frame_needed = 1, uses_anonymous_args = 0
 4417              		@ link register save eliminated.
 4418 0000 80B4     		push	{r7}
 4419              		.cfi_def_cfa_offset 4
 4420              		.cfi_offset 7, -4
 4421 0002 8FB0     		sub	sp, sp, #60
 4422              		.cfi_def_cfa_offset 64
 4423 0004 00AF     		add	r7, sp, #0
 4424              		.cfi_def_cfa_register 7
 4425 0006 7860     		str	r0, [r7, #4]
 4426 0008 3960     		str	r1, [r7]
 982:Lib/AI_Runtime/Npu/ll_aton/ll_aton.c ****   int i;
 983:Lib/AI_Runtime/Npu/ll_aton/ll_aton.c ****   volatile uint32_t *reg;
 984:Lib/AI_Runtime/Npu/ll_aton/ll_aton.c ****   uint32_t t;
 985:Lib/AI_Runtime/Npu/ll_aton/ll_aton.c ****   unsigned int en_shift[ATON_SWITCH_CONTEXT_NUM] = {ATON_STRSWITCH_DST_EN0_LSB, ATON_STRSWITCH_DST_
 4427              		.loc 1 985 16
 4428 000a 0023     		movs	r3, #0
 4429 000c 7B62     		str	r3, [r7, #36]
 4430 000e 1023     		movs	r3, #16
 4431 0010 BB62     		str	r3, [r7, #40]
 986:Lib/AI_Runtime/Npu/ll_aton/ll_aton.c ****   unsigned int link_shift[ATON_SWITCH_CONTEXT_NUM] = {ATON_STRSWITCH_DST_LINK0_LSB, ATON_STRSWITCH_
 4432              		.loc 1 986 16
 4433 0012 4E4A     		ldr	r2, .L279
 4434 0014 07F11C03 		add	r3, r7, #28
 4435 0018 92E80300 		ldm	r2, {r0, r1}
 4436 001c 83E80300 		stm	r3, {r0, r1}
 987:Lib/AI_Runtime/Npu/ll_aton/ll_aton.c ****   unsigned int fnr_shift[ATON_SWITCH_CONTEXT_NUM] = {ATON_STRSWITCH_DST_FNR0_LSB, ATON_STRSWITCH_DS
 4437              		.loc 1 987 16
 4438 0020 4B4A     		ldr	r2, .L279+4
 4439 0022 07F11403 		add	r3, r7, #20
 4440 0026 92E80300 		ldm	r2, {r0, r1}
 4441 002a 83E80300 		stm	r3, {r0, r1}
 988:Lib/AI_Runtime/Npu/ll_aton/ll_aton.c ****   unsigned int fnr_mask[ATON_SWITCH_CONTEXT_NUM] = {ATON_STRSWITCH_DST_FNR0_MASK, ATON_STRSWITCH_DS
 4442              		.loc 1 988 16
 4443 002e 494A     		ldr	r2, .L279+8
 4444 0030 07F10C03 		add	r3, r7, #12
 4445 0034 92E80300 		ldm	r2, {r0, r1}
 4446 0038 83E80300 		stm	r3, {r0, r1}
ARM GAS  /tmp/ccxZaNgH.s 			page 108


 989:Lib/AI_Runtime/Npu/ll_aton/ll_aton.c **** 
 990:Lib/AI_Runtime/Npu/ll_aton/ll_aton.c ****   /* Enable Switch */
 991:Lib/AI_Runtime/Npu/ll_aton/ll_aton.c ****   t = ATON_STRSWITCH_CTRL_DT;
 4447              		.loc 1 991 5
 4448 003c 0023     		movs	r3, #0
 4449 003e 3B63     		str	r3, [r7, #48]
 992:Lib/AI_Runtime/Npu/ll_aton/ll_aton.c ****   t = ATON_STRSWITCH_CTRL_SET_EN(t, 1);
 4450              		.loc 1 992 5
 4451 0040 3B6B     		ldr	r3, [r7, #48]
 4452 0042 43F00103 		orr	r3, r3, #1
 4453 0046 3B63     		str	r3, [r7, #48]
 993:Lib/AI_Runtime/Npu/ll_aton/ll_aton.c ****   ATON_STRSWITCH_CTRL_SET(0, t);
 4454              		.loc 1 993 3
 4455 0048 434A     		ldr	r2, .L279+12
 4456 004a 3B6B     		ldr	r3, [r7, #48]
 4457 004c 1360     		str	r3, [r2]
 994:Lib/AI_Runtime/Npu/ll_aton/ll_aton.c **** 
 995:Lib/AI_Runtime/Npu/ll_aton/ll_aton.c ****   for (i = 0; i < n; i++)
 4458              		.loc 1 995 10
 4459 004e 0023     		movs	r3, #0
 4460 0050 7B63     		str	r3, [r7, #52]
 4461              		.loc 1 995 3
 4462 0052 6FE0     		b	.L276
 4463              	.L277:
 996:Lib/AI_Runtime/Npu/ll_aton/ll_aton.c ****   {
 997:Lib/AI_Runtime/Npu/ll_aton/ll_aton.c ****     /* Compute target destination configuration register */
 998:Lib/AI_Runtime/Npu/ll_aton/ll_aton.c ****     reg = (uint32_t *)(ATON_STRSWITCH_BASE(0) + ATONN_DSTPORT_ID(LL_Switch_InitStruct[i].dest));
 4464              		.loc 1 998 49
 4465 0054 7B6B     		ldr	r3, [r7, #52]
 4466 0056 1B01     		lsls	r3, r3, #4
 4467 0058 7A68     		ldr	r2, [r7, #4]
 4468 005a 1344     		add	r3, r3, r2
 4469 005c 9B68     		ldr	r3, [r3, #8]
 4470              		.loc 1 998 47
 4471 005e 03F1B043 		add	r3, r3, #1476395008
 4472 0062 03F56423 		add	r3, r3, #933888
 4473              		.loc 1 998 9
 4474 0066 FB62     		str	r3, [r7, #44]
 999:Lib/AI_Runtime/Npu/ll_aton/ll_aton.c ****     t = 0;
 4475              		.loc 1 999 7
 4476 0068 0023     		movs	r3, #0
 4477 006a 3B63     		str	r3, [r7, #48]
1000:Lib/AI_Runtime/Npu/ll_aton/ll_aton.c ****     /* Enable Context and create link */
1001:Lib/AI_Runtime/Npu/ll_aton/ll_aton.c **** #if ATON_SWITCH_CONTEXT_NUM == 2
1002:Lib/AI_Runtime/Npu/ll_aton/ll_aton.c ****     t |= ((LL_Switch_InitStruct[i].context0 != 0) << en_shift[0]);
 4478              		.loc 1 1002 32
 4479 006c 7B6B     		ldr	r3, [r7, #52]
 4480 006e 1B01     		lsls	r3, r3, #4
 4481 0070 7A68     		ldr	r2, [r7, #4]
 4482 0072 1344     		add	r3, r3, r2
 4483              		.loc 1 1002 45
 4484 0074 9B7B     		ldrb	r3, [r3, #14]	@ zero_extendqisi2
 4485 0076 03F00103 		and	r3, r3, #1
 4486 007a DBB2     		uxtb	r3, r3
 4487 007c 002B     		cmp	r3, #0
 4488 007e 14BF     		ite	ne
 4489 0080 0123     		movne	r3, #1
ARM GAS  /tmp/ccxZaNgH.s 			page 109


 4490 0082 0023     		moveq	r3, #0
 4491 0084 DBB2     		uxtb	r3, r3
 4492 0086 1A46     		mov	r2, r3
 4493              		.loc 1 1002 62
 4494 0088 7B6A     		ldr	r3, [r7, #36]
 4495              		.loc 1 1002 51
 4496 008a 02FA03F3 		lsl	r3, r2, r3
 4497 008e 1A46     		mov	r2, r3
 4498              		.loc 1 1002 7
 4499 0090 3B6B     		ldr	r3, [r7, #48]
 4500 0092 1343     		orrs	r3, r3, r2
 4501 0094 3B63     		str	r3, [r7, #48]
1003:Lib/AI_Runtime/Npu/ll_aton/ll_aton.c ****     t |= (ATONN_SRCPORT_ID(LL_Switch_InitStruct[i].source0) << link_shift[0]);
 4502              		.loc 1 1003 11
 4503 0096 7B6B     		ldr	r3, [r7, #52]
 4504 0098 1B01     		lsls	r3, r3, #4
 4505 009a 7A68     		ldr	r2, [r7, #4]
 4506 009c 1344     		add	r3, r3, r2
 4507 009e 1A68     		ldr	r2, [r3]
 4508              		.loc 1 1003 74
 4509 00a0 FB69     		ldr	r3, [r7, #28]
 4510              		.loc 1 1003 61
 4511 00a2 02FA03F3 		lsl	r3, r2, r3
 4512              		.loc 1 1003 7
 4513 00a6 3A6B     		ldr	r2, [r7, #48]
 4514 00a8 1343     		orrs	r3, r3, r2
 4515 00aa 3B63     		str	r3, [r7, #48]
1004:Lib/AI_Runtime/Npu/ll_aton/ll_aton.c ****     t |= ((LL_Switch_InitStruct[i].frames0 << fnr_shift[0]) & fnr_mask[0]);
 4516              		.loc 1 1004 32
 4517 00ac 7B6B     		ldr	r3, [r7, #52]
 4518 00ae 1B01     		lsls	r3, r3, #4
 4519 00b0 7A68     		ldr	r2, [r7, #4]
 4520 00b2 1344     		add	r3, r3, r2
 4521              		.loc 1 1004 35
 4522 00b4 1B7B     		ldrb	r3, [r3, #12]	@ zero_extendqisi2
 4523 00b6 1A46     		mov	r2, r3
 4524              		.loc 1 1004 56
 4525 00b8 7B69     		ldr	r3, [r7, #20]
 4526              		.loc 1 1004 44
 4527 00ba 02FA03F3 		lsl	r3, r2, r3
 4528 00be 1A46     		mov	r2, r3
 4529              		.loc 1 1004 71
 4530 00c0 FB68     		ldr	r3, [r7, #12]
 4531              		.loc 1 1004 61
 4532 00c2 1340     		ands	r3, r3, r2
 4533              		.loc 1 1004 7
 4534 00c4 3A6B     		ldr	r2, [r7, #48]
 4535 00c6 1343     		orrs	r3, r3, r2
 4536 00c8 3B63     		str	r3, [r7, #48]
1005:Lib/AI_Runtime/Npu/ll_aton/ll_aton.c ****     t |= ((LL_Switch_InitStruct[i].context1 != 0) << en_shift[1]);
 4537              		.loc 1 1005 32
 4538 00ca 7B6B     		ldr	r3, [r7, #52]
 4539 00cc 1B01     		lsls	r3, r3, #4
 4540 00ce 7A68     		ldr	r2, [r7, #4]
 4541 00d0 1344     		add	r3, r3, r2
 4542              		.loc 1 1005 45
 4543 00d2 9B7B     		ldrb	r3, [r3, #14]	@ zero_extendqisi2
ARM GAS  /tmp/ccxZaNgH.s 			page 110


 4544 00d4 03F00203 		and	r3, r3, #2
 4545 00d8 DBB2     		uxtb	r3, r3
 4546 00da 002B     		cmp	r3, #0
 4547 00dc 14BF     		ite	ne
 4548 00de 0123     		movne	r3, #1
 4549 00e0 0023     		moveq	r3, #0
 4550 00e2 DBB2     		uxtb	r3, r3
 4551 00e4 1A46     		mov	r2, r3
 4552              		.loc 1 1005 62
 4553 00e6 BB6A     		ldr	r3, [r7, #40]
 4554              		.loc 1 1005 51
 4555 00e8 02FA03F3 		lsl	r3, r2, r3
 4556 00ec 1A46     		mov	r2, r3
 4557              		.loc 1 1005 7
 4558 00ee 3B6B     		ldr	r3, [r7, #48]
 4559 00f0 1343     		orrs	r3, r3, r2
 4560 00f2 3B63     		str	r3, [r7, #48]
1006:Lib/AI_Runtime/Npu/ll_aton/ll_aton.c ****     t |= (ATONN_SRCPORT_ID(LL_Switch_InitStruct[i].source1) << link_shift[1]);
 4561              		.loc 1 1006 11
 4562 00f4 7B6B     		ldr	r3, [r7, #52]
 4563 00f6 1B01     		lsls	r3, r3, #4
 4564 00f8 7A68     		ldr	r2, [r7, #4]
 4565 00fa 1344     		add	r3, r3, r2
 4566 00fc 5A68     		ldr	r2, [r3, #4]
 4567              		.loc 1 1006 74
 4568 00fe 3B6A     		ldr	r3, [r7, #32]
 4569              		.loc 1 1006 61
 4570 0100 02FA03F3 		lsl	r3, r2, r3
 4571              		.loc 1 1006 7
 4572 0104 3A6B     		ldr	r2, [r7, #48]
 4573 0106 1343     		orrs	r3, r3, r2
 4574 0108 3B63     		str	r3, [r7, #48]
1007:Lib/AI_Runtime/Npu/ll_aton/ll_aton.c ****     t |= ((LL_Switch_InitStruct[i].frames1 << fnr_shift[1]) & fnr_mask[1]);
 4575              		.loc 1 1007 32
 4576 010a 7B6B     		ldr	r3, [r7, #52]
 4577 010c 1B01     		lsls	r3, r3, #4
 4578 010e 7A68     		ldr	r2, [r7, #4]
 4579 0110 1344     		add	r3, r3, r2
 4580              		.loc 1 1007 35
 4581 0112 5B7B     		ldrb	r3, [r3, #13]	@ zero_extendqisi2
 4582 0114 1A46     		mov	r2, r3
 4583              		.loc 1 1007 56
 4584 0116 BB69     		ldr	r3, [r7, #24]
 4585              		.loc 1 1007 44
 4586 0118 02FA03F3 		lsl	r3, r2, r3
 4587 011c 1A46     		mov	r2, r3
 4588              		.loc 1 1007 71
 4589 011e 3B69     		ldr	r3, [r7, #16]
 4590              		.loc 1 1007 61
 4591 0120 1340     		ands	r3, r3, r2
 4592              		.loc 1 1007 7
 4593 0122 3A6B     		ldr	r2, [r7, #48]
 4594 0124 1343     		orrs	r3, r3, r2
 4595 0126 3B63     		str	r3, [r7, #48]
1008:Lib/AI_Runtime/Npu/ll_aton/ll_aton.c **** #else
1009:Lib/AI_Runtime/Npu/ll_aton/ll_aton.c ****     int c;
1010:Lib/AI_Runtime/Npu/ll_aton/ll_aton.c ****     for (c = 0; c < ATON_SWITCH_CONTEXT_NUM; c++)
ARM GAS  /tmp/ccxZaNgH.s 			page 111


1011:Lib/AI_Runtime/Npu/ll_aton/ll_aton.c ****     {
1012:Lib/AI_Runtime/Npu/ll_aton/ll_aton.c ****       t |= ((LL_Switch_InitStruct[i].context[c] != 0) << en_shift[c]);
1013:Lib/AI_Runtime/Npu/ll_aton/ll_aton.c ****       t |= (ATONN_SRCPORT_ID(LL_Switch_InitStruct[i].source[c]) << link_shift[c]);
1014:Lib/AI_Runtime/Npu/ll_aton/ll_aton.c ****       t |= ((LL_Switch_InitStruct[i].frames[c] << fnr_shift[c]) & fnr_mask[c]);
1015:Lib/AI_Runtime/Npu/ll_aton/ll_aton.c ****     }
1016:Lib/AI_Runtime/Npu/ll_aton/ll_aton.c **** #endif
1017:Lib/AI_Runtime/Npu/ll_aton/ll_aton.c **** 
1018:Lib/AI_Runtime/Npu/ll_aton/ll_aton.c ****     ATON_REG_WRITE(reg, t);
 4596              		.loc 1 1018 5
 4597 0128 FB6A     		ldr	r3, [r7, #44]
 4598 012a 3A6B     		ldr	r2, [r7, #48]
 4599 012c 1A60     		str	r2, [r3]
 995:Lib/AI_Runtime/Npu/ll_aton/ll_aton.c ****   {
 4600              		.loc 1 995 23 discriminator 3
 4601 012e 7B6B     		ldr	r3, [r7, #52]
 4602 0130 0133     		adds	r3, r3, #1
 4603 0132 7B63     		str	r3, [r7, #52]
 4604              	.L276:
 995:Lib/AI_Runtime/Npu/ll_aton/ll_aton.c ****   {
 4605              		.loc 1 995 17 discriminator 1
 4606 0134 7A6B     		ldr	r2, [r7, #52]
 4607 0136 3B68     		ldr	r3, [r7]
 4608 0138 9A42     		cmp	r2, r3
 4609 013a 8BDB     		blt	.L277
1019:Lib/AI_Runtime/Npu/ll_aton/ll_aton.c ****   }
1020:Lib/AI_Runtime/Npu/ll_aton/ll_aton.c **** 
1021:Lib/AI_Runtime/Npu/ll_aton/ll_aton.c ****   return 0;
 4610              		.loc 1 1021 10
 4611 013c 0023     		movs	r3, #0
1022:Lib/AI_Runtime/Npu/ll_aton/ll_aton.c **** }
 4612              		.loc 1 1022 1
 4613 013e 1846     		mov	r0, r3
 4614 0140 3C37     		adds	r7, r7, #60
 4615              		.cfi_def_cfa_offset 4
 4616 0142 BD46     		mov	sp, r7
 4617              		.cfi_def_cfa_register 13
 4618              		@ sp needed
 4619 0144 5DF8047B 		ldr	r7, [sp], #4
 4620              		.cfi_restore 7
 4621              		.cfi_def_cfa_offset 0
 4622 0148 7047     		bx	lr
 4623              	.L280:
 4624 014a 00BF     		.align	2
 4625              	.L279:
 4626 014c 7C020000 		.word	.LC0
 4627 0150 84020000 		.word	.LC1
 4628 0154 8C020000 		.word	.LC2
 4629 0158 00400E58 		.word	1477328896
 4630              		.cfi_endproc
 4631              	.LFE4836:
 4633              		.section	.text.LL_Switch_Init,"ax",%progbits
 4634              		.align	1
 4635              		.global	LL_Switch_Init
 4636              		.syntax unified
 4637              		.thumb
 4638              		.thumb_func
 4640              	LL_Switch_Init:
ARM GAS  /tmp/ccxZaNgH.s 			page 112


 4641              	.LFB4837:
1023:Lib/AI_Runtime/Npu/ll_aton/ll_aton.c **** 
1024:Lib/AI_Runtime/Npu/ll_aton/ll_aton.c **** /**
1025:Lib/AI_Runtime/Npu/ll_aton/ll_aton.c ****  * @brief  Connects input and output port(s) on the streaming switch (clearing configuration at the
1026:Lib/AI_Runtime/Npu/ll_aton/ll_aton.c ****  * @param  LL_Switch_InitStruct Pointer to structure(s) describing ports to be connected
1027:Lib/AI_Runtime/Npu/ll_aton/ll_aton.c ****  * @param  n Number of entries in configuration array
1028:Lib/AI_Runtime/Npu/ll_aton/ll_aton.c ****  * @retval Error code
1029:Lib/AI_Runtime/Npu/ll_aton/ll_aton.c ****  */
1030:Lib/AI_Runtime/Npu/ll_aton/ll_aton.c **** int LL_Switch_Init(const LL_Switch_InitTypeDef *LL_Switch_InitStruct, int n)
1031:Lib/AI_Runtime/Npu/ll_aton/ll_aton.c **** {
 4642              		.loc 1 1031 1
 4643              		.cfi_startproc
 4644              		@ args = 0, pretend = 0, frame = 16
 4645              		@ frame_needed = 1, uses_anonymous_args = 0
 4646 0000 80B5     		push	{r7, lr}
 4647              		.cfi_def_cfa_offset 8
 4648              		.cfi_offset 7, -8
 4649              		.cfi_offset 14, -4
 4650 0002 84B0     		sub	sp, sp, #16
 4651              		.cfi_def_cfa_offset 24
 4652 0004 00AF     		add	r7, sp, #0
 4653              		.cfi_def_cfa_register 7
 4654 0006 7860     		str	r0, [r7, #4]
 4655 0008 3960     		str	r1, [r7]
1032:Lib/AI_Runtime/Npu/ll_aton/ll_aton.c ****   uint32_t t;
1033:Lib/AI_Runtime/Npu/ll_aton/ll_aton.c **** 
1034:Lib/AI_Runtime/Npu/ll_aton/ll_aton.c **** #if (LL_ATON_PLATFORM == LL_ATON_PLAT_EC_TRACE)
1035:Lib/AI_Runtime/Npu/ll_aton/ll_aton.c ****   ll_aton_static_checks();
1036:Lib/AI_Runtime/Npu/ll_aton/ll_aton.c **** #endif
1037:Lib/AI_Runtime/Npu/ll_aton/ll_aton.c **** 
1038:Lib/AI_Runtime/Npu/ll_aton/ll_aton.c ****   /* Clear Configuration */
1039:Lib/AI_Runtime/Npu/ll_aton/ll_aton.c ****   ATON_DISABLE_CLR_CONFCLR(STRSWITCH, 0);
 4656              		.loc 1 1039 3
 4657 000a 0023     		movs	r3, #0
 4658 000c FB60     		str	r3, [r7, #12]
 4659 000e FB68     		ldr	r3, [r7, #12]
 4660 0010 23F00103 		bic	r3, r3, #1
 4661 0014 FB60     		str	r3, [r7, #12]
 4662 0016 FB68     		ldr	r3, [r7, #12]
 4663 0018 43F00203 		orr	r3, r3, #2
 4664 001c FB60     		str	r3, [r7, #12]
 4665 001e 104A     		ldr	r2, .L285
 4666 0020 FB68     		ldr	r3, [r7, #12]
 4667 0022 1360     		str	r3, [r2]
 4668              	.L282:
 4669              		.loc 1 1039 3 is_stmt 0 discriminator 2
 4670 0024 0E4B     		ldr	r3, .L285
 4671 0026 1B68     		ldr	r3, [r3]
 4672 0028 03F00203 		and	r3, r3, #2
 4673 002c 002B     		cmp	r3, #0
 4674 002e F9D1     		bne	.L282
 4675              		.loc 1 1039 3 discriminator 3
 4676 0030 0023     		movs	r3, #0
 4677 0032 FB60     		str	r3, [r7, #12]
 4678 0034 FB68     		ldr	r3, [r7, #12]
 4679 0036 43F08043 		orr	r3, r3, #1073741824
 4680 003a FB60     		str	r3, [r7, #12]
ARM GAS  /tmp/ccxZaNgH.s 			page 113


 4681 003c 084A     		ldr	r2, .L285
 4682 003e FB68     		ldr	r3, [r7, #12]
 4683 0040 1360     		str	r3, [r2]
 4684              	.L283:
 4685              		.loc 1 1039 3 discriminator 5
 4686 0042 074B     		ldr	r3, .L285
 4687 0044 1B68     		ldr	r3, [r3]
 4688 0046 03F08043 		and	r3, r3, #1073741824
 4689 004a 002B     		cmp	r3, #0
 4690 004c F9D1     		bne	.L283
1040:Lib/AI_Runtime/Npu/ll_aton/ll_aton.c **** 
1041:Lib/AI_Runtime/Npu/ll_aton/ll_aton.c ****   return LL_Switch_Init_NoReset(LL_Switch_InitStruct, n);
 4691              		.loc 1 1041 10 is_stmt 1
 4692 004e 3968     		ldr	r1, [r7]
 4693 0050 7868     		ldr	r0, [r7, #4]
 4694 0052 FFF7FEFF 		bl	LL_Switch_Init_NoReset
 4695 0056 0346     		mov	r3, r0
1042:Lib/AI_Runtime/Npu/ll_aton/ll_aton.c **** }
 4696              		.loc 1 1042 1
 4697 0058 1846     		mov	r0, r3
 4698 005a 1037     		adds	r7, r7, #16
 4699              		.cfi_def_cfa_offset 8
 4700 005c BD46     		mov	sp, r7
 4701              		.cfi_def_cfa_register 13
 4702              		@ sp needed
 4703 005e 80BD     		pop	{r7, pc}
 4704              	.L286:
 4705              		.align	2
 4706              	.L285:
 4707 0060 00400E58 		.word	1477328896
 4708              		.cfi_endproc
 4709              	.LFE4837:
 4711              		.section	.text.LL_Switch_Deinit,"ax",%progbits
 4712              		.align	1
 4713              		.global	LL_Switch_Deinit
 4714              		.syntax unified
 4715              		.thumb
 4716              		.thumb_func
 4718              	LL_Switch_Deinit:
 4719              	.LFB4838:
1043:Lib/AI_Runtime/Npu/ll_aton/ll_aton.c **** 
1044:Lib/AI_Runtime/Npu/ll_aton/ll_aton.c **** /**
1045:Lib/AI_Runtime/Npu/ll_aton/ll_aton.c ****  * @brief  Fully disconnect a destination port from source ports on the streaming switch
1046:Lib/AI_Runtime/Npu/ll_aton/ll_aton.c ****  * @param  LL_Switch_InitStruct Pointer to structure(s) describing ports to be disconnected
1047:Lib/AI_Runtime/Npu/ll_aton/ll_aton.c ****  * @param  n Number of entries in configuration array
1048:Lib/AI_Runtime/Npu/ll_aton/ll_aton.c ****  * @retval Error code
1049:Lib/AI_Runtime/Npu/ll_aton/ll_aton.c ****  */
1050:Lib/AI_Runtime/Npu/ll_aton/ll_aton.c **** int LL_Switch_Deinit(const LL_Switch_InitTypeDef *LL_Switch_InitStruct, int n)
1051:Lib/AI_Runtime/Npu/ll_aton/ll_aton.c **** {
 4720              		.loc 1 1051 1
 4721              		.cfi_startproc
 4722              		@ args = 0, pretend = 0, frame = 16
 4723              		@ frame_needed = 1, uses_anonymous_args = 0
 4724              		@ link register save eliminated.
 4725 0000 80B4     		push	{r7}
 4726              		.cfi_def_cfa_offset 4
 4727              		.cfi_offset 7, -4
ARM GAS  /tmp/ccxZaNgH.s 			page 114


 4728 0002 85B0     		sub	sp, sp, #20
 4729              		.cfi_def_cfa_offset 24
 4730 0004 00AF     		add	r7, sp, #0
 4731              		.cfi_def_cfa_register 7
 4732 0006 7860     		str	r0, [r7, #4]
 4733 0008 3960     		str	r1, [r7]
1052:Lib/AI_Runtime/Npu/ll_aton/ll_aton.c ****   int i;
1053:Lib/AI_Runtime/Npu/ll_aton/ll_aton.c ****   volatile uint32_t *reg;
1054:Lib/AI_Runtime/Npu/ll_aton/ll_aton.c **** 
1055:Lib/AI_Runtime/Npu/ll_aton/ll_aton.c ****   for (i = 0; i < n; i++)
 4734              		.loc 1 1055 10
 4735 000a 0023     		movs	r3, #0
 4736 000c FB60     		str	r3, [r7, #12]
 4737              		.loc 1 1055 3
 4738 000e 0FE0     		b	.L288
 4739              	.L289:
1056:Lib/AI_Runtime/Npu/ll_aton/ll_aton.c ****   {
1057:Lib/AI_Runtime/Npu/ll_aton/ll_aton.c ****     /* Compute target destination configuration register */
1058:Lib/AI_Runtime/Npu/ll_aton/ll_aton.c ****     reg = (uint32_t *)(ATON_STRSWITCH_BASE(0) + ATONN_DSTPORT_ID(LL_Switch_InitStruct[i].dest));
 4740              		.loc 1 1058 49
 4741 0010 FB68     		ldr	r3, [r7, #12]
 4742 0012 1B01     		lsls	r3, r3, #4
 4743 0014 7A68     		ldr	r2, [r7, #4]
 4744 0016 1344     		add	r3, r3, r2
 4745 0018 9B68     		ldr	r3, [r3, #8]
 4746              		.loc 1 1058 47
 4747 001a 03F1B043 		add	r3, r3, #1476395008
 4748 001e 03F56423 		add	r3, r3, #933888
 4749              		.loc 1 1058 9
 4750 0022 BB60     		str	r3, [r7, #8]
1059:Lib/AI_Runtime/Npu/ll_aton/ll_aton.c **** 
1060:Lib/AI_Runtime/Npu/ll_aton/ll_aton.c ****     /* Disable contexts */
1061:Lib/AI_Runtime/Npu/ll_aton/ll_aton.c ****     ATON_REG_WRITE(reg, 0);
 4751              		.loc 1 1061 5
 4752 0024 BB68     		ldr	r3, [r7, #8]
 4753 0026 0022     		movs	r2, #0
 4754 0028 1A60     		str	r2, [r3]
1055:Lib/AI_Runtime/Npu/ll_aton/ll_aton.c ****   {
 4755              		.loc 1 1055 23 discriminator 3
 4756 002a FB68     		ldr	r3, [r7, #12]
 4757 002c 0133     		adds	r3, r3, #1
 4758 002e FB60     		str	r3, [r7, #12]
 4759              	.L288:
1055:Lib/AI_Runtime/Npu/ll_aton/ll_aton.c ****   {
 4760              		.loc 1 1055 17 discriminator 1
 4761 0030 FA68     		ldr	r2, [r7, #12]
 4762 0032 3B68     		ldr	r3, [r7]
 4763 0034 9A42     		cmp	r2, r3
 4764 0036 EBDB     		blt	.L289
1062:Lib/AI_Runtime/Npu/ll_aton/ll_aton.c ****   }
1063:Lib/AI_Runtime/Npu/ll_aton/ll_aton.c **** 
1064:Lib/AI_Runtime/Npu/ll_aton/ll_aton.c ****   return 0;
 4765              		.loc 1 1064 10
 4766 0038 0023     		movs	r3, #0
1065:Lib/AI_Runtime/Npu/ll_aton/ll_aton.c **** }
 4767              		.loc 1 1065 1
 4768 003a 1846     		mov	r0, r3
ARM GAS  /tmp/ccxZaNgH.s 			page 115


 4769 003c 1437     		adds	r7, r7, #20
 4770              		.cfi_def_cfa_offset 4
 4771 003e BD46     		mov	sp, r7
 4772              		.cfi_def_cfa_register 13
 4773              		@ sp needed
 4774 0040 5DF8047B 		ldr	r7, [sp], #4
 4775              		.cfi_restore 7
 4776              		.cfi_def_cfa_offset 0
 4777 0044 7047     		bx	lr
 4778              		.cfi_endproc
 4779              	.LFE4838:
 4781              		.section	.text.LL_Switch_Deinit_Fine_Grained,"ax",%progbits
 4782              		.align	1
 4783              		.global	LL_Switch_Deinit_Fine_Grained
 4784              		.syntax unified
 4785              		.thumb
 4786              		.thumb_func
 4788              	LL_Switch_Deinit_Fine_Grained:
 4789              	.LFB4839:
1066:Lib/AI_Runtime/Npu/ll_aton/ll_aton.c **** 
1067:Lib/AI_Runtime/Npu/ll_aton/ll_aton.c **** /**
1068:Lib/AI_Runtime/Npu/ll_aton/ll_aton.c ****  * @brief  Disconnects destination and source port(s) on the streaming switch
1069:Lib/AI_Runtime/Npu/ll_aton/ll_aton.c ****  * @param  LL_Switch_InitStruct Pointer to structure(s) describing ports to be disconnected
1070:Lib/AI_Runtime/Npu/ll_aton/ll_aton.c ****  * @param  n Number of entries in configuration array
1071:Lib/AI_Runtime/Npu/ll_aton/ll_aton.c ****  * @retval Error code
1072:Lib/AI_Runtime/Npu/ll_aton/ll_aton.c ****  */
1073:Lib/AI_Runtime/Npu/ll_aton/ll_aton.c **** int LL_Switch_Deinit_Fine_Grained(const LL_Switch_InitTypeDef *LL_Switch_InitStruct, int n)
1074:Lib/AI_Runtime/Npu/ll_aton/ll_aton.c **** {
 4790              		.loc 1 1074 1
 4791              		.cfi_startproc
 4792              		@ args = 0, pretend = 0, frame = 32
 4793              		@ frame_needed = 1, uses_anonymous_args = 0
 4794              		@ link register save eliminated.
 4795 0000 80B4     		push	{r7}
 4796              		.cfi_def_cfa_offset 4
 4797              		.cfi_offset 7, -4
 4798 0002 89B0     		sub	sp, sp, #36
 4799              		.cfi_def_cfa_offset 40
 4800 0004 00AF     		add	r7, sp, #0
 4801              		.cfi_def_cfa_register 7
 4802 0006 7860     		str	r0, [r7, #4]
 4803 0008 3960     		str	r1, [r7]
1075:Lib/AI_Runtime/Npu/ll_aton/ll_aton.c ****   int i;
1076:Lib/AI_Runtime/Npu/ll_aton/ll_aton.c ****   volatile uint32_t *reg;
1077:Lib/AI_Runtime/Npu/ll_aton/ll_aton.c ****   unsigned int en_shift[ATON_SWITCH_CONTEXT_NUM] = {ATON_STRSWITCH_DST_EN0_LSB, ATON_STRSWITCH_DST_
 4804              		.loc 1 1077 16
 4805 000a 0023     		movs	r3, #0
 4806 000c FB60     		str	r3, [r7, #12]
 4807 000e 1023     		movs	r3, #16
 4808 0010 3B61     		str	r3, [r7, #16]
1078:Lib/AI_Runtime/Npu/ll_aton/ll_aton.c **** 
1079:Lib/AI_Runtime/Npu/ll_aton/ll_aton.c ****   for (i = 0; i < n; i++)
 4809              		.loc 1 1079 10
 4810 0012 0023     		movs	r3, #0
 4811 0014 FB61     		str	r3, [r7, #28]
 4812              		.loc 1 1079 3
 4813 0016 3EE0     		b	.L292
ARM GAS  /tmp/ccxZaNgH.s 			page 116


 4814              	.L293:
 4815              	.LBB9:
1080:Lib/AI_Runtime/Npu/ll_aton/ll_aton.c ****   {
1081:Lib/AI_Runtime/Npu/ll_aton/ll_aton.c ****     /* Compute target destination configuration register */
1082:Lib/AI_Runtime/Npu/ll_aton/ll_aton.c ****     reg = (uint32_t *)(ATON_STRSWITCH_BASE(0) + ATONN_DSTPORT_ID(LL_Switch_InitStruct[i].dest));
 4816              		.loc 1 1082 49
 4817 0018 FB69     		ldr	r3, [r7, #28]
 4818 001a 1B01     		lsls	r3, r3, #4
 4819 001c 7A68     		ldr	r2, [r7, #4]
 4820 001e 1344     		add	r3, r3, r2
 4821 0020 9B68     		ldr	r3, [r3, #8]
 4822              		.loc 1 1082 47
 4823 0022 03F1B043 		add	r3, r3, #1476395008
 4824 0026 03F56423 		add	r3, r3, #933888
 4825              		.loc 1 1082 9
 4826 002a BB61     		str	r3, [r7, #24]
1083:Lib/AI_Runtime/Npu/ll_aton/ll_aton.c **** 
1084:Lib/AI_Runtime/Npu/ll_aton/ll_aton.c ****     /* Disable context */
1085:Lib/AI_Runtime/Npu/ll_aton/ll_aton.c ****     uint32_t t = *reg;
 4827              		.loc 1 1085 14
 4828 002c BB69     		ldr	r3, [r7, #24]
 4829 002e 1B68     		ldr	r3, [r3]
 4830 0030 7B61     		str	r3, [r7, #20]
1086:Lib/AI_Runtime/Npu/ll_aton/ll_aton.c **** #if ATON_SWITCH_CONTEXT_NUM == 2
1087:Lib/AI_Runtime/Npu/ll_aton/ll_aton.c ****     t &= ~((LL_Switch_InitStruct[i].context0 != 0) << en_shift[0]);
 4831              		.loc 1 1087 33
 4832 0032 FB69     		ldr	r3, [r7, #28]
 4833 0034 1B01     		lsls	r3, r3, #4
 4834 0036 7A68     		ldr	r2, [r7, #4]
 4835 0038 1344     		add	r3, r3, r2
 4836              		.loc 1 1087 46
 4837 003a 9B7B     		ldrb	r3, [r3, #14]	@ zero_extendqisi2
 4838 003c 03F00103 		and	r3, r3, #1
 4839 0040 DBB2     		uxtb	r3, r3
 4840 0042 002B     		cmp	r3, #0
 4841 0044 14BF     		ite	ne
 4842 0046 0123     		movne	r3, #1
 4843 0048 0023     		moveq	r3, #0
 4844 004a DBB2     		uxtb	r3, r3
 4845 004c 1A46     		mov	r2, r3
 4846              		.loc 1 1087 63
 4847 004e FB68     		ldr	r3, [r7, #12]
 4848              		.loc 1 1087 52
 4849 0050 02FA03F3 		lsl	r3, r2, r3
 4850              		.loc 1 1087 10
 4851 0054 DB43     		mvns	r3, r3
 4852 0056 1A46     		mov	r2, r3
 4853              		.loc 1 1087 7
 4854 0058 7B69     		ldr	r3, [r7, #20]
 4855 005a 1340     		ands	r3, r3, r2
 4856 005c 7B61     		str	r3, [r7, #20]
1088:Lib/AI_Runtime/Npu/ll_aton/ll_aton.c ****     t &= ~((LL_Switch_InitStruct[i].context1 != 0) << en_shift[1]);
 4857              		.loc 1 1088 33
 4858 005e FB69     		ldr	r3, [r7, #28]
 4859 0060 1B01     		lsls	r3, r3, #4
 4860 0062 7A68     		ldr	r2, [r7, #4]
 4861 0064 1344     		add	r3, r3, r2
ARM GAS  /tmp/ccxZaNgH.s 			page 117


 4862              		.loc 1 1088 46
 4863 0066 9B7B     		ldrb	r3, [r3, #14]	@ zero_extendqisi2
 4864 0068 03F00203 		and	r3, r3, #2
 4865 006c DBB2     		uxtb	r3, r3
 4866 006e 002B     		cmp	r3, #0
 4867 0070 14BF     		ite	ne
 4868 0072 0123     		movne	r3, #1
 4869 0074 0023     		moveq	r3, #0
 4870 0076 DBB2     		uxtb	r3, r3
 4871 0078 1A46     		mov	r2, r3
 4872              		.loc 1 1088 63
 4873 007a 3B69     		ldr	r3, [r7, #16]
 4874              		.loc 1 1088 52
 4875 007c 02FA03F3 		lsl	r3, r2, r3
 4876              		.loc 1 1088 10
 4877 0080 DB43     		mvns	r3, r3
 4878 0082 1A46     		mov	r2, r3
 4879              		.loc 1 1088 7
 4880 0084 7B69     		ldr	r3, [r7, #20]
 4881 0086 1340     		ands	r3, r3, r2
 4882 0088 7B61     		str	r3, [r7, #20]
1089:Lib/AI_Runtime/Npu/ll_aton/ll_aton.c **** #else
1090:Lib/AI_Runtime/Npu/ll_aton/ll_aton.c ****     int c;
1091:Lib/AI_Runtime/Npu/ll_aton/ll_aton.c ****     for (c = 0; c < ATON_SWITCH_CONTEXT_NUM; c++)
1092:Lib/AI_Runtime/Npu/ll_aton/ll_aton.c ****       t &= ~((LL_Switch_InitStruct[i].context[c] != 0) << en_shift[c]);
1093:Lib/AI_Runtime/Npu/ll_aton/ll_aton.c **** #endif
1094:Lib/AI_Runtime/Npu/ll_aton/ll_aton.c ****     ATON_REG_WRITE(reg, t);
 4883              		.loc 1 1094 5
 4884 008a BB69     		ldr	r3, [r7, #24]
 4885 008c 7A69     		ldr	r2, [r7, #20]
 4886 008e 1A60     		str	r2, [r3]
 4887              	.LBE9:
1079:Lib/AI_Runtime/Npu/ll_aton/ll_aton.c ****   {
 4888              		.loc 1 1079 23 discriminator 3
 4889 0090 FB69     		ldr	r3, [r7, #28]
 4890 0092 0133     		adds	r3, r3, #1
 4891 0094 FB61     		str	r3, [r7, #28]
 4892              	.L292:
1079:Lib/AI_Runtime/Npu/ll_aton/ll_aton.c ****   {
 4893              		.loc 1 1079 17 discriminator 1
 4894 0096 FA69     		ldr	r2, [r7, #28]
 4895 0098 3B68     		ldr	r3, [r7]
 4896 009a 9A42     		cmp	r2, r3
 4897 009c BCDB     		blt	.L293
1095:Lib/AI_Runtime/Npu/ll_aton/ll_aton.c ****   }
1096:Lib/AI_Runtime/Npu/ll_aton/ll_aton.c **** 
1097:Lib/AI_Runtime/Npu/ll_aton/ll_aton.c ****   return 0;
 4898              		.loc 1 1097 10
 4899 009e 0023     		movs	r3, #0
1098:Lib/AI_Runtime/Npu/ll_aton/ll_aton.c **** }
 4900              		.loc 1 1098 1
 4901 00a0 1846     		mov	r0, r3
 4902 00a2 2437     		adds	r7, r7, #36
 4903              		.cfi_def_cfa_offset 4
 4904 00a4 BD46     		mov	sp, r7
 4905              		.cfi_def_cfa_register 13
 4906              		@ sp needed
ARM GAS  /tmp/ccxZaNgH.s 			page 118


 4907 00a6 5DF8047B 		ldr	r7, [sp], #4
 4908              		.cfi_restore 7
 4909              		.cfi_def_cfa_offset 0
 4910 00aa 7047     		bx	lr
 4911              		.cfi_endproc
 4912              	.LFE4839:
 4914              		.section	.text.decun_inc_page_addr,"ax",%progbits
 4915              		.align	1
 4916              		.syntax unified
 4917              		.thumb
 4918              		.thumb_func
 4920              	decun_inc_page_addr:
 4921              	.LFB4840:
1099:Lib/AI_Runtime/Npu/ll_aton/ll_aton.c **** 
1100:Lib/AI_Runtime/Npu/ll_aton/ll_aton.c **** #ifdef ATON_STRSWITCH_VC_NUM
1101:Lib/AI_Runtime/Npu/ll_aton/ll_aton.c **** 
1102:Lib/AI_Runtime/Npu/ll_aton/ll_aton.c **** /**
1103:Lib/AI_Runtime/Npu/ll_aton/ll_aton.c ****  * @brief  Connects input and output port(s) on the streaming switch with virtual channels (without
1104:Lib/AI_Runtime/Npu/ll_aton/ll_aton.c ****  * configuration)
1105:Lib/AI_Runtime/Npu/ll_aton/ll_aton.c ****  * @param  LL_SwitchVC_InitStruct Pointer to structure(s) describing ports to be connected
1106:Lib/AI_Runtime/Npu/ll_aton/ll_aton.c ****  * @param  n Number of entries in configuration array
1107:Lib/AI_Runtime/Npu/ll_aton/ll_aton.c ****  * @retval Error code
1108:Lib/AI_Runtime/Npu/ll_aton/ll_aton.c ****  */
1109:Lib/AI_Runtime/Npu/ll_aton/ll_aton.c **** int LL_SwitchVC_Init_NoReset(const LL_SwitchVC_InitTypeDef *LL_SwitchVC_InitStruct, int n)
1110:Lib/AI_Runtime/Npu/ll_aton/ll_aton.c **** {
1111:Lib/AI_Runtime/Npu/ll_aton/ll_aton.c ****   int i;
1112:Lib/AI_Runtime/Npu/ll_aton/ll_aton.c ****   volatile uint32_t *reg;
1113:Lib/AI_Runtime/Npu/ll_aton/ll_aton.c ****   uint32_t t;
1114:Lib/AI_Runtime/Npu/ll_aton/ll_aton.c ****   unsigned int en_shift = ATON_STRSWITCH_VC_DST_EN_LSB;
1115:Lib/AI_Runtime/Npu/ll_aton/ll_aton.c ****   unsigned int src_shift = ATON_STRSWITCH_VC_DST_SRC_LSB;
1116:Lib/AI_Runtime/Npu/ll_aton/ll_aton.c **** 
1117:Lib/AI_Runtime/Npu/ll_aton/ll_aton.c ****   /* Enable Switch */
1118:Lib/AI_Runtime/Npu/ll_aton/ll_aton.c ****   t = ATON_STRSWITCH_VC_CTRL_DT;
1119:Lib/AI_Runtime/Npu/ll_aton/ll_aton.c ****   t = ATON_STRSWITCH_VC_CTRL_SET_EN(t, 1);
1120:Lib/AI_Runtime/Npu/ll_aton/ll_aton.c ****   ATON_STRSWITCH_VC_CTRL_SET(0, t);
1121:Lib/AI_Runtime/Npu/ll_aton/ll_aton.c **** 
1122:Lib/AI_Runtime/Npu/ll_aton/ll_aton.c ****   for (i = 0; i < n; i++)
1123:Lib/AI_Runtime/Npu/ll_aton/ll_aton.c ****   {
1124:Lib/AI_Runtime/Npu/ll_aton/ll_aton.c ****     /* Compute target destination configuration register */
1125:Lib/AI_Runtime/Npu/ll_aton/ll_aton.c ****     reg = (uint32_t *)(ATON_STRSWITCH_VC_BASE(0) + ATONN_DSTPORT_ID(LL_SwitchVC_InitStruct[i].dest)
1126:Lib/AI_Runtime/Npu/ll_aton/ll_aton.c ****     t = 0;
1127:Lib/AI_Runtime/Npu/ll_aton/ll_aton.c ****     /* Enable Context and create link */
1128:Lib/AI_Runtime/Npu/ll_aton/ll_aton.c ****     t |= (1 << en_shift);
1129:Lib/AI_Runtime/Npu/ll_aton/ll_aton.c ****     t |= (ATONN_SRCPORT_ID(LL_SwitchVC_InitStruct[i].source) << src_shift);
1130:Lib/AI_Runtime/Npu/ll_aton/ll_aton.c ****     ATON_REG_WRITE(reg, t);
1131:Lib/AI_Runtime/Npu/ll_aton/ll_aton.c ****   }
1132:Lib/AI_Runtime/Npu/ll_aton/ll_aton.c **** 
1133:Lib/AI_Runtime/Npu/ll_aton/ll_aton.c ****   return 0;
1134:Lib/AI_Runtime/Npu/ll_aton/ll_aton.c **** }
1135:Lib/AI_Runtime/Npu/ll_aton/ll_aton.c **** 
1136:Lib/AI_Runtime/Npu/ll_aton/ll_aton.c **** /**
1137:Lib/AI_Runtime/Npu/ll_aton/ll_aton.c ****  * @brief  Connects input and output port(s) on the streaming switch with virtual channels (clearin
1138:Lib/AI_Runtime/Npu/ll_aton/ll_aton.c ****  * the beginning)
1139:Lib/AI_Runtime/Npu/ll_aton/ll_aton.c ****  * @param  LL_SwitchVC_InitStruct Pointer to structure(s) describing ports to be connected
1140:Lib/AI_Runtime/Npu/ll_aton/ll_aton.c ****  * @param  n Number of entries in configuration array
1141:Lib/AI_Runtime/Npu/ll_aton/ll_aton.c ****  * @retval Error code
1142:Lib/AI_Runtime/Npu/ll_aton/ll_aton.c ****  */
ARM GAS  /tmp/ccxZaNgH.s 			page 119


1143:Lib/AI_Runtime/Npu/ll_aton/ll_aton.c **** int LL_SwitchVC_Init(const LL_SwitchVC_InitTypeDef *LL_SwitchVC_InitStruct, int n)
1144:Lib/AI_Runtime/Npu/ll_aton/ll_aton.c **** {
1145:Lib/AI_Runtime/Npu/ll_aton/ll_aton.c ****   uint32_t t;
1146:Lib/AI_Runtime/Npu/ll_aton/ll_aton.c **** 
1147:Lib/AI_Runtime/Npu/ll_aton/ll_aton.c ****   /* Clear Configuration */
1148:Lib/AI_Runtime/Npu/ll_aton/ll_aton.c ****   ATON_DISABLE_CLR_CONFCLR(STRSWITCH_VC, 0);
1149:Lib/AI_Runtime/Npu/ll_aton/ll_aton.c **** 
1150:Lib/AI_Runtime/Npu/ll_aton/ll_aton.c ****   return LL_SwitchVC_Init_NoReset(LL_SwitchVC_InitStruct, n);
1151:Lib/AI_Runtime/Npu/ll_aton/ll_aton.c **** }
1152:Lib/AI_Runtime/Npu/ll_aton/ll_aton.c **** 
1153:Lib/AI_Runtime/Npu/ll_aton/ll_aton.c **** /**
1154:Lib/AI_Runtime/Npu/ll_aton/ll_aton.c ****  * @brief  Fully disconnect a destination port from source ports on the streaming switch with virtu
1155:Lib/AI_Runtime/Npu/ll_aton/ll_aton.c ****  * @param  LL_SwitchVC_InitStruct Pointer to structure(s) describing ports to be disconnected
1156:Lib/AI_Runtime/Npu/ll_aton/ll_aton.c ****  * @param  n Number of entries in configuration array
1157:Lib/AI_Runtime/Npu/ll_aton/ll_aton.c ****  * @retval Error code
1158:Lib/AI_Runtime/Npu/ll_aton/ll_aton.c ****  */
1159:Lib/AI_Runtime/Npu/ll_aton/ll_aton.c **** int LL_SwitchVC_Deinit(const LL_SwitchVC_InitTypeDef *LL_SwitchVC_InitStruct, int n)
1160:Lib/AI_Runtime/Npu/ll_aton/ll_aton.c **** {
1161:Lib/AI_Runtime/Npu/ll_aton/ll_aton.c ****   int i;
1162:Lib/AI_Runtime/Npu/ll_aton/ll_aton.c ****   volatile uint32_t *reg;
1163:Lib/AI_Runtime/Npu/ll_aton/ll_aton.c **** 
1164:Lib/AI_Runtime/Npu/ll_aton/ll_aton.c ****   for (i = 0; i < n; i++)
1165:Lib/AI_Runtime/Npu/ll_aton/ll_aton.c ****   {
1166:Lib/AI_Runtime/Npu/ll_aton/ll_aton.c ****     /* Compute target destination configuration register */
1167:Lib/AI_Runtime/Npu/ll_aton/ll_aton.c ****     reg = (uint32_t *)(ATON_STRSWITCH_VC_BASE(0) + ATONN_DSTPORT_ID(LL_SwitchVC_InitStruct[i].dest)
1168:Lib/AI_Runtime/Npu/ll_aton/ll_aton.c **** 
1169:Lib/AI_Runtime/Npu/ll_aton/ll_aton.c ****     /* Disable contexts */
1170:Lib/AI_Runtime/Npu/ll_aton/ll_aton.c ****     ATON_REG_WRITE(reg, 0);
1171:Lib/AI_Runtime/Npu/ll_aton/ll_aton.c ****   }
1172:Lib/AI_Runtime/Npu/ll_aton/ll_aton.c **** 
1173:Lib/AI_Runtime/Npu/ll_aton/ll_aton.c ****   return 0;
1174:Lib/AI_Runtime/Npu/ll_aton/ll_aton.c **** }
1175:Lib/AI_Runtime/Npu/ll_aton/ll_aton.c **** 
1176:Lib/AI_Runtime/Npu/ll_aton/ll_aton.c **** /**
1177:Lib/AI_Runtime/Npu/ll_aton/ll_aton.c ****  * @brief  Disconnects destination and source port(s) on the streaming switch with virtual channels
1178:Lib/AI_Runtime/Npu/ll_aton/ll_aton.c ****  * @param  LL_SwitchVC_InitStruct Pointer to structure(s) describing ports to be disconnected
1179:Lib/AI_Runtime/Npu/ll_aton/ll_aton.c ****  * @param  n Number of entries in configuration array
1180:Lib/AI_Runtime/Npu/ll_aton/ll_aton.c ****  * @retval Error code
1181:Lib/AI_Runtime/Npu/ll_aton/ll_aton.c ****  */
1182:Lib/AI_Runtime/Npu/ll_aton/ll_aton.c **** int LL_SwitchVC_Deinit_Fine_Grained(const LL_SwitchVC_InitTypeDef *LL_SwitchVC_InitStruct, int n)
1183:Lib/AI_Runtime/Npu/ll_aton/ll_aton.c **** {
1184:Lib/AI_Runtime/Npu/ll_aton/ll_aton.c ****   int i;
1185:Lib/AI_Runtime/Npu/ll_aton/ll_aton.c ****   volatile uint32_t *reg;
1186:Lib/AI_Runtime/Npu/ll_aton/ll_aton.c ****   unsigned int en_shift = ATON_STRSWITCH_VC_DST_EN_LSB;
1187:Lib/AI_Runtime/Npu/ll_aton/ll_aton.c **** 
1188:Lib/AI_Runtime/Npu/ll_aton/ll_aton.c ****   for (i = 0; i < n; i++)
1189:Lib/AI_Runtime/Npu/ll_aton/ll_aton.c ****   {
1190:Lib/AI_Runtime/Npu/ll_aton/ll_aton.c ****     /* Compute target destination configuration register */
1191:Lib/AI_Runtime/Npu/ll_aton/ll_aton.c ****     reg = (uint32_t *)(ATON_STRSWITCH_VC_BASE(0) + ATONN_DSTPORT_ID(LL_SwitchVC_InitStruct[i].dest)
1192:Lib/AI_Runtime/Npu/ll_aton/ll_aton.c **** 
1193:Lib/AI_Runtime/Npu/ll_aton/ll_aton.c ****     /* Disable context */
1194:Lib/AI_Runtime/Npu/ll_aton/ll_aton.c ****     uint32_t t = *reg;
1195:Lib/AI_Runtime/Npu/ll_aton/ll_aton.c ****     t &= ~(1 << en_shift);
1196:Lib/AI_Runtime/Npu/ll_aton/ll_aton.c ****     ATON_REG_WRITE(reg, t);
1197:Lib/AI_Runtime/Npu/ll_aton/ll_aton.c ****   }
1198:Lib/AI_Runtime/Npu/ll_aton/ll_aton.c **** 
1199:Lib/AI_Runtime/Npu/ll_aton/ll_aton.c ****   return 0;
ARM GAS  /tmp/ccxZaNgH.s 			page 120


1200:Lib/AI_Runtime/Npu/ll_aton/ll_aton.c **** }
1201:Lib/AI_Runtime/Npu/ll_aton/ll_aton.c **** #endif // ATON_STRSWITCH_VC_NUM
1202:Lib/AI_Runtime/Npu/ll_aton/ll_aton.c **** 
1203:Lib/AI_Runtime/Npu/ll_aton/ll_aton.c **** #ifdef ATON_DECUN_NUM
1204:Lib/AI_Runtime/Npu/ll_aton/ll_aton.c **** 
1205:Lib/AI_Runtime/Npu/ll_aton/ll_aton.c **** static inline uint32_t decun_inc_page_addr(int id, uint32_t ctrl_val)
1206:Lib/AI_Runtime/Npu/ll_aton/ll_aton.c **** {
 4922              		.loc 1 1206 1
 4923              		.cfi_startproc
 4924              		@ args = 0, pretend = 0, frame = 16
 4925              		@ frame_needed = 1, uses_anonymous_args = 0
 4926              		@ link register save eliminated.
 4927 0000 80B4     		push	{r7}
 4928              		.cfi_def_cfa_offset 4
 4929              		.cfi_offset 7, -4
 4930 0002 85B0     		sub	sp, sp, #20
 4931              		.cfi_def_cfa_offset 24
 4932 0004 00AF     		add	r7, sp, #0
 4933              		.cfi_def_cfa_register 7
 4934 0006 7860     		str	r0, [r7, #4]
 4935 0008 3960     		str	r1, [r7]
1207:Lib/AI_Runtime/Npu/ll_aton/ll_aton.c ****   uint32_t page_addr = ATON_DECUN_CTRL_GET_PAGEADDR(ctrl_val);
 4936              		.loc 1 1207 24
 4937 000a 3B68     		ldr	r3, [r7]
 4938 000c 1B09     		lsrs	r3, r3, #4
 4939              		.loc 1 1207 12
 4940 000e 03F00303 		and	r3, r3, #3
 4941 0012 FB60     		str	r3, [r7, #12]
1208:Lib/AI_Runtime/Npu/ll_aton/ll_aton.c ****   page_addr++;
 4942              		.loc 1 1208 12
 4943 0014 FB68     		ldr	r3, [r7, #12]
 4944 0016 0133     		adds	r3, r3, #1
 4945 0018 FB60     		str	r3, [r7, #12]
1209:Lib/AI_Runtime/Npu/ll_aton/ll_aton.c ****   ctrl_val = ATON_DECUN_CTRL_SET_PAGEADDR(ctrl_val, page_addr);
 4946              		.loc 1 1209 14
 4947 001a 3B68     		ldr	r3, [r7]
 4948 001c 23F03002 		bic	r2, r3, #48
 4949 0020 FB68     		ldr	r3, [r7, #12]
 4950 0022 1B01     		lsls	r3, r3, #4
 4951 0024 03F03003 		and	r3, r3, #48
 4952              		.loc 1 1209 12
 4953 0028 1343     		orrs	r3, r3, r2
 4954 002a 3B60     		str	r3, [r7]
1210:Lib/AI_Runtime/Npu/ll_aton/ll_aton.c ****   ATON_DECUN_CTRL_SET(id, ctrl_val);
 4955              		.loc 1 1210 3
 4956 002c 7B68     		ldr	r3, [r7, #4]
 4957 002e 03F5B023 		add	r3, r3, #360448
 4958 0032 F333     		adds	r3, r3, #243
 4959 0034 1B03     		lsls	r3, r3, #12
 4960 0036 1A46     		mov	r2, r3
 4961 0038 3B68     		ldr	r3, [r7]
 4962 003a 1360     		str	r3, [r2]
1211:Lib/AI_Runtime/Npu/ll_aton/ll_aton.c ****   return ctrl_val;
 4963              		.loc 1 1211 10
 4964 003c 3B68     		ldr	r3, [r7]
1212:Lib/AI_Runtime/Npu/ll_aton/ll_aton.c **** }
 4965              		.loc 1 1212 1
ARM GAS  /tmp/ccxZaNgH.s 			page 121


 4966 003e 1846     		mov	r0, r3
 4967 0040 1437     		adds	r7, r7, #20
 4968              		.cfi_def_cfa_offset 4
 4969 0042 BD46     		mov	sp, r7
 4970              		.cfi_def_cfa_register 13
 4971              		@ sp needed
 4972 0044 5DF8047B 		ldr	r7, [sp], #4
 4973              		.cfi_restore 7
 4974              		.cfi_def_cfa_offset 0
 4975 0048 7047     		bx	lr
 4976              		.cfi_endproc
 4977              	.LFE4840:
 4979              		.section	.text.LL_Decun_CB_1byte,"ax",%progbits
 4980              		.align	1
 4981              		.syntax unified
 4982              		.thumb
 4983              		.thumb_func
 4985              	LL_Decun_CB_1byte:
 4986              	.LFB4841:
1213:Lib/AI_Runtime/Npu/ll_aton/ll_aton.c **** 
1214:Lib/AI_Runtime/Npu/ll_aton/ll_aton.c **** static void LL_Decun_CB_1byte(int id, const LL_Decun_InitTypeDef *conf, uint32_t ctrl_val)
1215:Lib/AI_Runtime/Npu/ll_aton/ll_aton.c **** {
 4987              		.loc 1 1215 1
 4988              		.cfi_startproc
 4989              		@ args = 0, pretend = 0, frame = 88
 4990              		@ frame_needed = 1, uses_anonymous_args = 0
 4991 0000 80B5     		push	{r7, lr}
 4992              		.cfi_def_cfa_offset 8
 4993              		.cfi_offset 7, -8
 4994              		.cfi_offset 14, -4
 4995 0002 96B0     		sub	sp, sp, #88
 4996              		.cfi_def_cfa_offset 96
 4997 0004 00AF     		add	r7, sp, #0
 4998              		.cfi_def_cfa_register 7
 4999 0006 F860     		str	r0, [r7, #12]
 5000 0008 B960     		str	r1, [r7, #8]
 5001 000a 7A60     		str	r2, [r7, #4]
1216:Lib/AI_Runtime/Npu/ll_aton/ll_aton.c ****   unsigned CBsize = conf->CBs_size;
 5002              		.loc 1 1216 12
 5003 000c BB68     		ldr	r3, [r7, #8]
 5004 000e 1B69     		ldr	r3, [r3, #16]
 5005 0010 FB64     		str	r3, [r7, #76]
1217:Lib/AI_Runtime/Npu/ll_aton/ll_aton.c ****   unsigned i, k;
1218:Lib/AI_Runtime/Npu/ll_aton/ll_aton.c ****   unsigned mem_idx_num = ATON_DECUN_MEM_LOW_IDX_MAX - ATON_DECUN_MEM_LOW_IDX_MIN + 1;
 5006              		.loc 1 1218 12
 5007 0012 4FF48073 		mov	r3, #256
 5008 0016 BB64     		str	r3, [r7, #72]
1219:Lib/AI_Runtime/Npu/ll_aton/ll_aton.c **** 
1220:Lib/AI_Runtime/Npu/ll_aton/ll_aton.c ****   if (conf->nCWperCV == 1)
 5009              		.loc 1 1220 11
 5010 0018 BB68     		ldr	r3, [r7, #8]
 5011 001a 9B78     		ldrb	r3, [r3, #2]	@ zero_extendqisi2
 5012              		.loc 1 1220 6
 5013 001c 012B     		cmp	r3, #1
 5014 001e 2BD1     		bne	.L298
 5015              	.LBB10:
1221:Lib/AI_Runtime/Npu/ll_aton/ll_aton.c ****   {
ARM GAS  /tmp/ccxZaNgH.s 			page 122


1222:Lib/AI_Runtime/Npu/ll_aton/ll_aton.c ****     uint8_t *CBp = (uint8_t *)conf->CBs_vector.p;
 5016              		.loc 1 1222 14
 5017 0020 BB68     		ldr	r3, [r7, #8]
 5018 0022 DB68     		ldr	r3, [r3, #12]
 5019 0024 7B64     		str	r3, [r7, #68]
1223:Lib/AI_Runtime/Npu/ll_aton/ll_aton.c ****     for (i = 0, k = 0; i < CBsize; i++)
 5020              		.loc 1 1223 12
 5021 0026 0023     		movs	r3, #0
 5022 0028 7B65     		str	r3, [r7, #84]
 5023              		.loc 1 1223 19
 5024 002a 0023     		movs	r3, #0
 5025 002c 3B65     		str	r3, [r7, #80]
 5026              		.loc 1 1223 5
 5027 002e 1FE0     		b	.L299
 5028              	.L301:
 5029              	.LBB11:
1224:Lib/AI_Runtime/Npu/ll_aton/ll_aton.c ****     {
1225:Lib/AI_Runtime/Npu/ll_aton/ll_aton.c ****       uint32_t temp = CBp[i];
 5030              		.loc 1 1225 26
 5031 0030 7A6C     		ldr	r2, [r7, #68]
 5032 0032 7B6D     		ldr	r3, [r7, #84]
 5033 0034 1344     		add	r3, r3, r2
 5034 0036 1B78     		ldrb	r3, [r3]	@ zero_extendqisi2
 5035              		.loc 1 1225 16
 5036 0038 3B64     		str	r3, [r7, #64]
1226:Lib/AI_Runtime/Npu/ll_aton/ll_aton.c ****       ATON_DECUN_MEM_LOW_SET(id, k, temp);
 5037              		.loc 1 1226 7
 5038 003a FB68     		ldr	r3, [r7, #12]
 5039 003c 5A02     		lsls	r2, r3, #9
 5040 003e 3B6D     		ldr	r3, [r7, #80]
 5041 0040 1A44     		add	r2, r2, r3
 5042 0042 944B     		ldr	r3, .L328
 5043 0044 1344     		add	r3, r3, r2
 5044 0046 DB00     		lsls	r3, r3, #3
 5045 0048 1A46     		mov	r2, r3
 5046 004a 3B6C     		ldr	r3, [r7, #64]
 5047 004c 1360     		str	r3, [r2]
1227:Lib/AI_Runtime/Npu/ll_aton/ll_aton.c ****       k++;
 5048              		.loc 1 1227 8
 5049 004e 3B6D     		ldr	r3, [r7, #80]
 5050 0050 0133     		adds	r3, r3, #1
 5051 0052 3B65     		str	r3, [r7, #80]
1228:Lib/AI_Runtime/Npu/ll_aton/ll_aton.c ****       if (k == mem_idx_num)
 5052              		.loc 1 1228 10
 5053 0054 3A6D     		ldr	r2, [r7, #80]
 5054 0056 BB6C     		ldr	r3, [r7, #72]
 5055 0058 9A42     		cmp	r2, r3
 5056 005a 06D1     		bne	.L300
1229:Lib/AI_Runtime/Npu/ll_aton/ll_aton.c ****       {
1230:Lib/AI_Runtime/Npu/ll_aton/ll_aton.c ****         ctrl_val = decun_inc_page_addr(id, ctrl_val);
 5057              		.loc 1 1230 20
 5058 005c 7968     		ldr	r1, [r7, #4]
 5059 005e F868     		ldr	r0, [r7, #12]
 5060 0060 FFF7FEFF 		bl	decun_inc_page_addr
 5061 0064 7860     		str	r0, [r7, #4]
1231:Lib/AI_Runtime/Npu/ll_aton/ll_aton.c ****         k = 0;
 5062              		.loc 1 1231 11
ARM GAS  /tmp/ccxZaNgH.s 			page 123


 5063 0066 0023     		movs	r3, #0
 5064 0068 3B65     		str	r3, [r7, #80]
 5065              	.L300:
 5066              	.LBE11:
1223:Lib/AI_Runtime/Npu/ll_aton/ll_aton.c ****     {
 5067              		.loc 1 1223 37 discriminator 2
 5068 006a 7B6D     		ldr	r3, [r7, #84]
 5069 006c 0133     		adds	r3, r3, #1
 5070 006e 7B65     		str	r3, [r7, #84]
 5071              	.L299:
1223:Lib/AI_Runtime/Npu/ll_aton/ll_aton.c ****     {
 5072              		.loc 1 1223 26 discriminator 1
 5073 0070 7A6D     		ldr	r2, [r7, #84]
 5074 0072 FB6C     		ldr	r3, [r7, #76]
 5075 0074 9A42     		cmp	r2, r3
 5076 0076 DBD3     		bcc	.L301
 5077              	.L298:
 5078              	.LBE10:
1232:Lib/AI_Runtime/Npu/ll_aton/ll_aton.c ****       }
1233:Lib/AI_Runtime/Npu/ll_aton/ll_aton.c ****     }
1234:Lib/AI_Runtime/Npu/ll_aton/ll_aton.c ****   }
1235:Lib/AI_Runtime/Npu/ll_aton/ll_aton.c ****   if (conf->nCWperCV == 2)
 5079              		.loc 1 1235 11
 5080 0078 BB68     		ldr	r3, [r7, #8]
 5081 007a 9B78     		ldrb	r3, [r3, #2]	@ zero_extendqisi2
 5082              		.loc 1 1235 6
 5083 007c 022B     		cmp	r3, #2
 5084 007e 2DD1     		bne	.L302
 5085              	.LBB12:
1236:Lib/AI_Runtime/Npu/ll_aton/ll_aton.c ****   {
1237:Lib/AI_Runtime/Npu/ll_aton/ll_aton.c **** #if 0
1238:Lib/AI_Runtime/Npu/ll_aton/ll_aton.c ****     uint8_t *CBp = (uint8_t *)conf->CBs_vector.p;
1239:Lib/AI_Runtime/Npu/ll_aton/ll_aton.c ****     for (i = 0, k = 0; i < CBsize; i += 2)
1240:Lib/AI_Runtime/Npu/ll_aton/ll_aton.c ****     {
1241:Lib/AI_Runtime/Npu/ll_aton/ll_aton.c ****       uint32_t temp = CBp[i] | (CBp[i + 1] << 8);
1242:Lib/AI_Runtime/Npu/ll_aton/ll_aton.c ****       ATON_DECUN_MEM_LOW_SET(id, k, temp);
1243:Lib/AI_Runtime/Npu/ll_aton/ll_aton.c ****       k++;
1244:Lib/AI_Runtime/Npu/ll_aton/ll_aton.c ****       if (k == mem_idx_num )
1245:Lib/AI_Runtime/Npu/ll_aton/ll_aton.c ****       {
1246:Lib/AI_Runtime/Npu/ll_aton/ll_aton.c ****         ctrl_val = decun_inc_page_addr(id, ctrl_val);
1247:Lib/AI_Runtime/Npu/ll_aton/ll_aton.c ****         k = 0;
1248:Lib/AI_Runtime/Npu/ll_aton/ll_aton.c ****       }
1249:Lib/AI_Runtime/Npu/ll_aton/ll_aton.c ****     }
1250:Lib/AI_Runtime/Npu/ll_aton/ll_aton.c **** #else
1251:Lib/AI_Runtime/Npu/ll_aton/ll_aton.c ****     uint16_t *CBp = (uint16_t *)conf->CBs_vector.p;
 5086              		.loc 1 1251 15
 5087 0080 BB68     		ldr	r3, [r7, #8]
 5088 0082 DB68     		ldr	r3, [r3, #12]
 5089 0084 FB63     		str	r3, [r7, #60]
1252:Lib/AI_Runtime/Npu/ll_aton/ll_aton.c ****     for (i = 0, k = 0; i < CBsize / 2; i++)
 5090              		.loc 1 1252 12
 5091 0086 0023     		movs	r3, #0
 5092 0088 7B65     		str	r3, [r7, #84]
 5093              		.loc 1 1252 19
 5094 008a 0023     		movs	r3, #0
 5095 008c 3B65     		str	r3, [r7, #80]
 5096              		.loc 1 1252 5
ARM GAS  /tmp/ccxZaNgH.s 			page 124


 5097 008e 20E0     		b	.L303
 5098              	.L305:
 5099              	.LBB13:
1253:Lib/AI_Runtime/Npu/ll_aton/ll_aton.c ****     {
1254:Lib/AI_Runtime/Npu/ll_aton/ll_aton.c ****       uint32_t temp = CBp[i];
 5100              		.loc 1 1254 26
 5101 0090 7B6D     		ldr	r3, [r7, #84]
 5102 0092 5B00     		lsls	r3, r3, #1
 5103 0094 FA6B     		ldr	r2, [r7, #60]
 5104 0096 1344     		add	r3, r3, r2
 5105 0098 1B88     		ldrh	r3, [r3]
 5106              		.loc 1 1254 16
 5107 009a BB63     		str	r3, [r7, #56]
1255:Lib/AI_Runtime/Npu/ll_aton/ll_aton.c ****       ATON_DECUN_MEM_LOW_SET(id, k, temp);
 5108              		.loc 1 1255 7
 5109 009c FB68     		ldr	r3, [r7, #12]
 5110 009e 5A02     		lsls	r2, r3, #9
 5111 00a0 3B6D     		ldr	r3, [r7, #80]
 5112 00a2 1A44     		add	r2, r2, r3
 5113 00a4 7B4B     		ldr	r3, .L328
 5114 00a6 1344     		add	r3, r3, r2
 5115 00a8 DB00     		lsls	r3, r3, #3
 5116 00aa 1A46     		mov	r2, r3
 5117 00ac BB6B     		ldr	r3, [r7, #56]
 5118 00ae 1360     		str	r3, [r2]
1256:Lib/AI_Runtime/Npu/ll_aton/ll_aton.c ****       k++;
 5119              		.loc 1 1256 8
 5120 00b0 3B6D     		ldr	r3, [r7, #80]
 5121 00b2 0133     		adds	r3, r3, #1
 5122 00b4 3B65     		str	r3, [r7, #80]
1257:Lib/AI_Runtime/Npu/ll_aton/ll_aton.c ****       if (k == mem_idx_num)
 5123              		.loc 1 1257 10
 5124 00b6 3A6D     		ldr	r2, [r7, #80]
 5125 00b8 BB6C     		ldr	r3, [r7, #72]
 5126 00ba 9A42     		cmp	r2, r3
 5127 00bc 06D1     		bne	.L304
1258:Lib/AI_Runtime/Npu/ll_aton/ll_aton.c ****       {
1259:Lib/AI_Runtime/Npu/ll_aton/ll_aton.c ****         ctrl_val = decun_inc_page_addr(id, ctrl_val);
 5128              		.loc 1 1259 20
 5129 00be 7968     		ldr	r1, [r7, #4]
 5130 00c0 F868     		ldr	r0, [r7, #12]
 5131 00c2 FFF7FEFF 		bl	decun_inc_page_addr
 5132 00c6 7860     		str	r0, [r7, #4]
1260:Lib/AI_Runtime/Npu/ll_aton/ll_aton.c ****         k = 0;
 5133              		.loc 1 1260 11
 5134 00c8 0023     		movs	r3, #0
 5135 00ca 3B65     		str	r3, [r7, #80]
 5136              	.L304:
 5137              	.LBE13:
1252:Lib/AI_Runtime/Npu/ll_aton/ll_aton.c ****     {
 5138              		.loc 1 1252 41 discriminator 2
 5139 00cc 7B6D     		ldr	r3, [r7, #84]
 5140 00ce 0133     		adds	r3, r3, #1
 5141 00d0 7B65     		str	r3, [r7, #84]
 5142              	.L303:
1252:Lib/AI_Runtime/Npu/ll_aton/ll_aton.c ****     {
 5143              		.loc 1 1252 35 discriminator 1
ARM GAS  /tmp/ccxZaNgH.s 			page 125


 5144 00d2 FB6C     		ldr	r3, [r7, #76]
 5145 00d4 5B08     		lsrs	r3, r3, #1
1252:Lib/AI_Runtime/Npu/ll_aton/ll_aton.c ****     {
 5146              		.loc 1 1252 26 discriminator 1
 5147 00d6 7A6D     		ldr	r2, [r7, #84]
 5148 00d8 9A42     		cmp	r2, r3
 5149 00da D9D3     		bcc	.L305
 5150              	.L302:
 5151              	.LBE12:
1261:Lib/AI_Runtime/Npu/ll_aton/ll_aton.c ****       }
1262:Lib/AI_Runtime/Npu/ll_aton/ll_aton.c ****     }
1263:Lib/AI_Runtime/Npu/ll_aton/ll_aton.c **** #endif
1264:Lib/AI_Runtime/Npu/ll_aton/ll_aton.c ****   }
1265:Lib/AI_Runtime/Npu/ll_aton/ll_aton.c ****   if (conf->nCWperCV == 3)
 5152              		.loc 1 1265 11
 5153 00dc BB68     		ldr	r3, [r7, #8]
 5154 00de 9B78     		ldrb	r3, [r3, #2]	@ zero_extendqisi2
 5155              		.loc 1 1265 6
 5156 00e0 032B     		cmp	r3, #3
 5157 00e2 3BD1     		bne	.L306
 5158              	.LBB14:
1266:Lib/AI_Runtime/Npu/ll_aton/ll_aton.c ****   {
1267:Lib/AI_Runtime/Npu/ll_aton/ll_aton.c ****     uint8_t *CBp = (uint8_t *)conf->CBs_vector.p;
 5159              		.loc 1 1267 14
 5160 00e4 BB68     		ldr	r3, [r7, #8]
 5161 00e6 DB68     		ldr	r3, [r3, #12]
 5162 00e8 7B63     		str	r3, [r7, #52]
1268:Lib/AI_Runtime/Npu/ll_aton/ll_aton.c ****     for (i = 0, k = 0; i < CBsize; i += 3)
 5163              		.loc 1 1268 12
 5164 00ea 0023     		movs	r3, #0
 5165 00ec 7B65     		str	r3, [r7, #84]
 5166              		.loc 1 1268 19
 5167 00ee 0023     		movs	r3, #0
 5168 00f0 3B65     		str	r3, [r7, #80]
 5169              		.loc 1 1268 5
 5170 00f2 2FE0     		b	.L307
 5171              	.L309:
 5172              	.LBB15:
1269:Lib/AI_Runtime/Npu/ll_aton/ll_aton.c ****     {
1270:Lib/AI_Runtime/Npu/ll_aton/ll_aton.c ****       uint32_t temp = CBp[i] | (CBp[i + 1] << 8) | (CBp[i + 2] << 16);
 5173              		.loc 1 1270 26
 5174 00f4 7A6B     		ldr	r2, [r7, #52]
 5175 00f6 7B6D     		ldr	r3, [r7, #84]
 5176 00f8 1344     		add	r3, r3, r2
 5177 00fa 1B78     		ldrb	r3, [r3]	@ zero_extendqisi2
 5178 00fc 1946     		mov	r1, r3
 5179              		.loc 1 1270 36
 5180 00fe 7B6D     		ldr	r3, [r7, #84]
 5181 0100 0133     		adds	r3, r3, #1
 5182 0102 7A6B     		ldr	r2, [r7, #52]
 5183 0104 1344     		add	r3, r3, r2
 5184 0106 1B78     		ldrb	r3, [r3]	@ zero_extendqisi2
 5185              		.loc 1 1270 44
 5186 0108 1B02     		lsls	r3, r3, #8
 5187              		.loc 1 1270 30
 5188 010a 41EA0302 		orr	r2, r1, r3
 5189              		.loc 1 1270 56
ARM GAS  /tmp/ccxZaNgH.s 			page 126


 5190 010e 7B6D     		ldr	r3, [r7, #84]
 5191 0110 0233     		adds	r3, r3, #2
 5192 0112 796B     		ldr	r1, [r7, #52]
 5193 0114 0B44     		add	r3, r3, r1
 5194 0116 1B78     		ldrb	r3, [r3]	@ zero_extendqisi2
 5195              		.loc 1 1270 64
 5196 0118 1B04     		lsls	r3, r3, #16
 5197              		.loc 1 1270 50
 5198 011a 1343     		orrs	r3, r3, r2
 5199              		.loc 1 1270 16
 5200 011c 3B63     		str	r3, [r7, #48]
1271:Lib/AI_Runtime/Npu/ll_aton/ll_aton.c ****       ATON_DECUN_MEM_LOW_SET(id, k, temp);
 5201              		.loc 1 1271 7
 5202 011e FB68     		ldr	r3, [r7, #12]
 5203 0120 5A02     		lsls	r2, r3, #9
 5204 0122 3B6D     		ldr	r3, [r7, #80]
 5205 0124 1A44     		add	r2, r2, r3
 5206 0126 5B4B     		ldr	r3, .L328
 5207 0128 1344     		add	r3, r3, r2
 5208 012a DB00     		lsls	r3, r3, #3
 5209 012c 1A46     		mov	r2, r3
 5210 012e 3B6B     		ldr	r3, [r7, #48]
 5211 0130 1360     		str	r3, [r2]
1272:Lib/AI_Runtime/Npu/ll_aton/ll_aton.c ****       k++;
 5212              		.loc 1 1272 8
 5213 0132 3B6D     		ldr	r3, [r7, #80]
 5214 0134 0133     		adds	r3, r3, #1
 5215 0136 3B65     		str	r3, [r7, #80]
1273:Lib/AI_Runtime/Npu/ll_aton/ll_aton.c ****       if (k == mem_idx_num)
 5216              		.loc 1 1273 10
 5217 0138 3A6D     		ldr	r2, [r7, #80]
 5218 013a BB6C     		ldr	r3, [r7, #72]
 5219 013c 9A42     		cmp	r2, r3
 5220 013e 06D1     		bne	.L308
1274:Lib/AI_Runtime/Npu/ll_aton/ll_aton.c ****       {
1275:Lib/AI_Runtime/Npu/ll_aton/ll_aton.c ****         ctrl_val = decun_inc_page_addr(id, ctrl_val);
 5221              		.loc 1 1275 20
 5222 0140 7968     		ldr	r1, [r7, #4]
 5223 0142 F868     		ldr	r0, [r7, #12]
 5224 0144 FFF7FEFF 		bl	decun_inc_page_addr
 5225 0148 7860     		str	r0, [r7, #4]
1276:Lib/AI_Runtime/Npu/ll_aton/ll_aton.c ****         k = 0;
 5226              		.loc 1 1276 11
 5227 014a 0023     		movs	r3, #0
 5228 014c 3B65     		str	r3, [r7, #80]
 5229              	.L308:
 5230              	.LBE15:
1268:Lib/AI_Runtime/Npu/ll_aton/ll_aton.c ****     {
 5231              		.loc 1 1268 38 discriminator 2
 5232 014e 7B6D     		ldr	r3, [r7, #84]
 5233 0150 0333     		adds	r3, r3, #3
 5234 0152 7B65     		str	r3, [r7, #84]
 5235              	.L307:
1268:Lib/AI_Runtime/Npu/ll_aton/ll_aton.c ****     {
 5236              		.loc 1 1268 26 discriminator 1
 5237 0154 7A6D     		ldr	r2, [r7, #84]
 5238 0156 FB6C     		ldr	r3, [r7, #76]
ARM GAS  /tmp/ccxZaNgH.s 			page 127


 5239 0158 9A42     		cmp	r2, r3
 5240 015a CBD3     		bcc	.L309
 5241              	.L306:
 5242              	.LBE14:
1277:Lib/AI_Runtime/Npu/ll_aton/ll_aton.c ****       }
1278:Lib/AI_Runtime/Npu/ll_aton/ll_aton.c ****     }
1279:Lib/AI_Runtime/Npu/ll_aton/ll_aton.c ****   }
1280:Lib/AI_Runtime/Npu/ll_aton/ll_aton.c ****   if (conf->nCWperCV == 4 || conf->nCWperCV == 8)
 5243              		.loc 1 1280 11
 5244 015c BB68     		ldr	r3, [r7, #8]
 5245 015e 9B78     		ldrb	r3, [r3, #2]	@ zero_extendqisi2
 5246              		.loc 1 1280 6
 5247 0160 042B     		cmp	r3, #4
 5248 0162 03D0     		beq	.L310
 5249              		.loc 1 1280 34 discriminator 1
 5250 0164 BB68     		ldr	r3, [r7, #8]
 5251 0166 9B78     		ldrb	r3, [r3, #2]	@ zero_extendqisi2
 5252              		.loc 1 1280 27 discriminator 1
 5253 0168 082B     		cmp	r3, #8
 5254 016a 2DD1     		bne	.L311
 5255              	.L310:
 5256              	.LBB16:
1281:Lib/AI_Runtime/Npu/ll_aton/ll_aton.c ****   {
1282:Lib/AI_Runtime/Npu/ll_aton/ll_aton.c ****     uint32_t *CBp = (uint32_t *)conf->CBs_vector.p;
 5257              		.loc 1 1282 15
 5258 016c BB68     		ldr	r3, [r7, #8]
 5259 016e DB68     		ldr	r3, [r3, #12]
 5260 0170 FB62     		str	r3, [r7, #44]
1283:Lib/AI_Runtime/Npu/ll_aton/ll_aton.c ****     for (i = 0, k = 0; i < CBsize / 4; i++)
 5261              		.loc 1 1283 12
 5262 0172 0023     		movs	r3, #0
 5263 0174 7B65     		str	r3, [r7, #84]
 5264              		.loc 1 1283 19
 5265 0176 0023     		movs	r3, #0
 5266 0178 3B65     		str	r3, [r7, #80]
 5267              		.loc 1 1283 5
 5268 017a 20E0     		b	.L312
 5269              	.L314:
 5270              	.LBB17:
1284:Lib/AI_Runtime/Npu/ll_aton/ll_aton.c ****     {
1285:Lib/AI_Runtime/Npu/ll_aton/ll_aton.c ****       uint32_t temp = CBp[i];
 5271              		.loc 1 1285 26
 5272 017c 7B6D     		ldr	r3, [r7, #84]
 5273 017e 9B00     		lsls	r3, r3, #2
 5274 0180 FA6A     		ldr	r2, [r7, #44]
 5275 0182 1344     		add	r3, r3, r2
 5276              		.loc 1 1285 16
 5277 0184 1B68     		ldr	r3, [r3]
 5278 0186 BB62     		str	r3, [r7, #40]
1286:Lib/AI_Runtime/Npu/ll_aton/ll_aton.c ****       ATON_DECUN_MEM_LOW_SET(id, k, temp);
 5279              		.loc 1 1286 7
 5280 0188 FB68     		ldr	r3, [r7, #12]
 5281 018a 5A02     		lsls	r2, r3, #9
 5282 018c 3B6D     		ldr	r3, [r7, #80]
 5283 018e 1A44     		add	r2, r2, r3
 5284 0190 404B     		ldr	r3, .L328
 5285 0192 1344     		add	r3, r3, r2
ARM GAS  /tmp/ccxZaNgH.s 			page 128


 5286 0194 DB00     		lsls	r3, r3, #3
 5287 0196 1A46     		mov	r2, r3
 5288 0198 BB6A     		ldr	r3, [r7, #40]
 5289 019a 1360     		str	r3, [r2]
1287:Lib/AI_Runtime/Npu/ll_aton/ll_aton.c ****       k++;
 5290              		.loc 1 1287 8
 5291 019c 3B6D     		ldr	r3, [r7, #80]
 5292 019e 0133     		adds	r3, r3, #1
 5293 01a0 3B65     		str	r3, [r7, #80]
1288:Lib/AI_Runtime/Npu/ll_aton/ll_aton.c ****       if (k == mem_idx_num)
 5294              		.loc 1 1288 10
 5295 01a2 3A6D     		ldr	r2, [r7, #80]
 5296 01a4 BB6C     		ldr	r3, [r7, #72]
 5297 01a6 9A42     		cmp	r2, r3
 5298 01a8 06D1     		bne	.L313
1289:Lib/AI_Runtime/Npu/ll_aton/ll_aton.c ****       {
1290:Lib/AI_Runtime/Npu/ll_aton/ll_aton.c ****         ctrl_val = decun_inc_page_addr(id, ctrl_val);
 5299              		.loc 1 1290 20
 5300 01aa 7968     		ldr	r1, [r7, #4]
 5301 01ac F868     		ldr	r0, [r7, #12]
 5302 01ae FFF7FEFF 		bl	decun_inc_page_addr
 5303 01b2 7860     		str	r0, [r7, #4]
1291:Lib/AI_Runtime/Npu/ll_aton/ll_aton.c ****         k = 0;
 5304              		.loc 1 1291 11
 5305 01b4 0023     		movs	r3, #0
 5306 01b6 3B65     		str	r3, [r7, #80]
 5307              	.L313:
 5308              	.LBE17:
1283:Lib/AI_Runtime/Npu/ll_aton/ll_aton.c ****     {
 5309              		.loc 1 1283 41 discriminator 2
 5310 01b8 7B6D     		ldr	r3, [r7, #84]
 5311 01ba 0133     		adds	r3, r3, #1
 5312 01bc 7B65     		str	r3, [r7, #84]
 5313              	.L312:
1283:Lib/AI_Runtime/Npu/ll_aton/ll_aton.c ****     {
 5314              		.loc 1 1283 35 discriminator 1
 5315 01be FB6C     		ldr	r3, [r7, #76]
 5316 01c0 9B08     		lsrs	r3, r3, #2
1283:Lib/AI_Runtime/Npu/ll_aton/ll_aton.c ****     {
 5317              		.loc 1 1283 26 discriminator 1
 5318 01c2 7A6D     		ldr	r2, [r7, #84]
 5319 01c4 9A42     		cmp	r2, r3
 5320 01c6 D9D3     		bcc	.L314
 5321              	.L311:
 5322              	.LBE16:
1292:Lib/AI_Runtime/Npu/ll_aton/ll_aton.c ****       }
1293:Lib/AI_Runtime/Npu/ll_aton/ll_aton.c ****     }
1294:Lib/AI_Runtime/Npu/ll_aton/ll_aton.c ****   }
1295:Lib/AI_Runtime/Npu/ll_aton/ll_aton.c ****   if (conf->nCWperCV == 5)
 5323              		.loc 1 1295 11
 5324 01c8 BB68     		ldr	r3, [r7, #8]
 5325 01ca 9B78     		ldrb	r3, [r3, #2]	@ zero_extendqisi2
 5326              		.loc 1 1295 6
 5327 01cc 052B     		cmp	r3, #5
 5328 01ce 55D1     		bne	.L315
 5329              	.LBB18:
1296:Lib/AI_Runtime/Npu/ll_aton/ll_aton.c ****   {
ARM GAS  /tmp/ccxZaNgH.s 			page 129


1297:Lib/AI_Runtime/Npu/ll_aton/ll_aton.c ****     uint8_t *CBp = (uint8_t *)conf->CBs_vector.p;
 5330              		.loc 1 1297 14
 5331 01d0 BB68     		ldr	r3, [r7, #8]
 5332 01d2 DB68     		ldr	r3, [r3, #12]
 5333 01d4 7B62     		str	r3, [r7, #36]
1298:Lib/AI_Runtime/Npu/ll_aton/ll_aton.c ****     for (i = 0, k = 0; i < CBsize; i += 5)
 5334              		.loc 1 1298 12
 5335 01d6 0023     		movs	r3, #0
 5336 01d8 7B65     		str	r3, [r7, #84]
 5337              		.loc 1 1298 19
 5338 01da 0023     		movs	r3, #0
 5339 01dc 3B65     		str	r3, [r7, #80]
 5340              		.loc 1 1298 5
 5341 01de 49E0     		b	.L316
 5342              	.L318:
 5343              	.LBB19:
1299:Lib/AI_Runtime/Npu/ll_aton/ll_aton.c ****     {
1300:Lib/AI_Runtime/Npu/ll_aton/ll_aton.c ****       uint32_t temp = CBp[i] | (CBp[i + 1] << 8) | (CBp[i + 2] << 16) | (CBp[i + 3] << 24);
 5344              		.loc 1 1300 26
 5345 01e0 7A6A     		ldr	r2, [r7, #36]
 5346 01e2 7B6D     		ldr	r3, [r7, #84]
 5347 01e4 1344     		add	r3, r3, r2
 5348 01e6 1B78     		ldrb	r3, [r3]	@ zero_extendqisi2
 5349 01e8 1946     		mov	r1, r3
 5350              		.loc 1 1300 36
 5351 01ea 7B6D     		ldr	r3, [r7, #84]
 5352 01ec 0133     		adds	r3, r3, #1
 5353 01ee 7A6A     		ldr	r2, [r7, #36]
 5354 01f0 1344     		add	r3, r3, r2
 5355 01f2 1B78     		ldrb	r3, [r3]	@ zero_extendqisi2
 5356              		.loc 1 1300 44
 5357 01f4 1B02     		lsls	r3, r3, #8
 5358              		.loc 1 1300 30
 5359 01f6 41EA0302 		orr	r2, r1, r3
 5360              		.loc 1 1300 56
 5361 01fa 7B6D     		ldr	r3, [r7, #84]
 5362 01fc 0233     		adds	r3, r3, #2
 5363 01fe 796A     		ldr	r1, [r7, #36]
 5364 0200 0B44     		add	r3, r3, r1
 5365 0202 1B78     		ldrb	r3, [r3]	@ zero_extendqisi2
 5366              		.loc 1 1300 64
 5367 0204 1B04     		lsls	r3, r3, #16
 5368              		.loc 1 1300 50
 5369 0206 1A43     		orrs	r2, r2, r3
 5370              		.loc 1 1300 77
 5371 0208 7B6D     		ldr	r3, [r7, #84]
 5372 020a 0333     		adds	r3, r3, #3
 5373 020c 796A     		ldr	r1, [r7, #36]
 5374 020e 0B44     		add	r3, r3, r1
 5375 0210 1B78     		ldrb	r3, [r3]	@ zero_extendqisi2
 5376              		.loc 1 1300 85
 5377 0212 1B06     		lsls	r3, r3, #24
 5378              		.loc 1 1300 71
 5379 0214 1343     		orrs	r3, r3, r2
 5380              		.loc 1 1300 16
 5381 0216 3B62     		str	r3, [r7, #32]
1301:Lib/AI_Runtime/Npu/ll_aton/ll_aton.c ****       ATON_DECUN_MEM_LOW_SET(id, k, temp);
ARM GAS  /tmp/ccxZaNgH.s 			page 130


 5382              		.loc 1 1301 7
 5383 0218 FB68     		ldr	r3, [r7, #12]
 5384 021a 5A02     		lsls	r2, r3, #9
 5385 021c 3B6D     		ldr	r3, [r7, #80]
 5386 021e 1A44     		add	r2, r2, r3
 5387 0220 1C4B     		ldr	r3, .L328
 5388 0222 1344     		add	r3, r3, r2
 5389 0224 DB00     		lsls	r3, r3, #3
 5390 0226 1A46     		mov	r2, r3
 5391 0228 3B6A     		ldr	r3, [r7, #32]
 5392 022a 1360     		str	r3, [r2]
1302:Lib/AI_Runtime/Npu/ll_aton/ll_aton.c ****       k++;
 5393              		.loc 1 1302 8
 5394 022c 3B6D     		ldr	r3, [r7, #80]
 5395 022e 0133     		adds	r3, r3, #1
 5396 0230 3B65     		str	r3, [r7, #80]
1303:Lib/AI_Runtime/Npu/ll_aton/ll_aton.c ****       temp = CBp[i + 4];
 5397              		.loc 1 1303 17
 5398 0232 7B6D     		ldr	r3, [r7, #84]
 5399 0234 0433     		adds	r3, r3, #4
 5400 0236 7A6A     		ldr	r2, [r7, #36]
 5401 0238 1344     		add	r3, r3, r2
 5402 023a 1B78     		ldrb	r3, [r3]	@ zero_extendqisi2
 5403              		.loc 1 1303 12
 5404 023c 3B62     		str	r3, [r7, #32]
1304:Lib/AI_Runtime/Npu/ll_aton/ll_aton.c ****       ATON_DECUN_MEM_LOW_SET(id, k, temp);
 5405              		.loc 1 1304 7
 5406 023e FB68     		ldr	r3, [r7, #12]
 5407 0240 5A02     		lsls	r2, r3, #9
 5408 0242 3B6D     		ldr	r3, [r7, #80]
 5409 0244 1A44     		add	r2, r2, r3
 5410 0246 134B     		ldr	r3, .L328
 5411 0248 1344     		add	r3, r3, r2
 5412 024a DB00     		lsls	r3, r3, #3
 5413 024c 1A46     		mov	r2, r3
 5414 024e 3B6A     		ldr	r3, [r7, #32]
 5415 0250 1360     		str	r3, [r2]
1305:Lib/AI_Runtime/Npu/ll_aton/ll_aton.c ****       k++;
 5416              		.loc 1 1305 8
 5417 0252 3B6D     		ldr	r3, [r7, #80]
 5418 0254 0133     		adds	r3, r3, #1
 5419 0256 3B65     		str	r3, [r7, #80]
1306:Lib/AI_Runtime/Npu/ll_aton/ll_aton.c ****       if (k == mem_idx_num)
 5420              		.loc 1 1306 10
 5421 0258 3A6D     		ldr	r2, [r7, #80]
 5422 025a BB6C     		ldr	r3, [r7, #72]
 5423 025c 9A42     		cmp	r2, r3
 5424 025e 06D1     		bne	.L317
1307:Lib/AI_Runtime/Npu/ll_aton/ll_aton.c ****       {
1308:Lib/AI_Runtime/Npu/ll_aton/ll_aton.c ****         ctrl_val = decun_inc_page_addr(id, ctrl_val);
 5425              		.loc 1 1308 20
 5426 0260 7968     		ldr	r1, [r7, #4]
 5427 0262 F868     		ldr	r0, [r7, #12]
 5428 0264 FFF7FEFF 		bl	decun_inc_page_addr
 5429 0268 7860     		str	r0, [r7, #4]
1309:Lib/AI_Runtime/Npu/ll_aton/ll_aton.c ****         k = 0;
 5430              		.loc 1 1309 11
ARM GAS  /tmp/ccxZaNgH.s 			page 131


 5431 026a 0023     		movs	r3, #0
 5432 026c 3B65     		str	r3, [r7, #80]
 5433              	.L317:
 5434              	.LBE19:
1298:Lib/AI_Runtime/Npu/ll_aton/ll_aton.c ****     {
 5435              		.loc 1 1298 38 discriminator 2
 5436 026e 7B6D     		ldr	r3, [r7, #84]
 5437 0270 0533     		adds	r3, r3, #5
 5438 0272 7B65     		str	r3, [r7, #84]
 5439              	.L316:
1298:Lib/AI_Runtime/Npu/ll_aton/ll_aton.c ****     {
 5440              		.loc 1 1298 26 discriminator 1
 5441 0274 7A6D     		ldr	r2, [r7, #84]
 5442 0276 FB6C     		ldr	r3, [r7, #76]
 5443 0278 9A42     		cmp	r2, r3
 5444 027a B1D3     		bcc	.L318
 5445              	.L315:
 5446              	.LBE18:
1310:Lib/AI_Runtime/Npu/ll_aton/ll_aton.c ****       }
1311:Lib/AI_Runtime/Npu/ll_aton/ll_aton.c ****     }
1312:Lib/AI_Runtime/Npu/ll_aton/ll_aton.c ****   }
1313:Lib/AI_Runtime/Npu/ll_aton/ll_aton.c ****   if (conf->nCWperCV == 6)
 5447              		.loc 1 1313 11
 5448 027c BB68     		ldr	r3, [r7, #8]
 5449 027e 9B78     		ldrb	r3, [r3, #2]	@ zero_extendqisi2
 5450              		.loc 1 1313 6
 5451 0280 062B     		cmp	r3, #6
 5452 0282 4CD1     		bne	.L319
 5453              	.LBB20:
1314:Lib/AI_Runtime/Npu/ll_aton/ll_aton.c ****   {
1315:Lib/AI_Runtime/Npu/ll_aton/ll_aton.c **** #if 0
1316:Lib/AI_Runtime/Npu/ll_aton/ll_aton.c ****     uint8_t *CBp = (uint8_t *)conf->CBs_vector.p;
1317:Lib/AI_Runtime/Npu/ll_aton/ll_aton.c ****     for (i = 0, k = 0; i < CBsize; i += 6)
1318:Lib/AI_Runtime/Npu/ll_aton/ll_aton.c ****     {
1319:Lib/AI_Runtime/Npu/ll_aton/ll_aton.c ****       uint32_t temp = CBp[i] | (CBp[i + 1] << 8) | (CBp[i + 2] << 16) | (CBp[i + 3] << 24);
1320:Lib/AI_Runtime/Npu/ll_aton/ll_aton.c ****       ATON_DECUN_MEM_LOW_SET(id, k, temp);
1321:Lib/AI_Runtime/Npu/ll_aton/ll_aton.c ****       k++;
1322:Lib/AI_Runtime/Npu/ll_aton/ll_aton.c ****       temp = CBp[i + 4] | (CBp[i + 5] << 8);
1323:Lib/AI_Runtime/Npu/ll_aton/ll_aton.c ****       ATON_DECUN_MEM_LOW_SET(id, k, temp);
1324:Lib/AI_Runtime/Npu/ll_aton/ll_aton.c ****       k++;
1325:Lib/AI_Runtime/Npu/ll_aton/ll_aton.c ****       if (k == mem_idx_num )
1326:Lib/AI_Runtime/Npu/ll_aton/ll_aton.c ****       {
1327:Lib/AI_Runtime/Npu/ll_aton/ll_aton.c ****         ctrl_val = decun_inc_page_addr(id, ctrl_val);
1328:Lib/AI_Runtime/Npu/ll_aton/ll_aton.c ****         k = 0;
1329:Lib/AI_Runtime/Npu/ll_aton/ll_aton.c ****       }
1330:Lib/AI_Runtime/Npu/ll_aton/ll_aton.c ****     }
1331:Lib/AI_Runtime/Npu/ll_aton/ll_aton.c **** #else
1332:Lib/AI_Runtime/Npu/ll_aton/ll_aton.c ****     uint16_t *CBp = (uint16_t *)conf->CBs_vector.p;
 5454              		.loc 1 1332 15
 5455 0284 BB68     		ldr	r3, [r7, #8]
 5456 0286 DB68     		ldr	r3, [r3, #12]
 5457 0288 FB61     		str	r3, [r7, #28]
1333:Lib/AI_Runtime/Npu/ll_aton/ll_aton.c ****     for (i = 0, k = 0; i < CBsize / 2; i += 3)
 5458              		.loc 1 1333 12
 5459 028a 0023     		movs	r3, #0
 5460 028c 7B65     		str	r3, [r7, #84]
 5461              		.loc 1 1333 19
ARM GAS  /tmp/ccxZaNgH.s 			page 132


 5462 028e 0023     		movs	r3, #0
 5463 0290 3B65     		str	r3, [r7, #80]
 5464              		.loc 1 1333 5
 5465 0292 3FE0     		b	.L320
 5466              	.L329:
 5467              		.align	2
 5468              	.L328:
 5469 0294 00E7010B 		.word	184674048
 5470              	.L322:
 5471              	.LBB21:
1334:Lib/AI_Runtime/Npu/ll_aton/ll_aton.c ****     {
1335:Lib/AI_Runtime/Npu/ll_aton/ll_aton.c ****       uint32_t temp = CBp[i] | (CBp[i + 1] << 16);
 5472              		.loc 1 1335 26
 5473 0298 7B6D     		ldr	r3, [r7, #84]
 5474 029a 5B00     		lsls	r3, r3, #1
 5475 029c FA69     		ldr	r2, [r7, #28]
 5476 029e 1344     		add	r3, r3, r2
 5477 02a0 1B88     		ldrh	r3, [r3]
 5478 02a2 1946     		mov	r1, r3
 5479              		.loc 1 1335 36
 5480 02a4 7B6D     		ldr	r3, [r7, #84]
 5481 02a6 0133     		adds	r3, r3, #1
 5482 02a8 5B00     		lsls	r3, r3, #1
 5483 02aa FA69     		ldr	r2, [r7, #28]
 5484 02ac 1344     		add	r3, r3, r2
 5485 02ae 1B88     		ldrh	r3, [r3]
 5486              		.loc 1 1335 44
 5487 02b0 1B04     		lsls	r3, r3, #16
 5488              		.loc 1 1335 30
 5489 02b2 0B43     		orrs	r3, r3, r1
 5490              		.loc 1 1335 16
 5491 02b4 BB61     		str	r3, [r7, #24]
1336:Lib/AI_Runtime/Npu/ll_aton/ll_aton.c ****       ATON_DECUN_MEM_LOW_SET(id, k, temp);
 5492              		.loc 1 1336 7
 5493 02b6 FB68     		ldr	r3, [r7, #12]
 5494 02b8 5A02     		lsls	r2, r3, #9
 5495 02ba 3B6D     		ldr	r3, [r7, #80]
 5496 02bc 1A44     		add	r2, r2, r3
 5497 02be 4F4B     		ldr	r3, .L330
 5498 02c0 1344     		add	r3, r3, r2
 5499 02c2 DB00     		lsls	r3, r3, #3
 5500 02c4 1A46     		mov	r2, r3
 5501 02c6 BB69     		ldr	r3, [r7, #24]
 5502 02c8 1360     		str	r3, [r2]
1337:Lib/AI_Runtime/Npu/ll_aton/ll_aton.c ****       k++;
 5503              		.loc 1 1337 8
 5504 02ca 3B6D     		ldr	r3, [r7, #80]
 5505 02cc 0133     		adds	r3, r3, #1
 5506 02ce 3B65     		str	r3, [r7, #80]
1338:Lib/AI_Runtime/Npu/ll_aton/ll_aton.c ****       temp = CBp[i + 2];
 5507              		.loc 1 1338 17
 5508 02d0 7B6D     		ldr	r3, [r7, #84]
 5509 02d2 0233     		adds	r3, r3, #2
 5510 02d4 5B00     		lsls	r3, r3, #1
 5511 02d6 FA69     		ldr	r2, [r7, #28]
 5512 02d8 1344     		add	r3, r3, r2
 5513 02da 1B88     		ldrh	r3, [r3]
ARM GAS  /tmp/ccxZaNgH.s 			page 133


 5514              		.loc 1 1338 12
 5515 02dc BB61     		str	r3, [r7, #24]
1339:Lib/AI_Runtime/Npu/ll_aton/ll_aton.c ****       ATON_DECUN_MEM_LOW_SET(id, k, temp);
 5516              		.loc 1 1339 7
 5517 02de FB68     		ldr	r3, [r7, #12]
 5518 02e0 5A02     		lsls	r2, r3, #9
 5519 02e2 3B6D     		ldr	r3, [r7, #80]
 5520 02e4 1A44     		add	r2, r2, r3
 5521 02e6 454B     		ldr	r3, .L330
 5522 02e8 1344     		add	r3, r3, r2
 5523 02ea DB00     		lsls	r3, r3, #3
 5524 02ec 1A46     		mov	r2, r3
 5525 02ee BB69     		ldr	r3, [r7, #24]
 5526 02f0 1360     		str	r3, [r2]
1340:Lib/AI_Runtime/Npu/ll_aton/ll_aton.c ****       k++;
 5527              		.loc 1 1340 8
 5528 02f2 3B6D     		ldr	r3, [r7, #80]
 5529 02f4 0133     		adds	r3, r3, #1
 5530 02f6 3B65     		str	r3, [r7, #80]
1341:Lib/AI_Runtime/Npu/ll_aton/ll_aton.c ****       if (k == mem_idx_num)
 5531              		.loc 1 1341 10
 5532 02f8 3A6D     		ldr	r2, [r7, #80]
 5533 02fa BB6C     		ldr	r3, [r7, #72]
 5534 02fc 9A42     		cmp	r2, r3
 5535 02fe 06D1     		bne	.L321
1342:Lib/AI_Runtime/Npu/ll_aton/ll_aton.c ****       {
1343:Lib/AI_Runtime/Npu/ll_aton/ll_aton.c ****         ctrl_val = decun_inc_page_addr(id, ctrl_val);
 5536              		.loc 1 1343 20
 5537 0300 7968     		ldr	r1, [r7, #4]
 5538 0302 F868     		ldr	r0, [r7, #12]
 5539 0304 FFF7FEFF 		bl	decun_inc_page_addr
 5540 0308 7860     		str	r0, [r7, #4]
1344:Lib/AI_Runtime/Npu/ll_aton/ll_aton.c ****         k = 0;
 5541              		.loc 1 1344 11
 5542 030a 0023     		movs	r3, #0
 5543 030c 3B65     		str	r3, [r7, #80]
 5544              	.L321:
 5545              	.LBE21:
1333:Lib/AI_Runtime/Npu/ll_aton/ll_aton.c ****     {
 5546              		.loc 1 1333 42 discriminator 2
 5547 030e 7B6D     		ldr	r3, [r7, #84]
 5548 0310 0333     		adds	r3, r3, #3
 5549 0312 7B65     		str	r3, [r7, #84]
 5550              	.L320:
1333:Lib/AI_Runtime/Npu/ll_aton/ll_aton.c ****     {
 5551              		.loc 1 1333 35 discriminator 1
 5552 0314 FB6C     		ldr	r3, [r7, #76]
 5553 0316 5B08     		lsrs	r3, r3, #1
1333:Lib/AI_Runtime/Npu/ll_aton/ll_aton.c ****     {
 5554              		.loc 1 1333 26 discriminator 1
 5555 0318 7A6D     		ldr	r2, [r7, #84]
 5556 031a 9A42     		cmp	r2, r3
 5557 031c BCD3     		bcc	.L322
 5558              	.L319:
 5559              	.LBE20:
1345:Lib/AI_Runtime/Npu/ll_aton/ll_aton.c ****       }
1346:Lib/AI_Runtime/Npu/ll_aton/ll_aton.c ****     }
ARM GAS  /tmp/ccxZaNgH.s 			page 134


1347:Lib/AI_Runtime/Npu/ll_aton/ll_aton.c **** #endif
1348:Lib/AI_Runtime/Npu/ll_aton/ll_aton.c ****   }
1349:Lib/AI_Runtime/Npu/ll_aton/ll_aton.c ****   if (conf->nCWperCV == 7)
 5560              		.loc 1 1349 11
 5561 031e BB68     		ldr	r3, [r7, #8]
 5562 0320 9B78     		ldrb	r3, [r3, #2]	@ zero_extendqisi2
 5563              		.loc 1 1349 6
 5564 0322 072B     		cmp	r3, #7
 5565 0324 65D1     		bne	.L327
 5566              	.LBB22:
1350:Lib/AI_Runtime/Npu/ll_aton/ll_aton.c ****   {
1351:Lib/AI_Runtime/Npu/ll_aton/ll_aton.c ****     uint8_t *CBp = (uint8_t *)conf->CBs_vector.p;
 5567              		.loc 1 1351 14
 5568 0326 BB68     		ldr	r3, [r7, #8]
 5569 0328 DB68     		ldr	r3, [r3, #12]
 5570 032a 7B61     		str	r3, [r7, #20]
1352:Lib/AI_Runtime/Npu/ll_aton/ll_aton.c ****     for (i = 0, k = 0; i < CBsize; i += 7)
 5571              		.loc 1 1352 12
 5572 032c 0023     		movs	r3, #0
 5573 032e 7B65     		str	r3, [r7, #84]
 5574              		.loc 1 1352 19
 5575 0330 0023     		movs	r3, #0
 5576 0332 3B65     		str	r3, [r7, #80]
 5577              		.loc 1 1352 5
 5578 0334 59E0     		b	.L324
 5579              	.L326:
 5580              	.LBB23:
1353:Lib/AI_Runtime/Npu/ll_aton/ll_aton.c ****     {
1354:Lib/AI_Runtime/Npu/ll_aton/ll_aton.c ****       uint32_t temp = CBp[i] | (CBp[i + 1] << 8) | (CBp[i + 2] << 16) | (CBp[i + 3] << 24);
 5581              		.loc 1 1354 26
 5582 0336 7A69     		ldr	r2, [r7, #20]
 5583 0338 7B6D     		ldr	r3, [r7, #84]
 5584 033a 1344     		add	r3, r3, r2
 5585 033c 1B78     		ldrb	r3, [r3]	@ zero_extendqisi2
 5586 033e 1946     		mov	r1, r3
 5587              		.loc 1 1354 36
 5588 0340 7B6D     		ldr	r3, [r7, #84]
 5589 0342 0133     		adds	r3, r3, #1
 5590 0344 7A69     		ldr	r2, [r7, #20]
 5591 0346 1344     		add	r3, r3, r2
 5592 0348 1B78     		ldrb	r3, [r3]	@ zero_extendqisi2
 5593              		.loc 1 1354 44
 5594 034a 1B02     		lsls	r3, r3, #8
 5595              		.loc 1 1354 30
 5596 034c 41EA0302 		orr	r2, r1, r3
 5597              		.loc 1 1354 56
 5598 0350 7B6D     		ldr	r3, [r7, #84]
 5599 0352 0233     		adds	r3, r3, #2
 5600 0354 7969     		ldr	r1, [r7, #20]
 5601 0356 0B44     		add	r3, r3, r1
 5602 0358 1B78     		ldrb	r3, [r3]	@ zero_extendqisi2
 5603              		.loc 1 1354 64
 5604 035a 1B04     		lsls	r3, r3, #16
 5605              		.loc 1 1354 50
 5606 035c 1A43     		orrs	r2, r2, r3
 5607              		.loc 1 1354 77
 5608 035e 7B6D     		ldr	r3, [r7, #84]
ARM GAS  /tmp/ccxZaNgH.s 			page 135


 5609 0360 0333     		adds	r3, r3, #3
 5610 0362 7969     		ldr	r1, [r7, #20]
 5611 0364 0B44     		add	r3, r3, r1
 5612 0366 1B78     		ldrb	r3, [r3]	@ zero_extendqisi2
 5613              		.loc 1 1354 85
 5614 0368 1B06     		lsls	r3, r3, #24
 5615              		.loc 1 1354 71
 5616 036a 1343     		orrs	r3, r3, r2
 5617              		.loc 1 1354 16
 5618 036c 3B61     		str	r3, [r7, #16]
1355:Lib/AI_Runtime/Npu/ll_aton/ll_aton.c ****       ATON_DECUN_MEM_LOW_SET(id, k, temp);
 5619              		.loc 1 1355 7
 5620 036e FB68     		ldr	r3, [r7, #12]
 5621 0370 5A02     		lsls	r2, r3, #9
 5622 0372 3B6D     		ldr	r3, [r7, #80]
 5623 0374 1A44     		add	r2, r2, r3
 5624 0376 214B     		ldr	r3, .L330
 5625 0378 1344     		add	r3, r3, r2
 5626 037a DB00     		lsls	r3, r3, #3
 5627 037c 1A46     		mov	r2, r3
 5628 037e 3B69     		ldr	r3, [r7, #16]
 5629 0380 1360     		str	r3, [r2]
1356:Lib/AI_Runtime/Npu/ll_aton/ll_aton.c ****       k++;
 5630              		.loc 1 1356 8
 5631 0382 3B6D     		ldr	r3, [r7, #80]
 5632 0384 0133     		adds	r3, r3, #1
 5633 0386 3B65     		str	r3, [r7, #80]
1357:Lib/AI_Runtime/Npu/ll_aton/ll_aton.c ****       temp = CBp[i + 4] | (CBp[i + 5] << 8) | (CBp[i + 6] << 16);
 5634              		.loc 1 1357 17
 5635 0388 7B6D     		ldr	r3, [r7, #84]
 5636 038a 0433     		adds	r3, r3, #4
 5637 038c 7A69     		ldr	r2, [r7, #20]
 5638 038e 1344     		add	r3, r3, r2
 5639 0390 1B78     		ldrb	r3, [r3]	@ zero_extendqisi2
 5640 0392 1946     		mov	r1, r3
 5641              		.loc 1 1357 31
 5642 0394 7B6D     		ldr	r3, [r7, #84]
 5643 0396 0533     		adds	r3, r3, #5
 5644 0398 7A69     		ldr	r2, [r7, #20]
 5645 039a 1344     		add	r3, r3, r2
 5646 039c 1B78     		ldrb	r3, [r3]	@ zero_extendqisi2
 5647              		.loc 1 1357 39
 5648 039e 1B02     		lsls	r3, r3, #8
 5649              		.loc 1 1357 25
 5650 03a0 41EA0302 		orr	r2, r1, r3
 5651              		.loc 1 1357 51
 5652 03a4 7B6D     		ldr	r3, [r7, #84]
 5653 03a6 0633     		adds	r3, r3, #6
 5654 03a8 7969     		ldr	r1, [r7, #20]
 5655 03aa 0B44     		add	r3, r3, r1
 5656 03ac 1B78     		ldrb	r3, [r3]	@ zero_extendqisi2
 5657              		.loc 1 1357 59
 5658 03ae 1B04     		lsls	r3, r3, #16
 5659              		.loc 1 1357 45
 5660 03b0 1343     		orrs	r3, r3, r2
 5661              		.loc 1 1357 12
 5662 03b2 3B61     		str	r3, [r7, #16]
ARM GAS  /tmp/ccxZaNgH.s 			page 136


1358:Lib/AI_Runtime/Npu/ll_aton/ll_aton.c ****       ATON_DECUN_MEM_LOW_SET(id, k, temp);
 5663              		.loc 1 1358 7
 5664 03b4 FB68     		ldr	r3, [r7, #12]
 5665 03b6 5A02     		lsls	r2, r3, #9
 5666 03b8 3B6D     		ldr	r3, [r7, #80]
 5667 03ba 1A44     		add	r2, r2, r3
 5668 03bc 0F4B     		ldr	r3, .L330
 5669 03be 1344     		add	r3, r3, r2
 5670 03c0 DB00     		lsls	r3, r3, #3
 5671 03c2 1A46     		mov	r2, r3
 5672 03c4 3B69     		ldr	r3, [r7, #16]
 5673 03c6 1360     		str	r3, [r2]
1359:Lib/AI_Runtime/Npu/ll_aton/ll_aton.c ****       k++;
 5674              		.loc 1 1359 8
 5675 03c8 3B6D     		ldr	r3, [r7, #80]
 5676 03ca 0133     		adds	r3, r3, #1
 5677 03cc 3B65     		str	r3, [r7, #80]
1360:Lib/AI_Runtime/Npu/ll_aton/ll_aton.c ****       if (k == mem_idx_num)
 5678              		.loc 1 1360 10
 5679 03ce 3A6D     		ldr	r2, [r7, #80]
 5680 03d0 BB6C     		ldr	r3, [r7, #72]
 5681 03d2 9A42     		cmp	r2, r3
 5682 03d4 06D1     		bne	.L325
1361:Lib/AI_Runtime/Npu/ll_aton/ll_aton.c ****       {
1362:Lib/AI_Runtime/Npu/ll_aton/ll_aton.c ****         ctrl_val = decun_inc_page_addr(id, ctrl_val);
 5683              		.loc 1 1362 20
 5684 03d6 7968     		ldr	r1, [r7, #4]
 5685 03d8 F868     		ldr	r0, [r7, #12]
 5686 03da FFF7FEFF 		bl	decun_inc_page_addr
 5687 03de 7860     		str	r0, [r7, #4]
1363:Lib/AI_Runtime/Npu/ll_aton/ll_aton.c ****         k = 0;
 5688              		.loc 1 1363 11
 5689 03e0 0023     		movs	r3, #0
 5690 03e2 3B65     		str	r3, [r7, #80]
 5691              	.L325:
 5692              	.LBE23:
1352:Lib/AI_Runtime/Npu/ll_aton/ll_aton.c ****     {
 5693              		.loc 1 1352 38 discriminator 2
 5694 03e4 7B6D     		ldr	r3, [r7, #84]
 5695 03e6 0733     		adds	r3, r3, #7
 5696 03e8 7B65     		str	r3, [r7, #84]
 5697              	.L324:
1352:Lib/AI_Runtime/Npu/ll_aton/ll_aton.c ****     {
 5698              		.loc 1 1352 26 discriminator 1
 5699 03ea 7A6D     		ldr	r2, [r7, #84]
 5700 03ec FB6C     		ldr	r3, [r7, #76]
 5701 03ee 9A42     		cmp	r2, r3
 5702 03f0 A1D3     		bcc	.L326
 5703              	.L327:
 5704              	.LBE22:
1364:Lib/AI_Runtime/Npu/ll_aton/ll_aton.c ****       }
1365:Lib/AI_Runtime/Npu/ll_aton/ll_aton.c ****     }
1366:Lib/AI_Runtime/Npu/ll_aton/ll_aton.c ****   }
1367:Lib/AI_Runtime/Npu/ll_aton/ll_aton.c **** }
 5705              		.loc 1 1367 1
 5706 03f2 00BF     		nop
 5707 03f4 5837     		adds	r7, r7, #88
ARM GAS  /tmp/ccxZaNgH.s 			page 137


 5708              		.cfi_def_cfa_offset 8
 5709 03f6 BD46     		mov	sp, r7
 5710              		.cfi_def_cfa_register 13
 5711              		@ sp needed
 5712 03f8 80BD     		pop	{r7, pc}
 5713              	.L331:
 5714 03fa 00BF     		.align	2
 5715              	.L330:
 5716 03fc 00E7010B 		.word	184674048
 5717              		.cfi_endproc
 5718              	.LFE4841:
 5720              		.section	.text.LL_Decun_CB_2byte,"ax",%progbits
 5721              		.align	1
 5722              		.syntax unified
 5723              		.thumb
 5724              		.thumb_func
 5726              	LL_Decun_CB_2byte:
 5727              	.LFB4842:
1368:Lib/AI_Runtime/Npu/ll_aton/ll_aton.c **** 
1369:Lib/AI_Runtime/Npu/ll_aton/ll_aton.c **** static void LL_Decun_CB_2byte(int id, const LL_Decun_InitTypeDef *conf, uint32_t ctrl_val)
1370:Lib/AI_Runtime/Npu/ll_aton/ll_aton.c **** {
 5728              		.loc 1 1370 1
 5729              		.cfi_startproc
 5730              		@ args = 0, pretend = 0, frame = 96
 5731              		@ frame_needed = 1, uses_anonymous_args = 0
 5732 0000 80B5     		push	{r7, lr}
 5733              		.cfi_def_cfa_offset 8
 5734              		.cfi_offset 7, -8
 5735              		.cfi_offset 14, -4
 5736 0002 98B0     		sub	sp, sp, #96
 5737              		.cfi_def_cfa_offset 104
 5738 0004 00AF     		add	r7, sp, #0
 5739              		.cfi_def_cfa_register 7
 5740 0006 F860     		str	r0, [r7, #12]
 5741 0008 B960     		str	r1, [r7, #8]
 5742 000a 7A60     		str	r2, [r7, #4]
1371:Lib/AI_Runtime/Npu/ll_aton/ll_aton.c ****   unsigned CBsize = conf->CBs_size / 2;
 5743              		.loc 1 1371 25
 5744 000c BB68     		ldr	r3, [r7, #8]
 5745 000e 1B69     		ldr	r3, [r3, #16]
 5746              		.loc 1 1371 12
 5747 0010 5B08     		lsrs	r3, r3, #1
 5748 0012 7B65     		str	r3, [r7, #84]
1372:Lib/AI_Runtime/Npu/ll_aton/ll_aton.c ****   unsigned i, k;
1373:Lib/AI_Runtime/Npu/ll_aton/ll_aton.c ****   unsigned mem_idx_num = ATON_DECUN_MEM_LOW_IDX_MAX - ATON_DECUN_MEM_LOW_IDX_MIN + 1;
 5749              		.loc 1 1373 12
 5750 0014 4FF48073 		mov	r3, #256
 5751 0018 3B65     		str	r3, [r7, #80]
1374:Lib/AI_Runtime/Npu/ll_aton/ll_aton.c **** 
1375:Lib/AI_Runtime/Npu/ll_aton/ll_aton.c ****   if (conf->nCWperCV == 1)
 5752              		.loc 1 1375 11
 5753 001a BB68     		ldr	r3, [r7, #8]
 5754 001c 9B78     		ldrb	r3, [r3, #2]	@ zero_extendqisi2
 5755              		.loc 1 1375 6
 5756 001e 012B     		cmp	r3, #1
 5757 0020 2CD1     		bne	.L333
 5758              	.LBB24:
ARM GAS  /tmp/ccxZaNgH.s 			page 138


1376:Lib/AI_Runtime/Npu/ll_aton/ll_aton.c ****   {
1377:Lib/AI_Runtime/Npu/ll_aton/ll_aton.c ****     uint16_t *CBp = (uint16_t *)conf->CBs_vector.p;
 5759              		.loc 1 1377 15
 5760 0022 BB68     		ldr	r3, [r7, #8]
 5761 0024 DB68     		ldr	r3, [r3, #12]
 5762 0026 FB64     		str	r3, [r7, #76]
1378:Lib/AI_Runtime/Npu/ll_aton/ll_aton.c ****     for (i = 0, k = 0; i < CBsize; i++)
 5763              		.loc 1 1378 12
 5764 0028 0023     		movs	r3, #0
 5765 002a FB65     		str	r3, [r7, #92]
 5766              		.loc 1 1378 19
 5767 002c 0023     		movs	r3, #0
 5768 002e BB65     		str	r3, [r7, #88]
 5769              		.loc 1 1378 5
 5770 0030 20E0     		b	.L334
 5771              	.L336:
 5772              	.LBB25:
1379:Lib/AI_Runtime/Npu/ll_aton/ll_aton.c ****     {
1380:Lib/AI_Runtime/Npu/ll_aton/ll_aton.c ****       uint32_t temp = CBp[i];
 5773              		.loc 1 1380 26
 5774 0032 FB6D     		ldr	r3, [r7, #92]
 5775 0034 5B00     		lsls	r3, r3, #1
 5776 0036 FA6C     		ldr	r2, [r7, #76]
 5777 0038 1344     		add	r3, r3, r2
 5778 003a 1B88     		ldrh	r3, [r3]
 5779              		.loc 1 1380 16
 5780 003c BB64     		str	r3, [r7, #72]
1381:Lib/AI_Runtime/Npu/ll_aton/ll_aton.c ****       ATON_DECUN_MEM_LOW_SET(id, k, temp);
 5781              		.loc 1 1381 7
 5782 003e FB68     		ldr	r3, [r7, #12]
 5783 0040 5A02     		lsls	r2, r3, #9
 5784 0042 BB6D     		ldr	r3, [r7, #88]
 5785 0044 1A44     		add	r2, r2, r3
 5786 0046 734B     		ldr	r3, .L366
 5787 0048 1344     		add	r3, r3, r2
 5788 004a DB00     		lsls	r3, r3, #3
 5789 004c 1A46     		mov	r2, r3
 5790 004e BB6C     		ldr	r3, [r7, #72]
 5791 0050 1360     		str	r3, [r2]
1382:Lib/AI_Runtime/Npu/ll_aton/ll_aton.c ****       k++;
 5792              		.loc 1 1382 8
 5793 0052 BB6D     		ldr	r3, [r7, #88]
 5794 0054 0133     		adds	r3, r3, #1
 5795 0056 BB65     		str	r3, [r7, #88]
1383:Lib/AI_Runtime/Npu/ll_aton/ll_aton.c ****       if (k == mem_idx_num)
 5796              		.loc 1 1383 10
 5797 0058 BA6D     		ldr	r2, [r7, #88]
 5798 005a 3B6D     		ldr	r3, [r7, #80]
 5799 005c 9A42     		cmp	r2, r3
 5800 005e 06D1     		bne	.L335
1384:Lib/AI_Runtime/Npu/ll_aton/ll_aton.c ****       {
1385:Lib/AI_Runtime/Npu/ll_aton/ll_aton.c ****         ctrl_val = decun_inc_page_addr(id, ctrl_val);
 5801              		.loc 1 1385 20
 5802 0060 7968     		ldr	r1, [r7, #4]
 5803 0062 F868     		ldr	r0, [r7, #12]
 5804 0064 FFF7FEFF 		bl	decun_inc_page_addr
 5805 0068 7860     		str	r0, [r7, #4]
ARM GAS  /tmp/ccxZaNgH.s 			page 139


1386:Lib/AI_Runtime/Npu/ll_aton/ll_aton.c ****         k = 0;
 5806              		.loc 1 1386 11
 5807 006a 0023     		movs	r3, #0
 5808 006c BB65     		str	r3, [r7, #88]
 5809              	.L335:
 5810              	.LBE25:
1378:Lib/AI_Runtime/Npu/ll_aton/ll_aton.c ****     {
 5811              		.loc 1 1378 37 discriminator 2
 5812 006e FB6D     		ldr	r3, [r7, #92]
 5813 0070 0133     		adds	r3, r3, #1
 5814 0072 FB65     		str	r3, [r7, #92]
 5815              	.L334:
1378:Lib/AI_Runtime/Npu/ll_aton/ll_aton.c ****     {
 5816              		.loc 1 1378 26 discriminator 1
 5817 0074 FA6D     		ldr	r2, [r7, #92]
 5818 0076 7B6D     		ldr	r3, [r7, #84]
 5819 0078 9A42     		cmp	r2, r3
 5820 007a DAD3     		bcc	.L336
 5821              	.L333:
 5822              	.LBE24:
1387:Lib/AI_Runtime/Npu/ll_aton/ll_aton.c ****       }
1388:Lib/AI_Runtime/Npu/ll_aton/ll_aton.c ****     }
1389:Lib/AI_Runtime/Npu/ll_aton/ll_aton.c ****   }
1390:Lib/AI_Runtime/Npu/ll_aton/ll_aton.c ****   if (conf->nCWperCV == 2)
 5823              		.loc 1 1390 11
 5824 007c BB68     		ldr	r3, [r7, #8]
 5825 007e 9B78     		ldrb	r3, [r3, #2]	@ zero_extendqisi2
 5826              		.loc 1 1390 6
 5827 0080 022B     		cmp	r3, #2
 5828 0082 2DD1     		bne	.L337
 5829              	.LBB26:
1391:Lib/AI_Runtime/Npu/ll_aton/ll_aton.c ****   {
1392:Lib/AI_Runtime/Npu/ll_aton/ll_aton.c **** #if 0
1393:Lib/AI_Runtime/Npu/ll_aton/ll_aton.c ****     uint16_t *CBp = (uint16_t *)conf->CBs_vector.p;
1394:Lib/AI_Runtime/Npu/ll_aton/ll_aton.c ****     for (i = 0, k = 0; i < CBsize; i += 2)
1395:Lib/AI_Runtime/Npu/ll_aton/ll_aton.c ****     {
1396:Lib/AI_Runtime/Npu/ll_aton/ll_aton.c ****       uint32_t temp = CBp[i] | (CBp[i + 1] << 16);
1397:Lib/AI_Runtime/Npu/ll_aton/ll_aton.c ****       ATON_DECUN_MEM_LOW_SET(id, k, temp);
1398:Lib/AI_Runtime/Npu/ll_aton/ll_aton.c ****       k++;
1399:Lib/AI_Runtime/Npu/ll_aton/ll_aton.c ****       if (k == mem_idx_num )
1400:Lib/AI_Runtime/Npu/ll_aton/ll_aton.c ****       {
1401:Lib/AI_Runtime/Npu/ll_aton/ll_aton.c ****         ctrl_val = decun_inc_page_addr(id, ctrl_val);
1402:Lib/AI_Runtime/Npu/ll_aton/ll_aton.c ****         k = 0;
1403:Lib/AI_Runtime/Npu/ll_aton/ll_aton.c ****       }
1404:Lib/AI_Runtime/Npu/ll_aton/ll_aton.c ****     }
1405:Lib/AI_Runtime/Npu/ll_aton/ll_aton.c **** #else
1406:Lib/AI_Runtime/Npu/ll_aton/ll_aton.c ****     uint32_t *CBp = (uint32_t *)conf->CBs_vector.p;
 5830              		.loc 1 1406 15
 5831 0084 BB68     		ldr	r3, [r7, #8]
 5832 0086 DB68     		ldr	r3, [r3, #12]
 5833 0088 7B64     		str	r3, [r7, #68]
1407:Lib/AI_Runtime/Npu/ll_aton/ll_aton.c ****     for (i = 0, k = 0; i < CBsize / 2; i++)
 5834              		.loc 1 1407 12
 5835 008a 0023     		movs	r3, #0
 5836 008c FB65     		str	r3, [r7, #92]
 5837              		.loc 1 1407 19
 5838 008e 0023     		movs	r3, #0
ARM GAS  /tmp/ccxZaNgH.s 			page 140


 5839 0090 BB65     		str	r3, [r7, #88]
 5840              		.loc 1 1407 5
 5841 0092 20E0     		b	.L338
 5842              	.L340:
 5843              	.LBB27:
1408:Lib/AI_Runtime/Npu/ll_aton/ll_aton.c ****     {
1409:Lib/AI_Runtime/Npu/ll_aton/ll_aton.c ****       uint32_t temp = CBp[i];
 5844              		.loc 1 1409 26
 5845 0094 FB6D     		ldr	r3, [r7, #92]
 5846 0096 9B00     		lsls	r3, r3, #2
 5847 0098 7A6C     		ldr	r2, [r7, #68]
 5848 009a 1344     		add	r3, r3, r2
 5849              		.loc 1 1409 16
 5850 009c 1B68     		ldr	r3, [r3]
 5851 009e 3B64     		str	r3, [r7, #64]
1410:Lib/AI_Runtime/Npu/ll_aton/ll_aton.c ****       ATON_DECUN_MEM_LOW_SET(id, k, temp);
 5852              		.loc 1 1410 7
 5853 00a0 FB68     		ldr	r3, [r7, #12]
 5854 00a2 5A02     		lsls	r2, r3, #9
 5855 00a4 BB6D     		ldr	r3, [r7, #88]
 5856 00a6 1A44     		add	r2, r2, r3
 5857 00a8 5A4B     		ldr	r3, .L366
 5858 00aa 1344     		add	r3, r3, r2
 5859 00ac DB00     		lsls	r3, r3, #3
 5860 00ae 1A46     		mov	r2, r3
 5861 00b0 3B6C     		ldr	r3, [r7, #64]
 5862 00b2 1360     		str	r3, [r2]
1411:Lib/AI_Runtime/Npu/ll_aton/ll_aton.c ****       k++;
 5863              		.loc 1 1411 8
 5864 00b4 BB6D     		ldr	r3, [r7, #88]
 5865 00b6 0133     		adds	r3, r3, #1
 5866 00b8 BB65     		str	r3, [r7, #88]
1412:Lib/AI_Runtime/Npu/ll_aton/ll_aton.c ****       if (k == mem_idx_num)
 5867              		.loc 1 1412 10
 5868 00ba BA6D     		ldr	r2, [r7, #88]
 5869 00bc 3B6D     		ldr	r3, [r7, #80]
 5870 00be 9A42     		cmp	r2, r3
 5871 00c0 06D1     		bne	.L339
1413:Lib/AI_Runtime/Npu/ll_aton/ll_aton.c ****       {
1414:Lib/AI_Runtime/Npu/ll_aton/ll_aton.c ****         ctrl_val = decun_inc_page_addr(id, ctrl_val);
 5872              		.loc 1 1414 20
 5873 00c2 7968     		ldr	r1, [r7, #4]
 5874 00c4 F868     		ldr	r0, [r7, #12]
 5875 00c6 FFF7FEFF 		bl	decun_inc_page_addr
 5876 00ca 7860     		str	r0, [r7, #4]
1415:Lib/AI_Runtime/Npu/ll_aton/ll_aton.c ****         k = 0;
 5877              		.loc 1 1415 11
 5878 00cc 0023     		movs	r3, #0
 5879 00ce BB65     		str	r3, [r7, #88]
 5880              	.L339:
 5881              	.LBE27:
1407:Lib/AI_Runtime/Npu/ll_aton/ll_aton.c ****     {
 5882              		.loc 1 1407 41 discriminator 2
 5883 00d0 FB6D     		ldr	r3, [r7, #92]
 5884 00d2 0133     		adds	r3, r3, #1
 5885 00d4 FB65     		str	r3, [r7, #92]
 5886              	.L338:
ARM GAS  /tmp/ccxZaNgH.s 			page 141


1407:Lib/AI_Runtime/Npu/ll_aton/ll_aton.c ****     {
 5887              		.loc 1 1407 35 discriminator 1
 5888 00d6 7B6D     		ldr	r3, [r7, #84]
 5889 00d8 5B08     		lsrs	r3, r3, #1
1407:Lib/AI_Runtime/Npu/ll_aton/ll_aton.c ****     {
 5890              		.loc 1 1407 26 discriminator 1
 5891 00da FA6D     		ldr	r2, [r7, #92]
 5892 00dc 9A42     		cmp	r2, r3
 5893 00de D9D3     		bcc	.L340
 5894              	.L337:
 5895              	.LBE26:
1416:Lib/AI_Runtime/Npu/ll_aton/ll_aton.c ****       }
1417:Lib/AI_Runtime/Npu/ll_aton/ll_aton.c ****     }
1418:Lib/AI_Runtime/Npu/ll_aton/ll_aton.c **** #endif
1419:Lib/AI_Runtime/Npu/ll_aton/ll_aton.c ****   }
1420:Lib/AI_Runtime/Npu/ll_aton/ll_aton.c ****   if (conf->nCWperCV == 3)
 5896              		.loc 1 1420 11
 5897 00e0 BB68     		ldr	r3, [r7, #8]
 5898 00e2 9B78     		ldrb	r3, [r3, #2]	@ zero_extendqisi2
 5899              		.loc 1 1420 6
 5900 00e4 032B     		cmp	r3, #3
 5901 00e6 46D1     		bne	.L341
 5902              	.LBB28:
1421:Lib/AI_Runtime/Npu/ll_aton/ll_aton.c ****   {
1422:Lib/AI_Runtime/Npu/ll_aton/ll_aton.c ****     uint16_t *CBp = (uint16_t *)conf->CBs_vector.p;
 5903              		.loc 1 1422 15
 5904 00e8 BB68     		ldr	r3, [r7, #8]
 5905 00ea DB68     		ldr	r3, [r3, #12]
 5906 00ec FB63     		str	r3, [r7, #60]
1423:Lib/AI_Runtime/Npu/ll_aton/ll_aton.c ****     for (i = 0, k = 0; i < CBsize; i += 3)
 5907              		.loc 1 1423 12
 5908 00ee 0023     		movs	r3, #0
 5909 00f0 FB65     		str	r3, [r7, #92]
 5910              		.loc 1 1423 19
 5911 00f2 0023     		movs	r3, #0
 5912 00f4 BB65     		str	r3, [r7, #88]
 5913              		.loc 1 1423 5
 5914 00f6 3AE0     		b	.L342
 5915              	.L344:
 5916              	.LBB29:
1424:Lib/AI_Runtime/Npu/ll_aton/ll_aton.c ****     {
1425:Lib/AI_Runtime/Npu/ll_aton/ll_aton.c ****       uint32_t temp = CBp[i] | (CBp[i + 1] << 16);
 5917              		.loc 1 1425 26
 5918 00f8 FB6D     		ldr	r3, [r7, #92]
 5919 00fa 5B00     		lsls	r3, r3, #1
 5920 00fc FA6B     		ldr	r2, [r7, #60]
 5921 00fe 1344     		add	r3, r3, r2
 5922 0100 1B88     		ldrh	r3, [r3]
 5923 0102 1946     		mov	r1, r3
 5924              		.loc 1 1425 36
 5925 0104 FB6D     		ldr	r3, [r7, #92]
 5926 0106 0133     		adds	r3, r3, #1
 5927 0108 5B00     		lsls	r3, r3, #1
 5928 010a FA6B     		ldr	r2, [r7, #60]
 5929 010c 1344     		add	r3, r3, r2
 5930 010e 1B88     		ldrh	r3, [r3]
 5931              		.loc 1 1425 44
ARM GAS  /tmp/ccxZaNgH.s 			page 142


 5932 0110 1B04     		lsls	r3, r3, #16
 5933              		.loc 1 1425 30
 5934 0112 0B43     		orrs	r3, r3, r1
 5935              		.loc 1 1425 16
 5936 0114 BB63     		str	r3, [r7, #56]
1426:Lib/AI_Runtime/Npu/ll_aton/ll_aton.c ****       ATON_DECUN_MEM_LOW_SET(id, k, temp);
 5937              		.loc 1 1426 7
 5938 0116 FB68     		ldr	r3, [r7, #12]
 5939 0118 5A02     		lsls	r2, r3, #9
 5940 011a BB6D     		ldr	r3, [r7, #88]
 5941 011c 1A44     		add	r2, r2, r3
 5942 011e 3D4B     		ldr	r3, .L366
 5943 0120 1344     		add	r3, r3, r2
 5944 0122 DB00     		lsls	r3, r3, #3
 5945 0124 1A46     		mov	r2, r3
 5946 0126 BB6B     		ldr	r3, [r7, #56]
 5947 0128 1360     		str	r3, [r2]
1427:Lib/AI_Runtime/Npu/ll_aton/ll_aton.c ****       temp = CBp[i + 2];
 5948              		.loc 1 1427 17
 5949 012a FB6D     		ldr	r3, [r7, #92]
 5950 012c 0233     		adds	r3, r3, #2
 5951 012e 5B00     		lsls	r3, r3, #1
 5952 0130 FA6B     		ldr	r2, [r7, #60]
 5953 0132 1344     		add	r3, r3, r2
 5954 0134 1B88     		ldrh	r3, [r3]
 5955              		.loc 1 1427 12
 5956 0136 BB63     		str	r3, [r7, #56]
1428:Lib/AI_Runtime/Npu/ll_aton/ll_aton.c ****       ATON_DECUN_MEM_HIGH_SET(id, k, temp);
 5957              		.loc 1 1428 7
 5958 0138 FB68     		ldr	r3, [r7, #12]
 5959 013a 5A02     		lsls	r2, r3, #9
 5960 013c BB6D     		ldr	r3, [r7, #88]
 5961 013e 1344     		add	r3, r3, r2
 5962 0140 DA00     		lsls	r2, r3, #3
 5963 0142 354B     		ldr	r3, .L366+4
 5964 0144 1344     		add	r3, r3, r2
 5965 0146 1A46     		mov	r2, r3
 5966 0148 BB6B     		ldr	r3, [r7, #56]
 5967 014a 1360     		str	r3, [r2]
1429:Lib/AI_Runtime/Npu/ll_aton/ll_aton.c ****       k++;
 5968              		.loc 1 1429 8
 5969 014c BB6D     		ldr	r3, [r7, #88]
 5970 014e 0133     		adds	r3, r3, #1
 5971 0150 BB65     		str	r3, [r7, #88]
1430:Lib/AI_Runtime/Npu/ll_aton/ll_aton.c ****       if (k == mem_idx_num)
 5972              		.loc 1 1430 10
 5973 0152 BA6D     		ldr	r2, [r7, #88]
 5974 0154 3B6D     		ldr	r3, [r7, #80]
 5975 0156 9A42     		cmp	r2, r3
 5976 0158 06D1     		bne	.L343
1431:Lib/AI_Runtime/Npu/ll_aton/ll_aton.c ****       {
1432:Lib/AI_Runtime/Npu/ll_aton/ll_aton.c ****         ctrl_val = decun_inc_page_addr(id, ctrl_val);
 5977              		.loc 1 1432 20
 5978 015a 7968     		ldr	r1, [r7, #4]
 5979 015c F868     		ldr	r0, [r7, #12]
 5980 015e FFF7FEFF 		bl	decun_inc_page_addr
 5981 0162 7860     		str	r0, [r7, #4]
ARM GAS  /tmp/ccxZaNgH.s 			page 143


1433:Lib/AI_Runtime/Npu/ll_aton/ll_aton.c ****         k = 0;
 5982              		.loc 1 1433 11
 5983 0164 0023     		movs	r3, #0
 5984 0166 BB65     		str	r3, [r7, #88]
 5985              	.L343:
 5986              	.LBE29:
1423:Lib/AI_Runtime/Npu/ll_aton/ll_aton.c ****     {
 5987              		.loc 1 1423 38 discriminator 2
 5988 0168 FB6D     		ldr	r3, [r7, #92]
 5989 016a 0333     		adds	r3, r3, #3
 5990 016c FB65     		str	r3, [r7, #92]
 5991              	.L342:
1423:Lib/AI_Runtime/Npu/ll_aton/ll_aton.c ****     {
 5992              		.loc 1 1423 26 discriminator 1
 5993 016e FA6D     		ldr	r2, [r7, #92]
 5994 0170 7B6D     		ldr	r3, [r7, #84]
 5995 0172 9A42     		cmp	r2, r3
 5996 0174 C0D3     		bcc	.L344
 5997              	.L341:
 5998              	.LBE28:
1434:Lib/AI_Runtime/Npu/ll_aton/ll_aton.c ****       }
1435:Lib/AI_Runtime/Npu/ll_aton/ll_aton.c ****     }
1436:Lib/AI_Runtime/Npu/ll_aton/ll_aton.c ****   }
1437:Lib/AI_Runtime/Npu/ll_aton/ll_aton.c ****   if (conf->nCWperCV == 4)
 5999              		.loc 1 1437 11
 6000 0176 BB68     		ldr	r3, [r7, #8]
 6001 0178 9B78     		ldrb	r3, [r3, #2]	@ zero_extendqisi2
 6002              		.loc 1 1437 6
 6003 017a 042B     		cmp	r3, #4
 6004 017c 3ED1     		bne	.L345
 6005              	.LBB30:
1438:Lib/AI_Runtime/Npu/ll_aton/ll_aton.c ****   {
1439:Lib/AI_Runtime/Npu/ll_aton/ll_aton.c ****     uint32_t *CBp = (uint32_t *)conf->CBs_vector.p;
 6006              		.loc 1 1439 15
 6007 017e BB68     		ldr	r3, [r7, #8]
 6008 0180 DB68     		ldr	r3, [r3, #12]
 6009 0182 7B63     		str	r3, [r7, #52]
1440:Lib/AI_Runtime/Npu/ll_aton/ll_aton.c ****     for (i = 0, k = 0; i < CBsize / 2; i += 2)
 6010              		.loc 1 1440 12
 6011 0184 0023     		movs	r3, #0
 6012 0186 FB65     		str	r3, [r7, #92]
 6013              		.loc 1 1440 19
 6014 0188 0023     		movs	r3, #0
 6015 018a BB65     		str	r3, [r7, #88]
 6016              		.loc 1 1440 5
 6017 018c 31E0     		b	.L346
 6018              	.L348:
 6019              	.LBB31:
1441:Lib/AI_Runtime/Npu/ll_aton/ll_aton.c ****     {
1442:Lib/AI_Runtime/Npu/ll_aton/ll_aton.c ****       uint32_t temp = CBp[i];
 6020              		.loc 1 1442 26
 6021 018e FB6D     		ldr	r3, [r7, #92]
 6022 0190 9B00     		lsls	r3, r3, #2
 6023 0192 7A6B     		ldr	r2, [r7, #52]
 6024 0194 1344     		add	r3, r3, r2
 6025              		.loc 1 1442 16
 6026 0196 1B68     		ldr	r3, [r3]
ARM GAS  /tmp/ccxZaNgH.s 			page 144


 6027 0198 3B63     		str	r3, [r7, #48]
1443:Lib/AI_Runtime/Npu/ll_aton/ll_aton.c ****       ATON_DECUN_MEM_LOW_SET(id, k, temp);
 6028              		.loc 1 1443 7
 6029 019a FB68     		ldr	r3, [r7, #12]
 6030 019c 5A02     		lsls	r2, r3, #9
 6031 019e BB6D     		ldr	r3, [r7, #88]
 6032 01a0 1A44     		add	r2, r2, r3
 6033 01a2 1C4B     		ldr	r3, .L366
 6034 01a4 1344     		add	r3, r3, r2
 6035 01a6 DB00     		lsls	r3, r3, #3
 6036 01a8 1A46     		mov	r2, r3
 6037 01aa 3B6B     		ldr	r3, [r7, #48]
 6038 01ac 1360     		str	r3, [r2]
1444:Lib/AI_Runtime/Npu/ll_aton/ll_aton.c ****       temp = CBp[i + 1];
 6039              		.loc 1 1444 17
 6040 01ae FB6D     		ldr	r3, [r7, #92]
 6041 01b0 0133     		adds	r3, r3, #1
 6042 01b2 9B00     		lsls	r3, r3, #2
 6043 01b4 7A6B     		ldr	r2, [r7, #52]
 6044 01b6 1344     		add	r3, r3, r2
 6045              		.loc 1 1444 12
 6046 01b8 1B68     		ldr	r3, [r3]
 6047 01ba 3B63     		str	r3, [r7, #48]
1445:Lib/AI_Runtime/Npu/ll_aton/ll_aton.c ****       ATON_DECUN_MEM_HIGH_SET(id, k, temp);
 6048              		.loc 1 1445 7
 6049 01bc FB68     		ldr	r3, [r7, #12]
 6050 01be 5A02     		lsls	r2, r3, #9
 6051 01c0 BB6D     		ldr	r3, [r7, #88]
 6052 01c2 1344     		add	r3, r3, r2
 6053 01c4 DA00     		lsls	r2, r3, #3
 6054 01c6 144B     		ldr	r3, .L366+4
 6055 01c8 1344     		add	r3, r3, r2
 6056 01ca 1A46     		mov	r2, r3
 6057 01cc 3B6B     		ldr	r3, [r7, #48]
 6058 01ce 1360     		str	r3, [r2]
1446:Lib/AI_Runtime/Npu/ll_aton/ll_aton.c ****       k++;
 6059              		.loc 1 1446 8
 6060 01d0 BB6D     		ldr	r3, [r7, #88]
 6061 01d2 0133     		adds	r3, r3, #1
 6062 01d4 BB65     		str	r3, [r7, #88]
1447:Lib/AI_Runtime/Npu/ll_aton/ll_aton.c ****       if (k == mem_idx_num)
 6063              		.loc 1 1447 10
 6064 01d6 BA6D     		ldr	r2, [r7, #88]
 6065 01d8 3B6D     		ldr	r3, [r7, #80]
 6066 01da 9A42     		cmp	r2, r3
 6067 01dc 06D1     		bne	.L347
1448:Lib/AI_Runtime/Npu/ll_aton/ll_aton.c ****       {
1449:Lib/AI_Runtime/Npu/ll_aton/ll_aton.c ****         ctrl_val = decun_inc_page_addr(id, ctrl_val);
 6068              		.loc 1 1449 20
 6069 01de 7968     		ldr	r1, [r7, #4]
 6070 01e0 F868     		ldr	r0, [r7, #12]
 6071 01e2 FFF7FEFF 		bl	decun_inc_page_addr
 6072 01e6 7860     		str	r0, [r7, #4]
1450:Lib/AI_Runtime/Npu/ll_aton/ll_aton.c ****         k = 0;
 6073              		.loc 1 1450 11
 6074 01e8 0023     		movs	r3, #0
 6075 01ea BB65     		str	r3, [r7, #88]
ARM GAS  /tmp/ccxZaNgH.s 			page 145


 6076              	.L347:
 6077              	.LBE31:
1440:Lib/AI_Runtime/Npu/ll_aton/ll_aton.c ****     {
 6078              		.loc 1 1440 42 discriminator 2
 6079 01ec FB6D     		ldr	r3, [r7, #92]
 6080 01ee 0233     		adds	r3, r3, #2
 6081 01f0 FB65     		str	r3, [r7, #92]
 6082              	.L346:
1440:Lib/AI_Runtime/Npu/ll_aton/ll_aton.c ****     {
 6083              		.loc 1 1440 35 discriminator 1
 6084 01f2 7B6D     		ldr	r3, [r7, #84]
 6085 01f4 5B08     		lsrs	r3, r3, #1
1440:Lib/AI_Runtime/Npu/ll_aton/ll_aton.c ****     {
 6086              		.loc 1 1440 26 discriminator 1
 6087 01f6 FA6D     		ldr	r2, [r7, #92]
 6088 01f8 9A42     		cmp	r2, r3
 6089 01fa C8D3     		bcc	.L348
 6090              	.L345:
 6091              	.LBE30:
1451:Lib/AI_Runtime/Npu/ll_aton/ll_aton.c ****       }
1452:Lib/AI_Runtime/Npu/ll_aton/ll_aton.c ****     }
1453:Lib/AI_Runtime/Npu/ll_aton/ll_aton.c ****   }
1454:Lib/AI_Runtime/Npu/ll_aton/ll_aton.c ****   if (conf->nCWperCV == 5)
 6092              		.loc 1 1454 11
 6093 01fc BB68     		ldr	r3, [r7, #8]
 6094 01fe 9B78     		ldrb	r3, [r3, #2]	@ zero_extendqisi2
 6095              		.loc 1 1454 6
 6096 0200 052B     		cmp	r3, #5
 6097 0202 67D1     		bne	.L349
 6098              	.LBB32:
1455:Lib/AI_Runtime/Npu/ll_aton/ll_aton.c ****   {
1456:Lib/AI_Runtime/Npu/ll_aton/ll_aton.c ****     uint16_t *CBp = (uint16_t *)conf->CBs_vector.p;
 6099              		.loc 1 1456 15
 6100 0204 BB68     		ldr	r3, [r7, #8]
 6101 0206 DB68     		ldr	r3, [r3, #12]
 6102 0208 FB62     		str	r3, [r7, #44]
1457:Lib/AI_Runtime/Npu/ll_aton/ll_aton.c ****     for (i = 0, k = 0; i < CBsize; i += 5)
 6103              		.loc 1 1457 12
 6104 020a 0023     		movs	r3, #0
 6105 020c FB65     		str	r3, [r7, #92]
 6106              		.loc 1 1457 19
 6107 020e 0023     		movs	r3, #0
 6108 0210 BB65     		str	r3, [r7, #88]
 6109              		.loc 1 1457 5
 6110 0212 5BE0     		b	.L350
 6111              	.L367:
 6112              		.align	2
 6113              	.L366:
 6114 0214 00E7010B 		.word	184674048
 6115 0218 04380F58 		.word	1477392388
 6116              	.L352:
 6117              	.LBB33:
1458:Lib/AI_Runtime/Npu/ll_aton/ll_aton.c ****     {
1459:Lib/AI_Runtime/Npu/ll_aton/ll_aton.c ****       uint32_t temp = CBp[i] | (CBp[i + 1] << 16);
 6118              		.loc 1 1459 26
 6119 021c FB6D     		ldr	r3, [r7, #92]
 6120 021e 5B00     		lsls	r3, r3, #1
ARM GAS  /tmp/ccxZaNgH.s 			page 146


 6121 0220 FA6A     		ldr	r2, [r7, #44]
 6122 0222 1344     		add	r3, r3, r2
 6123 0224 1B88     		ldrh	r3, [r3]
 6124 0226 1946     		mov	r1, r3
 6125              		.loc 1 1459 36
 6126 0228 FB6D     		ldr	r3, [r7, #92]
 6127 022a 0133     		adds	r3, r3, #1
 6128 022c 5B00     		lsls	r3, r3, #1
 6129 022e FA6A     		ldr	r2, [r7, #44]
 6130 0230 1344     		add	r3, r3, r2
 6131 0232 1B88     		ldrh	r3, [r3]
 6132              		.loc 1 1459 44
 6133 0234 1B04     		lsls	r3, r3, #16
 6134              		.loc 1 1459 30
 6135 0236 0B43     		orrs	r3, r3, r1
 6136              		.loc 1 1459 16
 6137 0238 BB62     		str	r3, [r7, #40]
1460:Lib/AI_Runtime/Npu/ll_aton/ll_aton.c ****       ATON_DECUN_MEM_LOW_SET(id, k, temp);
 6138              		.loc 1 1460 7
 6139 023a FB68     		ldr	r3, [r7, #12]
 6140 023c 5A02     		lsls	r2, r3, #9
 6141 023e BB6D     		ldr	r3, [r7, #88]
 6142 0240 1A44     		add	r2, r2, r3
 6143 0242 974B     		ldr	r3, .L368
 6144 0244 1344     		add	r3, r3, r2
 6145 0246 DB00     		lsls	r3, r3, #3
 6146 0248 1A46     		mov	r2, r3
 6147 024a BB6A     		ldr	r3, [r7, #40]
 6148 024c 1360     		str	r3, [r2]
1461:Lib/AI_Runtime/Npu/ll_aton/ll_aton.c ****       temp = CBp[i + 2] | (CBp[i + 3] << 16);
 6149              		.loc 1 1461 17
 6150 024e FB6D     		ldr	r3, [r7, #92]
 6151 0250 0233     		adds	r3, r3, #2
 6152 0252 5B00     		lsls	r3, r3, #1
 6153 0254 FA6A     		ldr	r2, [r7, #44]
 6154 0256 1344     		add	r3, r3, r2
 6155 0258 1B88     		ldrh	r3, [r3]
 6156 025a 1946     		mov	r1, r3
 6157              		.loc 1 1461 31
 6158 025c FB6D     		ldr	r3, [r7, #92]
 6159 025e 0333     		adds	r3, r3, #3
 6160 0260 5B00     		lsls	r3, r3, #1
 6161 0262 FA6A     		ldr	r2, [r7, #44]
 6162 0264 1344     		add	r3, r3, r2
 6163 0266 1B88     		ldrh	r3, [r3]
 6164              		.loc 1 1461 39
 6165 0268 1B04     		lsls	r3, r3, #16
 6166              		.loc 1 1461 25
 6167 026a 0B43     		orrs	r3, r3, r1
 6168              		.loc 1 1461 12
 6169 026c BB62     		str	r3, [r7, #40]
1462:Lib/AI_Runtime/Npu/ll_aton/ll_aton.c ****       ATON_DECUN_MEM_HIGH_SET(id, k, temp);
 6170              		.loc 1 1462 7
 6171 026e FB68     		ldr	r3, [r7, #12]
 6172 0270 5A02     		lsls	r2, r3, #9
 6173 0272 BB6D     		ldr	r3, [r7, #88]
 6174 0274 1344     		add	r3, r3, r2
ARM GAS  /tmp/ccxZaNgH.s 			page 147


 6175 0276 DA00     		lsls	r2, r3, #3
 6176 0278 8A4B     		ldr	r3, .L368+4
 6177 027a 1344     		add	r3, r3, r2
 6178 027c 1A46     		mov	r2, r3
 6179 027e BB6A     		ldr	r3, [r7, #40]
 6180 0280 1360     		str	r3, [r2]
1463:Lib/AI_Runtime/Npu/ll_aton/ll_aton.c ****       k++;
 6181              		.loc 1 1463 8
 6182 0282 BB6D     		ldr	r3, [r7, #88]
 6183 0284 0133     		adds	r3, r3, #1
 6184 0286 BB65     		str	r3, [r7, #88]
1464:Lib/AI_Runtime/Npu/ll_aton/ll_aton.c ****       temp = CBp[i + 4];
 6185              		.loc 1 1464 17
 6186 0288 FB6D     		ldr	r3, [r7, #92]
 6187 028a 0433     		adds	r3, r3, #4
 6188 028c 5B00     		lsls	r3, r3, #1
 6189 028e FA6A     		ldr	r2, [r7, #44]
 6190 0290 1344     		add	r3, r3, r2
 6191 0292 1B88     		ldrh	r3, [r3]
 6192              		.loc 1 1464 12
 6193 0294 BB62     		str	r3, [r7, #40]
1465:Lib/AI_Runtime/Npu/ll_aton/ll_aton.c ****       ATON_DECUN_MEM_LOW_SET(id, k, temp);
 6194              		.loc 1 1465 7
 6195 0296 FB68     		ldr	r3, [r7, #12]
 6196 0298 5A02     		lsls	r2, r3, #9
 6197 029a BB6D     		ldr	r3, [r7, #88]
 6198 029c 1A44     		add	r2, r2, r3
 6199 029e 804B     		ldr	r3, .L368
 6200 02a0 1344     		add	r3, r3, r2
 6201 02a2 DB00     		lsls	r3, r3, #3
 6202 02a4 1A46     		mov	r2, r3
 6203 02a6 BB6A     		ldr	r3, [r7, #40]
 6204 02a8 1360     		str	r3, [r2]
1466:Lib/AI_Runtime/Npu/ll_aton/ll_aton.c ****       k++;
 6205              		.loc 1 1466 8
 6206 02aa BB6D     		ldr	r3, [r7, #88]
 6207 02ac 0133     		adds	r3, r3, #1
 6208 02ae BB65     		str	r3, [r7, #88]
1467:Lib/AI_Runtime/Npu/ll_aton/ll_aton.c ****       if (k == mem_idx_num)
 6209              		.loc 1 1467 10
 6210 02b0 BA6D     		ldr	r2, [r7, #88]
 6211 02b2 3B6D     		ldr	r3, [r7, #80]
 6212 02b4 9A42     		cmp	r2, r3
 6213 02b6 06D1     		bne	.L351
1468:Lib/AI_Runtime/Npu/ll_aton/ll_aton.c ****       {
1469:Lib/AI_Runtime/Npu/ll_aton/ll_aton.c ****         ctrl_val = decun_inc_page_addr(id, ctrl_val);
 6214              		.loc 1 1469 20
 6215 02b8 7968     		ldr	r1, [r7, #4]
 6216 02ba F868     		ldr	r0, [r7, #12]
 6217 02bc FFF7FEFF 		bl	decun_inc_page_addr
 6218 02c0 7860     		str	r0, [r7, #4]
1470:Lib/AI_Runtime/Npu/ll_aton/ll_aton.c ****         k = 0;
 6219              		.loc 1 1470 11
 6220 02c2 0023     		movs	r3, #0
 6221 02c4 BB65     		str	r3, [r7, #88]
 6222              	.L351:
 6223              	.LBE33:
ARM GAS  /tmp/ccxZaNgH.s 			page 148


1457:Lib/AI_Runtime/Npu/ll_aton/ll_aton.c ****     {
 6224              		.loc 1 1457 38 discriminator 2
 6225 02c6 FB6D     		ldr	r3, [r7, #92]
 6226 02c8 0533     		adds	r3, r3, #5
 6227 02ca FB65     		str	r3, [r7, #92]
 6228              	.L350:
1457:Lib/AI_Runtime/Npu/ll_aton/ll_aton.c ****     {
 6229              		.loc 1 1457 26 discriminator 1
 6230 02cc FA6D     		ldr	r2, [r7, #92]
 6231 02ce 7B6D     		ldr	r3, [r7, #84]
 6232 02d0 9A42     		cmp	r2, r3
 6233 02d2 A3D3     		bcc	.L352
 6234              	.L349:
 6235              	.LBE32:
1471:Lib/AI_Runtime/Npu/ll_aton/ll_aton.c ****       }
1472:Lib/AI_Runtime/Npu/ll_aton/ll_aton.c ****     }
1473:Lib/AI_Runtime/Npu/ll_aton/ll_aton.c ****   }
1474:Lib/AI_Runtime/Npu/ll_aton/ll_aton.c ****   if (conf->nCWperCV == 6)
 6236              		.loc 1 1474 11
 6237 02d4 BB68     		ldr	r3, [r7, #8]
 6238 02d6 9B78     		ldrb	r3, [r3, #2]	@ zero_extendqisi2
 6239              		.loc 1 1474 6
 6240 02d8 062B     		cmp	r3, #6
 6241 02da 52D1     		bne	.L353
 6242              	.LBB34:
1475:Lib/AI_Runtime/Npu/ll_aton/ll_aton.c ****   {
1476:Lib/AI_Runtime/Npu/ll_aton/ll_aton.c **** #if 0
1477:Lib/AI_Runtime/Npu/ll_aton/ll_aton.c ****     uint16_t *CBp = (uint16_t *)conf->CBs_vector.p;
1478:Lib/AI_Runtime/Npu/ll_aton/ll_aton.c ****     for (i = 0, k = 0; i < CBsize; i += 6)
1479:Lib/AI_Runtime/Npu/ll_aton/ll_aton.c ****     {
1480:Lib/AI_Runtime/Npu/ll_aton/ll_aton.c ****       uint32_t temp = CBp[i] | (CBp[i + 1] << 16);
1481:Lib/AI_Runtime/Npu/ll_aton/ll_aton.c ****       ATON_DECUN_MEM_LOW_SET(id, k, temp);
1482:Lib/AI_Runtime/Npu/ll_aton/ll_aton.c ****       temp = CBp[i + 2] | (CBp[i + 3] << 16);
1483:Lib/AI_Runtime/Npu/ll_aton/ll_aton.c ****       ATON_DECUN_MEM_HIGH_SET(id, k, temp);
1484:Lib/AI_Runtime/Npu/ll_aton/ll_aton.c ****       k++;
1485:Lib/AI_Runtime/Npu/ll_aton/ll_aton.c ****       if (k == mem_idx_num )
1486:Lib/AI_Runtime/Npu/ll_aton/ll_aton.c ****       {
1487:Lib/AI_Runtime/Npu/ll_aton/ll_aton.c ****         ctrl_val = decun_inc_page_addr(id, ctrl_val);
1488:Lib/AI_Runtime/Npu/ll_aton/ll_aton.c ****         k = 0;
1489:Lib/AI_Runtime/Npu/ll_aton/ll_aton.c ****       }
1490:Lib/AI_Runtime/Npu/ll_aton/ll_aton.c ****       temp = CBp[i + 4] | (CBp[i + 5] << 16);
1491:Lib/AI_Runtime/Npu/ll_aton/ll_aton.c ****       ATON_DECUN_MEM_LOW_SET(id, k, temp);
1492:Lib/AI_Runtime/Npu/ll_aton/ll_aton.c ****       k++;
1493:Lib/AI_Runtime/Npu/ll_aton/ll_aton.c ****       if (k == mem_idx_num )
1494:Lib/AI_Runtime/Npu/ll_aton/ll_aton.c ****       {
1495:Lib/AI_Runtime/Npu/ll_aton/ll_aton.c ****         ctrl_val = decun_inc_page_addr(id, ctrl_val);
1496:Lib/AI_Runtime/Npu/ll_aton/ll_aton.c ****         k = 0;
1497:Lib/AI_Runtime/Npu/ll_aton/ll_aton.c ****       }
1498:Lib/AI_Runtime/Npu/ll_aton/ll_aton.c ****     }
1499:Lib/AI_Runtime/Npu/ll_aton/ll_aton.c **** #else
1500:Lib/AI_Runtime/Npu/ll_aton/ll_aton.c ****     uint32_t *CBp = (uint32_t *)conf->CBs_vector.p;
 6243              		.loc 1 1500 15
 6244 02dc BB68     		ldr	r3, [r7, #8]
 6245 02de DB68     		ldr	r3, [r3, #12]
 6246 02e0 7B62     		str	r3, [r7, #36]
1501:Lib/AI_Runtime/Npu/ll_aton/ll_aton.c ****     for (i = 0, k = 0; i < CBsize / 2; i += 3)
 6247              		.loc 1 1501 12
ARM GAS  /tmp/ccxZaNgH.s 			page 149


 6248 02e2 0023     		movs	r3, #0
 6249 02e4 FB65     		str	r3, [r7, #92]
 6250              		.loc 1 1501 19
 6251 02e6 0023     		movs	r3, #0
 6252 02e8 BB65     		str	r3, [r7, #88]
 6253              		.loc 1 1501 5
 6254 02ea 45E0     		b	.L354
 6255              	.L356:
 6256              	.LBB35:
1502:Lib/AI_Runtime/Npu/ll_aton/ll_aton.c ****     {
1503:Lib/AI_Runtime/Npu/ll_aton/ll_aton.c ****       uint32_t temp = CBp[i];
 6257              		.loc 1 1503 26
 6258 02ec FB6D     		ldr	r3, [r7, #92]
 6259 02ee 9B00     		lsls	r3, r3, #2
 6260 02f0 7A6A     		ldr	r2, [r7, #36]
 6261 02f2 1344     		add	r3, r3, r2
 6262              		.loc 1 1503 16
 6263 02f4 1B68     		ldr	r3, [r3]
 6264 02f6 3B62     		str	r3, [r7, #32]
1504:Lib/AI_Runtime/Npu/ll_aton/ll_aton.c ****       ATON_DECUN_MEM_LOW_SET(id, k, temp);
 6265              		.loc 1 1504 7
 6266 02f8 FB68     		ldr	r3, [r7, #12]
 6267 02fa 5A02     		lsls	r2, r3, #9
 6268 02fc BB6D     		ldr	r3, [r7, #88]
 6269 02fe 1A44     		add	r2, r2, r3
 6270 0300 674B     		ldr	r3, .L368
 6271 0302 1344     		add	r3, r3, r2
 6272 0304 DB00     		lsls	r3, r3, #3
 6273 0306 1A46     		mov	r2, r3
 6274 0308 3B6A     		ldr	r3, [r7, #32]
 6275 030a 1360     		str	r3, [r2]
1505:Lib/AI_Runtime/Npu/ll_aton/ll_aton.c ****       temp = CBp[i + 1];
 6276              		.loc 1 1505 17
 6277 030c FB6D     		ldr	r3, [r7, #92]
 6278 030e 0133     		adds	r3, r3, #1
 6279 0310 9B00     		lsls	r3, r3, #2
 6280 0312 7A6A     		ldr	r2, [r7, #36]
 6281 0314 1344     		add	r3, r3, r2
 6282              		.loc 1 1505 12
 6283 0316 1B68     		ldr	r3, [r3]
 6284 0318 3B62     		str	r3, [r7, #32]
1506:Lib/AI_Runtime/Npu/ll_aton/ll_aton.c ****       ATON_DECUN_MEM_HIGH_SET(id, k, temp);
 6285              		.loc 1 1506 7
 6286 031a FB68     		ldr	r3, [r7, #12]
 6287 031c 5A02     		lsls	r2, r3, #9
 6288 031e BB6D     		ldr	r3, [r7, #88]
 6289 0320 1344     		add	r3, r3, r2
 6290 0322 DA00     		lsls	r2, r3, #3
 6291 0324 5F4B     		ldr	r3, .L368+4
 6292 0326 1344     		add	r3, r3, r2
 6293 0328 1A46     		mov	r2, r3
 6294 032a 3B6A     		ldr	r3, [r7, #32]
 6295 032c 1360     		str	r3, [r2]
1507:Lib/AI_Runtime/Npu/ll_aton/ll_aton.c ****       k++;
 6296              		.loc 1 1507 8
 6297 032e BB6D     		ldr	r3, [r7, #88]
 6298 0330 0133     		adds	r3, r3, #1
ARM GAS  /tmp/ccxZaNgH.s 			page 150


 6299 0332 BB65     		str	r3, [r7, #88]
1508:Lib/AI_Runtime/Npu/ll_aton/ll_aton.c ****       temp = CBp[i + 2];
 6300              		.loc 1 1508 17
 6301 0334 FB6D     		ldr	r3, [r7, #92]
 6302 0336 0233     		adds	r3, r3, #2
 6303 0338 9B00     		lsls	r3, r3, #2
 6304 033a 7A6A     		ldr	r2, [r7, #36]
 6305 033c 1344     		add	r3, r3, r2
 6306              		.loc 1 1508 12
 6307 033e 1B68     		ldr	r3, [r3]
 6308 0340 3B62     		str	r3, [r7, #32]
1509:Lib/AI_Runtime/Npu/ll_aton/ll_aton.c ****       ATON_DECUN_MEM_LOW_SET(id, k, temp);
 6309              		.loc 1 1509 7
 6310 0342 FB68     		ldr	r3, [r7, #12]
 6311 0344 5A02     		lsls	r2, r3, #9
 6312 0346 BB6D     		ldr	r3, [r7, #88]
 6313 0348 1A44     		add	r2, r2, r3
 6314 034a 554B     		ldr	r3, .L368
 6315 034c 1344     		add	r3, r3, r2
 6316 034e DB00     		lsls	r3, r3, #3
 6317 0350 1A46     		mov	r2, r3
 6318 0352 3B6A     		ldr	r3, [r7, #32]
 6319 0354 1360     		str	r3, [r2]
1510:Lib/AI_Runtime/Npu/ll_aton/ll_aton.c ****       k++;
 6320              		.loc 1 1510 8
 6321 0356 BB6D     		ldr	r3, [r7, #88]
 6322 0358 0133     		adds	r3, r3, #1
 6323 035a BB65     		str	r3, [r7, #88]
1511:Lib/AI_Runtime/Npu/ll_aton/ll_aton.c ****       if (k == mem_idx_num)
 6324              		.loc 1 1511 10
 6325 035c BA6D     		ldr	r2, [r7, #88]
 6326 035e 3B6D     		ldr	r3, [r7, #80]
 6327 0360 9A42     		cmp	r2, r3
 6328 0362 06D1     		bne	.L355
1512:Lib/AI_Runtime/Npu/ll_aton/ll_aton.c ****       {
1513:Lib/AI_Runtime/Npu/ll_aton/ll_aton.c ****         ctrl_val = decun_inc_page_addr(id, ctrl_val);
 6329              		.loc 1 1513 20
 6330 0364 7968     		ldr	r1, [r7, #4]
 6331 0366 F868     		ldr	r0, [r7, #12]
 6332 0368 FFF7FEFF 		bl	decun_inc_page_addr
 6333 036c 7860     		str	r0, [r7, #4]
1514:Lib/AI_Runtime/Npu/ll_aton/ll_aton.c ****         k = 0;
 6334              		.loc 1 1514 11
 6335 036e 0023     		movs	r3, #0
 6336 0370 BB65     		str	r3, [r7, #88]
 6337              	.L355:
 6338              	.LBE35:
1501:Lib/AI_Runtime/Npu/ll_aton/ll_aton.c ****     {
 6339              		.loc 1 1501 42 discriminator 2
 6340 0372 FB6D     		ldr	r3, [r7, #92]
 6341 0374 0333     		adds	r3, r3, #3
 6342 0376 FB65     		str	r3, [r7, #92]
 6343              	.L354:
1501:Lib/AI_Runtime/Npu/ll_aton/ll_aton.c ****     {
 6344              		.loc 1 1501 35 discriminator 1
 6345 0378 7B6D     		ldr	r3, [r7, #84]
 6346 037a 5B08     		lsrs	r3, r3, #1
ARM GAS  /tmp/ccxZaNgH.s 			page 151


1501:Lib/AI_Runtime/Npu/ll_aton/ll_aton.c ****     {
 6347              		.loc 1 1501 26 discriminator 1
 6348 037c FA6D     		ldr	r2, [r7, #92]
 6349 037e 9A42     		cmp	r2, r3
 6350 0380 B4D3     		bcc	.L356
 6351              	.L353:
 6352              	.LBE34:
1515:Lib/AI_Runtime/Npu/ll_aton/ll_aton.c ****       }
1516:Lib/AI_Runtime/Npu/ll_aton/ll_aton.c ****     }
1517:Lib/AI_Runtime/Npu/ll_aton/ll_aton.c **** #endif
1518:Lib/AI_Runtime/Npu/ll_aton/ll_aton.c ****   }
1519:Lib/AI_Runtime/Npu/ll_aton/ll_aton.c ****   if (conf->nCWperCV == 7)
 6353              		.loc 1 1519 11
 6354 0382 BB68     		ldr	r3, [r7, #8]
 6355 0384 9B78     		ldrb	r3, [r3, #2]	@ zero_extendqisi2
 6356              		.loc 1 1519 6
 6357 0386 072B     		cmp	r3, #7
 6358 0388 7DD1     		bne	.L357
 6359              	.LBB36:
1520:Lib/AI_Runtime/Npu/ll_aton/ll_aton.c ****   {
1521:Lib/AI_Runtime/Npu/ll_aton/ll_aton.c ****     uint16_t *CBp = (uint16_t *)conf->CBs_vector.p;
 6360              		.loc 1 1521 15
 6361 038a BB68     		ldr	r3, [r7, #8]
 6362 038c DB68     		ldr	r3, [r3, #12]
 6363 038e FB61     		str	r3, [r7, #28]
1522:Lib/AI_Runtime/Npu/ll_aton/ll_aton.c ****     for (i = 0, k = 0; i < CBsize; i += 7)
 6364              		.loc 1 1522 12
 6365 0390 0023     		movs	r3, #0
 6366 0392 FB65     		str	r3, [r7, #92]
 6367              		.loc 1 1522 19
 6368 0394 0023     		movs	r3, #0
 6369 0396 BB65     		str	r3, [r7, #88]
 6370              		.loc 1 1522 5
 6371 0398 71E0     		b	.L358
 6372              	.L360:
 6373              	.LBB37:
1523:Lib/AI_Runtime/Npu/ll_aton/ll_aton.c ****     {
1524:Lib/AI_Runtime/Npu/ll_aton/ll_aton.c ****       uint32_t temp = CBp[i] | (CBp[i + 1] << 16);
 6374              		.loc 1 1524 26
 6375 039a FB6D     		ldr	r3, [r7, #92]
 6376 039c 5B00     		lsls	r3, r3, #1
 6377 039e FA69     		ldr	r2, [r7, #28]
 6378 03a0 1344     		add	r3, r3, r2
 6379 03a2 1B88     		ldrh	r3, [r3]
 6380 03a4 1946     		mov	r1, r3
 6381              		.loc 1 1524 36
 6382 03a6 FB6D     		ldr	r3, [r7, #92]
 6383 03a8 0133     		adds	r3, r3, #1
 6384 03aa 5B00     		lsls	r3, r3, #1
 6385 03ac FA69     		ldr	r2, [r7, #28]
 6386 03ae 1344     		add	r3, r3, r2
 6387 03b0 1B88     		ldrh	r3, [r3]
 6388              		.loc 1 1524 44
 6389 03b2 1B04     		lsls	r3, r3, #16
 6390              		.loc 1 1524 30
 6391 03b4 0B43     		orrs	r3, r3, r1
 6392              		.loc 1 1524 16
ARM GAS  /tmp/ccxZaNgH.s 			page 152


 6393 03b6 BB61     		str	r3, [r7, #24]
1525:Lib/AI_Runtime/Npu/ll_aton/ll_aton.c ****       ATON_DECUN_MEM_LOW_SET(id, k, temp);
 6394              		.loc 1 1525 7
 6395 03b8 FB68     		ldr	r3, [r7, #12]
 6396 03ba 5A02     		lsls	r2, r3, #9
 6397 03bc BB6D     		ldr	r3, [r7, #88]
 6398 03be 1A44     		add	r2, r2, r3
 6399 03c0 374B     		ldr	r3, .L368
 6400 03c2 1344     		add	r3, r3, r2
 6401 03c4 DB00     		lsls	r3, r3, #3
 6402 03c6 1A46     		mov	r2, r3
 6403 03c8 BB69     		ldr	r3, [r7, #24]
 6404 03ca 1360     		str	r3, [r2]
1526:Lib/AI_Runtime/Npu/ll_aton/ll_aton.c ****       temp = CBp[i + 2] | (CBp[i + 3] << 16);
 6405              		.loc 1 1526 17
 6406 03cc FB6D     		ldr	r3, [r7, #92]
 6407 03ce 0233     		adds	r3, r3, #2
 6408 03d0 5B00     		lsls	r3, r3, #1
 6409 03d2 FA69     		ldr	r2, [r7, #28]
 6410 03d4 1344     		add	r3, r3, r2
 6411 03d6 1B88     		ldrh	r3, [r3]
 6412 03d8 1946     		mov	r1, r3
 6413              		.loc 1 1526 31
 6414 03da FB6D     		ldr	r3, [r7, #92]
 6415 03dc 0333     		adds	r3, r3, #3
 6416 03de 5B00     		lsls	r3, r3, #1
 6417 03e0 FA69     		ldr	r2, [r7, #28]
 6418 03e2 1344     		add	r3, r3, r2
 6419 03e4 1B88     		ldrh	r3, [r3]
 6420              		.loc 1 1526 39
 6421 03e6 1B04     		lsls	r3, r3, #16
 6422              		.loc 1 1526 25
 6423 03e8 0B43     		orrs	r3, r3, r1
 6424              		.loc 1 1526 12
 6425 03ea BB61     		str	r3, [r7, #24]
1527:Lib/AI_Runtime/Npu/ll_aton/ll_aton.c ****       ATON_DECUN_MEM_HIGH_SET(id, k, temp);
 6426              		.loc 1 1527 7
 6427 03ec FB68     		ldr	r3, [r7, #12]
 6428 03ee 5A02     		lsls	r2, r3, #9
 6429 03f0 BB6D     		ldr	r3, [r7, #88]
 6430 03f2 1344     		add	r3, r3, r2
 6431 03f4 DA00     		lsls	r2, r3, #3
 6432 03f6 2B4B     		ldr	r3, .L368+4
 6433 03f8 1344     		add	r3, r3, r2
 6434 03fa 1A46     		mov	r2, r3
 6435 03fc BB69     		ldr	r3, [r7, #24]
 6436 03fe 1360     		str	r3, [r2]
1528:Lib/AI_Runtime/Npu/ll_aton/ll_aton.c ****       k++;
 6437              		.loc 1 1528 8
 6438 0400 BB6D     		ldr	r3, [r7, #88]
 6439 0402 0133     		adds	r3, r3, #1
 6440 0404 BB65     		str	r3, [r7, #88]
1529:Lib/AI_Runtime/Npu/ll_aton/ll_aton.c ****       temp = CBp[i + 4] | (CBp[i + 5] << 16);
 6441              		.loc 1 1529 17
 6442 0406 FB6D     		ldr	r3, [r7, #92]
 6443 0408 0433     		adds	r3, r3, #4
 6444 040a 5B00     		lsls	r3, r3, #1
ARM GAS  /tmp/ccxZaNgH.s 			page 153


 6445 040c FA69     		ldr	r2, [r7, #28]
 6446 040e 1344     		add	r3, r3, r2
 6447 0410 1B88     		ldrh	r3, [r3]
 6448 0412 1946     		mov	r1, r3
 6449              		.loc 1 1529 31
 6450 0414 FB6D     		ldr	r3, [r7, #92]
 6451 0416 0533     		adds	r3, r3, #5
 6452 0418 5B00     		lsls	r3, r3, #1
 6453 041a FA69     		ldr	r2, [r7, #28]
 6454 041c 1344     		add	r3, r3, r2
 6455 041e 1B88     		ldrh	r3, [r3]
 6456              		.loc 1 1529 39
 6457 0420 1B04     		lsls	r3, r3, #16
 6458              		.loc 1 1529 25
 6459 0422 0B43     		orrs	r3, r3, r1
 6460              		.loc 1 1529 12
 6461 0424 BB61     		str	r3, [r7, #24]
1530:Lib/AI_Runtime/Npu/ll_aton/ll_aton.c ****       ATON_DECUN_MEM_LOW_SET(id, k, temp);
 6462              		.loc 1 1530 7
 6463 0426 FB68     		ldr	r3, [r7, #12]
 6464 0428 5A02     		lsls	r2, r3, #9
 6465 042a BB6D     		ldr	r3, [r7, #88]
 6466 042c 1A44     		add	r2, r2, r3
 6467 042e 1C4B     		ldr	r3, .L368
 6468 0430 1344     		add	r3, r3, r2
 6469 0432 DB00     		lsls	r3, r3, #3
 6470 0434 1A46     		mov	r2, r3
 6471 0436 BB69     		ldr	r3, [r7, #24]
 6472 0438 1360     		str	r3, [r2]
1531:Lib/AI_Runtime/Npu/ll_aton/ll_aton.c ****       temp = CBp[i + 6];
 6473              		.loc 1 1531 17
 6474 043a FB6D     		ldr	r3, [r7, #92]
 6475 043c 0633     		adds	r3, r3, #6
 6476 043e 5B00     		lsls	r3, r3, #1
 6477 0440 FA69     		ldr	r2, [r7, #28]
 6478 0442 1344     		add	r3, r3, r2
 6479 0444 1B88     		ldrh	r3, [r3]
 6480              		.loc 1 1531 12
 6481 0446 BB61     		str	r3, [r7, #24]
1532:Lib/AI_Runtime/Npu/ll_aton/ll_aton.c ****       ATON_DECUN_MEM_HIGH_SET(id, k, temp);
 6482              		.loc 1 1532 7
 6483 0448 FB68     		ldr	r3, [r7, #12]
 6484 044a 5A02     		lsls	r2, r3, #9
 6485 044c BB6D     		ldr	r3, [r7, #88]
 6486 044e 1344     		add	r3, r3, r2
 6487 0450 DA00     		lsls	r2, r3, #3
 6488 0452 144B     		ldr	r3, .L368+4
 6489 0454 1344     		add	r3, r3, r2
 6490 0456 1A46     		mov	r2, r3
 6491 0458 BB69     		ldr	r3, [r7, #24]
 6492 045a 1360     		str	r3, [r2]
1533:Lib/AI_Runtime/Npu/ll_aton/ll_aton.c ****       k++;
 6493              		.loc 1 1533 8
 6494 045c BB6D     		ldr	r3, [r7, #88]
 6495 045e 0133     		adds	r3, r3, #1
 6496 0460 BB65     		str	r3, [r7, #88]
1534:Lib/AI_Runtime/Npu/ll_aton/ll_aton.c ****       if (k == mem_idx_num)
ARM GAS  /tmp/ccxZaNgH.s 			page 154


 6497              		.loc 1 1534 10
 6498 0462 BA6D     		ldr	r2, [r7, #88]
 6499 0464 3B6D     		ldr	r3, [r7, #80]
 6500 0466 9A42     		cmp	r2, r3
 6501 0468 06D1     		bne	.L359
1535:Lib/AI_Runtime/Npu/ll_aton/ll_aton.c ****       {
1536:Lib/AI_Runtime/Npu/ll_aton/ll_aton.c ****         ctrl_val = decun_inc_page_addr(id, ctrl_val);
 6502              		.loc 1 1536 20
 6503 046a 7968     		ldr	r1, [r7, #4]
 6504 046c F868     		ldr	r0, [r7, #12]
 6505 046e FFF7FEFF 		bl	decun_inc_page_addr
 6506 0472 7860     		str	r0, [r7, #4]
1537:Lib/AI_Runtime/Npu/ll_aton/ll_aton.c ****         k = 0;
 6507              		.loc 1 1537 11
 6508 0474 0023     		movs	r3, #0
 6509 0476 BB65     		str	r3, [r7, #88]
 6510              	.L359:
 6511              	.LBE37:
1522:Lib/AI_Runtime/Npu/ll_aton/ll_aton.c ****     {
 6512              		.loc 1 1522 38 discriminator 2
 6513 0478 FB6D     		ldr	r3, [r7, #92]
 6514 047a 0733     		adds	r3, r3, #7
 6515 047c FB65     		str	r3, [r7, #92]
 6516              	.L358:
1522:Lib/AI_Runtime/Npu/ll_aton/ll_aton.c ****     {
 6517              		.loc 1 1522 26 discriminator 1
 6518 047e FA6D     		ldr	r2, [r7, #92]
 6519 0480 7B6D     		ldr	r3, [r7, #84]
 6520 0482 9A42     		cmp	r2, r3
 6521 0484 89D3     		bcc	.L360
 6522              	.L357:
 6523              	.LBE36:
1538:Lib/AI_Runtime/Npu/ll_aton/ll_aton.c ****       }
1539:Lib/AI_Runtime/Npu/ll_aton/ll_aton.c ****     }
1540:Lib/AI_Runtime/Npu/ll_aton/ll_aton.c ****   }
1541:Lib/AI_Runtime/Npu/ll_aton/ll_aton.c ****   if (conf->nCWperCV == 8)
 6524              		.loc 1 1541 11
 6525 0486 BB68     		ldr	r3, [r7, #8]
 6526 0488 9B78     		ldrb	r3, [r3, #2]	@ zero_extendqisi2
 6527              		.loc 1 1541 6
 6528 048a 082B     		cmp	r3, #8
 6529 048c 43D1     		bne	.L365
 6530              	.LBB38:
1542:Lib/AI_Runtime/Npu/ll_aton/ll_aton.c ****   {
1543:Lib/AI_Runtime/Npu/ll_aton/ll_aton.c ****     uint32_t *CBp = (uint32_t *)conf->CBs_vector.p;
 6531              		.loc 1 1543 15
 6532 048e BB68     		ldr	r3, [r7, #8]
 6533 0490 DB68     		ldr	r3, [r3, #12]
 6534 0492 7B61     		str	r3, [r7, #20]
1544:Lib/AI_Runtime/Npu/ll_aton/ll_aton.c ****     for (i = 0, k = 0; i < CBsize / 2; i += 2)
 6535              		.loc 1 1544 12
 6536 0494 0023     		movs	r3, #0
 6537 0496 FB65     		str	r3, [r7, #92]
 6538              		.loc 1 1544 19
 6539 0498 0023     		movs	r3, #0
 6540 049a BB65     		str	r3, [r7, #88]
 6541              		.loc 1 1544 5
ARM GAS  /tmp/ccxZaNgH.s 			page 155


 6542 049c 36E0     		b	.L362
 6543              	.L369:
 6544 049e 00BF     		.align	2
 6545              	.L368:
 6546 04a0 00E7010B 		.word	184674048
 6547 04a4 04380F58 		.word	1477392388
 6548              	.L364:
 6549              	.LBB39:
1545:Lib/AI_Runtime/Npu/ll_aton/ll_aton.c ****     {
1546:Lib/AI_Runtime/Npu/ll_aton/ll_aton.c ****       uint32_t temp = CBp[i];
 6550              		.loc 1 1546 26
 6551 04a8 FB6D     		ldr	r3, [r7, #92]
 6552 04aa 9B00     		lsls	r3, r3, #2
 6553 04ac 7A69     		ldr	r2, [r7, #20]
 6554 04ae 1344     		add	r3, r3, r2
 6555              		.loc 1 1546 16
 6556 04b0 1B68     		ldr	r3, [r3]
 6557 04b2 3B61     		str	r3, [r7, #16]
1547:Lib/AI_Runtime/Npu/ll_aton/ll_aton.c ****       ATON_DECUN_MEM_LOW_SET(id, k, temp);
 6558              		.loc 1 1547 7
 6559 04b4 FB68     		ldr	r3, [r7, #12]
 6560 04b6 5A02     		lsls	r2, r3, #9
 6561 04b8 BB6D     		ldr	r3, [r7, #88]
 6562 04ba 1A44     		add	r2, r2, r3
 6563 04bc 184B     		ldr	r3, .L370
 6564 04be 1344     		add	r3, r3, r2
 6565 04c0 DB00     		lsls	r3, r3, #3
 6566 04c2 1A46     		mov	r2, r3
 6567 04c4 3B69     		ldr	r3, [r7, #16]
 6568 04c6 1360     		str	r3, [r2]
1548:Lib/AI_Runtime/Npu/ll_aton/ll_aton.c ****       temp = CBp[i + 1];
 6569              		.loc 1 1548 17
 6570 04c8 FB6D     		ldr	r3, [r7, #92]
 6571 04ca 0133     		adds	r3, r3, #1
 6572 04cc 9B00     		lsls	r3, r3, #2
 6573 04ce 7A69     		ldr	r2, [r7, #20]
 6574 04d0 1344     		add	r3, r3, r2
 6575              		.loc 1 1548 12
 6576 04d2 1B68     		ldr	r3, [r3]
 6577 04d4 3B61     		str	r3, [r7, #16]
1549:Lib/AI_Runtime/Npu/ll_aton/ll_aton.c ****       ATON_DECUN_MEM_HIGH_SET(id, k, temp);
 6578              		.loc 1 1549 7
 6579 04d6 FB68     		ldr	r3, [r7, #12]
 6580 04d8 5A02     		lsls	r2, r3, #9
 6581 04da BB6D     		ldr	r3, [r7, #88]
 6582 04dc 1344     		add	r3, r3, r2
 6583 04de DA00     		lsls	r2, r3, #3
 6584 04e0 104B     		ldr	r3, .L370+4
 6585 04e2 1344     		add	r3, r3, r2
 6586 04e4 1A46     		mov	r2, r3
 6587 04e6 3B69     		ldr	r3, [r7, #16]
 6588 04e8 1360     		str	r3, [r2]
1550:Lib/AI_Runtime/Npu/ll_aton/ll_aton.c ****       k++;
 6589              		.loc 1 1550 8
 6590 04ea BB6D     		ldr	r3, [r7, #88]
 6591 04ec 0133     		adds	r3, r3, #1
 6592 04ee BB65     		str	r3, [r7, #88]
ARM GAS  /tmp/ccxZaNgH.s 			page 156


1551:Lib/AI_Runtime/Npu/ll_aton/ll_aton.c ****       if (k == mem_idx_num)
 6593              		.loc 1 1551 10
 6594 04f0 BA6D     		ldr	r2, [r7, #88]
 6595 04f2 3B6D     		ldr	r3, [r7, #80]
 6596 04f4 9A42     		cmp	r2, r3
 6597 04f6 06D1     		bne	.L363
1552:Lib/AI_Runtime/Npu/ll_aton/ll_aton.c ****       {
1553:Lib/AI_Runtime/Npu/ll_aton/ll_aton.c ****         ctrl_val = decun_inc_page_addr(id, ctrl_val);
 6598              		.loc 1 1553 20
 6599 04f8 7968     		ldr	r1, [r7, #4]
 6600 04fa F868     		ldr	r0, [r7, #12]
 6601 04fc FFF7FEFF 		bl	decun_inc_page_addr
 6602 0500 7860     		str	r0, [r7, #4]
1554:Lib/AI_Runtime/Npu/ll_aton/ll_aton.c ****         k = 0;
 6603              		.loc 1 1554 11
 6604 0502 0023     		movs	r3, #0
 6605 0504 BB65     		str	r3, [r7, #88]
 6606              	.L363:
 6607              	.LBE39:
1544:Lib/AI_Runtime/Npu/ll_aton/ll_aton.c ****     {
 6608              		.loc 1 1544 42 discriminator 2
 6609 0506 FB6D     		ldr	r3, [r7, #92]
 6610 0508 0233     		adds	r3, r3, #2
 6611 050a FB65     		str	r3, [r7, #92]
 6612              	.L362:
1544:Lib/AI_Runtime/Npu/ll_aton/ll_aton.c ****     {
 6613              		.loc 1 1544 35 discriminator 1
 6614 050c 7B6D     		ldr	r3, [r7, #84]
 6615 050e 5B08     		lsrs	r3, r3, #1
1544:Lib/AI_Runtime/Npu/ll_aton/ll_aton.c ****     {
 6616              		.loc 1 1544 26 discriminator 1
 6617 0510 FA6D     		ldr	r2, [r7, #92]
 6618 0512 9A42     		cmp	r2, r3
 6619 0514 C8D3     		bcc	.L364
 6620              	.L365:
 6621              	.LBE38:
1555:Lib/AI_Runtime/Npu/ll_aton/ll_aton.c ****       }
1556:Lib/AI_Runtime/Npu/ll_aton/ll_aton.c ****     }
1557:Lib/AI_Runtime/Npu/ll_aton/ll_aton.c ****   }
1558:Lib/AI_Runtime/Npu/ll_aton/ll_aton.c **** }
 6622              		.loc 1 1558 1
 6623 0516 00BF     		nop
 6624 0518 6037     		adds	r7, r7, #96
 6625              		.cfi_def_cfa_offset 8
 6626 051a BD46     		mov	sp, r7
 6627              		.cfi_def_cfa_register 13
 6628              		@ sp needed
 6629 051c 80BD     		pop	{r7, pc}
 6630              	.L371:
 6631 051e 00BF     		.align	2
 6632              	.L370:
 6633 0520 00E7010B 		.word	184674048
 6634 0524 04380F58 		.word	1477392388
 6635              		.cfi_endproc
 6636              	.LFE4842:
 6638              		.section	.rodata
 6639              		.align	2
ARM GAS  /tmp/ccxZaNgH.s 			page 157


 6640              	.LC31:
 6641 0294 28636F6E 		.ascii	"(conf->nFormatBytes == 1) || (conf->nFormatBytes =="
 6641      662D3E6E 
 6641      466F726D 
 6641      61744279 
 6641      74657320 
 6642 02c7 20322900 		.ascii	" 2)\000"
 6643              		.section	.text.LL_Decun_Init,"ax",%progbits
 6644              		.align	1
 6645              		.global	LL_Decun_Init
 6646              		.syntax unified
 6647              		.thumb
 6648              		.thumb_func
 6650              	LL_Decun_Init:
 6651              	.LFB4843:
1559:Lib/AI_Runtime/Npu/ll_aton/ll_aton.c **** 
1560:Lib/AI_Runtime/Npu/ll_aton/ll_aton.c **** /**
1561:Lib/AI_Runtime/Npu/ll_aton/ll_aton.c ****  * @brief  Configures Decompression Unit accelerator
1562:Lib/AI_Runtime/Npu/ll_aton/ll_aton.c ****  * @param  id Decompression Unit identifier (Always 0 fo Tiny Orlando)
1563:Lib/AI_Runtime/Npu/ll_aton/ll_aton.c ****  * @param  conf Pointer to structure describing decompression unit configuration
1564:Lib/AI_Runtime/Npu/ll_aton/ll_aton.c ****  * @retval Error code
1565:Lib/AI_Runtime/Npu/ll_aton/ll_aton.c ****  */
1566:Lib/AI_Runtime/Npu/ll_aton/ll_aton.c **** int LL_Decun_Init(int id, const LL_Decun_InitTypeDef *conf)
1567:Lib/AI_Runtime/Npu/ll_aton/ll_aton.c **** {
 6652              		.loc 1 1567 1
 6653              		.cfi_startproc
 6654              		@ args = 0, pretend = 0, frame = 16
 6655              		@ frame_needed = 1, uses_anonymous_args = 0
 6656 0000 80B5     		push	{r7, lr}
 6657              		.cfi_def_cfa_offset 8
 6658              		.cfi_offset 7, -8
 6659              		.cfi_offset 14, -4
 6660 0002 84B0     		sub	sp, sp, #16
 6661              		.cfi_def_cfa_offset 24
 6662 0004 00AF     		add	r7, sp, #0
 6663              		.cfi_def_cfa_register 7
 6664 0006 7860     		str	r0, [r7, #4]
 6665 0008 3960     		str	r1, [r7]
1568:Lib/AI_Runtime/Npu/ll_aton/ll_aton.c ****   uint32_t t;
1569:Lib/AI_Runtime/Npu/ll_aton/ll_aton.c **** 
1570:Lib/AI_Runtime/Npu/ll_aton/ll_aton.c ****   if (id >= ATON_DECUN_NUM)
 6666              		.loc 1 1570 6
 6667 000a 7B68     		ldr	r3, [r7, #4]
 6668 000c 012B     		cmp	r3, #1
 6669 000e 02DD     		ble	.L373
1571:Lib/AI_Runtime/Npu/ll_aton/ll_aton.c ****     return LL_ATON_INVALID_ID;
 6670              		.loc 1 1571 12
 6671 0010 4FF0FF33 		mov	r3, #-1
 6672 0014 92E0     		b	.L374
 6673              	.L373:
1572:Lib/AI_Runtime/Npu/ll_aton/ll_aton.c **** 
1573:Lib/AI_Runtime/Npu/ll_aton/ll_aton.c ****   LL_ATON_EnableClock(ATON_DECUN_CLKB_CLK(id));
 6674              		.loc 1 1573 23
 6675 0016 7B68     		ldr	r3, [r7, #4]
 6676 0018 0E33     		adds	r3, r3, #14
 6677              		.loc 1 1573 3
 6678 001a 1846     		mov	r0, r3
ARM GAS  /tmp/ccxZaNgH.s 			page 158


 6679 001c FFF7FEFF 		bl	LL_ATON_EnableClock
1574:Lib/AI_Runtime/Npu/ll_aton/ll_aton.c **** 
1575:Lib/AI_Runtime/Npu/ll_aton/ll_aton.c ****   t = ATON_DECUN_CTRL_DT;
 6680              		.loc 1 1575 5
 6681 0020 0023     		movs	r3, #0
 6682 0022 FB60     		str	r3, [r7, #12]
1576:Lib/AI_Runtime/Npu/ll_aton/ll_aton.c ****   t = ATON_DECUN_CTRL_SET_DUALIN(t, (conf->noDualInput != 0));
 6683              		.loc 1 1576 7
 6684 0024 FB68     		ldr	r3, [r7, #12]
 6685 0026 23F00402 		bic	r2, r3, #4
 6686 002a 3B68     		ldr	r3, [r7]
 6687 002c 1B7A     		ldrb	r3, [r3, #8]	@ zero_extendqisi2
 6688 002e 9B00     		lsls	r3, r3, #2
 6689 0030 03F00403 		and	r3, r3, #4
 6690              		.loc 1 1576 5
 6691 0034 1343     		orrs	r3, r3, r2
 6692 0036 FB60     		str	r3, [r7, #12]
1577:Lib/AI_Runtime/Npu/ll_aton/ll_aton.c ****   t = ATON_DECUN_CTRL_SET_OW(t, (conf->noOverWrite != 0));
 6693              		.loc 1 1577 7
 6694 0038 FB68     		ldr	r3, [r7, #12]
 6695 003a 23F00802 		bic	r2, r3, #8
 6696 003e 3B68     		ldr	r3, [r7]
 6697 0040 1B7A     		ldrb	r3, [r3, #8]	@ zero_extendqisi2
 6698 0042 9B00     		lsls	r3, r3, #2
 6699 0044 03F00803 		and	r3, r3, #8
 6700              		.loc 1 1577 5
 6701 0048 1343     		orrs	r3, r3, r2
 6702 004a FB60     		str	r3, [r7, #12]
1578:Lib/AI_Runtime/Npu/ll_aton/ll_aton.c ****   ATON_DECUN_CTRL_SET(id, t);
 6703              		.loc 1 1578 3
 6704 004c 7B68     		ldr	r3, [r7, #4]
 6705 004e 03F5B023 		add	r3, r3, #360448
 6706 0052 F333     		adds	r3, r3, #243
 6707 0054 1B03     		lsls	r3, r3, #12
 6708 0056 1A46     		mov	r2, r3
 6709 0058 FB68     		ldr	r3, [r7, #12]
 6710 005a 1360     		str	r3, [r2]
1579:Lib/AI_Runtime/Npu/ll_aton/ll_aton.c **** 
1580:Lib/AI_Runtime/Npu/ll_aton/ll_aton.c ****   if (conf->CBs_size != 0)
 6711              		.loc 1 1580 11
 6712 005c 3B68     		ldr	r3, [r7]
 6713 005e 1B69     		ldr	r3, [r3, #16]
 6714              		.loc 1 1580 6
 6715 0060 002B     		cmp	r3, #0
 6716 0062 0ED0     		beq	.L375
1581:Lib/AI_Runtime/Npu/ll_aton/ll_aton.c ****   {
1582:Lib/AI_Runtime/Npu/ll_aton/ll_aton.c ****     if (conf->nFormatBytes == 1)
 6717              		.loc 1 1582 13
 6718 0064 3B68     		ldr	r3, [r7]
 6719 0066 1B79     		ldrb	r3, [r3, #4]	@ zero_extendqisi2
 6720              		.loc 1 1582 8
 6721 0068 012B     		cmp	r3, #1
 6722 006a 05D1     		bne	.L376
1583:Lib/AI_Runtime/Npu/ll_aton/ll_aton.c ****     {
1584:Lib/AI_Runtime/Npu/ll_aton/ll_aton.c ****       LL_Decun_CB_1byte(id, conf, t);
 6723              		.loc 1 1584 7
 6724 006c FA68     		ldr	r2, [r7, #12]
ARM GAS  /tmp/ccxZaNgH.s 			page 159


 6725 006e 3968     		ldr	r1, [r7]
 6726 0070 7868     		ldr	r0, [r7, #4]
 6727 0072 FFF7FEFF 		bl	LL_Decun_CB_1byte
 6728 0076 04E0     		b	.L375
 6729              	.L376:
1585:Lib/AI_Runtime/Npu/ll_aton/ll_aton.c ****     }
1586:Lib/AI_Runtime/Npu/ll_aton/ll_aton.c ****     else
1587:Lib/AI_Runtime/Npu/ll_aton/ll_aton.c ****     {
1588:Lib/AI_Runtime/Npu/ll_aton/ll_aton.c ****       // LL_ATON_ASSERT(conf->nFormatBytes == 2);
1589:Lib/AI_Runtime/Npu/ll_aton/ll_aton.c ****       LL_Decun_CB_2byte(id, conf, t);
 6730              		.loc 1 1589 7
 6731 0078 FA68     		ldr	r2, [r7, #12]
 6732 007a 3968     		ldr	r1, [r7]
 6733 007c 7868     		ldr	r0, [r7, #4]
 6734 007e FFF7FEFF 		bl	LL_Decun_CB_2byte
 6735              	.L375:
1590:Lib/AI_Runtime/Npu/ll_aton/ll_aton.c ****     }
1591:Lib/AI_Runtime/Npu/ll_aton/ll_aton.c ****   }
1592:Lib/AI_Runtime/Npu/ll_aton/ll_aton.c **** 
1593:Lib/AI_Runtime/Npu/ll_aton/ll_aton.c ****   t = ATON_DECUN_BFORMAT_DT;
 6736              		.loc 1 1593 5
 6737 0082 0023     		movs	r3, #0
 6738 0084 FB60     		str	r3, [r7, #12]
1594:Lib/AI_Runtime/Npu/ll_aton/ll_aton.c ****   t = ATON_DECUN_BFORMAT_SET_CVS(t, conf->nCVperCB - 1);
 6739              		.loc 1 1594 7
 6740 0086 FB68     		ldr	r3, [r7, #12]
 6741 0088 23F0FF02 		bic	r2, r3, #255
 6742 008c 3B68     		ldr	r3, [r7]
 6743 008e 1B88     		ldrh	r3, [r3]
 6744 0090 013B     		subs	r3, r3, #1
 6745 0092 DBB2     		uxtb	r3, r3
 6746              		.loc 1 1594 5
 6747 0094 1343     		orrs	r3, r3, r2
 6748 0096 FB60     		str	r3, [r7, #12]
1595:Lib/AI_Runtime/Npu/ll_aton/ll_aton.c ****   t = ATON_DECUN_BFORMAT_SET_CWS(t, conf->nCWperCV - 1);
 6749              		.loc 1 1595 7
 6750 0098 FB68     		ldr	r3, [r7, #12]
 6751 009a 23F4E062 		bic	r2, r3, #1792
 6752 009e 3B68     		ldr	r3, [r7]
 6753 00a0 9B78     		ldrb	r3, [r3, #2]	@ zero_extendqisi2
 6754 00a2 013B     		subs	r3, r3, #1
 6755 00a4 1B02     		lsls	r3, r3, #8
 6756 00a6 03F4E063 		and	r3, r3, #1792
 6757              		.loc 1 1595 5
 6758 00aa 1343     		orrs	r3, r3, r2
 6759 00ac FB60     		str	r3, [r7, #12]
1596:Lib/AI_Runtime/Npu/ll_aton/ll_aton.c ****   t = ATON_DECUN_BFORMAT_SET_OSAM(t, conf->nRCWlastCV);
 6760              		.loc 1 1596 7
 6761 00ae FB68     		ldr	r3, [r7, #12]
 6762 00b0 23F4E042 		bic	r2, r3, #28672
 6763 00b4 3B68     		ldr	r3, [r7]
 6764 00b6 DB78     		ldrb	r3, [r3, #3]	@ zero_extendqisi2
 6765 00b8 1B03     		lsls	r3, r3, #12
 6766 00ba 03F4E043 		and	r3, r3, #28672
 6767              		.loc 1 1596 5
 6768 00be 1343     		orrs	r3, r3, r2
 6769 00c0 FB60     		str	r3, [r7, #12]
ARM GAS  /tmp/ccxZaNgH.s 			page 160


1597:Lib/AI_Runtime/Npu/ll_aton/ll_aton.c ****   ATON_DECUN_BFORMAT_SET(id, t);
 6770              		.loc 1 1597 3
 6771 00c2 7B68     		ldr	r3, [r7, #4]
 6772 00c4 1A03     		lsls	r2, r3, #12
 6773 00c6 1F4B     		ldr	r3, .L378
 6774 00c8 1344     		add	r3, r3, r2
 6775 00ca 1A46     		mov	r2, r3
 6776 00cc FB68     		ldr	r3, [r7, #12]
 6777 00ce 1360     		str	r3, [r2]
1598:Lib/AI_Runtime/Npu/ll_aton/ll_aton.c **** 
1599:Lib/AI_Runtime/Npu/ll_aton/ll_aton.c ****   LL_ATON_ASSERT((conf->nFormatBytes == 1) || (conf->nFormatBytes == 2));
 6778              		.loc 1 1599 3
 6779 00d0 3B68     		ldr	r3, [r7]
 6780 00d2 1B79     		ldrb	r3, [r3, #4]	@ zero_extendqisi2
 6781 00d4 012B     		cmp	r3, #1
 6782 00d6 0AD0     		beq	.L377
 6783              		.loc 1 1599 3 is_stmt 0 discriminator 1
 6784 00d8 3B68     		ldr	r3, [r7]
 6785 00da 1B79     		ldrb	r3, [r3, #4]	@ zero_extendqisi2
 6786 00dc 022B     		cmp	r3, #2
 6787 00de 06D0     		beq	.L377
 6788              		.loc 1 1599 3 discriminator 2
 6789 00e0 194B     		ldr	r3, .L378+4
 6790 00e2 1A4A     		ldr	r2, .L378+8
 6791 00e4 40F23F61 		movw	r1, #1599
 6792 00e8 1948     		ldr	r0, .L378+12
 6793 00ea FFF7FEFF 		bl	__assert_func
 6794              	.L377:
1600:Lib/AI_Runtime/Npu/ll_aton/ll_aton.c **** 
1601:Lib/AI_Runtime/Npu/ll_aton/ll_aton.c ****   t = ATON_DECUN_DFORMAT_DT;
 6795              		.loc 1 1601 5 is_stmt 1
 6796 00ee 0023     		movs	r3, #0
 6797 00f0 FB60     		str	r3, [r7, #12]
1602:Lib/AI_Runtime/Npu/ll_aton/ll_aton.c ****   t = ATON_DECUN_DFORMAT_SET_CV8(t, conf->nFormatBytes & 0x1);
 6798              		.loc 1 1602 7
 6799 00f2 FB68     		ldr	r3, [r7, #12]
 6800 00f4 23F00102 		bic	r2, r3, #1
 6801 00f8 3B68     		ldr	r3, [r7]
 6802 00fa 1B79     		ldrb	r3, [r3, #4]	@ zero_extendqisi2
 6803 00fc 03F00103 		and	r3, r3, #1
 6804              		.loc 1 1602 5
 6805 0100 1343     		orrs	r3, r3, r2
 6806 0102 FB60     		str	r3, [r7, #12]
1603:Lib/AI_Runtime/Npu/ll_aton/ll_aton.c ****   ATON_DECUN_DFORMAT_SET(id, t);
 6807              		.loc 1 1603 3
 6808 0104 7B68     		ldr	r3, [r7, #4]
 6809 0106 1A03     		lsls	r2, r3, #12
 6810 0108 124B     		ldr	r3, .L378+16
 6811 010a 1344     		add	r3, r3, r2
 6812 010c 1A46     		mov	r2, r3
 6813 010e FB68     		ldr	r3, [r7, #12]
 6814 0110 1360     		str	r3, [r2]
1604:Lib/AI_Runtime/Npu/ll_aton/ll_aton.c **** 
1605:Lib/AI_Runtime/Npu/ll_aton/ll_aton.c ****   t = ATON_DECUN_FFORMAT_DT;
 6815              		.loc 1 1605 5
 6816 0112 0023     		movs	r3, #0
 6817 0114 FB60     		str	r3, [r7, #12]
ARM GAS  /tmp/ccxZaNgH.s 			page 161


1606:Lib/AI_Runtime/Npu/ll_aton/ll_aton.c ****   t = ATON_DECUN_FFORMAT_SET_BN(t, conf->nBatches);
 6818              		.loc 1 1606 7
 6819 0116 FB68     		ldr	r3, [r7, #12]
 6820 0118 23F47F73 		bic	r3, r3, #1020
 6821 011c 23F00303 		bic	r3, r3, #3
 6822 0120 3A68     		ldr	r2, [r7]
 6823 0122 D288     		ldrh	r2, [r2, #6]
 6824 0124 C2F30902 		ubfx	r2, r2, #0, #10
 6825              		.loc 1 1606 5
 6826 0128 1343     		orrs	r3, r3, r2
 6827 012a FB60     		str	r3, [r7, #12]
1607:Lib/AI_Runtime/Npu/ll_aton/ll_aton.c ****   ATON_DECUN_FFORMAT_SET(id, t);
 6828              		.loc 1 1607 3
 6829 012c 7B68     		ldr	r3, [r7, #4]
 6830 012e 1A03     		lsls	r2, r3, #12
 6831 0130 094B     		ldr	r3, .L378+20
 6832 0132 1344     		add	r3, r3, r2
 6833 0134 1A46     		mov	r2, r3
 6834 0136 FB68     		ldr	r3, [r7, #12]
 6835 0138 1360     		str	r3, [r2]
1608:Lib/AI_Runtime/Npu/ll_aton/ll_aton.c **** 
1609:Lib/AI_Runtime/Npu/ll_aton/ll_aton.c ****   return LL_ATON_OK;
 6836              		.loc 1 1609 10
 6837 013a 0023     		movs	r3, #0
 6838              	.L374:
1610:Lib/AI_Runtime/Npu/ll_aton/ll_aton.c **** }
 6839              		.loc 1 1610 1
 6840 013c 1846     		mov	r0, r3
 6841 013e 1037     		adds	r7, r7, #16
 6842              		.cfi_def_cfa_offset 8
 6843 0140 BD46     		mov	sp, r7
 6844              		.cfi_def_cfa_register 13
 6845              		@ sp needed
 6846 0142 80BD     		pop	{r7, pc}
 6847              	.L379:
 6848              		.align	2
 6849              	.L378:
 6850 0144 08300F58 		.word	1477390344
 6851 0148 94020000 		.word	.LC31
 6852 014c 00000000 		.word	__func__.4
 6853 0150 3C000000 		.word	.LC4
 6854 0154 0C300F58 		.word	1477390348
 6855 0158 10300F58 		.word	1477390352
 6856              		.cfi_endproc
 6857              	.LFE4843:
 6859              		.section	.text.LL_Convacc_Init,"ax",%progbits
 6860              		.align	1
 6861              		.global	LL_Convacc_Init
 6862              		.syntax unified
 6863              		.thumb
 6864              		.thumb_func
 6866              	LL_Convacc_Init:
 6867              	.LFB4844:
1611:Lib/AI_Runtime/Npu/ll_aton/ll_aton.c **** #endif // ATON_DECUN_NUM
1612:Lib/AI_Runtime/Npu/ll_aton/ll_aton.c **** 
1613:Lib/AI_Runtime/Npu/ll_aton/ll_aton.c **** #ifdef ATON_CONVACC_NUM
1614:Lib/AI_Runtime/Npu/ll_aton/ll_aton.c **** /**
ARM GAS  /tmp/ccxZaNgH.s 			page 162


1615:Lib/AI_Runtime/Npu/ll_aton/ll_aton.c ****  * @brief  Configures Convolution Accelerator
1616:Lib/AI_Runtime/Npu/ll_aton/ll_aton.c ****  * @param  id Convolutional Accelerator identifier [0, ATON_CONVACC_NUM-1]
1617:Lib/AI_Runtime/Npu/ll_aton/ll_aton.c ****  * @param  Convacc_InitStruct Structure describing initialization parameters
1618:Lib/AI_Runtime/Npu/ll_aton/ll_aton.c ****  * @retval Error code E.g.: Invalid ID, invalid parameters, not idle,..
1619:Lib/AI_Runtime/Npu/ll_aton/ll_aton.c ****  */
1620:Lib/AI_Runtime/Npu/ll_aton/ll_aton.c **** int LL_Convacc_Init(int id, const LL_Convacc_InitTypeDef *conf)
1621:Lib/AI_Runtime/Npu/ll_aton/ll_aton.c **** {
 6868              		.loc 1 1621 1
 6869              		.cfi_startproc
 6870              		@ args = 0, pretend = 0, frame = 48
 6871              		@ frame_needed = 1, uses_anonymous_args = 0
 6872 0000 80B5     		push	{r7, lr}
 6873              		.cfi_def_cfa_offset 8
 6874              		.cfi_offset 7, -8
 6875              		.cfi_offset 14, -4
 6876 0002 8CB0     		sub	sp, sp, #48
 6877              		.cfi_def_cfa_offset 56
 6878 0004 00AF     		add	r7, sp, #0
 6879              		.cfi_def_cfa_register 7
 6880 0006 7860     		str	r0, [r7, #4]
 6881 0008 3960     		str	r1, [r7]
1622:Lib/AI_Runtime/Npu/ll_aton/ll_aton.c ****   uint32_t t;
1623:Lib/AI_Runtime/Npu/ll_aton/ll_aton.c **** 
1624:Lib/AI_Runtime/Npu/ll_aton/ll_aton.c ****   if (id >= ATON_CONVACC_NUM)
 6882              		.loc 1 1624 6
 6883 000a 7B68     		ldr	r3, [r7, #4]
 6884 000c 032B     		cmp	r3, #3
 6885 000e 02DD     		ble	.L381
1625:Lib/AI_Runtime/Npu/ll_aton/ll_aton.c ****     return LL_ATON_INVALID_ID;
 6886              		.loc 1 1625 12
 6887 0010 4FF0FF33 		mov	r3, #-1
 6888 0014 A8E3     		b	.L382
 6889              	.L381:
1626:Lib/AI_Runtime/Npu/ll_aton/ll_aton.c **** 
1627:Lib/AI_Runtime/Npu/ll_aton/ll_aton.c ****   LL_ATON_EnableClock(ATON_CONVACC_CLKB_CLK(id));
 6890              		.loc 1 1627 23
 6891 0016 7B68     		ldr	r3, [r7, #4]
 6892 0018 0A33     		adds	r3, r3, #10
 6893              		.loc 1 1627 3
 6894 001a 1846     		mov	r0, r3
 6895 001c FFF7FEFF 		bl	LL_ATON_EnableClock
1628:Lib/AI_Runtime/Npu/ll_aton/ll_aton.c **** 
1629:Lib/AI_Runtime/Npu/ll_aton/ll_aton.c ****   t = ATON_CONVACC_CTRL_DT;
 6896              		.loc 1 1629 5
 6897 0020 0023     		movs	r3, #0
 6898 0022 FB62     		str	r3, [r7, #44]
1630:Lib/AI_Runtime/Npu/ll_aton/ll_aton.c ****   t = ATON_CONVACC_CTRL_SET_NOSUM(t, (conf->accumulate == 0));
 6899              		.loc 1 1630 7
 6900 0024 FB6A     		ldr	r3, [r7, #44]
 6901 0026 23F00403 		bic	r3, r3, #4
 6902 002a 3A68     		ldr	r2, [r7]
 6903 002c 5278     		ldrb	r2, [r2, #1]
 6904 002e C2F38012 		ubfx	r2, r2, #6, #1
 6905 0032 D2B2     		uxtb	r2, r2
 6906 0034 002A     		cmp	r2, #0
 6907 0036 01D0     		beq	.L383
 6908              		.loc 1 1630 7 is_stmt 0 discriminator 1
ARM GAS  /tmp/ccxZaNgH.s 			page 163


 6909 0038 0022     		movs	r2, #0
 6910 003a 00E0     		b	.L384
 6911              	.L383:
 6912              		.loc 1 1630 7 discriminator 2
 6913 003c 0422     		movs	r2, #4
 6914              	.L384:
 6915              		.loc 1 1630 5 is_stmt 1 discriminator 4
 6916 003e 1343     		orrs	r3, r3, r2
 6917 0040 FB62     		str	r3, [r7, #44]
1631:Lib/AI_Runtime/Npu/ll_aton/ll_aton.c ****   t = ATON_CONVACC_CTRL_SET_NO1SUM(t, (conf->accumulate_first == 0));
 6918              		.loc 1 1631 7
 6919 0042 FB6A     		ldr	r3, [r7, #44]
 6920 0044 23F01003 		bic	r3, r3, #16
 6921 0048 3A68     		ldr	r2, [r7]
 6922 004a 5278     		ldrb	r2, [r2, #1]
 6923 004c C2F3C012 		ubfx	r2, r2, #7, #1
 6924 0050 D2B2     		uxtb	r2, r2
 6925 0052 002A     		cmp	r2, #0
 6926 0054 01D0     		beq	.L385
 6927              		.loc 1 1631 7 is_stmt 0 discriminator 1
 6928 0056 0022     		movs	r2, #0
 6929 0058 00E0     		b	.L386
 6930              	.L385:
 6931              		.loc 1 1631 7 discriminator 2
 6932 005a 1022     		movs	r2, #16
 6933              	.L386:
 6934              		.loc 1 1631 5 is_stmt 1 discriminator 4
 6935 005c 1343     		orrs	r3, r3, r2
 6936 005e FB62     		str	r3, [r7, #44]
1632:Lib/AI_Runtime/Npu/ll_aton/ll_aton.c ****   t = ATON_CONVACC_CTRL_SET_GEN1SUM(t, (conf->accumulate_gen_first != 0));
 6937              		.loc 1 1632 7
 6938 0060 FB6A     		ldr	r3, [r7, #44]
 6939 0062 23F48062 		bic	r2, r3, #1024
 6940 0066 3B68     		ldr	r3, [r7]
 6941 0068 9B78     		ldrb	r3, [r3, #2]	@ zero_extendqisi2
 6942 006a 9B02     		lsls	r3, r3, #10
 6943 006c 03F48063 		and	r3, r3, #1024
 6944              		.loc 1 1632 5
 6945 0070 1343     		orrs	r3, r3, r2
 6946 0072 FB62     		str	r3, [r7, #44]
1633:Lib/AI_Runtime/Npu/ll_aton/ll_aton.c ****   t = ATON_CONVACC_CTRL_SET_AFILTMODE(t, conf->afilt_mode);
 6947              		.loc 1 1633 7
 6948 0074 FB6A     		ldr	r3, [r7, #44]
 6949 0076 23F44072 		bic	r2, r3, #768
 6950 007a 3B68     		ldr	r3, [r7]
 6951 007c 93F82A30 		ldrb	r3, [r3, #42]	@ zero_extendqisi2
 6952 0080 1B02     		lsls	r3, r3, #8
 6953 0082 03F44073 		and	r3, r3, #768
 6954              		.loc 1 1633 5
 6955 0086 1343     		orrs	r3, r3, r2
 6956 0088 FB62     		str	r3, [r7, #44]
1634:Lib/AI_Runtime/Npu/ll_aton/ll_aton.c ****   t = ATON_CONVACC_CTRL_SET_SIMD(t, (conf->simd));
 6957              		.loc 1 1634 7
 6958 008a FB6A     		ldr	r3, [r7, #44]
 6959 008c 23F06002 		bic	r2, r3, #96
 6960 0090 3B68     		ldr	r3, [r7]
 6961 0092 5B78     		ldrb	r3, [r3, #1]
ARM GAS  /tmp/ccxZaNgH.s 			page 164


 6962 0094 C3F30113 		ubfx	r3, r3, #4, #2
 6963 0098 DBB2     		uxtb	r3, r3
 6964 009a 5B01     		lsls	r3, r3, #5
 6965 009c 03F06003 		and	r3, r3, #96
 6966              		.loc 1 1634 5
 6967 00a0 1343     		orrs	r3, r3, r2
 6968 00a2 FB62     		str	r3, [r7, #44]
1635:Lib/AI_Runtime/Npu/ll_aton/ll_aton.c ****   t = ATON_CONVACC_CTRL_SET_KT1(t, (conf->kt1_mode != 0));
 6969              		.loc 1 1635 7
 6970 00a4 FB6A     		ldr	r3, [r7, #44]
 6971 00a6 23F00802 		bic	r2, r3, #8
 6972 00aa 3B68     		ldr	r3, [r7]
 6973 00ac 9B78     		ldrb	r3, [r3, #2]	@ zero_extendqisi2
 6974 00ae 03F00803 		and	r3, r3, #8
 6975              		.loc 1 1635 5
 6976 00b2 1343     		orrs	r3, r3, r2
 6977 00b4 FB62     		str	r3, [r7, #44]
1636:Lib/AI_Runtime/Npu/ll_aton/ll_aton.c ****   t = ATON_CONVACC_CTRL_SET_KSETEN(t, conf->kseten);
 6978              		.loc 1 1636 7
 6979 00b6 FB6A     		ldr	r3, [r7, #44]
 6980 00b8 23F44002 		bic	r2, r3, #12582912
 6981 00bc 3B68     		ldr	r3, [r7]
 6982 00be DB78     		ldrb	r3, [r3, #3]
 6983 00c0 C3F30103 		ubfx	r3, r3, #0, #2
 6984 00c4 DBB2     		uxtb	r3, r3
 6985 00c6 9B05     		lsls	r3, r3, #22
 6986 00c8 03F44003 		and	r3, r3, #12582912
 6987              		.loc 1 1636 5
 6988 00cc 1343     		orrs	r3, r3, r2
 6989 00ce FB62     		str	r3, [r7, #44]
1637:Lib/AI_Runtime/Npu/ll_aton/ll_aton.c ****   t = ATON_CONVACC_CTRL_SET_FUNSIGNED(t, conf->f_unsigned);
 6990              		.loc 1 1637 7
 6991 00d0 FB6A     		ldr	r3, [r7, #44]
 6992 00d2 23F48012 		bic	r2, r3, #1048576
 6993 00d6 3B68     		ldr	r3, [r7]
 6994 00d8 9B78     		ldrb	r3, [r3, #2]
 6995 00da C3F38013 		ubfx	r3, r3, #6, #1
 6996 00de DBB2     		uxtb	r3, r3
 6997 00e0 1B05     		lsls	r3, r3, #20
 6998 00e2 03F48013 		and	r3, r3, #1048576
 6999              		.loc 1 1637 5
 7000 00e6 1343     		orrs	r3, r3, r2
 7001 00e8 FB62     		str	r3, [r7, #44]
1638:Lib/AI_Runtime/Npu/ll_aton/ll_aton.c ****   t = ATON_CONVACC_CTRL_SET_KUNSIGNED(t, conf->k_unsigned);
 7002              		.loc 1 1638 7
 7003 00ea FB6A     		ldr	r3, [r7, #44]
 7004 00ec 23F40012 		bic	r2, r3, #2097152
 7005 00f0 3B68     		ldr	r3, [r7]
 7006 00f2 9B78     		ldrb	r3, [r3, #2]
 7007 00f4 C3F3C013 		ubfx	r3, r3, #7, #1
 7008 00f8 DBB2     		uxtb	r3, r3
 7009 00fa 5B05     		lsls	r3, r3, #21
 7010 00fc 03F40013 		and	r3, r3, #2097152
 7011              		.loc 1 1638 5
 7012 0100 1343     		orrs	r3, r3, r2
 7013 0102 FB62     		str	r3, [r7, #44]
1639:Lib/AI_Runtime/Npu/ll_aton/ll_aton.c **** #if defined(ATON_CONVACC_CTRL_SET_FSTAT)
ARM GAS  /tmp/ccxZaNgH.s 			page 165


1640:Lib/AI_Runtime/Npu/ll_aton/ll_aton.c ****   t = ATON_CONVACC_CTRL_SET_FSTAT(t, (conf->fstat != 0));
 7014              		.loc 1 1640 7
 7015 0104 FB6A     		ldr	r3, [r7, #44]
 7016 0106 23F08072 		bic	r2, r3, #16777216
 7017 010a 3B68     		ldr	r3, [r7]
 7018 010c 9B78     		ldrb	r3, [r3, #2]	@ zero_extendqisi2
 7019 010e DB05     		lsls	r3, r3, #23
 7020 0110 03F08073 		and	r3, r3, #16777216
 7021              		.loc 1 1640 5
 7022 0114 1343     		orrs	r3, r3, r2
 7023 0116 FB62     		str	r3, [r7, #44]
1641:Lib/AI_Runtime/Npu/ll_aton/ll_aton.c **** #endif
1642:Lib/AI_Runtime/Npu/ll_aton/ll_aton.c **** 
1643:Lib/AI_Runtime/Npu/ll_aton/ll_aton.c **** #if defined(ATON_CONVACC_CTRL_GET_DEEPMODE)
1644:Lib/AI_Runtime/Npu/ll_aton/ll_aton.c ****   t = ATON_CONVACC_CTRL_SET_DEEPMODE(t, (conf->deepmode != 0));
 7024              		.loc 1 1644 7
 7025 0118 FB6A     		ldr	r3, [r7, #44]
 7026 011a 23F08052 		bic	r2, r3, #268435456
 7027 011e 3B68     		ldr	r3, [r7]
 7028 0120 9B78     		ldrb	r3, [r3, #2]	@ zero_extendqisi2
 7029 0122 1B06     		lsls	r3, r3, #24
 7030 0124 03F08053 		and	r3, r3, #268435456
 7031              		.loc 1 1644 5
 7032 0128 1343     		orrs	r3, r3, r2
 7033 012a FB62     		str	r3, [r7, #44]
1645:Lib/AI_Runtime/Npu/ll_aton/ll_aton.c **** #if defined(ATON_CONVACC_CTRL_SET_FSTAT)
1646:Lib/AI_Runtime/Npu/ll_aton/ll_aton.c ****   // deepmode and feature stats are incompatible
1647:Lib/AI_Runtime/Npu/ll_aton/ll_aton.c ****   if ((conf->fstat != 0) && (conf->deepmode != 0))
 7034              		.loc 1 1647 20
 7035 012c 3B68     		ldr	r3, [r7]
 7036 012e 9B78     		ldrb	r3, [r3, #2]	@ zero_extendqisi2
 7037 0130 03F00203 		and	r3, r3, #2
 7038 0134 DBB2     		uxtb	r3, r3
 7039              		.loc 1 1647 6
 7040 0136 002B     		cmp	r3, #0
 7041 0138 09D0     		beq	.L387
 7042              		.loc 1 1647 45 discriminator 1
 7043 013a 3B68     		ldr	r3, [r7]
 7044 013c 9B78     		ldrb	r3, [r3, #2]	@ zero_extendqisi2
 7045 013e 03F01003 		and	r3, r3, #16
 7046 0142 DBB2     		uxtb	r3, r3
 7047              		.loc 1 1647 26 discriminator 1
 7048 0144 002B     		cmp	r3, #0
 7049 0146 02D0     		beq	.L387
1648:Lib/AI_Runtime/Npu/ll_aton/ll_aton.c ****   {
1649:Lib/AI_Runtime/Npu/ll_aton/ll_aton.c ****     return LL_ATON_INVALID_PARAM;
 7050              		.loc 1 1649 12
 7051 0148 6FF00103 		mvn	r3, #1
 7052 014c 0CE3     		b	.L382
 7053              	.L387:
1650:Lib/AI_Runtime/Npu/ll_aton/ll_aton.c ****   }
1651:Lib/AI_Runtime/Npu/ll_aton/ll_aton.c **** #endif
1652:Lib/AI_Runtime/Npu/ll_aton/ll_aton.c **** #endif
1653:Lib/AI_Runtime/Npu/ll_aton/ll_aton.c **** 
1654:Lib/AI_Runtime/Npu/ll_aton/ll_aton.c **** #if defined(ATON_CONVACC_CTRL_GET_DSS2MODE)
1655:Lib/AI_Runtime/Npu/ll_aton/ll_aton.c ****   t = ATON_CONVACC_CTRL_SET_DSS2MODE(t, (conf->dss2mode != 0));
 7054              		.loc 1 1655 7
ARM GAS  /tmp/ccxZaNgH.s 			page 166


 7055 014e FB6A     		ldr	r3, [r7, #44]
 7056 0150 23F00052 		bic	r2, r3, #536870912
 7057 0154 3B68     		ldr	r3, [r7]
 7058 0156 9B78     		ldrb	r3, [r3, #2]	@ zero_extendqisi2
 7059 0158 1B06     		lsls	r3, r3, #24
 7060 015a 03F00053 		and	r3, r3, #536870912
 7061              		.loc 1 1655 5
 7062 015e 1343     		orrs	r3, r3, r2
 7063 0160 FB62     		str	r3, [r7, #44]
1656:Lib/AI_Runtime/Npu/ll_aton/ll_aton.c **** #if defined(ATON_CONVACC_CTRL_SET_FSTAT)
1657:Lib/AI_Runtime/Npu/ll_aton/ll_aton.c ****   // deepmode and feature stats are incompatible
1658:Lib/AI_Runtime/Npu/ll_aton/ll_aton.c ****   if ((conf->fstat != 0) && (conf->dss2mode != 0))
 7064              		.loc 1 1658 20
 7065 0162 3B68     		ldr	r3, [r7]
 7066 0164 9B78     		ldrb	r3, [r3, #2]	@ zero_extendqisi2
 7067 0166 03F00203 		and	r3, r3, #2
 7068 016a DBB2     		uxtb	r3, r3
 7069              		.loc 1 1658 6
 7070 016c 002B     		cmp	r3, #0
 7071 016e 09D0     		beq	.L388
 7072              		.loc 1 1658 45 discriminator 1
 7073 0170 3B68     		ldr	r3, [r7]
 7074 0172 9B78     		ldrb	r3, [r3, #2]	@ zero_extendqisi2
 7075 0174 03F02003 		and	r3, r3, #32
 7076 0178 DBB2     		uxtb	r3, r3
 7077              		.loc 1 1658 26 discriminator 1
 7078 017a 002B     		cmp	r3, #0
 7079 017c 02D0     		beq	.L388
1659:Lib/AI_Runtime/Npu/ll_aton/ll_aton.c ****   {
1660:Lib/AI_Runtime/Npu/ll_aton/ll_aton.c ****     return LL_ATON_INVALID_PARAM;
 7080              		.loc 1 1660 12
 7081 017e 6FF00103 		mvn	r3, #1
 7082 0182 F1E2     		b	.L382
 7083              	.L388:
1661:Lib/AI_Runtime/Npu/ll_aton/ll_aton.c ****   }
1662:Lib/AI_Runtime/Npu/ll_aton/ll_aton.c **** #endif
1663:Lib/AI_Runtime/Npu/ll_aton/ll_aton.c **** #endif
1664:Lib/AI_Runtime/Npu/ll_aton/ll_aton.c **** 
1665:Lib/AI_Runtime/Npu/ll_aton/ll_aton.c **** #if defined(ATON_CONVACC_CTRL_SET_DSS2MODE) && defined(ATON_CONVACC_CTRL_SET_DEEPMODE)
1666:Lib/AI_Runtime/Npu/ll_aton/ll_aton.c ****   // deepmode and dss2mode stats are incompatible
1667:Lib/AI_Runtime/Npu/ll_aton/ll_aton.c ****   if ((conf->dss2mode != 0) && (conf->deepmode != 0))
 7084              		.loc 1 1667 23
 7085 0184 3B68     		ldr	r3, [r7]
 7086 0186 9B78     		ldrb	r3, [r3, #2]	@ zero_extendqisi2
 7087 0188 03F02003 		and	r3, r3, #32
 7088 018c DBB2     		uxtb	r3, r3
 7089              		.loc 1 1667 6
 7090 018e 002B     		cmp	r3, #0
 7091 0190 09D0     		beq	.L389
 7092              		.loc 1 1667 48 discriminator 1
 7093 0192 3B68     		ldr	r3, [r7]
 7094 0194 9B78     		ldrb	r3, [r3, #2]	@ zero_extendqisi2
 7095 0196 03F01003 		and	r3, r3, #16
 7096 019a DBB2     		uxtb	r3, r3
 7097              		.loc 1 1667 29 discriminator 1
 7098 019c 002B     		cmp	r3, #0
 7099 019e 02D0     		beq	.L389
ARM GAS  /tmp/ccxZaNgH.s 			page 167


1668:Lib/AI_Runtime/Npu/ll_aton/ll_aton.c ****   {
1669:Lib/AI_Runtime/Npu/ll_aton/ll_aton.c ****     return LL_ATON_INVALID_PARAM;
 7100              		.loc 1 1669 12
 7101 01a0 6FF00103 		mvn	r3, #1
 7102 01a4 E0E2     		b	.L382
 7103              	.L389:
1670:Lib/AI_Runtime/Npu/ll_aton/ll_aton.c ****   }
1671:Lib/AI_Runtime/Npu/ll_aton/ll_aton.c **** #endif
1672:Lib/AI_Runtime/Npu/ll_aton/ll_aton.c **** 
1673:Lib/AI_Runtime/Npu/ll_aton/ll_aton.c ****   ATON_CONVACC_CTRL_SET(id, t);
 7104              		.loc 1 1673 3
 7105 01a6 7B68     		ldr	r3, [r7, #4]
 7106 01a8 03F5B023 		add	r3, r3, #360448
 7107 01ac EF33     		adds	r3, r3, #239
 7108 01ae 1B03     		lsls	r3, r3, #12
 7109 01b0 1A46     		mov	r2, r3
 7110 01b2 FB6A     		ldr	r3, [r7, #44]
 7111 01b4 1360     		str	r3, [r2]
1674:Lib/AI_Runtime/Npu/ll_aton/ll_aton.c ****   Conv_ctrl_bits[id] = t;
 7112              		.loc 1 1674 22
 7113 01b6 AC49     		ldr	r1, .L410
 7114 01b8 7B68     		ldr	r3, [r7, #4]
 7115 01ba FA6A     		ldr	r2, [r7, #44]
 7116 01bc 41F82320 		str	r2, [r1, r3, lsl #2]
1675:Lib/AI_Runtime/Npu/ll_aton/ll_aton.c **** 
1676:Lib/AI_Runtime/Npu/ll_aton/ll_aton.c ****   if (conf->afilt_mode != AFILT_MODE_NONE)
 7117              		.loc 1 1676 11
 7118 01c0 3B68     		ldr	r3, [r7]
 7119 01c2 93F82A30 		ldrb	r3, [r3, #42]	@ zero_extendqisi2
 7120              		.loc 1 1676 6
 7121 01c6 002B     		cmp	r3, #0
 7122 01c8 25D0     		beq	.L390
1677:Lib/AI_Runtime/Npu/ll_aton/ll_aton.c ****   {
1678:Lib/AI_Runtime/Npu/ll_aton/ll_aton.c ****     t = ATON_CONVACC_AFILT_DT;
 7123              		.loc 1 1678 7
 7124 01ca 0123     		movs	r3, #1
 7125 01cc FB62     		str	r3, [r7, #44]
1679:Lib/AI_Runtime/Npu/ll_aton/ll_aton.c ****     t = ATON_CONVACC_AFILT_SET_TOT(t, conf->afilt_tot);
 7126              		.loc 1 1679 9
 7127 01ce FB6A     		ldr	r3, [r7, #44]
 7128 01d0 23F0FF03 		bic	r3, r3, #255
 7129 01d4 3A68     		ldr	r2, [r7]
 7130 01d6 92F82B20 		ldrb	r2, [r2, #43]	@ zero_extendqisi2
 7131              		.loc 1 1679 7
 7132 01da 1343     		orrs	r3, r3, r2
 7133 01dc FB62     		str	r3, [r7, #44]
1680:Lib/AI_Runtime/Npu/ll_aton/ll_aton.c ****     t = ATON_CONVACC_AFILT_SET_FIRST(t, conf->afilt_first);
 7134              		.loc 1 1680 9
 7135 01de FB6A     		ldr	r3, [r7, #44]
 7136 01e0 23F47F42 		bic	r2, r3, #65280
 7137 01e4 3B68     		ldr	r3, [r7]
 7138 01e6 93F82C30 		ldrb	r3, [r3, #44]	@ zero_extendqisi2
 7139 01ea 1B02     		lsls	r3, r3, #8
 7140 01ec 9BB2     		uxth	r3, r3
 7141              		.loc 1 1680 7
 7142 01ee 1343     		orrs	r3, r3, r2
 7143 01f0 FB62     		str	r3, [r7, #44]
ARM GAS  /tmp/ccxZaNgH.s 			page 168


1681:Lib/AI_Runtime/Npu/ll_aton/ll_aton.c ****     t = ATON_CONVACC_AFILT_SET_LAST(t, conf->afilt_last);
 7144              		.loc 1 1681 9
 7145 01f2 FB6A     		ldr	r3, [r7, #44]
 7146 01f4 23F47F02 		bic	r2, r3, #16711680
 7147 01f8 3B68     		ldr	r3, [r7]
 7148 01fa 93F82D30 		ldrb	r3, [r3, #45]	@ zero_extendqisi2
 7149 01fe 1B04     		lsls	r3, r3, #16
 7150 0200 03F47F03 		and	r3, r3, #16711680
 7151              		.loc 1 1681 7
 7152 0204 1343     		orrs	r3, r3, r2
 7153 0206 FB62     		str	r3, [r7, #44]
1682:Lib/AI_Runtime/Npu/ll_aton/ll_aton.c ****     ATON_CONVACC_AFILT_SET(id, t);
 7154              		.loc 1 1682 5
 7155 0208 7B68     		ldr	r3, [r7, #4]
 7156 020a 1A03     		lsls	r2, r3, #12
 7157 020c 974B     		ldr	r3, .L410+4
 7158 020e 1344     		add	r3, r3, r2
 7159 0210 1A46     		mov	r2, r3
 7160 0212 FB6A     		ldr	r3, [r7, #44]
 7161 0214 1360     		str	r3, [r2]
 7162              	.L390:
1683:Lib/AI_Runtime/Npu/ll_aton/ll_aton.c ****   }
1684:Lib/AI_Runtime/Npu/ll_aton/ll_aton.c **** 
1685:Lib/AI_Runtime/Npu/ll_aton/ll_aton.c ****   if (conf->kfilt_tot > 0)
 7163              		.loc 1 1685 11
 7164 0216 3B68     		ldr	r3, [r7]
 7165 0218 93F82E30 		ldrb	r3, [r3, #46]	@ zero_extendqisi2
 7166              		.loc 1 1685 6
 7167 021c 002B     		cmp	r3, #0
 7168 021e 25D0     		beq	.L391
1686:Lib/AI_Runtime/Npu/ll_aton/ll_aton.c ****   {
1687:Lib/AI_Runtime/Npu/ll_aton/ll_aton.c ****     t = ATON_CONVACC_KFILT_DT;
 7169              		.loc 1 1687 7
 7170 0220 0123     		movs	r3, #1
 7171 0222 FB62     		str	r3, [r7, #44]
1688:Lib/AI_Runtime/Npu/ll_aton/ll_aton.c ****     t = ATON_CONVACC_KFILT_SET_TOT(t, conf->kfilt_tot);
 7172              		.loc 1 1688 9
 7173 0224 FB6A     		ldr	r3, [r7, #44]
 7174 0226 23F0FF03 		bic	r3, r3, #255
 7175 022a 3A68     		ldr	r2, [r7]
 7176 022c 92F82E20 		ldrb	r2, [r2, #46]	@ zero_extendqisi2
 7177              		.loc 1 1688 7
 7178 0230 1343     		orrs	r3, r3, r2
 7179 0232 FB62     		str	r3, [r7, #44]
1689:Lib/AI_Runtime/Npu/ll_aton/ll_aton.c ****     t = ATON_CONVACC_KFILT_SET_FIRST(t, conf->kfilt_first);
 7180              		.loc 1 1689 9
 7181 0234 FB6A     		ldr	r3, [r7, #44]
 7182 0236 23F47F42 		bic	r2, r3, #65280
 7183 023a 3B68     		ldr	r3, [r7]
 7184 023c 93F82F30 		ldrb	r3, [r3, #47]	@ zero_extendqisi2
 7185 0240 1B02     		lsls	r3, r3, #8
 7186 0242 9BB2     		uxth	r3, r3
 7187              		.loc 1 1689 7
 7188 0244 1343     		orrs	r3, r3, r2
 7189 0246 FB62     		str	r3, [r7, #44]
1690:Lib/AI_Runtime/Npu/ll_aton/ll_aton.c ****     t = ATON_CONVACC_KFILT_SET_LAST(t, conf->kfilt_last);
 7190              		.loc 1 1690 9
ARM GAS  /tmp/ccxZaNgH.s 			page 169


 7191 0248 FB6A     		ldr	r3, [r7, #44]
 7192 024a 23F47F02 		bic	r2, r3, #16711680
 7193 024e 3B68     		ldr	r3, [r7]
 7194 0250 93F83030 		ldrb	r3, [r3, #48]	@ zero_extendqisi2
 7195 0254 1B04     		lsls	r3, r3, #16
 7196 0256 03F47F03 		and	r3, r3, #16711680
 7197              		.loc 1 1690 7
 7198 025a 1343     		orrs	r3, r3, r2
 7199 025c FB62     		str	r3, [r7, #44]
1691:Lib/AI_Runtime/Npu/ll_aton/ll_aton.c ****     ATON_CONVACC_KFILT_SET(id, t);
 7200              		.loc 1 1691 5
 7201 025e 7B68     		ldr	r3, [r7, #4]
 7202 0260 1A03     		lsls	r2, r3, #12
 7203 0262 834B     		ldr	r3, .L410+8
 7204 0264 1344     		add	r3, r3, r2
 7205 0266 1A46     		mov	r2, r3
 7206 0268 FB6A     		ldr	r3, [r7, #44]
 7207 026a 1360     		str	r3, [r2]
 7208              	.L391:
1692:Lib/AI_Runtime/Npu/ll_aton/ll_aton.c ****   }
1693:Lib/AI_Runtime/Npu/ll_aton/ll_aton.c **** 
1694:Lib/AI_Runtime/Npu/ll_aton/ll_aton.c ****   t = ATON_CONVACC_DFORMAT_DT;
 7209              		.loc 1 1694 5
 7210 026c 814B     		ldr	r3, .L410+12
 7211 026e FB62     		str	r3, [r7, #44]
1695:Lib/AI_Runtime/Npu/ll_aton/ll_aton.c ****   t = ATON_CONVACC_DFORMAT_SET_FROUND(t, conf->rounding_f);
 7212              		.loc 1 1695 7
 7213 0270 FB6A     		ldr	r3, [r7, #44]
 7214 0272 23F08042 		bic	r2, r3, #1073741824
 7215 0276 3B68     		ldr	r3, [r7]
 7216 0278 1B78     		ldrb	r3, [r3]
 7217 027a C3F30003 		ubfx	r3, r3, #0, #1
 7218 027e DBB2     		uxtb	r3, r3
 7219 0280 9B07     		lsls	r3, r3, #30
 7220 0282 03F08043 		and	r3, r3, #1073741824
 7221              		.loc 1 1695 5
 7222 0286 1343     		orrs	r3, r3, r2
 7223 0288 FB62     		str	r3, [r7, #44]
1696:Lib/AI_Runtime/Npu/ll_aton/ll_aton.c ****   t = ATON_CONVACC_DFORMAT_SET_FSAT(t, conf->saturation_f);
 7224              		.loc 1 1696 7
 7225 028a FB6A     		ldr	r3, [r7, #44]
 7226 028c 23F00042 		bic	r2, r3, #-2147483648
 7227 0290 3B68     		ldr	r3, [r7]
 7228 0292 1B78     		ldrb	r3, [r3]
 7229 0294 C3F34003 		ubfx	r3, r3, #1, #1
 7230 0298 DBB2     		uxtb	r3, r3
 7231 029a DB07     		lsls	r3, r3, #31
 7232              		.loc 1 1696 5
 7233 029c 1343     		orrs	r3, r3, r2
 7234 029e FB62     		str	r3, [r7, #44]
1697:Lib/AI_Runtime/Npu/ll_aton/ll_aton.c ****   t = ATON_CONVACC_DFORMAT_SET_FRNDMODE(t, conf->round_mode_f);
 7235              		.loc 1 1697 7
 7236 02a0 FB6A     		ldr	r3, [r7, #44]
 7237 02a2 23F0C002 		bic	r2, r3, #192
 7238 02a6 3B68     		ldr	r3, [r7]
 7239 02a8 1B78     		ldrb	r3, [r3]
 7240 02aa C3F38103 		ubfx	r3, r3, #2, #2
ARM GAS  /tmp/ccxZaNgH.s 			page 170


 7241 02ae DBB2     		uxtb	r3, r3
 7242 02b0 9B01     		lsls	r3, r3, #6
 7243 02b2 DBB2     		uxtb	r3, r3
 7244              		.loc 1 1697 5
 7245 02b4 1343     		orrs	r3, r3, r2
 7246 02b6 FB62     		str	r3, [r7, #44]
1698:Lib/AI_Runtime/Npu/ll_aton/ll_aton.c ****   t = ATON_CONVACC_DFORMAT_SET_FBYTES(t, conf->inbytes_f);
 7247              		.loc 1 1698 7
 7248 02b8 FB6A     		ldr	r3, [r7, #44]
 7249 02ba 23F44002 		bic	r2, r3, #12582912
 7250 02be 3B68     		ldr	r3, [r7]
 7251 02c0 1B78     		ldrb	r3, [r3]
 7252 02c2 C3F30113 		ubfx	r3, r3, #4, #2
 7253 02c6 DBB2     		uxtb	r3, r3
 7254 02c8 9B05     		lsls	r3, r3, #22
 7255 02ca 03F44003 		and	r3, r3, #12582912
 7256              		.loc 1 1698 5
 7257 02ce 1343     		orrs	r3, r3, r2
 7258 02d0 FB62     		str	r3, [r7, #44]
1699:Lib/AI_Runtime/Npu/ll_aton/ll_aton.c ****   t = ATON_CONVACC_DFORMAT_SET_FSHIFT(t, ATON_SHIFT(conf->shift_f));
 7259              		.loc 1 1699 7
 7260 02d2 FB6A     		ldr	r3, [r7, #44]
 7261 02d4 23F07C52 		bic	r2, r3, #1056964608
 7262 02d8 3B68     		ldr	r3, [r7]
 7263 02da 1B79     		ldrb	r3, [r3, #4]	@ zero_extendqisi2
 7264 02dc 1033     		adds	r3, r3, #16
 7265 02de 1B06     		lsls	r3, r3, #24
 7266 02e0 03F07C53 		and	r3, r3, #1056964608
 7267              		.loc 1 1699 5
 7268 02e4 1343     		orrs	r3, r3, r2
 7269 02e6 FB62     		str	r3, [r7, #44]
1700:Lib/AI_Runtime/Npu/ll_aton/ll_aton.c **** 
1701:Lib/AI_Runtime/Npu/ll_aton/ll_aton.c ****   t = ATON_CONVACC_DFORMAT_SET_ROUND(t, conf->rounding_o);
 7270              		.loc 1 1701 7
 7271 02e8 FB6A     		ldr	r3, [r7, #44]
 7272 02ea 23F48032 		bic	r2, r3, #65536
 7273 02ee 3B68     		ldr	r3, [r7]
 7274 02f0 1B78     		ldrb	r3, [r3]
 7275 02f2 C3F38013 		ubfx	r3, r3, #6, #1
 7276 02f6 DBB2     		uxtb	r3, r3
 7277 02f8 1B04     		lsls	r3, r3, #16
 7278 02fa 03F48033 		and	r3, r3, #65536
 7279              		.loc 1 1701 5
 7280 02fe 1343     		orrs	r3, r3, r2
 7281 0300 FB62     		str	r3, [r7, #44]
1702:Lib/AI_Runtime/Npu/ll_aton/ll_aton.c ****   t = ATON_CONVACC_DFORMAT_SET_SAT(t, conf->saturation_o);
 7282              		.loc 1 1702 7
 7283 0302 FB6A     		ldr	r3, [r7, #44]
 7284 0304 23F40032 		bic	r2, r3, #131072
 7285 0308 3B68     		ldr	r3, [r7]
 7286 030a 1B78     		ldrb	r3, [r3]
 7287 030c C3F3C013 		ubfx	r3, r3, #7, #1
 7288 0310 DBB2     		uxtb	r3, r3
 7289 0312 5B04     		lsls	r3, r3, #17
 7290 0314 03F40033 		and	r3, r3, #131072
 7291              		.loc 1 1702 5
 7292 0318 1343     		orrs	r3, r3, r2
ARM GAS  /tmp/ccxZaNgH.s 			page 171


 7293 031a FB62     		str	r3, [r7, #44]
1703:Lib/AI_Runtime/Npu/ll_aton/ll_aton.c ****   t = ATON_CONVACC_DFORMAT_SET_ORNDMODE(t, (conf->relu_mode_o << 1) | conf->round_mode_o);
 7294              		.loc 1 1703 7
 7295 031c FB6A     		ldr	r3, [r7, #44]
 7296 031e 23F44042 		bic	r2, r3, #49152
 7297 0322 3B68     		ldr	r3, [r7]
 7298 0324 5B78     		ldrb	r3, [r3, #1]
 7299 0326 C3F34003 		ubfx	r3, r3, #1, #1
 7300 032a DBB2     		uxtb	r3, r3
 7301 032c 5B00     		lsls	r3, r3, #1
 7302 032e 3968     		ldr	r1, [r7]
 7303 0330 4978     		ldrb	r1, [r1, #1]
 7304 0332 C1F30001 		ubfx	r1, r1, #0, #1
 7305 0336 C9B2     		uxtb	r1, r1
 7306 0338 0B43     		orrs	r3, r3, r1
 7307 033a 9B03     		lsls	r3, r3, #14
 7308 033c 9BB2     		uxth	r3, r3
 7309              		.loc 1 1703 5
 7310 033e 1343     		orrs	r3, r3, r2
 7311 0340 FB62     		str	r3, [r7, #44]
1704:Lib/AI_Runtime/Npu/ll_aton/ll_aton.c ****   t = ATON_CONVACC_DFORMAT_SET_OBYTES(t, conf->outbytes_o);
 7312              		.loc 1 1704 7
 7313 0342 FB6A     		ldr	r3, [r7, #44]
 7314 0344 23F44012 		bic	r2, r3, #3145728
 7315 0348 3B68     		ldr	r3, [r7]
 7316 034a 5B78     		ldrb	r3, [r3, #1]
 7317 034c C3F38103 		ubfx	r3, r3, #2, #2
 7318 0350 DBB2     		uxtb	r3, r3
 7319 0352 1B05     		lsls	r3, r3, #20
 7320 0354 03F44013 		and	r3, r3, #3145728
 7321              		.loc 1 1704 5
 7322 0358 1343     		orrs	r3, r3, r2
 7323 035a FB62     		str	r3, [r7, #44]
1705:Lib/AI_Runtime/Npu/ll_aton/ll_aton.c ****   t = ATON_CONVACC_DFORMAT_SET_OUTSHIFT(t, conf->shift_o); // shift right only
 7324              		.loc 1 1705 7
 7325 035c FB6A     		ldr	r3, [r7, #44]
 7326 035e 23F47C52 		bic	r2, r3, #16128
 7327 0362 3B68     		ldr	r3, [r7]
 7328 0364 9B79     		ldrb	r3, [r3, #6]	@ zero_extendqisi2
 7329 0366 1B02     		lsls	r3, r3, #8
 7330 0368 03F47C53 		and	r3, r3, #16128
 7331              		.loc 1 1705 5
 7332 036c 1343     		orrs	r3, r3, r2
 7333 036e FB62     		str	r3, [r7, #44]
1706:Lib/AI_Runtime/Npu/ll_aton/ll_aton.c ****   t = ATON_CONVACC_DFORMAT_SET_RAW(t, conf->raw_o);
 7334              		.loc 1 1706 7
 7335 0370 FB6A     		ldr	r3, [r7, #44]
 7336 0372 23F48022 		bic	r2, r3, #262144
 7337 0376 3B68     		ldr	r3, [r7]
 7338 0378 9B78     		ldrb	r3, [r3, #2]
 7339 037a C3F38003 		ubfx	r3, r3, #2, #1
 7340 037e DBB2     		uxtb	r3, r3
 7341 0380 9B04     		lsls	r3, r3, #18
 7342 0382 03F48023 		and	r3, r3, #262144
 7343              		.loc 1 1706 5
 7344 0386 1343     		orrs	r3, r3, r2
 7345 0388 FB62     		str	r3, [r7, #44]
ARM GAS  /tmp/ccxZaNgH.s 			page 172


1707:Lib/AI_Runtime/Npu/ll_aton/ll_aton.c **** 
1708:Lib/AI_Runtime/Npu/ll_aton/ll_aton.c ****   t = ATON_CONVACC_DFORMAT_SET_INSHIFT(t, conf->shift_a); // accumulator shift left really (macro n
 7346              		.loc 1 1708 7
 7347 038a FB6A     		ldr	r3, [r7, #44]
 7348 038c 23F03F02 		bic	r2, r3, #63
 7349 0390 3B68     		ldr	r3, [r7]
 7350 0392 5B79     		ldrb	r3, [r3, #5]	@ zero_extendqisi2
 7351 0394 03F03F03 		and	r3, r3, #63
 7352              		.loc 1 1708 5
 7353 0398 1343     		orrs	r3, r3, r2
 7354 039a FB62     		str	r3, [r7, #44]
1709:Lib/AI_Runtime/Npu/ll_aton/ll_aton.c ****   ATON_CONVACC_DFORMAT_SET(id, t);
 7355              		.loc 1 1709 3
 7356 039c 7B68     		ldr	r3, [r7, #4]
 7357 039e 1A03     		lsls	r2, r3, #12
 7358 03a0 354B     		ldr	r3, .L410+16
 7359 03a2 1344     		add	r3, r3, r2
 7360 03a4 1A46     		mov	r2, r3
 7361 03a6 FB6A     		ldr	r3, [r7, #44]
 7362 03a8 1360     		str	r3, [r2]
1710:Lib/AI_Runtime/Npu/ll_aton/ll_aton.c **** 
1711:Lib/AI_Runtime/Npu/ll_aton/ll_aton.c ****   t = ATON_CONVACC_FFORMAT_DT;
 7363              		.loc 1 1711 5
 7364 03aa 4FF0FF33 		mov	r3, #-1
 7365 03ae FB62     		str	r3, [r7, #44]
1712:Lib/AI_Runtime/Npu/ll_aton/ll_aton.c ****   t = ATON_CONVACC_FFORMAT_SET_WIDTH(t, conf->fWidth * conf->batchDepth);
 7366              		.loc 1 1712 7
 7367 03b0 FB6A     		ldr	r3, [r7, #44]
 7368 03b2 1B0C     		lsrs	r3, r3, #16
 7369 03b4 1B04     		lsls	r3, r3, #16
 7370 03b6 3A68     		ldr	r2, [r7]
 7371 03b8 9268     		ldr	r2, [r2, #8]
 7372 03ba 3968     		ldr	r1, [r7]
 7373 03bc 898A     		ldrh	r1, [r1, #20]
 7374 03be 01FB02F2 		mul	r2, r1, r2
 7375 03c2 92B2     		uxth	r2, r2
 7376              		.loc 1 1712 5
 7377 03c4 1343     		orrs	r3, r3, r2
 7378 03c6 FB62     		str	r3, [r7, #44]
1713:Lib/AI_Runtime/Npu/ll_aton/ll_aton.c ****   t = ATON_CONVACC_FFORMAT_SET_HEIGHT(t, conf->fHeight);
 7379              		.loc 1 1713 7
 7380 03c8 FB6A     		ldr	r3, [r7, #44]
 7381 03ca 9AB2     		uxth	r2, r3
 7382 03cc 3B68     		ldr	r3, [r7]
 7383 03ce DB68     		ldr	r3, [r3, #12]
 7384 03d0 1B04     		lsls	r3, r3, #16
 7385              		.loc 1 1713 5
 7386 03d2 1343     		orrs	r3, r3, r2
 7387 03d4 FB62     		str	r3, [r7, #44]
1714:Lib/AI_Runtime/Npu/ll_aton/ll_aton.c ****   ATON_CONVACC_FFORMAT_SET(id, t);
 7388              		.loc 1 1714 3
 7389 03d6 7B68     		ldr	r3, [r7, #4]
 7390 03d8 1A03     		lsls	r2, r3, #12
 7391 03da 284B     		ldr	r3, .L410+20
 7392 03dc 1344     		add	r3, r3, r2
 7393 03de 1A46     		mov	r2, r3
 7394 03e0 FB6A     		ldr	r3, [r7, #44]
ARM GAS  /tmp/ccxZaNgH.s 			page 173


 7395 03e2 1360     		str	r3, [r2]
1715:Lib/AI_Runtime/Npu/ll_aton/ll_aton.c **** 
1716:Lib/AI_Runtime/Npu/ll_aton/ll_aton.c ****   t = ATON_CONVACC_KFORMAT_DT;
 7396              		.loc 1 1716 5
 7397 03e4 264B     		ldr	r3, .L410+24
 7398 03e6 FB62     		str	r3, [r7, #44]
1717:Lib/AI_Runtime/Npu/ll_aton/ll_aton.c ****   t = ATON_CONVACC_KFORMAT_SET_WIDTH(t, conf->kernelWidth);
 7399              		.loc 1 1717 7
 7400 03e8 FB6A     		ldr	r3, [r7, #44]
 7401 03ea 23F0FF03 		bic	r3, r3, #255
 7402 03ee 3A68     		ldr	r2, [r7]
 7403 03f0 127C     		ldrb	r2, [r2, #16]	@ zero_extendqisi2
 7404              		.loc 1 1717 5
 7405 03f2 1343     		orrs	r3, r3, r2
 7406 03f4 FB62     		str	r3, [r7, #44]
1718:Lib/AI_Runtime/Npu/ll_aton/ll_aton.c ****   t = ATON_CONVACC_KFORMAT_SET_HEIGHT(t, conf->kernelHeight);
 7407              		.loc 1 1718 7
 7408 03f6 FB6A     		ldr	r3, [r7, #44]
 7409 03f8 23F47F42 		bic	r2, r3, #65280
 7410 03fc 3B68     		ldr	r3, [r7]
 7411 03fe 5B7C     		ldrb	r3, [r3, #17]	@ zero_extendqisi2
 7412 0400 1B02     		lsls	r3, r3, #8
 7413 0402 9BB2     		uxth	r3, r3
 7414              		.loc 1 1718 5
 7415 0404 1343     		orrs	r3, r3, r2
 7416 0406 FB62     		str	r3, [r7, #44]
1719:Lib/AI_Runtime/Npu/ll_aton/ll_aton.c ****   t = ATON_CONVACC_KFORMAT_SET_BTCDEPTH(t, conf->batchDepth);
 7417              		.loc 1 1719 7
 7418 0408 FB6A     		ldr	r3, [r7, #44]
 7419 040a 23F47F02 		bic	r2, r3, #16711680
 7420 040e 3B68     		ldr	r3, [r7]
 7421 0410 9B8A     		ldrh	r3, [r3, #20]
 7422 0412 1B04     		lsls	r3, r3, #16
 7423 0414 03F47F03 		and	r3, r3, #16711680
 7424              		.loc 1 1719 5
 7425 0418 1343     		orrs	r3, r3, r2
 7426 041a FB62     		str	r3, [r7, #44]
1720:Lib/AI_Runtime/Npu/ll_aton/ll_aton.c ****   t = ATON_CONVACC_KFORMAT_SET_NR(t, conf->nKernels);
 7427              		.loc 1 1720 7
 7428 041c FB6A     		ldr	r3, [r7, #44]
 7429 041e 23F07F42 		bic	r2, r3, #-16777216
 7430 0422 3B68     		ldr	r3, [r7]
 7431 0424 9B7C     		ldrb	r3, [r3, #18]	@ zero_extendqisi2
 7432 0426 1B06     		lsls	r3, r3, #24
 7433              		.loc 1 1720 5
 7434 0428 1343     		orrs	r3, r3, r2
 7435 042a FB62     		str	r3, [r7, #44]
1721:Lib/AI_Runtime/Npu/ll_aton/ll_aton.c ****   ATON_CONVACC_KFORMAT_SET(id, t);
 7436              		.loc 1 1721 3
 7437 042c 7B68     		ldr	r3, [r7, #4]
 7438 042e 1A03     		lsls	r2, r3, #12
 7439 0430 144B     		ldr	r3, .L410+28
 7440 0432 1344     		add	r3, r3, r2
 7441 0434 1A46     		mov	r2, r3
 7442 0436 FB6A     		ldr	r3, [r7, #44]
 7443 0438 1360     		str	r3, [r2]
1722:Lib/AI_Runtime/Npu/ll_aton/ll_aton.c **** 
ARM GAS  /tmp/ccxZaNgH.s 			page 174


1723:Lib/AI_Runtime/Npu/ll_aton/ll_aton.c ****   // LL_ATON_PRINTF("depth=%d k_w=%d k_h=%d\n",conf->batchDepth,conf->kernelWidth,conf->kernelHeigh
1724:Lib/AI_Runtime/Npu/ll_aton/ll_aton.c ****   // LL_ATON_PRINTF("pad_t=%d pad_b=%d pad_l=%d
1725:Lib/AI_Runtime/Npu/ll_aton/ll_aton.c ****   // pad_r=%d\n",conf->top_padding,conf->bot_padding,conf->left_padding,conf->right_padding);
1726:Lib/AI_Runtime/Npu/ll_aton/ll_aton.c **** 
1727:Lib/AI_Runtime/Npu/ll_aton/ll_aton.c ****   int p_top = (conf->top_padding < conf->kernelHeight ? conf->top_padding : conf->kernelHeight - 1)
 7444              		.loc 1 1727 20
 7445 043a 3B68     		ldr	r3, [r7]
 7446 043c 9B8B     		ldrh	r3, [r3, #28]
 7447              		.loc 1 1727 40
 7448 043e 3A68     		ldr	r2, [r7]
 7449 0440 527C     		ldrb	r2, [r2, #17]	@ zero_extendqisi2
 7450              		.loc 1 1727 75
 7451 0442 9342     		cmp	r3, r2
 7452 0444 02D2     		bcs	.L392
 7453              		.loc 1 1727 61 discriminator 1
 7454 0446 3B68     		ldr	r3, [r7]
 7455 0448 9B8B     		ldrh	r3, [r3, #28]
 7456 044a 02E0     		b	.L393
 7457              	.L392:
 7458              		.loc 1 1727 81 discriminator 2
 7459 044c 3B68     		ldr	r3, [r7]
 7460 044e 5B7C     		ldrb	r3, [r3, #17]	@ zero_extendqisi2
 7461              		.loc 1 1727 75 discriminator 2
 7462 0450 013B     		subs	r3, r3, #1
 7463              	.L393:
 7464              		.loc 1 1727 7 discriminator 4
 7465 0452 BB62     		str	r3, [r7, #40]
1728:Lib/AI_Runtime/Npu/ll_aton/ll_aton.c ****   int p_bot = (conf->bot_padding < conf->kernelHeight ? conf->bot_padding : conf->kernelHeight - 1)
 7466              		.loc 1 1728 20
 7467 0454 3B68     		ldr	r3, [r7]
 7468 0456 DB8B     		ldrh	r3, [r3, #30]
 7469              		.loc 1 1728 40
 7470 0458 3A68     		ldr	r2, [r7]
 7471 045a 527C     		ldrb	r2, [r2, #17]	@ zero_extendqisi2
 7472              		.loc 1 1728 75
 7473 045c 9342     		cmp	r3, r2
 7474 045e 13D2     		bcs	.L394
 7475              		.loc 1 1728 61 discriminator 1
 7476 0460 3B68     		ldr	r3, [r7]
 7477 0462 DB8B     		ldrh	r3, [r3, #30]
 7478 0464 13E0     		b	.L395
 7479              	.L411:
 7480 0466 00BF     		.align	2
 7481              	.L410:
 7482 0468 00000000 		.word	Conv_ctrl_bits
 7483 046c 24F00E58 		.word	1477373988
 7484 0470 20F00E58 		.word	1477373984
 7485 0474 0808B010 		.word	279971848
 7486 0478 10F00E58 		.word	1477373968
 7487 047c 14F00E58 		.word	1477373972
 7488 0480 03030101 		.word	16843523
 7489 0484 08F00E58 		.word	1477373960
 7490              	.L394:
 7491              		.loc 1 1728 81 discriminator 2
 7492 0488 3B68     		ldr	r3, [r7]
 7493 048a 5B7C     		ldrb	r3, [r3, #17]	@ zero_extendqisi2
 7494              		.loc 1 1728 75 discriminator 2
ARM GAS  /tmp/ccxZaNgH.s 			page 175


 7495 048c 013B     		subs	r3, r3, #1
 7496              	.L395:
 7497              		.loc 1 1728 7 discriminator 4
 7498 048e 7B62     		str	r3, [r7, #36]
1729:Lib/AI_Runtime/Npu/ll_aton/ll_aton.c ****   int p_left = (conf->left_padding < conf->kernelWidth ? conf->left_padding : conf->kernelWidth - 1
 7499              		.loc 1 1729 21
 7500 0490 3B68     		ldr	r3, [r7]
 7501 0492 1B8B     		ldrh	r3, [r3, #24]
 7502              		.loc 1 1729 42
 7503 0494 3A68     		ldr	r2, [r7]
 7504 0496 127C     		ldrb	r2, [r2, #16]	@ zero_extendqisi2
 7505              		.loc 1 1729 77
 7506 0498 9342     		cmp	r3, r2
 7507 049a 02D2     		bcs	.L396
 7508              		.loc 1 1729 62 discriminator 1
 7509 049c 3B68     		ldr	r3, [r7]
 7510 049e 1B8B     		ldrh	r3, [r3, #24]
 7511 04a0 02E0     		b	.L397
 7512              	.L396:
 7513              		.loc 1 1729 83 discriminator 2
 7514 04a2 3B68     		ldr	r3, [r7]
 7515 04a4 1B7C     		ldrb	r3, [r3, #16]	@ zero_extendqisi2
 7516              		.loc 1 1729 77 discriminator 2
 7517 04a6 013B     		subs	r3, r3, #1
 7518              	.L397:
 7519              		.loc 1 1729 7 discriminator 4
 7520 04a8 3B62     		str	r3, [r7, #32]
1730:Lib/AI_Runtime/Npu/ll_aton/ll_aton.c ****   int p_right = (conf->right_padding < conf->kernelWidth ? conf->right_padding : conf->kernelWidth 
 7521              		.loc 1 1730 22
 7522 04aa 3B68     		ldr	r3, [r7]
 7523 04ac 5B8B     		ldrh	r3, [r3, #26]
 7524              		.loc 1 1730 44
 7525 04ae 3A68     		ldr	r2, [r7]
 7526 04b0 127C     		ldrb	r2, [r2, #16]	@ zero_extendqisi2
 7527              		.loc 1 1730 80
 7528 04b2 9342     		cmp	r3, r2
 7529 04b4 02D2     		bcs	.L398
 7530              		.loc 1 1730 64 discriminator 1
 7531 04b6 3B68     		ldr	r3, [r7]
 7532 04b8 5B8B     		ldrh	r3, [r3, #26]
 7533 04ba 02E0     		b	.L399
 7534              	.L398:
 7535              		.loc 1 1730 86 discriminator 2
 7536 04bc 3B68     		ldr	r3, [r7]
 7537 04be 1B7C     		ldrb	r3, [r3, #16]	@ zero_extendqisi2
 7538              		.loc 1 1730 80 discriminator 2
 7539 04c0 013B     		subs	r3, r3, #1
 7540              	.L399:
 7541              		.loc 1 1730 7 discriminator 4
 7542 04c2 FB61     		str	r3, [r7, #28]
1731:Lib/AI_Runtime/Npu/ll_aton/ll_aton.c **** 
1732:Lib/AI_Runtime/Npu/ll_aton/ll_aton.c ****   p_top = (p_top <= 2 ? p_top : 2);
 7543              		.loc 1 1732 9
 7544 04c4 BB6A     		ldr	r3, [r7, #40]
 7545 04c6 022B     		cmp	r3, #2
 7546 04c8 A8BF     		it	ge
 7547 04ca 0223     		movge	r3, #2
ARM GAS  /tmp/ccxZaNgH.s 			page 176


 7548 04cc BB62     		str	r3, [r7, #40]
1733:Lib/AI_Runtime/Npu/ll_aton/ll_aton.c ****   p_bot = (p_bot <= 2 ? p_bot : 2);
 7549              		.loc 1 1733 9
 7550 04ce 7B6A     		ldr	r3, [r7, #36]
 7551 04d0 022B     		cmp	r3, #2
 7552 04d2 A8BF     		it	ge
 7553 04d4 0223     		movge	r3, #2
 7554 04d6 7B62     		str	r3, [r7, #36]
1734:Lib/AI_Runtime/Npu/ll_aton/ll_aton.c ****   p_left = (p_left <= 2 ? p_left : 2);
 7555              		.loc 1 1734 10
 7556 04d8 3B6A     		ldr	r3, [r7, #32]
 7557 04da 022B     		cmp	r3, #2
 7558 04dc A8BF     		it	ge
 7559 04de 0223     		movge	r3, #2
 7560 04e0 3B62     		str	r3, [r7, #32]
1735:Lib/AI_Runtime/Npu/ll_aton/ll_aton.c ****   p_right = (p_right <= 2 ? p_right : 2);
 7561              		.loc 1 1735 11
 7562 04e2 FB69     		ldr	r3, [r7, #28]
 7563 04e4 022B     		cmp	r3, #2
 7564 04e6 A8BF     		it	ge
 7565 04e8 0223     		movge	r3, #2
 7566 04ea FB61     		str	r3, [r7, #28]
1736:Lib/AI_Runtime/Npu/ll_aton/ll_aton.c ****   // LL_ATON_PRINTF("p_t=%d p_b=%d p_l=%d p_r=%d\n",p_top,p_bot,p_left,p_right);
1737:Lib/AI_Runtime/Npu/ll_aton/ll_aton.c **** 
1738:Lib/AI_Runtime/Npu/ll_aton/ll_aton.c **** #if defined(ATON_CONVACC_CTRL_GET_DEEPMODE)
1739:Lib/AI_Runtime/Npu/ll_aton/ll_aton.c ****   // no pad mode available in 1x1 deepmode
1740:Lib/AI_Runtime/Npu/ll_aton/ll_aton.c ****   // will accomodate padding only with zframe below
1741:Lib/AI_Runtime/Npu/ll_aton/ll_aton.c ****   if (conf->deepmode != 0)
 7567              		.loc 1 1741 22
 7568 04ec 3B68     		ldr	r3, [r7]
 7569 04ee 9B78     		ldrb	r3, [r3, #2]	@ zero_extendqisi2
 7570 04f0 03F01003 		and	r3, r3, #16
 7571 04f4 DBB2     		uxtb	r3, r3
 7572              		.loc 1 1741 6
 7573 04f6 002B     		cmp	r3, #0
 7574 04f8 07D0     		beq	.L400
1742:Lib/AI_Runtime/Npu/ll_aton/ll_aton.c ****     p_top = p_bot = p_left = p_right = 0;
 7575              		.loc 1 1742 38
 7576 04fa 0023     		movs	r3, #0
 7577 04fc FB61     		str	r3, [r7, #28]
 7578              		.loc 1 1742 28
 7579 04fe FB69     		ldr	r3, [r7, #28]
 7580 0500 3B62     		str	r3, [r7, #32]
 7581              		.loc 1 1742 19
 7582 0502 3B6A     		ldr	r3, [r7, #32]
 7583 0504 7B62     		str	r3, [r7, #36]
 7584              		.loc 1 1742 11
 7585 0506 7B6A     		ldr	r3, [r7, #36]
 7586 0508 BB62     		str	r3, [r7, #40]
 7587              	.L400:
1743:Lib/AI_Runtime/Npu/ll_aton/ll_aton.c **** #endif
1744:Lib/AI_Runtime/Npu/ll_aton/ll_aton.c **** #if defined(ATON_CONVACC_CTRL_GET_DSS2MODE)
1745:Lib/AI_Runtime/Npu/ll_aton/ll_aton.c ****   // no pad mode available in dss2mode
1746:Lib/AI_Runtime/Npu/ll_aton/ll_aton.c ****   // will accomodate padding only with zframe below
1747:Lib/AI_Runtime/Npu/ll_aton/ll_aton.c ****   if (conf->dss2mode != 0)
 7588              		.loc 1 1747 22
 7589 050a 3B68     		ldr	r3, [r7]
ARM GAS  /tmp/ccxZaNgH.s 			page 177


 7590 050c 9B78     		ldrb	r3, [r3, #2]	@ zero_extendqisi2
 7591 050e 03F02003 		and	r3, r3, #32
 7592 0512 DBB2     		uxtb	r3, r3
 7593              		.loc 1 1747 6
 7594 0514 002B     		cmp	r3, #0
 7595 0516 07D0     		beq	.L401
1748:Lib/AI_Runtime/Npu/ll_aton/ll_aton.c ****     p_top = p_bot = p_left = p_right = 0;
 7596              		.loc 1 1748 38
 7597 0518 0023     		movs	r3, #0
 7598 051a FB61     		str	r3, [r7, #28]
 7599              		.loc 1 1748 28
 7600 051c FB69     		ldr	r3, [r7, #28]
 7601 051e 3B62     		str	r3, [r7, #32]
 7602              		.loc 1 1748 19
 7603 0520 3B6A     		ldr	r3, [r7, #32]
 7604 0522 7B62     		str	r3, [r7, #36]
 7605              		.loc 1 1748 11
 7606 0524 7B6A     		ldr	r3, [r7, #36]
 7607 0526 BB62     		str	r3, [r7, #40]
 7608              	.L401:
1749:Lib/AI_Runtime/Npu/ll_aton/ll_aton.c **** #endif
1750:Lib/AI_Runtime/Npu/ll_aton/ll_aton.c **** #if defined(ATON_CONVACC_ZFBIAS_SET)
1751:Lib/AI_Runtime/Npu/ll_aton/ll_aton.c ****   // no pad mode available if zfbias is set
1752:Lib/AI_Runtime/Npu/ll_aton/ll_aton.c ****   // will accomodate padding only with zframe below
1753:Lib/AI_Runtime/Npu/ll_aton/ll_aton.c ****   if (conf->zfbias != 0)
 7609              		.loc 1 1753 11
 7610 0528 3B68     		ldr	r3, [r7]
 7611 052a B3F93830 		ldrsh	r3, [r3, #56]
 7612              		.loc 1 1753 6
 7613 052e 002B     		cmp	r3, #0
 7614 0530 07D0     		beq	.L402
1754:Lib/AI_Runtime/Npu/ll_aton/ll_aton.c ****     p_top = p_bot = p_left = p_right = 0;
 7615              		.loc 1 1754 38
 7616 0532 0023     		movs	r3, #0
 7617 0534 FB61     		str	r3, [r7, #28]
 7618              		.loc 1 1754 28
 7619 0536 FB69     		ldr	r3, [r7, #28]
 7620 0538 3B62     		str	r3, [r7, #32]
 7621              		.loc 1 1754 19
 7622 053a 3B6A     		ldr	r3, [r7, #32]
 7623 053c 7B62     		str	r3, [r7, #36]
 7624              		.loc 1 1754 11
 7625 053e 7B6A     		ldr	r3, [r7, #36]
 7626 0540 BB62     		str	r3, [r7, #40]
 7627              	.L402:
1755:Lib/AI_Runtime/Npu/ll_aton/ll_aton.c **** #endif
1756:Lib/AI_Runtime/Npu/ll_aton/ll_aton.c **** 
1757:Lib/AI_Runtime/Npu/ll_aton/ll_aton.c ****   int z_top = (conf->top_padding - p_top);
 7628              		.loc 1 1757 20
 7629 0542 3B68     		ldr	r3, [r7]
 7630 0544 9B8B     		ldrh	r3, [r3, #28]
 7631 0546 1A46     		mov	r2, r3
 7632              		.loc 1 1757 7
 7633 0548 BB6A     		ldr	r3, [r7, #40]
 7634 054a D31A     		subs	r3, r2, r3
 7635 054c BB61     		str	r3, [r7, #24]
1758:Lib/AI_Runtime/Npu/ll_aton/ll_aton.c ****   int z_bot = (conf->bot_padding - p_bot);
ARM GAS  /tmp/ccxZaNgH.s 			page 178


 7636              		.loc 1 1758 20
 7637 054e 3B68     		ldr	r3, [r7]
 7638 0550 DB8B     		ldrh	r3, [r3, #30]
 7639 0552 1A46     		mov	r2, r3
 7640              		.loc 1 1758 7
 7641 0554 7B6A     		ldr	r3, [r7, #36]
 7642 0556 D31A     		subs	r3, r2, r3
 7643 0558 7B61     		str	r3, [r7, #20]
1759:Lib/AI_Runtime/Npu/ll_aton/ll_aton.c ****   int z_left = (conf->left_padding - p_left);
 7644              		.loc 1 1759 21
 7645 055a 3B68     		ldr	r3, [r7]
 7646 055c 1B8B     		ldrh	r3, [r3, #24]
 7647 055e 1A46     		mov	r2, r3
 7648              		.loc 1 1759 7
 7649 0560 3B6A     		ldr	r3, [r7, #32]
 7650 0562 D31A     		subs	r3, r2, r3
 7651 0564 3B61     		str	r3, [r7, #16]
1760:Lib/AI_Runtime/Npu/ll_aton/ll_aton.c ****   int z_right = (conf->right_padding - p_right);
 7652              		.loc 1 1760 22
 7653 0566 3B68     		ldr	r3, [r7]
 7654 0568 5B8B     		ldrh	r3, [r3, #26]
 7655 056a 1A46     		mov	r2, r3
 7656              		.loc 1 1760 7
 7657 056c FB69     		ldr	r3, [r7, #28]
 7658 056e D31A     		subs	r3, r2, r3
 7659 0570 FB60     		str	r3, [r7, #12]
1761:Lib/AI_Runtime/Npu/ll_aton/ll_aton.c ****   // LL_ATON_PRINTF("z_t=%d z_b=%d z_l=%d z_r=%d\n",z_top,z_bot,z_left*conf->batchDepth,z_right*con
1762:Lib/AI_Runtime/Npu/ll_aton/ll_aton.c **** 
1763:Lib/AI_Runtime/Npu/ll_aton/ll_aton.c ****   t = ATON_CONVACC_ZFRAME_DT;
 7660              		.loc 1 1763 5
 7661 0572 0023     		movs	r3, #0
 7662 0574 FB62     		str	r3, [r7, #44]
1764:Lib/AI_Runtime/Npu/ll_aton/ll_aton.c ****   t = ATON_CONVACC_ZFRAME_SET_TOP(t, z_top);
 7663              		.loc 1 1764 7
 7664 0576 FB6A     		ldr	r3, [r7, #44]
 7665 0578 23F47F02 		bic	r2, r3, #16711680
 7666 057c BB69     		ldr	r3, [r7, #24]
 7667 057e 1B04     		lsls	r3, r3, #16
 7668 0580 03F47F03 		and	r3, r3, #16711680
 7669              		.loc 1 1764 5
 7670 0584 1343     		orrs	r3, r3, r2
 7671 0586 FB62     		str	r3, [r7, #44]
1765:Lib/AI_Runtime/Npu/ll_aton/ll_aton.c ****   t = ATON_CONVACC_ZFRAME_SET_BOTTOM(t, z_bot);
 7672              		.loc 1 1765 7
 7673 0588 FB6A     		ldr	r3, [r7, #44]
 7674 058a 23F07F42 		bic	r2, r3, #-16777216
 7675 058e 7B69     		ldr	r3, [r7, #20]
 7676 0590 1B06     		lsls	r3, r3, #24
 7677              		.loc 1 1765 5
 7678 0592 1343     		orrs	r3, r3, r2
 7679 0594 FB62     		str	r3, [r7, #44]
1766:Lib/AI_Runtime/Npu/ll_aton/ll_aton.c ****   t = ATON_CONVACC_ZFRAME_SET_LEFT(t, z_left * conf->batchDepth);
 7680              		.loc 1 1766 7
 7681 0596 FB6A     		ldr	r3, [r7, #44]
 7682 0598 23F0FF02 		bic	r2, r3, #255
 7683 059c 3B68     		ldr	r3, [r7]
 7684 059e 9B8A     		ldrh	r3, [r3, #20]
ARM GAS  /tmp/ccxZaNgH.s 			page 179


 7685 05a0 1946     		mov	r1, r3
 7686 05a2 3B69     		ldr	r3, [r7, #16]
 7687 05a4 01FB03F3 		mul	r3, r1, r3
 7688 05a8 DBB2     		uxtb	r3, r3
 7689              		.loc 1 1766 5
 7690 05aa 1343     		orrs	r3, r3, r2
 7691 05ac FB62     		str	r3, [r7, #44]
1767:Lib/AI_Runtime/Npu/ll_aton/ll_aton.c ****   t = ATON_CONVACC_ZFRAME_SET_RIGHT(t, z_right * conf->batchDepth);
 7692              		.loc 1 1767 7
 7693 05ae FB6A     		ldr	r3, [r7, #44]
 7694 05b0 23F47F42 		bic	r2, r3, #65280
 7695 05b4 3B68     		ldr	r3, [r7]
 7696 05b6 9B8A     		ldrh	r3, [r3, #20]
 7697 05b8 1946     		mov	r1, r3
 7698 05ba FB68     		ldr	r3, [r7, #12]
 7699 05bc 01FB03F3 		mul	r3, r1, r3
 7700 05c0 1B02     		lsls	r3, r3, #8
 7701 05c2 9BB2     		uxth	r3, r3
 7702              		.loc 1 1767 5
 7703 05c4 1343     		orrs	r3, r3, r2
 7704 05c6 FB62     		str	r3, [r7, #44]
1768:Lib/AI_Runtime/Npu/ll_aton/ll_aton.c ****   ATON_CONVACC_ZFRAME_SET(id, t);
 7705              		.loc 1 1768 3
 7706 05c8 7B68     		ldr	r3, [r7, #4]
 7707 05ca 1A03     		lsls	r2, r3, #12
 7708 05cc 684B     		ldr	r3, .L412
 7709 05ce 1344     		add	r3, r3, r2
 7710 05d0 1A46     		mov	r2, r3
 7711 05d2 FB6A     		ldr	r3, [r7, #44]
 7712 05d4 1360     		str	r3, [r2]
1769:Lib/AI_Runtime/Npu/ll_aton/ll_aton.c **** 
1770:Lib/AI_Runtime/Npu/ll_aton/ll_aton.c ****   t = ATON_CONVACC_SAMPLE_DT;
 7713              		.loc 1 1770 5
 7714 05d6 4FF48853 		mov	r3, #4352
 7715 05da FB62     		str	r3, [r7, #44]
1771:Lib/AI_Runtime/Npu/ll_aton/ll_aton.c ****   t = ATON_CONVACC_SAMPLE_SET_TPAD(t, p_top);
 7716              		.loc 1 1771 7
 7717 05dc FB6A     		ldr	r3, [r7, #44]
 7718 05de 23F03002 		bic	r2, r3, #48
 7719 05e2 BB6A     		ldr	r3, [r7, #40]
 7720 05e4 1B01     		lsls	r3, r3, #4
 7721 05e6 03F03003 		and	r3, r3, #48
 7722              		.loc 1 1771 5
 7723 05ea 1343     		orrs	r3, r3, r2
 7724 05ec FB62     		str	r3, [r7, #44]
1772:Lib/AI_Runtime/Npu/ll_aton/ll_aton.c ****   t = ATON_CONVACC_SAMPLE_SET_BPAD(t, p_bot);
 7725              		.loc 1 1772 7
 7726 05ee FB6A     		ldr	r3, [r7, #44]
 7727 05f0 23F0C002 		bic	r2, r3, #192
 7728 05f4 7B6A     		ldr	r3, [r7, #36]
 7729 05f6 9B01     		lsls	r3, r3, #6
 7730 05f8 DBB2     		uxtb	r3, r3
 7731              		.loc 1 1772 5
 7732 05fa 1343     		orrs	r3, r3, r2
 7733 05fc FB62     		str	r3, [r7, #44]
1773:Lib/AI_Runtime/Npu/ll_aton/ll_aton.c ****   t = ATON_CONVACC_SAMPLE_SET_LPAD(t, p_left);
 7734              		.loc 1 1773 7
ARM GAS  /tmp/ccxZaNgH.s 			page 180


 7735 05fe FB6A     		ldr	r3, [r7, #44]
 7736 0600 23F00302 		bic	r2, r3, #3
 7737 0604 3B6A     		ldr	r3, [r7, #32]
 7738 0606 03F00303 		and	r3, r3, #3
 7739              		.loc 1 1773 5
 7740 060a 1343     		orrs	r3, r3, r2
 7741 060c FB62     		str	r3, [r7, #44]
1774:Lib/AI_Runtime/Npu/ll_aton/ll_aton.c ****   t = ATON_CONVACC_SAMPLE_SET_RPAD(t, p_right);
 7742              		.loc 1 1774 7
 7743 060e FB6A     		ldr	r3, [r7, #44]
 7744 0610 23F00C02 		bic	r2, r3, #12
 7745 0614 FB69     		ldr	r3, [r7, #28]
 7746 0616 9B00     		lsls	r3, r3, #2
 7747 0618 03F00C03 		and	r3, r3, #12
 7748              		.loc 1 1774 5
 7749 061c 1343     		orrs	r3, r3, r2
 7750 061e FB62     		str	r3, [r7, #44]
1775:Lib/AI_Runtime/Npu/ll_aton/ll_aton.c ****   t = ATON_CONVACC_SAMPLE_SET_HSTRD(t, conf->hstride);
 7751              		.loc 1 1775 7
 7752 0620 FB6A     		ldr	r3, [r7, #44]
 7753 0622 23F4E062 		bic	r2, r3, #1792
 7754 0626 3B68     		ldr	r3, [r7]
 7755 0628 9B7D     		ldrb	r3, [r3, #22]	@ zero_extendqisi2
 7756 062a 1B02     		lsls	r3, r3, #8
 7757 062c 03F4E063 		and	r3, r3, #1792
 7758              		.loc 1 1775 5
 7759 0630 1343     		orrs	r3, r3, r2
 7760 0632 FB62     		str	r3, [r7, #44]
1776:Lib/AI_Runtime/Npu/ll_aton/ll_aton.c ****   t = ATON_CONVACC_SAMPLE_SET_VSTRD(t, conf->vstride);
 7761              		.loc 1 1776 7
 7762 0634 FB6A     		ldr	r3, [r7, #44]
 7763 0636 23F4E042 		bic	r2, r3, #28672
 7764 063a 3B68     		ldr	r3, [r7]
 7765 063c DB7D     		ldrb	r3, [r3, #23]	@ zero_extendqisi2
 7766 063e 1B03     		lsls	r3, r3, #12
 7767 0640 03F4E043 		and	r3, r3, #28672
 7768              		.loc 1 1776 5
 7769 0644 1343     		orrs	r3, r3, r2
 7770 0646 FB62     		str	r3, [r7, #44]
1777:Lib/AI_Runtime/Npu/ll_aton/ll_aton.c **** #if defined(ATON_CONVACC_SAMPLE_SET_FSTATCNT)
1778:Lib/AI_Runtime/Npu/ll_aton/ll_aton.c ****   if (conf->fstat != 0)
 7771              		.loc 1 1778 19
 7772 0648 3B68     		ldr	r3, [r7]
 7773 064a 9B78     		ldrb	r3, [r3, #2]	@ zero_extendqisi2
 7774 064c 03F00203 		and	r3, r3, #2
 7775 0650 DBB2     		uxtb	r3, r3
 7776              		.loc 1 1778 6
 7777 0652 002B     		cmp	r3, #0
 7778 0654 06D0     		beq	.L403
1779:Lib/AI_Runtime/Npu/ll_aton/ll_aton.c ****     t = ATON_CONVACC_SAMPLE_SET_FSTATCNT(t, conf->fstatcnt);
 7779              		.loc 1 1779 9
 7780 0656 FB6A     		ldr	r3, [r7, #44]
 7781 0658 9AB2     		uxth	r2, r3
 7782 065a 3B68     		ldr	r3, [r7]
 7783 065c 1B8D     		ldrh	r3, [r3, #40]
 7784 065e 1B04     		lsls	r3, r3, #16
 7785              		.loc 1 1779 7
ARM GAS  /tmp/ccxZaNgH.s 			page 181


 7786 0660 1343     		orrs	r3, r3, r2
 7787 0662 FB62     		str	r3, [r7, #44]
 7788              	.L403:
1780:Lib/AI_Runtime/Npu/ll_aton/ll_aton.c **** #endif
1781:Lib/AI_Runtime/Npu/ll_aton/ll_aton.c ****   ATON_CONVACC_SAMPLE_SET(id, t);
 7789              		.loc 1 1781 3
 7790 0664 7B68     		ldr	r3, [r7, #4]
 7791 0666 1A03     		lsls	r2, r3, #12
 7792 0668 424B     		ldr	r3, .L412+4
 7793 066a 1344     		add	r3, r3, r2
 7794 066c 1A46     		mov	r2, r3
 7795 066e FB6A     		ldr	r3, [r7, #44]
 7796 0670 1360     		str	r3, [r2]
1782:Lib/AI_Runtime/Npu/ll_aton/ll_aton.c **** 
1783:Lib/AI_Runtime/Npu/ll_aton/ll_aton.c ****   // LL_ATON_PRINTF("crop_t=%d crop_b=%d crop_l=%d crop_r=%d\n",z_top,z_bot,z_left,z_right);
1784:Lib/AI_Runtime/Npu/ll_aton/ll_aton.c ****   t = ATON_CONVACC_FHCROP_DT;
 7797              		.loc 1 1784 5
 7798 0672 414B     		ldr	r3, .L412+8
 7799 0674 FB62     		str	r3, [r7, #44]
1785:Lib/AI_Runtime/Npu/ll_aton/ll_aton.c ****   if (conf->left_crop > 0)
 7800              		.loc 1 1785 11
 7801 0676 3B68     		ldr	r3, [r7]
 7802 0678 1B8C     		ldrh	r3, [r3, #32]
 7803              		.loc 1 1785 6
 7804 067a 002B     		cmp	r3, #0
 7805 067c 0CD0     		beq	.L404
1786:Lib/AI_Runtime/Npu/ll_aton/ll_aton.c ****     t = ATON_CONVACC_FHCROP_SET_LEFT(t, conf->left_crop * conf->batchDepth);
 7806              		.loc 1 1786 9
 7807 067e FB6A     		ldr	r3, [r7, #44]
 7808 0680 1B0C     		lsrs	r3, r3, #16
 7809 0682 1B04     		lsls	r3, r3, #16
 7810 0684 3A68     		ldr	r2, [r7]
 7811 0686 128C     		ldrh	r2, [r2, #32]
 7812 0688 1146     		mov	r1, r2
 7813 068a 3A68     		ldr	r2, [r7]
 7814 068c 928A     		ldrh	r2, [r2, #20]
 7815 068e 01FB02F2 		mul	r2, r1, r2
 7816 0692 92B2     		uxth	r2, r2
 7817              		.loc 1 1786 7
 7818 0694 1343     		orrs	r3, r3, r2
 7819 0696 FB62     		str	r3, [r7, #44]
 7820              	.L404:
1787:Lib/AI_Runtime/Npu/ll_aton/ll_aton.c ****   if (conf->right_crop > 0)
 7821              		.loc 1 1787 11
 7822 0698 3B68     		ldr	r3, [r7]
 7823 069a 5B8C     		ldrh	r3, [r3, #34]
 7824              		.loc 1 1787 6
 7825 069c 002B     		cmp	r3, #0
 7826 069e 0FD0     		beq	.L405
1788:Lib/AI_Runtime/Npu/ll_aton/ll_aton.c ****     t = ATON_CONVACC_FHCROP_SET_RIGHT(t, conf->right_crop * conf->batchDepth + (conf->batchDepth - 
 7827              		.loc 1 1788 9
 7828 06a0 FB6A     		ldr	r3, [r7, #44]
 7829 06a2 9AB2     		uxth	r2, r3
 7830 06a4 3B68     		ldr	r3, [r7]
 7831 06a6 5B8C     		ldrh	r3, [r3, #34]
 7832 06a8 1946     		mov	r1, r3
 7833 06aa 3B68     		ldr	r3, [r7]
ARM GAS  /tmp/ccxZaNgH.s 			page 182


 7834 06ac 9B8A     		ldrh	r3, [r3, #20]
 7835 06ae 03FB01F1 		mul	r1, r3, r1
 7836 06b2 3B68     		ldr	r3, [r7]
 7837 06b4 9B8A     		ldrh	r3, [r3, #20]
 7838 06b6 013B     		subs	r3, r3, #1
 7839 06b8 0B44     		add	r3, r3, r1
 7840 06ba 1B04     		lsls	r3, r3, #16
 7841              		.loc 1 1788 7
 7842 06bc 1343     		orrs	r3, r3, r2
 7843 06be FB62     		str	r3, [r7, #44]
 7844              	.L405:
1789:Lib/AI_Runtime/Npu/ll_aton/ll_aton.c ****   ATON_CONVACC_FHCROP_SET(id, t);
 7845              		.loc 1 1789 3
 7846 06c0 7B68     		ldr	r3, [r7, #4]
 7847 06c2 1A03     		lsls	r2, r3, #12
 7848 06c4 2D4B     		ldr	r3, .L412+12
 7849 06c6 1344     		add	r3, r3, r2
 7850 06c8 1A46     		mov	r2, r3
 7851 06ca FB6A     		ldr	r3, [r7, #44]
 7852 06cc 1360     		str	r3, [r2]
1790:Lib/AI_Runtime/Npu/ll_aton/ll_aton.c **** 
1791:Lib/AI_Runtime/Npu/ll_aton/ll_aton.c ****   t = ATON_CONVACC_FVCROP_DT;
 7853              		.loc 1 1791 5
 7854 06ce 2A4B     		ldr	r3, .L412+8
 7855 06d0 FB62     		str	r3, [r7, #44]
1792:Lib/AI_Runtime/Npu/ll_aton/ll_aton.c ****   if (conf->top_crop > 0)
 7856              		.loc 1 1792 11
 7857 06d2 3B68     		ldr	r3, [r7]
 7858 06d4 9B8C     		ldrh	r3, [r3, #36]
 7859              		.loc 1 1792 6
 7860 06d6 002B     		cmp	r3, #0
 7861 06d8 06D0     		beq	.L406
1793:Lib/AI_Runtime/Npu/ll_aton/ll_aton.c ****     t = ATON_CONVACC_FVCROP_SET_TOP(t, conf->top_crop);
 7862              		.loc 1 1793 9
 7863 06da FB6A     		ldr	r3, [r7, #44]
 7864 06dc 1B0C     		lsrs	r3, r3, #16
 7865 06de 1B04     		lsls	r3, r3, #16
 7866 06e0 3A68     		ldr	r2, [r7]
 7867 06e2 928C     		ldrh	r2, [r2, #36]
 7868              		.loc 1 1793 7
 7869 06e4 1343     		orrs	r3, r3, r2
 7870 06e6 FB62     		str	r3, [r7, #44]
 7871              	.L406:
1794:Lib/AI_Runtime/Npu/ll_aton/ll_aton.c ****   if (conf->bot_crop > 0)
 7872              		.loc 1 1794 11
 7873 06e8 3B68     		ldr	r3, [r7]
 7874 06ea DB8C     		ldrh	r3, [r3, #38]
 7875              		.loc 1 1794 6
 7876 06ec 002B     		cmp	r3, #0
 7877 06ee 06D0     		beq	.L407
1795:Lib/AI_Runtime/Npu/ll_aton/ll_aton.c ****     t = ATON_CONVACC_FVCROP_SET_BOTTOM(t, conf->bot_crop);
 7878              		.loc 1 1795 9
 7879 06f0 FB6A     		ldr	r3, [r7, #44]
 7880 06f2 9AB2     		uxth	r2, r3
 7881 06f4 3B68     		ldr	r3, [r7]
 7882 06f6 DB8C     		ldrh	r3, [r3, #38]
 7883 06f8 1B04     		lsls	r3, r3, #16
ARM GAS  /tmp/ccxZaNgH.s 			page 183


 7884              		.loc 1 1795 7
 7885 06fa 1343     		orrs	r3, r3, r2
 7886 06fc FB62     		str	r3, [r7, #44]
 7887              	.L407:
1796:Lib/AI_Runtime/Npu/ll_aton/ll_aton.c ****   ATON_CONVACC_FVCROP_SET(id, t);
 7888              		.loc 1 1796 3
 7889 06fe 7B68     		ldr	r3, [r7, #4]
 7890 0700 1A03     		lsls	r2, r3, #12
 7891 0702 1F4B     		ldr	r3, .L412+16
 7892 0704 1344     		add	r3, r3, r2
 7893 0706 1A46     		mov	r2, r3
 7894 0708 FB6A     		ldr	r3, [r7, #44]
 7895 070a 1360     		str	r3, [r2]
1797:Lib/AI_Runtime/Npu/ll_aton/ll_aton.c ****   // LL_ATON_PRINTF("c_t=%d c_b=%d c_l=%d c_r=%d\n",conf->top_crop,conf->bot_crop,conf->left_crop  
1798:Lib/AI_Runtime/Npu/ll_aton/ll_aton.c ****   // conf->batchDepth,conf->right_crop  * conf->batchDepth + (conf->batchDepth - 1));
1799:Lib/AI_Runtime/Npu/ll_aton/ll_aton.c **** 
1800:Lib/AI_Runtime/Npu/ll_aton/ll_aton.c **** #if defined(ATON_CONVACC_FSUB_SET)
1801:Lib/AI_Runtime/Npu/ll_aton/ll_aton.c ****   if (conf->fsub != 0)
 7896              		.loc 1 1801 11
 7897 070c 3B68     		ldr	r3, [r7]
 7898 070e 5B6B     		ldr	r3, [r3, #52]
 7899              		.loc 1 1801 6
 7900 0710 002B     		cmp	r3, #0
 7901 0712 11D0     		beq	.L408
1802:Lib/AI_Runtime/Npu/ll_aton/ll_aton.c ****   {
1803:Lib/AI_Runtime/Npu/ll_aton/ll_aton.c ****     t = ATON_CONVACC_FSUB_DT;
 7902              		.loc 1 1803 7
 7903 0714 0023     		movs	r3, #0
 7904 0716 FB62     		str	r3, [r7, #44]
1804:Lib/AI_Runtime/Npu/ll_aton/ll_aton.c ****     t = ATON_CONVACC_FSUB_SET_FSUB(t, conf->fsub);
 7905              		.loc 1 1804 9
 7906 0718 FB6A     		ldr	r3, [r7, #44]
 7907 071a 03F07F42 		and	r2, r3, #-16777216
 7908 071e 3B68     		ldr	r3, [r7]
 7909 0720 5B6B     		ldr	r3, [r3, #52]
 7910 0722 23F07F43 		bic	r3, r3, #-16777216
 7911              		.loc 1 1804 7
 7912 0726 1343     		orrs	r3, r3, r2
 7913 0728 FB62     		str	r3, [r7, #44]
1805:Lib/AI_Runtime/Npu/ll_aton/ll_aton.c ****     ATON_CONVACC_FSUB_SET(id, t);
 7914              		.loc 1 1805 5
 7915 072a 7B68     		ldr	r3, [r7, #4]
 7916 072c 1A03     		lsls	r2, r3, #12
 7917 072e 154B     		ldr	r3, .L412+20
 7918 0730 1344     		add	r3, r3, r2
 7919 0732 1A46     		mov	r2, r3
 7920 0734 FB6A     		ldr	r3, [r7, #44]
 7921 0736 1360     		str	r3, [r2]
 7922              	.L408:
1806:Lib/AI_Runtime/Npu/ll_aton/ll_aton.c ****   }
1807:Lib/AI_Runtime/Npu/ll_aton/ll_aton.c **** #endif
1808:Lib/AI_Runtime/Npu/ll_aton/ll_aton.c **** #if defined(ATON_CONVACC_ZFBIAS_SET)
1809:Lib/AI_Runtime/Npu/ll_aton/ll_aton.c ****   t = ATON_CONVACC_ZFBIAS_DT;
 7923              		.loc 1 1809 5
 7924 0738 0023     		movs	r3, #0
 7925 073a FB62     		str	r3, [r7, #44]
1810:Lib/AI_Runtime/Npu/ll_aton/ll_aton.c ****   if (conf->zfbias != 0)
ARM GAS  /tmp/ccxZaNgH.s 			page 184


 7926              		.loc 1 1810 11
 7927 073c 3B68     		ldr	r3, [r7]
 7928 073e B3F93830 		ldrsh	r3, [r3, #56]
 7929              		.loc 1 1810 6
 7930 0742 002B     		cmp	r3, #0
 7931 0744 08D0     		beq	.L409
1811:Lib/AI_Runtime/Npu/ll_aton/ll_aton.c ****   {
1812:Lib/AI_Runtime/Npu/ll_aton/ll_aton.c ****     t = ATON_CONVACC_ZFBIAS_SET_ZFBIAS(t, conf->zfbias);
 7932              		.loc 1 1812 9
 7933 0746 FB6A     		ldr	r3, [r7, #44]
 7934 0748 1B0C     		lsrs	r3, r3, #16
 7935 074a 1B04     		lsls	r3, r3, #16
 7936 074c 3A68     		ldr	r2, [r7]
 7937 074e B2F93820 		ldrsh	r2, [r2, #56]
 7938 0752 92B2     		uxth	r2, r2
 7939              		.loc 1 1812 7
 7940 0754 1343     		orrs	r3, r3, r2
 7941 0756 FB62     		str	r3, [r7, #44]
 7942              	.L409:
1813:Lib/AI_Runtime/Npu/ll_aton/ll_aton.c ****   }
1814:Lib/AI_Runtime/Npu/ll_aton/ll_aton.c **** 
1815:Lib/AI_Runtime/Npu/ll_aton/ll_aton.c ****   /* If hardware supports it (e.g.: 4CA2P), manage Batch Depths not fitting 8 bits */
1816:Lib/AI_Runtime/Npu/ll_aton/ll_aton.c **** #if defined(ATON_CONVACC_ZFBIAS_SET_ZFLEFTMSB)
1817:Lib/AI_Runtime/Npu/ll_aton/ll_aton.c ****   t = ATON_CONVACC_ZFBIAS_SET_ZFLEFTMSB(t, (z_left * conf->batchDepth) >> ATON_CONVACC_ZFRAME_LEFT_
1818:Lib/AI_Runtime/Npu/ll_aton/ll_aton.c ****   t = ATON_CONVACC_ZFBIAS_SET_ZFRIGHTMSB(t, (z_right * conf->batchDepth) >> ATON_CONVACC_ZFRAME_RIG
1819:Lib/AI_Runtime/Npu/ll_aton/ll_aton.c **** #endif
1820:Lib/AI_Runtime/Npu/ll_aton/ll_aton.c **** 
1821:Lib/AI_Runtime/Npu/ll_aton/ll_aton.c ****   ATON_CONVACC_ZFBIAS_SET(id, t);
 7943              		.loc 1 1821 3
 7944 0758 7B68     		ldr	r3, [r7, #4]
 7945 075a 1A03     		lsls	r2, r3, #12
 7946 075c 0A4B     		ldr	r3, .L412+24
 7947 075e 1344     		add	r3, r3, r2
 7948 0760 1A46     		mov	r2, r3
 7949 0762 FB6A     		ldr	r3, [r7, #44]
 7950 0764 1360     		str	r3, [r2]
1822:Lib/AI_Runtime/Npu/ll_aton/ll_aton.c **** #endif
1823:Lib/AI_Runtime/Npu/ll_aton/ll_aton.c **** 
1824:Lib/AI_Runtime/Npu/ll_aton/ll_aton.c ****   return 0;
 7951              		.loc 1 1824 10
 7952 0766 0023     		movs	r3, #0
 7953              	.L382:
1825:Lib/AI_Runtime/Npu/ll_aton/ll_aton.c **** }
 7954              		.loc 1 1825 1
 7955 0768 1846     		mov	r0, r3
 7956 076a 3037     		adds	r7, r7, #48
 7957              		.cfi_def_cfa_offset 8
 7958 076c BD46     		mov	sp, r7
 7959              		.cfi_def_cfa_register 13
 7960              		@ sp needed
 7961 076e 80BD     		pop	{r7, pc}
 7962              	.L413:
 7963              		.align	2
 7964              	.L412:
 7965 0770 28F00E58 		.word	1477373992
 7966 0774 0CF00E58 		.word	1477373964
 7967 0778 0000FFFF 		.word	-65536
ARM GAS  /tmp/ccxZaNgH.s 			page 185


 7968 077c 18F00E58 		.word	1477373976
 7969 0780 1CF00E58 		.word	1477373980
 7970 0784 30F00E58 		.word	1477374000
 7971 0788 34F00E58 		.word	1477374004
 7972              		.cfi_endproc
 7973              	.LFE4844:
 7975              		.section	.text.get_Activacc_type,"ax",%progbits
 7976              		.align	1
 7977              		.syntax unified
 7978              		.thumb
 7979              		.thumb_func
 7981              	get_Activacc_type:
 7982              	.LFB4845:
1826:Lib/AI_Runtime/Npu/ll_aton/ll_aton.c **** #endif // ATON_CONVACC_NUM
1827:Lib/AI_Runtime/Npu/ll_aton/ll_aton.c **** 
1828:Lib/AI_Runtime/Npu/ll_aton/ll_aton.c **** #ifdef ATON_ACTIV_NUM
1829:Lib/AI_Runtime/Npu/ll_aton/ll_aton.c **** 
1830:Lib/AI_Runtime/Npu/ll_aton/ll_aton.c **** static int32_t get_Activacc_type(LL_Activacc_Op op)
1831:Lib/AI_Runtime/Npu/ll_aton/ll_aton.c **** {
 7983              		.loc 1 1831 1
 7984              		.cfi_startproc
 7985              		@ args = 0, pretend = 0, frame = 8
 7986              		@ frame_needed = 1, uses_anonymous_args = 0
 7987 0000 80B5     		push	{r7, lr}
 7988              		.cfi_def_cfa_offset 8
 7989              		.cfi_offset 7, -8
 7990              		.cfi_offset 14, -4
 7991 0002 82B0     		sub	sp, sp, #8
 7992              		.cfi_def_cfa_offset 16
 7993 0004 00AF     		add	r7, sp, #0
 7994              		.cfi_def_cfa_register 7
 7995 0006 0346     		mov	r3, r0
 7996 0008 FB71     		strb	r3, [r7, #7]
1832:Lib/AI_Runtime/Npu/ll_aton/ll_aton.c ****   switch (op)
 7997              		.loc 1 1832 3
 7998 000a FB79     		ldrb	r3, [r7, #7]	@ zero_extendqisi2
 7999 000c 013B     		subs	r3, r3, #1
 8000 000e 032B     		cmp	r3, #3
 8001 0010 12D8     		bhi	.L423
 8002 0012 01A2     		adr	r2, .L417
 8003 0014 52F823F0 		ldr	pc, [r2, r3, lsl #2]
 8004              		.p2align 2
 8005              	.L417:
 8006 0018 29000000 		.word	.L420+1
 8007 001c 2D000000 		.word	.L419+1
 8008 0020 31000000 		.word	.L418+1
 8009 0024 35000000 		.word	.L416+1
 8010              		.p2align 1
 8011              	.L420:
1833:Lib/AI_Runtime/Npu/ll_aton/ll_aton.c ****   {
1834:Lib/AI_Runtime/Npu/ll_aton/ll_aton.c ****   case ACTIV_RELU:
1835:Lib/AI_Runtime/Npu/ll_aton/ll_aton.c ****     return ATON_ACTIVTYPE_RELU;
 8012              		.loc 1 1835 12
 8013 0028 0023     		movs	r3, #0
 8014 002a 0DE0     		b	.L421
 8015              	.L419:
1836:Lib/AI_Runtime/Npu/ll_aton/ll_aton.c ****   case ACTIV_PRELU:
ARM GAS  /tmp/ccxZaNgH.s 			page 186


1837:Lib/AI_Runtime/Npu/ll_aton/ll_aton.c ****     return ATON_ACTIVTYPE_PRELU;
 8016              		.loc 1 1837 12
 8017 002c 0123     		movs	r3, #1
 8018 002e 0BE0     		b	.L421
 8019              	.L418:
1838:Lib/AI_Runtime/Npu/ll_aton/ll_aton.c ****   case ACTIV_TRELU:
1839:Lib/AI_Runtime/Npu/ll_aton/ll_aton.c ****     return ATON_ACTIVTYPE_TRELU;
 8020              		.loc 1 1839 12
 8021 0030 0223     		movs	r3, #2
 8022 0032 09E0     		b	.L421
 8023              	.L416:
1840:Lib/AI_Runtime/Npu/ll_aton/ll_aton.c ****   case ACTIV_FUNC:
1841:Lib/AI_Runtime/Npu/ll_aton/ll_aton.c ****     return ATON_ACTIVTYPE_FUNCTION;
 8024              		.loc 1 1841 12
 8025 0034 0323     		movs	r3, #3
 8026 0036 07E0     		b	.L421
 8027              	.L423:
1842:Lib/AI_Runtime/Npu/ll_aton/ll_aton.c **** #if defined ATON_ACTIVTYPE_LUT
1843:Lib/AI_Runtime/Npu/ll_aton/ll_aton.c ****   case ACTIV_LUT:
1844:Lib/AI_Runtime/Npu/ll_aton/ll_aton.c ****     return ATON_ACTIVTYPE_LUT;
1845:Lib/AI_Runtime/Npu/ll_aton/ll_aton.c **** #endif
1846:Lib/AI_Runtime/Npu/ll_aton/ll_aton.c ****   default:
1847:Lib/AI_Runtime/Npu/ll_aton/ll_aton.c ****     break;
 8028              		.loc 1 1847 5
 8029 0038 00BF     		nop
1848:Lib/AI_Runtime/Npu/ll_aton/ll_aton.c ****   }
1849:Lib/AI_Runtime/Npu/ll_aton/ll_aton.c ****   LL_ATON_ASSERT(0);
 8030              		.loc 1 1849 3
 8031 003a 054B     		ldr	r3, .L424
 8032 003c 054A     		ldr	r2, .L424+4
 8033 003e 40F23971 		movw	r1, #1849
 8034 0042 0548     		ldr	r0, .L424+8
 8035 0044 FFF7FEFF 		bl	__assert_func
 8036              	.L421:
1850:Lib/AI_Runtime/Npu/ll_aton/ll_aton.c ****   return 0;
1851:Lib/AI_Runtime/Npu/ll_aton/ll_aton.c **** }
 8037              		.loc 1 1851 1
 8038 0048 1846     		mov	r0, r3
 8039 004a 0837     		adds	r7, r7, #8
 8040              		.cfi_def_cfa_offset 8
 8041 004c BD46     		mov	sp, r7
 8042              		.cfi_def_cfa_register 13
 8043              		@ sp needed
 8044 004e 80BD     		pop	{r7, pc}
 8045              	.L425:
 8046              		.align	2
 8047              	.L424:
 8048 0050 AC010000 		.word	.LC11
 8049 0054 00000000 		.word	__func__.3
 8050 0058 3C000000 		.word	.LC4
 8051              		.cfi_endproc
 8052              	.LFE4845:
 8054              		.section	.text.LL_Activacc_Init,"ax",%progbits
 8055              		.align	1
 8056              		.global	LL_Activacc_Init
 8057              		.syntax unified
 8058              		.thumb
ARM GAS  /tmp/ccxZaNgH.s 			page 187


 8059              		.thumb_func
 8061              	LL_Activacc_Init:
 8062              	.LFB4846:
1852:Lib/AI_Runtime/Npu/ll_aton/ll_aton.c **** 
1853:Lib/AI_Runtime/Npu/ll_aton/ll_aton.c **** /**
1854:Lib/AI_Runtime/Npu/ll_aton/ll_aton.c ****  * @brief  Configures Activation Accelerator
1855:Lib/AI_Runtime/Npu/ll_aton/ll_aton.c ****  * @param  id Activation Accelerator identifier [0..ATON_ACTIV_NUM-1]
1856:Lib/AI_Runtime/Npu/ll_aton/ll_aton.c ****  * @param  Activacc_InitStruct Structure describing initialization parameters
1857:Lib/AI_Runtime/Npu/ll_aton/ll_aton.c ****  * @retval Error code E.g.: Invalid ID, invalid parameters, not idle,..
1858:Lib/AI_Runtime/Npu/ll_aton/ll_aton.c ****  */
1859:Lib/AI_Runtime/Npu/ll_aton/ll_aton.c **** int LL_Activacc_Init(int id, const LL_Activacc_InitTypeDef *conf)
1860:Lib/AI_Runtime/Npu/ll_aton/ll_aton.c **** {
 8063              		.loc 1 1860 1
 8064              		.cfi_startproc
 8065              		@ args = 0, pretend = 0, frame = 40
 8066              		@ frame_needed = 1, uses_anonymous_args = 0
 8067 0000 90B5     		push	{r4, r7, lr}
 8068              		.cfi_def_cfa_offset 12
 8069              		.cfi_offset 4, -12
 8070              		.cfi_offset 7, -8
 8071              		.cfi_offset 14, -4
 8072 0002 8BB0     		sub	sp, sp, #44
 8073              		.cfi_def_cfa_offset 56
 8074 0004 00AF     		add	r7, sp, #0
 8075              		.cfi_def_cfa_register 7
 8076 0006 7860     		str	r0, [r7, #4]
 8077 0008 3960     		str	r1, [r7]
1861:Lib/AI_Runtime/Npu/ll_aton/ll_aton.c ****   uint32_t t;
1862:Lib/AI_Runtime/Npu/ll_aton/ll_aton.c **** 
1863:Lib/AI_Runtime/Npu/ll_aton/ll_aton.c ****   if (id >= ATON_ACTIV_NUM)
 8078              		.loc 1 1863 6
 8079 000a 7B68     		ldr	r3, [r7, #4]
 8080 000c 012B     		cmp	r3, #1
 8081 000e 02DD     		ble	.L427
1864:Lib/AI_Runtime/Npu/ll_aton/ll_aton.c ****     return LL_ATON_INVALID_ID;
 8082              		.loc 1 1864 12
 8083 0010 4FF0FF33 		mov	r3, #-1
 8084 0014 F0E1     		b	.L428
 8085              	.L427:
1865:Lib/AI_Runtime/Npu/ll_aton/ll_aton.c **** 
1866:Lib/AI_Runtime/Npu/ll_aton/ll_aton.c ****   LL_ATON_EnableClock(ATON_ACTIV_CLKB_CLK(id));
 8086              		.loc 1 1866 23
 8087 0016 7B68     		ldr	r3, [r7, #4]
 8088 0018 1033     		adds	r3, r3, #16
 8089              		.loc 1 1866 3
 8090 001a 1846     		mov	r0, r3
 8091 001c FFF7FEFF 		bl	LL_ATON_EnableClock
1867:Lib/AI_Runtime/Npu/ll_aton/ll_aton.c **** 
1868:Lib/AI_Runtime/Npu/ll_aton/ll_aton.c ****   t = ATON_ACTIV_CTRL_DT;
 8092              		.loc 1 1868 5
 8093 0020 AE4B     		ldr	r3, .L441
 8094 0022 FB61     		str	r3, [r7, #28]
1869:Lib/AI_Runtime/Npu/ll_aton/ll_aton.c ****   t = ATON_ACTIV_CTRL_SET_TYPE(t, get_Activacc_type(conf->operation));
 8095              		.loc 1 1869 7
 8096 0024 FB69     		ldr	r3, [r7, #28]
 8097 0026 23F00C04 		bic	r4, r3, #12
 8098 002a 3B68     		ldr	r3, [r7]
ARM GAS  /tmp/ccxZaNgH.s 			page 188


 8099 002c 93F82C30 		ldrb	r3, [r3, #44]	@ zero_extendqisi2
 8100 0030 1846     		mov	r0, r3
 8101 0032 FFF7FEFF 		bl	get_Activacc_type
 8102 0036 0346     		mov	r3, r0
 8103              		.loc 1 1869 7 is_stmt 0 discriminator 1
 8104 0038 9B00     		lsls	r3, r3, #2
 8105 003a 03F00C03 		and	r3, r3, #12
 8106              		.loc 1 1869 5 is_stmt 1 discriminator 1
 8107 003e 2343     		orrs	r3, r3, r4
 8108 0040 FB61     		str	r3, [r7, #28]
1870:Lib/AI_Runtime/Npu/ll_aton/ll_aton.c ****   t = ATON_ACTIV_CTRL_SET_FBYTES(t, conf->inbytes_f);
 8109              		.loc 1 1870 7
 8110 0042 FB69     		ldr	r3, [r7, #28]
 8111 0044 23F0C002 		bic	r2, r3, #192
 8112 0048 3B68     		ldr	r3, [r7]
 8113 004a 1B78     		ldrb	r3, [r3]
 8114 004c C3F30113 		ubfx	r3, r3, #4, #2
 8115 0050 DBB2     		uxtb	r3, r3
 8116 0052 9B01     		lsls	r3, r3, #6
 8117 0054 DBB2     		uxtb	r3, r3
 8118              		.loc 1 1870 5
 8119 0056 1343     		orrs	r3, r3, r2
 8120 0058 FB61     		str	r3, [r7, #28]
1871:Lib/AI_Runtime/Npu/ll_aton/ll_aton.c ****   t = ATON_ACTIV_CTRL_SET_FSHIFT(t, ATON_SHIFT(conf->shift_f));
 8121              		.loc 1 1871 7
 8122 005a FB69     		ldr	r3, [r7, #28]
 8123 005c 23F47C52 		bic	r2, r3, #16128
 8124 0060 3B68     		ldr	r3, [r7]
 8125 0062 9B78     		ldrb	r3, [r3, #2]	@ zero_extendqisi2
 8126 0064 1033     		adds	r3, r3, #16
 8127 0066 1B02     		lsls	r3, r3, #8
 8128 0068 03F47C53 		and	r3, r3, #16128
 8129              		.loc 1 1871 5
 8130 006c 1343     		orrs	r3, r3, r2
 8131 006e FB61     		str	r3, [r7, #28]
1872:Lib/AI_Runtime/Npu/ll_aton/ll_aton.c ****   t = ATON_ACTIV_CTRL_SET_FROUND(t, conf->rounding_f);
 8132              		.loc 1 1872 7
 8133 0070 FB69     		ldr	r3, [r7, #28]
 8134 0072 23F48042 		bic	r2, r3, #16384
 8135 0076 3B68     		ldr	r3, [r7]
 8136 0078 1B78     		ldrb	r3, [r3]
 8137 007a C3F30003 		ubfx	r3, r3, #0, #1
 8138 007e DBB2     		uxtb	r3, r3
 8139 0080 9B03     		lsls	r3, r3, #14
 8140 0082 03F48043 		and	r3, r3, #16384
 8141              		.loc 1 1872 5
 8142 0086 1343     		orrs	r3, r3, r2
 8143 0088 FB61     		str	r3, [r7, #28]
1873:Lib/AI_Runtime/Npu/ll_aton/ll_aton.c ****   t = ATON_ACTIV_CTRL_SET_FSAT(t, (conf->saturation_f != 0));
 8144              		.loc 1 1873 7
 8145 008a FB69     		ldr	r3, [r7, #28]
 8146 008c 23F40042 		bic	r2, r3, #32768
 8147 0090 3B68     		ldr	r3, [r7]
 8148 0092 1B78     		ldrb	r3, [r3]	@ zero_extendqisi2
 8149 0094 9B03     		lsls	r3, r3, #14
 8150 0096 03F40043 		and	r3, r3, #32768
 8151              		.loc 1 1873 5
ARM GAS  /tmp/ccxZaNgH.s 			page 189


 8152 009a 1343     		orrs	r3, r3, r2
 8153 009c FB61     		str	r3, [r7, #28]
1874:Lib/AI_Runtime/Npu/ll_aton/ll_aton.c ****   t = ATON_ACTIV_CTRL_SET_FRNDMODE(t, conf->round_mode_f);
 8154              		.loc 1 1874 7
 8155 009e FB69     		ldr	r3, [r7, #28]
 8156 00a0 23F44032 		bic	r2, r3, #196608
 8157 00a4 3B68     		ldr	r3, [r7]
 8158 00a6 1B78     		ldrb	r3, [r3]
 8159 00a8 C3F38103 		ubfx	r3, r3, #2, #2
 8160 00ac DBB2     		uxtb	r3, r3
 8161 00ae 1B04     		lsls	r3, r3, #16
 8162 00b0 03F44033 		and	r3, r3, #196608
 8163              		.loc 1 1874 5
 8164 00b4 1343     		orrs	r3, r3, r2
 8165 00b6 FB61     		str	r3, [r7, #28]
1875:Lib/AI_Runtime/Npu/ll_aton/ll_aton.c ****   t = ATON_ACTIV_CTRL_SET_FOBYTES(t, conf->outbytes_f);
 8166              		.loc 1 1875 7
 8167 00b8 FB69     		ldr	r3, [r7, #28]
 8168 00ba 23F44022 		bic	r2, r3, #786432
 8169 00be 3B68     		ldr	r3, [r7]
 8170 00c0 1B78     		ldrb	r3, [r3]
 8171 00c2 C3F38113 		ubfx	r3, r3, #6, #2
 8172 00c6 DBB2     		uxtb	r3, r3
 8173 00c8 9B04     		lsls	r3, r3, #18
 8174 00ca 03F44023 		and	r3, r3, #786432
 8175              		.loc 1 1875 5
 8176 00ce 1343     		orrs	r3, r3, r2
 8177 00d0 FB61     		str	r3, [r7, #28]
1876:Lib/AI_Runtime/Npu/ll_aton/ll_aton.c **** 
1877:Lib/AI_Runtime/Npu/ll_aton/ll_aton.c ****   t = ATON_ACTIV_CTRL_SET_ROUND(t, (conf->rounding_o != 0));
 8178              		.loc 1 1877 7
 8179 00d2 FB69     		ldr	r3, [r7, #28]
 8180 00d4 23F48012 		bic	r2, r3, #1048576
 8181 00d8 3B68     		ldr	r3, [r7]
 8182 00da 5B78     		ldrb	r3, [r3, #1]	@ zero_extendqisi2
 8183 00dc 1B05     		lsls	r3, r3, #20
 8184 00de 03F48013 		and	r3, r3, #1048576
 8185              		.loc 1 1877 5
 8186 00e2 1343     		orrs	r3, r3, r2
 8187 00e4 FB61     		str	r3, [r7, #28]
1878:Lib/AI_Runtime/Npu/ll_aton/ll_aton.c ****   t = ATON_ACTIV_CTRL_SET_SAT(t, (conf->saturation_o != 0));
 8188              		.loc 1 1878 7
 8189 00e6 FB69     		ldr	r3, [r7, #28]
 8190 00e8 23F40012 		bic	r2, r3, #2097152
 8191 00ec 3B68     		ldr	r3, [r7]
 8192 00ee 5B78     		ldrb	r3, [r3, #1]	@ zero_extendqisi2
 8193 00f0 1B05     		lsls	r3, r3, #20
 8194 00f2 03F40013 		and	r3, r3, #2097152
 8195              		.loc 1 1878 5
 8196 00f6 1343     		orrs	r3, r3, r2
 8197 00f8 FB61     		str	r3, [r7, #28]
1879:Lib/AI_Runtime/Npu/ll_aton/ll_aton.c ****   t = ATON_ACTIV_CTRL_SET_OBYTES(t, conf->outbytes_o);
 8198              		.loc 1 1879 7
 8199 00fa FB69     		ldr	r3, [r7, #28]
 8200 00fc 23F44002 		bic	r2, r3, #12582912
 8201 0100 3B68     		ldr	r3, [r7]
 8202 0102 5B78     		ldrb	r3, [r3, #1]
ARM GAS  /tmp/ccxZaNgH.s 			page 190


 8203 0104 C3F30113 		ubfx	r3, r3, #4, #2
 8204 0108 DBB2     		uxtb	r3, r3
 8205 010a 9B05     		lsls	r3, r3, #22
 8206 010c 03F44003 		and	r3, r3, #12582912
 8207              		.loc 1 1879 5
 8208 0110 1343     		orrs	r3, r3, r2
 8209 0112 FB61     		str	r3, [r7, #28]
1880:Lib/AI_Runtime/Npu/ll_aton/ll_aton.c ****   t = ATON_ACTIV_CTRL_SET_ORNDMODE(t, (conf->relu_mode_o << 1) | conf->round_mode_o);
 8210              		.loc 1 1880 7
 8211 0114 FB69     		ldr	r3, [r7, #28]
 8212 0116 23F04072 		bic	r2, r3, #50331648
 8213 011a 3B68     		ldr	r3, [r7]
 8214 011c 5B78     		ldrb	r3, [r3, #1]
 8215 011e C3F3C003 		ubfx	r3, r3, #3, #1
 8216 0122 DBB2     		uxtb	r3, r3
 8217 0124 5B00     		lsls	r3, r3, #1
 8218 0126 3968     		ldr	r1, [r7]
 8219 0128 4978     		ldrb	r1, [r1, #1]
 8220 012a C1F38001 		ubfx	r1, r1, #2, #1
 8221 012e C9B2     		uxtb	r1, r1
 8222 0130 0B43     		orrs	r3, r3, r1
 8223 0132 1B06     		lsls	r3, r3, #24
 8224 0134 03F04073 		and	r3, r3, #50331648
 8225              		.loc 1 1880 5
 8226 0138 1343     		orrs	r3, r3, r2
 8227 013a FB61     		str	r3, [r7, #28]
1881:Lib/AI_Runtime/Npu/ll_aton/ll_aton.c ****   ATON_ACTIV_CTRL_SET(id, t);
 8228              		.loc 1 1881 3
 8229 013c 7B68     		ldr	r3, [r7, #4]
 8230 013e 03F5B023 		add	r3, r3, #360448
 8231 0142 F533     		adds	r3, r3, #245
 8232 0144 1B03     		lsls	r3, r3, #12
 8233 0146 1A46     		mov	r2, r3
 8234 0148 FB69     		ldr	r3, [r7, #28]
 8235 014a 1360     		str	r3, [r2]
1882:Lib/AI_Runtime/Npu/ll_aton/ll_aton.c **** 
1883:Lib/AI_Runtime/Npu/ll_aton/ll_aton.c **** #if defined(ATON_ACTIV_FSUB_SET)
1884:Lib/AI_Runtime/Npu/ll_aton/ll_aton.c ****   if (conf->fsub != 0)
 8236              		.loc 1 1884 11
 8237 014c 3B68     		ldr	r3, [r7]
 8238 014e 9B6A     		ldr	r3, [r3, #40]
 8239              		.loc 1 1884 6
 8240 0150 002B     		cmp	r3, #0
 8241 0152 11D0     		beq	.L429
1885:Lib/AI_Runtime/Npu/ll_aton/ll_aton.c ****   {
1886:Lib/AI_Runtime/Npu/ll_aton/ll_aton.c ****     t = ATON_ACTIV_FSUB_DT;
 8242              		.loc 1 1886 7
 8243 0154 0023     		movs	r3, #0
 8244 0156 FB61     		str	r3, [r7, #28]
1887:Lib/AI_Runtime/Npu/ll_aton/ll_aton.c ****     t = ATON_ACTIV_FSUB_SET_FSUB(t, conf->fsub);
 8245              		.loc 1 1887 9
 8246 0158 FB69     		ldr	r3, [r7, #28]
 8247 015a 03F07F42 		and	r2, r3, #-16777216
 8248 015e 3B68     		ldr	r3, [r7]
 8249 0160 9B6A     		ldr	r3, [r3, #40]
 8250 0162 23F07F43 		bic	r3, r3, #-16777216
 8251              		.loc 1 1887 7
ARM GAS  /tmp/ccxZaNgH.s 			page 191


 8252 0166 1343     		orrs	r3, r3, r2
 8253 0168 FB61     		str	r3, [r7, #28]
1888:Lib/AI_Runtime/Npu/ll_aton/ll_aton.c ****     ATON_ACTIV_FSUB_SET(id, t);
 8254              		.loc 1 1888 5
 8255 016a 7B68     		ldr	r3, [r7, #4]
 8256 016c 1A03     		lsls	r2, r3, #12
 8257 016e 5C4B     		ldr	r3, .L441+4
 8258 0170 1344     		add	r3, r3, r2
 8259 0172 1A46     		mov	r2, r3
 8260 0174 FB69     		ldr	r3, [r7, #28]
 8261 0176 1360     		str	r3, [r2]
 8262              	.L429:
1889:Lib/AI_Runtime/Npu/ll_aton/ll_aton.c ****   }
1890:Lib/AI_Runtime/Npu/ll_aton/ll_aton.c **** #endif
1891:Lib/AI_Runtime/Npu/ll_aton/ll_aton.c **** 
1892:Lib/AI_Runtime/Npu/ll_aton/ll_aton.c ****   switch (conf->operation)
 8263              		.loc 1 1892 15
 8264 0178 3B68     		ldr	r3, [r7]
 8265 017a 93F82C30 		ldrb	r3, [r3, #44]	@ zero_extendqisi2
 8266              		.loc 1 1892 3
 8267 017e 052B     		cmp	r3, #5
 8268 0180 00F03881 		beq	.L440
 8269 0184 052B     		cmp	r3, #5
 8270 0186 00F33281 		bgt	.L431
 8271 018a 032B     		cmp	r3, #3
 8272 018c 02DC     		bgt	.L432
 8273 018e 002B     		cmp	r3, #0
 8274 0190 03DC     		bgt	.L433
 8275 0192 2CE1     		b	.L431
 8276              	.L432:
 8277 0194 042B     		cmp	r3, #4
 8278 0196 3FD0     		beq	.L434
 8279 0198 29E1     		b	.L431
 8280              	.L433:
1893:Lib/AI_Runtime/Npu/ll_aton/ll_aton.c ****   {
1894:Lib/AI_Runtime/Npu/ll_aton/ll_aton.c ****   case ACTIV_RELU:
1895:Lib/AI_Runtime/Npu/ll_aton/ll_aton.c ****   case ACTIV_PRELU:
1896:Lib/AI_Runtime/Npu/ll_aton/ll_aton.c ****   case ACTIV_TRELU:
1897:Lib/AI_Runtime/Npu/ll_aton/ll_aton.c ****     t = ATON_ACTIV_ACTIVPARAM_DT;
 8281              		.loc 1 1897 7
 8282 019a 0023     		movs	r3, #0
 8283 019c FB61     		str	r3, [r7, #28]
1898:Lib/AI_Runtime/Npu/ll_aton/ll_aton.c ****     t = ATON_ACTIV_ACTIVPARAM_SET_PARAM(t, conf->parameter);
 8284              		.loc 1 1898 9
 8285 019e FB69     		ldr	r3, [r7, #28]
 8286 01a0 1B0C     		lsrs	r3, r3, #16
 8287 01a2 1B04     		lsls	r3, r3, #16
 8288 01a4 3A68     		ldr	r2, [r7]
 8289 01a6 5268     		ldr	r2, [r2, #4]
 8290 01a8 92B2     		uxth	r2, r2
 8291              		.loc 1 1898 7
 8292 01aa 1343     		orrs	r3, r3, r2
 8293 01ac FB61     		str	r3, [r7, #28]
1899:Lib/AI_Runtime/Npu/ll_aton/ll_aton.c ****     ATON_ACTIV_ACTIVPARAM_SET(id, t);
 8294              		.loc 1 1899 5
 8295 01ae 7B68     		ldr	r3, [r7, #4]
 8296 01b0 1A03     		lsls	r2, r3, #12
ARM GAS  /tmp/ccxZaNgH.s 			page 192


 8297 01b2 4C4B     		ldr	r3, .L441+8
 8298 01b4 1344     		add	r3, r3, r2
 8299 01b6 1A46     		mov	r2, r3
 8300 01b8 FB69     		ldr	r3, [r7, #28]
 8301 01ba 1360     		str	r3, [r2]
1900:Lib/AI_Runtime/Npu/ll_aton/ll_aton.c **** 
1901:Lib/AI_Runtime/Npu/ll_aton/ll_aton.c ****     t = ATON_ACTIV_ACTIVPARAM2_DT;
 8302              		.loc 1 1901 7
 8303 01bc 0023     		movs	r3, #0
 8304 01be FB61     		str	r3, [r7, #28]
1902:Lib/AI_Runtime/Npu/ll_aton/ll_aton.c ****     t = ATON_ACTIV_ACTIVPARAM2_SET_PARAM2(t, conf->parameter_2);
 8305              		.loc 1 1902 9
 8306 01c0 FB69     		ldr	r3, [r7, #28]
 8307 01c2 1B0C     		lsrs	r3, r3, #16
 8308 01c4 1B04     		lsls	r3, r3, #16
 8309 01c6 3A68     		ldr	r2, [r7]
 8310 01c8 9268     		ldr	r2, [r2, #8]
 8311 01ca 92B2     		uxth	r2, r2
 8312              		.loc 1 1902 7
 8313 01cc 1343     		orrs	r3, r3, r2
 8314 01ce FB61     		str	r3, [r7, #28]
1903:Lib/AI_Runtime/Npu/ll_aton/ll_aton.c ****     ATON_ACTIV_ACTIVPARAM2_SET(id, t);
 8315              		.loc 1 1903 5
 8316 01d0 7B68     		ldr	r3, [r7, #4]
 8317 01d2 1A03     		lsls	r2, r3, #12
 8318 01d4 444B     		ldr	r3, .L441+12
 8319 01d6 1344     		add	r3, r3, r2
 8320 01d8 1A46     		mov	r2, r3
 8321 01da FB69     		ldr	r3, [r7, #28]
 8322 01dc 1360     		str	r3, [r2]
1904:Lib/AI_Runtime/Npu/ll_aton/ll_aton.c **** 
1905:Lib/AI_Runtime/Npu/ll_aton/ll_aton.c ****     t = ATON_ACTIV_FUNC_DT;
 8323              		.loc 1 1905 7
 8324 01de 0023     		movs	r3, #0
 8325 01e0 FB61     		str	r3, [r7, #28]
1906:Lib/AI_Runtime/Npu/ll_aton/ll_aton.c ****     t = ATON_ACTIV_FUNC_SET_SIGNEDOP(t, (conf->signedop != 0));
 8326              		.loc 1 1906 9
 8327 01e2 FB69     		ldr	r3, [r7, #28]
 8328 01e4 23F48012 		bic	r2, r3, #1048576
 8329 01e8 3B68     		ldr	r3, [r7]
 8330 01ea 5B78     		ldrb	r3, [r3, #1]	@ zero_extendqisi2
 8331 01ec 9B03     		lsls	r3, r3, #14
 8332 01ee 03F48013 		and	r3, r3, #1048576
 8333              		.loc 1 1906 7
 8334 01f2 1343     		orrs	r3, r3, r2
 8335 01f4 FB61     		str	r3, [r7, #28]
1907:Lib/AI_Runtime/Npu/ll_aton/ll_aton.c ****     t = ATON_ACTIV_FUNC_SET_OUTSHIFT(t, conf->shift_o);
 8336              		.loc 1 1907 9
 8337 01f6 FB69     		ldr	r3, [r7, #28]
 8338 01f8 23F03F02 		bic	r2, r3, #63
 8339 01fc 3B68     		ldr	r3, [r7]
 8340 01fe DB78     		ldrb	r3, [r3, #3]	@ zero_extendqisi2
 8341 0200 03F03F03 		and	r3, r3, #63
 8342              		.loc 1 1907 7
 8343 0204 1343     		orrs	r3, r3, r2
 8344 0206 FB61     		str	r3, [r7, #28]
1908:Lib/AI_Runtime/Npu/ll_aton/ll_aton.c ****     ATON_ACTIV_FUNC_SET(id, t);
ARM GAS  /tmp/ccxZaNgH.s 			page 193


 8345              		.loc 1 1908 5
 8346 0208 7B68     		ldr	r3, [r7, #4]
 8347 020a 1A03     		lsls	r2, r3, #12
 8348 020c 374B     		ldr	r3, .L441+16
 8349 020e 1344     		add	r3, r3, r2
 8350 0210 1A46     		mov	r2, r3
 8351 0212 FB69     		ldr	r3, [r7, #28]
 8352 0214 1360     		str	r3, [r2]
1909:Lib/AI_Runtime/Npu/ll_aton/ll_aton.c ****     break;
 8353              		.loc 1 1909 5
 8354 0216 EEE0     		b	.L435
 8355              	.L434:
1910:Lib/AI_Runtime/Npu/ll_aton/ll_aton.c ****   case ACTIV_FUNC:
1911:Lib/AI_Runtime/Npu/ll_aton/ll_aton.c ****   {
1912:Lib/AI_Runtime/Npu/ll_aton/ll_aton.c ****     t = ATON_ACTIV_FUNC_DT;
 8356              		.loc 1 1912 7
 8357 0218 0023     		movs	r3, #0
 8358 021a FB61     		str	r3, [r7, #28]
1913:Lib/AI_Runtime/Npu/ll_aton/ll_aton.c ****     t = ATON_ACTIV_FUNC_SET_SIGNEDOP(t, (conf->signedop != 0));
 8359              		.loc 1 1913 9
 8360 021c FB69     		ldr	r3, [r7, #28]
 8361 021e 23F48012 		bic	r2, r3, #1048576
 8362 0222 3B68     		ldr	r3, [r7]
 8363 0224 5B78     		ldrb	r3, [r3, #1]	@ zero_extendqisi2
 8364 0226 9B03     		lsls	r3, r3, #14
 8365 0228 03F48013 		and	r3, r3, #1048576
 8366              		.loc 1 1913 7
 8367 022c 1343     		orrs	r3, r3, r2
 8368 022e FB61     		str	r3, [r7, #28]
1914:Lib/AI_Runtime/Npu/ll_aton/ll_aton.c ****     t = ATON_ACTIV_FUNC_SET_OUTSHIFT(t, conf->shift_o);
 8369              		.loc 1 1914 9
 8370 0230 FB69     		ldr	r3, [r7, #28]
 8371 0232 23F03F02 		bic	r2, r3, #63
 8372 0236 3B68     		ldr	r3, [r7]
 8373 0238 DB78     		ldrb	r3, [r3, #3]	@ zero_extendqisi2
 8374 023a 03F03F03 		and	r3, r3, #63
 8375              		.loc 1 1914 7
 8376 023e 1343     		orrs	r3, r3, r2
 8377 0240 FB61     		str	r3, [r7, #28]
1915:Lib/AI_Runtime/Npu/ll_aton/ll_aton.c ****     t = ATON_ACTIV_FUNC_SET_BSHIFT(t, conf->shift_b);
 8378              		.loc 1 1915 9
 8379 0242 FB69     		ldr	r3, [r7, #28]
 8380 0244 23F4F832 		bic	r2, r3, #126976
 8381 0248 3B68     		ldr	r3, [r7]
 8382 024a 93F82430 		ldrb	r3, [r3, #36]	@ zero_extendqisi2
 8383 024e 1B03     		lsls	r3, r3, #12
 8384 0250 03F4F833 		and	r3, r3, #126976
 8385              		.loc 1 1915 7
 8386 0254 1343     		orrs	r3, r3, r2
 8387 0256 FB61     		str	r3, [r7, #28]
1916:Lib/AI_Runtime/Npu/ll_aton/ll_aton.c ****     t = ATON_ACTIV_FUNC_SET_CSHIFT(t, conf->shift_c);
 8388              		.loc 1 1916 9
 8389 0258 FB69     		ldr	r3, [r7, #28]
 8390 025a 23F47C62 		bic	r2, r3, #4032
 8391 025e 3B68     		ldr	r3, [r7]
 8392 0260 93F82530 		ldrb	r3, [r3, #37]	@ zero_extendqisi2
 8393 0264 9B01     		lsls	r3, r3, #6
ARM GAS  /tmp/ccxZaNgH.s 			page 194


 8394 0266 03F47C63 		and	r3, r3, #4032
 8395              		.loc 1 1916 7
 8396 026a 1343     		orrs	r3, r3, r2
 8397 026c FB61     		str	r3, [r7, #28]
1917:Lib/AI_Runtime/Npu/ll_aton/ll_aton.c ****     t = ATON_ACTIV_FUNC_SET_BWIDTH(t, conf->bwidth);
 8398              		.loc 1 1917 9
 8399 026e FB69     		ldr	r3, [r7, #28]
 8400 0270 23F06072 		bic	r2, r3, #58720256
 8401 0274 3B68     		ldr	r3, [r7]
 8402 0276 93F82730 		ldrb	r3, [r3, #39]	@ zero_extendqisi2
 8403 027a DB05     		lsls	r3, r3, #23
 8404 027c 03F06073 		and	r3, r3, #58720256
 8405              		.loc 1 1917 7
 8406 0280 1343     		orrs	r3, r3, r2
 8407 0282 FB61     		str	r3, [r7, #28]
1918:Lib/AI_Runtime/Npu/ll_aton/ll_aton.c ****     ATON_ACTIV_FUNC_SET(id, t);
 8408              		.loc 1 1918 5
 8409 0284 7B68     		ldr	r3, [r7, #4]
 8410 0286 1A03     		lsls	r2, r3, #12
 8411 0288 184B     		ldr	r3, .L441+16
 8412 028a 1344     		add	r3, r3, r2
 8413 028c 1A46     		mov	r2, r3
 8414 028e FB69     		ldr	r3, [r7, #28]
 8415 0290 1360     		str	r3, [r2]
1919:Lib/AI_Runtime/Npu/ll_aton/ll_aton.c **** 
1920:Lib/AI_Runtime/Npu/ll_aton/ll_aton.c ****     t = ATON_ACTIV_ACTIVPARAM_DT;
 8416              		.loc 1 1920 7
 8417 0292 0023     		movs	r3, #0
 8418 0294 FB61     		str	r3, [r7, #28]
1921:Lib/AI_Runtime/Npu/ll_aton/ll_aton.c ****     t = ATON_ACTIV_ACTIVPARAM_SET_PARAM(t, conf->parameter);
 8419              		.loc 1 1921 9
 8420 0296 FB69     		ldr	r3, [r7, #28]
 8421 0298 1B0C     		lsrs	r3, r3, #16
 8422 029a 1B04     		lsls	r3, r3, #16
 8423 029c 3A68     		ldr	r2, [r7]
 8424 029e 5268     		ldr	r2, [r2, #4]
 8425 02a0 92B2     		uxth	r2, r2
 8426              		.loc 1 1921 7
 8427 02a2 1343     		orrs	r3, r3, r2
 8428 02a4 FB61     		str	r3, [r7, #28]
1922:Lib/AI_Runtime/Npu/ll_aton/ll_aton.c ****     t = ATON_ACTIV_ACTIVPARAM_SET_FUNC(t, conf->shift_norm);
 8429              		.loc 1 1922 9
 8430 02a6 FB69     		ldr	r3, [r7, #28]
 8431 02a8 23F47022 		bic	r2, r3, #983040
 8432 02ac 3B68     		ldr	r3, [r7]
 8433 02ae 93F82630 		ldrb	r3, [r3, #38]	@ zero_extendqisi2
 8434 02b2 1B04     		lsls	r3, r3, #16
 8435 02b4 03F47023 		and	r3, r3, #983040
 8436              		.loc 1 1922 7
 8437 02b8 1343     		orrs	r3, r3, r2
 8438 02ba FB61     		str	r3, [r7, #28]
1923:Lib/AI_Runtime/Npu/ll_aton/ll_aton.c ****     ATON_ACTIV_ACTIVPARAM_SET(id, t);
 8439              		.loc 1 1923 5
 8440 02bc 7B68     		ldr	r3, [r7, #4]
 8441 02be 1A03     		lsls	r2, r3, #12
 8442 02c0 084B     		ldr	r3, .L441+8
 8443 02c2 1344     		add	r3, r3, r2
ARM GAS  /tmp/ccxZaNgH.s 			page 195


 8444 02c4 1A46     		mov	r2, r3
 8445 02c6 FB69     		ldr	r3, [r7, #28]
 8446 02c8 1360     		str	r3, [r2]
 8447              	.LBB40:
1924:Lib/AI_Runtime/Npu/ll_aton/ll_aton.c **** 
1925:Lib/AI_Runtime/Npu/ll_aton/ll_aton.c ****     {
1926:Lib/AI_Runtime/Npu/ll_aton/ll_aton.c ****       uint8_t *R0p = (uint8_t *)conf->ROM0_vector.p;
 8448              		.loc 1 1926 16
 8449 02ca 3B68     		ldr	r3, [r7]
 8450 02cc 1B69     		ldr	r3, [r3, #16]
 8451 02ce BB61     		str	r3, [r7, #24]
1927:Lib/AI_Runtime/Npu/ll_aton/ll_aton.c ****       unsigned ROM0_rows = conf->ROM0_nbytes / (1 * 1);
 8452              		.loc 1 1927 16
 8453 02d0 3B68     		ldr	r3, [r7]
 8454 02d2 DB69     		ldr	r3, [r3, #28]
 8455 02d4 7B61     		str	r3, [r7, #20]
 8456              	.LBB41:
1928:Lib/AI_Runtime/Npu/ll_aton/ll_aton.c ****       for (int i = 0; i < ROM0_rows; i++)
 8457              		.loc 1 1928 16
 8458 02d6 0023     		movs	r3, #0
 8459 02d8 7B62     		str	r3, [r7, #36]
 8460              		.loc 1 1928 7
 8461 02da 25E0     		b	.L436
 8462              	.L442:
 8463              		.align	2
 8464              	.L441:
 8465 02dc 80108800 		.word	8917120
 8466 02e0 14500F58 		.word	1477398548
 8467 02e4 08500F58 		.word	1477398536
 8468 02e8 10500F58 		.word	1477398544
 8469 02ec 0C500F58 		.word	1477398540
 8470              	.L437:
1929:Lib/AI_Runtime/Npu/ll_aton/ll_aton.c ****       {
1930:Lib/AI_Runtime/Npu/ll_aton/ll_aton.c ****         t = ATON_ACTIV_ROM0_DT;
 8471              		.loc 1 1930 11
 8472 02f0 0023     		movs	r3, #0
 8473 02f2 FB61     		str	r3, [r7, #28]
1931:Lib/AI_Runtime/Npu/ll_aton/ll_aton.c ****         t = ATON_ACTIV_ROM0_SET_ENTRY(t, R0p[i]);
 8474              		.loc 1 1931 13
 8475 02f4 FB69     		ldr	r3, [r7, #28]
 8476 02f6 23F0FF03 		bic	r3, r3, #255
 8477 02fa 7A6A     		ldr	r2, [r7, #36]
 8478 02fc B969     		ldr	r1, [r7, #24]
 8479 02fe 0A44     		add	r2, r2, r1
 8480 0300 1278     		ldrb	r2, [r2]	@ zero_extendqisi2
 8481              		.loc 1 1931 11
 8482 0302 1343     		orrs	r3, r3, r2
 8483 0304 FB61     		str	r3, [r7, #28]
1932:Lib/AI_Runtime/Npu/ll_aton/ll_aton.c ****         ATON_ACTIV_ROM0_SET(id, i, t);
 8484              		.loc 1 1932 9
 8485 0306 7B6A     		ldr	r3, [r7, #36]
 8486 0308 9B00     		lsls	r3, r3, #2
 8487 030a 1A46     		mov	r2, r3
 8488 030c 7B68     		ldr	r3, [r7, #4]
 8489 030e 03F5B023 		add	r3, r3, #360448
 8490 0312 F533     		adds	r3, r3, #245
 8491 0314 1B03     		lsls	r3, r3, #12
ARM GAS  /tmp/ccxZaNgH.s 			page 196


 8492 0316 1344     		add	r3, r3, r2
 8493 0318 03F58063 		add	r3, r3, #1024
 8494 031c 1A46     		mov	r2, r3
 8495 031e FB69     		ldr	r3, [r7, #28]
 8496 0320 1360     		str	r3, [r2]
1928:Lib/AI_Runtime/Npu/ll_aton/ll_aton.c ****       {
 8497              		.loc 1 1928 39 discriminator 3
 8498 0322 7B6A     		ldr	r3, [r7, #36]
 8499 0324 0133     		adds	r3, r3, #1
 8500 0326 7B62     		str	r3, [r7, #36]
 8501              	.L436:
1928:Lib/AI_Runtime/Npu/ll_aton/ll_aton.c ****       {
 8502              		.loc 1 1928 25 discriminator 1
 8503 0328 7B6A     		ldr	r3, [r7, #36]
 8504 032a 7A69     		ldr	r2, [r7, #20]
 8505 032c 9A42     		cmp	r2, r3
 8506 032e DFD8     		bhi	.L437
 8507              	.LBE41:
 8508              	.LBE40:
 8509              	.LBB42:
1933:Lib/AI_Runtime/Npu/ll_aton/ll_aton.c ****       }
1934:Lib/AI_Runtime/Npu/ll_aton/ll_aton.c ****     }
1935:Lib/AI_Runtime/Npu/ll_aton/ll_aton.c ****     {
1936:Lib/AI_Runtime/Npu/ll_aton/ll_aton.c ****       uint16_t *R1p = (uint16_t *)conf->ROM1_vector.p;
 8510              		.loc 1 1936 17
 8511 0330 3B68     		ldr	r3, [r7]
 8512 0332 5B69     		ldr	r3, [r3, #20]
 8513 0334 3B61     		str	r3, [r7, #16]
1937:Lib/AI_Runtime/Npu/ll_aton/ll_aton.c ****       unsigned ROM1_rows = conf->ROM1_nbytes / (3 * 2);
 8514              		.loc 1 1937 32
 8515 0336 3B68     		ldr	r3, [r7]
 8516 0338 1B6A     		ldr	r3, [r3, #32]
 8517              		.loc 1 1937 16
 8518 033a 314A     		ldr	r2, .L443
 8519 033c A2FB0323 		umull	r2, r3, r2, r3
 8520 0340 9B08     		lsrs	r3, r3, #2
 8521 0342 FB60     		str	r3, [r7, #12]
 8522              	.LBB43:
1938:Lib/AI_Runtime/Npu/ll_aton/ll_aton.c ****       for (int i = 0; i < ROM1_rows; i++)
 8523              		.loc 1 1938 16
 8524 0344 0023     		movs	r3, #0
 8525 0346 3B62     		str	r3, [r7, #32]
 8526              		.loc 1 1938 7
 8527 0348 4CE0     		b	.L438
 8528              	.L439:
1939:Lib/AI_Runtime/Npu/ll_aton/ll_aton.c ****       {
1940:Lib/AI_Runtime/Npu/ll_aton/ll_aton.c ****         t = ATON_ACTIV_ROM1_AB_DT;
 8529              		.loc 1 1940 11
 8530 034a 0023     		movs	r3, #0
 8531 034c FB61     		str	r3, [r7, #28]
1941:Lib/AI_Runtime/Npu/ll_aton/ll_aton.c ****         t = ATON_ACTIV_ROM1_AB_SET_A(t, R1p[3 * i + 0]);
 8532              		.loc 1 1941 13
 8533 034e FB69     		ldr	r3, [r7, #28]
 8534 0350 1A0C     		lsrs	r2, r3, #16
 8535 0352 1204     		lsls	r2, r2, #16
 8536 0354 396A     		ldr	r1, [r7, #32]
 8537 0356 0B46     		mov	r3, r1
ARM GAS  /tmp/ccxZaNgH.s 			page 197


 8538 0358 5B00     		lsls	r3, r3, #1
 8539 035a 0B44     		add	r3, r3, r1
 8540 035c 5B00     		lsls	r3, r3, #1
 8541 035e 1946     		mov	r1, r3
 8542 0360 3B69     		ldr	r3, [r7, #16]
 8543 0362 0B44     		add	r3, r3, r1
 8544 0364 1B88     		ldrh	r3, [r3]
 8545              		.loc 1 1941 11
 8546 0366 1343     		orrs	r3, r3, r2
 8547 0368 FB61     		str	r3, [r7, #28]
1942:Lib/AI_Runtime/Npu/ll_aton/ll_aton.c ****         t = ATON_ACTIV_ROM1_AB_SET_B(t, R1p[3 * i + 1]);
 8548              		.loc 1 1942 13
 8549 036a FB69     		ldr	r3, [r7, #28]
 8550 036c 99B2     		uxth	r1, r3
 8551 036e 3A6A     		ldr	r2, [r7, #32]
 8552 0370 1346     		mov	r3, r2
 8553 0372 5B00     		lsls	r3, r3, #1
 8554 0374 1344     		add	r3, r3, r2
 8555 0376 5B00     		lsls	r3, r3, #1
 8556 0378 0233     		adds	r3, r3, #2
 8557 037a 3A69     		ldr	r2, [r7, #16]
 8558 037c 1344     		add	r3, r3, r2
 8559 037e 1B88     		ldrh	r3, [r3]
 8560 0380 1B04     		lsls	r3, r3, #16
 8561              		.loc 1 1942 11
 8562 0382 0B43     		orrs	r3, r3, r1
 8563 0384 FB61     		str	r3, [r7, #28]
1943:Lib/AI_Runtime/Npu/ll_aton/ll_aton.c ****         ATON_ACTIV_ROM1_AB_SET(id, i, t);
 8564              		.loc 1 1943 9
 8565 0386 3B6A     		ldr	r3, [r7, #32]
 8566 0388 DB00     		lsls	r3, r3, #3
 8567 038a 1A46     		mov	r2, r3
 8568 038c 7B68     		ldr	r3, [r7, #4]
 8569 038e 03F5B023 		add	r3, r3, #360448
 8570 0392 F533     		adds	r3, r3, #245
 8571 0394 1B03     		lsls	r3, r3, #12
 8572 0396 1344     		add	r3, r3, r2
 8573 0398 03F50063 		add	r3, r3, #2048
 8574 039c 1A46     		mov	r2, r3
 8575 039e FB69     		ldr	r3, [r7, #28]
 8576 03a0 1360     		str	r3, [r2]
1944:Lib/AI_Runtime/Npu/ll_aton/ll_aton.c ****         t = ATON_ACTIV_ROM1_C_DT;
 8577              		.loc 1 1944 11
 8578 03a2 0023     		movs	r3, #0
 8579 03a4 FB61     		str	r3, [r7, #28]
1945:Lib/AI_Runtime/Npu/ll_aton/ll_aton.c ****         t = ATON_ACTIV_ROM1_C_SET_C(t, R1p[3 * i + 2]);
 8580              		.loc 1 1945 13
 8581 03a6 FB69     		ldr	r3, [r7, #28]
 8582 03a8 1A0C     		lsrs	r2, r3, #16
 8583 03aa 1204     		lsls	r2, r2, #16
 8584 03ac 396A     		ldr	r1, [r7, #32]
 8585 03ae 0B46     		mov	r3, r1
 8586 03b0 5B00     		lsls	r3, r3, #1
 8587 03b2 0B44     		add	r3, r3, r1
 8588 03b4 5B00     		lsls	r3, r3, #1
 8589 03b6 0433     		adds	r3, r3, #4
 8590 03b8 3969     		ldr	r1, [r7, #16]
ARM GAS  /tmp/ccxZaNgH.s 			page 198


 8591 03ba 0B44     		add	r3, r3, r1
 8592 03bc 1B88     		ldrh	r3, [r3]
 8593              		.loc 1 1945 11
 8594 03be 1343     		orrs	r3, r3, r2
 8595 03c0 FB61     		str	r3, [r7, #28]
1946:Lib/AI_Runtime/Npu/ll_aton/ll_aton.c ****         ATON_ACTIV_ROM1_C_SET(id, i, t);
 8596              		.loc 1 1946 9
 8597 03c2 3B6A     		ldr	r3, [r7, #32]
 8598 03c4 DB00     		lsls	r3, r3, #3
 8599 03c6 1A46     		mov	r2, r3
 8600 03c8 7B68     		ldr	r3, [r7, #4]
 8601 03ca 03F5B023 		add	r3, r3, #360448
 8602 03ce F533     		adds	r3, r3, #245
 8603 03d0 1B03     		lsls	r3, r3, #12
 8604 03d2 1344     		add	r3, r3, r2
 8605 03d4 03F60403 		addw	r3, r3, #2052
 8606 03d8 1A46     		mov	r2, r3
 8607 03da FB69     		ldr	r3, [r7, #28]
 8608 03dc 1360     		str	r3, [r2]
1938:Lib/AI_Runtime/Npu/ll_aton/ll_aton.c ****       {
 8609              		.loc 1 1938 39 discriminator 3
 8610 03de 3B6A     		ldr	r3, [r7, #32]
 8611 03e0 0133     		adds	r3, r3, #1
 8612 03e2 3B62     		str	r3, [r7, #32]
 8613              	.L438:
1938:Lib/AI_Runtime/Npu/ll_aton/ll_aton.c ****       {
 8614              		.loc 1 1938 25 discriminator 1
 8615 03e4 3B6A     		ldr	r3, [r7, #32]
 8616 03e6 FA68     		ldr	r2, [r7, #12]
 8617 03e8 9A42     		cmp	r2, r3
 8618 03ea AED8     		bhi	.L439
 8619              	.LBE43:
 8620              	.LBE42:
1947:Lib/AI_Runtime/Npu/ll_aton/ll_aton.c ****       }
1948:Lib/AI_Runtime/Npu/ll_aton/ll_aton.c ****     }
1949:Lib/AI_Runtime/Npu/ll_aton/ll_aton.c ****   }
1950:Lib/AI_Runtime/Npu/ll_aton/ll_aton.c ****   break;
 8621              		.loc 1 1950 3
 8622 03ec 03E0     		b	.L435
 8623              	.L431:
1951:Lib/AI_Runtime/Npu/ll_aton/ll_aton.c ****   case ACTIV_LUT:
1952:Lib/AI_Runtime/Npu/ll_aton/ll_aton.c **** #if defined ATON_ACTIVTYPE_LUT
1953:Lib/AI_Runtime/Npu/ll_aton/ll_aton.c ****   {
1954:Lib/AI_Runtime/Npu/ll_aton/ll_aton.c ****     uint8_t *Lutp = (uint8_t *)conf->LUT_vector.p;
1955:Lib/AI_Runtime/Npu/ll_aton/ll_aton.c ****     for (int i = 0; i < 64; i++)
1956:Lib/AI_Runtime/Npu/ll_aton/ll_aton.c ****     {
1957:Lib/AI_Runtime/Npu/ll_aton/ll_aton.c ****       uint32_t val = ATON_ACTIV_LUT_DT;
1958:Lib/AI_Runtime/Npu/ll_aton/ll_aton.c ****       val = ATON_ACTIV_LUT_SET_MOD8_1(val, Lutp[4 * i]);
1959:Lib/AI_Runtime/Npu/ll_aton/ll_aton.c ****       val = ATON_ACTIV_LUT_SET_MOD8_2(val, Lutp[4 * i + 1]);
1960:Lib/AI_Runtime/Npu/ll_aton/ll_aton.c ****       val = ATON_ACTIV_LUT_SET_MOD8_3(val, Lutp[4 * i + 2]);
1961:Lib/AI_Runtime/Npu/ll_aton/ll_aton.c ****       val = ATON_ACTIV_LUT_SET_MOD8_4(val, Lutp[4 * i + 3]);
1962:Lib/AI_Runtime/Npu/ll_aton/ll_aton.c ****       ATON_ACTIV_LUT_SET(id, i, val);
1963:Lib/AI_Runtime/Npu/ll_aton/ll_aton.c ****     }
1964:Lib/AI_Runtime/Npu/ll_aton/ll_aton.c ****   }
1965:Lib/AI_Runtime/Npu/ll_aton/ll_aton.c **** #else
1966:Lib/AI_Runtime/Npu/ll_aton/ll_aton.c ****     assert("Unsupported Activation LUT configuration");
1967:Lib/AI_Runtime/Npu/ll_aton/ll_aton.c **** #endif
ARM GAS  /tmp/ccxZaNgH.s 			page 199


1968:Lib/AI_Runtime/Npu/ll_aton/ll_aton.c ****   break;
1969:Lib/AI_Runtime/Npu/ll_aton/ll_aton.c ****   default:
1970:Lib/AI_Runtime/Npu/ll_aton/ll_aton.c ****     return -1;
 8624              		.loc 1 1970 12
 8625 03ee 4FF0FF33 		mov	r3, #-1
 8626 03f2 01E0     		b	.L428
 8627              	.L440:
1968:Lib/AI_Runtime/Npu/ll_aton/ll_aton.c ****   default:
 8628              		.loc 1 1968 3
 8629 03f4 00BF     		nop
 8630              	.L435:
1971:Lib/AI_Runtime/Npu/ll_aton/ll_aton.c ****   }
1972:Lib/AI_Runtime/Npu/ll_aton/ll_aton.c **** 
1973:Lib/AI_Runtime/Npu/ll_aton/ll_aton.c ****   return 0;
 8631              		.loc 1 1973 10
 8632 03f6 0023     		movs	r3, #0
 8633              	.L428:
1974:Lib/AI_Runtime/Npu/ll_aton/ll_aton.c **** }
 8634              		.loc 1 1974 1
 8635 03f8 1846     		mov	r0, r3
 8636 03fa 2C37     		adds	r7, r7, #44
 8637              		.cfi_def_cfa_offset 12
 8638 03fc BD46     		mov	sp, r7
 8639              		.cfi_def_cfa_register 13
 8640              		@ sp needed
 8641 03fe 90BD     		pop	{r4, r7, pc}
 8642              	.L444:
 8643              		.align	2
 8644              	.L443:
 8645 0400 ABAAAAAA 		.word	-1431655765
 8646              		.cfi_endproc
 8647              	.LFE4846:
 8649              		.section	.text.get_Arithacc_type,"ax",%progbits
 8650              		.align	1
 8651              		.syntax unified
 8652              		.thumb
 8653              		.thumb_func
 8655              	get_Arithacc_type:
 8656              	.LFB4847:
1975:Lib/AI_Runtime/Npu/ll_aton/ll_aton.c **** #endif // ATON_ACTIV_NUM
1976:Lib/AI_Runtime/Npu/ll_aton/ll_aton.c **** 
1977:Lib/AI_Runtime/Npu/ll_aton/ll_aton.c **** #ifdef ATON_ARITH_NUM
1978:Lib/AI_Runtime/Npu/ll_aton/ll_aton.c **** 
1979:Lib/AI_Runtime/Npu/ll_aton/ll_aton.c **** static int32_t get_Arithacc_type(LL_Arithacc_Op op)
1980:Lib/AI_Runtime/Npu/ll_aton/ll_aton.c **** {
 8657              		.loc 1 1980 1
 8658              		.cfi_startproc
 8659              		@ args = 0, pretend = 0, frame = 8
 8660              		@ frame_needed = 1, uses_anonymous_args = 0
 8661 0000 80B5     		push	{r7, lr}
 8662              		.cfi_def_cfa_offset 8
 8663              		.cfi_offset 7, -8
 8664              		.cfi_offset 14, -4
 8665 0002 82B0     		sub	sp, sp, #8
 8666              		.cfi_def_cfa_offset 16
 8667 0004 00AF     		add	r7, sp, #0
 8668              		.cfi_def_cfa_register 7
ARM GAS  /tmp/ccxZaNgH.s 			page 200


 8669 0006 0346     		mov	r3, r0
 8670 0008 FB71     		strb	r3, [r7, #7]
1981:Lib/AI_Runtime/Npu/ll_aton/ll_aton.c ****   switch (op)
 8671              		.loc 1 1981 3
 8672 000a FB79     		ldrb	r3, [r7, #7]	@ zero_extendqisi2
 8673 000c 013B     		subs	r3, r3, #1
 8674 000e 0F2B     		cmp	r3, #15
 8675 0010 42D8     		bhi	.L466
 8676 0012 01A2     		adr	r2, .L448
 8677 0014 52F823F0 		ldr	pc, [r2, r3, lsl #2]
 8678              		.p2align 2
 8679              	.L448:
 8680 0018 59000000 		.word	.L463+1
 8681 001c 5D000000 		.word	.L462+1
 8682 0020 61000000 		.word	.L461+1
 8683 0024 65000000 		.word	.L460+1
 8684 0028 69000000 		.word	.L459+1
 8685 002c 6D000000 		.word	.L458+1
 8686 0030 71000000 		.word	.L457+1
 8687 0034 75000000 		.word	.L456+1
 8688 0038 79000000 		.word	.L455+1
 8689 003c 7D000000 		.word	.L454+1
 8690 0040 81000000 		.word	.L453+1
 8691 0044 85000000 		.word	.L452+1
 8692 0048 89000000 		.word	.L451+1
 8693 004c 8D000000 		.word	.L450+1
 8694 0050 91000000 		.word	.L449+1
 8695 0054 95000000 		.word	.L447+1
 8696              		.p2align 1
 8697              	.L463:
1982:Lib/AI_Runtime/Npu/ll_aton/ll_aton.c ****   {
1983:Lib/AI_Runtime/Npu/ll_aton/ll_aton.c ****   case ARITH_AFFINE:
1984:Lib/AI_Runtime/Npu/ll_aton/ll_aton.c ****     return ATON_ARITHOP_AX_BY_C;
 8698              		.loc 1 1984 12
 8699 0058 0023     		movs	r3, #0
 8700 005a 25E0     		b	.L464
 8701              	.L462:
1985:Lib/AI_Runtime/Npu/ll_aton/ll_aton.c ****   case ARITH_MIN:
1986:Lib/AI_Runtime/Npu/ll_aton/ll_aton.c ****     return ATON_ARITHOP_MIN_X_Y;
 8702              		.loc 1 1986 12
 8703 005c 0123     		movs	r3, #1
 8704 005e 23E0     		b	.L464
 8705              	.L461:
1987:Lib/AI_Runtime/Npu/ll_aton/ll_aton.c ****   case ARITH_MAX:
1988:Lib/AI_Runtime/Npu/ll_aton/ll_aton.c ****     return ATON_ARITHOP_MAX_X_Y;
 8706              		.loc 1 1988 12
 8707 0060 0223     		movs	r3, #2
 8708 0062 21E0     		b	.L464
 8709              	.L460:
1989:Lib/AI_Runtime/Npu/ll_aton/ll_aton.c ****   case ARITH_MUL:
1990:Lib/AI_Runtime/Npu/ll_aton/ll_aton.c ****     return ATON_ARITHOP_XY;
 8710              		.loc 1 1990 12
 8711 0064 0723     		movs	r3, #7
 8712 0066 1FE0     		b	.L464
 8713              	.L459:
1991:Lib/AI_Runtime/Npu/ll_aton/ll_aton.c ****   case ARITH_X_AND_Y:
1992:Lib/AI_Runtime/Npu/ll_aton/ll_aton.c ****     return ATON_ARITHOP_X_AND_Y;
ARM GAS  /tmp/ccxZaNgH.s 			page 201


 8714              		.loc 1 1992 12
 8715 0068 0B23     		movs	r3, #11
 8716 006a 1DE0     		b	.L464
 8717              	.L458:
1993:Lib/AI_Runtime/Npu/ll_aton/ll_aton.c ****   case ARITH_X_OR_Y:
1994:Lib/AI_Runtime/Npu/ll_aton/ll_aton.c ****     return ATON_ARITHOP_X_OR_Y;
 8718              		.loc 1 1994 12
 8719 006c 0F23     		movs	r3, #15
 8720 006e 1BE0     		b	.L464
 8721              	.L457:
1995:Lib/AI_Runtime/Npu/ll_aton/ll_aton.c ****   case ARITH_NOT_X:
1996:Lib/AI_Runtime/Npu/ll_aton/ll_aton.c ****     return ATON_ARITHOP_NOT_X;
 8722              		.loc 1 1996 12
 8723 0070 1323     		movs	r3, #19
 8724 0072 19E0     		b	.L464
 8725              	.L456:
1997:Lib/AI_Runtime/Npu/ll_aton/ll_aton.c ****   case ARITH_X_XOR_Y:
1998:Lib/AI_Runtime/Npu/ll_aton/ll_aton.c ****     return ATON_ARITHOP_X_XOR_Y;
 8726              		.loc 1 1998 12
 8727 0074 1723     		movs	r3, #23
 8728 0076 17E0     		b	.L464
 8729              	.L455:
1999:Lib/AI_Runtime/Npu/ll_aton/ll_aton.c ****   case ARITH_X_EQ_Y:
2000:Lib/AI_Runtime/Npu/ll_aton/ll_aton.c ****     return ATON_ARITHOP_X_EQ_Y;
 8730              		.loc 1 2000 12
 8731 0078 1B23     		movs	r3, #27
 8732 007a 15E0     		b	.L464
 8733              	.L454:
2001:Lib/AI_Runtime/Npu/ll_aton/ll_aton.c ****   case ARITH_X_LT_Y:
2002:Lib/AI_Runtime/Npu/ll_aton/ll_aton.c ****     return ATON_ARITHOP_X_LT_Y;
 8734              		.loc 1 2002 12
 8735 007c 1F23     		movs	r3, #31
 8736 007e 13E0     		b	.L464
 8737              	.L453:
2003:Lib/AI_Runtime/Npu/ll_aton/ll_aton.c ****   case ARITH_X_LE_Y:
2004:Lib/AI_Runtime/Npu/ll_aton/ll_aton.c ****     return ATON_ARITHOP_X_LE_Y;
 8738              		.loc 1 2004 12
 8739 0080 2323     		movs	r3, #35
 8740 0082 11E0     		b	.L464
 8741              	.L452:
2005:Lib/AI_Runtime/Npu/ll_aton/ll_aton.c ****   case ARITH_X_GT_Y:
2006:Lib/AI_Runtime/Npu/ll_aton/ll_aton.c ****     return ATON_ARITHOP_X_GT_Y;
 8742              		.loc 1 2006 12
 8743 0084 2723     		movs	r3, #39
 8744 0086 0FE0     		b	.L464
 8745              	.L451:
2007:Lib/AI_Runtime/Npu/ll_aton/ll_aton.c ****   case ARITH_X_GE_Y:
2008:Lib/AI_Runtime/Npu/ll_aton/ll_aton.c ****     return ATON_ARITHOP_X_GE_Y;
 8746              		.loc 1 2008 12
 8747 0088 2B23     		movs	r3, #43
 8748 008a 0DE0     		b	.L464
 8749              	.L450:
2009:Lib/AI_Runtime/Npu/ll_aton/ll_aton.c ****   case ARITH_ABS_X:
2010:Lib/AI_Runtime/Npu/ll_aton/ll_aton.c ****     return ATON_ARITHOP_ABS_X;
 8750              		.loc 1 2010 12
 8751 008c 2F23     		movs	r3, #47
 8752 008e 0BE0     		b	.L464
ARM GAS  /tmp/ccxZaNgH.s 			page 202


 8753              	.L449:
2011:Lib/AI_Runtime/Npu/ll_aton/ll_aton.c ****   case ARITH_SIGN_X:
2012:Lib/AI_Runtime/Npu/ll_aton/ll_aton.c ****     return ATON_ARITHOP_SIGN_X;
 8754              		.loc 1 2012 12
 8755 0090 3323     		movs	r3, #51
 8756 0092 09E0     		b	.L464
 8757              	.L447:
2013:Lib/AI_Runtime/Npu/ll_aton/ll_aton.c ****   case ARITH_CLIP:
2014:Lib/AI_Runtime/Npu/ll_aton/ll_aton.c ****     return ATON_ARITHOP_CLIP;
 8758              		.loc 1 2014 12
 8759 0094 3723     		movs	r3, #55
 8760 0096 07E0     		b	.L464
 8761              	.L466:
2015:Lib/AI_Runtime/Npu/ll_aton/ll_aton.c ****   default:
2016:Lib/AI_Runtime/Npu/ll_aton/ll_aton.c ****     break;
 8762              		.loc 1 2016 5
 8763 0098 00BF     		nop
2017:Lib/AI_Runtime/Npu/ll_aton/ll_aton.c ****   }
2018:Lib/AI_Runtime/Npu/ll_aton/ll_aton.c ****   LL_ATON_ASSERT(0);
 8764              		.loc 1 2018 3
 8765 009a 054B     		ldr	r3, .L467
 8766 009c 054A     		ldr	r2, .L467+4
 8767 009e 40F2E271 		movw	r1, #2018
 8768 00a2 0548     		ldr	r0, .L467+8
 8769 00a4 FFF7FEFF 		bl	__assert_func
 8770              	.L464:
2019:Lib/AI_Runtime/Npu/ll_aton/ll_aton.c ****   return 0;
2020:Lib/AI_Runtime/Npu/ll_aton/ll_aton.c **** }
 8771              		.loc 1 2020 1
 8772 00a8 1846     		mov	r0, r3
 8773 00aa 0837     		adds	r7, r7, #8
 8774              		.cfi_def_cfa_offset 8
 8775 00ac BD46     		mov	sp, r7
 8776              		.cfi_def_cfa_register 13
 8777              		@ sp needed
 8778 00ae 80BD     		pop	{r7, pc}
 8779              	.L468:
 8780              		.align	2
 8781              	.L467:
 8782 00b0 AC010000 		.word	.LC11
 8783 00b4 00000000 		.word	__func__.2
 8784 00b8 3C000000 		.word	.LC4
 8785              		.cfi_endproc
 8786              	.LFE4847:
 8788              		.section	.text.LL_Arithacc_Init,"ax",%progbits
 8789              		.align	1
 8790              		.global	LL_Arithacc_Init
 8791              		.syntax unified
 8792              		.thumb
 8793              		.thumb_func
 8795              	LL_Arithacc_Init:
 8796              	.LFB4848:
2021:Lib/AI_Runtime/Npu/ll_aton/ll_aton.c **** 
2022:Lib/AI_Runtime/Npu/ll_aton/ll_aton.c **** /**
2023:Lib/AI_Runtime/Npu/ll_aton/ll_aton.c ****  * @brief  Configures Arithmetic Accelerator
2024:Lib/AI_Runtime/Npu/ll_aton/ll_aton.c ****  * @param  id Arithmetic Accelerator identifier [0..ATON_ARITH_NUM-1]
2025:Lib/AI_Runtime/Npu/ll_aton/ll_aton.c ****  * @param  Arithacc_InitStruct Structure describing initialization parameters
ARM GAS  /tmp/ccxZaNgH.s 			page 203


2026:Lib/AI_Runtime/Npu/ll_aton/ll_aton.c ****  * @retval Error code E.g.: Invalid ID, invalid parameters, not idle,..
2027:Lib/AI_Runtime/Npu/ll_aton/ll_aton.c ****  */
2028:Lib/AI_Runtime/Npu/ll_aton/ll_aton.c **** int LL_Arithacc_Init(int id, const LL_Arithacc_InitTypeDef *conf)
2029:Lib/AI_Runtime/Npu/ll_aton/ll_aton.c **** {
 8797              		.loc 1 2029 1
 8798              		.cfi_startproc
 8799              		@ args = 0, pretend = 0, frame = 88
 8800              		@ frame_needed = 1, uses_anonymous_args = 0
 8801 0000 90B5     		push	{r4, r7, lr}
 8802              		.cfi_def_cfa_offset 12
 8803              		.cfi_offset 4, -12
 8804              		.cfi_offset 7, -8
 8805              		.cfi_offset 14, -4
 8806 0002 97B0     		sub	sp, sp, #92
 8807              		.cfi_def_cfa_offset 104
 8808 0004 00AF     		add	r7, sp, #0
 8809              		.cfi_def_cfa_register 7
 8810 0006 7860     		str	r0, [r7, #4]
 8811 0008 3960     		str	r1, [r7]
2030:Lib/AI_Runtime/Npu/ll_aton/ll_aton.c ****   uint32_t t;
2031:Lib/AI_Runtime/Npu/ll_aton/ll_aton.c ****   char sshift;
2032:Lib/AI_Runtime/Npu/ll_aton/ll_aton.c **** 
2033:Lib/AI_Runtime/Npu/ll_aton/ll_aton.c ****   if (id >= ATON_ARITH_NUM)
 8812              		.loc 1 2033 6
 8813 000a 7B68     		ldr	r3, [r7, #4]
 8814 000c 032B     		cmp	r3, #3
 8815 000e 03DD     		ble	.L470
2034:Lib/AI_Runtime/Npu/ll_aton/ll_aton.c ****     return LL_ATON_INVALID_ID;
 8816              		.loc 1 2034 12
 8817 0010 4FF0FF33 		mov	r3, #-1
 8818 0014 00F069BC 		b	.L471
 8819              	.L470:
2035:Lib/AI_Runtime/Npu/ll_aton/ll_aton.c **** 
2036:Lib/AI_Runtime/Npu/ll_aton/ll_aton.c ****   /* Deal with Arith Acc V3 shifts extensions */
2037:Lib/AI_Runtime/Npu/ll_aton/ll_aton.c ****   if (ATON_ARITH_VERSION_MAJOR_DT >= 3)
2038:Lib/AI_Runtime/Npu/ll_aton/ll_aton.c ****     sshift = 16;
2039:Lib/AI_Runtime/Npu/ll_aton/ll_aton.c ****   else
2040:Lib/AI_Runtime/Npu/ll_aton/ll_aton.c ****     sshift = 0;
 8820              		.loc 1 2040 12
 8821 0018 0023     		movs	r3, #0
 8822 001a 87F83330 		strb	r3, [r7, #51]
2041:Lib/AI_Runtime/Npu/ll_aton/ll_aton.c **** 
2042:Lib/AI_Runtime/Npu/ll_aton/ll_aton.c ****   LL_ATON_EnableClock(ATON_ARITH_CLKB_CLK(id));
 8823              		.loc 1 2042 23
 8824 001e 7B68     		ldr	r3, [r7, #4]
 8825 0020 1233     		adds	r3, r3, #18
 8826              		.loc 1 2042 3
 8827 0022 1846     		mov	r0, r3
 8828 0024 FFF7FEFF 		bl	LL_ATON_EnableClock
2043:Lib/AI_Runtime/Npu/ll_aton/ll_aton.c **** 
2044:Lib/AI_Runtime/Npu/ll_aton/ll_aton.c ****   t = ATON_ARITH_CTRL_DT;
 8829              		.loc 1 2044 5
 8830 0028 4FF00063 		mov	r3, #134217728
 8831 002c 7B65     		str	r3, [r7, #84]
2045:Lib/AI_Runtime/Npu/ll_aton/ll_aton.c ****   ATON_ARITH_CTRL_SET(id, t);
 8832              		.loc 1 2045 3
 8833 002e 7B68     		ldr	r3, [r7, #4]
ARM GAS  /tmp/ccxZaNgH.s 			page 204


 8834 0030 03F5B023 		add	r3, r3, #360448
 8835 0034 F733     		adds	r3, r3, #247
 8836 0036 1B03     		lsls	r3, r3, #12
 8837 0038 1A46     		mov	r2, r3
 8838 003a 7B6D     		ldr	r3, [r7, #84]
 8839 003c 1360     		str	r3, [r2]
2046:Lib/AI_Runtime/Npu/ll_aton/ll_aton.c **** 
2047:Lib/AI_Runtime/Npu/ll_aton/ll_aton.c ****   t = ATON_ARITH_CTRL_DT;
 8840              		.loc 1 2047 5
 8841 003e 4FF00063 		mov	r3, #134217728
 8842 0042 7B65     		str	r3, [r7, #84]
2048:Lib/AI_Runtime/Npu/ll_aton/ll_aton.c ****   t = ATON_ARITH_CTRL_SET_CNT1(t, (conf->scalar == 0)); // these must be handled yet FIXME !!!
 8843              		.loc 1 2048 7
 8844 0044 7B6D     		ldr	r3, [r7, #84]
 8845 0046 23F00403 		bic	r3, r3, #4
 8846 004a 3A68     		ldr	r2, [r7]
 8847 004c D279     		ldrb	r2, [r2, #7]
 8848 004e C2F30002 		ubfx	r2, r2, #0, #1
 8849 0052 D2B2     		uxtb	r2, r2
 8850 0054 002A     		cmp	r2, #0
 8851 0056 01D0     		beq	.L472
 8852              		.loc 1 2048 7 is_stmt 0 discriminator 1
 8853 0058 0022     		movs	r2, #0
 8854 005a 00E0     		b	.L473
 8855              	.L472:
 8856              		.loc 1 2048 7 discriminator 2
 8857 005c 0422     		movs	r2, #4
 8858              	.L473:
 8859              		.loc 1 2048 5 is_stmt 1 discriminator 4
 8860 005e 1343     		orrs	r3, r3, r2
 8861 0060 7B65     		str	r3, [r7, #84]
2049:Lib/AI_Runtime/Npu/ll_aton/ll_aton.c ****   t = ATON_ARITH_CTRL_SET_CNT2(t, (conf->scalar == 0) && (conf->bcast == ARITH_BCAST_CHAN));
 8862              		.loc 1 2049 7
 8863 0062 7B6D     		ldr	r3, [r7, #84]
 8864 0064 23F00802 		bic	r2, r3, #8
 8865 0068 3B68     		ldr	r3, [r7]
 8866 006a DB79     		ldrb	r3, [r3, #7]	@ zero_extendqisi2
 8867 006c 03F00103 		and	r3, r3, #1
 8868 0070 DBB2     		uxtb	r3, r3
 8869 0072 002B     		cmp	r3, #0
 8870 0074 05D1     		bne	.L474
 8871              		.loc 1 2049 7 is_stmt 0 discriminator 1
 8872 0076 3B68     		ldr	r3, [r7]
 8873 0078 5B7A     		ldrb	r3, [r3, #9]	@ zero_extendqisi2
 8874 007a 012B     		cmp	r3, #1
 8875 007c 01D1     		bne	.L474
 8876              		.loc 1 2049 7 discriminator 3
 8877 007e 0123     		movs	r3, #1
 8878              		.loc 1 2049 7
 8879 0080 00E0     		b	.L475
 8880              	.L474:
 8881              		.loc 1 2049 7 discriminator 4
 8882 0082 0023     		movs	r3, #0
 8883              	.L475:
 8884              		.loc 1 2049 7 discriminator 6
 8885 0084 DB00     		lsls	r3, r3, #3
 8886 0086 03F00803 		and	r3, r3, #8
ARM GAS  /tmp/ccxZaNgH.s 			page 205


 8887              		.loc 1 2049 5 is_stmt 1 discriminator 6
 8888 008a 1343     		orrs	r3, r3, r2
 8889 008c 7B65     		str	r3, [r7, #84]
2050:Lib/AI_Runtime/Npu/ll_aton/ll_aton.c ****   t = ATON_ARITH_CTRL_SET_CNT3(t, (conf->scalar == 0) && (conf->bcast == ARITH_BCAST_CHAN));
 8890              		.loc 1 2050 7
 8891 008e 7B6D     		ldr	r3, [r7, #84]
 8892 0090 23F01002 		bic	r2, r3, #16
 8893 0094 3B68     		ldr	r3, [r7]
 8894 0096 DB79     		ldrb	r3, [r3, #7]	@ zero_extendqisi2
 8895 0098 03F00103 		and	r3, r3, #1
 8896 009c DBB2     		uxtb	r3, r3
 8897 009e 002B     		cmp	r3, #0
 8898 00a0 05D1     		bne	.L476
 8899              		.loc 1 2050 7 is_stmt 0 discriminator 1
 8900 00a2 3B68     		ldr	r3, [r7]
 8901 00a4 5B7A     		ldrb	r3, [r3, #9]	@ zero_extendqisi2
 8902 00a6 012B     		cmp	r3, #1
 8903 00a8 01D1     		bne	.L476
 8904              		.loc 1 2050 7 discriminator 3
 8905 00aa 0123     		movs	r3, #1
 8906              		.loc 1 2050 7
 8907 00ac 00E0     		b	.L477
 8908              	.L476:
 8909              		.loc 1 2050 7 discriminator 4
 8910 00ae 0023     		movs	r3, #0
 8911              	.L477:
 8912              		.loc 1 2050 7 discriminator 6
 8913 00b0 1B01     		lsls	r3, r3, #4
 8914 00b2 03F01003 		and	r3, r3, #16
 8915              		.loc 1 2050 5 is_stmt 1 discriminator 6
 8916 00b6 1343     		orrs	r3, r3, r2
 8917 00b8 7B65     		str	r3, [r7, #84]
2051:Lib/AI_Runtime/Npu/ll_aton/ll_aton.c ****   t = ATON_ARITH_CTRL_SET_ROUND(t, (conf->rounding_o != 0));
 8918              		.loc 1 2051 7
 8919 00ba 7B6D     		ldr	r3, [r7, #84]
 8920 00bc 23F02002 		bic	r2, r3, #32
 8921 00c0 3B68     		ldr	r3, [r7]
 8922 00c2 5B79     		ldrb	r3, [r3, #5]	@ zero_extendqisi2
 8923 00c4 5B01     		lsls	r3, r3, #5
 8924 00c6 03F02003 		and	r3, r3, #32
 8925              		.loc 1 2051 5
 8926 00ca 1343     		orrs	r3, r3, r2
 8927 00cc 7B65     		str	r3, [r7, #84]
2052:Lib/AI_Runtime/Npu/ll_aton/ll_aton.c ****   t = ATON_ARITH_CTRL_SET_ORNDMODE(t, (conf->relu_mode_o << 1) | conf->round_mode_o);
 8928              		.loc 1 2052 7
 8929 00ce 7B6D     		ldr	r3, [r7, #84]
 8930 00d0 23F04072 		bic	r2, r3, #50331648
 8931 00d4 3B68     		ldr	r3, [r7]
 8932 00d6 5B79     		ldrb	r3, [r3, #5]
 8933 00d8 C3F3C003 		ubfx	r3, r3, #3, #1
 8934 00dc DBB2     		uxtb	r3, r3
 8935 00de 5B00     		lsls	r3, r3, #1
 8936 00e0 3968     		ldr	r1, [r7]
 8937 00e2 4979     		ldrb	r1, [r1, #5]
 8938 00e4 C1F38001 		ubfx	r1, r1, #2, #1
 8939 00e8 C9B2     		uxtb	r1, r1
 8940 00ea 0B43     		orrs	r3, r3, r1
ARM GAS  /tmp/ccxZaNgH.s 			page 206


 8941 00ec 1B06     		lsls	r3, r3, #24
 8942 00ee 03F04073 		and	r3, r3, #50331648
 8943              		.loc 1 2052 5
 8944 00f2 1343     		orrs	r3, r3, r2
 8945 00f4 7B65     		str	r3, [r7, #84]
2053:Lib/AI_Runtime/Npu/ll_aton/ll_aton.c ****   // t = ATON_ARITH_CTRL_SET_OBYTES(t,((conf->dataw_o + 7) >> 3));
2054:Lib/AI_Runtime/Npu/ll_aton/ll_aton.c ****   t = ATON_ARITH_CTRL_SET_OBYTES(t, conf->outbytes_o);
 8946              		.loc 1 2054 7
 8947 00f6 7B6D     		ldr	r3, [r7, #84]
 8948 00f8 23F04062 		bic	r2, r3, #201326592
 8949 00fc 3B68     		ldr	r3, [r7]
 8950 00fe 5B79     		ldrb	r3, [r3, #5]
 8951 0100 C3F30113 		ubfx	r3, r3, #4, #2
 8952 0104 DBB2     		uxtb	r3, r3
 8953 0106 9B06     		lsls	r3, r3, #26
 8954 0108 03F04063 		and	r3, r3, #201326592
 8955              		.loc 1 2054 5
 8956 010c 1343     		orrs	r3, r3, r2
 8957 010e 7B65     		str	r3, [r7, #84]
2055:Lib/AI_Runtime/Npu/ll_aton/ll_aton.c ****   t = ATON_ARITH_CTRL_SET_SAT(t, (conf->saturation_o != 0));
 8958              		.loc 1 2055 7
 8959 0110 7B6D     		ldr	r3, [r7, #84]
 8960 0112 23F04002 		bic	r2, r3, #64
 8961 0116 3B68     		ldr	r3, [r7]
 8962 0118 5B79     		ldrb	r3, [r3, #5]	@ zero_extendqisi2
 8963 011a 5B01     		lsls	r3, r3, #5
 8964 011c 03F04003 		and	r3, r3, #64
 8965              		.loc 1 2055 5
 8966 0120 1343     		orrs	r3, r3, r2
 8967 0122 7B65     		str	r3, [r7, #84]
2056:Lib/AI_Runtime/Npu/ll_aton/ll_aton.c ****   t = ATON_ARITH_CTRL_SET_COEFFA(t, (conf->scalar == 0));
 8968              		.loc 1 2056 7
 8969 0124 7B6D     		ldr	r3, [r7, #84]
 8970 0126 23F08003 		bic	r3, r3, #128
 8971 012a 3A68     		ldr	r2, [r7]
 8972 012c D279     		ldrb	r2, [r2, #7]
 8973 012e C2F30002 		ubfx	r2, r2, #0, #1
 8974 0132 D2B2     		uxtb	r2, r2
 8975 0134 002A     		cmp	r2, #0
 8976 0136 01D0     		beq	.L478
 8977              		.loc 1 2056 7 is_stmt 0 discriminator 1
 8978 0138 0022     		movs	r2, #0
 8979 013a 00E0     		b	.L479
 8980              	.L478:
 8981              		.loc 1 2056 7 discriminator 2
 8982 013c 8022     		movs	r2, #128
 8983              	.L479:
 8984              		.loc 1 2056 5 is_stmt 1 discriminator 4
 8985 013e 1343     		orrs	r3, r3, r2
 8986 0140 7B65     		str	r3, [r7, #84]
2057:Lib/AI_Runtime/Npu/ll_aton/ll_aton.c ****   t = ATON_ARITH_CTRL_SET_COEFFB(t, (conf->scalar == 0));
 8987              		.loc 1 2057 7
 8988 0142 7B6D     		ldr	r3, [r7, #84]
 8989 0144 23F40013 		bic	r3, r3, #2097152
 8990 0148 3A68     		ldr	r2, [r7]
 8991 014a D279     		ldrb	r2, [r2, #7]
 8992 014c C2F30002 		ubfx	r2, r2, #0, #1
ARM GAS  /tmp/ccxZaNgH.s 			page 207


 8993 0150 D2B2     		uxtb	r2, r2
 8994 0152 002A     		cmp	r2, #0
 8995 0154 01D0     		beq	.L480
 8996              		.loc 1 2057 7 is_stmt 0 discriminator 1
 8997 0156 0022     		movs	r2, #0
 8998 0158 01E0     		b	.L481
 8999              	.L480:
 9000              		.loc 1 2057 7 discriminator 2
 9001 015a 4FF40012 		mov	r2, #2097152
 9002              	.L481:
 9003              		.loc 1 2057 5 is_stmt 1 discriminator 4
 9004 015e 1343     		orrs	r3, r3, r2
 9005 0160 7B65     		str	r3, [r7, #84]
2058:Lib/AI_Runtime/Npu/ll_aton/ll_aton.c ****   t = ATON_ARITH_CTRL_SET_COEFFC(t, (conf->scalar == 0));
 9006              		.loc 1 2058 7
 9007 0162 7B6D     		ldr	r3, [r7, #84]
 9008 0164 23F48003 		bic	r3, r3, #4194304
 9009 0168 3A68     		ldr	r2, [r7]
 9010 016a D279     		ldrb	r2, [r2, #7]
 9011 016c C2F30002 		ubfx	r2, r2, #0, #1
 9012 0170 D2B2     		uxtb	r2, r2
 9013 0172 002A     		cmp	r2, #0
 9014 0174 01D0     		beq	.L482
 9015              		.loc 1 2058 7 is_stmt 0 discriminator 1
 9016 0176 0022     		movs	r2, #0
 9017 0178 01E0     		b	.L483
 9018              	.L482:
 9019              		.loc 1 2058 7 discriminator 2
 9020 017a 4FF48002 		mov	r2, #4194304
 9021              	.L483:
 9022              		.loc 1 2058 5 is_stmt 1 discriminator 4
 9023 017e 1343     		orrs	r3, r3, r2
 9024 0180 7B65     		str	r3, [r7, #84]
2059:Lib/AI_Runtime/Npu/ll_aton/ll_aton.c ****   t = ATON_ARITH_CTRL_SET_DUALIN(t, (conf->dualinput != 0));
 9025              		.loc 1 2059 7
 9026 0182 7B6D     		ldr	r3, [r7, #84]
 9027 0184 23F48072 		bic	r2, r3, #256
 9028 0188 3B68     		ldr	r3, [r7]
 9029 018a DB79     		ldrb	r3, [r3, #7]	@ zero_extendqisi2
 9030 018c DB01     		lsls	r3, r3, #7
 9031 018e 03F48073 		and	r3, r3, #256
 9032              		.loc 1 2059 5
 9033 0192 1343     		orrs	r3, r3, r2
 9034 0194 7B65     		str	r3, [r7, #84]
2060:Lib/AI_Runtime/Npu/ll_aton/ll_aton.c ****   t = ATON_ARITH_CTRL_SET_COMBINEBC(t, (conf->combinebc != 0));
 9035              		.loc 1 2060 7
 9036 0196 7B6D     		ldr	r3, [r7, #84]
 9037 0198 23F08052 		bic	r2, r3, #268435456
 9038 019c 3B68     		ldr	r3, [r7]
 9039 019e DB78     		ldrb	r3, [r3, #3]	@ zero_extendqisi2
 9040 01a0 1B07     		lsls	r3, r3, #28
 9041 01a2 03F08053 		and	r3, r3, #268435456
 9042              		.loc 1 2060 5
 9043 01a6 1343     		orrs	r3, r3, r2
 9044 01a8 7B65     		str	r3, [r7, #84]
2061:Lib/AI_Runtime/Npu/ll_aton/ll_aton.c **** #ifdef ATON_ARITH_CTRL_SET_CLIPOUT
2062:Lib/AI_Runtime/Npu/ll_aton/ll_aton.c ****   t = ATON_ARITH_CTRL_SET_CLIPOUT(t, (conf->clipout != 0));
ARM GAS  /tmp/ccxZaNgH.s 			page 208


 9045              		.loc 1 2062 7
 9046 01aa 7B6D     		ldr	r3, [r7, #84]
 9047 01ac 23F00052 		bic	r2, r3, #536870912
 9048 01b0 3B68     		ldr	r3, [r7]
 9049 01b2 DB78     		ldrb	r3, [r3, #3]	@ zero_extendqisi2
 9050 01b4 1B07     		lsls	r3, r3, #28
 9051 01b6 03F00053 		and	r3, r3, #536870912
 9052              		.loc 1 2062 5
 9053 01ba 1343     		orrs	r3, r3, r2
 9054 01bc 7B65     		str	r3, [r7, #84]
2063:Lib/AI_Runtime/Npu/ll_aton/ll_aton.c **** #endif
2064:Lib/AI_Runtime/Npu/ll_aton/ll_aton.c ****   t = ATON_ARITH_CTRL_SET_OP(t, get_Arithacc_type(conf->operation));
 9055              		.loc 1 2064 7
 9056 01be 7B6D     		ldr	r3, [r7, #84]
 9057 01c0 23F4FC44 		bic	r4, r3, #32256
 9058 01c4 3B68     		ldr	r3, [r7]
 9059 01c6 1B7A     		ldrb	r3, [r3, #8]	@ zero_extendqisi2
 9060 01c8 1846     		mov	r0, r3
 9061 01ca FFF7FEFF 		bl	get_Arithacc_type
 9062 01ce 0346     		mov	r3, r0
 9063              		.loc 1 2064 7 is_stmt 0 discriminator 1
 9064 01d0 5B02     		lsls	r3, r3, #9
 9065 01d2 03F4FC43 		and	r3, r3, #32256
 9066              		.loc 1 2064 5 is_stmt 1 discriminator 1
 9067 01d6 2343     		orrs	r3, r3, r4
 9068 01d8 7B65     		str	r3, [r7, #84]
2065:Lib/AI_Runtime/Npu/ll_aton/ll_aton.c ****   if (conf->operation == ARITH_NOT_X)
 9069              		.loc 1 2065 11
 9070 01da 3B68     		ldr	r3, [r7]
 9071 01dc 1B7A     		ldrb	r3, [r3, #8]	@ zero_extendqisi2
 9072              		.loc 1 2065 6
 9073 01de 072B     		cmp	r3, #7
 9074 01e0 03D1     		bne	.L484
2066:Lib/AI_Runtime/Npu/ll_aton/ll_aton.c ****   { // WORKAROUND
2067:Lib/AI_Runtime/Npu/ll_aton/ll_aton.c ****     t = ATON_ARITH_CTRL_SET_LOGICALOP(t, 1);
 9075              		.loc 1 2067 7
 9076 01e2 7B6D     		ldr	r3, [r7, #84]
 9077 01e4 43F40003 		orr	r3, r3, #8388608
 9078 01e8 7B65     		str	r3, [r7, #84]
 9079              	.L484:
2068:Lib/AI_Runtime/Npu/ll_aton/ll_aton.c ****   }
2069:Lib/AI_Runtime/Npu/ll_aton/ll_aton.c ****   ATON_ARITH_CTRL_SET(id, t);
 9080              		.loc 1 2069 3
 9081 01ea 7B68     		ldr	r3, [r7, #4]
 9082 01ec 03F5B023 		add	r3, r3, #360448
 9083 01f0 F733     		adds	r3, r3, #247
 9084 01f2 1B03     		lsls	r3, r3, #12
 9085 01f4 1A46     		mov	r2, r3
 9086 01f6 7B6D     		ldr	r3, [r7, #84]
 9087 01f8 1360     		str	r3, [r2]
2070:Lib/AI_Runtime/Npu/ll_aton/ll_aton.c **** 
2071:Lib/AI_Runtime/Npu/ll_aton/ll_aton.c ****   t = ATON_ARITH_INSHIFTER_DT;
 9088              		.loc 1 2071 5
 9089 01fa A04B     		ldr	r3, .L507
 9090 01fc 7B65     		str	r3, [r7, #84]
2072:Lib/AI_Runtime/Npu/ll_aton/ll_aton.c ****   t = ATON_ARITH_INSHIFTER_SET_FBYTESX(t, conf->inbytes_x);
 9091              		.loc 1 2072 7
ARM GAS  /tmp/ccxZaNgH.s 			page 209


 9092 01fe 7B6D     		ldr	r3, [r7, #84]
 9093 0200 23F00303 		bic	r3, r3, #3
 9094 0204 3A68     		ldr	r2, [r7]
 9095 0206 1278     		ldrb	r2, [r2]
 9096 0208 C2F30112 		ubfx	r2, r2, #4, #2
 9097 020c D2B2     		uxtb	r2, r2
 9098              		.loc 1 2072 5
 9099 020e 1343     		orrs	r3, r3, r2
 9100 0210 7B65     		str	r3, [r7, #84]
2073:Lib/AI_Runtime/Npu/ll_aton/ll_aton.c ****   t = ATON_ARITH_INSHIFTER_SET_FSHIFTX(t, ATON_SHIFT(conf->shift_x));
 9101              		.loc 1 2073 7
 9102 0212 7B6D     		ldr	r3, [r7, #84]
 9103 0214 23F0FC02 		bic	r2, r3, #252
 9104 0218 3B68     		ldr	r3, [r7]
 9105 021a 93F90130 		ldrsb	r3, [r3, #1]
 9106 021e 1033     		adds	r3, r3, #16
 9107 0220 9B00     		lsls	r3, r3, #2
 9108 0222 DBB2     		uxtb	r3, r3
 9109              		.loc 1 2073 5
 9110 0224 1343     		orrs	r3, r3, r2
 9111 0226 7B65     		str	r3, [r7, #84]
2074:Lib/AI_Runtime/Npu/ll_aton/ll_aton.c ****   t = ATON_ARITH_INSHIFTER_SET_FROUNDX(t, (conf->rounding_x != 0));
 9112              		.loc 1 2074 7
 9113 0228 7B6D     		ldr	r3, [r7, #84]
 9114 022a 23F48072 		bic	r2, r3, #256
 9115 022e 3B68     		ldr	r3, [r7]
 9116 0230 1B78     		ldrb	r3, [r3]	@ zero_extendqisi2
 9117 0232 1B02     		lsls	r3, r3, #8
 9118 0234 03F48073 		and	r3, r3, #256
 9119              		.loc 1 2074 5
 9120 0238 1343     		orrs	r3, r3, r2
 9121 023a 7B65     		str	r3, [r7, #84]
2075:Lib/AI_Runtime/Npu/ll_aton/ll_aton.c ****   t = ATON_ARITH_INSHIFTER_SET_FSATX(t, (conf->saturation_x != 0));
 9122              		.loc 1 2075 7
 9123 023c 7B6D     		ldr	r3, [r7, #84]
 9124 023e 23F40072 		bic	r2, r3, #512
 9125 0242 3B68     		ldr	r3, [r7]
 9126 0244 1B78     		ldrb	r3, [r3]	@ zero_extendqisi2
 9127 0246 1B02     		lsls	r3, r3, #8
 9128 0248 03F40073 		and	r3, r3, #512
 9129              		.loc 1 2075 5
 9130 024c 1343     		orrs	r3, r3, r2
 9131 024e 7B65     		str	r3, [r7, #84]
2076:Lib/AI_Runtime/Npu/ll_aton/ll_aton.c ****   t = ATON_ARITH_INSHIFTER_SET_FRNDMODEX(t, conf->round_mode_x);
 9132              		.loc 1 2076 7
 9133 0250 7B6D     		ldr	r3, [r7, #84]
 9134 0252 23F44062 		bic	r2, r3, #3072
 9135 0256 3B68     		ldr	r3, [r7]
 9136 0258 1B78     		ldrb	r3, [r3]
 9137 025a C3F38103 		ubfx	r3, r3, #2, #2
 9138 025e DBB2     		uxtb	r3, r3
 9139 0260 9B02     		lsls	r3, r3, #10
 9140 0262 03F44063 		and	r3, r3, #3072
 9141              		.loc 1 2076 5
 9142 0266 1343     		orrs	r3, r3, r2
 9143 0268 7B65     		str	r3, [r7, #84]
2077:Lib/AI_Runtime/Npu/ll_aton/ll_aton.c ****   t = ATON_ARITH_INSHIFTER_SET_FOBYTESX(t, conf->outbytes_x);
ARM GAS  /tmp/ccxZaNgH.s 			page 210


 9144              		.loc 1 2077 7
 9145 026a 7B6D     		ldr	r3, [r7, #84]
 9146 026c 23F44052 		bic	r2, r3, #12288
 9147 0270 3B68     		ldr	r3, [r7]
 9148 0272 1B78     		ldrb	r3, [r3]
 9149 0274 C3F38113 		ubfx	r3, r3, #6, #2
 9150 0278 DBB2     		uxtb	r3, r3
 9151 027a 1B03     		lsls	r3, r3, #12
 9152 027c 03F44053 		and	r3, r3, #12288
 9153              		.loc 1 2077 5
 9154 0280 1343     		orrs	r3, r3, r2
 9155 0282 7B65     		str	r3, [r7, #84]
2078:Lib/AI_Runtime/Npu/ll_aton/ll_aton.c **** 
2079:Lib/AI_Runtime/Npu/ll_aton/ll_aton.c ****   t = ATON_ARITH_INSHIFTER_SET_FBYTESY(t, conf->inbytes_y);
 9156              		.loc 1 2079 7
 9157 0284 7B6D     		ldr	r3, [r7, #84]
 9158 0286 23F44032 		bic	r2, r3, #196608
 9159 028a 3B68     		ldr	r3, [r7]
 9160 028c 9B78     		ldrb	r3, [r3, #2]
 9161 028e C3F30113 		ubfx	r3, r3, #4, #2
 9162 0292 DBB2     		uxtb	r3, r3
 9163 0294 1B04     		lsls	r3, r3, #16
 9164 0296 03F44033 		and	r3, r3, #196608
 9165              		.loc 1 2079 5
 9166 029a 1343     		orrs	r3, r3, r2
 9167 029c 7B65     		str	r3, [r7, #84]
2080:Lib/AI_Runtime/Npu/ll_aton/ll_aton.c ****   t = ATON_ARITH_INSHIFTER_SET_FSHIFTY(t, ATON_SHIFT(conf->shift_y));
 9168              		.loc 1 2080 7
 9169 029e 7B6D     		ldr	r3, [r7, #84]
 9170 02a0 23F47C02 		bic	r2, r3, #16515072
 9171 02a4 3B68     		ldr	r3, [r7]
 9172 02a6 93F90430 		ldrsb	r3, [r3, #4]
 9173 02aa 1033     		adds	r3, r3, #16
 9174 02ac 9B04     		lsls	r3, r3, #18
 9175 02ae 03F47C03 		and	r3, r3, #16515072
 9176              		.loc 1 2080 5
 9177 02b2 1343     		orrs	r3, r3, r2
 9178 02b4 7B65     		str	r3, [r7, #84]
2081:Lib/AI_Runtime/Npu/ll_aton/ll_aton.c ****   t = ATON_ARITH_INSHIFTER_SET_FROUNDY(t, (conf->rounding_y != 0));
 9179              		.loc 1 2081 7
 9180 02b6 7B6D     		ldr	r3, [r7, #84]
 9181 02b8 23F08072 		bic	r2, r3, #16777216
 9182 02bc 3B68     		ldr	r3, [r7]
 9183 02be 9B78     		ldrb	r3, [r3, #2]	@ zero_extendqisi2
 9184 02c0 1B06     		lsls	r3, r3, #24
 9185 02c2 03F08073 		and	r3, r3, #16777216
 9186              		.loc 1 2081 5
 9187 02c6 1343     		orrs	r3, r3, r2
 9188 02c8 7B65     		str	r3, [r7, #84]
2082:Lib/AI_Runtime/Npu/ll_aton/ll_aton.c ****   t = ATON_ARITH_INSHIFTER_SET_FSATY(t, (conf->saturation_y != 0));
 9189              		.loc 1 2082 7
 9190 02ca 7B6D     		ldr	r3, [r7, #84]
 9191 02cc 23F00072 		bic	r2, r3, #33554432
 9192 02d0 3B68     		ldr	r3, [r7]
 9193 02d2 9B78     		ldrb	r3, [r3, #2]	@ zero_extendqisi2
 9194 02d4 1B06     		lsls	r3, r3, #24
 9195 02d6 03F00073 		and	r3, r3, #33554432
ARM GAS  /tmp/ccxZaNgH.s 			page 211


 9196              		.loc 1 2082 5
 9197 02da 1343     		orrs	r3, r3, r2
 9198 02dc 7B65     		str	r3, [r7, #84]
2083:Lib/AI_Runtime/Npu/ll_aton/ll_aton.c ****   t = ATON_ARITH_INSHIFTER_SET_FRNDMODEY(t, conf->round_mode_y);
 9199              		.loc 1 2083 7
 9200 02de 7B6D     		ldr	r3, [r7, #84]
 9201 02e0 23F04062 		bic	r2, r3, #201326592
 9202 02e4 3B68     		ldr	r3, [r7]
 9203 02e6 9B78     		ldrb	r3, [r3, #2]
 9204 02e8 C3F38103 		ubfx	r3, r3, #2, #2
 9205 02ec DBB2     		uxtb	r3, r3
 9206 02ee 9B06     		lsls	r3, r3, #26
 9207 02f0 03F04063 		and	r3, r3, #201326592
 9208              		.loc 1 2083 5
 9209 02f4 1343     		orrs	r3, r3, r2
 9210 02f6 7B65     		str	r3, [r7, #84]
2084:Lib/AI_Runtime/Npu/ll_aton/ll_aton.c ****   t = ATON_ARITH_INSHIFTER_SET_FOBYTESY(t, conf->outbytes_y);
 9211              		.loc 1 2084 7
 9212 02f8 7B6D     		ldr	r3, [r7, #84]
 9213 02fa 23F04052 		bic	r2, r3, #805306368
 9214 02fe 3B68     		ldr	r3, [r7]
 9215 0300 9B78     		ldrb	r3, [r3, #2]
 9216 0302 C3F38113 		ubfx	r3, r3, #6, #2
 9217 0306 DBB2     		uxtb	r3, r3
 9218 0308 1B07     		lsls	r3, r3, #28
 9219 030a 03F04053 		and	r3, r3, #805306368
 9220              		.loc 1 2084 5
 9221 030e 1343     		orrs	r3, r3, r2
 9222 0310 7B65     		str	r3, [r7, #84]
2085:Lib/AI_Runtime/Npu/ll_aton/ll_aton.c ****   ATON_ARITH_INSHIFTER_SET(id, t);
 9223              		.loc 1 2085 3
 9224 0312 7B68     		ldr	r3, [r7, #4]
 9225 0314 1A03     		lsls	r2, r3, #12
 9226 0316 5A4B     		ldr	r3, .L507+4
 9227 0318 1344     		add	r3, r3, r2
 9228 031a 1A46     		mov	r2, r3
 9229 031c 7B6D     		ldr	r3, [r7, #84]
 9230 031e 1360     		str	r3, [r2]
2086:Lib/AI_Runtime/Npu/ll_aton/ll_aton.c **** 
2087:Lib/AI_Runtime/Npu/ll_aton/ll_aton.c ****   t = ATON_ARITH_SHIFT_DT;
 9231              		.loc 1 2087 5
 9232 0320 0023     		movs	r3, #0
 9233 0322 7B65     		str	r3, [r7, #84]
2088:Lib/AI_Runtime/Npu/ll_aton/ll_aton.c ****   t = ATON_ARITH_SHIFT_SET_AX(t, conf->Ax_shift + sshift);
 9234              		.loc 1 2088 7
 9235 0324 7B6D     		ldr	r3, [r7, #84]
 9236 0326 23F01F02 		bic	r2, r3, #31
 9237 032a 3B68     		ldr	r3, [r7]
 9238 032c 9B7A     		ldrb	r3, [r3, #10]	@ zero_extendqisi2
 9239 032e 1946     		mov	r1, r3
 9240 0330 97F83330 		ldrb	r3, [r7, #51]	@ zero_extendqisi2
 9241 0334 0B44     		add	r3, r3, r1
 9242 0336 03F01F03 		and	r3, r3, #31
 9243              		.loc 1 2088 5
 9244 033a 1343     		orrs	r3, r3, r2
 9245 033c 7B65     		str	r3, [r7, #84]
2089:Lib/AI_Runtime/Npu/ll_aton/ll_aton.c ****   t = ATON_ARITH_SHIFT_SET_BY(t, conf->By_shift + sshift);
ARM GAS  /tmp/ccxZaNgH.s 			page 212


 9246              		.loc 1 2089 7
 9247 033e 7B6D     		ldr	r3, [r7, #84]
 9248 0340 23F47872 		bic	r2, r3, #992
 9249 0344 3B68     		ldr	r3, [r7]
 9250 0346 DB7A     		ldrb	r3, [r3, #11]	@ zero_extendqisi2
 9251 0348 1946     		mov	r1, r3
 9252 034a 97F83330 		ldrb	r3, [r7, #51]	@ zero_extendqisi2
 9253 034e 0B44     		add	r3, r3, r1
 9254 0350 5B01     		lsls	r3, r3, #5
 9255 0352 03F47873 		and	r3, r3, #992
 9256              		.loc 1 2089 5
 9257 0356 1343     		orrs	r3, r3, r2
 9258 0358 7B65     		str	r3, [r7, #84]
2090:Lib/AI_Runtime/Npu/ll_aton/ll_aton.c ****   t = ATON_ARITH_SHIFT_SET_C(t, conf->C_shift + sshift);
 9259              		.loc 1 2090 7
 9260 035a 7B6D     		ldr	r3, [r7, #84]
 9261 035c 23F4F842 		bic	r2, r3, #31744
 9262 0360 3B68     		ldr	r3, [r7]
 9263 0362 1B7B     		ldrb	r3, [r3, #12]	@ zero_extendqisi2
 9264 0364 1946     		mov	r1, r3
 9265 0366 97F83330 		ldrb	r3, [r7, #51]	@ zero_extendqisi2
 9266 036a 0B44     		add	r3, r3, r1
 9267 036c 9B02     		lsls	r3, r3, #10
 9268 036e 03F4F843 		and	r3, r3, #31744
 9269              		.loc 1 2090 5
 9270 0372 1343     		orrs	r3, r3, r2
 9271 0374 7B65     		str	r3, [r7, #84]
2091:Lib/AI_Runtime/Npu/ll_aton/ll_aton.c ****   t = ATON_ARITH_SHIFT_SET_RES(t, conf->shift_o); // right shift only
 9272              		.loc 1 2091 7
 9273 0376 7B6D     		ldr	r3, [r7, #84]
 9274 0378 23F4FC12 		bic	r2, r3, #2064384
 9275 037c 3B68     		ldr	r3, [r7]
 9276 037e 9B79     		ldrb	r3, [r3, #6]	@ zero_extendqisi2
 9277 0380 DB03     		lsls	r3, r3, #15
 9278 0382 03F4FC13 		and	r3, r3, #2064384
 9279              		.loc 1 2091 5
 9280 0386 1343     		orrs	r3, r3, r2
 9281 0388 7B65     		str	r3, [r7, #84]
2092:Lib/AI_Runtime/Npu/ll_aton/ll_aton.c ****   ATON_ARITH_SHIFT_SET(id, t);
 9282              		.loc 1 2092 3
 9283 038a 7B68     		ldr	r3, [r7, #4]
 9284 038c 1A03     		lsls	r2, r3, #12
 9285 038e 3D4B     		ldr	r3, .L507+8
 9286 0390 1344     		add	r3, r3, r2
 9287 0392 1A46     		mov	r2, r3
 9288 0394 7B6D     		ldr	r3, [r7, #84]
 9289 0396 1360     		str	r3, [r2]
2093:Lib/AI_Runtime/Npu/ll_aton/ll_aton.c **** 
2094:Lib/AI_Runtime/Npu/ll_aton/ll_aton.c ****   t = ATON_ARITH_COEFFAC_DT;
 9290              		.loc 1 2094 5
 9291 0398 0023     		movs	r3, #0
 9292 039a 7B65     		str	r3, [r7, #84]
2095:Lib/AI_Runtime/Npu/ll_aton/ll_aton.c ****   t = ATON_ARITH_COEFFAC_SET_A(t, conf->A_scalar);
 9293              		.loc 1 2095 7
 9294 039c 7B6D     		ldr	r3, [r7, #84]
 9295 039e 1B0C     		lsrs	r3, r3, #16
 9296 03a0 1B04     		lsls	r3, r3, #16
ARM GAS  /tmp/ccxZaNgH.s 			page 213


 9297 03a2 3A68     		ldr	r2, [r7]
 9298 03a4 B2F92020 		ldrsh	r2, [r2, #32]
 9299 03a8 92B2     		uxth	r2, r2
 9300              		.loc 1 2095 5
 9301 03aa 1343     		orrs	r3, r3, r2
 9302 03ac 7B65     		str	r3, [r7, #84]
2096:Lib/AI_Runtime/Npu/ll_aton/ll_aton.c ****   t = ATON_ARITH_COEFFAC_SET_C(t, conf->C_scalar);
 9303              		.loc 1 2096 7
 9304 03ae 7B6D     		ldr	r3, [r7, #84]
 9305 03b0 9AB2     		uxth	r2, r3
 9306 03b2 3B68     		ldr	r3, [r7]
 9307 03b4 B3F92430 		ldrsh	r3, [r3, #36]
 9308 03b8 1B04     		lsls	r3, r3, #16
 9309              		.loc 1 2096 5
 9310 03ba 1343     		orrs	r3, r3, r2
 9311 03bc 7B65     		str	r3, [r7, #84]
2097:Lib/AI_Runtime/Npu/ll_aton/ll_aton.c ****   ATON_ARITH_COEFFAC_SET(id, t);
 9312              		.loc 1 2097 3
 9313 03be 7B68     		ldr	r3, [r7, #4]
 9314 03c0 1A03     		lsls	r2, r3, #12
 9315 03c2 314B     		ldr	r3, .L507+12
 9316 03c4 1344     		add	r3, r3, r2
 9317 03c6 1A46     		mov	r2, r3
 9318 03c8 7B6D     		ldr	r3, [r7, #84]
 9319 03ca 1360     		str	r3, [r2]
2098:Lib/AI_Runtime/Npu/ll_aton/ll_aton.c **** 
2099:Lib/AI_Runtime/Npu/ll_aton/ll_aton.c ****   t = ATON_ARITH_COEFFB_DT;
 9320              		.loc 1 2099 5
 9321 03cc 0023     		movs	r3, #0
 9322 03ce 7B65     		str	r3, [r7, #84]
2100:Lib/AI_Runtime/Npu/ll_aton/ll_aton.c ****   t = ATON_ARITH_COEFFB_SET_B(t, conf->B_scalar);
 9323              		.loc 1 2100 7
 9324 03d0 7B6D     		ldr	r3, [r7, #84]
 9325 03d2 1B0C     		lsrs	r3, r3, #16
 9326 03d4 1B04     		lsls	r3, r3, #16
 9327 03d6 3A68     		ldr	r2, [r7]
 9328 03d8 B2F92220 		ldrsh	r2, [r2, #34]
 9329 03dc 92B2     		uxth	r2, r2
 9330              		.loc 1 2100 5
 9331 03de 1343     		orrs	r3, r3, r2
 9332 03e0 7B65     		str	r3, [r7, #84]
2101:Lib/AI_Runtime/Npu/ll_aton/ll_aton.c ****   ATON_ARITH_COEFFB_SET(id, t);
 9333              		.loc 1 2101 3
 9334 03e2 7B68     		ldr	r3, [r7, #4]
 9335 03e4 1A03     		lsls	r2, r3, #12
 9336 03e6 294B     		ldr	r3, .L507+16
 9337 03e8 1344     		add	r3, r3, r2
 9338 03ea 1A46     		mov	r2, r3
 9339 03ec 7B6D     		ldr	r3, [r7, #84]
 9340 03ee 1360     		str	r3, [r2]
2102:Lib/AI_Runtime/Npu/ll_aton/ll_aton.c **** 
2103:Lib/AI_Runtime/Npu/ll_aton/ll_aton.c **** #ifdef ATON_ARITH_CLIPRANGE_SET
2104:Lib/AI_Runtime/Npu/ll_aton/ll_aton.c ****   if (conf->clipout)
 9341              		.loc 1 2104 7
 9342 03f0 3B68     		ldr	r3, [r7]
 9343 03f2 DB78     		ldrb	r3, [r3, #3]	@ zero_extendqisi2
 9344 03f4 03F00203 		and	r3, r3, #2
ARM GAS  /tmp/ccxZaNgH.s 			page 214


 9345 03f8 DBB2     		uxtb	r3, r3
 9346              		.loc 1 2104 6
 9347 03fa 002B     		cmp	r3, #0
 9348 03fc 19D0     		beq	.L485
2105:Lib/AI_Runtime/Npu/ll_aton/ll_aton.c ****   {
2106:Lib/AI_Runtime/Npu/ll_aton/ll_aton.c ****     t = ATON_ARITH_CLIPRANGE_DT;
 9349              		.loc 1 2106 7
 9350 03fe 0023     		movs	r3, #0
 9351 0400 7B65     		str	r3, [r7, #84]
2107:Lib/AI_Runtime/Npu/ll_aton/ll_aton.c ****     t = ATON_ARITH_CLIPRANGE_SET_CLIPMAX(t, (conf->clipmax & 0xFFFFU));
 9352              		.loc 1 2107 9
 9353 0402 7B6D     		ldr	r3, [r7, #84]
 9354 0404 1B0C     		lsrs	r3, r3, #16
 9355 0406 1B04     		lsls	r3, r3, #16
 9356 0408 3A68     		ldr	r2, [r7]
 9357 040a B2F91E20 		ldrsh	r2, [r2, #30]
 9358 040e 92B2     		uxth	r2, r2
 9359              		.loc 1 2107 7
 9360 0410 1343     		orrs	r3, r3, r2
 9361 0412 7B65     		str	r3, [r7, #84]
2108:Lib/AI_Runtime/Npu/ll_aton/ll_aton.c ****     t = ATON_ARITH_CLIPRANGE_SET_CLIPMIN(t, (conf->clipmin & 0xFFFFU));
 9362              		.loc 1 2108 9
 9363 0414 7B6D     		ldr	r3, [r7, #84]
 9364 0416 9AB2     		uxth	r2, r3
 9365 0418 3B68     		ldr	r3, [r7]
 9366 041a B3F91C30 		ldrsh	r3, [r3, #28]
 9367 041e 1B04     		lsls	r3, r3, #16
 9368              		.loc 1 2108 7
 9369 0420 1343     		orrs	r3, r3, r2
 9370 0422 7B65     		str	r3, [r7, #84]
2109:Lib/AI_Runtime/Npu/ll_aton/ll_aton.c ****     ATON_ARITH_CLIPRANGE_SET(id, t);
 9371              		.loc 1 2109 5
 9372 0424 7B68     		ldr	r3, [r7, #4]
 9373 0426 1A03     		lsls	r2, r3, #12
 9374 0428 194B     		ldr	r3, .L507+20
 9375 042a 1344     		add	r3, r3, r2
 9376 042c 1A46     		mov	r2, r3
 9377 042e 7B6D     		ldr	r3, [r7, #84]
 9378 0430 1360     		str	r3, [r2]
 9379              	.L485:
2110:Lib/AI_Runtime/Npu/ll_aton/ll_aton.c **** 
2111:Lib/AI_Runtime/Npu/ll_aton/ll_aton.c **** #ifdef ATON_ARITH_CLIPRANGE_MSB_SET
2112:Lib/AI_Runtime/Npu/ll_aton/ll_aton.c ****     t = ATON_ARITH_CLIPRANGE_MSB_DT;
2113:Lib/AI_Runtime/Npu/ll_aton/ll_aton.c ****     t = ATON_ARITH_CLIPRANGE_MSB_SET_CLIPMAX(t, (conf->clipmax >> 16));
2114:Lib/AI_Runtime/Npu/ll_aton/ll_aton.c ****     t = ATON_ARITH_CLIPRANGE_MSB_SET_CLIPMIN(t, (conf->clipmin >> 16));
2115:Lib/AI_Runtime/Npu/ll_aton/ll_aton.c ****     ATON_ARITH_CLIPRANGE_MSB_SET(id, t);
2116:Lib/AI_Runtime/Npu/ll_aton/ll_aton.c **** #endif
2117:Lib/AI_Runtime/Npu/ll_aton/ll_aton.c ****   }
2118:Lib/AI_Runtime/Npu/ll_aton/ll_aton.c **** #endif
2119:Lib/AI_Runtime/Npu/ll_aton/ll_aton.c **** 
2120:Lib/AI_Runtime/Npu/ll_aton/ll_aton.c ****   ATON_ARITH_COEFFADDR_SET(id, 0);
 9380              		.loc 1 2120 3
 9381 0432 7B68     		ldr	r3, [r7, #4]
 9382 0434 1A03     		lsls	r2, r3, #12
 9383 0436 174B     		ldr	r3, .L507+24
 9384 0438 1344     		add	r3, r3, r2
 9385 043a 1A46     		mov	r2, r3
ARM GAS  /tmp/ccxZaNgH.s 			page 215


 9386 043c 0023     		movs	r3, #0
 9387 043e 1360     		str	r3, [r2]
2121:Lib/AI_Runtime/Npu/ll_aton/ll_aton.c **** 
2122:Lib/AI_Runtime/Npu/ll_aton/ll_aton.c ****   int maxc = 0;
 9388              		.loc 1 2122 7
 9389 0440 0023     		movs	r3, #0
 9390 0442 3B65     		str	r3, [r7, #80]
2123:Lib/AI_Runtime/Npu/ll_aton/ll_aton.c ****   if (conf->scalar == 0)
 9391              		.loc 1 2123 20
 9392 0444 3B68     		ldr	r3, [r7]
 9393 0446 DB79     		ldrb	r3, [r3, #7]	@ zero_extendqisi2
 9394 0448 03F00103 		and	r3, r3, #1
 9395 044c DBB2     		uxtb	r3, r3
 9396              		.loc 1 2123 6
 9397 044e 002B     		cmp	r3, #0
 9398 0450 40F04A82 		bne	.L486
 9399              	.LBB44:
2124:Lib/AI_Runtime/Npu/ll_aton/ll_aton.c ****   { // vector mode
2125:Lib/AI_Runtime/Npu/ll_aton/ll_aton.c ****     switch (conf->bcast)
 9400              		.loc 1 2125 17
 9401 0454 3B68     		ldr	r3, [r7]
 9402 0456 5B7A     		ldrb	r3, [r3, #9]	@ zero_extendqisi2
 9403              		.loc 1 2125 5
 9404 0458 013B     		subs	r3, r3, #1
 9405 045a 042B     		cmp	r3, #4
 9406 045c 00F26181 		bhi	.L487
 9407 0460 01A2     		adr	r2, .L489
 9408 0462 52F823F0 		ldr	pc, [r2, r3, lsl #2]
 9409 0466 00BF     		.p2align 2
 9410              	.L489:
 9411 0468 99040000 		.word	.L493+1
 9412 046c 7B050000 		.word	.L492+1
 9413 0470 FD050000 		.word	.L491+1
 9414 0474 6F060000 		.word	.L490+1
 9415 0478 F9060000 		.word	.L488+1
 9416              		.p2align 1
 9417              	.L508:
 9418              		.align	2
 9419              	.L507:
 9420 047c 42204220 		.word	541204546
 9421 0480 34700F58 		.word	1477406772
 9422 0484 08700F58 		.word	1477406728
 9423 0488 1C700F58 		.word	1477406748
 9424 048c 20700F58 		.word	1477406752
 9425 0490 38700F58 		.word	1477406776
 9426 0494 30700F58 		.word	1477406768
 9427              	.L493:
2126:Lib/AI_Runtime/Npu/ll_aton/ll_aton.c ****     {
2127:Lib/AI_Runtime/Npu/ll_aton/ll_aton.c ****     case ARITH_BCAST_CHAN:
2128:Lib/AI_Runtime/Npu/ll_aton/ll_aton.c ****       t = ATON_ARITH_INCCNT_SET_INCVAL(0, 0);
 9428              		.loc 1 2128 9
 9429 0498 0023     		movs	r3, #0
 9430 049a 7B65     		str	r3, [r7, #84]
2129:Lib/AI_Runtime/Npu/ll_aton/ll_aton.c ****       ATON_ARITH_INCCNT_SET(id, t);
 9431              		.loc 1 2129 7
 9432 049c 7B68     		ldr	r3, [r7, #4]
 9433 049e 1A03     		lsls	r2, r3, #12
ARM GAS  /tmp/ccxZaNgH.s 			page 216


 9434 04a0 A14B     		ldr	r3, .L509
 9435 04a2 1344     		add	r3, r3, r2
 9436 04a4 1A46     		mov	r2, r3
 9437 04a6 7B6D     		ldr	r3, [r7, #84]
 9438 04a8 1360     		str	r3, [r2]
2130:Lib/AI_Runtime/Npu/ll_aton/ll_aton.c **** 
2131:Lib/AI_Runtime/Npu/ll_aton/ll_aton.c ****       t = ATON_ARITH_RSTCNT1_SET_RSTCNT(0, (conf->batchDepth - 1));
 9439              		.loc 1 2131 11
 9440 04aa 3B68     		ldr	r3, [r7]
 9441 04ac 5B8B     		ldrh	r3, [r3, #26]
 9442 04ae 013B     		subs	r3, r3, #1
 9443              		.loc 1 2131 9
 9444 04b0 23F07843 		bic	r3, r3, #-134217728
 9445 04b4 7B65     		str	r3, [r7, #84]
2132:Lib/AI_Runtime/Npu/ll_aton/ll_aton.c ****       ATON_ARITH_RSTCNT1_SET(id, t);
 9446              		.loc 1 2132 7
 9447 04b6 7B68     		ldr	r3, [r7, #4]
 9448 04b8 1A03     		lsls	r2, r3, #12
 9449 04ba 9C4B     		ldr	r3, .L509+4
 9450 04bc 1344     		add	r3, r3, r2
 9451 04be 1A46     		mov	r2, r3
 9452 04c0 7B6D     		ldr	r3, [r7, #84]
 9453 04c2 1360     		str	r3, [r2]
2133:Lib/AI_Runtime/Npu/ll_aton/ll_aton.c **** 
2134:Lib/AI_Runtime/Npu/ll_aton/ll_aton.c ****       t = ATON_ARITH_RSTCNT2_SET_RSTCNT(
 9454              		.loc 1 2134 11
 9455 04c4 3B68     		ldr	r3, [r7]
 9456 04c6 1B69     		ldr	r3, [r3, #16]
 9457 04c8 3A68     		ldr	r2, [r7]
 9458 04ca 5269     		ldr	r2, [r2, #20]
 9459 04cc 02FB03F3 		mul	r3, r2, r3
 9460 04d0 3A68     		ldr	r2, [r7]
 9461 04d2 528B     		ldrh	r2, [r2, #26]
 9462 04d4 02FB03F3 		mul	r3, r2, r3
 9463 04d8 013B     		subs	r3, r3, #1
 9464              		.loc 1 2134 9
 9465 04da 23F07843 		bic	r3, r3, #-134217728
 9466 04de 7B65     		str	r3, [r7, #84]
2135:Lib/AI_Runtime/Npu/ll_aton/ll_aton.c ****           0, (conf->fWidth * conf->fHeight * conf->batchDepth - 1)); // must check this fits into 2
2136:Lib/AI_Runtime/Npu/ll_aton/ll_aton.c ****       ATON_ARITH_RSTCNT2_SET(id, t);
 9467              		.loc 1 2136 7
 9468 04e0 7B68     		ldr	r3, [r7, #4]
 9469 04e2 1A03     		lsls	r2, r3, #12
 9470 04e4 924B     		ldr	r3, .L509+8
 9471 04e6 1344     		add	r3, r3, r2
 9472 04e8 1A46     		mov	r2, r3
 9473 04ea 7B6D     		ldr	r3, [r7, #84]
 9474 04ec 1360     		str	r3, [r2]
2137:Lib/AI_Runtime/Npu/ll_aton/ll_aton.c **** 
2138:Lib/AI_Runtime/Npu/ll_aton/ll_aton.c ****       t = ATON_ARITH_RSTCNT3_SET_RSTCNT(
 9475              		.loc 1 2138 11
 9476 04ee 3B68     		ldr	r3, [r7]
 9477 04f0 1B69     		ldr	r3, [r3, #16]
 9478 04f2 3A68     		ldr	r2, [r7]
 9479 04f4 5269     		ldr	r2, [r2, #20]
 9480 04f6 02FB03F3 		mul	r3, r2, r3
 9481 04fa 3A68     		ldr	r2, [r7]
ARM GAS  /tmp/ccxZaNgH.s 			page 217


 9482 04fc 128B     		ldrh	r2, [r2, #24]
 9483 04fe 02FB03F3 		mul	r3, r2, r3
 9484 0502 013B     		subs	r3, r3, #1
 9485              		.loc 1 2138 9
 9486 0504 23F07843 		bic	r3, r3, #-134217728
 9487 0508 7B65     		str	r3, [r7, #84]
2139:Lib/AI_Runtime/Npu/ll_aton/ll_aton.c ****           0, (conf->fWidth * conf->fHeight * conf->fChannels - 1)); // must check this fits into 27
2140:Lib/AI_Runtime/Npu/ll_aton/ll_aton.c ****       ATON_ARITH_RSTCNT3_SET(id, t);
 9488              		.loc 1 2140 7
 9489 050a 7B68     		ldr	r3, [r7, #4]
 9490 050c 1A03     		lsls	r2, r3, #12
 9491 050e 894B     		ldr	r3, .L509+12
 9492 0510 1344     		add	r3, r3, r2
 9493 0512 1A46     		mov	r2, r3
 9494 0514 7B6D     		ldr	r3, [r7, #84]
 9495 0516 1360     		str	r3, [r2]
2141:Lib/AI_Runtime/Npu/ll_aton/ll_aton.c **** 
2142:Lib/AI_Runtime/Npu/ll_aton/ll_aton.c ****       t = ATON_ARITH_INCOFFSET_SET_VAL(0, 1);
 9496              		.loc 1 2142 9
 9497 0518 0123     		movs	r3, #1
 9498 051a 7B65     		str	r3, [r7, #84]
2143:Lib/AI_Runtime/Npu/ll_aton/ll_aton.c ****       ATON_ARITH_INCOFFSET_SET(id, t);
 9499              		.loc 1 2143 7
 9500 051c 7B68     		ldr	r3, [r7, #4]
 9501 051e 1A03     		lsls	r2, r3, #12
 9502 0520 854B     		ldr	r3, .L509+16
 9503 0522 1344     		add	r3, r3, r2
 9504 0524 1A46     		mov	r2, r3
 9505 0526 7B6D     		ldr	r3, [r7, #84]
 9506 0528 1360     		str	r3, [r2]
2144:Lib/AI_Runtime/Npu/ll_aton/ll_aton.c **** 
2145:Lib/AI_Runtime/Npu/ll_aton/ll_aton.c ****       t = ATON_ARITH_ADDROFFSET_SET_OFFSET1(0, -(conf->batchDepth - 1));
 9507              		.loc 1 2145 11
 9508 052a 3B68     		ldr	r3, [r7]
 9509 052c 5B8B     		ldrh	r3, [r3, #26]
 9510 052e C3F10103 		rsb	r3, r3, #1
 9511              		.loc 1 2145 9
 9512 0532 C3F30803 		ubfx	r3, r3, #0, #9
 9513 0536 7B65     		str	r3, [r7, #84]
2146:Lib/AI_Runtime/Npu/ll_aton/ll_aton.c ****       t = ATON_ARITH_ADDROFFSET_SET_OFFSET2(t, 1);
 9514              		.loc 1 2146 11
 9515 0538 7B6D     		ldr	r3, [r7, #84]
 9516 053a 23F47F33 		bic	r3, r3, #261120
 9517 053e 23F40073 		bic	r3, r3, #512
 9518              		.loc 1 2146 9
 9519 0542 43F40073 		orr	r3, r3, #512
 9520 0546 7B65     		str	r3, [r7, #84]
2147:Lib/AI_Runtime/Npu/ll_aton/ll_aton.c ****       t = ATON_ARITH_ADDROFFSET_SET_OFFSET3(t, -(conf->fChannels - 1));
 9521              		.loc 1 2147 11
 9522 0548 7B6D     		ldr	r3, [r7, #84]
 9523 054a 23F0FF63 		bic	r3, r3, #133693440
 9524 054e 23F48023 		bic	r3, r3, #262144
 9525 0552 3A68     		ldr	r2, [r7]
 9526 0554 128B     		ldrh	r2, [r2, #24]
 9527 0556 C2F10102 		rsb	r2, r2, #1
 9528 055a 9104     		lsls	r1, r2, #18
 9529 055c 774A     		ldr	r2, .L509+20
ARM GAS  /tmp/ccxZaNgH.s 			page 218


 9530 055e 0A40     		ands	r2, r2, r1
 9531              		.loc 1 2147 9
 9532 0560 1343     		orrs	r3, r3, r2
 9533 0562 7B65     		str	r3, [r7, #84]
2148:Lib/AI_Runtime/Npu/ll_aton/ll_aton.c ****       ATON_ARITH_ADDROFFSET_SET(id, t);
 9534              		.loc 1 2148 7
 9535 0564 7B68     		ldr	r3, [r7, #4]
 9536 0566 1A03     		lsls	r2, r3, #12
 9537 0568 754B     		ldr	r3, .L509+24
 9538 056a 1344     		add	r3, r3, r2
 9539 056c 1A46     		mov	r2, r3
 9540 056e 7B6D     		ldr	r3, [r7, #84]
 9541 0570 1360     		str	r3, [r2]
2149:Lib/AI_Runtime/Npu/ll_aton/ll_aton.c ****       maxc = conf->fChannels;
 9542              		.loc 1 2149 18
 9543 0572 3B68     		ldr	r3, [r7]
 9544 0574 1B8B     		ldrh	r3, [r3, #24]
 9545              		.loc 1 2149 12
 9546 0576 3B65     		str	r3, [r7, #80]
2150:Lib/AI_Runtime/Npu/ll_aton/ll_aton.c ****       break;
 9547              		.loc 1 2150 7
 9548 0578 E4E0     		b	.L494
 9549              	.L492:
2151:Lib/AI_Runtime/Npu/ll_aton/ll_aton.c ****     case ARITH_BCAST_HEIGHT:
2152:Lib/AI_Runtime/Npu/ll_aton/ll_aton.c ****       t = ATON_ARITH_INCCNT_SET_INCVAL(0, (conf->fWidth * conf->batchDepth - 1));
 9550              		.loc 1 2152 11
 9551 057a 3B68     		ldr	r3, [r7]
 9552 057c 1B69     		ldr	r3, [r3, #16]
 9553 057e 3A68     		ldr	r2, [r7]
 9554 0580 528B     		ldrh	r2, [r2, #26]
 9555 0582 02FB03F3 		mul	r3, r2, r3
 9556 0586 013B     		subs	r3, r3, #1
 9557              		.loc 1 2152 9
 9558 0588 23F07843 		bic	r3, r3, #-134217728
 9559 058c 7B65     		str	r3, [r7, #84]
2153:Lib/AI_Runtime/Npu/ll_aton/ll_aton.c ****       ATON_ARITH_INCCNT_SET(id, t);
 9560              		.loc 1 2153 7
 9561 058e 7B68     		ldr	r3, [r7, #4]
 9562 0590 1A03     		lsls	r2, r3, #12
 9563 0592 654B     		ldr	r3, .L509
 9564 0594 1344     		add	r3, r3, r2
 9565 0596 1A46     		mov	r2, r3
 9566 0598 7B6D     		ldr	r3, [r7, #84]
 9567 059a 1360     		str	r3, [r2]
2154:Lib/AI_Runtime/Npu/ll_aton/ll_aton.c **** 
2155:Lib/AI_Runtime/Npu/ll_aton/ll_aton.c ****       t = ATON_ARITH_RSTCNT1_SET_RSTCNT(0, (conf->fWidth * conf->fHeight * conf->batchDepth - 1));
 9568              		.loc 1 2155 11
 9569 059c 3B68     		ldr	r3, [r7]
 9570 059e 1B69     		ldr	r3, [r3, #16]
 9571 05a0 3A68     		ldr	r2, [r7]
 9572 05a2 5269     		ldr	r2, [r2, #20]
 9573 05a4 02FB03F3 		mul	r3, r2, r3
 9574 05a8 3A68     		ldr	r2, [r7]
 9575 05aa 528B     		ldrh	r2, [r2, #26]
 9576 05ac 02FB03F3 		mul	r3, r2, r3
 9577 05b0 013B     		subs	r3, r3, #1
 9578              		.loc 1 2155 9
ARM GAS  /tmp/ccxZaNgH.s 			page 219


 9579 05b2 23F07843 		bic	r3, r3, #-134217728
 9580 05b6 7B65     		str	r3, [r7, #84]
2156:Lib/AI_Runtime/Npu/ll_aton/ll_aton.c ****       ATON_ARITH_RSTCNT1_SET(id, t);
 9581              		.loc 1 2156 7
 9582 05b8 7B68     		ldr	r3, [r7, #4]
 9583 05ba 1A03     		lsls	r2, r3, #12
 9584 05bc 5B4B     		ldr	r3, .L509+4
 9585 05be 1344     		add	r3, r3, r2
 9586 05c0 1A46     		mov	r2, r3
 9587 05c2 7B6D     		ldr	r3, [r7, #84]
 9588 05c4 1360     		str	r3, [r2]
2157:Lib/AI_Runtime/Npu/ll_aton/ll_aton.c **** 
2158:Lib/AI_Runtime/Npu/ll_aton/ll_aton.c ****       t = ATON_ARITH_INCOFFSET_SET_VAL(0, 1);
 9589              		.loc 1 2158 9
 9590 05c6 0123     		movs	r3, #1
 9591 05c8 7B65     		str	r3, [r7, #84]
2159:Lib/AI_Runtime/Npu/ll_aton/ll_aton.c ****       ATON_ARITH_INCOFFSET_SET(id, t);
 9592              		.loc 1 2159 7
 9593 05ca 7B68     		ldr	r3, [r7, #4]
 9594 05cc 1A03     		lsls	r2, r3, #12
 9595 05ce 5A4B     		ldr	r3, .L509+16
 9596 05d0 1344     		add	r3, r3, r2
 9597 05d2 1A46     		mov	r2, r3
 9598 05d4 7B6D     		ldr	r3, [r7, #84]
 9599 05d6 1360     		str	r3, [r2]
2160:Lib/AI_Runtime/Npu/ll_aton/ll_aton.c **** 
2161:Lib/AI_Runtime/Npu/ll_aton/ll_aton.c ****       t = ATON_ARITH_ADDROFFSET_SET_OFFSET1(0, -(conf->fHeight - 1));
 9600              		.loc 1 2161 11
 9601 05d8 3B68     		ldr	r3, [r7]
 9602 05da 5B69     		ldr	r3, [r3, #20]
 9603 05dc C3F10103 		rsb	r3, r3, #1
 9604              		.loc 1 2161 9
 9605 05e0 C3F30803 		ubfx	r3, r3, #0, #9
 9606 05e4 7B65     		str	r3, [r7, #84]
2162:Lib/AI_Runtime/Npu/ll_aton/ll_aton.c ****       ATON_ARITH_ADDROFFSET_SET(id, t);
 9607              		.loc 1 2162 7
 9608 05e6 7B68     		ldr	r3, [r7, #4]
 9609 05e8 1A03     		lsls	r2, r3, #12
 9610 05ea 554B     		ldr	r3, .L509+24
 9611 05ec 1344     		add	r3, r3, r2
 9612 05ee 1A46     		mov	r2, r3
 9613 05f0 7B6D     		ldr	r3, [r7, #84]
 9614 05f2 1360     		str	r3, [r2]
2163:Lib/AI_Runtime/Npu/ll_aton/ll_aton.c ****       maxc = conf->fHeight;
 9615              		.loc 1 2163 18
 9616 05f4 3B68     		ldr	r3, [r7]
 9617 05f6 5B69     		ldr	r3, [r3, #20]
 9618              		.loc 1 2163 12
 9619 05f8 3B65     		str	r3, [r7, #80]
2164:Lib/AI_Runtime/Npu/ll_aton/ll_aton.c ****       break;
 9620              		.loc 1 2164 7
 9621 05fa A3E0     		b	.L494
 9622              	.L491:
2165:Lib/AI_Runtime/Npu/ll_aton/ll_aton.c ****     case ARITH_BCAST_WIDTH:
2166:Lib/AI_Runtime/Npu/ll_aton/ll_aton.c ****       t = ATON_ARITH_INCCNT_SET_INCVAL(0, (conf->batchDepth - 1));
 9623              		.loc 1 2166 11
 9624 05fc 3B68     		ldr	r3, [r7]
ARM GAS  /tmp/ccxZaNgH.s 			page 220


 9625 05fe 5B8B     		ldrh	r3, [r3, #26]
 9626 0600 013B     		subs	r3, r3, #1
 9627              		.loc 1 2166 9
 9628 0602 23F07843 		bic	r3, r3, #-134217728
 9629 0606 7B65     		str	r3, [r7, #84]
2167:Lib/AI_Runtime/Npu/ll_aton/ll_aton.c ****       ATON_ARITH_INCCNT_SET(id, t);
 9630              		.loc 1 2167 7
 9631 0608 7B68     		ldr	r3, [r7, #4]
 9632 060a 1A03     		lsls	r2, r3, #12
 9633 060c 464B     		ldr	r3, .L509
 9634 060e 1344     		add	r3, r3, r2
 9635 0610 1A46     		mov	r2, r3
 9636 0612 7B6D     		ldr	r3, [r7, #84]
 9637 0614 1360     		str	r3, [r2]
2168:Lib/AI_Runtime/Npu/ll_aton/ll_aton.c **** 
2169:Lib/AI_Runtime/Npu/ll_aton/ll_aton.c ****       t = ATON_ARITH_RSTCNT1_SET_RSTCNT(0, (conf->fWidth * conf->batchDepth - 1));
 9638              		.loc 1 2169 11
 9639 0616 3B68     		ldr	r3, [r7]
 9640 0618 1B69     		ldr	r3, [r3, #16]
 9641 061a 3A68     		ldr	r2, [r7]
 9642 061c 528B     		ldrh	r2, [r2, #26]
 9643 061e 02FB03F3 		mul	r3, r2, r3
 9644 0622 013B     		subs	r3, r3, #1
 9645              		.loc 1 2169 9
 9646 0624 23F07843 		bic	r3, r3, #-134217728
 9647 0628 7B65     		str	r3, [r7, #84]
2170:Lib/AI_Runtime/Npu/ll_aton/ll_aton.c ****       ATON_ARITH_RSTCNT1_SET(id, t);
 9648              		.loc 1 2170 7
 9649 062a 7B68     		ldr	r3, [r7, #4]
 9650 062c 1A03     		lsls	r2, r3, #12
 9651 062e 3F4B     		ldr	r3, .L509+4
 9652 0630 1344     		add	r3, r3, r2
 9653 0632 1A46     		mov	r2, r3
 9654 0634 7B6D     		ldr	r3, [r7, #84]
 9655 0636 1360     		str	r3, [r2]
2171:Lib/AI_Runtime/Npu/ll_aton/ll_aton.c **** 
2172:Lib/AI_Runtime/Npu/ll_aton/ll_aton.c ****       t = ATON_ARITH_INCOFFSET_SET_VAL(0, 1);
 9656              		.loc 1 2172 9
 9657 0638 0123     		movs	r3, #1
 9658 063a 7B65     		str	r3, [r7, #84]
2173:Lib/AI_Runtime/Npu/ll_aton/ll_aton.c ****       ATON_ARITH_INCOFFSET_SET(id, t);
 9659              		.loc 1 2173 7
 9660 063c 7B68     		ldr	r3, [r7, #4]
 9661 063e 1A03     		lsls	r2, r3, #12
 9662 0640 3D4B     		ldr	r3, .L509+16
 9663 0642 1344     		add	r3, r3, r2
 9664 0644 1A46     		mov	r2, r3
 9665 0646 7B6D     		ldr	r3, [r7, #84]
 9666 0648 1360     		str	r3, [r2]
2174:Lib/AI_Runtime/Npu/ll_aton/ll_aton.c **** 
2175:Lib/AI_Runtime/Npu/ll_aton/ll_aton.c ****       t = ATON_ARITH_ADDROFFSET_SET_OFFSET1(0, -(conf->fWidth - 1));
 9667              		.loc 1 2175 11
 9668 064a 3B68     		ldr	r3, [r7]
 9669 064c 1B69     		ldr	r3, [r3, #16]
 9670 064e C3F10103 		rsb	r3, r3, #1
 9671              		.loc 1 2175 9
 9672 0652 C3F30803 		ubfx	r3, r3, #0, #9
ARM GAS  /tmp/ccxZaNgH.s 			page 221


 9673 0656 7B65     		str	r3, [r7, #84]
2176:Lib/AI_Runtime/Npu/ll_aton/ll_aton.c ****       ATON_ARITH_ADDROFFSET_SET(id, t);
 9674              		.loc 1 2176 7
 9675 0658 7B68     		ldr	r3, [r7, #4]
 9676 065a 1A03     		lsls	r2, r3, #12
 9677 065c 384B     		ldr	r3, .L509+24
 9678 065e 1344     		add	r3, r3, r2
 9679 0660 1A46     		mov	r2, r3
 9680 0662 7B6D     		ldr	r3, [r7, #84]
 9681 0664 1360     		str	r3, [r2]
2177:Lib/AI_Runtime/Npu/ll_aton/ll_aton.c ****       maxc = conf->fWidth;
 9682              		.loc 1 2177 18
 9683 0666 3B68     		ldr	r3, [r7]
 9684 0668 1B69     		ldr	r3, [r3, #16]
 9685              		.loc 1 2177 12
 9686 066a 3B65     		str	r3, [r7, #80]
2178:Lib/AI_Runtime/Npu/ll_aton/ll_aton.c ****       break;
 9687              		.loc 1 2178 7
 9688 066c 6AE0     		b	.L494
 9689              	.L490:
2179:Lib/AI_Runtime/Npu/ll_aton/ll_aton.c ****     case ARITH_BCAST_HEIGHT_WIDTH:
2180:Lib/AI_Runtime/Npu/ll_aton/ll_aton.c ****       t = ATON_ARITH_INCCNT_SET_INCVAL(0, (conf->batchDepth - 1));
 9690              		.loc 1 2180 11
 9691 066e 3B68     		ldr	r3, [r7]
 9692 0670 5B8B     		ldrh	r3, [r3, #26]
 9693 0672 013B     		subs	r3, r3, #1
 9694              		.loc 1 2180 9
 9695 0674 23F07843 		bic	r3, r3, #-134217728
 9696 0678 7B65     		str	r3, [r7, #84]
2181:Lib/AI_Runtime/Npu/ll_aton/ll_aton.c ****       ATON_ARITH_INCCNT_SET(id, t);
 9697              		.loc 1 2181 7
 9698 067a 7B68     		ldr	r3, [r7, #4]
 9699 067c 1A03     		lsls	r2, r3, #12
 9700 067e 2A4B     		ldr	r3, .L509
 9701 0680 1344     		add	r3, r3, r2
 9702 0682 1A46     		mov	r2, r3
 9703 0684 7B6D     		ldr	r3, [r7, #84]
 9704 0686 1360     		str	r3, [r2]
2182:Lib/AI_Runtime/Npu/ll_aton/ll_aton.c **** 
2183:Lib/AI_Runtime/Npu/ll_aton/ll_aton.c ****       t = ATON_ARITH_RSTCNT1_SET_RSTCNT(0, (conf->fHeight * conf->fWidth * conf->batchDepth - 1));
 9705              		.loc 1 2183 11
 9706 0688 3B68     		ldr	r3, [r7]
 9707 068a 5B69     		ldr	r3, [r3, #20]
 9708 068c 3A68     		ldr	r2, [r7]
 9709 068e 1269     		ldr	r2, [r2, #16]
 9710 0690 02FB03F3 		mul	r3, r2, r3
 9711 0694 3A68     		ldr	r2, [r7]
 9712 0696 528B     		ldrh	r2, [r2, #26]
 9713 0698 02FB03F3 		mul	r3, r2, r3
 9714 069c 013B     		subs	r3, r3, #1
 9715              		.loc 1 2183 9
 9716 069e 23F07843 		bic	r3, r3, #-134217728
 9717 06a2 7B65     		str	r3, [r7, #84]
2184:Lib/AI_Runtime/Npu/ll_aton/ll_aton.c ****       ATON_ARITH_RSTCNT1_SET(id, t);
 9718              		.loc 1 2184 7
 9719 06a4 7B68     		ldr	r3, [r7, #4]
 9720 06a6 1A03     		lsls	r2, r3, #12
ARM GAS  /tmp/ccxZaNgH.s 			page 222


 9721 06a8 204B     		ldr	r3, .L509+4
 9722 06aa 1344     		add	r3, r3, r2
 9723 06ac 1A46     		mov	r2, r3
 9724 06ae 7B6D     		ldr	r3, [r7, #84]
 9725 06b0 1360     		str	r3, [r2]
2185:Lib/AI_Runtime/Npu/ll_aton/ll_aton.c **** 
2186:Lib/AI_Runtime/Npu/ll_aton/ll_aton.c ****       t = ATON_ARITH_INCOFFSET_SET_VAL(0, 1);
 9726              		.loc 1 2186 9
 9727 06b2 0123     		movs	r3, #1
 9728 06b4 7B65     		str	r3, [r7, #84]
2187:Lib/AI_Runtime/Npu/ll_aton/ll_aton.c ****       ATON_ARITH_INCOFFSET_SET(id, t);
 9729              		.loc 1 2187 7
 9730 06b6 7B68     		ldr	r3, [r7, #4]
 9731 06b8 1A03     		lsls	r2, r3, #12
 9732 06ba 1F4B     		ldr	r3, .L509+16
 9733 06bc 1344     		add	r3, r3, r2
 9734 06be 1A46     		mov	r2, r3
 9735 06c0 7B6D     		ldr	r3, [r7, #84]
 9736 06c2 1360     		str	r3, [r2]
2188:Lib/AI_Runtime/Npu/ll_aton/ll_aton.c **** 
2189:Lib/AI_Runtime/Npu/ll_aton/ll_aton.c ****       t = ATON_ARITH_ADDROFFSET_SET_OFFSET1(0, -(conf->fHeight * conf->fWidth - 1));
 9737              		.loc 1 2189 11
 9738 06c4 3B68     		ldr	r3, [r7]
 9739 06c6 5B69     		ldr	r3, [r3, #20]
 9740 06c8 3A68     		ldr	r2, [r7]
 9741 06ca 1269     		ldr	r2, [r2, #16]
 9742 06cc 02FB03F3 		mul	r3, r2, r3
 9743 06d0 C3F10103 		rsb	r3, r3, #1
 9744              		.loc 1 2189 9
 9745 06d4 C3F30803 		ubfx	r3, r3, #0, #9
 9746 06d8 7B65     		str	r3, [r7, #84]
2190:Lib/AI_Runtime/Npu/ll_aton/ll_aton.c ****       ATON_ARITH_ADDROFFSET_SET(id, t);
 9747              		.loc 1 2190 7
 9748 06da 7B68     		ldr	r3, [r7, #4]
 9749 06dc 1A03     		lsls	r2, r3, #12
 9750 06de 184B     		ldr	r3, .L509+24
 9751 06e0 1344     		add	r3, r3, r2
 9752 06e2 1A46     		mov	r2, r3
 9753 06e4 7B6D     		ldr	r3, [r7, #84]
 9754 06e6 1360     		str	r3, [r2]
2191:Lib/AI_Runtime/Npu/ll_aton/ll_aton.c ****       maxc = conf->fHeight * conf->fWidth;
 9755              		.loc 1 2191 18
 9756 06e8 3B68     		ldr	r3, [r7]
 9757 06ea 5B69     		ldr	r3, [r3, #20]
 9758              		.loc 1 2191 34
 9759 06ec 3A68     		ldr	r2, [r7]
 9760 06ee 1269     		ldr	r2, [r2, #16]
 9761              		.loc 1 2191 28
 9762 06f0 02FB03F3 		mul	r3, r2, r3
 9763              		.loc 1 2191 12
 9764 06f4 3B65     		str	r3, [r7, #80]
2192:Lib/AI_Runtime/Npu/ll_aton/ll_aton.c ****       break;
 9765              		.loc 1 2192 7
 9766 06f6 25E0     		b	.L494
 9767              	.L488:
2193:Lib/AI_Runtime/Npu/ll_aton/ll_aton.c ****     case ARITH_BCAST_SCALAR:
2194:Lib/AI_Runtime/Npu/ll_aton/ll_aton.c ****       t = ATON_ARITH_INCCNT_SET_INCVAL(0, 0);
ARM GAS  /tmp/ccxZaNgH.s 			page 223


 9768              		.loc 1 2194 9
 9769 06f8 0023     		movs	r3, #0
 9770 06fa 7B65     		str	r3, [r7, #84]
2195:Lib/AI_Runtime/Npu/ll_aton/ll_aton.c ****       ATON_ARITH_INCCNT_SET(id, t);
 9771              		.loc 1 2195 7
 9772 06fc 7B68     		ldr	r3, [r7, #4]
 9773 06fe 1A03     		lsls	r2, r3, #12
 9774 0700 094B     		ldr	r3, .L509
 9775 0702 1344     		add	r3, r3, r2
 9776 0704 1A46     		mov	r2, r3
 9777 0706 7B6D     		ldr	r3, [r7, #84]
 9778 0708 1360     		str	r3, [r2]
2196:Lib/AI_Runtime/Npu/ll_aton/ll_aton.c **** 
2197:Lib/AI_Runtime/Npu/ll_aton/ll_aton.c ****       t = ATON_ARITH_INCOFFSET_SET_VAL(0, 0);
 9779              		.loc 1 2197 9
 9780 070a 0023     		movs	r3, #0
 9781 070c 7B65     		str	r3, [r7, #84]
2198:Lib/AI_Runtime/Npu/ll_aton/ll_aton.c ****       ATON_ARITH_INCOFFSET_SET(id, t);
 9782              		.loc 1 2198 7
 9783 070e 7B68     		ldr	r3, [r7, #4]
 9784 0710 1A03     		lsls	r2, r3, #12
 9785 0712 094B     		ldr	r3, .L509+16
 9786 0714 1344     		add	r3, r3, r2
 9787 0716 1A46     		mov	r2, r3
 9788 0718 7B6D     		ldr	r3, [r7, #84]
 9789 071a 1360     		str	r3, [r2]
2199:Lib/AI_Runtime/Npu/ll_aton/ll_aton.c **** 
2200:Lib/AI_Runtime/Npu/ll_aton/ll_aton.c ****       maxc = 1;
 9790              		.loc 1 2200 12
 9791 071c 0123     		movs	r3, #1
 9792 071e 3B65     		str	r3, [r7, #80]
2201:Lib/AI_Runtime/Npu/ll_aton/ll_aton.c ****       break;
 9793              		.loc 1 2201 7
 9794 0720 10E0     		b	.L494
 9795              	.L487:
2202:Lib/AI_Runtime/Npu/ll_aton/ll_aton.c ****     default:
2203:Lib/AI_Runtime/Npu/ll_aton/ll_aton.c ****       return LL_ATON_INVALID_PARAM;
 9796              		.loc 1 2203 14
 9797 0722 6FF00103 		mvn	r3, #1
 9798 0726 E0E0     		b	.L471
 9799              	.L510:
 9800              		.align	2
 9801              	.L509:
 9802 0728 0C700F58 		.word	1477406732
 9803 072c 10700F58 		.word	1477406736
 9804 0730 14700F58 		.word	1477406740
 9805 0734 18700F58 		.word	1477406744
 9806 0738 28700F58 		.word	1477406760
 9807 073c 0000FC07 		.word	133955584
 9808 0740 24700F58 		.word	1477406756
 9809              	.L494:
2204:Lib/AI_Runtime/Npu/ll_aton/ll_aton.c ****     }
2205:Lib/AI_Runtime/Npu/ll_aton/ll_aton.c **** 
2206:Lib/AI_Runtime/Npu/ll_aton/ll_aton.c ****     maxc = (maxc > 512 ? 512 : maxc);
 9810              		.loc 1 2206 10
 9811 0744 3B6D     		ldr	r3, [r7, #80]
 9812 0746 B3F5007F 		cmp	r3, #512
ARM GAS  /tmp/ccxZaNgH.s 			page 224


 9813 074a A8BF     		it	ge
 9814 074c 4FF40073 		movge	r3, #512
 9815 0750 3B65     		str	r3, [r7, #80]
2207:Lib/AI_Runtime/Npu/ll_aton/ll_aton.c ****     int i, k;
2208:Lib/AI_Runtime/Npu/ll_aton/ll_aton.c ****     uint32_t *Ap = (uint32_t *)conf->A_vector.p;
 9816              		.loc 1 2208 15
 9817 0752 3B68     		ldr	r3, [r7]
 9818 0754 9B6A     		ldr	r3, [r3, #40]
 9819 0756 FB62     		str	r3, [r7, #44]
2209:Lib/AI_Runtime/Npu/ll_aton/ll_aton.c ****     uint32_t *Bp = (uint32_t *)conf->B_vector.p;
 9820              		.loc 1 2209 15
 9821 0758 3B68     		ldr	r3, [r7]
 9822 075a DB6A     		ldr	r3, [r3, #44]
 9823 075c BB62     		str	r3, [r7, #40]
2210:Lib/AI_Runtime/Npu/ll_aton/ll_aton.c ****     uint32_t *Cp = (uint32_t *)conf->C_vector.p;
 9824              		.loc 1 2210 15
 9825 075e 3B68     		ldr	r3, [r7]
 9826 0760 1B6B     		ldr	r3, [r3, #48]
 9827 0762 7B62     		str	r3, [r7, #36]
2211:Lib/AI_Runtime/Npu/ll_aton/ll_aton.c ****     int nbits_A = conf->vec_precision[0];
 9828              		.loc 1 2211 38
 9829 0764 3B68     		ldr	r3, [r7]
 9830 0766 93F83430 		ldrb	r3, [r3, #52]	@ zero_extendqisi2
 9831              		.loc 1 2211 9
 9832 076a 3B62     		str	r3, [r7, #32]
2212:Lib/AI_Runtime/Npu/ll_aton/ll_aton.c ****     int nbits_B = conf->vec_precision[1];
 9833              		.loc 1 2212 38
 9834 076c 3B68     		ldr	r3, [r7]
 9835 076e 93F83530 		ldrb	r3, [r3, #53]	@ zero_extendqisi2
 9836              		.loc 1 2212 9
 9837 0772 FB61     		str	r3, [r7, #28]
2213:Lib/AI_Runtime/Npu/ll_aton/ll_aton.c ****     int nbits_C = conf->vec_precision[2];
 9838              		.loc 1 2213 38
 9839 0774 3B68     		ldr	r3, [r7]
 9840 0776 93F83630 		ldrb	r3, [r3, #54]	@ zero_extendqisi2
 9841              		.loc 1 2213 9
 9842 077a BB61     		str	r3, [r7, #24]
2214:Lib/AI_Runtime/Npu/ll_aton/ll_aton.c ****     int bitcnt_A = 0;
 9843              		.loc 1 2214 9
 9844 077c 0023     		movs	r3, #0
 9845 077e 7B64     		str	r3, [r7, #68]
2215:Lib/AI_Runtime/Npu/ll_aton/ll_aton.c ****     int bitcnt_B = 0;
 9846              		.loc 1 2215 9
 9847 0780 0023     		movs	r3, #0
 9848 0782 3B64     		str	r3, [r7, #64]
2216:Lib/AI_Runtime/Npu/ll_aton/ll_aton.c ****     int bitcnt_C = 0;
 9849              		.loc 1 2216 9
 9850 0784 0023     		movs	r3, #0
 9851 0786 FB63     		str	r3, [r7, #60]
2217:Lib/AI_Runtime/Npu/ll_aton/ll_aton.c ****     int mem_idx_num = ATON_ARITH_COEFF_AB_IDX_MAX - ATON_ARITH_COEFF_AB_IDX_MIN + 1;
 9852              		.loc 1 2217 9
 9853 0788 4FF4C073 		mov	r3, #384
 9854 078c 7B61     		str	r3, [r7, #20]
2218:Lib/AI_Runtime/Npu/ll_aton/ll_aton.c **** 
2219:Lib/AI_Runtime/Npu/ll_aton/ll_aton.c ****     int32_t c_sign = (conf->C_scalar == -1 ? -1 : 1);
 9855              		.loc 1 2219 27
 9856 078e 3B68     		ldr	r3, [r7]
ARM GAS  /tmp/ccxZaNgH.s 			page 225


 9857 0790 B3F92430 		ldrsh	r3, [r3, #36]
 9858              		.loc 1 2219 49
 9859 0794 B3F1FF3F 		cmp	r3, #-1
 9860 0798 02D1     		bne	.L495
 9861              		.loc 1 2219 49 is_stmt 0 discriminator 1
 9862 079a 4FF0FF33 		mov	r3, #-1
 9863 079e 00E0     		b	.L496
 9864              	.L495:
 9865              		.loc 1 2219 49 discriminator 2
 9866 07a0 0123     		movs	r3, #1
 9867              	.L496:
 9868              		.loc 1 2219 13 is_stmt 1 discriminator 4
 9869 07a2 3B61     		str	r3, [r7, #16]
2220:Lib/AI_Runtime/Npu/ll_aton/ll_aton.c **** #if (LL_ATON_PLATFORM == LL_ATON_PLAT_EC_TRACE)
2221:Lib/AI_Runtime/Npu/ll_aton/ll_aton.c ****     ec_trace_comment("Block ECASM optimizations to move reg writes pass this point");
2222:Lib/AI_Runtime/Npu/ll_aton/ll_aton.c **** #endif
2223:Lib/AI_Runtime/Npu/ll_aton/ll_aton.c ****     ATON_ARITH_TRANSLATEADDR_SET(id, 1); // map 0x400 onto 0x0 offset for coefficients
 9870              		.loc 1 2223 5
 9871 07a4 7B68     		ldr	r3, [r7, #4]
 9872 07a6 1A03     		lsls	r2, r3, #12
 9873 07a8 524B     		ldr	r3, .L511
 9874 07aa 1344     		add	r3, r3, r2
 9875 07ac 1A46     		mov	r2, r3
 9876 07ae 0123     		movs	r3, #1
 9877 07b0 1360     		str	r3, [r2]
2224:Lib/AI_Runtime/Npu/ll_aton/ll_aton.c ****     for (i = 0, k = 0; i < maxc; i++, k++)
 9878              		.loc 1 2224 12
 9879 07b2 0023     		movs	r3, #0
 9880 07b4 FB64     		str	r3, [r7, #76]
 9881              		.loc 1 2224 19
 9882 07b6 0023     		movs	r3, #0
 9883 07b8 BB64     		str	r3, [r7, #72]
 9884              		.loc 1 2224 5
 9885 07ba 90E0     		b	.L497
 9886              	.L506:
 9887              	.LBB45:
2225:Lib/AI_Runtime/Npu/ll_aton/ll_aton.c ****     {
2226:Lib/AI_Runtime/Npu/ll_aton/ll_aton.c ****       uint32_t t;
2227:Lib/AI_Runtime/Npu/ll_aton/ll_aton.c ****       uint32_t A = Ap != NULL ? LL_ATON_getbits(Ap, bitcnt_A, nbits_A) : (uint32_t)conf->A_scalar;
 9888              		.loc 1 2227 72
 9889 07bc FB6A     		ldr	r3, [r7, #44]
 9890 07be 002B     		cmp	r3, #0
 9891 07c0 07D0     		beq	.L498
 9892              		.loc 1 2227 33 discriminator 1
 9893 07c2 7B6C     		ldr	r3, [r7, #68]
 9894 07c4 3A6A     		ldr	r2, [r7, #32]
 9895 07c6 1946     		mov	r1, r3
 9896 07c8 F86A     		ldr	r0, [r7, #44]
 9897 07ca FFF7FEFF 		bl	LL_ATON_getbits
 9898 07ce 0346     		mov	r3, r0
 9899 07d0 02E0     		b	.L499
 9900              	.L498:
 9901              		.loc 1 2227 88 discriminator 2
 9902 07d2 3B68     		ldr	r3, [r7]
 9903 07d4 B3F92030 		ldrsh	r3, [r3, #32]
 9904              	.L499:
 9905              		.loc 1 2227 16 discriminator 4
ARM GAS  /tmp/ccxZaNgH.s 			page 226


 9906 07d8 FB60     		str	r3, [r7, #12]
2228:Lib/AI_Runtime/Npu/ll_aton/ll_aton.c ****       uint32_t B = Bp != NULL ? LL_ATON_getbits(Bp, bitcnt_B, nbits_B) : (uint32_t)conf->B_scalar;
 9907              		.loc 1 2228 72
 9908 07da BB6A     		ldr	r3, [r7, #40]
 9909 07dc 002B     		cmp	r3, #0
 9910 07de 07D0     		beq	.L500
 9911              		.loc 1 2228 33 discriminator 1
 9912 07e0 3B6C     		ldr	r3, [r7, #64]
 9913 07e2 FA69     		ldr	r2, [r7, #28]
 9914 07e4 1946     		mov	r1, r3
 9915 07e6 B86A     		ldr	r0, [r7, #40]
 9916 07e8 FFF7FEFF 		bl	LL_ATON_getbits
 9917 07ec 0346     		mov	r3, r0
 9918 07ee 02E0     		b	.L501
 9919              	.L500:
 9920              		.loc 1 2228 88 discriminator 2
 9921 07f0 3B68     		ldr	r3, [r7]
 9922 07f2 B3F92230 		ldrsh	r3, [r3, #34]
 9923              	.L501:
 9924              		.loc 1 2228 16 discriminator 4
 9925 07f6 BB63     		str	r3, [r7, #56]
2229:Lib/AI_Runtime/Npu/ll_aton/ll_aton.c ****       uint32_t C = Cp != NULL ? (c_sign * LL_ATON_getbits(Cp, bitcnt_C, nbits_C)) : (uint32_t)conf-
 9926              		.loc 1 2229 83
 9927 07f8 7B6A     		ldr	r3, [r7, #36]
 9928 07fa 002B     		cmp	r3, #0
 9929 07fc 0AD0     		beq	.L502
 9930              		.loc 1 2229 43 discriminator 1
 9931 07fe FB6B     		ldr	r3, [r7, #60]
 9932 0800 BA69     		ldr	r2, [r7, #24]
 9933 0802 1946     		mov	r1, r3
 9934 0804 786A     		ldr	r0, [r7, #36]
 9935 0806 FFF7FEFF 		bl	LL_ATON_getbits
 9936 080a 0246     		mov	r2, r0
 9937              		.loc 1 2229 41 discriminator 1
 9938 080c 3B69     		ldr	r3, [r7, #16]
 9939              		.loc 1 2229 83 discriminator 1
 9940 080e 02FB03F3 		mul	r3, r2, r3
 9941 0812 02E0     		b	.L503
 9942              	.L502:
 9943              		.loc 1 2229 99 discriminator 2
 9944 0814 3B68     		ldr	r3, [r7]
 9945 0816 B3F92430 		ldrsh	r3, [r3, #36]
 9946              	.L503:
 9947              		.loc 1 2229 16 discriminator 4
 9948 081a 7B63     		str	r3, [r7, #52]
2230:Lib/AI_Runtime/Npu/ll_aton/ll_aton.c ****       if (conf->combinebc)
 9949              		.loc 1 2230 11
 9950 081c 3B68     		ldr	r3, [r7]
 9951 081e DB78     		ldrb	r3, [r3, #3]	@ zero_extendqisi2
 9952 0820 03F00103 		and	r3, r3, #1
 9953 0824 DBB2     		uxtb	r3, r3
 9954              		.loc 1 2230 10
 9955 0826 002B     		cmp	r3, #0
 9956 0828 05D0     		beq	.L504
2231:Lib/AI_Runtime/Npu/ll_aton/ll_aton.c ****       {
2232:Lib/AI_Runtime/Npu/ll_aton/ll_aton.c ****         B = (C >> 16);
 9957              		.loc 1 2232 11
ARM GAS  /tmp/ccxZaNgH.s 			page 227


 9958 082a 7B6B     		ldr	r3, [r7, #52]
 9959 082c 1B0C     		lsrs	r3, r3, #16
 9960 082e BB63     		str	r3, [r7, #56]
2233:Lib/AI_Runtime/Npu/ll_aton/ll_aton.c ****         C = (C & 0xFFFF);
 9961              		.loc 1 2233 11
 9962 0830 7B6B     		ldr	r3, [r7, #52]
 9963 0832 9BB2     		uxth	r3, r3
 9964 0834 7B63     		str	r3, [r7, #52]
 9965              	.L504:
2234:Lib/AI_Runtime/Npu/ll_aton/ll_aton.c ****       }
2235:Lib/AI_Runtime/Npu/ll_aton/ll_aton.c ****       if (k == mem_idx_num)
 9966              		.loc 1 2235 10
 9967 0836 BA6C     		ldr	r2, [r7, #72]
 9968 0838 7B69     		ldr	r3, [r7, #20]
 9969 083a 9A42     		cmp	r2, r3
 9970 083c 09D1     		bne	.L505
2236:Lib/AI_Runtime/Npu/ll_aton/ll_aton.c ****       {
2237:Lib/AI_Runtime/Npu/ll_aton/ll_aton.c **** #if (LL_ATON_PLATFORM == LL_ATON_PLAT_EC_TRACE)
2238:Lib/AI_Runtime/Npu/ll_aton/ll_aton.c ****         ec_trace_comment("Block ECASM optimizations to move reg writes pass this point");
2239:Lib/AI_Runtime/Npu/ll_aton/ll_aton.c **** #endif
2240:Lib/AI_Runtime/Npu/ll_aton/ll_aton.c ****         ATON_ARITH_TRANSLATEADDR_SET(id, 0); // map 0xC00 onto 0xC00 offset for coefficients
 9971              		.loc 1 2240 9
 9972 083e 7B68     		ldr	r3, [r7, #4]
 9973 0840 1A03     		lsls	r2, r3, #12
 9974 0842 2C4B     		ldr	r3, .L511
 9975 0844 1344     		add	r3, r3, r2
 9976 0846 1A46     		mov	r2, r3
 9977 0848 0023     		movs	r3, #0
 9978 084a 1360     		str	r3, [r2]
2241:Lib/AI_Runtime/Npu/ll_aton/ll_aton.c ****         k -= (256 / 2);
 9979              		.loc 1 2241 11
 9980 084c BB6C     		ldr	r3, [r7, #72]
 9981 084e 803B     		subs	r3, r3, #128
 9982 0850 BB64     		str	r3, [r7, #72]
 9983              	.L505:
2242:Lib/AI_Runtime/Npu/ll_aton/ll_aton.c ****       }
2243:Lib/AI_Runtime/Npu/ll_aton/ll_aton.c ****       t = ATON_ARITH_COEFF_AB_DT;
 9984              		.loc 1 2243 9
 9985 0852 0023     		movs	r3, #0
 9986 0854 BB60     		str	r3, [r7, #8]
2244:Lib/AI_Runtime/Npu/ll_aton/ll_aton.c ****       t = ATON_ARITH_COEFF_AB_SET_A(t, A);
 9987              		.loc 1 2244 11
 9988 0856 BB68     		ldr	r3, [r7, #8]
 9989 0858 1B0C     		lsrs	r3, r3, #16
 9990 085a 1B04     		lsls	r3, r3, #16
 9991 085c FA68     		ldr	r2, [r7, #12]
 9992 085e 92B2     		uxth	r2, r2
 9993              		.loc 1 2244 9
 9994 0860 1343     		orrs	r3, r3, r2
 9995 0862 BB60     		str	r3, [r7, #8]
2245:Lib/AI_Runtime/Npu/ll_aton/ll_aton.c ****       t = ATON_ARITH_COEFF_AB_SET_B(t, B);
 9996              		.loc 1 2245 11
 9997 0864 BB68     		ldr	r3, [r7, #8]
 9998 0866 9AB2     		uxth	r2, r3
 9999 0868 BB6B     		ldr	r3, [r7, #56]
 10000 086a 1B04     		lsls	r3, r3, #16
 10001              		.loc 1 2245 9
ARM GAS  /tmp/ccxZaNgH.s 			page 228


 10002 086c 1343     		orrs	r3, r3, r2
 10003 086e BB60     		str	r3, [r7, #8]
2246:Lib/AI_Runtime/Npu/ll_aton/ll_aton.c ****       ATON_ARITH_COEFF_AB_SET(id, k, t);
 10004              		.loc 1 2246 7
 10005 0870 BB6C     		ldr	r3, [r7, #72]
 10006 0872 DB00     		lsls	r3, r3, #3
 10007 0874 1A46     		mov	r2, r3
 10008 0876 7B68     		ldr	r3, [r7, #4]
 10009 0878 03F5B023 		add	r3, r3, #360448
 10010 087c F733     		adds	r3, r3, #247
 10011 087e 1B03     		lsls	r3, r3, #12
 10012 0880 1344     		add	r3, r3, r2
 10013 0882 03F58063 		add	r3, r3, #1024
 10014 0886 1A46     		mov	r2, r3
 10015 0888 BB68     		ldr	r3, [r7, #8]
 10016 088a 1360     		str	r3, [r2]
2247:Lib/AI_Runtime/Npu/ll_aton/ll_aton.c ****       t = ATON_ARITH_COEFF_C_DT;
 10017              		.loc 1 2247 9
 10018 088c 0023     		movs	r3, #0
 10019 088e BB60     		str	r3, [r7, #8]
2248:Lib/AI_Runtime/Npu/ll_aton/ll_aton.c ****       t = ATON_ARITH_COEFF_C_SET_C(t, C);
 10020              		.loc 1 2248 11
 10021 0890 BB68     		ldr	r3, [r7, #8]
 10022 0892 1B0C     		lsrs	r3, r3, #16
 10023 0894 1B04     		lsls	r3, r3, #16
 10024 0896 7A6B     		ldr	r2, [r7, #52]
 10025 0898 92B2     		uxth	r2, r2
 10026              		.loc 1 2248 9
 10027 089a 1343     		orrs	r3, r3, r2
 10028 089c BB60     		str	r3, [r7, #8]
2249:Lib/AI_Runtime/Npu/ll_aton/ll_aton.c ****       ATON_ARITH_COEFF_C_SET(id, k, t);
 10029              		.loc 1 2249 7
 10030 089e BB6C     		ldr	r3, [r7, #72]
 10031 08a0 DB00     		lsls	r3, r3, #3
 10032 08a2 1A46     		mov	r2, r3
 10033 08a4 7B68     		ldr	r3, [r7, #4]
 10034 08a6 03F5B023 		add	r3, r3, #360448
 10035 08aa F733     		adds	r3, r3, #247
 10036 08ac 1B03     		lsls	r3, r3, #12
 10037 08ae 1344     		add	r3, r3, r2
 10038 08b0 03F20443 		addw	r3, r3, #1028
 10039 08b4 1A46     		mov	r2, r3
 10040 08b6 BB68     		ldr	r3, [r7, #8]
 10041 08b8 1360     		str	r3, [r2]
2250:Lib/AI_Runtime/Npu/ll_aton/ll_aton.c **** 
2251:Lib/AI_Runtime/Npu/ll_aton/ll_aton.c ****       bitcnt_A += nbits_A;
 10042              		.loc 1 2251 16
 10043 08ba 7A6C     		ldr	r2, [r7, #68]
 10044 08bc 3B6A     		ldr	r3, [r7, #32]
 10045 08be 1344     		add	r3, r3, r2
 10046 08c0 7B64     		str	r3, [r7, #68]
2252:Lib/AI_Runtime/Npu/ll_aton/ll_aton.c ****       bitcnt_B += nbits_B;
 10047              		.loc 1 2252 16
 10048 08c2 3A6C     		ldr	r2, [r7, #64]
 10049 08c4 FB69     		ldr	r3, [r7, #28]
 10050 08c6 1344     		add	r3, r3, r2
 10051 08c8 3B64     		str	r3, [r7, #64]
ARM GAS  /tmp/ccxZaNgH.s 			page 229


2253:Lib/AI_Runtime/Npu/ll_aton/ll_aton.c ****       bitcnt_C += nbits_C;
 10052              		.loc 1 2253 16
 10053 08ca FA6B     		ldr	r2, [r7, #60]
 10054 08cc BB69     		ldr	r3, [r7, #24]
 10055 08ce 1344     		add	r3, r3, r2
 10056 08d0 FB63     		str	r3, [r7, #60]
 10057              	.LBE45:
2224:Lib/AI_Runtime/Npu/ll_aton/ll_aton.c ****     {
 10058              		.loc 1 2224 35 discriminator 2
 10059 08d2 FB6C     		ldr	r3, [r7, #76]
 10060 08d4 0133     		adds	r3, r3, #1
 10061 08d6 FB64     		str	r3, [r7, #76]
2224:Lib/AI_Runtime/Npu/ll_aton/ll_aton.c ****     {
 10062              		.loc 1 2224 40 discriminator 2
 10063 08d8 BB6C     		ldr	r3, [r7, #72]
 10064 08da 0133     		adds	r3, r3, #1
 10065 08dc BB64     		str	r3, [r7, #72]
 10066              	.L497:
2224:Lib/AI_Runtime/Npu/ll_aton/ll_aton.c ****     {
 10067              		.loc 1 2224 26 discriminator 1
 10068 08de FA6C     		ldr	r2, [r7, #76]
 10069 08e0 3B6D     		ldr	r3, [r7, #80]
 10070 08e2 9A42     		cmp	r2, r3
 10071 08e4 FFF66AAF 		blt	.L506
 10072              	.L486:
 10073              	.LBE44:
2254:Lib/AI_Runtime/Npu/ll_aton/ll_aton.c ****     }
2255:Lib/AI_Runtime/Npu/ll_aton/ll_aton.c ****   }
2256:Lib/AI_Runtime/Npu/ll_aton/ll_aton.c ****   return 0;
 10074              		.loc 1 2256 10
 10075 08e8 0023     		movs	r3, #0
 10076              	.L471:
2257:Lib/AI_Runtime/Npu/ll_aton/ll_aton.c **** }
 10077              		.loc 1 2257 1
 10078 08ea 1846     		mov	r0, r3
 10079 08ec 5C37     		adds	r7, r7, #92
 10080              		.cfi_def_cfa_offset 12
 10081 08ee BD46     		mov	sp, r7
 10082              		.cfi_def_cfa_register 13
 10083              		@ sp needed
 10084 08f0 90BD     		pop	{r4, r7, pc}
 10085              	.L512:
 10086 08f2 00BF     		.align	2
 10087              	.L511:
 10088 08f4 2C700F58 		.word	1477406764
 10089              		.cfi_endproc
 10090              	.LFE4848:
 10092              		.section	.text.get_Poolacc_type,"ax",%progbits
 10093              		.align	1
 10094              		.syntax unified
 10095              		.thumb
 10096              		.thumb_func
 10098              	get_Poolacc_type:
 10099              	.LFB4849:
2258:Lib/AI_Runtime/Npu/ll_aton/ll_aton.c **** #endif // ATON_ARITH_NUM
2259:Lib/AI_Runtime/Npu/ll_aton/ll_aton.c **** 
2260:Lib/AI_Runtime/Npu/ll_aton/ll_aton.c **** #ifdef ATON_POOL_NUM
ARM GAS  /tmp/ccxZaNgH.s 			page 230


2261:Lib/AI_Runtime/Npu/ll_aton/ll_aton.c **** 
2262:Lib/AI_Runtime/Npu/ll_aton/ll_aton.c **** static int32_t get_Poolacc_type(LL_Poolacc_Op op)
2263:Lib/AI_Runtime/Npu/ll_aton/ll_aton.c **** {
 10100              		.loc 1 2263 1
 10101              		.cfi_startproc
 10102              		@ args = 0, pretend = 0, frame = 8
 10103              		@ frame_needed = 1, uses_anonymous_args = 0
 10104 0000 80B5     		push	{r7, lr}
 10105              		.cfi_def_cfa_offset 8
 10106              		.cfi_offset 7, -8
 10107              		.cfi_offset 14, -4
 10108 0002 82B0     		sub	sp, sp, #8
 10109              		.cfi_def_cfa_offset 16
 10110 0004 00AF     		add	r7, sp, #0
 10111              		.cfi_def_cfa_register 7
 10112 0006 0346     		mov	r3, r0
 10113 0008 FB71     		strb	r3, [r7, #7]
2264:Lib/AI_Runtime/Npu/ll_aton/ll_aton.c ****   switch (op)
 10114              		.loc 1 2264 3
 10115 000a FB79     		ldrb	r3, [r7, #7]	@ zero_extendqisi2
 10116 000c 013B     		subs	r3, r3, #1
 10117 000e 052B     		cmp	r3, #5
 10118 0010 1AD8     		bhi	.L524
 10119 0012 01A2     		adr	r2, .L516
 10120 0014 52F823F0 		ldr	pc, [r2, r3, lsl #2]
 10121              		.p2align 2
 10122              	.L516:
 10123 0018 31000000 		.word	.L521+1
 10124 001c 35000000 		.word	.L520+1
 10125 0020 39000000 		.word	.L519+1
 10126 0024 3D000000 		.word	.L518+1
 10127 0028 41000000 		.word	.L517+1
 10128 002c 45000000 		.word	.L515+1
 10129              		.p2align 1
 10130              	.L521:
2265:Lib/AI_Runtime/Npu/ll_aton/ll_aton.c ****   {
2266:Lib/AI_Runtime/Npu/ll_aton/ll_aton.c ****   case POOL_MAX:
2267:Lib/AI_Runtime/Npu/ll_aton/ll_aton.c ****     return ATON_POOLTYPE_MAX_POOLING;
 10131              		.loc 1 2267 12
 10132 0030 0023     		movs	r3, #0
 10133 0032 11E0     		b	.L522
 10134              	.L520:
2268:Lib/AI_Runtime/Npu/ll_aton/ll_aton.c ****   case POOL_MIN:
2269:Lib/AI_Runtime/Npu/ll_aton/ll_aton.c ****     return ATON_POOLTYPE_MIN_POOLING;
 10135              		.loc 1 2269 12
 10136 0034 0123     		movs	r3, #1
 10137 0036 0FE0     		b	.L522
 10138              	.L519:
2270:Lib/AI_Runtime/Npu/ll_aton/ll_aton.c ****   case POOL_AVG:
2271:Lib/AI_Runtime/Npu/ll_aton/ll_aton.c ****     return ATON_POOLTYPE_AVG_POOLING;
 10139              		.loc 1 2271 12
 10140 0038 0223     		movs	r3, #2
 10141 003a 0DE0     		b	.L522
 10142              	.L518:
2272:Lib/AI_Runtime/Npu/ll_aton/ll_aton.c ****   case POOL_GMAX:
2273:Lib/AI_Runtime/Npu/ll_aton/ll_aton.c ****     return ATON_POOLTYPE_GMAX_POOLING;
 10143              		.loc 1 2273 12
ARM GAS  /tmp/ccxZaNgH.s 			page 231


 10144 003c 0823     		movs	r3, #8
 10145 003e 0BE0     		b	.L522
 10146              	.L517:
2274:Lib/AI_Runtime/Npu/ll_aton/ll_aton.c ****   case POOL_GMIN:
2275:Lib/AI_Runtime/Npu/ll_aton/ll_aton.c ****     return ATON_POOLTYPE_GMIN_POOLING;
 10147              		.loc 1 2275 12
 10148 0040 0923     		movs	r3, #9
 10149 0042 09E0     		b	.L522
 10150              	.L515:
2276:Lib/AI_Runtime/Npu/ll_aton/ll_aton.c ****   case POOL_GAVG:
2277:Lib/AI_Runtime/Npu/ll_aton/ll_aton.c ****     return ATON_POOLTYPE_GAVG_POOLING;
 10151              		.loc 1 2277 12
 10152 0044 0A23     		movs	r3, #10
 10153 0046 07E0     		b	.L522
 10154              	.L524:
2278:Lib/AI_Runtime/Npu/ll_aton/ll_aton.c ****   default:
2279:Lib/AI_Runtime/Npu/ll_aton/ll_aton.c ****     break;
 10155              		.loc 1 2279 5
 10156 0048 00BF     		nop
2280:Lib/AI_Runtime/Npu/ll_aton/ll_aton.c ****   }
2281:Lib/AI_Runtime/Npu/ll_aton/ll_aton.c ****   LL_ATON_ASSERT(0);
 10157              		.loc 1 2281 3
 10158 004a 054B     		ldr	r3, .L525
 10159 004c 054A     		ldr	r2, .L525+4
 10160 004e 40F6E901 		movw	r1, #2281
 10161 0052 0548     		ldr	r0, .L525+8
 10162 0054 FFF7FEFF 		bl	__assert_func
 10163              	.L522:
2282:Lib/AI_Runtime/Npu/ll_aton/ll_aton.c ****   return 0;
2283:Lib/AI_Runtime/Npu/ll_aton/ll_aton.c **** }
 10164              		.loc 1 2283 1
 10165 0058 1846     		mov	r0, r3
 10166 005a 0837     		adds	r7, r7, #8
 10167              		.cfi_def_cfa_offset 8
 10168 005c BD46     		mov	sp, r7
 10169              		.cfi_def_cfa_register 13
 10170              		@ sp needed
 10171 005e 80BD     		pop	{r7, pc}
 10172              	.L526:
 10173              		.align	2
 10174              	.L525:
 10175 0060 AC010000 		.word	.LC11
 10176 0064 00000000 		.word	__func__.1
 10177 0068 3C000000 		.word	.LC4
 10178              		.cfi_endproc
 10179              	.LFE4849:
 10181              		.section	.text.LL_Poolacc_Init,"ax",%progbits
 10182              		.align	1
 10183              		.global	LL_Poolacc_Init
 10184              		.syntax unified
 10185              		.thumb
 10186              		.thumb_func
 10188              	LL_Poolacc_Init:
 10189              	.LFB4850:
2284:Lib/AI_Runtime/Npu/ll_aton/ll_aton.c **** 
2285:Lib/AI_Runtime/Npu/ll_aton/ll_aton.c **** /**
2286:Lib/AI_Runtime/Npu/ll_aton/ll_aton.c ****  * @brief  Configure Pooling Accelerator
ARM GAS  /tmp/ccxZaNgH.s 			page 232


2287:Lib/AI_Runtime/Npu/ll_aton/ll_aton.c ****  * @param  id Pooling Accelerator identifier [0..ATON_POOL_NUM-1]
2288:Lib/AI_Runtime/Npu/ll_aton/ll_aton.c ****  * @param  Poolacc_InitStruct Structure describing initialization parameters
2289:Lib/AI_Runtime/Npu/ll_aton/ll_aton.c ****  * @retval Error code E.g.: Invalid ID, invalid parameters, not idle,..
2290:Lib/AI_Runtime/Npu/ll_aton/ll_aton.c ****  */
2291:Lib/AI_Runtime/Npu/ll_aton/ll_aton.c **** int LL_Poolacc_Init(int id, const LL_Poolacc_InitTypeDef *conf)
2292:Lib/AI_Runtime/Npu/ll_aton/ll_aton.c **** {
 10190              		.loc 1 2292 1
 10191              		.cfi_startproc
 10192              		@ args = 0, pretend = 0, frame = 24
 10193              		@ frame_needed = 1, uses_anonymous_args = 0
 10194 0000 90B5     		push	{r4, r7, lr}
 10195              		.cfi_def_cfa_offset 12
 10196              		.cfi_offset 4, -12
 10197              		.cfi_offset 7, -8
 10198              		.cfi_offset 14, -4
 10199 0002 87B0     		sub	sp, sp, #28
 10200              		.cfi_def_cfa_offset 40
 10201 0004 00AF     		add	r7, sp, #0
 10202              		.cfi_def_cfa_register 7
 10203 0006 7860     		str	r0, [r7, #4]
 10204 0008 3960     		str	r1, [r7]
2293:Lib/AI_Runtime/Npu/ll_aton/ll_aton.c ****   uint32_t t;
2294:Lib/AI_Runtime/Npu/ll_aton/ll_aton.c **** 
2295:Lib/AI_Runtime/Npu/ll_aton/ll_aton.c ****   if (id >= ATON_POOL_NUM)
 10205              		.loc 1 2295 6
 10206 000a 7B68     		ldr	r3, [r7, #4]
 10207 000c 012B     		cmp	r3, #1
 10208 000e 02DD     		ble	.L528
2296:Lib/AI_Runtime/Npu/ll_aton/ll_aton.c ****     return LL_ATON_INVALID_ID;
 10209              		.loc 1 2296 12
 10210 0010 4FF0FF33 		mov	r3, #-1
 10211 0014 EFE1     		b	.L529
 10212              	.L528:
2297:Lib/AI_Runtime/Npu/ll_aton/ll_aton.c **** 
2298:Lib/AI_Runtime/Npu/ll_aton/ll_aton.c ****   LL_ATON_EnableClock(ATON_POOL_CLKB_CLK(id));
 10213              		.loc 1 2298 23
 10214 0016 7B68     		ldr	r3, [r7, #4]
 10215 0018 1633     		adds	r3, r3, #22
 10216              		.loc 1 2298 3
 10217 001a 1846     		mov	r0, r3
 10218 001c FFF7FEFF 		bl	LL_ATON_EnableClock
2299:Lib/AI_Runtime/Npu/ll_aton/ll_aton.c **** 
2300:Lib/AI_Runtime/Npu/ll_aton/ll_aton.c **** #ifdef POOL_RC14
2301:Lib/AI_Runtime/Npu/ll_aton/ll_aton.c ****   /* Clear pipeline */
2302:Lib/AI_Runtime/Npu/ll_aton/ll_aton.c ****   t = ATON_POOL_CTRL_GET(id);
2303:Lib/AI_Runtime/Npu/ll_aton/ll_aton.c ****   t = ATON_POOL_CTRL_SET_EN(t, 0);
2304:Lib/AI_Runtime/Npu/ll_aton/ll_aton.c ****   t = ATON_POOL_CTRL_SET_CLR(t, 1);
2305:Lib/AI_Runtime/Npu/ll_aton/ll_aton.c ****   t = ATON_POOL_CTRL_SET_CONFCLR(t, 1);
2306:Lib/AI_Runtime/Npu/ll_aton/ll_aton.c ****   ATON_POOL_CTRL_SET(id, t);
2307:Lib/AI_Runtime/Npu/ll_aton/ll_aton.c **** #endif // POOL_RC14
2308:Lib/AI_Runtime/Npu/ll_aton/ll_aton.c **** 
2309:Lib/AI_Runtime/Npu/ll_aton/ll_aton.c ****   /* Initialize CTRL register parameters */
2310:Lib/AI_Runtime/Npu/ll_aton/ll_aton.c ****   t = ATON_POOL_CTRL_DT;
 10219              		.loc 1 2310 5
 10220 0020 4FF48403 		mov	r3, #4325376
 10221 0024 7B61     		str	r3, [r7, #20]
2311:Lib/AI_Runtime/Npu/ll_aton/ll_aton.c ****   t = ATON_POOL_CTRL_SET_TYPE(t, get_Poolacc_type(conf->operation));
ARM GAS  /tmp/ccxZaNgH.s 			page 233


 10222              		.loc 1 2311 7
 10223 0026 7B69     		ldr	r3, [r7, #20]
 10224 0028 23F03C04 		bic	r4, r3, #60
 10225 002c 3B68     		ldr	r3, [r7]
 10226 002e 1B78     		ldrb	r3, [r3]	@ zero_extendqisi2
 10227 0030 1846     		mov	r0, r3
 10228 0032 FFF7FEFF 		bl	get_Poolacc_type
 10229 0036 0346     		mov	r3, r0
 10230              		.loc 1 2311 7 is_stmt 0 discriminator 1
 10231 0038 9B00     		lsls	r3, r3, #2
 10232 003a 03F03C03 		and	r3, r3, #60
 10233              		.loc 1 2311 5 is_stmt 1 discriminator 1
 10234 003e 2343     		orrs	r3, r3, r4
 10235 0040 7B61     		str	r3, [r7, #20]
2312:Lib/AI_Runtime/Npu/ll_aton/ll_aton.c ****   t = ATON_POOL_CTRL_SET_ROUND(t, (conf->rounding_o != 0));
 10236              		.loc 1 2312 7
 10237 0042 7B69     		ldr	r3, [r7, #20]
 10238 0044 23F04002 		bic	r2, r3, #64
 10239 0048 3B68     		ldr	r3, [r7]
 10240 004a 93F82330 		ldrb	r3, [r3, #35]	@ zero_extendqisi2
 10241 004e DB00     		lsls	r3, r3, #3
 10242 0050 03F04003 		and	r3, r3, #64
 10243              		.loc 1 2312 5
 10244 0054 1343     		orrs	r3, r3, r2
 10245 0056 7B61     		str	r3, [r7, #20]
2313:Lib/AI_Runtime/Npu/ll_aton/ll_aton.c ****   t = ATON_POOL_CTRL_SET_SAT(t, (conf->saturation_o != 0));
 10246              		.loc 1 2313 7
 10247 0058 7B69     		ldr	r3, [r7, #20]
 10248 005a 23F08002 		bic	r2, r3, #128
 10249 005e 3B68     		ldr	r3, [r7]
 10250 0060 93F82330 		ldrb	r3, [r3, #35]	@ zero_extendqisi2
 10251 0064 DB00     		lsls	r3, r3, #3
 10252 0066 03F08003 		and	r3, r3, #128
 10253              		.loc 1 2313 5
 10254 006a 1343     		orrs	r3, r3, r2
 10255 006c 7B61     		str	r3, [r7, #20]
2314:Lib/AI_Runtime/Npu/ll_aton/ll_aton.c ****   t = ATON_POOL_CTRL_SET_OUTSHIFT(t, conf->shift_o);
 10256              		.loc 1 2314 7
 10257 006e 7B69     		ldr	r3, [r7, #20]
 10258 0070 23F47C52 		bic	r2, r3, #16128
 10259 0074 3B68     		ldr	r3, [r7]
 10260 0076 93F82130 		ldrb	r3, [r3, #33]	@ zero_extendqisi2
 10261 007a 1B02     		lsls	r3, r3, #8
 10262 007c 03F47C53 		and	r3, r3, #16128
 10263              		.loc 1 2314 5
 10264 0080 1343     		orrs	r3, r3, r2
 10265 0082 7B61     		str	r3, [r7, #20]
2315:Lib/AI_Runtime/Npu/ll_aton/ll_aton.c ****   t = ATON_POOL_CTRL_SET_FBYTES(t, conf->inbytes_f);
 10266              		.loc 1 2315 7
 10267 0084 7B69     		ldr	r3, [r7, #20]
 10268 0086 23F44032 		bic	r2, r3, #196608
 10269 008a 3B68     		ldr	r3, [r7]
 10270 008c 5B8C     		ldrh	r3, [r3, #34]	@ movhi
 10271 008e C3F3C113 		ubfx	r3, r3, #7, #2
 10272 0092 DBB2     		uxtb	r3, r3
 10273 0094 1B04     		lsls	r3, r3, #16
 10274 0096 03F44033 		and	r3, r3, #196608
ARM GAS  /tmp/ccxZaNgH.s 			page 234


 10275              		.loc 1 2315 5
 10276 009a 1343     		orrs	r3, r3, r2
 10277 009c 7B61     		str	r3, [r7, #20]
2316:Lib/AI_Runtime/Npu/ll_aton/ll_aton.c ****   t = ATON_POOL_CTRL_SET_FSHIFT(t, ATON_SHIFT(conf->shift_f));
 10278              		.loc 1 2316 7
 10279 009e 7B69     		ldr	r3, [r7, #20]
 10280 00a0 23F47C02 		bic	r2, r3, #16515072
 10281 00a4 3B68     		ldr	r3, [r7]
 10282 00a6 93F82030 		ldrb	r3, [r3, #32]	@ zero_extendqisi2
 10283 00aa 1033     		adds	r3, r3, #16
 10284 00ac 9B04     		lsls	r3, r3, #18
 10285 00ae 03F47C03 		and	r3, r3, #16515072
 10286              		.loc 1 2316 5
 10287 00b2 1343     		orrs	r3, r3, r2
 10288 00b4 7B61     		str	r3, [r7, #20]
2317:Lib/AI_Runtime/Npu/ll_aton/ll_aton.c ****   t = ATON_POOL_CTRL_SET_FROUND(t, (conf->rounding_f != 0));
 10289              		.loc 1 2317 7
 10290 00b6 7B69     		ldr	r3, [r7, #20]
 10291 00b8 23F08072 		bic	r2, r3, #16777216
 10292 00bc 3B68     		ldr	r3, [r7]
 10293 00be 93F82230 		ldrb	r3, [r3, #34]	@ zero_extendqisi2
 10294 00c2 5B05     		lsls	r3, r3, #21
 10295 00c4 03F08073 		and	r3, r3, #16777216
 10296              		.loc 1 2317 5
 10297 00c8 1343     		orrs	r3, r3, r2
 10298 00ca 7B61     		str	r3, [r7, #20]
2318:Lib/AI_Runtime/Npu/ll_aton/ll_aton.c ****   t = ATON_POOL_CTRL_SET_FSAT(t, (conf->saturation_f != 0));
 10299              		.loc 1 2318 7
 10300 00cc 7B69     		ldr	r3, [r7, #20]
 10301 00ce 23F00072 		bic	r2, r3, #33554432
 10302 00d2 3B68     		ldr	r3, [r7]
 10303 00d4 93F82230 		ldrb	r3, [r3, #34]	@ zero_extendqisi2
 10304 00d8 5B05     		lsls	r3, r3, #21
 10305 00da 03F00073 		and	r3, r3, #33554432
 10306              		.loc 1 2318 5
 10307 00de 1343     		orrs	r3, r3, r2
 10308 00e0 7B61     		str	r3, [r7, #20]
2319:Lib/AI_Runtime/Npu/ll_aton/ll_aton.c **** #ifdef ATON_POOL_CTRL_SET_AVGNOPAD
2320:Lib/AI_Runtime/Npu/ll_aton/ll_aton.c ****   t = ATON_POOL_CTRL_SET_AVGNOPAD(t, (conf->avgnopad != 0));
2321:Lib/AI_Runtime/Npu/ll_aton/ll_aton.c **** #endif
2322:Lib/AI_Runtime/Npu/ll_aton/ll_aton.c ****   t = ATON_POOL_CTRL_SET_DUALLINE(t, conf->dualLine);
 10309              		.loc 1 2322 7
 10310 00e2 7B69     		ldr	r3, [r7, #20]
 10311 00e4 23F48042 		bic	r2, r3, #16384
 10312 00e8 3B68     		ldr	r3, [r7]
 10313 00ea 93F82230 		ldrb	r3, [r3, #34]
 10314 00ee C3F30003 		ubfx	r3, r3, #0, #1
 10315 00f2 DBB2     		uxtb	r3, r3
 10316 00f4 9B03     		lsls	r3, r3, #14
 10317 00f6 03F48043 		and	r3, r3, #16384
 10318              		.loc 1 2322 5
 10319 00fa 1343     		orrs	r3, r3, r2
 10320 00fc 7B61     		str	r3, [r7, #20]
2323:Lib/AI_Runtime/Npu/ll_aton/ll_aton.c **** #if 0
2324:Lib/AI_Runtime/Npu/ll_aton/ll_aton.c ****   int crop_en = ((conf->leftCrop > 0) || (conf->rightCrop > 0) || (conf->topCrop > 0) || (conf->bot
2325:Lib/AI_Runtime/Npu/ll_aton/ll_aton.c **** #else
2326:Lib/AI_Runtime/Npu/ll_aton/ll_aton.c ****   int crop_en = 1;
ARM GAS  /tmp/ccxZaNgH.s 			page 235


 10321              		.loc 1 2326 7
 10322 00fe 0123     		movs	r3, #1
 10323 0100 3B61     		str	r3, [r7, #16]
2327:Lib/AI_Runtime/Npu/ll_aton/ll_aton.c **** #endif
2328:Lib/AI_Runtime/Npu/ll_aton/ll_aton.c ****   t = ATON_POOL_CTRL_SET_CROPEN(t, crop_en);
 10324              		.loc 1 2328 7
 10325 0102 7B69     		ldr	r3, [r7, #20]
 10326 0104 23F40042 		bic	r2, r3, #32768
 10327 0108 3B69     		ldr	r3, [r7, #16]
 10328 010a DB03     		lsls	r3, r3, #15
 10329 010c 9BB2     		uxth	r3, r3
 10330              		.loc 1 2328 5
 10331 010e 1343     		orrs	r3, r3, r2
 10332 0110 7B61     		str	r3, [r7, #20]
2329:Lib/AI_Runtime/Npu/ll_aton/ll_aton.c ****   ATON_POOL_CTRL_SET(id, t);
 10333              		.loc 1 2329 3
 10334 0112 7B68     		ldr	r3, [r7, #4]
 10335 0114 03F5B023 		add	r3, r3, #360448
 10336 0118 FB33     		adds	r3, r3, #251
 10337 011a 1B03     		lsls	r3, r3, #12
 10338 011c 1A46     		mov	r2, r3
 10339 011e 7B69     		ldr	r3, [r7, #20]
 10340 0120 1360     		str	r3, [r2]
2330:Lib/AI_Runtime/Npu/ll_aton/ll_aton.c **** 
2331:Lib/AI_Runtime/Npu/ll_aton/ll_aton.c ****   /* configure remaining in/out shifters */
2332:Lib/AI_Runtime/Npu/ll_aton/ll_aton.c ****   t = ATON_POOL_RNDCTRL_DT;
 10341              		.loc 1 2332 5
 10342 0122 4FF00213 		mov	r3, #131074
 10343 0126 7B61     		str	r3, [r7, #20]
2333:Lib/AI_Runtime/Npu/ll_aton/ll_aton.c ****   t = ATON_POOL_RNDCTRL_SET_FOBYTES(t, conf->outbytes_f);
 10344              		.loc 1 2333 7
 10345 0128 7B69     		ldr	r3, [r7, #20]
 10346 012a 23F00303 		bic	r3, r3, #3
 10347 012e 3A68     		ldr	r2, [r7]
 10348 0130 92F82320 		ldrb	r2, [r2, #35]
 10349 0134 C2F34102 		ubfx	r2, r2, #1, #2
 10350 0138 D2B2     		uxtb	r2, r2
 10351              		.loc 1 2333 5
 10352 013a 1343     		orrs	r3, r3, r2
 10353 013c 7B61     		str	r3, [r7, #20]
2334:Lib/AI_Runtime/Npu/ll_aton/ll_aton.c ****   t = ATON_POOL_RNDCTRL_SET_FRNDMODE(t, conf->round_mode_f);
 10354              		.loc 1 2334 7
 10355 013e 7B69     		ldr	r3, [r7, #20]
 10356 0140 23F00C02 		bic	r2, r3, #12
 10357 0144 3B68     		ldr	r3, [r7]
 10358 0146 93F82230 		ldrb	r3, [r3, #34]
 10359 014a C3F34113 		ubfx	r3, r3, #5, #2
 10360 014e DBB2     		uxtb	r3, r3
 10361 0150 9B00     		lsls	r3, r3, #2
 10362 0152 03F00C03 		and	r3, r3, #12
 10363              		.loc 1 2334 5
 10364 0156 1343     		orrs	r3, r3, r2
 10365 0158 7B61     		str	r3, [r7, #20]
2335:Lib/AI_Runtime/Npu/ll_aton/ll_aton.c ****   t = ATON_POOL_RNDCTRL_SET_OBYTES(t, conf->outbytes_o);
 10366              		.loc 1 2335 7
 10367 015a 7B69     		ldr	r3, [r7, #20]
 10368 015c 23F44032 		bic	r2, r3, #196608
ARM GAS  /tmp/ccxZaNgH.s 			page 236


 10369 0160 3B68     		ldr	r3, [r7]
 10370 0162 93F82430 		ldrb	r3, [r3, #36]
 10371 0166 C3F30103 		ubfx	r3, r3, #0, #2
 10372 016a DBB2     		uxtb	r3, r3
 10373 016c 1B04     		lsls	r3, r3, #16
 10374 016e 03F44033 		and	r3, r3, #196608
 10375              		.loc 1 2335 5
 10376 0172 1343     		orrs	r3, r3, r2
 10377 0174 7B61     		str	r3, [r7, #20]
2336:Lib/AI_Runtime/Npu/ll_aton/ll_aton.c ****   t = ATON_POOL_RNDCTRL_SET_ORNDMODE(t, (conf->relu_mode_o << 1) | conf->round_mode_o);
 10378              		.loc 1 2336 7
 10379 0176 7B69     		ldr	r3, [r7, #20]
 10380 0178 23F44022 		bic	r2, r3, #786432
 10381 017c 3B68     		ldr	r3, [r7]
 10382 017e 93F82330 		ldrb	r3, [r3, #35]
 10383 0182 C3F38013 		ubfx	r3, r3, #6, #1
 10384 0186 DBB2     		uxtb	r3, r3
 10385 0188 5B00     		lsls	r3, r3, #1
 10386 018a 3968     		ldr	r1, [r7]
 10387 018c 91F82310 		ldrb	r1, [r1, #35]
 10388 0190 C1F34011 		ubfx	r1, r1, #5, #1
 10389 0194 C9B2     		uxtb	r1, r1
 10390 0196 0B43     		orrs	r3, r3, r1
 10391 0198 9B04     		lsls	r3, r3, #18
 10392 019a 03F44023 		and	r3, r3, #786432
 10393              		.loc 1 2336 5
 10394 019e 1343     		orrs	r3, r3, r2
 10395 01a0 7B61     		str	r3, [r7, #20]
2337:Lib/AI_Runtime/Npu/ll_aton/ll_aton.c ****   ATON_POOL_RNDCTRL_SET(id, t);
 10396              		.loc 1 2337 3
 10397 01a2 7B68     		ldr	r3, [r7, #4]
 10398 01a4 1A03     		lsls	r2, r3, #12
 10399 01a6 964B     		ldr	r3, .L534
 10400 01a8 1344     		add	r3, r3, r2
 10401 01aa 1A46     		mov	r2, r3
 10402 01ac 7B69     		ldr	r3, [r7, #20]
 10403 01ae 1360     		str	r3, [r2]
2338:Lib/AI_Runtime/Npu/ll_aton/ll_aton.c **** 
2339:Lib/AI_Runtime/Npu/ll_aton/ll_aton.c ****   /* Configure Pooling unit dimensions register */
2340:Lib/AI_Runtime/Npu/ll_aton/ll_aton.c ****   t = ATON_POOL_PDIMS_DT;
 10404              		.loc 1 2340 5
 10405 01b0 0023     		movs	r3, #0
 10406 01b2 7B61     		str	r3, [r7, #20]
2341:Lib/AI_Runtime/Npu/ll_aton/ll_aton.c ****   t = ATON_POOL_PDIMS_SET_WINX(t, conf->poolWinX);
 10407              		.loc 1 2341 7
 10408 01b4 7B69     		ldr	r3, [r7, #20]
 10409 01b6 23F00702 		bic	r2, r3, #7
 10410 01ba 3B68     		ldr	r3, [r7]
 10411 01bc 9B7A     		ldrb	r3, [r3, #10]	@ zero_extendqisi2
 10412 01be 03F00703 		and	r3, r3, #7
 10413              		.loc 1 2341 5
 10414 01c2 1343     		orrs	r3, r3, r2
 10415 01c4 7B61     		str	r3, [r7, #20]
2342:Lib/AI_Runtime/Npu/ll_aton/ll_aton.c ****   t = ATON_POOL_PDIMS_SET_WINY(t, conf->poolWinY);
 10416              		.loc 1 2342 7
 10417 01c6 7B69     		ldr	r3, [r7, #20]
 10418 01c8 23F03802 		bic	r2, r3, #56
ARM GAS  /tmp/ccxZaNgH.s 			page 237


 10419 01cc 3B68     		ldr	r3, [r7]
 10420 01ce DB7A     		ldrb	r3, [r3, #11]	@ zero_extendqisi2
 10421 01d0 DB00     		lsls	r3, r3, #3
 10422 01d2 03F03803 		and	r3, r3, #56
 10423              		.loc 1 2342 5
 10424 01d6 1343     		orrs	r3, r3, r2
 10425 01d8 7B61     		str	r3, [r7, #20]
2343:Lib/AI_Runtime/Npu/ll_aton/ll_aton.c ****   t = ATON_POOL_PDIMS_SET_STRDX(t, conf->strideX);
 10426              		.loc 1 2343 7
 10427 01da 7B69     		ldr	r3, [r7, #20]
 10428 01dc 23F47072 		bic	r2, r3, #960
 10429 01e0 3B68     		ldr	r3, [r7]
 10430 01e2 1B7B     		ldrb	r3, [r3, #12]	@ zero_extendqisi2
 10431 01e4 9B01     		lsls	r3, r3, #6
 10432 01e6 03F47073 		and	r3, r3, #960
 10433              		.loc 1 2343 5
 10434 01ea 1343     		orrs	r3, r3, r2
 10435 01ec 7B61     		str	r3, [r7, #20]
2344:Lib/AI_Runtime/Npu/ll_aton/ll_aton.c ****   t = ATON_POOL_PDIMS_SET_STRDY(t, conf->strideY);
 10436              		.loc 1 2344 7
 10437 01ee 7B69     		ldr	r3, [r7, #20]
 10438 01f0 23F47052 		bic	r2, r3, #15360
 10439 01f4 3B68     		ldr	r3, [r7]
 10440 01f6 5B7B     		ldrb	r3, [r3, #13]	@ zero_extendqisi2
 10441 01f8 9B02     		lsls	r3, r3, #10
 10442 01fa 03F47053 		and	r3, r3, #15360
 10443              		.loc 1 2344 5
 10444 01fe 1343     		orrs	r3, r3, r2
 10445 0200 7B61     		str	r3, [r7, #20]
2345:Lib/AI_Runtime/Npu/ll_aton/ll_aton.c ****   t = ATON_POOL_PDIMS_SET_TPAD(t, conf->topPad);
 10446              		.loc 1 2345 7
 10447 0202 7B69     		ldr	r3, [r7, #20]
 10448 0204 23F4E032 		bic	r2, r3, #114688
 10449 0208 3B68     		ldr	r3, [r7]
 10450 020a DB8A     		ldrh	r3, [r3, #22]
 10451 020c 9B03     		lsls	r3, r3, #14
 10452 020e 03F4E033 		and	r3, r3, #114688
 10453              		.loc 1 2345 5
 10454 0212 1343     		orrs	r3, r3, r2
 10455 0214 7B61     		str	r3, [r7, #20]
2346:Lib/AI_Runtime/Npu/ll_aton/ll_aton.c ****   t = ATON_POOL_PDIMS_SET_BPAD(t, conf->bottomPad);
 10456              		.loc 1 2346 7
 10457 0216 7B69     		ldr	r3, [r7, #20]
 10458 0218 23F46022 		bic	r2, r3, #917504
 10459 021c 3B68     		ldr	r3, [r7]
 10460 021e 1B8B     		ldrh	r3, [r3, #24]
 10461 0220 5B04     		lsls	r3, r3, #17
 10462 0222 03F46023 		and	r3, r3, #917504
 10463              		.loc 1 2346 5
 10464 0226 1343     		orrs	r3, r3, r2
 10465 0228 7B61     		str	r3, [r7, #20]
2347:Lib/AI_Runtime/Npu/ll_aton/ll_aton.c ****   t = ATON_POOL_PDIMS_SET_LPAD(t, conf->leftPad);
 10466              		.loc 1 2347 7
 10467 022a 7B69     		ldr	r3, [r7, #20]
 10468 022c 23F4E002 		bic	r2, r3, #7340032
 10469 0230 3B68     		ldr	r3, [r7]
 10470 0232 5B8B     		ldrh	r3, [r3, #26]
ARM GAS  /tmp/ccxZaNgH.s 			page 238


 10471 0234 1B05     		lsls	r3, r3, #20
 10472 0236 03F4E003 		and	r3, r3, #7340032
 10473              		.loc 1 2347 5
 10474 023a 1343     		orrs	r3, r3, r2
 10475 023c 7B61     		str	r3, [r7, #20]
2348:Lib/AI_Runtime/Npu/ll_aton/ll_aton.c ****   t = ATON_POOL_PDIMS_SET_RPAD(t, conf->rightPad);
 10476              		.loc 1 2348 7
 10477 023e 7B69     		ldr	r3, [r7, #20]
 10478 0240 23F06072 		bic	r2, r3, #58720256
 10479 0244 3B68     		ldr	r3, [r7]
 10480 0246 9B8B     		ldrh	r3, [r3, #28]
 10481 0248 DB05     		lsls	r3, r3, #23
 10482 024a 03F06073 		and	r3, r3, #58720256
 10483              		.loc 1 2348 5
 10484 024e 1343     		orrs	r3, r3, r2
 10485 0250 7B61     		str	r3, [r7, #20]
2349:Lib/AI_Runtime/Npu/ll_aton/ll_aton.c ****   t = ATON_POOL_PDIMS_SET_BSIZE(t, conf->batchSize);
 10486              		.loc 1 2349 7
 10487 0252 7B69     		ldr	r3, [r7, #20]
 10488 0254 23F07052 		bic	r2, r3, #1006632960
 10489 0258 3B68     		ldr	r3, [r7]
 10490 025a DB8B     		ldrh	r3, [r3, #30]
 10491 025c 9B06     		lsls	r3, r3, #26
 10492 025e 03F07053 		and	r3, r3, #1006632960
 10493              		.loc 1 2349 5
 10494 0262 1343     		orrs	r3, r3, r2
 10495 0264 7B61     		str	r3, [r7, #20]
2350:Lib/AI_Runtime/Npu/ll_aton/ll_aton.c ****   ATON_POOL_PDIMS_SET(id, t);
 10496              		.loc 1 2350 3
 10497 0266 7B68     		ldr	r3, [r7, #4]
 10498 0268 1A03     		lsls	r2, r3, #12
 10499 026a 664B     		ldr	r3, .L534+4
 10500 026c 1344     		add	r3, r3, r2
 10501 026e 1A46     		mov	r2, r3
 10502 0270 7B69     		ldr	r3, [r7, #20]
 10503 0272 1360     		str	r3, [r2]
2351:Lib/AI_Runtime/Npu/ll_aton/ll_aton.c **** 
2352:Lib/AI_Runtime/Npu/ll_aton/ll_aton.c ****   /* Configure Pooling unit FDIMS register */
2353:Lib/AI_Runtime/Npu/ll_aton/ll_aton.c ****   t = ATON_POOL_FDIMS_DT;
 10504              		.loc 1 2353 5
 10505 0274 0023     		movs	r3, #0
 10506 0276 7B61     		str	r3, [r7, #20]
2354:Lib/AI_Runtime/Npu/ll_aton/ll_aton.c ****   t = ATON_POOL_FDIMS_SET_FEATX(t, conf->inputX * conf->batchSize);
 10507              		.loc 1 2354 7
 10508 0278 7B69     		ldr	r3, [r7, #20]
 10509 027a 23F47F63 		bic	r3, r3, #4080
 10510 027e 23F00F03 		bic	r3, r3, #15
 10511 0282 3A68     		ldr	r2, [r7]
 10512 0284 5288     		ldrh	r2, [r2, #2]
 10513 0286 1146     		mov	r1, r2
 10514 0288 3A68     		ldr	r2, [r7]
 10515 028a D28B     		ldrh	r2, [r2, #30]
 10516 028c 01FB02F2 		mul	r2, r1, r2
 10517 0290 C2F30B02 		ubfx	r2, r2, #0, #12
 10518              		.loc 1 2354 5
 10519 0294 1343     		orrs	r3, r3, r2
 10520 0296 7B61     		str	r3, [r7, #20]
ARM GAS  /tmp/ccxZaNgH.s 			page 239


2355:Lib/AI_Runtime/Npu/ll_aton/ll_aton.c ****   t = ATON_POOL_FDIMS_SET_FEATY(t, conf->inputY);
 10521              		.loc 1 2355 7
 10522 0298 7B69     		ldr	r3, [r7, #20]
 10523 029a 23F07F63 		bic	r3, r3, #267386880
 10524 029e 23F47023 		bic	r3, r3, #983040
 10525 02a2 3A68     		ldr	r2, [r7]
 10526 02a4 9288     		ldrh	r2, [r2, #4]
 10527 02a6 1104     		lsls	r1, r2, #16
 10528 02a8 574A     		ldr	r2, .L534+8
 10529 02aa 0A40     		ands	r2, r2, r1
 10530              		.loc 1 2355 5
 10531 02ac 1343     		orrs	r3, r3, r2
 10532 02ae 7B61     		str	r3, [r7, #20]
2356:Lib/AI_Runtime/Npu/ll_aton/ll_aton.c ****   ATON_POOL_FDIMS_SET(id, t);
 10533              		.loc 1 2356 3
 10534 02b0 7B68     		ldr	r3, [r7, #4]
 10535 02b2 1A03     		lsls	r2, r3, #12
 10536 02b4 554B     		ldr	r3, .L534+12
 10537 02b6 1344     		add	r3, r3, r2
 10538 02b8 1A46     		mov	r2, r3
 10539 02ba 7B69     		ldr	r3, [r7, #20]
 10540 02bc 1360     		str	r3, [r2]
2357:Lib/AI_Runtime/Npu/ll_aton/ll_aton.c **** 
2358:Lib/AI_Runtime/Npu/ll_aton/ll_aton.c ****   /* Configure Pooling unit OUTDIMS register */
2359:Lib/AI_Runtime/Npu/ll_aton/ll_aton.c ****   t = ATON_POOL_OUTDIMS_DT;
 10541              		.loc 1 2359 5
 10542 02be 0023     		movs	r3, #0
 10543 02c0 7B61     		str	r3, [r7, #20]
2360:Lib/AI_Runtime/Npu/ll_aton/ll_aton.c ****   t = ATON_POOL_OUTDIMS_SET_FEATX(t, conf->outputX);
 10544              		.loc 1 2360 7
 10545 02c2 7B69     		ldr	r3, [r7, #20]
 10546 02c4 23F47F63 		bic	r3, r3, #4080
 10547 02c8 23F00F03 		bic	r3, r3, #15
 10548 02cc 3A68     		ldr	r2, [r7]
 10549 02ce D288     		ldrh	r2, [r2, #6]
 10550 02d0 C2F30B02 		ubfx	r2, r2, #0, #12
 10551              		.loc 1 2360 5
 10552 02d4 1343     		orrs	r3, r3, r2
 10553 02d6 7B61     		str	r3, [r7, #20]
2361:Lib/AI_Runtime/Npu/ll_aton/ll_aton.c ****   t = ATON_POOL_OUTDIMS_SET_FEATY(t, conf->outputY);
 10554              		.loc 1 2361 7
 10555 02d8 7B69     		ldr	r3, [r7, #20]
 10556 02da 23F07F63 		bic	r3, r3, #267386880
 10557 02de 23F47023 		bic	r3, r3, #983040
 10558 02e2 3A68     		ldr	r2, [r7]
 10559 02e4 1289     		ldrh	r2, [r2, #8]
 10560 02e6 1104     		lsls	r1, r2, #16
 10561 02e8 474A     		ldr	r2, .L534+8
 10562 02ea 0A40     		ands	r2, r2, r1
 10563              		.loc 1 2361 5
 10564 02ec 1343     		orrs	r3, r3, r2
 10565 02ee 7B61     		str	r3, [r7, #20]
2362:Lib/AI_Runtime/Npu/ll_aton/ll_aton.c ****   ATON_POOL_OUTDIMS_SET(id, t);
 10566              		.loc 1 2362 3
 10567 02f0 7B68     		ldr	r3, [r7, #4]
 10568 02f2 1A03     		lsls	r2, r3, #12
 10569 02f4 464B     		ldr	r3, .L534+16
ARM GAS  /tmp/ccxZaNgH.s 			page 240


 10570 02f6 1344     		add	r3, r3, r2
 10571 02f8 1A46     		mov	r2, r3
 10572 02fa 7B69     		ldr	r3, [r7, #20]
 10573 02fc 1360     		str	r3, [r2]
2363:Lib/AI_Runtime/Npu/ll_aton/ll_aton.c **** 
2364:Lib/AI_Runtime/Npu/ll_aton/ll_aton.c ****   /* Configure mulval */
2365:Lib/AI_Runtime/Npu/ll_aton/ll_aton.c ****   t = ATON_POOL_MULVAL_DT;
 10574              		.loc 1 2365 5
 10575 02fe 0023     		movs	r3, #0
 10576 0300 7B61     		str	r3, [r7, #20]
2366:Lib/AI_Runtime/Npu/ll_aton/ll_aton.c ****   t = ATON_POOL_MULVAL_SET_MULVAL(t, conf->mulval);
 10577              		.loc 1 2366 7
 10578 0302 7B69     		ldr	r3, [r7, #20]
 10579 0304 1B0C     		lsrs	r3, r3, #16
 10580 0306 1B04     		lsls	r3, r3, #16
 10581 0308 3A68     		ldr	r2, [r7]
 10582 030a B2F92620 		ldrsh	r2, [r2, #38]
 10583 030e 92B2     		uxth	r2, r2
 10584              		.loc 1 2366 5
 10585 0310 1343     		orrs	r3, r3, r2
 10586 0312 7B61     		str	r3, [r7, #20]
2367:Lib/AI_Runtime/Npu/ll_aton/ll_aton.c ****   ATON_POOL_MULVAL_SET(id, t);
 10587              		.loc 1 2367 3
 10588 0314 7B68     		ldr	r3, [r7, #4]
 10589 0316 1A03     		lsls	r2, r3, #12
 10590 0318 3E4B     		ldr	r3, .L534+20
 10591 031a 1344     		add	r3, r3, r2
 10592 031c 1A46     		mov	r2, r3
 10593 031e 7B69     		ldr	r3, [r7, #20]
 10594 0320 1360     		str	r3, [r2]
2368:Lib/AI_Runtime/Npu/ll_aton/ll_aton.c **** 
2369:Lib/AI_Runtime/Npu/ll_aton/ll_aton.c ****   /* Mulval is scattered across different registers from V3 onwards. TODO: use ATON.h macros */
2370:Lib/AI_Runtime/Npu/ll_aton/ll_aton.c **** #if (ATON_POOL_VERSION_MAJOR_DT >= 3)
2371:Lib/AI_Runtime/Npu/ll_aton/ll_aton.c ****   unsigned int wsize = conf->poolWinX * conf->poolWinY;
2372:Lib/AI_Runtime/Npu/ll_aton/ll_aton.c ****   if (wsize > 0 && wsize < 9)
2373:Lib/AI_Runtime/Npu/ll_aton/ll_aton.c ****   {
2374:Lib/AI_Runtime/Npu/ll_aton/ll_aton.c ****     uint32_t *mulval_addr = (uint32_t *)ATON_POOL_MULVAL_1_2_ADDR(id);
2375:Lib/AI_Runtime/Npu/ll_aton/ll_aton.c ****     wsize--;
2376:Lib/AI_Runtime/Npu/ll_aton/ll_aton.c ****     mulval_addr += (wsize / 2);
2377:Lib/AI_Runtime/Npu/ll_aton/ll_aton.c ****     if (wsize & 1)
2378:Lib/AI_Runtime/Npu/ll_aton/ll_aton.c ****       *mulval_addr |= ((conf->mulval) << 16);
2379:Lib/AI_Runtime/Npu/ll_aton/ll_aton.c ****     else
2380:Lib/AI_Runtime/Npu/ll_aton/ll_aton.c ****       *mulval_addr |= conf->mulval;
2381:Lib/AI_Runtime/Npu/ll_aton/ll_aton.c ****   }
2382:Lib/AI_Runtime/Npu/ll_aton/ll_aton.c **** #endif
2383:Lib/AI_Runtime/Npu/ll_aton/ll_aton.c **** 
2384:Lib/AI_Runtime/Npu/ll_aton/ll_aton.c ****   /* Configure cropping if needed */
2385:Lib/AI_Runtime/Npu/ll_aton/ll_aton.c ****   t = ATON_POOL_XCROP_DT;
 10595              		.loc 1 2385 5
 10596 0322 0023     		movs	r3, #0
 10597 0324 7B61     		str	r3, [r7, #20]
2386:Lib/AI_Runtime/Npu/ll_aton/ll_aton.c ****   if (conf->leftCrop > 0)
 10598              		.loc 1 2386 11
 10599 0326 3B68     		ldr	r3, [r7]
 10600 0328 5B8A     		ldrh	r3, [r3, #18]
 10601              		.loc 1 2386 6
 10602 032a 002B     		cmp	r3, #0
ARM GAS  /tmp/ccxZaNgH.s 			page 241


 10603 032c 0FD0     		beq	.L530
2387:Lib/AI_Runtime/Npu/ll_aton/ll_aton.c ****     t = ATON_POOL_XCROP_SET_LCROP(t, conf->leftCrop * conf->batchSize);
 10604              		.loc 1 2387 9
 10605 032e 7B69     		ldr	r3, [r7, #20]
 10606 0330 23F47F63 		bic	r3, r3, #4080
 10607 0334 23F00F03 		bic	r3, r3, #15
 10608 0338 3A68     		ldr	r2, [r7]
 10609 033a 528A     		ldrh	r2, [r2, #18]
 10610 033c 1146     		mov	r1, r2
 10611 033e 3A68     		ldr	r2, [r7]
 10612 0340 D28B     		ldrh	r2, [r2, #30]
 10613 0342 01FB02F2 		mul	r2, r1, r2
 10614 0346 C2F30B02 		ubfx	r2, r2, #0, #12
 10615              		.loc 1 2387 7
 10616 034a 1343     		orrs	r3, r3, r2
 10617 034c 7B61     		str	r3, [r7, #20]
 10618              	.L530:
2388:Lib/AI_Runtime/Npu/ll_aton/ll_aton.c ****   int r_crop = conf->rightCrop * conf->batchSize + (conf->batchSize - 1);
 10619              		.loc 1 2388 20
 10620 034e 3B68     		ldr	r3, [r7]
 10621 0350 9B8A     		ldrh	r3, [r3, #20]
 10622 0352 1A46     		mov	r2, r3
 10623              		.loc 1 2388 38
 10624 0354 3B68     		ldr	r3, [r7]
 10625 0356 DB8B     		ldrh	r3, [r3, #30]
 10626              		.loc 1 2388 32
 10627 0358 03FB02F2 		mul	r2, r3, r2
 10628              		.loc 1 2388 57
 10629 035c 3B68     		ldr	r3, [r7]
 10630 035e DB8B     		ldrh	r3, [r3, #30]
 10631              		.loc 1 2388 69
 10632 0360 013B     		subs	r3, r3, #1
 10633              		.loc 1 2388 7
 10634 0362 1344     		add	r3, r3, r2
 10635 0364 FB60     		str	r3, [r7, #12]
2389:Lib/AI_Runtime/Npu/ll_aton/ll_aton.c ****   if (r_crop > 0)
 10636              		.loc 1 2389 6
 10637 0366 FB68     		ldr	r3, [r7, #12]
 10638 0368 002B     		cmp	r3, #0
 10639 036a 14DD     		ble	.L531
2390:Lib/AI_Runtime/Npu/ll_aton/ll_aton.c ****     t = ATON_POOL_XCROP_SET_RCROP(t, conf->rightCrop * conf->batchSize + (conf->batchSize - 1));
 10640              		.loc 1 2390 9
 10641 036c 7B69     		ldr	r3, [r7, #20]
 10642 036e 23F07F63 		bic	r3, r3, #267386880
 10643 0372 23F47023 		bic	r3, r3, #983040
 10644 0376 3A68     		ldr	r2, [r7]
 10645 0378 928A     		ldrh	r2, [r2, #20]
 10646 037a 1146     		mov	r1, r2
 10647 037c 3A68     		ldr	r2, [r7]
 10648 037e D28B     		ldrh	r2, [r2, #30]
 10649 0380 02FB01F1 		mul	r1, r2, r1
 10650 0384 3A68     		ldr	r2, [r7]
 10651 0386 D28B     		ldrh	r2, [r2, #30]
 10652 0388 013A     		subs	r2, r2, #1
 10653 038a 0A44     		add	r2, r2, r1
 10654 038c 1104     		lsls	r1, r2, #16
 10655 038e 1E4A     		ldr	r2, .L534+8
ARM GAS  /tmp/ccxZaNgH.s 			page 242


 10656 0390 0A40     		ands	r2, r2, r1
 10657              		.loc 1 2390 7
 10658 0392 1343     		orrs	r3, r3, r2
 10659 0394 7B61     		str	r3, [r7, #20]
 10660              	.L531:
2391:Lib/AI_Runtime/Npu/ll_aton/ll_aton.c ****   ATON_POOL_XCROP_SET(id, t);
 10661              		.loc 1 2391 3
 10662 0396 7B68     		ldr	r3, [r7, #4]
 10663 0398 1A03     		lsls	r2, r3, #12
 10664 039a 1F4B     		ldr	r3, .L534+24
 10665 039c 1344     		add	r3, r3, r2
 10666 039e 1A46     		mov	r2, r3
 10667 03a0 7B69     		ldr	r3, [r7, #20]
 10668 03a2 1360     		str	r3, [r2]
2392:Lib/AI_Runtime/Npu/ll_aton/ll_aton.c **** 
2393:Lib/AI_Runtime/Npu/ll_aton/ll_aton.c ****   t = ATON_POOL_YCROP_DT;
 10669              		.loc 1 2393 5
 10670 03a4 0023     		movs	r3, #0
 10671 03a6 7B61     		str	r3, [r7, #20]
2394:Lib/AI_Runtime/Npu/ll_aton/ll_aton.c ****   if (conf->topCrop > 0)
 10672              		.loc 1 2394 11
 10673 03a8 3B68     		ldr	r3, [r7]
 10674 03aa DB89     		ldrh	r3, [r3, #14]
 10675              		.loc 1 2394 6
 10676 03ac 002B     		cmp	r3, #0
 10677 03ae 0AD0     		beq	.L532
2395:Lib/AI_Runtime/Npu/ll_aton/ll_aton.c ****     t = ATON_POOL_YCROP_SET_TCROP(t, conf->topCrop);
 10678              		.loc 1 2395 9
 10679 03b0 7B69     		ldr	r3, [r7, #20]
 10680 03b2 23F47F63 		bic	r3, r3, #4080
 10681 03b6 23F00F03 		bic	r3, r3, #15
 10682 03ba 3A68     		ldr	r2, [r7]
 10683 03bc D289     		ldrh	r2, [r2, #14]
 10684 03be C2F30B02 		ubfx	r2, r2, #0, #12
 10685              		.loc 1 2395 7
 10686 03c2 1343     		orrs	r3, r3, r2
 10687 03c4 7B61     		str	r3, [r7, #20]
 10688              	.L532:
2396:Lib/AI_Runtime/Npu/ll_aton/ll_aton.c ****   if (conf->bottomCrop > 0)
 10689              		.loc 1 2396 11
 10690 03c6 3B68     		ldr	r3, [r7]
 10691 03c8 1B8A     		ldrh	r3, [r3, #16]
 10692              		.loc 1 2396 6
 10693 03ca 002B     		cmp	r3, #0
 10694 03cc 0BD0     		beq	.L533
2397:Lib/AI_Runtime/Npu/ll_aton/ll_aton.c ****     t = ATON_POOL_YCROP_SET_BCROP(t, conf->bottomCrop);
 10695              		.loc 1 2397 9
 10696 03ce 7B69     		ldr	r3, [r7, #20]
 10697 03d0 23F07F63 		bic	r3, r3, #267386880
 10698 03d4 23F47023 		bic	r3, r3, #983040
 10699 03d8 3A68     		ldr	r2, [r7]
 10700 03da 128A     		ldrh	r2, [r2, #16]
 10701 03dc 1104     		lsls	r1, r2, #16
 10702 03de 0A4A     		ldr	r2, .L534+8
 10703 03e0 0A40     		ands	r2, r2, r1
 10704              		.loc 1 2397 7
 10705 03e2 1343     		orrs	r3, r3, r2
ARM GAS  /tmp/ccxZaNgH.s 			page 243


 10706 03e4 7B61     		str	r3, [r7, #20]
 10707              	.L533:
2398:Lib/AI_Runtime/Npu/ll_aton/ll_aton.c ****   ATON_POOL_YCROP_SET(id, t);
 10708              		.loc 1 2398 3
 10709 03e6 7B68     		ldr	r3, [r7, #4]
 10710 03e8 1A03     		lsls	r2, r3, #12
 10711 03ea 0C4B     		ldr	r3, .L534+28
 10712 03ec 1344     		add	r3, r3, r2
 10713 03ee 1A46     		mov	r2, r3
 10714 03f0 7B69     		ldr	r3, [r7, #20]
 10715 03f2 1360     		str	r3, [r2]
2399:Lib/AI_Runtime/Npu/ll_aton/ll_aton.c **** 
2400:Lib/AI_Runtime/Npu/ll_aton/ll_aton.c **** #ifdef ATON_POOL_USER_PAD_VALUE_SET
2401:Lib/AI_Runtime/Npu/ll_aton/ll_aton.c ****   if (conf->pad_val_en)
2402:Lib/AI_Runtime/Npu/ll_aton/ll_aton.c ****   {
2403:Lib/AI_Runtime/Npu/ll_aton/ll_aton.c ****     t = ATON_POOL_USER_PAD_VALUE_DT;
2404:Lib/AI_Runtime/Npu/ll_aton/ll_aton.c ****     t = ATON_POOL_USER_PAD_VALUE_SET_PADVAL(t, conf->pad_val);
2405:Lib/AI_Runtime/Npu/ll_aton/ll_aton.c ****     t = ATON_POOL_USER_PAD_VALUE_SET_PADVALEN(t, 1);
2406:Lib/AI_Runtime/Npu/ll_aton/ll_aton.c ****     ATON_POOL_USER_PAD_VALUE_SET(id, t);
2407:Lib/AI_Runtime/Npu/ll_aton/ll_aton.c ****   }
2408:Lib/AI_Runtime/Npu/ll_aton/ll_aton.c **** #endif
2409:Lib/AI_Runtime/Npu/ll_aton/ll_aton.c **** 
2410:Lib/AI_Runtime/Npu/ll_aton/ll_aton.c ****   return 0;
 10716              		.loc 1 2410 10
 10717 03f4 0023     		movs	r3, #0
 10718              	.L529:
2411:Lib/AI_Runtime/Npu/ll_aton/ll_aton.c **** }
 10719              		.loc 1 2411 1
 10720 03f6 1846     		mov	r0, r3
 10721 03f8 1C37     		adds	r7, r7, #28
 10722              		.cfi_def_cfa_offset 12
 10723 03fa BD46     		mov	sp, r7
 10724              		.cfi_def_cfa_register 13
 10725              		@ sp needed
 10726 03fc 90BD     		pop	{r4, r7, pc}
 10727              	.L535:
 10728 03fe 00BF     		.align	2
 10729              	.L534:
 10730 0400 20B00F58 		.word	1477423136
 10731 0404 08B00F58 		.word	1477423112
 10732 0408 0000FF0F 		.word	268369920
 10733 040c 0CB00F58 		.word	1477423116
 10734 0410 10B00F58 		.word	1477423120
 10735 0414 14B00F58 		.word	1477423124
 10736 0418 18B00F58 		.word	1477423128
 10737 041c 1CB00F58 		.word	1477423132
 10738              		.cfi_endproc
 10739              	.LFE4850:
 10741              		.section	.text.LL_EpochCtrl_Init,"ax",%progbits
 10742              		.align	1
 10743              		.global	LL_EpochCtrl_Init
 10744              		.syntax unified
 10745              		.thumb
 10746              		.thumb_func
 10748              	LL_EpochCtrl_Init:
 10749              	.LFB4851:
2412:Lib/AI_Runtime/Npu/ll_aton/ll_aton.c **** #endif // ATON_POOL_NUM
ARM GAS  /tmp/ccxZaNgH.s 			page 244


2413:Lib/AI_Runtime/Npu/ll_aton/ll_aton.c **** 
2414:Lib/AI_Runtime/Npu/ll_aton/ll_aton.c **** #if defined(ATON_EPOCHCTRL_NUM)
2415:Lib/AI_Runtime/Npu/ll_aton/ll_aton.c **** /**
2416:Lib/AI_Runtime/Npu/ll_aton/ll_aton.c ****  * @brief  Configure Epoch Controller
2417:Lib/AI_Runtime/Npu/ll_aton/ll_aton.c ****  * @param  id Epoch Controller identifier [0..ATON_EPOCHCTRL_NUM-1]
2418:Lib/AI_Runtime/Npu/ll_aton/ll_aton.c ****  * @param  conf Structure describing Epoch Controller initialization parameters
2419:Lib/AI_Runtime/Npu/ll_aton/ll_aton.c ****  * @retval Error code
2420:Lib/AI_Runtime/Npu/ll_aton/ll_aton.c ****  */
2421:Lib/AI_Runtime/Npu/ll_aton/ll_aton.c **** int LL_EpochCtrl_Init(int id, const LL_EpochCtrl_InitTypeDef *conf)
2422:Lib/AI_Runtime/Npu/ll_aton/ll_aton.c **** {
 10750              		.loc 1 2422 1
 10751              		.cfi_startproc
 10752              		@ args = 0, pretend = 0, frame = 16
 10753              		@ frame_needed = 1, uses_anonymous_args = 0
 10754 0000 80B5     		push	{r7, lr}
 10755              		.cfi_def_cfa_offset 8
 10756              		.cfi_offset 7, -8
 10757              		.cfi_offset 14, -4
 10758 0002 84B0     		sub	sp, sp, #16
 10759              		.cfi_def_cfa_offset 24
 10760 0004 00AF     		add	r7, sp, #0
 10761              		.cfi_def_cfa_register 7
 10762 0006 7860     		str	r0, [r7, #4]
 10763 0008 3960     		str	r1, [r7]
2423:Lib/AI_Runtime/Npu/ll_aton/ll_aton.c ****   uint32_t t;
2424:Lib/AI_Runtime/Npu/ll_aton/ll_aton.c **** 
2425:Lib/AI_Runtime/Npu/ll_aton/ll_aton.c ****   if (id >= ATON_EPOCHCTRL_NUM)
 10764              		.loc 1 2425 6
 10765 000a 7B68     		ldr	r3, [r7, #4]
 10766 000c 002B     		cmp	r3, #0
 10767 000e 02DD     		ble	.L537
2426:Lib/AI_Runtime/Npu/ll_aton/ll_aton.c ****     return LL_ATON_INVALID_ID;
 10768              		.loc 1 2426 12
 10769 0010 4FF0FF33 		mov	r3, #-1
 10770 0014 24E0     		b	.L538
 10771              	.L537:
2427:Lib/AI_Runtime/Npu/ll_aton/ll_aton.c **** 
2428:Lib/AI_Runtime/Npu/ll_aton/ll_aton.c ****   LL_ATON_EnableClock(ATON_EPOCHCTRL_CLKB_CLK(id));
 10772              		.loc 1 2428 23
 10773 0016 7B68     		ldr	r3, [r7, #4]
 10774 0018 1933     		adds	r3, r3, #25
 10775              		.loc 1 2428 3
 10776 001a 1846     		mov	r0, r3
 10777 001c FFF7FEFF 		bl	LL_ATON_EnableClock
2429:Lib/AI_Runtime/Npu/ll_aton/ll_aton.c **** 
2430:Lib/AI_Runtime/Npu/ll_aton/ll_aton.c ****   /* Configure CTRL register */
2431:Lib/AI_Runtime/Npu/ll_aton/ll_aton.c ****   t = ATON_EPOCHCTRL_CTRL_DT;
 10778              		.loc 1 2431 5
 10779 0020 0023     		movs	r3, #0
 10780 0022 FB60     		str	r3, [r7, #12]
2432:Lib/AI_Runtime/Npu/ll_aton/ll_aton.c ****   t = ATON_EPOCHCTRL_CTRL_SET_SM(t, conf->stepmode);
 10781              		.loc 1 2432 7
 10782 0024 FB68     		ldr	r3, [r7, #12]
 10783 0026 23F00802 		bic	r2, r3, #8
 10784 002a 3B68     		ldr	r3, [r7]
 10785 002c 1B79     		ldrb	r3, [r3, #4]
 10786 002e C3F30003 		ubfx	r3, r3, #0, #1
ARM GAS  /tmp/ccxZaNgH.s 			page 245


 10787 0032 DBB2     		uxtb	r3, r3
 10788 0034 DB00     		lsls	r3, r3, #3
 10789 0036 03F00803 		and	r3, r3, #8
 10790              		.loc 1 2432 5
 10791 003a 1343     		orrs	r3, r3, r2
 10792 003c FB60     		str	r3, [r7, #12]
2433:Lib/AI_Runtime/Npu/ll_aton/ll_aton.c ****   ATON_EPOCHCTRL_CTRL_SET(id, t);
 10793              		.loc 1 2433 3
 10794 003e 0A4A     		ldr	r2, .L540
 10795 0040 FB68     		ldr	r3, [r7, #12]
 10796 0042 1360     		str	r3, [r2]
2434:Lib/AI_Runtime/Npu/ll_aton/ll_aton.c **** 
2435:Lib/AI_Runtime/Npu/ll_aton/ll_aton.c ****   /* Check address is 8 byte aligned */
2436:Lib/AI_Runtime/Npu/ll_aton/ll_aton.c ****   if (conf->blobaddr & 0x7)
 10797              		.loc 1 2436 11
 10798 0044 3B68     		ldr	r3, [r7]
 10799 0046 1B68     		ldr	r3, [r3]
 10800              		.loc 1 2436 22
 10801 0048 03F00703 		and	r3, r3, #7
 10802              		.loc 1 2436 6
 10803 004c 002B     		cmp	r3, #0
 10804 004e 02D0     		beq	.L539
2437:Lib/AI_Runtime/Npu/ll_aton/ll_aton.c ****     return LL_ATON_INVALID_PARAM;
 10805              		.loc 1 2437 12
 10806 0050 6FF00103 		mvn	r3, #1
 10807 0054 04E0     		b	.L538
 10808              	.L539:
2438:Lib/AI_Runtime/Npu/ll_aton/ll_aton.c **** 
2439:Lib/AI_Runtime/Npu/ll_aton/ll_aton.c ****   ATON_EPOCHCTRL_ADDR_SET(id, conf->blobaddr);
 10809              		.loc 1 2439 3
 10810 0056 054A     		ldr	r2, .L540+4
 10811 0058 3B68     		ldr	r3, [r7]
 10812 005a 1B68     		ldr	r3, [r3]
 10813 005c 1360     		str	r3, [r2]
2440:Lib/AI_Runtime/Npu/ll_aton/ll_aton.c **** 
2441:Lib/AI_Runtime/Npu/ll_aton/ll_aton.c ****   return LL_ATON_OK;
 10814              		.loc 1 2441 10
 10815 005e 0023     		movs	r3, #0
 10816              	.L538:
2442:Lib/AI_Runtime/Npu/ll_aton/ll_aton.c **** }
 10817              		.loc 1 2442 1
 10818 0060 1846     		mov	r0, r3
 10819 0062 1037     		adds	r7, r7, #16
 10820              		.cfi_def_cfa_offset 8
 10821 0064 BD46     		mov	sp, r7
 10822              		.cfi_def_cfa_register 13
 10823              		@ sp needed
 10824 0066 80BD     		pop	{r7, pc}
 10825              	.L541:
 10826              		.align	2
 10827              	.L540:
 10828 0068 00E00F58 		.word	1477435392
 10829 006c 08E00F58 		.word	1477435400
 10830              		.cfi_endproc
 10831              	.LFE4851:
 10833              		.section	.text.LL_EpochCtrl_Step,"ax",%progbits
 10834              		.align	1
ARM GAS  /tmp/ccxZaNgH.s 			page 246


 10835              		.global	LL_EpochCtrl_Step
 10836              		.syntax unified
 10837              		.thumb
 10838              		.thumb_func
 10840              	LL_EpochCtrl_Step:
 10841              	.LFB4852:
2443:Lib/AI_Runtime/Npu/ll_aton/ll_aton.c **** 
2444:Lib/AI_Runtime/Npu/ll_aton/ll_aton.c **** /**
2445:Lib/AI_Runtime/Npu/ll_aton/ll_aton.c ****  * @brief  Trigger Epoch Controller Single Step execution
2446:Lib/AI_Runtime/Npu/ll_aton/ll_aton.c ****  * @param  id Epoch Controller identifier [0..ATON_EPOCHCTRL_NUM-1]
2447:Lib/AI_Runtime/Npu/ll_aton/ll_aton.c ****  * @retval Error code
2448:Lib/AI_Runtime/Npu/ll_aton/ll_aton.c ****  */
2449:Lib/AI_Runtime/Npu/ll_aton/ll_aton.c **** int LL_EpochCtrl_Step(int id)
2450:Lib/AI_Runtime/Npu/ll_aton/ll_aton.c **** {
 10842              		.loc 1 2450 1
 10843              		.cfi_startproc
 10844              		@ args = 0, pretend = 0, frame = 16
 10845              		@ frame_needed = 1, uses_anonymous_args = 0
 10846              		@ link register save eliminated.
 10847 0000 80B4     		push	{r7}
 10848              		.cfi_def_cfa_offset 4
 10849              		.cfi_offset 7, -4
 10850 0002 85B0     		sub	sp, sp, #20
 10851              		.cfi_def_cfa_offset 24
 10852 0004 00AF     		add	r7, sp, #0
 10853              		.cfi_def_cfa_register 7
 10854 0006 7860     		str	r0, [r7, #4]
2451:Lib/AI_Runtime/Npu/ll_aton/ll_aton.c ****   uint32_t t;
2452:Lib/AI_Runtime/Npu/ll_aton/ll_aton.c **** 
2453:Lib/AI_Runtime/Npu/ll_aton/ll_aton.c ****   t = ATON_EPOCHCTRL_IRQ_GET(id);
 10855              		.loc 1 2453 7
 10856 0008 084B     		ldr	r3, .L544
 10857              		.loc 1 2453 5
 10858 000a 1B68     		ldr	r3, [r3]
 10859 000c FB60     		str	r3, [r7, #12]
2454:Lib/AI_Runtime/Npu/ll_aton/ll_aton.c ****   t = ATON_EPOCHCTRL_IRQ_SET_SM(t, 1);
 10860              		.loc 1 2454 5
 10861 000e FB68     		ldr	r3, [r7, #12]
 10862 0010 43F48033 		orr	r3, r3, #65536
 10863 0014 FB60     		str	r3, [r7, #12]
2455:Lib/AI_Runtime/Npu/ll_aton/ll_aton.c ****   ATON_EPOCHCTRL_IRQ_SET(id, t);
 10864              		.loc 1 2455 3
 10865 0016 054A     		ldr	r2, .L544
 10866 0018 FB68     		ldr	r3, [r7, #12]
 10867 001a 1360     		str	r3, [r2]
2456:Lib/AI_Runtime/Npu/ll_aton/ll_aton.c **** 
2457:Lib/AI_Runtime/Npu/ll_aton/ll_aton.c ****   return 0;
 10868              		.loc 1 2457 10
 10869 001c 0023     		movs	r3, #0
2458:Lib/AI_Runtime/Npu/ll_aton/ll_aton.c **** }
 10870              		.loc 1 2458 1
 10871 001e 1846     		mov	r0, r3
 10872 0020 1437     		adds	r7, r7, #20
 10873              		.cfi_def_cfa_offset 4
 10874 0022 BD46     		mov	sp, r7
 10875              		.cfi_def_cfa_register 13
 10876              		@ sp needed
ARM GAS  /tmp/ccxZaNgH.s 			page 247


 10877 0024 5DF8047B 		ldr	r7, [sp], #4
 10878              		.cfi_restore 7
 10879              		.cfi_def_cfa_offset 0
 10880 0028 7047     		bx	lr
 10881              	.L545:
 10882 002a 00BF     		.align	2
 10883              	.L544:
 10884 002c 0CE00F58 		.word	1477435404
 10885              		.cfi_endproc
 10886              	.LFE4852:
 10888              		.section	.text.LL_EpochCtrl_Wait,"ax",%progbits
 10889              		.align	1
 10890              		.global	LL_EpochCtrl_Wait
 10891              		.syntax unified
 10892              		.thumb
 10893              		.thumb_func
 10895              	LL_EpochCtrl_Wait:
 10896              	.LFB4853:
2459:Lib/AI_Runtime/Npu/ll_aton/ll_aton.c **** 
2460:Lib/AI_Runtime/Npu/ll_aton/ll_aton.c **** /**
2461:Lib/AI_Runtime/Npu/ll_aton/ll_aton.c ****  * @brief  Waits for epoch controller to become idle
2462:Lib/AI_Runtime/Npu/ll_aton/ll_aton.c ****  * @param  id Bitmask of EC identifiers
2463:Lib/AI_Runtime/Npu/ll_aton/ll_aton.c ****  * @retval Error code
2464:Lib/AI_Runtime/Npu/ll_aton/ll_aton.c ****  */
2465:Lib/AI_Runtime/Npu/ll_aton/ll_aton.c **** int LL_EpochCtrl_Wait(uint32_t mask)
2466:Lib/AI_Runtime/Npu/ll_aton/ll_aton.c **** {
 10897              		.loc 1 2466 1
 10898              		.cfi_startproc
 10899              		@ args = 0, pretend = 0, frame = 16
 10900              		@ frame_needed = 1, uses_anonymous_args = 0
 10901 0000 80B5     		push	{r7, lr}
 10902              		.cfi_def_cfa_offset 8
 10903              		.cfi_offset 7, -8
 10904              		.cfi_offset 14, -4
 10905 0002 84B0     		sub	sp, sp, #16
 10906              		.cfi_def_cfa_offset 24
 10907 0004 00AF     		add	r7, sp, #0
 10908              		.cfi_def_cfa_register 7
 10909 0006 7860     		str	r0, [r7, #4]
2467:Lib/AI_Runtime/Npu/ll_aton/ll_aton.c ****   int i;
2468:Lib/AI_Runtime/Npu/ll_aton/ll_aton.c ****   uint32_t enableFlags;
2469:Lib/AI_Runtime/Npu/ll_aton/ll_aton.c **** 
2470:Lib/AI_Runtime/Npu/ll_aton/ll_aton.c ****   startWatchdog(ATON_EPOCH_TIMEOUT);
 10910              		.loc 1 2470 3
 10911 0008 1848     		ldr	r0, .L553
 10912 000a FFF7FEFF 		bl	startWatchdog
 10913              	.L551:
2471:Lib/AI_Runtime/Npu/ll_aton/ll_aton.c **** 
2472:Lib/AI_Runtime/Npu/ll_aton/ll_aton.c ****   do
2473:Lib/AI_Runtime/Npu/ll_aton/ll_aton.c ****   {
2474:Lib/AI_Runtime/Npu/ll_aton/ll_aton.c ****     enableFlags = 0;
 10914              		.loc 1 2474 17
 10915 000e 0023     		movs	r3, #0
 10916 0010 BB60     		str	r3, [r7, #8]
2475:Lib/AI_Runtime/Npu/ll_aton/ll_aton.c ****     for (i = 0; i < ATON_EPOCHCTRL_NUM; i++)
 10917              		.loc 1 2475 12
 10918 0012 0023     		movs	r3, #0
ARM GAS  /tmp/ccxZaNgH.s 			page 248


 10919 0014 FB60     		str	r3, [r7, #12]
 10920              		.loc 1 2475 5
 10921 0016 12E0     		b	.L547
 10922              	.L549:
2476:Lib/AI_Runtime/Npu/ll_aton/ll_aton.c ****     {
2477:Lib/AI_Runtime/Npu/ll_aton/ll_aton.c ****       if (mask & (1 << i))
 10923              		.loc 1 2477 21
 10924 0018 0122     		movs	r2, #1
 10925 001a FB68     		ldr	r3, [r7, #12]
 10926 001c 02FA03F3 		lsl	r3, r2, r3
 10927 0020 1A46     		mov	r2, r3
 10928              		.loc 1 2477 16
 10929 0022 7B68     		ldr	r3, [r7, #4]
 10930 0024 1340     		ands	r3, r3, r2
 10931              		.loc 1 2477 10
 10932 0026 002B     		cmp	r3, #0
 10933 0028 06D0     		beq	.L548
2478:Lib/AI_Runtime/Npu/ll_aton/ll_aton.c ****       {
2479:Lib/AI_Runtime/Npu/ll_aton/ll_aton.c ****         enableFlags |= (ATON_EPOCHCTRL_CTRL_GET(i) & (1U << ATON_EPOCHCTRL_CTRL_RUNNING_LSB));
 10934              		.loc 1 2479 25
 10935 002a 114B     		ldr	r3, .L553+4
 10936 002c 1B68     		ldr	r3, [r3]
 10937              		.loc 1 2479 52
 10938 002e 03F00043 		and	r3, r3, #-2147483648
 10939              		.loc 1 2479 21
 10940 0032 BA68     		ldr	r2, [r7, #8]
 10941 0034 1343     		orrs	r3, r3, r2
 10942 0036 BB60     		str	r3, [r7, #8]
 10943              	.L548:
2475:Lib/AI_Runtime/Npu/ll_aton/ll_aton.c ****     {
 10944              		.loc 1 2475 42 discriminator 2
 10945 0038 FB68     		ldr	r3, [r7, #12]
 10946 003a 0133     		adds	r3, r3, #1
 10947 003c FB60     		str	r3, [r7, #12]
 10948              	.L547:
2475:Lib/AI_Runtime/Npu/ll_aton/ll_aton.c ****     {
 10949              		.loc 1 2475 19 discriminator 1
 10950 003e FB68     		ldr	r3, [r7, #12]
 10951 0040 002B     		cmp	r3, #0
 10952 0042 E9DD     		ble	.L549
2480:Lib/AI_Runtime/Npu/ll_aton/ll_aton.c ****       }
2481:Lib/AI_Runtime/Npu/ll_aton/ll_aton.c ****     }
2482:Lib/AI_Runtime/Npu/ll_aton/ll_aton.c **** 
2483:Lib/AI_Runtime/Npu/ll_aton/ll_aton.c ****     LL_ATON_ASSERT(checkWatchdog() == 0);
 10953              		.loc 1 2483 5
 10954 0044 FFF7FEFF 		bl	checkWatchdog
 10955 0048 0346     		mov	r3, r0
 10956              		.loc 1 2483 5 is_stmt 0 discriminator 1
 10957 004a 002B     		cmp	r3, #0
 10958 004c 06D0     		beq	.L550
 10959 004e 094B     		ldr	r3, .L553+8
 10960 0050 094A     		ldr	r2, .L553+12
 10961 0052 40F6B311 		movw	r1, #2483
 10962 0056 0948     		ldr	r0, .L553+16
 10963 0058 FFF7FEFF 		bl	__assert_func
 10964              	.L550:
2484:Lib/AI_Runtime/Npu/ll_aton/ll_aton.c **** 
ARM GAS  /tmp/ccxZaNgH.s 			page 249


2485:Lib/AI_Runtime/Npu/ll_aton/ll_aton.c ****   } while (enableFlags);
 10965              		.loc 1 2485 12 is_stmt 1
 10966 005c BB68     		ldr	r3, [r7, #8]
 10967 005e 002B     		cmp	r3, #0
 10968 0060 D5D1     		bne	.L551
2486:Lib/AI_Runtime/Npu/ll_aton/ll_aton.c **** 
2487:Lib/AI_Runtime/Npu/ll_aton/ll_aton.c ****   return LL_ATON_OK;
 10969              		.loc 1 2487 10
 10970 0062 0023     		movs	r3, #0
2488:Lib/AI_Runtime/Npu/ll_aton/ll_aton.c **** }
 10971              		.loc 1 2488 1
 10972 0064 1846     		mov	r0, r3
 10973 0066 1037     		adds	r7, r7, #16
 10974              		.cfi_def_cfa_offset 8
 10975 0068 BD46     		mov	sp, r7
 10976              		.cfi_def_cfa_register 13
 10977              		@ sp needed
 10978 006a 80BD     		pop	{r7, pc}
 10979              	.L554:
 10980              		.align	2
 10981              	.L553:
 10982 006c 80969800 		.word	10000000
 10983 0070 00E00F58 		.word	1477435392
 10984 0074 10020000 		.word	.LC23
 10985 0078 00000000 		.word	__func__.0
 10986 007c 3C000000 		.word	.LC4
 10987              		.cfi_endproc
 10988              	.LFE4853:
 10990              		.section	.text.LL_EpochCtrl_GetBlobSize,"ax",%progbits
 10991              		.align	1
 10992              		.global	LL_EpochCtrl_GetBlobSize
 10993              		.syntax unified
 10994              		.thumb
 10995              		.thumb_func
 10997              	LL_EpochCtrl_GetBlobSize:
 10998              	.LFB4854:
2489:Lib/AI_Runtime/Npu/ll_aton/ll_aton.c **** 
2490:Lib/AI_Runtime/Npu/ll_aton/ll_aton.c **** /**
2491:Lib/AI_Runtime/Npu/ll_aton/ll_aton.c ****  * @brief  Returns the size of a blob
2492:Lib/AI_Runtime/Npu/ll_aton/ll_aton.c ****  * @param  eb_addr Pointer to blob
2493:Lib/AI_Runtime/Npu/ll_aton/ll_aton.c ****  * @retval Size in bytes of the blob
2494:Lib/AI_Runtime/Npu/ll_aton/ll_aton.c ****  */
2495:Lib/AI_Runtime/Npu/ll_aton/ll_aton.c **** unsigned int LL_EpochCtrl_GetBlobSize(uint32_t *eb_addr)
2496:Lib/AI_Runtime/Npu/ll_aton/ll_aton.c **** {
 10999              		.loc 1 2496 1
 11000              		.cfi_startproc
 11001              		@ args = 0, pretend = 0, frame = 16
 11002              		@ frame_needed = 1, uses_anonymous_args = 0
 11003              		@ link register save eliminated.
 11004 0000 80B4     		push	{r7}
 11005              		.cfi_def_cfa_offset 4
 11006              		.cfi_offset 7, -4
 11007 0002 85B0     		sub	sp, sp, #20
 11008              		.cfi_def_cfa_offset 24
 11009 0004 00AF     		add	r7, sp, #0
 11010              		.cfi_def_cfa_register 7
 11011 0006 7860     		str	r0, [r7, #4]
ARM GAS  /tmp/ccxZaNgH.s 			page 250


2497:Lib/AI_Runtime/Npu/ll_aton/ll_aton.c ****   unsigned bloblines = eb_addr[1] + 2;
 11012              		.loc 1 2497 31
 11013 0008 7B68     		ldr	r3, [r7, #4]
 11014 000a 0433     		adds	r3, r3, #4
 11015 000c 1B68     		ldr	r3, [r3]
 11016              		.loc 1 2497 12
 11017 000e 0233     		adds	r3, r3, #2
 11018 0010 FB60     		str	r3, [r7, #12]
2498:Lib/AI_Runtime/Npu/ll_aton/ll_aton.c ****   return bloblines * 4;
 11019              		.loc 1 2498 20
 11020 0012 FB68     		ldr	r3, [r7, #12]
 11021 0014 9B00     		lsls	r3, r3, #2
2499:Lib/AI_Runtime/Npu/ll_aton/ll_aton.c **** }
 11022              		.loc 1 2499 1
 11023 0016 1846     		mov	r0, r3
 11024 0018 1437     		adds	r7, r7, #20
 11025              		.cfi_def_cfa_offset 4
 11026 001a BD46     		mov	sp, r7
 11027              		.cfi_def_cfa_register 13
 11028              		@ sp needed
 11029 001c 5DF8047B 		ldr	r7, [sp], #4
 11030              		.cfi_restore 7
 11031              		.cfi_def_cfa_offset 0
 11032 0020 7047     		bx	lr
 11033              		.cfi_endproc
 11034              	.LFE4854:
 11036              		.section	.text.LL_ATON_EnableClock,"ax",%progbits
 11037              		.align	1
 11038              		.global	LL_ATON_EnableClock
 11039              		.syntax unified
 11040              		.thumb
 11041              		.thumb_func
 11043              	LL_ATON_EnableClock:
 11044              	.LFB4855:
2500:Lib/AI_Runtime/Npu/ll_aton/ll_aton.c **** #endif // ATON_EPOCHCTRL_NUM
2501:Lib/AI_Runtime/Npu/ll_aton/ll_aton.c **** 
2502:Lib/AI_Runtime/Npu/ll_aton/ll_aton.c **** void LL_ATON_EnableClock(unsigned int clock)
2503:Lib/AI_Runtime/Npu/ll_aton/ll_aton.c **** {
 11045              		.loc 1 2503 1
 11046              		.cfi_startproc
 11047              		@ args = 0, pretend = 0, frame = 16
 11048              		@ frame_needed = 1, uses_anonymous_args = 0
 11049              		@ link register save eliminated.
 11050 0000 90B4     		push	{r4, r7}
 11051              		.cfi_def_cfa_offset 8
 11052              		.cfi_offset 4, -8
 11053              		.cfi_offset 7, -4
 11054 0002 84B0     		sub	sp, sp, #16
 11055              		.cfi_def_cfa_offset 24
 11056 0004 00AF     		add	r7, sp, #0
 11057              		.cfi_def_cfa_register 7
 11058 0006 7860     		str	r0, [r7, #4]
 11059              	.LBB46:
2504:Lib/AI_Runtime/Npu/ll_aton/ll_aton.c **** #if (LL_ATON_ENABLE_CLOCK_GATING == 1)
2505:Lib/AI_Runtime/Npu/ll_aton/ll_aton.c ****   ATON_REG_WRITE_FIELD_RANGE(CLKCTRL, 0, BGATES, clock, 1, 1);
 11060              		.loc 1 2505 3
 11061 0008 134B     		ldr	r3, .L558
ARM GAS  /tmp/ccxZaNgH.s 			page 251


 11062 000a 1B68     		ldr	r3, [r3]
 11063 000c FB60     		str	r3, [r7, #12]
 11064 000e 4FF00102 		mov	r2, #1
 11065 0012 4FF00003 		mov	r3, #0
 11066 0016 7968     		ldr	r1, [r7, #4]
 11067 0018 52EA0D13 		lsll	r2, r3, r1
 11068 001c 1346     		mov	r3, r2
 11069 001e DA43     		mvns	r2, r3
 11070 0020 FB68     		ldr	r3, [r7, #12]
 11071 0022 02EA0301 		and	r1, r2, r3
 11072 0026 0122     		movs	r2, #1
 11073 0028 7B68     		ldr	r3, [r7, #4]
 11074 002a 02FA03F3 		lsl	r3, r2, r3
 11075 002e 1C46     		mov	r4, r3
 11076 0030 4FF00102 		mov	r2, #1
 11077 0034 4FF00003 		mov	r3, #0
 11078 0038 7868     		ldr	r0, [r7, #4]
 11079 003a 52EA0D03 		lsll	r2, r3, r0
 11080 003e 1346     		mov	r3, r2
 11081 0040 2340     		ands	r3, r3, r4
 11082 0042 0B43     		orrs	r3, r3, r1
 11083 0044 FB60     		str	r3, [r7, #12]
 11084 0046 044A     		ldr	r2, .L558
 11085 0048 FB68     		ldr	r3, [r7, #12]
 11086 004a 1360     		str	r3, [r2]
 11087              	.LBE46:
2506:Lib/AI_Runtime/Npu/ll_aton/ll_aton.c **** #endif
2507:Lib/AI_Runtime/Npu/ll_aton/ll_aton.c **** }
 11088              		.loc 1 2507 1
 11089 004c 00BF     		nop
 11090 004e 1037     		adds	r7, r7, #16
 11091              		.cfi_def_cfa_offset 8
 11092 0050 BD46     		mov	sp, r7
 11093              		.cfi_def_cfa_register 13
 11094              		@ sp needed
 11095 0052 90BC     		pop	{r4, r7}
 11096              		.cfi_restore 7
 11097              		.cfi_restore 4
 11098              		.cfi_def_cfa_offset 0
 11099 0054 7047     		bx	lr
 11100              	.L559:
 11101 0056 00BF     		.align	2
 11102              	.L558:
 11103 0058 10000E58 		.word	1477312528
 11104              		.cfi_endproc
 11105              	.LFE4855:
 11107              		.section	.text.LL_ATON_DisableClock,"ax",%progbits
 11108              		.align	1
 11109              		.global	LL_ATON_DisableClock
 11110              		.syntax unified
 11111              		.thumb
 11112              		.thumb_func
 11114              	LL_ATON_DisableClock:
 11115              	.LFB4856:
2508:Lib/AI_Runtime/Npu/ll_aton/ll_aton.c **** 
2509:Lib/AI_Runtime/Npu/ll_aton/ll_aton.c **** void LL_ATON_DisableClock(unsigned int clock)
2510:Lib/AI_Runtime/Npu/ll_aton/ll_aton.c **** {
ARM GAS  /tmp/ccxZaNgH.s 			page 252


 11116              		.loc 1 2510 1
 11117              		.cfi_startproc
 11118              		@ args = 0, pretend = 0, frame = 16
 11119              		@ frame_needed = 1, uses_anonymous_args = 0
 11120              		@ link register save eliminated.
 11121 0000 80B4     		push	{r7}
 11122              		.cfi_def_cfa_offset 4
 11123              		.cfi_offset 7, -4
 11124 0002 85B0     		sub	sp, sp, #20
 11125              		.cfi_def_cfa_offset 24
 11126 0004 00AF     		add	r7, sp, #0
 11127              		.cfi_def_cfa_register 7
 11128 0006 7860     		str	r0, [r7, #4]
 11129              	.LBB47:
2511:Lib/AI_Runtime/Npu/ll_aton/ll_aton.c **** #if (LL_ATON_ENABLE_CLOCK_GATING == 1)
2512:Lib/AI_Runtime/Npu/ll_aton/ll_aton.c ****   ATON_REG_WRITE_FIELD_RANGE(CLKCTRL, 0, BGATES, clock, 1, 0);
 11130              		.loc 1 2512 3
 11131 0008 0B4B     		ldr	r3, .L561
 11132 000a 1B68     		ldr	r3, [r3]
 11133 000c FB60     		str	r3, [r7, #12]
 11134 000e 4FF00102 		mov	r2, #1
 11135 0012 4FF00003 		mov	r3, #0
 11136 0016 7968     		ldr	r1, [r7, #4]
 11137 0018 52EA0D13 		lsll	r2, r3, r1
 11138 001c 1346     		mov	r3, r2
 11139 001e DB43     		mvns	r3, r3
 11140 0020 FA68     		ldr	r2, [r7, #12]
 11141 0022 1340     		ands	r3, r3, r2
 11142 0024 FB60     		str	r3, [r7, #12]
 11143 0026 044A     		ldr	r2, .L561
 11144 0028 FB68     		ldr	r3, [r7, #12]
 11145 002a 1360     		str	r3, [r2]
 11146              	.LBE47:
2513:Lib/AI_Runtime/Npu/ll_aton/ll_aton.c **** #endif
2514:Lib/AI_Runtime/Npu/ll_aton/ll_aton.c **** }
 11147              		.loc 1 2514 1
 11148 002c 00BF     		nop
 11149 002e 1437     		adds	r7, r7, #20
 11150              		.cfi_def_cfa_offset 4
 11151 0030 BD46     		mov	sp, r7
 11152              		.cfi_def_cfa_register 13
 11153              		@ sp needed
 11154 0032 5DF8047B 		ldr	r7, [sp], #4
 11155              		.cfi_restore 7
 11156              		.cfi_def_cfa_offset 0
 11157 0036 7047     		bx	lr
 11158              	.L562:
 11159              		.align	2
 11160              	.L561:
 11161 0038 10000E58 		.word	1477312528
 11162              		.cfi_endproc
 11163              	.LFE4856:
 11165              		.section	.text.LL_ATON_Dma_memcpy,"ax",%progbits
 11166              		.align	1
 11167              		.weak	LL_ATON_Dma_memcpy
 11168              		.syntax unified
 11169              		.thumb
ARM GAS  /tmp/ccxZaNgH.s 			page 253


 11170              		.thumb_func
 11172              	LL_ATON_Dma_memcpy:
 11173              	.LFB4857:
2515:Lib/AI_Runtime/Npu/ll_aton/ll_aton.c **** 
2516:Lib/AI_Runtime/Npu/ll_aton/ll_aton.c **** /**
2517:Lib/AI_Runtime/Npu/ll_aton/ll_aton.c ****  * @brief  DMA version of a memcpy functionality, this function could be overloaded if a system DMA
2518:Lib/AI_Runtime/Npu/ll_aton/ll_aton.c ****  * @param  dst destination memory address
2519:Lib/AI_Runtime/Npu/ll_aton/ll_aton.c ****  * @param  src source memory address
2520:Lib/AI_Runtime/Npu/ll_aton/ll_aton.c ****  * @param  src_limit memory pool end address of `src`
2521:Lib/AI_Runtime/Npu/ll_aton/ll_aton.c ****  * @param  n number of bytes to be transferred
2522:Lib/AI_Runtime/Npu/ll_aton/ll_aton.c ****  * @param dst_cached Destination under cache flag
2523:Lib/AI_Runtime/Npu/ll_aton/ll_aton.c ****  * @param dst_cached Source under cache flag
2524:Lib/AI_Runtime/Npu/ll_aton/ll_aton.c ****  * @retval Error code E.g.: Invalid ID, invalid parameters, not idle,..
2525:Lib/AI_Runtime/Npu/ll_aton/ll_aton.c ****  *
2526:Lib/AI_Runtime/Npu/ll_aton/ll_aton.c ****  * @note:  This function completely undermines any possibility for integrating correctly
2527:Lib/AI_Runtime/Npu/ll_aton/ll_aton.c ****  *         SW operators (or any other functionality which calls this function) in any of the three 
2528:Lib/AI_Runtime/Npu/ll_aton/ll_aton.c ****  * scheduling modes. In other words, function `LL_ATON_Dma_memcpy()` and its usage are incompatible
2529:Lib/AI_Runtime/Npu/ll_aton/ll_aton.c ****  * runtime. Therefore either `memcpy()` should be used in its place or calls to `LL_ATON_Dma_memcpy
2530:Lib/AI_Runtime/Npu/ll_aton/ll_aton.c ****  * transformed in a sequence of "epoch blocks" which can be integrated with the ATON runtime (as an
2531:Lib/AI_Runtime/Npu/ll_aton/ll_aton.c ****  * ATON-accelerated implementation of operator `Concat`)!
2532:Lib/AI_Runtime/Npu/ll_aton/ll_aton.c ****  */
2533:Lib/AI_Runtime/Npu/ll_aton/ll_aton.c **** /* N.B. assumes DMA0 and 1 are free to use */
2534:Lib/AI_Runtime/Npu/ll_aton/ll_aton.c **** #define MIN_BUFF_LEN 40
2535:Lib/AI_Runtime/Npu/ll_aton/ll_aton.c **** LL_ATON_WEAK void *LL_ATON_Dma_memcpy(void *dst, void *src, void *src_limit, size_t n, int dst_cach
2536:Lib/AI_Runtime/Npu/ll_aton/ll_aton.c **** {
 11174              		.loc 1 2536 1
 11175              		.cfi_startproc
 11176              		@ args = 8, pretend = 0, frame = 208
 11177              		@ frame_needed = 1, uses_anonymous_args = 0
 11178 0000 80B5     		push	{r7, lr}
 11179              		.cfi_def_cfa_offset 8
 11180              		.cfi_offset 7, -8
 11181              		.cfi_offset 14, -4
 11182 0002 B4B0     		sub	sp, sp, #208
 11183              		.cfi_def_cfa_offset 216
 11184 0004 00AF     		add	r7, sp, #0
 11185              		.cfi_def_cfa_register 7
 11186 0006 F860     		str	r0, [r7, #12]
 11187 0008 B960     		str	r1, [r7, #8]
 11188 000a 7A60     		str	r2, [r7, #4]
 11189 000c 3B60     		str	r3, [r7]
2537:Lib/AI_Runtime/Npu/ll_aton/ll_aton.c ****   uint8_t *_dst_orig = dst;
 11190              		.loc 1 2537 12
 11191 000e FB68     		ldr	r3, [r7, #12]
 11192 0010 C7F8BC30 		str	r3, [r7, #188]
2538:Lib/AI_Runtime/Npu/ll_aton/ll_aton.c **** 
2539:Lib/AI_Runtime/Npu/ll_aton/ll_aton.c ****   int prolog_len = (n % 3);
 11193              		.loc 1 2539 23
 11194 0014 3968     		ldr	r1, [r7]
 11195 0016 794B     		ldr	r3, .L572
 11196 0018 A3FB0123 		umull	r2, r3, r3, r1
 11197 001c 5A08     		lsrs	r2, r3, #1
 11198 001e 1346     		mov	r3, r2
 11199 0020 5B00     		lsls	r3, r3, #1
 11200 0022 1344     		add	r3, r3, r2
 11201 0024 CA1A     		subs	r2, r1, r3
 11202              		.loc 1 2539 7
ARM GAS  /tmp/ccxZaNgH.s 			page 254


 11203 0026 C7F8CC20 		str	r2, [r7, #204]
2540:Lib/AI_Runtime/Npu/ll_aton/ll_aton.c ****   int i;
2541:Lib/AI_Runtime/Npu/ll_aton/ll_aton.c ****   uint8_t *_dst = (uint8_t *)dst;
 11204              		.loc 1 2541 12
 11205 002a FB68     		ldr	r3, [r7, #12]
 11206 002c C7F8C430 		str	r3, [r7, #196]
2542:Lib/AI_Runtime/Npu/ll_aton/ll_aton.c ****   uint8_t *_src = (uint8_t *)src;
 11207              		.loc 1 2542 12
 11208 0030 BB68     		ldr	r3, [r7, #8]
 11209 0032 C7F8C030 		str	r3, [r7, #192]
2543:Lib/AI_Runtime/Npu/ll_aton/ll_aton.c **** 
2544:Lib/AI_Runtime/Npu/ll_aton/ll_aton.c ****   if (n < MIN_BUFF_LEN)
 11210              		.loc 1 2544 6
 11211 0036 3B68     		ldr	r3, [r7]
 11212 0038 272B     		cmp	r3, #39
 11213 003a 02D8     		bhi	.L564
2545:Lib/AI_Runtime/Npu/ll_aton/ll_aton.c ****     prolog_len = n; // not worth it ...
 11214              		.loc 1 2545 16
 11215 003c 3B68     		ldr	r3, [r7]
 11216 003e C7F8CC30 		str	r3, [r7, #204]
 11217              	.L564:
2546:Lib/AI_Runtime/Npu/ll_aton/ll_aton.c ****   // LL_ATON_PRINTF("n=%d prolog=%d\n",n,prolog_len);
2547:Lib/AI_Runtime/Npu/ll_aton/ll_aton.c **** 
2548:Lib/AI_Runtime/Npu/ll_aton/ll_aton.c ****   for (i = 0; i < prolog_len; i++)
 11218              		.loc 1 2548 10
 11219 0042 0023     		movs	r3, #0
 11220 0044 C7F8C830 		str	r3, [r7, #200]
 11221              		.loc 1 2548 3
 11222 0048 10E0     		b	.L565
 11223              	.L566:
2549:Lib/AI_Runtime/Npu/ll_aton/ll_aton.c ****     *_dst++ = *_src++;
 11224              		.loc 1 2549 20
 11225 004a D7F8C020 		ldr	r2, [r7, #192]
 11226 004e 531C     		adds	r3, r2, #1
 11227 0050 C7F8C030 		str	r3, [r7, #192]
 11228              		.loc 1 2549 10
 11229 0054 D7F8C430 		ldr	r3, [r7, #196]
 11230 0058 591C     		adds	r1, r3, #1
 11231 005a C7F8C410 		str	r1, [r7, #196]
 11232              		.loc 1 2549 15
 11233 005e 1278     		ldrb	r2, [r2]	@ zero_extendqisi2
 11234              		.loc 1 2549 13
 11235 0060 1A70     		strb	r2, [r3]
2548:Lib/AI_Runtime/Npu/ll_aton/ll_aton.c ****     *_dst++ = *_src++;
 11236              		.loc 1 2548 32 discriminator 3
 11237 0062 D7F8C830 		ldr	r3, [r7, #200]
 11238 0066 0133     		adds	r3, r3, #1
 11239 0068 C7F8C830 		str	r3, [r7, #200]
 11240              	.L565:
2548:Lib/AI_Runtime/Npu/ll_aton/ll_aton.c ****     *_dst++ = *_src++;
 11241              		.loc 1 2548 17 discriminator 1
 11242 006c D7F8C820 		ldr	r2, [r7, #200]
 11243 0070 D7F8CC30 		ldr	r3, [r7, #204]
 11244 0074 9A42     		cmp	r2, r3
 11245 0076 E8DB     		blt	.L566
2550:Lib/AI_Runtime/Npu/ll_aton/ll_aton.c ****   n -= prolog_len;
 11246              		.loc 1 2550 5
ARM GAS  /tmp/ccxZaNgH.s 			page 255


 11247 0078 D7F8CC30 		ldr	r3, [r7, #204]
 11248 007c 3A68     		ldr	r2, [r7]
 11249 007e D31A     		subs	r3, r2, r3
 11250 0080 3B60     		str	r3, [r7]
2551:Lib/AI_Runtime/Npu/ll_aton/ll_aton.c **** 
2552:Lib/AI_Runtime/Npu/ll_aton/ll_aton.c ****   if (prolog_len > 0)
 11251              		.loc 1 2552 6
 11252 0082 D7F8CC30 		ldr	r3, [r7, #204]
 11253 0086 002B     		cmp	r3, #0
 11254 0088 07DD     		ble	.L567
2553:Lib/AI_Runtime/Npu/ll_aton/ll_aton.c ****   {
2554:Lib/AI_Runtime/Npu/ll_aton/ll_aton.c ****     /* *** MCU cache clean & invalidate operation (SW) *** */
2555:Lib/AI_Runtime/Npu/ll_aton/ll_aton.c ****     LL_ATON_Cache_MCU_Clean_Invalidate_Range(ATON_LIB_PHYSICAL_TO_VIRTUAL_ADDR((uintptr_t)_dst_orig
 11255              		.loc 1 2555 5
 11256 008a D7F8BC30 		ldr	r3, [r7, #188]
 11257 008e D7F8CC20 		ldr	r2, [r7, #204]
 11258 0092 1146     		mov	r1, r2
 11259 0094 1846     		mov	r0, r3
 11260 0096 FFF7FEFF 		bl	LL_ATON_Cache_MCU_Clean_Invalidate_Range
 11261              	.L567:
2556:Lib/AI_Runtime/Npu/ll_aton/ll_aton.c ****   }
2557:Lib/AI_Runtime/Npu/ll_aton/ll_aton.c **** 
2558:Lib/AI_Runtime/Npu/ll_aton/ll_aton.c ****   if (n > 0)
 11262              		.loc 1 2558 6
 11263 009a 3B68     		ldr	r3, [r7]
 11264 009c 002B     		cmp	r3, #0
 11265 009e 00F0A780 		beq	.L568
 11266              	.LBB48:
2559:Lib/AI_Runtime/Npu/ll_aton/ll_aton.c ****   {
2560:Lib/AI_Runtime/Npu/ll_aton/ll_aton.c ****     LL_Streng_TensorInitTypeDef dma_in = {
 11267              		.loc 1 2560 33
 11268 00a2 07F11003 		add	r3, r7, #16
 11269 00a6 4822     		movs	r2, #72
 11270 00a8 0021     		movs	r1, #0
 11271 00aa 1846     		mov	r0, r3
 11272 00ac FFF7FEFF 		bl	memset
 11273 00b0 3B7C     		ldrb	r3, [r7, #16]
 11274 00b2 43F00203 		orr	r3, r3, #2
 11275 00b6 3B74     		strb	r3, [r7, #16]
 11276 00b8 D7F8C030 		ldr	r3, [r7, #192]
 11277 00bc 7B61     		str	r3, [r7, #20]
 11278 00be 3B68     		ldr	r3, [r7]
 11279 00c0 FB61     		str	r3, [r7, #28]
2561:Lib/AI_Runtime/Npu/ll_aton/ll_aton.c ****         .dir = 0,
2562:Lib/AI_Runtime/Npu/ll_aton/ll_aton.c ****         .addr_base = {_src},
2563:Lib/AI_Runtime/Npu/ll_aton/ll_aton.c ****         .offset_start = 0,
2564:Lib/AI_Runtime/Npu/ll_aton/ll_aton.c ****         .offset_end = n,
2565:Lib/AI_Runtime/Npu/ll_aton/ll_aton.c ****         .offset_limit = ((uintptr_t)src_limit - (uintptr_t)src), // awful FIXME Francesco
 11280              		.loc 1 2565 26
 11281 00c2 7A68     		ldr	r2, [r7, #4]
 11282              		.loc 1 2565 49
 11283 00c4 BB68     		ldr	r3, [r7, #8]
 11284              		.loc 1 2565 47
 11285 00c6 D31A     		subs	r3, r2, r3
2560:Lib/AI_Runtime/Npu/ll_aton/ll_aton.c ****         .dir = 0,
 11286              		.loc 1 2560 33
 11287 00c8 3B62     		str	r3, [r7, #32]
ARM GAS  /tmp/ccxZaNgH.s 			page 256


 11288 00ca 3B68     		ldr	r3, [r7]
 11289 00cc BB63     		str	r3, [r7, #56]
 11290 00ce 0123     		movs	r3, #1
 11291 00d0 3B65     		str	r3, [r7, #80]
 11292 00d2 1823     		movs	r3, #24
 11293 00d4 87F85430 		strb	r3, [r7, #84]
 11294 00d8 1823     		movs	r3, #24
 11295 00da 87F85530 		strb	r3, [r7, #85]
2566:Lib/AI_Runtime/Npu/ll_aton/ll_aton.c ****         .raw = 1,
2567:Lib/AI_Runtime/Npu/ll_aton/ll_aton.c ****         .frame_count = 0,
2568:Lib/AI_Runtime/Npu/ll_aton/ll_aton.c ****         .fwidth = 0,
2569:Lib/AI_Runtime/Npu/ll_aton/ll_aton.c ****         .fheight = 0,
2570:Lib/AI_Runtime/Npu/ll_aton/ll_aton.c ****         .batch_depth = 0,
2571:Lib/AI_Runtime/Npu/ll_aton/ll_aton.c ****         .batch_offset = 0,
2572:Lib/AI_Runtime/Npu/ll_aton/ll_aton.c ****         .frame_offset = n,
2573:Lib/AI_Runtime/Npu/ll_aton/ll_aton.c ****         .line_offset = 0,
2574:Lib/AI_Runtime/Npu/ll_aton/ll_aton.c ****         .loop_offset = 0,
2575:Lib/AI_Runtime/Npu/ll_aton/ll_aton.c ****         .frame_loop_cnt = 0,
2576:Lib/AI_Runtime/Npu/ll_aton/ll_aton.c ****         .frame_tot_cnt = 1,
2577:Lib/AI_Runtime/Npu/ll_aton/ll_aton.c ****         .nbits_in = 24,
2578:Lib/AI_Runtime/Npu/ll_aton/ll_aton.c ****         .nbits_out = 24,
2579:Lib/AI_Runtime/Npu/ll_aton/ll_aton.c ****         .nbits_unsigned = 0,
2580:Lib/AI_Runtime/Npu/ll_aton/ll_aton.c ****         .align_right = 0,
2581:Lib/AI_Runtime/Npu/ll_aton/ll_aton.c ****         .noblk = 0,
2582:Lib/AI_Runtime/Npu/ll_aton/ll_aton.c ****     };
2583:Lib/AI_Runtime/Npu/ll_aton/ll_aton.c **** 
2584:Lib/AI_Runtime/Npu/ll_aton/ll_aton.c ****     LL_Streng_TensorInitTypeDef dma_out = {
 11296              		.loc 1 2584 33
 11297 00de 07F15803 		add	r3, r7, #88
 11298 00e2 4822     		movs	r2, #72
 11299 00e4 0021     		movs	r1, #0
 11300 00e6 1846     		mov	r0, r3
 11301 00e8 FFF7FEFF 		bl	memset
 11302 00ec 97F85830 		ldrb	r3, [r7, #88]
 11303 00f0 43F00103 		orr	r3, r3, #1
 11304 00f4 87F85830 		strb	r3, [r7, #88]
 11305 00f8 97F85830 		ldrb	r3, [r7, #88]
 11306 00fc 43F00203 		orr	r3, r3, #2
 11307 0100 87F85830 		strb	r3, [r7, #88]
 11308 0104 D7F8C430 		ldr	r3, [r7, #196]
 11309 0108 FB65     		str	r3, [r7, #92]
 11310 010a 3B68     		ldr	r3, [r7]
 11311 010c 7B66     		str	r3, [r7, #100]
 11312 010e 3B68     		ldr	r3, [r7]
 11313 0110 C7F88030 		str	r3, [r7, #128]
 11314 0114 0123     		movs	r3, #1
 11315 0116 C7F89830 		str	r3, [r7, #152]
 11316 011a 1823     		movs	r3, #24
 11317 011c 87F89C30 		strb	r3, [r7, #156]
 11318 0120 1823     		movs	r3, #24
 11319 0122 87F89D30 		strb	r3, [r7, #157]
2585:Lib/AI_Runtime/Npu/ll_aton/ll_aton.c ****         .dir = 1,
2586:Lib/AI_Runtime/Npu/ll_aton/ll_aton.c ****         .addr_base = {_dst},
2587:Lib/AI_Runtime/Npu/ll_aton/ll_aton.c ****         .offset_start = 0,
2588:Lib/AI_Runtime/Npu/ll_aton/ll_aton.c ****         .offset_end = n,
2589:Lib/AI_Runtime/Npu/ll_aton/ll_aton.c ****         .raw = 1,
2590:Lib/AI_Runtime/Npu/ll_aton/ll_aton.c ****         .frame_count = 0,
ARM GAS  /tmp/ccxZaNgH.s 			page 257


2591:Lib/AI_Runtime/Npu/ll_aton/ll_aton.c ****         .fwidth = 0,
2592:Lib/AI_Runtime/Npu/ll_aton/ll_aton.c ****         .fheight = 0,
2593:Lib/AI_Runtime/Npu/ll_aton/ll_aton.c ****         .batch_depth = 0,
2594:Lib/AI_Runtime/Npu/ll_aton/ll_aton.c ****         .batch_offset = 0,
2595:Lib/AI_Runtime/Npu/ll_aton/ll_aton.c ****         .frame_offset = n,
2596:Lib/AI_Runtime/Npu/ll_aton/ll_aton.c ****         .line_offset = 0,
2597:Lib/AI_Runtime/Npu/ll_aton/ll_aton.c ****         .loop_offset = 0,
2598:Lib/AI_Runtime/Npu/ll_aton/ll_aton.c ****         .frame_loop_cnt = 0,
2599:Lib/AI_Runtime/Npu/ll_aton/ll_aton.c ****         .frame_tot_cnt = 1,
2600:Lib/AI_Runtime/Npu/ll_aton/ll_aton.c ****         .nbits_in = 24,
2601:Lib/AI_Runtime/Npu/ll_aton/ll_aton.c ****         .nbits_out = 24,
2602:Lib/AI_Runtime/Npu/ll_aton/ll_aton.c ****         .nbits_unsigned = 0,
2603:Lib/AI_Runtime/Npu/ll_aton/ll_aton.c ****         .align_right = 0,
2604:Lib/AI_Runtime/Npu/ll_aton/ll_aton.c ****         .noblk = 0,
2605:Lib/AI_Runtime/Npu/ll_aton/ll_aton.c ****     };
2606:Lib/AI_Runtime/Npu/ll_aton/ll_aton.c **** 
2607:Lib/AI_Runtime/Npu/ll_aton/ll_aton.c ****     if (src_cached)
 11320              		.loc 1 2607 8
 11321 0126 D7F8DC30 		ldr	r3, [r7, #220]
 11322 012a 002B     		cmp	r3, #0
 11323 012c 07D0     		beq	.L569
2608:Lib/AI_Runtime/Npu/ll_aton/ll_aton.c ****     {
2609:Lib/AI_Runtime/Npu/ll_aton/ll_aton.c ****       dma_in.cacheable = 1;
 11324              		.loc 1 2609 24
 11325 012e 7B7C     		ldrb	r3, [r7, #17]
 11326 0130 43F02003 		orr	r3, r3, #32
 11327 0134 7B74     		strb	r3, [r7, #17]
2610:Lib/AI_Runtime/Npu/ll_aton/ll_aton.c ****       dma_in.cache_allocate = 1;
 11328              		.loc 1 2610 29
 11329 0136 7B7C     		ldrb	r3, [r7, #17]
 11330 0138 43F04003 		orr	r3, r3, #64
 11331 013c 7B74     		strb	r3, [r7, #17]
 11332              	.L569:
2611:Lib/AI_Runtime/Npu/ll_aton/ll_aton.c ****     }
2612:Lib/AI_Runtime/Npu/ll_aton/ll_aton.c **** 
2613:Lib/AI_Runtime/Npu/ll_aton/ll_aton.c ****     if (dst_cached)
 11333              		.loc 1 2613 8
 11334 013e D7F8D830 		ldr	r3, [r7, #216]
 11335 0142 002B     		cmp	r3, #0
 11336 0144 0BD0     		beq	.L570
2614:Lib/AI_Runtime/Npu/ll_aton/ll_aton.c ****     {
2615:Lib/AI_Runtime/Npu/ll_aton/ll_aton.c ****       dma_out.cacheable = 1;
 11337              		.loc 1 2615 25
 11338 0146 97F85930 		ldrb	r3, [r7, #89]
 11339 014a 43F02003 		orr	r3, r3, #32
 11340 014e 87F85930 		strb	r3, [r7, #89]
2616:Lib/AI_Runtime/Npu/ll_aton/ll_aton.c ****       dma_out.cache_allocate = 1;
 11341              		.loc 1 2616 30
 11342 0152 97F85930 		ldrb	r3, [r7, #89]
 11343 0156 43F04003 		orr	r3, r3, #64
 11344 015a 87F85930 		strb	r3, [r7, #89]
 11345              	.L570:
2617:Lib/AI_Runtime/Npu/ll_aton/ll_aton.c ****     }
2618:Lib/AI_Runtime/Npu/ll_aton/ll_aton.c **** 
2619:Lib/AI_Runtime/Npu/ll_aton/ll_aton.c ****     const LL_Switch_InitTypeDef switch_init = {LL_Switch_Init_Dest() = ATONN_DSTPORT(STRSWITCH, 0, 
 11346              		.loc 1 2619 33
 11347 015e 07F1A803 		add	r3, r7, #168
ARM GAS  /tmp/ccxZaNgH.s 			page 258


 11348 0162 0022     		movs	r2, #0
 11349 0164 1A60     		str	r2, [r3]
 11350 0166 5A60     		str	r2, [r3, #4]
 11351 0168 9A60     		str	r2, [r3, #8]
 11352 016a DA60     		str	r2, [r3, #12]
 11353 016c 0C23     		movs	r3, #12
 11354 016e C7F8B030 		str	r3, [r7, #176]
 11355 0172 97F8B630 		ldrb	r3, [r7, #182]
 11356 0176 43F00103 		orr	r3, r3, #1
 11357 017a 87F8B630 		strb	r3, [r7, #182]
2620:Lib/AI_Runtime/Npu/ll_aton/ll_aton.c ****                                                LL_Switch_Init_Source(0) = ATONN_SRCPORT(STRSWITCH, 
2621:Lib/AI_Runtime/Npu/ll_aton/ll_aton.c ****                                                LL_Switch_Init_Context(0) = 1, LL_Switch_Init_Frames
2622:Lib/AI_Runtime/Npu/ll_aton/ll_aton.c ****     const LL_ATON_EnableUnits_InitTypeDef dma_units[] = {{{STRENG, 1}}, {{STRENG, 0}}};
 11358              		.loc 1 2622 43
 11359 017e 0023     		movs	r3, #0
 11360 0180 87F8A030 		strb	r3, [r7, #160]
 11361 0184 0123     		movs	r3, #1
 11362 0186 A7F8A230 		strh	r3, [r7, #162]	@ movhi
 11363 018a 0023     		movs	r3, #0
 11364 018c 87F8A430 		strb	r3, [r7, #164]
 11365 0190 0023     		movs	r3, #0
 11366 0192 A7F8A630 		strh	r3, [r7, #166]	@ movhi
2623:Lib/AI_Runtime/Npu/ll_aton/ll_aton.c ****     const uint32_t dma_wait_mask = 0x2;
 11367              		.loc 1 2623 20
 11368 0196 0223     		movs	r3, #2
 11369 0198 C7F8B830 		str	r3, [r7, #184]
2624:Lib/AI_Runtime/Npu/ll_aton/ll_aton.c **** 
2625:Lib/AI_Runtime/Npu/ll_aton/ll_aton.c ****     LL_Streng_TensorInit(0, &dma_in, 1);
 11370              		.loc 1 2625 5
 11371 019c 07F11003 		add	r3, r7, #16
 11372 01a0 0122     		movs	r2, #1
 11373 01a2 1946     		mov	r1, r3
 11374 01a4 0020     		movs	r0, #0
 11375 01a6 FFF7FEFF 		bl	LL_Streng_TensorInit
2626:Lib/AI_Runtime/Npu/ll_aton/ll_aton.c ****     LL_Streng_TensorInit(1, &dma_out, 1);
 11376              		.loc 1 2626 5
 11377 01aa 07F15803 		add	r3, r7, #88
 11378 01ae 0122     		movs	r2, #1
 11379 01b0 1946     		mov	r1, r3
 11380 01b2 0120     		movs	r0, #1
 11381 01b4 FFF7FEFF 		bl	LL_Streng_TensorInit
2627:Lib/AI_Runtime/Npu/ll_aton/ll_aton.c ****     LL_Switch_Init(&switch_init, 1);
 11382              		.loc 1 2627 5
 11383 01b8 07F1A803 		add	r3, r7, #168
 11384 01bc 0121     		movs	r1, #1
 11385 01be 1846     		mov	r0, r3
 11386 01c0 FFF7FEFF 		bl	LL_Switch_Init
2628:Lib/AI_Runtime/Npu/ll_aton/ll_aton.c ****     LL_ATON_EnableUnits_Init(dma_units, 2);
 11387              		.loc 1 2628 5
 11388 01c4 07F1A003 		add	r3, r7, #160
 11389 01c8 0221     		movs	r1, #2
 11390 01ca 1846     		mov	r0, r3
 11391 01cc FFF7FEFF 		bl	LL_ATON_EnableUnits_Init
2629:Lib/AI_Runtime/Npu/ll_aton/ll_aton.c ****     LL_Streng_Wait(dma_wait_mask);
 11392              		.loc 1 2629 5
 11393 01d0 D7F8B800 		ldr	r0, [r7, #184]
 11394 01d4 FFF7FEFF 		bl	LL_Streng_Wait
ARM GAS  /tmp/ccxZaNgH.s 			page 259


2630:Lib/AI_Runtime/Npu/ll_aton/ll_aton.c ****     LL_ATON_DisableUnits_Init(dma_units, 1);
 11395              		.loc 1 2630 5
 11396 01d8 07F1A003 		add	r3, r7, #160
 11397 01dc 0121     		movs	r1, #1
 11398 01de 1846     		mov	r0, r3
 11399 01e0 FFF7FEFF 		bl	LL_ATON_DisableUnits_Init
2631:Lib/AI_Runtime/Npu/ll_aton/ll_aton.c ****     LL_Switch_Deinit(&switch_init, 1);
 11400              		.loc 1 2631 5
 11401 01e4 07F1A803 		add	r3, r7, #168
 11402 01e8 0121     		movs	r1, #1
 11403 01ea 1846     		mov	r0, r3
 11404 01ec FFF7FEFF 		bl	LL_Switch_Deinit
 11405              	.L568:
 11406              	.LBE48:
2632:Lib/AI_Runtime/Npu/ll_aton/ll_aton.c ****   }
2633:Lib/AI_Runtime/Npu/ll_aton/ll_aton.c **** 
2634:Lib/AI_Runtime/Npu/ll_aton/ll_aton.c ****   return dst;
 11407              		.loc 1 2634 10
 11408 01f0 FB68     		ldr	r3, [r7, #12]
2635:Lib/AI_Runtime/Npu/ll_aton/ll_aton.c **** }
 11409              		.loc 1 2635 1
 11410 01f2 1846     		mov	r0, r3
 11411 01f4 D037     		adds	r7, r7, #208
 11412              		.cfi_def_cfa_offset 8
 11413 01f6 BD46     		mov	sp, r7
 11414              		.cfi_def_cfa_register 13
 11415              		@ sp needed
 11416 01f8 80BD     		pop	{r7, pc}
 11417              	.L573:
 11418 01fa 00BF     		.align	2
 11419              	.L572:
 11420 01fc ABAAAAAA 		.word	-1431655765
 11421              		.cfi_endproc
 11422              	.LFE4857:
 11424              		.section	.rodata.__func__.10,"a"
 11425              		.align	2
 11428              	__func__.10:
 11429 0000 4C4C5F41 		.ascii	"LL_ATON_Init\000"
 11429      544F4E5F 
 11429      496E6974 
 11429      00
 11430              		.section	.bss.done.9,"aw",%nobits
 11433              	done.9:
 11434 0000 00       		.space	1
 11435              		.section	.rodata.__func__.8,"a"
 11436              		.align	2
 11439              	__func__.8:
 11440 0000 6C6C5F61 		.ascii	"ll_aton_static_checks\000"
 11440      746F6E5F 
 11440      73746174 
 11440      69635F63 
 11440      6865636B 
 11441              		.section	.rodata.__func__.7,"a"
 11442              		.align	2
 11445              	__func__.7:
 11446 0000 4C4C5F53 		.ascii	"LL_Streng_Wait\000"
 11446      7472656E 
ARM GAS  /tmp/ccxZaNgH.s 			page 260


 11446      675F5761 
 11446      697400
 11447              		.section	.rodata.__func__.6,"a"
 11448              		.align	2
 11451              	__func__.6:
 11452 0000 5F5F6174 		.ascii	"__atonn_getSrcPortID\000"
 11452      6F6E6E5F 
 11452      67657453 
 11452      7263506F 
 11452      72744944 
 11453              		.section	.rodata.__func__.5,"a"
 11454              		.align	2
 11457              	__func__.5:
 11458 0000 5F5F6174 		.ascii	"__atonn_getDstPortID\000"
 11458      6F6E6E5F 
 11458      67657444 
 11458      7374506F 
 11458      72744944 
 11459              		.section	.rodata.__func__.4,"a"
 11460              		.align	2
 11463              	__func__.4:
 11464 0000 4C4C5F44 		.ascii	"LL_Decun_Init\000"
 11464      6563756E 
 11464      5F496E69 
 11464      7400
 11465              		.section	.rodata.__func__.3,"a"
 11466              		.align	2
 11469              	__func__.3:
 11470 0000 6765745F 		.ascii	"get_Activacc_type\000"
 11470      41637469 
 11470      76616363 
 11470      5F747970 
 11470      6500
 11471              		.section	.rodata.__func__.2,"a"
 11472              		.align	2
 11475              	__func__.2:
 11476 0000 6765745F 		.ascii	"get_Arithacc_type\000"
 11476      41726974 
 11476      68616363 
 11476      5F747970 
 11476      6500
 11477              		.section	.rodata.__func__.1,"a"
 11478              		.align	2
 11481              	__func__.1:
 11482 0000 6765745F 		.ascii	"get_Poolacc_type\000"
 11482      506F6F6C 
 11482      6163635F 
 11482      74797065 
 11482      00
 11483              		.section	.rodata.__func__.0,"a"
 11484              		.align	2
 11487              	__func__.0:
 11488 0000 4C4C5F45 		.ascii	"LL_EpochCtrl_Wait\000"
 11488      706F6368 
 11488      4374726C 
 11488      5F576169 
 11488      7400
ARM GAS  /tmp/ccxZaNgH.s 			page 261


 11489              		.text
 11490              	.Letext0:
 11491              		.file 4 "/home/tanjiajun2002/renesas/rzv/e2studio_v2025-01_fsp_v3.1.0/toolchains/gcc_arm/arm-gnu-t
 11492              		.file 5 "/home/tanjiajun2002/renesas/rzv/e2studio_v2025-01_fsp_v3.1.0/toolchains/gcc_arm/arm-gnu-t
 11493              		.file 6 "/home/tanjiajun2002/renesas/rzv/e2studio_v2025-01_fsp_v3.1.0/toolchains/gcc_arm/arm-gnu-t
 11494              		.file 7 "Lib/AI_Runtime/Npu/Devices/STM32N6XX/mcu_cache.h"
 11495              		.file 8 "Lib/AI_Runtime/Npu/ll_aton/ll_aton_util.h"
 11496              		.file 9 "/home/tanjiajun2002/renesas/rzv/e2studio_v2025-01_fsp_v3.1.0/toolchains/gcc_arm/arm-gnu-t
 11497              		.file 10 "/home/tanjiajun2002/renesas/rzv/e2studio_v2025-01_fsp_v3.1.0/toolchains/gcc_arm/arm-gnu-
 11498              		.file 11 "/home/tanjiajun2002/renesas/rzv/e2studio_v2025-01_fsp_v3.1.0/toolchains/gcc_arm/arm-gnu-
 11499              		.file 12 "/home/tanjiajun2002/renesas/rzv/e2studio_v2025-01_fsp_v3.1.0/toolchains/gcc_arm/arm-gnu-
ARM GAS  /tmp/ccxZaNgH.s 			page 262


DEFINED SYMBOLS
                            *ABS*:00000000 ll_aton.c
     /tmp/ccxZaNgH.s:26     .text.LL_Streng_len:00000000 $t
     /tmp/ccxZaNgH.s:31     .text.LL_Streng_len:00000000 LL_Streng_len
     /tmp/ccxZaNgH.s:70     .text.LL_ATON_Cache_MCU_Clean_Invalidate_Range:00000000 $t
     /tmp/ccxZaNgH.s:75     .text.LL_ATON_Cache_MCU_Clean_Invalidate_Range:00000000 LL_ATON_Cache_MCU_Clean_Invalidate_Range
     /tmp/ccxZaNgH.s:111    .bss.Conv_ctrl_bits:00000000 $d
     /tmp/ccxZaNgH.s:114    .bss.Conv_ctrl_bits:00000000 Conv_ctrl_bits
     /tmp/ccxZaNgH.s:117    .rodata:00000000 $d
     /tmp/ccxZaNgH.s:137    .text.ll_aton_static_checks:00000000 $t
     /tmp/ccxZaNgH.s:142    .text.ll_aton_static_checks:00000000 ll_aton_static_checks
     /tmp/ccxZaNgH.s:3797   .text.__atonn_getSrcPortID:00000000 __atonn_getSrcPortID
     /tmp/ccxZaNgH.s:4085   .text.__atonn_getDstPortID:00000000 __atonn_getDstPortID
     /tmp/ccxZaNgH.s:249    .text.ll_aton_static_checks:000000a4 $d
     /tmp/ccxZaNgH.s:11433  .bss.done.9:00000000 done.9
     /tmp/ccxZaNgH.s:11439  .rodata.__func__.8:00000000 __func__.8
     /tmp/ccxZaNgH.s:260    .text.LL_Address_Physical2Virtual:00000000 $t
     /tmp/ccxZaNgH.s:266    .text.LL_Address_Physical2Virtual:00000000 LL_Address_Physical2Virtual
     /tmp/ccxZaNgH.s:298    .text.LL_Address_Virtual2Physical:00000000 $t
     /tmp/ccxZaNgH.s:304    .text.LL_Address_Virtual2Physical:00000000 LL_Address_Virtual2Physical
     /tmp/ccxZaNgH.s:336    .text.startWatchdog:00000000 $t
     /tmp/ccxZaNgH.s:342    .text.startWatchdog:00000000 startWatchdog
     /tmp/ccxZaNgH.s:374    .text.checkWatchdog:00000000 $t
     /tmp/ccxZaNgH.s:380    .text.checkWatchdog:00000000 checkWatchdog
     /tmp/ccxZaNgH.s:455    .text.LL_ATON_Init:00000000 $t
     /tmp/ccxZaNgH.s:461    .text.LL_ATON_Init:00000000 LL_ATON_Init
     /tmp/ccxZaNgH.s:806    .text.LL_ATON_Init:00000268 $d
     /tmp/ccxZaNgH.s:11428  .rodata.__func__.10:00000000 __func__.10
     /tmp/ccxZaNgH.s:825    .text.LL_ATON_Init:000002ac $t
     /tmp/ccxZaNgH.s:1162   .text.LL_ATON_Init:00000528 $d
     /tmp/ccxZaNgH.s:1178   .text.LL_ATON_Init:00000560 $t
     /tmp/ccxZaNgH.s:1473   .text.LL_ATON_Init:00000778 $d
     /tmp/ccxZaNgH.s:1490   .text.LL_ATON_DeInit:00000000 $t
     /tmp/ccxZaNgH.s:1496   .text.LL_ATON_DeInit:00000000 LL_ATON_DeInit
     /tmp/ccxZaNgH.s:1569   .text.LL_ATON_DeInit:00000054 $d
     /tmp/ccxZaNgH.s:1578   .text.LL_ATON_EnableUnits_Init:00000000 $t
     /tmp/ccxZaNgH.s:1584   .text.LL_ATON_EnableUnits_Init:00000000 LL_ATON_EnableUnits_Init
     /tmp/ccxZaNgH.s:1631   .text.LL_ATON_EnableUnits_Init:0000003c $d
     /tmp/ccxZaNgH.s:1640   .text.LL_ATON_EnableUnits_Init:00000060 $t
     /tmp/ccxZaNgH.s:1810   .text.LL_ATON_EnableUnits_Init:0000017c $d
     /tmp/ccxZaNgH.s:1816   .text.LL_ATON_DisableUnits_Init:00000000 $t
     /tmp/ccxZaNgH.s:1822   .text.LL_ATON_DisableUnits_Init:00000000 LL_ATON_DisableUnits_Init
     /tmp/ccxZaNgH.s:1869   .text.LL_ATON_DisableUnits_Init:00000038 $d
     /tmp/ccxZaNgH.s:1878   .text.LL_ATON_DisableUnits_Init:0000005c $t
     /tmp/ccxZaNgH.s:11114  .text.LL_ATON_DisableClock:00000000 LL_ATON_DisableClock
     /tmp/ccxZaNgH.s:2297   .text.LL_ATON_DisableUnits_Init:00000388 $d
     /tmp/ccxZaNgH.s:2307   .text.LL_Streng_Wait:00000000 $t
     /tmp/ccxZaNgH.s:2313   .text.LL_Streng_Wait:00000000 LL_Streng_Wait
     /tmp/ccxZaNgH.s:2403   .text.LL_Streng_Wait:00000074 $d
     /tmp/ccxZaNgH.s:11445  .rodata.__func__.7:00000000 __func__.7
     /tmp/ccxZaNgH.s:2411   .text.LL_Streng_TensorInit:00000000 $t
     /tmp/ccxZaNgH.s:2417   .text.LL_Streng_TensorInit:00000000 LL_Streng_TensorInit
     /tmp/ccxZaNgH.s:11043  .text.LL_ATON_EnableClock:00000000 LL_ATON_EnableClock
     /tmp/ccxZaNgH.s:2679   .text.LL_Streng_TensorInit:000001b0 $d
     /tmp/ccxZaNgH.s:2683   .text.LL_Streng_TensorInit:000001c0 $t
     /tmp/ccxZaNgH.s:3127   .text.LL_Streng_TensorInit:00000434 $d
     /tmp/ccxZaNgH.s:3131   .text.LL_Streng_TensorInit:0000043c $t
ARM GAS  /tmp/ccxZaNgH.s 			page 263


     /tmp/ccxZaNgH.s:3497   .text.LL_Streng_TensorInit:000006b4 $d
     /tmp/ccxZaNgH.s:3514   .text.LL_Streng_ExtSyncInit:00000000 $t
     /tmp/ccxZaNgH.s:3520   .text.LL_Streng_ExtSyncInit:00000000 LL_Streng_ExtSyncInit
     /tmp/ccxZaNgH.s:3634   .text.LL_Streng_ExtSyncInit:000000a4 $d
     /tmp/ccxZaNgH.s:3640   .text.LL_TriggerHigh:00000000 $t
     /tmp/ccxZaNgH.s:3646   .text.LL_TriggerHigh:00000000 LL_TriggerHigh
     /tmp/ccxZaNgH.s:3713   .text.LL_TriggerHigh:0000004c $d
     /tmp/ccxZaNgH.s:3720   .text.LL_TriggerLow:00000000 $t
     /tmp/ccxZaNgH.s:3726   .text.LL_TriggerLow:00000000 LL_TriggerLow
     /tmp/ccxZaNgH.s:3770   .text.LL_TriggerLow:0000002c $d
     /tmp/ccxZaNgH.s:3791   .text.__atonn_getSrcPortID:00000000 $t
     /tmp/ccxZaNgH.s:3855   .text.__atonn_getSrcPortID:0000005c $d
     /tmp/ccxZaNgH.s:3862   .text.__atonn_getSrcPortID:00000078 $t
     /tmp/ccxZaNgH.s:4060   .text.__atonn_getSrcPortID:000001c0 $d
     /tmp/ccxZaNgH.s:11451  .rodata.__func__.6:00000000 __func__.6
     /tmp/ccxZaNgH.s:4079   .text.__atonn_getDstPortID:00000000 $t
     /tmp/ccxZaNgH.s:4143   .text.__atonn_getDstPortID:0000005c $d
     /tmp/ccxZaNgH.s:4150   .text.__atonn_getDstPortID:00000078 $t
     /tmp/ccxZaNgH.s:4378   .text.__atonn_getDstPortID:000001e4 $d
     /tmp/ccxZaNgH.s:11457  .rodata.__func__.5:00000000 __func__.5
     /tmp/ccxZaNgH.s:4405   .text.LL_Switch_Init_NoReset:00000000 $t
     /tmp/ccxZaNgH.s:4411   .text.LL_Switch_Init_NoReset:00000000 LL_Switch_Init_NoReset
     /tmp/ccxZaNgH.s:4626   .text.LL_Switch_Init_NoReset:0000014c $d
     /tmp/ccxZaNgH.s:4634   .text.LL_Switch_Init:00000000 $t
     /tmp/ccxZaNgH.s:4640   .text.LL_Switch_Init:00000000 LL_Switch_Init
     /tmp/ccxZaNgH.s:4707   .text.LL_Switch_Init:00000060 $d
     /tmp/ccxZaNgH.s:4712   .text.LL_Switch_Deinit:00000000 $t
     /tmp/ccxZaNgH.s:4718   .text.LL_Switch_Deinit:00000000 LL_Switch_Deinit
     /tmp/ccxZaNgH.s:4782   .text.LL_Switch_Deinit_Fine_Grained:00000000 $t
     /tmp/ccxZaNgH.s:4788   .text.LL_Switch_Deinit_Fine_Grained:00000000 LL_Switch_Deinit_Fine_Grained
     /tmp/ccxZaNgH.s:4915   .text.decun_inc_page_addr:00000000 $t
     /tmp/ccxZaNgH.s:4920   .text.decun_inc_page_addr:00000000 decun_inc_page_addr
     /tmp/ccxZaNgH.s:4980   .text.LL_Decun_CB_1byte:00000000 $t
     /tmp/ccxZaNgH.s:4985   .text.LL_Decun_CB_1byte:00000000 LL_Decun_CB_1byte
     /tmp/ccxZaNgH.s:5469   .text.LL_Decun_CB_1byte:00000294 $d
     /tmp/ccxZaNgH.s:5473   .text.LL_Decun_CB_1byte:00000298 $t
     /tmp/ccxZaNgH.s:5716   .text.LL_Decun_CB_1byte:000003fc $d
     /tmp/ccxZaNgH.s:5721   .text.LL_Decun_CB_2byte:00000000 $t
     /tmp/ccxZaNgH.s:5726   .text.LL_Decun_CB_2byte:00000000 LL_Decun_CB_2byte
     /tmp/ccxZaNgH.s:6114   .text.LL_Decun_CB_2byte:00000214 $d
     /tmp/ccxZaNgH.s:6119   .text.LL_Decun_CB_2byte:0000021c $t
     /tmp/ccxZaNgH.s:6546   .text.LL_Decun_CB_2byte:000004a0 $d
     /tmp/ccxZaNgH.s:6551   .text.LL_Decun_CB_2byte:000004a8 $t
     /tmp/ccxZaNgH.s:6633   .text.LL_Decun_CB_2byte:00000520 $d
     /tmp/ccxZaNgH.s:6644   .text.LL_Decun_Init:00000000 $t
     /tmp/ccxZaNgH.s:6650   .text.LL_Decun_Init:00000000 LL_Decun_Init
     /tmp/ccxZaNgH.s:6850   .text.LL_Decun_Init:00000144 $d
     /tmp/ccxZaNgH.s:11463  .rodata.__func__.4:00000000 __func__.4
     /tmp/ccxZaNgH.s:6860   .text.LL_Convacc_Init:00000000 $t
     /tmp/ccxZaNgH.s:6866   .text.LL_Convacc_Init:00000000 LL_Convacc_Init
     /tmp/ccxZaNgH.s:7482   .text.LL_Convacc_Init:00000468 $d
     /tmp/ccxZaNgH.s:7492   .text.LL_Convacc_Init:00000488 $t
     /tmp/ccxZaNgH.s:7965   .text.LL_Convacc_Init:00000770 $d
     /tmp/ccxZaNgH.s:7976   .text.get_Activacc_type:00000000 $t
     /tmp/ccxZaNgH.s:7981   .text.get_Activacc_type:00000000 get_Activacc_type
     /tmp/ccxZaNgH.s:8006   .text.get_Activacc_type:00000018 $d
     /tmp/ccxZaNgH.s:8010   .text.get_Activacc_type:00000028 $t
ARM GAS  /tmp/ccxZaNgH.s 			page 264


     /tmp/ccxZaNgH.s:8048   .text.get_Activacc_type:00000050 $d
     /tmp/ccxZaNgH.s:11469  .rodata.__func__.3:00000000 __func__.3
     /tmp/ccxZaNgH.s:8055   .text.LL_Activacc_Init:00000000 $t
     /tmp/ccxZaNgH.s:8061   .text.LL_Activacc_Init:00000000 LL_Activacc_Init
     /tmp/ccxZaNgH.s:8465   .text.LL_Activacc_Init:000002dc $d
     /tmp/ccxZaNgH.s:8472   .text.LL_Activacc_Init:000002f0 $t
     /tmp/ccxZaNgH.s:8645   .text.LL_Activacc_Init:00000400 $d
     /tmp/ccxZaNgH.s:8650   .text.get_Arithacc_type:00000000 $t
     /tmp/ccxZaNgH.s:8655   .text.get_Arithacc_type:00000000 get_Arithacc_type
     /tmp/ccxZaNgH.s:8680   .text.get_Arithacc_type:00000018 $d
     /tmp/ccxZaNgH.s:8696   .text.get_Arithacc_type:00000058 $t
     /tmp/ccxZaNgH.s:8782   .text.get_Arithacc_type:000000b0 $d
     /tmp/ccxZaNgH.s:11475  .rodata.__func__.2:00000000 __func__.2
     /tmp/ccxZaNgH.s:8789   .text.LL_Arithacc_Init:00000000 $t
     /tmp/ccxZaNgH.s:8795   .text.LL_Arithacc_Init:00000000 LL_Arithacc_Init
     /tmp/ccxZaNgH.s:9411   .text.LL_Arithacc_Init:00000468 $d
     /tmp/ccxZaNgH.s:9420   .text.LL_Arithacc_Init:0000047c $d
     /tmp/ccxZaNgH.s:9429   .text.LL_Arithacc_Init:00000498 $t
     /tmp/ccxZaNgH.s:9802   .text.LL_Arithacc_Init:00000728 $d
     /tmp/ccxZaNgH.s:9811   .text.LL_Arithacc_Init:00000744 $t
     /tmp/ccxZaNgH.s:10088  .text.LL_Arithacc_Init:000008f4 $d
     /tmp/ccxZaNgH.s:10093  .text.get_Poolacc_type:00000000 $t
     /tmp/ccxZaNgH.s:10098  .text.get_Poolacc_type:00000000 get_Poolacc_type
     /tmp/ccxZaNgH.s:10123  .text.get_Poolacc_type:00000018 $d
     /tmp/ccxZaNgH.s:10129  .text.get_Poolacc_type:00000030 $t
     /tmp/ccxZaNgH.s:10175  .text.get_Poolacc_type:00000060 $d
     /tmp/ccxZaNgH.s:11481  .rodata.__func__.1:00000000 __func__.1
     /tmp/ccxZaNgH.s:10182  .text.LL_Poolacc_Init:00000000 $t
     /tmp/ccxZaNgH.s:10188  .text.LL_Poolacc_Init:00000000 LL_Poolacc_Init
     /tmp/ccxZaNgH.s:10730  .text.LL_Poolacc_Init:00000400 $d
     /tmp/ccxZaNgH.s:10742  .text.LL_EpochCtrl_Init:00000000 $t
     /tmp/ccxZaNgH.s:10748  .text.LL_EpochCtrl_Init:00000000 LL_EpochCtrl_Init
     /tmp/ccxZaNgH.s:10828  .text.LL_EpochCtrl_Init:00000068 $d
     /tmp/ccxZaNgH.s:10834  .text.LL_EpochCtrl_Step:00000000 $t
     /tmp/ccxZaNgH.s:10840  .text.LL_EpochCtrl_Step:00000000 LL_EpochCtrl_Step
     /tmp/ccxZaNgH.s:10884  .text.LL_EpochCtrl_Step:0000002c $d
     /tmp/ccxZaNgH.s:10889  .text.LL_EpochCtrl_Wait:00000000 $t
     /tmp/ccxZaNgH.s:10895  .text.LL_EpochCtrl_Wait:00000000 LL_EpochCtrl_Wait
     /tmp/ccxZaNgH.s:10982  .text.LL_EpochCtrl_Wait:0000006c $d
     /tmp/ccxZaNgH.s:11487  .rodata.__func__.0:00000000 __func__.0
     /tmp/ccxZaNgH.s:10991  .text.LL_EpochCtrl_GetBlobSize:00000000 $t
     /tmp/ccxZaNgH.s:10997  .text.LL_EpochCtrl_GetBlobSize:00000000 LL_EpochCtrl_GetBlobSize
     /tmp/ccxZaNgH.s:11037  .text.LL_ATON_EnableClock:00000000 $t
     /tmp/ccxZaNgH.s:11103  .text.LL_ATON_EnableClock:00000058 $d
     /tmp/ccxZaNgH.s:11108  .text.LL_ATON_DisableClock:00000000 $t
     /tmp/ccxZaNgH.s:11161  .text.LL_ATON_DisableClock:00000038 $d
     /tmp/ccxZaNgH.s:11166  .text.LL_ATON_Dma_memcpy:00000000 $t
     /tmp/ccxZaNgH.s:11172  .text.LL_ATON_Dma_memcpy:00000000 LL_ATON_Dma_memcpy
     /tmp/ccxZaNgH.s:11420  .text.LL_ATON_Dma_memcpy:000001fc $d
     /tmp/ccxZaNgH.s:11425  .rodata.__func__.10:00000000 $d
     /tmp/ccxZaNgH.s:11434  .bss.done.9:00000000 $d
     /tmp/ccxZaNgH.s:11436  .rodata.__func__.8:00000000 $d
     /tmp/ccxZaNgH.s:11442  .rodata.__func__.7:00000000 $d
     /tmp/ccxZaNgH.s:11448  .rodata.__func__.6:00000000 $d
     /tmp/ccxZaNgH.s:11454  .rodata.__func__.5:00000000 $d
     /tmp/ccxZaNgH.s:11460  .rodata.__func__.4:00000000 $d
     /tmp/ccxZaNgH.s:11466  .rodata.__func__.3:00000000 $d
ARM GAS  /tmp/ccxZaNgH.s 			page 265


     /tmp/ccxZaNgH.s:11472  .rodata.__func__.2:00000000 $d
     /tmp/ccxZaNgH.s:11478  .rodata.__func__.1:00000000 $d
     /tmp/ccxZaNgH.s:11484  .rodata.__func__.0:00000000 $d
                           .group:00000000 wm4.0.2a10773746a5c5ebb5552f50e466f80b
                           .group:00000000 wm4._newlib_version.h.4.411db44ea2338a62eca2f0777f81481b
                           .group:00000000 wm4.newlib.h.27.4b972ceed5d01f491020c20f1e546cab
                           .group:00000000 wm4.ieeefp.h.77.bd5feb87d9990dd328793ced294f6a87
                           .group:00000000 wm4.features.h.22.9dfb1293666eb4caf24cccb81c86a551
                           .group:00000000 wm4.config.h.224.10ee1ad185d877c6e334e6581faab44d
                           .group:00000000 wm4._ansi.h.31.de524f58584151836e90d8620a16f8e8
                           .group:00000000 wm4.assert.h.11.db24e541f16414db224bf986d21017e2
                           .group:00000000 wm4._intsup.h.10.48bafbb683905c4daa4565a85aeeb264
                           .group:00000000 wm4._default_types.h.6.959254cf5f09734ea7516c89e8bb21bd
                           .group:00000000 wm4._stdint.h.10.c24fa3af3bc1706662bb5593a907e841
                           .group:00000000 wm4.stdint.h.23.d53047a68f4a85177f80b422d52785ed
                           .group:00000000 wm4.stddef.h.267.6dda48f8b0edf141523347999dd9ec79
                           .group:00000000 wm4.inttypes.h.28.684aa7736e7ecc9a6ffc44acc61c7a90
                           .group:00000000 wm4.stddef.h.39.9af043fe601e315768567300ad642a8e
                           .group:00000000 wm4.stdlib.h.13.4ed386f5c1a80d71e72172885d946ef2
                           .group:00000000 wm4.stddef.h.158.eec8bf00b5213f43d095cb984c5f22e3
                           .group:00000000 wm4.cdefs.h.49.70fc7af612f78ddcace70fdd90b5623b
                           .group:00000000 wm4._types.h.20.dd0d04dca3800a0d2a6129b87f3adbb2
                           .group:00000000 wm4.stddef.h.158.6f8e08a347b1cff664332fa350bfceb3
                           .group:00000000 wm4._types.h.127.3bdfe3ff8ea2d0985b03d9cbe93480e3
                           .group:00000000 wm4.reent.h.18.25503cdc8b7e55dd0d6ea7b3e5af7a03
                           .group:00000000 wm4.lock.h.2.1461d1fff82dffe8bfddc23307f6484f
                           .group:00000000 wm4.reent.h.78.6b87466b04591b1f1cb88c14fdf2ba9e
                           .group:00000000 wm4.alloca.h.8.dfc0c703c47ec3e69746825b17d9e66d
                           .group:00000000 wm4.stdlib.h.56.f4862cfbf4363a1db01842d5bdf72c18
                           .group:00000000 wm4.assert.h.11.d99a111e320bc5106fc4046225782672
                           .group:00000000 wm4.ll_aton_attributes.h.20.26d469460cb32db5740effdc8cc403f3
                           .group:00000000 wm4.ll_aton_config.h.20.79eb8be0291ee9086e6be08969d61846
                           .group:00000000 wm4.FreeRTOS.h.59.647b1b0da38e4e98108aae13c8abe9ee
                           .group:00000000 wm4.FreeRTOSConfig.h.59.2629c72cff9e6dbe880a2dc225eae516
                           .group:00000000 wm4.FreeRTOS.h.80.7742fabaf5accf3762dc12f7f259a8a0
                           .group:00000000 wm4.projdefs.h.30.55a824156f299c075c33148a9fdadb99
                           .group:00000000 wm4.portmacro.h.30.cbb4b2da41f551c2a9904f0d03a1ce3e
                           .group:00000000 wm4.portmacrocommon.h.30.d5cb67896ab50a95311be7e023da5c4f
                           .group:00000000 wm4.portmacro.h.68.4051ecf710d074fb55b16d91dfebeeaa
                           .group:00000000 wm4.portable.h.61.d557c57974d490f056246a26cdcddd6c
                           .group:00000000 wm4.mpu_wrappers.h.30.ccc5f1a6903f941a88c268f5f62af3fe
                           .group:00000000 wm4.portable.h.189.522b8bd52a171d3fd1432ef06d0caa63
                           .group:00000000 wm4.FreeRTOS.h.102.fb871f3e464d99c5a57b3115545a02ad
                           .group:00000000 wm4.list.h.59.bce6419520cd4f5f98779a1530bf2118
                           .group:00000000 wm4.task.h.56.84290139c73b47f5b9aac361361a2a31
                           .group:00000000 wm4.queue.h.68.219f47fba8b59640449b84d04c5bd6d8
                           .group:00000000 wm4.semphr.h.40.c1a9c6f5bf0feb4da0b6a45d234a79d0
                           .group:00000000 wm4.ll_aton_platform.h.20.06ded592ee586a6abb6019a90ebd54df
                           .group:00000000 wm4.stm32n6xx_hal_conf.h.21.004a06df6e15ac197e03f723792da58a
                           .group:00000000 wm4.arm_cmse.h.103.a0d15a79c4c9a67da8d5831704d7248e
                           .group:00000000 wm4.stm32n6xx.h.34.80585dd08aa426c932f6311fdb7386da
                           .group:00000000 wm4.stm32n657xx.h.26.acd272cb67318cc1a4791ce2f0720ca6
                           .group:00000000 wm4.cmsis_version.h.32.0ac195c83bb4537824e6ad1c47474b79
                           .group:00000000 wm4.core_cm55.h.68.832d5cf835639cc0d28219c3d2867330
                           .group:00000000 wm4.cmsis_gcc.h.26.7a5fd1a99dbedde687044a4433ab3e15
                           .group:00000000 wm4.core_cm55.h.196.52e437a270752da561676e507b35baeb
                           .group:00000000 wm4.mpu_armv8.h.32.9d72426c8e2b47753456dcb84802c5b3
ARM GAS  /tmp/ccxZaNgH.s 			page 266


                           .group:00000000 wm4.pmu_armv8.h.32.eaa95f88a71b29390b135fd81c071b6b
                           .group:00000000 wm4.core_cm55.h.4411.860dad8650880893dd57b815844f7186
                           .group:00000000 wm4.cachel1_armv7.h.32.abd77761a989e008b0c60891114a33c7
                           .group:00000000 wm4.stm32n657xx.h.575.1c2a5e6bedffc6f9083dcc857bc6d09d
                           .group:00000000 wm4.stm32n6xx.h.114.5cf793d8af485e14f110e3e24bde1aa5
                           .group:00000000 wm4.stm32_hal_legacy.h.22.87fb12bf5a1a1e00fc134f22bc9aa8c4
                           .group:00000000 wm4.math.h.13.47cfc34cae8a1153323939c4d32cf7c2
                           .group:00000000 wm4.stm32n6xx_hal_def.h.63.2cbbf1954826c09c874c4e06e42e8b71
                           .group:00000000 wm4.stm32n6xx_ll_bus.h.38.2366a295ee4cdb04833997d3787fcd2d
                           .group:00000000 wm4.stm32n6xx_ll_rcc.h.21.002e22a16fd7f67dde6dce41e8ba9620
                           .group:00000000 wm4.stm32n6xx_hal_rcc.h.194.1cb1283e40f9bebcd3fba2a9a961838e
                           .group:00000000 wm4.stm32n6xx_hal_rcc_ex.h.21.79aa32178dfef625fbd20d362449acfa
                           .group:00000000 wm4.stm32n6xx_hal_rcc.h.4359.3f0b7ad33826d95438602c9aebc08af9
                           .group:00000000 wm4.stm32n6xx_hal_gpio.h.21.89d54af663b98eb8fc098192053f7eeb
                           .group:00000000 wm4.stm32n6xx_hal_gpio_ex.h.22.4acb2e3511a98bb48b81cfc8e09fd59e
                           .group:00000000 wm4.stm32n6xx_hal_rif.h.21.424d0bafb874a777dee3742a22e13037
                           .group:00000000 wm4.stm32n6xx_hal_dma.h.21.61e48c5c2e8d25d22177834b232fe45c
                           .group:00000000 wm4.stm32n6xx_hal_dma_ex.h.21.66e597beb090a165329d6ccf665e41bc
                           .group:00000000 wm4.stm32n6xx_hal_dma.h.1020.87e2180c009560b617c1f8208140c950
                           .group:00000000 wm4.stm32n6xx_hal_cortex.h.21.f493623cc58f9454ab4eae41e395c5cc
                           .group:00000000 wm4.stm32n6xx_hal_bsec.h.21.61b309e67dd810e28897a01b1b21a97f
                           .group:00000000 wm4.stm32n6xx_hal_dcmipp.h.21.f538bfd785c6469670251ac9bc7af55d
                           .group:00000000 wm4.stm32n6xx_hal_dma2d.h.21.75c8d46cdbb72970123b3f34ae2043d7
                           .group:00000000 wm4.stm32n6xx_hal_exti.h.21.fda87e715ea6b98239ec30171d1df594
                           .group:00000000 wm4.stm32n6xx_hal_gfxmmu.h.21.9784a9103143d48bd3c37389d0e0b8e6
                           .group:00000000 wm4.stm32n6xx_hal_i2c.h.21.3f483626ff64c5bf027265bb2e1d1331
                           .group:00000000 wm4.stm32n6xx_hal_i2c_ex.h.21.79e9196c22282cdaf6b4047893638c45
                           .group:00000000 wm4.stm32n6xx_hal_i2c.h.741.1084702632703acc669e4282b3043372
                           .group:00000000 wm4.stm32n6xx_hal_icache.h.21.194b4ec6e76f32b14f65c85616854850
                           .group:00000000 wm4.stm32n6xx_hal_ltdc.h.21.ae1eb09930e7e550e48e418ac5849e4d
                           .group:00000000 wm4.stm32n6xx_hal_ltdc.h.1002.b13ede7fc94ed5ad1c6768a157d2149a
                           .group:00000000 wm4.stm32n6xx_ll_usb.h.21.d518a5d97876c2ff49040c20a2c4a120
                           .group:00000000 wm4.stm32n6xx_hal_pcd.h.155.27040aac6844effe2af8c180caf1dd2e
                           .group:00000000 wm4.stm32n6xx_hal_pwr.h.21.cdb73e4869c3fed3fc84f901ec0e5f0a
                           .group:00000000 wm4.stm32n6xx_hal_pwr_ex.h.21.1a673224a58b0c1e5fad8eeda6514208
                           .group:00000000 wm4.stm32n6xx_hal_ramcfg.h.21.a62dfbb4d2c14e9a8c634a215e37bd3d
                           .group:00000000 wm4.stm32n6xx_hal_spi.h.21.9f810303326e2d91749800e9911f8e4d
                           .group:00000000 wm4.stm32n6xx_hal_spi.h.906.93ec0695066db4253cdbcb7d84358a0b
                           .group:00000000 wm4.stm32n6xx_hal_tim.h.21.839dd2b2a70382fb2c44f8f293a84d5f
                           .group:00000000 wm4.stm32n6xx_hal_tim_ex.h.21.e372d5ac63c13441211ea4ecbd353150
                           .group:00000000 wm4.stm32n6xx_hal_uart.h.21.230f549bfa0d5ebfd77bfb311b2aca15
                           .group:00000000 wm4.stm32n6xx_hal_uart_ex.h.21.a0d5511e1d0703b7b5278c8f5472b96d
                           .group:00000000 wm4.stm32n6xx_hal_xspi.h.21.e17898be2073b6b6b19faf30b4e304e9
                           .group:00000000 wm4.stm32n6xx_hal_cacheaxi.h.21.7c3375b7903ec42376e4883320997f74
                           .group:00000000 wm4.stm32n6xx_hal_gpu2d.h.21.48d0249122abad294a630c39cc4ebaed
                           .group:00000000 wm4.stm32n6xx_hal.h.81.5e59143eba07faca3e9aeaa5470826c8
                           .group:00000000 wm4.ll_aton_platform.h.288.664a74b8c5792a861b3d52bd39f4a693
                           .group:00000000 wm4.stdbool.h.29.c08aa3eec75cf5b9b5003883f43253f0
                           .group:00000000 wm4.string.h.8.c4b8571ce60dff2817f43fec8b86aecd
                           .group:00000000 wm4.ATON.h.37.dcee5f05b79f32d0e17b499095b5b6b7
                           .group:00000000 wm4.ll_aton_rcompat.h.22.b2bd0d777466a5ac720f3b2429c5fea7
                           .group:00000000 wm4.ll_aton_platform.h.383.f09ccd502bb682b863f991d963ee7462
                           .group:00000000 wm4.ll_aton_osal_freertos.h.62.85a065f77def7f6fef26149f92fe1378
                           .group:00000000 wm4.ll_aton_osal.h.116.bc018513feb9b28713cf2afc78ec679b
                           .group:00000000 wm4.ll_aton.h.44.5685a802724af92628aa008d262f8f6e
                           .group:00000000 wm4.errno.h.2.ba016d646105af6cad23be83630b6a3f
                           .group:00000000 wm4.errno.h.9.ae5ea2b0ff9ea6e39e585807e35200d3
ARM GAS  /tmp/ccxZaNgH.s 			page 267


                           .group:00000000 wm4.stdio.h.27.3fc80220048df77954e38daec3bb9670
                           .group:00000000 wm4.stdarg.h.34.3a23a216c0c293b3d2ea2e89281481e6
                           .group:00000000 wm4.stdio.h.47.dc31ec4674d7bcb103c9f08809549f45
                           .group:00000000 wm4.stdio.h.2.4aa87247282eca6c8f36f9de33d8df1a
                           .group:00000000 wm4.stdio.h.87.a1e20d2651f9bfb66e51bfbe849db00a
                           .group:00000000 wm4.ll_aton_util.h.34.9098eaa90d3d72b819973556e3e5fe44

UNDEFINED SYMBOLS
mcu_cache_clean_invalidate_range
__assert_func
__errno
strerror
printf
LL_ATON_getbits
memset
