ARM GAS  /tmp/ccgnzMmM.s 			page 1


   1              		.arch armv8.1-m.main
   2              		.fpu fpv5-d16
   3              		.arch_extension dsp
   4              		.arch_extension fp
   5              		.arch_extension fp.dp
   6              		.arch_extension mve
   7              		.arch_extension mve.fp
   8              		.eabi_attribute 5, "cortex-m55"
   9              		.eabi_attribute 28, 1
  10              		.eabi_attribute 20, 1
  11              		.eabi_attribute 21, 1
  12              		.eabi_attribute 23, 3
  13              		.eabi_attribute 24, 1
  14              		.eabi_attribute 25, 1
  15              		.eabi_attribute 26, 1
  16              		.eabi_attribute 30, 6
  17              		.eabi_attribute 34, 1
  18              		.eabi_attribute 38, 1
  19              		.eabi_attribute 18, 4
  20              		.file	"ll_aton_lib_sw_operators.c"
  21              		.text
  22              	.Ltext0:
  23              		.cfi_sections	.debug_frame
  24              		.file 1 "Lib/AI_Runtime/Npu/ll_aton/ll_aton_lib_sw_operators.c"
  25              		.section	.text.LL_Buffer_addr_base,"ax",%progbits
  26              		.align	1
  27              		.syntax unified
  28              		.thumb
  29              		.thumb_func
  31              	LL_Buffer_addr_base:
  32              	.LFB4825:
  33              		.file 2 "Lib/AI_Runtime/Npu/ll_aton/ll_aton_NN_interface.h"
   1:Lib/AI_Runtime/Npu/ll_aton/ll_aton_NN_interface.h **** /**
   2:Lib/AI_Runtime/Npu/ll_aton/ll_aton_NN_interface.h ****  ******************************************************************************
   3:Lib/AI_Runtime/Npu/ll_aton/ll_aton_NN_interface.h ****  * @file    ll_aton_NN_interface.h
   4:Lib/AI_Runtime/Npu/ll_aton/ll_aton_NN_interface.h ****  * @author  SRA Artificial Intelligence & Embedded Architectures
   5:Lib/AI_Runtime/Npu/ll_aton/ll_aton_NN_interface.h ****  * @brief   Interface that defines a NN generated by the AtoNN Compiler.
   6:Lib/AI_Runtime/Npu/ll_aton/ll_aton_NN_interface.h ****  ******************************************************************************
   7:Lib/AI_Runtime/Npu/ll_aton/ll_aton_NN_interface.h ****  * @attention
   8:Lib/AI_Runtime/Npu/ll_aton/ll_aton_NN_interface.h ****  *
   9:Lib/AI_Runtime/Npu/ll_aton/ll_aton_NN_interface.h ****  * Copyright (c) 2024 STMicroelectronics.
  10:Lib/AI_Runtime/Npu/ll_aton/ll_aton_NN_interface.h ****  * All rights reserved.
  11:Lib/AI_Runtime/Npu/ll_aton/ll_aton_NN_interface.h ****  *
  12:Lib/AI_Runtime/Npu/ll_aton/ll_aton_NN_interface.h ****  * This software is licensed under terms that can be found in the LICENSE file
  13:Lib/AI_Runtime/Npu/ll_aton/ll_aton_NN_interface.h ****  * in the root directory of this software component.
  14:Lib/AI_Runtime/Npu/ll_aton/ll_aton_NN_interface.h ****  * If no LICENSE file comes with this software, it is provided AS-IS.
  15:Lib/AI_Runtime/Npu/ll_aton/ll_aton_NN_interface.h ****  *
  16:Lib/AI_Runtime/Npu/ll_aton/ll_aton_NN_interface.h ****  ******************************************************************************
  17:Lib/AI_Runtime/Npu/ll_aton/ll_aton_NN_interface.h ****  */
  18:Lib/AI_Runtime/Npu/ll_aton/ll_aton_NN_interface.h **** 
  19:Lib/AI_Runtime/Npu/ll_aton/ll_aton_NN_interface.h **** #ifndef __LL_ATON_NN_INTERFACE_H
  20:Lib/AI_Runtime/Npu/ll_aton/ll_aton_NN_interface.h **** #define __LL_ATON_NN_INTERFACE_H
  21:Lib/AI_Runtime/Npu/ll_aton/ll_aton_NN_interface.h **** 
  22:Lib/AI_Runtime/Npu/ll_aton/ll_aton_NN_interface.h **** #ifdef __cplusplus
  23:Lib/AI_Runtime/Npu/ll_aton/ll_aton_NN_interface.h **** extern "C"
  24:Lib/AI_Runtime/Npu/ll_aton/ll_aton_NN_interface.h **** {
  25:Lib/AI_Runtime/Npu/ll_aton/ll_aton_NN_interface.h **** #endif
ARM GAS  /tmp/ccgnzMmM.s 			page 2


  26:Lib/AI_Runtime/Npu/ll_aton/ll_aton_NN_interface.h **** 
  27:Lib/AI_Runtime/Npu/ll_aton/ll_aton_NN_interface.h **** #include <assert.h>
  28:Lib/AI_Runtime/Npu/ll_aton/ll_aton_NN_interface.h **** #include <stdbool.h>
  29:Lib/AI_Runtime/Npu/ll_aton/ll_aton_NN_interface.h **** #include <stddef.h>
  30:Lib/AI_Runtime/Npu/ll_aton/ll_aton_NN_interface.h **** #include <stdint.h>
  31:Lib/AI_Runtime/Npu/ll_aton/ll_aton_NN_interface.h **** 
  32:Lib/AI_Runtime/Npu/ll_aton/ll_aton_NN_interface.h **** #include "ll_aton_config.h"
  33:Lib/AI_Runtime/Npu/ll_aton/ll_aton_NN_interface.h **** 
  34:Lib/AI_Runtime/Npu/ll_aton/ll_aton_NN_interface.h **** #include "ll_aton_attributes.h"
  35:Lib/AI_Runtime/Npu/ll_aton/ll_aton_NN_interface.h **** #include "ll_aton_util.h"
  36:Lib/AI_Runtime/Npu/ll_aton/ll_aton_NN_interface.h **** 
  37:Lib/AI_Runtime/Npu/ll_aton/ll_aton_NN_interface.h ****   /** @defgroup User I/O Return Values & Callback Event Types
  38:Lib/AI_Runtime/Npu/ll_aton/ll_aton_NN_interface.h ****    * @{
  39:Lib/AI_Runtime/Npu/ll_aton/ll_aton_NN_interface.h ****    */
  40:Lib/AI_Runtime/Npu/ll_aton/ll_aton_NN_interface.h **** 
  41:Lib/AI_Runtime/Npu/ll_aton/ll_aton_NN_interface.h ****   typedef enum LL_ATON_User_IO_Result
  42:Lib/AI_Runtime/Npu/ll_aton/ll_aton_NN_interface.h ****   {
  43:Lib/AI_Runtime/Npu/ll_aton/ll_aton_NN_interface.h ****     LL_ATON_User_IO_NOERROR,     /**< */
  44:Lib/AI_Runtime/Npu/ll_aton/ll_aton_NN_interface.h ****     LL_ATON_User_IO_WRONG_ALIGN, /**< */
  45:Lib/AI_Runtime/Npu/ll_aton/ll_aton_NN_interface.h ****     LL_ATON_User_IO_WRONG_SIZE,  /**< */
  46:Lib/AI_Runtime/Npu/ll_aton/ll_aton_NN_interface.h ****     LL_ATON_User_IO_WRONG_INDEX, /**< */
  47:Lib/AI_Runtime/Npu/ll_aton/ll_aton_NN_interface.h ****   } LL_ATON_User_IO_Result_t;
  48:Lib/AI_Runtime/Npu/ll_aton/ll_aton_NN_interface.h **** 
  49:Lib/AI_Runtime/Npu/ll_aton/ll_aton_NN_interface.h ****   typedef enum LL_ATON_RT_Callbacktype
  50:Lib/AI_Runtime/Npu/ll_aton/ll_aton_NN_interface.h ****   {
  51:Lib/AI_Runtime/Npu/ll_aton/ll_aton_NN_interface.h ****     LL_ATON_RT_Callbacktype_PRE_START,  /**< Callback called before start_epoch_block */
  52:Lib/AI_Runtime/Npu/ll_aton/ll_aton_NN_interface.h ****     LL_ATON_RT_Callbacktype_POST_START, /**< Callback called after start_epoch_block */
  53:Lib/AI_Runtime/Npu/ll_aton/ll_aton_NN_interface.h ****     LL_ATON_RT_Callbacktype_PRE_END,    /**< Callback called before end_epoch_block */
  54:Lib/AI_Runtime/Npu/ll_aton/ll_aton_NN_interface.h ****     LL_ATON_RT_Callbacktype_POST_END,   /**< Callback called after end_epoch_block */
  55:Lib/AI_Runtime/Npu/ll_aton/ll_aton_NN_interface.h ****     LL_ATON_RT_Callbacktype_NN_Init,    /**< Callback called after `LL_ATON_RT_Init_Network`,
  56:Lib/AI_Runtime/Npu/ll_aton/ll_aton_NN_interface.h ****                                          *     NOTE: 3rd parameter passed is `NULL` */
  57:Lib/AI_Runtime/Npu/ll_aton/ll_aton_NN_interface.h ****     LL_ATON_RT_Callbacktype_NN_DeInit,  /**< Callback called after `LL_ATON_RT_DeInit_Network`,
  58:Lib/AI_Runtime/Npu/ll_aton/ll_aton_NN_interface.h ****                                          *     NOTE: 3rd parameter passed is `NULL` */
  59:Lib/AI_Runtime/Npu/ll_aton/ll_aton_NN_interface.h ****     LL_ATON_RT_Callbacktype_RT_Init,    /**< Callback called after `LL_ATON_RT_RuntimeInit` */
  60:Lib/AI_Runtime/Npu/ll_aton/ll_aton_NN_interface.h ****     LL_ATON_RT_Callbacktype_RT_Deinit,  /**< Callback called before `LL_ATON_RT_RuntimeDeInit` */
  61:Lib/AI_Runtime/Npu/ll_aton/ll_aton_NN_interface.h ****   } LL_ATON_RT_Callbacktype_t;
  62:Lib/AI_Runtime/Npu/ll_aton/ll_aton_NN_interface.h **** 
  63:Lib/AI_Runtime/Npu/ll_aton/ll_aton_NN_interface.h ****   /**
  64:Lib/AI_Runtime/Npu/ll_aton/ll_aton_NN_interface.h ****    * @}
  65:Lib/AI_Runtime/Npu/ll_aton/ll_aton_NN_interface.h ****    */
  66:Lib/AI_Runtime/Npu/ll_aton/ll_aton_NN_interface.h **** 
  67:Lib/AI_Runtime/Npu/ll_aton/ll_aton_NN_interface.h ****   /** @defgroup Handle-style Data Types for Epoch Blocks
  68:Lib/AI_Runtime/Npu/ll_aton/ll_aton_NN_interface.h ****    * @{
  69:Lib/AI_Runtime/Npu/ll_aton/ll_aton_NN_interface.h ****    */
  70:Lib/AI_Runtime/Npu/ll_aton/ll_aton_NN_interface.h **** 
  71:Lib/AI_Runtime/Npu/ll_aton/ll_aton_NN_interface.h ****   /* this is needed to avoid some compilers (e.g. KEIL) that observe a strict semantic about conver
  72:Lib/AI_Runtime/Npu/ll_aton/ll_aton_NN_interface.h ****    * pointers to integers in cost initializers
  73:Lib/AI_Runtime/Npu/ll_aton/ll_aton_NN_interface.h ****    */
  74:Lib/AI_Runtime/Npu/ll_aton/ll_aton_NN_interface.h ****   typedef union
  75:Lib/AI_Runtime/Npu/ll_aton/ll_aton_NN_interface.h ****   {
  76:Lib/AI_Runtime/Npu/ll_aton/ll_aton_NN_interface.h ****     unsigned char *p;
  77:Lib/AI_Runtime/Npu/ll_aton/ll_aton_NN_interface.h ****     uintptr_t i;
  78:Lib/AI_Runtime/Npu/ll_aton/ll_aton_NN_interface.h ****   } __LL_address_t;
  79:Lib/AI_Runtime/Npu/ll_aton/ll_aton_NN_interface.h **** 
  80:Lib/AI_Runtime/Npu/ll_aton/ll_aton_NN_interface.h ****   typedef void (*EpochBlock_FuncPtr_t)(const void *epoch_block);
  81:Lib/AI_Runtime/Npu/ll_aton/ll_aton_NN_interface.h **** 
  82:Lib/AI_Runtime/Npu/ll_aton/ll_aton_NN_interface.h ****   typedef enum
ARM GAS  /tmp/ccgnzMmM.s 			page 3


  83:Lib/AI_Runtime/Npu/ll_aton/ll_aton_NN_interface.h ****   {
  84:Lib/AI_Runtime/Npu/ll_aton/ll_aton_NN_interface.h ****     EpochBlock_Flags_NONE = 0x0,                 /**< */
  85:Lib/AI_Runtime/Npu/ll_aton/ll_aton_NN_interface.h ****     EpochBlock_Flags_epoch_start = (0x1 << 0),   /**< First EpochBlock of an Epoch */
  86:Lib/AI_Runtime/Npu/ll_aton/ll_aton_NN_interface.h ****     EpochBlock_Flags_epoch_end = (0x1 << 1),     /**< Last EpochBlock of an Epoch */
  87:Lib/AI_Runtime/Npu/ll_aton/ll_aton_NN_interface.h ****     EpochBlock_Flags_blob = (0x1 << 2),          /**< Item is an Epoch Blob */
  88:Lib/AI_Runtime/Npu/ll_aton/ll_aton_NN_interface.h ****     EpochBlock_Flags_last_eb = (0x1 << 3),       /**< Last EpochBlock */
  89:Lib/AI_Runtime/Npu/ll_aton/ll_aton_NN_interface.h ****     EpochBlock_Flags_pure_hw = (0x1 << 4),       /**< Pure HW EpochBlock */
  90:Lib/AI_Runtime/Npu/ll_aton/ll_aton_NN_interface.h ****     EpochBlock_Flags_pure_sw = (0x1 << 5),       /**< Pure SW EpochBlock */
  91:Lib/AI_Runtime/Npu/ll_aton/ll_aton_NN_interface.h ****     EpochBlock_Flags_hybrid = (0x1 << 6),        /**< Hybrid EpochBlock (i.e. mixed HW/SW) */
  92:Lib/AI_Runtime/Npu/ll_aton/ll_aton_NN_interface.h ****     EpochBlock_Flags_internal = (0x1 << 7),      /**< ATON lib internal EpochBlock (used to impleme
  93:Lib/AI_Runtime/Npu/ll_aton/ll_aton_NN_interface.h ****     EpochBlock_Flags_blob_encrypted = (0x1 << 8) /**< The blob is encrypted and must be decrypted o
  94:Lib/AI_Runtime/Npu/ll_aton/ll_aton_NN_interface.h ****   } EpochBlock_Flags_t;
  95:Lib/AI_Runtime/Npu/ll_aton/ll_aton_NN_interface.h **** 
  96:Lib/AI_Runtime/Npu/ll_aton/ll_aton_NN_interface.h ****   typedef struct
  97:Lib/AI_Runtime/Npu/ll_aton/ll_aton_NN_interface.h ****   {
  98:Lib/AI_Runtime/Npu/ll_aton/ll_aton_NN_interface.h ****     EpochBlock_FuncPtr_t start_epoch_block; /**< Method to execute the EpochBlock */
  99:Lib/AI_Runtime/Npu/ll_aton/ll_aton_NN_interface.h ****     EpochBlock_FuncPtr_t end_epoch_block;   /**< Method to be executed when the EpochBlock ends */
 100:Lib/AI_Runtime/Npu/ll_aton/ll_aton_NN_interface.h ****     uintptr_t blob_address;                 /**< Blob address (in case this EpochBlock represents a
 101:Lib/AI_Runtime/Npu/ll_aton/ll_aton_NN_interface.h ****     uint32_t wait_mask;                     /**< Mask needed to check when an EpochBlock ends
 102:Lib/AI_Runtime/Npu/ll_aton/ll_aton_NN_interface.h ****                                              *    - if epoch blob: number (not bitmask) of epoch co
 103:Lib/AI_Runtime/Npu/ll_aton/ll_aton_NN_interface.h ****                                              *    - otherwise: bitmask with all output streaming en
 104:Lib/AI_Runtime/Npu/ll_aton/ll_aton_NN_interface.h ****     uint16_t flags;                         /**< EpochBlock flags */
 105:Lib/AI_Runtime/Npu/ll_aton/ll_aton_NN_interface.h **** #ifdef LL_ATON_EB_DBG_INFO
 106:Lib/AI_Runtime/Npu/ll_aton/ll_aton_NN_interface.h ****     int16_t epoch_num;             /**< Epoch number / First epoch number within blob */
 107:Lib/AI_Runtime/Npu/ll_aton/ll_aton_NN_interface.h ****     int16_t last_epoch_num;        /**< Epoch number / Last epoch number within blob */
 108:Lib/AI_Runtime/Npu/ll_aton/ll_aton_NN_interface.h ****     uint32_t in_streng_mask;       /**< Debug information about input streaming engines used in epo
 109:Lib/AI_Runtime/Npu/ll_aton/ll_aton_NN_interface.h ****     uint32_t out_streng_mask;      /**< Debug information about output streaming engines used in ep
 110:Lib/AI_Runtime/Npu/ll_aton/ll_aton_NN_interface.h ****     uint64_t estimated_npu_cycles; /**< Debug information estimates for NPU cycles in epoch w/o mem
 111:Lib/AI_Runtime/Npu/ll_aton/ll_aton_NN_interface.h ****     uint64_t estimated_tot_cycles; /**< Debug information estimates for NPU cycles in epoch w/ memo
 112:Lib/AI_Runtime/Npu/ll_aton/ll_aton_NN_interface.h **** #endif                             // LL_ATON_EB_DBG_INFO
 113:Lib/AI_Runtime/Npu/ll_aton/ll_aton_NN_interface.h ****   } EpochBlock_ItemTypeDef;
 114:Lib/AI_Runtime/Npu/ll_aton/ll_aton_NN_interface.h ****   typedef EpochBlock_ItemTypeDef LL_ATON_RT_EpochBlockItem_t;
 115:Lib/AI_Runtime/Npu/ll_aton/ll_aton_NN_interface.h **** 
 116:Lib/AI_Runtime/Npu/ll_aton/ll_aton_NN_interface.h ****   /**
 117:Lib/AI_Runtime/Npu/ll_aton/ll_aton_NN_interface.h ****    * @}
 118:Lib/AI_Runtime/Npu/ll_aton/ll_aton_NN_interface.h ****    */
 119:Lib/AI_Runtime/Npu/ll_aton/ll_aton_NN_interface.h **** 
 120:Lib/AI_Runtime/Npu/ll_aton/ll_aton_NN_interface.h ****   /** @defgroup Helper Function Declarations for User Callbacks
 121:Lib/AI_Runtime/Npu/ll_aton/ll_aton_NN_interface.h ****    * @{
 122:Lib/AI_Runtime/Npu/ll_aton/ll_aton_NN_interface.h ****    */
 123:Lib/AI_Runtime/Npu/ll_aton/ll_aton_NN_interface.h **** 
 124:Lib/AI_Runtime/Npu/ll_aton/ll_aton_NN_interface.h ****   /**
 125:Lib/AI_Runtime/Npu/ll_aton/ll_aton_NN_interface.h ****    * @brief Checks if the pointed element is the last one of an array of `const EpochBlock_ItemType
 126:Lib/AI_Runtime/Npu/ll_aton/ll_aton_NN_interface.h ****    *
 127:Lib/AI_Runtime/Npu/ll_aton/ll_aton_NN_interface.h ****    */
 128:Lib/AI_Runtime/Npu/ll_aton/ll_aton_NN_interface.h ****   static inline bool EpochBlock_IsLastEpochBlock(const EpochBlock_ItemTypeDef *eb);
 129:Lib/AI_Runtime/Npu/ll_aton/ll_aton_NN_interface.h **** 
 130:Lib/AI_Runtime/Npu/ll_aton/ll_aton_NN_interface.h ****   /**
 131:Lib/AI_Runtime/Npu/ll_aton/ll_aton_NN_interface.h ****    * @brief Checks if the pointed element is the first EpochBlock of an Epoch
 132:Lib/AI_Runtime/Npu/ll_aton/ll_aton_NN_interface.h ****    *
 133:Lib/AI_Runtime/Npu/ll_aton/ll_aton_NN_interface.h ****    */
 134:Lib/AI_Runtime/Npu/ll_aton/ll_aton_NN_interface.h ****   static inline bool EpochBlock_IsEpochStart(const EpochBlock_ItemTypeDef *eb);
 135:Lib/AI_Runtime/Npu/ll_aton/ll_aton_NN_interface.h **** 
 136:Lib/AI_Runtime/Npu/ll_aton/ll_aton_NN_interface.h ****   /**
 137:Lib/AI_Runtime/Npu/ll_aton/ll_aton_NN_interface.h ****    * @brief Checks if the pointed element is the last EpochBlock of an Epoch
 138:Lib/AI_Runtime/Npu/ll_aton/ll_aton_NN_interface.h ****    *
 139:Lib/AI_Runtime/Npu/ll_aton/ll_aton_NN_interface.h ****    */
ARM GAS  /tmp/ccgnzMmM.s 			page 4


 140:Lib/AI_Runtime/Npu/ll_aton/ll_aton_NN_interface.h ****   static inline bool EpochBlock_IsEpochEnd(const EpochBlock_ItemTypeDef *eb);
 141:Lib/AI_Runtime/Npu/ll_aton/ll_aton_NN_interface.h **** 
 142:Lib/AI_Runtime/Npu/ll_aton/ll_aton_NN_interface.h ****   /**
 143:Lib/AI_Runtime/Npu/ll_aton/ll_aton_NN_interface.h ****    * @brief Checks if the pointed element is the an Epoch Blob
 144:Lib/AI_Runtime/Npu/ll_aton/ll_aton_NN_interface.h ****    *
 145:Lib/AI_Runtime/Npu/ll_aton/ll_aton_NN_interface.h ****    */
 146:Lib/AI_Runtime/Npu/ll_aton/ll_aton_NN_interface.h ****   static inline bool EpochBlock_IsEpochBlob(const EpochBlock_ItemTypeDef *eb);
 147:Lib/AI_Runtime/Npu/ll_aton/ll_aton_NN_interface.h **** 
 148:Lib/AI_Runtime/Npu/ll_aton/ll_aton_NN_interface.h ****   /**
 149:Lib/AI_Runtime/Npu/ll_aton/ll_aton_NN_interface.h ****    * @brief Checks if - in case this epoch is a blob (see above) - the blob is encrypted
 150:Lib/AI_Runtime/Npu/ll_aton/ll_aton_NN_interface.h ****    *
 151:Lib/AI_Runtime/Npu/ll_aton/ll_aton_NN_interface.h ****    */
 152:Lib/AI_Runtime/Npu/ll_aton/ll_aton_NN_interface.h ****   static inline bool EpochBlock_IsBlobEncrypted(const EpochBlock_ItemTypeDef *eb);
 153:Lib/AI_Runtime/Npu/ll_aton/ll_aton_NN_interface.h **** 
 154:Lib/AI_Runtime/Npu/ll_aton/ll_aton_NN_interface.h ****   /**
 155:Lib/AI_Runtime/Npu/ll_aton/ll_aton_NN_interface.h ****    * @brief Checks if the pointed element is pure SW epoch
 156:Lib/AI_Runtime/Npu/ll_aton/ll_aton_NN_interface.h ****    *
 157:Lib/AI_Runtime/Npu/ll_aton/ll_aton_NN_interface.h ****    */
 158:Lib/AI_Runtime/Npu/ll_aton/ll_aton_NN_interface.h ****   static inline bool EpochBlock_IsEpochPureSW(const EpochBlock_ItemTypeDef *eb);
 159:Lib/AI_Runtime/Npu/ll_aton/ll_aton_NN_interface.h **** 
 160:Lib/AI_Runtime/Npu/ll_aton/ll_aton_NN_interface.h ****   /**
 161:Lib/AI_Runtime/Npu/ll_aton/ll_aton_NN_interface.h ****    * @brief Checks if the pointed element is a pure HW or mixed SW/HW epoch
 162:Lib/AI_Runtime/Npu/ll_aton/ll_aton_NN_interface.h ****    *
 163:Lib/AI_Runtime/Npu/ll_aton/ll_aton_NN_interface.h ****    */
 164:Lib/AI_Runtime/Npu/ll_aton/ll_aton_NN_interface.h ****   static inline bool EpochBlock_IsEpochPureHW(const EpochBlock_ItemTypeDef *eb);
 165:Lib/AI_Runtime/Npu/ll_aton/ll_aton_NN_interface.h **** 
 166:Lib/AI_Runtime/Npu/ll_aton/ll_aton_NN_interface.h ****   /**
 167:Lib/AI_Runtime/Npu/ll_aton/ll_aton_NN_interface.h ****    * @brief Checks if the pointed element is a hybrid epoch
 168:Lib/AI_Runtime/Npu/ll_aton/ll_aton_NN_interface.h ****    *
 169:Lib/AI_Runtime/Npu/ll_aton/ll_aton_NN_interface.h ****    */
 170:Lib/AI_Runtime/Npu/ll_aton/ll_aton_NN_interface.h ****   static inline bool EpochBlock_IsEpochHybrid(const EpochBlock_ItemTypeDef *eb);
 171:Lib/AI_Runtime/Npu/ll_aton/ll_aton_NN_interface.h **** 
 172:Lib/AI_Runtime/Npu/ll_aton/ll_aton_NN_interface.h ****   /**
 173:Lib/AI_Runtime/Npu/ll_aton/ll_aton_NN_interface.h ****    * @brief Checks if the pointed element is an internal epoch
 174:Lib/AI_Runtime/Npu/ll_aton/ll_aton_NN_interface.h ****    *
 175:Lib/AI_Runtime/Npu/ll_aton/ll_aton_NN_interface.h ****    */
 176:Lib/AI_Runtime/Npu/ll_aton/ll_aton_NN_interface.h ****   static inline bool EpochBlock_IsEpochInternal(const EpochBlock_ItemTypeDef *eb);
 177:Lib/AI_Runtime/Npu/ll_aton/ll_aton_NN_interface.h **** 
 178:Lib/AI_Runtime/Npu/ll_aton/ll_aton_NN_interface.h ****   /**
 179:Lib/AI_Runtime/Npu/ll_aton/ll_aton_NN_interface.h ****    * @brief Returns the Epoch controller id to use
 180:Lib/AI_Runtime/Npu/ll_aton/ll_aton_NN_interface.h ****    *
 181:Lib/AI_Runtime/Npu/ll_aton/ll_aton_NN_interface.h ****    */
 182:Lib/AI_Runtime/Npu/ll_aton/ll_aton_NN_interface.h ****   static inline uint32_t EpochBlock_EpochControllerUnit(const EpochBlock_ItemTypeDef *eb);
 183:Lib/AI_Runtime/Npu/ll_aton/ll_aton_NN_interface.h **** 
 184:Lib/AI_Runtime/Npu/ll_aton/ll_aton_NN_interface.h ****   /**
 185:Lib/AI_Runtime/Npu/ll_aton/ll_aton_NN_interface.h ****    * @brief Returns the address of the configuration of the epoch controller (the blob address)
 186:Lib/AI_Runtime/Npu/ll_aton/ll_aton_NN_interface.h ****    *
 187:Lib/AI_Runtime/Npu/ll_aton/ll_aton_NN_interface.h ****    */
 188:Lib/AI_Runtime/Npu/ll_aton/ll_aton_NN_interface.h ****   static inline uintptr_t EpochBlock_EpochBlobAddr(const EpochBlock_ItemTypeDef *eb);
 189:Lib/AI_Runtime/Npu/ll_aton/ll_aton_NN_interface.h **** 
 190:Lib/AI_Runtime/Npu/ll_aton/ll_aton_NN_interface.h ****   /**
 191:Lib/AI_Runtime/Npu/ll_aton/ll_aton_NN_interface.h ****    * @brief ATON buffer types definition
 192:Lib/AI_Runtime/Npu/ll_aton/ll_aton_NN_interface.h ****    */
 193:Lib/AI_Runtime/Npu/ll_aton/ll_aton_NN_interface.h **** 
 194:Lib/AI_Runtime/Npu/ll_aton/ll_aton_NN_interface.h ****   /**
 195:Lib/AI_Runtime/Npu/ll_aton/ll_aton_NN_interface.h ****    * @}
 196:Lib/AI_Runtime/Npu/ll_aton/ll_aton_NN_interface.h ****    */
ARM GAS  /tmp/ccgnzMmM.s 			page 5


 197:Lib/AI_Runtime/Npu/ll_aton/ll_aton_NN_interface.h **** 
 198:Lib/AI_Runtime/Npu/ll_aton/ll_aton_NN_interface.h ****   /** @defgroup Handle-style Data Types for Input, Output, and Internal Buffers
 199:Lib/AI_Runtime/Npu/ll_aton/ll_aton_NN_interface.h ****    * @{
 200:Lib/AI_Runtime/Npu/ll_aton/ll_aton_NN_interface.h ****    */
 201:Lib/AI_Runtime/Npu/ll_aton/ll_aton_NN_interface.h **** 
 202:Lib/AI_Runtime/Npu/ll_aton/ll_aton_NN_interface.h ****   typedef enum
 203:Lib/AI_Runtime/Npu/ll_aton/ll_aton_NN_interface.h ****   {
 204:Lib/AI_Runtime/Npu/ll_aton/ll_aton_NN_interface.h ****     DataType_UNDEFINED = 0,
 205:Lib/AI_Runtime/Npu/ll_aton/ll_aton_NN_interface.h ****     DataType_FLOAT = 1,
 206:Lib/AI_Runtime/Npu/ll_aton/ll_aton_NN_interface.h ****     DataType_UINT2 = 2,
 207:Lib/AI_Runtime/Npu/ll_aton/ll_aton_NN_interface.h ****     DataType_INT2 = 3,
 208:Lib/AI_Runtime/Npu/ll_aton/ll_aton_NN_interface.h ****     DataType_UINT4 = 4,
 209:Lib/AI_Runtime/Npu/ll_aton/ll_aton_NN_interface.h ****     DataType_INT4 = 5,
 210:Lib/AI_Runtime/Npu/ll_aton/ll_aton_NN_interface.h ****     DataType_UINT8 = 6,
 211:Lib/AI_Runtime/Npu/ll_aton/ll_aton_NN_interface.h ****     DataType_INT8 = 7,
 212:Lib/AI_Runtime/Npu/ll_aton/ll_aton_NN_interface.h ****     DataType_UINT16 = 8,
 213:Lib/AI_Runtime/Npu/ll_aton/ll_aton_NN_interface.h ****     DataType_INT16 = 9,
 214:Lib/AI_Runtime/Npu/ll_aton/ll_aton_NN_interface.h ****     DataType_INT32 = 10,
 215:Lib/AI_Runtime/Npu/ll_aton/ll_aton_NN_interface.h ****     DataType_INT64 = 11,
 216:Lib/AI_Runtime/Npu/ll_aton/ll_aton_NN_interface.h ****     DataType_STRING = 12,
 217:Lib/AI_Runtime/Npu/ll_aton/ll_aton_NN_interface.h ****     DataType_BOOL = 13,
 218:Lib/AI_Runtime/Npu/ll_aton/ll_aton_NN_interface.h ****     DataType_FLOAT16 = 14,
 219:Lib/AI_Runtime/Npu/ll_aton/ll_aton_NN_interface.h ****     DataType_DOUBLE = 15,
 220:Lib/AI_Runtime/Npu/ll_aton/ll_aton_NN_interface.h ****     DataType_UINT32 = 16,
 221:Lib/AI_Runtime/Npu/ll_aton/ll_aton_NN_interface.h ****     DataType_UINT64 = 17,
 222:Lib/AI_Runtime/Npu/ll_aton/ll_aton_NN_interface.h ****     DataType_COMPLEX64 = 18,
 223:Lib/AI_Runtime/Npu/ll_aton/ll_aton_NN_interface.h ****     DataType_COMPLEX128 = 19,
 224:Lib/AI_Runtime/Npu/ll_aton/ll_aton_NN_interface.h ****     DataType_BFLOAT16 = 20,
 225:Lib/AI_Runtime/Npu/ll_aton/ll_aton_NN_interface.h ****     DataType_FXP = 100 // AtoNN specific
 226:Lib/AI_Runtime/Npu/ll_aton/ll_aton_NN_interface.h ****   } Buffer_DataType_TypeDef;
 227:Lib/AI_Runtime/Npu/ll_aton/ll_aton_NN_interface.h **** 
 228:Lib/AI_Runtime/Npu/ll_aton/ll_aton_NN_interface.h ****   /**
 229:Lib/AI_Runtime/Npu/ll_aton/ll_aton_NN_interface.h ****    * @brief ATON buffer Channel position
 230:Lib/AI_Runtime/Npu/ll_aton/ll_aton_NN_interface.h ****    */
 231:Lib/AI_Runtime/Npu/ll_aton/ll_aton_NN_interface.h **** 
 232:Lib/AI_Runtime/Npu/ll_aton/ll_aton_NN_interface.h ****   typedef enum
 233:Lib/AI_Runtime/Npu/ll_aton/ll_aton_NN_interface.h ****   {
 234:Lib/AI_Runtime/Npu/ll_aton/ll_aton_NN_interface.h ****     CHPos_UNDEFINED = 0, /**< No channel present */
 235:Lib/AI_Runtime/Npu/ll_aton/ll_aton_NN_interface.h ****     CHPos_First = 1,     /**< Channel First         ( ...B C H W )*/
 236:Lib/AI_Runtime/Npu/ll_aton/ll_aton_NN_interface.h ****     CHPos_Last = 2,      /**< Channel Last          ( ...B H W C ) */
 237:Lib/AI_Runtime/Npu/ll_aton/ll_aton_NN_interface.h ****     CHPos_Mixed = 3,     /**< Channel with Batch(b) ( ...B C/b H W b ) */
 238:Lib/AI_Runtime/Npu/ll_aton/ll_aton_NN_interface.h ****   } Buffer_CHPos_TypeDef;
 239:Lib/AI_Runtime/Npu/ll_aton/ll_aton_NN_interface.h **** 
 240:Lib/AI_Runtime/Npu/ll_aton/ll_aton_NN_interface.h ****   /**
 241:Lib/AI_Runtime/Npu/ll_aton/ll_aton_NN_interface.h ****    * @brief ATON buffer definition
 242:Lib/AI_Runtime/Npu/ll_aton/ll_aton_NN_interface.h ****    */
 243:Lib/AI_Runtime/Npu/ll_aton/ll_aton_NN_interface.h ****   typedef struct
 244:Lib/AI_Runtime/Npu/ll_aton/ll_aton_NN_interface.h ****   {
 245:Lib/AI_Runtime/Npu/ll_aton/ll_aton_NN_interface.h ****     const char *name;             /**< Buffer name. NULL if end of list */
 246:Lib/AI_Runtime/Npu/ll_aton/ll_aton_NN_interface.h ****     __LL_address_t addr_base;     /**< Buffer base address */
 247:Lib/AI_Runtime/Npu/ll_aton/ll_aton_NN_interface.h ****     uint32_t offset_start;        /**< Offset of the buffer start address from the base address */
 248:Lib/AI_Runtime/Npu/ll_aton/ll_aton_NN_interface.h ****     uint32_t offset_end;          /**< Offset of the buffer end address from the base address
 249:Lib/AI_Runtime/Npu/ll_aton/ll_aton_NN_interface.h ****                                    *   (first bytes address beyond buffer length) */
 250:Lib/AI_Runtime/Npu/ll_aton/ll_aton_NN_interface.h ****     uint32_t offset_limit;        /**< Offset of the limiter address from the base address,
 251:Lib/AI_Runtime/Npu/ll_aton/ll_aton_NN_interface.h ****                                    *   (needed for configuring streaming engines) */
 252:Lib/AI_Runtime/Npu/ll_aton/ll_aton_NN_interface.h ****     uint8_t is_user_allocated;    /**< */
 253:Lib/AI_Runtime/Npu/ll_aton/ll_aton_NN_interface.h ****     uint8_t is_param;             /**< */
ARM GAS  /tmp/ccgnzMmM.s 			page 6


 254:Lib/AI_Runtime/Npu/ll_aton/ll_aton_NN_interface.h ****     uint16_t epoch;               /**< */
 255:Lib/AI_Runtime/Npu/ll_aton/ll_aton_NN_interface.h ****     uint32_t batch;               /**< */
 256:Lib/AI_Runtime/Npu/ll_aton/ll_aton_NN_interface.h ****     const uint32_t *mem_shape;    /**< shape as seen by the user in memory (only valid for input/ou
 257:Lib/AI_Runtime/Npu/ll_aton/ll_aton_NN_interface.h ****     uint16_t mem_ndims;           /**< Number of dimensions of mem_shape (Length of mem_shape) */
 258:Lib/AI_Runtime/Npu/ll_aton/ll_aton_NN_interface.h ****     Buffer_CHPos_TypeDef chpos;   /**< Position  of channels dimension in mem shape */
 259:Lib/AI_Runtime/Npu/ll_aton/ll_aton_NN_interface.h ****     Buffer_DataType_TypeDef type; /**< */
 260:Lib/AI_Runtime/Npu/ll_aton/ll_aton_NN_interface.h ****     int8_t Qm;                    /**< */
 261:Lib/AI_Runtime/Npu/ll_aton/ll_aton_NN_interface.h ****     int8_t Qn;                    /**< */
 262:Lib/AI_Runtime/Npu/ll_aton/ll_aton_NN_interface.h ****     uint8_t Qunsigned;            /**< */
 263:Lib/AI_Runtime/Npu/ll_aton/ll_aton_NN_interface.h ****     uint8_t ndims;                /**< */
 264:Lib/AI_Runtime/Npu/ll_aton/ll_aton_NN_interface.h ****     uint8_t nbits;                /**< */
 265:Lib/AI_Runtime/Npu/ll_aton/ll_aton_NN_interface.h ****     uint8_t per_channel;          /**< */
 266:Lib/AI_Runtime/Npu/ll_aton/ll_aton_NN_interface.h ****     const uint32_t *shape;        /**< */
 267:Lib/AI_Runtime/Npu/ll_aton/ll_aton_NN_interface.h ****     const float *scale;           /**< */
 268:Lib/AI_Runtime/Npu/ll_aton/ll_aton_NN_interface.h ****     const int16_t *offset;        /**< This can become int8 or uint8 based on the Qunsigned field.
 269:Lib/AI_Runtime/Npu/ll_aton/ll_aton_NN_interface.h ****                                    *   (This field Must have the same format of the quantized value
 270:Lib/AI_Runtime/Npu/ll_aton/ll_aton_NN_interface.h ****   } LL_Buffer_InfoTypeDef;
 271:Lib/AI_Runtime/Npu/ll_aton/ll_aton_NN_interface.h **** 
 272:Lib/AI_Runtime/Npu/ll_aton/ll_aton_NN_interface.h ****   /**
 273:Lib/AI_Runtime/Npu/ll_aton/ll_aton_NN_interface.h ****    * @}
 274:Lib/AI_Runtime/Npu/ll_aton/ll_aton_NN_interface.h ****    */
 275:Lib/AI_Runtime/Npu/ll_aton/ll_aton_NN_interface.h **** 
 276:Lib/AI_Runtime/Npu/ll_aton/ll_aton_NN_interface.h ****   /** @defgroup Helper Function Declarations for Buffer Analysis
 277:Lib/AI_Runtime/Npu/ll_aton/ll_aton_NN_interface.h ****    * @{
 278:Lib/AI_Runtime/Npu/ll_aton/ll_aton_NN_interface.h ****    */
 279:Lib/AI_Runtime/Npu/ll_aton/ll_aton_NN_interface.h **** 
 280:Lib/AI_Runtime/Npu/ll_aton/ll_aton_NN_interface.h ****   /**
 281:Lib/AI_Runtime/Npu/ll_aton/ll_aton_NN_interface.h ****    * @brief returns the base address of the mem pool the buffer is allocated in
 282:Lib/AI_Runtime/Npu/ll_aton/ll_aton_NN_interface.h ****    *
 283:Lib/AI_Runtime/Npu/ll_aton/ll_aton_NN_interface.h ****    */
 284:Lib/AI_Runtime/Npu/ll_aton/ll_aton_NN_interface.h ****   static inline unsigned char *LL_Buffer_addr_base(const LL_Buffer_InfoTypeDef *buf);
 285:Lib/AI_Runtime/Npu/ll_aton/ll_aton_NN_interface.h **** 
 286:Lib/AI_Runtime/Npu/ll_aton/ll_aton_NN_interface.h ****   /**
 287:Lib/AI_Runtime/Npu/ll_aton/ll_aton_NN_interface.h ****    * @brief returns the start address of the buffer
 288:Lib/AI_Runtime/Npu/ll_aton/ll_aton_NN_interface.h ****    *
 289:Lib/AI_Runtime/Npu/ll_aton/ll_aton_NN_interface.h ****    */
 290:Lib/AI_Runtime/Npu/ll_aton/ll_aton_NN_interface.h ****   static inline unsigned char *LL_Buffer_addr_start(const LL_Buffer_InfoTypeDef *buf);
 291:Lib/AI_Runtime/Npu/ll_aton/ll_aton_NN_interface.h **** 
 292:Lib/AI_Runtime/Npu/ll_aton/ll_aton_NN_interface.h ****   /**
 293:Lib/AI_Runtime/Npu/ll_aton/ll_aton_NN_interface.h ****    * @brief returns the end address of the buffer
 294:Lib/AI_Runtime/Npu/ll_aton/ll_aton_NN_interface.h ****    *
 295:Lib/AI_Runtime/Npu/ll_aton/ll_aton_NN_interface.h ****    */
 296:Lib/AI_Runtime/Npu/ll_aton/ll_aton_NN_interface.h ****   static inline unsigned char *LL_Buffer_addr_end(const LL_Buffer_InfoTypeDef *buf);
 297:Lib/AI_Runtime/Npu/ll_aton/ll_aton_NN_interface.h **** 
 298:Lib/AI_Runtime/Npu/ll_aton/ll_aton_NN_interface.h ****   /**
 299:Lib/AI_Runtime/Npu/ll_aton/ll_aton_NN_interface.h ****    * @brief returns the limit address of the buffer
 300:Lib/AI_Runtime/Npu/ll_aton/ll_aton_NN_interface.h ****    *
 301:Lib/AI_Runtime/Npu/ll_aton/ll_aton_NN_interface.h ****    */
 302:Lib/AI_Runtime/Npu/ll_aton/ll_aton_NN_interface.h ****   static inline unsigned char *LL_Buffer_addr_limit(const LL_Buffer_InfoTypeDef *buf);
 303:Lib/AI_Runtime/Npu/ll_aton/ll_aton_NN_interface.h **** 
 304:Lib/AI_Runtime/Npu/ll_aton/ll_aton_NN_interface.h ****   /**
 305:Lib/AI_Runtime/Npu/ll_aton/ll_aton_NN_interface.h ****    * @brief returns the length of the buffer
 306:Lib/AI_Runtime/Npu/ll_aton/ll_aton_NN_interface.h ****    *
 307:Lib/AI_Runtime/Npu/ll_aton/ll_aton_NN_interface.h ****    */
 308:Lib/AI_Runtime/Npu/ll_aton/ll_aton_NN_interface.h ****   static inline uint32_t LL_Buffer_len(const LL_Buffer_InfoTypeDef *buf);
 309:Lib/AI_Runtime/Npu/ll_aton/ll_aton_NN_interface.h **** 
 310:Lib/AI_Runtime/Npu/ll_aton/ll_aton_NN_interface.h ****   /**
ARM GAS  /tmp/ccgnzMmM.s 			page 7


 311:Lib/AI_Runtime/Npu/ll_aton/ll_aton_NN_interface.h ****    * @brief returns the buffer elements number of bits
 312:Lib/AI_Runtime/Npu/ll_aton/ll_aton_NN_interface.h ****    *
 313:Lib/AI_Runtime/Npu/ll_aton/ll_aton_NN_interface.h ****    */
 314:Lib/AI_Runtime/Npu/ll_aton/ll_aton_NN_interface.h ****   static inline uint32_t LL_Buffer_bits(const LL_Buffer_InfoTypeDef *buf);
 315:Lib/AI_Runtime/Npu/ll_aton/ll_aton_NN_interface.h **** 
 316:Lib/AI_Runtime/Npu/ll_aton/ll_aton_NN_interface.h ****   /**
 317:Lib/AI_Runtime/Npu/ll_aton/ll_aton_NN_interface.h ****    * @}
 318:Lib/AI_Runtime/Npu/ll_aton/ll_aton_NN_interface.h ****    */
 319:Lib/AI_Runtime/Npu/ll_aton/ll_aton_NN_interface.h **** 
 320:Lib/AI_Runtime/Npu/ll_aton/ll_aton_NN_interface.h ****   /** @defgroup Handle-style Data Types and Declaration Macros for ATON Runtime Execution & User AP
 321:Lib/AI_Runtime/Npu/ll_aton/ll_aton_NN_interface.h ****    * @{
 322:Lib/AI_Runtime/Npu/ll_aton/ll_aton_NN_interface.h ****    */
 323:Lib/AI_Runtime/Npu/ll_aton/ll_aton_NN_interface.h **** 
 324:Lib/AI_Runtime/Npu/ll_aton/ll_aton_NN_interface.h ****   struct __nn_instance_struct; // forward declaration
 325:Lib/AI_Runtime/Npu/ll_aton/ll_aton_NN_interface.h ****   typedef struct __nn_instance_struct NN_Instance_TypeDef;
 326:Lib/AI_Runtime/Npu/ll_aton/ll_aton_NN_interface.h **** 
 327:Lib/AI_Runtime/Npu/ll_aton/ll_aton_NN_interface.h **** /**
 328:Lib/AI_Runtime/Npu/ll_aton/ll_aton_NN_interface.h ****  * @brief Declare the function prototypes for named NN interface functions generated by the AtoNN c
 329:Lib/AI_Runtime/Npu/ll_aton/ll_aton_NN_interface.h ****  * @param network_name name of the network as provided by option `--network-name`
 330:Lib/AI_Runtime/Npu/ll_aton/ll_aton_NN_interface.h ****  */
 331:Lib/AI_Runtime/Npu/ll_aton/ll_aton_NN_interface.h **** #define LL_ATON_DECLARE_NAMED_NN_PROTOS(network_name)                                              
 332:Lib/AI_Runtime/Npu/ll_aton/ll_aton_NN_interface.h ****   extern bool LL_ATON_EC_Network_Init_##network_name(void);                                        
 333:Lib/AI_Runtime/Npu/ll_aton/ll_aton_NN_interface.h ****   extern bool LL_ATON_EC_Inference_Init_##network_name(void);                                      
 334:Lib/AI_Runtime/Npu/ll_aton/ll_aton_NN_interface.h ****   extern LL_ATON_User_IO_Result_t LL_ATON_Set_User_Input_Buffer_##network_name(uint32_t num, void *
 335:Lib/AI_Runtime/Npu/ll_aton/ll_aton_NN_interface.h ****                                                                                uint32_t size);     
 336:Lib/AI_Runtime/Npu/ll_aton/ll_aton_NN_interface.h ****   extern void *LL_ATON_Get_User_Input_Buffer_##network_name(uint32_t num);                         
 337:Lib/AI_Runtime/Npu/ll_aton/ll_aton_NN_interface.h ****   extern LL_ATON_User_IO_Result_t LL_ATON_Set_User_Output_Buffer_##network_name(uint32_t num, void 
 338:Lib/AI_Runtime/Npu/ll_aton/ll_aton_NN_interface.h ****                                                                                 uint32_t size);    
 339:Lib/AI_Runtime/Npu/ll_aton/ll_aton_NN_interface.h ****   extern void *LL_ATON_Get_User_Output_Buffer_##network_name(uint32_t num);                        
 340:Lib/AI_Runtime/Npu/ll_aton/ll_aton_NN_interface.h ****   extern const EpochBlock_ItemTypeDef *LL_ATON_EpochBlockItems_##network_name(void);               
 341:Lib/AI_Runtime/Npu/ll_aton/ll_aton_NN_interface.h ****   extern const LL_Buffer_InfoTypeDef *LL_ATON_Output_Buffers_Info_##network_name(void);            
 342:Lib/AI_Runtime/Npu/ll_aton/ll_aton_NN_interface.h ****   extern const LL_Buffer_InfoTypeDef *LL_ATON_Input_Buffers_Info_##network_name(void);             
 343:Lib/AI_Runtime/Npu/ll_aton/ll_aton_NN_interface.h ****   extern const LL_Buffer_InfoTypeDef *LL_ATON_Internal_Buffers_Info_##network_name(void);
 344:Lib/AI_Runtime/Npu/ll_aton/ll_aton_NN_interface.h **** 
 345:Lib/AI_Runtime/Npu/ll_aton/ll_aton_NN_interface.h ****   /**
 346:Lib/AI_Runtime/Npu/ll_aton/ll_aton_NN_interface.h ****    * @brief  Type definitions for NN interface functions
 347:Lib/AI_Runtime/Npu/ll_aton/ll_aton_NN_interface.h ****    */
 348:Lib/AI_Runtime/Npu/ll_aton/ll_aton_NN_interface.h ****   typedef bool (*NN_EC_Hook_TypeDef)(void);
 349:Lib/AI_Runtime/Npu/ll_aton/ll_aton_NN_interface.h ****   typedef LL_ATON_User_IO_Result_t (*NN_InputSetter_TypeDef)(uint32_t num, void *buffer, uint32_t s
 350:Lib/AI_Runtime/Npu/ll_aton/ll_aton_NN_interface.h ****   typedef void *(*NN_InputGetter_TypeDef)(uint32_t num);
 351:Lib/AI_Runtime/Npu/ll_aton/ll_aton_NN_interface.h ****   typedef LL_ATON_User_IO_Result_t (*NN_OutputSetter_TypeDef)(uint32_t num, void *buffer, uint32_t 
 352:Lib/AI_Runtime/Npu/ll_aton/ll_aton_NN_interface.h ****   typedef void *(*NN_OutputGetter_TypeDef)(uint32_t num);
 353:Lib/AI_Runtime/Npu/ll_aton/ll_aton_NN_interface.h ****   typedef const EpochBlock_ItemTypeDef *(*NN_EpochBlockItems_TypeDef)(void);
 354:Lib/AI_Runtime/Npu/ll_aton/ll_aton_NN_interface.h ****   typedef const LL_Buffer_InfoTypeDef *(*NN_Buffers_Info_TypeDef)(void);
 355:Lib/AI_Runtime/Npu/ll_aton/ll_aton_NN_interface.h **** 
 356:Lib/AI_Runtime/Npu/ll_aton/ll_aton_NN_interface.h ****   typedef void (*TraceRuntime_FuncPtr_t)(LL_ATON_RT_Callbacktype_t ctype);
 357:Lib/AI_Runtime/Npu/ll_aton/ll_aton_NN_interface.h **** 
 358:Lib/AI_Runtime/Npu/ll_aton/ll_aton_NN_interface.h ****   typedef void (*TraceEpochBlock_FuncPtr_t)(LL_ATON_RT_Callbacktype_t ctype, const NN_Instance_Type
 359:Lib/AI_Runtime/Npu/ll_aton/ll_aton_NN_interface.h ****                                             const EpochBlock_ItemTypeDef *epoch_block);
 360:Lib/AI_Runtime/Npu/ll_aton/ll_aton_NN_interface.h **** 
 361:Lib/AI_Runtime/Npu/ll_aton/ll_aton_NN_interface.h ****   typedef struct
 362:Lib/AI_Runtime/Npu/ll_aton/ll_aton_NN_interface.h ****   {
 363:Lib/AI_Runtime/Npu/ll_aton/ll_aton_NN_interface.h ****     const char *network_name;
 364:Lib/AI_Runtime/Npu/ll_aton/ll_aton_NN_interface.h ****     NN_EC_Hook_TypeDef ec_network_init;
 365:Lib/AI_Runtime/Npu/ll_aton/ll_aton_NN_interface.h ****     NN_EC_Hook_TypeDef ec_inference_init;
 366:Lib/AI_Runtime/Npu/ll_aton/ll_aton_NN_interface.h ****     NN_InputSetter_TypeDef input_setter;
 367:Lib/AI_Runtime/Npu/ll_aton/ll_aton_NN_interface.h ****     NN_InputGetter_TypeDef input_getter;
ARM GAS  /tmp/ccgnzMmM.s 			page 8


 368:Lib/AI_Runtime/Npu/ll_aton/ll_aton_NN_interface.h ****     NN_OutputSetter_TypeDef output_setter;
 369:Lib/AI_Runtime/Npu/ll_aton/ll_aton_NN_interface.h ****     NN_OutputGetter_TypeDef output_getter;
 370:Lib/AI_Runtime/Npu/ll_aton/ll_aton_NN_interface.h ****     NN_EpochBlockItems_TypeDef epoch_block_items;
 371:Lib/AI_Runtime/Npu/ll_aton/ll_aton_NN_interface.h ****     NN_Buffers_Info_TypeDef output_buffers_info;
 372:Lib/AI_Runtime/Npu/ll_aton/ll_aton_NN_interface.h ****     NN_Buffers_Info_TypeDef input_buffers_info;
 373:Lib/AI_Runtime/Npu/ll_aton/ll_aton_NN_interface.h ****     NN_Buffers_Info_TypeDef internal_buffers_info;
 374:Lib/AI_Runtime/Npu/ll_aton/ll_aton_NN_interface.h ****   } NN_Interface_TypeDef;
 375:Lib/AI_Runtime/Npu/ll_aton/ll_aton_NN_interface.h **** 
 376:Lib/AI_Runtime/Npu/ll_aton/ll_aton_NN_interface.h ****   typedef struct
 377:Lib/AI_Runtime/Npu/ll_aton/ll_aton_NN_interface.h ****   {
 378:Lib/AI_Runtime/Npu/ll_aton/ll_aton_NN_interface.h ****     const EpochBlock_ItemTypeDef *volatile current_epoch_block; // pointer to current epoch block
 379:Lib/AI_Runtime/Npu/ll_aton/ll_aton_NN_interface.h ****     const EpochBlock_ItemTypeDef *volatile first_epoch_block;   // pointer to first epoch block in 
 380:Lib/AI_Runtime/Npu/ll_aton/ll_aton_NN_interface.h ****     const EpochBlock_ItemTypeDef *volatile next_epoch_block;    // pointer to epoch block to be ins
 381:Lib/AI_Runtime/Npu/ll_aton/ll_aton_NN_interface.h **** 
 382:Lib/AI_Runtime/Npu/ll_aton/ll_aton_NN_interface.h ****     const EpochBlock_ItemTypeDef *volatile saved_current_epoch_block; // pointer to saved current e
 383:Lib/AI_Runtime/Npu/ll_aton/ll_aton_NN_interface.h ****     const EpochBlock_ItemTypeDef
 384:Lib/AI_Runtime/Npu/ll_aton/ll_aton_NN_interface.h ****         *volatile saved_first_epoch_block; // pointer to saved first epoch block in current epoch l
 385:Lib/AI_Runtime/Npu/ll_aton/ll_aton_NN_interface.h **** 
 386:Lib/AI_Runtime/Npu/ll_aton/ll_aton_NN_interface.h ****     bool inference_started; // inference has been started
 387:Lib/AI_Runtime/Npu/ll_aton/ll_aton_NN_interface.h **** 
 388:Lib/AI_Runtime/Npu/ll_aton/ll_aton_NN_interface.h **** #if (LL_ATON_RT_MODE == LL_ATON_RT_ASYNC)
 389:Lib/AI_Runtime/Npu/ll_aton/ll_aton_NN_interface.h ****     volatile uint32_t triggered_events;        // currently triggered events/IRQs in current epoch
 390:Lib/AI_Runtime/Npu/ll_aton/ll_aton_NN_interface.h ****     volatile bool current_epoch_block_started; // has current epoch block already been started
 391:Lib/AI_Runtime/Npu/ll_aton/ll_aton_NN_interface.h **** #endif                                         // (LL_ATON_RT_MODE == LL_ATON_RT_ASYNC)
 392:Lib/AI_Runtime/Npu/ll_aton/ll_aton_NN_interface.h **** 
 393:Lib/AI_Runtime/Npu/ll_aton/ll_aton_NN_interface.h **** #ifndef NDEBUG
 394:Lib/AI_Runtime/Npu/ll_aton/ll_aton_NN_interface.h ****     volatile uint32_t
 395:Lib/AI_Runtime/Npu/ll_aton/ll_aton_NN_interface.h ****         nr_of_epoch_blocks; // number of epoch blocks in network (includes also terminating empty e
 396:Lib/AI_Runtime/Npu/ll_aton/ll_aton_NN_interface.h ****     volatile uint32_t saved_nr_of_epoch_blocks; // number of epoch blocks in saved network (include
 397:Lib/AI_Runtime/Npu/ll_aton/ll_aton_NN_interface.h ****                                                 // empty epoch block)
 398:Lib/AI_Runtime/Npu/ll_aton/ll_aton_NN_interface.h **** #endif                                          // NDEBUG
 399:Lib/AI_Runtime/Npu/ll_aton/ll_aton_NN_interface.h **** 
 400:Lib/AI_Runtime/Npu/ll_aton/ll_aton_NN_interface.h ****     TraceEpochBlock_FuncPtr_t epoch_callback_function; // epoch callback function
 401:Lib/AI_Runtime/Npu/ll_aton/ll_aton_NN_interface.h **** 
 402:Lib/AI_Runtime/Npu/ll_aton/ll_aton_NN_interface.h **** #if defined(LL_ATON_RT_RELOC)
 403:Lib/AI_Runtime/Npu/ll_aton/ll_aton_NN_interface.h ****     uint32_t inst_reloc;
 404:Lib/AI_Runtime/Npu/ll_aton/ll_aton_NN_interface.h **** #endif
 405:Lib/AI_Runtime/Npu/ll_aton/ll_aton_NN_interface.h **** 
 406:Lib/AI_Runtime/Npu/ll_aton/ll_aton_NN_interface.h ****   } NN_Execution_State_TypeDef;
 407:Lib/AI_Runtime/Npu/ll_aton/ll_aton_NN_interface.h **** 
 408:Lib/AI_Runtime/Npu/ll_aton/ll_aton_NN_interface.h ****   struct __nn_instance_struct
 409:Lib/AI_Runtime/Npu/ll_aton/ll_aton_NN_interface.h ****   {
 410:Lib/AI_Runtime/Npu/ll_aton/ll_aton_NN_interface.h ****     const NN_Interface_TypeDef *network;
 411:Lib/AI_Runtime/Npu/ll_aton/ll_aton_NN_interface.h ****     NN_Execution_State_TypeDef exec_state;
 412:Lib/AI_Runtime/Npu/ll_aton/ll_aton_NN_interface.h ****   };
 413:Lib/AI_Runtime/Npu/ll_aton/ll_aton_NN_interface.h **** 
 414:Lib/AI_Runtime/Npu/ll_aton/ll_aton_NN_interface.h ****   /**
 415:Lib/AI_Runtime/Npu/ll_aton/ll_aton_NN_interface.h ****    * @}
 416:Lib/AI_Runtime/Npu/ll_aton/ll_aton_NN_interface.h ****    */
 417:Lib/AI_Runtime/Npu/ll_aton/ll_aton_NN_interface.h **** 
 418:Lib/AI_Runtime/Npu/ll_aton/ll_aton_NN_interface.h ****   /** @defgroup Helper Function Inline Implementations
 419:Lib/AI_Runtime/Npu/ll_aton/ll_aton_NN_interface.h ****    * @{
 420:Lib/AI_Runtime/Npu/ll_aton/ll_aton_NN_interface.h ****    */
 421:Lib/AI_Runtime/Npu/ll_aton/ll_aton_NN_interface.h **** 
 422:Lib/AI_Runtime/Npu/ll_aton/ll_aton_NN_interface.h ****   static inline bool EpochBlock_IsLastEpochBlock(const EpochBlock_ItemTypeDef *eb)
 423:Lib/AI_Runtime/Npu/ll_aton/ll_aton_NN_interface.h ****   {
 424:Lib/AI_Runtime/Npu/ll_aton/ll_aton_NN_interface.h ****     return ((eb->flags & EpochBlock_Flags_last_eb) != 0);
ARM GAS  /tmp/ccgnzMmM.s 			page 9


 425:Lib/AI_Runtime/Npu/ll_aton/ll_aton_NN_interface.h ****   }
 426:Lib/AI_Runtime/Npu/ll_aton/ll_aton_NN_interface.h **** 
 427:Lib/AI_Runtime/Npu/ll_aton/ll_aton_NN_interface.h ****   static inline bool EpochBlock_IsEpochStart(const EpochBlock_ItemTypeDef *eb)
 428:Lib/AI_Runtime/Npu/ll_aton/ll_aton_NN_interface.h ****   {
 429:Lib/AI_Runtime/Npu/ll_aton/ll_aton_NN_interface.h ****     return ((eb->flags & EpochBlock_Flags_epoch_start) != 0);
 430:Lib/AI_Runtime/Npu/ll_aton/ll_aton_NN_interface.h ****   }
 431:Lib/AI_Runtime/Npu/ll_aton/ll_aton_NN_interface.h **** 
 432:Lib/AI_Runtime/Npu/ll_aton/ll_aton_NN_interface.h ****   static inline bool EpochBlock_IsEpochEnd(const EpochBlock_ItemTypeDef *eb)
 433:Lib/AI_Runtime/Npu/ll_aton/ll_aton_NN_interface.h ****   {
 434:Lib/AI_Runtime/Npu/ll_aton/ll_aton_NN_interface.h ****     return ((eb->flags & EpochBlock_Flags_epoch_end) != 0);
 435:Lib/AI_Runtime/Npu/ll_aton/ll_aton_NN_interface.h ****   }
 436:Lib/AI_Runtime/Npu/ll_aton/ll_aton_NN_interface.h **** 
 437:Lib/AI_Runtime/Npu/ll_aton/ll_aton_NN_interface.h ****   static inline bool EpochBlock_IsEpochBlob(const EpochBlock_ItemTypeDef *eb)
 438:Lib/AI_Runtime/Npu/ll_aton/ll_aton_NN_interface.h ****   {
 439:Lib/AI_Runtime/Npu/ll_aton/ll_aton_NN_interface.h ****     return ((eb->flags & EpochBlock_Flags_blob) != 0);
 440:Lib/AI_Runtime/Npu/ll_aton/ll_aton_NN_interface.h ****   }
 441:Lib/AI_Runtime/Npu/ll_aton/ll_aton_NN_interface.h **** 
 442:Lib/AI_Runtime/Npu/ll_aton/ll_aton_NN_interface.h ****   static inline bool EpochBlock_IsBlobEncrypted(const EpochBlock_ItemTypeDef *eb)
 443:Lib/AI_Runtime/Npu/ll_aton/ll_aton_NN_interface.h ****   {
 444:Lib/AI_Runtime/Npu/ll_aton/ll_aton_NN_interface.h ****     return ((eb->flags & EpochBlock_Flags_blob_encrypted) != 0);
 445:Lib/AI_Runtime/Npu/ll_aton/ll_aton_NN_interface.h ****   }
 446:Lib/AI_Runtime/Npu/ll_aton/ll_aton_NN_interface.h **** 
 447:Lib/AI_Runtime/Npu/ll_aton/ll_aton_NN_interface.h ****   static inline bool EpochBlock_IsEpochPureSW(const EpochBlock_ItemTypeDef *eb)
 448:Lib/AI_Runtime/Npu/ll_aton/ll_aton_NN_interface.h ****   {
 449:Lib/AI_Runtime/Npu/ll_aton/ll_aton_NN_interface.h ****     return ((eb->flags & EpochBlock_Flags_pure_sw) != 0);
 450:Lib/AI_Runtime/Npu/ll_aton/ll_aton_NN_interface.h ****   }
 451:Lib/AI_Runtime/Npu/ll_aton/ll_aton_NN_interface.h **** 
 452:Lib/AI_Runtime/Npu/ll_aton/ll_aton_NN_interface.h ****   static inline bool EpochBlock_IsEpochPureHW(const EpochBlock_ItemTypeDef *eb)
 453:Lib/AI_Runtime/Npu/ll_aton/ll_aton_NN_interface.h ****   {
 454:Lib/AI_Runtime/Npu/ll_aton/ll_aton_NN_interface.h ****     return ((eb->flags & EpochBlock_Flags_pure_hw) != 0);
 455:Lib/AI_Runtime/Npu/ll_aton/ll_aton_NN_interface.h ****   }
 456:Lib/AI_Runtime/Npu/ll_aton/ll_aton_NN_interface.h **** 
 457:Lib/AI_Runtime/Npu/ll_aton/ll_aton_NN_interface.h ****   static inline bool EpochBlock_IsEpochHybrid(const EpochBlock_ItemTypeDef *eb)
 458:Lib/AI_Runtime/Npu/ll_aton/ll_aton_NN_interface.h ****   {
 459:Lib/AI_Runtime/Npu/ll_aton/ll_aton_NN_interface.h ****     return ((eb->flags & EpochBlock_Flags_hybrid) != 0);
 460:Lib/AI_Runtime/Npu/ll_aton/ll_aton_NN_interface.h ****   }
 461:Lib/AI_Runtime/Npu/ll_aton/ll_aton_NN_interface.h **** 
 462:Lib/AI_Runtime/Npu/ll_aton/ll_aton_NN_interface.h ****   static inline bool EpochBlock_IsEpochInternal(const EpochBlock_ItemTypeDef *eb)
 463:Lib/AI_Runtime/Npu/ll_aton/ll_aton_NN_interface.h ****   {
 464:Lib/AI_Runtime/Npu/ll_aton/ll_aton_NN_interface.h ****     return ((eb->flags & EpochBlock_Flags_internal) != 0);
 465:Lib/AI_Runtime/Npu/ll_aton/ll_aton_NN_interface.h ****   }
 466:Lib/AI_Runtime/Npu/ll_aton/ll_aton_NN_interface.h **** 
 467:Lib/AI_Runtime/Npu/ll_aton/ll_aton_NN_interface.h ****   static inline uint32_t EpochBlock_EpochControllerUnit(const EpochBlock_ItemTypeDef *eb)
 468:Lib/AI_Runtime/Npu/ll_aton/ll_aton_NN_interface.h ****   {
 469:Lib/AI_Runtime/Npu/ll_aton/ll_aton_NN_interface.h ****     LL_ATON_ASSERT(EpochBlock_IsEpochBlob(eb));
 470:Lib/AI_Runtime/Npu/ll_aton/ll_aton_NN_interface.h ****     return eb->wait_mask;
 471:Lib/AI_Runtime/Npu/ll_aton/ll_aton_NN_interface.h ****   }
 472:Lib/AI_Runtime/Npu/ll_aton/ll_aton_NN_interface.h **** 
 473:Lib/AI_Runtime/Npu/ll_aton/ll_aton_NN_interface.h ****   static inline uintptr_t EpochBlock_EpochBlobAddr(const EpochBlock_ItemTypeDef *eb)
 474:Lib/AI_Runtime/Npu/ll_aton/ll_aton_NN_interface.h ****   {
 475:Lib/AI_Runtime/Npu/ll_aton/ll_aton_NN_interface.h ****     LL_ATON_ASSERT(EpochBlock_IsEpochBlob(eb));
 476:Lib/AI_Runtime/Npu/ll_aton/ll_aton_NN_interface.h ****     return eb->blob_address;
 477:Lib/AI_Runtime/Npu/ll_aton/ll_aton_NN_interface.h ****   }
 478:Lib/AI_Runtime/Npu/ll_aton/ll_aton_NN_interface.h **** 
 479:Lib/AI_Runtime/Npu/ll_aton/ll_aton_NN_interface.h ****   static inline unsigned char *LL_Buffer_addr_base(const LL_Buffer_InfoTypeDef *buf)
 480:Lib/AI_Runtime/Npu/ll_aton/ll_aton_NN_interface.h ****   {
  34              		.loc 2 480 3
ARM GAS  /tmp/ccgnzMmM.s 			page 10


  35              		.cfi_startproc
  36              		@ args = 0, pretend = 0, frame = 16
  37              		@ frame_needed = 1, uses_anonymous_args = 0
  38              		@ link register save eliminated.
  39 0000 80B4     		push	{r7}
  40              		.cfi_def_cfa_offset 4
  41              		.cfi_offset 7, -4
  42 0002 85B0     		sub	sp, sp, #20
  43              		.cfi_def_cfa_offset 24
  44 0004 00AF     		add	r7, sp, #0
  45              		.cfi_def_cfa_register 7
  46 0006 7860     		str	r0, [r7, #4]
 481:Lib/AI_Runtime/Npu/ll_aton/ll_aton_NN_interface.h ****     if (buf->is_user_allocated)
  47              		.loc 2 481 12
  48 0008 7B68     		ldr	r3, [r7, #4]
  49 000a 1B7D     		ldrb	r3, [r3, #20]	@ zero_extendqisi2
  50              		.loc 2 481 8
  51 000c 002B     		cmp	r3, #0
  52 000e 05D0     		beq	.L2
  53              	.LBB2:
 482:Lib/AI_Runtime/Npu/ll_aton/ll_aton_NN_interface.h ****     {
 483:Lib/AI_Runtime/Npu/ll_aton/ll_aton_NN_interface.h ****       unsigned char **tmp = (unsigned char **)buf->addr_base.p;
  54              		.loc 2 483 23
  55 0010 7B68     		ldr	r3, [r7, #4]
  56 0012 5B68     		ldr	r3, [r3, #4]
  57 0014 FB60     		str	r3, [r7, #12]
 484:Lib/AI_Runtime/Npu/ll_aton/ll_aton_NN_interface.h ****       return *tmp;
  58              		.loc 2 484 14
  59 0016 FB68     		ldr	r3, [r7, #12]
  60 0018 1B68     		ldr	r3, [r3]
  61 001a 01E0     		b	.L3
  62              	.L2:
  63              	.LBE2:
 485:Lib/AI_Runtime/Npu/ll_aton/ll_aton_NN_interface.h ****     }
 486:Lib/AI_Runtime/Npu/ll_aton/ll_aton_NN_interface.h ****     return buf->addr_base.p;
  64              		.loc 2 486 26
  65 001c 7B68     		ldr	r3, [r7, #4]
  66 001e 5B68     		ldr	r3, [r3, #4]
  67              	.L3:
 487:Lib/AI_Runtime/Npu/ll_aton/ll_aton_NN_interface.h ****   }
  68              		.loc 2 487 3
  69 0020 1846     		mov	r0, r3
  70 0022 1437     		adds	r7, r7, #20
  71              		.cfi_def_cfa_offset 4
  72 0024 BD46     		mov	sp, r7
  73              		.cfi_def_cfa_register 13
  74              		@ sp needed
  75 0026 5DF8047B 		ldr	r7, [sp], #4
  76              		.cfi_restore 7
  77              		.cfi_def_cfa_offset 0
  78 002a 7047     		bx	lr
  79              		.cfi_endproc
  80              	.LFE4825:
  82              		.section	.text.LL_Buffer_addr_start,"ax",%progbits
  83              		.align	1
  84              		.syntax unified
  85              		.thumb
ARM GAS  /tmp/ccgnzMmM.s 			page 11


  86              		.thumb_func
  88              	LL_Buffer_addr_start:
  89              	.LFB4826:
 488:Lib/AI_Runtime/Npu/ll_aton/ll_aton_NN_interface.h **** 
 489:Lib/AI_Runtime/Npu/ll_aton/ll_aton_NN_interface.h ****   static inline unsigned char *LL_Buffer_addr_start(const LL_Buffer_InfoTypeDef *buf)
 490:Lib/AI_Runtime/Npu/ll_aton/ll_aton_NN_interface.h ****   {
  90              		.loc 2 490 3
  91              		.cfi_startproc
  92              		@ args = 0, pretend = 0, frame = 8
  93              		@ frame_needed = 1, uses_anonymous_args = 0
  94 0000 80B5     		push	{r7, lr}
  95              		.cfi_def_cfa_offset 8
  96              		.cfi_offset 7, -8
  97              		.cfi_offset 14, -4
  98 0002 82B0     		sub	sp, sp, #8
  99              		.cfi_def_cfa_offset 16
 100 0004 00AF     		add	r7, sp, #0
 101              		.cfi_def_cfa_register 7
 102 0006 7860     		str	r0, [r7, #4]
 491:Lib/AI_Runtime/Npu/ll_aton/ll_aton_NN_interface.h ****     return LL_Buffer_addr_base(buf) + buf->offset_start;
 103              		.loc 2 491 12
 104 0008 7868     		ldr	r0, [r7, #4]
 105 000a FFF7FEFF 		bl	LL_Buffer_addr_base
 106 000e 0246     		mov	r2, r0
 107              		.loc 2 491 42 discriminator 1
 108 0010 7B68     		ldr	r3, [r7, #4]
 109 0012 9B68     		ldr	r3, [r3, #8]
 110              		.loc 2 491 37 discriminator 1
 111 0014 1344     		add	r3, r3, r2
 492:Lib/AI_Runtime/Npu/ll_aton/ll_aton_NN_interface.h ****   }
 112              		.loc 2 492 3
 113 0016 1846     		mov	r0, r3
 114 0018 0837     		adds	r7, r7, #8
 115              		.cfi_def_cfa_offset 8
 116 001a BD46     		mov	sp, r7
 117              		.cfi_def_cfa_register 13
 118              		@ sp needed
 119 001c 80BD     		pop	{r7, pc}
 120              		.cfi_endproc
 121              	.LFE4826:
 123              		.section	.text.LL_Buffer_len,"ax",%progbits
 124              		.align	1
 125              		.syntax unified
 126              		.thumb
 127              		.thumb_func
 129              	LL_Buffer_len:
 130              	.LFB4829:
 493:Lib/AI_Runtime/Npu/ll_aton/ll_aton_NN_interface.h **** 
 494:Lib/AI_Runtime/Npu/ll_aton/ll_aton_NN_interface.h ****   static inline unsigned char *LL_Buffer_addr_end(const LL_Buffer_InfoTypeDef *buf)
 495:Lib/AI_Runtime/Npu/ll_aton/ll_aton_NN_interface.h ****   {
 496:Lib/AI_Runtime/Npu/ll_aton/ll_aton_NN_interface.h ****     return LL_Buffer_addr_base(buf) + buf->offset_end;
 497:Lib/AI_Runtime/Npu/ll_aton/ll_aton_NN_interface.h ****   }
 498:Lib/AI_Runtime/Npu/ll_aton/ll_aton_NN_interface.h **** 
 499:Lib/AI_Runtime/Npu/ll_aton/ll_aton_NN_interface.h ****   static inline unsigned char *LL_Buffer_addr_limit(const LL_Buffer_InfoTypeDef *buf)
 500:Lib/AI_Runtime/Npu/ll_aton/ll_aton_NN_interface.h ****   {
 501:Lib/AI_Runtime/Npu/ll_aton/ll_aton_NN_interface.h ****     return LL_Buffer_addr_base(buf) + buf->offset_limit;
 502:Lib/AI_Runtime/Npu/ll_aton/ll_aton_NN_interface.h ****   }
ARM GAS  /tmp/ccgnzMmM.s 			page 12


 503:Lib/AI_Runtime/Npu/ll_aton/ll_aton_NN_interface.h **** 
 504:Lib/AI_Runtime/Npu/ll_aton/ll_aton_NN_interface.h ****   static inline uint32_t LL_Buffer_len(const LL_Buffer_InfoTypeDef *buf)
 505:Lib/AI_Runtime/Npu/ll_aton/ll_aton_NN_interface.h ****   {
 131              		.loc 2 505 3
 132              		.cfi_startproc
 133              		@ args = 0, pretend = 0, frame = 8
 134              		@ frame_needed = 1, uses_anonymous_args = 0
 135              		@ link register save eliminated.
 136 0000 80B4     		push	{r7}
 137              		.cfi_def_cfa_offset 4
 138              		.cfi_offset 7, -4
 139 0002 83B0     		sub	sp, sp, #12
 140              		.cfi_def_cfa_offset 16
 141 0004 00AF     		add	r7, sp, #0
 142              		.cfi_def_cfa_register 7
 143 0006 7860     		str	r0, [r7, #4]
 506:Lib/AI_Runtime/Npu/ll_aton/ll_aton_NN_interface.h ****     return buf->offset_end - buf->offset_start;
 144              		.loc 2 506 15
 145 0008 7B68     		ldr	r3, [r7, #4]
 146 000a DA68     		ldr	r2, [r3, #12]
 147              		.loc 2 506 33
 148 000c 7B68     		ldr	r3, [r7, #4]
 149 000e 9B68     		ldr	r3, [r3, #8]
 150              		.loc 2 506 28
 151 0010 D31A     		subs	r3, r2, r3
 507:Lib/AI_Runtime/Npu/ll_aton/ll_aton_NN_interface.h ****   }
 152              		.loc 2 507 3
 153 0012 1846     		mov	r0, r3
 154 0014 0C37     		adds	r7, r7, #12
 155              		.cfi_def_cfa_offset 4
 156 0016 BD46     		mov	sp, r7
 157              		.cfi_def_cfa_register 13
 158              		@ sp needed
 159 0018 5DF8047B 		ldr	r7, [sp], #4
 160              		.cfi_restore 7
 161              		.cfi_def_cfa_offset 0
 162 001c 7047     		bx	lr
 163              		.cfi_endproc
 164              	.LFE4829:
 166              		.section	.text.LL_ATON_Cache_MCU_Clean_Range,"ax",%progbits
 167              		.align	1
 168              		.syntax unified
 169              		.thumb
 170              		.thumb_func
 172              	LL_ATON_Cache_MCU_Clean_Range:
 173              	.LFB4831:
 174              		.file 3 "Lib/AI_Runtime/Npu/ll_aton/ll_aton_caches_interface.h"
   1:Lib/AI_Runtime/Npu/ll_aton/ll_aton_caches_interface.h **** /**
   2:Lib/AI_Runtime/Npu/ll_aton/ll_aton_caches_interface.h ****  ******************************************************************************
   3:Lib/AI_Runtime/Npu/ll_aton/ll_aton_caches_interface.h ****  * @file    ll_aton_caches_interface.h
   4:Lib/AI_Runtime/Npu/ll_aton/ll_aton_caches_interface.h ****  * @author  SRA Artificial Intelligence & Embedded Architectures
   5:Lib/AI_Runtime/Npu/ll_aton/ll_aton_caches_interface.h ****  * @brief   Header file for defining an implementing generic cache handling
   6:Lib/AI_Runtime/Npu/ll_aton/ll_aton_caches_interface.h ****  *          functions for the application writer
   7:Lib/AI_Runtime/Npu/ll_aton/ll_aton_caches_interface.h ****  ******************************************************************************
   8:Lib/AI_Runtime/Npu/ll_aton/ll_aton_caches_interface.h ****  * @attention
   9:Lib/AI_Runtime/Npu/ll_aton/ll_aton_caches_interface.h ****  *
  10:Lib/AI_Runtime/Npu/ll_aton/ll_aton_caches_interface.h ****  * Copyright (c) 2024 STMicroelectronics.
ARM GAS  /tmp/ccgnzMmM.s 			page 13


  11:Lib/AI_Runtime/Npu/ll_aton/ll_aton_caches_interface.h ****  * All rights reserved.
  12:Lib/AI_Runtime/Npu/ll_aton/ll_aton_caches_interface.h ****  *
  13:Lib/AI_Runtime/Npu/ll_aton/ll_aton_caches_interface.h ****  * This software is licensed under terms that can be found in the LICENSE file
  14:Lib/AI_Runtime/Npu/ll_aton/ll_aton_caches_interface.h ****  * in the root directory of this software component.
  15:Lib/AI_Runtime/Npu/ll_aton/ll_aton_caches_interface.h ****  * If no LICENSE file comes with this software, it is provided AS-IS.
  16:Lib/AI_Runtime/Npu/ll_aton/ll_aton_caches_interface.h ****  *
  17:Lib/AI_Runtime/Npu/ll_aton/ll_aton_caches_interface.h ****  ******************************************************************************
  18:Lib/AI_Runtime/Npu/ll_aton/ll_aton_caches_interface.h ****  */
  19:Lib/AI_Runtime/Npu/ll_aton/ll_aton_caches_interface.h **** 
  20:Lib/AI_Runtime/Npu/ll_aton/ll_aton_caches_interface.h **** #ifndef __LL_ATON_CACHES_H
  21:Lib/AI_Runtime/Npu/ll_aton/ll_aton_caches_interface.h **** #define __LL_ATON_CACHES_H
  22:Lib/AI_Runtime/Npu/ll_aton/ll_aton_caches_interface.h **** 
  23:Lib/AI_Runtime/Npu/ll_aton/ll_aton_caches_interface.h **** #include <stdint.h>
  24:Lib/AI_Runtime/Npu/ll_aton/ll_aton_caches_interface.h **** 
  25:Lib/AI_Runtime/Npu/ll_aton/ll_aton_caches_interface.h **** #ifdef __cplusplus
  26:Lib/AI_Runtime/Npu/ll_aton/ll_aton_caches_interface.h **** extern "C"
  27:Lib/AI_Runtime/Npu/ll_aton/ll_aton_caches_interface.h **** {
  28:Lib/AI_Runtime/Npu/ll_aton/ll_aton_caches_interface.h **** #endif
  29:Lib/AI_Runtime/Npu/ll_aton/ll_aton_caches_interface.h **** 
  30:Lib/AI_Runtime/Npu/ll_aton/ll_aton_caches_interface.h **** #include "ll_aton_osal.h"
  31:Lib/AI_Runtime/Npu/ll_aton/ll_aton_caches_interface.h **** #include "ll_aton_platform.h"
  32:Lib/AI_Runtime/Npu/ll_aton/ll_aton_caches_interface.h **** 
  33:Lib/AI_Runtime/Npu/ll_aton/ll_aton_caches_interface.h **** #if !defined(BUILD_AI_NETWORK_RELOC)
  34:Lib/AI_Runtime/Npu/ll_aton/ll_aton_caches_interface.h **** 
  35:Lib/AI_Runtime/Npu/ll_aton/ll_aton_caches_interface.h **** #if (LL_ATON_PLATFORM == LL_ATON_PLAT_STM32N6)
  36:Lib/AI_Runtime/Npu/ll_aton/ll_aton_caches_interface.h **** 
  37:Lib/AI_Runtime/Npu/ll_aton/ll_aton_caches_interface.h ****   /*** MCU cache maintenance functions ***/
  38:Lib/AI_Runtime/Npu/ll_aton/ll_aton_caches_interface.h **** 
  39:Lib/AI_Runtime/Npu/ll_aton/ll_aton_caches_interface.h ****   /**
  40:Lib/AI_Runtime/Npu/ll_aton/ll_aton_caches_interface.h ****    * @brief perform MCU cache clean maintenance operation on an address range
  41:Lib/AI_Runtime/Npu/ll_aton/ll_aton_caches_interface.h ****    * @details whenever the content of a buffer is changed by the application (which is especially t
  42:Lib/AI_Runtime/Npu/ll_aton/ll_aton_caches_interface.h ****    *          buffers) cache maintenance MUST be taken into account before being able to run the ne
  43:Lib/AI_Runtime/Npu/ll_aton/ll_aton_caches_interface.h ****    * @param[in] virtual_addr start address (host-side/virtual) of address range
  44:Lib/AI_Runtime/Npu/ll_aton/ll_aton_caches_interface.h ****    * @param[in] size size of address range
  45:Lib/AI_Runtime/Npu/ll_aton/ll_aton_caches_interface.h ****    *
  46:Lib/AI_Runtime/Npu/ll_aton/ll_aton_caches_interface.h ****    * @note the address range should fulfill alignment constraints with respect to the MCU cache lin
  47:Lib/AI_Runtime/Npu/ll_aton/ll_aton_caches_interface.h ****    *       for both its `address` & `size` (to better correspond to what this operation will actual
  48:Lib/AI_Runtime/Npu/ll_aton/ll_aton_caches_interface.h ****    * @note this function is intended to handle the case where a buffer has been filled by the MCU/p
  49:Lib/AI_Runtime/Npu/ll_aton/ll_aton_caches_interface.h ****    *       passing thru the MCU cache) and should be called AFTER that the buffer has been filled
  50:Lib/AI_Runtime/Npu/ll_aton/ll_aton_caches_interface.h ****    */
  51:Lib/AI_Runtime/Npu/ll_aton/ll_aton_caches_interface.h ****   static inline void LL_ATON_Cache_MCU_Clean_Range(uintptr_t virtual_addr, uint32_t size)
  52:Lib/AI_Runtime/Npu/ll_aton/ll_aton_caches_interface.h ****   {
 175              		.loc 3 52 3
 176              		.cfi_startproc
 177              		@ args = 0, pretend = 0, frame = 8
 178              		@ frame_needed = 1, uses_anonymous_args = 0
 179 0000 80B5     		push	{r7, lr}
 180              		.cfi_def_cfa_offset 8
 181              		.cfi_offset 7, -8
 182              		.cfi_offset 14, -4
 183 0002 82B0     		sub	sp, sp, #8
 184              		.cfi_def_cfa_offset 16
 185 0004 00AF     		add	r7, sp, #0
 186              		.cfi_def_cfa_register 7
 187 0006 7860     		str	r0, [r7, #4]
 188 0008 3960     		str	r1, [r7]
  53:Lib/AI_Runtime/Npu/ll_aton/ll_aton_caches_interface.h ****     LL_ATON_OSAL_LOCK_MCU_CACHE();
ARM GAS  /tmp/ccgnzMmM.s 			page 14


  54:Lib/AI_Runtime/Npu/ll_aton/ll_aton_caches_interface.h ****     mcu_cache_clean_range(virtual_addr, virtual_addr + size);
 189              		.loc 3 54 5
 190 000a 7A68     		ldr	r2, [r7, #4]
 191 000c 3B68     		ldr	r3, [r7]
 192 000e 1344     		add	r3, r3, r2
 193 0010 1946     		mov	r1, r3
 194 0012 7868     		ldr	r0, [r7, #4]
 195 0014 FFF7FEFF 		bl	mcu_cache_clean_range
  55:Lib/AI_Runtime/Npu/ll_aton/ll_aton_caches_interface.h ****     LL_ATON_OSAL_UNLOCK_MCU_CACHE();
  56:Lib/AI_Runtime/Npu/ll_aton/ll_aton_caches_interface.h ****   }
 196              		.loc 3 56 3
 197 0018 00BF     		nop
 198 001a 0837     		adds	r7, r7, #8
 199              		.cfi_def_cfa_offset 8
 200 001c BD46     		mov	sp, r7
 201              		.cfi_def_cfa_register 13
 202              		@ sp needed
 203 001e 80BD     		pop	{r7, pc}
 204              		.cfi_endproc
 205              	.LFE4831:
 207              		.section	.text.LL_ATON_Cache_MCU_Clean_Invalidate_Range,"ax",%progbits
 208              		.align	1
 209              		.syntax unified
 210              		.thumb
 211              		.thumb_func
 213              	LL_ATON_Cache_MCU_Clean_Invalidate_Range:
 214              	.LFB4833:
  57:Lib/AI_Runtime/Npu/ll_aton/ll_aton_caches_interface.h **** 
  58:Lib/AI_Runtime/Npu/ll_aton/ll_aton_caches_interface.h ****   /**
  59:Lib/AI_Runtime/Npu/ll_aton/ll_aton_caches_interface.h ****    * @brief perform MCU cache invalidate maintenance operation on an address range
  60:Lib/AI_Runtime/Npu/ll_aton/ll_aton_caches_interface.h ****    * @details whenever the content of a buffer is changed by the application (which is especially t
  61:Lib/AI_Runtime/Npu/ll_aton/ll_aton_caches_interface.h ****    *          buffers) cache maintenance MUST be taken into account before being able to run the ne
  62:Lib/AI_Runtime/Npu/ll_aton/ll_aton_caches_interface.h ****    * @param[in] virtual_addr start address (host-side/virtual) of address range
  63:Lib/AI_Runtime/Npu/ll_aton/ll_aton_caches_interface.h ****    * @param[in] size size of address range
  64:Lib/AI_Runtime/Npu/ll_aton/ll_aton_caches_interface.h ****    *
  65:Lib/AI_Runtime/Npu/ll_aton/ll_aton_caches_interface.h ****    * @note the address range should fulfill alignment constraints with respect to the MCU cache lin
  66:Lib/AI_Runtime/Npu/ll_aton/ll_aton_caches_interface.h ****    *       for both its `address` & `size` (to better correspond to what this operation will actual
  67:Lib/AI_Runtime/Npu/ll_aton/ll_aton_caches_interface.h ****    * @note this function is intended to handle the case where a buffer has been filled by-passing t
  68:Lib/AI_Runtime/Npu/ll_aton/ll_aton_caches_interface.h ****    *       cache (e.g. using a DMA) and should be called BEFORE the buffer gets filled
  69:Lib/AI_Runtime/Npu/ll_aton/ll_aton_caches_interface.h ****    */
  70:Lib/AI_Runtime/Npu/ll_aton/ll_aton_caches_interface.h ****   static inline void LL_ATON_Cache_MCU_Invalidate_Range(uintptr_t virtual_addr, uint32_t size)
  71:Lib/AI_Runtime/Npu/ll_aton/ll_aton_caches_interface.h ****   {
  72:Lib/AI_Runtime/Npu/ll_aton/ll_aton_caches_interface.h ****     LL_ATON_OSAL_LOCK_MCU_CACHE();
  73:Lib/AI_Runtime/Npu/ll_aton/ll_aton_caches_interface.h ****     mcu_cache_invalidate_range(virtual_addr, virtual_addr + size);
  74:Lib/AI_Runtime/Npu/ll_aton/ll_aton_caches_interface.h ****     LL_ATON_OSAL_UNLOCK_MCU_CACHE();
  75:Lib/AI_Runtime/Npu/ll_aton/ll_aton_caches_interface.h ****   }
  76:Lib/AI_Runtime/Npu/ll_aton/ll_aton_caches_interface.h **** 
  77:Lib/AI_Runtime/Npu/ll_aton/ll_aton_caches_interface.h ****   /**
  78:Lib/AI_Runtime/Npu/ll_aton/ll_aton_caches_interface.h ****    * @brief perform MCU cache clean & invalidate maintenance operation on an address range
  79:Lib/AI_Runtime/Npu/ll_aton/ll_aton_caches_interface.h ****    * @details whenever the content of a buffer is changed by the application (which is especially t
  80:Lib/AI_Runtime/Npu/ll_aton/ll_aton_caches_interface.h ****    *          buffers) cache maintenance MUST be taken into account before being able to run the ne
  81:Lib/AI_Runtime/Npu/ll_aton/ll_aton_caches_interface.h ****    * @param[in] virtual_addr start address (host-side/virtual) of address range
  82:Lib/AI_Runtime/Npu/ll_aton/ll_aton_caches_interface.h ****    * @param[in] size size of address range
  83:Lib/AI_Runtime/Npu/ll_aton/ll_aton_caches_interface.h ****    *
  84:Lib/AI_Runtime/Npu/ll_aton/ll_aton_caches_interface.h ****    * @note the address range should fulfill alignment constraints with respect to the MCU cache lin
  85:Lib/AI_Runtime/Npu/ll_aton/ll_aton_caches_interface.h ****    *       for both its `address` & `size` (to better correspond to what this operation will actual
  86:Lib/AI_Runtime/Npu/ll_aton/ll_aton_caches_interface.h ****    * @note this function is intended to handle the case where a buffer has been filled by the MCU/p
ARM GAS  /tmp/ccgnzMmM.s 			page 15


  87:Lib/AI_Runtime/Npu/ll_aton/ll_aton_caches_interface.h ****    *       (such passing thru the MCU cache) and is gonna to be modified immediately afterwards by-
  88:Lib/AI_Runtime/Npu/ll_aton/ll_aton_caches_interface.h ****    *       the MCU/processor cache (e.g. using a DMA). It should be called AFTER that the buffer ha
  89:Lib/AI_Runtime/Npu/ll_aton/ll_aton_caches_interface.h ****    *       filled
  90:Lib/AI_Runtime/Npu/ll_aton/ll_aton_caches_interface.h ****    */
  91:Lib/AI_Runtime/Npu/ll_aton/ll_aton_caches_interface.h ****   static inline void LL_ATON_Cache_MCU_Clean_Invalidate_Range(uintptr_t virtual_addr, uint32_t size
  92:Lib/AI_Runtime/Npu/ll_aton/ll_aton_caches_interface.h ****   {
 215              		.loc 3 92 3
 216              		.cfi_startproc
 217              		@ args = 0, pretend = 0, frame = 8
 218              		@ frame_needed = 1, uses_anonymous_args = 0
 219 0000 80B5     		push	{r7, lr}
 220              		.cfi_def_cfa_offset 8
 221              		.cfi_offset 7, -8
 222              		.cfi_offset 14, -4
 223 0002 82B0     		sub	sp, sp, #8
 224              		.cfi_def_cfa_offset 16
 225 0004 00AF     		add	r7, sp, #0
 226              		.cfi_def_cfa_register 7
 227 0006 7860     		str	r0, [r7, #4]
 228 0008 3960     		str	r1, [r7]
  93:Lib/AI_Runtime/Npu/ll_aton/ll_aton_caches_interface.h ****     LL_ATON_OSAL_LOCK_MCU_CACHE();
  94:Lib/AI_Runtime/Npu/ll_aton/ll_aton_caches_interface.h ****     mcu_cache_clean_invalidate_range(virtual_addr, virtual_addr + size);
 229              		.loc 3 94 5
 230 000a 7A68     		ldr	r2, [r7, #4]
 231 000c 3B68     		ldr	r3, [r7]
 232 000e 1344     		add	r3, r3, r2
 233 0010 1946     		mov	r1, r3
 234 0012 7868     		ldr	r0, [r7, #4]
 235 0014 FFF7FEFF 		bl	mcu_cache_clean_invalidate_range
  95:Lib/AI_Runtime/Npu/ll_aton/ll_aton_caches_interface.h ****     LL_ATON_OSAL_UNLOCK_MCU_CACHE();
  96:Lib/AI_Runtime/Npu/ll_aton/ll_aton_caches_interface.h ****   }
 236              		.loc 3 96 3
 237 0018 00BF     		nop
 238 001a 0837     		adds	r7, r7, #8
 239              		.cfi_def_cfa_offset 8
 240 001c BD46     		mov	sp, r7
 241              		.cfi_def_cfa_register 13
 242              		@ sp needed
 243 001e 80BD     		pop	{r7, pc}
 244              		.cfi_endproc
 245              	.LFE4833:
 247              		.section	.rodata
 248              		.align	2
 249              	.LC0:
 250 0000 28282875 		.ascii	"(((uintptr_t)in_target) % 2) == 0\000"
 250      696E7470 
 250      74725F74 
 250      29696E5F 
 250      74617267 
 251 0022 0000     		.align	2
 252              	.LC1:
 253 0024 4C69622F 		.ascii	"Lib/AI_Runtime/Npu/ll_aton/ll_aton_lib_sw_operators"
 253      41495F52 
 253      756E7469 
 253      6D652F4E 
 253      70752F6C 
 254 0057 2E6300   		.ascii	".c\000"
ARM GAS  /tmp/ccgnzMmM.s 			page 16


 255 005a 0000     		.align	2
 256              	.LC2:
 257 005c 28282875 		.ascii	"(((uintptr_t)out_target) % 2) == 0\000"
 257      696E7470 
 257      74725F74 
 257      296F7574 
 257      5F746172 
 258 007f 00       		.align	2
 259              	.LC3:
 260 0080 28282875 		.ascii	"(((uintptr_t)in_target) % 4) == 0\000"
 260      696E7470 
 260      74725F74 
 260      29696E5F 
 260      74617267 
 261 00a2 0000     		.align	2
 262              	.LC4:
 263 00a4 28282875 		.ascii	"(((uintptr_t)out_target) % 4) == 0\000"
 263      696E7470 
 263      74725F74 
 263      296F7574 
 263      5F746172 
 264 00c7 00       		.align	2
 265              	.LC5:
 266 00c8 3000     		.ascii	"0\000"
 267              		.section	.text.__ll_aton_lib_copy_element,"ax",%progbits
 268              		.align	1
 269              		.syntax unified
 270              		.thumb
 271              		.thumb_func
 273              	__ll_aton_lib_copy_element:
 274              	.LFB4854:
   1:Lib/AI_Runtime/Npu/ll_aton/ll_aton_lib_sw_operators.c **** /**
   2:Lib/AI_Runtime/Npu/ll_aton/ll_aton_lib_sw_operators.c ****  ******************************************************************************
   3:Lib/AI_Runtime/Npu/ll_aton/ll_aton_lib_sw_operators.c ****  * @file    ll_aton_lib_sw_operators.c
   4:Lib/AI_Runtime/Npu/ll_aton/ll_aton_lib_sw_operators.c ****  * @author  SRA Artificial Intelligence & Embedded Architectures
   5:Lib/AI_Runtime/Npu/ll_aton/ll_aton_lib_sw_operators.c ****  * @brief   ATON library for pure SW operators
   6:Lib/AI_Runtime/Npu/ll_aton/ll_aton_lib_sw_operators.c ****  ******************************************************************************
   7:Lib/AI_Runtime/Npu/ll_aton/ll_aton_lib_sw_operators.c ****  * @attention
   8:Lib/AI_Runtime/Npu/ll_aton/ll_aton_lib_sw_operators.c ****  *
   9:Lib/AI_Runtime/Npu/ll_aton/ll_aton_lib_sw_operators.c ****  * Copyright (c) 2024 STMicroelectronics.
  10:Lib/AI_Runtime/Npu/ll_aton/ll_aton_lib_sw_operators.c ****  * All rights reserved.
  11:Lib/AI_Runtime/Npu/ll_aton/ll_aton_lib_sw_operators.c ****  *
  12:Lib/AI_Runtime/Npu/ll_aton/ll_aton_lib_sw_operators.c ****  * This software is licensed under terms that can be found in the LICENSE file
  13:Lib/AI_Runtime/Npu/ll_aton/ll_aton_lib_sw_operators.c ****  * in the root directory of this software component.
  14:Lib/AI_Runtime/Npu/ll_aton/ll_aton_lib_sw_operators.c ****  * If no LICENSE file comes with this software, it is provided AS-IS.
  15:Lib/AI_Runtime/Npu/ll_aton/ll_aton_lib_sw_operators.c ****  *
  16:Lib/AI_Runtime/Npu/ll_aton/ll_aton_lib_sw_operators.c ****  ******************************************************************************
  17:Lib/AI_Runtime/Npu/ll_aton/ll_aton_lib_sw_operators.c ****  */
  18:Lib/AI_Runtime/Npu/ll_aton/ll_aton_lib_sw_operators.c **** 
  19:Lib/AI_Runtime/Npu/ll_aton/ll_aton_lib_sw_operators.c **** #include <inttypes.h>
  20:Lib/AI_Runtime/Npu/ll_aton/ll_aton_lib_sw_operators.c **** #include <stdbool.h>
  21:Lib/AI_Runtime/Npu/ll_aton/ll_aton_lib_sw_operators.c **** #include <stdint.h>
  22:Lib/AI_Runtime/Npu/ll_aton/ll_aton_lib_sw_operators.c **** 
  23:Lib/AI_Runtime/Npu/ll_aton/ll_aton_lib_sw_operators.c **** #include "ll_aton_util.h" // Leave blank line after the include
  24:Lib/AI_Runtime/Npu/ll_aton/ll_aton_lib_sw_operators.c **** 
  25:Lib/AI_Runtime/Npu/ll_aton/ll_aton_lib_sw_operators.c **** #include "ll_aton_lib.h"
  26:Lib/AI_Runtime/Npu/ll_aton/ll_aton_lib_sw_operators.c **** #include "ll_aton_lib_sw_operators.h"
ARM GAS  /tmp/ccgnzMmM.s 			page 17


  27:Lib/AI_Runtime/Npu/ll_aton/ll_aton_lib_sw_operators.c **** #include "ll_aton_runtime.h"
  28:Lib/AI_Runtime/Npu/ll_aton/ll_aton_lib_sw_operators.c **** 
  29:Lib/AI_Runtime/Npu/ll_aton/ll_aton_lib_sw_operators.c **** /* Common data structure(s) */
  30:Lib/AI_Runtime/Npu/ll_aton/ll_aton_lib_sw_operators.c **** typedef struct __ll_stack_lnklst
  31:Lib/AI_Runtime/Npu/ll_aton/ll_aton_lib_sw_operators.c **** {
  32:Lib/AI_Runtime/Npu/ll_aton/ll_aton_lib_sw_operators.c ****   struct __ll_stack_lnklst *back_link;
  33:Lib/AI_Runtime/Npu/ll_aton/ll_aton_lib_sw_operators.c ****   uint32_t axis;
  34:Lib/AI_Runtime/Npu/ll_aton/ll_aton_lib_sw_operators.c ****   uint32_t index;
  35:Lib/AI_Runtime/Npu/ll_aton/ll_aton_lib_sw_operators.c **** } __ll_stack_lnklst_t;
  36:Lib/AI_Runtime/Npu/ll_aton/ll_aton_lib_sw_operators.c **** 
  37:Lib/AI_Runtime/Npu/ll_aton/ll_aton_lib_sw_operators.c **** /* Helper Functions */
  38:Lib/AI_Runtime/Npu/ll_aton/ll_aton_lib_sw_operators.c **** static inline void __ll_aton_lib_copy_element(uint8_t nbytes, int32_t index, int8_t *out_target, in
  39:Lib/AI_Runtime/Npu/ll_aton/ll_aton_lib_sw_operators.c **** {
 275              		.loc 1 39 1
 276              		.cfi_startproc
 277              		@ args = 0, pretend = 0, frame = 16
 278              		@ frame_needed = 1, uses_anonymous_args = 0
 279 0000 80B5     		push	{r7, lr}
 280              		.cfi_def_cfa_offset 8
 281              		.cfi_offset 7, -8
 282              		.cfi_offset 14, -4
 283 0002 84B0     		sub	sp, sp, #16
 284              		.cfi_def_cfa_offset 24
 285 0004 00AF     		add	r7, sp, #0
 286              		.cfi_def_cfa_register 7
 287 0006 B960     		str	r1, [r7, #8]
 288 0008 7A60     		str	r2, [r7, #4]
 289 000a 3B60     		str	r3, [r7]
 290 000c 0346     		mov	r3, r0
 291 000e FB73     		strb	r3, [r7, #15]
  40:Lib/AI_Runtime/Npu/ll_aton/ll_aton_lib_sw_operators.c ****   LL_ATON_LIB_UNUSED(index);
  41:Lib/AI_Runtime/Npu/ll_aton/ll_aton_lib_sw_operators.c **** 
  42:Lib/AI_Runtime/Npu/ll_aton/ll_aton_lib_sw_operators.c ****   switch (nbytes)
 292              		.loc 1 42 3
 293 0010 FB7B     		ldrb	r3, [r7, #15]	@ zero_extendqisi2
 294 0012 013B     		subs	r3, r3, #1
 295 0014 032B     		cmp	r3, #3
 296 0016 64D8     		bhi	.L11
 297 0018 01A2     		adr	r2, .L13
 298 001a 52F823F0 		ldr	pc, [r2, r3, lsl #2]
 299 001e 00BF     		.p2align 2
 300              	.L13:
 301 0020 31000000 		.word	.L16+1
 302 0024 3D000000 		.word	.L15+1
 303 0028 75000000 		.word	.L14+1
 304 002c AD000000 		.word	.L12+1
 305              		.p2align 1
 306              	.L16:
  43:Lib/AI_Runtime/Npu/ll_aton/ll_aton_lib_sw_operators.c ****   {
  44:Lib/AI_Runtime/Npu/ll_aton/ll_aton_lib_sw_operators.c ****   case 1:
  45:Lib/AI_Runtime/Npu/ll_aton/ll_aton_lib_sw_operators.c **** #if defined(DUMP_DEBUG_SW_OPS)
  46:Lib/AI_Runtime/Npu/ll_aton/ll_aton_lib_sw_operators.c ****     LL_ATON_PRINTF("[%d]\t%d\t@ out: 0x%lx, in: 0x%lx\n", index, *in_target, (uintptr_t)out_target,
  47:Lib/AI_Runtime/Npu/ll_aton/ll_aton_lib_sw_operators.c ****                    (uintptr_t)in_target);
  48:Lib/AI_Runtime/Npu/ll_aton/ll_aton_lib_sw_operators.c **** #endif
  49:Lib/AI_Runtime/Npu/ll_aton/ll_aton_lib_sw_operators.c ****     *out_target = *in_target;
 307              		.loc 1 49 19
 308 0030 3B68     		ldr	r3, [r7]
ARM GAS  /tmp/ccgnzMmM.s 			page 18


 309 0032 93F90020 		ldrsb	r2, [r3]
 310              		.loc 1 49 17
 311 0036 7B68     		ldr	r3, [r7, #4]
 312 0038 1A70     		strb	r2, [r3]
  50:Lib/AI_Runtime/Npu/ll_aton/ll_aton_lib_sw_operators.c ****     return;
 313              		.loc 1 50 5
 314 003a 58E0     		b	.L10
 315              	.L15:
  51:Lib/AI_Runtime/Npu/ll_aton/ll_aton_lib_sw_operators.c **** 
  52:Lib/AI_Runtime/Npu/ll_aton/ll_aton_lib_sw_operators.c ****   case 2:
  53:Lib/AI_Runtime/Npu/ll_aton/ll_aton_lib_sw_operators.c **** #if defined(DUMP_DEBUG_SW_OPS)
  54:Lib/AI_Runtime/Npu/ll_aton/ll_aton_lib_sw_operators.c ****     LL_ATON_PRINTF("[%d]\t%d\t@ out: 0x%lx, in: 0x%lx\n", index, *((int16_t *)in_target), (uintptr_
  55:Lib/AI_Runtime/Npu/ll_aton/ll_aton_lib_sw_operators.c ****                    (uintptr_t)in_target);
  56:Lib/AI_Runtime/Npu/ll_aton/ll_aton_lib_sw_operators.c **** #endif
  57:Lib/AI_Runtime/Npu/ll_aton/ll_aton_lib_sw_operators.c ****     LL_ATON_ASSERT((((uintptr_t)in_target) % 2) == 0);
 316              		.loc 1 57 5
 317 003c 3B68     		ldr	r3, [r7]
 318 003e 03F00103 		and	r3, r3, #1
 319 0042 002B     		cmp	r3, #0
 320 0044 05D0     		beq	.L18
 321              		.loc 1 57 5 is_stmt 0 discriminator 1
 322 0046 2B4B     		ldr	r3, .L22
 323 0048 2B4A     		ldr	r2, .L22+4
 324 004a 3921     		movs	r1, #57
 325 004c 2B48     		ldr	r0, .L22+8
 326 004e FFF7FEFF 		bl	__assert_func
 327              	.L18:
  58:Lib/AI_Runtime/Npu/ll_aton/ll_aton_lib_sw_operators.c ****     LL_ATON_ASSERT((((uintptr_t)out_target) % 2) == 0);
 328              		.loc 1 58 5 is_stmt 1
 329 0052 7B68     		ldr	r3, [r7, #4]
 330 0054 03F00103 		and	r3, r3, #1
 331 0058 002B     		cmp	r3, #0
 332 005a 05D0     		beq	.L19
 333              		.loc 1 58 5 is_stmt 0 discriminator 1
 334 005c 284B     		ldr	r3, .L22+12
 335 005e 264A     		ldr	r2, .L22+4
 336 0060 3A21     		movs	r1, #58
 337 0062 2648     		ldr	r0, .L22+8
 338 0064 FFF7FEFF 		bl	__assert_func
 339              	.L19:
  59:Lib/AI_Runtime/Npu/ll_aton/ll_aton_lib_sw_operators.c **** 
  60:Lib/AI_Runtime/Npu/ll_aton/ll_aton_lib_sw_operators.c ****     *((int16_t *)out_target) = *((int16_t *)in_target);
 340              		.loc 1 60 32 is_stmt 1
 341 0068 3B68     		ldr	r3, [r7]
 342 006a B3F90020 		ldrsh	r2, [r3]
 343              		.loc 1 60 30
 344 006e 7B68     		ldr	r3, [r7, #4]
 345 0070 1A80     		strh	r2, [r3]	@ movhi
  61:Lib/AI_Runtime/Npu/ll_aton/ll_aton_lib_sw_operators.c ****     return;
 346              		.loc 1 61 5
 347 0072 3CE0     		b	.L10
 348              	.L14:
  62:Lib/AI_Runtime/Npu/ll_aton/ll_aton_lib_sw_operators.c **** 
  63:Lib/AI_Runtime/Npu/ll_aton/ll_aton_lib_sw_operators.c ****   case 3: // NOTE: assuming no alignment
  64:Lib/AI_Runtime/Npu/ll_aton/ll_aton_lib_sw_operators.c ****     *out_target++ = *in_target++;
 349              		.loc 1 64 31
 350 0074 3A68     		ldr	r2, [r7]
ARM GAS  /tmp/ccgnzMmM.s 			page 19


 351 0076 531C     		adds	r3, r2, #1
 352 0078 3B60     		str	r3, [r7]
 353              		.loc 1 64 16
 354 007a 7B68     		ldr	r3, [r7, #4]
 355 007c 591C     		adds	r1, r3, #1
 356 007e 7960     		str	r1, [r7, #4]
 357              		.loc 1 64 21
 358 0080 92F90020 		ldrsb	r2, [r2]
 359              		.loc 1 64 19
 360 0084 1A70     		strb	r2, [r3]
  65:Lib/AI_Runtime/Npu/ll_aton/ll_aton_lib_sw_operators.c ****     *out_target++ = *in_target++;
 361              		.loc 1 65 31
 362 0086 3A68     		ldr	r2, [r7]
 363 0088 531C     		adds	r3, r2, #1
 364 008a 3B60     		str	r3, [r7]
 365              		.loc 1 65 16
 366 008c 7B68     		ldr	r3, [r7, #4]
 367 008e 591C     		adds	r1, r3, #1
 368 0090 7960     		str	r1, [r7, #4]
 369              		.loc 1 65 21
 370 0092 92F90020 		ldrsb	r2, [r2]
 371              		.loc 1 65 19
 372 0096 1A70     		strb	r2, [r3]
  66:Lib/AI_Runtime/Npu/ll_aton/ll_aton_lib_sw_operators.c ****     *out_target++ = *in_target++;
 373              		.loc 1 66 31
 374 0098 3A68     		ldr	r2, [r7]
 375 009a 531C     		adds	r3, r2, #1
 376 009c 3B60     		str	r3, [r7]
 377              		.loc 1 66 16
 378 009e 7B68     		ldr	r3, [r7, #4]
 379 00a0 591C     		adds	r1, r3, #1
 380 00a2 7960     		str	r1, [r7, #4]
 381              		.loc 1 66 21
 382 00a4 92F90020 		ldrsb	r2, [r2]
 383              		.loc 1 66 19
 384 00a8 1A70     		strb	r2, [r3]
  67:Lib/AI_Runtime/Npu/ll_aton/ll_aton_lib_sw_operators.c ****     return;
 385              		.loc 1 67 5
 386 00aa 20E0     		b	.L10
 387              	.L12:
  68:Lib/AI_Runtime/Npu/ll_aton/ll_aton_lib_sw_operators.c **** 
  69:Lib/AI_Runtime/Npu/ll_aton/ll_aton_lib_sw_operators.c ****   case 4:
  70:Lib/AI_Runtime/Npu/ll_aton/ll_aton_lib_sw_operators.c **** #if defined(DUMP_DEBUG_SW_OPS)
  71:Lib/AI_Runtime/Npu/ll_aton/ll_aton_lib_sw_operators.c ****     LL_ATON_PRINTF("[%d]\t%d\t@ out: 0x%lx, in: 0x%lx\n", index, *((int32_t *)in_target), (uintptr_
  72:Lib/AI_Runtime/Npu/ll_aton/ll_aton_lib_sw_operators.c ****                    (uintptr_t)in_target);
  73:Lib/AI_Runtime/Npu/ll_aton/ll_aton_lib_sw_operators.c **** #endif
  74:Lib/AI_Runtime/Npu/ll_aton/ll_aton_lib_sw_operators.c ****     LL_ATON_ASSERT((((uintptr_t)in_target) % 4) == 0);
 388              		.loc 1 74 5
 389 00ac 3B68     		ldr	r3, [r7]
 390 00ae 03F00303 		and	r3, r3, #3
 391 00b2 002B     		cmp	r3, #0
 392 00b4 05D0     		beq	.L20
 393              		.loc 1 74 5 is_stmt 0 discriminator 1
 394 00b6 134B     		ldr	r3, .L22+16
 395 00b8 0F4A     		ldr	r2, .L22+4
 396 00ba 4A21     		movs	r1, #74
 397 00bc 0F48     		ldr	r0, .L22+8
ARM GAS  /tmp/ccgnzMmM.s 			page 20


 398 00be FFF7FEFF 		bl	__assert_func
 399              	.L20:
  75:Lib/AI_Runtime/Npu/ll_aton/ll_aton_lib_sw_operators.c ****     LL_ATON_ASSERT((((uintptr_t)out_target) % 4) == 0);
 400              		.loc 1 75 5 is_stmt 1
 401 00c2 7B68     		ldr	r3, [r7, #4]
 402 00c4 03F00303 		and	r3, r3, #3
 403 00c8 002B     		cmp	r3, #0
 404 00ca 05D0     		beq	.L21
 405              		.loc 1 75 5 is_stmt 0 discriminator 1
 406 00cc 0E4B     		ldr	r3, .L22+20
 407 00ce 0A4A     		ldr	r2, .L22+4
 408 00d0 4B21     		movs	r1, #75
 409 00d2 0A48     		ldr	r0, .L22+8
 410 00d4 FFF7FEFF 		bl	__assert_func
 411              	.L21:
  76:Lib/AI_Runtime/Npu/ll_aton/ll_aton_lib_sw_operators.c **** 
  77:Lib/AI_Runtime/Npu/ll_aton/ll_aton_lib_sw_operators.c ****     *((int32_t *)out_target) = *((int32_t *)in_target);
 412              		.loc 1 77 32 is_stmt 1
 413 00d8 3B68     		ldr	r3, [r7]
 414 00da 1A68     		ldr	r2, [r3]
 415              		.loc 1 77 30
 416 00dc 7B68     		ldr	r3, [r7, #4]
 417 00de 1A60     		str	r2, [r3]
  78:Lib/AI_Runtime/Npu/ll_aton/ll_aton_lib_sw_operators.c ****     return;
 418              		.loc 1 78 5
 419 00e0 05E0     		b	.L10
 420              	.L11:
  79:Lib/AI_Runtime/Npu/ll_aton/ll_aton_lib_sw_operators.c **** 
  80:Lib/AI_Runtime/Npu/ll_aton/ll_aton_lib_sw_operators.c ****   default:
  81:Lib/AI_Runtime/Npu/ll_aton/ll_aton_lib_sw_operators.c ****     LL_ATON_ASSERT(false);
 421              		.loc 1 81 5
 422 00e2 0A4B     		ldr	r3, .L22+24
 423 00e4 044A     		ldr	r2, .L22+4
 424 00e6 5121     		movs	r1, #81
 425 00e8 0448     		ldr	r0, .L22+8
 426 00ea FFF7FEFF 		bl	__assert_func
 427              	.L10:
  82:Lib/AI_Runtime/Npu/ll_aton/ll_aton_lib_sw_operators.c ****     return;
  83:Lib/AI_Runtime/Npu/ll_aton/ll_aton_lib_sw_operators.c ****   }
  84:Lib/AI_Runtime/Npu/ll_aton/ll_aton_lib_sw_operators.c **** }
 428              		.loc 1 84 1
 429 00ee 1037     		adds	r7, r7, #16
 430              		.cfi_def_cfa_offset 8
 431 00f0 BD46     		mov	sp, r7
 432              		.cfi_def_cfa_register 13
 433              		@ sp needed
 434 00f2 80BD     		pop	{r7, pc}
 435              	.L23:
 436              		.align	2
 437              	.L22:
 438 00f4 00000000 		.word	.LC0
 439 00f8 00000000 		.word	__func__.28
 440 00fc 24000000 		.word	.LC1
 441 0100 5C000000 		.word	.LC2
 442 0104 80000000 		.word	.LC3
 443 0108 A4000000 		.word	.LC4
 444 010c C8000000 		.word	.LC5
ARM GAS  /tmp/ccgnzMmM.s 			page 21


 445              		.cfi_endproc
 446              	.LFE4854:
 448              		.section	.text.__ll_aton_lib_calc_offset,"ax",%progbits
 449              		.align	1
 450              		.syntax unified
 451              		.thumb
 452              		.thumb_func
 454              	__ll_aton_lib_calc_offset:
 455              	.LFB4855:
  85:Lib/AI_Runtime/Npu/ll_aton/ll_aton_lib_sw_operators.c **** 
  86:Lib/AI_Runtime/Npu/ll_aton/ll_aton_lib_sw_operators.c **** static inline uint32_t __ll_aton_lib_calc_offset(uint32_t n, uint32_t c, uint32_t h, uint32_t w, ui
  87:Lib/AI_Runtime/Npu/ll_aton/ll_aton_lib_sw_operators.c ****                                                  uint32_t offset_1, uint32_t offset_2, uint32_t off
  88:Lib/AI_Runtime/Npu/ll_aton/ll_aton_lib_sw_operators.c **** {
 456              		.loc 1 88 1
 457              		.cfi_startproc
 458              		@ args = 16, pretend = 0, frame = 24
 459              		@ frame_needed = 1, uses_anonymous_args = 0
 460              		@ link register save eliminated.
 461 0000 80B4     		push	{r7}
 462              		.cfi_def_cfa_offset 4
 463              		.cfi_offset 7, -4
 464 0002 87B0     		sub	sp, sp, #28
 465              		.cfi_def_cfa_offset 32
 466 0004 00AF     		add	r7, sp, #0
 467              		.cfi_def_cfa_register 7
 468 0006 F860     		str	r0, [r7, #12]
 469 0008 B960     		str	r1, [r7, #8]
 470 000a 7A60     		str	r2, [r7, #4]
 471 000c 3B60     		str	r3, [r7]
  89:Lib/AI_Runtime/Npu/ll_aton/ll_aton_lib_sw_operators.c ****   uint32_t result = 0;
 472              		.loc 1 89 12
 473 000e 0023     		movs	r3, #0
 474 0010 7B61     		str	r3, [r7, #20]
  90:Lib/AI_Runtime/Npu/ll_aton/ll_aton_lib_sw_operators.c **** 
  91:Lib/AI_Runtime/Npu/ll_aton/ll_aton_lib_sw_operators.c ****   result += (n * offset_0);
 475              		.loc 1 91 16
 476 0012 FB68     		ldr	r3, [r7, #12]
 477 0014 3A6A     		ldr	r2, [r7, #32]
 478 0016 02FB03F3 		mul	r3, r2, r3
 479              		.loc 1 91 10
 480 001a 7A69     		ldr	r2, [r7, #20]
 481 001c 1344     		add	r3, r3, r2
 482 001e 7B61     		str	r3, [r7, #20]
  92:Lib/AI_Runtime/Npu/ll_aton/ll_aton_lib_sw_operators.c ****   result += (c * offset_1);
 483              		.loc 1 92 16
 484 0020 BB68     		ldr	r3, [r7, #8]
 485 0022 7A6A     		ldr	r2, [r7, #36]
 486 0024 02FB03F3 		mul	r3, r2, r3
 487              		.loc 1 92 10
 488 0028 7A69     		ldr	r2, [r7, #20]
 489 002a 1344     		add	r3, r3, r2
 490 002c 7B61     		str	r3, [r7, #20]
  93:Lib/AI_Runtime/Npu/ll_aton/ll_aton_lib_sw_operators.c ****   result += (h * offset_2);
 491              		.loc 1 93 16
 492 002e 7B68     		ldr	r3, [r7, #4]
 493 0030 BA6A     		ldr	r2, [r7, #40]
 494 0032 02FB03F3 		mul	r3, r2, r3
ARM GAS  /tmp/ccgnzMmM.s 			page 22


 495              		.loc 1 93 10
 496 0036 7A69     		ldr	r2, [r7, #20]
 497 0038 1344     		add	r3, r3, r2
 498 003a 7B61     		str	r3, [r7, #20]
  94:Lib/AI_Runtime/Npu/ll_aton/ll_aton_lib_sw_operators.c ****   result += (w * offset_3);
 499              		.loc 1 94 16
 500 003c 3B68     		ldr	r3, [r7]
 501 003e FA6A     		ldr	r2, [r7, #44]
 502 0040 02FB03F3 		mul	r3, r2, r3
 503              		.loc 1 94 10
 504 0044 7A69     		ldr	r2, [r7, #20]
 505 0046 1344     		add	r3, r3, r2
 506 0048 7B61     		str	r3, [r7, #20]
  95:Lib/AI_Runtime/Npu/ll_aton/ll_aton_lib_sw_operators.c **** 
  96:Lib/AI_Runtime/Npu/ll_aton/ll_aton_lib_sw_operators.c ****   return result;
 507              		.loc 1 96 10
 508 004a 7B69     		ldr	r3, [r7, #20]
  97:Lib/AI_Runtime/Npu/ll_aton/ll_aton_lib_sw_operators.c **** }
 509              		.loc 1 97 1
 510 004c 1846     		mov	r0, r3
 511 004e 1C37     		adds	r7, r7, #28
 512              		.cfi_def_cfa_offset 4
 513 0050 BD46     		mov	sp, r7
 514              		.cfi_def_cfa_register 13
 515              		@ sp needed
 516 0052 5DF8047B 		ldr	r7, [sp], #4
 517              		.cfi_restore 7
 518              		.cfi_def_cfa_offset 0
 519 0056 7047     		bx	lr
 520              		.cfi_endproc
 521              	.LFE4855:
 523              		.section	.rodata
 524 00ca 0000     		.align	2
 525              	.LC6:
 526 00cc 7265745F 		.ascii	"ret_numerator >= 0\000"
 526      6E756D65 
 526      7261746F 
 526      72203E3D 
 526      203000
 527 00df 00       		.align	2
 528              	.LC7:
 529 00e0 7265745F 		.ascii	"ret_denominator > 0\000"
 529      64656E6F 
 529      6D696E61 
 529      746F7220 
 529      3E203000 
 530              		.section	.text.__ll_aton_lib_is_in_slice,"ax",%progbits
 531              		.align	1
 532              		.syntax unified
 533              		.thumb
 534              		.thumb_func
 536              	__ll_aton_lib_is_in_slice:
 537              	.LFB4856:
  98:Lib/AI_Runtime/Npu/ll_aton/ll_aton_lib_sw_operators.c **** 
  99:Lib/AI_Runtime/Npu/ll_aton/ll_aton_lib_sw_operators.c **** /**
 100:Lib/AI_Runtime/Npu/ll_aton/ll_aton_lib_sw_operators.c ****  * @brief  performs a slice operation on a (multi-dimensional) matrix
 101:Lib/AI_Runtime/Npu/ll_aton/ll_aton_lib_sw_operators.c ****  * @param  input tensor shape structure
ARM GAS  /tmp/ccgnzMmM.s 			page 23


 102:Lib/AI_Runtime/Npu/ll_aton/ll_aton_lib_sw_operators.c ****  * @param  output tensor shape structure
 103:Lib/AI_Runtime/Npu/ll_aton/ll_aton_lib_sw_operators.c ****  * @param  slice_rank rank of slice operation's input matrix
 104:Lib/AI_Runtime/Npu/ll_aton/ll_aton_lib_sw_operators.c ****  * @param  slice_starts 1-D tensor of starting indices of corresponding axis from 0 to rank-1
 105:Lib/AI_Runtime/Npu/ll_aton/ll_aton_lib_sw_operators.c ****  * @param  slice_ends 1-D tensor of ending indices (exclusive) of corresponding axis from 0 to rank
 106:Lib/AI_Runtime/Npu/ll_aton/ll_aton_lib_sw_operators.c ****  * @param  slice_steps 1-D tensor of slice step of corresponding axis from 0 to rank-1
 107:Lib/AI_Runtime/Npu/ll_aton/ll_aton_lib_sw_operators.c ****  * @retval Error code
 108:Lib/AI_Runtime/Npu/ll_aton/ll_aton_lib_sw_operators.c ****  */
 109:Lib/AI_Runtime/Npu/ll_aton/ll_aton_lib_sw_operators.c **** typedef const struct
 110:Lib/AI_Runtime/Npu/ll_aton/ll_aton_lib_sw_operators.c **** {
 111:Lib/AI_Runtime/Npu/ll_aton/ll_aton_lib_sw_operators.c ****   const LL_LIB_TensorShape_TypeDef *input;
 112:Lib/AI_Runtime/Npu/ll_aton/ll_aton_lib_sw_operators.c ****   const uint32_t *input_axes_offsets;
 113:Lib/AI_Runtime/Npu/ll_aton/ll_aton_lib_sw_operators.c ****   const LL_LIB_TensorShape_TypeDef *output;
 114:Lib/AI_Runtime/Npu/ll_aton/ll_aton_lib_sw_operators.c ****   const uint32_t *output_axes_offsets;
 115:Lib/AI_Runtime/Npu/ll_aton/ll_aton_lib_sw_operators.c ****   uint32_t slice_rank;
 116:Lib/AI_Runtime/Npu/ll_aton/ll_aton_lib_sw_operators.c ****   const int32_t *slice_starts;
 117:Lib/AI_Runtime/Npu/ll_aton/ll_aton_lib_sw_operators.c ****   const int32_t *slice_ends;
 118:Lib/AI_Runtime/Npu/ll_aton/ll_aton_lib_sw_operators.c ****   const int32_t *slice_steps;
 119:Lib/AI_Runtime/Npu/ll_aton/ll_aton_lib_sw_operators.c **** } __ll_slice_params_t;
 120:Lib/AI_Runtime/Npu/ll_aton/ll_aton_lib_sw_operators.c **** 
 121:Lib/AI_Runtime/Npu/ll_aton/ll_aton_lib_sw_operators.c **** static inline int32_t __ll_aton_lib_is_in_slice(const __ll_slice_params_t *common_params, __ll_stac
 122:Lib/AI_Runtime/Npu/ll_aton/ll_aton_lib_sw_operators.c **** {
 538              		.loc 1 122 1
 539              		.cfi_startproc
 540              		@ args = 0, pretend = 0, frame = 40
 541              		@ frame_needed = 1, uses_anonymous_args = 0
 542 0000 80B5     		push	{r7, lr}
 543              		.cfi_def_cfa_offset 8
 544              		.cfi_offset 7, -8
 545              		.cfi_offset 14, -4
 546 0002 8AB0     		sub	sp, sp, #40
 547              		.cfi_def_cfa_offset 48
 548 0004 00AF     		add	r7, sp, #0
 549              		.cfi_def_cfa_register 7
 550 0006 7860     		str	r0, [r7, #4]
 551 0008 3960     		str	r1, [r7]
 123:Lib/AI_Runtime/Npu/ll_aton/ll_aton_lib_sw_operators.c ****   uint32_t index = elem->index;
 552              		.loc 1 123 12
 553 000a 3B68     		ldr	r3, [r7]
 554 000c 9B68     		ldr	r3, [r3, #8]
 555 000e BB61     		str	r3, [r7, #24]
 124:Lib/AI_Runtime/Npu/ll_aton/ll_aton_lib_sw_operators.c ****   uint32_t axis = elem->axis;
 556              		.loc 1 124 12
 557 0010 3B68     		ldr	r3, [r7]
 558 0012 5B68     		ldr	r3, [r3, #4]
 559 0014 7B61     		str	r3, [r7, #20]
 125:Lib/AI_Runtime/Npu/ll_aton/ll_aton_lib_sw_operators.c **** 
 126:Lib/AI_Runtime/Npu/ll_aton/ll_aton_lib_sw_operators.c ****   uint8_t slice_forwards = (common_params->slice_steps[axis] < 0) ? 0 : 1;
 560              		.loc 1 126 42
 561 0016 7B68     		ldr	r3, [r7, #4]
 562 0018 DA69     		ldr	r2, [r3, #28]
 563              		.loc 1 126 55
 564 001a 7B69     		ldr	r3, [r7, #20]
 565 001c 9B00     		lsls	r3, r3, #2
 566 001e 1344     		add	r3, r3, r2
 567 0020 1B68     		ldr	r3, [r3]
 568              		.loc 1 126 71
 569 0022 DB43     		mvns	r3, r3
ARM GAS  /tmp/ccgnzMmM.s 			page 24


 570 0024 DB0F     		lsrs	r3, r3, #31
 571 0026 DBB2     		uxtb	r3, r3
 572              		.loc 1 126 11
 573 0028 FB74     		strb	r3, [r7, #19]
 127:Lib/AI_Runtime/Npu/ll_aton/ll_aton_lib_sw_operators.c **** 
 128:Lib/AI_Runtime/Npu/ll_aton/ll_aton_lib_sw_operators.c ****   int32_t ret_numerator;
 129:Lib/AI_Runtime/Npu/ll_aton/ll_aton_lib_sw_operators.c ****   int32_t ret_denominator = abs(common_params->slice_steps[axis]);
 574              		.loc 1 129 46
 575 002a 7B68     		ldr	r3, [r7, #4]
 576 002c DA69     		ldr	r2, [r3, #28]
 577              		.loc 1 129 59
 578 002e 7B69     		ldr	r3, [r7, #20]
 579 0030 9B00     		lsls	r3, r3, #2
 580 0032 1344     		add	r3, r3, r2
 581 0034 1B68     		ldr	r3, [r3]
 582              		.loc 1 129 11
 583 0036 002B     		cmp	r3, #0
 584 0038 B8BF     		it	lt
 585 003a 5B42     		rsblt	r3, r3, #0
 586 003c FB60     		str	r3, [r7, #12]
 130:Lib/AI_Runtime/Npu/ll_aton/ll_aton_lib_sw_operators.c **** 
 131:Lib/AI_Runtime/Npu/ll_aton/ll_aton_lib_sw_operators.c ****   int32_t min;
 132:Lib/AI_Runtime/Npu/ll_aton/ll_aton_lib_sw_operators.c ****   int32_t max;
 133:Lib/AI_Runtime/Npu/ll_aton/ll_aton_lib_sw_operators.c **** 
 134:Lib/AI_Runtime/Npu/ll_aton/ll_aton_lib_sw_operators.c ****   if (slice_forwards)
 587              		.loc 1 134 6
 588 003e FB7C     		ldrb	r3, [r7, #19]	@ zero_extendqisi2
 589 0040 002B     		cmp	r3, #0
 590 0042 18D0     		beq	.L27
 135:Lib/AI_Runtime/Npu/ll_aton/ll_aton_lib_sw_operators.c ****   {
 136:Lib/AI_Runtime/Npu/ll_aton/ll_aton_lib_sw_operators.c ****     ret_numerator = (index - common_params->slice_starts[axis]);
 591              		.loc 1 136 43
 592 0044 7B68     		ldr	r3, [r7, #4]
 593 0046 5A69     		ldr	r2, [r3, #20]
 594              		.loc 1 136 57
 595 0048 7B69     		ldr	r3, [r7, #20]
 596 004a 9B00     		lsls	r3, r3, #2
 597 004c 1344     		add	r3, r3, r2
 598 004e 1B68     		ldr	r3, [r3]
 599 0050 1A46     		mov	r2, r3
 600              		.loc 1 136 28
 601 0052 BB69     		ldr	r3, [r7, #24]
 602 0054 9B1A     		subs	r3, r3, r2
 603              		.loc 1 136 19
 604 0056 7B62     		str	r3, [r7, #36]
 137:Lib/AI_Runtime/Npu/ll_aton/ll_aton_lib_sw_operators.c ****     min = common_params->slice_starts[axis];
 605              		.loc 1 137 24
 606 0058 7B68     		ldr	r3, [r7, #4]
 607 005a 5A69     		ldr	r2, [r3, #20]
 608              		.loc 1 137 38
 609 005c 7B69     		ldr	r3, [r7, #20]
 610 005e 9B00     		lsls	r3, r3, #2
 611 0060 1344     		add	r3, r3, r2
 612              		.loc 1 137 9
 613 0062 1B68     		ldr	r3, [r3]
 614 0064 3B62     		str	r3, [r7, #32]
 138:Lib/AI_Runtime/Npu/ll_aton/ll_aton_lib_sw_operators.c ****     max = common_params->slice_ends[axis];
ARM GAS  /tmp/ccgnzMmM.s 			page 25


 615              		.loc 1 138 24
 616 0066 7B68     		ldr	r3, [r7, #4]
 617 0068 9A69     		ldr	r2, [r3, #24]
 618              		.loc 1 138 36
 619 006a 7B69     		ldr	r3, [r7, #20]
 620 006c 9B00     		lsls	r3, r3, #2
 621 006e 1344     		add	r3, r3, r2
 622              		.loc 1 138 9
 623 0070 1B68     		ldr	r3, [r3]
 624 0072 FB61     		str	r3, [r7, #28]
 625 0074 19E0     		b	.L28
 626              	.L27:
 139:Lib/AI_Runtime/Npu/ll_aton/ll_aton_lib_sw_operators.c ****   }
 140:Lib/AI_Runtime/Npu/ll_aton/ll_aton_lib_sw_operators.c ****   else
 141:Lib/AI_Runtime/Npu/ll_aton/ll_aton_lib_sw_operators.c ****   {
 142:Lib/AI_Runtime/Npu/ll_aton/ll_aton_lib_sw_operators.c ****     ret_numerator = (common_params->slice_starts[axis] - index);
 627              		.loc 1 142 35
 628 0076 7B68     		ldr	r3, [r7, #4]
 629 0078 5A69     		ldr	r2, [r3, #20]
 630              		.loc 1 142 49
 631 007a 7B69     		ldr	r3, [r7, #20]
 632 007c 9B00     		lsls	r3, r3, #2
 633 007e 1344     		add	r3, r3, r2
 634 0080 1B68     		ldr	r3, [r3]
 635 0082 1A46     		mov	r2, r3
 636              		.loc 1 142 56
 637 0084 BB69     		ldr	r3, [r7, #24]
 638 0086 D31A     		subs	r3, r2, r3
 639              		.loc 1 142 19
 640 0088 7B62     		str	r3, [r7, #36]
 143:Lib/AI_Runtime/Npu/ll_aton/ll_aton_lib_sw_operators.c ****     max = common_params->slice_starts[axis] + 1;
 641              		.loc 1 143 24
 642 008a 7B68     		ldr	r3, [r7, #4]
 643 008c 5A69     		ldr	r2, [r3, #20]
 644              		.loc 1 143 38
 645 008e 7B69     		ldr	r3, [r7, #20]
 646 0090 9B00     		lsls	r3, r3, #2
 647 0092 1344     		add	r3, r3, r2
 648 0094 1B68     		ldr	r3, [r3]
 649              		.loc 1 143 9
 650 0096 0133     		adds	r3, r3, #1
 651 0098 FB61     		str	r3, [r7, #28]
 144:Lib/AI_Runtime/Npu/ll_aton/ll_aton_lib_sw_operators.c ****     min = common_params->slice_ends[axis] + 1;
 652              		.loc 1 144 24
 653 009a 7B68     		ldr	r3, [r7, #4]
 654 009c 9A69     		ldr	r2, [r3, #24]
 655              		.loc 1 144 36
 656 009e 7B69     		ldr	r3, [r7, #20]
 657 00a0 9B00     		lsls	r3, r3, #2
 658 00a2 1344     		add	r3, r3, r2
 659 00a4 1B68     		ldr	r3, [r3]
 660              		.loc 1 144 9
 661 00a6 0133     		adds	r3, r3, #1
 662 00a8 3B62     		str	r3, [r7, #32]
 663              	.L28:
 145:Lib/AI_Runtime/Npu/ll_aton/ll_aton_lib_sw_operators.c ****   }
 146:Lib/AI_Runtime/Npu/ll_aton/ll_aton_lib_sw_operators.c **** 
ARM GAS  /tmp/ccgnzMmM.s 			page 26


 147:Lib/AI_Runtime/Npu/ll_aton/ll_aton_lib_sw_operators.c ****   if (((index >= min) && (index < max)) && (ret_numerator % ret_denominator == 0))
 664              		.loc 1 147 15
 665 00aa 3B6A     		ldr	r3, [r7, #32]
 666              		.loc 1 147 6
 667 00ac BA69     		ldr	r2, [r7, #24]
 668 00ae 9A42     		cmp	r2, r3
 669 00b0 24D3     		bcc	.L29
 670              		.loc 1 147 33 discriminator 1
 671 00b2 FB69     		ldr	r3, [r7, #28]
 672              		.loc 1 147 23 discriminator 1
 673 00b4 BA69     		ldr	r2, [r7, #24]
 674 00b6 9A42     		cmp	r2, r3
 675 00b8 20D2     		bcs	.L29
 676              		.loc 1 147 59 discriminator 2
 677 00ba 7B6A     		ldr	r3, [r7, #36]
 678 00bc FA68     		ldr	r2, [r7, #12]
 679 00be 93FBF2F2 		sdiv	r2, r3, r2
 680 00c2 F968     		ldr	r1, [r7, #12]
 681 00c4 01FB02F2 		mul	r2, r1, r2
 682 00c8 9B1A     		subs	r3, r3, r2
 683              		.loc 1 147 41 discriminator 2
 684 00ca 002B     		cmp	r3, #0
 685 00cc 16D1     		bne	.L29
 148:Lib/AI_Runtime/Npu/ll_aton/ll_aton_lib_sw_operators.c ****   {
 149:Lib/AI_Runtime/Npu/ll_aton/ll_aton_lib_sw_operators.c ****     LL_ATON_ASSERT(ret_numerator >= 0);
 686              		.loc 1 149 5
 687 00ce 7B6A     		ldr	r3, [r7, #36]
 688 00d0 002B     		cmp	r3, #0
 689 00d2 05DA     		bge	.L30
 690              		.loc 1 149 5 is_stmt 0 discriminator 1
 691 00d4 0C4B     		ldr	r3, .L33
 692 00d6 0D4A     		ldr	r2, .L33+4
 693 00d8 9521     		movs	r1, #149
 694 00da 0D48     		ldr	r0, .L33+8
 695 00dc FFF7FEFF 		bl	__assert_func
 696              	.L30:
 150:Lib/AI_Runtime/Npu/ll_aton/ll_aton_lib_sw_operators.c ****     LL_ATON_ASSERT(ret_denominator > 0);
 697              		.loc 1 150 5 is_stmt 1
 698 00e0 FB68     		ldr	r3, [r7, #12]
 699 00e2 002B     		cmp	r3, #0
 700 00e4 05DC     		bgt	.L31
 701              		.loc 1 150 5 is_stmt 0 discriminator 1
 702 00e6 0B4B     		ldr	r3, .L33+12
 703 00e8 084A     		ldr	r2, .L33+4
 704 00ea 9621     		movs	r1, #150
 705 00ec 0848     		ldr	r0, .L33+8
 706 00ee FFF7FEFF 		bl	__assert_func
 707              	.L31:
 151:Lib/AI_Runtime/Npu/ll_aton/ll_aton_lib_sw_operators.c **** 
 152:Lib/AI_Runtime/Npu/ll_aton/ll_aton_lib_sw_operators.c ****     return (ret_numerator / ret_denominator);
 708              		.loc 1 152 27 is_stmt 1
 709 00f2 7A6A     		ldr	r2, [r7, #36]
 710 00f4 FB68     		ldr	r3, [r7, #12]
 711 00f6 92FBF3F3 		sdiv	r3, r2, r3
 712 00fa 01E0     		b	.L32
 713              	.L29:
 153:Lib/AI_Runtime/Npu/ll_aton/ll_aton_lib_sw_operators.c ****   }
ARM GAS  /tmp/ccgnzMmM.s 			page 27


 154:Lib/AI_Runtime/Npu/ll_aton/ll_aton_lib_sw_operators.c ****   else
 155:Lib/AI_Runtime/Npu/ll_aton/ll_aton_lib_sw_operators.c ****   {
 156:Lib/AI_Runtime/Npu/ll_aton/ll_aton_lib_sw_operators.c ****     return -1;
 714              		.loc 1 156 12
 715 00fc 4FF0FF33 		mov	r3, #-1
 716              	.L32:
 157:Lib/AI_Runtime/Npu/ll_aton/ll_aton_lib_sw_operators.c ****   }
 158:Lib/AI_Runtime/Npu/ll_aton/ll_aton_lib_sw_operators.c **** }
 717              		.loc 1 158 1
 718 0100 1846     		mov	r0, r3
 719 0102 2837     		adds	r7, r7, #40
 720              		.cfi_def_cfa_offset 8
 721 0104 BD46     		mov	sp, r7
 722              		.cfi_def_cfa_register 13
 723              		@ sp needed
 724 0106 80BD     		pop	{r7, pc}
 725              	.L34:
 726              		.align	2
 727              	.L33:
 728 0108 CC000000 		.word	.LC6
 729 010c 00000000 		.word	__func__.30
 730 0110 24000000 		.word	.LC1
 731 0114 E0000000 		.word	.LC7
 732              		.cfi_endproc
 733              	.LFE4856:
 735              		.section	.rodata
 736              		.align	2
 737              	.LC8:
 738 00f4 6C696E6B 		.ascii	"linked_stack_list != ((void *)0)\000"
 738      65645F73 
 738      7461636B 
 738      5F6C6973 
 738      7420213D 
 739 0115 000000   		.align	2
 740              	.LC9:
 741 0118 6C696E6B 		.ascii	"linked_stack_list->axis == (common_params->slice_ra"
 741      65645F73 
 741      7461636B 
 741      5F6C6973 
 741      742D3E61 
 742 014b 6E6B202D 		.ascii	"nk - 1)\000"
 742      20312900 
 743 0153 00       		.align	2
 744              	.LC10:
 745 0154 656C656D 		.ascii	"elem->axis < (common_params->slice_rank - 1)\000"
 745      2D3E6178 
 745      6973203C 
 745      2028636F 
 745      6D6D6F6E 
 746              		.section	.text.__ll_slice_get_input_and_output_base_pos,"ax",%progbits
 747              		.align	1
 748              		.syntax unified
 749              		.thumb
 750              		.thumb_func
 752              	__ll_slice_get_input_and_output_base_pos:
 753              	.LFB4857:
 159:Lib/AI_Runtime/Npu/ll_aton/ll_aton_lib_sw_operators.c **** 
ARM GAS  /tmp/ccgnzMmM.s 			page 28


 160:Lib/AI_Runtime/Npu/ll_aton/ll_aton_lib_sw_operators.c **** static int8_t *__ll_slice_get_input_and_output_base_pos(const __ll_slice_params_t *common_params,
 161:Lib/AI_Runtime/Npu/ll_aton/ll_aton_lib_sw_operators.c ****                                                         __ll_stack_lnklst_t *linked_stack_list, int
 162:Lib/AI_Runtime/Npu/ll_aton/ll_aton_lib_sw_operators.c **** {
 754              		.loc 1 162 1
 755              		.cfi_startproc
 756              		@ args = 0, pretend = 0, frame = 48
 757              		@ frame_needed = 1, uses_anonymous_args = 0
 758 0000 80B5     		push	{r7, lr}
 759              		.cfi_def_cfa_offset 8
 760              		.cfi_offset 7, -8
 761              		.cfi_offset 14, -4
 762 0002 8CB0     		sub	sp, sp, #48
 763              		.cfi_def_cfa_offset 56
 764 0004 00AF     		add	r7, sp, #0
 765              		.cfi_def_cfa_register 7
 766 0006 F860     		str	r0, [r7, #12]
 767 0008 B960     		str	r1, [r7, #8]
 768 000a 7A60     		str	r2, [r7, #4]
 163:Lib/AI_Runtime/Npu/ll_aton/ll_aton_lib_sw_operators.c ****   LL_ATON_ASSERT(linked_stack_list != NULL);
 769              		.loc 1 163 3
 770 000c BB68     		ldr	r3, [r7, #8]
 771 000e 002B     		cmp	r3, #0
 772 0010 05D1     		bne	.L36
 773              		.loc 1 163 3 is_stmt 0 discriminator 1
 774 0012 354B     		ldr	r3, .L45
 775 0014 354A     		ldr	r2, .L45+4
 776 0016 A321     		movs	r1, #163
 777 0018 3548     		ldr	r0, .L45+8
 778 001a FFF7FEFF 		bl	__assert_func
 779              	.L36:
 164:Lib/AI_Runtime/Npu/ll_aton/ll_aton_lib_sw_operators.c **** 
 165:Lib/AI_Runtime/Npu/ll_aton/ll_aton_lib_sw_operators.c ****   int8_t *in_target = (int8_t *)LL_Buffer_addr_start(common_params->input);
 780              		.loc 1 165 67 is_stmt 1
 781 001e FB68     		ldr	r3, [r7, #12]
 782 0020 1B68     		ldr	r3, [r3]
 783              		.loc 1 165 33
 784 0022 1846     		mov	r0, r3
 785 0024 FFF7FEFF 		bl	LL_Buffer_addr_start
 786 0028 F862     		str	r0, [r7, #44]
 166:Lib/AI_Runtime/Npu/ll_aton/ll_aton_lib_sw_operators.c ****   int8_t *out_target = (int8_t *)LL_Buffer_addr_start(common_params->output);
 787              		.loc 1 166 68
 788 002a FB68     		ldr	r3, [r7, #12]
 789 002c 9B68     		ldr	r3, [r3, #8]
 790              		.loc 1 166 34
 791 002e 1846     		mov	r0, r3
 792 0030 FFF7FEFF 		bl	LL_Buffer_addr_start
 793 0034 B862     		str	r0, [r7, #40]
 167:Lib/AI_Runtime/Npu/ll_aton/ll_aton_lib_sw_operators.c **** 
 168:Lib/AI_Runtime/Npu/ll_aton/ll_aton_lib_sw_operators.c ****   LL_ATON_ASSERT(linked_stack_list->axis == (common_params->slice_rank - 1));
 794              		.loc 1 168 3
 795 0036 BB68     		ldr	r3, [r7, #8]
 796 0038 5A68     		ldr	r2, [r3, #4]
 797 003a FB68     		ldr	r3, [r7, #12]
 798 003c 1B69     		ldr	r3, [r3, #16]
 799 003e 013B     		subs	r3, r3, #1
 800 0040 9A42     		cmp	r2, r3
 801 0042 05D0     		beq	.L37
ARM GAS  /tmp/ccgnzMmM.s 			page 29


 802              		.loc 1 168 3 is_stmt 0 discriminator 1
 803 0044 2B4B     		ldr	r3, .L45+12
 804 0046 294A     		ldr	r2, .L45+4
 805 0048 A821     		movs	r1, #168
 806 004a 2948     		ldr	r0, .L45+8
 807 004c FFF7FEFF 		bl	__assert_func
 808              	.L37:
 809              	.LBB3:
 169:Lib/AI_Runtime/Npu/ll_aton/ll_aton_lib_sw_operators.c **** 
 170:Lib/AI_Runtime/Npu/ll_aton/ll_aton_lib_sw_operators.c ****   for (__ll_stack_lnklst_t *elem = linked_stack_list->back_link; elem != NULL; elem = elem->back_li
 810              		.loc 1 170 29 is_stmt 1
 811 0050 BB68     		ldr	r3, [r7, #8]
 812 0052 1B68     		ldr	r3, [r3]
 813 0054 7B62     		str	r3, [r7, #36]
 814              		.loc 1 170 3
 815 0056 3BE0     		b	.L38
 816              	.L43:
 817              	.LBB4:
 171:Lib/AI_Runtime/Npu/ll_aton/ll_aton_lib_sw_operators.c ****   {
 172:Lib/AI_Runtime/Npu/ll_aton/ll_aton_lib_sw_operators.c ****     LL_ATON_ASSERT(elem->axis < (common_params->slice_rank - 1));
 818              		.loc 1 172 5
 819 0058 7B6A     		ldr	r3, [r7, #36]
 820 005a 5A68     		ldr	r2, [r3, #4]
 821 005c FB68     		ldr	r3, [r7, #12]
 822 005e 1B69     		ldr	r3, [r3, #16]
 823 0060 013B     		subs	r3, r3, #1
 824 0062 9A42     		cmp	r2, r3
 825 0064 05D3     		bcc	.L39
 826              		.loc 1 172 5 is_stmt 0 discriminator 1
 827 0066 244B     		ldr	r3, .L45+16
 828 0068 204A     		ldr	r2, .L45+4
 829 006a AC21     		movs	r1, #172
 830 006c 2048     		ldr	r0, .L45+8
 831 006e FFF7FEFF 		bl	__assert_func
 832              	.L39:
 173:Lib/AI_Runtime/Npu/ll_aton/ll_aton_lib_sw_operators.c ****     uint32_t axis = elem->axis;
 833              		.loc 1 173 14 is_stmt 1
 834 0072 7B6A     		ldr	r3, [r7, #36]
 835 0074 5B68     		ldr	r3, [r3, #4]
 836 0076 3B62     		str	r3, [r7, #32]
 174:Lib/AI_Runtime/Npu/ll_aton/ll_aton_lib_sw_operators.c **** 
 175:Lib/AI_Runtime/Npu/ll_aton/ll_aton_lib_sw_operators.c ****     /* input */
 176:Lib/AI_Runtime/Npu/ll_aton/ll_aton_lib_sw_operators.c ****     int32_t in_axis_size = common_params->input_axes_offsets[axis];
 837              		.loc 1 176 41
 838 0078 FB68     		ldr	r3, [r7, #12]
 839 007a 5A68     		ldr	r2, [r3, #4]
 840              		.loc 1 176 61
 841 007c 3B6A     		ldr	r3, [r7, #32]
 842 007e 9B00     		lsls	r3, r3, #2
 843 0080 1344     		add	r3, r3, r2
 844 0082 1B68     		ldr	r3, [r3]
 845              		.loc 1 176 13
 846 0084 FB61     		str	r3, [r7, #28]
 177:Lib/AI_Runtime/Npu/ll_aton/ll_aton_lib_sw_operators.c ****     in_target += (elem->index * in_axis_size);
 847              		.loc 1 177 23
 848 0086 7B6A     		ldr	r3, [r7, #36]
 849 0088 9B68     		ldr	r3, [r3, #8]
ARM GAS  /tmp/ccgnzMmM.s 			page 30


 850              		.loc 1 177 31
 851 008a FA69     		ldr	r2, [r7, #28]
 852 008c 02FB03F3 		mul	r3, r2, r3
 853              		.loc 1 177 15
 854 0090 FA6A     		ldr	r2, [r7, #44]
 855 0092 1344     		add	r3, r3, r2
 856 0094 FB62     		str	r3, [r7, #44]
 178:Lib/AI_Runtime/Npu/ll_aton/ll_aton_lib_sw_operators.c **** 
 179:Lib/AI_Runtime/Npu/ll_aton/ll_aton_lib_sw_operators.c ****     int32_t out_index;
 180:Lib/AI_Runtime/Npu/ll_aton/ll_aton_lib_sw_operators.c ****     if ((out_index = __ll_aton_lib_is_in_slice(common_params, elem)) >= 0)
 857              		.loc 1 180 22
 858 0096 796A     		ldr	r1, [r7, #36]
 859 0098 F868     		ldr	r0, [r7, #12]
 860 009a FFF7FEFF 		bl	__ll_aton_lib_is_in_slice
 861 009e B861     		str	r0, [r7, #24]
 862              		.loc 1 180 8 discriminator 1
 863 00a0 BB69     		ldr	r3, [r7, #24]
 864 00a2 002B     		cmp	r3, #0
 865 00a4 0FDB     		blt	.L40
 866              	.LBB5:
 181:Lib/AI_Runtime/Npu/ll_aton/ll_aton_lib_sw_operators.c ****     {
 182:Lib/AI_Runtime/Npu/ll_aton/ll_aton_lib_sw_operators.c ****       /* output */
 183:Lib/AI_Runtime/Npu/ll_aton/ll_aton_lib_sw_operators.c ****       int32_t out_axis_size = common_params->output_axes_offsets[axis];
 867              		.loc 1 183 44
 868 00a6 FB68     		ldr	r3, [r7, #12]
 869 00a8 DA68     		ldr	r2, [r3, #12]
 870              		.loc 1 183 65
 871 00aa 3B6A     		ldr	r3, [r7, #32]
 872 00ac 9B00     		lsls	r3, r3, #2
 873 00ae 1344     		add	r3, r3, r2
 874 00b0 1B68     		ldr	r3, [r3]
 875              		.loc 1 183 15
 876 00b2 7B61     		str	r3, [r7, #20]
 184:Lib/AI_Runtime/Npu/ll_aton/ll_aton_lib_sw_operators.c ****       out_target += (out_index * out_axis_size);
 877              		.loc 1 184 32
 878 00b4 BB69     		ldr	r3, [r7, #24]
 879 00b6 7A69     		ldr	r2, [r7, #20]
 880 00b8 02FB03F3 		mul	r3, r2, r3
 881 00bc 1A46     		mov	r2, r3
 882              		.loc 1 184 18
 883 00be BB6A     		ldr	r3, [r7, #40]
 884 00c0 1344     		add	r3, r3, r2
 885 00c2 BB62     		str	r3, [r7, #40]
 886              	.LBE5:
 887 00c4 01E0     		b	.L44
 888              	.L40:
 185:Lib/AI_Runtime/Npu/ll_aton/ll_aton_lib_sw_operators.c ****     }
 186:Lib/AI_Runtime/Npu/ll_aton/ll_aton_lib_sw_operators.c ****     else
 187:Lib/AI_Runtime/Npu/ll_aton/ll_aton_lib_sw_operators.c ****     {
 188:Lib/AI_Runtime/Npu/ll_aton/ll_aton_lib_sw_operators.c ****       return NULL;
 889              		.loc 1 188 14
 890 00c6 0023     		movs	r3, #0
 891 00c8 09E0     		b	.L42
 892              	.L44:
 893              	.LBE4:
 170:Lib/AI_Runtime/Npu/ll_aton/ll_aton_lib_sw_operators.c ****   {
 894              		.loc 1 170 85 discriminator 2
ARM GAS  /tmp/ccgnzMmM.s 			page 31


 895 00ca 7B6A     		ldr	r3, [r7, #36]
 896 00cc 1B68     		ldr	r3, [r3]
 897 00ce 7B62     		str	r3, [r7, #36]
 898              	.L38:
 170:Lib/AI_Runtime/Npu/ll_aton/ll_aton_lib_sw_operators.c ****   {
 899              		.loc 1 170 71 discriminator 1
 900 00d0 7B6A     		ldr	r3, [r7, #36]
 901 00d2 002B     		cmp	r3, #0
 902 00d4 C0D1     		bne	.L43
 903              	.LBE3:
 189:Lib/AI_Runtime/Npu/ll_aton/ll_aton_lib_sw_operators.c ****     }
 190:Lib/AI_Runtime/Npu/ll_aton/ll_aton_lib_sw_operators.c ****   }
 191:Lib/AI_Runtime/Npu/ll_aton/ll_aton_lib_sw_operators.c **** 
 192:Lib/AI_Runtime/Npu/ll_aton/ll_aton_lib_sw_operators.c ****   *base_in_target = in_target;
 904              		.loc 1 192 19
 905 00d6 7B68     		ldr	r3, [r7, #4]
 906 00d8 FA6A     		ldr	r2, [r7, #44]
 907 00da 1A60     		str	r2, [r3]
 193:Lib/AI_Runtime/Npu/ll_aton/ll_aton_lib_sw_operators.c ****   return out_target;
 908              		.loc 1 193 10
 909 00dc BB6A     		ldr	r3, [r7, #40]
 910              	.L42:
 194:Lib/AI_Runtime/Npu/ll_aton/ll_aton_lib_sw_operators.c **** }
 911              		.loc 1 194 1
 912 00de 1846     		mov	r0, r3
 913 00e0 3037     		adds	r7, r7, #48
 914              		.cfi_def_cfa_offset 8
 915 00e2 BD46     		mov	sp, r7
 916              		.cfi_def_cfa_register 13
 917              		@ sp needed
 918 00e4 80BD     		pop	{r7, pc}
 919              	.L46:
 920 00e6 00BF     		.align	2
 921              	.L45:
 922 00e8 F4000000 		.word	.LC8
 923 00ec 00000000 		.word	__func__.31
 924 00f0 24000000 		.word	.LC1
 925 00f4 18010000 		.word	.LC9
 926 00f8 54010000 		.word	.LC10
 927              		.cfi_endproc
 928              	.LFE4857:
 930              		.section	.text.__ll_slice_copy_elem,"ax",%progbits
 931              		.align	1
 932              		.syntax unified
 933              		.thumb
 934              		.thumb_func
 936              	__ll_slice_copy_elem:
 937              	.LFB4858:
 195:Lib/AI_Runtime/Npu/ll_aton/ll_aton_lib_sw_operators.c **** 
 196:Lib/AI_Runtime/Npu/ll_aton/ll_aton_lib_sw_operators.c **** static inline void __ll_slice_copy_elem(const __ll_slice_params_t *common_params,
 197:Lib/AI_Runtime/Npu/ll_aton/ll_aton_lib_sw_operators.c ****                                         __ll_stack_lnklst_t *linked_stack_list, uint32_t in_offset,
 198:Lib/AI_Runtime/Npu/ll_aton/ll_aton_lib_sw_operators.c ****                                         int8_t *base_in_target, int8_t *base_out_target)
 199:Lib/AI_Runtime/Npu/ll_aton/ll_aton_lib_sw_operators.c **** {
 938              		.loc 1 199 1
 939              		.cfi_startproc
 940              		@ args = 8, pretend = 0, frame = 32
 941              		@ frame_needed = 1, uses_anonymous_args = 0
ARM GAS  /tmp/ccgnzMmM.s 			page 32


 942 0000 80B5     		push	{r7, lr}
 943              		.cfi_def_cfa_offset 8
 944              		.cfi_offset 7, -8
 945              		.cfi_offset 14, -4
 946 0002 88B0     		sub	sp, sp, #32
 947              		.cfi_def_cfa_offset 40
 948 0004 00AF     		add	r7, sp, #0
 949              		.cfi_def_cfa_register 7
 950 0006 F860     		str	r0, [r7, #12]
 951 0008 B960     		str	r1, [r7, #8]
 952 000a 7A60     		str	r2, [r7, #4]
 953 000c 3B60     		str	r3, [r7]
 200:Lib/AI_Runtime/Npu/ll_aton/ll_aton_lib_sw_operators.c ****   const uint8_t byte_size = LL_LIB_NBYTES(common_params->input->nbits);
 954              		.loc 1 200 29
 955 000e FB68     		ldr	r3, [r7, #12]
 956 0010 1B68     		ldr	r3, [r3]
 957 0012 93F82830 		ldrb	r3, [r3, #40]	@ zero_extendqisi2
 958 0016 0733     		adds	r3, r3, #7
 959 0018 DB10     		asrs	r3, r3, #3
 960              		.loc 1 200 17
 961 001a FB77     		strb	r3, [r7, #31]
 201:Lib/AI_Runtime/Npu/ll_aton/ll_aton_lib_sw_operators.c **** 
 202:Lib/AI_Runtime/Npu/ll_aton/ll_aton_lib_sw_operators.c ****   int32_t out_index;
 203:Lib/AI_Runtime/Npu/ll_aton/ll_aton_lib_sw_operators.c ****   if ((out_index = __ll_aton_lib_is_in_slice(common_params, linked_stack_list)) >= 0)
 962              		.loc 1 203 20
 963 001c B968     		ldr	r1, [r7, #8]
 964 001e F868     		ldr	r0, [r7, #12]
 965 0020 FFF7FEFF 		bl	__ll_aton_lib_is_in_slice
 966 0024 B861     		str	r0, [r7, #24]
 967              		.loc 1 203 6 discriminator 1
 968 0026 BB69     		ldr	r3, [r7, #24]
 969 0028 002B     		cmp	r3, #0
 970 002a 14DB     		blt	.L49
 971              	.LBB6:
 204:Lib/AI_Runtime/Npu/ll_aton/ll_aton_lib_sw_operators.c ****   {
 205:Lib/AI_Runtime/Npu/ll_aton/ll_aton_lib_sw_operators.c ****     /* determine input/output position */
 206:Lib/AI_Runtime/Npu/ll_aton/ll_aton_lib_sw_operators.c ****     int8_t *in_target = base_in_target + (linked_stack_list->index * in_offset);
 972              		.loc 1 206 60
 973 002c BB68     		ldr	r3, [r7, #8]
 974 002e 9B68     		ldr	r3, [r3, #8]
 975              		.loc 1 206 68
 976 0030 7A68     		ldr	r2, [r7, #4]
 977 0032 02FB03F3 		mul	r3, r2, r3
 978              		.loc 1 206 13
 979 0036 BA6A     		ldr	r2, [r7, #40]
 980 0038 1344     		add	r3, r3, r2
 981 003a 7B61     		str	r3, [r7, #20]
 207:Lib/AI_Runtime/Npu/ll_aton/ll_aton_lib_sw_operators.c ****     int8_t *out_target = base_out_target + (out_index * out_offset);
 982              		.loc 1 207 55
 983 003c BB69     		ldr	r3, [r7, #24]
 984 003e 3A68     		ldr	r2, [r7]
 985 0040 02FB03F3 		mul	r3, r2, r3
 986              		.loc 1 207 13
 987 0044 FA6A     		ldr	r2, [r7, #44]
 988 0046 1344     		add	r3, r3, r2
 989 0048 3B61     		str	r3, [r7, #16]
 208:Lib/AI_Runtime/Npu/ll_aton/ll_aton_lib_sw_operators.c **** 
ARM GAS  /tmp/ccgnzMmM.s 			page 33


 209:Lib/AI_Runtime/Npu/ll_aton/ll_aton_lib_sw_operators.c ****     __ll_aton_lib_copy_element(byte_size, out_index, out_target, in_target);
 990              		.loc 1 209 5
 991 004a F87F     		ldrb	r0, [r7, #31]	@ zero_extendqisi2
 992 004c 7B69     		ldr	r3, [r7, #20]
 993 004e 3A69     		ldr	r2, [r7, #16]
 994 0050 B969     		ldr	r1, [r7, #24]
 995 0052 FFF7FEFF 		bl	__ll_aton_lib_copy_element
 996              	.L49:
 997              	.LBE6:
 210:Lib/AI_Runtime/Npu/ll_aton/ll_aton_lib_sw_operators.c ****   }
 211:Lib/AI_Runtime/Npu/ll_aton/ll_aton_lib_sw_operators.c **** }
 998              		.loc 1 211 1
 999 0056 00BF     		nop
 1000 0058 2037     		adds	r7, r7, #32
 1001              		.cfi_def_cfa_offset 8
 1002 005a BD46     		mov	sp, r7
 1003              		.cfi_def_cfa_register 13
 1004              		@ sp needed
 1005 005c 80BD     		pop	{r7, pc}
 1006              		.cfi_endproc
 1007              	.LFE4858:
 1009              		.section	.rodata
 1010 0181 000000   		.align	2
 1011              	.LC11:
 1012 0184 63757272 		.ascii	"curr_in_axis == (common_params->slice_rank - 1)\000"
 1012      5F696E5F 
 1012      61786973 
 1012      203D3D20 
 1012      28636F6D 
 1013              		.section	.text.__ll_aton_lib_slice,"ax",%progbits
 1014              		.align	1
 1015              		.syntax unified
 1016              		.thumb
 1017              		.thumb_func
 1019              	__ll_aton_lib_slice:
 1020              	.LFB4859:
 212:Lib/AI_Runtime/Npu/ll_aton/ll_aton_lib_sw_operators.c **** 
 213:Lib/AI_Runtime/Npu/ll_aton/ll_aton_lib_sw_operators.c **** static void __ll_aton_lib_slice(uint32_t curr_in_axis, __ll_stack_lnklst_t *back_link,
 214:Lib/AI_Runtime/Npu/ll_aton/ll_aton_lib_sw_operators.c ****                                 const __ll_slice_params_t *common_params)
 215:Lib/AI_Runtime/Npu/ll_aton/ll_aton_lib_sw_operators.c **** {
 1021              		.loc 1 215 1
 1022              		.cfi_startproc
 1023              		@ args = 0, pretend = 0, frame = 56
 1024              		@ frame_needed = 1, uses_anonymous_args = 0
 1025 0000 80B5     		push	{r7, lr}
 1026              		.cfi_def_cfa_offset 8
 1027              		.cfi_offset 7, -8
 1028              		.cfi_offset 14, -4
 1029 0002 90B0     		sub	sp, sp, #64
 1030              		.cfi_def_cfa_offset 72
 1031 0004 02AF     		add	r7, sp, #8
 1032              		.cfi_def_cfa 7, 64
 1033 0006 F860     		str	r0, [r7, #12]
 1034 0008 B960     		str	r1, [r7, #8]
 1035 000a 7A60     		str	r2, [r7, #4]
 216:Lib/AI_Runtime/Npu/ll_aton/ll_aton_lib_sw_operators.c ****   uint8_t slice_forwards = (common_params->slice_steps[curr_in_axis] < 0) ? 0 : 1;
 1036              		.loc 1 216 42
ARM GAS  /tmp/ccgnzMmM.s 			page 34


 1037 000c 7B68     		ldr	r3, [r7, #4]
 1038 000e DA69     		ldr	r2, [r3, #28]
 1039              		.loc 1 216 55
 1040 0010 FB68     		ldr	r3, [r7, #12]
 1041 0012 9B00     		lsls	r3, r3, #2
 1042 0014 1344     		add	r3, r3, r2
 1043 0016 1B68     		ldr	r3, [r3]
 1044              		.loc 1 216 79
 1045 0018 DB43     		mvns	r3, r3
 1046 001a DB0F     		lsrs	r3, r3, #31
 1047 001c DBB2     		uxtb	r3, r3
 1048              		.loc 1 216 11
 1049 001e 87F83730 		strb	r3, [r7, #55]
 217:Lib/AI_Runtime/Npu/ll_aton/ll_aton_lib_sw_operators.c ****   __ll_stack_lnklst_t linked_stack_list = {
 1050              		.loc 1 217 23
 1051 0022 BB68     		ldr	r3, [r7, #8]
 1052 0024 BB61     		str	r3, [r7, #24]
 1053 0026 FB68     		ldr	r3, [r7, #12]
 1054 0028 FB61     		str	r3, [r7, #28]
 218:Lib/AI_Runtime/Npu/ll_aton/ll_aton_lib_sw_operators.c ****       .back_link = back_link, .axis = curr_in_axis, .index = common_params->slice_starts[curr_in_ax
 1055              		.loc 1 218 75
 1056 002a 7B68     		ldr	r3, [r7, #4]
 1057 002c 5A69     		ldr	r2, [r3, #20]
 1058              		.loc 1 218 89
 1059 002e FB68     		ldr	r3, [r7, #12]
 1060 0030 9B00     		lsls	r3, r3, #2
 1061 0032 1344     		add	r3, r3, r2
 1062 0034 1B68     		ldr	r3, [r3]
 217:Lib/AI_Runtime/Npu/ll_aton/ll_aton_lib_sw_operators.c ****   __ll_stack_lnklst_t linked_stack_list = {
 1063              		.loc 1 217 23
 1064 0036 3B62     		str	r3, [r7, #32]
 219:Lib/AI_Runtime/Npu/ll_aton/ll_aton_lib_sw_operators.c **** 
 220:Lib/AI_Runtime/Npu/ll_aton/ll_aton_lib_sw_operators.c ****   const uint32_t index_end = common_params->slice_ends[curr_in_axis];
 1065              		.loc 1 220 43
 1066 0038 7B68     		ldr	r3, [r7, #4]
 1067 003a 9A69     		ldr	r2, [r3, #24]
 1068              		.loc 1 220 55
 1069 003c FB68     		ldr	r3, [r7, #12]
 1070 003e 9B00     		lsls	r3, r3, #2
 1071 0040 1344     		add	r3, r3, r2
 1072 0042 1B68     		ldr	r3, [r3]
 1073              		.loc 1 220 18
 1074 0044 3B63     		str	r3, [r7, #48]
 221:Lib/AI_Runtime/Npu/ll_aton/ll_aton_lib_sw_operators.c **** 
 222:Lib/AI_Runtime/Npu/ll_aton/ll_aton_lib_sw_operators.c ****   if (curr_in_axis < (common_params->slice_rank - 1))
 1075              		.loc 1 222 36
 1076 0046 7B68     		ldr	r3, [r7, #4]
 1077 0048 1B69     		ldr	r3, [r3, #16]
 1078              		.loc 1 222 49
 1079 004a 013B     		subs	r3, r3, #1
 1080              		.loc 1 222 6
 1081 004c FA68     		ldr	r2, [r7, #12]
 1082 004e 9A42     		cmp	r2, r3
 1083 0050 24D2     		bcs	.L51
 223:Lib/AI_Runtime/Npu/ll_aton/ll_aton_lib_sw_operators.c ****   { // intermediate axis
 224:Lib/AI_Runtime/Npu/ll_aton/ll_aton_lib_sw_operators.c ****     if (slice_forwards)
 1084              		.loc 1 224 8
ARM GAS  /tmp/ccgnzMmM.s 			page 35


 1085 0052 97F83730 		ldrb	r3, [r7, #55]	@ zero_extendqisi2
 1086 0056 002B     		cmp	r3, #0
 1087 0058 10D0     		beq	.L52
 225:Lib/AI_Runtime/Npu/ll_aton/ll_aton_lib_sw_operators.c ****     { // slicing forwards
 226:Lib/AI_Runtime/Npu/ll_aton/ll_aton_lib_sw_operators.c ****       for (; linked_stack_list.index < index_end; linked_stack_list.index++)
 1088              		.loc 1 226 7
 1089 005a 0AE0     		b	.L53
 1090              	.L54:
 227:Lib/AI_Runtime/Npu/ll_aton/ll_aton_lib_sw_operators.c ****       {
 228:Lib/AI_Runtime/Npu/ll_aton/ll_aton_lib_sw_operators.c ****         __ll_aton_lib_slice(curr_in_axis + 1, &linked_stack_list, common_params);
 1091              		.loc 1 228 9
 1092 005c FB68     		ldr	r3, [r7, #12]
 1093 005e 0133     		adds	r3, r3, #1
 1094 0060 07F11801 		add	r1, r7, #24
 1095 0064 7A68     		ldr	r2, [r7, #4]
 1096 0066 1846     		mov	r0, r3
 1097 0068 FFF7CAFF 		bl	__ll_aton_lib_slice
 226:Lib/AI_Runtime/Npu/ll_aton/ll_aton_lib_sw_operators.c ****       {
 1098              		.loc 1 226 68 discriminator 2
 1099 006c 3B6A     		ldr	r3, [r7, #32]
 226:Lib/AI_Runtime/Npu/ll_aton/ll_aton_lib_sw_operators.c ****       {
 1100              		.loc 1 226 74 discriminator 2
 1101 006e 0133     		adds	r3, r3, #1
 1102 0070 3B62     		str	r3, [r7, #32]
 1103              	.L53:
 226:Lib/AI_Runtime/Npu/ll_aton/ll_aton_lib_sw_operators.c ****       {
 1104              		.loc 1 226 31 discriminator 1
 1105 0072 3B6A     		ldr	r3, [r7, #32]
 226:Lib/AI_Runtime/Npu/ll_aton/ll_aton_lib_sw_operators.c ****       {
 1106              		.loc 1 226 38 discriminator 1
 1107 0074 3A6B     		ldr	r2, [r7, #48]
 1108 0076 9A42     		cmp	r2, r3
 1109 0078 F0D8     		bhi	.L54
 1110 007a 5FE0     		b	.L50
 1111              	.L52:
 229:Lib/AI_Runtime/Npu/ll_aton/ll_aton_lib_sw_operators.c ****       }
 230:Lib/AI_Runtime/Npu/ll_aton/ll_aton_lib_sw_operators.c ****     }
 231:Lib/AI_Runtime/Npu/ll_aton/ll_aton_lib_sw_operators.c ****     else
 232:Lib/AI_Runtime/Npu/ll_aton/ll_aton_lib_sw_operators.c ****     { // slicing backwards
 233:Lib/AI_Runtime/Npu/ll_aton/ll_aton_lib_sw_operators.c ****       do
 234:Lib/AI_Runtime/Npu/ll_aton/ll_aton_lib_sw_operators.c ****       {
 235:Lib/AI_Runtime/Npu/ll_aton/ll_aton_lib_sw_operators.c ****         __ll_aton_lib_slice(curr_in_axis + 1, &linked_stack_list, common_params);
 1112              		.loc 1 235 9
 1113 007c FB68     		ldr	r3, [r7, #12]
 1114 007e 0133     		adds	r3, r3, #1
 1115 0080 07F11801 		add	r1, r7, #24
 1116 0084 7A68     		ldr	r2, [r7, #4]
 1117 0086 1846     		mov	r0, r3
 1118 0088 FFF7BAFF 		bl	__ll_aton_lib_slice
 236:Lib/AI_Runtime/Npu/ll_aton/ll_aton_lib_sw_operators.c ****         linked_stack_list.index--;
 1119              		.loc 1 236 26
 1120 008c 3B6A     		ldr	r3, [r7, #32]
 1121              		.loc 1 236 32
 1122 008e 013B     		subs	r3, r3, #1
 1123 0090 3B62     		str	r3, [r7, #32]
 237:Lib/AI_Runtime/Npu/ll_aton/ll_aton_lib_sw_operators.c ****       } while (linked_stack_list.index > index_end);
 1124              		.loc 1 237 33 discriminator 1
ARM GAS  /tmp/ccgnzMmM.s 			page 36


 1125 0092 3B6A     		ldr	r3, [r7, #32]
 1126              		.loc 1 237 40 discriminator 1
 1127 0094 3A6B     		ldr	r2, [r7, #48]
 1128 0096 9A42     		cmp	r2, r3
 1129 0098 F0D3     		bcc	.L52
 1130 009a 4FE0     		b	.L50
 1131              	.L51:
 1132              	.LBB7:
 238:Lib/AI_Runtime/Npu/ll_aton/ll_aton_lib_sw_operators.c ****     }
 239:Lib/AI_Runtime/Npu/ll_aton/ll_aton_lib_sw_operators.c ****   }
 240:Lib/AI_Runtime/Npu/ll_aton/ll_aton_lib_sw_operators.c ****   else
 241:Lib/AI_Runtime/Npu/ll_aton/ll_aton_lib_sw_operators.c ****   { // last axis
 242:Lib/AI_Runtime/Npu/ll_aton/ll_aton_lib_sw_operators.c ****     LL_ATON_ASSERT(curr_in_axis == (common_params->slice_rank - 1));
 1133              		.loc 1 242 5
 1134 009c 7B68     		ldr	r3, [r7, #4]
 1135 009e 1B69     		ldr	r3, [r3, #16]
 1136 00a0 013B     		subs	r3, r3, #1
 1137 00a2 FA68     		ldr	r2, [r7, #12]
 1138 00a4 9A42     		cmp	r2, r3
 1139 00a6 05D0     		beq	.L56
 1140              		.loc 1 242 5 is_stmt 0 discriminator 1
 1141 00a8 264B     		ldr	r3, .L63
 1142 00aa 274A     		ldr	r2, .L63+4
 1143 00ac F221     		movs	r1, #242
 1144 00ae 2748     		ldr	r0, .L63+8
 1145 00b0 FFF7FEFF 		bl	__assert_func
 1146              	.L56:
 243:Lib/AI_Runtime/Npu/ll_aton/ll_aton_lib_sw_operators.c **** 
 244:Lib/AI_Runtime/Npu/ll_aton/ll_aton_lib_sw_operators.c ****     /* Calculate input base positions */
 245:Lib/AI_Runtime/Npu/ll_aton/ll_aton_lib_sw_operators.c ****     int8_t *base_in_target;
 246:Lib/AI_Runtime/Npu/ll_aton/ll_aton_lib_sw_operators.c ****     int8_t *base_out_target =
 247:Lib/AI_Runtime/Npu/ll_aton/ll_aton_lib_sw_operators.c ****         __ll_slice_get_input_and_output_base_pos(common_params, &linked_stack_list, &base_in_target
 1147              		.loc 1 247 9 is_stmt 1
 1148 00b4 07F11402 		add	r2, r7, #20
 1149 00b8 07F11803 		add	r3, r7, #24
 1150 00bc 1946     		mov	r1, r3
 1151 00be 7868     		ldr	r0, [r7, #4]
 1152 00c0 FFF7FEFF 		bl	__ll_slice_get_input_and_output_base_pos
 1153 00c4 F862     		str	r0, [r7, #44]
 248:Lib/AI_Runtime/Npu/ll_aton/ll_aton_lib_sw_operators.c **** 
 249:Lib/AI_Runtime/Npu/ll_aton/ll_aton_lib_sw_operators.c ****     if (base_out_target == NULL)
 1154              		.loc 1 249 8
 1155 00c6 FB6A     		ldr	r3, [r7, #44]
 1156 00c8 002B     		cmp	r3, #0
 1157 00ca 37D0     		beq	.L50
 250:Lib/AI_Runtime/Npu/ll_aton/ll_aton_lib_sw_operators.c ****       return;
 251:Lib/AI_Runtime/Npu/ll_aton/ll_aton_lib_sw_operators.c **** 
 252:Lib/AI_Runtime/Npu/ll_aton/ll_aton_lib_sw_operators.c ****     uint32_t curr_in_axis_input_offset = common_params->input_axes_offsets[curr_in_axis];
 1158              		.loc 1 252 55
 1159 00cc 7B68     		ldr	r3, [r7, #4]
 1160 00ce 5A68     		ldr	r2, [r3, #4]
 1161              		.loc 1 252 75
 1162 00d0 FB68     		ldr	r3, [r7, #12]
 1163 00d2 9B00     		lsls	r3, r3, #2
 1164 00d4 1344     		add	r3, r3, r2
 1165              		.loc 1 252 14
 1166 00d6 1B68     		ldr	r3, [r3]
ARM GAS  /tmp/ccgnzMmM.s 			page 37


 1167 00d8 BB62     		str	r3, [r7, #40]
 253:Lib/AI_Runtime/Npu/ll_aton/ll_aton_lib_sw_operators.c ****     uint32_t curr_in_axis_output_offset = common_params->output_axes_offsets[curr_in_axis];
 1168              		.loc 1 253 56
 1169 00da 7B68     		ldr	r3, [r7, #4]
 1170 00dc DA68     		ldr	r2, [r3, #12]
 1171              		.loc 1 253 77
 1172 00de FB68     		ldr	r3, [r7, #12]
 1173 00e0 9B00     		lsls	r3, r3, #2
 1174 00e2 1344     		add	r3, r3, r2
 1175              		.loc 1 253 14
 1176 00e4 1B68     		ldr	r3, [r3]
 1177 00e6 7B62     		str	r3, [r7, #36]
 254:Lib/AI_Runtime/Npu/ll_aton/ll_aton_lib_sw_operators.c **** 
 255:Lib/AI_Runtime/Npu/ll_aton/ll_aton_lib_sw_operators.c ****     if (slice_forwards)
 1178              		.loc 1 255 8
 1179 00e8 97F83730 		ldrb	r3, [r7, #55]	@ zero_extendqisi2
 1180 00ec 002B     		cmp	r3, #0
 1181 00ee 13D0     		beq	.L59
 256:Lib/AI_Runtime/Npu/ll_aton/ll_aton_lib_sw_operators.c ****     { // slicing forwards
 257:Lib/AI_Runtime/Npu/ll_aton/ll_aton_lib_sw_operators.c ****       for (; linked_stack_list.index < index_end; linked_stack_list.index++)
 1182              		.loc 1 257 7
 1183 00f0 0DE0     		b	.L60
 1184              	.L61:
 258:Lib/AI_Runtime/Npu/ll_aton/ll_aton_lib_sw_operators.c ****       {
 259:Lib/AI_Runtime/Npu/ll_aton/ll_aton_lib_sw_operators.c ****         __ll_slice_copy_elem(common_params, &linked_stack_list, curr_in_axis_input_offset, curr_in_
 1185              		.loc 1 259 9
 1186 00f2 7B69     		ldr	r3, [r7, #20]
 1187 00f4 07F11801 		add	r1, r7, #24
 1188 00f8 FA6A     		ldr	r2, [r7, #44]
 1189 00fa 0192     		str	r2, [sp, #4]
 1190 00fc 0093     		str	r3, [sp]
 1191 00fe 7B6A     		ldr	r3, [r7, #36]
 1192 0100 BA6A     		ldr	r2, [r7, #40]
 1193 0102 7868     		ldr	r0, [r7, #4]
 1194 0104 FFF7FEFF 		bl	__ll_slice_copy_elem
 257:Lib/AI_Runtime/Npu/ll_aton/ll_aton_lib_sw_operators.c ****       {
 1195              		.loc 1 257 68 discriminator 2
 1196 0108 3B6A     		ldr	r3, [r7, #32]
 257:Lib/AI_Runtime/Npu/ll_aton/ll_aton_lib_sw_operators.c ****       {
 1197              		.loc 1 257 74 discriminator 2
 1198 010a 0133     		adds	r3, r3, #1
 1199 010c 3B62     		str	r3, [r7, #32]
 1200              	.L60:
 257:Lib/AI_Runtime/Npu/ll_aton/ll_aton_lib_sw_operators.c ****       {
 1201              		.loc 1 257 31 discriminator 1
 1202 010e 3B6A     		ldr	r3, [r7, #32]
 257:Lib/AI_Runtime/Npu/ll_aton/ll_aton_lib_sw_operators.c ****       {
 1203              		.loc 1 257 38 discriminator 1
 1204 0110 3A6B     		ldr	r2, [r7, #48]
 1205 0112 9A42     		cmp	r2, r3
 1206 0114 EDD8     		bhi	.L61
 1207 0116 11E0     		b	.L50
 1208              	.L59:
 260:Lib/AI_Runtime/Npu/ll_aton/ll_aton_lib_sw_operators.c ****                              base_in_target, base_out_target);
 261:Lib/AI_Runtime/Npu/ll_aton/ll_aton_lib_sw_operators.c ****       }
 262:Lib/AI_Runtime/Npu/ll_aton/ll_aton_lib_sw_operators.c ****     }
 263:Lib/AI_Runtime/Npu/ll_aton/ll_aton_lib_sw_operators.c ****     else
ARM GAS  /tmp/ccgnzMmM.s 			page 38


 264:Lib/AI_Runtime/Npu/ll_aton/ll_aton_lib_sw_operators.c ****     { // slicing backwards
 265:Lib/AI_Runtime/Npu/ll_aton/ll_aton_lib_sw_operators.c ****       do
 266:Lib/AI_Runtime/Npu/ll_aton/ll_aton_lib_sw_operators.c ****       {
 267:Lib/AI_Runtime/Npu/ll_aton/ll_aton_lib_sw_operators.c ****         __ll_slice_copy_elem(common_params, &linked_stack_list, curr_in_axis_input_offset, curr_in_
 1209              		.loc 1 267 9
 1210 0118 7B69     		ldr	r3, [r7, #20]
 1211 011a 07F11801 		add	r1, r7, #24
 1212 011e FA6A     		ldr	r2, [r7, #44]
 1213 0120 0192     		str	r2, [sp, #4]
 1214 0122 0093     		str	r3, [sp]
 1215 0124 7B6A     		ldr	r3, [r7, #36]
 1216 0126 BA6A     		ldr	r2, [r7, #40]
 1217 0128 7868     		ldr	r0, [r7, #4]
 1218 012a FFF7FEFF 		bl	__ll_slice_copy_elem
 268:Lib/AI_Runtime/Npu/ll_aton/ll_aton_lib_sw_operators.c ****                              base_in_target, base_out_target);
 269:Lib/AI_Runtime/Npu/ll_aton/ll_aton_lib_sw_operators.c ****         linked_stack_list.index--;
 1219              		.loc 1 269 26
 1220 012e 3B6A     		ldr	r3, [r7, #32]
 1221              		.loc 1 269 32
 1222 0130 013B     		subs	r3, r3, #1
 1223 0132 3B62     		str	r3, [r7, #32]
 270:Lib/AI_Runtime/Npu/ll_aton/ll_aton_lib_sw_operators.c ****       } while (linked_stack_list.index > index_end);
 1224              		.loc 1 270 33 discriminator 1
 1225 0134 3B6A     		ldr	r3, [r7, #32]
 1226              		.loc 1 270 40 discriminator 1
 1227 0136 3A6B     		ldr	r2, [r7, #48]
 1228 0138 9A42     		cmp	r2, r3
 1229 013a EDD3     		bcc	.L59
 1230              	.L50:
 1231              	.LBE7:
 271:Lib/AI_Runtime/Npu/ll_aton/ll_aton_lib_sw_operators.c ****     }
 272:Lib/AI_Runtime/Npu/ll_aton/ll_aton_lib_sw_operators.c ****   }
 273:Lib/AI_Runtime/Npu/ll_aton/ll_aton_lib_sw_operators.c **** }
 1232              		.loc 1 273 1
 1233 013c 3837     		adds	r7, r7, #56
 1234              		.cfi_def_cfa_offset 8
 1235 013e BD46     		mov	sp, r7
 1236              		.cfi_def_cfa_register 13
 1237              		@ sp needed
 1238 0140 80BD     		pop	{r7, pc}
 1239              	.L64:
 1240 0142 00BF     		.align	2
 1241              	.L63:
 1242 0144 84010000 		.word	.LC11
 1243 0148 00000000 		.word	__func__.29
 1244 014c 24000000 		.word	.LC1
 1245              		.cfi_endproc
 1246              	.LFE4859:
 1248              		.section	.text.LL_ATON_LIB_Slice,"ax",%progbits
 1249              		.align	1
 1250              		.global	LL_ATON_LIB_Slice
 1251              		.syntax unified
 1252              		.thumb
 1253              		.thumb_func
 1255              	LL_ATON_LIB_Slice:
 1256              	.LFB4860:
 274:Lib/AI_Runtime/Npu/ll_aton/ll_aton_lib_sw_operators.c **** 
ARM GAS  /tmp/ccgnzMmM.s 			page 39


 275:Lib/AI_Runtime/Npu/ll_aton/ll_aton_lib_sw_operators.c **** int LL_ATON_LIB_Slice(const LL_LIB_TensorShape_TypeDef *input, const uint32_t *input_axes_offsets,
 276:Lib/AI_Runtime/Npu/ll_aton/ll_aton_lib_sw_operators.c ****                       const LL_LIB_TensorShape_TypeDef *output, const uint32_t *output_axes_offsets
 277:Lib/AI_Runtime/Npu/ll_aton/ll_aton_lib_sw_operators.c ****                       uint32_t slice_rank, const int32_t *slice_starts, const int32_t *slice_ends,
 278:Lib/AI_Runtime/Npu/ll_aton/ll_aton_lib_sw_operators.c ****                       const int32_t *slice_steps)
 279:Lib/AI_Runtime/Npu/ll_aton/ll_aton_lib_sw_operators.c **** {
 1257              		.loc 1 279 1
 1258              		.cfi_startproc
 1259              		@ args = 16, pretend = 0, frame = 48
 1260              		@ frame_needed = 1, uses_anonymous_args = 0
 1261 0000 80B5     		push	{r7, lr}
 1262              		.cfi_def_cfa_offset 8
 1263              		.cfi_offset 7, -8
 1264              		.cfi_offset 14, -4
 1265 0002 8CB0     		sub	sp, sp, #48
 1266              		.cfi_def_cfa_offset 56
 1267 0004 00AF     		add	r7, sp, #0
 1268              		.cfi_def_cfa_register 7
 1269 0006 F860     		str	r0, [r7, #12]
 1270 0008 B960     		str	r1, [r7, #8]
 1271 000a 7A60     		str	r2, [r7, #4]
 1272 000c 3B60     		str	r3, [r7]
 280:Lib/AI_Runtime/Npu/ll_aton/ll_aton_lib_sw_operators.c ****   if (slice_rank != input->ndims)
 1273              		.loc 1 280 26
 1274 000e FB68     		ldr	r3, [r7, #12]
 1275 0010 93F82730 		ldrb	r3, [r3, #39]	@ zero_extendqisi2
 1276 0014 1A46     		mov	r2, r3
 1277              		.loc 1 280 6
 1278 0016 BB6B     		ldr	r3, [r7, #56]
 1279 0018 9342     		cmp	r3, r2
 1280 001a 08D0     		beq	.L66
 281:Lib/AI_Runtime/Npu/ll_aton/ll_aton_lib_sw_operators.c ****   {
 282:Lib/AI_Runtime/Npu/ll_aton/ll_aton_lib_sw_operators.c ****     __LL_LIB_ERROR(_ERR_RANK, LL_ATON_INVALID_PARAM);
 1281              		.loc 1 282 5
 1282 001c 2C4A     		ldr	r2, .L73
 1283 001e 4FF48D71 		mov	r1, #282
 1284 0022 0F20     		movs	r0, #15
 1285 0024 FFF7FEFF 		bl	__ll_lib_error
 1286              		.loc 1 282 5 is_stmt 0 discriminator 1
 1287 0028 6FF00103 		mvn	r3, #1
 1288              		.loc 1 282 5
 1289 002c 4CE0     		b	.L72
 1290              	.L66:
 283:Lib/AI_Runtime/Npu/ll_aton/ll_aton_lib_sw_operators.c ****   }
 284:Lib/AI_Runtime/Npu/ll_aton/ll_aton_lib_sw_operators.c **** 
 285:Lib/AI_Runtime/Npu/ll_aton/ll_aton_lib_sw_operators.c ****   if (input->ndims != output->ndims)
 1291              		.loc 1 285 12 is_stmt 1
 1292 002e FB68     		ldr	r3, [r7, #12]
 1293 0030 93F82720 		ldrb	r2, [r3, #39]	@ zero_extendqisi2
 1294              		.loc 1 285 29
 1295 0034 7B68     		ldr	r3, [r7, #4]
 1296 0036 93F82730 		ldrb	r3, [r3, #39]	@ zero_extendqisi2
 1297              		.loc 1 285 6
 1298 003a 9A42     		cmp	r2, r3
 1299 003c 08D0     		beq	.L68
 286:Lib/AI_Runtime/Npu/ll_aton/ll_aton_lib_sw_operators.c ****   {
 287:Lib/AI_Runtime/Npu/ll_aton/ll_aton_lib_sw_operators.c ****     __LL_LIB_ERROR(_ERR_RANK, LL_ATON_INVALID_PARAM);
 1300              		.loc 1 287 5
ARM GAS  /tmp/ccgnzMmM.s 			page 40


 1301 003e 244A     		ldr	r2, .L73
 1302 0040 40F21F11 		movw	r1, #287
 1303 0044 0F20     		movs	r0, #15
 1304 0046 FFF7FEFF 		bl	__ll_lib_error
 1305              		.loc 1 287 5 is_stmt 0 discriminator 1
 1306 004a 6FF00103 		mvn	r3, #1
 1307              		.loc 1 287 5
 1308 004e 3BE0     		b	.L72
 1309              	.L68:
 288:Lib/AI_Runtime/Npu/ll_aton/ll_aton_lib_sw_operators.c ****   }
 289:Lib/AI_Runtime/Npu/ll_aton/ll_aton_lib_sw_operators.c **** 
 290:Lib/AI_Runtime/Npu/ll_aton/ll_aton_lib_sw_operators.c ****   if (input->nbits != output->nbits)
 1310              		.loc 1 290 12 is_stmt 1
 1311 0050 FB68     		ldr	r3, [r7, #12]
 1312 0052 93F82820 		ldrb	r2, [r3, #40]	@ zero_extendqisi2
 1313              		.loc 1 290 29
 1314 0056 7B68     		ldr	r3, [r7, #4]
 1315 0058 93F82830 		ldrb	r3, [r3, #40]	@ zero_extendqisi2
 1316              		.loc 1 290 6
 1317 005c 9A42     		cmp	r2, r3
 1318 005e 08D0     		beq	.L69
 291:Lib/AI_Runtime/Npu/ll_aton/ll_aton_lib_sw_operators.c ****   { // TODO: should we support this?
 292:Lib/AI_Runtime/Npu/ll_aton/ll_aton_lib_sw_operators.c ****     __LL_LIB_ERROR(_ERR_NBITS, LL_ATON_INVALID_PARAM);
 1319              		.loc 1 292 5
 1320 0060 1B4A     		ldr	r2, .L73
 1321 0062 4FF49271 		mov	r1, #292
 1322 0066 0620     		movs	r0, #6
 1323 0068 FFF7FEFF 		bl	__ll_lib_error
 1324              		.loc 1 292 5 is_stmt 0 discriminator 1
 1325 006c 6FF00103 		mvn	r3, #1
 1326              		.loc 1 292 5
 1327 0070 2AE0     		b	.L72
 1328              	.L69:
 293:Lib/AI_Runtime/Npu/ll_aton/ll_aton_lib_sw_operators.c ****   }
 294:Lib/AI_Runtime/Npu/ll_aton/ll_aton_lib_sw_operators.c **** 
 295:Lib/AI_Runtime/Npu/ll_aton/ll_aton_lib_sw_operators.c ****   if ((input->nbits < 8) || (input->nbits > 32))
 1329              		.loc 1 295 13 is_stmt 1
 1330 0072 FB68     		ldr	r3, [r7, #12]
 1331 0074 93F82830 		ldrb	r3, [r3, #40]	@ zero_extendqisi2
 1332              		.loc 1 295 6
 1333 0078 072B     		cmp	r3, #7
 1334 007a 04D9     		bls	.L70
 1335              		.loc 1 295 35 discriminator 1
 1336 007c FB68     		ldr	r3, [r7, #12]
 1337 007e 93F82830 		ldrb	r3, [r3, #40]	@ zero_extendqisi2
 1338              		.loc 1 295 26 discriminator 1
 1339 0082 202B     		cmp	r3, #32
 1340 0084 08D9     		bls	.L71
 1341              	.L70:
 296:Lib/AI_Runtime/Npu/ll_aton/ll_aton_lib_sw_operators.c ****   {
 297:Lib/AI_Runtime/Npu/ll_aton/ll_aton_lib_sw_operators.c ****     __LL_LIB_ERROR(_ERR_NBITS, LL_ATON_INVALID_PARAM);
 1342              		.loc 1 297 5
 1343 0086 124A     		ldr	r2, .L73
 1344 0088 40F22911 		movw	r1, #297
 1345 008c 0620     		movs	r0, #6
 1346 008e FFF7FEFF 		bl	__ll_lib_error
 1347              		.loc 1 297 5 is_stmt 0 discriminator 1
ARM GAS  /tmp/ccgnzMmM.s 			page 41


 1348 0092 6FF00103 		mvn	r3, #1
 1349              		.loc 1 297 5
 1350 0096 17E0     		b	.L72
 1351              	.L71:
 298:Lib/AI_Runtime/Npu/ll_aton/ll_aton_lib_sw_operators.c ****   }
 299:Lib/AI_Runtime/Npu/ll_aton/ll_aton_lib_sw_operators.c **** 
 300:Lib/AI_Runtime/Npu/ll_aton/ll_aton_lib_sw_operators.c ****   const __ll_slice_params_t common_params = {.input = input,
 1352              		.loc 1 300 29 is_stmt 1
 1353 0098 FB68     		ldr	r3, [r7, #12]
 1354 009a 3B61     		str	r3, [r7, #16]
 1355 009c BB68     		ldr	r3, [r7, #8]
 1356 009e 7B61     		str	r3, [r7, #20]
 1357 00a0 7B68     		ldr	r3, [r7, #4]
 1358 00a2 BB61     		str	r3, [r7, #24]
 1359 00a4 3B68     		ldr	r3, [r7]
 1360 00a6 FB61     		str	r3, [r7, #28]
 1361 00a8 BB6B     		ldr	r3, [r7, #56]
 1362 00aa 3B62     		str	r3, [r7, #32]
 1363 00ac FB6B     		ldr	r3, [r7, #60]
 1364 00ae 7B62     		str	r3, [r7, #36]
 1365 00b0 3B6C     		ldr	r3, [r7, #64]
 1366 00b2 BB62     		str	r3, [r7, #40]
 1367 00b4 7B6C     		ldr	r3, [r7, #68]
 1368 00b6 FB62     		str	r3, [r7, #44]
 301:Lib/AI_Runtime/Npu/ll_aton/ll_aton_lib_sw_operators.c ****                                              .input_axes_offsets = input_axes_offsets,
 302:Lib/AI_Runtime/Npu/ll_aton/ll_aton_lib_sw_operators.c ****                                              .output = output,
 303:Lib/AI_Runtime/Npu/ll_aton/ll_aton_lib_sw_operators.c ****                                              .output_axes_offsets = output_axes_offsets,
 304:Lib/AI_Runtime/Npu/ll_aton/ll_aton_lib_sw_operators.c ****                                              .slice_rank = slice_rank,
 305:Lib/AI_Runtime/Npu/ll_aton/ll_aton_lib_sw_operators.c ****                                              .slice_starts = slice_starts,
 306:Lib/AI_Runtime/Npu/ll_aton/ll_aton_lib_sw_operators.c ****                                              .slice_ends = slice_ends,
 307:Lib/AI_Runtime/Npu/ll_aton/ll_aton_lib_sw_operators.c ****                                              .slice_steps = slice_steps};
 308:Lib/AI_Runtime/Npu/ll_aton/ll_aton_lib_sw_operators.c **** 
 309:Lib/AI_Runtime/Npu/ll_aton/ll_aton_lib_sw_operators.c ****   __ll_aton_lib_slice(0, NULL, &common_params);
 1369              		.loc 1 309 3
 1370 00b8 07F11003 		add	r3, r7, #16
 1371 00bc 1A46     		mov	r2, r3
 1372 00be 0021     		movs	r1, #0
 1373 00c0 0020     		movs	r0, #0
 1374 00c2 FFF7FEFF 		bl	__ll_aton_lib_slice
 310:Lib/AI_Runtime/Npu/ll_aton/ll_aton_lib_sw_operators.c **** 
 311:Lib/AI_Runtime/Npu/ll_aton/ll_aton_lib_sw_operators.c ****   return LL_ATON_OK; // TODO
 1375              		.loc 1 311 10
 1376 00c6 0023     		movs	r3, #0
 1377              	.L72:
 312:Lib/AI_Runtime/Npu/ll_aton/ll_aton_lib_sw_operators.c **** }
 1378              		.loc 1 312 1
 1379 00c8 1846     		mov	r0, r3
 1380 00ca 3037     		adds	r7, r7, #48
 1381              		.cfi_def_cfa_offset 8
 1382 00cc BD46     		mov	sp, r7
 1383              		.cfi_def_cfa_register 13
 1384              		@ sp needed
 1385 00ce 80BD     		pop	{r7, pc}
 1386              	.L74:
 1387              		.align	2
 1388              	.L73:
 1389 00d0 00000000 		.word	__FUNCTION__.27
ARM GAS  /tmp/ccgnzMmM.s 			page 42


 1390              		.cfi_endproc
 1391              	.LFE4860:
 1393              		.section	.text.__ll_aton_lib_sw_outputs_flat_copy,"ax",%progbits
 1394              		.align	1
 1395              		.syntax unified
 1396              		.thumb
 1397              		.thumb_func
 1399              	__ll_aton_lib_sw_outputs_flat_copy:
 1400              	.LFB4861:
 313:Lib/AI_Runtime/Npu/ll_aton/ll_aton_lib_sw_operators.c **** 
 314:Lib/AI_Runtime/Npu/ll_aton/ll_aton_lib_sw_operators.c **** static int __ll_aton_lib_sw_outputs_flat_copy(const LL_LIB_TensorShape_TypeDef *input,
 315:Lib/AI_Runtime/Npu/ll_aton/ll_aton_lib_sw_operators.c ****                                               const LL_LIB_TensorShape_TypeDef (*outputs)[], unsign
 316:Lib/AI_Runtime/Npu/ll_aton/ll_aton_lib_sw_operators.c **** {
 1401              		.loc 1 316 1
 1402              		.cfi_startproc
 1403              		@ args = 0, pretend = 0, frame = 56
 1404              		@ frame_needed = 1, uses_anonymous_args = 0
 1405 0000 80B5     		push	{r7, lr}
 1406              		.cfi_def_cfa_offset 8
 1407              		.cfi_offset 7, -8
 1408              		.cfi_offset 14, -4
 1409 0002 8EB0     		sub	sp, sp, #56
 1410              		.cfi_def_cfa_offset 64
 1411 0004 00AF     		add	r7, sp, #0
 1412              		.cfi_def_cfa_register 7
 1413 0006 F860     		str	r0, [r7, #12]
 1414 0008 B960     		str	r1, [r7, #8]
 1415 000a 7A60     		str	r2, [r7, #4]
 317:Lib/AI_Runtime/Npu/ll_aton/ll_aton_lib_sw_operators.c **** #ifndef NDEBUG
 318:Lib/AI_Runtime/Npu/ll_aton/ll_aton_lib_sw_operators.c ****   // LL_ATON_PRINTF("%s() line %d\n", __func__, __LINE__);
 319:Lib/AI_Runtime/Npu/ll_aton/ll_aton_lib_sw_operators.c **** 
 320:Lib/AI_Runtime/Npu/ll_aton/ll_aton_lib_sw_operators.c ****   int input_size = LL_Buffer_len(input);
 1416              		.loc 1 320 20
 1417 000c F868     		ldr	r0, [r7, #12]
 1418 000e FFF7FEFF 		bl	LL_Buffer_len
 1419 0012 0346     		mov	r3, r0
 1420              		.loc 1 320 7 discriminator 1
 1421 0014 3B62     		str	r3, [r7, #32]
 321:Lib/AI_Runtime/Npu/ll_aton/ll_aton_lib_sw_operators.c ****   int output_size = 0;
 1422              		.loc 1 321 7
 1423 0016 0023     		movs	r3, #0
 1424 0018 7B63     		str	r3, [r7, #52]
 1425              	.LBB8:
 322:Lib/AI_Runtime/Npu/ll_aton/ll_aton_lib_sw_operators.c **** 
 323:Lib/AI_Runtime/Npu/ll_aton/ll_aton_lib_sw_operators.c ****   for (unsigned i = 0; i < nr_of_outputs; i++)
 1426              		.loc 1 323 17
 1427 001a 0023     		movs	r3, #0
 1428 001c 3B63     		str	r3, [r7, #48]
 1429              		.loc 1 323 3
 1430 001e 11E0     		b	.L76
 1431              	.L77:
 324:Lib/AI_Runtime/Npu/ll_aton/ll_aton_lib_sw_operators.c ****   {
 325:Lib/AI_Runtime/Npu/ll_aton/ll_aton_lib_sw_operators.c ****     output_size += LL_Buffer_len((*outputs) + i);
 1432              		.loc 1 325 45
 1433 0020 3A6B     		ldr	r2, [r7, #48]
 1434 0022 1346     		mov	r3, r2
 1435 0024 DB00     		lsls	r3, r3, #3
ARM GAS  /tmp/ccgnzMmM.s 			page 43


 1436 0026 9B1A     		subs	r3, r3, r2
 1437 0028 DB00     		lsls	r3, r3, #3
 1438 002a 1A46     		mov	r2, r3
 1439              		.loc 1 325 20
 1440 002c BB68     		ldr	r3, [r7, #8]
 1441 002e 1344     		add	r3, r3, r2
 1442 0030 1846     		mov	r0, r3
 1443 0032 FFF7FEFF 		bl	LL_Buffer_len
 1444 0036 0246     		mov	r2, r0
 1445              		.loc 1 325 17 discriminator 1
 1446 0038 7B6B     		ldr	r3, [r7, #52]
 1447 003a 1344     		add	r3, r3, r2
 1448 003c 7B63     		str	r3, [r7, #52]
 323:Lib/AI_Runtime/Npu/ll_aton/ll_aton_lib_sw_operators.c ****   {
 1449              		.loc 1 323 44 discriminator 3
 1450 003e 3B6B     		ldr	r3, [r7, #48]
 1451 0040 0133     		adds	r3, r3, #1
 1452 0042 3B63     		str	r3, [r7, #48]
 1453              	.L76:
 323:Lib/AI_Runtime/Npu/ll_aton/ll_aton_lib_sw_operators.c ****   {
 1454              		.loc 1 323 26 discriminator 1
 1455 0044 3A6B     		ldr	r2, [r7, #48]
 1456 0046 7B68     		ldr	r3, [r7, #4]
 1457 0048 9A42     		cmp	r2, r3
 1458 004a E9D3     		bcc	.L77
 1459              	.LBE8:
 326:Lib/AI_Runtime/Npu/ll_aton/ll_aton_lib_sw_operators.c ****   }
 327:Lib/AI_Runtime/Npu/ll_aton/ll_aton_lib_sw_operators.c **** 
 328:Lib/AI_Runtime/Npu/ll_aton/ll_aton_lib_sw_operators.c ****   if (input_size != output_size)
 1460              		.loc 1 328 6
 1461 004c 3A6A     		ldr	r2, [r7, #32]
 1462 004e 7B6B     		ldr	r3, [r7, #52]
 1463 0050 9A42     		cmp	r2, r3
 1464 0052 08D0     		beq	.L78
 329:Lib/AI_Runtime/Npu/ll_aton/ll_aton_lib_sw_operators.c ****   { // should never happen
 330:Lib/AI_Runtime/Npu/ll_aton/ll_aton_lib_sw_operators.c ****     __LL_LIB_ERROR(_ERR_SHAPE, LL_ATON_INVALID_PARAM);
 1465              		.loc 1 330 5
 1466 0054 364A     		ldr	r2, .L86
 1467 0056 4FF4A571 		mov	r1, #330
 1468 005a 0920     		movs	r0, #9
 1469 005c FFF7FEFF 		bl	__ll_lib_error
 1470              		.loc 1 330 5 is_stmt 0 discriminator 1
 1471 0060 6FF00103 		mvn	r3, #1
 1472              		.loc 1 330 5
 1473 0064 60E0     		b	.L79
 1474              	.L78:
 331:Lib/AI_Runtime/Npu/ll_aton/ll_aton_lib_sw_operators.c ****   }
 332:Lib/AI_Runtime/Npu/ll_aton/ll_aton_lib_sw_operators.c **** 
 333:Lib/AI_Runtime/Npu/ll_aton/ll_aton_lib_sw_operators.c ****   uint8_t nbits = LL_LIB_NBYTES(input->nbits);
 1475              		.loc 1 333 19 is_stmt 1
 1476 0066 FB68     		ldr	r3, [r7, #12]
 1477 0068 93F82830 		ldrb	r3, [r3, #40]	@ zero_extendqisi2
 1478 006c 0733     		adds	r3, r3, #7
 1479 006e DB10     		asrs	r3, r3, #3
 1480              		.loc 1 333 11
 1481 0070 FB77     		strb	r3, [r7, #31]
 1482              	.LBB9:
ARM GAS  /tmp/ccgnzMmM.s 			page 44


 334:Lib/AI_Runtime/Npu/ll_aton/ll_aton_lib_sw_operators.c ****   for (unsigned i = 0; i < nr_of_outputs; i++)
 1483              		.loc 1 334 17
 1484 0072 0023     		movs	r3, #0
 1485 0074 FB62     		str	r3, [r7, #44]
 1486              		.loc 1 334 3
 1487 0076 17E0     		b	.L80
 1488              	.L82:
 335:Lib/AI_Runtime/Npu/ll_aton/ll_aton_lib_sw_operators.c ****   {
 336:Lib/AI_Runtime/Npu/ll_aton/ll_aton_lib_sw_operators.c ****     if ((*outputs)[i].nbits != nbits)
 1489              		.loc 1 336 22
 1490 0078 B968     		ldr	r1, [r7, #8]
 1491 007a FA6A     		ldr	r2, [r7, #44]
 1492 007c 1346     		mov	r3, r2
 1493 007e DB00     		lsls	r3, r3, #3
 1494 0080 9B1A     		subs	r3, r3, r2
 1495 0082 DB00     		lsls	r3, r3, #3
 1496 0084 0B44     		add	r3, r3, r1
 1497 0086 2833     		adds	r3, r3, #40
 1498 0088 1B78     		ldrb	r3, [r3]	@ zero_extendqisi2
 1499              		.loc 1 336 8
 1500 008a FA7F     		ldrb	r2, [r7, #31]	@ zero_extendqisi2
 1501 008c 9A42     		cmp	r2, r3
 1502 008e 08D0     		beq	.L81
 337:Lib/AI_Runtime/Npu/ll_aton/ll_aton_lib_sw_operators.c ****     {
 338:Lib/AI_Runtime/Npu/ll_aton/ll_aton_lib_sw_operators.c ****       __LL_LIB_ERROR(_ERR_NBITS_OUT, LL_ATON_INVALID_PARAM);
 1503              		.loc 1 338 7
 1504 0090 274A     		ldr	r2, .L86
 1505 0092 4FF4A971 		mov	r1, #338
 1506 0096 0820     		movs	r0, #8
 1507 0098 FFF7FEFF 		bl	__ll_lib_error
 1508              		.loc 1 338 7 is_stmt 0 discriminator 1
 1509 009c 6FF00103 		mvn	r3, #1
 1510              		.loc 1 338 7
 1511 00a0 42E0     		b	.L79
 1512              	.L81:
 334:Lib/AI_Runtime/Npu/ll_aton/ll_aton_lib_sw_operators.c ****   {
 1513              		.loc 1 334 44 is_stmt 1 discriminator 2
 1514 00a2 FB6A     		ldr	r3, [r7, #44]
 1515 00a4 0133     		adds	r3, r3, #1
 1516 00a6 FB62     		str	r3, [r7, #44]
 1517              	.L80:
 334:Lib/AI_Runtime/Npu/ll_aton/ll_aton_lib_sw_operators.c ****   {
 1518              		.loc 1 334 26 discriminator 1
 1519 00a8 FA6A     		ldr	r2, [r7, #44]
 1520 00aa 7B68     		ldr	r3, [r7, #4]
 1521 00ac 9A42     		cmp	r2, r3
 1522 00ae E3D3     		bcc	.L82
 1523              	.LBE9:
 339:Lib/AI_Runtime/Npu/ll_aton/ll_aton_lib_sw_operators.c ****     }
 340:Lib/AI_Runtime/Npu/ll_aton/ll_aton_lib_sw_operators.c ****   }
 341:Lib/AI_Runtime/Npu/ll_aton/ll_aton_lib_sw_operators.c **** #endif // !NDEBUG
 342:Lib/AI_Runtime/Npu/ll_aton/ll_aton_lib_sw_operators.c **** 
 343:Lib/AI_Runtime/Npu/ll_aton/ll_aton_lib_sw_operators.c ****   if (nr_of_outputs <= 0)
 1524              		.loc 1 343 6
 1525 00b0 7B68     		ldr	r3, [r7, #4]
 1526 00b2 002B     		cmp	r3, #0
 1527 00b4 08D1     		bne	.L83
ARM GAS  /tmp/ccgnzMmM.s 			page 45


 344:Lib/AI_Runtime/Npu/ll_aton/ll_aton_lib_sw_operators.c ****   { // should never happen
 345:Lib/AI_Runtime/Npu/ll_aton/ll_aton_lib_sw_operators.c ****     __LL_LIB_ERROR(_ERR_NOUTPUTS, LL_ATON_INVALID_PARAM);
 1528              		.loc 1 345 5
 1529 00b6 1E4A     		ldr	r2, .L86
 1530 00b8 40F25911 		movw	r1, #345
 1531 00bc 0220     		movs	r0, #2
 1532 00be FFF7FEFF 		bl	__ll_lib_error
 1533              		.loc 1 345 5 is_stmt 0 discriminator 1
 1534 00c2 6FF00103 		mvn	r3, #1
 1535              		.loc 1 345 5
 1536 00c6 2FE0     		b	.L79
 1537              	.L83:
 346:Lib/AI_Runtime/Npu/ll_aton/ll_aton_lib_sw_operators.c ****   }
 347:Lib/AI_Runtime/Npu/ll_aton/ll_aton_lib_sw_operators.c **** 
 348:Lib/AI_Runtime/Npu/ll_aton/ll_aton_lib_sw_operators.c ****   unsigned char *curr_in_addr = ATON_LIB_PHYSICAL_TO_VIRTUAL_ADDR(LL_Buffer_addr_start(input));
 1538              		.loc 1 348 33 is_stmt 1
 1539 00c8 F868     		ldr	r0, [r7, #12]
 1540 00ca FFF7FEFF 		bl	LL_Buffer_addr_start
 1541 00ce B862     		str	r0, [r7, #40]
 1542              	.LBB10:
 349:Lib/AI_Runtime/Npu/ll_aton/ll_aton_lib_sw_operators.c ****   for (int i = 0; i < nr_of_outputs; i++)
 1543              		.loc 1 349 12
 1544 00d0 0023     		movs	r3, #0
 1545 00d2 7B62     		str	r3, [r7, #36]
 1546              		.loc 1 349 3
 1547 00d4 23E0     		b	.L84
 1548              	.L85:
 1549              	.LBB11:
 350:Lib/AI_Runtime/Npu/ll_aton/ll_aton_lib_sw_operators.c ****   {
 351:Lib/AI_Runtime/Npu/ll_aton/ll_aton_lib_sw_operators.c ****     unsigned char *out_addr = ATON_LIB_PHYSICAL_TO_VIRTUAL_ADDR(LL_Buffer_addr_start((*outputs) + i
 1550              		.loc 1 351 31
 1551 00d6 7A6A     		ldr	r2, [r7, #36]
 1552 00d8 1346     		mov	r3, r2
 1553 00da DB00     		lsls	r3, r3, #3
 1554 00dc 9B1A     		subs	r3, r3, r2
 1555 00de DB00     		lsls	r3, r3, #3
 1556 00e0 1A46     		mov	r2, r3
 1557 00e2 BB68     		ldr	r3, [r7, #8]
 1558 00e4 1344     		add	r3, r3, r2
 1559 00e6 1846     		mov	r0, r3
 1560 00e8 FFF7FEFF 		bl	LL_Buffer_addr_start
 1561 00ec B861     		str	r0, [r7, #24]
 352:Lib/AI_Runtime/Npu/ll_aton/ll_aton_lib_sw_operators.c ****     unsigned out_size = LL_Buffer_len((*outputs) + i);
 1562              		.loc 1 352 50
 1563 00ee 7A6A     		ldr	r2, [r7, #36]
 1564 00f0 1346     		mov	r3, r2
 1565 00f2 DB00     		lsls	r3, r3, #3
 1566 00f4 9B1A     		subs	r3, r3, r2
 1567 00f6 DB00     		lsls	r3, r3, #3
 1568 00f8 1A46     		mov	r2, r3
 1569              		.loc 1 352 25
 1570 00fa BB68     		ldr	r3, [r7, #8]
 1571 00fc 1344     		add	r3, r3, r2
 1572 00fe 1846     		mov	r0, r3
 1573 0100 FFF7FEFF 		bl	LL_Buffer_len
 1574 0104 7861     		str	r0, [r7, #20]
 353:Lib/AI_Runtime/Npu/ll_aton/ll_aton_lib_sw_operators.c **** 
ARM GAS  /tmp/ccgnzMmM.s 			page 46


 354:Lib/AI_Runtime/Npu/ll_aton/ll_aton_lib_sw_operators.c ****     memcpy(out_addr, curr_in_addr, out_size);
 1575              		.loc 1 354 5
 1576 0106 7A69     		ldr	r2, [r7, #20]
 1577 0108 B96A     		ldr	r1, [r7, #40]
 1578 010a B869     		ldr	r0, [r7, #24]
 1579 010c FFF7FEFF 		bl	memcpy
 355:Lib/AI_Runtime/Npu/ll_aton/ll_aton_lib_sw_operators.c **** 
 356:Lib/AI_Runtime/Npu/ll_aton/ll_aton_lib_sw_operators.c ****     curr_in_addr += out_size;
 1580              		.loc 1 356 18
 1581 0110 BA6A     		ldr	r2, [r7, #40]
 1582 0112 7B69     		ldr	r3, [r7, #20]
 1583 0114 1344     		add	r3, r3, r2
 1584 0116 BB62     		str	r3, [r7, #40]
 1585              	.LBE11:
 349:Lib/AI_Runtime/Npu/ll_aton/ll_aton_lib_sw_operators.c ****   {
 1586              		.loc 1 349 39 discriminator 3
 1587 0118 7B6A     		ldr	r3, [r7, #36]
 1588 011a 0133     		adds	r3, r3, #1
 1589 011c 7B62     		str	r3, [r7, #36]
 1590              	.L84:
 349:Lib/AI_Runtime/Npu/ll_aton/ll_aton_lib_sw_operators.c ****   {
 1591              		.loc 1 349 21 discriminator 1
 1592 011e 7B6A     		ldr	r3, [r7, #36]
 1593 0120 7A68     		ldr	r2, [r7, #4]
 1594 0122 9A42     		cmp	r2, r3
 1595 0124 D7D8     		bhi	.L85
 1596              	.LBE10:
 357:Lib/AI_Runtime/Npu/ll_aton/ll_aton_lib_sw_operators.c ****   }
 358:Lib/AI_Runtime/Npu/ll_aton/ll_aton_lib_sw_operators.c **** 
 359:Lib/AI_Runtime/Npu/ll_aton/ll_aton_lib_sw_operators.c ****   return LL_ATON_OK;
 1597              		.loc 1 359 10
 1598 0126 0023     		movs	r3, #0
 1599              	.L79:
 360:Lib/AI_Runtime/Npu/ll_aton/ll_aton_lib_sw_operators.c **** }
 1600              		.loc 1 360 1
 1601 0128 1846     		mov	r0, r3
 1602 012a 3837     		adds	r7, r7, #56
 1603              		.cfi_def_cfa_offset 8
 1604 012c BD46     		mov	sp, r7
 1605              		.cfi_def_cfa_register 13
 1606              		@ sp needed
 1607 012e 80BD     		pop	{r7, pc}
 1608              	.L87:
 1609              		.align	2
 1610              	.L86:
 1611 0130 00000000 		.word	__FUNCTION__.26
 1612              		.cfi_endproc
 1613              	.LFE4861:
 1615              		.section	.rodata.aton_lut,"a"
 1616              		.align	2
 1619              	aton_lut:
 1620 0000 00000000 		.word	0
 1621 0004 03000000 		.word	3
 1622 0008 01000000 		.word	1
 1623 000c 02000000 		.word	2
 1624              		.section	.rodata.onnx_lut,"a"
 1625              		.align	2
ARM GAS  /tmp/ccgnzMmM.s 			page 47


 1628              	onnx_lut:
 1629 0000 00000000 		.word	0
 1630 0004 02000000 		.word	2
 1631 0008 03000000 		.word	3
 1632 000c 01000000 		.word	1
 1633              		.section	.text.__ll_aton_lib_split_aton_canonical,"ax",%progbits
 1634              		.align	1
 1635              		.syntax unified
 1636              		.thumb
 1637              		.thumb_func
 1639              	__ll_aton_lib_split_aton_canonical:
 1640              	.LFB4862:
 361:Lib/AI_Runtime/Npu/ll_aton/ll_aton_lib_sw_operators.c **** 
 362:Lib/AI_Runtime/Npu/ll_aton/ll_aton_lib_sw_operators.c **** // convert axis from ...CHW -> ...HWC
 363:Lib/AI_Runtime/Npu/ll_aton/ll_aton_lib_sw_operators.c **** static const int aton_lut[] = {TDIM_NKERNELS, TDIM_NCHANNELS, TDIM_FHEIGHT, TDIM_FWIDTH};
 364:Lib/AI_Runtime/Npu/ll_aton/ll_aton_lib_sw_operators.c **** #define LUT_ATON(x) (((x >= (rank - 4)) && (rank > 2)) ? (rank - 4) + aton_lut[x - (rank - 4)] : x)
 365:Lib/AI_Runtime/Npu/ll_aton/ll_aton_lib_sw_operators.c **** 
 366:Lib/AI_Runtime/Npu/ll_aton/ll_aton_lib_sw_operators.c **** // convert axis from ...HWC -> ...CHW
 367:Lib/AI_Runtime/Npu/ll_aton/ll_aton_lib_sw_operators.c **** static const int onnx_lut[] = {TDIM_ONNX_NKERNELS, TDIM_ONNX_FHEIGHT, TDIM_ONNX_FWIDTH, TDIM_ONNX_N
 368:Lib/AI_Runtime/Npu/ll_aton/ll_aton_lib_sw_operators.c **** #define LUT_ONNX(x) (((x >= (rank - 4)) && (rank > 2)) ? (rank - 4) + onnx_lut[x - (rank - 4)] : x)
 369:Lib/AI_Runtime/Npu/ll_aton/ll_aton_lib_sw_operators.c **** 
 370:Lib/AI_Runtime/Npu/ll_aton/ll_aton_lib_sw_operators.c **** /* beyond function assumes that input and output tensors are ATON canonical */
 371:Lib/AI_Runtime/Npu/ll_aton/ll_aton_lib_sw_operators.c **** static void __ll_aton_lib_split_aton_canonical(const LL_LIB_TensorShape_TypeDef *input,
 372:Lib/AI_Runtime/Npu/ll_aton/ll_aton_lib_sw_operators.c ****                                                const LL_LIB_TensorShape_TypeDef (*outputs)[], int n
 373:Lib/AI_Runtime/Npu/ll_aton/ll_aton_lib_sw_operators.c ****                                                int rank, int split_onnx_axis)
 374:Lib/AI_Runtime/Npu/ll_aton/ll_aton_lib_sw_operators.c **** {
 1641              		.loc 1 374 1
 1642              		.cfi_startproc
 1643              		@ args = 4, pretend = 0, frame = 64
 1644              		@ frame_needed = 1, uses_anonymous_args = 0
 1645 0000 90B5     		push	{r4, r7, lr}
 1646              		.cfi_def_cfa_offset 12
 1647              		.cfi_offset 4, -12
 1648              		.cfi_offset 7, -8
 1649              		.cfi_offset 14, -4
 1650 0002 91B0     		sub	sp, sp, #68
 1651              		.cfi_def_cfa_offset 80
 1652 0004 00AF     		add	r7, sp, #0
 1653              		.cfi_def_cfa_register 7
 1654 0006 F860     		str	r0, [r7, #12]
 1655 0008 B960     		str	r1, [r7, #8]
 1656 000a 7A60     		str	r2, [r7, #4]
 1657 000c 3B60     		str	r3, [r7]
 375:Lib/AI_Runtime/Npu/ll_aton/ll_aton_lib_sw_operators.c ****   int aton_axis = LUT_ATON(split_onnx_axis);
 1658              		.loc 1 375 19
 1659 000e 3B68     		ldr	r3, [r7]
 1660 0010 043B     		subs	r3, r3, #4
 1661 0012 3A6D     		ldr	r2, [r7, #80]
 1662 0014 9A42     		cmp	r2, r3
 1663 0016 0DDB     		blt	.L89
 1664              		.loc 1 375 19 is_stmt 0 discriminator 1
 1665 0018 3B68     		ldr	r3, [r7]
 1666 001a 022B     		cmp	r3, #2
 1667 001c 0ADD     		ble	.L89
 1668              		.loc 1 375 19 discriminator 3
 1669 001e 3B68     		ldr	r3, [r7]
 1670 0020 1A1F     		subs	r2, r3, #4
ARM GAS  /tmp/ccgnzMmM.s 			page 48


 1671 0022 3B68     		ldr	r3, [r7]
 1672 0024 043B     		subs	r3, r3, #4
 1673 0026 396D     		ldr	r1, [r7, #80]
 1674 0028 CB1A     		subs	r3, r1, r3
 1675 002a 4E49     		ldr	r1, .L99
 1676 002c 51F82330 		ldr	r3, [r1, r3, lsl #2]
 1677 0030 1344     		add	r3, r3, r2
 1678              		.loc 1 375 19
 1679 0032 00E0     		b	.L90
 1680              	.L89:
 1681              		.loc 1 375 19 discriminator 4
 1682 0034 3B6D     		ldr	r3, [r7, #80]
 1683              	.L90:
 1684              		.loc 1 375 7 is_stmt 1 discriminator 6
 1685 0036 7B62     		str	r3, [r7, #36]
 376:Lib/AI_Runtime/Npu/ll_aton/ll_aton_lib_sw_operators.c ****   int tot_size = LL_Buffer_len(input);
 1686              		.loc 1 376 18
 1687 0038 F868     		ldr	r0, [r7, #12]
 1688 003a FFF7FEFF 		bl	LL_Buffer_len
 1689 003e 0346     		mov	r3, r0
 1690              		.loc 1 376 7 discriminator 1
 1691 0040 3B62     		str	r3, [r7, #32]
 377:Lib/AI_Runtime/Npu/ll_aton/ll_aton_lib_sw_operators.c **** 
 378:Lib/AI_Runtime/Npu/ll_aton/ll_aton_lib_sw_operators.c ****   int start = 0;
 1692              		.loc 1 378 7
 1693 0042 0023     		movs	r3, #0
 1694 0044 FB63     		str	r3, [r7, #60]
 379:Lib/AI_Runtime/Npu/ll_aton/ll_aton_lib_sw_operators.c ****   int stop = tot_size;
 1695              		.loc 1 379 7
 1696 0046 3B6A     		ldr	r3, [r7, #32]
 1697 0048 FB61     		str	r3, [r7, #28]
 380:Lib/AI_Runtime/Npu/ll_aton/ll_aton_lib_sw_operators.c ****   int jump_base = 1;
 1698              		.loc 1 380 7
 1699 004a 0123     		movs	r3, #1
 1700 004c BB63     		str	r3, [r7, #56]
 1701              	.LBB12:
 381:Lib/AI_Runtime/Npu/ll_aton/ll_aton_lib_sw_operators.c ****   for (int i = aton_axis + 1; i < rank; i++)
 1702              		.loc 1 381 12
 1703 004e 7B6A     		ldr	r3, [r7, #36]
 1704 0050 0133     		adds	r3, r3, #1
 1705 0052 7B63     		str	r3, [r7, #52]
 1706              		.loc 1 381 3
 1707 0054 20E0     		b	.L91
 1708              	.L94:
 382:Lib/AI_Runtime/Npu/ll_aton/ll_aton_lib_sw_operators.c ****     jump_base *= input->shape[LUT_ONNX(i)];
 1709              		.loc 1 382 23
 1710 0056 FB68     		ldr	r3, [r7, #12]
 1711 0058 DA6A     		ldr	r2, [r3, #44]
 1712              		.loc 1 382 31
 1713 005a 3B68     		ldr	r3, [r7]
 1714 005c 043B     		subs	r3, r3, #4
 1715              		.loc 1 382 30
 1716 005e 796B     		ldr	r1, [r7, #52]
 1717 0060 9942     		cmp	r1, r3
 1718 0062 0EDB     		blt	.L92
 1719              		.loc 1 382 31 discriminator 1
 1720 0064 3B68     		ldr	r3, [r7]
ARM GAS  /tmp/ccgnzMmM.s 			page 49


 1721 0066 022B     		cmp	r3, #2
 1722 0068 0BDD     		ble	.L92
 1723              		.loc 1 382 31 is_stmt 0 discriminator 3
 1724 006a 3B68     		ldr	r3, [r7]
 1725 006c 191F     		subs	r1, r3, #4
 1726 006e 3B68     		ldr	r3, [r7]
 1727 0070 043B     		subs	r3, r3, #4
 1728 0072 786B     		ldr	r0, [r7, #52]
 1729 0074 C31A     		subs	r3, r0, r3
 1730 0076 3C48     		ldr	r0, .L99+4
 1731 0078 50F82330 		ldr	r3, [r0, r3, lsl #2]
 1732 007c 0B44     		add	r3, r3, r1
 1733              		.loc 1 382 30 is_stmt 1 discriminator 3
 1734 007e 9B00     		lsls	r3, r3, #2
 1735              		.loc 1 382 30 is_stmt 0
 1736 0080 01E0     		b	.L93
 1737              	.L92:
 1738              		.loc 1 382 31 is_stmt 1 discriminator 4
 1739 0082 7B6B     		ldr	r3, [r7, #52]
 1740              		.loc 1 382 30 discriminator 4
 1741 0084 9B00     		lsls	r3, r3, #2
 1742              	.L93:
 1743              		.loc 1 382 30 is_stmt 0 discriminator 6
 1744 0086 1344     		add	r3, r3, r2
 1745 0088 1B68     		ldr	r3, [r3]
 1746              		.loc 1 382 15 is_stmt 1 discriminator 6
 1747 008a BA6B     		ldr	r2, [r7, #56]
 1748 008c 02FB03F3 		mul	r3, r2, r3
 1749 0090 BB63     		str	r3, [r7, #56]
 381:Lib/AI_Runtime/Npu/ll_aton/ll_aton_lib_sw_operators.c ****   for (int i = aton_axis + 1; i < rank; i++)
 1750              		.loc 1 381 42 discriminator 2
 1751 0092 7B6B     		ldr	r3, [r7, #52]
 1752 0094 0133     		adds	r3, r3, #1
 1753 0096 7B63     		str	r3, [r7, #52]
 1754              	.L91:
 381:Lib/AI_Runtime/Npu/ll_aton/ll_aton_lib_sw_operators.c ****   for (int i = aton_axis + 1; i < rank; i++)
 1755              		.loc 1 381 33 discriminator 1
 1756 0098 7A6B     		ldr	r2, [r7, #52]
 1757 009a 3B68     		ldr	r3, [r7]
 1758 009c 9A42     		cmp	r2, r3
 1759 009e DADB     		blt	.L94
 1760              	.LBE12:
 383:Lib/AI_Runtime/Npu/ll_aton/ll_aton_lib_sw_operators.c ****   jump_base *= LL_LIB_NBYTES(input->nbits);
 1761              		.loc 1 383 16
 1762 00a0 FB68     		ldr	r3, [r7, #12]
 1763 00a2 93F82830 		ldrb	r3, [r3, #40]	@ zero_extendqisi2
 1764 00a6 0733     		adds	r3, r3, #7
 1765 00a8 DA10     		asrs	r2, r3, #3
 1766              		.loc 1 383 13
 1767 00aa BB6B     		ldr	r3, [r7, #56]
 1768 00ac 02FB03F3 		mul	r3, r2, r3
 1769 00b0 BB63     		str	r3, [r7, #56]
 384:Lib/AI_Runtime/Npu/ll_aton/ll_aton_lib_sw_operators.c ****   int jump = jump_base * input->shape[split_onnx_axis];
 1770              		.loc 1 384 31
 1771 00b2 FB68     		ldr	r3, [r7, #12]
 1772 00b4 DA6A     		ldr	r2, [r3, #44]
 1773              		.loc 1 384 38
ARM GAS  /tmp/ccgnzMmM.s 			page 50


 1774 00b6 3B6D     		ldr	r3, [r7, #80]
 1775 00b8 9B00     		lsls	r3, r3, #2
 1776 00ba 1344     		add	r3, r3, r2
 1777 00bc 1B68     		ldr	r3, [r3]
 1778              		.loc 1 384 24
 1779 00be BA6B     		ldr	r2, [r7, #56]
 1780 00c0 02FB03F3 		mul	r3, r2, r3
 1781              		.loc 1 384 7
 1782 00c4 BB61     		str	r3, [r7, #24]
 1783              	.LBB13:
 385:Lib/AI_Runtime/Npu/ll_aton/ll_aton_lib_sw_operators.c ****   // LL_ATON_PRINTF("onnx_axis=%d, aton_axis=%d, jump_base=%d, jump=%d\n", split_onnx_axis, aton_ax
 386:Lib/AI_Runtime/Npu/ll_aton/ll_aton_lib_sw_operators.c **** 
 387:Lib/AI_Runtime/Npu/ll_aton/ll_aton_lib_sw_operators.c ****   for (int i = 0; i < nr_of_outputs; i++)
 1784              		.loc 1 387 12
 1785 00c6 0023     		movs	r3, #0
 1786 00c8 3B63     		str	r3, [r7, #48]
 1787              		.loc 1 387 3
 1788 00ca 41E0     		b	.L95
 1789              	.L98:
 1790              	.LBB14:
 388:Lib/AI_Runtime/Npu/ll_aton/ll_aton_lib_sw_operators.c ****   {
 389:Lib/AI_Runtime/Npu/ll_aton/ll_aton_lib_sw_operators.c ****     int copy_val = (*outputs)[i].shape[split_onnx_axis] * jump_base;
 1791              		.loc 1 389 33
 1792 00cc B968     		ldr	r1, [r7, #8]
 1793 00ce 3A6B     		ldr	r2, [r7, #48]
 1794 00d0 1346     		mov	r3, r2
 1795 00d2 DB00     		lsls	r3, r3, #3
 1796 00d4 9B1A     		subs	r3, r3, r2
 1797 00d6 DB00     		lsls	r3, r3, #3
 1798 00d8 0B44     		add	r3, r3, r1
 1799 00da 2C33     		adds	r3, r3, #44
 1800 00dc 1A68     		ldr	r2, [r3]
 1801              		.loc 1 389 39
 1802 00de 3B6D     		ldr	r3, [r7, #80]
 1803 00e0 9B00     		lsls	r3, r3, #2
 1804 00e2 1344     		add	r3, r3, r2
 1805 00e4 1B68     		ldr	r3, [r3]
 1806              		.loc 1 389 57
 1807 00e6 BA6B     		ldr	r2, [r7, #56]
 1808 00e8 02FB03F3 		mul	r3, r2, r3
 1809              		.loc 1 389 9
 1810 00ec 7B61     		str	r3, [r7, #20]
 390:Lib/AI_Runtime/Npu/ll_aton/ll_aton_lib_sw_operators.c ****     // LL_ATON_PRINTF("i=%d copy_val=%d\n", i, copy_val);
 391:Lib/AI_Runtime/Npu/ll_aton/ll_aton_lib_sw_operators.c **** 
 392:Lib/AI_Runtime/Npu/ll_aton/ll_aton_lib_sw_operators.c ****     int source;
 393:Lib/AI_Runtime/Npu/ll_aton/ll_aton_lib_sw_operators.c ****     int dest = 0;
 1811              		.loc 1 393 9
 1812 00ee 0023     		movs	r3, #0
 1813 00f0 BB62     		str	r3, [r7, #40]
 394:Lib/AI_Runtime/Npu/ll_aton/ll_aton_lib_sw_operators.c ****     for (source = start; source < stop; source += jump, dest += copy_val)
 1814              		.loc 1 394 17
 1815 00f2 FB6B     		ldr	r3, [r7, #60]
 1816 00f4 FB62     		str	r3, [r7, #44]
 1817              		.loc 1 394 5
 1818 00f6 20E0     		b	.L96
 1819              	.L97:
 395:Lib/AI_Runtime/Npu/ll_aton/ll_aton_lib_sw_operators.c ****     {
ARM GAS  /tmp/ccgnzMmM.s 			page 51


 396:Lib/AI_Runtime/Npu/ll_aton/ll_aton_lib_sw_operators.c ****       // LL_ATON_PRINTF("i=%d, dest=%d, source=%d\n", i, dest, source);
 397:Lib/AI_Runtime/Npu/ll_aton/ll_aton_lib_sw_operators.c ****       memcpy(ATON_LIB_PHYSICAL_TO_VIRTUAL_ADDR(LL_Buffer_addr_start((*outputs) + i) + dest),
 1820              		.loc 1 397 14
 1821 00f8 3A6B     		ldr	r2, [r7, #48]
 1822 00fa 1346     		mov	r3, r2
 1823 00fc DB00     		lsls	r3, r3, #3
 1824 00fe 9B1A     		subs	r3, r3, r2
 1825 0100 DB00     		lsls	r3, r3, #3
 1826 0102 1A46     		mov	r2, r3
 1827 0104 BB68     		ldr	r3, [r7, #8]
 1828 0106 1344     		add	r3, r3, r2
 1829 0108 1846     		mov	r0, r3
 1830 010a FFF7FEFF 		bl	LL_Buffer_addr_start
 1831 010e 0246     		mov	r2, r0
 1832              		.loc 1 397 7 discriminator 1
 1833 0110 BB6A     		ldr	r3, [r7, #40]
 1834              		.loc 1 397 14 discriminator 1
 1835 0112 D418     		adds	r4, r2, r3
 398:Lib/AI_Runtime/Npu/ll_aton/ll_aton_lib_sw_operators.c ****              ATON_LIB_PHYSICAL_TO_VIRTUAL_ADDR(LL_Buffer_addr_start(input) + source), copy_val);
 1836              		.loc 1 398 14
 1837 0114 F868     		ldr	r0, [r7, #12]
 1838 0116 FFF7FEFF 		bl	LL_Buffer_addr_start
 1839 011a 0246     		mov	r2, r0
 397:Lib/AI_Runtime/Npu/ll_aton/ll_aton_lib_sw_operators.c ****              ATON_LIB_PHYSICAL_TO_VIRTUAL_ADDR(LL_Buffer_addr_start(input) + source), copy_val);
 1840              		.loc 1 397 7
 1841 011c FB6A     		ldr	r3, [r7, #44]
 1842              		.loc 1 398 14
 1843 011e 1344     		add	r3, r3, r2
 397:Lib/AI_Runtime/Npu/ll_aton/ll_aton_lib_sw_operators.c ****              ATON_LIB_PHYSICAL_TO_VIRTUAL_ADDR(LL_Buffer_addr_start(input) + source), copy_val);
 1844              		.loc 1 397 7
 1845 0120 7A69     		ldr	r2, [r7, #20]
 1846 0122 1946     		mov	r1, r3
 1847 0124 2046     		mov	r0, r4
 1848 0126 FFF7FEFF 		bl	memcpy
 394:Lib/AI_Runtime/Npu/ll_aton/ll_aton_lib_sw_operators.c ****     {
 1849              		.loc 1 394 48 discriminator 3
 1850 012a FA6A     		ldr	r2, [r7, #44]
 1851 012c BB69     		ldr	r3, [r7, #24]
 1852 012e 1344     		add	r3, r3, r2
 1853 0130 FB62     		str	r3, [r7, #44]
 394:Lib/AI_Runtime/Npu/ll_aton/ll_aton_lib_sw_operators.c ****     {
 1854              		.loc 1 394 62 discriminator 3
 1855 0132 BA6A     		ldr	r2, [r7, #40]
 1856 0134 7B69     		ldr	r3, [r7, #20]
 1857 0136 1344     		add	r3, r3, r2
 1858 0138 BB62     		str	r3, [r7, #40]
 1859              	.L96:
 394:Lib/AI_Runtime/Npu/ll_aton/ll_aton_lib_sw_operators.c ****     {
 1860              		.loc 1 394 33 discriminator 1
 1861 013a FA6A     		ldr	r2, [r7, #44]
 1862 013c FB69     		ldr	r3, [r7, #28]
 1863 013e 9A42     		cmp	r2, r3
 1864 0140 DADB     		blt	.L97
 399:Lib/AI_Runtime/Npu/ll_aton/ll_aton_lib_sw_operators.c ****     }
 400:Lib/AI_Runtime/Npu/ll_aton/ll_aton_lib_sw_operators.c ****     start += copy_val;
 1865              		.loc 1 400 11
 1866 0142 FA6B     		ldr	r2, [r7, #60]
ARM GAS  /tmp/ccgnzMmM.s 			page 52


 1867 0144 7B69     		ldr	r3, [r7, #20]
 1868 0146 1344     		add	r3, r3, r2
 1869 0148 FB63     		str	r3, [r7, #60]
 1870              	.LBE14:
 387:Lib/AI_Runtime/Npu/ll_aton/ll_aton_lib_sw_operators.c ****   {
 1871              		.loc 1 387 39 discriminator 2
 1872 014a 3B6B     		ldr	r3, [r7, #48]
 1873 014c 0133     		adds	r3, r3, #1
 1874 014e 3B63     		str	r3, [r7, #48]
 1875              	.L95:
 387:Lib/AI_Runtime/Npu/ll_aton/ll_aton_lib_sw_operators.c ****   {
 1876              		.loc 1 387 21 discriminator 1
 1877 0150 3A6B     		ldr	r2, [r7, #48]
 1878 0152 7B68     		ldr	r3, [r7, #4]
 1879 0154 9A42     		cmp	r2, r3
 1880 0156 B9DB     		blt	.L98
 1881              	.LBE13:
 401:Lib/AI_Runtime/Npu/ll_aton/ll_aton_lib_sw_operators.c ****   }
 402:Lib/AI_Runtime/Npu/ll_aton/ll_aton_lib_sw_operators.c **** }
 1882              		.loc 1 402 1
 1883 0158 00BF     		nop
 1884 015a 00BF     		nop
 1885 015c 4437     		adds	r7, r7, #68
 1886              		.cfi_def_cfa_offset 12
 1887 015e BD46     		mov	sp, r7
 1888              		.cfi_def_cfa_register 13
 1889              		@ sp needed
 1890 0160 90BD     		pop	{r4, r7, pc}
 1891              	.L100:
 1892 0162 00BF     		.align	2
 1893              	.L99:
 1894 0164 00000000 		.word	aton_lut
 1895 0168 00000000 		.word	onnx_lut
 1896              		.cfi_endproc
 1897              	.LFE4862:
 1899              		.section	.text.__ll_aton_lib_split_onnx_canonical,"ax",%progbits
 1900              		.align	1
 1901              		.syntax unified
 1902              		.thumb
 1903              		.thumb_func
 1905              	__ll_aton_lib_split_onnx_canonical:
 1906              	.LFB4863:
 403:Lib/AI_Runtime/Npu/ll_aton/ll_aton_lib_sw_operators.c **** 
 404:Lib/AI_Runtime/Npu/ll_aton/ll_aton_lib_sw_operators.c **** /* beyond function assumes that input and output tensors are ONNX canonical */
 405:Lib/AI_Runtime/Npu/ll_aton/ll_aton_lib_sw_operators.c **** static void __ll_aton_lib_split_onnx_canonical(const LL_LIB_TensorShape_TypeDef *input,
 406:Lib/AI_Runtime/Npu/ll_aton/ll_aton_lib_sw_operators.c ****                                                const LL_LIB_TensorShape_TypeDef (*outputs)[], int n
 407:Lib/AI_Runtime/Npu/ll_aton/ll_aton_lib_sw_operators.c ****                                                int rank, int split_onnx_axis)
 408:Lib/AI_Runtime/Npu/ll_aton/ll_aton_lib_sw_operators.c **** {
 1907              		.loc 1 408 1
 1908              		.cfi_startproc
 1909              		@ args = 4, pretend = 0, frame = 56
 1910              		@ frame_needed = 1, uses_anonymous_args = 0
 1911 0000 90B5     		push	{r4, r7, lr}
 1912              		.cfi_def_cfa_offset 12
 1913              		.cfi_offset 4, -12
 1914              		.cfi_offset 7, -8
 1915              		.cfi_offset 14, -4
ARM GAS  /tmp/ccgnzMmM.s 			page 53


 1916 0002 8FB0     		sub	sp, sp, #60
 1917              		.cfi_def_cfa_offset 72
 1918 0004 00AF     		add	r7, sp, #0
 1919              		.cfi_def_cfa_register 7
 1920 0006 F860     		str	r0, [r7, #12]
 1921 0008 B960     		str	r1, [r7, #8]
 1922 000a 7A60     		str	r2, [r7, #4]
 1923 000c 3B60     		str	r3, [r7]
 409:Lib/AI_Runtime/Npu/ll_aton/ll_aton_lib_sw_operators.c ****   int tot_size = LL_Buffer_len(input);
 1924              		.loc 1 409 18
 1925 000e F868     		ldr	r0, [r7, #12]
 1926 0010 FFF7FEFF 		bl	LL_Buffer_len
 1927 0014 0346     		mov	r3, r0
 1928              		.loc 1 409 7 discriminator 1
 1929 0016 FB61     		str	r3, [r7, #28]
 410:Lib/AI_Runtime/Npu/ll_aton/ll_aton_lib_sw_operators.c **** 
 411:Lib/AI_Runtime/Npu/ll_aton/ll_aton_lib_sw_operators.c ****   int start = 0;
 1930              		.loc 1 411 7
 1931 0018 0023     		movs	r3, #0
 1932 001a 7B63     		str	r3, [r7, #52]
 412:Lib/AI_Runtime/Npu/ll_aton/ll_aton_lib_sw_operators.c ****   int stop = tot_size;
 1933              		.loc 1 412 7
 1934 001c FB69     		ldr	r3, [r7, #28]
 1935 001e BB61     		str	r3, [r7, #24]
 413:Lib/AI_Runtime/Npu/ll_aton/ll_aton_lib_sw_operators.c ****   int jump_base = 1;
 1936              		.loc 1 413 7
 1937 0020 0123     		movs	r3, #1
 1938 0022 3B63     		str	r3, [r7, #48]
 1939              	.LBB15:
 414:Lib/AI_Runtime/Npu/ll_aton/ll_aton_lib_sw_operators.c ****   for (int i = split_onnx_axis + 1; i < rank; i++)
 1940              		.loc 1 414 12
 1941 0024 BB6C     		ldr	r3, [r7, #72]
 1942 0026 0133     		adds	r3, r3, #1
 1943 0028 FB62     		str	r3, [r7, #44]
 1944              		.loc 1 414 3
 1945 002a 0CE0     		b	.L102
 1946              	.L103:
 415:Lib/AI_Runtime/Npu/ll_aton/ll_aton_lib_sw_operators.c ****     jump_base *= input->shape[i];
 1947              		.loc 1 415 23
 1948 002c FB68     		ldr	r3, [r7, #12]
 1949 002e DA6A     		ldr	r2, [r3, #44]
 1950              		.loc 1 415 30
 1951 0030 FB6A     		ldr	r3, [r7, #44]
 1952 0032 9B00     		lsls	r3, r3, #2
 1953 0034 1344     		add	r3, r3, r2
 1954 0036 1B68     		ldr	r3, [r3]
 1955              		.loc 1 415 15
 1956 0038 3A6B     		ldr	r2, [r7, #48]
 1957 003a 02FB03F3 		mul	r3, r2, r3
 1958 003e 3B63     		str	r3, [r7, #48]
 414:Lib/AI_Runtime/Npu/ll_aton/ll_aton_lib_sw_operators.c ****   for (int i = split_onnx_axis + 1; i < rank; i++)
 1959              		.loc 1 414 48 discriminator 3
 1960 0040 FB6A     		ldr	r3, [r7, #44]
 1961 0042 0133     		adds	r3, r3, #1
 1962 0044 FB62     		str	r3, [r7, #44]
 1963              	.L102:
 414:Lib/AI_Runtime/Npu/ll_aton/ll_aton_lib_sw_operators.c ****   for (int i = split_onnx_axis + 1; i < rank; i++)
ARM GAS  /tmp/ccgnzMmM.s 			page 54


 1964              		.loc 1 414 39 discriminator 1
 1965 0046 FA6A     		ldr	r2, [r7, #44]
 1966 0048 3B68     		ldr	r3, [r7]
 1967 004a 9A42     		cmp	r2, r3
 1968 004c EEDB     		blt	.L103
 1969              	.LBE15:
 416:Lib/AI_Runtime/Npu/ll_aton/ll_aton_lib_sw_operators.c ****   jump_base *= LL_LIB_NBYTES(input->nbits);
 1970              		.loc 1 416 16
 1971 004e FB68     		ldr	r3, [r7, #12]
 1972 0050 93F82830 		ldrb	r3, [r3, #40]	@ zero_extendqisi2
 1973 0054 0733     		adds	r3, r3, #7
 1974 0056 DA10     		asrs	r2, r3, #3
 1975              		.loc 1 416 13
 1976 0058 3B6B     		ldr	r3, [r7, #48]
 1977 005a 02FB03F3 		mul	r3, r2, r3
 1978 005e 3B63     		str	r3, [r7, #48]
 417:Lib/AI_Runtime/Npu/ll_aton/ll_aton_lib_sw_operators.c ****   int jump = jump_base * input->shape[split_onnx_axis];
 1979              		.loc 1 417 31
 1980 0060 FB68     		ldr	r3, [r7, #12]
 1981 0062 DA6A     		ldr	r2, [r3, #44]
 1982              		.loc 1 417 38
 1983 0064 BB6C     		ldr	r3, [r7, #72]
 1984 0066 9B00     		lsls	r3, r3, #2
 1985 0068 1344     		add	r3, r3, r2
 1986 006a 1B68     		ldr	r3, [r3]
 1987              		.loc 1 417 24
 1988 006c 3A6B     		ldr	r2, [r7, #48]
 1989 006e 02FB03F3 		mul	r3, r2, r3
 1990              		.loc 1 417 7
 1991 0072 7B61     		str	r3, [r7, #20]
 1992              	.LBB16:
 418:Lib/AI_Runtime/Npu/ll_aton/ll_aton_lib_sw_operators.c ****   // LL_ATON_PRINTF("onnx_axis=%d, aton_axis=%d, jump_base=%d, jump=%d\n", split_onnx_axis, aton_ax
 419:Lib/AI_Runtime/Npu/ll_aton/ll_aton_lib_sw_operators.c **** 
 420:Lib/AI_Runtime/Npu/ll_aton/ll_aton_lib_sw_operators.c ****   for (int i = 0; i < nr_of_outputs; i++)
 1993              		.loc 1 420 12
 1994 0074 0023     		movs	r3, #0
 1995 0076 BB62     		str	r3, [r7, #40]
 1996              		.loc 1 420 3
 1997 0078 41E0     		b	.L104
 1998              	.L107:
 1999              	.LBB17:
 421:Lib/AI_Runtime/Npu/ll_aton/ll_aton_lib_sw_operators.c ****   {
 422:Lib/AI_Runtime/Npu/ll_aton/ll_aton_lib_sw_operators.c ****     int copy_val = (*outputs)[i].shape[split_onnx_axis] * jump_base;
 2000              		.loc 1 422 33
 2001 007a B968     		ldr	r1, [r7, #8]
 2002 007c BA6A     		ldr	r2, [r7, #40]
 2003 007e 1346     		mov	r3, r2
 2004 0080 DB00     		lsls	r3, r3, #3
 2005 0082 9B1A     		subs	r3, r3, r2
 2006 0084 DB00     		lsls	r3, r3, #3
 2007 0086 0B44     		add	r3, r3, r1
 2008 0088 2C33     		adds	r3, r3, #44
 2009 008a 1A68     		ldr	r2, [r3]
 2010              		.loc 1 422 39
 2011 008c BB6C     		ldr	r3, [r7, #72]
 2012 008e 9B00     		lsls	r3, r3, #2
 2013 0090 1344     		add	r3, r3, r2
ARM GAS  /tmp/ccgnzMmM.s 			page 55


 2014 0092 1B68     		ldr	r3, [r3]
 2015              		.loc 1 422 57
 2016 0094 3A6B     		ldr	r2, [r7, #48]
 2017 0096 02FB03F3 		mul	r3, r2, r3
 2018              		.loc 1 422 9
 2019 009a 3B61     		str	r3, [r7, #16]
 423:Lib/AI_Runtime/Npu/ll_aton/ll_aton_lib_sw_operators.c ****     // LL_ATON_PRINTF("i=%d copy_val=%d\n", i, copy_val);
 424:Lib/AI_Runtime/Npu/ll_aton/ll_aton_lib_sw_operators.c **** 
 425:Lib/AI_Runtime/Npu/ll_aton/ll_aton_lib_sw_operators.c ****     int source;
 426:Lib/AI_Runtime/Npu/ll_aton/ll_aton_lib_sw_operators.c ****     int dest = 0;
 2020              		.loc 1 426 9
 2021 009c 0023     		movs	r3, #0
 2022 009e 3B62     		str	r3, [r7, #32]
 427:Lib/AI_Runtime/Npu/ll_aton/ll_aton_lib_sw_operators.c ****     for (source = start; source < stop; source += jump, dest += copy_val)
 2023              		.loc 1 427 17
 2024 00a0 7B6B     		ldr	r3, [r7, #52]
 2025 00a2 7B62     		str	r3, [r7, #36]
 2026              		.loc 1 427 5
 2027 00a4 20E0     		b	.L105
 2028              	.L106:
 428:Lib/AI_Runtime/Npu/ll_aton/ll_aton_lib_sw_operators.c ****     {
 429:Lib/AI_Runtime/Npu/ll_aton/ll_aton_lib_sw_operators.c ****       // LL_ATON_PRINTF("i=%d, dest=%d, source=%d\n", i, dest, source);
 430:Lib/AI_Runtime/Npu/ll_aton/ll_aton_lib_sw_operators.c ****       memcpy(ATON_LIB_PHYSICAL_TO_VIRTUAL_ADDR(LL_Buffer_addr_start((*outputs) + i) + dest),
 2029              		.loc 1 430 14
 2030 00a6 BA6A     		ldr	r2, [r7, #40]
 2031 00a8 1346     		mov	r3, r2
 2032 00aa DB00     		lsls	r3, r3, #3
 2033 00ac 9B1A     		subs	r3, r3, r2
 2034 00ae DB00     		lsls	r3, r3, #3
 2035 00b0 1A46     		mov	r2, r3
 2036 00b2 BB68     		ldr	r3, [r7, #8]
 2037 00b4 1344     		add	r3, r3, r2
 2038 00b6 1846     		mov	r0, r3
 2039 00b8 FFF7FEFF 		bl	LL_Buffer_addr_start
 2040 00bc 0246     		mov	r2, r0
 2041              		.loc 1 430 7 discriminator 1
 2042 00be 3B6A     		ldr	r3, [r7, #32]
 2043              		.loc 1 430 14 discriminator 1
 2044 00c0 D418     		adds	r4, r2, r3
 431:Lib/AI_Runtime/Npu/ll_aton/ll_aton_lib_sw_operators.c ****              ATON_LIB_PHYSICAL_TO_VIRTUAL_ADDR(LL_Buffer_addr_start(input) + source), copy_val);
 2045              		.loc 1 431 14
 2046 00c2 F868     		ldr	r0, [r7, #12]
 2047 00c4 FFF7FEFF 		bl	LL_Buffer_addr_start
 2048 00c8 0246     		mov	r2, r0
 430:Lib/AI_Runtime/Npu/ll_aton/ll_aton_lib_sw_operators.c ****              ATON_LIB_PHYSICAL_TO_VIRTUAL_ADDR(LL_Buffer_addr_start(input) + source), copy_val);
 2049              		.loc 1 430 7
 2050 00ca 7B6A     		ldr	r3, [r7, #36]
 2051              		.loc 1 431 14
 2052 00cc 1344     		add	r3, r3, r2
 430:Lib/AI_Runtime/Npu/ll_aton/ll_aton_lib_sw_operators.c ****              ATON_LIB_PHYSICAL_TO_VIRTUAL_ADDR(LL_Buffer_addr_start(input) + source), copy_val);
 2053              		.loc 1 430 7
 2054 00ce 3A69     		ldr	r2, [r7, #16]
 2055 00d0 1946     		mov	r1, r3
 2056 00d2 2046     		mov	r0, r4
 2057 00d4 FFF7FEFF 		bl	memcpy
 427:Lib/AI_Runtime/Npu/ll_aton/ll_aton_lib_sw_operators.c ****     {
 2058              		.loc 1 427 48 discriminator 3
ARM GAS  /tmp/ccgnzMmM.s 			page 56


 2059 00d8 7A6A     		ldr	r2, [r7, #36]
 2060 00da 7B69     		ldr	r3, [r7, #20]
 2061 00dc 1344     		add	r3, r3, r2
 2062 00de 7B62     		str	r3, [r7, #36]
 427:Lib/AI_Runtime/Npu/ll_aton/ll_aton_lib_sw_operators.c ****     {
 2063              		.loc 1 427 62 discriminator 3
 2064 00e0 3A6A     		ldr	r2, [r7, #32]
 2065 00e2 3B69     		ldr	r3, [r7, #16]
 2066 00e4 1344     		add	r3, r3, r2
 2067 00e6 3B62     		str	r3, [r7, #32]
 2068              	.L105:
 427:Lib/AI_Runtime/Npu/ll_aton/ll_aton_lib_sw_operators.c ****     {
 2069              		.loc 1 427 33 discriminator 1
 2070 00e8 7A6A     		ldr	r2, [r7, #36]
 2071 00ea BB69     		ldr	r3, [r7, #24]
 2072 00ec 9A42     		cmp	r2, r3
 2073 00ee DADB     		blt	.L106
 432:Lib/AI_Runtime/Npu/ll_aton/ll_aton_lib_sw_operators.c ****     }
 433:Lib/AI_Runtime/Npu/ll_aton/ll_aton_lib_sw_operators.c ****     start += copy_val;
 2074              		.loc 1 433 11
 2075 00f0 7A6B     		ldr	r2, [r7, #52]
 2076 00f2 3B69     		ldr	r3, [r7, #16]
 2077 00f4 1344     		add	r3, r3, r2
 2078 00f6 7B63     		str	r3, [r7, #52]
 2079              	.LBE17:
 420:Lib/AI_Runtime/Npu/ll_aton/ll_aton_lib_sw_operators.c ****   {
 2080              		.loc 1 420 39 discriminator 2
 2081 00f8 BB6A     		ldr	r3, [r7, #40]
 2082 00fa 0133     		adds	r3, r3, #1
 2083 00fc BB62     		str	r3, [r7, #40]
 2084              	.L104:
 420:Lib/AI_Runtime/Npu/ll_aton/ll_aton_lib_sw_operators.c ****   {
 2085              		.loc 1 420 21 discriminator 1
 2086 00fe BA6A     		ldr	r2, [r7, #40]
 2087 0100 7B68     		ldr	r3, [r7, #4]
 2088 0102 9A42     		cmp	r2, r3
 2089 0104 B9DB     		blt	.L107
 2090              	.LBE16:
 434:Lib/AI_Runtime/Npu/ll_aton/ll_aton_lib_sw_operators.c ****   }
 435:Lib/AI_Runtime/Npu/ll_aton/ll_aton_lib_sw_operators.c **** }
 2091              		.loc 1 435 1
 2092 0106 00BF     		nop
 2093 0108 00BF     		nop
 2094 010a 3C37     		adds	r7, r7, #60
 2095              		.cfi_def_cfa_offset 12
 2096 010c BD46     		mov	sp, r7
 2097              		.cfi_def_cfa_register 13
 2098              		@ sp needed
 2099 010e 90BD     		pop	{r4, r7, pc}
 2100              		.cfi_endproc
 2101              	.LFE4863:
 2103              		.section	.rodata
 2104              		.align	2
 2105              	.LC12:
 2106 01b4 72616E6B 		.ascii	"rank >= 3\000"
 2106      203E3D20 
 2106      3300
ARM GAS  /tmp/ccgnzMmM.s 			page 57


 2107 01be 0000     		.align	2
 2108              	.LC13:
 2109 01c0 28696E70 		.ascii	"(input->batch == 0) || (input->batch == input->shap"
 2109      75742D3E 
 2109      62617463 
 2109      68203D3D 
 2109      20302920 
 2110 01f3 655B7370 		.ascii	"e[split_onnx_axis])\000"
 2110      6C69745F 
 2110      6F6E6E78 
 2110      5F617869 
 2110      735D2900 
 2111 0207 00       		.align	2
 2112              	.LC14:
 2113 0208 73706C69 		.ascii	"split_onnx_axis == (rank - 3)\000"
 2113      745F6F6E 
 2113      6E785F61 
 2113      78697320 
 2113      3D3D2028 
 2114 0226 0000     		.align	2
 2115              	.LC15:
 2116 0228 286F7574 		.ascii	"(out_nchannels % out_batch) == 0\000"
 2116      5F6E6368 
 2116      616E6E65 
 2116      6C732025 
 2116      206F7574 
 2117              		.section	.text.__ll_aton_lib_split_channel_batched,"ax",%progbits
 2118              		.align	1
 2119              		.syntax unified
 2120              		.thumb
 2121              		.thumb_func
 2123              	__ll_aton_lib_split_channel_batched:
 2124              	.LFB4864:
 436:Lib/AI_Runtime/Npu/ll_aton/ll_aton_lib_sw_operators.c **** 
 437:Lib/AI_Runtime/Npu/ll_aton/ll_aton_lib_sw_operators.c **** /* beyond function assumes that adapted rank is equal to 3, that input tensor is ATON canonical, an
 438:Lib/AI_Runtime/Npu/ll_aton/ll_aton_lib_sw_operators.c ****  * is channel */
 439:Lib/AI_Runtime/Npu/ll_aton/ll_aton_lib_sw_operators.c **** static void __ll_aton_lib_split_channel_batched(const LL_LIB_TensorShape_TypeDef *input,
 440:Lib/AI_Runtime/Npu/ll_aton/ll_aton_lib_sw_operators.c ****                                                 const LL_LIB_TensorShape_TypeDef (*outputs)[], uint
 441:Lib/AI_Runtime/Npu/ll_aton/ll_aton_lib_sw_operators.c ****                                                 uint32_t rank, uint32_t split_onnx_axis)
 442:Lib/AI_Runtime/Npu/ll_aton/ll_aton_lib_sw_operators.c **** {
 2125              		.loc 1 442 1
 2126              		.cfi_startproc
 2127              		@ args = 4, pretend = 0, frame = 104
 2128              		@ frame_needed = 1, uses_anonymous_args = 0
 2129 0000 80B5     		push	{r7, lr}
 2130              		.cfi_def_cfa_offset 8
 2131              		.cfi_offset 7, -8
 2132              		.cfi_offset 14, -4
 2133 0002 9AB0     		sub	sp, sp, #104
 2134              		.cfi_def_cfa_offset 112
 2135 0004 00AF     		add	r7, sp, #0
 2136              		.cfi_def_cfa_register 7
 2137 0006 F860     		str	r0, [r7, #12]
 2138 0008 B960     		str	r1, [r7, #8]
 2139 000a 7A60     		str	r2, [r7, #4]
 2140 000c 3B60     		str	r3, [r7]
 443:Lib/AI_Runtime/Npu/ll_aton/ll_aton_lib_sw_operators.c ****   LL_ATON_ASSERT(rank >= 3); // input shape is at least 3-dimensional
ARM GAS  /tmp/ccgnzMmM.s 			page 58


 2141              		.loc 1 443 3
 2142 000e 3B68     		ldr	r3, [r7]
 2143 0010 022B     		cmp	r3, #2
 2144 0012 06D8     		bhi	.L109
 2145              		.loc 1 443 3 is_stmt 0 discriminator 1
 2146 0014 774B     		ldr	r3, .L121
 2147 0016 784A     		ldr	r2, .L121+4
 2148 0018 40F2BB11 		movw	r1, #443
 2149 001c 7748     		ldr	r0, .L121+8
 2150 001e FFF7FEFF 		bl	__assert_func
 2151              	.L109:
 444:Lib/AI_Runtime/Npu/ll_aton/ll_aton_lib_sw_operators.c ****   LL_ATON_ASSERT((input->batch == 0) ||
 2152              		.loc 1 444 3 is_stmt 1
 2153 0022 FB68     		ldr	r3, [r7, #12]
 2154 0024 9B69     		ldr	r3, [r3, #24]
 2155 0026 002B     		cmp	r3, #0
 2156 0028 10D0     		beq	.L110
 2157              		.loc 1 444 3 is_stmt 0 discriminator 1
 2158 002a FB68     		ldr	r3, [r7, #12]
 2159 002c 9A69     		ldr	r2, [r3, #24]
 2160 002e FB68     		ldr	r3, [r7, #12]
 2161 0030 D96A     		ldr	r1, [r3, #44]
 2162 0032 3B6F     		ldr	r3, [r7, #112]
 2163 0034 9B00     		lsls	r3, r3, #2
 2164 0036 0B44     		add	r3, r3, r1
 2165 0038 1B68     		ldr	r3, [r3]
 2166 003a 9A42     		cmp	r2, r3
 2167 003c 06D0     		beq	.L110
 2168              		.loc 1 444 3 discriminator 2
 2169 003e 704B     		ldr	r3, .L121+12
 2170 0040 6D4A     		ldr	r2, .L121+4
 2171 0042 4FF4DE71 		mov	r1, #444
 2172 0046 6D48     		ldr	r0, .L121+8
 2173 0048 FFF7FEFF 		bl	__assert_func
 2174              	.L110:
 445:Lib/AI_Runtime/Npu/ll_aton/ll_aton_lib_sw_operators.c ****                  (input->batch == input->shape[split_onnx_axis])); // input tensor is ATON canonica
 446:Lib/AI_Runtime/Npu/ll_aton/ll_aton_lib_sw_operators.c ****   LL_ATON_ASSERT(split_onnx_axis == (rank - 3));                   // split axis is channel
 2175              		.loc 1 446 3 is_stmt 1
 2176 004c 3B68     		ldr	r3, [r7]
 2177 004e 033B     		subs	r3, r3, #3
 2178 0050 3A6F     		ldr	r2, [r7, #112]
 2179 0052 9A42     		cmp	r2, r3
 2180 0054 06D0     		beq	.L111
 2181              		.loc 1 446 3 is_stmt 0 discriminator 1
 2182 0056 6B4B     		ldr	r3, .L121+16
 2183 0058 674A     		ldr	r2, .L121+4
 2184 005a 4FF4DF71 		mov	r1, #446
 2185 005e 6748     		ldr	r0, .L121+8
 2186 0060 FFF7FEFF 		bl	__assert_func
 2187              	.L111:
 447:Lib/AI_Runtime/Npu/ll_aton/ll_aton_lib_sw_operators.c **** 
 448:Lib/AI_Runtime/Npu/ll_aton/ll_aton_lib_sw_operators.c ****   uint32_t nbytes = LL_LIB_NBYTES(input->nbits);
 2188              		.loc 1 448 21 is_stmt 1
 2189 0064 FB68     		ldr	r3, [r7, #12]
 2190 0066 93F82830 		ldrb	r3, [r3, #40]	@ zero_extendqisi2
 2191 006a 0733     		adds	r3, r3, #7
 2192 006c DB10     		asrs	r3, r3, #3
ARM GAS  /tmp/ccgnzMmM.s 			page 59


 2193              		.loc 1 448 12
 2194 006e 3B64     		str	r3, [r7, #64]
 449:Lib/AI_Runtime/Npu/ll_aton/ll_aton_lib_sw_operators.c ****   uint32_t fheight = input->shape[rank - 2];
 2195              		.loc 1 449 27
 2196 0070 FB68     		ldr	r3, [r7, #12]
 2197 0072 DA6A     		ldr	r2, [r3, #44]
 2198              		.loc 1 449 34
 2199 0074 3B68     		ldr	r3, [r7]
 2200 0076 03F18043 		add	r3, r3, #1073741824
 2201 007a 023B     		subs	r3, r3, #2
 2202 007c 9B00     		lsls	r3, r3, #2
 2203 007e 1344     		add	r3, r3, r2
 2204              		.loc 1 449 12
 2205 0080 1B68     		ldr	r3, [r3]
 2206 0082 FB63     		str	r3, [r7, #60]
 450:Lib/AI_Runtime/Npu/ll_aton/ll_aton_lib_sw_operators.c ****   uint32_t fwidth = input->shape[rank - 1];
 2207              		.loc 1 450 26
 2208 0084 FB68     		ldr	r3, [r7, #12]
 2209 0086 DA6A     		ldr	r2, [r3, #44]
 2210              		.loc 1 450 33
 2211 0088 3B68     		ldr	r3, [r7]
 2212 008a 03F18043 		add	r3, r3, #1073741824
 2213 008e 013B     		subs	r3, r3, #1
 2214 0090 9B00     		lsls	r3, r3, #2
 2215 0092 1344     		add	r3, r3, r2
 2216              		.loc 1 450 12
 2217 0094 1B68     		ldr	r3, [r3]
 2218 0096 BB63     		str	r3, [r7, #56]
 451:Lib/AI_Runtime/Npu/ll_aton/ll_aton_lib_sw_operators.c ****   uint32_t in_nchannels = input->shape[split_onnx_axis];
 2219              		.loc 1 451 32
 2220 0098 FB68     		ldr	r3, [r7, #12]
 2221 009a DA6A     		ldr	r2, [r3, #44]
 2222              		.loc 1 451 39
 2223 009c 3B6F     		ldr	r3, [r7, #112]
 2224 009e 9B00     		lsls	r3, r3, #2
 2225 00a0 1344     		add	r3, r3, r2
 2226              		.loc 1 451 12
 2227 00a2 1B68     		ldr	r3, [r3]
 2228 00a4 7B63     		str	r3, [r7, #52]
 452:Lib/AI_Runtime/Npu/ll_aton/ll_aton_lib_sw_operators.c ****   uint32_t batch_offset = in_nchannels * nbytes;
 2229              		.loc 1 452 12
 2230 00a6 7B6B     		ldr	r3, [r7, #52]
 2231 00a8 3A6C     		ldr	r2, [r7, #64]
 2232 00aa 02FB03F3 		mul	r3, r2, r3
 2233 00ae 3B63     		str	r3, [r7, #48]
 453:Lib/AI_Runtime/Npu/ll_aton/ll_aton_lib_sw_operators.c **** 
 454:Lib/AI_Runtime/Npu/ll_aton/ll_aton_lib_sw_operators.c ****   // assuming that all leading dimensions up to channel are equal to 1!
 455:Lib/AI_Runtime/Npu/ll_aton/ll_aton_lib_sw_operators.c **** 
 456:Lib/AI_Runtime/Npu/ll_aton/ll_aton_lib_sw_operators.c ****   unsigned char *outer_addr = ATON_LIB_PHYSICAL_TO_VIRTUAL_ADDR(LL_Buffer_addr_start(input));
 2234              		.loc 1 456 31
 2235 00b0 F868     		ldr	r0, [r7, #12]
 2236 00b2 FFF7FEFF 		bl	LL_Buffer_addr_start
 2237 00b6 7866     		str	r0, [r7, #100]
 2238              	.LBB18:
 457:Lib/AI_Runtime/Npu/ll_aton/ll_aton_lib_sw_operators.c ****   for (int i = 0; i < nr_of_outputs; i++)
 2239              		.loc 1 457 12
 2240 00b8 0023     		movs	r3, #0
ARM GAS  /tmp/ccgnzMmM.s 			page 60


 2241 00ba 3B66     		str	r3, [r7, #96]
 2242              		.loc 1 457 3
 2243 00bc 8FE0     		b	.L112
 2244              	.L120:
 2245              	.LBB19:
 458:Lib/AI_Runtime/Npu/ll_aton/ll_aton_lib_sw_operators.c ****   {
 459:Lib/AI_Runtime/Npu/ll_aton/ll_aton_lib_sw_operators.c ****     uint16_t out_batch = (*outputs)[i].batch;
 2246              		.loc 1 459 39
 2247 00be B968     		ldr	r1, [r7, #8]
 2248 00c0 3A6E     		ldr	r2, [r7, #96]
 2249 00c2 1346     		mov	r3, r2
 2250 00c4 DB00     		lsls	r3, r3, #3
 2251 00c6 9B1A     		subs	r3, r3, r2
 2252 00c8 DB00     		lsls	r3, r3, #3
 2253 00ca 0B44     		add	r3, r3, r1
 2254 00cc 1833     		adds	r3, r3, #24
 2255 00ce 1B68     		ldr	r3, [r3]
 2256              		.loc 1 459 14
 2257 00d0 FB85     		strh	r3, [r7, #46]	@ movhi
 460:Lib/AI_Runtime/Npu/ll_aton/ll_aton_lib_sw_operators.c ****     uint32_t batch_depth_bytes = out_batch * nbytes;
 2258              		.loc 1 460 44
 2259 00d2 FA8D     		ldrh	r2, [r7, #46]
 2260              		.loc 1 460 14
 2261 00d4 3B6C     		ldr	r3, [r7, #64]
 2262 00d6 02FB03F3 		mul	r3, r2, r3
 2263 00da BB62     		str	r3, [r7, #40]
 461:Lib/AI_Runtime/Npu/ll_aton/ll_aton_lib_sw_operators.c ****     uint32_t line_offset = in_nchannels * fwidth * nbytes;
 2264              		.loc 1 461 41
 2265 00dc 7B6B     		ldr	r3, [r7, #52]
 2266 00de BA6B     		ldr	r2, [r7, #56]
 2267 00e0 03FB02F2 		mul	r2, r3, r2
 2268              		.loc 1 461 14
 2269 00e4 3B6C     		ldr	r3, [r7, #64]
 2270 00e6 02FB03F3 		mul	r3, r2, r3
 2271 00ea 7B62     		str	r3, [r7, #36]
 462:Lib/AI_Runtime/Npu/ll_aton/ll_aton_lib_sw_operators.c ****     uint32_t loop_offset = out_batch * nbytes;
 2272              		.loc 1 462 38
 2273 00ec FA8D     		ldrh	r2, [r7, #46]
 2274              		.loc 1 462 14
 2275 00ee 3B6C     		ldr	r3, [r7, #64]
 2276 00f0 02FB03F3 		mul	r3, r2, r3
 2277 00f4 3B62     		str	r3, [r7, #32]
 463:Lib/AI_Runtime/Npu/ll_aton/ll_aton_lib_sw_operators.c ****     uint32_t out_nchannels = (*outputs)[i].shape[split_onnx_axis];
 2278              		.loc 1 463 43
 2279 00f6 B968     		ldr	r1, [r7, #8]
 2280 00f8 3A6E     		ldr	r2, [r7, #96]
 2281 00fa 1346     		mov	r3, r2
 2282 00fc DB00     		lsls	r3, r3, #3
 2283 00fe 9B1A     		subs	r3, r3, r2
 2284 0100 DB00     		lsls	r3, r3, #3
 2285 0102 0B44     		add	r3, r3, r1
 2286 0104 2C33     		adds	r3, r3, #44
 2287 0106 1A68     		ldr	r2, [r3]
 2288              		.loc 1 463 49
 2289 0108 3B6F     		ldr	r3, [r7, #112]
 2290 010a 9B00     		lsls	r3, r3, #2
 2291 010c 1344     		add	r3, r3, r2
ARM GAS  /tmp/ccgnzMmM.s 			page 61


 2292              		.loc 1 463 14
 2293 010e 1B68     		ldr	r3, [r3]
 2294 0110 FB61     		str	r3, [r7, #28]
 464:Lib/AI_Runtime/Npu/ll_aton/ll_aton_lib_sw_operators.c **** 
 465:Lib/AI_Runtime/Npu/ll_aton/ll_aton_lib_sw_operators.c ****     LL_ATON_ASSERT((out_nchannels % out_batch) == 0);
 2295              		.loc 1 465 5
 2296 0112 FA8D     		ldrh	r2, [r7, #46]
 2297 0114 FB69     		ldr	r3, [r7, #28]
 2298 0116 B3FBF2F1 		udiv	r1, r3, r2
 2299 011a 01FB02F2 		mul	r2, r1, r2
 2300 011e 9B1A     		subs	r3, r3, r2
 2301 0120 002B     		cmp	r3, #0
 2302 0122 06D0     		beq	.L113
 2303              		.loc 1 465 5 is_stmt 0 discriminator 1
 2304 0124 384B     		ldr	r3, .L121+20
 2305 0126 344A     		ldr	r2, .L121+4
 2306 0128 40F2D111 		movw	r1, #465
 2307 012c 3348     		ldr	r0, .L121+8
 2308 012e FFF7FEFF 		bl	__assert_func
 2309              	.L113:
 466:Lib/AI_Runtime/Npu/ll_aton/ll_aton_lib_sw_operators.c ****     uint32_t frame_tot_cnt = out_nchannels / out_batch;
 2310              		.loc 1 466 44 is_stmt 1
 2311 0132 FB8D     		ldrh	r3, [r7, #46]
 2312              		.loc 1 466 14
 2313 0134 FA69     		ldr	r2, [r7, #28]
 2314 0136 B2FBF3F3 		udiv	r3, r2, r3
 2315 013a BB61     		str	r3, [r7, #24]
 467:Lib/AI_Runtime/Npu/ll_aton/ll_aton_lib_sw_operators.c **** 
 468:Lib/AI_Runtime/Npu/ll_aton/ll_aton_lib_sw_operators.c ****     unsigned char *output_addr = ATON_LIB_PHYSICAL_TO_VIRTUAL_ADDR(LL_Buffer_addr_start((*outputs) 
 2316              		.loc 1 468 34
 2317 013c 3A6E     		ldr	r2, [r7, #96]
 2318 013e 1346     		mov	r3, r2
 2319 0140 DB00     		lsls	r3, r3, #3
 2320 0142 9B1A     		subs	r3, r3, r2
 2321 0144 DB00     		lsls	r3, r3, #3
 2322 0146 1A46     		mov	r2, r3
 2323 0148 BB68     		ldr	r3, [r7, #8]
 2324 014a 1344     		add	r3, r3, r2
 2325 014c 1846     		mov	r0, r3
 2326 014e FFF7FEFF 		bl	LL_Buffer_addr_start
 2327 0152 F865     		str	r0, [r7, #92]
 469:Lib/AI_Runtime/Npu/ll_aton/ll_aton_lib_sw_operators.c **** 
 470:Lib/AI_Runtime/Npu/ll_aton/ll_aton_lib_sw_operators.c ****     /* main loop */
 471:Lib/AI_Runtime/Npu/ll_aton/ll_aton_lib_sw_operators.c ****     unsigned char *addr_main_loop = outer_addr;
 2328              		.loc 1 471 20
 2329 0154 7B6E     		ldr	r3, [r7, #100]
 2330 0156 BB65     		str	r3, [r7, #88]
 2331              	.LBB20:
 472:Lib/AI_Runtime/Npu/ll_aton/ll_aton_lib_sw_operators.c ****     for (int j = 0; j < frame_tot_cnt; j++)
 2332              		.loc 1 472 14
 2333 0158 0023     		movs	r3, #0
 2334 015a 7B65     		str	r3, [r7, #84]
 2335              		.loc 1 472 5
 2336 015c 31E0     		b	.L114
 2337              	.L119:
 2338              	.LBB21:
 473:Lib/AI_Runtime/Npu/ll_aton/ll_aton_lib_sw_operators.c ****     {
ARM GAS  /tmp/ccgnzMmM.s 			page 62


 474:Lib/AI_Runtime/Npu/ll_aton/ll_aton_lib_sw_operators.c ****       /* repetition loop (just a single iteration => removed) */
 475:Lib/AI_Runtime/Npu/ll_aton/ll_aton_lib_sw_operators.c ****       unsigned char *repetition_addr = addr_main_loop;
 2339              		.loc 1 475 22
 2340 015e BB6D     		ldr	r3, [r7, #88]
 2341 0160 7B61     		str	r3, [r7, #20]
 476:Lib/AI_Runtime/Npu/ll_aton/ll_aton_lib_sw_operators.c **** 
 477:Lib/AI_Runtime/Npu/ll_aton/ll_aton_lib_sw_operators.c ****       /* line loop */
 478:Lib/AI_Runtime/Npu/ll_aton/ll_aton_lib_sw_operators.c ****       unsigned char *line_addr = repetition_addr;
 2342              		.loc 1 478 22
 2343 0162 7B69     		ldr	r3, [r7, #20]
 2344 0164 3B65     		str	r3, [r7, #80]
 2345              	.LBB22:
 479:Lib/AI_Runtime/Npu/ll_aton/ll_aton_lib_sw_operators.c ****       for (int x = 0; x < fheight; x++)
 2346              		.loc 1 479 16
 2347 0166 0023     		movs	r3, #0
 2348 0168 FB64     		str	r3, [r7, #76]
 2349              		.loc 1 479 7
 2350 016a 1FE0     		b	.L115
 2351              	.L118:
 2352              	.LBB23:
 480:Lib/AI_Runtime/Npu/ll_aton/ll_aton_lib_sw_operators.c ****       {
 481:Lib/AI_Runtime/Npu/ll_aton/ll_aton_lib_sw_operators.c ****         /* batch loop */
 482:Lib/AI_Runtime/Npu/ll_aton/ll_aton_lib_sw_operators.c ****         unsigned char *batch_addr = line_addr;
 2353              		.loc 1 482 24
 2354 016c 3B6D     		ldr	r3, [r7, #80]
 2355 016e BB64     		str	r3, [r7, #72]
 2356              	.LBB24:
 483:Lib/AI_Runtime/Npu/ll_aton/ll_aton_lib_sw_operators.c ****         for (int y = 0; y < fwidth; y++)
 2357              		.loc 1 483 18
 2358 0170 0023     		movs	r3, #0
 2359 0172 7B64     		str	r3, [r7, #68]
 2360              		.loc 1 483 9
 2361 0174 0FE0     		b	.L116
 2362              	.L117:
 484:Lib/AI_Runtime/Npu/ll_aton/ll_aton_lib_sw_operators.c ****         {
 485:Lib/AI_Runtime/Npu/ll_aton/ll_aton_lib_sw_operators.c ****           memcpy(output_addr, batch_addr, batch_depth_bytes);
 2363              		.loc 1 485 11
 2364 0176 BA6A     		ldr	r2, [r7, #40]
 2365 0178 B96C     		ldr	r1, [r7, #72]
 2366 017a F86D     		ldr	r0, [r7, #92]
 2367 017c FFF7FEFF 		bl	memcpy
 486:Lib/AI_Runtime/Npu/ll_aton/ll_aton_lib_sw_operators.c **** 
 487:Lib/AI_Runtime/Npu/ll_aton/ll_aton_lib_sw_operators.c ****           output_addr += batch_depth_bytes;
 2368              		.loc 1 487 23
 2369 0180 FA6D     		ldr	r2, [r7, #92]
 2370 0182 BB6A     		ldr	r3, [r7, #40]
 2371 0184 1344     		add	r3, r3, r2
 2372 0186 FB65     		str	r3, [r7, #92]
 488:Lib/AI_Runtime/Npu/ll_aton/ll_aton_lib_sw_operators.c ****           batch_addr += batch_offset;
 2373              		.loc 1 488 22
 2374 0188 BA6C     		ldr	r2, [r7, #72]
 2375 018a 3B6B     		ldr	r3, [r7, #48]
 2376 018c 1344     		add	r3, r3, r2
 2377 018e BB64     		str	r3, [r7, #72]
 483:Lib/AI_Runtime/Npu/ll_aton/ll_aton_lib_sw_operators.c ****         {
 2378              		.loc 1 483 38 discriminator 3
 2379 0190 7B6C     		ldr	r3, [r7, #68]
ARM GAS  /tmp/ccgnzMmM.s 			page 63


 2380 0192 0133     		adds	r3, r3, #1
 2381 0194 7B64     		str	r3, [r7, #68]
 2382              	.L116:
 483:Lib/AI_Runtime/Npu/ll_aton/ll_aton_lib_sw_operators.c ****         {
 2383              		.loc 1 483 27 discriminator 1
 2384 0196 7B6C     		ldr	r3, [r7, #68]
 2385 0198 BA6B     		ldr	r2, [r7, #56]
 2386 019a 9A42     		cmp	r2, r3
 2387 019c EBD8     		bhi	.L117
 2388              	.LBE24:
 489:Lib/AI_Runtime/Npu/ll_aton/ll_aton_lib_sw_operators.c ****         }
 490:Lib/AI_Runtime/Npu/ll_aton/ll_aton_lib_sw_operators.c ****         line_addr += line_offset;
 2389              		.loc 1 490 19
 2390 019e 3A6D     		ldr	r2, [r7, #80]
 2391 01a0 7B6A     		ldr	r3, [r7, #36]
 2392 01a2 1344     		add	r3, r3, r2
 2393 01a4 3B65     		str	r3, [r7, #80]
 2394              	.LBE23:
 479:Lib/AI_Runtime/Npu/ll_aton/ll_aton_lib_sw_operators.c ****       {
 2395              		.loc 1 479 37 discriminator 2
 2396 01a6 FB6C     		ldr	r3, [r7, #76]
 2397 01a8 0133     		adds	r3, r3, #1
 2398 01aa FB64     		str	r3, [r7, #76]
 2399              	.L115:
 479:Lib/AI_Runtime/Npu/ll_aton/ll_aton_lib_sw_operators.c ****       {
 2400              		.loc 1 479 25 discriminator 1
 2401 01ac FB6C     		ldr	r3, [r7, #76]
 2402 01ae FA6B     		ldr	r2, [r7, #60]
 2403 01b0 9A42     		cmp	r2, r3
 2404 01b2 DBD8     		bhi	.L118
 2405              	.LBE22:
 491:Lib/AI_Runtime/Npu/ll_aton/ll_aton_lib_sw_operators.c ****       }
 492:Lib/AI_Runtime/Npu/ll_aton/ll_aton_lib_sw_operators.c ****       addr_main_loop += loop_offset;
 2406              		.loc 1 492 22
 2407 01b4 BA6D     		ldr	r2, [r7, #88]
 2408 01b6 3B6A     		ldr	r3, [r7, #32]
 2409 01b8 1344     		add	r3, r3, r2
 2410 01ba BB65     		str	r3, [r7, #88]
 2411              	.LBE21:
 472:Lib/AI_Runtime/Npu/ll_aton/ll_aton_lib_sw_operators.c ****     {
 2412              		.loc 1 472 41 discriminator 2
 2413 01bc 7B6D     		ldr	r3, [r7, #84]
 2414 01be 0133     		adds	r3, r3, #1
 2415 01c0 7B65     		str	r3, [r7, #84]
 2416              	.L114:
 472:Lib/AI_Runtime/Npu/ll_aton/ll_aton_lib_sw_operators.c ****     {
 2417              		.loc 1 472 23 discriminator 1
 2418 01c2 7B6D     		ldr	r3, [r7, #84]
 2419 01c4 BA69     		ldr	r2, [r7, #24]
 2420 01c6 9A42     		cmp	r2, r3
 2421 01c8 C9D8     		bhi	.L119
 2422              	.LBE20:
 493:Lib/AI_Runtime/Npu/ll_aton/ll_aton_lib_sw_operators.c ****     }
 494:Lib/AI_Runtime/Npu/ll_aton/ll_aton_lib_sw_operators.c ****     outer_addr += out_nchannels * nbytes;
 2423              		.loc 1 494 33
 2424 01ca FB69     		ldr	r3, [r7, #28]
 2425 01cc 3A6C     		ldr	r2, [r7, #64]
ARM GAS  /tmp/ccgnzMmM.s 			page 64


 2426 01ce 02FB03F3 		mul	r3, r2, r3
 2427              		.loc 1 494 16
 2428 01d2 7A6E     		ldr	r2, [r7, #100]
 2429 01d4 1344     		add	r3, r3, r2
 2430 01d6 7B66     		str	r3, [r7, #100]
 2431              	.LBE19:
 457:Lib/AI_Runtime/Npu/ll_aton/ll_aton_lib_sw_operators.c ****   {
 2432              		.loc 1 457 39 discriminator 2
 2433 01d8 3B6E     		ldr	r3, [r7, #96]
 2434 01da 0133     		adds	r3, r3, #1
 2435 01dc 3B66     		str	r3, [r7, #96]
 2436              	.L112:
 457:Lib/AI_Runtime/Npu/ll_aton/ll_aton_lib_sw_operators.c ****   {
 2437              		.loc 1 457 21 discriminator 1
 2438 01de 3B6E     		ldr	r3, [r7, #96]
 2439 01e0 7A68     		ldr	r2, [r7, #4]
 2440 01e2 9A42     		cmp	r2, r3
 2441 01e4 3FF66BAF 		bhi	.L120
 2442              	.LBE18:
 495:Lib/AI_Runtime/Npu/ll_aton/ll_aton_lib_sw_operators.c ****   }
 496:Lib/AI_Runtime/Npu/ll_aton/ll_aton_lib_sw_operators.c **** }
 2443              		.loc 1 496 1
 2444 01e8 00BF     		nop
 2445 01ea 00BF     		nop
 2446 01ec 6837     		adds	r7, r7, #104
 2447              		.cfi_def_cfa_offset 8
 2448 01ee BD46     		mov	sp, r7
 2449              		.cfi_def_cfa_register 13
 2450              		@ sp needed
 2451 01f0 80BD     		pop	{r7, pc}
 2452              	.L122:
 2453 01f2 00BF     		.align	2
 2454              	.L121:
 2455 01f4 B4010000 		.word	.LC12
 2456 01f8 00000000 		.word	__func__.25
 2457 01fc 24000000 		.word	.LC1
 2458 0200 C0010000 		.word	.LC13
 2459 0204 08020000 		.word	.LC14
 2460 0208 28020000 		.word	.LC15
 2461              		.cfi_endproc
 2462              	.LFE4864:
 2464              		.section	.rodata
 2465 0249 000000   		.align	2
 2466              	.LC16:
 2467 024c 646D615F 		.ascii	"dma_in == -1\000"
 2467      696E203D 
 2467      3D202D31 
 2467      00
 2468 0259 000000   		.align	2
 2469              	.LC17:
 2470 025c 646D615F 		.ascii	"dma_out == -1\000"
 2470      6F757420 
 2470      3D3D202D 
 2470      3100
 2471 026a 0000     		.align	2
 2472              	.LC18:
 2473 026c 646D615F 		.ascii	"dma_in != -1\000"
ARM GAS  /tmp/ccgnzMmM.s 			page 65


 2473      696E2021 
 2473      3D202D31 
 2473      00
 2474 0279 000000   		.align	2
 2475              	.LC19:
 2476 027c 646D615F 		.ascii	"dma_out != -1\000"
 2476      6F757420 
 2476      213D202D 
 2476      3100
 2477              		.section	.text.LL_ATON_LIB_Split,"ax",%progbits
 2478              		.align	1
 2479              		.global	LL_ATON_LIB_Split
 2480              		.syntax unified
 2481              		.thumb
 2482              		.thumb_func
 2484              	LL_ATON_LIB_Split:
 2485              	.LFB4865:
 497:Lib/AI_Runtime/Npu/ll_aton/ll_aton_lib_sw_operators.c **** 
 498:Lib/AI_Runtime/Npu/ll_aton/ll_aton_lib_sw_operators.c **** typedef enum
 499:Lib/AI_Runtime/Npu/ll_aton/ll_aton_lib_sw_operators.c **** { // MUST be the same as in the AtoNN compiler (file: `code_gen_info.h`)
 500:Lib/AI_Runtime/Npu/ll_aton/ll_aton_lib_sw_operators.c ****   SW_PURE_CANONICAL = 0,
 501:Lib/AI_Runtime/Npu/ll_aton/ll_aton_lib_sw_operators.c ****   HYBRID_CHANNEL_ATON = 1,
 502:Lib/AI_Runtime/Npu/ll_aton/ll_aton_lib_sw_operators.c ****   SW_CHANNEL_ATON = 2,
 503:Lib/AI_Runtime/Npu/ll_aton/ll_aton_lib_sw_operators.c ****   HYBRID_CHANNEL_BATCHED = 3,
 504:Lib/AI_Runtime/Npu/ll_aton/ll_aton_lib_sw_operators.c ****   SW_CHANNEL_BATCHED = 4,
 505:Lib/AI_Runtime/Npu/ll_aton/ll_aton_lib_sw_operators.c ****   DMA_CHANNEL_UNIFORM = 5,
 506:Lib/AI_Runtime/Npu/ll_aton/ll_aton_lib_sw_operators.c ****   SW_CHANNEL_UNIFORM = 6,
 507:Lib/AI_Runtime/Npu/ll_aton/ll_aton_lib_sw_operators.c ****   DMA_FLAT_CANONICAL = 7,
 508:Lib/AI_Runtime/Npu/ll_aton/ll_aton_lib_sw_operators.c ****   SW_FLAT_CANONICAL = 8,
 509:Lib/AI_Runtime/Npu/ll_aton/ll_aton_lib_sw_operators.c ****   DMA_FLAT_BATCHED = 9,
 510:Lib/AI_Runtime/Npu/ll_aton/ll_aton_lib_sw_operators.c ****   SW_FLAT_BATCHED = 10,
 511:Lib/AI_Runtime/Npu/ll_aton/ll_aton_lib_sw_operators.c **** } _split_cases_t;
 512:Lib/AI_Runtime/Npu/ll_aton/ll_aton_lib_sw_operators.c **** 
 513:Lib/AI_Runtime/Npu/ll_aton/ll_aton_lib_sw_operators.c **** int LL_ATON_LIB_Split(const LL_LIB_TensorShape_TypeDef *input, bool aton_canonical,
 514:Lib/AI_Runtime/Npu/ll_aton/ll_aton_lib_sw_operators.c ****                       const LL_LIB_TensorShape_TypeDef (*outputs)[], uint32_t noutputs, uint32_t ra
 515:Lib/AI_Runtime/Npu/ll_aton/ll_aton_lib_sw_operators.c ****                       uint32_t split_onnx_axis, uint32_t leading_dims, int split_case, int dma_in, 
 516:Lib/AI_Runtime/Npu/ll_aton/ll_aton_lib_sw_operators.c **** {
 2486              		.loc 1 516 1
 2487              		.cfi_startproc
 2488              		@ args = 24, pretend = 0, frame = 16
 2489              		@ frame_needed = 1, uses_anonymous_args = 0
 2490 0000 80B5     		push	{r7, lr}
 2491              		.cfi_def_cfa_offset 8
 2492              		.cfi_offset 7, -8
 2493              		.cfi_offset 14, -4
 2494 0002 86B0     		sub	sp, sp, #24
 2495              		.cfi_def_cfa_offset 32
 2496 0004 02AF     		add	r7, sp, #8
 2497              		.cfi_def_cfa 7, 24
 2498 0006 F860     		str	r0, [r7, #12]
 2499 0008 7A60     		str	r2, [r7, #4]
 2500 000a 3B60     		str	r3, [r7]
 2501 000c 0B46     		mov	r3, r1
 2502 000e FB72     		strb	r3, [r7, #11]
 517:Lib/AI_Runtime/Npu/ll_aton/ll_aton_lib_sw_operators.c ****   if (split_onnx_axis >= rank)
 2503              		.loc 1 517 6
 2504 0010 FA69     		ldr	r2, [r7, #28]
ARM GAS  /tmp/ccgnzMmM.s 			page 66


 2505 0012 BB69     		ldr	r3, [r7, #24]
 2506 0014 9A42     		cmp	r2, r3
 2507 0016 08D3     		bcc	.L124
 518:Lib/AI_Runtime/Npu/ll_aton/ll_aton_lib_sw_operators.c ****   {
 519:Lib/AI_Runtime/Npu/ll_aton/ll_aton_lib_sw_operators.c ****     __LL_LIB_ERROR(_ERR_AXIS, LL_ATON_INVALID_PARAM);
 2508              		.loc 1 519 5
 2509 0018 9F4A     		ldr	r2, .L172
 2510 001a 40F20721 		movw	r1, #519
 2511 001e 0320     		movs	r0, #3
 2512 0020 FFF7FEFF 		bl	__ll_lib_error
 2513              		.loc 1 519 5 is_stmt 0 discriminator 1
 2514 0024 6FF00103 		mvn	r3, #1
 2515              		.loc 1 519 5
 2516 0028 C2E1     		b	.L125
 2517              	.L124:
 520:Lib/AI_Runtime/Npu/ll_aton/ll_aton_lib_sw_operators.c ****   }
 521:Lib/AI_Runtime/Npu/ll_aton/ll_aton_lib_sw_operators.c **** 
 522:Lib/AI_Runtime/Npu/ll_aton/ll_aton_lib_sw_operators.c ****   if (input->ndims != rank)
 2518              		.loc 1 522 12 is_stmt 1
 2519 002a FB68     		ldr	r3, [r7, #12]
 2520 002c 93F82730 		ldrb	r3, [r3, #39]	@ zero_extendqisi2
 2521 0030 1A46     		mov	r2, r3
 2522              		.loc 1 522 6
 2523 0032 BB69     		ldr	r3, [r7, #24]
 2524 0034 9342     		cmp	r3, r2
 2525 0036 08D0     		beq	.L126
 523:Lib/AI_Runtime/Npu/ll_aton/ll_aton_lib_sw_operators.c ****   {
 524:Lib/AI_Runtime/Npu/ll_aton/ll_aton_lib_sw_operators.c ****     __LL_LIB_ERROR(_ERR_RANK, LL_ATON_INVALID_PARAM);
 2526              		.loc 1 524 5
 2527 0038 974A     		ldr	r2, .L172
 2528 003a 4FF40371 		mov	r1, #524
 2529 003e 0F20     		movs	r0, #15
 2530 0040 FFF7FEFF 		bl	__ll_lib_error
 2531              		.loc 1 524 5 is_stmt 0 discriminator 1
 2532 0044 6FF00103 		mvn	r3, #1
 2533              		.loc 1 524 5
 2534 0048 B2E1     		b	.L125
 2535              	.L126:
 525:Lib/AI_Runtime/Npu/ll_aton/ll_aton_lib_sw_operators.c ****   }
 526:Lib/AI_Runtime/Npu/ll_aton/ll_aton_lib_sw_operators.c **** 
 527:Lib/AI_Runtime/Npu/ll_aton/ll_aton_lib_sw_operators.c ****   if (input->ndims != (*outputs)[0].ndims)
 2536              		.loc 1 527 12 is_stmt 1
 2537 004a FB68     		ldr	r3, [r7, #12]
 2538 004c 93F82720 		ldrb	r2, [r3, #39]	@ zero_extendqisi2
 2539              		.loc 1 527 36
 2540 0050 7B68     		ldr	r3, [r7, #4]
 2541 0052 93F82730 		ldrb	r3, [r3, #39]	@ zero_extendqisi2
 2542              		.loc 1 527 6
 2543 0056 9A42     		cmp	r2, r3
 2544 0058 08D0     		beq	.L127
 528:Lib/AI_Runtime/Npu/ll_aton/ll_aton_lib_sw_operators.c ****   {
 529:Lib/AI_Runtime/Npu/ll_aton/ll_aton_lib_sw_operators.c ****     __LL_LIB_ERROR(_ERR_RANK, LL_ATON_INVALID_PARAM);
 2545              		.loc 1 529 5
 2546 005a 8F4A     		ldr	r2, .L172
 2547 005c 40F21121 		movw	r1, #529
 2548 0060 0F20     		movs	r0, #15
 2549 0062 FFF7FEFF 		bl	__ll_lib_error
ARM GAS  /tmp/ccgnzMmM.s 			page 67


 2550              		.loc 1 529 5 is_stmt 0 discriminator 1
 2551 0066 6FF00103 		mvn	r3, #1
 2552              		.loc 1 529 5
 2553 006a A1E1     		b	.L125
 2554              	.L127:
 530:Lib/AI_Runtime/Npu/ll_aton/ll_aton_lib_sw_operators.c ****   }
 531:Lib/AI_Runtime/Npu/ll_aton/ll_aton_lib_sw_operators.c **** 
 532:Lib/AI_Runtime/Npu/ll_aton/ll_aton_lib_sw_operators.c ****   if (input->nbits != (*outputs)[0].nbits)
 2555              		.loc 1 532 12 is_stmt 1
 2556 006c FB68     		ldr	r3, [r7, #12]
 2557 006e 93F82820 		ldrb	r2, [r3, #40]	@ zero_extendqisi2
 2558              		.loc 1 532 36
 2559 0072 7B68     		ldr	r3, [r7, #4]
 2560 0074 93F82830 		ldrb	r3, [r3, #40]	@ zero_extendqisi2
 2561              		.loc 1 532 6
 2562 0078 9A42     		cmp	r2, r3
 2563 007a 08D0     		beq	.L128
 533:Lib/AI_Runtime/Npu/ll_aton/ll_aton_lib_sw_operators.c ****   { // TODO: should we support this?
 534:Lib/AI_Runtime/Npu/ll_aton/ll_aton_lib_sw_operators.c ****     __LL_LIB_ERROR(_ERR_NBITS, LL_ATON_INVALID_PARAM);
 2564              		.loc 1 534 5
 2565 007c 864A     		ldr	r2, .L172
 2566 007e 40F21621 		movw	r1, #534
 2567 0082 0620     		movs	r0, #6
 2568 0084 FFF7FEFF 		bl	__ll_lib_error
 2569              		.loc 1 534 5 is_stmt 0 discriminator 1
 2570 0088 6FF00103 		mvn	r3, #1
 2571              		.loc 1 534 5
 2572 008c 90E1     		b	.L125
 2573              	.L128:
 535:Lib/AI_Runtime/Npu/ll_aton/ll_aton_lib_sw_operators.c ****   }
 536:Lib/AI_Runtime/Npu/ll_aton/ll_aton_lib_sw_operators.c **** 
 537:Lib/AI_Runtime/Npu/ll_aton/ll_aton_lib_sw_operators.c ****   if ((input->nbits < 8) || (input->nbits > 32))
 2574              		.loc 1 537 13 is_stmt 1
 2575 008e FB68     		ldr	r3, [r7, #12]
 2576 0090 93F82830 		ldrb	r3, [r3, #40]	@ zero_extendqisi2
 2577              		.loc 1 537 6
 2578 0094 072B     		cmp	r3, #7
 2579 0096 04D9     		bls	.L129
 2580              		.loc 1 537 35 discriminator 1
 2581 0098 FB68     		ldr	r3, [r7, #12]
 2582 009a 93F82830 		ldrb	r3, [r3, #40]	@ zero_extendqisi2
 2583              		.loc 1 537 26 discriminator 1
 2584 009e 202B     		cmp	r3, #32
 2585 00a0 08D9     		bls	.L130
 2586              	.L129:
 538:Lib/AI_Runtime/Npu/ll_aton/ll_aton_lib_sw_operators.c ****   {
 539:Lib/AI_Runtime/Npu/ll_aton/ll_aton_lib_sw_operators.c ****     __LL_LIB_ERROR(_ERR_NBITS, LL_ATON_INVALID_PARAM);
 2587              		.loc 1 539 5
 2588 00a2 7D4A     		ldr	r2, .L172
 2589 00a4 40F21B21 		movw	r1, #539
 2590 00a8 0620     		movs	r0, #6
 2591 00aa FFF7FEFF 		bl	__ll_lib_error
 2592              		.loc 1 539 5 is_stmt 0 discriminator 1
 2593 00ae 6FF00103 		mvn	r3, #1
 2594              		.loc 1 539 5
 2595 00b2 7DE1     		b	.L125
 2596              	.L130:
ARM GAS  /tmp/ccgnzMmM.s 			page 68


 540:Lib/AI_Runtime/Npu/ll_aton/ll_aton_lib_sw_operators.c ****   }
 541:Lib/AI_Runtime/Npu/ll_aton/ll_aton_lib_sw_operators.c **** 
 542:Lib/AI_Runtime/Npu/ll_aton/ll_aton_lib_sw_operators.c ****   if ((rank == 0) || (noutputs < 1))
 2597              		.loc 1 542 6 is_stmt 1
 2598 00b4 BB69     		ldr	r3, [r7, #24]
 2599 00b6 002B     		cmp	r3, #0
 2600 00b8 02D0     		beq	.L131
 2601              		.loc 1 542 19 discriminator 1
 2602 00ba 3B68     		ldr	r3, [r7]
 2603 00bc 002B     		cmp	r3, #0
 2604 00be 01D1     		bne	.L132
 2605              	.L131:
 543:Lib/AI_Runtime/Npu/ll_aton/ll_aton_lib_sw_operators.c ****     return LL_ATON_OK; // in case ONNX was out of specs
 2606              		.loc 1 543 12
 2607 00c0 0023     		movs	r3, #0
 2608 00c2 75E1     		b	.L125
 2609              	.L132:
 544:Lib/AI_Runtime/Npu/ll_aton/ll_aton_lib_sw_operators.c **** 
 545:Lib/AI_Runtime/Npu/ll_aton/ll_aton_lib_sw_operators.c ****   switch (split_case)
 2610              		.loc 1 545 3
 2611 00c4 7B6A     		ldr	r3, [r7, #36]
 2612 00c6 032B     		cmp	r3, #3
 2613 00c8 36DC     		bgt	.L133
 2614 00ca 7B6A     		ldr	r3, [r7, #36]
 2615 00cc 002B     		cmp	r3, #0
 2616 00ce 23DA     		bge	.L134
 2617 00d0 66E1     		b	.L135
 2618              	.L144:
 2619 00d2 7B6A     		ldr	r3, [r7, #36]
 2620 00d4 0122     		movs	r2, #1
 2621 00d6 02FA03F3 		lsl	r3, r2, r3
 2622 00da 03F42872 		and	r2, r3, #672
 2623 00de 002A     		cmp	r2, #0
 2624 00e0 14BF     		ite	ne
 2625 00e2 0122     		movne	r2, #1
 2626 00e4 0022     		moveq	r2, #0
 2627 00e6 D2B2     		uxtb	r2, r2
 2628 00e8 002A     		cmp	r2, #0
 2629 00ea 40F02781 		bne	.L136
 2630 00ee 03F4A862 		and	r2, r3, #1344
 2631 00f2 002A     		cmp	r2, #0
 2632 00f4 14BF     		ite	ne
 2633 00f6 0122     		movne	r2, #1
 2634 00f8 0022     		moveq	r2, #0
 2635 00fa D2B2     		uxtb	r2, r2
 2636 00fc 002A     		cmp	r2, #0
 2637 00fe 40F00781 		bne	.L137
 2638 0102 03F01003 		and	r3, r3, #16
 2639 0106 002B     		cmp	r3, #0
 2640 0108 14BF     		ite	ne
 2641 010a 0123     		movne	r3, #1
 2642 010c 0023     		moveq	r3, #0
 2643 010e DBB2     		uxtb	r3, r3
 2644 0110 002B     		cmp	r3, #0
 2645 0112 40F09C80 		bne	.L138
 2646 0116 43E1     		b	.L135
 2647              	.L134:
ARM GAS  /tmp/ccgnzMmM.s 			page 69


 2648 0118 7B6A     		ldr	r3, [r7, #36]
 2649 011a 032B     		cmp	r3, #3
 2650 011c 00F24081 		bhi	.L135
 2651 0120 01A2     		adr	r2, .L140
 2652 0122 52F823F0 		ldr	pc, [r2, r3, lsl #2]
 2653 0126 00BF     		.p2align 2
 2654              	.L140:
 2655 0128 49010000 		.word	.L143+1
 2656 012c CF010000 		.word	.L142+1
 2657 0130 A3010000 		.word	.L141+1
 2658 0134 7B020000 		.word	.L139+1
 2659              		.p2align 1
 2660              	.L133:
 2661 0138 7B6A     		ldr	r3, [r7, #36]
 2662 013a 0A2B     		cmp	r3, #10
 2663 013c 00F33081 		bgt	.L135
 2664 0140 7B6A     		ldr	r3, [r7, #36]
 2665 0142 042B     		cmp	r3, #4
 2666 0144 C5DA     		bge	.L144
 2667 0146 2BE1     		b	.L135
 2668              	.L143:
 546:Lib/AI_Runtime/Npu/ll_aton/ll_aton_lib_sw_operators.c ****   {
 547:Lib/AI_Runtime/Npu/ll_aton/ll_aton_lib_sw_operators.c ****   case SW_PURE_CANONICAL:
 548:Lib/AI_Runtime/Npu/ll_aton/ll_aton_lib_sw_operators.c ****   {
 549:Lib/AI_Runtime/Npu/ll_aton/ll_aton_lib_sw_operators.c ****     LL_ATON_ASSERT(dma_in == -1);
 2669              		.loc 1 549 5
 2670 0148 BB6A     		ldr	r3, [r7, #40]
 2671 014a B3F1FF3F 		cmp	r3, #-1
 2672 014e 06D0     		beq	.L145
 2673              		.loc 1 549 5 is_stmt 0 discriminator 1
 2674 0150 524B     		ldr	r3, .L172+4
 2675 0152 534A     		ldr	r2, .L172+8
 2676 0154 40F22521 		movw	r1, #549
 2677 0158 5248     		ldr	r0, .L172+12
 2678 015a FFF7FEFF 		bl	__assert_func
 2679              	.L145:
 550:Lib/AI_Runtime/Npu/ll_aton/ll_aton_lib_sw_operators.c ****     LL_ATON_ASSERT(dma_out == -1);
 2680              		.loc 1 550 5 is_stmt 1
 2681 015e FB6A     		ldr	r3, [r7, #44]
 2682 0160 B3F1FF3F 		cmp	r3, #-1
 2683 0164 06D0     		beq	.L146
 2684              		.loc 1 550 5 is_stmt 0 discriminator 1
 2685 0166 504B     		ldr	r3, .L172+16
 2686 0168 4D4A     		ldr	r2, .L172+8
 2687 016a 40F22621 		movw	r1, #550
 2688 016e 4D48     		ldr	r0, .L172+12
 2689 0170 FFF7FEFF 		bl	__assert_func
 2690              	.L146:
 551:Lib/AI_Runtime/Npu/ll_aton/ll_aton_lib_sw_operators.c **** 
 552:Lib/AI_Runtime/Npu/ll_aton/ll_aton_lib_sw_operators.c ****     if (aton_canonical)
 2691              		.loc 1 552 8 is_stmt 1
 2692 0174 FB7A     		ldrb	r3, [r7, #11]	@ zero_extendqisi2
 2693 0176 002B     		cmp	r3, #0
 2694 0178 09D0     		beq	.L147
 553:Lib/AI_Runtime/Npu/ll_aton/ll_aton_lib_sw_operators.c ****     {
 554:Lib/AI_Runtime/Npu/ll_aton/ll_aton_lib_sw_operators.c ****       __ll_aton_lib_split_aton_canonical(input, outputs, noutputs, rank, split_onnx_axis);
 2695              		.loc 1 554 7
ARM GAS  /tmp/ccgnzMmM.s 			page 70


 2696 017a 3A68     		ldr	r2, [r7]
 2697 017c B969     		ldr	r1, [r7, #24]
 2698 017e FB69     		ldr	r3, [r7, #28]
 2699 0180 0093     		str	r3, [sp]
 2700 0182 0B46     		mov	r3, r1
 2701 0184 7968     		ldr	r1, [r7, #4]
 2702 0186 F868     		ldr	r0, [r7, #12]
 2703 0188 FFF7FEFF 		bl	__ll_aton_lib_split_aton_canonical
 555:Lib/AI_Runtime/Npu/ll_aton/ll_aton_lib_sw_operators.c ****     }
 556:Lib/AI_Runtime/Npu/ll_aton/ll_aton_lib_sw_operators.c ****     else
 557:Lib/AI_Runtime/Npu/ll_aton/ll_aton_lib_sw_operators.c ****     {
 558:Lib/AI_Runtime/Npu/ll_aton/ll_aton_lib_sw_operators.c ****       __ll_aton_lib_split_onnx_canonical(input, outputs, noutputs, rank, split_onnx_axis);
 559:Lib/AI_Runtime/Npu/ll_aton/ll_aton_lib_sw_operators.c ****     }
 560:Lib/AI_Runtime/Npu/ll_aton/ll_aton_lib_sw_operators.c ****   }
 561:Lib/AI_Runtime/Npu/ll_aton/ll_aton_lib_sw_operators.c ****   break;
 2704              		.loc 1 561 3
 2705 018c 0FE1     		b	.L149
 2706              	.L147:
 558:Lib/AI_Runtime/Npu/ll_aton/ll_aton_lib_sw_operators.c ****     }
 2707              		.loc 1 558 7
 2708 018e 3A68     		ldr	r2, [r7]
 2709 0190 B969     		ldr	r1, [r7, #24]
 2710 0192 FB69     		ldr	r3, [r7, #28]
 2711 0194 0093     		str	r3, [sp]
 2712 0196 0B46     		mov	r3, r1
 2713 0198 7968     		ldr	r1, [r7, #4]
 2714 019a F868     		ldr	r0, [r7, #12]
 2715 019c FFF7FEFF 		bl	__ll_aton_lib_split_onnx_canonical
 2716              		.loc 1 561 3
 2717 01a0 05E1     		b	.L149
 2718              	.L141:
 562:Lib/AI_Runtime/Npu/ll_aton/ll_aton_lib_sw_operators.c ****   case SW_CHANNEL_ATON:
 563:Lib/AI_Runtime/Npu/ll_aton/ll_aton_lib_sw_operators.c ****     LL_ATON_ASSERT(dma_in == -1);
 2719              		.loc 1 563 5
 2720 01a2 BB6A     		ldr	r3, [r7, #40]
 2721 01a4 B3F1FF3F 		cmp	r3, #-1
 2722 01a8 06D0     		beq	.L150
 2723              		.loc 1 563 5 is_stmt 0 discriminator 1
 2724 01aa 3C4B     		ldr	r3, .L172+4
 2725 01ac 3C4A     		ldr	r2, .L172+8
 2726 01ae 40F23321 		movw	r1, #563
 2727 01b2 3C48     		ldr	r0, .L172+12
 2728 01b4 FFF7FEFF 		bl	__assert_func
 2729              	.L150:
 564:Lib/AI_Runtime/Npu/ll_aton/ll_aton_lib_sw_operators.c ****     LL_ATON_ASSERT(dma_out == -1);
 2730              		.loc 1 564 5 is_stmt 1
 2731 01b8 FB6A     		ldr	r3, [r7, #44]
 2732 01ba B3F1FF3F 		cmp	r3, #-1
 2733 01be 06D0     		beq	.L142
 2734              		.loc 1 564 5 is_stmt 0 discriminator 1
 2735 01c0 394B     		ldr	r3, .L172+16
 2736 01c2 374A     		ldr	r2, .L172+8
 2737 01c4 4FF40D71 		mov	r1, #564
 2738 01c8 3648     		ldr	r0, .L172+12
 2739 01ca FFF7FEFF 		bl	__assert_func
 2740              	.L142:
 565:Lib/AI_Runtime/Npu/ll_aton/ll_aton_lib_sw_operators.c ****   case HYBRID_CHANNEL_ATON:
ARM GAS  /tmp/ccgnzMmM.s 			page 71


 566:Lib/AI_Runtime/Npu/ll_aton/ll_aton_lib_sw_operators.c ****   {
 567:Lib/AI_Runtime/Npu/ll_aton/ll_aton_lib_sw_operators.c ****     if (!aton_canonical)
 2741              		.loc 1 567 9 is_stmt 1
 2742 01ce FB7A     		ldrb	r3, [r7, #11]
 2743 01d0 83F00103 		eor	r3, r3, #1
 2744 01d4 DBB2     		uxtb	r3, r3
 2745              		.loc 1 567 8
 2746 01d6 002B     		cmp	r3, #0
 2747 01d8 08D0     		beq	.L151
 568:Lib/AI_Runtime/Npu/ll_aton/ll_aton_lib_sw_operators.c ****     {
 569:Lib/AI_Runtime/Npu/ll_aton/ll_aton_lib_sw_operators.c ****       __LL_LIB_ERROR(_ERR_SHAPE, LL_ATON_INVALID_PARAM);
 2748              		.loc 1 569 7
 2749 01da 2F4A     		ldr	r2, .L172
 2750 01dc 40F23921 		movw	r1, #569
 2751 01e0 0920     		movs	r0, #9
 2752 01e2 FFF7FEFF 		bl	__ll_lib_error
 2753              		.loc 1 569 7 is_stmt 0 discriminator 1
 2754 01e6 6FF00103 		mvn	r3, #1
 2755              		.loc 1 569 7
 2756 01ea E1E0     		b	.L125
 2757              	.L151:
 570:Lib/AI_Runtime/Npu/ll_aton/ll_aton_lib_sw_operators.c ****     }
 571:Lib/AI_Runtime/Npu/ll_aton/ll_aton_lib_sw_operators.c **** 
 572:Lib/AI_Runtime/Npu/ll_aton/ll_aton_lib_sw_operators.c ****     if ((noutputs > __LL_MAX_TENSORS) || (split_case == SW_CHANNEL_ATON))
 2758              		.loc 1 572 8 is_stmt 1
 2759 01ec 3B68     		ldr	r3, [r7]
 2760 01ee 182B     		cmp	r3, #24
 2761 01f0 02D8     		bhi	.L152
 2762              		.loc 1 572 39 discriminator 1
 2763 01f2 7B6A     		ldr	r3, [r7, #36]
 2764 01f4 022B     		cmp	r3, #2
 2765 01f6 09D1     		bne	.L153
 2766              	.L152:
 573:Lib/AI_Runtime/Npu/ll_aton/ll_aton_lib_sw_operators.c ****     {
 574:Lib/AI_Runtime/Npu/ll_aton/ll_aton_lib_sw_operators.c ****       __ll_aton_lib_split_aton_canonical(input, outputs, noutputs, rank, split_onnx_axis);
 2767              		.loc 1 574 7
 2768 01f8 3A68     		ldr	r2, [r7]
 2769 01fa B969     		ldr	r1, [r7, #24]
 2770 01fc FB69     		ldr	r3, [r7, #28]
 2771 01fe 0093     		str	r3, [sp]
 2772 0200 0B46     		mov	r3, r1
 2773 0202 7968     		ldr	r1, [r7, #4]
 2774 0204 F868     		ldr	r0, [r7, #12]
 2775 0206 FFF7FEFF 		bl	__ll_aton_lib_split_aton_canonical
 575:Lib/AI_Runtime/Npu/ll_aton/ll_aton_lib_sw_operators.c ****     }
 576:Lib/AI_Runtime/Npu/ll_aton/ll_aton_lib_sw_operators.c ****     else
 577:Lib/AI_Runtime/Npu/ll_aton/ll_aton_lib_sw_operators.c ****     {
 578:Lib/AI_Runtime/Npu/ll_aton/ll_aton_lib_sw_operators.c ****       LL_ATON_ASSERT(dma_in != -1);
 579:Lib/AI_Runtime/Npu/ll_aton/ll_aton_lib_sw_operators.c ****       LL_ATON_ASSERT(dma_out != -1);
 580:Lib/AI_Runtime/Npu/ll_aton/ll_aton_lib_sw_operators.c **** 
 581:Lib/AI_Runtime/Npu/ll_aton/ll_aton_lib_sw_operators.c ****       LL_ATON_LIB_DMA_Outputs_Channel_Split_Aton(input, (const LL_LIB_TensorShape_TypeDef *)outputs
 582:Lib/AI_Runtime/Npu/ll_aton/ll_aton_lib_sw_operators.c ****                                                  leading_dims, dma_in, dma_out);
 583:Lib/AI_Runtime/Npu/ll_aton/ll_aton_lib_sw_operators.c ****     }
 584:Lib/AI_Runtime/Npu/ll_aton/ll_aton_lib_sw_operators.c ****   }
 585:Lib/AI_Runtime/Npu/ll_aton/ll_aton_lib_sw_operators.c ****   break;
 2776              		.loc 1 585 3
 2777 020a D0E0     		b	.L149
ARM GAS  /tmp/ccgnzMmM.s 			page 72


 2778              	.L153:
 578:Lib/AI_Runtime/Npu/ll_aton/ll_aton_lib_sw_operators.c ****       LL_ATON_ASSERT(dma_out != -1);
 2779              		.loc 1 578 7
 2780 020c BB6A     		ldr	r3, [r7, #40]
 2781 020e B3F1FF3F 		cmp	r3, #-1
 2782 0212 06D1     		bne	.L155
 578:Lib/AI_Runtime/Npu/ll_aton/ll_aton_lib_sw_operators.c ****       LL_ATON_ASSERT(dma_out != -1);
 2783              		.loc 1 578 7 is_stmt 0 discriminator 1
 2784 0214 254B     		ldr	r3, .L172+20
 2785 0216 224A     		ldr	r2, .L172+8
 2786 0218 40F24221 		movw	r1, #578
 2787 021c 2148     		ldr	r0, .L172+12
 2788 021e FFF7FEFF 		bl	__assert_func
 2789              	.L155:
 579:Lib/AI_Runtime/Npu/ll_aton/ll_aton_lib_sw_operators.c **** 
 2790              		.loc 1 579 7 is_stmt 1
 2791 0222 FB6A     		ldr	r3, [r7, #44]
 2792 0224 B3F1FF3F 		cmp	r3, #-1
 2793 0228 06D1     		bne	.L156
 579:Lib/AI_Runtime/Npu/ll_aton/ll_aton_lib_sw_operators.c **** 
 2794              		.loc 1 579 7 is_stmt 0 discriminator 1
 2795 022a 214B     		ldr	r3, .L172+24
 2796 022c 1C4A     		ldr	r2, .L172+8
 2797 022e 40F24321 		movw	r1, #579
 2798 0232 1C48     		ldr	r0, .L172+12
 2799 0234 FFF7FEFF 		bl	__assert_func
 2800              	.L156:
 581:Lib/AI_Runtime/Npu/ll_aton/ll_aton_lib_sw_operators.c ****                                                  leading_dims, dma_in, dma_out);
 2801              		.loc 1 581 7 is_stmt 1
 2802 0238 FB6A     		ldr	r3, [r7, #44]
 2803 023a 0193     		str	r3, [sp, #4]
 2804 023c BB6A     		ldr	r3, [r7, #40]
 2805 023e 0093     		str	r3, [sp]
 2806 0240 3B6A     		ldr	r3, [r7, #32]
 2807 0242 3A68     		ldr	r2, [r7]
 2808 0244 7968     		ldr	r1, [r7, #4]
 2809 0246 F868     		ldr	r0, [r7, #12]
 2810 0248 FFF7FEFF 		bl	LL_ATON_LIB_DMA_Outputs_Channel_Split_Aton
 2811              		.loc 1 585 3
 2812 024c AFE0     		b	.L149
 2813              	.L138:
 586:Lib/AI_Runtime/Npu/ll_aton/ll_aton_lib_sw_operators.c ****   case SW_CHANNEL_BATCHED:
 587:Lib/AI_Runtime/Npu/ll_aton/ll_aton_lib_sw_operators.c ****     LL_ATON_ASSERT(dma_in == -1);
 2814              		.loc 1 587 5
 2815 024e BB6A     		ldr	r3, [r7, #40]
 2816 0250 B3F1FF3F 		cmp	r3, #-1
 2817 0254 06D0     		beq	.L157
 2818              		.loc 1 587 5 is_stmt 0 discriminator 1
 2819 0256 114B     		ldr	r3, .L172+4
 2820 0258 114A     		ldr	r2, .L172+8
 2821 025a 40F24B21 		movw	r1, #587
 2822 025e 1148     		ldr	r0, .L172+12
 2823 0260 FFF7FEFF 		bl	__assert_func
 2824              	.L157:
 588:Lib/AI_Runtime/Npu/ll_aton/ll_aton_lib_sw_operators.c ****     LL_ATON_ASSERT(dma_out == -1);
 2825              		.loc 1 588 5 is_stmt 1
 2826 0264 FB6A     		ldr	r3, [r7, #44]
ARM GAS  /tmp/ccgnzMmM.s 			page 73


 2827 0266 B3F1FF3F 		cmp	r3, #-1
 2828 026a 06D0     		beq	.L139
 2829              		.loc 1 588 5 is_stmt 0 discriminator 1
 2830 026c 0E4B     		ldr	r3, .L172+16
 2831 026e 0C4A     		ldr	r2, .L172+8
 2832 0270 4FF41371 		mov	r1, #588
 2833 0274 0B48     		ldr	r0, .L172+12
 2834 0276 FFF7FEFF 		bl	__assert_func
 2835              	.L139:
 589:Lib/AI_Runtime/Npu/ll_aton/ll_aton_lib_sw_operators.c ****   case HYBRID_CHANNEL_BATCHED:
 590:Lib/AI_Runtime/Npu/ll_aton/ll_aton_lib_sw_operators.c ****   {
 591:Lib/AI_Runtime/Npu/ll_aton/ll_aton_lib_sw_operators.c ****     if (!aton_canonical)
 2836              		.loc 1 591 9 is_stmt 1
 2837 027a FB7A     		ldrb	r3, [r7, #11]
 2838 027c 83F00103 		eor	r3, r3, #1
 2839 0280 DBB2     		uxtb	r3, r3
 2840              		.loc 1 591 8
 2841 0282 002B     		cmp	r3, #0
 2842 0284 16D0     		beq	.L158
 592:Lib/AI_Runtime/Npu/ll_aton/ll_aton_lib_sw_operators.c ****     {
 593:Lib/AI_Runtime/Npu/ll_aton/ll_aton_lib_sw_operators.c ****       __LL_LIB_ERROR(_ERR_SHAPE, LL_ATON_INVALID_PARAM);
 2843              		.loc 1 593 7
 2844 0286 044A     		ldr	r2, .L172
 2845 0288 40F25121 		movw	r1, #593
 2846 028c 0920     		movs	r0, #9
 2847 028e FFF7FEFF 		bl	__ll_lib_error
 2848              		.loc 1 593 7 is_stmt 0 discriminator 1
 2849 0292 6FF00103 		mvn	r3, #1
 2850              		.loc 1 593 7
 2851 0296 8BE0     		b	.L125
 2852              	.L173:
 2853              		.align	2
 2854              	.L172:
 2855 0298 00000000 		.word	__FUNCTION__.24
 2856 029c 4C020000 		.word	.LC16
 2857 02a0 00000000 		.word	__func__.23
 2858 02a4 24000000 		.word	.LC1
 2859 02a8 5C020000 		.word	.LC17
 2860 02ac 6C020000 		.word	.LC18
 2861 02b0 7C020000 		.word	.LC19
 2862              	.L158:
 594:Lib/AI_Runtime/Npu/ll_aton/ll_aton_lib_sw_operators.c ****     }
 595:Lib/AI_Runtime/Npu/ll_aton/ll_aton_lib_sw_operators.c **** 
 596:Lib/AI_Runtime/Npu/ll_aton/ll_aton_lib_sw_operators.c ****     if ((noutputs > __LL_MAX_TENSORS) || (split_case == SW_CHANNEL_BATCHED))
 2863              		.loc 1 596 8 is_stmt 1
 2864 02b4 3B68     		ldr	r3, [r7]
 2865 02b6 182B     		cmp	r3, #24
 2866 02b8 02D8     		bhi	.L159
 2867              		.loc 1 596 39 discriminator 1
 2868 02ba 7B6A     		ldr	r3, [r7, #36]
 2869 02bc 042B     		cmp	r3, #4
 2870 02be 08D1     		bne	.L160
 2871              	.L159:
 597:Lib/AI_Runtime/Npu/ll_aton/ll_aton_lib_sw_operators.c ****     {
 598:Lib/AI_Runtime/Npu/ll_aton/ll_aton_lib_sw_operators.c ****       __ll_aton_lib_split_channel_batched(input, outputs, noutputs, rank, split_onnx_axis);
 2872              		.loc 1 598 7
 2873 02c0 FB69     		ldr	r3, [r7, #28]
ARM GAS  /tmp/ccgnzMmM.s 			page 74


 2874 02c2 0093     		str	r3, [sp]
 2875 02c4 BB69     		ldr	r3, [r7, #24]
 2876 02c6 3A68     		ldr	r2, [r7]
 2877 02c8 7968     		ldr	r1, [r7, #4]
 2878 02ca F868     		ldr	r0, [r7, #12]
 2879 02cc FFF7FEFF 		bl	__ll_aton_lib_split_channel_batched
 599:Lib/AI_Runtime/Npu/ll_aton/ll_aton_lib_sw_operators.c ****     }
 600:Lib/AI_Runtime/Npu/ll_aton/ll_aton_lib_sw_operators.c ****     else
 601:Lib/AI_Runtime/Npu/ll_aton/ll_aton_lib_sw_operators.c ****     {
 602:Lib/AI_Runtime/Npu/ll_aton/ll_aton_lib_sw_operators.c ****       LL_ATON_ASSERT(dma_in != -1);
 603:Lib/AI_Runtime/Npu/ll_aton/ll_aton_lib_sw_operators.c ****       LL_ATON_ASSERT(dma_out != -1);
 604:Lib/AI_Runtime/Npu/ll_aton/ll_aton_lib_sw_operators.c **** 
 605:Lib/AI_Runtime/Npu/ll_aton/ll_aton_lib_sw_operators.c ****       LL_ATON_LIB_DMA_Outputs_Channel_Split_Batched(input, (const LL_LIB_TensorShape_TypeDef *)outp
 606:Lib/AI_Runtime/Npu/ll_aton/ll_aton_lib_sw_operators.c ****                                                     dma_in, dma_out);
 607:Lib/AI_Runtime/Npu/ll_aton/ll_aton_lib_sw_operators.c ****     }
 608:Lib/AI_Runtime/Npu/ll_aton/ll_aton_lib_sw_operators.c ****   }
 609:Lib/AI_Runtime/Npu/ll_aton/ll_aton_lib_sw_operators.c ****   break;
 2880              		.loc 1 609 3
 2881 02d0 6DE0     		b	.L149
 2882              	.L160:
 602:Lib/AI_Runtime/Npu/ll_aton/ll_aton_lib_sw_operators.c ****       LL_ATON_ASSERT(dma_out != -1);
 2883              		.loc 1 602 7
 2884 02d2 BB6A     		ldr	r3, [r7, #40]
 2885 02d4 B3F1FF3F 		cmp	r3, #-1
 2886 02d8 06D1     		bne	.L162
 602:Lib/AI_Runtime/Npu/ll_aton/ll_aton_lib_sw_operators.c ****       LL_ATON_ASSERT(dma_out != -1);
 2887              		.loc 1 602 7 is_stmt 0 discriminator 1
 2888 02da 374B     		ldr	r3, .L174
 2889 02dc 374A     		ldr	r2, .L174+4
 2890 02de 40F25A21 		movw	r1, #602
 2891 02e2 3748     		ldr	r0, .L174+8
 2892 02e4 FFF7FEFF 		bl	__assert_func
 2893              	.L162:
 603:Lib/AI_Runtime/Npu/ll_aton/ll_aton_lib_sw_operators.c **** 
 2894              		.loc 1 603 7 is_stmt 1
 2895 02e8 FB6A     		ldr	r3, [r7, #44]
 2896 02ea B3F1FF3F 		cmp	r3, #-1
 2897 02ee 06D1     		bne	.L163
 603:Lib/AI_Runtime/Npu/ll_aton/ll_aton_lib_sw_operators.c **** 
 2898              		.loc 1 603 7 is_stmt 0 discriminator 1
 2899 02f0 344B     		ldr	r3, .L174+12
 2900 02f2 324A     		ldr	r2, .L174+4
 2901 02f4 40F25B21 		movw	r1, #603
 2902 02f8 3148     		ldr	r0, .L174+8
 2903 02fa FFF7FEFF 		bl	__assert_func
 2904              	.L163:
 605:Lib/AI_Runtime/Npu/ll_aton/ll_aton_lib_sw_operators.c ****                                                     dma_in, dma_out);
 2905              		.loc 1 605 7 is_stmt 1
 2906 02fe FB6A     		ldr	r3, [r7, #44]
 2907 0300 0093     		str	r3, [sp]
 2908 0302 BB6A     		ldr	r3, [r7, #40]
 2909 0304 3A68     		ldr	r2, [r7]
 2910 0306 7968     		ldr	r1, [r7, #4]
 2911 0308 F868     		ldr	r0, [r7, #12]
 2912 030a FFF7FEFF 		bl	LL_ATON_LIB_DMA_Outputs_Channel_Split_Batched
 2913              		.loc 1 609 3
 2914 030e 4EE0     		b	.L149
ARM GAS  /tmp/ccgnzMmM.s 			page 75


 2915              	.L137:
 610:Lib/AI_Runtime/Npu/ll_aton/ll_aton_lib_sw_operators.c ****   case SW_FLAT_CANONICAL:
 611:Lib/AI_Runtime/Npu/ll_aton/ll_aton_lib_sw_operators.c ****   case SW_FLAT_BATCHED:
 612:Lib/AI_Runtime/Npu/ll_aton/ll_aton_lib_sw_operators.c ****   case SW_CHANNEL_UNIFORM:
 613:Lib/AI_Runtime/Npu/ll_aton/ll_aton_lib_sw_operators.c ****     LL_ATON_ASSERT(dma_in == -1);
 2916              		.loc 1 613 5
 2917 0310 BB6A     		ldr	r3, [r7, #40]
 2918 0312 B3F1FF3F 		cmp	r3, #-1
 2919 0316 06D0     		beq	.L164
 2920              		.loc 1 613 5 is_stmt 0 discriminator 1
 2921 0318 2B4B     		ldr	r3, .L174+16
 2922 031a 284A     		ldr	r2, .L174+4
 2923 031c 40F26521 		movw	r1, #613
 2924 0320 2748     		ldr	r0, .L174+8
 2925 0322 FFF7FEFF 		bl	__assert_func
 2926              	.L164:
 614:Lib/AI_Runtime/Npu/ll_aton/ll_aton_lib_sw_operators.c ****     LL_ATON_ASSERT(dma_out == -1);
 2927              		.loc 1 614 5 is_stmt 1
 2928 0326 FB6A     		ldr	r3, [r7, #44]
 2929 0328 B3F1FF3F 		cmp	r3, #-1
 2930 032c 06D0     		beq	.L136
 2931              		.loc 1 614 5 is_stmt 0 discriminator 1
 2932 032e 274B     		ldr	r3, .L174+20
 2933 0330 224A     		ldr	r2, .L174+4
 2934 0332 40F26621 		movw	r1, #614
 2935 0336 2248     		ldr	r0, .L174+8
 2936 0338 FFF7FEFF 		bl	__assert_func
 2937              	.L136:
 615:Lib/AI_Runtime/Npu/ll_aton/ll_aton_lib_sw_operators.c ****   case DMA_FLAT_CANONICAL:
 616:Lib/AI_Runtime/Npu/ll_aton/ll_aton_lib_sw_operators.c ****   case DMA_FLAT_BATCHED:
 617:Lib/AI_Runtime/Npu/ll_aton/ll_aton_lib_sw_operators.c ****   case DMA_CHANNEL_UNIFORM:
 618:Lib/AI_Runtime/Npu/ll_aton/ll_aton_lib_sw_operators.c ****   {
 619:Lib/AI_Runtime/Npu/ll_aton/ll_aton_lib_sw_operators.c ****     if ((noutputs > __LL_MAX_TENSORS) || (split_case == SW_FLAT_CANONICAL) || (split_case == SW_FLA
 2938              		.loc 1 619 8 is_stmt 1
 2939 033c 3B68     		ldr	r3, [r7]
 2940 033e 182B     		cmp	r3, #24
 2941 0340 08D8     		bhi	.L165
 2942              		.loc 1 619 39 discriminator 1
 2943 0342 7B6A     		ldr	r3, [r7, #36]
 2944 0344 082B     		cmp	r3, #8
 2945 0346 05D0     		beq	.L165
 2946              		.loc 1 619 76 discriminator 2
 2947 0348 7B6A     		ldr	r3, [r7, #36]
 2948 034a 0A2B     		cmp	r3, #10
 2949 034c 02D0     		beq	.L165
 2950              		.loc 1 619 111 discriminator 3
 2951 034e 7B6A     		ldr	r3, [r7, #36]
 2952 0350 062B     		cmp	r3, #6
 2953 0352 06D1     		bne	.L166
 2954              	.L165:
 620:Lib/AI_Runtime/Npu/ll_aton/ll_aton_lib_sw_operators.c ****         (split_case == SW_CHANNEL_UNIFORM))
 621:Lib/AI_Runtime/Npu/ll_aton/ll_aton_lib_sw_operators.c ****     {
 622:Lib/AI_Runtime/Npu/ll_aton/ll_aton_lib_sw_operators.c ****       return __ll_aton_lib_sw_outputs_flat_copy(input, outputs, noutputs);
 2955              		.loc 1 622 14
 2956 0354 3A68     		ldr	r2, [r7]
 2957 0356 7968     		ldr	r1, [r7, #4]
 2958 0358 F868     		ldr	r0, [r7, #12]
ARM GAS  /tmp/ccgnzMmM.s 			page 76


 2959 035a FFF7FEFF 		bl	__ll_aton_lib_sw_outputs_flat_copy
 2960 035e 0346     		mov	r3, r0
 2961 0360 26E0     		b	.L125
 2962              	.L166:
 623:Lib/AI_Runtime/Npu/ll_aton/ll_aton_lib_sw_operators.c ****     }
 624:Lib/AI_Runtime/Npu/ll_aton/ll_aton_lib_sw_operators.c ****     else
 625:Lib/AI_Runtime/Npu/ll_aton/ll_aton_lib_sw_operators.c ****     {
 626:Lib/AI_Runtime/Npu/ll_aton/ll_aton_lib_sw_operators.c ****       LL_ATON_ASSERT(dma_in != -1);
 2963              		.loc 1 626 7
 2964 0362 BB6A     		ldr	r3, [r7, #40]
 2965 0364 B3F1FF3F 		cmp	r3, #-1
 2966 0368 06D1     		bne	.L167
 2967              		.loc 1 626 7 is_stmt 0 discriminator 1
 2968 036a 134B     		ldr	r3, .L174
 2969 036c 134A     		ldr	r2, .L174+4
 2970 036e 40F27221 		movw	r1, #626
 2971 0372 1348     		ldr	r0, .L174+8
 2972 0374 FFF7FEFF 		bl	__assert_func
 2973              	.L167:
 627:Lib/AI_Runtime/Npu/ll_aton/ll_aton_lib_sw_operators.c ****       LL_ATON_ASSERT(dma_out != -1);
 2974              		.loc 1 627 7 is_stmt 1
 2975 0378 FB6A     		ldr	r3, [r7, #44]
 2976 037a B3F1FF3F 		cmp	r3, #-1
 2977 037e 06D1     		bne	.L168
 2978              		.loc 1 627 7 is_stmt 0 discriminator 1
 2979 0380 104B     		ldr	r3, .L174+12
 2980 0382 0E4A     		ldr	r2, .L174+4
 2981 0384 40F27321 		movw	r1, #627
 2982 0388 0D48     		ldr	r0, .L174+8
 2983 038a FFF7FEFF 		bl	__assert_func
 2984              	.L168:
 628:Lib/AI_Runtime/Npu/ll_aton/ll_aton_lib_sw_operators.c **** 
 629:Lib/AI_Runtime/Npu/ll_aton/ll_aton_lib_sw_operators.c ****       LL_ATON_LIB_DMA_Outputs_Flat_Copy(input, (const LL_LIB_TensorShape_TypeDef *)outputs, noutput
 2985              		.loc 1 629 7 is_stmt 1
 2986 038e FB6A     		ldr	r3, [r7, #44]
 2987 0390 0093     		str	r3, [sp]
 2988 0392 BB6A     		ldr	r3, [r7, #40]
 2989 0394 3A68     		ldr	r2, [r7]
 2990 0396 7968     		ldr	r1, [r7, #4]
 2991 0398 F868     		ldr	r0, [r7, #12]
 2992 039a FFF7FEFF 		bl	LL_ATON_LIB_DMA_Outputs_Flat_Copy
 630:Lib/AI_Runtime/Npu/ll_aton/ll_aton_lib_sw_operators.c ****     }
 631:Lib/AI_Runtime/Npu/ll_aton/ll_aton_lib_sw_operators.c ****   }
 632:Lib/AI_Runtime/Npu/ll_aton/ll_aton_lib_sw_operators.c ****   break;
 2993              		.loc 1 632 3
 2994 039e 06E0     		b	.L149
 2995              	.L135:
 633:Lib/AI_Runtime/Npu/ll_aton/ll_aton_lib_sw_operators.c ****   default:
 634:Lib/AI_Runtime/Npu/ll_aton/ll_aton_lib_sw_operators.c ****     LL_ATON_ASSERT(false);
 2996              		.loc 1 634 5
 2997 03a0 0B4B     		ldr	r3, .L174+24
 2998 03a2 064A     		ldr	r2, .L174+4
 2999 03a4 40F27A21 		movw	r1, #634
 3000 03a8 0548     		ldr	r0, .L174+8
 3001 03aa FFF7FEFF 		bl	__assert_func
 3002              	.L149:
 635:Lib/AI_Runtime/Npu/ll_aton/ll_aton_lib_sw_operators.c ****     break;
ARM GAS  /tmp/ccgnzMmM.s 			page 77


 636:Lib/AI_Runtime/Npu/ll_aton/ll_aton_lib_sw_operators.c ****   }
 637:Lib/AI_Runtime/Npu/ll_aton/ll_aton_lib_sw_operators.c **** 
 638:Lib/AI_Runtime/Npu/ll_aton/ll_aton_lib_sw_operators.c ****   return LL_ATON_OK;
 3003              		.loc 1 638 10
 3004 03ae 0023     		movs	r3, #0
 3005              	.L125:
 639:Lib/AI_Runtime/Npu/ll_aton/ll_aton_lib_sw_operators.c **** }
 3006              		.loc 1 639 1
 3007 03b0 1846     		mov	r0, r3
 3008 03b2 1037     		adds	r7, r7, #16
 3009              		.cfi_def_cfa_offset 8
 3010 03b4 BD46     		mov	sp, r7
 3011              		.cfi_def_cfa_register 13
 3012              		@ sp needed
 3013 03b6 80BD     		pop	{r7, pc}
 3014              	.L175:
 3015              		.align	2
 3016              	.L174:
 3017 03b8 6C020000 		.word	.LC18
 3018 03bc 00000000 		.word	__func__.23
 3019 03c0 24000000 		.word	.LC1
 3020 03c4 7C020000 		.word	.LC19
 3021 03c8 4C020000 		.word	.LC16
 3022 03cc 5C020000 		.word	.LC17
 3023 03d0 C8000000 		.word	.LC5
 3024              		.cfi_endproc
 3025              	.LFE4865:
 3027              		.section	.text.LL_ATON_LIB_SW_SpaceToDepth,"ax",%progbits
 3028              		.align	1
 3029              		.global	LL_ATON_LIB_SW_SpaceToDepth
 3030              		.syntax unified
 3031              		.thumb
 3032              		.thumb_func
 3034              	LL_ATON_LIB_SW_SpaceToDepth:
 3035              	.LFB4866:
 640:Lib/AI_Runtime/Npu/ll_aton/ll_aton_lib_sw_operators.c **** 
 641:Lib/AI_Runtime/Npu/ll_aton/ll_aton_lib_sw_operators.c **** int LL_ATON_LIB_SW_SpaceToDepth(const LL_LIB_TensorShape_TypeDef *input, const uint32_t *input_axes
 642:Lib/AI_Runtime/Npu/ll_aton/ll_aton_lib_sw_operators.c ****                                 const LL_LIB_TensorShape_TypeDef *output, const uint32_t *output_ax
 643:Lib/AI_Runtime/Npu/ll_aton/ll_aton_lib_sw_operators.c ****                                 uint32_t bs_h, uint32_t bs_w)
 644:Lib/AI_Runtime/Npu/ll_aton/ll_aton_lib_sw_operators.c **** {
 3036              		.loc 1 644 1
 3037              		.cfi_startproc
 3038              		@ args = 8, pretend = 0, frame = 120
 3039              		@ frame_needed = 1, uses_anonymous_args = 0
 3040 0000 80B5     		push	{r7, lr}
 3041              		.cfi_def_cfa_offset 8
 3042              		.cfi_offset 7, -8
 3043              		.cfi_offset 14, -4
 3044 0002 A2B0     		sub	sp, sp, #136
 3045              		.cfi_def_cfa_offset 144
 3046 0004 04AF     		add	r7, sp, #16
 3047              		.cfi_def_cfa 7, 128
 3048 0006 F860     		str	r0, [r7, #12]
 3049 0008 B960     		str	r1, [r7, #8]
 3050 000a 7A60     		str	r2, [r7, #4]
 3051 000c 3B60     		str	r3, [r7]
 645:Lib/AI_Runtime/Npu/ll_aton/ll_aton_lib_sw_operators.c ****   if (input->ndims != 4)
ARM GAS  /tmp/ccgnzMmM.s 			page 78


 3052              		.loc 1 645 12
 3053 000e FB68     		ldr	r3, [r7, #12]
 3054 0010 93F82730 		ldrb	r3, [r3, #39]	@ zero_extendqisi2
 3055              		.loc 1 645 6
 3056 0014 042B     		cmp	r3, #4
 3057 0016 08D0     		beq	.L177
 646:Lib/AI_Runtime/Npu/ll_aton/ll_aton_lib_sw_operators.c ****   {
 647:Lib/AI_Runtime/Npu/ll_aton/ll_aton_lib_sw_operators.c ****     __LL_LIB_ERROR(_ERR_RANK, LL_ATON_INVALID_PARAM);
 3058              		.loc 1 647 5
 3059 0018 804A     		ldr	r2, .L191
 3060 001a 40F28721 		movw	r1, #647
 3061 001e 0F20     		movs	r0, #15
 3062 0020 FFF7FEFF 		bl	__ll_lib_error
 3063              		.loc 1 647 5 is_stmt 0 discriminator 1
 3064 0024 6FF00103 		mvn	r3, #1
 3065              		.loc 1 647 5
 3066 0028 F3E0     		b	.L178
 3067              	.L177:
 648:Lib/AI_Runtime/Npu/ll_aton/ll_aton_lib_sw_operators.c ****   }
 649:Lib/AI_Runtime/Npu/ll_aton/ll_aton_lib_sw_operators.c **** 
 650:Lib/AI_Runtime/Npu/ll_aton/ll_aton_lib_sw_operators.c ****   if (output->ndims != 4)
 3068              		.loc 1 650 13 is_stmt 1
 3069 002a 7B68     		ldr	r3, [r7, #4]
 3070 002c 93F82730 		ldrb	r3, [r3, #39]	@ zero_extendqisi2
 3071              		.loc 1 650 6
 3072 0030 042B     		cmp	r3, #4
 3073 0032 08D0     		beq	.L179
 651:Lib/AI_Runtime/Npu/ll_aton/ll_aton_lib_sw_operators.c ****   {
 652:Lib/AI_Runtime/Npu/ll_aton/ll_aton_lib_sw_operators.c ****     __LL_LIB_ERROR(_ERR_RANK, LL_ATON_INVALID_PARAM);
 3074              		.loc 1 652 5
 3075 0034 794A     		ldr	r2, .L191
 3076 0036 4FF42371 		mov	r1, #652
 3077 003a 0F20     		movs	r0, #15
 3078 003c FFF7FEFF 		bl	__ll_lib_error
 3079              		.loc 1 652 5 is_stmt 0 discriminator 1
 3080 0040 6FF00103 		mvn	r3, #1
 3081              		.loc 1 652 5
 3082 0044 E5E0     		b	.L178
 3083              	.L179:
 653:Lib/AI_Runtime/Npu/ll_aton/ll_aton_lib_sw_operators.c ****   }
 654:Lib/AI_Runtime/Npu/ll_aton/ll_aton_lib_sw_operators.c **** 
 655:Lib/AI_Runtime/Npu/ll_aton/ll_aton_lib_sw_operators.c ****   if (input->nbits != output->nbits)
 3084              		.loc 1 655 12 is_stmt 1
 3085 0046 FB68     		ldr	r3, [r7, #12]
 3086 0048 93F82820 		ldrb	r2, [r3, #40]	@ zero_extendqisi2
 3087              		.loc 1 655 29
 3088 004c 7B68     		ldr	r3, [r7, #4]
 3089 004e 93F82830 		ldrb	r3, [r3, #40]	@ zero_extendqisi2
 3090              		.loc 1 655 6
 3091 0052 9A42     		cmp	r2, r3
 3092 0054 08D0     		beq	.L180
 656:Lib/AI_Runtime/Npu/ll_aton/ll_aton_lib_sw_operators.c ****   {
 657:Lib/AI_Runtime/Npu/ll_aton/ll_aton_lib_sw_operators.c ****     __LL_LIB_ERROR(_ERR_NBITS, LL_ATON_INVALID_PARAM);
 3093              		.loc 1 657 5
 3094 0056 714A     		ldr	r2, .L191
 3095 0058 40F29121 		movw	r1, #657
 3096 005c 0620     		movs	r0, #6
ARM GAS  /tmp/ccgnzMmM.s 			page 79


 3097 005e FFF7FEFF 		bl	__ll_lib_error
 3098              		.loc 1 657 5 is_stmt 0 discriminator 1
 3099 0062 6FF00103 		mvn	r3, #1
 3100              		.loc 1 657 5
 3101 0066 D4E0     		b	.L178
 3102              	.L180:
 658:Lib/AI_Runtime/Npu/ll_aton/ll_aton_lib_sw_operators.c ****   }
 659:Lib/AI_Runtime/Npu/ll_aton/ll_aton_lib_sw_operators.c **** 
 660:Lib/AI_Runtime/Npu/ll_aton/ll_aton_lib_sw_operators.c ****   if ((input->nbits < 8) || (input->nbits > 32))
 3103              		.loc 1 660 13 is_stmt 1
 3104 0068 FB68     		ldr	r3, [r7, #12]
 3105 006a 93F82830 		ldrb	r3, [r3, #40]	@ zero_extendqisi2
 3106              		.loc 1 660 6
 3107 006e 072B     		cmp	r3, #7
 3108 0070 04D9     		bls	.L181
 3109              		.loc 1 660 35 discriminator 1
 3110 0072 FB68     		ldr	r3, [r7, #12]
 3111 0074 93F82830 		ldrb	r3, [r3, #40]	@ zero_extendqisi2
 3112              		.loc 1 660 26 discriminator 1
 3113 0078 202B     		cmp	r3, #32
 3114 007a 08D9     		bls	.L182
 3115              	.L181:
 661:Lib/AI_Runtime/Npu/ll_aton/ll_aton_lib_sw_operators.c ****   {
 662:Lib/AI_Runtime/Npu/ll_aton/ll_aton_lib_sw_operators.c ****     __LL_LIB_ERROR(_ERR_NBITS, LL_ATON_INVALID_PARAM);
 3116              		.loc 1 662 5
 3117 007c 674A     		ldr	r2, .L191
 3118 007e 40F29621 		movw	r1, #662
 3119 0082 0620     		movs	r0, #6
 3120 0084 FFF7FEFF 		bl	__ll_lib_error
 3121              		.loc 1 662 5 is_stmt 0 discriminator 1
 3122 0088 6FF00103 		mvn	r3, #1
 3123              		.loc 1 662 5
 3124 008c C1E0     		b	.L178
 3125              	.L182:
 663:Lib/AI_Runtime/Npu/ll_aton/ll_aton_lib_sw_operators.c ****   }
 664:Lib/AI_Runtime/Npu/ll_aton/ll_aton_lib_sw_operators.c **** 
 665:Lib/AI_Runtime/Npu/ll_aton/ll_aton_lib_sw_operators.c ****   uint32_t N = input->shape[0];
 3126              		.loc 1 665 21 is_stmt 1
 3127 008e FB68     		ldr	r3, [r7, #12]
 3128 0090 DB6A     		ldr	r3, [r3, #44]
 3129              		.loc 1 665 12
 3130 0092 1B68     		ldr	r3, [r3]
 3131 0094 7B66     		str	r3, [r7, #100]
 666:Lib/AI_Runtime/Npu/ll_aton/ll_aton_lib_sw_operators.c ****   uint32_t C = input->shape[1];
 3132              		.loc 1 666 21
 3133 0096 FB68     		ldr	r3, [r7, #12]
 3134 0098 DB6A     		ldr	r3, [r3, #44]
 3135              		.loc 1 666 28
 3136 009a 0433     		adds	r3, r3, #4
 3137              		.loc 1 666 12
 3138 009c 1B68     		ldr	r3, [r3]
 3139 009e 3B66     		str	r3, [r7, #96]
 667:Lib/AI_Runtime/Npu/ll_aton/ll_aton_lib_sw_operators.c ****   uint32_t H = input->shape[2];
 3140              		.loc 1 667 21
 3141 00a0 FB68     		ldr	r3, [r7, #12]
 3142 00a2 DB6A     		ldr	r3, [r3, #44]
 3143              		.loc 1 667 28
ARM GAS  /tmp/ccgnzMmM.s 			page 80


 3144 00a4 0833     		adds	r3, r3, #8
 3145              		.loc 1 667 12
 3146 00a6 1B68     		ldr	r3, [r3]
 3147 00a8 FB65     		str	r3, [r7, #92]
 668:Lib/AI_Runtime/Npu/ll_aton/ll_aton_lib_sw_operators.c ****   uint32_t W = input->shape[3];
 3148              		.loc 1 668 21
 3149 00aa FB68     		ldr	r3, [r7, #12]
 3150 00ac DB6A     		ldr	r3, [r3, #44]
 3151              		.loc 1 668 28
 3152 00ae 0C33     		adds	r3, r3, #12
 3153              		.loc 1 668 12
 3154 00b0 1B68     		ldr	r3, [r3]
 3155 00b2 BB65     		str	r3, [r7, #88]
 669:Lib/AI_Runtime/Npu/ll_aton/ll_aton_lib_sw_operators.c **** 
 670:Lib/AI_Runtime/Npu/ll_aton/ll_aton_lib_sw_operators.c ****   int8_t *in_base = (int8_t *)LL_Buffer_addr_start(input);
 3156              		.loc 1 670 31
 3157 00b4 F868     		ldr	r0, [r7, #12]
 3158 00b6 FFF7FEFF 		bl	LL_Buffer_addr_start
 3159 00ba 7865     		str	r0, [r7, #84]
 671:Lib/AI_Runtime/Npu/ll_aton/ll_aton_lib_sw_operators.c ****   int8_t *out_base = (int8_t *)LL_Buffer_addr_start(output);
 3160              		.loc 1 671 32
 3161 00bc 7868     		ldr	r0, [r7, #4]
 3162 00be FFF7FEFF 		bl	LL_Buffer_addr_start
 3163 00c2 3865     		str	r0, [r7, #80]
 672:Lib/AI_Runtime/Npu/ll_aton/ll_aton_lib_sw_operators.c **** 
 673:Lib/AI_Runtime/Npu/ll_aton/ll_aton_lib_sw_operators.c ****   uint32_t output_tensor_offset_0 = output_axes_offsets[0];
 3164              		.loc 1 673 12
 3165 00c4 3B68     		ldr	r3, [r7]
 3166 00c6 1B68     		ldr	r3, [r3]
 3167 00c8 FB64     		str	r3, [r7, #76]
 674:Lib/AI_Runtime/Npu/ll_aton/ll_aton_lib_sw_operators.c ****   uint32_t output_tensor_offset_1 = output_axes_offsets[1];
 3168              		.loc 1 674 56
 3169 00ca 3B68     		ldr	r3, [r7]
 3170 00cc 0433     		adds	r3, r3, #4
 3171              		.loc 1 674 12
 3172 00ce 1B68     		ldr	r3, [r3]
 3173 00d0 BB64     		str	r3, [r7, #72]
 675:Lib/AI_Runtime/Npu/ll_aton/ll_aton_lib_sw_operators.c ****   uint32_t output_tensor_offset_2 = output_axes_offsets[2];
 3174              		.loc 1 675 56
 3175 00d2 3B68     		ldr	r3, [r7]
 3176 00d4 0833     		adds	r3, r3, #8
 3177              		.loc 1 675 12
 3178 00d6 1B68     		ldr	r3, [r3]
 3179 00d8 7B64     		str	r3, [r7, #68]
 676:Lib/AI_Runtime/Npu/ll_aton/ll_aton_lib_sw_operators.c ****   uint32_t output_tensor_offset_3 = output_axes_offsets[3];
 3180              		.loc 1 676 56
 3181 00da 3B68     		ldr	r3, [r7]
 3182 00dc 0C33     		adds	r3, r3, #12
 3183              		.loc 1 676 12
 3184 00de 1B68     		ldr	r3, [r3]
 3185 00e0 3B64     		str	r3, [r7, #64]
 677:Lib/AI_Runtime/Npu/ll_aton/ll_aton_lib_sw_operators.c **** 
 678:Lib/AI_Runtime/Npu/ll_aton/ll_aton_lib_sw_operators.c ****   uint32_t input_tensor_offset_0 = input_axes_offsets[0];
 3186              		.loc 1 678 12
 3187 00e2 BB68     		ldr	r3, [r7, #8]
 3188 00e4 1B68     		ldr	r3, [r3]
 3189 00e6 FB63     		str	r3, [r7, #60]
ARM GAS  /tmp/ccgnzMmM.s 			page 81


 679:Lib/AI_Runtime/Npu/ll_aton/ll_aton_lib_sw_operators.c ****   uint32_t input_tensor_offset_1 = input_axes_offsets[1];
 3190              		.loc 1 679 54
 3191 00e8 BB68     		ldr	r3, [r7, #8]
 3192 00ea 0433     		adds	r3, r3, #4
 3193              		.loc 1 679 12
 3194 00ec 1B68     		ldr	r3, [r3]
 3195 00ee BB63     		str	r3, [r7, #56]
 680:Lib/AI_Runtime/Npu/ll_aton/ll_aton_lib_sw_operators.c ****   uint32_t input_tensor_offset_2 = input_axes_offsets[2];
 3196              		.loc 1 680 54
 3197 00f0 BB68     		ldr	r3, [r7, #8]
 3198 00f2 0833     		adds	r3, r3, #8
 3199              		.loc 1 680 12
 3200 00f4 1B68     		ldr	r3, [r3]
 3201 00f6 7B63     		str	r3, [r7, #52]
 681:Lib/AI_Runtime/Npu/ll_aton/ll_aton_lib_sw_operators.c ****   uint32_t input_tensor_offset_3 = input_axes_offsets[3];
 3202              		.loc 1 681 54
 3203 00f8 BB68     		ldr	r3, [r7, #8]
 3204 00fa 0C33     		adds	r3, r3, #12
 3205              		.loc 1 681 12
 3206 00fc 1B68     		ldr	r3, [r3]
 3207 00fe 3B63     		str	r3, [r7, #48]
 3208              	.LBB25:
 682:Lib/AI_Runtime/Npu/ll_aton/ll_aton_lib_sw_operators.c **** 
 683:Lib/AI_Runtime/Npu/ll_aton/ll_aton_lib_sw_operators.c ****   for (uint32_t n = 0; n < N; n++)
 3209              		.loc 1 683 17
 3210 0100 0023     		movs	r3, #0
 3211 0102 7B67     		str	r3, [r7, #116]
 3212              		.loc 1 683 3
 3213 0104 7FE0     		b	.L183
 3214              	.L190:
 3215              	.LBB26:
 684:Lib/AI_Runtime/Npu/ll_aton/ll_aton_lib_sw_operators.c ****   {
 685:Lib/AI_Runtime/Npu/ll_aton/ll_aton_lib_sw_operators.c ****     for (uint32_t c = 0; c < C; c++)
 3216              		.loc 1 685 19
 3217 0106 0023     		movs	r3, #0
 3218 0108 3B67     		str	r3, [r7, #112]
 3219              		.loc 1 685 5
 3220 010a 75E0     		b	.L184
 3221              	.L189:
 3222              	.LBB27:
 686:Lib/AI_Runtime/Npu/ll_aton/ll_aton_lib_sw_operators.c ****     {
 687:Lib/AI_Runtime/Npu/ll_aton/ll_aton_lib_sw_operators.c ****       for (uint32_t h = 0; h < H; h++)
 3223              		.loc 1 687 21
 3224 010c 0023     		movs	r3, #0
 3225 010e FB66     		str	r3, [r7, #108]
 3226              		.loc 1 687 7
 3227 0110 6BE0     		b	.L185
 3228              	.L188:
 3229              	.LBB28:
 688:Lib/AI_Runtime/Npu/ll_aton/ll_aton_lib_sw_operators.c ****       {
 689:Lib/AI_Runtime/Npu/ll_aton/ll_aton_lib_sw_operators.c ****         for (uint32_t w = 0; w < W; w++)
 3230              		.loc 1 689 23
 3231 0112 0023     		movs	r3, #0
 3232 0114 BB66     		str	r3, [r7, #104]
 3233              		.loc 1 689 9
 3234 0116 61E0     		b	.L186
 3235              	.L187:
ARM GAS  /tmp/ccgnzMmM.s 			page 82


 3236              	.LBB29:
 690:Lib/AI_Runtime/Npu/ll_aton/ll_aton_lib_sw_operators.c ****         {
 691:Lib/AI_Runtime/Npu/ll_aton/ll_aton_lib_sw_operators.c ****           uint32_t h_rem = h % bs_h;
 3237              		.loc 1 691 20
 3238 0118 FB6E     		ldr	r3, [r7, #108]
 3239 011a D7F88020 		ldr	r2, [r7, #128]
 3240 011e B3FBF2F2 		udiv	r2, r3, r2
 3241 0122 D7F88010 		ldr	r1, [r7, #128]
 3242 0126 01FB02F2 		mul	r2, r1, r2
 3243 012a 9B1A     		subs	r3, r3, r2
 3244 012c FB62     		str	r3, [r7, #44]
 692:Lib/AI_Runtime/Npu/ll_aton/ll_aton_lib_sw_operators.c ****           uint32_t w_rem = w % bs_w;
 3245              		.loc 1 692 20
 3246 012e BB6E     		ldr	r3, [r7, #104]
 3247 0130 D7F88420 		ldr	r2, [r7, #132]
 3248 0134 B3FBF2F2 		udiv	r2, r3, r2
 3249 0138 D7F88410 		ldr	r1, [r7, #132]
 3250 013c 01FB02F2 		mul	r2, r1, r2
 3251 0140 9B1A     		subs	r3, r3, r2
 3252 0142 BB62     		str	r3, [r7, #40]
 693:Lib/AI_Runtime/Npu/ll_aton/ll_aton_lib_sw_operators.c ****           uint32_t out_c = c + (((h_rem * bs_w) + w_rem) * C);
 3253              		.loc 1 693 41
 3254 0144 FB6A     		ldr	r3, [r7, #44]
 3255 0146 D7F88420 		ldr	r2, [r7, #132]
 3256 014a 03FB02F2 		mul	r2, r3, r2
 3257              		.loc 1 693 49
 3258 014e BB6A     		ldr	r3, [r7, #40]
 3259 0150 1344     		add	r3, r3, r2
 3260              		.loc 1 693 58
 3261 0152 3A6E     		ldr	r2, [r7, #96]
 3262 0154 02FB03F3 		mul	r3, r2, r3
 3263              		.loc 1 693 20
 3264 0158 3A6F     		ldr	r2, [r7, #112]
 3265 015a 1344     		add	r3, r3, r2
 3266 015c 7B62     		str	r3, [r7, #36]
 694:Lib/AI_Runtime/Npu/ll_aton/ll_aton_lib_sw_operators.c ****           uint32_t out_h = (h / bs_h);
 3267              		.loc 1 694 20
 3268 015e FA6E     		ldr	r2, [r7, #108]
 3269 0160 D7F88030 		ldr	r3, [r7, #128]
 3270 0164 B2FBF3F3 		udiv	r3, r2, r3
 3271 0168 3B62     		str	r3, [r7, #32]
 695:Lib/AI_Runtime/Npu/ll_aton/ll_aton_lib_sw_operators.c ****           uint32_t out_w = (w / bs_w);
 3272              		.loc 1 695 20
 3273 016a BA6E     		ldr	r2, [r7, #104]
 3274 016c D7F88430 		ldr	r3, [r7, #132]
 3275 0170 B2FBF3F3 		udiv	r3, r2, r3
 3276 0174 FB61     		str	r3, [r7, #28]
 696:Lib/AI_Runtime/Npu/ll_aton/ll_aton_lib_sw_operators.c **** 
 697:Lib/AI_Runtime/Npu/ll_aton/ll_aton_lib_sw_operators.c ****           int8_t *out_target = out_base + __ll_aton_lib_calc_offset(n, out_c, out_h, out_w, output_
 3277              		.loc 1 697 43
 3278 0176 3B6C     		ldr	r3, [r7, #64]
 3279 0178 0393     		str	r3, [sp, #12]
 3280 017a 7B6C     		ldr	r3, [r7, #68]
 3281 017c 0293     		str	r3, [sp, #8]
 3282 017e BB6C     		ldr	r3, [r7, #72]
 3283 0180 0193     		str	r3, [sp, #4]
 3284 0182 FB6C     		ldr	r3, [r7, #76]
ARM GAS  /tmp/ccgnzMmM.s 			page 83


 3285 0184 0093     		str	r3, [sp]
 3286 0186 FB69     		ldr	r3, [r7, #28]
 3287 0188 3A6A     		ldr	r2, [r7, #32]
 3288 018a 796A     		ldr	r1, [r7, #36]
 3289 018c 786F     		ldr	r0, [r7, #116]
 3290 018e FFF7FEFF 		bl	__ll_aton_lib_calc_offset
 3291 0192 0246     		mov	r2, r0
 3292              		.loc 1 697 19 discriminator 1
 3293 0194 3B6D     		ldr	r3, [r7, #80]
 3294 0196 1344     		add	r3, r3, r2
 3295 0198 BB61     		str	r3, [r7, #24]
 698:Lib/AI_Runtime/Npu/ll_aton/ll_aton_lib_sw_operators.c ****                                                                     output_tensor_offset_1, output_
 699:Lib/AI_Runtime/Npu/ll_aton/ll_aton_lib_sw_operators.c ****                                                                     output_tensor_offset_3);
 700:Lib/AI_Runtime/Npu/ll_aton/ll_aton_lib_sw_operators.c ****           int8_t *in_target =
 701:Lib/AI_Runtime/Npu/ll_aton/ll_aton_lib_sw_operators.c ****               in_base + __ll_aton_lib_calc_offset(n, c, h, w, input_tensor_offset_0, input_tensor_o
 3296              		.loc 1 701 25
 3297 019a 3B6B     		ldr	r3, [r7, #48]
 3298 019c 0393     		str	r3, [sp, #12]
 3299 019e 7B6B     		ldr	r3, [r7, #52]
 3300 01a0 0293     		str	r3, [sp, #8]
 3301 01a2 BB6B     		ldr	r3, [r7, #56]
 3302 01a4 0193     		str	r3, [sp, #4]
 3303 01a6 FB6B     		ldr	r3, [r7, #60]
 3304 01a8 0093     		str	r3, [sp]
 3305 01aa BB6E     		ldr	r3, [r7, #104]
 3306 01ac FA6E     		ldr	r2, [r7, #108]
 3307 01ae 396F     		ldr	r1, [r7, #112]
 3308 01b0 786F     		ldr	r0, [r7, #116]
 3309 01b2 FFF7FEFF 		bl	__ll_aton_lib_calc_offset
 3310 01b6 0246     		mov	r2, r0
 700:Lib/AI_Runtime/Npu/ll_aton/ll_aton_lib_sw_operators.c ****               in_base + __ll_aton_lib_calc_offset(n, c, h, w, input_tensor_offset_0, input_tensor_o
 3311              		.loc 1 700 19
 3312 01b8 7B6D     		ldr	r3, [r7, #84]
 3313 01ba 1344     		add	r3, r3, r2
 3314 01bc 7B61     		str	r3, [r7, #20]
 702:Lib/AI_Runtime/Npu/ll_aton/ll_aton_lib_sw_operators.c ****                                                   input_tensor_offset_2, input_tensor_offset_3);
 703:Lib/AI_Runtime/Npu/ll_aton/ll_aton_lib_sw_operators.c **** 
 704:Lib/AI_Runtime/Npu/ll_aton/ll_aton_lib_sw_operators.c ****           __ll_aton_lib_copy_element(LL_LIB_NBYTES(input->nbits), -1, out_target, in_target);
 3315              		.loc 1 704 38
 3316 01be FB68     		ldr	r3, [r7, #12]
 3317 01c0 93F82830 		ldrb	r3, [r3, #40]	@ zero_extendqisi2
 3318 01c4 0733     		adds	r3, r3, #7
 3319 01c6 DB10     		asrs	r3, r3, #3
 3320              		.loc 1 704 11
 3321 01c8 D8B2     		uxtb	r0, r3
 3322 01ca 7B69     		ldr	r3, [r7, #20]
 3323 01cc BA69     		ldr	r2, [r7, #24]
 3324 01ce 4FF0FF31 		mov	r1, #-1
 3325 01d2 FFF7FEFF 		bl	__ll_aton_lib_copy_element
 3326              	.LBE29:
 689:Lib/AI_Runtime/Npu/ll_aton/ll_aton_lib_sw_operators.c ****         {
 3327              		.loc 1 689 38 discriminator 3
 3328 01d6 BB6E     		ldr	r3, [r7, #104]
 3329 01d8 0133     		adds	r3, r3, #1
 3330 01da BB66     		str	r3, [r7, #104]
 3331              	.L186:
 689:Lib/AI_Runtime/Npu/ll_aton/ll_aton_lib_sw_operators.c ****         {
ARM GAS  /tmp/ccgnzMmM.s 			page 84


 3332              		.loc 1 689 32 discriminator 1
 3333 01dc BA6E     		ldr	r2, [r7, #104]
 3334 01de BB6D     		ldr	r3, [r7, #88]
 3335 01e0 9A42     		cmp	r2, r3
 3336 01e2 99D3     		bcc	.L187
 3337              	.LBE28:
 687:Lib/AI_Runtime/Npu/ll_aton/ll_aton_lib_sw_operators.c ****       {
 3338              		.loc 1 687 36 discriminator 2
 3339 01e4 FB6E     		ldr	r3, [r7, #108]
 3340 01e6 0133     		adds	r3, r3, #1
 3341 01e8 FB66     		str	r3, [r7, #108]
 3342              	.L185:
 687:Lib/AI_Runtime/Npu/ll_aton/ll_aton_lib_sw_operators.c ****       {
 3343              		.loc 1 687 30 discriminator 1
 3344 01ea FA6E     		ldr	r2, [r7, #108]
 3345 01ec FB6D     		ldr	r3, [r7, #92]
 3346 01ee 9A42     		cmp	r2, r3
 3347 01f0 8FD3     		bcc	.L188
 3348              	.LBE27:
 685:Lib/AI_Runtime/Npu/ll_aton/ll_aton_lib_sw_operators.c ****     {
 3349              		.loc 1 685 34 discriminator 2
 3350 01f2 3B6F     		ldr	r3, [r7, #112]
 3351 01f4 0133     		adds	r3, r3, #1
 3352 01f6 3B67     		str	r3, [r7, #112]
 3353              	.L184:
 685:Lib/AI_Runtime/Npu/ll_aton/ll_aton_lib_sw_operators.c ****     {
 3354              		.loc 1 685 28 discriminator 1
 3355 01f8 3A6F     		ldr	r2, [r7, #112]
 3356 01fa 3B6E     		ldr	r3, [r7, #96]
 3357 01fc 9A42     		cmp	r2, r3
 3358 01fe 85D3     		bcc	.L189
 3359              	.LBE26:
 683:Lib/AI_Runtime/Npu/ll_aton/ll_aton_lib_sw_operators.c ****   {
 3360              		.loc 1 683 32 discriminator 2
 3361 0200 7B6F     		ldr	r3, [r7, #116]
 3362 0202 0133     		adds	r3, r3, #1
 3363 0204 7B67     		str	r3, [r7, #116]
 3364              	.L183:
 683:Lib/AI_Runtime/Npu/ll_aton/ll_aton_lib_sw_operators.c ****   {
 3365              		.loc 1 683 26 discriminator 1
 3366 0206 7A6F     		ldr	r2, [r7, #116]
 3367 0208 7B6E     		ldr	r3, [r7, #100]
 3368 020a 9A42     		cmp	r2, r3
 3369 020c FFF47BAF 		bcc	.L190
 3370              	.LBE25:
 705:Lib/AI_Runtime/Npu/ll_aton/ll_aton_lib_sw_operators.c ****         }
 706:Lib/AI_Runtime/Npu/ll_aton/ll_aton_lib_sw_operators.c ****       }
 707:Lib/AI_Runtime/Npu/ll_aton/ll_aton_lib_sw_operators.c ****     }
 708:Lib/AI_Runtime/Npu/ll_aton/ll_aton_lib_sw_operators.c ****   }
 709:Lib/AI_Runtime/Npu/ll_aton/ll_aton_lib_sw_operators.c **** 
 710:Lib/AI_Runtime/Npu/ll_aton/ll_aton_lib_sw_operators.c ****   return LL_ATON_OK;
 3371              		.loc 1 710 10
 3372 0210 0023     		movs	r3, #0
 3373              	.L178:
 711:Lib/AI_Runtime/Npu/ll_aton/ll_aton_lib_sw_operators.c **** }
 3374              		.loc 1 711 1
 3375 0212 1846     		mov	r0, r3
ARM GAS  /tmp/ccgnzMmM.s 			page 85


 3376 0214 7837     		adds	r7, r7, #120
 3377              		.cfi_def_cfa_offset 8
 3378 0216 BD46     		mov	sp, r7
 3379              		.cfi_def_cfa_register 13
 3380              		@ sp needed
 3381 0218 80BD     		pop	{r7, pc}
 3382              	.L192:
 3383 021a 00BF     		.align	2
 3384              	.L191:
 3385 021c 00000000 		.word	__FUNCTION__.22
 3386              		.cfi_endproc
 3387              	.LFE4866:
 3389              		.section	.text.LL_ATON_LIB_SW_DepthToSpace,"ax",%progbits
 3390              		.align	1
 3391              		.global	LL_ATON_LIB_SW_DepthToSpace
 3392              		.syntax unified
 3393              		.thumb
 3394              		.thumb_func
 3396              	LL_ATON_LIB_SW_DepthToSpace:
 3397              	.LFB4867:
 712:Lib/AI_Runtime/Npu/ll_aton/ll_aton_lib_sw_operators.c **** 
 713:Lib/AI_Runtime/Npu/ll_aton/ll_aton_lib_sw_operators.c **** int LL_ATON_LIB_SW_DepthToSpace(const LL_LIB_TensorShape_TypeDef *input, const uint32_t *input_axes
 714:Lib/AI_Runtime/Npu/ll_aton/ll_aton_lib_sw_operators.c ****                                 const LL_LIB_TensorShape_TypeDef *output, const uint32_t *output_ax
 715:Lib/AI_Runtime/Npu/ll_aton/ll_aton_lib_sw_operators.c ****                                 uint32_t bs_h, uint32_t bs_w, uint32_t mode)
 716:Lib/AI_Runtime/Npu/ll_aton/ll_aton_lib_sw_operators.c **** {
 3398              		.loc 1 716 1
 3399              		.cfi_startproc
 3400              		@ args = 12, pretend = 0, frame = 176
 3401              		@ frame_needed = 1, uses_anonymous_args = 0
 3402 0000 80B5     		push	{r7, lr}
 3403              		.cfi_def_cfa_offset 8
 3404              		.cfi_offset 7, -8
 3405              		.cfi_offset 14, -4
 3406 0002 B0B0     		sub	sp, sp, #192
 3407              		.cfi_def_cfa_offset 200
 3408 0004 04AF     		add	r7, sp, #16
 3409              		.cfi_def_cfa 7, 184
 3410 0006 F860     		str	r0, [r7, #12]
 3411 0008 B960     		str	r1, [r7, #8]
 3412 000a 7A60     		str	r2, [r7, #4]
 3413 000c 3B60     		str	r3, [r7]
 717:Lib/AI_Runtime/Npu/ll_aton/ll_aton_lib_sw_operators.c ****   if (input->ndims != 4)
 3414              		.loc 1 717 12
 3415 000e FB68     		ldr	r3, [r7, #12]
 3416 0010 93F82730 		ldrb	r3, [r3, #39]	@ zero_extendqisi2
 3417              		.loc 1 717 6
 3418 0014 042B     		cmp	r3, #4
 3419 0016 08D0     		beq	.L194
 718:Lib/AI_Runtime/Npu/ll_aton/ll_aton_lib_sw_operators.c ****   {
 719:Lib/AI_Runtime/Npu/ll_aton/ll_aton_lib_sw_operators.c ****     __LL_LIB_ERROR(_ERR_RANK, LL_ATON_INVALID_PARAM);
 3420              		.loc 1 719 5
 3421 0018 AB4A     		ldr	r2, .L222
 3422 001a 40F2CF21 		movw	r1, #719
 3423 001e 0F20     		movs	r0, #15
 3424 0020 FFF7FEFF 		bl	__ll_lib_error
 3425              		.loc 1 719 5 is_stmt 0 discriminator 1
 3426 0024 6FF00103 		mvn	r3, #1
ARM GAS  /tmp/ccgnzMmM.s 			page 86


 3427              		.loc 1 719 5
 3428 0028 E1E1     		b	.L195
 3429              	.L194:
 720:Lib/AI_Runtime/Npu/ll_aton/ll_aton_lib_sw_operators.c ****   }
 721:Lib/AI_Runtime/Npu/ll_aton/ll_aton_lib_sw_operators.c **** 
 722:Lib/AI_Runtime/Npu/ll_aton/ll_aton_lib_sw_operators.c ****   if (output->ndims != 4)
 3430              		.loc 1 722 13 is_stmt 1
 3431 002a 7B68     		ldr	r3, [r7, #4]
 3432 002c 93F82730 		ldrb	r3, [r3, #39]	@ zero_extendqisi2
 3433              		.loc 1 722 6
 3434 0030 042B     		cmp	r3, #4
 3435 0032 08D0     		beq	.L196
 723:Lib/AI_Runtime/Npu/ll_aton/ll_aton_lib_sw_operators.c ****   {
 724:Lib/AI_Runtime/Npu/ll_aton/ll_aton_lib_sw_operators.c ****     __LL_LIB_ERROR(_ERR_RANK, LL_ATON_INVALID_PARAM);
 3436              		.loc 1 724 5
 3437 0034 A44A     		ldr	r2, .L222
 3438 0036 4FF43571 		mov	r1, #724
 3439 003a 0F20     		movs	r0, #15
 3440 003c FFF7FEFF 		bl	__ll_lib_error
 3441              		.loc 1 724 5 is_stmt 0 discriminator 1
 3442 0040 6FF00103 		mvn	r3, #1
 3443              		.loc 1 724 5
 3444 0044 D3E1     		b	.L195
 3445              	.L196:
 725:Lib/AI_Runtime/Npu/ll_aton/ll_aton_lib_sw_operators.c ****   }
 726:Lib/AI_Runtime/Npu/ll_aton/ll_aton_lib_sw_operators.c **** 
 727:Lib/AI_Runtime/Npu/ll_aton/ll_aton_lib_sw_operators.c ****   if (input->nbits != output->nbits)
 3446              		.loc 1 727 12 is_stmt 1
 3447 0046 FB68     		ldr	r3, [r7, #12]
 3448 0048 93F82820 		ldrb	r2, [r3, #40]	@ zero_extendqisi2
 3449              		.loc 1 727 29
 3450 004c 7B68     		ldr	r3, [r7, #4]
 3451 004e 93F82830 		ldrb	r3, [r3, #40]	@ zero_extendqisi2
 3452              		.loc 1 727 6
 3453 0052 9A42     		cmp	r2, r3
 3454 0054 08D0     		beq	.L197
 728:Lib/AI_Runtime/Npu/ll_aton/ll_aton_lib_sw_operators.c ****   {
 729:Lib/AI_Runtime/Npu/ll_aton/ll_aton_lib_sw_operators.c ****     __LL_LIB_ERROR(_ERR_NBITS, LL_ATON_INVALID_PARAM);
 3455              		.loc 1 729 5
 3456 0056 9C4A     		ldr	r2, .L222
 3457 0058 40F2D921 		movw	r1, #729
 3458 005c 0620     		movs	r0, #6
 3459 005e FFF7FEFF 		bl	__ll_lib_error
 3460              		.loc 1 729 5 is_stmt 0 discriminator 1
 3461 0062 6FF00103 		mvn	r3, #1
 3462              		.loc 1 729 5
 3463 0066 C2E1     		b	.L195
 3464              	.L197:
 730:Lib/AI_Runtime/Npu/ll_aton/ll_aton_lib_sw_operators.c ****   }
 731:Lib/AI_Runtime/Npu/ll_aton/ll_aton_lib_sw_operators.c **** 
 732:Lib/AI_Runtime/Npu/ll_aton/ll_aton_lib_sw_operators.c ****   if ((input->nbits < 8) || (input->nbits > 32))
 3465              		.loc 1 732 13 is_stmt 1
 3466 0068 FB68     		ldr	r3, [r7, #12]
 3467 006a 93F82830 		ldrb	r3, [r3, #40]	@ zero_extendqisi2
 3468              		.loc 1 732 6
 3469 006e 072B     		cmp	r3, #7
 3470 0070 04D9     		bls	.L198
ARM GAS  /tmp/ccgnzMmM.s 			page 87


 3471              		.loc 1 732 35 discriminator 1
 3472 0072 FB68     		ldr	r3, [r7, #12]
 3473 0074 93F82830 		ldrb	r3, [r3, #40]	@ zero_extendqisi2
 3474              		.loc 1 732 26 discriminator 1
 3475 0078 202B     		cmp	r3, #32
 3476 007a 08D9     		bls	.L199
 3477              	.L198:
 733:Lib/AI_Runtime/Npu/ll_aton/ll_aton_lib_sw_operators.c ****   {
 734:Lib/AI_Runtime/Npu/ll_aton/ll_aton_lib_sw_operators.c ****     __LL_LIB_ERROR(_ERR_NBITS, LL_ATON_INVALID_PARAM);
 3478              		.loc 1 734 5
 3479 007c 924A     		ldr	r2, .L222
 3480 007e 40F2DE21 		movw	r1, #734
 3481 0082 0620     		movs	r0, #6
 3482 0084 FFF7FEFF 		bl	__ll_lib_error
 3483              		.loc 1 734 5 is_stmt 0 discriminator 1
 3484 0088 6FF00103 		mvn	r3, #1
 3485              		.loc 1 734 5
 3486 008c AFE1     		b	.L195
 3487              	.L199:
 735:Lib/AI_Runtime/Npu/ll_aton/ll_aton_lib_sw_operators.c ****   }
 736:Lib/AI_Runtime/Npu/ll_aton/ll_aton_lib_sw_operators.c **** 
 737:Lib/AI_Runtime/Npu/ll_aton/ll_aton_lib_sw_operators.c ****   uint32_t N = input->shape[0];
 3488              		.loc 1 737 21 is_stmt 1
 3489 008e FB68     		ldr	r3, [r7, #12]
 3490 0090 DB6A     		ldr	r3, [r3, #44]
 3491              		.loc 1 737 12
 3492 0092 1B68     		ldr	r3, [r3]
 3493 0094 C7F88430 		str	r3, [r7, #132]
 738:Lib/AI_Runtime/Npu/ll_aton/ll_aton_lib_sw_operators.c ****   uint32_t C = input->shape[1];
 3494              		.loc 1 738 21
 3495 0098 FB68     		ldr	r3, [r7, #12]
 3496 009a DB6A     		ldr	r3, [r3, #44]
 3497              		.loc 1 738 28
 3498 009c 0433     		adds	r3, r3, #4
 3499              		.loc 1 738 12
 3500 009e 1B68     		ldr	r3, [r3]
 3501 00a0 C7F88030 		str	r3, [r7, #128]
 739:Lib/AI_Runtime/Npu/ll_aton/ll_aton_lib_sw_operators.c ****   uint32_t H = input->shape[2];
 3502              		.loc 1 739 21
 3503 00a4 FB68     		ldr	r3, [r7, #12]
 3504 00a6 DB6A     		ldr	r3, [r3, #44]
 3505              		.loc 1 739 28
 3506 00a8 0833     		adds	r3, r3, #8
 3507              		.loc 1 739 12
 3508 00aa 1B68     		ldr	r3, [r3]
 3509 00ac FB67     		str	r3, [r7, #124]
 740:Lib/AI_Runtime/Npu/ll_aton/ll_aton_lib_sw_operators.c ****   uint32_t W = input->shape[3];
 3510              		.loc 1 740 21
 3511 00ae FB68     		ldr	r3, [r7, #12]
 3512 00b0 DB6A     		ldr	r3, [r3, #44]
 3513              		.loc 1 740 28
 3514 00b2 0C33     		adds	r3, r3, #12
 3515              		.loc 1 740 12
 3516 00b4 1B68     		ldr	r3, [r3]
 3517 00b6 BB67     		str	r3, [r7, #120]
 741:Lib/AI_Runtime/Npu/ll_aton/ll_aton_lib_sw_operators.c **** 
 742:Lib/AI_Runtime/Npu/ll_aton/ll_aton_lib_sw_operators.c ****   uint32_t bs_hw = (bs_h * bs_w);
ARM GAS  /tmp/ccgnzMmM.s 			page 88


 3518              		.loc 1 742 12
 3519 00b8 D7F8B830 		ldr	r3, [r7, #184]
 3520 00bc D7F8BC20 		ldr	r2, [r7, #188]
 3521 00c0 02FB03F3 		mul	r3, r2, r3
 3522 00c4 7B67     		str	r3, [r7, #116]
 743:Lib/AI_Runtime/Npu/ll_aton/ll_aton_lib_sw_operators.c ****   uint32_t max_c = (C / bs_hw);
 3523              		.loc 1 743 12
 3524 00c6 D7F88020 		ldr	r2, [r7, #128]
 3525 00ca 7B6F     		ldr	r3, [r7, #116]
 3526 00cc B2FBF3F3 		udiv	r3, r2, r3
 3527 00d0 3B67     		str	r3, [r7, #112]
 744:Lib/AI_Runtime/Npu/ll_aton/ll_aton_lib_sw_operators.c **** 
 745:Lib/AI_Runtime/Npu/ll_aton/ll_aton_lib_sw_operators.c ****   int8_t *in_base = (int8_t *)LL_Buffer_addr_start(input);
 3528              		.loc 1 745 31
 3529 00d2 F868     		ldr	r0, [r7, #12]
 3530 00d4 FFF7FEFF 		bl	LL_Buffer_addr_start
 3531 00d8 F866     		str	r0, [r7, #108]
 746:Lib/AI_Runtime/Npu/ll_aton/ll_aton_lib_sw_operators.c ****   int8_t *out_base = (int8_t *)LL_Buffer_addr_start(output);
 3532              		.loc 1 746 32
 3533 00da 7868     		ldr	r0, [r7, #4]
 3534 00dc FFF7FEFF 		bl	LL_Buffer_addr_start
 3535 00e0 B866     		str	r0, [r7, #104]
 747:Lib/AI_Runtime/Npu/ll_aton/ll_aton_lib_sw_operators.c **** 
 748:Lib/AI_Runtime/Npu/ll_aton/ll_aton_lib_sw_operators.c ****   uint32_t output_tensor_offset_0 = output_axes_offsets[0];
 3536              		.loc 1 748 12
 3537 00e2 3B68     		ldr	r3, [r7]
 3538 00e4 1B68     		ldr	r3, [r3]
 3539 00e6 7B66     		str	r3, [r7, #100]
 749:Lib/AI_Runtime/Npu/ll_aton/ll_aton_lib_sw_operators.c ****   uint32_t output_tensor_offset_1 = output_axes_offsets[1];
 3540              		.loc 1 749 56
 3541 00e8 3B68     		ldr	r3, [r7]
 3542 00ea 0433     		adds	r3, r3, #4
 3543              		.loc 1 749 12
 3544 00ec 1B68     		ldr	r3, [r3]
 3545 00ee 3B66     		str	r3, [r7, #96]
 750:Lib/AI_Runtime/Npu/ll_aton/ll_aton_lib_sw_operators.c ****   uint32_t output_tensor_offset_2 = output_axes_offsets[2];
 3546              		.loc 1 750 56
 3547 00f0 3B68     		ldr	r3, [r7]
 3548 00f2 0833     		adds	r3, r3, #8
 3549              		.loc 1 750 12
 3550 00f4 1B68     		ldr	r3, [r3]
 3551 00f6 FB65     		str	r3, [r7, #92]
 751:Lib/AI_Runtime/Npu/ll_aton/ll_aton_lib_sw_operators.c ****   uint32_t output_tensor_offset_3 = output_axes_offsets[3];
 3552              		.loc 1 751 56
 3553 00f8 3B68     		ldr	r3, [r7]
 3554 00fa 0C33     		adds	r3, r3, #12
 3555              		.loc 1 751 12
 3556 00fc 1B68     		ldr	r3, [r3]
 3557 00fe BB65     		str	r3, [r7, #88]
 752:Lib/AI_Runtime/Npu/ll_aton/ll_aton_lib_sw_operators.c **** 
 753:Lib/AI_Runtime/Npu/ll_aton/ll_aton_lib_sw_operators.c ****   uint32_t input_tensor_offset_0 = input_axes_offsets[0];
 3558              		.loc 1 753 12
 3559 0100 BB68     		ldr	r3, [r7, #8]
 3560 0102 1B68     		ldr	r3, [r3]
 3561 0104 7B65     		str	r3, [r7, #84]
 754:Lib/AI_Runtime/Npu/ll_aton/ll_aton_lib_sw_operators.c ****   uint32_t input_tensor_offset_1 = input_axes_offsets[1];
 3562              		.loc 1 754 54
ARM GAS  /tmp/ccgnzMmM.s 			page 89


 3563 0106 BB68     		ldr	r3, [r7, #8]
 3564 0108 0433     		adds	r3, r3, #4
 3565              		.loc 1 754 12
 3566 010a 1B68     		ldr	r3, [r3]
 3567 010c 3B65     		str	r3, [r7, #80]
 755:Lib/AI_Runtime/Npu/ll_aton/ll_aton_lib_sw_operators.c ****   uint32_t input_tensor_offset_2 = input_axes_offsets[2];
 3568              		.loc 1 755 54
 3569 010e BB68     		ldr	r3, [r7, #8]
 3570 0110 0833     		adds	r3, r3, #8
 3571              		.loc 1 755 12
 3572 0112 1B68     		ldr	r3, [r3]
 3573 0114 FB64     		str	r3, [r7, #76]
 756:Lib/AI_Runtime/Npu/ll_aton/ll_aton_lib_sw_operators.c ****   uint32_t input_tensor_offset_3 = input_axes_offsets[3];
 3574              		.loc 1 756 54
 3575 0116 BB68     		ldr	r3, [r7, #8]
 3576 0118 0C33     		adds	r3, r3, #12
 3577              		.loc 1 756 12
 3578 011a 1B68     		ldr	r3, [r3]
 3579 011c BB64     		str	r3, [r7, #72]
 757:Lib/AI_Runtime/Npu/ll_aton/ll_aton_lib_sw_operators.c **** 
 758:Lib/AI_Runtime/Npu/ll_aton/ll_aton_lib_sw_operators.c ****   if (mode == 0)
 3580              		.loc 1 758 6
 3581 011e D7F8C030 		ldr	r3, [r7, #192]
 3582 0122 002B     		cmp	r3, #0
 3583 0124 40F0A880 		bne	.L200
 3584              	.LBB30:
 759:Lib/AI_Runtime/Npu/ll_aton/ll_aton_lib_sw_operators.c ****   { // `DCR`
 760:Lib/AI_Runtime/Npu/ll_aton/ll_aton_lib_sw_operators.c ****     for (uint32_t n = 0; n < N; n++)
 3585              		.loc 1 760 19
 3586 0128 0023     		movs	r3, #0
 3587 012a C7F8AC30 		str	r3, [r7, #172]
 3588              		.loc 1 760 5
 3589 012e 9BE0     		b	.L201
 3590              	.L208:
 3591              	.LBB31:
 761:Lib/AI_Runtime/Npu/ll_aton/ll_aton_lib_sw_operators.c ****     {
 762:Lib/AI_Runtime/Npu/ll_aton/ll_aton_lib_sw_operators.c ****       for (uint32_t c = 0; c < C; c++)
 3592              		.loc 1 762 21
 3593 0130 0023     		movs	r3, #0
 3594 0132 C7F8A830 		str	r3, [r7, #168]
 3595              		.loc 1 762 7
 3596 0136 8BE0     		b	.L202
 3597              	.L207:
 3598              	.LBB32:
 763:Lib/AI_Runtime/Npu/ll_aton/ll_aton_lib_sw_operators.c ****       {
 764:Lib/AI_Runtime/Npu/ll_aton/ll_aton_lib_sw_operators.c ****         for (uint32_t h = 0; h < H; h++)
 3599              		.loc 1 764 23
 3600 0138 0023     		movs	r3, #0
 3601 013a C7F8A430 		str	r3, [r7, #164]
 3602              		.loc 1 764 9
 3603 013e 7CE0     		b	.L203
 3604              	.L206:
 3605              	.LBB33:
 765:Lib/AI_Runtime/Npu/ll_aton/ll_aton_lib_sw_operators.c ****         {
 766:Lib/AI_Runtime/Npu/ll_aton/ll_aton_lib_sw_operators.c ****           for (uint32_t w = 0; w < W; w++)
 3606              		.loc 1 766 25
 3607 0140 0023     		movs	r3, #0
ARM GAS  /tmp/ccgnzMmM.s 			page 90


 3608 0142 C7F8A030 		str	r3, [r7, #160]
 3609              		.loc 1 766 11
 3610 0146 6EE0     		b	.L204
 3611              	.L205:
 3612              	.LBB34:
 767:Lib/AI_Runtime/Npu/ll_aton/ll_aton_lib_sw_operators.c ****           {
 768:Lib/AI_Runtime/Npu/ll_aton/ll_aton_lib_sw_operators.c ****             uint32_t off_h = (h * bs_h);
 3613              		.loc 1 768 22
 3614 0148 D7F8A430 		ldr	r3, [r7, #164]
 3615 014c D7F8B820 		ldr	r2, [r7, #184]
 3616 0150 02FB03F3 		mul	r3, r2, r3
 3617 0154 BB62     		str	r3, [r7, #40]
 769:Lib/AI_Runtime/Npu/ll_aton/ll_aton_lib_sw_operators.c ****             uint32_t off_w = (w * bs_w);
 3618              		.loc 1 769 22
 3619 0156 D7F8A030 		ldr	r3, [r7, #160]
 3620 015a D7F8BC20 		ldr	r2, [r7, #188]
 3621 015e 02FB03F3 		mul	r3, r2, r3
 3622 0162 7B62     		str	r3, [r7, #36]
 770:Lib/AI_Runtime/Npu/ll_aton/ll_aton_lib_sw_operators.c ****             uint32_t out_c = c % max_c;
 3623              		.loc 1 770 22
 3624 0164 D7F8A830 		ldr	r3, [r7, #168]
 3625 0168 3A6F     		ldr	r2, [r7, #112]
 3626 016a B3FBF2F2 		udiv	r2, r3, r2
 3627 016e 396F     		ldr	r1, [r7, #112]
 3628 0170 01FB02F2 		mul	r2, r1, r2
 3629 0174 9B1A     		subs	r3, r3, r2
 3630 0176 3B62     		str	r3, [r7, #32]
 771:Lib/AI_Runtime/Npu/ll_aton/ll_aton_lib_sw_operators.c ****             uint32_t out_h = off_h + (c / (max_c * bs_w));
 3631              		.loc 1 771 50
 3632 0178 3B6F     		ldr	r3, [r7, #112]
 3633 017a D7F8BC20 		ldr	r2, [r7, #188]
 3634 017e 02FB03F3 		mul	r3, r2, r3
 3635              		.loc 1 771 41
 3636 0182 D7F8A820 		ldr	r2, [r7, #168]
 3637 0186 B2FBF3F3 		udiv	r3, r2, r3
 3638              		.loc 1 771 22
 3639 018a BA6A     		ldr	r2, [r7, #40]
 3640 018c 1344     		add	r3, r3, r2
 3641 018e FB61     		str	r3, [r7, #28]
 772:Lib/AI_Runtime/Npu/ll_aton/ll_aton_lib_sw_operators.c ****             uint32_t out_w = off_w + ((c / max_c) % bs_w);
 3642              		.loc 1 772 42
 3643 0190 D7F8A820 		ldr	r2, [r7, #168]
 3644 0194 3B6F     		ldr	r3, [r7, #112]
 3645 0196 B2FBF3F3 		udiv	r3, r2, r3
 3646              		.loc 1 772 51
 3647 019a D7F8BC20 		ldr	r2, [r7, #188]
 3648 019e B3FBF2F2 		udiv	r2, r3, r2
 3649 01a2 D7F8BC10 		ldr	r1, [r7, #188]
 3650 01a6 01FB02F2 		mul	r2, r1, r2
 3651 01aa 9B1A     		subs	r3, r3, r2
 3652              		.loc 1 772 22
 3653 01ac 7A6A     		ldr	r2, [r7, #36]
 3654 01ae 1344     		add	r3, r3, r2
 3655 01b0 BB61     		str	r3, [r7, #24]
 773:Lib/AI_Runtime/Npu/ll_aton/ll_aton_lib_sw_operators.c **** 
 774:Lib/AI_Runtime/Npu/ll_aton/ll_aton_lib_sw_operators.c ****             int8_t *out_target = out_base + __ll_aton_lib_calc_offset(n, out_c, out_h, out_w, outpu
 3656              		.loc 1 774 45
ARM GAS  /tmp/ccgnzMmM.s 			page 91


 3657 01b2 BB6D     		ldr	r3, [r7, #88]
 3658 01b4 0393     		str	r3, [sp, #12]
 3659 01b6 FB6D     		ldr	r3, [r7, #92]
 3660 01b8 0293     		str	r3, [sp, #8]
 3661 01ba 3B6E     		ldr	r3, [r7, #96]
 3662 01bc 0193     		str	r3, [sp, #4]
 3663 01be 7B6E     		ldr	r3, [r7, #100]
 3664 01c0 0093     		str	r3, [sp]
 3665 01c2 BB69     		ldr	r3, [r7, #24]
 3666 01c4 FA69     		ldr	r2, [r7, #28]
 3667 01c6 396A     		ldr	r1, [r7, #32]
 3668 01c8 D7F8AC00 		ldr	r0, [r7, #172]
 3669 01cc FFF7FEFF 		bl	__ll_aton_lib_calc_offset
 3670 01d0 0246     		mov	r2, r0
 3671              		.loc 1 774 21 discriminator 1
 3672 01d2 BB6E     		ldr	r3, [r7, #104]
 3673 01d4 1344     		add	r3, r3, r2
 3674 01d6 7B61     		str	r3, [r7, #20]
 775:Lib/AI_Runtime/Npu/ll_aton/ll_aton_lib_sw_operators.c ****                                                                       output_tensor_offset_1, outpu
 776:Lib/AI_Runtime/Npu/ll_aton/ll_aton_lib_sw_operators.c ****                                                                       output_tensor_offset_3);
 777:Lib/AI_Runtime/Npu/ll_aton/ll_aton_lib_sw_operators.c ****             int8_t *in_target =
 778:Lib/AI_Runtime/Npu/ll_aton/ll_aton_lib_sw_operators.c ****                 in_base + __ll_aton_lib_calc_offset(n, c, h, w, input_tensor_offset_0, input_tensor
 3675              		.loc 1 778 27
 3676 01d8 BB6C     		ldr	r3, [r7, #72]
 3677 01da 0393     		str	r3, [sp, #12]
 3678 01dc FB6C     		ldr	r3, [r7, #76]
 3679 01de 0293     		str	r3, [sp, #8]
 3680 01e0 3B6D     		ldr	r3, [r7, #80]
 3681 01e2 0193     		str	r3, [sp, #4]
 3682 01e4 7B6D     		ldr	r3, [r7, #84]
 3683 01e6 0093     		str	r3, [sp]
 3684 01e8 D7F8A030 		ldr	r3, [r7, #160]
 3685 01ec D7F8A420 		ldr	r2, [r7, #164]
 3686 01f0 D7F8A810 		ldr	r1, [r7, #168]
 3687 01f4 D7F8AC00 		ldr	r0, [r7, #172]
 3688 01f8 FFF7FEFF 		bl	__ll_aton_lib_calc_offset
 3689 01fc 0246     		mov	r2, r0
 777:Lib/AI_Runtime/Npu/ll_aton/ll_aton_lib_sw_operators.c ****                 in_base + __ll_aton_lib_calc_offset(n, c, h, w, input_tensor_offset_0, input_tensor
 3690              		.loc 1 777 21
 3691 01fe FB6E     		ldr	r3, [r7, #108]
 3692 0200 1344     		add	r3, r3, r2
 3693 0202 3B61     		str	r3, [r7, #16]
 779:Lib/AI_Runtime/Npu/ll_aton/ll_aton_lib_sw_operators.c ****                                                     input_tensor_offset_2, input_tensor_offset_3);
 780:Lib/AI_Runtime/Npu/ll_aton/ll_aton_lib_sw_operators.c **** 
 781:Lib/AI_Runtime/Npu/ll_aton/ll_aton_lib_sw_operators.c ****             __ll_aton_lib_copy_element(LL_LIB_NBYTES(input->nbits), -1, out_target, in_target);
 3694              		.loc 1 781 40
 3695 0204 FB68     		ldr	r3, [r7, #12]
 3696 0206 93F82830 		ldrb	r3, [r3, #40]	@ zero_extendqisi2
 3697 020a 0733     		adds	r3, r3, #7
 3698 020c DB10     		asrs	r3, r3, #3
 3699              		.loc 1 781 13
 3700 020e D8B2     		uxtb	r0, r3
 3701 0210 3B69     		ldr	r3, [r7, #16]
 3702 0212 7A69     		ldr	r2, [r7, #20]
 3703 0214 4FF0FF31 		mov	r1, #-1
 3704 0218 FFF7FEFF 		bl	__ll_aton_lib_copy_element
 3705              	.LBE34:
ARM GAS  /tmp/ccgnzMmM.s 			page 92


 766:Lib/AI_Runtime/Npu/ll_aton/ll_aton_lib_sw_operators.c ****           {
 3706              		.loc 1 766 40 discriminator 3
 3707 021c D7F8A030 		ldr	r3, [r7, #160]
 3708 0220 0133     		adds	r3, r3, #1
 3709 0222 C7F8A030 		str	r3, [r7, #160]
 3710              	.L204:
 766:Lib/AI_Runtime/Npu/ll_aton/ll_aton_lib_sw_operators.c ****           {
 3711              		.loc 1 766 34 discriminator 1
 3712 0226 D7F8A020 		ldr	r2, [r7, #160]
 3713 022a BB6F     		ldr	r3, [r7, #120]
 3714 022c 9A42     		cmp	r2, r3
 3715 022e 8BD3     		bcc	.L205
 3716              	.LBE33:
 764:Lib/AI_Runtime/Npu/ll_aton/ll_aton_lib_sw_operators.c ****         {
 3717              		.loc 1 764 38 discriminator 2
 3718 0230 D7F8A430 		ldr	r3, [r7, #164]
 3719 0234 0133     		adds	r3, r3, #1
 3720 0236 C7F8A430 		str	r3, [r7, #164]
 3721              	.L203:
 764:Lib/AI_Runtime/Npu/ll_aton/ll_aton_lib_sw_operators.c ****         {
 3722              		.loc 1 764 32 discriminator 1
 3723 023a D7F8A420 		ldr	r2, [r7, #164]
 3724 023e FB6F     		ldr	r3, [r7, #124]
 3725 0240 9A42     		cmp	r2, r3
 3726 0242 FFF47DAF 		bcc	.L206
 3727              	.LBE32:
 762:Lib/AI_Runtime/Npu/ll_aton/ll_aton_lib_sw_operators.c ****       {
 3728              		.loc 1 762 36 discriminator 2
 3729 0246 D7F8A830 		ldr	r3, [r7, #168]
 3730 024a 0133     		adds	r3, r3, #1
 3731 024c C7F8A830 		str	r3, [r7, #168]
 3732              	.L202:
 762:Lib/AI_Runtime/Npu/ll_aton/ll_aton_lib_sw_operators.c ****       {
 3733              		.loc 1 762 30 discriminator 1
 3734 0250 D7F8A820 		ldr	r2, [r7, #168]
 3735 0254 D7F88030 		ldr	r3, [r7, #128]
 3736 0258 9A42     		cmp	r2, r3
 3737 025a FFF46DAF 		bcc	.L207
 3738              	.LBE31:
 760:Lib/AI_Runtime/Npu/ll_aton/ll_aton_lib_sw_operators.c ****     {
 3739              		.loc 1 760 34 discriminator 2
 3740 025e D7F8AC30 		ldr	r3, [r7, #172]
 3741 0262 0133     		adds	r3, r3, #1
 3742 0264 C7F8AC30 		str	r3, [r7, #172]
 3743              	.L201:
 760:Lib/AI_Runtime/Npu/ll_aton/ll_aton_lib_sw_operators.c ****     {
 3744              		.loc 1 760 28 discriminator 1
 3745 0268 D7F8AC20 		ldr	r2, [r7, #172]
 3746 026c D7F88430 		ldr	r3, [r7, #132]
 3747 0270 9A42     		cmp	r2, r3
 3748 0272 FFF45DAF 		bcc	.L208
 3749 0276 B9E0     		b	.L209
 3750              	.L200:
 3751              	.LBE30:
 3752              	.LBB35:
 782:Lib/AI_Runtime/Npu/ll_aton/ll_aton_lib_sw_operators.c ****           }
 783:Lib/AI_Runtime/Npu/ll_aton/ll_aton_lib_sw_operators.c ****         }
ARM GAS  /tmp/ccgnzMmM.s 			page 93


 784:Lib/AI_Runtime/Npu/ll_aton/ll_aton_lib_sw_operators.c ****       }
 785:Lib/AI_Runtime/Npu/ll_aton/ll_aton_lib_sw_operators.c ****     }
 786:Lib/AI_Runtime/Npu/ll_aton/ll_aton_lib_sw_operators.c ****   }
 787:Lib/AI_Runtime/Npu/ll_aton/ll_aton_lib_sw_operators.c ****   else
 788:Lib/AI_Runtime/Npu/ll_aton/ll_aton_lib_sw_operators.c ****   { // `CRD`
 789:Lib/AI_Runtime/Npu/ll_aton/ll_aton_lib_sw_operators.c ****     for (uint32_t n = 0; n < N; n++)
 3753              		.loc 1 789 19
 3754 0278 0023     		movs	r3, #0
 3755 027a C7F89C30 		str	r3, [r7, #156]
 3756              		.loc 1 789 5
 3757 027e AEE0     		b	.L210
 3758              	.L221:
 3759              	.LBB36:
 790:Lib/AI_Runtime/Npu/ll_aton/ll_aton_lib_sw_operators.c ****     {
 791:Lib/AI_Runtime/Npu/ll_aton/ll_aton_lib_sw_operators.c ****       for (uint32_t out_c = 0; out_c < max_c; out_c++)
 3760              		.loc 1 791 21
 3761 0280 0023     		movs	r3, #0
 3762 0282 C7F89830 		str	r3, [r7, #152]
 3763              		.loc 1 791 7
 3764 0286 9FE0     		b	.L211
 3765              	.L220:
 3766              	.LBB37:
 792:Lib/AI_Runtime/Npu/ll_aton/ll_aton_lib_sw_operators.c ****       {
 793:Lib/AI_Runtime/Npu/ll_aton/ll_aton_lib_sw_operators.c ****         for (uint32_t c_rem_bs_2_div_bs = 0; c_rem_bs_2_div_bs < bs_h; c_rem_bs_2_div_bs++)
 3767              		.loc 1 793 23
 3768 0288 0023     		movs	r3, #0
 3769 028a C7F89430 		str	r3, [r7, #148]
 3770              		.loc 1 793 9
 3771 028e 8FE0     		b	.L212
 3772              	.L219:
 3773              	.LBB38:
 794:Lib/AI_Runtime/Npu/ll_aton/ll_aton_lib_sw_operators.c ****         {
 795:Lib/AI_Runtime/Npu/ll_aton/ll_aton_lib_sw_operators.c ****           for (uint32_t c_rem_bs = 0; c_rem_bs < bs_w; c_rem_bs++)
 3774              		.loc 1 795 25
 3775 0290 0023     		movs	r3, #0
 3776 0292 C7F89030 		str	r3, [r7, #144]
 3777              		.loc 1 795 11
 3778 0296 7FE0     		b	.L213
 3779              	.L218:
 3780              	.LBB39:
 796:Lib/AI_Runtime/Npu/ll_aton/ll_aton_lib_sw_operators.c ****           {
 797:Lib/AI_Runtime/Npu/ll_aton/ll_aton_lib_sw_operators.c ****             uint32_t c = c_rem_bs + (c_rem_bs_2_div_bs * bs_w) + (out_c * bs_hw);
 3781              		.loc 1 797 56
 3782 0298 D7F89430 		ldr	r3, [r7, #148]
 3783 029c D7F8BC20 		ldr	r2, [r7, #188]
 3784 02a0 03FB02F2 		mul	r2, r3, r2
 3785              		.loc 1 797 73
 3786 02a4 D7F89830 		ldr	r3, [r7, #152]
 3787 02a8 796F     		ldr	r1, [r7, #116]
 3788 02aa 01FB03F3 		mul	r3, r1, r3
 3789              		.loc 1 797 64
 3790 02ae 1344     		add	r3, r3, r2
 3791              		.loc 1 797 22
 3792 02b0 D7F89020 		ldr	r2, [r7, #144]
 3793 02b4 1344     		add	r3, r3, r2
 3794 02b6 7B64     		str	r3, [r7, #68]
 3795              	.LBB40:
ARM GAS  /tmp/ccgnzMmM.s 			page 94


 798:Lib/AI_Runtime/Npu/ll_aton/ll_aton_lib_sw_operators.c **** 
 799:Lib/AI_Runtime/Npu/ll_aton/ll_aton_lib_sw_operators.c ****             for (uint32_t h = 0; h < H; h++)
 3796              		.loc 1 799 27
 3797 02b8 0023     		movs	r3, #0
 3798 02ba C7F88C30 		str	r3, [r7, #140]
 3799              		.loc 1 799 13
 3800 02be 61E0     		b	.L214
 3801              	.L217:
 3802              	.LBB41:
 800:Lib/AI_Runtime/Npu/ll_aton/ll_aton_lib_sw_operators.c ****             {
 801:Lib/AI_Runtime/Npu/ll_aton/ll_aton_lib_sw_operators.c ****               for (uint32_t w = 0; w < W; w++)
 3803              		.loc 1 801 29
 3804 02c0 0023     		movs	r3, #0
 3805 02c2 C7F88830 		str	r3, [r7, #136]
 3806              		.loc 1 801 15
 3807 02c6 53E0     		b	.L215
 3808              	.L223:
 3809              		.align	2
 3810              	.L222:
 3811 02c8 00000000 		.word	__FUNCTION__.21
 3812              	.L216:
 3813              	.LBB42:
 802:Lib/AI_Runtime/Npu/ll_aton/ll_aton_lib_sw_operators.c ****               {
 803:Lib/AI_Runtime/Npu/ll_aton/ll_aton_lib_sw_operators.c ****                 uint32_t off_h = (h * bs_h);
 3814              		.loc 1 803 26
 3815 02cc D7F88C30 		ldr	r3, [r7, #140]
 3816 02d0 D7F8B820 		ldr	r2, [r7, #184]
 3817 02d4 02FB03F3 		mul	r3, r2, r3
 3818 02d8 3B64     		str	r3, [r7, #64]
 804:Lib/AI_Runtime/Npu/ll_aton/ll_aton_lib_sw_operators.c ****                 uint32_t off_w = (w * bs_w);
 3819              		.loc 1 804 26
 3820 02da D7F88830 		ldr	r3, [r7, #136]
 3821 02de D7F8BC20 		ldr	r2, [r7, #188]
 3822 02e2 02FB03F3 		mul	r3, r2, r3
 3823 02e6 FB63     		str	r3, [r7, #60]
 805:Lib/AI_Runtime/Npu/ll_aton/ll_aton_lib_sw_operators.c ****                 uint32_t out_h = off_h + c_rem_bs_2_div_bs;
 3824              		.loc 1 805 26
 3825 02e8 3A6C     		ldr	r2, [r7, #64]
 3826 02ea D7F89430 		ldr	r3, [r7, #148]
 3827 02ee 1344     		add	r3, r3, r2
 3828 02f0 BB63     		str	r3, [r7, #56]
 806:Lib/AI_Runtime/Npu/ll_aton/ll_aton_lib_sw_operators.c ****                 uint32_t out_w = off_w + c_rem_bs;
 3829              		.loc 1 806 26
 3830 02f2 FA6B     		ldr	r2, [r7, #60]
 3831 02f4 D7F89030 		ldr	r3, [r7, #144]
 3832 02f8 1344     		add	r3, r3, r2
 3833 02fa 7B63     		str	r3, [r7, #52]
 807:Lib/AI_Runtime/Npu/ll_aton/ll_aton_lib_sw_operators.c **** 
 808:Lib/AI_Runtime/Npu/ll_aton/ll_aton_lib_sw_operators.c ****                 int8_t *out_target =
 809:Lib/AI_Runtime/Npu/ll_aton/ll_aton_lib_sw_operators.c ****                     out_base + __ll_aton_lib_calc_offset(n, out_c, out_h, out_w, output_tensor_offs
 3834              		.loc 1 809 32
 3835 02fc BB6D     		ldr	r3, [r7, #88]
 3836 02fe 0393     		str	r3, [sp, #12]
 3837 0300 FB6D     		ldr	r3, [r7, #92]
 3838 0302 0293     		str	r3, [sp, #8]
 3839 0304 3B6E     		ldr	r3, [r7, #96]
 3840 0306 0193     		str	r3, [sp, #4]
ARM GAS  /tmp/ccgnzMmM.s 			page 95


 3841 0308 7B6E     		ldr	r3, [r7, #100]
 3842 030a 0093     		str	r3, [sp]
 3843 030c 7B6B     		ldr	r3, [r7, #52]
 3844 030e BA6B     		ldr	r2, [r7, #56]
 3845 0310 D7F89810 		ldr	r1, [r7, #152]
 3846 0314 D7F89C00 		ldr	r0, [r7, #156]
 3847 0318 FFF7FEFF 		bl	__ll_aton_lib_calc_offset
 3848 031c 0246     		mov	r2, r0
 808:Lib/AI_Runtime/Npu/ll_aton/ll_aton_lib_sw_operators.c ****                     out_base + __ll_aton_lib_calc_offset(n, out_c, out_h, out_w, output_tensor_offs
 3849              		.loc 1 808 25
 3850 031e BB6E     		ldr	r3, [r7, #104]
 3851 0320 1344     		add	r3, r3, r2
 3852 0322 3B63     		str	r3, [r7, #48]
 810:Lib/AI_Runtime/Npu/ll_aton/ll_aton_lib_sw_operators.c ****                                                          output_tensor_offset_1, output_tensor_offs
 811:Lib/AI_Runtime/Npu/ll_aton/ll_aton_lib_sw_operators.c ****                                                          output_tensor_offset_3);
 812:Lib/AI_Runtime/Npu/ll_aton/ll_aton_lib_sw_operators.c ****                 int8_t *in_target =
 813:Lib/AI_Runtime/Npu/ll_aton/ll_aton_lib_sw_operators.c ****                     in_base + __ll_aton_lib_calc_offset(n, c, h, w, input_tensor_offset_0, input_te
 3853              		.loc 1 813 31
 3854 0324 BB6C     		ldr	r3, [r7, #72]
 3855 0326 0393     		str	r3, [sp, #12]
 3856 0328 FB6C     		ldr	r3, [r7, #76]
 3857 032a 0293     		str	r3, [sp, #8]
 3858 032c 3B6D     		ldr	r3, [r7, #80]
 3859 032e 0193     		str	r3, [sp, #4]
 3860 0330 7B6D     		ldr	r3, [r7, #84]
 3861 0332 0093     		str	r3, [sp]
 3862 0334 D7F88830 		ldr	r3, [r7, #136]
 3863 0338 D7F88C20 		ldr	r2, [r7, #140]
 3864 033c 796C     		ldr	r1, [r7, #68]
 3865 033e D7F89C00 		ldr	r0, [r7, #156]
 3866 0342 FFF7FEFF 		bl	__ll_aton_lib_calc_offset
 3867 0346 0246     		mov	r2, r0
 812:Lib/AI_Runtime/Npu/ll_aton/ll_aton_lib_sw_operators.c ****                     in_base + __ll_aton_lib_calc_offset(n, c, h, w, input_tensor_offset_0, input_te
 3868              		.loc 1 812 25
 3869 0348 FB6E     		ldr	r3, [r7, #108]
 3870 034a 1344     		add	r3, r3, r2
 3871 034c FB62     		str	r3, [r7, #44]
 814:Lib/AI_Runtime/Npu/ll_aton/ll_aton_lib_sw_operators.c ****                                                         input_tensor_offset_2, input_tensor_offset_
 815:Lib/AI_Runtime/Npu/ll_aton/ll_aton_lib_sw_operators.c **** 
 816:Lib/AI_Runtime/Npu/ll_aton/ll_aton_lib_sw_operators.c ****                 __ll_aton_lib_copy_element(LL_LIB_NBYTES(input->nbits), -1, out_target, in_target);
 3872              		.loc 1 816 44
 3873 034e FB68     		ldr	r3, [r7, #12]
 3874 0350 93F82830 		ldrb	r3, [r3, #40]	@ zero_extendqisi2
 3875 0354 0733     		adds	r3, r3, #7
 3876 0356 DB10     		asrs	r3, r3, #3
 3877              		.loc 1 816 17
 3878 0358 D8B2     		uxtb	r0, r3
 3879 035a FB6A     		ldr	r3, [r7, #44]
 3880 035c 3A6B     		ldr	r2, [r7, #48]
 3881 035e 4FF0FF31 		mov	r1, #-1
 3882 0362 FFF7FEFF 		bl	__ll_aton_lib_copy_element
 3883              	.LBE42:
 801:Lib/AI_Runtime/Npu/ll_aton/ll_aton_lib_sw_operators.c ****               {
 3884              		.loc 1 801 44 discriminator 3
 3885 0366 D7F88830 		ldr	r3, [r7, #136]
 3886 036a 0133     		adds	r3, r3, #1
 3887 036c C7F88830 		str	r3, [r7, #136]
ARM GAS  /tmp/ccgnzMmM.s 			page 96


 3888              	.L215:
 801:Lib/AI_Runtime/Npu/ll_aton/ll_aton_lib_sw_operators.c ****               {
 3889              		.loc 1 801 38 discriminator 1
 3890 0370 D7F88820 		ldr	r2, [r7, #136]
 3891 0374 BB6F     		ldr	r3, [r7, #120]
 3892 0376 9A42     		cmp	r2, r3
 3893 0378 A8D3     		bcc	.L216
 3894              	.LBE41:
 799:Lib/AI_Runtime/Npu/ll_aton/ll_aton_lib_sw_operators.c ****             {
 3895              		.loc 1 799 42 discriminator 2
 3896 037a D7F88C30 		ldr	r3, [r7, #140]
 3897 037e 0133     		adds	r3, r3, #1
 3898 0380 C7F88C30 		str	r3, [r7, #140]
 3899              	.L214:
 799:Lib/AI_Runtime/Npu/ll_aton/ll_aton_lib_sw_operators.c ****             {
 3900              		.loc 1 799 36 discriminator 1
 3901 0384 D7F88C20 		ldr	r2, [r7, #140]
 3902 0388 FB6F     		ldr	r3, [r7, #124]
 3903 038a 9A42     		cmp	r2, r3
 3904 038c 98D3     		bcc	.L217
 3905              	.LBE40:
 3906              	.LBE39:
 795:Lib/AI_Runtime/Npu/ll_aton/ll_aton_lib_sw_operators.c ****           {
 3907              		.loc 1 795 64 discriminator 2
 3908 038e D7F89030 		ldr	r3, [r7, #144]
 3909 0392 0133     		adds	r3, r3, #1
 3910 0394 C7F89030 		str	r3, [r7, #144]
 3911              	.L213:
 795:Lib/AI_Runtime/Npu/ll_aton/ll_aton_lib_sw_operators.c ****           {
 3912              		.loc 1 795 48 discriminator 1
 3913 0398 D7F89020 		ldr	r2, [r7, #144]
 3914 039c D7F8BC30 		ldr	r3, [r7, #188]
 3915 03a0 9A42     		cmp	r2, r3
 3916 03a2 FFF479AF 		bcc	.L218
 3917              	.LBE38:
 793:Lib/AI_Runtime/Npu/ll_aton/ll_aton_lib_sw_operators.c ****         {
 3918              		.loc 1 793 89 discriminator 2
 3919 03a6 D7F89430 		ldr	r3, [r7, #148]
 3920 03aa 0133     		adds	r3, r3, #1
 3921 03ac C7F89430 		str	r3, [r7, #148]
 3922              	.L212:
 793:Lib/AI_Runtime/Npu/ll_aton/ll_aton_lib_sw_operators.c ****         {
 3923              		.loc 1 793 64 discriminator 1
 3924 03b0 D7F89420 		ldr	r2, [r7, #148]
 3925 03b4 D7F8B830 		ldr	r3, [r7, #184]
 3926 03b8 9A42     		cmp	r2, r3
 3927 03ba FFF469AF 		bcc	.L219
 3928              	.LBE37:
 791:Lib/AI_Runtime/Npu/ll_aton/ll_aton_lib_sw_operators.c ****       {
 3929              		.loc 1 791 52 discriminator 2
 3930 03be D7F89830 		ldr	r3, [r7, #152]
 3931 03c2 0133     		adds	r3, r3, #1
 3932 03c4 C7F89830 		str	r3, [r7, #152]
 3933              	.L211:
 791:Lib/AI_Runtime/Npu/ll_aton/ll_aton_lib_sw_operators.c ****       {
 3934              		.loc 1 791 38 discriminator 1
 3935 03c8 D7F89820 		ldr	r2, [r7, #152]
ARM GAS  /tmp/ccgnzMmM.s 			page 97


 3936 03cc 3B6F     		ldr	r3, [r7, #112]
 3937 03ce 9A42     		cmp	r2, r3
 3938 03d0 FFF45AAF 		bcc	.L220
 3939              	.LBE36:
 789:Lib/AI_Runtime/Npu/ll_aton/ll_aton_lib_sw_operators.c ****     {
 3940              		.loc 1 789 34 discriminator 2
 3941 03d4 D7F89C30 		ldr	r3, [r7, #156]
 3942 03d8 0133     		adds	r3, r3, #1
 3943 03da C7F89C30 		str	r3, [r7, #156]
 3944              	.L210:
 789:Lib/AI_Runtime/Npu/ll_aton/ll_aton_lib_sw_operators.c ****     {
 3945              		.loc 1 789 28 discriminator 1
 3946 03de D7F89C20 		ldr	r2, [r7, #156]
 3947 03e2 D7F88430 		ldr	r3, [r7, #132]
 3948 03e6 9A42     		cmp	r2, r3
 3949 03e8 FFF44AAF 		bcc	.L221
 3950              	.L209:
 3951              	.LBE35:
 817:Lib/AI_Runtime/Npu/ll_aton/ll_aton_lib_sw_operators.c ****               }
 818:Lib/AI_Runtime/Npu/ll_aton/ll_aton_lib_sw_operators.c ****             }
 819:Lib/AI_Runtime/Npu/ll_aton/ll_aton_lib_sw_operators.c ****           }
 820:Lib/AI_Runtime/Npu/ll_aton/ll_aton_lib_sw_operators.c ****         }
 821:Lib/AI_Runtime/Npu/ll_aton/ll_aton_lib_sw_operators.c ****       }
 822:Lib/AI_Runtime/Npu/ll_aton/ll_aton_lib_sw_operators.c ****     }
 823:Lib/AI_Runtime/Npu/ll_aton/ll_aton_lib_sw_operators.c ****   }
 824:Lib/AI_Runtime/Npu/ll_aton/ll_aton_lib_sw_operators.c ****   return LL_ATON_OK;
 3952              		.loc 1 824 10
 3953 03ec 0023     		movs	r3, #0
 3954              	.L195:
 825:Lib/AI_Runtime/Npu/ll_aton/ll_aton_lib_sw_operators.c **** }
 3955              		.loc 1 825 1
 3956 03ee 1846     		mov	r0, r3
 3957 03f0 B037     		adds	r7, r7, #176
 3958              		.cfi_def_cfa_offset 8
 3959 03f2 BD46     		mov	sp, r7
 3960              		.cfi_def_cfa_register 13
 3961              		@ sp needed
 3962 03f4 80BD     		pop	{r7, pc}
 3963              		.cfi_endproc
 3964              	.LFE4867:
 3966 03f6 00BF     		.section	.text.__ll_transp_find_input_index,"ax",%progbits
 3967              		.align	1
 3968              		.syntax unified
 3969              		.thumb
 3970              		.thumb_func
 3972              	__ll_transp_find_input_index:
 3973              	.LFB4868:
 826:Lib/AI_Runtime/Npu/ll_aton/ll_aton_lib_sw_operators.c **** 
 827:Lib/AI_Runtime/Npu/ll_aton/ll_aton_lib_sw_operators.c **** /**
 828:Lib/AI_Runtime/Npu/ll_aton/ll_aton_lib_sw_operators.c ****  * @brief  performs a transpose operation on a (multi-dimensional) matrix
 829:Lib/AI_Runtime/Npu/ll_aton/ll_aton_lib_sw_operators.c ****  * @param  input tensor shape structure
 830:Lib/AI_Runtime/Npu/ll_aton/ll_aton_lib_sw_operators.c ****  * @param  output tensor shape structure
 831:Lib/AI_Runtime/Npu/ll_aton/ll_aton_lib_sw_operators.c ****  * @param  perm permutation to apply
 832:Lib/AI_Runtime/Npu/ll_aton/ll_aton_lib_sw_operators.c ****  * @retval Error code
 833:Lib/AI_Runtime/Npu/ll_aton/ll_aton_lib_sw_operators.c ****  */
 834:Lib/AI_Runtime/Npu/ll_aton/ll_aton_lib_sw_operators.c **** typedef const struct
 835:Lib/AI_Runtime/Npu/ll_aton/ll_aton_lib_sw_operators.c **** {
ARM GAS  /tmp/ccgnzMmM.s 			page 98


 836:Lib/AI_Runtime/Npu/ll_aton/ll_aton_lib_sw_operators.c ****   uint32_t rank;
 837:Lib/AI_Runtime/Npu/ll_aton/ll_aton_lib_sw_operators.c ****   const uint8_t *perm;
 838:Lib/AI_Runtime/Npu/ll_aton/ll_aton_lib_sw_operators.c ****   const uint32_t *in_shape_aton;
 839:Lib/AI_Runtime/Npu/ll_aton/ll_aton_lib_sw_operators.c ****   const uint32_t *in_axis_off;
 840:Lib/AI_Runtime/Npu/ll_aton/ll_aton_lib_sw_operators.c ****   const uint32_t *out_axis_off;
 841:Lib/AI_Runtime/Npu/ll_aton/ll_aton_lib_sw_operators.c ****   const uint8_t byte_size;
 842:Lib/AI_Runtime/Npu/ll_aton/ll_aton_lib_sw_operators.c ****   const int8_t *in_tensor;
 843:Lib/AI_Runtime/Npu/ll_aton/ll_aton_lib_sw_operators.c ****   int8_t *out_tensor;
 844:Lib/AI_Runtime/Npu/ll_aton/ll_aton_lib_sw_operators.c **** } __ll_transp_params_t;
 845:Lib/AI_Runtime/Npu/ll_aton/ll_aton_lib_sw_operators.c **** 
 846:Lib/AI_Runtime/Npu/ll_aton/ll_aton_lib_sw_operators.c **** static inline uint32_t __ll_transp_find_input_index(__ll_stack_lnklst_t *elem, const uint8_t *perm,
 847:Lib/AI_Runtime/Npu/ll_aton/ll_aton_lib_sw_operators.c ****                                                     uint32_t output_axis)
 848:Lib/AI_Runtime/Npu/ll_aton/ll_aton_lib_sw_operators.c **** {
 3974              		.loc 1 848 1
 3975              		.cfi_startproc
 3976              		@ args = 0, pretend = 0, frame = 24
 3977              		@ frame_needed = 1, uses_anonymous_args = 0
 3978 0000 80B5     		push	{r7, lr}
 3979              		.cfi_def_cfa_offset 8
 3980              		.cfi_offset 7, -8
 3981              		.cfi_offset 14, -4
 3982 0002 86B0     		sub	sp, sp, #24
 3983              		.cfi_def_cfa_offset 32
 3984 0004 00AF     		add	r7, sp, #0
 3985              		.cfi_def_cfa_register 7
 3986 0006 F860     		str	r0, [r7, #12]
 3987 0008 B960     		str	r1, [r7, #8]
 3988 000a 7A60     		str	r2, [r7, #4]
 849:Lib/AI_Runtime/Npu/ll_aton/ll_aton_lib_sw_operators.c ****   uint32_t input_axis = (uint32_t)perm[output_axis];
 3989              		.loc 1 849 39
 3990 000c BA68     		ldr	r2, [r7, #8]
 3991 000e 7B68     		ldr	r3, [r7, #4]
 3992 0010 1344     		add	r3, r3, r2
 3993 0012 1B78     		ldrb	r3, [r3]	@ zero_extendqisi2
 3994              		.loc 1 849 12
 3995 0014 7B61     		str	r3, [r7, #20]
 850:Lib/AI_Runtime/Npu/ll_aton/ll_aton_lib_sw_operators.c ****   for (; elem != NULL; elem = elem->back_link)
 3996              		.loc 1 850 3
 3997 0016 0AE0     		b	.L225
 3998              	.L228:
 851:Lib/AI_Runtime/Npu/ll_aton/ll_aton_lib_sw_operators.c ****   {
 852:Lib/AI_Runtime/Npu/ll_aton/ll_aton_lib_sw_operators.c ****     if (elem->axis == input_axis)
 3999              		.loc 1 852 13
 4000 0018 FB68     		ldr	r3, [r7, #12]
 4001 001a 5B68     		ldr	r3, [r3, #4]
 4002              		.loc 1 852 8
 4003 001c 7A69     		ldr	r2, [r7, #20]
 4004 001e 9A42     		cmp	r2, r3
 4005 0020 02D1     		bne	.L226
 853:Lib/AI_Runtime/Npu/ll_aton/ll_aton_lib_sw_operators.c ****     {
 854:Lib/AI_Runtime/Npu/ll_aton/ll_aton_lib_sw_operators.c ****       return elem->index;
 4006              		.loc 1 854 18
 4007 0022 FB68     		ldr	r3, [r7, #12]
 4008 0024 9B68     		ldr	r3, [r3, #8]
 4009 0026 0CE0     		b	.L229
 4010              	.L226:
 850:Lib/AI_Runtime/Npu/ll_aton/ll_aton_lib_sw_operators.c ****   {
ARM GAS  /tmp/ccgnzMmM.s 			page 99


 4011              		.loc 1 850 29
 4012 0028 FB68     		ldr	r3, [r7, #12]
 4013 002a 1B68     		ldr	r3, [r3]
 4014 002c FB60     		str	r3, [r7, #12]
 4015              	.L225:
 850:Lib/AI_Runtime/Npu/ll_aton/ll_aton_lib_sw_operators.c ****   {
 4016              		.loc 1 850 15 discriminator 1
 4017 002e FB68     		ldr	r3, [r7, #12]
 4018 0030 002B     		cmp	r3, #0
 4019 0032 F1D1     		bne	.L228
 855:Lib/AI_Runtime/Npu/ll_aton/ll_aton_lib_sw_operators.c ****     }
 856:Lib/AI_Runtime/Npu/ll_aton/ll_aton_lib_sw_operators.c ****   }
 857:Lib/AI_Runtime/Npu/ll_aton/ll_aton_lib_sw_operators.c ****   LL_ATON_ASSERT(false); // should never be reached
 4020              		.loc 1 857 3
 4021 0034 054B     		ldr	r3, .L230
 4022 0036 064A     		ldr	r2, .L230+4
 4023 0038 40F25931 		movw	r1, #857
 4024 003c 0548     		ldr	r0, .L230+8
 4025 003e FFF7FEFF 		bl	__assert_func
 4026              	.L229:
 858:Lib/AI_Runtime/Npu/ll_aton/ll_aton_lib_sw_operators.c ****   return 0;
 859:Lib/AI_Runtime/Npu/ll_aton/ll_aton_lib_sw_operators.c **** }
 4027              		.loc 1 859 1
 4028 0042 1846     		mov	r0, r3
 4029 0044 1837     		adds	r7, r7, #24
 4030              		.cfi_def_cfa_offset 8
 4031 0046 BD46     		mov	sp, r7
 4032              		.cfi_def_cfa_register 13
 4033              		@ sp needed
 4034 0048 80BD     		pop	{r7, pc}
 4035              	.L231:
 4036 004a 00BF     		.align	2
 4037              	.L230:
 4038 004c C8000000 		.word	.LC5
 4039 0050 00000000 		.word	__func__.17
 4040 0054 24000000 		.word	.LC1
 4041              		.cfi_endproc
 4042              	.LFE4868:
 4044              		.section	.text.__ll_transp_get_output_base_pos,"ax",%progbits
 4045              		.align	1
 4046              		.syntax unified
 4047              		.thumb
 4048              		.thumb_func
 4050              	__ll_transp_get_output_base_pos:
 4051              	.LFB4869:
 860:Lib/AI_Runtime/Npu/ll_aton/ll_aton_lib_sw_operators.c **** 
 861:Lib/AI_Runtime/Npu/ll_aton/ll_aton_lib_sw_operators.c **** static inline int8_t *__ll_transp_get_output_base_pos(uint32_t inner_out_axis,
 862:Lib/AI_Runtime/Npu/ll_aton/ll_aton_lib_sw_operators.c ****                                                       const __ll_transp_params_t *common_params,
 863:Lib/AI_Runtime/Npu/ll_aton/ll_aton_lib_sw_operators.c ****                                                       __ll_stack_lnklst_t *linked_stack_list)
 864:Lib/AI_Runtime/Npu/ll_aton/ll_aton_lib_sw_operators.c **** {
 4052              		.loc 1 864 1
 4053              		.cfi_startproc
 4054              		@ args = 0, pretend = 0, frame = 32
 4055              		@ frame_needed = 1, uses_anonymous_args = 0
 4056 0000 80B5     		push	{r7, lr}
 4057              		.cfi_def_cfa_offset 8
 4058              		.cfi_offset 7, -8
ARM GAS  /tmp/ccgnzMmM.s 			page 100


 4059              		.cfi_offset 14, -4
 4060 0002 88B0     		sub	sp, sp, #32
 4061              		.cfi_def_cfa_offset 40
 4062 0004 00AF     		add	r7, sp, #0
 4063              		.cfi_def_cfa_register 7
 4064 0006 F860     		str	r0, [r7, #12]
 4065 0008 B960     		str	r1, [r7, #8]
 4066 000a 7A60     		str	r2, [r7, #4]
 865:Lib/AI_Runtime/Npu/ll_aton/ll_aton_lib_sw_operators.c ****   LL_ATON_ASSERT(linked_stack_list != NULL);
 4067              		.loc 1 865 3
 4068 000c 7B68     		ldr	r3, [r7, #4]
 4069 000e 002B     		cmp	r3, #0
 4070 0010 06D1     		bne	.L233
 4071              		.loc 1 865 3 is_stmt 0 discriminator 1
 4072 0012 1B4B     		ldr	r3, .L240
 4073 0014 1B4A     		ldr	r2, .L240+4
 4074 0016 40F26131 		movw	r1, #865
 4075 001a 1B48     		ldr	r0, .L240+8
 4076 001c FFF7FEFF 		bl	__assert_func
 4077              	.L233:
 866:Lib/AI_Runtime/Npu/ll_aton/ll_aton_lib_sw_operators.c ****   int8_t *target = common_params->out_tensor;
 4078              		.loc 1 866 11 is_stmt 1
 4079 0020 BB68     		ldr	r3, [r7, #8]
 4080 0022 DB69     		ldr	r3, [r3, #28]
 4081 0024 FB61     		str	r3, [r7, #28]
 4082              	.LBB43:
 867:Lib/AI_Runtime/Npu/ll_aton/ll_aton_lib_sw_operators.c **** 
 868:Lib/AI_Runtime/Npu/ll_aton/ll_aton_lib_sw_operators.c ****   for (uint32_t output_axis = 0; output_axis < common_params->rank; output_axis++)
 4083              		.loc 1 868 17
 4084 0026 0023     		movs	r3, #0
 4085 0028 BB61     		str	r3, [r7, #24]
 4086              		.loc 1 868 3
 4087 002a 1EE0     		b	.L234
 4088              	.L237:
 4089              	.LBB44:
 869:Lib/AI_Runtime/Npu/ll_aton/ll_aton_lib_sw_operators.c ****   {
 870:Lib/AI_Runtime/Npu/ll_aton/ll_aton_lib_sw_operators.c ****     if (output_axis == inner_out_axis)
 4090              		.loc 1 870 8
 4091 002c BA69     		ldr	r2, [r7, #24]
 4092 002e FB68     		ldr	r3, [r7, #12]
 4093 0030 9A42     		cmp	r2, r3
 4094 0032 16D0     		beq	.L239
 871:Lib/AI_Runtime/Npu/ll_aton/ll_aton_lib_sw_operators.c ****       continue;
 872:Lib/AI_Runtime/Npu/ll_aton/ll_aton_lib_sw_operators.c **** 
 873:Lib/AI_Runtime/Npu/ll_aton/ll_aton_lib_sw_operators.c ****     uint32_t axis_size = common_params->out_axis_off[output_axis];
 4095              		.loc 1 873 39
 4096 0034 BB68     		ldr	r3, [r7, #8]
 4097 0036 1A69     		ldr	r2, [r3, #16]
 4098              		.loc 1 873 53
 4099 0038 BB69     		ldr	r3, [r7, #24]
 4100 003a 9B00     		lsls	r3, r3, #2
 4101 003c 1344     		add	r3, r3, r2
 4102              		.loc 1 873 14
 4103 003e 1B68     		ldr	r3, [r3]
 4104 0040 7B61     		str	r3, [r7, #20]
 874:Lib/AI_Runtime/Npu/ll_aton/ll_aton_lib_sw_operators.c ****     uint32_t input_index = __ll_transp_find_input_index(linked_stack_list, common_params->perm, out
 4105              		.loc 1 874 89
ARM GAS  /tmp/ccgnzMmM.s 			page 101


 4106 0042 BB68     		ldr	r3, [r7, #8]
 4107 0044 5B68     		ldr	r3, [r3, #4]
 4108              		.loc 1 874 28
 4109 0046 BA69     		ldr	r2, [r7, #24]
 4110 0048 1946     		mov	r1, r3
 4111 004a 7868     		ldr	r0, [r7, #4]
 4112 004c FFF7FEFF 		bl	__ll_transp_find_input_index
 4113 0050 3861     		str	r0, [r7, #16]
 875:Lib/AI_Runtime/Npu/ll_aton/ll_aton_lib_sw_operators.c ****     target += (input_index * axis_size);
 4114              		.loc 1 875 28
 4115 0052 3B69     		ldr	r3, [r7, #16]
 4116 0054 7A69     		ldr	r2, [r7, #20]
 4117 0056 02FB03F3 		mul	r3, r2, r3
 4118              		.loc 1 875 12
 4119 005a FA69     		ldr	r2, [r7, #28]
 4120 005c 1344     		add	r3, r3, r2
 4121 005e FB61     		str	r3, [r7, #28]
 4122 0060 00E0     		b	.L236
 4123              	.L239:
 871:Lib/AI_Runtime/Npu/ll_aton/ll_aton_lib_sw_operators.c ****       continue;
 4124              		.loc 1 871 7
 4125 0062 00BF     		nop
 4126              	.L236:
 4127              	.LBE44:
 868:Lib/AI_Runtime/Npu/ll_aton/ll_aton_lib_sw_operators.c ****   {
 4128              		.loc 1 868 80 discriminator 2
 4129 0064 BB69     		ldr	r3, [r7, #24]
 4130 0066 0133     		adds	r3, r3, #1
 4131 0068 BB61     		str	r3, [r7, #24]
 4132              	.L234:
 868:Lib/AI_Runtime/Npu/ll_aton/ll_aton_lib_sw_operators.c ****   {
 4133              		.loc 1 868 61 discriminator 1
 4134 006a BB68     		ldr	r3, [r7, #8]
 4135 006c 1B68     		ldr	r3, [r3]
 868:Lib/AI_Runtime/Npu/ll_aton/ll_aton_lib_sw_operators.c ****   {
 4136              		.loc 1 868 46 discriminator 1
 4137 006e BA69     		ldr	r2, [r7, #24]
 4138 0070 9A42     		cmp	r2, r3
 4139 0072 DBD3     		bcc	.L237
 4140              	.LBE43:
 876:Lib/AI_Runtime/Npu/ll_aton/ll_aton_lib_sw_operators.c ****   }
 877:Lib/AI_Runtime/Npu/ll_aton/ll_aton_lib_sw_operators.c **** 
 878:Lib/AI_Runtime/Npu/ll_aton/ll_aton_lib_sw_operators.c ****   return target;
 4141              		.loc 1 878 10
 4142 0074 FB69     		ldr	r3, [r7, #28]
 879:Lib/AI_Runtime/Npu/ll_aton/ll_aton_lib_sw_operators.c **** }
 4143              		.loc 1 879 1
 4144 0076 1846     		mov	r0, r3
 4145 0078 2037     		adds	r7, r7, #32
 4146              		.cfi_def_cfa_offset 8
 4147 007a BD46     		mov	sp, r7
 4148              		.cfi_def_cfa_register 13
 4149              		@ sp needed
 4150 007c 80BD     		pop	{r7, pc}
 4151              	.L241:
 4152 007e 00BF     		.align	2
 4153              	.L240:
ARM GAS  /tmp/ccgnzMmM.s 			page 102


 4154 0080 F4000000 		.word	.LC8
 4155 0084 00000000 		.word	__func__.18
 4156 0088 24000000 		.word	.LC1
 4157              		.cfi_endproc
 4158              	.LFE4869:
 4160              		.section	.rodata
 4161 028a 0000     		.align	2
 4162              	.LC20:
 4163 028c 6C696E6B 		.ascii	"linked_stack_list->axis == (common_params->rank - 1"
 4163      65645F73 
 4163      7461636B 
 4163      5F6C6973 
 4163      742D3E61 
 4164 02bf 2900     		.ascii	")\000"
 4165 02c1 000000   		.align	2
 4166              	.LC21:
 4167 02c4 656C656D 		.ascii	"elem->axis < (common_params->rank - 1)\000"
 4167      2D3E6178 
 4167      6973203C 
 4167      2028636F 
 4167      6D6D6F6E 
 4168              		.section	.text.__ll_transp_get_input_base_pos,"ax",%progbits
 4169              		.align	1
 4170              		.syntax unified
 4171              		.thumb
 4172              		.thumb_func
 4174              	__ll_transp_get_input_base_pos:
 4175              	.LFB4870:
 880:Lib/AI_Runtime/Npu/ll_aton/ll_aton_lib_sw_operators.c **** 
 881:Lib/AI_Runtime/Npu/ll_aton/ll_aton_lib_sw_operators.c **** static int8_t *__ll_transp_get_input_base_pos(const __ll_transp_params_t *common_params,
 882:Lib/AI_Runtime/Npu/ll_aton/ll_aton_lib_sw_operators.c ****                                               __ll_stack_lnklst_t *linked_stack_list)
 883:Lib/AI_Runtime/Npu/ll_aton/ll_aton_lib_sw_operators.c **** {
 4176              		.loc 1 883 1
 4177              		.cfi_startproc
 4178              		@ args = 0, pretend = 0, frame = 24
 4179              		@ frame_needed = 1, uses_anonymous_args = 0
 4180 0000 80B5     		push	{r7, lr}
 4181              		.cfi_def_cfa_offset 8
 4182              		.cfi_offset 7, -8
 4183              		.cfi_offset 14, -4
 4184 0002 86B0     		sub	sp, sp, #24
 4185              		.cfi_def_cfa_offset 32
 4186 0004 00AF     		add	r7, sp, #0
 4187              		.cfi_def_cfa_register 7
 4188 0006 7860     		str	r0, [r7, #4]
 4189 0008 3960     		str	r1, [r7]
 884:Lib/AI_Runtime/Npu/ll_aton/ll_aton_lib_sw_operators.c ****   LL_ATON_ASSERT(linked_stack_list != NULL);
 4190              		.loc 1 884 3
 4191 000a 3B68     		ldr	r3, [r7]
 4192 000c 002B     		cmp	r3, #0
 4193 000e 06D1     		bne	.L243
 4194              		.loc 1 884 3 is_stmt 0 discriminator 1
 4195 0010 224B     		ldr	r3, .L249
 4196 0012 234A     		ldr	r2, .L249+4
 4197 0014 4FF45D71 		mov	r1, #884
 4198 0018 2248     		ldr	r0, .L249+8
 4199 001a FFF7FEFF 		bl	__assert_func
ARM GAS  /tmp/ccgnzMmM.s 			page 103


 4200              	.L243:
 885:Lib/AI_Runtime/Npu/ll_aton/ll_aton_lib_sw_operators.c **** 
 886:Lib/AI_Runtime/Npu/ll_aton/ll_aton_lib_sw_operators.c ****   const int8_t *target = common_params->in_tensor;
 4201              		.loc 1 886 17 is_stmt 1
 4202 001e 7B68     		ldr	r3, [r7, #4]
 4203 0020 9B69     		ldr	r3, [r3, #24]
 4204 0022 7B61     		str	r3, [r7, #20]
 887:Lib/AI_Runtime/Npu/ll_aton/ll_aton_lib_sw_operators.c **** 
 888:Lib/AI_Runtime/Npu/ll_aton/ll_aton_lib_sw_operators.c ****   LL_ATON_ASSERT(linked_stack_list->axis == (common_params->rank - 1));
 4205              		.loc 1 888 3
 4206 0024 3B68     		ldr	r3, [r7]
 4207 0026 5A68     		ldr	r2, [r3, #4]
 4208 0028 7B68     		ldr	r3, [r7, #4]
 4209 002a 1B68     		ldr	r3, [r3]
 4210 002c 013B     		subs	r3, r3, #1
 4211 002e 9A42     		cmp	r2, r3
 4212 0030 06D0     		beq	.L244
 4213              		.loc 1 888 3 is_stmt 0 discriminator 1
 4214 0032 1D4B     		ldr	r3, .L249+12
 4215 0034 1A4A     		ldr	r2, .L249+4
 4216 0036 4FF45E71 		mov	r1, #888
 4217 003a 1A48     		ldr	r0, .L249+8
 4218 003c FFF7FEFF 		bl	__assert_func
 4219              	.L244:
 4220              	.LBB45:
 889:Lib/AI_Runtime/Npu/ll_aton/ll_aton_lib_sw_operators.c **** 
 890:Lib/AI_Runtime/Npu/ll_aton/ll_aton_lib_sw_operators.c ****   for (__ll_stack_lnklst_t *elem = linked_stack_list->back_link; elem != NULL; elem = elem->back_li
 4221              		.loc 1 890 29 is_stmt 1
 4222 0040 3B68     		ldr	r3, [r7]
 4223 0042 1B68     		ldr	r3, [r3]
 4224 0044 3B61     		str	r3, [r7, #16]
 4225              		.loc 1 890 3
 4226 0046 20E0     		b	.L245
 4227              	.L247:
 4228              	.LBB46:
 891:Lib/AI_Runtime/Npu/ll_aton/ll_aton_lib_sw_operators.c ****   {
 892:Lib/AI_Runtime/Npu/ll_aton/ll_aton_lib_sw_operators.c ****     LL_ATON_ASSERT(elem->axis < (common_params->rank - 1));
 4229              		.loc 1 892 5
 4230 0048 3B69     		ldr	r3, [r7, #16]
 4231 004a 5A68     		ldr	r2, [r3, #4]
 4232 004c 7B68     		ldr	r3, [r7, #4]
 4233 004e 1B68     		ldr	r3, [r3]
 4234 0050 013B     		subs	r3, r3, #1
 4235 0052 9A42     		cmp	r2, r3
 4236 0054 06D3     		bcc	.L246
 4237              		.loc 1 892 5 is_stmt 0 discriminator 1
 4238 0056 154B     		ldr	r3, .L249+16
 4239 0058 114A     		ldr	r2, .L249+4
 4240 005a 4FF45F71 		mov	r1, #892
 4241 005e 1148     		ldr	r0, .L249+8
 4242 0060 FFF7FEFF 		bl	__assert_func
 4243              	.L246:
 893:Lib/AI_Runtime/Npu/ll_aton/ll_aton_lib_sw_operators.c ****     uint32_t axis_size = common_params->in_axis_off[elem->axis];
 4244              		.loc 1 893 39 is_stmt 1
 4245 0064 7B68     		ldr	r3, [r7, #4]
 4246 0066 DA68     		ldr	r2, [r3, #12]
 4247              		.loc 1 893 57
ARM GAS  /tmp/ccgnzMmM.s 			page 104


 4248 0068 3B69     		ldr	r3, [r7, #16]
 4249 006a 5B68     		ldr	r3, [r3, #4]
 4250              		.loc 1 893 52
 4251 006c 9B00     		lsls	r3, r3, #2
 4252 006e 1344     		add	r3, r3, r2
 4253              		.loc 1 893 14
 4254 0070 1B68     		ldr	r3, [r3]
 4255 0072 FB60     		str	r3, [r7, #12]
 894:Lib/AI_Runtime/Npu/ll_aton/ll_aton_lib_sw_operators.c ****     target += (elem->index * axis_size);
 4256              		.loc 1 894 20
 4257 0074 3B69     		ldr	r3, [r7, #16]
 4258 0076 9B68     		ldr	r3, [r3, #8]
 4259              		.loc 1 894 28
 4260 0078 FA68     		ldr	r2, [r7, #12]
 4261 007a 02FB03F3 		mul	r3, r2, r3
 4262              		.loc 1 894 12
 4263 007e 7A69     		ldr	r2, [r7, #20]
 4264 0080 1344     		add	r3, r3, r2
 4265 0082 7B61     		str	r3, [r7, #20]
 4266              	.LBE46:
 890:Lib/AI_Runtime/Npu/ll_aton/ll_aton_lib_sw_operators.c ****   {
 4267              		.loc 1 890 85 discriminator 2
 4268 0084 3B69     		ldr	r3, [r7, #16]
 4269 0086 1B68     		ldr	r3, [r3]
 4270 0088 3B61     		str	r3, [r7, #16]
 4271              	.L245:
 890:Lib/AI_Runtime/Npu/ll_aton/ll_aton_lib_sw_operators.c ****   {
 4272              		.loc 1 890 71 discriminator 1
 4273 008a 3B69     		ldr	r3, [r7, #16]
 4274 008c 002B     		cmp	r3, #0
 4275 008e DBD1     		bne	.L247
 4276              	.LBE45:
 895:Lib/AI_Runtime/Npu/ll_aton/ll_aton_lib_sw_operators.c ****   }
 896:Lib/AI_Runtime/Npu/ll_aton/ll_aton_lib_sw_operators.c **** 
 897:Lib/AI_Runtime/Npu/ll_aton/ll_aton_lib_sw_operators.c ****   return (int8_t *)target;
 4277              		.loc 1 897 10
 4278 0090 7B69     		ldr	r3, [r7, #20]
 898:Lib/AI_Runtime/Npu/ll_aton/ll_aton_lib_sw_operators.c **** }
 4279              		.loc 1 898 1
 4280 0092 1846     		mov	r0, r3
 4281 0094 1837     		adds	r7, r7, #24
 4282              		.cfi_def_cfa_offset 8
 4283 0096 BD46     		mov	sp, r7
 4284              		.cfi_def_cfa_register 13
 4285              		@ sp needed
 4286 0098 80BD     		pop	{r7, pc}
 4287              	.L250:
 4288 009a 00BF     		.align	2
 4289              	.L249:
 4290 009c F4000000 		.word	.LC8
 4291 00a0 00000000 		.word	__func__.20
 4292 00a4 24000000 		.word	.LC1
 4293 00a8 8C020000 		.word	.LC20
 4294 00ac C4020000 		.word	.LC21
 4295              		.cfi_endproc
 4296              	.LFE4870:
 4298              		.section	.rodata
ARM GAS  /tmp/ccgnzMmM.s 			page 105


 4299 02eb 00       		.align	2
 4300              	.LC22:
 4301 02ec 63757272 		.ascii	"curr_in_axis == (common_params->rank - 1)\000"
 4301      5F696E5F 
 4301      61786973 
 4301      203D3D20 
 4301      28636F6D 
 4302              		.section	.text.__ll_aton_lib_transpose,"ax",%progbits
 4303              		.align	1
 4304              		.syntax unified
 4305              		.thumb
 4306              		.thumb_func
 4308              	__ll_aton_lib_transpose:
 4309              	.LFB4871:
 899:Lib/AI_Runtime/Npu/ll_aton/ll_aton_lib_sw_operators.c **** 
 900:Lib/AI_Runtime/Npu/ll_aton/ll_aton_lib_sw_operators.c **** static void __ll_aton_lib_transpose(uint32_t curr_in_axis, uint32_t inner_out_axis, __ll_stack_lnkl
 901:Lib/AI_Runtime/Npu/ll_aton/ll_aton_lib_sw_operators.c ****                                     const __ll_transp_params_t *common_params)
 902:Lib/AI_Runtime/Npu/ll_aton/ll_aton_lib_sw_operators.c **** {
 4310              		.loc 1 902 1
 4311              		.cfi_startproc
 4312              		@ args = 0, pretend = 0, frame = 72
 4313              		@ frame_needed = 1, uses_anonymous_args = 0
 4314 0000 80B5     		push	{r7, lr}
 4315              		.cfi_def_cfa_offset 8
 4316              		.cfi_offset 7, -8
 4317              		.cfi_offset 14, -4
 4318 0002 92B0     		sub	sp, sp, #72
 4319              		.cfi_def_cfa_offset 80
 4320 0004 00AF     		add	r7, sp, #0
 4321              		.cfi_def_cfa_register 7
 4322 0006 F860     		str	r0, [r7, #12]
 4323 0008 B960     		str	r1, [r7, #8]
 4324 000a 7A60     		str	r2, [r7, #4]
 4325 000c 3B60     		str	r3, [r7]
 903:Lib/AI_Runtime/Npu/ll_aton/ll_aton_lib_sw_operators.c ****   __ll_stack_lnklst_t linked_stack_list = {.back_link = back_link, .axis = curr_in_axis, .index = 0
 4326              		.loc 1 903 23
 4327 000e 7B68     		ldr	r3, [r7, #4]
 4328 0010 7B61     		str	r3, [r7, #20]
 4329 0012 FB68     		ldr	r3, [r7, #12]
 4330 0014 BB61     		str	r3, [r7, #24]
 4331 0016 0023     		movs	r3, #0
 4332 0018 FB61     		str	r3, [r7, #28]
 904:Lib/AI_Runtime/Npu/ll_aton/ll_aton_lib_sw_operators.c **** 
 905:Lib/AI_Runtime/Npu/ll_aton/ll_aton_lib_sw_operators.c ****   if (curr_in_axis < (common_params->rank - 1))
 4333              		.loc 1 905 36
 4334 001a 3B68     		ldr	r3, [r7]
 4335 001c 1B68     		ldr	r3, [r3]
 4336              		.loc 1 905 43
 4337 001e 013B     		subs	r3, r3, #1
 4338              		.loc 1 905 6
 4339 0020 FA68     		ldr	r2, [r7, #12]
 4340 0022 9A42     		cmp	r2, r3
 4341 0024 15D2     		bcs	.L252
 906:Lib/AI_Runtime/Npu/ll_aton/ll_aton_lib_sw_operators.c ****   { // intermediate axis
 907:Lib/AI_Runtime/Npu/ll_aton/ll_aton_lib_sw_operators.c ****     for (; linked_stack_list.index < common_params->in_shape_aton[linked_stack_list.axis]; linked_s
 4342              		.loc 1 907 5
 4343 0026 0AE0     		b	.L253
ARM GAS  /tmp/ccgnzMmM.s 			page 106


 4344              	.L254:
 908:Lib/AI_Runtime/Npu/ll_aton/ll_aton_lib_sw_operators.c ****     {
 909:Lib/AI_Runtime/Npu/ll_aton/ll_aton_lib_sw_operators.c ****       __ll_aton_lib_transpose(curr_in_axis + 1, inner_out_axis, &linked_stack_list, common_params);
 4345              		.loc 1 909 7
 4346 0028 FB68     		ldr	r3, [r7, #12]
 4347 002a 581C     		adds	r0, r3, #1
 4348 002c 07F11402 		add	r2, r7, #20
 4349 0030 3B68     		ldr	r3, [r7]
 4350 0032 B968     		ldr	r1, [r7, #8]
 4351 0034 FFF7E4FF 		bl	__ll_aton_lib_transpose
 907:Lib/AI_Runtime/Npu/ll_aton/ll_aton_lib_sw_operators.c ****     {
 4352              		.loc 1 907 109 discriminator 2
 4353 0038 FB69     		ldr	r3, [r7, #28]
 907:Lib/AI_Runtime/Npu/ll_aton/ll_aton_lib_sw_operators.c ****     {
 4354              		.loc 1 907 115 discriminator 2
 4355 003a 0133     		adds	r3, r3, #1
 4356 003c FB61     		str	r3, [r7, #28]
 4357              	.L253:
 907:Lib/AI_Runtime/Npu/ll_aton/ll_aton_lib_sw_operators.c ****     {
 4358              		.loc 1 907 29 discriminator 1
 4359 003e FA69     		ldr	r2, [r7, #28]
 907:Lib/AI_Runtime/Npu/ll_aton/ll_aton_lib_sw_operators.c ****     {
 4360              		.loc 1 907 51 discriminator 1
 4361 0040 3B68     		ldr	r3, [r7]
 4362 0042 9968     		ldr	r1, [r3, #8]
 907:Lib/AI_Runtime/Npu/ll_aton/ll_aton_lib_sw_operators.c ****     {
 4363              		.loc 1 907 84 discriminator 1
 4364 0044 BB69     		ldr	r3, [r7, #24]
 907:Lib/AI_Runtime/Npu/ll_aton/ll_aton_lib_sw_operators.c ****     {
 4365              		.loc 1 907 66 discriminator 1
 4366 0046 9B00     		lsls	r3, r3, #2
 4367 0048 0B44     		add	r3, r3, r1
 4368 004a 1B68     		ldr	r3, [r3]
 907:Lib/AI_Runtime/Npu/ll_aton/ll_aton_lib_sw_operators.c ****     {
 4369              		.loc 1 907 36 discriminator 1
 4370 004c 9A42     		cmp	r2, r3
 4371 004e EBD3     		bcc	.L254
 910:Lib/AI_Runtime/Npu/ll_aton/ll_aton_lib_sw_operators.c ****     }
 911:Lib/AI_Runtime/Npu/ll_aton/ll_aton_lib_sw_operators.c ****   }
 912:Lib/AI_Runtime/Npu/ll_aton/ll_aton_lib_sw_operators.c ****   else
 913:Lib/AI_Runtime/Npu/ll_aton/ll_aton_lib_sw_operators.c ****   { // last axis
 914:Lib/AI_Runtime/Npu/ll_aton/ll_aton_lib_sw_operators.c ****     LL_ATON_ASSERT(curr_in_axis == (common_params->rank - 1));
 915:Lib/AI_Runtime/Npu/ll_aton/ll_aton_lib_sw_operators.c **** 
 916:Lib/AI_Runtime/Npu/ll_aton/ll_aton_lib_sw_operators.c ****     /* Calculate input/output base positions */
 917:Lib/AI_Runtime/Npu/ll_aton/ll_aton_lib_sw_operators.c ****     int8_t *base_out_target = __ll_transp_get_output_base_pos(inner_out_axis, common_params, &linke
 918:Lib/AI_Runtime/Npu/ll_aton/ll_aton_lib_sw_operators.c ****     int8_t *base_in_target = __ll_transp_get_input_base_pos(common_params, &linked_stack_list);
 919:Lib/AI_Runtime/Npu/ll_aton/ll_aton_lib_sw_operators.c ****     uint32_t out_axes_offset = common_params->out_axis_off[inner_out_axis];
 920:Lib/AI_Runtime/Npu/ll_aton/ll_aton_lib_sw_operators.c **** 
 921:Lib/AI_Runtime/Npu/ll_aton/ll_aton_lib_sw_operators.c ****     const uint32_t end_index = common_params->in_shape_aton[(common_params->rank - 1)];
 922:Lib/AI_Runtime/Npu/ll_aton/ll_aton_lib_sw_operators.c ****     const uint8_t byte_size = common_params->byte_size;
 923:Lib/AI_Runtime/Npu/ll_aton/ll_aton_lib_sw_operators.c **** 
 924:Lib/AI_Runtime/Npu/ll_aton/ll_aton_lib_sw_operators.c ****     if (byte_size != out_axes_offset)
 925:Lib/AI_Runtime/Npu/ll_aton/ll_aton_lib_sw_operators.c ****     {
 926:Lib/AI_Runtime/Npu/ll_aton/ll_aton_lib_sw_operators.c ****       for (; linked_stack_list.index < end_index; linked_stack_list.index++)
 927:Lib/AI_Runtime/Npu/ll_aton/ll_aton_lib_sw_operators.c ****       {
 928:Lib/AI_Runtime/Npu/ll_aton/ll_aton_lib_sw_operators.c ****         /* determine input/output position */
 929:Lib/AI_Runtime/Npu/ll_aton/ll_aton_lib_sw_operators.c ****         int8_t *in_target = base_in_target + (linked_stack_list.index * byte_size);
ARM GAS  /tmp/ccgnzMmM.s 			page 107


 930:Lib/AI_Runtime/Npu/ll_aton/ll_aton_lib_sw_operators.c ****         int8_t *out_target = base_out_target + (linked_stack_list.index * out_axes_offset);
 931:Lib/AI_Runtime/Npu/ll_aton/ll_aton_lib_sw_operators.c **** 
 932:Lib/AI_Runtime/Npu/ll_aton/ll_aton_lib_sw_operators.c ****         __ll_aton_lib_copy_element(byte_size, linked_stack_list.index, out_target, in_target);
 933:Lib/AI_Runtime/Npu/ll_aton/ll_aton_lib_sw_operators.c ****       }
 934:Lib/AI_Runtime/Npu/ll_aton/ll_aton_lib_sw_operators.c ****     }
 935:Lib/AI_Runtime/Npu/ll_aton/ll_aton_lib_sw_operators.c ****     else
 936:Lib/AI_Runtime/Npu/ll_aton/ll_aton_lib_sw_operators.c ****     {
 937:Lib/AI_Runtime/Npu/ll_aton/ll_aton_lib_sw_operators.c ****       uint32_t size_in_bytes = (end_index - linked_stack_list.index) * byte_size; // `byte_size == 
 938:Lib/AI_Runtime/Npu/ll_aton/ll_aton_lib_sw_operators.c **** 
 939:Lib/AI_Runtime/Npu/ll_aton/ll_aton_lib_sw_operators.c ****       int8_t *in_target = base_in_target + (linked_stack_list.index * byte_size);
 940:Lib/AI_Runtime/Npu/ll_aton/ll_aton_lib_sw_operators.c ****       int8_t *out_target =
 941:Lib/AI_Runtime/Npu/ll_aton/ll_aton_lib_sw_operators.c ****           base_out_target + (linked_stack_list.index * out_axes_offset); // `byte_size == out_axes_
 942:Lib/AI_Runtime/Npu/ll_aton/ll_aton_lib_sw_operators.c **** 
 943:Lib/AI_Runtime/Npu/ll_aton/ll_aton_lib_sw_operators.c ****       memcpy(out_target, in_target, size_in_bytes);
 944:Lib/AI_Runtime/Npu/ll_aton/ll_aton_lib_sw_operators.c ****     }
 945:Lib/AI_Runtime/Npu/ll_aton/ll_aton_lib_sw_operators.c ****   }
 946:Lib/AI_Runtime/Npu/ll_aton/ll_aton_lib_sw_operators.c **** }
 4372              		.loc 1 946 1
 4373 0050 72E0     		b	.L260
 4374              	.L252:
 4375              	.LBB47:
 914:Lib/AI_Runtime/Npu/ll_aton/ll_aton_lib_sw_operators.c **** 
 4376              		.loc 1 914 5
 4377 0052 3B68     		ldr	r3, [r7]
 4378 0054 1B68     		ldr	r3, [r3]
 4379 0056 013B     		subs	r3, r3, #1
 4380 0058 FA68     		ldr	r2, [r7, #12]
 4381 005a 9A42     		cmp	r2, r3
 4382 005c 06D0     		beq	.L256
 914:Lib/AI_Runtime/Npu/ll_aton/ll_aton_lib_sw_operators.c **** 
 4383              		.loc 1 914 5 is_stmt 0 discriminator 1
 4384 005e 384B     		ldr	r3, .L261
 4385 0060 384A     		ldr	r2, .L261+4
 4386 0062 40F29231 		movw	r1, #914
 4387 0066 3848     		ldr	r0, .L261+8
 4388 0068 FFF7FEFF 		bl	__assert_func
 4389              	.L256:
 917:Lib/AI_Runtime/Npu/ll_aton/ll_aton_lib_sw_operators.c ****     int8_t *base_in_target = __ll_transp_get_input_base_pos(common_params, &linked_stack_list);
 4390              		.loc 1 917 31 is_stmt 1
 4391 006c 07F11403 		add	r3, r7, #20
 4392 0070 1A46     		mov	r2, r3
 4393 0072 3968     		ldr	r1, [r7]
 4394 0074 B868     		ldr	r0, [r7, #8]
 4395 0076 FFF7FEFF 		bl	__ll_transp_get_output_base_pos
 4396 007a 7864     		str	r0, [r7, #68]
 918:Lib/AI_Runtime/Npu/ll_aton/ll_aton_lib_sw_operators.c ****     uint32_t out_axes_offset = common_params->out_axis_off[inner_out_axis];
 4397              		.loc 1 918 30
 4398 007c 07F11403 		add	r3, r7, #20
 4399 0080 1946     		mov	r1, r3
 4400 0082 3868     		ldr	r0, [r7]
 4401 0084 FFF7FEFF 		bl	__ll_transp_get_input_base_pos
 4402 0088 3864     		str	r0, [r7, #64]
 919:Lib/AI_Runtime/Npu/ll_aton/ll_aton_lib_sw_operators.c **** 
 4403              		.loc 1 919 45
 4404 008a 3B68     		ldr	r3, [r7]
 4405 008c 1A69     		ldr	r2, [r3, #16]
 919:Lib/AI_Runtime/Npu/ll_aton/ll_aton_lib_sw_operators.c **** 
ARM GAS  /tmp/ccgnzMmM.s 			page 108


 4406              		.loc 1 919 59
 4407 008e BB68     		ldr	r3, [r7, #8]
 4408 0090 9B00     		lsls	r3, r3, #2
 4409 0092 1344     		add	r3, r3, r2
 919:Lib/AI_Runtime/Npu/ll_aton/ll_aton_lib_sw_operators.c **** 
 4410              		.loc 1 919 14
 4411 0094 1B68     		ldr	r3, [r3]
 4412 0096 FB63     		str	r3, [r7, #60]
 921:Lib/AI_Runtime/Npu/ll_aton/ll_aton_lib_sw_operators.c ****     const uint8_t byte_size = common_params->byte_size;
 4413              		.loc 1 921 45
 4414 0098 3B68     		ldr	r3, [r7]
 4415 009a 9A68     		ldr	r2, [r3, #8]
 921:Lib/AI_Runtime/Npu/ll_aton/ll_aton_lib_sw_operators.c ****     const uint8_t byte_size = common_params->byte_size;
 4416              		.loc 1 921 75
 4417 009c 3B68     		ldr	r3, [r7]
 4418 009e 1B68     		ldr	r3, [r3]
 921:Lib/AI_Runtime/Npu/ll_aton/ll_aton_lib_sw_operators.c ****     const uint8_t byte_size = common_params->byte_size;
 4419              		.loc 1 921 60
 4420 00a0 03F18043 		add	r3, r3, #1073741824
 4421 00a4 013B     		subs	r3, r3, #1
 4422 00a6 9B00     		lsls	r3, r3, #2
 4423 00a8 1344     		add	r3, r3, r2
 921:Lib/AI_Runtime/Npu/ll_aton/ll_aton_lib_sw_operators.c ****     const uint8_t byte_size = common_params->byte_size;
 4424              		.loc 1 921 20
 4425 00aa 1B68     		ldr	r3, [r3]
 4426 00ac BB63     		str	r3, [r7, #56]
 922:Lib/AI_Runtime/Npu/ll_aton/ll_aton_lib_sw_operators.c **** 
 4427              		.loc 1 922 19
 4428 00ae 3B68     		ldr	r3, [r7]
 4429 00b0 1B7D     		ldrb	r3, [r3, #20]
 4430 00b2 87F83730 		strb	r3, [r7, #55]
 924:Lib/AI_Runtime/Npu/ll_aton/ll_aton_lib_sw_operators.c ****     {
 4431              		.loc 1 924 19
 4432 00b6 97F83730 		ldrb	r3, [r7, #55]	@ zero_extendqisi2
 924:Lib/AI_Runtime/Npu/ll_aton/ll_aton_lib_sw_operators.c ****     {
 4433              		.loc 1 924 8
 4434 00ba FA6B     		ldr	r2, [r7, #60]
 4435 00bc 9A42     		cmp	r2, r3
 4436 00be 1FD0     		beq	.L257
 926:Lib/AI_Runtime/Npu/ll_aton/ll_aton_lib_sw_operators.c ****       {
 4437              		.loc 1 926 7
 4438 00c0 19E0     		b	.L258
 4439              	.L259:
 4440              	.LBB48:
 929:Lib/AI_Runtime/Npu/ll_aton/ll_aton_lib_sw_operators.c ****         int8_t *out_target = base_out_target + (linked_stack_list.index * out_axes_offset);
 4441              		.loc 1 929 64
 4442 00c2 FB69     		ldr	r3, [r7, #28]
 929:Lib/AI_Runtime/Npu/ll_aton/ll_aton_lib_sw_operators.c ****         int8_t *out_target = base_out_target + (linked_stack_list.index * out_axes_offset);
 4443              		.loc 1 929 71
 4444 00c4 97F83720 		ldrb	r2, [r7, #55]	@ zero_extendqisi2
 4445 00c8 02FB03F3 		mul	r3, r2, r3
 929:Lib/AI_Runtime/Npu/ll_aton/ll_aton_lib_sw_operators.c ****         int8_t *out_target = base_out_target + (linked_stack_list.index * out_axes_offset);
 4446              		.loc 1 929 17
 4447 00cc 3A6C     		ldr	r2, [r7, #64]
 4448 00ce 1344     		add	r3, r3, r2
 4449 00d0 7B62     		str	r3, [r7, #36]
 930:Lib/AI_Runtime/Npu/ll_aton/ll_aton_lib_sw_operators.c **** 
ARM GAS  /tmp/ccgnzMmM.s 			page 109


 4450              		.loc 1 930 66
 4451 00d2 FB69     		ldr	r3, [r7, #28]
 930:Lib/AI_Runtime/Npu/ll_aton/ll_aton_lib_sw_operators.c **** 
 4452              		.loc 1 930 73
 4453 00d4 FA6B     		ldr	r2, [r7, #60]
 4454 00d6 02FB03F3 		mul	r3, r2, r3
 930:Lib/AI_Runtime/Npu/ll_aton/ll_aton_lib_sw_operators.c **** 
 4455              		.loc 1 930 17
 4456 00da 7A6C     		ldr	r2, [r7, #68]
 4457 00dc 1344     		add	r3, r3, r2
 4458 00de 3B62     		str	r3, [r7, #32]
 932:Lib/AI_Runtime/Npu/ll_aton/ll_aton_lib_sw_operators.c ****       }
 4459              		.loc 1 932 64
 4460 00e0 FB69     		ldr	r3, [r7, #28]
 932:Lib/AI_Runtime/Npu/ll_aton/ll_aton_lib_sw_operators.c ****       }
 4461              		.loc 1 932 9
 4462 00e2 1946     		mov	r1, r3
 4463 00e4 97F83700 		ldrb	r0, [r7, #55]	@ zero_extendqisi2
 4464 00e8 7B6A     		ldr	r3, [r7, #36]
 4465 00ea 3A6A     		ldr	r2, [r7, #32]
 4466 00ec FFF7FEFF 		bl	__ll_aton_lib_copy_element
 4467              	.LBE48:
 926:Lib/AI_Runtime/Npu/ll_aton/ll_aton_lib_sw_operators.c ****       {
 4468              		.loc 1 926 68 discriminator 2
 4469 00f0 FB69     		ldr	r3, [r7, #28]
 926:Lib/AI_Runtime/Npu/ll_aton/ll_aton_lib_sw_operators.c ****       {
 4470              		.loc 1 926 74 discriminator 2
 4471 00f2 0133     		adds	r3, r3, #1
 4472 00f4 FB61     		str	r3, [r7, #28]
 4473              	.L258:
 926:Lib/AI_Runtime/Npu/ll_aton/ll_aton_lib_sw_operators.c ****       {
 4474              		.loc 1 926 31 discriminator 1
 4475 00f6 FB69     		ldr	r3, [r7, #28]
 926:Lib/AI_Runtime/Npu/ll_aton/ll_aton_lib_sw_operators.c ****       {
 4476              		.loc 1 926 38 discriminator 1
 4477 00f8 BA6B     		ldr	r2, [r7, #56]
 4478 00fa 9A42     		cmp	r2, r3
 4479 00fc E1D8     		bhi	.L259
 4480              	.LBE47:
 4481              		.loc 1 946 1
 4482 00fe 1BE0     		b	.L260
 4483              	.L257:
 4484              	.LBB50:
 4485              	.LBB49:
 937:Lib/AI_Runtime/Npu/ll_aton/ll_aton_lib_sw_operators.c **** 
 4486              		.loc 1 937 62
 4487 0100 FB69     		ldr	r3, [r7, #28]
 937:Lib/AI_Runtime/Npu/ll_aton/ll_aton_lib_sw_operators.c **** 
 4488              		.loc 1 937 43
 4489 0102 BA6B     		ldr	r2, [r7, #56]
 4490 0104 D31A     		subs	r3, r2, r3
 937:Lib/AI_Runtime/Npu/ll_aton/ll_aton_lib_sw_operators.c **** 
 4491              		.loc 1 937 70
 4492 0106 97F83720 		ldrb	r2, [r7, #55]	@ zero_extendqisi2
 937:Lib/AI_Runtime/Npu/ll_aton/ll_aton_lib_sw_operators.c **** 
 4493              		.loc 1 937 16
 4494 010a 02FB03F3 		mul	r3, r2, r3
ARM GAS  /tmp/ccgnzMmM.s 			page 110


 4495 010e 3B63     		str	r3, [r7, #48]
 939:Lib/AI_Runtime/Npu/ll_aton/ll_aton_lib_sw_operators.c ****       int8_t *out_target =
 4496              		.loc 1 939 62
 4497 0110 FB69     		ldr	r3, [r7, #28]
 939:Lib/AI_Runtime/Npu/ll_aton/ll_aton_lib_sw_operators.c ****       int8_t *out_target =
 4498              		.loc 1 939 69
 4499 0112 97F83720 		ldrb	r2, [r7, #55]	@ zero_extendqisi2
 4500 0116 02FB03F3 		mul	r3, r2, r3
 939:Lib/AI_Runtime/Npu/ll_aton/ll_aton_lib_sw_operators.c ****       int8_t *out_target =
 4501              		.loc 1 939 15
 4502 011a 3A6C     		ldr	r2, [r7, #64]
 4503 011c 1344     		add	r3, r3, r2
 4504 011e FB62     		str	r3, [r7, #44]
 941:Lib/AI_Runtime/Npu/ll_aton/ll_aton_lib_sw_operators.c **** 
 4505              		.loc 1 941 47
 4506 0120 FB69     		ldr	r3, [r7, #28]
 941:Lib/AI_Runtime/Npu/ll_aton/ll_aton_lib_sw_operators.c **** 
 4507              		.loc 1 941 54
 4508 0122 FA6B     		ldr	r2, [r7, #60]
 4509 0124 02FB03F3 		mul	r3, r2, r3
 940:Lib/AI_Runtime/Npu/ll_aton/ll_aton_lib_sw_operators.c ****           base_out_target + (linked_stack_list.index * out_axes_offset); // `byte_size == out_axes_
 4510              		.loc 1 940 15
 4511 0128 7A6C     		ldr	r2, [r7, #68]
 4512 012a 1344     		add	r3, r3, r2
 4513 012c BB62     		str	r3, [r7, #40]
 943:Lib/AI_Runtime/Npu/ll_aton/ll_aton_lib_sw_operators.c ****     }
 4514              		.loc 1 943 7
 4515 012e 3A6B     		ldr	r2, [r7, #48]
 4516 0130 F96A     		ldr	r1, [r7, #44]
 4517 0132 B86A     		ldr	r0, [r7, #40]
 4518 0134 FFF7FEFF 		bl	memcpy
 4519              	.L260:
 4520              	.LBE49:
 4521              	.LBE50:
 4522              		.loc 1 946 1
 4523 0138 00BF     		nop
 4524 013a 4837     		adds	r7, r7, #72
 4525              		.cfi_def_cfa_offset 8
 4526 013c BD46     		mov	sp, r7
 4527              		.cfi_def_cfa_register 13
 4528              		@ sp needed
 4529 013e 80BD     		pop	{r7, pc}
 4530              	.L262:
 4531              		.align	2
 4532              	.L261:
 4533 0140 EC020000 		.word	.LC22
 4534 0144 00000000 		.word	__func__.19
 4535 0148 24000000 		.word	.LC1
 4536              		.cfi_endproc
 4537              	.LFE4871:
 4539              		.section	.text.__ll_transp_find_input_index_3or4,"ax",%progbits
 4540              		.align	1
 4541              		.syntax unified
 4542              		.thumb
 4543              		.thumb_func
 4545              	__ll_transp_find_input_index_3or4:
 4546              	.LFB4872:
ARM GAS  /tmp/ccgnzMmM.s 			page 111


 947:Lib/AI_Runtime/Npu/ll_aton/ll_aton_lib_sw_operators.c **** 
 948:Lib/AI_Runtime/Npu/ll_aton/ll_aton_lib_sw_operators.c **** static inline uint32_t __ll_transp_find_input_index_3or4(uint32_t *indexes, const uint8_t *perm, ui
 949:Lib/AI_Runtime/Npu/ll_aton/ll_aton_lib_sw_operators.c **** {
 4547              		.loc 1 949 1
 4548              		.cfi_startproc
 4549              		@ args = 0, pretend = 0, frame = 24
 4550              		@ frame_needed = 1, uses_anonymous_args = 0
 4551              		@ link register save eliminated.
 4552 0000 80B4     		push	{r7}
 4553              		.cfi_def_cfa_offset 4
 4554              		.cfi_offset 7, -4
 4555 0002 87B0     		sub	sp, sp, #28
 4556              		.cfi_def_cfa_offset 32
 4557 0004 00AF     		add	r7, sp, #0
 4558              		.cfi_def_cfa_register 7
 4559 0006 F860     		str	r0, [r7, #12]
 4560 0008 B960     		str	r1, [r7, #8]
 4561 000a 7A60     		str	r2, [r7, #4]
 950:Lib/AI_Runtime/Npu/ll_aton/ll_aton_lib_sw_operators.c ****   uint32_t input_axis = (uint32_t)perm[output_axis];
 4562              		.loc 1 950 39
 4563 000c BA68     		ldr	r2, [r7, #8]
 4564 000e 7B68     		ldr	r3, [r7, #4]
 4565 0010 1344     		add	r3, r3, r2
 4566 0012 1B78     		ldrb	r3, [r3]	@ zero_extendqisi2
 4567              		.loc 1 950 12
 4568 0014 7B61     		str	r3, [r7, #20]
 951:Lib/AI_Runtime/Npu/ll_aton/ll_aton_lib_sw_operators.c ****   return indexes[input_axis];
 4569              		.loc 1 951 17
 4570 0016 7B69     		ldr	r3, [r7, #20]
 4571 0018 9B00     		lsls	r3, r3, #2
 4572 001a FA68     		ldr	r2, [r7, #12]
 4573 001c 1344     		add	r3, r3, r2
 4574 001e 1B68     		ldr	r3, [r3]
 952:Lib/AI_Runtime/Npu/ll_aton/ll_aton_lib_sw_operators.c **** }
 4575              		.loc 1 952 1
 4576 0020 1846     		mov	r0, r3
 4577 0022 1C37     		adds	r7, r7, #28
 4578              		.cfi_def_cfa_offset 4
 4579 0024 BD46     		mov	sp, r7
 4580              		.cfi_def_cfa_register 13
 4581              		@ sp needed
 4582 0026 5DF8047B 		ldr	r7, [sp], #4
 4583              		.cfi_restore 7
 4584              		.cfi_def_cfa_offset 0
 4585 002a 7047     		bx	lr
 4586              		.cfi_endproc
 4587              	.LFE4872:
 4589              		.section	.rodata
 4590 0316 0000     		.align	2
 4591              	.LC23:
 4592 0318 2875696E 		.ascii	"(uint32_t)common_params->perm[output_axis] < (commo"
 4592      7433325F 
 4592      7429636F 
 4592      6D6D6F6E 
 4592      5F706172 
 4593 034b 6E5F7061 		.ascii	"n_params->rank - 1)\000"
 4593      72616D73 
ARM GAS  /tmp/ccgnzMmM.s 			page 112


 4593      2D3E7261 
 4593      6E6B202D 
 4593      20312900 
 4594              		.section	.text.__ll_transp_get_output_base_pos_3or4,"ax",%progbits
 4595              		.align	1
 4596              		.syntax unified
 4597              		.thumb
 4598              		.thumb_func
 4600              	__ll_transp_get_output_base_pos_3or4:
 4601              	.LFB4873:
 953:Lib/AI_Runtime/Npu/ll_aton/ll_aton_lib_sw_operators.c **** 
 954:Lib/AI_Runtime/Npu/ll_aton/ll_aton_lib_sw_operators.c **** static inline int8_t *__ll_transp_get_output_base_pos_3or4(uint32_t inner_out_axis,
 955:Lib/AI_Runtime/Npu/ll_aton/ll_aton_lib_sw_operators.c ****                                                            const __ll_transp_params_t *common_param
 956:Lib/AI_Runtime/Npu/ll_aton/ll_aton_lib_sw_operators.c **** {
 4602              		.loc 1 956 1
 4603              		.cfi_startproc
 4604              		@ args = 0, pretend = 0, frame = 32
 4605              		@ frame_needed = 1, uses_anonymous_args = 0
 4606 0000 80B5     		push	{r7, lr}
 4607              		.cfi_def_cfa_offset 8
 4608              		.cfi_offset 7, -8
 4609              		.cfi_offset 14, -4
 4610 0002 88B0     		sub	sp, sp, #32
 4611              		.cfi_def_cfa_offset 40
 4612 0004 00AF     		add	r7, sp, #0
 4613              		.cfi_def_cfa_register 7
 4614 0006 F860     		str	r0, [r7, #12]
 4615 0008 B960     		str	r1, [r7, #8]
 4616 000a 7A60     		str	r2, [r7, #4]
 957:Lib/AI_Runtime/Npu/ll_aton/ll_aton_lib_sw_operators.c ****   int8_t *target = common_params->out_tensor;
 4617              		.loc 1 957 11
 4618 000c BB68     		ldr	r3, [r7, #8]
 4619 000e DB69     		ldr	r3, [r3, #28]
 4620 0010 FB61     		str	r3, [r7, #28]
 4621              	.LBB51:
 958:Lib/AI_Runtime/Npu/ll_aton/ll_aton_lib_sw_operators.c **** 
 959:Lib/AI_Runtime/Npu/ll_aton/ll_aton_lib_sw_operators.c ****   for (uint32_t output_axis = 0; output_axis < common_params->rank; output_axis++)
 4622              		.loc 1 959 17
 4623 0012 0023     		movs	r3, #0
 4624 0014 BB61     		str	r3, [r7, #24]
 4625              		.loc 1 959 3
 4626 0016 30E0     		b	.L266
 4627              	.L270:
 4628              	.LBB52:
 960:Lib/AI_Runtime/Npu/ll_aton/ll_aton_lib_sw_operators.c ****   {
 961:Lib/AI_Runtime/Npu/ll_aton/ll_aton_lib_sw_operators.c ****     if (output_axis == inner_out_axis)
 4629              		.loc 1 961 8
 4630 0018 BA69     		ldr	r2, [r7, #24]
 4631 001a FB68     		ldr	r3, [r7, #12]
 4632 001c 9A42     		cmp	r2, r3
 4633 001e 28D0     		beq	.L272
 962:Lib/AI_Runtime/Npu/ll_aton/ll_aton_lib_sw_operators.c ****       continue;
 963:Lib/AI_Runtime/Npu/ll_aton/ll_aton_lib_sw_operators.c **** 
 964:Lib/AI_Runtime/Npu/ll_aton/ll_aton_lib_sw_operators.c ****     LL_ATON_ASSERT((uint32_t)common_params->perm[output_axis] < (common_params->rank - 1));
 4634              		.loc 1 964 5
 4635 0020 BB68     		ldr	r3, [r7, #8]
 4636 0022 5A68     		ldr	r2, [r3, #4]
ARM GAS  /tmp/ccgnzMmM.s 			page 113


 4637 0024 BB69     		ldr	r3, [r7, #24]
 4638 0026 1344     		add	r3, r3, r2
 4639 0028 1B78     		ldrb	r3, [r3]	@ zero_extendqisi2
 4640 002a 1A46     		mov	r2, r3
 4641 002c BB68     		ldr	r3, [r7, #8]
 4642 002e 1B68     		ldr	r3, [r3]
 4643 0030 013B     		subs	r3, r3, #1
 4644 0032 9A42     		cmp	r2, r3
 4645 0034 06D3     		bcc	.L269
 4646              		.loc 1 964 5 is_stmt 0 discriminator 1
 4647 0036 164B     		ldr	r3, .L273
 4648 0038 164A     		ldr	r2, .L273+4
 4649 003a 4FF47171 		mov	r1, #964
 4650 003e 1648     		ldr	r0, .L273+8
 4651 0040 FFF7FEFF 		bl	__assert_func
 4652              	.L269:
 965:Lib/AI_Runtime/Npu/ll_aton/ll_aton_lib_sw_operators.c **** 
 966:Lib/AI_Runtime/Npu/ll_aton/ll_aton_lib_sw_operators.c ****     uint32_t input_index = __ll_transp_find_input_index_3or4(indexes, common_params->perm, output_a
 4653              		.loc 1 966 84 is_stmt 1
 4654 0044 BB68     		ldr	r3, [r7, #8]
 4655 0046 5B68     		ldr	r3, [r3, #4]
 4656              		.loc 1 966 28
 4657 0048 BA69     		ldr	r2, [r7, #24]
 4658 004a 1946     		mov	r1, r3
 4659 004c 7868     		ldr	r0, [r7, #4]
 4660 004e FFF7FEFF 		bl	__ll_transp_find_input_index_3or4
 4661 0052 7861     		str	r0, [r7, #20]
 967:Lib/AI_Runtime/Npu/ll_aton/ll_aton_lib_sw_operators.c ****     uint32_t axis_size = common_params->out_axis_off[output_axis];
 4662              		.loc 1 967 39
 4663 0054 BB68     		ldr	r3, [r7, #8]
 4664 0056 1A69     		ldr	r2, [r3, #16]
 4665              		.loc 1 967 53
 4666 0058 BB69     		ldr	r3, [r7, #24]
 4667 005a 9B00     		lsls	r3, r3, #2
 4668 005c 1344     		add	r3, r3, r2
 4669              		.loc 1 967 14
 4670 005e 1B68     		ldr	r3, [r3]
 4671 0060 3B61     		str	r3, [r7, #16]
 968:Lib/AI_Runtime/Npu/ll_aton/ll_aton_lib_sw_operators.c ****     target += (input_index * axis_size);
 4672              		.loc 1 968 28
 4673 0062 7B69     		ldr	r3, [r7, #20]
 4674 0064 3A69     		ldr	r2, [r7, #16]
 4675 0066 02FB03F3 		mul	r3, r2, r3
 4676              		.loc 1 968 12
 4677 006a FA69     		ldr	r2, [r7, #28]
 4678 006c 1344     		add	r3, r3, r2
 4679 006e FB61     		str	r3, [r7, #28]
 4680 0070 00E0     		b	.L268
 4681              	.L272:
 962:Lib/AI_Runtime/Npu/ll_aton/ll_aton_lib_sw_operators.c **** 
 4682              		.loc 1 962 7
 4683 0072 00BF     		nop
 4684              	.L268:
 4685              	.LBE52:
 959:Lib/AI_Runtime/Npu/ll_aton/ll_aton_lib_sw_operators.c ****   {
 4686              		.loc 1 959 80 discriminator 2
 4687 0074 BB69     		ldr	r3, [r7, #24]
ARM GAS  /tmp/ccgnzMmM.s 			page 114


 4688 0076 0133     		adds	r3, r3, #1
 4689 0078 BB61     		str	r3, [r7, #24]
 4690              	.L266:
 959:Lib/AI_Runtime/Npu/ll_aton/ll_aton_lib_sw_operators.c ****   {
 4691              		.loc 1 959 61 discriminator 1
 4692 007a BB68     		ldr	r3, [r7, #8]
 4693 007c 1B68     		ldr	r3, [r3]
 959:Lib/AI_Runtime/Npu/ll_aton/ll_aton_lib_sw_operators.c ****   {
 4694              		.loc 1 959 46 discriminator 1
 4695 007e BA69     		ldr	r2, [r7, #24]
 4696 0080 9A42     		cmp	r2, r3
 4697 0082 C9D3     		bcc	.L270
 4698              	.LBE51:
 969:Lib/AI_Runtime/Npu/ll_aton/ll_aton_lib_sw_operators.c ****   }
 970:Lib/AI_Runtime/Npu/ll_aton/ll_aton_lib_sw_operators.c **** 
 971:Lib/AI_Runtime/Npu/ll_aton/ll_aton_lib_sw_operators.c ****   return target;
 4699              		.loc 1 971 10
 4700 0084 FB69     		ldr	r3, [r7, #28]
 972:Lib/AI_Runtime/Npu/ll_aton/ll_aton_lib_sw_operators.c **** }
 4701              		.loc 1 972 1
 4702 0086 1846     		mov	r0, r3
 4703 0088 2037     		adds	r7, r7, #32
 4704              		.cfi_def_cfa_offset 8
 4705 008a BD46     		mov	sp, r7
 4706              		.cfi_def_cfa_register 13
 4707              		@ sp needed
 4708 008c 80BD     		pop	{r7, pc}
 4709              	.L274:
 4710 008e 00BF     		.align	2
 4711              	.L273:
 4712 0090 18030000 		.word	.LC23
 4713 0094 00000000 		.word	__func__.14
 4714 0098 24000000 		.word	.LC1
 4715              		.cfi_endproc
 4716              	.LFE4873:
 4718              		.section	.text.__ll_transp_get_input_base_pos_3or4,"ax",%progbits
 4719              		.align	1
 4720              		.syntax unified
 4721              		.thumb
 4722              		.thumb_func
 4724              	__ll_transp_get_input_base_pos_3or4:
 4725              	.LFB4874:
 973:Lib/AI_Runtime/Npu/ll_aton/ll_aton_lib_sw_operators.c **** 
 974:Lib/AI_Runtime/Npu/ll_aton/ll_aton_lib_sw_operators.c **** static int8_t *__ll_transp_get_input_base_pos_3or4(const __ll_transp_params_t *common_params, uint3
 975:Lib/AI_Runtime/Npu/ll_aton/ll_aton_lib_sw_operators.c **** {
 4726              		.loc 1 975 1
 4727              		.cfi_startproc
 4728              		@ args = 0, pretend = 0, frame = 24
 4729              		@ frame_needed = 1, uses_anonymous_args = 0
 4730              		@ link register save eliminated.
 4731 0000 80B4     		push	{r7}
 4732              		.cfi_def_cfa_offset 4
 4733              		.cfi_offset 7, -4
 4734 0002 87B0     		sub	sp, sp, #28
 4735              		.cfi_def_cfa_offset 32
 4736 0004 00AF     		add	r7, sp, #0
 4737              		.cfi_def_cfa_register 7
ARM GAS  /tmp/ccgnzMmM.s 			page 115


 4738 0006 7860     		str	r0, [r7, #4]
 4739 0008 3960     		str	r1, [r7]
 976:Lib/AI_Runtime/Npu/ll_aton/ll_aton_lib_sw_operators.c ****   const int8_t *target = common_params->in_tensor;
 4740              		.loc 1 976 17
 4741 000a 7B68     		ldr	r3, [r7, #4]
 4742 000c 9B69     		ldr	r3, [r3, #24]
 4743 000e 7B61     		str	r3, [r7, #20]
 4744              	.LBB53:
 977:Lib/AI_Runtime/Npu/ll_aton/ll_aton_lib_sw_operators.c **** 
 978:Lib/AI_Runtime/Npu/ll_aton/ll_aton_lib_sw_operators.c ****   for (uint32_t axis = 0; axis < (common_params->rank - 1); axis++)
 4745              		.loc 1 978 17
 4746 0010 0023     		movs	r3, #0
 4747 0012 3B61     		str	r3, [r7, #16]
 4748              		.loc 1 978 3
 4749 0014 14E0     		b	.L276
 4750              	.L277:
 4751              	.LBB54:
 979:Lib/AI_Runtime/Npu/ll_aton/ll_aton_lib_sw_operators.c ****   {
 980:Lib/AI_Runtime/Npu/ll_aton/ll_aton_lib_sw_operators.c ****     uint32_t axis_size = common_params->in_axis_off[axis];
 4752              		.loc 1 980 39
 4753 0016 7B68     		ldr	r3, [r7, #4]
 4754 0018 DA68     		ldr	r2, [r3, #12]
 4755              		.loc 1 980 52
 4756 001a 3B69     		ldr	r3, [r7, #16]
 4757 001c 9B00     		lsls	r3, r3, #2
 4758 001e 1344     		add	r3, r3, r2
 4759              		.loc 1 980 14
 4760 0020 1B68     		ldr	r3, [r3]
 4761 0022 FB60     		str	r3, [r7, #12]
 981:Lib/AI_Runtime/Npu/ll_aton/ll_aton_lib_sw_operators.c ****     target += (indexes[axis] * axis_size);
 4762              		.loc 1 981 23
 4763 0024 3B69     		ldr	r3, [r7, #16]
 4764 0026 9B00     		lsls	r3, r3, #2
 4765 0028 3A68     		ldr	r2, [r7]
 4766 002a 1344     		add	r3, r3, r2
 4767 002c 1B68     		ldr	r3, [r3]
 4768              		.loc 1 981 30
 4769 002e FA68     		ldr	r2, [r7, #12]
 4770 0030 02FB03F3 		mul	r3, r2, r3
 4771              		.loc 1 981 12
 4772 0034 7A69     		ldr	r2, [r7, #20]
 4773 0036 1344     		add	r3, r3, r2
 4774 0038 7B61     		str	r3, [r7, #20]
 4775              	.LBE54:
 978:Lib/AI_Runtime/Npu/ll_aton/ll_aton_lib_sw_operators.c ****   {
 4776              		.loc 1 978 65 discriminator 3
 4777 003a 3B69     		ldr	r3, [r7, #16]
 4778 003c 0133     		adds	r3, r3, #1
 4779 003e 3B61     		str	r3, [r7, #16]
 4780              	.L276:
 978:Lib/AI_Runtime/Npu/ll_aton/ll_aton_lib_sw_operators.c ****   {
 4781              		.loc 1 978 48 discriminator 1
 4782 0040 7B68     		ldr	r3, [r7, #4]
 4783 0042 1B68     		ldr	r3, [r3]
 978:Lib/AI_Runtime/Npu/ll_aton/ll_aton_lib_sw_operators.c ****   {
 4784              		.loc 1 978 55 discriminator 1
 4785 0044 013B     		subs	r3, r3, #1
ARM GAS  /tmp/ccgnzMmM.s 			page 116


 978:Lib/AI_Runtime/Npu/ll_aton/ll_aton_lib_sw_operators.c ****   {
 4786              		.loc 1 978 32 discriminator 1
 4787 0046 3A69     		ldr	r2, [r7, #16]
 4788 0048 9A42     		cmp	r2, r3
 4789 004a E4D3     		bcc	.L277
 4790              	.LBE53:
 982:Lib/AI_Runtime/Npu/ll_aton/ll_aton_lib_sw_operators.c ****   }
 983:Lib/AI_Runtime/Npu/ll_aton/ll_aton_lib_sw_operators.c **** 
 984:Lib/AI_Runtime/Npu/ll_aton/ll_aton_lib_sw_operators.c ****   return (int8_t *)target;
 4791              		.loc 1 984 10
 4792 004c 7B69     		ldr	r3, [r7, #20]
 985:Lib/AI_Runtime/Npu/ll_aton/ll_aton_lib_sw_operators.c **** }
 4793              		.loc 1 985 1
 4794 004e 1846     		mov	r0, r3
 4795 0050 1C37     		adds	r7, r7, #28
 4796              		.cfi_def_cfa_offset 4
 4797 0052 BD46     		mov	sp, r7
 4798              		.cfi_def_cfa_register 13
 4799              		@ sp needed
 4800 0054 5DF8047B 		ldr	r7, [sp], #4
 4801              		.cfi_restore 7
 4802              		.cfi_def_cfa_offset 0
 4803 0058 7047     		bx	lr
 4804              		.cfi_endproc
 4805              	.LFE4874:
 4807              		.section	.text.__ll_transp_get_inner_out_axis,"ax",%progbits
 4808              		.align	1
 4809              		.syntax unified
 4810              		.thumb
 4811              		.thumb_func
 4813              	__ll_transp_get_inner_out_axis:
 4814              	.LFB4875:
 986:Lib/AI_Runtime/Npu/ll_aton/ll_aton_lib_sw_operators.c **** 
 987:Lib/AI_Runtime/Npu/ll_aton/ll_aton_lib_sw_operators.c **** static inline uint32_t __ll_transp_get_inner_out_axis(const __ll_transp_params_t *common_params)
 988:Lib/AI_Runtime/Npu/ll_aton/ll_aton_lib_sw_operators.c **** {
 4815              		.loc 1 988 1
 4816              		.cfi_startproc
 4817              		@ args = 0, pretend = 0, frame = 16
 4818              		@ frame_needed = 1, uses_anonymous_args = 0
 4819 0000 80B5     		push	{r7, lr}
 4820              		.cfi_def_cfa_offset 8
 4821              		.cfi_offset 7, -8
 4822              		.cfi_offset 14, -4
 4823 0002 84B0     		sub	sp, sp, #16
 4824              		.cfi_def_cfa_offset 24
 4825 0004 00AF     		add	r7, sp, #0
 4826              		.cfi_def_cfa_register 7
 4827 0006 7860     		str	r0, [r7, #4]
 4828              	.LBB55:
 989:Lib/AI_Runtime/Npu/ll_aton/ll_aton_lib_sw_operators.c ****   for (unsigned int i = 0; i < common_params->rank; i++)
 4829              		.loc 1 989 21
 4830 0008 0023     		movs	r3, #0
 4831 000a FB60     		str	r3, [r7, #12]
 4832              		.loc 1 989 3
 4833 000c 0FE0     		b	.L280
 4834              	.L283:
 990:Lib/AI_Runtime/Npu/ll_aton/ll_aton_lib_sw_operators.c ****   {
ARM GAS  /tmp/ccgnzMmM.s 			page 117


 991:Lib/AI_Runtime/Npu/ll_aton/ll_aton_lib_sw_operators.c ****     if (((uint32_t)common_params->perm[i]) == (common_params->rank - 1))
 4835              		.loc 1 991 33
 4836 000e 7B68     		ldr	r3, [r7, #4]
 4837 0010 5A68     		ldr	r2, [r3, #4]
 4838              		.loc 1 991 39
 4839 0012 FB68     		ldr	r3, [r7, #12]
 4840 0014 1344     		add	r3, r3, r2
 4841 0016 1B78     		ldrb	r3, [r3]	@ zero_extendqisi2
 4842              		.loc 1 991 10
 4843 0018 1A46     		mov	r2, r3
 4844              		.loc 1 991 61
 4845 001a 7B68     		ldr	r3, [r7, #4]
 4846 001c 1B68     		ldr	r3, [r3]
 4847              		.loc 1 991 68
 4848 001e 013B     		subs	r3, r3, #1
 4849              		.loc 1 991 8
 4850 0020 9A42     		cmp	r2, r3
 4851 0022 01D1     		bne	.L281
 992:Lib/AI_Runtime/Npu/ll_aton/ll_aton_lib_sw_operators.c ****       return i;
 4852              		.loc 1 992 14
 4853 0024 FB68     		ldr	r3, [r7, #12]
 4854 0026 0EE0     		b	.L284
 4855              	.L281:
 989:Lib/AI_Runtime/Npu/ll_aton/ll_aton_lib_sw_operators.c ****   for (unsigned int i = 0; i < common_params->rank; i++)
 4856              		.loc 1 989 54 discriminator 2
 4857 0028 FB68     		ldr	r3, [r7, #12]
 4858 002a 0133     		adds	r3, r3, #1
 4859 002c FB60     		str	r3, [r7, #12]
 4860              	.L280:
 989:Lib/AI_Runtime/Npu/ll_aton/ll_aton_lib_sw_operators.c ****   for (unsigned int i = 0; i < common_params->rank; i++)
 4861              		.loc 1 989 45 discriminator 1
 4862 002e 7B68     		ldr	r3, [r7, #4]
 4863 0030 1B68     		ldr	r3, [r3]
 989:Lib/AI_Runtime/Npu/ll_aton/ll_aton_lib_sw_operators.c ****   for (unsigned int i = 0; i < common_params->rank; i++)
 4864              		.loc 1 989 30 discriminator 1
 4865 0032 FA68     		ldr	r2, [r7, #12]
 4866 0034 9A42     		cmp	r2, r3
 4867 0036 EAD3     		bcc	.L283
 4868              	.LBE55:
 993:Lib/AI_Runtime/Npu/ll_aton/ll_aton_lib_sw_operators.c ****   }
 994:Lib/AI_Runtime/Npu/ll_aton/ll_aton_lib_sw_operators.c ****   LL_ATON_ASSERT(false);
 4869              		.loc 1 994 3
 4870 0038 054B     		ldr	r3, .L285
 4871 003a 064A     		ldr	r2, .L285+4
 4872 003c 40F2E231 		movw	r1, #994
 4873 0040 0548     		ldr	r0, .L285+8
 4874 0042 FFF7FEFF 		bl	__assert_func
 4875              	.L284:
 995:Lib/AI_Runtime/Npu/ll_aton/ll_aton_lib_sw_operators.c ****   return common_params->rank; // make compiler happy
 996:Lib/AI_Runtime/Npu/ll_aton/ll_aton_lib_sw_operators.c **** }
 4876              		.loc 1 996 1
 4877 0046 1846     		mov	r0, r3
 4878 0048 1037     		adds	r7, r7, #16
 4879              		.cfi_def_cfa_offset 8
 4880 004a BD46     		mov	sp, r7
 4881              		.cfi_def_cfa_register 13
 4882              		@ sp needed
ARM GAS  /tmp/ccgnzMmM.s 			page 118


 4883 004c 80BD     		pop	{r7, pc}
 4884              	.L286:
 4885 004e 00BF     		.align	2
 4886              	.L285:
 4887 0050 C8000000 		.word	.LC5
 4888 0054 00000000 		.word	__func__.15
 4889 0058 24000000 		.word	.LC1
 4890              		.cfi_endproc
 4891              	.LFE4875:
 4893              		.section	.rodata
 4894 035f 00       		.align	2
 4895              	.LC24:
 4896 0360 28636F6D 		.ascii	"(common_params->rank == 4) || ((common_params->rank"
 4896      6D6F6E5F 
 4896      70617261 
 4896      6D732D3E 
 4896      72616E6B 
 4897 0393 203D3D20 		.ascii	" == 3))\000"
 4897      33292900 
 4898              		.section	.text.__ll_aton_lib_transpose_3or4,"ax",%progbits
 4899              		.align	1
 4900              		.syntax unified
 4901              		.thumb
 4902              		.thumb_func
 4904              	__ll_aton_lib_transpose_3or4:
 4905              	.LFB4876:
 997:Lib/AI_Runtime/Npu/ll_aton/ll_aton_lib_sw_operators.c **** 
 998:Lib/AI_Runtime/Npu/ll_aton/ll_aton_lib_sw_operators.c **** static void __ll_aton_lib_transpose_3or4(const __ll_transp_params_t *common_params)
 999:Lib/AI_Runtime/Npu/ll_aton/ll_aton_lib_sw_operators.c **** {
 4906              		.loc 1 999 1
 4907              		.cfi_startproc
 4908              		@ args = 0, pretend = 0, frame = 88
 4909              		@ frame_needed = 1, uses_anonymous_args = 0
 4910 0000 80B5     		push	{r7, lr}
 4911              		.cfi_def_cfa_offset 8
 4912              		.cfi_offset 7, -8
 4913              		.cfi_offset 14, -4
 4914 0002 96B0     		sub	sp, sp, #88
 4915              		.cfi_def_cfa_offset 96
 4916 0004 00AF     		add	r7, sp, #0
 4917              		.cfi_def_cfa_register 7
 4918 0006 7860     		str	r0, [r7, #4]
1000:Lib/AI_Runtime/Npu/ll_aton/ll_aton_lib_sw_operators.c ****   LL_ATON_ASSERT((common_params->rank == 4) || ((common_params->rank == 3)));
 4919              		.loc 1 1000 3
 4920 0008 7B68     		ldr	r3, [r7, #4]
 4921 000a 1B68     		ldr	r3, [r3]
 4922 000c 042B     		cmp	r3, #4
 4923 000e 0AD0     		beq	.L288
 4924              		.loc 1 1000 3 is_stmt 0 discriminator 1
 4925 0010 7B68     		ldr	r3, [r7, #4]
 4926 0012 1B68     		ldr	r3, [r3]
 4927 0014 032B     		cmp	r3, #3
 4928 0016 06D0     		beq	.L288
 4929              		.loc 1 1000 3 discriminator 2
 4930 0018 5C4B     		ldr	r3, .L309
 4931 001a 5D4A     		ldr	r2, .L309+4
 4932 001c 4FF47A71 		mov	r1, #1000
ARM GAS  /tmp/ccgnzMmM.s 			page 119


 4933 0020 5C48     		ldr	r0, .L309+8
 4934 0022 FFF7FEFF 		bl	__assert_func
 4935              	.L288:
1001:Lib/AI_Runtime/Npu/ll_aton/ll_aton_lib_sw_operators.c ****   uint32_t inner_out_axis = __ll_transp_get_inner_out_axis(common_params);
 4936              		.loc 1 1001 29 is_stmt 1
 4937 0026 7868     		ldr	r0, [r7, #4]
 4938 0028 FFF7FEFF 		bl	__ll_transp_get_inner_out_axis
 4939 002c 7864     		str	r0, [r7, #68]
1002:Lib/AI_Runtime/Npu/ll_aton/ll_aton_lib_sw_operators.c ****   uint32_t out_axes_offset = common_params->out_axis_off[inner_out_axis];
 4940              		.loc 1 1002 43
 4941 002e 7B68     		ldr	r3, [r7, #4]
 4942 0030 1A69     		ldr	r2, [r3, #16]
 4943              		.loc 1 1002 57
 4944 0032 7B6C     		ldr	r3, [r7, #68]
 4945 0034 9B00     		lsls	r3, r3, #2
 4946 0036 1344     		add	r3, r3, r2
 4947              		.loc 1 1002 12
 4948 0038 1B68     		ldr	r3, [r3]
 4949 003a 3B64     		str	r3, [r7, #64]
1003:Lib/AI_Runtime/Npu/ll_aton/ll_aton_lib_sw_operators.c ****   const uint8_t byte_size = common_params->byte_size;
 4950              		.loc 1 1003 17
 4951 003c 7B68     		ldr	r3, [r7, #4]
 4952 003e 1B7D     		ldrb	r3, [r3, #20]
 4953 0040 87F83F30 		strb	r3, [r7, #63]
1004:Lib/AI_Runtime/Npu/ll_aton/ll_aton_lib_sw_operators.c **** 
1005:Lib/AI_Runtime/Npu/ll_aton/ll_aton_lib_sw_operators.c ****   uint32_t size_n = (common_params->rank == 4) ? common_params->in_shape_aton[0] : 1;
 4954              		.loc 1 1005 35
 4955 0044 7B68     		ldr	r3, [r7, #4]
 4956 0046 1B68     		ldr	r3, [r3]
 4957              		.loc 1 1005 82
 4958 0048 042B     		cmp	r3, #4
 4959 004a 03D1     		bne	.L289
 4960              		.loc 1 1005 63 discriminator 1
 4961 004c 7B68     		ldr	r3, [r7, #4]
 4962 004e 9B68     		ldr	r3, [r3, #8]
 4963              		.loc 1 1005 82 discriminator 1
 4964 0050 1B68     		ldr	r3, [r3]
 4965 0052 00E0     		b	.L290
 4966              	.L289:
 4967              		.loc 1 1005 82 is_stmt 0 discriminator 2
 4968 0054 0123     		movs	r3, #1
 4969              	.L290:
 4970              		.loc 1 1005 12 is_stmt 1 discriminator 4
 4971 0056 BB63     		str	r3, [r7, #56]
1006:Lib/AI_Runtime/Npu/ll_aton/ll_aton_lib_sw_operators.c ****   uint32_t size_c = (common_params->rank == 4) ? common_params->in_shape_aton[1] : common_params->i
 4972              		.loc 1 1006 35
 4973 0058 7B68     		ldr	r3, [r7, #4]
 4974 005a 1B68     		ldr	r3, [r3]
 4975              		.loc 1 1006 82
 4976 005c 042B     		cmp	r3, #4
 4977 005e 04D1     		bne	.L291
 4978              		.loc 1 1006 63 discriminator 1
 4979 0060 7B68     		ldr	r3, [r7, #4]
 4980 0062 9B68     		ldr	r3, [r3, #8]
 4981              		.loc 1 1006 78 discriminator 1
 4982 0064 0433     		adds	r3, r3, #4
 4983              		.loc 1 1006 82 discriminator 1
ARM GAS  /tmp/ccgnzMmM.s 			page 120


 4984 0066 1B68     		ldr	r3, [r3]
 4985 0068 02E0     		b	.L292
 4986              	.L291:
 4987              		.loc 1 1006 97 discriminator 2
 4988 006a 7B68     		ldr	r3, [r7, #4]
 4989 006c 9B68     		ldr	r3, [r3, #8]
 4990              		.loc 1 1006 82 discriminator 2
 4991 006e 1B68     		ldr	r3, [r3]
 4992              	.L292:
 4993              		.loc 1 1006 12 discriminator 4
 4994 0070 7B63     		str	r3, [r7, #52]
1007:Lib/AI_Runtime/Npu/ll_aton/ll_aton_lib_sw_operators.c ****   uint32_t size_h = (common_params->rank == 4) ? common_params->in_shape_aton[2] : common_params->i
 4995              		.loc 1 1007 35
 4996 0072 7B68     		ldr	r3, [r7, #4]
 4997 0074 1B68     		ldr	r3, [r3]
 4998              		.loc 1 1007 82
 4999 0076 042B     		cmp	r3, #4
 5000 0078 04D1     		bne	.L293
 5001              		.loc 1 1007 63 discriminator 1
 5002 007a 7B68     		ldr	r3, [r7, #4]
 5003 007c 9B68     		ldr	r3, [r3, #8]
 5004              		.loc 1 1007 78 discriminator 1
 5005 007e 0833     		adds	r3, r3, #8
 5006              		.loc 1 1007 82 discriminator 1
 5007 0080 1B68     		ldr	r3, [r3]
 5008 0082 03E0     		b	.L294
 5009              	.L293:
 5010              		.loc 1 1007 97 discriminator 2
 5011 0084 7B68     		ldr	r3, [r7, #4]
 5012 0086 9B68     		ldr	r3, [r3, #8]
 5013              		.loc 1 1007 112 discriminator 2
 5014 0088 0433     		adds	r3, r3, #4
 5015              		.loc 1 1007 82 discriminator 2
 5016 008a 1B68     		ldr	r3, [r3]
 5017              	.L294:
 5018              		.loc 1 1007 12 discriminator 4
 5019 008c 3B63     		str	r3, [r7, #48]
1008:Lib/AI_Runtime/Npu/ll_aton/ll_aton_lib_sw_operators.c ****   uint32_t size_w = (common_params->rank == 4) ? common_params->in_shape_aton[3] : common_params->i
 5020              		.loc 1 1008 35
 5021 008e 7B68     		ldr	r3, [r7, #4]
 5022 0090 1B68     		ldr	r3, [r3]
 5023              		.loc 1 1008 82
 5024 0092 042B     		cmp	r3, #4
 5025 0094 04D1     		bne	.L295
 5026              		.loc 1 1008 63 discriminator 1
 5027 0096 7B68     		ldr	r3, [r7, #4]
 5028 0098 9B68     		ldr	r3, [r3, #8]
 5029              		.loc 1 1008 78 discriminator 1
 5030 009a 0C33     		adds	r3, r3, #12
 5031              		.loc 1 1008 82 discriminator 1
 5032 009c 1B68     		ldr	r3, [r3]
 5033 009e 03E0     		b	.L296
 5034              	.L295:
 5035              		.loc 1 1008 97 discriminator 2
 5036 00a0 7B68     		ldr	r3, [r7, #4]
 5037 00a2 9B68     		ldr	r3, [r3, #8]
 5038              		.loc 1 1008 112 discriminator 2
ARM GAS  /tmp/ccgnzMmM.s 			page 121


 5039 00a4 0833     		adds	r3, r3, #8
 5040              		.loc 1 1008 82 discriminator 2
 5041 00a6 1B68     		ldr	r3, [r3]
 5042              	.L296:
 5043              		.loc 1 1008 12 discriminator 4
 5044 00a8 FB62     		str	r3, [r7, #44]
 5045              	.LBB56:
1009:Lib/AI_Runtime/Npu/ll_aton/ll_aton_lib_sw_operators.c **** 
1010:Lib/AI_Runtime/Npu/ll_aton/ll_aton_lib_sw_operators.c ****   for (uint32_t index_n = 0; index_n < size_n; index_n++)
 5046              		.loc 1 1010 17
 5047 00aa 0023     		movs	r3, #0
 5048 00ac 7B65     		str	r3, [r7, #84]
 5049              		.loc 1 1010 3
 5050 00ae 63E0     		b	.L297
 5051              	.L308:
 5052              	.LBB57:
1011:Lib/AI_Runtime/Npu/ll_aton/ll_aton_lib_sw_operators.c ****   {
1012:Lib/AI_Runtime/Npu/ll_aton/ll_aton_lib_sw_operators.c ****     for (uint32_t index_c = 0; index_c < size_c; index_c++)
 5053              		.loc 1 1012 19
 5054 00b0 0023     		movs	r3, #0
 5055 00b2 3B65     		str	r3, [r7, #80]
 5056              		.loc 1 1012 5
 5057 00b4 59E0     		b	.L298
 5058              	.L307:
 5059              	.LBB58:
1013:Lib/AI_Runtime/Npu/ll_aton/ll_aton_lib_sw_operators.c ****     {
1014:Lib/AI_Runtime/Npu/ll_aton/ll_aton_lib_sw_operators.c ****       for (uint32_t index_h = 0; index_h < size_h; index_h++)
 5060              		.loc 1 1014 21
 5061 00b6 0023     		movs	r3, #0
 5062 00b8 FB64     		str	r3, [r7, #76]
 5063              		.loc 1 1014 7
 5064 00ba 4FE0     		b	.L299
 5065              	.L306:
 5066              	.LBB59:
1015:Lib/AI_Runtime/Npu/ll_aton/ll_aton_lib_sw_operators.c ****       {
1016:Lib/AI_Runtime/Npu/ll_aton/ll_aton_lib_sw_operators.c ****         uint32_t indexes_array[] = {index_n, index_c, index_h};
 5067              		.loc 1 1016 18
 5068 00bc 7B6D     		ldr	r3, [r7, #84]
 5069 00be BB60     		str	r3, [r7, #8]
 5070 00c0 3B6D     		ldr	r3, [r7, #80]
 5071 00c2 FB60     		str	r3, [r7, #12]
 5072 00c4 FB6C     		ldr	r3, [r7, #76]
 5073 00c6 3B61     		str	r3, [r7, #16]
1017:Lib/AI_Runtime/Npu/ll_aton/ll_aton_lib_sw_operators.c ****         uint32_t *indexes = (common_params->rank == 4) ? &indexes_array[0] : &indexes_array[1];
 5074              		.loc 1 1017 43
 5075 00c8 7B68     		ldr	r3, [r7, #4]
 5076 00ca 1B68     		ldr	r3, [r3]
 5077              		.loc 1 1017 76
 5078 00cc 042B     		cmp	r3, #4
 5079 00ce 02D1     		bne	.L300
 5080              		.loc 1 1017 76 is_stmt 0 discriminator 1
 5081 00d0 07F10803 		add	r3, r7, #8
 5082 00d4 02E0     		b	.L301
 5083              	.L300:
 5084              		.loc 1 1017 76 discriminator 2
 5085 00d6 07F10803 		add	r3, r7, #8
 5086 00da 0433     		adds	r3, r3, #4
ARM GAS  /tmp/ccgnzMmM.s 			page 122


 5087              	.L301:
 5088              		.loc 1 1017 19 is_stmt 1 discriminator 4
 5089 00dc BB62     		str	r3, [r7, #40]
1018:Lib/AI_Runtime/Npu/ll_aton/ll_aton_lib_sw_operators.c **** 
1019:Lib/AI_Runtime/Npu/ll_aton/ll_aton_lib_sw_operators.c ****         int8_t *base_out_target = __ll_transp_get_output_base_pos_3or4(inner_out_axis, common_param
 5090              		.loc 1 1019 35
 5091 00de BA6A     		ldr	r2, [r7, #40]
 5092 00e0 7968     		ldr	r1, [r7, #4]
 5093 00e2 786C     		ldr	r0, [r7, #68]
 5094 00e4 FFF7FEFF 		bl	__ll_transp_get_output_base_pos_3or4
 5095 00e8 7862     		str	r0, [r7, #36]
1020:Lib/AI_Runtime/Npu/ll_aton/ll_aton_lib_sw_operators.c ****         int8_t *base_in_target = __ll_transp_get_input_base_pos_3or4(common_params, indexes);
 5096              		.loc 1 1020 34
 5097 00ea B96A     		ldr	r1, [r7, #40]
 5098 00ec 7868     		ldr	r0, [r7, #4]
 5099 00ee FFF7FEFF 		bl	__ll_transp_get_input_base_pos_3or4
 5100 00f2 3862     		str	r0, [r7, #32]
1021:Lib/AI_Runtime/Npu/ll_aton/ll_aton_lib_sw_operators.c **** 
1022:Lib/AI_Runtime/Npu/ll_aton/ll_aton_lib_sw_operators.c ****         if (byte_size != out_axes_offset)
 5101              		.loc 1 1022 23
 5102 00f4 97F83F30 		ldrb	r3, [r7, #63]	@ zero_extendqisi2
 5103              		.loc 1 1022 12
 5104 00f8 3A6C     		ldr	r2, [r7, #64]
 5105 00fa 9A42     		cmp	r2, r3
 5106 00fc 20D0     		beq	.L302
 5107              	.LBB60:
1023:Lib/AI_Runtime/Npu/ll_aton/ll_aton_lib_sw_operators.c ****         {
1024:Lib/AI_Runtime/Npu/ll_aton/ll_aton_lib_sw_operators.c ****           for (uint32_t index_w = 0; index_w < size_w; index_w++)
 5108              		.loc 1 1024 25
 5109 00fe 0023     		movs	r3, #0
 5110 0100 BB64     		str	r3, [r7, #72]
 5111              		.loc 1 1024 11
 5112 0102 18E0     		b	.L303
 5113              	.L304:
 5114              	.LBB61:
1025:Lib/AI_Runtime/Npu/ll_aton/ll_aton_lib_sw_operators.c ****           {
1026:Lib/AI_Runtime/Npu/ll_aton/ll_aton_lib_sw_operators.c ****             /* determine input/output position */
1027:Lib/AI_Runtime/Npu/ll_aton/ll_aton_lib_sw_operators.c ****             int8_t *in_target = base_in_target + (index_w * byte_size);
 5115              		.loc 1 1027 59
 5116 0104 97F83F30 		ldrb	r3, [r7, #63]	@ zero_extendqisi2
 5117 0108 BA6C     		ldr	r2, [r7, #72]
 5118 010a 02FB03F3 		mul	r3, r2, r3
 5119              		.loc 1 1027 21
 5120 010e 3A6A     		ldr	r2, [r7, #32]
 5121 0110 1344     		add	r3, r3, r2
 5122 0112 BB61     		str	r3, [r7, #24]
1028:Lib/AI_Runtime/Npu/ll_aton/ll_aton_lib_sw_operators.c ****             int8_t *out_target = base_out_target + (index_w * out_axes_offset);
 5123              		.loc 1 1028 61
 5124 0114 BB6C     		ldr	r3, [r7, #72]
 5125 0116 3A6C     		ldr	r2, [r7, #64]
 5126 0118 02FB03F3 		mul	r3, r2, r3
 5127              		.loc 1 1028 21
 5128 011c 7A6A     		ldr	r2, [r7, #36]
 5129 011e 1344     		add	r3, r3, r2
 5130 0120 7B61     		str	r3, [r7, #20]
1029:Lib/AI_Runtime/Npu/ll_aton/ll_aton_lib_sw_operators.c **** 
1030:Lib/AI_Runtime/Npu/ll_aton/ll_aton_lib_sw_operators.c ****             __ll_aton_lib_copy_element(byte_size, index_w, out_target, in_target);
ARM GAS  /tmp/ccgnzMmM.s 			page 123


 5131              		.loc 1 1030 13
 5132 0122 B96C     		ldr	r1, [r7, #72]
 5133 0124 97F83F00 		ldrb	r0, [r7, #63]	@ zero_extendqisi2
 5134 0128 BB69     		ldr	r3, [r7, #24]
 5135 012a 7A69     		ldr	r2, [r7, #20]
 5136 012c FFF7FEFF 		bl	__ll_aton_lib_copy_element
 5137              	.LBE61:
1024:Lib/AI_Runtime/Npu/ll_aton/ll_aton_lib_sw_operators.c ****           {
 5138              		.loc 1 1024 63 discriminator 3
 5139 0130 BB6C     		ldr	r3, [r7, #72]
 5140 0132 0133     		adds	r3, r3, #1
 5141 0134 BB64     		str	r3, [r7, #72]
 5142              	.L303:
1024:Lib/AI_Runtime/Npu/ll_aton/ll_aton_lib_sw_operators.c ****           {
 5143              		.loc 1 1024 46 discriminator 1
 5144 0136 BA6C     		ldr	r2, [r7, #72]
 5145 0138 FB6A     		ldr	r3, [r7, #44]
 5146 013a 9A42     		cmp	r2, r3
 5147 013c E2D3     		bcc	.L304
 5148 013e 0AE0     		b	.L305
 5149              	.L302:
 5150              	.LBE60:
 5151              	.LBB62:
1031:Lib/AI_Runtime/Npu/ll_aton/ll_aton_lib_sw_operators.c ****           }
1032:Lib/AI_Runtime/Npu/ll_aton/ll_aton_lib_sw_operators.c ****         }
1033:Lib/AI_Runtime/Npu/ll_aton/ll_aton_lib_sw_operators.c ****         else
1034:Lib/AI_Runtime/Npu/ll_aton/ll_aton_lib_sw_operators.c ****         {
1035:Lib/AI_Runtime/Npu/ll_aton/ll_aton_lib_sw_operators.c ****           uint32_t size_in_bytes = size_w * byte_size; // `byte_size == out_axes_offset`
 5152              		.loc 1 1035 43
 5153 0140 97F83F20 		ldrb	r2, [r7, #63]	@ zero_extendqisi2
 5154              		.loc 1 1035 20
 5155 0144 FB6A     		ldr	r3, [r7, #44]
 5156 0146 02FB03F3 		mul	r3, r2, r3
 5157 014a FB61     		str	r3, [r7, #28]
1036:Lib/AI_Runtime/Npu/ll_aton/ll_aton_lib_sw_operators.c ****           memcpy(base_out_target, base_in_target, size_in_bytes);
 5158              		.loc 1 1036 11
 5159 014c FA69     		ldr	r2, [r7, #28]
 5160 014e 396A     		ldr	r1, [r7, #32]
 5161 0150 786A     		ldr	r0, [r7, #36]
 5162 0152 FFF7FEFF 		bl	memcpy
 5163              	.L305:
 5164              	.LBE62:
 5165              	.LBE59:
1014:Lib/AI_Runtime/Npu/ll_aton/ll_aton_lib_sw_operators.c ****       {
 5166              		.loc 1 1014 59 discriminator 2
 5167 0156 FB6C     		ldr	r3, [r7, #76]
 5168 0158 0133     		adds	r3, r3, #1
 5169 015a FB64     		str	r3, [r7, #76]
 5170              	.L299:
1014:Lib/AI_Runtime/Npu/ll_aton/ll_aton_lib_sw_operators.c ****       {
 5171              		.loc 1 1014 42 discriminator 1
 5172 015c FA6C     		ldr	r2, [r7, #76]
 5173 015e 3B6B     		ldr	r3, [r7, #48]
 5174 0160 9A42     		cmp	r2, r3
 5175 0162 ABD3     		bcc	.L306
 5176              	.LBE58:
1012:Lib/AI_Runtime/Npu/ll_aton/ll_aton_lib_sw_operators.c ****     {
ARM GAS  /tmp/ccgnzMmM.s 			page 124


 5177              		.loc 1 1012 57 discriminator 2
 5178 0164 3B6D     		ldr	r3, [r7, #80]
 5179 0166 0133     		adds	r3, r3, #1
 5180 0168 3B65     		str	r3, [r7, #80]
 5181              	.L298:
1012:Lib/AI_Runtime/Npu/ll_aton/ll_aton_lib_sw_operators.c ****     {
 5182              		.loc 1 1012 40 discriminator 1
 5183 016a 3A6D     		ldr	r2, [r7, #80]
 5184 016c 7B6B     		ldr	r3, [r7, #52]
 5185 016e 9A42     		cmp	r2, r3
 5186 0170 A1D3     		bcc	.L307
 5187              	.LBE57:
1010:Lib/AI_Runtime/Npu/ll_aton/ll_aton_lib_sw_operators.c ****   {
 5188              		.loc 1 1010 55 discriminator 2
 5189 0172 7B6D     		ldr	r3, [r7, #84]
 5190 0174 0133     		adds	r3, r3, #1
 5191 0176 7B65     		str	r3, [r7, #84]
 5192              	.L297:
1010:Lib/AI_Runtime/Npu/ll_aton/ll_aton_lib_sw_operators.c ****   {
 5193              		.loc 1 1010 38 discriminator 1
 5194 0178 7A6D     		ldr	r2, [r7, #84]
 5195 017a BB6B     		ldr	r3, [r7, #56]
 5196 017c 9A42     		cmp	r2, r3
 5197 017e 97D3     		bcc	.L308
 5198              	.LBE56:
1037:Lib/AI_Runtime/Npu/ll_aton/ll_aton_lib_sw_operators.c ****         }
1038:Lib/AI_Runtime/Npu/ll_aton/ll_aton_lib_sw_operators.c ****       }
1039:Lib/AI_Runtime/Npu/ll_aton/ll_aton_lib_sw_operators.c ****     }
1040:Lib/AI_Runtime/Npu/ll_aton/ll_aton_lib_sw_operators.c ****   }
1041:Lib/AI_Runtime/Npu/ll_aton/ll_aton_lib_sw_operators.c **** }
 5199              		.loc 1 1041 1
 5200 0180 00BF     		nop
 5201 0182 00BF     		nop
 5202 0184 5837     		adds	r7, r7, #88
 5203              		.cfi_def_cfa_offset 8
 5204 0186 BD46     		mov	sp, r7
 5205              		.cfi_def_cfa_register 13
 5206              		@ sp needed
 5207 0188 80BD     		pop	{r7, pc}
 5208              	.L310:
 5209 018a 00BF     		.align	2
 5210              	.L309:
 5211 018c 60030000 		.word	.LC24
 5212 0190 00000000 		.word	__func__.16
 5213 0194 24000000 		.word	.LC1
 5214              		.cfi_endproc
 5215              	.LFE4876:
 5217              		.section	.text.LL_ATON_LIB_Transpose,"ax",%progbits
 5218              		.align	1
 5219              		.global	LL_ATON_LIB_Transpose
 5220              		.syntax unified
 5221              		.thumb
 5222              		.thumb_func
 5224              	LL_ATON_LIB_Transpose:
 5225              	.LFB4877:
1042:Lib/AI_Runtime/Npu/ll_aton/ll_aton_lib_sw_operators.c **** 
1043:Lib/AI_Runtime/Npu/ll_aton/ll_aton_lib_sw_operators.c **** int LL_ATON_LIB_Transpose(const LL_LIB_TensorShape_TypeDef *input, const uint32_t *input_axes_offse
ARM GAS  /tmp/ccgnzMmM.s 			page 125


1044:Lib/AI_Runtime/Npu/ll_aton/ll_aton_lib_sw_operators.c ****                           const LL_LIB_TensorShape_TypeDef *output, const uint32_t *output_axes_off
1045:Lib/AI_Runtime/Npu/ll_aton/ll_aton_lib_sw_operators.c ****                           const uint8_t *perm)
1046:Lib/AI_Runtime/Npu/ll_aton/ll_aton_lib_sw_operators.c **** {
 5226              		.loc 1 1046 1
 5227              		.cfi_startproc
 5228              		@ args = 4, pretend = 0, frame = 56
 5229              		@ frame_needed = 1, uses_anonymous_args = 0
 5230 0000 80B5     		push	{r7, lr}
 5231              		.cfi_def_cfa_offset 8
 5232              		.cfi_offset 7, -8
 5233              		.cfi_offset 14, -4
 5234 0002 8EB0     		sub	sp, sp, #56
 5235              		.cfi_def_cfa_offset 64
 5236 0004 00AF     		add	r7, sp, #0
 5237              		.cfi_def_cfa_register 7
 5238 0006 F860     		str	r0, [r7, #12]
 5239 0008 B960     		str	r1, [r7, #8]
 5240 000a 7A60     		str	r2, [r7, #4]
 5241 000c 3B60     		str	r3, [r7]
1047:Lib/AI_Runtime/Npu/ll_aton/ll_aton_lib_sw_operators.c ****   if (input->ndims <= 2)
 5242              		.loc 1 1047 12
 5243 000e FB68     		ldr	r3, [r7, #12]
 5244 0010 93F82730 		ldrb	r3, [r3, #39]	@ zero_extendqisi2
 5245              		.loc 1 1047 6
 5246 0014 022B     		cmp	r3, #2
 5247 0016 08D8     		bhi	.L312
1048:Lib/AI_Runtime/Npu/ll_aton/ll_aton_lib_sw_operators.c ****   {
1049:Lib/AI_Runtime/Npu/ll_aton/ll_aton_lib_sw_operators.c ****     __LL_LIB_ERROR(_ERR_RANK, LL_ATON_INVALID_PARAM);
 5248              		.loc 1 1049 5
 5249 0018 3C4A     		ldr	r2, .L321
 5250 001a 40F21941 		movw	r1, #1049
 5251 001e 0F20     		movs	r0, #15
 5252 0020 FFF7FEFF 		bl	__ll_lib_error
 5253              		.loc 1 1049 5 is_stmt 0 discriminator 1
 5254 0024 6FF00103 		mvn	r3, #1
 5255              		.loc 1 1049 5
 5256 0028 6CE0     		b	.L320
 5257              	.L312:
1050:Lib/AI_Runtime/Npu/ll_aton/ll_aton_lib_sw_operators.c ****   }
1051:Lib/AI_Runtime/Npu/ll_aton/ll_aton_lib_sw_operators.c **** 
1052:Lib/AI_Runtime/Npu/ll_aton/ll_aton_lib_sw_operators.c ****   if (input->ndims != output->ndims)
 5258              		.loc 1 1052 12 is_stmt 1
 5259 002a FB68     		ldr	r3, [r7, #12]
 5260 002c 93F82720 		ldrb	r2, [r3, #39]	@ zero_extendqisi2
 5261              		.loc 1 1052 29
 5262 0030 7B68     		ldr	r3, [r7, #4]
 5263 0032 93F82730 		ldrb	r3, [r3, #39]	@ zero_extendqisi2
 5264              		.loc 1 1052 6
 5265 0036 9A42     		cmp	r2, r3
 5266 0038 08D0     		beq	.L314
1053:Lib/AI_Runtime/Npu/ll_aton/ll_aton_lib_sw_operators.c ****   {
1054:Lib/AI_Runtime/Npu/ll_aton/ll_aton_lib_sw_operators.c ****     __LL_LIB_ERROR(_ERR_RANK, LL_ATON_INVALID_PARAM);
 5267              		.loc 1 1054 5
 5268 003a 344A     		ldr	r2, .L321
 5269 003c 40F21E41 		movw	r1, #1054
 5270 0040 0F20     		movs	r0, #15
 5271 0042 FFF7FEFF 		bl	__ll_lib_error
ARM GAS  /tmp/ccgnzMmM.s 			page 126


 5272              		.loc 1 1054 5 is_stmt 0 discriminator 1
 5273 0046 6FF00103 		mvn	r3, #1
 5274              		.loc 1 1054 5
 5275 004a 5BE0     		b	.L320
 5276              	.L314:
1055:Lib/AI_Runtime/Npu/ll_aton/ll_aton_lib_sw_operators.c ****   }
1056:Lib/AI_Runtime/Npu/ll_aton/ll_aton_lib_sw_operators.c **** 
1057:Lib/AI_Runtime/Npu/ll_aton/ll_aton_lib_sw_operators.c ****   if (input->nbits != output->nbits)
 5277              		.loc 1 1057 12 is_stmt 1
 5278 004c FB68     		ldr	r3, [r7, #12]
 5279 004e 93F82820 		ldrb	r2, [r3, #40]	@ zero_extendqisi2
 5280              		.loc 1 1057 29
 5281 0052 7B68     		ldr	r3, [r7, #4]
 5282 0054 93F82830 		ldrb	r3, [r3, #40]	@ zero_extendqisi2
 5283              		.loc 1 1057 6
 5284 0058 9A42     		cmp	r2, r3
 5285 005a 08D0     		beq	.L315
1058:Lib/AI_Runtime/Npu/ll_aton/ll_aton_lib_sw_operators.c ****   { // TODO: should we support this?
1059:Lib/AI_Runtime/Npu/ll_aton/ll_aton_lib_sw_operators.c ****     __LL_LIB_ERROR(_ERR_NBITS, LL_ATON_INVALID_PARAM);
 5286              		.loc 1 1059 5
 5287 005c 2B4A     		ldr	r2, .L321
 5288 005e 40F22341 		movw	r1, #1059
 5289 0062 0620     		movs	r0, #6
 5290 0064 FFF7FEFF 		bl	__ll_lib_error
 5291              		.loc 1 1059 5 is_stmt 0 discriminator 1
 5292 0068 6FF00103 		mvn	r3, #1
 5293              		.loc 1 1059 5
 5294 006c 4AE0     		b	.L320
 5295              	.L315:
1060:Lib/AI_Runtime/Npu/ll_aton/ll_aton_lib_sw_operators.c ****   }
1061:Lib/AI_Runtime/Npu/ll_aton/ll_aton_lib_sw_operators.c **** 
1062:Lib/AI_Runtime/Npu/ll_aton/ll_aton_lib_sw_operators.c ****   if ((input->nbits < 8) || (input->nbits > 32))
 5296              		.loc 1 1062 13 is_stmt 1
 5297 006e FB68     		ldr	r3, [r7, #12]
 5298 0070 93F82830 		ldrb	r3, [r3, #40]	@ zero_extendqisi2
 5299              		.loc 1 1062 6
 5300 0074 072B     		cmp	r3, #7
 5301 0076 04D9     		bls	.L316
 5302              		.loc 1 1062 35 discriminator 1
 5303 0078 FB68     		ldr	r3, [r7, #12]
 5304 007a 93F82830 		ldrb	r3, [r3, #40]	@ zero_extendqisi2
 5305              		.loc 1 1062 26 discriminator 1
 5306 007e 202B     		cmp	r3, #32
 5307 0080 08D9     		bls	.L317
 5308              	.L316:
1063:Lib/AI_Runtime/Npu/ll_aton/ll_aton_lib_sw_operators.c ****   {
1064:Lib/AI_Runtime/Npu/ll_aton/ll_aton_lib_sw_operators.c ****     __LL_LIB_ERROR(_ERR_NBITS, LL_ATON_INVALID_PARAM);
 5309              		.loc 1 1064 5
 5310 0082 224A     		ldr	r2, .L321
 5311 0084 4FF48561 		mov	r1, #1064
 5312 0088 0620     		movs	r0, #6
 5313 008a FFF7FEFF 		bl	__ll_lib_error
 5314              		.loc 1 1064 5 is_stmt 0 discriminator 1
 5315 008e 6FF00103 		mvn	r3, #1
 5316              		.loc 1 1064 5
 5317 0092 37E0     		b	.L320
 5318              	.L317:
ARM GAS  /tmp/ccgnzMmM.s 			page 127


1065:Lib/AI_Runtime/Npu/ll_aton/ll_aton_lib_sw_operators.c ****   }
1066:Lib/AI_Runtime/Npu/ll_aton/ll_aton_lib_sw_operators.c **** 
1067:Lib/AI_Runtime/Npu/ll_aton/ll_aton_lib_sw_operators.c ****   const __ll_transp_params_t common_params = {.perm = perm,
1068:Lib/AI_Runtime/Npu/ll_aton/ll_aton_lib_sw_operators.c ****                                               .rank = input->ndims,
 5319              		.loc 1 1068 60 is_stmt 1
 5320 0094 FB68     		ldr	r3, [r7, #12]
 5321 0096 93F82730 		ldrb	r3, [r3, #39]	@ zero_extendqisi2
1067:Lib/AI_Runtime/Npu/ll_aton/ll_aton_lib_sw_operators.c ****                                               .rank = input->ndims,
 5322              		.loc 1 1067 30
 5323 009a 7B61     		str	r3, [r7, #20]
 5324 009c 3B6C     		ldr	r3, [r7, #64]
 5325 009e BB61     		str	r3, [r7, #24]
1069:Lib/AI_Runtime/Npu/ll_aton/ll_aton_lib_sw_operators.c ****                                               .in_shape_aton = input->shape,
 5326              		.loc 1 1069 69
 5327 00a0 FB68     		ldr	r3, [r7, #12]
 5328 00a2 DB6A     		ldr	r3, [r3, #44]
1067:Lib/AI_Runtime/Npu/ll_aton/ll_aton_lib_sw_operators.c ****                                               .rank = input->ndims,
 5329              		.loc 1 1067 30
 5330 00a4 FB61     		str	r3, [r7, #28]
 5331 00a6 BB68     		ldr	r3, [r7, #8]
 5332 00a8 3B62     		str	r3, [r7, #32]
 5333 00aa 3B68     		ldr	r3, [r7]
 5334 00ac 7B62     		str	r3, [r7, #36]
1070:Lib/AI_Runtime/Npu/ll_aton/ll_aton_lib_sw_operators.c ****                                               .in_axis_off = input_axes_offsets,
1071:Lib/AI_Runtime/Npu/ll_aton/ll_aton_lib_sw_operators.c ****                                               .out_axis_off = output_axes_offsets,
1072:Lib/AI_Runtime/Npu/ll_aton/ll_aton_lib_sw_operators.c ****                                               .byte_size = LL_LIB_NBYTES(input->nbits),
 5335              		.loc 1 1072 60
 5336 00ae FB68     		ldr	r3, [r7, #12]
 5337 00b0 93F82830 		ldrb	r3, [r3, #40]	@ zero_extendqisi2
 5338 00b4 0733     		adds	r3, r3, #7
 5339 00b6 DB10     		asrs	r3, r3, #3
1067:Lib/AI_Runtime/Npu/ll_aton/ll_aton_lib_sw_operators.c ****                                               .rank = input->ndims,
 5340              		.loc 1 1067 30
 5341 00b8 DBB2     		uxtb	r3, r3
 5342 00ba 87F82830 		strb	r3, [r7, #40]
1073:Lib/AI_Runtime/Npu/ll_aton/ll_aton_lib_sw_operators.c ****                                               .in_tensor = (int8_t *)LL_Buffer_addr_start(input),
 5343              		.loc 1 1073 70
 5344 00be F868     		ldr	r0, [r7, #12]
 5345 00c0 FFF7FEFF 		bl	LL_Buffer_addr_start
 5346 00c4 0346     		mov	r3, r0
1067:Lib/AI_Runtime/Npu/ll_aton/ll_aton_lib_sw_operators.c ****                                               .rank = input->ndims,
 5347              		.loc 1 1067 30
 5348 00c6 FB62     		str	r3, [r7, #44]
1074:Lib/AI_Runtime/Npu/ll_aton/ll_aton_lib_sw_operators.c ****                                               .out_tensor = (int8_t *)LL_Buffer_addr_start(output)}
 5349              		.loc 1 1074 71
 5350 00c8 7868     		ldr	r0, [r7, #4]
 5351 00ca FFF7FEFF 		bl	LL_Buffer_addr_start
 5352 00ce 0346     		mov	r3, r0
1067:Lib/AI_Runtime/Npu/ll_aton/ll_aton_lib_sw_operators.c ****                                               .rank = input->ndims,
 5353              		.loc 1 1067 30
 5354 00d0 3B63     		str	r3, [r7, #48]
1075:Lib/AI_Runtime/Npu/ll_aton/ll_aton_lib_sw_operators.c **** 
1076:Lib/AI_Runtime/Npu/ll_aton/ll_aton_lib_sw_operators.c ****   if (input->ndims <= 4)
 5355              		.loc 1 1076 12
 5356 00d2 FB68     		ldr	r3, [r7, #12]
 5357 00d4 93F82730 		ldrb	r3, [r3, #39]	@ zero_extendqisi2
 5358              		.loc 1 1076 6
ARM GAS  /tmp/ccgnzMmM.s 			page 128


 5359 00d8 042B     		cmp	r3, #4
 5360 00da 05D8     		bhi	.L318
1077:Lib/AI_Runtime/Npu/ll_aton/ll_aton_lib_sw_operators.c ****   {
1078:Lib/AI_Runtime/Npu/ll_aton/ll_aton_lib_sw_operators.c ****     __ll_aton_lib_transpose_3or4(&common_params);
 5361              		.loc 1 1078 5
 5362 00dc 07F11403 		add	r3, r7, #20
 5363 00e0 1846     		mov	r0, r3
 5364 00e2 FFF7FEFF 		bl	__ll_aton_lib_transpose_3or4
 5365 00e6 0CE0     		b	.L319
 5366              	.L318:
 5367              	.LBB63:
1079:Lib/AI_Runtime/Npu/ll_aton/ll_aton_lib_sw_operators.c ****   }
1080:Lib/AI_Runtime/Npu/ll_aton/ll_aton_lib_sw_operators.c ****   else
1081:Lib/AI_Runtime/Npu/ll_aton/ll_aton_lib_sw_operators.c ****   {
1082:Lib/AI_Runtime/Npu/ll_aton/ll_aton_lib_sw_operators.c ****     uint32_t inner_out_axis = __ll_transp_get_inner_out_axis(&common_params);
 5368              		.loc 1 1082 31
 5369 00e8 07F11403 		add	r3, r7, #20
 5370 00ec 1846     		mov	r0, r3
 5371 00ee FFF7FEFF 		bl	__ll_transp_get_inner_out_axis
 5372 00f2 7863     		str	r0, [r7, #52]
1083:Lib/AI_Runtime/Npu/ll_aton/ll_aton_lib_sw_operators.c ****     __ll_aton_lib_transpose(0, inner_out_axis, NULL, &common_params);
 5373              		.loc 1 1083 5
 5374 00f4 07F11403 		add	r3, r7, #20
 5375 00f8 0022     		movs	r2, #0
 5376 00fa 796B     		ldr	r1, [r7, #52]
 5377 00fc 0020     		movs	r0, #0
 5378 00fe FFF7FEFF 		bl	__ll_aton_lib_transpose
 5379              	.L319:
 5380              	.LBE63:
1084:Lib/AI_Runtime/Npu/ll_aton/ll_aton_lib_sw_operators.c ****   }
1085:Lib/AI_Runtime/Npu/ll_aton/ll_aton_lib_sw_operators.c **** 
1086:Lib/AI_Runtime/Npu/ll_aton/ll_aton_lib_sw_operators.c ****   return LL_ATON_OK;
 5381              		.loc 1 1086 10
 5382 0102 0023     		movs	r3, #0
 5383              	.L320:
1087:Lib/AI_Runtime/Npu/ll_aton/ll_aton_lib_sw_operators.c **** }
 5384              		.loc 1 1087 1
 5385 0104 1846     		mov	r0, r3
 5386 0106 3837     		adds	r7, r7, #56
 5387              		.cfi_def_cfa_offset 8
 5388 0108 BD46     		mov	sp, r7
 5389              		.cfi_def_cfa_register 13
 5390              		@ sp needed
 5391 010a 80BD     		pop	{r7, pc}
 5392              	.L322:
 5393              		.align	2
 5394              	.L321:
 5395 010c 00000000 		.word	__FUNCTION__.13
 5396              		.cfi_endproc
 5397              	.LFE4877:
 5399              		.section	.rodata
 5400 039b 00       		.align	2
 5401              	.LC25:
 5402 039c 28726573 		.ascii	"(rest_addr == 0) || (rest_addr == 2)\000"
 5402      745F6164 
 5402      6472203D 
 5402      3D203029 
ARM GAS  /tmp/ccgnzMmM.s 			page 129


 5402      207C7C20 
 5403 03c1 000000   		.align	2
 5404              	.LC26:
 5405 03c4 28726573 		.ascii	"(rest_dim == 0) || (rest_dim == 2)\000"
 5405      745F6469 
 5405      6D203D3D 
 5405      20302920 
 5405      7C7C2028 
 5406 03e7 00       		.align	2
 5407              	.LC27:
 5408 03e8 286E2025 		.ascii	"(n % 4) == 0\000"
 5408      20342920 
 5408      3D3D2030 
 5408      00
 5409 03f5 000000   		.align	2
 5410              	.LC28:
 5411 03f8 286E203D 		.ascii	"(n == 0) || ((((uintptr_t)_dst) % 4) == 0)\000"
 5411      3D203029 
 5411      207C7C20 
 5411      28282828 
 5411      75696E74 
 5412              		.section	.text.__ll_aton_lib_memset16,"ax",%progbits
 5413              		.align	1
 5414              		.syntax unified
 5415              		.thumb
 5416              		.thumb_func
 5418              	__ll_aton_lib_memset16:
 5419              	.LFB4878:
1088:Lib/AI_Runtime/Npu/ll_aton/ll_aton_lib_sw_operators.c **** 
1089:Lib/AI_Runtime/Npu/ll_aton/ll_aton_lib_sw_operators.c **** /**
1090:Lib/AI_Runtime/Npu/ll_aton/ll_aton_lib_sw_operators.c ****  * @brief  performs a `Pad` operation on a (multi-dimensional) matrix
1091:Lib/AI_Runtime/Npu/ll_aton/ll_aton_lib_sw_operators.c ****  * @param  input start address of input tensor
1092:Lib/AI_Runtime/Npu/ll_aton/ll_aton_lib_sw_operators.c ****  * @param  output start address of output tensor
1093:Lib/AI_Runtime/Npu/ll_aton/ll_aton_lib_sw_operators.c ****  * @param  min_shape shape obtained by performing element-wise `min` on each axis of reduced input 
1094:Lib/AI_Runtime/Npu/ll_aton/ll_aton_lib_sw_operators.c ****  * @param  mode where 0 == `constant`, 1 == `reflect`, 2 ==`edge`
1095:Lib/AI_Runtime/Npu/ll_aton/ll_aton_lib_sw_operators.c ****  * @param  nbytes 8-bit or 16-bit mode
1096:Lib/AI_Runtime/Npu/ll_aton/ll_aton_lib_sw_operators.c ****  * @param  out_elems number of output elements
1097:Lib/AI_Runtime/Npu/ll_aton/ll_aton_lib_sw_operators.c ****  * @param  constant_value constant value to be `memset`
1098:Lib/AI_Runtime/Npu/ll_aton/ll_aton_lib_sw_operators.c ****  * @param  consecutive_axis last input axis with all zero start/end paddings and whose following ax
1099:Lib/AI_Runtime/Npu/ll_aton/ll_aton_lib_sw_operators.c ****  * zero paddings (or last axis)
1100:Lib/AI_Runtime/Npu/ll_aton/ll_aton_lib_sw_operators.c ****  * @param  consecutive_elems number of consecutive elements to copy in each repetition
1101:Lib/AI_Runtime/Npu/ll_aton/ll_aton_lib_sw_operators.c ****  * @param  pad_in_offsets_start vector containing amount (in bytes) of input padding data added at 
1102:Lib/AI_Runtime/Npu/ll_aton/ll_aton_lib_sw_operators.c ****  * axis
1103:Lib/AI_Runtime/Npu/ll_aton/ll_aton_lib_sw_operators.c ****  * @param  pad_in_offsets_end vector containing amount (in bytes) of input padding data added at an
1104:Lib/AI_Runtime/Npu/ll_aton/ll_aton_lib_sw_operators.c ****  * @param  pad_out_offsets_start vector containing amount (in bytes) of output padding data added a
1105:Lib/AI_Runtime/Npu/ll_aton/ll_aton_lib_sw_operators.c ****  * axis
1106:Lib/AI_Runtime/Npu/ll_aton/ll_aton_lib_sw_operators.c ****  * @param  pad_out_offsets_end vector containing amount (in bytes) of output padding data added at 
1107:Lib/AI_Runtime/Npu/ll_aton/ll_aton_lib_sw_operators.c ****  * @retval Error code
1108:Lib/AI_Runtime/Npu/ll_aton/ll_aton_lib_sw_operators.c ****  */
1109:Lib/AI_Runtime/Npu/ll_aton/ll_aton_lib_sw_operators.c **** static void *__ll_aton_lib_memset16(void *dst, int16_t c, size_t n)
1110:Lib/AI_Runtime/Npu/ll_aton/ll_aton_lib_sw_operators.c **** {
 5420              		.loc 1 1110 1
 5421              		.cfi_startproc
 5422              		@ args = 0, pretend = 0, frame = 40
 5423              		@ frame_needed = 1, uses_anonymous_args = 0
 5424 0000 80B5     		push	{r7, lr}
 5425              		.cfi_def_cfa_offset 8
ARM GAS  /tmp/ccgnzMmM.s 			page 130


 5426              		.cfi_offset 7, -8
 5427              		.cfi_offset 14, -4
 5428 0002 8AB0     		sub	sp, sp, #40
 5429              		.cfi_def_cfa_offset 48
 5430 0004 00AF     		add	r7, sp, #0
 5431              		.cfi_def_cfa_register 7
 5432 0006 F860     		str	r0, [r7, #12]
 5433 0008 0B46     		mov	r3, r1
 5434 000a 7A60     		str	r2, [r7, #4]
 5435 000c 7B81     		strh	r3, [r7, #10]	@ movhi
1111:Lib/AI_Runtime/Npu/ll_aton/ll_aton_lib_sw_operators.c ****   uintptr_t rest_addr = ((uintptr_t)dst) % 4;
 5436              		.loc 1 1111 26
 5437 000e FB68     		ldr	r3, [r7, #12]
 5438              		.loc 1 1111 13
 5439 0010 03F00303 		and	r3, r3, #3
 5440 0014 FB61     		str	r3, [r7, #28]
1112:Lib/AI_Runtime/Npu/ll_aton/ll_aton_lib_sw_operators.c ****   int8_t *_dst = (int8_t *)dst;
 5441              		.loc 1 1112 11
 5442 0016 FB68     		ldr	r3, [r7, #12]
 5443 0018 7B62     		str	r3, [r7, #36]
1113:Lib/AI_Runtime/Npu/ll_aton/ll_aton_lib_sw_operators.c **** 
1114:Lib/AI_Runtime/Npu/ll_aton/ll_aton_lib_sw_operators.c ****   LL_ATON_ASSERT((rest_addr == 0) || (rest_addr == 2));
 5444              		.loc 1 1114 3
 5445 001a FB69     		ldr	r3, [r7, #28]
 5446 001c 002B     		cmp	r3, #0
 5447 001e 09D0     		beq	.L324
 5448              		.loc 1 1114 3 is_stmt 0 discriminator 1
 5449 0020 FB69     		ldr	r3, [r7, #28]
 5450 0022 022B     		cmp	r3, #2
 5451 0024 06D0     		beq	.L324
 5452              		.loc 1 1114 3 discriminator 2
 5453 0026 354B     		ldr	r3, .L334
 5454 0028 354A     		ldr	r2, .L334+4
 5455 002a 40F25A41 		movw	r1, #1114
 5456 002e 3548     		ldr	r0, .L334+8
 5457 0030 FFF7FEFF 		bl	__assert_func
 5458              	.L324:
1115:Lib/AI_Runtime/Npu/ll_aton/ll_aton_lib_sw_operators.c ****   if (rest_addr != 0)
 5459              		.loc 1 1115 6 is_stmt 1
 5460 0034 FB69     		ldr	r3, [r7, #28]
 5461 0036 002B     		cmp	r3, #0
 5462 0038 08D0     		beq	.L325
1116:Lib/AI_Runtime/Npu/ll_aton/ll_aton_lib_sw_operators.c ****   {
1117:Lib/AI_Runtime/Npu/ll_aton/ll_aton_lib_sw_operators.c ****     *((int16_t *)dst) = (int16_t)c;
 5463              		.loc 1 1117 23
 5464 003a FB68     		ldr	r3, [r7, #12]
 5465 003c 7A89     		ldrh	r2, [r7, #10]	@ movhi
 5466 003e 1A80     		strh	r2, [r3]	@ movhi
1118:Lib/AI_Runtime/Npu/ll_aton/ll_aton_lib_sw_operators.c ****     n -= 2;
 5467              		.loc 1 1118 7
 5468 0040 7B68     		ldr	r3, [r7, #4]
 5469 0042 023B     		subs	r3, r3, #2
 5470 0044 7B60     		str	r3, [r7, #4]
1119:Lib/AI_Runtime/Npu/ll_aton/ll_aton_lib_sw_operators.c ****     _dst += 2;
 5471              		.loc 1 1119 10
 5472 0046 7B6A     		ldr	r3, [r7, #36]
 5473 0048 0233     		adds	r3, r3, #2
ARM GAS  /tmp/ccgnzMmM.s 			page 131


 5474 004a 7B62     		str	r3, [r7, #36]
 5475              	.L325:
1120:Lib/AI_Runtime/Npu/ll_aton/ll_aton_lib_sw_operators.c ****   }
1121:Lib/AI_Runtime/Npu/ll_aton/ll_aton_lib_sw_operators.c **** 
1122:Lib/AI_Runtime/Npu/ll_aton/ll_aton_lib_sw_operators.c ****   uint32_t rest_dim = n % 4;
 5476              		.loc 1 1122 12
 5477 004c 7B68     		ldr	r3, [r7, #4]
 5478 004e 03F00303 		and	r3, r3, #3
 5479 0052 BB61     		str	r3, [r7, #24]
1123:Lib/AI_Runtime/Npu/ll_aton/ll_aton_lib_sw_operators.c ****   LL_ATON_ASSERT((rest_dim == 0) || (rest_dim == 2));
 5480              		.loc 1 1123 3
 5481 0054 BB69     		ldr	r3, [r7, #24]
 5482 0056 002B     		cmp	r3, #0
 5483 0058 09D0     		beq	.L326
 5484              		.loc 1 1123 3 is_stmt 0 discriminator 1
 5485 005a BB69     		ldr	r3, [r7, #24]
 5486 005c 022B     		cmp	r3, #2
 5487 005e 06D0     		beq	.L326
 5488              		.loc 1 1123 3 discriminator 2
 5489 0060 294B     		ldr	r3, .L334+12
 5490 0062 274A     		ldr	r2, .L334+4
 5491 0064 40F26341 		movw	r1, #1123
 5492 0068 2648     		ldr	r0, .L334+8
 5493 006a FFF7FEFF 		bl	__assert_func
 5494              	.L326:
1124:Lib/AI_Runtime/Npu/ll_aton/ll_aton_lib_sw_operators.c ****   if (rest_dim != 0)
 5495              		.loc 1 1124 6 is_stmt 1
 5496 006e BB69     		ldr	r3, [r7, #24]
 5497 0070 002B     		cmp	r3, #0
 5498 0072 08D0     		beq	.L327
1125:Lib/AI_Runtime/Npu/ll_aton/ll_aton_lib_sw_operators.c ****   {
1126:Lib/AI_Runtime/Npu/ll_aton/ll_aton_lib_sw_operators.c ****     *((int16_t *)(_dst + n - 2)) = (int16_t)c;
 5499              		.loc 1 1126 28
 5500 0074 7B68     		ldr	r3, [r7, #4]
 5501 0076 023B     		subs	r3, r3, #2
 5502 0078 7A6A     		ldr	r2, [r7, #36]
 5503 007a 1344     		add	r3, r3, r2
 5504              		.loc 1 1126 34
 5505 007c 7A89     		ldrh	r2, [r7, #10]	@ movhi
 5506 007e 1A80     		strh	r2, [r3]	@ movhi
1127:Lib/AI_Runtime/Npu/ll_aton/ll_aton_lib_sw_operators.c ****     n -= 2;
 5507              		.loc 1 1127 7
 5508 0080 7B68     		ldr	r3, [r7, #4]
 5509 0082 023B     		subs	r3, r3, #2
 5510 0084 7B60     		str	r3, [r7, #4]
 5511              	.L327:
1128:Lib/AI_Runtime/Npu/ll_aton/ll_aton_lib_sw_operators.c ****   }
1129:Lib/AI_Runtime/Npu/ll_aton/ll_aton_lib_sw_operators.c **** 
1130:Lib/AI_Runtime/Npu/ll_aton/ll_aton_lib_sw_operators.c ****   LL_ATON_ASSERT((n % 4) == 0);
 5512              		.loc 1 1130 3
 5513 0086 7B68     		ldr	r3, [r7, #4]
 5514 0088 03F00303 		and	r3, r3, #3
 5515 008c 002B     		cmp	r3, #0
 5516 008e 06D0     		beq	.L328
 5517              		.loc 1 1130 3 is_stmt 0 discriminator 1
 5518 0090 1E4B     		ldr	r3, .L334+16
 5519 0092 1B4A     		ldr	r2, .L334+4
ARM GAS  /tmp/ccgnzMmM.s 			page 132


 5520 0094 40F26A41 		movw	r1, #1130
 5521 0098 1A48     		ldr	r0, .L334+8
 5522 009a FFF7FEFF 		bl	__assert_func
 5523              	.L328:
1131:Lib/AI_Runtime/Npu/ll_aton/ll_aton_lib_sw_operators.c ****   LL_ATON_ASSERT((n == 0) || ((((uintptr_t)_dst) % 4) == 0));
 5524              		.loc 1 1131 3 is_stmt 1
 5525 009e 7B68     		ldr	r3, [r7, #4]
 5526 00a0 002B     		cmp	r3, #0
 5527 00a2 0BD0     		beq	.L329
 5528              		.loc 1 1131 3 is_stmt 0 discriminator 1
 5529 00a4 7B6A     		ldr	r3, [r7, #36]
 5530 00a6 03F00303 		and	r3, r3, #3
 5531 00aa 002B     		cmp	r3, #0
 5532 00ac 06D0     		beq	.L329
 5533              		.loc 1 1131 3 discriminator 2
 5534 00ae 184B     		ldr	r3, .L334+20
 5535 00b0 134A     		ldr	r2, .L334+4
 5536 00b2 40F26B41 		movw	r1, #1131
 5537 00b6 1348     		ldr	r0, .L334+8
 5538 00b8 FFF7FEFF 		bl	__assert_func
 5539              	.L329:
1132:Lib/AI_Runtime/Npu/ll_aton/ll_aton_lib_sw_operators.c **** 
1133:Lib/AI_Runtime/Npu/ll_aton/ll_aton_lib_sw_operators.c ****   if (n > 0)
 5540              		.loc 1 1133 6 is_stmt 1
 5541 00bc 7B68     		ldr	r3, [r7, #4]
 5542 00be 002B     		cmp	r3, #0
 5543 00c0 16D0     		beq	.L330
 5544              	.LBB64:
1134:Lib/AI_Runtime/Npu/ll_aton/ll_aton_lib_sw_operators.c ****   {
1135:Lib/AI_Runtime/Npu/ll_aton/ll_aton_lib_sw_operators.c ****     int32_t repetition_constant = (c << 16) | (0xFFFF & c);
 5545              		.loc 1 1135 38
 5546 00c2 B7F90A30 		ldrsh	r3, [r7, #10]
 5547 00c6 1A04     		lsls	r2, r3, #16
 5548              		.loc 1 1135 55
 5549 00c8 B7F90A30 		ldrsh	r3, [r7, #10]
 5550 00cc 9BB2     		uxth	r3, r3
 5551              		.loc 1 1135 13
 5552 00ce 1343     		orrs	r3, r3, r2
 5553 00d0 7B61     		str	r3, [r7, #20]
 5554              	.LBB65:
1136:Lib/AI_Runtime/Npu/ll_aton/ll_aton_lib_sw_operators.c ****     for (unsigned int i = 0; i < n; i += 4)
 5555              		.loc 1 1136 23
 5556 00d2 0023     		movs	r3, #0
 5557 00d4 3B62     		str	r3, [r7, #32]
 5558              		.loc 1 1136 5
 5559 00d6 07E0     		b	.L331
 5560              	.L332:
1137:Lib/AI_Runtime/Npu/ll_aton/ll_aton_lib_sw_operators.c ****     {
1138:Lib/AI_Runtime/Npu/ll_aton/ll_aton_lib_sw_operators.c ****       *((int32_t *)(_dst + i)) = (int32_t)repetition_constant;
 5561              		.loc 1 1138 26
 5562 00d8 7A6A     		ldr	r2, [r7, #36]
 5563 00da 3B6A     		ldr	r3, [r7, #32]
 5564 00dc 1344     		add	r3, r3, r2
 5565              		.loc 1 1138 32
 5566 00de 7A69     		ldr	r2, [r7, #20]
 5567 00e0 1A60     		str	r2, [r3]
1136:Lib/AI_Runtime/Npu/ll_aton/ll_aton_lib_sw_operators.c ****     for (unsigned int i = 0; i < n; i += 4)
ARM GAS  /tmp/ccgnzMmM.s 			page 133


 5568              		.loc 1 1136 39 discriminator 3
 5569 00e2 3B6A     		ldr	r3, [r7, #32]
 5570 00e4 0433     		adds	r3, r3, #4
 5571 00e6 3B62     		str	r3, [r7, #32]
 5572              	.L331:
1136:Lib/AI_Runtime/Npu/ll_aton/ll_aton_lib_sw_operators.c ****     for (unsigned int i = 0; i < n; i += 4)
 5573              		.loc 1 1136 32 discriminator 1
 5574 00e8 3A6A     		ldr	r2, [r7, #32]
 5575 00ea 7B68     		ldr	r3, [r7, #4]
 5576 00ec 9A42     		cmp	r2, r3
 5577 00ee F3D3     		bcc	.L332
 5578              	.L330:
 5579              	.LBE65:
 5580              	.LBE64:
1139:Lib/AI_Runtime/Npu/ll_aton/ll_aton_lib_sw_operators.c ****     }
1140:Lib/AI_Runtime/Npu/ll_aton/ll_aton_lib_sw_operators.c ****   }
1141:Lib/AI_Runtime/Npu/ll_aton/ll_aton_lib_sw_operators.c **** 
1142:Lib/AI_Runtime/Npu/ll_aton/ll_aton_lib_sw_operators.c ****   return dst;
 5581              		.loc 1 1142 10
 5582 00f0 FB68     		ldr	r3, [r7, #12]
1143:Lib/AI_Runtime/Npu/ll_aton/ll_aton_lib_sw_operators.c **** }
 5583              		.loc 1 1143 1
 5584 00f2 1846     		mov	r0, r3
 5585 00f4 2837     		adds	r7, r7, #40
 5586              		.cfi_def_cfa_offset 8
 5587 00f6 BD46     		mov	sp, r7
 5588              		.cfi_def_cfa_register 13
 5589              		@ sp needed
 5590 00f8 80BD     		pop	{r7, pc}
 5591              	.L335:
 5592 00fa 00BF     		.align	2
 5593              	.L334:
 5594 00fc 9C030000 		.word	.LC25
 5595 0100 00000000 		.word	__func__.12
 5596 0104 24000000 		.word	.LC1
 5597 0108 C4030000 		.word	.LC26
 5598 010c E8030000 		.word	.LC27
 5599 0110 F8030000 		.word	.LC28
 5600              		.cfi_endproc
 5601              	.LFE4878:
 5603              		.section	.rodata
 5604 0423 00       		.align	2
 5605              	.LC29:
 5606 0424 286E2025 		.ascii	"(n % 3) == 0\000"
 5606      20332920 
 5606      3D3D2030 
 5606      00
 5607              		.section	.text.__ll_aton_lib_memset24,"ax",%progbits
 5608              		.align	1
 5609              		.syntax unified
 5610              		.thumb
 5611              		.thumb_func
 5613              	__ll_aton_lib_memset24:
 5614              	.LFB4879:
1144:Lib/AI_Runtime/Npu/ll_aton/ll_aton_lib_sw_operators.c **** 
1145:Lib/AI_Runtime/Npu/ll_aton/ll_aton_lib_sw_operators.c **** static void *__ll_aton_lib_memset24(void *dst, int32_t c, size_t n) // NOTE: assuming no alignment
1146:Lib/AI_Runtime/Npu/ll_aton/ll_aton_lib_sw_operators.c **** {
ARM GAS  /tmp/ccgnzMmM.s 			page 134


 5615              		.loc 1 1146 1
 5616              		.cfi_startproc
 5617              		@ args = 0, pretend = 0, frame = 32
 5618              		@ frame_needed = 1, uses_anonymous_args = 0
 5619 0000 80B5     		push	{r7, lr}
 5620              		.cfi_def_cfa_offset 8
 5621              		.cfi_offset 7, -8
 5622              		.cfi_offset 14, -4
 5623 0002 88B0     		sub	sp, sp, #32
 5624              		.cfi_def_cfa_offset 40
 5625 0004 00AF     		add	r7, sp, #0
 5626              		.cfi_def_cfa_register 7
 5627 0006 F860     		str	r0, [r7, #12]
 5628 0008 B960     		str	r1, [r7, #8]
 5629 000a 7A60     		str	r2, [r7, #4]
1147:Lib/AI_Runtime/Npu/ll_aton/ll_aton_lib_sw_operators.c ****   int8_t *_dst = (int8_t *)dst;
 5630              		.loc 1 1147 11
 5631 000c FB68     		ldr	r3, [r7, #12]
 5632 000e FB61     		str	r3, [r7, #28]
1148:Lib/AI_Runtime/Npu/ll_aton/ll_aton_lib_sw_operators.c ****   int32_t num_elems = (n / 3);
 5633              		.loc 1 1148 26
 5634 0010 7B68     		ldr	r3, [r7, #4]
 5635 0012 1D4A     		ldr	r2, .L341
 5636 0014 A2FB0323 		umull	r2, r3, r2, r3
 5637 0018 5B08     		lsrs	r3, r3, #1
 5638              		.loc 1 1148 11
 5639 001a 7B61     		str	r3, [r7, #20]
1149:Lib/AI_Runtime/Npu/ll_aton/ll_aton_lib_sw_operators.c ****   LL_ATON_ASSERT((n % 3) == 0);
 5640              		.loc 1 1149 3
 5641 001c 7968     		ldr	r1, [r7, #4]
 5642 001e 1A4B     		ldr	r3, .L341
 5643 0020 A3FB0123 		umull	r2, r3, r3, r1
 5644 0024 5A08     		lsrs	r2, r3, #1
 5645 0026 1346     		mov	r3, r2
 5646 0028 5B00     		lsls	r3, r3, #1
 5647 002a 1344     		add	r3, r3, r2
 5648 002c CA1A     		subs	r2, r1, r3
 5649 002e 002A     		cmp	r2, #0
 5650 0030 06D0     		beq	.L337
 5651              		.loc 1 1149 3 is_stmt 0 discriminator 1
 5652 0032 164B     		ldr	r3, .L341+4
 5653 0034 164A     		ldr	r2, .L341+8
 5654 0036 40F27D41 		movw	r1, #1149
 5655 003a 1648     		ldr	r0, .L341+12
 5656 003c FFF7FEFF 		bl	__assert_func
 5657              	.L337:
 5658              	.LBB66:
1150:Lib/AI_Runtime/Npu/ll_aton/ll_aton_lib_sw_operators.c **** 
1151:Lib/AI_Runtime/Npu/ll_aton/ll_aton_lib_sw_operators.c ****   for (int i = 0; i < num_elems; i++)
 5659              		.loc 1 1151 12 is_stmt 1
 5660 0040 0023     		movs	r3, #0
 5661 0042 BB61     		str	r3, [r7, #24]
 5662              		.loc 1 1151 3
 5663 0044 16E0     		b	.L338
 5664              	.L339:
1152:Lib/AI_Runtime/Npu/ll_aton/ll_aton_lib_sw_operators.c ****   {
1153:Lib/AI_Runtime/Npu/ll_aton/ll_aton_lib_sw_operators.c ****     *_dst++ = c & 0xFF;
ARM GAS  /tmp/ccgnzMmM.s 			page 135


 5665              		.loc 1 1153 10
 5666 0046 FB69     		ldr	r3, [r7, #28]
 5667 0048 5A1C     		adds	r2, r3, #1
 5668 004a FA61     		str	r2, [r7, #28]
 5669              		.loc 1 1153 13
 5670 004c BA68     		ldr	r2, [r7, #8]
 5671 004e 52B2     		sxtb	r2, r2
 5672 0050 1A70     		strb	r2, [r3]
1154:Lib/AI_Runtime/Npu/ll_aton/ll_aton_lib_sw_operators.c ****     *_dst++ = (c >> 8) & 0xFF;
 5673              		.loc 1 1154 18
 5674 0052 BB68     		ldr	r3, [r7, #8]
 5675 0054 1912     		asrs	r1, r3, #8
 5676              		.loc 1 1154 10
 5677 0056 FB69     		ldr	r3, [r7, #28]
 5678 0058 5A1C     		adds	r2, r3, #1
 5679 005a FA61     		str	r2, [r7, #28]
 5680              		.loc 1 1154 13
 5681 005c 4AB2     		sxtb	r2, r1
 5682 005e 1A70     		strb	r2, [r3]
1155:Lib/AI_Runtime/Npu/ll_aton/ll_aton_lib_sw_operators.c ****     *_dst++ = (c >> 16) & 0xFF;
 5683              		.loc 1 1155 18
 5684 0060 BB68     		ldr	r3, [r7, #8]
 5685 0062 1914     		asrs	r1, r3, #16
 5686              		.loc 1 1155 10
 5687 0064 FB69     		ldr	r3, [r7, #28]
 5688 0066 5A1C     		adds	r2, r3, #1
 5689 0068 FA61     		str	r2, [r7, #28]
 5690              		.loc 1 1155 13
 5691 006a 4AB2     		sxtb	r2, r1
 5692 006c 1A70     		strb	r2, [r3]
1151:Lib/AI_Runtime/Npu/ll_aton/ll_aton_lib_sw_operators.c ****   {
 5693              		.loc 1 1151 35 discriminator 3
 5694 006e BB69     		ldr	r3, [r7, #24]
 5695 0070 0133     		adds	r3, r3, #1
 5696 0072 BB61     		str	r3, [r7, #24]
 5697              	.L338:
1151:Lib/AI_Runtime/Npu/ll_aton/ll_aton_lib_sw_operators.c ****   {
 5698              		.loc 1 1151 21 discriminator 1
 5699 0074 BA69     		ldr	r2, [r7, #24]
 5700 0076 7B69     		ldr	r3, [r7, #20]
 5701 0078 9A42     		cmp	r2, r3
 5702 007a E4DB     		blt	.L339
 5703              	.LBE66:
1156:Lib/AI_Runtime/Npu/ll_aton/ll_aton_lib_sw_operators.c ****   }
1157:Lib/AI_Runtime/Npu/ll_aton/ll_aton_lib_sw_operators.c **** 
1158:Lib/AI_Runtime/Npu/ll_aton/ll_aton_lib_sw_operators.c ****   return dst;
 5704              		.loc 1 1158 10
 5705 007c FB68     		ldr	r3, [r7, #12]
1159:Lib/AI_Runtime/Npu/ll_aton/ll_aton_lib_sw_operators.c **** }
 5706              		.loc 1 1159 1
 5707 007e 1846     		mov	r0, r3
 5708 0080 2037     		adds	r7, r7, #32
 5709              		.cfi_def_cfa_offset 8
 5710 0082 BD46     		mov	sp, r7
 5711              		.cfi_def_cfa_register 13
 5712              		@ sp needed
 5713 0084 80BD     		pop	{r7, pc}
ARM GAS  /tmp/ccgnzMmM.s 			page 136


 5714              	.L342:
 5715 0086 00BF     		.align	2
 5716              	.L341:
 5717 0088 ABAAAAAA 		.word	-1431655765
 5718 008c 24040000 		.word	.LC29
 5719 0090 00000000 		.word	__func__.11
 5720 0094 24000000 		.word	.LC1
 5721              		.cfi_endproc
 5722              	.LFE4879:
 5724              		.section	.rodata
 5725 0431 000000   		.align	2
 5726              	.LC30:
 5727 0434 28282875 		.ascii	"(((uintptr_t)dst) % 4) == 0\000"
 5727      696E7470 
 5727      74725F74 
 5727      29647374 
 5727      29202520 
 5728              		.section	.text.__ll_aton_lib_memset32,"ax",%progbits
 5729              		.align	1
 5730              		.syntax unified
 5731              		.thumb
 5732              		.thumb_func
 5734              	__ll_aton_lib_memset32:
 5735              	.LFB4880:
1160:Lib/AI_Runtime/Npu/ll_aton/ll_aton_lib_sw_operators.c **** 
1161:Lib/AI_Runtime/Npu/ll_aton/ll_aton_lib_sw_operators.c **** static void *__ll_aton_lib_memset32(void *dst, int32_t c, size_t n)
1162:Lib/AI_Runtime/Npu/ll_aton/ll_aton_lib_sw_operators.c **** {
 5736              		.loc 1 1162 1
 5737              		.cfi_startproc
 5738              		@ args = 0, pretend = 0, frame = 32
 5739              		@ frame_needed = 1, uses_anonymous_args = 0
 5740 0000 80B5     		push	{r7, lr}
 5741              		.cfi_def_cfa_offset 8
 5742              		.cfi_offset 7, -8
 5743              		.cfi_offset 14, -4
 5744 0002 88B0     		sub	sp, sp, #32
 5745              		.cfi_def_cfa_offset 40
 5746 0004 00AF     		add	r7, sp, #0
 5747              		.cfi_def_cfa_register 7
 5748 0006 F860     		str	r0, [r7, #12]
 5749 0008 B960     		str	r1, [r7, #8]
 5750 000a 7A60     		str	r2, [r7, #4]
1163:Lib/AI_Runtime/Npu/ll_aton/ll_aton_lib_sw_operators.c ****   int32_t *_dst = (int32_t *)dst;
 5751              		.loc 1 1163 12
 5752 000c FB68     		ldr	r3, [r7, #12]
 5753 000e FB61     		str	r3, [r7, #28]
1164:Lib/AI_Runtime/Npu/ll_aton/ll_aton_lib_sw_operators.c ****   int32_t num_elems = (n / 4);
 5754              		.loc 1 1164 26
 5755 0010 7B68     		ldr	r3, [r7, #4]
 5756 0012 9B08     		lsrs	r3, r3, #2
 5757              		.loc 1 1164 11
 5758 0014 7B61     		str	r3, [r7, #20]
1165:Lib/AI_Runtime/Npu/ll_aton/ll_aton_lib_sw_operators.c **** 
1166:Lib/AI_Runtime/Npu/ll_aton/ll_aton_lib_sw_operators.c ****   LL_ATON_ASSERT((((uintptr_t)dst) % 4) == 0);
 5759              		.loc 1 1166 3
 5760 0016 FB68     		ldr	r3, [r7, #12]
 5761 0018 03F00303 		and	r3, r3, #3
ARM GAS  /tmp/ccgnzMmM.s 			page 137


 5762 001c 002B     		cmp	r3, #0
 5763 001e 06D0     		beq	.L344
 5764              		.loc 1 1166 3 is_stmt 0 discriminator 1
 5765 0020 134B     		ldr	r3, .L349
 5766 0022 144A     		ldr	r2, .L349+4
 5767 0024 40F28E41 		movw	r1, #1166
 5768 0028 1348     		ldr	r0, .L349+8
 5769 002a FFF7FEFF 		bl	__assert_func
 5770              	.L344:
1167:Lib/AI_Runtime/Npu/ll_aton/ll_aton_lib_sw_operators.c ****   LL_ATON_ASSERT((n % 4) == 0);
 5771              		.loc 1 1167 3 is_stmt 1
 5772 002e 7B68     		ldr	r3, [r7, #4]
 5773 0030 03F00303 		and	r3, r3, #3
 5774 0034 002B     		cmp	r3, #0
 5775 0036 06D0     		beq	.L345
 5776              		.loc 1 1167 3 is_stmt 0 discriminator 1
 5777 0038 104B     		ldr	r3, .L349+12
 5778 003a 0E4A     		ldr	r2, .L349+4
 5779 003c 40F28F41 		movw	r1, #1167
 5780 0040 0D48     		ldr	r0, .L349+8
 5781 0042 FFF7FEFF 		bl	__assert_func
 5782              	.L345:
 5783              	.LBB67:
1168:Lib/AI_Runtime/Npu/ll_aton/ll_aton_lib_sw_operators.c **** 
1169:Lib/AI_Runtime/Npu/ll_aton/ll_aton_lib_sw_operators.c ****   for (int i = 0; i < num_elems; i++)
 5784              		.loc 1 1169 12 is_stmt 1
 5785 0046 0023     		movs	r3, #0
 5786 0048 BB61     		str	r3, [r7, #24]
 5787              		.loc 1 1169 3
 5788 004a 07E0     		b	.L346
 5789              	.L347:
1170:Lib/AI_Runtime/Npu/ll_aton/ll_aton_lib_sw_operators.c ****   {
1171:Lib/AI_Runtime/Npu/ll_aton/ll_aton_lib_sw_operators.c ****     *_dst++ = c;
 5790              		.loc 1 1171 10
 5791 004c FB69     		ldr	r3, [r7, #28]
 5792 004e 1A1D     		adds	r2, r3, #4
 5793 0050 FA61     		str	r2, [r7, #28]
 5794              		.loc 1 1171 13
 5795 0052 BA68     		ldr	r2, [r7, #8]
 5796 0054 1A60     		str	r2, [r3]
1169:Lib/AI_Runtime/Npu/ll_aton/ll_aton_lib_sw_operators.c ****   {
 5797              		.loc 1 1169 35 discriminator 3
 5798 0056 BB69     		ldr	r3, [r7, #24]
 5799 0058 0133     		adds	r3, r3, #1
 5800 005a BB61     		str	r3, [r7, #24]
 5801              	.L346:
1169:Lib/AI_Runtime/Npu/ll_aton/ll_aton_lib_sw_operators.c ****   {
 5802              		.loc 1 1169 21 discriminator 1
 5803 005c BA69     		ldr	r2, [r7, #24]
 5804 005e 7B69     		ldr	r3, [r7, #20]
 5805 0060 9A42     		cmp	r2, r3
 5806 0062 F3DB     		blt	.L347
 5807              	.LBE67:
1172:Lib/AI_Runtime/Npu/ll_aton/ll_aton_lib_sw_operators.c ****   }
1173:Lib/AI_Runtime/Npu/ll_aton/ll_aton_lib_sw_operators.c **** 
1174:Lib/AI_Runtime/Npu/ll_aton/ll_aton_lib_sw_operators.c ****   return dst;
 5808              		.loc 1 1174 10
ARM GAS  /tmp/ccgnzMmM.s 			page 138


 5809 0064 FB68     		ldr	r3, [r7, #12]
1175:Lib/AI_Runtime/Npu/ll_aton/ll_aton_lib_sw_operators.c **** }
 5810              		.loc 1 1175 1
 5811 0066 1846     		mov	r0, r3
 5812 0068 2037     		adds	r7, r7, #32
 5813              		.cfi_def_cfa_offset 8
 5814 006a BD46     		mov	sp, r7
 5815              		.cfi_def_cfa_register 13
 5816              		@ sp needed
 5817 006c 80BD     		pop	{r7, pc}
 5818              	.L350:
 5819 006e 00BF     		.align	2
 5820              	.L349:
 5821 0070 34040000 		.word	.LC30
 5822 0074 00000000 		.word	__func__.10
 5823 0078 24000000 		.word	.LC1
 5824 007c E8030000 		.word	.LC27
 5825              		.cfi_endproc
 5826              	.LFE4880:
 5828              		.section	.text.__ll_aton_lib_memset,"ax",%progbits
 5829              		.align	1
 5830              		.syntax unified
 5831              		.thumb
 5832              		.thumb_func
 5834              	__ll_aton_lib_memset:
 5835              	.LFB4881:
1176:Lib/AI_Runtime/Npu/ll_aton/ll_aton_lib_sw_operators.c **** 
1177:Lib/AI_Runtime/Npu/ll_aton/ll_aton_lib_sw_operators.c **** static inline void *__ll_aton_lib_memset(uint8_t nbytes, void *dst, int32_t c, size_t n)
1178:Lib/AI_Runtime/Npu/ll_aton/ll_aton_lib_sw_operators.c **** {
 5836              		.loc 1 1178 1
 5837              		.cfi_startproc
 5838              		@ args = 0, pretend = 0, frame = 16
 5839              		@ frame_needed = 1, uses_anonymous_args = 0
 5840 0000 80B5     		push	{r7, lr}
 5841              		.cfi_def_cfa_offset 8
 5842              		.cfi_offset 7, -8
 5843              		.cfi_offset 14, -4
 5844 0002 84B0     		sub	sp, sp, #16
 5845              		.cfi_def_cfa_offset 24
 5846 0004 00AF     		add	r7, sp, #0
 5847              		.cfi_def_cfa_register 7
 5848 0006 B960     		str	r1, [r7, #8]
 5849 0008 7A60     		str	r2, [r7, #4]
 5850 000a 3B60     		str	r3, [r7]
 5851 000c 0346     		mov	r3, r0
 5852 000e FB73     		strb	r3, [r7, #15]
1179:Lib/AI_Runtime/Npu/ll_aton/ll_aton_lib_sw_operators.c ****   if (n > 0)
 5853              		.loc 1 1179 6
 5854 0010 3B68     		ldr	r3, [r7]
 5855 0012 002B     		cmp	r3, #0
 5856 0014 33D0     		beq	.L352
1180:Lib/AI_Runtime/Npu/ll_aton/ll_aton_lib_sw_operators.c ****   {
1181:Lib/AI_Runtime/Npu/ll_aton/ll_aton_lib_sw_operators.c ****     switch (nbytes)
 5857              		.loc 1 1181 5
 5858 0016 FB7B     		ldrb	r3, [r7, #15]	@ zero_extendqisi2
 5859 0018 013B     		subs	r3, r3, #1
 5860 001a 032B     		cmp	r3, #3
ARM GAS  /tmp/ccgnzMmM.s 			page 139


 5861 001c 28D8     		bhi	.L353
 5862 001e 01A2     		adr	r2, .L355
 5863 0020 52F823F0 		ldr	pc, [r2, r3, lsl #2]
 5864              		.p2align 2
 5865              	.L355:
 5866 0024 35000000 		.word	.L358+1
 5867 0028 43000000 		.word	.L357+1
 5868 002c 55000000 		.word	.L356+1
 5869 0030 63000000 		.word	.L354+1
 5870              		.p2align 1
 5871              	.L358:
1182:Lib/AI_Runtime/Npu/ll_aton/ll_aton_lib_sw_operators.c ****     {
1183:Lib/AI_Runtime/Npu/ll_aton/ll_aton_lib_sw_operators.c ****     case 1:
1184:Lib/AI_Runtime/Npu/ll_aton/ll_aton_lib_sw_operators.c ****       return memset(dst, c, n);
 5872              		.loc 1 1184 14
 5873 0034 3A68     		ldr	r2, [r7]
 5874 0036 7968     		ldr	r1, [r7, #4]
 5875 0038 B868     		ldr	r0, [r7, #8]
 5876 003a FFF7FEFF 		bl	memset
 5877 003e 0346     		mov	r3, r0
 5878 0040 1EE0     		b	.L359
 5879              	.L357:
1185:Lib/AI_Runtime/Npu/ll_aton/ll_aton_lib_sw_operators.c ****     case 2:
1186:Lib/AI_Runtime/Npu/ll_aton/ll_aton_lib_sw_operators.c ****       return __ll_aton_lib_memset16(dst, c, n);
 5880              		.loc 1 1186 14
 5881 0042 7B68     		ldr	r3, [r7, #4]
 5882 0044 1BB2     		sxth	r3, r3
 5883 0046 3A68     		ldr	r2, [r7]
 5884 0048 1946     		mov	r1, r3
 5885 004a B868     		ldr	r0, [r7, #8]
 5886 004c FFF7FEFF 		bl	__ll_aton_lib_memset16
 5887 0050 0346     		mov	r3, r0
 5888 0052 15E0     		b	.L359
 5889              	.L356:
1187:Lib/AI_Runtime/Npu/ll_aton/ll_aton_lib_sw_operators.c ****     case 3:
1188:Lib/AI_Runtime/Npu/ll_aton/ll_aton_lib_sw_operators.c ****       return __ll_aton_lib_memset24(dst, c, n);
 5890              		.loc 1 1188 14
 5891 0054 3A68     		ldr	r2, [r7]
 5892 0056 7968     		ldr	r1, [r7, #4]
 5893 0058 B868     		ldr	r0, [r7, #8]
 5894 005a FFF7FEFF 		bl	__ll_aton_lib_memset24
 5895 005e 0346     		mov	r3, r0
 5896 0060 0EE0     		b	.L359
 5897              	.L354:
1189:Lib/AI_Runtime/Npu/ll_aton/ll_aton_lib_sw_operators.c ****     case 4:
1190:Lib/AI_Runtime/Npu/ll_aton/ll_aton_lib_sw_operators.c ****       return __ll_aton_lib_memset32(dst, c, n);
 5898              		.loc 1 1190 14
 5899 0062 3A68     		ldr	r2, [r7]
 5900 0064 7968     		ldr	r1, [r7, #4]
 5901 0066 B868     		ldr	r0, [r7, #8]
 5902 0068 FFF7FEFF 		bl	__ll_aton_lib_memset32
 5903 006c 0346     		mov	r3, r0
 5904 006e 07E0     		b	.L359
 5905              	.L353:
1191:Lib/AI_Runtime/Npu/ll_aton/ll_aton_lib_sw_operators.c ****     default:
1192:Lib/AI_Runtime/Npu/ll_aton/ll_aton_lib_sw_operators.c ****       LL_ATON_ASSERT(false);
 5906              		.loc 1 1192 7
ARM GAS  /tmp/ccgnzMmM.s 			page 140


 5907 0070 054B     		ldr	r3, .L360
 5908 0072 064A     		ldr	r2, .L360+4
 5909 0074 4FF49561 		mov	r1, #1192
 5910 0078 0548     		ldr	r0, .L360+8
 5911 007a FFF7FEFF 		bl	__assert_func
 5912              	.L352:
1193:Lib/AI_Runtime/Npu/ll_aton/ll_aton_lib_sw_operators.c ****       return dst;
1194:Lib/AI_Runtime/Npu/ll_aton/ll_aton_lib_sw_operators.c ****     }
1195:Lib/AI_Runtime/Npu/ll_aton/ll_aton_lib_sw_operators.c ****   }
1196:Lib/AI_Runtime/Npu/ll_aton/ll_aton_lib_sw_operators.c ****   else
1197:Lib/AI_Runtime/Npu/ll_aton/ll_aton_lib_sw_operators.c ****   {
1198:Lib/AI_Runtime/Npu/ll_aton/ll_aton_lib_sw_operators.c ****     return dst;
 5913              		.loc 1 1198 12
 5914 007e BB68     		ldr	r3, [r7, #8]
 5915              	.L359:
1199:Lib/AI_Runtime/Npu/ll_aton/ll_aton_lib_sw_operators.c ****   }
1200:Lib/AI_Runtime/Npu/ll_aton/ll_aton_lib_sw_operators.c **** }
 5916              		.loc 1 1200 1
 5917 0080 1846     		mov	r0, r3
 5918 0082 1037     		adds	r7, r7, #16
 5919              		.cfi_def_cfa_offset 8
 5920 0084 BD46     		mov	sp, r7
 5921              		.cfi_def_cfa_register 13
 5922              		@ sp needed
 5923 0086 80BD     		pop	{r7, pc}
 5924              	.L361:
 5925              		.align	2
 5926              	.L360:
 5927 0088 C8000000 		.word	.LC5
 5928 008c 00000000 		.word	__func__.5
 5929 0090 24000000 		.word	.LC1
 5930              		.cfi_endproc
 5931              	.LFE4881:
 5933              		.section	.text.zero_neg,"ax",%progbits
 5934              		.align	1
 5935              		.syntax unified
 5936              		.thumb
 5937              		.thumb_func
 5939              	zero_neg:
 5940              	.LFB4882:
1201:Lib/AI_Runtime/Npu/ll_aton/ll_aton_lib_sw_operators.c **** 
1202:Lib/AI_Runtime/Npu/ll_aton/ll_aton_lib_sw_operators.c **** static inline uint32_t zero_neg(int32_t value)
1203:Lib/AI_Runtime/Npu/ll_aton/ll_aton_lib_sw_operators.c **** {
 5941              		.loc 1 1203 1
 5942              		.cfi_startproc
 5943              		@ args = 0, pretend = 0, frame = 16
 5944              		@ frame_needed = 1, uses_anonymous_args = 0
 5945              		@ link register save eliminated.
 5946 0000 80B4     		push	{r7}
 5947              		.cfi_def_cfa_offset 4
 5948              		.cfi_offset 7, -4
 5949 0002 85B0     		sub	sp, sp, #20
 5950              		.cfi_def_cfa_offset 24
 5951 0004 00AF     		add	r7, sp, #0
 5952              		.cfi_def_cfa_register 7
 5953 0006 7860     		str	r0, [r7, #4]
1204:Lib/AI_Runtime/Npu/ll_aton/ll_aton_lib_sw_operators.c ****   uint32_t ret = 0;
ARM GAS  /tmp/ccgnzMmM.s 			page 141


 5954              		.loc 1 1204 12
 5955 0008 0023     		movs	r3, #0
 5956 000a FB60     		str	r3, [r7, #12]
1205:Lib/AI_Runtime/Npu/ll_aton/ll_aton_lib_sw_operators.c ****   if (value > 0)
 5957              		.loc 1 1205 6
 5958 000c 7B68     		ldr	r3, [r7, #4]
 5959 000e 002B     		cmp	r3, #0
 5960 0010 01DD     		ble	.L363
1206:Lib/AI_Runtime/Npu/ll_aton/ll_aton_lib_sw_operators.c ****   {
1207:Lib/AI_Runtime/Npu/ll_aton/ll_aton_lib_sw_operators.c ****     ret = value;
 5961              		.loc 1 1207 9
 5962 0012 7B68     		ldr	r3, [r7, #4]
 5963 0014 FB60     		str	r3, [r7, #12]
 5964              	.L363:
1208:Lib/AI_Runtime/Npu/ll_aton/ll_aton_lib_sw_operators.c ****   }
1209:Lib/AI_Runtime/Npu/ll_aton/ll_aton_lib_sw_operators.c ****   return ret;
 5965              		.loc 1 1209 10
 5966 0016 FB68     		ldr	r3, [r7, #12]
1210:Lib/AI_Runtime/Npu/ll_aton/ll_aton_lib_sw_operators.c **** }
 5967              		.loc 1 1210 1
 5968 0018 1846     		mov	r0, r3
 5969 001a 1437     		adds	r7, r7, #20
 5970              		.cfi_def_cfa_offset 4
 5971 001c BD46     		mov	sp, r7
 5972              		.cfi_def_cfa_register 13
 5973              		@ sp needed
 5974 001e 5DF8047B 		ldr	r7, [sp], #4
 5975              		.cfi_restore 7
 5976              		.cfi_def_cfa_offset 0
 5977 0022 7047     		bx	lr
 5978              		.cfi_endproc
 5979              	.LFE4882:
 5981              		.section	.rodata
 5982              		.align	2
 5983              	.LC31:
 5984 0450 6E5F656C 		.ascii	"n_elems > 0\000"
 5984      656D7320 
 5984      3E203000 
 5985              		.align	2
 5986              	.LC32:
 5987 045c 28282875 		.ascii	"(((uintptr_t)src) % 2) == 0\000"
 5987      696E7470 
 5987      74725F74 
 5987      29737263 
 5987      29202520 
 5988              		.align	2
 5989              	.LC33:
 5990 0478 28282875 		.ascii	"(((uintptr_t)src) % 4) == 0\000"
 5990      696E7470 
 5990      74725F74 
 5990      29737263 
 5990      29202520 
 5991              		.align	2
 5992              	.LC34:
 5993 0494 6473745F 		.ascii	"dst_ptr >= dst\000"
 5993      70747220 
 5993      3E3D2064 
ARM GAS  /tmp/ccgnzMmM.s 			page 142


 5993      737400
 5994 04a3 00       		.align	2
 5995              	.LC35:
 5996 04a4 7372635F 		.ascii	"src_idx < n_elems\000"
 5996      69647820 
 5996      3C206E5F 
 5996      656C656D 
 5996      7300
 5997 04b6 0000     		.align	2
 5998              	.LC36:
 5999 04b8 7372635F 		.ascii	"src_idx >= 0\000"
 5999      69647820 
 5999      3E3D2030 
 5999      00
 6000 04c5 000000   		.align	2
 6001              	.LC37:
 6002 04c8 6473745F 		.ascii	"dst_ptr < last_ptr\000"
 6002      70747220 
 6002      3C206C61 
 6002      73745F70 
 6002      747200
 6003 04db 00       		.align	2
 6004              	.LC38:
 6005 04dc 282D7372 		.ascii	"(-src_idx) < n_elems\000"
 6005      635F6964 
 6005      7829203C 
 6005      206E5F65 
 6005      6C656D73 
 6006 04f1 000000   		.align	2
 6007              	.LC39:
 6008 04f4 7372635F 		.ascii	"src_idx <= 0\000"
 6008      69647820 
 6008      3C3D2030 
 6008      00
 6009              		.section	.text.__ll_aton_lib_reflect_inner_framing_sw,"ax",%progbits
 6010              		.align	1
 6011              		.syntax unified
 6012              		.thumb
 6013              		.thumb_func
 6015              	__ll_aton_lib_reflect_inner_framing_sw:
 6016              	.LFB4883:
1211:Lib/AI_Runtime/Npu/ll_aton/ll_aton_lib_sw_operators.c **** 
1212:Lib/AI_Runtime/Npu/ll_aton/ll_aton_lib_sw_operators.c **** static inline void __ll_aton_lib_reflect_inner_framing_sw(uint32_t curr_axis, uint8_t nbytes, int8_
1213:Lib/AI_Runtime/Npu/ll_aton/ll_aton_lib_sw_operators.c ****                                                           int32_t n_elems, int32_t length, bool sta
1214:Lib/AI_Runtime/Npu/ll_aton/ll_aton_lib_sw_operators.c **** {
 6017              		.loc 1 1214 1
 6018              		.cfi_startproc
 6019              		@ args = 12, pretend = 0, frame = 48
 6020              		@ frame_needed = 1, uses_anonymous_args = 0
 6021 0000 80B5     		push	{r7, lr}
 6022              		.cfi_def_cfa_offset 8
 6023              		.cfi_offset 7, -8
 6024              		.cfi_offset 14, -4
 6025 0002 8CB0     		sub	sp, sp, #48
 6026              		.cfi_def_cfa_offset 56
 6027 0004 00AF     		add	r7, sp, #0
 6028              		.cfi_def_cfa_register 7
ARM GAS  /tmp/ccgnzMmM.s 			page 143


 6029 0006 F860     		str	r0, [r7, #12]
 6030 0008 7A60     		str	r2, [r7, #4]
 6031 000a 3B60     		str	r3, [r7]
 6032 000c 0B46     		mov	r3, r1
 6033 000e FB72     		strb	r3, [r7, #11]
1215:Lib/AI_Runtime/Npu/ll_aton/ll_aton_lib_sw_operators.c ****   LL_ATON_ASSERT(n_elems > 0);
 6034              		.loc 1 1215 3
 6035 0010 BB6B     		ldr	r3, [r7, #56]
 6036 0012 002B     		cmp	r3, #0
 6037 0014 06DC     		bgt	.L366
 6038              		.loc 1 1215 3 is_stmt 0 discriminator 1
 6039 0016 964B     		ldr	r3, .L406
 6040 0018 964A     		ldr	r2, .L406+4
 6041 001a 40F2BF41 		movw	r1, #1215
 6042 001e 9648     		ldr	r0, .L406+8
 6043 0020 FFF7FEFF 		bl	__assert_func
 6044              	.L366:
1216:Lib/AI_Runtime/Npu/ll_aton/ll_aton_lib_sw_operators.c ****   if (nbytes == 2)
 6045              		.loc 1 1216 6 is_stmt 1
 6046 0024 FB7A     		ldrb	r3, [r7, #11]	@ zero_extendqisi2
 6047 0026 022B     		cmp	r3, #2
 6048 0028 0BD1     		bne	.L367
1217:Lib/AI_Runtime/Npu/ll_aton/ll_aton_lib_sw_operators.c ****   {
1218:Lib/AI_Runtime/Npu/ll_aton/ll_aton_lib_sw_operators.c ****     LL_ATON_ASSERT((((uintptr_t)src) % 2) == 0);
 6049              		.loc 1 1218 5
 6050 002a 3B68     		ldr	r3, [r7]
 6051 002c 03F00103 		and	r3, r3, #1
 6052 0030 002B     		cmp	r3, #0
 6053 0032 06D0     		beq	.L367
 6054              		.loc 1 1218 5 is_stmt 0 discriminator 1
 6055 0034 914B     		ldr	r3, .L406+12
 6056 0036 8F4A     		ldr	r2, .L406+4
 6057 0038 40F2C241 		movw	r1, #1218
 6058 003c 8E48     		ldr	r0, .L406+8
 6059 003e FFF7FEFF 		bl	__assert_func
 6060              	.L367:
1219:Lib/AI_Runtime/Npu/ll_aton/ll_aton_lib_sw_operators.c ****   }
1220:Lib/AI_Runtime/Npu/ll_aton/ll_aton_lib_sw_operators.c ****   if (nbytes == 4)
 6061              		.loc 1 1220 6 is_stmt 1
 6062 0042 FB7A     		ldrb	r3, [r7, #11]	@ zero_extendqisi2
 6063 0044 042B     		cmp	r3, #4
 6064 0046 0BD1     		bne	.L368
1221:Lib/AI_Runtime/Npu/ll_aton/ll_aton_lib_sw_operators.c ****   {
1222:Lib/AI_Runtime/Npu/ll_aton/ll_aton_lib_sw_operators.c ****     LL_ATON_ASSERT((((uintptr_t)src) % 4) == 0);
 6065              		.loc 1 1222 5
 6066 0048 3B68     		ldr	r3, [r7]
 6067 004a 03F00303 		and	r3, r3, #3
 6068 004e 002B     		cmp	r3, #0
 6069 0050 06D0     		beq	.L368
 6070              		.loc 1 1222 5 is_stmt 0 discriminator 1
 6071 0052 8B4B     		ldr	r3, .L406+16
 6072 0054 874A     		ldr	r2, .L406+4
 6073 0056 40F2C641 		movw	r1, #1222
 6074 005a 8748     		ldr	r0, .L406+8
 6075 005c FFF7FEFF 		bl	__assert_func
 6076              	.L368:
1223:Lib/AI_Runtime/Npu/ll_aton/ll_aton_lib_sw_operators.c ****   }
ARM GAS  /tmp/ccgnzMmM.s 			page 144


1224:Lib/AI_Runtime/Npu/ll_aton/ll_aton_lib_sw_operators.c **** 
1225:Lib/AI_Runtime/Npu/ll_aton/ll_aton_lib_sw_operators.c **** #if defined(DUMP_DEBUG_SW_OPS)
1226:Lib/AI_Runtime/Npu/ll_aton/ll_aton_lib_sw_operators.c ****   LL_ATON_PRINTF("%s(%d): reflect, curr_axis=%d, dst=%p, src=%p, min_shape_elems=%d, bytes=%d\n", _
1227:Lib/AI_Runtime/Npu/ll_aton/ll_aton_lib_sw_operators.c ****                  curr_axis, dst, src, n_elems, length);
1228:Lib/AI_Runtime/Npu/ll_aton/ll_aton_lib_sw_operators.c **** #if (ATON_PLAT_HAS_FFLUSH)
1229:Lib/AI_Runtime/Npu/ll_aton/ll_aton_lib_sw_operators.c ****   LL_ATON_FFLUSH(stdout);
1230:Lib/AI_Runtime/Npu/ll_aton/ll_aton_lib_sw_operators.c **** #endif
1231:Lib/AI_Runtime/Npu/ll_aton/ll_aton_lib_sw_operators.c **** #endif
1232:Lib/AI_Runtime/Npu/ll_aton/ll_aton_lib_sw_operators.c **** 
1233:Lib/AI_Runtime/Npu/ll_aton/ll_aton_lib_sw_operators.c ****   bool forward = start;
 6077              		.loc 1 1233 8 is_stmt 1
 6078 0060 97F84030 		ldrb	r3, [r7, #64]
 6079 0064 87F82F30 		strb	r3, [r7, #47]
1234:Lib/AI_Runtime/Npu/ll_aton/ll_aton_lib_sw_operators.c **** 
1235:Lib/AI_Runtime/Npu/ll_aton/ll_aton_lib_sw_operators.c ****   if (start)
 6080              		.loc 1 1235 6
 6081 0068 97F84030 		ldrb	r3, [r7, #64]	@ zero_extendqisi2
 6082 006c 002B     		cmp	r3, #0
 6083 006e 7CD0     		beq	.L369
 6084              	.LBB68:
1236:Lib/AI_Runtime/Npu/ll_aton/ll_aton_lib_sw_operators.c ****   {
1237:Lib/AI_Runtime/Npu/ll_aton/ll_aton_lib_sw_operators.c ****     int8_t *dst_ptr = dst + length - nbytes;
 6085              		.loc 1 1237 36
 6086 0070 FA6B     		ldr	r2, [r7, #60]
 6087 0072 FB7A     		ldrb	r3, [r7, #11]	@ zero_extendqisi2
 6088 0074 D31A     		subs	r3, r2, r3
 6089              		.loc 1 1237 13
 6090 0076 7A68     		ldr	r2, [r7, #4]
 6091 0078 1344     		add	r3, r3, r2
 6092 007a BB62     		str	r3, [r7, #40]
1238:Lib/AI_Runtime/Npu/ll_aton/ll_aton_lib_sw_operators.c ****     int32_t src_idx = (n_elems > 1) ? 1 : 0;
 6093              		.loc 1 1238 41
 6094 007c BB6B     		ldr	r3, [r7, #56]
 6095 007e 012B     		cmp	r3, #1
 6096 0080 CCBF     		ite	gt
 6097 0082 0123     		movgt	r3, #1
 6098 0084 0023     		movle	r3, #0
 6099 0086 DBB2     		uxtb	r3, r3
 6100              		.loc 1 1238 13
 6101 0088 7B62     		str	r3, [r7, #36]
1239:Lib/AI_Runtime/Npu/ll_aton/ll_aton_lib_sw_operators.c **** 
1240:Lib/AI_Runtime/Npu/ll_aton/ll_aton_lib_sw_operators.c ****     for (; length > 0; length -= nbytes)
 6102              		.loc 1 1240 5
 6103 008a 6AE0     		b	.L370
 6104              	.L384:
 6105              	.LBB69:
1241:Lib/AI_Runtime/Npu/ll_aton/ll_aton_lib_sw_operators.c ****     {
1242:Lib/AI_Runtime/Npu/ll_aton/ll_aton_lib_sw_operators.c ****       LL_ATON_ASSERT(dst_ptr >= dst);
 6106              		.loc 1 1242 7
 6107 008c BA6A     		ldr	r2, [r7, #40]
 6108 008e 7B68     		ldr	r3, [r7, #4]
 6109 0090 9A42     		cmp	r2, r3
 6110 0092 06D2     		bcs	.L371
 6111              		.loc 1 1242 7 is_stmt 0 discriminator 1
 6112 0094 7B4B     		ldr	r3, .L406+20
 6113 0096 774A     		ldr	r2, .L406+4
 6114 0098 40F2DA41 		movw	r1, #1242
ARM GAS  /tmp/ccgnzMmM.s 			page 145


 6115 009c 7648     		ldr	r0, .L406+8
 6116 009e FFF7FEFF 		bl	__assert_func
 6117              	.L371:
1243:Lib/AI_Runtime/Npu/ll_aton/ll_aton_lib_sw_operators.c ****       LL_ATON_ASSERT(src_idx < n_elems);
 6118              		.loc 1 1243 7 is_stmt 1
 6119 00a2 7A6A     		ldr	r2, [r7, #36]
 6120 00a4 BB6B     		ldr	r3, [r7, #56]
 6121 00a6 9A42     		cmp	r2, r3
 6122 00a8 06DB     		blt	.L372
 6123              		.loc 1 1243 7 is_stmt 0 discriminator 1
 6124 00aa 774B     		ldr	r3, .L406+24
 6125 00ac 714A     		ldr	r2, .L406+4
 6126 00ae 40F2DB41 		movw	r1, #1243
 6127 00b2 7148     		ldr	r0, .L406+8
 6128 00b4 FFF7FEFF 		bl	__assert_func
 6129              	.L372:
1244:Lib/AI_Runtime/Npu/ll_aton/ll_aton_lib_sw_operators.c ****       LL_ATON_ASSERT(src_idx >= 0);
 6130              		.loc 1 1244 7 is_stmt 1
 6131 00b8 7B6A     		ldr	r3, [r7, #36]
 6132 00ba 002B     		cmp	r3, #0
 6133 00bc 06DA     		bge	.L373
 6134              		.loc 1 1244 7 is_stmt 0 discriminator 1
 6135 00be 734B     		ldr	r3, .L406+28
 6136 00c0 6C4A     		ldr	r2, .L406+4
 6137 00c2 40F2DC41 		movw	r1, #1244
 6138 00c6 6C48     		ldr	r0, .L406+8
 6139 00c8 FFF7FEFF 		bl	__assert_func
 6140              	.L373:
1245:Lib/AI_Runtime/Npu/ll_aton/ll_aton_lib_sw_operators.c **** 
1246:Lib/AI_Runtime/Npu/ll_aton/ll_aton_lib_sw_operators.c **** #if defined(DUMP_DEBUG_SW_OPS)
1247:Lib/AI_Runtime/Npu/ll_aton/ll_aton_lib_sw_operators.c ****       LL_ATON_PRINTF("%s(%d): reflect, curr_axis=%d, dst=%p, src=%p, src_idx=%d, nbytes=%d\n", __fu
1248:Lib/AI_Runtime/Npu/ll_aton/ll_aton_lib_sw_operators.c ****                      curr_axis, dst_ptr, src, src_idx, nbytes);
1249:Lib/AI_Runtime/Npu/ll_aton/ll_aton_lib_sw_operators.c **** #endif
1250:Lib/AI_Runtime/Npu/ll_aton/ll_aton_lib_sw_operators.c **** 
1251:Lib/AI_Runtime/Npu/ll_aton/ll_aton_lib_sw_operators.c ****       int8_t *src_ptr = (int8_t *)(&((int8_t *)src)[src_idx * nbytes]);
 6141              		.loc 1 1251 61 is_stmt 1
 6142 00cc FB7A     		ldrb	r3, [r7, #11]	@ zero_extendqisi2
 6143 00ce 7A6A     		ldr	r2, [r7, #36]
 6144 00d0 02FB03F3 		mul	r3, r2, r3
 6145 00d4 1A46     		mov	r2, r3
 6146              		.loc 1 1251 15
 6147 00d6 3B68     		ldr	r3, [r7]
 6148 00d8 1344     		add	r3, r3, r2
 6149 00da 3B61     		str	r3, [r7, #16]
1252:Lib/AI_Runtime/Npu/ll_aton/ll_aton_lib_sw_operators.c ****       __ll_aton_lib_copy_element(nbytes, src_idx, dst_ptr, src_ptr);
 6150              		.loc 1 1252 7
 6151 00dc F87A     		ldrb	r0, [r7, #11]	@ zero_extendqisi2
 6152 00de 3B69     		ldr	r3, [r7, #16]
 6153 00e0 BA6A     		ldr	r2, [r7, #40]
 6154 00e2 796A     		ldr	r1, [r7, #36]
 6155 00e4 FFF7FEFF 		bl	__ll_aton_lib_copy_element
1253:Lib/AI_Runtime/Npu/ll_aton/ll_aton_lib_sw_operators.c **** 
1254:Lib/AI_Runtime/Npu/ll_aton/ll_aton_lib_sw_operators.c ****       dst_ptr -= nbytes;
 6156              		.loc 1 1254 15
 6157 00e8 FB7A     		ldrb	r3, [r7, #11]	@ zero_extendqisi2
 6158 00ea 5B42     		rsbs	r3, r3, #0
 6159 00ec BA6A     		ldr	r2, [r7, #40]
ARM GAS  /tmp/ccgnzMmM.s 			page 146


 6160 00ee 1344     		add	r3, r3, r2
 6161 00f0 BB62     		str	r3, [r7, #40]
1255:Lib/AI_Runtime/Npu/ll_aton/ll_aton_lib_sw_operators.c ****       if (forward)
 6162              		.loc 1 1255 10
 6163 00f2 97F82F30 		ldrb	r3, [r7, #47]	@ zero_extendqisi2
 6164 00f6 002B     		cmp	r3, #0
 6165 00f8 19D0     		beq	.L374
1256:Lib/AI_Runtime/Npu/ll_aton/ll_aton_lib_sw_operators.c ****       {
1257:Lib/AI_Runtime/Npu/ll_aton/ll_aton_lib_sw_operators.c ****         if (src_idx >= (n_elems - 1))
 6166              		.loc 1 1257 33
 6167 00fa BB6B     		ldr	r3, [r7, #56]
 6168 00fc 013B     		subs	r3, r3, #1
 6169              		.loc 1 1257 12
 6170 00fe 7A6A     		ldr	r2, [r7, #36]
 6171 0100 9A42     		cmp	r2, r3
 6172 0102 0BDB     		blt	.L375
1258:Lib/AI_Runtime/Npu/ll_aton/ll_aton_lib_sw_operators.c ****         {
1259:Lib/AI_Runtime/Npu/ll_aton/ll_aton_lib_sw_operators.c ****           forward = false;
 6173              		.loc 1 1259 19
 6174 0104 0023     		movs	r3, #0
 6175 0106 87F82F30 		strb	r3, [r7, #47]
1260:Lib/AI_Runtime/Npu/ll_aton/ll_aton_lib_sw_operators.c ****           src_idx = (n_elems > 1) ? (src_idx - 1) : 0;
 6176              		.loc 1 1260 51
 6177 010a BB6B     		ldr	r3, [r7, #56]
 6178 010c 012B     		cmp	r3, #1
 6179 010e 02DD     		ble	.L376
 6180              		.loc 1 1260 51 is_stmt 0 discriminator 1
 6181 0110 7B6A     		ldr	r3, [r7, #36]
 6182 0112 013B     		subs	r3, r3, #1
 6183 0114 00E0     		b	.L377
 6184              	.L376:
 6185              		.loc 1 1260 51 discriminator 2
 6186 0116 0023     		movs	r3, #0
 6187              	.L377:
 6188              		.loc 1 1260 19 is_stmt 1 discriminator 4
 6189 0118 7B62     		str	r3, [r7, #36]
 6190 011a 1EE0     		b	.L378
 6191              	.L375:
1261:Lib/AI_Runtime/Npu/ll_aton/ll_aton_lib_sw_operators.c ****         }
1262:Lib/AI_Runtime/Npu/ll_aton/ll_aton_lib_sw_operators.c ****         else
1263:Lib/AI_Runtime/Npu/ll_aton/ll_aton_lib_sw_operators.c ****         {
1264:Lib/AI_Runtime/Npu/ll_aton/ll_aton_lib_sw_operators.c ****           src_idx = (n_elems > 1) ? (src_idx + 1) : 0;
 6192              		.loc 1 1264 51
 6193 011c BB6B     		ldr	r3, [r7, #56]
 6194 011e 012B     		cmp	r3, #1
 6195 0120 02DD     		ble	.L379
 6196              		.loc 1 1264 51 is_stmt 0 discriminator 1
 6197 0122 7B6A     		ldr	r3, [r7, #36]
 6198 0124 0133     		adds	r3, r3, #1
 6199 0126 00E0     		b	.L380
 6200              	.L379:
 6201              		.loc 1 1264 51 discriminator 2
 6202 0128 0023     		movs	r3, #0
 6203              	.L380:
 6204              		.loc 1 1264 19 is_stmt 1 discriminator 4
 6205 012a 7B62     		str	r3, [r7, #36]
 6206 012c 15E0     		b	.L378
ARM GAS  /tmp/ccgnzMmM.s 			page 147


 6207              	.L374:
1265:Lib/AI_Runtime/Npu/ll_aton/ll_aton_lib_sw_operators.c ****         }
1266:Lib/AI_Runtime/Npu/ll_aton/ll_aton_lib_sw_operators.c ****       }
1267:Lib/AI_Runtime/Npu/ll_aton/ll_aton_lib_sw_operators.c ****       else
1268:Lib/AI_Runtime/Npu/ll_aton/ll_aton_lib_sw_operators.c ****       {
1269:Lib/AI_Runtime/Npu/ll_aton/ll_aton_lib_sw_operators.c ****         if (src_idx <= 0)
 6208              		.loc 1 1269 12
 6209 012e 7B6A     		ldr	r3, [r7, #36]
 6210 0130 002B     		cmp	r3, #0
 6211 0132 0ADC     		bgt	.L381
1270:Lib/AI_Runtime/Npu/ll_aton/ll_aton_lib_sw_operators.c ****         {
1271:Lib/AI_Runtime/Npu/ll_aton/ll_aton_lib_sw_operators.c ****           forward = true;
 6212              		.loc 1 1271 19
 6213 0134 0123     		movs	r3, #1
 6214 0136 87F82F30 		strb	r3, [r7, #47]
1272:Lib/AI_Runtime/Npu/ll_aton/ll_aton_lib_sw_operators.c ****           src_idx = (n_elems > 1) ? 1 : 0;
 6215              		.loc 1 1272 39
 6216 013a BB6B     		ldr	r3, [r7, #56]
 6217 013c 012B     		cmp	r3, #1
 6218 013e CCBF     		ite	gt
 6219 0140 0123     		movgt	r3, #1
 6220 0142 0023     		movle	r3, #0
 6221 0144 DBB2     		uxtb	r3, r3
 6222              		.loc 1 1272 19
 6223 0146 7B62     		str	r3, [r7, #36]
 6224 0148 07E0     		b	.L378
 6225              	.L381:
1273:Lib/AI_Runtime/Npu/ll_aton/ll_aton_lib_sw_operators.c ****         }
1274:Lib/AI_Runtime/Npu/ll_aton/ll_aton_lib_sw_operators.c ****         else
1275:Lib/AI_Runtime/Npu/ll_aton/ll_aton_lib_sw_operators.c ****         {
1276:Lib/AI_Runtime/Npu/ll_aton/ll_aton_lib_sw_operators.c ****           src_idx = (n_elems > 1) ? (src_idx - 1) : 0;
 6226              		.loc 1 1276 51
 6227 014a BB6B     		ldr	r3, [r7, #56]
 6228 014c 012B     		cmp	r3, #1
 6229 014e 02DD     		ble	.L382
 6230              		.loc 1 1276 51 is_stmt 0 discriminator 1
 6231 0150 7B6A     		ldr	r3, [r7, #36]
 6232 0152 013B     		subs	r3, r3, #1
 6233 0154 00E0     		b	.L383
 6234              	.L382:
 6235              		.loc 1 1276 51 discriminator 2
 6236 0156 0023     		movs	r3, #0
 6237              	.L383:
 6238              		.loc 1 1276 19 is_stmt 1 discriminator 4
 6239 0158 7B62     		str	r3, [r7, #36]
 6240              	.L378:
 6241              	.LBE69:
1240:Lib/AI_Runtime/Npu/ll_aton/ll_aton_lib_sw_operators.c ****     {
 6242              		.loc 1 1240 31
 6243 015a FB7A     		ldrb	r3, [r7, #11]	@ zero_extendqisi2
 6244 015c FA6B     		ldr	r2, [r7, #60]
 6245 015e D31A     		subs	r3, r2, r3
 6246 0160 FB63     		str	r3, [r7, #60]
 6247              	.L370:
1240:Lib/AI_Runtime/Npu/ll_aton/ll_aton_lib_sw_operators.c ****     {
 6248              		.loc 1 1240 19 discriminator 1
 6249 0162 FB6B     		ldr	r3, [r7, #60]
ARM GAS  /tmp/ccgnzMmM.s 			page 148


 6250 0164 002B     		cmp	r3, #0
 6251 0166 91DC     		bgt	.L384
 6252              	.LBE68:
1277:Lib/AI_Runtime/Npu/ll_aton/ll_aton_lib_sw_operators.c ****         }
1278:Lib/AI_Runtime/Npu/ll_aton/ll_aton_lib_sw_operators.c ****       }
1279:Lib/AI_Runtime/Npu/ll_aton/ll_aton_lib_sw_operators.c ****     }
1280:Lib/AI_Runtime/Npu/ll_aton/ll_aton_lib_sw_operators.c ****   }
1281:Lib/AI_Runtime/Npu/ll_aton/ll_aton_lib_sw_operators.c ****   else
1282:Lib/AI_Runtime/Npu/ll_aton/ll_aton_lib_sw_operators.c ****   {
1283:Lib/AI_Runtime/Npu/ll_aton/ll_aton_lib_sw_operators.c ****     int8_t *dst_ptr = dst;
1284:Lib/AI_Runtime/Npu/ll_aton/ll_aton_lib_sw_operators.c **** #ifndef NDEBUG
1285:Lib/AI_Runtime/Npu/ll_aton/ll_aton_lib_sw_operators.c ****     int8_t *last_ptr = dst + length;
1286:Lib/AI_Runtime/Npu/ll_aton/ll_aton_lib_sw_operators.c **** #endif
1287:Lib/AI_Runtime/Npu/ll_aton/ll_aton_lib_sw_operators.c **** 
1288:Lib/AI_Runtime/Npu/ll_aton/ll_aton_lib_sw_operators.c ****     int32_t src_idx = (n_elems > 1) ? -1 : 0;
1289:Lib/AI_Runtime/Npu/ll_aton/ll_aton_lib_sw_operators.c ****     for (; length > 0; length -= nbytes)
1290:Lib/AI_Runtime/Npu/ll_aton/ll_aton_lib_sw_operators.c ****     {
1291:Lib/AI_Runtime/Npu/ll_aton/ll_aton_lib_sw_operators.c ****       LL_ATON_ASSERT(dst_ptr < last_ptr);
1292:Lib/AI_Runtime/Npu/ll_aton/ll_aton_lib_sw_operators.c ****       LL_ATON_ASSERT((-src_idx) < n_elems);
1293:Lib/AI_Runtime/Npu/ll_aton/ll_aton_lib_sw_operators.c ****       LL_ATON_ASSERT(src_idx <= 0);
1294:Lib/AI_Runtime/Npu/ll_aton/ll_aton_lib_sw_operators.c **** 
1295:Lib/AI_Runtime/Npu/ll_aton/ll_aton_lib_sw_operators.c ****       int8_t *src_ptr = (int8_t *)(&((int8_t *)src)[src_idx * nbytes]);
1296:Lib/AI_Runtime/Npu/ll_aton/ll_aton_lib_sw_operators.c ****       __ll_aton_lib_copy_element(nbytes, src_idx, dst_ptr, src_ptr);
1297:Lib/AI_Runtime/Npu/ll_aton/ll_aton_lib_sw_operators.c **** 
1298:Lib/AI_Runtime/Npu/ll_aton/ll_aton_lib_sw_operators.c ****       dst_ptr += nbytes;
1299:Lib/AI_Runtime/Npu/ll_aton/ll_aton_lib_sw_operators.c ****       if (forward)
1300:Lib/AI_Runtime/Npu/ll_aton/ll_aton_lib_sw_operators.c ****       {
1301:Lib/AI_Runtime/Npu/ll_aton/ll_aton_lib_sw_operators.c ****         if (src_idx >= 0)
1302:Lib/AI_Runtime/Npu/ll_aton/ll_aton_lib_sw_operators.c ****         {
1303:Lib/AI_Runtime/Npu/ll_aton/ll_aton_lib_sw_operators.c ****           forward = false;
1304:Lib/AI_Runtime/Npu/ll_aton/ll_aton_lib_sw_operators.c ****           src_idx = (n_elems > 1) ? -1 : 0;
1305:Lib/AI_Runtime/Npu/ll_aton/ll_aton_lib_sw_operators.c ****         }
1306:Lib/AI_Runtime/Npu/ll_aton/ll_aton_lib_sw_operators.c ****         else
1307:Lib/AI_Runtime/Npu/ll_aton/ll_aton_lib_sw_operators.c ****         {
1308:Lib/AI_Runtime/Npu/ll_aton/ll_aton_lib_sw_operators.c ****           src_idx = (n_elems > 1) ? (src_idx + 1) : 0;
1309:Lib/AI_Runtime/Npu/ll_aton/ll_aton_lib_sw_operators.c ****         }
1310:Lib/AI_Runtime/Npu/ll_aton/ll_aton_lib_sw_operators.c ****       }
1311:Lib/AI_Runtime/Npu/ll_aton/ll_aton_lib_sw_operators.c ****       else
1312:Lib/AI_Runtime/Npu/ll_aton/ll_aton_lib_sw_operators.c ****       {
1313:Lib/AI_Runtime/Npu/ll_aton/ll_aton_lib_sw_operators.c ****         if ((-src_idx) >= (n_elems - 1))
1314:Lib/AI_Runtime/Npu/ll_aton/ll_aton_lib_sw_operators.c ****         {
1315:Lib/AI_Runtime/Npu/ll_aton/ll_aton_lib_sw_operators.c ****           forward = true;
1316:Lib/AI_Runtime/Npu/ll_aton/ll_aton_lib_sw_operators.c ****           src_idx = (n_elems > 1) ? (src_idx + 1) : 0;
1317:Lib/AI_Runtime/Npu/ll_aton/ll_aton_lib_sw_operators.c ****         }
1318:Lib/AI_Runtime/Npu/ll_aton/ll_aton_lib_sw_operators.c ****         else
1319:Lib/AI_Runtime/Npu/ll_aton/ll_aton_lib_sw_operators.c ****         {
1320:Lib/AI_Runtime/Npu/ll_aton/ll_aton_lib_sw_operators.c ****           src_idx = (n_elems > 1) ? (src_idx - 1) : 0;
1321:Lib/AI_Runtime/Npu/ll_aton/ll_aton_lib_sw_operators.c ****         }
1322:Lib/AI_Runtime/Npu/ll_aton/ll_aton_lib_sw_operators.c ****       }
1323:Lib/AI_Runtime/Npu/ll_aton/ll_aton_lib_sw_operators.c ****     }
1324:Lib/AI_Runtime/Npu/ll_aton/ll_aton_lib_sw_operators.c ****   }
1325:Lib/AI_Runtime/Npu/ll_aton/ll_aton_lib_sw_operators.c **** }
 6253              		.loc 1 1325 1
 6254 0168 7EE0     		b	.L405
 6255              	.L369:
 6256              	.LBB70:
1283:Lib/AI_Runtime/Npu/ll_aton/ll_aton_lib_sw_operators.c **** #ifndef NDEBUG
ARM GAS  /tmp/ccgnzMmM.s 			page 149


 6257              		.loc 1 1283 13
 6258 016a 7B68     		ldr	r3, [r7, #4]
 6259 016c 3B62     		str	r3, [r7, #32]
1285:Lib/AI_Runtime/Npu/ll_aton/ll_aton_lib_sw_operators.c **** #endif
 6260              		.loc 1 1285 28
 6261 016e FB6B     		ldr	r3, [r7, #60]
1285:Lib/AI_Runtime/Npu/ll_aton/ll_aton_lib_sw_operators.c **** #endif
 6262              		.loc 1 1285 13
 6263 0170 7A68     		ldr	r2, [r7, #4]
 6264 0172 1344     		add	r3, r3, r2
 6265 0174 BB61     		str	r3, [r7, #24]
1288:Lib/AI_Runtime/Npu/ll_aton/ll_aton_lib_sw_operators.c ****     for (; length > 0; length -= nbytes)
 6266              		.loc 1 1288 42
 6267 0176 BB6B     		ldr	r3, [r7, #56]
 6268 0178 012B     		cmp	r3, #1
 6269 017a 02DD     		ble	.L386
1288:Lib/AI_Runtime/Npu/ll_aton/ll_aton_lib_sw_operators.c ****     for (; length > 0; length -= nbytes)
 6270              		.loc 1 1288 42 is_stmt 0 discriminator 1
 6271 017c 4FF0FF33 		mov	r3, #-1
 6272 0180 00E0     		b	.L387
 6273              	.L386:
1288:Lib/AI_Runtime/Npu/ll_aton/ll_aton_lib_sw_operators.c ****     for (; length > 0; length -= nbytes)
 6274              		.loc 1 1288 42 discriminator 2
 6275 0182 0023     		movs	r3, #0
 6276              	.L387:
1288:Lib/AI_Runtime/Npu/ll_aton/ll_aton_lib_sw_operators.c ****     for (; length > 0; length -= nbytes)
 6277              		.loc 1 1288 13 is_stmt 1 discriminator 4
 6278 0184 FB61     		str	r3, [r7, #28]
1289:Lib/AI_Runtime/Npu/ll_aton/ll_aton_lib_sw_operators.c ****     {
 6279              		.loc 1 1289 5
 6280 0186 6CE0     		b	.L388
 6281              	.L404:
 6282              	.LBB71:
1291:Lib/AI_Runtime/Npu/ll_aton/ll_aton_lib_sw_operators.c ****       LL_ATON_ASSERT((-src_idx) < n_elems);
 6283              		.loc 1 1291 7
 6284 0188 3A6A     		ldr	r2, [r7, #32]
 6285 018a BB69     		ldr	r3, [r7, #24]
 6286 018c 9A42     		cmp	r2, r3
 6287 018e 06D3     		bcc	.L389
1291:Lib/AI_Runtime/Npu/ll_aton/ll_aton_lib_sw_operators.c ****       LL_ATON_ASSERT((-src_idx) < n_elems);
 6288              		.loc 1 1291 7 is_stmt 0 discriminator 1
 6289 0190 3F4B     		ldr	r3, .L406+32
 6290 0192 384A     		ldr	r2, .L406+4
 6291 0194 40F20B51 		movw	r1, #1291
 6292 0198 3748     		ldr	r0, .L406+8
 6293 019a FFF7FEFF 		bl	__assert_func
 6294              	.L389:
1292:Lib/AI_Runtime/Npu/ll_aton/ll_aton_lib_sw_operators.c ****       LL_ATON_ASSERT(src_idx <= 0);
 6295              		.loc 1 1292 7 is_stmt 1
 6296 019e FB69     		ldr	r3, [r7, #28]
 6297 01a0 5B42     		rsbs	r3, r3, #0
 6298 01a2 BA6B     		ldr	r2, [r7, #56]
 6299 01a4 9A42     		cmp	r2, r3
 6300 01a6 06DC     		bgt	.L390
1292:Lib/AI_Runtime/Npu/ll_aton/ll_aton_lib_sw_operators.c ****       LL_ATON_ASSERT(src_idx <= 0);
 6301              		.loc 1 1292 7 is_stmt 0 discriminator 1
 6302 01a8 3A4B     		ldr	r3, .L406+36
ARM GAS  /tmp/ccgnzMmM.s 			page 150


 6303 01aa 324A     		ldr	r2, .L406+4
 6304 01ac 40F20C51 		movw	r1, #1292
 6305 01b0 3148     		ldr	r0, .L406+8
 6306 01b2 FFF7FEFF 		bl	__assert_func
 6307              	.L390:
1293:Lib/AI_Runtime/Npu/ll_aton/ll_aton_lib_sw_operators.c **** 
 6308              		.loc 1 1293 7 is_stmt 1
 6309 01b6 FB69     		ldr	r3, [r7, #28]
 6310 01b8 002B     		cmp	r3, #0
 6311 01ba 06DD     		ble	.L391
1293:Lib/AI_Runtime/Npu/ll_aton/ll_aton_lib_sw_operators.c **** 
 6312              		.loc 1 1293 7 is_stmt 0 discriminator 1
 6313 01bc 364B     		ldr	r3, .L406+40
 6314 01be 2D4A     		ldr	r2, .L406+4
 6315 01c0 40F20D51 		movw	r1, #1293
 6316 01c4 2C48     		ldr	r0, .L406+8
 6317 01c6 FFF7FEFF 		bl	__assert_func
 6318              	.L391:
1295:Lib/AI_Runtime/Npu/ll_aton/ll_aton_lib_sw_operators.c ****       __ll_aton_lib_copy_element(nbytes, src_idx, dst_ptr, src_ptr);
 6319              		.loc 1 1295 61 is_stmt 1
 6320 01ca FB7A     		ldrb	r3, [r7, #11]	@ zero_extendqisi2
 6321 01cc FA69     		ldr	r2, [r7, #28]
 6322 01ce 02FB03F3 		mul	r3, r2, r3
 6323 01d2 1A46     		mov	r2, r3
1295:Lib/AI_Runtime/Npu/ll_aton/ll_aton_lib_sw_operators.c ****       __ll_aton_lib_copy_element(nbytes, src_idx, dst_ptr, src_ptr);
 6324              		.loc 1 1295 15
 6325 01d4 3B68     		ldr	r3, [r7]
 6326 01d6 1344     		add	r3, r3, r2
 6327 01d8 7B61     		str	r3, [r7, #20]
1296:Lib/AI_Runtime/Npu/ll_aton/ll_aton_lib_sw_operators.c **** 
 6328              		.loc 1 1296 7
 6329 01da F87A     		ldrb	r0, [r7, #11]	@ zero_extendqisi2
 6330 01dc 7B69     		ldr	r3, [r7, #20]
 6331 01de 3A6A     		ldr	r2, [r7, #32]
 6332 01e0 F969     		ldr	r1, [r7, #28]
 6333 01e2 FFF7FEFF 		bl	__ll_aton_lib_copy_element
1298:Lib/AI_Runtime/Npu/ll_aton/ll_aton_lib_sw_operators.c ****       if (forward)
 6334              		.loc 1 1298 15
 6335 01e6 FB7A     		ldrb	r3, [r7, #11]	@ zero_extendqisi2
 6336 01e8 3A6A     		ldr	r2, [r7, #32]
 6337 01ea 1344     		add	r3, r3, r2
 6338 01ec 3B62     		str	r3, [r7, #32]
1299:Lib/AI_Runtime/Npu/ll_aton/ll_aton_lib_sw_operators.c ****       {
 6339              		.loc 1 1299 10
 6340 01ee 97F82F30 		ldrb	r3, [r7, #47]	@ zero_extendqisi2
 6341 01f2 002B     		cmp	r3, #0
 6342 01f4 17D0     		beq	.L392
1301:Lib/AI_Runtime/Npu/ll_aton/ll_aton_lib_sw_operators.c ****         {
 6343              		.loc 1 1301 12
 6344 01f6 FB69     		ldr	r3, [r7, #28]
 6345 01f8 002B     		cmp	r3, #0
 6346 01fa 0BDB     		blt	.L393
1303:Lib/AI_Runtime/Npu/ll_aton/ll_aton_lib_sw_operators.c ****           src_idx = (n_elems > 1) ? -1 : 0;
 6347              		.loc 1 1303 19
 6348 01fc 0023     		movs	r3, #0
 6349 01fe 87F82F30 		strb	r3, [r7, #47]
1304:Lib/AI_Runtime/Npu/ll_aton/ll_aton_lib_sw_operators.c ****         }
ARM GAS  /tmp/ccgnzMmM.s 			page 151


 6350              		.loc 1 1304 40
 6351 0202 BB6B     		ldr	r3, [r7, #56]
 6352 0204 012B     		cmp	r3, #1
 6353 0206 02DD     		ble	.L394
1304:Lib/AI_Runtime/Npu/ll_aton/ll_aton_lib_sw_operators.c ****         }
 6354              		.loc 1 1304 40 is_stmt 0 discriminator 1
 6355 0208 4FF0FF33 		mov	r3, #-1
 6356 020c 00E0     		b	.L395
 6357              	.L394:
1304:Lib/AI_Runtime/Npu/ll_aton/ll_aton_lib_sw_operators.c ****         }
 6358              		.loc 1 1304 40 discriminator 2
 6359 020e 0023     		movs	r3, #0
 6360              	.L395:
1304:Lib/AI_Runtime/Npu/ll_aton/ll_aton_lib_sw_operators.c ****         }
 6361              		.loc 1 1304 19 is_stmt 1 discriminator 4
 6362 0210 FB61     		str	r3, [r7, #28]
 6363 0212 22E0     		b	.L396
 6364              	.L393:
1308:Lib/AI_Runtime/Npu/ll_aton/ll_aton_lib_sw_operators.c ****         }
 6365              		.loc 1 1308 51
 6366 0214 BB6B     		ldr	r3, [r7, #56]
 6367 0216 012B     		cmp	r3, #1
 6368 0218 02DD     		ble	.L397
1308:Lib/AI_Runtime/Npu/ll_aton/ll_aton_lib_sw_operators.c ****         }
 6369              		.loc 1 1308 51 is_stmt 0 discriminator 1
 6370 021a FB69     		ldr	r3, [r7, #28]
 6371 021c 0133     		adds	r3, r3, #1
 6372 021e 00E0     		b	.L398
 6373              	.L397:
1308:Lib/AI_Runtime/Npu/ll_aton/ll_aton_lib_sw_operators.c ****         }
 6374              		.loc 1 1308 51 discriminator 2
 6375 0220 0023     		movs	r3, #0
 6376              	.L398:
1308:Lib/AI_Runtime/Npu/ll_aton/ll_aton_lib_sw_operators.c ****         }
 6377              		.loc 1 1308 19 is_stmt 1 discriminator 4
 6378 0222 FB61     		str	r3, [r7, #28]
 6379 0224 19E0     		b	.L396
 6380              	.L392:
1313:Lib/AI_Runtime/Npu/ll_aton/ll_aton_lib_sw_operators.c ****         {
 6381              		.loc 1 1313 14
 6382 0226 FB69     		ldr	r3, [r7, #28]
 6383 0228 5A42     		rsbs	r2, r3, #0
1313:Lib/AI_Runtime/Npu/ll_aton/ll_aton_lib_sw_operators.c ****         {
 6384              		.loc 1 1313 36
 6385 022a BB6B     		ldr	r3, [r7, #56]
 6386 022c 013B     		subs	r3, r3, #1
1313:Lib/AI_Runtime/Npu/ll_aton/ll_aton_lib_sw_operators.c ****         {
 6387              		.loc 1 1313 12
 6388 022e 9A42     		cmp	r2, r3
 6389 0230 0BDB     		blt	.L399
1315:Lib/AI_Runtime/Npu/ll_aton/ll_aton_lib_sw_operators.c ****           src_idx = (n_elems > 1) ? (src_idx + 1) : 0;
 6390              		.loc 1 1315 19
 6391 0232 0123     		movs	r3, #1
 6392 0234 87F82F30 		strb	r3, [r7, #47]
1316:Lib/AI_Runtime/Npu/ll_aton/ll_aton_lib_sw_operators.c ****         }
 6393              		.loc 1 1316 51
 6394 0238 BB6B     		ldr	r3, [r7, #56]
ARM GAS  /tmp/ccgnzMmM.s 			page 152


 6395 023a 012B     		cmp	r3, #1
 6396 023c 02DD     		ble	.L400
1316:Lib/AI_Runtime/Npu/ll_aton/ll_aton_lib_sw_operators.c ****         }
 6397              		.loc 1 1316 51 is_stmt 0 discriminator 1
 6398 023e FB69     		ldr	r3, [r7, #28]
 6399 0240 0133     		adds	r3, r3, #1
 6400 0242 00E0     		b	.L401
 6401              	.L400:
1316:Lib/AI_Runtime/Npu/ll_aton/ll_aton_lib_sw_operators.c ****         }
 6402              		.loc 1 1316 51 discriminator 2
 6403 0244 0023     		movs	r3, #0
 6404              	.L401:
1316:Lib/AI_Runtime/Npu/ll_aton/ll_aton_lib_sw_operators.c ****         }
 6405              		.loc 1 1316 19 is_stmt 1 discriminator 4
 6406 0246 FB61     		str	r3, [r7, #28]
 6407 0248 07E0     		b	.L396
 6408              	.L399:
1320:Lib/AI_Runtime/Npu/ll_aton/ll_aton_lib_sw_operators.c ****         }
 6409              		.loc 1 1320 51
 6410 024a BB6B     		ldr	r3, [r7, #56]
 6411 024c 012B     		cmp	r3, #1
 6412 024e 02DD     		ble	.L402
1320:Lib/AI_Runtime/Npu/ll_aton/ll_aton_lib_sw_operators.c ****         }
 6413              		.loc 1 1320 51 is_stmt 0 discriminator 1
 6414 0250 FB69     		ldr	r3, [r7, #28]
 6415 0252 013B     		subs	r3, r3, #1
 6416 0254 00E0     		b	.L403
 6417              	.L402:
1320:Lib/AI_Runtime/Npu/ll_aton/ll_aton_lib_sw_operators.c ****         }
 6418              		.loc 1 1320 51 discriminator 2
 6419 0256 0023     		movs	r3, #0
 6420              	.L403:
1320:Lib/AI_Runtime/Npu/ll_aton/ll_aton_lib_sw_operators.c ****         }
 6421              		.loc 1 1320 19 is_stmt 1 discriminator 4
 6422 0258 FB61     		str	r3, [r7, #28]
 6423              	.L396:
 6424              	.LBE71:
1289:Lib/AI_Runtime/Npu/ll_aton/ll_aton_lib_sw_operators.c ****     {
 6425              		.loc 1 1289 31
 6426 025a FB7A     		ldrb	r3, [r7, #11]	@ zero_extendqisi2
 6427 025c FA6B     		ldr	r2, [r7, #60]
 6428 025e D31A     		subs	r3, r2, r3
 6429 0260 FB63     		str	r3, [r7, #60]
 6430              	.L388:
1289:Lib/AI_Runtime/Npu/ll_aton/ll_aton_lib_sw_operators.c ****     {
 6431              		.loc 1 1289 19 discriminator 1
 6432 0262 FB6B     		ldr	r3, [r7, #60]
 6433 0264 002B     		cmp	r3, #0
 6434 0266 8FDC     		bgt	.L404
 6435              	.L405:
 6436              	.LBE70:
 6437              		.loc 1 1325 1
 6438 0268 00BF     		nop
 6439 026a 3037     		adds	r7, r7, #48
 6440              		.cfi_def_cfa_offset 8
 6441 026c BD46     		mov	sp, r7
 6442              		.cfi_def_cfa_register 13
ARM GAS  /tmp/ccgnzMmM.s 			page 153


 6443              		@ sp needed
 6444 026e 80BD     		pop	{r7, pc}
 6445              	.L407:
 6446              		.align	2
 6447              	.L406:
 6448 0270 50040000 		.word	.LC31
 6449 0274 00000000 		.word	__func__.7
 6450 0278 24000000 		.word	.LC1
 6451 027c 5C040000 		.word	.LC32
 6452 0280 78040000 		.word	.LC33
 6453 0284 94040000 		.word	.LC34
 6454 0288 A4040000 		.word	.LC35
 6455 028c B8040000 		.word	.LC36
 6456 0290 C8040000 		.word	.LC37
 6457 0294 DC040000 		.word	.LC38
 6458 0298 F4040000 		.word	.LC39
 6459              		.cfi_endproc
 6460              	.LFE4883:
 6462              		.section	.text.__ll_aton_lib_edge_framing_sw,"ax",%progbits
 6463              		.align	1
 6464              		.syntax unified
 6465              		.thumb
 6466              		.thumb_func
 6468              	__ll_aton_lib_edge_framing_sw:
 6469              	.LFB4884:
1326:Lib/AI_Runtime/Npu/ll_aton/ll_aton_lib_sw_operators.c **** 
1327:Lib/AI_Runtime/Npu/ll_aton/ll_aton_lib_sw_operators.c **** static inline void __ll_aton_lib_edge_framing_sw(uint32_t curr_axis, uint8_t nbytes, void *dst, voi
1328:Lib/AI_Runtime/Npu/ll_aton/ll_aton_lib_sw_operators.c ****                                                  int32_t length)
1329:Lib/AI_Runtime/Npu/ll_aton/ll_aton_lib_sw_operators.c **** {
 6470              		.loc 1 1329 1
 6471              		.cfi_startproc
 6472              		@ args = 4, pretend = 0, frame = 16
 6473              		@ frame_needed = 1, uses_anonymous_args = 0
 6474 0000 80B5     		push	{r7, lr}
 6475              		.cfi_def_cfa_offset 8
 6476              		.cfi_offset 7, -8
 6477              		.cfi_offset 14, -4
 6478 0002 84B0     		sub	sp, sp, #16
 6479              		.cfi_def_cfa_offset 24
 6480 0004 00AF     		add	r7, sp, #0
 6481              		.cfi_def_cfa_register 7
 6482 0006 F860     		str	r0, [r7, #12]
 6483 0008 7A60     		str	r2, [r7, #4]
 6484 000a 3B60     		str	r3, [r7]
 6485 000c 0B46     		mov	r3, r1
 6486 000e FB72     		strb	r3, [r7, #11]
1330:Lib/AI_Runtime/Npu/ll_aton/ll_aton_lib_sw_operators.c **** #if defined(DUMP_DEBUG_SW_OPS)
1331:Lib/AI_Runtime/Npu/ll_aton/ll_aton_lib_sw_operators.c ****   LL_ATON_PRINTF("%s(%d): memset, curr_axis=%d, dst=%p, src=%p, bytes=%d\n", __func__, __LINE__, cu
1332:Lib/AI_Runtime/Npu/ll_aton/ll_aton_lib_sw_operators.c ****                  length);
1333:Lib/AI_Runtime/Npu/ll_aton/ll_aton_lib_sw_operators.c **** #endif
1334:Lib/AI_Runtime/Npu/ll_aton/ll_aton_lib_sw_operators.c ****   __ll_aton_lib_memset(nbytes, dst, *((int32_t *)src), length);
 6487              		.loc 1 1334 3
 6488 0010 3B68     		ldr	r3, [r7]
 6489 0012 1A68     		ldr	r2, [r3]
 6490 0014 BB69     		ldr	r3, [r7, #24]
 6491 0016 F87A     		ldrb	r0, [r7, #11]	@ zero_extendqisi2
 6492 0018 7968     		ldr	r1, [r7, #4]
ARM GAS  /tmp/ccgnzMmM.s 			page 154


 6493 001a FFF7FEFF 		bl	__ll_aton_lib_memset
1335:Lib/AI_Runtime/Npu/ll_aton/ll_aton_lib_sw_operators.c **** }
 6494              		.loc 1 1335 1
 6495 001e 00BF     		nop
 6496 0020 1037     		adds	r7, r7, #16
 6497              		.cfi_def_cfa_offset 8
 6498 0022 BD46     		mov	sp, r7
 6499              		.cfi_def_cfa_register 13
 6500              		@ sp needed
 6501 0024 80BD     		pop	{r7, pc}
 6502              		.cfi_endproc
 6503              	.LFE4884:
 6505              		.section	.rodata
 6506 0501 000000   		.align	2
 6507              	.LC40:
 6508 0504 63757272 		.ascii	"curr_axis <= common_params->consecutive_axis\000"
 6508      5F617869 
 6508      73203C3D 
 6508      20636F6D 
 6508      6D6F6E5F 
 6509 0531 000000   		.align	2
 6510              	.LC41:
 6511 0534 636F6D6D 		.ascii	"common_params->out_target <= common_params->end_out"
 6511      6F6E5F70 
 6511      6172616D 
 6511      732D3E6F 
 6511      75745F74 
 6512 0567 5F746172 		.ascii	"_target\000"
 6512      67657400 
 6513              		.section	.text.__ll_aton_lib_pad_filling_sw,"ax",%progbits
 6514              		.align	1
 6515              		.syntax unified
 6516              		.thumb
 6517              		.thumb_func
 6519              	__ll_aton_lib_pad_filling_sw:
 6520              	.LFB4885:
1336:Lib/AI_Runtime/Npu/ll_aton/ll_aton_lib_sw_operators.c **** 
1337:Lib/AI_Runtime/Npu/ll_aton/ll_aton_lib_sw_operators.c **** static void __ll_aton_lib_pad_filling_sw(uint32_t curr_axis, __ll_pad_sw_params_t *common_params)
1338:Lib/AI_Runtime/Npu/ll_aton/ll_aton_lib_sw_operators.c **** {
 6521              		.loc 1 1338 1
 6522              		.cfi_startproc
 6523              		@ args = 0, pretend = 0, frame = 16
 6524              		@ frame_needed = 1, uses_anonymous_args = 0
 6525 0000 80B5     		push	{r7, lr}
 6526              		.cfi_def_cfa_offset 8
 6527              		.cfi_offset 7, -8
 6528              		.cfi_offset 14, -4
 6529 0002 84B0     		sub	sp, sp, #16
 6530              		.cfi_def_cfa_offset 24
 6531 0004 00AF     		add	r7, sp, #0
 6532              		.cfi_def_cfa_register 7
 6533 0006 7860     		str	r0, [r7, #4]
 6534 0008 3960     		str	r1, [r7]
1339:Lib/AI_Runtime/Npu/ll_aton/ll_aton_lib_sw_operators.c ****   LL_ATON_ASSERT(curr_axis <= common_params->consecutive_axis);
 6535              		.loc 1 1339 3
 6536 000a 3B68     		ldr	r3, [r7]
 6537 000c 1B69     		ldr	r3, [r3, #16]
ARM GAS  /tmp/ccgnzMmM.s 			page 155


 6538 000e 7A68     		ldr	r2, [r7, #4]
 6539 0010 9A42     		cmp	r2, r3
 6540 0012 06D9     		bls	.L410
 6541              		.loc 1 1339 3 is_stmt 0 discriminator 1
 6542 0014 514B     		ldr	r3, .L420
 6543 0016 524A     		ldr	r2, .L420+4
 6544 0018 40F23B51 		movw	r1, #1339
 6545 001c 5148     		ldr	r0, .L420+8
 6546 001e FFF7FEFF 		bl	__assert_func
 6547              	.L410:
1340:Lib/AI_Runtime/Npu/ll_aton/ll_aton_lib_sw_operators.c **** 
1341:Lib/AI_Runtime/Npu/ll_aton/ll_aton_lib_sw_operators.c **** #if defined(DUMP_DEBUG_SW_OPS)
1342:Lib/AI_Runtime/Npu/ll_aton/ll_aton_lib_sw_operators.c ****   LL_ATON_PRINTF("%s(%d): in=%lx, out=%lx, curr_axis=%u, min_dim=%u, in_start=%d, out_start=%d\n", 
1343:Lib/AI_Runtime/Npu/ll_aton/ll_aton_lib_sw_operators.c ****                  (uintptr_t)common_params->in_target, (uintptr_t)common_params->out_target, curr_ax
1344:Lib/AI_Runtime/Npu/ll_aton/ll_aton_lib_sw_operators.c ****                  common_params->min_shape[curr_axis], common_params->pad_in_offsets_start[curr_axis
1345:Lib/AI_Runtime/Npu/ll_aton/ll_aton_lib_sw_operators.c ****                  common_params->pad_out_offsets_start[curr_axis]);
1346:Lib/AI_Runtime/Npu/ll_aton/ll_aton_lib_sw_operators.c **** #endif
1347:Lib/AI_Runtime/Npu/ll_aton/ll_aton_lib_sw_operators.c **** 
1348:Lib/AI_Runtime/Npu/ll_aton/ll_aton_lib_sw_operators.c ****   if (common_params->pad_in_offsets_start[curr_axis] < 0)
 6548              		.loc 1 1348 20 is_stmt 1
 6549 0022 3B68     		ldr	r3, [r7]
 6550 0024 DA6B     		ldr	r2, [r3, #60]
 6551              		.loc 1 1348 42
 6552 0026 7B68     		ldr	r3, [r7, #4]
 6553 0028 9B00     		lsls	r3, r3, #2
 6554 002a 1344     		add	r3, r3, r2
 6555 002c 1B68     		ldr	r3, [r3]
 6556              		.loc 1 1348 6
 6557 002e 002B     		cmp	r3, #0
 6558 0030 0BDA     		bge	.L411
1349:Lib/AI_Runtime/Npu/ll_aton/ll_aton_lib_sw_operators.c ****   {
1350:Lib/AI_Runtime/Npu/ll_aton/ll_aton_lib_sw_operators.c ****     common_params->in_target -= common_params->pad_in_offsets_start[curr_axis];
 6559              		.loc 1 1350 18
 6560 0032 3B68     		ldr	r3, [r7]
 6561 0034 1A68     		ldr	r2, [r3]
 6562              		.loc 1 1350 46
 6563 0036 3B68     		ldr	r3, [r7]
 6564 0038 D96B     		ldr	r1, [r3, #60]
 6565              		.loc 1 1350 68
 6566 003a 7B68     		ldr	r3, [r7, #4]
 6567 003c 9B00     		lsls	r3, r3, #2
 6568 003e 0B44     		add	r3, r3, r1
 6569 0040 1B68     		ldr	r3, [r3]
 6570              		.loc 1 1350 30
 6571 0042 5B42     		rsbs	r3, r3, #0
 6572 0044 1A44     		add	r2, r2, r3
 6573 0046 3B68     		ldr	r3, [r7]
 6574 0048 1A60     		str	r2, [r3]
 6575              	.L411:
1351:Lib/AI_Runtime/Npu/ll_aton/ll_aton_lib_sw_operators.c ****   }
1352:Lib/AI_Runtime/Npu/ll_aton/ll_aton_lib_sw_operators.c **** 
1353:Lib/AI_Runtime/Npu/ll_aton/ll_aton_lib_sw_operators.c ****   if (common_params->pad_out_offsets_start[curr_axis] > 0)
 6576              		.loc 1 1353 20
 6577 004a 3B68     		ldr	r3, [r7]
 6578 004c 5A6C     		ldr	r2, [r3, #68]
 6579              		.loc 1 1353 43
 6580 004e 7B68     		ldr	r3, [r7, #4]
ARM GAS  /tmp/ccgnzMmM.s 			page 156


 6581 0050 9B00     		lsls	r3, r3, #2
 6582 0052 1344     		add	r3, r3, r2
 6583 0054 1B68     		ldr	r3, [r3]
 6584              		.loc 1 1353 6
 6585 0056 002B     		cmp	r3, #0
 6586 0058 0ADD     		ble	.L412
1354:Lib/AI_Runtime/Npu/ll_aton/ll_aton_lib_sw_operators.c ****   {
1355:Lib/AI_Runtime/Npu/ll_aton/ll_aton_lib_sw_operators.c ****     common_params->out_target += common_params->pad_out_offsets_start[curr_axis];
 6587              		.loc 1 1355 18
 6588 005a 3B68     		ldr	r3, [r7]
 6589 005c 5B68     		ldr	r3, [r3, #4]
 6590              		.loc 1 1355 47
 6591 005e 3A68     		ldr	r2, [r7]
 6592 0060 516C     		ldr	r1, [r2, #68]
 6593              		.loc 1 1355 70
 6594 0062 7A68     		ldr	r2, [r7, #4]
 6595 0064 9200     		lsls	r2, r2, #2
 6596 0066 0A44     		add	r2, r2, r1
 6597 0068 1268     		ldr	r2, [r2]
 6598              		.loc 1 1355 31
 6599 006a 1A44     		add	r2, r2, r3
 6600 006c 3B68     		ldr	r3, [r7]
 6601 006e 5A60     		str	r2, [r3, #4]
 6602              	.L412:
1356:Lib/AI_Runtime/Npu/ll_aton/ll_aton_lib_sw_operators.c ****   }
1357:Lib/AI_Runtime/Npu/ll_aton/ll_aton_lib_sw_operators.c **** 
1358:Lib/AI_Runtime/Npu/ll_aton/ll_aton_lib_sw_operators.c ****   if (curr_axis == common_params->consecutive_axis)
 6603              		.loc 1 1358 33
 6604 0070 3B68     		ldr	r3, [r7]
 6605 0072 1B69     		ldr	r3, [r3, #16]
 6606              		.loc 1 1358 6
 6607 0074 7A68     		ldr	r2, [r7, #4]
 6608 0076 9A42     		cmp	r2, r3
 6609 0078 23D1     		bne	.L413
1359:Lib/AI_Runtime/Npu/ll_aton/ll_aton_lib_sw_operators.c ****   {
1360:Lib/AI_Runtime/Npu/ll_aton/ll_aton_lib_sw_operators.c **** #if defined(DUMP_DEBUG_SW_OPS)
1361:Lib/AI_Runtime/Npu/ll_aton/ll_aton_lib_sw_operators.c ****     LL_ATON_PRINTF("%s(%d): ASSIGN in=%lx, out=%lx, bytes=%u\n", __func__, __LINE__,
1362:Lib/AI_Runtime/Npu/ll_aton/ll_aton_lib_sw_operators.c ****                    (uintptr_t)common_params->in_target, (uintptr_t)common_params->out_target,
1363:Lib/AI_Runtime/Npu/ll_aton/ll_aton_lib_sw_operators.c ****                    common_params->consecutive_bytes);
1364:Lib/AI_Runtime/Npu/ll_aton/ll_aton_lib_sw_operators.c **** #if (ATON_PLAT_HAS_FFLUSH)
1365:Lib/AI_Runtime/Npu/ll_aton/ll_aton_lib_sw_operators.c ****     LL_ATON_FFLUSH(stdout);
1366:Lib/AI_Runtime/Npu/ll_aton/ll_aton_lib_sw_operators.c **** #endif
1367:Lib/AI_Runtime/Npu/ll_aton/ll_aton_lib_sw_operators.c **** #endif
1368:Lib/AI_Runtime/Npu/ll_aton/ll_aton_lib_sw_operators.c **** 
1369:Lib/AI_Runtime/Npu/ll_aton/ll_aton_lib_sw_operators.c ****     memcpy(common_params->out_target, common_params->in_target, common_params->consecutive_bytes);
 6610              		.loc 1 1369 25
 6611 007a 3B68     		ldr	r3, [r7]
 6612 007c 5868     		ldr	r0, [r3, #4]
 6613              		.loc 1 1369 52
 6614 007e 3B68     		ldr	r3, [r7]
 6615 0080 1968     		ldr	r1, [r3]
 6616              		.loc 1 1369 78
 6617 0082 3B68     		ldr	r3, [r7]
 6618 0084 5B69     		ldr	r3, [r3, #20]
 6619              		.loc 1 1369 5
 6620 0086 1A46     		mov	r2, r3
 6621 0088 FFF7FEFF 		bl	memcpy
ARM GAS  /tmp/ccgnzMmM.s 			page 157


1370:Lib/AI_Runtime/Npu/ll_aton/ll_aton_lib_sw_operators.c ****     common_params->in_target += common_params->consecutive_bytes;
 6622              		.loc 1 1370 18
 6623 008c 3B68     		ldr	r3, [r7]
 6624 008e 1A68     		ldr	r2, [r3]
 6625              		.loc 1 1370 46
 6626 0090 3B68     		ldr	r3, [r7]
 6627 0092 5B69     		ldr	r3, [r3, #20]
 6628              		.loc 1 1370 30
 6629 0094 1A44     		add	r2, r2, r3
 6630 0096 3B68     		ldr	r3, [r7]
 6631 0098 1A60     		str	r2, [r3]
1371:Lib/AI_Runtime/Npu/ll_aton/ll_aton_lib_sw_operators.c ****     common_params->out_target += common_params->consecutive_bytes;
 6632              		.loc 1 1371 18
 6633 009a 3B68     		ldr	r3, [r7]
 6634 009c 5A68     		ldr	r2, [r3, #4]
 6635              		.loc 1 1371 47
 6636 009e 3B68     		ldr	r3, [r7]
 6637 00a0 5B69     		ldr	r3, [r3, #20]
 6638              		.loc 1 1371 31
 6639 00a2 1A44     		add	r2, r2, r3
 6640 00a4 3B68     		ldr	r3, [r7]
 6641 00a6 5A60     		str	r2, [r3, #4]
1372:Lib/AI_Runtime/Npu/ll_aton/ll_aton_lib_sw_operators.c **** 
1373:Lib/AI_Runtime/Npu/ll_aton/ll_aton_lib_sw_operators.c ****     LL_ATON_ASSERT(common_params->out_target <= common_params->end_out_target);
 6642              		.loc 1 1373 5
 6643 00a8 3B68     		ldr	r3, [r7]
 6644 00aa 5A68     		ldr	r2, [r3, #4]
 6645 00ac 3B68     		ldr	r3, [r7]
 6646 00ae 9B6A     		ldr	r3, [r3, #40]
 6647 00b0 9A42     		cmp	r2, r3
 6648 00b2 1BD9     		bls	.L414
 6649              		.loc 1 1373 5 is_stmt 0 discriminator 1
 6650 00b4 2C4B     		ldr	r3, .L420+12
 6651 00b6 2A4A     		ldr	r2, .L420+4
 6652 00b8 40F25D51 		movw	r1, #1373
 6653 00bc 2948     		ldr	r0, .L420+8
 6654 00be FFF7FEFF 		bl	__assert_func
 6655              	.L413:
 6656              	.LBB72:
1374:Lib/AI_Runtime/Npu/ll_aton/ll_aton_lib_sw_operators.c ****   }
1375:Lib/AI_Runtime/Npu/ll_aton/ll_aton_lib_sw_operators.c ****   else
1376:Lib/AI_Runtime/Npu/ll_aton/ll_aton_lib_sw_operators.c ****   {
1377:Lib/AI_Runtime/Npu/ll_aton/ll_aton_lib_sw_operators.c ****     for (uint32_t i = 0; i < common_params->min_shape[curr_axis]; i++)
 6657              		.loc 1 1377 19 is_stmt 1
 6658 00c2 0023     		movs	r3, #0
 6659 00c4 FB60     		str	r3, [r7, #12]
 6660              		.loc 1 1377 5
 6661 00c6 08E0     		b	.L415
 6662              	.L416:
1378:Lib/AI_Runtime/Npu/ll_aton/ll_aton_lib_sw_operators.c ****     {
1379:Lib/AI_Runtime/Npu/ll_aton/ll_aton_lib_sw_operators.c **** #if defined(DUMP_DEBUG_SW_OPS)
1380:Lib/AI_Runtime/Npu/ll_aton/ll_aton_lib_sw_operators.c ****       LL_ATON_PRINTF("%s(%d): i=%" PRIu32 "\n", __func__, __LINE__, i);
1381:Lib/AI_Runtime/Npu/ll_aton/ll_aton_lib_sw_operators.c **** #endif
1382:Lib/AI_Runtime/Npu/ll_aton/ll_aton_lib_sw_operators.c **** 
1383:Lib/AI_Runtime/Npu/ll_aton/ll_aton_lib_sw_operators.c ****       __ll_aton_lib_pad_filling_sw(curr_axis + 1, common_params);
 6663              		.loc 1 1383 7
 6664 00c8 7B68     		ldr	r3, [r7, #4]
ARM GAS  /tmp/ccgnzMmM.s 			page 158


 6665 00ca 0133     		adds	r3, r3, #1
 6666 00cc 3968     		ldr	r1, [r7]
 6667 00ce 1846     		mov	r0, r3
 6668 00d0 FFF796FF 		bl	__ll_aton_lib_pad_filling_sw
1377:Lib/AI_Runtime/Npu/ll_aton/ll_aton_lib_sw_operators.c ****     {
 6669              		.loc 1 1377 68 discriminator 3
 6670 00d4 FB68     		ldr	r3, [r7, #12]
 6671 00d6 0133     		adds	r3, r3, #1
 6672 00d8 FB60     		str	r3, [r7, #12]
 6673              	.L415:
1377:Lib/AI_Runtime/Npu/ll_aton/ll_aton_lib_sw_operators.c ****     {
 6674              		.loc 1 1377 43 discriminator 1
 6675 00da 3B68     		ldr	r3, [r7]
 6676 00dc 9A6B     		ldr	r2, [r3, #56]
1377:Lib/AI_Runtime/Npu/ll_aton/ll_aton_lib_sw_operators.c ****     {
 6677              		.loc 1 1377 54 discriminator 1
 6678 00de 7B68     		ldr	r3, [r7, #4]
 6679 00e0 9B00     		lsls	r3, r3, #2
 6680 00e2 1344     		add	r3, r3, r2
 6681 00e4 1B68     		ldr	r3, [r3]
1377:Lib/AI_Runtime/Npu/ll_aton/ll_aton_lib_sw_operators.c ****     {
 6682              		.loc 1 1377 28 discriminator 1
 6683 00e6 FA68     		ldr	r2, [r7, #12]
 6684 00e8 9A42     		cmp	r2, r3
 6685 00ea EDD3     		bcc	.L416
 6686              	.L414:
 6687              	.LBE72:
1384:Lib/AI_Runtime/Npu/ll_aton/ll_aton_lib_sw_operators.c ****     }
1385:Lib/AI_Runtime/Npu/ll_aton/ll_aton_lib_sw_operators.c ****   }
1386:Lib/AI_Runtime/Npu/ll_aton/ll_aton_lib_sw_operators.c **** 
1387:Lib/AI_Runtime/Npu/ll_aton/ll_aton_lib_sw_operators.c ****   if (common_params->pad_out_offsets_end[curr_axis] > 0)
 6688              		.loc 1 1387 20
 6689 00ec 3B68     		ldr	r3, [r7]
 6690 00ee 9A6C     		ldr	r2, [r3, #72]
 6691              		.loc 1 1387 41
 6692 00f0 7B68     		ldr	r3, [r7, #4]
 6693 00f2 9B00     		lsls	r3, r3, #2
 6694 00f4 1344     		add	r3, r3, r2
 6695 00f6 1B68     		ldr	r3, [r3]
 6696              		.loc 1 1387 6
 6697 00f8 002B     		cmp	r3, #0
 6698 00fa 17DD     		ble	.L417
1388:Lib/AI_Runtime/Npu/ll_aton/ll_aton_lib_sw_operators.c ****   {
1389:Lib/AI_Runtime/Npu/ll_aton/ll_aton_lib_sw_operators.c ****     common_params->out_target += common_params->pad_out_offsets_end[curr_axis];
 6699              		.loc 1 1389 18
 6700 00fc 3B68     		ldr	r3, [r7]
 6701 00fe 5B68     		ldr	r3, [r3, #4]
 6702              		.loc 1 1389 47
 6703 0100 3A68     		ldr	r2, [r7]
 6704 0102 916C     		ldr	r1, [r2, #72]
 6705              		.loc 1 1389 68
 6706 0104 7A68     		ldr	r2, [r7, #4]
 6707 0106 9200     		lsls	r2, r2, #2
 6708 0108 0A44     		add	r2, r2, r1
 6709 010a 1268     		ldr	r2, [r2]
 6710              		.loc 1 1389 31
 6711 010c 1A44     		add	r2, r2, r3
ARM GAS  /tmp/ccgnzMmM.s 			page 159


 6712 010e 3B68     		ldr	r3, [r7]
 6713 0110 5A60     		str	r2, [r3, #4]
1390:Lib/AI_Runtime/Npu/ll_aton/ll_aton_lib_sw_operators.c ****     LL_ATON_ASSERT(common_params->out_target <= common_params->end_out_target);
 6714              		.loc 1 1390 5
 6715 0112 3B68     		ldr	r3, [r7]
 6716 0114 5A68     		ldr	r2, [r3, #4]
 6717 0116 3B68     		ldr	r3, [r7]
 6718 0118 9B6A     		ldr	r3, [r3, #40]
 6719 011a 9A42     		cmp	r2, r3
 6720 011c 06D9     		bls	.L417
 6721              		.loc 1 1390 5 is_stmt 0 discriminator 1
 6722 011e 124B     		ldr	r3, .L420+12
 6723 0120 0F4A     		ldr	r2, .L420+4
 6724 0122 40F26E51 		movw	r1, #1390
 6725 0126 0F48     		ldr	r0, .L420+8
 6726 0128 FFF7FEFF 		bl	__assert_func
 6727              	.L417:
1391:Lib/AI_Runtime/Npu/ll_aton/ll_aton_lib_sw_operators.c ****   }
1392:Lib/AI_Runtime/Npu/ll_aton/ll_aton_lib_sw_operators.c **** 
1393:Lib/AI_Runtime/Npu/ll_aton/ll_aton_lib_sw_operators.c ****   if (common_params->pad_in_offsets_end[curr_axis] < 0)
 6728              		.loc 1 1393 20 is_stmt 1
 6729 012c 3B68     		ldr	r3, [r7]
 6730 012e 1A6C     		ldr	r2, [r3, #64]
 6731              		.loc 1 1393 40
 6732 0130 7B68     		ldr	r3, [r7, #4]
 6733 0132 9B00     		lsls	r3, r3, #2
 6734 0134 1344     		add	r3, r3, r2
 6735 0136 1B68     		ldr	r3, [r3]
 6736              		.loc 1 1393 6
 6737 0138 002B     		cmp	r3, #0
 6738 013a 0BDA     		bge	.L419
1394:Lib/AI_Runtime/Npu/ll_aton/ll_aton_lib_sw_operators.c ****   {
1395:Lib/AI_Runtime/Npu/ll_aton/ll_aton_lib_sw_operators.c ****     common_params->in_target -= common_params->pad_in_offsets_end[curr_axis];
 6739              		.loc 1 1395 18
 6740 013c 3B68     		ldr	r3, [r7]
 6741 013e 1A68     		ldr	r2, [r3]
 6742              		.loc 1 1395 46
 6743 0140 3B68     		ldr	r3, [r7]
 6744 0142 196C     		ldr	r1, [r3, #64]
 6745              		.loc 1 1395 66
 6746 0144 7B68     		ldr	r3, [r7, #4]
 6747 0146 9B00     		lsls	r3, r3, #2
 6748 0148 0B44     		add	r3, r3, r1
 6749 014a 1B68     		ldr	r3, [r3]
 6750              		.loc 1 1395 30
 6751 014c 5B42     		rsbs	r3, r3, #0
 6752 014e 1A44     		add	r2, r2, r3
 6753 0150 3B68     		ldr	r3, [r7]
 6754 0152 1A60     		str	r2, [r3]
 6755              	.L419:
1396:Lib/AI_Runtime/Npu/ll_aton/ll_aton_lib_sw_operators.c ****   }
1397:Lib/AI_Runtime/Npu/ll_aton/ll_aton_lib_sw_operators.c **** 
1398:Lib/AI_Runtime/Npu/ll_aton/ll_aton_lib_sw_operators.c **** #if defined(DUMP_DEBUG_SW_OPS)
1399:Lib/AI_Runtime/Npu/ll_aton/ll_aton_lib_sw_operators.c ****   LL_ATON_PRINTF("%s(%d): curr_axis=%u, in_end=%d, out_end=%d\n", __func__, __LINE__, curr_axis,
1400:Lib/AI_Runtime/Npu/ll_aton/ll_aton_lib_sw_operators.c ****                  common_params->pad_in_offsets_end[curr_axis], common_params->pad_out_offsets_end[c
1401:Lib/AI_Runtime/Npu/ll_aton/ll_aton_lib_sw_operators.c **** #endif
1402:Lib/AI_Runtime/Npu/ll_aton/ll_aton_lib_sw_operators.c **** }
ARM GAS  /tmp/ccgnzMmM.s 			page 160


 6756              		.loc 1 1402 1
 6757 0154 00BF     		nop
 6758 0156 1037     		adds	r7, r7, #16
 6759              		.cfi_def_cfa_offset 8
 6760 0158 BD46     		mov	sp, r7
 6761              		.cfi_def_cfa_register 13
 6762              		@ sp needed
 6763 015a 80BD     		pop	{r7, pc}
 6764              	.L421:
 6765              		.align	2
 6766              	.L420:
 6767 015c 04050000 		.word	.LC40
 6768 0160 00000000 		.word	__func__.9
 6769 0164 24000000 		.word	.LC1
 6770 0168 34050000 		.word	.LC41
 6771              		.cfi_endproc
 6772              	.LFE4885:
 6774              		.section	.rodata
 6775 056f 00       		.align	2
 6776              	.LC42:
 6777 0570 63757272 		.ascii	"curr_axis <= (common_params->tensor_rank - 1)\000"
 6777      5F617869 
 6777      73203C3D 
 6777      2028636F 
 6777      6D6D6F6E 
 6778 059e 0000     		.align	2
 6779              	.LC43:
 6780 05a0 636F6D6D 		.ascii	"common_params->pad_in_offsets_start[curr_axis] >= 0"
 6780      6F6E5F70 
 6780      6172616D 
 6780      732D3E70 
 6780      61645F69 
 6781 05d3 00       		.ascii	"\000"
 6782              		.align	2
 6783              	.LC44:
 6784 05d4 7061645F 		.ascii	"pad_end >= 0\000"
 6784      656E6420 
 6784      3E3D2030 
 6784      00
 6785 05e1 000000   		.align	2
 6786              	.LC45:
 6787 05e4 6473745F 		.ascii	"dst_ptr >= curr_out_ptr\000"
 6787      70747220 
 6787      3E3D2063 
 6787      7572725F 
 6787      6F75745F 
 6788              		.align	2
 6789              	.LC46:
 6790 05fc 6473745F 		.ascii	"dst_ptr < (dst_ptr + common_params->pad_out_offsets"
 6790      70747220 
 6790      3C202864 
 6790      73745F70 
 6790      7472202B 
 6791 062f 5F656E64 		.ascii	"_end[curr_axis])\000"
 6791      5B637572 
 6791      725F6178 
 6791      69735D29 
ARM GAS  /tmp/ccgnzMmM.s 			page 161


 6791      00
 6792              		.align	2
 6793              	.LC47:
 6794 0640 636F6D6D 		.ascii	"common_params->pad_in_offsets_end[curr_axis] >= 0\000"
 6794      6F6E5F70 
 6794      6172616D 
 6794      732D3E70 
 6794      61645F69 
 6795              		.section	.text.__ll_aton_lib_pad_reflect_sw,"ax",%progbits
 6796              		.align	1
 6797              		.syntax unified
 6798              		.thumb
 6799              		.thumb_func
 6801              	__ll_aton_lib_pad_reflect_sw:
 6802              	.LFB4886:
1403:Lib/AI_Runtime/Npu/ll_aton/ll_aton_lib_sw_operators.c **** 
1404:Lib/AI_Runtime/Npu/ll_aton/ll_aton_lib_sw_operators.c **** static void __ll_aton_lib_pad_reflect_sw(uint32_t curr_axis, __ll_pad_sw_params_t *common_params, b
1405:Lib/AI_Runtime/Npu/ll_aton/ll_aton_lib_sw_operators.c **** {
 6803              		.loc 1 1405 1
 6804              		.cfi_startproc
 6805              		@ args = 0, pretend = 0, frame = 112
 6806              		@ frame_needed = 1, uses_anonymous_args = 0
 6807 0000 90B5     		push	{r4, r7, lr}
 6808              		.cfi_def_cfa_offset 12
 6809              		.cfi_offset 4, -12
 6810              		.cfi_offset 7, -8
 6811              		.cfi_offset 14, -4
 6812 0002 A1B0     		sub	sp, sp, #132
 6813              		.cfi_def_cfa_offset 144
 6814 0004 04AF     		add	r7, sp, #16
 6815              		.cfi_def_cfa 7, 128
 6816 0006 F860     		str	r0, [r7, #12]
 6817 0008 B960     		str	r1, [r7, #8]
 6818 000a 1346     		mov	r3, r2
 6819 000c FB71     		strb	r3, [r7, #7]
1406:Lib/AI_Runtime/Npu/ll_aton/ll_aton_lib_sw_operators.c ****   LL_ATON_ASSERT(curr_axis <= (common_params->tensor_rank - 1));
 6820              		.loc 1 1406 3
 6821 000e BB68     		ldr	r3, [r7, #8]
 6822 0010 5B6A     		ldr	r3, [r3, #36]
 6823 0012 013B     		subs	r3, r3, #1
 6824 0014 FA68     		ldr	r2, [r7, #12]
 6825 0016 9A42     		cmp	r2, r3
 6826 0018 06D9     		bls	.L423
 6827              		.loc 1 1406 3 is_stmt 0 discriminator 1
 6828 001a 914B     		ldr	r3, .L472
 6829 001c 914A     		ldr	r2, .L472+4
 6830 001e 40F27E51 		movw	r1, #1406
 6831 0022 9148     		ldr	r0, .L472+8
 6832 0024 FFF7FEFF 		bl	__assert_func
 6833              	.L423:
1407:Lib/AI_Runtime/Npu/ll_aton/ll_aton_lib_sw_operators.c ****   LL_ATON_ASSERT(common_params->pad_in_offsets_start[curr_axis] >= 0);
 6834              		.loc 1 1407 3 is_stmt 1
 6835 0028 BB68     		ldr	r3, [r7, #8]
 6836 002a DA6B     		ldr	r2, [r3, #60]
 6837 002c FB68     		ldr	r3, [r7, #12]
 6838 002e 9B00     		lsls	r3, r3, #2
 6839 0030 1344     		add	r3, r3, r2
ARM GAS  /tmp/ccgnzMmM.s 			page 162


 6840 0032 1B68     		ldr	r3, [r3]
 6841 0034 002B     		cmp	r3, #0
 6842 0036 06DA     		bge	.L424
 6843              		.loc 1 1407 3 is_stmt 0 discriminator 1
 6844 0038 8C4B     		ldr	r3, .L472+12
 6845 003a 8A4A     		ldr	r2, .L472+4
 6846 003c 40F27F51 		movw	r1, #1407
 6847 0040 8948     		ldr	r0, .L472+8
 6848 0042 FFF7FEFF 		bl	__assert_func
 6849              	.L424:
1408:Lib/AI_Runtime/Npu/ll_aton/ll_aton_lib_sw_operators.c **** 
1409:Lib/AI_Runtime/Npu/ll_aton/ll_aton_lib_sw_operators.c ****   int8_t *curr_out_ptr = common_params->out_target;
 6850              		.loc 1 1409 11 is_stmt 1
 6851 0046 BB68     		ldr	r3, [r7, #8]
 6852 0048 5B68     		ldr	r3, [r3, #4]
 6853 004a BB64     		str	r3, [r7, #72]
1410:Lib/AI_Runtime/Npu/ll_aton/ll_aton_lib_sw_operators.c **** 
1411:Lib/AI_Runtime/Npu/ll_aton/ll_aton_lib_sw_operators.c ****   if (common_params->pad_out_offsets_start[curr_axis] > 0)
 6854              		.loc 1 1411 20
 6855 004c BB68     		ldr	r3, [r7, #8]
 6856 004e 5A6C     		ldr	r2, [r3, #68]
 6857              		.loc 1 1411 43
 6858 0050 FB68     		ldr	r3, [r7, #12]
 6859 0052 9B00     		lsls	r3, r3, #2
 6860 0054 1344     		add	r3, r3, r2
 6861 0056 1B68     		ldr	r3, [r3]
 6862              		.loc 1 1411 6
 6863 0058 002B     		cmp	r3, #0
 6864 005a 0ADD     		ble	.L425
1412:Lib/AI_Runtime/Npu/ll_aton/ll_aton_lib_sw_operators.c ****   {
1413:Lib/AI_Runtime/Npu/ll_aton/ll_aton_lib_sw_operators.c ****     common_params->out_target += common_params->pad_out_offsets_start[curr_axis];
 6865              		.loc 1 1413 18
 6866 005c BB68     		ldr	r3, [r7, #8]
 6867 005e 5B68     		ldr	r3, [r3, #4]
 6868              		.loc 1 1413 47
 6869 0060 BA68     		ldr	r2, [r7, #8]
 6870 0062 516C     		ldr	r1, [r2, #68]
 6871              		.loc 1 1413 70
 6872 0064 FA68     		ldr	r2, [r7, #12]
 6873 0066 9200     		lsls	r2, r2, #2
 6874 0068 0A44     		add	r2, r2, r1
 6875 006a 1268     		ldr	r2, [r2]
 6876              		.loc 1 1413 31
 6877 006c 1A44     		add	r2, r2, r3
 6878 006e BB68     		ldr	r3, [r7, #8]
 6879 0070 5A60     		str	r2, [r3, #4]
 6880              	.L425:
1414:Lib/AI_Runtime/Npu/ll_aton/ll_aton_lib_sw_operators.c ****   }
1415:Lib/AI_Runtime/Npu/ll_aton/ll_aton_lib_sw_operators.c **** 
1416:Lib/AI_Runtime/Npu/ll_aton/ll_aton_lib_sw_operators.c ****   if (curr_axis == (common_params->tensor_rank - 1))
 6881              		.loc 1 1416 34
 6882 0072 BB68     		ldr	r3, [r7, #8]
 6883 0074 5B6A     		ldr	r3, [r3, #36]
 6884              		.loc 1 1416 48
 6885 0076 013B     		subs	r3, r3, #1
 6886              		.loc 1 1416 6
 6887 0078 FA68     		ldr	r2, [r7, #12]
ARM GAS  /tmp/ccgnzMmM.s 			page 163


 6888 007a 9A42     		cmp	r2, r3
 6889 007c 51D1     		bne	.L426
 6890              	.LBB73:
1417:Lib/AI_Runtime/Npu/ll_aton/ll_aton_lib_sw_operators.c ****   {
1418:Lib/AI_Runtime/Npu/ll_aton/ll_aton_lib_sw_operators.c ****     if (common_params->pad_out_offsets_start[curr_axis] > 0)
 6891              		.loc 1 1418 22
 6892 007e BB68     		ldr	r3, [r7, #8]
 6893 0080 5A6C     		ldr	r2, [r3, #68]
 6894              		.loc 1 1418 45
 6895 0082 FB68     		ldr	r3, [r7, #12]
 6896 0084 9B00     		lsls	r3, r3, #2
 6897 0086 1344     		add	r3, r3, r2
 6898 0088 1B68     		ldr	r3, [r3]
 6899              		.loc 1 1418 8
 6900 008a 002B     		cmp	r3, #0
 6901 008c 19DD     		ble	.L427
1419:Lib/AI_Runtime/Npu/ll_aton/ll_aton_lib_sw_operators.c ****     {
1420:Lib/AI_Runtime/Npu/ll_aton/ll_aton_lib_sw_operators.c ****       __ll_aton_lib_reflect_inner_framing_sw(curr_axis, common_params->nbytes, curr_out_ptr, common
 6902              		.loc 1 1420 7
 6903 008e BB68     		ldr	r3, [r7, #8]
 6904 0090 197E     		ldrb	r1, [r3, #24]	@ zero_extendqisi2
 6905 0092 BB68     		ldr	r3, [r7, #8]
 6906 0094 1868     		ldr	r0, [r3]
1421:Lib/AI_Runtime/Npu/ll_aton/ll_aton_lib_sw_operators.c ****                                              common_params->min_shape[curr_axis],
 6907              		.loc 1 1421 59
 6908 0096 BB68     		ldr	r3, [r7, #8]
 6909 0098 9A6B     		ldr	r2, [r3, #56]
 6910              		.loc 1 1421 70
 6911 009a FB68     		ldr	r3, [r7, #12]
 6912 009c 9B00     		lsls	r3, r3, #2
 6913 009e 1344     		add	r3, r3, r2
 6914 00a0 1B68     		ldr	r3, [r3]
1420:Lib/AI_Runtime/Npu/ll_aton/ll_aton_lib_sw_operators.c ****                                              common_params->min_shape[curr_axis],
 6915              		.loc 1 1420 7
 6916 00a2 1C46     		mov	r4, r3
1422:Lib/AI_Runtime/Npu/ll_aton/ll_aton_lib_sw_operators.c ****                                              common_params->pad_out_offsets_start[curr_axis], true)
 6917              		.loc 1 1422 59
 6918 00a4 BB68     		ldr	r3, [r7, #8]
 6919 00a6 5A6C     		ldr	r2, [r3, #68]
 6920              		.loc 1 1422 82
 6921 00a8 FB68     		ldr	r3, [r7, #12]
 6922 00aa 9B00     		lsls	r3, r3, #2
 6923 00ac 1344     		add	r3, r3, r2
1420:Lib/AI_Runtime/Npu/ll_aton/ll_aton_lib_sw_operators.c ****                                              common_params->min_shape[curr_axis],
 6924              		.loc 1 1420 7
 6925 00ae 1B68     		ldr	r3, [r3]
 6926 00b0 0122     		movs	r2, #1
 6927 00b2 0292     		str	r2, [sp, #8]
 6928 00b4 0193     		str	r3, [sp, #4]
 6929 00b6 0094     		str	r4, [sp]
 6930 00b8 0346     		mov	r3, r0
 6931 00ba BA6C     		ldr	r2, [r7, #72]
 6932 00bc F868     		ldr	r0, [r7, #12]
 6933 00be FFF7FEFF 		bl	__ll_aton_lib_reflect_inner_framing_sw
 6934              	.L427:
1423:Lib/AI_Runtime/Npu/ll_aton/ll_aton_lib_sw_operators.c ****     }
1424:Lib/AI_Runtime/Npu/ll_aton/ll_aton_lib_sw_operators.c **** 
ARM GAS  /tmp/ccgnzMmM.s 			page 164


1425:Lib/AI_Runtime/Npu/ll_aton/ll_aton_lib_sw_operators.c ****     int32_t filling_bytes = common_params->min_shape[curr_axis] * common_params->nbytes;
 6935              		.loc 1 1425 42
 6936 00c2 BB68     		ldr	r3, [r7, #8]
 6937 00c4 9A6B     		ldr	r2, [r3, #56]
 6938              		.loc 1 1425 53
 6939 00c6 FB68     		ldr	r3, [r7, #12]
 6940 00c8 9B00     		lsls	r3, r3, #2
 6941 00ca 1344     		add	r3, r3, r2
 6942 00cc 1B68     		ldr	r3, [r3]
 6943              		.loc 1 1425 80
 6944 00ce BA68     		ldr	r2, [r7, #8]
 6945 00d0 127E     		ldrb	r2, [r2, #24]	@ zero_extendqisi2
 6946              		.loc 1 1425 65
 6947 00d2 02FB03F3 		mul	r3, r2, r3
 6948              		.loc 1 1425 13
 6949 00d6 FB62     		str	r3, [r7, #44]
1426:Lib/AI_Runtime/Npu/ll_aton/ll_aton_lib_sw_operators.c **** 
1427:Lib/AI_Runtime/Npu/ll_aton/ll_aton_lib_sw_operators.c ****     if (fill)
 6950              		.loc 1 1427 8
 6951 00d8 FB79     		ldrb	r3, [r7, #7]	@ zero_extendqisi2
 6952 00da 002B     		cmp	r3, #0
 6953 00dc 07D0     		beq	.L428
1428:Lib/AI_Runtime/Npu/ll_aton/ll_aton_lib_sw_operators.c ****     {
1429:Lib/AI_Runtime/Npu/ll_aton/ll_aton_lib_sw_operators.c **** #if defined(DUMP_DEBUG_SW_OPS)
1430:Lib/AI_Runtime/Npu/ll_aton/ll_aton_lib_sw_operators.c ****       LL_ATON_PRINTF("%s(%d): memcpy, curr_axis=%d, dst=%p, src=%p, bytes=%d\n", __func__, __LINE__
1431:Lib/AI_Runtime/Npu/ll_aton/ll_aton_lib_sw_operators.c ****                      (int8_t *)common_params->out_target, (int8_t *)common_params->in_target, filli
1432:Lib/AI_Runtime/Npu/ll_aton/ll_aton_lib_sw_operators.c **** #endif
1433:Lib/AI_Runtime/Npu/ll_aton/ll_aton_lib_sw_operators.c **** 
1434:Lib/AI_Runtime/Npu/ll_aton/ll_aton_lib_sw_operators.c ****       memcpy(common_params->out_target, common_params->in_target, filling_bytes);
 6954              		.loc 1 1434 27
 6955 00de BB68     		ldr	r3, [r7, #8]
 6956 00e0 5868     		ldr	r0, [r3, #4]
 6957              		.loc 1 1434 54
 6958 00e2 BB68     		ldr	r3, [r7, #8]
 6959 00e4 1B68     		ldr	r3, [r3]
 6960              		.loc 1 1434 7
 6961 00e6 FA6A     		ldr	r2, [r7, #44]
 6962 00e8 1946     		mov	r1, r3
 6963 00ea FFF7FEFF 		bl	memcpy
 6964              	.L428:
1435:Lib/AI_Runtime/Npu/ll_aton/ll_aton_lib_sw_operators.c ****     }
1436:Lib/AI_Runtime/Npu/ll_aton/ll_aton_lib_sw_operators.c **** 
1437:Lib/AI_Runtime/Npu/ll_aton/ll_aton_lib_sw_operators.c ****     common_params->in_target += filling_bytes;
 6965              		.loc 1 1437 18
 6966 00ee BB68     		ldr	r3, [r7, #8]
 6967 00f0 1A68     		ldr	r2, [r3]
 6968              		.loc 1 1437 30
 6969 00f2 FB6A     		ldr	r3, [r7, #44]
 6970 00f4 1A44     		add	r2, r2, r3
 6971 00f6 BB68     		ldr	r3, [r7, #8]
 6972 00f8 1A60     		str	r2, [r3]
1438:Lib/AI_Runtime/Npu/ll_aton/ll_aton_lib_sw_operators.c ****     common_params->out_target += filling_bytes;
 6973              		.loc 1 1438 18
 6974 00fa BB68     		ldr	r3, [r7, #8]
 6975 00fc 5A68     		ldr	r2, [r3, #4]
 6976              		.loc 1 1438 31
 6977 00fe FB6A     		ldr	r3, [r7, #44]
ARM GAS  /tmp/ccgnzMmM.s 			page 165


 6978 0100 1A44     		add	r2, r2, r3
 6979 0102 BB68     		ldr	r3, [r7, #8]
 6980 0104 5A60     		str	r2, [r3, #4]
1439:Lib/AI_Runtime/Npu/ll_aton/ll_aton_lib_sw_operators.c **** 
1440:Lib/AI_Runtime/Npu/ll_aton/ll_aton_lib_sw_operators.c **** #if defined(DUMP_DEBUG_SW_OPS)
1441:Lib/AI_Runtime/Npu/ll_aton/ll_aton_lib_sw_operators.c ****     LL_ATON_PRINTF("%s(%d): out=%p, end=%p\n", __func__, __LINE__, (int8_t *)common_params->out_tar
1442:Lib/AI_Runtime/Npu/ll_aton/ll_aton_lib_sw_operators.c ****                    (int8_t *)common_params->end_out_target);
1443:Lib/AI_Runtime/Npu/ll_aton/ll_aton_lib_sw_operators.c **** #if (ATON_PLAT_HAS_FFLUSH)
1444:Lib/AI_Runtime/Npu/ll_aton/ll_aton_lib_sw_operators.c ****     LL_ATON_FFLUSH(stdout);
1445:Lib/AI_Runtime/Npu/ll_aton/ll_aton_lib_sw_operators.c **** #endif
1446:Lib/AI_Runtime/Npu/ll_aton/ll_aton_lib_sw_operators.c **** #endif
1447:Lib/AI_Runtime/Npu/ll_aton/ll_aton_lib_sw_operators.c ****     LL_ATON_ASSERT(common_params->out_target <= common_params->end_out_target);
 6981              		.loc 1 1447 5
 6982 0106 BB68     		ldr	r3, [r7, #8]
 6983 0108 5A68     		ldr	r2, [r3, #4]
 6984 010a BB68     		ldr	r3, [r7, #8]
 6985 010c 9B6A     		ldr	r3, [r3, #40]
 6986 010e 9A42     		cmp	r2, r3
 6987 0110 40F20481 		bls	.L429
 6988              		.loc 1 1447 5 is_stmt 0 discriminator 1
 6989 0114 564B     		ldr	r3, .L472+16
 6990 0116 534A     		ldr	r2, .L472+4
 6991 0118 40F2A751 		movw	r1, #1447
 6992 011c 5248     		ldr	r0, .L472+8
 6993 011e FFF7FEFF 		bl	__assert_func
 6994              	.L426:
 6995              	.LBE73:
 6996              	.LBB74:
1448:Lib/AI_Runtime/Npu/ll_aton/ll_aton_lib_sw_operators.c ****   }
1449:Lib/AI_Runtime/Npu/ll_aton/ll_aton_lib_sw_operators.c ****   else
1450:Lib/AI_Runtime/Npu/ll_aton/ll_aton_lib_sw_operators.c ****   {
1451:Lib/AI_Runtime/Npu/ll_aton/ll_aton_lib_sw_operators.c ****     for (int i = 0; i < common_params->min_shape[curr_axis]; i++)
 6997              		.loc 1 1451 14 is_stmt 1
 6998 0122 0023     		movs	r3, #0
 6999 0124 FB66     		str	r3, [r7, #108]
 7000              		.loc 1 1451 5
 7001 0126 09E0     		b	.L430
 7002              	.L431:
1452:Lib/AI_Runtime/Npu/ll_aton/ll_aton_lib_sw_operators.c ****     {
1453:Lib/AI_Runtime/Npu/ll_aton/ll_aton_lib_sw_operators.c ****       __ll_aton_lib_pad_reflect_sw(curr_axis + 1, common_params, fill);
 7003              		.loc 1 1453 7
 7004 0128 FB68     		ldr	r3, [r7, #12]
 7005 012a 0133     		adds	r3, r3, #1
 7006 012c FA79     		ldrb	r2, [r7, #7]	@ zero_extendqisi2
 7007 012e B968     		ldr	r1, [r7, #8]
 7008 0130 1846     		mov	r0, r3
 7009 0132 FFF765FF 		bl	__ll_aton_lib_pad_reflect_sw
1451:Lib/AI_Runtime/Npu/ll_aton/ll_aton_lib_sw_operators.c ****     {
 7010              		.loc 1 1451 63 discriminator 3
 7011 0136 FB6E     		ldr	r3, [r7, #108]
 7012 0138 0133     		adds	r3, r3, #1
 7013 013a FB66     		str	r3, [r7, #108]
 7014              	.L430:
1451:Lib/AI_Runtime/Npu/ll_aton/ll_aton_lib_sw_operators.c ****     {
 7015              		.loc 1 1451 38 discriminator 1
 7016 013c BB68     		ldr	r3, [r7, #8]
 7017 013e 9A6B     		ldr	r2, [r3, #56]
ARM GAS  /tmp/ccgnzMmM.s 			page 166


1451:Lib/AI_Runtime/Npu/ll_aton/ll_aton_lib_sw_operators.c ****     {
 7018              		.loc 1 1451 49 discriminator 1
 7019 0140 FB68     		ldr	r3, [r7, #12]
 7020 0142 9B00     		lsls	r3, r3, #2
 7021 0144 1344     		add	r3, r3, r2
 7022 0146 1A68     		ldr	r2, [r3]
1451:Lib/AI_Runtime/Npu/ll_aton/ll_aton_lib_sw_operators.c ****     {
 7023              		.loc 1 1451 23 discriminator 1
 7024 0148 FB6E     		ldr	r3, [r7, #108]
 7025 014a 9A42     		cmp	r2, r3
 7026 014c ECD8     		bhi	.L431
 7027              	.LBE74:
1454:Lib/AI_Runtime/Npu/ll_aton/ll_aton_lib_sw_operators.c ****     }
1455:Lib/AI_Runtime/Npu/ll_aton/ll_aton_lib_sw_operators.c **** 
1456:Lib/AI_Runtime/Npu/ll_aton/ll_aton_lib_sw_operators.c ****     if (common_params->pad_out_offsets_start[curr_axis] > 0)
 7028              		.loc 1 1456 22
 7029 014e BB68     		ldr	r3, [r7, #8]
 7030 0150 5A6C     		ldr	r2, [r3, #68]
 7031              		.loc 1 1456 45
 7032 0152 FB68     		ldr	r3, [r7, #12]
 7033 0154 9B00     		lsls	r3, r3, #2
 7034 0156 1344     		add	r3, r3, r2
 7035 0158 1B68     		ldr	r3, [r3]
 7036              		.loc 1 1456 8
 7037 015a 002B     		cmp	r3, #0
 7038 015c 40F3DE80 		ble	.L429
 7039              	.LBB75:
1457:Lib/AI_Runtime/Npu/ll_aton/ll_aton_lib_sw_operators.c ****     {
1458:Lib/AI_Runtime/Npu/ll_aton/ll_aton_lib_sw_operators.c ****       int32_t pad_start = common_params->pad_out_offsets_start[curr_axis] /
 7040              		.loc 1 1458 40
 7041 0160 BB68     		ldr	r3, [r7, #8]
 7042 0162 5A6C     		ldr	r2, [r3, #68]
 7043              		.loc 1 1458 63
 7044 0164 FB68     		ldr	r3, [r7, #12]
 7045 0166 9B00     		lsls	r3, r3, #2
 7046 0168 1344     		add	r3, r3, r2
 7047 016a 1A68     		ldr	r2, [r3]
1459:Lib/AI_Runtime/Npu/ll_aton/ll_aton_lib_sw_operators.c ****                           common_params->out_offsets[curr_axis]; // i.e.: pads_start[curr_axis];
 7048              		.loc 1 1459 40
 7049 016c BB68     		ldr	r3, [r7, #8]
 7050 016e 196D     		ldr	r1, [r3, #80]
 7051              		.loc 1 1459 53
 7052 0170 FB68     		ldr	r3, [r7, #12]
 7053 0172 9B00     		lsls	r3, r3, #2
 7054 0174 0B44     		add	r3, r3, r1
 7055 0176 1B68     		ldr	r3, [r3]
1458:Lib/AI_Runtime/Npu/ll_aton/ll_aton_lib_sw_operators.c ****                           common_params->out_offsets[curr_axis]; // i.e.: pads_start[curr_axis];
 7056              		.loc 1 1458 15
 7057 0178 92FBF3F3 		sdiv	r3, r2, r3
 7058 017c 7B64     		str	r3, [r7, #68]
1460:Lib/AI_Runtime/Npu/ll_aton/ll_aton_lib_sw_operators.c ****       int32_t pad_end = common_params->pad_out_offsets_end[curr_axis] /
 7059              		.loc 1 1460 38
 7060 017e BB68     		ldr	r3, [r7, #8]
 7061 0180 9A6C     		ldr	r2, [r3, #72]
 7062              		.loc 1 1460 59
 7063 0182 FB68     		ldr	r3, [r7, #12]
 7064 0184 9B00     		lsls	r3, r3, #2
ARM GAS  /tmp/ccgnzMmM.s 			page 167


 7065 0186 1344     		add	r3, r3, r2
 7066 0188 1A68     		ldr	r2, [r3]
1461:Lib/AI_Runtime/Npu/ll_aton/ll_aton_lib_sw_operators.c ****                         common_params->out_offsets[curr_axis]; // i.e.: pads_end[curr_axis];
 7067              		.loc 1 1461 38
 7068 018a BB68     		ldr	r3, [r7, #8]
 7069 018c 196D     		ldr	r1, [r3, #80]
 7070              		.loc 1 1461 51
 7071 018e FB68     		ldr	r3, [r7, #12]
 7072 0190 9B00     		lsls	r3, r3, #2
 7073 0192 0B44     		add	r3, r3, r1
 7074 0194 1B68     		ldr	r3, [r3]
1460:Lib/AI_Runtime/Npu/ll_aton/ll_aton_lib_sw_operators.c ****       int32_t pad_end = common_params->pad_out_offsets_end[curr_axis] /
 7075              		.loc 1 1460 15
 7076 0196 92FBF3F3 		sdiv	r3, r2, r3
 7077 019a 3B64     		str	r3, [r7, #64]
1462:Lib/AI_Runtime/Npu/ll_aton/ll_aton_lib_sw_operators.c **** 
1463:Lib/AI_Runtime/Npu/ll_aton/ll_aton_lib_sw_operators.c ****       LL_ATON_ASSERT(pad_end >= 0);
 7078              		.loc 1 1463 7
 7079 019c 3B6C     		ldr	r3, [r7, #64]
 7080 019e 002B     		cmp	r3, #0
 7081 01a0 06DA     		bge	.L432
 7082              		.loc 1 1463 7 is_stmt 0 discriminator 1
 7083 01a2 344B     		ldr	r3, .L472+20
 7084 01a4 2F4A     		ldr	r2, .L472+4
 7085 01a6 40F2B751 		movw	r1, #1463
 7086 01aa 2F48     		ldr	r0, .L472+8
 7087 01ac FFF7FEFF 		bl	__assert_func
 7088              	.L432:
1464:Lib/AI_Runtime/Npu/ll_aton/ll_aton_lib_sw_operators.c **** 
1465:Lib/AI_Runtime/Npu/ll_aton/ll_aton_lib_sw_operators.c ****       int32_t nr_loops = pad_start;
 7089              		.loc 1 1465 15 is_stmt 1
 7090 01b0 7B6C     		ldr	r3, [r7, #68]
 7091 01b2 FB63     		str	r3, [r7, #60]
1466:Lib/AI_Runtime/Npu/ll_aton/ll_aton_lib_sw_operators.c ****       int32_t n_elems = common_params->out_shape[curr_axis] - pad_start - pad_end;
 7092              		.loc 1 1466 38
 7093 01b4 BB68     		ldr	r3, [r7, #8]
 7094 01b6 DA6C     		ldr	r2, [r3, #76]
 7095              		.loc 1 1466 49
 7096 01b8 FB68     		ldr	r3, [r7, #12]
 7097 01ba 9B00     		lsls	r3, r3, #2
 7098 01bc 1344     		add	r3, r3, r2
 7099 01be 1A68     		ldr	r2, [r3]
 7100              		.loc 1 1466 61
 7101 01c0 7B6C     		ldr	r3, [r7, #68]
 7102 01c2 D21A     		subs	r2, r2, r3
 7103              		.loc 1 1466 15
 7104 01c4 3B6C     		ldr	r3, [r7, #64]
 7105 01c6 D31A     		subs	r3, r2, r3
 7106 01c8 BB63     		str	r3, [r7, #56]
1467:Lib/AI_Runtime/Npu/ll_aton/ll_aton_lib_sw_operators.c ****       int32_t padding_bytes = common_params->out_offsets[curr_axis];
 7107              		.loc 1 1467 44
 7108 01ca BB68     		ldr	r3, [r7, #8]
 7109 01cc 1A6D     		ldr	r2, [r3, #80]
 7110              		.loc 1 1467 57
 7111 01ce FB68     		ldr	r3, [r7, #12]
 7112 01d0 9B00     		lsls	r3, r3, #2
 7113 01d2 1344     		add	r3, r3, r2
ARM GAS  /tmp/ccgnzMmM.s 			page 168


 7114              		.loc 1 1467 15
 7115 01d4 1B68     		ldr	r3, [r3]
 7116 01d6 7B63     		str	r3, [r7, #52]
1468:Lib/AI_Runtime/Npu/ll_aton/ll_aton_lib_sw_operators.c **** 
1469:Lib/AI_Runtime/Npu/ll_aton/ll_aton_lib_sw_operators.c ****       int8_t *dst_ptr = curr_out_ptr + common_params->pad_out_offsets_start[curr_axis] - padding_by
 7117              		.loc 1 1469 53
 7118 01d8 BB68     		ldr	r3, [r7, #8]
 7119 01da 5A6C     		ldr	r2, [r3, #68]
 7120              		.loc 1 1469 76
 7121 01dc FB68     		ldr	r3, [r7, #12]
 7122 01de 9B00     		lsls	r3, r3, #2
 7123 01e0 1344     		add	r3, r3, r2
 7124 01e2 1B68     		ldr	r3, [r3]
 7125 01e4 1A46     		mov	r2, r3
 7126              		.loc 1 1469 88
 7127 01e6 7B6B     		ldr	r3, [r7, #52]
 7128 01e8 D31A     		subs	r3, r2, r3
 7129              		.loc 1 1469 15
 7130 01ea BA6C     		ldr	r2, [r7, #72]
 7131 01ec 1344     		add	r3, r3, r2
 7132 01ee BB66     		str	r3, [r7, #104]
1470:Lib/AI_Runtime/Npu/ll_aton/ll_aton_lib_sw_operators.c ****       int8_t *src_ptr = curr_out_ptr + common_params->pad_out_offsets_start[curr_axis];
 7133              		.loc 1 1470 53
 7134 01f0 BB68     		ldr	r3, [r7, #8]
 7135 01f2 5A6C     		ldr	r2, [r3, #68]
 7136              		.loc 1 1470 76
 7137 01f4 FB68     		ldr	r3, [r7, #12]
 7138 01f6 9B00     		lsls	r3, r3, #2
 7139 01f8 1344     		add	r3, r3, r2
 7140 01fa 1B68     		ldr	r3, [r3]
 7141 01fc 1A46     		mov	r2, r3
 7142              		.loc 1 1470 15
 7143 01fe BB6C     		ldr	r3, [r7, #72]
 7144 0200 1344     		add	r3, r3, r2
 7145 0202 3B63     		str	r3, [r7, #48]
1471:Lib/AI_Runtime/Npu/ll_aton/ll_aton_lib_sw_operators.c **** 
1472:Lib/AI_Runtime/Npu/ll_aton/ll_aton_lib_sw_operators.c ****       int32_t src_idx = (n_elems > 1) ? 1 : 0;
 7146              		.loc 1 1472 43
 7147 0204 BB6B     		ldr	r3, [r7, #56]
 7148 0206 012B     		cmp	r3, #1
 7149 0208 CCBF     		ite	gt
 7150 020a 0123     		movgt	r3, #1
 7151 020c 0023     		movle	r3, #0
 7152 020e DBB2     		uxtb	r3, r3
 7153              		.loc 1 1472 15
 7154 0210 7B66     		str	r3, [r7, #100]
1473:Lib/AI_Runtime/Npu/ll_aton/ll_aton_lib_sw_operators.c **** 
1474:Lib/AI_Runtime/Npu/ll_aton/ll_aton_lib_sw_operators.c ****       bool forward = true;
 7155              		.loc 1 1474 12
 7156 0212 0123     		movs	r3, #1
 7157 0214 87F86330 		strb	r3, [r7, #99]
 7158              	.LBB76:
1475:Lib/AI_Runtime/Npu/ll_aton/ll_aton_lib_sw_operators.c ****       for (int i = 0; i < nr_loops; i++)
 7159              		.loc 1 1475 16
 7160 0218 0023     		movs	r3, #0
 7161 021a FB65     		str	r3, [r7, #92]
 7162              		.loc 1 1475 7
ARM GAS  /tmp/ccgnzMmM.s 			page 169


 7163 021c 7AE0     		b	.L433
 7164              	.L447:
1476:Lib/AI_Runtime/Npu/ll_aton/ll_aton_lib_sw_operators.c ****       {
1477:Lib/AI_Runtime/Npu/ll_aton/ll_aton_lib_sw_operators.c **** #if defined(DUMP_DEBUG_SW_OPS)
1478:Lib/AI_Runtime/Npu/ll_aton/ll_aton_lib_sw_operators.c ****         LL_ATON_PRINTF("%s(%d): memcpy, curr_axis=%d, dst=%p, src=%p, src_idx=%d, bytes=%d, n_elems
1479:Lib/AI_Runtime/Npu/ll_aton/ll_aton_lib_sw_operators.c ****                        __func__, __LINE__, curr_axis, (int8_t *)dst_ptr, (int8_t *)src_ptr + (src_i
1480:Lib/AI_Runtime/Npu/ll_aton/ll_aton_lib_sw_operators.c ****                        src_idx, padding_bytes, n_elems, i + 1, nr_loops);
1481:Lib/AI_Runtime/Npu/ll_aton/ll_aton_lib_sw_operators.c **** #if (ATON_PLAT_HAS_FFLUSH)
1482:Lib/AI_Runtime/Npu/ll_aton/ll_aton_lib_sw_operators.c ****         LL_ATON_FFLUSH(stdout);
1483:Lib/AI_Runtime/Npu/ll_aton/ll_aton_lib_sw_operators.c **** #endif
1484:Lib/AI_Runtime/Npu/ll_aton/ll_aton_lib_sw_operators.c **** #endif
1485:Lib/AI_Runtime/Npu/ll_aton/ll_aton_lib_sw_operators.c ****         LL_ATON_ASSERT(dst_ptr >= curr_out_ptr);
 7165              		.loc 1 1485 9
 7166 021e BA6E     		ldr	r2, [r7, #104]
 7167 0220 BB6C     		ldr	r3, [r7, #72]
 7168 0222 9A42     		cmp	r2, r3
 7169 0224 06D2     		bcs	.L434
 7170              		.loc 1 1485 9 is_stmt 0 discriminator 1
 7171 0226 144B     		ldr	r3, .L472+24
 7172 0228 0E4A     		ldr	r2, .L472+4
 7173 022a 40F2CD51 		movw	r1, #1485
 7174 022e 0E48     		ldr	r0, .L472+8
 7175 0230 FFF7FEFF 		bl	__assert_func
 7176              	.L434:
1486:Lib/AI_Runtime/Npu/ll_aton/ll_aton_lib_sw_operators.c ****         LL_ATON_ASSERT(src_idx < n_elems);
 7177              		.loc 1 1486 9 is_stmt 1
 7178 0234 7A6E     		ldr	r2, [r7, #100]
 7179 0236 BB6B     		ldr	r3, [r7, #56]
 7180 0238 9A42     		cmp	r2, r3
 7181 023a 06DB     		blt	.L435
 7182              		.loc 1 1486 9 is_stmt 0 discriminator 1
 7183 023c 0F4B     		ldr	r3, .L472+28
 7184 023e 094A     		ldr	r2, .L472+4
 7185 0240 40F2CE51 		movw	r1, #1486
 7186 0244 0848     		ldr	r0, .L472+8
 7187 0246 FFF7FEFF 		bl	__assert_func
 7188              	.L435:
1487:Lib/AI_Runtime/Npu/ll_aton/ll_aton_lib_sw_operators.c ****         LL_ATON_ASSERT(src_idx >= 0);
 7189              		.loc 1 1487 9 is_stmt 1
 7190 024a 7B6E     		ldr	r3, [r7, #100]
 7191 024c 002B     		cmp	r3, #0
 7192 024e 19DA     		bge	.L436
 7193              		.loc 1 1487 9 is_stmt 0 discriminator 1
 7194 0250 0B4B     		ldr	r3, .L472+32
 7195 0252 044A     		ldr	r2, .L472+4
 7196 0254 40F2CF51 		movw	r1, #1487
 7197 0258 0348     		ldr	r0, .L472+8
 7198 025a FFF7FEFF 		bl	__assert_func
 7199              	.L473:
 7200 025e 00BF     		.align	2
 7201              	.L472:
 7202 0260 70050000 		.word	.LC42
 7203 0264 00000000 		.word	__func__.8
 7204 0268 24000000 		.word	.LC1
 7205 026c A0050000 		.word	.LC43
 7206 0270 34050000 		.word	.LC41
 7207 0274 D4050000 		.word	.LC44
ARM GAS  /tmp/ccgnzMmM.s 			page 170


 7208 0278 E4050000 		.word	.LC45
 7209 027c A4040000 		.word	.LC35
 7210 0280 B8040000 		.word	.LC36
 7211              	.L436:
1488:Lib/AI_Runtime/Npu/ll_aton/ll_aton_lib_sw_operators.c **** 
1489:Lib/AI_Runtime/Npu/ll_aton/ll_aton_lib_sw_operators.c ****         memcpy(dst_ptr, src_ptr + (src_idx * padding_bytes), padding_bytes);
 7212              		.loc 1 1489 44 is_stmt 1
 7213 0284 7B6E     		ldr	r3, [r7, #100]
 7214 0286 7A6B     		ldr	r2, [r7, #52]
 7215 0288 02FB03F3 		mul	r3, r2, r3
 7216 028c 1A46     		mov	r2, r3
 7217              		.loc 1 1489 33
 7218 028e 3B6B     		ldr	r3, [r7, #48]
 7219 0290 1344     		add	r3, r3, r2
 7220              		.loc 1 1489 9
 7221 0292 7A6B     		ldr	r2, [r7, #52]
 7222 0294 1946     		mov	r1, r3
 7223 0296 B86E     		ldr	r0, [r7, #104]
 7224 0298 FFF7FEFF 		bl	memcpy
1490:Lib/AI_Runtime/Npu/ll_aton/ll_aton_lib_sw_operators.c **** 
1491:Lib/AI_Runtime/Npu/ll_aton/ll_aton_lib_sw_operators.c ****         dst_ptr -= padding_bytes;
 7225              		.loc 1 1491 17
 7226 029c 7B6B     		ldr	r3, [r7, #52]
 7227 029e 5B42     		rsbs	r3, r3, #0
 7228 02a0 BA6E     		ldr	r2, [r7, #104]
 7229 02a2 1344     		add	r3, r3, r2
 7230 02a4 BB66     		str	r3, [r7, #104]
1492:Lib/AI_Runtime/Npu/ll_aton/ll_aton_lib_sw_operators.c **** 
1493:Lib/AI_Runtime/Npu/ll_aton/ll_aton_lib_sw_operators.c ****         if (forward)
 7231              		.loc 1 1493 12
 7232 02a6 97F86330 		ldrb	r3, [r7, #99]	@ zero_extendqisi2
 7233 02aa 002B     		cmp	r3, #0
 7234 02ac 19D0     		beq	.L437
1494:Lib/AI_Runtime/Npu/ll_aton/ll_aton_lib_sw_operators.c ****         {
1495:Lib/AI_Runtime/Npu/ll_aton/ll_aton_lib_sw_operators.c ****           if (src_idx >= (n_elems - 1))
 7235              		.loc 1 1495 35
 7236 02ae BB6B     		ldr	r3, [r7, #56]
 7237 02b0 013B     		subs	r3, r3, #1
 7238              		.loc 1 1495 14
 7239 02b2 7A6E     		ldr	r2, [r7, #100]
 7240 02b4 9A42     		cmp	r2, r3
 7241 02b6 0BDB     		blt	.L438
1496:Lib/AI_Runtime/Npu/ll_aton/ll_aton_lib_sw_operators.c ****           {
1497:Lib/AI_Runtime/Npu/ll_aton/ll_aton_lib_sw_operators.c ****             forward = false;
 7242              		.loc 1 1497 21
 7243 02b8 0023     		movs	r3, #0
 7244 02ba 87F86330 		strb	r3, [r7, #99]
1498:Lib/AI_Runtime/Npu/ll_aton/ll_aton_lib_sw_operators.c ****             src_idx = (n_elems > 1) ? (src_idx - 1) : 0;
 7245              		.loc 1 1498 53
 7246 02be BB6B     		ldr	r3, [r7, #56]
 7247 02c0 012B     		cmp	r3, #1
 7248 02c2 02DD     		ble	.L439
 7249              		.loc 1 1498 53 is_stmt 0 discriminator 1
 7250 02c4 7B6E     		ldr	r3, [r7, #100]
 7251 02c6 013B     		subs	r3, r3, #1
 7252 02c8 00E0     		b	.L440
 7253              	.L439:
ARM GAS  /tmp/ccgnzMmM.s 			page 171


 7254              		.loc 1 1498 53 discriminator 2
 7255 02ca 0023     		movs	r3, #0
 7256              	.L440:
 7257              		.loc 1 1498 21 is_stmt 1 discriminator 4
 7258 02cc 7B66     		str	r3, [r7, #100]
 7259 02ce 1EE0     		b	.L441
 7260              	.L438:
1499:Lib/AI_Runtime/Npu/ll_aton/ll_aton_lib_sw_operators.c ****           }
1500:Lib/AI_Runtime/Npu/ll_aton/ll_aton_lib_sw_operators.c ****           else
1501:Lib/AI_Runtime/Npu/ll_aton/ll_aton_lib_sw_operators.c ****           {
1502:Lib/AI_Runtime/Npu/ll_aton/ll_aton_lib_sw_operators.c ****             src_idx = (n_elems > 1) ? (src_idx + 1) : 0;
 7261              		.loc 1 1502 53
 7262 02d0 BB6B     		ldr	r3, [r7, #56]
 7263 02d2 012B     		cmp	r3, #1
 7264 02d4 02DD     		ble	.L442
 7265              		.loc 1 1502 53 is_stmt 0 discriminator 1
 7266 02d6 7B6E     		ldr	r3, [r7, #100]
 7267 02d8 0133     		adds	r3, r3, #1
 7268 02da 00E0     		b	.L443
 7269              	.L442:
 7270              		.loc 1 1502 53 discriminator 2
 7271 02dc 0023     		movs	r3, #0
 7272              	.L443:
 7273              		.loc 1 1502 21 is_stmt 1 discriminator 4
 7274 02de 7B66     		str	r3, [r7, #100]
 7275 02e0 15E0     		b	.L441
 7276              	.L437:
1503:Lib/AI_Runtime/Npu/ll_aton/ll_aton_lib_sw_operators.c ****           }
1504:Lib/AI_Runtime/Npu/ll_aton/ll_aton_lib_sw_operators.c ****         }
1505:Lib/AI_Runtime/Npu/ll_aton/ll_aton_lib_sw_operators.c ****         else
1506:Lib/AI_Runtime/Npu/ll_aton/ll_aton_lib_sw_operators.c ****         {
1507:Lib/AI_Runtime/Npu/ll_aton/ll_aton_lib_sw_operators.c ****           if (src_idx <= 0)
 7277              		.loc 1 1507 14
 7278 02e2 7B6E     		ldr	r3, [r7, #100]
 7279 02e4 002B     		cmp	r3, #0
 7280 02e6 0ADC     		bgt	.L444
1508:Lib/AI_Runtime/Npu/ll_aton/ll_aton_lib_sw_operators.c ****           {
1509:Lib/AI_Runtime/Npu/ll_aton/ll_aton_lib_sw_operators.c ****             forward = true;
 7281              		.loc 1 1509 21
 7282 02e8 0123     		movs	r3, #1
 7283 02ea 87F86330 		strb	r3, [r7, #99]
1510:Lib/AI_Runtime/Npu/ll_aton/ll_aton_lib_sw_operators.c ****             src_idx = (n_elems > 1) ? 1 : 0;
 7284              		.loc 1 1510 41
 7285 02ee BB6B     		ldr	r3, [r7, #56]
 7286 02f0 012B     		cmp	r3, #1
 7287 02f2 CCBF     		ite	gt
 7288 02f4 0123     		movgt	r3, #1
 7289 02f6 0023     		movle	r3, #0
 7290 02f8 DBB2     		uxtb	r3, r3
 7291              		.loc 1 1510 21
 7292 02fa 7B66     		str	r3, [r7, #100]
 7293 02fc 07E0     		b	.L441
 7294              	.L444:
1511:Lib/AI_Runtime/Npu/ll_aton/ll_aton_lib_sw_operators.c ****           }
1512:Lib/AI_Runtime/Npu/ll_aton/ll_aton_lib_sw_operators.c ****           else
1513:Lib/AI_Runtime/Npu/ll_aton/ll_aton_lib_sw_operators.c ****           {
1514:Lib/AI_Runtime/Npu/ll_aton/ll_aton_lib_sw_operators.c ****             src_idx = (n_elems > 1) ? (src_idx - 1) : 0;
ARM GAS  /tmp/ccgnzMmM.s 			page 172


 7295              		.loc 1 1514 53
 7296 02fe BB6B     		ldr	r3, [r7, #56]
 7297 0300 012B     		cmp	r3, #1
 7298 0302 02DD     		ble	.L445
 7299              		.loc 1 1514 53 is_stmt 0 discriminator 1
 7300 0304 7B6E     		ldr	r3, [r7, #100]
 7301 0306 013B     		subs	r3, r3, #1
 7302 0308 00E0     		b	.L446
 7303              	.L445:
 7304              		.loc 1 1514 53 discriminator 2
 7305 030a 0023     		movs	r3, #0
 7306              	.L446:
 7307              		.loc 1 1514 21 is_stmt 1 discriminator 4
 7308 030c 7B66     		str	r3, [r7, #100]
 7309              	.L441:
1475:Lib/AI_Runtime/Npu/ll_aton/ll_aton_lib_sw_operators.c ****       {
 7310              		.loc 1 1475 38 discriminator 2
 7311 030e FB6D     		ldr	r3, [r7, #92]
 7312 0310 0133     		adds	r3, r3, #1
 7313 0312 FB65     		str	r3, [r7, #92]
 7314              	.L433:
1475:Lib/AI_Runtime/Npu/ll_aton/ll_aton_lib_sw_operators.c ****       {
 7315              		.loc 1 1475 25 discriminator 1
 7316 0314 FA6D     		ldr	r2, [r7, #92]
 7317 0316 FB6B     		ldr	r3, [r7, #60]
 7318 0318 9A42     		cmp	r2, r3
 7319 031a 80DB     		blt	.L447
 7320              	.L429:
 7321              	.LBE76:
 7322              	.LBE75:
1515:Lib/AI_Runtime/Npu/ll_aton/ll_aton_lib_sw_operators.c ****           }
1516:Lib/AI_Runtime/Npu/ll_aton/ll_aton_lib_sw_operators.c ****         }
1517:Lib/AI_Runtime/Npu/ll_aton/ll_aton_lib_sw_operators.c ****       }
1518:Lib/AI_Runtime/Npu/ll_aton/ll_aton_lib_sw_operators.c ****     }
1519:Lib/AI_Runtime/Npu/ll_aton/ll_aton_lib_sw_operators.c ****   }
1520:Lib/AI_Runtime/Npu/ll_aton/ll_aton_lib_sw_operators.c **** 
1521:Lib/AI_Runtime/Npu/ll_aton/ll_aton_lib_sw_operators.c ****   if (common_params->pad_out_offsets_end[curr_axis] > 0)
 7323              		.loc 1 1521 20
 7324 031c BB68     		ldr	r3, [r7, #8]
 7325 031e 9A6C     		ldr	r2, [r3, #72]
 7326              		.loc 1 1521 41
 7327 0320 FB68     		ldr	r3, [r7, #12]
 7328 0322 9B00     		lsls	r3, r3, #2
 7329 0324 1344     		add	r3, r3, r2
 7330 0326 1B68     		ldr	r3, [r3]
 7331              		.loc 1 1521 6
 7332 0328 002B     		cmp	r3, #0
 7333 032a 40F30281 		ble	.L448
1522:Lib/AI_Runtime/Npu/ll_aton/ll_aton_lib_sw_operators.c ****   {
1523:Lib/AI_Runtime/Npu/ll_aton/ll_aton_lib_sw_operators.c ****     if (curr_axis == (common_params->tensor_rank - 1))
 7334              		.loc 1 1523 36
 7335 032e BB68     		ldr	r3, [r7, #8]
 7336 0330 5B6A     		ldr	r3, [r3, #36]
 7337              		.loc 1 1523 50
 7338 0332 013B     		subs	r3, r3, #1
 7339              		.loc 1 1523 8
 7340 0334 FA68     		ldr	r2, [r7, #12]
ARM GAS  /tmp/ccgnzMmM.s 			page 173


 7341 0336 9A42     		cmp	r2, r3
 7342 0338 21D1     		bne	.L449
 7343              	.LBB77:
1524:Lib/AI_Runtime/Npu/ll_aton/ll_aton_lib_sw_operators.c ****     {
1525:Lib/AI_Runtime/Npu/ll_aton/ll_aton_lib_sw_operators.c ****       int8_t *src_ptr = common_params->out_target - common_params->nbytes;
 7344              		.loc 1 1525 38
 7345 033a BB68     		ldr	r3, [r7, #8]
 7346 033c 5A68     		ldr	r2, [r3, #4]
 7347              		.loc 1 1525 66
 7348 033e BB68     		ldr	r3, [r7, #8]
 7349 0340 1B7E     		ldrb	r3, [r3, #24]	@ zero_extendqisi2
 7350              		.loc 1 1525 51
 7351 0342 5B42     		rsbs	r3, r3, #0
 7352              		.loc 1 1525 15
 7353 0344 1344     		add	r3, r3, r2
 7354 0346 3B61     		str	r3, [r7, #16]
1526:Lib/AI_Runtime/Npu/ll_aton/ll_aton_lib_sw_operators.c ****       __ll_aton_lib_reflect_inner_framing_sw(curr_axis, common_params->nbytes, common_params->out_t
 7355              		.loc 1 1526 7
 7356 0348 BB68     		ldr	r3, [r7, #8]
 7357 034a 197E     		ldrb	r1, [r3, #24]	@ zero_extendqisi2
 7358 034c BB68     		ldr	r3, [r7, #8]
 7359 034e 5868     		ldr	r0, [r3, #4]
1527:Lib/AI_Runtime/Npu/ll_aton/ll_aton_lib_sw_operators.c ****                                              common_params->min_shape[curr_axis],
 7360              		.loc 1 1527 59
 7361 0350 BB68     		ldr	r3, [r7, #8]
 7362 0352 9A6B     		ldr	r2, [r3, #56]
 7363              		.loc 1 1527 70
 7364 0354 FB68     		ldr	r3, [r7, #12]
 7365 0356 9B00     		lsls	r3, r3, #2
 7366 0358 1344     		add	r3, r3, r2
 7367 035a 1B68     		ldr	r3, [r3]
1526:Lib/AI_Runtime/Npu/ll_aton/ll_aton_lib_sw_operators.c ****       __ll_aton_lib_reflect_inner_framing_sw(curr_axis, common_params->nbytes, common_params->out_t
 7368              		.loc 1 1526 7
 7369 035c 1C46     		mov	r4, r3
1528:Lib/AI_Runtime/Npu/ll_aton/ll_aton_lib_sw_operators.c ****                                              common_params->pad_out_offsets_end[curr_axis], false);
 7370              		.loc 1 1528 59
 7371 035e BB68     		ldr	r3, [r7, #8]
 7372 0360 9A6C     		ldr	r2, [r3, #72]
 7373              		.loc 1 1528 80
 7374 0362 FB68     		ldr	r3, [r7, #12]
 7375 0364 9B00     		lsls	r3, r3, #2
 7376 0366 1344     		add	r3, r3, r2
1526:Lib/AI_Runtime/Npu/ll_aton/ll_aton_lib_sw_operators.c ****       __ll_aton_lib_reflect_inner_framing_sw(curr_axis, common_params->nbytes, common_params->out_t
 7377              		.loc 1 1526 7
 7378 0368 1B68     		ldr	r3, [r3]
 7379 036a 0022     		movs	r2, #0
 7380 036c 0292     		str	r2, [sp, #8]
 7381 036e 0193     		str	r3, [sp, #4]
 7382 0370 0094     		str	r4, [sp]
 7383 0372 3B69     		ldr	r3, [r7, #16]
 7384 0374 0246     		mov	r2, r0
 7385 0376 F868     		ldr	r0, [r7, #12]
 7386 0378 FFF7FEFF 		bl	__ll_aton_lib_reflect_inner_framing_sw
 7387              	.LBE77:
 7388 037c C1E0     		b	.L450
 7389              	.L449:
 7390              	.LBB78:
ARM GAS  /tmp/ccgnzMmM.s 			page 174


1529:Lib/AI_Runtime/Npu/ll_aton/ll_aton_lib_sw_operators.c ****     }
1530:Lib/AI_Runtime/Npu/ll_aton/ll_aton_lib_sw_operators.c ****     else
1531:Lib/AI_Runtime/Npu/ll_aton/ll_aton_lib_sw_operators.c ****     {
1532:Lib/AI_Runtime/Npu/ll_aton/ll_aton_lib_sw_operators.c ****       int32_t pad_start = common_params->pad_out_offsets_start[curr_axis] /
 7391              		.loc 1 1532 40
 7392 037e BB68     		ldr	r3, [r7, #8]
 7393 0380 5A6C     		ldr	r2, [r3, #68]
 7394              		.loc 1 1532 63
 7395 0382 FB68     		ldr	r3, [r7, #12]
 7396 0384 9B00     		lsls	r3, r3, #2
 7397 0386 1344     		add	r3, r3, r2
 7398 0388 1A68     		ldr	r2, [r3]
1533:Lib/AI_Runtime/Npu/ll_aton/ll_aton_lib_sw_operators.c ****                           common_params->out_offsets[curr_axis]; // i.e.: pads_start[curr_axis];
 7399              		.loc 1 1533 40
 7400 038a BB68     		ldr	r3, [r7, #8]
 7401 038c 196D     		ldr	r1, [r3, #80]
 7402              		.loc 1 1533 53
 7403 038e FB68     		ldr	r3, [r7, #12]
 7404 0390 9B00     		lsls	r3, r3, #2
 7405 0392 0B44     		add	r3, r3, r1
 7406 0394 1B68     		ldr	r3, [r3]
1532:Lib/AI_Runtime/Npu/ll_aton/ll_aton_lib_sw_operators.c ****                           common_params->out_offsets[curr_axis]; // i.e.: pads_start[curr_axis];
 7407              		.loc 1 1532 15
 7408 0396 92FBF3F3 		sdiv	r3, r2, r3
 7409 039a BB62     		str	r3, [r7, #40]
1534:Lib/AI_Runtime/Npu/ll_aton/ll_aton_lib_sw_operators.c ****       int32_t pad_end = common_params->pad_out_offsets_end[curr_axis] /
 7410              		.loc 1 1534 38
 7411 039c BB68     		ldr	r3, [r7, #8]
 7412 039e 9A6C     		ldr	r2, [r3, #72]
 7413              		.loc 1 1534 59
 7414 03a0 FB68     		ldr	r3, [r7, #12]
 7415 03a2 9B00     		lsls	r3, r3, #2
 7416 03a4 1344     		add	r3, r3, r2
 7417 03a6 1A68     		ldr	r2, [r3]
1535:Lib/AI_Runtime/Npu/ll_aton/ll_aton_lib_sw_operators.c ****                         common_params->out_offsets[curr_axis]; // i.e.: pads_end[curr_axis];
 7418              		.loc 1 1535 38
 7419 03a8 BB68     		ldr	r3, [r7, #8]
 7420 03aa 196D     		ldr	r1, [r3, #80]
 7421              		.loc 1 1535 51
 7422 03ac FB68     		ldr	r3, [r7, #12]
 7423 03ae 9B00     		lsls	r3, r3, #2
 7424 03b0 0B44     		add	r3, r3, r1
 7425 03b2 1B68     		ldr	r3, [r3]
1534:Lib/AI_Runtime/Npu/ll_aton/ll_aton_lib_sw_operators.c ****       int32_t pad_end = common_params->pad_out_offsets_end[curr_axis] /
 7426              		.loc 1 1534 15
 7427 03b4 92FBF3F3 		sdiv	r3, r2, r3
 7428 03b8 7B62     		str	r3, [r7, #36]
1536:Lib/AI_Runtime/Npu/ll_aton/ll_aton_lib_sw_operators.c **** 
1537:Lib/AI_Runtime/Npu/ll_aton/ll_aton_lib_sw_operators.c ****       int32_t nr_loops = pad_end;
 7429              		.loc 1 1537 15
 7430 03ba 7B6A     		ldr	r3, [r7, #36]
 7431 03bc 3B62     		str	r3, [r7, #32]
1538:Lib/AI_Runtime/Npu/ll_aton/ll_aton_lib_sw_operators.c **** 
1539:Lib/AI_Runtime/Npu/ll_aton/ll_aton_lib_sw_operators.c ****       int32_t padding_bytes = common_params->out_offsets[curr_axis];
 7432              		.loc 1 1539 44
 7433 03be BB68     		ldr	r3, [r7, #8]
 7434 03c0 1A6D     		ldr	r2, [r3, #80]
ARM GAS  /tmp/ccgnzMmM.s 			page 175


 7435              		.loc 1 1539 57
 7436 03c2 FB68     		ldr	r3, [r7, #12]
 7437 03c4 9B00     		lsls	r3, r3, #2
 7438 03c6 1344     		add	r3, r3, r2
 7439              		.loc 1 1539 15
 7440 03c8 1B68     		ldr	r3, [r3]
 7441 03ca FB61     		str	r3, [r7, #28]
1540:Lib/AI_Runtime/Npu/ll_aton/ll_aton_lib_sw_operators.c ****       int32_t n_elems = common_params->out_shape[curr_axis] - zero_neg(pad_start) - zero_neg(pad_en
 7442              		.loc 1 1540 38
 7443 03cc BB68     		ldr	r3, [r7, #8]
 7444 03ce DA6C     		ldr	r2, [r3, #76]
 7445              		.loc 1 1540 49
 7446 03d0 FB68     		ldr	r3, [r7, #12]
 7447 03d2 9B00     		lsls	r3, r3, #2
 7448 03d4 1344     		add	r3, r3, r2
 7449 03d6 1B68     		ldr	r3, [r3]
 7450 03d8 1C46     		mov	r4, r3
 7451              		.loc 1 1540 63
 7452 03da B86A     		ldr	r0, [r7, #40]
 7453 03dc FFF7FEFF 		bl	zero_neg
 7454 03e0 0346     		mov	r3, r0
 7455              		.loc 1 1540 61 discriminator 1
 7456 03e2 E41A     		subs	r4, r4, r3
 7457              		.loc 1 1540 85 discriminator 1
 7458 03e4 786A     		ldr	r0, [r7, #36]
 7459 03e6 FFF7FEFF 		bl	zero_neg
 7460 03ea 0346     		mov	r3, r0
 7461              		.loc 1 1540 83 discriminator 2
 7462 03ec E31A     		subs	r3, r4, r3
 7463              		.loc 1 1540 15 discriminator 2
 7464 03ee BB61     		str	r3, [r7, #24]
1541:Lib/AI_Runtime/Npu/ll_aton/ll_aton_lib_sw_operators.c **** 
1542:Lib/AI_Runtime/Npu/ll_aton/ll_aton_lib_sw_operators.c ****       int8_t *dst_ptr = common_params->out_target;
 7465              		.loc 1 1542 15
 7466 03f0 BB68     		ldr	r3, [r7, #8]
 7467 03f2 5B68     		ldr	r3, [r3, #4]
 7468 03f4 BB65     		str	r3, [r7, #88]
1543:Lib/AI_Runtime/Npu/ll_aton/ll_aton_lib_sw_operators.c ****       int8_t *src_ptr = common_params->out_target - padding_bytes;
 7469              		.loc 1 1543 38
 7470 03f6 BB68     		ldr	r3, [r7, #8]
 7471 03f8 5A68     		ldr	r2, [r3, #4]
 7472              		.loc 1 1543 51
 7473 03fa FB69     		ldr	r3, [r7, #28]
 7474 03fc 5B42     		rsbs	r3, r3, #0
 7475              		.loc 1 1543 15
 7476 03fe 1344     		add	r3, r3, r2
 7477 0400 7B61     		str	r3, [r7, #20]
1544:Lib/AI_Runtime/Npu/ll_aton/ll_aton_lib_sw_operators.c **** 
1545:Lib/AI_Runtime/Npu/ll_aton/ll_aton_lib_sw_operators.c ****       int32_t src_idx = (n_elems > 1) ? -1 : 0;
 7478              		.loc 1 1545 44
 7479 0402 BB69     		ldr	r3, [r7, #24]
 7480 0404 012B     		cmp	r3, #1
 7481 0406 02DD     		ble	.L451
 7482              		.loc 1 1545 44 is_stmt 0 discriminator 1
 7483 0408 4FF0FF33 		mov	r3, #-1
 7484 040c 00E0     		b	.L452
 7485              	.L451:
ARM GAS  /tmp/ccgnzMmM.s 			page 176


 7486              		.loc 1 1545 44 discriminator 2
 7487 040e 0023     		movs	r3, #0
 7488              	.L452:
 7489              		.loc 1 1545 15 is_stmt 1 discriminator 4
 7490 0410 7B65     		str	r3, [r7, #84]
1546:Lib/AI_Runtime/Npu/ll_aton/ll_aton_lib_sw_operators.c **** 
1547:Lib/AI_Runtime/Npu/ll_aton/ll_aton_lib_sw_operators.c ****       bool forward = false;
 7491              		.loc 1 1547 12
 7492 0412 0023     		movs	r3, #0
 7493 0414 87F85330 		strb	r3, [r7, #83]
 7494              	.LBB79:
1548:Lib/AI_Runtime/Npu/ll_aton/ll_aton_lib_sw_operators.c ****       for (int i = 0; i < nr_loops; i++)
 7495              		.loc 1 1548 16
 7496 0418 0023     		movs	r3, #0
 7497 041a FB64     		str	r3, [r7, #76]
 7498              		.loc 1 1548 7
 7499 041c 6DE0     		b	.L453
 7500              	.L469:
1549:Lib/AI_Runtime/Npu/ll_aton/ll_aton_lib_sw_operators.c ****       {
1550:Lib/AI_Runtime/Npu/ll_aton/ll_aton_lib_sw_operators.c **** #if defined(DUMP_DEBUG_SW_OPS)
1551:Lib/AI_Runtime/Npu/ll_aton/ll_aton_lib_sw_operators.c ****         LL_ATON_PRINTF("%s(%d): memcpy, curr_axis=%d, dst=%p, src=%p, src_idx=%d, bytes=%d, n_elems
1552:Lib/AI_Runtime/Npu/ll_aton/ll_aton_lib_sw_operators.c ****                        __func__, __LINE__, curr_axis, (int8_t *)dst_ptr, (int8_t *)src_ptr + (src_i
1553:Lib/AI_Runtime/Npu/ll_aton/ll_aton_lib_sw_operators.c ****                        src_idx, padding_bytes, n_elems, i + 1, nr_loops);
1554:Lib/AI_Runtime/Npu/ll_aton/ll_aton_lib_sw_operators.c **** #if (ATON_PLAT_HAS_FFLUSH)
1555:Lib/AI_Runtime/Npu/ll_aton/ll_aton_lib_sw_operators.c ****         LL_ATON_FFLUSH(stdout);
1556:Lib/AI_Runtime/Npu/ll_aton/ll_aton_lib_sw_operators.c **** #endif
1557:Lib/AI_Runtime/Npu/ll_aton/ll_aton_lib_sw_operators.c **** #endif
1558:Lib/AI_Runtime/Npu/ll_aton/ll_aton_lib_sw_operators.c ****         LL_ATON_ASSERT(dst_ptr < (dst_ptr + common_params->pad_out_offsets_end[curr_axis]));
 7501              		.loc 1 1558 9
 7502 041e BB68     		ldr	r3, [r7, #8]
 7503 0420 9A6C     		ldr	r2, [r3, #72]
 7504 0422 FB68     		ldr	r3, [r7, #12]
 7505 0424 9B00     		lsls	r3, r3, #2
 7506 0426 1344     		add	r3, r3, r2
 7507 0428 1B68     		ldr	r3, [r3]
 7508 042a 002B     		cmp	r3, #0
 7509 042c 06DC     		bgt	.L454
 7510              		.loc 1 1558 9 is_stmt 0 discriminator 1
 7511 042e 4A4B     		ldr	r3, .L474
 7512 0430 4A4A     		ldr	r2, .L474+4
 7513 0432 40F21661 		movw	r1, #1558
 7514 0436 4A48     		ldr	r0, .L474+8
 7515 0438 FFF7FEFF 		bl	__assert_func
 7516              	.L454:
1559:Lib/AI_Runtime/Npu/ll_aton/ll_aton_lib_sw_operators.c ****         LL_ATON_ASSERT((-src_idx) < n_elems);
 7517              		.loc 1 1559 9 is_stmt 1
 7518 043c 7B6D     		ldr	r3, [r7, #84]
 7519 043e 5B42     		rsbs	r3, r3, #0
 7520 0440 BA69     		ldr	r2, [r7, #24]
 7521 0442 9A42     		cmp	r2, r3
 7522 0444 06DC     		bgt	.L455
 7523              		.loc 1 1559 9 is_stmt 0 discriminator 1
 7524 0446 474B     		ldr	r3, .L474+12
 7525 0448 444A     		ldr	r2, .L474+4
 7526 044a 40F21761 		movw	r1, #1559
 7527 044e 4448     		ldr	r0, .L474+8
 7528 0450 FFF7FEFF 		bl	__assert_func
ARM GAS  /tmp/ccgnzMmM.s 			page 177


 7529              	.L455:
1560:Lib/AI_Runtime/Npu/ll_aton/ll_aton_lib_sw_operators.c ****         LL_ATON_ASSERT(src_idx <= 0);
 7530              		.loc 1 1560 9 is_stmt 1
 7531 0454 7B6D     		ldr	r3, [r7, #84]
 7532 0456 002B     		cmp	r3, #0
 7533 0458 06DD     		ble	.L456
 7534              		.loc 1 1560 9 is_stmt 0 discriminator 1
 7535 045a 434B     		ldr	r3, .L474+16
 7536 045c 3F4A     		ldr	r2, .L474+4
 7537 045e 4FF4C361 		mov	r1, #1560
 7538 0462 3F48     		ldr	r0, .L474+8
 7539 0464 FFF7FEFF 		bl	__assert_func
 7540              	.L456:
1561:Lib/AI_Runtime/Npu/ll_aton/ll_aton_lib_sw_operators.c **** 
1562:Lib/AI_Runtime/Npu/ll_aton/ll_aton_lib_sw_operators.c ****         memcpy(dst_ptr, src_ptr + (src_idx * padding_bytes), padding_bytes);
 7541              		.loc 1 1562 44 is_stmt 1
 7542 0468 7B6D     		ldr	r3, [r7, #84]
 7543 046a FA69     		ldr	r2, [r7, #28]
 7544 046c 02FB03F3 		mul	r3, r2, r3
 7545 0470 1A46     		mov	r2, r3
 7546              		.loc 1 1562 33
 7547 0472 7B69     		ldr	r3, [r7, #20]
 7548 0474 1344     		add	r3, r3, r2
 7549              		.loc 1 1562 9
 7550 0476 FA69     		ldr	r2, [r7, #28]
 7551 0478 1946     		mov	r1, r3
 7552 047a B86D     		ldr	r0, [r7, #88]
 7553 047c FFF7FEFF 		bl	memcpy
1563:Lib/AI_Runtime/Npu/ll_aton/ll_aton_lib_sw_operators.c **** 
1564:Lib/AI_Runtime/Npu/ll_aton/ll_aton_lib_sw_operators.c ****         dst_ptr += padding_bytes;
 7554              		.loc 1 1564 17
 7555 0480 FB69     		ldr	r3, [r7, #28]
 7556 0482 BA6D     		ldr	r2, [r7, #88]
 7557 0484 1344     		add	r3, r3, r2
 7558 0486 BB65     		str	r3, [r7, #88]
1565:Lib/AI_Runtime/Npu/ll_aton/ll_aton_lib_sw_operators.c ****         if (forward)
 7559              		.loc 1 1565 12
 7560 0488 97F85330 		ldrb	r3, [r7, #83]	@ zero_extendqisi2
 7561 048c 002B     		cmp	r3, #0
 7562 048e 17D0     		beq	.L457
1566:Lib/AI_Runtime/Npu/ll_aton/ll_aton_lib_sw_operators.c ****         {
1567:Lib/AI_Runtime/Npu/ll_aton/ll_aton_lib_sw_operators.c ****           if (src_idx >= 0)
 7563              		.loc 1 1567 14
 7564 0490 7B6D     		ldr	r3, [r7, #84]
 7565 0492 002B     		cmp	r3, #0
 7566 0494 0BDB     		blt	.L458
1568:Lib/AI_Runtime/Npu/ll_aton/ll_aton_lib_sw_operators.c ****           {
1569:Lib/AI_Runtime/Npu/ll_aton/ll_aton_lib_sw_operators.c ****             forward = false;
 7567              		.loc 1 1569 21
 7568 0496 0023     		movs	r3, #0
 7569 0498 87F85330 		strb	r3, [r7, #83]
1570:Lib/AI_Runtime/Npu/ll_aton/ll_aton_lib_sw_operators.c ****             src_idx = (n_elems > 1) ? -1 : 0;
 7570              		.loc 1 1570 42
 7571 049c BB69     		ldr	r3, [r7, #24]
 7572 049e 012B     		cmp	r3, #1
 7573 04a0 02DD     		ble	.L459
 7574              		.loc 1 1570 42 is_stmt 0 discriminator 1
ARM GAS  /tmp/ccgnzMmM.s 			page 178


 7575 04a2 4FF0FF33 		mov	r3, #-1
 7576 04a6 00E0     		b	.L460
 7577              	.L459:
 7578              		.loc 1 1570 42 discriminator 2
 7579 04a8 0023     		movs	r3, #0
 7580              	.L460:
 7581              		.loc 1 1570 21 is_stmt 1 discriminator 4
 7582 04aa 7B65     		str	r3, [r7, #84]
 7583 04ac 22E0     		b	.L461
 7584              	.L458:
1571:Lib/AI_Runtime/Npu/ll_aton/ll_aton_lib_sw_operators.c ****           }
1572:Lib/AI_Runtime/Npu/ll_aton/ll_aton_lib_sw_operators.c ****           else
1573:Lib/AI_Runtime/Npu/ll_aton/ll_aton_lib_sw_operators.c ****           {
1574:Lib/AI_Runtime/Npu/ll_aton/ll_aton_lib_sw_operators.c ****             src_idx = (n_elems > 1) ? (src_idx + 1) : 0;
 7585              		.loc 1 1574 53
 7586 04ae BB69     		ldr	r3, [r7, #24]
 7587 04b0 012B     		cmp	r3, #1
 7588 04b2 02DD     		ble	.L462
 7589              		.loc 1 1574 53 is_stmt 0 discriminator 1
 7590 04b4 7B6D     		ldr	r3, [r7, #84]
 7591 04b6 0133     		adds	r3, r3, #1
 7592 04b8 00E0     		b	.L463
 7593              	.L462:
 7594              		.loc 1 1574 53 discriminator 2
 7595 04ba 0023     		movs	r3, #0
 7596              	.L463:
 7597              		.loc 1 1574 21 is_stmt 1 discriminator 4
 7598 04bc 7B65     		str	r3, [r7, #84]
 7599 04be 19E0     		b	.L461
 7600              	.L457:
1575:Lib/AI_Runtime/Npu/ll_aton/ll_aton_lib_sw_operators.c ****           }
1576:Lib/AI_Runtime/Npu/ll_aton/ll_aton_lib_sw_operators.c ****         }
1577:Lib/AI_Runtime/Npu/ll_aton/ll_aton_lib_sw_operators.c ****         else
1578:Lib/AI_Runtime/Npu/ll_aton/ll_aton_lib_sw_operators.c ****         {
1579:Lib/AI_Runtime/Npu/ll_aton/ll_aton_lib_sw_operators.c ****           if ((-src_idx) >= (n_elems - 1))
 7601              		.loc 1 1579 16
 7602 04c0 7B6D     		ldr	r3, [r7, #84]
 7603 04c2 5A42     		rsbs	r2, r3, #0
 7604              		.loc 1 1579 38
 7605 04c4 BB69     		ldr	r3, [r7, #24]
 7606 04c6 013B     		subs	r3, r3, #1
 7607              		.loc 1 1579 14
 7608 04c8 9A42     		cmp	r2, r3
 7609 04ca 0BDB     		blt	.L464
1580:Lib/AI_Runtime/Npu/ll_aton/ll_aton_lib_sw_operators.c ****           {
1581:Lib/AI_Runtime/Npu/ll_aton/ll_aton_lib_sw_operators.c ****             forward = true;
 7610              		.loc 1 1581 21
 7611 04cc 0123     		movs	r3, #1
 7612 04ce 87F85330 		strb	r3, [r7, #83]
1582:Lib/AI_Runtime/Npu/ll_aton/ll_aton_lib_sw_operators.c ****             src_idx = (n_elems > 1) ? (src_idx + 1) : 0;
 7613              		.loc 1 1582 53
 7614 04d2 BB69     		ldr	r3, [r7, #24]
 7615 04d4 012B     		cmp	r3, #1
 7616 04d6 02DD     		ble	.L465
 7617              		.loc 1 1582 53 is_stmt 0 discriminator 1
 7618 04d8 7B6D     		ldr	r3, [r7, #84]
 7619 04da 0133     		adds	r3, r3, #1
ARM GAS  /tmp/ccgnzMmM.s 			page 179


 7620 04dc 00E0     		b	.L466
 7621              	.L465:
 7622              		.loc 1 1582 53 discriminator 2
 7623 04de 0023     		movs	r3, #0
 7624              	.L466:
 7625              		.loc 1 1582 21 is_stmt 1 discriminator 4
 7626 04e0 7B65     		str	r3, [r7, #84]
 7627 04e2 07E0     		b	.L461
 7628              	.L464:
1583:Lib/AI_Runtime/Npu/ll_aton/ll_aton_lib_sw_operators.c ****           }
1584:Lib/AI_Runtime/Npu/ll_aton/ll_aton_lib_sw_operators.c ****           else
1585:Lib/AI_Runtime/Npu/ll_aton/ll_aton_lib_sw_operators.c ****           {
1586:Lib/AI_Runtime/Npu/ll_aton/ll_aton_lib_sw_operators.c ****             src_idx = (n_elems > 1) ? (src_idx - 1) : 0;
 7629              		.loc 1 1586 53
 7630 04e4 BB69     		ldr	r3, [r7, #24]
 7631 04e6 012B     		cmp	r3, #1
 7632 04e8 02DD     		ble	.L467
 7633              		.loc 1 1586 53 is_stmt 0 discriminator 1
 7634 04ea 7B6D     		ldr	r3, [r7, #84]
 7635 04ec 013B     		subs	r3, r3, #1
 7636 04ee 00E0     		b	.L468
 7637              	.L467:
 7638              		.loc 1 1586 53 discriminator 2
 7639 04f0 0023     		movs	r3, #0
 7640              	.L468:
 7641              		.loc 1 1586 21 is_stmt 1 discriminator 4
 7642 04f2 7B65     		str	r3, [r7, #84]
 7643              	.L461:
1548:Lib/AI_Runtime/Npu/ll_aton/ll_aton_lib_sw_operators.c ****       {
 7644              		.loc 1 1548 38 discriminator 2
 7645 04f4 FB6C     		ldr	r3, [r7, #76]
 7646 04f6 0133     		adds	r3, r3, #1
 7647 04f8 FB64     		str	r3, [r7, #76]
 7648              	.L453:
1548:Lib/AI_Runtime/Npu/ll_aton/ll_aton_lib_sw_operators.c ****       {
 7649              		.loc 1 1548 25 discriminator 1
 7650 04fa FA6C     		ldr	r2, [r7, #76]
 7651 04fc 3B6A     		ldr	r3, [r7, #32]
 7652 04fe 9A42     		cmp	r2, r3
 7653 0500 8DDB     		blt	.L469
 7654              	.L450:
 7655              	.LBE79:
 7656              	.LBE78:
1587:Lib/AI_Runtime/Npu/ll_aton/ll_aton_lib_sw_operators.c ****           }
1588:Lib/AI_Runtime/Npu/ll_aton/ll_aton_lib_sw_operators.c ****         }
1589:Lib/AI_Runtime/Npu/ll_aton/ll_aton_lib_sw_operators.c ****       }
1590:Lib/AI_Runtime/Npu/ll_aton/ll_aton_lib_sw_operators.c ****     }
1591:Lib/AI_Runtime/Npu/ll_aton/ll_aton_lib_sw_operators.c **** 
1592:Lib/AI_Runtime/Npu/ll_aton/ll_aton_lib_sw_operators.c ****     common_params->out_target += common_params->pad_out_offsets_end[curr_axis];
 7657              		.loc 1 1592 18
 7658 0502 BB68     		ldr	r3, [r7, #8]
 7659 0504 5B68     		ldr	r3, [r3, #4]
 7660              		.loc 1 1592 47
 7661 0506 BA68     		ldr	r2, [r7, #8]
 7662 0508 916C     		ldr	r1, [r2, #72]
 7663              		.loc 1 1592 68
 7664 050a FA68     		ldr	r2, [r7, #12]
ARM GAS  /tmp/ccgnzMmM.s 			page 180


 7665 050c 9200     		lsls	r2, r2, #2
 7666 050e 0A44     		add	r2, r2, r1
 7667 0510 1268     		ldr	r2, [r2]
 7668              		.loc 1 1592 31
 7669 0512 1A44     		add	r2, r2, r3
 7670 0514 BB68     		ldr	r3, [r7, #8]
 7671 0516 5A60     		str	r2, [r3, #4]
1593:Lib/AI_Runtime/Npu/ll_aton/ll_aton_lib_sw_operators.c **** 
1594:Lib/AI_Runtime/Npu/ll_aton/ll_aton_lib_sw_operators.c **** #if defined(DUMP_DEBUG_SW_OPS)
1595:Lib/AI_Runtime/Npu/ll_aton/ll_aton_lib_sw_operators.c ****     LL_ATON_PRINTF("%s(%d): out=%p, end=%p\n", __func__, __LINE__, (int8_t *)common_params->out_tar
1596:Lib/AI_Runtime/Npu/ll_aton/ll_aton_lib_sw_operators.c ****                    (int8_t *)common_params->end_out_target);
1597:Lib/AI_Runtime/Npu/ll_aton/ll_aton_lib_sw_operators.c **** #if (ATON_PLAT_HAS_FFLUSH)
1598:Lib/AI_Runtime/Npu/ll_aton/ll_aton_lib_sw_operators.c ****     LL_ATON_FFLUSH(stdout);
1599:Lib/AI_Runtime/Npu/ll_aton/ll_aton_lib_sw_operators.c **** #endif
1600:Lib/AI_Runtime/Npu/ll_aton/ll_aton_lib_sw_operators.c **** #endif
1601:Lib/AI_Runtime/Npu/ll_aton/ll_aton_lib_sw_operators.c ****     LL_ATON_ASSERT(common_params->out_target <= common_params->end_out_target);
 7672              		.loc 1 1601 5
 7673 0518 BB68     		ldr	r3, [r7, #8]
 7674 051a 5A68     		ldr	r2, [r3, #4]
 7675 051c BB68     		ldr	r3, [r7, #8]
 7676 051e 9B6A     		ldr	r3, [r3, #40]
 7677 0520 9A42     		cmp	r2, r3
 7678 0522 06D9     		bls	.L448
 7679              		.loc 1 1601 5 is_stmt 0 discriminator 1
 7680 0524 114B     		ldr	r3, .L474+20
 7681 0526 0D4A     		ldr	r2, .L474+4
 7682 0528 40F24161 		movw	r1, #1601
 7683 052c 0C48     		ldr	r0, .L474+8
 7684 052e FFF7FEFF 		bl	__assert_func
 7685              	.L448:
1602:Lib/AI_Runtime/Npu/ll_aton/ll_aton_lib_sw_operators.c ****   }
1603:Lib/AI_Runtime/Npu/ll_aton/ll_aton_lib_sw_operators.c **** 
1604:Lib/AI_Runtime/Npu/ll_aton/ll_aton_lib_sw_operators.c ****   LL_ATON_ASSERT(common_params->pad_in_offsets_end[curr_axis] >= 0);
 7686              		.loc 1 1604 3 is_stmt 1
 7687 0532 BB68     		ldr	r3, [r7, #8]
 7688 0534 1A6C     		ldr	r2, [r3, #64]
 7689 0536 FB68     		ldr	r3, [r7, #12]
 7690 0538 9B00     		lsls	r3, r3, #2
 7691 053a 1344     		add	r3, r3, r2
 7692 053c 1B68     		ldr	r3, [r3]
 7693 053e 002B     		cmp	r3, #0
 7694 0540 06DA     		bge	.L471
 7695              		.loc 1 1604 3 is_stmt 0 discriminator 1
 7696 0542 0B4B     		ldr	r3, .L474+24
 7697 0544 054A     		ldr	r2, .L474+4
 7698 0546 40F24461 		movw	r1, #1604
 7699 054a 0548     		ldr	r0, .L474+8
 7700 054c FFF7FEFF 		bl	__assert_func
 7701              	.L471:
1605:Lib/AI_Runtime/Npu/ll_aton/ll_aton_lib_sw_operators.c **** }
 7702              		.loc 1 1605 1 is_stmt 1
 7703 0550 00BF     		nop
 7704 0552 7437     		adds	r7, r7, #116
 7705              		.cfi_def_cfa_offset 12
 7706 0554 BD46     		mov	sp, r7
 7707              		.cfi_def_cfa_register 13
 7708              		@ sp needed
ARM GAS  /tmp/ccgnzMmM.s 			page 181


 7709 0556 90BD     		pop	{r4, r7, pc}
 7710              	.L475:
 7711              		.align	2
 7712              	.L474:
 7713 0558 FC050000 		.word	.LC46
 7714 055c 00000000 		.word	__func__.8
 7715 0560 24000000 		.word	.LC1
 7716 0564 DC040000 		.word	.LC38
 7717 0568 F4040000 		.word	.LC39
 7718 056c 34050000 		.word	.LC41
 7719 0570 40060000 		.word	.LC47
 7720              		.cfi_endproc
 7721              	.LFE4886:
 7723              		.section	.text.__ll_aton_lib_pad_edge_sw,"ax",%progbits
 7724              		.align	1
 7725              		.syntax unified
 7726              		.thumb
 7727              		.thumb_func
 7729              	__ll_aton_lib_pad_edge_sw:
 7730              	.LFB4887:
1606:Lib/AI_Runtime/Npu/ll_aton/ll_aton_lib_sw_operators.c **** 
1607:Lib/AI_Runtime/Npu/ll_aton/ll_aton_lib_sw_operators.c **** static void __ll_aton_lib_pad_edge_sw(uint32_t curr_axis, __ll_pad_sw_params_t *common_params, bool
1608:Lib/AI_Runtime/Npu/ll_aton/ll_aton_lib_sw_operators.c **** {
 7731              		.loc 1 1608 1
 7732              		.cfi_startproc
 7733              		@ args = 0, pretend = 0, frame = 72
 7734              		@ frame_needed = 1, uses_anonymous_args = 0
 7735 0000 90B5     		push	{r4, r7, lr}
 7736              		.cfi_def_cfa_offset 12
 7737              		.cfi_offset 4, -12
 7738              		.cfi_offset 7, -8
 7739              		.cfi_offset 14, -4
 7740 0002 95B0     		sub	sp, sp, #84
 7741              		.cfi_def_cfa_offset 96
 7742 0004 02AF     		add	r7, sp, #8
 7743              		.cfi_def_cfa 7, 88
 7744 0006 F860     		str	r0, [r7, #12]
 7745 0008 B960     		str	r1, [r7, #8]
 7746 000a 1346     		mov	r3, r2
 7747 000c FB71     		strb	r3, [r7, #7]
1609:Lib/AI_Runtime/Npu/ll_aton/ll_aton_lib_sw_operators.c ****   LL_ATON_ASSERT(curr_axis <= (common_params->tensor_rank - 1));
 7748              		.loc 1 1609 3
 7749 000e BB68     		ldr	r3, [r7, #8]
 7750 0010 5B6A     		ldr	r3, [r3, #36]
 7751 0012 013B     		subs	r3, r3, #1
 7752 0014 FA68     		ldr	r2, [r7, #12]
 7753 0016 9A42     		cmp	r2, r3
 7754 0018 06D9     		bls	.L477
 7755              		.loc 1 1609 3 is_stmt 0 discriminator 1
 7756 001a 934B     		ldr	r3, .L495
 7757 001c 934A     		ldr	r2, .L495+4
 7758 001e 40F24961 		movw	r1, #1609
 7759 0022 9348     		ldr	r0, .L495+8
 7760 0024 FFF7FEFF 		bl	__assert_func
 7761              	.L477:
1610:Lib/AI_Runtime/Npu/ll_aton/ll_aton_lib_sw_operators.c **** 
1611:Lib/AI_Runtime/Npu/ll_aton/ll_aton_lib_sw_operators.c ****   if (common_params->pad_in_offsets_start[curr_axis] < 0)
ARM GAS  /tmp/ccgnzMmM.s 			page 182


 7762              		.loc 1 1611 20 is_stmt 1
 7763 0028 BB68     		ldr	r3, [r7, #8]
 7764 002a DA6B     		ldr	r2, [r3, #60]
 7765              		.loc 1 1611 42
 7766 002c FB68     		ldr	r3, [r7, #12]
 7767 002e 9B00     		lsls	r3, r3, #2
 7768 0030 1344     		add	r3, r3, r2
 7769 0032 1B68     		ldr	r3, [r3]
 7770              		.loc 1 1611 6
 7771 0034 002B     		cmp	r3, #0
 7772 0036 0BDA     		bge	.L478
1612:Lib/AI_Runtime/Npu/ll_aton/ll_aton_lib_sw_operators.c ****   {
1613:Lib/AI_Runtime/Npu/ll_aton/ll_aton_lib_sw_operators.c ****     common_params->in_target -= common_params->pad_in_offsets_start[curr_axis];
 7773              		.loc 1 1613 18
 7774 0038 BB68     		ldr	r3, [r7, #8]
 7775 003a 1A68     		ldr	r2, [r3]
 7776              		.loc 1 1613 46
 7777 003c BB68     		ldr	r3, [r7, #8]
 7778 003e D96B     		ldr	r1, [r3, #60]
 7779              		.loc 1 1613 68
 7780 0040 FB68     		ldr	r3, [r7, #12]
 7781 0042 9B00     		lsls	r3, r3, #2
 7782 0044 0B44     		add	r3, r3, r1
 7783 0046 1B68     		ldr	r3, [r3]
 7784              		.loc 1 1613 30
 7785 0048 5B42     		rsbs	r3, r3, #0
 7786 004a 1A44     		add	r2, r2, r3
 7787 004c BB68     		ldr	r3, [r7, #8]
 7788 004e 1A60     		str	r2, [r3]
 7789              	.L478:
1614:Lib/AI_Runtime/Npu/ll_aton/ll_aton_lib_sw_operators.c ****   }
1615:Lib/AI_Runtime/Npu/ll_aton/ll_aton_lib_sw_operators.c **** 
1616:Lib/AI_Runtime/Npu/ll_aton/ll_aton_lib_sw_operators.c ****   int8_t *curr_out_ptr = common_params->out_target;
 7790              		.loc 1 1616 11
 7791 0050 BB68     		ldr	r3, [r7, #8]
 7792 0052 5B68     		ldr	r3, [r3, #4]
 7793 0054 3B63     		str	r3, [r7, #48]
1617:Lib/AI_Runtime/Npu/ll_aton/ll_aton_lib_sw_operators.c **** 
1618:Lib/AI_Runtime/Npu/ll_aton/ll_aton_lib_sw_operators.c ****   if (common_params->pad_out_offsets_start[curr_axis] > 0)
 7794              		.loc 1 1618 20
 7795 0056 BB68     		ldr	r3, [r7, #8]
 7796 0058 5A6C     		ldr	r2, [r3, #68]
 7797              		.loc 1 1618 43
 7798 005a FB68     		ldr	r3, [r7, #12]
 7799 005c 9B00     		lsls	r3, r3, #2
 7800 005e 1344     		add	r3, r3, r2
 7801 0060 1B68     		ldr	r3, [r3]
 7802              		.loc 1 1618 6
 7803 0062 002B     		cmp	r3, #0
 7804 0064 0ADD     		ble	.L479
1619:Lib/AI_Runtime/Npu/ll_aton/ll_aton_lib_sw_operators.c ****   {
1620:Lib/AI_Runtime/Npu/ll_aton/ll_aton_lib_sw_operators.c ****     common_params->out_target += common_params->pad_out_offsets_start[curr_axis];
 7805              		.loc 1 1620 18
 7806 0066 BB68     		ldr	r3, [r7, #8]
 7807 0068 5B68     		ldr	r3, [r3, #4]
 7808              		.loc 1 1620 47
 7809 006a BA68     		ldr	r2, [r7, #8]
ARM GAS  /tmp/ccgnzMmM.s 			page 183


 7810 006c 516C     		ldr	r1, [r2, #68]
 7811              		.loc 1 1620 70
 7812 006e FA68     		ldr	r2, [r7, #12]
 7813 0070 9200     		lsls	r2, r2, #2
 7814 0072 0A44     		add	r2, r2, r1
 7815 0074 1268     		ldr	r2, [r2]
 7816              		.loc 1 1620 31
 7817 0076 1A44     		add	r2, r2, r3
 7818 0078 BB68     		ldr	r3, [r7, #8]
 7819 007a 5A60     		str	r2, [r3, #4]
 7820              	.L479:
1621:Lib/AI_Runtime/Npu/ll_aton/ll_aton_lib_sw_operators.c ****   }
1622:Lib/AI_Runtime/Npu/ll_aton/ll_aton_lib_sw_operators.c **** 
1623:Lib/AI_Runtime/Npu/ll_aton/ll_aton_lib_sw_operators.c ****   if (curr_axis == (common_params->tensor_rank - 1))
 7821              		.loc 1 1623 34
 7822 007c BB68     		ldr	r3, [r7, #8]
 7823 007e 5B6A     		ldr	r3, [r3, #36]
 7824              		.loc 1 1623 48
 7825 0080 013B     		subs	r3, r3, #1
 7826              		.loc 1 1623 6
 7827 0082 FA68     		ldr	r2, [r7, #12]
 7828 0084 9A42     		cmp	r2, r3
 7829 0086 46D1     		bne	.L480
 7830              	.LBB80:
1624:Lib/AI_Runtime/Npu/ll_aton/ll_aton_lib_sw_operators.c ****   {
1625:Lib/AI_Runtime/Npu/ll_aton/ll_aton_lib_sw_operators.c ****     if (common_params->pad_out_offsets_start[curr_axis] > 0)
 7831              		.loc 1 1625 22
 7832 0088 BB68     		ldr	r3, [r7, #8]
 7833 008a 5A6C     		ldr	r2, [r3, #68]
 7834              		.loc 1 1625 45
 7835 008c FB68     		ldr	r3, [r7, #12]
 7836 008e 9B00     		lsls	r3, r3, #2
 7837 0090 1344     		add	r3, r3, r2
 7838 0092 1B68     		ldr	r3, [r3]
 7839              		.loc 1 1625 8
 7840 0094 002B     		cmp	r3, #0
 7841 0096 0FDD     		ble	.L481
1626:Lib/AI_Runtime/Npu/ll_aton/ll_aton_lib_sw_operators.c ****     {
1627:Lib/AI_Runtime/Npu/ll_aton/ll_aton_lib_sw_operators.c ****       __ll_aton_lib_edge_framing_sw(curr_axis, common_params->nbytes, curr_out_ptr, common_params->
 7842              		.loc 1 1627 7
 7843 0098 BB68     		ldr	r3, [r7, #8]
 7844 009a 197E     		ldrb	r1, [r3, #24]	@ zero_extendqisi2
 7845              		.loc 1 1627 98
 7846 009c BB68     		ldr	r3, [r7, #8]
 7847 009e 1868     		ldr	r0, [r3]
1628:Lib/AI_Runtime/Npu/ll_aton/ll_aton_lib_sw_operators.c ****                                     common_params->pad_out_offsets_start[curr_axis]);
 7848              		.loc 1 1628 50
 7849 00a0 BB68     		ldr	r3, [r7, #8]
 7850 00a2 5A6C     		ldr	r2, [r3, #68]
 7851              		.loc 1 1628 73
 7852 00a4 FB68     		ldr	r3, [r7, #12]
 7853 00a6 9B00     		lsls	r3, r3, #2
 7854 00a8 1344     		add	r3, r3, r2
1627:Lib/AI_Runtime/Npu/ll_aton/ll_aton_lib_sw_operators.c ****                                     common_params->pad_out_offsets_start[curr_axis]);
 7855              		.loc 1 1627 7
 7856 00aa 1B68     		ldr	r3, [r3]
 7857 00ac 0093     		str	r3, [sp]
ARM GAS  /tmp/ccgnzMmM.s 			page 184


 7858 00ae 0346     		mov	r3, r0
 7859 00b0 3A6B     		ldr	r2, [r7, #48]
 7860 00b2 F868     		ldr	r0, [r7, #12]
 7861 00b4 FFF7FEFF 		bl	__ll_aton_lib_edge_framing_sw
 7862              	.L481:
1629:Lib/AI_Runtime/Npu/ll_aton/ll_aton_lib_sw_operators.c ****     }
1630:Lib/AI_Runtime/Npu/ll_aton/ll_aton_lib_sw_operators.c **** 
1631:Lib/AI_Runtime/Npu/ll_aton/ll_aton_lib_sw_operators.c ****     int32_t filling_bytes = common_params->min_shape[curr_axis] * common_params->nbytes;
 7863              		.loc 1 1631 42
 7864 00b8 BB68     		ldr	r3, [r7, #8]
 7865 00ba 9A6B     		ldr	r2, [r3, #56]
 7866              		.loc 1 1631 53
 7867 00bc FB68     		ldr	r3, [r7, #12]
 7868 00be 9B00     		lsls	r3, r3, #2
 7869 00c0 1344     		add	r3, r3, r2
 7870 00c2 1B68     		ldr	r3, [r3]
 7871              		.loc 1 1631 80
 7872 00c4 BA68     		ldr	r2, [r7, #8]
 7873 00c6 127E     		ldrb	r2, [r2, #24]	@ zero_extendqisi2
 7874              		.loc 1 1631 65
 7875 00c8 02FB03F3 		mul	r3, r2, r3
 7876              		.loc 1 1631 13
 7877 00cc 3B62     		str	r3, [r7, #32]
1632:Lib/AI_Runtime/Npu/ll_aton/ll_aton_lib_sw_operators.c **** 
1633:Lib/AI_Runtime/Npu/ll_aton/ll_aton_lib_sw_operators.c ****     if (fill)
 7878              		.loc 1 1633 8
 7879 00ce FB79     		ldrb	r3, [r7, #7]	@ zero_extendqisi2
 7880 00d0 002B     		cmp	r3, #0
 7881 00d2 07D0     		beq	.L482
1634:Lib/AI_Runtime/Npu/ll_aton/ll_aton_lib_sw_operators.c ****     {
1635:Lib/AI_Runtime/Npu/ll_aton/ll_aton_lib_sw_operators.c **** #if defined(DUMP_DEBUG_SW_OPS)
1636:Lib/AI_Runtime/Npu/ll_aton/ll_aton_lib_sw_operators.c ****       LL_ATON_PRINTF("%s(%d): memcpy, curr_axis=%d, dst=%p, src=%p, bytes=%d\n", __func__, __LINE__
1637:Lib/AI_Runtime/Npu/ll_aton/ll_aton_lib_sw_operators.c ****                      (int8_t *)common_params->out_target, (int8_t *)common_params->in_target, filli
1638:Lib/AI_Runtime/Npu/ll_aton/ll_aton_lib_sw_operators.c **** #endif
1639:Lib/AI_Runtime/Npu/ll_aton/ll_aton_lib_sw_operators.c **** 
1640:Lib/AI_Runtime/Npu/ll_aton/ll_aton_lib_sw_operators.c ****       memcpy(common_params->out_target, common_params->in_target, filling_bytes);
 7882              		.loc 1 1640 27
 7883 00d4 BB68     		ldr	r3, [r7, #8]
 7884 00d6 5868     		ldr	r0, [r3, #4]
 7885              		.loc 1 1640 54
 7886 00d8 BB68     		ldr	r3, [r7, #8]
 7887 00da 1B68     		ldr	r3, [r3]
 7888              		.loc 1 1640 7
 7889 00dc 3A6A     		ldr	r2, [r7, #32]
 7890 00de 1946     		mov	r1, r3
 7891 00e0 FFF7FEFF 		bl	memcpy
 7892              	.L482:
1641:Lib/AI_Runtime/Npu/ll_aton/ll_aton_lib_sw_operators.c ****     }
1642:Lib/AI_Runtime/Npu/ll_aton/ll_aton_lib_sw_operators.c **** 
1643:Lib/AI_Runtime/Npu/ll_aton/ll_aton_lib_sw_operators.c ****     common_params->in_target += filling_bytes;
 7893              		.loc 1 1643 18
 7894 00e4 BB68     		ldr	r3, [r7, #8]
 7895 00e6 1A68     		ldr	r2, [r3]
 7896              		.loc 1 1643 30
 7897 00e8 3B6A     		ldr	r3, [r7, #32]
 7898 00ea 1A44     		add	r2, r2, r3
 7899 00ec BB68     		ldr	r3, [r7, #8]
ARM GAS  /tmp/ccgnzMmM.s 			page 185


 7900 00ee 1A60     		str	r2, [r3]
1644:Lib/AI_Runtime/Npu/ll_aton/ll_aton_lib_sw_operators.c ****     common_params->out_target += filling_bytes;
 7901              		.loc 1 1644 18
 7902 00f0 BB68     		ldr	r3, [r7, #8]
 7903 00f2 5A68     		ldr	r2, [r3, #4]
 7904              		.loc 1 1644 31
 7905 00f4 3B6A     		ldr	r3, [r7, #32]
 7906 00f6 1A44     		add	r2, r2, r3
 7907 00f8 BB68     		ldr	r3, [r7, #8]
 7908 00fa 5A60     		str	r2, [r3, #4]
1645:Lib/AI_Runtime/Npu/ll_aton/ll_aton_lib_sw_operators.c **** 
1646:Lib/AI_Runtime/Npu/ll_aton/ll_aton_lib_sw_operators.c **** #if defined(DUMP_DEBUG_SW_OPS)
1647:Lib/AI_Runtime/Npu/ll_aton/ll_aton_lib_sw_operators.c ****     LL_ATON_PRINTF("%s(%d): out=%p, end=%p\n", __func__, __LINE__, (int8_t *)common_params->out_tar
1648:Lib/AI_Runtime/Npu/ll_aton/ll_aton_lib_sw_operators.c ****                    (int8_t *)common_params->end_out_target);
1649:Lib/AI_Runtime/Npu/ll_aton/ll_aton_lib_sw_operators.c **** #if (ATON_PLAT_HAS_FFLUSH)
1650:Lib/AI_Runtime/Npu/ll_aton/ll_aton_lib_sw_operators.c ****     LL_ATON_FFLUSH(stdout);
1651:Lib/AI_Runtime/Npu/ll_aton/ll_aton_lib_sw_operators.c **** #endif
1652:Lib/AI_Runtime/Npu/ll_aton/ll_aton_lib_sw_operators.c **** #endif
1653:Lib/AI_Runtime/Npu/ll_aton/ll_aton_lib_sw_operators.c ****     LL_ATON_ASSERT(common_params->out_target <= common_params->end_out_target);
 7909              		.loc 1 1653 5
 7910 00fc BB68     		ldr	r3, [r7, #8]
 7911 00fe 5A68     		ldr	r2, [r3, #4]
 7912 0100 BB68     		ldr	r3, [r7, #8]
 7913 0102 9B6A     		ldr	r3, [r3, #40]
 7914 0104 9A42     		cmp	r2, r3
 7915 0106 5DD9     		bls	.L483
 7916              		.loc 1 1653 5 is_stmt 0 discriminator 1
 7917 0108 5A4B     		ldr	r3, .L495+12
 7918 010a 584A     		ldr	r2, .L495+4
 7919 010c 40F27561 		movw	r1, #1653
 7920 0110 5748     		ldr	r0, .L495+8
 7921 0112 FFF7FEFF 		bl	__assert_func
 7922              	.L480:
 7923              	.LBE80:
 7924              	.LBB81:
1654:Lib/AI_Runtime/Npu/ll_aton/ll_aton_lib_sw_operators.c ****   }
1655:Lib/AI_Runtime/Npu/ll_aton/ll_aton_lib_sw_operators.c ****   else
1656:Lib/AI_Runtime/Npu/ll_aton/ll_aton_lib_sw_operators.c ****   {
1657:Lib/AI_Runtime/Npu/ll_aton/ll_aton_lib_sw_operators.c ****     for (int i = 0; i < common_params->min_shape[curr_axis]; i++)
 7925              		.loc 1 1657 14 is_stmt 1
 7926 0116 0023     		movs	r3, #0
 7927 0118 7B64     		str	r3, [r7, #68]
 7928              		.loc 1 1657 5
 7929 011a 09E0     		b	.L484
 7930              	.L485:
1658:Lib/AI_Runtime/Npu/ll_aton/ll_aton_lib_sw_operators.c ****     {
1659:Lib/AI_Runtime/Npu/ll_aton/ll_aton_lib_sw_operators.c ****       __ll_aton_lib_pad_edge_sw(curr_axis + 1, common_params, fill);
 7931              		.loc 1 1659 7
 7932 011c FB68     		ldr	r3, [r7, #12]
 7933 011e 0133     		adds	r3, r3, #1
 7934 0120 FA79     		ldrb	r2, [r7, #7]	@ zero_extendqisi2
 7935 0122 B968     		ldr	r1, [r7, #8]
 7936 0124 1846     		mov	r0, r3
 7937 0126 FFF76BFF 		bl	__ll_aton_lib_pad_edge_sw
1657:Lib/AI_Runtime/Npu/ll_aton/ll_aton_lib_sw_operators.c ****     {
 7938              		.loc 1 1657 63 discriminator 3
 7939 012a 7B6C     		ldr	r3, [r7, #68]
ARM GAS  /tmp/ccgnzMmM.s 			page 186


 7940 012c 0133     		adds	r3, r3, #1
 7941 012e 7B64     		str	r3, [r7, #68]
 7942              	.L484:
1657:Lib/AI_Runtime/Npu/ll_aton/ll_aton_lib_sw_operators.c ****     {
 7943              		.loc 1 1657 38 discriminator 1
 7944 0130 BB68     		ldr	r3, [r7, #8]
 7945 0132 9A6B     		ldr	r2, [r3, #56]
1657:Lib/AI_Runtime/Npu/ll_aton/ll_aton_lib_sw_operators.c ****     {
 7946              		.loc 1 1657 49 discriminator 1
 7947 0134 FB68     		ldr	r3, [r7, #12]
 7948 0136 9B00     		lsls	r3, r3, #2
 7949 0138 1344     		add	r3, r3, r2
 7950 013a 1A68     		ldr	r2, [r3]
1657:Lib/AI_Runtime/Npu/ll_aton/ll_aton_lib_sw_operators.c ****     {
 7951              		.loc 1 1657 23 discriminator 1
 7952 013c 7B6C     		ldr	r3, [r7, #68]
 7953 013e 9A42     		cmp	r2, r3
 7954 0140 ECD8     		bhi	.L485
 7955              	.LBE81:
1660:Lib/AI_Runtime/Npu/ll_aton/ll_aton_lib_sw_operators.c ****     }
1661:Lib/AI_Runtime/Npu/ll_aton/ll_aton_lib_sw_operators.c **** 
1662:Lib/AI_Runtime/Npu/ll_aton/ll_aton_lib_sw_operators.c ****     if (common_params->pad_out_offsets_start[curr_axis] > 0)
 7956              		.loc 1 1662 22
 7957 0142 BB68     		ldr	r3, [r7, #8]
 7958 0144 5A6C     		ldr	r2, [r3, #68]
 7959              		.loc 1 1662 45
 7960 0146 FB68     		ldr	r3, [r7, #12]
 7961 0148 9B00     		lsls	r3, r3, #2
 7962 014a 1344     		add	r3, r3, r2
 7963 014c 1B68     		ldr	r3, [r3]
 7964              		.loc 1 1662 8
 7965 014e 002B     		cmp	r3, #0
 7966 0150 38DD     		ble	.L483
 7967              	.LBB82:
1663:Lib/AI_Runtime/Npu/ll_aton/ll_aton_lib_sw_operators.c ****     {
1664:Lib/AI_Runtime/Npu/ll_aton/ll_aton_lib_sw_operators.c ****       int32_t nr_loops = common_params->pad_out_offsets_start[curr_axis] /
 7968              		.loc 1 1664 39
 7969 0152 BB68     		ldr	r3, [r7, #8]
 7970 0154 5A6C     		ldr	r2, [r3, #68]
 7971              		.loc 1 1664 62
 7972 0156 FB68     		ldr	r3, [r7, #12]
 7973 0158 9B00     		lsls	r3, r3, #2
 7974 015a 1344     		add	r3, r3, r2
 7975 015c 1A68     		ldr	r2, [r3]
1665:Lib/AI_Runtime/Npu/ll_aton/ll_aton_lib_sw_operators.c ****                          common_params->out_offsets[curr_axis]; // i.e.: pads_start[curr_axis];
 7976              		.loc 1 1665 39
 7977 015e BB68     		ldr	r3, [r7, #8]
 7978 0160 196D     		ldr	r1, [r3, #80]
 7979              		.loc 1 1665 52
 7980 0162 FB68     		ldr	r3, [r7, #12]
 7981 0164 9B00     		lsls	r3, r3, #2
 7982 0166 0B44     		add	r3, r3, r1
 7983 0168 1B68     		ldr	r3, [r3]
1664:Lib/AI_Runtime/Npu/ll_aton/ll_aton_lib_sw_operators.c ****                          common_params->out_offsets[curr_axis]; // i.e.: pads_start[curr_axis];
 7984              		.loc 1 1664 15
 7985 016a 92FBF3F3 		sdiv	r3, r2, r3
 7986 016e FB62     		str	r3, [r7, #44]
ARM GAS  /tmp/ccgnzMmM.s 			page 187


1666:Lib/AI_Runtime/Npu/ll_aton/ll_aton_lib_sw_operators.c ****       int32_t padding_bytes = common_params->pad_out_offsets_start[curr_axis] / nr_loops;
 7987              		.loc 1 1666 44
 7988 0170 BB68     		ldr	r3, [r7, #8]
 7989 0172 5A6C     		ldr	r2, [r3, #68]
 7990              		.loc 1 1666 67
 7991 0174 FB68     		ldr	r3, [r7, #12]
 7992 0176 9B00     		lsls	r3, r3, #2
 7993 0178 1344     		add	r3, r3, r2
 7994 017a 1A68     		ldr	r2, [r3]
 7995              		.loc 1 1666 15
 7996 017c FB6A     		ldr	r3, [r7, #44]
 7997 017e 92FBF3F3 		sdiv	r3, r2, r3
 7998 0182 BB62     		str	r3, [r7, #40]
1667:Lib/AI_Runtime/Npu/ll_aton/ll_aton_lib_sw_operators.c **** 
1668:Lib/AI_Runtime/Npu/ll_aton/ll_aton_lib_sw_operators.c ****       int8_t *dst_ptr = curr_out_ptr;
 7999              		.loc 1 1668 15
 8000 0184 3B6B     		ldr	r3, [r7, #48]
 8001 0186 3B64     		str	r3, [r7, #64]
1669:Lib/AI_Runtime/Npu/ll_aton/ll_aton_lib_sw_operators.c ****       int8_t *src_ptr = curr_out_ptr + common_params->pad_out_offsets_start[curr_axis];
 8002              		.loc 1 1669 53
 8003 0188 BB68     		ldr	r3, [r7, #8]
 8004 018a 5A6C     		ldr	r2, [r3, #68]
 8005              		.loc 1 1669 76
 8006 018c FB68     		ldr	r3, [r7, #12]
 8007 018e 9B00     		lsls	r3, r3, #2
 8008 0190 1344     		add	r3, r3, r2
 8009 0192 1B68     		ldr	r3, [r3]
 8010 0194 1A46     		mov	r2, r3
 8011              		.loc 1 1669 15
 8012 0196 3B6B     		ldr	r3, [r7, #48]
 8013 0198 1344     		add	r3, r3, r2
 8014 019a 7B62     		str	r3, [r7, #36]
 8015              	.LBB83:
1670:Lib/AI_Runtime/Npu/ll_aton/ll_aton_lib_sw_operators.c **** 
1671:Lib/AI_Runtime/Npu/ll_aton/ll_aton_lib_sw_operators.c ****       for (int i = 0; i < nr_loops; i++)
 8016              		.loc 1 1671 16
 8017 019c 0023     		movs	r3, #0
 8018 019e FB63     		str	r3, [r7, #60]
 8019              		.loc 1 1671 7
 8020 01a0 0CE0     		b	.L486
 8021              	.L487:
1672:Lib/AI_Runtime/Npu/ll_aton/ll_aton_lib_sw_operators.c ****       {
1673:Lib/AI_Runtime/Npu/ll_aton/ll_aton_lib_sw_operators.c **** #if defined(DUMP_DEBUG_SW_OPS)
1674:Lib/AI_Runtime/Npu/ll_aton/ll_aton_lib_sw_operators.c ****         LL_ATON_PRINTF("%s(%d): memcpy, curr_axis=%d, dst=%p, src=%p, bytes=%d, times=%d/%d\n", __f
1675:Lib/AI_Runtime/Npu/ll_aton/ll_aton_lib_sw_operators.c ****                        curr_axis, (int8_t *)dst_ptr, (int8_t *)src_ptr, padding_bytes, i + 1, nr_lo
1676:Lib/AI_Runtime/Npu/ll_aton/ll_aton_lib_sw_operators.c **** #endif
1677:Lib/AI_Runtime/Npu/ll_aton/ll_aton_lib_sw_operators.c ****         memcpy(dst_ptr, src_ptr, padding_bytes);
 8022              		.loc 1 1677 9
 8023 01a2 BB6A     		ldr	r3, [r7, #40]
 8024 01a4 1A46     		mov	r2, r3
 8025 01a6 796A     		ldr	r1, [r7, #36]
 8026 01a8 386C     		ldr	r0, [r7, #64]
 8027 01aa FFF7FEFF 		bl	memcpy
1678:Lib/AI_Runtime/Npu/ll_aton/ll_aton_lib_sw_operators.c ****         dst_ptr += padding_bytes;
 8028              		.loc 1 1678 17
 8029 01ae BB6A     		ldr	r3, [r7, #40]
 8030 01b0 3A6C     		ldr	r2, [r7, #64]
ARM GAS  /tmp/ccgnzMmM.s 			page 188


 8031 01b2 1344     		add	r3, r3, r2
 8032 01b4 3B64     		str	r3, [r7, #64]
1671:Lib/AI_Runtime/Npu/ll_aton/ll_aton_lib_sw_operators.c ****       {
 8033              		.loc 1 1671 38 discriminator 3
 8034 01b6 FB6B     		ldr	r3, [r7, #60]
 8035 01b8 0133     		adds	r3, r3, #1
 8036 01ba FB63     		str	r3, [r7, #60]
 8037              	.L486:
1671:Lib/AI_Runtime/Npu/ll_aton/ll_aton_lib_sw_operators.c ****       {
 8038              		.loc 1 1671 25 discriminator 1
 8039 01bc FA6B     		ldr	r2, [r7, #60]
 8040 01be FB6A     		ldr	r3, [r7, #44]
 8041 01c0 9A42     		cmp	r2, r3
 8042 01c2 EEDB     		blt	.L487
 8043              	.L483:
 8044              	.LBE83:
 8045              	.LBE82:
1679:Lib/AI_Runtime/Npu/ll_aton/ll_aton_lib_sw_operators.c ****       }
1680:Lib/AI_Runtime/Npu/ll_aton/ll_aton_lib_sw_operators.c ****     }
1681:Lib/AI_Runtime/Npu/ll_aton/ll_aton_lib_sw_operators.c ****   }
1682:Lib/AI_Runtime/Npu/ll_aton/ll_aton_lib_sw_operators.c **** 
1683:Lib/AI_Runtime/Npu/ll_aton/ll_aton_lib_sw_operators.c ****   if (common_params->pad_out_offsets_end[curr_axis] > 0)
 8046              		.loc 1 1683 20
 8047 01c4 BB68     		ldr	r3, [r7, #8]
 8048 01c6 9A6C     		ldr	r2, [r3, #72]
 8049              		.loc 1 1683 41
 8050 01c8 FB68     		ldr	r3, [r7, #12]
 8051 01ca 9B00     		lsls	r3, r3, #2
 8052 01cc 1344     		add	r3, r3, r2
 8053 01ce 1B68     		ldr	r3, [r3]
 8054              		.loc 1 1683 6
 8055 01d0 002B     		cmp	r3, #0
 8056 01d2 7ADD     		ble	.L488
1684:Lib/AI_Runtime/Npu/ll_aton/ll_aton_lib_sw_operators.c ****   {
1685:Lib/AI_Runtime/Npu/ll_aton/ll_aton_lib_sw_operators.c ****     if (curr_axis == (common_params->tensor_rank - 1))
 8057              		.loc 1 1685 36
 8058 01d4 BB68     		ldr	r3, [r7, #8]
 8059 01d6 5B6A     		ldr	r3, [r3, #36]
 8060              		.loc 1 1685 50
 8061 01d8 013B     		subs	r3, r3, #1
 8062              		.loc 1 1685 8
 8063 01da FA68     		ldr	r2, [r7, #12]
 8064 01dc 9A42     		cmp	r2, r3
 8065 01de 16D1     		bne	.L489
1686:Lib/AI_Runtime/Npu/ll_aton/ll_aton_lib_sw_operators.c ****     {
1687:Lib/AI_Runtime/Npu/ll_aton/ll_aton_lib_sw_operators.c ****       __ll_aton_lib_edge_framing_sw(curr_axis, common_params->nbytes, common_params->out_target,
 8066              		.loc 1 1687 7
 8067 01e0 BB68     		ldr	r3, [r7, #8]
 8068 01e2 197E     		ldrb	r1, [r3, #24]	@ zero_extendqisi2
 8069              		.loc 1 1687 84
 8070 01e4 BB68     		ldr	r3, [r7, #8]
 8071 01e6 5868     		ldr	r0, [r3, #4]
1688:Lib/AI_Runtime/Npu/ll_aton/ll_aton_lib_sw_operators.c ****                                     (common_params->out_target - common_params->nbytes),
 8072              		.loc 1 1688 51
 8073 01e8 BB68     		ldr	r3, [r7, #8]
 8074 01ea 5A68     		ldr	r2, [r3, #4]
 8075              		.loc 1 1688 79
ARM GAS  /tmp/ccgnzMmM.s 			page 189


 8076 01ec BB68     		ldr	r3, [r7, #8]
 8077 01ee 1B7E     		ldrb	r3, [r3, #24]	@ zero_extendqisi2
 8078              		.loc 1 1688 64
 8079 01f0 5B42     		rsbs	r3, r3, #0
 8080 01f2 D418     		adds	r4, r2, r3
1689:Lib/AI_Runtime/Npu/ll_aton/ll_aton_lib_sw_operators.c ****                                     common_params->pad_out_offsets_end[curr_axis]);
 8081              		.loc 1 1689 50
 8082 01f4 BB68     		ldr	r3, [r7, #8]
 8083 01f6 9A6C     		ldr	r2, [r3, #72]
 8084              		.loc 1 1689 71
 8085 01f8 FB68     		ldr	r3, [r7, #12]
 8086 01fa 9B00     		lsls	r3, r3, #2
 8087 01fc 1344     		add	r3, r3, r2
1687:Lib/AI_Runtime/Npu/ll_aton/ll_aton_lib_sw_operators.c ****                                     (common_params->out_target - common_params->nbytes),
 8088              		.loc 1 1687 7
 8089 01fe 1B68     		ldr	r3, [r3]
 8090 0200 0093     		str	r3, [sp]
 8091 0202 2346     		mov	r3, r4
 8092 0204 0246     		mov	r2, r0
 8093 0206 F868     		ldr	r0, [r7, #12]
 8094 0208 FFF7FEFF 		bl	__ll_aton_lib_edge_framing_sw
 8095 020c 45E0     		b	.L490
 8096              	.L489:
 8097              	.LBB84:
1690:Lib/AI_Runtime/Npu/ll_aton/ll_aton_lib_sw_operators.c ****     }
1691:Lib/AI_Runtime/Npu/ll_aton/ll_aton_lib_sw_operators.c ****     else
1692:Lib/AI_Runtime/Npu/ll_aton/ll_aton_lib_sw_operators.c ****     {
1693:Lib/AI_Runtime/Npu/ll_aton/ll_aton_lib_sw_operators.c ****       int32_t nr_loops = common_params->pad_out_offsets_end[curr_axis] /
 8098              		.loc 1 1693 39
 8099 020e BB68     		ldr	r3, [r7, #8]
 8100 0210 9A6C     		ldr	r2, [r3, #72]
 8101              		.loc 1 1693 60
 8102 0212 FB68     		ldr	r3, [r7, #12]
 8103 0214 9B00     		lsls	r3, r3, #2
 8104 0216 1344     		add	r3, r3, r2
 8105 0218 1A68     		ldr	r2, [r3]
1694:Lib/AI_Runtime/Npu/ll_aton/ll_aton_lib_sw_operators.c ****                          common_params->out_offsets[curr_axis]; // i.e. pads_end[curr_axis];
 8106              		.loc 1 1694 39
 8107 021a BB68     		ldr	r3, [r7, #8]
 8108 021c 196D     		ldr	r1, [r3, #80]
 8109              		.loc 1 1694 52
 8110 021e FB68     		ldr	r3, [r7, #12]
 8111 0220 9B00     		lsls	r3, r3, #2
 8112 0222 0B44     		add	r3, r3, r1
 8113 0224 1B68     		ldr	r3, [r3]
1693:Lib/AI_Runtime/Npu/ll_aton/ll_aton_lib_sw_operators.c ****                          common_params->out_offsets[curr_axis]; // i.e. pads_end[curr_axis];
 8114              		.loc 1 1693 15
 8115 0226 92FBF3F3 		sdiv	r3, r2, r3
 8116 022a FB61     		str	r3, [r7, #28]
1695:Lib/AI_Runtime/Npu/ll_aton/ll_aton_lib_sw_operators.c ****       int32_t padding_bytes = common_params->pad_out_offsets_end[curr_axis] / nr_loops;
 8117              		.loc 1 1695 44
 8118 022c BB68     		ldr	r3, [r7, #8]
 8119 022e 9A6C     		ldr	r2, [r3, #72]
 8120              		.loc 1 1695 65
 8121 0230 FB68     		ldr	r3, [r7, #12]
 8122 0232 9B00     		lsls	r3, r3, #2
 8123 0234 1344     		add	r3, r3, r2
ARM GAS  /tmp/ccgnzMmM.s 			page 190


 8124 0236 1A68     		ldr	r2, [r3]
 8125              		.loc 1 1695 15
 8126 0238 FB69     		ldr	r3, [r7, #28]
 8127 023a 92FBF3F3 		sdiv	r3, r2, r3
 8128 023e BB61     		str	r3, [r7, #24]
1696:Lib/AI_Runtime/Npu/ll_aton/ll_aton_lib_sw_operators.c **** 
1697:Lib/AI_Runtime/Npu/ll_aton/ll_aton_lib_sw_operators.c ****       int8_t *dst_ptr = common_params->out_target;
 8129              		.loc 1 1697 15
 8130 0240 BB68     		ldr	r3, [r7, #8]
 8131 0242 5B68     		ldr	r3, [r3, #4]
 8132 0244 BB63     		str	r3, [r7, #56]
1698:Lib/AI_Runtime/Npu/ll_aton/ll_aton_lib_sw_operators.c ****       int8_t *src_ptr = common_params->out_target - (common_params->pad_out_offsets_end[curr_axis] 
 8133              		.loc 1 1698 38
 8134 0246 BB68     		ldr	r3, [r7, #8]
 8135 0248 5A68     		ldr	r2, [r3, #4]
 8136              		.loc 1 1698 67
 8137 024a BB68     		ldr	r3, [r7, #8]
 8138 024c 996C     		ldr	r1, [r3, #72]
 8139              		.loc 1 1698 88
 8140 024e FB68     		ldr	r3, [r7, #12]
 8141 0250 9B00     		lsls	r3, r3, #2
 8142 0252 0B44     		add	r3, r3, r1
 8143 0254 1968     		ldr	r1, [r3]
 8144              		.loc 1 1698 100
 8145 0256 FB69     		ldr	r3, [r7, #28]
 8146 0258 91FBF3F3 		sdiv	r3, r1, r3
 8147              		.loc 1 1698 51
 8148 025c 5B42     		rsbs	r3, r3, #0
 8149              		.loc 1 1698 15
 8150 025e 1344     		add	r3, r3, r2
 8151 0260 7B61     		str	r3, [r7, #20]
 8152              	.LBB85:
1699:Lib/AI_Runtime/Npu/ll_aton/ll_aton_lib_sw_operators.c **** 
1700:Lib/AI_Runtime/Npu/ll_aton/ll_aton_lib_sw_operators.c ****       for (int i = 0; i < nr_loops; i++)
 8153              		.loc 1 1700 16
 8154 0262 0023     		movs	r3, #0
 8155 0264 7B63     		str	r3, [r7, #52]
 8156              		.loc 1 1700 7
 8157 0266 14E0     		b	.L491
 8158              	.L496:
 8159              		.align	2
 8160              	.L495:
 8161 0268 70050000 		.word	.LC42
 8162 026c 00000000 		.word	__func__.6
 8163 0270 24000000 		.word	.LC1
 8164 0274 34050000 		.word	.LC41
 8165              	.L492:
1701:Lib/AI_Runtime/Npu/ll_aton/ll_aton_lib_sw_operators.c ****       {
1702:Lib/AI_Runtime/Npu/ll_aton/ll_aton_lib_sw_operators.c **** #if defined(DUMP_DEBUG_SW_OPS)
1703:Lib/AI_Runtime/Npu/ll_aton/ll_aton_lib_sw_operators.c ****         LL_ATON_PRINTF("%s(%d): memcpy, curr_axis=%d, dst=%p, src=%p, bytes=%d, times=%d/%d\n", __f
1704:Lib/AI_Runtime/Npu/ll_aton/ll_aton_lib_sw_operators.c ****                        curr_axis, (int8_t *)dst_ptr, (int8_t *)src_ptr, padding_bytes, i + 1, nr_lo
1705:Lib/AI_Runtime/Npu/ll_aton/ll_aton_lib_sw_operators.c **** #endif
1706:Lib/AI_Runtime/Npu/ll_aton/ll_aton_lib_sw_operators.c ****         memcpy(dst_ptr, src_ptr, padding_bytes);
 8166              		.loc 1 1706 9
 8167 0278 BB69     		ldr	r3, [r7, #24]
 8168 027a 1A46     		mov	r2, r3
 8169 027c 7969     		ldr	r1, [r7, #20]
ARM GAS  /tmp/ccgnzMmM.s 			page 191


 8170 027e B86B     		ldr	r0, [r7, #56]
 8171 0280 FFF7FEFF 		bl	memcpy
1707:Lib/AI_Runtime/Npu/ll_aton/ll_aton_lib_sw_operators.c ****         dst_ptr += padding_bytes;
 8172              		.loc 1 1707 17
 8173 0284 BB69     		ldr	r3, [r7, #24]
 8174 0286 BA6B     		ldr	r2, [r7, #56]
 8175 0288 1344     		add	r3, r3, r2
 8176 028a BB63     		str	r3, [r7, #56]
1700:Lib/AI_Runtime/Npu/ll_aton/ll_aton_lib_sw_operators.c ****       {
 8177              		.loc 1 1700 38 discriminator 3
 8178 028c 7B6B     		ldr	r3, [r7, #52]
 8179 028e 0133     		adds	r3, r3, #1
 8180 0290 7B63     		str	r3, [r7, #52]
 8181              	.L491:
1700:Lib/AI_Runtime/Npu/ll_aton/ll_aton_lib_sw_operators.c ****       {
 8182              		.loc 1 1700 25 discriminator 1
 8183 0292 7A6B     		ldr	r2, [r7, #52]
 8184 0294 FB69     		ldr	r3, [r7, #28]
 8185 0296 9A42     		cmp	r2, r3
 8186 0298 EEDB     		blt	.L492
 8187              	.L490:
 8188              	.LBE85:
 8189              	.LBE84:
1708:Lib/AI_Runtime/Npu/ll_aton/ll_aton_lib_sw_operators.c ****       }
1709:Lib/AI_Runtime/Npu/ll_aton/ll_aton_lib_sw_operators.c ****     }
1710:Lib/AI_Runtime/Npu/ll_aton/ll_aton_lib_sw_operators.c **** 
1711:Lib/AI_Runtime/Npu/ll_aton/ll_aton_lib_sw_operators.c ****     common_params->out_target += common_params->pad_out_offsets_end[curr_axis];
 8190              		.loc 1 1711 18
 8191 029a BB68     		ldr	r3, [r7, #8]
 8192 029c 5B68     		ldr	r3, [r3, #4]
 8193              		.loc 1 1711 47
 8194 029e BA68     		ldr	r2, [r7, #8]
 8195 02a0 916C     		ldr	r1, [r2, #72]
 8196              		.loc 1 1711 68
 8197 02a2 FA68     		ldr	r2, [r7, #12]
 8198 02a4 9200     		lsls	r2, r2, #2
 8199 02a6 0A44     		add	r2, r2, r1
 8200 02a8 1268     		ldr	r2, [r2]
 8201              		.loc 1 1711 31
 8202 02aa 1A44     		add	r2, r2, r3
 8203 02ac BB68     		ldr	r3, [r7, #8]
 8204 02ae 5A60     		str	r2, [r3, #4]
1712:Lib/AI_Runtime/Npu/ll_aton/ll_aton_lib_sw_operators.c **** 
1713:Lib/AI_Runtime/Npu/ll_aton/ll_aton_lib_sw_operators.c **** #if defined(DUMP_DEBUG_SW_OPS)
1714:Lib/AI_Runtime/Npu/ll_aton/ll_aton_lib_sw_operators.c ****     LL_ATON_PRINTF("%s(%d): out=%p, end=%p\n", __func__, __LINE__, (int8_t *)common_params->out_tar
1715:Lib/AI_Runtime/Npu/ll_aton/ll_aton_lib_sw_operators.c ****                    (int8_t *)common_params->end_out_target);
1716:Lib/AI_Runtime/Npu/ll_aton/ll_aton_lib_sw_operators.c **** #if (ATON_PLAT_HAS_FFLUSH)
1717:Lib/AI_Runtime/Npu/ll_aton/ll_aton_lib_sw_operators.c ****     LL_ATON_FFLUSH(stdout);
1718:Lib/AI_Runtime/Npu/ll_aton/ll_aton_lib_sw_operators.c **** #endif
1719:Lib/AI_Runtime/Npu/ll_aton/ll_aton_lib_sw_operators.c **** #endif
1720:Lib/AI_Runtime/Npu/ll_aton/ll_aton_lib_sw_operators.c ****     LL_ATON_ASSERT(common_params->out_target <= common_params->end_out_target);
 8205              		.loc 1 1720 5
 8206 02b0 BB68     		ldr	r3, [r7, #8]
 8207 02b2 5A68     		ldr	r2, [r3, #4]
 8208 02b4 BB68     		ldr	r3, [r7, #8]
 8209 02b6 9B6A     		ldr	r3, [r3, #40]
 8210 02b8 9A42     		cmp	r2, r3
ARM GAS  /tmp/ccgnzMmM.s 			page 192


 8211 02ba 06D9     		bls	.L488
 8212              		.loc 1 1720 5 is_stmt 0 discriminator 1
 8213 02bc 0F4B     		ldr	r3, .L497
 8214 02be 104A     		ldr	r2, .L497+4
 8215 02c0 4FF4D761 		mov	r1, #1720
 8216 02c4 0F48     		ldr	r0, .L497+8
 8217 02c6 FFF7FEFF 		bl	__assert_func
 8218              	.L488:
1721:Lib/AI_Runtime/Npu/ll_aton/ll_aton_lib_sw_operators.c ****   }
1722:Lib/AI_Runtime/Npu/ll_aton/ll_aton_lib_sw_operators.c **** 
1723:Lib/AI_Runtime/Npu/ll_aton/ll_aton_lib_sw_operators.c ****   if (common_params->pad_in_offsets_end[curr_axis] < 0)
 8219              		.loc 1 1723 20 is_stmt 1
 8220 02ca BB68     		ldr	r3, [r7, #8]
 8221 02cc 1A6C     		ldr	r2, [r3, #64]
 8222              		.loc 1 1723 40
 8223 02ce FB68     		ldr	r3, [r7, #12]
 8224 02d0 9B00     		lsls	r3, r3, #2
 8225 02d2 1344     		add	r3, r3, r2
 8226 02d4 1B68     		ldr	r3, [r3]
 8227              		.loc 1 1723 6
 8228 02d6 002B     		cmp	r3, #0
 8229 02d8 0BDA     		bge	.L494
1724:Lib/AI_Runtime/Npu/ll_aton/ll_aton_lib_sw_operators.c ****   {
1725:Lib/AI_Runtime/Npu/ll_aton/ll_aton_lib_sw_operators.c ****     common_params->in_target -= common_params->pad_in_offsets_end[curr_axis];
 8230              		.loc 1 1725 18
 8231 02da BB68     		ldr	r3, [r7, #8]
 8232 02dc 1A68     		ldr	r2, [r3]
 8233              		.loc 1 1725 46
 8234 02de BB68     		ldr	r3, [r7, #8]
 8235 02e0 196C     		ldr	r1, [r3, #64]
 8236              		.loc 1 1725 66
 8237 02e2 FB68     		ldr	r3, [r7, #12]
 8238 02e4 9B00     		lsls	r3, r3, #2
 8239 02e6 0B44     		add	r3, r3, r1
 8240 02e8 1B68     		ldr	r3, [r3]
 8241              		.loc 1 1725 30
 8242 02ea 5B42     		rsbs	r3, r3, #0
 8243 02ec 1A44     		add	r2, r2, r3
 8244 02ee BB68     		ldr	r3, [r7, #8]
 8245 02f0 1A60     		str	r2, [r3]
 8246              	.L494:
1726:Lib/AI_Runtime/Npu/ll_aton/ll_aton_lib_sw_operators.c ****   }
1727:Lib/AI_Runtime/Npu/ll_aton/ll_aton_lib_sw_operators.c **** }
 8247              		.loc 1 1727 1
 8248 02f2 00BF     		nop
 8249 02f4 4C37     		adds	r7, r7, #76
 8250              		.cfi_def_cfa_offset 12
 8251 02f6 BD46     		mov	sp, r7
 8252              		.cfi_def_cfa_register 13
 8253              		@ sp needed
 8254 02f8 90BD     		pop	{r4, r7, pc}
 8255              	.L498:
 8256 02fa 00BF     		.align	2
 8257              	.L497:
 8258 02fc 34050000 		.word	.LC41
 8259 0300 00000000 		.word	__func__.6
 8260 0304 24000000 		.word	.LC1
ARM GAS  /tmp/ccgnzMmM.s 			page 193


 8261              		.cfi_endproc
 8262              	.LFE4887:
 8264              		.section	.rodata
 8265 0672 0000     		.align	2
 8266              	.LC48:
 8267 0674 5F5F6C6C 		.ascii	"__ll_current_aton_ip_owner != ((void *)0)\000"
 8267      5F637572 
 8267      72656E74 
 8267      5F61746F 
 8267      6E5F6970 
 8268              		.section	.text.__ll_aton_lib_pad_filling,"ax",%progbits
 8269              		.align	1
 8270              		.syntax unified
 8271              		.thumb
 8272              		.thumb_func
 8274              	__ll_aton_lib_pad_filling:
 8275              	.LFB4888:
1728:Lib/AI_Runtime/Npu/ll_aton/ll_aton_lib_sw_operators.c **** 
1729:Lib/AI_Runtime/Npu/ll_aton/ll_aton_lib_sw_operators.c **** static int __ll_aton_lib_pad_filling(__ll_pad_sw_params_t *common_params)
1730:Lib/AI_Runtime/Npu/ll_aton/ll_aton_lib_sw_operators.c **** {
 8276              		.loc 1 1730 1
 8277              		.cfi_startproc
 8278              		@ args = 0, pretend = 0, frame = 16
 8279              		@ frame_needed = 1, uses_anonymous_args = 0
 8280 0000 80B5     		push	{r7, lr}
 8281              		.cfi_def_cfa_offset 8
 8282              		.cfi_offset 7, -8
 8283              		.cfi_offset 14, -4
 8284 0002 84B0     		sub	sp, sp, #16
 8285              		.cfi_def_cfa_offset 24
 8286 0004 00AF     		add	r7, sp, #0
 8287              		.cfi_def_cfa_register 7
 8288 0006 7860     		str	r0, [r7, #4]
1731:Lib/AI_Runtime/Npu/ll_aton/ll_aton_lib_sw_operators.c **** #ifndef NDEBUG
1732:Lib/AI_Runtime/Npu/ll_aton/ll_aton_lib_sw_operators.c ****   extern NN_Instance_TypeDef *volatile __ll_current_aton_ip_owner;
1733:Lib/AI_Runtime/Npu/ll_aton/ll_aton_lib_sw_operators.c ****   LL_ATON_ASSERT(__ll_current_aton_ip_owner != NULL);
 8289              		.loc 1 1733 3
 8290 0008 304B     		ldr	r3, .L510
 8291 000a 1B68     		ldr	r3, [r3]
 8292 000c 002B     		cmp	r3, #0
 8293 000e 06D1     		bne	.L500
 8294              		.loc 1 1733 3 is_stmt 0 discriminator 1
 8295 0010 2F4B     		ldr	r3, .L510+4
 8296 0012 304A     		ldr	r2, .L510+8
 8297 0014 40F2C561 		movw	r1, #1733
 8298 0018 2F48     		ldr	r0, .L510+12
 8299 001a FFF7FEFF 		bl	__assert_func
 8300              	.L500:
1734:Lib/AI_Runtime/Npu/ll_aton/ll_aton_lib_sw_operators.c **** #endif // NDEBUG
1735:Lib/AI_Runtime/Npu/ll_aton/ll_aton_lib_sw_operators.c **** 
1736:Lib/AI_Runtime/Npu/ll_aton/ll_aton_lib_sw_operators.c **** #if defined(DUMP_RESULTS_PAD_OP)
1737:Lib/AI_Runtime/Npu/ll_aton/ll_aton_lib_sw_operators.c ****   int8_t *out_target = common_params->out_target;
1738:Lib/AI_Runtime/Npu/ll_aton/ll_aton_lib_sw_operators.c **** #endif // DUMP_RESULTS_PAD_OP
1739:Lib/AI_Runtime/Npu/ll_aton/ll_aton_lib_sw_operators.c **** 
1740:Lib/AI_Runtime/Npu/ll_aton/ll_aton_lib_sw_operators.c ****   /* check if there is something to do */
1741:Lib/AI_Runtime/Npu/ll_aton/ll_aton_lib_sw_operators.c ****   if (common_params->consecutive_bytes == 0)
 8301              		.loc 1 1741 20 is_stmt 1
ARM GAS  /tmp/ccgnzMmM.s 			page 194


 8302 001e 7B68     		ldr	r3, [r7, #4]
 8303 0020 5B69     		ldr	r3, [r3, #20]
 8304              		.loc 1 1741 6
 8305 0022 002B     		cmp	r3, #0
 8306 0024 25D0     		beq	.L508
1742:Lib/AI_Runtime/Npu/ll_aton/ll_aton_lib_sw_operators.c ****   {
1743:Lib/AI_Runtime/Npu/ll_aton/ll_aton_lib_sw_operators.c ****     goto dump_results; // nothing needs to be copied/filled in (just `memset`), so we are done!
1744:Lib/AI_Runtime/Npu/ll_aton/ll_aton_lib_sw_operators.c ****   }
1745:Lib/AI_Runtime/Npu/ll_aton/ll_aton_lib_sw_operators.c **** 
1746:Lib/AI_Runtime/Npu/ll_aton/ll_aton_lib_sw_operators.c ****   /* fill with content */
1747:Lib/AI_Runtime/Npu/ll_aton/ll_aton_lib_sw_operators.c ****   if ((common_params->consecutive_bytes < __LL_PAD_FILLING_DMA_MIN_BUFF_LEN) ||
 8307              		.loc 1 1747 21
 8308 0026 7B68     		ldr	r3, [r7, #4]
 8309 0028 5B69     		ldr	r3, [r3, #20]
 8310              		.loc 1 1747 6
 8311 002a B3F5966F 		cmp	r3, #1200
 8312 002e 03D3     		bcc	.L503
1748:Lib/AI_Runtime/Npu/ll_aton/ll_aton_lib_sw_operators.c ****       (common_params->tensor_rank > __LL_DMA_PAD_MAX_DIMS))
 8313              		.loc 1 1748 21
 8314 0030 7B68     		ldr	r3, [r7, #4]
 8315 0032 5B6A     		ldr	r3, [r3, #36]
1747:Lib/AI_Runtime/Npu/ll_aton/ll_aton_lib_sw_operators.c ****       (common_params->tensor_rank > __LL_DMA_PAD_MAX_DIMS))
 8316              		.loc 1 1747 78 discriminator 1
 8317 0034 2A2B     		cmp	r3, #42
 8318 0036 21D9     		bls	.L504
 8319              	.L503:
1749:Lib/AI_Runtime/Npu/ll_aton/ll_aton_lib_sw_operators.c ****   { // do it without HW support
1750:Lib/AI_Runtime/Npu/ll_aton/ll_aton_lib_sw_operators.c ****     __ll_aton_lib_pad_filling_sw(0, common_params);
 8320              		.loc 1 1750 5
 8321 0038 7968     		ldr	r1, [r7, #4]
 8322 003a 0020     		movs	r0, #0
 8323 003c FFF7FEFF 		bl	__ll_aton_lib_pad_filling_sw
1751:Lib/AI_Runtime/Npu/ll_aton/ll_aton_lib_sw_operators.c **** 
1752:Lib/AI_Runtime/Npu/ll_aton/ll_aton_lib_sw_operators.c ****     if (common_params->callback_function != NULL) /* take this as indication for "called as callbac
 8324              		.loc 1 1752 22
 8325 0040 7B68     		ldr	r3, [r7, #4]
 8326 0042 DB6A     		ldr	r3, [r3, #44]
 8327              		.loc 1 1752 8
 8328 0044 002B     		cmp	r3, #0
 8329 0046 16D0     		beq	.L509
1753:Lib/AI_Runtime/Npu/ll_aton/ll_aton_lib_sw_operators.c ****     {
1754:Lib/AI_Runtime/Npu/ll_aton/ll_aton_lib_sw_operators.c ****       if ((common_params->end_out_target - common_params->saved_out_target) > 0)
 8330              		.loc 1 1754 25
 8331 0048 7B68     		ldr	r3, [r7, #4]
 8332 004a 9A6A     		ldr	r2, [r3, #40]
 8333              		.loc 1 1754 57
 8334 004c 7B68     		ldr	r3, [r7, #4]
 8335 004e 1B6A     		ldr	r3, [r3, #32]
 8336              		.loc 1 1754 42
 8337 0050 D31A     		subs	r3, r2, r3
 8338              		.loc 1 1754 10
 8339 0052 002B     		cmp	r3, #0
 8340 0054 0FDD     		ble	.L509
 8341              	.LBB86:
1755:Lib/AI_Runtime/Npu/ll_aton/ll_aton_lib_sw_operators.c ****       {
1756:Lib/AI_Runtime/Npu/ll_aton/ll_aton_lib_sw_operators.c ****         /* *** MCU cache clean operation (SW) *** */
1757:Lib/AI_Runtime/Npu/ll_aton/ll_aton_lib_sw_operators.c ****         uint32_t size = (uintptr_t)(common_params->end_out_target) - (uintptr_t)(common_params->sav
ARM GAS  /tmp/ccgnzMmM.s 			page 195


 8342              		.loc 1 1757 50
 8343 0056 7B68     		ldr	r3, [r7, #4]
 8344 0058 9B6A     		ldr	r3, [r3, #40]
 8345              		.loc 1 1757 25
 8346 005a 1A46     		mov	r2, r3
 8347              		.loc 1 1757 95
 8348 005c 7B68     		ldr	r3, [r7, #4]
 8349 005e 1B6A     		ldr	r3, [r3, #32]
 8350              		.loc 1 1757 18
 8351 0060 D31A     		subs	r3, r2, r3
 8352 0062 BB60     		str	r3, [r7, #8]
1758:Lib/AI_Runtime/Npu/ll_aton/ll_aton_lib_sw_operators.c ****         LL_ATON_Cache_MCU_Clean_Range(ATON_LIB_PHYSICAL_TO_VIRTUAL_ADDR((uintptr_t)common_params->s
 8353              		.loc 1 1758 39
 8354 0064 7B68     		ldr	r3, [r7, #4]
 8355 0066 1B6A     		ldr	r3, [r3, #32]
 8356              		.loc 1 1758 9
 8357 0068 B968     		ldr	r1, [r7, #8]
 8358 006a 1846     		mov	r0, r3
 8359 006c FFF7FEFF 		bl	LL_ATON_Cache_MCU_Clean_Range
 8360 0070 02E0     		b	.L502
 8361              	.L508:
 8362              	.LBE86:
1743:Lib/AI_Runtime/Npu/ll_aton/ll_aton_lib_sw_operators.c ****   }
 8363              		.loc 1 1743 5
 8364 0072 00BF     		nop
 8365 0074 00E0     		b	.L502
 8366              	.L509:
1759:Lib/AI_Runtime/Npu/ll_aton/ll_aton_lib_sw_operators.c ****                                       size);
1760:Lib/AI_Runtime/Npu/ll_aton/ll_aton_lib_sw_operators.c ****       }
1761:Lib/AI_Runtime/Npu/ll_aton/ll_aton_lib_sw_operators.c ****     }
1762:Lib/AI_Runtime/Npu/ll_aton/ll_aton_lib_sw_operators.c **** 
1763:Lib/AI_Runtime/Npu/ll_aton/ll_aton_lib_sw_operators.c ****   dump_results:
 8367              		.loc 1 1763 3
 8368 0076 00BF     		nop
 8369              	.L502:
1764:Lib/AI_Runtime/Npu/ll_aton/ll_aton_lib_sw_operators.c **** #if defined(DUMP_RESULTS_PAD_OP)
1765:Lib/AI_Runtime/Npu/ll_aton/ll_aton_lib_sw_operators.c ****     /* debug output print */
1766:Lib/AI_Runtime/Npu/ll_aton/ll_aton_lib_sw_operators.c ****     switch (common_params->nbytes)
1767:Lib/AI_Runtime/Npu/ll_aton/ll_aton_lib_sw_operators.c ****     {
1768:Lib/AI_Runtime/Npu/ll_aton/ll_aton_lib_sw_operators.c ****     case 1:
1769:Lib/AI_Runtime/Npu/ll_aton/ll_aton_lib_sw_operators.c ****     {
1770:Lib/AI_Runtime/Npu/ll_aton/ll_aton_lib_sw_operators.c ****       int8_t *ptr = (int8_t *)out_target;
1771:Lib/AI_Runtime/Npu/ll_aton/ll_aton_lib_sw_operators.c ****       for (uint32_t i = 0; i < common_params->out_size; i++)
1772:Lib/AI_Runtime/Npu/ll_aton/ll_aton_lib_sw_operators.c ****       {
1773:Lib/AI_Runtime/Npu/ll_aton/ll_aton_lib_sw_operators.c ****         LL_ATON_PRINTF("%d\n", ptr[i]);
1774:Lib/AI_Runtime/Npu/ll_aton/ll_aton_lib_sw_operators.c ****       }
1775:Lib/AI_Runtime/Npu/ll_aton/ll_aton_lib_sw_operators.c ****     }
1776:Lib/AI_Runtime/Npu/ll_aton/ll_aton_lib_sw_operators.c ****     break;
1777:Lib/AI_Runtime/Npu/ll_aton/ll_aton_lib_sw_operators.c ****     case 2:
1778:Lib/AI_Runtime/Npu/ll_aton/ll_aton_lib_sw_operators.c ****     {
1779:Lib/AI_Runtime/Npu/ll_aton/ll_aton_lib_sw_operators.c ****       int16_t *ptr = (int16_t *)(int8_t *)out_target;
1780:Lib/AI_Runtime/Npu/ll_aton/ll_aton_lib_sw_operators.c ****       for (uint32_t i = 0; i < common_params->out_size / 2; i++)
1781:Lib/AI_Runtime/Npu/ll_aton/ll_aton_lib_sw_operators.c ****       {
1782:Lib/AI_Runtime/Npu/ll_aton/ll_aton_lib_sw_operators.c ****         LL_ATON_PRINTF("%d\n", ptr[i]);
1783:Lib/AI_Runtime/Npu/ll_aton/ll_aton_lib_sw_operators.c ****       }
1784:Lib/AI_Runtime/Npu/ll_aton/ll_aton_lib_sw_operators.c ****     }
1785:Lib/AI_Runtime/Npu/ll_aton/ll_aton_lib_sw_operators.c ****     break;
ARM GAS  /tmp/ccgnzMmM.s 			page 196


1786:Lib/AI_Runtime/Npu/ll_aton/ll_aton_lib_sw_operators.c ****     case 3: // NOTE: assuming no alignment
1787:Lib/AI_Runtime/Npu/ll_aton/ll_aton_lib_sw_operators.c ****     {
1788:Lib/AI_Runtime/Npu/ll_aton/ll_aton_lib_sw_operators.c ****       /* check endianess */
1789:Lib/AI_Runtime/Npu/ll_aton/ll_aton_lib_sw_operators.c ****       const int32_t _const_val = 0x01020304;
1790:Lib/AI_Runtime/Npu/ll_aton/ll_aton_lib_sw_operators.c ****       const int8_t *_const_val_ptr = (int8_t *)&_const_val;
1791:Lib/AI_Runtime/Npu/ll_aton/ll_aton_lib_sw_operators.c ****       bool is_little_endian = (_const_val_ptr[0] == 0x04);
1792:Lib/AI_Runtime/Npu/ll_aton/ll_aton_lib_sw_operators.c **** 
1793:Lib/AI_Runtime/Npu/ll_aton/ll_aton_lib_sw_operators.c ****       int8_t *ptr = (int8_t *)out_target;
1794:Lib/AI_Runtime/Npu/ll_aton/ll_aton_lib_sw_operators.c ****       if (is_little_endian)
1795:Lib/AI_Runtime/Npu/ll_aton/ll_aton_lib_sw_operators.c ****       {
1796:Lib/AI_Runtime/Npu/ll_aton/ll_aton_lib_sw_operators.c ****         for (uint32_t i = 0; i < common_params->out_size / 3; i += 3)
1797:Lib/AI_Runtime/Npu/ll_aton/ll_aton_lib_sw_operators.c ****         {
1798:Lib/AI_Runtime/Npu/ll_aton/ll_aton_lib_sw_operators.c ****           int32_t value = 0;
1799:Lib/AI_Runtime/Npu/ll_aton/ll_aton_lib_sw_operators.c **** 
1800:Lib/AI_Runtime/Npu/ll_aton/ll_aton_lib_sw_operators.c ****           value |= ptr[i];
1801:Lib/AI_Runtime/Npu/ll_aton/ll_aton_lib_sw_operators.c ****           value |= ptr[i + 1] << 8;
1802:Lib/AI_Runtime/Npu/ll_aton/ll_aton_lib_sw_operators.c ****           value |= ptr[i + 2] << 16;
1803:Lib/AI_Runtime/Npu/ll_aton/ll_aton_lib_sw_operators.c **** 
1804:Lib/AI_Runtime/Npu/ll_aton/ll_aton_lib_sw_operators.c ****           LL_ATON_PRINTF("%d\n", value);
1805:Lib/AI_Runtime/Npu/ll_aton/ll_aton_lib_sw_operators.c ****         }
1806:Lib/AI_Runtime/Npu/ll_aton/ll_aton_lib_sw_operators.c ****       }
1807:Lib/AI_Runtime/Npu/ll_aton/ll_aton_lib_sw_operators.c ****       else
1808:Lib/AI_Runtime/Npu/ll_aton/ll_aton_lib_sw_operators.c ****       {
1809:Lib/AI_Runtime/Npu/ll_aton/ll_aton_lib_sw_operators.c ****         for (uint32_t i = 0; i < common_params->out_size / 3; i += 3)
1810:Lib/AI_Runtime/Npu/ll_aton/ll_aton_lib_sw_operators.c ****         {
1811:Lib/AI_Runtime/Npu/ll_aton/ll_aton_lib_sw_operators.c ****           int32_t value = 0;
1812:Lib/AI_Runtime/Npu/ll_aton/ll_aton_lib_sw_operators.c **** 
1813:Lib/AI_Runtime/Npu/ll_aton/ll_aton_lib_sw_operators.c ****           value |= ptr[i] << 16;
1814:Lib/AI_Runtime/Npu/ll_aton/ll_aton_lib_sw_operators.c ****           value |= ptr[i + 1] << 8;
1815:Lib/AI_Runtime/Npu/ll_aton/ll_aton_lib_sw_operators.c ****           value |= ptr[i + 2];
1816:Lib/AI_Runtime/Npu/ll_aton/ll_aton_lib_sw_operators.c **** 
1817:Lib/AI_Runtime/Npu/ll_aton/ll_aton_lib_sw_operators.c ****           LL_ATON_PRINTF("%d\n", value);
1818:Lib/AI_Runtime/Npu/ll_aton/ll_aton_lib_sw_operators.c ****         }
1819:Lib/AI_Runtime/Npu/ll_aton/ll_aton_lib_sw_operators.c ****       }
1820:Lib/AI_Runtime/Npu/ll_aton/ll_aton_lib_sw_operators.c ****     }
1821:Lib/AI_Runtime/Npu/ll_aton/ll_aton_lib_sw_operators.c ****     break;
1822:Lib/AI_Runtime/Npu/ll_aton/ll_aton_lib_sw_operators.c ****     case 4:
1823:Lib/AI_Runtime/Npu/ll_aton/ll_aton_lib_sw_operators.c ****     {
1824:Lib/AI_Runtime/Npu/ll_aton/ll_aton_lib_sw_operators.c ****       int32_t *ptr = (int32_t *)(int8_t *)out_target;
1825:Lib/AI_Runtime/Npu/ll_aton/ll_aton_lib_sw_operators.c ****       for (uint32_t i = 0; i < common_params->out_size / 4; i++)
1826:Lib/AI_Runtime/Npu/ll_aton/ll_aton_lib_sw_operators.c ****       {
1827:Lib/AI_Runtime/Npu/ll_aton/ll_aton_lib_sw_operators.c ****         LL_ATON_PRINTF("%d\n", ptr[i]);
1828:Lib/AI_Runtime/Npu/ll_aton/ll_aton_lib_sw_operators.c ****       }
1829:Lib/AI_Runtime/Npu/ll_aton/ll_aton_lib_sw_operators.c ****     }
1830:Lib/AI_Runtime/Npu/ll_aton/ll_aton_lib_sw_operators.c ****     break;
1831:Lib/AI_Runtime/Npu/ll_aton/ll_aton_lib_sw_operators.c ****     default:
1832:Lib/AI_Runtime/Npu/ll_aton/ll_aton_lib_sw_operators.c ****       LL_ATON_ASSERT(false);
1833:Lib/AI_Runtime/Npu/ll_aton/ll_aton_lib_sw_operators.c ****       break;
1834:Lib/AI_Runtime/Npu/ll_aton/ll_aton_lib_sw_operators.c ****     }
1835:Lib/AI_Runtime/Npu/ll_aton/ll_aton_lib_sw_operators.c **** #endif // DUMP_RESULTS_PAD_OP
1836:Lib/AI_Runtime/Npu/ll_aton/ll_aton_lib_sw_operators.c **** 
1837:Lib/AI_Runtime/Npu/ll_aton/ll_aton_lib_sw_operators.c ****     return LL_ATON_OK;
 8370              		.loc 1 1837 12
 8371 0078 0023     		movs	r3, #0
 8372 007a 23E0     		b	.L505
 8373              	.L504:
1838:Lib/AI_Runtime/Npu/ll_aton/ll_aton_lib_sw_operators.c ****   }
ARM GAS  /tmp/ccgnzMmM.s 			page 197


1839:Lib/AI_Runtime/Npu/ll_aton/ll_aton_lib_sw_operators.c ****   else
1840:Lib/AI_Runtime/Npu/ll_aton/ll_aton_lib_sw_operators.c ****   {                                               // perform second phase in HW
1841:Lib/AI_Runtime/Npu/ll_aton/ll_aton_lib_sw_operators.c ****     if (common_params->callback_function != NULL) /* take this as indication for "called as callbac
 8374              		.loc 1 1841 22
 8375 007c 7B68     		ldr	r3, [r7, #4]
 8376 007e DB6A     		ldr	r3, [r3, #44]
 8377              		.loc 1 1841 8
 8378 0080 002B     		cmp	r3, #0
 8379 0082 07D0     		beq	.L506
1842:Lib/AI_Runtime/Npu/ll_aton/ll_aton_lib_sw_operators.c ****     {
1843:Lib/AI_Runtime/Npu/ll_aton/ll_aton_lib_sw_operators.c ****       common_params->callback_function = NULL;
 8380              		.loc 1 1843 40
 8381 0084 7B68     		ldr	r3, [r7, #4]
 8382 0086 0022     		movs	r2, #0
 8383 0088 DA62     		str	r2, [r3, #44]
1844:Lib/AI_Runtime/Npu/ll_aton/ll_aton_lib_sw_operators.c ****       return LL_ATON_LIB_DMA_Pad_Filling(NULL);
 8384              		.loc 1 1844 14
 8385 008a 0020     		movs	r0, #0
 8386 008c FFF7FEFF 		bl	LL_ATON_LIB_DMA_Pad_Filling
 8387 0090 0346     		mov	r3, r0
 8388 0092 17E0     		b	.L505
 8389              	.L506:
1845:Lib/AI_Runtime/Npu/ll_aton/ll_aton_lib_sw_operators.c ****     }
1846:Lib/AI_Runtime/Npu/ll_aton/ll_aton_lib_sw_operators.c ****     else
1847:Lib/AI_Runtime/Npu/ll_aton/ll_aton_lib_sw_operators.c ****     { // not a callback => `memset` (i.e. `framing`) has been executed in SW
1848:Lib/AI_Runtime/Npu/ll_aton/ll_aton_lib_sw_operators.c ****       if ((common_params->end_out_target - common_params->saved_out_target) > 0)
 8390              		.loc 1 1848 25
 8391 0094 7B68     		ldr	r3, [r7, #4]
 8392 0096 9A6A     		ldr	r2, [r3, #40]
 8393              		.loc 1 1848 57
 8394 0098 7B68     		ldr	r3, [r7, #4]
 8395 009a 1B6A     		ldr	r3, [r3, #32]
 8396              		.loc 1 1848 42
 8397 009c D31A     		subs	r3, r2, r3
 8398              		.loc 1 1848 10
 8399 009e 002B     		cmp	r3, #0
 8400 00a0 0CDD     		ble	.L507
 8401              	.LBB87:
1849:Lib/AI_Runtime/Npu/ll_aton/ll_aton_lib_sw_operators.c ****       {
1850:Lib/AI_Runtime/Npu/ll_aton/ll_aton_lib_sw_operators.c ****         /* *** MCU cache clean & invalidate operation (SW) *** */
1851:Lib/AI_Runtime/Npu/ll_aton/ll_aton_lib_sw_operators.c ****         uint32_t size = (uintptr_t)(common_params->end_out_target) - (uintptr_t)(common_params->sav
 8402              		.loc 1 1851 50
 8403 00a2 7B68     		ldr	r3, [r7, #4]
 8404 00a4 9B6A     		ldr	r3, [r3, #40]
 8405              		.loc 1 1851 25
 8406 00a6 1A46     		mov	r2, r3
 8407              		.loc 1 1851 95
 8408 00a8 7B68     		ldr	r3, [r7, #4]
 8409 00aa 1B6A     		ldr	r3, [r3, #32]
 8410              		.loc 1 1851 18
 8411 00ac D31A     		subs	r3, r2, r3
 8412 00ae FB60     		str	r3, [r7, #12]
1852:Lib/AI_Runtime/Npu/ll_aton/ll_aton_lib_sw_operators.c ****         LL_ATON_Cache_MCU_Clean_Invalidate_Range(
1853:Lib/AI_Runtime/Npu/ll_aton/ll_aton_lib_sw_operators.c ****             ATON_LIB_PHYSICAL_TO_VIRTUAL_ADDR((uintptr_t)common_params->saved_out_target), size);
 8413              		.loc 1 1853 13
 8414 00b0 7B68     		ldr	r3, [r7, #4]
 8415 00b2 1B6A     		ldr	r3, [r3, #32]
ARM GAS  /tmp/ccgnzMmM.s 			page 198


1852:Lib/AI_Runtime/Npu/ll_aton/ll_aton_lib_sw_operators.c ****         LL_ATON_Cache_MCU_Clean_Invalidate_Range(
 8416              		.loc 1 1852 9
 8417 00b4 F968     		ldr	r1, [r7, #12]
 8418 00b6 1846     		mov	r0, r3
 8419 00b8 FFF7FEFF 		bl	LL_ATON_Cache_MCU_Clean_Invalidate_Range
 8420              	.L507:
 8421              	.LBE87:
1854:Lib/AI_Runtime/Npu/ll_aton/ll_aton_lib_sw_operators.c ****       }
1855:Lib/AI_Runtime/Npu/ll_aton/ll_aton_lib_sw_operators.c **** 
1856:Lib/AI_Runtime/Npu/ll_aton/ll_aton_lib_sw_operators.c ****       return LL_ATON_LIB_DMA_Pad_Filling(common_params);
 8422              		.loc 1 1856 14
 8423 00bc 7868     		ldr	r0, [r7, #4]
 8424 00be FFF7FEFF 		bl	LL_ATON_LIB_DMA_Pad_Filling
 8425 00c2 0346     		mov	r3, r0
 8426              	.L505:
1857:Lib/AI_Runtime/Npu/ll_aton/ll_aton_lib_sw_operators.c ****     }
1858:Lib/AI_Runtime/Npu/ll_aton/ll_aton_lib_sw_operators.c ****   }
1859:Lib/AI_Runtime/Npu/ll_aton/ll_aton_lib_sw_operators.c **** }
 8427              		.loc 1 1859 1
 8428 00c4 1846     		mov	r0, r3
 8429 00c6 1037     		adds	r7, r7, #16
 8430              		.cfi_def_cfa_offset 8
 8431 00c8 BD46     		mov	sp, r7
 8432              		.cfi_def_cfa_register 13
 8433              		@ sp needed
 8434 00ca 80BD     		pop	{r7, pc}
 8435              	.L511:
 8436              		.align	2
 8437              	.L510:
 8438 00cc 00000000 		.word	__ll_current_aton_ip_owner
 8439 00d0 74060000 		.word	.LC48
 8440 00d4 00000000 		.word	__func__.4
 8441 00d8 24000000 		.word	.LC1
 8442              		.cfi_endproc
 8443              	.LFE4888:
 8445              		.section	.rodata
 8446 069e 0000     		.align	2
 8447              	.LC49:
 8448 06a0 636F6D6D 		.ascii	"common_params->callback_function != ((void *)0)\000"
 8448      6F6E5F70 
 8448      6172616D 
 8448      732D3E63 
 8448      616C6C62 
 8449              		.section	.text.__ll_aton_lib_pad_framing_sw,"ax",%progbits
 8450              		.align	1
 8451              		.syntax unified
 8452              		.thumb
 8453              		.thumb_func
 8455              	__ll_aton_lib_pad_framing_sw:
 8456              	.LFB4889:
1860:Lib/AI_Runtime/Npu/ll_aton/ll_aton_lib_sw_operators.c **** 
1861:Lib/AI_Runtime/Npu/ll_aton/ll_aton_lib_sw_operators.c **** static int __ll_aton_lib_pad_framing_sw(__ll_pad_sw_params_t *common_params)
1862:Lib/AI_Runtime/Npu/ll_aton/ll_aton_lib_sw_operators.c **** {
 8457              		.loc 1 1862 1
 8458              		.cfi_startproc
 8459              		@ args = 0, pretend = 0, frame = 16
 8460              		@ frame_needed = 1, uses_anonymous_args = 0
ARM GAS  /tmp/ccgnzMmM.s 			page 199


 8461 0000 80B5     		push	{r7, lr}
 8462              		.cfi_def_cfa_offset 8
 8463              		.cfi_offset 7, -8
 8464              		.cfi_offset 14, -4
 8465 0002 84B0     		sub	sp, sp, #16
 8466              		.cfi_def_cfa_offset 24
 8467 0004 00AF     		add	r7, sp, #0
 8468              		.cfi_def_cfa_register 7
 8469 0006 7860     		str	r0, [r7, #4]
1863:Lib/AI_Runtime/Npu/ll_aton/ll_aton_lib_sw_operators.c **** #ifndef NDEBUG
1864:Lib/AI_Runtime/Npu/ll_aton/ll_aton_lib_sw_operators.c ****   extern NN_Instance_TypeDef *volatile __ll_current_aton_ip_owner;
1865:Lib/AI_Runtime/Npu/ll_aton/ll_aton_lib_sw_operators.c ****   LL_ATON_ASSERT(__ll_current_aton_ip_owner != NULL);
 8470              		.loc 1 1865 3
 8471 0008 294B     		ldr	r3, .L522
 8472 000a 1B68     		ldr	r3, [r3]
 8473 000c 002B     		cmp	r3, #0
 8474 000e 06D1     		bne	.L513
 8475              		.loc 1 1865 3 is_stmt 0 discriminator 1
 8476 0010 284B     		ldr	r3, .L522+4
 8477 0012 294A     		ldr	r2, .L522+8
 8478 0014 40F24971 		movw	r1, #1865
 8479 0018 2848     		ldr	r0, .L522+12
 8480 001a FFF7FEFF 		bl	__assert_func
 8481              	.L513:
1866:Lib/AI_Runtime/Npu/ll_aton/ll_aton_lib_sw_operators.c **** #endif // NDEBUG
1867:Lib/AI_Runtime/Npu/ll_aton/ll_aton_lib_sw_operators.c **** 
1868:Lib/AI_Runtime/Npu/ll_aton/ll_aton_lib_sw_operators.c ****   /* reset input/output target pointers */
1869:Lib/AI_Runtime/Npu/ll_aton/ll_aton_lib_sw_operators.c ****   common_params->in_target = common_params->saved_in_target;
 8482              		.loc 1 1869 43 is_stmt 1
 8483 001e 7B68     		ldr	r3, [r7, #4]
 8484 0020 DA69     		ldr	r2, [r3, #28]
 8485              		.loc 1 1869 28
 8486 0022 7B68     		ldr	r3, [r7, #4]
 8487 0024 1A60     		str	r2, [r3]
1870:Lib/AI_Runtime/Npu/ll_aton/ll_aton_lib_sw_operators.c ****   common_params->out_target = common_params->saved_out_target;
 8488              		.loc 1 1870 44
 8489 0026 7B68     		ldr	r3, [r7, #4]
 8490 0028 1A6A     		ldr	r2, [r3, #32]
 8491              		.loc 1 1870 29
 8492 002a 7B68     		ldr	r3, [r7, #4]
 8493 002c 5A60     		str	r2, [r3, #4]
1871:Lib/AI_Runtime/Npu/ll_aton/ll_aton_lib_sw_operators.c **** 
1872:Lib/AI_Runtime/Npu/ll_aton/ll_aton_lib_sw_operators.c **** #if defined(DUMP_RESULTS_PAD_OP)
1873:Lib/AI_Runtime/Npu/ll_aton/ll_aton_lib_sw_operators.c ****   int8_t *out_target = common_params->out_target;
1874:Lib/AI_Runtime/Npu/ll_aton/ll_aton_lib_sw_operators.c **** #endif // DUMP_RESULTS_PAD_OP
1875:Lib/AI_Runtime/Npu/ll_aton/ll_aton_lib_sw_operators.c **** 
1876:Lib/AI_Runtime/Npu/ll_aton/ll_aton_lib_sw_operators.c ****   switch (common_params->mode)
 8494              		.loc 1 1876 24
 8495 002e 7B68     		ldr	r3, [r7, #4]
 8496 0030 5B7E     		ldrb	r3, [r3, #25]	@ zero_extendqisi2
 8497              		.loc 1 1876 3
 8498 0032 012B     		cmp	r3, #1
 8499 0034 02D0     		beq	.L514
 8500 0036 022B     		cmp	r3, #2
 8501 0038 06D0     		beq	.L515
 8502 003a 0BE0     		b	.L521
 8503              	.L514:
ARM GAS  /tmp/ccgnzMmM.s 			page 200


1877:Lib/AI_Runtime/Npu/ll_aton/ll_aton_lib_sw_operators.c ****   {
1878:Lib/AI_Runtime/Npu/ll_aton/ll_aton_lib_sw_operators.c ****   case 1: // `reflect` mode
1879:Lib/AI_Runtime/Npu/ll_aton/ll_aton_lib_sw_operators.c ****     __ll_aton_lib_pad_reflect_sw(0, common_params, false);
 8504              		.loc 1 1879 5
 8505 003c 0022     		movs	r2, #0
 8506 003e 7968     		ldr	r1, [r7, #4]
 8507 0040 0020     		movs	r0, #0
 8508 0042 FFF7FEFF 		bl	__ll_aton_lib_pad_reflect_sw
1880:Lib/AI_Runtime/Npu/ll_aton/ll_aton_lib_sw_operators.c ****     break;
 8509              		.loc 1 1880 5
 8510 0046 0EE0     		b	.L517
 8511              	.L515:
1881:Lib/AI_Runtime/Npu/ll_aton/ll_aton_lib_sw_operators.c **** 
1882:Lib/AI_Runtime/Npu/ll_aton/ll_aton_lib_sw_operators.c ****   case 2: // `edge` mode
1883:Lib/AI_Runtime/Npu/ll_aton/ll_aton_lib_sw_operators.c ****     __ll_aton_lib_pad_edge_sw(0, common_params, false);
 8512              		.loc 1 1883 5
 8513 0048 0022     		movs	r2, #0
 8514 004a 7968     		ldr	r1, [r7, #4]
 8515 004c 0020     		movs	r0, #0
 8516 004e FFF7FEFF 		bl	__ll_aton_lib_pad_edge_sw
1884:Lib/AI_Runtime/Npu/ll_aton/ll_aton_lib_sw_operators.c ****     break;
 8517              		.loc 1 1884 5
 8518 0052 08E0     		b	.L517
 8519              	.L521:
1885:Lib/AI_Runtime/Npu/ll_aton/ll_aton_lib_sw_operators.c **** 
1886:Lib/AI_Runtime/Npu/ll_aton/ll_aton_lib_sw_operators.c ****   default:
1887:Lib/AI_Runtime/Npu/ll_aton/ll_aton_lib_sw_operators.c ****     __LL_LIB_ERROR(_ERR_MODE, LL_ATON_INVALID_PARAM)
 8520              		.loc 1 1887 5
 8521 0054 1A4A     		ldr	r2, .L522+16
 8522 0056 40F25F71 		movw	r1, #1887
 8523 005a 1020     		movs	r0, #16
 8524 005c FFF7FEFF 		bl	__ll_lib_error
 8525              		.loc 1 1887 5 is_stmt 0 discriminator 1
 8526 0060 6FF00103 		mvn	r3, #1
 8527              		.loc 1 1887 5
 8528 0064 1FE0     		b	.L518
 8529              	.L517:
1888:Lib/AI_Runtime/Npu/ll_aton/ll_aton_lib_sw_operators.c ****   }
1889:Lib/AI_Runtime/Npu/ll_aton/ll_aton_lib_sw_operators.c **** 
1890:Lib/AI_Runtime/Npu/ll_aton/ll_aton_lib_sw_operators.c ****   LL_ATON_ASSERT(common_params->callback_function != NULL); /* always "called as callback" */
 8530              		.loc 1 1890 3 is_stmt 1
 8531 0066 7B68     		ldr	r3, [r7, #4]
 8532 0068 DB6A     		ldr	r3, [r3, #44]
 8533 006a 002B     		cmp	r3, #0
 8534 006c 06D1     		bne	.L519
 8535              		.loc 1 1890 3 is_stmt 0 discriminator 1
 8536 006e 154B     		ldr	r3, .L522+20
 8537 0070 114A     		ldr	r2, .L522+8
 8538 0072 40F26271 		movw	r1, #1890
 8539 0076 1148     		ldr	r0, .L522+12
 8540 0078 FFF7FEFF 		bl	__assert_func
 8541              	.L519:
1891:Lib/AI_Runtime/Npu/ll_aton/ll_aton_lib_sw_operators.c ****   if ((common_params->end_out_target - common_params->saved_out_target) > 0)
 8542              		.loc 1 1891 21 is_stmt 1
 8543 007c 7B68     		ldr	r3, [r7, #4]
 8544 007e 9A6A     		ldr	r2, [r3, #40]
 8545              		.loc 1 1891 53
ARM GAS  /tmp/ccgnzMmM.s 			page 201


 8546 0080 7B68     		ldr	r3, [r7, #4]
 8547 0082 1B6A     		ldr	r3, [r3, #32]
 8548              		.loc 1 1891 38
 8549 0084 D31A     		subs	r3, r2, r3
 8550              		.loc 1 1891 6
 8551 0086 002B     		cmp	r3, #0
 8552 0088 0CDD     		ble	.L520
 8553              	.LBB88:
1892:Lib/AI_Runtime/Npu/ll_aton/ll_aton_lib_sw_operators.c ****   {
1893:Lib/AI_Runtime/Npu/ll_aton/ll_aton_lib_sw_operators.c ****     /* *** MCU cache clean operation (SW) *** */
1894:Lib/AI_Runtime/Npu/ll_aton/ll_aton_lib_sw_operators.c ****     uint32_t size = (uintptr_t)(common_params->end_out_target) - (uintptr_t)(common_params->saved_o
 8554              		.loc 1 1894 46
 8555 008a 7B68     		ldr	r3, [r7, #4]
 8556 008c 9B6A     		ldr	r3, [r3, #40]
 8557              		.loc 1 1894 21
 8558 008e 1A46     		mov	r2, r3
 8559              		.loc 1 1894 91
 8560 0090 7B68     		ldr	r3, [r7, #4]
 8561 0092 1B6A     		ldr	r3, [r3, #32]
 8562              		.loc 1 1894 14
 8563 0094 D31A     		subs	r3, r2, r3
 8564 0096 FB60     		str	r3, [r7, #12]
1895:Lib/AI_Runtime/Npu/ll_aton/ll_aton_lib_sw_operators.c ****     LL_ATON_Cache_MCU_Clean_Range(ATON_LIB_PHYSICAL_TO_VIRTUAL_ADDR((uintptr_t)common_params->saved
 8565              		.loc 1 1895 35
 8566 0098 7B68     		ldr	r3, [r7, #4]
 8567 009a 1B6A     		ldr	r3, [r3, #32]
 8568              		.loc 1 1895 5
 8569 009c F968     		ldr	r1, [r7, #12]
 8570 009e 1846     		mov	r0, r3
 8571 00a0 FFF7FEFF 		bl	LL_ATON_Cache_MCU_Clean_Range
 8572              	.L520:
 8573              	.LBE88:
1896:Lib/AI_Runtime/Npu/ll_aton/ll_aton_lib_sw_operators.c ****   }
1897:Lib/AI_Runtime/Npu/ll_aton/ll_aton_lib_sw_operators.c **** 
1898:Lib/AI_Runtime/Npu/ll_aton/ll_aton_lib_sw_operators.c **** #if defined(DUMP_RESULTS_PAD_OP)
1899:Lib/AI_Runtime/Npu/ll_aton/ll_aton_lib_sw_operators.c ****   /* debug output print */
1900:Lib/AI_Runtime/Npu/ll_aton/ll_aton_lib_sw_operators.c ****   switch (common_params->nbytes)
1901:Lib/AI_Runtime/Npu/ll_aton/ll_aton_lib_sw_operators.c ****   {
1902:Lib/AI_Runtime/Npu/ll_aton/ll_aton_lib_sw_operators.c ****   case 1:
1903:Lib/AI_Runtime/Npu/ll_aton/ll_aton_lib_sw_operators.c ****   {
1904:Lib/AI_Runtime/Npu/ll_aton/ll_aton_lib_sw_operators.c ****     int8_t *ptr = (int8_t *)out_target;
1905:Lib/AI_Runtime/Npu/ll_aton/ll_aton_lib_sw_operators.c ****     for (uint32_t i = 0; i < common_params->out_size; i++)
1906:Lib/AI_Runtime/Npu/ll_aton/ll_aton_lib_sw_operators.c ****     {
1907:Lib/AI_Runtime/Npu/ll_aton/ll_aton_lib_sw_operators.c ****       LL_ATON_PRINTF("%d\n", ptr[i]);
1908:Lib/AI_Runtime/Npu/ll_aton/ll_aton_lib_sw_operators.c ****     }
1909:Lib/AI_Runtime/Npu/ll_aton/ll_aton_lib_sw_operators.c ****   }
1910:Lib/AI_Runtime/Npu/ll_aton/ll_aton_lib_sw_operators.c ****   break;
1911:Lib/AI_Runtime/Npu/ll_aton/ll_aton_lib_sw_operators.c ****   case 2:
1912:Lib/AI_Runtime/Npu/ll_aton/ll_aton_lib_sw_operators.c ****   {
1913:Lib/AI_Runtime/Npu/ll_aton/ll_aton_lib_sw_operators.c ****     int16_t *ptr = (int16_t *)(int8_t *)out_target;
1914:Lib/AI_Runtime/Npu/ll_aton/ll_aton_lib_sw_operators.c ****     for (uint32_t i = 0; i < common_params->out_size / 2; i++)
1915:Lib/AI_Runtime/Npu/ll_aton/ll_aton_lib_sw_operators.c ****     {
1916:Lib/AI_Runtime/Npu/ll_aton/ll_aton_lib_sw_operators.c ****       LL_ATON_PRINTF("%d\n", ptr[i]);
1917:Lib/AI_Runtime/Npu/ll_aton/ll_aton_lib_sw_operators.c ****     }
1918:Lib/AI_Runtime/Npu/ll_aton/ll_aton_lib_sw_operators.c ****   }
1919:Lib/AI_Runtime/Npu/ll_aton/ll_aton_lib_sw_operators.c ****   break;
1920:Lib/AI_Runtime/Npu/ll_aton/ll_aton_lib_sw_operators.c ****   case 3: // NOTE: assuming no alignment
ARM GAS  /tmp/ccgnzMmM.s 			page 202


1921:Lib/AI_Runtime/Npu/ll_aton/ll_aton_lib_sw_operators.c ****   {
1922:Lib/AI_Runtime/Npu/ll_aton/ll_aton_lib_sw_operators.c ****     /* check endianess */
1923:Lib/AI_Runtime/Npu/ll_aton/ll_aton_lib_sw_operators.c ****     const int32_t _const_val = 0x01020304;
1924:Lib/AI_Runtime/Npu/ll_aton/ll_aton_lib_sw_operators.c ****     const int8_t *_const_val_ptr = (int8_t *)&_const_val;
1925:Lib/AI_Runtime/Npu/ll_aton/ll_aton_lib_sw_operators.c ****     bool is_little_endian = (_const_val_ptr[0] == 0x04);
1926:Lib/AI_Runtime/Npu/ll_aton/ll_aton_lib_sw_operators.c **** 
1927:Lib/AI_Runtime/Npu/ll_aton/ll_aton_lib_sw_operators.c ****     int8_t *ptr = (int8_t *)out_target;
1928:Lib/AI_Runtime/Npu/ll_aton/ll_aton_lib_sw_operators.c ****     if (is_little_endian)
1929:Lib/AI_Runtime/Npu/ll_aton/ll_aton_lib_sw_operators.c ****     {
1930:Lib/AI_Runtime/Npu/ll_aton/ll_aton_lib_sw_operators.c ****       for (uint32_t i = 0; i < common_params->out_size / 3; i += 3)
1931:Lib/AI_Runtime/Npu/ll_aton/ll_aton_lib_sw_operators.c ****       {
1932:Lib/AI_Runtime/Npu/ll_aton/ll_aton_lib_sw_operators.c ****         int32_t value = 0;
1933:Lib/AI_Runtime/Npu/ll_aton/ll_aton_lib_sw_operators.c **** 
1934:Lib/AI_Runtime/Npu/ll_aton/ll_aton_lib_sw_operators.c ****         value |= ptr[i];
1935:Lib/AI_Runtime/Npu/ll_aton/ll_aton_lib_sw_operators.c ****         value |= ptr[i + 1] << 8;
1936:Lib/AI_Runtime/Npu/ll_aton/ll_aton_lib_sw_operators.c ****         value |= ptr[i + 2] << 16;
1937:Lib/AI_Runtime/Npu/ll_aton/ll_aton_lib_sw_operators.c **** 
1938:Lib/AI_Runtime/Npu/ll_aton/ll_aton_lib_sw_operators.c ****         LL_ATON_PRINTF("%d\n", value);
1939:Lib/AI_Runtime/Npu/ll_aton/ll_aton_lib_sw_operators.c ****       }
1940:Lib/AI_Runtime/Npu/ll_aton/ll_aton_lib_sw_operators.c ****     }
1941:Lib/AI_Runtime/Npu/ll_aton/ll_aton_lib_sw_operators.c ****     else
1942:Lib/AI_Runtime/Npu/ll_aton/ll_aton_lib_sw_operators.c ****     {
1943:Lib/AI_Runtime/Npu/ll_aton/ll_aton_lib_sw_operators.c ****       for (uint32_t i = 0; i < common_params->out_size / 3; i += 3)
1944:Lib/AI_Runtime/Npu/ll_aton/ll_aton_lib_sw_operators.c ****       {
1945:Lib/AI_Runtime/Npu/ll_aton/ll_aton_lib_sw_operators.c ****         int32_t value = 0;
1946:Lib/AI_Runtime/Npu/ll_aton/ll_aton_lib_sw_operators.c **** 
1947:Lib/AI_Runtime/Npu/ll_aton/ll_aton_lib_sw_operators.c ****         value |= ptr[i] << 16;
1948:Lib/AI_Runtime/Npu/ll_aton/ll_aton_lib_sw_operators.c ****         value |= ptr[i + 1] << 8;
1949:Lib/AI_Runtime/Npu/ll_aton/ll_aton_lib_sw_operators.c ****         value |= ptr[i + 2];
1950:Lib/AI_Runtime/Npu/ll_aton/ll_aton_lib_sw_operators.c **** 
1951:Lib/AI_Runtime/Npu/ll_aton/ll_aton_lib_sw_operators.c ****         LL_ATON_PRINTF("%d\n", value);
1952:Lib/AI_Runtime/Npu/ll_aton/ll_aton_lib_sw_operators.c ****       }
1953:Lib/AI_Runtime/Npu/ll_aton/ll_aton_lib_sw_operators.c ****     }
1954:Lib/AI_Runtime/Npu/ll_aton/ll_aton_lib_sw_operators.c ****   }
1955:Lib/AI_Runtime/Npu/ll_aton/ll_aton_lib_sw_operators.c ****   break;
1956:Lib/AI_Runtime/Npu/ll_aton/ll_aton_lib_sw_operators.c ****   case 4:
1957:Lib/AI_Runtime/Npu/ll_aton/ll_aton_lib_sw_operators.c ****   {
1958:Lib/AI_Runtime/Npu/ll_aton/ll_aton_lib_sw_operators.c ****     int32_t *ptr = (int32_t *)(int8_t *)out_target;
1959:Lib/AI_Runtime/Npu/ll_aton/ll_aton_lib_sw_operators.c ****     for (uint32_t i = 0; i < common_params->out_size / 4; i++)
1960:Lib/AI_Runtime/Npu/ll_aton/ll_aton_lib_sw_operators.c ****     {
1961:Lib/AI_Runtime/Npu/ll_aton/ll_aton_lib_sw_operators.c ****       LL_ATON_PRINTF("%d\n", ptr[i]);
1962:Lib/AI_Runtime/Npu/ll_aton/ll_aton_lib_sw_operators.c ****     }
1963:Lib/AI_Runtime/Npu/ll_aton/ll_aton_lib_sw_operators.c ****   }
1964:Lib/AI_Runtime/Npu/ll_aton/ll_aton_lib_sw_operators.c ****   break;
1965:Lib/AI_Runtime/Npu/ll_aton/ll_aton_lib_sw_operators.c ****   default:
1966:Lib/AI_Runtime/Npu/ll_aton/ll_aton_lib_sw_operators.c ****     LL_ATON_ASSERT(false);
1967:Lib/AI_Runtime/Npu/ll_aton/ll_aton_lib_sw_operators.c ****     break;
1968:Lib/AI_Runtime/Npu/ll_aton/ll_aton_lib_sw_operators.c ****   }
1969:Lib/AI_Runtime/Npu/ll_aton/ll_aton_lib_sw_operators.c **** #endif // DUMP_RESULTS_PAD_OP
1970:Lib/AI_Runtime/Npu/ll_aton/ll_aton_lib_sw_operators.c **** 
1971:Lib/AI_Runtime/Npu/ll_aton/ll_aton_lib_sw_operators.c ****   return LL_ATON_OK;
 8574              		.loc 1 1971 10
 8575 00a4 0023     		movs	r3, #0
 8576              	.L518:
1972:Lib/AI_Runtime/Npu/ll_aton/ll_aton_lib_sw_operators.c **** }
 8577              		.loc 1 1972 1
 8578 00a6 1846     		mov	r0, r3
ARM GAS  /tmp/ccgnzMmM.s 			page 203


 8579 00a8 1037     		adds	r7, r7, #16
 8580              		.cfi_def_cfa_offset 8
 8581 00aa BD46     		mov	sp, r7
 8582              		.cfi_def_cfa_register 13
 8583              		@ sp needed
 8584 00ac 80BD     		pop	{r7, pc}
 8585              	.L523:
 8586 00ae 00BF     		.align	2
 8587              	.L522:
 8588 00b0 00000000 		.word	__ll_current_aton_ip_owner
 8589 00b4 74060000 		.word	.LC48
 8590 00b8 00000000 		.word	__func__.3
 8591 00bc 24000000 		.word	.LC1
 8592 00c0 00000000 		.word	__FUNCTION__.2
 8593 00c4 A0060000 		.word	.LC49
 8594              		.cfi_endproc
 8595              	.LFE4889:
 8597              		.section	.rodata
 8598              		.align	2
 8599              	.LC50:
 8600 06d0 646D615F 		.ascii	"dma_in >= 0\000"
 8600      696E203E 
 8600      3D203000 
 8601              		.align	2
 8602              	.LC51:
 8603 06dc 646D615F 		.ascii	"dma_out >= 0\000"
 8603      6F757420 
 8603      3E3D2030 
 8603      00
 8604              		.section	.text.LL_ATON_LIB_Pad,"ax",%progbits
 8605              		.align	1
 8606              		.global	LL_ATON_LIB_Pad
 8607              		.syntax unified
 8608              		.thumb
 8609              		.thumb_func
 8611              	LL_ATON_LIB_Pad:
 8612              	.LFB4890:
1973:Lib/AI_Runtime/Npu/ll_aton/ll_aton_lib_sw_operators.c **** 
1974:Lib/AI_Runtime/Npu/ll_aton/ll_aton_lib_sw_operators.c **** int LL_ATON_LIB_Pad(unsigned char *input, unsigned char *output, unsigned char *input_limit,
1975:Lib/AI_Runtime/Npu/ll_aton/ll_aton_lib_sw_operators.c ****                     unsigned char *output_limit, const uint32_t *min_shape, uint8_t mode, uint8_t n
1976:Lib/AI_Runtime/Npu/ll_aton/ll_aton_lib_sw_operators.c ****                     uint32_t out_elems, int32_t constant_value, uint32_t consecutive_axis, uint32_t
1977:Lib/AI_Runtime/Npu/ll_aton/ll_aton_lib_sw_operators.c ****                     const int32_t *pad_in_offsets_start, const int32_t *pad_in_offsets_end,
1978:Lib/AI_Runtime/Npu/ll_aton/ll_aton_lib_sw_operators.c ****                     const int32_t *pad_out_offsets_start, const int32_t *pad_out_offsets_end, const
1979:Lib/AI_Runtime/Npu/ll_aton/ll_aton_lib_sw_operators.c ****                     const int32_t *out_offsets, size_t tensor_rank, int dma_in, int dma_out)
1980:Lib/AI_Runtime/Npu/ll_aton/ll_aton_lib_sw_operators.c **** {
 8613              		.loc 1 1980 1
 8614              		.cfi_startproc
 8615              		@ args = 64, pretend = 0, frame = 112
 8616              		@ frame_needed = 1, uses_anonymous_args = 0
 8617 0000 80B5     		push	{r7, lr}
 8618              		.cfi_def_cfa_offset 8
 8619              		.cfi_offset 7, -8
 8620              		.cfi_offset 14, -4
 8621 0002 9CB0     		sub	sp, sp, #112
 8622              		.cfi_def_cfa_offset 120
 8623 0004 00AF     		add	r7, sp, #0
 8624              		.cfi_def_cfa_register 7
ARM GAS  /tmp/ccgnzMmM.s 			page 204


 8625 0006 F860     		str	r0, [r7, #12]
 8626 0008 B960     		str	r1, [r7, #8]
 8627 000a 7A60     		str	r2, [r7, #4]
 8628 000c 3B60     		str	r3, [r7]
1981:Lib/AI_Runtime/Npu/ll_aton/ll_aton_lib_sw_operators.c ****   LL_ATON_ASSERT(dma_in >= 0);
 8629              		.loc 1 1981 3
 8630 000e D7F8B030 		ldr	r3, [r7, #176]
 8631 0012 002B     		cmp	r3, #0
 8632 0014 06DA     		bge	.L525
 8633              		.loc 1 1981 3 is_stmt 0 discriminator 1
 8634 0016 6B4B     		ldr	r3, .L541
 8635 0018 6B4A     		ldr	r2, .L541+4
 8636 001a 40F2BD71 		movw	r1, #1981
 8637 001e 6B48     		ldr	r0, .L541+8
 8638 0020 FFF7FEFF 		bl	__assert_func
 8639              	.L525:
1982:Lib/AI_Runtime/Npu/ll_aton/ll_aton_lib_sw_operators.c ****   LL_ATON_ASSERT(dma_out >= 0);
 8640              		.loc 1 1982 3 is_stmt 1
 8641 0024 D7F8B430 		ldr	r3, [r7, #180]
 8642 0028 002B     		cmp	r3, #0
 8643 002a 06DA     		bge	.L526
 8644              		.loc 1 1982 3 is_stmt 0 discriminator 1
 8645 002c 684B     		ldr	r3, .L541+12
 8646 002e 664A     		ldr	r2, .L541+4
 8647 0030 40F2BE71 		movw	r1, #1982
 8648 0034 6548     		ldr	r0, .L541+8
 8649 0036 FFF7FEFF 		bl	__assert_func
 8650              	.L526:
1983:Lib/AI_Runtime/Npu/ll_aton/ll_aton_lib_sw_operators.c **** 
1984:Lib/AI_Runtime/Npu/ll_aton/ll_aton_lib_sw_operators.c ****   size_t out_size = out_elems * nbytes;
 8651              		.loc 1 1984 31 is_stmt 1
 8652 003a 97F88020 		ldrb	r2, [r7, #128]	@ zero_extendqisi2
 8653              		.loc 1 1984 10
 8654 003e D7F88430 		ldr	r3, [r7, #132]
 8655 0042 02FB03F3 		mul	r3, r2, r3
 8656 0046 FB66     		str	r3, [r7, #108]
1985:Lib/AI_Runtime/Npu/ll_aton/ll_aton_lib_sw_operators.c ****   uint32_t consecutive_bytes = consecutive_elems * nbytes;
 8657              		.loc 1 1985 50
 8658 0048 97F88020 		ldrb	r2, [r7, #128]	@ zero_extendqisi2
 8659              		.loc 1 1985 12
 8660 004c D7F89030 		ldr	r3, [r7, #144]
 8661 0050 02FB03F3 		mul	r3, r2, r3
 8662 0054 BB66     		str	r3, [r7, #104]
1986:Lib/AI_Runtime/Npu/ll_aton/ll_aton_lib_sw_operators.c **** 
1987:Lib/AI_Runtime/Npu/ll_aton/ll_aton_lib_sw_operators.c ****   __ll_pad_sw_params_t common_params = {
 8663              		.loc 1 1987 24
 8664 0056 07F11003 		add	r3, r7, #16
 8665 005a 5822     		movs	r2, #88
 8666 005c 0021     		movs	r1, #0
 8667 005e 1846     		mov	r0, r3
 8668 0060 FFF7FEFF 		bl	memset
 8669 0064 FB68     		ldr	r3, [r7, #12]
 8670 0066 3B61     		str	r3, [r7, #16]
 8671 0068 BB68     		ldr	r3, [r7, #8]
 8672 006a 7B61     		str	r3, [r7, #20]
 8673 006c 7B68     		ldr	r3, [r7, #4]
 8674 006e BB61     		str	r3, [r7, #24]
ARM GAS  /tmp/ccgnzMmM.s 			page 205


 8675 0070 3B68     		ldr	r3, [r7]
 8676 0072 FB61     		str	r3, [r7, #28]
 8677 0074 D7F88C30 		ldr	r3, [r7, #140]
 8678 0078 3B62     		str	r3, [r7, #32]
 8679 007a BB6E     		ldr	r3, [r7, #104]
 8680 007c 7B62     		str	r3, [r7, #36]
 8681 007e 97F88030 		ldrb	r3, [r7, #128]
 8682 0082 87F82830 		strb	r3, [r7, #40]
 8683 0086 97F87C30 		ldrb	r3, [r7, #124]
 8684 008a 87F82930 		strb	r3, [r7, #41]
 8685 008e FB68     		ldr	r3, [r7, #12]
 8686 0090 FB62     		str	r3, [r7, #44]
 8687 0092 BB68     		ldr	r3, [r7, #8]
 8688 0094 3B63     		str	r3, [r7, #48]
 8689 0096 D7F8AC30 		ldr	r3, [r7, #172]
 8690 009a 7B63     		str	r3, [r7, #52]
1988:Lib/AI_Runtime/Npu/ll_aton/ll_aton_lib_sw_operators.c ****     .in_target = (int8_t *)input,
1989:Lib/AI_Runtime/Npu/ll_aton/ll_aton_lib_sw_operators.c ****     .out_target = (int8_t *)output,
1990:Lib/AI_Runtime/Npu/ll_aton/ll_aton_lib_sw_operators.c ****     .in_limit = (int8_t *)input_limit,
1991:Lib/AI_Runtime/Npu/ll_aton/ll_aton_lib_sw_operators.c ****     .out_limit = (int8_t *)output_limit,
1992:Lib/AI_Runtime/Npu/ll_aton/ll_aton_lib_sw_operators.c ****     .nbytes = nbytes,
1993:Lib/AI_Runtime/Npu/ll_aton/ll_aton_lib_sw_operators.c ****     .mode = mode,
1994:Lib/AI_Runtime/Npu/ll_aton/ll_aton_lib_sw_operators.c ****     .tensor_rank = tensor_rank,
1995:Lib/AI_Runtime/Npu/ll_aton/ll_aton_lib_sw_operators.c ****     .saved_in_target = (int8_t *)input,
1996:Lib/AI_Runtime/Npu/ll_aton/ll_aton_lib_sw_operators.c ****     .saved_out_target = (int8_t *)output,
1997:Lib/AI_Runtime/Npu/ll_aton/ll_aton_lib_sw_operators.c ****     .end_out_target = (int8_t *)output + out_size,
 8691              		.loc 1 1997 40
 8692 009c BA68     		ldr	r2, [r7, #8]
 8693 009e FB6E     		ldr	r3, [r7, #108]
 8694 00a0 1344     		add	r3, r3, r2
1987:Lib/AI_Runtime/Npu/ll_aton/ll_aton_lib_sw_operators.c ****     .in_target = (int8_t *)input,
 8695              		.loc 1 1987 24
 8696 00a2 BB63     		str	r3, [r7, #56]
 8697 00a4 D7F8B030 		ldr	r3, [r7, #176]
 8698 00a8 3B64     		str	r3, [r7, #64]
 8699 00aa D7F8B430 		ldr	r3, [r7, #180]
 8700 00ae 7B64     		str	r3, [r7, #68]
 8701 00b0 BB6F     		ldr	r3, [r7, #120]
 8702 00b2 BB64     		str	r3, [r7, #72]
 8703 00b4 D7F89430 		ldr	r3, [r7, #148]
 8704 00b8 FB64     		str	r3, [r7, #76]
 8705 00ba D7F89830 		ldr	r3, [r7, #152]
 8706 00be 3B65     		str	r3, [r7, #80]
 8707 00c0 D7F89C30 		ldr	r3, [r7, #156]
 8708 00c4 7B65     		str	r3, [r7, #84]
 8709 00c6 D7F8A030 		ldr	r3, [r7, #160]
 8710 00ca BB65     		str	r3, [r7, #88]
 8711 00cc D7F8A430 		ldr	r3, [r7, #164]
 8712 00d0 FB65     		str	r3, [r7, #92]
 8713 00d2 D7F8A830 		ldr	r3, [r7, #168]
 8714 00d6 3B66     		str	r3, [r7, #96]
1998:Lib/AI_Runtime/Npu/ll_aton/ll_aton_lib_sw_operators.c ****     .callback_function = NULL,
1999:Lib/AI_Runtime/Npu/ll_aton/ll_aton_lib_sw_operators.c ****     .consecutive_axis = consecutive_axis,
2000:Lib/AI_Runtime/Npu/ll_aton/ll_aton_lib_sw_operators.c ****     .consecutive_bytes = consecutive_bytes,
2001:Lib/AI_Runtime/Npu/ll_aton/ll_aton_lib_sw_operators.c ****     .dma_in = dma_in,
2002:Lib/AI_Runtime/Npu/ll_aton/ll_aton_lib_sw_operators.c ****     .dma_out = dma_out,
2003:Lib/AI_Runtime/Npu/ll_aton/ll_aton_lib_sw_operators.c **** #if defined(DUMP_RESULTS_PAD_OP)
ARM GAS  /tmp/ccgnzMmM.s 			page 206


2004:Lib/AI_Runtime/Npu/ll_aton/ll_aton_lib_sw_operators.c ****     .out_size = out_size,
2005:Lib/AI_Runtime/Npu/ll_aton/ll_aton_lib_sw_operators.c **** #endif
2006:Lib/AI_Runtime/Npu/ll_aton/ll_aton_lib_sw_operators.c **** 
2007:Lib/AI_Runtime/Npu/ll_aton/ll_aton_lib_sw_operators.c ****     .min_shape = min_shape,
2008:Lib/AI_Runtime/Npu/ll_aton/ll_aton_lib_sw_operators.c ****     .pad_in_offsets_start = pad_in_offsets_start,
2009:Lib/AI_Runtime/Npu/ll_aton/ll_aton_lib_sw_operators.c ****     .pad_in_offsets_end = pad_in_offsets_end,
2010:Lib/AI_Runtime/Npu/ll_aton/ll_aton_lib_sw_operators.c ****     .pad_out_offsets_start = pad_out_offsets_start,
2011:Lib/AI_Runtime/Npu/ll_aton/ll_aton_lib_sw_operators.c ****     .pad_out_offsets_end = pad_out_offsets_end,
2012:Lib/AI_Runtime/Npu/ll_aton/ll_aton_lib_sw_operators.c ****     .out_shape = out_shape,
2013:Lib/AI_Runtime/Npu/ll_aton/ll_aton_lib_sw_operators.c ****     .out_offsets = out_offsets,
2014:Lib/AI_Runtime/Npu/ll_aton/ll_aton_lib_sw_operators.c ****   };
2015:Lib/AI_Runtime/Npu/ll_aton/ll_aton_lib_sw_operators.c **** 
2016:Lib/AI_Runtime/Npu/ll_aton/ll_aton_lib_sw_operators.c ****   if (consecutive_bytes == 0)
 8715              		.loc 1 2016 6
 8716 00d8 BB6E     		ldr	r3, [r7, #104]
 8717 00da 002B     		cmp	r3, #0
 8718 00dc 02D1     		bne	.L527
2017:Lib/AI_Runtime/Npu/ll_aton/ll_aton_lib_sw_operators.c ****   {
2018:Lib/AI_Runtime/Npu/ll_aton/ll_aton_lib_sw_operators.c ****     // corner case: nothing needs to be copied/filled in (just `memset`), align with `onnxruntime (
2019:Lib/AI_Runtime/Npu/ll_aton/ll_aton_lib_sw_operators.c ****     // reference implementation
2020:Lib/AI_Runtime/Npu/ll_aton/ll_aton_lib_sw_operators.c ****     constant_value = 0;
 8719              		.loc 1 2020 20
 8720 00de 0023     		movs	r3, #0
 8721 00e0 C7F88830 		str	r3, [r7, #136]
 8722              	.L527:
2021:Lib/AI_Runtime/Npu/ll_aton/ll_aton_lib_sw_operators.c ****   }
2022:Lib/AI_Runtime/Npu/ll_aton/ll_aton_lib_sw_operators.c **** 
2023:Lib/AI_Runtime/Npu/ll_aton/ll_aton_lib_sw_operators.c ****   switch (mode)
 8723              		.loc 1 2023 3
 8724 00e4 97F87C30 		ldrb	r3, [r7, #124]	@ zero_extendqisi2
 8725 00e8 022B     		cmp	r3, #2
 8726 00ea 43D0     		beq	.L528
 8727 00ec 022B     		cmp	r3, #2
 8728 00ee 5ADC     		bgt	.L529
 8729 00f0 002B     		cmp	r3, #0
 8730 00f2 02D0     		beq	.L530
 8731 00f4 012B     		cmp	r3, #1
 8732 00f6 24D0     		beq	.L531
 8733 00f8 55E0     		b	.L529
 8734              	.L530:
2024:Lib/AI_Runtime/Npu/ll_aton/ll_aton_lib_sw_operators.c ****   {
2025:Lib/AI_Runtime/Npu/ll_aton/ll_aton_lib_sw_operators.c ****   case 0: // `constant` mode
2026:Lib/AI_Runtime/Npu/ll_aton/ll_aton_lib_sw_operators.c ****     /* fill output with constant value
2027:Lib/AI_Runtime/Npu/ll_aton/ll_aton_lib_sw_operators.c ****        (TODO: trade-off between one shot and multiple single short shots - without overwriting non 
2028:Lib/AI_Runtime/Npu/ll_aton/ll_aton_lib_sw_operators.c ****        ranges - still to be evaluated) */
2029:Lib/AI_Runtime/Npu/ll_aton/ll_aton_lib_sw_operators.c ****     if ((out_size < __LL_PAD_FRAMING_DMA_MIN_BUFF_LEN) || (tensor_rank > __LL_DMA_PAD_MAX_DIMS))
 8735              		.loc 1 2029 8
 8736 00fa FB6E     		ldr	r3, [r7, #108]
 8737 00fc 42F21B52 		movw	r2, #9499
 8738 0100 9342     		cmp	r3, r2
 8739 0102 03D9     		bls	.L532
 8740              		.loc 1 2029 56 discriminator 1
 8741 0104 D7F8AC30 		ldr	r3, [r7, #172]
 8742 0108 2A2B     		cmp	r3, #42
 8743 010a 0ED9     		bls	.L533
 8744              	.L532:
2030:Lib/AI_Runtime/Npu/ll_aton/ll_aton_lib_sw_operators.c ****     {
ARM GAS  /tmp/ccgnzMmM.s 			page 207


2031:Lib/AI_Runtime/Npu/ll_aton/ll_aton_lib_sw_operators.c ****       __ll_aton_lib_memset(nbytes, (int8_t *)output, constant_value, out_size);
 8745              		.loc 1 2031 7
 8746 010c 97F88000 		ldrb	r0, [r7, #128]	@ zero_extendqisi2
 8747 0110 FB6E     		ldr	r3, [r7, #108]
 8748 0112 D7F88820 		ldr	r2, [r7, #136]
 8749 0116 B968     		ldr	r1, [r7, #8]
 8750 0118 FFF7FEFF 		bl	__ll_aton_lib_memset
2032:Lib/AI_Runtime/Npu/ll_aton/ll_aton_lib_sw_operators.c ****       return __ll_aton_lib_pad_filling(&common_params);
 8751              		.loc 1 2032 14
 8752 011c 07F11003 		add	r3, r7, #16
 8753 0120 1846     		mov	r0, r3
 8754 0122 FFF7FEFF 		bl	__ll_aton_lib_pad_filling
 8755 0126 0346     		mov	r3, r0
 8756 0128 47E0     		b	.L540
 8757              	.L533:
2033:Lib/AI_Runtime/Npu/ll_aton/ll_aton_lib_sw_operators.c ****     }
2034:Lib/AI_Runtime/Npu/ll_aton/ll_aton_lib_sw_operators.c ****     else
2035:Lib/AI_Runtime/Npu/ll_aton/ll_aton_lib_sw_operators.c ****     {
2036:Lib/AI_Runtime/Npu/ll_aton/ll_aton_lib_sw_operators.c ****       common_params.callback_function = (pad_callback_func_t)&__ll_aton_lib_pad_filling;
 8758              		.loc 1 2036 39
 8759 012a 2A4B     		ldr	r3, .L541+16
 8760 012c FB63     		str	r3, [r7, #60]
2037:Lib/AI_Runtime/Npu/ll_aton/ll_aton_lib_sw_operators.c ****       return LL_ATON_LIB_DMA_Pad_Memset((int8_t *)output, constant_value, out_size,
 8761              		.loc 1 2037 14
 8762 012e 07F11003 		add	r3, r7, #16
 8763 0132 FA6E     		ldr	r2, [r7, #108]
 8764 0134 D7F88810 		ldr	r1, [r7, #136]
 8765 0138 B868     		ldr	r0, [r7, #8]
 8766 013a FFF7FEFF 		bl	LL_ATON_LIB_DMA_Pad_Memset
 8767 013e 0346     		mov	r3, r0
 8768 0140 3BE0     		b	.L540
 8769              	.L531:
2038:Lib/AI_Runtime/Npu/ll_aton/ll_aton_lib_sw_operators.c ****                                         &common_params); // first phase (in this case `framing`) is
2039:Lib/AI_Runtime/Npu/ll_aton/ll_aton_lib_sw_operators.c ****     }
2040:Lib/AI_Runtime/Npu/ll_aton/ll_aton_lib_sw_operators.c **** 
2041:Lib/AI_Runtime/Npu/ll_aton/ll_aton_lib_sw_operators.c ****   case 1: // `reflect` mode
2042:Lib/AI_Runtime/Npu/ll_aton/ll_aton_lib_sw_operators.c ****     if ((consecutive_bytes < __LL_PAD_FILLING_DMA_MIN_BUFF_LEN) || (tensor_rank > __LL_DMA_PAD_MAX_
 8770              		.loc 1 2042 8
 8771 0142 BB6E     		ldr	r3, [r7, #104]
 8772 0144 B3F5966F 		cmp	r3, #1200
 8773 0148 03D3     		bcc	.L535
 8774              		.loc 1 2042 65 discriminator 1
 8775 014a D7F8AC30 		ldr	r3, [r7, #172]
 8776 014e 2A2B     		cmp	r3, #42
 8777 0150 07D9     		bls	.L536
 8778              	.L535:
2043:Lib/AI_Runtime/Npu/ll_aton/ll_aton_lib_sw_operators.c ****     {                                                        // do it without HW support
2044:Lib/AI_Runtime/Npu/ll_aton/ll_aton_lib_sw_operators.c ****       __ll_aton_lib_pad_reflect_sw(0, &common_params, true); // all (i.e. `filling` & `framing`) is
 8779              		.loc 1 2044 7
 8780 0152 07F11003 		add	r3, r7, #16
 8781 0156 0122     		movs	r2, #1
 8782 0158 1946     		mov	r1, r3
 8783 015a 0020     		movs	r0, #0
 8784 015c FFF7FEFF 		bl	__ll_aton_lib_pad_reflect_sw
2045:Lib/AI_Runtime/Npu/ll_aton/ll_aton_lib_sw_operators.c ****     }
2046:Lib/AI_Runtime/Npu/ll_aton/ll_aton_lib_sw_operators.c ****     else
2047:Lib/AI_Runtime/Npu/ll_aton/ll_aton_lib_sw_operators.c ****     {
ARM GAS  /tmp/ccgnzMmM.s 			page 208


2048:Lib/AI_Runtime/Npu/ll_aton/ll_aton_lib_sw_operators.c ****       common_params.callback_function = (pad_callback_func_t)&__ll_aton_lib_pad_framing_sw;
2049:Lib/AI_Runtime/Npu/ll_aton/ll_aton_lib_sw_operators.c ****       return LL_ATON_LIB_DMA_Pad_Filling(&common_params); // first phase (in this case `filling`) i
2050:Lib/AI_Runtime/Npu/ll_aton/ll_aton_lib_sw_operators.c ****     }
2051:Lib/AI_Runtime/Npu/ll_aton/ll_aton_lib_sw_operators.c ****     break;
 8785              		.loc 1 2051 5
 8786 0160 2AE0     		b	.L537
 8787              	.L536:
2048:Lib/AI_Runtime/Npu/ll_aton/ll_aton_lib_sw_operators.c ****       return LL_ATON_LIB_DMA_Pad_Filling(&common_params); // first phase (in this case `filling`) i
 8788              		.loc 1 2048 39
 8789 0162 1D4B     		ldr	r3, .L541+20
 8790 0164 FB63     		str	r3, [r7, #60]
2049:Lib/AI_Runtime/Npu/ll_aton/ll_aton_lib_sw_operators.c ****     }
 8791              		.loc 1 2049 14
 8792 0166 07F11003 		add	r3, r7, #16
 8793 016a 1846     		mov	r0, r3
 8794 016c FFF7FEFF 		bl	LL_ATON_LIB_DMA_Pad_Filling
 8795 0170 0346     		mov	r3, r0
 8796 0172 22E0     		b	.L540
 8797              	.L528:
2052:Lib/AI_Runtime/Npu/ll_aton/ll_aton_lib_sw_operators.c **** 
2053:Lib/AI_Runtime/Npu/ll_aton/ll_aton_lib_sw_operators.c ****   case 2: // `edge` mode
2054:Lib/AI_Runtime/Npu/ll_aton/ll_aton_lib_sw_operators.c ****     if ((consecutive_bytes < __LL_PAD_FILLING_DMA_MIN_BUFF_LEN) || (tensor_rank > __LL_DMA_PAD_MAX_
 8798              		.loc 1 2054 8
 8799 0174 BB6E     		ldr	r3, [r7, #104]
 8800 0176 B3F5966F 		cmp	r3, #1200
 8801 017a 03D3     		bcc	.L538
 8802              		.loc 1 2054 65 discriminator 1
 8803 017c D7F8AC30 		ldr	r3, [r7, #172]
 8804 0180 2A2B     		cmp	r3, #42
 8805 0182 07D9     		bls	.L539
 8806              	.L538:
2055:Lib/AI_Runtime/Npu/ll_aton/ll_aton_lib_sw_operators.c ****     {                                                     // do it without HW support
2056:Lib/AI_Runtime/Npu/ll_aton/ll_aton_lib_sw_operators.c ****       __ll_aton_lib_pad_edge_sw(0, &common_params, true); // all is done in SW
 8807              		.loc 1 2056 7
 8808 0184 07F11003 		add	r3, r7, #16
 8809 0188 0122     		movs	r2, #1
 8810 018a 1946     		mov	r1, r3
 8811 018c 0020     		movs	r0, #0
 8812 018e FFF7FEFF 		bl	__ll_aton_lib_pad_edge_sw
2057:Lib/AI_Runtime/Npu/ll_aton/ll_aton_lib_sw_operators.c ****     }
2058:Lib/AI_Runtime/Npu/ll_aton/ll_aton_lib_sw_operators.c ****     else
2059:Lib/AI_Runtime/Npu/ll_aton/ll_aton_lib_sw_operators.c ****     {
2060:Lib/AI_Runtime/Npu/ll_aton/ll_aton_lib_sw_operators.c ****       common_params.callback_function = (pad_callback_func_t)&__ll_aton_lib_pad_framing_sw;
2061:Lib/AI_Runtime/Npu/ll_aton/ll_aton_lib_sw_operators.c ****       return LL_ATON_LIB_DMA_Pad_Filling(&common_params); // first phase (in this case `filling`) i
2062:Lib/AI_Runtime/Npu/ll_aton/ll_aton_lib_sw_operators.c ****     }
2063:Lib/AI_Runtime/Npu/ll_aton/ll_aton_lib_sw_operators.c ****     break;
 8813              		.loc 1 2063 5
 8814 0192 11E0     		b	.L537
 8815              	.L539:
2060:Lib/AI_Runtime/Npu/ll_aton/ll_aton_lib_sw_operators.c ****       return LL_ATON_LIB_DMA_Pad_Filling(&common_params); // first phase (in this case `filling`) i
 8816              		.loc 1 2060 39
 8817 0194 104B     		ldr	r3, .L541+20
 8818 0196 FB63     		str	r3, [r7, #60]
2061:Lib/AI_Runtime/Npu/ll_aton/ll_aton_lib_sw_operators.c ****     }
 8819              		.loc 1 2061 14
 8820 0198 07F11003 		add	r3, r7, #16
 8821 019c 1846     		mov	r0, r3
ARM GAS  /tmp/ccgnzMmM.s 			page 209


 8822 019e FFF7FEFF 		bl	LL_ATON_LIB_DMA_Pad_Filling
 8823 01a2 0346     		mov	r3, r0
 8824 01a4 09E0     		b	.L540
 8825              	.L529:
2064:Lib/AI_Runtime/Npu/ll_aton/ll_aton_lib_sw_operators.c **** 
2065:Lib/AI_Runtime/Npu/ll_aton/ll_aton_lib_sw_operators.c ****   default:
2066:Lib/AI_Runtime/Npu/ll_aton/ll_aton_lib_sw_operators.c ****     __LL_LIB_ERROR(_ERR_MODE, LL_ATON_INVALID_PARAM)
 8826              		.loc 1 2066 5
 8827 01a6 0D4A     		ldr	r2, .L541+24
 8828 01a8 40F61201 		movw	r1, #2066
 8829 01ac 1020     		movs	r0, #16
 8830 01ae FFF7FEFF 		bl	__ll_lib_error
 8831              		.loc 1 2066 5 is_stmt 0 discriminator 1
 8832 01b2 6FF00103 		mvn	r3, #1
 8833              		.loc 1 2066 5
 8834 01b6 00E0     		b	.L540
 8835              	.L537:
2067:Lib/AI_Runtime/Npu/ll_aton/ll_aton_lib_sw_operators.c ****   }
2068:Lib/AI_Runtime/Npu/ll_aton/ll_aton_lib_sw_operators.c **** 
2069:Lib/AI_Runtime/Npu/ll_aton/ll_aton_lib_sw_operators.c **** #if defined(DUMP_RESULTS_PAD_OP)
2070:Lib/AI_Runtime/Npu/ll_aton/ll_aton_lib_sw_operators.c ****   /* debug output print */
2071:Lib/AI_Runtime/Npu/ll_aton/ll_aton_lib_sw_operators.c ****   switch (common_params.nbytes)
2072:Lib/AI_Runtime/Npu/ll_aton/ll_aton_lib_sw_operators.c ****   {
2073:Lib/AI_Runtime/Npu/ll_aton/ll_aton_lib_sw_operators.c ****   case 1:
2074:Lib/AI_Runtime/Npu/ll_aton/ll_aton_lib_sw_operators.c ****   {
2075:Lib/AI_Runtime/Npu/ll_aton/ll_aton_lib_sw_operators.c ****     int8_t *ptr = (int8_t *)output;
2076:Lib/AI_Runtime/Npu/ll_aton/ll_aton_lib_sw_operators.c ****     for (uint32_t i = 0; i < common_params.out_size; i++)
2077:Lib/AI_Runtime/Npu/ll_aton/ll_aton_lib_sw_operators.c ****     {
2078:Lib/AI_Runtime/Npu/ll_aton/ll_aton_lib_sw_operators.c ****       LL_ATON_PRINTF("%d\n", ptr[i]);
2079:Lib/AI_Runtime/Npu/ll_aton/ll_aton_lib_sw_operators.c ****     }
2080:Lib/AI_Runtime/Npu/ll_aton/ll_aton_lib_sw_operators.c ****   }
2081:Lib/AI_Runtime/Npu/ll_aton/ll_aton_lib_sw_operators.c ****   break;
2082:Lib/AI_Runtime/Npu/ll_aton/ll_aton_lib_sw_operators.c ****   case 2:
2083:Lib/AI_Runtime/Npu/ll_aton/ll_aton_lib_sw_operators.c ****   {
2084:Lib/AI_Runtime/Npu/ll_aton/ll_aton_lib_sw_operators.c ****     int16_t *ptr = (int16_t *)(int8_t *)output;
2085:Lib/AI_Runtime/Npu/ll_aton/ll_aton_lib_sw_operators.c ****     for (uint32_t i = 0; i < common_params.out_size / 2; i++)
2086:Lib/AI_Runtime/Npu/ll_aton/ll_aton_lib_sw_operators.c ****     {
2087:Lib/AI_Runtime/Npu/ll_aton/ll_aton_lib_sw_operators.c ****       LL_ATON_PRINTF("%d\n", ptr[i]);
2088:Lib/AI_Runtime/Npu/ll_aton/ll_aton_lib_sw_operators.c ****     }
2089:Lib/AI_Runtime/Npu/ll_aton/ll_aton_lib_sw_operators.c ****   }
2090:Lib/AI_Runtime/Npu/ll_aton/ll_aton_lib_sw_operators.c ****   break;
2091:Lib/AI_Runtime/Npu/ll_aton/ll_aton_lib_sw_operators.c ****   case 3: // NOTE: assuming no alignment
2092:Lib/AI_Runtime/Npu/ll_aton/ll_aton_lib_sw_operators.c ****   {
2093:Lib/AI_Runtime/Npu/ll_aton/ll_aton_lib_sw_operators.c ****     /* check endianess */
2094:Lib/AI_Runtime/Npu/ll_aton/ll_aton_lib_sw_operators.c ****     const int32_t _const_val = 0x01020304;
2095:Lib/AI_Runtime/Npu/ll_aton/ll_aton_lib_sw_operators.c ****     const int8_t *_const_val_ptr = (int8_t *)&_const_val;
2096:Lib/AI_Runtime/Npu/ll_aton/ll_aton_lib_sw_operators.c ****     bool is_little_endian = (_const_val_ptr[0] == 0x04);
2097:Lib/AI_Runtime/Npu/ll_aton/ll_aton_lib_sw_operators.c **** 
2098:Lib/AI_Runtime/Npu/ll_aton/ll_aton_lib_sw_operators.c ****     int8_t *ptr = (int8_t *)output;
2099:Lib/AI_Runtime/Npu/ll_aton/ll_aton_lib_sw_operators.c ****     if (is_little_endian)
2100:Lib/AI_Runtime/Npu/ll_aton/ll_aton_lib_sw_operators.c ****     {
2101:Lib/AI_Runtime/Npu/ll_aton/ll_aton_lib_sw_operators.c ****       for (uint32_t i = 0; i < common_params.out_size / 3; i += 3)
2102:Lib/AI_Runtime/Npu/ll_aton/ll_aton_lib_sw_operators.c ****       {
2103:Lib/AI_Runtime/Npu/ll_aton/ll_aton_lib_sw_operators.c ****         int32_t value = 0;
2104:Lib/AI_Runtime/Npu/ll_aton/ll_aton_lib_sw_operators.c **** 
2105:Lib/AI_Runtime/Npu/ll_aton/ll_aton_lib_sw_operators.c ****         value |= ptr[i];
2106:Lib/AI_Runtime/Npu/ll_aton/ll_aton_lib_sw_operators.c ****         value |= ptr[i + 1] << 8;
ARM GAS  /tmp/ccgnzMmM.s 			page 210


2107:Lib/AI_Runtime/Npu/ll_aton/ll_aton_lib_sw_operators.c ****         value |= ptr[i + 2] << 16;
2108:Lib/AI_Runtime/Npu/ll_aton/ll_aton_lib_sw_operators.c **** 
2109:Lib/AI_Runtime/Npu/ll_aton/ll_aton_lib_sw_operators.c ****         LL_ATON_PRINTF("%d\n", value);
2110:Lib/AI_Runtime/Npu/ll_aton/ll_aton_lib_sw_operators.c ****       }
2111:Lib/AI_Runtime/Npu/ll_aton/ll_aton_lib_sw_operators.c ****     }
2112:Lib/AI_Runtime/Npu/ll_aton/ll_aton_lib_sw_operators.c ****     else
2113:Lib/AI_Runtime/Npu/ll_aton/ll_aton_lib_sw_operators.c ****     {
2114:Lib/AI_Runtime/Npu/ll_aton/ll_aton_lib_sw_operators.c ****       for (uint32_t i = 0; i < common_params.out_size / 3; i += 3)
2115:Lib/AI_Runtime/Npu/ll_aton/ll_aton_lib_sw_operators.c ****       {
2116:Lib/AI_Runtime/Npu/ll_aton/ll_aton_lib_sw_operators.c ****         int32_t value = 0;
2117:Lib/AI_Runtime/Npu/ll_aton/ll_aton_lib_sw_operators.c **** 
2118:Lib/AI_Runtime/Npu/ll_aton/ll_aton_lib_sw_operators.c ****         value |= ptr[i] << 16;
2119:Lib/AI_Runtime/Npu/ll_aton/ll_aton_lib_sw_operators.c ****         value |= ptr[i + 1] << 8;
2120:Lib/AI_Runtime/Npu/ll_aton/ll_aton_lib_sw_operators.c ****         value |= ptr[i + 2];
2121:Lib/AI_Runtime/Npu/ll_aton/ll_aton_lib_sw_operators.c **** 
2122:Lib/AI_Runtime/Npu/ll_aton/ll_aton_lib_sw_operators.c ****         LL_ATON_PRINTF("%d\n", value);
2123:Lib/AI_Runtime/Npu/ll_aton/ll_aton_lib_sw_operators.c ****       }
2124:Lib/AI_Runtime/Npu/ll_aton/ll_aton_lib_sw_operators.c ****     }
2125:Lib/AI_Runtime/Npu/ll_aton/ll_aton_lib_sw_operators.c ****   }
2126:Lib/AI_Runtime/Npu/ll_aton/ll_aton_lib_sw_operators.c ****   break;
2127:Lib/AI_Runtime/Npu/ll_aton/ll_aton_lib_sw_operators.c ****   case 4:
2128:Lib/AI_Runtime/Npu/ll_aton/ll_aton_lib_sw_operators.c ****   {
2129:Lib/AI_Runtime/Npu/ll_aton/ll_aton_lib_sw_operators.c ****     int32_t *ptr = (int32_t *)(int8_t *)output;
2130:Lib/AI_Runtime/Npu/ll_aton/ll_aton_lib_sw_operators.c ****     for (uint32_t i = 0; i < common_params.out_size / 4; i++)
2131:Lib/AI_Runtime/Npu/ll_aton/ll_aton_lib_sw_operators.c ****     {
2132:Lib/AI_Runtime/Npu/ll_aton/ll_aton_lib_sw_operators.c ****       LL_ATON_PRINTF("%d\n", ptr[i]);
2133:Lib/AI_Runtime/Npu/ll_aton/ll_aton_lib_sw_operators.c ****     }
2134:Lib/AI_Runtime/Npu/ll_aton/ll_aton_lib_sw_operators.c ****   }
2135:Lib/AI_Runtime/Npu/ll_aton/ll_aton_lib_sw_operators.c ****   break;
2136:Lib/AI_Runtime/Npu/ll_aton/ll_aton_lib_sw_operators.c ****   default:
2137:Lib/AI_Runtime/Npu/ll_aton/ll_aton_lib_sw_operators.c ****     LL_ATON_ASSERT(false);
2138:Lib/AI_Runtime/Npu/ll_aton/ll_aton_lib_sw_operators.c ****     break;
2139:Lib/AI_Runtime/Npu/ll_aton/ll_aton_lib_sw_operators.c ****   }
2140:Lib/AI_Runtime/Npu/ll_aton/ll_aton_lib_sw_operators.c **** #endif // DUMP_RESULTS_PAD_OP
2141:Lib/AI_Runtime/Npu/ll_aton/ll_aton_lib_sw_operators.c **** 
2142:Lib/AI_Runtime/Npu/ll_aton/ll_aton_lib_sw_operators.c ****   return LL_ATON_OK;
 8836              		.loc 1 2142 10 is_stmt 1
 8837 01b8 0023     		movs	r3, #0
 8838              	.L540:
2143:Lib/AI_Runtime/Npu/ll_aton/ll_aton_lib_sw_operators.c **** }
 8839              		.loc 1 2143 1
 8840 01ba 1846     		mov	r0, r3
 8841 01bc 7037     		adds	r7, r7, #112
 8842              		.cfi_def_cfa_offset 8
 8843 01be BD46     		mov	sp, r7
 8844              		.cfi_def_cfa_register 13
 8845              		@ sp needed
 8846 01c0 80BD     		pop	{r7, pc}
 8847              	.L542:
 8848 01c2 00BF     		.align	2
 8849              	.L541:
 8850 01c4 D0060000 		.word	.LC50
 8851 01c8 00000000 		.word	__func__.1
 8852 01cc 24000000 		.word	.LC1
 8853 01d0 DC060000 		.word	.LC51
 8854 01d4 00000000 		.word	__ll_aton_lib_pad_filling
 8855 01d8 00000000 		.word	__ll_aton_lib_pad_framing_sw
ARM GAS  /tmp/ccgnzMmM.s 			page 211


 8856 01dc 00000000 		.word	__FUNCTION__.0
 8857              		.cfi_endproc
 8858              	.LFE4890:
 8860              		.section	.rodata.__func__.31,"a"
 8861              		.align	2
 8864              	__func__.31:
 8865 0000 5F5F6C6C 		.ascii	"__ll_slice_get_input_and_output_base_pos\000"
 8865      5F736C69 
 8865      63655F67 
 8865      65745F69 
 8865      6E707574 
 8866              		.section	.rodata.__func__.30,"a"
 8867              		.align	2
 8870              	__func__.30:
 8871 0000 5F5F6C6C 		.ascii	"__ll_aton_lib_is_in_slice\000"
 8871      5F61746F 
 8871      6E5F6C69 
 8871      625F6973 
 8871      5F696E5F 
 8872              		.section	.rodata.__func__.29,"a"
 8873              		.align	2
 8876              	__func__.29:
 8877 0000 5F5F6C6C 		.ascii	"__ll_aton_lib_slice\000"
 8877      5F61746F 
 8877      6E5F6C69 
 8877      625F736C 
 8877      69636500 
 8878              		.section	.rodata.__func__.28,"a"
 8879              		.align	2
 8882              	__func__.28:
 8883 0000 5F5F6C6C 		.ascii	"__ll_aton_lib_copy_element\000"
 8883      5F61746F 
 8883      6E5F6C69 
 8883      625F636F 
 8883      70795F65 
 8884              		.section	.rodata.__FUNCTION__.27,"a"
 8885              		.align	2
 8888              	__FUNCTION__.27:
 8889 0000 4C4C5F41 		.ascii	"LL_ATON_LIB_Slice\000"
 8889      544F4E5F 
 8889      4C49425F 
 8889      536C6963 
 8889      6500
 8890              		.section	.rodata.__FUNCTION__.26,"a"
 8891              		.align	2
 8894              	__FUNCTION__.26:
 8895 0000 5F5F6C6C 		.ascii	"__ll_aton_lib_sw_outputs_flat_copy\000"
 8895      5F61746F 
 8895      6E5F6C69 
 8895      625F7377 
 8895      5F6F7574 
 8896              		.section	.rodata.__func__.25,"a"
 8897              		.align	2
 8900              	__func__.25:
 8901 0000 5F5F6C6C 		.ascii	"__ll_aton_lib_split_channel_batched\000"
 8901      5F61746F 
 8901      6E5F6C69 
ARM GAS  /tmp/ccgnzMmM.s 			page 212


 8901      625F7370 
 8901      6C69745F 
 8902              		.section	.rodata.__FUNCTION__.24,"a"
 8903              		.align	2
 8906              	__FUNCTION__.24:
 8907 0000 4C4C5F41 		.ascii	"LL_ATON_LIB_Split\000"
 8907      544F4E5F 
 8907      4C49425F 
 8907      53706C69 
 8907      7400
 8908              		.section	.rodata.__func__.23,"a"
 8909              		.align	2
 8912              	__func__.23:
 8913 0000 4C4C5F41 		.ascii	"LL_ATON_LIB_Split\000"
 8913      544F4E5F 
 8913      4C49425F 
 8913      53706C69 
 8913      7400
 8914              		.section	.rodata.__FUNCTION__.22,"a"
 8915              		.align	2
 8918              	__FUNCTION__.22:
 8919 0000 4C4C5F41 		.ascii	"LL_ATON_LIB_SW_SpaceToDepth\000"
 8919      544F4E5F 
 8919      4C49425F 
 8919      53575F53 
 8919      70616365 
 8920              		.section	.rodata.__FUNCTION__.21,"a"
 8921              		.align	2
 8924              	__FUNCTION__.21:
 8925 0000 4C4C5F41 		.ascii	"LL_ATON_LIB_SW_DepthToSpace\000"
 8925      544F4E5F 
 8925      4C49425F 
 8925      53575F44 
 8925      65707468 
 8926              		.section	.rodata.__func__.20,"a"
 8927              		.align	2
 8930              	__func__.20:
 8931 0000 5F5F6C6C 		.ascii	"__ll_transp_get_input_base_pos\000"
 8931      5F747261 
 8931      6E73705F 
 8931      6765745F 
 8931      696E7075 
 8932              		.section	.rodata.__func__.19,"a"
 8933              		.align	2
 8936              	__func__.19:
 8937 0000 5F5F6C6C 		.ascii	"__ll_aton_lib_transpose\000"
 8937      5F61746F 
 8937      6E5F6C69 
 8937      625F7472 
 8937      616E7370 
 8938              		.section	.rodata.__func__.18,"a"
 8939              		.align	2
 8942              	__func__.18:
 8943 0000 5F5F6C6C 		.ascii	"__ll_transp_get_output_base_pos\000"
 8943      5F747261 
 8943      6E73705F 
 8943      6765745F 
ARM GAS  /tmp/ccgnzMmM.s 			page 213


 8943      6F757470 
 8944              		.section	.rodata.__func__.17,"a"
 8945              		.align	2
 8948              	__func__.17:
 8949 0000 5F5F6C6C 		.ascii	"__ll_transp_find_input_index\000"
 8949      5F747261 
 8949      6E73705F 
 8949      66696E64 
 8949      5F696E70 
 8950              		.section	.rodata.__func__.16,"a"
 8951              		.align	2
 8954              	__func__.16:
 8955 0000 5F5F6C6C 		.ascii	"__ll_aton_lib_transpose_3or4\000"
 8955      5F61746F 
 8955      6E5F6C69 
 8955      625F7472 
 8955      616E7370 
 8956              		.section	.rodata.__func__.15,"a"
 8957              		.align	2
 8960              	__func__.15:
 8961 0000 5F5F6C6C 		.ascii	"__ll_transp_get_inner_out_axis\000"
 8961      5F747261 
 8961      6E73705F 
 8961      6765745F 
 8961      696E6E65 
 8962              		.section	.rodata.__func__.14,"a"
 8963              		.align	2
 8966              	__func__.14:
 8967 0000 5F5F6C6C 		.ascii	"__ll_transp_get_output_base_pos_3or4\000"
 8967      5F747261 
 8967      6E73705F 
 8967      6765745F 
 8967      6F757470 
 8968              		.section	.rodata.__FUNCTION__.13,"a"
 8969              		.align	2
 8972              	__FUNCTION__.13:
 8973 0000 4C4C5F41 		.ascii	"LL_ATON_LIB_Transpose\000"
 8973      544F4E5F 
 8973      4C49425F 
 8973      5472616E 
 8973      73706F73 
 8974              		.section	.rodata.__func__.12,"a"
 8975              		.align	2
 8978              	__func__.12:
 8979 0000 5F5F6C6C 		.ascii	"__ll_aton_lib_memset16\000"
 8979      5F61746F 
 8979      6E5F6C69 
 8979      625F6D65 
 8979      6D736574 
 8980              		.section	.rodata.__func__.11,"a"
 8981              		.align	2
 8984              	__func__.11:
 8985 0000 5F5F6C6C 		.ascii	"__ll_aton_lib_memset24\000"
 8985      5F61746F 
 8985      6E5F6C69 
 8985      625F6D65 
 8985      6D736574 
ARM GAS  /tmp/ccgnzMmM.s 			page 214


 8986              		.section	.rodata.__func__.10,"a"
 8987              		.align	2
 8990              	__func__.10:
 8991 0000 5F5F6C6C 		.ascii	"__ll_aton_lib_memset32\000"
 8991      5F61746F 
 8991      6E5F6C69 
 8991      625F6D65 
 8991      6D736574 
 8992              		.section	.rodata.__func__.9,"a"
 8993              		.align	2
 8996              	__func__.9:
 8997 0000 5F5F6C6C 		.ascii	"__ll_aton_lib_pad_filling_sw\000"
 8997      5F61746F 
 8997      6E5F6C69 
 8997      625F7061 
 8997      645F6669 
 8998              		.section	.rodata.__func__.8,"a"
 8999              		.align	2
 9002              	__func__.8:
 9003 0000 5F5F6C6C 		.ascii	"__ll_aton_lib_pad_reflect_sw\000"
 9003      5F61746F 
 9003      6E5F6C69 
 9003      625F7061 
 9003      645F7265 
 9004              		.section	.rodata.__func__.7,"a"
 9005              		.align	2
 9008              	__func__.7:
 9009 0000 5F5F6C6C 		.ascii	"__ll_aton_lib_reflect_inner_framing_sw\000"
 9009      5F61746F 
 9009      6E5F6C69 
 9009      625F7265 
 9009      666C6563 
 9010              		.section	.rodata.__func__.6,"a"
 9011              		.align	2
 9014              	__func__.6:
 9015 0000 5F5F6C6C 		.ascii	"__ll_aton_lib_pad_edge_sw\000"
 9015      5F61746F 
 9015      6E5F6C69 
 9015      625F7061 
 9015      645F6564 
 9016              		.section	.rodata.__func__.5,"a"
 9017              		.align	2
 9020              	__func__.5:
 9021 0000 5F5F6C6C 		.ascii	"__ll_aton_lib_memset\000"
 9021      5F61746F 
 9021      6E5F6C69 
 9021      625F6D65 
 9021      6D736574 
 9022              		.section	.rodata.__func__.4,"a"
 9023              		.align	2
 9026              	__func__.4:
 9027 0000 5F5F6C6C 		.ascii	"__ll_aton_lib_pad_filling\000"
 9027      5F61746F 
 9027      6E5F6C69 
 9027      625F7061 
 9027      645F6669 
 9028              		.section	.rodata.__func__.3,"a"
ARM GAS  /tmp/ccgnzMmM.s 			page 215


 9029              		.align	2
 9032              	__func__.3:
 9033 0000 5F5F6C6C 		.ascii	"__ll_aton_lib_pad_framing_sw\000"
 9033      5F61746F 
 9033      6E5F6C69 
 9033      625F7061 
 9033      645F6672 
 9034              		.section	.rodata.__FUNCTION__.2,"a"
 9035              		.align	2
 9038              	__FUNCTION__.2:
 9039 0000 5F5F6C6C 		.ascii	"__ll_aton_lib_pad_framing_sw\000"
 9039      5F61746F 
 9039      6E5F6C69 
 9039      625F7061 
 9039      645F6672 
 9040              		.section	.rodata.__func__.1,"a"
 9041              		.align	2
 9044              	__func__.1:
 9045 0000 4C4C5F41 		.ascii	"LL_ATON_LIB_Pad\000"
 9045      544F4E5F 
 9045      4C49425F 
 9045      50616400 
 9046              		.section	.rodata.__FUNCTION__.0,"a"
 9047              		.align	2
 9050              	__FUNCTION__.0:
 9051 0000 4C4C5F41 		.ascii	"LL_ATON_LIB_Pad\000"
 9051      544F4E5F 
 9051      4C49425F 
 9051      50616400 
 9052              		.text
 9053              	.Letext0:
 9054              		.file 4 "/home/tanjiajun2002/renesas/rzv/e2studio_v2025-01_fsp_v3.1.0/toolchains/gcc_arm/arm-gnu-t
 9055              		.file 5 "/home/tanjiajun2002/renesas/rzv/e2studio_v2025-01_fsp_v3.1.0/toolchains/gcc_arm/arm-gnu-t
 9056              		.file 6 "/home/tanjiajun2002/renesas/rzv/e2studio_v2025-01_fsp_v3.1.0/toolchains/gcc_arm/arm-gnu-t
 9057              		.file 7 "Lib/AI_Runtime/Npu/ll_aton/ll_aton_lib_sw_operators.h"
 9058              		.file 8 "Lib/AI_Runtime/Npu/ll_aton/ll_aton_lib.h"
 9059              		.file 9 "Lib/AI_Runtime/Npu/Devices/STM32N6XX/mcu_cache.h"
 9060              		.file 10 "/home/tanjiajun2002/renesas/rzv/e2studio_v2025-01_fsp_v3.1.0/toolchains/gcc_arm/arm-gnu-
 9061              		.file 11 "/home/tanjiajun2002/renesas/rzv/e2studio_v2025-01_fsp_v3.1.0/toolchains/gcc_arm/arm-gnu-
ARM GAS  /tmp/ccgnzMmM.s 			page 216


DEFINED SYMBOLS
                            *ABS*:00000000 ll_aton_lib_sw_operators.c
     /tmp/ccgnzMmM.s:26     .text.LL_Buffer_addr_base:00000000 $t
     /tmp/ccgnzMmM.s:31     .text.LL_Buffer_addr_base:00000000 LL_Buffer_addr_base
     /tmp/ccgnzMmM.s:83     .text.LL_Buffer_addr_start:00000000 $t
     /tmp/ccgnzMmM.s:88     .text.LL_Buffer_addr_start:00000000 LL_Buffer_addr_start
     /tmp/ccgnzMmM.s:124    .text.LL_Buffer_len:00000000 $t
     /tmp/ccgnzMmM.s:129    .text.LL_Buffer_len:00000000 LL_Buffer_len
     /tmp/ccgnzMmM.s:167    .text.LL_ATON_Cache_MCU_Clean_Range:00000000 $t
     /tmp/ccgnzMmM.s:172    .text.LL_ATON_Cache_MCU_Clean_Range:00000000 LL_ATON_Cache_MCU_Clean_Range
     /tmp/ccgnzMmM.s:208    .text.LL_ATON_Cache_MCU_Clean_Invalidate_Range:00000000 $t
     /tmp/ccgnzMmM.s:213    .text.LL_ATON_Cache_MCU_Clean_Invalidate_Range:00000000 LL_ATON_Cache_MCU_Clean_Invalidate_Range
     /tmp/ccgnzMmM.s:248    .rodata:00000000 $d
     /tmp/ccgnzMmM.s:268    .text.__ll_aton_lib_copy_element:00000000 $t
     /tmp/ccgnzMmM.s:273    .text.__ll_aton_lib_copy_element:00000000 __ll_aton_lib_copy_element
     /tmp/ccgnzMmM.s:301    .text.__ll_aton_lib_copy_element:00000020 $d
     /tmp/ccgnzMmM.s:305    .text.__ll_aton_lib_copy_element:00000030 $t
     /tmp/ccgnzMmM.s:438    .text.__ll_aton_lib_copy_element:000000f4 $d
     /tmp/ccgnzMmM.s:8882   .rodata.__func__.28:00000000 __func__.28
     /tmp/ccgnzMmM.s:449    .text.__ll_aton_lib_calc_offset:00000000 $t
     /tmp/ccgnzMmM.s:454    .text.__ll_aton_lib_calc_offset:00000000 __ll_aton_lib_calc_offset
     /tmp/ccgnzMmM.s:531    .text.__ll_aton_lib_is_in_slice:00000000 $t
     /tmp/ccgnzMmM.s:536    .text.__ll_aton_lib_is_in_slice:00000000 __ll_aton_lib_is_in_slice
     /tmp/ccgnzMmM.s:728    .text.__ll_aton_lib_is_in_slice:00000108 $d
     /tmp/ccgnzMmM.s:8870   .rodata.__func__.30:00000000 __func__.30
     /tmp/ccgnzMmM.s:747    .text.__ll_slice_get_input_and_output_base_pos:00000000 $t
     /tmp/ccgnzMmM.s:752    .text.__ll_slice_get_input_and_output_base_pos:00000000 __ll_slice_get_input_and_output_base_pos
     /tmp/ccgnzMmM.s:922    .text.__ll_slice_get_input_and_output_base_pos:000000e8 $d
     /tmp/ccgnzMmM.s:8864   .rodata.__func__.31:00000000 __func__.31
     /tmp/ccgnzMmM.s:931    .text.__ll_slice_copy_elem:00000000 $t
     /tmp/ccgnzMmM.s:936    .text.__ll_slice_copy_elem:00000000 __ll_slice_copy_elem
     /tmp/ccgnzMmM.s:1014   .text.__ll_aton_lib_slice:00000000 $t
     /tmp/ccgnzMmM.s:1019   .text.__ll_aton_lib_slice:00000000 __ll_aton_lib_slice
     /tmp/ccgnzMmM.s:1242   .text.__ll_aton_lib_slice:00000144 $d
     /tmp/ccgnzMmM.s:8876   .rodata.__func__.29:00000000 __func__.29
     /tmp/ccgnzMmM.s:1249   .text.LL_ATON_LIB_Slice:00000000 $t
     /tmp/ccgnzMmM.s:1255   .text.LL_ATON_LIB_Slice:00000000 LL_ATON_LIB_Slice
     /tmp/ccgnzMmM.s:1389   .text.LL_ATON_LIB_Slice:000000d0 $d
     /tmp/ccgnzMmM.s:8888   .rodata.__FUNCTION__.27:00000000 __FUNCTION__.27
     /tmp/ccgnzMmM.s:1394   .text.__ll_aton_lib_sw_outputs_flat_copy:00000000 $t
     /tmp/ccgnzMmM.s:1399   .text.__ll_aton_lib_sw_outputs_flat_copy:00000000 __ll_aton_lib_sw_outputs_flat_copy
     /tmp/ccgnzMmM.s:1611   .text.__ll_aton_lib_sw_outputs_flat_copy:00000130 $d
     /tmp/ccgnzMmM.s:8894   .rodata.__FUNCTION__.26:00000000 __FUNCTION__.26
     /tmp/ccgnzMmM.s:1616   .rodata.aton_lut:00000000 $d
     /tmp/ccgnzMmM.s:1619   .rodata.aton_lut:00000000 aton_lut
     /tmp/ccgnzMmM.s:1625   .rodata.onnx_lut:00000000 $d
     /tmp/ccgnzMmM.s:1628   .rodata.onnx_lut:00000000 onnx_lut
     /tmp/ccgnzMmM.s:1634   .text.__ll_aton_lib_split_aton_canonical:00000000 $t
     /tmp/ccgnzMmM.s:1639   .text.__ll_aton_lib_split_aton_canonical:00000000 __ll_aton_lib_split_aton_canonical
     /tmp/ccgnzMmM.s:1894   .text.__ll_aton_lib_split_aton_canonical:00000164 $d
     /tmp/ccgnzMmM.s:1900   .text.__ll_aton_lib_split_onnx_canonical:00000000 $t
     /tmp/ccgnzMmM.s:1905   .text.__ll_aton_lib_split_onnx_canonical:00000000 __ll_aton_lib_split_onnx_canonical
     /tmp/ccgnzMmM.s:2118   .text.__ll_aton_lib_split_channel_batched:00000000 $t
     /tmp/ccgnzMmM.s:2123   .text.__ll_aton_lib_split_channel_batched:00000000 __ll_aton_lib_split_channel_batched
     /tmp/ccgnzMmM.s:2455   .text.__ll_aton_lib_split_channel_batched:000001f4 $d
     /tmp/ccgnzMmM.s:8900   .rodata.__func__.25:00000000 __func__.25
     /tmp/ccgnzMmM.s:2478   .text.LL_ATON_LIB_Split:00000000 $t
ARM GAS  /tmp/ccgnzMmM.s 			page 217


     /tmp/ccgnzMmM.s:2484   .text.LL_ATON_LIB_Split:00000000 LL_ATON_LIB_Split
     /tmp/ccgnzMmM.s:2655   .text.LL_ATON_LIB_Split:00000128 $d
     /tmp/ccgnzMmM.s:2659   .text.LL_ATON_LIB_Split:00000138 $t
     /tmp/ccgnzMmM.s:2855   .text.LL_ATON_LIB_Split:00000298 $d
     /tmp/ccgnzMmM.s:8906   .rodata.__FUNCTION__.24:00000000 __FUNCTION__.24
     /tmp/ccgnzMmM.s:8912   .rodata.__func__.23:00000000 __func__.23
     /tmp/ccgnzMmM.s:2864   .text.LL_ATON_LIB_Split:000002b4 $t
     /tmp/ccgnzMmM.s:3017   .text.LL_ATON_LIB_Split:000003b8 $d
     /tmp/ccgnzMmM.s:3028   .text.LL_ATON_LIB_SW_SpaceToDepth:00000000 $t
     /tmp/ccgnzMmM.s:3034   .text.LL_ATON_LIB_SW_SpaceToDepth:00000000 LL_ATON_LIB_SW_SpaceToDepth
     /tmp/ccgnzMmM.s:3385   .text.LL_ATON_LIB_SW_SpaceToDepth:0000021c $d
     /tmp/ccgnzMmM.s:8918   .rodata.__FUNCTION__.22:00000000 __FUNCTION__.22
     /tmp/ccgnzMmM.s:3390   .text.LL_ATON_LIB_SW_DepthToSpace:00000000 $t
     /tmp/ccgnzMmM.s:3396   .text.LL_ATON_LIB_SW_DepthToSpace:00000000 LL_ATON_LIB_SW_DepthToSpace
     /tmp/ccgnzMmM.s:3811   .text.LL_ATON_LIB_SW_DepthToSpace:000002c8 $d
     /tmp/ccgnzMmM.s:8924   .rodata.__FUNCTION__.21:00000000 __FUNCTION__.21
     /tmp/ccgnzMmM.s:3815   .text.LL_ATON_LIB_SW_DepthToSpace:000002cc $t
     /tmp/ccgnzMmM.s:3967   .text.__ll_transp_find_input_index:00000000 $t
     /tmp/ccgnzMmM.s:3972   .text.__ll_transp_find_input_index:00000000 __ll_transp_find_input_index
     /tmp/ccgnzMmM.s:4038   .text.__ll_transp_find_input_index:0000004c $d
     /tmp/ccgnzMmM.s:8948   .rodata.__func__.17:00000000 __func__.17
     /tmp/ccgnzMmM.s:4045   .text.__ll_transp_get_output_base_pos:00000000 $t
     /tmp/ccgnzMmM.s:4050   .text.__ll_transp_get_output_base_pos:00000000 __ll_transp_get_output_base_pos
     /tmp/ccgnzMmM.s:4154   .text.__ll_transp_get_output_base_pos:00000080 $d
     /tmp/ccgnzMmM.s:8942   .rodata.__func__.18:00000000 __func__.18
     /tmp/ccgnzMmM.s:4169   .text.__ll_transp_get_input_base_pos:00000000 $t
     /tmp/ccgnzMmM.s:4174   .text.__ll_transp_get_input_base_pos:00000000 __ll_transp_get_input_base_pos
     /tmp/ccgnzMmM.s:4290   .text.__ll_transp_get_input_base_pos:0000009c $d
     /tmp/ccgnzMmM.s:8930   .rodata.__func__.20:00000000 __func__.20
     /tmp/ccgnzMmM.s:4303   .text.__ll_aton_lib_transpose:00000000 $t
     /tmp/ccgnzMmM.s:4308   .text.__ll_aton_lib_transpose:00000000 __ll_aton_lib_transpose
     /tmp/ccgnzMmM.s:4533   .text.__ll_aton_lib_transpose:00000140 $d
     /tmp/ccgnzMmM.s:8936   .rodata.__func__.19:00000000 __func__.19
     /tmp/ccgnzMmM.s:4540   .text.__ll_transp_find_input_index_3or4:00000000 $t
     /tmp/ccgnzMmM.s:4545   .text.__ll_transp_find_input_index_3or4:00000000 __ll_transp_find_input_index_3or4
     /tmp/ccgnzMmM.s:4595   .text.__ll_transp_get_output_base_pos_3or4:00000000 $t
     /tmp/ccgnzMmM.s:4600   .text.__ll_transp_get_output_base_pos_3or4:00000000 __ll_transp_get_output_base_pos_3or4
     /tmp/ccgnzMmM.s:4712   .text.__ll_transp_get_output_base_pos_3or4:00000090 $d
     /tmp/ccgnzMmM.s:8966   .rodata.__func__.14:00000000 __func__.14
     /tmp/ccgnzMmM.s:4719   .text.__ll_transp_get_input_base_pos_3or4:00000000 $t
     /tmp/ccgnzMmM.s:4724   .text.__ll_transp_get_input_base_pos_3or4:00000000 __ll_transp_get_input_base_pos_3or4
     /tmp/ccgnzMmM.s:4808   .text.__ll_transp_get_inner_out_axis:00000000 $t
     /tmp/ccgnzMmM.s:4813   .text.__ll_transp_get_inner_out_axis:00000000 __ll_transp_get_inner_out_axis
     /tmp/ccgnzMmM.s:4887   .text.__ll_transp_get_inner_out_axis:00000050 $d
     /tmp/ccgnzMmM.s:8960   .rodata.__func__.15:00000000 __func__.15
     /tmp/ccgnzMmM.s:4899   .text.__ll_aton_lib_transpose_3or4:00000000 $t
     /tmp/ccgnzMmM.s:4904   .text.__ll_aton_lib_transpose_3or4:00000000 __ll_aton_lib_transpose_3or4
     /tmp/ccgnzMmM.s:5211   .text.__ll_aton_lib_transpose_3or4:0000018c $d
     /tmp/ccgnzMmM.s:8954   .rodata.__func__.16:00000000 __func__.16
     /tmp/ccgnzMmM.s:5218   .text.LL_ATON_LIB_Transpose:00000000 $t
     /tmp/ccgnzMmM.s:5224   .text.LL_ATON_LIB_Transpose:00000000 LL_ATON_LIB_Transpose
     /tmp/ccgnzMmM.s:5395   .text.LL_ATON_LIB_Transpose:0000010c $d
     /tmp/ccgnzMmM.s:8972   .rodata.__FUNCTION__.13:00000000 __FUNCTION__.13
     /tmp/ccgnzMmM.s:5413   .text.__ll_aton_lib_memset16:00000000 $t
     /tmp/ccgnzMmM.s:5418   .text.__ll_aton_lib_memset16:00000000 __ll_aton_lib_memset16
     /tmp/ccgnzMmM.s:5594   .text.__ll_aton_lib_memset16:000000fc $d
     /tmp/ccgnzMmM.s:8978   .rodata.__func__.12:00000000 __func__.12
ARM GAS  /tmp/ccgnzMmM.s 			page 218


     /tmp/ccgnzMmM.s:5608   .text.__ll_aton_lib_memset24:00000000 $t
     /tmp/ccgnzMmM.s:5613   .text.__ll_aton_lib_memset24:00000000 __ll_aton_lib_memset24
     /tmp/ccgnzMmM.s:5717   .text.__ll_aton_lib_memset24:00000088 $d
     /tmp/ccgnzMmM.s:8984   .rodata.__func__.11:00000000 __func__.11
     /tmp/ccgnzMmM.s:5729   .text.__ll_aton_lib_memset32:00000000 $t
     /tmp/ccgnzMmM.s:5734   .text.__ll_aton_lib_memset32:00000000 __ll_aton_lib_memset32
     /tmp/ccgnzMmM.s:5821   .text.__ll_aton_lib_memset32:00000070 $d
     /tmp/ccgnzMmM.s:8990   .rodata.__func__.10:00000000 __func__.10
     /tmp/ccgnzMmM.s:5829   .text.__ll_aton_lib_memset:00000000 $t
     /tmp/ccgnzMmM.s:5834   .text.__ll_aton_lib_memset:00000000 __ll_aton_lib_memset
     /tmp/ccgnzMmM.s:5866   .text.__ll_aton_lib_memset:00000024 $d
     /tmp/ccgnzMmM.s:5870   .text.__ll_aton_lib_memset:00000034 $t
     /tmp/ccgnzMmM.s:5927   .text.__ll_aton_lib_memset:00000088 $d
     /tmp/ccgnzMmM.s:9020   .rodata.__func__.5:00000000 __func__.5
     /tmp/ccgnzMmM.s:5934   .text.zero_neg:00000000 $t
     /tmp/ccgnzMmM.s:5939   .text.zero_neg:00000000 zero_neg
     /tmp/ccgnzMmM.s:6010   .text.__ll_aton_lib_reflect_inner_framing_sw:00000000 $t
     /tmp/ccgnzMmM.s:6015   .text.__ll_aton_lib_reflect_inner_framing_sw:00000000 __ll_aton_lib_reflect_inner_framing_sw
     /tmp/ccgnzMmM.s:6448   .text.__ll_aton_lib_reflect_inner_framing_sw:00000270 $d
     /tmp/ccgnzMmM.s:9008   .rodata.__func__.7:00000000 __func__.7
     /tmp/ccgnzMmM.s:6463   .text.__ll_aton_lib_edge_framing_sw:00000000 $t
     /tmp/ccgnzMmM.s:6468   .text.__ll_aton_lib_edge_framing_sw:00000000 __ll_aton_lib_edge_framing_sw
     /tmp/ccgnzMmM.s:6514   .text.__ll_aton_lib_pad_filling_sw:00000000 $t
     /tmp/ccgnzMmM.s:6519   .text.__ll_aton_lib_pad_filling_sw:00000000 __ll_aton_lib_pad_filling_sw
     /tmp/ccgnzMmM.s:6767   .text.__ll_aton_lib_pad_filling_sw:0000015c $d
     /tmp/ccgnzMmM.s:8996   .rodata.__func__.9:00000000 __func__.9
     /tmp/ccgnzMmM.s:6796   .text.__ll_aton_lib_pad_reflect_sw:00000000 $t
     /tmp/ccgnzMmM.s:6801   .text.__ll_aton_lib_pad_reflect_sw:00000000 __ll_aton_lib_pad_reflect_sw
     /tmp/ccgnzMmM.s:7202   .text.__ll_aton_lib_pad_reflect_sw:00000260 $d
     /tmp/ccgnzMmM.s:9002   .rodata.__func__.8:00000000 __func__.8
     /tmp/ccgnzMmM.s:7213   .text.__ll_aton_lib_pad_reflect_sw:00000284 $t
     /tmp/ccgnzMmM.s:7713   .text.__ll_aton_lib_pad_reflect_sw:00000558 $d
     /tmp/ccgnzMmM.s:7724   .text.__ll_aton_lib_pad_edge_sw:00000000 $t
     /tmp/ccgnzMmM.s:7729   .text.__ll_aton_lib_pad_edge_sw:00000000 __ll_aton_lib_pad_edge_sw
     /tmp/ccgnzMmM.s:8161   .text.__ll_aton_lib_pad_edge_sw:00000268 $d
     /tmp/ccgnzMmM.s:9014   .rodata.__func__.6:00000000 __func__.6
     /tmp/ccgnzMmM.s:8167   .text.__ll_aton_lib_pad_edge_sw:00000278 $t
     /tmp/ccgnzMmM.s:8258   .text.__ll_aton_lib_pad_edge_sw:000002fc $d
     /tmp/ccgnzMmM.s:8269   .text.__ll_aton_lib_pad_filling:00000000 $t
     /tmp/ccgnzMmM.s:8274   .text.__ll_aton_lib_pad_filling:00000000 __ll_aton_lib_pad_filling
     /tmp/ccgnzMmM.s:8438   .text.__ll_aton_lib_pad_filling:000000cc $d
     /tmp/ccgnzMmM.s:9026   .rodata.__func__.4:00000000 __func__.4
     /tmp/ccgnzMmM.s:8450   .text.__ll_aton_lib_pad_framing_sw:00000000 $t
     /tmp/ccgnzMmM.s:8455   .text.__ll_aton_lib_pad_framing_sw:00000000 __ll_aton_lib_pad_framing_sw
     /tmp/ccgnzMmM.s:8588   .text.__ll_aton_lib_pad_framing_sw:000000b0 $d
     /tmp/ccgnzMmM.s:9032   .rodata.__func__.3:00000000 __func__.3
     /tmp/ccgnzMmM.s:9038   .rodata.__FUNCTION__.2:00000000 __FUNCTION__.2
     /tmp/ccgnzMmM.s:8605   .text.LL_ATON_LIB_Pad:00000000 $t
     /tmp/ccgnzMmM.s:8611   .text.LL_ATON_LIB_Pad:00000000 LL_ATON_LIB_Pad
     /tmp/ccgnzMmM.s:8850   .text.LL_ATON_LIB_Pad:000001c4 $d
     /tmp/ccgnzMmM.s:9044   .rodata.__func__.1:00000000 __func__.1
     /tmp/ccgnzMmM.s:9050   .rodata.__FUNCTION__.0:00000000 __FUNCTION__.0
     /tmp/ccgnzMmM.s:8861   .rodata.__func__.31:00000000 $d
     /tmp/ccgnzMmM.s:8867   .rodata.__func__.30:00000000 $d
     /tmp/ccgnzMmM.s:8873   .rodata.__func__.29:00000000 $d
     /tmp/ccgnzMmM.s:8879   .rodata.__func__.28:00000000 $d
     /tmp/ccgnzMmM.s:8885   .rodata.__FUNCTION__.27:00000000 $d
ARM GAS  /tmp/ccgnzMmM.s 			page 219


     /tmp/ccgnzMmM.s:8891   .rodata.__FUNCTION__.26:00000000 $d
     /tmp/ccgnzMmM.s:8897   .rodata.__func__.25:00000000 $d
     /tmp/ccgnzMmM.s:8903   .rodata.__FUNCTION__.24:00000000 $d
     /tmp/ccgnzMmM.s:8909   .rodata.__func__.23:00000000 $d
     /tmp/ccgnzMmM.s:8915   .rodata.__FUNCTION__.22:00000000 $d
     /tmp/ccgnzMmM.s:8921   .rodata.__FUNCTION__.21:00000000 $d
     /tmp/ccgnzMmM.s:8927   .rodata.__func__.20:00000000 $d
     /tmp/ccgnzMmM.s:8933   .rodata.__func__.19:00000000 $d
     /tmp/ccgnzMmM.s:8939   .rodata.__func__.18:00000000 $d
     /tmp/ccgnzMmM.s:8945   .rodata.__func__.17:00000000 $d
     /tmp/ccgnzMmM.s:8951   .rodata.__func__.16:00000000 $d
     /tmp/ccgnzMmM.s:8957   .rodata.__func__.15:00000000 $d
     /tmp/ccgnzMmM.s:8963   .rodata.__func__.14:00000000 $d
     /tmp/ccgnzMmM.s:8969   .rodata.__FUNCTION__.13:00000000 $d
     /tmp/ccgnzMmM.s:8975   .rodata.__func__.12:00000000 $d
     /tmp/ccgnzMmM.s:8981   .rodata.__func__.11:00000000 $d
     /tmp/ccgnzMmM.s:8987   .rodata.__func__.10:00000000 $d
     /tmp/ccgnzMmM.s:8993   .rodata.__func__.9:00000000 $d
     /tmp/ccgnzMmM.s:8999   .rodata.__func__.8:00000000 $d
     /tmp/ccgnzMmM.s:9005   .rodata.__func__.7:00000000 $d
     /tmp/ccgnzMmM.s:9011   .rodata.__func__.6:00000000 $d
     /tmp/ccgnzMmM.s:9017   .rodata.__func__.5:00000000 $d
     /tmp/ccgnzMmM.s:9023   .rodata.__func__.4:00000000 $d
     /tmp/ccgnzMmM.s:9029   .rodata.__func__.3:00000000 $d
     /tmp/ccgnzMmM.s:9035   .rodata.__FUNCTION__.2:00000000 $d
     /tmp/ccgnzMmM.s:9041   .rodata.__func__.1:00000000 $d
     /tmp/ccgnzMmM.s:9047   .rodata.__FUNCTION__.0:00000000 $d
                           .group:00000000 wm4.0.2a10773746a5c5ebb5552f50e466f80b
                           .group:00000000 wm4._newlib_version.h.4.411db44ea2338a62eca2f0777f81481b
                           .group:00000000 wm4.newlib.h.27.4b972ceed5d01f491020c20f1e546cab
                           .group:00000000 wm4.ieeefp.h.77.bd5feb87d9990dd328793ced294f6a87
                           .group:00000000 wm4.features.h.22.9dfb1293666eb4caf24cccb81c86a551
                           .group:00000000 wm4.config.h.224.10ee1ad185d877c6e334e6581faab44d
                           .group:00000000 wm4._intsup.h.10.48bafbb683905c4daa4565a85aeeb264
                           .group:00000000 wm4._ansi.h.8.aeadd4934928258a76627d21910677e3
                           .group:00000000 wm4._default_types.h.6.959254cf5f09734ea7516c89e8bb21bd
                           .group:00000000 wm4._stdint.h.10.c24fa3af3bc1706662bb5593a907e841
                           .group:00000000 wm4.stdint.h.23.d53047a68f4a85177f80b422d52785ed
                           .group:00000000 wm4.stddef.h.267.6dda48f8b0edf141523347999dd9ec79
                           .group:00000000 wm4.inttypes.h.28.684aa7736e7ecc9a6ffc44acc61c7a90
                           .group:00000000 wm4.stdbool.h.29.c08aa3eec75cf5b9b5003883f43253f0
                           .group:00000000 wm4.assert.h.11.db24e541f16414db224bf986d21017e2
                           .group:00000000 wm4.errno.h.2.ba016d646105af6cad23be83630b6a3f
                           .group:00000000 wm4.stddef.h.39.9af043fe601e315768567300ad642a8e
                           .group:00000000 wm4.cdefs.h.49.70fc7af612f78ddcace70fdd90b5623b
                           .group:00000000 wm4._types.h.20.dd0d04dca3800a0d2a6129b87f3adbb2
                           .group:00000000 wm4.stddef.h.158.6f8e08a347b1cff664332fa350bfceb3
                           .group:00000000 wm4._types.h.127.3bdfe3ff8ea2d0985b03d9cbe93480e3
                           .group:00000000 wm4.reent.h.18.25503cdc8b7e55dd0d6ea7b3e5af7a03
                           .group:00000000 wm4.lock.h.2.1461d1fff82dffe8bfddc23307f6484f
                           .group:00000000 wm4.reent.h.78.6b87466b04591b1f1cb88c14fdf2ba9e
                           .group:00000000 wm4.errno.h.18.87873c1c5b242e8a4fdc43daa9aad824
                           .group:00000000 wm4.stdio.h.27.3fc80220048df77954e38daec3bb9670
                           .group:00000000 wm4.stddef.h.158.eec8bf00b5213f43d095cb984c5f22e3
                           .group:00000000 wm4.stdarg.h.34.3a23a216c0c293b3d2ea2e89281481e6
                           .group:00000000 wm4.stdio.h.47.dc31ec4674d7bcb103c9f08809549f45
                           .group:00000000 wm4.stdio.h.2.4aa87247282eca6c8f36f9de33d8df1a
ARM GAS  /tmp/ccgnzMmM.s 			page 220


                           .group:00000000 wm4.stdio.h.87.a1e20d2651f9bfb66e51bfbe849db00a
                           .group:00000000 wm4.ll_aton_util.h.34.9098eaa90d3d72b819973556e3e5fe44
                           .group:00000000 wm4.assert.h.11.d99a111e320bc5106fc4046225782672
                           .group:00000000 wm4.ll_aton_attributes.h.20.26d469460cb32db5740effdc8cc403f3
                           .group:00000000 wm4.ll_aton_config.h.20.79eb8be0291ee9086e6be08969d61846
                           .group:00000000 wm4.FreeRTOS.h.59.647b1b0da38e4e98108aae13c8abe9ee
                           .group:00000000 wm4.FreeRTOSConfig.h.59.2629c72cff9e6dbe880a2dc225eae516
                           .group:00000000 wm4.FreeRTOS.h.80.7742fabaf5accf3762dc12f7f259a8a0
                           .group:00000000 wm4.projdefs.h.30.55a824156f299c075c33148a9fdadb99
                           .group:00000000 wm4.portmacro.h.30.cbb4b2da41f551c2a9904f0d03a1ce3e
                           .group:00000000 wm4.portmacrocommon.h.30.d5cb67896ab50a95311be7e023da5c4f
                           .group:00000000 wm4.portmacro.h.68.4051ecf710d074fb55b16d91dfebeeaa
                           .group:00000000 wm4.portable.h.61.d557c57974d490f056246a26cdcddd6c
                           .group:00000000 wm4.mpu_wrappers.h.30.ccc5f1a6903f941a88c268f5f62af3fe
                           .group:00000000 wm4.portable.h.189.522b8bd52a171d3fd1432ef06d0caa63
                           .group:00000000 wm4.FreeRTOS.h.102.fb871f3e464d99c5a57b3115545a02ad
                           .group:00000000 wm4.list.h.59.bce6419520cd4f5f98779a1530bf2118
                           .group:00000000 wm4.task.h.56.84290139c73b47f5b9aac361361a2a31
                           .group:00000000 wm4.queue.h.68.219f47fba8b59640449b84d04c5bd6d8
                           .group:00000000 wm4.semphr.h.40.c1a9c6f5bf0feb4da0b6a45d234a79d0
                           .group:00000000 wm4.ll_aton_platform.h.20.06ded592ee586a6abb6019a90ebd54df
                           .group:00000000 wm4.stm32n6xx_hal_conf.h.21.004a06df6e15ac197e03f723792da58a
                           .group:00000000 wm4.arm_cmse.h.103.a0d15a79c4c9a67da8d5831704d7248e
                           .group:00000000 wm4.stm32n6xx.h.34.80585dd08aa426c932f6311fdb7386da
                           .group:00000000 wm4.stm32n657xx.h.26.acd272cb67318cc1a4791ce2f0720ca6
                           .group:00000000 wm4.cmsis_version.h.32.0ac195c83bb4537824e6ad1c47474b79
                           .group:00000000 wm4.core_cm55.h.68.832d5cf835639cc0d28219c3d2867330
                           .group:00000000 wm4.cmsis_gcc.h.26.7a5fd1a99dbedde687044a4433ab3e15
                           .group:00000000 wm4.core_cm55.h.196.52e437a270752da561676e507b35baeb
                           .group:00000000 wm4.mpu_armv8.h.32.9d72426c8e2b47753456dcb84802c5b3
                           .group:00000000 wm4.pmu_armv8.h.32.eaa95f88a71b29390b135fd81c071b6b
                           .group:00000000 wm4.core_cm55.h.4411.860dad8650880893dd57b815844f7186
                           .group:00000000 wm4.cachel1_armv7.h.32.abd77761a989e008b0c60891114a33c7
                           .group:00000000 wm4.stm32n657xx.h.575.1c2a5e6bedffc6f9083dcc857bc6d09d
                           .group:00000000 wm4.stm32n6xx.h.114.5cf793d8af485e14f110e3e24bde1aa5
                           .group:00000000 wm4.stm32_hal_legacy.h.22.87fb12bf5a1a1e00fc134f22bc9aa8c4
                           .group:00000000 wm4.math.h.13.47cfc34cae8a1153323939c4d32cf7c2
                           .group:00000000 wm4.stm32n6xx_hal_def.h.63.2cbbf1954826c09c874c4e06e42e8b71
                           .group:00000000 wm4.stm32n6xx_ll_bus.h.38.2366a295ee4cdb04833997d3787fcd2d
                           .group:00000000 wm4.stm32n6xx_ll_rcc.h.21.002e22a16fd7f67dde6dce41e8ba9620
                           .group:00000000 wm4.stm32n6xx_hal_rcc.h.194.1cb1283e40f9bebcd3fba2a9a961838e
                           .group:00000000 wm4.stm32n6xx_hal_rcc_ex.h.21.79aa32178dfef625fbd20d362449acfa
                           .group:00000000 wm4.stm32n6xx_hal_rcc.h.4359.3f0b7ad33826d95438602c9aebc08af9
                           .group:00000000 wm4.stm32n6xx_hal_gpio.h.21.89d54af663b98eb8fc098192053f7eeb
                           .group:00000000 wm4.stm32n6xx_hal_gpio_ex.h.22.4acb2e3511a98bb48b81cfc8e09fd59e
                           .group:00000000 wm4.stm32n6xx_hal_rif.h.21.424d0bafb874a777dee3742a22e13037
                           .group:00000000 wm4.stm32n6xx_hal_dma.h.21.61e48c5c2e8d25d22177834b232fe45c
                           .group:00000000 wm4.stm32n6xx_hal_dma_ex.h.21.66e597beb090a165329d6ccf665e41bc
                           .group:00000000 wm4.stm32n6xx_hal_dma.h.1020.87e2180c009560b617c1f8208140c950
                           .group:00000000 wm4.stm32n6xx_hal_cortex.h.21.f493623cc58f9454ab4eae41e395c5cc
                           .group:00000000 wm4.stm32n6xx_hal_bsec.h.21.61b309e67dd810e28897a01b1b21a97f
                           .group:00000000 wm4.stm32n6xx_hal_dcmipp.h.21.f538bfd785c6469670251ac9bc7af55d
                           .group:00000000 wm4.stm32n6xx_hal_dma2d.h.21.75c8d46cdbb72970123b3f34ae2043d7
                           .group:00000000 wm4.stm32n6xx_hal_exti.h.21.fda87e715ea6b98239ec30171d1df594
                           .group:00000000 wm4.stm32n6xx_hal_gfxmmu.h.21.9784a9103143d48bd3c37389d0e0b8e6
                           .group:00000000 wm4.stm32n6xx_hal_i2c.h.21.3f483626ff64c5bf027265bb2e1d1331
                           .group:00000000 wm4.stm32n6xx_hal_i2c_ex.h.21.79e9196c22282cdaf6b4047893638c45
ARM GAS  /tmp/ccgnzMmM.s 			page 221


                           .group:00000000 wm4.stm32n6xx_hal_i2c.h.741.1084702632703acc669e4282b3043372
                           .group:00000000 wm4.stm32n6xx_hal_icache.h.21.194b4ec6e76f32b14f65c85616854850
                           .group:00000000 wm4.stm32n6xx_hal_ltdc.h.21.ae1eb09930e7e550e48e418ac5849e4d
                           .group:00000000 wm4.stm32n6xx_hal_ltdc.h.1002.b13ede7fc94ed5ad1c6768a157d2149a
                           .group:00000000 wm4.stm32n6xx_ll_usb.h.21.d518a5d97876c2ff49040c20a2c4a120
                           .group:00000000 wm4.stm32n6xx_hal_pcd.h.155.27040aac6844effe2af8c180caf1dd2e
                           .group:00000000 wm4.stm32n6xx_hal_pwr.h.21.cdb73e4869c3fed3fc84f901ec0e5f0a
                           .group:00000000 wm4.stm32n6xx_hal_pwr_ex.h.21.1a673224a58b0c1e5fad8eeda6514208
                           .group:00000000 wm4.stm32n6xx_hal_ramcfg.h.21.a62dfbb4d2c14e9a8c634a215e37bd3d
                           .group:00000000 wm4.stm32n6xx_hal_spi.h.21.9f810303326e2d91749800e9911f8e4d
                           .group:00000000 wm4.stm32n6xx_hal_spi.h.906.93ec0695066db4253cdbcb7d84358a0b
                           .group:00000000 wm4.stm32n6xx_hal_tim.h.21.839dd2b2a70382fb2c44f8f293a84d5f
                           .group:00000000 wm4.stm32n6xx_hal_tim_ex.h.21.e372d5ac63c13441211ea4ecbd353150
                           .group:00000000 wm4.stm32n6xx_hal_uart.h.21.230f549bfa0d5ebfd77bfb311b2aca15
                           .group:00000000 wm4.stm32n6xx_hal_uart_ex.h.21.a0d5511e1d0703b7b5278c8f5472b96d
                           .group:00000000 wm4.stm32n6xx_hal_xspi.h.21.e17898be2073b6b6b19faf30b4e304e9
                           .group:00000000 wm4.stm32n6xx_hal_cacheaxi.h.21.7c3375b7903ec42376e4883320997f74
                           .group:00000000 wm4.stm32n6xx_hal_gpu2d.h.21.48d0249122abad294a630c39cc4ebaed
                           .group:00000000 wm4.stm32n6xx_hal.h.81.5e59143eba07faca3e9aeaa5470826c8
                           .group:00000000 wm4.ll_aton_platform.h.288.664a74b8c5792a861b3d52bd39f4a693
                           .group:00000000 wm4.string.h.8.c4b8571ce60dff2817f43fec8b86aecd
                           .group:00000000 wm4.ATON.h.37.dcee5f05b79f32d0e17b499095b5b6b7
                           .group:00000000 wm4.ll_aton_rcompat.h.22.b2bd0d777466a5ac720f3b2429c5fea7
                           .group:00000000 wm4.ll_aton_platform.h.383.f09ccd502bb682b863f991d963ee7462
                           .group:00000000 wm4.ll_aton_osal_freertos.h.62.85a065f77def7f6fef26149f92fe1378
                           .group:00000000 wm4.ll_aton_osal.h.116.bc018513feb9b28713cf2afc78ec679b
                           .group:00000000 wm4.ll_aton.h.44.5685a802724af92628aa008d262f8f6e
                           .group:00000000 wm4.ll_aton_lib_sw_operators.h.34.417f475bd650d85d65972ccc759808dc
                           .group:00000000 wm4.ll_aton_lib.h.33.2ca3d5f5a0e4f006775a58c614fcd025
                           .group:00000000 wm4.stdlib.h.13.4ed386f5c1a80d71e72172885d946ef2
                           .group:00000000 wm4.alloca.h.8.dfc0c703c47ec3e69746825b17d9e66d
                           .group:00000000 wm4.stdlib.h.56.f4862cfbf4363a1db01842d5bdf72c18
                           .group:00000000 wm4.ll_aton_rt_user_api.h.21.7d988962cc684b649164cf89f2afbf08

UNDEFINED SYMBOLS
mcu_cache_clean_range
mcu_cache_clean_invalidate_range
__assert_func
__ll_lib_error
memcpy
LL_ATON_LIB_DMA_Outputs_Channel_Split_Aton
LL_ATON_LIB_DMA_Outputs_Channel_Split_Batched
LL_ATON_LIB_DMA_Outputs_Flat_Copy
memset
LL_ATON_LIB_DMA_Pad_Filling
__ll_current_aton_ip_owner
LL_ATON_LIB_DMA_Pad_Memset
