ARM GAS  /tmp/ccgnzMmM.s 			page 1


   1              		.arch armv8.1-m.main
   2              		.fpu fpv5-d16
   3              		.arch_extension dsp
   4              		.arch_extension fp
   5              		.arch_extension fp.dp
   6              		.arch_extension mve
   7              		.arch_extension mve.fp
   8              		.eabi_attribute 5, "cortex-m55"
   9              		.eabi_attribute 28, 1
  10              		.eabi_attribute 20, 1
  11              		.eabi_attribute 21, 1
  12              		.eabi_attribute 23, 3
  13              		.eabi_attribute 24, 1
  14              		.eabi_attribute 25, 1
  15              		.eabi_attribute 26, 1
  16              		.eabi_attribute 30, 6
  17              		.eabi_attribute 34, 1
  18              		.eabi_attribute 38, 1
  19              		.eabi_attribute 18, 4
  20              		.file	"ll_aton_lib_sw_operators.c"
  21              		.text
  22              	.Ltext0:
  23              		.cfi_sections	.debug_frame
  24              		.file 1 "Lib/AI_Runtime/Npu/ll_aton/ll_aton_lib_sw_operators.c"
  25              		.section	.text.LL_Buffer_addr_base,"ax",%progbits
  26              		.align	1
  27              		.syntax unified
  28              		.thumb
  29              		.thumb_func
  31              	LL_Buffer_addr_base:
  32              	.LFB4825:
  33              		.file 2 "Lib/AI_Runtime/Npu/ll_aton/ll_aton_NN_interface.h"
   1:Lib/AI_Runtime/Npu/ll_aton/ll_aton_NN_interface.h **** /**
   2:Lib/AI_Runtime/Npu/ll_aton/ll_aton_NN_interface.h ****  ******************************************************************************
   3:Lib/AI_Runtime/Npu/ll_aton/ll_aton_NN_interface.h ****  * @file    ll_aton_NN_interface.h
   4:Lib/AI_Runtime/Npu/ll_aton/ll_aton_NN_interface.h ****  * @author  SRA Artificial Intelligence & Embedded Architectures
   5:Lib/AI_Runtime/Npu/ll_aton/ll_aton_NN_interface.h ****  * @brief   Interface that defines a NN generated by the AtoNN Compiler.
   6:Lib/AI_Runtime/Npu/ll_aton/ll_aton_NN_interface.h ****  ******************************************************************************
   7:Lib/AI_Runtime/Npu/ll_aton/ll_aton_NN_interface.h ****  * @attention
   8:Lib/AI_Runtime/Npu/ll_aton/ll_aton_NN_interface.h ****  *
   9:Lib/AI_Runtime/Npu/ll_aton/ll_aton_NN_interface.h ****  * Copyright (c) 2024 STMicroelectronics.
  10:Lib/AI_Runtime/Npu/ll_aton/ll_aton_NN_interface.h ****  * All rights reserved.
  11:Lib/AI_Runtime/Npu/ll_aton/ll_aton_NN_interface.h ****  *
  12:Lib/AI_Runtime/Npu/ll_aton/ll_aton_NN_interface.h ****  * This software is licensed under terms that can be found in the LICENSE file
  13:Lib/AI_Runtime/Npu/ll_aton/ll_aton_NN_interface.h ****  * in the root directory of this software component.
  14:Lib/AI_Runtime/Npu/ll_aton/ll_aton_NN_interface.h ****  * If no LICENSE file comes with this software, it is provided AS-IS.
  15:Lib/AI_Runtime/Npu/ll_aton/ll_aton_NN_interface.h ****  *
  16:Lib/AI_Runtime/Npu/ll_aton/ll_aton_NN_interface.h ****  ******************************************************************************
  17:Lib/AI_Runtime/Npu/ll_aton/ll_aton_NN_interface.h ****  */
  18:Lib/AI_Runtime/Npu/ll_aton/ll_aton_NN_interface.h **** 
  19:Lib/AI_Runtime/Npu/ll_aton/ll_aton_NN_interface.h **** #ifndef __LL_ATON_NN_INTERFACE_H
  20:Lib/AI_Runtime/Npu/ll_aton/ll_aton_NN_interface.h **** #define __LL_ATON_NN_INTERFACE_H
  21:Lib/AI_Runtime/Npu/ll_aton/ll_aton_NN_interface.h **** 
  22:Lib/AI_Runtime/Npu/ll_aton/ll_aton_NN_interface.h **** #ifdef __cplusplus
  23:Lib/AI_Runtime/Npu/ll_aton/ll_aton_NN_interface.h **** extern "C"
  24:Lib/AI_Runtime/Npu/ll_aton/ll_aton_NN_interface.h **** {
  25:Lib/AI_Runtime/Npu/ll_aton/ll_aton_NN_interface.h **** #endif
ARM GAS  /tmp/ccgnzMmM.s 			page 2


  26:Lib/AI_Runtime/Npu/ll_aton/ll_aton_NN_interface.h **** 
  27:Lib/AI_Runtime/Npu/ll_aton/ll_aton_NN_interface.h **** #include <assert.h>
  28:Lib/AI_Runtime/Npu/ll_aton/ll_aton_NN_interface.h **** #include <stdbool.h>
  29:Lib/AI_Runtime/Npu/ll_aton/ll_aton_NN_interface.h **** #include <stddef.h>
  30:Lib/AI_Runtime/Npu/ll_aton/ll_aton_NN_interface.h **** #include <stdint.h>
  31:Lib/AI_Runtime/Npu/ll_aton/ll_aton_NN_interface.h **** 
  32:Lib/AI_Runtime/Npu/ll_aton/ll_aton_NN_interface.h **** #include "ll_aton_config.h"
  33:Lib/AI_Runtime/Npu/ll_aton/ll_aton_NN_interface.h **** 
  34:Lib/AI_Runtime/Npu/ll_aton/ll_aton_NN_interface.h **** #include "ll_aton_attributes.h"
  35:Lib/AI_Runtime/Npu/ll_aton/ll_aton_NN_interface.h **** #include "ll_aton_util.h"
  36:Lib/AI_Runtime/Npu/ll_aton/ll_aton_NN_interface.h **** 
  37:Lib/AI_Runtime/Npu/ll_aton/ll_aton_NN_interface.h ****   /** @defgroup User I/O Return Values & Callback Event Types
  38:Lib/AI_Runtime/Npu/ll_aton/ll_aton_NN_interface.h ****    * @{
  39:Lib/AI_Runtime/Npu/ll_aton/ll_aton_NN_interface.h ****    */
  40:Lib/AI_Runtime/Npu/ll_aton/ll_aton_NN_interface.h **** 
  41:Lib/AI_Runtime/Npu/ll_aton/ll_aton_NN_interface.h ****   typedef enum LL_ATON_User_IO_Result
  42:Lib/AI_Runtime/Npu/ll_aton/ll_aton_NN_interface.h ****   {
  43:Lib/AI_Runtime/Npu/ll_aton/ll_aton_NN_interface.h ****     LL_ATON_User_IO_NOERROR,     /**< */
  44:Lib/AI_Runtime/Npu/ll_aton/ll_aton_NN_interface.h ****     LL_ATON_User_IO_WRONG_ALIGN, /**< */
  45:Lib/AI_Runtime/Npu/ll_aton/ll_aton_NN_interface.h ****     LL_ATON_User_IO_WRONG_SIZE,  /**< */
  46:Lib/AI_Runtime/Npu/ll_aton/ll_aton_NN_interface.h ****     LL_ATON_User_IO_WRONG_INDEX, /**< */
  47:Lib/AI_Runtime/Npu/ll_aton/ll_aton_NN_interface.h ****   } LL_ATON_User_IO_Result_t;
  48:Lib/AI_Runtime/Npu/ll_aton/ll_aton_NN_interface.h **** 
  49:Lib/AI_Runtime/Npu/ll_aton/ll_aton_NN_interface.h ****   typedef enum LL_ATON_RT_Callbacktype
  50:Lib/AI_Runtime/Npu/ll_aton/ll_aton_NN_interface.h ****   {
  51:Lib/AI_Runtime/Npu/ll_aton/ll_aton_NN_interface.h ****     LL_ATON_RT_Callbacktype_PRE_START,  /**< Callback called before start_epoch_block */
  52:Lib/AI_Runtime/Npu/ll_aton/ll_aton_NN_interface.h ****     LL_ATON_RT_Callbacktype_POST_START, /**< Callback called after start_epoch_block */
  53:Lib/AI_Runtime/Npu/ll_aton/ll_aton_NN_interface.h ****     LL_ATON_RT_Callbacktype_PRE_END,    /**< Callback called before end_epoch_block */
  54:Lib/AI_Runtime/Npu/ll_aton/ll_aton_NN_interface.h ****     LL_ATON_RT_Callbacktype_POST_END,   /**< Callback called after end_epoch_block */
  55:Lib/AI_Runtime/Npu/ll_aton/ll_aton_NN_interface.h ****     LL_ATON_RT_Callbacktype_NN_Init,    /**< Callback called after `LL_ATON_RT_Init_Network`,
  56:Lib/AI_Runtime/Npu/ll_aton/ll_aton_NN_interface.h ****                                          *     NOTE: 3rd parameter passed is `NULL` */
  57:Lib/AI_Runtime/Npu/ll_aton/ll_aton_NN_interface.h ****     LL_ATON_RT_Callbacktype_NN_DeInit,  /**< Callback called after `LL_ATON_RT_DeInit_Network`,
  58:Lib/AI_Runtime/Npu/ll_aton/ll_aton_NN_interface.h ****                                          *     NOTE: 3rd parameter passed is `NULL` */
  59:Lib/AI_Runtime/Npu/ll_aton/ll_aton_NN_interface.h ****     LL_ATON_RT_Callbacktype_RT_Init,    /**< Callback called after `LL_ATON_RT_RuntimeInit` */
  60:Lib/AI_Runtime/Npu/ll_aton/ll_aton_NN_interface.h ****     LL_ATON_RT_Callbacktype_RT_Deinit,  /**< Callback called before `LL_ATON_RT_RuntimeDeInit` */
  61:Lib/AI_Runtime/Npu/ll_aton/ll_aton_NN_interface.h ****   } LL_ATON_RT_Callbacktype_t;
  62:Lib/AI_Runtime/Npu/ll_aton/ll_aton_NN_interface.h **** 
  63:Lib/AI_Runtime/Npu/ll_aton/ll_aton_NN_interface.h ****   /**
  64:Lib/AI_Runtime/Npu/ll_aton/ll_aton_NN_interface.h ****    * @}
  65:Lib/AI_Runtime/Npu/ll_aton/ll_aton_NN_interface.h ****    */
  66:Lib/AI_Runtime/Npu/ll_aton/ll_aton_NN_interface.h **** 
  67:Lib/AI_Runtime/Npu/ll_aton/ll_aton_NN_interface.h ****   /** @defgroup Handle-style Data Types for Epoch Blocks
  68:Lib/AI_Runtime/Npu/ll_aton/ll_aton_NN_interface.h ****    * @{
  69:Lib/AI_Runtime/Npu/ll_aton/ll_aton_NN_interface.h ****    */
  70:Lib/AI_Runtime/Npu/ll_aton/ll_aton_NN_interface.h **** 
  71:Lib/AI_Runtime/Npu/ll_aton/ll_aton_NN_interface.h ****   /* this is needed to avoid some compilers (e.g. KEIL) that observe a strict semantic about conver
  72:Lib/AI_Runtime/Npu/ll_aton/ll_aton_NN_interface.h ****    * pointers to integers in cost initializers
  73:Lib/AI_Runtime/Npu/ll_aton/ll_aton_NN_interface.h ****    */
  74:Lib/AI_Runtime/Npu/ll_aton/ll_aton_NN_interface.h ****   typedef union
  75:Lib/AI_Runtime/Npu/ll_aton/ll_aton_NN_interface.h ****   {
  76:Lib/AI_Runtime/Npu/ll_aton/ll_aton_NN_interface.h ****     unsigned char *p;
  77:Lib/AI_Runtime/Npu/ll_aton/ll_aton_NN_interface.h ****     uintptr_t i;
  78:Lib/AI_Runtime/Npu/ll_aton/ll_aton_NN_interface.h ****   } __LL_address_t;
  79:Lib/AI_Runtime/Npu/ll_aton/ll_aton_NN_interface.h **** 
  80:Lib/AI_Runtime/Npu/ll_aton/ll_aton_NN_interface.h ****   typedef void (*EpochBlock_FuncPtr_t)(const void *epoch_block);
  81:Lib/AI_Runtime/Npu/ll_aton/ll_aton_NN_interface.h **** 
  82:Lib/AI_Runtime/Npu/ll_aton/ll_aton_NN_interface.h ****   typedef enum
ARM GAS  /tmp/ccgnzMmM.s 			page 3


  83:Lib/AI_Runtime/Npu/ll_aton/ll_aton_NN_interface.h ****   {
  84:Lib/AI_Runtime/Npu/ll_aton/ll_aton_NN_interface.h ****     EpochBlock_Flags_NONE = 0x0,                 /**< */
  85:Lib/AI_Runtime/Npu/ll_aton/ll_aton_NN_interface.h ****     EpochBlock_Flags_epoch_start = (0x1 << 0),   /**< First EpochBlock of an Epoch */
  86:Lib/AI_Runtime/Npu/ll_aton/ll_aton_NN_interface.h ****     EpochBlock_Flags_epoch_end = (0x1 << 1),     /**< Last EpochBlock of an Epoch */
  87:Lib/AI_Runtime/Npu/ll_aton/ll_aton_NN_interface.h ****     EpochBlock_Flags_blob = (0x1 << 2),          /**< Item is an Epoch Blob */
  88:Lib/AI_Runtime/Npu/ll_aton/ll_aton_NN_interface.h ****     EpochBlock_Flags_last_eb = (0x1 << 3),       /**< Last EpochBlock */
  89:Lib/AI_Runtime/Npu/ll_aton/ll_aton_NN_interface.h ****     EpochBlock_Flags_pure_hw = (0x1 << 4),       /**< Pure HW EpochBlock */
  90:Lib/AI_Runtime/Npu/ll_aton/ll_aton_NN_interface.h ****     EpochBlock_Flags_pure_sw = (0x1 << 5),       /**< Pure SW EpochBlock */
  91:Lib/AI_Runtime/Npu/ll_aton/ll_aton_NN_interface.h ****     EpochBlock_Flags_hybrid = (0x1 << 6),        /**< Hybrid EpochBlock (i.e. mixed HW/SW) */
  92:Lib/AI_Runtime/Npu/ll_aton/ll_aton_NN_interface.h ****     EpochBlock_Flags_internal = (0x1 << 7),      /**< ATON lib internal EpochBlock (used to impleme
  93:Lib/AI_Runtime/Npu/ll_aton/ll_aton_NN_interface.h ****     EpochBlock_Flags_blob_encrypted = (0x1 << 8) /**< The blob is encrypted and must be decrypted o
  94:Lib/AI_Runtime/Npu/ll_aton/ll_aton_NN_interface.h ****   } EpochBlock_Flags_t;
  95:Lib/AI_Runtime/Npu/ll_aton/ll_aton_NN_interface.h **** 
  96:Lib/AI_Runtime/Npu/ll_aton/ll_aton_NN_interface.h ****   typedef struct
  97:Lib/AI_Runtime/Npu/ll_aton/ll_aton_NN_interface.h ****   {
  98:Lib/AI_Runtime/Npu/ll_aton/ll_aton_NN_interface.h ****     EpochBlock_FuncPtr_t start_epoch_block; /**< Method to execute the EpochBlock */
  99:Lib/AI_Runtime/Npu/ll_aton/ll_aton_NN_interface.h ****     EpochBlock_FuncPtr_t end_epoch_block;   /**< Method to be executed when the EpochBlock ends */
 100:Lib/AI_Runtime/Npu/ll_aton/ll_aton_NN_interface.h ****     uintptr_t blob_address;                 /**< Blob address (in case this EpochBlock represents a
 101:Lib/AI_Runtime/Npu/ll_aton/ll_aton_NN_interface.h ****     uint32_t wait_mask;                     /**< Mask needed to check when an EpochBlock ends
 102:Lib/AI_Runtime/Npu/ll_aton/ll_aton_NN_interface.h ****                                              *    - if epoch blob: number (not bitmask) of epoch co
 103:Lib/AI_Runtime/Npu/ll_aton/ll_aton_NN_interface.h ****                                              *    - otherwise: bitmask with all output streaming en
 104:Lib/AI_Runtime/Npu/ll_aton/ll_aton_NN_interface.h ****     uint16_t flags;                         /**< EpochBlock flags */
 105:Lib/AI_Runtime/Npu/ll_aton/ll_aton_NN_interface.h **** #ifdef LL_ATON_EB_DBG_INFO
 106:Lib/AI_Runtime/Npu/ll_aton/ll_aton_NN_interface.h ****     int16_t epoch_num;             /**< Epoch number / First epoch number within blob */
 107:Lib/AI_Runtime/Npu/ll_aton/ll_aton_NN_interface.h ****     int16_t last_epoch_num;        /**< Epoch number / Last epoch number within blob */
 108:Lib/AI_Runtime/Npu/ll_aton/ll_aton_NN_interface.h ****     uint32_t in_streng_mask;       /**< Debug information about input streaming engines used in epo
 109:Lib/AI_Runtime/Npu/ll_aton/ll_aton_NN_interface.h ****     uint32_t out_streng_mask;      /**< Debug information about output streaming engines used in ep
 110:Lib/AI_Runtime/Npu/ll_aton/ll_aton_NN_interface.h ****     uint64_t estimated_npu_cycles; /**< Debug information estimates for NPU cycles in epoch w/o mem
 111:Lib/AI_Runtime/Npu/ll_aton/ll_aton_NN_interface.h ****     uint64_t estimated_tot_cycles; /**< Debug information estimates for NPU cycles in epoch w/ memo
 112:Lib/AI_Runtime/Npu/ll_aton/ll_aton_NN_interface.h **** #endif                             // LL_ATON_EB_DBG_INFO
 113:Lib/AI_Runtime/Npu/ll_aton/ll_aton_NN_interface.h ****   } EpochBlock_ItemTypeDef;
 114:Lib/AI_Runtime/Npu/ll_aton/ll_aton_NN_interface.h ****   typedef EpochBlock_ItemTypeDef LL_ATON_RT_EpochBlockItem_t;
 115:Lib/AI_Runtime/Npu/ll_aton/ll_aton_NN_interface.h **** 
 116:Lib/AI_Runtime/Npu/ll_aton/ll_aton_NN_interface.h ****   /**
 117:Lib/AI_Runtime/Npu/ll_aton/ll_aton_NN_interface.h ****    * @}
 118:Lib/AI_Runtime/Npu/ll_aton/ll_aton_NN_interface.h ****    */
 119:Lib/AI_Runtime/Npu/ll_aton/ll_aton_NN_interface.h **** 
 120:Lib/AI_Runtime/Npu/ll_aton/ll_aton_NN_interface.h ****   /** @defgroup Helper Function Declarations for User Callbacks
 121:Lib/AI_Runtime/Npu/ll_aton/ll_aton_NN_interface.h ****    * @{
 122:Lib/AI_Runtime/Npu/ll_aton/ll_aton_NN_interface.h ****    */
 123:Lib/AI_Runtime/Npu/ll_aton/ll_aton_NN_interface.h **** 
 124:Lib/AI_Runtime/Npu/ll_aton/ll_aton_NN_interface.h ****   /**
 125:Lib/AI_Runtime/Npu/ll_aton/ll_aton_NN_interface.h ****    * @brief Checks if the pointed element is the last one of an array of `const EpochBlock_ItemType
 126:Lib/AI_Runtime/Npu/ll_aton/ll_aton_NN_interface.h ****    *
 127:Lib/AI_Runtime/Npu/ll_aton/ll_aton_NN_interface.h ****    */
 128:Lib/AI_Runtime/Npu/ll_aton/ll_aton_NN_interface.h ****   static inline bool EpochBlock_IsLastEpochBlock(const EpochBlock_ItemTypeDef *eb);
 129:Lib/AI_Runtime/Npu/ll_aton/ll_aton_NN_interface.h **** 
 130:Lib/AI_Runtime/Npu/ll_aton/ll_aton_NN_interface.h ****   /**
 131:Lib/AI_Runtime/Npu/ll_aton/ll_aton_NN_interface.h ****    * @brief Checks if the pointed element is the first EpochBlock of an Epoch
 132:Lib/AI_Runtime/Npu/ll_aton/ll_aton_NN_interface.h ****    *
 133:Lib/AI_Runtime/Npu/ll_aton/ll_aton_NN_interface.h ****    */
 134:Lib/AI_Runtime/Npu/ll_aton/ll_aton_NN_interface.h ****   static inline bool EpochBlock_IsEpochStart(const EpochBlock_ItemTypeDef *eb);
 135:Lib/AI_Runtime/Npu/ll_aton/ll_aton_NN_interface.h **** 
 136:Lib/AI_Runtime/Npu/ll_aton/ll_aton_NN_interface.h ****   /**
 137:Lib/AI_Runtime/Npu/ll_aton/ll_aton_NN_interface.h ****    * @brief Checks if the pointed element is the last EpochBlock of an Epoch
 138:Lib/AI_Runtime/Npu/ll_aton/ll_aton_NN_interface.h ****    *
 139:Lib/AI_Runtime/Npu/ll_aton/ll_aton_NN_interface.h ****    */
ARM GAS  /tmp/ccgnzMmM.s 			page 4


 140:Lib/AI_Runtime/Npu/ll_aton/ll_aton_NN_interface.h ****   static inline bool EpochBlock_IsEpochEnd(const EpochBlock_ItemTypeDef *eb);
 141:Lib/AI_Runtime/Npu/ll_aton/ll_aton_NN_interface.h **** 
 142:Lib/AI_Runtime/Npu/ll_aton/ll_aton_NN_interface.h ****   /**
 143:Lib/AI_Runtime/Npu/ll_aton/ll_aton_NN_interface.h ****    * @brief Checks if the pointed element is the an Epoch Blob
 144:Lib/AI_Runtime/Npu/ll_aton/ll_aton_NN_interface.h ****    *
 145:Lib/AI_Runtime/Npu/ll_aton/ll_aton_NN_interface.h ****    */
 146:Lib/AI_Runtime/Npu/ll_aton/ll_aton_NN_interface.h ****   static inline bool EpochBlock_IsEpochBlob(const EpochBlock_ItemTypeDef *eb);
 147:Lib/AI_Runtime/Npu/ll_aton/ll_aton_NN_interface.h **** 
 148:Lib/AI_Runtime/Npu/ll_aton/ll_aton_NN_interface.h ****   /**
 149:Lib/AI_Runtime/Npu/ll_aton/ll_aton_NN_interface.h ****    * @brief Checks if - in case this epoch is a blob (see above) - the blob is encrypted
 150:Lib/AI_Runtime/Npu/ll_aton/ll_aton_NN_interface.h ****    *
 151:Lib/AI_Runtime/Npu/ll_aton/ll_aton_NN_interface.h ****    */
 152:Lib/AI_Runtime/Npu/ll_aton/ll_aton_NN_interface.h ****   static inline bool EpochBlock_IsBlobEncrypted(const EpochBlock_ItemTypeDef *eb);
 153:Lib/AI_Runtime/Npu/ll_aton/ll_aton_NN_interface.h **** 
 154:Lib/AI_Runtime/Npu/ll_aton/ll_aton_NN_interface.h ****   /**
 155:Lib/AI_Runtime/Npu/ll_aton/ll_aton_NN_interface.h ****    * @brief Checks if the pointed element is pure SW epoch
 156:Lib/AI_Runtime/Npu/ll_aton/ll_aton_NN_interface.h ****    *
 157:Lib/AI_Runtime/Npu/ll_aton/ll_aton_NN_interface.h ****    */
 158:Lib/AI_Runtime/Npu/ll_aton/ll_aton_NN_interface.h ****   static inline bool EpochBlock_IsEpochPureSW(const EpochBlock_ItemTypeDef *eb);
 159:Lib/AI_Runtime/Npu/ll_aton/ll_aton_NN_interface.h **** 
 160:Lib/AI_Runtime/Npu/ll_aton/ll_aton_NN_interface.h ****   /**
 161:Lib/AI_Runtime/Npu/ll_aton/ll_aton_NN_interface.h ****    * @brief Checks if the pointed element is a pure HW or mixed SW/HW epoch
 162:Lib/AI_Runtime/Npu/ll_aton/ll_aton_NN_interface.h ****    *
 163:Lib/AI_Runtime/Npu/ll_aton/ll_aton_NN_interface.h ****    */
 164:Lib/AI_Runtime/Npu/ll_aton/ll_aton_NN_interface.h ****   static inline bool EpochBlock_IsEpochPureHW(const EpochBlock_ItemTypeDef *eb);
 165:Lib/AI_Runtime/Npu/ll_aton/ll_aton_NN_interface.h **** 
 166:Lib/AI_Runtime/Npu/ll_aton/ll_aton_NN_interface.h ****   /**
 167:Lib/AI_Runtime/Npu/ll_aton/ll_aton_NN_interface.h ****    * @brief Checks if the pointed element is a hybrid epoch
 168:Lib/AI_Runtime/Npu/ll_aton/ll_aton_NN_interface.h ****    *
 169:Lib/AI_Runtime/Npu/ll_aton/ll_aton_NN_interface.h ****    */
 170:Lib/AI_Runtime/Npu/ll_aton/ll_aton_NN_interface.h ****   static inline bool EpochBlock_IsEpochHybrid(const EpochBlock_ItemTypeDef *eb);
 171:Lib/AI_Runtime/Npu/ll_aton/ll_aton_NN_interface.h **** 
 172:Lib/AI_Runtime/Npu/ll_aton/ll_aton_NN_interface.h ****   /**
 173:Lib/AI_Runtime/Npu/ll_aton/ll_aton_NN_interface.h ****    * @brief Checks if the pointed element is an internal epoch
 174:Lib/AI_Runtime/Npu/ll_aton/ll_aton_NN_interface.h ****    *
 175:Lib/AI_Runtime/Npu/ll_aton/ll_aton_NN_interface.h ****    */
 176:Lib/AI_Runtime/Npu/ll_aton/ll_aton_NN_interface.h ****   static inline bool EpochBlock_IsEpochInternal(const EpochBlock_ItemTypeDef *eb);
 177:Lib/AI_Runtime/Npu/ll_aton/ll_aton_NN_interface.h **** 
 178:Lib/AI_Runtime/Npu/ll_aton/ll_aton_NN_interface.h ****   /**
 179:Lib/AI_Runtime/Npu/ll_aton/ll_aton_NN_interface.h ****    * @brief Returns the Epoch controller id to use
 180:Lib/AI_Runtime/Npu/ll_aton/ll_aton_NN_interface.h ****    *
 181:Lib/AI_Runtime/Npu/ll_aton/ll_aton_NN_interface.h ****    */
 182:Lib/AI_Runtime/Npu/ll_aton/ll_aton_NN_interface.h ****   static inline uint32_t EpochBlock_EpochControllerUnit(const EpochBlock_ItemTypeDef *eb);
 183:Lib/AI_Runtime/Npu/ll_aton/ll_aton_NN_interface.h **** 
 184:Lib/AI_Runtime/Npu/ll_aton/ll_aton_NN_interface.h ****   /**
 185:Lib/AI_Runtime/Npu/ll_aton/ll_aton_NN_interface.h ****    * @brief Returns the address of the configuration of the epoch controller (the blob address)
 186:Lib/AI_Runtime/Npu/ll_aton/ll_aton_NN_interface.h ****    *
 187:Lib/AI_Runtime/Npu/ll_aton/ll_aton_NN_interface.h ****    */
 188:Lib/AI_Runtime/Npu/ll_aton/ll_aton_NN_interface.h ****   static inline uintptr_t EpochBlock_EpochBlobAddr(const EpochBlock_ItemTypeDef *eb);
 189:Lib/AI_Runtime/Npu/ll_aton/ll_aton_NN_interface.h **** 
 190:Lib/AI_Runtime/Npu/ll_aton/ll_aton_NN_interface.h ****   /**
 191:Lib/AI_Runtime/Npu/ll_aton/ll_aton_NN_interface.h ****    * @brief ATON buffer types definition
 192:Lib/AI_Runtime/Npu/ll_aton/ll_aton_NN_interface.h ****    */
 193:Lib/AI_Runtime/Npu/ll_aton/ll_aton_NN_interface.h **** 
 194:Lib/AI_Runtime/Npu/ll_aton/ll_aton_NN_interface.h ****   /**
 195:Lib/AI_Runtime/Npu/ll_aton/ll_aton_NN_interface.h ****    * @}
 196:Lib/AI_Runtime/Npu/ll_aton/ll_aton_NN_interface.h ****    */
ARM GAS  /tmp/ccgnzMmM.s 			page 5


 197:Lib/AI_Runtime/Npu/ll_aton/ll_aton_NN_interface.h **** 
 198:Lib/AI_Runtime/Npu/ll_aton/ll_aton_NN_interface.h ****   /** @defgroup Handle-style Data Types for Input, Output, and Internal Buffers
 199:Lib/AI_Runtime/Npu/ll_aton/ll_aton_NN_interface.h ****    * @{
 200:Lib/AI_Runtime/Npu/ll_aton/ll_aton_NN_interface.h ****    */
 201:Lib/AI_Runtime/Npu/ll_aton/ll_aton_NN_interface.h **** 
 202:Lib/AI_Runtime/Npu/ll_aton/ll_aton_NN_interface.h ****   typedef enum
 203:Lib/AI_Runtime/Npu/ll_aton/ll_aton_NN_interface.h ****   {
 204:Lib/AI_Runtime/Npu/ll_aton/ll_aton_NN_interface.h ****     DataType_UNDEFINED = 0,
 205:Lib/AI_Runtime/Npu/ll_aton/ll_aton_NN_interface.h ****     DataType_FLOAT = 1,
 206:Lib/AI_Runtime/Npu/ll_aton/ll_aton_NN_interface.h ****     DataType_UINT2 = 2,
 207:Lib/AI_Runtime/Npu/ll_aton/ll_aton_NN_interface.h ****     DataType_INT2 = 3,
 208:Lib/AI_Runtime/Npu/ll_aton/ll_aton_NN_interface.h ****     DataType_UINT4 = 4,
 209:Lib/AI_Runtime/Npu/ll_aton/ll_aton_NN_interface.h ****     DataType_INT4 = 5,
 210:Lib/AI_Runtime/Npu/ll_aton/ll_aton_NN_interface.h ****     DataType_UINT8 = 6,
 211:Lib/AI_Runtime/Npu/ll_aton/ll_aton_NN_interface.h ****     DataType_INT8 = 7,
 212:Lib/AI_Runtime/Npu/ll_aton/ll_aton_NN_interface.h ****     DataType_UINT16 = 8,
 213:Lib/AI_Runtime/Npu/ll_aton/ll_aton_NN_interface.h ****     DataType_INT16 = 9,
 214:Lib/AI_Runtime/Npu/ll_aton/ll_aton_NN_interface.h ****     DataType_INT32 = 10,
 215:Lib/AI_Runtime/Npu/ll_aton/ll_aton_NN_interface.h ****     DataType_INT64 = 11,
 216:Lib/AI_Runtime/Npu/ll_aton/ll_aton_NN_interface.h ****     DataType_STRING = 12,
 217:Lib/AI_Runtime/Npu/ll_aton/ll_aton_NN_interface.h ****     DataType_BOOL = 13,
 218:Lib/AI_Runtime/Npu/ll_aton/ll_aton_NN_interface.h ****     DataType_FLOAT16 = 14,
 219:Lib/AI_Runtime/Npu/ll_aton/ll_aton_NN_interface.h ****     DataType_DOUBLE = 15,
 220:Lib/AI_Runtime/Npu/ll_aton/ll_aton_NN_interface.h ****     DataType_UINT32 = 16,
 221:Lib/AI_Runtime/Npu/ll_aton/ll_aton_NN_interface.h ****     DataType_UINT64 = 17,
 222:Lib/AI_Runtime/Npu/ll_aton/ll_aton_NN_interface.h ****     DataType_COMPLEX64 = 18,
 223:Lib/AI_Runtime/Npu/ll_aton/ll_aton_NN_interface.h ****     DataType_COMPLEX128 = 19,
 224:Lib/AI_Runtime/Npu/ll_aton/ll_aton_NN_interface.h ****     DataType_BFLOAT16 = 20,
 225:Lib/AI_Runtime/Npu/ll_aton/ll_aton_NN_interface.h ****     DataType_FXP = 100 // AtoNN specific
 226:Lib/AI_Runtime/Npu/ll_aton/ll_aton_NN_interface.h ****   } Buffer_DataType_TypeDef;
 227:Lib/AI_Runtime/Npu/ll_aton/ll_aton_NN_interface.h **** 
 228:Lib/AI_Runtime/Npu/ll_aton/ll_aton_NN_interface.h ****   /**
 229:Lib/AI_Runtime/Npu/ll_aton/ll_aton_NN_interface.h ****    * @brief ATON buffer Channel position
 230:Lib/AI_Runtime/Npu/ll_aton/ll_aton_NN_interface.h ****    */
 231:Lib/AI_Runtime/Npu/ll_aton/ll_aton_NN_interface.h **** 
 232:Lib/AI_Runtime/Npu/ll_aton/ll_aton_NN_interface.h ****   typedef enum
 233:Lib/AI_Runtime/Npu/ll_aton/ll_aton_NN_interface.h ****   {
 234:Lib/AI_Runtime/Npu/ll_aton/ll_aton_NN_interface.h ****     CHPos_UNDEFINED = 0, /**< No channel present */
 235:Lib/AI_Runtime/Npu/ll_aton/ll_aton_NN_interface.h ****     CHPos_First = 1,     /**< Channel First         ( ...B C H W )*/
 236:Lib/AI_Runtime/Npu/ll_aton/ll_aton_NN_interface.h ****     CHPos_Last = 2,      /**< Channel Last          ( ...B H W C ) */
 237:Lib/AI_Runtime/Npu/ll_aton/ll_aton_NN_interface.h ****     CHPos_Mixed = 3,     /**< Channel with Batch(b) ( ...B C/b H W b ) */
 238:Lib/AI_Runtime/Npu/ll_aton/ll_aton_NN_interface.h ****   } Buffer_CHPos_TypeDef;
 239:Lib/AI_Runtime/Npu/ll_aton/ll_aton_NN_interface.h **** 
 240:Lib/AI_Runtime/Npu/ll_aton/ll_aton_NN_interface.h ****   /**
 241:Lib/AI_Runtime/Npu/ll_aton/ll_aton_NN_interface.h ****    * @brief ATON buffer definition
 242:Lib/AI_Runtime/Npu/ll_aton/ll_aton_NN_interface.h ****    */
 243:Lib/AI_Runtime/Npu/ll_aton/ll_aton_NN_interface.h ****   typedef struct
 244:Lib/AI_Runtime/Npu/ll_aton/ll_aton_NN_interface.h ****   {
 245:Lib/AI_Runtime/Npu/ll_aton/ll_aton_NN_interface.h ****     const char *name;             /**< Buffer name. NULL if end of list */
 246:Lib/AI_Runtime/Npu/ll_aton/ll_aton_NN_interface.h ****     __LL_address_t addr_base;     /**< Buffer base address */
 247:Lib/AI_Runtime/Npu/ll_aton/ll_aton_NN_interface.h ****     uint32_t offset_start;        /**< Offset of the buffer start address from the base address */
 248:Lib/AI_Runtime/Npu/ll_aton/ll_aton_NN_interface.h ****     uint32_t offset_end;          /**< Offset of the buffer end address from the base address
 249:Lib/AI_Runtime/Npu/ll_aton/ll_aton_NN_interface.h ****                                    *   (first bytes address beyond buffer length) */
 250:Lib/AI_Runtime/Npu/ll_aton/ll_aton_NN_interface.h ****     uint32_t offset_limit;        /**< Offset of the limiter address from the base address,
 251:Lib/AI_Runtime/Npu/ll_aton/ll_aton_NN_interface.h ****                                    *   (needed for configuring streaming engines) */
 252:Lib/AI_Runtime/Npu/ll_aton/ll_aton_NN_interface.h ****     uint8_t is_user_allocated;    /**< */
 253:Lib/AI_Runtime/Npu/ll_aton/ll_aton_NN_interface.h ****     uint8_t is_param;             /**< */
ARM GAS  /tmp/ccgnzMmM.s 			page 6


 254:Lib/AI_Runtime/Npu/ll_aton/ll_aton_NN_interface.h ****     uint16_t epoch;               /**< */
 255:Lib/AI_Runtime/Npu/ll_aton/ll_aton_NN_interface.h ****     uint32_t batch;               /**< */
 256:Lib/AI_Runtime/Npu/ll_aton/ll_aton_NN_interface.h ****     const uint32_t *mem_shape;    /**< shape as seen by the user in memory (only valid for input/ou
 257:Lib/AI_Runtime/Npu/ll_aton/ll_aton_NN_interface.h ****     uint16_t mem_ndims;           /**< Number of dimensions of mem_shape (Length of mem_shape) */
 258:Lib/AI_Runtime/Npu/ll_aton/ll_aton_NN_interface.h ****     Buffer_CHPos_TypeDef chpos;   /**< Position  of channels dimension in mem shape */
 259:Lib/AI_Runtime/Npu/ll_aton/ll_aton_NN_interface.h ****     Buffer_DataType_TypeDef type; /**< */
 260:Lib/AI_Runtime/Npu/ll_aton/ll_aton_NN_interface.h ****     int8_t Qm;                    /**< */
 261:Lib/AI_Runtime/Npu/ll_aton/ll_aton_NN_interface.h ****     int8_t Qn;                    /**< */
 262:Lib/AI_Runtime/Npu/ll_aton/ll_aton_NN_interface.h ****     uint8_t Qunsigned;            /**< */
 263:Lib/AI_Runtime/Npu/ll_aton/ll_aton_NN_interface.h ****     uint8_t ndims;                /**< */
 264:Lib/AI_Runtime/Npu/ll_aton/ll_aton_NN_interface.h ****     uint8_t nbits;                /**< */
 265:Lib/AI_Runtime/Npu/ll_aton/ll_aton_NN_interface.h ****     uint8_t per_channel;          /**< */
 266:Lib/AI_Runtime/Npu/ll_aton/ll_aton_NN_interface.h ****     const uint32_t *shape;        /**< */
 267:Lib/AI_Runtime/Npu/ll_aton/ll_aton_NN_interface.h ****     const float *scale;           /**< */
 268:Lib/AI_Runtime/Npu/ll_aton/ll_aton_NN_interface.h ****     const int16_t *offset;        /**< This can become int8 or uint8 based on the Qunsigned field.
 269:Lib/AI_Runtime/Npu/ll_aton/ll_aton_NN_interface.h ****                                    *   (This field Must have the same format of the quantized value
 270:Lib/AI_Runtime/Npu/ll_aton/ll_aton_NN_interface.h ****   } LL_Buffer_InfoTypeDef;
 271:Lib/AI_Runtime/Npu/ll_aton/ll_aton_NN_interface.h **** 
 272:Lib/AI_Runtime/Npu/ll_aton/ll_aton_NN_interface.h ****   /**
 273:Lib/AI_Runtime/Npu/ll_aton/ll_aton_NN_interface.h ****    * @}
 274:Lib/AI_Runtime/Npu/ll_aton/ll_aton_NN_interface.h ****    */
 275:Lib/AI_Runtime/Npu/ll_aton/ll_aton_NN_interface.h **** 
 276:Lib/AI_Runtime/Npu/ll_aton/ll_aton_NN_interface.h ****   /** @defgroup Helper Function Declarations for Buffer Analysis
 277:Lib/AI_Runtime/Npu/ll_aton/ll_aton_NN_interface.h ****    * @{
 278:Lib/AI_Runtime/Npu/ll_aton/ll_aton_NN_interface.h ****    */
 279:Lib/AI_Runtime/Npu/ll_aton/ll_aton_NN_interface.h **** 
 280:Lib/AI_Runtime/Npu/ll_aton/ll_aton_NN_interface.h ****   /**
 281:Lib/AI_Runtime/Npu/ll_aton/ll_aton_NN_interface.h ****    * @brief returns the base address of the mem pool the buffer is allocated in
 282:Lib/AI_Runtime/Npu/ll_aton/ll_aton_NN_interface.h ****    *
 283:Lib/AI_Runtime/Npu/ll_aton/ll_aton_NN_interface.h ****    */
 284:Lib/AI_Runtime/Npu/ll_aton/ll_aton_NN_interface.h ****   static inline unsigned char *LL_Buffer_addr_base(const LL_Buffer_InfoTypeDef *buf);
 285:Lib/AI_Runtime/Npu/ll_aton/ll_aton_NN_interface.h **** 
 286:Lib/AI_Runtime/Npu/ll_aton/ll_aton_NN_interface.h ****   /**
 287:Lib/AI_Runtime/Npu/ll_aton/ll_aton_NN_interface.h ****    * @brief returns the start address of the buffer
 288:Lib/AI_Runtime/Npu/ll_aton/ll_aton_NN_interface.h ****    *
 289:Lib/AI_Runtime/Npu/ll_aton/ll_aton_NN_interface.h ****    */
 290:Lib/AI_Runtime/Npu/ll_aton/ll_aton_NN_interface.h ****   static inline unsigned char *LL_Buffer_addr_start(const LL_Buffer_InfoTypeDef *buf);
 291:Lib/AI_Runtime/Npu/ll_aton/ll_aton_NN_interface.h **** 
 292:Lib/AI_Runtime/Npu/ll_aton/ll_aton_NN_interface.h ****   /**
 293:Lib/AI_Runtime/Npu/ll_aton/ll_aton_NN_interface.h ****    * @brief returns the end address of the buffer
 294:Lib/AI_Runtime/Npu/ll_aton/ll_aton_NN_interface.h ****    *
 295:Lib/AI_Runtime/Npu/ll_aton/ll_aton_NN_interface.h ****    */
 296:Lib/AI_Runtime/Npu/ll_aton/ll_aton_NN_interface.h ****   static inline unsigned char *LL_Buffer_addr_end(const LL_Buffer_InfoTypeDef *buf);
 297:Lib/AI_Runtime/Npu/ll_aton/ll_aton_NN_interface.h **** 
 298:Lib/AI_Runtime/Npu/ll_aton/ll_aton_NN_interface.h ****   /**
 299:Lib/AI_Runtime/Npu/ll_aton/ll_aton_NN_interface.h ****    * @brief returns the limit address of the buffer
 300:Lib/AI_Runtime/Npu/ll_aton/ll_aton_NN_interface.h ****    *
 301:Lib/AI_Runtime/Npu/ll_aton/ll_aton_NN_interface.h ****    */
 302:Lib/AI_Runtime/Npu/ll_aton/ll_aton_NN_interface.h ****   static inline unsigned char *LL_Buffer_addr_limit(const LL_Buffer_InfoTypeDef *buf);
 303:Lib/AI_Runtime/Npu/ll_aton/ll_aton_NN_interface.h **** 
 304:Lib/AI_Runtime/Npu/ll_aton/ll_aton_NN_interface.h ****   /**
 305:Lib/AI_Runtime/Npu/ll_aton/ll_aton_NN_interface.h ****    * @brief returns the length of the buffer
 306:Lib/AI_Runtime/Npu/ll_aton/ll_aton_NN_interface.h ****    *
 307:Lib/AI_Runtime/Npu/ll_aton/ll_aton_NN_interface.h ****    */
 308:Lib/AI_Runtime/Npu/ll_aton/ll_aton_NN_interface.h ****   static inline uint32_t LL_Buffer_len(const LL_Buffer_InfoTypeDef *buf);
 309:Lib/AI_Runtime/Npu/ll_aton/ll_aton_NN_interface.h **** 
 310:Lib/AI_Runtime/Npu/ll_aton/ll_aton_NN_interface.h ****   /**
ARM GAS  /tmp/ccgnzMmM.s 			page 7


 311:Lib/AI_Runtime/Npu/ll_aton/ll_aton_NN_interface.h ****    * @brief returns the buffer elements number of bits
 312:Lib/AI_Runtime/Npu/ll_aton/ll_aton_NN_interface.h ****    *
 313:Lib/AI_Runtime/Npu/ll_aton/ll_aton_NN_interface.h ****    */
 314:Lib/AI_Runtime/Npu/ll_aton/ll_aton_NN_interface.h ****   static inline uint32_t LL_Buffer_bits(const LL_Buffer_InfoTypeDef *buf);
 315:Lib/AI_Runtime/Npu/ll_aton/ll_aton_NN_interface.h **** 
 316:Lib/AI_Runtime/Npu/ll_aton/ll_aton_NN_interface.h ****   /**
 317:Lib/AI_Runtime/Npu/ll_aton/ll_aton_NN_interface.h ****    * @}
 318:Lib/AI_Runtime/Npu/ll_aton/ll_aton_NN_interface.h ****    */
 319:Lib/AI_Runtime/Npu/ll_aton/ll_aton_NN_interface.h **** 
 320:Lib/AI_Runtime/Npu/ll_aton/ll_aton_NN_interface.h ****   /** @defgroup Handle-style Data Types and Declaration Macros for ATON Runtime Execution & User AP
 321:Lib/AI_Runtime/Npu/ll_aton/ll_aton_NN_interface.h ****    * @{
 322:Lib/AI_Runtime/Npu/ll_aton/ll_aton_NN_interface.h ****    */
 323:Lib/AI_Runtime/Npu/ll_aton/ll_aton_NN_interface.h **** 
 324:Lib/AI_Runtime/Npu/ll_aton/ll_aton_NN_interface.h ****   struct __nn_instance_struct; // forward declaration
 325:Lib/AI_Runtime/Npu/ll_aton/ll_aton_NN_interface.h ****   typedef struct __nn_instance_struct NN_Instance_TypeDef;
 326:Lib/AI_Runtime/Npu/ll_aton/ll_aton_NN_interface.h **** 
 327:Lib/AI_Runtime/Npu/ll_aton/ll_aton_NN_interface.h **** /**
 328:Lib/AI_Runtime/Npu/ll_aton/ll_aton_NN_interface.h ****  * @brief Declare the function prototypes for named NN interface functions generated by the AtoNN c
 329:Lib/AI_Runtime/Npu/ll_aton/ll_aton_NN_interface.h ****  * @param network_name name of the network as provided by option `--network-name`
 330:Lib/AI_Runtime/Npu/ll_aton/ll_aton_NN_interface.h ****  */
 331:Lib/AI_Runtime/Npu/ll_aton/ll_aton_NN_interface.h **** #define LL_ATON_DECLARE_NAMED_NN_PROTOS(network_name)                                              
 332:Lib/AI_Runtime/Npu/ll_aton/ll_aton_NN_interface.h ****   extern bool LL_ATON_EC_Network_Init_##network_name(void);                                        
 333:Lib/AI_Runtime/Npu/ll_aton/ll_aton_NN_interface.h ****   extern bool LL_ATON_EC_Inference_Init_##network_name(void);                                      
 334:Lib/AI_Runtime/Npu/ll_aton/ll_aton_NN_interface.h ****   extern LL_ATON_User_IO_Result_t LL_ATON_Set_User_Input_Buffer_##network_name(uint32_t num, void *
 335:Lib/AI_Runtime/Npu/ll_aton/ll_aton_NN_interface.h ****                                                                                uint32_t size);     
 336:Lib/AI_Runtime/Npu/ll_aton/ll_aton_NN_interface.h ****   extern void *LL_ATON_Get_User_Input_Buffer_##network_name(uint32_t num);                         
 337:Lib/AI_Runtime/Npu/ll_aton/ll_aton_NN_interface.h ****   extern LL_ATON_User_IO_Result_t LL_ATON_Set_User_Output_Buffer_##network_name(uint32_t num, void 
 338:Lib/AI_Runtime/Npu/ll_aton/ll_aton_NN_interface.h ****                                                                                 uint32_t size);    
 339:Lib/AI_Runtime/Npu/ll_aton/ll_aton_NN_interface.h ****   extern void *LL_ATON_Get_User_Output_Buffer_##network_name(uint32_t num);                        
 340:Lib/AI_Runtime/Npu/ll_aton/ll_aton_NN_interface.h ****   extern const EpochBlock_ItemTypeDef *LL_ATON_EpochBlockItems_##network_name(void);               
 341:Lib/AI_Runtime/Npu/ll_aton/ll_aton_NN_interface.h ****   extern const LL_Buffer_InfoTypeDef *LL_ATON_Output_Buffers_Info_##network_name(void);            
 342:Lib/AI_Runtime/Npu/ll_aton/ll_aton_NN_interface.h ****   extern const LL_Buffer_InfoTypeDef *LL_ATON_Input_Buffers_Info_##network_name(void);             
 343:Lib/AI_Runtime/Npu/ll_aton/ll_aton_NN_interface.h ****   extern const LL_Buffer_InfoTypeDef *LL_ATON_Internal_Buffers_Info_##network_name(void);
 344:Lib/AI_Runtime/Npu/ll_aton/ll_aton_NN_interface.h **** 
 345:Lib/AI_Runtime/Npu/ll_aton/ll_aton_NN_interface.h ****   /**
 346:Lib/AI_Runtime/Npu/ll_aton/ll_aton_NN_interface.h ****    * @brief  Type definitions for NN interface functions
 347:Lib/AI_Runtime/Npu/ll_aton/ll_aton_NN_interface.h ****    */
 348:Lib/AI_Runtime/Npu/ll_aton/ll_aton_NN_interface.h ****   typedef bool (*NN_EC_Hook_TypeDef)(void);
 349:Lib/AI_Runtime/Npu/ll_aton/ll_aton_NN_interface.h ****   typedef LL_ATON_User_IO_Result_t (*NN_InputSetter_TypeDef)(uint32_t num, void *buffer, uint32_t s
 350:Lib/AI_Runtime/Npu/ll_aton/ll_aton_NN_interface.h ****   typedef void *(*NN_InputGetter_TypeDef)(uint32_t num);
 351:Lib/AI_Runtime/Npu/ll_aton/ll_aton_NN_interface.h ****   typedef LL_ATON_User_IO_Result_t (*NN_OutputSetter_TypeDef)(uint32_t num, void *buffer, uint32_t 
 352:Lib/AI_Runtime/Npu/ll_aton/ll_aton_NN_interface.h ****   typedef void *(*NN_OutputGetter_TypeDef)(uint32_t num);
 353:Lib/AI_Runtime/Npu/ll_aton/ll_aton_NN_interface.h ****   typedef const EpochBlock_ItemTypeDef *(*NN_EpochBlockItems_TypeDef)(void);
 354:Lib/AI_Runtime/Npu/ll_aton/ll_aton_NN_interface.h ****   typedef const LL_Buffer_InfoTypeDef *(*NN_Buffers_Info_TypeDef)(void);
 355:Lib/AI_Runtime/Npu/ll_aton/ll_aton_NN_interface.h **** 
 356:Lib/AI_Runtime/Npu/ll_aton/ll_aton_NN_interface.h ****   typedef void (*TraceRuntime_FuncPtr_t)(LL_ATON_RT_Callbacktype_t ctype);
 357:Lib/AI_Runtime/Npu/ll_aton/ll_aton_NN_interface.h **** 
 358:Lib/AI_Runtime/Npu/ll_aton/ll_aton_NN_interface.h ****   typedef void (*TraceEpochBlock_FuncPtr_t)(LL_ATON_RT_Callbacktype_t ctype, const NN_Instance_Type
 359:Lib/AI_Runtime/Npu/ll_aton/ll_aton_NN_interface.h ****                                             const EpochBlock_ItemTypeDef *epoch_block);
 360:Lib/AI_Runtime/Npu/ll_aton/ll_aton_NN_interface.h **** 
 361:Lib/AI_Runtime/Npu/ll_aton/ll_aton_NN_interface.h ****   typedef struct
 362:Lib/AI_Runtime/Npu/ll_aton/ll_aton_NN_interface.h ****   {
 363:Lib/AI_Runtime/Npu/ll_aton/ll_aton_NN_interface.h ****     const char *network_name;
 364:Lib/AI_Runtime/Npu/ll_aton/ll_aton_NN_interface.h ****     NN_EC_Hook_TypeDef ec_network_init;
 365:Lib/AI_Runtime/Npu/ll_aton/ll_aton_NN_interface.h ****     NN_EC_Hook_TypeDef ec_inference_init;
 366:Lib/AI_Runtime/Npu/ll_aton/ll_aton_NN_interface.h ****     NN_InputSetter_TypeDef input_setter;
 367:Lib/AI_Runtime/Npu/ll_aton/ll_aton_NN_interface.h ****     NN_InputGetter_TypeDef input_getter;
ARM GAS  /tmp/ccgnzMmM.s 			page 8


 368:Lib/AI_Runtime/Npu/ll_aton/ll_aton_NN_interface.h ****     NN_OutputSetter_TypeDef output_setter;
 369:Lib/AI_Runtime/Npu/ll_aton/ll_aton_NN_interface.h ****     NN_OutputGetter_TypeDef output_getter;
 370:Lib/AI_Runtime/Npu/ll_aton/ll_aton_NN_interface.h ****     NN_EpochBlockItems_TypeDef epoch_block_items;
 371:Lib/AI_Runtime/Npu/ll_aton/ll_aton_NN_interface.h ****     NN_Buffers_Info_TypeDef output_buffers_info;
 372:Lib/AI_Runtime/Npu/ll_aton/ll_aton_NN_interface.h ****     NN_Buffers_Info_TypeDef input_buffers_info;
 373:Lib/AI_Runtime/Npu/ll_aton/ll_aton_NN_interface.h ****     NN_Buffers_Info_TypeDef internal_buffers_info;
 374:Lib/AI_Runtime/Npu/ll_aton/ll_aton_NN_interface.h ****   } NN_Interface_TypeDef;
 375:Lib/AI_Runtime/Npu/ll_aton/ll_aton_NN_interface.h **** 
 376:Lib/AI_Runtime/Npu/ll_aton/ll_aton_NN_interface.h ****   typedef struct
 377:Lib/AI_Runtime/Npu/ll_aton/ll_aton_NN_interface.h ****   {
 378:Lib/AI_Runtime/Npu/ll_aton/ll_aton_NN_interface.h ****     const EpochBlock_ItemTypeDef *volatile current_epoch_block; // pointer to current epoch block
 379:Lib/AI_Runtime/Npu/ll_aton/ll_aton_NN_interface.h ****     const EpochBlock_ItemTypeDef *volatile first_epoch_block;   // pointer to first epoch block in 
 380:Lib/AI_Runtime/Npu/ll_aton/ll_aton_NN_interface.h ****     const EpochBlock_ItemTypeDef *volatile next_epoch_block;    // pointer to epoch block to be ins
 381:Lib/AI_Runtime/Npu/ll_aton/ll_aton_NN_interface.h **** 
 382:Lib/AI_Runtime/Npu/ll_aton/ll_aton_NN_interface.h ****     const EpochBlock_ItemTypeDef *volatile saved_current_epoch_block; // pointer to saved current e
 383:Lib/AI_Runtime/Npu/ll_aton/ll_aton_NN_interface.h ****     const EpochBlock_ItemTypeDef
 384:Lib/AI_Runtime/Npu/ll_aton/ll_aton_NN_interface.h ****         *volatile saved_first_epoch_block; // pointer to saved first epoch block in current epoch l
 385:Lib/AI_Runtime/Npu/ll_aton/ll_aton_NN_interface.h **** 
 386:Lib/AI_Runtime/Npu/ll_aton/ll_aton_NN_interface.h ****     bool inference_started; // inference has been started
 387:Lib/AI_Runtime/Npu/ll_aton/ll_aton_NN_interface.h **** 
 388:Lib/AI_Runtime/Npu/ll_aton/ll_aton_NN_interface.h **** #if (LL_ATON_RT_MODE == LL_ATON_RT_ASYNC)
 389:Lib/AI_Runtime/Npu/ll_aton/ll_aton_NN_interface.h ****     volatile uint32_t triggered_events;        // currently triggered events/IRQs in current epoch
 390:Lib/AI_Runtime/Npu/ll_aton/ll_aton_NN_interface.h ****     volatile bool current_epoch_block_started; // has current epoch block already been started
 391:Lib/AI_Runtime/Npu/ll_aton/ll_aton_NN_interface.h **** #endif                                         // (LL_ATON_RT_MODE == LL_ATON_RT_ASYNC)
 392:Lib/AI_Runtime/Npu/ll_aton/ll_aton_NN_interface.h **** 
 393:Lib/AI_Runtime/Npu/ll_aton/ll_aton_NN_interface.h **** #ifndef NDEBUG
 394:Lib/AI_Runtime/Npu/ll_aton/ll_aton_NN_interface.h ****     volatile uint32_t
 395:Lib/AI_Runtime/Npu/ll_aton/ll_aton_NN_interface.h ****         nr_of_epoch_blocks; // number of epoch blocks in network (includes also terminating empty e
 396:Lib/AI_Runtime/Npu/ll_aton/ll_aton_NN_interface.h ****     volatile uint32_t saved_nr_of_epoch_blocks; // number of epoch blocks in saved network (include
 397:Lib/AI_Runtime/Npu/ll_aton/ll_aton_NN_interface.h ****                                                 // empty epoch block)
 398:Lib/AI_Runtime/Npu/ll_aton/ll_aton_NN_interface.h **** #endif                                          // NDEBUG
 399:Lib/AI_Runtime/Npu/ll_aton/ll_aton_NN_interface.h **** 
 400:Lib/AI_Runtime/Npu/ll_aton/ll_aton_NN_interface.h ****     TraceEpochBlock_FuncPtr_t epoch_callback_function; // epoch callback function
 401:Lib/AI_Runtime/Npu/ll_aton/ll_aton_NN_interface.h **** 
 402:Lib/AI_Runtime/Npu/ll_aton/ll_aton_NN_interface.h **** #if defined(LL_ATON_RT_RELOC)
 403:Lib/AI_Runtime/Npu/ll_aton/ll_aton_NN_interface.h ****     uint32_t inst_reloc;
 404:Lib/AI_Runtime/Npu/ll_aton/ll_aton_NN_interface.h **** #endif
 405:Lib/AI_Runtime/Npu/ll_aton/ll_aton_NN_interface.h **** 
 406:Lib/AI_Runtime/Npu/ll_aton/ll_aton_NN_interface.h ****   } NN_Execution_State_TypeDef;
 407:Lib/AI_Runtime/Npu/ll_aton/ll_aton_NN_interface.h **** 
 408:Lib/AI_Runtime/Npu/ll_aton/ll_aton_NN_interface.h ****   struct __nn_instance_struct
 409:Lib/AI_Runtime/Npu/ll_aton/ll_aton_NN_interface.h ****   {
 410:Lib/AI_Runtime/Npu/ll_aton/ll_aton_NN_interface.h ****     const NN_Interface_TypeDef *network;
 411:Lib/AI_Runtime/Npu/ll_aton/ll_aton_NN_interface.h ****     NN_Execution_State_TypeDef exec_state;
 412:Lib/AI_Runtime/Npu/ll_aton/ll_aton_NN_interface.h ****   };
 413:Lib/AI_Runtime/Npu/ll_aton/ll_aton_NN_interface.h **** 
 414:Lib/AI_Runtime/Npu/ll_aton/ll_aton_NN_interface.h ****   /**
 415:Lib/AI_Runtime/Npu/ll_aton/ll_aton_NN_interface.h ****    * @}
 416:Lib/AI_Runtime/Npu/ll_aton/ll_aton_NN_interface.h ****    */
 417:Lib/AI_Runtime/Npu/ll_aton/ll_aton_NN_interface.h **** 
 418:Lib/AI_Runtime/Npu/ll_aton/ll_aton_NN_interface.h ****   /** @defgroup Helper Function Inline Implementations
 419:Lib/AI_Runtime/Npu/ll_aton/ll_aton_NN_interface.h ****    * @{
 420:Lib/AI_Runtime/Npu/ll_aton/ll_aton_NN_interface.h ****    */
 421:Lib/AI_Runtime/Npu/ll_aton/ll_aton_NN_interface.h **** 
 422:Lib/AI_Runtime/Npu/ll_aton/ll_aton_NN_interface.h ****   static inline bool EpochBlock_IsLastEpochBlock(const EpochBlock_ItemTypeDef *eb)
 423:Lib/AI_Runtime/Npu/ll_aton/ll_aton_NN_interface.h ****   {
 424:Lib/AI_Runtime/Npu/ll_aton/ll_aton_NN_interface.h ****     return ((eb->flags & EpochBlock_Flags_last_eb) != 0);
ARM GAS  /tmp/ccgnzMmM.s 			page 9


 425:Lib/AI_Runtime/Npu/ll_aton/ll_aton_NN_interface.h ****   }
 426:Lib/AI_Runtime/Npu/ll_aton/ll_aton_NN_interface.h **** 
 427:Lib/AI_Runtime/Npu/ll_aton/ll_aton_NN_interface.h ****   static inline bool EpochBlock_IsEpochStart(const EpochBlock_ItemTypeDef *eb)
 428:Lib/AI_Runtime/Npu/ll_aton/ll_aton_NN_interface.h ****   {
 429:Lib/AI_Runtime/Npu/ll_aton/ll_aton_NN_interface.h ****     return ((eb->flags & EpochBlock_Flags_epoch_start) != 0);
 430:Lib/AI_Runtime/Npu/ll_aton/ll_aton_NN_interface.h ****   }
 431:Lib/AI_Runtime/Npu/ll_aton/ll_aton_NN_interface.h **** 
 432:Lib/AI_Runtime/Npu/ll_aton/ll_aton_NN_interface.h ****   static inline bool EpochBlock_IsEpochEnd(const EpochBlock_ItemTypeDef *eb)
 433:Lib/AI_Runtime/Npu/ll_aton/ll_aton_NN_interface.h ****   {
 434:Lib/AI_Runtime/Npu/ll_aton/ll_aton_NN_interface.h ****     return ((eb->flags & EpochBlock_Flags_epoch_end) != 0);
 435:Lib/AI_Runtime/Npu/ll_aton/ll_aton_NN_interface.h ****   }
 436:Lib/AI_Runtime/Npu/ll_aton/ll_aton_NN_interface.h **** 
 437:Lib/AI_Runtime/Npu/ll_aton/ll_aton_NN_interface.h ****   static inline bool EpochBlock_IsEpochBlob(const EpochBlock_ItemTypeDef *eb)
 438:Lib/AI_Runtime/Npu/ll_aton/ll_aton_NN_interface.h ****   {
 439:Lib/AI_Runtime/Npu/ll_aton/ll_aton_NN_interface.h ****     return ((eb->flags & EpochBlock_Flags_blob) != 0);
 440:Lib/AI_Runtime/Npu/ll_aton/ll_aton_NN_interface.h ****   }
 441:Lib/AI_Runtime/Npu/ll_aton/ll_aton_NN_interface.h **** 
 442:Lib/AI_Runtime/Npu/ll_aton/ll_aton_NN_interface.h ****   static inline bool EpochBlock_IsBlobEncrypted(const EpochBlock_ItemTypeDef *eb)
 443:Lib/AI_Runtime/Npu/ll_aton/ll_aton_NN_interface.h ****   {
 444:Lib/AI_Runtime/Npu/ll_aton/ll_aton_NN_interface.h ****     return ((eb->flags & EpochBlock_Flags_blob_encrypted) != 0);
 445:Lib/AI_Runtime/Npu/ll_aton/ll_aton_NN_interface.h ****   }
 446:Lib/AI_Runtime/Npu/ll_aton/ll_aton_NN_interface.h **** 
 447:Lib/AI_Runtime/Npu/ll_aton/ll_aton_NN_interface.h ****   static inline bool EpochBlock_IsEpochPureSW(const EpochBlock_ItemTypeDef *eb)
 448:Lib/AI_Runtime/Npu/ll_aton/ll_aton_NN_interface.h ****   {
 449:Lib/AI_Runtime/Npu/ll_aton/ll_aton_NN_interface.h ****     return ((eb->flags & EpochBlock_Flags_pure_sw) != 0);
 450:Lib/AI_Runtime/Npu/ll_aton/ll_aton_NN_interface.h ****   }
 451:Lib/AI_Runtime/Npu/ll_aton/ll_aton_NN_interface.h **** 
 452:Lib/AI_Runtime/Npu/ll_aton/ll_aton_NN_interface.h ****   static inline bool EpochBlock_IsEpochPureHW(const EpochBlock_ItemTypeDef *eb)
 453:Lib/AI_Runtime/Npu/ll_aton/ll_aton_NN_interface.h ****   {
 454:Lib/AI_Runtime/Npu/ll_aton/ll_aton_NN_interface.h ****     return ((eb->flags & EpochBlock_Flags_pure_hw) != 0);
 455:Lib/AI_Runtime/Npu/ll_aton/ll_aton_NN_interface.h ****   }
 456:Lib/AI_Runtime/Npu/ll_aton/ll_aton_NN_interface.h **** 
 457:Lib/AI_Runtime/Npu/ll_aton/ll_aton_NN_interface.h ****   static inline bool EpochBlock_IsEpochHybrid(const EpochBlock_ItemTypeDef *eb)
 458:Lib/AI_Runtime/Npu/ll_aton/ll_aton_NN_interface.h ****   {
 459:Lib/AI_Runtime/Npu/ll_aton/ll_aton_NN_interface.h ****     return ((eb->flags & EpochBlock_Flags_hybrid) != 0);
 460:Lib/AI_Runtime/Npu/ll_aton/ll_aton_NN_interface.h ****   }
 461:Lib/AI_Runtime/Npu/ll_aton/ll_aton_NN_interface.h **** 
 462:Lib/AI_Runtime/Npu/ll_aton/ll_aton_NN_interface.h ****   static inline bool EpochBlock_IsEpochInternal(const EpochBlock_ItemTypeDef *eb)
 463:Lib/AI_Runtime/Npu/ll_aton/ll_aton_NN_interface.h ****   {
 464:Lib/AI_Runtime/Npu/ll_aton/ll_aton_NN_interface.h ****     return ((eb->flags & EpochBlock_Flags_internal) != 0);
 465:Lib/AI_Runtime/Npu/ll_aton/ll_aton_NN_interface.h ****   }
 466:Lib/AI_Runtime/Npu/ll_aton/ll_aton_NN_interface.h **** 
 467:Lib/AI_Runtime/Npu/ll_aton/ll_aton_NN_interface.h ****   static inline uint32_t EpochBlock_EpochControllerUnit(const EpochBlock_ItemTypeDef *eb)
 468:Lib/AI_Runtime/Npu/ll_aton/ll_aton_NN_interface.h ****   {
 469:Lib/AI_Runtime/Npu/ll_aton/ll_aton_NN_interface.h ****     LL_ATON_ASSERT(EpochBlock_IsEpochBlob(eb));
 470:Lib/AI_Runtime/Npu/ll_aton/ll_aton_NN_interface.h ****     return eb->wait_mask;
 471:Lib/AI_Runtime/Npu/ll_aton/ll_aton_NN_interface.h ****   }
 472:Lib/AI_Runtime/Npu/ll_aton/ll_aton_NN_interface.h **** 
 473:Lib/AI_Runtime/Npu/ll_aton/ll_aton_NN_interface.h ****   static inline uintptr_t EpochBlock_EpochBlobAddr(const EpochBlock_ItemTypeDef *eb)
 474:Lib/AI_Runtime/Npu/ll_aton/ll_aton_NN_interface.h ****   {
 475:Lib/AI_Runtime/Npu/ll_aton/ll_aton_NN_interface.h ****     LL_ATON_ASSERT(EpochBlock_IsEpochBlob(eb));
 476:Lib/AI_Runtime/Npu/ll_aton/ll_aton_NN_interface.h ****     return eb->blob_address;
 477:Lib/AI_Runtime/Npu/ll_aton/ll_aton_NN_interface.h ****   }
 478:Lib/AI_Runtime/Npu/ll_aton/ll_aton_NN_interface.h **** 
 479:Lib/AI_Runtime/Npu/ll_aton/ll_aton_NN_interface.h ****   static inline unsigned char *LL_Buffer_addr_base(const LL_Buffer_InfoTypeDef *buf)
 480:Lib/AI_Runtime/Npu/ll_aton/ll_aton_NN_interface.h ****   {
  34              		.loc 2 480 3
ARM GAS  /tmp/ccgnzMmM.s 			page 10


  35              		.cfi_startproc
  36              		@ args = 0, pretend = 0, frame = 16
  37              		@ frame_needed = 1, uses_anonymous_args = 0
  38              		@ link register save eliminated.
  39 0000 80B4     		push	{r7}
  40              		.cfi_def_cfa_offset 4
  41              		.cfi_offset 7, -4
  42 0002 85B0     		sub	sp, sp, #20
  43              		.cfi_def_cfa_offset 24
  44 0004 00AF     		add	r7, sp, #0
  45              		.cfi_def_cfa_register 7
  46 0006 7860     		str	r0, [r7, #4]
 481:Lib/AI_Runtime/Npu/ll_aton/ll_aton_NN_interface.h ****     if (buf->is_user_allocated)
  47              		.loc 2 481 12
  48 0008 7B68     		ldr	r3, [r7, #4]
  49 000a 1B7D     		ldrb	r3, [r3, #20]	@ zero_extendqisi2
  50              		.loc 2 481 8
  51 000c 002B     		cmp	r3, #0
  52 000e 05D0     		beq	.L2
  53              	.LBB2:
 482:Lib/AI_Runtime/Npu/ll_aton/ll_aton_NN_interface.h ****     {
 483:Lib/AI_Runtime/Npu/ll_aton/ll_aton_NN_interface.h ****       unsigned char **tmp = (unsigned char **)buf->addr_base.p;
  54              		.loc 2 483 23
  55 0010 7B68     		ldr	r3, [r7, #4]
  56 0012 5B68     		ldr	r3, [r3, #4]
  57 0014 FB60     		str	r3, [r7, #12]
 484:Lib/AI_Runtime/Npu/ll_aton/ll_aton_NN_interface.h ****       return *tmp;
  58              		.loc 2 484 14
  59 0016 FB68     		ldr	r3, [r7, #12]
  60 0018 1B68     		ldr	r3, [r3]
  61 001a 01E0     		b	.L3
  62              	.L2:
  63              	.LBE2:
 485:Lib/AI_Runtime/Npu/ll_aton/ll_aton_NN_interface.h ****     }
 486:Lib/AI_Runtime/Npu/ll_aton/ll_aton_NN_interface.h ****     return buf->addr_base.p;
  64              		.loc 2 486 26
  65 001c 7B68     		ldr	r3, [r7, #4]
  66 001e 5B68     		ldr	r3, [r3, #4]
  67              	.L3:
 487:Lib/AI_Runtime/Npu/ll_aton/ll_aton_NN_interface.h ****   }
  68              		.loc 2 487 3
  69 0020 1846     		mov	r0, r3
  70 0022 1437     		adds	r7, r7, #20
  71              		.cfi_def_cfa_offset 4
  72 0024 BD46     		mov	sp, r7
  73              		.cfi_def_cfa_register 13
  74              		@ sp needed
  75 0026 5DF8047B 		ldr	r7, [sp], #4
  76              		.cfi_restore 7
  77              		.cfi_def_cfa_offset 0
  78 002a 7047     		bx	lr
  79              		.cfi_endproc
  80              	.LFE4825:
  82              		.section	.text.LL_Buffer_addr_start,"ax",%progbits
  83              		.align	1
  84              		.syntax unified
  85              		.thumb
ARM GAS  /tmp/ccgnzMmM.s 			page 11


  86              		.thumb_func
  88              	LL_Buffer_addr_start:
  89              	.LFB4826:
 488:Lib/AI_Runtime/Npu/ll_aton/ll_aton_NN_interface.h **** 
 489:Lib/AI_Runtime/Npu/ll_aton/ll_aton_NN_interface.h ****   static inline unsigned char *LL_Buffer_addr_start(const LL_Buffer_InfoTypeDef *buf)
 490:Lib/AI_Runtime/Npu/ll_aton/ll_aton_NN_interface.h ****   {
  90              		.loc 2 490 3
  91              		.cfi_startproc
  92              		@ args = 0, pretend = 0, frame = 8
  93              		@ frame_needed = 1, uses_anonymous_args = 0
  94 0000 80B5     		push	{r7, lr}
  95              		.cfi_def_cfa_offset 8
  96              		.cfi_offset 7, -8
  97              		.cfi_offset 14, -4
  98 0002 82B0     		sub	sp, sp, #8
  99              		.cfi_def_cfa_offset 16
 100 0004 00AF     		add	r7, sp, #0
 101              		.cfi_def_cfa_register 7
 102 0006 7860     		str	r0, [r7, #4]
 491:Lib/AI_Runtime/Npu/ll_aton/ll_aton_NN_interface.h ****     return LL_Buffer_addr_base(buf) + buf->offset_start;
 103              		.loc 2 491 12
 104 0008 7868     		ldr	r0, [r7, #4]
 105 000a FFF7FEFF 		bl	LL_Buffer_addr_base
 106 000e 0246     		mov	r2, r0
 107              		.loc 2 491 42 discriminator 1
 108 0010 7B68     		ldr	r3, [r7, #4]
 109 0012 9B68     		ldr	r3, [r3, #8]
 110              		.loc 2 491 37 discriminator 1
 111 0014 1344     		add	r3, r3, r2
 492:Lib/AI_Runtime/Npu/ll_aton/ll_aton_NN_interface.h ****   }
 112              		.loc 2 492 3
 113 0016 1846     		mov	r0, r3
 114 0018 0837     		adds	r7, r7, #8
 115              		.cfi_def_cfa_offset 8
 116 001a BD46     		mov	sp, r7
 117              		.cfi_def_cfa_register 13
 118              		@ sp needed
 119 001c 80BD     		pop	{r7, pc}
 120              		.cfi_endproc
 121              	.LFE4826:
 123              		.section	.text.LL_Buffer_len,"ax",%progbits
 124              		.align	1
 125              		.syntax unified
 126              		.thumb
 127              		.thumb_func
 129              	LL_Buffer_len:
 130              	.LFB4829:
 493:Lib/AI_Runtime/Npu/ll_aton/ll_aton_NN_interface.h **** 
 494:Lib/AI_Runtime/Npu/ll_aton/ll_aton_NN_interface.h ****   static inline unsigned char *LL_Buffer_addr_end(const LL_Buffer_InfoTypeDef *buf)
 495:Lib/AI_Runtime/Npu/ll_aton/ll_aton_NN_interface.h ****   {
 496:Lib/AI_Runtime/Npu/ll_aton/ll_aton_NN_interface.h ****     return LL_Buffer_addr_base(buf) + buf->offset_end;
 497:Lib/AI_Runtime/Npu/ll_aton/ll_aton_NN_interface.h ****   }
 498:Lib/AI_Runtime/Npu/ll_aton/ll_aton_NN_interface.h **** 
 499:Lib/AI_Runtime/Npu/ll_aton/ll_aton_NN_interface.h ****   static inline unsigned char *LL_Buffer_addr_limit(const LL_Buffer_InfoTypeDef *buf)
 500:Lib/AI_Runtime/Npu/ll_aton/ll_aton_NN_interface.h ****   {
 501:Lib/AI_Runtime/Npu/ll_aton/ll_aton_NN_interface.h ****     return LL_Buffer_addr_base(buf) + buf->offset_limit;
 502:Lib/AI_Runtime/Npu/ll_aton/ll_aton_NN_interface.h ****   }
ARM GAS  /tmp/ccgnzMmM.s 			page 12


 503:Lib/AI_Runtime/Npu/ll_aton/ll_aton_NN_interface.h **** 
 504:Lib/AI_Runtime/Npu/ll_aton/ll_aton_NN_interface.h ****   static inline uint32_t LL_Buffer_len(const LL_Buffer_InfoTypeDef *buf)
 505:Lib/AI_Runtime/Npu/ll_aton/ll_aton_NN_interface.h ****   {
 131              		.loc 2 505 3
 132              		.cfi_startproc
 133              		@ args = 0, pretend = 0, frame = 8
 134              		@ frame_needed = 1, uses_anonymous_args = 0
 135              		@ link register save eliminated.
 136 0000 80B4     		push	{r7}
 137              		.cfi_def_cfa_offset 4
 138              		.cfi_offset 7, -4
 139 0002 83B0     		sub	sp, sp, #12
 140              		.cfi_def_cfa_offset 16
 141 0004 00AF     		add	r7, sp, #0
 142              		.cfi_def_cfa_register 7
 143 0006 7860     		str	r0, [r7, #4]
 506:Lib/AI_Runtime/Npu/ll_aton/ll_aton_NN_interface.h ****     return buf->offset_end - buf->offset_start;
 144              		.loc 2 506 15
 145 0008 7B68     		ldr	r3, [r7, #4]
 146 000a DA68     		ldr	r2, [r3, #12]
 147              		.loc 2 506 33
 148 000c 7B68     		ldr	r3, [r7, #4]
 149 000e 9B68     		ldr	r3, [r3, #8]
 150              		.loc 2 506 28
 151 0010 D31A     		subs	r3, r2, r3
 507:Lib/AI_Runtime/Npu/ll_aton/ll_aton_NN_interface.h ****   }
 152              		.loc 2 507 3
 153 0012 1846     		mov	r0, r3
 154 0014 0C37     		adds	r7, r7, #12
 155              		.cfi_def_cfa_offset 4
 156 0016 BD46     		mov	sp, r7
 157              		.cfi_def_cfa_register 13
 158              		@ sp needed
 159 0018 5DF8047B 		ldr	r7, [sp], #4
 160              		.cfi_restore 7
 161              		.cfi_def_cfa_offset 0
 162 001c 7047     		bx	lr
 163              		.cfi_endproc
 164              	.LFE4829:
 166              		.section	.text.LL_ATON_Cache_MCU_Clean_Range,"ax",%progbits
 167              		.align	1
 168              		.syntax unified
 169              		.thumb
 170              		.thumb_func
 172              	LL_ATON_Cache_MCU_Clean_Range:
 173              	.LFB4831:
 174              		.file 3 "Lib/AI_Runtime/Npu/ll_aton/ll_aton_caches_interface.h"
   1:Lib/AI_Runtime/Npu/ll_aton/ll_aton_caches_interface.h **** /**
   2:Lib/AI_Runtime/Npu/ll_aton/ll_aton_caches_interface.h ****  ******************************************************************************
   3:Lib/AI_Runtime/Npu/ll_aton/ll_aton_caches_interface.h ****  * @file    ll_aton_caches_interface.h
   4:Lib/AI_Runtime/Npu/ll_aton/ll_aton_caches_interface.h ****  * @author  SRA Artificial Intelligence & Embedded Architectures
   5:Lib/AI_Runtime/Npu/ll_aton/ll_aton_caches_interface.h ****  * @brief   Header file for defining an implementing generic cache handling
   6:Lib/AI_Runtime/Npu/ll_aton/ll_aton_caches_interface.h ****  *          functions for the application writer
   7:Lib/AI_Runtime/Npu/ll_aton/ll_aton_caches_interface.h ****  ******************************************************************************
   8:Lib/AI_Runtime/Npu/ll_aton/ll_aton_caches_interface.h ****  * @attention
   9:Lib/AI_Runtime/Npu/ll_aton/ll_aton_caches_interface.h ****  *
  10:Lib/AI_Runtime/Npu/ll_aton/ll_aton_caches_interface.h ****  * Copyright (c) 2024 STMicroelectronics.
ARM GAS  /tmp/ccgnzMmM.s 			page 13


  11:Lib/AI_Runtime/Npu/ll_aton/ll_aton_caches_interface.h ****  * All rights reserved.
  12:Lib/AI_Runtime/Npu/ll_aton/ll_aton_caches_interface.h ****  *
  13:Lib/AI_Runtime/Npu/ll_aton/ll_aton_caches_interface.h ****  * This software is licensed under terms that can be found in the LICENSE file
  14:Lib/AI_Runtime/Npu/ll_aton/ll_aton_caches_interface.h ****  * in the root directory of this software component.
  15:Lib/AI_Runtime/Npu/ll_aton/ll_aton_caches_interface.h ****  * If no LICENSE file comes with this software, it is provided AS-IS.
  16:Lib/AI_Runtime/Npu/ll_aton/ll_aton_caches_interface.h ****  *
  17:Lib/AI_Runtime/Npu/ll_aton/ll_aton_caches_interface.h ****  ******************************************************************************
  18:Lib/AI_Runtime/Npu/ll_aton/ll_aton_caches_interface.h ****  */
  19:Lib/AI_Runtime/Npu/ll_aton/ll_aton_caches_interface.h **** 
  20:Lib/AI_Runtime/Npu/ll_aton/ll_aton_caches_interface.h **** #ifndef __LL_ATON_CACHES_H
  21:Lib/AI_Runtime/Npu/ll_aton/ll_aton_caches_interface.h **** #define __LL_ATON_CACHES_H
  22:Lib/AI_Runtime/Npu/ll_aton/ll_aton_caches_interface.h **** 
  23:Lib/AI_Runtime/Npu/ll_aton/ll_aton_caches_interface.h **** #include <stdint.h>
  24:Lib/AI_Runtime/Npu/ll_aton/ll_aton_caches_interface.h **** 
  25:Lib/AI_Runtime/Npu/ll_aton/ll_aton_caches_interface.h **** #ifdef __cplusplus
  26:Lib/AI_Runtime/Npu/ll_aton/ll_aton_caches_interface.h **** extern "C"
  27:Lib/AI_Runtime/Npu/ll_aton/ll_aton_caches_interface.h **** {
  28:Lib/AI_Runtime/Npu/ll_aton/ll_aton_caches_interface.h **** #endif
  29:Lib/AI_Runtime/Npu/ll_aton/ll_aton_caches_interface.h **** 
  30:Lib/AI_Runtime/Npu/ll_aton/ll_aton_caches_interface.h **** #include "ll_aton_osal.h"
  31:Lib/AI_Runtime/Npu/ll_aton/ll_aton_caches_interface.h **** #include "ll_aton_platform.h"
  32:Lib/AI_Runtime/Npu/ll_aton/ll_aton_caches_interface.h **** 
  33:Lib/AI_Runtime/Npu/ll_aton/ll_aton_caches_interface.h **** #if !defined(BUILD_AI_NETWORK_RELOC)
  34:Lib/AI_Runtime/Npu/ll_aton/ll_aton_caches_interface.h **** 
  35:Lib/AI_Runtime/Npu/ll_aton/ll_aton_caches_interface.h **** #if (LL_ATON_PLATFORM == LL_ATON_PLAT_STM32N6)
  36:Lib/AI_Runtime/Npu/ll_aton/ll_aton_caches_interface.h **** 
  37:Lib/AI_Runtime/Npu/ll_aton/ll_aton_caches_interface.h ****   /*** MCU cache maintenance functions ***/
  38:Lib/AI_Runtime/Npu/ll_aton/ll_aton_caches_interface.h **** 
  39:Lib/AI_Runtime/Npu/ll_aton/ll_aton_caches_interface.h ****   /**
  40:Lib/AI_Runtime/Npu/ll_aton/ll_aton_caches_interface.h ****    * @brief perform MCU cache clean maintenance operation on an address range
  41:Lib/AI_Runtime/Npu/ll_aton/ll_aton_caches_interface.h ****    * @details whenever the content of a buffer is changed by the application (which is especially t
  42:Lib/AI_Runtime/Npu/ll_aton/ll_aton_caches_interface.h ****    *          buffers) cache maintenance MUST be taken into account before being able to run the ne
  43:Lib/AI_Runtime/Npu/ll_aton/ll_aton_caches_interface.h ****    * @param[in] virtual_addr start address (host-side/virtual) of address range
  44:Lib/AI_Runtime/Npu/ll_aton/ll_aton_caches_interface.h ****    * @param[in] size size of address range
  45:Lib/AI_Runtime/Npu/ll_aton/ll_aton_caches_interface.h ****    *
  46:Lib/AI_Runtime/Npu/ll_aton/ll_aton_caches_interface.h ****    * @note the address range should fulfill alignment constraints with respect to the MCU cache lin
  47:Lib/AI_Runtime/Npu/ll_aton/ll_aton_caches_interface.h ****    *       for both its `address` & `size` (to better correspond to what this operation will actual
  48:Lib/AI_Runtime/Npu/ll_aton/ll_aton_caches_interface.h ****    * @note this function is intended to handle the case where a buffer has been filled by the MCU/p
  49:Lib/AI_Runtime/Npu/ll_aton/ll_aton_caches_interface.h ****    *       passing thru the MCU cache) and should be called AFTER that the buffer has been filled
  50:Lib/AI_Runtime/Npu/ll_aton/ll_aton_caches_interface.h ****    */
  51:Lib/AI_Runtime/Npu/ll_aton/ll_aton_caches_interface.h ****   static inline void LL_ATON_Cache_MCU_Clean_Range(uintptr_t virtual_addr, uint32_t size)
  52:Lib/AI_Runtime/Npu/ll_aton/ll_aton_caches_interface.h ****   {
 175              		.loc 3 52 3
 176              		.cfi_startproc
 177              		@ args = 0, pretend = 0, frame = 8
 178              		@ frame_needed = 1, uses_anonymous_args = 0
 179 0000 80B5     		push	{r7, lr}
 180              		.cfi_def_cfa_offset 8
 181              		.cfi_offset 7, -8
 182              		.cfi_offset 14, -4
 183 0002 82B0     		sub	sp, sp, #8
 184              		.cfi_def_cfa_offset 16
 185 0004 00AF     		add	r7, sp, #0
 186              		.cfi_def_cfa_register 7
 187 0006 7860     		str	r0, [r7, #4]
 188 0008 3960     		str	r1, [r7]
  53:Lib/AI_Runtime/Npu/ll_aton/ll_aton_caches_interface.h ****     LL_ATON_OSAL_LOCK_MCU_CACHE();
ARM GAS  /tmp/ccgnzMmM.s 			page 14


  54:Lib/AI_Runtime/Npu/ll_aton/ll_aton_caches_interface.h ****     mcu_cache_clean_range(virtual_addr, virtual_addr + size);
 189              		.loc 3 54 5
 190 000a 7A68     		ldr	r2, [r7, #4]
 191 000c 3B68     		ldr	r3, [r7]
 192 000e 1344     		add	r3, r3, r2
 193 0010 1946     		mov	r1, r3
 194 0012 7868     		ldr	r0, [r7, #4]
 195 0014 FFF7FEFF 		bl	mcu_cache_clean_range
  55:Lib/AI_Runtime/Npu/ll_aton/ll_aton_caches_interface.h ****     LL_ATON_OSAL_UNLOCK_MCU_CACHE();
  56:Lib/AI_Runtime/Npu/ll_aton/ll_aton_caches_interface.h ****   }
 196              		.loc 3 56 3
 197 0018 00BF     		nop
 198 001a 0837     		adds	r7, r7, #8
 199              		.cfi_def_cfa_offset 8
 200 001c BD46     		mov	sp, r7
 201              		.cfi_def_cfa_register 13
 202              		@ sp needed
 203 001e 80BD     		pop	{r7, pc}
 204              		.cfi_endproc
 205              	.LFE4831:
 207              		.section	.text.LL_ATON_Cache_MCU_Clean_Invalidate_Range,"ax",%progbits
 208              		.align	1
 209              		.syntax unified
 210              		.thumb
 211              		.thumb_func
 213              	LL_ATON_Cache_MCU_Clean_Invalidate_Range:
 214              	.LFB4833:
  57:Lib/AI_Runtime/Npu/ll_aton/ll_aton_caches_interface.h **** 
  58:Lib/AI_Runtime/Npu/ll_aton/ll_aton_caches_interface.h ****   /**
  59:Lib/AI_Runtime/Npu/ll_aton/ll_aton_caches_interface.h ****    * @brief perform MCU cache invalidate maintenance operation on an address range
  60:Lib/AI_Runtime/Npu/ll_aton/ll_aton_caches_interface.h ****    * @details whenever the content of a buffer is changed by the application (which is especially t
  61:Lib/AI_Runtime/Npu/ll_aton/ll_aton_caches_interface.h ****    *          buffers) cache maintenance MUST be taken into account before being able to run the ne
  62:Lib/AI_Runtime/Npu/ll_aton/ll_aton_caches_interface.h ****    * @param[in] virtual_addr start address (host-side/virtual) of address range
  63:Lib/AI_Runtime/Npu/ll_aton/ll_aton_caches_interface.h ****    * @param[in] size size of address range
  64:Lib/AI_Runtime/Npu/ll_aton/ll_aton_caches_interface.h ****    *
  65:Lib/AI_Runtime/Npu/ll_aton/ll_aton_caches_interface.h ****    * @note the address range should fulfill alignment constraints with respect to the MCU cache lin
  66:Lib/AI_Runtime/Npu/ll_aton/ll_aton_caches_interface.h ****    *       for both its `address` & `size` (to better correspond to what this operation will actual
  67:Lib/AI_Runtime/Npu/ll_aton/ll_aton_caches_interface.h ****    * @note this function is intended to handle the case where a buffer has been filled by-passing t
  68:Lib/AI_Runtime/Npu/ll_aton/ll_aton_caches_interface.h ****    *       cache (e.g. using a DMA) and should be called BEFORE the buffer gets filled
  69:Lib/AI_Runtime/Npu/ll_aton/ll_aton_caches_interface.h ****    */
  70:Lib/AI_Runtime/Npu/ll_aton/ll_aton_caches_interface.h ****   static inline void LL_ATON_Cache_MCU_Invalidate_Range(uintptr_t virtual_addr, uint32_t size)
  71:Lib/AI_Runtime/Npu/ll_aton/ll_aton_caches_interface.h ****   {
  72:Lib/AI_Runtime/Npu/ll_aton/ll_aton_caches_interface.h ****     LL_ATON_OSAL_LOCK_MCU_CACHE();
  73:Lib/AI_Runtime/Npu/ll_aton/ll_aton_caches_interface.h ****     mcu_cache_invalidate_range(virtual_addr, virtual_addr + size);
  74:Lib/AI_Runtime/Npu/ll_aton/ll_aton_caches_interface.h ****     LL_ATON_OSAL_UNLOCK_MCU_CACHE();
  75:Lib/AI_Runtime/Npu/ll_aton/ll_aton_caches_interface.h ****   }
  76:Lib/AI_Runtime/Npu/ll_aton/ll_aton_caches_interface.h **** 
  77:Lib/AI_Runtime/Npu/ll_aton/ll_aton_caches_interface.h ****   /**
  78:Lib/AI_Runtime/Npu/ll_aton/ll_aton_caches_interface.h ****    * @brief perform MCU cache clean & invalidate maintenance operation on an address range
  79:Lib/AI_Runtime/Npu/ll_aton/ll_aton_caches_interface.h ****    * @details whenever the content of a buffer is changed by the application (which is especially t
  80:Lib/AI_Runtime/Npu/ll_aton/ll_aton_caches_interface.h ****    *          buffers) cache maintenance MUST be taken into account before being able to run the ne
  81:Lib/AI_Runtime/Npu/ll_aton/ll_aton_caches_interface.h ****    * @param[in] virtual_addr start address (host-side/virtual) of address range
  82:Lib/AI_Runtime/Npu/ll_aton/ll_aton_caches_interface.h ****    * @param[in] size size of address range
  83:Lib/AI_Runtime/Npu/ll_aton/ll_aton_caches_interface.h ****    *
  84:Lib/AI_Runtime/Npu/ll_aton/ll_aton_caches_interface.h ****    * @note the address range should fulfill alignment constraints with respect to the MCU cache lin
  85:Lib/AI_Runtime/Npu/ll_aton/ll_aton_caches_interface.h ****    *       for both its `address` & `size` (to better correspond to what this operation will actual
  86:Lib/AI_Runtime/Npu/ll_aton/ll_aton_caches_interface.h ****    * @note this function is intended to handle the case where a buffer has been filled by the MCU/p
ARM GAS  /tmp/ccgnzMmM.s 			page 15


  87:Lib/AI_Runtime/Npu/ll_aton/ll_aton_caches_interface.h ****    *       (such passing thru the MCU cache) and is gonna to be modified immediately afterwards by-
  88:Lib/AI_Runtime/Npu/ll_aton/ll_aton_caches_interface.h ****    *       the MCU/processor cache (e.g. using a DMA). It should be called AFTER that the buffer ha
  89:Lib/AI_Runtime/Npu/ll_aton/ll_aton_caches_interface.h ****    *       filled
  90:Lib/AI_Runtime/Npu/ll_aton/ll_aton_caches_interface.h ****    */
  91:Lib/AI_Runtime/Npu/ll_aton/ll_aton_caches_interface.h ****   static inline void LL_ATON_Cache_MCU_Clean_Invalidate_Range(uintptr_t virtual_addr, uint32_t size
  92:Lib/AI_Runtime/Npu/ll_aton/ll_aton_caches_interface.h ****   {
 215              		.loc 3 92 3
 216              		.cfi_startproc
 217              		@ args = 0, pretend = 0, frame = 8
 218              		@ frame_needed = 1, uses_anonymous_args = 0
 219 0000 80B5     		push	{r7, lr}
 220              		.cfi_def_cfa_offset 8
 221              		.cfi_offset 7, -8
 222              		.cfi_offset 14, -4
 223 0002 82B0     		sub	sp, sp, #8
 224              		.cfi_def_cfa_offset 16
 225 0004 00AF     		add	r7, sp, #0
 226              		.cfi_def_cfa_register 7
 227 0006 7860     		str	r0, [r7, #4]
 228 0008 3960     		str	r1, [r7]
  93:Lib/AI_Runtime/Npu/ll_aton/ll_aton_caches_interface.h ****     LL_ATON_OSAL_LOCK_MCU_CACHE();
  94:Lib/AI_Runtime/Npu/ll_aton/ll_aton_caches_interface.h ****     mcu_cache_clean_invalidate_range(virtual_addr, virtual_addr + size);
 229              		.loc 3 94 5
 230 000a 7A68     		ldr	r2, [r7, #4]
 231 000c 3B68     		ldr	r3, [r7]
 232 000e 1344     		add	r3, r3, r2
 233 0010 1946     		mov	r1, r3
 234 0012 7868     		ldr	r0, [r7, #4]
 235 0014 FFF7FEFF 		bl	mcu_cache_clean_invalidate_range
  95:Lib/AI_Runtime/Npu/ll_aton/ll_aton_caches_interface.h ****     LL_ATON_OSAL_UNLOCK_MCU_CACHE();
  96:Lib/AI_Runtime/Npu/ll_aton/ll_aton_caches_interface.h ****   }
 236              		.loc 3 96 3
 237 0018 00BF     		nop
 238 001a 0837     		adds	r7, r7, #8
 239              		.cfi_def_cfa_offset 8
 240 001c BD46     		mov	sp, r7
 241              		.cfi_def_cfa_register 13
 242              		@ sp needed
 243 001e 80BD     		pop	{r7, pc}
 244              		.cfi_endproc
 245              	.LFE4833:
 247              		.section	.rodata
 248              		.align	2
 249              	.LC0:
 250 0000 28282875 		.ascii	"(((uintptr_t)in_target) % 2) == 0\000"
 250      696E7470 
 250      74725F74 
 250      29696E5F 
 250      74617267 
 251 0022 0000     		.align	2
 252              	.LC1:
 253 0024 4C69622F 		.ascii	"Lib/AI_Runtime/Npu/ll_aton/ll_aton_lib_sw_operators"
 253      41495F52 
 253      756E7469 
 253      6D652F4E 
 253      70752F6C 
 254 0057 2E6300   		.ascii	".c\000"
ARM GAS  /tmp/ccgnzMmM.s 			page 16


 255 005a 0000     		.align	2
 256              	.LC2:
 257 005c 28282875 		.ascii	"(((uintptr_t)out_target) % 2) == 0\000"
 257      696E7470 
 257      74725F74 
 257      296F7574 
 257      5F746172 
 258 007f 00       		.align	2
 259              	.LC3:
 260 0080 28282875 		.ascii	"(((uintptr_t)in_target) % 4) == 0\000"
 260      696E7470 
 260      74725F74 
 260      29696E5F 
 260      74617267 
 261 00a2 0000     		.align	2
 262              	.LC4:
 263 00a4 28282875 		.ascii	"(((uintptr_t)out_target) % 4) == 0\000"
 263      696E7470 
 263      74725F74 
 263      296F7574 
 263      5F746172 
 264 00c7 00       		.align	2
 265              	.LC5:
 266 00c8 3000     		.ascii	"0\000"
 267              		.section	.text.__ll_aton_lib_copy_element,"ax",%progbits
 268              		.align	1
 269              		.syntax unified
 270              		.thumb
 271              		.thumb_func
 273              	__ll_aton_lib_copy_element:
 274              	.LFB4854:
   1:Lib/AI_Runtime/Npu/ll_aton/ll_aton_lib_sw_operators.c **** /**
   2:Lib/AI_Runtime/Npu/ll_aton/ll_aton_lib_sw_operators.c ****  ******************************************************************************
   3:Lib/AI_Runtime/Npu/ll_aton/ll_aton_lib_sw_operators.c ****  * @file    ll_aton_lib_sw_operators.c
   4:Lib/AI_Runtime/Npu/ll_aton/ll_aton_lib_sw_operators.c ****  * @author  SRA Artificial Intelligence & Embedded Architectures
   5:Lib/AI_Runtime/Npu/ll_aton/ll_aton_lib_sw_operators.c ****  * @brief   ATON library for pure SW operators
   6:Lib/AI_Runtime/Npu/ll_aton/ll_aton_lib_sw_operators.c ****  ******************************************************************************
   7:Lib/AI_Runtime/Npu/ll_aton/ll_aton_lib_sw_operators.c ****  * @attention
   8:Lib/AI_Runtime/Npu/ll_aton/ll_aton_lib_sw_operators.c ****  *
   9:Lib/AI_Runtime/Npu/ll_aton/ll_aton_lib_sw_operators.c ****  * Copyright (c) 2024 STMicroelectronics.
  10:Lib/AI_Runtime/Npu/ll_aton/ll_aton_lib_sw_operators.c ****  * All rights reserved.
  11:Lib/AI_Runtime/Npu/ll_aton/ll_aton_lib_sw_operators.c ****  *
  12:Lib/AI_Runtime/Npu/ll_aton/ll_aton_lib_sw_operators.c ****  * This software is licensed under terms that can be found in the LICENSE file
  13:Lib/AI_Runtime/Npu/ll_aton/ll_aton_lib_sw_operators.c ****  * in the root directory of this software component.
  14:Lib/AI_Runtime/Npu/ll_aton/ll_aton_lib_sw_operators.c ****  * If no LICENSE file comes with this software, it is provided AS-IS.
  15:Lib/AI_Runtime/Npu/ll_aton/ll_aton_lib_sw_operators.c ****  *
  16:Lib/AI_Runtime/Npu/ll_aton/ll_aton_lib_sw_operators.c ****  ******************************************************************************
  17:Lib/AI_Runtime/Npu/ll_aton/ll_aton_lib_sw_operators.c ****  */
  18:Lib/AI_Runtime/Npu/ll_aton/ll_aton_lib_sw_operators.c **** 
  19:Lib/AI_Runtime/Npu/ll_aton/ll_aton_lib_sw_operators.c **** #include <inttypes.h>
  20:Lib/AI_Runtime/Npu/ll_aton/ll_aton_lib_sw_operators.c **** #include <stdbool.h>
  21:Lib/AI_Runtime/Npu/ll_aton/ll_aton_lib_sw_operators.c **** #include <stdint.h>
  22:Lib/AI_Runtime/Npu/ll_aton/ll_aton_lib_sw_operators.c **** 
  23:Lib/AI_Runtime/Npu/ll_aton/ll_aton_lib_sw_operators.c **** #include "ll_aton_util.h" // Leave blank line after the include
  24:Lib/AI_Runtime/Npu/ll_aton/ll_aton_lib_sw_operators.c **** 
  25:Lib/AI_Runtime/Npu/ll_aton/ll_aton_lib_sw_operators.c **** #include "ll_aton_lib.h"
  26:Lib/AI_Runtime/Npu/ll_aton/ll_aton_lib_sw_operators.c **** #include "ll_aton_lib_sw_operators.h"
ARM GAS  /tmp/ccgnzMmM.s 			page 17


  27:Lib/AI_Runtime/Npu/ll_aton/ll_aton_lib_sw_operators.c **** #include "ll_aton_runtime.h"
  28:Lib/AI_Runtime/Npu/ll_aton/ll_aton_lib_sw_operators.c **** 
  29:Lib/AI_Runtime/Npu/ll_aton/ll_aton_lib_sw_operators.c **** /* Common data structure(s) */
  30:Lib/AI_Runtime/Npu/ll_aton/ll_aton_lib_sw_operators.c **** typedef struct __ll_stack_lnklst
  31:Lib/AI_Runtime/Npu/ll_aton/ll_aton_lib_sw_operators.c **** {
  32:Lib/AI_Runtime/Npu/ll_aton/ll_aton_lib_sw_operators.c ****   struct __ll_stack_lnklst *back_link;
  33:Lib/AI_Runtime/Npu/ll_aton/ll_aton_lib_sw_operators.c ****   uint32_t axis;
  34:Lib/AI_Runtime/Npu/ll_aton/ll_aton_lib_sw_operators.c ****   uint32_t index;
  35:Lib/AI_Runtime/Npu/ll_aton/ll_aton_lib_sw_operators.c **** } __ll_stack_lnklst_t;
  36:Lib/AI_Runtime/Npu/ll_aton/ll_aton_lib_sw_operators.c **** 
  37:Lib/AI_Runtime/Npu/ll_aton/ll_aton_lib_sw_operators.c **** /* Helper Functions */
  38:Lib/AI_Runtime/Npu/ll_aton/ll_aton_lib_sw_operators.c **** static inline void __ll_aton_lib_copy_element(uint8_t nbytes, int32_t index, int8_t *out_target, in
  39:Lib/AI_Runtime/Npu/ll_aton/ll_aton_lib_sw_operators.c **** {
 275              		.loc 1 39 1
 276              		.cfi_startproc
 277              		@ args = 0, pretend = 0, frame = 16
 278              		@ frame_needed = 1, uses_anonymous_args = 0
 279 0000 80B5     		push	{r7, lr}
 280              		.cfi_def_cfa_offset 8
 281              		.cfi_offset 7, -8
 282              		.cfi_offset 14, -4
 283 0002 84B0     		sub	sp, sp, #16
 284              		.cfi_def_cfa_offset 24
 285 0004 00AF     		add	r7, sp, #0
 286              		.cfi_def_cfa_register 7
 287 0006 B960     		str	r1, [r7, #8]
 288 0008 7A60     		str	r2, [r7, #4]
 289 000a 3B60     		str	r3, [r7]
 290 000c 0346     		mov	r3, r0
 291 000e FB73     		strb	r3, [r7, #15]
  40:Lib/AI_Runtime/Npu/ll_aton/ll_aton_lib_sw_operators.c ****   LL_ATON_LIB_UNUSED(index);
  41:Lib/AI_Runtime/Npu/ll_aton/ll_aton_lib_sw_operators.c **** 
  42:Lib/AI_Runtime/Npu/ll_aton/ll_aton_lib_sw_operators.c ****   switch (nbytes)
 292              		.loc 1 42 3
 293 0010 FB7B     		ldrb	r3, [r7, #15]	@ zero_extendqisi2
 294 0012 013B     		subs	r3, r3, #1
 295 0014 032B     		cmp	r3, #3
 296 0016 64D8     		bhi	.L11
 297 0018 01A2     		adr	r2, .L13
 298 001a 52F823F0 		ldr	pc, [r2, r3, lsl #2]
 299 001e 00BF     		.p2align 2
 300              	.L13:
 301 0020 31000000 		.word	.L16+1
 302 0024 3D000000 		.word	.L15+1
 303 0028 75000000 		.word	.L14+1
 304 002c AD000000 		.word	.L12+1
 305              		.p2align 1
 306              	.L16:
  43:Lib/AI_Runtime/Npu/ll_aton/ll_aton_lib_sw_operators.c ****   {
  44:Lib/AI_Runtime/Npu/ll_aton/ll_aton_lib_sw_operators.c ****   case 1:
  45:Lib/AI_Runtime/Npu/ll_aton/ll_aton_lib_sw_operators.c **** #if defined(DUMP_DEBUG_SW_OPS)
  46:Lib/AI_Runtime/Npu/ll_aton/ll_aton_lib_sw_operators.c ****     LL_ATON_PRINTF("[%d]\t%d\t@ out: 0x%lx, in: 0x%lx\n", index, *in_target, (uintptr_t)out_target,
  47:Lib/AI_Runtime/Npu/ll_aton/ll_aton_lib_sw_operators.c ****                    (uintptr_t)in_target);
  48:Lib/AI_Runtime/Npu/ll_aton/ll_aton_lib_sw_operators.c **** #endif
  49:Lib/AI_Runtime/Npu/ll_aton/ll_aton_lib_sw_operators.c ****     *out_target = *in_target;
 307              		.loc 1 49 19
 308 0030 3B68     		ldr	r3, [r7]
ARM GAS  /tmp/ccgnzMmM.s 			page 18


 309 0032 93F90020 		ldrsb	r2, [r3]
 310              		.loc 1 49 17
 311 0036 7B68     		ldr	r3, [r7, #4]
 312 0038 1A70     		strb	r2, [r3]
  50:Lib/AI_Runtime/Npu/ll_aton/ll_aton_lib_sw_operators.c ****     return;
 313              		.loc 1 50 5
 314 003a 58E0     		b	.L10
 315              	.L15:
  51:Lib/AI_Runtime/Npu/ll_aton/ll_aton_lib_sw_operators.c **** 
  52:Lib/AI_Runtime/Npu/ll_aton/ll_aton_lib_sw_operators.c ****   case 2:
  53:Lib/AI_Runtime/Npu/ll_aton/ll_aton_lib_sw_operators.c **** #if defined(DUMP_DEBUG_SW_OPS)
  54:Lib/AI_Runtime/Npu/ll_aton/ll_aton_lib_sw_operators.c ****     LL_ATON_PRINTF("[%d]\t%d\t@ out: 0x%lx, in: 0x%lx\n", index, *((int16_t *)in_target), (uintptr_
  55:Lib/AI_Runtime/Npu/ll_aton/ll_aton_lib_sw_operators.c ****                    (uintptr_t)in_target);
  56:Lib/AI_Runtime/Npu/ll_aton/ll_aton_lib_sw_operators.c **** #endif
  57:Lib/AI_Runtime/Npu/ll_aton/ll_aton_lib_sw_operators.c ****     LL_ATON_ASSERT((((uintptr_t)in_target) % 2) == 0);
 316              		.loc 1 57 5
 317 003c 3B68     		ldr	r3, [r7]
 318 003e 03F00103 		and	r3, r3, #1
 319 0042 002B     		cmp	r3, #0
 320 0044 05D0     		beq	.L18
 321              		.loc 1 57 5 is_stmt 0 discriminator 1
 322 0046 2B4B     		ldr	r3, .L22
 323 0048 2B4A     		ldr	r2, .L22+4
 324 004a 3921     		movs	r1, #57
 325 004c 2B48     		ldr	r0, .L22+8
 326 004e FFF7FEFF 		bl	__assert_func
 327              	.L18:
  58:Lib/AI_Runtime/Npu/ll_aton/ll_aton_lib_sw_operators.c ****     LL_ATON_ASSERT((((uintptr_t)out_target) % 2) == 0);
 328              		.loc 1 58 5 is_stmt 1
 329 0052 7B68     		ldr	r3, [r7, #4]
 330 0054 03F00103 		and	r3, r3, #1
 331 0058 002B     		cmp	r3, #0
 332 005a 05D0     		beq	.L19
 333              		.loc 1 58 5 is_stmt 0 discriminator 1
 334 005c 284B     		ldr	r3, .L22+12
 335 005e 264A     		ldr	r2, .L22+4
 336 0060 3A21     		movs	r1, #58
 337 0062 2648     		ldr	r0, .L22+8
 338 0064 FFF7FEFF 		bl	__assert_func
 339              	.L19:
  59:Lib/AI_Runtime/Npu/ll_aton/ll_aton_lib_sw_operators.c **** 
  60:Lib/AI_Runtime/Npu/ll_aton/ll_aton_lib_sw_operators.c ****     *((int16_t *)out_target) = *((int16_t *)in_target);
 340              		.loc 1 60 32 is_stmt 1
 341 0068 3B68     		ldr	r3, [r7]
 342 006a B3F90020 		ldrsh	r2, [r3]
 343              		.loc 1 60 30
 344 006e 7B68     		ldr	r3, [r7, #4]
 345 0070 1A80     		strh	r2, [r3]	@ movhi
  61:Lib/AI_Runtime/Npu/ll_aton/ll_aton_lib_sw_operators.c ****     return;
 346              		.loc 1 61 5
 347 0072 3CE0     		b	.L10
 348              	.L14:
  62:Lib/AI_Runtime/Npu/ll_aton/ll_aton_lib_sw_operators.c **** 
  63:Lib/AI_Runtime/Npu/ll_aton/ll_aton_lib_sw_operators.c ****   case 3: // NOTE: assuming no alignment
  64:Lib/AI_Runtime/Npu/ll_aton/ll_aton_lib_sw_operators.c ****     *out_target++ = *in_target++;
 349              		.loc 1 64 31
 350 0074 3A68     		ldr	r2, [r7]
ARM GAS  /tmp/ccgnzMmM.s 			page 19


 351 0076 531C     		adds	r3, r2, #1
 352 0078 3B60     		str	r3, [r7]
 353              		.loc 1 64 16
 354 007a 7B68     		ldr	r3, [r7, #4]
 355 007c 591C     		adds	r1, r3, #1
 356 007e 7960     		str	r1, [r7, #4]
 357              		.loc 1 64 21
 358 0080 92F90020 		ldrsb	r2, [r2]
 359              		.loc 1 64 19
 360 0084 1A70     		strb	r2, [r3]
  65:Lib/AI_Runtime/Npu/ll_aton/ll_aton_lib_sw_operators.c ****     *out_target++ = *in_target++;
 361              		.loc 1 65 31
 362 0086 3A68     		ldr	r2, [r7]
 363 0088 531C     		adds	r3, r2, #1
 364 008a 3B60     		str	r3, [r7]
 365              		.loc 1 65 16
 366 008c 7B68     		ldr	r3, [r7, #4]
 367 008e 591C     		adds	r1, r3, #1
 368 0090 7960     		str	r1, [r7, #4]
 369              		.loc 1 65 21
 370 0092 92F90020 		ldrsb	r2, [r2]
 371              		.loc 1 65 19
 372 0096 1A70     		strb	r2, [r3]
  66:Lib/AI_Runtime/Npu/ll_aton/ll_aton_lib_sw_operators.c ****     *out_target++ = *in_target++;
 373              		.loc 1 66 31
 374 0098 3A68     		ldr	r2, [r7]
 375 009a 531C     		adds	r3, r2, #1
 376 009c 3B60     		str	r3, [r7]
 377              		.loc 1 66 16
 378 009e 7B68     		ldr	r3, [r7, #4]
 379 00a0 591C     		adds	r1, r3, #1
 380 00a2 7960     		str	r1, [r7, #4]
 381              		.loc 1 66 21
 382 00a4 92F90020 		ldrsb	r2, [r2]
 383              		.loc 1 66 19
 384 00a8 1A70     		strb	r2, [r3]
  67:Lib/AI_Runtime/Npu/ll_aton/ll_aton_lib_sw_operators.c ****     return;
 385              		.loc 1 67 5
 386 00aa 20E0     		b	.L10
 387              	.L12:
  68:Lib/AI_Runtime/Npu/ll_aton/ll_aton_lib_sw_operators.c **** 
  69:Lib/AI_Runtime/Npu/ll_aton/ll_aton_lib_sw_operators.c ****   case 4:
  70:Lib/AI_Runtime/Npu/ll_aton/ll_aton_lib_sw_operators.c **** #if defined(DUMP_DEBUG_SW_OPS)
  71:Lib/AI_Runtime/Npu/ll_aton/ll_aton_lib_sw_operators.c ****     LL_ATON_PRINTF("[%d]\t%d\t@ out: 0x%lx, in: 0x%lx\n", index, *((int32_t *)in_target), (uintptr_
  72:Lib/AI_Runtime/Npu/ll_aton/ll_aton_lib_sw_operators.c ****                    (uintptr_t)in_target);
  73:Lib/AI_Runtime/Npu/ll_aton/ll_aton_lib_sw_operators.c **** #endif
  74:Lib/AI_Runtime/Npu/ll_aton/ll_aton_lib_sw_operators.c ****     LL_ATON_ASSERT((((uintptr_t)in_target) % 4) == 0);
 388              		.loc 1 74 5
 389 00ac 3B68     		ldr	r3, [r7]
 390 00ae 03F00303 		and	r3, r3, #3
 391 00b2 002B     		cmp	r3, #0
 392 00b4 05D0     		beq	.L20
 393              		.loc 1 74 5 is_stmt 0 discriminator 1
 394 00b6 134B     		ldr	r3, .L22+16
 395 00b8 0F4A     		ldr	r2, .L22+4
 396 00ba 4A21     		movs	r1, #74
 397 00bc 0F48     		ldr	r0, .L22+8
ARM GAS  /tmp/ccgnzMmM.s 			page 20


 398 00be FFF7FEFF 		bl	__assert_func
 399              	.L20:
  75:Lib/AI_Runtime/Npu/ll_aton/ll_aton_lib_sw_operators.c ****     LL_ATON_ASSERT((((uintptr_t)out_target) % 4) == 0);
 400              		.loc 1 75 5 is_stmt 1
 401 00c2 7B68     		ldr	r3, [r7, #4]
 402 00c4 03F00303 		and	r3, r3, #3
 403 00c8 002B     		cmp	r3, #0
 404 00ca 05D0     		beq	.L21
 405              		.loc 1 75 5 is_stmt 0 discriminator 1
 406 00cc 0E4B     		ldr	r3, .L22+20
 407 00ce 0A4A     		ldr	r2, .L22+4
 408 00d0 4B21     		movs	r1, #75
 409 00d2 0A48     		ldr	r0, .L22+8
 410 00d4 FFF7FEFF 		bl	__assert_func
 411              	.L21:
  76:Lib/AI_Runtime/Npu/ll_aton/ll_aton_lib_sw_operators.c **** 
  77:Lib/AI_Runtime/Npu/ll_aton/ll_aton_lib_sw_operators.c ****     *((int32_t *)out_target) = *((int32_t *)in_target);
 412              		.loc 1 77 32 is_stmt 1
 413 00d8 3B68     		ldr	r3, [r7]
 414 00da 1A68     		ldr	r2, [r3]
 415              		.loc 1 77 30
 416 00dc 7B68     		ldr	r3, [r7, #4]
 417 00de 1A60     		str	r2, [r3]
  78:Lib/AI_Runtime/Npu/ll_aton/ll_aton_lib_sw_operators.c ****     return;
 418              		.loc 1 78 5
 419 00e0 05E0     		b	.L10
 420              	.L11:
  79:Lib/AI_Runtime/Npu/ll_aton/ll_aton_lib_sw_operators.c **** 
  80:Lib/AI_Runtime/Npu/ll_aton/ll_aton_lib_sw_operators.c ****   default:
  81:Lib/AI_Runtime/Npu/ll_aton/ll_aton_lib_sw_operators.c ****     LL_ATON_ASSERT(false);
 421              		.loc 1 81 5
 422 00e2 0A4B     		ldr	r3, .L22+24
 423 00e4 044A     		ldr	r2, .L22+4
 424 00e6 5121     		movs	r1, #81
 425 00e8 0448     		ldr	r0, .L22+8
 426 00ea FFF7FEFF 		bl	__assert_func
 427              	.L10:
  82:Lib/AI_Runtime/Npu/ll_aton/ll_aton_lib_sw_operators.c ****     return;
  83:Lib/AI_Runtime/Npu/ll_aton/ll_aton_lib_sw_operators.c ****   }
  84:Lib/AI_Runtime/Npu/ll_aton/ll_aton_lib_sw_operators.c **** }
 428              		.loc 1 84 1
 429 00ee 1037     		adds	r7, r7, #16
 430              		.cfi_def_cfa_offset 8
 431 00f0 BD46     		mov	sp, r7
 432              		.cfi_def_cfa_register 13
 433              		@ sp needed
 434 00f2 80BD     		pop	{r7, pc}
 435              	.L23:
 436              		.align	2
 437              	.L22:
 438 00f4 00000000 		.word	.LC0
 439 00f8 00000000 		.word	__func__.28
 440 00fc 24000000 		.word	.LC1
 441 0100 5C000000 		.word	.LC2
 442 0104 80000000 		.word	.LC3
 443 0108 A4000000 		.word	.LC4
 444 010c C8000000 		.word	.LC5
ARM GAS  /tmp/ccgnzMmM.s 			page 21


 445              		.cfi_endproc
 446              	.LFE4854:
 448              		.section	.text.__ll_aton_lib_calc_offset,"ax",%progbits
 449              		.align	1
 450              		.syntax unified
 451              		.thumb
 452              		.thumb_func
 454              	__ll_aton_lib_calc_offset:
 455              	.LFB4855:
  85:Lib/AI_Runtime/Npu/ll_aton/ll_aton_lib_sw_operators.c **** 
  86:Lib/AI_Runtime/Npu/ll_aton/ll_aton_lib_sw_operators.c **** static inline uint32_t __ll_aton_lib_calc_offset(uint32_t n, uint32_t c, uint32_t h, uint32_t w, ui
  87:Lib/AI_Runtime/Npu/ll_aton/ll_aton_lib_sw_operators.c ****                                                  uint32_t offset_1, uint32_t offset_2, uint32_t off
  88:Lib/AI_Runtime/Npu/ll_aton/ll_aton_lib_sw_operators.c **** {
 456              		.loc 1 88 1
 457              		.cfi_startproc
 458              		@ args = 16, pretend = 0, frame = 24
 459              		@ frame_needed = 1, uses_anonymous_args = 0
 460              		@ link register save eliminated.
 461 0000 80B4     		push	{r7}
 462              		.cfi_def_cfa_offset 4
 463              		.cfi_offset 7, -4
 464 0002 87B0     		sub	sp, sp, #28
 465              		.cfi_def_cfa_offset 32
 466 0004 00AF     		add	r7, sp, #0
 467              		.cfi_def_cfa_register 7
 468 0006 F860     		str	r0, [r7, #12]
 469 0008 B960     		str	r1, [r7, #8]
 470 000a 7A60     		str	r2, [r7, #4]
 471 000c 3B60     		str	r3, [r7]
  89:Lib/AI_Runtime/Npu/ll_aton/ll_aton_lib_sw_operators.c ****   uint32_t result = 0;
 472              		.loc 1 89 12
 473 000e 0023     		movs	r3, #0
 474 0010 7B61     		str	r3, [r7, #20]
  90:Lib/AI_Runtime/Npu/ll_aton/ll_aton_lib_sw_operators.c **** 
  91:Lib/AI_Runtime/Npu/ll_aton/ll_aton_lib_sw_operators.c ****   result += (n * offset_0);
 475              		.loc 1 91 16
 476 0012 FB68     		ldr	r3, [r7, #12]
 477 0014 3A6A     		ldr	r2, [r7, #32]
 478 0016 02FB03F3 		mul	r3, r2, r3
 479              		.loc 1 91 10
 480 001a 7A69     		ldr	r2, [r7, #20]
 481 001c 1344     		add	r3, r3, r2
 482 001e 7B61     		str	r3, [r7, #20]
  92:Lib/AI_Runtime/Npu/ll_aton/ll_aton_lib_sw_operators.c ****   result += (c * offset_1);
 483              		.loc 1 92 16
 484 0020 BB68     		ldr	r3, [r7, #8]
 485 0022 7A6A     		ldr	r2, [r7, #36]
 486 0024 02FB03F3 		mul	r3, r2, r3
 487              		.loc 1 92 10
 488 0028 7A69     		ldr	r2, [r7, #20]
 489 002a 1344     		add	r3, r3, r2
 490 002c 7B61     		str	r3, [r7, #20]
  93:Lib/AI_Runtime/Npu/ll_aton/ll_aton_lib_sw_operators.c ****   result += (h * offset_2);
 491              		.loc 1 93 16
 492 002e 7B68     		ldr	r3, [r7, #4]
 493 0030 BA6A     		ldr	r2, [r7, #40]
 494 0032 02FB03F3 		mul	r3, r2, r3
ARM GAS  /tmp/ccgnzMmM.s 			page 22


 495              		.loc 1 93 10
 496 0036 7A69     		ldr	r2, [r7, #20]
 497 0038 1344     		add	r3, r3, r2
 498 003a 7B61     		str	r3, [r7, #20]
  94:Lib/AI_Runtime/Npu/ll_aton/ll_aton_lib_sw_operators.c ****   result += (w * offset_3);
 499              		.loc 1 94 16
 500 003c 3B68     		ldr	r3, [r7]
 501 003e FA6A     		ldr	r2, [r7, #44]
 502 0040 02FB03F3 		mul	r3, r2, r3
 503              		.loc 1 94 10
 504 0044 7A69     		ldr	r2, [r7, #20]
 505 0046 1344     		add	r3, r3, r2
 506 0048 7B61     		str	r3, [r7, #20]
  95:Lib/AI_Runtime/Npu/ll_aton/ll_aton_lib_sw_operators.c **** 
  96:Lib/AI_Runtime/Npu/ll_aton/ll_aton_lib_sw_operators.c ****   return result;
 507              		.loc 1 96 10
 508 004a 7B69     		ldr	r3, [r7, #20]
  97:Lib/AI_Runtime/Npu/ll_aton/ll_aton_lib_sw_operators.c **** }
 509              		.loc 1 97 1
 510 004c 1846     		mov	r0, r3
 511 004e 1C37     		adds	r7, r7, #28
 512              		.cfi_def_cfa_offset 4
 513 0050 BD46     		mov	sp, r7
 514              		.cfi_def_cfa_register 13
 515              		@ sp needed
 516 0052 5DF8047B 		ldr	r7, [sp], #4
 517              		.cfi_restore 7
 518              		.cfi_def_cfa_offset 0
 519 0056 7047     		bx	lr
 520              		.cfi_endproc
 521              	.LFE4855:
 523              		.section	.rodata
 524 00ca 0000     		.align	2
 525              	.LC6:
 526 00cc 7265745F 		.ascii	"ret_numerator >= 0\000"
 526      6E756D65 
 526      7261746F 
 526      72203E3D 
 526      203000
 527 00df 00       		.align	2
 528              	.LC7:
 529 00e0 7265745F 		.ascii	"ret_denominator > 0\000"
 529      64656E6F 
 529      6D696E61 
 529      746F7220 
 529      3E203000 
 530              		.section	.text.__ll_aton_lib_is_in_slice,"ax",%progbits
 531              		.align	1
 532              		.syntax unified
 533              		.thumb
 534              		.thumb_func
 536              	__ll_aton_lib_is_in_slice:
 537              	.LFB4856:
  98:Lib/AI_Runtime/Npu/ll_aton/ll_aton_lib_sw_operators.c **** 
  99:Lib/AI_Runtime/Npu/ll_aton/ll_aton_lib_sw_operators.c **** /**
 100:Lib/AI_Runtime/Npu/ll_aton/ll_aton_lib_sw_operators.c ****  * @brief  performs a slice operation on a (multi-dimensional) matrix
 101:Lib/AI_Runtime/Npu/ll_aton/ll_aton_lib_sw_operators.c ****  * @param  input tensor shape structure
ARM GAS  /tmp/ccgnzMmM.s 			page 23


 102:Lib/AI_Runtime/Npu/ll_aton/ll_aton_lib_sw_operators.c ****  * @param  output tensor shape structure
 103:Lib/AI_Runtime/Npu/ll_aton/ll_aton_lib_sw_operators.c ****  * @param  slice_rank rank of slice operation's input matrix
 104:Lib/AI_Runtime/Npu/ll_aton/ll_aton_lib_sw_operators.c ****  * @param  slice_starts 1-D tensor of starting indices of corresponding axis from 0 to rank-1
 105:Lib/AI_Runtime/Npu/ll_aton/ll_aton_lib_sw_operators.c ****  * @param  slice_ends 1-D tensor of ending indices (exclusive) of corresponding axis from 0 to rank
 106:Lib/AI_Runtime/Npu/ll_aton/ll_aton_lib_sw_operators.c ****  * @param  slice_steps 1-D tensor of slice step of corresponding axis from 0 to rank-1
 107:Lib/AI_Runtime/Npu/ll_aton/ll_aton_lib_sw_operators.c ****  * @retval Error code
 108:Lib/AI_Runtime/Npu/ll_aton/ll_aton_lib_sw_operators.c ****  */
 109:Lib/AI_Runtime/Npu/ll_aton/ll_aton_lib_sw_operators.c **** typedef const struct
 110:Lib/AI_Runtime/Npu/ll_aton/ll_aton_lib_sw_operators.c **** {
 111:Lib/AI_Runtime/Npu/ll_aton/ll_aton_lib_sw_operators.c ****   const LL_LIB_TensorShape_TypeDef *input;
 112:Lib/AI_Runtime/Npu/ll_aton/ll_aton_lib_sw_operators.c ****   const uint32_t *input_axes_offsets;
 113:Lib/AI_Runtime/Npu/ll_aton/ll_aton_lib_sw_operators.c ****   const LL_LIB_TensorShape_TypeDef *output;
 114:Lib/AI_Runtime/Npu/ll_aton/ll_aton_lib_sw_operators.c ****   const uint32_t *output_axes_offsets;
 115:Lib/AI_Runtime/Npu/ll_aton/ll_aton_lib_sw_operators.c ****   uint32_t slice_rank;
 116:Lib/AI_Runtime/Npu/ll_aton/ll_aton_lib_sw_operators.c ****   const int32_t *slice_starts;
 117:Lib/AI_Runtime/Npu/ll_aton/ll_aton_lib_sw_operators.c ****   const int32_t *slice_ends;
 118:Lib/AI_Runtime/Npu/ll_aton/ll_aton_lib_sw_operators.c ****   const int32_t *slice_steps;
 119:Lib/AI_Runtime/Npu/ll_aton/ll_aton_lib_sw_operators.c **** } __ll_slice_params_t;
 120:Lib/AI_Runtime/Npu/ll_aton/ll_aton_lib_sw_operators.c **** 
 121:Lib/AI_Runtime/Npu/ll_aton/ll_aton_lib_sw_operators.c **** static inline int32_t __ll_aton_lib_is_in_slice(const __ll_slice_params_t *common_params, __ll_stac
 122:Lib/AI_Runtime/Npu/ll_aton/ll_aton_lib_sw_operators.c **** {
 538              		.loc 1 122 1
 539              		.cfi_startproc
 540              		@ args = 0, pretend = 0, frame = 40
 541              		@ frame_needed = 1, uses_anonymous_args = 0
 542 0000 80B5     		push	{r7, lr}
 543              		.cfi_def_cfa_offset 8
 544              		.cfi_offset 7, -8
 545              		.cfi_offset 14, -4
 546 0002 8AB0     		sub	sp, sp, #40
 547              		.cfi_def_cfa_offset 48
 548 0004 00AF     		add	r7, sp, #0
 549              		.cfi_def_cfa_register 7
 550 0006 7860     		str	r0, [r7, #4]
 551 0008 3960     		str	r1, [r7]
 123:Lib/AI_Runtime/Npu/ll_aton/ll_aton_lib_sw_operators.c ****   uint32_t index = elem->index;
 552              		.loc 1 123 12
 553 000a 3B68     		ldr	r3, [r7]
 554 000c 9B68     		ldr	r3, [r3, #8]
 555 000e BB61     		str	r3, [r7, #24]
 124:Lib/AI_Runtime/Npu/ll_aton/ll_aton_lib_sw_operators.c ****   uint32_t axis = elem->axis;
 556              		.loc 1 124 12
 557 0010 3B68     		ldr	r3, [r7]
 558 0012 5B68     		ldr	r3, [r3, #4]
 559 0014 7B61     		str	r3, [r7, #20]
 125:Lib/AI_Runtime/Npu/ll_aton/ll_aton_lib_sw_operators.c **** 
 126:Lib/AI_Runtime/Npu/ll_aton/ll_aton_lib_sw_operators.c ****   uint8_t slice_forwards = (common_params->slice_steps[axis] < 0) ? 0 : 1;
 560              		.loc 1 126 42
 561 0016 7B68     		ldr	r3, [r7, #4]
 562 0018 DA69     		ldr	r2, [r3, #28]
 563              		.loc 1 126 55
 564 001a 7B69     		ldr	r3, [r7, #20]
 565 001c 9B00     		lsls	r3, r3, #2
 566 001e 1344     		add	r3, r3, r2
 567 0020 1B68     		ldr	r3, [r3]
 568              		.loc 1 126 71
 569 0022 DB43     		mvns	r3, r3
ARM GAS  /tmp/ccgnzMmM.s 			page 24


 570 0024 DB0F     		lsrs	r3, r3, #31
 571 0026 DBB2     		uxtb	r3, r3
 572              		.loc 1 126 11
 573 0028 FB74     		strb	r3, [r7, #19]
 127:Lib/AI_Runtime/Npu/ll_aton/ll_aton_lib_sw_operators.c **** 
 128:Lib/AI_Runtime/Npu/ll_aton/ll_aton_lib_sw_operators.c ****   int32_t ret_numerator;
 129:Lib/AI_Runtime/Npu/ll_aton/ll_aton_lib_sw_operators.c ****   int32_t ret_denominator = abs(common_params->slice_steps[axis]);
 574              		.loc 1 129 46
 575 002a 7B68     		ldr	r3, [r7, #4]
 576 002c DA69     		ldr	r2, [r3, #28]
 577              		.loc 1 129 59
 578 002e 7B69     		ldr	r3, [r7, #20]
 579 0030 9B00     		lsls	r3, r3, #2
 580 0032 1344     		add	r3, r3, r2
 581 0034 1B68     		ldr	r3, [r3]
 582              		.loc 1 129 11
 583 0036 002B     		cmp	r3, #0
 584 0038 B8BF     		it	lt
 585 003a 5B42     		rsblt	r3, r3, #0
 586 003c FB60     		str	r3, [r7, #12]
 130:Lib/AI_Runtime/Npu/ll_aton/ll_aton_lib_sw_operators.c **** 
 131:Lib/AI_Runtime/Npu/ll_aton/ll_aton_lib_sw_operators.c ****   int32_t min;
 132:Lib/AI_Runtime/Npu/ll_aton/ll_aton_lib_sw_operators.c ****   int32_t max;
 133:Lib/AI_Runtime/Npu/ll_aton/ll_aton_lib_sw_operators.c **** 
 134:Lib/AI_Runtime/Npu/ll_aton/ll_aton_lib_sw_operators.c ****   if (slice_forwards)
 587              		.loc 1 134 6
 588 003e FB7C     		ldrb	r3, [r7, #19]	@ zero_extendqisi2
 589 0040 002B     		cmp	r3, #0
 590 0042 18D0     		beq	.L27
 135:Lib/AI_Runtime/Npu/ll_aton/ll_aton_lib_sw_operators.c ****   {
 136:Lib/AI_Runtime/Npu/ll_aton/ll_aton_lib_sw_operators.c ****     ret_numerator = (index - common_params->slice_starts[axis]);
 591              		.loc 1 136 43
 592 0044 7B68     		ldr	r3, [r7, #4]
 593 0046 5A69     		ldr	r2, [r3, #20]
 594              		.loc 1 136 57
 595 0048 7B69     		ldr	r3, [r7, #20]
 596 004a 9B00     		lsls	r3, r3, #2
 597 004c 1344     		add	r3, r3, r2
 598 004e 1B68     		ldr	r3, [r3]
 599 0050 1A46     		mov	r2, r3
 600              		.loc 1 136 28
 601 0052 BB69     		ldr	r3, [r7, #24]
 602 0054 9B1A     		subs	r3, r3, r2
 603              		.loc 1 136 19
 604 0056 7B62     		str	r3, [r7, #36]
 137:Lib/AI_Runtime/Npu/ll_aton/ll_aton_lib_sw_operators.c ****     min = common_params->slice_starts[axis];
 605              		.loc 1 137 24
 606 0058 7B68     		ldr	r3, [r7, #4]
 607 005a 5A69     		ldr	r2, [r3, #20]
 608              		.loc 1 137 38
 609 005c 7B69     		ldr	r3, [r7, #20]
 610 005e 9B00     		lsls	r3, r3, #2
 611 0060 1344     		add	r3, r3, r2
 612              		.loc 1 137 9
 613 0062 1B68     		ldr	r3, [r3]
 614 0064 3B62     		str	r3, [r7, #32]
 138:Lib/AI_Runtime/Npu/ll_aton/ll_aton_lib_sw_operators.c ****     max = common_params->slice_ends[axis];
ARM GAS  /tmp/ccgnzMmM.s 			page 25


 615              		.loc 1 138 24
 616 0066 7B68     		ldr	r3, [r7, #4]
 617 0068 9A69     		ldr	r2, [r3, #24]
 618              		.loc 1 138 36
 619 006a 7B69     		ldr	r3, [r7, #20]
 620 006c 9B00     		lsls	r3, r3, #2
 621 006e 1344     		add	r3, r3, r2
 622              		.loc 1 138 9
 623 0070 1B68     		ldr	r3, [r3]
 624 0072 FB61     		str	r3, [r7, #28]
 625 0074 19E0     		b	.L28
 626              	.L27:
 139:Lib/AI_Runtime/Npu/ll_aton/ll_aton_lib_sw_operators.c ****   }
 140:Lib/AI_Runtime/Npu/ll_aton/ll_aton_lib_sw_operators.c ****   else
 141:Lib/AI_Runtime/Npu/ll_aton/ll_aton_lib_sw_operators.c ****   {
 142:Lib/AI_Runtime/Npu/ll_aton/ll_aton_lib_sw_operators.c ****     ret_numerator = (common_params->slice_starts[axis] - index);
 627              		.loc 1 142 35
 628 0076 7B68     		ldr	r3, [r7, #4]
 629 0078 5A69     		ldr	r2, [r3, #20]
 630              		.loc 1 142 49
 631 007a 7B69     		ldr	r3, [r7, #20]
 632 007c 9B00     		lsls	r3, r3, #2
 633 007e 1344     		add	r3, r3, r2
 634 0080 1B68     		ldr	r3, [r3]
 635 0082 1A46     		mov	r2, r3
 636              		.loc 1 142 56
 637 0084 BB69     		ldr	r3, [r7, #24]
 638 0086 D31A     		subs	r3, r2, r3
 639              		.loc 1 142 19
 640 0088 7B62     		str	r3, [r7, #36]
 143:Lib/AI_Runtime/Npu/ll_aton/ll_aton_lib_sw_operators.c ****     max = common_params->slice_starts[axis] + 1;
 641              		.loc 1 143 24
 642 008a 7B68     		ldr	r3, [r7, #4]
 643 008c 5A69     		ldr	r2, [r3, #20]
 644              		.loc 1 143 38
 645 008e 7B69     		ldr	r3, [r7, #20]
 646 0090 9B00     		lsls	r3, r3, #2
 647 0092 1344     		add	r3, r3, r2
 648 0094 1B68     		ldr	r3, [r3]
 649              		.loc 1 143 9
 650 0096 0133     		adds	r3, r3, #1
 651 0098 FB61     		str	r3, [r7, #28]
 144:Lib/AI_Runtime/Npu/ll_aton/ll_aton_lib_sw_operators.c ****     min = common_params->slice_ends[axis] + 1;
 652              		.loc 1 144 24
 653 009a 7B68     		ldr	r3, [r7, #4]
 654 009c 9A69     		ldr	r2, [r3, #24]
 655              		.loc 1 144 36
 656 009e 7B69     		ldr	r3, [r7, #20]
 657 00a0 9B00     		lsls	r3, r3, #2
 658 00a2 1344     		add	r3, r3, r2
 659 00a4 1B68     		ldr	r3, [r3]
 660              		.loc 1 144 9
 661 00a6 0133     		adds	r3, r3, #1
 662 00a8 3B62     		str	r3, [r7, #32]
 663              	.L28:
 145:Lib/AI_Runtime/Npu/ll_aton/ll_aton_lib_sw_operators.c ****   }
 146:Lib/AI_Runtime/Npu/ll_aton/ll_aton_lib_sw_operators.c **** 
ARM GAS  /tmp/ccgnzMmM.s 			page 26


 147:Lib/AI_Runtime/Npu/ll_aton/ll_aton_lib_sw_operators.c ****   if (((index >= min) && (index < max)) && (ret_numerator % ret_denominator == 0))
 664              		.loc 1 147 15
 665 00aa 3B6A     		ldr	r3, [r7, #32]
 666              		.loc 1 147 6
 667 00ac BA69     		ldr	r2, [r7, #24]
 668 00ae 9A42     		cmp	r2, r3
 669 00b0 24D3     		bcc	.L29
 670              		.loc 1 147 33 discriminator 1
 671 00b2 FB69     		ldr	r3, [r7, #28]
 672              		.loc 1 147 23 discriminator 1
 673 00b4 BA69     		ldr	r2, [r7, #24]
 674 00b6 9A42     		cmp	r2, r3
 675 00b8 20D2     		bcs	.L29
 676              		.loc 1 147 59 discriminator 2
 677 00ba 7B6A     		ldr	r3, [r7, #36]
 678 00bc FA68     		ldr	r2, [r7, #12]
 679 00be 93FBF2F2 		sdiv	r2, r3, r2
 680 00c2 F968     		ldr	r1, [r7, #12]
 681 00c4 01FB02F2 		mul	r2, r1, r2
 682 00c8 9B1A     		subs	r3, r3, r2
 683              		.loc 1 147 41 discriminator 2
 684 00ca 002B     		cmp	r3, #0
 685 00cc 16D1     		bne	.L29
 148:Lib/AI_Runtime/Npu/ll_aton/ll_aton_lib_sw_operators.c ****   {
 149:Lib/AI_Runtime/Npu/ll_aton/ll_aton_lib_sw_operators.c ****     LL_ATON_ASSERT(ret_numerator >= 0);
 686              		.loc 1 149 5
 687 00ce 7B6A     		ldr	r3, [r7, #36]
 688 00d0 002B     		cmp	r3, #0
 689 00d2 05DA     		bge	.L30
 690              		.loc 1 149 5 is_stmt 0 discriminator 1
 691 00d4 0C4B     		ldr	r3, .L33
 692 00d6 0D4A     		ldr	r2, .L33+4
 693 00d8 9521     		movs	r1, #149
 694 00da 0D48     		ldr	r0, .L33+8
 695 00dc FFF7FEFF 		bl	__assert_func
 696              	.L30:
 150:Lib/AI_Runtime/Npu/ll_aton/ll_aton_lib_sw_operators.c ****     LL_ATON_ASSERT(ret_denominator > 0);
 697              		.loc 1 150 5 is_stmt 1
 698 00e0 FB68     		ldr	r3, [r7, #12]
 699 00e2 002B     		cmp	r3, #0
 700 00e4 05DC     		bgt	.L31
 701              		.loc 1 150 5 is_stmt 0 discriminator 1
 702 00e6 0B4B     		ldr	r3, .L33+12
 703 00e8 084A     		ldr	r2, .L33+4
 704 00ea 9621     		movs	r1, #150
 705 00ec 0848     		ldr	r0, .L33+8
 706 00ee FFF7FEFF 		bl	__assert_func
 707              	.L31:
 151:Lib/AI_Runtime/Npu/ll_aton/ll_aton_lib_sw_operators.c **** 
 152:Lib/AI_Runtime/Npu/ll_aton/ll_aton_lib_sw_operators.c ****     return (ret_numerator / ret_denominator);
 708              		.loc 1 152 27 is_stmt 1
 709 00f2 7A6A     		ldr	r2, [r7, #36]
 710 00f4 FB68     		ldr	r3, [r7, #12]
 711 00f6 92FBF3F3 		sdiv	r3, r2, r3
 712 00fa 01E0     		b	.L32
 713              	.L29:
 153:Lib/AI_Runtime/Npu/ll_aton/ll_aton_lib_sw_operators.c ****   }
ARM GAS  /tmp/ccgnzMmM.s 			page 27


 154:Lib/AI_Runtime/Npu/ll_aton/ll_aton_lib_sw_operators.c ****   else
 155:Lib/AI_Runtime/Npu/ll_aton/ll_aton_lib_sw_operators.c ****   {
 156:Lib/AI_Runtime/Npu/ll_aton/ll_aton_lib_sw_operators.c ****     return -1;
 714              		.loc 1 156 12
 715 00fc 4FF0FF33 		mov	r3, #-1
 716              	.L32:
 157:Lib/AI_Runtime/Npu/ll_aton/ll_aton_lib_sw_operators.c ****   }
 158:Lib/AI_Runtime/Npu/ll_aton/ll_aton_lib_sw_operators.c **** }
 717              		.loc 1 158 1
 718 0100 1846     		mov	r0, r3
 719 0102 2837     		adds	r7, r7, #40
 720              		.cfi_def_cfa_offset 8
 721 0104 BD46     		mov	sp, r7
 722              		.cfi_def_cfa_register 13
 723              		@ sp needed
 724 0106 80BD     		pop	{r7, pc}
 725              	.L34:
 726              		.align	2
 727              	.L33:
 728 0108 CC000000 		.word	.LC6
 729 010c 00000000 		.word	__func__.30
 730 0110 24000000 		.word	.LC1
 731 0114 E0000000 		.word	.LC7
 732              		.cfi_endproc
 733              	.LFE4856:
 735              		.section	.rodata
 736              		.align	2
 737              	.LC8:
 738 00f4 6C696E6B 		.ascii	"linked_stack_list != ((void *)0)\000"
 738      65645F73 
 738      7461636B 
 738      5F6C6973 
 738      7420213D 
 739 0115 000000   		.align	2
 740              	.LC9:
 741 0118 6C696E6B 		.ascii	"linked_stack_list->axis == (common_params->slice_ra"
 741      65645F73 
 741      7461636B 
 741      5F6C6973 
 741      742D3E61 
 742 014b 6E6B202D 		.ascii	"nk - 1)\000"
 742      20312900 
 743 0153 00       		.align	2
 744              	.LC10:
 745 0154 656C656D 		.ascii	"elem->axis < (common_params->slice_rank - 1)\000"
 745      2D3E6178 
 745      6973203C 
 745      2028636F 
 745      6D6D6F6E 
 746              		.section	.text.__ll_slice_get_input_and_output_base_pos,"ax",%progbits
 747              		.align	1
 748              		.syntax unified
 749              		.thumb
 750              		.thumb_func
 752              	__ll_slice_get_input_and_output_base_pos:
 753              	.LFB4857:
 159:Lib/AI_Runtime/Npu/ll_aton/ll_aton_lib_sw_operators.c **** 
ARM GAS  /tmp/ccgnzMmM.s 			page 28


 160:Lib/AI_Runtime/Npu/ll_aton/ll_aton_lib_sw_operators.c **** static int8_t *__ll_slice_get_input_and_output_base_pos(const __ll_slice_params_t *common_params,
 161:Lib/AI_Runtime/Npu/ll_aton/ll_aton_lib_sw_operators.c ****                                                         __ll_stack_lnklst_t *linked_stack_list, int
 162:Lib/AI_Runtime/Npu/ll_aton/ll_aton_lib_sw_operators.c **** {
 754              		.loc 1 162 1
 755              		.cfi_startproc
 756              		@ args = 0, pretend = 0, frame = 48
 757              		@ frame_needed = 1, uses_anonymous_args = 0
 758 0000 80B5     		push	{r7, lr}
 759              		.cfi_def_cfa_offset 8
 760              		.cfi_offset 7, -8
 761              		.cfi_offset 14, -4
 762 0002 8CB0     		sub	sp, sp, #48
 763              		.cfi_def_cfa_offset 56
 764 0004 00AF     		add	r7, sp, #0
 765              		.cfi_def_cfa_register 7
 766 0006 F860     		str	r0, [r7, #12]
 767 0008 B960     		str	r1, [r7, #8]
 768 000a 7A60     		str	r2, [r7, #4]
 163:Lib/AI_Runtime/Npu/ll_aton/ll_aton_lib_sw_operators.c ****   LL_ATON_ASSERT(linked_stack_list != NULL);
 769              		.loc 1 163 3
 770 000c BB68     		ldr	r3, [r7, #8]
 771 000e 002B     		cmp	r3, #0
 772 0010 05D1     		bne	.L36
 773              		.loc 1 163 3 is_stmt 0 discriminator 1
 774 0012 354B     		ldr	r3, .L45
 775 0014 354A     		ldr	r2, .L45+4
 776 0016 A321     		movs	r1, #163
 777 0018 3548     		ldr	r0, .L45+8
 778 001a FFF7FEFF 		bl	__assert_func
 779              	.L36:
 164:Lib/AI_Runtime/Npu/ll_aton/ll_aton_lib_sw_operators.c **** 
 165:Lib/AI_Runtime/Npu/ll_aton/ll_aton_lib_sw_operators.c ****   int8_t *in_target = (int8_t *)LL_Buffer_addr_start(common_params->input);
 780              		.loc 1 165 67 is_stmt 1
 781 001e FB68     		ldr	r3, [r7, #12]
 782 0020 1B68     		ldr	r3, [r3]
 783              		.loc 1 165 33
 784 0022 1846     		mov	r0, r3
 785 0024 FFF7FEFF 		bl	LL_Buffer_addr_start
 786 0028 F862     		str	r0, [r7, #44]
 166:Lib/AI_Runtime/Npu/ll_aton/ll_aton_lib_sw_operators.c ****   int8_t *out_target = (int8_t *)LL_Buffer_addr_start(common_params->output);
 787              		.loc 1 166 68
 788 002a FB68     		ldr	r3, [r7, #12]
 789 002c 9B68     		ldr	r3, [r3, #8]
 790              		.loc 1 166 34
 791 002e 1846     		mov	r0, r3
 792 0030 FFF7FEFF 		bl	LL_Buffer_addr_start
 793 0034 B862     		str	r0, [r7, #40]
 167:Lib/AI_Runtime/Npu/ll_aton/ll_aton_lib_sw_operators.c **** 
 168:Lib/AI_Runtime/Npu/ll_aton/ll_aton_lib_sw_operators.c ****   LL_ATON_ASSERT(linked_stack_list->axis == (common_params->slice_rank - 1));
 794              		.loc 1 168 3
 795 0036 BB68     		ldr	r3, [r7, #8]
 796 0038 5A68     		ldr	r2, [r3, #4]
 797 003a FB68     		ldr	r3, [r7, #12]
 798 003c 1B69     		ldr	r3, [r3, #16]
 799 003e 013B     		subs	r3, r3, #1
 800 0040 9A42     		cmp	r2, r3
 801 0042 05D0     		beq	.L37
ARM GAS  /tmp/ccgnzMmM.s 			page 29


 802              		.loc 1 168 3 is_stmt 0 discriminator 1
 803 0044 2B4B     		ldr	r3, .L45+12
 804 0046 294A     		ldr	r2, .L45+4
 805 0048 A821     		movs	r1, #168
 806 004a 2948     		ldr	r0, .L45+8
 807 004c FFF7FEFF 		bl	__assert_func
 808              	.L37:
 809              	.LBB3:
 169:Lib/AI_Runtime/Npu/ll_aton/ll_aton_lib_sw_operators.c **** 
 170:Lib/AI_Runtime/Npu/ll_aton/ll_aton_lib_sw_operators.c ****   for (__ll_stack_lnklst_t *elem = linked_stack_list->back_link; elem != NULL; elem = elem->back_li
 810              		.loc 1 170 29 is_stmt 1
 811 0050 BB68     		ldr	r3, [r7, #8]
 812 0052 1B68     		ldr	r3, [r3]
 813 0054 7B62     		str	r3, [r7, #36]
 814              		.loc 1 170 3
 815 0056 3BE0     		b	.L38
 816              	.L43:
 817              	.LBB4:
 171:Lib/AI_Runtime/Npu/ll_aton/ll_aton_lib_sw_operators.c ****   {
 172:Lib/AI_Runtime/Npu/ll_aton/ll_aton_lib_sw_operators.c ****     LL_ATON_ASSERT(elem->axis < (common_params->slice_rank - 1));
 818              		.loc 1 172 5
 819 0058 7B6A     		ldr	r3, [r7, #36]
 820 005a 5A68     		ldr	r2, [r3, #4]
 821 005c FB68     		ldr	r3, [r7, #12]
 822 005e 1B69     		ldr	r3, [r3, #16]
 823 0060 013B     		subs	r3, r3, #1
 824 0062 9A42     		cmp	r2, r3
 825 0064 05D3     		bcc	.L39
 826              		.loc 1 172 5 is_stmt 0 discriminator 1
 827 0066 244B     		ldr	r3, .L45+16
 828 0068 204A     		ldr	r2, .L45+4
 829 006a AC21     		movs	r1, #172
 830 006c 2048     		ldr	r0, .L45+8
 831 006e FFF7FEFF 		bl	__assert_func
 832              	.L39:
 173:Lib/AI_Runtime/Npu/ll_aton/ll_aton_lib_sw_operators.c ****     uint32_t axis = elem->axis;
 833              		.loc 1 173 14 is_stmt 1
 834 0072 7B6A     		ldr	r3, [r7, #36]
 835 0074 5B68     		ldr	r3, [r3, #4]
 836 0076 3B62     		str	r3, [r7, #32]
 174:Lib/AI_Runtime/Npu/ll_aton/ll_aton_lib_sw_operators.c **** 
 175:Lib/AI_Runtime/Npu/ll_aton/ll_aton_lib_sw_operators.c ****     /* input */
 176:Lib/AI_Runtime/Npu/ll_aton/ll_aton_lib_sw_operators.c ****     int32_t in_axis_size = common_params->input_axes_offsets[axis];
 837              		.loc 1 176 41
 838 0078 FB68     		ldr	r3, [r7, #12]
 839 007a 5A68     		ldr	r2, [r3, #4]
 840              		.loc 1 176 61
 841 007c 3B6A     		ldr	r3, [r7, #32]
 842 007e 9B00     		lsls	r3, r3, #2
 843 0080 1344     		add	r3, r3, r2
 844 0082 1B68     		ldr	r3, [r3]
 845              		.loc 1 176 13
 846 0084 FB61     		str	r3, [r7, #28]
 177:Lib/AI_Runtime/Npu/ll_aton/ll_aton_lib_sw_operators.c ****     in_target += (elem->index * in_axis_size);
 847              		.loc 1 177 23
 848 0086 7B6A     		ldr	r3, [r7, #36]
 849 0088 9B68     		ldr	r3, [r3, #8]
ARM GAS  /tmp/ccgnzMmM.s 			page 30


 850              		.loc 1 177 31
 851 008a FA69     		ldr	r2, [r7, #28]
 852 008c 02FB03F3 		mul	r3, r2, r3
 853              		.loc 1 177 15
 854 0090 FA6A     		ldr	r2, [r7, #44]
 855 0092 1344     		add	r3, r3, r2
 856 0094 FB62     		str	r3, [r7, #44]
 178:Lib/AI_Runtime/Npu/ll_aton/ll_aton_lib_sw_operators.c **** 
 179:Lib/AI_Runtime/Npu/ll_aton/ll_aton_lib_sw_operators.c ****     int32_t out_index;
 180:Lib/AI_Runtime/Npu/ll_aton/ll_aton_lib_sw_operators.c ****     if ((out_index = __ll_aton_lib_is_in_slice(common_params, elem)) >= 0)
 857              		.loc 1 180 22
 858 0096 796A     		ldr	r1, [r7, #36]
 859 0098 F868     		ldr	r0, [r7, #12]
 860 009a FFF7FEFF 		bl	__ll_aton_lib_is_in_slice
 861 009e B861     		str	r0, [r7, #24]
 862              		.loc 1 180 8 discriminator 1
 863 00a0 BB69     		ldr	r3, [r7, #24]
 864 00a2 002B     		cmp	r3, #0
 865 00a4 0FDB     		blt	.L40
 866              	.LBB5:
 181:Lib/AI_Runtime/Npu/ll_aton/ll_aton_lib_sw_operators.c ****     {
 182:Lib/AI_Runtime/Npu/ll_aton/ll_aton_lib_sw_operators.c ****       /* output */
 183:Lib/AI_Runtime/Npu/ll_aton/ll_aton_lib_sw_operators.c ****       int32_t out_axis_size = common_params->output_axes_offsets[axis];
 867              		.loc 1 183 44
 868 00a6 FB68     		ldr	r3, [r7, #12]
 869 00a8 DA68     		ldr	r2, [r3, #12]
 870              		.loc 1 183 65
 871 00aa 3B6A     		ldr	r3, [r7, #32]
 872 00ac 9B00     		lsls	r3, r3, #2
 873 00ae 1344     		add	r3, r3, r2
 874 00b0 1B68     		ldr	r3, [r3]
 875              		.loc 1 183 15
 876 00b2 7B61     		str	r3, [r7, #20]
 184:Lib/AI_Runtime/Npu/ll_aton/ll_aton_lib_sw_operators.c ****       out_target += (out_index * out_axis_size);
 877              		.loc 1 184 32
 878 00b4 BB69     		ldr	r3, [r7, #24]
 879 00b6 7A69     		ldr	r2, [r7, #20]
 880 00b8 02FB03F3 		mul	r3, r2, r3
 881 00bc 1A46     		mov	r2, r3
 882              		.loc 1 184 18
 883 00be BB6A     		ldr	r3, [r7, #40]
 884 00c0 1344     		add	r3, r3, r2
 885 00c2 BB62     		str	r3, [r7, #40]
 886              	.LBE5:
 887 00c4 01E0     		b	.L44
 888              	.L40:
 185:Lib/AI_Runtime/Npu/ll_aton/ll_aton_lib_sw_operators.c ****     }
 186:Lib/AI_Runtime/Npu/ll_aton/ll_aton_lib_sw_operators.c ****     else
 187:Lib/AI_Runtime/Npu/ll_aton/ll_aton_lib_sw_operators.c ****     {
 188:Lib/AI_Runtime/Npu/ll_aton/ll_aton_lib_sw_operators.c ****       return NULL;
 889              		.loc 1 188 14
 890 00c6 0023     		movs	r3, #0
 891 00c8 09E0     		b	.L42
 892              	.L44:
 893              	.LBE4:
 170:Lib/AI_Runtime/Npu/ll_aton/ll_aton_lib_sw_operators.c ****   {
 894              		.loc 1 170 85 discriminator 2
ARM GAS  /tmp/ccgnzMmM.s 			page 31


 895 00ca 7B6A     		ldr	r3, [r7, #36]
 896 00cc 1B68     		ldr	r3, [r3]
 897 00ce 7B62     		str	r3, [r7, #36]
 898              	.L38:
 170:Lib/AI_Runtime/Npu/ll_aton/ll_aton_lib_sw_operators.c ****   {
 899              		.loc 1 170 71 discriminator 1
 900 00d0 7B6A     		ldr	r3, [r7, #36]
 901 00d2 002B     		cmp	r3, #0
 902 00d4 C0D1     		bne	.L43
 903              	.LBE3:
 189:Lib/AI_Runtime/Npu/ll_aton/ll_aton_lib_sw_operators.c ****     }
 190:Lib/AI_Runtime/Npu/ll_aton/ll_aton_lib_sw_operators.c ****   }
 191:Lib/AI_Runtime/Npu/ll_aton/ll_aton_lib_sw_operators.c **** 
 192:Lib/AI_Runtime/Npu/ll_aton/ll_aton_lib_sw_operators.c ****   *base_in_target = in_target;
 904              		.loc 1 192 19
 905 00d6 7B68     		ldr	r3, [r7, #4]
 906 00d8 FA6A     		ldr	r2, [r7, #44]
 907 00da 1A60     		str	r2, [r3]
 193:Lib/AI_Runtime/Npu/ll_aton/ll_aton_lib_sw_operators.c ****   return out_target;
 908              		.loc 1 193 10
 909 00dc BB6A     		ldr	r3, [r7, #40]
 910              	.L42:
 194:Lib/AI_Runtime/Npu/ll_aton/ll_aton_lib_sw_operators.c **** }
 911              		.loc 1 194 1
 912 00de 1846     		mov	r0, r3
 913 00e0 3037     		adds	r7, r7, #48
 914              		.cfi_def_cfa_offset 8
 915 00e2 BD46     		mov	sp, r7
 916              		.cfi_def_cfa_register 13
 917              		@ sp needed
 918 00e4 80BD     		pop	{r7, pc}
 919              	.L46:
 920 00e6 00BF     		.align	2
 921              	.L45:
 922 00e8 F4000000 		.word	.LC8
 923 00ec 00000000 		.word	__func__.31
 924 00f0 24000000 		.word	.LC1
 925 00f4 18010000 		.word	.LC9
 926 00f8 54010000 		.word	.LC10
 927              		.cfi_endproc
 928              	.LFE4857:
 930              		.section	.text.__ll_slice_copy_elem,"ax",%progbits
 931              		.align	1
 932              		.syntax unified
 933              		.thumb
 934              		.thumb_func
 936              	__ll_slice_copy_elem:
 937              	.LFB4858:
 195:Lib/AI_Runtime/Npu/ll_aton/ll_aton_lib_sw_operators.c **** 
 196:Lib/AI_Runtime/Npu/ll_aton/ll_aton_lib_sw_operators.c **** static inline void __ll_slice_copy_elem(const __ll_slice_params_t *common_params,
 197:Lib/AI_Runtime/Npu/ll_aton/ll_aton_lib_sw_operators.c ****                                         __ll_stack_lnklst_t *linked_stack_list, uint32_t in_offset,
 198:Lib/AI_Runtime/Npu/ll_aton/ll_aton_lib_sw_operators.c ****                                         int8_t *base_in_target, int8_t *base_out_target)
 199:Lib/AI_Runtime/Npu/ll_aton/ll_aton_lib_sw_operators.c **** {
 938              		.loc 1 199 1
 939              		.cfi_startproc
 940              		@ args = 8, pretend = 0, frame = 32
 941              		@ frame_needed = 1, uses_anonymous_args = 0
ARM GAS  /tmp/ccgnzMmM.s 			page 32


 942 0000 80B5     		push	{r7, lr}
 943              		.cfi_def_cfa_offset 8
 944              		.cfi_offset 7, -8
 945              		.cfi_offset 14, -4
 946 0002 88B0     		sub	sp, sp, #32
 947              		.cfi_def_cfa_offset 40
 948 0004 00AF     		add	r7, sp, #0
 949              		.cfi_def_cfa_register 7
 950 0006 F860     		str	r0, [r7, #12]
 951 0008 B960     		str	r1, [r7, #8]
 952 000a 7A60     		str	r2, [r7, #4]
 953 000c 3B60     		str	r3, [r7]
 200:Lib/AI_Runtime/Npu/ll_aton/ll_aton_lib_sw_operators.c ****   const uint8_t byte_size = LL_LIB_NBYTES(common_params->input->nbits);
 954              		.loc 1 200 29
 955 000e FB68     		ldr	r3, [r7, #12]
 956 0010 1B68     		ldr	r3, [r3]
 957 0012 93F82830 		ldrb	r3, [r3, #40]	@ zero_extendqisi2
 958 0016 0733     		adds	r3, r3, #7
 959 0018 DB10     		asrs	r3, r3, #3
 960              		.loc 1 200 17
 961 001a FB77     		strb	r3, [r7, #31]
 201:Lib/AI_Runtime/Npu/ll_aton/ll_aton_lib_sw_operators.c **** 
 202:Lib/AI_Runtime/Npu/ll_aton/ll_aton_lib_sw_operators.c ****   int32_t out_index;
 203:Lib/AI_Runtime/Npu/ll_aton/ll_aton_lib_sw_operators.c ****   if ((out_index = __ll_aton_lib_is_in_slice(common_params, linked_stack_list)) >= 0)
 962              		.loc 1 203 20
 963 001c B968     		ldr	r1, [r7, #8]
 964 001e F868     		ldr	r0, [r7, #12]
 965 0020 FFF7FEFF 		bl	__ll_aton_lib_is_in_slice
 966 0024 B861     		str	r0, [r7, #24]
 967              		.loc 1 203 6 discriminator 1
 968 0026 BB69     		ldr	r3, [r7, #24]
 969 0028 002B     		cmp	r3, #0
 970 002a 14DB     		blt	.L49
 971              	.LBB6:
 204:Lib/AI_Runtime/Npu/ll_aton/ll_aton_lib_sw_operators.c ****   {
 205:Lib/AI_Runtime/Npu/ll_aton/ll_aton_lib_sw_operators.c ****     /* determine input/output position */
 206:Lib/AI_Runtime/Npu/ll_aton/ll_aton_lib_sw_operators.c ****     int8_t *in_target = base_in_target + (linked_stack_list->index * in_offset);
 972              		.loc 1 206 60
 973 002c BB68     		ldr	r3, [r7, #8]
 974 002e 9B68     		ldr	r3, [r3, #8]
 975              		.loc 1 206 68
 976 0030 7A68     		ldr	r2, [r7, #4]
 977 0032 02FB03F3 		mul	r3, r2, r3
 978              		.loc 1 206 13
 979 0036 BA6A     		ldr	r2, [r7, #40]
 980 0038 1344     		add	r3, r3, r2
 981 003a 7B61     		str	r3, [r7, #20]
 207:Lib/AI_Runtime/Npu/ll_aton/ll_aton_lib_sw_operators.c ****     int8_t *out_target = base_out_target + (out_index * out_offset);
 982              		.loc 1 207 55
 983 003c BB69     		ldr	r3, [r7, #24]
 984 003e 3A68     		ldr	r2, [r7]
 985 0040 02FB03F3 		mul	r3, r2, r3
 986              		.loc 1 207 13
 987 0044 FA6A     		ldr	r2, [r7, #44]
 988 0046 1344     		add	r3, r3, r2
 989 0048 3B61     		str	r3, [r7, #16]
 208:Lib/AI_Runtime/Npu/ll_aton/ll_aton_lib_sw_operators.c **** 
ARM GAS  /tmp/ccgnzMmM.s 			page 33


 209:Lib/AI_Runtime/Npu/ll_aton/ll_aton_lib_sw_operators.c ****     __ll_aton_lib_copy_element(byte_size, out_index, out_target, in_target);
 990              		.loc 1 209 5
 991 004a F87F     		ldrb	r0, [r7, #31]	@ zero_extendqisi2
 992 004c 7B69     		ldr	r3, [r7, #20]
 993 004e 3A69     		ldr	r2, [r7, #16]
 994 0050 B969     		ldr	r1, [r7, #24]
 995 0052 FFF7FEFF 		bl	__ll_aton_lib_copy_element
 996              	.L49:
 997              	.LBE6:
 210:Lib/AI_Runtime/Npu/ll_aton/ll_aton_lib_sw_operators.c ****   }
 211:Lib/AI_Runtime/Npu/ll_aton/ll_aton_lib_sw_operators.c **** }
 998              		.loc 1 211 1
 999 0056 00BF     		nop
 1000 0058 2037     		adds	r7, r7, #32
 1001              		.cfi_def_cfa_offset 8
 1002 005a BD46     		mov	sp, r7
 1003              		.cfi_def_cfa_register 13
 1004              		@ sp needed
 1005 005c 80BD     		pop	{r7, pc}
 1006              		.cfi_endproc
 1007              	.LFE4858:
 1009              		.section	.rodata
 1010 0181 000000   		.align	2
 1011              	.LC11:
 1012 0184 63757272 		.ascii	"curr_in_axis == (common_params->slice_rank - 1)\000"
 1012      5F696E5F 
 1012      61786973 
 1012      203D3D20 
 1012      28636F6D 
 1013              		.section	.text.__ll_aton_lib_slice,"ax",%progbits
 1014              		.align	1
 1015              		.syntax unified
 1016              		.thumb
 1017              		.thumb_func
 1019              	__ll_aton_lib_slice:
 1020              	.LFB4859:
 212:Lib/AI_Runtime/Npu/ll_aton/ll_aton_lib_sw_operators.c **** 
 213:Lib/AI_Runtime/Npu/ll_aton/ll_aton_lib_sw_operators.c **** static void __ll_aton_lib_slice(uint32_t curr_in_axis, __ll_stack_lnklst_t *back_link,
 214:Lib/AI_Runtime/Npu/ll_aton/ll_aton_lib_sw_operators.c ****                                 const __ll_slice_params_t *common_params)
 215:Lib/AI_Runtime/Npu/ll_aton/ll_aton_lib_sw_operators.c **** {
 1021              		.loc 1 215 1
 1022              		.cfi_startproc
 1023              		@ args = 0, pretend = 0, frame = 56
 1024              		@ frame_needed = 1, uses_anonymous_args = 0
 1025 0000 80B5     		push	{r7, lr}
 1026              		.cfi_def_cfa_offset 8
 1027              		.cfi_offset 7, -8
 1028              		.cfi_offset 14, -4
 1029 0002 90B0     		sub	sp, sp, #64
 1030              		.cfi_def_cfa_offset 72
 1031 0004 02AF     		add	r7, sp, #8
 1032              		.cfi_def_cfa 7, 64
 1033 0006 F860     		str	r0, [r7, #12]
 1034 0008 B960     		str	r1, [r7, #8]
 1035 000a 7A60     		str	r2, [r7, #4]
 216:Lib/AI_Runtime/Npu/ll_aton/ll_aton_lib_sw_operators.c ****   uint8_t slice_forwards = (common_params->slice_steps[curr_in_axis] < 0) ? 0 : 1;
 1036              		.loc 1 216 42
ARM GAS  /tmp/ccgnzMmM.s 			page 34


 1037 000c 7B68     		ldr	r3, [r7, #4]
 1038 000e DA69     		ldr	r2, [r3, #28]
 1039              		.loc 1 216 55
 1040 0010 FB68     		ldr	r3, [r7, #12]
 1041 0012 9B00     		lsls	r3, r3, #2
 1042 0014 1344     		add	r3, r3, r2
 1043 0016 1B68     		ldr	r3, [r3]
 1044              		.loc 1 216 79
 1045 0018 DB43     		mvns	r3, r3
 1046 001a DB0F     		lsrs	r3, r3, #31
 1047 001c DBB2     		uxtb	r3, r3
 1048              		.loc 1 216 11
 1049 001e 87F83730 		strb	r3, [r7, #55]
 217:Lib/AI_Runtime/Npu/ll_aton/ll_aton_lib_sw_operators.c ****   __ll_stack_lnklst_t linked_stack_list = {
 1050              		.loc 1 217 23
 1051 0022 BB68     		ldr	r3, [r7, #8]
 1052 0024 BB61     		str	r3, [r7, #24]
 1053 0026 FB68     		ldr	r3, [r7, #12]
 1054 0028 FB61     		str	r3, [r7, #28]
 218:Lib/AI_Runtime/Npu/ll_aton/ll_aton_lib_sw_operators.c ****       .back_link = back_link, .axis = curr_in_axis, .index = common_params->slice_starts[curr_in_ax
 1055              		.loc 1 218 75
 1056 002a 7B68     		ldr	r3, [r7, #4]
 1057 002c 5A69     		ldr	r2, [r3, #20]
 1058              		.loc 1 218 89
 1059 002e FB68     		ldr	r3, [r7, #12]
 1060 0030 9B00     		lsls	r3, r3, #2
 1061 0032 1344     		add	r3, r3, r2
 1062 0034 1B68     		ldr	r3, [r3]
 217:Lib/AI_Runtime/Npu/ll_aton/ll_aton_lib_sw_operators.c ****   __ll_stack_lnklst_t linked_stack_list = {
 1063              		.loc 1 217 23
 1064 0036 3B62     		str	r3, [r7, #32]
 219:Lib/AI_Runtime/Npu/ll_aton/ll_aton_lib_sw_operators.c **** 
 220:Lib/AI_Runtime/Npu/ll_aton/ll_aton_lib_sw_operators.c ****   const uint32_t index_end = common_params->slice_ends[curr_in_axis];
 1065              		.loc 1 220 43
 1066 0038 7B68     		ldr	r3, [r7, #4]
 1067 003a 9A69     		ldr	r2, [r3, #24]
 1068              		.loc 1 220 55
 1069 003c FB68     		ldr	r3, [r7, #12]
 1070 003e 9B00     		lsls	r3, r3, #2
 1071 0040 1344     		add	r3, r3, r2
 1072 0042 1B68     		ldr	r3, [r3]
 1073              		.loc 1 220 18
 1074 0044 3B63     		str	r3, [r7, #48]
 221:Lib/AI_Runtime/Npu/ll_aton/ll_aton_lib_sw_operators.c **** 
 222:Lib/AI_Runtime/Npu/ll_aton/ll_aton_lib_sw_operators.c ****   if (curr_in_axis < (common_params->slice_rank - 1))
 1075              		.loc 1 222 36
 1076 0046 7B68     		ldr	r3, [r7, #4]
 1077 0048 1B69     		ldr	r3, [r3, #16]
 1078              		.loc 1 222 49
 1079 004a 013B     		subs	r3, r3, #1
 1080              		.loc 1 222 6
 1081 004c FA68     		ldr	r2, [r7, #12]
 1082 004e 9A42     		cmp	r2, r3
 1083 0050 24D2     		bcs	.L51
 223:Lib/AI_Runtime/Npu/ll_aton/ll_aton_lib_sw_operators.c ****   { // intermediate axis
 224:Lib/AI_Runtime/Npu/ll_aton/ll_aton_lib_sw_operators.c ****     if (slice_forwards)
 1084              		.loc 1 224 8
ARM GAS  /tmp/ccgnzMmM.s 			page 35


 1085 0052 97F83730 		ldrb	r3, [r7, #55]	@ zero_extendqisi2
 1086 0056 002B     		cmp	r3, #0
 1087 0058 10D0     		beq	.L52
 225:Lib/AI_Runtime/Npu/ll_aton/ll_aton_lib_sw_operators.c ****     { // slicing forwards
 226:Lib/AI_Runtime/Npu/ll_aton/ll_aton_lib_sw_operators.c ****       for (; linked_stack_list.index < index_end; linked_stack_list.index++)
 1088              		.loc 1 226 7
 1089 005a 0AE0     		b	.L53
 1090              	.L54:
 227:Lib/AI_Runtime/Npu/ll_aton/ll_aton_lib_sw_operators.c ****       {
 228:Lib/AI_Runtime/Npu/ll_aton/ll_aton_lib_sw_operators.c ****         __ll_aton_lib_slice(curr_in_axis + 1, &linked_stack_list, common_params);
 1091              		.loc 1 228 9
 1092 005c FB68     		ldr	r3, [r7, #12]
 1093 005e 0133     		adds	r3, r3, #1
 1094 0060 07F11801 		add	r1, r7, #24
 1095 0064 7A68     		ldr	r2, [r7, #4]
 1096 0066 1846     		mov	r0, r3
 1097 0068 FFF7CAFF 		bl	__ll_aton_lib_slice
 226:Lib/AI_Runtime/Npu/ll_aton/ll_aton_lib_sw_operators.c ****       {
 1098              		.loc 1 226 68 discriminator 2
 1099 006c 3B6A     		ldr	r3, [r7, #32]
 226:Lib/AI_Runtime/Npu/ll_aton/ll_aton_lib_sw_operators.c ****       {
 1100              		.loc 1 226 74 discriminator 2
 1101 006e 0133     		adds	r3, r3, #1
 1102 0070 3B62     		str	r3, [r7, #32]
 1103              	.L53:
 226:Lib/AI_Runtime/Npu/ll_aton/ll_aton_lib_sw_operators.c ****       {
 1104              		.loc 1 226 31 discriminator 1
 1105 0072 3B6A     		ldr	r3, [r7, #32]
 226:Lib/AI_Runtime/Npu/ll_aton/ll_aton_lib_sw_operators.c ****       {
 1106              		.loc 1 226 38 discriminator 1
 1107 0074 3A6B     		ldr	r2, [r7, #48]
 1108 0076 9A42     		cmp	r2, r3
 1109 0078 F0D8     		bhi	.L54
 1110 007a 5FE0     		b	.L50
 1111              	.L52:
 229:Lib/AI_Runtime/Npu/ll_aton/ll_aton_lib_sw_operators.c ****       }
 230:Lib/AI_Runtime/Npu/ll_aton/ll_aton_lib_sw_operators.c ****     }
 231:Lib/AI_Runtime/Npu/ll_aton/ll_aton_lib_sw_operators.c ****     else
 232:Lib/AI_Runtime/Npu/ll_aton/ll_aton_lib_sw_operators.c ****     { // slicing backwards
 233:Lib/AI_Runtime/Npu/ll_aton/ll_aton_lib_sw_operators.c ****       do
 234:Lib/AI_Runtime/Npu/ll_aton/ll_aton_lib_sw_operators.c ****       {
 235:Lib/AI_Runtime/Npu/ll_aton/ll_aton_lib_sw_operators.c ****         __ll_aton_lib_slice(curr_in_axis + 1, &linked_stack_list, common_params);
 1112              		.loc 1 235 9
 1113 007c FB68     		ldr	r3, [r7, #12]
 1114 007e 0133     		adds	r3, r3, #1
 1115 0080 07F11801 		add	r1, r7, #24
 1116 0084 7A68     		ldr	r2, [r7, #4]
 1117 0086 1846     		mov	r0, r3
 1118 0088 FFF7BAFF 		bl	__ll_aton_lib_slice
 236:Lib/AI_Runtime/Npu/ll_aton/ll_aton_lib_sw_operators.c ****         linked_stack_list.index--;
 1119              		.loc 1 236 26
 1120 008c 3B6A     		ldr	r3, [r7, #32]
 1121              		.loc 1 236 32
 1122 008e 013B     		subs	r3, r3, #1
 1123 0090 3B62     		str	r3, [r7, #32]
 237:Lib/AI_Runtime/Npu/ll_aton/ll_aton_lib_sw_operators.c ****       } while (linked_stack_list.index > index_end);
 1124              		.loc 1 237 33 discriminator 1
ARM GAS  /tmp/ccgnzMmM.s 			page 36


 1125 0092 3B6A     		ldr	r3, [r7, #32]
 1126              		.loc 1 237 40 discriminator 1
 1127 0094 3A6B     		ldr	r2, [r7, #48]
 1128 0096 9A42     		cmp	r2, r3
 1129 0098 F0D3     		bcc	.L52
 1130 009a 4FE0     		b	.L50
 1131              	.L51:
 1132              	.LBB7:
 238:Lib/AI_Runtime/Npu/ll_aton/ll_aton_lib_sw_operators.c ****     }
 239:Lib/AI_Runtime/Npu/ll_aton/ll_aton_lib_sw_operators.c ****   }
 240:Lib/AI_Runtime/Npu/ll_aton/ll_aton_lib_sw_operators.c ****   else
 241:Lib/AI_Runtime/Npu/ll_aton/ll_aton_lib_sw_operators.c ****   { // last axis
 242:Lib/AI_Runtime/Npu/ll_aton/ll_aton_lib_sw_operators.c ****     LL_ATON_ASSERT(curr_in_axis == (common_params->slice_rank - 1));
 1133              		.loc 1 242 5
 1134 009c 7B68     		ldr	r3, [r7, #4]
 1135 009e 1B69     		ldr	r3, [r3, #16]
 1136 00a0 013B     		subs	r3, r3, #1
 1137 00a2 FA68     		ldr	r2, [r7, #12]
 1138 00a4 9A42     		cmp	r2, r3
 1139 00a6 05D0     		beq	.L56
 1140              		.loc 1 242 5 is_stmt 0 discriminator 1
 1141 00a8 264B     		ldr	r3, .L63
 1142 00aa 274A     		ldr	r2, .L63+4
 1143 00ac F221     		movs	r1, #242
 1144 00ae 2748     		ldr	r0, .L63+8
 1145 00b0 FFF7FEFF 		bl	__assert_func
 1146              	.L56:
 243:Lib/AI_Runtime/Npu/ll_aton/ll_aton_lib_sw_operators.c **** 
 244:Lib/AI_Runtime/Npu/ll_aton/ll_aton_lib_sw_operators.c ****     /* Calculate input base positions */
 245:Lib/AI_Runtime/Npu/ll_aton/ll_aton_lib_sw_operators.c ****     int8_t *base_in_target;
 246:Lib/AI_Runtime/Npu/ll_aton/ll_aton_lib_sw_operators.c ****     int8_t *base_out_target =
 247:Lib/AI_Runtime/Npu/ll_aton/ll_aton_lib_sw_operators.c ****         __ll_slice_get_input_and_output_base_pos(common_params, &linked_stack_list, &base_in_target
 1147              		.loc 1 247 9 is_stmt 1
 1148 00b4 07F11402 		add	r2, r7, #20
 1149 00b8 07F11803 		add	r3, r7, #24
 1150 00bc 1946     		mov	r1, r3
 1151 00be 7868     		ldr	r0, [r7, #4]
 1152 00c0 FFF7FEFF 		bl	__ll_slice_get_input_and_output_base_pos
 1153 00c4 F862     		str	r0, [r7, #44]
 248:Lib/AI_Runtime/Npu/ll_aton/ll_aton_lib_sw_operators.c **** 
 249:Lib/AI_Runtime/Npu/ll_aton/ll_aton_lib_sw_operators.c ****     if (base_out_target == NULL)
 1154              		.loc 1 249 8
 1155 00c6 FB6A     		ldr	r3, [r7, #44]
 1156 00c8 002B     		cmp	r3, #0
 1157 00ca 37D0     		beq	.L50
 250:Lib/AI_Runtime/Npu/ll_aton/ll_aton_lib_sw_operators.c ****       return;
 251:Lib/AI_Runtime/Npu/ll_aton/ll_aton_lib_sw_operators.c **** 
 252:Lib/AI_Runtime/Npu/ll_aton/ll_aton_lib_sw_operators.c ****     uint32_t curr_in_axis_input_offset = common_params->input_axes_offsets[curr_in_axis];
 1158              		.loc 1 252 55
 1159 00cc 7B68     		ldr	r3, [r7, #4]
 1160 00ce 5A68     		ldr	r2, [r3, #4]
 1161              		.loc 1 252 75
 1162 00d0 FB68     		ldr	r3, [r7, #12]
 1163 00d2 9B00     		lsls	r3, r3, #2
 1164 00d4 1344     		add	r3, r3, r2
 1165              		.loc 1 252 14
 1166 00d6 1B68     		ldr	r3, [r3]
ARM GAS  /tmp/ccgnzMmM.s 			page 37


 1167 00d8 BB62     		str	r3, [r7, #40]
 253:Lib/AI_Runtime/Npu/ll_aton/ll_aton_lib_sw_operators.c ****     uint32_t curr_in_axis_output_offset = common_params->output_axes_offsets[curr_in_axis];
 1168              		.loc 1 253 56
 1169 00da 7B68     		ldr	r3, [r7, #4]
 1170 00dc DA68     		ldr	r2, [r3, #12]
 1171              		.loc 1 253 77
 1172 00de FB68     		ldr	r3, [r7, #12]
 1173 00e0 9B00     		lsls	r3, r3, #2
 1174 00e2 1344     		add	r3, r3, r2
 1175              		.loc 1 253 14
 1176 00e4 1B68     		ldr	r3, [r3]
 1177 00e6 7B62     		str	r3, [r7, #36]
 254:Lib/AI_Runtime/Npu/ll_aton/ll_aton_lib_sw_operators.c **** 
 255:Lib/AI_Runtime/Npu/ll_aton/ll_aton_lib_sw_operators.c ****     if (slice_forwards)
 1178              		.loc 1 255 8
 1179 00e8 97F83730 		ldrb	r3, [r7, #55]	@ zero_extendqisi2
 1180 00ec 002B     		cmp	r3, #0
 1181 00ee 13D0     		beq	.L59
 256:Lib/AI_Runtime/Npu/ll_aton/ll_aton_lib_sw_operators.c ****     { // slicing forwards
 257:Lib/AI_Runtime/Npu/ll_aton/ll_aton_lib_sw_operators.c ****       for (; linked_stack_list.index < index_end; linked_stack_list.index++)
 1182              		.loc 1 257 7
 1183 00f0 0DE0     		b	.L60
 1184              	.L61:
 258:Lib/AI_Runtime/Npu/ll_aton/ll_aton_lib_sw_operators.c ****       {
 259:Lib/AI_Runtime/Npu/ll_aton/ll_aton_lib_sw_operators.c ****         __ll_slice_copy_elem(common_params, &linked_stack_list, curr_in_axis_input_offset, curr_in_
 1185              		.loc 1 259 9
 1186 00f2 7B69     		ldr	r3, [r7, #20]
 1187 00f4 07F11801 		add	r1, r7, #24
 1188 00f8 FA6A     		ldr	r2, [r7, #44]
 1189 00fa 0192     		str	r2, [sp, #4]
 1190 00fc 0093     		str	r3, [sp]
 1191 00fe 7B6A     		ldr	r3, [r7, #36]
 1192 0100 BA6A     		ldr	r2, [r7, #40]
 1193 0102 7868     		ldr	r0, [r7, #4]
 1194 0104 FFF7FEFF 		bl	__ll_slice_copy_elem
 257:Lib/AI_Runtime/Npu/ll_aton/ll_aton_lib_sw_operators.c ****       {
 1195              		.loc 1 257 68 discriminator 2
 1196 0108 3B6A     		ldr	r3, [r7, #32]
 257:Lib/AI_Runtime/Npu/ll_aton/ll_aton_lib_sw_operators.c ****       {
 1197              		.loc 1 257 74 discriminator 2
 1198 010a 0133     		adds	r3, r3, #1
 1199 010c 3B62     		str	r3, [r7, #32]
 1200              	.L60:
 257:Lib/AI_Runtime/Npu/ll_aton/ll_aton_lib_sw_operators.c ****       {
 1201              		.loc 1 257 31 discriminator 1
 1202 010e 3B6A     		ldr	r3, [r7, #32]
 257:Lib/AI_Runtime/Npu/ll_aton/ll_aton_lib_sw_operators.c ****       {
 1203              		.loc 1 257 38 discriminator 1
 1204 0110 3A6B     		ldr	r2, [r7, #48]
 1205 0112 9A42     		cmp	r2, r3
 1206 0114 EDD8     		bhi	.L61
 1207 0116 11E0     		b	.L50
 1208              	.L59:
 260:Lib/AI_Runtime/Npu/ll_aton/ll_aton_lib_sw_operators.c ****                              base_in_target, base_out_target);
 261:Lib/AI_Runtime/Npu/ll_aton/ll_aton_lib_sw_operators.c ****       }
 262:Lib/AI_Runtime/Npu/ll_aton/ll_aton_lib_sw_operators.c ****     }
 263:Lib/AI_Runtime/Npu/ll_aton/ll_aton_lib_sw_operators.c ****     else
ARM GAS  /tmp/ccgnzMmM.s 			page 38


 264:Lib/AI_Runtime/Npu/ll_aton/ll_aton_lib_sw_operators.c ****     { // slicing backwards
 265:Lib/AI_Runtime/Npu/ll_aton/ll_aton_lib_sw_operators.c ****       do
 266:Lib/AI_Runtime/Npu/ll_aton/ll_aton_lib_sw_operators.c ****       {
 267:Lib/AI_Runtime/Npu/ll_aton/ll_aton_lib_sw_operators.c ****         __ll_slice_copy_elem(common_params, &linked_stack_list, curr_in_axis_input_offset, curr_in_
 1209              		.loc 1 267 9
 1210 0118 7B69     		ldr	r3, [r7, #20]
 1211 011a 07F11801 		add	r1, r7, #24
 1212 011e FA6A     		ldr	r2, [r7, #44]
 1213 0120 0192     		str	r2, [sp, #4]
 1214 0122 0093     		str	r3, [sp]
 1215 0124 7B6A     		ldr	r3, [r7, #36]
 1216 0126 BA6A     		ldr	r2, [r7, #40]
 1217 0128 7868     		ldr	r0, [r7, #4]
 1218 012a FFF7FEFF 		bl	__ll_slice_copy_elem
 268:Lib/AI_Runtime/Npu/ll_aton/ll_aton_lib_sw_operators.c ****                              base_in_target, base_out_target);
 269:Lib/AI_Runtime/Npu/ll_aton/ll_aton_lib_sw_operators.c ****         linked_stack_list.index--;
 1219              		.loc 1 269 26
 1220 012e 3B6A     		ldr	r3, [r7, #32]
 1221              		.loc 1 269 32
 1222 0130 013B     		subs	r3, r3, #1
 1223 0132 3B62     		str	r3, [r7, #32]
 270:Lib/AI_Runtime/Npu/ll_aton/ll_aton_lib_sw_operators.c ****       } while (linked_stack_list.index > index_end);
 1224              		.loc 1 270 33 discriminator 1
 1225 0134 3B6A     		ldr	r3, [r7, #32]
 1226              		.loc 1 270 40 discriminator 1
 1227 0136 3A6B     		ldr	r2, [r7, #48]
 1228 0138 9A42     		cmp	r2, r3
 1229 013a EDD3     		bcc	.L59
 1230              	.L50:
 1231              	.LBE7:
 271:Lib/AI_Runtime/Npu/ll_aton/ll_aton_lib_sw_operators.c ****     }
 272:Lib/AI_Runtime/Npu/ll_aton/ll_aton_lib_sw_operators.c ****   }
 273:Lib/AI_Runtime/Npu/ll_aton/ll_aton_lib_sw_operators.c **** }
 1232              		.loc 1 273 1
 1233 013c 3837     		adds	r7, r7, #56
 1234              		.cfi_def_cfa_offset 8
 1235 013e BD46     		mov	sp, r7
 1236              		.cfi_def_cfa_register 13
 1237              		@ sp needed
 1238 0140 80BD     		pop	{r7, pc}
 1239              	.L64:
 1240 0142 00BF     		.align	2
 1241              	.L63:
 1242 0144 84010000 		.word	.LC11
 1243 0148 00000000 		.word	__func__.29
 1244 014c 24000000 		.word	.LC1
 1245              		.cfi_endproc
 1246              	.LFE4859:
 1248              		.section	.text.LL_ATON_LIB_Slice,"ax",%progbits
 1249              		.align	1
 1250              		.global	LL_ATON_LIB_Slice
 1251              		.syntax unified
 1252              		.thumb
 1253              		.thumb_func
 1255              	LL_ATON_LIB_Slice:
 1256              	.LFB4860:
 274:Lib/AI_Runtime/Npu/ll_aton/ll_aton_lib_sw_operators.c **** 
ARM GAS  /tmp/ccgnzMmM.s 			page 39


 275:Lib/AI_Runtime/Npu/ll_aton/ll_aton_lib_sw_operators.c **** int LL_ATON_LIB_Slice(const LL_LIB_TensorShape_TypeDef *input, const uint32_t *input_axes_offsets,
 276:Lib/AI_Runtime/Npu/ll_aton/ll_aton_lib_sw_operators.c ****                       const LL_LIB_TensorShape_TypeDef *output, const uint32_t *output_axes_offsets
 277:Lib/AI_Runtime/Npu/ll_aton/ll_aton_lib_sw_operators.c ****                       uint32_t slice_rank, const int32_t *slice_starts, const int32_t *slice_ends,
 278:Lib/AI_Runtime/Npu/ll_aton/ll_aton_lib_sw_operators.c ****                       const int32_t *slice_steps)
 279:Lib/AI_Runtime/Npu/ll_aton/ll_aton_lib_sw_operators.c **** {
 1257              		.loc 1 279 1
 1258              		.cfi_startproc
 1259              		@ args = 16, pretend = 0, frame = 48
 1260              		@ frame_needed = 1, uses_anonymous_args = 0
 1261 0000 80B5     		push	{r7, lr}
 1262              		.cfi_def_cfa_offset 8
 1263              		.cfi_offset 7, -8
 1264              		.cfi_offset 14, -4
 1265 0002 8CB0     		sub	sp, sp, #48
 1266              		.cfi_def_cfa_offset 56
 1267 0004 00AF     		add	r7, sp, #0
 1268              		.cfi_def_cfa_register 7
 1269 0006 F860     		str	r0, [r7, #12]
 1270 0008 B960     		str	r1, [r7, #8]
 1271 000a 7A60     		str	r2, [r7, #4]
 1272 000c 3B60     		str	r3, [r7]
 280:Lib/AI_Runtime/Npu/ll_aton/ll_aton_lib_sw_operators.c ****   if (slice_rank != input->ndims)
 1273              		.loc 1 280 26
 1274 000e FB68     		ldr	r3, [r7, #12]
 1275 0010 93F82730 		ldrb	r3, [r3, #39]	@ zero_extendqisi2
 1276 0014 1A46     		mov	r2, r3
 1277              		.loc 1 280 6
 1278 0016 BB6B     		ldr	r3, [r7, #56]
 1279 0018 9342     		cmp	r3, r2
 1280 001a 08D0     		beq	.L66
 281:Lib/AI_Runtime/Npu/ll_aton/ll_aton_lib_sw_operators.c ****   {
 282:Lib/AI_Runtime/Npu/ll_aton/ll_aton_lib_sw_operators.c ****     __LL_LIB_ERROR(_ERR_RANK, LL_ATON_INVALID_PARAM);
 1281              		.loc 1 282 5
 1282 001c 2C4A     		ldr	r2, .L73
 1283 001e 4FF48D71 		mov	r1, #282
 1284 0022 0F20     		movs	r0, #15
 1285 0024 FFF7FEFF 		bl	__ll_lib_error
 1286              		.loc 1 282 5 is_stmt 0 discriminator 1
 1287 0028 6FF00103 		mvn	r3, #1
 1288              		.loc 1 282 5
 1289 002c 4CE0     		b	.L72
 1290              	.L66:
 283:Lib/AI_Runtime/Npu/ll_aton/ll_aton_lib_sw_operators.c ****   }
 284:Lib/AI_Runtime/Npu/ll_aton/ll_aton_lib_sw_operators.c **** 
 285:Lib/AI_Runtime/Npu/ll_aton/ll_aton_lib_sw_operators.c ****   if (input->ndims != output->ndims)
 1291              		.loc 1 285 12 is_stmt 1
 1292 002e FB68     		ldr	r3, [r7, #12]
 1293 0030 93F82720 		ldrb	r2, [r3, #39]	@ zero_extendqisi2
 1294              		.loc 1 285 29
 1295 0034 7B68     		ldr	r3, [r7, #4]
 1296 0036 93F82730 		ldrb	r3, [r3, #39]	@ zero_extendqisi2
 1297              		.loc 1 285 6
 1298 003a 9A42     		cmp	r2, r3
 1299 003c 08D0     		beq	.L68
 286:Lib/AI_Runtime/Npu/ll_aton/ll_aton_lib_sw_operators.c ****   {
 287:Lib/AI_Runtime/Npu/ll_aton/ll_aton_lib_sw_operators.c ****     __LL_LIB_ERROR(_ERR_RANK, LL_ATON_INVALID_PARAM);
 1300              		.loc 1 287 5
ARM GAS  /tmp/ccgnzMmM.s 			page 40


 1301 003e 244A     		ldr	r2, .L73
 1302 0040 40F21F11 		movw	r1, #287
 1303 0044 0F20     		movs	r0, #15
 1304 0046 FFF7FEFF 		bl	__ll_lib_error
 1305              		.loc 1 287 5 is_stmt 0 discriminator 1
 1306 004a 6FF00103 		mvn	r3, #1
 1307              		.loc 1 287 5
 1308 004e 3BE0     		b	.L72
 1309              	.L68:
 288:Lib/AI_Runtime/Npu/ll_aton/ll_aton_lib_sw_operators.c ****   }
 289:Lib/AI_Runtime/Npu/ll_aton/ll_aton_lib_sw_operators.c **** 
 290:Lib/AI_Runtime/Npu/ll_aton/ll_aton_lib_sw_operators.c ****   if (input->nbits != output->nbits)
 1310              		.loc 1 290 12 is_stmt 1
 1311 0050 FB68     		ldr	r3, [r7, #12]
 1312 0052 93F82820 		ldrb	r2, [r3, #40]	@ zero_extendqisi2
 1313              		.loc 1 290 29
 1314 0056 7B68     		ldr	r3, [r7, #4]
 1315 0058 93F82830 		ldrb	r3, [r3, #40]	@ zero_extendqisi2
 1316              		.loc 1 290 6
 1317 005c 9A42     		cmp	r2, r3
 1318 005e 08D0     		beq	.L69
 291:Lib/AI_Runtime/Npu/ll_aton/ll_aton_lib_sw_operators.c ****   { // TODO: should we support this?
 292:Lib/AI_Runtime/Npu/ll_aton/ll_aton_lib_sw_operators.c ****     __LL_LIB_ERROR(_ERR_NBITS, LL_ATON_INVALID_PARAM);
 1319              		.loc 1 292 5
 1320 0060 1B4A     		ldr	r2, .L73
 1321 0062 4FF49271 		mov	r1, #292
 1322 0066 0620     		movs	r0, #6
 1323 0068 FFF7FEFF 		bl	__ll_lib_error
 1324              		.loc 1 292 5 is_stmt 0 discriminator 1
 1325 006c 6FF00103 		mvn	r3, #1
 1326              		.loc 1 292 5
 1327 0070 2AE0     		b	.L72
 1328              	.L69:
 293:Lib/AI_Runtime/Npu/ll_aton/ll_aton_lib_sw_operators.c ****   }
 294:Lib/AI_Runtime/Npu/ll_aton/ll_aton_lib_sw_operators.c **** 
 295:Lib/AI_Runtime/Npu/ll_aton/ll_aton_lib_sw_operators.c ****   if ((input->nbits < 8) || (input->nbits > 32))
 1329              		.loc 1 295 13 is_stmt 1
 1330 0072 FB68     		ldr	r3, [r7, #12]
 1331 0074 93F82830 		ldrb	r3, [r3, #40]	@ zero_extendqisi2
 1332              		.loc 1 295 6
 1333 0078 072B     		cmp	r3, #7
 1334 007a 04D9     		bls	.L70
 1335              		.loc 1 295 35 discriminator 1
 1336 007c FB68     		ldr	r3, [r7, #12]
 1337 007e 93F82830 		ldrb	r3, [r3, #40]	@ zero_extendqisi2
 1338              		.loc 1 295 26 discriminator 1
 1339 0082 202B     		cmp	r3, #32
 1340 0084 08D9     		bls	.L71
 1341              	.L70:
 296:Lib/AI_Runtime/Npu/ll_aton/ll_aton_lib_sw_operators.c ****   {
 297:Lib/AI_Runtime/Npu/ll_aton/ll_aton_lib_sw_operators.c ****     __LL_LIB_ERROR(_ERR_NBITS, LL_ATON_INVALID_PARAM);
 1342              		.loc 1 297 5
 1343 0086 124A     		ldr	r2, .L73
 1344 0088 40F22911 		movw	r1, #297
 1345 008c 0620     		movs	r0, #6
 1346 008e FFF7FEFF 		bl	__ll_lib_error
 1347              		.loc 1 297 5 is_stmt 0 discriminator 1
ARM GAS  /tmp/ccgnzMmM.s 			page 41


 1348 0092 6FF00103 		mvn	r3, #1
 1349              		.loc 1 297 5
 1350 0096 17E0     		b	.L72
 1351              	.L71:
 298:Lib/AI_Runtime/Npu/ll_aton/ll_aton_lib_sw_operators.c ****   }
 299:Lib/AI_Runtime/Npu/ll_aton/ll_aton_lib_sw_operators.c **** 
 300:Lib/AI_Runtime/Npu/ll_aton/ll_aton_lib_sw_operators.c ****   const __ll_slice_params_t common_params = {.input = input,
 1352              		.loc 1 300 29 is_stmt 1
 1353 0098 FB68     		ldr	r3, [r7, #12]
 1354 009a 3B61     		str	r3, [r7, #16]
 1355 009c BB68     		ldr	r3, [r7, #8]
 1356 009e 7B61     		str	r3, [r7, #20]
 1357 00a0 7B68     		ldr	r3, [r7, #4]
 1358 00a2 BB61     		str	r3, [r7, #24]
 1359 00a4 3B68     		ldr	r3, [r7]
 1360 00a6 FB61     		str	r3, [r7, #28]
 1361 00a8 BB6B     		ldr	r3, [r7, #56]
 1362 00aa 3B62     		str	r3, [r7, #32]
 1363 00ac FB6B     		ldr	r3, [r7, #60]
 1364 00ae 7B62     		str	r3, [r7, #36]
 1365 00b0 3B6C     		ldr	r3, [r7, #64]
 1366 00b2 BB62     		str	r3, [r7, #40]
 1367 00b4 7B6C     		ldr	r3, [r7, #68]
 1368 00b6 FB62     		str	r3, [r7, #44]
 301:Lib/AI_Runtime/Npu/ll_aton/ll_aton_lib_sw_operators.c ****                                              .input_axes_offsets = input_axes_offsets,
 302:Lib/AI_Runtime/Npu/ll_aton/ll_aton_lib_sw_operators.c ****                                              .output = output,
 303:Lib/AI_Runtime/Npu/ll_aton/ll_aton_lib_sw_operators.c ****                                              .output_axes_offsets = output_axes_offsets,
 304:Lib/AI_Runtime/Npu/ll_aton/ll_aton_lib_sw_operators.c ****                                              .slice_rank = slice_rank,
 305:Lib/AI_Runtime/Npu/ll_aton/ll_aton_lib_sw_operators.c ****                                              .slice_starts = slice_starts,
 306:Lib/AI_Runtime/Npu/ll_aton/ll_aton_lib_sw_operators.c ****                                              .slice_ends = slice_ends,
 307:Lib/AI_Runtime/Npu/ll_aton/ll_aton_lib_sw_operators.c ****                                              .slice_steps = slice_steps};
 308:Lib/AI_Runtime/Npu/ll_aton/ll_aton_lib_sw_operators.c **** 
 309:Lib/AI_Runtime/Npu/ll_aton/ll_aton_lib_sw_operators.c ****   __ll_aton_lib_slice(0, NULL, &common_params);
 1369              		.loc 1 309 3
 1370 00b8 07F11003 		add	r3, r7, #16
 1371 00bc 1A46     		mov	r2, r3
 1372 00be 0021     		movs	r1, #0
 1373 00c0 0020     		movs	r0, #0
 1374 00c2 FFF7FEFF 		bl	__ll_aton_lib_slice
 310:Lib/AI_Runtime/Npu/ll_aton/ll_aton_lib_sw_operators.c **** 
 311:Lib/AI_Runtime/Npu/ll_aton/ll_aton_lib_sw_operators.c ****   return LL_ATON_OK; // TODO
 1375              		.loc 1 311 10
 1376 00c6 0023     		movs	r3, #0
 1377              	.L72:
 312:Lib/AI_Runtime/Npu/ll_aton/ll_aton_lib_sw_operators.c **** }
 1378              		.loc 1 312 1
 1379 00c8 1846     		mov	r0, r3
 1380 00ca 3037     		adds	r7, r7, #48
 1381              		.cfi_def_cfa_offset 8
 1382 00cc BD46     		mov	sp, r7
 1383              		.cfi_def_cfa_register 13
 1384              		@ sp needed
 1385 00ce 80BD     		pop	{r7, pc}
 1386              	.L74:
 1387              		.align	2
 1388              	.L73:
 1389 00d0 00000000 		.word	__FUNCTION__.27
ARM GAS  /tmp/ccgnzMmM.s 			page 42


 1390              		.cfi_endproc
 1391              	.LFE4860:
 1393              		.section	.text.__ll_aton_lib_sw_outputs_flat_copy,"ax",%progbits
 1394              		.align	1
 1395              		.syntax unified
 1396              		.thumb
 1397              		.thumb_func
 1399              	__ll_aton_lib_sw_outputs_flat_copy:
 1400              	.LFB4861:
 313:Lib/AI_Runtime/Npu/ll_aton/ll_aton_lib_sw_operators.c **** 
 314:Lib/AI_Runtime/Npu/ll_aton/ll_aton_lib_sw_operators.c **** static int __ll_aton_lib_sw_outputs_flat_copy(const LL_LIB_TensorShape_TypeDef *input,
 315:Lib/AI_Runtime/Npu/ll_aton/ll_aton_lib_sw_operators.c ****                                               const LL_LIB_TensorShape_TypeDef (*outputs)[], unsign
 316:Lib/AI_Runtime/Npu/ll_aton/ll_aton_lib_sw_operators.c **** {
 1401              		.loc 1 316 1
 1402              		.cfi_startproc
 1403              		@ args = 0, pretend = 0, frame = 56
 1404              		@ frame_needed = 1, uses_anonymous_args = 0
 1405 0000 80B5     		push	{r7, lr}
 1406              		.cfi_def_cfa_offset 8
 1407              		.cfi_offset 7, -8
 1408              		.cfi_offset 14, -4
 1409 0002 8EB0     		sub	sp, sp, #56
 1410              		.cfi_def_cfa_offset 64
 1411 0004 00AF     		add	r7, sp, #0
 1412              		.cfi_def_cfa_register 7
 1413 0006 F860     		str	r0, [r7, #12]
 1414 0008 B960     		str	r1, [r7, #8]
 1415 000a 7A60     		str	r2, [r7, #4]
 317:Lib/AI_Runtime/Npu/ll_aton/ll_aton_lib_sw_operators.c **** #ifndef NDEBUG
 318:Lib/AI_Runtime/Npu/ll_aton/ll_aton_lib_sw_operators.c ****   // LL_ATON_PRINTF("%s() line %d\n", __func__, __LINE__);
 319:Lib/AI_Runtime/Npu/ll_aton/ll_aton_lib_sw_operators.c **** 
 320:Lib/AI_Runtime/Npu/ll_aton/ll_aton_lib_sw_operators.c ****   int input_size = LL_Buffer_len(input);
 1416              		.loc 1 320 20
 1417 000c F868     		ldr	r0, [r7, #12]
 1418 000e FFF7FEFF 		bl	LL_Buffer_len
 1419 0012 0346     		mov	r3, r0
 1420              		.loc 1 320 7 discriminator 1
 1421 0014 3B62     		str	r3, [r7, #32]
 321:Lib/AI_Runtime/Npu/ll_aton/ll_aton_lib_sw_operators.c ****   int output_size = 0;
 1422              		.loc 1 321 7
 1423 0016 0023     		movs	r3, #0
 1424 0018 7B63     		str	r3, [r7, #52]
 1425              	.LBB8:
 322:Lib/AI_Runtime/Npu/ll_aton/ll_aton_lib_sw_operators.c **** 
 323:Lib/AI_Runtime/Npu/ll_aton/ll_aton_lib_sw_operators.c ****   for (unsigned i = 0; i < nr_of_outputs; i++)
 1426              		.loc 1 323 17
 1427 001a 0023     		movs	r3, #0
 1428 001c 3B63     		str	r3, [r7, #48]
 1429              		.loc 1 323 3
 1430 001e 11E0     		b	.L76
 1431              	.L77:
 324:Lib/AI_Runtime/Npu/ll_aton/ll_aton_lib_sw_operators.c ****   {
 325:Lib/AI_Runtime/Npu/ll_aton/ll_aton_lib_sw_operators.c ****     output_size += LL_Buffer_len((*outputs) + i);
 1432              		.loc 1 325 45
 1433 0020 3A6B     		ldr	r2, [r7, #48]
 1434 0022 1346     		mov	r3, r2
 1435 0024 DB00     		lsls	r3, r3, #3
ARM GAS  /tmp/ccgnzMmM.s 			page 43


 1436 0026 9B1A     		subs	r3, r3, r2
 1437 0028 DB00     		lsls	r3, r3, #3
 1438 002a 1A46     		mov	r2, r3
 1439              		.loc 1 325 20
 1440 002c BB68     		ldr	r3, [r7, #8]
 1441 002e 1344     		add	r3, r3, r2
 1442 0030 1846     		mov	r0, r3
 1443 0032 FFF7FEFF 		bl	LL_Buffer_len
 1444 0036 0246     		mov	r2, r0
 1445              		.loc 1 325 17 discriminator 1
 1446 0038 7B6B     		ldr	r3, [r7, #52]
 1447 003a 1344     		add	r3, r3, r2
 1448 003c 7B63     		str	r3, [r7, #52]
 323:Lib/AI_Runtime/Npu/ll_aton/ll_aton_lib_sw_operators.c ****   {
 1449              		.loc 1 323 44 discriminator 3
 1450 003e 3B6B     		ldr	r3, [r7, #48]
 1451 0040 0133     		adds	r3, r3, #1
 1452 0042 3B63     		str	r3, [r7, #48]
 1453              	.L76:
 323:Lib/AI_Runtime/Npu/ll_aton/ll_aton_lib_sw_operators.c ****   {
 1454              		.loc 1 323 26 discriminator 1
 1455 0044 3A6B     		ldr	r2, [r7, #48]
 1456 0046 7B68     		ldr	r3, [r7, #4]
 1457 0048 9A42     		cmp	r2, r3
 1458 004a E9D3     		bcc	.L77
 1459              	.LBE8:
 326:Lib/AI_Runtime/Npu/ll_aton/ll_aton_lib_sw_operators.c ****   }
 327:Lib/AI_Runtime/Npu/ll_aton/ll_aton_lib_sw_operators.c **** 
 328:Lib/AI_Runtime/Npu/ll_aton/ll_aton_lib_sw_operators.c ****   if (input_size != output_size)
 1460              		.loc 1 328 6
 1461 004c 3A6A     		ldr	r2, [r7, #32]
 1462 004e 7B6B     		ldr	r3, [r7, #52]
 1463 0050 9A42     		cmp	r2, r3
 1464 0052 08D0     		beq	.L78
 329:Lib/AI_Runtime/Npu/ll_aton/ll_aton_lib_sw_operators.c ****   { // should never happen
 330:Lib/AI_Runtime/Npu/ll_aton/ll_aton_lib_sw_operators.c ****     __LL_LIB_ERROR(_ERR_SHAPE, LL_ATON_INVALID_PARAM);
 1465              		.loc 1 330 5
 1466 0054 364A     		ldr	r2, .L86
 1467 0056 4FF4A571 		mov	r1, #330
 1468 005a 0920     		movs	r0, #9
 1469 005c FFF7FEFF 		bl	__ll_lib_error
 1470              		.loc 1 330 5 is_stmt 0 discriminator 1
 1471 0060 6FF00103 		mvn	r3, #1
 1472              		.loc 1 330 5
 1473 0064 60E0     		b	.L79
 1474              	.L78:
 331:Lib/AI_Runtime/Npu/ll_aton/ll_aton_lib_sw_operators.c ****   }
 332:Lib/AI_Runtime/Npu/ll_aton/ll_aton_lib_sw_operators.c **** 
 333:Lib/AI_Runtime/Npu/ll_aton/ll_aton_lib_sw_operators.c ****   uint8_t nbits = LL_LIB_NBYTES(input->nbits);
 1475              		.loc 1 333 19 is_stmt 1
 1476 0066 FB68     		ldr	r3, [r7, #12]
 1477 0068 93F82830 		ldrb	r3, [r3, #40]	@ zero_extendqisi2
 1478 006c 0733     		adds	r3, r3, #7
 1479 006e DB10     		asrs	r3, r3, #3
 1480              		.loc 1 333 11
 1481 0070 FB77     		strb	r3, [r7, #31]
 1482              	.LBB9:
ARM GAS  /tmp/ccgnzMmM.s 			page 44


 334:Lib/AI_Runtime/Npu/ll_aton/ll_aton_lib_sw_operators.c ****   for (unsigned i = 0; i < nr_of_outputs; i++)
 1483              		.loc 1 334 17
 1484 0072 0023     		movs	r3, #0
 1485 0074 FB62     		str	r3, [r7, #44]
 1486              		.loc 1 334 3
 1487 0076 17E0     		b	.L80
 1488              	.L82:
 335:Lib/AI_Runtime/Npu/ll_aton/ll_aton_lib_sw_operators.c ****   {
 336:Lib/AI_Runtime/Npu/ll_aton/ll_aton_lib_sw_operators.c ****     if ((*outputs)[i].nbits != nbits)
 1489              		.loc 1 336 22
 1490 0078 B968     		ldr	r1, [r7, #8]
 1491 007a FA6A     		ldr	r2, [r7, #44]
 1492 007c 1346     		mov	r3, r2
 1493 007e DB00     		lsls	r3, r3, #3
 1494 0080 9B1A     		subs	r3, r3, r2
 1495 0082 DB00     		lsls	r3, r3, #3
 1496 0084 0B44     		add	r3, r3, r1
 1497 0086 2833     		adds	r3, r3, #40
 1498 0088 1B78     		ldrb	r3, [r3]	@ zero_extendqisi2
 1499              		.loc 1 336 8
 1500 008a FA7F     		ldrb	r2, [r7, #31]	@ zero_extendqisi2
 1501 008c 9A42     		cmp	r2, r3
 1502 008e 08D0     		beq	.L81
 337:Lib/AI_Runtime/Npu/ll_aton/ll_aton_lib_sw_operators.c ****     {
 338:Lib/AI_Runtime/Npu/ll_aton/ll_aton_lib_sw_operators.c ****       __LL_LIB_ERROR(_ERR_NBITS_OUT, LL_ATON_INVALID_PARAM);
 1503              		.loc 1 338 7
 1504 0090 274A     		ldr	r2, .L86
 1505 0092 4FF4A971 		mov	r1, #338
 1506 0096 0820     		movs	r0, #8
 1507 0098 FFF7FEFF 		bl	__ll_lib_error
 1508              		.loc 1 338 7 is_stmt 0 discriminator 1
 1509 009c 6FF00103 		mvn	r3, #1
 1510              		.loc 1 338 7
 1511 00a0 42E0     		b	.L79
 1512              	.L81:
 334:Lib/AI_Runtime/Npu/ll_aton/ll_aton_lib_sw_operators.c ****   {
 1513              		.loc 1 334 44 is_stmt 1 discriminator 2
 1514 00a2 FB6A     		ldr	r3, [r7, #44]
 1515 00a4 0133     		adds	r3, r3, #1
 1516 00a6 FB62     		str	r3, [r7, #44]
 1517              	.L80:
 334:Lib/AI_Runtime/Npu/ll_aton/ll_aton_lib_sw_operators.c ****   {
 1518              		.loc 1 334 26 discriminator 1
 1519 00a8 FA6A     		ldr	r2, [r7, #44]
 1520 00aa 7B68     		ldr	r3, [r7, #4]
 1521 00ac 9A42     		cmp	r2, r3
 1522 00ae E3D3     		bcc	.L82
 1523              	.LBE9:
 339:Lib/AI_Runtime/Npu/ll_aton/ll_aton_lib_sw_operators.c ****     }
 340:Lib/AI_Runtime/Npu/ll_aton/ll_aton_lib_sw_operators.c ****   }
 341:Lib/AI_Runtime/Npu/ll_aton/ll_aton_lib_sw_operators.c **** #endif // !NDEBUG
 342:Lib/AI_Runtime/Npu/ll_aton/ll_aton_lib_sw_operators.c **** 
 343:Lib/AI_Runtime/Npu/ll_aton/ll_aton_lib_sw_operators.c ****   if (nr_of_outputs <= 0)
 1524              		.loc 1 343 6
 1525 00b0 7B68     		ldr	r3, [r7, #4]
 1526 00b2 002B     		cmp	r3, #0
 1527 00b4 08D1     		bne	.L83
ARM GAS  /tmp/ccgnzMmM.s 			page 45


 344:Lib/AI_Runtime/Npu/ll_aton/ll_aton_lib_sw_operators.c ****   { // should never happen
 345:Lib/AI_Runtime/Npu/ll_aton/ll_aton_lib_sw_operators.c ****     __LL_LIB_ERROR(_ERR_NOUTPUTS, LL_ATON_INVALID_PARAM);
 1528              		.loc 1 345 5
 1529 00b6 1E4A     		ldr	r2, .L86
 1530 00b8 40F25911 		movw	r1, #345
 1531 00bc 0220     		movs	r0, #2
 1532 00be FFF7FEFF 		bl	__ll_lib_error
 1533              		.loc 1 345 5 is_stmt 0 discriminator 1
 1534 00c2 6FF00103 		mvn	r3, #1
 1535              		.loc 1 345 5
 1536 00c6 2FE0     		b	.L79
 1537              	.L83:
 346:Lib/AI_Runtime/Npu/ll_aton/ll_aton_lib_sw_operators.c ****   }
 347:Lib/AI_Runtime/Npu/ll_aton/ll_aton_lib_sw_operators.c **** 
 348:Lib/AI_Runtime/Npu/ll_aton/ll_aton_lib_sw_operators.c ****   unsigned char *curr_in_addr = ATON_LIB_PHYSICAL_TO_VIRTUAL_ADDR(LL_Buffer_addr_start(input));
 1538              		.loc 1 348 33 is_stmt 1
 1539 00c8 F868     		ldr	r0, [r7, #12]
 1540 00ca FFF7FEFF 		bl	LL_Buffer_addr_start
 1541 00ce B862     		str	r0, [r7, #40]
 1542              	.LBB10:
 349:Lib/AI_Runtime/Npu/ll_aton/ll_aton_lib_sw_operators.c ****   for (int i = 0; i < nr_of_outputs; i++)
 1543              		.loc 1 349 12
 1544 00d0 0023     		movs	r3, #0
 1545 00d2 7B62     		str	r3, [r7, #36]
 1546              		.loc 1 349 3
 1547 00d4 23E0     		b	.L84
 1548              	.L85:
 1549              	.LBB11:
 350:Lib/AI_Runtime/Npu/ll_aton/ll_aton_lib_sw_operators.c ****   {
 351:Lib/AI_Runtime/Npu/ll_aton/ll_aton_lib_sw_operators.c ****     unsigned char *out_addr = ATON_LIB_PHYSICAL_TO_VIRTUAL_ADDR(LL_Buffer_addr_start((*outputs) + i
 1550              		.loc 1 351 31
 1551 00d6 7A6A     		ldr	r2, [r7, #36]
 1552 00d8 1346     		mov	r3, r2
 1553 00da DB00     		lsls	r3, r3, #3
 1554 00dc 9B1A     		subs	r3, r3, r2
 1555 00de DB00     		lsls	r3, r3, #3
 1556 00e0 1A46     		mov	r2, r3
 1557 00e2 BB68     		ldr	r3, [r7, #8]
 1558 00e4 1344     		add	r3, r3, r2
 1559 00e6 1846     		mov	r0, r3
 1560 00e8 FFF7FEFF 		bl	LL_Buffer_addr_start
 1561 00ec B861     		str	r0, [r7, #24]
 352:Lib/AI_Runtime/Npu/ll_aton/ll_aton_lib_sw_operators.c ****     unsigned out_size = LL_Buffer_len((*outputs) + i);
 1562              		.loc 1 352 50
 1563 00ee 7A6A     		ldr	r2, [r7, #36]
 1564 00f0 1346     		mov	r3, r2
 1565 00f2 DB00     		lsls	r3, r3, #3
 1566 00f4 9B1A     		subs	r3, r3, r2
 1567 00f6 DB00     		lsls	r3, r3, #3
 1568 00f8 1A46     		mov	r2, r3
 1569              		.loc 1 352 25
 1570 00fa BB68     		ldr	r3, [r7, #8]
 1571 00fc 1344     		add	r3, r3, r2
 1572 00fe 1846     		mov	r0, r3
 1573 0100 FFF7FEFF 		bl	LL_Buffer_len
 1574 0104 7861     		str	r0, [r7, #20]
 353:Lib/AI_Runtime/Npu/ll_aton/ll_aton_lib_sw_operators.c **** 
ARM GAS  /tmp/ccgnzMmM.s 			page 46


 354:Lib/AI_Runtime/Npu/ll_aton/ll_aton_lib_sw_operators.c ****     memcpy(out_addr, curr_in_addr, out_size);
 1575              		.loc 1 354 5
 1576 0106 7A69     		ldr	r2, [r7, #20]
 1577 0108 B96A     		ldr	r1, [r7, #40]
 1578 010a B869     		ldr	r0, [r7, #24]
 1579 010c FFF7FEFF 		bl	memcpy
 355:Lib/AI_Runtime/Npu/ll_aton/ll_aton_lib_sw_operators.c **** 
 356:Lib/AI_Runtime/Npu/ll_aton/ll_aton_lib_sw_operators.c ****     curr_in_addr += out_size;
 1580              		.loc 1 356 18
 1581 0110 BA6A     		ldr	r2, [r7, #40]
 1582 0112 7B69     		ldr	r3, [r7, #20]
 1583 0114 1344     		add	r3, r3, r2
 1584 0116 BB62     		str	r3, [r7, #40]
 1585              	.LBE11:
 349:Lib/AI_Runtime/Npu/ll_aton/ll_aton_lib_sw_operators.c ****   {
 1586              		.loc 1 349 39 discriminator 3
 1587 0118 7B6A     		ldr	r3, [r7, #36]
 1588 011a 0133     		adds	r3, r3, #1
 1589 011c 7B62     		str	r3, [r7, #36]
 1590              	.L84:
 349:Lib/AI_Runtime/Npu/ll_aton/ll_aton_lib_sw_operators.c ****   {
 1591              		.loc 1 349 21 discriminator 1
 1592 011e 7B6A     		ldr	r3, [r7, #36]
 1593 0120 7A68     		ldr	r2, [r7, #4]
 1594 0122 9A42     		cmp	r2, r3
 1595 0124 D7D8     		bhi	.L85
 1596              	.LBE10:
 357:Lib/AI_Runtime/Npu/ll_aton/ll_aton_lib_sw_operators.c ****   }
 358:Lib/AI_Runtime/Npu/ll_aton/ll_aton_lib_sw_operators.c **** 
 359:Lib/AI_Runtime/Npu/ll_aton/ll_aton_lib_sw_operators.c ****   return LL_ATON_OK;
 1597              		.loc 1 359 10
 1598 0126 0023     		movs	r3, #0
 1599              	.L79:
 360:Lib/AI_Runtime/Npu/ll_aton/ll_aton_lib_sw_operators.c **** }
 1600              		.loc 1 360 1
 1601 0128 1846     		mov	r0, r3
 1602 012a 3837     		adds	r7, r7, #56
 1603              		.cfi_def_cfa_offset 8
 1604 012c BD46     		mov	sp, r7
 1605              		.cfi_def_cfa_register 13
 1606              		@ sp needed
 1607 012e 80BD     		pop	{r7, pc}
 1608              	.L87:
 1609              		.align	2
 1610              	.L86:
 1611 0130 00000000 		.word	__FUNCTION__.26
 1612              		.cfi_endproc
 1613              	.LFE4861:
 1615              		.section	.rodata.aton_lut,"a"
 1616              		.align	2
 1619              	aton_lut:
 1620 0000 00000000 		.word	0
 1621 0004 03000000 		.word	3
 1622 0008 01000000 		.word	1
 1623 000c 02000000 		.word	2
 1624              		.section	.rodata.onnx_lut,"a"
 1625              		.align	2
ARM GAS  /tmp/ccgnzMmM.s 			page 47


 1628              	onnx_lut:
 1629 0000 00000000 		.word	0
 1630 0004 02000000 		.word	2
 1631 0008 03000000 		.word	3
 1632 000c 01000000 		.word	1
 1633              		.section	.text.__ll_aton_lib_split_aton_canonical,"ax",%progbits
 1634              		.align	1
 1635              		.syntax unified
 1636              		.thumb
 1637              		.thumb_func
 1639              	__ll_aton_lib_split_aton_canonical:
 1640              	.LFB4862:
 361:Lib/AI_Runtime/Npu/ll_aton/ll_aton_lib_sw_operators.c **** 
 362:Lib/AI_Runtime/Npu/ll_aton/ll_aton_lib_sw_operators.c **** // convert axis from ...CHW -> ...HWC
 363:Lib/AI_Runtime/Npu/ll_aton/ll_aton_lib_sw_operators.c **** static const int aton_lut[] = {TDIM_NKERNELS, TDIM_NCHANNELS, TDIM_FHEIGHT, TDIM_FWIDTH};
 364:Lib/AI_Runtime/Npu/ll_aton/ll_aton_lib_sw_operators.c **** #define LUT_ATON(x) (((x >= (rank - 4)) && (rank > 2)) ? (rank - 4) + aton_lut[x - (rank - 4)] : x)
 365:Lib/AI_Runtime/Npu/ll_aton/ll_aton_lib_sw_operators.c **** 
 366:Lib/AI_Runtime/Npu/ll_aton/ll_aton_lib_sw_operators.c **** // convert axis from ...HWC -> ...CHW
 367:Lib/AI_Runtime/Npu/ll_aton/ll_aton_lib_sw_operators.c **** static const int onnx_lut[] = {TDIM_ONNX_NKERNELS, TDIM_ONNX_FHEIGHT, TDIM_ONNX_FWIDTH, TDIM_ONNX_N
 368:Lib/AI_Runtime/Npu/ll_aton/ll_aton_lib_sw_operators.c **** #define LUT_ONNX(x) (((x >= (rank - 4)) && (rank > 2)) ? (rank - 4) + onnx_lut[x - (rank - 4)] : x)
 369:Lib/AI_Runtime/Npu/ll_aton/ll_aton_lib_sw_operators.c **** 
 370:Lib/AI_Runtime/Npu/ll_aton/ll_aton_lib_sw_operators.c **** /* beyond function assumes that input and output tensors are ATON canonical */
 371:Lib/AI_Runtime/Npu/ll_aton/ll_aton_lib_sw_operators.c **** static void __ll_aton_lib_split_aton_canonical(const LL_LIB_TensorShape_TypeDef *input,
 372:Lib/AI_Runtime/Npu/ll_aton/ll_aton_lib_sw_operators.c ****                                                const LL_LIB_TensorShape_TypeDef (*outputs)[], int n
 373:Lib/AI_Runtime/Npu/ll_aton/ll_aton_lib_sw_operators.c ****                                                int rank, int split_onnx_axis)
 374:Lib/AI_Runtime/Npu/ll_aton/ll_aton_lib_sw_operators.c **** {
 1641              		.loc 1 374 1
 1642              		.cfi_startproc
 1643              		@ args = 4, pretend = 0, frame = 64
 1644              		@ frame_needed = 1, uses_anonymous_args = 0
 1645 0000 90B5     		push	{r4, r7, lr}
 1646              		.cfi_def_cfa_offset 12
 1647              		.cfi_offset 4, -12
 1648              		.cfi_offset 7, -8
 1649              		.cfi_offset 14, -4
 1650 0002 91B0     		sub	sp, sp, #68
 1651              		.cfi_def_cfa_offset 80
 1652 0004 00AF     		add	r7, sp, #0
 1653              		.cfi_def_cfa_register 7
 1654 0006 F860     		str	r0, [r7, #12]
 1655 0008 B960     		str	r1, [r7, #8]
 1656 000a 7A60     		str	r2, [r7, #4]
 1657 000c 3B60     		str	r3, [r7]
 375:Lib/AI_Runtime/Npu/ll_aton/ll_aton_lib_sw_operators.c ****   int aton_axis = LUT_ATON(split_onnx_axis);
 1658              		.loc 1 375 19
 1659 000e 3B68     		ldr	r3, [r7]
 1660 0010 043B     		subs	r3, r3, #4
 1661 0012 3A6D     		ldr	r2, [r7, #80]
 1662 0014 9A42     		cmp	r2, r3
 1663 0016 0DDB     		blt	.L89
 1664              		.loc 1 375 19 is_stmt 0 discriminator 1
 1665 0018 3B68     		ldr	r3, [r7]
 1666 001a 022B     		cmp	r3, #2
 1667 001c 0ADD     		ble	.L89
 1668              		.loc 1 375 19 discriminator 3
 1669 001e 3B68     		ldr	r3, [r7]
 1670 0020 1A1F     		subs	r2, r3, #4
ARM GAS  /tmp/ccgnzMmM.s 			page 48


 1671 0022 3B68     		ldr	r3, [r7]
 1672 0024 043B     		subs	r3, r3, #4
 1673 0026 396D     		ldr	r1, [r7, #80]
 1674 0028 CB1A     		subs	r3, r1, r3
 1675 002a 4E49     		ldr	r1, .L99
 1676 002c 51F82330 		ldr	r3, [r1, r3, lsl #2]
 1677 0030 1344     		add	r3, r3, r2
 1678              		.loc 1 375 19
 1679 0032 00E0     		b	.L90
 1680              	.L89:
 1681              		.loc 1 375 19 discriminator 4
 1682 0034 3B6D     		ldr	r3, [r7, #80]
 1683              	.L90:
 1684              		.loc 1 375 7 is_stmt 1 discriminator 6
 1685 0036 7B62     		str	r3, [r7, #36]
 376:Lib/AI_Runtime/Npu/ll_aton/ll_aton_lib_sw_operators.c ****   int tot_size = LL_Buffer_len(input);
 1686              		.loc 1 376 18
 1687 0038 F868     		ldr	r0, [r7, #12]
 1688 003a FFF7FEFF 		bl	LL_Buffer_len
 1689 003e 0346     		mov	r3, r0
 1690              		.loc 1 376 7 discriminator 1
 1691 0040 3B62     		str	r3, [r7, #32]
 377:Lib/AI_Runtime/Npu/ll_aton/ll_aton_lib_sw_operators.c **** 
 378:Lib/AI_Runtime/Npu/ll_aton/ll_aton_lib_sw_operators.c ****   int start = 0;
 1692              		.loc 1 378 7
 1693 0042 0023     		movs	r3, #0
 1694 0044 FB63     		str	r3, [r7, #60]
 379:Lib/AI_Runtime/Npu/ll_aton/ll_aton_lib_sw_operators.c ****   int stop = tot_size;
 1695              		.loc 1 379 7
 1696 0046 3B6A     		ldr	r3, [r7, #32]
 1697 0048 FB61     		str	r3, [r7, #28]
 380:Lib/AI_Runtime/Npu/ll_aton/ll_aton_lib_sw_operators.c ****   int jump_base = 1;
 1698              		.loc 1 380 7
 1699 004a 0123     		movs	r3, #1
 1700 004c BB63     		str	r3, [r7, #56]
 1701              	.LBB12:
 381:Lib/AI_Runtime/Npu/ll_aton/ll_aton_lib_sw_operators.c ****   for (int i = aton_axis + 1; i < rank; i++)
 1702              		.loc 1 381 12
 1703 004e 7B6A     		ldr	r3, [r7, #36]
 1704 0050 0133     		adds	r3, r3, #1
 1705 0052 7B63     		str	r3, [r7, #52]
 1706              		.loc 1 381 3
 1707 0054 20E0     		b	.L91
 1708              	.L94:
 382:Lib/AI_Runtime/Npu/ll_aton/ll_aton_lib_sw_operators.c ****     jump_base *= input->shape[LUT_ONNX(i)];
 1709              		.loc 1 382 23
 1710 0056 FB68     		ldr	r3, [r7, #12]
 1711 0058 DA6A     		ldr	r2, [r3, #44]
 1712              		.loc 1 382 31
 1713 005a 3B68     		ldr	r3, [r7]
 1714 005c 043B     		subs	r3, r3, #4
 1715              		.loc 1 382 30
 1716 005e 796B     		ldr	r1, [r7, #52]
 1717 0060 9942     		cmp	r1, r3
 1718 0062 0EDB     		blt	.L92
 1719              		.loc 1 382 31 discriminator 1
 1720 0064 3B68     		ldr	r3, [r7]
ARM GAS  /tmp/ccgnzMmM.s 			page 49


 1721 0066 022B     		cmp	r3, #2
 1722 0068 0BDD     		ble	.L92
 1723              		.loc 1 382 31 is_stmt 0 discriminator 3
 1724 006a 3B68     		ldr	r3, [r7]
 1725 006c 191F     		subs	r1, r3, #4
 1726 006e 3B68     		ldr	r3, [r7]
 1727 0070 043B     		subs	r3, r3, #4
 1728 0072 786B     		ldr	r0, [r7, #52]
 1729 0074 C31A     		subs	r3, r0, r3
 1730 0076 3C48     		ldr	r0, .L99+4
 1731 0078 50F82330 		ldr	r3, [r0, r3, lsl #2]
 1732 007c 0B44     		add	r3, r3, r1
 1733              		.loc 1 382 30 is_stmt 1 discriminator 3
 1734 007e 9B00     		lsls	r3, r3, #2
 1735              		.loc 1 382 30 is_stmt 0
 1736 0080 01E0     		b	.L93
 1737              	.L92:
 1738              		.loc 1 382 31 is_stmt 1 discriminator 4
 1739 0082 7B6B     		ldr	r3, [r7, #52]
 1740              		.loc 1 382 30 discriminator 4
 1741 0084 9B00     		lsls	r3, r3, #2
 1742              	.L93:
 1743              		.loc 1 382 30 is_stmt 0 discriminator 6
 1744 0086 1344     		add	r3, r3, r2
 1745 0088 1B68     		ldr	r3, [r3]
 1746              		.loc 1 382 15 is_stmt 1 discriminator 6
 1747 008a BA6B     		ldr	r2, [r7, #56]
 1748 008c 02FB03F3 		mul	r3, r2, r3
 1749 0090 BB63     		str	r3, [r7, #56]
 381:Lib/AI_Runtime/Npu/ll_aton/ll_aton_lib_sw_operators.c ****   for (int i = aton_axis + 1; i < rank; i++)
 1750              		.loc 1 381 42 discriminator 2
 1751 0092 7B6B     		ldr	r3, [r7, #52]
 1752 0094 0133     		adds	r3, r3, #1
 1753 0096 7B63     		str	r3, [r7, #52]
 1754              	.L91:
 381:Lib/AI_Runtime/Npu/ll_aton/ll_aton_lib_sw_operators.c ****   for (int i = aton_axis + 1; i < rank; i++)
 1755              		.loc 1 381 33 discriminator 1
 1756 0098 7A6B     		ldr	r2, [r7, #52]
 1757 009a 3B68     		ldr	r3, [r7]
 1758 009c 9A42     		cmp	r2, r3
 1759 009e DADB     		blt	.L94
 1760              	.LBE12:
 383:Lib/AI_Runtime/Npu/ll_aton/ll_aton_lib_sw_operators.c ****   jump_base *= LL_LIB_NBYTES(input->nbits);
 1761              		.loc 1 383 16
 1762 00a0 FB68     		ldr	r3, [r7, #12]
 1763 00a2 93F82830 		ldrb	r3, [r3, #40]	@ zero_extendqisi2
 1764 00a6 0733     		adds	r3, r3, #7
 1765 00a8 DA10     		asrs	r2, r3, #3
 1766              		.loc 1 383 13
 1767 00aa BB6B     		ldr	r3, [r7, #56]
 1768 00ac 02FB03F3 		mul	r3, r2, r3
 1769 00b0 BB63     		str	r3, [r7, #56]
 384:Lib/AI_Runtime/Npu/ll_aton/ll_aton_lib_sw_operators.c ****   int jump = jump_base * input->shape[split_onnx_axis];
 1770              		.loc 1 384 31
 1771 00b2 FB68     		ldr	r3, [r7, #12]
 1772 00b4 DA6A     		ldr	r2, [r3, #44]
 1773              		.loc 1 384 38
ARM GAS  /tmp/ccgnzMmM.s 			page 50


 1774 00b6 3B6D     		ldr	r3, [r7, #80]
 1775 00b8 9B00     		lsls	r3, r3, #2
 1776 00ba 1344     		add	r3, r3, r2
 1777 00bc 1B68     		ldr	r3, [r3]
 1778              		.loc 1 384 24
 1779 00be BA6B     		ldr	r2, [r7, #56]
 1780 00c0 02FB03F3 		mul	r3, r2, r3
 1781              		.loc 1 384 7
 1782 00c4 BB61     		str	r3, [r7, #24]
 1783              	.LBB13:
 385:Lib/AI_Runtime/Npu/ll_aton/ll_aton_lib_sw_operators.c ****   // LL_ATON_PRINTF("onnx_axis=%d, aton_axis=%d, jump_base=%d, jump=%d\n", split_onnx_axis, aton_ax
 386:Lib/AI_Runtime/Npu/ll_aton/ll_aton_lib_sw_operators.c **** 
 387:Lib/AI_Runtime/Npu/ll_aton/ll_aton_lib_sw_operators.c ****   for (int i = 0; i < nr_of_outputs; i++)
 1784              		.loc 1 387 12
 1785 00c6 0023     		movs	r3, #0
 1786 00c8 3B63     		str	r3, [r7, #48]
 1787              		.loc 1 387 3
 1788 00ca 41E0     		b	.L95
 1789              	.L98:
 1790              	.LBB14:
 388:Lib/AI_Runtime/Npu/ll_aton/ll_aton_lib_sw_operators.c ****   {
 389:Lib/AI_Runtime/Npu/ll_aton/ll_aton_lib_sw_operators.c ****     int copy_val = (*outputs)[i].shape[split_onnx_axis] * jump_base;
 1791              		.loc 1 389 33
 1792 00cc B968     		ldr	r1, [r7, #8]
 1793 00ce 3A6B     		ldr	r2, [r7, #48]
 1794 00d0 1346     		mov	r3, r2
 1795 00d2 DB00     		lsls	r3, r3, #3
 1796 00d4 9B1A     		subs	r3, r3, r2
 1797 00d6 DB00     		lsls	r3, r3, #3
 1798 00d8 0B44     		add	r3, r3, r1
 1799 00da 2C33     		adds	r3, r3, #44
 1800 00dc 1A68     		ldr	r2, [r3]
 1801              		.loc 1 389 39
 1802 00de 3B6D     		ldr	r3, [r7, #80]
 1803 00e0 9B00     		lsls	r3, r3, #2
 1804 00e2 1344     		add	r3, r3, r2
 1805 00e4 1B68     		ldr	r3, [r3]
 1806              		.loc 1 389 57
 1807 00e6 BA6B     		ldr	r2, [r7, #56]
 1808 00e8 02FB03F3 		mul	r3, r2, r3
 1809              		.loc 1 389 9
 1810 00ec 7B61     		str	r3, [r7, #20]
 390:Lib/AI_Runtime/Npu/ll_aton/ll_aton_lib_sw_operators.c ****     // LL_ATON_PRINTF("i=%d copy_val=%d\n", i, copy_val);
 391:Lib/AI_Runtime/Npu/ll_aton/ll_aton_lib_sw_operators.c **** 
 392:Lib/AI_Runtime/Npu/ll_aton/ll_aton_lib_sw_operators.c ****     int source;
 393:Lib/AI_Runtime/Npu/ll_aton/ll_aton_lib_sw_operators.c ****     int dest = 0;
 1811              		.loc 1 393 9
 1812 00ee 0023     		movs	r3, #0
 1813 00f0 BB62     		str	r3, [r7, #40]
 394:Lib/AI_Runtime/Npu/ll_aton/ll_aton_lib_sw_operators.c ****     for (source = start; source < stop; source += jump, dest += copy_val)
 1814              		.loc 1 394 17
 1815 00f2 FB6B     		ldr	r3, [r7, #60]
 1816 00f4 FB62     		str	r3, [r7, #44]
 1817              		.loc 1 394 5
 1818 00f6 20E0     		b	.L96
 1819              	.L97:
 395:Lib/AI_Runtime/Npu/ll_aton/ll_aton_lib_sw_operators.c ****     {
ARM GAS  /tmp/ccgnzMmM.s 			page 51


 396:Lib/AI_Runtime/Npu/ll_aton/ll_aton_lib_sw_operators.c ****       // LL_ATON_PRINTF("i=%d, dest=%d, source=%d\n", i, dest, source);
 397:Lib/AI_Runtime/Npu/ll_aton/ll_aton_lib_sw_operators.c ****       memcpy(ATON_LIB_PHYSICAL_TO_VIRTUAL_ADDR(LL_Buffer_addr_start((*outputs) + i) + dest),
 1820              		.loc 1 397 14
 1821 00f8 3A6B     		ldr	r2, [r7, #48]
 1822 00fa 1346     		mov	r3, r2
 1823 00fc DB00     		lsls	r3, r3, #3
 1824 00fe 9B1A     		subs	r3, r3, r2
 1825 0100 DB00     		lsls	r3, r3, #3
 1826 0102 1A46     		mov	r2, r3
 1827 0104 BB68     		ldr	r3, [r7, #8]
 1828 0106 1344     		add	r3, r3, r2
 1829 0108 1846     		mov	r0, r3
 1830 010a FFF7FEFF 		bl	LL_Buffer_addr_start
 1831 010e 0246     		mov	r2, r0
 1832              		.loc 1 397 7 discriminator 1
 1833 0110 BB6A     		ldr	r3, [r7, #40]
 1834              		.loc 1 397 14 discriminator 1
 1835 0112 D418     		adds	r4, r2, r3
 398:Lib/AI_Runtime/Npu/ll_aton/ll_aton_lib_sw_operators.c ****              ATON_LIB_PHYSICAL_TO_VIRTUAL_ADDR(LL_Buffer_addr_start(input) + source), copy_val);
 1836              		.loc 1 398 14
 1837 0114 F868     		ldr	r0, [r7, #12]
 1838 0116 FFF7FEFF 		bl	LL_Buffer_addr_start
 1839 011a 0246     		mov	r2, r0
 397:Lib/AI_Runtime/Npu/ll_aton/ll_aton_lib_sw_operators.c ****              ATON_LIB_PHYSICAL_TO_VIRTUAL_ADDR(LL_Buffer_addr_start(input) + source), copy_val);
 1840              		.loc 1 397 7
 1841 011c FB6A     		ldr	r3, [r7, #44]
 1842              		.loc 1 398 14
 1843 011e 1344     		add	r3, r3, r2
 397:Lib/AI_Runtime/Npu/ll_aton/ll_aton_lib_sw_operators.c ****              ATON_LIB_PHYSICAL_TO_VIRTUAL_ADDR(LL_Buffer_addr_start(input) + source), copy_val);
 1844              		.loc 1 397 7
 1845 0120 7A69     		ldr	r2, [r7, #20]
 1846 0122 1946     		mov	r1, r3
 1847 0124 2046     		mov	r0, r4
 1848 0126 FFF7FEFF 		bl	memcpy
 394:Lib/AI_Runtime/Npu/ll_aton/ll_aton_lib_sw_operators.c ****     {
 1849              		.loc 1 394 48 discriminator 3
 1850 012a FA6A     		ldr	r2, [r7, #44]
 1851 012c BB69     		ldr	r3, [r7, #24]
 1852 012e 1344     		add	r3, r3, r2
 1853 0130 FB62     		str	r3, [r7, #44]
 394:Lib/AI_Runtime/Npu/ll_aton/ll_aton_lib_sw_operators.c ****     {
 1854              		.loc 1 394 62 discriminator 3
 1855 0132 BA6A     		ldr	r2, [r7, #40]
 1856 0134 7B69     		ldr	r3, [r7, #20]
 1857 0136 1344     		add	r3, r3, r2
 1858 0138 BB62     		str	r3, [r7, #40]
 1859              	.L96:
 394:Lib/AI_Runtime/Npu/ll_aton/ll_aton_lib_sw_operators.c ****     {
 1860              		.loc 1 394 33 discriminator 1
 1861 013a FA6A     		ldr	r2, [r7, #44]
 1862 013c FB69     		ldr	r3, [r7, #28]
 1863 013e 9A42     		cmp	r2, r3
 1864 0140 DADB     		blt	.L97
 399:Lib/AI_Runtime/Npu/ll_aton/ll_aton_lib_sw_operators.c ****     }
 400:Lib/AI_Runtime/Npu/ll_aton/ll_aton_lib_sw_operators.c ****     start += copy_val;
 1865              		.loc 1 400 11
 1866 0142 FA6B     		ldr	r2, [r7, #60]
ARM GAS  /tmp/ccgnzMmM.s 			page 52


 1867 0144 7B69     		ldr	r3, [r7, #20]
 1868 0146 1344     		add	r3, r3, r2
 1869 0148 FB63     		str	r3, [r7, #60]
 1870              	.LBE14:
 387:Lib/AI_Runtime/Npu/ll_aton/ll_aton_lib_sw_operators.c ****   {
 1871              		.loc 1 387 39 discriminator 2
 1872 014a 3B6B     		ldr	r3, [r7, #48]
 1873 014c 0133     		adds	r3, r3, #1
 1874 014e 3B63     		str	r3, [r7, #48]
 1875              	.L95:
 387:Lib/AI_Runtime/Npu/ll_aton/ll_aton_lib_sw_operators.c ****   {
 1876              		.loc 1 387 21 discriminator 1
 1877 0150 3A6B     		ldr	r2, [r7, #48]
 1878 0152 7B68     		ldr	r3, [r7, #4]
 1879 0154 9A42     		cmp	r2, r3
 1880 0156 B9DB     		blt	.L98
 1881              	.LBE13:
 401:Lib/AI_Runtime/Npu/ll_aton/ll_aton_lib_sw_operators.c ****   }
 402:Lib/AI_Runtime/Npu/ll_aton/ll_aton_lib_sw_operators.c **** }
 1882              		.loc 1 402 1
 1883 0158 00BF     		nop
 1884 015a 00BF     		nop
 1885 015c 4437     		adds	r7, r7, #68
 1886              		.cfi_def_cfa_offset 12
 1887 015e BD46     		mov	sp, r7
 1888              		.cfi_def_cfa_register 13
 1889              		@ sp needed
 1890 0160 90BD     		pop	{r4, r7, pc}
 1891              	.L100:
 1892 0162 00BF     		.align	2
 1893              	.L99:
 1894 0164 00000000 		.word	aton_lut
 1895 0168 00000000 		.word	onnx_lut
 1896              		.cfi_endproc
 1897              	.LFE4862:
 1899              		.section	.text.__ll_aton_lib_split_onnx_canonical,"ax",%progbits
 1900              		.align	1
 1901              		.syntax unified
 1902              		.thumb
 1903              		.thumb_func
 1905              	__ll_aton_lib_split_onnx_canonical:
 1906              	.LFB4863:
 403:Lib/AI_Runtime/Npu/ll_aton/ll_aton_lib_sw_operators.c **** 
 404:Lib/AI_Runtime/Npu/ll_aton/ll_aton_lib_sw_operators.c **** /* beyond function assumes that input and output tensors are ONNX canonical */
 405:Lib/AI_Runtime/Npu/ll_aton/ll_aton_lib_sw_operators.c **** static void __ll_aton_lib_split_onnx_canonical(const LL_LIB_TensorShape_TypeDef *input,
 406:Lib/AI_Runtime/Npu/ll_aton/ll_aton_lib_sw_operators.c ****                                                const LL_LIB_TensorShape_TypeDef (*outputs)[], int n
 407:Lib/AI_Runtime/Npu/ll_aton/ll_aton_lib_sw_operators.c ****                                                int rank, int split_onnx_axis)
 408:Lib/AI_Runtime/Npu/ll_aton/ll_aton_lib_sw_operators.c **** {
 1907              		.loc 1 408 1
 1908              		.cfi_startproc
 1909              		@ args = 4, pretend = 0, frame = 56
 1910              		@ frame_needed = 1, uses_anonymous_args = 0
 1911 0000 90B5     		push	{r4, r7, lr}
 1912              		.cfi_def_cfa_offset 12
 1913              		.cfi_offset 4, -12
 1914              		.cfi_offset 7, -8
 1915              		.cfi_offset 14, -4
ARM GAS  /tmp/ccgnzMmM.s 			page 53


 1916 0002 8FB0     		sub	sp, sp, #60
 1917              		.cfi_def_cfa_offset 72
 1918 0004 00AF     		add	r7, sp, #0
 1919              		.cfi_def_cfa_register 7
 1920 0006 F860     		str	r0, [r7, #12]
 1921 0008 B960     		str	r1, [r7, #8]
 1922 000a 7A60     		str	r2, [r7, #4]
 1923 000c 3B60     		str	r3, [r7]
 409:Lib/AI_Runtime/Npu/ll_aton/ll_aton_lib_sw_operators.c ****   int tot_size = LL_Buffer_len(input);
 1924              		.loc 1 409 18
 1925 000e F868     		ldr	r0, [r7, #12]
 1926 0010 FFF7FEFF 		bl	LL_Buffer_len
 1927 0014 0346     		mov	r3, r0
 1928              		.loc 1 409 7 discriminator 1
 1929 0016 FB61     		str	r3, [r7, #28]
 410:Lib/AI_Runtime/Npu/ll_aton/ll_aton_lib_sw_operators.c **** 
 411:Lib/AI_Runtime/Npu/ll_aton/ll_aton_lib_sw_operators.c ****   int start = 0;
 1930              		.loc 1 411 7
 1931 0018 0023     		movs	r3, #0
 1932 001a 7B63     		str	r3, [r7, #52]
 412:Lib/AI_Runtime/Npu/ll_aton/ll_aton_lib_sw_operators.c ****   int stop = tot_size;
 1933              		.loc 1 412 7
 1934 001c FB69     		ldr	r3, [r7, #28]
 1935 001e BB61     		str	r3, [r7, #24]
 413:Lib/AI_Runtime/Npu/ll_aton/ll_aton_lib_sw_operators.c ****   int jump_base = 1;
 1936              		.loc 1 413 7
 1937 0020 0123     		movs	r3, #1
 1938 0022 3B63     		str	r3, [r7, #48]
 1939              	.LBB15:
 414:Lib/AI_Runtime/Npu/ll_aton/ll_aton_lib_sw_operators.c ****   for (int i = split_onnx_axis + 1; i < rank; i++)
 1940              		.loc 1 414 12
 1941 0024 BB6C     		ldr	r3, [r7, #72]
 1942 0026 0133     		adds	r3, r3, #1
 1943 0028 FB62     		str	r3, [r7, #44]
 1944              		.loc 1 414 3
 1945 002a 0CE0     		b	.L102
 1946              	.L103:
 415:Lib/AI_Runtime/Npu/ll_aton/ll_aton_lib_sw_operators.c ****     jump_base *= input->shape[i];
 1947              		.loc 1 415 23
 1948 002c FB68     		ldr	r3, [r7, #12]
 1949 002e DA6A     		ldr	r2, [r3, #44]
 1950              		.loc 1 415 30
 1951 0030 FB6A     		ldr	r3, [r7, #44]
 1952 0032 9B00     		lsls	r3, r3, #2
 1953 0034 1344     		add	r3, r3, r2
 1954 0036 1B68     		ldr	r3, [r3]
 1955              		.loc 1 415 15
 1956 0038 3A6B     		ldr	r2, [r7, #48]
 1957 003a 02FB03F3 		mul	r3, r2, r3
 1958 003e 3B63     		str	r3, [r7, #48]
 414:Lib/AI_Runtime/Npu/ll_aton/ll_aton_lib_sw_operators.c ****   for (int i = split_onnx_axis + 1; i < rank; i++)
 1959              		.loc 1 414 48 discriminator 3
 1960 0040 FB6A     		ldr	r3, [r7, #44]
 1961 0042 0133     		adds	r3, r3, #1
 1962 0044 FB62     		str	r3, [r7, #44]
 1963              	.L102:
 414:Lib/AI_Runtime/Npu/ll_aton/ll_aton_lib_sw_operators.c ****   for (int i = split_onnx_axis + 1; i < rank; i++)
ARM GAS  /tmp/ccgnzMmM.s 			page 54


 1964              		.loc 1 414 39 discriminator 1
 1965 0046 FA6A     		ldr	r2, [r7, #44]
 1966 0048 3B68     		ldr	r3, [r7]
 1967 004a 9A42     		cmp	r2, r3
 1968 004c EEDB     		blt	.L103
 1969              	.LBE15:
 416:Lib/AI_Runtime/Npu/ll_aton/ll_aton_lib_sw_operators.c ****   jump_base *= LL_LIB_NBYTES(input->nbits);
 1970              		.loc 1 416 16
 1971 004e FB68     		ldr	r3, [r7, #12]
 1972 0050 93F82830 		ldrb	r3, [r3, #40]	@ zero_extendqisi2
 1973 0054 0733     		adds	r3, r3, #7
 1974 0056 DA10     		asrs	r2, r3, #3
 1975              		.loc 1 416 13
 1976 0058 3B6B     		ldr	r3, [r7, #48]
 1977 005a 02FB03F3 		mul	r3, r2, r3
 1978 005e 3B63     		str	r3, [r7, #48]
 417:Lib/AI_Runtime/Npu/ll_aton/ll_aton_lib_sw_operators.c ****   int jump = jump_base * input->shape[split_onnx_axis];
 1979              		.loc 1 417 31
 1980 0060 FB68     		ldr	r3, [r7, #12]
 1981 0062 DA6A     		ldr	r2, [r3, #44]
 1982              		.loc 1 417 38
 1983 0064 BB6C     		ldr	r3, [r7, #72]
 1984 0066 9B00     		lsls	r3, r3, #2
 1985 0068 1344     		add	r3, r3, r2
 1986 006a 1B68     		ldr	r3, [r3]
 1987              		.loc 1 417 24
 1988 006c 3A6B     		ldr	r2, [r7, #48]
 1989 006e 02FB03F3 		mul	r3, r2, r3
 1990              		.loc 1 417 7
 1991 0072 7B61     		str	r3, [r7, #20]
 1992              	.LBB16:
 418:Lib/AI_Runtime/Npu/ll_aton/ll_aton_lib_sw_operators.c ****   // LL_ATON_PRINTF("onnx_axis=%d, aton_axis=%d, jump_base=%d, jump=%d\n", split_onnx_axis, aton_ax
 419:Lib/AI_Runtime/Npu/ll_aton/ll_aton_lib_sw_operators.c **** 
 420:Lib/AI_Runtime/Npu/ll_aton/ll_aton_lib_sw_operators.c ****   for (int i = 0; i < nr_of_outputs; i++)
 1993              		.loc 1 420 12
 1994 0074 0023     		movs	r3, #0
 1995 0076 BB62     		str	r3, [r7, #40]
 1996              		.loc 1 420 3
 1997 0078 41E0     		b	.L104
 1998              	.L107:
 1999              	.LBB17:
 421:Lib/AI_Runtime/Npu/ll_aton/ll_aton_lib_sw_operators.c ****   {
 422:Lib/AI_Runtime/Npu/ll_aton/ll_aton_lib_sw_operators.c ****     int copy_val = (*outputs)[i].shape[split_onnx_axis] * jump_base;
 2000              		.loc 1 422 33
 2001 007a B968     		ldr	r1, [r7, #8]
 2002 007c BA6A     		ldr	r2, [r7, #40]
 2003 007e 1346     		mov	r3, r2
 2004 0080 DB00     		lsls	r3, r3, #3
 2005 0082 9B1A     		subs	r3, r3, r2
 2006 0084 DB00     		lsls	r3, r3, #3
 2007 0086 0B44     		add	r3, r3, r1
 2008 0088 2C33     		adds	r3, r3, #44
 2009 008a 1A68     		ldr	r2, [r3]
 2010              		.loc 1 422 39
 2011 008c BB6C     		ldr	r3, [r7, #72]
 2012 008e 9B00     		lsls	r3, r3, #2
 2013 0090 1344     		add	r3, r3, r2
ARM GAS  /tmp/ccgnzMmM.s 			page 55


 2014 0092 1B68     		ldr	r3, [r3]
 2015              		.loc 1 422 57
 2016 0094 3A6B     		ldr	r2, [r7, #48]
 2017 0096 02FB03F3 		mul	r3, r2, r3
 2018              		.loc 1 422 9
 2019 009a 3B61     		str	r3, [r7, #16]
 423:Lib/AI_Runtime/Npu/ll_aton/ll_aton_lib_sw_operators.c ****     // LL_ATON_PRINTF("i=%d copy_val=%d\n", i, copy_val);
 424:Lib/AI_Runtime/Npu/ll_aton/ll_aton_lib_sw_operators.c **** 
 425:Lib/AI_Runtime/Npu/ll_aton/ll_aton_lib_sw_operators.c ****     int source;
 426:Lib/AI_Runtime/Npu/ll_aton/ll_aton_lib_sw_operators.c ****     int dest = 0;
 2020              		.loc 1 426 9
 2021 009c 0023     		movs	r3, #0
 2022 009e 3B62     		str	r3, [r7, #32]
 427:Lib/AI_Runtime/Npu/ll_aton/ll_aton_lib_sw_operators.c ****     for (source = start; source < stop; source += jump, dest += copy_val)
 2023              		.loc 1 427 17
 2024 00a0 7B6B     		ldr	r3, [r7, #52]
 2025 00a2 7B62     		str	r3, [r7, #36]
 2026              		.loc 1 427 5
 2027 00a4 20E0     		b	.L105
 2028              	.L106:
 428:Lib/AI_Runtime/Npu/ll_aton/ll_aton_lib_sw_operators.c ****     {
 429:Lib/AI_Runtime/Npu/ll_aton/ll_aton_lib_sw_operators.c ****       // LL_ATON_PRINTF("i=%d, dest=%d, source=%d\n", i, dest, source);
 430:Lib/AI_Runtime/Npu/ll_aton/ll_aton_lib_sw_operators.c ****       memcpy(ATON_LIB_PHYSICAL_TO_VIRTUAL_ADDR(LL_Buffer_addr_start((*outputs) + i) + dest),
 2029              		.loc 1 430 14
 2030 00a6 BA6A     		ldr	r2, [r7, #40]
 2031 00a8 1346     		mov	r3, r2
 2032 00aa DB00     		lsls	r3, r3, #3
 2033 00ac 9B1A     		subs	r3, r3, r2
 2034 00ae DB00     		lsls	r3, r3, #3
 2035 00b0 1A46     		mov	r2, r3
 2036 00b2 BB68     		ldr	r3, [r7, #8]
 2037 00b4 1344     		add	r3, r3, r2
 2038 00b6 1846     		mov	r0, r3
 2039 00b8 FFF7FEFF 		bl	LL_Buffer_addr_start
 2040 00bc 0246     		mov	r2, r0
 2041              		.loc 1 430 7 discriminator 1
 2042 00be 3B6A     		ldr	r3, [r7, #32]
 2043              		.loc 1 430 14 discriminator 1
 2044 00c0 D418     		adds	r4, r2, r3
 431:Lib/AI_Runtime/Npu/ll_aton/ll_aton_lib_sw_operators.c ****              ATON_LIB_PHYSICAL_TO_VIRTUAL_ADDR(LL_Buffer_addr_start(input) + source), copy_val);
 2045              		.loc 1 431 14
 2046 00c2 F868     		ldr	r0, [r7, #12]
 2047 00c4 FFF7FEFF 		bl	LL_Buffer_addr_start
 2048 00c8 0246     		mov	r2, r0
 430:Lib/AI_Runtime/Npu/ll_aton/ll_aton_lib_sw_operators.c ****              ATON_LIB_PHYSICAL_TO_VIRTUAL_ADDR(LL_Buffer_addr_start(input) + source), copy_val);
 2049              		.loc 1 430 7
 2050 00ca 7B6A     		ldr	r3, [r7, #36]
 2051              		.loc 1 431 14
 2052 00cc 1344     		add	r3, r3, r2
 430:Lib/AI_Runtime/Npu/ll_aton/ll_aton_lib_sw_operators.c ****              ATON_LIB_PHYSICAL_TO_VIRTUAL_ADDR(LL_Buffer_addr_start(input) + source), copy_val);
 2053              		.loc 1 430 7
 2054 00ce 3A69     		ldr	r2, [r7, #16]
 2055 00d0 1946     		mov	r1, r3
 2056 00d2 2046     		mov	r0, r4
 2057 00d4 FFF7FEFF 		bl	memcpy
 427:Lib/AI_Runtime/Npu/ll_aton/ll_aton_lib_sw_operators.c ****     {
 2058              		.loc 1 427 48 discriminator 3
ARM GAS  /tmp/ccgnzMmM.s 			page 56


 2059 00d8 7A6A     		ldr	r2, [r7, #36]
 2060 00da 7B69     		ldr	r3, [r7, #20]
 2061 00dc 1344     		add	r3, r3, r2
 2062 00de 7B62     		str	r3, [r7, #36]
 427:Lib/AI_Runtime/Npu/ll_aton/ll_aton_lib_sw_operators.c ****     {
 2063              		.loc 1 427 62 discriminator 3
 2064 00e0 3A6A     		ldr	r2, [r7, #32]
 2065 00e2 3B69     		ldr	r3, [r7, #16]
 2066 00e4 1344     		add	r3, r3, r2
 2067 00e6 3B62     		str	r3, [r7, #32]
 2068              	.L105:
 427:Lib/AI_Runtime/Npu/ll_aton/ll_aton_lib_sw_operators.c ****     {
 2069              		.loc 1 427 33 discriminator 1
 2070 00e8 7A6A     		ldr	r2, [r7, #36]
 2071 00ea BB69     		ldr	r3, [r7, #24]
 2072 00ec 9A42     		cmp	r2, r3
 2073 00ee DADB     		blt	.L106
 432:Lib/AI_Runtime/Npu/ll_aton/ll_aton_lib_sw_operators.c ****     }
 433:Lib/AI_Runtime/Npu/ll_aton/ll_aton_lib_sw_operators.c ****     start += copy_val;
 2074              		.loc 1 433 11
 2075 00f0 7A6B     		ldr	r2, [r7, #52]
 2076 00f2 3B69     		ldr	r3, [r7, #16]
 2077 00f4 1344     		add	r3, r3, r2
 2078 00f6 7B63     		str	r3, [r7, #52]
 2079              	.LBE17:
 420:Lib/AI_Runtime/Npu/ll_aton/ll_aton_lib_sw_operators.c ****   {
 2080              		.loc 1 420 39 discriminator 2
 2081 00f8 BB6A     		ldr	r3, [r7, #40]
 2082 00fa 0133     		adds	r3, r3, #1
 2083 00fc BB62     		str	r3, [r7, #40]
 2084              	.L104:
 420:Lib/AI_Runtime/Npu/ll_aton/ll_aton_lib_sw_operators.c ****   {
 2085              		.loc 1 420 21 discriminator 1
 2086 00fe BA6A     		ldr	r2, [r7, #40]
 2087 0100 7B68     		ldr	r3, [r7, #4]
 2088 0102 9A42     		cmp	r2, r3
 2089 0104 B9DB     		blt	.L107
 2090              	.LBE16:
 434:Lib/AI_Runtime/Npu/ll_aton/ll_aton_lib_sw_operators.c ****   }
 435:Lib/AI_Runtime/Npu/ll_aton/ll_aton_lib_sw_operators.c **** }
 2091              		.loc 1 435 1
 2092 0106 00BF     		nop
 2093 0108 00BF     		nop
 2094 010a 3C37     		adds	r7, r7, #60
 2095              		.cfi_def_cfa_offset 12
 2096 010c BD46     		mov	sp, r7
 2097              		.cfi_def_cfa_register 13
 2098              		@ sp needed
 2099 010e 90BD     		pop	{r4, r7, pc}
 2100              		.cfi_endproc
 2101              	.LFE4863:
 2103              		.section	.rodata
 2104              		.align	2
 2105              	.LC12:
 2106 01b4 72616E6B 		.ascii	"rank >= 3\000"
 2106      203E3D20 
 2106      3300
ARM GAS  /tmp/ccgnzMmM.s 			page 57


 2107 01be 0000     		.align	2
 2108              	.LC13:
 2109 01c0 28696E70 		.ascii	"(input->batch == 0) || (input->batch == input->shap"
 2109      75742D3E 
 2109      62617463 
 2109      68203D3D 
 2109      20302920 
 2110 01f3 655B7370 		.ascii	"e[split_onnx_axis])\000"
 2110      6C69745F 
 2110      6F6E6E78 
 2110      5F617869 
 2110      735D2900 
 2111 0207 00       		.align	2
 2112              	.LC14:
 2113 0208 73706C69 		.ascii	"split_onnx_axis == (rank - 3)\000"
 2113      745F6F6E 
 2113      6E785F61 
 2113      78697320 
 2113      3D3D2028 
 2114 0226 0000     		.align	2
 2115              	.LC15:
 2116 0228 286F7574 		.ascii	"(out_nchannels % out_batch) == 0\000"
 2116      5F6E6368 
 2116      616E6E65 
 2116      6C732025 
 2116      206F7574 
 2117              		.section	.text.__ll_aton_lib_split_channel_batched,"ax",%progbits
 2118              		.align	1
 2119              		.syntax unified
 2120              		.thumb
 2121              		.thumb_func
 2123              	__ll_aton_lib_split_channel_batched:
 2124              	.LFB4864:
 436:Lib/AI_Runtime/Npu/ll_aton/ll_aton_lib_sw_operators.c **** 
 437:Lib/AI_Runtime/Npu/ll_aton/ll_aton_lib_sw_operators.c **** /* beyond function assumes that adapted rank is equal to 3, that input tensor is ATON canonical, an
 438:Lib/AI_Runtime/Npu/ll_aton/ll_aton_lib_sw_operators.c ****  * is channel */
 439:Lib/AI_Runtime/Npu/ll_aton/ll_aton_lib_sw_operators.c **** static void __ll_aton_lib_split_channel_batched(const LL_LIB_TensorShape_TypeDef *input,
 440:Lib/AI_Runtime/Npu/ll_aton/ll_aton_lib_sw_operators.c ****                                                 const LL_LIB_TensorShape_TypeDef (*outputs)[], uint
 441:Lib/AI_Runtime/Npu/ll_aton/ll_aton_lib_sw_operators.c ****                                                 uint32_t rank, uint32_t split_onnx_axis)
 442:Lib/AI_Runtime/Npu/ll_aton/ll_aton_lib_sw_operators.c **** {
 2125              		.loc 1 442 1
 2126              		.cfi_startproc
 2127              		@ args = 4, pretend = 0, frame = 104
 2128              		@ frame_needed = 1, uses_anonymous_args = 0
 2129 0000 80B5     		push	{r7, lr}
 2130              		.cfi_def_cfa_offset 8
 2131              		.cfi_offset 7, -8
 2132              		.cfi_offset 14, -4
 2133 0002 9AB0     		sub	sp, sp, #104
 2134              		.cfi_def_cfa_offset 112
 2135 0004 00AF     		add	r7, sp, #0
 2136              		.cfi_def_cfa_register 7
 2137 0006 F860     		str	r0, [r7, #12]
 2138 0008 B960     		str	r1, [r7, #8]
 2139 000a 7A60     		str	r2, [r7, #4]
 2140 000c 3B60     		str	r3, [r7]
 443:Lib/AI_Runtime/Npu/ll_aton/ll_aton_lib_sw_operators.c ****   LL_ATON_ASSERT(rank >= 3); // input shape is at least 3-dimensional
ARM GAS  /tmp/ccgnzMmM.s 			page 58


 2141              		.loc 1 443 3
 2142 000e 3B68     		ldr	r3, [r7]
 2143 0010 022B     		cmp	r3, #2
 2144 0012 06D8     		bhi	.L109
 2145              		.loc 1 443 3 is_stmt 0 discriminator 1
 2146 0014 774B     		ldr	r3, .L121
 2147 0016 784A     		ldr	r2, .L121+4
 2148 0018 40F2BB11 		movw	r1, #443
 2149 001c 7748     		ldr	r0, .L121+8
 2150 001e FFF7FEFF 		bl	__assert_func
 2151              	.L109:
 444:Lib/AI_Runtime/Npu/ll_aton/ll_aton_lib_sw_operators.c ****   LL_ATON_ASSERT((input->batch == 0) ||
 2152              		.loc 1 444 3 is_stmt 1
 2153 0022 FB68     		ldr	r3, [r7, #12]
 2154 0024 9B69     		ldr	r3, [r3, #24]
 2155 0026 002B     		cmp	r3, #0
 2156 0028 10D0     		beq	.L110
 2157              		.loc 1 444 3 is_stmt 0 discriminator 1
 2158 002a FB68     		ldr	r3, [r7, #12]
 2159 002c 9A69     		ldr	r2, [r3, #24]
 2160 002e FB68     		ldr	r3, [r7, #12]
 2161 0030 D96A     		ldr	r1, [r3, #44]
 2162 0032 3B6F     		ldr	r3, [r7, #112]
 2163 0034 9B00     		lsls	r3, r3, #2
 2164 0036 0B44     		add	r3, r3, r1
 2165 0038 1B68     		ldr	r3, [r3]
 2166 003a 9A42     		cmp	r2, r3
 2167 003c 06D0     		beq	.L110
 2168              		.loc 1 444 3 discriminator 2
 2169 003e 704B     		ldr	r3, .L121+12
 2170 0040 6D4A     		ldr	r2, .L121+4
 2171 0042 4FF4DE71 		mov	r1, #444
 2172 0046 6D48     		ldr	r0, .L121+8
 2173 0048 FFF7FEFF 		bl	__assert_func
 2174              	.L110:
 445:Lib/AI_Runtime/Npu/ll_aton/ll_aton_lib_sw_operators.c ****                  (input->batch == input->shape[split_onnx_axis])); // input tensor is ATON canonica
 446:Lib/AI_Runtime/Npu/ll_aton/ll_aton_lib_sw_operators.c ****   LL_ATON_ASSERT(split_onnx_axis == (rank - 3));                   // split axis is channel
 2175              		.loc 1 446 3 is_stmt 1
 2176 004c 3B68     		ldr	r3, [r7]
 2177 004e 033B     		subs	r3, r3, #3
 2178 0050 3A6F     		ldr	r2, [r7, #112]
 2179 0052 9A42     		cmp	r2, r3
 2180 0054 06D0     		beq	.L111
 2181              		.loc 1 446 3 is_stmt 0 discriminator 1
 2182 0056 6B4B     		ldr	r3, .L121+16
 2183 0058 674A     		ldr	r2, .L121+4
 2184 005a 4FF4DF71 		mov	r1, #446
 2185 005e 6748     		ldr	r0, .L121+8
 2186 0060 FFF7FEFF 		bl	__assert_func
 2187              	.L111:
 447:Lib/AI_Runtime/Npu/ll_aton/ll_aton_lib_sw_operators.c **** 
 448:Lib/AI_Runtime/Npu/ll_aton/ll_aton_lib_sw_operators.c ****   uint32_t nbytes = LL_LIB_NBYTES(input->nbits);
 2188              		.loc 1 448 21 is_stmt 1
 2189 0064 FB68     		ldr	r3, [r7, #12]
 2190 0066 93F82830 		ldrb	r3, [r3, #40]	@ zero_extendqisi2
 2191 006a 0733     		adds	r3, r3, #7
 2192 006c DB10     		asrs	r3, r3, #3
ARM GAS  /tmp/ccgnzMmM.s 			page 59


 2193              		.loc 1 448 12
 2194 006e 3B64     		str	r3, [r7, #64]
 449:Lib/AI_Runtime/Npu/ll_aton/ll_aton_lib_sw_operators.c ****   uint32_t fheight = input->shape[rank - 2];
 2195              		.loc 1 449 27
 2196 0070 FB68     		ldr	r3, [r7, #12]
 2197 0072 DA6A     		ldr	r2, [r3, #44]
 2198              		.loc 1 449 34
 2199 0074 3B68     		ldr	r3, [r7]
 2200 0076 03F18043 		add	r3, r3, #1073741824
 2201 007a 023B     		subs	r3, r3, #2
 2202 007c 9B00     		lsls	r3, r3, #2
 2203 007e 1344     		add	r3, r3, r2
 2204              		.loc 1 449 12
 2205 0080 1B68     		ldr	r3, [r3]
 2206 0082 FB63     		str	r3, [r7, #60]
 450:Lib/AI_Runtime/Npu/ll_aton/ll_aton_lib_sw_operators.c ****   uint32_t fwidth = input->shape[rank - 1];
 2207              		.loc 1 450 26
 2208 0084 FB68     		ldr	r3, [r7, #12]
 2209 0086 DA6A     		ldr	r2, [r3, #44]
 2210              		.loc 1 450 33
 2211 0088 3B68     		ldr	r3, [r7]
 2212 008a 03F18043 		add	r3, r3, #1073741824
 2213 008e 013B     		subs	r3, r3, #1
 2214 0090 9B00     		lsls	r3, r3, #2
 2215 0092 1344     		add	r3, r3, r2
 2216              		.loc 1 450 12
 2217 0094 1B68     		ldr	r3, [r3]
 2218 0096 BB63     		str	r3, [r7, #56]
 451:Lib/AI_Runtime/Npu/ll_aton/ll_aton_lib_sw_operators.c ****   uint32_t in_nchannels = input->shape[split_onnx_axis];
 2219              		.loc 1 451 32
 2220 0098 FB68     		ldr	r3, [r7, #12]
 2221 009a DA6A     		ldr	r2, [r3, #44]
 2222              		.loc 1 451 39
 2223 009c 3B6F     		ldr	r3, [r7, #112]
 2224 009e 9B00     		lsls	r3, r3, #2
 2225 00a0 1344     		add	r3, r3, r2
 2226              		.loc 1 451 12
 2227 00a2 1B68     		ldr	r3, [r3]
 2228 00a4 7B63     		str	r3, [r7, #52]
 452:Lib/AI_Runtime/Npu/ll_aton/ll_aton_lib_sw_operators.c ****   uint32_t batch_offset = in_nchannels * nbytes;
 2229              		.loc 1 452 12
 2230 00a6 7B6B     		ldr	r3, [r7, #52]
 2231 00a8 3A6C     		ldr	r2, [r7, #64]
 2232 00aa 02FB03F3 		mul	r3, r2, r3
 2233 00ae 3B63     		str	r3, [r7, #48]
 453:Lib/AI_Runtime/Npu/ll_aton/ll_aton_lib_sw_operators.c **** 
 454:Lib/AI_Runtime/Npu/ll_aton/ll_aton_lib_sw_operators.c ****   // assuming that all leading dimensions up to channel are equal to 1!
 455:Lib/AI_Runtime/Npu/ll_aton/ll_aton_lib_sw_operators.c **** 
 456:Lib/AI_Runtime/Npu/ll_aton/ll_aton_lib_sw_operators.c ****   unsigned char *outer_addr = ATON_LIB_PHYSICAL_TO_VIRTUAL_ADDR(LL_Buffer_addr_start(input));
 2234              		.loc 1 456 31
 2235 00b0 F868     		ldr	r0, [r7, #12]
 2236 00b2 FFF7FEFF 		bl	LL_Buffer_addr_start
 2237 00b6 7866     		str	r0, [r7, #100]
 2238              	.LBB18:
 457:Lib/AI_Runtime/Npu/ll_aton/ll_aton_lib_sw_operators.c ****   for (int i = 0; i < nr_of_outputs; i++)
 2239              		.loc 1 457 12
 2240 00b8 0023     		movs	r3, #0
ARM GAS  /tmp/ccgnzMmM.s 			page 60


 2241 00ba 3B66     		str	r3, [r7, #96]
 2242              		.loc 1 457 3
 2243 00bc 8FE0     		b	.L112
 2244              	.L120:
 2245              	.LBB19:
 458:Lib/AI_Runtime/Npu/ll_aton/ll_aton_lib_sw_operators.c ****   {
 459:Lib/AI_Runtime/Npu/ll_aton/ll_aton_lib_sw_operators.c ****     uint16_t out_batch = (*outputs)[i].batch;
 2246              		.loc 1 459 39
 2247 00be B968     		ldr	r1, [r7, #8]
 2248 00c0 3A6E     		ldr	r2, [r7, #96]
 2249 00c2 1346     		mov	r3, r2
 2250 00c4 DB00     		lsls	r3, r3, #3
 2251 00c6 9B1A     		subs	r3, r3, r2
 2252 00c8 DB00     		lsls	r3, r3, #3
 2253 00ca 0B44     		add	r3, r3, r1
 2254 00cc 1833     		adds	r3, r3, #24
 2255 00ce 1B68     		ldr	r3, [r3]
 2256              		.loc 1 459 14
 2257 00d0 FB85     		strh	r3, [r7, #46]	@ movhi
 460:Lib/AI_Runtime/Npu/ll_aton/ll_aton_lib_sw_operators.c ****     uint32_t batch_depth_bytes = out_batch * nbytes;
 2258              		.loc 1 460 44
 2259 00d2 FA8D     		ldrh	r2, [r7, #46]
 2260              		.loc 1 460 14
 2261 00d4 3B6C     		ldr	r3, [r7, #64]
 2262 00d6 02FB03F3 		mul	r3, r2, r3
 2263 00da BB62     		str	r3, [r7, #40]
 461:Lib/AI_Runtime/Npu/ll_aton/ll_aton_lib_sw_operators.c ****     uint32_t line_offset = in_nchannels * fwidth * nbytes;
 2264              		.loc 1 461 41
 2265 00dc 7B6B     		ldr	r3, [r7, #52]
 2266 00de BA6B     		ldr	r2, [r7, #56]
 2267 00e0 03FB02F2 		mul	r2, r3, r2
 2268              		.loc 1 461 14
 2269 00e4 3B6C     		ldr	r3, [r7, #64]
 2270 00e6 02FB03F3 		mul	r3, r2, r3
 2271 00ea 7B62     		str	r3, [r7, #36]
 462:Lib/AI_Runtime/Npu/ll_aton/ll_aton_lib_sw_operators.c ****     uint32_t loop_offset = out_batch * nbytes;
 2272              		.loc 1 462 38
 2273 00ec FA8D     		ldrh	r2, [r7, #46]
 2274              		.loc 1 462 14
 2275 00ee 3B6C     		ldr	r3, [r7, #64]
 2276 00f0 02FB03F3 		mul	r3, r2, r3
 2277 00f4 3B62     		str	r3, [r7, #32]
 463:Lib/AI_Runtime/Npu/ll_aton/ll_aton_lib_sw_operators.c ****     uint32_t out_nchannels = (*outputs)[i].shape[split_onnx_axis];
 2278              		.loc 1 463 43
 2279 00f6 B968     		ldr	r1, [r7, #8]
 2280 00f8 3A6E     		ldr	r2, [r7, #96]
 2281 00fa 1346     		mov	r3, r2
 2282 00fc DB00     		lsls	r3, r3, #3
 2283 00fe 9B1A     		subs	r3, r3, r2
 2284 0100 DB00     		lsls	r3, r3, #3
 2285 0102 0B44     		add	r3, r3, r1
 2286 0104 2C33     		adds	r3, r3, #44
 2287 0106 1A68     		ldr	r2, [r3]
 2288              		.loc 1 463 49
 2289 0108 3B6F     		ldr	r3, [r7, #112]
 2290 010a 9B00     		lsls	r3, r3, #2
 2291 010c 1344     		add	r3, r3, r2
ARM GAS  /tmp/ccgnzMmM.s 			page 61


 2292              		.loc 1 463 14
 2293 010e 1B68     		ldr	r3, [r3]
 2294 0110 FB61     		str	r3, [r7, #28]
 464:Lib/AI_Runtime/Npu/ll_aton/ll_aton_lib_sw_operators.c **** 
 465:Lib/AI_Runtime/Npu/ll_aton/ll_aton_lib_sw_operators.c ****     LL_ATON_ASSERT((out_nchannels % out_batch) == 0);
 2295              		.loc 1 465 5
 2296 0112 FA8D     		ldrh	r2, [r7, #46]
 2297 0114 FB69     		ldr	r3, [r7, #28]
 2298 0116 B3FBF2F1 		udiv	r1, r3, r2
 2299 011a 01FB02F2 		mul	r2, r1, r2
 2300 011e 9B1A     		subs	r3, r3, r2
 2301 0120 002B     		cmp	r3, #0
 2302 0122 06D0     		beq	.L113
 2303              		.loc 1 465 5 is_stmt 0 discriminator 1
 2304 0124 384B     		ldr	r3, .L121+20
 2305 0126 344A     		ldr	r2, .L121+4
 2306 0128 40F2D111 		movw	r1, #465
 2307 012c 3348     		ldr	r0, .L121+8
 2308 012e FFF7FEFF 		bl	__assert_func
 2309              	.L113:
 466:Lib/AI_Runtime/Npu/ll_aton/ll_aton_lib_sw_operators.c ****     uint32_t frame_tot_cnt = out_nchannels / out_batch;
 2310              		.loc 1 466 44 is_stmt 1
 2311 0132 FB8D     		ldrh	r3, [r7, #46]
 2312              		.loc 1 466 14
 2313 0134 FA69     		ldr	r2, [r7, #28]
 2314 0136 B2FBF3F3 		udiv	r3, r2, r3
 2315 013a BB61     		str	r3, [r7, #24]
 467:Lib/AI_Runtime/Npu/ll_aton/ll_aton_lib_sw_operators.c **** 
 468:Lib/AI_Runtime/Npu/ll_aton/ll_aton_lib_sw_operators.c ****     unsigned char *output_addr = ATON_LIB_PHYSICAL_TO_VIRTUAL_ADDR(LL_Buffer_addr_start((*outputs) 
 2316              		.loc 1 468 34
 2317 013c 3A6E     		ldr	r2, [r7, #96]
 2318 013e 1346     		mov	r3, r2
 2319 0140 DB00     		lsls	r3, r3, #3
 2320 0142 9B1A     		subs	r3, r3, r2
 2321 0144 DB00     		lsls	r3, r3, #3
 2322 0146 1A46     		mov	r2, r3
 2323 0148 BB68     		ldr	r3, [r7, #8]
 2324 014a 1344     		add	r3, r3, r2
 2325 014c 1846     		mov	r0, r3
 2326 014e FFF7FEFF 		bl	LL_Buffer_addr_start
 2327 0152 F865     		str	r0, [r7, #92]
 469:Lib/AI_Runtime/Npu/ll_aton/ll_aton_lib_sw_operators.c **** 
 470:Lib/AI_Runtime/Npu/ll_aton/ll_aton_lib_sw_operators.c ****     /* main loop */
 471:Lib/AI_Runtime/Npu/ll_aton/ll_aton_lib_sw_operators.c ****     unsigned char *addr_main_loop = outer_addr;
 2328              		.loc 1 471 20
 2329 0154 7B6E     		ldr	r3, [r7, #100]
 2330 0156 BB65     		str	r3, [r7, #88]
 2331              	.LBB20:
 472:Lib/AI_Runtime/Npu/ll_aton/ll_aton_lib_sw_operators.c ****     for (int j = 0; j < frame_tot_cnt; j++)
 2332              		.loc 1 472 14
 2333 0158 0023     		movs	r3, #0
 2334 015a 7B65     		str	r3, [r7, #84]
 2335              		.loc 1 472 5
 2336 015c 31E0     		b	.L114
 2337              	.L119:
 2338              	.LBB21:
 473:Lib/AI_Runtime/Npu/ll_aton/ll_aton_lib_sw_operators.c ****     {
ARM GAS  /tmp/ccgnzMmM.s 			page 62


 474:Lib/AI_Runtime/Npu/ll_aton/ll_aton_lib_sw_operators.c ****       /* repetition loop (just a single iteration => removed) */
 475:Lib/AI_Runtime/Npu/ll_aton/ll_aton_lib_sw_operators.c ****       unsigned char *repetition_addr = addr_main_loop;
 2339              		.loc 1 475 22
 2340 015e BB6D     		ldr	r3, [r7, #88]
 2341 0160 7B61     		str	r3, [r7, #20]
 476:Lib/AI_Runtime/Npu/ll_aton/ll_aton_lib_sw_operators.c **** 
 477:Lib/AI_Runtime/Npu/ll_aton/ll_aton_lib_sw_operators.c ****       /* line loop */
 478:Lib/AI_Runtime/Npu/ll_aton/ll_aton_lib_sw_operators.c ****       unsigned char *line_addr = repetition_addr;
 2342              		.loc 1 478 22
 2343 0162 7B69     		ldr	r3, [r7, #20]
 2344 0164 3B65     		str	r3, [r7, #80]
 2345              	.LBB22:
 479:Lib/AI_Runtime/Npu/ll_aton/ll_aton_lib_sw_operators.c ****       for (int x = 0; x < fheight; x++)
 2346              		.loc 1 479 16
 2347 0166 0023     		movs	r3, #0
 2348 0168 FB64     		str	r3, [r7, #76]
 2349              		.loc 1 479 7
 2350 016a 1FE0     		b	.L115
 2351              	.L118:
 2352              	.LBB23:
 480:Lib/AI_Runtime/Npu/ll_aton/ll_aton_lib_sw_operators.c ****       {
 481:Lib/AI_Runtime/Npu/ll_aton/ll_aton_lib_sw_operators.c ****         /* batch loop */
 482:Lib/AI_Runtime/Npu/ll_aton/ll_aton_lib_sw_operators.c ****         unsigned char *batch_addr = line_addr;
 2353              		.loc 1 482 24
 2354 016c 3B6D     		ldr	r3, [r7, #80]
 2355 016e BB64     		str	r3, [r7, #72]
 2356              	.LBB24:
 483:Lib/AI_Runtime/Npu/ll_aton/ll_aton_lib_sw_operators.c ****         for (int y = 0; y < fwidth; y++)
 2357              		.loc 1 483 18
 2358 0170 0023     		movs	r3, #0
 2359 0172 7B64     		str	r3, [r7, #68]
 2360              		.loc 1 483 9
 2361 0174 0FE0     		b	.L116
 2362              	.L117:
 484:Lib/AI_Runtime/Npu/ll_aton/ll_aton_lib_sw_operators.c ****         {
 485:Lib/AI_Runtime/Npu/ll_aton/ll_aton_lib_sw_operators.c ****           memcpy(output_addr, batch_addr, batch_depth_bytes);
 2363              		.loc 1 485 11
 2364 0176 BA6A     		ldr	r2, [r7, #40]
 2365 0178 B96C     		ldr	r1, [r7, #72]
 2366 017a F86D     		ldr	r0, [r7, #92]
 2367 017c FFF7FEFF 		bl	memcpy
 486:Lib/AI_Runtime/Npu/ll_aton/ll_aton_lib_sw_operators.c **** 
 487:Lib/AI_Runtime/Npu/ll_aton/ll_aton_lib_sw_operators.c ****           output_addr += batch_depth_bytes;
 2368              		.loc 1 487 23
 2369 0180 FA6D     		ldr	r2, [r7, #92]
 2370 0182 BB6A     		ldr	r3, [r7, #40]
 2371 0184 1344     		add	r3, r3, r2
 2372 0186 FB65     		str	r3, [r7, #92]
 488:Lib/AI_Runtime/Npu/ll_aton/ll_aton_lib_sw_operators.c ****           batch_addr += batch_offset;
 2373              		.loc 1 488 22
 2374 0188 BA6C     		ldr	r2, [r7, #72]
 2375 018a 3B6B     		ldr	r3, [r7, #48]
 2376 018c 1344     		add	r3, r3, r2
 2377 018e BB64     		str	r3, [r7, #72]
 483:Lib/AI_Runtime/Npu/ll_aton/ll_aton_lib_sw_operators.c ****         {
 2378              		.loc 1 483 38 discriminator 3
 2379 0190 7B6C     		ldr	r3, [r7, #68]
ARM GAS  /tmp/ccgnzMmM.s 			page 63


 2380 0192 0133     		adds	r3, r3, #1
 2381 0194 7B64     		str	r3, [r7, #68]
 2382              	.L116:
 483:Lib/AI_Runtime/Npu/ll_aton/ll_aton_lib_sw_operators.c ****         {
 2383              		.loc 1 483 27 discriminator 1
 2384 0196 7B6C     		ldr	r3, [r7, #68]
 2385 0198 BA6B     		ldr	r2, [r7, #56]
 2386 019a 9A42     		cmp	r2, r3
 2387 019c EBD8     		bhi	.L117
 2388              	.LBE24:
 489:Lib/AI_Runtime/Npu/ll_aton/ll_aton_lib_sw_operators.c ****         }
 490:Lib/AI_Runtime/Npu/ll_aton/ll_aton_lib_sw_operators.c ****         line_addr += line_offset;
 2389              		.loc 1 490 19
 2390 019e 3A6D     		ldr	r2, [r7, #80]
 2391 01a0 7B6A     		ldr	r3, [r7, #36]
 2392 01a2 1344     		add	r3, r3, r2
 2393 01a4 3B65     		str	r3, [r7, #80]
 2394              	.LBE23:
 479:Lib/AI_Runtime/Npu/ll_aton/ll_aton_lib_sw_operators.c ****       {
 2395              		.loc 1 479 37 discriminator 2
 2396 01a6 FB6C     		ldr	r3, [r7, #76]
 2397 01a8 0133     		adds	r3, r3, #1
 2398 01aa FB64     		str	r3, [r7, #76]
 2399              	.L115:
 479:Lib/AI_Runtime/Npu/ll_aton/ll_aton_lib_sw_operators.c ****       {
 2400              		.loc 1 479 25 discriminator 1
 2401 01ac FB6C     		ldr	r3, [r7, #76]
 2402 01ae FA6B     		ldr	r2, [r7, #60]
 2403 01b0 9A42     		cmp	r2, r3
 2404 01b2 DBD8     		bhi	.L118
 2405              	.LBE22:
 491:Lib/AI_Runtime/Npu/ll_aton/ll_aton_lib_sw_operators.c ****       }
 492:Lib/AI_Runtime/Npu/ll_aton/ll_aton_lib_sw_operators.c ****       addr_main_loop += loop_offset;
 2406              		.loc 1 492 22
 2407 01b4 BA6D     		ldr	r2, [r7, #88]
 2408 01b6 3B6A     		ldr	r3, [r7, #32]
 2409 01b8 1344     		add	r3, r3, r2
 2410 01ba BB65     		str	r3, [r7, #88]
 2411              	.LBE21:
 472:Lib/AI_Runtime/Npu/ll_aton/ll_aton_lib_sw_operators.c ****     {
 2412              		.loc 1 472 41 discriminator 2
 2413 01bc 7B6D     		ldr	r3, [r7, #84]
 2414 01be 0133     		adds	r3, r3, #1
 2415 01c0 7B65     		str	r3, [r7, #84]
 2416              	.L114:
 472:Lib/AI_Runtime/Npu/ll_aton/ll_aton_lib_sw_operators.c ****     {
 2417              		.loc 1 472 23 discriminator 1
 2418 01c2 7B6D     		ldr	r3, [r7, #84]
 2419 01c4 BA69     		ldr	r2, [r7, #24]
 2420 01c6 9A42     		cmp	r2, r3
 2421 01c8 C9D8     		bhi	.L119
 2422              	.LBE20:
 493:Lib/AI_Runtime/Npu/ll_aton/ll_aton_lib_sw_operators.c ****     }
 494:Lib/AI_Runtime/Npu/ll_aton/ll_aton_lib_sw_operators.c ****     outer_addr += out_nchannels * nbytes;
 2423              		.loc 1 494 33
 2424 01ca FB69     		ldr	r3, [r7, #28]
 2425 01cc 3A6C     		ldr	r2, [r7, #64]
ARM GAS  /tmp/ccgnzMmM.s 			page 64


 2426 01ce 02FB03F3 		mul	r3, r2, r3
 2427              		.loc 1 494 16
 2428 01d2 7A6E     		ldr	r2, [r7, #100]
 2429 01d4 1344     		add	r3, r3, r2
 2430 01d6 7B66     		str	r3, [r7, #100]
 2431              	.LBE19:
 457:Lib/AI_Runtime/Npu/ll_aton/ll_aton_lib_sw_operators.c ****   {
 2432              		.loc 1 457 39 discriminator 2
 2433 01d8 3B6E     		ldr	r3, [r7, #96]
 2434 01da 0133     		adds	r3, r3, #1
 2435 01dc 3B66     		str	r3, [r7, #96]
 2436              	.L112:
 457:Lib/AI_Runtime/Npu/ll_aton/ll_aton_lib_sw_operators.c ****   {
 2437              		.loc 1 457 21 discriminator 1
 2438 01de 3B6E     		ldr	r3, [r7, #96]
 2439 01e0 7A68     		ldr	r2, [r7, #4]
 2440 01e2 9A42     		cmp	r2, r3
 2441 01e4 3FF66BAF 		bhi	.L120
 2442              	.LBE18:
 495:Lib/AI_Runtime/Npu/ll_aton/ll_aton_lib_sw_operators.c ****   }
 496:Lib/AI_Runtime/Npu/ll_aton/ll_aton_lib_sw_operators.c **** }
 2443              		.loc 1 496 1
 2444 01e8 00BF     		nop
 2445 01ea 00BF     		nop
 2446 01ec 6837     		adds	r7, r7, #104
 2447              		.cfi_def_cfa_offset 8
 2448 01ee BD46     		mov	sp, r7
 2449              		.cfi_def_cfa_register 13
 2450              		@ sp needed
 2451 01f0 80BD     		pop	{r7, pc}
 2452              	.L122:
 2453 01f2 00BF     		.align	2
 2454              	.L121:
 2455 01f4 B4010000 		.word	.LC12
 2456 01f8 00000000 		.word	__func__.25
 2457 01fc 24000000 		.word	.LC1
 2458 0200 C0010000 		.word	.LC13
 2459 0204 08020000 		.word	.LC14
 2460 0208 28020000 		.word	.LC15
 2461              		.cfi_endproc
 2462              	.LFE4864:
 2464              		.section	.rodata
 2465 0249 000000   		.align	2
 2466              	.LC16:
 2467 024c 646D615F 		.ascii	"dma_in == -1\000"
 2467      696E203D 
 2467      3D202D31 
 2467      00
 2468 0259 000000   		.align	2
 2469              	.LC17:
 2470 025c 646D615F 		.ascii	"dma_out == -1\000"
 2470      6F757420 
 2470      3D3D202D 
 2470      3100
 2471 026a 0000     		.align	2
 2472              	.LC18:
 2473 026c 646D615F 		.ascii	"dma_in != -1\000"
ARM GAS  /tmp/ccgnzMmM.s 			page 65


 2473      696E2021 
 2473      3D202D31 
 2473      00
 2474 0279 000000   		.align	2
 2475              	.LC19:
 2476 027c 646D615F 		.ascii	"dma_out != -1\000"
 2476      6F757420 
 2476      213D202D 
 2476      3100
 2477              		.section	.text.LL_ATON_LIB_Split,"ax",%progbits
 2478              		.align	1
 2479              		.global	LL_ATON_LIB_Split
 2480              		.syntax unified
 2481              		.thumb
 2482              		.thumb_func
 2484              	LL_ATON_LIB_Split:
 2485              	.LFB4865:
 497:Lib/AI_Runtime/Npu/ll_aton/ll_aton_lib_sw_operators.c **** 
 498:Lib/AI_Runtime/Npu/ll_aton/ll_aton_lib_sw_operators.c **** typedef enum
 499:Lib/AI_Runtime/Npu/ll_aton/ll_aton_lib_sw_operators.c **** { // MUST be the same as in the AtoNN compiler (file: `code_gen_info.h`)
 500:Lib/AI_Runtime/Npu/ll_aton/ll_aton_lib_sw_operators.c ****   SW_PURE_CANONICAL = 0,
 501:Lib/AI_Runtime/Npu/ll_aton/ll_aton_lib_sw_operators.c ****   HYBRID_CHANNEL_ATON = 1,
 502:Lib/AI_Runtime/Npu/ll_aton/ll_aton_lib_sw_operators.c ****   SW_CHANNEL_ATON = 2,
 503:Lib/AI_Runtime/Npu/ll_aton/ll_aton_lib_sw_operators.c ****   HYBRID_CHANNEL_BATCHED = 3,
 504:Lib/AI_Runtime/Npu/ll_aton/ll_aton_lib_sw_operators.c ****   SW_CHANNEL_BATCHED = 4,
 505:Lib/AI_Runtime/Npu/ll_aton/ll_aton_lib_sw_operators.c ****   DMA_CHANNEL_UNIFORM = 5,
 506:Lib/AI_Runtime/Npu/ll_aton/ll_aton_lib_sw_operators.c ****   SW_CHANNEL_UNIFORM = 6,
 507:Lib/AI_Runtime/Npu/ll_aton/ll_aton_lib_sw_operators.c ****   DMA_FLAT_CANONICAL = 7,
 508:Lib/AI_Runtime/Npu/ll_aton/ll_aton_lib_sw_operators.c ****   SW_FLAT_CANONICAL = 8,
 509:Lib/AI_Runtime/Npu/ll_aton/ll_aton_lib_sw_operators.c ****   DMA_FLAT_BATCHED = 9,
 510:Lib/AI_Runtime/Npu/ll_aton/ll_aton_lib_sw_operators.c ****   SW_FLAT_BATCHED = 10,
 511:Lib/AI_Runtime/Npu/ll_aton/ll_aton_lib_sw_operators.c **** } _split_cases_t;
 512:Lib/AI_Runtime/Npu/ll_aton/ll_aton_lib_sw_operators.c **** 
 513:Lib/AI_Runtime/Npu/ll_aton/ll_aton_lib_sw_operators.c **** int LL_ATON_LIB_Split(const LL_LIB_TensorShape_TypeDef *input, bool aton_canonical,
 514:Lib/AI_Runtime/Npu/ll_aton/ll_aton_lib_sw_operators.c ****                       const LL_LIB_TensorShape_TypeDef (*outputs)[], uint32_t noutputs, uint32_t ra
 515:Lib/AI_Runtime/Npu/ll_aton/ll_aton_lib_sw_operators.c ****                       uint32_t split_onnx_axis, uint32_t leading_dims, int split_case, int dma_in, 
 516:Lib/AI_Runtime/Npu/ll_aton/ll_aton_lib_sw_operators.c **** {
 2486              		.loc 1 516 1
 2487              		.cfi_startproc
 2488              		@ args = 24, pretend = 0, frame = 16
 2489              		@ frame_needed = 1, uses_anonymous_args = 0
 2490 0000 80B5     		push	{r7, lr}
 2491              		.cfi_def_cfa_offset 8
 2492              		.cfi_offset 7, -8
 2493              		.cfi_offset 14, -4
 2494 0002 86B0     		sub	sp, sp, #24
 2495              		.cfi_def_cfa_offset 32
 2496 0004 02AF     		add	r7, sp, #8
 2497              		.cfi_def_cfa 7, 24
 2498 0006 F860     		str	r0, [r7, #12]
 2499 0008 7A60     		str	r2, [r7, #4]
 2500 000a 3B60     		str	r3, [r7]
 2501 000c 0B46     		mov	r3, r1
 2502 000e FB72     		strb	r3, [r7, #11]
 517:Lib/AI_Runtime/Npu/ll_aton/ll_aton_lib_sw_operators.c ****   if (split_onnx_axis >= rank)
 2503              		.loc 1 517 6
 2504 0010 FA69     		ldr	r2, [r7, #28]
ARM GAS  /tmp/ccgnzMmM.s 			page 66


 2505 0012 BB69     		ldr	r3, [r7, #24]
 2506 0014 9A42     		cmp	r2, r3
 2507 0016 08D3     		bcc	.L124
 518:Lib/AI_Runtime/Npu/ll_aton/ll_aton_lib_sw_operators.c ****   {
 519:Lib/AI_Runtime/Npu/ll_aton/ll_aton_lib_sw_operators.c ****     __LL_LIB_ERROR(_ERR_AXIS, LL_ATON_INVALID_PARAM);
 2508              		.loc 1 519 5
 2509 0018 9F4A     		ldr	r2, .L172
 2510 001a 40F20721 		movw	r1, #519
 2511 001e 0320     		movs	r0, #3
 2512 0020 FFF7FEFF 		bl	__ll_lib_error
 2513              		.loc 1 519 5 is_stmt 0 discriminator 1
 2514 0024 6FF00103 		mvn	r3, #1
 2515              		.loc 1 519 5
 2516 0028 C2E1     		b	.L125
 2517              	.L124:
 520:Lib/AI_Runtime/Npu/ll_aton/ll_aton_lib_sw_operators.c ****   }
 521:Lib/AI_Runtime/Npu/ll_aton/ll_aton_lib_sw_operators.c **** 
 522:Lib/AI_Runtime/Npu/ll_aton/ll_aton_lib_sw_operators.c ****   if (input->ndims != rank)
 2518              		.loc 1 522 12 is_stmt 1
 2519 002a FB68     		ldr	r3, [r7, #12]
 2520 002c 93F82730 		ldrb	r3, [r3, #39]	@ zero_extendqisi2
 2521 0030 1A46     		mov	r2, r3
 2522              		.loc 1 522 6
 2523 0032 BB69     		ldr	r3, [r7, #24]
 2524 0034 9342     		cmp	r3, r2
 2525 0036 08D0     		beq	.L126
 523:Lib/AI_Runtime/Npu/ll_aton/ll_aton_lib_sw_operators.c ****   {
 524:Lib/AI_Runtime/Npu/ll_aton/ll_aton_lib_sw_operators.c ****     __LL_LIB_ERROR(_ERR_RANK, LL_ATON_INVALID_PARAM);
 2526              		.loc 1 524 5
 2527 0038 974A     		ldr	r2, .L172
 2528 003a 4FF40371 		mov	r1, #524
 2529 003e 0F20     		movs	r0, #15
 2530 0040 FFF7FEFF 		bl	__ll_lib_error
 2531              		.loc 1 524 5 is_stmt 0 discriminator 1
 2532 0044 6FF00103 		mvn	r3, #1
 2533              		.loc 1 524 5
 2534 0048 B2E1     		b	.L125
 2535              	.L126:
 525:Lib/AI_Runtime/Npu/ll_aton/ll_aton_lib_sw_operators.c ****   }
 526:Lib/AI_Runtime/Npu/ll_aton/ll_aton_lib_sw_operators.c **** 
 527:Lib/AI_Runtime/Npu/ll_aton/ll_aton_lib_sw_operators.c ****   if (input->ndims != (*outputs)[0].ndims)
 2536              		.loc 1 527 12 is_stmt 1
 2537 004a FB68     		ldr	r3, [r7, #12]
 2538 004c 93F82720 		ldrb	r2, [r3, #39]	@ zero_extendqisi2
 2539              		.loc 1 527 36
 2540 0050 7B68     		ldr	r3, [r7, #4]
 2541 0052 93F82730 		ldrb	r3, [r3, #39]	@ zero_extendqisi2
 2542              		.loc 1 527 6
 2543 0056 9A42     		cmp	r2, r3
 2544 0058 08D0     		beq	.L127
 528:Lib/AI_Runtime/Npu/ll_aton/ll_aton_lib_sw_operators.c ****   {
 529:Lib/AI_Runtime/Npu/ll_aton/ll_aton_lib_sw_operators.c ****     __LL_LIB_ERROR(_ERR_RANK, LL_ATON_INVALID_PARAM);
 2545              		.loc 1 529 5
 2546 005a 8F4A     		ldr	r2, .L172
 2547 005c 40F21121 		movw	r1, #529
 2548 0060 0F20     		movs	r0, #15
 2549 0062 FFF7FEFF 		bl	__ll_lib_error
ARM GAS  /tmp/ccgnzMmM.s 			page 67


 2550              		.loc 1 529 5 is_stmt 0 discriminator 1
 2551 0066 6FF00103 		mvn	r3, #1
 2552              		.loc 1 529 5
 2553 006a A1E1     		b	.L125
 2554              	.L127:
 530:Lib/AI_Runtime/Npu/ll_aton/ll_aton_lib_sw_operators.c ****   }
 531:Lib/AI_Runtime/Npu/ll_aton/ll_aton_lib_sw_operators.c **** 
 532:Lib/AI_Runtime/Npu/ll_aton/ll_aton_lib_sw_operators.c ****   if (input->nbits != (*outputs)[0].nbits)
 2555              		.loc 1 532 12 is_stmt 1
 2556 006c FB68     		ldr	r3, [r7, #12]
 2557 006e 93F82820 		ldrb	r2, [r3, #40]	@ zero_extendqisi2
 2558              		.loc 1 532 36
 2559 0072 7B68     		ldr	r3, [r7, #4]
 2560 0074 93F82830 		ldrb	r3, [r3, #40]	@ zero_extendqisi2
 2561              		.loc 1 532 6
 2562 0078 9A42     		cmp	r2, r3
 2563 007a 08D0     		beq	.L128
 533:Lib/AI_Runtime/Npu/ll_aton/ll_aton_lib_sw_operators.c ****   { // TODO: should we support this?
 534:Lib/AI_Runtime/Npu/ll_aton/ll_aton_lib_sw_operators.c ****     __LL_LIB_ERROR(_ERR_NBITS, LL_ATON_INVALID_PARAM);
 2564              		.loc 1 534 5
 2565 007c 864A     		ldr	r2, .L172
 2566 007e 40F21621 		movw	r1, #534
 2567 0082 0620     		movs	r0, #6
 2568 0084 FFF7FEFF 		bl	__ll_lib_error
 2569              		.loc 1 534 5 is_stmt 0 discriminator 1
 2570 0088 6FF00103 		mvn	r3, #1
 2571              		.loc 1 534 5
 2572 008c 90E1     		b	.L125
 2573              	.L128:
 535:Lib/AI_Runtime/Npu/ll_aton/ll_aton_lib_sw_operators.c ****   }
 536:Lib/AI_Runtime/Npu/ll_aton/ll_aton_lib_sw_operators.c **** 
 537:Lib/AI_Runtime/Npu/ll_aton/ll_aton_lib_sw_operators.c ****   if ((input->nbits < 8) || (input->nbits > 32))
 2574              		.loc 1 537 13 is_stmt 1
 2575 008e FB68     		ldr	r3, [r7, #12]
 2576 0090 93F82830 		ldrb	r3, [r3, #40]	@ zero_extendqisi2
 2577              		.loc 1 537 6
 2578 0094 072B     		cmp	r3, #7
 2579 0096 04D9     		bls	.L129
 2580              		.loc 1 537 35 discriminator 1
 2581 0098 FB68     		ldr	r3, [r7, #12]
 2582 009a 93F82830 		ldrb	r3, [r3, #40]	@ zero_extendqisi2
 2583              		.loc 1 537 26 discriminator 1
 2584 009e 202B     		cmp	r3, #32
 2585 00a0 08D9     		bls	.L130
 2586              	.L129:
 538:Lib/AI_Runtime/Npu/ll_aton/ll_aton_lib_sw_operators.c ****   {
 539:Lib/AI_Runtime/Npu/ll_aton/ll_aton_lib_sw_operators.c ****     __LL_LIB_ERROR(_ERR_NBITS, LL_ATON_INVALID_PARAM);
 2587              		.loc 1 539 5
 2588 00a2 7D4A     		ldr	r2, .L172
 2589 00a4 40F21B21 		movw	r1, #539
 2590 00a8 0620     		movs	r0, #6
 2591 00aa FFF7FEFF 		bl	__ll_lib_error
 2592              		.loc 1 539 5 is_stmt 0 discriminator 1
 2593 00ae 6FF00103 		mvn	r3, #1
 2594              		.loc 1 539 5
 2595 00b2 7DE1     		b	.L125
 2596              	.L130:
ARM GAS  /tmp/ccgnzMmM.s 			page 68


 540:Lib/AI_Runtime/Npu/ll_aton/ll_aton_lib_sw_operators.c ****   }
 541:Lib/AI_Runtime/Npu/ll_aton/ll_aton_lib_sw_operators.c **** 
 542:Lib/AI_Runtime/Npu/ll_aton/ll_aton_lib_sw_operators.c ****   if ((rank == 0) || (noutputs < 1))
 2597              		.loc 1 542 6 is_stmt 1
 2598 00b4 BB69     		ldr	r3, [r7, #24]
 2599 00b6 002B     		cmp	r3, #0
 2600 00b8 02D0     		beq	.L131
 2601              		.loc 1 542 19 discriminator 1
 2602 00ba 3B68     		ldr	r3, [r7]
 2603 00bc 002B     		cmp	r3, #0
 2604 00be 01D1     		bne	.L132
 2605              	.L131:
 543:Lib/AI_Runtime/Npu/ll_aton/ll_aton_lib_sw_operators.c ****     return LL_ATON_OK; // in case ONNX was out of specs
 2606              		.loc 1 543 12
 2607 00c0 0023     		movs	r3, #0
 2608 00c2 75E1     		b	.L125
 2609              	.L132:
 544:Lib/AI_Runtime/Npu/ll_aton/ll_aton_lib_sw_operators.c **** 
 545:Lib/AI_Runtime/Npu/ll_aton/ll_aton_lib_sw_operators.c ****   switch (split_case)
 2610              		.loc 1 545 3
 2611 00c4 7B6A     		ldr	r3, [r7, #36]
 2612 00c6 032B     		cmp	r3, #3
 2613 00c8 36DC     		bgt	.L133
 2614 00ca 7B6A     		ldr	r3, [r7, #36]
 2615 00cc 002B     		cmp	r3, #0
 2616 00ce 23DA     		bge	.L134
 2617 00d0 66E1     		b	.L135
 2618              	.L144:
 2619 00d2 7B6A     		ldr	r3, [r7, #36]
 2620 00d4 0122     		movs	r2, #1
 2621 00d6 02FA03F3 		lsl	r3, r2, r3
 2622 00da 03F42872 		and	r2, r3, #672
 2623 00de 002A     		cmp	r2, #0
 2624 00e0 14BF     		ite	ne
 2625 00e2 0122     		movne	r2, #1
 2626 00e4 0022     		moveq	r2, #0
 2627 00e6 D2B2     		uxtb	r2, r2
 2628 00e8 002A     		cmp	r2, #0
 2629 00ea 40F02781 		bne	.L136
 2630 00ee 03F4A862 		and	r2, r3, #1344
 2631 00f2 002A     		cmp	r2, #0
 2632 00f4 14BF     		ite	ne
 2633 00f6 0122     		movne	r2, #1
 2634 00f8 0022     		moveq	r2, #0
 2635 00fa D2B2     		uxtb	r2, r2
 2636 00fc 002A     		cmp	r2, #0
 2637 00fe 40F00781 		bne	.L137
 2638 0102 03F01003 		and	r3, r3, #16
 2639 0106 002B     		cmp	r3, #0
 2640 0108 14BF     		ite	ne
 2641 010a 0123     		movne	r3, #1
 2642 010c 0023     		moveq	r3, #0
 2643 010e DBB2     		uxtb	r3, r3
 2644 0110 002B     		cmp	r3, #0
 2645 0112 40F09C80 		bne	.L138
 2646 0116 43E1     		b	.L135
 2647              	.L134:
ARM GAS  /tmp/ccgnzMmM.s 			page 69


 2648 0118 7B6A     		ldr	r3, [r7, #36]
 2649 011a 032B     		cmp	r3, #3
 2650 011c 00F24081 		bhi	.L135
 2651 0120 01A2     		adr	r2, .L140
 2652 0122 52F823F0 		ldr	pc, [r2, r3, lsl #2]
 2653 0126 00BF     		.p2align 2
 2654              	.L140:
 2655 0128 49010000 		.word	.L143+1
 2656 012c CF010000 		.word	.L142+1
 2657 0130 A3010000 		.word	.L141+1
 2658 0134 7B020000 		.word	.L139+1
 2659              		.p2align 1
 2660              	.L133:
 2661 0138 7B6A     		ldr	r3, [r7, #36]
 2662 013a 0A2B     		cmp	r3, #10
 2663 013c 00F33081 		bgt	.L135
 2664 0140 7B6A     		ldr	r3, [r7, #36]
 2665 0142 042B     		cmp	r3, #4
 2666 0144 C5DA     		bge	.L144
 2667 0146 2BE1     		b	.L135
 2668              	.L143:
 546:Lib/AI_Runtime/Npu/ll_aton/ll_aton_lib_sw_operators.c ****   {
 547:Lib/AI_Runtime/Npu/ll_aton/ll_aton_lib_sw_operators.c ****   case SW_PURE_CANONICAL:
 548:Lib/AI_Runtime/Npu/ll_aton/ll_aton_lib_sw_operators.c ****   {
 549:Lib/AI_Runtime/Npu/ll_aton/ll_aton_lib_sw_operators.c ****     LL_ATON_ASSERT(dma_in == -1);
 2669              		.loc 1 549 5
 2670 0148 BB6A     		ldr	r3, [r7, #40]
 2671 014a B3F1FF3F 		cmp	r3, #-1
 2672 014e 06D0     		beq	.L145
 2673              		.loc 1 549 5 is_stmt 0 discriminator 1
 2674 0150 524B     		ldr	r3, .L172+4
 2675 0152 534A     		ldr	r2, .L172+8
 2676 0154 40F22521 		movw	r1, #549
 2677 0158 5248     		ldr	r0, .L172+12
 2678 015a FFF7FEFF 		bl	__assert_func
 2679              	.L145:
 550:Lib/AI_Runtime/Npu/ll_aton/ll_aton_lib_sw_operators.c ****     LL_ATON_ASSERT(dma_out == -1);
 2680              		.loc 1 550 5 is_stmt 1
 2681 015e FB6A     		ldr	r3, [r7, #44]
 2682 0160 B3F1FF3F 		cmp	r3, #-1
 2683 0164 06D0     		beq	.L146
 2684              		.loc 1 550 5 is_stmt 0 discriminator 1
 2685 0166 504B     		ldr	r3, .L172+16
 2686 0168 4D4A     		ldr	r2, .L172+8
 2687 016a 40F22621 		movw	r1, #550
 2688 016e 4D48     		ldr	r0, .L172+12
 2689 0170 FFF7FEFF 		bl	__assert_func
 2690              	.L146:
 551:Lib/AI_Runtime/Npu/ll_aton/ll_aton_lib_sw_operators.c **** 
 552:Lib/AI_Runtime/Npu/ll_aton/ll_aton_lib_sw_operators.c ****     if (aton_canonical)
 2691              		.loc 1 552 8 is_stmt 1
 2692 0174 FB7A     		ldrb	r3, [r7, #11]	@ zero_extendqisi2
 2693 0176 002B     		cmp	r3, #0
 2694 0178 09D0     		beq	.L147
 553:Lib/AI_Runtime/Npu/ll_aton/ll_aton_lib_sw_operators.c ****     {
 554:Lib/AI_Runtime/Npu/ll_aton/ll_aton_lib_sw_operators.c ****       __ll_aton_lib_split_aton_canonical(input, outputs, noutputs, rank, split_onnx_axis);
 2695              		.loc 1 554 7
ARM GAS  /tmp/ccgnzMmM.s 			page 70


 2696 017a 3A68     		ldr	r2, [r7]
 2697 017c B969     		ldr	r1, [r7, #24]
 2698 017e FB69     		ldr	r3, [r7, #28]
 2699 0180 0093     		str	r3, [sp]
 2700 0182 0B46     		mov	r3, r1
 2701 0184 7968     		ldr	r1, [r7, #4]
 2702 0186 F868     		ldr	r0, [r7, #12]
 2703 0188 FFF7FEFF 		bl	__ll_aton_lib_split_aton_canonical
 555:Lib/AI_Runtime/Npu/ll_aton/ll_aton_lib_sw_operators.c ****     }
 556:Lib/AI_Runtime/Npu/ll_aton/ll_aton_lib_sw_operators.c ****     else
 557:Lib/AI_Runtime/Npu/ll_aton/ll_aton_lib_sw_operators.c ****     {
 558:Lib/AI_Runtime/Npu/ll_aton/ll_aton_lib_sw_operators.c ****       __ll_aton_lib_split_onnx_canonical(input, outputs, noutputs, rank, split_onnx_axis);
 559:Lib/AI_Runtime/Npu/ll_aton/ll_aton_lib_sw_operators.c ****     }
 560:Lib/AI_Runtime/Npu/ll_aton/ll_aton_lib_sw_operators.c ****   }
 561:Lib/AI_Runtime/Npu/ll_aton/ll_aton_lib_sw_operators.c ****   break;
 2704              		.loc 1 561 3
 2705 018c 0FE1     		b	.L149
 2706              	.L147:
 558:Lib/AI_Runtime/Npu/ll_aton/ll_aton_lib_sw_operators.c ****     }
 2707              		.loc 1 558 7
 2708 018e 3A68     		ldr	r2, [r7]
 2709 0190 B969     		ldr	r1, [r7, #24]
 2710 0192 FB69     		ldr	r3, [r7, #28]
 2711 0194 0093     		str	r3, [sp]
 2712 0196 0B46     		mov	r3, r1
 2713 0198 7968     		ldr	r1, [r7, #4]
 2714 019a F868     		ldr	r0, [r7, #12]
 2715 019c FFF7FEFF 		bl	__ll_aton_lib_split_onnx_canonical
 2716              		.loc 1 561 3
 2717 01a0 05E1     		b	.L149
 2718              	.L141:
 562:Lib/AI_Runtime/Npu/ll_aton/ll_aton_lib_sw_operators.c ****   case SW_CHANNEL_ATON:
 563:Lib/AI_Runtime/Npu/ll_aton/ll_aton_lib_sw_operators.c ****     LL_ATON_ASSERT(dma_in == -1);
 2719              		.loc 1 563 5
 2720 01a2 BB6A     		ldr	r3, [r7, #40]
 2721 01a4 B3F1FF3F 		cmp	r3, #-1
 2722 01a8 06D0     		beq	.L150
 2723              		.loc 1 563 5 is_stmt 0 discriminator 1
 2724 01aa 3C4B     		ldr	r3, .L172+4
 2725 01ac 3C4A     		ldr	r2, .L172+8
 2726 01ae 40F23321 		movw	r1, #563
 2727 01b2 3C48     		ldr	r0, .L172+12
 2728 01b4 FFF7FEFF 		bl	__assert_func
 2729              	.L150:
 564:Lib/AI_Runtime/Npu/ll_aton/ll_aton_lib_sw_operators.c ****     LL_ATON_ASSERT(dma_out == -1);
 2730              		.loc 1 564 5 is_stmt 1
 2731 01b8 FB6A     		ldr	r3, [r7, #44]
 2732 01ba B3F1FF3F 		cmp	r3, #-1
 2733 01be 06D0     		beq	.L142
 2734              		.loc 1 564 5 is_stmt 0 discriminator 1
 2735 01c0 394B     		ldr	r3, .L172+16
 2736 01c2 374A     		ldr	r2, .L172+8
 2737 01c4 4FF40D71 		mov	r1, #564
 2738 01c8 3648     		ldr	r0, .L172+12
 2739 01ca FFF7FEFF 		bl	__assert_func
 2740              	.L142:
 565:Lib/AI_Runtime/Npu/ll_aton/ll_aton_lib_sw_operators.c ****   case HYBRID_CHANNEL_ATON:
ARM GAS  /tmp/ccgnzMmM.s 			page 71


 566:Lib/AI_Runtime/Npu/ll_aton/ll_aton_lib_sw_operators.c ****   {
 567:Lib/AI_Runtime/Npu/ll_aton/ll_aton_lib_sw_operators.c ****     if (!aton_canonical)
 2741              		.loc 1 567 9 is_stmt 1
 2742 01ce FB7A     		ldrb	r3, [r7, #11]
 2743 01d0 83F00103 		eor	r3, r3, #1
 2744 01d4 DBB2     		uxtb	r3, r3
 2745              		.loc 1 567 8
 2746 01d6 002B     		cmp	r3, #0
 2747 01d8 08D0     		beq	.L151
 568:Lib/AI_Runtime/Npu/ll_aton/ll_aton_lib_sw_operators.c ****     {
 569:Lib/AI_Runtime/Npu/ll_aton/ll_aton_lib_sw_operators.c ****       __LL_LIB_ERROR(_ERR_SHAPE, LL_ATON_INVALID_PARAM);
 2748              		.loc 1 569 7
 2749 01da 2F4A     		ldr	r2, .L172
 2750 01dc 40F23921 		movw	r1, #569
 2751 01e0 0920     		movs	r0, #9
 2752 01e2 FFF7FEFF 		bl	__ll_lib_error
 2753              		.loc 1 569 7 is_stmt 0 discriminator 1
 2754 01e6 6FF00103 		mvn	r3, #1
 2755              		.loc 1 569 7
 2756 01ea E1E0     		b	.L125
 2757              	.L151:
 570:Lib/AI_Runtime/Npu/ll_aton/ll_aton_lib_sw_operators.c ****     }
 571:Lib/AI_Runtime/Npu/ll_aton/ll_aton_lib_sw_operators.c **** 
 572:Lib/AI_Runtime/Npu/ll_aton/ll_aton_lib_sw_operators.c ****     if ((noutputs > __LL_MAX_TENSORS) || (split_case == SW_CHANNEL_ATON))
 2758              		.loc 1 572 8 is_stmt 1
 2759 01ec 3B68     		ldr	r3, [r7]
 2760 01ee 182B     		cmp	r3, #24
 2761 01f0 02D8     		bhi	.L152
 2762              		.loc 1 572 39 discriminator 1
 2763 01f2 7B6A     		ldr	r3, [r7, #36]
 2764 01f4 022B     		cmp	r3, #2
 2765 01f6 09D1     		bne	.L153
 2766              	.L152:
 573:Lib/AI_Runtime/Npu/ll_aton/ll_aton_lib_sw_operators.c ****     {
 574:Lib/AI_Runtime/Npu/ll_aton/ll_aton_lib_sw_operators.c ****       __ll_aton_lib_split_aton_canonical(input, outputs, noutputs, rank, split_onnx_axis);
 2767              		.loc 1 574 7
 2768 01f8 3A68     		ldr	r2, [r7]
 2769 01fa B969     		ldr	r1, [r7, #24]
 2770 01fc FB69     		ldr	r3, [r7, #28]
 2771 01fe 0093     		str	r3, [sp]
 2772 0200 0B46     		mov	r3, r1
 2773 0202 7968     		ldr	r1, [r7, #4]
 2774 0204 F868     		ldr	r0, [r7, #12]
 2775 0206 FFF7FEFF 		bl	__ll_aton_lib_split_aton_canonical
 575:Lib/AI_Runtime/Npu/ll_aton/ll_aton_lib_sw_operators.c ****     }
 576:Lib/AI_Runtime/Npu/ll_aton/ll_aton_lib_sw_operators.c ****     else
 577:Lib/AI_Runtime/Npu/ll_aton/ll_aton_lib_sw_operators.c ****     {
 578:Lib/AI_Runtime/Npu/ll_aton/ll_aton_lib_sw_operators.c ****       LL_ATON_ASSERT(dma_in != -1);
 579:Lib/AI_Runtime/Npu/ll_aton/ll_aton_lib_sw_operators.c ****       LL_ATON_ASSERT(dma_out != -1);
 580:Lib/AI_Runtime/Npu/ll_aton/ll_aton_lib_sw_operators.c **** 
 581:Lib/AI_Runtime/Npu/ll_aton/ll_aton_lib_sw_operators.c ****       LL_ATON_LIB_DMA_Outputs_Channel_Split_Aton(input, (const LL_LIB_TensorShape_TypeDef *)outputs
 582:Lib/AI_Runtime/Npu/ll_aton/ll_aton_lib_sw_operators.c ****                                                  leading_dims, dma_in, dma_out);
 583:Lib/AI_Runtime/Npu/ll_aton/ll_aton_lib_sw_operators.c ****     }
 584:Lib/AI_Runtime/Npu/ll_aton/ll_aton_lib_sw_operators.c ****   }
 585:Lib/AI_Runtime/Npu/ll_aton/ll_aton_lib_sw_operators.c ****   break;
 2776              		.loc 1 585 3
 2777 020a D0E0     		b	.L149
ARM GAS  /tmp/ccgnzMmM.s 			page 72


 2778              	.L153:
 578:Lib/AI_Runtime/Npu/ll_aton/ll_aton_lib_sw_operators.c ****       LL_ATON_ASSERT(dma_out != -1);
 2779              		.loc 1 578 7
 2780 020c BB6A     		ldr	r3, [r7, #40]
 2781 020e B3F1FF3F 		cmp	r3, #-1
 2782 0212 06D1     		bne	.L155
 578:Lib/AI_Runtime/Npu/ll_aton/ll_aton_lib_sw_operators.c ****       LL_ATON_ASSERT(dma_out != -1);
 2783              		.loc 1 578 7 is_stmt 0 discriminator 1
 2784 0214 254B     		ldr	r3, .L172+20
 2785 0216 224A     		ldr	r2, .L172+8
 2786 0218 40F24221 		movw	r1, #578
 2787 021c 2148     		ldr	r0, .L172+12
 2788 021e FFF7FEFF 		bl	__assert_func
 2789              	.L155:
 579:Lib/AI_Runtime/Npu/ll_aton/ll_aton_lib_sw_operators.c **** 
 2790              		.loc 1 579 7 is_stmt 1
 2791 0222 FB6A     		ldr	r3, [r7, #44]
 2792 0224 B3F1FF3F 		cmp	r3, #-1
 2793 0228 06D1     		bne	.L156
 579:Lib/AI_Runtime/Npu/ll_aton/ll_aton_lib_sw_operators.c **** 
 2794              		.loc 1 579 7 is_stmt 0 discriminator 1
 2795 022a 214B     		ldr	r3, .L172+24
 2796 022c 1C4A     		ldr	r2, .L172+8
 2797 022e 40F24321 		movw	r1, #579
 2798 0232 1C48     		ldr	r0, .L172+12
 2799 0234 FFF7FEFF 		bl	__assert_func
 2800              	.L156:
 581:Lib/AI_Runtime/Npu/ll_aton/ll_aton_lib_sw_operators.c ****                                                  leading_dims, dma_in, dma_out);
 2801              		.loc 1 581 7 is_stmt 1
 2802 0238 FB6A     		ldr	r3, [r7, #44]
 2803 023a 0193     		str	r3, [sp, #4]
 2804 023c BB6A     		ldr	r3, [r7, #40]
 2805 023e 0093     		str	r3, [sp]
 2806 0240 3B6A     		ldr	r3, [r7, #32]
 2807 0242 3A68     		ldr	r2, [r7]
 2808 0244 7968     		ldr	r1, [r7, #4]
 2809 0246 F868     		ldr	r0, [r7, #12]
 2810 0248 FFF7FEFF 		bl	LL_ATON_LIB_DMA_Outputs_Channel_Split_Aton
 2811              		.loc 1 585 3
 2812 024c AFE0     		b	.L149
 2813              	.L138:
 586:Lib/AI_Runtime/Npu/ll_aton/ll_aton_lib_sw_operators.c ****   case SW_CHANNEL_BATCHED:
 587:Lib/AI_Runtime/Npu/ll_aton/ll_aton_lib_sw_operators.c ****     LL_ATON_ASSERT(dma_in == -1);
 2814              		.loc 1 587 5
 2815 024e BB6A     		ldr	r3, [r7, #40]
 2816 0250 B3F1FF3F 		cmp	r3, #-1
 2817 0254 06D0     		beq	.L157
 2818              		.loc 1 587 5 is_stmt 0 discriminator 1
 2819 0256 114B     		ldr	r3, .L172+4
 2820 0258 114A     		ldr	r2, .L172+8
 2821 025a 40F24B21 		movw	r1, #587
 2822 025e 1148     		ldr	r0, .L172+12
 2823 0260 FFF7FEFF 		bl	__assert_func
 2824              	.L157:
 588:Lib/AI_Runtime/Npu/ll_aton/ll_aton_lib_sw_operators.c ****     LL_ATON_ASSERT(dma_out == -1);
 2825              		.loc 1 588 5 is_stmt 1
 2826 0264 FB6A     		ldr	r3, [r7, #44]
ARM GAS  /tmp/ccgnzMmM.s 			page 73


 2827 0266 B3F1FF3F 		cmp	r3, #-1
 2828 026a 06D0     		beq	.L139
 2829              		.loc 1 588 5 is_stmt 0 discriminator 1
 2830 026c 0E4B     		ldr	r3, .L172+16
 2831 026e 0C4A     		ldr	r2, .L172+8
 2832 0270 4FF41371 		mov	r1, #588
 2833 0274 0B48     		ldr	r0, .L172+12
 2834 0276 FFF7FEFF 		bl	__assert_func
 2835              	.L139:
 589:Lib/AI_Runtime/Npu/ll_aton/ll_aton_lib_sw_operators.c ****   case HYBRID_CHANNEL_BATCHED:
 590:Lib/AI_Runtime/Npu/ll_aton/ll_aton_lib_sw_operators.c ****   {
 591:Lib/AI_Runtime/Npu/ll_aton/ll_aton_lib_sw_operators.c ****     if (!aton_canonical)
 2836              		.loc 1 591 9 is_stmt 1
 2837 027a FB7A     		ldrb	r3, [r7, #11]
 2838 027c 83F00103 		eor	r3, r3, #1
 2839 0280 DBB2     		uxtb	r3, r3
 2840              		.loc 1 591 8
 2841 0282 002B     		cmp	r3, #0
 2842 0284 16D0     		beq	.L158
 592:Lib/AI_Runtime/Npu/ll_aton/ll_aton_lib_sw_operators.c ****     {
 593:Lib/AI_Runtime/Npu/ll_aton/ll_aton_lib_sw_operators.c ****       __LL_LIB_ERROR(_ERR_SHAPE, LL_ATON_INVALID_PARAM);
 2843              		.loc 1 593 7
 2844 0286 044A     		ldr	r2, .L172
 2845 0288 40F25121 		movw	r1, #593
 2846 028c 0920     		movs	r0, #9
 2847 028e FFF7FEFF 		bl	__ll_lib_error
 2848              		.loc 1 593 7 is_stmt 0 discriminator 1
 2849 0292 6FF00103 		mvn	r3, #1
 2850              		.loc 1 593 7
 2851 0296 8BE0     		b	.L125
 2852              	.L173:
 2853              		.align	2
 2854              	.L172:
 2855 0298 00000000 		.word	__FUNCTION__.24
 2856 029c 4C020000 		.word	.LC16
 2857 02a0 00000000 		.word	__func__.23
 2858 02a4 24000000 		.word	.LC1
 2859 02a8 5C020000 		.word	.LC17
 2860 02ac 6C020000 		.word	.LC18
 2861 02b0 7C020000 		.word	.LC19
 2862              	.L158:
 594:Lib/AI_Runtime/Npu/ll_aton/ll_aton_lib_sw_operators.c ****     }
 595:Lib/AI_Runtime/Npu/ll_aton/ll_aton_lib_sw_operators.c **** 
 596:Lib/AI_Runtime/Npu/ll_aton/ll_aton_lib_sw_operators.c ****     if ((noutputs > __LL_MAX_TENSORS) || (split_case == SW_CHANNEL_BATCHED))
 2863              		.loc 1 596 8 is_stmt 1
 2864 02b4 3B68     		ldr	r3, [r7]
 2865 02b6 182B     		cmp	r3, #24
 2866 02b8 02D8     		bhi	.L159
 2867              		.loc 1 596 39 discriminator 1
 2868 02ba 7B6A     		ldr	r3, [r7, #36]
 2869 02bc 042B     		cmp	r3, #4
 2870 02be 08D1     		bne	.L160
 2871              	.L159:
 597:Lib/AI_Runtime/Npu/ll_aton/ll_aton_lib_sw_operators.c ****     {
 598:Lib/AI_Runtime/Npu/ll_aton/ll_aton_lib_sw_operators.c ****       __ll_aton_lib_split_channel_batched(input, outputs, noutputs, rank, split_onnx_axis);
 2872              		.loc 1 598 7
 2873 02c0 FB69     		ldr	r3, [r7, #28]
ARM GAS  /tmp/ccgnzMmM.s 			page 74


 2874 02c2 0093     		str	r3, [sp]
 2875 02c4 BB69     		ldr	r3, [r7, #24]
 2876 02c6 3A68     		ldr	r2, [r7]
 2877 02c8 7968     		ldr	r1, [r7, #4]
 2878 02ca F868     		ldr	r0, [r7, #12]
 2879 02cc FFF7FEFF 		bl	__ll_aton_lib_split_channel_batched
 599:Lib/AI_Runtime/Npu/ll_aton/ll_aton_lib_sw_operators.c ****     }
 600:Lib/AI_Runtime/Npu/ll_aton/ll_aton_lib_sw_operators.c ****     else
 601:Lib/AI_Runtime/Npu/ll_aton/ll_aton_lib_sw_operators.c ****     {
 602:Lib/AI_Runtime/Npu/ll_aton/ll_aton_lib_sw_operators.c ****       LL_ATON_ASSERT(dma_in != -1);
 603:Lib/AI_Runtime/Npu/ll_aton/ll_aton_lib_sw_operators.c ****       LL_ATON_ASSERT(dma_out != -1);
 604:Lib/AI_Runtime/Npu/ll_aton/ll_aton_lib_sw_operators.c **** 
 605:Lib/AI_Runtime/Npu/ll_aton/ll_aton_lib_sw_operators.c ****       LL_ATON_LIB_DMA_Outputs_Channel_Split_Batched(input, (const LL_LIB_TensorShape_TypeDef *)outp
 606:Lib/AI_Runtime/Npu/ll_aton/ll_aton_lib_sw_operators.c ****                                                     dma_in, dma_out);
 607:Lib/AI_Runtime/Npu/ll_aton/ll_aton_lib_sw_operators.c ****     }
 608:Lib/AI_Runtime/Npu/ll_aton/ll_aton_lib_sw_operators.c ****   }
 609:Lib/AI_Runtime/Npu/ll_aton/ll_aton_lib_sw_operators.c ****   break;
 2880              		.loc 1 609 3
 2881 02d0 6DE0     		b	.L149
 2882              	.L160:
 602:Lib/AI_Runtime/Npu/ll_aton/ll_aton_lib_sw_operators.c ****       LL_ATON_ASSERT(dma_out != -1);
 2883              		.loc 1 602 7
 2884 02d2 BB6A     		ldr	r3, [r7, #40]
 2885 02d4 B3F1FF3F 		cmp	r3, #-1
 2886 02d8 06D1     		bne	.L162
 602:Lib/AI_Runtime/Npu/ll_aton/ll_aton_lib_sw_operators.c ****       LL_ATON_ASSERT(dma_out != -1);
 2887              		.loc 1 602 7 is_stmt 0 discriminator 1
 2888 02da 374B     		ldr	r3, .L174
 2889 02dc 374A     		ldr	r2, .L174+4
 2890 02de 40F25A21 		movw	r1, #602
 2891 02e2 3748     		ldr	r0, .L174+8
 2892 02e4 FFF7FEFF 		bl	__assert_func
 2893              	.L162:
 603:Lib/AI_Runtime/Npu/ll_aton/ll_aton_lib_sw_operators.c **** 
 2894              		.loc 1 603 7 is_stmt 1
 2895 02e8 FB6A     		ldr	r3, [r7, #44]
 2896 02ea B3F1FF3F 		cmp	r3, #-1
 2897 02ee 06D1     		bne	.L163
 603:Lib/AI_Runtime/Npu/ll_aton/ll_aton_lib_sw_operators.c **** 
 2898              		.loc 1 603 7 is_stmt 0 discriminator 1
 2899 02f0 344B     		ldr	r3, .L174+12
 2900 02f2 324A     		ldr	r2, .L174+4
 2901 02f4 40F25B21 		movw	r1, #603
 2902 02f8 3148     		ldr	r0, .L174+8
 2903 02fa FFF7FEFF 		bl	__assert_func
 2904              	.L163:
 605:Lib/AI_Runtime/Npu/ll_aton/ll_aton_lib_sw_operators.c ****                                                     dma_in, dma_out);
 2905              		.loc 1 605 7 is_stmt 1
 2906 02fe FB6A     		ldr	r3, [r7, #44]
 2907 0300 0093     		str	r3, [sp]
 2908 0302 BB6A     		ldr	r3, [r7, #40]
 2909 0304 3A68     		ldr	r2, [r7]
 2910 0306 7968     		ldr	r1, [r7, #4]
 2911 0308 F868     		ldr	r0, [r7, #12]
 2912 030a FFF7FEFF 		bl	LL_ATON_LIB_DMA_Outputs_Channel_Split_Batched
 2913              		.loc 1 609 3
 2914 030e 4EE0     		b	.L149
ARM GAS  /tmp/ccgnzMmM.s 			page 75


 2915              	.L137:
 610:Lib/AI_Runtime/Npu/ll_aton/ll_aton_lib_sw_operators.c ****   case SW_FLAT_CANONICAL:
 611:Lib/AI_Runtime/Npu/ll_aton/ll_aton_lib_sw_operators.c ****   case SW_FLAT_BATCHED:
 612:Lib/AI_Runtime/Npu/ll_aton/ll_aton_lib_sw_operators.c ****   case SW_CHANNEL_UNIFORM:
 613:Lib/AI_Runtime/Npu/ll_aton/ll_aton_lib_sw_operators.c ****     LL_ATON_ASSERT(dma_in == -1);
 2916              		.loc 1 613 5
 2917 0310 BB6A     		ldr	r3, [r7, #40]
 2918 0312 B3F1FF3F 		cmp	r3, #-1
 2919 0316 06D0     		beq	.L164
 2920              		.loc 1 613 5 is_stmt 0 discriminator 1
 2921 0318 2B4B     		ldr	r3, .L174+16
 2922 031a 284A     		ldr	r2, .L174+4
 2923 031c 40F26521 		movw	r1, #613
 2924 0320 2748     		ldr	r0, .L174+8
 2925 0322 FFF7FEFF 		bl	__assert_func
 2926              	.L164:
 614:Lib/AI_Runtime/Npu/ll_aton/ll_aton_lib_sw_operators.c ****     LL_ATON_ASSERT(dma_out == -1);
 2927              		.loc 1 614 5 is_stmt 1
 2928 0326 FB6A     		ldr	r3, [r7, #44]
 2929 0328 B3F1FF3F 		cmp	r3, #-1
 2930 032c 06D0     		beq	.L136
 2931              		.loc 1 614 5 is_stmt 0 discriminator 1
 2932 032e 274B     		ldr	r3, .L174+20
 2933 0330 224A     		ldr	r2, .L174+4
 2934 0332 40F26621 		movw	r1, #614
 2935 0336 2248     		ldr	r0, .L174+8
 2936 0338 FFF7FEFF 		bl	__assert_func
 2937              	.L136:
 615:Lib/AI_Runtime/Npu/ll_aton/ll_aton_lib_sw_operators.c ****   case DMA_FLAT_CANONICAL:
 616:Lib/AI_Runtime/Npu/ll_aton/ll_aton_lib_sw_operators.c ****   case DMA_FLAT_BATCHED:
 617:Lib/AI_Runtime/Npu/ll_aton/ll_aton_lib_sw_operators.c ****   case DMA_CHANNEL_UNIFORM:
 618:Lib/AI_Runtime/Npu/ll_aton/ll_aton_lib_sw_operators.c ****   {
 619:Lib/AI_Runtime/Npu/ll_aton/ll_aton_lib_sw_operators.c ****     if ((noutputs > __LL_MAX_TENSORS) || (split_case == SW_FLAT_CANONICAL) || (split_case == SW_FLA
 2938              		.loc 1 619 8 is_stmt 1
 2939 033c 3B68     		ldr	r3, [r7]
 2940 033e 182B     		cmp	r3, #24
 2941 0340 08D8     		bhi	.L165
 2942              		.loc 1 619 39 discriminator 1
 2943 0342 7B6A     		ldr	r3, [r7, #36]
 2944 0344 082B     		cmp	r3, #8
 2945 0346 05D0     		beq	.L165
 2946              		.loc 1 619 76 discriminator 2
 2947 0348 7B6A     		ldr	r3, [r7, #36]
 2948 034a 0A2B     		cmp	r3, #10
 2949 034c 02D0     		beq	.L165
 2950              		.loc 1 619 111 discriminator 3
 2951 034e 7B6A     		ldr	r3, [r7, #36]
 2952 0350 062B     		cmp	r3, #6
 2953 0352 06D1     		bne	.L166
 2954              	.L165:
 620:Lib/AI_Runtime/Npu/ll_aton/ll_aton_lib_sw_operators.c ****         (split_case == SW_CHANNEL_UNIFORM))
 621:Lib/AI_Runtime/Npu/ll_aton/ll_aton_lib_sw_operators.c ****     {
 622:Lib/AI_Runtime/Npu/ll_aton/ll_aton_lib_sw_operators.c ****       return __ll_aton_lib_sw_outputs_flat_copy(input, outputs, noutputs);
 2955              		.loc 1 622 14
 2956 0354 3A68     		ldr	r2, [r7]
 2957 0356 7968     		ldr	r1, [r7, #4]
 2958 0358 F868     		ldr	r0, [r7, #12]
ARM GAS  /tmp/ccgnzMmM.s 			page 76


 2959 035a FFF7FEFF 		bl	__ll_aton_lib_sw_outputs_flat_copy
 2960 035e 0346     		mov	r3, r0
 2961 0360 26E0     		b	.L125
 2962              	.L166:
 623:Lib/AI_Runtime/Npu/ll_aton/ll_aton_lib_sw_operators.c ****     }
 624:Lib/AI_Runtime/Npu/ll_aton/ll_aton_lib_sw_operators.c ****     else
 625:Lib/AI_Runtime/Npu/ll_aton/ll_aton_lib_sw_operators.c ****     {
 626:Lib/AI_Runtime/Npu/ll_aton/ll_aton_lib_sw_operators.c ****       LL_ATON_ASSERT(dma_in != -1);
 2963              		.loc 1 626 7
 2964 0362 BB6A     		ldr	r3, [r7, #40]
 2965 0364 B3F1FF3F 		cmp	r3, #-1
 2966 0368 06D1     		bne	.L167
 2967              		.loc 1 626 7 is_stmt 0 discriminator 1
 2968 036a 134B     		ldr	r3, .L174
 2969 036c 134A     		ldr	r2, .L174+4
 2970 036e 40F27221 		movw	r1, #626
 2971 0372 1348     		ldr	r0, .L174+8
 2972 0374 FFF7FEFF 		bl	__assert_func
 2973              	.L167:
 627:Lib/AI_Runtime/Npu/ll_aton/ll_aton_lib_sw_operators.c ****       LL_ATON_ASSERT(dma_out != -1);
 2974              		.loc 1 627 7 is_stmt 1
 2975 0378 FB6A     		ldr	r3, [r7, #44]
 2976 037a B3F1FF3F 		cmp	r3, #-1
 2977 037e 06D1     		bne	.L168
 2978              		.loc 1 627 7 is_stmt 0 discriminator 1
 2979 0380 104B     		ldr	r3, .L174+12
 2980 0382 0E4A     		ldr	r2, .L174+4
 2981 0384 40F27321 		movw	r1, #627
 2982 0388 0D48     		ldr	r0, .L174+8
 2983 038a FFF7FEFF 		bl	__assert_func
 2984              	.L168:
 628:Lib/AI_Runtime/Npu/ll_aton/ll_aton_lib_sw_operators.c **** 
 629:Lib/AI_Runtime/Npu/ll_aton/ll_aton_lib_sw_operators.c ****       LL_ATON_LIB_DMA_Outputs_Flat_Copy(input, (const LL_LIB_TensorShape_TypeDef *)outputs, noutput
 2985              		.loc 1 629 7 is_stmt 1
 2986 038e FB6A     		ldr	r3, [r7, #44]
 2987 0390 0093     		str	r3, [sp]
 2988 0392 BB6A     		ldr	r3, [r7, #40]
 2989 0394 3A68     		ldr	r2, [r7]
 2990 0396 7968     		ldr	r1, [r7, #4]
 2991 0398 F868     		ldr	r0, [r7, #12]
 2992 039a FFF7FEFF 		bl	LL_ATON_LIB_DMA_Outputs_Flat_Copy
 630:Lib/AI_Runtime/Npu/ll_aton/ll_aton_lib_sw_operators.c ****     }
 631:Lib/AI_Runtime/Npu/ll_aton/ll_aton_lib_sw_operators.c ****   }
 632:Lib/AI_Runtime/Npu/ll_aton/ll_aton_lib_sw_operators.c ****   break;
 2993              		.loc 1 632 3
 2994 039e 06E0     		b	.L149
 2995              	.L135:
 633:Lib/AI_Runtime/Npu/ll_aton/ll_aton_lib_sw_operators.c ****   default:
 634:Lib/AI_Runtime/Npu/ll_aton/ll_aton_lib_sw_operators.c ****     LL_ATON_ASSERT(false);
 2996              		.loc 1 634 5
 2997 03a0 0B4B     		ldr	r3, .L174+24
 2998 03a2 064A     		ldr	r2, .L174+4
 2999 03a4 40F27A21 		movw	r1, #634
 3000 03a8 0548     		ldr	r0, .L174+8
 3001 03aa FFF7FEFF 		bl	__assert_func
 3002              	.L149:
 635:Lib/AI_Runtime/Npu/ll_aton/ll_aton_lib_sw_operators.c ****     break;
ARM GAS  /tmp/ccgnzMmM.s 			page 77


 636:Lib/AI_Runtime/Npu/ll_aton/ll_aton_lib_sw_operators.c ****   }
 637:Lib/AI_Runtime/Npu/ll_aton/ll_aton_lib_sw_operators.c **** 
 638:Lib/AI_Runtime/Npu/ll_aton/ll_aton_lib_sw_operators.c ****   return LL_ATON_OK;
 3003              		.loc 1 638 10
 3004 03ae 0023     		movs	r3, #0
 3005              	.L125:
 639:Lib/AI_Runtime/Npu/ll_aton/ll_aton_lib_sw_operators.c **** }
 3006              		.loc 1 639 1
 3007 03b0 1846     		mov	r0, r3
 3008 03b2 1037     		adds	r7, r7, #16
 3009              		.cfi_def_cfa_offset 8
 3010 03b4 BD46     		mov	sp, r7
 3011              		.cfi_def_cfa_register 13
 3012              		@ sp needed
 3013 03b6 80BD     		pop	{r7, pc}
 3014              	.L175:
 3015              		.align	2
 3016              	.L174:
 3017 03b8 6C020000 		.word	.LC18
 3018 03bc 00000000 		.word	__func__.23
 3019 03c0 24000000 		.word	.LC1
 3020 03c4 7C020000 		.word	.LC19
 3021 03c8 4C020000 		.word	.LC16
 3022 03cc 5C020000 		.word	.LC17
 3023 03d0 C8000000 		.word	.LC5
 3024              		.cfi_endproc
 3025              	.LFE4865:
 3027              		.section	.text.LL_ATON_LIB_SW_SpaceToDepth,"ax",%progbits
 3028              		.align	1
 3029              		.global	LL_ATON_LIB_SW_SpaceToDepth
 3030              		.syntax unified
 3031              		.thumb
 3032              		.thumb_func
 3034              	LL_ATON_LIB_SW_SpaceToDepth:
 3035              	.LFB4866:
 640:Lib/AI_Runtime/Npu/ll_aton/ll_aton_lib_sw_operators.c **** 
 641:Lib/AI_Runtime/Npu/ll_aton/ll_aton_lib_sw_operators.c **** int LL_ATON_LIB_SW_SpaceToDepth(const LL_LIB_TensorShape_TypeDef *input, const uint32_t *input_axes
 642:Lib/AI_Runtime/Npu/ll_aton/ll_aton_lib_sw_operators.c ****                                 const LL_LIB_TensorShape_TypeDef *output, const uint32_t *output_ax
 643:Lib/AI_Runtime/Npu/ll_aton/ll_aton_lib_sw_operators.c ****                                 uint32_t bs_h, uint32_t bs_w)
 644:Lib/AI_Runtime/Npu/ll_aton/ll_aton_lib_sw_operators.c **** {
 3036              		.loc 1 644 1
 3037              		.cfi_startproc
 3038              		@ args = 8, pretend = 0, frame = 120
 3039              		@ frame_needed = 1, uses_anonymous_args = 0
 3040 0000 80B5     		push	{r7, lr}
 3041              		.cfi_def_cfa_offset 8
 3042              		.cfi_offset 7, -8
 3043              		.cfi_offset 14, -4
 3044 0002 A2B0     		sub	sp, sp, #136
 3045              		.cfi_def_cfa_offset 144
 3046 0004 04AF     		add	r7, sp, #16
 3047              		.cfi_def_cfa 7, 128
 3048 0006 F860     		str	r0, [r7, #12]
 3049 0008 B960     		str	r1, [r7, #8]
 3050 000a 7A60     		str	r2, [r7, #4]
 3051 000c 3B60     		str	r3, [r7]
 645:Lib/AI_Runtime/Npu/ll_aton/ll_aton_lib_sw_operators.c ****   if (input->ndims != 4)
ARM GAS  /tmp/ccgnzMmM.s 			page 78


 3052              		.loc 1 645 12
 3053 000e FB68     		ldr	r3, [r7, #12]
 3054 0010 93F82730 		ldrb	r3, [r3, #39]	@ zero_extendqisi2
 3055              		.loc 1 645 6
 3056 0014 042B     		cmp	r3, #4
 3057 0016 08D0     		beq	.L177
 646:Lib/AI_Runtime/Npu/ll_aton/ll_aton_lib_sw_operators.c ****   {
 647:Lib/AI_Runtime/Npu/ll_aton/ll_aton_lib_sw_operators.c ****     __LL_LIB_ERROR(_ERR_RANK, LL_ATON_INVALID_PARAM);
 3058              		.loc 1 647 5
 3059 0018 804A     		ldr	r2, .L191
 3060 001a 40F28721 		movw	r1, #647
 3061 001e 0F20     		movs	r0, #15
 3062 0020 FFF7FEFF 		bl	__ll_lib_error
 3063              		.loc 1 647 5 is_stmt 0 discriminator 1
 3064 0024 6FF00103 		mvn	r3, #1
 3065              		.loc 1 647 5
 3066 0028 F3E0     		b	.L178
 3067              	.L177:
 648:Lib/AI_Runtime/Npu/ll_aton/ll_aton_lib_sw_operators.c ****   }
 649:Lib/AI_Runtime/Npu/ll_aton/ll_aton_lib_sw_operators.c **** 
 650:Lib/AI_Runtime/Npu/ll_aton/ll_aton_lib_sw_operators.c ****   if (output->ndims != 4)
 3068              		.loc 1 650 13 is_stmt 1
 3069 002a 7B68     		ldr	r3, [r7, #4]
 3070 002c 93F82730 		ldrb	r3, [r3, #39]	@ zero_extendqisi2
 3071              		.loc 1 650 6
 3072 0030 042B     		cmp	r3, #4
 3073 0032 08D0     		beq	.L179
 651:Lib/AI_Runtime/Npu/ll_aton/ll_aton_lib_sw_operators.c ****   {
 652:Lib/AI_Runtime/Npu/ll_aton/ll_aton_lib_sw_operators.c ****     __LL_LIB_ERROR(_ERR_RANK, LL_ATON_INVALID_PARAM);
 3074              		.loc 1 652 5
 3075 0034 794A     		ldr	r2, .L191
 3076 0036 4FF42371 		mov	r1, #652
 3077 003a 0F20     		movs	r0, #15
 3078 003c FFF7FEFF 		bl	__ll_lib_error
 3079              		.loc 1 652 5 is_stmt 0 discriminator 1
 3080 0040 6FF00103 		mvn	r3, #1
 3081              		.loc 1 652 5
 3082 0044 E5E0     		b	.L178
 3083              	.L179:
 653:Lib/AI_Runtime/Npu/ll_aton/ll_aton_lib_sw_operators.c ****   }
 654:Lib/AI_Runtime/Npu/ll_aton/ll_aton_lib_sw_operators.c **** 
 655:Lib/AI_Runtime/Npu/ll_aton/ll_aton_lib_sw_operators.c ****   if (input->nbits != output->nbits)
 3084              		.loc 1 655 12 is_stmt 1
 3085 0046 FB68     		ldr	r3, [r7, #12]
 3086 0048 93F82820 		ldrb	r2, [r3, #40]	@ zero_extendqisi2
 3087              		.loc 1 655 29
 3088 004c 7B68     		ldr	r3, [r7, #4]
 3089 004e 93F82830 		ldrb	r3, [r3, #40]	@ zero_extendqisi2
 3090              		.loc 1 655 6
 3091 0052 9A42     		cmp	r2, r3
 3092 0054 08D0     		beq	.L180
 656:Lib/AI_Runtime/Npu/ll_aton/ll_aton_lib_sw_operators.c ****   {
 657:Lib/AI_Runtime/Npu/ll_aton/ll_aton_lib_sw_operators.c ****     __LL_LIB_ERROR(_ERR_NBITS, LL_ATON_INVALID_PARAM);
 3093              		.loc 1 657 5
 3094 0056 714A     		ldr	r2, .L191
 3095 0058 40F29121 		movw	r1, #657
 3096 005c 0620     		movs	r0, #6
ARM GAS  /tmp/ccgnzMmM.s 			page 79


 3097 005e FFF7FEFF 		bl	__ll_lib_error
 3098              		.loc 1 657 5 is_stmt 0 discriminator 1
 3099 0062 6FF00103 		mvn	r3, #1
 3100              		.loc 1 657 5
 3101 0066 D4E0     		b	.L178
 3102              	.L180:
 658:Lib/AI_Runtime/Npu/ll_aton/ll_aton_lib_sw_operators.c ****   }
 659:Lib/AI_Runtime/Npu/ll_aton/ll_aton_lib_sw_operators.c **** 
 660:Lib/AI_Runtime/Npu/ll_aton/ll_aton_lib_sw_operators.c ****   if ((input->nbits < 8) || (input->nbits > 32))
 3103              		.loc 1 660 13 is_stmt 1
 3104 0068 FB68     		ldr	r3, [r7, #12]
 3105 006a 93F82830 		ldrb	r3, [r3, #40]	@ zero_extendqisi2
 3106              		.loc 1 660 6
 3107 006e 072B     		cmp	r3, #7
 3108 0070 04D9     		bls	.L181
 3109              		.loc 1 660 35 discriminator 1
 3110 0072 FB68     		ldr	r3, [r7, #12]
 3111 0074 93F82830 		ldrb	r3, [r3, #40]	@ zero_extendqisi2
 3112              		.loc 1 660 26 discriminator 1
 3113 0078 202B     		cmp	r3, #32
 3114 007a 08D9     		bls	.L182
 3115              	.L181:
 661:Lib/AI_Runtime/Npu/ll_aton/ll_aton_lib_sw_operators.c ****   {
 662:Lib/AI_Runtime/Npu/ll_aton/ll_aton_lib_sw_operators.c ****     __LL_LIB_ERROR(_ERR_NBITS, LL_ATON_INVALID_PARAM);
 3116              		.loc 1 662 5
 3117 007c 674A     		ldr	r2, .L191
 3118 007e 40F29621 		movw	r1, #662
 3119 0082 0620     		movs	r0, #6
 3120 0084 FFF7FEFF 		bl	__ll_lib_error
 3121              		.loc 1 662 5 is_stmt 0 discriminator 1
 3122 0088 6FF00103 		mvn	r3, #1
 3123              		.loc 1 662 5
 3124 008c C1E0     		b	.L178
 3125              	.L182:
 663:Lib/AI_Runtime/Npu/ll_aton/ll_aton_lib_sw_operators.c ****   }
 664:Lib/AI_Runtime/Npu/ll_aton/ll_aton_lib_sw_operators.c **** 
 665:Lib/AI_Runtime/Npu/ll_aton/ll_aton_lib_sw_operators.c ****   uint32_t N = input->shape[0];
 3126              		.loc 1 665 21 is_stmt 1
 3127 008e FB68     		ldr	r3, [r7, #12]
 3128 0090 DB6A     		ldr	r3, [r3, #44]
 3129              		.loc 1 665 12
 3130 0092 1B68     		ldr	r3, [r3]
 3131 0094 7B66     		str	r3, [r7, #100]
 666:Lib/AI_Runtime/Npu/ll_aton/ll_aton_lib_sw_operators.c ****   uint32_t C = input->shape[1];
 3132              		.loc 1 666 21
 3133 0096 FB68     		ldr	r3, [r7, #12]
 3134 0098 DB6A     		ldr	r3, [r3, #44]
 3135              		.loc 1 666 28
 3136 009a 0433     		adds	r3, r3, #4
 3137              		.loc 1 666 12
 3138 009c 1B68     		ldr	r3, [r3]
 3139 009e 3B66     		str	r3, [r7, #96]
 667:Lib/AI_Runtime/Npu/ll_aton/ll_aton_lib_sw_operators.c ****   uint32_t H = input->shape[2];
 3140              		.loc 1 667 21
 3141 00a0 FB68     		ldr	r3, [r7, #12]
 3142 00a2 DB6A     		ldr	r3, [r3, #44]
 3143              		.loc 1 667 28
ARM GAS  /tmp/ccgnzMmM.s 			page 80


 3144 00a4 0833     		adds	r3, r3, #8
 3145              		.loc 1 667 12
 3146 00a6 1B68     		ldr	r3, [r3]
 3147 00a8 FB65     		str	r3, [r7, #92]
 668:Lib/AI_Runtime/Npu/ll_aton/ll_aton_lib_sw_operators.c ****   uint32_t W = input->shape[3];
 3148              		.loc 1 668 21
 3149 00aa FB68     		ldr	r3, [r7, #12]
 3150 00ac DB6A     		ldr	r3, [r3, #44]
 3151              		.loc 1 668 28
 3152 00ae 0C33     		adds	r3, r3, #12
 3153              		.loc 1 668 12
 3154 00b0 1B68     		ldr	r3, [r3]
 3155 00b2 BB65     		str	r3, [r7, #88]
 669:Lib/AI_Runtime/Npu/ll_aton/ll_aton_lib_sw_operators.c **** 
 670:Lib/AI_Runtime/Npu/ll_aton/ll_aton_lib_sw_operators.c ****   int8_t *in_base = (int8_t *)LL_Buffer_addr_start(input);
