ARM GAS  /tmp/ccEo7NLA.s 			page 1


   1              		.arch armv8.1-m.main
   2              		.fpu fpv5-d16
   3              		.arch_extension dsp
   4              		.arch_extension fp
   5              		.arch_extension fp.dp
   6              		.arch_extension mve
   7              		.arch_extension mve.fp
   8              		.eabi_attribute 5, "cortex-m55"
   9              		.eabi_attribute 28, 1
  10              		.eabi_attribute 20, 1
  11              		.eabi_attribute 21, 1
  12              		.eabi_attribute 23, 3
  13              		.eabi_attribute 24, 1
  14              		.eabi_attribute 25, 1
  15              		.eabi_attribute 26, 1
  16              		.eabi_attribute 30, 6
  17              		.eabi_attribute 34, 1
  18              		.eabi_attribute 38, 1
  19              		.eabi_attribute 18, 4
  20              		.file	"ll_sw_float.c"
  21              		.text
  22              	.Ltext0:
  23              		.cfi_sections	.debug_frame
  24              		.file 1 "Lib/AI_Runtime/Npu/ll_aton/ll_sw_float.c"
  25              		.section	.text.ai_shape_get_size,"ax",%progbits
  26              		.align	1
  27              		.syntax unified
  28              		.thumb
  29              		.thumb_func
  31              	ai_shape_get_size:
  32              	.LFB6:
  33              		.file 2 "Lib/AI_Runtime/Inc/ai_datatypes_internal.h"
   1:Lib/AI_Runtime/Inc/ai_datatypes_internal.h **** /**
   2:Lib/AI_Runtime/Inc/ai_datatypes_internal.h ****   ******************************************************************************
   3:Lib/AI_Runtime/Inc/ai_datatypes_internal.h ****   * @file    ai_datatypes_internal.h
   4:Lib/AI_Runtime/Inc/ai_datatypes_internal.h ****   * @author  AST Embedded Analytics Research Platform
   5:Lib/AI_Runtime/Inc/ai_datatypes_internal.h ****   * @brief   Definitions of AI platform private APIs types
   6:Lib/AI_Runtime/Inc/ai_datatypes_internal.h ****   ******************************************************************************
   7:Lib/AI_Runtime/Inc/ai_datatypes_internal.h ****   * @attention
   8:Lib/AI_Runtime/Inc/ai_datatypes_internal.h ****   *
   9:Lib/AI_Runtime/Inc/ai_datatypes_internal.h ****   * Copyright (c) 2017 STMicroelectronics.
  10:Lib/AI_Runtime/Inc/ai_datatypes_internal.h ****   * All rights reserved.
  11:Lib/AI_Runtime/Inc/ai_datatypes_internal.h ****   *
  12:Lib/AI_Runtime/Inc/ai_datatypes_internal.h ****   * This software is licensed under terms that can be found in the LICENSE file
  13:Lib/AI_Runtime/Inc/ai_datatypes_internal.h ****   * in the root directory of this software component.
  14:Lib/AI_Runtime/Inc/ai_datatypes_internal.h ****   * If no LICENSE file comes with this software, it is provided AS-IS.
  15:Lib/AI_Runtime/Inc/ai_datatypes_internal.h ****   *
  16:Lib/AI_Runtime/Inc/ai_datatypes_internal.h ****   ******************************************************************************
  17:Lib/AI_Runtime/Inc/ai_datatypes_internal.h ****   */
  18:Lib/AI_Runtime/Inc/ai_datatypes_internal.h **** #ifndef AI_DATATYPES_INTERNAL_H
  19:Lib/AI_Runtime/Inc/ai_datatypes_internal.h **** #define AI_DATATYPES_INTERNAL_H
  20:Lib/AI_Runtime/Inc/ai_datatypes_internal.h **** 
  21:Lib/AI_Runtime/Inc/ai_datatypes_internal.h **** #include "ai_datatypes.h"
  22:Lib/AI_Runtime/Inc/ai_datatypes_internal.h **** #include "ai_datatypes_defines.h"
  23:Lib/AI_Runtime/Inc/ai_datatypes_internal.h **** 
  24:Lib/AI_Runtime/Inc/ai_datatypes_internal.h **** /*!
  25:Lib/AI_Runtime/Inc/ai_datatypes_internal.h ****  * @defgroup datatypes_internal Internal Datatypes
ARM GAS  /tmp/ccEo7NLA.s 			page 2


  26:Lib/AI_Runtime/Inc/ai_datatypes_internal.h ****  * @brief Data structures used internally to implement neural networks
  27:Lib/AI_Runtime/Inc/ai_datatypes_internal.h ****  *
  28:Lib/AI_Runtime/Inc/ai_datatypes_internal.h ****  * The layers are defined as structs; a generic layer type defines the basic
  29:Lib/AI_Runtime/Inc/ai_datatypes_internal.h ****  * layer parameters and type-specific parameters are handled by specializations
  30:Lib/AI_Runtime/Inc/ai_datatypes_internal.h ****  * implemented as a C union. The layers keep also a pointer to the parent
  31:Lib/AI_Runtime/Inc/ai_datatypes_internal.h ****  * network and the next layer in the network.
  32:Lib/AI_Runtime/Inc/ai_datatypes_internal.h ****  * The input, output and parameters are tensor with an hard-coded maximum
  33:Lib/AI_Runtime/Inc/ai_datatypes_internal.h ****  * dimension of 4. Tensors are floating point arrays with a notion of size.
  34:Lib/AI_Runtime/Inc/ai_datatypes_internal.h ****  * The network is a linked list of layers, and thus it stores only the pointer
  35:Lib/AI_Runtime/Inc/ai_datatypes_internal.h ****  * to the first layer.
  36:Lib/AI_Runtime/Inc/ai_datatypes_internal.h ****  */
  37:Lib/AI_Runtime/Inc/ai_datatypes_internal.h **** 
  38:Lib/AI_Runtime/Inc/ai_datatypes_internal.h **** /*!
  39:Lib/AI_Runtime/Inc/ai_datatypes_internal.h ****  * @section Offsets
  40:Lib/AI_Runtime/Inc/ai_datatypes_internal.h ****  * @ingroup datatypes_internal
  41:Lib/AI_Runtime/Inc/ai_datatypes_internal.h ****  * Macros to handle (byte) stride addressing on tensors. The `AI_PTR` macro
  42:Lib/AI_Runtime/Inc/ai_datatypes_internal.h ****  * is used to always cast a pointer to byte array. The macros `AI_OFFSET_X` are
  43:Lib/AI_Runtime/Inc/ai_datatypes_internal.h ****  * used to compute (byte) offsets of respectively adjacents row elements, col
  44:Lib/AI_Runtime/Inc/ai_datatypes_internal.h ****  * elements, channel elements and `channel_in` elements.
  45:Lib/AI_Runtime/Inc/ai_datatypes_internal.h ****  * @{
  46:Lib/AI_Runtime/Inc/ai_datatypes_internal.h ****  */
  47:Lib/AI_Runtime/Inc/ai_datatypes_internal.h **** 
  48:Lib/AI_Runtime/Inc/ai_datatypes_internal.h **** /*!  AI_STORAGE_KLASS SECTION              ************************************/
  49:Lib/AI_Runtime/Inc/ai_datatypes_internal.h **** #define AI_STORAGE_KLASS_TYPE(s_) \
  50:Lib/AI_Runtime/Inc/ai_datatypes_internal.h ****   ( (s_)->type )
  51:Lib/AI_Runtime/Inc/ai_datatypes_internal.h **** 
  52:Lib/AI_Runtime/Inc/ai_datatypes_internal.h **** #define AI_STORAGE_KLASS_SIZE(s_) \
  53:Lib/AI_Runtime/Inc/ai_datatypes_internal.h ****   ( (s_)->size )
  54:Lib/AI_Runtime/Inc/ai_datatypes_internal.h **** 
  55:Lib/AI_Runtime/Inc/ai_datatypes_internal.h **** #define AI_STORAGE_KLASS_DATA(s_, type_) \
  56:Lib/AI_Runtime/Inc/ai_datatypes_internal.h ****   ( (type_*)((s_)->data) )
  57:Lib/AI_Runtime/Inc/ai_datatypes_internal.h **** 
  58:Lib/AI_Runtime/Inc/ai_datatypes_internal.h **** #define AI_STORAGE_KLASS_COPY(dst_, dst_type_, src_, src_type_) \
  59:Lib/AI_Runtime/Inc/ai_datatypes_internal.h **** { \
  60:Lib/AI_Runtime/Inc/ai_datatypes_internal.h ****   AI_ASSERT(AI_STORAGE_KLASS_SIZE(src_)>=AI_STORAGE_KLASS_SIZE(dst_)) \
  61:Lib/AI_Runtime/Inc/ai_datatypes_internal.h ****   AI_STORAGE_KLASS_SIZE(dst_) = AI_STORAGE_KLASS_SIZE(src_); \
  62:Lib/AI_Runtime/Inc/ai_datatypes_internal.h ****   for (ai_size i=0; i<AI_STORAGE_KLASS_SIZE(dst_); i++ ) { \
  63:Lib/AI_Runtime/Inc/ai_datatypes_internal.h ****     AI_STORAGE_KLASS_DATA(dst_, dst_type_)[i] = \
  64:Lib/AI_Runtime/Inc/ai_datatypes_internal.h ****       AI_STORAGE_KLASS_DATA(src_, src_type_)[i]; \
  65:Lib/AI_Runtime/Inc/ai_datatypes_internal.h ****   } \
  66:Lib/AI_Runtime/Inc/ai_datatypes_internal.h **** }
  67:Lib/AI_Runtime/Inc/ai_datatypes_internal.h **** 
  68:Lib/AI_Runtime/Inc/ai_datatypes_internal.h **** #define AI_STORAGE_KLASS_DUMP(s_, pfx_, post_, fmt_, type_) \
  69:Lib/AI_Runtime/Inc/ai_datatypes_internal.h **** { \
  70:Lib/AI_Runtime/Inc/ai_datatypes_internal.h ****   AI_ASSERT(s_) \
  71:Lib/AI_Runtime/Inc/ai_datatypes_internal.h ****   AI_DEBUG_PRINT(pfx_, AI_STORAGE_KLASS_SIZE(s_)) \
  72:Lib/AI_Runtime/Inc/ai_datatypes_internal.h ****   for ( ai_u32 i=0; i<AI_STORAGE_KLASS_SIZE(s_); i++ ) { \
  73:Lib/AI_Runtime/Inc/ai_datatypes_internal.h ****     if ( (i % 8)==0 ) { AI_DEBUG_PRINT("\n      ") } \
  74:Lib/AI_Runtime/Inc/ai_datatypes_internal.h ****     AI_DEBUG_PRINT(fmt_, AI_STORAGE_KLASS_DATA(s_, type_)[i]) \
  75:Lib/AI_Runtime/Inc/ai_datatypes_internal.h ****   } \
  76:Lib/AI_Runtime/Inc/ai_datatypes_internal.h ****   AI_DEBUG_PRINT(post_) \
  77:Lib/AI_Runtime/Inc/ai_datatypes_internal.h **** }
  78:Lib/AI_Runtime/Inc/ai_datatypes_internal.h **** 
  79:Lib/AI_Runtime/Inc/ai_datatypes_internal.h **** /*!  AI_SHAPES SECTION                     ************************************/
  80:Lib/AI_Runtime/Inc/ai_datatypes_internal.h **** #define AI_SHAPE_2D_H(shape_) \
  81:Lib/AI_Runtime/Inc/ai_datatypes_internal.h ****   AI_SHAPE_ELEM(shape_, AI_SHAPE_2D_HEIGHT)
  82:Lib/AI_Runtime/Inc/ai_datatypes_internal.h **** 
ARM GAS  /tmp/ccEo7NLA.s 			page 3


  83:Lib/AI_Runtime/Inc/ai_datatypes_internal.h **** #define AI_SHAPE_2D_W(shape_) \
  84:Lib/AI_Runtime/Inc/ai_datatypes_internal.h ****   AI_SHAPE_ELEM(shape_, AI_SHAPE_2D_WIDTH)
  85:Lib/AI_Runtime/Inc/ai_datatypes_internal.h **** 
  86:Lib/AI_Runtime/Inc/ai_datatypes_internal.h **** #define AI_SHAPE_ELEM(shape_, pos_) \
  87:Lib/AI_Runtime/Inc/ai_datatypes_internal.h ****   AI_STORAGE_KLASS_DATA(shape_, ai_shape_dimension)[pos_]
  88:Lib/AI_Runtime/Inc/ai_datatypes_internal.h **** 
  89:Lib/AI_Runtime/Inc/ai_datatypes_internal.h **** #define AI_SHAPE_GET_ELEM(shape_, pos_) \
  90:Lib/AI_Runtime/Inc/ai_datatypes_internal.h ****   (((pos_) < AI_SHAPE_SIZE(shape_)) ? AI_SHAPE_ELEM(shape_, pos_) : 1)
  91:Lib/AI_Runtime/Inc/ai_datatypes_internal.h **** 
  92:Lib/AI_Runtime/Inc/ai_datatypes_internal.h **** #define AI_SHAPE_SET_ELEM(shape_, pos_, val_) \
  93:Lib/AI_Runtime/Inc/ai_datatypes_internal.h ****   if ((pos_) < AI_SHAPE_SIZE(shape_)) { AI_SHAPE_ELEM(shape_, pos_) = (val_); }
  94:Lib/AI_Runtime/Inc/ai_datatypes_internal.h **** 
  95:Lib/AI_Runtime/Inc/ai_datatypes_internal.h **** #define AI_SHAPE_TYPE(shape_) \
  96:Lib/AI_Runtime/Inc/ai_datatypes_internal.h ****   AI_STORAGE_KLASS_TYPE(shape_)
  97:Lib/AI_Runtime/Inc/ai_datatypes_internal.h **** 
  98:Lib/AI_Runtime/Inc/ai_datatypes_internal.h **** #define AI_SHAPE_SIZE(shape_) \
  99:Lib/AI_Runtime/Inc/ai_datatypes_internal.h ****   AI_STORAGE_KLASS_SIZE(shape_)
 100:Lib/AI_Runtime/Inc/ai_datatypes_internal.h **** 
 101:Lib/AI_Runtime/Inc/ai_datatypes_internal.h **** #define AI_SHAPE_CLONE(dst_, src_) \
 102:Lib/AI_Runtime/Inc/ai_datatypes_internal.h ****   AI_STORAGE_KLASS_COPY(dst_, ai_shape_dimension, src_, ai_shape_dimension)
 103:Lib/AI_Runtime/Inc/ai_datatypes_internal.h **** 
 104:Lib/AI_Runtime/Inc/ai_datatypes_internal.h **** #define AI_SHAPE_BCAST_CLONE(dst_, src_) \
 105:Lib/AI_Runtime/Inc/ai_datatypes_internal.h **** { \
 106:Lib/AI_Runtime/Inc/ai_datatypes_internal.h ****   for (ai_size i = 0; i < AI_SHAPE_SIZE(dst_); i++) { \
 107:Lib/AI_Runtime/Inc/ai_datatypes_internal.h ****     AI_SHAPE_SET_ELEM(dst_, i, AI_SHAPE_GET_ELEM(src_, i)); \
 108:Lib/AI_Runtime/Inc/ai_datatypes_internal.h ****   } \
 109:Lib/AI_Runtime/Inc/ai_datatypes_internal.h **** }
 110:Lib/AI_Runtime/Inc/ai_datatypes_internal.h **** 
 111:Lib/AI_Runtime/Inc/ai_datatypes_internal.h **** //#define AI_SHAPE_BATCH(shape_)      AI_SHAPE_ELEM((shape_), AI_SHAPE_BATCH_CHANNEL)
 112:Lib/AI_Runtime/Inc/ai_datatypes_internal.h **** #define AI_SHAPE_H(shape_)          AI_SHAPE_ELEM((shape_), AI_SHAPE_HEIGHT)
 113:Lib/AI_Runtime/Inc/ai_datatypes_internal.h **** #define AI_SHAPE_W(shape_)          AI_SHAPE_ELEM((shape_), AI_SHAPE_WIDTH)
 114:Lib/AI_Runtime/Inc/ai_datatypes_internal.h **** #define AI_SHAPE_CH(shape_)         AI_SHAPE_ELEM((shape_), AI_SHAPE_CHANNEL)
 115:Lib/AI_Runtime/Inc/ai_datatypes_internal.h **** #define AI_SHAPE_IN_CH(shape_)      AI_SHAPE_ELEM((shape_), AI_SHAPE_IN_CHANNEL)
 116:Lib/AI_Runtime/Inc/ai_datatypes_internal.h **** #define AI_SHAPE_D(shape_)          ((AI_SHAPE_SIZE((shape_)) > AI_SHAPE_DEPTH) \
 117:Lib/AI_Runtime/Inc/ai_datatypes_internal.h ****   ? AI_SHAPE_ELEM((shape_), AI_SHAPE_DEPTH) : 1)
 118:Lib/AI_Runtime/Inc/ai_datatypes_internal.h **** #define AI_SHAPE_E(shape_)          ((AI_SHAPE_SIZE((shape_)) > AI_SHAPE_EXTENSION) \
 119:Lib/AI_Runtime/Inc/ai_datatypes_internal.h ****   ? AI_SHAPE_ELEM((shape_), AI_SHAPE_EXTENSION) : 1)
 120:Lib/AI_Runtime/Inc/ai_datatypes_internal.h **** #define AI_SHAPE_T(shape_)          AI_SHAPE_ELEM((shape_), AI_SHAPE_TIME)
 121:Lib/AI_Runtime/Inc/ai_datatypes_internal.h **** 
 122:Lib/AI_Runtime/Inc/ai_datatypes_internal.h **** #define AI_CONV_SHAPE_H             AI_SHAPE_W
 123:Lib/AI_Runtime/Inc/ai_datatypes_internal.h **** #define AI_CONV_SHAPE_W             AI_SHAPE_CH
 124:Lib/AI_Runtime/Inc/ai_datatypes_internal.h **** #define AI_CONV_SHAPE_CH            AI_SHAPE_H
 125:Lib/AI_Runtime/Inc/ai_datatypes_internal.h **** #define AI_CONV_SHAPE_IN_CH         AI_SHAPE_IN_CH
 126:Lib/AI_Runtime/Inc/ai_datatypes_internal.h **** 
 127:Lib/AI_Runtime/Inc/ai_datatypes_internal.h **** /*!  AI_STRIDES SECTION                     ***********************************/
 128:Lib/AI_Runtime/Inc/ai_datatypes_internal.h **** #define AI_STRIDE_2D_H(stride_) \
 129:Lib/AI_Runtime/Inc/ai_datatypes_internal.h ****   AI_STRIDE_ELEM((stride_), AI_SHAPE_2D_HEIGHT)
 130:Lib/AI_Runtime/Inc/ai_datatypes_internal.h **** 
 131:Lib/AI_Runtime/Inc/ai_datatypes_internal.h **** #define AI_STRIDE_2D_W(stride_) \
 132:Lib/AI_Runtime/Inc/ai_datatypes_internal.h ****   AI_STRIDE_ELEM((stride_), AI_SHAPE_2D_WIDTH)
 133:Lib/AI_Runtime/Inc/ai_datatypes_internal.h **** 
 134:Lib/AI_Runtime/Inc/ai_datatypes_internal.h **** #define AI_STRIDE_ELEM(stride_, pos_) \
 135:Lib/AI_Runtime/Inc/ai_datatypes_internal.h ****   AI_STORAGE_KLASS_DATA(stride_, ai_stride_dimension)[pos_]
 136:Lib/AI_Runtime/Inc/ai_datatypes_internal.h **** 
 137:Lib/AI_Runtime/Inc/ai_datatypes_internal.h **** #define AI_STRIDE_GET_ELEM(stride_, pos_) \
 138:Lib/AI_Runtime/Inc/ai_datatypes_internal.h ****   (((pos_) < AI_STRIDE_SIZE(stride_)) ? AI_STRIDE_ELEM(stride_, pos_) : 0)
 139:Lib/AI_Runtime/Inc/ai_datatypes_internal.h **** 
ARM GAS  /tmp/ccEo7NLA.s 			page 4


 140:Lib/AI_Runtime/Inc/ai_datatypes_internal.h **** #define AI_STRIDE_SET_ELEM(stride_, pos_, val_) \
 141:Lib/AI_Runtime/Inc/ai_datatypes_internal.h ****   if ((pos_) < AI_STRIDE_SIZE(stride_)) AI_STRIDE_ELEM(stride_, pos_) = (val_);
 142:Lib/AI_Runtime/Inc/ai_datatypes_internal.h **** 
 143:Lib/AI_Runtime/Inc/ai_datatypes_internal.h **** #define AI_STRIDE_TYPE(stride_) \
 144:Lib/AI_Runtime/Inc/ai_datatypes_internal.h ****   AI_STORAGE_KLASS_TYPE(stride_)
 145:Lib/AI_Runtime/Inc/ai_datatypes_internal.h **** 
 146:Lib/AI_Runtime/Inc/ai_datatypes_internal.h **** #define AI_STRIDE_SIZE(stride_) \
 147:Lib/AI_Runtime/Inc/ai_datatypes_internal.h ****   AI_STORAGE_KLASS_SIZE(stride_)
 148:Lib/AI_Runtime/Inc/ai_datatypes_internal.h **** 
 149:Lib/AI_Runtime/Inc/ai_datatypes_internal.h **** #define AI_STRIDE_CLONE(dst_, src_) \
 150:Lib/AI_Runtime/Inc/ai_datatypes_internal.h ****   AI_STORAGE_KLASS_COPY(dst_, ai_stride_dimension, src_, ai_stride_dimension)
 151:Lib/AI_Runtime/Inc/ai_datatypes_internal.h **** 
 152:Lib/AI_Runtime/Inc/ai_datatypes_internal.h **** #define AI_STRIDE_BCAST_CLONE(dst_, src_) \
 153:Lib/AI_Runtime/Inc/ai_datatypes_internal.h **** { \
 154:Lib/AI_Runtime/Inc/ai_datatypes_internal.h ****   for (ai_size i=0; i<AI_STRIDE_SIZE(dst_); i++) { \
 155:Lib/AI_Runtime/Inc/ai_datatypes_internal.h ****     AI_STRIDE_SET_ELEM(dst_, i, AI_STRIDE_GET_ELEM(src_, i)); \
 156:Lib/AI_Runtime/Inc/ai_datatypes_internal.h ****   } \
 157:Lib/AI_Runtime/Inc/ai_datatypes_internal.h **** }
 158:Lib/AI_Runtime/Inc/ai_datatypes_internal.h **** 
 159:Lib/AI_Runtime/Inc/ai_datatypes_internal.h **** //#define AI_STRIDE_BATCH(stride)     AI_STRIDE_ELEM((stride), AI_SHAPE_BATCH_CHANNEL)
 160:Lib/AI_Runtime/Inc/ai_datatypes_internal.h **** #define AI_STRIDE_H(stride)         AI_STRIDE_ELEM((stride), AI_SHAPE_HEIGHT)
 161:Lib/AI_Runtime/Inc/ai_datatypes_internal.h **** #define AI_STRIDE_W(stride)         AI_STRIDE_ELEM((stride), AI_SHAPE_WIDTH)
 162:Lib/AI_Runtime/Inc/ai_datatypes_internal.h **** #define AI_STRIDE_CH(stride)        AI_STRIDE_ELEM((stride), AI_SHAPE_CHANNEL)
 163:Lib/AI_Runtime/Inc/ai_datatypes_internal.h **** #define AI_STRIDE_IN_CH(stride)     AI_STRIDE_ELEM((stride), AI_SHAPE_IN_CHANNEL)
 164:Lib/AI_Runtime/Inc/ai_datatypes_internal.h **** #define AI_STRIDE_D(stride)         ((AI_STRIDE_SIZE((stride)) >= 5) ? AI_STRIDE_ELEM((stride), AI_
 165:Lib/AI_Runtime/Inc/ai_datatypes_internal.h **** #define AI_STRIDE_E(stride)         ((AI_STRIDE_SIZE((stride)) == 6) ? AI_STRIDE_ELEM((stride), AI_
 166:Lib/AI_Runtime/Inc/ai_datatypes_internal.h **** #define AI_STRIDE_T(stride)         AI_STRIDE_ELEM((stride), AI_SHAPE_TIME)
 167:Lib/AI_Runtime/Inc/ai_datatypes_internal.h **** 
 168:Lib/AI_Runtime/Inc/ai_datatypes_internal.h **** #define AI_STRIDE_SET_H(stride, val)         AI_STRIDE_SET_ELEM((stride), AI_SHAPE_HEIGHT, val)
 169:Lib/AI_Runtime/Inc/ai_datatypes_internal.h **** #define AI_STRIDE_SET_W(stride, val)         AI_STRIDE_SET_ELEM((stride), AI_SHAPE_WIDTH, val)
 170:Lib/AI_Runtime/Inc/ai_datatypes_internal.h **** #define AI_STRIDE_SET_CH(stride, val)        AI_STRIDE_SET_ELEM((stride), AI_SHAPE_CHANNEL, val)
 171:Lib/AI_Runtime/Inc/ai_datatypes_internal.h **** #define AI_STRIDE_SET_IN_CH(stride, val)     AI_STRIDE_SET_ELEM((stride), AI_SHAPE_IN_CHANNEL, val)
 172:Lib/AI_Runtime/Inc/ai_datatypes_internal.h **** #define AI_STRIDE_SET_D(stride, val)         if (AI_STRIDE_SIZE((stride)) >= 5) AI_STRIDE_SET_ELEM(
 173:Lib/AI_Runtime/Inc/ai_datatypes_internal.h **** #define AI_STRIDE_SET_E(stride, val)         if (AI_STRIDE_SIZE((stride)) == 6) AI_STRIDE_SET_ELEM(
 174:Lib/AI_Runtime/Inc/ai_datatypes_internal.h **** 
 175:Lib/AI_Runtime/Inc/ai_datatypes_internal.h **** /*!  AI_TENSORS SECTION                     ***********************************/
 176:Lib/AI_Runtime/Inc/ai_datatypes_internal.h **** #define AI_TENSOR_KLASS(tensor_) \
 177:Lib/AI_Runtime/Inc/ai_datatypes_internal.h ****   ((tensor_) ? (tensor_)->klass : NULL)
 178:Lib/AI_Runtime/Inc/ai_datatypes_internal.h **** 
 179:Lib/AI_Runtime/Inc/ai_datatypes_internal.h **** #define AI_TENSOR_SHAPE(tensor_) \
 180:Lib/AI_Runtime/Inc/ai_datatypes_internal.h ****   (&((tensor_)->shape))
 181:Lib/AI_Runtime/Inc/ai_datatypes_internal.h **** 
 182:Lib/AI_Runtime/Inc/ai_datatypes_internal.h **** #define AI_TENSOR_STRIDE(tensor_) \
 183:Lib/AI_Runtime/Inc/ai_datatypes_internal.h ****   (&((tensor_)->stride))
 184:Lib/AI_Runtime/Inc/ai_datatypes_internal.h **** 
 185:Lib/AI_Runtime/Inc/ai_datatypes_internal.h **** #define AI_TENSOR_INFO(tensor_) \
 186:Lib/AI_Runtime/Inc/ai_datatypes_internal.h ****   (&((tensor_)->info))
 187:Lib/AI_Runtime/Inc/ai_datatypes_internal.h **** 
 188:Lib/AI_Runtime/Inc/ai_datatypes_internal.h **** #define AI_TENSOR_ARRAY(tensor_) \
 189:Lib/AI_Runtime/Inc/ai_datatypes_internal.h ****   ((tensor_) ? (tensor_)->data : NULL)
 190:Lib/AI_Runtime/Inc/ai_datatypes_internal.h **** 
 191:Lib/AI_Runtime/Inc/ai_datatypes_internal.h **** #define AI_TENSOR_ID(tensor_) \
 192:Lib/AI_Runtime/Inc/ai_datatypes_internal.h ****   ((tensor_) ? AI_TENSOR_INFO(tensor_)->id : 0)
 193:Lib/AI_Runtime/Inc/ai_datatypes_internal.h **** 
 194:Lib/AI_Runtime/Inc/ai_datatypes_internal.h **** #define AI_TENSOR_FLAGS(tensor_) \
 195:Lib/AI_Runtime/Inc/ai_datatypes_internal.h ****   ((tensor_) ? AI_TENSOR_INFO(tensor_)->flags : 0)
 196:Lib/AI_Runtime/Inc/ai_datatypes_internal.h **** 
ARM GAS  /tmp/ccEo7NLA.s 			page 5


 197:Lib/AI_Runtime/Inc/ai_datatypes_internal.h **** #define AI_TENSOR_DATA_SIZE(tensor_) \
 198:Lib/AI_Runtime/Inc/ai_datatypes_internal.h ****   ((tensor_) ? AI_TENSOR_INFO(tensor_)->data_size : 0)
 199:Lib/AI_Runtime/Inc/ai_datatypes_internal.h **** 
 200:Lib/AI_Runtime/Inc/ai_datatypes_internal.h **** /*!  AI_OFFSETS SECTION                     ***********************************/
 201:Lib/AI_Runtime/Inc/ai_datatypes_internal.h **** //#define AI_OFFSET_BATCH(b, stride)  ((ai_ptr_offset)(b)  * AI_STRIDE_BATCH(stride))
 202:Lib/AI_Runtime/Inc/ai_datatypes_internal.h **** #define AI_OFFSET_H(y, stride)      ((ai_ptr_offset)(y)  * AI_STRIDE_H(stride))
 203:Lib/AI_Runtime/Inc/ai_datatypes_internal.h **** #define AI_OFFSET_W(x, stride)      ((ai_ptr_offset)(x)  * AI_STRIDE_W(stride))
 204:Lib/AI_Runtime/Inc/ai_datatypes_internal.h **** #define AI_OFFSET_CH(ch, stride)    ((ai_ptr_offset)(ch) * AI_STRIDE_CH(stride))
 205:Lib/AI_Runtime/Inc/ai_datatypes_internal.h **** #define AI_OFFSET_IN_CH(in_ch, stride) ((ai_ptr_offset)(in_ch) * \
 206:Lib/AI_Runtime/Inc/ai_datatypes_internal.h ****                                       AI_STRIDE_IN_CH(stride))
 207:Lib/AI_Runtime/Inc/ai_datatypes_internal.h **** #define AI_OFFSET_D(d, stride)      ((ai_ptr_offset)(d) * AI_STRIDE_D(stride))
 208:Lib/AI_Runtime/Inc/ai_datatypes_internal.h **** #define AI_OFFSET_E(e, stride)      ((ai_ptr_offset)(e) * AI_STRIDE_E(stride))
 209:Lib/AI_Runtime/Inc/ai_datatypes_internal.h **** 
 210:Lib/AI_Runtime/Inc/ai_datatypes_internal.h **** #define AI_OFFSET_5D(y, x, d, e, ch, stride) ( \
 211:Lib/AI_Runtime/Inc/ai_datatypes_internal.h ****   AI_OFFSET_H((y), (stride)) + AI_OFFSET_W((x), (stride)) + \
 212:Lib/AI_Runtime/Inc/ai_datatypes_internal.h ****   AI_OFFSET_D((d), (stride)) + AI_OFFSET_E((e), (stride)) + \
 213:Lib/AI_Runtime/Inc/ai_datatypes_internal.h ****   AI_OFFSET_CH((ch), (stride)) )
 214:Lib/AI_Runtime/Inc/ai_datatypes_internal.h **** 
 215:Lib/AI_Runtime/Inc/ai_datatypes_internal.h **** #define AI_OFFSET(y, x, ch, z, stride) ( \
 216:Lib/AI_Runtime/Inc/ai_datatypes_internal.h ****   AI_OFFSET_H((y), (stride)) + AI_OFFSET_W((x), (stride)) + \
 217:Lib/AI_Runtime/Inc/ai_datatypes_internal.h ****   AI_OFFSET_CH((ch), (stride)) + \
 218:Lib/AI_Runtime/Inc/ai_datatypes_internal.h ****   ((AI_STRIDE_SIZE((stride)) == 4) ? AI_OFFSET_IN_CH((z), (stride)) : AI_OFFSET_D((z), (stride))) )
 219:Lib/AI_Runtime/Inc/ai_datatypes_internal.h **** 
 220:Lib/AI_Runtime/Inc/ai_datatypes_internal.h **** /*! @} */
 221:Lib/AI_Runtime/Inc/ai_datatypes_internal.h **** 
 222:Lib/AI_Runtime/Inc/ai_datatypes_internal.h **** #define AI_GET_CONV_OUT_SIZE(in_size, filt_size, pad_l, pad_r, filt_stride) \
 223:Lib/AI_Runtime/Inc/ai_datatypes_internal.h ****   ((((in_size) - (filt_size) + (pad_l) + (pad_r)) / (filt_stride)) + 1)
 224:Lib/AI_Runtime/Inc/ai_datatypes_internal.h **** 
 225:Lib/AI_Runtime/Inc/ai_datatypes_internal.h **** 
 226:Lib/AI_Runtime/Inc/ai_datatypes_internal.h **** /** Tensors datatypes defines handlers ****************************************/
 227:Lib/AI_Runtime/Inc/ai_datatypes_internal.h **** #define AI_TENSOR_SIZE(tensor_) \
 228:Lib/AI_Runtime/Inc/ai_datatypes_internal.h ****   get_tensor_size(tensor_, true)
 229:Lib/AI_Runtime/Inc/ai_datatypes_internal.h **** 
 230:Lib/AI_Runtime/Inc/ai_datatypes_internal.h **** #define AI_TENSOR_SIZE_UNPAD(tensor_) \
 231:Lib/AI_Runtime/Inc/ai_datatypes_internal.h ****   get_tensor_size(tensor_, false)
 232:Lib/AI_Runtime/Inc/ai_datatypes_internal.h **** 
 233:Lib/AI_Runtime/Inc/ai_datatypes_internal.h **** #define AI_TENSOR_BYTE_SIZE(tensor_) \
 234:Lib/AI_Runtime/Inc/ai_datatypes_internal.h ****   get_tensor_byte_size(tensor_)
 235:Lib/AI_Runtime/Inc/ai_datatypes_internal.h **** 
 236:Lib/AI_Runtime/Inc/ai_datatypes_internal.h **** 
 237:Lib/AI_Runtime/Inc/ai_datatypes_internal.h **** /******************************************************************************/
 238:Lib/AI_Runtime/Inc/ai_datatypes_internal.h **** #define AI_PLATFORM_VERSION_INIT(major_, minor_, micro_) \
 239:Lib/AI_Runtime/Inc/ai_datatypes_internal.h ****   { .major = (major_), .minor = (minor_), .micro = (micro_), .reserved = 0x0 }
 240:Lib/AI_Runtime/Inc/ai_datatypes_internal.h **** 
 241:Lib/AI_Runtime/Inc/ai_datatypes_internal.h **** 
 242:Lib/AI_Runtime/Inc/ai_datatypes_internal.h **** /** Integer tensor info extraction ********************************************/
 243:Lib/AI_Runtime/Inc/ai_datatypes_internal.h **** #define AI_INTQ_INFO_LIST_SCALE_ARRAY(list_, type_) \
 244:Lib/AI_Runtime/Inc/ai_datatypes_internal.h ****   ( ((list_) && (list_)->info) \
 245:Lib/AI_Runtime/Inc/ai_datatypes_internal.h ****     ? ((type_*)((list_)->info->scale)) : NULL )
 246:Lib/AI_Runtime/Inc/ai_datatypes_internal.h **** 
 247:Lib/AI_Runtime/Inc/ai_datatypes_internal.h **** #define AI_INTQ_INFO_LIST_ZEROPOINT_ARRAY(list_, type_) \
 248:Lib/AI_Runtime/Inc/ai_datatypes_internal.h ****   ( ((list_) && (list_)->info) \
 249:Lib/AI_Runtime/Inc/ai_datatypes_internal.h ****     ? ((type_*)((list_)->info->zeropoint)) : NULL )
 250:Lib/AI_Runtime/Inc/ai_datatypes_internal.h **** 
 251:Lib/AI_Runtime/Inc/ai_datatypes_internal.h **** #define AI_KLASS_GET_INTQ_INFO_LIST(tensor_) \
 252:Lib/AI_Runtime/Inc/ai_datatypes_internal.h ****   ((ai_intq_info_list*)((tensor_)->klass))
 253:Lib/AI_Runtime/Inc/ai_datatypes_internal.h **** 
ARM GAS  /tmp/ccEo7NLA.s 			page 6


 254:Lib/AI_Runtime/Inc/ai_datatypes_internal.h **** 
 255:Lib/AI_Runtime/Inc/ai_datatypes_internal.h **** AI_API_DECLARE_BEGIN
 256:Lib/AI_Runtime/Inc/ai_datatypes_internal.h **** 
 257:Lib/AI_Runtime/Inc/ai_datatypes_internal.h **** /*!
 258:Lib/AI_Runtime/Inc/ai_datatypes_internal.h ****  * @brief Check whether 2 shapes have identical dimensions.
 259:Lib/AI_Runtime/Inc/ai_datatypes_internal.h ****  * @ingroup datatypes_internal
 260:Lib/AI_Runtime/Inc/ai_datatypes_internal.h ****  * @param shape0 the 1st tensor shape to compare
 261:Lib/AI_Runtime/Inc/ai_datatypes_internal.h ****  * @param shape1 the 2nd tensor shape to compare
 262:Lib/AI_Runtime/Inc/ai_datatypes_internal.h ****  * @return true if shape0 and shape1 have same dimensions. false otherwise
 263:Lib/AI_Runtime/Inc/ai_datatypes_internal.h ****  */
 264:Lib/AI_Runtime/Inc/ai_datatypes_internal.h **** AI_DECLARE_STATIC
 265:Lib/AI_Runtime/Inc/ai_datatypes_internal.h **** ai_bool ai_shape_is_same(
 266:Lib/AI_Runtime/Inc/ai_datatypes_internal.h ****   const ai_shape* shape0, const ai_shape* shape1)
 267:Lib/AI_Runtime/Inc/ai_datatypes_internal.h **** {
 268:Lib/AI_Runtime/Inc/ai_datatypes_internal.h ****   AI_ASSERT(shape0 && shape1)
 269:Lib/AI_Runtime/Inc/ai_datatypes_internal.h ****   if (AI_SHAPE_SIZE(shape0) != AI_SHAPE_SIZE(shape1))
 270:Lib/AI_Runtime/Inc/ai_datatypes_internal.h ****     return false;
 271:Lib/AI_Runtime/Inc/ai_datatypes_internal.h ****   ai_size dim = AI_SHAPE_SIZE(shape0);
 272:Lib/AI_Runtime/Inc/ai_datatypes_internal.h ****   while ( dim>0 ) {
 273:Lib/AI_Runtime/Inc/ai_datatypes_internal.h ****     dim--;
 274:Lib/AI_Runtime/Inc/ai_datatypes_internal.h ****     if ( AI_SHAPE_ELEM(shape0, dim)!=AI_SHAPE_ELEM(shape1, dim) )
 275:Lib/AI_Runtime/Inc/ai_datatypes_internal.h ****       return false;
 276:Lib/AI_Runtime/Inc/ai_datatypes_internal.h ****   }
 277:Lib/AI_Runtime/Inc/ai_datatypes_internal.h ****   return true;
 278:Lib/AI_Runtime/Inc/ai_datatypes_internal.h **** }
 279:Lib/AI_Runtime/Inc/ai_datatypes_internal.h **** 
 280:Lib/AI_Runtime/Inc/ai_datatypes_internal.h **** 
 281:Lib/AI_Runtime/Inc/ai_datatypes_internal.h **** /*!
 282:Lib/AI_Runtime/Inc/ai_datatypes_internal.h ****  * @brief Check whether the shapes is 1*1*1... for a scalar value content.
 283:Lib/AI_Runtime/Inc/ai_datatypes_internal.h ****  * @ingroup datatypes_internal
 284:Lib/AI_Runtime/Inc/ai_datatypes_internal.h ****  * @param shape the tensor shape to evaluate
 285:Lib/AI_Runtime/Inc/ai_datatypes_internal.h ****  * @return true if shape0 is scalar false otherwise
 286:Lib/AI_Runtime/Inc/ai_datatypes_internal.h ****  */
 287:Lib/AI_Runtime/Inc/ai_datatypes_internal.h **** AI_DECLARE_STATIC
 288:Lib/AI_Runtime/Inc/ai_datatypes_internal.h **** ai_bool ai_shape_is_scalar(
 289:Lib/AI_Runtime/Inc/ai_datatypes_internal.h ****   const ai_shape* shape0)
 290:Lib/AI_Runtime/Inc/ai_datatypes_internal.h **** {
 291:Lib/AI_Runtime/Inc/ai_datatypes_internal.h ****   ai_size dim = AI_SHAPE_SIZE(shape0);
 292:Lib/AI_Runtime/Inc/ai_datatypes_internal.h ****   while (dim>0) {
 293:Lib/AI_Runtime/Inc/ai_datatypes_internal.h ****     dim--;
 294:Lib/AI_Runtime/Inc/ai_datatypes_internal.h ****     if (AI_SHAPE_ELEM(shape0, dim) != 1)
 295:Lib/AI_Runtime/Inc/ai_datatypes_internal.h ****       return false;
 296:Lib/AI_Runtime/Inc/ai_datatypes_internal.h ****   }
 297:Lib/AI_Runtime/Inc/ai_datatypes_internal.h ****   return true;
 298:Lib/AI_Runtime/Inc/ai_datatypes_internal.h **** }
 299:Lib/AI_Runtime/Inc/ai_datatypes_internal.h **** 
 300:Lib/AI_Runtime/Inc/ai_datatypes_internal.h **** 
 301:Lib/AI_Runtime/Inc/ai_datatypes_internal.h **** /*!
 302:Lib/AI_Runtime/Inc/ai_datatypes_internal.h ****  * @brief Check if shape0 is a subshape of shape1
 303:Lib/AI_Runtime/Inc/ai_datatypes_internal.h ****  * @ingroup datatypes_internal
 304:Lib/AI_Runtime/Inc/ai_datatypes_internal.h ****  * @param shape0 the 1st tensor shape to compare
 305:Lib/AI_Runtime/Inc/ai_datatypes_internal.h ****  * @param shape1 the 2nd tensor shape to compare
 306:Lib/AI_Runtime/Inc/ai_datatypes_internal.h ****  * @return true if shape0 is a subshape of shape1 (all shape0 dimensions are
 307:Lib/AI_Runtime/Inc/ai_datatypes_internal.h **** *  smallers or equal of the shape1 ones). false otherwise
 308:Lib/AI_Runtime/Inc/ai_datatypes_internal.h ****  */
 309:Lib/AI_Runtime/Inc/ai_datatypes_internal.h **** AI_DECLARE_STATIC
 310:Lib/AI_Runtime/Inc/ai_datatypes_internal.h **** ai_bool ai_shape_is_subshape(
ARM GAS  /tmp/ccEo7NLA.s 			page 7


 311:Lib/AI_Runtime/Inc/ai_datatypes_internal.h ****   const ai_shape* shape0, const ai_shape* shape1)
 312:Lib/AI_Runtime/Inc/ai_datatypes_internal.h **** {
 313:Lib/AI_Runtime/Inc/ai_datatypes_internal.h ****   AI_ASSERT(shape0 && shape1)
 314:Lib/AI_Runtime/Inc/ai_datatypes_internal.h ****   AI_ASSERT(AI_SHAPE_SIZE(shape0)==AI_SHAPE_SIZE(shape1))
 315:Lib/AI_Runtime/Inc/ai_datatypes_internal.h ****   ai_size dim = AI_SHAPE_SIZE(shape0);
 316:Lib/AI_Runtime/Inc/ai_datatypes_internal.h ****   while (dim) {
 317:Lib/AI_Runtime/Inc/ai_datatypes_internal.h ****     dim--;
 318:Lib/AI_Runtime/Inc/ai_datatypes_internal.h ****     if ( AI_SHAPE_ELEM(shape0, dim)>AI_SHAPE_ELEM(shape1, dim) )
 319:Lib/AI_Runtime/Inc/ai_datatypes_internal.h ****       return false;
 320:Lib/AI_Runtime/Inc/ai_datatypes_internal.h ****   }
 321:Lib/AI_Runtime/Inc/ai_datatypes_internal.h ****   return true;
 322:Lib/AI_Runtime/Inc/ai_datatypes_internal.h **** }
 323:Lib/AI_Runtime/Inc/ai_datatypes_internal.h **** 
 324:Lib/AI_Runtime/Inc/ai_datatypes_internal.h **** /*!
 325:Lib/AI_Runtime/Inc/ai_datatypes_internal.h ****  * @brief Computes the total size of a tensor given its dimensions.
 326:Lib/AI_Runtime/Inc/ai_datatypes_internal.h ****  * @ingroup datatypes_internal
 327:Lib/AI_Runtime/Inc/ai_datatypes_internal.h ****  * @param shape the tensor shape
 328:Lib/AI_Runtime/Inc/ai_datatypes_internal.h ****  */
 329:Lib/AI_Runtime/Inc/ai_datatypes_internal.h **** AI_DECLARE_STATIC
 330:Lib/AI_Runtime/Inc/ai_datatypes_internal.h **** ai_size ai_shape_get_size(const ai_shape* shape)
 331:Lib/AI_Runtime/Inc/ai_datatypes_internal.h **** {
  34              		.loc 2 331 1
  35              		.cfi_startproc
  36              		@ args = 0, pretend = 0, frame = 16
  37              		@ frame_needed = 1, uses_anonymous_args = 0
  38              		@ link register save eliminated.
  39 0000 80B4     		push	{r7}
  40              		.cfi_def_cfa_offset 4
  41              		.cfi_offset 7, -4
  42 0002 85B0     		sub	sp, sp, #20
  43              		.cfi_def_cfa_offset 24
  44 0004 00AF     		add	r7, sp, #0
  45              		.cfi_def_cfa_register 7
  46 0006 7860     		str	r0, [r7, #4]
 332:Lib/AI_Runtime/Inc/ai_datatypes_internal.h ****   AI_ASSERT(shape)
 333:Lib/AI_Runtime/Inc/ai_datatypes_internal.h ****   ai_size dim = AI_SHAPE_SIZE(shape);
  47              		.loc 2 333 17
  48 0008 7B68     		ldr	r3, [r7, #4]
  49 000a 1B68     		ldr	r3, [r3]
  50 000c C3F31723 		ubfx	r3, r3, #8, #24
  51              		.loc 2 333 11
  52 0010 FB60     		str	r3, [r7, #12]
 334:Lib/AI_Runtime/Inc/ai_datatypes_internal.h ****   AI_ASSERT(dim > 0)
 335:Lib/AI_Runtime/Inc/ai_datatypes_internal.h ****   ai_size size = 1;
  53              		.loc 2 335 11
  54 0012 0123     		movs	r3, #1
  55 0014 BB60     		str	r3, [r7, #8]
 336:Lib/AI_Runtime/Inc/ai_datatypes_internal.h ****   while (dim>0) {
  56              		.loc 2 336 9
  57 0016 0CE0     		b	.L2
  58              	.L3:
 337:Lib/AI_Runtime/Inc/ai_datatypes_internal.h ****     dim--;
  59              		.loc 2 337 8
  60 0018 FB68     		ldr	r3, [r7, #12]
  61 001a 013B     		subs	r3, r3, #1
  62 001c FB60     		str	r3, [r7, #12]
 338:Lib/AI_Runtime/Inc/ai_datatypes_internal.h ****     size *= AI_SHAPE_ELEM(shape, dim);
ARM GAS  /tmp/ccEo7NLA.s 			page 8


  63              		.loc 2 338 13
  64 001e 7B68     		ldr	r3, [r7, #4]
  65 0020 5A68     		ldr	r2, [r3, #4]
  66 0022 FB68     		ldr	r3, [r7, #12]
  67 0024 9B00     		lsls	r3, r3, #2
  68 0026 1344     		add	r3, r3, r2
  69 0028 1A68     		ldr	r2, [r3]
  70              		.loc 2 338 10
  71 002a BB68     		ldr	r3, [r7, #8]
  72 002c 02FB03F3 		mul	r3, r2, r3
  73 0030 BB60     		str	r3, [r7, #8]
  74              	.L2:
 336:Lib/AI_Runtime/Inc/ai_datatypes_internal.h ****   while (dim>0) {
  75              		.loc 2 336 13
  76 0032 FB68     		ldr	r3, [r7, #12]
  77 0034 002B     		cmp	r3, #0
  78 0036 EFD1     		bne	.L3
 339:Lib/AI_Runtime/Inc/ai_datatypes_internal.h ****   }
 340:Lib/AI_Runtime/Inc/ai_datatypes_internal.h ****   return size;
  79              		.loc 2 340 10
  80 0038 BB68     		ldr	r3, [r7, #8]
 341:Lib/AI_Runtime/Inc/ai_datatypes_internal.h **** }
  81              		.loc 2 341 1
  82 003a 1846     		mov	r0, r3
  83 003c 1437     		adds	r7, r7, #20
  84              		.cfi_def_cfa_offset 4
  85 003e BD46     		mov	sp, r7
  86              		.cfi_def_cfa_register 13
  87              		@ sp needed
  88 0040 5DF8047B 		ldr	r7, [sp], #4
  89              		.cfi_restore 7
  90              		.cfi_def_cfa_offset 0
  91 0044 7047     		bx	lr
  92              		.cfi_endproc
  93              	.LFE6:
  95              		.section	.text.helper_emit_shape_index_axis,"ax",%progbits
  96              		.align	1
  97              		.syntax unified
  98              		.thumb
  99              		.thumb_func
 101              	helper_emit_shape_index_axis:
 102              	.LFB14:
   1:Lib/AI_Runtime/Npu/ll_aton/ll_sw_float.c **** /**
   2:Lib/AI_Runtime/Npu/ll_aton/ll_sw_float.c ****  ******************************************************************************
   3:Lib/AI_Runtime/Npu/ll_aton/ll_sw_float.c ****  * @file    ll_sw_float.c
   4:Lib/AI_Runtime/Npu/ll_aton/ll_sw_float.c ****  * @author  SRA Artificial Intelligence & Embedded Architectures
   5:Lib/AI_Runtime/Npu/ll_aton/ll_sw_float.c ****  * @brief   Low Level Software library for Floating Point inference interfacing with EmbedNets(c)
   6:Lib/AI_Runtime/Npu/ll_aton/ll_sw_float.c ****  ******************************************************************************
   7:Lib/AI_Runtime/Npu/ll_aton/ll_sw_float.c ****  * @attention
   8:Lib/AI_Runtime/Npu/ll_aton/ll_sw_float.c ****  *
   9:Lib/AI_Runtime/Npu/ll_aton/ll_sw_float.c ****  * Copyright (c) 2024 STMicroelectronics.
  10:Lib/AI_Runtime/Npu/ll_aton/ll_sw_float.c ****  * All rights reserved.
  11:Lib/AI_Runtime/Npu/ll_aton/ll_sw_float.c ****  *
  12:Lib/AI_Runtime/Npu/ll_aton/ll_sw_float.c ****  * This software is licensed under terms that can be found in the LICENSE file
  13:Lib/AI_Runtime/Npu/ll_aton/ll_sw_float.c ****  * in the root directory of this software component.
  14:Lib/AI_Runtime/Npu/ll_aton/ll_sw_float.c ****  * If no LICENSE file comes with this software, it is provided AS-IS.
  15:Lib/AI_Runtime/Npu/ll_aton/ll_sw_float.c ****  *
ARM GAS  /tmp/ccEo7NLA.s 			page 9


  16:Lib/AI_Runtime/Npu/ll_aton/ll_sw_float.c ****  ******************************************************************************
  17:Lib/AI_Runtime/Npu/ll_aton/ll_sw_float.c ****  */
  18:Lib/AI_Runtime/Npu/ll_aton/ll_sw_float.c **** 
  19:Lib/AI_Runtime/Npu/ll_aton/ll_sw_float.c **** #include "ll_aton_config.h"
  20:Lib/AI_Runtime/Npu/ll_aton/ll_sw_float.c **** 
  21:Lib/AI_Runtime/Npu/ll_aton/ll_sw_float.c **** #if LL_ATON_SW_FALLBACK == 1
  22:Lib/AI_Runtime/Npu/ll_aton/ll_sw_float.c **** 
  23:Lib/AI_Runtime/Npu/ll_aton/ll_sw_float.c **** #include <assert.h>
  24:Lib/AI_Runtime/Npu/ll_aton/ll_sw_float.c **** #include <stdint.h>
  25:Lib/AI_Runtime/Npu/ll_aton/ll_sw_float.c **** #include <stdio.h>
  26:Lib/AI_Runtime/Npu/ll_aton/ll_sw_float.c **** 
  27:Lib/AI_Runtime/Npu/ll_aton/ll_sw_float.c **** #include "ll_sw.h"
  28:Lib/AI_Runtime/Npu/ll_aton/ll_sw_float.c **** #include "ll_sw_float.h"
  29:Lib/AI_Runtime/Npu/ll_aton/ll_sw_float.c **** 
  30:Lib/AI_Runtime/Npu/ll_aton/ll_sw_float.c **** #include "ai_datatypes_internal.h"
  31:Lib/AI_Runtime/Npu/ll_aton/ll_sw_float.c **** #include "ai_math_helpers.h"
  32:Lib/AI_Runtime/Npu/ll_aton/ll_sw_float.c **** #include "core_private.h"
  33:Lib/AI_Runtime/Npu/ll_aton/ll_sw_float.c **** #include "layers.h"
  34:Lib/AI_Runtime/Npu/ll_aton/ll_sw_float.c **** #include "ll_aton_util.h"
  35:Lib/AI_Runtime/Npu/ll_aton/ll_sw_float.c **** 
  36:Lib/AI_Runtime/Npu/ll_aton/ll_sw_float.c **** #define FORMAT AI_ARRAY_FORMAT_FLOAT
  37:Lib/AI_Runtime/Npu/ll_aton/ll_sw_float.c **** 
  38:Lib/AI_Runtime/Npu/ll_aton/ll_sw_float.c **** #define SHAPE_INIT(a_, b_, c_, d_) AI_SHAPE_INIT(4, (d_), (c_), (b_), (a_))
  39:Lib/AI_Runtime/Npu/ll_aton/ll_sw_float.c **** 
  40:Lib/AI_Runtime/Npu/ll_aton/ll_sw_float.c **** #define SHAPE_2D_INIT(h_, w_) AI_SHAPE_2D_INIT((w_), (h_))
  41:Lib/AI_Runtime/Npu/ll_aton/ll_sw_float.c **** 
  42:Lib/AI_Runtime/Npu/ll_aton/ll_sw_float.c **** #define STRIDE_INIT(a_, b_, c_, d_) AI_STRIDE_INIT(4, (d_), (c_), (b_), (a_))
  43:Lib/AI_Runtime/Npu/ll_aton/ll_sw_float.c **** 
  44:Lib/AI_Runtime/Npu/ll_aton/ll_sw_float.c **** #define TENSORS(...) __VA_ARGS__
  45:Lib/AI_Runtime/Npu/ll_aton/ll_sw_float.c **** 
  46:Lib/AI_Runtime/Npu/ll_aton/ll_sw_float.c **** /* Managing shape index to be consistent with the enum in embednets ai_platform.h */
  47:Lib/AI_Runtime/Npu/ll_aton/ll_sw_float.c **** static int helper_emit_shape_index_axis(int onnx_axis)
  48:Lib/AI_Runtime/Npu/ll_aton/ll_sw_float.c **** {
 103              		.loc 1 48 1
 104              		.cfi_startproc
 105              		@ args = 0, pretend = 0, frame = 8
 106              		@ frame_needed = 1, uses_anonymous_args = 0
 107              		@ link register save eliminated.
 108 0000 80B4     		push	{r7}
 109              		.cfi_def_cfa_offset 4
 110              		.cfi_offset 7, -4
 111 0002 83B0     		sub	sp, sp, #12
 112              		.cfi_def_cfa_offset 16
 113 0004 00AF     		add	r7, sp, #0
 114              		.cfi_def_cfa_register 7
 115 0006 7860     		str	r0, [r7, #4]
  49:Lib/AI_Runtime/Npu/ll_aton/ll_sw_float.c ****   switch (onnx_axis)
 116              		.loc 1 49 3
 117 0008 7B68     		ldr	r3, [r7, #4]
 118 000a 032B     		cmp	r3, #3
 119 000c 12D8     		bhi	.L6
 120 000e 01A2     		adr	r2, .L8
 121 0010 52F823F0 		ldr	pc, [r2, r3, lsl #2]
 122              		.p2align 2
 123              	.L8:
 124 0014 25000000 		.word	.L11+1
 125 0018 29000000 		.word	.L10+1
ARM GAS  /tmp/ccEo7NLA.s 			page 10


 126 001c 2D000000 		.word	.L9+1
 127 0020 31000000 		.word	.L7+1
 128              		.p2align 1
 129              	.L11:
  50:Lib/AI_Runtime/Npu/ll_aton/ll_sw_float.c ****   {
  51:Lib/AI_Runtime/Npu/ll_aton/ll_sw_float.c ****   case 0:
  52:Lib/AI_Runtime/Npu/ll_aton/ll_sw_float.c ****     return AI_SHAPE_IN_CHANNEL;
 130              		.loc 1 52 12
 131 0024 0023     		movs	r3, #0
 132 0026 07E0     		b	.L12
 133              	.L10:
  53:Lib/AI_Runtime/Npu/ll_aton/ll_sw_float.c ****   case 1:
  54:Lib/AI_Runtime/Npu/ll_aton/ll_sw_float.c ****     return AI_SHAPE_CHANNEL;
 134              		.loc 1 54 12
 135 0028 0123     		movs	r3, #1
 136 002a 05E0     		b	.L12
 137              	.L9:
  55:Lib/AI_Runtime/Npu/ll_aton/ll_sw_float.c ****   case 2:
  56:Lib/AI_Runtime/Npu/ll_aton/ll_sw_float.c ****     return AI_SHAPE_HEIGHT; // note the switch required with case 3
 138              		.loc 1 56 12
 139 002c 0323     		movs	r3, #3
 140 002e 03E0     		b	.L12
 141              	.L7:
  57:Lib/AI_Runtime/Npu/ll_aton/ll_sw_float.c ****   case 3:
  58:Lib/AI_Runtime/Npu/ll_aton/ll_sw_float.c ****     return AI_SHAPE_WIDTH; // note the switch required with case 2
 142              		.loc 1 58 12
 143 0030 0223     		movs	r3, #2
 144 0032 01E0     		b	.L12
 145              	.L6:
  59:Lib/AI_Runtime/Npu/ll_aton/ll_sw_float.c ****   default:
  60:Lib/AI_Runtime/Npu/ll_aton/ll_sw_float.c **** #ifdef LL_SW_ENABLE_ASSERTS
  61:Lib/AI_Runtime/Npu/ll_aton/ll_sw_float.c ****     LL_ATON_ASSERT(0 && "axis index not supported");
  62:Lib/AI_Runtime/Npu/ll_aton/ll_sw_float.c **** #endif
  63:Lib/AI_Runtime/Npu/ll_aton/ll_sw_float.c ****     return -1;
 146              		.loc 1 63 12
 147 0034 4FF0FF33 		mov	r3, #-1
 148              	.L12:
  64:Lib/AI_Runtime/Npu/ll_aton/ll_sw_float.c ****   }
  65:Lib/AI_Runtime/Npu/ll_aton/ll_sw_float.c **** }
 149              		.loc 1 65 1
 150 0038 1846     		mov	r0, r3
 151 003a 0C37     		adds	r7, r7, #12
 152              		.cfi_def_cfa_offset 4
 153 003c BD46     		mov	sp, r7
 154              		.cfi_def_cfa_register 13
 155              		@ sp needed
 156 003e 5DF8047B 		ldr	r7, [sp], #4
 157              		.cfi_restore 7
 158              		.cfi_def_cfa_offset 0
 159 0042 7047     		bx	lr
 160              		.cfi_endproc
 161              	.LFE14:
 163              		.section	.text.ll_sw_forward_conv,"ax",%progbits
 164              		.align	1
 165              		.global	ll_sw_forward_conv
 166              		.syntax unified
 167              		.thumb
ARM GAS  /tmp/ccEo7NLA.s 			page 11


 168              		.thumb_func
 170              	ll_sw_forward_conv:
 171              	.LFB15:
  66:Lib/AI_Runtime/Npu/ll_aton/ll_sw_float.c **** 
  67:Lib/AI_Runtime/Npu/ll_aton/ll_sw_float.c **** //##########################################################################################
  68:Lib/AI_Runtime/Npu/ll_aton/ll_sw_float.c **** /** Conv forward function */
  69:Lib/AI_Runtime/Npu/ll_aton/ll_sw_float.c **** void ll_sw_forward_conv(/* int processor, */ void *sw_info_struct)
  70:Lib/AI_Runtime/Npu/ll_aton/ll_sw_float.c **** {
 172              		.loc 1 70 1
 173              		.cfi_startproc
 174              		@ args = 0, pretend = 0, frame = 536
 175              		@ frame_needed = 1, uses_anonymous_args = 0
 176 0000 80B5     		push	{r7, lr}
 177              		.cfi_def_cfa_offset 8
 178              		.cfi_offset 7, -8
 179              		.cfi_offset 14, -4
 180 0002 ADF5067D 		sub	sp, sp, #536
 181              		.cfi_def_cfa_offset 544
 182 0006 00AF     		add	r7, sp, #0
 183              		.cfi_def_cfa_register 7
 184 0008 07F50673 		add	r3, r7, #536
 185 000c A3F50573 		sub	r3, r3, #532
 186 0010 1860     		str	r0, [r3]
  71:Lib/AI_Runtime/Npu/ll_aton/ll_sw_float.c ****   Conv_sw_info *sw_info = (Conv_sw_info *)sw_info_struct;
 187              		.loc 1 71 17
 188 0012 07F50673 		add	r3, r7, #536
 189 0016 A3F50573 		sub	r3, r3, #532
 190 001a 1B68     		ldr	r3, [r3]
 191 001c C7F81432 		str	r3, [r7, #532]
  72:Lib/AI_Runtime/Npu/ll_aton/ll_sw_float.c ****   // array init
  73:Lib/AI_Runtime/Npu/ll_aton/ll_sw_float.c ****   AI_ARRAY_OBJ_DECLARE(input_output_array, FORMAT, sw_info->general.input.mem.start_offset,
 192              		.loc 1 73 3
 193 0020 E54B     		ldr	r3, .L17
 194 0022 C7F80432 		str	r3, [r7, #516]
 195 0026 D7F81432 		ldr	r3, [r7, #532]
 196 002a 5B69     		ldr	r3, [r3, #20]
 197 002c C7F80832 		str	r3, [r7, #520]
 198 0030 D7F81432 		ldr	r3, [r7, #532]
 199 0034 9B6A     		ldr	r3, [r3, #40]
 200 0036 C7F80C32 		str	r3, [r7, #524]
 201 003a D7F81432 		ldr	r3, [r7, #532]
 202 003e 9B6A     		ldr	r3, [r3, #40]
 203 0040 C7F81032 		str	r3, [r7, #528]
  74:Lib/AI_Runtime/Npu/ll_aton/ll_sw_float.c ****                        sw_info->general.input.mem.start_offset, sw_info->general.input.dim.num_elem
  75:Lib/AI_Runtime/Npu/ll_aton/ll_sw_float.c ****   AI_ARRAY_OBJ_DECLARE(conv_weights_array, FORMAT, sw_info->weights.mem.start_offset, sw_info->weig
 204              		.loc 1 75 3
 205 0044 DC4B     		ldr	r3, .L17
 206 0046 C7F8F431 		str	r3, [r7, #500]
 207 004a D7F81432 		ldr	r3, [r7, #532]
 208 004e DB6E     		ldr	r3, [r3, #108]
 209 0050 C7F8F831 		str	r3, [r7, #504]
 210 0054 D7F81432 		ldr	r3, [r7, #532]
 211 0058 D3F88030 		ldr	r3, [r3, #128]
 212 005c C7F8FC31 		str	r3, [r7, #508]
 213 0060 D7F81432 		ldr	r3, [r7, #532]
 214 0064 D3F88030 		ldr	r3, [r3, #128]
 215 0068 C7F80032 		str	r3, [r7, #512]
ARM GAS  /tmp/ccEo7NLA.s 			page 12


  76:Lib/AI_Runtime/Npu/ll_aton/ll_sw_float.c ****                        sw_info->weights.dim.num_elem, )
  77:Lib/AI_Runtime/Npu/ll_aton/ll_sw_float.c ****   AI_ARRAY_OBJ_DECLARE(conv_output_array, FORMAT, sw_info->general.output.mem.start_offset,
 216              		.loc 1 77 3
 217 006c D24B     		ldr	r3, .L17
 218 006e C7F8E431 		str	r3, [r7, #484]
 219 0072 D7F81432 		ldr	r3, [r7, #532]
 220 0076 1B6C     		ldr	r3, [r3, #64]
 221 0078 C7F8E831 		str	r3, [r7, #488]
 222 007c D7F81432 		ldr	r3, [r7, #532]
 223 0080 5B6D     		ldr	r3, [r3, #84]
 224 0082 C7F8EC31 		str	r3, [r7, #492]
 225 0086 D7F81432 		ldr	r3, [r7, #532]
 226 008a 5B6D     		ldr	r3, [r3, #84]
 227 008c C7F8F031 		str	r3, [r7, #496]
  78:Lib/AI_Runtime/Npu/ll_aton/ll_sw_float.c ****                        sw_info->general.output.mem.start_offset, sw_info->general.output.dim.num_el
  79:Lib/AI_Runtime/Npu/ll_aton/ll_sw_float.c **** 
  80:Lib/AI_Runtime/Npu/ll_aton/ll_sw_float.c ****   AI_TENSOR_OBJ_DECLARE(conv_weights, , 0x0, 4,
 228              		.loc 1 80 3
 229 0090 0023     		movs	r3, #0
 230 0092 C7F8C831 		str	r3, [r7, #456]
 231 0096 0023     		movs	r3, #0
 232 0098 A7F8CC31 		strh	r3, [r7, #460]	@ movhi
 233 009c 0423     		movs	r3, #4
 234 009e 87F8CE31 		strb	r3, [r7, #462]
 235 00a2 0123     		movs	r3, #1
 236 00a4 87F8CF31 		strb	r3, [r7, #463]
 237 00a8 0123     		movs	r3, #1
 238 00aa 87F8D031 		strb	r3, [r7, #464]
 239 00ae D7F8D031 		ldr	r3, [r7, #464]
 240 00b2 0422     		movs	r2, #4
 241 00b4 62F31F23 		bfi	r3, r2, #8, #24
 242 00b8 C7F8D031 		str	r3, [r7, #464]
 243 00bc D7F81432 		ldr	r3, [r7, #532]
 244 00c0 5B6E     		ldr	r3, [r3, #100]
 245 00c2 C7F8B831 		str	r3, [r7, #440]
 246 00c6 D7F81432 		ldr	r3, [r7, #532]
 247 00ca 1B6E     		ldr	r3, [r3, #96]
 248 00cc C7F8BC31 		str	r3, [r7, #444]
 249 00d0 D7F81432 		ldr	r3, [r7, #532]
 250 00d4 DB6D     		ldr	r3, [r3, #92]
 251 00d6 C7F8C031 		str	r3, [r7, #448]
 252 00da D7F81432 		ldr	r3, [r7, #532]
 253 00de 9B6E     		ldr	r3, [r3, #104]
 254 00e0 C7F8C431 		str	r3, [r7, #452]
 255 00e4 07F5DC73 		add	r3, r7, #440
 256 00e8 C7F8D431 		str	r3, [r7, #468]
 257 00ec 0223     		movs	r3, #2
 258 00ee 87F8D831 		strb	r3, [r7, #472]
 259 00f2 D7F8D831 		ldr	r3, [r7, #472]
 260 00f6 0422     		movs	r2, #4
 261 00f8 62F31F23 		bfi	r3, r2, #8, #24
 262 00fc C7F8D831 		str	r3, [r7, #472]
 263 0100 D7F81432 		ldr	r3, [r7, #532]
 264 0104 DB6F     		ldr	r3, [r3, #124]
 265 0106 C7F8A831 		str	r3, [r7, #424]
 266 010a D7F81432 		ldr	r3, [r7, #532]
 267 010e DB6F     		ldr	r3, [r3, #124]
ARM GAS  /tmp/ccEo7NLA.s 			page 13


 268 0110 C7F8AC31 		str	r3, [r7, #428]
 269 0114 D7F81432 		ldr	r3, [r7, #532]
 270 0118 5B6F     		ldr	r3, [r3, #116]
 271 011a C7F8B031 		str	r3, [r7, #432]
 272 011e D7F81432 		ldr	r3, [r7, #532]
 273 0122 1B6F     		ldr	r3, [r3, #112]
 274 0124 C7F8B431 		str	r3, [r7, #436]
 275 0128 07F5D473 		add	r3, r7, #424
 276 012c C7F8DC31 		str	r3, [r7, #476]
 277 0130 07F5FA73 		add	r3, r7, #500
 278 0134 C7F8E031 		str	r3, [r7, #480]
  81:Lib/AI_Runtime/Npu/ll_aton/ll_sw_float.c ****                         SHAPE_INIT(sw_info->weights.dim.tensor_b, sw_info->weights.dim.tensor_h,
  82:Lib/AI_Runtime/Npu/ll_aton/ll_sw_float.c ****                                    sw_info->weights.dim.tensor_w, sw_info->weights.dim.tensor_c),
  83:Lib/AI_Runtime/Npu/ll_aton/ll_sw_float.c ****                         STRIDE_INIT(sw_info->weights.stride.h, sw_info->weights.stride.w, sw_info->
  84:Lib/AI_Runtime/Npu/ll_aton/ll_sw_float.c ****                                     sw_info->weights.stride.b),
  85:Lib/AI_Runtime/Npu/ll_aton/ll_sw_float.c ****                         1, &conv_weights_array, NULL);
  86:Lib/AI_Runtime/Npu/ll_aton/ll_sw_float.c ****   AI_TENSOR_OBJ_DECLARE(input_output, , 0x0, 4,
 279              		.loc 1 86 3
 280 0138 0023     		movs	r3, #0
 281 013a C7F88C31 		str	r3, [r7, #396]
 282 013e 0023     		movs	r3, #0
 283 0140 A7F89031 		strh	r3, [r7, #400]	@ movhi
 284 0144 0423     		movs	r3, #4
 285 0146 87F89231 		strb	r3, [r7, #402]
 286 014a 0123     		movs	r3, #1
 287 014c 87F89331 		strb	r3, [r7, #403]
 288 0150 0123     		movs	r3, #1
 289 0152 87F89431 		strb	r3, [r7, #404]
 290 0156 D7F89431 		ldr	r3, [r7, #404]
 291 015a 0422     		movs	r2, #4
 292 015c 62F31F23 		bfi	r3, r2, #8, #24
 293 0160 C7F89431 		str	r3, [r7, #404]
 294 0164 D7F81432 		ldr	r3, [r7, #532]
 295 0168 1B69     		ldr	r3, [r3, #16]
 296 016a C7F87C31 		str	r3, [r7, #380]
 297 016e D7F81432 		ldr	r3, [r7, #532]
 298 0172 DB68     		ldr	r3, [r3, #12]
 299 0174 C7F88031 		str	r3, [r7, #384]
 300 0178 D7F81432 		ldr	r3, [r7, #532]
 301 017c 9B68     		ldr	r3, [r3, #8]
 302 017e C7F88431 		str	r3, [r7, #388]
 303 0182 D7F81432 		ldr	r3, [r7, #532]
 304 0186 5B68     		ldr	r3, [r3, #4]
 305 0188 C7F88831 		str	r3, [r7, #392]
 306 018c 07F5BE73 		add	r3, r7, #380
 307 0190 C7F89831 		str	r3, [r7, #408]
 308 0194 0223     		movs	r3, #2
 309 0196 87F89C31 		strb	r3, [r7, #412]
 310 019a D7F89C31 		ldr	r3, [r7, #412]
 311 019e 0422     		movs	r2, #4
 312 01a0 62F31F23 		bfi	r3, r2, #8, #24
 313 01a4 C7F89C31 		str	r3, [r7, #412]
 314 01a8 D7F81432 		ldr	r3, [r7, #532]
 315 01ac 5B6A     		ldr	r3, [r3, #36]
 316 01ae C7F86C31 		str	r3, [r7, #364]
 317 01b2 D7F81432 		ldr	r3, [r7, #532]
 318 01b6 1B6A     		ldr	r3, [r3, #32]
ARM GAS  /tmp/ccEo7NLA.s 			page 14


 319 01b8 C7F87031 		str	r3, [r7, #368]
 320 01bc D7F81432 		ldr	r3, [r7, #532]
 321 01c0 DB69     		ldr	r3, [r3, #28]
 322 01c2 C7F87431 		str	r3, [r7, #372]
 323 01c6 D7F81432 		ldr	r3, [r7, #532]
 324 01ca 9B69     		ldr	r3, [r3, #24]
 325 01cc C7F87831 		str	r3, [r7, #376]
 326 01d0 07F5B673 		add	r3, r7, #364
 327 01d4 C7F8A031 		str	r3, [r7, #416]
 328 01d8 07F50173 		add	r3, r7, #516
 329 01dc C7F8A431 		str	r3, [r7, #420]
  87:Lib/AI_Runtime/Npu/ll_aton/ll_sw_float.c ****                         SHAPE_INIT(sw_info->general.input.dim.tensor_h, sw_info->general.input.dim.
  88:Lib/AI_Runtime/Npu/ll_aton/ll_sw_float.c ****                                    sw_info->general.input.dim.tensor_c, sw_info->general.input.dim.
  89:Lib/AI_Runtime/Npu/ll_aton/ll_sw_float.c ****                         STRIDE_INIT(sw_info->general.input.stride.h, sw_info->general.input.stride.
  90:Lib/AI_Runtime/Npu/ll_aton/ll_sw_float.c ****                                     sw_info->general.input.stride.c, sw_info->general.input.stride.
  91:Lib/AI_Runtime/Npu/ll_aton/ll_sw_float.c ****                         1, &input_output_array, NULL);
  92:Lib/AI_Runtime/Npu/ll_aton/ll_sw_float.c ****   AI_TENSOR_OBJ_DECLARE(conv_output, , 0x0, 4,
 330              		.loc 1 92 3
 331 01e0 0023     		movs	r3, #0
 332 01e2 C7F85031 		str	r3, [r7, #336]
 333 01e6 0023     		movs	r3, #0
 334 01e8 A7F85431 		strh	r3, [r7, #340]	@ movhi
 335 01ec 0423     		movs	r3, #4
 336 01ee 87F85631 		strb	r3, [r7, #342]
 337 01f2 0123     		movs	r3, #1
 338 01f4 87F85731 		strb	r3, [r7, #343]
 339 01f8 0123     		movs	r3, #1
 340 01fa 87F85831 		strb	r3, [r7, #344]
 341 01fe D7F85831 		ldr	r3, [r7, #344]
 342 0202 0422     		movs	r2, #4
 343 0204 62F31F23 		bfi	r3, r2, #8, #24
 344 0208 C7F85831 		str	r3, [r7, #344]
 345 020c D7F81432 		ldr	r3, [r7, #532]
 346 0210 DB6B     		ldr	r3, [r3, #60]
 347 0212 C7F84031 		str	r3, [r7, #320]
 348 0216 D7F81432 		ldr	r3, [r7, #532]
 349 021a 9B6B     		ldr	r3, [r3, #56]
 350 021c C7F84431 		str	r3, [r7, #324]
 351 0220 D7F81432 		ldr	r3, [r7, #532]
 352 0224 5B6B     		ldr	r3, [r3, #52]
 353 0226 C7F84831 		str	r3, [r7, #328]
 354 022a D7F81432 		ldr	r3, [r7, #532]
 355 022e 1B6B     		ldr	r3, [r3, #48]
 356 0230 C7F84C31 		str	r3, [r7, #332]
 357 0234 07F5A073 		add	r3, r7, #320
 358 0238 C7F85C31 		str	r3, [r7, #348]
 359 023c 0223     		movs	r3, #2
 360 023e 87F86031 		strb	r3, [r7, #352]
 361 0242 D7F86031 		ldr	r3, [r7, #352]
 362 0246 0422     		movs	r2, #4
 363 0248 62F31F23 		bfi	r3, r2, #8, #24
 364 024c C7F86031 		str	r3, [r7, #352]
 365 0250 D7F81432 		ldr	r3, [r7, #532]
 366 0254 1B6D     		ldr	r3, [r3, #80]
 367 0256 C7F83031 		str	r3, [r7, #304]
 368 025a D7F81432 		ldr	r3, [r7, #532]
 369 025e DB6C     		ldr	r3, [r3, #76]
ARM GAS  /tmp/ccEo7NLA.s 			page 15


 370 0260 C7F83431 		str	r3, [r7, #308]
 371 0264 D7F81432 		ldr	r3, [r7, #532]
 372 0268 9B6C     		ldr	r3, [r3, #72]
 373 026a C7F83831 		str	r3, [r7, #312]
 374 026e D7F81432 		ldr	r3, [r7, #532]
 375 0272 5B6C     		ldr	r3, [r3, #68]
 376 0274 C7F83C31 		str	r3, [r7, #316]
 377 0278 07F59873 		add	r3, r7, #304
 378 027c C7F86431 		str	r3, [r7, #356]
 379 0280 07F5F273 		add	r3, r7, #484
 380 0284 C7F86831 		str	r3, [r7, #360]
  93:Lib/AI_Runtime/Npu/ll_aton/ll_sw_float.c ****                         SHAPE_INIT(sw_info->general.output.dim.tensor_h, sw_info->general.output.di
  94:Lib/AI_Runtime/Npu/ll_aton/ll_sw_float.c ****                                    sw_info->general.output.dim.tensor_c, sw_info->general.output.di
  95:Lib/AI_Runtime/Npu/ll_aton/ll_sw_float.c ****                         STRIDE_INIT(sw_info->general.output.stride.h, sw_info->general.output.strid
  96:Lib/AI_Runtime/Npu/ll_aton/ll_sw_float.c ****                                     sw_info->general.output.stride.c, sw_info->general.output.strid
  97:Lib/AI_Runtime/Npu/ll_aton/ll_sw_float.c ****                         1, &conv_output_array, NULL);
  98:Lib/AI_Runtime/Npu/ll_aton/ll_sw_float.c **** 
  99:Lib/AI_Runtime/Npu/ll_aton/ll_sw_float.c ****   if (sw_info->bias.mem.start_offset != NULL)
 381              		.loc 1 99 24
 382 0288 D7F81432 		ldr	r3, [r7, #532]
 383 028c D3F8D830 		ldr	r3, [r3, #216]
 384              		.loc 1 99 6
 385 0290 002B     		cmp	r3, #0
 386 0292 00F0F781 		beq	.L14
 387              	.LBB2:
 100:Lib/AI_Runtime/Npu/ll_aton/ll_sw_float.c ****   {
 101:Lib/AI_Runtime/Npu/ll_aton/ll_sw_float.c ****     AI_ARRAY_OBJ_DECLARE(conv_bias_array, FORMAT, sw_info->bias.mem.start_offset, sw_info->bias.mem
 388              		.loc 1 101 5
 389 0296 484B     		ldr	r3, .L17
 390 0298 C7F82031 		str	r3, [r7, #288]
 391 029c D7F81432 		ldr	r3, [r7, #532]
 392 02a0 D3F8C430 		ldr	r3, [r3, #196]
 393 02a4 C7F82431 		str	r3, [r7, #292]
 394 02a8 D7F81432 		ldr	r3, [r7, #532]
 395 02ac D3F8D830 		ldr	r3, [r3, #216]
 396 02b0 C7F82831 		str	r3, [r7, #296]
 397 02b4 D7F81432 		ldr	r3, [r7, #532]
 398 02b8 D3F8D830 		ldr	r3, [r3, #216]
 399 02bc C7F82C31 		str	r3, [r7, #300]
 102:Lib/AI_Runtime/Npu/ll_aton/ll_sw_float.c ****                          sw_info->bias.dim.num_elem, )
 103:Lib/AI_Runtime/Npu/ll_aton/ll_sw_float.c ****     AI_TENSOR_OBJ_DECLARE(
 400              		.loc 1 103 5
 401 02c0 07F50673 		add	r3, r7, #536
 402 02c4 A3F58A73 		sub	r3, r3, #276
 403 02c8 0022     		movs	r2, #0
 404 02ca 1A60     		str	r2, [r3]
 405 02cc 07F50673 		add	r3, r7, #536
 406 02d0 A3F58A73 		sub	r3, r3, #276
 407 02d4 0022     		movs	r2, #0
 408 02d6 9A80     		strh	r2, [r3, #4]	@ movhi
 409 02d8 07F50673 		add	r3, r7, #536
 410 02dc A3F58A73 		sub	r3, r3, #276
 411 02e0 0422     		movs	r2, #4
 412 02e2 9A71     		strb	r2, [r3, #6]
 413 02e4 07F50673 		add	r3, r7, #536
 414 02e8 A3F58A73 		sub	r3, r3, #276
 415 02ec 0122     		movs	r2, #1
ARM GAS  /tmp/ccEo7NLA.s 			page 16


 416 02ee DA71     		strb	r2, [r3, #7]
 417 02f0 07F50673 		add	r3, r7, #536
 418 02f4 A3F58A73 		sub	r3, r3, #276
 419 02f8 0122     		movs	r2, #1
 420 02fa 1A72     		strb	r2, [r3, #8]
 421 02fc 07F50673 		add	r3, r7, #536
 422 0300 A3F58A72 		sub	r2, r3, #276
 423 0304 9368     		ldr	r3, [r2, #8]
 424 0306 0421     		movs	r1, #4
 425 0308 61F31F23 		bfi	r3, r1, #8, #24
 426 030c 9360     		str	r3, [r2, #8]
 427 030e D7F81432 		ldr	r3, [r7, #532]
 428 0312 D3F8C020 		ldr	r2, [r3, #192]
 429 0316 07F50673 		add	r3, r7, #536
 430 031a A3F59273 		sub	r3, r3, #292
 431 031e 1A60     		str	r2, [r3]
 432 0320 D7F81432 		ldr	r3, [r7, #532]
 433 0324 D3F8BC20 		ldr	r2, [r3, #188]
 434 0328 07F50673 		add	r3, r7, #536
 435 032c A3F59273 		sub	r3, r3, #292
 436 0330 5A60     		str	r2, [r3, #4]
 437 0332 D7F81432 		ldr	r3, [r7, #532]
 438 0336 D3F8B820 		ldr	r2, [r3, #184]
 439 033a 07F50673 		add	r3, r7, #536
 440 033e A3F59273 		sub	r3, r3, #292
 441 0342 9A60     		str	r2, [r3, #8]
 442 0344 D7F81432 		ldr	r3, [r7, #532]
 443 0348 D3F8B420 		ldr	r2, [r3, #180]
 444 034c 07F50673 		add	r3, r7, #536
 445 0350 A3F59273 		sub	r3, r3, #292
 446 0354 DA60     		str	r2, [r3, #12]
 447 0356 07F50673 		add	r3, r7, #536
 448 035a A3F58A73 		sub	r3, r3, #276
 449 035e 07F1F402 		add	r2, r7, #244
 450 0362 DA60     		str	r2, [r3, #12]
 451 0364 07F50673 		add	r3, r7, #536
 452 0368 A3F58A73 		sub	r3, r3, #276
 453 036c 0222     		movs	r2, #2
 454 036e 1A74     		strb	r2, [r3, #16]
 455 0370 07F50673 		add	r3, r7, #536
 456 0374 A3F58A72 		sub	r2, r3, #276
 457 0378 1369     		ldr	r3, [r2, #16]
 458 037a 0421     		movs	r1, #4
 459 037c 61F31F23 		bfi	r3, r1, #8, #24
 460 0380 1361     		str	r3, [r2, #16]
 461 0382 D7F81432 		ldr	r3, [r7, #532]
 462 0386 D3F8D430 		ldr	r3, [r3, #212]
 463 038a 1A46     		mov	r2, r3
 464 038c 07F50673 		add	r3, r7, #536
 465 0390 A3F59A73 		sub	r3, r3, #308
 466 0394 1A60     		str	r2, [r3]
 467 0396 D7F81432 		ldr	r3, [r7, #532]
 468 039a D3F8D030 		ldr	r3, [r3, #208]
 469 039e 1A46     		mov	r2, r3
 470 03a0 07F50673 		add	r3, r7, #536
 471 03a4 A3F59A73 		sub	r3, r3, #308
 472 03a8 5A60     		str	r2, [r3, #4]
ARM GAS  /tmp/ccEo7NLA.s 			page 17


 473 03aa D7F81432 		ldr	r3, [r7, #532]
 474 03ae D3F8CC30 		ldr	r3, [r3, #204]
 475 03b2 1A46     		mov	r2, r3
 476 03b4 02E0     		b	.L18
 477              	.L19:
 478 03b6 00BF     		.align	2
 479              	.L17:
 480 03b8 40108200 		.word	8523840
 481              	.L18:
 482 03bc 07F50673 		add	r3, r7, #536
 483 03c0 A3F59A73 		sub	r3, r3, #308
 484 03c4 9A60     		str	r2, [r3, #8]
 485 03c6 D7F81432 		ldr	r3, [r7, #532]
 486 03ca D3F8C830 		ldr	r3, [r3, #200]
 487 03ce 1A46     		mov	r2, r3
 488 03d0 07F50673 		add	r3, r7, #536
 489 03d4 A3F59A73 		sub	r3, r3, #308
 490 03d8 DA60     		str	r2, [r3, #12]
 491 03da 07F50673 		add	r3, r7, #536
 492 03de A3F58A73 		sub	r3, r3, #276
 493 03e2 07F1E402 		add	r2, r7, #228
 494 03e6 5A61     		str	r2, [r3, #20]
 495 03e8 07F50673 		add	r3, r7, #536
 496 03ec A3F58A73 		sub	r3, r3, #276
 497 03f0 07F59072 		add	r2, r7, #288
 498 03f4 9A61     		str	r2, [r3, #24]
 104:Lib/AI_Runtime/Npu/ll_aton/ll_sw_float.c ****         conv_bias, , 0x0, 4,
 105:Lib/AI_Runtime/Npu/ll_aton/ll_sw_float.c ****         SHAPE_INIT(sw_info->bias.dim.tensor_h, sw_info->bias.dim.tensor_w, sw_info->bias.dim.tensor
 106:Lib/AI_Runtime/Npu/ll_aton/ll_sw_float.c ****                    sw_info->bias.dim.tensor_b),
 107:Lib/AI_Runtime/Npu/ll_aton/ll_sw_float.c ****         STRIDE_INIT(sw_info->bias.stride.h, sw_info->bias.stride.w, sw_info->bias.stride.c, sw_info
 108:Lib/AI_Runtime/Npu/ll_aton/ll_sw_float.c ****         &conv_bias_array, NULL);
 109:Lib/AI_Runtime/Npu/ll_aton/ll_sw_float.c **** 
 110:Lib/AI_Runtime/Npu/ll_aton/ll_sw_float.c ****     // tensor chain initialization
 111:Lib/AI_Runtime/Npu/ll_aton/ll_sw_float.c ****     AI_TENSOR_CHAIN_OBJ_DECLARE(conv_chain, , 4, AI_TENSOR_LIST_OBJ_INIT(AI_FLAG_NONE, 1, TENSORS(&
 499              		.loc 1 111 5
 500 03f6 07F50673 		add	r3, r7, #536
 501 03fa A3F59E73 		sub	r3, r3, #316
 502 03fe 0422     		movs	r2, #4
 503 0400 1A80     		strh	r2, [r3]	@ movhi
 504 0402 07F50673 		add	r3, r7, #536
 505 0406 A3F59E73 		sub	r3, r3, #316
 506 040a 0022     		movs	r2, #0
 507 040c 5A80     		strh	r2, [r3, #2]	@ movhi
 508 040e 07F50673 		add	r3, r7, #536
 509 0412 A3F50473 		sub	r3, r3, #528
 510 0416 0122     		movs	r2, #1
 511 0418 1A80     		strh	r2, [r3]	@ movhi
 512 041a 07F50673 		add	r3, r7, #536
 513 041e A3F50473 		sub	r3, r3, #528
 514 0422 0022     		movs	r2, #0
 515 0424 5A80     		strh	r2, [r3, #2]	@ movhi
 516 0426 07F50673 		add	r3, r7, #536
 517 042a A3F5A073 		sub	r3, r3, #320
 518 042e 07F5C672 		add	r2, r7, #396
 519 0432 1A60     		str	r2, [r3]
 520 0434 07F50673 		add	r3, r7, #536
 521 0438 A3F50473 		sub	r3, r3, #528
ARM GAS  /tmp/ccEo7NLA.s 			page 18


 522 043c 07F1D802 		add	r2, r7, #216
 523 0440 5A60     		str	r2, [r3, #4]
 524 0442 07F50673 		add	r3, r7, #536
 525 0446 A3F50473 		sub	r3, r3, #528
 526 044a 0022     		movs	r2, #0
 527 044c 9A60     		str	r2, [r3, #8]
 528 044e 07F50673 		add	r3, r7, #536
 529 0452 A3F50473 		sub	r3, r3, #528
 530 0456 0122     		movs	r2, #1
 531 0458 9A81     		strh	r2, [r3, #12]	@ movhi
 532 045a 07F50673 		add	r3, r7, #536
 533 045e A3F50473 		sub	r3, r3, #528
 534 0462 0022     		movs	r2, #0
 535 0464 DA81     		strh	r2, [r3, #14]	@ movhi
 536 0466 07F50673 		add	r3, r7, #536
 537 046a A3F5A273 		sub	r3, r3, #324
 538 046e 07F5A872 		add	r2, r7, #336
 539 0472 1A60     		str	r2, [r3]
 540 0474 07F50673 		add	r3, r7, #536
 541 0478 A3F50473 		sub	r3, r3, #528
 542 047c 07F1D402 		add	r2, r7, #212
 543 0480 1A61     		str	r2, [r3, #16]
 544 0482 07F50673 		add	r3, r7, #536
 545 0486 A3F50473 		sub	r3, r3, #528
 546 048a 0022     		movs	r2, #0
 547 048c 5A61     		str	r2, [r3, #20]
 548 048e 07F50673 		add	r3, r7, #536
 549 0492 A3F50473 		sub	r3, r3, #528
 550 0496 0322     		movs	r2, #3
 551 0498 1A83     		strh	r2, [r3, #24]	@ movhi
 552 049a 07F50673 		add	r3, r7, #536
 553 049e A3F50473 		sub	r3, r3, #528
 554 04a2 0022     		movs	r2, #0
 555 04a4 5A83     		strh	r2, [r3, #26]	@ movhi
 556 04a6 07F50673 		add	r3, r7, #536
 557 04aa A3F5A873 		sub	r3, r3, #336
 558 04ae 07F5E472 		add	r2, r7, #456
 559 04b2 1A60     		str	r2, [r3]
 560 04b4 07F50673 		add	r3, r7, #536
 561 04b8 A3F5A873 		sub	r3, r3, #336
 562 04bc 07F58272 		add	r2, r7, #260
 563 04c0 5A60     		str	r2, [r3, #4]
 564 04c2 07F50673 		add	r3, r7, #536
 565 04c6 A3F5A873 		sub	r3, r3, #336
 566 04ca 0022     		movs	r2, #0
 567 04cc 9A60     		str	r2, [r3, #8]
 568 04ce 07F50673 		add	r3, r7, #536
 569 04d2 A3F50473 		sub	r3, r3, #528
 570 04d6 07F1C802 		add	r2, r7, #200
 571 04da DA61     		str	r2, [r3, #28]
 572 04dc 07F50673 		add	r3, r7, #536
 573 04e0 A3F50473 		sub	r3, r3, #528
 574 04e4 0022     		movs	r2, #0
 575 04e6 1A62     		str	r2, [r3, #32]
 576 04e8 07F50673 		add	r3, r7, #536
 577 04ec A3F50473 		sub	r3, r3, #528
 578 04f0 0222     		movs	r2, #2
ARM GAS  /tmp/ccEo7NLA.s 			page 19


 579 04f2 9A84     		strh	r2, [r3, #36]	@ movhi
 580 04f4 07F50673 		add	r3, r7, #536
 581 04f8 A3F50473 		sub	r3, r3, #528
 582 04fc 0022     		movs	r2, #0
 583 04fe DA84     		strh	r2, [r3, #38]	@ movhi
 584 0500 07F50673 		add	r3, r7, #536
 585 0504 A3F5AC73 		sub	r3, r3, #344
 586 0508 0022     		movs	r2, #0
 587 050a 1A60     		str	r2, [r3]
 588 050c 07F50673 		add	r3, r7, #536
 589 0510 A3F5AC73 		sub	r3, r3, #344
 590 0514 0022     		movs	r2, #0
 591 0516 5A60     		str	r2, [r3, #4]
 592 0518 07F50673 		add	r3, r7, #536
 593 051c A3F50473 		sub	r3, r3, #528
 594 0520 07F1C002 		add	r2, r7, #192
 595 0524 9A62     		str	r2, [r3, #40]
 596 0526 07F50673 		add	r3, r7, #536
 597 052a A3F50473 		sub	r3, r3, #528
 598 052e 0022     		movs	r2, #0
 599 0530 DA62     		str	r2, [r3, #44]
 600 0532 07F50673 		add	r3, r7, #536
 601 0536 A3F59E73 		sub	r3, r3, #316
 602 053a 07F10802 		add	r2, r7, #8
 603 053e 5A60     		str	r2, [r3, #4]
 112:Lib/AI_Runtime/Npu/ll_aton/ll_sw_float.c ****                                 AI_TENSOR_LIST_OBJ_INIT(AI_FLAG_NONE, 1, TENSORS(&conv_output)),
 113:Lib/AI_Runtime/Npu/ll_aton/ll_sw_float.c ****                                 AI_TENSOR_LIST_OBJ_INIT(AI_FLAG_NONE, 3, TENSORS(&conv_weights, &co
 114:Lib/AI_Runtime/Npu/ll_aton/ll_sw_float.c ****                                 AI_TENSOR_LIST_OBJ_INIT(AI_FLAG_NONE, 2, TENSORS(NULL, NULL)))
 115:Lib/AI_Runtime/Npu/ll_aton/ll_sw_float.c ****     // layer initialization
 116:Lib/AI_Runtime/Npu/ll_aton/ll_sw_float.c ****     AI_LAYER_OBJ_DECLARE(conv_layer, 1, CONV2D_TYPE, 0x0, NULL, conv2d, forward_conv2d_if32of32wf32
 604              		.loc 1 116 5
 605 0540 07F50673 		add	r3, r7, #536
 606 0544 A3F5F073 		sub	r3, r3, #480
 607 0548 1846     		mov	r0, r3
 608 054a 4423     		movs	r3, #68
 609 054c 1A46     		mov	r2, r3
 610 054e 0021     		movs	r1, #0
 611 0550 FFF7FEFF 		bl	memset
 612 0554 07F50673 		add	r3, r7, #536
 613 0558 A3F5F073 		sub	r3, r3, #480
 614 055c 40F20312 		movw	r2, #259
 615 0560 1A80     		strh	r2, [r3]	@ movhi
 616 0562 07F50673 		add	r3, r7, #536
 617 0566 A3F5F073 		sub	r3, r3, #480
 618 056a 0122     		movs	r2, #1
 619 056c 5A80     		strh	r2, [r3, #2]	@ movhi
 620 056e 07F50673 		add	r3, r7, #536
 621 0572 A3F5F073 		sub	r3, r3, #480
 622 0576 424A     		ldr	r2, .L20
 623 0578 5A61     		str	r2, [r3, #20]
 624 057a 07F50673 		add	r3, r7, #536
 625 057e A3F5F073 		sub	r3, r3, #480
 626 0582 07F1DC02 		add	r2, r7, #220
 627 0586 9A61     		str	r2, [r3, #24]
 628 0588 D7F81432 		ldr	r3, [r7, #532]
 629 058c D3F80C31 		ldr	r3, [r3, #268]
 630 0590 1A46     		mov	r2, r3
ARM GAS  /tmp/ccEo7NLA.s 			page 20


 631 0592 07F50673 		add	r3, r7, #536
 632 0596 A3F5F073 		sub	r3, r3, #480
 633 059a DA61     		str	r2, [r3, #28]
 634 059c D7F81432 		ldr	r3, [r7, #532]
 635 05a0 D3F82431 		ldr	r3, [r3, #292]
 636 05a4 1A46     		mov	r2, r3
 637 05a6 07F50673 		add	r3, r7, #536
 638 05aa A3F5F073 		sub	r3, r3, #480
 639 05ae 9A62     		str	r2, [r3, #40]
 640 05b0 D7F81432 		ldr	r3, [r7, #532]
 641 05b4 D3F82031 		ldr	r3, [r3, #288]
 642 05b8 1A46     		mov	r2, r3
 643 05ba 07F50673 		add	r3, r7, #536
 644 05be A3F5F073 		sub	r3, r3, #480
 645 05c2 DA62     		str	r2, [r3, #44]
 646 05c4 D7F81432 		ldr	r3, [r7, #532]
 647 05c8 D3F83431 		ldr	r3, [r3, #308]
 648 05cc 1A46     		mov	r2, r3
 649 05ce 07F50673 		add	r3, r7, #536
 650 05d2 A3F5F073 		sub	r3, r3, #480
 651 05d6 1A63     		str	r2, [r3, #48]
 652 05d8 D7F81432 		ldr	r3, [r7, #532]
 653 05dc D3F83031 		ldr	r3, [r3, #304]
 654 05e0 1A46     		mov	r2, r3
 655 05e2 07F50673 		add	r3, r7, #536
 656 05e6 A3F5F073 		sub	r3, r3, #480
 657 05ea 5A63     		str	r2, [r3, #52]
 658 05ec 07F50673 		add	r3, r7, #536
 659 05f0 A3F5F073 		sub	r3, r3, #480
 660 05f4 0122     		movs	r2, #1
 661 05f6 83F83820 		strb	r2, [r3, #56]
 662 05fa 07F50673 		add	r3, r7, #536
 663 05fe A3F5F072 		sub	r2, r3, #480
 664 0602 936B     		ldr	r3, [r2, #56]
 665 0604 0421     		movs	r1, #4
 666 0606 61F31F23 		bfi	r3, r1, #8, #24
 667 060a 9363     		str	r3, [r2, #56]
 668 060c D7F81432 		ldr	r3, [r7, #532]
 669 0610 D3F81031 		ldr	r3, [r3, #272]
 670 0614 1A46     		mov	r2, r3
 671 0616 07F50673 		add	r3, r7, #536
 672 061a A3F5B473 		sub	r3, r3, #360
 673 061e 1A60     		str	r2, [r3]
 674 0620 D7F81432 		ldr	r3, [r7, #532]
 675 0624 D3F81431 		ldr	r3, [r3, #276]
 676 0628 1A46     		mov	r2, r3
 677 062a 07F50673 		add	r3, r7, #536
 678 062e A3F5B473 		sub	r3, r3, #360
 679 0632 5A60     		str	r2, [r3, #4]
 680 0634 D7F81432 		ldr	r3, [r7, #532]
 681 0638 D3F81831 		ldr	r3, [r3, #280]
 682 063c 1A46     		mov	r2, r3
 683 063e 07F50673 		add	r3, r7, #536
 684 0642 A3F5B473 		sub	r3, r3, #360
 685 0646 9A60     		str	r2, [r3, #8]
 686 0648 D7F81432 		ldr	r3, [r7, #532]
 687 064c D3F81C31 		ldr	r3, [r3, #284]
ARM GAS  /tmp/ccEo7NLA.s 			page 21


 688 0650 1A46     		mov	r2, r3
 689 0652 07F50673 		add	r3, r7, #536
 690 0656 A3F5B473 		sub	r3, r3, #360
 691 065a DA60     		str	r2, [r3, #12]
 692 065c 07F50673 		add	r3, r7, #536
 693 0660 A3F5F073 		sub	r3, r3, #480
 694 0664 07F1B002 		add	r2, r7, #176
 695 0668 DA63     		str	r2, [r3, #60]
 117:Lib/AI_Runtime/Npu/ll_aton/ll_sw_float.c ****                          NULL, NULL, , .groups = sw_info->ngroup, .nl_params = NULL, .nl_func = NUL
 118:Lib/AI_Runtime/Npu/ll_aton/ll_sw_float.c ****                          .filter_stride = SHAPE_2D_INIT(sw_info->strides[0],
 119:Lib/AI_Runtime/Npu/ll_aton/ll_sw_float.c ****                                                         sw_info->strides[1]), // controlla perche' 
 120:Lib/AI_Runtime/Npu/ll_aton/ll_sw_float.c ****                          .filter_pad =
 121:Lib/AI_Runtime/Npu/ll_aton/ll_sw_float.c ****                              SHAPE_INIT(sw_info->pads[3], sw_info->pads[2], sw_info->pads[1], sw_in
 122:Lib/AI_Runtime/Npu/ll_aton/ll_sw_float.c ****                          .dilation = SHAPE_2D_INIT(sw_info->dilations[0], sw_info->dilations[1]), )
 123:Lib/AI_Runtime/Npu/ll_aton/ll_sw_float.c ****     conv_layer.forward(AI_LAYER_OBJ(&conv_layer));
 696              		.loc 1 123 15
 697 066a 07F50673 		add	r3, r7, #536
 698 066e A3F5F073 		sub	r3, r3, #480
 699 0672 5B69     		ldr	r3, [r3, #20]
 700              		.loc 1 123 5
 701 0674 07F13802 		add	r2, r7, #56
 702 0678 1046     		mov	r0, r2
 703 067a 9847     		blx	r3
 704              	.LVL0:
 705              	.LBE2:
 124:Lib/AI_Runtime/Npu/ll_aton/ll_sw_float.c ****   }
 125:Lib/AI_Runtime/Npu/ll_aton/ll_sw_float.c ****   else
 126:Lib/AI_Runtime/Npu/ll_aton/ll_sw_float.c ****   {
 127:Lib/AI_Runtime/Npu/ll_aton/ll_sw_float.c ****     // tensor chain initialization
 128:Lib/AI_Runtime/Npu/ll_aton/ll_sw_float.c ****     AI_TENSOR_CHAIN_OBJ_DECLARE(conv_chain, , 4, AI_TENSOR_LIST_OBJ_INIT(AI_FLAG_NONE, 1, TENSORS(&
 129:Lib/AI_Runtime/Npu/ll_aton/ll_sw_float.c ****                                 AI_TENSOR_LIST_OBJ_INIT(AI_FLAG_NONE, 1, TENSORS(&conv_output)),
 130:Lib/AI_Runtime/Npu/ll_aton/ll_sw_float.c ****                                 AI_TENSOR_LIST_OBJ_INIT(AI_FLAG_NONE, 3, TENSORS(&conv_weights, NUL
 131:Lib/AI_Runtime/Npu/ll_aton/ll_sw_float.c ****                                 AI_TENSOR_LIST_OBJ_INIT(AI_FLAG_NONE, 2, TENSORS(NULL, NULL)))
 132:Lib/AI_Runtime/Npu/ll_aton/ll_sw_float.c ****     // layer initialization
 133:Lib/AI_Runtime/Npu/ll_aton/ll_sw_float.c ****     AI_LAYER_OBJ_DECLARE(conv_layer, 1, CONV2D_TYPE, 0x0, NULL, conv2d, forward_conv2d_if32of32wf32
 134:Lib/AI_Runtime/Npu/ll_aton/ll_sw_float.c ****                          NULL, NULL, , .groups = sw_info->ngroup, .nl_params = NULL, .nl_func = NUL
 135:Lib/AI_Runtime/Npu/ll_aton/ll_sw_float.c ****                          .filter_stride = SHAPE_2D_INIT(sw_info->strides[0],
 136:Lib/AI_Runtime/Npu/ll_aton/ll_sw_float.c ****                                                         sw_info->strides[1]), // controlla perche' 
 137:Lib/AI_Runtime/Npu/ll_aton/ll_sw_float.c ****                          .filter_pad =
 138:Lib/AI_Runtime/Npu/ll_aton/ll_sw_float.c ****                              SHAPE_INIT(sw_info->pads[3], sw_info->pads[2], sw_info->pads[1], sw_in
 139:Lib/AI_Runtime/Npu/ll_aton/ll_sw_float.c ****                          .dilation = SHAPE_2D_INIT(sw_info->dilations[0], sw_info->dilations[1]), )
 140:Lib/AI_Runtime/Npu/ll_aton/ll_sw_float.c ****     conv_layer.forward(AI_LAYER_OBJ(&conv_layer));
 141:Lib/AI_Runtime/Npu/ll_aton/ll_sw_float.c ****   }
 142:Lib/AI_Runtime/Npu/ll_aton/ll_sw_float.c **** }
 706              		.loc 1 142 1
 707 067c 44E1     		b	.L16
 708              	.L21:
 709 067e 00BF     		.align	2
 710              	.L20:
 711 0680 00000000 		.word	forward_conv2d_if32of32wf32_group
 712              	.L14:
 713              	.LBB3:
 128:Lib/AI_Runtime/Npu/ll_aton/ll_sw_float.c ****                                 AI_TENSOR_LIST_OBJ_INIT(AI_FLAG_NONE, 1, TENSORS(&conv_output)),
 714              		.loc 1 128 5
 715 0684 07F50673 		add	r3, r7, #536
 716 0688 A3F5B873 		sub	r3, r3, #368
 717 068c 0422     		movs	r2, #4
ARM GAS  /tmp/ccEo7NLA.s 			page 22


 718 068e 1A80     		strh	r2, [r3]	@ movhi
 719 0690 07F50673 		add	r3, r7, #536
 720 0694 A3F5B873 		sub	r3, r3, #368
 721 0698 0022     		movs	r2, #0
 722 069a 5A80     		strh	r2, [r3, #2]	@ movhi
 723 069c 07F50673 		add	r3, r7, #536
 724 06a0 A3F50473 		sub	r3, r3, #528
 725 06a4 0122     		movs	r2, #1
 726 06a6 1A80     		strh	r2, [r3]	@ movhi
 727 06a8 07F50673 		add	r3, r7, #536
 728 06ac A3F50473 		sub	r3, r3, #528
 729 06b0 0022     		movs	r2, #0
 730 06b2 5A80     		strh	r2, [r3, #2]	@ movhi
 731 06b4 07F50673 		add	r3, r7, #536
 732 06b8 A3F5BA73 		sub	r3, r3, #372
 733 06bc 07F5C672 		add	r2, r7, #396
 734 06c0 1A60     		str	r2, [r3]
 735 06c2 07F50673 		add	r3, r7, #536
 736 06c6 A3F50473 		sub	r3, r3, #528
 737 06ca 07F1A402 		add	r2, r7, #164
 738 06ce 5A60     		str	r2, [r3, #4]
 739 06d0 07F50673 		add	r3, r7, #536
 740 06d4 A3F50473 		sub	r3, r3, #528
 741 06d8 0022     		movs	r2, #0
 742 06da 9A60     		str	r2, [r3, #8]
 743 06dc 07F50673 		add	r3, r7, #536
 744 06e0 A3F50473 		sub	r3, r3, #528
 745 06e4 0122     		movs	r2, #1
 746 06e6 9A81     		strh	r2, [r3, #12]	@ movhi
 747 06e8 07F50673 		add	r3, r7, #536
 748 06ec A3F50473 		sub	r3, r3, #528
 749 06f0 0022     		movs	r2, #0
 750 06f2 DA81     		strh	r2, [r3, #14]	@ movhi
 751 06f4 07F50673 		add	r3, r7, #536
 752 06f8 A3F5BC73 		sub	r3, r3, #376
 753 06fc 07F5A872 		add	r2, r7, #336
 754 0700 1A60     		str	r2, [r3]
 755 0702 07F50673 		add	r3, r7, #536
 756 0706 A3F50473 		sub	r3, r3, #528
 757 070a 07F1A002 		add	r2, r7, #160
 758 070e 1A61     		str	r2, [r3, #16]
 759 0710 07F50673 		add	r3, r7, #536
 760 0714 A3F50473 		sub	r3, r3, #528
 761 0718 0022     		movs	r2, #0
 762 071a 5A61     		str	r2, [r3, #20]
 763 071c 07F50673 		add	r3, r7, #536
 764 0720 A3F50473 		sub	r3, r3, #528
 765 0724 0322     		movs	r2, #3
 766 0726 1A83     		strh	r2, [r3, #24]	@ movhi
 767 0728 07F50673 		add	r3, r7, #536
 768 072c A3F50473 		sub	r3, r3, #528
 769 0730 0022     		movs	r2, #0
 770 0732 5A83     		strh	r2, [r3, #26]	@ movhi
 771 0734 07F50673 		add	r3, r7, #536
 772 0738 A3F5C273 		sub	r3, r3, #388
 773 073c 07F5E472 		add	r2, r7, #456
 774 0740 1A60     		str	r2, [r3]
ARM GAS  /tmp/ccEo7NLA.s 			page 23


 775 0742 07F50673 		add	r3, r7, #536
 776 0746 A3F5C273 		sub	r3, r3, #388
 777 074a 0022     		movs	r2, #0
 778 074c 5A60     		str	r2, [r3, #4]
 779 074e 07F50673 		add	r3, r7, #536
 780 0752 A3F5C273 		sub	r3, r3, #388
 781 0756 0022     		movs	r2, #0
 782 0758 9A60     		str	r2, [r3, #8]
 783 075a 07F50673 		add	r3, r7, #536
 784 075e A3F50473 		sub	r3, r3, #528
 785 0762 07F19402 		add	r2, r7, #148
 786 0766 DA61     		str	r2, [r3, #28]
 787 0768 07F50673 		add	r3, r7, #536
 788 076c A3F50473 		sub	r3, r3, #528
 789 0770 0022     		movs	r2, #0
 790 0772 1A62     		str	r2, [r3, #32]
 791 0774 07F50673 		add	r3, r7, #536
 792 0778 A3F50473 		sub	r3, r3, #528
 793 077c 0222     		movs	r2, #2
 794 077e 9A84     		strh	r2, [r3, #36]	@ movhi
 795 0780 07F50673 		add	r3, r7, #536
 796 0784 A3F50473 		sub	r3, r3, #528
 797 0788 0022     		movs	r2, #0
 798 078a DA84     		strh	r2, [r3, #38]	@ movhi
 799 078c 07F50673 		add	r3, r7, #536
 800 0790 A3F5C673 		sub	r3, r3, #396
 801 0794 0022     		movs	r2, #0
 802 0796 1A60     		str	r2, [r3]
 803 0798 07F50673 		add	r3, r7, #536
 804 079c A3F5C673 		sub	r3, r3, #396
 805 07a0 0022     		movs	r2, #0
 806 07a2 5A60     		str	r2, [r3, #4]
 807 07a4 07F50673 		add	r3, r7, #536
 808 07a8 A3F50473 		sub	r3, r3, #528
 809 07ac 07F18C02 		add	r2, r7, #140
 810 07b0 9A62     		str	r2, [r3, #40]
 811 07b2 07F50673 		add	r3, r7, #536
 812 07b6 A3F50473 		sub	r3, r3, #528
 813 07ba 0022     		movs	r2, #0
 814 07bc DA62     		str	r2, [r3, #44]
 815 07be 07F50673 		add	r3, r7, #536
 816 07c2 A3F5B873 		sub	r3, r3, #368
 817 07c6 07F10802 		add	r2, r7, #8
 818 07ca 5A60     		str	r2, [r3, #4]
 133:Lib/AI_Runtime/Npu/ll_aton/ll_sw_float.c ****                          NULL, NULL, , .groups = sw_info->ngroup, .nl_params = NULL, .nl_func = NUL
 819              		.loc 1 133 5
 820 07cc 07F50673 		add	r3, r7, #536
 821 07d0 A3F5F073 		sub	r3, r3, #480
 822 07d4 1846     		mov	r0, r3
 823 07d6 4423     		movs	r3, #68
 824 07d8 1A46     		mov	r2, r3
 825 07da 0021     		movs	r1, #0
 826 07dc FFF7FEFF 		bl	memset
 827 07e0 07F50673 		add	r3, r7, #536
 828 07e4 A3F5F073 		sub	r3, r3, #480
 829 07e8 40F20312 		movw	r2, #259
 830 07ec 1A80     		strh	r2, [r3]	@ movhi
ARM GAS  /tmp/ccEo7NLA.s 			page 24


 831 07ee 07F50673 		add	r3, r7, #536
 832 07f2 A3F5F073 		sub	r3, r3, #480
 833 07f6 0122     		movs	r2, #1
 834 07f8 5A80     		strh	r2, [r3, #2]	@ movhi
 835 07fa 07F50673 		add	r3, r7, #536
 836 07fe A3F5F073 		sub	r3, r3, #480
 837 0802 444A     		ldr	r2, .L22
 838 0804 5A61     		str	r2, [r3, #20]
 839 0806 07F50673 		add	r3, r7, #536
 840 080a A3F5F073 		sub	r3, r3, #480
 841 080e 07F1A802 		add	r2, r7, #168
 842 0812 9A61     		str	r2, [r3, #24]
 843 0814 D7F81432 		ldr	r3, [r7, #532]
 844 0818 D3F80C31 		ldr	r3, [r3, #268]
 845 081c 1A46     		mov	r2, r3
 846 081e 07F50673 		add	r3, r7, #536
 847 0822 A3F5F073 		sub	r3, r3, #480
 848 0826 DA61     		str	r2, [r3, #28]
 849 0828 D7F81432 		ldr	r3, [r7, #532]
 850 082c D3F82431 		ldr	r3, [r3, #292]
 851 0830 1A46     		mov	r2, r3
 852 0832 07F50673 		add	r3, r7, #536
 853 0836 A3F5F073 		sub	r3, r3, #480
 854 083a 9A62     		str	r2, [r3, #40]
 855 083c D7F81432 		ldr	r3, [r7, #532]
 856 0840 D3F82031 		ldr	r3, [r3, #288]
 857 0844 1A46     		mov	r2, r3
 858 0846 07F50673 		add	r3, r7, #536
 859 084a A3F5F073 		sub	r3, r3, #480
 860 084e DA62     		str	r2, [r3, #44]
 861 0850 D7F81432 		ldr	r3, [r7, #532]
 862 0854 D3F83431 		ldr	r3, [r3, #308]
 863 0858 1A46     		mov	r2, r3
 864 085a 07F50673 		add	r3, r7, #536
 865 085e A3F5F073 		sub	r3, r3, #480
 866 0862 1A63     		str	r2, [r3, #48]
 867 0864 D7F81432 		ldr	r3, [r7, #532]
 868 0868 D3F83031 		ldr	r3, [r3, #304]
 869 086c 1A46     		mov	r2, r3
 870 086e 07F50673 		add	r3, r7, #536
 871 0872 A3F5F073 		sub	r3, r3, #480
 872 0876 5A63     		str	r2, [r3, #52]
 873 0878 07F50673 		add	r3, r7, #536
 874 087c A3F5F073 		sub	r3, r3, #480
 875 0880 0122     		movs	r2, #1
 876 0882 83F83820 		strb	r2, [r3, #56]
 877 0886 07F50673 		add	r3, r7, #536
 878 088a A3F5F072 		sub	r2, r3, #480
 879 088e 936B     		ldr	r3, [r2, #56]
 880 0890 0421     		movs	r1, #4
 881 0892 61F31F23 		bfi	r3, r1, #8, #24
 882 0896 9363     		str	r3, [r2, #56]
 883 0898 D7F81432 		ldr	r3, [r7, #532]
 884 089c D3F81031 		ldr	r3, [r3, #272]
 885 08a0 1A46     		mov	r2, r3
 886 08a2 07F50673 		add	r3, r7, #536
 887 08a6 A3F5CE73 		sub	r3, r3, #412
ARM GAS  /tmp/ccEo7NLA.s 			page 25


 888 08aa 1A60     		str	r2, [r3]
 889 08ac D7F81432 		ldr	r3, [r7, #532]
 890 08b0 D3F81431 		ldr	r3, [r3, #276]
 891 08b4 1A46     		mov	r2, r3
 892 08b6 07F50673 		add	r3, r7, #536
 893 08ba A3F5CE73 		sub	r3, r3, #412
 894 08be 5A60     		str	r2, [r3, #4]
 895 08c0 D7F81432 		ldr	r3, [r7, #532]
 896 08c4 D3F81831 		ldr	r3, [r3, #280]
 897 08c8 1A46     		mov	r2, r3
 898 08ca 07F50673 		add	r3, r7, #536
 899 08ce A3F5CE73 		sub	r3, r3, #412
 900 08d2 9A60     		str	r2, [r3, #8]
 901 08d4 D7F81432 		ldr	r3, [r7, #532]
 902 08d8 D3F81C31 		ldr	r3, [r3, #284]
 903 08dc 1A46     		mov	r2, r3
 904 08de 07F50673 		add	r3, r7, #536
 905 08e2 A3F5CE73 		sub	r3, r3, #412
 906 08e6 DA60     		str	r2, [r3, #12]
 907 08e8 07F50673 		add	r3, r7, #536
 908 08ec A3F5F073 		sub	r3, r3, #480
 909 08f0 07F17C02 		add	r2, r7, #124
 910 08f4 DA63     		str	r2, [r3, #60]
 140:Lib/AI_Runtime/Npu/ll_aton/ll_sw_float.c ****   }
 911              		.loc 1 140 15
 912 08f6 07F50673 		add	r3, r7, #536
 913 08fa A3F5F073 		sub	r3, r3, #480
 914 08fe 5B69     		ldr	r3, [r3, #20]
 140:Lib/AI_Runtime/Npu/ll_aton/ll_sw_float.c ****   }
 915              		.loc 1 140 5
 916 0900 07F13802 		add	r2, r7, #56
 917 0904 1046     		mov	r0, r2
 918 0906 9847     		blx	r3
 919              	.LVL1:
 920              	.L16:
 921              	.LBE3:
 922              		.loc 1 142 1
 923 0908 00BF     		nop
 924 090a 07F50677 		add	r7, r7, #536
 925              		.cfi_def_cfa_offset 8
 926 090e BD46     		mov	sp, r7
 927              		.cfi_def_cfa_register 13
 928              		@ sp needed
 929 0910 80BD     		pop	{r7, pc}
 930              	.L23:
 931 0912 00BF     		.align	2
 932              	.L22:
 933 0914 00000000 		.word	forward_conv2d_if32of32wf32_group
 934              		.cfi_endproc
 935              	.LFE15:
 937              		.section	.text.ll_sw_forward_gemm,"ax",%progbits
 938              		.align	1
 939              		.global	ll_sw_forward_gemm
 940              		.syntax unified
 941              		.thumb
 942              		.thumb_func
 944              	ll_sw_forward_gemm:
ARM GAS  /tmp/ccEo7NLA.s 			page 26


 945              	.LFB16:
 143:Lib/AI_Runtime/Npu/ll_aton/ll_sw_float.c **** 
 144:Lib/AI_Runtime/Npu/ll_aton/ll_sw_float.c **** //##########################################################################################
 145:Lib/AI_Runtime/Npu/ll_aton/ll_sw_float.c **** /** GEMM forward function */
 146:Lib/AI_Runtime/Npu/ll_aton/ll_sw_float.c **** void ll_sw_forward_gemm(/* int processor, */ void *sw_info_struct)
 147:Lib/AI_Runtime/Npu/ll_aton/ll_sw_float.c **** {
 946              		.loc 1 147 1
 947              		.cfi_startproc
 948              		@ args = 0, pretend = 0, frame = 440
 949              		@ frame_needed = 1, uses_anonymous_args = 0
 950 0000 80B5     		push	{r7, lr}
 951              		.cfi_def_cfa_offset 8
 952              		.cfi_offset 7, -8
 953              		.cfi_offset 14, -4
 954 0002 EEB0     		sub	sp, sp, #440
 955              		.cfi_def_cfa_offset 448
 956 0004 00AF     		add	r7, sp, #0
 957              		.cfi_def_cfa_register 7
 958 0006 07F5DC73 		add	r3, r7, #440
 959 000a A3F5DA73 		sub	r3, r3, #436
 960 000e 1860     		str	r0, [r3]
 148:Lib/AI_Runtime/Npu/ll_aton/ll_sw_float.c ****   Gemm_sw_info *sw_info = (Gemm_sw_info *)sw_info_struct;
 961              		.loc 1 148 17
 962 0010 07F5DC73 		add	r3, r7, #440
 963 0014 A3F5DA73 		sub	r3, r3, #436
 964 0018 1B68     		ldr	r3, [r3]
 965 001a C7F8B431 		str	r3, [r7, #436]
 149:Lib/AI_Runtime/Npu/ll_aton/ll_sw_float.c ****   // array init
 150:Lib/AI_Runtime/Npu/ll_aton/ll_sw_float.c ****   AI_ARRAY_OBJ_DECLARE(input_output_array, FORMAT, sw_info->general.input.mem.start_offset,
 966              		.loc 1 150 3
 967 001e E64B     		ldr	r3, .L25
 968 0020 C7F8A431 		str	r3, [r7, #420]
 969 0024 D7F8B431 		ldr	r3, [r7, #436]
 970 0028 5B69     		ldr	r3, [r3, #20]
 971 002a C7F8A831 		str	r3, [r7, #424]
 972 002e D7F8B431 		ldr	r3, [r7, #436]
 973 0032 9B6A     		ldr	r3, [r3, #40]
 974 0034 C7F8AC31 		str	r3, [r7, #428]
 975 0038 D7F8B431 		ldr	r3, [r7, #436]
 976 003c 9B6A     		ldr	r3, [r3, #40]
 977 003e C7F8B031 		str	r3, [r7, #432]
 151:Lib/AI_Runtime/Npu/ll_aton/ll_sw_float.c ****                        sw_info->general.input.mem.start_offset, sw_info->general.input.dim.num_elem
 152:Lib/AI_Runtime/Npu/ll_aton/ll_sw_float.c **** 
 153:Lib/AI_Runtime/Npu/ll_aton/ll_sw_float.c ****   AI_ARRAY_OBJ_DECLARE(gemm_operand_b_array, FORMAT, sw_info->operand_b.mem.start_offset,
 978              		.loc 1 153 3
 979 0042 DD4B     		ldr	r3, .L25
 980 0044 C7F89431 		str	r3, [r7, #404]
 981 0048 D7F8B431 		ldr	r3, [r7, #436]
 982 004c DB6E     		ldr	r3, [r3, #108]
 983 004e C7F89831 		str	r3, [r7, #408]
 984 0052 D7F8B431 		ldr	r3, [r7, #436]
 985 0056 D3F88030 		ldr	r3, [r3, #128]
 986 005a C7F89C31 		str	r3, [r7, #412]
 987 005e D7F8B431 		ldr	r3, [r7, #436]
 988 0062 D3F88030 		ldr	r3, [r3, #128]
 989 0066 C7F8A031 		str	r3, [r7, #416]
 154:Lib/AI_Runtime/Npu/ll_aton/ll_sw_float.c ****                        sw_info->operand_b.mem.start_offset, sw_info->operand_b.dim.num_elem, )
ARM GAS  /tmp/ccEo7NLA.s 			page 27


 155:Lib/AI_Runtime/Npu/ll_aton/ll_sw_float.c **** 
 156:Lib/AI_Runtime/Npu/ll_aton/ll_sw_float.c ****   AI_ARRAY_OBJ_DECLARE(gemm_operand_c_array, FORMAT, sw_info->operand_c.mem.start_offset,
 990              		.loc 1 156 3
 991 006a D34B     		ldr	r3, .L25
 992 006c C7F88431 		str	r3, [r7, #388]
 993 0070 D7F8B431 		ldr	r3, [r7, #436]
 994 0074 D3F89830 		ldr	r3, [r3, #152]
 995 0078 C7F88831 		str	r3, [r7, #392]
 996 007c D7F8B431 		ldr	r3, [r7, #436]
 997 0080 D3F8AC30 		ldr	r3, [r3, #172]
 998 0084 C7F88C31 		str	r3, [r7, #396]
 999 0088 D7F8B431 		ldr	r3, [r7, #436]
 1000 008c D3F8AC30 		ldr	r3, [r3, #172]
 1001 0090 C7F89031 		str	r3, [r7, #400]
 157:Lib/AI_Runtime/Npu/ll_aton/ll_sw_float.c ****                        sw_info->operand_c.mem.start_offset, sw_info->operand_c.dim.num_elem, )
 158:Lib/AI_Runtime/Npu/ll_aton/ll_sw_float.c **** 
 159:Lib/AI_Runtime/Npu/ll_aton/ll_sw_float.c ****   AI_ARRAY_OBJ_DECLARE(gemm_output_array, FORMAT, sw_info->general.output.mem.start_offset,
 1002              		.loc 1 159 3
 1003 0094 C84B     		ldr	r3, .L25
 1004 0096 C7F87431 		str	r3, [r7, #372]
 1005 009a D7F8B431 		ldr	r3, [r7, #436]
 1006 009e 1B6C     		ldr	r3, [r3, #64]
 1007 00a0 C7F87831 		str	r3, [r7, #376]
 1008 00a4 D7F8B431 		ldr	r3, [r7, #436]
 1009 00a8 5B6D     		ldr	r3, [r3, #84]
 1010 00aa C7F87C31 		str	r3, [r7, #380]
 1011 00ae D7F8B431 		ldr	r3, [r7, #436]
 1012 00b2 5B6D     		ldr	r3, [r3, #84]
 1013 00b4 C7F88031 		str	r3, [r7, #384]
 160:Lib/AI_Runtime/Npu/ll_aton/ll_sw_float.c ****                        sw_info->general.output.mem.start_offset, sw_info->general.output.dim.num_el
 161:Lib/AI_Runtime/Npu/ll_aton/ll_sw_float.c **** 
 162:Lib/AI_Runtime/Npu/ll_aton/ll_sw_float.c ****   AI_TENSOR_OBJ_DECLARE(input_output, , 0x0, 4,
 1014              		.loc 1 162 3
 1015 00b8 0023     		movs	r3, #0
 1016 00ba C7F85831 		str	r3, [r7, #344]
 1017 00be 0023     		movs	r3, #0
 1018 00c0 A7F85C31 		strh	r3, [r7, #348]	@ movhi
 1019 00c4 0423     		movs	r3, #4
 1020 00c6 87F85E31 		strb	r3, [r7, #350]
 1021 00ca 0123     		movs	r3, #1
 1022 00cc 87F85F31 		strb	r3, [r7, #351]
 1023 00d0 0123     		movs	r3, #1
 1024 00d2 87F86031 		strb	r3, [r7, #352]
 1025 00d6 D7F86031 		ldr	r3, [r7, #352]
 1026 00da 0422     		movs	r2, #4
 1027 00dc 62F31F23 		bfi	r3, r2, #8, #24
 1028 00e0 C7F86031 		str	r3, [r7, #352]
 1029 00e4 D7F8B431 		ldr	r3, [r7, #436]
 1030 00e8 1B69     		ldr	r3, [r3, #16]
 1031 00ea C7F84831 		str	r3, [r7, #328]
 1032 00ee D7F8B431 		ldr	r3, [r7, #436]
 1033 00f2 DB68     		ldr	r3, [r3, #12]
 1034 00f4 C7F84C31 		str	r3, [r7, #332]
 1035 00f8 D7F8B431 		ldr	r3, [r7, #436]
 1036 00fc 9B68     		ldr	r3, [r3, #8]
 1037 00fe C7F85031 		str	r3, [r7, #336]
 1038 0102 D7F8B431 		ldr	r3, [r7, #436]
ARM GAS  /tmp/ccEo7NLA.s 			page 28


 1039 0106 5B68     		ldr	r3, [r3, #4]
 1040 0108 C7F85431 		str	r3, [r7, #340]
 1041 010c 07F5A473 		add	r3, r7, #328
 1042 0110 C7F86431 		str	r3, [r7, #356]
 1043 0114 0223     		movs	r3, #2
 1044 0116 87F86831 		strb	r3, [r7, #360]
 1045 011a D7F86831 		ldr	r3, [r7, #360]
 1046 011e 0422     		movs	r2, #4
 1047 0120 62F31F23 		bfi	r3, r2, #8, #24
 1048 0124 C7F86831 		str	r3, [r7, #360]
 1049 0128 D7F8B431 		ldr	r3, [r7, #436]
 1050 012c 5B6A     		ldr	r3, [r3, #36]
 1051 012e C7F83831 		str	r3, [r7, #312]
 1052 0132 D7F8B431 		ldr	r3, [r7, #436]
 1053 0136 1B6A     		ldr	r3, [r3, #32]
 1054 0138 C7F83C31 		str	r3, [r7, #316]
 1055 013c D7F8B431 		ldr	r3, [r7, #436]
 1056 0140 DB69     		ldr	r3, [r3, #28]
 1057 0142 C7F84031 		str	r3, [r7, #320]
 1058 0146 D7F8B431 		ldr	r3, [r7, #436]
 1059 014a 9B69     		ldr	r3, [r3, #24]
 1060 014c C7F84431 		str	r3, [r7, #324]
 1061 0150 07F59C73 		add	r3, r7, #312
 1062 0154 C7F86C31 		str	r3, [r7, #364]
 1063 0158 07F5D273 		add	r3, r7, #420
 1064 015c C7F87031 		str	r3, [r7, #368]
 163:Lib/AI_Runtime/Npu/ll_aton/ll_sw_float.c ****                         SHAPE_INIT(sw_info->general.input.dim.tensor_h, sw_info->general.input.dim.
 164:Lib/AI_Runtime/Npu/ll_aton/ll_sw_float.c ****                                    sw_info->general.input.dim.tensor_c, sw_info->general.input.dim.
 165:Lib/AI_Runtime/Npu/ll_aton/ll_sw_float.c ****                         STRIDE_INIT(sw_info->general.input.stride.h, sw_info->general.input.stride.
 166:Lib/AI_Runtime/Npu/ll_aton/ll_sw_float.c ****                                     sw_info->general.input.stride.c, sw_info->general.input.stride.
 167:Lib/AI_Runtime/Npu/ll_aton/ll_sw_float.c ****                         1, &input_output_array, NULL);
 168:Lib/AI_Runtime/Npu/ll_aton/ll_sw_float.c ****   AI_TENSOR_OBJ_DECLARE(gemm_operand_b, , 0x0, 4,
 1065              		.loc 1 168 3
 1066 0160 0023     		movs	r3, #0
 1067 0162 C7F81C31 		str	r3, [r7, #284]
 1068 0166 0023     		movs	r3, #0
 1069 0168 A7F82031 		strh	r3, [r7, #288]	@ movhi
 1070 016c 0423     		movs	r3, #4
 1071 016e 87F82231 		strb	r3, [r7, #290]
 1072 0172 0123     		movs	r3, #1
 1073 0174 87F82331 		strb	r3, [r7, #291]
 1074 0178 0123     		movs	r3, #1
 1075 017a 87F82431 		strb	r3, [r7, #292]
 1076 017e D7F82431 		ldr	r3, [r7, #292]
 1077 0182 0422     		movs	r2, #4
 1078 0184 62F31F23 		bfi	r3, r2, #8, #24
 1079 0188 C7F82431 		str	r3, [r7, #292]
 1080 018c D7F8B431 		ldr	r3, [r7, #436]
 1081 0190 9B6E     		ldr	r3, [r3, #104]
 1082 0192 C7F80C31 		str	r3, [r7, #268]
 1083 0196 D7F8B431 		ldr	r3, [r7, #436]
 1084 019a 5B6E     		ldr	r3, [r3, #100]
 1085 019c C7F81031 		str	r3, [r7, #272]
 1086 01a0 D7F8B431 		ldr	r3, [r7, #436]
 1087 01a4 1B6E     		ldr	r3, [r3, #96]
 1088 01a6 C7F81431 		str	r3, [r7, #276]
 1089 01aa D7F8B431 		ldr	r3, [r7, #436]
ARM GAS  /tmp/ccEo7NLA.s 			page 29


 1090 01ae DB6D     		ldr	r3, [r3, #92]
 1091 01b0 C7F81831 		str	r3, [r7, #280]
 1092 01b4 07F58673 		add	r3, r7, #268
 1093 01b8 C7F82831 		str	r3, [r7, #296]
 1094 01bc 0223     		movs	r3, #2
 1095 01be 87F82C31 		strb	r3, [r7, #300]
 1096 01c2 D7F82C31 		ldr	r3, [r7, #300]
 1097 01c6 0422     		movs	r2, #4
 1098 01c8 62F31F23 		bfi	r3, r2, #8, #24
 1099 01cc C7F82C31 		str	r3, [r7, #300]
 1100 01d0 D7F8B431 		ldr	r3, [r7, #436]
 1101 01d4 DB6F     		ldr	r3, [r3, #124]
 1102 01d6 C7F8FC30 		str	r3, [r7, #252]
 1103 01da D7F8B431 		ldr	r3, [r7, #436]
 1104 01de 9B6F     		ldr	r3, [r3, #120]
 1105 01e0 C7F80031 		str	r3, [r7, #256]
 1106 01e4 D7F8B431 		ldr	r3, [r7, #436]
 1107 01e8 5B6F     		ldr	r3, [r3, #116]
 1108 01ea C7F80431 		str	r3, [r7, #260]
 1109 01ee D7F8B431 		ldr	r3, [r7, #436]
 1110 01f2 1B6F     		ldr	r3, [r3, #112]
 1111 01f4 C7F80831 		str	r3, [r7, #264]
 1112 01f8 07F1FC03 		add	r3, r7, #252
 1113 01fc C7F83031 		str	r3, [r7, #304]
 1114 0200 07F5CA73 		add	r3, r7, #404
 1115 0204 C7F83431 		str	r3, [r7, #308]
 169:Lib/AI_Runtime/Npu/ll_aton/ll_sw_float.c ****                         SHAPE_INIT(sw_info->operand_b.dim.tensor_h, sw_info->operand_b.dim.tensor_w
 170:Lib/AI_Runtime/Npu/ll_aton/ll_sw_float.c ****                                    sw_info->operand_b.dim.tensor_c, sw_info->operand_b.dim.tensor_b
 171:Lib/AI_Runtime/Npu/ll_aton/ll_sw_float.c ****                         STRIDE_INIT(sw_info->operand_b.stride.h, sw_info->operand_b.stride.w,
 172:Lib/AI_Runtime/Npu/ll_aton/ll_sw_float.c ****                                     sw_info->operand_b.stride.c, sw_info->operand_b.stride.b),
 173:Lib/AI_Runtime/Npu/ll_aton/ll_sw_float.c ****                         1, &gemm_operand_b_array, NULL);
 174:Lib/AI_Runtime/Npu/ll_aton/ll_sw_float.c ****   AI_TENSOR_OBJ_DECLARE(gemm_operand_c, , 0x0, 4,
 1116              		.loc 1 174 3
 1117 0208 0023     		movs	r3, #0
 1118 020a C7F8E030 		str	r3, [r7, #224]
 1119 020e 0023     		movs	r3, #0
 1120 0210 A7F8E430 		strh	r3, [r7, #228]	@ movhi
 1121 0214 0423     		movs	r3, #4
 1122 0216 87F8E630 		strb	r3, [r7, #230]
 1123 021a 0123     		movs	r3, #1
 1124 021c 87F8E730 		strb	r3, [r7, #231]
 1125 0220 0123     		movs	r3, #1
 1126 0222 87F8E830 		strb	r3, [r7, #232]
 1127 0226 D7F8E830 		ldr	r3, [r7, #232]
 1128 022a 0422     		movs	r2, #4
 1129 022c 62F31F23 		bfi	r3, r2, #8, #24
 1130 0230 C7F8E830 		str	r3, [r7, #232]
 1131 0234 D7F8B431 		ldr	r3, [r7, #436]
 1132 0238 D3F89430 		ldr	r3, [r3, #148]
 1133 023c C7F8D030 		str	r3, [r7, #208]
 1134 0240 D7F8B431 		ldr	r3, [r7, #436]
 1135 0244 D3F89030 		ldr	r3, [r3, #144]
 1136 0248 C7F8D430 		str	r3, [r7, #212]
 1137 024c D7F8B431 		ldr	r3, [r7, #436]
 1138 0250 D3F88C30 		ldr	r3, [r3, #140]
 1139 0254 C7F8D830 		str	r3, [r7, #216]
 1140 0258 D7F8B431 		ldr	r3, [r7, #436]
ARM GAS  /tmp/ccEo7NLA.s 			page 30


 1141 025c D3F88830 		ldr	r3, [r3, #136]
 1142 0260 C7F8DC30 		str	r3, [r7, #220]
 1143 0264 07F1D003 		add	r3, r7, #208
 1144 0268 C7F8EC30 		str	r3, [r7, #236]
 1145 026c 0223     		movs	r3, #2
 1146 026e 87F8F030 		strb	r3, [r7, #240]
 1147 0272 D7F8F030 		ldr	r3, [r7, #240]
 1148 0276 0422     		movs	r2, #4
 1149 0278 62F31F23 		bfi	r3, r2, #8, #24
 1150 027c C7F8F030 		str	r3, [r7, #240]
 1151 0280 D7F8B431 		ldr	r3, [r7, #436]
 1152 0284 D3F8A830 		ldr	r3, [r3, #168]
 1153 0288 C7F8C030 		str	r3, [r7, #192]
 1154 028c D7F8B431 		ldr	r3, [r7, #436]
 1155 0290 D3F8A430 		ldr	r3, [r3, #164]
 1156 0294 C7F8C430 		str	r3, [r7, #196]
 1157 0298 D7F8B431 		ldr	r3, [r7, #436]
 1158 029c D3F8A030 		ldr	r3, [r3, #160]
 1159 02a0 C7F8C830 		str	r3, [r7, #200]
 1160 02a4 D7F8B431 		ldr	r3, [r7, #436]
 1161 02a8 D3F89C30 		ldr	r3, [r3, #156]
 1162 02ac C7F8CC30 		str	r3, [r7, #204]
 1163 02b0 07F1C003 		add	r3, r7, #192
 1164 02b4 C7F8F430 		str	r3, [r7, #244]
 1165 02b8 07F5C273 		add	r3, r7, #388
 1166 02bc C7F8F830 		str	r3, [r7, #248]
 175:Lib/AI_Runtime/Npu/ll_aton/ll_sw_float.c ****                         SHAPE_INIT(sw_info->operand_c.dim.tensor_h, sw_info->operand_c.dim.tensor_w
 176:Lib/AI_Runtime/Npu/ll_aton/ll_sw_float.c ****                                    sw_info->operand_c.dim.tensor_c, sw_info->operand_c.dim.tensor_b
 177:Lib/AI_Runtime/Npu/ll_aton/ll_sw_float.c ****                         STRIDE_INIT(sw_info->operand_c.stride.h, sw_info->operand_c.stride.w,
 178:Lib/AI_Runtime/Npu/ll_aton/ll_sw_float.c ****                                     sw_info->operand_c.stride.c, sw_info->operand_c.stride.b),
 179:Lib/AI_Runtime/Npu/ll_aton/ll_sw_float.c ****                         1, &gemm_operand_c_array, NULL);
 180:Lib/AI_Runtime/Npu/ll_aton/ll_sw_float.c **** 
 181:Lib/AI_Runtime/Npu/ll_aton/ll_sw_float.c ****   AI_TENSOR_OBJ_DECLARE(gemm_output, , 0x0, 4,
 1167              		.loc 1 181 3
 1168 02c0 07F5DC73 		add	r3, r7, #440
 1169 02c4 A3F58A73 		sub	r3, r3, #276
 1170 02c8 0022     		movs	r2, #0
 1171 02ca 1A60     		str	r2, [r3]
 1172 02cc 07F5DC73 		add	r3, r7, #440
 1173 02d0 A3F58A73 		sub	r3, r3, #276
 1174 02d4 0022     		movs	r2, #0
 1175 02d6 9A80     		strh	r2, [r3, #4]	@ movhi
 1176 02d8 07F5DC73 		add	r3, r7, #440
 1177 02dc A3F58A73 		sub	r3, r3, #276
 1178 02e0 0422     		movs	r2, #4
 1179 02e2 9A71     		strb	r2, [r3, #6]
 1180 02e4 07F5DC73 		add	r3, r7, #440
 1181 02e8 A3F58A73 		sub	r3, r3, #276
 1182 02ec 0122     		movs	r2, #1
 1183 02ee DA71     		strb	r2, [r3, #7]
 1184 02f0 07F5DC73 		add	r3, r7, #440
 1185 02f4 A3F58A73 		sub	r3, r3, #276
 1186 02f8 0122     		movs	r2, #1
 1187 02fa 1A72     		strb	r2, [r3, #8]
 1188 02fc 07F5DC73 		add	r3, r7, #440
 1189 0300 A3F58A72 		sub	r2, r3, #276
 1190 0304 9368     		ldr	r3, [r2, #8]
ARM GAS  /tmp/ccEo7NLA.s 			page 31


 1191 0306 0421     		movs	r1, #4
 1192 0308 61F31F23 		bfi	r3, r1, #8, #24
 1193 030c 9360     		str	r3, [r2, #8]
 1194 030e D7F8B431 		ldr	r3, [r7, #436]
 1195 0312 DA6B     		ldr	r2, [r3, #60]
 1196 0314 07F5DC73 		add	r3, r7, #440
 1197 0318 A3F59273 		sub	r3, r3, #292
 1198 031c 1A60     		str	r2, [r3]
 1199 031e D7F8B431 		ldr	r3, [r7, #436]
 1200 0322 9A6B     		ldr	r2, [r3, #56]
 1201 0324 07F5DC73 		add	r3, r7, #440
 1202 0328 A3F59273 		sub	r3, r3, #292
 1203 032c 5A60     		str	r2, [r3, #4]
 1204 032e D7F8B431 		ldr	r3, [r7, #436]
 1205 0332 5A6B     		ldr	r2, [r3, #52]
 1206 0334 07F5DC73 		add	r3, r7, #440
 1207 0338 A3F59273 		sub	r3, r3, #292
 1208 033c 9A60     		str	r2, [r3, #8]
 1209 033e D7F8B431 		ldr	r3, [r7, #436]
 1210 0342 1A6B     		ldr	r2, [r3, #48]
 1211 0344 07F5DC73 		add	r3, r7, #440
 1212 0348 A3F59273 		sub	r3, r3, #292
 1213 034c DA60     		str	r2, [r3, #12]
 1214 034e 07F5DC73 		add	r3, r7, #440
 1215 0352 A3F58A73 		sub	r3, r3, #276
 1216 0356 07F19402 		add	r2, r7, #148
 1217 035a DA60     		str	r2, [r3, #12]
 1218 035c 07F5DC73 		add	r3, r7, #440
 1219 0360 A3F58A73 		sub	r3, r3, #276
 1220 0364 0222     		movs	r2, #2
 1221 0366 1A74     		strb	r2, [r3, #16]
 1222 0368 07F5DC73 		add	r3, r7, #440
 1223 036c A3F58A72 		sub	r2, r3, #276
 1224 0370 1369     		ldr	r3, [r2, #16]
 1225 0372 0421     		movs	r1, #4
 1226 0374 61F31F23 		bfi	r3, r1, #8, #24
 1227 0378 1361     		str	r3, [r2, #16]
 1228 037a D7F8B431 		ldr	r3, [r7, #436]
 1229 037e 1B6D     		ldr	r3, [r3, #80]
 1230 0380 1A46     		mov	r2, r3
 1231 0382 07F5DC73 		add	r3, r7, #440
 1232 0386 A3F59A73 		sub	r3, r3, #308
 1233 038a 1A60     		str	r2, [r3]
 1234 038c D7F8B431 		ldr	r3, [r7, #436]
 1235 0390 DB6C     		ldr	r3, [r3, #76]
 1236 0392 1A46     		mov	r2, r3
 1237 0394 07F5DC73 		add	r3, r7, #440
 1238 0398 A3F59A73 		sub	r3, r3, #308
 1239 039c 5A60     		str	r2, [r3, #4]
 1240 039e D7F8B431 		ldr	r3, [r7, #436]
 1241 03a2 9B6C     		ldr	r3, [r3, #72]
 1242 03a4 1A46     		mov	r2, r3
 1243 03a6 07F5DC73 		add	r3, r7, #440
 1244 03aa A3F59A73 		sub	r3, r3, #308
 1245 03ae 9A60     		str	r2, [r3, #8]
 1246 03b0 D7F8B431 		ldr	r3, [r7, #436]
 1247 03b4 02E0     		b	.L26
ARM GAS  /tmp/ccEo7NLA.s 			page 32


 1248              	.L27:
 1249 03b6 00BF     		.align	2
 1250              	.L25:
 1251 03b8 40108200 		.word	8523840
 1252              	.L26:
 1253 03bc 5B6C     		ldr	r3, [r3, #68]
 1254 03be 1A46     		mov	r2, r3
 1255 03c0 07F5DC73 		add	r3, r7, #440
 1256 03c4 A3F59A73 		sub	r3, r3, #308
 1257 03c8 DA60     		str	r2, [r3, #12]
 1258 03ca 07F5DC73 		add	r3, r7, #440
 1259 03ce A3F58A73 		sub	r3, r3, #276
 1260 03d2 07F18402 		add	r2, r7, #132
 1261 03d6 5A61     		str	r2, [r3, #20]
 1262 03d8 07F5DC73 		add	r3, r7, #440
 1263 03dc A3F58A73 		sub	r3, r3, #276
 1264 03e0 07F5BA72 		add	r2, r7, #372
 1265 03e4 9A61     		str	r2, [r3, #24]
 182:Lib/AI_Runtime/Npu/ll_aton/ll_sw_float.c ****                         SHAPE_INIT(sw_info->general.output.dim.tensor_h, sw_info->general.output.di
 183:Lib/AI_Runtime/Npu/ll_aton/ll_sw_float.c ****                                    sw_info->general.output.dim.tensor_c, sw_info->general.output.di
 184:Lib/AI_Runtime/Npu/ll_aton/ll_sw_float.c ****                         STRIDE_INIT(sw_info->general.output.stride.h, sw_info->general.output.strid
 185:Lib/AI_Runtime/Npu/ll_aton/ll_sw_float.c ****                                     sw_info->general.output.stride.c, sw_info->general.output.strid
 186:Lib/AI_Runtime/Npu/ll_aton/ll_sw_float.c ****                         1, &gemm_output_array, NULL);
 187:Lib/AI_Runtime/Npu/ll_aton/ll_sw_float.c ****   // tensor chain initialization
 188:Lib/AI_Runtime/Npu/ll_aton/ll_sw_float.c ****   AI_TENSOR_CHAIN_OBJ_DECLARE(
 1266              		.loc 1 188 3
 1267 03e6 07F5DC73 		add	r3, r7, #440
 1268 03ea A3F59E73 		sub	r3, r3, #316
 1269 03ee 0422     		movs	r2, #4
 1270 03f0 1A80     		strh	r2, [r3]	@ movhi
 1271 03f2 07F5DC73 		add	r3, r7, #440
 1272 03f6 A3F59E73 		sub	r3, r3, #316
 1273 03fa 0022     		movs	r2, #0
 1274 03fc 5A80     		strh	r2, [r3, #2]	@ movhi
 1275 03fe 07F5DC73 		add	r3, r7, #440
 1276 0402 A3F5C273 		sub	r3, r3, #388
 1277 0406 0322     		movs	r2, #3
 1278 0408 1A80     		strh	r2, [r3]	@ movhi
 1279 040a 07F5DC73 		add	r3, r7, #440
 1280 040e A3F5C273 		sub	r3, r3, #388
 1281 0412 0022     		movs	r2, #0
 1282 0414 5A80     		strh	r2, [r3, #2]	@ movhi
 1283 0416 07F5DC73 		add	r3, r7, #440
 1284 041a A3F5A473 		sub	r3, r3, #328
 1285 041e 07F5AC72 		add	r2, r7, #344
 1286 0422 1A60     		str	r2, [r3]
 1287 0424 07F5DC73 		add	r3, r7, #440
 1288 0428 A3F5A473 		sub	r3, r3, #328
 1289 042c 07F58E72 		add	r2, r7, #284
 1290 0430 5A60     		str	r2, [r3, #4]
 1291 0432 07F5DC73 		add	r3, r7, #440
 1292 0436 A3F5A473 		sub	r3, r3, #328
 1293 043a 07F1E002 		add	r2, r7, #224
 1294 043e 9A60     		str	r2, [r3, #8]
 1295 0440 07F5DC73 		add	r3, r7, #440
 1296 0444 A3F5C273 		sub	r3, r3, #388
 1297 0448 07F17002 		add	r2, r7, #112
ARM GAS  /tmp/ccEo7NLA.s 			page 33


 1298 044c 5A60     		str	r2, [r3, #4]
 1299 044e 07F5DC73 		add	r3, r7, #440
 1300 0452 A3F5C273 		sub	r3, r3, #388
 1301 0456 0022     		movs	r2, #0
 1302 0458 9A60     		str	r2, [r3, #8]
 1303 045a 07F5DC73 		add	r3, r7, #440
 1304 045e A3F5C273 		sub	r3, r3, #388
 1305 0462 0122     		movs	r2, #1
 1306 0464 9A81     		strh	r2, [r3, #12]	@ movhi
 1307 0466 07F5DC73 		add	r3, r7, #440
 1308 046a A3F5C273 		sub	r3, r3, #388
 1309 046e 0022     		movs	r2, #0
 1310 0470 DA81     		strh	r2, [r3, #14]	@ movhi
 1311 0472 07F5DC73 		add	r3, r7, #440
 1312 0476 A3F5A673 		sub	r3, r3, #332
 1313 047a 07F1A402 		add	r2, r7, #164
 1314 047e 1A60     		str	r2, [r3]
 1315 0480 07F5DC73 		add	r3, r7, #440
 1316 0484 A3F5C273 		sub	r3, r3, #388
 1317 0488 07F16C02 		add	r2, r7, #108
 1318 048c 1A61     		str	r2, [r3, #16]
 1319 048e 07F5DC73 		add	r3, r7, #440
 1320 0492 A3F5C273 		sub	r3, r3, #388
 1321 0496 0022     		movs	r2, #0
 1322 0498 5A61     		str	r2, [r3, #20]
 1323 049a 07F5DC73 		add	r3, r7, #440
 1324 049e A3F5C273 		sub	r3, r3, #388
 1325 04a2 0022     		movs	r2, #0
 1326 04a4 1A83     		strh	r2, [r3, #24]	@ movhi
 1327 04a6 07F5DC73 		add	r3, r7, #440
 1328 04aa A3F5C273 		sub	r3, r3, #388
 1329 04ae 0022     		movs	r2, #0
 1330 04b0 5A83     		strh	r2, [r3, #26]	@ movhi
 1331 04b2 07F5DC73 		add	r3, r7, #440
 1332 04b6 A3F5A873 		sub	r3, r3, #336
 1333 04ba 0022     		movs	r2, #0
 1334 04bc 1A60     		str	r2, [r3]
 1335 04be 07F5DC73 		add	r3, r7, #440
 1336 04c2 A3F5C273 		sub	r3, r3, #388
 1337 04c6 07F16802 		add	r2, r7, #104
 1338 04ca DA61     		str	r2, [r3, #28]
 1339 04cc 07F5DC73 		add	r3, r7, #440
 1340 04d0 A3F5C273 		sub	r3, r3, #388
 1341 04d4 0022     		movs	r2, #0
 1342 04d6 1A62     		str	r2, [r3, #32]
 1343 04d8 07F5DC73 		add	r3, r7, #440
 1344 04dc A3F5C273 		sub	r3, r3, #388
 1345 04e0 0022     		movs	r2, #0
 1346 04e2 9A84     		strh	r2, [r3, #36]	@ movhi
 1347 04e4 07F5DC73 		add	r3, r7, #440
 1348 04e8 A3F5C273 		sub	r3, r3, #388
 1349 04ec 0022     		movs	r2, #0
 1350 04ee DA84     		strh	r2, [r3, #38]	@ movhi
 1351 04f0 07F5DC73 		add	r3, r7, #440
 1352 04f4 A3F5AA73 		sub	r3, r3, #340
 1353 04f8 0022     		movs	r2, #0
 1354 04fa 1A60     		str	r2, [r3]
ARM GAS  /tmp/ccEo7NLA.s 			page 34


 1355 04fc 07F5DC73 		add	r3, r7, #440
 1356 0500 A3F5C273 		sub	r3, r3, #388
 1357 0504 07F16402 		add	r2, r7, #100
 1358 0508 9A62     		str	r2, [r3, #40]
 1359 050a 07F5DC73 		add	r3, r7, #440
 1360 050e A3F5C273 		sub	r3, r3, #388
 1361 0512 0022     		movs	r2, #0
 1362 0514 DA62     		str	r2, [r3, #44]
 1363 0516 07F5DC73 		add	r3, r7, #440
 1364 051a A3F59E73 		sub	r3, r3, #316
 1365 051e 07F13402 		add	r2, r7, #52
 1366 0522 5A60     		str	r2, [r3, #4]
 189:Lib/AI_Runtime/Npu/ll_aton/ll_sw_float.c ****       gemm_chain, , 4,
 190:Lib/AI_Runtime/Npu/ll_aton/ll_sw_float.c ****       AI_TENSOR_LIST_OBJ_INIT(AI_FLAG_NONE, 3, TENSORS(&input_output, &gemm_operand_b, &gemm_operan
 191:Lib/AI_Runtime/Npu/ll_aton/ll_sw_float.c ****       AI_TENSOR_LIST_OBJ_INIT(AI_FLAG_NONE, 1, TENSORS(&gemm_output)), AI_TENSOR_LIST_OBJ_EMPTY,
 192:Lib/AI_Runtime/Npu/ll_aton/ll_sw_float.c ****       AI_TENSOR_LIST_OBJ_EMPTY)
 193:Lib/AI_Runtime/Npu/ll_aton/ll_sw_float.c ****   // layer initialization
 194:Lib/AI_Runtime/Npu/ll_aton/ll_sw_float.c ****   AI_LAYER_OBJ_DECLARE(gemm_layer, 1, GEMM_TYPE, 0x0, NULL, gemm, forward_gemm, &gemm_chain, NULL, 
 1367              		.loc 1 194 3
 1368 0524 07F5DC73 		add	r3, r7, #440
 1369 0528 A3F5D673 		sub	r3, r3, #428
 1370 052c 40F21112 		movw	r2, #273
 1371 0530 1A80     		strh	r2, [r3]	@ movhi
 1372 0532 07F5DC73 		add	r3, r7, #440
 1373 0536 A3F5D673 		sub	r3, r3, #428
 1374 053a 0122     		movs	r2, #1
 1375 053c 5A80     		strh	r2, [r3, #2]	@ movhi
 1376 053e 07F5DC73 		add	r3, r7, #440
 1377 0542 A3F5D673 		sub	r3, r3, #428
 1378 0546 0022     		movs	r2, #0
 1379 0548 5A60     		str	r2, [r3, #4]
 1380 054a 07F5DC73 		add	r3, r7, #440
 1381 054e A3F5D673 		sub	r3, r3, #428
 1382 0552 0022     		movs	r2, #0
 1383 0554 9A60     		str	r2, [r3, #8]
 1384 0556 07F5DC73 		add	r3, r7, #440
 1385 055a A3F5D673 		sub	r3, r3, #428
 1386 055e 0022     		movs	r2, #0
 1387 0560 DA60     		str	r2, [r3, #12]
 1388 0562 07F5DC73 		add	r3, r7, #440
 1389 0566 A3F5D673 		sub	r3, r3, #428
 1390 056a 0022     		movs	r2, #0
 1391 056c 1A61     		str	r2, [r3, #16]
 1392 056e 07F5DC73 		add	r3, r7, #440
 1393 0572 A3F5D673 		sub	r3, r3, #428
 1394 0576 1E4A     		ldr	r2, .L28
 1395 0578 5A61     		str	r2, [r3, #20]
 1396 057a 07F5DC73 		add	r3, r7, #440
 1397 057e A3F5D673 		sub	r3, r3, #428
 1398 0582 07F17C02 		add	r2, r7, #124
 1399 0586 9A61     		str	r2, [r3, #24]
 1400 0588 D7F8B431 		ldr	r3, [r7, #436]
 1401 058c D3F8B420 		ldr	r2, [r3, #180]	@ float
 1402 0590 07F5DC73 		add	r3, r7, #440
 1403 0594 A3F5D673 		sub	r3, r3, #428
 1404 0598 DA61     		str	r2, [r3, #28]	@ float
 1405 059a D7F8B431 		ldr	r3, [r7, #436]
ARM GAS  /tmp/ccEo7NLA.s 			page 35


 1406 059e D3F8B820 		ldr	r2, [r3, #184]	@ float
 1407 05a2 07F5DC73 		add	r3, r7, #440
 1408 05a6 A3F5D673 		sub	r3, r3, #428
 1409 05aa 1A62     		str	r2, [r3, #32]	@ float
 1410 05ac D7F8B431 		ldr	r3, [r7, #436]
 1411 05b0 93F8BC20 		ldrb	r2, [r3, #188]	@ zero_extendqisi2
 1412 05b4 07F5DC73 		add	r3, r7, #440
 1413 05b8 A3F5D673 		sub	r3, r3, #428
 1414 05bc 83F82420 		strb	r2, [r3, #36]
 1415 05c0 D7F8B431 		ldr	r3, [r7, #436]
 1416 05c4 93F8BD20 		ldrb	r2, [r3, #189]	@ zero_extendqisi2
 1417 05c8 07F5DC73 		add	r3, r7, #440
 1418 05cc A3F5D673 		sub	r3, r3, #428
 1419 05d0 83F82520 		strb	r2, [r3, #37]
 195:Lib/AI_Runtime/Npu/ll_aton/ll_sw_float.c ****                        .alpha = sw_info->alpha, .beta = sw_info->beta, .tA = sw_info->tA, .tB = sw_
 196:Lib/AI_Runtime/Npu/ll_aton/ll_sw_float.c ****   gemm_layer.forward(AI_LAYER_OBJ(&gemm_layer));
 1420              		.loc 1 196 13
 1421 05d4 07F5DC73 		add	r3, r7, #440
 1422 05d8 A3F5D673 		sub	r3, r3, #428
 1423 05dc 5B69     		ldr	r3, [r3, #20]
 1424              		.loc 1 196 3
 1425 05de 07F10C02 		add	r2, r7, #12
 1426 05e2 1046     		mov	r0, r2
 1427 05e4 9847     		blx	r3
 1428              	.LVL2:
 197:Lib/AI_Runtime/Npu/ll_aton/ll_sw_float.c **** }
 1429              		.loc 1 197 1
 1430 05e6 00BF     		nop
 1431 05e8 07F5DC77 		add	r7, r7, #440
 1432              		.cfi_def_cfa_offset 8
 1433 05ec BD46     		mov	sp, r7
 1434              		.cfi_def_cfa_register 13
 1435              		@ sp needed
 1436 05ee 80BD     		pop	{r7, pc}
 1437              	.L29:
 1438              		.align	2
 1439              	.L28:
 1440 05f0 00000000 		.word	forward_gemm
 1441              		.cfi_endproc
 1442              	.LFE16:
 1444              		.section	.text.ll_sw_forward_matmul,"ax",%progbits
 1445              		.align	1
 1446              		.global	ll_sw_forward_matmul
 1447              		.syntax unified
 1448              		.thumb
 1449              		.thumb_func
 1451              	ll_sw_forward_matmul:
 1452              	.LFB17:
 198:Lib/AI_Runtime/Npu/ll_aton/ll_sw_float.c **** 
 199:Lib/AI_Runtime/Npu/ll_aton/ll_sw_float.c **** //##########################################################################################
 200:Lib/AI_Runtime/Npu/ll_aton/ll_sw_float.c **** /** MatMul forward function */
 201:Lib/AI_Runtime/Npu/ll_aton/ll_sw_float.c **** void ll_sw_forward_matmul(/* int processor, */ void *sw_info_struct)
 202:Lib/AI_Runtime/Npu/ll_aton/ll_sw_float.c **** {
 1453              		.loc 1 202 1
 1454              		.cfi_startproc
 1455              		@ args = 0, pretend = 0, frame = 352
 1456              		@ frame_needed = 1, uses_anonymous_args = 0
ARM GAS  /tmp/ccEo7NLA.s 			page 36


 1457 0000 80B5     		push	{r7, lr}
 1458              		.cfi_def_cfa_offset 8
 1459              		.cfi_offset 7, -8
 1460              		.cfi_offset 14, -4
 1461 0002 D8B0     		sub	sp, sp, #352
 1462              		.cfi_def_cfa_offset 360
 1463 0004 00AF     		add	r7, sp, #0
 1464              		.cfi_def_cfa_register 7
 1465 0006 07F5B073 		add	r3, r7, #352
 1466 000a A3F5AE73 		sub	r3, r3, #348
 1467 000e 1860     		str	r0, [r3]
 203:Lib/AI_Runtime/Npu/ll_aton/ll_sw_float.c ****   Matmul_sw_info *sw_info = (Matmul_sw_info *)sw_info_struct;
 1468              		.loc 1 203 19
 1469 0010 07F5B073 		add	r3, r7, #352
 1470 0014 A3F5AE73 		sub	r3, r3, #348
 1471 0018 1B68     		ldr	r3, [r3]
 1472 001a C7F85C31 		str	r3, [r7, #348]
 204:Lib/AI_Runtime/Npu/ll_aton/ll_sw_float.c ****   // array init
 205:Lib/AI_Runtime/Npu/ll_aton/ll_sw_float.c ****   AI_ARRAY_OBJ_DECLARE(input_output_array, FORMAT, sw_info->general.input.mem.start_offset,
 1473              		.loc 1 205 3
 1474 001e E14B     		ldr	r3, .L31
 1475 0020 C7F84C31 		str	r3, [r7, #332]
 1476 0024 D7F85C31 		ldr	r3, [r7, #348]
 1477 0028 5B69     		ldr	r3, [r3, #20]
 1478 002a C7F85031 		str	r3, [r7, #336]
 1479 002e D7F85C31 		ldr	r3, [r7, #348]
 1480 0032 9B6A     		ldr	r3, [r3, #40]
 1481 0034 C7F85431 		str	r3, [r7, #340]
 1482 0038 D7F85C31 		ldr	r3, [r7, #348]
 1483 003c 9B6A     		ldr	r3, [r3, #40]
 1484 003e C7F85831 		str	r3, [r7, #344]
 206:Lib/AI_Runtime/Npu/ll_aton/ll_sw_float.c ****                        sw_info->general.input.mem.start_offset, sw_info->general.input.dim.num_elem
 207:Lib/AI_Runtime/Npu/ll_aton/ll_sw_float.c **** 
 208:Lib/AI_Runtime/Npu/ll_aton/ll_sw_float.c ****   AI_ARRAY_OBJ_DECLARE(matmul_operand_b_array, FORMAT, sw_info->operand_b.mem.start_offset,
 1485              		.loc 1 208 3
 1486 0042 D84B     		ldr	r3, .L31
 1487 0044 C7F83C31 		str	r3, [r7, #316]
 1488 0048 D7F85C31 		ldr	r3, [r7, #348]
 1489 004c DB6E     		ldr	r3, [r3, #108]
 1490 004e C7F84031 		str	r3, [r7, #320]
 1491 0052 D7F85C31 		ldr	r3, [r7, #348]
 1492 0056 D3F88030 		ldr	r3, [r3, #128]
 1493 005a C7F84431 		str	r3, [r7, #324]
 1494 005e D7F85C31 		ldr	r3, [r7, #348]
 1495 0062 D3F88030 		ldr	r3, [r3, #128]
 1496 0066 C7F84831 		str	r3, [r7, #328]
 209:Lib/AI_Runtime/Npu/ll_aton/ll_sw_float.c ****                        sw_info->operand_b.mem.start_offset, sw_info->operand_b.dim.num_elem, )
 210:Lib/AI_Runtime/Npu/ll_aton/ll_sw_float.c **** 
 211:Lib/AI_Runtime/Npu/ll_aton/ll_sw_float.c ****   AI_ARRAY_OBJ_DECLARE(matmul_output_array, FORMAT, sw_info->general.output.mem.start_offset,
 1497              		.loc 1 211 3
 1498 006a CE4B     		ldr	r3, .L31
 1499 006c C7F82C31 		str	r3, [r7, #300]
 1500 0070 D7F85C31 		ldr	r3, [r7, #348]
 1501 0074 1B6C     		ldr	r3, [r3, #64]
 1502 0076 C7F83031 		str	r3, [r7, #304]
 1503 007a D7F85C31 		ldr	r3, [r7, #348]
 1504 007e 5B6D     		ldr	r3, [r3, #84]
ARM GAS  /tmp/ccEo7NLA.s 			page 37


 1505 0080 C7F83431 		str	r3, [r7, #308]
 1506 0084 D7F85C31 		ldr	r3, [r7, #348]
 1507 0088 5B6D     		ldr	r3, [r3, #84]
 1508 008a C7F83831 		str	r3, [r7, #312]
 212:Lib/AI_Runtime/Npu/ll_aton/ll_sw_float.c ****                        sw_info->general.output.mem.start_offset, sw_info->general.output.dim.num_el
 213:Lib/AI_Runtime/Npu/ll_aton/ll_sw_float.c **** 
 214:Lib/AI_Runtime/Npu/ll_aton/ll_sw_float.c ****   AI_TENSOR_OBJ_DECLARE(input_output, , 0x0, 4,
 1509              		.loc 1 214 3
 1510 008e 0023     		movs	r3, #0
 1511 0090 C7F81031 		str	r3, [r7, #272]
 1512 0094 0023     		movs	r3, #0
 1513 0096 A7F81431 		strh	r3, [r7, #276]	@ movhi
 1514 009a 0423     		movs	r3, #4
 1515 009c 87F81631 		strb	r3, [r7, #278]
 1516 00a0 0123     		movs	r3, #1
 1517 00a2 87F81731 		strb	r3, [r7, #279]
 1518 00a6 0123     		movs	r3, #1
 1519 00a8 87F81831 		strb	r3, [r7, #280]
 1520 00ac D7F81831 		ldr	r3, [r7, #280]
 1521 00b0 0422     		movs	r2, #4
 1522 00b2 62F31F23 		bfi	r3, r2, #8, #24
 1523 00b6 C7F81831 		str	r3, [r7, #280]
 1524 00ba D7F85C31 		ldr	r3, [r7, #348]
 1525 00be 1B69     		ldr	r3, [r3, #16]
 1526 00c0 C7F80031 		str	r3, [r7, #256]
 1527 00c4 D7F85C31 		ldr	r3, [r7, #348]
 1528 00c8 DB68     		ldr	r3, [r3, #12]
 1529 00ca C7F80431 		str	r3, [r7, #260]
 1530 00ce D7F85C31 		ldr	r3, [r7, #348]
 1531 00d2 9B68     		ldr	r3, [r3, #8]
 1532 00d4 C7F80831 		str	r3, [r7, #264]
 1533 00d8 D7F85C31 		ldr	r3, [r7, #348]
 1534 00dc 5B68     		ldr	r3, [r3, #4]
 1535 00de C7F80C31 		str	r3, [r7, #268]
 1536 00e2 07F58073 		add	r3, r7, #256
 1537 00e6 C7F81C31 		str	r3, [r7, #284]
 1538 00ea 0223     		movs	r3, #2
 1539 00ec 87F82031 		strb	r3, [r7, #288]
 1540 00f0 D7F82031 		ldr	r3, [r7, #288]
 1541 00f4 0422     		movs	r2, #4
 1542 00f6 62F31F23 		bfi	r3, r2, #8, #24
 1543 00fa C7F82031 		str	r3, [r7, #288]
 1544 00fe D7F85C31 		ldr	r3, [r7, #348]
 1545 0102 5B6A     		ldr	r3, [r3, #36]
 1546 0104 C7F8F030 		str	r3, [r7, #240]
 1547 0108 D7F85C31 		ldr	r3, [r7, #348]
 1548 010c 1B6A     		ldr	r3, [r3, #32]
 1549 010e C7F8F430 		str	r3, [r7, #244]
 1550 0112 D7F85C31 		ldr	r3, [r7, #348]
 1551 0116 DB69     		ldr	r3, [r3, #28]
 1552 0118 C7F8F830 		str	r3, [r7, #248]
 1553 011c D7F85C31 		ldr	r3, [r7, #348]
 1554 0120 9B69     		ldr	r3, [r3, #24]
 1555 0122 C7F8FC30 		str	r3, [r7, #252]
 1556 0126 07F1F003 		add	r3, r7, #240
 1557 012a C7F82431 		str	r3, [r7, #292]
 1558 012e 07F5A673 		add	r3, r7, #332
ARM GAS  /tmp/ccEo7NLA.s 			page 38


 1559 0132 C7F82831 		str	r3, [r7, #296]
 215:Lib/AI_Runtime/Npu/ll_aton/ll_sw_float.c ****                         SHAPE_INIT(sw_info->general.input.dim.tensor_h, sw_info->general.input.dim.
 216:Lib/AI_Runtime/Npu/ll_aton/ll_sw_float.c ****                                    sw_info->general.input.dim.tensor_c, sw_info->general.input.dim.
 217:Lib/AI_Runtime/Npu/ll_aton/ll_sw_float.c ****                         STRIDE_INIT(sw_info->general.input.stride.h, sw_info->general.input.stride.
 218:Lib/AI_Runtime/Npu/ll_aton/ll_sw_float.c ****                                     sw_info->general.input.stride.c, sw_info->general.input.stride.
 219:Lib/AI_Runtime/Npu/ll_aton/ll_sw_float.c ****                         1, &input_output_array, NULL);
 220:Lib/AI_Runtime/Npu/ll_aton/ll_sw_float.c ****   AI_TENSOR_OBJ_DECLARE(matmul_operand_b, , 0x0, 4,
 1560              		.loc 1 220 3
 1561 0136 0023     		movs	r3, #0
 1562 0138 C7F8D430 		str	r3, [r7, #212]
 1563 013c 0023     		movs	r3, #0
 1564 013e A7F8D830 		strh	r3, [r7, #216]	@ movhi
 1565 0142 0423     		movs	r3, #4
 1566 0144 87F8DA30 		strb	r3, [r7, #218]
 1567 0148 0123     		movs	r3, #1
 1568 014a 87F8DB30 		strb	r3, [r7, #219]
 1569 014e 0123     		movs	r3, #1
 1570 0150 87F8DC30 		strb	r3, [r7, #220]
 1571 0154 D7F8DC30 		ldr	r3, [r7, #220]
 1572 0158 0422     		movs	r2, #4
 1573 015a 62F31F23 		bfi	r3, r2, #8, #24
 1574 015e C7F8DC30 		str	r3, [r7, #220]
 1575 0162 D7F85C31 		ldr	r3, [r7, #348]
 1576 0166 9B6E     		ldr	r3, [r3, #104]
 1577 0168 C7F8C430 		str	r3, [r7, #196]
 1578 016c D7F85C31 		ldr	r3, [r7, #348]
 1579 0170 5B6E     		ldr	r3, [r3, #100]
 1580 0172 C7F8C830 		str	r3, [r7, #200]
 1581 0176 D7F85C31 		ldr	r3, [r7, #348]
 1582 017a 1B6E     		ldr	r3, [r3, #96]
 1583 017c C7F8CC30 		str	r3, [r7, #204]
 1584 0180 D7F85C31 		ldr	r3, [r7, #348]
 1585 0184 DB6D     		ldr	r3, [r3, #92]
 1586 0186 C7F8D030 		str	r3, [r7, #208]
 1587 018a 07F1C403 		add	r3, r7, #196
 1588 018e C7F8E030 		str	r3, [r7, #224]
 1589 0192 0223     		movs	r3, #2
 1590 0194 87F8E430 		strb	r3, [r7, #228]
 1591 0198 D7F8E430 		ldr	r3, [r7, #228]
 1592 019c 0422     		movs	r2, #4
 1593 019e 62F31F23 		bfi	r3, r2, #8, #24
 1594 01a2 C7F8E430 		str	r3, [r7, #228]
 1595 01a6 D7F85C31 		ldr	r3, [r7, #348]
 1596 01aa DB6F     		ldr	r3, [r3, #124]
 1597 01ac C7F8B430 		str	r3, [r7, #180]
 1598 01b0 D7F85C31 		ldr	r3, [r7, #348]
 1599 01b4 9B6F     		ldr	r3, [r3, #120]
 1600 01b6 C7F8B830 		str	r3, [r7, #184]
 1601 01ba D7F85C31 		ldr	r3, [r7, #348]
 1602 01be 5B6F     		ldr	r3, [r3, #116]
 1603 01c0 C7F8BC30 		str	r3, [r7, #188]
 1604 01c4 D7F85C31 		ldr	r3, [r7, #348]
 1605 01c8 1B6F     		ldr	r3, [r3, #112]
 1606 01ca C7F8C030 		str	r3, [r7, #192]
 1607 01ce 07F1B403 		add	r3, r7, #180
 1608 01d2 C7F8E830 		str	r3, [r7, #232]
 1609 01d6 07F59E73 		add	r3, r7, #316
ARM GAS  /tmp/ccEo7NLA.s 			page 39


 1610 01da C7F8EC30 		str	r3, [r7, #236]
 221:Lib/AI_Runtime/Npu/ll_aton/ll_sw_float.c ****                         SHAPE_INIT(sw_info->operand_b.dim.tensor_h, sw_info->operand_b.dim.tensor_w
 222:Lib/AI_Runtime/Npu/ll_aton/ll_sw_float.c ****                                    sw_info->operand_b.dim.tensor_c, sw_info->operand_b.dim.tensor_b
 223:Lib/AI_Runtime/Npu/ll_aton/ll_sw_float.c ****                         STRIDE_INIT(sw_info->operand_b.stride.h, sw_info->operand_b.stride.w,
 224:Lib/AI_Runtime/Npu/ll_aton/ll_sw_float.c ****                                     sw_info->operand_b.stride.c, sw_info->operand_b.stride.b),
 225:Lib/AI_Runtime/Npu/ll_aton/ll_sw_float.c ****                         1, &matmul_operand_b_array, NULL);
 226:Lib/AI_Runtime/Npu/ll_aton/ll_sw_float.c **** 
 227:Lib/AI_Runtime/Npu/ll_aton/ll_sw_float.c ****   AI_TENSOR_OBJ_DECLARE(matmul_output, , 0x0, 4,
 1611              		.loc 1 227 3
 1612 01de 0023     		movs	r3, #0
 1613 01e0 C7F89830 		str	r3, [r7, #152]
 1614 01e4 0023     		movs	r3, #0
 1615 01e6 A7F89C30 		strh	r3, [r7, #156]	@ movhi
 1616 01ea 0423     		movs	r3, #4
 1617 01ec 87F89E30 		strb	r3, [r7, #158]
 1618 01f0 0123     		movs	r3, #1
 1619 01f2 87F89F30 		strb	r3, [r7, #159]
 1620 01f6 0123     		movs	r3, #1
 1621 01f8 87F8A030 		strb	r3, [r7, #160]
 1622 01fc D7F8A030 		ldr	r3, [r7, #160]
 1623 0200 0422     		movs	r2, #4
 1624 0202 62F31F23 		bfi	r3, r2, #8, #24
 1625 0206 C7F8A030 		str	r3, [r7, #160]
 1626 020a D7F85C31 		ldr	r3, [r7, #348]
 1627 020e DB6B     		ldr	r3, [r3, #60]
 1628 0210 C7F88830 		str	r3, [r7, #136]
 1629 0214 D7F85C31 		ldr	r3, [r7, #348]
 1630 0218 9B6B     		ldr	r3, [r3, #56]
 1631 021a C7F88C30 		str	r3, [r7, #140]
 1632 021e D7F85C31 		ldr	r3, [r7, #348]
 1633 0222 5B6B     		ldr	r3, [r3, #52]
 1634 0224 C7F89030 		str	r3, [r7, #144]
 1635 0228 D7F85C31 		ldr	r3, [r7, #348]
 1636 022c 1B6B     		ldr	r3, [r3, #48]
 1637 022e C7F89430 		str	r3, [r7, #148]
 1638 0232 07F18803 		add	r3, r7, #136
 1639 0236 C7F8A430 		str	r3, [r7, #164]
 1640 023a 0223     		movs	r3, #2
 1641 023c 87F8A830 		strb	r3, [r7, #168]
 1642 0240 D7F8A830 		ldr	r3, [r7, #168]
 1643 0244 0422     		movs	r2, #4
 1644 0246 62F31F23 		bfi	r3, r2, #8, #24
 1645 024a C7F8A830 		str	r3, [r7, #168]
 1646 024e D7F85C31 		ldr	r3, [r7, #348]
 1647 0252 1B6D     		ldr	r3, [r3, #80]
 1648 0254 BB67     		str	r3, [r7, #120]
 1649 0256 D7F85C31 		ldr	r3, [r7, #348]
 1650 025a DB6C     		ldr	r3, [r3, #76]
 1651 025c FB67     		str	r3, [r7, #124]
 1652 025e D7F85C31 		ldr	r3, [r7, #348]
 1653 0262 9B6C     		ldr	r3, [r3, #72]
 1654 0264 C7F88030 		str	r3, [r7, #128]
 1655 0268 D7F85C31 		ldr	r3, [r7, #348]
 1656 026c 5B6C     		ldr	r3, [r3, #68]
 1657 026e C7F88430 		str	r3, [r7, #132]
 1658 0272 07F17803 		add	r3, r7, #120
 1659 0276 C7F8AC30 		str	r3, [r7, #172]
ARM GAS  /tmp/ccEo7NLA.s 			page 40


 1660 027a 07F59673 		add	r3, r7, #300
 1661 027e C7F8B030 		str	r3, [r7, #176]
 228:Lib/AI_Runtime/Npu/ll_aton/ll_sw_float.c ****                         SHAPE_INIT(sw_info->general.output.dim.tensor_h, sw_info->general.output.di
 229:Lib/AI_Runtime/Npu/ll_aton/ll_sw_float.c ****                                    sw_info->general.output.dim.tensor_c, sw_info->general.output.di
 230:Lib/AI_Runtime/Npu/ll_aton/ll_sw_float.c ****                         STRIDE_INIT(sw_info->general.output.stride.h, sw_info->general.output.strid
 231:Lib/AI_Runtime/Npu/ll_aton/ll_sw_float.c ****                                     sw_info->general.output.stride.c, sw_info->general.output.strid
 232:Lib/AI_Runtime/Npu/ll_aton/ll_sw_float.c ****                         1, &matmul_output_array, NULL);
 233:Lib/AI_Runtime/Npu/ll_aton/ll_sw_float.c ****   // tensor chain initialization
 234:Lib/AI_Runtime/Npu/ll_aton/ll_sw_float.c ****   AI_TENSOR_CHAIN_OBJ_DECLARE(matmul_chain, , 4,
 1662              		.loc 1 234 3
 1663 0282 0423     		movs	r3, #4
 1664 0284 A7F87030 		strh	r3, [r7, #112]	@ movhi
 1665 0288 0023     		movs	r3, #0
 1666 028a A7F87230 		strh	r3, [r7, #114]	@ movhi
 1667 028e 07F5B073 		add	r3, r7, #352
 1668 0292 A3F59A73 		sub	r3, r3, #308
 1669 0296 0222     		movs	r2, #2
 1670 0298 1A80     		strh	r2, [r3]	@ movhi
 1671 029a 07F5B073 		add	r3, r7, #352
 1672 029e A3F59A73 		sub	r3, r3, #308
 1673 02a2 0022     		movs	r2, #0
 1674 02a4 5A80     		strh	r2, [r3, #2]	@ movhi
 1675 02a6 07F58873 		add	r3, r7, #272
 1676 02aa BB66     		str	r3, [r7, #104]
 1677 02ac 07F1D403 		add	r3, r7, #212
 1678 02b0 FB66     		str	r3, [r7, #108]
 1679 02b2 07F5B073 		add	r3, r7, #352
 1680 02b6 A3F59A73 		sub	r3, r3, #308
 1681 02ba 07F16802 		add	r2, r7, #104
 1682 02be 5A60     		str	r2, [r3, #4]
 1683 02c0 07F5B073 		add	r3, r7, #352
 1684 02c4 A3F59A73 		sub	r3, r3, #308
 1685 02c8 0022     		movs	r2, #0
 1686 02ca 9A60     		str	r2, [r3, #8]
 1687 02cc 07F5B073 		add	r3, r7, #352
 1688 02d0 A3F59A73 		sub	r3, r3, #308
 1689 02d4 0122     		movs	r2, #1
 1690 02d6 9A81     		strh	r2, [r3, #12]	@ movhi
 1691 02d8 07F5B073 		add	r3, r7, #352
 1692 02dc A3F59A73 		sub	r3, r3, #308
 1693 02e0 0022     		movs	r2, #0
 1694 02e2 DA81     		strh	r2, [r3, #14]	@ movhi
 1695 02e4 07F19803 		add	r3, r7, #152
 1696 02e8 7B66     		str	r3, [r7, #100]
 1697 02ea 07F5B073 		add	r3, r7, #352
 1698 02ee A3F59A73 		sub	r3, r3, #308
 1699 02f2 07F16402 		add	r2, r7, #100
 1700 02f6 1A61     		str	r2, [r3, #16]
 1701 02f8 07F5B073 		add	r3, r7, #352
 1702 02fc A3F59A73 		sub	r3, r3, #308
 1703 0300 0022     		movs	r2, #0
 1704 0302 5A61     		str	r2, [r3, #20]
 1705 0304 07F5B073 		add	r3, r7, #352
 1706 0308 A3F59A73 		sub	r3, r3, #308
 1707 030c 0022     		movs	r2, #0
 1708 030e 1A83     		strh	r2, [r3, #24]	@ movhi
 1709 0310 07F5B073 		add	r3, r7, #352
ARM GAS  /tmp/ccEo7NLA.s 			page 41


 1710 0314 A3F59A73 		sub	r3, r3, #308
 1711 0318 0022     		movs	r2, #0
 1712 031a 5A83     		strh	r2, [r3, #26]	@ movhi
 1713 031c 07F5B073 		add	r3, r7, #352
 1714 0320 A3F58073 		sub	r3, r3, #256
 1715 0324 0022     		movs	r2, #0
 1716 0326 1A60     		str	r2, [r3]
 1717 0328 07F5B073 		add	r3, r7, #352
 1718 032c A3F59A73 		sub	r3, r3, #308
 1719 0330 07F16002 		add	r2, r7, #96
 1720 0334 DA61     		str	r2, [r3, #28]
 1721 0336 07F5B073 		add	r3, r7, #352
 1722 033a A3F59A73 		sub	r3, r3, #308
 1723 033e 0022     		movs	r2, #0
 1724 0340 1A62     		str	r2, [r3, #32]
 1725 0342 07F5B073 		add	r3, r7, #352
 1726 0346 A3F59A73 		sub	r3, r3, #308
 1727 034a 0022     		movs	r2, #0
 1728 034c 9A84     		strh	r2, [r3, #36]	@ movhi
 1729 034e 07F5B073 		add	r3, r7, #352
 1730 0352 A3F59A73 		sub	r3, r3, #308
 1731 0356 0022     		movs	r2, #0
 1732 0358 DA84     		strh	r2, [r3, #38]	@ movhi
 1733 035a 07F5B073 		add	r3, r7, #352
 1734 035e A3F58273 		sub	r3, r3, #260
 1735 0362 0022     		movs	r2, #0
 1736 0364 1A60     		str	r2, [r3]
 1737 0366 07F5B073 		add	r3, r7, #352
 1738 036a A3F59A73 		sub	r3, r3, #308
 1739 036e 07F15C02 		add	r2, r7, #92
 1740 0372 9A62     		str	r2, [r3, #40]
 1741 0374 07F5B073 		add	r3, r7, #352
 1742 0378 A3F59A73 		sub	r3, r3, #308
 1743 037c 0022     		movs	r2, #0
 1744 037e DA62     		str	r2, [r3, #44]
 1745 0380 07F12C03 		add	r3, r7, #44
 1746 0384 7B67     		str	r3, [r7, #116]
 235:Lib/AI_Runtime/Npu/ll_aton/ll_sw_float.c ****                               AI_TENSOR_LIST_OBJ_INIT(AI_FLAG_NONE, 2, TENSORS(&input_output, &matm
 236:Lib/AI_Runtime/Npu/ll_aton/ll_sw_float.c ****                               AI_TENSOR_LIST_OBJ_INIT(AI_FLAG_NONE, 1, TENSORS(&matmul_output)),
 237:Lib/AI_Runtime/Npu/ll_aton/ll_sw_float.c ****                               AI_TENSOR_LIST_OBJ_EMPTY, AI_TENSOR_LIST_OBJ_EMPTY)
 238:Lib/AI_Runtime/Npu/ll_aton/ll_sw_float.c ****   // layer initialization
 239:Lib/AI_Runtime/Npu/ll_aton/ll_sw_float.c ****   AI_LAYER_OBJ_DECLARE(matmul_layer, 1, NL_TYPE, 0x0, NULL, nl, forward_matmul, &matmul_chain, NULL
 1747              		.loc 1 239 3
 1748 0386 07F5B073 		add	r3, r7, #352
 1749 038a A3F5AA73 		sub	r3, r3, #340
 1750 038e 1846     		mov	r0, r3
 1751 0390 2023     		movs	r3, #32
 1752 0392 1A46     		mov	r2, r3
 1753 0394 0021     		movs	r1, #0
 1754 0396 FFF7FEFF 		bl	memset
 1755 039a 07F5B073 		add	r3, r7, #352
 1756 039e A3F5AA73 		sub	r3, r3, #340
 1757 03a2 01E0     		b	.L32
 1758              	.L33:
 1759              		.align	2
 1760              	.L31:
 1761 03a4 40108200 		.word	8523840
ARM GAS  /tmp/ccEo7NLA.s 			page 42


 1762              	.L32:
 1763 03a8 40F20712 		movw	r2, #263
 1764 03ac 1A80     		strh	r2, [r3]	@ movhi
 1765 03ae 07F5B073 		add	r3, r7, #352
 1766 03b2 A3F5AA73 		sub	r3, r3, #340
 1767 03b6 0122     		movs	r2, #1
 1768 03b8 5A80     		strh	r2, [r3, #2]	@ movhi
 1769 03ba 07F5B073 		add	r3, r7, #352
 1770 03be A3F5AA73 		sub	r3, r3, #340
 1771 03c2 0B4A     		ldr	r2, .L34
 1772 03c4 5A61     		str	r2, [r3, #20]
 1773 03c6 07F5B073 		add	r3, r7, #352
 1774 03ca A3F5AA73 		sub	r3, r3, #340
 1775 03ce 07F17002 		add	r2, r7, #112
 1776 03d2 9A61     		str	r2, [r3, #24]
 240:Lib/AI_Runtime/Npu/ll_aton/ll_sw_float.c ****   matmul_layer.forward(AI_LAYER_OBJ(&matmul_layer));
 1777              		.loc 1 240 15
 1778 03d4 07F5B073 		add	r3, r7, #352
 1779 03d8 A3F5AA73 		sub	r3, r3, #340
 1780 03dc 5B69     		ldr	r3, [r3, #20]
 1781              		.loc 1 240 3
 1782 03de 07F10C02 		add	r2, r7, #12
 1783 03e2 1046     		mov	r0, r2
 1784 03e4 9847     		blx	r3
 1785              	.LVL3:
 241:Lib/AI_Runtime/Npu/ll_aton/ll_sw_float.c **** }
 1786              		.loc 1 241 1
 1787 03e6 00BF     		nop
 1788 03e8 07F5B077 		add	r7, r7, #352
 1789              		.cfi_def_cfa_offset 8
 1790 03ec BD46     		mov	sp, r7
 1791              		.cfi_def_cfa_register 13
 1792              		@ sp needed
 1793 03ee 80BD     		pop	{r7, pc}
 1794              	.L35:
 1795              		.align	2
 1796              	.L34:
 1797 03f0 00000000 		.word	forward_matmul
 1798              		.cfi_endproc
 1799              	.LFE17:
 1801              		.section	.text.ll_sw_forward_resize,"ax",%progbits
 1802              		.align	1
 1803              		.global	ll_sw_forward_resize
 1804              		.syntax unified
 1805              		.thumb
 1806              		.thumb_func
 1808              	ll_sw_forward_resize:
 1809              	.LFB18:
 242:Lib/AI_Runtime/Npu/ll_aton/ll_sw_float.c **** 
 243:Lib/AI_Runtime/Npu/ll_aton/ll_sw_float.c **** //##########################################################################################
 244:Lib/AI_Runtime/Npu/ll_aton/ll_sw_float.c **** /** Resize forward function */
 245:Lib/AI_Runtime/Npu/ll_aton/ll_sw_float.c **** void ll_sw_forward_resize(/* int processor, */ void *sw_info_struct)
 246:Lib/AI_Runtime/Npu/ll_aton/ll_sw_float.c **** {
 1810              		.loc 1 246 1
 1811              		.cfi_startproc
 1812              		@ args = 0, pretend = 0, frame = 440
 1813              		@ frame_needed = 1, uses_anonymous_args = 0
ARM GAS  /tmp/ccEo7NLA.s 			page 43


 1814 0000 80B5     		push	{r7, lr}
 1815              		.cfi_def_cfa_offset 8
 1816              		.cfi_offset 7, -8
 1817              		.cfi_offset 14, -4
 1818 0002 EEB0     		sub	sp, sp, #440
 1819              		.cfi_def_cfa_offset 448
 1820 0004 00AF     		add	r7, sp, #0
 1821              		.cfi_def_cfa_register 7
 1822 0006 07F5DC73 		add	r3, r7, #440
 1823 000a A3F5DA73 		sub	r3, r3, #436
 1824 000e 1860     		str	r0, [r3]
 247:Lib/AI_Runtime/Npu/ll_aton/ll_sw_float.c ****   Resize_sw_info *sw_info = (Resize_sw_info *)sw_info_struct;
 1825              		.loc 1 247 19
 1826 0010 07F5DC73 		add	r3, r7, #440
 1827 0014 A3F5DA73 		sub	r3, r3, #436
 1828 0018 1B68     		ldr	r3, [r3]
 1829 001a C7F8B031 		str	r3, [r7, #432]
 248:Lib/AI_Runtime/Npu/ll_aton/ll_sw_float.c ****   // array init
 249:Lib/AI_Runtime/Npu/ll_aton/ll_sw_float.c ****   AI_ARRAY_OBJ_DECLARE(input_output_array, FORMAT, sw_info->general.input.mem.start_offset,
 1830              		.loc 1 249 3
 1831 001e E24B     		ldr	r3, .L41
 1832 0020 C7F89831 		str	r3, [r7, #408]
 1833 0024 D7F8B031 		ldr	r3, [r7, #432]
 1834 0028 5B69     		ldr	r3, [r3, #20]
 1835 002a C7F89C31 		str	r3, [r7, #412]
 1836 002e D7F8B031 		ldr	r3, [r7, #432]
 1837 0032 9B6A     		ldr	r3, [r3, #40]
 1838 0034 C7F8A031 		str	r3, [r7, #416]
 1839 0038 D7F8B031 		ldr	r3, [r7, #432]
 1840 003c 9B6A     		ldr	r3, [r3, #40]
 1841 003e C7F8A431 		str	r3, [r7, #420]
 250:Lib/AI_Runtime/Npu/ll_aton/ll_sw_float.c ****                        sw_info->general.input.mem.start_offset, sw_info->general.input.dim.num_elem
 251:Lib/AI_Runtime/Npu/ll_aton/ll_sw_float.c **** 
 252:Lib/AI_Runtime/Npu/ll_aton/ll_sw_float.c ****   AI_ARRAY_OBJ_DECLARE(resize_scales_array, FORMAT, sw_info->scales.mem.start_offset, sw_info->scal
 1842              		.loc 1 252 3
 1843 0042 D94B     		ldr	r3, .L41
 1844 0044 C7F88831 		str	r3, [r7, #392]
 1845 0048 D7F8B031 		ldr	r3, [r7, #432]
 1846 004c DB6E     		ldr	r3, [r3, #108]
 1847 004e C7F88C31 		str	r3, [r7, #396]
 1848 0052 D7F8B031 		ldr	r3, [r7, #432]
 1849 0056 D3F88030 		ldr	r3, [r3, #128]
 1850 005a C7F89031 		str	r3, [r7, #400]
 1851 005e D7F8B031 		ldr	r3, [r7, #432]
 1852 0062 D3F88030 		ldr	r3, [r3, #128]
 1853 0066 C7F89431 		str	r3, [r7, #404]
 253:Lib/AI_Runtime/Npu/ll_aton/ll_sw_float.c ****                        sw_info->scales.dim.num_elem, )
 254:Lib/AI_Runtime/Npu/ll_aton/ll_sw_float.c **** 
 255:Lib/AI_Runtime/Npu/ll_aton/ll_sw_float.c ****   ai_array *resize_roi_array_ptr = NULL;
 1854              		.loc 1 255 13
 1855 006a 0023     		movs	r3, #0
 1856 006c C7F8B431 		str	r3, [r7, #436]
 256:Lib/AI_Runtime/Npu/ll_aton/ll_sw_float.c ****   ai_array resize_roi_array;
 257:Lib/AI_Runtime/Npu/ll_aton/ll_sw_float.c ****   if (sw_info->roi.mem.start_offset != NULL)
 1857              		.loc 1 257 23
 1858 0070 D7F8B031 		ldr	r3, [r7, #432]
 1859 0074 D3F8AC30 		ldr	r3, [r3, #172]
ARM GAS  /tmp/ccEo7NLA.s 			page 44


 1860              		.loc 1 257 6
 1861 0078 002B     		cmp	r3, #0
 1862 007a 18D0     		beq	.L37
 1863              	.LBB4:
 258:Lib/AI_Runtime/Npu/ll_aton/ll_sw_float.c ****   {
 259:Lib/AI_Runtime/Npu/ll_aton/ll_sw_float.c ****     resize_roi_array = (ai_array)AI_ARRAY_OBJ_INIT(FORMAT, sw_info->roi.mem.start_offset, sw_info->
 1864              		.loc 1 259 34
 1865 007c D7F8B031 		ldr	r3, [r7, #432]
 1866 0080 D3F89810 		ldr	r1, [r3, #152]
 1867 0084 D7F8B031 		ldr	r3, [r7, #432]
 1868 0088 D3F8AC20 		ldr	r2, [r3, #172]
 1869 008c D7F8B031 		ldr	r3, [r7, #432]
 1870 0090 D3F8AC30 		ldr	r3, [r3, #172]
 1871              		.loc 1 259 22
 1872 0094 C448     		ldr	r0, .L41
 1873 0096 C7F87801 		str	r0, [r7, #376]
 1874 009a C7F87C11 		str	r1, [r7, #380]
 1875 009e C7F88021 		str	r2, [r7, #384]
 1876 00a2 C7F88431 		str	r3, [r7, #388]
 260:Lib/AI_Runtime/Npu/ll_aton/ll_sw_float.c ****                                                    sw_info->roi.dim.num_elem);
 261:Lib/AI_Runtime/Npu/ll_aton/ll_sw_float.c ****     resize_roi_array_ptr = &resize_roi_array;
 1877              		.loc 1 261 26
 1878 00a6 07F5BC73 		add	r3, r7, #376
 1879 00aa C7F8B431 		str	r3, [r7, #436]
 1880              	.L37:
 1881              	.LBE4:
 262:Lib/AI_Runtime/Npu/ll_aton/ll_sw_float.c ****   }
 263:Lib/AI_Runtime/Npu/ll_aton/ll_sw_float.c **** 
 264:Lib/AI_Runtime/Npu/ll_aton/ll_sw_float.c ****   AI_ARRAY_OBJ_DECLARE(resize_output_array, FORMAT, sw_info->general.output.mem.start_offset,
 1882              		.loc 1 264 3
 1883 00ae BE4B     		ldr	r3, .L41
 1884 00b0 C7F86831 		str	r3, [r7, #360]
 1885 00b4 D7F8B031 		ldr	r3, [r7, #432]
 1886 00b8 1B6C     		ldr	r3, [r3, #64]
 1887 00ba C7F86C31 		str	r3, [r7, #364]
 1888 00be D7F8B031 		ldr	r3, [r7, #432]
 1889 00c2 5B6D     		ldr	r3, [r3, #84]
 1890 00c4 C7F87031 		str	r3, [r7, #368]
 1891 00c8 D7F8B031 		ldr	r3, [r7, #432]
 1892 00cc 5B6D     		ldr	r3, [r3, #84]
 1893 00ce C7F87431 		str	r3, [r7, #372]
 265:Lib/AI_Runtime/Npu/ll_aton/ll_sw_float.c ****                        sw_info->general.output.mem.start_offset, sw_info->general.output.dim.num_el
 266:Lib/AI_Runtime/Npu/ll_aton/ll_sw_float.c **** 
 267:Lib/AI_Runtime/Npu/ll_aton/ll_sw_float.c ****   AI_TENSOR_OBJ_DECLARE(input_output, , 0x0, 4,
 1894              		.loc 1 267 3
 1895 00d2 0023     		movs	r3, #0
 1896 00d4 C7F84C31 		str	r3, [r7, #332]
 1897 00d8 0023     		movs	r3, #0
 1898 00da A7F85031 		strh	r3, [r7, #336]	@ movhi
 1899 00de 0423     		movs	r3, #4
 1900 00e0 87F85231 		strb	r3, [r7, #338]
 1901 00e4 0123     		movs	r3, #1
 1902 00e6 87F85331 		strb	r3, [r7, #339]
 1903 00ea 0123     		movs	r3, #1
 1904 00ec 87F85431 		strb	r3, [r7, #340]
 1905 00f0 D7F85431 		ldr	r3, [r7, #340]
 1906 00f4 0422     		movs	r2, #4
ARM GAS  /tmp/ccEo7NLA.s 			page 45


 1907 00f6 62F31F23 		bfi	r3, r2, #8, #24
 1908 00fa C7F85431 		str	r3, [r7, #340]
 1909 00fe D7F8B031 		ldr	r3, [r7, #432]
 1910 0102 1B69     		ldr	r3, [r3, #16]
 1911 0104 C7F83C31 		str	r3, [r7, #316]
 1912 0108 D7F8B031 		ldr	r3, [r7, #432]
 1913 010c DB68     		ldr	r3, [r3, #12]
 1914 010e C7F84031 		str	r3, [r7, #320]
 1915 0112 D7F8B031 		ldr	r3, [r7, #432]
 1916 0116 9B68     		ldr	r3, [r3, #8]
 1917 0118 C7F84431 		str	r3, [r7, #324]
 1918 011c D7F8B031 		ldr	r3, [r7, #432]
 1919 0120 5B68     		ldr	r3, [r3, #4]
 1920 0122 C7F84831 		str	r3, [r7, #328]
 1921 0126 07F59E73 		add	r3, r7, #316
 1922 012a C7F85831 		str	r3, [r7, #344]
 1923 012e 0223     		movs	r3, #2
 1924 0130 87F85C31 		strb	r3, [r7, #348]
 1925 0134 D7F85C31 		ldr	r3, [r7, #348]
 1926 0138 0422     		movs	r2, #4
 1927 013a 62F31F23 		bfi	r3, r2, #8, #24
 1928 013e C7F85C31 		str	r3, [r7, #348]
 1929 0142 D7F8B031 		ldr	r3, [r7, #432]
 1930 0146 5B6A     		ldr	r3, [r3, #36]
 1931 0148 C7F82C31 		str	r3, [r7, #300]
 1932 014c D7F8B031 		ldr	r3, [r7, #432]
 1933 0150 1B6A     		ldr	r3, [r3, #32]
 1934 0152 C7F83031 		str	r3, [r7, #304]
 1935 0156 D7F8B031 		ldr	r3, [r7, #432]
 1936 015a DB69     		ldr	r3, [r3, #28]
 1937 015c C7F83431 		str	r3, [r7, #308]
 1938 0160 D7F8B031 		ldr	r3, [r7, #432]
 1939 0164 9B69     		ldr	r3, [r3, #24]
 1940 0166 C7F83831 		str	r3, [r7, #312]
 1941 016a 07F59673 		add	r3, r7, #300
 1942 016e C7F86031 		str	r3, [r7, #352]
 1943 0172 07F5CC73 		add	r3, r7, #408
 1944 0176 C7F86431 		str	r3, [r7, #356]
 268:Lib/AI_Runtime/Npu/ll_aton/ll_sw_float.c ****                         SHAPE_INIT(sw_info->general.input.dim.tensor_h, sw_info->general.input.dim.
 269:Lib/AI_Runtime/Npu/ll_aton/ll_sw_float.c ****                                    sw_info->general.input.dim.tensor_c, sw_info->general.input.dim.
 270:Lib/AI_Runtime/Npu/ll_aton/ll_sw_float.c ****                         STRIDE_INIT(sw_info->general.input.stride.h, sw_info->general.input.stride.
 271:Lib/AI_Runtime/Npu/ll_aton/ll_sw_float.c ****                                     sw_info->general.input.stride.c, sw_info->general.input.stride.
 272:Lib/AI_Runtime/Npu/ll_aton/ll_sw_float.c ****                         1, &input_output_array, NULL);
 273:Lib/AI_Runtime/Npu/ll_aton/ll_sw_float.c ****   AI_TENSOR_OBJ_DECLARE(resize_scales, , 0x0, 4,
 1945              		.loc 1 273 3
 1946 017a 0023     		movs	r3, #0
 1947 017c C7F81031 		str	r3, [r7, #272]
 1948 0180 0023     		movs	r3, #0
 1949 0182 A7F81431 		strh	r3, [r7, #276]	@ movhi
 1950 0186 0423     		movs	r3, #4
 1951 0188 87F81631 		strb	r3, [r7, #278]
 1952 018c 0123     		movs	r3, #1
 1953 018e 87F81731 		strb	r3, [r7, #279]
 1954 0192 0123     		movs	r3, #1
 1955 0194 87F81831 		strb	r3, [r7, #280]
 1956 0198 D7F81831 		ldr	r3, [r7, #280]
 1957 019c 0422     		movs	r2, #4
ARM GAS  /tmp/ccEo7NLA.s 			page 46


 1958 019e 62F31F23 		bfi	r3, r2, #8, #24
 1959 01a2 C7F81831 		str	r3, [r7, #280]
 1960 01a6 D7F8B031 		ldr	r3, [r7, #432]
 1961 01aa 9B6E     		ldr	r3, [r3, #104]
 1962 01ac C7F80031 		str	r3, [r7, #256]
 1963 01b0 D7F8B031 		ldr	r3, [r7, #432]
 1964 01b4 5B6E     		ldr	r3, [r3, #100]
 1965 01b6 C7F80431 		str	r3, [r7, #260]
 1966 01ba D7F8B031 		ldr	r3, [r7, #432]
 1967 01be 1B6E     		ldr	r3, [r3, #96]
 1968 01c0 C7F80831 		str	r3, [r7, #264]
 1969 01c4 D7F8B031 		ldr	r3, [r7, #432]
 1970 01c8 DB6D     		ldr	r3, [r3, #92]
 1971 01ca C7F80C31 		str	r3, [r7, #268]
 1972 01ce 07F58073 		add	r3, r7, #256
 1973 01d2 C7F81C31 		str	r3, [r7, #284]
 1974 01d6 0223     		movs	r3, #2
 1975 01d8 87F82031 		strb	r3, [r7, #288]
 1976 01dc D7F82031 		ldr	r3, [r7, #288]
 1977 01e0 0422     		movs	r2, #4
 1978 01e2 62F31F23 		bfi	r3, r2, #8, #24
 1979 01e6 C7F82031 		str	r3, [r7, #288]
 1980 01ea D7F8B031 		ldr	r3, [r7, #432]
 1981 01ee DB6F     		ldr	r3, [r3, #124]
 1982 01f0 C7F8F030 		str	r3, [r7, #240]
 1983 01f4 D7F8B031 		ldr	r3, [r7, #432]
 1984 01f8 9B6F     		ldr	r3, [r3, #120]
 1985 01fa C7F8F430 		str	r3, [r7, #244]
 1986 01fe D7F8B031 		ldr	r3, [r7, #432]
 1987 0202 5B6F     		ldr	r3, [r3, #116]
 1988 0204 C7F8F830 		str	r3, [r7, #248]
 1989 0208 D7F8B031 		ldr	r3, [r7, #432]
 1990 020c 1B6F     		ldr	r3, [r3, #112]
 1991 020e C7F8FC30 		str	r3, [r7, #252]
 1992 0212 07F1F003 		add	r3, r7, #240
 1993 0216 C7F82431 		str	r3, [r7, #292]
 1994 021a 07F5C473 		add	r3, r7, #392
 1995 021e C7F82831 		str	r3, [r7, #296]
 274:Lib/AI_Runtime/Npu/ll_aton/ll_sw_float.c ****                         SHAPE_INIT(sw_info->scales.dim.tensor_h, sw_info->scales.dim.tensor_w,
 275:Lib/AI_Runtime/Npu/ll_aton/ll_sw_float.c ****                                    sw_info->scales.dim.tensor_c, sw_info->scales.dim.tensor_b),
 276:Lib/AI_Runtime/Npu/ll_aton/ll_sw_float.c ****                         STRIDE_INIT(sw_info->scales.stride.h, sw_info->scales.stride.w, sw_info->sc
 277:Lib/AI_Runtime/Npu/ll_aton/ll_sw_float.c ****                                     sw_info->scales.stride.b),
 278:Lib/AI_Runtime/Npu/ll_aton/ll_sw_float.c ****                         1, &resize_scales_array, NULL);
 279:Lib/AI_Runtime/Npu/ll_aton/ll_sw_float.c **** 
 280:Lib/AI_Runtime/Npu/ll_aton/ll_sw_float.c ****   AI_TENSOR_OBJ_DECLARE(resize_output, , 0x0, 4,
 1996              		.loc 1 280 3
 1997 0222 0023     		movs	r3, #0
 1998 0224 C7F8D430 		str	r3, [r7, #212]
 1999 0228 0023     		movs	r3, #0
 2000 022a A7F8D830 		strh	r3, [r7, #216]	@ movhi
 2001 022e 0423     		movs	r3, #4
 2002 0230 87F8DA30 		strb	r3, [r7, #218]
 2003 0234 0123     		movs	r3, #1
 2004 0236 87F8DB30 		strb	r3, [r7, #219]
 2005 023a 0123     		movs	r3, #1
 2006 023c 87F8DC30 		strb	r3, [r7, #220]
 2007 0240 D7F8DC30 		ldr	r3, [r7, #220]
ARM GAS  /tmp/ccEo7NLA.s 			page 47


 2008 0244 0422     		movs	r2, #4
 2009 0246 62F31F23 		bfi	r3, r2, #8, #24
 2010 024a C7F8DC30 		str	r3, [r7, #220]
 2011 024e D7F8B031 		ldr	r3, [r7, #432]
 2012 0252 DB6B     		ldr	r3, [r3, #60]
 2013 0254 C7F8C430 		str	r3, [r7, #196]
 2014 0258 D7F8B031 		ldr	r3, [r7, #432]
 2015 025c 9B6B     		ldr	r3, [r3, #56]
 2016 025e C7F8C830 		str	r3, [r7, #200]
 2017 0262 D7F8B031 		ldr	r3, [r7, #432]
 2018 0266 5B6B     		ldr	r3, [r3, #52]
 2019 0268 C7F8CC30 		str	r3, [r7, #204]
 2020 026c D7F8B031 		ldr	r3, [r7, #432]
 2021 0270 1B6B     		ldr	r3, [r3, #48]
 2022 0272 C7F8D030 		str	r3, [r7, #208]
 2023 0276 07F1C403 		add	r3, r7, #196
 2024 027a C7F8E030 		str	r3, [r7, #224]
 2025 027e 0223     		movs	r3, #2
 2026 0280 87F8E430 		strb	r3, [r7, #228]
 2027 0284 D7F8E430 		ldr	r3, [r7, #228]
 2028 0288 0422     		movs	r2, #4
 2029 028a 62F31F23 		bfi	r3, r2, #8, #24
 2030 028e C7F8E430 		str	r3, [r7, #228]
 2031 0292 D7F8B031 		ldr	r3, [r7, #432]
 2032 0296 1B6D     		ldr	r3, [r3, #80]
 2033 0298 1A46     		mov	r2, r3
 2034 029a 07F5DC73 		add	r3, r7, #440
 2035 029e A3F58273 		sub	r3, r3, #260
 2036 02a2 1A60     		str	r2, [r3]
 2037 02a4 D7F8B031 		ldr	r3, [r7, #432]
 2038 02a8 DB6C     		ldr	r3, [r3, #76]
 2039 02aa 1A46     		mov	r2, r3
 2040 02ac 07F5DC73 		add	r3, r7, #440
 2041 02b0 A3F58273 		sub	r3, r3, #260
 2042 02b4 5A60     		str	r2, [r3, #4]
 2043 02b6 D7F8B031 		ldr	r3, [r7, #432]
 2044 02ba 9B6C     		ldr	r3, [r3, #72]
 2045 02bc 1A46     		mov	r2, r3
 2046 02be 07F5DC73 		add	r3, r7, #440
 2047 02c2 A3F58273 		sub	r3, r3, #260
 2048 02c6 9A60     		str	r2, [r3, #8]
 2049 02c8 D7F8B031 		ldr	r3, [r7, #432]
 2050 02cc 5B6C     		ldr	r3, [r3, #68]
 2051 02ce 1A46     		mov	r2, r3
 2052 02d0 07F5DC73 		add	r3, r7, #440
 2053 02d4 A3F58273 		sub	r3, r3, #260
 2054 02d8 DA60     		str	r2, [r3, #12]
 2055 02da 07F1B403 		add	r3, r7, #180
 2056 02de C7F8E830 		str	r3, [r7, #232]
 2057 02e2 07F5B473 		add	r3, r7, #360
 2058 02e6 C7F8EC30 		str	r3, [r7, #236]
 281:Lib/AI_Runtime/Npu/ll_aton/ll_sw_float.c ****                         SHAPE_INIT(sw_info->general.output.dim.tensor_h, sw_info->general.output.di
 282:Lib/AI_Runtime/Npu/ll_aton/ll_sw_float.c ****                                    sw_info->general.output.dim.tensor_c, sw_info->general.output.di
 283:Lib/AI_Runtime/Npu/ll_aton/ll_sw_float.c ****                         STRIDE_INIT(sw_info->general.output.stride.h, sw_info->general.output.strid
 284:Lib/AI_Runtime/Npu/ll_aton/ll_sw_float.c ****                                     sw_info->general.output.stride.c, sw_info->general.output.strid
 285:Lib/AI_Runtime/Npu/ll_aton/ll_sw_float.c ****                         1, &resize_output_array, NULL);
 286:Lib/AI_Runtime/Npu/ll_aton/ll_sw_float.c ****   // tensor chain initialization
ARM GAS  /tmp/ccEo7NLA.s 			page 48


 287:Lib/AI_Runtime/Npu/ll_aton/ll_sw_float.c ****   AI_TENSOR_CHAIN_OBJ_DECLARE(resize_chain, , 4, AI_TENSOR_LIST_OBJ_INIT(AI_FLAG_NONE, 1, TENSORS(&
 2059              		.loc 1 287 3
 2060 02ea 07F5DC73 		add	r3, r7, #440
 2061 02ee A3F58673 		sub	r3, r3, #268
 2062 02f2 0422     		movs	r2, #4
 2063 02f4 1A80     		strh	r2, [r3]	@ movhi
 2064 02f6 07F5DC73 		add	r3, r7, #440
 2065 02fa A3F58673 		sub	r3, r3, #268
 2066 02fe 0022     		movs	r2, #0
 2067 0300 5A80     		strh	r2, [r3, #2]	@ movhi
 2068 0302 07F5DC73 		add	r3, r7, #440
 2069 0306 A3F5A673 		sub	r3, r3, #332
 2070 030a 0122     		movs	r2, #1
 2071 030c 1A80     		strh	r2, [r3]	@ movhi
 2072 030e 07F5DC73 		add	r3, r7, #440
 2073 0312 A3F5A673 		sub	r3, r3, #332
 2074 0316 0022     		movs	r2, #0
 2075 0318 5A80     		strh	r2, [r3, #2]	@ movhi
 2076 031a 07F5DC73 		add	r3, r7, #440
 2077 031e A3F58873 		sub	r3, r3, #272
 2078 0322 07F5A672 		add	r2, r7, #332
 2079 0326 1A60     		str	r2, [r3]
 2080 0328 07F5DC73 		add	r3, r7, #440
 2081 032c A3F5A673 		sub	r3, r3, #332
 2082 0330 07F1A802 		add	r2, r7, #168
 2083 0334 5A60     		str	r2, [r3, #4]
 2084 0336 07F5DC73 		add	r3, r7, #440
 2085 033a A3F5A673 		sub	r3, r3, #332
 2086 033e 0022     		movs	r2, #0
 2087 0340 9A60     		str	r2, [r3, #8]
 2088 0342 07F5DC73 		add	r3, r7, #440
 2089 0346 A3F5A673 		sub	r3, r3, #332
 2090 034a 0122     		movs	r2, #1
 2091 034c 9A81     		strh	r2, [r3, #12]	@ movhi
 2092 034e 07F5DC73 		add	r3, r7, #440
 2093 0352 A3F5A673 		sub	r3, r3, #332
 2094 0356 0022     		movs	r2, #0
 2095 0358 DA81     		strh	r2, [r3, #14]	@ movhi
 2096 035a 07F5DC73 		add	r3, r7, #440
 2097 035e A3F58A73 		sub	r3, r3, #276
 2098 0362 07F1D402 		add	r2, r7, #212
 2099 0366 1A60     		str	r2, [r3]
 2100 0368 07F5DC73 		add	r3, r7, #440
 2101 036c A3F5A673 		sub	r3, r3, #332
 2102 0370 07F1A402 		add	r2, r7, #164
 2103 0374 1A61     		str	r2, [r3, #16]
 2104 0376 07F5DC73 		add	r3, r7, #440
 2105 037a A3F5A673 		sub	r3, r3, #332
 2106 037e 0022     		movs	r2, #0
 2107 0380 5A61     		str	r2, [r3, #20]
 2108 0382 07F5DC73 		add	r3, r7, #440
 2109 0386 A3F5A673 		sub	r3, r3, #332
 2110 038a 0022     		movs	r2, #0
 2111 038c 1A83     		strh	r2, [r3, #24]	@ movhi
 2112 038e 07F5DC73 		add	r3, r7, #440
 2113 0392 A3F5A673 		sub	r3, r3, #332
 2114 0396 0022     		movs	r2, #0
ARM GAS  /tmp/ccEo7NLA.s 			page 49


 2115 0398 5A83     		strh	r2, [r3, #26]	@ movhi
 2116 039a 07F5DC73 		add	r3, r7, #440
 2117 039e A3F58C73 		sub	r3, r3, #280
 2118 03a2 0022     		movs	r2, #0
 2119 03a4 1A60     		str	r2, [r3]
 2120 03a6 01E0     		b	.L42
 2121              	.L43:
 2122              		.align	2
 2123              	.L41:
 2124 03a8 40108200 		.word	8523840
 2125              	.L42:
 2126 03ac 07F5DC73 		add	r3, r7, #440
 2127 03b0 A3F5A673 		sub	r3, r3, #332
 2128 03b4 07F1A002 		add	r2, r7, #160
 2129 03b8 DA61     		str	r2, [r3, #28]
 2130 03ba 07F5DC73 		add	r3, r7, #440
 2131 03be A3F5A673 		sub	r3, r3, #332
 2132 03c2 0022     		movs	r2, #0
 2133 03c4 1A62     		str	r2, [r3, #32]
 2134 03c6 07F5DC73 		add	r3, r7, #440
 2135 03ca A3F5A673 		sub	r3, r3, #332
 2136 03ce 0022     		movs	r2, #0
 2137 03d0 9A84     		strh	r2, [r3, #36]	@ movhi
 2138 03d2 07F5DC73 		add	r3, r7, #440
 2139 03d6 A3F5A673 		sub	r3, r3, #332
 2140 03da 0022     		movs	r2, #0
 2141 03dc DA84     		strh	r2, [r3, #38]	@ movhi
 2142 03de 07F5DC73 		add	r3, r7, #440
 2143 03e2 A3F58E73 		sub	r3, r3, #284
 2144 03e6 0022     		movs	r2, #0
 2145 03e8 1A60     		str	r2, [r3]
 2146 03ea 07F5DC73 		add	r3, r7, #440
 2147 03ee A3F5A673 		sub	r3, r3, #332
 2148 03f2 07F19C02 		add	r2, r7, #156
 2149 03f6 9A62     		str	r2, [r3, #40]
 2150 03f8 07F5DC73 		add	r3, r7, #440
 2151 03fc A3F5A673 		sub	r3, r3, #332
 2152 0400 0022     		movs	r2, #0
 2153 0402 DA62     		str	r2, [r3, #44]
 2154 0404 07F5DC73 		add	r3, r7, #440
 2155 0408 A3F58673 		sub	r3, r3, #268
 2156 040c 07F16C02 		add	r2, r7, #108
 2157 0410 5A60     		str	r2, [r3, #4]
 288:Lib/AI_Runtime/Npu/ll_aton/ll_sw_float.c ****                               AI_TENSOR_LIST_OBJ_INIT(AI_FLAG_NONE, 1, TENSORS(&resize_output)),
 289:Lib/AI_Runtime/Npu/ll_aton/ll_sw_float.c ****                               AI_TENSOR_LIST_OBJ_EMPTY, AI_TENSOR_LIST_OBJ_EMPTY)
 290:Lib/AI_Runtime/Npu/ll_aton/ll_sw_float.c **** 
 291:Lib/AI_Runtime/Npu/ll_aton/ll_sw_float.c ****   // extrapolating the scales values needed
 292:Lib/AI_Runtime/Npu/ll_aton/ll_sw_float.c ****   const ai_tensor *p = &resize_scales;
 2158              		.loc 1 292 20
 2159 0412 07F58873 		add	r3, r7, #272
 2160 0416 C7F8AC31 		str	r3, [r7, #428]
 293:Lib/AI_Runtime/Npu/ll_aton/ll_sw_float.c ****   const ai_float *s = AI_ARRAY_OBJ_DATA(p->data, ai_float);
 2161              		.loc 1 293 23
 2162 041a D7F8AC31 		ldr	r3, [r7, #428]
 2163 041e 9B69     		ldr	r3, [r3, #24]
 2164              		.loc 1 293 19
 2165 0420 9B68     		ldr	r3, [r3, #8]
ARM GAS  /tmp/ccEo7NLA.s 			page 50


 2166 0422 C7F8A831 		str	r3, [r7, #424]
 294:Lib/AI_Runtime/Npu/ll_aton/ll_sw_float.c ****   AI_ARRAY_OBJ_DECLARE_STATIC(rs, ai_float, AI_ARRAY_FORMAT_FLOAT, AI_CONST, 2, s[2], s[3])
 2167              		.loc 1 294 3
 2168 0426 07F5DC73 		add	r3, r7, #440
 2169 042a A3F5AE73 		sub	r3, r3, #348
 2170 042e 854A     		ldr	r2, .L44
 2171 0430 1A60     		str	r2, [r3]
 2172 0432 07F5DC73 		add	r3, r7, #440
 2173 0436 A3F5AE73 		sub	r3, r3, #348
 2174 043a 0222     		movs	r2, #2
 2175 043c 5A60     		str	r2, [r3, #4]
 2176 043e D7F8A831 		ldr	r3, [r7, #424]
 2177 0442 0833     		adds	r3, r3, #8
 2178 0444 1A68     		ldr	r2, [r3]	@ float
 2179 0446 07F5DC73 		add	r3, r7, #440
 2180 044a A3F5B273 		sub	r3, r3, #356
 2181 044e 1A60     		str	r2, [r3]	@ float
 2182 0450 D7F8A831 		ldr	r3, [r7, #424]
 2183 0454 0C33     		adds	r3, r3, #12
 2184 0456 1A68     		ldr	r2, [r3]	@ float
 2185 0458 07F5DC73 		add	r3, r7, #440
 2186 045c A3F5B273 		sub	r3, r3, #356
 2187 0460 5A60     		str	r2, [r3, #4]	@ float
 2188 0462 07F5DC73 		add	r3, r7, #440
 2189 0466 A3F5AE73 		sub	r3, r3, #348
 2190 046a 07F15402 		add	r2, r7, #84
 2191 046e 9A60     		str	r2, [r3, #8]
 2192 0470 07F5DC73 		add	r3, r7, #440
 2193 0474 A3F5AE73 		sub	r3, r3, #348
 2194 0478 0022     		movs	r2, #0
 2195 047a DA60     		str	r2, [r3, #12]
 295:Lib/AI_Runtime/Npu/ll_aton/ll_sw_float.c **** 
 296:Lib/AI_Runtime/Npu/ll_aton/ll_sw_float.c ****   // layer initialization
 297:Lib/AI_Runtime/Npu/ll_aton/ll_sw_float.c ****   if ((ai_resize_mode)sw_info->mode == AI_RESIZE_ZEROS)
 2196              		.loc 1 297 30
 2197 047c D7F8B031 		ldr	r3, [r7, #432]
 2198 0480 93F8EC30 		ldrb	r3, [r3, #236]	@ zero_extendqisi2
 2199              		.loc 1 297 6
 2200 0484 002B     		cmp	r3, #0
 2201 0486 55D1     		bne	.L38
 2202              	.LBB5:
 298:Lib/AI_Runtime/Npu/ll_aton/ll_sw_float.c ****   {
 299:Lib/AI_Runtime/Npu/ll_aton/ll_sw_float.c ****     AI_LAYER_OBJ_DECLARE(resize_layer, 1, UPSAMPLE_TYPE, 0x0, NULL, upsample, forward_upsample_zero
 2203              		.loc 1 299 5
 2204 0488 07F5DC73 		add	r3, r7, #440
 2205 048c A3F5D673 		sub	r3, r3, #428
 2206 0490 4FF48972 		mov	r2, #274
 2207 0494 1A80     		strh	r2, [r3]	@ movhi
 2208 0496 07F5DC73 		add	r3, r7, #440
 2209 049a A3F5D673 		sub	r3, r3, #428
 2210 049e 0122     		movs	r2, #1
 2211 04a0 5A80     		strh	r2, [r3, #2]	@ movhi
 2212 04a2 07F5DC73 		add	r3, r7, #440
 2213 04a6 A3F5D673 		sub	r3, r3, #428
 2214 04aa 0022     		movs	r2, #0
 2215 04ac 5A60     		str	r2, [r3, #4]
 2216 04ae 07F5DC73 		add	r3, r7, #440
ARM GAS  /tmp/ccEo7NLA.s 			page 51


 2217 04b2 A3F5D673 		sub	r3, r3, #428
 2218 04b6 0022     		movs	r2, #0
 2219 04b8 9A60     		str	r2, [r3, #8]
 2220 04ba 07F5DC73 		add	r3, r7, #440
 2221 04be A3F5D673 		sub	r3, r3, #428
 2222 04c2 0022     		movs	r2, #0
 2223 04c4 DA60     		str	r2, [r3, #12]
 2224 04c6 07F5DC73 		add	r3, r7, #440
 2225 04ca A3F5D673 		sub	r3, r3, #428
 2226 04ce 0022     		movs	r2, #0
 2227 04d0 1A61     		str	r2, [r3, #16]
 2228 04d2 07F5DC73 		add	r3, r7, #440
 2229 04d6 A3F5D673 		sub	r3, r3, #428
 2230 04da 5B4A     		ldr	r2, .L44+4
 2231 04dc 5A61     		str	r2, [r3, #20]
 2232 04de 07F5DC73 		add	r3, r7, #440
 2233 04e2 A3F5D673 		sub	r3, r3, #428
 2234 04e6 07F1AC02 		add	r2, r7, #172
 2235 04ea 9A61     		str	r2, [r3, #24]
 2236 04ec 07F5DC73 		add	r3, r7, #440
 2237 04f0 A3F5D673 		sub	r3, r3, #428
 2238 04f4 0022     		movs	r2, #0
 2239 04f6 1A77     		strb	r2, [r3, #28]
 2240 04f8 07F5DC73 		add	r3, r7, #440
 2241 04fc A3F5D673 		sub	r3, r3, #428
 2242 0500 0022     		movs	r2, #0
 2243 0502 5A77     		strb	r2, [r3, #29]
 2244 0504 07F5DC73 		add	r3, r7, #440
 2245 0508 A3F5D673 		sub	r3, r3, #428
 2246 050c 07F15C02 		add	r2, r7, #92
 2247 0510 1A62     		str	r2, [r3, #32]
 2248 0512 07F5DC73 		add	r3, r7, #440
 2249 0516 A3F5D673 		sub	r3, r3, #428
 2250 051a 0022     		movs	r2, #0
 2251 051c 83F82420 		strb	r2, [r3, #36]
 300:Lib/AI_Runtime/Npu/ll_aton/ll_sw_float.c ****                          NULL, NULL, , .mode = AI_UPSAMPLE_ZEROS, .center = false, .scales = AI_ARR
 301:Lib/AI_Runtime/Npu/ll_aton/ll_sw_float.c ****                          .nearest_mode = AI_ROUND_PREFER_FLOOR)
 302:Lib/AI_Runtime/Npu/ll_aton/ll_sw_float.c ****     resize_layer.forward(AI_LAYER_OBJ(&resize_layer));
 2252              		.loc 1 302 17
 2253 0520 07F5DC73 		add	r3, r7, #440
 2254 0524 A3F5D673 		sub	r3, r3, #428
 2255 0528 5B69     		ldr	r3, [r3, #20]
 2256              		.loc 1 302 5
 2257 052a 07F10C02 		add	r2, r7, #12
 2258 052e 1046     		mov	r0, r2
 2259 0530 9847     		blx	r3
 2260              	.LVL4:
 2261              	.LBE5:
 303:Lib/AI_Runtime/Npu/ll_aton/ll_sw_float.c ****   }
 304:Lib/AI_Runtime/Npu/ll_aton/ll_sw_float.c ****   else
 305:Lib/AI_Runtime/Npu/ll_aton/ll_sw_float.c ****   {
 306:Lib/AI_Runtime/Npu/ll_aton/ll_sw_float.c ****     AI_LAYER_OBJ_DECLARE(resize_layer, 1, RESIZE_TYPE, 0x0, NULL, resize, forward_resize, &resize_c
 307:Lib/AI_Runtime/Npu/ll_aton/ll_sw_float.c ****                          .cubic_coeff_a = sw_info->cubic_coeff_a, .exclude_outside = sw_info->exclu
 308:Lib/AI_Runtime/Npu/ll_aton/ll_sw_float.c ****                          .extrapol_val = sw_info->extrapol_val, .mode = (ai_resize_mode)sw_info->mo
 309:Lib/AI_Runtime/Npu/ll_aton/ll_sw_float.c ****                          .nearest_mode = (ai_nearest_mode)sw_info->nearest_mode,
 310:Lib/AI_Runtime/Npu/ll_aton/ll_sw_float.c ****                          .coord_transf_mode = (ai_coord_transf_mode)sw_info->coord_transf_mode,
 311:Lib/AI_Runtime/Npu/ll_aton/ll_sw_float.c ****                          .scales = AI_ARRAY_OBJ(&rs), .roi = resize_roi_array_ptr)
ARM GAS  /tmp/ccEo7NLA.s 			page 52


 312:Lib/AI_Runtime/Npu/ll_aton/ll_sw_float.c ****     resize_layer.forward(AI_LAYER_OBJ(&resize_layer));
 313:Lib/AI_Runtime/Npu/ll_aton/ll_sw_float.c ****   }
 314:Lib/AI_Runtime/Npu/ll_aton/ll_sw_float.c **** }
 2262              		.loc 1 314 1
 2263 0532 81E0     		b	.L40
 2264              	.L38:
 2265              	.LBB6:
 306:Lib/AI_Runtime/Npu/ll_aton/ll_sw_float.c ****                          .cubic_coeff_a = sw_info->cubic_coeff_a, .exclude_outside = sw_info->exclu
 2266              		.loc 1 306 5
 2267 0534 07F5DC73 		add	r3, r7, #440
 2268 0538 A3F5D673 		sub	r3, r3, #428
 2269 053c 40F21B12 		movw	r2, #283
 2270 0540 1A80     		strh	r2, [r3]	@ movhi
 2271 0542 07F5DC73 		add	r3, r7, #440
 2272 0546 A3F5D673 		sub	r3, r3, #428
 2273 054a 0122     		movs	r2, #1
 2274 054c 5A80     		strh	r2, [r3, #2]	@ movhi
 2275 054e 07F5DC73 		add	r3, r7, #440
 2276 0552 A3F5D673 		sub	r3, r3, #428
 2277 0556 0022     		movs	r2, #0
 2278 0558 5A60     		str	r2, [r3, #4]
 2279 055a 07F5DC73 		add	r3, r7, #440
 2280 055e A3F5D673 		sub	r3, r3, #428
 2281 0562 0022     		movs	r2, #0
 2282 0564 9A60     		str	r2, [r3, #8]
 2283 0566 07F5DC73 		add	r3, r7, #440
 2284 056a A3F5D673 		sub	r3, r3, #428
 2285 056e 0022     		movs	r2, #0
 2286 0570 DA60     		str	r2, [r3, #12]
 2287 0572 07F5DC73 		add	r3, r7, #440
 2288 0576 A3F5D673 		sub	r3, r3, #428
 2289 057a 0022     		movs	r2, #0
 2290 057c 1A61     		str	r2, [r3, #16]
 2291 057e 07F5DC73 		add	r3, r7, #440
 2292 0582 A3F5D673 		sub	r3, r3, #428
 2293 0586 314A     		ldr	r2, .L44+8
 2294 0588 5A61     		str	r2, [r3, #20]
 2295 058a 07F5DC73 		add	r3, r7, #440
 2296 058e A3F5D673 		sub	r3, r3, #428
 2297 0592 07F1AC02 		add	r2, r7, #172
 2298 0596 9A61     		str	r2, [r3, #24]
 2299 0598 D7F8B031 		ldr	r3, [r7, #432]
 2300 059c 93F8EE20 		ldrb	r2, [r3, #238]	@ zero_extendqisi2
 2301 05a0 07F5DC73 		add	r3, r7, #440
 2302 05a4 A3F5D673 		sub	r3, r3, #428
 2303 05a8 1A77     		strb	r2, [r3, #28]
 2304 05aa D7F8B031 		ldr	r3, [r7, #432]
 2305 05ae D3F8E020 		ldr	r2, [r3, #224]	@ float
 2306 05b2 07F5DC73 		add	r3, r7, #440
 2307 05b6 A3F5D673 		sub	r3, r3, #428
 2308 05ba 1A62     		str	r2, [r3, #32]	@ float
 2309 05bc D7F8B031 		ldr	r3, [r7, #432]
 2310 05c0 93F8E420 		ldrb	r2, [r3, #228]	@ zero_extendqisi2
 2311 05c4 07F5DC73 		add	r3, r7, #440
 2312 05c8 A3F5D673 		sub	r3, r3, #428
 2313 05cc 83F82420 		strb	r2, [r3, #36]
 2314 05d0 D7F8B031 		ldr	r3, [r7, #432]
ARM GAS  /tmp/ccEo7NLA.s 			page 53


 2315 05d4 D3F8E820 		ldr	r2, [r3, #232]	@ float
 2316 05d8 07F5DC73 		add	r3, r7, #440
 2317 05dc A3F5D673 		sub	r3, r3, #428
 2318 05e0 9A62     		str	r2, [r3, #40]	@ float
 2319 05e2 D7F8B031 		ldr	r3, [r7, #432]
 2320 05e6 93F8EC20 		ldrb	r2, [r3, #236]	@ zero_extendqisi2
 2321 05ea 07F5DC73 		add	r3, r7, #440
 2322 05ee A3F5D673 		sub	r3, r3, #428
 2323 05f2 83F82C20 		strb	r2, [r3, #44]
 2324 05f6 D7F8B031 		ldr	r3, [r7, #432]
 2325 05fa 93F8ED20 		ldrb	r2, [r3, #237]	@ zero_extendqisi2
 2326 05fe 07F5DC73 		add	r3, r7, #440
 2327 0602 A3F5D673 		sub	r3, r3, #428
 2328 0606 83F82D20 		strb	r2, [r3, #45]
 2329 060a 07F5DC73 		add	r3, r7, #440
 2330 060e A3F5D673 		sub	r3, r3, #428
 2331 0612 07F15C02 		add	r2, r7, #92
 2332 0616 1A63     		str	r2, [r3, #48]
 2333 0618 07F5DC73 		add	r3, r7, #440
 2334 061c A3F5D673 		sub	r3, r3, #428
 2335 0620 D7F8B421 		ldr	r2, [r7, #436]
 2336 0624 5A63     		str	r2, [r3, #52]
 312:Lib/AI_Runtime/Npu/ll_aton/ll_sw_float.c ****   }
 2337              		.loc 1 312 17
 2338 0626 07F5DC73 		add	r3, r7, #440
 2339 062a A3F5D673 		sub	r3, r3, #428
 2340 062e 5B69     		ldr	r3, [r3, #20]
 312:Lib/AI_Runtime/Npu/ll_aton/ll_sw_float.c ****   }
 2341              		.loc 1 312 5
 2342 0630 07F10C02 		add	r2, r7, #12
 2343 0634 1046     		mov	r0, r2
 2344 0636 9847     		blx	r3
 2345              	.LVL5:
 2346              	.L40:
 2347              	.LBE6:
 2348              		.loc 1 314 1
 2349 0638 00BF     		nop
 2350 063a 07F5DC77 		add	r7, r7, #440
 2351              		.cfi_def_cfa_offset 8
 2352 063e BD46     		mov	sp, r7
 2353              		.cfi_def_cfa_register 13
 2354              		@ sp needed
 2355 0640 80BD     		pop	{r7, pc}
 2356              	.L45:
 2357 0642 00BF     		.align	2
 2358              	.L44:
 2359 0644 40108200 		.word	8523840
 2360 0648 00000000 		.word	forward_upsample_zeros
 2361 064c 00000000 		.word	forward_resize
 2362              		.cfi_endproc
 2363              	.LFE18:
 2365              		.section	.text.ll_sw_forward_softmax,"ax",%progbits
 2366              		.align	1
 2367              		.global	ll_sw_forward_softmax
 2368              		.syntax unified
 2369              		.thumb
 2370              		.thumb_func
ARM GAS  /tmp/ccEo7NLA.s 			page 54


 2372              	ll_sw_forward_softmax:
 2373              	.LFB19:
 315:Lib/AI_Runtime/Npu/ll_aton/ll_sw_float.c **** 
 316:Lib/AI_Runtime/Npu/ll_aton/ll_sw_float.c **** //##########################################################################################
 317:Lib/AI_Runtime/Npu/ll_aton/ll_sw_float.c **** /** Softmax forward function */
 318:Lib/AI_Runtime/Npu/ll_aton/ll_sw_float.c **** void ll_sw_forward_softmax(/* int processor, */ void *sw_info_struct)
 319:Lib/AI_Runtime/Npu/ll_aton/ll_sw_float.c **** {
 2374              		.loc 1 319 1
 2375              		.cfi_startproc
 2376              		@ args = 0, pretend = 0, frame = 352
 2377              		@ frame_needed = 1, uses_anonymous_args = 0
 2378 0000 80B5     		push	{r7, lr}
 2379              		.cfi_def_cfa_offset 8
 2380              		.cfi_offset 7, -8
 2381              		.cfi_offset 14, -4
 2382 0002 D8B0     		sub	sp, sp, #352
 2383              		.cfi_def_cfa_offset 360
 2384 0004 00AF     		add	r7, sp, #0
 2385              		.cfi_def_cfa_register 7
 2386 0006 07F5B073 		add	r3, r7, #352
 2387 000a A3F5AE73 		sub	r3, r3, #348
 2388 000e 1860     		str	r0, [r3]
 320:Lib/AI_Runtime/Npu/ll_aton/ll_sw_float.c ****   Softmax_sw_info *sw_info = (Softmax_sw_info *)sw_info_struct;
 2389              		.loc 1 320 20
 2390 0010 07F5B073 		add	r3, r7, #352
 2391 0014 A3F5AE73 		sub	r3, r3, #348
 2392 0018 1B68     		ldr	r3, [r3]
 2393 001a C7F85C31 		str	r3, [r7, #348]
 321:Lib/AI_Runtime/Npu/ll_aton/ll_sw_float.c **** 
 322:Lib/AI_Runtime/Npu/ll_aton/ll_sw_float.c ****   // array init
 323:Lib/AI_Runtime/Npu/ll_aton/ll_sw_float.c ****   int32_t format = sw_info->general.input.format.is_signed ? (AI_ARRAY_FORMAT_S8 | AI_FMT_FLAG_IS_I
 2394              		.loc 1 323 49
 2395 001e D7F85C31 		ldr	r3, [r7, #348]
 2396 0022 93F82C30 		ldrb	r3, [r3, #44]	@ zero_extendqisi2
 324:Lib/AI_Runtime/Npu/ll_aton/ll_sw_float.c ****                                                            : (AI_ARRAY_FORMAT_U8 | AI_FMT_FLAG_IS_I
 2397              		.loc 1 324 60
 2398 0026 002B     		cmp	r3, #0
 2399 0028 01D0     		beq	.L47
 2400              		.loc 1 324 60 is_stmt 0 discriminator 1
 2401 002a 104B     		ldr	r3, .L51
 2402 002c 00E0     		b	.L48
 2403              	.L47:
 2404              		.loc 1 324 60 discriminator 2
 2405 002e 104B     		ldr	r3, .L51+4
 2406              	.L48:
 323:Lib/AI_Runtime/Npu/ll_aton/ll_sw_float.c ****                                                            : (AI_ARRAY_FORMAT_U8 | AI_FMT_FLAG_IS_I
 2407              		.loc 1 323 11 is_stmt 1
 2408 0030 C7F85831 		str	r3, [r7, #344]
 325:Lib/AI_Runtime/Npu/ll_aton/ll_sw_float.c ****   AI_ARRAY_OBJ_DECLARE(input_output_array, format, sw_info->general.input.mem.start_offset,
 2409              		.loc 1 325 3
 2410 0034 D7F85831 		ldr	r3, [r7, #344]
 2411 0038 C7F84831 		str	r3, [r7, #328]
 2412 003c D7F85C31 		ldr	r3, [r7, #348]
 2413 0040 5B69     		ldr	r3, [r3, #20]
 2414 0042 C7F84C31 		str	r3, [r7, #332]
 2415 0046 D7F85C31 		ldr	r3, [r7, #348]
 2416 004a 9B6A     		ldr	r3, [r3, #40]
ARM GAS  /tmp/ccEo7NLA.s 			page 55


 2417 004c C7F85031 		str	r3, [r7, #336]
 2418 0050 D7F85C31 		ldr	r3, [r7, #348]
 2419 0054 9B6A     		ldr	r3, [r3, #40]
 2420 0056 C7F85431 		str	r3, [r7, #340]
 326:Lib/AI_Runtime/Npu/ll_aton/ll_sw_float.c ****                        sw_info->general.input.mem.start_offset, sw_info->general.input.dim.num_elem
 327:Lib/AI_Runtime/Npu/ll_aton/ll_sw_float.c **** 
 328:Lib/AI_Runtime/Npu/ll_aton/ll_sw_float.c ****   format = sw_info->general.output.format.is_signed ? (AI_ARRAY_FORMAT_S8 | AI_FMT_FLAG_IS_IO)
 2421              		.loc 1 328 42
 2422 005a D7F85C31 		ldr	r3, [r7, #348]
 2423 005e 93F85830 		ldrb	r3, [r3, #88]	@ zero_extendqisi2
 329:Lib/AI_Runtime/Npu/ll_aton/ll_sw_float.c ****                                                     : (AI_ARRAY_FORMAT_U8 | AI_FMT_FLAG_IS_IO);
 2424              		.loc 1 329 53
 2425 0062 002B     		cmp	r3, #0
 2426 0064 06D0     		beq	.L49
 2427              		.loc 1 329 53 is_stmt 0 discriminator 1
 2428 0066 014B     		ldr	r3, .L51
 2429 0068 05E0     		b	.L50
 2430              	.L52:
 2431 006a 00BF     		.align	2
 2432              	.L51:
 2433 006c 40048408 		.word	142869568
 2434 0070 40040408 		.word	134480960
 2435              	.L49:
 2436              		.loc 1 329 53 discriminator 2
 2437 0074 E14B     		ldr	r3, .L53
 2438              	.L50:
 328:Lib/AI_Runtime/Npu/ll_aton/ll_sw_float.c ****                                                     : (AI_ARRAY_FORMAT_U8 | AI_FMT_FLAG_IS_IO);
 2439              		.loc 1 328 10 is_stmt 1
 2440 0076 C7F85831 		str	r3, [r7, #344]
 330:Lib/AI_Runtime/Npu/ll_aton/ll_sw_float.c ****   AI_ARRAY_OBJ_DECLARE(softmax_output_array, format, sw_info->general.output.mem.start_offset,
 2441              		.loc 1 330 3
 2442 007a D7F85831 		ldr	r3, [r7, #344]
 2443 007e C7F83831 		str	r3, [r7, #312]
 2444 0082 D7F85C31 		ldr	r3, [r7, #348]
 2445 0086 1B6C     		ldr	r3, [r3, #64]
 2446 0088 C7F83C31 		str	r3, [r7, #316]
 2447 008c D7F85C31 		ldr	r3, [r7, #348]
 2448 0090 5B6D     		ldr	r3, [r3, #84]
 2449 0092 C7F84031 		str	r3, [r7, #320]
 2450 0096 D7F85C31 		ldr	r3, [r7, #348]
 2451 009a 5B6D     		ldr	r3, [r3, #84]
 2452 009c C7F84431 		str	r3, [r7, #324]
 331:Lib/AI_Runtime/Npu/ll_aton/ll_sw_float.c ****                        sw_info->general.output.mem.start_offset, sw_info->general.output.dim.num_el
 332:Lib/AI_Runtime/Npu/ll_aton/ll_sw_float.c **** 
 333:Lib/AI_Runtime/Npu/ll_aton/ll_sw_float.c ****   AI_ARRAY_OBJ_DECLARE(sm_scratch0_array, AI_ARRAY_FORMAT_S32, sw_info->scratch.mem.start_offset,
 2453              		.loc 1 333 3
 2454 00a0 D74B     		ldr	r3, .L53+4
 2455 00a2 C7F82831 		str	r3, [r7, #296]
 2456 00a6 D7F85C31 		ldr	r3, [r7, #348]
 2457 00aa DB6E     		ldr	r3, [r3, #108]
 2458 00ac C7F82C31 		str	r3, [r7, #300]
 2459 00b0 D7F85C31 		ldr	r3, [r7, #348]
 2460 00b4 D3F88030 		ldr	r3, [r3, #128]
 2461 00b8 C7F83031 		str	r3, [r7, #304]
 2462 00bc D7F85C31 		ldr	r3, [r7, #348]
 2463 00c0 D3F88030 		ldr	r3, [r3, #128]
 2464 00c4 C7F83431 		str	r3, [r7, #308]
ARM GAS  /tmp/ccEo7NLA.s 			page 56


 334:Lib/AI_Runtime/Npu/ll_aton/ll_sw_float.c ****                        sw_info->scratch.mem.start_offset, sw_info->scratch.dim.num_elem, )
 335:Lib/AI_Runtime/Npu/ll_aton/ll_sw_float.c **** 
 336:Lib/AI_Runtime/Npu/ll_aton/ll_sw_float.c ****   AI_TENSOR_OBJ_DECLARE(input_output, , 0x0, 4,
 2465              		.loc 1 336 3
 2466 00c8 0023     		movs	r3, #0
 2467 00ca C7F80C31 		str	r3, [r7, #268]
 2468 00ce 0023     		movs	r3, #0
 2469 00d0 A7F81031 		strh	r3, [r7, #272]	@ movhi
 2470 00d4 0423     		movs	r3, #4
 2471 00d6 87F81231 		strb	r3, [r7, #274]
 2472 00da 0123     		movs	r3, #1
 2473 00dc 87F81331 		strb	r3, [r7, #275]
 2474 00e0 0123     		movs	r3, #1
 2475 00e2 87F81431 		strb	r3, [r7, #276]
 2476 00e6 D7F81431 		ldr	r3, [r7, #276]
 2477 00ea 0422     		movs	r2, #4
 2478 00ec 62F31F23 		bfi	r3, r2, #8, #24
 2479 00f0 C7F81431 		str	r3, [r7, #276]
 2480 00f4 D7F85C31 		ldr	r3, [r7, #348]
 2481 00f8 1B69     		ldr	r3, [r3, #16]
 2482 00fa C7F8FC30 		str	r3, [r7, #252]
 2483 00fe D7F85C31 		ldr	r3, [r7, #348]
 2484 0102 DB68     		ldr	r3, [r3, #12]
 2485 0104 C7F80031 		str	r3, [r7, #256]
 2486 0108 D7F85C31 		ldr	r3, [r7, #348]
 2487 010c 9B68     		ldr	r3, [r3, #8]
 2488 010e C7F80431 		str	r3, [r7, #260]
 2489 0112 D7F85C31 		ldr	r3, [r7, #348]
 2490 0116 5B68     		ldr	r3, [r3, #4]
 2491 0118 C7F80831 		str	r3, [r7, #264]
 2492 011c 07F1FC03 		add	r3, r7, #252
 2493 0120 C7F81831 		str	r3, [r7, #280]
 2494 0124 0223     		movs	r3, #2
 2495 0126 87F81C31 		strb	r3, [r7, #284]
 2496 012a D7F81C31 		ldr	r3, [r7, #284]
 2497 012e 0422     		movs	r2, #4
 2498 0130 62F31F23 		bfi	r3, r2, #8, #24
 2499 0134 C7F81C31 		str	r3, [r7, #284]
 2500 0138 D7F85C31 		ldr	r3, [r7, #348]
 2501 013c 5B6A     		ldr	r3, [r3, #36]
 2502 013e C7F8EC30 		str	r3, [r7, #236]
 2503 0142 D7F85C31 		ldr	r3, [r7, #348]
 2504 0146 1B6A     		ldr	r3, [r3, #32]
 2505 0148 C7F8F030 		str	r3, [r7, #240]
 2506 014c D7F85C31 		ldr	r3, [r7, #348]
 2507 0150 DB69     		ldr	r3, [r3, #28]
 2508 0152 C7F8F430 		str	r3, [r7, #244]
 2509 0156 D7F85C31 		ldr	r3, [r7, #348]
 2510 015a 9B69     		ldr	r3, [r3, #24]
 2511 015c C7F8F830 		str	r3, [r7, #248]
 2512 0160 07F1EC03 		add	r3, r7, #236
 2513 0164 C7F82031 		str	r3, [r7, #288]
 2514 0168 07F5A473 		add	r3, r7, #328
 2515 016c C7F82431 		str	r3, [r7, #292]
 337:Lib/AI_Runtime/Npu/ll_aton/ll_sw_float.c ****                         SHAPE_INIT(sw_info->general.input.dim.tensor_h, sw_info->general.input.dim.
 338:Lib/AI_Runtime/Npu/ll_aton/ll_sw_float.c ****                                    sw_info->general.input.dim.tensor_c, sw_info->general.input.dim.
 339:Lib/AI_Runtime/Npu/ll_aton/ll_sw_float.c ****                         STRIDE_INIT(sw_info->general.input.stride.h, sw_info->general.input.stride.
ARM GAS  /tmp/ccEo7NLA.s 			page 57


 340:Lib/AI_Runtime/Npu/ll_aton/ll_sw_float.c ****                                     sw_info->general.input.stride.c, sw_info->general.input.stride.
 341:Lib/AI_Runtime/Npu/ll_aton/ll_sw_float.c ****                         1, &input_output_array, NULL);
 342:Lib/AI_Runtime/Npu/ll_aton/ll_sw_float.c **** 
 343:Lib/AI_Runtime/Npu/ll_aton/ll_sw_float.c ****   AI_TENSOR_OBJ_DECLARE(softmax_output, , 0x0, 4,
 2516              		.loc 1 343 3
 2517 0170 0023     		movs	r3, #0
 2518 0172 C7F8D030 		str	r3, [r7, #208]
 2519 0176 0023     		movs	r3, #0
 2520 0178 A7F8D430 		strh	r3, [r7, #212]	@ movhi
 2521 017c 0423     		movs	r3, #4
 2522 017e 87F8D630 		strb	r3, [r7, #214]
 2523 0182 0123     		movs	r3, #1
 2524 0184 87F8D730 		strb	r3, [r7, #215]
 2525 0188 0123     		movs	r3, #1
 2526 018a 87F8D830 		strb	r3, [r7, #216]
 2527 018e D7F8D830 		ldr	r3, [r7, #216]
 2528 0192 0422     		movs	r2, #4
 2529 0194 62F31F23 		bfi	r3, r2, #8, #24
 2530 0198 C7F8D830 		str	r3, [r7, #216]
 2531 019c D7F85C31 		ldr	r3, [r7, #348]
 2532 01a0 DB6B     		ldr	r3, [r3, #60]
 2533 01a2 C7F8C030 		str	r3, [r7, #192]
 2534 01a6 D7F85C31 		ldr	r3, [r7, #348]
 2535 01aa 9B6B     		ldr	r3, [r3, #56]
 2536 01ac C7F8C430 		str	r3, [r7, #196]
 2537 01b0 D7F85C31 		ldr	r3, [r7, #348]
 2538 01b4 5B6B     		ldr	r3, [r3, #52]
 2539 01b6 C7F8C830 		str	r3, [r7, #200]
 2540 01ba D7F85C31 		ldr	r3, [r7, #348]
 2541 01be 1B6B     		ldr	r3, [r3, #48]
 2542 01c0 C7F8CC30 		str	r3, [r7, #204]
 2543 01c4 07F1C003 		add	r3, r7, #192
 2544 01c8 C7F8DC30 		str	r3, [r7, #220]
 2545 01cc 0223     		movs	r3, #2
 2546 01ce 87F8E030 		strb	r3, [r7, #224]
 2547 01d2 D7F8E030 		ldr	r3, [r7, #224]
 2548 01d6 0422     		movs	r2, #4
 2549 01d8 62F31F23 		bfi	r3, r2, #8, #24
 2550 01dc C7F8E030 		str	r3, [r7, #224]
 2551 01e0 D7F85C31 		ldr	r3, [r7, #348]
 2552 01e4 1B6D     		ldr	r3, [r3, #80]
 2553 01e6 C7F8B030 		str	r3, [r7, #176]
 2554 01ea D7F85C31 		ldr	r3, [r7, #348]
 2555 01ee DB6C     		ldr	r3, [r3, #76]
 2556 01f0 C7F8B430 		str	r3, [r7, #180]
 2557 01f4 D7F85C31 		ldr	r3, [r7, #348]
 2558 01f8 9B6C     		ldr	r3, [r3, #72]
 2559 01fa C7F8B830 		str	r3, [r7, #184]
 2560 01fe D7F85C31 		ldr	r3, [r7, #348]
 2561 0202 5B6C     		ldr	r3, [r3, #68]
 2562 0204 C7F8BC30 		str	r3, [r7, #188]
 2563 0208 07F1B003 		add	r3, r7, #176
 2564 020c C7F8E430 		str	r3, [r7, #228]
 2565 0210 07F59C73 		add	r3, r7, #312
 2566 0214 C7F8E830 		str	r3, [r7, #232]
 344:Lib/AI_Runtime/Npu/ll_aton/ll_sw_float.c ****                         SHAPE_INIT(sw_info->general.output.dim.tensor_h, sw_info->general.output.di
 345:Lib/AI_Runtime/Npu/ll_aton/ll_sw_float.c ****                                    sw_info->general.output.dim.tensor_c, sw_info->general.output.di
ARM GAS  /tmp/ccEo7NLA.s 			page 58


 346:Lib/AI_Runtime/Npu/ll_aton/ll_sw_float.c ****                         STRIDE_INIT(sw_info->general.output.stride.h, sw_info->general.output.strid
 347:Lib/AI_Runtime/Npu/ll_aton/ll_sw_float.c ****                                     sw_info->general.output.stride.c, sw_info->general.output.strid
 348:Lib/AI_Runtime/Npu/ll_aton/ll_sw_float.c ****                         1, &softmax_output_array, NULL);
 349:Lib/AI_Runtime/Npu/ll_aton/ll_sw_float.c **** 
 350:Lib/AI_Runtime/Npu/ll_aton/ll_sw_float.c ****   AI_TENSOR_OBJ_DECLARE(sm_scratch0, , 0x0, 4,
 2567              		.loc 1 350 3
 2568 0218 0023     		movs	r3, #0
 2569 021a C7F89430 		str	r3, [r7, #148]
 2570 021e 0023     		movs	r3, #0
 2571 0220 A7F89830 		strh	r3, [r7, #152]	@ movhi
 2572 0224 0423     		movs	r3, #4
 2573 0226 87F89A30 		strb	r3, [r7, #154]
 2574 022a 0123     		movs	r3, #1
 2575 022c 87F89B30 		strb	r3, [r7, #155]
 2576 0230 0123     		movs	r3, #1
 2577 0232 87F89C30 		strb	r3, [r7, #156]
 2578 0236 D7F89C30 		ldr	r3, [r7, #156]
 2579 023a 0422     		movs	r2, #4
 2580 023c 62F31F23 		bfi	r3, r2, #8, #24
 2581 0240 C7F89C30 		str	r3, [r7, #156]
 2582 0244 D7F85C31 		ldr	r3, [r7, #348]
 2583 0248 9B6E     		ldr	r3, [r3, #104]
 2584 024a C7F88430 		str	r3, [r7, #132]
 2585 024e D7F85C31 		ldr	r3, [r7, #348]
 2586 0252 5B6E     		ldr	r3, [r3, #100]
 2587 0254 C7F88830 		str	r3, [r7, #136]
 2588 0258 D7F85C31 		ldr	r3, [r7, #348]
 2589 025c 1B6E     		ldr	r3, [r3, #96]
 2590 025e C7F88C30 		str	r3, [r7, #140]
 2591 0262 D7F85C31 		ldr	r3, [r7, #348]
 2592 0266 DB6D     		ldr	r3, [r3, #92]
 2593 0268 C7F89030 		str	r3, [r7, #144]
 2594 026c 07F18403 		add	r3, r7, #132
 2595 0270 C7F8A030 		str	r3, [r7, #160]
 2596 0274 0223     		movs	r3, #2
 2597 0276 87F8A430 		strb	r3, [r7, #164]
 2598 027a D7F8A430 		ldr	r3, [r7, #164]
 2599 027e 0422     		movs	r2, #4
 2600 0280 62F31F23 		bfi	r3, r2, #8, #24
 2601 0284 C7F8A430 		str	r3, [r7, #164]
 2602 0288 D7F85C31 		ldr	r3, [r7, #348]
 2603 028c DB6F     		ldr	r3, [r3, #124]
 2604 028e 7B67     		str	r3, [r7, #116]
 2605 0290 D7F85C31 		ldr	r3, [r7, #348]
 2606 0294 9B6F     		ldr	r3, [r3, #120]
 2607 0296 BB67     		str	r3, [r7, #120]
 2608 0298 D7F85C31 		ldr	r3, [r7, #348]
 2609 029c 5B6F     		ldr	r3, [r3, #116]
 2610 029e FB67     		str	r3, [r7, #124]
 2611 02a0 D7F85C31 		ldr	r3, [r7, #348]
 2612 02a4 1B6F     		ldr	r3, [r3, #112]
 2613 02a6 C7F88030 		str	r3, [r7, #128]
 2614 02aa 07F17403 		add	r3, r7, #116
 2615 02ae C7F8A830 		str	r3, [r7, #168]
 2616 02b2 07F59473 		add	r3, r7, #296
 2617 02b6 C7F8AC30 		str	r3, [r7, #172]
 351:Lib/AI_Runtime/Npu/ll_aton/ll_sw_float.c ****                         SHAPE_INIT(sw_info->scratch.dim.tensor_h, sw_info->scratch.dim.tensor_w,
ARM GAS  /tmp/ccEo7NLA.s 			page 59


 352:Lib/AI_Runtime/Npu/ll_aton/ll_sw_float.c ****                                    sw_info->scratch.dim.tensor_c, sw_info->scratch.dim.tensor_b),
 353:Lib/AI_Runtime/Npu/ll_aton/ll_sw_float.c ****                         STRIDE_INIT(sw_info->scratch.stride.h, sw_info->scratch.stride.w, sw_info->
 354:Lib/AI_Runtime/Npu/ll_aton/ll_sw_float.c ****                                     sw_info->scratch.stride.b),
 355:Lib/AI_Runtime/Npu/ll_aton/ll_sw_float.c ****                         1, &sm_scratch0_array, NULL);
 356:Lib/AI_Runtime/Npu/ll_aton/ll_sw_float.c **** 
 357:Lib/AI_Runtime/Npu/ll_aton/ll_sw_float.c ****   // tensor chain initialization
 358:Lib/AI_Runtime/Npu/ll_aton/ll_sw_float.c ****   AI_TENSOR_CHAIN_OBJ_DECLARE(softmax_chain, , 4, AI_TENSOR_LIST_OBJ_INIT(AI_FLAG_NONE, 1, TENSORS(
 2618              		.loc 1 358 3
 2619 02ba 0423     		movs	r3, #4
 2620 02bc A7F86C30 		strh	r3, [r7, #108]	@ movhi
 2621 02c0 0023     		movs	r3, #0
 2622 02c2 A7F86E30 		strh	r3, [r7, #110]	@ movhi
 2623 02c6 07F5B073 		add	r3, r7, #352
 2624 02ca A3F59A73 		sub	r3, r3, #308
 2625 02ce 0122     		movs	r2, #1
 2626 02d0 1A80     		strh	r2, [r3]	@ movhi
 2627 02d2 07F5B073 		add	r3, r7, #352
 2628 02d6 A3F59A73 		sub	r3, r3, #308
 2629 02da 0022     		movs	r2, #0
 2630 02dc 5A80     		strh	r2, [r3, #2]	@ movhi
 2631 02de 07F58673 		add	r3, r7, #268
 2632 02e2 BB66     		str	r3, [r7, #104]
 2633 02e4 07F5B073 		add	r3, r7, #352
 2634 02e8 A3F59A73 		sub	r3, r3, #308
 2635 02ec 07F16802 		add	r2, r7, #104
 2636 02f0 5A60     		str	r2, [r3, #4]
 2637 02f2 07F5B073 		add	r3, r7, #352
 2638 02f6 A3F59A73 		sub	r3, r3, #308
 2639 02fa 0022     		movs	r2, #0
 2640 02fc 9A60     		str	r2, [r3, #8]
 2641 02fe 07F5B073 		add	r3, r7, #352
 2642 0302 A3F59A73 		sub	r3, r3, #308
 2643 0306 0122     		movs	r2, #1
 2644 0308 9A81     		strh	r2, [r3, #12]	@ movhi
 2645 030a 07F5B073 		add	r3, r7, #352
 2646 030e A3F59A73 		sub	r3, r3, #308
 2647 0312 0022     		movs	r2, #0
 2648 0314 DA81     		strh	r2, [r3, #14]	@ movhi
 2649 0316 07F1D003 		add	r3, r7, #208
 2650 031a 7B66     		str	r3, [r7, #100]
 2651 031c 07F5B073 		add	r3, r7, #352
 2652 0320 A3F59A73 		sub	r3, r3, #308
 2653 0324 07F16402 		add	r2, r7, #100
 2654 0328 1A61     		str	r2, [r3, #16]
 2655 032a 07F5B073 		add	r3, r7, #352
 2656 032e A3F59A73 		sub	r3, r3, #308
 2657 0332 0022     		movs	r2, #0
 2658 0334 5A61     		str	r2, [r3, #20]
 2659 0336 07F5B073 		add	r3, r7, #352
 2660 033a A3F59A73 		sub	r3, r3, #308
 2661 033e 0022     		movs	r2, #0
 2662 0340 1A83     		strh	r2, [r3, #24]	@ movhi
 2663 0342 07F5B073 		add	r3, r7, #352
 2664 0346 A3F59A73 		sub	r3, r3, #308
 2665 034a 0022     		movs	r2, #0
 2666 034c 5A83     		strh	r2, [r3, #26]	@ movhi
 2667 034e 07F5B073 		add	r3, r7, #352
ARM GAS  /tmp/ccEo7NLA.s 			page 60


 2668 0352 A3F58073 		sub	r3, r3, #256
 2669 0356 0022     		movs	r2, #0
 2670 0358 1A60     		str	r2, [r3]
 2671 035a 07F5B073 		add	r3, r7, #352
 2672 035e A3F59A73 		sub	r3, r3, #308
 2673 0362 07F16002 		add	r2, r7, #96
 2674 0366 DA61     		str	r2, [r3, #28]
 2675 0368 07F5B073 		add	r3, r7, #352
 2676 036c A3F59A73 		sub	r3, r3, #308
 2677 0370 0022     		movs	r2, #0
 2678 0372 1A62     		str	r2, [r3, #32]
 2679 0374 07F5B073 		add	r3, r7, #352
 2680 0378 A3F59A73 		sub	r3, r3, #308
 2681 037c 0122     		movs	r2, #1
 2682 037e 9A84     		strh	r2, [r3, #36]	@ movhi
 2683 0380 07F5B073 		add	r3, r7, #352
 2684 0384 A3F59A73 		sub	r3, r3, #308
 2685 0388 0022     		movs	r2, #0
 2686 038a DA84     		strh	r2, [r3, #38]	@ movhi
 2687 038c 07F5B073 		add	r3, r7, #352
 2688 0390 A3F58273 		sub	r3, r3, #260
 2689 0394 07F19402 		add	r2, r7, #148
 2690 0398 1A60     		str	r2, [r3]
 2691 039a 07F5B073 		add	r3, r7, #352
 2692 039e A3F59A73 		sub	r3, r3, #308
 2693 03a2 07F15C02 		add	r2, r7, #92
 2694 03a6 9A62     		str	r2, [r3, #40]
 2695 03a8 07F5B073 		add	r3, r7, #352
 2696 03ac A3F59A73 		sub	r3, r3, #308
 2697 03b0 0022     		movs	r2, #0
 2698 03b2 DA62     		str	r2, [r3, #44]
 2699 03b4 07F12C03 		add	r3, r7, #44
 2700 03b8 3B67     		str	r3, [r7, #112]
 359:Lib/AI_Runtime/Npu/ll_aton/ll_sw_float.c ****                               AI_TENSOR_LIST_OBJ_INIT(AI_FLAG_NONE, 1, TENSORS(&softmax_output)),
 360:Lib/AI_Runtime/Npu/ll_aton/ll_sw_float.c ****                               AI_TENSOR_LIST_OBJ_EMPTY, AI_TENSOR_LIST_OBJ_INIT(AI_FLAG_NONE, 1, TE
 361:Lib/AI_Runtime/Npu/ll_aton/ll_sw_float.c **** 
 362:Lib/AI_Runtime/Npu/ll_aton/ll_sw_float.c ****   AI_LAYER_OBJ_DECLARE(sm_layer, 1, SM_TYPE, 0x0, NULL, sm, forward_sm, &softmax_chain, NULL, NULL,
 2701              		.loc 1 362 3
 2702 03ba 07F5B073 		add	r3, r7, #352
 2703 03be A3F5AC73 		sub	r3, r3, #344
 2704 03c2 1846     		mov	r0, r3
 2705 03c4 2423     		movs	r3, #36
 2706 03c6 1A46     		mov	r2, r3
 2707 03c8 0021     		movs	r1, #0
 2708 03ca FFF7FEFF 		bl	memset
 2709 03ce 07F5B073 		add	r3, r7, #352
 2710 03d2 A3F5AC73 		sub	r3, r3, #344
 2711 03d6 4FF48672 		mov	r2, #268
 2712 03da 1A80     		strh	r2, [r3]	@ movhi
 2713 03dc 07F5B073 		add	r3, r7, #352
 2714 03e0 A3F5AC73 		sub	r3, r3, #344
 2715 03e4 0122     		movs	r2, #1
 2716 03e6 5A80     		strh	r2, [r3, #2]	@ movhi
 2717 03e8 07F5B073 		add	r3, r7, #352
 2718 03ec A3F5AC73 		sub	r3, r3, #344
 2719 03f0 044A     		ldr	r2, .L53+8
 2720 03f2 5A61     		str	r2, [r3, #20]
ARM GAS  /tmp/ccEo7NLA.s 			page 61


 2721 03f4 07F5B073 		add	r3, r7, #352
 2722 03f8 06E0     		b	.L54
 2723              	.L55:
 2724 03fa 00BF     		.align	2
 2725              	.L53:
 2726 03fc 40040408 		.word	134480960
 2727 0400 40108400 		.word	8654912
 2728 0404 00000000 		.word	forward_sm
 2729              	.L54:
 2730 0408 A3F5AC73 		sub	r3, r3, #344
 2731 040c 07F16C02 		add	r2, r7, #108
 2732 0410 9A61     		str	r2, [r3, #24]
 2733 0412 D7F85C31 		ldr	r3, [r7, #348]
 2734 0416 D3F88830 		ldr	r3, [r3, #136]
 2735 041a 1846     		mov	r0, r3
 2736 041c FFF7FEFF 		bl	helper_emit_shape_index_axis
 2737 0420 0346     		mov	r3, r0
 2738              		.loc 1 362 3 is_stmt 0 discriminator 1
 2739 0422 1AB2     		sxth	r2, r3
 2740 0424 07F5B073 		add	r3, r7, #352
 2741 0428 A3F5AC73 		sub	r3, r3, #344
 2742 042c 1A84     		strh	r2, [r3, #32]	@ movhi
 363:Lib/AI_Runtime/Npu/ll_aton/ll_sw_float.c ****                        .axis = helper_emit_shape_index_axis(sw_info->axis))
 364:Lib/AI_Runtime/Npu/ll_aton/ll_sw_float.c ****   sm_layer.forward(AI_LAYER_OBJ(&sm_layer));
 2743              		.loc 1 364 11 is_stmt 1
 2744 042e 07F5B073 		add	r3, r7, #352
 2745 0432 A3F5AC73 		sub	r3, r3, #344
 2746 0436 5B69     		ldr	r3, [r3, #20]
 2747              		.loc 1 364 3
 2748 0438 07F10802 		add	r2, r7, #8
 2749 043c 1046     		mov	r0, r2
 2750 043e 9847     		blx	r3
 2751              	.LVL6:
 365:Lib/AI_Runtime/Npu/ll_aton/ll_sw_float.c **** }
 2752              		.loc 1 365 1
 2753 0440 00BF     		nop
 2754 0442 07F5B077 		add	r7, r7, #352
 2755              		.cfi_def_cfa_offset 8
 2756 0446 BD46     		mov	sp, r7
 2757              		.cfi_def_cfa_register 13
 2758              		@ sp needed
 2759 0448 80BD     		pop	{r7, pc}
 2760              		.cfi_endproc
 2761              	.LFE19:
 2763 044a 00BF     		.section	.text.ll_sw_forward_activ,"ax",%progbits
 2764              		.align	1
 2765              		.global	ll_sw_forward_activ
 2766              		.syntax unified
 2767              		.thumb
 2768              		.thumb_func
 2770              	ll_sw_forward_activ:
 2771              	.LFB20:
 366:Lib/AI_Runtime/Npu/ll_aton/ll_sw_float.c **** 
 367:Lib/AI_Runtime/Npu/ll_aton/ll_sw_float.c **** //##########################################################################################
 368:Lib/AI_Runtime/Npu/ll_aton/ll_sw_float.c **** /** activ forward function  */
 369:Lib/AI_Runtime/Npu/ll_aton/ll_sw_float.c **** void ll_sw_forward_activ(/* int processor, */ void *sw_info_struct)
 370:Lib/AI_Runtime/Npu/ll_aton/ll_sw_float.c **** {
ARM GAS  /tmp/ccEo7NLA.s 			page 62


 2772              		.loc 1 370 1
 2773              		.cfi_startproc
 2774              		@ args = 0, pretend = 0, frame = 528
 2775              		@ frame_needed = 1, uses_anonymous_args = 0
 2776 0000 80B5     		push	{r7, lr}
 2777              		.cfi_def_cfa_offset 8
 2778              		.cfi_offset 7, -8
 2779              		.cfi_offset 14, -4
 2780 0002 ADF5047D 		sub	sp, sp, #528
 2781              		.cfi_def_cfa_offset 536
 2782 0006 00AF     		add	r7, sp, #0
 2783              		.cfi_def_cfa_register 7
 2784 0008 07F50473 		add	r3, r7, #528
 2785 000c A3F50373 		sub	r3, r3, #524
 2786 0010 1860     		str	r0, [r3]
 371:Lib/AI_Runtime/Npu/ll_aton/ll_sw_float.c ****   Activ_sw_info *sw_info = (Activ_sw_info *)sw_info_struct;
 2787              		.loc 1 371 18
 2788 0012 07F50473 		add	r3, r7, #528
 2789 0016 A3F50373 		sub	r3, r3, #524
 2790 001a 1B68     		ldr	r3, [r3]
 2791 001c C7F80C32 		str	r3, [r7, #524]
 372:Lib/AI_Runtime/Npu/ll_aton/ll_sw_float.c ****   // array init
 373:Lib/AI_Runtime/Npu/ll_aton/ll_sw_float.c ****   AI_ARRAY_OBJ_DECLARE(input_output_array, FORMAT, sw_info->general.input.mem.start_offset,
 2792              		.loc 1 373 3
 2793 0020 DF4B     		ldr	r3, .L96
 2794 0022 C7F8FC31 		str	r3, [r7, #508]
 2795 0026 D7F80C32 		ldr	r3, [r7, #524]
 2796 002a 5B69     		ldr	r3, [r3, #20]
 2797 002c C7F80032 		str	r3, [r7, #512]
 2798 0030 D7F80C32 		ldr	r3, [r7, #524]
 2799 0034 9B6A     		ldr	r3, [r3, #40]
 2800 0036 C7F80432 		str	r3, [r7, #516]
 2801 003a D7F80C32 		ldr	r3, [r7, #524]
 2802 003e 9B6A     		ldr	r3, [r3, #40]
 2803 0040 C7F80832 		str	r3, [r7, #520]
 374:Lib/AI_Runtime/Npu/ll_aton/ll_sw_float.c ****                        sw_info->general.input.mem.start_offset, sw_info->general.input.dim.num_elem
 375:Lib/AI_Runtime/Npu/ll_aton/ll_sw_float.c ****   AI_ARRAY_OBJ_DECLARE(activ_output_array, FORMAT, sw_info->general.output.mem.start_offset,
 2804              		.loc 1 375 3
 2805 0044 D64B     		ldr	r3, .L96
 2806 0046 C7F8EC31 		str	r3, [r7, #492]
 2807 004a D7F80C32 		ldr	r3, [r7, #524]
 2808 004e 1B6C     		ldr	r3, [r3, #64]
 2809 0050 C7F8F031 		str	r3, [r7, #496]
 2810 0054 D7F80C32 		ldr	r3, [r7, #524]
 2811 0058 5B6D     		ldr	r3, [r3, #84]
 2812 005a C7F8F431 		str	r3, [r7, #500]
 2813 005e D7F80C32 		ldr	r3, [r7, #524]
 2814 0062 5B6D     		ldr	r3, [r3, #84]
 2815 0064 C7F8F831 		str	r3, [r7, #504]
 376:Lib/AI_Runtime/Npu/ll_aton/ll_sw_float.c ****                        sw_info->general.output.mem.start_offset, sw_info->general.output.dim.num_el
 377:Lib/AI_Runtime/Npu/ll_aton/ll_sw_float.c ****   // tensors init
 378:Lib/AI_Runtime/Npu/ll_aton/ll_sw_float.c ****   AI_TENSOR_OBJ_DECLARE(input_output, , 0x0, 4,
 2816              		.loc 1 378 3
 2817 0068 0023     		movs	r3, #0
 2818 006a C7F8D031 		str	r3, [r7, #464]
 2819 006e 0023     		movs	r3, #0
 2820 0070 A7F8D431 		strh	r3, [r7, #468]	@ movhi
ARM GAS  /tmp/ccEo7NLA.s 			page 63


 2821 0074 0423     		movs	r3, #4
 2822 0076 87F8D631 		strb	r3, [r7, #470]
 2823 007a 0123     		movs	r3, #1
 2824 007c 87F8D731 		strb	r3, [r7, #471]
 2825 0080 0123     		movs	r3, #1
 2826 0082 87F8D831 		strb	r3, [r7, #472]
 2827 0086 D7F8D831 		ldr	r3, [r7, #472]
 2828 008a 0422     		movs	r2, #4
 2829 008c 62F31F23 		bfi	r3, r2, #8, #24
 2830 0090 C7F8D831 		str	r3, [r7, #472]
 2831 0094 D7F80C32 		ldr	r3, [r7, #524]
 2832 0098 1B69     		ldr	r3, [r3, #16]
 2833 009a C7F8C031 		str	r3, [r7, #448]
 2834 009e D7F80C32 		ldr	r3, [r7, #524]
 2835 00a2 DB68     		ldr	r3, [r3, #12]
 2836 00a4 C7F8C431 		str	r3, [r7, #452]
 2837 00a8 D7F80C32 		ldr	r3, [r7, #524]
 2838 00ac 9B68     		ldr	r3, [r3, #8]
 2839 00ae C7F8C831 		str	r3, [r7, #456]
 2840 00b2 D7F80C32 		ldr	r3, [r7, #524]
 2841 00b6 5B68     		ldr	r3, [r3, #4]
 2842 00b8 C7F8CC31 		str	r3, [r7, #460]
 2843 00bc 07F5E073 		add	r3, r7, #448
 2844 00c0 C7F8DC31 		str	r3, [r7, #476]
 2845 00c4 0223     		movs	r3, #2
 2846 00c6 87F8E031 		strb	r3, [r7, #480]
 2847 00ca D7F8E031 		ldr	r3, [r7, #480]
 2848 00ce 0422     		movs	r2, #4
 2849 00d0 62F31F23 		bfi	r3, r2, #8, #24
 2850 00d4 C7F8E031 		str	r3, [r7, #480]
 2851 00d8 D7F80C32 		ldr	r3, [r7, #524]
 2852 00dc 5B6A     		ldr	r3, [r3, #36]
 2853 00de C7F8B031 		str	r3, [r7, #432]
 2854 00e2 D7F80C32 		ldr	r3, [r7, #524]
 2855 00e6 1B6A     		ldr	r3, [r3, #32]
 2856 00e8 C7F8B431 		str	r3, [r7, #436]
 2857 00ec D7F80C32 		ldr	r3, [r7, #524]
 2858 00f0 DB69     		ldr	r3, [r3, #28]
 2859 00f2 C7F8B831 		str	r3, [r7, #440]
 2860 00f6 D7F80C32 		ldr	r3, [r7, #524]
 2861 00fa 9B69     		ldr	r3, [r3, #24]
 2862 00fc C7F8BC31 		str	r3, [r7, #444]
 2863 0100 07F5D873 		add	r3, r7, #432
 2864 0104 C7F8E431 		str	r3, [r7, #484]
 2865 0108 07F5FE73 		add	r3, r7, #508
 2866 010c C7F8E831 		str	r3, [r7, #488]
 379:Lib/AI_Runtime/Npu/ll_aton/ll_sw_float.c ****                         SHAPE_INIT(sw_info->general.input.dim.tensor_h, sw_info->general.input.dim.
 380:Lib/AI_Runtime/Npu/ll_aton/ll_sw_float.c ****                                    sw_info->general.input.dim.tensor_c, sw_info->general.input.dim.
 381:Lib/AI_Runtime/Npu/ll_aton/ll_sw_float.c ****                         STRIDE_INIT(sw_info->general.input.stride.h, sw_info->general.input.stride.
 382:Lib/AI_Runtime/Npu/ll_aton/ll_sw_float.c ****                                     sw_info->general.input.stride.c, sw_info->general.input.stride.
 383:Lib/AI_Runtime/Npu/ll_aton/ll_sw_float.c ****                         1, &input_output_array, NULL)
 384:Lib/AI_Runtime/Npu/ll_aton/ll_sw_float.c ****   AI_TENSOR_OBJ_DECLARE(activ_output, , 0x0, 4,
 2867              		.loc 1 384 3
 2868 0110 0023     		movs	r3, #0
 2869 0112 C7F89431 		str	r3, [r7, #404]
 2870 0116 0023     		movs	r3, #0
 2871 0118 A7F89831 		strh	r3, [r7, #408]	@ movhi
ARM GAS  /tmp/ccEo7NLA.s 			page 64


 2872 011c 0423     		movs	r3, #4
 2873 011e 87F89A31 		strb	r3, [r7, #410]
 2874 0122 0123     		movs	r3, #1
 2875 0124 87F89B31 		strb	r3, [r7, #411]
 2876 0128 0123     		movs	r3, #1
 2877 012a 87F89C31 		strb	r3, [r7, #412]
 2878 012e D7F89C31 		ldr	r3, [r7, #412]
 2879 0132 0422     		movs	r2, #4
 2880 0134 62F31F23 		bfi	r3, r2, #8, #24
 2881 0138 C7F89C31 		str	r3, [r7, #412]
 2882 013c D7F80C32 		ldr	r3, [r7, #524]
 2883 0140 DB6B     		ldr	r3, [r3, #60]
 2884 0142 C7F88431 		str	r3, [r7, #388]
 2885 0146 D7F80C32 		ldr	r3, [r7, #524]
 2886 014a 9B6B     		ldr	r3, [r3, #56]
 2887 014c C7F88831 		str	r3, [r7, #392]
 2888 0150 D7F80C32 		ldr	r3, [r7, #524]
 2889 0154 5B6B     		ldr	r3, [r3, #52]
 2890 0156 C7F88C31 		str	r3, [r7, #396]
 2891 015a D7F80C32 		ldr	r3, [r7, #524]
 2892 015e 1B6B     		ldr	r3, [r3, #48]
 2893 0160 C7F89031 		str	r3, [r7, #400]
 2894 0164 07F5C273 		add	r3, r7, #388
 2895 0168 C7F8A031 		str	r3, [r7, #416]
 2896 016c 0223     		movs	r3, #2
 2897 016e 87F8A431 		strb	r3, [r7, #420]
 2898 0172 D7F8A431 		ldr	r3, [r7, #420]
 2899 0176 0422     		movs	r2, #4
 2900 0178 62F31F23 		bfi	r3, r2, #8, #24
 2901 017c C7F8A431 		str	r3, [r7, #420]
 2902 0180 D7F80C32 		ldr	r3, [r7, #524]
 2903 0184 1B6D     		ldr	r3, [r3, #80]
 2904 0186 C7F87431 		str	r3, [r7, #372]
 2905 018a D7F80C32 		ldr	r3, [r7, #524]
 2906 018e DB6C     		ldr	r3, [r3, #76]
 2907 0190 C7F87831 		str	r3, [r7, #376]
 2908 0194 D7F80C32 		ldr	r3, [r7, #524]
 2909 0198 9B6C     		ldr	r3, [r3, #72]
 2910 019a C7F87C31 		str	r3, [r7, #380]
 2911 019e D7F80C32 		ldr	r3, [r7, #524]
 2912 01a2 5B6C     		ldr	r3, [r3, #68]
 2913 01a4 C7F88031 		str	r3, [r7, #384]
 2914 01a8 07F5BA73 		add	r3, r7, #372
 2915 01ac C7F8A831 		str	r3, [r7, #424]
 2916 01b0 07F5F673 		add	r3, r7, #492
 2917 01b4 C7F8AC31 		str	r3, [r7, #428]
 385:Lib/AI_Runtime/Npu/ll_aton/ll_sw_float.c ****                         SHAPE_INIT(sw_info->general.output.dim.tensor_h, sw_info->general.output.di
 386:Lib/AI_Runtime/Npu/ll_aton/ll_sw_float.c ****                                    sw_info->general.output.dim.tensor_c, sw_info->general.output.di
 387:Lib/AI_Runtime/Npu/ll_aton/ll_sw_float.c ****                         STRIDE_INIT(sw_info->general.output.stride.h, sw_info->general.output.strid
 388:Lib/AI_Runtime/Npu/ll_aton/ll_sw_float.c ****                                     sw_info->general.output.stride.c, sw_info->general.output.strid
 389:Lib/AI_Runtime/Npu/ll_aton/ll_sw_float.c ****                         1, &activ_output_array, NULL)
 390:Lib/AI_Runtime/Npu/ll_aton/ll_sw_float.c ****   // tensor chains init
 391:Lib/AI_Runtime/Npu/ll_aton/ll_sw_float.c ****   AI_TENSOR_CHAIN_OBJ_DECLARE(activ_chain, , 4, AI_TENSOR_LIST_OBJ_INIT(AI_FLAG_NONE, 1, TENSORS(&i
 2918              		.loc 1 391 3
 2919 01b8 0423     		movs	r3, #4
 2920 01ba A7F86C31 		strh	r3, [r7, #364]	@ movhi
 2921 01be 0023     		movs	r3, #0
ARM GAS  /tmp/ccEo7NLA.s 			page 65


 2922 01c0 A7F86E31 		strh	r3, [r7, #366]	@ movhi
 2923 01c4 0123     		movs	r3, #1
 2924 01c6 A7F82C31 		strh	r3, [r7, #300]	@ movhi
 2925 01ca 0023     		movs	r3, #0
 2926 01cc A7F82E31 		strh	r3, [r7, #302]	@ movhi
 2927 01d0 07F5E873 		add	r3, r7, #464
 2928 01d4 C7F86831 		str	r3, [r7, #360]
 2929 01d8 07F5B473 		add	r3, r7, #360
 2930 01dc C7F83031 		str	r3, [r7, #304]
 2931 01e0 0023     		movs	r3, #0
 2932 01e2 C7F83431 		str	r3, [r7, #308]
 2933 01e6 0123     		movs	r3, #1
 2934 01e8 A7F83831 		strh	r3, [r7, #312]	@ movhi
 2935 01ec 0023     		movs	r3, #0
 2936 01ee A7F83A31 		strh	r3, [r7, #314]	@ movhi
 2937 01f2 07F5CA73 		add	r3, r7, #404
 2938 01f6 C7F86431 		str	r3, [r7, #356]
 2939 01fa 07F5B273 		add	r3, r7, #356
 2940 01fe C7F83C31 		str	r3, [r7, #316]
 2941 0202 0023     		movs	r3, #0
 2942 0204 C7F84031 		str	r3, [r7, #320]
 2943 0208 0023     		movs	r3, #0
 2944 020a A7F84431 		strh	r3, [r7, #324]	@ movhi
 2945 020e 0023     		movs	r3, #0
 2946 0210 A7F84631 		strh	r3, [r7, #326]	@ movhi
 2947 0214 0023     		movs	r3, #0
 2948 0216 C7F86031 		str	r3, [r7, #352]
 2949 021a 07F5B073 		add	r3, r7, #352
 2950 021e C7F84831 		str	r3, [r7, #328]
 2951 0222 0023     		movs	r3, #0
 2952 0224 C7F84C31 		str	r3, [r7, #332]
 2953 0228 0023     		movs	r3, #0
 2954 022a A7F85031 		strh	r3, [r7, #336]	@ movhi
 2955 022e 0023     		movs	r3, #0
 2956 0230 A7F85231 		strh	r3, [r7, #338]	@ movhi
 2957 0234 0023     		movs	r3, #0
 2958 0236 C7F85C31 		str	r3, [r7, #348]
 2959 023a 07F5AE73 		add	r3, r7, #348
 2960 023e C7F85431 		str	r3, [r7, #340]
 2961 0242 0023     		movs	r3, #0
 2962 0244 C7F85831 		str	r3, [r7, #344]
 2963 0248 07F59673 		add	r3, r7, #300
 2964 024c C7F87031 		str	r3, [r7, #368]
 392:Lib/AI_Runtime/Npu/ll_aton/ll_sw_float.c ****                               AI_TENSOR_LIST_OBJ_INIT(AI_FLAG_NONE, 1, TENSORS(&activ_output)),
 393:Lib/AI_Runtime/Npu/ll_aton/ll_sw_float.c ****                               AI_TENSOR_LIST_OBJ_EMPTY, AI_TENSOR_LIST_OBJ_EMPTY)
 394:Lib/AI_Runtime/Npu/ll_aton/ll_sw_float.c **** 
 395:Lib/AI_Runtime/Npu/ll_aton/ll_sw_float.c ****   // layer initialization
 396:Lib/AI_Runtime/Npu/ll_aton/ll_sw_float.c ****   switch (sw_info->general.type)
 2965              		.loc 1 396 27
 2966 0250 D7F80C32 		ldr	r3, [r7, #524]
 2967 0254 1B78     		ldrb	r3, [r3]	@ zero_extendqisi2
 2968              		.loc 1 396 3
 2969 0256 013B     		subs	r3, r3, #1
 2970 0258 4E2B     		cmp	r3, #78
 2971 025a 01F2FF83 		bhi	.L95
 2972 025e 01A2     		adr	r2, .L59
 2973 0260 52F823F0 		ldr	pc, [r2, r3, lsl #2]
ARM GAS  /tmp/ccEo7NLA.s 			page 66


 2974              		.p2align 2
 2975              	.L59:
 2976 0264 A5030000 		.word	.L93+1
 2977 0268 F1040000 		.word	.L92+1
 2978 026c CD080000 		.word	.L91+1
 2979 0270 01080000 		.word	.L90+1
 2980 0274 99090000 		.word	.L89+1
 2981 0278 5D1A0000 		.word	.L95+1
 2982 027c 5D1A0000 		.word	.L95+1
 2983 0280 5D1A0000 		.word	.L95+1
 2984 0284 5D1A0000 		.word	.L95+1
 2985 0288 5D1A0000 		.word	.L95+1
 2986 028c 5D1A0000 		.word	.L95+1
 2987 0290 5D1A0000 		.word	.L95+1
 2988 0294 5D1A0000 		.word	.L95+1
 2989 0298 5D1A0000 		.word	.L95+1
 2990 029c 5D1A0000 		.word	.L95+1
 2991 02a0 5D1A0000 		.word	.L95+1
 2992 02a4 5D1A0000 		.word	.L95+1
 2993 02a8 5D1A0000 		.word	.L95+1
 2994 02ac 5D1A0000 		.word	.L95+1
 2995 02b0 21130000 		.word	.L88+1
 2996 02b4 D90E0000 		.word	.L87+1
 2997 02b8 5F0F0000 		.word	.L86+1
 2998 02bc A30C0000 		.word	.L85+1
 2999 02c0 290D0000 		.word	.L84+1
 3000 02c4 AF0D0000 		.word	.L83+1
 3001 02c8 350E0000 		.word	.L82+1
 3002 02cc 9D120000 		.word	.L81+1
 3003 02d0 FD110000 		.word	.L80+1
 3004 02d4 E50F0000 		.word	.L79+1
 3005 02d8 6B100000 		.word	.L78+1
 3006 02dc F1100000 		.word	.L77+1
 3007 02e0 77110000 		.word	.L76+1
 3008 02e4 A5130000 		.word	.L75+1
 3009 02e8 770A0000 		.word	.L74+1
 3010 02ec 5D1A0000 		.word	.L95+1
 3011 02f0 110B0000 		.word	.L73+1
 3012 02f4 970B0000 		.word	.L72+1
 3013 02f8 1D0C0000 		.word	.L71+1
 3014 02fc 5D1A0000 		.word	.L95+1
 3015 0300 5D1A0000 		.word	.L95+1
 3016 0304 5D1A0000 		.word	.L95+1
 3017 0308 5D1A0000 		.word	.L95+1
 3018 030c 5D1A0000 		.word	.L95+1
 3019 0310 5D1A0000 		.word	.L95+1
 3020 0314 5D1A0000 		.word	.L95+1
 3021 0318 29140000 		.word	.L70+1
 3022 031c 5D1A0000 		.word	.L95+1
 3023 0320 5D1A0000 		.word	.L95+1
 3024 0324 5D1A0000 		.word	.L95+1
 3025 0328 5D1A0000 		.word	.L95+1
 3026 032c 5D1A0000 		.word	.L95+1
 3027 0330 5D1A0000 		.word	.L95+1
 3028 0334 5D1A0000 		.word	.L95+1
 3029 0338 5D1A0000 		.word	.L95+1
 3030 033c 5D1A0000 		.word	.L95+1
ARM GAS  /tmp/ccEo7NLA.s 			page 67


 3031 0340 2B040000 		.word	.L69+1
 3032 0344 CD150000 		.word	.L68+1
 3033 0348 B1170000 		.word	.L67+1
 3034 034c 2D170000 		.word	.L66+1
 3035 0350 A9160000 		.word	.L65+1
 3036 0354 35180000 		.word	.L64+1
 3037 0358 5D1A0000 		.word	.L95+1
 3038 035c 5D1A0000 		.word	.L95+1
 3039 0360 5D1A0000 		.word	.L95+1
 3040 0364 5D1A0000 		.word	.L95+1
 3041 0368 5D1A0000 		.word	.L95+1
 3042 036c 5D1A0000 		.word	.L95+1
 3043 0370 31150000 		.word	.L63+1
 3044 0374 AD140000 		.word	.L62+1
 3045 0378 5D1A0000 		.word	.L95+1
 3046 037c 5D1A0000 		.word	.L95+1
 3047 0380 5D1A0000 		.word	.L95+1
 3048 0384 5D1A0000 		.word	.L95+1
 3049 0388 5D1A0000 		.word	.L95+1
 3050 038c 5D1A0000 		.word	.L95+1
 3051 0390 D1180000 		.word	.L61+1
 3052 0394 55190000 		.word	.L60+1
 3053 0398 5D1A0000 		.word	.L95+1
 3054 039c D9190000 		.word	.L58+1
 3055              		.p2align 1
 3056              	.L97:
 3057              		.align	2
 3058              	.L96:
 3059 03a0 40108200 		.word	8523840
 3060              	.L93:
 3061              	.LBB7:
 397:Lib/AI_Runtime/Npu/ll_aton/ll_sw_float.c ****   {
 398:Lib/AI_Runtime/Npu/ll_aton/ll_sw_float.c ****   case LL_SW_RELU:
 399:Lib/AI_Runtime/Npu/ll_aton/ll_sw_float.c ****   {
 400:Lib/AI_Runtime/Npu/ll_aton/ll_sw_float.c ****     AI_LAYER_OBJ_DECLARE(nonlinearity_layer, 2, NL_TYPE, 0x0, NULL, nl, forward_relu, &activ_chain,
 3062              		.loc 1 400 5
 3063 03a4 07F50473 		add	r3, r7, #528
 3064 03a8 A3F5F473 		sub	r3, r3, #488
 3065 03ac 40F20712 		movw	r2, #263
 3066 03b0 1A80     		strh	r2, [r3]	@ movhi
 3067 03b2 07F50473 		add	r3, r7, #528
 3068 03b6 A3F5F473 		sub	r3, r3, #488
 3069 03ba 0222     		movs	r2, #2
 3070 03bc 5A80     		strh	r2, [r3, #2]	@ movhi
 3071 03be 07F50473 		add	r3, r7, #528
 3072 03c2 A3F5F473 		sub	r3, r3, #488
 3073 03c6 0022     		movs	r2, #0
 3074 03c8 5A60     		str	r2, [r3, #4]
 3075 03ca 07F50473 		add	r3, r7, #528
 3076 03ce A3F5F473 		sub	r3, r3, #488
 3077 03d2 0022     		movs	r2, #0
 3078 03d4 9A60     		str	r2, [r3, #8]
 3079 03d6 07F50473 		add	r3, r7, #528
 3080 03da A3F5F473 		sub	r3, r3, #488
 3081 03de 0022     		movs	r2, #0
 3082 03e0 DA60     		str	r2, [r3, #12]
 3083 03e2 07F50473 		add	r3, r7, #528
ARM GAS  /tmp/ccEo7NLA.s 			page 68


 3084 03e6 A3F5F473 		sub	r3, r3, #488
 3085 03ea 0022     		movs	r2, #0
 3086 03ec 1A61     		str	r2, [r3, #16]
 3087 03ee 07F50473 		add	r3, r7, #528
 3088 03f2 A3F5F473 		sub	r3, r3, #488
 3089 03f6 3B4A     		ldr	r2, .L98
 3090 03f8 5A61     		str	r2, [r3, #20]
 3091 03fa 07F50473 		add	r3, r7, #528
 3092 03fe A3F5F473 		sub	r3, r3, #488
 3093 0402 07F5B672 		add	r2, r7, #364
 3094 0406 9A61     		str	r2, [r3, #24]
 3095 0408 07F50473 		add	r3, r7, #528
 3096 040c A3F5F473 		sub	r3, r3, #488
 3097 0410 0022     		movs	r2, #0
 3098 0412 DA61     		str	r2, [r3, #28]
 401:Lib/AI_Runtime/Npu/ll_aton/ll_sw_float.c ****                          .nl_params = NULL, )
 402:Lib/AI_Runtime/Npu/ll_aton/ll_sw_float.c ****     nonlinearity_layer.forward(AI_LAYER_OBJ(&nonlinearity_layer));
 3099              		.loc 1 402 23
 3100 0414 07F50473 		add	r3, r7, #528
 3101 0418 A3F5F473 		sub	r3, r3, #488
 3102 041c 5B69     		ldr	r3, [r3, #20]
 3103              		.loc 1 402 5
 3104 041e 07F12802 		add	r2, r7, #40
 3105 0422 1046     		mov	r0, r2
 3106 0424 9847     		blx	r3
 3107              	.LVL7:
 3108              	.LBE7:
 403:Lib/AI_Runtime/Npu/ll_aton/ll_sw_float.c ****   }
 404:Lib/AI_Runtime/Npu/ll_aton/ll_sw_float.c ****   break;
 3109              		.loc 1 404 3
 3110 0426 01F01ABB 		b	.L94
 3111              	.L69:
 3112              	.LBB8:
 405:Lib/AI_Runtime/Npu/ll_aton/ll_sw_float.c ****   case LL_SW_CLIP:
 406:Lib/AI_Runtime/Npu/ll_aton/ll_sw_float.c ****   {
 407:Lib/AI_Runtime/Npu/ll_aton/ll_sw_float.c ****     AI_ARRAY_OBJ_DECLARE_STATIC(clip_layer_params, ai_float, AI_ARRAY_FORMAT_FLOAT, AI_CONST, 2, sw
 3113              		.loc 1 407 5
 3114 042a 2F4B     		ldr	r3, .L98+4
 3115 042c C7F81C31 		str	r3, [r7, #284]
 3116 0430 0223     		movs	r3, #2
 3117 0432 C7F82031 		str	r3, [r7, #288]
 3118 0436 D7F80C32 		ldr	r3, [r7, #524]
 3119 043a D3F89430 		ldr	r3, [r3, #148]	@ float
 3120 043e C7F81431 		str	r3, [r7, #276]	@ float
 3121 0442 D7F80C32 		ldr	r3, [r7, #524]
 3122 0446 D3F89830 		ldr	r3, [r3, #152]	@ float
 3123 044a C7F81831 		str	r3, [r7, #280]	@ float
 3124 044e 07F58A73 		add	r3, r7, #276
 3125 0452 C7F82431 		str	r3, [r7, #292]
 3126 0456 0023     		movs	r3, #0
 3127 0458 C7F82831 		str	r3, [r7, #296]
 408:Lib/AI_Runtime/Npu/ll_aton/ll_sw_float.c ****                                 sw_info->max)
 409:Lib/AI_Runtime/Npu/ll_aton/ll_sw_float.c ****     AI_LAYER_OBJ_DECLARE(nonlinearity_layer, 2, NL_TYPE, 0x0, NULL, nl, forward_clip, &activ_chain,
 3128              		.loc 1 409 5
 3129 045c 07F50473 		add	r3, r7, #528
 3130 0460 A3F5F473 		sub	r3, r3, #488
 3131 0464 40F20712 		movw	r2, #263
ARM GAS  /tmp/ccEo7NLA.s 			page 69


 3132 0468 1A80     		strh	r2, [r3]	@ movhi
 3133 046a 07F50473 		add	r3, r7, #528
 3134 046e A3F5F473 		sub	r3, r3, #488
 3135 0472 0222     		movs	r2, #2
 3136 0474 5A80     		strh	r2, [r3, #2]	@ movhi
 3137 0476 07F50473 		add	r3, r7, #528
 3138 047a A3F5F473 		sub	r3, r3, #488
 3139 047e 0022     		movs	r2, #0
 3140 0480 5A60     		str	r2, [r3, #4]
 3141 0482 07F50473 		add	r3, r7, #528
 3142 0486 A3F5F473 		sub	r3, r3, #488
 3143 048a 0022     		movs	r2, #0
 3144 048c 9A60     		str	r2, [r3, #8]
 3145 048e 07F50473 		add	r3, r7, #528
 3146 0492 A3F5F473 		sub	r3, r3, #488
 3147 0496 0022     		movs	r2, #0
 3148 0498 DA60     		str	r2, [r3, #12]
 3149 049a 07F50473 		add	r3, r7, #528
 3150 049e A3F5F473 		sub	r3, r3, #488
 3151 04a2 0022     		movs	r2, #0
 3152 04a4 1A61     		str	r2, [r3, #16]
 3153 04a6 07F50473 		add	r3, r7, #528
 3154 04aa A3F5F473 		sub	r3, r3, #488
 3155 04ae 0F4A     		ldr	r2, .L98+8
 3156 04b0 5A61     		str	r2, [r3, #20]
 3157 04b2 07F50473 		add	r3, r7, #528
 3158 04b6 A3F5F473 		sub	r3, r3, #488
 3159 04ba 07F5B672 		add	r2, r7, #364
 3160 04be 9A61     		str	r2, [r3, #24]
 3161 04c0 07F50473 		add	r3, r7, #528
 3162 04c4 A3F5F473 		sub	r3, r3, #488
 3163 04c8 07F58E72 		add	r2, r7, #284
 3164 04cc DA61     		str	r2, [r3, #28]
 410:Lib/AI_Runtime/Npu/ll_aton/ll_sw_float.c ****                          .nl_params = AI_ARRAY_OBJ(&clip_layer_params))
 411:Lib/AI_Runtime/Npu/ll_aton/ll_sw_float.c ****     nonlinearity_layer.forward(AI_LAYER_OBJ(&nonlinearity_layer));
 3165              		.loc 1 411 23
 3166 04ce 07F50473 		add	r3, r7, #528
 3167 04d2 A3F5F473 		sub	r3, r3, #488
 3168 04d6 5B69     		ldr	r3, [r3, #20]
 3169              		.loc 1 411 5
 3170 04d8 07F12802 		add	r2, r7, #40
 3171 04dc 1046     		mov	r0, r2
 3172 04de 9847     		blx	r3
 3173              	.LVL8:
 3174              	.LBE8:
 412:Lib/AI_Runtime/Npu/ll_aton/ll_sw_float.c ****   }
 413:Lib/AI_Runtime/Npu/ll_aton/ll_sw_float.c ****   break;
 3175              		.loc 1 413 3
 3176 04e0 01F0BDBA 		b	.L94
 3177              	.L99:
 3178              		.align	2
 3179              	.L98:
 3180 04e4 00000000 		.word	forward_relu
 3181 04e8 40108200 		.word	8523840
 3182 04ec 00000000 		.word	forward_clip
 3183              	.L92:
 3184              	.LBB9:
ARM GAS  /tmp/ccEo7NLA.s 			page 70


 414:Lib/AI_Runtime/Npu/ll_aton/ll_sw_float.c ****   case LL_SW_PRELU:
 415:Lib/AI_Runtime/Npu/ll_aton/ll_sw_float.c ****   {
 416:Lib/AI_Runtime/Npu/ll_aton/ll_sw_float.c ****     AI_ARRAY_OBJ_DECLARE(activ_operand_array, FORMAT, sw_info->operand.mem.start_offset,
 3185              		.loc 1 416 5
 3186 04f0 07F50473 		add	r3, r7, #528
 3187 04f4 A3F58673 		sub	r3, r3, #268
 3188 04f8 BF4A     		ldr	r2, .L100
 3189 04fa 1A60     		str	r2, [r3]
 3190 04fc D7F80C32 		ldr	r3, [r7, #524]
 3191 0500 DA6E     		ldr	r2, [r3, #108]
 3192 0502 07F50473 		add	r3, r7, #528
 3193 0506 A3F58673 		sub	r3, r3, #268
 3194 050a 5A60     		str	r2, [r3, #4]
 3195 050c D7F80C32 		ldr	r3, [r7, #524]
 3196 0510 D3F88020 		ldr	r2, [r3, #128]
 3197 0514 07F50473 		add	r3, r7, #528
 3198 0518 A3F58673 		sub	r3, r3, #268
 3199 051c 9A60     		str	r2, [r3, #8]
 3200 051e D7F80C32 		ldr	r3, [r7, #524]
 3201 0522 D3F88020 		ldr	r2, [r3, #128]
 3202 0526 07F50473 		add	r3, r7, #528
 3203 052a A3F58673 		sub	r3, r3, #268
 3204 052e DA60     		str	r2, [r3, #12]
 417:Lib/AI_Runtime/Npu/ll_aton/ll_sw_float.c ****                          sw_info->operand.mem.start_offset, sw_info->operand.dim.num_elem, )
 418:Lib/AI_Runtime/Npu/ll_aton/ll_sw_float.c **** 
 419:Lib/AI_Runtime/Npu/ll_aton/ll_sw_float.c ****     AI_TENSOR_OBJ_DECLARE(activ_operand, , 0x0, 4,
 3205              		.loc 1 419 5
 3206 0530 07F50473 		add	r3, r7, #528
 3207 0534 A3F59473 		sub	r3, r3, #296
 3208 0538 0022     		movs	r2, #0
 3209 053a 1A60     		str	r2, [r3]
 3210 053c 07F50473 		add	r3, r7, #528
 3211 0540 A3F59473 		sub	r3, r3, #296
 3212 0544 0022     		movs	r2, #0
 3213 0546 9A80     		strh	r2, [r3, #4]	@ movhi
 3214 0548 07F50473 		add	r3, r7, #528
 3215 054c A3F59473 		sub	r3, r3, #296
 3216 0550 0422     		movs	r2, #4
 3217 0552 9A71     		strb	r2, [r3, #6]
 3218 0554 07F50473 		add	r3, r7, #528
 3219 0558 A3F59473 		sub	r3, r3, #296
 3220 055c 0122     		movs	r2, #1
 3221 055e DA71     		strb	r2, [r3, #7]
 3222 0560 07F50473 		add	r3, r7, #528
 3223 0564 A3F59473 		sub	r3, r3, #296
 3224 0568 0122     		movs	r2, #1
 3225 056a 1A72     		strb	r2, [r3, #8]
 3226 056c 07F50473 		add	r3, r7, #528
 3227 0570 A3F59472 		sub	r2, r3, #296
 3228 0574 9368     		ldr	r3, [r2, #8]
 3229 0576 0421     		movs	r1, #4
 3230 0578 61F31F23 		bfi	r3, r1, #8, #24
 3231 057c 9360     		str	r3, [r2, #8]
 3232 057e D7F80C32 		ldr	r3, [r7, #524]
 3233 0582 9A6E     		ldr	r2, [r3, #104]
 3234 0584 07F50473 		add	r3, r7, #528
 3235 0588 A3F59C73 		sub	r3, r3, #312
ARM GAS  /tmp/ccEo7NLA.s 			page 71


 3236 058c 1A60     		str	r2, [r3]
 3237 058e D7F80C32 		ldr	r3, [r7, #524]
 3238 0592 5A6E     		ldr	r2, [r3, #100]
 3239 0594 07F50473 		add	r3, r7, #528
 3240 0598 A3F59C73 		sub	r3, r3, #312
 3241 059c 5A60     		str	r2, [r3, #4]
 3242 059e D7F80C32 		ldr	r3, [r7, #524]
 3243 05a2 1A6E     		ldr	r2, [r3, #96]
 3244 05a4 07F50473 		add	r3, r7, #528
 3245 05a8 A3F59C73 		sub	r3, r3, #312
 3246 05ac 9A60     		str	r2, [r3, #8]
 3247 05ae D7F80C32 		ldr	r3, [r7, #524]
 3248 05b2 DA6D     		ldr	r2, [r3, #92]
 3249 05b4 07F50473 		add	r3, r7, #528
 3250 05b8 A3F59C73 		sub	r3, r3, #312
 3251 05bc DA60     		str	r2, [r3, #12]
 3252 05be 07F50473 		add	r3, r7, #528
 3253 05c2 A3F59473 		sub	r3, r3, #296
 3254 05c6 07F1D802 		add	r2, r7, #216
 3255 05ca DA60     		str	r2, [r3, #12]
 3256 05cc 07F50473 		add	r3, r7, #528
 3257 05d0 A3F59473 		sub	r3, r3, #296
 3258 05d4 0222     		movs	r2, #2
 3259 05d6 1A74     		strb	r2, [r3, #16]
 3260 05d8 07F50473 		add	r3, r7, #528
 3261 05dc A3F59472 		sub	r2, r3, #296
 3262 05e0 1369     		ldr	r3, [r2, #16]
 3263 05e2 0421     		movs	r1, #4
 3264 05e4 61F31F23 		bfi	r3, r1, #8, #24
 3265 05e8 1361     		str	r3, [r2, #16]
 3266 05ea D7F80C32 		ldr	r3, [r7, #524]
 3267 05ee DB6F     		ldr	r3, [r3, #124]
 3268 05f0 1A46     		mov	r2, r3
 3269 05f2 07F50473 		add	r3, r7, #528
 3270 05f6 A3F5A473 		sub	r3, r3, #328
 3271 05fa 1A60     		str	r2, [r3]
 3272 05fc D7F80C32 		ldr	r3, [r7, #524]
 3273 0600 9B6F     		ldr	r3, [r3, #120]
 3274 0602 1A46     		mov	r2, r3
 3275 0604 07F50473 		add	r3, r7, #528
 3276 0608 A3F5A473 		sub	r3, r3, #328
 3277 060c 5A60     		str	r2, [r3, #4]
 3278 060e D7F80C32 		ldr	r3, [r7, #524]
 3279 0612 5B6F     		ldr	r3, [r3, #116]
 3280 0614 1A46     		mov	r2, r3
 3281 0616 07F50473 		add	r3, r7, #528
 3282 061a A3F5A473 		sub	r3, r3, #328
 3283 061e 9A60     		str	r2, [r3, #8]
 3284 0620 D7F80C32 		ldr	r3, [r7, #524]
 3285 0624 1B6F     		ldr	r3, [r3, #112]
 3286 0626 1A46     		mov	r2, r3
 3287 0628 07F50473 		add	r3, r7, #528
 3288 062c A3F5A473 		sub	r3, r3, #328
 3289 0630 DA60     		str	r2, [r3, #12]
 3290 0632 07F50473 		add	r3, r7, #528
 3291 0636 A3F59473 		sub	r3, r3, #296
 3292 063a 07F1C802 		add	r2, r7, #200
ARM GAS  /tmp/ccEo7NLA.s 			page 72


 3293 063e 5A61     		str	r2, [r3, #20]
 3294 0640 07F50473 		add	r3, r7, #528
 3295 0644 A3F59473 		sub	r3, r3, #296
 3296 0648 07F58272 		add	r2, r7, #260
 3297 064c 9A61     		str	r2, [r3, #24]
 420:Lib/AI_Runtime/Npu/ll_aton/ll_sw_float.c ****                           SHAPE_INIT(sw_info->operand.dim.tensor_h, sw_info->operand.dim.tensor_w,
 421:Lib/AI_Runtime/Npu/ll_aton/ll_sw_float.c ****                                      sw_info->operand.dim.tensor_c, sw_info->operand.dim.tensor_b),
 422:Lib/AI_Runtime/Npu/ll_aton/ll_sw_float.c ****                           STRIDE_INIT(sw_info->operand.stride.h, sw_info->operand.stride.w, sw_info
 423:Lib/AI_Runtime/Npu/ll_aton/ll_sw_float.c ****                                       sw_info->operand.stride.b),
 424:Lib/AI_Runtime/Npu/ll_aton/ll_sw_float.c ****                           1, &activ_operand_array, NULL)
 425:Lib/AI_Runtime/Npu/ll_aton/ll_sw_float.c **** 
 426:Lib/AI_Runtime/Npu/ll_aton/ll_sw_float.c ****     // tensor chains init
 427:Lib/AI_Runtime/Npu/ll_aton/ll_sw_float.c ****     AI_TENSOR_CHAIN_OBJ_DECLARE(
 3298              		.loc 1 427 5
 3299 064e 07F50473 		add	r3, r7, #528
 3300 0652 A3F5A873 		sub	r3, r3, #336
 3301 0656 0422     		movs	r2, #4
 3302 0658 1A80     		strh	r2, [r3]	@ movhi
 3303 065a 07F50473 		add	r3, r7, #528
 3304 065e A3F5A873 		sub	r3, r3, #336
 3305 0662 0022     		movs	r2, #0
 3306 0664 5A80     		strh	r2, [r3, #2]	@ movhi
 3307 0666 07F50473 		add	r3, r7, #528
 3308 066a A3F5F473 		sub	r3, r3, #488
 3309 066e 0122     		movs	r2, #1
 3310 0670 1A80     		strh	r2, [r3]	@ movhi
 3311 0672 07F50473 		add	r3, r7, #528
 3312 0676 A3F5F473 		sub	r3, r3, #488
 3313 067a 0022     		movs	r2, #0
 3314 067c 5A80     		strh	r2, [r3, #2]	@ movhi
 3315 067e 07F50473 		add	r3, r7, #528
 3316 0682 A3F5AA73 		sub	r3, r3, #340
 3317 0686 07F5E872 		add	r2, r7, #464
 3318 068a 1A60     		str	r2, [r3]
 3319 068c 07F50473 		add	r3, r7, #528
 3320 0690 A3F5F473 		sub	r3, r3, #488
 3321 0694 07F1BC02 		add	r2, r7, #188
 3322 0698 5A60     		str	r2, [r3, #4]
 3323 069a 07F50473 		add	r3, r7, #528
 3324 069e A3F5F473 		sub	r3, r3, #488
 3325 06a2 0022     		movs	r2, #0
 3326 06a4 9A60     		str	r2, [r3, #8]
 3327 06a6 07F50473 		add	r3, r7, #528
 3328 06aa A3F5F473 		sub	r3, r3, #488
 3329 06ae 0122     		movs	r2, #1
 3330 06b0 9A81     		strh	r2, [r3, #12]	@ movhi
 3331 06b2 07F50473 		add	r3, r7, #528
 3332 06b6 A3F5F473 		sub	r3, r3, #488
 3333 06ba 0022     		movs	r2, #0
 3334 06bc DA81     		strh	r2, [r3, #14]	@ movhi
 3335 06be 07F50473 		add	r3, r7, #528
 3336 06c2 A3F5AC73 		sub	r3, r3, #344
 3337 06c6 07F5CA72 		add	r2, r7, #404
 3338 06ca 1A60     		str	r2, [r3]
 3339 06cc 07F50473 		add	r3, r7, #528
 3340 06d0 A3F5F473 		sub	r3, r3, #488
 3341 06d4 07F1B802 		add	r2, r7, #184
ARM GAS  /tmp/ccEo7NLA.s 			page 73


 3342 06d8 1A61     		str	r2, [r3, #16]
 3343 06da 07F50473 		add	r3, r7, #528
 3344 06de A3F5F473 		sub	r3, r3, #488
 3345 06e2 0022     		movs	r2, #0
 3346 06e4 5A61     		str	r2, [r3, #20]
 3347 06e6 07F50473 		add	r3, r7, #528
 3348 06ea A3F5F473 		sub	r3, r3, #488
 3349 06ee 0122     		movs	r2, #1
 3350 06f0 1A83     		strh	r2, [r3, #24]	@ movhi
 3351 06f2 07F50473 		add	r3, r7, #528
 3352 06f6 A3F5F473 		sub	r3, r3, #488
 3353 06fa 0022     		movs	r2, #0
 3354 06fc 5A83     		strh	r2, [r3, #26]	@ movhi
 3355 06fe 07F50473 		add	r3, r7, #528
 3356 0702 A3F5AE73 		sub	r3, r3, #348
 3357 0706 07F1E802 		add	r2, r7, #232
 3358 070a 1A60     		str	r2, [r3]
 3359 070c 07F50473 		add	r3, r7, #528
 3360 0710 A3F5F473 		sub	r3, r3, #488
 3361 0714 07F1B402 		add	r2, r7, #180
 3362 0718 DA61     		str	r2, [r3, #28]
 3363 071a 07F50473 		add	r3, r7, #528
 3364 071e A3F5F473 		sub	r3, r3, #488
 3365 0722 0022     		movs	r2, #0
 3366 0724 1A62     		str	r2, [r3, #32]
 3367 0726 07F50473 		add	r3, r7, #528
 3368 072a A3F5F473 		sub	r3, r3, #488
 3369 072e 0022     		movs	r2, #0
 3370 0730 9A84     		strh	r2, [r3, #36]	@ movhi
 3371 0732 07F50473 		add	r3, r7, #528
 3372 0736 A3F5F473 		sub	r3, r3, #488
 3373 073a 0022     		movs	r2, #0
 3374 073c DA84     		strh	r2, [r3, #38]	@ movhi
 3375 073e 07F50473 		add	r3, r7, #528
 3376 0742 A3F5B073 		sub	r3, r3, #352
 3377 0746 0022     		movs	r2, #0
 3378 0748 1A60     		str	r2, [r3]
 3379 074a 07F50473 		add	r3, r7, #528
 3380 074e A3F5F473 		sub	r3, r3, #488
 3381 0752 07F1B002 		add	r2, r7, #176
 3382 0756 9A62     		str	r2, [r3, #40]
 3383 0758 07F50473 		add	r3, r7, #528
 3384 075c A3F5F473 		sub	r3, r3, #488
 3385 0760 0022     		movs	r2, #0
 3386 0762 DA62     		str	r2, [r3, #44]
 3387 0764 07F50473 		add	r3, r7, #528
 3388 0768 A3F5A873 		sub	r3, r3, #336
 3389 076c 07F12802 		add	r2, r7, #40
 3390 0770 5A60     		str	r2, [r3, #4]
 428:Lib/AI_Runtime/Npu/ll_aton/ll_sw_float.c ****         prelu_activ_chain, , 4, AI_TENSOR_LIST_OBJ_INIT(AI_FLAG_NONE, 1, TENSORS(&input_output)),
 429:Lib/AI_Runtime/Npu/ll_aton/ll_sw_float.c ****         AI_TENSOR_LIST_OBJ_INIT(AI_FLAG_NONE, 1, TENSORS(&activ_output)),
 430:Lib/AI_Runtime/Npu/ll_aton/ll_sw_float.c ****         AI_TENSOR_LIST_OBJ_INIT(AI_FLAG_NONE, 1, TENSORS(&activ_operand)), AI_TENSOR_LIST_OBJ_EMPTY
 431:Lib/AI_Runtime/Npu/ll_aton/ll_sw_float.c **** 
 432:Lib/AI_Runtime/Npu/ll_aton/ll_sw_float.c ****     AI_LAYER_OBJ_DECLARE(nonlinearity_layer, 2, NL_TYPE, 0x0, NULL, nl, forward_prelu, &prelu_activ
 3391              		.loc 1 432 5
 3392 0772 07F50473 		add	r3, r7, #528
 3393 0776 A3F50273 		sub	r3, r3, #520
ARM GAS  /tmp/ccEo7NLA.s 			page 74


 3394 077a 40F20712 		movw	r2, #263
 3395 077e 1A80     		strh	r2, [r3]	@ movhi
 3396 0780 07F50473 		add	r3, r7, #528
 3397 0784 A3F50273 		sub	r3, r3, #520
 3398 0788 0222     		movs	r2, #2
 3399 078a 5A80     		strh	r2, [r3, #2]	@ movhi
 3400 078c 07F50473 		add	r3, r7, #528
 3401 0790 A3F50273 		sub	r3, r3, #520
 3402 0794 0022     		movs	r2, #0
 3403 0796 5A60     		str	r2, [r3, #4]
 3404 0798 07F50473 		add	r3, r7, #528
 3405 079c A3F50273 		sub	r3, r3, #520
 3406 07a0 0022     		movs	r2, #0
 3407 07a2 9A60     		str	r2, [r3, #8]
 3408 07a4 07F50473 		add	r3, r7, #528
 3409 07a8 A3F50273 		sub	r3, r3, #520
 3410 07ac 0022     		movs	r2, #0
 3411 07ae DA60     		str	r2, [r3, #12]
 3412 07b0 07F50473 		add	r3, r7, #528
 3413 07b4 A3F50273 		sub	r3, r3, #520
 3414 07b8 0022     		movs	r2, #0
 3415 07ba 1A61     		str	r2, [r3, #16]
 3416 07bc 07F50473 		add	r3, r7, #528
 3417 07c0 A3F50273 		sub	r3, r3, #520
 3418 07c4 0D4A     		ldr	r2, .L100+4
 3419 07c6 5A61     		str	r2, [r3, #20]
 3420 07c8 07F50473 		add	r3, r7, #528
 3421 07cc A3F50273 		sub	r3, r3, #520
 3422 07d0 07F1C002 		add	r2, r7, #192
 3423 07d4 9A61     		str	r2, [r3, #24]
 3424 07d6 07F50473 		add	r3, r7, #528
 3425 07da A3F50273 		sub	r3, r3, #520
 3426 07de 0022     		movs	r2, #0
 3427 07e0 DA61     		str	r2, [r3, #28]
 433:Lib/AI_Runtime/Npu/ll_aton/ll_sw_float.c ****                          .nl_params = NULL, )
 434:Lib/AI_Runtime/Npu/ll_aton/ll_sw_float.c ****     nonlinearity_layer.forward(AI_LAYER_OBJ(&nonlinearity_layer));
 3428              		.loc 1 434 23
 3429 07e2 07F50473 		add	r3, r7, #528
 3430 07e6 A3F50273 		sub	r3, r3, #520
 3431 07ea 5B69     		ldr	r3, [r3, #20]
 3432              		.loc 1 434 5
 3433 07ec 07F10802 		add	r2, r7, #8
 3434 07f0 1046     		mov	r0, r2
 3435 07f2 9847     		blx	r3
 3436              	.LVL9:
 3437              	.LBE9:
 435:Lib/AI_Runtime/Npu/ll_aton/ll_sw_float.c ****   }
 436:Lib/AI_Runtime/Npu/ll_aton/ll_sw_float.c ****   break;
 3438              		.loc 1 436 3
 3439 07f4 01F033B9 		b	.L94
 3440              	.L101:
 3441              		.align	2
 3442              	.L100:
 3443 07f8 40108200 		.word	8523840
 3444 07fc 00000000 		.word	forward_prelu
 3445              	.L90:
 3446              	.LBB10:
ARM GAS  /tmp/ccEo7NLA.s 			page 75


 437:Lib/AI_Runtime/Npu/ll_aton/ll_sw_float.c ****   case LL_SW_ELU:
 438:Lib/AI_Runtime/Npu/ll_aton/ll_sw_float.c ****   {
 439:Lib/AI_Runtime/Npu/ll_aton/ll_sw_float.c ****     // defining the array of params needed
 440:Lib/AI_Runtime/Npu/ll_aton/ll_sw_float.c ****     AI_ARRAY_OBJ_DECLARE_STATIC(elu_layer_params, ai_float, FORMAT, , 1, sw_info->alpha)
 3447              		.loc 1 440 5
 3448 0800 07F50473 		add	r3, r7, #528
 3449 0804 A3F5B873 		sub	r3, r3, #368
 3450 0808 BC4A     		ldr	r2, .L102
 3451 080a 1A60     		str	r2, [r3]
 3452 080c 07F50473 		add	r3, r7, #528
 3453 0810 A3F5B873 		sub	r3, r3, #368
 3454 0814 0122     		movs	r2, #1
 3455 0816 5A60     		str	r2, [r3, #4]
 3456 0818 D7F80C32 		ldr	r3, [r7, #524]
 3457 081c D3F88820 		ldr	r2, [r3, #136]	@ float
 3458 0820 07F50473 		add	r3, r7, #528
 3459 0824 A3F5BA73 		sub	r3, r3, #372
 3460 0828 1A60     		str	r2, [r3]	@ float
 3461 082a 07F50473 		add	r3, r7, #528
 3462 082e A3F5B873 		sub	r3, r3, #368
 3463 0832 07F19C02 		add	r2, r7, #156
 3464 0836 9A60     		str	r2, [r3, #8]
 3465 0838 07F50473 		add	r3, r7, #528
 3466 083c A3F5B873 		sub	r3, r3, #368
 3467 0840 0022     		movs	r2, #0
 3468 0842 DA60     		str	r2, [r3, #12]
 441:Lib/AI_Runtime/Npu/ll_aton/ll_sw_float.c **** 
 442:Lib/AI_Runtime/Npu/ll_aton/ll_sw_float.c ****     AI_LAYER_OBJ_DECLARE(nonlinearity_layer, 2, NL_TYPE, 0x0, NULL, nl, forward_elu, &activ_chain, 
 3469              		.loc 1 442 5
 3470 0844 07F50473 		add	r3, r7, #528
 3471 0848 A3F5F473 		sub	r3, r3, #488
 3472 084c 40F20712 		movw	r2, #263
 3473 0850 1A80     		strh	r2, [r3]	@ movhi
 3474 0852 07F50473 		add	r3, r7, #528
 3475 0856 A3F5F473 		sub	r3, r3, #488
 3476 085a 0222     		movs	r2, #2
 3477 085c 5A80     		strh	r2, [r3, #2]	@ movhi
 3478 085e 07F50473 		add	r3, r7, #528
 3479 0862 A3F5F473 		sub	r3, r3, #488
 3480 0866 0022     		movs	r2, #0
 3481 0868 5A60     		str	r2, [r3, #4]
 3482 086a 07F50473 		add	r3, r7, #528
 3483 086e A3F5F473 		sub	r3, r3, #488
 3484 0872 0022     		movs	r2, #0
 3485 0874 9A60     		str	r2, [r3, #8]
 3486 0876 07F50473 		add	r3, r7, #528
 3487 087a A3F5F473 		sub	r3, r3, #488
 3488 087e 0022     		movs	r2, #0
 3489 0880 DA60     		str	r2, [r3, #12]
 3490 0882 07F50473 		add	r3, r7, #528
 3491 0886 A3F5F473 		sub	r3, r3, #488
 3492 088a 0022     		movs	r2, #0
 3493 088c 1A61     		str	r2, [r3, #16]
 3494 088e 07F50473 		add	r3, r7, #528
 3495 0892 A3F5F473 		sub	r3, r3, #488
 3496 0896 9A4A     		ldr	r2, .L102+4
 3497 0898 5A61     		str	r2, [r3, #20]
ARM GAS  /tmp/ccEo7NLA.s 			page 76


 3498 089a 07F50473 		add	r3, r7, #528
 3499 089e A3F5F473 		sub	r3, r3, #488
 3500 08a2 07F5B672 		add	r2, r7, #364
 3501 08a6 9A61     		str	r2, [r3, #24]
 3502 08a8 07F50473 		add	r3, r7, #528
 3503 08ac A3F5F473 		sub	r3, r3, #488
 3504 08b0 07F1A002 		add	r2, r7, #160
 3505 08b4 DA61     		str	r2, [r3, #28]
 443:Lib/AI_Runtime/Npu/ll_aton/ll_sw_float.c ****                          .nl_params = AI_ARRAY_OBJ(&elu_layer_params), )
 444:Lib/AI_Runtime/Npu/ll_aton/ll_sw_float.c ****     nonlinearity_layer.forward(AI_LAYER_OBJ(&nonlinearity_layer));
 3506              		.loc 1 444 23
 3507 08b6 07F50473 		add	r3, r7, #528
 3508 08ba A3F5F473 		sub	r3, r3, #488
 3509 08be 5B69     		ldr	r3, [r3, #20]
 3510              		.loc 1 444 5
 3511 08c0 07F12802 		add	r2, r7, #40
 3512 08c4 1046     		mov	r0, r2
 3513 08c6 9847     		blx	r3
 3514              	.LVL10:
 3515              	.LBE10:
 445:Lib/AI_Runtime/Npu/ll_aton/ll_sw_float.c ****   }
 446:Lib/AI_Runtime/Npu/ll_aton/ll_sw_float.c ****   break;
 3516              		.loc 1 446 3
 3517 08c8 01F0C9B8 		b	.L94
 3518              	.L91:
 3519              	.LBB11:
 447:Lib/AI_Runtime/Npu/ll_aton/ll_sw_float.c ****   case LL_SW_THRESHOLDEDRELU:
 448:Lib/AI_Runtime/Npu/ll_aton/ll_sw_float.c ****   {
 449:Lib/AI_Runtime/Npu/ll_aton/ll_sw_float.c ****     // defining the array of params needed
 450:Lib/AI_Runtime/Npu/ll_aton/ll_sw_float.c ****     AI_ARRAY_OBJ_DECLARE_STATIC(thresholdedrelu_layer_params, ai_float, FORMAT, , 1, sw_info->alpha
 3520              		.loc 1 450 5
 3521 08cc 07F50473 		add	r3, r7, #528
 3522 08d0 A3F5C273 		sub	r3, r3, #388
 3523 08d4 894A     		ldr	r2, .L102
 3524 08d6 1A60     		str	r2, [r3]
 3525 08d8 07F50473 		add	r3, r7, #528
 3526 08dc A3F5C273 		sub	r3, r3, #388
 3527 08e0 0122     		movs	r2, #1
 3528 08e2 5A60     		str	r2, [r3, #4]
 3529 08e4 D7F80C32 		ldr	r3, [r7, #524]
 3530 08e8 D3F88820 		ldr	r2, [r3, #136]	@ float
 3531 08ec 07F50473 		add	r3, r7, #528
 3532 08f0 A3F5C473 		sub	r3, r3, #392
 3533 08f4 1A60     		str	r2, [r3]	@ float
 3534 08f6 07F50473 		add	r3, r7, #528
 3535 08fa A3F5C273 		sub	r3, r3, #388
 3536 08fe 07F18802 		add	r2, r7, #136
 3537 0902 9A60     		str	r2, [r3, #8]
 3538 0904 07F50473 		add	r3, r7, #528
 3539 0908 A3F5C273 		sub	r3, r3, #388
 3540 090c 0022     		movs	r2, #0
 3541 090e DA60     		str	r2, [r3, #12]
 451:Lib/AI_Runtime/Npu/ll_aton/ll_sw_float.c **** 
 452:Lib/AI_Runtime/Npu/ll_aton/ll_sw_float.c ****     AI_LAYER_OBJ_DECLARE(nonlinearity_layer, 2, NL_TYPE, 0x0, NULL, nl, forward_relu_thresholded, &
 3542              		.loc 1 452 5
 3543 0910 07F50473 		add	r3, r7, #528
 3544 0914 A3F5F473 		sub	r3, r3, #488
ARM GAS  /tmp/ccEo7NLA.s 			page 77


 3545 0918 40F20712 		movw	r2, #263
 3546 091c 1A80     		strh	r2, [r3]	@ movhi
 3547 091e 07F50473 		add	r3, r7, #528
 3548 0922 A3F5F473 		sub	r3, r3, #488
 3549 0926 0222     		movs	r2, #2
 3550 0928 5A80     		strh	r2, [r3, #2]	@ movhi
 3551 092a 07F50473 		add	r3, r7, #528
 3552 092e A3F5F473 		sub	r3, r3, #488
 3553 0932 0022     		movs	r2, #0
 3554 0934 5A60     		str	r2, [r3, #4]
 3555 0936 07F50473 		add	r3, r7, #528
 3556 093a A3F5F473 		sub	r3, r3, #488
 3557 093e 0022     		movs	r2, #0
 3558 0940 9A60     		str	r2, [r3, #8]
 3559 0942 07F50473 		add	r3, r7, #528
 3560 0946 A3F5F473 		sub	r3, r3, #488
 3561 094a 0022     		movs	r2, #0
 3562 094c DA60     		str	r2, [r3, #12]
 3563 094e 07F50473 		add	r3, r7, #528
 3564 0952 A3F5F473 		sub	r3, r3, #488
 3565 0956 0022     		movs	r2, #0
 3566 0958 1A61     		str	r2, [r3, #16]
 3567 095a 07F50473 		add	r3, r7, #528
 3568 095e A3F5F473 		sub	r3, r3, #488
 3569 0962 684A     		ldr	r2, .L102+8
 3570 0964 5A61     		str	r2, [r3, #20]
 3571 0966 07F50473 		add	r3, r7, #528
 3572 096a A3F5F473 		sub	r3, r3, #488
 3573 096e 07F5B672 		add	r2, r7, #364
 3574 0972 9A61     		str	r2, [r3, #24]
 3575 0974 07F50473 		add	r3, r7, #528
 3576 0978 A3F5F473 		sub	r3, r3, #488
 3577 097c 07F18C02 		add	r2, r7, #140
 3578 0980 DA61     		str	r2, [r3, #28]
 453:Lib/AI_Runtime/Npu/ll_aton/ll_sw_float.c ****                          NULL, , .nl_params = AI_ARRAY_OBJ(&thresholdedrelu_layer_params), )
 454:Lib/AI_Runtime/Npu/ll_aton/ll_sw_float.c ****     nonlinearity_layer.forward(AI_LAYER_OBJ(&nonlinearity_layer));
 3579              		.loc 1 454 23
 3580 0982 07F50473 		add	r3, r7, #528
 3581 0986 A3F5F473 		sub	r3, r3, #488
 3582 098a 5B69     		ldr	r3, [r3, #20]
 3583              		.loc 1 454 5
 3584 098c 07F12802 		add	r2, r7, #40
 3585 0990 1046     		mov	r0, r2
 3586 0992 9847     		blx	r3
 3587              	.LVL11:
 3588              	.LBE11:
 455:Lib/AI_Runtime/Npu/ll_aton/ll_sw_float.c ****   }
 456:Lib/AI_Runtime/Npu/ll_aton/ll_sw_float.c ****   break;
 3589              		.loc 1 456 3
 3590 0994 01F063B8 		b	.L94
 3591              	.L89:
 3592              	.LBB12:
 457:Lib/AI_Runtime/Npu/ll_aton/ll_sw_float.c ****   case LL_SW_SELU:
 458:Lib/AI_Runtime/Npu/ll_aton/ll_sw_float.c ****   {
 459:Lib/AI_Runtime/Npu/ll_aton/ll_sw_float.c ****     // defining the array of params needed
 460:Lib/AI_Runtime/Npu/ll_aton/ll_sw_float.c ****     AI_ARRAY_OBJ_DECLARE_STATIC(selu_layer_params, ai_float, FORMAT, , 2, sw_info->alpha, sw_info->
 3593              		.loc 1 460 5
ARM GAS  /tmp/ccEo7NLA.s 			page 78


 3594 0998 07F50473 		add	r3, r7, #528
 3595 099c A3F5CC73 		sub	r3, r3, #408
 3596 09a0 564A     		ldr	r2, .L102
 3597 09a2 1A60     		str	r2, [r3]
 3598 09a4 07F50473 		add	r3, r7, #528
 3599 09a8 A3F5CC73 		sub	r3, r3, #408
 3600 09ac 0222     		movs	r2, #2
 3601 09ae 5A60     		str	r2, [r3, #4]
 3602 09b0 D7F80C32 		ldr	r3, [r7, #524]
 3603 09b4 D3F88820 		ldr	r2, [r3, #136]	@ float
 3604 09b8 07F50473 		add	r3, r7, #528
 3605 09bc A3F5D073 		sub	r3, r3, #416
 3606 09c0 1A60     		str	r2, [r3]	@ float
 3607 09c2 D7F80C32 		ldr	r3, [r7, #524]
 3608 09c6 D3F89020 		ldr	r2, [r3, #144]	@ float
 3609 09ca 07F50473 		add	r3, r7, #528
 3610 09ce A3F5D073 		sub	r3, r3, #416
 3611 09d2 5A60     		str	r2, [r3, #4]	@ float
 3612 09d4 07F50473 		add	r3, r7, #528
 3613 09d8 A3F5CC73 		sub	r3, r3, #408
 3614 09dc 07F17002 		add	r2, r7, #112
 3615 09e0 9A60     		str	r2, [r3, #8]
 3616 09e2 07F50473 		add	r3, r7, #528
 3617 09e6 A3F5CC73 		sub	r3, r3, #408
 3618 09ea 0022     		movs	r2, #0
 3619 09ec DA60     		str	r2, [r3, #12]
 461:Lib/AI_Runtime/Npu/ll_aton/ll_sw_float.c **** 
 462:Lib/AI_Runtime/Npu/ll_aton/ll_sw_float.c ****     AI_LAYER_OBJ_DECLARE(nonlinearity_layer, 2, NL_TYPE, 0x0, NULL, nl, forward_selu, &activ_chain,
 3620              		.loc 1 462 5
 3621 09ee 07F50473 		add	r3, r7, #528
 3622 09f2 A3F5F473 		sub	r3, r3, #488
 3623 09f6 40F20712 		movw	r2, #263
 3624 09fa 1A80     		strh	r2, [r3]	@ movhi
 3625 09fc 07F50473 		add	r3, r7, #528
 3626 0a00 A3F5F473 		sub	r3, r3, #488
 3627 0a04 0222     		movs	r2, #2
 3628 0a06 5A80     		strh	r2, [r3, #2]	@ movhi
 3629 0a08 07F50473 		add	r3, r7, #528
 3630 0a0c A3F5F473 		sub	r3, r3, #488
 3631 0a10 0022     		movs	r2, #0
 3632 0a12 5A60     		str	r2, [r3, #4]
 3633 0a14 07F50473 		add	r3, r7, #528
 3634 0a18 A3F5F473 		sub	r3, r3, #488
 3635 0a1c 0022     		movs	r2, #0
 3636 0a1e 9A60     		str	r2, [r3, #8]
 3637 0a20 07F50473 		add	r3, r7, #528
 3638 0a24 A3F5F473 		sub	r3, r3, #488
 3639 0a28 0022     		movs	r2, #0
 3640 0a2a DA60     		str	r2, [r3, #12]
 3641 0a2c 07F50473 		add	r3, r7, #528
 3642 0a30 A3F5F473 		sub	r3, r3, #488
 3643 0a34 0022     		movs	r2, #0
 3644 0a36 1A61     		str	r2, [r3, #16]
 3645 0a38 07F50473 		add	r3, r7, #528
 3646 0a3c A3F5F473 		sub	r3, r3, #488
 3647 0a40 314A     		ldr	r2, .L102+12
 3648 0a42 5A61     		str	r2, [r3, #20]
ARM GAS  /tmp/ccEo7NLA.s 			page 79


 3649 0a44 07F50473 		add	r3, r7, #528
 3650 0a48 A3F5F473 		sub	r3, r3, #488
 3651 0a4c 07F5B672 		add	r2, r7, #364
 3652 0a50 9A61     		str	r2, [r3, #24]
 3653 0a52 07F50473 		add	r3, r7, #528
 3654 0a56 A3F5F473 		sub	r3, r3, #488
 3655 0a5a 07F17802 		add	r2, r7, #120
 3656 0a5e DA61     		str	r2, [r3, #28]
 463:Lib/AI_Runtime/Npu/ll_aton/ll_sw_float.c ****                          .nl_params = AI_ARRAY_OBJ(&selu_layer_params), )
 464:Lib/AI_Runtime/Npu/ll_aton/ll_sw_float.c ****     nonlinearity_layer.forward(AI_LAYER_OBJ(&nonlinearity_layer));
 3657              		.loc 1 464 23
 3658 0a60 07F50473 		add	r3, r7, #528
 3659 0a64 A3F5F473 		sub	r3, r3, #488
 3660 0a68 5B69     		ldr	r3, [r3, #20]
 3661              		.loc 1 464 5
 3662 0a6a 07F12802 		add	r2, r7, #40
 3663 0a6e 1046     		mov	r0, r2
 3664 0a70 9847     		blx	r3
 3665              	.LVL12:
 3666              	.LBE12:
 465:Lib/AI_Runtime/Npu/ll_aton/ll_sw_float.c ****   }
 466:Lib/AI_Runtime/Npu/ll_aton/ll_sw_float.c ****   break;
 3667              		.loc 1 466 3
 3668 0a72 00F0F4BF 		b	.L94
 3669              	.L74:
 3670              	.LBB13:
 467:Lib/AI_Runtime/Npu/ll_aton/ll_sw_float.c ****   case LL_SW_CEIL:
 468:Lib/AI_Runtime/Npu/ll_aton/ll_sw_float.c ****   {
 469:Lib/AI_Runtime/Npu/ll_aton/ll_sw_float.c ****     AI_LAYER_OBJ_DECLARE(nonlinearity_layer, 2, NL_TYPE, 0x0, NULL, nl, forward_ceil, &activ_chain,
 3671              		.loc 1 469 5
 3672 0a76 07F50473 		add	r3, r7, #528
 3673 0a7a A3F5F473 		sub	r3, r3, #488
 3674 0a7e 40F20712 		movw	r2, #263
 3675 0a82 1A80     		strh	r2, [r3]	@ movhi
 3676 0a84 07F50473 		add	r3, r7, #528
 3677 0a88 A3F5F473 		sub	r3, r3, #488
 3678 0a8c 0222     		movs	r2, #2
 3679 0a8e 5A80     		strh	r2, [r3, #2]	@ movhi
 3680 0a90 07F50473 		add	r3, r7, #528
 3681 0a94 A3F5F473 		sub	r3, r3, #488
 3682 0a98 0022     		movs	r2, #0
 3683 0a9a 5A60     		str	r2, [r3, #4]
 3684 0a9c 07F50473 		add	r3, r7, #528
 3685 0aa0 A3F5F473 		sub	r3, r3, #488
 3686 0aa4 0022     		movs	r2, #0
 3687 0aa6 9A60     		str	r2, [r3, #8]
 3688 0aa8 07F50473 		add	r3, r7, #528
 3689 0aac A3F5F473 		sub	r3, r3, #488
 3690 0ab0 0022     		movs	r2, #0
 3691 0ab2 DA60     		str	r2, [r3, #12]
 3692 0ab4 07F50473 		add	r3, r7, #528
 3693 0ab8 A3F5F473 		sub	r3, r3, #488
 3694 0abc 0022     		movs	r2, #0
 3695 0abe 1A61     		str	r2, [r3, #16]
 3696 0ac0 07F50473 		add	r3, r7, #528
 3697 0ac4 A3F5F473 		sub	r3, r3, #488
 3698 0ac8 104A     		ldr	r2, .L102+16
ARM GAS  /tmp/ccEo7NLA.s 			page 80


 3699 0aca 5A61     		str	r2, [r3, #20]
 3700 0acc 07F50473 		add	r3, r7, #528
 3701 0ad0 A3F5F473 		sub	r3, r3, #488
 3702 0ad4 07F5B672 		add	r2, r7, #364
 3703 0ad8 9A61     		str	r2, [r3, #24]
 3704 0ada 07F50473 		add	r3, r7, #528
 3705 0ade A3F5F473 		sub	r3, r3, #488
 3706 0ae2 0022     		movs	r2, #0
 3707 0ae4 DA61     		str	r2, [r3, #28]
 470:Lib/AI_Runtime/Npu/ll_aton/ll_sw_float.c ****                          .nl_params = NULL, )
 471:Lib/AI_Runtime/Npu/ll_aton/ll_sw_float.c ****     nonlinearity_layer.forward(AI_LAYER_OBJ(&nonlinearity_layer));
 3708              		.loc 1 471 23
 3709 0ae6 07F50473 		add	r3, r7, #528
 3710 0aea A3F5F473 		sub	r3, r3, #488
 3711 0aee 5B69     		ldr	r3, [r3, #20]
 3712              		.loc 1 471 5
 3713 0af0 07F12802 		add	r2, r7, #40
 3714 0af4 1046     		mov	r0, r2
 3715 0af6 9847     		blx	r3
 3716              	.LVL13:
 3717              	.LBE13:
 472:Lib/AI_Runtime/Npu/ll_aton/ll_sw_float.c ****   }
 473:Lib/AI_Runtime/Npu/ll_aton/ll_sw_float.c ****   break;
 3718              		.loc 1 473 3
 3719 0af8 00F0B1BF 		b	.L94
 3720              	.L103:
 3721              		.align	2
 3722              	.L102:
 3723 0afc 40108200 		.word	8523840
 3724 0b00 00000000 		.word	forward_elu
 3725 0b04 00000000 		.word	forward_relu_thresholded
 3726 0b08 00000000 		.word	forward_selu
 3727 0b0c 00000000 		.word	forward_ceil
 3728              	.L73:
 3729              	.LBB14:
 474:Lib/AI_Runtime/Npu/ll_aton/ll_sw_float.c ****   case LL_SW_FLOOR:
 475:Lib/AI_Runtime/Npu/ll_aton/ll_sw_float.c ****   {
 476:Lib/AI_Runtime/Npu/ll_aton/ll_sw_float.c ****     AI_LAYER_OBJ_DECLARE(nonlinearity_layer, 2, NL_TYPE, 0x0, NULL, nl, forward_floor, &activ_chain
 3730              		.loc 1 476 5
 3731 0b10 07F50473 		add	r3, r7, #528
 3732 0b14 A3F5F473 		sub	r3, r3, #488
 3733 0b18 40F20712 		movw	r2, #263
 3734 0b1c 1A80     		strh	r2, [r3]	@ movhi
 3735 0b1e 07F50473 		add	r3, r7, #528
 3736 0b22 A3F5F473 		sub	r3, r3, #488
 3737 0b26 0222     		movs	r2, #2
 3738 0b28 5A80     		strh	r2, [r3, #2]	@ movhi
 3739 0b2a 07F50473 		add	r3, r7, #528
 3740 0b2e A3F5F473 		sub	r3, r3, #488
 3741 0b32 0022     		movs	r2, #0
 3742 0b34 5A60     		str	r2, [r3, #4]
 3743 0b36 07F50473 		add	r3, r7, #528
 3744 0b3a A3F5F473 		sub	r3, r3, #488
 3745 0b3e 0022     		movs	r2, #0
 3746 0b40 9A60     		str	r2, [r3, #8]
 3747 0b42 07F50473 		add	r3, r7, #528
 3748 0b46 A3F5F473 		sub	r3, r3, #488
ARM GAS  /tmp/ccEo7NLA.s 			page 81


 3749 0b4a 0022     		movs	r2, #0
 3750 0b4c DA60     		str	r2, [r3, #12]
 3751 0b4e 07F50473 		add	r3, r7, #528
 3752 0b52 A3F5F473 		sub	r3, r3, #488
 3753 0b56 0022     		movs	r2, #0
 3754 0b58 1A61     		str	r2, [r3, #16]
 3755 0b5a 07F50473 		add	r3, r7, #528
 3756 0b5e A3F5F473 		sub	r3, r3, #488
 3757 0b62 D64A     		ldr	r2, .L104
 3758 0b64 5A61     		str	r2, [r3, #20]
 3759 0b66 07F50473 		add	r3, r7, #528
 3760 0b6a A3F5F473 		sub	r3, r3, #488
 3761 0b6e 07F5B672 		add	r2, r7, #364
 3762 0b72 9A61     		str	r2, [r3, #24]
 3763 0b74 07F50473 		add	r3, r7, #528
 3764 0b78 A3F5F473 		sub	r3, r3, #488
 3765 0b7c 0022     		movs	r2, #0
 3766 0b7e DA61     		str	r2, [r3, #28]
 477:Lib/AI_Runtime/Npu/ll_aton/ll_sw_float.c ****                          .nl_params = NULL, )
 478:Lib/AI_Runtime/Npu/ll_aton/ll_sw_float.c ****     nonlinearity_layer.forward(AI_LAYER_OBJ(&nonlinearity_layer));
 3767              		.loc 1 478 23
 3768 0b80 07F50473 		add	r3, r7, #528
 3769 0b84 A3F5F473 		sub	r3, r3, #488
 3770 0b88 5B69     		ldr	r3, [r3, #20]
 3771              		.loc 1 478 5
 3772 0b8a 07F12802 		add	r2, r7, #40
 3773 0b8e 1046     		mov	r0, r2
 3774 0b90 9847     		blx	r3
 3775              	.LVL14:
 3776              	.LBE14:
 479:Lib/AI_Runtime/Npu/ll_aton/ll_sw_float.c ****   }
 480:Lib/AI_Runtime/Npu/ll_aton/ll_sw_float.c ****   break;
 3777              		.loc 1 480 3
 3778 0b92 00F064BF 		b	.L94
 3779              	.L72:
 3780              	.LBB15:
 481:Lib/AI_Runtime/Npu/ll_aton/ll_sw_float.c ****   case LL_SW_EXP:
 482:Lib/AI_Runtime/Npu/ll_aton/ll_sw_float.c ****   {
 483:Lib/AI_Runtime/Npu/ll_aton/ll_sw_float.c ****     AI_LAYER_OBJ_DECLARE(nonlinearity_layer, 2, NL_TYPE, 0x0, NULL, nl, forward_exp, &activ_chain, 
 3781              		.loc 1 483 5
 3782 0b96 07F50473 		add	r3, r7, #528
 3783 0b9a A3F5F473 		sub	r3, r3, #488
 3784 0b9e 40F20712 		movw	r2, #263
 3785 0ba2 1A80     		strh	r2, [r3]	@ movhi
 3786 0ba4 07F50473 		add	r3, r7, #528
 3787 0ba8 A3F5F473 		sub	r3, r3, #488
 3788 0bac 0222     		movs	r2, #2
 3789 0bae 5A80     		strh	r2, [r3, #2]	@ movhi
 3790 0bb0 07F50473 		add	r3, r7, #528
 3791 0bb4 A3F5F473 		sub	r3, r3, #488
 3792 0bb8 0022     		movs	r2, #0
 3793 0bba 5A60     		str	r2, [r3, #4]
 3794 0bbc 07F50473 		add	r3, r7, #528
 3795 0bc0 A3F5F473 		sub	r3, r3, #488
 3796 0bc4 0022     		movs	r2, #0
 3797 0bc6 9A60     		str	r2, [r3, #8]
 3798 0bc8 07F50473 		add	r3, r7, #528
ARM GAS  /tmp/ccEo7NLA.s 			page 82


 3799 0bcc A3F5F473 		sub	r3, r3, #488
 3800 0bd0 0022     		movs	r2, #0
 3801 0bd2 DA60     		str	r2, [r3, #12]
 3802 0bd4 07F50473 		add	r3, r7, #528
 3803 0bd8 A3F5F473 		sub	r3, r3, #488
 3804 0bdc 0022     		movs	r2, #0
 3805 0bde 1A61     		str	r2, [r3, #16]
 3806 0be0 07F50473 		add	r3, r7, #528
 3807 0be4 A3F5F473 		sub	r3, r3, #488
 3808 0be8 B54A     		ldr	r2, .L104+4
 3809 0bea 5A61     		str	r2, [r3, #20]
 3810 0bec 07F50473 		add	r3, r7, #528
 3811 0bf0 A3F5F473 		sub	r3, r3, #488
 3812 0bf4 07F5B672 		add	r2, r7, #364
 3813 0bf8 9A61     		str	r2, [r3, #24]
 3814 0bfa 07F50473 		add	r3, r7, #528
 3815 0bfe A3F5F473 		sub	r3, r3, #488
 3816 0c02 0022     		movs	r2, #0
 3817 0c04 DA61     		str	r2, [r3, #28]
 484:Lib/AI_Runtime/Npu/ll_aton/ll_sw_float.c ****                          .nl_params = NULL, )
 485:Lib/AI_Runtime/Npu/ll_aton/ll_sw_float.c ****     nonlinearity_layer.forward(AI_LAYER_OBJ(&nonlinearity_layer));
 3818              		.loc 1 485 23
 3819 0c06 07F50473 		add	r3, r7, #528
 3820 0c0a A3F5F473 		sub	r3, r3, #488
 3821 0c0e 5B69     		ldr	r3, [r3, #20]
 3822              		.loc 1 485 5
 3823 0c10 07F12802 		add	r2, r7, #40
 3824 0c14 1046     		mov	r0, r2
 3825 0c16 9847     		blx	r3
 3826              	.LVL15:
 3827              	.LBE15:
 486:Lib/AI_Runtime/Npu/ll_aton/ll_sw_float.c ****   }
 487:Lib/AI_Runtime/Npu/ll_aton/ll_sw_float.c ****   break;
 3828              		.loc 1 487 3
 3829 0c18 00F021BF 		b	.L94
 3830              	.L71:
 3831              	.LBB16:
 488:Lib/AI_Runtime/Npu/ll_aton/ll_sw_float.c ****   case LL_SW_LOG:
 489:Lib/AI_Runtime/Npu/ll_aton/ll_sw_float.c ****   {
 490:Lib/AI_Runtime/Npu/ll_aton/ll_sw_float.c ****     AI_LAYER_OBJ_DECLARE(nonlinearity_layer, 2, NL_TYPE, 0x0, NULL, nl, forward_log, &activ_chain, 
 3832              		.loc 1 490 5
 3833 0c1c 07F50473 		add	r3, r7, #528
 3834 0c20 A3F5F473 		sub	r3, r3, #488
 3835 0c24 40F20712 		movw	r2, #263
 3836 0c28 1A80     		strh	r2, [r3]	@ movhi
 3837 0c2a 07F50473 		add	r3, r7, #528
 3838 0c2e A3F5F473 		sub	r3, r3, #488
 3839 0c32 0222     		movs	r2, #2
 3840 0c34 5A80     		strh	r2, [r3, #2]	@ movhi
 3841 0c36 07F50473 		add	r3, r7, #528
 3842 0c3a A3F5F473 		sub	r3, r3, #488
 3843 0c3e 0022     		movs	r2, #0
 3844 0c40 5A60     		str	r2, [r3, #4]
 3845 0c42 07F50473 		add	r3, r7, #528
 3846 0c46 A3F5F473 		sub	r3, r3, #488
 3847 0c4a 0022     		movs	r2, #0
 3848 0c4c 9A60     		str	r2, [r3, #8]
ARM GAS  /tmp/ccEo7NLA.s 			page 83


 3849 0c4e 07F50473 		add	r3, r7, #528
 3850 0c52 A3F5F473 		sub	r3, r3, #488
 3851 0c56 0022     		movs	r2, #0
 3852 0c58 DA60     		str	r2, [r3, #12]
 3853 0c5a 07F50473 		add	r3, r7, #528
 3854 0c5e A3F5F473 		sub	r3, r3, #488
 3855 0c62 0022     		movs	r2, #0
 3856 0c64 1A61     		str	r2, [r3, #16]
 3857 0c66 07F50473 		add	r3, r7, #528
 3858 0c6a A3F5F473 		sub	r3, r3, #488
 3859 0c6e 954A     		ldr	r2, .L104+8
 3860 0c70 5A61     		str	r2, [r3, #20]
 3861 0c72 07F50473 		add	r3, r7, #528
 3862 0c76 A3F5F473 		sub	r3, r3, #488
 3863 0c7a 07F5B672 		add	r2, r7, #364
 3864 0c7e 9A61     		str	r2, [r3, #24]
 3865 0c80 07F50473 		add	r3, r7, #528
 3866 0c84 A3F5F473 		sub	r3, r3, #488
 3867 0c88 0022     		movs	r2, #0
 3868 0c8a DA61     		str	r2, [r3, #28]
 491:Lib/AI_Runtime/Npu/ll_aton/ll_sw_float.c ****                          .nl_params = NULL, )
 492:Lib/AI_Runtime/Npu/ll_aton/ll_sw_float.c ****     nonlinearity_layer.forward(AI_LAYER_OBJ(&nonlinearity_layer));
 3869              		.loc 1 492 23
 3870 0c8c 07F50473 		add	r3, r7, #528
 3871 0c90 A3F5F473 		sub	r3, r3, #488
 3872 0c94 5B69     		ldr	r3, [r3, #20]
 3873              		.loc 1 492 5
 3874 0c96 07F12802 		add	r2, r7, #40
 3875 0c9a 1046     		mov	r0, r2
 3876 0c9c 9847     		blx	r3
 3877              	.LVL16:
 3878              	.LBE16:
 493:Lib/AI_Runtime/Npu/ll_aton/ll_sw_float.c ****   }
 494:Lib/AI_Runtime/Npu/ll_aton/ll_sw_float.c ****   break;
 3879              		.loc 1 494 3
 3880 0c9e 00F0DEBE 		b	.L94
 3881              	.L85:
 3882              	.LBB17:
 495:Lib/AI_Runtime/Npu/ll_aton/ll_sw_float.c ****   case LL_SW_ACOS:
 496:Lib/AI_Runtime/Npu/ll_aton/ll_sw_float.c ****   {
 497:Lib/AI_Runtime/Npu/ll_aton/ll_sw_float.c ****     AI_LAYER_OBJ_DECLARE(nonlinearity_layer, 2, NL_TYPE, 0x0, NULL, nl, forward_acos, &activ_chain,
 3883              		.loc 1 497 5
 3884 0ca2 07F50473 		add	r3, r7, #528
 3885 0ca6 A3F5F473 		sub	r3, r3, #488
 3886 0caa 40F20712 		movw	r2, #263
 3887 0cae 1A80     		strh	r2, [r3]	@ movhi
 3888 0cb0 07F50473 		add	r3, r7, #528
 3889 0cb4 A3F5F473 		sub	r3, r3, #488
 3890 0cb8 0222     		movs	r2, #2
 3891 0cba 5A80     		strh	r2, [r3, #2]	@ movhi
 3892 0cbc 07F50473 		add	r3, r7, #528
 3893 0cc0 A3F5F473 		sub	r3, r3, #488
 3894 0cc4 0022     		movs	r2, #0
 3895 0cc6 5A60     		str	r2, [r3, #4]
 3896 0cc8 07F50473 		add	r3, r7, #528
 3897 0ccc A3F5F473 		sub	r3, r3, #488
 3898 0cd0 0022     		movs	r2, #0
ARM GAS  /tmp/ccEo7NLA.s 			page 84


 3899 0cd2 9A60     		str	r2, [r3, #8]
 3900 0cd4 07F50473 		add	r3, r7, #528
 3901 0cd8 A3F5F473 		sub	r3, r3, #488
 3902 0cdc 0022     		movs	r2, #0
 3903 0cde DA60     		str	r2, [r3, #12]
 3904 0ce0 07F50473 		add	r3, r7, #528
 3905 0ce4 A3F5F473 		sub	r3, r3, #488
 3906 0ce8 0022     		movs	r2, #0
 3907 0cea 1A61     		str	r2, [r3, #16]
 3908 0cec 07F50473 		add	r3, r7, #528
 3909 0cf0 A3F5F473 		sub	r3, r3, #488
 3910 0cf4 744A     		ldr	r2, .L104+12
 3911 0cf6 5A61     		str	r2, [r3, #20]
 3912 0cf8 07F50473 		add	r3, r7, #528
 3913 0cfc A3F5F473 		sub	r3, r3, #488
 3914 0d00 07F5B672 		add	r2, r7, #364
 3915 0d04 9A61     		str	r2, [r3, #24]
 3916 0d06 07F50473 		add	r3, r7, #528
 3917 0d0a A3F5F473 		sub	r3, r3, #488
 3918 0d0e 0022     		movs	r2, #0
 3919 0d10 DA61     		str	r2, [r3, #28]
 498:Lib/AI_Runtime/Npu/ll_aton/ll_sw_float.c ****                          .nl_params = NULL, )
 499:Lib/AI_Runtime/Npu/ll_aton/ll_sw_float.c ****     nonlinearity_layer.forward(AI_LAYER_OBJ(&nonlinearity_layer));
 3920              		.loc 1 499 23
 3921 0d12 07F50473 		add	r3, r7, #528
 3922 0d16 A3F5F473 		sub	r3, r3, #488
 3923 0d1a 5B69     		ldr	r3, [r3, #20]
 3924              		.loc 1 499 5
 3925 0d1c 07F12802 		add	r2, r7, #40
 3926 0d20 1046     		mov	r0, r2
 3927 0d22 9847     		blx	r3
 3928              	.LVL17:
 3929              	.LBE17:
 500:Lib/AI_Runtime/Npu/ll_aton/ll_sw_float.c ****   }
 501:Lib/AI_Runtime/Npu/ll_aton/ll_sw_float.c ****   break;
 3930              		.loc 1 501 3
 3931 0d24 00F09BBE 		b	.L94
 3932              	.L84:
 3933              	.LBB18:
 502:Lib/AI_Runtime/Npu/ll_aton/ll_sw_float.c ****   case LL_SW_ACOSH:
 503:Lib/AI_Runtime/Npu/ll_aton/ll_sw_float.c ****   {
 504:Lib/AI_Runtime/Npu/ll_aton/ll_sw_float.c ****     AI_LAYER_OBJ_DECLARE(nonlinearity_layer, 2, NL_TYPE, 0x0, NULL, nl, forward_acosh, &activ_chain
 3934              		.loc 1 504 5
 3935 0d28 07F50473 		add	r3, r7, #528
 3936 0d2c A3F5F473 		sub	r3, r3, #488
 3937 0d30 40F20712 		movw	r2, #263
 3938 0d34 1A80     		strh	r2, [r3]	@ movhi
 3939 0d36 07F50473 		add	r3, r7, #528
 3940 0d3a A3F5F473 		sub	r3, r3, #488
 3941 0d3e 0222     		movs	r2, #2
 3942 0d40 5A80     		strh	r2, [r3, #2]	@ movhi
 3943 0d42 07F50473 		add	r3, r7, #528
 3944 0d46 A3F5F473 		sub	r3, r3, #488
 3945 0d4a 0022     		movs	r2, #0
 3946 0d4c 5A60     		str	r2, [r3, #4]
 3947 0d4e 07F50473 		add	r3, r7, #528
 3948 0d52 A3F5F473 		sub	r3, r3, #488
ARM GAS  /tmp/ccEo7NLA.s 			page 85


 3949 0d56 0022     		movs	r2, #0
 3950 0d58 9A60     		str	r2, [r3, #8]
 3951 0d5a 07F50473 		add	r3, r7, #528
 3952 0d5e A3F5F473 		sub	r3, r3, #488
 3953 0d62 0022     		movs	r2, #0
 3954 0d64 DA60     		str	r2, [r3, #12]
 3955 0d66 07F50473 		add	r3, r7, #528
 3956 0d6a A3F5F473 		sub	r3, r3, #488
 3957 0d6e 0022     		movs	r2, #0
 3958 0d70 1A61     		str	r2, [r3, #16]
 3959 0d72 07F50473 		add	r3, r7, #528
 3960 0d76 A3F5F473 		sub	r3, r3, #488
 3961 0d7a 544A     		ldr	r2, .L104+16
 3962 0d7c 5A61     		str	r2, [r3, #20]
 3963 0d7e 07F50473 		add	r3, r7, #528
 3964 0d82 A3F5F473 		sub	r3, r3, #488
 3965 0d86 07F5B672 		add	r2, r7, #364
 3966 0d8a 9A61     		str	r2, [r3, #24]
 3967 0d8c 07F50473 		add	r3, r7, #528
 3968 0d90 A3F5F473 		sub	r3, r3, #488
 3969 0d94 0022     		movs	r2, #0
 3970 0d96 DA61     		str	r2, [r3, #28]
 505:Lib/AI_Runtime/Npu/ll_aton/ll_sw_float.c ****                          .nl_params = NULL, )
 506:Lib/AI_Runtime/Npu/ll_aton/ll_sw_float.c ****     nonlinearity_layer.forward(AI_LAYER_OBJ(&nonlinearity_layer));
 3971              		.loc 1 506 23
 3972 0d98 07F50473 		add	r3, r7, #528
 3973 0d9c A3F5F473 		sub	r3, r3, #488
 3974 0da0 5B69     		ldr	r3, [r3, #20]
 3975              		.loc 1 506 5
 3976 0da2 07F12802 		add	r2, r7, #40
 3977 0da6 1046     		mov	r0, r2
 3978 0da8 9847     		blx	r3
 3979              	.LVL18:
 3980              	.LBE18:
 507:Lib/AI_Runtime/Npu/ll_aton/ll_sw_float.c ****   }
 508:Lib/AI_Runtime/Npu/ll_aton/ll_sw_float.c ****   break;
 3981              		.loc 1 508 3
 3982 0daa 00F058BE 		b	.L94
 3983              	.L83:
 3984              	.LBB19:
 509:Lib/AI_Runtime/Npu/ll_aton/ll_sw_float.c ****   case LL_SW_ASIN:
 510:Lib/AI_Runtime/Npu/ll_aton/ll_sw_float.c ****   {
 511:Lib/AI_Runtime/Npu/ll_aton/ll_sw_float.c ****     AI_LAYER_OBJ_DECLARE(nonlinearity_layer, 2, NL_TYPE, 0x0, NULL, nl, forward_asin, &activ_chain,
 3985              		.loc 1 511 5
 3986 0dae 07F50473 		add	r3, r7, #528
 3987 0db2 A3F5F473 		sub	r3, r3, #488
 3988 0db6 40F20712 		movw	r2, #263
 3989 0dba 1A80     		strh	r2, [r3]	@ movhi
 3990 0dbc 07F50473 		add	r3, r7, #528
 3991 0dc0 A3F5F473 		sub	r3, r3, #488
 3992 0dc4 0222     		movs	r2, #2
 3993 0dc6 5A80     		strh	r2, [r3, #2]	@ movhi
 3994 0dc8 07F50473 		add	r3, r7, #528
 3995 0dcc A3F5F473 		sub	r3, r3, #488
 3996 0dd0 0022     		movs	r2, #0
 3997 0dd2 5A60     		str	r2, [r3, #4]
 3998 0dd4 07F50473 		add	r3, r7, #528
ARM GAS  /tmp/ccEo7NLA.s 			page 86


 3999 0dd8 A3F5F473 		sub	r3, r3, #488
 4000 0ddc 0022     		movs	r2, #0
 4001 0dde 9A60     		str	r2, [r3, #8]
 4002 0de0 07F50473 		add	r3, r7, #528
 4003 0de4 A3F5F473 		sub	r3, r3, #488
 4004 0de8 0022     		movs	r2, #0
 4005 0dea DA60     		str	r2, [r3, #12]
 4006 0dec 07F50473 		add	r3, r7, #528
 4007 0df0 A3F5F473 		sub	r3, r3, #488
 4008 0df4 0022     		movs	r2, #0
 4009 0df6 1A61     		str	r2, [r3, #16]
 4010 0df8 07F50473 		add	r3, r7, #528
 4011 0dfc A3F5F473 		sub	r3, r3, #488
 4012 0e00 334A     		ldr	r2, .L104+20
 4013 0e02 5A61     		str	r2, [r3, #20]
 4014 0e04 07F50473 		add	r3, r7, #528
 4015 0e08 A3F5F473 		sub	r3, r3, #488
 4016 0e0c 07F5B672 		add	r2, r7, #364
 4017 0e10 9A61     		str	r2, [r3, #24]
 4018 0e12 07F50473 		add	r3, r7, #528
 4019 0e16 A3F5F473 		sub	r3, r3, #488
 4020 0e1a 0022     		movs	r2, #0
 4021 0e1c DA61     		str	r2, [r3, #28]
 512:Lib/AI_Runtime/Npu/ll_aton/ll_sw_float.c ****                          .nl_params = NULL, )
 513:Lib/AI_Runtime/Npu/ll_aton/ll_sw_float.c ****     nonlinearity_layer.forward(AI_LAYER_OBJ(&nonlinearity_layer));
 4022              		.loc 1 513 23
 4023 0e1e 07F50473 		add	r3, r7, #528
 4024 0e22 A3F5F473 		sub	r3, r3, #488
 4025 0e26 5B69     		ldr	r3, [r3, #20]
 4026              		.loc 1 513 5
 4027 0e28 07F12802 		add	r2, r7, #40
 4028 0e2c 1046     		mov	r0, r2
 4029 0e2e 9847     		blx	r3
 4030              	.LVL19:
 4031              	.LBE19:
 514:Lib/AI_Runtime/Npu/ll_aton/ll_sw_float.c ****   }
 515:Lib/AI_Runtime/Npu/ll_aton/ll_sw_float.c ****   break;
 4032              		.loc 1 515 3
 4033 0e30 00F015BE 		b	.L94
 4034              	.L82:
 4035              	.LBB20:
 516:Lib/AI_Runtime/Npu/ll_aton/ll_sw_float.c ****   case LL_SW_ASINH:
 517:Lib/AI_Runtime/Npu/ll_aton/ll_sw_float.c ****   {
 518:Lib/AI_Runtime/Npu/ll_aton/ll_sw_float.c ****     AI_LAYER_OBJ_DECLARE(nonlinearity_layer, 2, NL_TYPE, 0x0, NULL, nl, forward_asinh, &activ_chain
 4036              		.loc 1 518 5
 4037 0e34 07F50473 		add	r3, r7, #528
 4038 0e38 A3F5F473 		sub	r3, r3, #488
 4039 0e3c 40F20712 		movw	r2, #263
 4040 0e40 1A80     		strh	r2, [r3]	@ movhi
 4041 0e42 07F50473 		add	r3, r7, #528
 4042 0e46 A3F5F473 		sub	r3, r3, #488
 4043 0e4a 0222     		movs	r2, #2
 4044 0e4c 5A80     		strh	r2, [r3, #2]	@ movhi
 4045 0e4e 07F50473 		add	r3, r7, #528
 4046 0e52 A3F5F473 		sub	r3, r3, #488
 4047 0e56 0022     		movs	r2, #0
 4048 0e58 5A60     		str	r2, [r3, #4]
ARM GAS  /tmp/ccEo7NLA.s 			page 87


 4049 0e5a 07F50473 		add	r3, r7, #528
 4050 0e5e A3F5F473 		sub	r3, r3, #488
 4051 0e62 0022     		movs	r2, #0
 4052 0e64 9A60     		str	r2, [r3, #8]
 4053 0e66 07F50473 		add	r3, r7, #528
 4054 0e6a A3F5F473 		sub	r3, r3, #488
 4055 0e6e 0022     		movs	r2, #0
 4056 0e70 DA60     		str	r2, [r3, #12]
 4057 0e72 07F50473 		add	r3, r7, #528
 4058 0e76 A3F5F473 		sub	r3, r3, #488
 4059 0e7a 0022     		movs	r2, #0
 4060 0e7c 1A61     		str	r2, [r3, #16]
 4061 0e7e 07F50473 		add	r3, r7, #528
 4062 0e82 A3F5F473 		sub	r3, r3, #488
 4063 0e86 134A     		ldr	r2, .L104+24
 4064 0e88 5A61     		str	r2, [r3, #20]
 4065 0e8a 07F50473 		add	r3, r7, #528
 4066 0e8e A3F5F473 		sub	r3, r3, #488
 4067 0e92 07F5B672 		add	r2, r7, #364
 4068 0e96 9A61     		str	r2, [r3, #24]
 4069 0e98 07F50473 		add	r3, r7, #528
 4070 0e9c A3F5F473 		sub	r3, r3, #488
 4071 0ea0 0022     		movs	r2, #0
 4072 0ea2 DA61     		str	r2, [r3, #28]
 519:Lib/AI_Runtime/Npu/ll_aton/ll_sw_float.c ****                          .nl_params = NULL, )
 520:Lib/AI_Runtime/Npu/ll_aton/ll_sw_float.c ****     nonlinearity_layer.forward(AI_LAYER_OBJ(&nonlinearity_layer));
 4073              		.loc 1 520 23
 4074 0ea4 07F50473 		add	r3, r7, #528
 4075 0ea8 A3F5F473 		sub	r3, r3, #488
 4076 0eac 5B69     		ldr	r3, [r3, #20]
 4077              		.loc 1 520 5
 4078 0eae 07F12802 		add	r2, r7, #40
 4079 0eb2 1046     		mov	r0, r2
 4080 0eb4 9847     		blx	r3
 4081              	.LVL20:
 4082              	.LBE20:
 521:Lib/AI_Runtime/Npu/ll_aton/ll_sw_float.c ****   }
 522:Lib/AI_Runtime/Npu/ll_aton/ll_sw_float.c ****   break;
 4083              		.loc 1 522 3
 4084 0eb6 00F0D2BD 		b	.L94
 4085              	.L105:
 4086 0eba 00BF     		.align	2
 4087              	.L104:
 4088 0ebc 00000000 		.word	forward_floor
 4089 0ec0 00000000 		.word	forward_exp
 4090 0ec4 00000000 		.word	forward_log
 4091 0ec8 00000000 		.word	forward_acos
 4092 0ecc 00000000 		.word	forward_acosh
 4093 0ed0 00000000 		.word	forward_asin
 4094 0ed4 00000000 		.word	forward_asinh
 4095              	.L87:
 4096              	.LBB21:
 523:Lib/AI_Runtime/Npu/ll_aton/ll_sw_float.c ****   case LL_SW_ATAN:
 524:Lib/AI_Runtime/Npu/ll_aton/ll_sw_float.c ****   {
 525:Lib/AI_Runtime/Npu/ll_aton/ll_sw_float.c ****     AI_LAYER_OBJ_DECLARE(nonlinearity_layer, 2, NL_TYPE, 0x0, NULL, nl, forward_atan, &activ_chain,
 4097              		.loc 1 525 5
 4098 0ed8 07F50473 		add	r3, r7, #528
ARM GAS  /tmp/ccEo7NLA.s 			page 88


 4099 0edc A3F5F473 		sub	r3, r3, #488
 4100 0ee0 40F20712 		movw	r2, #263
 4101 0ee4 1A80     		strh	r2, [r3]	@ movhi
 4102 0ee6 07F50473 		add	r3, r7, #528
 4103 0eea A3F5F473 		sub	r3, r3, #488
 4104 0eee 0222     		movs	r2, #2
 4105 0ef0 5A80     		strh	r2, [r3, #2]	@ movhi
 4106 0ef2 07F50473 		add	r3, r7, #528
 4107 0ef6 A3F5F473 		sub	r3, r3, #488
 4108 0efa 0022     		movs	r2, #0
 4109 0efc 5A60     		str	r2, [r3, #4]
 4110 0efe 07F50473 		add	r3, r7, #528
 4111 0f02 A3F5F473 		sub	r3, r3, #488
 4112 0f06 0022     		movs	r2, #0
 4113 0f08 9A60     		str	r2, [r3, #8]
 4114 0f0a 07F50473 		add	r3, r7, #528
 4115 0f0e A3F5F473 		sub	r3, r3, #488
 4116 0f12 0022     		movs	r2, #0
 4117 0f14 DA60     		str	r2, [r3, #12]
 4118 0f16 07F50473 		add	r3, r7, #528
 4119 0f1a A3F5F473 		sub	r3, r3, #488
 4120 0f1e 0022     		movs	r2, #0
 4121 0f20 1A61     		str	r2, [r3, #16]
 4122 0f22 07F50473 		add	r3, r7, #528
 4123 0f26 A3F5F473 		sub	r3, r3, #488
 4124 0f2a D54A     		ldr	r2, .L106
 4125 0f2c 5A61     		str	r2, [r3, #20]
 4126 0f2e 07F50473 		add	r3, r7, #528
 4127 0f32 A3F5F473 		sub	r3, r3, #488
 4128 0f36 07F5B672 		add	r2, r7, #364
 4129 0f3a 9A61     		str	r2, [r3, #24]
 4130 0f3c 07F50473 		add	r3, r7, #528
 4131 0f40 A3F5F473 		sub	r3, r3, #488
 4132 0f44 0022     		movs	r2, #0
 4133 0f46 DA61     		str	r2, [r3, #28]
 526:Lib/AI_Runtime/Npu/ll_aton/ll_sw_float.c ****                          .nl_params = NULL, )
 527:Lib/AI_Runtime/Npu/ll_aton/ll_sw_float.c ****     nonlinearity_layer.forward(AI_LAYER_OBJ(&nonlinearity_layer));
 4134              		.loc 1 527 23
 4135 0f48 07F50473 		add	r3, r7, #528
 4136 0f4c A3F5F473 		sub	r3, r3, #488
 4137 0f50 5B69     		ldr	r3, [r3, #20]
 4138              		.loc 1 527 5
 4139 0f52 07F12802 		add	r2, r7, #40
 4140 0f56 1046     		mov	r0, r2
 4141 0f58 9847     		blx	r3
 4142              	.LVL21:
 4143              	.LBE21:
 528:Lib/AI_Runtime/Npu/ll_aton/ll_sw_float.c ****   }
 529:Lib/AI_Runtime/Npu/ll_aton/ll_sw_float.c ****   break;
 4144              		.loc 1 529 3
 4145 0f5a 00F080BD 		b	.L94
 4146              	.L86:
 4147              	.LBB22:
 530:Lib/AI_Runtime/Npu/ll_aton/ll_sw_float.c ****   case LL_SW_ATANH:
 531:Lib/AI_Runtime/Npu/ll_aton/ll_sw_float.c ****   {
 532:Lib/AI_Runtime/Npu/ll_aton/ll_sw_float.c ****     AI_LAYER_OBJ_DECLARE(nonlinearity_layer, 2, NL_TYPE, 0x0, NULL, nl, forward_atanh, &activ_chain
 4148              		.loc 1 532 5
ARM GAS  /tmp/ccEo7NLA.s 			page 89


 4149 0f5e 07F50473 		add	r3, r7, #528
 4150 0f62 A3F5F473 		sub	r3, r3, #488
 4151 0f66 40F20712 		movw	r2, #263
 4152 0f6a 1A80     		strh	r2, [r3]	@ movhi
 4153 0f6c 07F50473 		add	r3, r7, #528
 4154 0f70 A3F5F473 		sub	r3, r3, #488
 4155 0f74 0222     		movs	r2, #2
 4156 0f76 5A80     		strh	r2, [r3, #2]	@ movhi
 4157 0f78 07F50473 		add	r3, r7, #528
 4158 0f7c A3F5F473 		sub	r3, r3, #488
 4159 0f80 0022     		movs	r2, #0
 4160 0f82 5A60     		str	r2, [r3, #4]
 4161 0f84 07F50473 		add	r3, r7, #528
 4162 0f88 A3F5F473 		sub	r3, r3, #488
 4163 0f8c 0022     		movs	r2, #0
 4164 0f8e 9A60     		str	r2, [r3, #8]
 4165 0f90 07F50473 		add	r3, r7, #528
 4166 0f94 A3F5F473 		sub	r3, r3, #488
 4167 0f98 0022     		movs	r2, #0
 4168 0f9a DA60     		str	r2, [r3, #12]
 4169 0f9c 07F50473 		add	r3, r7, #528
 4170 0fa0 A3F5F473 		sub	r3, r3, #488
 4171 0fa4 0022     		movs	r2, #0
 4172 0fa6 1A61     		str	r2, [r3, #16]
 4173 0fa8 07F50473 		add	r3, r7, #528
 4174 0fac A3F5F473 		sub	r3, r3, #488
 4175 0fb0 B44A     		ldr	r2, .L106+4
 4176 0fb2 5A61     		str	r2, [r3, #20]
 4177 0fb4 07F50473 		add	r3, r7, #528
 4178 0fb8 A3F5F473 		sub	r3, r3, #488
 4179 0fbc 07F5B672 		add	r2, r7, #364
 4180 0fc0 9A61     		str	r2, [r3, #24]
 4181 0fc2 07F50473 		add	r3, r7, #528
 4182 0fc6 A3F5F473 		sub	r3, r3, #488
 4183 0fca 0022     		movs	r2, #0
 4184 0fcc DA61     		str	r2, [r3, #28]
 533:Lib/AI_Runtime/Npu/ll_aton/ll_sw_float.c ****                          .nl_params = NULL, )
 534:Lib/AI_Runtime/Npu/ll_aton/ll_sw_float.c ****     nonlinearity_layer.forward(AI_LAYER_OBJ(&nonlinearity_layer));
 4185              		.loc 1 534 23
 4186 0fce 07F50473 		add	r3, r7, #528
 4187 0fd2 A3F5F473 		sub	r3, r3, #488
 4188 0fd6 5B69     		ldr	r3, [r3, #20]
 4189              		.loc 1 534 5
 4190 0fd8 07F12802 		add	r2, r7, #40
 4191 0fdc 1046     		mov	r0, r2
 4192 0fde 9847     		blx	r3
 4193              	.LVL22:
 4194              	.LBE22:
 535:Lib/AI_Runtime/Npu/ll_aton/ll_sw_float.c ****   }
 536:Lib/AI_Runtime/Npu/ll_aton/ll_sw_float.c ****   break;
 4195              		.loc 1 536 3
 4196 0fe0 00F03DBD 		b	.L94
 4197              	.L79:
 4198              	.LBB23:
 537:Lib/AI_Runtime/Npu/ll_aton/ll_sw_float.c ****   case LL_SW_COS:
 538:Lib/AI_Runtime/Npu/ll_aton/ll_sw_float.c ****   {
 539:Lib/AI_Runtime/Npu/ll_aton/ll_sw_float.c ****     AI_LAYER_OBJ_DECLARE(nonlinearity_layer, 2, NL_TYPE, 0x0, NULL, nl, forward_cos, &activ_chain, 
ARM GAS  /tmp/ccEo7NLA.s 			page 90


 4199              		.loc 1 539 5
 4200 0fe4 07F50473 		add	r3, r7, #528
 4201 0fe8 A3F5F473 		sub	r3, r3, #488
 4202 0fec 40F20712 		movw	r2, #263
 4203 0ff0 1A80     		strh	r2, [r3]	@ movhi
 4204 0ff2 07F50473 		add	r3, r7, #528
 4205 0ff6 A3F5F473 		sub	r3, r3, #488
 4206 0ffa 0222     		movs	r2, #2
 4207 0ffc 5A80     		strh	r2, [r3, #2]	@ movhi
 4208 0ffe 07F50473 		add	r3, r7, #528
 4209 1002 A3F5F473 		sub	r3, r3, #488
 4210 1006 0022     		movs	r2, #0
 4211 1008 5A60     		str	r2, [r3, #4]
 4212 100a 07F50473 		add	r3, r7, #528
 4213 100e A3F5F473 		sub	r3, r3, #488
 4214 1012 0022     		movs	r2, #0
 4215 1014 9A60     		str	r2, [r3, #8]
 4216 1016 07F50473 		add	r3, r7, #528
 4217 101a A3F5F473 		sub	r3, r3, #488
 4218 101e 0022     		movs	r2, #0
 4219 1020 DA60     		str	r2, [r3, #12]
 4220 1022 07F50473 		add	r3, r7, #528
 4221 1026 A3F5F473 		sub	r3, r3, #488
 4222 102a 0022     		movs	r2, #0
 4223 102c 1A61     		str	r2, [r3, #16]
 4224 102e 07F50473 		add	r3, r7, #528
 4225 1032 A3F5F473 		sub	r3, r3, #488
 4226 1036 944A     		ldr	r2, .L106+8
 4227 1038 5A61     		str	r2, [r3, #20]
 4228 103a 07F50473 		add	r3, r7, #528
 4229 103e A3F5F473 		sub	r3, r3, #488
 4230 1042 07F5B672 		add	r2, r7, #364
 4231 1046 9A61     		str	r2, [r3, #24]
 4232 1048 07F50473 		add	r3, r7, #528
 4233 104c A3F5F473 		sub	r3, r3, #488
 4234 1050 0022     		movs	r2, #0
 4235 1052 DA61     		str	r2, [r3, #28]
 540:Lib/AI_Runtime/Npu/ll_aton/ll_sw_float.c ****                          .nl_params = NULL, )
 541:Lib/AI_Runtime/Npu/ll_aton/ll_sw_float.c ****     nonlinearity_layer.forward(AI_LAYER_OBJ(&nonlinearity_layer));
 4236              		.loc 1 541 23
 4237 1054 07F50473 		add	r3, r7, #528
 4238 1058 A3F5F473 		sub	r3, r3, #488
 4239 105c 5B69     		ldr	r3, [r3, #20]
 4240              		.loc 1 541 5
 4241 105e 07F12802 		add	r2, r7, #40
 4242 1062 1046     		mov	r0, r2
 4243 1064 9847     		blx	r3
 4244              	.LVL23:
 4245              	.LBE23:
 542:Lib/AI_Runtime/Npu/ll_aton/ll_sw_float.c ****   }
 543:Lib/AI_Runtime/Npu/ll_aton/ll_sw_float.c ****   break;
 4246              		.loc 1 543 3
 4247 1066 00F0FABC 		b	.L94
 4248              	.L78:
 4249              	.LBB24:
 544:Lib/AI_Runtime/Npu/ll_aton/ll_sw_float.c ****   case LL_SW_COSH:
 545:Lib/AI_Runtime/Npu/ll_aton/ll_sw_float.c ****   {
ARM GAS  /tmp/ccEo7NLA.s 			page 91


 546:Lib/AI_Runtime/Npu/ll_aton/ll_sw_float.c ****     AI_LAYER_OBJ_DECLARE(nonlinearity_layer, 2, NL_TYPE, 0x0, NULL, nl, forward_cosh, &activ_chain,
 4250              		.loc 1 546 5
 4251 106a 07F50473 		add	r3, r7, #528
 4252 106e A3F5F473 		sub	r3, r3, #488
 4253 1072 40F20712 		movw	r2, #263
 4254 1076 1A80     		strh	r2, [r3]	@ movhi
 4255 1078 07F50473 		add	r3, r7, #528
 4256 107c A3F5F473 		sub	r3, r3, #488
 4257 1080 0222     		movs	r2, #2
 4258 1082 5A80     		strh	r2, [r3, #2]	@ movhi
 4259 1084 07F50473 		add	r3, r7, #528
 4260 1088 A3F5F473 		sub	r3, r3, #488
 4261 108c 0022     		movs	r2, #0
 4262 108e 5A60     		str	r2, [r3, #4]
 4263 1090 07F50473 		add	r3, r7, #528
 4264 1094 A3F5F473 		sub	r3, r3, #488
 4265 1098 0022     		movs	r2, #0
 4266 109a 9A60     		str	r2, [r3, #8]
 4267 109c 07F50473 		add	r3, r7, #528
 4268 10a0 A3F5F473 		sub	r3, r3, #488
 4269 10a4 0022     		movs	r2, #0
 4270 10a6 DA60     		str	r2, [r3, #12]
 4271 10a8 07F50473 		add	r3, r7, #528
 4272 10ac A3F5F473 		sub	r3, r3, #488
 4273 10b0 0022     		movs	r2, #0
 4274 10b2 1A61     		str	r2, [r3, #16]
 4275 10b4 07F50473 		add	r3, r7, #528
 4276 10b8 A3F5F473 		sub	r3, r3, #488
 4277 10bc 734A     		ldr	r2, .L106+12
 4278 10be 5A61     		str	r2, [r3, #20]
 4279 10c0 07F50473 		add	r3, r7, #528
 4280 10c4 A3F5F473 		sub	r3, r3, #488
 4281 10c8 07F5B672 		add	r2, r7, #364
 4282 10cc 9A61     		str	r2, [r3, #24]
 4283 10ce 07F50473 		add	r3, r7, #528
 4284 10d2 A3F5F473 		sub	r3, r3, #488
 4285 10d6 0022     		movs	r2, #0
 4286 10d8 DA61     		str	r2, [r3, #28]
 547:Lib/AI_Runtime/Npu/ll_aton/ll_sw_float.c ****                          .nl_params = NULL, )
 548:Lib/AI_Runtime/Npu/ll_aton/ll_sw_float.c ****     nonlinearity_layer.forward(AI_LAYER_OBJ(&nonlinearity_layer));
 4287              		.loc 1 548 23
 4288 10da 07F50473 		add	r3, r7, #528
 4289 10de A3F5F473 		sub	r3, r3, #488
 4290 10e2 5B69     		ldr	r3, [r3, #20]
 4291              		.loc 1 548 5
 4292 10e4 07F12802 		add	r2, r7, #40
 4293 10e8 1046     		mov	r0, r2
 4294 10ea 9847     		blx	r3
 4295              	.LVL24:
 4296              	.LBE24:
 549:Lib/AI_Runtime/Npu/ll_aton/ll_sw_float.c ****   }
 550:Lib/AI_Runtime/Npu/ll_aton/ll_sw_float.c ****   break;
 4297              		.loc 1 550 3
 4298 10ec 00F0B7BC 		b	.L94
 4299              	.L77:
 4300              	.LBB25:
 551:Lib/AI_Runtime/Npu/ll_aton/ll_sw_float.c ****   case LL_SW_SIN:
ARM GAS  /tmp/ccEo7NLA.s 			page 92


 552:Lib/AI_Runtime/Npu/ll_aton/ll_sw_float.c ****   {
 553:Lib/AI_Runtime/Npu/ll_aton/ll_sw_float.c ****     AI_LAYER_OBJ_DECLARE(nonlinearity_layer, 2, NL_TYPE, 0x0, NULL, nl, forward_sin, &activ_chain, 
 4301              		.loc 1 553 5
 4302 10f0 07F50473 		add	r3, r7, #528
 4303 10f4 A3F5F473 		sub	r3, r3, #488
 4304 10f8 40F20712 		movw	r2, #263
 4305 10fc 1A80     		strh	r2, [r3]	@ movhi
 4306 10fe 07F50473 		add	r3, r7, #528
 4307 1102 A3F5F473 		sub	r3, r3, #488
 4308 1106 0222     		movs	r2, #2
 4309 1108 5A80     		strh	r2, [r3, #2]	@ movhi
 4310 110a 07F50473 		add	r3, r7, #528
 4311 110e A3F5F473 		sub	r3, r3, #488
 4312 1112 0022     		movs	r2, #0
 4313 1114 5A60     		str	r2, [r3, #4]
 4314 1116 07F50473 		add	r3, r7, #528
 4315 111a A3F5F473 		sub	r3, r3, #488
 4316 111e 0022     		movs	r2, #0
 4317 1120 9A60     		str	r2, [r3, #8]
 4318 1122 07F50473 		add	r3, r7, #528
 4319 1126 A3F5F473 		sub	r3, r3, #488
 4320 112a 0022     		movs	r2, #0
 4321 112c DA60     		str	r2, [r3, #12]
 4322 112e 07F50473 		add	r3, r7, #528
 4323 1132 A3F5F473 		sub	r3, r3, #488
 4324 1136 0022     		movs	r2, #0
 4325 1138 1A61     		str	r2, [r3, #16]
 4326 113a 07F50473 		add	r3, r7, #528
 4327 113e A3F5F473 		sub	r3, r3, #488
 4328 1142 534A     		ldr	r2, .L106+16
 4329 1144 5A61     		str	r2, [r3, #20]
 4330 1146 07F50473 		add	r3, r7, #528
 4331 114a A3F5F473 		sub	r3, r3, #488
 4332 114e 07F5B672 		add	r2, r7, #364
 4333 1152 9A61     		str	r2, [r3, #24]
 4334 1154 07F50473 		add	r3, r7, #528
 4335 1158 A3F5F473 		sub	r3, r3, #488
 4336 115c 0022     		movs	r2, #0
 4337 115e DA61     		str	r2, [r3, #28]
 554:Lib/AI_Runtime/Npu/ll_aton/ll_sw_float.c ****                          .nl_params = NULL, )
 555:Lib/AI_Runtime/Npu/ll_aton/ll_sw_float.c ****     nonlinearity_layer.forward(AI_LAYER_OBJ(&nonlinearity_layer));
 4338              		.loc 1 555 23
 4339 1160 07F50473 		add	r3, r7, #528
 4340 1164 A3F5F473 		sub	r3, r3, #488
 4341 1168 5B69     		ldr	r3, [r3, #20]
 4342              		.loc 1 555 5
 4343 116a 07F12802 		add	r2, r7, #40
 4344 116e 1046     		mov	r0, r2
 4345 1170 9847     		blx	r3
 4346              	.LVL25:
 4347              	.LBE25:
 556:Lib/AI_Runtime/Npu/ll_aton/ll_sw_float.c ****   }
 557:Lib/AI_Runtime/Npu/ll_aton/ll_sw_float.c ****   break;
 4348              		.loc 1 557 3
 4349 1172 00F074BC 		b	.L94
 4350              	.L76:
 4351              	.LBB26:
ARM GAS  /tmp/ccEo7NLA.s 			page 93


 558:Lib/AI_Runtime/Npu/ll_aton/ll_sw_float.c ****   case LL_SW_SINH:
 559:Lib/AI_Runtime/Npu/ll_aton/ll_sw_float.c ****   {
 560:Lib/AI_Runtime/Npu/ll_aton/ll_sw_float.c ****     AI_LAYER_OBJ_DECLARE(nonlinearity_layer, 2, NL_TYPE, 0x0, NULL, nl, forward_sinh, &activ_chain,
 4352              		.loc 1 560 5
 4353 1176 07F50473 		add	r3, r7, #528
 4354 117a A3F5F473 		sub	r3, r3, #488
 4355 117e 40F20712 		movw	r2, #263
 4356 1182 1A80     		strh	r2, [r3]	@ movhi
 4357 1184 07F50473 		add	r3, r7, #528
 4358 1188 A3F5F473 		sub	r3, r3, #488
 4359 118c 0222     		movs	r2, #2
 4360 118e 5A80     		strh	r2, [r3, #2]	@ movhi
 4361 1190 07F50473 		add	r3, r7, #528
 4362 1194 A3F5F473 		sub	r3, r3, #488
 4363 1198 0022     		movs	r2, #0
 4364 119a 5A60     		str	r2, [r3, #4]
 4365 119c 07F50473 		add	r3, r7, #528
 4366 11a0 A3F5F473 		sub	r3, r3, #488
 4367 11a4 0022     		movs	r2, #0
 4368 11a6 9A60     		str	r2, [r3, #8]
 4369 11a8 07F50473 		add	r3, r7, #528
 4370 11ac A3F5F473 		sub	r3, r3, #488
 4371 11b0 0022     		movs	r2, #0
 4372 11b2 DA60     		str	r2, [r3, #12]
 4373 11b4 07F50473 		add	r3, r7, #528
 4374 11b8 A3F5F473 		sub	r3, r3, #488
 4375 11bc 0022     		movs	r2, #0
 4376 11be 1A61     		str	r2, [r3, #16]
 4377 11c0 07F50473 		add	r3, r7, #528
 4378 11c4 A3F5F473 		sub	r3, r3, #488
 4379 11c8 324A     		ldr	r2, .L106+20
 4380 11ca 5A61     		str	r2, [r3, #20]
 4381 11cc 07F50473 		add	r3, r7, #528
 4382 11d0 A3F5F473 		sub	r3, r3, #488
 4383 11d4 07F5B672 		add	r2, r7, #364
 4384 11d8 9A61     		str	r2, [r3, #24]
 4385 11da 07F50473 		add	r3, r7, #528
 4386 11de A3F5F473 		sub	r3, r3, #488
 4387 11e2 0022     		movs	r2, #0
 4388 11e4 DA61     		str	r2, [r3, #28]
 561:Lib/AI_Runtime/Npu/ll_aton/ll_sw_float.c ****                          .nl_params = NULL, )
 562:Lib/AI_Runtime/Npu/ll_aton/ll_sw_float.c ****     nonlinearity_layer.forward(AI_LAYER_OBJ(&nonlinearity_layer));
 4389              		.loc 1 562 23
 4390 11e6 07F50473 		add	r3, r7, #528
 4391 11ea A3F5F473 		sub	r3, r3, #488
 4392 11ee 5B69     		ldr	r3, [r3, #20]
 4393              		.loc 1 562 5
 4394 11f0 07F12802 		add	r2, r7, #40
 4395 11f4 1046     		mov	r0, r2
 4396 11f6 9847     		blx	r3
 4397              	.LVL26:
 4398              	.LBE26:
 563:Lib/AI_Runtime/Npu/ll_aton/ll_sw_float.c ****   }
 564:Lib/AI_Runtime/Npu/ll_aton/ll_sw_float.c ****   break;
 4399              		.loc 1 564 3
 4400 11f8 00F031BC 		b	.L94
 4401              	.L80:
ARM GAS  /tmp/ccEo7NLA.s 			page 94


 4402              	.LBB27:
 565:Lib/AI_Runtime/Npu/ll_aton/ll_sw_float.c ****   case LL_SW_TANH:
 566:Lib/AI_Runtime/Npu/ll_aton/ll_sw_float.c ****   {
 567:Lib/AI_Runtime/Npu/ll_aton/ll_sw_float.c ****     AI_LAYER_OBJ_DECLARE(nonlinearity_layer, 2, NL_TYPE, 0x0, NULL, nl, forward_tanh, &activ_chain,
 4403              		.loc 1 567 5
 4404 11fc 07F50473 		add	r3, r7, #528
 4405 1200 A3F5F473 		sub	r3, r3, #488
 4406 1204 40F20712 		movw	r2, #263
 4407 1208 1A80     		strh	r2, [r3]	@ movhi
 4408 120a 07F50473 		add	r3, r7, #528
 4409 120e A3F5F473 		sub	r3, r3, #488
 4410 1212 0222     		movs	r2, #2
 4411 1214 5A80     		strh	r2, [r3, #2]	@ movhi
 4412 1216 07F50473 		add	r3, r7, #528
 4413 121a A3F5F473 		sub	r3, r3, #488
 4414 121e 0022     		movs	r2, #0
 4415 1220 5A60     		str	r2, [r3, #4]
 4416 1222 07F50473 		add	r3, r7, #528
 4417 1226 A3F5F473 		sub	r3, r3, #488
 4418 122a 0022     		movs	r2, #0
 4419 122c 9A60     		str	r2, [r3, #8]
 4420 122e 07F50473 		add	r3, r7, #528
 4421 1232 A3F5F473 		sub	r3, r3, #488
 4422 1236 0022     		movs	r2, #0
 4423 1238 DA60     		str	r2, [r3, #12]
 4424 123a 07F50473 		add	r3, r7, #528
 4425 123e A3F5F473 		sub	r3, r3, #488
 4426 1242 0022     		movs	r2, #0
 4427 1244 1A61     		str	r2, [r3, #16]
 4428 1246 07F50473 		add	r3, r7, #528
 4429 124a A3F5F473 		sub	r3, r3, #488
 4430 124e 124A     		ldr	r2, .L106+24
 4431 1250 5A61     		str	r2, [r3, #20]
 4432 1252 07F50473 		add	r3, r7, #528
 4433 1256 A3F5F473 		sub	r3, r3, #488
 4434 125a 07F5B672 		add	r2, r7, #364
 4435 125e 9A61     		str	r2, [r3, #24]
 4436 1260 07F50473 		add	r3, r7, #528
 4437 1264 A3F5F473 		sub	r3, r3, #488
 4438 1268 0022     		movs	r2, #0
 4439 126a DA61     		str	r2, [r3, #28]
 568:Lib/AI_Runtime/Npu/ll_aton/ll_sw_float.c ****                          .nl_params = NULL, )
 569:Lib/AI_Runtime/Npu/ll_aton/ll_sw_float.c ****     nonlinearity_layer.forward(AI_LAYER_OBJ(&nonlinearity_layer));
 4440              		.loc 1 569 23
 4441 126c 07F50473 		add	r3, r7, #528
 4442 1270 A3F5F473 		sub	r3, r3, #488
 4443 1274 5B69     		ldr	r3, [r3, #20]
 4444              		.loc 1 569 5
 4445 1276 07F12802 		add	r2, r7, #40
 4446 127a 1046     		mov	r0, r2
 4447 127c 9847     		blx	r3
 4448              	.LVL27:
 4449              	.LBE27:
 570:Lib/AI_Runtime/Npu/ll_aton/ll_sw_float.c ****   }
 571:Lib/AI_Runtime/Npu/ll_aton/ll_sw_float.c ****   break;
 4450              		.loc 1 571 3
 4451 127e EEE3     		b	.L94
ARM GAS  /tmp/ccEo7NLA.s 			page 95


 4452              	.L107:
 4453              		.align	2
 4454              	.L106:
 4455 1280 00000000 		.word	forward_atan
 4456 1284 00000000 		.word	forward_atanh
 4457 1288 00000000 		.word	forward_cos
 4458 128c 00000000 		.word	forward_cosh
 4459 1290 00000000 		.word	forward_sin
 4460 1294 00000000 		.word	forward_sinh
 4461 1298 00000000 		.word	forward_tanh
 4462              	.L81:
 4463              	.LBB28:
 572:Lib/AI_Runtime/Npu/ll_aton/ll_sw_float.c ****   case LL_SW_TAN:
 573:Lib/AI_Runtime/Npu/ll_aton/ll_sw_float.c ****   {
 574:Lib/AI_Runtime/Npu/ll_aton/ll_sw_float.c ****     AI_LAYER_OBJ_DECLARE(nonlinearity_layer, 2, NL_TYPE, 0x0, NULL, nl, forward_tan, &activ_chain, 
 4464              		.loc 1 574 5
 4465 129c 07F50473 		add	r3, r7, #528
 4466 12a0 A3F5F473 		sub	r3, r3, #488
 4467 12a4 40F20712 		movw	r2, #263
 4468 12a8 1A80     		strh	r2, [r3]	@ movhi
 4469 12aa 07F50473 		add	r3, r7, #528
 4470 12ae A3F5F473 		sub	r3, r3, #488
 4471 12b2 0222     		movs	r2, #2
 4472 12b4 5A80     		strh	r2, [r3, #2]	@ movhi
 4473 12b6 07F50473 		add	r3, r7, #528
 4474 12ba A3F5F473 		sub	r3, r3, #488
 4475 12be 0022     		movs	r2, #0
 4476 12c0 5A60     		str	r2, [r3, #4]
 4477 12c2 07F50473 		add	r3, r7, #528
 4478 12c6 A3F5F473 		sub	r3, r3, #488
 4479 12ca 0022     		movs	r2, #0
 4480 12cc 9A60     		str	r2, [r3, #8]
 4481 12ce 07F50473 		add	r3, r7, #528
 4482 12d2 A3F5F473 		sub	r3, r3, #488
 4483 12d6 0022     		movs	r2, #0
 4484 12d8 DA60     		str	r2, [r3, #12]
 4485 12da 07F50473 		add	r3, r7, #528
 4486 12de A3F5F473 		sub	r3, r3, #488
 4487 12e2 0022     		movs	r2, #0
 4488 12e4 1A61     		str	r2, [r3, #16]
 4489 12e6 07F50473 		add	r3, r7, #528
 4490 12ea A3F5F473 		sub	r3, r3, #488
 4491 12ee B14A     		ldr	r2, .L108
 4492 12f0 5A61     		str	r2, [r3, #20]
 4493 12f2 07F50473 		add	r3, r7, #528
 4494 12f6 A3F5F473 		sub	r3, r3, #488
 4495 12fa 07F5B672 		add	r2, r7, #364
 4496 12fe 9A61     		str	r2, [r3, #24]
 4497 1300 07F50473 		add	r3, r7, #528
 4498 1304 A3F5F473 		sub	r3, r3, #488
 4499 1308 0022     		movs	r2, #0
 4500 130a DA61     		str	r2, [r3, #28]
 575:Lib/AI_Runtime/Npu/ll_aton/ll_sw_float.c ****                          .nl_params = NULL, )
 576:Lib/AI_Runtime/Npu/ll_aton/ll_sw_float.c ****     nonlinearity_layer.forward(AI_LAYER_OBJ(&nonlinearity_layer));
 4501              		.loc 1 576 23
 4502 130c 07F50473 		add	r3, r7, #528
 4503 1310 A3F5F473 		sub	r3, r3, #488
ARM GAS  /tmp/ccEo7NLA.s 			page 96


 4504 1314 5B69     		ldr	r3, [r3, #20]
 4505              		.loc 1 576 5
 4506 1316 07F12802 		add	r2, r7, #40
 4507 131a 1046     		mov	r0, r2
 4508 131c 9847     		blx	r3
 4509              	.LVL28:
 4510              	.LBE28:
 577:Lib/AI_Runtime/Npu/ll_aton/ll_sw_float.c ****   }
 578:Lib/AI_Runtime/Npu/ll_aton/ll_sw_float.c ****   break;
 4511              		.loc 1 578 3
 4512 131e 9EE3     		b	.L94
 4513              	.L88:
 4514              	.LBB29:
 579:Lib/AI_Runtime/Npu/ll_aton/ll_sw_float.c ****   case LL_SW_SIGMOID:
 580:Lib/AI_Runtime/Npu/ll_aton/ll_sw_float.c ****   {
 581:Lib/AI_Runtime/Npu/ll_aton/ll_sw_float.c ****     AI_LAYER_OBJ_DECLARE(nonlinearity_layer, 2, NL_TYPE, 0x0, NULL, nl, forward_sigmoid, &activ_cha
 4515              		.loc 1 581 5
 4516 1320 07F50473 		add	r3, r7, #528
 4517 1324 A3F5F473 		sub	r3, r3, #488
 4518 1328 40F20712 		movw	r2, #263
 4519 132c 1A80     		strh	r2, [r3]	@ movhi
 4520 132e 07F50473 		add	r3, r7, #528
 4521 1332 A3F5F473 		sub	r3, r3, #488
 4522 1336 0222     		movs	r2, #2
 4523 1338 5A80     		strh	r2, [r3, #2]	@ movhi
 4524 133a 07F50473 		add	r3, r7, #528
 4525 133e A3F5F473 		sub	r3, r3, #488
 4526 1342 0022     		movs	r2, #0
 4527 1344 5A60     		str	r2, [r3, #4]
 4528 1346 07F50473 		add	r3, r7, #528
 4529 134a A3F5F473 		sub	r3, r3, #488
 4530 134e 0022     		movs	r2, #0
 4531 1350 9A60     		str	r2, [r3, #8]
 4532 1352 07F50473 		add	r3, r7, #528
 4533 1356 A3F5F473 		sub	r3, r3, #488
 4534 135a 0022     		movs	r2, #0
 4535 135c DA60     		str	r2, [r3, #12]
 4536 135e 07F50473 		add	r3, r7, #528
 4537 1362 A3F5F473 		sub	r3, r3, #488
 4538 1366 0022     		movs	r2, #0
 4539 1368 1A61     		str	r2, [r3, #16]
 4540 136a 07F50473 		add	r3, r7, #528
 4541 136e A3F5F473 		sub	r3, r3, #488
 4542 1372 914A     		ldr	r2, .L108+4
 4543 1374 5A61     		str	r2, [r3, #20]
 4544 1376 07F50473 		add	r3, r7, #528
 4545 137a A3F5F473 		sub	r3, r3, #488
 4546 137e 07F5B672 		add	r2, r7, #364
 4547 1382 9A61     		str	r2, [r3, #24]
 4548 1384 07F50473 		add	r3, r7, #528
 4549 1388 A3F5F473 		sub	r3, r3, #488
 4550 138c 0022     		movs	r2, #0
 4551 138e DA61     		str	r2, [r3, #28]
 582:Lib/AI_Runtime/Npu/ll_aton/ll_sw_float.c ****                          .nl_params = NULL, )
 583:Lib/AI_Runtime/Npu/ll_aton/ll_sw_float.c ****     nonlinearity_layer.forward(AI_LAYER_OBJ(&nonlinearity_layer));
 4552              		.loc 1 583 23
 4553 1390 07F50473 		add	r3, r7, #528
ARM GAS  /tmp/ccEo7NLA.s 			page 97


 4554 1394 A3F5F473 		sub	r3, r3, #488
 4555 1398 5B69     		ldr	r3, [r3, #20]
 4556              		.loc 1 583 5
 4557 139a 07F12802 		add	r2, r7, #40
 4558 139e 1046     		mov	r0, r2
 4559 13a0 9847     		blx	r3
 4560              	.LVL29:
 4561              	.LBE29:
 584:Lib/AI_Runtime/Npu/ll_aton/ll_sw_float.c ****   }
 585:Lib/AI_Runtime/Npu/ll_aton/ll_sw_float.c ****   break;
 4562              		.loc 1 585 3
 4563 13a2 5CE3     		b	.L94
 4564              	.L75:
 4565              	.LBB30:
 586:Lib/AI_Runtime/Npu/ll_aton/ll_sw_float.c ****   case LL_SW_SQRT:
 587:Lib/AI_Runtime/Npu/ll_aton/ll_sw_float.c ****   {
 588:Lib/AI_Runtime/Npu/ll_aton/ll_sw_float.c ****     AI_LAYER_OBJ_DECLARE(nonlinearity_layer, 2, NL_TYPE, 0x0, NULL, nl, forward_sqrt, &activ_chain,
 4566              		.loc 1 588 5
 4567 13a4 07F50473 		add	r3, r7, #528
 4568 13a8 A3F5F473 		sub	r3, r3, #488
 4569 13ac 40F20712 		movw	r2, #263
 4570 13b0 1A80     		strh	r2, [r3]	@ movhi
 4571 13b2 07F50473 		add	r3, r7, #528
 4572 13b6 A3F5F473 		sub	r3, r3, #488
 4573 13ba 0222     		movs	r2, #2
 4574 13bc 5A80     		strh	r2, [r3, #2]	@ movhi
 4575 13be 07F50473 		add	r3, r7, #528
 4576 13c2 A3F5F473 		sub	r3, r3, #488
 4577 13c6 0022     		movs	r2, #0
 4578 13c8 5A60     		str	r2, [r3, #4]
 4579 13ca 07F50473 		add	r3, r7, #528
 4580 13ce A3F5F473 		sub	r3, r3, #488
 4581 13d2 0022     		movs	r2, #0
 4582 13d4 9A60     		str	r2, [r3, #8]
 4583 13d6 07F50473 		add	r3, r7, #528
 4584 13da A3F5F473 		sub	r3, r3, #488
 4585 13de 0022     		movs	r2, #0
 4586 13e0 DA60     		str	r2, [r3, #12]
 4587 13e2 07F50473 		add	r3, r7, #528
 4588 13e6 A3F5F473 		sub	r3, r3, #488
 4589 13ea 0022     		movs	r2, #0
 4590 13ec 1A61     		str	r2, [r3, #16]
 4591 13ee 07F50473 		add	r3, r7, #528
 4592 13f2 A3F5F473 		sub	r3, r3, #488
 4593 13f6 714A     		ldr	r2, .L108+8
 4594 13f8 5A61     		str	r2, [r3, #20]
 4595 13fa 07F50473 		add	r3, r7, #528
 4596 13fe A3F5F473 		sub	r3, r3, #488
 4597 1402 07F5B672 		add	r2, r7, #364
 4598 1406 9A61     		str	r2, [r3, #24]
 4599 1408 07F50473 		add	r3, r7, #528
 4600 140c A3F5F473 		sub	r3, r3, #488
 4601 1410 0022     		movs	r2, #0
 4602 1412 DA61     		str	r2, [r3, #28]
 589:Lib/AI_Runtime/Npu/ll_aton/ll_sw_float.c ****                          .nl_params = NULL, )
 590:Lib/AI_Runtime/Npu/ll_aton/ll_sw_float.c ****     nonlinearity_layer.forward(AI_LAYER_OBJ(&nonlinearity_layer));
 4603              		.loc 1 590 23
ARM GAS  /tmp/ccEo7NLA.s 			page 98


 4604 1414 07F50473 		add	r3, r7, #528
 4605 1418 A3F5F473 		sub	r3, r3, #488
 4606 141c 5B69     		ldr	r3, [r3, #20]
 4607              		.loc 1 590 5
 4608 141e 07F12802 		add	r2, r7, #40
 4609 1422 1046     		mov	r0, r2
 4610 1424 9847     		blx	r3
 4611              	.LVL30:
 4612              	.LBE30:
 591:Lib/AI_Runtime/Npu/ll_aton/ll_sw_float.c ****   }
 592:Lib/AI_Runtime/Npu/ll_aton/ll_sw_float.c ****   break;
 4613              		.loc 1 592 3
 4614 1426 1AE3     		b	.L94
 4615              	.L70:
 4616              	.LBB31:
 593:Lib/AI_Runtime/Npu/ll_aton/ll_sw_float.c ****   case LL_SW_ERF:
 594:Lib/AI_Runtime/Npu/ll_aton/ll_sw_float.c ****   {
 595:Lib/AI_Runtime/Npu/ll_aton/ll_sw_float.c ****     AI_LAYER_OBJ_DECLARE(nonlinearity_layer, 2, NL_TYPE, 0x0, NULL, nl, forward_erf, &activ_chain, 
 4617              		.loc 1 595 5
 4618 1428 07F50473 		add	r3, r7, #528
 4619 142c A3F5F473 		sub	r3, r3, #488
 4620 1430 40F20712 		movw	r2, #263
 4621 1434 1A80     		strh	r2, [r3]	@ movhi
 4622 1436 07F50473 		add	r3, r7, #528
 4623 143a A3F5F473 		sub	r3, r3, #488
 4624 143e 0222     		movs	r2, #2
 4625 1440 5A80     		strh	r2, [r3, #2]	@ movhi
 4626 1442 07F50473 		add	r3, r7, #528
 4627 1446 A3F5F473 		sub	r3, r3, #488
 4628 144a 0022     		movs	r2, #0
 4629 144c 5A60     		str	r2, [r3, #4]
 4630 144e 07F50473 		add	r3, r7, #528
 4631 1452 A3F5F473 		sub	r3, r3, #488
 4632 1456 0022     		movs	r2, #0
 4633 1458 9A60     		str	r2, [r3, #8]
 4634 145a 07F50473 		add	r3, r7, #528
 4635 145e A3F5F473 		sub	r3, r3, #488
 4636 1462 0022     		movs	r2, #0
 4637 1464 DA60     		str	r2, [r3, #12]
 4638 1466 07F50473 		add	r3, r7, #528
 4639 146a A3F5F473 		sub	r3, r3, #488
 4640 146e 0022     		movs	r2, #0
 4641 1470 1A61     		str	r2, [r3, #16]
 4642 1472 07F50473 		add	r3, r7, #528
 4643 1476 A3F5F473 		sub	r3, r3, #488
 4644 147a 514A     		ldr	r2, .L108+12
 4645 147c 5A61     		str	r2, [r3, #20]
 4646 147e 07F50473 		add	r3, r7, #528
 4647 1482 A3F5F473 		sub	r3, r3, #488
 4648 1486 07F5B672 		add	r2, r7, #364
 4649 148a 9A61     		str	r2, [r3, #24]
 4650 148c 07F50473 		add	r3, r7, #528
 4651 1490 A3F5F473 		sub	r3, r3, #488
 4652 1494 0022     		movs	r2, #0
 4653 1496 DA61     		str	r2, [r3, #28]
 596:Lib/AI_Runtime/Npu/ll_aton/ll_sw_float.c ****                          .nl_params = NULL, )
 597:Lib/AI_Runtime/Npu/ll_aton/ll_sw_float.c ****     nonlinearity_layer.forward(AI_LAYER_OBJ(&nonlinearity_layer));
ARM GAS  /tmp/ccEo7NLA.s 			page 99


 4654              		.loc 1 597 23
 4655 1498 07F50473 		add	r3, r7, #528
 4656 149c A3F5F473 		sub	r3, r3, #488
 4657 14a0 5B69     		ldr	r3, [r3, #20]
 4658              		.loc 1 597 5
 4659 14a2 07F12802 		add	r2, r7, #40
 4660 14a6 1046     		mov	r0, r2
 4661 14a8 9847     		blx	r3
 4662              	.LVL31:
 4663              	.LBE31:
 598:Lib/AI_Runtime/Npu/ll_aton/ll_sw_float.c ****   }
 599:Lib/AI_Runtime/Npu/ll_aton/ll_sw_float.c ****   break;
 4664              		.loc 1 599 3
 4665 14aa D8E2     		b	.L94
 4666              	.L62:
 4667              	.LBB32:
 600:Lib/AI_Runtime/Npu/ll_aton/ll_sw_float.c ****   case LL_SW_SOFTPLUS:
 601:Lib/AI_Runtime/Npu/ll_aton/ll_sw_float.c ****   {
 602:Lib/AI_Runtime/Npu/ll_aton/ll_sw_float.c ****     AI_LAYER_OBJ_DECLARE(nonlinearity_layer, 2, NL_TYPE, 0x0, NULL, nl, forward_soft_plus, &activ_c
 4668              		.loc 1 602 5
 4669 14ac 07F50473 		add	r3, r7, #528
 4670 14b0 A3F5F473 		sub	r3, r3, #488
 4671 14b4 40F20712 		movw	r2, #263
 4672 14b8 1A80     		strh	r2, [r3]	@ movhi
 4673 14ba 07F50473 		add	r3, r7, #528
 4674 14be A3F5F473 		sub	r3, r3, #488
 4675 14c2 0222     		movs	r2, #2
 4676 14c4 5A80     		strh	r2, [r3, #2]	@ movhi
 4677 14c6 07F50473 		add	r3, r7, #528
 4678 14ca A3F5F473 		sub	r3, r3, #488
 4679 14ce 0022     		movs	r2, #0
 4680 14d0 5A60     		str	r2, [r3, #4]
 4681 14d2 07F50473 		add	r3, r7, #528
 4682 14d6 A3F5F473 		sub	r3, r3, #488
 4683 14da 0022     		movs	r2, #0
 4684 14dc 9A60     		str	r2, [r3, #8]
 4685 14de 07F50473 		add	r3, r7, #528
 4686 14e2 A3F5F473 		sub	r3, r3, #488
 4687 14e6 0022     		movs	r2, #0
 4688 14e8 DA60     		str	r2, [r3, #12]
 4689 14ea 07F50473 		add	r3, r7, #528
 4690 14ee A3F5F473 		sub	r3, r3, #488
 4691 14f2 0022     		movs	r2, #0
 4692 14f4 1A61     		str	r2, [r3, #16]
 4693 14f6 07F50473 		add	r3, r7, #528
 4694 14fa A3F5F473 		sub	r3, r3, #488
 4695 14fe 314A     		ldr	r2, .L108+16
 4696 1500 5A61     		str	r2, [r3, #20]
 4697 1502 07F50473 		add	r3, r7, #528
 4698 1506 A3F5F473 		sub	r3, r3, #488
 4699 150a 07F5B672 		add	r2, r7, #364
 4700 150e 9A61     		str	r2, [r3, #24]
 4701 1510 07F50473 		add	r3, r7, #528
 4702 1514 A3F5F473 		sub	r3, r3, #488
 4703 1518 0022     		movs	r2, #0
 4704 151a DA61     		str	r2, [r3, #28]
 603:Lib/AI_Runtime/Npu/ll_aton/ll_sw_float.c ****                          .nl_params = NULL, )
ARM GAS  /tmp/ccEo7NLA.s 			page 100


 604:Lib/AI_Runtime/Npu/ll_aton/ll_sw_float.c ****     nonlinearity_layer.forward(AI_LAYER_OBJ(&nonlinearity_layer));
 4705              		.loc 1 604 23
 4706 151c 07F50473 		add	r3, r7, #528
 4707 1520 A3F5F473 		sub	r3, r3, #488
 4708 1524 5B69     		ldr	r3, [r3, #20]
 4709              		.loc 1 604 5
 4710 1526 07F12802 		add	r2, r7, #40
 4711 152a 1046     		mov	r0, r2
 4712 152c 9847     		blx	r3
 4713              	.LVL32:
 4714              	.LBE32:
 605:Lib/AI_Runtime/Npu/ll_aton/ll_sw_float.c ****   }
 606:Lib/AI_Runtime/Npu/ll_aton/ll_sw_float.c ****   break;
 4715              		.loc 1 606 3
 4716 152e 96E2     		b	.L94
 4717              	.L63:
 4718              	.LBB33:
 607:Lib/AI_Runtime/Npu/ll_aton/ll_sw_float.c ****   case LL_SW_SOFTSIGN:
 608:Lib/AI_Runtime/Npu/ll_aton/ll_sw_float.c ****   {
 609:Lib/AI_Runtime/Npu/ll_aton/ll_sw_float.c ****     AI_LAYER_OBJ_DECLARE(nonlinearity_layer, 2, NL_TYPE, 0x0, NULL, nl, forward_soft_sign, &activ_c
 4719              		.loc 1 609 5
 4720 1530 07F50473 		add	r3, r7, #528
 4721 1534 A3F5F473 		sub	r3, r3, #488
 4722 1538 40F20712 		movw	r2, #263
 4723 153c 1A80     		strh	r2, [r3]	@ movhi
 4724 153e 07F50473 		add	r3, r7, #528
 4725 1542 A3F5F473 		sub	r3, r3, #488
 4726 1546 0222     		movs	r2, #2
 4727 1548 5A80     		strh	r2, [r3, #2]	@ movhi
 4728 154a 07F50473 		add	r3, r7, #528
 4729 154e A3F5F473 		sub	r3, r3, #488
 4730 1552 0022     		movs	r2, #0
 4731 1554 5A60     		str	r2, [r3, #4]
 4732 1556 07F50473 		add	r3, r7, #528
 4733 155a A3F5F473 		sub	r3, r3, #488
 4734 155e 0022     		movs	r2, #0
 4735 1560 9A60     		str	r2, [r3, #8]
 4736 1562 07F50473 		add	r3, r7, #528
 4737 1566 A3F5F473 		sub	r3, r3, #488
 4738 156a 0022     		movs	r2, #0
 4739 156c DA60     		str	r2, [r3, #12]
 4740 156e 07F50473 		add	r3, r7, #528
 4741 1572 A3F5F473 		sub	r3, r3, #488
 4742 1576 0022     		movs	r2, #0
 4743 1578 1A61     		str	r2, [r3, #16]
 4744 157a 07F50473 		add	r3, r7, #528
 4745 157e A3F5F473 		sub	r3, r3, #488
 4746 1582 114A     		ldr	r2, .L108+20
 4747 1584 5A61     		str	r2, [r3, #20]
 4748 1586 07F50473 		add	r3, r7, #528
 4749 158a A3F5F473 		sub	r3, r3, #488
 4750 158e 07F5B672 		add	r2, r7, #364
 4751 1592 9A61     		str	r2, [r3, #24]
 4752 1594 07F50473 		add	r3, r7, #528
 4753 1598 A3F5F473 		sub	r3, r3, #488
 4754 159c 0022     		movs	r2, #0
 4755 159e DA61     		str	r2, [r3, #28]
ARM GAS  /tmp/ccEo7NLA.s 			page 101


 610:Lib/AI_Runtime/Npu/ll_aton/ll_sw_float.c ****                          .nl_params = NULL, )
 611:Lib/AI_Runtime/Npu/ll_aton/ll_sw_float.c ****     nonlinearity_layer.forward(AI_LAYER_OBJ(&nonlinearity_layer));
 4756              		.loc 1 611 23
 4757 15a0 07F50473 		add	r3, r7, #528
 4758 15a4 A3F5F473 		sub	r3, r3, #488
 4759 15a8 5B69     		ldr	r3, [r3, #20]
 4760              		.loc 1 611 5
 4761 15aa 07F12802 		add	r2, r7, #40
 4762 15ae 1046     		mov	r0, r2
 4763 15b0 9847     		blx	r3
 4764              	.LVL33:
 4765              	.LBE33:
 612:Lib/AI_Runtime/Npu/ll_aton/ll_sw_float.c ****   }
 613:Lib/AI_Runtime/Npu/ll_aton/ll_sw_float.c ****   break;
 4766              		.loc 1 613 3
 4767 15b2 54E2     		b	.L94
 4768              	.L109:
 4769              		.align	2
 4770              	.L108:
 4771 15b4 00000000 		.word	forward_tan
 4772 15b8 00000000 		.word	forward_sigmoid
 4773 15bc 00000000 		.word	forward_sqrt
 4774 15c0 00000000 		.word	forward_erf
 4775 15c4 00000000 		.word	forward_soft_plus
 4776 15c8 00000000 		.word	forward_soft_sign
 4777              	.L68:
 4778              	.LBB34:
 614:Lib/AI_Runtime/Npu/ll_aton/ll_sw_float.c ****   case LL_SW_HARDSIGMOID:
 615:Lib/AI_Runtime/Npu/ll_aton/ll_sw_float.c ****   {
 616:Lib/AI_Runtime/Npu/ll_aton/ll_sw_float.c ****     AI_ARRAY_OBJ_DECLARE_STATIC(hard_sigmoid_layer_params, ai_float, AI_ARRAY_FORMAT_FLOAT, AI_CONS
 4779              		.loc 1 616 5
 4780 15cc 07F50473 		add	r3, r7, #528
 4781 15d0 A3F5D873 		sub	r3, r3, #432
 4782 15d4 B84A     		ldr	r2, .L110
 4783 15d6 1A60     		str	r2, [r3]
 4784 15d8 07F50473 		add	r3, r7, #528
 4785 15dc A3F5D873 		sub	r3, r3, #432
 4786 15e0 0222     		movs	r2, #2
 4787 15e2 5A60     		str	r2, [r3, #4]
 4788 15e4 D7F80C32 		ldr	r3, [r7, #524]
 4789 15e8 D3F88820 		ldr	r2, [r3, #136]	@ float
 4790 15ec 07F50473 		add	r3, r7, #528
 4791 15f0 A3F5DC73 		sub	r3, r3, #440
 4792 15f4 1A60     		str	r2, [r3]	@ float
 4793 15f6 D7F80C32 		ldr	r3, [r7, #524]
 4794 15fa D3F88C20 		ldr	r2, [r3, #140]	@ float
 4795 15fe 07F50473 		add	r3, r7, #528
 4796 1602 A3F5DC73 		sub	r3, r3, #440
 4797 1606 5A60     		str	r2, [r3, #4]	@ float
 4798 1608 07F50473 		add	r3, r7, #528
 4799 160c A3F5D873 		sub	r3, r3, #432
 4800 1610 07F15802 		add	r2, r7, #88
 4801 1614 9A60     		str	r2, [r3, #8]
 4802 1616 07F50473 		add	r3, r7, #528
 4803 161a A3F5D873 		sub	r3, r3, #432
 4804 161e 0022     		movs	r2, #0
 4805 1620 DA60     		str	r2, [r3, #12]
ARM GAS  /tmp/ccEo7NLA.s 			page 102


 617:Lib/AI_Runtime/Npu/ll_aton/ll_sw_float.c ****                                 sw_info->beta)
 618:Lib/AI_Runtime/Npu/ll_aton/ll_sw_float.c ****     AI_LAYER_OBJ_DECLARE(nonlinearity_layer, 2, NL_TYPE, 0x0, NULL, nl, forward_hard_sigmoid, &acti
 4806              		.loc 1 618 5
 4807 1622 07F50473 		add	r3, r7, #528
 4808 1626 A3F5F473 		sub	r3, r3, #488
 4809 162a 40F20712 		movw	r2, #263
 4810 162e 1A80     		strh	r2, [r3]	@ movhi
 4811 1630 07F50473 		add	r3, r7, #528
 4812 1634 A3F5F473 		sub	r3, r3, #488
 4813 1638 0222     		movs	r2, #2
 4814 163a 5A80     		strh	r2, [r3, #2]	@ movhi
 4815 163c 07F50473 		add	r3, r7, #528
 4816 1640 A3F5F473 		sub	r3, r3, #488
 4817 1644 0022     		movs	r2, #0
 4818 1646 5A60     		str	r2, [r3, #4]
 4819 1648 07F50473 		add	r3, r7, #528
 4820 164c A3F5F473 		sub	r3, r3, #488
 4821 1650 0022     		movs	r2, #0
 4822 1652 9A60     		str	r2, [r3, #8]
 4823 1654 07F50473 		add	r3, r7, #528
 4824 1658 A3F5F473 		sub	r3, r3, #488
 4825 165c 0022     		movs	r2, #0
 4826 165e DA60     		str	r2, [r3, #12]
 4827 1660 07F50473 		add	r3, r7, #528
 4828 1664 A3F5F473 		sub	r3, r3, #488
 4829 1668 0022     		movs	r2, #0
 4830 166a 1A61     		str	r2, [r3, #16]
 4831 166c 07F50473 		add	r3, r7, #528
 4832 1670 A3F5F473 		sub	r3, r3, #488
 4833 1674 914A     		ldr	r2, .L110+4
 4834 1676 5A61     		str	r2, [r3, #20]
 4835 1678 07F50473 		add	r3, r7, #528
 4836 167c A3F5F473 		sub	r3, r3, #488
 4837 1680 07F5B672 		add	r2, r7, #364
 4838 1684 9A61     		str	r2, [r3, #24]
 4839 1686 07F50473 		add	r3, r7, #528
 4840 168a A3F5F473 		sub	r3, r3, #488
 4841 168e 07F16002 		add	r2, r7, #96
 4842 1692 DA61     		str	r2, [r3, #28]
 619:Lib/AI_Runtime/Npu/ll_aton/ll_sw_float.c ****                          , .nl_params = AI_ARRAY_OBJ(&hard_sigmoid_layer_params), )
 620:Lib/AI_Runtime/Npu/ll_aton/ll_sw_float.c ****     nonlinearity_layer.forward(AI_LAYER_OBJ(&nonlinearity_layer));
 4843              		.loc 1 620 23
 4844 1694 07F50473 		add	r3, r7, #528
 4845 1698 A3F5F473 		sub	r3, r3, #488
 4846 169c 5B69     		ldr	r3, [r3, #20]
 4847              		.loc 1 620 5
 4848 169e 07F12802 		add	r2, r7, #40
 4849 16a2 1046     		mov	r0, r2
 4850 16a4 9847     		blx	r3
 4851              	.LVL34:
 4852              	.LBE34:
 621:Lib/AI_Runtime/Npu/ll_aton/ll_sw_float.c ****   }
 622:Lib/AI_Runtime/Npu/ll_aton/ll_sw_float.c ****   break;
 4853              		.loc 1 622 3
 4854 16a6 DAE1     		b	.L94
 4855              	.L65:
 4856              	.LBB35:
ARM GAS  /tmp/ccEo7NLA.s 			page 103


 623:Lib/AI_Runtime/Npu/ll_aton/ll_sw_float.c ****   case LL_SW_SWISH:
 624:Lib/AI_Runtime/Npu/ll_aton/ll_sw_float.c ****   {
 625:Lib/AI_Runtime/Npu/ll_aton/ll_sw_float.c ****     AI_LAYER_OBJ_DECLARE(nonlinearity_layer, 2, NL_TYPE, 0x0, NULL, nl, forward_swish, &activ_chain
 4857              		.loc 1 625 5
 4858 16a8 07F50473 		add	r3, r7, #528
 4859 16ac A3F5F473 		sub	r3, r3, #488
 4860 16b0 40F20712 		movw	r2, #263
 4861 16b4 1A80     		strh	r2, [r3]	@ movhi
 4862 16b6 07F50473 		add	r3, r7, #528
 4863 16ba A3F5F473 		sub	r3, r3, #488
 4864 16be 0222     		movs	r2, #2
 4865 16c0 5A80     		strh	r2, [r3, #2]	@ movhi
 4866 16c2 07F50473 		add	r3, r7, #528
 4867 16c6 A3F5F473 		sub	r3, r3, #488
 4868 16ca 0022     		movs	r2, #0
 4869 16cc 5A60     		str	r2, [r3, #4]
 4870 16ce 07F50473 		add	r3, r7, #528
 4871 16d2 A3F5F473 		sub	r3, r3, #488
 4872 16d6 0022     		movs	r2, #0
 4873 16d8 9A60     		str	r2, [r3, #8]
 4874 16da 07F50473 		add	r3, r7, #528
 4875 16de A3F5F473 		sub	r3, r3, #488
 4876 16e2 0022     		movs	r2, #0
 4877 16e4 DA60     		str	r2, [r3, #12]
 4878 16e6 07F50473 		add	r3, r7, #528
 4879 16ea A3F5F473 		sub	r3, r3, #488
 4880 16ee 0022     		movs	r2, #0
 4881 16f0 1A61     		str	r2, [r3, #16]
 4882 16f2 07F50473 		add	r3, r7, #528
 4883 16f6 A3F5F473 		sub	r3, r3, #488
 4884 16fa 714A     		ldr	r2, .L110+8
 4885 16fc 5A61     		str	r2, [r3, #20]
 4886 16fe 07F50473 		add	r3, r7, #528
 4887 1702 A3F5F473 		sub	r3, r3, #488
 4888 1706 07F5B672 		add	r2, r7, #364
 4889 170a 9A61     		str	r2, [r3, #24]
 4890 170c 07F50473 		add	r3, r7, #528
 4891 1710 A3F5F473 		sub	r3, r3, #488
 4892 1714 0022     		movs	r2, #0
 4893 1716 DA61     		str	r2, [r3, #28]
 626:Lib/AI_Runtime/Npu/ll_aton/ll_sw_float.c ****                          .nl_params = NULL, )
 627:Lib/AI_Runtime/Npu/ll_aton/ll_sw_float.c ****     nonlinearity_layer.forward(AI_LAYER_OBJ(&nonlinearity_layer));
 4894              		.loc 1 627 23
 4895 1718 07F50473 		add	r3, r7, #528
 4896 171c A3F5F473 		sub	r3, r3, #488
 4897 1720 5B69     		ldr	r3, [r3, #20]
 4898              		.loc 1 627 5
 4899 1722 07F12802 		add	r2, r7, #40
 4900 1726 1046     		mov	r0, r2
 4901 1728 9847     		blx	r3
 4902              	.LVL35:
 4903              	.LBE35:
 628:Lib/AI_Runtime/Npu/ll_aton/ll_sw_float.c ****   }
 629:Lib/AI_Runtime/Npu/ll_aton/ll_sw_float.c ****   break;
 4904              		.loc 1 629 3
 4905 172a 98E1     		b	.L94
 4906              	.L66:
ARM GAS  /tmp/ccEo7NLA.s 			page 104


 4907              	.LBB36:
 630:Lib/AI_Runtime/Npu/ll_aton/ll_sw_float.c ****   case LL_SW_HARDSWISH:
 631:Lib/AI_Runtime/Npu/ll_aton/ll_sw_float.c ****   {
 632:Lib/AI_Runtime/Npu/ll_aton/ll_sw_float.c ****     AI_LAYER_OBJ_DECLARE(nonlinearity_layer, 2, NL_TYPE, 0x0, NULL, nl, forward_hard_swish, &activ_
 4908              		.loc 1 632 5
 4909 172c 07F50473 		add	r3, r7, #528
 4910 1730 A3F5F473 		sub	r3, r3, #488
 4911 1734 40F20712 		movw	r2, #263
 4912 1738 1A80     		strh	r2, [r3]	@ movhi
 4913 173a 07F50473 		add	r3, r7, #528
 4914 173e A3F5F473 		sub	r3, r3, #488
 4915 1742 0222     		movs	r2, #2
 4916 1744 5A80     		strh	r2, [r3, #2]	@ movhi
 4917 1746 07F50473 		add	r3, r7, #528
 4918 174a A3F5F473 		sub	r3, r3, #488
 4919 174e 0022     		movs	r2, #0
 4920 1750 5A60     		str	r2, [r3, #4]
 4921 1752 07F50473 		add	r3, r7, #528
 4922 1756 A3F5F473 		sub	r3, r3, #488
 4923 175a 0022     		movs	r2, #0
 4924 175c 9A60     		str	r2, [r3, #8]
 4925 175e 07F50473 		add	r3, r7, #528
 4926 1762 A3F5F473 		sub	r3, r3, #488
 4927 1766 0022     		movs	r2, #0
 4928 1768 DA60     		str	r2, [r3, #12]
 4929 176a 07F50473 		add	r3, r7, #528
 4930 176e A3F5F473 		sub	r3, r3, #488
 4931 1772 0022     		movs	r2, #0
 4932 1774 1A61     		str	r2, [r3, #16]
 4933 1776 07F50473 		add	r3, r7, #528
 4934 177a A3F5F473 		sub	r3, r3, #488
 4935 177e 514A     		ldr	r2, .L110+12
 4936 1780 5A61     		str	r2, [r3, #20]
 4937 1782 07F50473 		add	r3, r7, #528
 4938 1786 A3F5F473 		sub	r3, r3, #488
 4939 178a 07F5B672 		add	r2, r7, #364
 4940 178e 9A61     		str	r2, [r3, #24]
 4941 1790 07F50473 		add	r3, r7, #528
 4942 1794 A3F5F473 		sub	r3, r3, #488
 4943 1798 0022     		movs	r2, #0
 4944 179a DA61     		str	r2, [r3, #28]
 633:Lib/AI_Runtime/Npu/ll_aton/ll_sw_float.c ****                          .nl_params = NULL, )
 634:Lib/AI_Runtime/Npu/ll_aton/ll_sw_float.c ****     nonlinearity_layer.forward(AI_LAYER_OBJ(&nonlinearity_layer));
 4945              		.loc 1 634 23
 4946 179c 07F50473 		add	r3, r7, #528
 4947 17a0 A3F5F473 		sub	r3, r3, #488
 4948 17a4 5B69     		ldr	r3, [r3, #20]
 4949              		.loc 1 634 5
 4950 17a6 07F12802 		add	r2, r7, #40
 4951 17aa 1046     		mov	r0, r2
 4952 17ac 9847     		blx	r3
 4953              	.LVL36:
 4954              	.LBE36:
 635:Lib/AI_Runtime/Npu/ll_aton/ll_sw_float.c ****   }
 636:Lib/AI_Runtime/Npu/ll_aton/ll_sw_float.c ****   break;
 4955              		.loc 1 636 3
 4956 17ae 56E1     		b	.L94
ARM GAS  /tmp/ccEo7NLA.s 			page 105


 4957              	.L67:
 4958              	.LBB37:
 637:Lib/AI_Runtime/Npu/ll_aton/ll_sw_float.c ****   case LL_SW_HARDMAX:
 638:Lib/AI_Runtime/Npu/ll_aton/ll_sw_float.c ****   {
 639:Lib/AI_Runtime/Npu/ll_aton/ll_sw_float.c ****     AI_LAYER_OBJ_DECLARE(nonlinearity_layer, 2, NL_TYPE, 0x0, NULL, nl, forward_hardmax, &activ_cha
 4959              		.loc 1 639 5
 4960 17b0 07F50473 		add	r3, r7, #528
 4961 17b4 A3F5F473 		sub	r3, r3, #488
 4962 17b8 40F20712 		movw	r2, #263
 4963 17bc 1A80     		strh	r2, [r3]	@ movhi
 4964 17be 07F50473 		add	r3, r7, #528
 4965 17c2 A3F5F473 		sub	r3, r3, #488
 4966 17c6 0222     		movs	r2, #2
 4967 17c8 5A80     		strh	r2, [r3, #2]	@ movhi
 4968 17ca 07F50473 		add	r3, r7, #528
 4969 17ce A3F5F473 		sub	r3, r3, #488
 4970 17d2 0022     		movs	r2, #0
 4971 17d4 5A60     		str	r2, [r3, #4]
 4972 17d6 07F50473 		add	r3, r7, #528
 4973 17da A3F5F473 		sub	r3, r3, #488
 4974 17de 0022     		movs	r2, #0
 4975 17e0 9A60     		str	r2, [r3, #8]
 4976 17e2 07F50473 		add	r3, r7, #528
 4977 17e6 A3F5F473 		sub	r3, r3, #488
 4978 17ea 0022     		movs	r2, #0
 4979 17ec DA60     		str	r2, [r3, #12]
 4980 17ee 07F50473 		add	r3, r7, #528
 4981 17f2 A3F5F473 		sub	r3, r3, #488
 4982 17f6 0022     		movs	r2, #0
 4983 17f8 1A61     		str	r2, [r3, #16]
 4984 17fa 07F50473 		add	r3, r7, #528
 4985 17fe A3F5F473 		sub	r3, r3, #488
 4986 1802 314A     		ldr	r2, .L110+16
 4987 1804 5A61     		str	r2, [r3, #20]
 4988 1806 07F50473 		add	r3, r7, #528
 4989 180a A3F5F473 		sub	r3, r3, #488
 4990 180e 07F5B672 		add	r2, r7, #364
 4991 1812 9A61     		str	r2, [r3, #24]
 4992 1814 07F50473 		add	r3, r7, #528
 4993 1818 A3F5F473 		sub	r3, r3, #488
 4994 181c 0022     		movs	r2, #0
 4995 181e DA61     		str	r2, [r3, #28]
 640:Lib/AI_Runtime/Npu/ll_aton/ll_sw_float.c ****                          .nl_params = NULL, )
 641:Lib/AI_Runtime/Npu/ll_aton/ll_sw_float.c ****     nonlinearity_layer.forward(AI_LAYER_OBJ(&nonlinearity_layer));
 4996              		.loc 1 641 23
 4997 1820 07F50473 		add	r3, r7, #528
 4998 1824 A3F5F473 		sub	r3, r3, #488
 4999 1828 5B69     		ldr	r3, [r3, #20]
 5000              		.loc 1 641 5
 5001 182a 07F12802 		add	r2, r7, #40
 5002 182e 1046     		mov	r0, r2
 5003 1830 9847     		blx	r3
 5004              	.LVL37:
 5005              	.LBE37:
 642:Lib/AI_Runtime/Npu/ll_aton/ll_sw_float.c ****   }
 643:Lib/AI_Runtime/Npu/ll_aton/ll_sw_float.c ****   break;
 5006              		.loc 1 643 3
ARM GAS  /tmp/ccEo7NLA.s 			page 106


 5007 1832 14E1     		b	.L94
 5008              	.L64:
 5009              	.LBB38:
 644:Lib/AI_Runtime/Npu/ll_aton/ll_sw_float.c ****   case LL_SW_ABS:
 645:Lib/AI_Runtime/Npu/ll_aton/ll_sw_float.c ****   {
 646:Lib/AI_Runtime/Npu/ll_aton/ll_sw_float.c ****     AI_LAYER_OBJ_DECLARE(nonlinearity_layer, 2, NL_TYPE, 0x0, NULL, nl, forward_abs, &activ_chain, 
 5010              		.loc 1 646 5
 5011 1834 07F50473 		add	r3, r7, #528
 5012 1838 A3F5F473 		sub	r3, r3, #488
 5013 183c 40F20712 		movw	r2, #263
 5014 1840 1A80     		strh	r2, [r3]	@ movhi
 5015 1842 07F50473 		add	r3, r7, #528
 5016 1846 A3F5F473 		sub	r3, r3, #488
 5017 184a 0222     		movs	r2, #2
 5018 184c 5A80     		strh	r2, [r3, #2]	@ movhi
 5019 184e 07F50473 		add	r3, r7, #528
 5020 1852 A3F5F473 		sub	r3, r3, #488
 5021 1856 0022     		movs	r2, #0
 5022 1858 5A60     		str	r2, [r3, #4]
 5023 185a 07F50473 		add	r3, r7, #528
 5024 185e A3F5F473 		sub	r3, r3, #488
 5025 1862 0022     		movs	r2, #0
 5026 1864 9A60     		str	r2, [r3, #8]
 5027 1866 07F50473 		add	r3, r7, #528
 5028 186a A3F5F473 		sub	r3, r3, #488
 5029 186e 0022     		movs	r2, #0
 5030 1870 DA60     		str	r2, [r3, #12]
 5031 1872 07F50473 		add	r3, r7, #528
 5032 1876 A3F5F473 		sub	r3, r3, #488
 5033 187a 0022     		movs	r2, #0
 5034 187c 1A61     		str	r2, [r3, #16]
 5035 187e 07F50473 		add	r3, r7, #528
 5036 1882 A3F5F473 		sub	r3, r3, #488
 5037 1886 114A     		ldr	r2, .L110+20
 5038 1888 5A61     		str	r2, [r3, #20]
 5039 188a 07F50473 		add	r3, r7, #528
 5040 188e A3F5F473 		sub	r3, r3, #488
 5041 1892 07F5B672 		add	r2, r7, #364
 5042 1896 9A61     		str	r2, [r3, #24]
 5043 1898 07F50473 		add	r3, r7, #528
 5044 189c A3F5F473 		sub	r3, r3, #488
 5045 18a0 0022     		movs	r2, #0
 5046 18a2 DA61     		str	r2, [r3, #28]
 647:Lib/AI_Runtime/Npu/ll_aton/ll_sw_float.c ****                          .nl_params = NULL, )
 648:Lib/AI_Runtime/Npu/ll_aton/ll_sw_float.c ****     nonlinearity_layer.forward(AI_LAYER_OBJ(&nonlinearity_layer));
 5047              		.loc 1 648 23
 5048 18a4 07F50473 		add	r3, r7, #528
 5049 18a8 A3F5F473 		sub	r3, r3, #488
 5050 18ac 5B69     		ldr	r3, [r3, #20]
 5051              		.loc 1 648 5
 5052 18ae 07F12802 		add	r2, r7, #40
 5053 18b2 1046     		mov	r0, r2
 5054 18b4 9847     		blx	r3
 5055              	.LVL38:
 5056              	.LBE38:
 649:Lib/AI_Runtime/Npu/ll_aton/ll_sw_float.c ****   }
 650:Lib/AI_Runtime/Npu/ll_aton/ll_sw_float.c ****   break;
ARM GAS  /tmp/ccEo7NLA.s 			page 107


 5057              		.loc 1 650 3
 5058 18b6 D2E0     		b	.L94
 5059              	.L111:
 5060              		.align	2
 5061              	.L110:
 5062 18b8 40108200 		.word	8523840
 5063 18bc 00000000 		.word	forward_hard_sigmoid
 5064 18c0 00000000 		.word	forward_swish
 5065 18c4 00000000 		.word	forward_hard_swish
 5066 18c8 00000000 		.word	forward_hardmax
 5067 18cc 00000000 		.word	forward_abs
 5068              	.L61:
 5069              	.LBB39:
 651:Lib/AI_Runtime/Npu/ll_aton/ll_sw_float.c ****   case LL_SW_NEG:
 652:Lib/AI_Runtime/Npu/ll_aton/ll_sw_float.c ****   {
 653:Lib/AI_Runtime/Npu/ll_aton/ll_sw_float.c ****     AI_LAYER_OBJ_DECLARE(nonlinearity_layer, 2, NL_TYPE, 0x0, NULL, nl, forward_neg, &activ_chain, 
 5070              		.loc 1 653 5
 5071 18d0 07F50473 		add	r3, r7, #528
 5072 18d4 A3F5F473 		sub	r3, r3, #488
 5073 18d8 40F20712 		movw	r2, #263
 5074 18dc 1A80     		strh	r2, [r3]	@ movhi
 5075 18de 07F50473 		add	r3, r7, #528
 5076 18e2 A3F5F473 		sub	r3, r3, #488
 5077 18e6 0222     		movs	r2, #2
 5078 18e8 5A80     		strh	r2, [r3, #2]	@ movhi
 5079 18ea 07F50473 		add	r3, r7, #528
 5080 18ee A3F5F473 		sub	r3, r3, #488
 5081 18f2 0022     		movs	r2, #0
 5082 18f4 5A60     		str	r2, [r3, #4]
 5083 18f6 07F50473 		add	r3, r7, #528
 5084 18fa A3F5F473 		sub	r3, r3, #488
 5085 18fe 0022     		movs	r2, #0
 5086 1900 9A60     		str	r2, [r3, #8]
 5087 1902 07F50473 		add	r3, r7, #528
 5088 1906 A3F5F473 		sub	r3, r3, #488
 5089 190a 0022     		movs	r2, #0
 5090 190c DA60     		str	r2, [r3, #12]
 5091 190e 07F50473 		add	r3, r7, #528
 5092 1912 A3F5F473 		sub	r3, r3, #488
 5093 1916 0022     		movs	r2, #0
 5094 1918 1A61     		str	r2, [r3, #16]
 5095 191a 07F50473 		add	r3, r7, #528
 5096 191e A3F5F473 		sub	r3, r3, #488
 5097 1922 514A     		ldr	r2, .L112
 5098 1924 5A61     		str	r2, [r3, #20]
 5099 1926 07F50473 		add	r3, r7, #528
 5100 192a A3F5F473 		sub	r3, r3, #488
 5101 192e 07F5B672 		add	r2, r7, #364
 5102 1932 9A61     		str	r2, [r3, #24]
 5103 1934 07F50473 		add	r3, r7, #528
 5104 1938 A3F5F473 		sub	r3, r3, #488
 5105 193c 0022     		movs	r2, #0
 5106 193e DA61     		str	r2, [r3, #28]
 654:Lib/AI_Runtime/Npu/ll_aton/ll_sw_float.c ****                          .nl_params = NULL, )
 655:Lib/AI_Runtime/Npu/ll_aton/ll_sw_float.c ****     nonlinearity_layer.forward(AI_LAYER_OBJ(&nonlinearity_layer));
 5107              		.loc 1 655 23
 5108 1940 07F50473 		add	r3, r7, #528
ARM GAS  /tmp/ccEo7NLA.s 			page 108


 5109 1944 A3F5F473 		sub	r3, r3, #488
 5110 1948 5B69     		ldr	r3, [r3, #20]
 5111              		.loc 1 655 5
 5112 194a 07F12802 		add	r2, r7, #40
 5113 194e 1046     		mov	r0, r2
 5114 1950 9847     		blx	r3
 5115              	.LVL39:
 5116              	.LBE39:
 656:Lib/AI_Runtime/Npu/ll_aton/ll_sw_float.c ****   }
 657:Lib/AI_Runtime/Npu/ll_aton/ll_sw_float.c ****   break;
 5117              		.loc 1 657 3
 5118 1952 84E0     		b	.L94
 5119              	.L60:
 5120              	.LBB40:
 658:Lib/AI_Runtime/Npu/ll_aton/ll_sw_float.c ****   case LL_SW_RECIPROCAL:
 659:Lib/AI_Runtime/Npu/ll_aton/ll_sw_float.c ****   {
 660:Lib/AI_Runtime/Npu/ll_aton/ll_sw_float.c ****     AI_LAYER_OBJ_DECLARE(nonlinearity_layer, 2, NL_TYPE, 0x0, NULL, nl, forward_reciprocal, &activ_
 5121              		.loc 1 660 5
 5122 1954 07F50473 		add	r3, r7, #528
 5123 1958 A3F5F473 		sub	r3, r3, #488
 5124 195c 40F20712 		movw	r2, #263
 5125 1960 1A80     		strh	r2, [r3]	@ movhi
 5126 1962 07F50473 		add	r3, r7, #528
 5127 1966 A3F5F473 		sub	r3, r3, #488
 5128 196a 0222     		movs	r2, #2
 5129 196c 5A80     		strh	r2, [r3, #2]	@ movhi
 5130 196e 07F50473 		add	r3, r7, #528
 5131 1972 A3F5F473 		sub	r3, r3, #488
 5132 1976 0022     		movs	r2, #0
 5133 1978 5A60     		str	r2, [r3, #4]
 5134 197a 07F50473 		add	r3, r7, #528
 5135 197e A3F5F473 		sub	r3, r3, #488
 5136 1982 0022     		movs	r2, #0
 5137 1984 9A60     		str	r2, [r3, #8]
 5138 1986 07F50473 		add	r3, r7, #528
 5139 198a A3F5F473 		sub	r3, r3, #488
 5140 198e 0022     		movs	r2, #0
 5141 1990 DA60     		str	r2, [r3, #12]
 5142 1992 07F50473 		add	r3, r7, #528
 5143 1996 A3F5F473 		sub	r3, r3, #488
 5144 199a 0022     		movs	r2, #0
 5145 199c 1A61     		str	r2, [r3, #16]
 5146 199e 07F50473 		add	r3, r7, #528
 5147 19a2 A3F5F473 		sub	r3, r3, #488
 5148 19a6 314A     		ldr	r2, .L112+4
 5149 19a8 5A61     		str	r2, [r3, #20]
 5150 19aa 07F50473 		add	r3, r7, #528
 5151 19ae A3F5F473 		sub	r3, r3, #488
 5152 19b2 07F5B672 		add	r2, r7, #364
 5153 19b6 9A61     		str	r2, [r3, #24]
 5154 19b8 07F50473 		add	r3, r7, #528
 5155 19bc A3F5F473 		sub	r3, r3, #488
 5156 19c0 0022     		movs	r2, #0
 5157 19c2 DA61     		str	r2, [r3, #28]
 661:Lib/AI_Runtime/Npu/ll_aton/ll_sw_float.c ****                          .nl_params = NULL, )
 662:Lib/AI_Runtime/Npu/ll_aton/ll_sw_float.c ****     nonlinearity_layer.forward(AI_LAYER_OBJ(&nonlinearity_layer));
 5158              		.loc 1 662 23
ARM GAS  /tmp/ccEo7NLA.s 			page 109


 5159 19c4 07F50473 		add	r3, r7, #528
 5160 19c8 A3F5F473 		sub	r3, r3, #488
 5161 19cc 5B69     		ldr	r3, [r3, #20]
 5162              		.loc 1 662 5
 5163 19ce 07F12802 		add	r2, r7, #40
 5164 19d2 1046     		mov	r0, r2
 5165 19d4 9847     		blx	r3
 5166              	.LVL40:
 5167              	.LBE40:
 663:Lib/AI_Runtime/Npu/ll_aton/ll_sw_float.c ****   }
 664:Lib/AI_Runtime/Npu/ll_aton/ll_sw_float.c ****   break;
 5168              		.loc 1 664 3
 5169 19d6 42E0     		b	.L94
 5170              	.L58:
 5171              	.LBB41:
 665:Lib/AI_Runtime/Npu/ll_aton/ll_sw_float.c ****   case LL_SW_ROUND:
 666:Lib/AI_Runtime/Npu/ll_aton/ll_sw_float.c ****   {
 667:Lib/AI_Runtime/Npu/ll_aton/ll_sw_float.c ****     AI_LAYER_OBJ_DECLARE(nonlinearity_layer, 2, NL_TYPE, 0x0, NULL, nl, forward_round, &activ_chain
 5172              		.loc 1 667 5
 5173 19d8 07F50473 		add	r3, r7, #528
 5174 19dc A3F5F473 		sub	r3, r3, #488
 5175 19e0 40F20712 		movw	r2, #263
 5176 19e4 1A80     		strh	r2, [r3]	@ movhi
 5177 19e6 07F50473 		add	r3, r7, #528
 5178 19ea A3F5F473 		sub	r3, r3, #488
 5179 19ee 0222     		movs	r2, #2
 5180 19f0 5A80     		strh	r2, [r3, #2]	@ movhi
 5181 19f2 07F50473 		add	r3, r7, #528
 5182 19f6 A3F5F473 		sub	r3, r3, #488
 5183 19fa 0022     		movs	r2, #0
 5184 19fc 5A60     		str	r2, [r3, #4]
 5185 19fe 07F50473 		add	r3, r7, #528
 5186 1a02 A3F5F473 		sub	r3, r3, #488
 5187 1a06 0022     		movs	r2, #0
 5188 1a08 9A60     		str	r2, [r3, #8]
 5189 1a0a 07F50473 		add	r3, r7, #528
 5190 1a0e A3F5F473 		sub	r3, r3, #488
 5191 1a12 0022     		movs	r2, #0
 5192 1a14 DA60     		str	r2, [r3, #12]
 5193 1a16 07F50473 		add	r3, r7, #528
 5194 1a1a A3F5F473 		sub	r3, r3, #488
 5195 1a1e 0022     		movs	r2, #0
 5196 1a20 1A61     		str	r2, [r3, #16]
 5197 1a22 07F50473 		add	r3, r7, #528
 5198 1a26 A3F5F473 		sub	r3, r3, #488
 5199 1a2a 114A     		ldr	r2, .L112+8
 5200 1a2c 5A61     		str	r2, [r3, #20]
 5201 1a2e 07F50473 		add	r3, r7, #528
 5202 1a32 A3F5F473 		sub	r3, r3, #488
 5203 1a36 07F5B672 		add	r2, r7, #364
 5204 1a3a 9A61     		str	r2, [r3, #24]
 5205 1a3c 07F50473 		add	r3, r7, #528
 5206 1a40 A3F5F473 		sub	r3, r3, #488
 5207 1a44 0022     		movs	r2, #0
 5208 1a46 DA61     		str	r2, [r3, #28]
 668:Lib/AI_Runtime/Npu/ll_aton/ll_sw_float.c ****                          .nl_params = NULL, )
 669:Lib/AI_Runtime/Npu/ll_aton/ll_sw_float.c ****     nonlinearity_layer.forward(AI_LAYER_OBJ(&nonlinearity_layer));
ARM GAS  /tmp/ccEo7NLA.s 			page 110


 5209              		.loc 1 669 23
 5210 1a48 07F50473 		add	r3, r7, #528
 5211 1a4c A3F5F473 		sub	r3, r3, #488
 5212 1a50 5B69     		ldr	r3, [r3, #20]
 5213              		.loc 1 669 5
 5214 1a52 07F12802 		add	r2, r7, #40
 5215 1a56 1046     		mov	r0, r2
 5216 1a58 9847     		blx	r3
 5217              	.LVL41:
 5218              	.LBE41:
 670:Lib/AI_Runtime/Npu/ll_aton/ll_sw_float.c ****   }
 671:Lib/AI_Runtime/Npu/ll_aton/ll_sw_float.c ****   break;
 5219              		.loc 1 671 3
 5220 1a5a 00E0     		b	.L94
 5221              	.L95:
 672:Lib/AI_Runtime/Npu/ll_aton/ll_sw_float.c ****   default:
 673:Lib/AI_Runtime/Npu/ll_aton/ll_sw_float.c **** #ifdef LL_SW_ENABLE_ASSERTS
 674:Lib/AI_Runtime/Npu/ll_aton/ll_sw_float.c ****     LL_ATON_ASSERT(0 && "NL OPERATION NOT SUPPORTED");
 675:Lib/AI_Runtime/Npu/ll_aton/ll_sw_float.c **** #endif
 676:Lib/AI_Runtime/Npu/ll_aton/ll_sw_float.c ****     break;
 5222              		.loc 1 676 5
 5223 1a5c 00BF     		nop
 5224              	.L94:
 677:Lib/AI_Runtime/Npu/ll_aton/ll_sw_float.c ****   }
 678:Lib/AI_Runtime/Npu/ll_aton/ll_sw_float.c **** }
 5225              		.loc 1 678 1
 5226 1a5e 00BF     		nop
 5227 1a60 07F50477 		add	r7, r7, #528
 5228              		.cfi_def_cfa_offset 8
 5229 1a64 BD46     		mov	sp, r7
 5230              		.cfi_def_cfa_register 13
 5231              		@ sp needed
 5232 1a66 80BD     		pop	{r7, pc}
 5233              	.L113:
 5234              		.align	2
 5235              	.L112:
 5236 1a68 00000000 		.word	forward_neg
 5237 1a6c 00000000 		.word	forward_reciprocal
 5238 1a70 00000000 		.word	forward_round
 5239              		.cfi_endproc
 5240              	.LFE20:
 5242              		.section	.text.ll_sw_forward_arith,"ax",%progbits
 5243              		.align	1
 5244              		.global	ll_sw_forward_arith
 5245              		.syntax unified
 5246              		.thumb
 5247              		.thumb_func
 5249              	ll_sw_forward_arith:
 5250              	.LFB21:
 679:Lib/AI_Runtime/Npu/ll_aton/ll_sw_float.c **** 
 680:Lib/AI_Runtime/Npu/ll_aton/ll_sw_float.c **** //##########################################################################################
 681:Lib/AI_Runtime/Npu/ll_aton/ll_sw_float.c **** /** activ forward function  */
 682:Lib/AI_Runtime/Npu/ll_aton/ll_sw_float.c **** void ll_sw_forward_arith(/* int processor, */ void *sw_info_struct)
 683:Lib/AI_Runtime/Npu/ll_aton/ll_sw_float.c **** {
 5251              		.loc 1 683 1
 5252              		.cfi_startproc
 5253              		@ args = 0, pretend = 0, frame = 656
ARM GAS  /tmp/ccEo7NLA.s 			page 111


 5254              		@ frame_needed = 1, uses_anonymous_args = 0
 5255 0000 80B5     		push	{r7, lr}
 5256              		.cfi_def_cfa_offset 8
 5257              		.cfi_offset 7, -8
 5258              		.cfi_offset 14, -4
 5259 0002 ADF5247D 		sub	sp, sp, #656
 5260              		.cfi_def_cfa_offset 664
 5261 0006 00AF     		add	r7, sp, #0
 5262              		.cfi_def_cfa_register 7
 5263 0008 07F52473 		add	r3, r7, #656
 5264 000c A3F52373 		sub	r3, r3, #652
 5265 0010 1860     		str	r0, [r3]
 684:Lib/AI_Runtime/Npu/ll_aton/ll_sw_float.c ****   Arith_sw_info *sw_info = (Arith_sw_info *)sw_info_struct;
 5266              		.loc 1 684 18
 5267 0012 07F52473 		add	r3, r7, #656
 5268 0016 A3F52373 		sub	r3, r3, #652
 5269 001a 1B68     		ldr	r3, [r3]
 5270 001c C7F88432 		str	r3, [r7, #644]
 685:Lib/AI_Runtime/Npu/ll_aton/ll_sw_float.c ****   // array init
 686:Lib/AI_Runtime/Npu/ll_aton/ll_sw_float.c ****   AI_ARRAY_OBJ_DECLARE(input_output_array, FORMAT, sw_info->general.input.mem.start_offset,
 5271              		.loc 1 686 3
 5272 0020 E84B     		ldr	r3, .L135
 5273 0022 C7F87432 		str	r3, [r7, #628]
 5274 0026 D7F88432 		ldr	r3, [r7, #644]
 5275 002a 5B69     		ldr	r3, [r3, #20]
 5276 002c C7F87832 		str	r3, [r7, #632]
 5277 0030 D7F88432 		ldr	r3, [r7, #644]
 5278 0034 9B6A     		ldr	r3, [r3, #40]
 5279 0036 C7F87C32 		str	r3, [r7, #636]
 5280 003a D7F88432 		ldr	r3, [r7, #644]
 5281 003e 9B6A     		ldr	r3, [r3, #40]
 5282 0040 C7F88032 		str	r3, [r7, #640]
 687:Lib/AI_Runtime/Npu/ll_aton/ll_sw_float.c ****                        sw_info->general.input.mem.start_offset, sw_info->general.input.dim.num_elem
 688:Lib/AI_Runtime/Npu/ll_aton/ll_sw_float.c ****   AI_ARRAY_OBJ_DECLARE(arith_output_array, FORMAT, sw_info->general.output.mem.start_offset,
 5283              		.loc 1 688 3
 5284 0044 DF4B     		ldr	r3, .L135
 5285 0046 C7F86432 		str	r3, [r7, #612]
 5286 004a D7F88432 		ldr	r3, [r7, #644]
 5287 004e 1B6C     		ldr	r3, [r3, #64]
 5288 0050 C7F86832 		str	r3, [r7, #616]
 5289 0054 D7F88432 		ldr	r3, [r7, #644]
 5290 0058 5B6D     		ldr	r3, [r3, #84]
 5291 005a C7F86C32 		str	r3, [r7, #620]
 5292 005e D7F88432 		ldr	r3, [r7, #644]
 5293 0062 5B6D     		ldr	r3, [r3, #84]
 5294 0064 C7F87032 		str	r3, [r7, #624]
 689:Lib/AI_Runtime/Npu/ll_aton/ll_sw_float.c ****                        sw_info->general.output.mem.start_offset, sw_info->general.output.dim.num_el
 690:Lib/AI_Runtime/Npu/ll_aton/ll_sw_float.c ****   AI_ARRAY_OBJ_DECLARE(arith_operand_array, FORMAT, sw_info->operand.mem.start_offset,
 5295              		.loc 1 690 3
 5296 0068 D64B     		ldr	r3, .L135
 5297 006a C7F85432 		str	r3, [r7, #596]
 5298 006e D7F88432 		ldr	r3, [r7, #644]
 5299 0072 DB6E     		ldr	r3, [r3, #108]
 5300 0074 C7F85832 		str	r3, [r7, #600]
 5301 0078 D7F88432 		ldr	r3, [r7, #644]
 5302 007c D3F88030 		ldr	r3, [r3, #128]
 5303 0080 C7F85C32 		str	r3, [r7, #604]
ARM GAS  /tmp/ccEo7NLA.s 			page 112


 5304 0084 D7F88432 		ldr	r3, [r7, #644]
 5305 0088 D3F88030 		ldr	r3, [r3, #128]
 5306 008c C7F86032 		str	r3, [r7, #608]
 691:Lib/AI_Runtime/Npu/ll_aton/ll_sw_float.c ****                        sw_info->operand.mem.start_offset, sw_info->operand.dim.num_elem, )
 692:Lib/AI_Runtime/Npu/ll_aton/ll_sw_float.c ****   AI_TENSOR_OBJ_DECLARE(input_output, , 0x0, 4,
 5307              		.loc 1 692 3
 5308 0090 0023     		movs	r3, #0
 5309 0092 C7F83832 		str	r3, [r7, #568]
 5310 0096 0023     		movs	r3, #0
 5311 0098 A7F83C32 		strh	r3, [r7, #572]	@ movhi
 5312 009c 0423     		movs	r3, #4
 5313 009e 87F83E32 		strb	r3, [r7, #574]
 5314 00a2 0123     		movs	r3, #1
 5315 00a4 87F83F32 		strb	r3, [r7, #575]
 5316 00a8 0123     		movs	r3, #1
 5317 00aa 87F84032 		strb	r3, [r7, #576]
 5318 00ae D7F84032 		ldr	r3, [r7, #576]
 5319 00b2 0422     		movs	r2, #4
 5320 00b4 62F31F23 		bfi	r3, r2, #8, #24
 5321 00b8 C7F84032 		str	r3, [r7, #576]
 5322 00bc D7F88432 		ldr	r3, [r7, #644]
 5323 00c0 1B69     		ldr	r3, [r3, #16]
 5324 00c2 C7F82832 		str	r3, [r7, #552]
 5325 00c6 D7F88432 		ldr	r3, [r7, #644]
 5326 00ca DB68     		ldr	r3, [r3, #12]
 5327 00cc C7F82C32 		str	r3, [r7, #556]
 5328 00d0 D7F88432 		ldr	r3, [r7, #644]
 5329 00d4 9B68     		ldr	r3, [r3, #8]
 5330 00d6 C7F83032 		str	r3, [r7, #560]
 5331 00da D7F88432 		ldr	r3, [r7, #644]
 5332 00de 5B68     		ldr	r3, [r3, #4]
 5333 00e0 C7F83432 		str	r3, [r7, #564]
 5334 00e4 07F50A73 		add	r3, r7, #552
 5335 00e8 C7F84432 		str	r3, [r7, #580]
 5336 00ec 0223     		movs	r3, #2
 5337 00ee 87F84832 		strb	r3, [r7, #584]
 5338 00f2 D7F84832 		ldr	r3, [r7, #584]
 5339 00f6 0422     		movs	r2, #4
 5340 00f8 62F31F23 		bfi	r3, r2, #8, #24
 5341 00fc C7F84832 		str	r3, [r7, #584]
 5342 0100 D7F88432 		ldr	r3, [r7, #644]
 5343 0104 5B6A     		ldr	r3, [r3, #36]
 5344 0106 C7F81832 		str	r3, [r7, #536]
 5345 010a D7F88432 		ldr	r3, [r7, #644]
 5346 010e 1B6A     		ldr	r3, [r3, #32]
 5347 0110 C7F81C32 		str	r3, [r7, #540]
 5348 0114 D7F88432 		ldr	r3, [r7, #644]
 5349 0118 DB69     		ldr	r3, [r3, #28]
 5350 011a C7F82032 		str	r3, [r7, #544]
 5351 011e D7F88432 		ldr	r3, [r7, #644]
 5352 0122 9B69     		ldr	r3, [r3, #24]
 5353 0124 C7F82432 		str	r3, [r7, #548]
 5354 0128 07F50673 		add	r3, r7, #536
 5355 012c C7F84C32 		str	r3, [r7, #588]
 5356 0130 07F51D73 		add	r3, r7, #628
 5357 0134 C7F85032 		str	r3, [r7, #592]
 693:Lib/AI_Runtime/Npu/ll_aton/ll_sw_float.c ****                         SHAPE_INIT(sw_info->general.input.dim.tensor_h, sw_info->general.input.dim.
ARM GAS  /tmp/ccEo7NLA.s 			page 113


 694:Lib/AI_Runtime/Npu/ll_aton/ll_sw_float.c ****                                    sw_info->general.input.dim.tensor_c, sw_info->general.input.dim.
 695:Lib/AI_Runtime/Npu/ll_aton/ll_sw_float.c ****                         STRIDE_INIT(sw_info->general.input.stride.h, sw_info->general.input.stride.
 696:Lib/AI_Runtime/Npu/ll_aton/ll_sw_float.c ****                                     sw_info->general.input.stride.c, sw_info->general.input.stride.
 697:Lib/AI_Runtime/Npu/ll_aton/ll_sw_float.c ****                         1, &input_output_array, NULL)
 698:Lib/AI_Runtime/Npu/ll_aton/ll_sw_float.c ****   AI_TENSOR_OBJ_DECLARE(arith_operand, , 0x0, 4,
 5358              		.loc 1 698 3
 5359 0138 0023     		movs	r3, #0
 5360 013a C7F8FC31 		str	r3, [r7, #508]
 5361 013e 0023     		movs	r3, #0
 5362 0140 A7F80032 		strh	r3, [r7, #512]	@ movhi
 5363 0144 0423     		movs	r3, #4
 5364 0146 87F80232 		strb	r3, [r7, #514]
 5365 014a 0123     		movs	r3, #1
 5366 014c 87F80332 		strb	r3, [r7, #515]
 5367 0150 0123     		movs	r3, #1
 5368 0152 87F80432 		strb	r3, [r7, #516]
 5369 0156 D7F80432 		ldr	r3, [r7, #516]
 5370 015a 0422     		movs	r2, #4
 5371 015c 62F31F23 		bfi	r3, r2, #8, #24
 5372 0160 C7F80432 		str	r3, [r7, #516]
 5373 0164 D7F88432 		ldr	r3, [r7, #644]
 5374 0168 9B6E     		ldr	r3, [r3, #104]
 5375 016a C7F8EC31 		str	r3, [r7, #492]
 5376 016e D7F88432 		ldr	r3, [r7, #644]
 5377 0172 5B6E     		ldr	r3, [r3, #100]
 5378 0174 C7F8F031 		str	r3, [r7, #496]
 5379 0178 D7F88432 		ldr	r3, [r7, #644]
 5380 017c 1B6E     		ldr	r3, [r3, #96]
 5381 017e C7F8F431 		str	r3, [r7, #500]
 5382 0182 D7F88432 		ldr	r3, [r7, #644]
 5383 0186 DB6D     		ldr	r3, [r3, #92]
 5384 0188 C7F8F831 		str	r3, [r7, #504]
 5385 018c 07F5F673 		add	r3, r7, #492
 5386 0190 C7F80832 		str	r3, [r7, #520]
 5387 0194 0223     		movs	r3, #2
 5388 0196 87F80C32 		strb	r3, [r7, #524]
 5389 019a D7F80C32 		ldr	r3, [r7, #524]
 5390 019e 0422     		movs	r2, #4
 5391 01a0 62F31F23 		bfi	r3, r2, #8, #24
 5392 01a4 C7F80C32 		str	r3, [r7, #524]
 5393 01a8 D7F88432 		ldr	r3, [r7, #644]
 5394 01ac DB6F     		ldr	r3, [r3, #124]
 5395 01ae C7F8DC31 		str	r3, [r7, #476]
 5396 01b2 D7F88432 		ldr	r3, [r7, #644]
 5397 01b6 9B6F     		ldr	r3, [r3, #120]
 5398 01b8 C7F8E031 		str	r3, [r7, #480]
 5399 01bc D7F88432 		ldr	r3, [r7, #644]
 5400 01c0 5B6F     		ldr	r3, [r3, #116]
 5401 01c2 C7F8E431 		str	r3, [r7, #484]
 5402 01c6 D7F88432 		ldr	r3, [r7, #644]
 5403 01ca 1B6F     		ldr	r3, [r3, #112]
 5404 01cc C7F8E831 		str	r3, [r7, #488]
 5405 01d0 07F5EE73 		add	r3, r7, #476
 5406 01d4 C7F81032 		str	r3, [r7, #528]
 5407 01d8 07F51573 		add	r3, r7, #596
 5408 01dc C7F81432 		str	r3, [r7, #532]
 699:Lib/AI_Runtime/Npu/ll_aton/ll_sw_float.c ****                         SHAPE_INIT(sw_info->operand.dim.tensor_h, sw_info->operand.dim.tensor_w,
ARM GAS  /tmp/ccEo7NLA.s 			page 114


 700:Lib/AI_Runtime/Npu/ll_aton/ll_sw_float.c ****                                    sw_info->operand.dim.tensor_c, sw_info->operand.dim.tensor_b),
 701:Lib/AI_Runtime/Npu/ll_aton/ll_sw_float.c ****                         STRIDE_INIT(sw_info->operand.stride.h, sw_info->operand.stride.w, sw_info->
 702:Lib/AI_Runtime/Npu/ll_aton/ll_sw_float.c ****                                     sw_info->operand.stride.b),
 703:Lib/AI_Runtime/Npu/ll_aton/ll_sw_float.c ****                         1, &arith_operand_array, NULL)
 704:Lib/AI_Runtime/Npu/ll_aton/ll_sw_float.c ****   AI_TENSOR_OBJ_DECLARE(arith_output, , 0x0, 4,
 5409              		.loc 1 704 3
 5410 01e0 0023     		movs	r3, #0
 5411 01e2 C7F8C031 		str	r3, [r7, #448]
 5412 01e6 0023     		movs	r3, #0
 5413 01e8 A7F8C431 		strh	r3, [r7, #452]	@ movhi
 5414 01ec 0423     		movs	r3, #4
 5415 01ee 87F8C631 		strb	r3, [r7, #454]
 5416 01f2 0123     		movs	r3, #1
 5417 01f4 87F8C731 		strb	r3, [r7, #455]
 5418 01f8 0123     		movs	r3, #1
 5419 01fa 87F8C831 		strb	r3, [r7, #456]
 5420 01fe D7F8C831 		ldr	r3, [r7, #456]
 5421 0202 0422     		movs	r2, #4
 5422 0204 62F31F23 		bfi	r3, r2, #8, #24
 5423 0208 C7F8C831 		str	r3, [r7, #456]
 5424 020c D7F88432 		ldr	r3, [r7, #644]
 5425 0210 DB6B     		ldr	r3, [r3, #60]
 5426 0212 C7F8B031 		str	r3, [r7, #432]
 5427 0216 D7F88432 		ldr	r3, [r7, #644]
 5428 021a 9B6B     		ldr	r3, [r3, #56]
 5429 021c C7F8B431 		str	r3, [r7, #436]
 5430 0220 D7F88432 		ldr	r3, [r7, #644]
 5431 0224 5B6B     		ldr	r3, [r3, #52]
 5432 0226 C7F8B831 		str	r3, [r7, #440]
 5433 022a D7F88432 		ldr	r3, [r7, #644]
 5434 022e 1B6B     		ldr	r3, [r3, #48]
 5435 0230 C7F8BC31 		str	r3, [r7, #444]
 5436 0234 07F5D873 		add	r3, r7, #432
 5437 0238 C7F8CC31 		str	r3, [r7, #460]
 5438 023c 0223     		movs	r3, #2
 5439 023e 87F8D031 		strb	r3, [r7, #464]
 5440 0242 D7F8D031 		ldr	r3, [r7, #464]
 5441 0246 0422     		movs	r2, #4
 5442 0248 62F31F23 		bfi	r3, r2, #8, #24
 5443 024c C7F8D031 		str	r3, [r7, #464]
 5444 0250 D7F88432 		ldr	r3, [r7, #644]
 5445 0254 1B6D     		ldr	r3, [r3, #80]
 5446 0256 C7F8A031 		str	r3, [r7, #416]
 5447 025a D7F88432 		ldr	r3, [r7, #644]
 5448 025e DB6C     		ldr	r3, [r3, #76]
 5449 0260 C7F8A431 		str	r3, [r7, #420]
 5450 0264 D7F88432 		ldr	r3, [r7, #644]
 5451 0268 9B6C     		ldr	r3, [r3, #72]
 5452 026a C7F8A831 		str	r3, [r7, #424]
 5453 026e D7F88432 		ldr	r3, [r7, #644]
 5454 0272 5B6C     		ldr	r3, [r3, #68]
 5455 0274 C7F8AC31 		str	r3, [r7, #428]
 5456 0278 07F5D073 		add	r3, r7, #416
 5457 027c C7F8D431 		str	r3, [r7, #468]
 5458 0280 07F51973 		add	r3, r7, #612
 5459 0284 C7F8D831 		str	r3, [r7, #472]
 705:Lib/AI_Runtime/Npu/ll_aton/ll_sw_float.c ****                         SHAPE_INIT(sw_info->general.output.dim.tensor_h, sw_info->general.output.di
ARM GAS  /tmp/ccEo7NLA.s 			page 115


 706:Lib/AI_Runtime/Npu/ll_aton/ll_sw_float.c ****                                    sw_info->general.output.dim.tensor_c, sw_info->general.output.di
 707:Lib/AI_Runtime/Npu/ll_aton/ll_sw_float.c ****                         STRIDE_INIT(sw_info->general.output.stride.h, sw_info->general.output.strid
 708:Lib/AI_Runtime/Npu/ll_aton/ll_sw_float.c ****                                     sw_info->general.output.stride.c, sw_info->general.output.strid
 709:Lib/AI_Runtime/Npu/ll_aton/ll_sw_float.c ****                         1, &arith_output_array, NULL)
 710:Lib/AI_Runtime/Npu/ll_aton/ll_sw_float.c **** 
 711:Lib/AI_Runtime/Npu/ll_aton/ll_sw_float.c ****   // layer initialization
 712:Lib/AI_Runtime/Npu/ll_aton/ll_sw_float.c ****   func_binary op = ai_sum;                      /**< operation to apply elementwise */
 5460              		.loc 1 712 15
 5461 0288 4F4B     		ldr	r3, .L135+4
 5462 028a C7F88C32 		str	r3, [r7, #652]
 713:Lib/AI_Runtime/Npu/ll_aton/ll_sw_float.c ****   func_buffer_binary buffer_op = ai_sum_buffer; /**< operation to apply elementwise */
 5463              		.loc 1 713 22
 5464 028e 4F4B     		ldr	r3, .L135+8
 5465 0290 C7F88832 		str	r3, [r7, #648]
 714:Lib/AI_Runtime/Npu/ll_aton/ll_sw_float.c **** 
 715:Lib/AI_Runtime/Npu/ll_aton/ll_sw_float.c ****   switch (sw_info->general.type)
 5466              		.loc 1 715 27
 5467 0294 D7F88432 		ldr	r3, [r7, #644]
 5468 0298 1B78     		ldrb	r3, [r3]	@ zero_extendqisi2
 5469              		.loc 1 715 3
 5470 029a 0C3B     		subs	r3, r3, #12
 5471 029c 422B     		cmp	r3, #66
 5472 029e 00F21B81 		bhi	.L134
 5473 02a2 01A2     		adr	r2, .L117
 5474 02a4 52F823F0 		ldr	pc, [r2, r3, lsl #2]
 5475              		.p2align 2
 5476              	.L117:
 5477 02a8 B5030000 		.word	.L129+1
 5478 02ac B5030000 		.word	.L129+1
 5479 02b0 ED030000 		.word	.L128+1
 5480 02b4 D1030000 		.word	.L127+1
 5481 02b8 DF030000 		.word	.L126+1
 5482 02bc D9040000 		.word	.L134+1
 5483 02c0 D9040000 		.word	.L134+1
 5484 02c4 D9040000 		.word	.L134+1
 5485 02c8 D9040000 		.word	.L134+1
 5486 02cc D9040000 		.word	.L134+1
 5487 02d0 D9040000 		.word	.L134+1
 5488 02d4 D9040000 		.word	.L134+1
 5489 02d8 D9040000 		.word	.L134+1
 5490 02dc D9040000 		.word	.L134+1
 5491 02e0 D9040000 		.word	.L134+1
 5492 02e4 D9040000 		.word	.L134+1
 5493 02e8 D9040000 		.word	.L134+1
 5494 02ec D9040000 		.word	.L134+1
 5495 02f0 D9040000 		.word	.L134+1
 5496 02f4 D9040000 		.word	.L134+1
 5497 02f8 D9040000 		.word	.L134+1
 5498 02fc D9040000 		.word	.L134+1
 5499 0300 D9040000 		.word	.L134+1
 5500 0304 D9040000 		.word	.L134+1
 5501 0308 D9040000 		.word	.L134+1
 5502 030c D9040000 		.word	.L134+1
 5503 0310 D9040000 		.word	.L134+1
 5504 0314 D9040000 		.word	.L134+1
 5505 0318 D9040000 		.word	.L134+1
 5506 031c D9040000 		.word	.L134+1
ARM GAS  /tmp/ccEo7NLA.s 			page 116


 5507 0320 D9040000 		.word	.L134+1
 5508 0324 D9040000 		.word	.L134+1
 5509 0328 D9040000 		.word	.L134+1
 5510 032c D9040000 		.word	.L134+1
 5511 0330 D9040000 		.word	.L134+1
 5512 0334 FB030000 		.word	.L125+1
 5513 0338 D9040000 		.word	.L134+1
 5514 033c D9040000 		.word	.L134+1
 5515 0340 D9040000 		.word	.L134+1
 5516 0344 33040000 		.word	.L124+1
 5517 0348 09040000 		.word	.L123+1
 5518 034c 25040000 		.word	.L122+1
 5519 0350 17040000 		.word	.L121+1
 5520 0354 41040000 		.word	.L120+1
 5521 0358 D9040000 		.word	.L134+1
 5522 035c D9040000 		.word	.L134+1
 5523 0360 D9040000 		.word	.L134+1
 5524 0364 D9040000 		.word	.L134+1
 5525 0368 D9040000 		.word	.L134+1
 5526 036c D9040000 		.word	.L134+1
 5527 0370 D9040000 		.word	.L134+1
 5528 0374 D9040000 		.word	.L134+1
 5529 0378 D9040000 		.word	.L134+1
 5530 037c D9040000 		.word	.L134+1
 5531 0380 D9040000 		.word	.L134+1
 5532 0384 D9040000 		.word	.L134+1
 5533 0388 D9040000 		.word	.L134+1
 5534 038c D9040000 		.word	.L134+1
 5535 0390 D9040000 		.word	.L134+1
 5536 0394 D9040000 		.word	.L134+1
 5537 0398 D9040000 		.word	.L134+1
 5538 039c D9040000 		.word	.L134+1
 5539 03a0 4F040000 		.word	.L119+1
 5540 03a4 5D040000 		.word	.L118+1
 5541 03a8 D9040000 		.word	.L134+1
 5542 03ac D9040000 		.word	.L134+1
 5543 03b0 6B040000 		.word	.L116+1
 5544              		.p2align 1
 5545              	.L129:
 716:Lib/AI_Runtime/Npu/ll_aton/ll_sw_float.c ****   {
 717:Lib/AI_Runtime/Npu/ll_aton/ll_sw_float.c ****   case LL_SW_ARITHADD:
 718:Lib/AI_Runtime/Npu/ll_aton/ll_sw_float.c ****   case LL_SW_ARITHSUM:
 719:Lib/AI_Runtime/Npu/ll_aton/ll_sw_float.c ****     op = ((func_binary)(ai_sum));
 5546              		.loc 1 719 8
 5547 03b4 044B     		ldr	r3, .L135+4
 5548 03b6 C7F88C32 		str	r3, [r7, #652]
 720:Lib/AI_Runtime/Npu/ll_aton/ll_sw_float.c ****     buffer_op = ((func_buffer_binary)(ai_sum_buffer));
 5549              		.loc 1 720 15
 5550 03ba 044B     		ldr	r3, .L135+8
 5551 03bc C7F88832 		str	r3, [r7, #648]
 721:Lib/AI_Runtime/Npu/ll_aton/ll_sw_float.c ****     break;
 5552              		.loc 1 721 5
 5553 03c0 8BE0     		b	.L130
 5554              	.L136:
 5555 03c2 00BF     		.align	2
 5556              	.L135:
 5557 03c4 40108200 		.word	8523840
ARM GAS  /tmp/ccEo7NLA.s 			page 117


 5558 03c8 00000000 		.word	ai_sum
 5559 03cc 00000000 		.word	ai_sum_buffer
 5560              	.L127:
 722:Lib/AI_Runtime/Npu/ll_aton/ll_sw_float.c ****   case LL_SW_ARITHMUL:
 723:Lib/AI_Runtime/Npu/ll_aton/ll_sw_float.c ****     op = ((func_binary)(ai_mul));
 5561              		.loc 1 723 8
 5562 03d0 294B     		ldr	r3, .L137
 5563 03d2 C7F88C32 		str	r3, [r7, #652]
 724:Lib/AI_Runtime/Npu/ll_aton/ll_sw_float.c ****     buffer_op = ((func_buffer_binary)(ai_mul_buffer));
 5564              		.loc 1 724 15
 5565 03d6 294B     		ldr	r3, .L137+4
 5566 03d8 C7F88832 		str	r3, [r7, #648]
 725:Lib/AI_Runtime/Npu/ll_aton/ll_sw_float.c ****     break;
 5567              		.loc 1 725 5
 5568 03dc 7DE0     		b	.L130
 5569              	.L126:
 726:Lib/AI_Runtime/Npu/ll_aton/ll_sw_float.c ****   case LL_SW_ARITHDIV:
 727:Lib/AI_Runtime/Npu/ll_aton/ll_sw_float.c ****     op = ((func_binary)(ai_div));
 5570              		.loc 1 727 8
 5571 03de 284B     		ldr	r3, .L137+8
 5572 03e0 C7F88C32 		str	r3, [r7, #652]
 728:Lib/AI_Runtime/Npu/ll_aton/ll_sw_float.c ****     buffer_op = ((func_buffer_binary)(ai_div_buffer));
 5573              		.loc 1 728 15
 5574 03e4 274B     		ldr	r3, .L137+12
 5575 03e6 C7F88832 		str	r3, [r7, #648]
 729:Lib/AI_Runtime/Npu/ll_aton/ll_sw_float.c ****     break;
 5576              		.loc 1 729 5
 5577 03ea 76E0     		b	.L130
 5578              	.L128:
 730:Lib/AI_Runtime/Npu/ll_aton/ll_sw_float.c ****   case LL_SW_ARITHSUB:
 731:Lib/AI_Runtime/Npu/ll_aton/ll_sw_float.c ****     op = ((func_binary)(ai_sub));
 5579              		.loc 1 731 8
 5580 03ec 264B     		ldr	r3, .L137+16
 5581 03ee C7F88C32 		str	r3, [r7, #652]
 732:Lib/AI_Runtime/Npu/ll_aton/ll_sw_float.c ****     buffer_op = ((func_buffer_binary)(ai_sub_buffer));
 5582              		.loc 1 732 15
 5583 03f2 264B     		ldr	r3, .L137+20
 5584 03f4 C7F88832 		str	r3, [r7, #648]
 733:Lib/AI_Runtime/Npu/ll_aton/ll_sw_float.c ****     break;
 5585              		.loc 1 733 5
 5586 03f8 6FE0     		b	.L130
 5587              	.L125:
 734:Lib/AI_Runtime/Npu/ll_aton/ll_sw_float.c ****   case LL_SW_POW:
 735:Lib/AI_Runtime/Npu/ll_aton/ll_sw_float.c ****     op = ((func_binary)(ai_pow));
 5588              		.loc 1 735 8
 5589 03fa 254B     		ldr	r3, .L137+24
 5590 03fc C7F88C32 		str	r3, [r7, #652]
 736:Lib/AI_Runtime/Npu/ll_aton/ll_sw_float.c ****     buffer_op = ((func_buffer_binary)(ai_pow_buffer));
 5591              		.loc 1 736 15
 5592 0400 244B     		ldr	r3, .L137+28
 5593 0402 C7F88832 		str	r3, [r7, #648]
 737:Lib/AI_Runtime/Npu/ll_aton/ll_sw_float.c ****     break;
 5594              		.loc 1 737 5
 5595 0406 68E0     		b	.L130
 5596              	.L123:
 738:Lib/AI_Runtime/Npu/ll_aton/ll_sw_float.c ****   case LL_SW_GREATER:
 739:Lib/AI_Runtime/Npu/ll_aton/ll_sw_float.c ****     op = ((func_binary)(ai_greater));
ARM GAS  /tmp/ccEo7NLA.s 			page 118


 5597              		.loc 1 739 8
 5598 0408 234B     		ldr	r3, .L137+32
 5599 040a C7F88C32 		str	r3, [r7, #652]
 740:Lib/AI_Runtime/Npu/ll_aton/ll_sw_float.c ****     buffer_op = ((func_buffer_binary)(ai_greater_buffer));
 5600              		.loc 1 740 15
 5601 040e 234B     		ldr	r3, .L137+36
 5602 0410 C7F88832 		str	r3, [r7, #648]
 741:Lib/AI_Runtime/Npu/ll_aton/ll_sw_float.c ****     break;
 5603              		.loc 1 741 5
 5604 0414 61E0     		b	.L130
 5605              	.L121:
 742:Lib/AI_Runtime/Npu/ll_aton/ll_sw_float.c ****   case LL_SW_GREATEROREQUAL:
 743:Lib/AI_Runtime/Npu/ll_aton/ll_sw_float.c ****     op = ((func_binary)(ai_greater_or_equal));
 5606              		.loc 1 743 8
 5607 0416 224B     		ldr	r3, .L137+40
 5608 0418 C7F88C32 		str	r3, [r7, #652]
 744:Lib/AI_Runtime/Npu/ll_aton/ll_sw_float.c ****     buffer_op = ((func_buffer_binary)(ai_greater_or_equal_buffer));
 5609              		.loc 1 744 15
 5610 041c 214B     		ldr	r3, .L137+44
 5611 041e C7F88832 		str	r3, [r7, #648]
 745:Lib/AI_Runtime/Npu/ll_aton/ll_sw_float.c ****     break;
 5612              		.loc 1 745 5
 5613 0422 5AE0     		b	.L130
 5614              	.L122:
 746:Lib/AI_Runtime/Npu/ll_aton/ll_sw_float.c ****   case LL_SW_LESS:
 747:Lib/AI_Runtime/Npu/ll_aton/ll_sw_float.c ****     op = ((func_binary)(ai_less));
 5615              		.loc 1 747 8
 5616 0424 204B     		ldr	r3, .L137+48
 5617 0426 C7F88C32 		str	r3, [r7, #652]
 748:Lib/AI_Runtime/Npu/ll_aton/ll_sw_float.c ****     buffer_op = ((func_buffer_binary)(ai_less_buffer));
 5618              		.loc 1 748 15
 5619 042a 204B     		ldr	r3, .L137+52
 5620 042c C7F88832 		str	r3, [r7, #648]
 749:Lib/AI_Runtime/Npu/ll_aton/ll_sw_float.c ****     break;
 5621              		.loc 1 749 5
 5622 0430 53E0     		b	.L130
 5623              	.L124:
 750:Lib/AI_Runtime/Npu/ll_aton/ll_sw_float.c ****   case LL_SW_EQUAL:
 751:Lib/AI_Runtime/Npu/ll_aton/ll_sw_float.c ****     op = ((func_binary)(ai_equal));
 5624              		.loc 1 751 8
 5625 0432 1F4B     		ldr	r3, .L137+56
 5626 0434 C7F88C32 		str	r3, [r7, #652]
 752:Lib/AI_Runtime/Npu/ll_aton/ll_sw_float.c ****     buffer_op = ((func_buffer_binary)(ai_equal_buffer));
 5627              		.loc 1 752 15
 5628 0438 1E4B     		ldr	r3, .L137+60
 5629 043a C7F88832 		str	r3, [r7, #648]
 753:Lib/AI_Runtime/Npu/ll_aton/ll_sw_float.c ****     break;
 5630              		.loc 1 753 5
 5631 043e 4CE0     		b	.L130
 5632              	.L120:
 754:Lib/AI_Runtime/Npu/ll_aton/ll_sw_float.c ****   case LL_SW_LESSOREQUAL:
 755:Lib/AI_Runtime/Npu/ll_aton/ll_sw_float.c ****     op = ((func_binary)(ai_less_or_equal));
 5633              		.loc 1 755 8
 5634 0440 1D4B     		ldr	r3, .L137+64
 5635 0442 C7F88C32 		str	r3, [r7, #652]
 756:Lib/AI_Runtime/Npu/ll_aton/ll_sw_float.c ****     buffer_op = ((func_buffer_binary)(ai_less_or_equal_buffer));
 5636              		.loc 1 756 15
ARM GAS  /tmp/ccEo7NLA.s 			page 119


 5637 0446 1D4B     		ldr	r3, .L137+68
 5638 0448 C7F88832 		str	r3, [r7, #648]
 757:Lib/AI_Runtime/Npu/ll_aton/ll_sw_float.c ****     break;
 5639              		.loc 1 757 5
 5640 044c 45E0     		b	.L130
 5641              	.L119:
 758:Lib/AI_Runtime/Npu/ll_aton/ll_sw_float.c ****   case LL_SW_MIN:
 759:Lib/AI_Runtime/Npu/ll_aton/ll_sw_float.c ****     op = ((func_binary)(ai_min));
 5642              		.loc 1 759 8
 5643 044e 1C4B     		ldr	r3, .L137+72
 5644 0450 C7F88C32 		str	r3, [r7, #652]
 760:Lib/AI_Runtime/Npu/ll_aton/ll_sw_float.c ****     buffer_op = ((func_buffer_binary)(ai_min_buffer));
 5645              		.loc 1 760 15
 5646 0454 1B4B     		ldr	r3, .L137+76
 5647 0456 C7F88832 		str	r3, [r7, #648]
 761:Lib/AI_Runtime/Npu/ll_aton/ll_sw_float.c ****     break;
 5648              		.loc 1 761 5
 5649 045a 3EE0     		b	.L130
 5650              	.L118:
 762:Lib/AI_Runtime/Npu/ll_aton/ll_sw_float.c ****   case LL_SW_MAX:
 763:Lib/AI_Runtime/Npu/ll_aton/ll_sw_float.c ****     op = ((func_binary)(ai_max));
 5651              		.loc 1 763 8
 5652 045c 1A4B     		ldr	r3, .L137+80
 5653 045e C7F88C32 		str	r3, [r7, #652]
 764:Lib/AI_Runtime/Npu/ll_aton/ll_sw_float.c ****     buffer_op = ((func_buffer_binary)(ai_max_buffer));
 5654              		.loc 1 764 15
 5655 0462 1A4B     		ldr	r3, .L137+84
 5656 0464 C7F88832 		str	r3, [r7, #648]
 765:Lib/AI_Runtime/Npu/ll_aton/ll_sw_float.c ****     break;
 5657              		.loc 1 765 5
 5658 0468 37E0     		b	.L130
 5659              	.L116:
 766:Lib/AI_Runtime/Npu/ll_aton/ll_sw_float.c ****   case LL_SW_MOD:
 767:Lib/AI_Runtime/Npu/ll_aton/ll_sw_float.c ****     op = ((func_binary)(ai_floor_mod));
 5660              		.loc 1 767 8
 5661 046a 194B     		ldr	r3, .L137+88
 5662 046c C7F88C32 		str	r3, [r7, #652]
 768:Lib/AI_Runtime/Npu/ll_aton/ll_sw_float.c ****     buffer_op = ((func_buffer_binary)(ai_floor_mod_buffer));
 5663              		.loc 1 768 15
 5664 0470 184B     		ldr	r3, .L137+92
 5665 0472 C7F88832 		str	r3, [r7, #648]
 769:Lib/AI_Runtime/Npu/ll_aton/ll_sw_float.c ****     break;
 5666              		.loc 1 769 5
 5667 0476 30E0     		b	.L130
 5668              	.L138:
 5669              		.align	2
 5670              	.L137:
 5671 0478 00000000 		.word	ai_mul
 5672 047c 00000000 		.word	ai_mul_buffer
 5673 0480 00000000 		.word	ai_div
 5674 0484 00000000 		.word	ai_div_buffer
 5675 0488 00000000 		.word	ai_sub
 5676 048c 00000000 		.word	ai_sub_buffer
 5677 0490 00000000 		.word	ai_pow
 5678 0494 00000000 		.word	ai_pow_buffer
 5679 0498 00000000 		.word	ai_greater
 5680 049c 00000000 		.word	ai_greater_buffer
ARM GAS  /tmp/ccEo7NLA.s 			page 120


 5681 04a0 00000000 		.word	ai_greater_or_equal
 5682 04a4 00000000 		.word	ai_greater_or_equal_buffer
 5683 04a8 00000000 		.word	ai_less
 5684 04ac 00000000 		.word	ai_less_buffer
 5685 04b0 00000000 		.word	ai_equal
 5686 04b4 00000000 		.word	ai_equal_buffer
 5687 04b8 00000000 		.word	ai_less_or_equal
 5688 04bc 00000000 		.word	ai_less_or_equal_buffer
 5689 04c0 00000000 		.word	ai_min
 5690 04c4 00000000 		.word	ai_min_buffer
 5691 04c8 00000000 		.word	ai_max
 5692 04cc 00000000 		.word	ai_max_buffer
 5693 04d0 00000000 		.word	ai_floor_mod
 5694 04d4 00000000 		.word	ai_floor_mod_buffer
 5695              	.L134:
 770:Lib/AI_Runtime/Npu/ll_aton/ll_sw_float.c ****   default:
 771:Lib/AI_Runtime/Npu/ll_aton/ll_sw_float.c **** #ifdef LL_SW_ENABLE_ASSERTS
 772:Lib/AI_Runtime/Npu/ll_aton/ll_sw_float.c ****     LL_ATON_ASSERT(0 && "ELEMENT WISE OPERATION NOT SUPPORTED");
 773:Lib/AI_Runtime/Npu/ll_aton/ll_sw_float.c **** #endif
 774:Lib/AI_Runtime/Npu/ll_aton/ll_sw_float.c ****     break;
 5696              		.loc 1 774 5
 5697 04d8 00BF     		nop
 5698              	.L130:
 775:Lib/AI_Runtime/Npu/ll_aton/ll_sw_float.c ****   }
 776:Lib/AI_Runtime/Npu/ll_aton/ll_sw_float.c **** 
 777:Lib/AI_Runtime/Npu/ll_aton/ll_sw_float.c ****   if (sw_info->general.type == LL_SW_ARITHSUM && sw_info->num_of_inputs == 4)
 5699              		.loc 1 777 23
 5700 04da D7F88432 		ldr	r3, [r7, #644]
 5701 04de 1B78     		ldrb	r3, [r3]	@ zero_extendqisi2
 5702              		.loc 1 777 6
 5703 04e0 0D2B     		cmp	r3, #13
 5704 04e2 40F06D82 		bne	.L131
 5705              		.loc 1 777 57 discriminator 1
 5706 04e6 D7F88432 		ldr	r3, [r7, #644]
 5707 04ea D3F8E030 		ldr	r3, [r3, #224]
 5708              		.loc 1 777 47 discriminator 1
 5709 04ee 042B     		cmp	r3, #4
 5710 04f0 40F06682 		bne	.L131
 5711              	.LBB42:
 778:Lib/AI_Runtime/Npu/ll_aton/ll_sw_float.c ****   {
 779:Lib/AI_Runtime/Npu/ll_aton/ll_sw_float.c ****     AI_ARRAY_OBJ_DECLARE(arith_operand_array1, FORMAT, sw_info->operand1.mem.start_offset,
 5712              		.loc 1 779 5
 5713 04f4 07F52473 		add	r3, r7, #656
 5714 04f8 A3F58073 		sub	r3, r3, #256
 5715 04fc E14A     		ldr	r2, .L139
 5716 04fe 1A60     		str	r2, [r3]
 5717 0500 D7F88432 		ldr	r3, [r7, #644]
 5718 0504 D3F89820 		ldr	r2, [r3, #152]
 5719 0508 07F52473 		add	r3, r7, #656
 5720 050c A3F58073 		sub	r3, r3, #256
 5721 0510 5A60     		str	r2, [r3, #4]
 5722 0512 D7F88432 		ldr	r3, [r7, #644]
 5723 0516 D3F8AC20 		ldr	r2, [r3, #172]
 5724 051a 07F52473 		add	r3, r7, #656
 5725 051e A3F58073 		sub	r3, r3, #256
 5726 0522 9A60     		str	r2, [r3, #8]
 5727 0524 D7F88432 		ldr	r3, [r7, #644]
ARM GAS  /tmp/ccEo7NLA.s 			page 121


 5728 0528 D3F8AC20 		ldr	r2, [r3, #172]
 5729 052c 07F52473 		add	r3, r7, #656
 5730 0530 A3F58073 		sub	r3, r3, #256
 5731 0534 DA60     		str	r2, [r3, #12]
 780:Lib/AI_Runtime/Npu/ll_aton/ll_sw_float.c ****                          sw_info->operand1.mem.start_offset, sw_info->operand1.dim.num_elem, );
 781:Lib/AI_Runtime/Npu/ll_aton/ll_sw_float.c ****     AI_ARRAY_OBJ_DECLARE(arith_operand_array2, FORMAT, sw_info->operand2.mem.start_offset,
 5732              		.loc 1 781 5
 5733 0536 07F52473 		add	r3, r7, #656
 5734 053a A3F58873 		sub	r3, r3, #272
 5735 053e D14A     		ldr	r2, .L139
 5736 0540 1A60     		str	r2, [r3]
 5737 0542 D7F88432 		ldr	r3, [r7, #644]
 5738 0546 D3F8C420 		ldr	r2, [r3, #196]
 5739 054a 07F52473 		add	r3, r7, #656
 5740 054e A3F58873 		sub	r3, r3, #272
 5741 0552 5A60     		str	r2, [r3, #4]
 5742 0554 D7F88432 		ldr	r3, [r7, #644]
 5743 0558 D3F8D820 		ldr	r2, [r3, #216]
 5744 055c 07F52473 		add	r3, r7, #656
 5745 0560 A3F58873 		sub	r3, r3, #272
 5746 0564 9A60     		str	r2, [r3, #8]
 5747 0566 D7F88432 		ldr	r3, [r7, #644]
 5748 056a D3F8D820 		ldr	r2, [r3, #216]
 5749 056e 07F52473 		add	r3, r7, #656
 5750 0572 A3F58873 		sub	r3, r3, #272
 5751 0576 DA60     		str	r2, [r3, #12]
 782:Lib/AI_Runtime/Npu/ll_aton/ll_sw_float.c ****                          sw_info->operand2.mem.start_offset, sw_info->operand2.dim.num_elem, );
 783:Lib/AI_Runtime/Npu/ll_aton/ll_sw_float.c ****     AI_TENSOR_OBJ_DECLARE(arith_operand1, , 0x0, 4,
 5752              		.loc 1 783 5
 5753 0578 07F52473 		add	r3, r7, #656
 5754 057c A3F59673 		sub	r3, r3, #300
 5755 0580 0022     		movs	r2, #0
 5756 0582 1A60     		str	r2, [r3]
 5757 0584 07F52473 		add	r3, r7, #656
 5758 0588 A3F59673 		sub	r3, r3, #300
 5759 058c 0022     		movs	r2, #0
 5760 058e 9A80     		strh	r2, [r3, #4]	@ movhi
 5761 0590 07F52473 		add	r3, r7, #656
 5762 0594 A3F59673 		sub	r3, r3, #300
 5763 0598 0422     		movs	r2, #4
 5764 059a 9A71     		strb	r2, [r3, #6]
 5765 059c 07F52473 		add	r3, r7, #656
 5766 05a0 A3F59673 		sub	r3, r3, #300
 5767 05a4 0122     		movs	r2, #1
 5768 05a6 DA71     		strb	r2, [r3, #7]
 5769 05a8 07F52473 		add	r3, r7, #656
 5770 05ac A3F59673 		sub	r3, r3, #300
 5771 05b0 0122     		movs	r2, #1
 5772 05b2 1A72     		strb	r2, [r3, #8]
 5773 05b4 07F52473 		add	r3, r7, #656
 5774 05b8 A3F59672 		sub	r2, r3, #300
 5775 05bc 9368     		ldr	r3, [r2, #8]
 5776 05be 0421     		movs	r1, #4
 5777 05c0 61F31F23 		bfi	r3, r1, #8, #24
 5778 05c4 9360     		str	r3, [r2, #8]
 5779 05c6 D7F88432 		ldr	r3, [r7, #644]
 5780 05ca D3F89420 		ldr	r2, [r3, #148]
ARM GAS  /tmp/ccEo7NLA.s 			page 122


 5781 05ce 07F52473 		add	r3, r7, #656
 5782 05d2 A3F59E73 		sub	r3, r3, #316
 5783 05d6 1A60     		str	r2, [r3]
 5784 05d8 D7F88432 		ldr	r3, [r7, #644]
 5785 05dc D3F89020 		ldr	r2, [r3, #144]
 5786 05e0 07F52473 		add	r3, r7, #656
 5787 05e4 A3F59E73 		sub	r3, r3, #316
 5788 05e8 5A60     		str	r2, [r3, #4]
 5789 05ea D7F88432 		ldr	r3, [r7, #644]
 5790 05ee D3F88C20 		ldr	r2, [r3, #140]
 5791 05f2 07F52473 		add	r3, r7, #656
 5792 05f6 A3F59E73 		sub	r3, r3, #316
 5793 05fa 9A60     		str	r2, [r3, #8]
 5794 05fc D7F88432 		ldr	r3, [r7, #644]
 5795 0600 D3F88820 		ldr	r2, [r3, #136]
 5796 0604 07F52473 		add	r3, r7, #656
 5797 0608 A3F59E73 		sub	r3, r3, #316
 5798 060c DA60     		str	r2, [r3, #12]
 5799 060e 07F52473 		add	r3, r7, #656
 5800 0612 A3F59673 		sub	r3, r3, #300
 5801 0616 07F5AA72 		add	r2, r7, #340
 5802 061a DA60     		str	r2, [r3, #12]
 5803 061c 07F52473 		add	r3, r7, #656
 5804 0620 A3F59673 		sub	r3, r3, #300
 5805 0624 0222     		movs	r2, #2
 5806 0626 1A74     		strb	r2, [r3, #16]
 5807 0628 07F52473 		add	r3, r7, #656
 5808 062c A3F59672 		sub	r2, r3, #300
 5809 0630 1369     		ldr	r3, [r2, #16]
 5810 0632 0421     		movs	r1, #4
 5811 0634 61F31F23 		bfi	r3, r1, #8, #24
 5812 0638 1361     		str	r3, [r2, #16]
 5813 063a D7F88432 		ldr	r3, [r7, #644]
 5814 063e D3F8A830 		ldr	r3, [r3, #168]
 5815 0642 1A46     		mov	r2, r3
 5816 0644 07F52473 		add	r3, r7, #656
 5817 0648 A3F5A673 		sub	r3, r3, #332
 5818 064c 1A60     		str	r2, [r3]
 5819 064e D7F88432 		ldr	r3, [r7, #644]
 5820 0652 D3F8A430 		ldr	r3, [r3, #164]
 5821 0656 1A46     		mov	r2, r3
 5822 0658 07F52473 		add	r3, r7, #656
 5823 065c A3F5A673 		sub	r3, r3, #332
 5824 0660 5A60     		str	r2, [r3, #4]
 5825 0662 D7F88432 		ldr	r3, [r7, #644]
 5826 0666 D3F8A030 		ldr	r3, [r3, #160]
 5827 066a 1A46     		mov	r2, r3
 5828 066c 07F52473 		add	r3, r7, #656
 5829 0670 A3F5A673 		sub	r3, r3, #332
 5830 0674 9A60     		str	r2, [r3, #8]
 5831 0676 D7F88432 		ldr	r3, [r7, #644]
 5832 067a D3F89C30 		ldr	r3, [r3, #156]
 5833 067e 1A46     		mov	r2, r3
 5834 0680 07F52473 		add	r3, r7, #656
 5835 0684 A3F5A673 		sub	r3, r3, #332
 5836 0688 DA60     		str	r2, [r3, #12]
 5837 068a 07F52473 		add	r3, r7, #656
ARM GAS  /tmp/ccEo7NLA.s 			page 123


 5838 068e A3F59673 		sub	r3, r3, #300
 5839 0692 07F5A272 		add	r2, r7, #324
 5840 0696 5A61     		str	r2, [r3, #20]
 5841 0698 07F52473 		add	r3, r7, #656
 5842 069c A3F59673 		sub	r3, r3, #300
 5843 06a0 07F5C872 		add	r2, r7, #400
 5844 06a4 9A61     		str	r2, [r3, #24]
 784:Lib/AI_Runtime/Npu/ll_aton/ll_sw_float.c ****                           SHAPE_INIT(sw_info->operand1.dim.tensor_h, sw_info->operand1.dim.tensor_w
 785:Lib/AI_Runtime/Npu/ll_aton/ll_sw_float.c ****                                      sw_info->operand1.dim.tensor_c, sw_info->operand1.dim.tensor_b
 786:Lib/AI_Runtime/Npu/ll_aton/ll_sw_float.c ****                           STRIDE_INIT(sw_info->operand1.stride.h, sw_info->operand1.stride.w,
 787:Lib/AI_Runtime/Npu/ll_aton/ll_sw_float.c ****                                       sw_info->operand1.stride.c, sw_info->operand1.stride.b),
 788:Lib/AI_Runtime/Npu/ll_aton/ll_sw_float.c ****                           1, &arith_operand_array1, NULL);
 789:Lib/AI_Runtime/Npu/ll_aton/ll_sw_float.c ****     AI_TENSOR_OBJ_DECLARE(arith_operand2, , 0x0, 4,
 5845              		.loc 1 789 5
 5846 06a6 07F52473 		add	r3, r7, #656
 5847 06aa A3F5B473 		sub	r3, r3, #360
 5848 06ae 0022     		movs	r2, #0
 5849 06b0 1A60     		str	r2, [r3]
 5850 06b2 07F52473 		add	r3, r7, #656
 5851 06b6 A3F5B473 		sub	r3, r3, #360
 5852 06ba 0022     		movs	r2, #0
 5853 06bc 9A80     		strh	r2, [r3, #4]	@ movhi
 5854 06be 07F52473 		add	r3, r7, #656
 5855 06c2 A3F5B473 		sub	r3, r3, #360
 5856 06c6 0422     		movs	r2, #4
 5857 06c8 9A71     		strb	r2, [r3, #6]
 5858 06ca 07F52473 		add	r3, r7, #656
 5859 06ce A3F5B473 		sub	r3, r3, #360
 5860 06d2 0122     		movs	r2, #1
 5861 06d4 DA71     		strb	r2, [r3, #7]
 5862 06d6 07F52473 		add	r3, r7, #656
 5863 06da A3F5B473 		sub	r3, r3, #360
 5864 06de 0122     		movs	r2, #1
 5865 06e0 1A72     		strb	r2, [r3, #8]
 5866 06e2 07F52473 		add	r3, r7, #656
 5867 06e6 A3F5B472 		sub	r2, r3, #360
 5868 06ea 9368     		ldr	r3, [r2, #8]
 5869 06ec 0421     		movs	r1, #4
 5870 06ee 61F31F23 		bfi	r3, r1, #8, #24
 5871 06f2 9360     		str	r3, [r2, #8]
 5872 06f4 D7F88432 		ldr	r3, [r7, #644]
 5873 06f8 D3F8C020 		ldr	r2, [r3, #192]
 5874 06fc 07F52473 		add	r3, r7, #656
 5875 0700 A3F5BC73 		sub	r3, r3, #376
 5876 0704 1A60     		str	r2, [r3]
 5877 0706 D7F88432 		ldr	r3, [r7, #644]
 5878 070a D3F8BC20 		ldr	r2, [r3, #188]
 5879 070e 07F52473 		add	r3, r7, #656
 5880 0712 A3F5BC73 		sub	r3, r3, #376
 5881 0716 5A60     		str	r2, [r3, #4]
 5882 0718 D7F88432 		ldr	r3, [r7, #644]
 5883 071c D3F8B820 		ldr	r2, [r3, #184]
 5884 0720 07F52473 		add	r3, r7, #656
 5885 0724 A3F5BC73 		sub	r3, r3, #376
 5886 0728 9A60     		str	r2, [r3, #8]
 5887 072a D7F88432 		ldr	r3, [r7, #644]
 5888 072e D3F8B420 		ldr	r2, [r3, #180]
ARM GAS  /tmp/ccEo7NLA.s 			page 124


 5889 0732 07F52473 		add	r3, r7, #656
 5890 0736 A3F5BC73 		sub	r3, r3, #376
 5891 073a DA60     		str	r2, [r3, #12]
 5892 073c 07F52473 		add	r3, r7, #656
 5893 0740 A3F5B473 		sub	r3, r3, #360
 5894 0744 07F58C72 		add	r2, r7, #280
 5895 0748 DA60     		str	r2, [r3, #12]
 5896 074a 07F52473 		add	r3, r7, #656
 5897 074e A3F5B473 		sub	r3, r3, #360
 5898 0752 0222     		movs	r2, #2
 5899 0754 1A74     		strb	r2, [r3, #16]
 5900 0756 07F52473 		add	r3, r7, #656
 5901 075a A3F5B472 		sub	r2, r3, #360
 5902 075e 1369     		ldr	r3, [r2, #16]
 5903 0760 0421     		movs	r1, #4
 5904 0762 61F31F23 		bfi	r3, r1, #8, #24
 5905 0766 1361     		str	r3, [r2, #16]
 5906 0768 D7F88432 		ldr	r3, [r7, #644]
 5907 076c D3F8D430 		ldr	r3, [r3, #212]
 5908 0770 1A46     		mov	r2, r3
 5909 0772 07F52473 		add	r3, r7, #656
 5910 0776 A3F5C473 		sub	r3, r3, #392
 5911 077a 1A60     		str	r2, [r3]
 5912 077c D7F88432 		ldr	r3, [r7, #644]
 5913 0780 D3F8D030 		ldr	r3, [r3, #208]
 5914 0784 1A46     		mov	r2, r3
 5915 0786 07F52473 		add	r3, r7, #656
 5916 078a A3F5C473 		sub	r3, r3, #392
 5917 078e 5A60     		str	r2, [r3, #4]
 5918 0790 D7F88432 		ldr	r3, [r7, #644]
 5919 0794 D3F8CC30 		ldr	r3, [r3, #204]
 5920 0798 1A46     		mov	r2, r3
 5921 079a 07F52473 		add	r3, r7, #656
 5922 079e A3F5C473 		sub	r3, r3, #392
 5923 07a2 9A60     		str	r2, [r3, #8]
 5924 07a4 D7F88432 		ldr	r3, [r7, #644]
 5925 07a8 D3F8C830 		ldr	r3, [r3, #200]
 5926 07ac 1A46     		mov	r2, r3
 5927 07ae 07F52473 		add	r3, r7, #656
 5928 07b2 A3F5C473 		sub	r3, r3, #392
 5929 07b6 DA60     		str	r2, [r3, #12]
 5930 07b8 07F52473 		add	r3, r7, #656
 5931 07bc A3F5B473 		sub	r3, r3, #360
 5932 07c0 07F58472 		add	r2, r7, #264
 5933 07c4 5A61     		str	r2, [r3, #20]
 5934 07c6 07F52473 		add	r3, r7, #656
 5935 07ca A3F5B473 		sub	r3, r3, #360
 5936 07ce 07F5C072 		add	r2, r7, #384
 5937 07d2 9A61     		str	r2, [r3, #24]
 790:Lib/AI_Runtime/Npu/ll_aton/ll_sw_float.c ****                           SHAPE_INIT(sw_info->operand2.dim.tensor_h, sw_info->operand2.dim.tensor_w
 791:Lib/AI_Runtime/Npu/ll_aton/ll_sw_float.c ****                                      sw_info->operand2.dim.tensor_c, sw_info->operand2.dim.tensor_b
 792:Lib/AI_Runtime/Npu/ll_aton/ll_sw_float.c ****                           STRIDE_INIT(sw_info->operand2.stride.h, sw_info->operand2.stride.w,
 793:Lib/AI_Runtime/Npu/ll_aton/ll_sw_float.c ****                                       sw_info->operand2.stride.c, sw_info->operand2.stride.b),
 794:Lib/AI_Runtime/Npu/ll_aton/ll_sw_float.c ****                           1, &arith_operand_array2, NULL);
 795:Lib/AI_Runtime/Npu/ll_aton/ll_sw_float.c **** 
 796:Lib/AI_Runtime/Npu/ll_aton/ll_sw_float.c ****     // LL_ATON_PRINTF("\n\n\n #################### 4 inputs\n\n\n");
 797:Lib/AI_Runtime/Npu/ll_aton/ll_sw_float.c ****     AI_TENSOR_CHAIN_OBJ_DECLARE(
ARM GAS  /tmp/ccEo7NLA.s 			page 125


 5938              		.loc 1 797 5
 5939 07d4 07F52473 		add	r3, r7, #656
 5940 07d8 A3F5C873 		sub	r3, r3, #400
 5941 07dc 0422     		movs	r2, #4
 5942 07de 1A80     		strh	r2, [r3]	@ movhi
 5943 07e0 07F52473 		add	r3, r7, #656
 5944 07e4 A3F5C873 		sub	r3, r3, #400
 5945 07e8 0022     		movs	r2, #0
 5946 07ea 5A80     		strh	r2, [r3, #2]	@ movhi
 5947 07ec 07F52473 		add	r3, r7, #656
 5948 07f0 A3F51973 		sub	r3, r3, #612
 5949 07f4 0422     		movs	r2, #4
 5950 07f6 1A80     		strh	r2, [r3]	@ movhi
 5951 07f8 07F52473 		add	r3, r7, #656
 5952 07fc A3F51973 		sub	r3, r3, #612
 5953 0800 0022     		movs	r2, #0
 5954 0802 5A80     		strh	r2, [r3, #2]	@ movhi
 5955 0804 07F52473 		add	r3, r7, #656
 5956 0808 A3F5D073 		sub	r3, r3, #416
 5957 080c 07F50E72 		add	r2, r7, #568
 5958 0810 1A60     		str	r2, [r3]
 5959 0812 07F52473 		add	r3, r7, #656
 5960 0816 A3F5D073 		sub	r3, r3, #416
 5961 081a 07F5FE72 		add	r2, r7, #508
 5962 081e 5A60     		str	r2, [r3, #4]
 5963 0820 07F52473 		add	r3, r7, #656
 5964 0824 A3F5D073 		sub	r3, r3, #416
 5965 0828 07F5B272 		add	r2, r7, #356
 5966 082c 9A60     		str	r2, [r3, #8]
 5967 082e 07F52473 		add	r3, r7, #656
 5968 0832 A3F5D073 		sub	r3, r3, #416
 5969 0836 07F59472 		add	r2, r7, #296
 5970 083a DA60     		str	r2, [r3, #12]
 5971 083c 07F52473 		add	r3, r7, #656
 5972 0840 A3F51973 		sub	r3, r3, #612
 5973 0844 07F1F002 		add	r2, r7, #240
 5974 0848 5A60     		str	r2, [r3, #4]
 5975 084a 07F52473 		add	r3, r7, #656
 5976 084e A3F51973 		sub	r3, r3, #612
 5977 0852 0022     		movs	r2, #0
 5978 0854 9A60     		str	r2, [r3, #8]
 5979 0856 07F52473 		add	r3, r7, #656
 5980 085a A3F51973 		sub	r3, r3, #612
 5981 085e 0122     		movs	r2, #1
 5982 0860 9A81     		strh	r2, [r3, #12]	@ movhi
 5983 0862 07F52473 		add	r3, r7, #656
 5984 0866 A3F51973 		sub	r3, r3, #612
 5985 086a 0022     		movs	r2, #0
 5986 086c DA81     		strh	r2, [r3, #14]	@ movhi
 5987 086e 07F52473 		add	r3, r7, #656
 5988 0872 A3F5D273 		sub	r3, r3, #420
 5989 0876 07F5E072 		add	r2, r7, #448
 5990 087a 1A60     		str	r2, [r3]
 5991 087c 07F52473 		add	r3, r7, #656
 5992 0880 02E0     		b	.L140
 5993              	.L141:
 5994 0882 00BF     		.align	2
ARM GAS  /tmp/ccEo7NLA.s 			page 126


 5995              	.L139:
 5996 0884 40108200 		.word	8523840
 5997              	.L140:
 5998 0888 A3F51973 		sub	r3, r3, #612
 5999 088c 07F1EC02 		add	r2, r7, #236
 6000 0890 1A61     		str	r2, [r3, #16]
 6001 0892 07F52473 		add	r3, r7, #656
 6002 0896 A3F51973 		sub	r3, r3, #612
 6003 089a 0022     		movs	r2, #0
 6004 089c 5A61     		str	r2, [r3, #20]
 6005 089e 07F52473 		add	r3, r7, #656
 6006 08a2 A3F51973 		sub	r3, r3, #612
 6007 08a6 0022     		movs	r2, #0
 6008 08a8 1A83     		strh	r2, [r3, #24]	@ movhi
 6009 08aa 07F52473 		add	r3, r7, #656
 6010 08ae A3F51973 		sub	r3, r3, #612
 6011 08b2 0022     		movs	r2, #0
 6012 08b4 5A83     		strh	r2, [r3, #26]	@ movhi
 6013 08b6 07F52473 		add	r3, r7, #656
 6014 08ba A3F5D473 		sub	r3, r3, #424
 6015 08be 0022     		movs	r2, #0
 6016 08c0 1A60     		str	r2, [r3]
 6017 08c2 07F52473 		add	r3, r7, #656
 6018 08c6 A3F51973 		sub	r3, r3, #612
 6019 08ca 07F1E802 		add	r2, r7, #232
 6020 08ce DA61     		str	r2, [r3, #28]
 6021 08d0 07F52473 		add	r3, r7, #656
 6022 08d4 A3F51973 		sub	r3, r3, #612
 6023 08d8 0022     		movs	r2, #0
 6024 08da 1A62     		str	r2, [r3, #32]
 6025 08dc 07F52473 		add	r3, r7, #656
 6026 08e0 A3F51973 		sub	r3, r3, #612
 6027 08e4 0022     		movs	r2, #0
 6028 08e6 9A84     		strh	r2, [r3, #36]	@ movhi
 6029 08e8 07F52473 		add	r3, r7, #656
 6030 08ec A3F51973 		sub	r3, r3, #612
 6031 08f0 0022     		movs	r2, #0
 6032 08f2 DA84     		strh	r2, [r3, #38]	@ movhi
 6033 08f4 07F52473 		add	r3, r7, #656
 6034 08f8 A3F5D673 		sub	r3, r3, #428
 6035 08fc 0022     		movs	r2, #0
 6036 08fe 1A60     		str	r2, [r3]
 6037 0900 07F52473 		add	r3, r7, #656
 6038 0904 A3F51973 		sub	r3, r3, #612
 6039 0908 07F1E402 		add	r2, r7, #228
 6040 090c 9A62     		str	r2, [r3, #40]
 6041 090e 07F52473 		add	r3, r7, #656
 6042 0912 A3F51973 		sub	r3, r3, #612
 6043 0916 0022     		movs	r2, #0
 6044 0918 DA62     		str	r2, [r3, #44]
 6045 091a 07F52473 		add	r3, r7, #656
 6046 091e A3F5C873 		sub	r3, r3, #400
 6047 0922 07F12C02 		add	r2, r7, #44
 6048 0926 5A60     		str	r2, [r3, #4]
 798:Lib/AI_Runtime/Npu/ll_aton/ll_sw_float.c ****         arith_chain, , 4,
 799:Lib/AI_Runtime/Npu/ll_aton/ll_sw_float.c ****         AI_TENSOR_LIST_OBJ_INIT(AI_FLAG_NONE, 4,
 800:Lib/AI_Runtime/Npu/ll_aton/ll_sw_float.c ****                                 TENSORS(&input_output, &arith_operand, &arith_operand1, &arith_oper
ARM GAS  /tmp/ccEo7NLA.s 			page 127


 801:Lib/AI_Runtime/Npu/ll_aton/ll_sw_float.c ****         AI_TENSOR_LIST_OBJ_INIT(AI_FLAG_NONE, 1, TENSORS(&arith_output)), AI_TENSOR_LIST_OBJ_EMPTY,
 802:Lib/AI_Runtime/Npu/ll_aton/ll_sw_float.c ****         AI_TENSOR_LIST_OBJ_EMPTY);
 803:Lib/AI_Runtime/Npu/ll_aton/ll_sw_float.c ****     AI_LAYER_OBJ_DECLARE(eltwise_layer, 2, ELTWISE_TYPE, 0x0, NULL, eltwise, forward_eltwise, &arit
 6049              		.loc 1 803 5
 6050 0928 07F52473 		add	r3, r7, #656
 6051 092c A3F52273 		sub	r3, r3, #648
 6052 0930 40F21312 		movw	r2, #275
 6053 0934 1A80     		strh	r2, [r3]	@ movhi
 6054 0936 07F52473 		add	r3, r7, #656
 6055 093a A3F52273 		sub	r3, r3, #648
 6056 093e 0222     		movs	r2, #2
 6057 0940 5A80     		strh	r2, [r3, #2]	@ movhi
 6058 0942 07F52473 		add	r3, r7, #656
 6059 0946 A3F52273 		sub	r3, r3, #648
 6060 094a 0022     		movs	r2, #0
 6061 094c 5A60     		str	r2, [r3, #4]
 6062 094e 07F52473 		add	r3, r7, #656
 6063 0952 A3F52273 		sub	r3, r3, #648
 6064 0956 0022     		movs	r2, #0
 6065 0958 9A60     		str	r2, [r3, #8]
 6066 095a 07F52473 		add	r3, r7, #656
 6067 095e A3F52273 		sub	r3, r3, #648
 6068 0962 0022     		movs	r2, #0
 6069 0964 DA60     		str	r2, [r3, #12]
 6070 0966 07F52473 		add	r3, r7, #656
 6071 096a A3F52273 		sub	r3, r3, #648
 6072 096e 0022     		movs	r2, #0
 6073 0970 1A61     		str	r2, [r3, #16]
 6074 0972 07F52473 		add	r3, r7, #656
 6075 0976 A3F52273 		sub	r3, r3, #648
 6076 097a 104A     		ldr	r2, .L142
 6077 097c 5A61     		str	r2, [r3, #20]
 6078 097e 07F52473 		add	r3, r7, #656
 6079 0982 A3F52273 		sub	r3, r3, #648
 6080 0986 07F58072 		add	r2, r7, #256
 6081 098a 9A61     		str	r2, [r3, #24]
 6082 098c 07F52473 		add	r3, r7, #656
 6083 0990 A3F52273 		sub	r3, r3, #648
 6084 0994 D7F88C22 		ldr	r2, [r7, #652]
 6085 0998 DA61     		str	r2, [r3, #28]
 6086 099a 07F52473 		add	r3, r7, #656
 6087 099e A3F52273 		sub	r3, r3, #648
 6088 09a2 D7F88822 		ldr	r2, [r7, #648]
 6089 09a6 1A62     		str	r2, [r3, #32]
 804:Lib/AI_Runtime/Npu/ll_aton/ll_sw_float.c ****                          , .operation = op, .buffer_operation = buffer_op)
 805:Lib/AI_Runtime/Npu/ll_aton/ll_sw_float.c ****     eltwise_layer.forward(AI_LAYER_OBJ(&eltwise_layer));
 6090              		.loc 1 805 18
 6091 09a8 07F52473 		add	r3, r7, #656
 6092 09ac A3F52273 		sub	r3, r3, #648
 6093 09b0 5B69     		ldr	r3, [r3, #20]
 6094              		.loc 1 805 5
 6095 09b2 07F10802 		add	r2, r7, #8
 6096 09b6 1046     		mov	r0, r2
 6097 09b8 9847     		blx	r3
 6098              	.LVL42:
 6099              	.LBE42:
 778:Lib/AI_Runtime/Npu/ll_aton/ll_sw_float.c ****     AI_ARRAY_OBJ_DECLARE(arith_operand_array1, FORMAT, sw_info->operand1.mem.start_offset,
ARM GAS  /tmp/ccEo7NLA.s 			page 128


 6100              		.loc 1 778 3
 6101 09ba 95E2     		b	.L132
 6102              	.L143:
 6103              		.align	2
 6104              	.L142:
 6105 09bc 00000000 		.word	forward_eltwise
 6106              	.L131:
 806:Lib/AI_Runtime/Npu/ll_aton/ll_sw_float.c ****   }
 807:Lib/AI_Runtime/Npu/ll_aton/ll_sw_float.c ****   else if (sw_info->general.type == LL_SW_ARITHSUM && sw_info->num_of_inputs == 3)
 6107              		.loc 1 807 28
 6108 09c0 D7F88432 		ldr	r3, [r7, #644]
 6109 09c4 1B78     		ldrb	r3, [r3]	@ zero_extendqisi2
 6110              		.loc 1 807 11
 6111 09c6 0D2B     		cmp	r3, #13
 6112 09c8 40F0AC81 		bne	.L133
 6113              		.loc 1 807 62 discriminator 1
 6114 09cc D7F88432 		ldr	r3, [r7, #644]
 6115 09d0 D3F8E030 		ldr	r3, [r3, #224]
 6116              		.loc 1 807 52 discriminator 1
 6117 09d4 032B     		cmp	r3, #3
 6118 09d6 40F0A581 		bne	.L133
 6119              	.LBB43:
 808:Lib/AI_Runtime/Npu/ll_aton/ll_sw_float.c ****   {
 809:Lib/AI_Runtime/Npu/ll_aton/ll_sw_float.c ****     AI_ARRAY_OBJ_DECLARE(arith_operand_array1, FORMAT, sw_info->operand1.mem.start_offset,
 6120              		.loc 1 809 5
 6121 09da 07F52473 		add	r3, r7, #656
 6122 09de A3F5DE73 		sub	r3, r3, #444
 6123 09e2 CE4A     		ldr	r2, .L144
 6124 09e4 1A60     		str	r2, [r3]
 6125 09e6 D7F88432 		ldr	r3, [r7, #644]
 6126 09ea D3F89820 		ldr	r2, [r3, #152]
 6127 09ee 07F52473 		add	r3, r7, #656
 6128 09f2 A3F5DE73 		sub	r3, r3, #444
 6129 09f6 5A60     		str	r2, [r3, #4]
 6130 09f8 D7F88432 		ldr	r3, [r7, #644]
 6131 09fc D3F8AC20 		ldr	r2, [r3, #172]
 6132 0a00 07F52473 		add	r3, r7, #656
 6133 0a04 A3F5DE73 		sub	r3, r3, #444
 6134 0a08 9A60     		str	r2, [r3, #8]
 6135 0a0a D7F88432 		ldr	r3, [r7, #644]
 6136 0a0e D3F8AC20 		ldr	r2, [r3, #172]
 6137 0a12 07F52473 		add	r3, r7, #656
 6138 0a16 A3F5DE73 		sub	r3, r3, #444
 6139 0a1a DA60     		str	r2, [r3, #12]
 810:Lib/AI_Runtime/Npu/ll_aton/ll_sw_float.c ****                          sw_info->operand1.mem.start_offset, sw_info->operand1.dim.num_elem, );
 811:Lib/AI_Runtime/Npu/ll_aton/ll_sw_float.c ****     AI_TENSOR_OBJ_DECLARE(arith_operand1, , 0x0, 4,
 6140              		.loc 1 811 5
 6141 0a1c 07F52473 		add	r3, r7, #656
 6142 0a20 A3F5EC73 		sub	r3, r3, #472
 6143 0a24 0022     		movs	r2, #0
 6144 0a26 1A60     		str	r2, [r3]
 6145 0a28 07F52473 		add	r3, r7, #656
 6146 0a2c A3F5EC73 		sub	r3, r3, #472
 6147 0a30 0022     		movs	r2, #0
 6148 0a32 9A80     		strh	r2, [r3, #4]	@ movhi
 6149 0a34 07F52473 		add	r3, r7, #656
 6150 0a38 A3F5EC73 		sub	r3, r3, #472
ARM GAS  /tmp/ccEo7NLA.s 			page 129


 6151 0a3c 0422     		movs	r2, #4
 6152 0a3e 9A71     		strb	r2, [r3, #6]
 6153 0a40 07F52473 		add	r3, r7, #656
 6154 0a44 A3F5EC73 		sub	r3, r3, #472
 6155 0a48 0122     		movs	r2, #1
 6156 0a4a DA71     		strb	r2, [r3, #7]
 6157 0a4c 07F52473 		add	r3, r7, #656
 6158 0a50 A3F5EC73 		sub	r3, r3, #472
 6159 0a54 0122     		movs	r2, #1
 6160 0a56 1A72     		strb	r2, [r3, #8]
 6161 0a58 07F52473 		add	r3, r7, #656
 6162 0a5c A3F5EC72 		sub	r2, r3, #472
 6163 0a60 9368     		ldr	r3, [r2, #8]
 6164 0a62 0421     		movs	r1, #4
 6165 0a64 61F31F23 		bfi	r3, r1, #8, #24
 6166 0a68 9360     		str	r3, [r2, #8]
 6167 0a6a D7F88432 		ldr	r3, [r7, #644]
 6168 0a6e D3F89420 		ldr	r2, [r3, #148]
 6169 0a72 07F52473 		add	r3, r7, #656
 6170 0a76 A3F5F473 		sub	r3, r3, #488
 6171 0a7a 1A60     		str	r2, [r3]
 6172 0a7c D7F88432 		ldr	r3, [r7, #644]
 6173 0a80 D3F89020 		ldr	r2, [r3, #144]
 6174 0a84 07F52473 		add	r3, r7, #656
 6175 0a88 A3F5F473 		sub	r3, r3, #488
 6176 0a8c 5A60     		str	r2, [r3, #4]
 6177 0a8e D7F88432 		ldr	r3, [r7, #644]
 6178 0a92 D3F88C20 		ldr	r2, [r3, #140]
 6179 0a96 07F52473 		add	r3, r7, #656
 6180 0a9a A3F5F473 		sub	r3, r3, #488
 6181 0a9e 9A60     		str	r2, [r3, #8]
 6182 0aa0 D7F88432 		ldr	r3, [r7, #644]
 6183 0aa4 D3F88820 		ldr	r2, [r3, #136]
 6184 0aa8 07F52473 		add	r3, r7, #656
 6185 0aac A3F5F473 		sub	r3, r3, #488
 6186 0ab0 DA60     		str	r2, [r3, #12]
 6187 0ab2 07F52473 		add	r3, r7, #656
 6188 0ab6 A3F5EC73 		sub	r3, r3, #472
 6189 0aba 07F1A802 		add	r2, r7, #168
 6190 0abe DA60     		str	r2, [r3, #12]
 6191 0ac0 07F52473 		add	r3, r7, #656
 6192 0ac4 A3F5EC73 		sub	r3, r3, #472
 6193 0ac8 0222     		movs	r2, #2
 6194 0aca 1A74     		strb	r2, [r3, #16]
 6195 0acc 07F52473 		add	r3, r7, #656
 6196 0ad0 A3F5EC72 		sub	r2, r3, #472
 6197 0ad4 1369     		ldr	r3, [r2, #16]
 6198 0ad6 0421     		movs	r1, #4
 6199 0ad8 61F31F23 		bfi	r3, r1, #8, #24
 6200 0adc 1361     		str	r3, [r2, #16]
 6201 0ade D7F88432 		ldr	r3, [r7, #644]
 6202 0ae2 D3F8A830 		ldr	r3, [r3, #168]
 6203 0ae6 1A46     		mov	r2, r3
 6204 0ae8 07F52473 		add	r3, r7, #656
 6205 0aec A3F5FC73 		sub	r3, r3, #504
 6206 0af0 1A60     		str	r2, [r3]
 6207 0af2 D7F88432 		ldr	r3, [r7, #644]
ARM GAS  /tmp/ccEo7NLA.s 			page 130


 6208 0af6 D3F8A430 		ldr	r3, [r3, #164]
 6209 0afa 1A46     		mov	r2, r3
 6210 0afc 07F52473 		add	r3, r7, #656
 6211 0b00 A3F5FC73 		sub	r3, r3, #504
 6212 0b04 5A60     		str	r2, [r3, #4]
 6213 0b06 D7F88432 		ldr	r3, [r7, #644]
 6214 0b0a D3F8A030 		ldr	r3, [r3, #160]
 6215 0b0e 1A46     		mov	r2, r3
 6216 0b10 07F52473 		add	r3, r7, #656
 6217 0b14 A3F5FC73 		sub	r3, r3, #504
 6218 0b18 9A60     		str	r2, [r3, #8]
 6219 0b1a D7F88432 		ldr	r3, [r7, #644]
 6220 0b1e D3F89C30 		ldr	r3, [r3, #156]
 6221 0b22 1A46     		mov	r2, r3
 6222 0b24 07F52473 		add	r3, r7, #656
 6223 0b28 A3F5FC73 		sub	r3, r3, #504
 6224 0b2c DA60     		str	r2, [r3, #12]
 6225 0b2e 07F52473 		add	r3, r7, #656
 6226 0b32 A3F5EC73 		sub	r3, r3, #472
 6227 0b36 07F19802 		add	r2, r7, #152
 6228 0b3a 5A61     		str	r2, [r3, #20]
 6229 0b3c 07F52473 		add	r3, r7, #656
 6230 0b40 A3F5EC73 		sub	r3, r3, #472
 6231 0b44 07F1D402 		add	r2, r7, #212
 6232 0b48 9A61     		str	r2, [r3, #24]
 812:Lib/AI_Runtime/Npu/ll_aton/ll_sw_float.c ****                           SHAPE_INIT(sw_info->operand1.dim.tensor_h, sw_info->operand1.dim.tensor_w
 813:Lib/AI_Runtime/Npu/ll_aton/ll_sw_float.c ****                                      sw_info->operand1.dim.tensor_c, sw_info->operand1.dim.tensor_b
 814:Lib/AI_Runtime/Npu/ll_aton/ll_sw_float.c ****                           STRIDE_INIT(sw_info->operand1.stride.h, sw_info->operand1.stride.w,
 815:Lib/AI_Runtime/Npu/ll_aton/ll_sw_float.c ****                                       sw_info->operand1.stride.c, sw_info->operand1.stride.b),
 816:Lib/AI_Runtime/Npu/ll_aton/ll_sw_float.c ****                           1, &arith_operand_array1, NULL);
 817:Lib/AI_Runtime/Npu/ll_aton/ll_sw_float.c ****     // LL_ATON_PRINTF("\n\n\n #################### 3 inputs\n\n\n");
 818:Lib/AI_Runtime/Npu/ll_aton/ll_sw_float.c ****     AI_TENSOR_CHAIN_OBJ_DECLARE(
 6233              		.loc 1 818 5
 6234 0b4a 07F52473 		add	r3, r7, #656
 6235 0b4e A3F50073 		sub	r3, r3, #512
 6236 0b52 0422     		movs	r2, #4
 6237 0b54 1A80     		strh	r2, [r3]	@ movhi
 6238 0b56 07F52473 		add	r3, r7, #656
 6239 0b5a A3F50073 		sub	r3, r3, #512
 6240 0b5e 0022     		movs	r2, #0
 6241 0b60 5A80     		strh	r2, [r3, #2]	@ movhi
 6242 0b62 07F52473 		add	r3, r7, #656
 6243 0b66 A3F51973 		sub	r3, r3, #612
 6244 0b6a 0322     		movs	r2, #3
 6245 0b6c 1A80     		strh	r2, [r3]	@ movhi
 6246 0b6e 07F52473 		add	r3, r7, #656
 6247 0b72 A3F51973 		sub	r3, r3, #612
 6248 0b76 0022     		movs	r2, #0
 6249 0b78 5A80     		strh	r2, [r3, #2]	@ movhi
 6250 0b7a 07F52473 		add	r3, r7, #656
 6251 0b7e A3F50373 		sub	r3, r3, #524
 6252 0b82 07F50E72 		add	r2, r7, #568
 6253 0b86 1A60     		str	r2, [r3]
 6254 0b88 07F52473 		add	r3, r7, #656
 6255 0b8c A3F50373 		sub	r3, r3, #524
 6256 0b90 07F5FE72 		add	r2, r7, #508
 6257 0b94 5A60     		str	r2, [r3, #4]
ARM GAS  /tmp/ccEo7NLA.s 			page 131


 6258 0b96 07F52473 		add	r3, r7, #656
 6259 0b9a A3F50373 		sub	r3, r3, #524
 6260 0b9e 07F1B802 		add	r2, r7, #184
 6261 0ba2 9A60     		str	r2, [r3, #8]
 6262 0ba4 07F52473 		add	r3, r7, #656
 6263 0ba8 A3F51973 		sub	r3, r3, #612
 6264 0bac 07F18402 		add	r2, r7, #132
 6265 0bb0 5A60     		str	r2, [r3, #4]
 6266 0bb2 07F52473 		add	r3, r7, #656
 6267 0bb6 A3F51973 		sub	r3, r3, #612
 6268 0bba 0022     		movs	r2, #0
 6269 0bbc 9A60     		str	r2, [r3, #8]
 6270 0bbe 07F52473 		add	r3, r7, #656
 6271 0bc2 A3F51973 		sub	r3, r3, #612
 6272 0bc6 0122     		movs	r2, #1
 6273 0bc8 9A81     		strh	r2, [r3, #12]	@ movhi
 6274 0bca 07F52473 		add	r3, r7, #656
 6275 0bce A3F51973 		sub	r3, r3, #612
 6276 0bd2 0022     		movs	r2, #0
 6277 0bd4 DA81     		strh	r2, [r3, #14]	@ movhi
 6278 0bd6 07F52473 		add	r3, r7, #656
 6279 0bda A3F50473 		sub	r3, r3, #528
 6280 0bde 07F5E072 		add	r2, r7, #448
 6281 0be2 1A60     		str	r2, [r3]
 6282 0be4 07F52473 		add	r3, r7, #656
 6283 0be8 A3F51973 		sub	r3, r3, #612
 6284 0bec 07F18002 		add	r2, r7, #128
 6285 0bf0 1A61     		str	r2, [r3, #16]
 6286 0bf2 07F52473 		add	r3, r7, #656
 6287 0bf6 A3F51973 		sub	r3, r3, #612
 6288 0bfa 0022     		movs	r2, #0
 6289 0bfc 5A61     		str	r2, [r3, #20]
 6290 0bfe 07F52473 		add	r3, r7, #656
 6291 0c02 A3F51973 		sub	r3, r3, #612
 6292 0c06 0022     		movs	r2, #0
 6293 0c08 1A83     		strh	r2, [r3, #24]	@ movhi
 6294 0c0a 07F52473 		add	r3, r7, #656
 6295 0c0e A3F51973 		sub	r3, r3, #612
 6296 0c12 0022     		movs	r2, #0
 6297 0c14 5A83     		strh	r2, [r3, #26]	@ movhi
 6298 0c16 07F52473 		add	r3, r7, #656
 6299 0c1a A3F50573 		sub	r3, r3, #532
 6300 0c1e 0022     		movs	r2, #0
 6301 0c20 1A60     		str	r2, [r3]
 6302 0c22 07F52473 		add	r3, r7, #656
 6303 0c26 A3F51973 		sub	r3, r3, #612
 6304 0c2a 07F17C02 		add	r2, r7, #124
 6305 0c2e DA61     		str	r2, [r3, #28]
 6306 0c30 07F52473 		add	r3, r7, #656
 6307 0c34 A3F51973 		sub	r3, r3, #612
 6308 0c38 0022     		movs	r2, #0
 6309 0c3a 1A62     		str	r2, [r3, #32]
 6310 0c3c 07F52473 		add	r3, r7, #656
 6311 0c40 A3F51973 		sub	r3, r3, #612
 6312 0c44 0022     		movs	r2, #0
 6313 0c46 9A84     		strh	r2, [r3, #36]	@ movhi
 6314 0c48 07F52473 		add	r3, r7, #656
ARM GAS  /tmp/ccEo7NLA.s 			page 132


 6315 0c4c A3F51973 		sub	r3, r3, #612
 6316 0c50 0022     		movs	r2, #0
 6317 0c52 DA84     		strh	r2, [r3, #38]	@ movhi
 6318 0c54 07F52473 		add	r3, r7, #656
 6319 0c58 A3F50673 		sub	r3, r3, #536
 6320 0c5c 0022     		movs	r2, #0
 6321 0c5e 1A60     		str	r2, [r3]
 6322 0c60 07F52473 		add	r3, r7, #656
 6323 0c64 A3F51973 		sub	r3, r3, #612
 6324 0c68 07F17802 		add	r2, r7, #120
 6325 0c6c 9A62     		str	r2, [r3, #40]
 6326 0c6e 07F52473 		add	r3, r7, #656
 6327 0c72 A3F51973 		sub	r3, r3, #612
 6328 0c76 0022     		movs	r2, #0
 6329 0c78 DA62     		str	r2, [r3, #44]
 6330 0c7a 07F52473 		add	r3, r7, #656
 6331 0c7e A3F50073 		sub	r3, r3, #512
 6332 0c82 07F12C02 		add	r2, r7, #44
 6333 0c86 5A60     		str	r2, [r3, #4]
 819:Lib/AI_Runtime/Npu/ll_aton/ll_sw_float.c ****         arith_chain, , 4,
 820:Lib/AI_Runtime/Npu/ll_aton/ll_sw_float.c ****         AI_TENSOR_LIST_OBJ_INIT(AI_FLAG_NONE, 3, TENSORS(&input_output, &arith_operand, &arith_oper
 821:Lib/AI_Runtime/Npu/ll_aton/ll_sw_float.c ****         AI_TENSOR_LIST_OBJ_INIT(AI_FLAG_NONE, 1, TENSORS(&arith_output)), AI_TENSOR_LIST_OBJ_EMPTY,
 822:Lib/AI_Runtime/Npu/ll_aton/ll_sw_float.c ****         AI_TENSOR_LIST_OBJ_EMPTY);
 823:Lib/AI_Runtime/Npu/ll_aton/ll_sw_float.c ****     AI_LAYER_OBJ_DECLARE(eltwise_layer, 2, ELTWISE_TYPE, 0x0, NULL, eltwise, forward_eltwise, &arit
 6334              		.loc 1 823 5
 6335 0c88 07F52473 		add	r3, r7, #656
 6336 0c8c A3F52273 		sub	r3, r3, #648
 6337 0c90 40F21312 		movw	r2, #275
 6338 0c94 1A80     		strh	r2, [r3]	@ movhi
 6339 0c96 07F52473 		add	r3, r7, #656
 6340 0c9a A3F52273 		sub	r3, r3, #648
 6341 0c9e 0222     		movs	r2, #2
 6342 0ca0 5A80     		strh	r2, [r3, #2]	@ movhi
 6343 0ca2 07F52473 		add	r3, r7, #656
 6344 0ca6 A3F52273 		sub	r3, r3, #648
 6345 0caa 0022     		movs	r2, #0
 6346 0cac 5A60     		str	r2, [r3, #4]
 6347 0cae 07F52473 		add	r3, r7, #656
 6348 0cb2 A3F52273 		sub	r3, r3, #648
 6349 0cb6 0022     		movs	r2, #0
 6350 0cb8 9A60     		str	r2, [r3, #8]
 6351 0cba 07F52473 		add	r3, r7, #656
 6352 0cbe A3F52273 		sub	r3, r3, #648
 6353 0cc2 0022     		movs	r2, #0
 6354 0cc4 DA60     		str	r2, [r3, #12]
 6355 0cc6 07F52473 		add	r3, r7, #656
 6356 0cca A3F52273 		sub	r3, r3, #648
 6357 0cce 0022     		movs	r2, #0
 6358 0cd0 1A61     		str	r2, [r3, #16]
 6359 0cd2 07F52473 		add	r3, r7, #656
 6360 0cd6 A3F52273 		sub	r3, r3, #648
 6361 0cda 114A     		ldr	r2, .L144+4
 6362 0cdc 5A61     		str	r2, [r3, #20]
 6363 0cde 07F52473 		add	r3, r7, #656
 6364 0ce2 A3F52273 		sub	r3, r3, #648
 6365 0ce6 07F19002 		add	r2, r7, #144
 6366 0cea 9A61     		str	r2, [r3, #24]
ARM GAS  /tmp/ccEo7NLA.s 			page 133


 6367 0cec 07F52473 		add	r3, r7, #656
 6368 0cf0 A3F52273 		sub	r3, r3, #648
 6369 0cf4 D7F88C22 		ldr	r2, [r7, #652]
 6370 0cf8 DA61     		str	r2, [r3, #28]
 6371 0cfa 07F52473 		add	r3, r7, #656
 6372 0cfe A3F52273 		sub	r3, r3, #648
 6373 0d02 D7F88822 		ldr	r2, [r7, #648]
 6374 0d06 1A62     		str	r2, [r3, #32]
 824:Lib/AI_Runtime/Npu/ll_aton/ll_sw_float.c ****                          , .operation = op, .buffer_operation = buffer_op)
 825:Lib/AI_Runtime/Npu/ll_aton/ll_sw_float.c ****     eltwise_layer.forward(AI_LAYER_OBJ(&eltwise_layer));
 6375              		.loc 1 825 18
 6376 0d08 07F52473 		add	r3, r7, #656
 6377 0d0c A3F52273 		sub	r3, r3, #648
 6378 0d10 5B69     		ldr	r3, [r3, #20]
 6379              		.loc 1 825 5
 6380 0d12 07F10802 		add	r2, r7, #8
 6381 0d16 1046     		mov	r0, r2
 6382 0d18 9847     		blx	r3
 6383              	.LVL43:
 6384              	.LBE43:
 808:Lib/AI_Runtime/Npu/ll_aton/ll_sw_float.c ****     AI_ARRAY_OBJ_DECLARE(arith_operand_array1, FORMAT, sw_info->operand1.mem.start_offset,
 6385              		.loc 1 808 3
 6386 0d1a E5E0     		b	.L132
 6387              	.L145:
 6388              		.align	2
 6389              	.L144:
 6390 0d1c 40108200 		.word	8523840
 6391 0d20 00000000 		.word	forward_eltwise
 6392              	.L133:
 6393              	.LBB44:
 826:Lib/AI_Runtime/Npu/ll_aton/ll_sw_float.c ****   }
 827:Lib/AI_Runtime/Npu/ll_aton/ll_sw_float.c ****   else
 828:Lib/AI_Runtime/Npu/ll_aton/ll_sw_float.c ****   {
 829:Lib/AI_Runtime/Npu/ll_aton/ll_sw_float.c ****     // LL_ATON_PRINTF("\n\n\n #################### 2 inputs\n\n\n");
 830:Lib/AI_Runtime/Npu/ll_aton/ll_sw_float.c ****     AI_TENSOR_CHAIN_OBJ_DECLARE(arith_chain, , 4,
 6394              		.loc 1 830 5
 6395 0d24 07F52473 		add	r3, r7, #656
 6396 0d28 A3F50873 		sub	r3, r3, #544
 6397 0d2c 0422     		movs	r2, #4
 6398 0d2e 1A80     		strh	r2, [r3]	@ movhi
 6399 0d30 07F52473 		add	r3, r7, #656
 6400 0d34 A3F50873 		sub	r3, r3, #544
 6401 0d38 0022     		movs	r2, #0
 6402 0d3a 5A80     		strh	r2, [r3, #2]	@ movhi
 6403 0d3c 07F52473 		add	r3, r7, #656
 6404 0d40 A3F51973 		sub	r3, r3, #612
 6405 0d44 0222     		movs	r2, #2
 6406 0d46 1A80     		strh	r2, [r3]	@ movhi
 6407 0d48 07F52473 		add	r3, r7, #656
 6408 0d4c A3F51973 		sub	r3, r3, #612
 6409 0d50 0022     		movs	r2, #0
 6410 0d52 5A80     		strh	r2, [r3, #2]	@ movhi
 6411 0d54 07F52473 		add	r3, r7, #656
 6412 0d58 A3F50A73 		sub	r3, r3, #552
 6413 0d5c 07F50E72 		add	r2, r7, #568
 6414 0d60 1A60     		str	r2, [r3]
 6415 0d62 07F52473 		add	r3, r7, #656
ARM GAS  /tmp/ccEo7NLA.s 			page 134


 6416 0d66 A3F50A73 		sub	r3, r3, #552
 6417 0d6a 07F5FE72 		add	r2, r7, #508
 6418 0d6e 5A60     		str	r2, [r3, #4]
 6419 0d70 07F52473 		add	r3, r7, #656
 6420 0d74 A3F51973 		sub	r3, r3, #612
 6421 0d78 07F16802 		add	r2, r7, #104
 6422 0d7c 5A60     		str	r2, [r3, #4]
 6423 0d7e 07F52473 		add	r3, r7, #656
 6424 0d82 A3F51973 		sub	r3, r3, #612
 6425 0d86 0022     		movs	r2, #0
 6426 0d88 9A60     		str	r2, [r3, #8]
 6427 0d8a 07F52473 		add	r3, r7, #656
 6428 0d8e A3F51973 		sub	r3, r3, #612
 6429 0d92 0122     		movs	r2, #1
 6430 0d94 9A81     		strh	r2, [r3, #12]	@ movhi
 6431 0d96 07F52473 		add	r3, r7, #656
 6432 0d9a A3F51973 		sub	r3, r3, #612
 6433 0d9e 0022     		movs	r2, #0
 6434 0da0 DA81     		strh	r2, [r3, #14]	@ movhi
 6435 0da2 07F52473 		add	r3, r7, #656
 6436 0da6 A3F50B73 		sub	r3, r3, #556
 6437 0daa 07F5E072 		add	r2, r7, #448
 6438 0dae 1A60     		str	r2, [r3]
 6439 0db0 07F52473 		add	r3, r7, #656
 6440 0db4 A3F51973 		sub	r3, r3, #612
 6441 0db8 07F16402 		add	r2, r7, #100
 6442 0dbc 1A61     		str	r2, [r3, #16]
 6443 0dbe 07F52473 		add	r3, r7, #656
 6444 0dc2 A3F51973 		sub	r3, r3, #612
 6445 0dc6 0022     		movs	r2, #0
 6446 0dc8 5A61     		str	r2, [r3, #20]
 6447 0dca 07F52473 		add	r3, r7, #656
 6448 0dce A3F51973 		sub	r3, r3, #612
 6449 0dd2 0022     		movs	r2, #0
 6450 0dd4 1A83     		strh	r2, [r3, #24]	@ movhi
 6451 0dd6 07F52473 		add	r3, r7, #656
 6452 0dda A3F51973 		sub	r3, r3, #612
 6453 0dde 0022     		movs	r2, #0
 6454 0de0 5A83     		strh	r2, [r3, #26]	@ movhi
 6455 0de2 07F52473 		add	r3, r7, #656
 6456 0de6 A3F50C73 		sub	r3, r3, #560
 6457 0dea 0022     		movs	r2, #0
 6458 0dec 1A60     		str	r2, [r3]
 6459 0dee 07F52473 		add	r3, r7, #656
 6460 0df2 A3F51973 		sub	r3, r3, #612
 6461 0df6 07F16002 		add	r2, r7, #96
 6462 0dfa DA61     		str	r2, [r3, #28]
 6463 0dfc 07F52473 		add	r3, r7, #656
 6464 0e00 A3F51973 		sub	r3, r3, #612
 6465 0e04 0022     		movs	r2, #0
 6466 0e06 1A62     		str	r2, [r3, #32]
 6467 0e08 07F52473 		add	r3, r7, #656
 6468 0e0c A3F51973 		sub	r3, r3, #612
 6469 0e10 0022     		movs	r2, #0
 6470 0e12 9A84     		strh	r2, [r3, #36]	@ movhi
 6471 0e14 07F52473 		add	r3, r7, #656
 6472 0e18 A3F51973 		sub	r3, r3, #612
ARM GAS  /tmp/ccEo7NLA.s 			page 135


 6473 0e1c 0022     		movs	r2, #0
 6474 0e1e DA84     		strh	r2, [r3, #38]	@ movhi
 6475 0e20 07F52473 		add	r3, r7, #656
 6476 0e24 A3F50D73 		sub	r3, r3, #564
 6477 0e28 0022     		movs	r2, #0
 6478 0e2a 1A60     		str	r2, [r3]
 6479 0e2c 07F52473 		add	r3, r7, #656
 6480 0e30 A3F51973 		sub	r3, r3, #612
 6481 0e34 07F15C02 		add	r2, r7, #92
 6482 0e38 9A62     		str	r2, [r3, #40]
 6483 0e3a 07F52473 		add	r3, r7, #656
 6484 0e3e A3F51973 		sub	r3, r3, #612
 6485 0e42 0022     		movs	r2, #0
 6486 0e44 DA62     		str	r2, [r3, #44]
 6487 0e46 07F52473 		add	r3, r7, #656
 6488 0e4a A3F50873 		sub	r3, r3, #544
 6489 0e4e 07F12C02 		add	r2, r7, #44
 6490 0e52 5A60     		str	r2, [r3, #4]
 831:Lib/AI_Runtime/Npu/ll_aton/ll_sw_float.c ****                                 AI_TENSOR_LIST_OBJ_INIT(AI_FLAG_NONE, 2, TENSORS(&input_output, &ar
 832:Lib/AI_Runtime/Npu/ll_aton/ll_sw_float.c ****                                 AI_TENSOR_LIST_OBJ_INIT(AI_FLAG_NONE, 1, TENSORS(&arith_output)),
 833:Lib/AI_Runtime/Npu/ll_aton/ll_sw_float.c ****                                 AI_TENSOR_LIST_OBJ_EMPTY, AI_TENSOR_LIST_OBJ_EMPTY);
 834:Lib/AI_Runtime/Npu/ll_aton/ll_sw_float.c ****     AI_LAYER_OBJ_DECLARE(eltwise_layer, 2, ELTWISE_TYPE, 0x0, NULL, eltwise, forward_eltwise, &arit
 6491              		.loc 1 834 5
 6492 0e54 07F52473 		add	r3, r7, #656
 6493 0e58 A3F52273 		sub	r3, r3, #648
 6494 0e5c 40F21312 		movw	r2, #275
 6495 0e60 1A80     		strh	r2, [r3]	@ movhi
 6496 0e62 07F52473 		add	r3, r7, #656
 6497 0e66 A3F52273 		sub	r3, r3, #648
 6498 0e6a 0222     		movs	r2, #2
 6499 0e6c 5A80     		strh	r2, [r3, #2]	@ movhi
 6500 0e6e 07F52473 		add	r3, r7, #656
 6501 0e72 A3F52273 		sub	r3, r3, #648
 6502 0e76 0022     		movs	r2, #0
 6503 0e78 5A60     		str	r2, [r3, #4]
 6504 0e7a 07F52473 		add	r3, r7, #656
 6505 0e7e A3F52273 		sub	r3, r3, #648
 6506 0e82 0022     		movs	r2, #0
 6507 0e84 9A60     		str	r2, [r3, #8]
 6508 0e86 07F52473 		add	r3, r7, #656
 6509 0e8a A3F52273 		sub	r3, r3, #648
 6510 0e8e 0022     		movs	r2, #0
 6511 0e90 DA60     		str	r2, [r3, #12]
 6512 0e92 07F52473 		add	r3, r7, #656
 6513 0e96 A3F52273 		sub	r3, r3, #648
 6514 0e9a 0022     		movs	r2, #0
 6515 0e9c 1A61     		str	r2, [r3, #16]
 6516 0e9e 07F52473 		add	r3, r7, #656
 6517 0ea2 A3F52273 		sub	r3, r3, #648
 6518 0ea6 134A     		ldr	r2, .L146
 6519 0ea8 5A61     		str	r2, [r3, #20]
 6520 0eaa 07F52473 		add	r3, r7, #656
 6521 0eae A3F52273 		sub	r3, r3, #648
 6522 0eb2 07F17002 		add	r2, r7, #112
 6523 0eb6 9A61     		str	r2, [r3, #24]
 6524 0eb8 07F52473 		add	r3, r7, #656
 6525 0ebc A3F52273 		sub	r3, r3, #648
ARM GAS  /tmp/ccEo7NLA.s 			page 136


 6526 0ec0 D7F88C22 		ldr	r2, [r7, #652]
 6527 0ec4 DA61     		str	r2, [r3, #28]
 6528 0ec6 07F52473 		add	r3, r7, #656
 6529 0eca A3F52273 		sub	r3, r3, #648
 6530 0ece D7F88822 		ldr	r2, [r7, #648]
 6531 0ed2 1A62     		str	r2, [r3, #32]
 835:Lib/AI_Runtime/Npu/ll_aton/ll_sw_float.c ****                          , .operation = op, .buffer_operation = buffer_op)
 836:Lib/AI_Runtime/Npu/ll_aton/ll_sw_float.c ****     eltwise_layer.forward(AI_LAYER_OBJ(&eltwise_layer));
 6532              		.loc 1 836 18
 6533 0ed4 07F52473 		add	r3, r7, #656
 6534 0ed8 A3F52273 		sub	r3, r3, #648
 6535 0edc 5B69     		ldr	r3, [r3, #20]
 6536              		.loc 1 836 5
 6537 0ede 07F10802 		add	r2, r7, #8
 6538 0ee2 1046     		mov	r0, r2
 6539 0ee4 9847     		blx	r3
 6540              	.LVL44:
 6541              	.LBE44:
 837:Lib/AI_Runtime/Npu/ll_aton/ll_sw_float.c ****   }
 838:Lib/AI_Runtime/Npu/ll_aton/ll_sw_float.c **** }
 6542              		.loc 1 838 1
 6543 0ee6 00BF     		nop
 6544              	.L132:
 6545 0ee8 00BF     		nop
 6546 0eea 07F52477 		add	r7, r7, #656
 6547              		.cfi_def_cfa_offset 8
 6548 0eee BD46     		mov	sp, r7
 6549              		.cfi_def_cfa_register 13
 6550              		@ sp needed
 6551 0ef0 80BD     		pop	{r7, pc}
 6552              	.L147:
 6553 0ef2 00BF     		.align	2
 6554              	.L146:
 6555 0ef4 00000000 		.word	forward_eltwise
 6556              		.cfi_endproc
 6557              	.LFE21:
 6559              		.section	.text.ll_sw_forward_pool,"ax",%progbits
 6560              		.align	1
 6561              		.global	ll_sw_forward_pool
 6562              		.syntax unified
 6563              		.thumb
 6564              		.thumb_func
 6566              	ll_sw_forward_pool:
 6567              	.LFB22:
 839:Lib/AI_Runtime/Npu/ll_aton/ll_sw_float.c **** 
 840:Lib/AI_Runtime/Npu/ll_aton/ll_sw_float.c **** //##########################################################################################
 841:Lib/AI_Runtime/Npu/ll_aton/ll_sw_float.c **** /** pool forward function  */
 842:Lib/AI_Runtime/Npu/ll_aton/ll_sw_float.c **** void ll_sw_forward_pool(/* int processor, */ void *sw_info_struct)
 843:Lib/AI_Runtime/Npu/ll_aton/ll_sw_float.c **** {
 6568              		.loc 1 843 1
 6569              		.cfi_startproc
 6570              		@ args = 0, pretend = 0, frame = 320
 6571              		@ frame_needed = 1, uses_anonymous_args = 0
 6572 0000 80B5     		push	{r7, lr}
 6573              		.cfi_def_cfa_offset 8
 6574              		.cfi_offset 7, -8
 6575              		.cfi_offset 14, -4
ARM GAS  /tmp/ccEo7NLA.s 			page 137


 6576 0002 D0B0     		sub	sp, sp, #320
 6577              		.cfi_def_cfa_offset 328
 6578 0004 00AF     		add	r7, sp, #0
 6579              		.cfi_def_cfa_register 7
 6580 0006 07F5A073 		add	r3, r7, #320
 6581 000a A3F59E73 		sub	r3, r3, #316
 6582 000e 1860     		str	r0, [r3]
 844:Lib/AI_Runtime/Npu/ll_aton/ll_sw_float.c ****   Pool_sw_info *sw_info = (Pool_sw_info *)sw_info_struct;
 6583              		.loc 1 844 17
 6584 0010 07F5A073 		add	r3, r7, #320
 6585 0014 A3F59E73 		sub	r3, r3, #316
 6586 0018 1B68     		ldr	r3, [r3]
 6587 001a C7F83431 		str	r3, [r7, #308]
 845:Lib/AI_Runtime/Npu/ll_aton/ll_sw_float.c ****   AI_ARRAY_OBJ_DECLARE(input_output_array, FORMAT, sw_info->general.input.mem.start_offset,
 6588              		.loc 1 845 3
 6589 001e 964B     		ldr	r3, .L153
 6590 0020 C7F82431 		str	r3, [r7, #292]
 6591 0024 D7F83431 		ldr	r3, [r7, #308]
 6592 0028 5B69     		ldr	r3, [r3, #20]
 6593 002a C7F82831 		str	r3, [r7, #296]
 6594 002e D7F83431 		ldr	r3, [r7, #308]
 6595 0032 9B6A     		ldr	r3, [r3, #40]
 6596 0034 C7F82C31 		str	r3, [r7, #300]
 6597 0038 D7F83431 		ldr	r3, [r7, #308]
 6598 003c 9B6A     		ldr	r3, [r3, #40]
 6599 003e C7F83031 		str	r3, [r7, #304]
 846:Lib/AI_Runtime/Npu/ll_aton/ll_sw_float.c ****                        sw_info->general.input.mem.start_offset, sw_info->general.input.dim.num_elem
 847:Lib/AI_Runtime/Npu/ll_aton/ll_sw_float.c ****   AI_ARRAY_OBJ_DECLARE(pool_output_array, FORMAT, sw_info->general.output.mem.start_offset,
 6600              		.loc 1 847 3
 6601 0042 8D4B     		ldr	r3, .L153
 6602 0044 C7F81431 		str	r3, [r7, #276]
 6603 0048 D7F83431 		ldr	r3, [r7, #308]
 6604 004c 1B6C     		ldr	r3, [r3, #64]
 6605 004e C7F81831 		str	r3, [r7, #280]
 6606 0052 D7F83431 		ldr	r3, [r7, #308]
 6607 0056 5B6D     		ldr	r3, [r3, #84]
 6608 0058 C7F81C31 		str	r3, [r7, #284]
 6609 005c D7F83431 		ldr	r3, [r7, #308]
 6610 0060 5B6D     		ldr	r3, [r3, #84]
 6611 0062 C7F82031 		str	r3, [r7, #288]
 848:Lib/AI_Runtime/Npu/ll_aton/ll_sw_float.c ****                        sw_info->general.output.mem.start_offset, sw_info->general.output.dim.num_el
 849:Lib/AI_Runtime/Npu/ll_aton/ll_sw_float.c ****   // tensor init
 850:Lib/AI_Runtime/Npu/ll_aton/ll_sw_float.c ****   AI_TENSOR_OBJ_DECLARE(input_output, , 0x0, 4,
 6612              		.loc 1 850 3
 6613 0066 0023     		movs	r3, #0
 6614 0068 C7F8F830 		str	r3, [r7, #248]
 6615 006c 0023     		movs	r3, #0
 6616 006e A7F8FC30 		strh	r3, [r7, #252]	@ movhi
 6617 0072 0423     		movs	r3, #4
 6618 0074 87F8FE30 		strb	r3, [r7, #254]
 6619 0078 0123     		movs	r3, #1
 6620 007a 87F8FF30 		strb	r3, [r7, #255]
 6621 007e 0123     		movs	r3, #1
 6622 0080 87F80031 		strb	r3, [r7, #256]
 6623 0084 D7F80031 		ldr	r3, [r7, #256]
 6624 0088 0422     		movs	r2, #4
 6625 008a 62F31F23 		bfi	r3, r2, #8, #24
ARM GAS  /tmp/ccEo7NLA.s 			page 138


 6626 008e C7F80031 		str	r3, [r7, #256]
 6627 0092 D7F83431 		ldr	r3, [r7, #308]
 6628 0096 1B69     		ldr	r3, [r3, #16]
 6629 0098 C7F8E830 		str	r3, [r7, #232]
 6630 009c D7F83431 		ldr	r3, [r7, #308]
 6631 00a0 DB68     		ldr	r3, [r3, #12]
 6632 00a2 C7F8EC30 		str	r3, [r7, #236]
 6633 00a6 D7F83431 		ldr	r3, [r7, #308]
 6634 00aa 9B68     		ldr	r3, [r3, #8]
 6635 00ac C7F8F030 		str	r3, [r7, #240]
 6636 00b0 D7F83431 		ldr	r3, [r7, #308]
 6637 00b4 5B68     		ldr	r3, [r3, #4]
 6638 00b6 C7F8F430 		str	r3, [r7, #244]
 6639 00ba 07F1E803 		add	r3, r7, #232
 6640 00be C7F80431 		str	r3, [r7, #260]
 6641 00c2 0223     		movs	r3, #2
 6642 00c4 87F80831 		strb	r3, [r7, #264]
 6643 00c8 D7F80831 		ldr	r3, [r7, #264]
 6644 00cc 0422     		movs	r2, #4
 6645 00ce 62F31F23 		bfi	r3, r2, #8, #24
 6646 00d2 C7F80831 		str	r3, [r7, #264]
 6647 00d6 D7F83431 		ldr	r3, [r7, #308]
 6648 00da 5B6A     		ldr	r3, [r3, #36]
 6649 00dc C7F8D830 		str	r3, [r7, #216]
 6650 00e0 D7F83431 		ldr	r3, [r7, #308]
 6651 00e4 1B6A     		ldr	r3, [r3, #32]
 6652 00e6 C7F8DC30 		str	r3, [r7, #220]
 6653 00ea D7F83431 		ldr	r3, [r7, #308]
 6654 00ee DB69     		ldr	r3, [r3, #28]
 6655 00f0 C7F8E030 		str	r3, [r7, #224]
 6656 00f4 D7F83431 		ldr	r3, [r7, #308]
 6657 00f8 9B69     		ldr	r3, [r3, #24]
 6658 00fa C7F8E430 		str	r3, [r7, #228]
 6659 00fe 07F1D803 		add	r3, r7, #216
 6660 0102 C7F80C31 		str	r3, [r7, #268]
 6661 0106 07F59273 		add	r3, r7, #292
 6662 010a C7F81031 		str	r3, [r7, #272]
 851:Lib/AI_Runtime/Npu/ll_aton/ll_sw_float.c ****                         SHAPE_INIT(sw_info->general.input.dim.tensor_h, sw_info->general.input.dim.
 852:Lib/AI_Runtime/Npu/ll_aton/ll_sw_float.c ****                                    sw_info->general.input.dim.tensor_c, sw_info->general.input.dim.
 853:Lib/AI_Runtime/Npu/ll_aton/ll_sw_float.c ****                         STRIDE_INIT(sw_info->general.input.stride.h, sw_info->general.input.stride.
 854:Lib/AI_Runtime/Npu/ll_aton/ll_sw_float.c ****                                     sw_info->general.input.stride.c, sw_info->general.input.stride.
 855:Lib/AI_Runtime/Npu/ll_aton/ll_sw_float.c ****                         1, &input_output_array, NULL)
 856:Lib/AI_Runtime/Npu/ll_aton/ll_sw_float.c ****   AI_TENSOR_OBJ_DECLARE(pool_output, , 0x0, 4,
 6663              		.loc 1 856 3
 6664 010e 0023     		movs	r3, #0
 6665 0110 C7F8BC30 		str	r3, [r7, #188]
 6666 0114 0023     		movs	r3, #0
 6667 0116 A7F8C030 		strh	r3, [r7, #192]	@ movhi
 6668 011a 0423     		movs	r3, #4
 6669 011c 87F8C230 		strb	r3, [r7, #194]
 6670 0120 0123     		movs	r3, #1
 6671 0122 87F8C330 		strb	r3, [r7, #195]
 6672 0126 0123     		movs	r3, #1
 6673 0128 87F8C430 		strb	r3, [r7, #196]
 6674 012c D7F8C430 		ldr	r3, [r7, #196]
 6675 0130 0422     		movs	r2, #4
 6676 0132 62F31F23 		bfi	r3, r2, #8, #24
ARM GAS  /tmp/ccEo7NLA.s 			page 139


 6677 0136 C7F8C430 		str	r3, [r7, #196]
 6678 013a D7F83431 		ldr	r3, [r7, #308]
 6679 013e DB6B     		ldr	r3, [r3, #60]
 6680 0140 C7F8AC30 		str	r3, [r7, #172]
 6681 0144 D7F83431 		ldr	r3, [r7, #308]
 6682 0148 9B6B     		ldr	r3, [r3, #56]
 6683 014a C7F8B030 		str	r3, [r7, #176]
 6684 014e D7F83431 		ldr	r3, [r7, #308]
 6685 0152 5B6B     		ldr	r3, [r3, #52]
 6686 0154 C7F8B430 		str	r3, [r7, #180]
 6687 0158 D7F83431 		ldr	r3, [r7, #308]
 6688 015c 1B6B     		ldr	r3, [r3, #48]
 6689 015e C7F8B830 		str	r3, [r7, #184]
 6690 0162 07F1AC03 		add	r3, r7, #172
 6691 0166 C7F8C830 		str	r3, [r7, #200]
 6692 016a 0223     		movs	r3, #2
 6693 016c 87F8CC30 		strb	r3, [r7, #204]
 6694 0170 D7F8CC30 		ldr	r3, [r7, #204]
 6695 0174 0422     		movs	r2, #4
 6696 0176 62F31F23 		bfi	r3, r2, #8, #24
 6697 017a C7F8CC30 		str	r3, [r7, #204]
 6698 017e D7F83431 		ldr	r3, [r7, #308]
 6699 0182 1B6D     		ldr	r3, [r3, #80]
 6700 0184 C7F89C30 		str	r3, [r7, #156]
 6701 0188 D7F83431 		ldr	r3, [r7, #308]
 6702 018c DB6C     		ldr	r3, [r3, #76]
 6703 018e C7F8A030 		str	r3, [r7, #160]
 6704 0192 D7F83431 		ldr	r3, [r7, #308]
 6705 0196 9B6C     		ldr	r3, [r3, #72]
 6706 0198 C7F8A430 		str	r3, [r7, #164]
 6707 019c D7F83431 		ldr	r3, [r7, #308]
 6708 01a0 5B6C     		ldr	r3, [r3, #68]
 6709 01a2 C7F8A830 		str	r3, [r7, #168]
 6710 01a6 07F19C03 		add	r3, r7, #156
 6711 01aa C7F8D030 		str	r3, [r7, #208]
 6712 01ae 07F58A73 		add	r3, r7, #276
 6713 01b2 C7F8D430 		str	r3, [r7, #212]
 857:Lib/AI_Runtime/Npu/ll_aton/ll_sw_float.c ****                         SHAPE_INIT(sw_info->general.output.dim.tensor_h, sw_info->general.output.di
 858:Lib/AI_Runtime/Npu/ll_aton/ll_sw_float.c ****                                    sw_info->general.output.dim.tensor_c, sw_info->general.output.di
 859:Lib/AI_Runtime/Npu/ll_aton/ll_sw_float.c ****                         STRIDE_INIT(sw_info->general.output.stride.h, sw_info->general.output.strid
 860:Lib/AI_Runtime/Npu/ll_aton/ll_sw_float.c ****                                     sw_info->general.output.stride.c, sw_info->general.output.strid
 861:Lib/AI_Runtime/Npu/ll_aton/ll_sw_float.c ****                         1, &pool_output_array, NULL)
 862:Lib/AI_Runtime/Npu/ll_aton/ll_sw_float.c ****   // tensor chain initialization
 863:Lib/AI_Runtime/Npu/ll_aton/ll_sw_float.c ****   AI_TENSOR_CHAIN_OBJ_DECLARE(pool_chain, , 4, AI_TENSOR_LIST_OBJ_INIT(AI_FLAG_NONE, 1, TENSORS(&in
 6714              		.loc 1 863 3
 6715 01b6 0423     		movs	r3, #4
 6716 01b8 A7F89430 		strh	r3, [r7, #148]	@ movhi
 6717 01bc 0023     		movs	r3, #0
 6718 01be A7F89630 		strh	r3, [r7, #150]	@ movhi
 6719 01c2 0123     		movs	r3, #1
 6720 01c4 A7F85430 		strh	r3, [r7, #84]	@ movhi
 6721 01c8 0023     		movs	r3, #0
 6722 01ca A7F85630 		strh	r3, [r7, #86]	@ movhi
 6723 01ce 07F1F803 		add	r3, r7, #248
 6724 01d2 C7F89030 		str	r3, [r7, #144]
 6725 01d6 07F19003 		add	r3, r7, #144
 6726 01da BB65     		str	r3, [r7, #88]
ARM GAS  /tmp/ccEo7NLA.s 			page 140


 6727 01dc 0023     		movs	r3, #0
 6728 01de FB65     		str	r3, [r7, #92]
 6729 01e0 0123     		movs	r3, #1
 6730 01e2 A7F86030 		strh	r3, [r7, #96]	@ movhi
 6731 01e6 0023     		movs	r3, #0
 6732 01e8 A7F86230 		strh	r3, [r7, #98]	@ movhi
 6733 01ec 07F1BC03 		add	r3, r7, #188
 6734 01f0 C7F88C30 		str	r3, [r7, #140]
 6735 01f4 07F18C03 		add	r3, r7, #140
 6736 01f8 7B66     		str	r3, [r7, #100]
 6737 01fa 0023     		movs	r3, #0
 6738 01fc BB66     		str	r3, [r7, #104]
 6739 01fe 0023     		movs	r3, #0
 6740 0200 A7F86C30 		strh	r3, [r7, #108]	@ movhi
 6741 0204 0023     		movs	r3, #0
 6742 0206 A7F86E30 		strh	r3, [r7, #110]	@ movhi
 6743 020a 0023     		movs	r3, #0
 6744 020c C7F88830 		str	r3, [r7, #136]
 6745 0210 07F18803 		add	r3, r7, #136
 6746 0214 3B67     		str	r3, [r7, #112]
 6747 0216 0023     		movs	r3, #0
 6748 0218 7B67     		str	r3, [r7, #116]
 6749 021a 0023     		movs	r3, #0
 6750 021c A7F87830 		strh	r3, [r7, #120]	@ movhi
 6751 0220 0023     		movs	r3, #0
 6752 0222 A7F87A30 		strh	r3, [r7, #122]	@ movhi
 6753 0226 0023     		movs	r3, #0
 6754 0228 C7F88430 		str	r3, [r7, #132]
 6755 022c 07F18403 		add	r3, r7, #132
 6756 0230 FB67     		str	r3, [r7, #124]
 6757 0232 0023     		movs	r3, #0
 6758 0234 C7F88030 		str	r3, [r7, #128]
 6759 0238 07F15403 		add	r3, r7, #84
 6760 023c C7F89830 		str	r3, [r7, #152]
 864:Lib/AI_Runtime/Npu/ll_aton/ll_sw_float.c ****                               AI_TENSOR_LIST_OBJ_INIT(AI_FLAG_NONE, 1, TENSORS(&pool_output)), AI_T
 865:Lib/AI_Runtime/Npu/ll_aton/ll_sw_float.c ****                               AI_TENSOR_LIST_OBJ_EMPTY)
 866:Lib/AI_Runtime/Npu/ll_aton/ll_sw_float.c **** 
 867:Lib/AI_Runtime/Npu/ll_aton/ll_sw_float.c ****   node_func func = NULL;
 6761              		.loc 1 867 13
 6762 0240 0023     		movs	r3, #0
 6763 0242 C7F83C31 		str	r3, [r7, #316]
 868:Lib/AI_Runtime/Npu/ll_aton/ll_sw_float.c ****   bool count_include_pad = 0;
 6764              		.loc 1 868 8
 6765 0246 0023     		movs	r3, #0
 6766 0248 87F83B31 		strb	r3, [r7, #315]
 869:Lib/AI_Runtime/Npu/ll_aton/ll_sw_float.c ****   switch (sw_info->general.type)
 6767              		.loc 1 869 27
 6768 024c D7F83431 		ldr	r3, [r7, #308]
 6769 0250 1B78     		ldrb	r3, [r3]	@ zero_extendqisi2
 6770              		.loc 1 869 3
 6771 0252 062B     		cmp	r3, #6
 6772 0254 0BD0     		beq	.L149
 6773 0256 082B     		cmp	r3, #8
 6774 0258 14D1     		bne	.L152
 870:Lib/AI_Runtime/Npu/ll_aton/ll_sw_float.c ****   {
 871:Lib/AI_Runtime/Npu/ll_aton/ll_sw_float.c ****   case LL_SW_AVGPOOL:
 872:Lib/AI_Runtime/Npu/ll_aton/ll_sw_float.c ****     func = ((node_func)(forward_ap));
ARM GAS  /tmp/ccEo7NLA.s 			page 141


 6775              		.loc 1 872 10
 6776 025a 084B     		ldr	r3, .L153+4
 6777 025c C7F83C31 		str	r3, [r7, #316]
 873:Lib/AI_Runtime/Npu/ll_aton/ll_sw_float.c ****     count_include_pad = sw_info->count_include_pad;
 6778              		.loc 1 873 23
 6779 0260 D7F83431 		ldr	r3, [r7, #308]
 6780 0264 93F88830 		ldrb	r3, [r3, #136]
 6781 0268 87F83B31 		strb	r3, [r7, #315]
 874:Lib/AI_Runtime/Npu/ll_aton/ll_sw_float.c ****     break;
 6782              		.loc 1 874 5
 6783 026c 0BE0     		b	.L151
 6784              	.L149:
 875:Lib/AI_Runtime/Npu/ll_aton/ll_sw_float.c ****   case LL_SW_MAXPOOL:
 876:Lib/AI_Runtime/Npu/ll_aton/ll_sw_float.c ****     func = ((node_func)(forward_mp));
 6785              		.loc 1 876 10
 6786 026e 044B     		ldr	r3, .L153+8
 6787 0270 C7F83C31 		str	r3, [r7, #316]
 877:Lib/AI_Runtime/Npu/ll_aton/ll_sw_float.c ****     break;
 6788              		.loc 1 877 5
 6789 0274 07E0     		b	.L151
 6790              	.L154:
 6791 0276 00BF     		.align	2
 6792              	.L153:
 6793 0278 40108200 		.word	8523840
 6794 027c 00000000 		.word	forward_ap
 6795 0280 00000000 		.word	forward_mp
 6796              	.L152:
 878:Lib/AI_Runtime/Npu/ll_aton/ll_sw_float.c ****   default:
 879:Lib/AI_Runtime/Npu/ll_aton/ll_sw_float.c ****     break;
 6797              		.loc 1 879 5
 6798 0284 00BF     		nop
 6799              	.L151:
 880:Lib/AI_Runtime/Npu/ll_aton/ll_sw_float.c ****   }
 881:Lib/AI_Runtime/Npu/ll_aton/ll_sw_float.c **** 
 882:Lib/AI_Runtime/Npu/ll_aton/ll_sw_float.c ****   AI_LAYER_OBJ_DECLARE(pool_layer, 1, POOL_TYPE, 0x0, NULL, pool, func, &pool_chain, NULL, NULL, ,
 6800              		.loc 1 882 3
 6801 0286 07F5A073 		add	r3, r7, #320
 6802 028a A3F59273 		sub	r3, r3, #292
 6803 028e 40F20B12 		movw	r2, #267
 6804 0292 1A80     		strh	r2, [r3]	@ movhi
 6805 0294 07F5A073 		add	r3, r7, #320
 6806 0298 A3F59273 		sub	r3, r3, #292
 6807 029c 0122     		movs	r2, #1
 6808 029e 5A80     		strh	r2, [r3, #2]	@ movhi
 6809 02a0 07F5A073 		add	r3, r7, #320
 6810 02a4 A3F59273 		sub	r3, r3, #292
 6811 02a8 0022     		movs	r2, #0
 6812 02aa 5A60     		str	r2, [r3, #4]
 6813 02ac 07F5A073 		add	r3, r7, #320
 6814 02b0 A3F59273 		sub	r3, r3, #292
 6815 02b4 0022     		movs	r2, #0
 6816 02b6 9A60     		str	r2, [r3, #8]
 6817 02b8 07F5A073 		add	r3, r7, #320
 6818 02bc A3F59273 		sub	r3, r3, #292
 6819 02c0 0022     		movs	r2, #0
 6820 02c2 DA60     		str	r2, [r3, #12]
 6821 02c4 07F5A073 		add	r3, r7, #320
ARM GAS  /tmp/ccEo7NLA.s 			page 142


 6822 02c8 A3F59273 		sub	r3, r3, #292
 6823 02cc 0022     		movs	r2, #0
 6824 02ce 1A61     		str	r2, [r3, #16]
 6825 02d0 07F5A073 		add	r3, r7, #320
 6826 02d4 A3F59273 		sub	r3, r3, #292
 6827 02d8 D7F83C21 		ldr	r2, [r7, #316]
 6828 02dc 5A61     		str	r2, [r3, #20]
 6829 02de 07F5A073 		add	r3, r7, #320
 6830 02e2 A3F59273 		sub	r3, r3, #292
 6831 02e6 07F19402 		add	r2, r7, #148
 6832 02ea 9A61     		str	r2, [r3, #24]
 6833 02ec D7F83431 		ldr	r3, [r7, #308]
 6834 02f0 D3F88430 		ldr	r3, [r3, #132]
 6835 02f4 1A46     		mov	r2, r3
 6836 02f6 07F5A073 		add	r3, r7, #320
 6837 02fa A3F59273 		sub	r3, r3, #292
 6838 02fe DA61     		str	r2, [r3, #28]
 6839 0300 D7F83431 		ldr	r3, [r7, #308]
 6840 0304 D3F88030 		ldr	r3, [r3, #128]
 6841 0308 1A46     		mov	r2, r3
 6842 030a 07F5A073 		add	r3, r7, #320
 6843 030e A3F59273 		sub	r3, r3, #292
 6844 0312 1A62     		str	r2, [r3, #32]
 6845 0314 D7F83431 		ldr	r3, [r7, #308]
 6846 0318 5B6F     		ldr	r3, [r3, #116]
 6847 031a 1A46     		mov	r2, r3
 6848 031c 07F5A073 		add	r3, r7, #320
 6849 0320 A3F59273 		sub	r3, r3, #292
 6850 0324 5A62     		str	r2, [r3, #36]
 6851 0326 D7F83431 		ldr	r3, [r7, #308]
 6852 032a 1B6F     		ldr	r3, [r3, #112]
 6853 032c 1A46     		mov	r2, r3
 6854 032e 07F5A073 		add	r3, r7, #320
 6855 0332 A3F59273 		sub	r3, r3, #292
 6856 0336 9A62     		str	r2, [r3, #40]
 6857 0338 07F5A073 		add	r3, r7, #320
 6858 033c A3F59273 		sub	r3, r3, #292
 6859 0340 0122     		movs	r2, #1
 6860 0342 83F82C20 		strb	r2, [r3, #44]
 6861 0346 07F5A073 		add	r3, r7, #320
 6862 034a A3F59272 		sub	r2, r3, #292
 6863 034e D36A     		ldr	r3, [r2, #44]
 6864 0350 0421     		movs	r1, #4
 6865 0352 61F31F23 		bfi	r3, r1, #8, #24
 6866 0356 D362     		str	r3, [r2, #44]
 6867 0358 D7F83431 		ldr	r3, [r7, #308]
 6868 035c 1B6E     		ldr	r3, [r3, #96]
 6869 035e 1A46     		mov	r2, r3
 6870 0360 07F5A073 		add	r3, r7, #320
 6871 0364 A3F59A73 		sub	r3, r3, #308
 6872 0368 1A60     		str	r2, [r3]
 6873 036a D7F83431 		ldr	r3, [r7, #308]
 6874 036e 5B6E     		ldr	r3, [r3, #100]
 6875 0370 1A46     		mov	r2, r3
 6876 0372 07F5A073 		add	r3, r7, #320
 6877 0376 A3F59A73 		sub	r3, r3, #308
 6878 037a 5A60     		str	r2, [r3, #4]
ARM GAS  /tmp/ccEo7NLA.s 			page 143


 6879 037c D7F83431 		ldr	r3, [r7, #308]
 6880 0380 9B6E     		ldr	r3, [r3, #104]
 6881 0382 1A46     		mov	r2, r3
 6882 0384 07F5A073 		add	r3, r7, #320
 6883 0388 A3F59A73 		sub	r3, r3, #308
 6884 038c 9A60     		str	r2, [r3, #8]
 6885 038e D7F83431 		ldr	r3, [r7, #308]
 6886 0392 DB6E     		ldr	r3, [r3, #108]
 6887 0394 1A46     		mov	r2, r3
 6888 0396 07F5A073 		add	r3, r7, #320
 6889 039a A3F59A73 		sub	r3, r3, #308
 6890 039e DA60     		str	r2, [r3, #12]
 6891 03a0 07F5A073 		add	r3, r7, #320
 6892 03a4 A3F59273 		sub	r3, r3, #292
 6893 03a8 07F10C02 		add	r2, r7, #12
 6894 03ac 1A63     		str	r2, [r3, #48]
 6895 03ae 97F83B21 		ldrb	r2, [r7, #315]	@ zero_extendqisi2
 6896 03b2 07F5A073 		add	r3, r7, #320
 6897 03b6 A3F59273 		sub	r3, r3, #292
 6898 03ba 83F83420 		strb	r2, [r3, #52]
 883:Lib/AI_Runtime/Npu/ll_aton/ll_sw_float.c ****                        .pool_size = SHAPE_2D_INIT(sw_info->k_shape[0], sw_info->k_shape[1]),
 884:Lib/AI_Runtime/Npu/ll_aton/ll_sw_float.c ****                        .pool_stride = SHAPE_2D_INIT(sw_info->strides[0], sw_info->strides[1]),
 885:Lib/AI_Runtime/Npu/ll_aton/ll_sw_float.c ****                        .pool_pad = SHAPE_INIT(sw_info->pads[3], sw_info->pads[2], sw_info->pads[1],
 886:Lib/AI_Runtime/Npu/ll_aton/ll_sw_float.c ****                        .count_include_pad = count_include_pad, )
 887:Lib/AI_Runtime/Npu/ll_aton/ll_sw_float.c ****   pool_layer.forward(AI_LAYER_OBJ(&pool_layer));
 6899              		.loc 1 887 13
 6900 03be 07F5A073 		add	r3, r7, #320
 6901 03c2 A3F59273 		sub	r3, r3, #292
 6902 03c6 5B69     		ldr	r3, [r3, #20]
 6903              		.loc 1 887 3
 6904 03c8 07F11C02 		add	r2, r7, #28
 6905 03cc 1046     		mov	r0, r2
 6906 03ce 9847     		blx	r3
 6907              	.LVL45:
 888:Lib/AI_Runtime/Npu/ll_aton/ll_sw_float.c **** }
 6908              		.loc 1 888 1
 6909 03d0 00BF     		nop
 6910 03d2 07F5A077 		add	r7, r7, #320
 6911              		.cfi_def_cfa_offset 8
 6912 03d6 BD46     		mov	sp, r7
 6913              		.cfi_def_cfa_register 13
 6914              		@ sp needed
 6915 03d8 80BD     		pop	{r7, pc}
 6916              		.cfi_endproc
 6917              	.LFE22:
 6919 03da 00BF     		.section	.text.ll_sw_forward_global_pool,"ax",%progbits
 6920              		.align	1
 6921              		.global	ll_sw_forward_global_pool
 6922              		.syntax unified
 6923              		.thumb
 6924              		.thumb_func
 6926              	ll_sw_forward_global_pool:
 6927              	.LFB23:
 889:Lib/AI_Runtime/Npu/ll_aton/ll_sw_float.c **** 
 890:Lib/AI_Runtime/Npu/ll_aton/ll_sw_float.c **** //##########################################################################################
 891:Lib/AI_Runtime/Npu/ll_aton/ll_sw_float.c **** /** Globalpool forward function  */
 892:Lib/AI_Runtime/Npu/ll_aton/ll_sw_float.c **** void ll_sw_forward_global_pool(/* int processor, */ void *sw_info_struct)
ARM GAS  /tmp/ccEo7NLA.s 			page 144


 893:Lib/AI_Runtime/Npu/ll_aton/ll_sw_float.c **** {
 6928              		.loc 1 893 1
 6929              		.cfi_startproc
 6930              		@ args = 0, pretend = 0, frame = 312
 6931              		@ frame_needed = 1, uses_anonymous_args = 0
 6932 0000 80B5     		push	{r7, lr}
 6933              		.cfi_def_cfa_offset 8
 6934              		.cfi_offset 7, -8
 6935              		.cfi_offset 14, -4
 6936 0002 CEB0     		sub	sp, sp, #312
 6937              		.cfi_def_cfa_offset 320
 6938 0004 00AF     		add	r7, sp, #0
 6939              		.cfi_def_cfa_register 7
 6940 0006 07F59C73 		add	r3, r7, #312
 6941 000a A3F59A73 		sub	r3, r3, #308
 6942 000e 1860     		str	r0, [r3]
 894:Lib/AI_Runtime/Npu/ll_aton/ll_sw_float.c ****   Global_pool_sw_info *sw_info = (Global_pool_sw_info *)sw_info_struct;
 6943              		.loc 1 894 24
 6944 0010 07F59C73 		add	r3, r7, #312
 6945 0014 A3F59A73 		sub	r3, r3, #308
 6946 0018 1B68     		ldr	r3, [r3]
 6947 001a C7F83031 		str	r3, [r7, #304]
 895:Lib/AI_Runtime/Npu/ll_aton/ll_sw_float.c ****   AI_ARRAY_OBJ_DECLARE(input_output_array, FORMAT, sw_info->general.input.mem.start_offset,
 6948              		.loc 1 895 3
 6949 001e C94B     		ldr	r3, .L160
 6950 0020 C7F82031 		str	r3, [r7, #288]
 6951 0024 D7F83031 		ldr	r3, [r7, #304]
 6952 0028 5B69     		ldr	r3, [r3, #20]
 6953 002a C7F82431 		str	r3, [r7, #292]
 6954 002e D7F83031 		ldr	r3, [r7, #304]
 6955 0032 9B6A     		ldr	r3, [r3, #40]
 6956 0034 C7F82831 		str	r3, [r7, #296]
 6957 0038 D7F83031 		ldr	r3, [r7, #304]
 6958 003c 9B6A     		ldr	r3, [r3, #40]
 6959 003e C7F82C31 		str	r3, [r7, #300]
 896:Lib/AI_Runtime/Npu/ll_aton/ll_sw_float.c ****                        sw_info->general.input.mem.start_offset, sw_info->general.input.dim.num_elem
 897:Lib/AI_Runtime/Npu/ll_aton/ll_sw_float.c ****   AI_ARRAY_OBJ_DECLARE(pool_output_array, FORMAT, sw_info->general.output.mem.start_offset,
 6960              		.loc 1 897 3
 6961 0042 C04B     		ldr	r3, .L160
 6962 0044 C7F81031 		str	r3, [r7, #272]
 6963 0048 D7F83031 		ldr	r3, [r7, #304]
 6964 004c 1B6C     		ldr	r3, [r3, #64]
 6965 004e C7F81431 		str	r3, [r7, #276]
 6966 0052 D7F83031 		ldr	r3, [r7, #304]
 6967 0056 5B6D     		ldr	r3, [r3, #84]
 6968 0058 C7F81831 		str	r3, [r7, #280]
 6969 005c D7F83031 		ldr	r3, [r7, #304]
 6970 0060 5B6D     		ldr	r3, [r3, #84]
 6971 0062 C7F81C31 		str	r3, [r7, #284]
 898:Lib/AI_Runtime/Npu/ll_aton/ll_sw_float.c ****                        sw_info->general.output.mem.start_offset, sw_info->general.output.dim.num_el
 899:Lib/AI_Runtime/Npu/ll_aton/ll_sw_float.c ****   // tensor init
 900:Lib/AI_Runtime/Npu/ll_aton/ll_sw_float.c ****   AI_TENSOR_OBJ_DECLARE(input_output, , 0x0, 4,
 6972              		.loc 1 900 3
 6973 0066 0023     		movs	r3, #0
 6974 0068 C7F8F430 		str	r3, [r7, #244]
 6975 006c 0023     		movs	r3, #0
 6976 006e A7F8F830 		strh	r3, [r7, #248]	@ movhi
ARM GAS  /tmp/ccEo7NLA.s 			page 145


 6977 0072 0423     		movs	r3, #4
 6978 0074 87F8FA30 		strb	r3, [r7, #250]
 6979 0078 0123     		movs	r3, #1
 6980 007a 87F8FB30 		strb	r3, [r7, #251]
 6981 007e 0123     		movs	r3, #1
 6982 0080 87F8FC30 		strb	r3, [r7, #252]
 6983 0084 D7F8FC30 		ldr	r3, [r7, #252]
 6984 0088 0422     		movs	r2, #4
 6985 008a 62F31F23 		bfi	r3, r2, #8, #24
 6986 008e C7F8FC30 		str	r3, [r7, #252]
 6987 0092 D7F83031 		ldr	r3, [r7, #304]
 6988 0096 1B69     		ldr	r3, [r3, #16]
 6989 0098 C7F8E430 		str	r3, [r7, #228]
 6990 009c D7F83031 		ldr	r3, [r7, #304]
 6991 00a0 DB68     		ldr	r3, [r3, #12]
 6992 00a2 C7F8E830 		str	r3, [r7, #232]
 6993 00a6 D7F83031 		ldr	r3, [r7, #304]
 6994 00aa 9B68     		ldr	r3, [r3, #8]
 6995 00ac C7F8EC30 		str	r3, [r7, #236]
 6996 00b0 D7F83031 		ldr	r3, [r7, #304]
 6997 00b4 5B68     		ldr	r3, [r3, #4]
 6998 00b6 C7F8F030 		str	r3, [r7, #240]
 6999 00ba 07F1E403 		add	r3, r7, #228
 7000 00be C7F80031 		str	r3, [r7, #256]
 7001 00c2 0223     		movs	r3, #2
 7002 00c4 87F80431 		strb	r3, [r7, #260]
 7003 00c8 D7F80431 		ldr	r3, [r7, #260]
 7004 00cc 0422     		movs	r2, #4
 7005 00ce 62F31F23 		bfi	r3, r2, #8, #24
 7006 00d2 C7F80431 		str	r3, [r7, #260]
 7007 00d6 D7F83031 		ldr	r3, [r7, #304]
 7008 00da 5B6A     		ldr	r3, [r3, #36]
 7009 00dc C7F8D430 		str	r3, [r7, #212]
 7010 00e0 D7F83031 		ldr	r3, [r7, #304]
 7011 00e4 1B6A     		ldr	r3, [r3, #32]
 7012 00e6 C7F8D830 		str	r3, [r7, #216]
 7013 00ea D7F83031 		ldr	r3, [r7, #304]
 7014 00ee DB69     		ldr	r3, [r3, #28]
 7015 00f0 C7F8DC30 		str	r3, [r7, #220]
 7016 00f4 D7F83031 		ldr	r3, [r7, #304]
 7017 00f8 9B69     		ldr	r3, [r3, #24]
 7018 00fa C7F8E030 		str	r3, [r7, #224]
 7019 00fe 07F1D403 		add	r3, r7, #212
 7020 0102 C7F80831 		str	r3, [r7, #264]
 7021 0106 07F59073 		add	r3, r7, #288
 7022 010a C7F80C31 		str	r3, [r7, #268]
 901:Lib/AI_Runtime/Npu/ll_aton/ll_sw_float.c ****                         SHAPE_INIT(sw_info->general.input.dim.tensor_h, sw_info->general.input.dim.
 902:Lib/AI_Runtime/Npu/ll_aton/ll_sw_float.c ****                                    sw_info->general.input.dim.tensor_c, sw_info->general.input.dim.
 903:Lib/AI_Runtime/Npu/ll_aton/ll_sw_float.c ****                         STRIDE_INIT(sw_info->general.input.stride.h, sw_info->general.input.stride.
 904:Lib/AI_Runtime/Npu/ll_aton/ll_sw_float.c ****                                     sw_info->general.input.stride.c, sw_info->general.input.stride.
 905:Lib/AI_Runtime/Npu/ll_aton/ll_sw_float.c ****                         1, &input_output_array, NULL)
 906:Lib/AI_Runtime/Npu/ll_aton/ll_sw_float.c ****   AI_TENSOR_OBJ_DECLARE(pool_output, , 0x0, 4,
 7023              		.loc 1 906 3
 7024 010e 0023     		movs	r3, #0
 7025 0110 C7F8B830 		str	r3, [r7, #184]
 7026 0114 0023     		movs	r3, #0
 7027 0116 A7F8BC30 		strh	r3, [r7, #188]	@ movhi
ARM GAS  /tmp/ccEo7NLA.s 			page 146


 7028 011a 0423     		movs	r3, #4
 7029 011c 87F8BE30 		strb	r3, [r7, #190]
 7030 0120 0123     		movs	r3, #1
 7031 0122 87F8BF30 		strb	r3, [r7, #191]
 7032 0126 0123     		movs	r3, #1
 7033 0128 87F8C030 		strb	r3, [r7, #192]
 7034 012c D7F8C030 		ldr	r3, [r7, #192]
 7035 0130 0422     		movs	r2, #4
 7036 0132 62F31F23 		bfi	r3, r2, #8, #24
 7037 0136 C7F8C030 		str	r3, [r7, #192]
 7038 013a D7F83031 		ldr	r3, [r7, #304]
 7039 013e DB6B     		ldr	r3, [r3, #60]
 7040 0140 C7F8A830 		str	r3, [r7, #168]
 7041 0144 D7F83031 		ldr	r3, [r7, #304]
 7042 0148 9B6B     		ldr	r3, [r3, #56]
 7043 014a C7F8AC30 		str	r3, [r7, #172]
 7044 014e D7F83031 		ldr	r3, [r7, #304]
 7045 0152 5B6B     		ldr	r3, [r3, #52]
 7046 0154 C7F8B030 		str	r3, [r7, #176]
 7047 0158 D7F83031 		ldr	r3, [r7, #304]
 7048 015c 1B6B     		ldr	r3, [r3, #48]
 7049 015e C7F8B430 		str	r3, [r7, #180]
 7050 0162 07F1A803 		add	r3, r7, #168
 7051 0166 C7F8C430 		str	r3, [r7, #196]
 7052 016a 0223     		movs	r3, #2
 7053 016c 87F8C830 		strb	r3, [r7, #200]
 7054 0170 D7F8C830 		ldr	r3, [r7, #200]
 7055 0174 0422     		movs	r2, #4
 7056 0176 62F31F23 		bfi	r3, r2, #8, #24
 7057 017a C7F8C830 		str	r3, [r7, #200]
 7058 017e D7F83031 		ldr	r3, [r7, #304]
 7059 0182 1B6D     		ldr	r3, [r3, #80]
 7060 0184 C7F89830 		str	r3, [r7, #152]
 7061 0188 D7F83031 		ldr	r3, [r7, #304]
 7062 018c DB6C     		ldr	r3, [r3, #76]
 7063 018e C7F89C30 		str	r3, [r7, #156]
 7064 0192 D7F83031 		ldr	r3, [r7, #304]
 7065 0196 9B6C     		ldr	r3, [r3, #72]
 7066 0198 C7F8A030 		str	r3, [r7, #160]
 7067 019c D7F83031 		ldr	r3, [r7, #304]
 7068 01a0 5B6C     		ldr	r3, [r3, #68]
 7069 01a2 C7F8A430 		str	r3, [r7, #164]
 7070 01a6 07F19803 		add	r3, r7, #152
 7071 01aa C7F8CC30 		str	r3, [r7, #204]
 7072 01ae 07F58873 		add	r3, r7, #272
 7073 01b2 C7F8D030 		str	r3, [r7, #208]
 907:Lib/AI_Runtime/Npu/ll_aton/ll_sw_float.c ****                         SHAPE_INIT(sw_info->general.output.dim.tensor_h, sw_info->general.output.di
 908:Lib/AI_Runtime/Npu/ll_aton/ll_sw_float.c ****                                    sw_info->general.output.dim.tensor_c, sw_info->general.output.di
 909:Lib/AI_Runtime/Npu/ll_aton/ll_sw_float.c ****                         STRIDE_INIT(sw_info->general.output.stride.h, sw_info->general.output.strid
 910:Lib/AI_Runtime/Npu/ll_aton/ll_sw_float.c ****                                     sw_info->general.output.stride.c, sw_info->general.output.strid
 911:Lib/AI_Runtime/Npu/ll_aton/ll_sw_float.c ****                         1, &pool_output_array, NULL)
 912:Lib/AI_Runtime/Npu/ll_aton/ll_sw_float.c ****   // tensor chain initialization
 913:Lib/AI_Runtime/Npu/ll_aton/ll_sw_float.c ****   AI_TENSOR_CHAIN_OBJ_DECLARE(pool_chain, , 4, AI_TENSOR_LIST_OBJ_INIT(AI_FLAG_NONE, 1, TENSORS(&in
 7074              		.loc 1 913 3
 7075 01b6 0423     		movs	r3, #4
 7076 01b8 A7F89030 		strh	r3, [r7, #144]	@ movhi
 7077 01bc 0023     		movs	r3, #0
ARM GAS  /tmp/ccEo7NLA.s 			page 147


 7078 01be A7F89230 		strh	r3, [r7, #146]	@ movhi
 7079 01c2 0123     		movs	r3, #1
 7080 01c4 A7F85030 		strh	r3, [r7, #80]	@ movhi
 7081 01c8 0023     		movs	r3, #0
 7082 01ca A7F85230 		strh	r3, [r7, #82]	@ movhi
 7083 01ce 07F1F403 		add	r3, r7, #244
 7084 01d2 C7F88C30 		str	r3, [r7, #140]
 7085 01d6 07F18C03 		add	r3, r7, #140
 7086 01da 7B65     		str	r3, [r7, #84]
 7087 01dc 0023     		movs	r3, #0
 7088 01de BB65     		str	r3, [r7, #88]
 7089 01e0 0123     		movs	r3, #1
 7090 01e2 A7F85C30 		strh	r3, [r7, #92]	@ movhi
 7091 01e6 0023     		movs	r3, #0
 7092 01e8 A7F85E30 		strh	r3, [r7, #94]	@ movhi
 7093 01ec 07F1B803 		add	r3, r7, #184
 7094 01f0 C7F88830 		str	r3, [r7, #136]
 7095 01f4 07F18803 		add	r3, r7, #136
 7096 01f8 3B66     		str	r3, [r7, #96]
 7097 01fa 0023     		movs	r3, #0
 7098 01fc 7B66     		str	r3, [r7, #100]
 7099 01fe 0023     		movs	r3, #0
 7100 0200 A7F86830 		strh	r3, [r7, #104]	@ movhi
 7101 0204 0023     		movs	r3, #0
 7102 0206 A7F86A30 		strh	r3, [r7, #106]	@ movhi
 7103 020a 0023     		movs	r3, #0
 7104 020c C7F88430 		str	r3, [r7, #132]
 7105 0210 07F18403 		add	r3, r7, #132
 7106 0214 FB66     		str	r3, [r7, #108]
 7107 0216 0023     		movs	r3, #0
 7108 0218 3B67     		str	r3, [r7, #112]
 7109 021a 0023     		movs	r3, #0
 7110 021c A7F87430 		strh	r3, [r7, #116]	@ movhi
 7111 0220 0023     		movs	r3, #0
 7112 0222 A7F87630 		strh	r3, [r7, #118]	@ movhi
 7113 0226 0023     		movs	r3, #0
 7114 0228 C7F88030 		str	r3, [r7, #128]
 7115 022c 07F18003 		add	r3, r7, #128
 7116 0230 BB67     		str	r3, [r7, #120]
 7117 0232 0023     		movs	r3, #0
 7118 0234 FB67     		str	r3, [r7, #124]
 7119 0236 07F15003 		add	r3, r7, #80
 7120 023a C7F89430 		str	r3, [r7, #148]
 914:Lib/AI_Runtime/Npu/ll_aton/ll_sw_float.c ****                               AI_TENSOR_LIST_OBJ_INIT(AI_FLAG_NONE, 1, TENSORS(&pool_output)), AI_T
 915:Lib/AI_Runtime/Npu/ll_aton/ll_sw_float.c ****                               AI_TENSOR_LIST_OBJ_EMPTY)
 916:Lib/AI_Runtime/Npu/ll_aton/ll_sw_float.c **** 
 917:Lib/AI_Runtime/Npu/ll_aton/ll_sw_float.c ****   node_func func = NULL;
 7121              		.loc 1 917 13
 7122 023e 0023     		movs	r3, #0
 7123 0240 C7F83431 		str	r3, [r7, #308]
 918:Lib/AI_Runtime/Npu/ll_aton/ll_sw_float.c ****   switch (sw_info->general.type)
 7124              		.loc 1 918 27
 7125 0244 D7F83031 		ldr	r3, [r7, #304]
 7126 0248 1B78     		ldrb	r3, [r3]	@ zero_extendqisi2
 7127              		.loc 1 918 3
 7128 024a 062B     		cmp	r3, #6
 7129 024c 05D0     		beq	.L156
ARM GAS  /tmp/ccEo7NLA.s 			page 148


 7130 024e 082B     		cmp	r3, #8
 7131 0250 07D1     		bne	.L159
 919:Lib/AI_Runtime/Npu/ll_aton/ll_sw_float.c ****   {
 920:Lib/AI_Runtime/Npu/ll_aton/ll_sw_float.c ****   case LL_SW_AVGPOOL:
 921:Lib/AI_Runtime/Npu/ll_aton/ll_sw_float.c ****     func = ((node_func)(forward_ap));
 7132              		.loc 1 921 10
 7133 0252 3D4B     		ldr	r3, .L160+4
 7134 0254 C7F83431 		str	r3, [r7, #308]
 922:Lib/AI_Runtime/Npu/ll_aton/ll_sw_float.c ****     break;
 7135              		.loc 1 922 5
 7136 0258 04E0     		b	.L158
 7137              	.L156:
 923:Lib/AI_Runtime/Npu/ll_aton/ll_sw_float.c ****   case LL_SW_MAXPOOL:
 924:Lib/AI_Runtime/Npu/ll_aton/ll_sw_float.c ****     func = ((node_func)(forward_mp));
 7138              		.loc 1 924 10
 7139 025a 3C4B     		ldr	r3, .L160+8
 7140 025c C7F83431 		str	r3, [r7, #308]
 925:Lib/AI_Runtime/Npu/ll_aton/ll_sw_float.c ****     break;
 7141              		.loc 1 925 5
 7142 0260 00E0     		b	.L158
 7143              	.L159:
 926:Lib/AI_Runtime/Npu/ll_aton/ll_sw_float.c ****   default:
 927:Lib/AI_Runtime/Npu/ll_aton/ll_sw_float.c ****     break;
 7144              		.loc 1 927 5
 7145 0262 00BF     		nop
 7146              	.L158:
 928:Lib/AI_Runtime/Npu/ll_aton/ll_sw_float.c ****   }
 929:Lib/AI_Runtime/Npu/ll_aton/ll_sw_float.c **** 
 930:Lib/AI_Runtime/Npu/ll_aton/ll_sw_float.c ****   AI_LAYER_OBJ_DECLARE(pool_layer, 1, POOL_TYPE, 0x0, NULL, pool, func, &pool_chain, NULL, NULL, ,
 7147              		.loc 1 930 3
 7148 0264 07F59C73 		add	r3, r7, #312
 7149 0268 A3F59073 		sub	r3, r3, #288
 7150 026c 1846     		mov	r0, r3
 7151 026e 3823     		movs	r3, #56
 7152 0270 1A46     		mov	r2, r3
 7153 0272 0021     		movs	r1, #0
 7154 0274 FFF7FEFF 		bl	memset
 7155 0278 07F59C73 		add	r3, r7, #312
 7156 027c A3F59073 		sub	r3, r3, #288
 7157 0280 40F20B12 		movw	r2, #267
 7158 0284 1A80     		strh	r2, [r3]	@ movhi
 7159 0286 07F59C73 		add	r3, r7, #312
 7160 028a A3F59073 		sub	r3, r3, #288
 7161 028e 0122     		movs	r2, #1
 7162 0290 5A80     		strh	r2, [r3, #2]	@ movhi
 7163 0292 07F59C73 		add	r3, r7, #312
 7164 0296 A3F59073 		sub	r3, r3, #288
 7165 029a D7F83421 		ldr	r2, [r7, #308]
 7166 029e 5A61     		str	r2, [r3, #20]
 7167 02a0 07F59C73 		add	r3, r7, #312
 7168 02a4 A3F59073 		sub	r3, r3, #288
 7169 02a8 07F19002 		add	r2, r7, #144
 7170 02ac 9A61     		str	r2, [r3, #24]
 7171 02ae D7F83031 		ldr	r3, [r7, #304]
 7172 02b2 9A68     		ldr	r2, [r3, #8]
 7173 02b4 07F59C73 		add	r3, r7, #312
 7174 02b8 A3F59073 		sub	r3, r3, #288
ARM GAS  /tmp/ccEo7NLA.s 			page 149


 7175 02bc DA61     		str	r2, [r3, #28]
 7176 02be D7F83031 		ldr	r3, [r7, #304]
 7177 02c2 9A68     		ldr	r2, [r3, #8]
 7178 02c4 07F59C73 		add	r3, r7, #312
 7179 02c8 A3F59073 		sub	r3, r3, #288
 7180 02cc 1A62     		str	r2, [r3, #32]
 7181 02ce 07F59C73 		add	r3, r7, #312
 7182 02d2 A3F59073 		sub	r3, r3, #288
 7183 02d6 0122     		movs	r2, #1
 7184 02d8 5A62     		str	r2, [r3, #36]
 7185 02da 07F59C73 		add	r3, r7, #312
 7186 02de A3F59073 		sub	r3, r3, #288
 7187 02e2 0122     		movs	r2, #1
 7188 02e4 9A62     		str	r2, [r3, #40]
 7189 02e6 07F59C73 		add	r3, r7, #312
 7190 02ea A3F59073 		sub	r3, r3, #288
 7191 02ee 0122     		movs	r2, #1
 7192 02f0 83F82C20 		strb	r2, [r3, #44]
 7193 02f4 07F59C73 		add	r3, r7, #312
 7194 02f8 A3F59072 		sub	r2, r3, #288
 7195 02fc D36A     		ldr	r3, [r2, #44]
 7196 02fe 0421     		movs	r1, #4
 7197 0300 61F31F23 		bfi	r3, r1, #8, #24
 7198 0304 D362     		str	r3, [r2, #44]
 7199 0306 07F59C73 		add	r3, r7, #312
 7200 030a A3F59873 		sub	r3, r3, #304
 7201 030e 1A46     		mov	r2, r3
 7202 0310 0023     		movs	r3, #0
 7203 0312 1360     		str	r3, [r2]
 7204 0314 5360     		str	r3, [r2, #4]
 7205 0316 9360     		str	r3, [r2, #8]
 7206 0318 D360     		str	r3, [r2, #12]
 7207 031a 07F59C73 		add	r3, r7, #312
 7208 031e A3F59073 		sub	r3, r3, #288
 7209 0322 07F10802 		add	r2, r7, #8
 7210 0326 1A63     		str	r2, [r3, #48]
 931:Lib/AI_Runtime/Npu/ll_aton/ll_sw_float.c ****                        .pool_size =
 932:Lib/AI_Runtime/Npu/ll_aton/ll_sw_float.c ****                            SHAPE_2D_INIT(sw_info->general.input.dim.tensor_w, sw_info->general.inpu
 933:Lib/AI_Runtime/Npu/ll_aton/ll_sw_float.c ****                        .pool_stride = SHAPE_2D_INIT(1, 1), .pool_pad = SHAPE_INIT(0, 0, 0, 0), )
 934:Lib/AI_Runtime/Npu/ll_aton/ll_sw_float.c ****   pool_layer.forward(AI_LAYER_OBJ(&pool_layer));
 7211              		.loc 1 934 13
 7212 0328 07F59C73 		add	r3, r7, #312
 7213 032c A3F59073 		sub	r3, r3, #288
 7214 0330 5B69     		ldr	r3, [r3, #20]
 7215              		.loc 1 934 3
 7216 0332 07F11802 		add	r2, r7, #24
 7217 0336 1046     		mov	r0, r2
 7218 0338 9847     		blx	r3
 7219              	.LVL46:
 935:Lib/AI_Runtime/Npu/ll_aton/ll_sw_float.c **** }
 7220              		.loc 1 935 1
 7221 033a 00BF     		nop
 7222 033c 07F59C77 		add	r7, r7, #312
 7223              		.cfi_def_cfa_offset 8
 7224 0340 BD46     		mov	sp, r7
 7225              		.cfi_def_cfa_register 13
 7226              		@ sp needed
ARM GAS  /tmp/ccEo7NLA.s 			page 150


 7227 0342 80BD     		pop	{r7, pc}
 7228              	.L161:
 7229              		.align	2
 7230              	.L160:
 7231 0344 40108200 		.word	8523840
 7232 0348 00000000 		.word	forward_ap
 7233 034c 00000000 		.word	forward_mp
 7234              		.cfi_endproc
 7235              	.LFE23:
 7237              		.section	.text.ll_sw_forward_argmax,"ax",%progbits
 7238              		.align	1
 7239              		.global	ll_sw_forward_argmax
 7240              		.syntax unified
 7241              		.thumb
 7242              		.thumb_func
 7244              	ll_sw_forward_argmax:
 7245              	.LFB24:
 936:Lib/AI_Runtime/Npu/ll_aton/ll_sw_float.c **** 
 937:Lib/AI_Runtime/Npu/ll_aton/ll_sw_float.c **** //##########################################################################################
 938:Lib/AI_Runtime/Npu/ll_aton/ll_sw_float.c **** /** ArgMax forward function  */
 939:Lib/AI_Runtime/Npu/ll_aton/ll_sw_float.c **** void ll_sw_forward_argmax(/* int processor, */ void *sw_info_struct)
 940:Lib/AI_Runtime/Npu/ll_aton/ll_sw_float.c **** {
 7246              		.loc 1 940 1
 7247              		.cfi_startproc
 7248              		@ args = 0, pretend = 0, frame = 272
 7249              		@ frame_needed = 1, uses_anonymous_args = 0
 7250 0000 80B5     		push	{r7, lr}
 7251              		.cfi_def_cfa_offset 8
 7252              		.cfi_offset 7, -8
 7253              		.cfi_offset 14, -4
 7254 0002 C4B0     		sub	sp, sp, #272
 7255              		.cfi_def_cfa_offset 280
 7256 0004 00AF     		add	r7, sp, #0
 7257              		.cfi_def_cfa_register 7
 7258 0006 07F58873 		add	r3, r7, #272
 7259 000a A3F58673 		sub	r3, r3, #268
 7260 000e 1860     		str	r0, [r3]
 941:Lib/AI_Runtime/Npu/ll_aton/ll_sw_float.c ****   Argmax_sw_info *sw_info = (Argmax_sw_info *)sw_info_struct;
 7261              		.loc 1 941 19
 7262 0010 07F58873 		add	r3, r7, #272
 7263 0014 A3F58673 		sub	r3, r3, #268
 7264 0018 1B68     		ldr	r3, [r3]
 7265 001a C7F80C31 		str	r3, [r7, #268]
 942:Lib/AI_Runtime/Npu/ll_aton/ll_sw_float.c ****   AI_ARRAY_OBJ_DECLARE(input_output_array, FORMAT, sw_info->general.input.mem.start_offset,
 7266              		.loc 1 942 3
 7267 001e AD4B     		ldr	r3, .L163
 7268 0020 C7F8FC30 		str	r3, [r7, #252]
 7269 0024 D7F80C31 		ldr	r3, [r7, #268]
 7270 0028 5B69     		ldr	r3, [r3, #20]
 7271 002a C7F80031 		str	r3, [r7, #256]
 7272 002e D7F80C31 		ldr	r3, [r7, #268]
 7273 0032 9B6A     		ldr	r3, [r3, #40]
 7274 0034 C7F80431 		str	r3, [r7, #260]
 7275 0038 D7F80C31 		ldr	r3, [r7, #268]
 7276 003c 9B6A     		ldr	r3, [r3, #40]
 7277 003e C7F80831 		str	r3, [r7, #264]
 943:Lib/AI_Runtime/Npu/ll_aton/ll_sw_float.c ****                        sw_info->general.input.mem.start_offset, sw_info->general.input.dim.num_elem
ARM GAS  /tmp/ccEo7NLA.s 			page 151


 944:Lib/AI_Runtime/Npu/ll_aton/ll_sw_float.c ****   AI_ARRAY_OBJ_DECLARE(argmax_output_array, AI_ARRAY_FORMAT_S32, sw_info->general.output.mem.start_
 7278              		.loc 1 944 3
 7279 0042 A54B     		ldr	r3, .L163+4
 7280 0044 C7F8EC30 		str	r3, [r7, #236]
 7281 0048 D7F80C31 		ldr	r3, [r7, #268]
 7282 004c 1B6C     		ldr	r3, [r3, #64]
 7283 004e C7F8F030 		str	r3, [r7, #240]
 7284 0052 D7F80C31 		ldr	r3, [r7, #268]
 7285 0056 5B6D     		ldr	r3, [r3, #84]
 7286 0058 C7F8F430 		str	r3, [r7, #244]
 7287 005c D7F80C31 		ldr	r3, [r7, #268]
 7288 0060 5B6D     		ldr	r3, [r3, #84]
 7289 0062 C7F8F830 		str	r3, [r7, #248]
 945:Lib/AI_Runtime/Npu/ll_aton/ll_sw_float.c ****                        sw_info->general.output.mem.start_offset, sw_info->general.output.dim.num_el
 946:Lib/AI_Runtime/Npu/ll_aton/ll_sw_float.c ****   // tensor init
 947:Lib/AI_Runtime/Npu/ll_aton/ll_sw_float.c ****   AI_TENSOR_OBJ_DECLARE(input_output, , 0x0, 4,
 7290              		.loc 1 947 3
 7291 0066 0023     		movs	r3, #0
 7292 0068 C7F8D030 		str	r3, [r7, #208]
 7293 006c 0023     		movs	r3, #0
 7294 006e A7F8D430 		strh	r3, [r7, #212]	@ movhi
 7295 0072 0423     		movs	r3, #4
 7296 0074 87F8D630 		strb	r3, [r7, #214]
 7297 0078 0123     		movs	r3, #1
 7298 007a 87F8D730 		strb	r3, [r7, #215]
 7299 007e 0123     		movs	r3, #1
 7300 0080 87F8D830 		strb	r3, [r7, #216]
 7301 0084 D7F8D830 		ldr	r3, [r7, #216]
 7302 0088 0422     		movs	r2, #4
 7303 008a 62F31F23 		bfi	r3, r2, #8, #24
 7304 008e C7F8D830 		str	r3, [r7, #216]
 7305 0092 D7F80C31 		ldr	r3, [r7, #268]
 7306 0096 1B69     		ldr	r3, [r3, #16]
 7307 0098 C7F8C030 		str	r3, [r7, #192]
 7308 009c D7F80C31 		ldr	r3, [r7, #268]
 7309 00a0 DB68     		ldr	r3, [r3, #12]
 7310 00a2 C7F8C430 		str	r3, [r7, #196]
 7311 00a6 D7F80C31 		ldr	r3, [r7, #268]
 7312 00aa 9B68     		ldr	r3, [r3, #8]
 7313 00ac C7F8C830 		str	r3, [r7, #200]
 7314 00b0 D7F80C31 		ldr	r3, [r7, #268]
 7315 00b4 5B68     		ldr	r3, [r3, #4]
 7316 00b6 C7F8CC30 		str	r3, [r7, #204]
 7317 00ba 07F1C003 		add	r3, r7, #192
 7318 00be C7F8DC30 		str	r3, [r7, #220]
 7319 00c2 0223     		movs	r3, #2
 7320 00c4 87F8E030 		strb	r3, [r7, #224]
 7321 00c8 D7F8E030 		ldr	r3, [r7, #224]
 7322 00cc 0422     		movs	r2, #4
 7323 00ce 62F31F23 		bfi	r3, r2, #8, #24
 7324 00d2 C7F8E030 		str	r3, [r7, #224]
 7325 00d6 D7F80C31 		ldr	r3, [r7, #268]
 7326 00da 5B6A     		ldr	r3, [r3, #36]
 7327 00dc C7F8B030 		str	r3, [r7, #176]
 7328 00e0 D7F80C31 		ldr	r3, [r7, #268]
 7329 00e4 1B6A     		ldr	r3, [r3, #32]
 7330 00e6 C7F8B430 		str	r3, [r7, #180]
ARM GAS  /tmp/ccEo7NLA.s 			page 152


 7331 00ea D7F80C31 		ldr	r3, [r7, #268]
 7332 00ee DB69     		ldr	r3, [r3, #28]
 7333 00f0 C7F8B830 		str	r3, [r7, #184]
 7334 00f4 D7F80C31 		ldr	r3, [r7, #268]
 7335 00f8 9B69     		ldr	r3, [r3, #24]
 7336 00fa C7F8BC30 		str	r3, [r7, #188]
 7337 00fe 07F1B003 		add	r3, r7, #176
 7338 0102 C7F8E430 		str	r3, [r7, #228]
 7339 0106 07F1FC03 		add	r3, r7, #252
 7340 010a C7F8E830 		str	r3, [r7, #232]
 948:Lib/AI_Runtime/Npu/ll_aton/ll_sw_float.c ****                         SHAPE_INIT(sw_info->general.input.dim.tensor_h, sw_info->general.input.dim.
 949:Lib/AI_Runtime/Npu/ll_aton/ll_sw_float.c ****                                    sw_info->general.input.dim.tensor_c, sw_info->general.input.dim.
 950:Lib/AI_Runtime/Npu/ll_aton/ll_sw_float.c ****                         STRIDE_INIT(sw_info->general.input.stride.h, sw_info->general.input.stride.
 951:Lib/AI_Runtime/Npu/ll_aton/ll_sw_float.c ****                                     sw_info->general.input.stride.c, sw_info->general.input.stride.
 952:Lib/AI_Runtime/Npu/ll_aton/ll_sw_float.c ****                         1, &input_output_array, NULL)
 953:Lib/AI_Runtime/Npu/ll_aton/ll_sw_float.c ****   AI_TENSOR_OBJ_DECLARE(argmax_output, , 0x0, 4,
 7341              		.loc 1 953 3
 7342 010e 0023     		movs	r3, #0
 7343 0110 C7F89430 		str	r3, [r7, #148]
 7344 0114 0023     		movs	r3, #0
 7345 0116 A7F89830 		strh	r3, [r7, #152]	@ movhi
 7346 011a 0423     		movs	r3, #4
 7347 011c 87F89A30 		strb	r3, [r7, #154]
 7348 0120 0123     		movs	r3, #1
 7349 0122 87F89B30 		strb	r3, [r7, #155]
 7350 0126 0123     		movs	r3, #1
 7351 0128 87F89C30 		strb	r3, [r7, #156]
 7352 012c D7F89C30 		ldr	r3, [r7, #156]
 7353 0130 0422     		movs	r2, #4
 7354 0132 62F31F23 		bfi	r3, r2, #8, #24
 7355 0136 C7F89C30 		str	r3, [r7, #156]
 7356 013a D7F80C31 		ldr	r3, [r7, #268]
 7357 013e DB6B     		ldr	r3, [r3, #60]
 7358 0140 C7F88430 		str	r3, [r7, #132]
 7359 0144 D7F80C31 		ldr	r3, [r7, #268]
 7360 0148 9B6B     		ldr	r3, [r3, #56]
 7361 014a C7F88830 		str	r3, [r7, #136]
 7362 014e D7F80C31 		ldr	r3, [r7, #268]
 7363 0152 5B6B     		ldr	r3, [r3, #52]
 7364 0154 C7F88C30 		str	r3, [r7, #140]
 7365 0158 D7F80C31 		ldr	r3, [r7, #268]
 7366 015c 1B6B     		ldr	r3, [r3, #48]
 7367 015e C7F89030 		str	r3, [r7, #144]
 7368 0162 07F18403 		add	r3, r7, #132
 7369 0166 C7F8A030 		str	r3, [r7, #160]
 7370 016a 0223     		movs	r3, #2
 7371 016c 87F8A430 		strb	r3, [r7, #164]
 7372 0170 D7F8A430 		ldr	r3, [r7, #164]
 7373 0174 0422     		movs	r2, #4
 7374 0176 62F31F23 		bfi	r3, r2, #8, #24
 7375 017a C7F8A430 		str	r3, [r7, #164]
 7376 017e D7F80C31 		ldr	r3, [r7, #268]
 7377 0182 1B6D     		ldr	r3, [r3, #80]
 7378 0184 7B67     		str	r3, [r7, #116]
 7379 0186 D7F80C31 		ldr	r3, [r7, #268]
 7380 018a DB6C     		ldr	r3, [r3, #76]
 7381 018c BB67     		str	r3, [r7, #120]
ARM GAS  /tmp/ccEo7NLA.s 			page 153


 7382 018e D7F80C31 		ldr	r3, [r7, #268]
 7383 0192 9B6C     		ldr	r3, [r3, #72]
 7384 0194 FB67     		str	r3, [r7, #124]
 7385 0196 D7F80C31 		ldr	r3, [r7, #268]
 7386 019a 5B6C     		ldr	r3, [r3, #68]
 7387 019c C7F88030 		str	r3, [r7, #128]
 7388 01a0 07F17403 		add	r3, r7, #116
 7389 01a4 C7F8A830 		str	r3, [r7, #168]
 7390 01a8 07F1EC03 		add	r3, r7, #236
 7391 01ac C7F8AC30 		str	r3, [r7, #172]
 954:Lib/AI_Runtime/Npu/ll_aton/ll_sw_float.c ****                         SHAPE_INIT(sw_info->general.output.dim.tensor_h, sw_info->general.output.di
 955:Lib/AI_Runtime/Npu/ll_aton/ll_sw_float.c ****                                    sw_info->general.output.dim.tensor_c, sw_info->general.output.di
 956:Lib/AI_Runtime/Npu/ll_aton/ll_sw_float.c ****                         STRIDE_INIT(sw_info->general.output.stride.h, sw_info->general.output.strid
 957:Lib/AI_Runtime/Npu/ll_aton/ll_sw_float.c ****                                     sw_info->general.output.stride.c, sw_info->general.output.strid
 958:Lib/AI_Runtime/Npu/ll_aton/ll_sw_float.c ****                         1, &argmax_output_array, NULL)
 959:Lib/AI_Runtime/Npu/ll_aton/ll_sw_float.c ****   // tensor chain initialization
 960:Lib/AI_Runtime/Npu/ll_aton/ll_sw_float.c ****   AI_TENSOR_CHAIN_OBJ_DECLARE(argmax_chain, , 4, AI_TENSOR_LIST_OBJ_INIT(AI_FLAG_NONE, 1, TENSORS(&
 7392              		.loc 1 960 3
 7393 01b0 0423     		movs	r3, #4
 7394 01b2 A7F86C30 		strh	r3, [r7, #108]	@ movhi
 7395 01b6 0023     		movs	r3, #0
 7396 01b8 A7F86E30 		strh	r3, [r7, #110]	@ movhi
 7397 01bc 0123     		movs	r3, #1
 7398 01be BB85     		strh	r3, [r7, #44]	@ movhi
 7399 01c0 0023     		movs	r3, #0
 7400 01c2 FB85     		strh	r3, [r7, #46]	@ movhi
 7401 01c4 07F1D003 		add	r3, r7, #208
 7402 01c8 BB66     		str	r3, [r7, #104]
 7403 01ca 07F16803 		add	r3, r7, #104
 7404 01ce 3B63     		str	r3, [r7, #48]
 7405 01d0 0023     		movs	r3, #0
 7406 01d2 7B63     		str	r3, [r7, #52]
 7407 01d4 0123     		movs	r3, #1
 7408 01d6 3B87     		strh	r3, [r7, #56]	@ movhi
 7409 01d8 0023     		movs	r3, #0
 7410 01da 7B87     		strh	r3, [r7, #58]	@ movhi
 7411 01dc 07F19403 		add	r3, r7, #148
 7412 01e0 7B66     		str	r3, [r7, #100]
 7413 01e2 07F16403 		add	r3, r7, #100
 7414 01e6 FB63     		str	r3, [r7, #60]
 7415 01e8 0023     		movs	r3, #0
 7416 01ea 3B64     		str	r3, [r7, #64]
 7417 01ec 0023     		movs	r3, #0
 7418 01ee A7F84430 		strh	r3, [r7, #68]	@ movhi
 7419 01f2 0023     		movs	r3, #0
 7420 01f4 A7F84630 		strh	r3, [r7, #70]	@ movhi
 7421 01f8 0023     		movs	r3, #0
 7422 01fa 3B66     		str	r3, [r7, #96]
 7423 01fc 07F16003 		add	r3, r7, #96
 7424 0200 BB64     		str	r3, [r7, #72]
 7425 0202 0023     		movs	r3, #0
 7426 0204 FB64     		str	r3, [r7, #76]
 7427 0206 0023     		movs	r3, #0
 7428 0208 A7F85030 		strh	r3, [r7, #80]	@ movhi
 7429 020c 0023     		movs	r3, #0
 7430 020e A7F85230 		strh	r3, [r7, #82]	@ movhi
 7431 0212 0023     		movs	r3, #0
ARM GAS  /tmp/ccEo7NLA.s 			page 154


 7432 0214 FB65     		str	r3, [r7, #92]
 7433 0216 07F15C03 		add	r3, r7, #92
 7434 021a 7B65     		str	r3, [r7, #84]
 7435 021c 0023     		movs	r3, #0
 7436 021e BB65     		str	r3, [r7, #88]
 7437 0220 07F12C03 		add	r3, r7, #44
 7438 0224 3B67     		str	r3, [r7, #112]
 961:Lib/AI_Runtime/Npu/ll_aton/ll_sw_float.c ****                               AI_TENSOR_LIST_OBJ_INIT(AI_FLAG_NONE, 1, TENSORS(&argmax_output)),
 962:Lib/AI_Runtime/Npu/ll_aton/ll_sw_float.c ****                               AI_TENSOR_LIST_OBJ_EMPTY, AI_TENSOR_LIST_OBJ_EMPTY)
 963:Lib/AI_Runtime/Npu/ll_aton/ll_sw_float.c **** 
 964:Lib/AI_Runtime/Npu/ll_aton/ll_sw_float.c ****   AI_LAYER_OBJ_DECLARE(argmax_layer, 1, ARGMINMAX_TYPE, 0x0, NULL, argminmax, forward_argmax, &argm
 7439              		.loc 1 964 3
 7440 0226 07F58873 		add	r3, r7, #272
 7441 022a A3F58273 		sub	r3, r3, #260
 7442 022e 40F21F12 		movw	r2, #287
 7443 0232 1A80     		strh	r2, [r3]	@ movhi
 7444 0234 07F58873 		add	r3, r7, #272
 7445 0238 A3F58273 		sub	r3, r3, #260
 7446 023c 0122     		movs	r2, #1
 7447 023e 5A80     		strh	r2, [r3, #2]	@ movhi
 7448 0240 07F58873 		add	r3, r7, #272
 7449 0244 A3F58273 		sub	r3, r3, #260
 7450 0248 0022     		movs	r2, #0
 7451 024a 5A60     		str	r2, [r3, #4]
 7452 024c 07F58873 		add	r3, r7, #272
 7453 0250 A3F58273 		sub	r3, r3, #260
 7454 0254 0022     		movs	r2, #0
 7455 0256 9A60     		str	r2, [r3, #8]
 7456 0258 07F58873 		add	r3, r7, #272
 7457 025c A3F58273 		sub	r3, r3, #260
 7458 0260 0022     		movs	r2, #0
 7459 0262 DA60     		str	r2, [r3, #12]
 7460 0264 07F58873 		add	r3, r7, #272
 7461 0268 A3F58273 		sub	r3, r3, #260
 7462 026c 0022     		movs	r2, #0
 7463 026e 1A61     		str	r2, [r3, #16]
 7464 0270 07F58873 		add	r3, r7, #272
 7465 0274 A3F58273 		sub	r3, r3, #260
 7466 0278 184A     		ldr	r2, .L163+8
 7467 027a 5A61     		str	r2, [r3, #20]
 7468 027c 07F58873 		add	r3, r7, #272
 7469 0280 A3F58273 		sub	r3, r3, #260
 7470 0284 07F16C02 		add	r2, r7, #108
 7471 0288 9A61     		str	r2, [r3, #24]
 7472 028a D7F80C31 		ldr	r3, [r7, #268]
 7473 028e DB6D     		ldr	r3, [r3, #92]
 7474 0290 1846     		mov	r0, r3
 7475 0292 FFF7FEFF 		bl	helper_emit_shape_index_axis
 7476 0296 0346     		mov	r3, r0
 7477              		.loc 1 964 3 is_stmt 0 discriminator 1
 7478 0298 1AB2     		sxth	r2, r3
 7479 029a 07F58873 		add	r3, r7, #272
 7480 029e A3F58273 		sub	r3, r3, #260
 7481 02a2 9A83     		strh	r2, [r3, #28]	@ movhi
 7482 02a4 D7F80C31 		ldr	r3, [r7, #268]
 7483 02a8 5B6E     		ldr	r3, [r3, #100]
 7484 02aa 1AB2     		sxth	r2, r3
ARM GAS  /tmp/ccEo7NLA.s 			page 155


 7485 02ac 07F58873 		add	r3, r7, #272
 7486 02b0 A3F58273 		sub	r3, r3, #260
 7487 02b4 DA83     		strh	r2, [r3, #30]	@ movhi
 965:Lib/AI_Runtime/Npu/ll_aton/ll_sw_float.c ****                        , .axis = helper_emit_shape_index_axis(sw_info->axis),
 966:Lib/AI_Runtime/Npu/ll_aton/ll_sw_float.c ****                        .select_last_index = sw_info->select_last_index, )
 967:Lib/AI_Runtime/Npu/ll_aton/ll_sw_float.c ****   argmax_layer.forward(AI_LAYER_OBJ(&argmax_layer));
 7488              		.loc 1 967 15 is_stmt 1
 7489 02b6 07F58873 		add	r3, r7, #272
 7490 02ba A3F58273 		sub	r3, r3, #260
 7491 02be 5B69     		ldr	r3, [r3, #20]
 7492              		.loc 1 967 3
 7493 02c0 07F10C02 		add	r2, r7, #12
 7494 02c4 1046     		mov	r0, r2
 7495 02c6 9847     		blx	r3
 7496              	.LVL47:
 968:Lib/AI_Runtime/Npu/ll_aton/ll_sw_float.c **** }
 7497              		.loc 1 968 1
 7498 02c8 00BF     		nop
 7499 02ca 07F58877 		add	r7, r7, #272
 7500              		.cfi_def_cfa_offset 8
 7501 02ce BD46     		mov	sp, r7
 7502              		.cfi_def_cfa_register 13
 7503              		@ sp needed
 7504 02d0 80BD     		pop	{r7, pc}
 7505              	.L164:
 7506 02d2 00BF     		.align	2
 7507              	.L163:
 7508 02d4 40108200 		.word	8523840
 7509 02d8 40108400 		.word	8654912
 7510 02dc 00000000 		.word	forward_argmax
 7511              		.cfi_endproc
 7512              	.LFE24:
 7514              		.section	.text.ll_sw_forward_gather,"ax",%progbits
 7515              		.align	1
 7516              		.global	ll_sw_forward_gather
 7517              		.syntax unified
 7518              		.thumb
 7519              		.thumb_func
 7521              	ll_sw_forward_gather:
 7522              	.LFB25:
 969:Lib/AI_Runtime/Npu/ll_aton/ll_sw_float.c **** 
 970:Lib/AI_Runtime/Npu/ll_aton/ll_sw_float.c **** //##########################################################################################
 971:Lib/AI_Runtime/Npu/ll_aton/ll_sw_float.c **** /** Gather forward function  */
 972:Lib/AI_Runtime/Npu/ll_aton/ll_sw_float.c **** void ll_sw_forward_gather(/* int processor, */ void *sw_info_struct)
 973:Lib/AI_Runtime/Npu/ll_aton/ll_sw_float.c **** {
 7523              		.loc 1 973 1
 7524              		.cfi_startproc
 7525              		@ args = 0, pretend = 0, frame = 352
 7526              		@ frame_needed = 1, uses_anonymous_args = 0
 7527 0000 80B5     		push	{r7, lr}
 7528              		.cfi_def_cfa_offset 8
 7529              		.cfi_offset 7, -8
 7530              		.cfi_offset 14, -4
 7531 0002 D8B0     		sub	sp, sp, #352
 7532              		.cfi_def_cfa_offset 360
 7533 0004 00AF     		add	r7, sp, #0
 7534              		.cfi_def_cfa_register 7
ARM GAS  /tmp/ccEo7NLA.s 			page 156


 7535 0006 07F5B073 		add	r3, r7, #352
 7536 000a A3F5AE73 		sub	r3, r3, #348
 7537 000e 1860     		str	r0, [r3]
 974:Lib/AI_Runtime/Npu/ll_aton/ll_sw_float.c ****   Gather_sw_info *sw_info = (Gather_sw_info *)sw_info_struct;
 7538              		.loc 1 974 19
 7539 0010 07F5B073 		add	r3, r7, #352
 7540 0014 A3F5AE73 		sub	r3, r3, #348
 7541 0018 1B68     		ldr	r3, [r3]
 7542 001a C7F85C31 		str	r3, [r7, #348]
 975:Lib/AI_Runtime/Npu/ll_aton/ll_sw_float.c ****   AI_ARRAY_OBJ_DECLARE(input_output_array, FORMAT, sw_info->general.input.mem.start_offset,
 7543              		.loc 1 975 3
 7544 001e E14B     		ldr	r3, .L166
 7545 0020 C7F84C31 		str	r3, [r7, #332]
 7546 0024 D7F85C31 		ldr	r3, [r7, #348]
 7547 0028 5B69     		ldr	r3, [r3, #20]
 7548 002a C7F85031 		str	r3, [r7, #336]
 7549 002e D7F85C31 		ldr	r3, [r7, #348]
 7550 0032 9B6A     		ldr	r3, [r3, #40]
 7551 0034 C7F85431 		str	r3, [r7, #340]
 7552 0038 D7F85C31 		ldr	r3, [r7, #348]
 7553 003c 9B6A     		ldr	r3, [r3, #40]
 7554 003e C7F85831 		str	r3, [r7, #344]
 976:Lib/AI_Runtime/Npu/ll_aton/ll_sw_float.c ****                        sw_info->general.input.mem.start_offset, sw_info->general.input.dim.num_elem
 977:Lib/AI_Runtime/Npu/ll_aton/ll_sw_float.c ****   AI_ARRAY_OBJ_DECLARE(indexes_array, AI_ARRAY_FORMAT_S32, sw_info->operand.mem.start_offset,
 7555              		.loc 1 977 3
 7556 0042 D94B     		ldr	r3, .L166+4
 7557 0044 C7F83C31 		str	r3, [r7, #316]
 7558 0048 D7F85C31 		ldr	r3, [r7, #348]
 7559 004c DB6E     		ldr	r3, [r3, #108]
 7560 004e C7F84031 		str	r3, [r7, #320]
 7561 0052 D7F85C31 		ldr	r3, [r7, #348]
 7562 0056 D3F88030 		ldr	r3, [r3, #128]
 7563 005a C7F84431 		str	r3, [r7, #324]
 7564 005e D7F85C31 		ldr	r3, [r7, #348]
 7565 0062 D3F88030 		ldr	r3, [r3, #128]
 7566 0066 C7F84831 		str	r3, [r7, #328]
 978:Lib/AI_Runtime/Npu/ll_aton/ll_sw_float.c ****                        sw_info->operand.mem.start_offset, sw_info->operand.dim.num_elem, )
 979:Lib/AI_Runtime/Npu/ll_aton/ll_sw_float.c ****   AI_ARRAY_OBJ_DECLARE(gather_output_array, FORMAT, sw_info->general.output.mem.start_offset,
 7567              		.loc 1 979 3
 7568 006a CE4B     		ldr	r3, .L166
 7569 006c C7F82C31 		str	r3, [r7, #300]
 7570 0070 D7F85C31 		ldr	r3, [r7, #348]
 7571 0074 1B6C     		ldr	r3, [r3, #64]
 7572 0076 C7F83031 		str	r3, [r7, #304]
 7573 007a D7F85C31 		ldr	r3, [r7, #348]
 7574 007e 5B6D     		ldr	r3, [r3, #84]
 7575 0080 C7F83431 		str	r3, [r7, #308]
 7576 0084 D7F85C31 		ldr	r3, [r7, #348]
 7577 0088 5B6D     		ldr	r3, [r3, #84]
 7578 008a C7F83831 		str	r3, [r7, #312]
 980:Lib/AI_Runtime/Npu/ll_aton/ll_sw_float.c ****                        sw_info->general.output.mem.start_offset, sw_info->general.output.dim.num_el
 981:Lib/AI_Runtime/Npu/ll_aton/ll_sw_float.c ****   // tensor init
 982:Lib/AI_Runtime/Npu/ll_aton/ll_sw_float.c ****   AI_TENSOR_OBJ_DECLARE(input_output, , 0x0, 4,
 7579              		.loc 1 982 3
 7580 008e 0023     		movs	r3, #0
 7581 0090 C7F81031 		str	r3, [r7, #272]
 7582 0094 0023     		movs	r3, #0
ARM GAS  /tmp/ccEo7NLA.s 			page 157


 7583 0096 A7F81431 		strh	r3, [r7, #276]	@ movhi
 7584 009a 0423     		movs	r3, #4
 7585 009c 87F81631 		strb	r3, [r7, #278]
 7586 00a0 0123     		movs	r3, #1
 7587 00a2 87F81731 		strb	r3, [r7, #279]
 7588 00a6 0123     		movs	r3, #1
 7589 00a8 87F81831 		strb	r3, [r7, #280]
 7590 00ac D7F81831 		ldr	r3, [r7, #280]
 7591 00b0 0422     		movs	r2, #4
 7592 00b2 62F31F23 		bfi	r3, r2, #8, #24
 7593 00b6 C7F81831 		str	r3, [r7, #280]
 7594 00ba D7F85C31 		ldr	r3, [r7, #348]
 7595 00be 1B69     		ldr	r3, [r3, #16]
 7596 00c0 C7F80031 		str	r3, [r7, #256]
 7597 00c4 D7F85C31 		ldr	r3, [r7, #348]
 7598 00c8 DB68     		ldr	r3, [r3, #12]
 7599 00ca C7F80431 		str	r3, [r7, #260]
 7600 00ce D7F85C31 		ldr	r3, [r7, #348]
 7601 00d2 9B68     		ldr	r3, [r3, #8]
 7602 00d4 C7F80831 		str	r3, [r7, #264]
 7603 00d8 D7F85C31 		ldr	r3, [r7, #348]
 7604 00dc 5B68     		ldr	r3, [r3, #4]
 7605 00de C7F80C31 		str	r3, [r7, #268]
 7606 00e2 07F58073 		add	r3, r7, #256
 7607 00e6 C7F81C31 		str	r3, [r7, #284]
 7608 00ea 0223     		movs	r3, #2
 7609 00ec 87F82031 		strb	r3, [r7, #288]
 7610 00f0 D7F82031 		ldr	r3, [r7, #288]
 7611 00f4 0422     		movs	r2, #4
 7612 00f6 62F31F23 		bfi	r3, r2, #8, #24
 7613 00fa C7F82031 		str	r3, [r7, #288]
 7614 00fe D7F85C31 		ldr	r3, [r7, #348]
 7615 0102 5B6A     		ldr	r3, [r3, #36]
 7616 0104 C7F8F030 		str	r3, [r7, #240]
 7617 0108 D7F85C31 		ldr	r3, [r7, #348]
 7618 010c 1B6A     		ldr	r3, [r3, #32]
 7619 010e C7F8F430 		str	r3, [r7, #244]
 7620 0112 D7F85C31 		ldr	r3, [r7, #348]
 7621 0116 DB69     		ldr	r3, [r3, #28]
 7622 0118 C7F8F830 		str	r3, [r7, #248]
 7623 011c D7F85C31 		ldr	r3, [r7, #348]
 7624 0120 9B69     		ldr	r3, [r3, #24]
 7625 0122 C7F8FC30 		str	r3, [r7, #252]
 7626 0126 07F1F003 		add	r3, r7, #240
 7627 012a C7F82431 		str	r3, [r7, #292]
 7628 012e 07F5A673 		add	r3, r7, #332
 7629 0132 C7F82831 		str	r3, [r7, #296]
 983:Lib/AI_Runtime/Npu/ll_aton/ll_sw_float.c ****                         SHAPE_INIT(sw_info->general.input.dim.tensor_h, sw_info->general.input.dim.
 984:Lib/AI_Runtime/Npu/ll_aton/ll_sw_float.c ****                                    sw_info->general.input.dim.tensor_c, sw_info->general.input.dim.
 985:Lib/AI_Runtime/Npu/ll_aton/ll_sw_float.c ****                         STRIDE_INIT(sw_info->general.input.stride.h, sw_info->general.input.stride.
 986:Lib/AI_Runtime/Npu/ll_aton/ll_sw_float.c ****                                     sw_info->general.input.stride.c, sw_info->general.input.stride.
 987:Lib/AI_Runtime/Npu/ll_aton/ll_sw_float.c ****                         1, &input_output_array, NULL)
 988:Lib/AI_Runtime/Npu/ll_aton/ll_sw_float.c ****   AI_TENSOR_OBJ_DECLARE(indexes, , 0x0, 4,
 7630              		.loc 1 988 3
 7631 0136 0023     		movs	r3, #0
 7632 0138 C7F8D430 		str	r3, [r7, #212]
 7633 013c 0023     		movs	r3, #0
ARM GAS  /tmp/ccEo7NLA.s 			page 158


 7634 013e A7F8D830 		strh	r3, [r7, #216]	@ movhi
 7635 0142 0423     		movs	r3, #4
 7636 0144 87F8DA30 		strb	r3, [r7, #218]
 7637 0148 0123     		movs	r3, #1
 7638 014a 87F8DB30 		strb	r3, [r7, #219]
 7639 014e 0123     		movs	r3, #1
 7640 0150 87F8DC30 		strb	r3, [r7, #220]
 7641 0154 D7F8DC30 		ldr	r3, [r7, #220]
 7642 0158 0422     		movs	r2, #4
 7643 015a 62F31F23 		bfi	r3, r2, #8, #24
 7644 015e C7F8DC30 		str	r3, [r7, #220]
 7645 0162 D7F85C31 		ldr	r3, [r7, #348]
 7646 0166 9B6E     		ldr	r3, [r3, #104]
 7647 0168 C7F8C430 		str	r3, [r7, #196]
 7648 016c D7F85C31 		ldr	r3, [r7, #348]
 7649 0170 5B6E     		ldr	r3, [r3, #100]
 7650 0172 C7F8C830 		str	r3, [r7, #200]
 7651 0176 D7F85C31 		ldr	r3, [r7, #348]
 7652 017a 1B6E     		ldr	r3, [r3, #96]
 7653 017c C7F8CC30 		str	r3, [r7, #204]
 7654 0180 D7F85C31 		ldr	r3, [r7, #348]
 7655 0184 DB6D     		ldr	r3, [r3, #92]
 7656 0186 C7F8D030 		str	r3, [r7, #208]
 7657 018a 07F1C403 		add	r3, r7, #196
 7658 018e C7F8E030 		str	r3, [r7, #224]
 7659 0192 0223     		movs	r3, #2
 7660 0194 87F8E430 		strb	r3, [r7, #228]
 7661 0198 D7F8E430 		ldr	r3, [r7, #228]
 7662 019c 0422     		movs	r2, #4
 7663 019e 62F31F23 		bfi	r3, r2, #8, #24
 7664 01a2 C7F8E430 		str	r3, [r7, #228]
 7665 01a6 D7F85C31 		ldr	r3, [r7, #348]
 7666 01aa DB6F     		ldr	r3, [r3, #124]
 7667 01ac C7F8B430 		str	r3, [r7, #180]
 7668 01b0 D7F85C31 		ldr	r3, [r7, #348]
 7669 01b4 9B6F     		ldr	r3, [r3, #120]
 7670 01b6 C7F8B830 		str	r3, [r7, #184]
 7671 01ba D7F85C31 		ldr	r3, [r7, #348]
 7672 01be 5B6F     		ldr	r3, [r3, #116]
 7673 01c0 C7F8BC30 		str	r3, [r7, #188]
 7674 01c4 D7F85C31 		ldr	r3, [r7, #348]
 7675 01c8 1B6F     		ldr	r3, [r3, #112]
 7676 01ca C7F8C030 		str	r3, [r7, #192]
 7677 01ce 07F1B403 		add	r3, r7, #180
 7678 01d2 C7F8E830 		str	r3, [r7, #232]
 7679 01d6 07F59E73 		add	r3, r7, #316
 7680 01da C7F8EC30 		str	r3, [r7, #236]
 989:Lib/AI_Runtime/Npu/ll_aton/ll_sw_float.c ****                         SHAPE_INIT(sw_info->operand.dim.tensor_h, sw_info->operand.dim.tensor_w,
 990:Lib/AI_Runtime/Npu/ll_aton/ll_sw_float.c ****                                    sw_info->operand.dim.tensor_c, sw_info->operand.dim.tensor_b),
 991:Lib/AI_Runtime/Npu/ll_aton/ll_sw_float.c ****                         STRIDE_INIT(sw_info->operand.stride.h, sw_info->operand.stride.w, sw_info->
 992:Lib/AI_Runtime/Npu/ll_aton/ll_sw_float.c ****                                     sw_info->operand.stride.b),
 993:Lib/AI_Runtime/Npu/ll_aton/ll_sw_float.c ****                         1, &indexes_array, NULL)
 994:Lib/AI_Runtime/Npu/ll_aton/ll_sw_float.c ****   AI_TENSOR_OBJ_DECLARE(gather_output, , 0x0, 4,
 7681              		.loc 1 994 3
 7682 01de 0023     		movs	r3, #0
 7683 01e0 C7F89830 		str	r3, [r7, #152]
 7684 01e4 0023     		movs	r3, #0
ARM GAS  /tmp/ccEo7NLA.s 			page 159


 7685 01e6 A7F89C30 		strh	r3, [r7, #156]	@ movhi
 7686 01ea 0423     		movs	r3, #4
 7687 01ec 87F89E30 		strb	r3, [r7, #158]
 7688 01f0 0123     		movs	r3, #1
 7689 01f2 87F89F30 		strb	r3, [r7, #159]
 7690 01f6 0123     		movs	r3, #1
 7691 01f8 87F8A030 		strb	r3, [r7, #160]
 7692 01fc D7F8A030 		ldr	r3, [r7, #160]
 7693 0200 0422     		movs	r2, #4
 7694 0202 62F31F23 		bfi	r3, r2, #8, #24
 7695 0206 C7F8A030 		str	r3, [r7, #160]
 7696 020a D7F85C31 		ldr	r3, [r7, #348]
 7697 020e DB6B     		ldr	r3, [r3, #60]
 7698 0210 C7F88830 		str	r3, [r7, #136]
 7699 0214 D7F85C31 		ldr	r3, [r7, #348]
 7700 0218 9B6B     		ldr	r3, [r3, #56]
 7701 021a C7F88C30 		str	r3, [r7, #140]
 7702 021e D7F85C31 		ldr	r3, [r7, #348]
 7703 0222 5B6B     		ldr	r3, [r3, #52]
 7704 0224 C7F89030 		str	r3, [r7, #144]
 7705 0228 D7F85C31 		ldr	r3, [r7, #348]
 7706 022c 1B6B     		ldr	r3, [r3, #48]
 7707 022e C7F89430 		str	r3, [r7, #148]
 7708 0232 07F18803 		add	r3, r7, #136
 7709 0236 C7F8A430 		str	r3, [r7, #164]
 7710 023a 0223     		movs	r3, #2
 7711 023c 87F8A830 		strb	r3, [r7, #168]
 7712 0240 D7F8A830 		ldr	r3, [r7, #168]
 7713 0244 0422     		movs	r2, #4
 7714 0246 62F31F23 		bfi	r3, r2, #8, #24
 7715 024a C7F8A830 		str	r3, [r7, #168]
 7716 024e D7F85C31 		ldr	r3, [r7, #348]
 7717 0252 1B6D     		ldr	r3, [r3, #80]
 7718 0254 BB67     		str	r3, [r7, #120]
 7719 0256 D7F85C31 		ldr	r3, [r7, #348]
 7720 025a DB6C     		ldr	r3, [r3, #76]
 7721 025c FB67     		str	r3, [r7, #124]
 7722 025e D7F85C31 		ldr	r3, [r7, #348]
 7723 0262 9B6C     		ldr	r3, [r3, #72]
 7724 0264 C7F88030 		str	r3, [r7, #128]
 7725 0268 D7F85C31 		ldr	r3, [r7, #348]
 7726 026c 5B6C     		ldr	r3, [r3, #68]
 7727 026e C7F88430 		str	r3, [r7, #132]
 7728 0272 07F17803 		add	r3, r7, #120
 7729 0276 C7F8AC30 		str	r3, [r7, #172]
 7730 027a 07F59673 		add	r3, r7, #300
 7731 027e C7F8B030 		str	r3, [r7, #176]
 995:Lib/AI_Runtime/Npu/ll_aton/ll_sw_float.c ****                         SHAPE_INIT(sw_info->general.output.dim.tensor_h, sw_info->general.output.di
 996:Lib/AI_Runtime/Npu/ll_aton/ll_sw_float.c ****                                    sw_info->general.output.dim.tensor_c, sw_info->general.output.di
 997:Lib/AI_Runtime/Npu/ll_aton/ll_sw_float.c ****                         STRIDE_INIT(sw_info->general.output.stride.h, sw_info->general.output.strid
 998:Lib/AI_Runtime/Npu/ll_aton/ll_sw_float.c ****                                     sw_info->general.output.stride.c, sw_info->general.output.strid
 999:Lib/AI_Runtime/Npu/ll_aton/ll_sw_float.c ****                         1, &gather_output_array, NULL)
1000:Lib/AI_Runtime/Npu/ll_aton/ll_sw_float.c ****   // tensor chain initialization
1001:Lib/AI_Runtime/Npu/ll_aton/ll_sw_float.c ****   AI_TENSOR_CHAIN_OBJ_DECLARE(gather_chain, , 4,
 7732              		.loc 1 1001 3
 7733 0282 0423     		movs	r3, #4
 7734 0284 A7F87030 		strh	r3, [r7, #112]	@ movhi
ARM GAS  /tmp/ccEo7NLA.s 			page 160


 7735 0288 0023     		movs	r3, #0
 7736 028a A7F87230 		strh	r3, [r7, #114]	@ movhi
 7737 028e 07F5B073 		add	r3, r7, #352
 7738 0292 A3F59A73 		sub	r3, r3, #308
 7739 0296 0222     		movs	r2, #2
 7740 0298 1A80     		strh	r2, [r3]	@ movhi
 7741 029a 07F5B073 		add	r3, r7, #352
 7742 029e A3F59A73 		sub	r3, r3, #308
 7743 02a2 0022     		movs	r2, #0
 7744 02a4 5A80     		strh	r2, [r3, #2]	@ movhi
 7745 02a6 07F58873 		add	r3, r7, #272
 7746 02aa BB66     		str	r3, [r7, #104]
 7747 02ac 07F1D403 		add	r3, r7, #212
 7748 02b0 FB66     		str	r3, [r7, #108]
 7749 02b2 07F5B073 		add	r3, r7, #352
 7750 02b6 A3F59A73 		sub	r3, r3, #308
 7751 02ba 07F16802 		add	r2, r7, #104
 7752 02be 5A60     		str	r2, [r3, #4]
 7753 02c0 07F5B073 		add	r3, r7, #352
 7754 02c4 A3F59A73 		sub	r3, r3, #308
 7755 02c8 0022     		movs	r2, #0
 7756 02ca 9A60     		str	r2, [r3, #8]
 7757 02cc 07F5B073 		add	r3, r7, #352
 7758 02d0 A3F59A73 		sub	r3, r3, #308
 7759 02d4 0122     		movs	r2, #1
 7760 02d6 9A81     		strh	r2, [r3, #12]	@ movhi
 7761 02d8 07F5B073 		add	r3, r7, #352
 7762 02dc A3F59A73 		sub	r3, r3, #308
 7763 02e0 0022     		movs	r2, #0
 7764 02e2 DA81     		strh	r2, [r3, #14]	@ movhi
 7765 02e4 07F19803 		add	r3, r7, #152
 7766 02e8 7B66     		str	r3, [r7, #100]
 7767 02ea 07F5B073 		add	r3, r7, #352
 7768 02ee A3F59A73 		sub	r3, r3, #308
 7769 02f2 07F16402 		add	r2, r7, #100
 7770 02f6 1A61     		str	r2, [r3, #16]
 7771 02f8 07F5B073 		add	r3, r7, #352
 7772 02fc A3F59A73 		sub	r3, r3, #308
 7773 0300 0022     		movs	r2, #0
 7774 0302 5A61     		str	r2, [r3, #20]
 7775 0304 07F5B073 		add	r3, r7, #352
 7776 0308 A3F59A73 		sub	r3, r3, #308
 7777 030c 0022     		movs	r2, #0
 7778 030e 1A83     		strh	r2, [r3, #24]	@ movhi
 7779 0310 07F5B073 		add	r3, r7, #352
 7780 0314 A3F59A73 		sub	r3, r3, #308
 7781 0318 0022     		movs	r2, #0
 7782 031a 5A83     		strh	r2, [r3, #26]	@ movhi
 7783 031c 07F5B073 		add	r3, r7, #352
 7784 0320 A3F58073 		sub	r3, r3, #256
 7785 0324 0022     		movs	r2, #0
 7786 0326 1A60     		str	r2, [r3]
 7787 0328 07F5B073 		add	r3, r7, #352
 7788 032c A3F59A73 		sub	r3, r3, #308
 7789 0330 07F16002 		add	r2, r7, #96
 7790 0334 DA61     		str	r2, [r3, #28]
 7791 0336 07F5B073 		add	r3, r7, #352
ARM GAS  /tmp/ccEo7NLA.s 			page 161


 7792 033a A3F59A73 		sub	r3, r3, #308
 7793 033e 0022     		movs	r2, #0
 7794 0340 1A62     		str	r2, [r3, #32]
 7795 0342 07F5B073 		add	r3, r7, #352
 7796 0346 A3F59A73 		sub	r3, r3, #308
 7797 034a 0022     		movs	r2, #0
 7798 034c 9A84     		strh	r2, [r3, #36]	@ movhi
 7799 034e 07F5B073 		add	r3, r7, #352
 7800 0352 A3F59A73 		sub	r3, r3, #308
 7801 0356 0022     		movs	r2, #0
 7802 0358 DA84     		strh	r2, [r3, #38]	@ movhi
 7803 035a 07F5B073 		add	r3, r7, #352
 7804 035e A3F58273 		sub	r3, r3, #260
 7805 0362 0022     		movs	r2, #0
 7806 0364 1A60     		str	r2, [r3]
 7807 0366 07F5B073 		add	r3, r7, #352
 7808 036a A3F59A73 		sub	r3, r3, #308
 7809 036e 07F15C02 		add	r2, r7, #92
 7810 0372 9A62     		str	r2, [r3, #40]
 7811 0374 07F5B073 		add	r3, r7, #352
 7812 0378 A3F59A73 		sub	r3, r3, #308
 7813 037c 0022     		movs	r2, #0
 7814 037e DA62     		str	r2, [r3, #44]
 7815 0380 07F12C03 		add	r3, r7, #44
 7816 0384 7B67     		str	r3, [r7, #116]
1002:Lib/AI_Runtime/Npu/ll_aton/ll_sw_float.c ****                               AI_TENSOR_LIST_OBJ_INIT(AI_FLAG_NONE, 2, TENSORS(&input_output), TENS
1003:Lib/AI_Runtime/Npu/ll_aton/ll_sw_float.c ****                               AI_TENSOR_LIST_OBJ_INIT(AI_FLAG_NONE, 1, TENSORS(&gather_output)),
1004:Lib/AI_Runtime/Npu/ll_aton/ll_sw_float.c ****                               AI_TENSOR_LIST_OBJ_EMPTY, AI_TENSOR_LIST_OBJ_EMPTY)
1005:Lib/AI_Runtime/Npu/ll_aton/ll_sw_float.c ****   // LL_ATON_PRINTF("axis %d \n", sw_info->axis);
1006:Lib/AI_Runtime/Npu/ll_aton/ll_sw_float.c ****   // LL_ATON_PRINTF("index %d \n", *(int32_t *)(sw_info->operand.mem.start_offset));
1007:Lib/AI_Runtime/Npu/ll_aton/ll_sw_float.c ****   // LL_ATON_FFLUSH(stdout);
1008:Lib/AI_Runtime/Npu/ll_aton/ll_sw_float.c ****   AI_LAYER_OBJ_DECLARE(gather_layer, 1, GATHER_TYPE, 0x0, NULL, gather, forward_gather, &gather_cha
 7817              		.loc 1 1008 3
 7818 0386 07F5B073 		add	r3, r7, #352
 7819 038a A3F5AC73 		sub	r3, r3, #344
 7820 038e 1846     		mov	r0, r3
 7821 0390 2423     		movs	r3, #36
 7822 0392 1A46     		mov	r2, r3
 7823 0394 0021     		movs	r1, #0
 7824 0396 FFF7FEFF 		bl	memset
 7825 039a 07F5B073 		add	r3, r7, #352
 7826 039e A3F5AC73 		sub	r3, r3, #344
 7827 03a2 03E0     		b	.L167
 7828              	.L168:
 7829              		.align	2
 7830              	.L166:
 7831 03a4 40108200 		.word	8523840
 7832 03a8 40108400 		.word	8654912
 7833              	.L167:
 7834 03ac 4FF48E72 		mov	r2, #284
 7835 03b0 1A80     		strh	r2, [r3]	@ movhi
 7836 03b2 07F5B073 		add	r3, r7, #352
 7837 03b6 A3F5AC73 		sub	r3, r3, #344
 7838 03ba 0122     		movs	r2, #1
 7839 03bc 5A80     		strh	r2, [r3, #2]	@ movhi
 7840 03be 07F5B073 		add	r3, r7, #352
 7841 03c2 A3F5AC73 		sub	r3, r3, #344
ARM GAS  /tmp/ccEo7NLA.s 			page 162


 7842 03c6 124A     		ldr	r2, .L169
 7843 03c8 5A61     		str	r2, [r3, #20]
 7844 03ca 07F5B073 		add	r3, r7, #352
 7845 03ce A3F5AC73 		sub	r3, r3, #344
 7846 03d2 07F17002 		add	r2, r7, #112
 7847 03d6 9A61     		str	r2, [r3, #24]
 7848 03d8 D7F85C31 		ldr	r3, [r7, #348]
 7849 03dc D3F88830 		ldr	r3, [r3, #136]
 7850 03e0 1846     		mov	r0, r3
 7851 03e2 FFF7FEFF 		bl	helper_emit_shape_index_axis
 7852 03e6 0346     		mov	r3, r0
 7853              		.loc 1 1008 3 is_stmt 0 discriminator 1
 7854 03e8 1AB2     		sxth	r2, r3
 7855 03ea 07F5B073 		add	r3, r7, #352
 7856 03ee A3F5AC73 		sub	r3, r3, #344
 7857 03f2 9A83     		strh	r2, [r3, #28]	@ movhi
1009:Lib/AI_Runtime/Npu/ll_aton/ll_sw_float.c ****                        .axis = helper_emit_shape_index_axis(sw_info->axis), )
1010:Lib/AI_Runtime/Npu/ll_aton/ll_sw_float.c ****   gather_layer.forward(AI_LAYER_OBJ(&gather_layer));
 7858              		.loc 1 1010 15 is_stmt 1
 7859 03f4 07F5B073 		add	r3, r7, #352
 7860 03f8 A3F5AC73 		sub	r3, r3, #344
 7861 03fc 5B69     		ldr	r3, [r3, #20]
 7862              		.loc 1 1010 3
 7863 03fe 07F10802 		add	r2, r7, #8
 7864 0402 1046     		mov	r0, r2
 7865 0404 9847     		blx	r3
 7866              	.LVL48:
1011:Lib/AI_Runtime/Npu/ll_aton/ll_sw_float.c **** }
 7867              		.loc 1 1011 1
 7868 0406 00BF     		nop
 7869 0408 07F5B077 		add	r7, r7, #352
 7870              		.cfi_def_cfa_offset 8
 7871 040c BD46     		mov	sp, r7
 7872              		.cfi_def_cfa_register 13
 7873              		@ sp needed
 7874 040e 80BD     		pop	{r7, pc}
 7875              	.L170:
 7876              		.align	2
 7877              	.L169:
 7878 0410 00000000 		.word	forward_gather
 7879              		.cfi_endproc
 7880              	.LFE25:
 7882              		.section	.text.ll_sw_forward_argmin,"ax",%progbits
 7883              		.align	1
 7884              		.global	ll_sw_forward_argmin
 7885              		.syntax unified
 7886              		.thumb
 7887              		.thumb_func
 7889              	ll_sw_forward_argmin:
 7890              	.LFB26:
1012:Lib/AI_Runtime/Npu/ll_aton/ll_sw_float.c **** 
1013:Lib/AI_Runtime/Npu/ll_aton/ll_sw_float.c **** //##########################################################################################
1014:Lib/AI_Runtime/Npu/ll_aton/ll_sw_float.c **** /** ArgMin forward function  */
1015:Lib/AI_Runtime/Npu/ll_aton/ll_sw_float.c **** void ll_sw_forward_argmin(/* int processor, */ void *sw_info_struct)
1016:Lib/AI_Runtime/Npu/ll_aton/ll_sw_float.c **** {
 7891              		.loc 1 1016 1
 7892              		.cfi_startproc
ARM GAS  /tmp/ccEo7NLA.s 			page 163


 7893              		@ args = 0, pretend = 0, frame = 272
 7894              		@ frame_needed = 1, uses_anonymous_args = 0
 7895 0000 80B5     		push	{r7, lr}
 7896              		.cfi_def_cfa_offset 8
 7897              		.cfi_offset 7, -8
 7898              		.cfi_offset 14, -4
 7899 0002 C4B0     		sub	sp, sp, #272
 7900              		.cfi_def_cfa_offset 280
 7901 0004 00AF     		add	r7, sp, #0
 7902              		.cfi_def_cfa_register 7
 7903 0006 07F58873 		add	r3, r7, #272
 7904 000a A3F58673 		sub	r3, r3, #268
 7905 000e 1860     		str	r0, [r3]
1017:Lib/AI_Runtime/Npu/ll_aton/ll_sw_float.c ****   Argmin_sw_info *sw_info = (Argmin_sw_info *)sw_info_struct;
 7906              		.loc 1 1017 19
 7907 0010 07F58873 		add	r3, r7, #272
 7908 0014 A3F58673 		sub	r3, r3, #268
 7909 0018 1B68     		ldr	r3, [r3]
 7910 001a C7F80C31 		str	r3, [r7, #268]
1018:Lib/AI_Runtime/Npu/ll_aton/ll_sw_float.c ****   AI_ARRAY_OBJ_DECLARE(input_output_array, FORMAT, sw_info->general.input.mem.start_offset,
 7911              		.loc 1 1018 3
 7912 001e AD4B     		ldr	r3, .L172
 7913 0020 C7F8FC30 		str	r3, [r7, #252]
 7914 0024 D7F80C31 		ldr	r3, [r7, #268]
 7915 0028 5B69     		ldr	r3, [r3, #20]
 7916 002a C7F80031 		str	r3, [r7, #256]
 7917 002e D7F80C31 		ldr	r3, [r7, #268]
 7918 0032 9B6A     		ldr	r3, [r3, #40]
 7919 0034 C7F80431 		str	r3, [r7, #260]
 7920 0038 D7F80C31 		ldr	r3, [r7, #268]
 7921 003c 9B6A     		ldr	r3, [r3, #40]
 7922 003e C7F80831 		str	r3, [r7, #264]
1019:Lib/AI_Runtime/Npu/ll_aton/ll_sw_float.c ****                        sw_info->general.input.mem.start_offset, sw_info->general.input.dim.num_elem
1020:Lib/AI_Runtime/Npu/ll_aton/ll_sw_float.c ****   AI_ARRAY_OBJ_DECLARE(argmin_output_array, AI_ARRAY_FORMAT_S32, sw_info->general.output.mem.start_
 7923              		.loc 1 1020 3
 7924 0042 A54B     		ldr	r3, .L172+4
 7925 0044 C7F8EC30 		str	r3, [r7, #236]
 7926 0048 D7F80C31 		ldr	r3, [r7, #268]
 7927 004c 1B6C     		ldr	r3, [r3, #64]
 7928 004e C7F8F030 		str	r3, [r7, #240]
 7929 0052 D7F80C31 		ldr	r3, [r7, #268]
 7930 0056 5B6D     		ldr	r3, [r3, #84]
 7931 0058 C7F8F430 		str	r3, [r7, #244]
 7932 005c D7F80C31 		ldr	r3, [r7, #268]
 7933 0060 5B6D     		ldr	r3, [r3, #84]
 7934 0062 C7F8F830 		str	r3, [r7, #248]
1021:Lib/AI_Runtime/Npu/ll_aton/ll_sw_float.c ****                        sw_info->general.output.mem.start_offset, sw_info->general.output.dim.num_el
1022:Lib/AI_Runtime/Npu/ll_aton/ll_sw_float.c ****   // tensor init
1023:Lib/AI_Runtime/Npu/ll_aton/ll_sw_float.c ****   AI_TENSOR_OBJ_DECLARE(input_output, , 0x0, 4,
 7935              		.loc 1 1023 3
 7936 0066 0023     		movs	r3, #0
 7937 0068 C7F8D030 		str	r3, [r7, #208]
 7938 006c 0023     		movs	r3, #0
 7939 006e A7F8D430 		strh	r3, [r7, #212]	@ movhi
 7940 0072 0423     		movs	r3, #4
 7941 0074 87F8D630 		strb	r3, [r7, #214]
 7942 0078 0123     		movs	r3, #1
ARM GAS  /tmp/ccEo7NLA.s 			page 164


 7943 007a 87F8D730 		strb	r3, [r7, #215]
 7944 007e 0123     		movs	r3, #1
 7945 0080 87F8D830 		strb	r3, [r7, #216]
 7946 0084 D7F8D830 		ldr	r3, [r7, #216]
 7947 0088 0422     		movs	r2, #4
 7948 008a 62F31F23 		bfi	r3, r2, #8, #24
 7949 008e C7F8D830 		str	r3, [r7, #216]
 7950 0092 D7F80C31 		ldr	r3, [r7, #268]
 7951 0096 1B69     		ldr	r3, [r3, #16]
 7952 0098 C7F8C030 		str	r3, [r7, #192]
 7953 009c D7F80C31 		ldr	r3, [r7, #268]
 7954 00a0 DB68     		ldr	r3, [r3, #12]
 7955 00a2 C7F8C430 		str	r3, [r7, #196]
 7956 00a6 D7F80C31 		ldr	r3, [r7, #268]
 7957 00aa 9B68     		ldr	r3, [r3, #8]
 7958 00ac C7F8C830 		str	r3, [r7, #200]
 7959 00b0 D7F80C31 		ldr	r3, [r7, #268]
 7960 00b4 5B68     		ldr	r3, [r3, #4]
 7961 00b6 C7F8CC30 		str	r3, [r7, #204]
 7962 00ba 07F1C003 		add	r3, r7, #192
 7963 00be C7F8DC30 		str	r3, [r7, #220]
 7964 00c2 0223     		movs	r3, #2
 7965 00c4 87F8E030 		strb	r3, [r7, #224]
 7966 00c8 D7F8E030 		ldr	r3, [r7, #224]
 7967 00cc 0422     		movs	r2, #4
 7968 00ce 62F31F23 		bfi	r3, r2, #8, #24
 7969 00d2 C7F8E030 		str	r3, [r7, #224]
 7970 00d6 D7F80C31 		ldr	r3, [r7, #268]
 7971 00da 5B6A     		ldr	r3, [r3, #36]
 7972 00dc C7F8B030 		str	r3, [r7, #176]
 7973 00e0 D7F80C31 		ldr	r3, [r7, #268]
 7974 00e4 1B6A     		ldr	r3, [r3, #32]
 7975 00e6 C7F8B430 		str	r3, [r7, #180]
 7976 00ea D7F80C31 		ldr	r3, [r7, #268]
 7977 00ee DB69     		ldr	r3, [r3, #28]
 7978 00f0 C7F8B830 		str	r3, [r7, #184]
 7979 00f4 D7F80C31 		ldr	r3, [r7, #268]
 7980 00f8 9B69     		ldr	r3, [r3, #24]
 7981 00fa C7F8BC30 		str	r3, [r7, #188]
 7982 00fe 07F1B003 		add	r3, r7, #176
 7983 0102 C7F8E430 		str	r3, [r7, #228]
 7984 0106 07F1FC03 		add	r3, r7, #252
 7985 010a C7F8E830 		str	r3, [r7, #232]
1024:Lib/AI_Runtime/Npu/ll_aton/ll_sw_float.c ****                         SHAPE_INIT(sw_info->general.input.dim.tensor_h, sw_info->general.input.dim.
1025:Lib/AI_Runtime/Npu/ll_aton/ll_sw_float.c ****                                    sw_info->general.input.dim.tensor_c, sw_info->general.input.dim.
1026:Lib/AI_Runtime/Npu/ll_aton/ll_sw_float.c ****                         STRIDE_INIT(sw_info->general.input.stride.h, sw_info->general.input.stride.
1027:Lib/AI_Runtime/Npu/ll_aton/ll_sw_float.c ****                                     sw_info->general.input.stride.c, sw_info->general.input.stride.
1028:Lib/AI_Runtime/Npu/ll_aton/ll_sw_float.c ****                         1, &input_output_array, NULL)
1029:Lib/AI_Runtime/Npu/ll_aton/ll_sw_float.c ****   AI_TENSOR_OBJ_DECLARE(argmin_output, , 0x0, 4,
 7986              		.loc 1 1029 3
 7987 010e 0023     		movs	r3, #0
 7988 0110 C7F89430 		str	r3, [r7, #148]
 7989 0114 0023     		movs	r3, #0
 7990 0116 A7F89830 		strh	r3, [r7, #152]	@ movhi
 7991 011a 0423     		movs	r3, #4
 7992 011c 87F89A30 		strb	r3, [r7, #154]
 7993 0120 0123     		movs	r3, #1
ARM GAS  /tmp/ccEo7NLA.s 			page 165


 7994 0122 87F89B30 		strb	r3, [r7, #155]
 7995 0126 0123     		movs	r3, #1
 7996 0128 87F89C30 		strb	r3, [r7, #156]
 7997 012c D7F89C30 		ldr	r3, [r7, #156]
 7998 0130 0422     		movs	r2, #4
 7999 0132 62F31F23 		bfi	r3, r2, #8, #24
 8000 0136 C7F89C30 		str	r3, [r7, #156]
 8001 013a D7F80C31 		ldr	r3, [r7, #268]
 8002 013e DB6B     		ldr	r3, [r3, #60]
 8003 0140 C7F88430 		str	r3, [r7, #132]
 8004 0144 D7F80C31 		ldr	r3, [r7, #268]
 8005 0148 9B6B     		ldr	r3, [r3, #56]
 8006 014a C7F88830 		str	r3, [r7, #136]
 8007 014e D7F80C31 		ldr	r3, [r7, #268]
 8008 0152 5B6B     		ldr	r3, [r3, #52]
 8009 0154 C7F88C30 		str	r3, [r7, #140]
 8010 0158 D7F80C31 		ldr	r3, [r7, #268]
 8011 015c 1B6B     		ldr	r3, [r3, #48]
 8012 015e C7F89030 		str	r3, [r7, #144]
 8013 0162 07F18403 		add	r3, r7, #132
 8014 0166 C7F8A030 		str	r3, [r7, #160]
 8015 016a 0223     		movs	r3, #2
 8016 016c 87F8A430 		strb	r3, [r7, #164]
 8017 0170 D7F8A430 		ldr	r3, [r7, #164]
 8018 0174 0422     		movs	r2, #4
 8019 0176 62F31F23 		bfi	r3, r2, #8, #24
 8020 017a C7F8A430 		str	r3, [r7, #164]
 8021 017e D7F80C31 		ldr	r3, [r7, #268]
 8022 0182 1B6D     		ldr	r3, [r3, #80]
 8023 0184 7B67     		str	r3, [r7, #116]
 8024 0186 D7F80C31 		ldr	r3, [r7, #268]
 8025 018a DB6C     		ldr	r3, [r3, #76]
 8026 018c BB67     		str	r3, [r7, #120]
 8027 018e D7F80C31 		ldr	r3, [r7, #268]
 8028 0192 9B6C     		ldr	r3, [r3, #72]
 8029 0194 FB67     		str	r3, [r7, #124]
 8030 0196 D7F80C31 		ldr	r3, [r7, #268]
 8031 019a 5B6C     		ldr	r3, [r3, #68]
 8032 019c C7F88030 		str	r3, [r7, #128]
 8033 01a0 07F17403 		add	r3, r7, #116
 8034 01a4 C7F8A830 		str	r3, [r7, #168]
 8035 01a8 07F1EC03 		add	r3, r7, #236
 8036 01ac C7F8AC30 		str	r3, [r7, #172]
1030:Lib/AI_Runtime/Npu/ll_aton/ll_sw_float.c ****                         SHAPE_INIT(sw_info->general.output.dim.tensor_h, sw_info->general.output.di
1031:Lib/AI_Runtime/Npu/ll_aton/ll_sw_float.c ****                                    sw_info->general.output.dim.tensor_c, sw_info->general.output.di
1032:Lib/AI_Runtime/Npu/ll_aton/ll_sw_float.c ****                         STRIDE_INIT(sw_info->general.output.stride.h, sw_info->general.output.strid
1033:Lib/AI_Runtime/Npu/ll_aton/ll_sw_float.c ****                                     sw_info->general.output.stride.c, sw_info->general.output.strid
1034:Lib/AI_Runtime/Npu/ll_aton/ll_sw_float.c ****                         1, &argmin_output_array, NULL)
1035:Lib/AI_Runtime/Npu/ll_aton/ll_sw_float.c ****   // tensor chain initialization
1036:Lib/AI_Runtime/Npu/ll_aton/ll_sw_float.c ****   AI_TENSOR_CHAIN_OBJ_DECLARE(argmin_chain, , 4, AI_TENSOR_LIST_OBJ_INIT(AI_FLAG_NONE, 1, TENSORS(&
 8037              		.loc 1 1036 3
 8038 01b0 0423     		movs	r3, #4
 8039 01b2 A7F86C30 		strh	r3, [r7, #108]	@ movhi
 8040 01b6 0023     		movs	r3, #0
 8041 01b8 A7F86E30 		strh	r3, [r7, #110]	@ movhi
 8042 01bc 0123     		movs	r3, #1
 8043 01be BB85     		strh	r3, [r7, #44]	@ movhi
ARM GAS  /tmp/ccEo7NLA.s 			page 166


 8044 01c0 0023     		movs	r3, #0
 8045 01c2 FB85     		strh	r3, [r7, #46]	@ movhi
 8046 01c4 07F1D003 		add	r3, r7, #208
 8047 01c8 BB66     		str	r3, [r7, #104]
 8048 01ca 07F16803 		add	r3, r7, #104
 8049 01ce 3B63     		str	r3, [r7, #48]
 8050 01d0 0023     		movs	r3, #0
 8051 01d2 7B63     		str	r3, [r7, #52]
 8052 01d4 0123     		movs	r3, #1
 8053 01d6 3B87     		strh	r3, [r7, #56]	@ movhi
 8054 01d8 0023     		movs	r3, #0
 8055 01da 7B87     		strh	r3, [r7, #58]	@ movhi
 8056 01dc 07F19403 		add	r3, r7, #148
 8057 01e0 7B66     		str	r3, [r7, #100]
 8058 01e2 07F16403 		add	r3, r7, #100
 8059 01e6 FB63     		str	r3, [r7, #60]
 8060 01e8 0023     		movs	r3, #0
 8061 01ea 3B64     		str	r3, [r7, #64]
 8062 01ec 0023     		movs	r3, #0
 8063 01ee A7F84430 		strh	r3, [r7, #68]	@ movhi
 8064 01f2 0023     		movs	r3, #0
 8065 01f4 A7F84630 		strh	r3, [r7, #70]	@ movhi
 8066 01f8 0023     		movs	r3, #0
 8067 01fa 3B66     		str	r3, [r7, #96]
 8068 01fc 07F16003 		add	r3, r7, #96
 8069 0200 BB64     		str	r3, [r7, #72]
 8070 0202 0023     		movs	r3, #0
 8071 0204 FB64     		str	r3, [r7, #76]
 8072 0206 0023     		movs	r3, #0
 8073 0208 A7F85030 		strh	r3, [r7, #80]	@ movhi
 8074 020c 0023     		movs	r3, #0
 8075 020e A7F85230 		strh	r3, [r7, #82]	@ movhi
 8076 0212 0023     		movs	r3, #0
 8077 0214 FB65     		str	r3, [r7, #92]
 8078 0216 07F15C03 		add	r3, r7, #92
 8079 021a 7B65     		str	r3, [r7, #84]
 8080 021c 0023     		movs	r3, #0
 8081 021e BB65     		str	r3, [r7, #88]
 8082 0220 07F12C03 		add	r3, r7, #44
 8083 0224 3B67     		str	r3, [r7, #112]
1037:Lib/AI_Runtime/Npu/ll_aton/ll_sw_float.c ****                               AI_TENSOR_LIST_OBJ_INIT(AI_FLAG_NONE, 1, TENSORS(&argmin_output)),
1038:Lib/AI_Runtime/Npu/ll_aton/ll_sw_float.c ****                               AI_TENSOR_LIST_OBJ_EMPTY, AI_TENSOR_LIST_OBJ_EMPTY)
1039:Lib/AI_Runtime/Npu/ll_aton/ll_sw_float.c **** 
1040:Lib/AI_Runtime/Npu/ll_aton/ll_sw_float.c ****   AI_LAYER_OBJ_DECLARE(argmin_layer, 1, ARGMINMAX_TYPE, 0x0, NULL, argminmax, forward_argmin, &argm
 8084              		.loc 1 1040 3
 8085 0226 07F58873 		add	r3, r7, #272
 8086 022a A3F58273 		sub	r3, r3, #260
 8087 022e 40F21F12 		movw	r2, #287
 8088 0232 1A80     		strh	r2, [r3]	@ movhi
 8089 0234 07F58873 		add	r3, r7, #272
 8090 0238 A3F58273 		sub	r3, r3, #260
 8091 023c 0122     		movs	r2, #1
 8092 023e 5A80     		strh	r2, [r3, #2]	@ movhi
 8093 0240 07F58873 		add	r3, r7, #272
 8094 0244 A3F58273 		sub	r3, r3, #260
 8095 0248 0022     		movs	r2, #0
 8096 024a 5A60     		str	r2, [r3, #4]
ARM GAS  /tmp/ccEo7NLA.s 			page 167


 8097 024c 07F58873 		add	r3, r7, #272
 8098 0250 A3F58273 		sub	r3, r3, #260
 8099 0254 0022     		movs	r2, #0
 8100 0256 9A60     		str	r2, [r3, #8]
 8101 0258 07F58873 		add	r3, r7, #272
 8102 025c A3F58273 		sub	r3, r3, #260
 8103 0260 0022     		movs	r2, #0
 8104 0262 DA60     		str	r2, [r3, #12]
 8105 0264 07F58873 		add	r3, r7, #272
 8106 0268 A3F58273 		sub	r3, r3, #260
 8107 026c 0022     		movs	r2, #0
 8108 026e 1A61     		str	r2, [r3, #16]
 8109 0270 07F58873 		add	r3, r7, #272
 8110 0274 A3F58273 		sub	r3, r3, #260
 8111 0278 184A     		ldr	r2, .L172+8
 8112 027a 5A61     		str	r2, [r3, #20]
 8113 027c 07F58873 		add	r3, r7, #272
 8114 0280 A3F58273 		sub	r3, r3, #260
 8115 0284 07F16C02 		add	r2, r7, #108
 8116 0288 9A61     		str	r2, [r3, #24]
 8117 028a D7F80C31 		ldr	r3, [r7, #268]
 8118 028e DB6D     		ldr	r3, [r3, #92]
 8119 0290 1846     		mov	r0, r3
 8120 0292 FFF7FEFF 		bl	helper_emit_shape_index_axis
 8121 0296 0346     		mov	r3, r0
 8122              		.loc 1 1040 3 is_stmt 0 discriminator 1
 8123 0298 1AB2     		sxth	r2, r3
 8124 029a 07F58873 		add	r3, r7, #272
 8125 029e A3F58273 		sub	r3, r3, #260
 8126 02a2 9A83     		strh	r2, [r3, #28]	@ movhi
 8127 02a4 D7F80C31 		ldr	r3, [r7, #268]
 8128 02a8 5B6E     		ldr	r3, [r3, #100]
 8129 02aa 1AB2     		sxth	r2, r3
 8130 02ac 07F58873 		add	r3, r7, #272
 8131 02b0 A3F58273 		sub	r3, r3, #260
 8132 02b4 DA83     		strh	r2, [r3, #30]	@ movhi
1041:Lib/AI_Runtime/Npu/ll_aton/ll_sw_float.c ****                        , .axis = helper_emit_shape_index_axis(sw_info->axis),
1042:Lib/AI_Runtime/Npu/ll_aton/ll_sw_float.c ****                        .select_last_index = sw_info->select_last_index, )
1043:Lib/AI_Runtime/Npu/ll_aton/ll_sw_float.c ****   argmin_layer.forward(AI_LAYER_OBJ(&argmin_layer));
 8133              		.loc 1 1043 15 is_stmt 1
 8134 02b6 07F58873 		add	r3, r7, #272
 8135 02ba A3F58273 		sub	r3, r3, #260
 8136 02be 5B69     		ldr	r3, [r3, #20]
 8137              		.loc 1 1043 3
 8138 02c0 07F10C02 		add	r2, r7, #12
 8139 02c4 1046     		mov	r0, r2
 8140 02c6 9847     		blx	r3
 8141              	.LVL49:
1044:Lib/AI_Runtime/Npu/ll_aton/ll_sw_float.c **** }
 8142              		.loc 1 1044 1
 8143 02c8 00BF     		nop
 8144 02ca 07F58877 		add	r7, r7, #272
 8145              		.cfi_def_cfa_offset 8
 8146 02ce BD46     		mov	sp, r7
 8147              		.cfi_def_cfa_register 13
 8148              		@ sp needed
 8149 02d0 80BD     		pop	{r7, pc}
ARM GAS  /tmp/ccEo7NLA.s 			page 168


 8150              	.L173:
 8151 02d2 00BF     		.align	2
 8152              	.L172:
 8153 02d4 40108200 		.word	8523840
 8154 02d8 40108400 		.word	8654912
 8155 02dc 00000000 		.word	forward_argmin
 8156              		.cfi_endproc
 8157              	.LFE26:
 8159              		.section	.text.ll_sw_forward_reduce,"ax",%progbits
 8160              		.align	1
 8161              		.global	ll_sw_forward_reduce
 8162              		.syntax unified
 8163              		.thumb
 8164              		.thumb_func
 8166              	ll_sw_forward_reduce:
 8167              	.LFB27:
1045:Lib/AI_Runtime/Npu/ll_aton/ll_sw_float.c **** 
1046:Lib/AI_Runtime/Npu/ll_aton/ll_sw_float.c **** //##########################################################################################
1047:Lib/AI_Runtime/Npu/ll_aton/ll_sw_float.c **** /** Reduce forward function  */
1048:Lib/AI_Runtime/Npu/ll_aton/ll_sw_float.c **** void ll_sw_forward_reduce(/* int processor, */ void *sw_info_struct)
1049:Lib/AI_Runtime/Npu/ll_aton/ll_sw_float.c **** {
 8168              		.loc 1 1049 1
 8169              		.cfi_startproc
 8170              		@ args = 0, pretend = 0, frame = 304
 8171              		@ frame_needed = 1, uses_anonymous_args = 0
 8172 0000 80B5     		push	{r7, lr}
 8173              		.cfi_def_cfa_offset 8
 8174              		.cfi_offset 7, -8
 8175              		.cfi_offset 14, -4
 8176 0002 CCB0     		sub	sp, sp, #304
 8177              		.cfi_def_cfa_offset 312
 8178 0004 00AF     		add	r7, sp, #0
 8179              		.cfi_def_cfa_register 7
 8180 0006 07F59873 		add	r3, r7, #304
 8181 000a A3F59673 		sub	r3, r3, #300
 8182 000e 1860     		str	r0, [r3]
1050:Lib/AI_Runtime/Npu/ll_aton/ll_sw_float.c ****   Reduce_sw_info *sw_info = (Reduce_sw_info *)sw_info_struct;
 8183              		.loc 1 1050 19
 8184 0010 07F59873 		add	r3, r7, #304
 8185 0014 A3F59673 		sub	r3, r3, #300
 8186 0018 1B68     		ldr	r3, [r3]
 8187 001a C7F82431 		str	r3, [r7, #292]
1051:Lib/AI_Runtime/Npu/ll_aton/ll_sw_float.c ****   AI_ARRAY_OBJ_DECLARE(input_output_array, FORMAT, sw_info->general.input.mem.start_offset,
 8188              		.loc 1 1051 3
 8189 001e CA4B     		ldr	r3, .L186
 8190 0020 C7F81431 		str	r3, [r7, #276]
 8191 0024 D7F82431 		ldr	r3, [r7, #292]
 8192 0028 5B69     		ldr	r3, [r3, #20]
 8193 002a C7F81831 		str	r3, [r7, #280]
 8194 002e D7F82431 		ldr	r3, [r7, #292]
 8195 0032 9B6A     		ldr	r3, [r3, #40]
 8196 0034 C7F81C31 		str	r3, [r7, #284]
 8197 0038 D7F82431 		ldr	r3, [r7, #292]
 8198 003c 9B6A     		ldr	r3, [r3, #40]
 8199 003e C7F82031 		str	r3, [r7, #288]
1052:Lib/AI_Runtime/Npu/ll_aton/ll_sw_float.c ****                        sw_info->general.input.mem.start_offset, sw_info->general.input.dim.num_elem
1053:Lib/AI_Runtime/Npu/ll_aton/ll_sw_float.c ****   AI_ARRAY_OBJ_DECLARE(reduce_output_array, FORMAT, sw_info->general.output.mem.start_offset,
ARM GAS  /tmp/ccEo7NLA.s 			page 169


 8200              		.loc 1 1053 3
 8201 0042 C14B     		ldr	r3, .L186
 8202 0044 C7F80431 		str	r3, [r7, #260]
 8203 0048 D7F82431 		ldr	r3, [r7, #292]
 8204 004c 1B6C     		ldr	r3, [r3, #64]
 8205 004e C7F80831 		str	r3, [r7, #264]
 8206 0052 D7F82431 		ldr	r3, [r7, #292]
 8207 0056 5B6D     		ldr	r3, [r3, #84]
 8208 0058 C7F80C31 		str	r3, [r7, #268]
 8209 005c D7F82431 		ldr	r3, [r7, #292]
 8210 0060 5B6D     		ldr	r3, [r3, #84]
 8211 0062 C7F81031 		str	r3, [r7, #272]
1054:Lib/AI_Runtime/Npu/ll_aton/ll_sw_float.c ****                        sw_info->general.output.mem.start_offset, sw_info->general.output.dim.num_el
1055:Lib/AI_Runtime/Npu/ll_aton/ll_sw_float.c ****   // tensor init
1056:Lib/AI_Runtime/Npu/ll_aton/ll_sw_float.c ****   AI_TENSOR_OBJ_DECLARE(input_output, , 0x0, 4,
 8212              		.loc 1 1056 3
 8213 0066 0023     		movs	r3, #0
 8214 0068 C7F8E830 		str	r3, [r7, #232]
 8215 006c 0023     		movs	r3, #0
 8216 006e A7F8EC30 		strh	r3, [r7, #236]	@ movhi
 8217 0072 0423     		movs	r3, #4
 8218 0074 87F8EE30 		strb	r3, [r7, #238]
 8219 0078 0123     		movs	r3, #1
 8220 007a 87F8EF30 		strb	r3, [r7, #239]
 8221 007e 0123     		movs	r3, #1
 8222 0080 87F8F030 		strb	r3, [r7, #240]
 8223 0084 D7F8F030 		ldr	r3, [r7, #240]
 8224 0088 0422     		movs	r2, #4
 8225 008a 62F31F23 		bfi	r3, r2, #8, #24
 8226 008e C7F8F030 		str	r3, [r7, #240]
 8227 0092 D7F82431 		ldr	r3, [r7, #292]
 8228 0096 1B69     		ldr	r3, [r3, #16]
 8229 0098 C7F8D830 		str	r3, [r7, #216]
 8230 009c D7F82431 		ldr	r3, [r7, #292]
 8231 00a0 DB68     		ldr	r3, [r3, #12]
 8232 00a2 C7F8DC30 		str	r3, [r7, #220]
 8233 00a6 D7F82431 		ldr	r3, [r7, #292]
 8234 00aa 9B68     		ldr	r3, [r3, #8]
 8235 00ac C7F8E030 		str	r3, [r7, #224]
 8236 00b0 D7F82431 		ldr	r3, [r7, #292]
 8237 00b4 5B68     		ldr	r3, [r3, #4]
 8238 00b6 C7F8E430 		str	r3, [r7, #228]
 8239 00ba 07F1D803 		add	r3, r7, #216
 8240 00be C7F8F430 		str	r3, [r7, #244]
 8241 00c2 0223     		movs	r3, #2
 8242 00c4 87F8F830 		strb	r3, [r7, #248]
 8243 00c8 D7F8F830 		ldr	r3, [r7, #248]
 8244 00cc 0422     		movs	r2, #4
 8245 00ce 62F31F23 		bfi	r3, r2, #8, #24
 8246 00d2 C7F8F830 		str	r3, [r7, #248]
 8247 00d6 D7F82431 		ldr	r3, [r7, #292]
 8248 00da 5B6A     		ldr	r3, [r3, #36]
 8249 00dc C7F8C830 		str	r3, [r7, #200]
 8250 00e0 D7F82431 		ldr	r3, [r7, #292]
 8251 00e4 1B6A     		ldr	r3, [r3, #32]
 8252 00e6 C7F8CC30 		str	r3, [r7, #204]
 8253 00ea D7F82431 		ldr	r3, [r7, #292]
ARM GAS  /tmp/ccEo7NLA.s 			page 170


 8254 00ee DB69     		ldr	r3, [r3, #28]
 8255 00f0 C7F8D030 		str	r3, [r7, #208]
 8256 00f4 D7F82431 		ldr	r3, [r7, #292]
 8257 00f8 9B69     		ldr	r3, [r3, #24]
 8258 00fa C7F8D430 		str	r3, [r7, #212]
 8259 00fe 07F1C803 		add	r3, r7, #200
 8260 0102 C7F8FC30 		str	r3, [r7, #252]
 8261 0106 07F58A73 		add	r3, r7, #276
 8262 010a C7F80031 		str	r3, [r7, #256]
1057:Lib/AI_Runtime/Npu/ll_aton/ll_sw_float.c ****                         SHAPE_INIT(sw_info->general.input.dim.tensor_h, sw_info->general.input.dim.
1058:Lib/AI_Runtime/Npu/ll_aton/ll_sw_float.c ****                                    sw_info->general.input.dim.tensor_c, sw_info->general.input.dim.
1059:Lib/AI_Runtime/Npu/ll_aton/ll_sw_float.c ****                         STRIDE_INIT(sw_info->general.input.stride.h, sw_info->general.input.stride.
1060:Lib/AI_Runtime/Npu/ll_aton/ll_sw_float.c ****                                     sw_info->general.input.stride.c, sw_info->general.input.stride.
1061:Lib/AI_Runtime/Npu/ll_aton/ll_sw_float.c ****                         1, &input_output_array, NULL)
1062:Lib/AI_Runtime/Npu/ll_aton/ll_sw_float.c ****   AI_TENSOR_OBJ_DECLARE(reduce_output, , 0x0, 4,
 8263              		.loc 1 1062 3
 8264 010e 0023     		movs	r3, #0
 8265 0110 C7F8AC30 		str	r3, [r7, #172]
 8266 0114 0023     		movs	r3, #0
 8267 0116 A7F8B030 		strh	r3, [r7, #176]	@ movhi
 8268 011a 0423     		movs	r3, #4
 8269 011c 87F8B230 		strb	r3, [r7, #178]
 8270 0120 0123     		movs	r3, #1
 8271 0122 87F8B330 		strb	r3, [r7, #179]
 8272 0126 0123     		movs	r3, #1
 8273 0128 87F8B430 		strb	r3, [r7, #180]
 8274 012c D7F8B430 		ldr	r3, [r7, #180]
 8275 0130 0422     		movs	r2, #4
 8276 0132 62F31F23 		bfi	r3, r2, #8, #24
 8277 0136 C7F8B430 		str	r3, [r7, #180]
 8278 013a D7F82431 		ldr	r3, [r7, #292]
 8279 013e DB6B     		ldr	r3, [r3, #60]
 8280 0140 C7F89C30 		str	r3, [r7, #156]
 8281 0144 D7F82431 		ldr	r3, [r7, #292]
 8282 0148 9B6B     		ldr	r3, [r3, #56]
 8283 014a C7F8A030 		str	r3, [r7, #160]
 8284 014e D7F82431 		ldr	r3, [r7, #292]
 8285 0152 5B6B     		ldr	r3, [r3, #52]
 8286 0154 C7F8A430 		str	r3, [r7, #164]
 8287 0158 D7F82431 		ldr	r3, [r7, #292]
 8288 015c 1B6B     		ldr	r3, [r3, #48]
 8289 015e C7F8A830 		str	r3, [r7, #168]
 8290 0162 07F19C03 		add	r3, r7, #156
 8291 0166 C7F8B830 		str	r3, [r7, #184]
 8292 016a 0223     		movs	r3, #2
 8293 016c 87F8BC30 		strb	r3, [r7, #188]
 8294 0170 D7F8BC30 		ldr	r3, [r7, #188]
 8295 0174 0422     		movs	r2, #4
 8296 0176 62F31F23 		bfi	r3, r2, #8, #24
 8297 017a C7F8BC30 		str	r3, [r7, #188]
 8298 017e D7F82431 		ldr	r3, [r7, #292]
 8299 0182 1B6D     		ldr	r3, [r3, #80]
 8300 0184 C7F88C30 		str	r3, [r7, #140]
 8301 0188 D7F82431 		ldr	r3, [r7, #292]
 8302 018c DB6C     		ldr	r3, [r3, #76]
 8303 018e C7F89030 		str	r3, [r7, #144]
 8304 0192 D7F82431 		ldr	r3, [r7, #292]
ARM GAS  /tmp/ccEo7NLA.s 			page 171


 8305 0196 9B6C     		ldr	r3, [r3, #72]
 8306 0198 C7F89430 		str	r3, [r7, #148]
 8307 019c D7F82431 		ldr	r3, [r7, #292]
 8308 01a0 5B6C     		ldr	r3, [r3, #68]
 8309 01a2 C7F89830 		str	r3, [r7, #152]
 8310 01a6 07F18C03 		add	r3, r7, #140
 8311 01aa C7F8C030 		str	r3, [r7, #192]
 8312 01ae 07F58273 		add	r3, r7, #260
 8313 01b2 C7F8C430 		str	r3, [r7, #196]
1063:Lib/AI_Runtime/Npu/ll_aton/ll_sw_float.c ****                         SHAPE_INIT(sw_info->general.output.dim.tensor_h, sw_info->general.output.di
1064:Lib/AI_Runtime/Npu/ll_aton/ll_sw_float.c ****                                    sw_info->general.output.dim.tensor_c, sw_info->general.output.di
1065:Lib/AI_Runtime/Npu/ll_aton/ll_sw_float.c ****                         STRIDE_INIT(sw_info->general.output.stride.h, sw_info->general.output.strid
1066:Lib/AI_Runtime/Npu/ll_aton/ll_sw_float.c ****                                     sw_info->general.output.stride.c, sw_info->general.output.strid
1067:Lib/AI_Runtime/Npu/ll_aton/ll_sw_float.c ****                         1, &reduce_output_array, NULL)
1068:Lib/AI_Runtime/Npu/ll_aton/ll_sw_float.c ****   // tensor chain initialization
1069:Lib/AI_Runtime/Npu/ll_aton/ll_sw_float.c ****   AI_TENSOR_CHAIN_OBJ_DECLARE(reduce_chain, , 4, AI_TENSOR_LIST_OBJ_INIT(AI_FLAG_NONE, 1, TENSORS(&
 8314              		.loc 1 1069 3
 8315 01b6 0423     		movs	r3, #4
 8316 01b8 A7F88430 		strh	r3, [r7, #132]	@ movhi
 8317 01bc 0023     		movs	r3, #0
 8318 01be A7F88630 		strh	r3, [r7, #134]	@ movhi
 8319 01c2 0123     		movs	r3, #1
 8320 01c4 A7F84430 		strh	r3, [r7, #68]	@ movhi
 8321 01c8 0023     		movs	r3, #0
 8322 01ca A7F84630 		strh	r3, [r7, #70]	@ movhi
 8323 01ce 07F1E803 		add	r3, r7, #232
 8324 01d2 C7F88030 		str	r3, [r7, #128]
 8325 01d6 07F18003 		add	r3, r7, #128
 8326 01da BB64     		str	r3, [r7, #72]
 8327 01dc 0023     		movs	r3, #0
 8328 01de FB64     		str	r3, [r7, #76]
 8329 01e0 0123     		movs	r3, #1
 8330 01e2 A7F85030 		strh	r3, [r7, #80]	@ movhi
 8331 01e6 0023     		movs	r3, #0
 8332 01e8 A7F85230 		strh	r3, [r7, #82]	@ movhi
 8333 01ec 07F1AC03 		add	r3, r7, #172
 8334 01f0 FB67     		str	r3, [r7, #124]
 8335 01f2 07F17C03 		add	r3, r7, #124
 8336 01f6 7B65     		str	r3, [r7, #84]
 8337 01f8 0023     		movs	r3, #0
 8338 01fa BB65     		str	r3, [r7, #88]
 8339 01fc 0023     		movs	r3, #0
 8340 01fe A7F85C30 		strh	r3, [r7, #92]	@ movhi
 8341 0202 0023     		movs	r3, #0
 8342 0204 A7F85E30 		strh	r3, [r7, #94]	@ movhi
 8343 0208 0023     		movs	r3, #0
 8344 020a BB67     		str	r3, [r7, #120]
 8345 020c 07F17803 		add	r3, r7, #120
 8346 0210 3B66     		str	r3, [r7, #96]
 8347 0212 0023     		movs	r3, #0
 8348 0214 7B66     		str	r3, [r7, #100]
 8349 0216 0023     		movs	r3, #0
 8350 0218 A7F86830 		strh	r3, [r7, #104]	@ movhi
 8351 021c 0023     		movs	r3, #0
 8352 021e A7F86A30 		strh	r3, [r7, #106]	@ movhi
 8353 0222 0023     		movs	r3, #0
 8354 0224 7B67     		str	r3, [r7, #116]
ARM GAS  /tmp/ccEo7NLA.s 			page 172


 8355 0226 07F17403 		add	r3, r7, #116
 8356 022a FB66     		str	r3, [r7, #108]
 8357 022c 0023     		movs	r3, #0
 8358 022e 3B67     		str	r3, [r7, #112]
 8359 0230 07F14403 		add	r3, r7, #68
 8360 0234 C7F88830 		str	r3, [r7, #136]
1070:Lib/AI_Runtime/Npu/ll_aton/ll_sw_float.c ****                               AI_TENSOR_LIST_OBJ_INIT(AI_FLAG_NONE, 1, TENSORS(&reduce_output)),
1071:Lib/AI_Runtime/Npu/ll_aton/ll_sw_float.c ****                               AI_TENSOR_LIST_OBJ_EMPTY, AI_TENSOR_LIST_OBJ_EMPTY)
1072:Lib/AI_Runtime/Npu/ll_aton/ll_sw_float.c **** 
1073:Lib/AI_Runtime/Npu/ll_aton/ll_sw_float.c ****   if (sw_info->general.type == LL_SW_REDUCELOGSUMEXP)
 8361              		.loc 1 1073 23
 8362 0238 D7F82431 		ldr	r3, [r7, #292]
 8363 023c 1B78     		ldrb	r3, [r3]	@ zero_extendqisi2
 8364              		.loc 1 1073 6
 8365 023e 502B     		cmp	r3, #80
 8366 0240 48D1     		bne	.L175
 8367              	.LBB45:
1074:Lib/AI_Runtime/Npu/ll_aton/ll_sw_float.c ****   {
1075:Lib/AI_Runtime/Npu/ll_aton/ll_sw_float.c ****     AI_LAYER_OBJ_DECLARE(reduce_layer, 1, REDUCE_TYPE, 0x0, NULL, reduce_log_sum_exp, forward_reduc
 8368              		.loc 1 1075 5
 8369 0242 07F59873 		add	r3, r7, #304
 8370 0246 A3F59273 		sub	r3, r3, #292
 8371 024a 40F21912 		movw	r2, #281
 8372 024e 1A80     		strh	r2, [r3]	@ movhi
 8373 0250 07F59873 		add	r3, r7, #304
 8374 0254 A3F59273 		sub	r3, r3, #292
 8375 0258 0122     		movs	r2, #1
 8376 025a 5A80     		strh	r2, [r3, #2]	@ movhi
 8377 025c 07F59873 		add	r3, r7, #304
 8378 0260 A3F59273 		sub	r3, r3, #292
 8379 0264 0022     		movs	r2, #0
 8380 0266 5A60     		str	r2, [r3, #4]
 8381 0268 07F59873 		add	r3, r7, #304
 8382 026c A3F59273 		sub	r3, r3, #292
 8383 0270 0022     		movs	r2, #0
 8384 0272 9A60     		str	r2, [r3, #8]
 8385 0274 07F59873 		add	r3, r7, #304
 8386 0278 A3F59273 		sub	r3, r3, #292
 8387 027c 0022     		movs	r2, #0
 8388 027e DA60     		str	r2, [r3, #12]
 8389 0280 07F59873 		add	r3, r7, #304
 8390 0284 A3F59273 		sub	r3, r3, #292
 8391 0288 0022     		movs	r2, #0
 8392 028a 1A61     		str	r2, [r3, #16]
 8393 028c 07F59873 		add	r3, r7, #304
 8394 0290 A3F59273 		sub	r3, r3, #292
 8395 0294 2D4A     		ldr	r2, .L186+4
 8396 0296 5A61     		str	r2, [r3, #20]
 8397 0298 07F59873 		add	r3, r7, #304
 8398 029c A3F59273 		sub	r3, r3, #292
 8399 02a0 07F18402 		add	r2, r7, #132
 8400 02a4 9A61     		str	r2, [r3, #24]
 8401 02a6 D7F82431 		ldr	r3, [r7, #292]
 8402 02aa DB6D     		ldr	r3, [r3, #92]
 8403 02ac 1846     		mov	r0, r3
 8404 02ae FFF7FEFF 		bl	helper_emit_shape_index_axis
 8405 02b2 0346     		mov	r3, r0
ARM GAS  /tmp/ccEo7NLA.s 			page 173


 8406              		.loc 1 1075 5 is_stmt 0 discriminator 1
 8407 02b4 1A46     		mov	r2, r3
 8408 02b6 07F59873 		add	r3, r7, #304
 8409 02ba A3F59273 		sub	r3, r3, #292
 8410 02be DA61     		str	r2, [r3, #28]
1076:Lib/AI_Runtime/Npu/ll_aton/ll_sw_float.c ****                          &reduce_chain, NULL, NULL, , .axis = helper_emit_shape_index_axis(sw_info-
1077:Lib/AI_Runtime/Npu/ll_aton/ll_sw_float.c ****     reduce_layer.forward(AI_LAYER_OBJ(&reduce_layer));
 8411              		.loc 1 1077 17 is_stmt 1
 8412 02c0 07F59873 		add	r3, r7, #304
 8413 02c4 A3F59273 		sub	r3, r3, #292
 8414 02c8 5B69     		ldr	r3, [r3, #20]
 8415              		.loc 1 1077 5
 8416 02ca 07F10C02 		add	r2, r7, #12
 8417 02ce 1046     		mov	r0, r2
 8418 02d0 9847     		blx	r3
 8419              	.LVL50:
 8420              	.LBE45:
1078:Lib/AI_Runtime/Npu/ll_aton/ll_sw_float.c ****   }
1079:Lib/AI_Runtime/Npu/ll_aton/ll_sw_float.c ****   else
1080:Lib/AI_Runtime/Npu/ll_aton/ll_sw_float.c ****   {
1081:Lib/AI_Runtime/Npu/ll_aton/ll_sw_float.c ****     // element wise function to be applied to perform the reduction
1082:Lib/AI_Runtime/Npu/ll_aton/ll_sw_float.c ****     func_binary func = NULL;
1083:Lib/AI_Runtime/Npu/ll_aton/ll_sw_float.c ****     // Initialization value for operation
1084:Lib/AI_Runtime/Npu/ll_aton/ll_sw_float.c ****     float value = 0.0f;
1085:Lib/AI_Runtime/Npu/ll_aton/ll_sw_float.c **** 
1086:Lib/AI_Runtime/Npu/ll_aton/ll_sw_float.c ****     switch (sw_info->general.type)
1087:Lib/AI_Runtime/Npu/ll_aton/ll_sw_float.c ****     {
1088:Lib/AI_Runtime/Npu/ll_aton/ll_sw_float.c ****     // case LL_SW_REDUCEMEAN:
1089:Lib/AI_Runtime/Npu/ll_aton/ll_sw_float.c ****     //     func = ai_mean
1090:Lib/AI_Runtime/Npu/ll_aton/ll_sw_float.c ****     //     break;
1091:Lib/AI_Runtime/Npu/ll_aton/ll_sw_float.c ****     case LL_SW_REDUCESUM:
1092:Lib/AI_Runtime/Npu/ll_aton/ll_sw_float.c ****       func = ai_sum;
1093:Lib/AI_Runtime/Npu/ll_aton/ll_sw_float.c ****       value = 0.0f;
1094:Lib/AI_Runtime/Npu/ll_aton/ll_sw_float.c ****       break;
1095:Lib/AI_Runtime/Npu/ll_aton/ll_sw_float.c ****     case LL_SW_REDUCEMIN:
1096:Lib/AI_Runtime/Npu/ll_aton/ll_sw_float.c ****       func = ai_min;
1097:Lib/AI_Runtime/Npu/ll_aton/ll_sw_float.c ****       value = AI_FLT_MAX;
1098:Lib/AI_Runtime/Npu/ll_aton/ll_sw_float.c ****       break;
1099:Lib/AI_Runtime/Npu/ll_aton/ll_sw_float.c ****     case LL_SW_REDUCEMAX:
1100:Lib/AI_Runtime/Npu/ll_aton/ll_sw_float.c ****       func = ai_max;
1101:Lib/AI_Runtime/Npu/ll_aton/ll_sw_float.c ****       value = 0.0f;
1102:Lib/AI_Runtime/Npu/ll_aton/ll_sw_float.c ****       break;
1103:Lib/AI_Runtime/Npu/ll_aton/ll_sw_float.c ****     case LL_SW_REDUCEPROD:
1104:Lib/AI_Runtime/Npu/ll_aton/ll_sw_float.c ****       func = ai_max;
1105:Lib/AI_Runtime/Npu/ll_aton/ll_sw_float.c ****       value = 0.0f;
1106:Lib/AI_Runtime/Npu/ll_aton/ll_sw_float.c ****       break;
1107:Lib/AI_Runtime/Npu/ll_aton/ll_sw_float.c ****     default:
1108:Lib/AI_Runtime/Npu/ll_aton/ll_sw_float.c **** #ifdef LL_SW_ENABLE_ASSERTS
1109:Lib/AI_Runtime/Npu/ll_aton/ll_sw_float.c ****       LL_ATON_ASSERT(0 && "REDUCTION OPERATIONS NOT SUPPORTED");
1110:Lib/AI_Runtime/Npu/ll_aton/ll_sw_float.c **** #endif
1111:Lib/AI_Runtime/Npu/ll_aton/ll_sw_float.c ****       break;
1112:Lib/AI_Runtime/Npu/ll_aton/ll_sw_float.c ****     }
1113:Lib/AI_Runtime/Npu/ll_aton/ll_sw_float.c ****     AI_ARRAY_OBJ_DECLARE_STATIC(value_f, ai_float, AI_ARRAY_FORMAT_FLOAT, AI_CONST, 1, value)
1114:Lib/AI_Runtime/Npu/ll_aton/ll_sw_float.c **** 
1115:Lib/AI_Runtime/Npu/ll_aton/ll_sw_float.c ****     AI_LAYER_OBJ_DECLARE(reduce_layer, 1, REDUCE_TYPE, 0x0, NULL, reduce, forward_reduce, &reduce_c
1116:Lib/AI_Runtime/Npu/ll_aton/ll_sw_float.c ****                          .neutral_value = (&value_f), .operation = func)
1117:Lib/AI_Runtime/Npu/ll_aton/ll_sw_float.c **** 
ARM GAS  /tmp/ccEo7NLA.s 			page 174


1118:Lib/AI_Runtime/Npu/ll_aton/ll_sw_float.c ****     reduce_layer.forward(AI_LAYER_OBJ(&reduce_layer));
1119:Lib/AI_Runtime/Npu/ll_aton/ll_sw_float.c ****   }
1120:Lib/AI_Runtime/Npu/ll_aton/ll_sw_float.c **** }
 8421              		.loc 1 1120 1
 8422 02d2 9FE0     		b	.L185
 8423              	.L175:
 8424              	.LBB46:
1082:Lib/AI_Runtime/Npu/ll_aton/ll_sw_float.c ****     // Initialization value for operation
 8425              		.loc 1 1082 17
 8426 02d4 0023     		movs	r3, #0
 8427 02d6 C7F82C31 		str	r3, [r7, #300]
1084:Lib/AI_Runtime/Npu/ll_aton/ll_sw_float.c **** 
 8428              		.loc 1 1084 11
 8429 02da 4FF00003 		mov	r3, #0
 8430 02de C7F82831 		str	r3, [r7, #296]	@ float
1086:Lib/AI_Runtime/Npu/ll_aton/ll_sw_float.c ****     {
 8431              		.loc 1 1086 29
 8432 02e2 D7F82431 		ldr	r3, [r7, #292]
 8433 02e6 1B78     		ldrb	r3, [r3]	@ zero_extendqisi2
1086:Lib/AI_Runtime/Npu/ll_aton/ll_sw_float.c ****     {
 8434              		.loc 1 1086 5
 8435 02e8 3F3B     		subs	r3, r3, #63
 8436 02ea 042B     		cmp	r3, #4
 8437 02ec 38D8     		bhi	.L184
 8438 02ee 01A2     		adr	r2, .L179
 8439 02f0 52F823F0 		ldr	pc, [r2, r3, lsl #2]
 8440              		.p2align 2
 8441              	.L179:
 8442 02f4 09030000 		.word	.L182+1
 8443 02f8 19030000 		.word	.L181+1
 8444 02fc 61030000 		.word	.L184+1
 8445 0300 27030000 		.word	.L180+1
 8446 0304 37030000 		.word	.L178+1
 8447              		.p2align 1
 8448              	.L182:
1092:Lib/AI_Runtime/Npu/ll_aton/ll_sw_float.c ****       value = 0.0f;
 8449              		.loc 1 1092 12
 8450 0308 114B     		ldr	r3, .L186+8
 8451 030a C7F82C31 		str	r3, [r7, #300]
1093:Lib/AI_Runtime/Npu/ll_aton/ll_sw_float.c ****       break;
 8452              		.loc 1 1093 13
 8453 030e 4FF00003 		mov	r3, #0
 8454 0312 C7F82831 		str	r3, [r7, #296]	@ float
1094:Lib/AI_Runtime/Npu/ll_aton/ll_sw_float.c ****     case LL_SW_REDUCEMIN:
 8455              		.loc 1 1094 7
 8456 0316 24E0     		b	.L183
 8457              	.L181:
1096:Lib/AI_Runtime/Npu/ll_aton/ll_sw_float.c ****       value = AI_FLT_MAX;
 8458              		.loc 1 1096 12
 8459 0318 0E4B     		ldr	r3, .L186+12
 8460 031a C7F82C31 		str	r3, [r7, #300]
1097:Lib/AI_Runtime/Npu/ll_aton/ll_sw_float.c ****       break;
 8461              		.loc 1 1097 13
 8462 031e 0E4B     		ldr	r3, .L186+16
 8463 0320 C7F82831 		str	r3, [r7, #296]	@ float
1098:Lib/AI_Runtime/Npu/ll_aton/ll_sw_float.c ****     case LL_SW_REDUCEMAX:
 8464              		.loc 1 1098 7
ARM GAS  /tmp/ccEo7NLA.s 			page 175


 8465 0324 1DE0     		b	.L183
 8466              	.L180:
1100:Lib/AI_Runtime/Npu/ll_aton/ll_sw_float.c ****       value = 0.0f;
 8467              		.loc 1 1100 12
 8468 0326 0D4B     		ldr	r3, .L186+20
 8469 0328 C7F82C31 		str	r3, [r7, #300]
1101:Lib/AI_Runtime/Npu/ll_aton/ll_sw_float.c ****       break;
 8470              		.loc 1 1101 13
 8471 032c 4FF00003 		mov	r3, #0
 8472 0330 C7F82831 		str	r3, [r7, #296]	@ float
1102:Lib/AI_Runtime/Npu/ll_aton/ll_sw_float.c ****     case LL_SW_REDUCEPROD:
 8473              		.loc 1 1102 7
 8474 0334 15E0     		b	.L183
 8475              	.L178:
1104:Lib/AI_Runtime/Npu/ll_aton/ll_sw_float.c ****       value = 0.0f;
 8476              		.loc 1 1104 12
 8477 0336 094B     		ldr	r3, .L186+20
 8478 0338 C7F82C31 		str	r3, [r7, #300]
1105:Lib/AI_Runtime/Npu/ll_aton/ll_sw_float.c ****       break;
 8479              		.loc 1 1105 13
 8480 033c 4FF00003 		mov	r3, #0
 8481 0340 C7F82831 		str	r3, [r7, #296]	@ float
1106:Lib/AI_Runtime/Npu/ll_aton/ll_sw_float.c ****     default:
 8482              		.loc 1 1106 7
 8483 0344 0DE0     		b	.L183
 8484              	.L187:
 8485 0346 00BF     		.align	2
 8486              	.L186:
 8487 0348 40108200 		.word	8523840
 8488 034c 00000000 		.word	forward_reduce_log_sum_exp
 8489 0350 00000000 		.word	ai_sum
 8490 0354 00000000 		.word	ai_min
 8491 0358 FFFF7F7F 		.word	2139095039
 8492 035c 00000000 		.word	ai_max
 8493              	.L184:
1111:Lib/AI_Runtime/Npu/ll_aton/ll_sw_float.c ****     }
 8494              		.loc 1 1111 7
 8495 0360 00BF     		nop
 8496              	.L183:
1113:Lib/AI_Runtime/Npu/ll_aton/ll_sw_float.c **** 
 8497              		.loc 1 1113 5
 8498 0362 2F4B     		ldr	r3, .L188
 8499 0364 7B63     		str	r3, [r7, #52]
 8500 0366 0123     		movs	r3, #1
 8501 0368 BB63     		str	r3, [r7, #56]
 8502 036a 07F59873 		add	r3, r7, #304
 8503 036e A3F58073 		sub	r3, r3, #256
 8504 0372 D7F82821 		ldr	r2, [r7, #296]	@ float
 8505 0376 1A60     		str	r2, [r3]	@ float
 8506 0378 07F13003 		add	r3, r7, #48
 8507 037c FB63     		str	r3, [r7, #60]
 8508 037e 0023     		movs	r3, #0
 8509 0380 3B64     		str	r3, [r7, #64]
1115:Lib/AI_Runtime/Npu/ll_aton/ll_sw_float.c ****                          .neutral_value = (&value_f), .operation = func)
 8510              		.loc 1 1115 5
 8511 0382 07F59873 		add	r3, r7, #304
 8512 0386 A3F59273 		sub	r3, r3, #292
ARM GAS  /tmp/ccEo7NLA.s 			page 176


 8513 038a 40F21912 		movw	r2, #281
 8514 038e 1A80     		strh	r2, [r3]	@ movhi
 8515 0390 07F59873 		add	r3, r7, #304
 8516 0394 A3F59273 		sub	r3, r3, #292
 8517 0398 0122     		movs	r2, #1
 8518 039a 5A80     		strh	r2, [r3, #2]	@ movhi
 8519 039c 07F59873 		add	r3, r7, #304
 8520 03a0 A3F59273 		sub	r3, r3, #292
 8521 03a4 0022     		movs	r2, #0
 8522 03a6 5A60     		str	r2, [r3, #4]
 8523 03a8 07F59873 		add	r3, r7, #304
 8524 03ac A3F59273 		sub	r3, r3, #292
 8525 03b0 0022     		movs	r2, #0
 8526 03b2 9A60     		str	r2, [r3, #8]
 8527 03b4 07F59873 		add	r3, r7, #304
 8528 03b8 A3F59273 		sub	r3, r3, #292
 8529 03bc 0022     		movs	r2, #0
 8530 03be DA60     		str	r2, [r3, #12]
 8531 03c0 07F59873 		add	r3, r7, #304
 8532 03c4 A3F59273 		sub	r3, r3, #292
 8533 03c8 0022     		movs	r2, #0
 8534 03ca 1A61     		str	r2, [r3, #16]
 8535 03cc 07F59873 		add	r3, r7, #304
 8536 03d0 A3F59273 		sub	r3, r3, #292
 8537 03d4 134A     		ldr	r2, .L188+4
 8538 03d6 5A61     		str	r2, [r3, #20]
 8539 03d8 07F59873 		add	r3, r7, #304
 8540 03dc A3F59273 		sub	r3, r3, #292
 8541 03e0 07F18402 		add	r2, r7, #132
 8542 03e4 9A61     		str	r2, [r3, #24]
 8543 03e6 07F59873 		add	r3, r7, #304
 8544 03ea A3F59273 		sub	r3, r3, #292
 8545 03ee 07F13402 		add	r2, r7, #52
 8546 03f2 DA61     		str	r2, [r3, #28]
 8547 03f4 07F59873 		add	r3, r7, #304
 8548 03f8 A3F59273 		sub	r3, r3, #292
 8549 03fc D7F82C21 		ldr	r2, [r7, #300]
 8550 0400 1A62     		str	r2, [r3, #32]
1118:Lib/AI_Runtime/Npu/ll_aton/ll_sw_float.c ****   }
 8551              		.loc 1 1118 17
 8552 0402 07F59873 		add	r3, r7, #304
 8553 0406 A3F59273 		sub	r3, r3, #292
 8554 040a 5B69     		ldr	r3, [r3, #20]
1118:Lib/AI_Runtime/Npu/ll_aton/ll_sw_float.c ****   }
 8555              		.loc 1 1118 5
 8556 040c 07F10C02 		add	r2, r7, #12
 8557 0410 1046     		mov	r0, r2
 8558 0412 9847     		blx	r3
 8559              	.LVL51:
 8560              	.L185:
 8561              	.LBE46:
 8562              		.loc 1 1120 1
 8563 0414 00BF     		nop
 8564 0416 07F59877 		add	r7, r7, #304
 8565              		.cfi_def_cfa_offset 8
 8566 041a BD46     		mov	sp, r7
 8567              		.cfi_def_cfa_register 13
ARM GAS  /tmp/ccEo7NLA.s 			page 177


 8568              		@ sp needed
 8569 041c 80BD     		pop	{r7, pc}
 8570              	.L189:
 8571 041e 00BF     		.align	2
 8572              	.L188:
 8573 0420 40108200 		.word	8523840
 8574 0424 00000000 		.word	forward_reduce
 8575              		.cfi_endproc
 8576              	.LFE27:
 8578              		.section	.text.ll_sw_forward_bn,"ax",%progbits
 8579              		.align	1
 8580              		.global	ll_sw_forward_bn
 8581              		.syntax unified
 8582              		.thumb
 8583              		.thumb_func
 8585              	ll_sw_forward_bn:
 8586              	.LFB28:
1121:Lib/AI_Runtime/Npu/ll_aton/ll_sw_float.c **** 
1122:Lib/AI_Runtime/Npu/ll_aton/ll_sw_float.c **** //##########################################################################################
1123:Lib/AI_Runtime/Npu/ll_aton/ll_sw_float.c **** /** Batch Norm forward function  */
1124:Lib/AI_Runtime/Npu/ll_aton/ll_sw_float.c **** void ll_sw_forward_bn(/* int processor, */ void *sw_info_struct)
1125:Lib/AI_Runtime/Npu/ll_aton/ll_sw_float.c **** {
 8587              		.loc 1 1125 1
 8588              		.cfi_startproc
 8589              		@ args = 0, pretend = 0, frame = 536
 8590              		@ frame_needed = 1, uses_anonymous_args = 0
 8591 0000 80B5     		push	{r7, lr}
 8592              		.cfi_def_cfa_offset 8
 8593              		.cfi_offset 7, -8
 8594              		.cfi_offset 14, -4
 8595 0002 2DED028B 		vpush.64	{d8}
 8596              		.cfi_def_cfa_offset 16
 8597              		.cfi_offset 80, -16
 8598              		.cfi_offset 81, -12
 8599 0006 ADF5067D 		sub	sp, sp, #536
 8600              		.cfi_def_cfa_offset 552
 8601 000a 00AF     		add	r7, sp, #0
 8602              		.cfi_def_cfa_register 7
 8603 000c 07F50673 		add	r3, r7, #536
 8604 0010 A3F50573 		sub	r3, r3, #532
 8605 0014 1860     		str	r0, [r3]
1126:Lib/AI_Runtime/Npu/ll_aton/ll_sw_float.c ****   Bn_sw_info *sw_info = (Bn_sw_info *)sw_info_struct;
 8606              		.loc 1 1126 15
 8607 0016 07F50673 		add	r3, r7, #536
 8608 001a A3F50573 		sub	r3, r3, #532
 8609 001e 1B68     		ldr	r3, [r3]
 8610 0020 C7F80C32 		str	r3, [r7, #524]
1127:Lib/AI_Runtime/Npu/ll_aton/ll_sw_float.c **** 
1128:Lib/AI_Runtime/Npu/ll_aton/ll_sw_float.c ****   AI_ARRAY_OBJ_DECLARE(input_output_array, FORMAT, sw_info->general.input.mem.start_offset,
 8611              		.loc 1 1128 3
 8612 0024 DE4B     		ldr	r3, .L195
 8613 0026 C7F8C031 		str	r3, [r7, #448]
 8614 002a D7F80C32 		ldr	r3, [r7, #524]
 8615 002e 5B69     		ldr	r3, [r3, #20]
 8616 0030 C7F8C431 		str	r3, [r7, #452]
 8617 0034 D7F80C32 		ldr	r3, [r7, #524]
 8618 0038 9B6A     		ldr	r3, [r3, #40]
ARM GAS  /tmp/ccEo7NLA.s 			page 178


 8619 003a C7F8C831 		str	r3, [r7, #456]
 8620 003e D7F80C32 		ldr	r3, [r7, #524]
 8621 0042 9B6A     		ldr	r3, [r3, #40]
 8622 0044 C7F8CC31 		str	r3, [r7, #460]
1129:Lib/AI_Runtime/Npu/ll_aton/ll_sw_float.c ****                        sw_info->general.input.mem.start_offset, sw_info->general.input.dim.num_elem
1130:Lib/AI_Runtime/Npu/ll_aton/ll_sw_float.c ****   AI_ARRAY_OBJ_DECLARE(bn_output_array, FORMAT, sw_info->general.output.mem.start_offset,
 8623              		.loc 1 1130 3
 8624 0048 D54B     		ldr	r3, .L195
 8625 004a C7F8B031 		str	r3, [r7, #432]
 8626 004e D7F80C32 		ldr	r3, [r7, #524]
 8627 0052 1B6C     		ldr	r3, [r3, #64]
 8628 0054 C7F8B431 		str	r3, [r7, #436]
 8629 0058 D7F80C32 		ldr	r3, [r7, #524]
 8630 005c 5B6D     		ldr	r3, [r3, #84]
 8631 005e C7F8B831 		str	r3, [r7, #440]
 8632 0062 D7F80C32 		ldr	r3, [r7, #524]
 8633 0066 5B6D     		ldr	r3, [r3, #84]
 8634 0068 C7F8BC31 		str	r3, [r7, #444]
1131:Lib/AI_Runtime/Npu/ll_aton/ll_sw_float.c ****                        sw_info->general.output.mem.start_offset, sw_info->general.output.dim.num_el
1132:Lib/AI_Runtime/Npu/ll_aton/ll_sw_float.c ****   AI_ARRAY_OBJ_DECLARE(bn_bias_array, FORMAT, sw_info->bias.mem.start_offset, sw_info->bias.mem.sta
 8635              		.loc 1 1132 3
 8636 006c CC4B     		ldr	r3, .L195
 8637 006e C7F8A031 		str	r3, [r7, #416]
 8638 0072 D7F80C32 		ldr	r3, [r7, #524]
 8639 0076 DB6E     		ldr	r3, [r3, #108]
 8640 0078 C7F8A431 		str	r3, [r7, #420]
 8641 007c D7F80C32 		ldr	r3, [r7, #524]
 8642 0080 D3F88030 		ldr	r3, [r3, #128]
 8643 0084 C7F8A831 		str	r3, [r7, #424]
 8644 0088 D7F80C32 		ldr	r3, [r7, #524]
 8645 008c D3F88030 		ldr	r3, [r3, #128]
 8646 0090 C7F8AC31 		str	r3, [r7, #428]
1133:Lib/AI_Runtime/Npu/ll_aton/ll_sw_float.c ****                        sw_info->bias.dim.num_elem, )
1134:Lib/AI_Runtime/Npu/ll_aton/ll_sw_float.c ****   AI_ARRAY_OBJ_DECLARE(bn_scale_array, FORMAT, sw_info->scale.mem.start_offset, sw_info->scale.mem.
 8647              		.loc 1 1134 3
 8648 0094 C24B     		ldr	r3, .L195
 8649 0096 C7F89031 		str	r3, [r7, #400]
 8650 009a D7F80C32 		ldr	r3, [r7, #524]
 8651 009e D3F89830 		ldr	r3, [r3, #152]
 8652 00a2 C7F89431 		str	r3, [r7, #404]
 8653 00a6 D7F80C32 		ldr	r3, [r7, #524]
 8654 00aa D3F8AC30 		ldr	r3, [r3, #172]
 8655 00ae C7F89831 		str	r3, [r7, #408]
 8656 00b2 D7F80C32 		ldr	r3, [r7, #524]
 8657 00b6 D3F8AC30 		ldr	r3, [r3, #172]
 8658 00ba C7F89C31 		str	r3, [r7, #412]
1135:Lib/AI_Runtime/Npu/ll_aton/ll_sw_float.c ****                        sw_info->scale.dim.num_elem, )
1136:Lib/AI_Runtime/Npu/ll_aton/ll_sw_float.c ****   AI_ARRAY_OBJ_DECLARE(bn_mean_array, FORMAT, sw_info->mean.mem.start_offset, sw_info->mean.mem.sta
 8659              		.loc 1 1136 3
 8660 00be B84B     		ldr	r3, .L195
 8661 00c0 C7F88031 		str	r3, [r7, #384]
 8662 00c4 D7F80C32 		ldr	r3, [r7, #524]
 8663 00c8 D3F8C430 		ldr	r3, [r3, #196]
 8664 00cc C7F88431 		str	r3, [r7, #388]
 8665 00d0 D7F80C32 		ldr	r3, [r7, #524]
 8666 00d4 D3F8D830 		ldr	r3, [r3, #216]
 8667 00d8 C7F88831 		str	r3, [r7, #392]
ARM GAS  /tmp/ccEo7NLA.s 			page 179


 8668 00dc D7F80C32 		ldr	r3, [r7, #524]
 8669 00e0 D3F8D830 		ldr	r3, [r3, #216]
 8670 00e4 C7F88C31 		str	r3, [r7, #396]
1137:Lib/AI_Runtime/Npu/ll_aton/ll_sw_float.c ****                        sw_info->mean.dim.num_elem, )
1138:Lib/AI_Runtime/Npu/ll_aton/ll_sw_float.c ****   AI_ARRAY_OBJ_DECLARE(bn_var_array, FORMAT, sw_info->var.mem.start_offset, sw_info->var.mem.start_
 8671              		.loc 1 1138 3
 8672 00e8 AD4B     		ldr	r3, .L195
 8673 00ea C7F87031 		str	r3, [r7, #368]
 8674 00ee D7F80C32 		ldr	r3, [r7, #524]
 8675 00f2 D3F8F030 		ldr	r3, [r3, #240]
 8676 00f6 C7F87431 		str	r3, [r7, #372]
 8677 00fa D7F80C32 		ldr	r3, [r7, #524]
 8678 00fe D3F80431 		ldr	r3, [r3, #260]
 8679 0102 C7F87831 		str	r3, [r7, #376]
 8680 0106 D7F80C32 		ldr	r3, [r7, #524]
 8681 010a D3F80431 		ldr	r3, [r3, #260]
 8682 010e C7F87C31 		str	r3, [r7, #380]
1139:Lib/AI_Runtime/Npu/ll_aton/ll_sw_float.c ****                        sw_info->var.dim.num_elem, )
1140:Lib/AI_Runtime/Npu/ll_aton/ll_sw_float.c **** 
1141:Lib/AI_Runtime/Npu/ll_aton/ll_sw_float.c ****   // tensors init
1142:Lib/AI_Runtime/Npu/ll_aton/ll_sw_float.c ****   AI_TENSOR_OBJ_DECLARE(input_output, , 0x0, 4,
 8683              		.loc 1 1142 3
 8684 0112 0023     		movs	r3, #0
 8685 0114 C7F85431 		str	r3, [r7, #340]
 8686 0118 0023     		movs	r3, #0
 8687 011a A7F85831 		strh	r3, [r7, #344]	@ movhi
 8688 011e 0423     		movs	r3, #4
 8689 0120 87F85A31 		strb	r3, [r7, #346]
 8690 0124 0123     		movs	r3, #1
 8691 0126 87F85B31 		strb	r3, [r7, #347]
 8692 012a 0123     		movs	r3, #1
 8693 012c 87F85C31 		strb	r3, [r7, #348]
 8694 0130 D7F85C31 		ldr	r3, [r7, #348]
 8695 0134 0422     		movs	r2, #4
 8696 0136 62F31F23 		bfi	r3, r2, #8, #24
 8697 013a C7F85C31 		str	r3, [r7, #348]
 8698 013e D7F80C32 		ldr	r3, [r7, #524]
 8699 0142 1B69     		ldr	r3, [r3, #16]
 8700 0144 C7F84431 		str	r3, [r7, #324]
 8701 0148 D7F80C32 		ldr	r3, [r7, #524]
 8702 014c DB68     		ldr	r3, [r3, #12]
 8703 014e C7F84831 		str	r3, [r7, #328]
 8704 0152 D7F80C32 		ldr	r3, [r7, #524]
 8705 0156 9B68     		ldr	r3, [r3, #8]
 8706 0158 C7F84C31 		str	r3, [r7, #332]
 8707 015c D7F80C32 		ldr	r3, [r7, #524]
 8708 0160 5B68     		ldr	r3, [r3, #4]
 8709 0162 C7F85031 		str	r3, [r7, #336]
 8710 0166 07F5A273 		add	r3, r7, #324
 8711 016a C7F86031 		str	r3, [r7, #352]
 8712 016e 0223     		movs	r3, #2
 8713 0170 87F86431 		strb	r3, [r7, #356]
 8714 0174 D7F86431 		ldr	r3, [r7, #356]
 8715 0178 0422     		movs	r2, #4
 8716 017a 62F31F23 		bfi	r3, r2, #8, #24
 8717 017e C7F86431 		str	r3, [r7, #356]
 8718 0182 D7F80C32 		ldr	r3, [r7, #524]
ARM GAS  /tmp/ccEo7NLA.s 			page 180


 8719 0186 5B6A     		ldr	r3, [r3, #36]
 8720 0188 C7F83431 		str	r3, [r7, #308]
 8721 018c D7F80C32 		ldr	r3, [r7, #524]
 8722 0190 1B6A     		ldr	r3, [r3, #32]
 8723 0192 C7F83831 		str	r3, [r7, #312]
 8724 0196 D7F80C32 		ldr	r3, [r7, #524]
 8725 019a DB69     		ldr	r3, [r3, #28]
 8726 019c C7F83C31 		str	r3, [r7, #316]
 8727 01a0 D7F80C32 		ldr	r3, [r7, #524]
 8728 01a4 9B69     		ldr	r3, [r3, #24]
 8729 01a6 C7F84031 		str	r3, [r7, #320]
 8730 01aa 07F59A73 		add	r3, r7, #308
 8731 01ae C7F86831 		str	r3, [r7, #360]
 8732 01b2 07F5E073 		add	r3, r7, #448
 8733 01b6 C7F86C31 		str	r3, [r7, #364]
1143:Lib/AI_Runtime/Npu/ll_aton/ll_sw_float.c ****                         SHAPE_INIT(sw_info->general.input.dim.tensor_h, sw_info->general.input.dim.
1144:Lib/AI_Runtime/Npu/ll_aton/ll_sw_float.c ****                                    sw_info->general.input.dim.tensor_c, sw_info->general.input.dim.
1145:Lib/AI_Runtime/Npu/ll_aton/ll_sw_float.c ****                         STRIDE_INIT(sw_info->general.input.stride.h, sw_info->general.input.stride.
1146:Lib/AI_Runtime/Npu/ll_aton/ll_sw_float.c ****                                     sw_info->general.input.stride.c, sw_info->general.input.stride.
1147:Lib/AI_Runtime/Npu/ll_aton/ll_sw_float.c ****                         1, &input_output_array, NULL)
1148:Lib/AI_Runtime/Npu/ll_aton/ll_sw_float.c ****   AI_TENSOR_OBJ_DECLARE(bn_output, , 0x0, 4,
 8734              		.loc 1 1148 3
 8735 01ba 07F50673 		add	r3, r7, #536
 8736 01be A3F58073 		sub	r3, r3, #256
 8737 01c2 0022     		movs	r2, #0
 8738 01c4 1A60     		str	r2, [r3]
 8739 01c6 07F50673 		add	r3, r7, #536
 8740 01ca A3F58073 		sub	r3, r3, #256
 8741 01ce 0022     		movs	r2, #0
 8742 01d0 9A80     		strh	r2, [r3, #4]	@ movhi
 8743 01d2 07F50673 		add	r3, r7, #536
 8744 01d6 A3F58073 		sub	r3, r3, #256
 8745 01da 0422     		movs	r2, #4
 8746 01dc 9A71     		strb	r2, [r3, #6]
 8747 01de 07F50673 		add	r3, r7, #536
 8748 01e2 A3F58073 		sub	r3, r3, #256
 8749 01e6 0122     		movs	r2, #1
 8750 01e8 DA71     		strb	r2, [r3, #7]
 8751 01ea 07F50673 		add	r3, r7, #536
 8752 01ee A3F58073 		sub	r3, r3, #256
 8753 01f2 0122     		movs	r2, #1
 8754 01f4 1A72     		strb	r2, [r3, #8]
 8755 01f6 07F50673 		add	r3, r7, #536
 8756 01fa A3F58072 		sub	r2, r3, #256
 8757 01fe 9368     		ldr	r3, [r2, #8]
 8758 0200 0421     		movs	r1, #4
 8759 0202 61F31F23 		bfi	r3, r1, #8, #24
 8760 0206 9360     		str	r3, [r2, #8]
 8761 0208 D7F80C32 		ldr	r3, [r7, #524]
 8762 020c DA6B     		ldr	r2, [r3, #60]
 8763 020e 07F50673 		add	r3, r7, #536
 8764 0212 A3F58873 		sub	r3, r3, #272
 8765 0216 1A60     		str	r2, [r3]
 8766 0218 D7F80C32 		ldr	r3, [r7, #524]
 8767 021c 9A6B     		ldr	r2, [r3, #56]
 8768 021e 07F50673 		add	r3, r7, #536
 8769 0222 A3F58873 		sub	r3, r3, #272
ARM GAS  /tmp/ccEo7NLA.s 			page 181


 8770 0226 5A60     		str	r2, [r3, #4]
 8771 0228 D7F80C32 		ldr	r3, [r7, #524]
 8772 022c 5A6B     		ldr	r2, [r3, #52]
 8773 022e 07F50673 		add	r3, r7, #536
 8774 0232 A3F58873 		sub	r3, r3, #272
 8775 0236 9A60     		str	r2, [r3, #8]
 8776 0238 D7F80C32 		ldr	r3, [r7, #524]
 8777 023c 1A6B     		ldr	r2, [r3, #48]
 8778 023e 07F50673 		add	r3, r7, #536
 8779 0242 A3F58873 		sub	r3, r3, #272
 8780 0246 DA60     		str	r2, [r3, #12]
 8781 0248 07F50673 		add	r3, r7, #536
 8782 024c A3F58073 		sub	r3, r3, #256
 8783 0250 07F58472 		add	r2, r7, #264
 8784 0254 DA60     		str	r2, [r3, #12]
 8785 0256 07F50673 		add	r3, r7, #536
 8786 025a A3F58073 		sub	r3, r3, #256
 8787 025e 0222     		movs	r2, #2
 8788 0260 1A74     		strb	r2, [r3, #16]
 8789 0262 07F50673 		add	r3, r7, #536
 8790 0266 A3F58072 		sub	r2, r3, #256
 8791 026a 1369     		ldr	r3, [r2, #16]
 8792 026c 0421     		movs	r1, #4
 8793 026e 61F31F23 		bfi	r3, r1, #8, #24
 8794 0272 1361     		str	r3, [r2, #16]
 8795 0274 D7F80C32 		ldr	r3, [r7, #524]
 8796 0278 1B6D     		ldr	r3, [r3, #80]
 8797 027a 1A46     		mov	r2, r3
 8798 027c 07F50673 		add	r3, r7, #536
 8799 0280 A3F59073 		sub	r3, r3, #288
 8800 0284 1A60     		str	r2, [r3]
 8801 0286 D7F80C32 		ldr	r3, [r7, #524]
 8802 028a DB6C     		ldr	r3, [r3, #76]
 8803 028c 1A46     		mov	r2, r3
 8804 028e 07F50673 		add	r3, r7, #536
 8805 0292 A3F59073 		sub	r3, r3, #288
 8806 0296 5A60     		str	r2, [r3, #4]
 8807 0298 D7F80C32 		ldr	r3, [r7, #524]
 8808 029c 9B6C     		ldr	r3, [r3, #72]
 8809 029e 1A46     		mov	r2, r3
 8810 02a0 07F50673 		add	r3, r7, #536
 8811 02a4 A3F59073 		sub	r3, r3, #288
 8812 02a8 9A60     		str	r2, [r3, #8]
 8813 02aa D7F80C32 		ldr	r3, [r7, #524]
 8814 02ae 5B6C     		ldr	r3, [r3, #68]
 8815 02b0 1A46     		mov	r2, r3
 8816 02b2 07F50673 		add	r3, r7, #536
 8817 02b6 A3F59073 		sub	r3, r3, #288
 8818 02ba DA60     		str	r2, [r3, #12]
 8819 02bc 07F50673 		add	r3, r7, #536
 8820 02c0 A3F58073 		sub	r3, r3, #256
 8821 02c4 07F1F802 		add	r2, r7, #248
 8822 02c8 5A61     		str	r2, [r3, #20]
 8823 02ca 07F50673 		add	r3, r7, #536
 8824 02ce A3F58073 		sub	r3, r3, #256
 8825 02d2 07F5D872 		add	r2, r7, #432
 8826 02d6 9A61     		str	r2, [r3, #24]
ARM GAS  /tmp/ccEo7NLA.s 			page 182


1149:Lib/AI_Runtime/Npu/ll_aton/ll_sw_float.c ****                         SHAPE_INIT(sw_info->general.output.dim.tensor_h, sw_info->general.output.di
1150:Lib/AI_Runtime/Npu/ll_aton/ll_sw_float.c ****                                    sw_info->general.output.dim.tensor_c, sw_info->general.output.di
1151:Lib/AI_Runtime/Npu/ll_aton/ll_sw_float.c ****                         STRIDE_INIT(sw_info->general.output.stride.h, sw_info->general.output.strid
1152:Lib/AI_Runtime/Npu/ll_aton/ll_sw_float.c ****                                     sw_info->general.output.stride.c, sw_info->general.output.strid
1153:Lib/AI_Runtime/Npu/ll_aton/ll_sw_float.c ****                         1, &bn_output_array, NULL)
1154:Lib/AI_Runtime/Npu/ll_aton/ll_sw_float.c ****   AI_TENSOR_OBJ_DECLARE(
 8827              		.loc 1 1154 3
 8828 02d8 07F50673 		add	r3, r7, #536
 8829 02dc A3F59E73 		sub	r3, r3, #316
 8830 02e0 0022     		movs	r2, #0
 8831 02e2 1A60     		str	r2, [r3]
 8832 02e4 07F50673 		add	r3, r7, #536
 8833 02e8 A3F59E73 		sub	r3, r3, #316
 8834 02ec 0022     		movs	r2, #0
 8835 02ee 9A80     		strh	r2, [r3, #4]	@ movhi
 8836 02f0 07F50673 		add	r3, r7, #536
 8837 02f4 A3F59E73 		sub	r3, r3, #316
 8838 02f8 0422     		movs	r2, #4
 8839 02fa 9A71     		strb	r2, [r3, #6]
 8840 02fc 07F50673 		add	r3, r7, #536
 8841 0300 A3F59E73 		sub	r3, r3, #316
 8842 0304 0122     		movs	r2, #1
 8843 0306 DA71     		strb	r2, [r3, #7]
 8844 0308 07F50673 		add	r3, r7, #536
 8845 030c A3F59E73 		sub	r3, r3, #316
 8846 0310 0122     		movs	r2, #1
 8847 0312 1A72     		strb	r2, [r3, #8]
 8848 0314 07F50673 		add	r3, r7, #536
 8849 0318 A3F59E72 		sub	r2, r3, #316
 8850 031c 9368     		ldr	r3, [r2, #8]
 8851 031e 0421     		movs	r1, #4
 8852 0320 61F31F23 		bfi	r3, r1, #8, #24
 8853 0324 9360     		str	r3, [r2, #8]
 8854 0326 D7F80C32 		ldr	r3, [r7, #524]
 8855 032a 9A6E     		ldr	r2, [r3, #104]
 8856 032c 07F50673 		add	r3, r7, #536
 8857 0330 A3F5A673 		sub	r3, r3, #332
 8858 0334 1A60     		str	r2, [r3]
 8859 0336 D7F80C32 		ldr	r3, [r7, #524]
 8860 033a 5A6E     		ldr	r2, [r3, #100]
 8861 033c 07F50673 		add	r3, r7, #536
 8862 0340 A3F5A673 		sub	r3, r3, #332
 8863 0344 5A60     		str	r2, [r3, #4]
 8864 0346 D7F80C32 		ldr	r3, [r7, #524]
 8865 034a 1A6E     		ldr	r2, [r3, #96]
 8866 034c 07F50673 		add	r3, r7, #536
 8867 0350 A3F5A673 		sub	r3, r3, #332
 8868 0354 9A60     		str	r2, [r3, #8]
 8869 0356 D7F80C32 		ldr	r3, [r7, #524]
 8870 035a DA6D     		ldr	r2, [r3, #92]
 8871 035c 07F50673 		add	r3, r7, #536
 8872 0360 A3F5A673 		sub	r3, r3, #332
 8873 0364 DA60     		str	r2, [r3, #12]
 8874 0366 07F50673 		add	r3, r7, #536
 8875 036a A3F59E73 		sub	r3, r3, #316
 8876 036e 07F1CC02 		add	r2, r7, #204
 8877 0372 DA60     		str	r2, [r3, #12]
ARM GAS  /tmp/ccEo7NLA.s 			page 183


 8878 0374 07F50673 		add	r3, r7, #536
 8879 0378 A3F59E73 		sub	r3, r3, #316
 8880 037c 0222     		movs	r2, #2
 8881 037e 1A74     		strb	r2, [r3, #16]
 8882 0380 07F50673 		add	r3, r7, #536
 8883 0384 A3F59E72 		sub	r2, r3, #316
 8884 0388 1369     		ldr	r3, [r2, #16]
 8885 038a 0421     		movs	r1, #4
 8886 038c 61F31F23 		bfi	r3, r1, #8, #24
 8887 0390 1361     		str	r3, [r2, #16]
 8888 0392 D7F80C32 		ldr	r3, [r7, #524]
 8889 0396 DB6F     		ldr	r3, [r3, #124]
 8890 0398 1A46     		mov	r2, r3
 8891 039a 07F50673 		add	r3, r7, #536
 8892 039e 01E0     		b	.L196
 8893              	.L197:
 8894              		.align	2
 8895              	.L195:
 8896 03a0 40108200 		.word	8523840
 8897              	.L196:
 8898 03a4 A3F5AE73 		sub	r3, r3, #348
 8899 03a8 1A60     		str	r2, [r3]
 8900 03aa D7F80C32 		ldr	r3, [r7, #524]
 8901 03ae 9B6F     		ldr	r3, [r3, #120]
 8902 03b0 1A46     		mov	r2, r3
 8903 03b2 07F50673 		add	r3, r7, #536
 8904 03b6 A3F5AE73 		sub	r3, r3, #348
 8905 03ba 5A60     		str	r2, [r3, #4]
 8906 03bc D7F80C32 		ldr	r3, [r7, #524]
 8907 03c0 5B6F     		ldr	r3, [r3, #116]
 8908 03c2 1A46     		mov	r2, r3
 8909 03c4 07F50673 		add	r3, r7, #536
 8910 03c8 A3F5AE73 		sub	r3, r3, #348
 8911 03cc 9A60     		str	r2, [r3, #8]
 8912 03ce D7F80C32 		ldr	r3, [r7, #524]
 8913 03d2 1B6F     		ldr	r3, [r3, #112]
 8914 03d4 1A46     		mov	r2, r3
 8915 03d6 07F50673 		add	r3, r7, #536
 8916 03da A3F5AE73 		sub	r3, r3, #348
 8917 03de DA60     		str	r2, [r3, #12]
 8918 03e0 07F50673 		add	r3, r7, #536
 8919 03e4 A3F59E73 		sub	r3, r3, #316
 8920 03e8 07F1BC02 		add	r2, r7, #188
 8921 03ec 5A61     		str	r2, [r3, #20]
 8922 03ee 07F50673 		add	r3, r7, #536
 8923 03f2 A3F59E73 		sub	r3, r3, #316
 8924 03f6 07F5D072 		add	r2, r7, #416
 8925 03fa 9A61     		str	r2, [r3, #24]
1155:Lib/AI_Runtime/Npu/ll_aton/ll_sw_float.c ****       bn_bias, , 0x0, 4,
1156:Lib/AI_Runtime/Npu/ll_aton/ll_sw_float.c ****       SHAPE_INIT(sw_info->bias.dim.tensor_h, sw_info->bias.dim.tensor_w, sw_info->bias.dim.tensor_c
1157:Lib/AI_Runtime/Npu/ll_aton/ll_sw_float.c ****                  sw_info->bias.dim.tensor_b),
1158:Lib/AI_Runtime/Npu/ll_aton/ll_sw_float.c ****       STRIDE_INIT(sw_info->bias.stride.h, sw_info->bias.stride.w, sw_info->bias.stride.c, sw_info->
1159:Lib/AI_Runtime/Npu/ll_aton/ll_sw_float.c ****       &bn_bias_array, NULL);
1160:Lib/AI_Runtime/Npu/ll_aton/ll_sw_float.c ****   AI_TENSOR_OBJ_DECLARE(
 8926              		.loc 1 1160 3
 8927 03fc 07F50673 		add	r3, r7, #536
 8928 0400 A3F5BC73 		sub	r3, r3, #376
ARM GAS  /tmp/ccEo7NLA.s 			page 184


 8929 0404 0022     		movs	r2, #0
 8930 0406 1A60     		str	r2, [r3]
 8931 0408 07F50673 		add	r3, r7, #536
 8932 040c A3F5BC73 		sub	r3, r3, #376
 8933 0410 0022     		movs	r2, #0
 8934 0412 9A80     		strh	r2, [r3, #4]	@ movhi
 8935 0414 07F50673 		add	r3, r7, #536
 8936 0418 A3F5BC73 		sub	r3, r3, #376
 8937 041c 0422     		movs	r2, #4
 8938 041e 9A71     		strb	r2, [r3, #6]
 8939 0420 07F50673 		add	r3, r7, #536
 8940 0424 A3F5BC73 		sub	r3, r3, #376
 8941 0428 0122     		movs	r2, #1
 8942 042a DA71     		strb	r2, [r3, #7]
 8943 042c 07F50673 		add	r3, r7, #536
 8944 0430 A3F5BC73 		sub	r3, r3, #376
 8945 0434 0122     		movs	r2, #1
 8946 0436 1A72     		strb	r2, [r3, #8]
 8947 0438 07F50673 		add	r3, r7, #536
 8948 043c A3F5BC72 		sub	r2, r3, #376
 8949 0440 9368     		ldr	r3, [r2, #8]
 8950 0442 0421     		movs	r1, #4
 8951 0444 61F31F23 		bfi	r3, r1, #8, #24
 8952 0448 9360     		str	r3, [r2, #8]
 8953 044a D7F80C32 		ldr	r3, [r7, #524]
 8954 044e D3F89420 		ldr	r2, [r3, #148]
 8955 0452 07F50673 		add	r3, r7, #536
 8956 0456 A3F5C473 		sub	r3, r3, #392
 8957 045a 1A60     		str	r2, [r3]
 8958 045c D7F80C32 		ldr	r3, [r7, #524]
 8959 0460 D3F89020 		ldr	r2, [r3, #144]
 8960 0464 07F50673 		add	r3, r7, #536
 8961 0468 A3F5C473 		sub	r3, r3, #392
 8962 046c 5A60     		str	r2, [r3, #4]
 8963 046e D7F80C32 		ldr	r3, [r7, #524]
 8964 0472 D3F88C20 		ldr	r2, [r3, #140]
 8965 0476 07F50673 		add	r3, r7, #536
 8966 047a A3F5C473 		sub	r3, r3, #392
 8967 047e 9A60     		str	r2, [r3, #8]
 8968 0480 D7F80C32 		ldr	r3, [r7, #524]
 8969 0484 D3F88820 		ldr	r2, [r3, #136]
 8970 0488 07F50673 		add	r3, r7, #536
 8971 048c A3F5C473 		sub	r3, r3, #392
 8972 0490 DA60     		str	r2, [r3, #12]
 8973 0492 07F50673 		add	r3, r7, #536
 8974 0496 A3F5BC73 		sub	r3, r3, #376
 8975 049a 07F19002 		add	r2, r7, #144
 8976 049e DA60     		str	r2, [r3, #12]
 8977 04a0 07F50673 		add	r3, r7, #536
 8978 04a4 A3F5BC73 		sub	r3, r3, #376
 8979 04a8 0222     		movs	r2, #2
 8980 04aa 1A74     		strb	r2, [r3, #16]
 8981 04ac 07F50673 		add	r3, r7, #536
 8982 04b0 A3F5BC72 		sub	r2, r3, #376
 8983 04b4 1369     		ldr	r3, [r2, #16]
 8984 04b6 0421     		movs	r1, #4
 8985 04b8 61F31F23 		bfi	r3, r1, #8, #24
ARM GAS  /tmp/ccEo7NLA.s 			page 185


 8986 04bc 1361     		str	r3, [r2, #16]
 8987 04be D7F80C32 		ldr	r3, [r7, #524]
 8988 04c2 D3F8A830 		ldr	r3, [r3, #168]
 8989 04c6 1A46     		mov	r2, r3
 8990 04c8 07F50673 		add	r3, r7, #536
 8991 04cc A3F5CC73 		sub	r3, r3, #408
 8992 04d0 1A60     		str	r2, [r3]
 8993 04d2 D7F80C32 		ldr	r3, [r7, #524]
 8994 04d6 D3F8A430 		ldr	r3, [r3, #164]
 8995 04da 1A46     		mov	r2, r3
 8996 04dc 07F50673 		add	r3, r7, #536
 8997 04e0 A3F5CC73 		sub	r3, r3, #408
 8998 04e4 5A60     		str	r2, [r3, #4]
 8999 04e6 D7F80C32 		ldr	r3, [r7, #524]
 9000 04ea D3F8A030 		ldr	r3, [r3, #160]
 9001 04ee 1A46     		mov	r2, r3
 9002 04f0 07F50673 		add	r3, r7, #536
 9003 04f4 A3F5CC73 		sub	r3, r3, #408
 9004 04f8 9A60     		str	r2, [r3, #8]
 9005 04fa D7F80C32 		ldr	r3, [r7, #524]
 9006 04fe D3F89C30 		ldr	r3, [r3, #156]
 9007 0502 1A46     		mov	r2, r3
 9008 0504 07F50673 		add	r3, r7, #536
 9009 0508 A3F5CC73 		sub	r3, r3, #408
 9010 050c DA60     		str	r2, [r3, #12]
 9011 050e 07F50673 		add	r3, r7, #536
 9012 0512 A3F5BC73 		sub	r3, r3, #376
 9013 0516 07F18002 		add	r2, r7, #128
 9014 051a 5A61     		str	r2, [r3, #20]
 9015 051c 07F50673 		add	r3, r7, #536
 9016 0520 A3F5BC73 		sub	r3, r3, #376
 9017 0524 07F5C872 		add	r2, r7, #400
 9018 0528 9A61     		str	r2, [r3, #24]
1161:Lib/AI_Runtime/Npu/ll_aton/ll_sw_float.c ****       bn_scale, , 0x0, 4,
1162:Lib/AI_Runtime/Npu/ll_aton/ll_sw_float.c ****       SHAPE_INIT(sw_info->scale.dim.tensor_h, sw_info->scale.dim.tensor_w, sw_info->scale.dim.tenso
1163:Lib/AI_Runtime/Npu/ll_aton/ll_sw_float.c ****                  sw_info->scale.dim.tensor_b),
1164:Lib/AI_Runtime/Npu/ll_aton/ll_sw_float.c ****       STRIDE_INIT(sw_info->scale.stride.h, sw_info->scale.stride.w, sw_info->scale.stride.c, sw_inf
1165:Lib/AI_Runtime/Npu/ll_aton/ll_sw_float.c ****       1, &bn_scale_array, NULL);
1166:Lib/AI_Runtime/Npu/ll_aton/ll_sw_float.c ****   AI_TENSOR_OBJ_DECLARE(
 9019              		.loc 1 1166 3
 9020 052a 07F50673 		add	r3, r7, #536
 9021 052e A3F5DA73 		sub	r3, r3, #436
 9022 0532 0022     		movs	r2, #0
 9023 0534 1A60     		str	r2, [r3]
 9024 0536 07F50673 		add	r3, r7, #536
 9025 053a A3F5DA73 		sub	r3, r3, #436
 9026 053e 0022     		movs	r2, #0
 9027 0540 9A80     		strh	r2, [r3, #4]	@ movhi
 9028 0542 07F50673 		add	r3, r7, #536
 9029 0546 A3F5DA73 		sub	r3, r3, #436
 9030 054a 0422     		movs	r2, #4
 9031 054c 9A71     		strb	r2, [r3, #6]
 9032 054e 07F50673 		add	r3, r7, #536
 9033 0552 A3F5DA73 		sub	r3, r3, #436
 9034 0556 0122     		movs	r2, #1
 9035 0558 DA71     		strb	r2, [r3, #7]
 9036 055a 07F50673 		add	r3, r7, #536
ARM GAS  /tmp/ccEo7NLA.s 			page 186


 9037 055e A3F5DA73 		sub	r3, r3, #436
 9038 0562 0122     		movs	r2, #1
 9039 0564 1A72     		strb	r2, [r3, #8]
 9040 0566 07F50673 		add	r3, r7, #536
 9041 056a A3F5DA72 		sub	r2, r3, #436
 9042 056e 9368     		ldr	r3, [r2, #8]
 9043 0570 0421     		movs	r1, #4
 9044 0572 61F31F23 		bfi	r3, r1, #8, #24
 9045 0576 9360     		str	r3, [r2, #8]
 9046 0578 D7F80C32 		ldr	r3, [r7, #524]
 9047 057c D3F8C020 		ldr	r2, [r3, #192]
 9048 0580 07F50673 		add	r3, r7, #536
 9049 0584 A3F5E273 		sub	r3, r3, #452
 9050 0588 1A60     		str	r2, [r3]
 9051 058a D7F80C32 		ldr	r3, [r7, #524]
 9052 058e D3F8BC20 		ldr	r2, [r3, #188]
 9053 0592 07F50673 		add	r3, r7, #536
 9054 0596 A3F5E273 		sub	r3, r3, #452
 9055 059a 5A60     		str	r2, [r3, #4]
 9056 059c D7F80C32 		ldr	r3, [r7, #524]
 9057 05a0 D3F8B820 		ldr	r2, [r3, #184]
 9058 05a4 07F50673 		add	r3, r7, #536
 9059 05a8 A3F5E273 		sub	r3, r3, #452
 9060 05ac 9A60     		str	r2, [r3, #8]
 9061 05ae D7F80C32 		ldr	r3, [r7, #524]
 9062 05b2 D3F8B420 		ldr	r2, [r3, #180]
 9063 05b6 07F50673 		add	r3, r7, #536
 9064 05ba A3F5E273 		sub	r3, r3, #452
 9065 05be DA60     		str	r2, [r3, #12]
 9066 05c0 07F50673 		add	r3, r7, #536
 9067 05c4 A3F5DA73 		sub	r3, r3, #436
 9068 05c8 07F15402 		add	r2, r7, #84
 9069 05cc DA60     		str	r2, [r3, #12]
 9070 05ce 07F50673 		add	r3, r7, #536
 9071 05d2 A3F5DA73 		sub	r3, r3, #436
 9072 05d6 0222     		movs	r2, #2
 9073 05d8 1A74     		strb	r2, [r3, #16]
 9074 05da 07F50673 		add	r3, r7, #536
 9075 05de A3F5DA72 		sub	r2, r3, #436
 9076 05e2 1369     		ldr	r3, [r2, #16]
 9077 05e4 0421     		movs	r1, #4
 9078 05e6 61F31F23 		bfi	r3, r1, #8, #24
 9079 05ea 1361     		str	r3, [r2, #16]
 9080 05ec D7F80C32 		ldr	r3, [r7, #524]
 9081 05f0 D3F8D430 		ldr	r3, [r3, #212]
 9082 05f4 1A46     		mov	r2, r3
 9083 05f6 07F50673 		add	r3, r7, #536
 9084 05fa A3F5EA73 		sub	r3, r3, #468
 9085 05fe 1A60     		str	r2, [r3]
 9086 0600 D7F80C32 		ldr	r3, [r7, #524]
 9087 0604 D3F8D030 		ldr	r3, [r3, #208]
 9088 0608 1A46     		mov	r2, r3
 9089 060a 07F50673 		add	r3, r7, #536
 9090 060e A3F5EA73 		sub	r3, r3, #468
 9091 0612 5A60     		str	r2, [r3, #4]
 9092 0614 D7F80C32 		ldr	r3, [r7, #524]
 9093 0618 D3F8CC30 		ldr	r3, [r3, #204]
ARM GAS  /tmp/ccEo7NLA.s 			page 187


 9094 061c 1A46     		mov	r2, r3
 9095 061e 07F50673 		add	r3, r7, #536
 9096 0622 A3F5EA73 		sub	r3, r3, #468
 9097 0626 9A60     		str	r2, [r3, #8]
 9098 0628 D7F80C32 		ldr	r3, [r7, #524]
 9099 062c D3F8C830 		ldr	r3, [r3, #200]
 9100 0630 1A46     		mov	r2, r3
 9101 0632 07F50673 		add	r3, r7, #536
 9102 0636 A3F5EA73 		sub	r3, r3, #468
 9103 063a DA60     		str	r2, [r3, #12]
 9104 063c 07F50673 		add	r3, r7, #536
 9105 0640 A3F5DA73 		sub	r3, r3, #436
 9106 0644 07F14402 		add	r2, r7, #68
 9107 0648 5A61     		str	r2, [r3, #20]
 9108 064a 07F50673 		add	r3, r7, #536
 9109 064e A3F5DA73 		sub	r3, r3, #436
 9110 0652 07F5C072 		add	r2, r7, #384
 9111 0656 9A61     		str	r2, [r3, #24]
1167:Lib/AI_Runtime/Npu/ll_aton/ll_sw_float.c ****       bn_mean, , 0x0, 4,
1168:Lib/AI_Runtime/Npu/ll_aton/ll_sw_float.c ****       SHAPE_INIT(sw_info->mean.dim.tensor_h, sw_info->mean.dim.tensor_w, sw_info->mean.dim.tensor_c
1169:Lib/AI_Runtime/Npu/ll_aton/ll_sw_float.c ****                  sw_info->mean.dim.tensor_b),
1170:Lib/AI_Runtime/Npu/ll_aton/ll_sw_float.c ****       STRIDE_INIT(sw_info->mean.stride.h, sw_info->mean.stride.w, sw_info->mean.stride.c, sw_info->
1171:Lib/AI_Runtime/Npu/ll_aton/ll_sw_float.c ****       &bn_mean_array, NULL);
1172:Lib/AI_Runtime/Npu/ll_aton/ll_sw_float.c ****   AI_TENSOR_OBJ_DECLARE(
 9112              		.loc 1 1172 3
 9113 0658 07F50673 		add	r3, r7, #536
 9114 065c A3F5F873 		sub	r3, r3, #496
 9115 0660 0022     		movs	r2, #0
 9116 0662 1A60     		str	r2, [r3]
 9117 0664 07F50673 		add	r3, r7, #536
 9118 0668 A3F5F873 		sub	r3, r3, #496
 9119 066c 0022     		movs	r2, #0
 9120 066e 9A80     		strh	r2, [r3, #4]	@ movhi
 9121 0670 07F50673 		add	r3, r7, #536
 9122 0674 A3F5F873 		sub	r3, r3, #496
 9123 0678 0422     		movs	r2, #4
 9124 067a 9A71     		strb	r2, [r3, #6]
 9125 067c 07F50673 		add	r3, r7, #536
 9126 0680 A3F5F873 		sub	r3, r3, #496
 9127 0684 0122     		movs	r2, #1
 9128 0686 DA71     		strb	r2, [r3, #7]
 9129 0688 07F50673 		add	r3, r7, #536
 9130 068c A3F5F873 		sub	r3, r3, #496
 9131 0690 0122     		movs	r2, #1
 9132 0692 1A72     		strb	r2, [r3, #8]
 9133 0694 07F50673 		add	r3, r7, #536
 9134 0698 A3F5F872 		sub	r2, r3, #496
 9135 069c 9368     		ldr	r3, [r2, #8]
 9136 069e 0421     		movs	r1, #4
 9137 06a0 61F31F23 		bfi	r3, r1, #8, #24
 9138 06a4 9360     		str	r3, [r2, #8]
 9139 06a6 D7F80C32 		ldr	r3, [r7, #524]
 9140 06aa D3F8EC20 		ldr	r2, [r3, #236]
 9141 06ae 07F50673 		add	r3, r7, #536
 9142 06b2 A3F50073 		sub	r3, r3, #512
 9143 06b6 1A60     		str	r2, [r3]
 9144 06b8 D7F80C32 		ldr	r3, [r7, #524]
ARM GAS  /tmp/ccEo7NLA.s 			page 188


 9145 06bc D3F8E820 		ldr	r2, [r3, #232]
 9146 06c0 07F50673 		add	r3, r7, #536
 9147 06c4 A3F50073 		sub	r3, r3, #512
 9148 06c8 5A60     		str	r2, [r3, #4]
 9149 06ca D7F80C32 		ldr	r3, [r7, #524]
 9150 06ce D3F8E420 		ldr	r2, [r3, #228]
 9151 06d2 07F50673 		add	r3, r7, #536
 9152 06d6 A3F50073 		sub	r3, r3, #512
 9153 06da 9A60     		str	r2, [r3, #8]
 9154 06dc D7F80C32 		ldr	r3, [r7, #524]
 9155 06e0 D3F8E020 		ldr	r2, [r3, #224]
 9156 06e4 07F50673 		add	r3, r7, #536
 9157 06e8 A3F50073 		sub	r3, r3, #512
 9158 06ec DA60     		str	r2, [r3, #12]
 9159 06ee 07F50673 		add	r3, r7, #536
 9160 06f2 A3F5F873 		sub	r3, r3, #496
 9161 06f6 07F11802 		add	r2, r7, #24
 9162 06fa DA60     		str	r2, [r3, #12]
 9163 06fc 07F50673 		add	r3, r7, #536
 9164 0700 A3F5F873 		sub	r3, r3, #496
 9165 0704 0222     		movs	r2, #2
 9166 0706 1A74     		strb	r2, [r3, #16]
 9167 0708 07F50673 		add	r3, r7, #536
 9168 070c A3F5F872 		sub	r2, r3, #496
 9169 0710 1369     		ldr	r3, [r2, #16]
 9170 0712 0421     		movs	r1, #4
 9171 0714 61F31F23 		bfi	r3, r1, #8, #24
 9172 0718 1361     		str	r3, [r2, #16]
 9173 071a D7F80C32 		ldr	r3, [r7, #524]
 9174 071e D3F80031 		ldr	r3, [r3, #256]
 9175 0722 1A46     		mov	r2, r3
 9176 0724 07F50673 		add	r3, r7, #536
 9177 0728 A3F50473 		sub	r3, r3, #528
 9178 072c 1A60     		str	r2, [r3]
 9179 072e D7F80C32 		ldr	r3, [r7, #524]
 9180 0732 D3F8FC30 		ldr	r3, [r3, #252]
 9181 0736 1A46     		mov	r2, r3
 9182 0738 07F50673 		add	r3, r7, #536
 9183 073c A3F50473 		sub	r3, r3, #528
 9184 0740 5A60     		str	r2, [r3, #4]
 9185 0742 D7F80C32 		ldr	r3, [r7, #524]
 9186 0746 D3F8F830 		ldr	r3, [r3, #248]
 9187 074a 1A46     		mov	r2, r3
 9188 074c 07F50673 		add	r3, r7, #536
 9189 0750 A3F50473 		sub	r3, r3, #528
 9190 0754 9A60     		str	r2, [r3, #8]
 9191 0756 D7F80C32 		ldr	r3, [r7, #524]
 9192 075a D3F8F430 		ldr	r3, [r3, #244]
 9193 075e 1A46     		mov	r2, r3
 9194 0760 07F50673 		add	r3, r7, #536
 9195 0764 A3F50473 		sub	r3, r3, #528
 9196 0768 DA60     		str	r2, [r3, #12]
 9197 076a 07F50673 		add	r3, r7, #536
 9198 076e A3F5F873 		sub	r3, r3, #496
 9199 0772 07F10802 		add	r2, r7, #8
 9200 0776 5A61     		str	r2, [r3, #20]
 9201 0778 07F50673 		add	r3, r7, #536
ARM GAS  /tmp/ccEo7NLA.s 			page 189


 9202 077c A3F5F873 		sub	r3, r3, #496
 9203 0780 07F5B872 		add	r2, r7, #368
 9204 0784 9A61     		str	r2, [r3, #24]
1173:Lib/AI_Runtime/Npu/ll_aton/ll_sw_float.c ****       bn_var, , 0x0, 4,
1174:Lib/AI_Runtime/Npu/ll_aton/ll_sw_float.c ****       SHAPE_INIT(sw_info->var.dim.tensor_h, sw_info->var.dim.tensor_w, sw_info->var.dim.tensor_c,
1175:Lib/AI_Runtime/Npu/ll_aton/ll_sw_float.c ****                  sw_info->var.dim.tensor_b),
1176:Lib/AI_Runtime/Npu/ll_aton/ll_sw_float.c ****       STRIDE_INIT(sw_info->var.stride.h, sw_info->var.stride.w, sw_info->var.stride.c, sw_info->var
1177:Lib/AI_Runtime/Npu/ll_aton/ll_sw_float.c ****       &bn_var_array, NULL);
1178:Lib/AI_Runtime/Npu/ll_aton/ll_sw_float.c **** 
1179:Lib/AI_Runtime/Npu/ll_aton/ll_sw_float.c ****   const ai_tensor *t_in = &input_output;
 9205              		.loc 1 1179 20
 9206 0786 07F5AA73 		add	r3, r7, #340
 9207 078a C7F80832 		str	r3, [r7, #520]
1180:Lib/AI_Runtime/Npu/ll_aton/ll_sw_float.c ****   const ai_tensor *t_out = &bn_output;
 9208              		.loc 1 1180 20
 9209 078e 07F58C73 		add	r3, r7, #280
 9210 0792 C7F80432 		str	r3, [r7, #516]
1181:Lib/AI_Runtime/Npu/ll_aton/ll_sw_float.c ****   const ai_tensor *t_bias = &bn_bias;
 9211              		.loc 1 1181 20
 9212 0796 07F1DC03 		add	r3, r7, #220
 9213 079a C7F80032 		str	r3, [r7, #512]
1182:Lib/AI_Runtime/Npu/ll_aton/ll_sw_float.c ****   const ai_tensor *t_scale = &bn_scale;
 9214              		.loc 1 1182 20
 9215 079e 07F1A003 		add	r3, r7, #160
 9216 07a2 C7F8FC31 		str	r3, [r7, #508]
1183:Lib/AI_Runtime/Npu/ll_aton/ll_sw_float.c ****   const ai_tensor *t_mean = &bn_mean;
 9217              		.loc 1 1183 20
 9218 07a6 07F16403 		add	r3, r7, #100
 9219 07aa C7F8F831 		str	r3, [r7, #504]
1184:Lib/AI_Runtime/Npu/ll_aton/ll_sw_float.c ****   const ai_tensor *t_var = &bn_var;
 9220              		.loc 1 1184 20
 9221 07ae 07F12803 		add	r3, r7, #40
 9222 07b2 C7F8F431 		str	r3, [r7, #500]
1185:Lib/AI_Runtime/Npu/ll_aton/ll_sw_float.c **** 
1186:Lib/AI_Runtime/Npu/ll_aton/ll_sw_float.c ****   const ai_size n_elements = ai_shape_get_size(AI_TENSOR_SHAPE(t_in));
 9223              		.loc 1 1186 30
 9224 07b6 D7F80832 		ldr	r3, [r7, #520]
 9225 07ba 0833     		adds	r3, r3, #8
 9226 07bc 1846     		mov	r0, r3
 9227 07be FFF7FEFF 		bl	ai_shape_get_size
 9228 07c2 C7F8F001 		str	r0, [r7, #496]
1187:Lib/AI_Runtime/Npu/ll_aton/ll_sw_float.c ****   const ai_size n_channel_in = AI_SHAPE_CH(AI_TENSOR_SHAPE(t_in));
 9229              		.loc 1 1187 32
 9230 07c6 D7F80832 		ldr	r3, [r7, #520]
 9231 07ca DB68     		ldr	r3, [r3, #12]
 9232              		.loc 1 1187 17
 9233 07cc 5B68     		ldr	r3, [r3, #4]
 9234 07ce C7F8EC31 		str	r3, [r7, #492]
1188:Lib/AI_Runtime/Npu/ll_aton/ll_sw_float.c ****   const ai_float *in_data = AI_ARRAY_OBJ_DATA(t_in->data, ai_float);
 9235              		.loc 1 1188 29
 9236 07d2 D7F80832 		ldr	r3, [r7, #520]
 9237 07d6 9B69     		ldr	r3, [r3, #24]
 9238              		.loc 1 1188 19
 9239 07d8 9B68     		ldr	r3, [r3, #8]
 9240 07da C7F8E831 		str	r3, [r7, #488]
1189:Lib/AI_Runtime/Npu/ll_aton/ll_sw_float.c ****   ai_float *out_data = AI_ARRAY_OBJ_DATA(t_out->data, ai_float);
 9241              		.loc 1 1189 24
ARM GAS  /tmp/ccEo7NLA.s 			page 190


 9242 07de D7F80432 		ldr	r3, [r7, #516]
 9243 07e2 9B69     		ldr	r3, [r3, #24]
 9244              		.loc 1 1189 13
 9245 07e4 9B68     		ldr	r3, [r3, #8]
 9246 07e6 C7F8E431 		str	r3, [r7, #484]
1190:Lib/AI_Runtime/Npu/ll_aton/ll_sw_float.c **** 
1191:Lib/AI_Runtime/Npu/ll_aton/ll_sw_float.c ****   AI_ASSERT(n_elements > 0 && n_channel_in > 0)
1192:Lib/AI_Runtime/Npu/ll_aton/ll_sw_float.c ****   AI_ASSERT(n_channel_in == AI_SHAPE_CH(AI_TENSOR_SHAPE(t_scale)))
1193:Lib/AI_Runtime/Npu/ll_aton/ll_sw_float.c ****   AI_ASSERT(!t_bias || n_channel_in == AI_SHAPE_CH(AI_TENSOR_SHAPE(t_bias)))
1194:Lib/AI_Runtime/Npu/ll_aton/ll_sw_float.c **** 
1195:Lib/AI_Runtime/Npu/ll_aton/ll_sw_float.c ****   const ai_float *scale = (const ai_float *)t_scale->data->data;
 9247              		.loc 1 1195 52
 9248 07ea D7F8FC31 		ldr	r3, [r7, #508]
 9249 07ee 9B69     		ldr	r3, [r3, #24]
 9250              		.loc 1 1195 19
 9251 07f0 9B68     		ldr	r3, [r3, #8]
 9252 07f2 C7F8E031 		str	r3, [r7, #480]
1196:Lib/AI_Runtime/Npu/ll_aton/ll_sw_float.c ****   const ai_float *bias = (const ai_float *)t_bias->data->data;
 9253              		.loc 1 1196 50
 9254 07f6 D7F80032 		ldr	r3, [r7, #512]
 9255 07fa 9B69     		ldr	r3, [r3, #24]
 9256              		.loc 1 1196 19
 9257 07fc 9B68     		ldr	r3, [r3, #8]
 9258 07fe C7F8DC31 		str	r3, [r7, #476]
1197:Lib/AI_Runtime/Npu/ll_aton/ll_sw_float.c ****   const ai_float *mean = (const ai_float *)t_mean->data->data;
 9259              		.loc 1 1197 50
 9260 0802 D7F8F831 		ldr	r3, [r7, #504]
 9261 0806 9B69     		ldr	r3, [r3, #24]
 9262              		.loc 1 1197 19
 9263 0808 9B68     		ldr	r3, [r3, #8]
 9264 080a C7F8D831 		str	r3, [r7, #472]
1198:Lib/AI_Runtime/Npu/ll_aton/ll_sw_float.c ****   const ai_float *var = (const ai_float *)t_var->data->data;
 9265              		.loc 1 1198 48
 9266 080e D7F8F431 		ldr	r3, [r7, #500]
 9267 0812 9B69     		ldr	r3, [r3, #24]
 9268              		.loc 1 1198 19
 9269 0814 9B68     		ldr	r3, [r3, #8]
 9270 0816 C7F8D431 		str	r3, [r7, #468]
1199:Lib/AI_Runtime/Npu/ll_aton/ll_sw_float.c ****   const float epsilon = 0.00001f;
 9271              		.loc 1 1199 15
 9272 081a 3E4B     		ldr	r3, .L198
 9273 081c C7F8D031 		str	r3, [r7, #464]	@ float
 9274              	.LBB47:
1200:Lib/AI_Runtime/Npu/ll_aton/ll_sw_float.c ****   for (ai_size i = 0; i < n_elements; i += n_channel_in)
 9275              		.loc 1 1200 16
 9276 0820 0023     		movs	r3, #0
 9277 0822 C7F81432 		str	r3, [r7, #532]
 9278              		.loc 1 1200 3
 9279 0826 67E0     		b	.L191
 9280              	.L194:
 9281              	.LBB48:
1201:Lib/AI_Runtime/Npu/ll_aton/ll_sw_float.c ****   {
1202:Lib/AI_Runtime/Npu/ll_aton/ll_sw_float.c ****     for (ai_size ch = i; ch < i + n_channel_in; ++ch)
 9282              		.loc 1 1202 18
 9283 0828 D7F81432 		ldr	r3, [r7, #532]
 9284 082c C7F81032 		str	r3, [r7, #528]
 9285              		.loc 1 1202 5
ARM GAS  /tmp/ccEo7NLA.s 			page 191


 9286 0830 52E0     		b	.L192
 9287              	.L193:
1203:Lib/AI_Runtime/Npu/ll_aton/ll_sw_float.c ****     {
1204:Lib/AI_Runtime/Npu/ll_aton/ll_sw_float.c ****       // LL_ATON_PRINTF("%f %f %f %f %f \n", in_data[ch], mean[ch-i], sqrtf(var[ch-i]), scale[ch-i]
1205:Lib/AI_Runtime/Npu/ll_aton/ll_sw_float.c ****       out_data[ch] = ((in_data[ch] - mean[ch - i]) / (sqrtf(var[ch - i] + epsilon))) * scale[ch - i
 9288              		.loc 1 1205 31
 9289 0832 D7F81032 		ldr	r3, [r7, #528]
 9290 0836 9B00     		lsls	r3, r3, #2
 9291 0838 D7F8E821 		ldr	r2, [r7, #488]
 9292 083c 1344     		add	r3, r3, r2
 9293 083e 93ED007A 		vldr.32	s14, [r3]
 9294              		.loc 1 1205 46
 9295 0842 D7F81022 		ldr	r2, [r7, #528]
 9296 0846 D7F81432 		ldr	r3, [r7, #532]
 9297 084a D31A     		subs	r3, r2, r3
 9298              		.loc 1 1205 42
 9299 084c 9B00     		lsls	r3, r3, #2
 9300 084e D7F8D821 		ldr	r2, [r7, #472]
 9301 0852 1344     		add	r3, r3, r2
 9302 0854 D3ED007A 		vldr.32	s15, [r3]
 9303              		.loc 1 1205 36
 9304 0858 37EE678A 		vsub.f32	s16, s14, s15
 9305              		.loc 1 1205 68
 9306 085c D7F81022 		ldr	r2, [r7, #528]
 9307 0860 D7F81432 		ldr	r3, [r7, #532]
 9308 0864 D31A     		subs	r3, r2, r3
 9309              		.loc 1 1205 64
 9310 0866 9B00     		lsls	r3, r3, #2
 9311 0868 D7F8D421 		ldr	r2, [r7, #468]
 9312 086c 1344     		add	r3, r3, r2
 9313 086e 93ED007A 		vldr.32	s14, [r3]
 9314              		.loc 1 1205 55
 9315 0872 D7ED747A 		vldr.32	s15, [r7, #464]
 9316 0876 77EE277A 		vadd.f32	s15, s14, s15
 9317 087a B0EE670A 		vmov.f32	s0, s15
 9318 087e FFF7FEFF 		bl	sqrtf
 9319 0882 F0EE407A 		vmov.f32	s15, s0
 9320              		.loc 1 1205 52 discriminator 1
 9321 0886 88EE277A 		vdiv.f32	s14, s16, s15
 9322              		.loc 1 1205 97 discriminator 1
 9323 088a D7F81022 		ldr	r2, [r7, #528]
 9324 088e D7F81432 		ldr	r3, [r7, #532]
 9325 0892 D31A     		subs	r3, r2, r3
 9326              		.loc 1 1205 93 discriminator 1
 9327 0894 9B00     		lsls	r3, r3, #2
 9328 0896 D7F8E021 		ldr	r2, [r7, #480]
 9329 089a 1344     		add	r3, r3, r2
 9330 089c D3ED007A 		vldr.32	s15, [r3]
 9331              		.loc 1 1205 86 discriminator 1
 9332 08a0 27EE277A 		vmul.f32	s14, s14, s15
 9333              		.loc 1 1205 112 discriminator 1
 9334 08a4 D7F81022 		ldr	r2, [r7, #528]
 9335 08a8 D7F81432 		ldr	r3, [r7, #532]
 9336 08ac D31A     		subs	r3, r2, r3
 9337              		.loc 1 1205 108 discriminator 1
 9338 08ae 9B00     		lsls	r3, r3, #2
 9339 08b0 D7F8DC21 		ldr	r2, [r7, #476]
ARM GAS  /tmp/ccEo7NLA.s 			page 192


 9340 08b4 1344     		add	r3, r3, r2
 9341 08b6 D3ED007A 		vldr.32	s15, [r3]
 9342              		.loc 1 1205 15 discriminator 1
 9343 08ba D7F81032 		ldr	r3, [r7, #528]
 9344 08be 9B00     		lsls	r3, r3, #2
 9345 08c0 D7F8E421 		ldr	r2, [r7, #484]
 9346 08c4 1344     		add	r3, r3, r2
 9347              		.loc 1 1205 102 discriminator 1
 9348 08c6 77EE277A 		vadd.f32	s15, s14, s15
 9349              		.loc 1 1205 20 discriminator 1
 9350 08ca C3ED007A 		vstr.32	s15, [r3]
1202:Lib/AI_Runtime/Npu/ll_aton/ll_sw_float.c ****     {
 9351              		.loc 1 1202 49 discriminator 3
 9352 08ce D7F81032 		ldr	r3, [r7, #528]
 9353 08d2 0133     		adds	r3, r3, #1
 9354 08d4 C7F81032 		str	r3, [r7, #528]
 9355              	.L192:
1202:Lib/AI_Runtime/Npu/ll_aton/ll_sw_float.c ****     {
 9356              		.loc 1 1202 33 discriminator 1
 9357 08d8 D7F81422 		ldr	r2, [r7, #532]
 9358 08dc D7F8EC31 		ldr	r3, [r7, #492]
 9359 08e0 1344     		add	r3, r3, r2
1202:Lib/AI_Runtime/Npu/ll_aton/ll_sw_float.c ****     {
 9360              		.loc 1 1202 29 discriminator 1
 9361 08e2 D7F81022 		ldr	r2, [r7, #528]
 9362 08e6 9A42     		cmp	r2, r3
 9363 08e8 A3D3     		bcc	.L193
 9364              	.LBE48:
1200:Lib/AI_Runtime/Npu/ll_aton/ll_sw_float.c ****   {
 9365              		.loc 1 1200 41 discriminator 2
 9366 08ea D7F81422 		ldr	r2, [r7, #532]
 9367 08ee D7F8EC31 		ldr	r3, [r7, #492]
 9368 08f2 1344     		add	r3, r3, r2
 9369 08f4 C7F81432 		str	r3, [r7, #532]
 9370              	.L191:
1200:Lib/AI_Runtime/Npu/ll_aton/ll_sw_float.c ****   {
 9371              		.loc 1 1200 25 discriminator 1
 9372 08f8 D7F81422 		ldr	r2, [r7, #532]
 9373 08fc D7F8F031 		ldr	r3, [r7, #496]
 9374 0900 9A42     		cmp	r2, r3
 9375 0902 91D3     		bcc	.L194
 9376              	.LBE47:
1206:Lib/AI_Runtime/Npu/ll_aton/ll_sw_float.c ****     }
1207:Lib/AI_Runtime/Npu/ll_aton/ll_sw_float.c ****   }
1208:Lib/AI_Runtime/Npu/ll_aton/ll_sw_float.c **** }
 9377              		.loc 1 1208 1
 9378 0904 00BF     		nop
 9379 0906 00BF     		nop
 9380 0908 07F50677 		add	r7, r7, #536
 9381              		.cfi_def_cfa_offset 16
 9382 090c BD46     		mov	sp, r7
 9383              		.cfi_def_cfa_register 13
 9384              		@ sp needed
 9385 090e BDEC028B 		vldm	sp!, {d8}
 9386              		.cfi_restore 80
 9387              		.cfi_restore 81
 9388              		.cfi_def_cfa_offset 8
ARM GAS  /tmp/ccEo7NLA.s 			page 193


 9389 0912 80BD     		pop	{r7, pc}
 9390              	.L199:
 9391              		.align	2
 9392              	.L198:
 9393 0914 ACC52737 		.word	925353388
 9394              		.cfi_endproc
 9395              	.LFE28:
 9397              		.section	.text.ll_sw_forward_instance_normalization,"ax",%progbits
 9398              		.align	1
 9399              		.global	ll_sw_forward_instance_normalization
 9400              		.syntax unified
 9401              		.thumb
 9402              		.thumb_func
 9404              	ll_sw_forward_instance_normalization:
 9405              	.LFB29:
1209:Lib/AI_Runtime/Npu/ll_aton/ll_sw_float.c **** 
1210:Lib/AI_Runtime/Npu/ll_aton/ll_sw_float.c **** //##########################################################################################
1211:Lib/AI_Runtime/Npu/ll_aton/ll_sw_float.c **** /** Instance Norm forward function  */
1212:Lib/AI_Runtime/Npu/ll_aton/ll_sw_float.c **** void ll_sw_forward_instance_normalization(/* int processor, */ void *sw_info_struct)
1213:Lib/AI_Runtime/Npu/ll_aton/ll_sw_float.c **** {
 9406              		.loc 1 1213 1
 9407              		.cfi_startproc
 9408              		@ args = 0, pretend = 0, frame = 432
 9409              		@ frame_needed = 1, uses_anonymous_args = 0
 9410 0000 80B5     		push	{r7, lr}
 9411              		.cfi_def_cfa_offset 8
 9412              		.cfi_offset 7, -8
 9413              		.cfi_offset 14, -4
 9414 0002 ECB0     		sub	sp, sp, #432
 9415              		.cfi_def_cfa_offset 440
 9416 0004 00AF     		add	r7, sp, #0
 9417              		.cfi_def_cfa_register 7
 9418 0006 07F5D873 		add	r3, r7, #432
 9419 000a A3F5D673 		sub	r3, r3, #428
 9420 000e 1860     		str	r0, [r3]
1214:Lib/AI_Runtime/Npu/ll_aton/ll_sw_float.c ****   Instance_normalization_sw_info *sw_info = (Instance_normalization_sw_info *)sw_info_struct;
 9421              		.loc 1 1214 35
 9422 0010 07F5D873 		add	r3, r7, #432
 9423 0014 A3F5D673 		sub	r3, r3, #428
 9424 0018 1B68     		ldr	r3, [r3]
 9425 001a C7F8AC31 		str	r3, [r7, #428]
1215:Lib/AI_Runtime/Npu/ll_aton/ll_sw_float.c **** 
1216:Lib/AI_Runtime/Npu/ll_aton/ll_sw_float.c ****   AI_ARRAY_OBJ_DECLARE(input_output_array, FORMAT, sw_info->general.input.mem.start_offset,
 9426              		.loc 1 1216 3
 9427 001e E54B     		ldr	r3, .L201
 9428 0020 C7F89C31 		str	r3, [r7, #412]
 9429 0024 D7F8AC31 		ldr	r3, [r7, #428]
 9430 0028 5B69     		ldr	r3, [r3, #20]
 9431 002a C7F8A031 		str	r3, [r7, #416]
 9432 002e D7F8AC31 		ldr	r3, [r7, #428]
 9433 0032 9B6A     		ldr	r3, [r3, #40]
 9434 0034 C7F8A431 		str	r3, [r7, #420]
 9435 0038 D7F8AC31 		ldr	r3, [r7, #428]
 9436 003c 9B6A     		ldr	r3, [r3, #40]
 9437 003e C7F8A831 		str	r3, [r7, #424]
1217:Lib/AI_Runtime/Npu/ll_aton/ll_sw_float.c ****                        sw_info->general.input.mem.start_offset, sw_info->general.input.dim.num_elem
1218:Lib/AI_Runtime/Npu/ll_aton/ll_sw_float.c ****   AI_ARRAY_OBJ_DECLARE(instanceNorm_output_array, FORMAT, sw_info->general.output.mem.start_offset,
ARM GAS  /tmp/ccEo7NLA.s 			page 194


 9438              		.loc 1 1218 3
 9439 0042 DC4B     		ldr	r3, .L201
 9440 0044 C7F88C31 		str	r3, [r7, #396]
 9441 0048 D7F8AC31 		ldr	r3, [r7, #428]
 9442 004c 1B6C     		ldr	r3, [r3, #64]
 9443 004e C7F89031 		str	r3, [r7, #400]
 9444 0052 D7F8AC31 		ldr	r3, [r7, #428]
 9445 0056 5B6D     		ldr	r3, [r3, #84]
 9446 0058 C7F89431 		str	r3, [r7, #404]
 9447 005c D7F8AC31 		ldr	r3, [r7, #428]
 9448 0060 5B6D     		ldr	r3, [r3, #84]
 9449 0062 C7F89831 		str	r3, [r7, #408]
1219:Lib/AI_Runtime/Npu/ll_aton/ll_sw_float.c ****                        sw_info->general.output.mem.start_offset, sw_info->general.output.dim.num_el
1220:Lib/AI_Runtime/Npu/ll_aton/ll_sw_float.c ****   AI_ARRAY_OBJ_DECLARE(instanceNorm_bias_array, FORMAT, sw_info->bias.mem.start_offset, sw_info->bi
 9450              		.loc 1 1220 3
 9451 0066 D34B     		ldr	r3, .L201
 9452 0068 C7F87C31 		str	r3, [r7, #380]
 9453 006c D7F8AC31 		ldr	r3, [r7, #428]
 9454 0070 DB6E     		ldr	r3, [r3, #108]
 9455 0072 C7F88031 		str	r3, [r7, #384]
 9456 0076 D7F8AC31 		ldr	r3, [r7, #428]
 9457 007a D3F88030 		ldr	r3, [r3, #128]
 9458 007e C7F88431 		str	r3, [r7, #388]
 9459 0082 D7F8AC31 		ldr	r3, [r7, #428]
 9460 0086 D3F88030 		ldr	r3, [r3, #128]
 9461 008a C7F88831 		str	r3, [r7, #392]
1221:Lib/AI_Runtime/Npu/ll_aton/ll_sw_float.c ****                        sw_info->bias.dim.num_elem, )
1222:Lib/AI_Runtime/Npu/ll_aton/ll_sw_float.c ****   AI_ARRAY_OBJ_DECLARE(instanceNorm_scale_array, FORMAT, sw_info->scale.mem.start_offset,
 9462              		.loc 1 1222 3
 9463 008e C94B     		ldr	r3, .L201
 9464 0090 C7F86C31 		str	r3, [r7, #364]
 9465 0094 D7F8AC31 		ldr	r3, [r7, #428]
 9466 0098 D3F89830 		ldr	r3, [r3, #152]
 9467 009c C7F87031 		str	r3, [r7, #368]
 9468 00a0 D7F8AC31 		ldr	r3, [r7, #428]
 9469 00a4 D3F8AC30 		ldr	r3, [r3, #172]
 9470 00a8 C7F87431 		str	r3, [r7, #372]
 9471 00ac D7F8AC31 		ldr	r3, [r7, #428]
 9472 00b0 D3F8AC30 		ldr	r3, [r3, #172]
 9473 00b4 C7F87831 		str	r3, [r7, #376]
1223:Lib/AI_Runtime/Npu/ll_aton/ll_sw_float.c ****                        sw_info->scale.mem.start_offset, sw_info->scale.dim.num_elem, )
1224:Lib/AI_Runtime/Npu/ll_aton/ll_sw_float.c **** 
1225:Lib/AI_Runtime/Npu/ll_aton/ll_sw_float.c ****   // tensors init
1226:Lib/AI_Runtime/Npu/ll_aton/ll_sw_float.c ****   AI_TENSOR_OBJ_DECLARE(input_output, , 0x0, 4,
 9474              		.loc 1 1226 3
 9475 00b8 0023     		movs	r3, #0
 9476 00ba C7F85031 		str	r3, [r7, #336]
 9477 00be 0023     		movs	r3, #0
 9478 00c0 A7F85431 		strh	r3, [r7, #340]	@ movhi
 9479 00c4 0423     		movs	r3, #4
 9480 00c6 87F85631 		strb	r3, [r7, #342]
 9481 00ca 0123     		movs	r3, #1
 9482 00cc 87F85731 		strb	r3, [r7, #343]
 9483 00d0 0123     		movs	r3, #1
 9484 00d2 87F85831 		strb	r3, [r7, #344]
 9485 00d6 D7F85831 		ldr	r3, [r7, #344]
 9486 00da 0422     		movs	r2, #4
ARM GAS  /tmp/ccEo7NLA.s 			page 195


 9487 00dc 62F31F23 		bfi	r3, r2, #8, #24
 9488 00e0 C7F85831 		str	r3, [r7, #344]
 9489 00e4 D7F8AC31 		ldr	r3, [r7, #428]
 9490 00e8 1B69     		ldr	r3, [r3, #16]
 9491 00ea C7F84031 		str	r3, [r7, #320]
 9492 00ee D7F8AC31 		ldr	r3, [r7, #428]
 9493 00f2 DB68     		ldr	r3, [r3, #12]
 9494 00f4 C7F84431 		str	r3, [r7, #324]
 9495 00f8 D7F8AC31 		ldr	r3, [r7, #428]
 9496 00fc 9B68     		ldr	r3, [r3, #8]
 9497 00fe C7F84831 		str	r3, [r7, #328]
 9498 0102 D7F8AC31 		ldr	r3, [r7, #428]
 9499 0106 5B68     		ldr	r3, [r3, #4]
 9500 0108 C7F84C31 		str	r3, [r7, #332]
 9501 010c 07F5A073 		add	r3, r7, #320
 9502 0110 C7F85C31 		str	r3, [r7, #348]
 9503 0114 0223     		movs	r3, #2
 9504 0116 87F86031 		strb	r3, [r7, #352]
 9505 011a D7F86031 		ldr	r3, [r7, #352]
 9506 011e 0422     		movs	r2, #4
 9507 0120 62F31F23 		bfi	r3, r2, #8, #24
 9508 0124 C7F86031 		str	r3, [r7, #352]
 9509 0128 D7F8AC31 		ldr	r3, [r7, #428]
 9510 012c 5B6A     		ldr	r3, [r3, #36]
 9511 012e C7F83031 		str	r3, [r7, #304]
 9512 0132 D7F8AC31 		ldr	r3, [r7, #428]
 9513 0136 1B6A     		ldr	r3, [r3, #32]
 9514 0138 C7F83431 		str	r3, [r7, #308]
 9515 013c D7F8AC31 		ldr	r3, [r7, #428]
 9516 0140 DB69     		ldr	r3, [r3, #28]
 9517 0142 C7F83831 		str	r3, [r7, #312]
 9518 0146 D7F8AC31 		ldr	r3, [r7, #428]
 9519 014a 9B69     		ldr	r3, [r3, #24]
 9520 014c C7F83C31 		str	r3, [r7, #316]
 9521 0150 07F59873 		add	r3, r7, #304
 9522 0154 C7F86431 		str	r3, [r7, #356]
 9523 0158 07F5CE73 		add	r3, r7, #412
 9524 015c C7F86831 		str	r3, [r7, #360]
1227:Lib/AI_Runtime/Npu/ll_aton/ll_sw_float.c ****                         SHAPE_INIT(sw_info->general.input.dim.tensor_h, sw_info->general.input.dim.
1228:Lib/AI_Runtime/Npu/ll_aton/ll_sw_float.c ****                                    sw_info->general.input.dim.tensor_c, sw_info->general.input.dim.
1229:Lib/AI_Runtime/Npu/ll_aton/ll_sw_float.c ****                         STRIDE_INIT(sw_info->general.input.stride.h, sw_info->general.input.stride.
1230:Lib/AI_Runtime/Npu/ll_aton/ll_sw_float.c ****                                     sw_info->general.input.stride.c, sw_info->general.input.stride.
1231:Lib/AI_Runtime/Npu/ll_aton/ll_sw_float.c ****                         1, &input_output_array, NULL)
1232:Lib/AI_Runtime/Npu/ll_aton/ll_sw_float.c ****   AI_TENSOR_OBJ_DECLARE(instanceNorm_output, , 0x0, 4,
 9525              		.loc 1 1232 3
 9526 0160 0023     		movs	r3, #0
 9527 0162 C7F81431 		str	r3, [r7, #276]
 9528 0166 0023     		movs	r3, #0
 9529 0168 A7F81831 		strh	r3, [r7, #280]	@ movhi
 9530 016c 0423     		movs	r3, #4
 9531 016e 87F81A31 		strb	r3, [r7, #282]
 9532 0172 0123     		movs	r3, #1
 9533 0174 87F81B31 		strb	r3, [r7, #283]
 9534 0178 0123     		movs	r3, #1
 9535 017a 87F81C31 		strb	r3, [r7, #284]
 9536 017e D7F81C31 		ldr	r3, [r7, #284]
 9537 0182 0422     		movs	r2, #4
ARM GAS  /tmp/ccEo7NLA.s 			page 196


 9538 0184 62F31F23 		bfi	r3, r2, #8, #24
 9539 0188 C7F81C31 		str	r3, [r7, #284]
 9540 018c D7F8AC31 		ldr	r3, [r7, #428]
 9541 0190 DB6B     		ldr	r3, [r3, #60]
 9542 0192 C7F80431 		str	r3, [r7, #260]
 9543 0196 D7F8AC31 		ldr	r3, [r7, #428]
 9544 019a 9B6B     		ldr	r3, [r3, #56]
 9545 019c C7F80831 		str	r3, [r7, #264]
 9546 01a0 D7F8AC31 		ldr	r3, [r7, #428]
 9547 01a4 5B6B     		ldr	r3, [r3, #52]
 9548 01a6 C7F80C31 		str	r3, [r7, #268]
 9549 01aa D7F8AC31 		ldr	r3, [r7, #428]
 9550 01ae 1B6B     		ldr	r3, [r3, #48]
 9551 01b0 C7F81031 		str	r3, [r7, #272]
 9552 01b4 07F58273 		add	r3, r7, #260
 9553 01b8 C7F82031 		str	r3, [r7, #288]
 9554 01bc 0223     		movs	r3, #2
 9555 01be 87F82431 		strb	r3, [r7, #292]
 9556 01c2 D7F82431 		ldr	r3, [r7, #292]
 9557 01c6 0422     		movs	r2, #4
 9558 01c8 62F31F23 		bfi	r3, r2, #8, #24
 9559 01cc C7F82431 		str	r3, [r7, #292]
 9560 01d0 D7F8AC31 		ldr	r3, [r7, #428]
 9561 01d4 1B6D     		ldr	r3, [r3, #80]
 9562 01d6 C7F8F430 		str	r3, [r7, #244]
 9563 01da D7F8AC31 		ldr	r3, [r7, #428]
 9564 01de DB6C     		ldr	r3, [r3, #76]
 9565 01e0 C7F8F830 		str	r3, [r7, #248]
 9566 01e4 D7F8AC31 		ldr	r3, [r7, #428]
 9567 01e8 9B6C     		ldr	r3, [r3, #72]
 9568 01ea C7F8FC30 		str	r3, [r7, #252]
 9569 01ee D7F8AC31 		ldr	r3, [r7, #428]
 9570 01f2 5B6C     		ldr	r3, [r3, #68]
 9571 01f4 C7F80031 		str	r3, [r7, #256]
 9572 01f8 07F1F403 		add	r3, r7, #244
 9573 01fc C7F82831 		str	r3, [r7, #296]
 9574 0200 07F5C673 		add	r3, r7, #396
 9575 0204 C7F82C31 		str	r3, [r7, #300]
1233:Lib/AI_Runtime/Npu/ll_aton/ll_sw_float.c ****                         SHAPE_INIT(sw_info->general.output.dim.tensor_h, sw_info->general.output.di
1234:Lib/AI_Runtime/Npu/ll_aton/ll_sw_float.c ****                                    sw_info->general.output.dim.tensor_c, sw_info->general.output.di
1235:Lib/AI_Runtime/Npu/ll_aton/ll_sw_float.c ****                         STRIDE_INIT(sw_info->general.output.stride.h, sw_info->general.output.strid
1236:Lib/AI_Runtime/Npu/ll_aton/ll_sw_float.c ****                                     sw_info->general.output.stride.c, sw_info->general.output.strid
1237:Lib/AI_Runtime/Npu/ll_aton/ll_sw_float.c ****                         1, &instanceNorm_output_array, NULL)
1238:Lib/AI_Runtime/Npu/ll_aton/ll_sw_float.c ****   AI_TENSOR_OBJ_DECLARE(
 9576              		.loc 1 1238 3
 9577 0208 0023     		movs	r3, #0
 9578 020a C7F8D830 		str	r3, [r7, #216]
 9579 020e 0023     		movs	r3, #0
 9580 0210 A7F8DC30 		strh	r3, [r7, #220]	@ movhi
 9581 0214 0423     		movs	r3, #4
 9582 0216 87F8DE30 		strb	r3, [r7, #222]
 9583 021a 0123     		movs	r3, #1
 9584 021c 87F8DF30 		strb	r3, [r7, #223]
 9585 0220 0123     		movs	r3, #1
 9586 0222 87F8E030 		strb	r3, [r7, #224]
 9587 0226 D7F8E030 		ldr	r3, [r7, #224]
 9588 022a 0422     		movs	r2, #4
ARM GAS  /tmp/ccEo7NLA.s 			page 197


 9589 022c 62F31F23 		bfi	r3, r2, #8, #24
 9590 0230 C7F8E030 		str	r3, [r7, #224]
 9591 0234 D7F8AC31 		ldr	r3, [r7, #428]
 9592 0238 9B6E     		ldr	r3, [r3, #104]
 9593 023a C7F8C830 		str	r3, [r7, #200]
 9594 023e D7F8AC31 		ldr	r3, [r7, #428]
 9595 0242 5B6E     		ldr	r3, [r3, #100]
 9596 0244 C7F8CC30 		str	r3, [r7, #204]
 9597 0248 D7F8AC31 		ldr	r3, [r7, #428]
 9598 024c 1B6E     		ldr	r3, [r3, #96]
 9599 024e C7F8D030 		str	r3, [r7, #208]
 9600 0252 D7F8AC31 		ldr	r3, [r7, #428]
 9601 0256 DB6D     		ldr	r3, [r3, #92]
 9602 0258 C7F8D430 		str	r3, [r7, #212]
 9603 025c 07F1C803 		add	r3, r7, #200
 9604 0260 C7F8E430 		str	r3, [r7, #228]
 9605 0264 0223     		movs	r3, #2
 9606 0266 87F8E830 		strb	r3, [r7, #232]
 9607 026a D7F8E830 		ldr	r3, [r7, #232]
 9608 026e 0422     		movs	r2, #4
 9609 0270 62F31F23 		bfi	r3, r2, #8, #24
 9610 0274 C7F8E830 		str	r3, [r7, #232]
 9611 0278 D7F8AC31 		ldr	r3, [r7, #428]
 9612 027c DB6F     		ldr	r3, [r3, #124]
 9613 027e C7F8B830 		str	r3, [r7, #184]
 9614 0282 D7F8AC31 		ldr	r3, [r7, #428]
 9615 0286 9B6F     		ldr	r3, [r3, #120]
 9616 0288 C7F8BC30 		str	r3, [r7, #188]
 9617 028c D7F8AC31 		ldr	r3, [r7, #428]
 9618 0290 5B6F     		ldr	r3, [r3, #116]
 9619 0292 C7F8C030 		str	r3, [r7, #192]
 9620 0296 D7F8AC31 		ldr	r3, [r7, #428]
 9621 029a 1B6F     		ldr	r3, [r3, #112]
 9622 029c C7F8C430 		str	r3, [r7, #196]
 9623 02a0 07F1B803 		add	r3, r7, #184
 9624 02a4 C7F8EC30 		str	r3, [r7, #236]
 9625 02a8 07F5BE73 		add	r3, r7, #380
 9626 02ac C7F8F030 		str	r3, [r7, #240]
1239:Lib/AI_Runtime/Npu/ll_aton/ll_sw_float.c ****       instanceNorm_bias, , 0x0, 4,
1240:Lib/AI_Runtime/Npu/ll_aton/ll_sw_float.c ****       SHAPE_INIT(sw_info->bias.dim.tensor_h, sw_info->bias.dim.tensor_w, sw_info->bias.dim.tensor_c
1241:Lib/AI_Runtime/Npu/ll_aton/ll_sw_float.c ****                  sw_info->bias.dim.tensor_b),
1242:Lib/AI_Runtime/Npu/ll_aton/ll_sw_float.c ****       STRIDE_INIT(sw_info->bias.stride.h, sw_info->bias.stride.w, sw_info->bias.stride.c, sw_info->
1243:Lib/AI_Runtime/Npu/ll_aton/ll_sw_float.c ****       &instanceNorm_bias_array, NULL);
1244:Lib/AI_Runtime/Npu/ll_aton/ll_sw_float.c ****   AI_TENSOR_OBJ_DECLARE(
 9627              		.loc 1 1244 3
 9628 02b0 07F5D873 		add	r3, r7, #432
 9629 02b4 A3F58A73 		sub	r3, r3, #276
 9630 02b8 0022     		movs	r2, #0
 9631 02ba 1A60     		str	r2, [r3]
 9632 02bc 07F5D873 		add	r3, r7, #432
 9633 02c0 A3F58A73 		sub	r3, r3, #276
 9634 02c4 0022     		movs	r2, #0
 9635 02c6 9A80     		strh	r2, [r3, #4]	@ movhi
 9636 02c8 07F5D873 		add	r3, r7, #432
 9637 02cc A3F58A73 		sub	r3, r3, #276
 9638 02d0 0422     		movs	r2, #4
 9639 02d2 9A71     		strb	r2, [r3, #6]
ARM GAS  /tmp/ccEo7NLA.s 			page 198


 9640 02d4 07F5D873 		add	r3, r7, #432
 9641 02d8 A3F58A73 		sub	r3, r3, #276
 9642 02dc 0122     		movs	r2, #1
 9643 02de DA71     		strb	r2, [r3, #7]
 9644 02e0 07F5D873 		add	r3, r7, #432
 9645 02e4 A3F58A73 		sub	r3, r3, #276
 9646 02e8 0122     		movs	r2, #1
 9647 02ea 1A72     		strb	r2, [r3, #8]
 9648 02ec 07F5D873 		add	r3, r7, #432
 9649 02f0 A3F58A72 		sub	r2, r3, #276
 9650 02f4 9368     		ldr	r3, [r2, #8]
 9651 02f6 0421     		movs	r1, #4
 9652 02f8 61F31F23 		bfi	r3, r1, #8, #24
 9653 02fc 9360     		str	r3, [r2, #8]
 9654 02fe D7F8AC31 		ldr	r3, [r7, #428]
 9655 0302 D3F89420 		ldr	r2, [r3, #148]
 9656 0306 07F5D873 		add	r3, r7, #432
 9657 030a A3F59273 		sub	r3, r3, #292
 9658 030e 1A60     		str	r2, [r3]
 9659 0310 D7F8AC31 		ldr	r3, [r7, #428]
 9660 0314 D3F89020 		ldr	r2, [r3, #144]
 9661 0318 07F5D873 		add	r3, r7, #432
 9662 031c A3F59273 		sub	r3, r3, #292
 9663 0320 5A60     		str	r2, [r3, #4]
 9664 0322 D7F8AC31 		ldr	r3, [r7, #428]
 9665 0326 D3F88C20 		ldr	r2, [r3, #140]
 9666 032a 07F5D873 		add	r3, r7, #432
 9667 032e A3F59273 		sub	r3, r3, #292
 9668 0332 9A60     		str	r2, [r3, #8]
 9669 0334 D7F8AC31 		ldr	r3, [r7, #428]
 9670 0338 D3F88820 		ldr	r2, [r3, #136]
 9671 033c 07F5D873 		add	r3, r7, #432
 9672 0340 A3F59273 		sub	r3, r3, #292
 9673 0344 DA60     		str	r2, [r3, #12]
 9674 0346 07F5D873 		add	r3, r7, #432
 9675 034a A3F58A73 		sub	r3, r3, #276
 9676 034e 07F18C02 		add	r2, r7, #140
 9677 0352 DA60     		str	r2, [r3, #12]
 9678 0354 07F5D873 		add	r3, r7, #432
 9679 0358 A3F58A73 		sub	r3, r3, #276
 9680 035c 0222     		movs	r2, #2
 9681 035e 1A74     		strb	r2, [r3, #16]
 9682 0360 07F5D873 		add	r3, r7, #432
 9683 0364 A3F58A72 		sub	r2, r3, #276
 9684 0368 1369     		ldr	r3, [r2, #16]
 9685 036a 0421     		movs	r1, #4
 9686 036c 61F31F23 		bfi	r3, r1, #8, #24
 9687 0370 1361     		str	r3, [r2, #16]
 9688 0372 D7F8AC31 		ldr	r3, [r7, #428]
 9689 0376 D3F8A830 		ldr	r3, [r3, #168]
 9690 037a 1A46     		mov	r2, r3
 9691 037c 07F5D873 		add	r3, r7, #432
 9692 0380 A3F59A73 		sub	r3, r3, #308
 9693 0384 1A60     		str	r2, [r3]
 9694 0386 D7F8AC31 		ldr	r3, [r7, #428]
 9695 038a D3F8A430 		ldr	r3, [r3, #164]
 9696 038e 1A46     		mov	r2, r3
ARM GAS  /tmp/ccEo7NLA.s 			page 199


 9697 0390 07F5D873 		add	r3, r7, #432
 9698 0394 A3F59A73 		sub	r3, r3, #308
 9699 0398 5A60     		str	r2, [r3, #4]
 9700 039a D7F8AC31 		ldr	r3, [r7, #428]
 9701 039e D3F8A030 		ldr	r3, [r3, #160]
 9702 03a2 1A46     		mov	r2, r3
 9703 03a4 07F5D873 		add	r3, r7, #432
 9704 03a8 A3F59A73 		sub	r3, r3, #308
 9705 03ac 9A60     		str	r2, [r3, #8]
 9706 03ae D7F8AC31 		ldr	r3, [r7, #428]
 9707 03b2 01E0     		b	.L202
 9708              	.L203:
 9709              		.align	2
 9710              	.L201:
 9711 03b4 40108200 		.word	8523840
 9712              	.L202:
 9713 03b8 D3F89C30 		ldr	r3, [r3, #156]
 9714 03bc 1A46     		mov	r2, r3
 9715 03be 07F5D873 		add	r3, r7, #432
 9716 03c2 A3F59A73 		sub	r3, r3, #308
 9717 03c6 DA60     		str	r2, [r3, #12]
 9718 03c8 07F5D873 		add	r3, r7, #432
 9719 03cc A3F58A73 		sub	r3, r3, #276
 9720 03d0 07F17C02 		add	r2, r7, #124
 9721 03d4 5A61     		str	r2, [r3, #20]
 9722 03d6 07F5D873 		add	r3, r7, #432
 9723 03da A3F58A73 		sub	r3, r3, #276
 9724 03de 07F5B672 		add	r2, r7, #364
 9725 03e2 9A61     		str	r2, [r3, #24]
1245:Lib/AI_Runtime/Npu/ll_aton/ll_sw_float.c ****       instanceNorm_scale, , 0x0, 4,
1246:Lib/AI_Runtime/Npu/ll_aton/ll_sw_float.c ****       SHAPE_INIT(sw_info->scale.dim.tensor_h, sw_info->scale.dim.tensor_w, sw_info->scale.dim.tenso
1247:Lib/AI_Runtime/Npu/ll_aton/ll_sw_float.c ****                  sw_info->scale.dim.tensor_b),
1248:Lib/AI_Runtime/Npu/ll_aton/ll_sw_float.c ****       STRIDE_INIT(sw_info->scale.stride.h, sw_info->scale.stride.w, sw_info->scale.stride.c, sw_inf
1249:Lib/AI_Runtime/Npu/ll_aton/ll_sw_float.c ****       1, &instanceNorm_scale_array, NULL);
1250:Lib/AI_Runtime/Npu/ll_aton/ll_sw_float.c **** 
1251:Lib/AI_Runtime/Npu/ll_aton/ll_sw_float.c ****   // tensor chain initialization
1252:Lib/AI_Runtime/Npu/ll_aton/ll_sw_float.c ****   AI_TENSOR_CHAIN_OBJ_DECLARE(
 9726              		.loc 1 1252 3
 9727 03e4 07F5D873 		add	r3, r7, #432
 9728 03e8 A3F59E73 		sub	r3, r3, #316
 9729 03ec 0422     		movs	r2, #4
 9730 03ee 1A80     		strh	r2, [r3]	@ movhi
 9731 03f0 07F5D873 		add	r3, r7, #432
 9732 03f4 A3F59E73 		sub	r3, r3, #316
 9733 03f8 0022     		movs	r2, #0
 9734 03fa 5A80     		strh	r2, [r3, #2]	@ movhi
 9735 03fc 07F5D873 		add	r3, r7, #432
 9736 0400 A3F5C273 		sub	r3, r3, #388
 9737 0404 0122     		movs	r2, #1
 9738 0406 1A80     		strh	r2, [r3]	@ movhi
 9739 0408 07F5D873 		add	r3, r7, #432
 9740 040c A3F5C273 		sub	r3, r3, #388
 9741 0410 0022     		movs	r2, #0
 9742 0412 5A80     		strh	r2, [r3, #2]	@ movhi
 9743 0414 07F5D873 		add	r3, r7, #432
 9744 0418 A3F5A073 		sub	r3, r3, #320
 9745 041c 07F5A872 		add	r2, r7, #336
ARM GAS  /tmp/ccEo7NLA.s 			page 200


 9746 0420 1A60     		str	r2, [r3]
 9747 0422 07F5D873 		add	r3, r7, #432
 9748 0426 A3F5C273 		sub	r3, r3, #388
 9749 042a 07F17002 		add	r2, r7, #112
 9750 042e 5A60     		str	r2, [r3, #4]
 9751 0430 07F5D873 		add	r3, r7, #432
 9752 0434 A3F5C273 		sub	r3, r3, #388
 9753 0438 0022     		movs	r2, #0
 9754 043a 9A60     		str	r2, [r3, #8]
 9755 043c 07F5D873 		add	r3, r7, #432
 9756 0440 A3F5C273 		sub	r3, r3, #388
 9757 0444 0122     		movs	r2, #1
 9758 0446 9A81     		strh	r2, [r3, #12]	@ movhi
 9759 0448 07F5D873 		add	r3, r7, #432
 9760 044c A3F5C273 		sub	r3, r3, #388
 9761 0450 0022     		movs	r2, #0
 9762 0452 DA81     		strh	r2, [r3, #14]	@ movhi
 9763 0454 07F5D873 		add	r3, r7, #432
 9764 0458 A3F5A273 		sub	r3, r3, #324
 9765 045c 07F58A72 		add	r2, r7, #276
 9766 0460 1A60     		str	r2, [r3]
 9767 0462 07F5D873 		add	r3, r7, #432
 9768 0466 A3F5C273 		sub	r3, r3, #388
 9769 046a 07F16C02 		add	r2, r7, #108
 9770 046e 1A61     		str	r2, [r3, #16]
 9771 0470 07F5D873 		add	r3, r7, #432
 9772 0474 A3F5C273 		sub	r3, r3, #388
 9773 0478 0022     		movs	r2, #0
 9774 047a 5A61     		str	r2, [r3, #20]
 9775 047c 07F5D873 		add	r3, r7, #432
 9776 0480 A3F5C273 		sub	r3, r3, #388
 9777 0484 0322     		movs	r2, #3
 9778 0486 1A83     		strh	r2, [r3, #24]	@ movhi
 9779 0488 07F5D873 		add	r3, r7, #432
 9780 048c A3F5C273 		sub	r3, r3, #388
 9781 0490 0022     		movs	r2, #0
 9782 0492 5A83     		strh	r2, [r3, #26]	@ movhi
 9783 0494 07F5D873 		add	r3, r7, #432
 9784 0498 A3F5A873 		sub	r3, r3, #336
 9785 049c 07F19C02 		add	r2, r7, #156
 9786 04a0 1A60     		str	r2, [r3]
 9787 04a2 07F5D873 		add	r3, r7, #432
 9788 04a6 A3F5A873 		sub	r3, r3, #336
 9789 04aa 07F1D802 		add	r2, r7, #216
 9790 04ae 5A60     		str	r2, [r3, #4]
 9791 04b0 07F5D873 		add	r3, r7, #432
 9792 04b4 A3F5A873 		sub	r3, r3, #336
 9793 04b8 0022     		movs	r2, #0
 9794 04ba 9A60     		str	r2, [r3, #8]
 9795 04bc 07F5D873 		add	r3, r7, #432
 9796 04c0 A3F5C273 		sub	r3, r3, #388
 9797 04c4 07F16002 		add	r2, r7, #96
 9798 04c8 DA61     		str	r2, [r3, #28]
 9799 04ca 07F5D873 		add	r3, r7, #432
 9800 04ce A3F5C273 		sub	r3, r3, #388
 9801 04d2 0022     		movs	r2, #0
 9802 04d4 1A62     		str	r2, [r3, #32]
ARM GAS  /tmp/ccEo7NLA.s 			page 201


 9803 04d6 07F5D873 		add	r3, r7, #432
 9804 04da A3F5C273 		sub	r3, r3, #388
 9805 04de 0022     		movs	r2, #0
 9806 04e0 9A84     		strh	r2, [r3, #36]	@ movhi
 9807 04e2 07F5D873 		add	r3, r7, #432
 9808 04e6 A3F5C273 		sub	r3, r3, #388
 9809 04ea 0022     		movs	r2, #0
 9810 04ec DA84     		strh	r2, [r3, #38]	@ movhi
 9811 04ee 07F5D873 		add	r3, r7, #432
 9812 04f2 A3F5AA73 		sub	r3, r3, #340
 9813 04f6 0022     		movs	r2, #0
 9814 04f8 1A60     		str	r2, [r3]
 9815 04fa 07F5D873 		add	r3, r7, #432
 9816 04fe A3F5C273 		sub	r3, r3, #388
 9817 0502 07F15C02 		add	r2, r7, #92
 9818 0506 9A62     		str	r2, [r3, #40]
 9819 0508 07F5D873 		add	r3, r7, #432
 9820 050c A3F5C273 		sub	r3, r3, #388
 9821 0510 0022     		movs	r2, #0
 9822 0512 DA62     		str	r2, [r3, #44]
 9823 0514 07F5D873 		add	r3, r7, #432
 9824 0518 A3F59E73 		sub	r3, r3, #316
 9825 051c 07F12C02 		add	r2, r7, #44
 9826 0520 5A60     		str	r2, [r3, #4]
1253:Lib/AI_Runtime/Npu/ll_aton/ll_sw_float.c ****       instanceNorm_chain, , 4, AI_TENSOR_LIST_OBJ_INIT(AI_FLAG_NONE, 1, TENSORS(&input_output)),
1254:Lib/AI_Runtime/Npu/ll_aton/ll_sw_float.c ****       AI_TENSOR_LIST_OBJ_INIT(AI_FLAG_NONE, 1, TENSORS(&instanceNorm_output)),
1255:Lib/AI_Runtime/Npu/ll_aton/ll_sw_float.c ****       AI_TENSOR_LIST_OBJ_INIT(AI_FLAG_NONE, 3, TENSORS(&instanceNorm_scale, &instanceNorm_bias, NUL
1256:Lib/AI_Runtime/Npu/ll_aton/ll_sw_float.c ****       AI_TENSOR_LIST_OBJ_EMPTY, )
1257:Lib/AI_Runtime/Npu/ll_aton/ll_sw_float.c **** 
1258:Lib/AI_Runtime/Npu/ll_aton/ll_sw_float.c ****   // layer initialization
1259:Lib/AI_Runtime/Npu/ll_aton/ll_sw_float.c ****   AI_LAYER_OBJ_DECLARE(instanceNorm_layer, 1, INSTANCENORMALIZATION_TYPE, 0x0, NULL, instanceNormal
 9827              		.loc 1 1259 3
 9828 0522 07F5D873 		add	r3, r7, #432
 9829 0526 A3F5D273 		sub	r3, r3, #420
 9830 052a 40F21512 		movw	r2, #277
 9831 052e 1A80     		strh	r2, [r3]	@ movhi
 9832 0530 07F5D873 		add	r3, r7, #432
 9833 0534 A3F5D273 		sub	r3, r3, #420
 9834 0538 0122     		movs	r2, #1
 9835 053a 5A80     		strh	r2, [r3, #2]	@ movhi
 9836 053c 07F5D873 		add	r3, r7, #432
 9837 0540 A3F5D273 		sub	r3, r3, #420
 9838 0544 0022     		movs	r2, #0
 9839 0546 5A60     		str	r2, [r3, #4]
 9840 0548 07F5D873 		add	r3, r7, #432
 9841 054c A3F5D273 		sub	r3, r3, #420
 9842 0550 0022     		movs	r2, #0
 9843 0552 9A60     		str	r2, [r3, #8]
 9844 0554 07F5D873 		add	r3, r7, #432
 9845 0558 A3F5D273 		sub	r3, r3, #420
 9846 055c 0022     		movs	r2, #0
 9847 055e DA60     		str	r2, [r3, #12]
 9848 0560 07F5D873 		add	r3, r7, #432
 9849 0564 A3F5D273 		sub	r3, r3, #420
 9850 0568 0022     		movs	r2, #0
 9851 056a 1A61     		str	r2, [r3, #16]
 9852 056c 07F5D873 		add	r3, r7, #432
ARM GAS  /tmp/ccEo7NLA.s 			page 202


 9853 0570 A3F5D273 		sub	r3, r3, #420
 9854 0574 0E4A     		ldr	r2, .L204
 9855 0576 5A61     		str	r2, [r3, #20]
 9856 0578 07F5D873 		add	r3, r7, #432
 9857 057c A3F5D273 		sub	r3, r3, #420
 9858 0580 07F17402 		add	r2, r7, #116
 9859 0584 9A61     		str	r2, [r3, #24]
 9860 0586 07F5D873 		add	r3, r7, #432
 9861 058a A3F5D273 		sub	r3, r3, #420
 9862 058e 094A     		ldr	r2, .L204+4
 9863 0590 DA61     		str	r2, [r3, #28]	@ float
1260:Lib/AI_Runtime/Npu/ll_aton/ll_sw_float.c ****                        forward_instanceNormalization, &instanceNorm_chain, NULL, NULL, , .eps = 0.0
1261:Lib/AI_Runtime/Npu/ll_aton/ll_sw_float.c ****   instanceNorm_layer.forward(AI_LAYER_OBJ(&instanceNorm_layer));
 9864              		.loc 1 1261 21
 9865 0592 07F5D873 		add	r3, r7, #432
 9866 0596 A3F5D273 		sub	r3, r3, #420
 9867 059a 5B69     		ldr	r3, [r3, #20]
 9868              		.loc 1 1261 3
 9869 059c 07F10C02 		add	r2, r7, #12
 9870 05a0 1046     		mov	r0, r2
 9871 05a2 9847     		blx	r3
 9872              	.LVL52:
1262:Lib/AI_Runtime/Npu/ll_aton/ll_sw_float.c **** }
 9873              		.loc 1 1262 1
 9874 05a4 00BF     		nop
 9875 05a6 07F5D877 		add	r7, r7, #432
 9876              		.cfi_def_cfa_offset 8
 9877 05aa BD46     		mov	sp, r7
 9878              		.cfi_def_cfa_register 13
 9879              		@ sp needed
 9880 05ac 80BD     		pop	{r7, pc}
 9881              	.L205:
 9882 05ae 00BF     		.align	2
 9883              	.L204:
 9884 05b0 00000000 		.word	forward_instanceNormalization
 9885 05b4 ACC52737 		.word	925353388
 9886              		.cfi_endproc
 9887              	.LFE29:
 9889              		.section	.text.ll_sw_forward_lpnormalization,"ax",%progbits
 9890              		.align	1
 9891              		.global	ll_sw_forward_lpnormalization
 9892              		.syntax unified
 9893              		.thumb
 9894              		.thumb_func
 9896              	ll_sw_forward_lpnormalization:
 9897              	.LFB30:
1263:Lib/AI_Runtime/Npu/ll_aton/ll_sw_float.c **** 
1264:Lib/AI_Runtime/Npu/ll_aton/ll_sw_float.c **** //##########################################################################################
1265:Lib/AI_Runtime/Npu/ll_aton/ll_sw_float.c **** /** Lp Norm forward function  */
1266:Lib/AI_Runtime/Npu/ll_aton/ll_sw_float.c **** void ll_sw_forward_lpnormalization(/* int processor, */ void *sw_info_struct)
1267:Lib/AI_Runtime/Npu/ll_aton/ll_sw_float.c **** {
 9898              		.loc 1 1267 1
 9899              		.cfi_startproc
 9900              		@ args = 0, pretend = 0, frame = 280
 9901              		@ frame_needed = 1, uses_anonymous_args = 0
 9902 0000 80B5     		push	{r7, lr}
 9903              		.cfi_def_cfa_offset 8
ARM GAS  /tmp/ccEo7NLA.s 			page 203


 9904              		.cfi_offset 7, -8
 9905              		.cfi_offset 14, -4
 9906 0002 C6B0     		sub	sp, sp, #280
 9907              		.cfi_def_cfa_offset 288
 9908 0004 00AF     		add	r7, sp, #0
 9909              		.cfi_def_cfa_register 7
 9910 0006 07F58C73 		add	r3, r7, #280
 9911 000a A3F58A73 		sub	r3, r3, #276
 9912 000e 1860     		str	r0, [r3]
1268:Lib/AI_Runtime/Npu/ll_aton/ll_sw_float.c ****   Lpnormalization_sw_info *sw_info = (Lpnormalization_sw_info *)sw_info_struct;
 9913              		.loc 1 1268 28
 9914 0010 07F58C73 		add	r3, r7, #280
 9915 0014 A3F58A73 		sub	r3, r3, #276
 9916 0018 1B68     		ldr	r3, [r3]
 9917 001a C7F81431 		str	r3, [r7, #276]
1269:Lib/AI_Runtime/Npu/ll_aton/ll_sw_float.c **** 
1270:Lib/AI_Runtime/Npu/ll_aton/ll_sw_float.c ****   AI_ARRAY_OBJ_DECLARE(input_output_array, FORMAT, sw_info->general.input.mem.start_offset,
 9918              		.loc 1 1270 3
 9919 001e AA4B     		ldr	r3, .L207
 9920 0020 C7F80431 		str	r3, [r7, #260]
 9921 0024 D7F81431 		ldr	r3, [r7, #276]
 9922 0028 5B69     		ldr	r3, [r3, #20]
 9923 002a C7F80831 		str	r3, [r7, #264]
 9924 002e D7F81431 		ldr	r3, [r7, #276]
 9925 0032 9B6A     		ldr	r3, [r3, #40]
 9926 0034 C7F80C31 		str	r3, [r7, #268]
 9927 0038 D7F81431 		ldr	r3, [r7, #276]
 9928 003c 9B6A     		ldr	r3, [r3, #40]
 9929 003e C7F81031 		str	r3, [r7, #272]
1271:Lib/AI_Runtime/Npu/ll_aton/ll_sw_float.c ****                        sw_info->general.input.mem.start_offset, sw_info->general.input.dim.num_elem
1272:Lib/AI_Runtime/Npu/ll_aton/ll_sw_float.c ****   AI_ARRAY_OBJ_DECLARE(lpNormm_output_array, FORMAT, sw_info->general.output.mem.start_offset,
 9930              		.loc 1 1272 3
 9931 0042 A14B     		ldr	r3, .L207
 9932 0044 C7F8F430 		str	r3, [r7, #244]
 9933 0048 D7F81431 		ldr	r3, [r7, #276]
 9934 004c 1B6C     		ldr	r3, [r3, #64]
 9935 004e C7F8F830 		str	r3, [r7, #248]
 9936 0052 D7F81431 		ldr	r3, [r7, #276]
 9937 0056 5B6D     		ldr	r3, [r3, #84]
 9938 0058 C7F8FC30 		str	r3, [r7, #252]
 9939 005c D7F81431 		ldr	r3, [r7, #276]
 9940 0060 5B6D     		ldr	r3, [r3, #84]
 9941 0062 C7F80031 		str	r3, [r7, #256]
1273:Lib/AI_Runtime/Npu/ll_aton/ll_sw_float.c ****                        sw_info->general.output.mem.start_offset, sw_info->general.output.dim.num_el
1274:Lib/AI_Runtime/Npu/ll_aton/ll_sw_float.c **** 
1275:Lib/AI_Runtime/Npu/ll_aton/ll_sw_float.c ****   // tensors init
1276:Lib/AI_Runtime/Npu/ll_aton/ll_sw_float.c ****   AI_TENSOR_OBJ_DECLARE(input_output, , 0x0, 4,
 9942              		.loc 1 1276 3
 9943 0066 0023     		movs	r3, #0
 9944 0068 C7F8D830 		str	r3, [r7, #216]
 9945 006c 0023     		movs	r3, #0
 9946 006e A7F8DC30 		strh	r3, [r7, #220]	@ movhi
 9947 0072 0423     		movs	r3, #4
 9948 0074 87F8DE30 		strb	r3, [r7, #222]
 9949 0078 0123     		movs	r3, #1
 9950 007a 87F8DF30 		strb	r3, [r7, #223]
 9951 007e 0123     		movs	r3, #1
ARM GAS  /tmp/ccEo7NLA.s 			page 204


 9952 0080 87F8E030 		strb	r3, [r7, #224]
 9953 0084 D7F8E030 		ldr	r3, [r7, #224]
 9954 0088 0422     		movs	r2, #4
 9955 008a 62F31F23 		bfi	r3, r2, #8, #24
 9956 008e C7F8E030 		str	r3, [r7, #224]
 9957 0092 D7F81431 		ldr	r3, [r7, #276]
 9958 0096 1B69     		ldr	r3, [r3, #16]
 9959 0098 C7F8C830 		str	r3, [r7, #200]
 9960 009c D7F81431 		ldr	r3, [r7, #276]
 9961 00a0 DB68     		ldr	r3, [r3, #12]
 9962 00a2 C7F8CC30 		str	r3, [r7, #204]
 9963 00a6 D7F81431 		ldr	r3, [r7, #276]
 9964 00aa 9B68     		ldr	r3, [r3, #8]
 9965 00ac C7F8D030 		str	r3, [r7, #208]
 9966 00b0 D7F81431 		ldr	r3, [r7, #276]
 9967 00b4 5B68     		ldr	r3, [r3, #4]
 9968 00b6 C7F8D430 		str	r3, [r7, #212]
 9969 00ba 07F1C803 		add	r3, r7, #200
 9970 00be C7F8E430 		str	r3, [r7, #228]
 9971 00c2 0223     		movs	r3, #2
 9972 00c4 87F8E830 		strb	r3, [r7, #232]
 9973 00c8 D7F8E830 		ldr	r3, [r7, #232]
 9974 00cc 0422     		movs	r2, #4
 9975 00ce 62F31F23 		bfi	r3, r2, #8, #24
 9976 00d2 C7F8E830 		str	r3, [r7, #232]
 9977 00d6 D7F81431 		ldr	r3, [r7, #276]
 9978 00da 5B6A     		ldr	r3, [r3, #36]
 9979 00dc C7F8B830 		str	r3, [r7, #184]
 9980 00e0 D7F81431 		ldr	r3, [r7, #276]
 9981 00e4 1B6A     		ldr	r3, [r3, #32]
 9982 00e6 C7F8BC30 		str	r3, [r7, #188]
 9983 00ea D7F81431 		ldr	r3, [r7, #276]
 9984 00ee DB69     		ldr	r3, [r3, #28]
 9985 00f0 C7F8C030 		str	r3, [r7, #192]
 9986 00f4 D7F81431 		ldr	r3, [r7, #276]
 9987 00f8 9B69     		ldr	r3, [r3, #24]
 9988 00fa C7F8C430 		str	r3, [r7, #196]
 9989 00fe 07F1B803 		add	r3, r7, #184
 9990 0102 C7F8EC30 		str	r3, [r7, #236]
 9991 0106 07F58273 		add	r3, r7, #260
 9992 010a C7F8F030 		str	r3, [r7, #240]
1277:Lib/AI_Runtime/Npu/ll_aton/ll_sw_float.c ****                         SHAPE_INIT(sw_info->general.input.dim.tensor_h, sw_info->general.input.dim.
1278:Lib/AI_Runtime/Npu/ll_aton/ll_sw_float.c ****                                    sw_info->general.input.dim.tensor_c, sw_info->general.input.dim.
1279:Lib/AI_Runtime/Npu/ll_aton/ll_sw_float.c ****                         STRIDE_INIT(sw_info->general.input.stride.h, sw_info->general.input.stride.
1280:Lib/AI_Runtime/Npu/ll_aton/ll_sw_float.c ****                                     sw_info->general.input.stride.c, sw_info->general.input.stride.
1281:Lib/AI_Runtime/Npu/ll_aton/ll_sw_float.c ****                         1, &input_output_array, NULL)
1282:Lib/AI_Runtime/Npu/ll_aton/ll_sw_float.c ****   AI_TENSOR_OBJ_DECLARE(lpNormm_output, , 0x0, 4,
 9993              		.loc 1 1282 3
 9994 010e 0023     		movs	r3, #0
 9995 0110 C7F89C30 		str	r3, [r7, #156]
 9996 0114 0023     		movs	r3, #0
 9997 0116 A7F8A030 		strh	r3, [r7, #160]	@ movhi
 9998 011a 0423     		movs	r3, #4
 9999 011c 87F8A230 		strb	r3, [r7, #162]
 10000 0120 0123     		movs	r3, #1
 10001 0122 87F8A330 		strb	r3, [r7, #163]
 10002 0126 0123     		movs	r3, #1
ARM GAS  /tmp/ccEo7NLA.s 			page 205


 10003 0128 87F8A430 		strb	r3, [r7, #164]
 10004 012c D7F8A430 		ldr	r3, [r7, #164]
 10005 0130 0422     		movs	r2, #4
 10006 0132 62F31F23 		bfi	r3, r2, #8, #24
 10007 0136 C7F8A430 		str	r3, [r7, #164]
 10008 013a D7F81431 		ldr	r3, [r7, #276]
 10009 013e DB6B     		ldr	r3, [r3, #60]
 10010 0140 C7F88C30 		str	r3, [r7, #140]
 10011 0144 D7F81431 		ldr	r3, [r7, #276]
 10012 0148 9B6B     		ldr	r3, [r3, #56]
 10013 014a C7F89030 		str	r3, [r7, #144]
 10014 014e D7F81431 		ldr	r3, [r7, #276]
 10015 0152 5B6B     		ldr	r3, [r3, #52]
 10016 0154 C7F89430 		str	r3, [r7, #148]
 10017 0158 D7F81431 		ldr	r3, [r7, #276]
 10018 015c 1B6B     		ldr	r3, [r3, #48]
 10019 015e C7F89830 		str	r3, [r7, #152]
 10020 0162 07F18C03 		add	r3, r7, #140
 10021 0166 C7F8A830 		str	r3, [r7, #168]
 10022 016a 0223     		movs	r3, #2
 10023 016c 87F8AC30 		strb	r3, [r7, #172]
 10024 0170 D7F8AC30 		ldr	r3, [r7, #172]
 10025 0174 0422     		movs	r2, #4
 10026 0176 62F31F23 		bfi	r3, r2, #8, #24
 10027 017a C7F8AC30 		str	r3, [r7, #172]
 10028 017e D7F81431 		ldr	r3, [r7, #276]
 10029 0182 1B6D     		ldr	r3, [r3, #80]
 10030 0184 FB67     		str	r3, [r7, #124]
 10031 0186 D7F81431 		ldr	r3, [r7, #276]
 10032 018a DB6C     		ldr	r3, [r3, #76]
 10033 018c C7F88030 		str	r3, [r7, #128]
 10034 0190 D7F81431 		ldr	r3, [r7, #276]
 10035 0194 9B6C     		ldr	r3, [r3, #72]
 10036 0196 C7F88430 		str	r3, [r7, #132]
 10037 019a D7F81431 		ldr	r3, [r7, #276]
 10038 019e 5B6C     		ldr	r3, [r3, #68]
 10039 01a0 C7F88830 		str	r3, [r7, #136]
 10040 01a4 07F17C03 		add	r3, r7, #124
 10041 01a8 C7F8B030 		str	r3, [r7, #176]
 10042 01ac 07F1F403 		add	r3, r7, #244
 10043 01b0 C7F8B430 		str	r3, [r7, #180]
1283:Lib/AI_Runtime/Npu/ll_aton/ll_sw_float.c ****                         SHAPE_INIT(sw_info->general.output.dim.tensor_h, sw_info->general.output.di
1284:Lib/AI_Runtime/Npu/ll_aton/ll_sw_float.c ****                                    sw_info->general.output.dim.tensor_c, sw_info->general.output.di
1285:Lib/AI_Runtime/Npu/ll_aton/ll_sw_float.c ****                         STRIDE_INIT(sw_info->general.output.stride.h, sw_info->general.output.strid
1286:Lib/AI_Runtime/Npu/ll_aton/ll_sw_float.c ****                                     sw_info->general.output.stride.c, sw_info->general.output.strid
1287:Lib/AI_Runtime/Npu/ll_aton/ll_sw_float.c ****                         1, &lpNormm_output_array, NULL)
1288:Lib/AI_Runtime/Npu/ll_aton/ll_sw_float.c **** 
1289:Lib/AI_Runtime/Npu/ll_aton/ll_sw_float.c ****   // tensor chain initialization
1290:Lib/AI_Runtime/Npu/ll_aton/ll_sw_float.c ****   AI_TENSOR_CHAIN_OBJ_DECLARE(lpNormm_chain, , 4, AI_TENSOR_LIST_OBJ_INIT(AI_FLAG_NONE, 1, TENSORS(
 10044              		.loc 1 1290 3
 10045 01b4 0423     		movs	r3, #4
 10046 01b6 A7F87430 		strh	r3, [r7, #116]	@ movhi
 10047 01ba 0023     		movs	r3, #0
 10048 01bc A7F87630 		strh	r3, [r7, #118]	@ movhi
 10049 01c0 0123     		movs	r3, #1
 10050 01c2 BB86     		strh	r3, [r7, #52]	@ movhi
 10051 01c4 0023     		movs	r3, #0
ARM GAS  /tmp/ccEo7NLA.s 			page 206


 10052 01c6 FB86     		strh	r3, [r7, #54]	@ movhi
 10053 01c8 07F1D803 		add	r3, r7, #216
 10054 01cc 3B67     		str	r3, [r7, #112]
 10055 01ce 07F17003 		add	r3, r7, #112
 10056 01d2 BB63     		str	r3, [r7, #56]
 10057 01d4 0023     		movs	r3, #0
 10058 01d6 FB63     		str	r3, [r7, #60]
 10059 01d8 0123     		movs	r3, #1
 10060 01da A7F84030 		strh	r3, [r7, #64]	@ movhi
 10061 01de 0023     		movs	r3, #0
 10062 01e0 A7F84230 		strh	r3, [r7, #66]	@ movhi
 10063 01e4 07F19C03 		add	r3, r7, #156
 10064 01e8 FB66     		str	r3, [r7, #108]
 10065 01ea 07F16C03 		add	r3, r7, #108
 10066 01ee 7B64     		str	r3, [r7, #68]
 10067 01f0 0023     		movs	r3, #0
 10068 01f2 BB64     		str	r3, [r7, #72]
 10069 01f4 0023     		movs	r3, #0
 10070 01f6 A7F84C30 		strh	r3, [r7, #76]	@ movhi
 10071 01fa 0023     		movs	r3, #0
 10072 01fc A7F84E30 		strh	r3, [r7, #78]	@ movhi
 10073 0200 0023     		movs	r3, #0
 10074 0202 BB66     		str	r3, [r7, #104]
 10075 0204 07F16803 		add	r3, r7, #104
 10076 0208 3B65     		str	r3, [r7, #80]
 10077 020a 0023     		movs	r3, #0
 10078 020c 7B65     		str	r3, [r7, #84]
 10079 020e 0023     		movs	r3, #0
 10080 0210 A7F85830 		strh	r3, [r7, #88]	@ movhi
 10081 0214 0023     		movs	r3, #0
 10082 0216 A7F85A30 		strh	r3, [r7, #90]	@ movhi
 10083 021a 0023     		movs	r3, #0
 10084 021c 7B66     		str	r3, [r7, #100]
 10085 021e 07F16403 		add	r3, r7, #100
 10086 0222 FB65     		str	r3, [r7, #92]
 10087 0224 0023     		movs	r3, #0
 10088 0226 3B66     		str	r3, [r7, #96]
 10089 0228 07F13403 		add	r3, r7, #52
 10090 022c BB67     		str	r3, [r7, #120]
1291:Lib/AI_Runtime/Npu/ll_aton/ll_sw_float.c ****                               AI_TENSOR_LIST_OBJ_INIT(AI_FLAG_NONE, 1, TENSORS(&lpNormm_output)),
1292:Lib/AI_Runtime/Npu/ll_aton/ll_sw_float.c ****                               AI_TENSOR_LIST_OBJ_EMPTY, AI_TENSOR_LIST_OBJ_EMPTY, )
1293:Lib/AI_Runtime/Npu/ll_aton/ll_sw_float.c **** 
1294:Lib/AI_Runtime/Npu/ll_aton/ll_sw_float.c ****   // layer initialization
1295:Lib/AI_Runtime/Npu/ll_aton/ll_sw_float.c ****   AI_LAYER_OBJ_DECLARE(lpNormm_layer, 1, NORM_TYPE, 0x0, NULL, norm, forward_norm, &lpNormm_chain, 
 10091              		.loc 1 1295 3
 10092 022e 07F58C73 		add	r3, r7, #280
 10093 0232 A3F58673 		sub	r3, r3, #268
 10094 0236 1846     		mov	r0, r3
 10095 0238 2823     		movs	r3, #40
 10096 023a 1A46     		mov	r2, r3
 10097 023c 0021     		movs	r1, #0
 10098 023e FFF7FEFF 		bl	memset
 10099 0242 07F58C73 		add	r3, r7, #280
 10100 0246 A3F58673 		sub	r3, r3, #268
 10101 024a 4FF48472 		mov	r2, #264
 10102 024e 1A80     		strh	r2, [r3]	@ movhi
 10103 0250 07F58C73 		add	r3, r7, #280
ARM GAS  /tmp/ccEo7NLA.s 			page 207


 10104 0254 A3F58673 		sub	r3, r3, #268
 10105 0258 0122     		movs	r2, #1
 10106 025a 5A80     		strh	r2, [r3, #2]	@ movhi
 10107 025c 07F58C73 		add	r3, r7, #280
 10108 0260 A3F58673 		sub	r3, r3, #268
 10109 0264 194A     		ldr	r2, .L207+4
 10110 0266 5A61     		str	r2, [r3, #20]
 10111 0268 07F58C73 		add	r3, r7, #280
 10112 026c A3F58673 		sub	r3, r3, #268
 10113 0270 07F17402 		add	r2, r7, #116
 10114 0274 9A61     		str	r2, [r3, #24]
 10115 0276 D7F81431 		ldr	r3, [r7, #276]
 10116 027a DB6D     		ldr	r3, [r3, #92]
 10117 027c 1846     		mov	r0, r3
 10118 027e FFF7FEFF 		bl	helper_emit_shape_index_axis
 10119 0282 0346     		mov	r3, r0
 10120              		.loc 1 1295 3 is_stmt 0 discriminator 1
 10121 0284 DAB2     		uxtb	r2, r3
 10122 0286 07F58C73 		add	r3, r7, #280
 10123 028a A3F58673 		sub	r3, r3, #268
 10124 028e 1A77     		strb	r2, [r3, #28]
 10125 0290 D7F81431 		ldr	r3, [r7, #276]
 10126 0294 1B6E     		ldr	r3, [r3, #96]
 10127 0296 07EE903A 		vmov	s15, r3	@ int
 10128 029a F8EEE77A 		vcvt.f32.s32	s15, s15
 10129 029e 07F58C73 		add	r3, r7, #280
 10130 02a2 A3F58673 		sub	r3, r3, #268
 10131 02a6 C3ED087A 		vstr.32	s15, [r3, #32]
1296:Lib/AI_Runtime/Npu/ll_aton/ll_sw_float.c ****                        .axis = helper_emit_shape_index_axis(sw_info->axis), .exponent = sw_info->p,
1297:Lib/AI_Runtime/Npu/ll_aton/ll_sw_float.c ****   lpNormm_layer.forward(AI_LAYER_OBJ(&lpNormm_layer));
 10132              		.loc 1 1297 16 is_stmt 1
 10133 02aa 07F58C73 		add	r3, r7, #280
 10134 02ae A3F58673 		sub	r3, r3, #268
 10135 02b2 5B69     		ldr	r3, [r3, #20]
 10136              		.loc 1 1297 3
 10137 02b4 07F10C02 		add	r2, r7, #12
 10138 02b8 1046     		mov	r0, r2
 10139 02ba 9847     		blx	r3
 10140              	.LVL53:
1298:Lib/AI_Runtime/Npu/ll_aton/ll_sw_float.c **** }
 10141              		.loc 1 1298 1
 10142 02bc 00BF     		nop
 10143 02be 07F58C77 		add	r7, r7, #280
 10144              		.cfi_def_cfa_offset 8
 10145 02c2 BD46     		mov	sp, r7
 10146              		.cfi_def_cfa_register 13
 10147              		@ sp needed
 10148 02c4 80BD     		pop	{r7, pc}
 10149              	.L208:
 10150 02c6 00BF     		.align	2
 10151              	.L207:
 10152 02c8 40108200 		.word	8523840
 10153 02cc 00000000 		.word	forward_norm
 10154              		.cfi_endproc
 10155              	.LFE30:
 10157              		.section	.text.ll_sw_forward_sign,"ax",%progbits
 10158              		.align	1
ARM GAS  /tmp/ccEo7NLA.s 			page 208


 10159              		.global	ll_sw_forward_sign
 10160              		.syntax unified
 10161              		.thumb
 10162              		.thumb_func
 10164              	ll_sw_forward_sign:
 10165              	.LFB31:
1299:Lib/AI_Runtime/Npu/ll_aton/ll_sw_float.c **** 
1300:Lib/AI_Runtime/Npu/ll_aton/ll_sw_float.c **** //##########################################################################################
1301:Lib/AI_Runtime/Npu/ll_aton/ll_sw_float.c **** /** Sign forward function  */
1302:Lib/AI_Runtime/Npu/ll_aton/ll_sw_float.c **** void ll_sw_forward_sign(/* int processor, */ void *sw_info_struct)
1303:Lib/AI_Runtime/Npu/ll_aton/ll_sw_float.c **** {
 10166              		.loc 1 1303 1
 10167              		.cfi_startproc
 10168              		@ args = 0, pretend = 0, frame = 272
 10169              		@ frame_needed = 1, uses_anonymous_args = 0
 10170 0000 80B5     		push	{r7, lr}
 10171              		.cfi_def_cfa_offset 8
 10172              		.cfi_offset 7, -8
 10173              		.cfi_offset 14, -4
 10174 0002 C4B0     		sub	sp, sp, #272
 10175              		.cfi_def_cfa_offset 280
 10176 0004 00AF     		add	r7, sp, #0
 10177              		.cfi_def_cfa_register 7
 10178 0006 07F58873 		add	r3, r7, #272
 10179 000a A3F58673 		sub	r3, r3, #268
 10180 000e 1860     		str	r0, [r3]
1304:Lib/AI_Runtime/Npu/ll_aton/ll_sw_float.c ****   Sign_sw_info *sw_info = (Sign_sw_info *)sw_info_struct;
 10181              		.loc 1 1304 17
 10182 0010 07F58873 		add	r3, r7, #272
 10183 0014 A3F58673 		sub	r3, r3, #268
 10184 0018 1B68     		ldr	r3, [r3]
 10185 001a C7F80C31 		str	r3, [r7, #268]
1305:Lib/AI_Runtime/Npu/ll_aton/ll_sw_float.c **** 
1306:Lib/AI_Runtime/Npu/ll_aton/ll_sw_float.c ****   AI_ARRAY_OBJ_DECLARE(input_output_array, FORMAT, sw_info->general.input.mem.start_offset,
 10186              		.loc 1 1306 3
 10187 001e 9B4B     		ldr	r3, .L210
 10188 0020 C7F8FC30 		str	r3, [r7, #252]
 10189 0024 D7F80C31 		ldr	r3, [r7, #268]
 10190 0028 5B69     		ldr	r3, [r3, #20]
 10191 002a C7F80031 		str	r3, [r7, #256]
 10192 002e D7F80C31 		ldr	r3, [r7, #268]
 10193 0032 9B6A     		ldr	r3, [r3, #40]
 10194 0034 C7F80431 		str	r3, [r7, #260]
 10195 0038 D7F80C31 		ldr	r3, [r7, #268]
 10196 003c 9B6A     		ldr	r3, [r3, #40]
 10197 003e C7F80831 		str	r3, [r7, #264]
1307:Lib/AI_Runtime/Npu/ll_aton/ll_sw_float.c ****                        sw_info->general.input.mem.start_offset, sw_info->general.input.dim.num_elem
1308:Lib/AI_Runtime/Npu/ll_aton/ll_sw_float.c ****   AI_ARRAY_OBJ_DECLARE(sign_output_array, FORMAT, sw_info->general.output.mem.start_offset,
 10198              		.loc 1 1308 3
 10199 0042 924B     		ldr	r3, .L210
 10200 0044 C7F8EC30 		str	r3, [r7, #236]
 10201 0048 D7F80C31 		ldr	r3, [r7, #268]
 10202 004c 1B6C     		ldr	r3, [r3, #64]
 10203 004e C7F8F030 		str	r3, [r7, #240]
 10204 0052 D7F80C31 		ldr	r3, [r7, #268]
 10205 0056 5B6D     		ldr	r3, [r3, #84]
 10206 0058 C7F8F430 		str	r3, [r7, #244]
ARM GAS  /tmp/ccEo7NLA.s 			page 209


 10207 005c D7F80C31 		ldr	r3, [r7, #268]
 10208 0060 5B6D     		ldr	r3, [r3, #84]
 10209 0062 C7F8F830 		str	r3, [r7, #248]
1309:Lib/AI_Runtime/Npu/ll_aton/ll_sw_float.c ****                        sw_info->general.output.mem.start_offset, sw_info->general.output.dim.num_el
1310:Lib/AI_Runtime/Npu/ll_aton/ll_sw_float.c **** 
1311:Lib/AI_Runtime/Npu/ll_aton/ll_sw_float.c ****   // tensors init
1312:Lib/AI_Runtime/Npu/ll_aton/ll_sw_float.c ****   AI_TENSOR_OBJ_DECLARE(input_output, , 0x0, 4,
 10210              		.loc 1 1312 3
 10211 0066 0023     		movs	r3, #0
 10212 0068 C7F8D030 		str	r3, [r7, #208]
 10213 006c 0023     		movs	r3, #0
 10214 006e A7F8D430 		strh	r3, [r7, #212]	@ movhi
 10215 0072 0423     		movs	r3, #4
 10216 0074 87F8D630 		strb	r3, [r7, #214]
 10217 0078 0123     		movs	r3, #1
 10218 007a 87F8D730 		strb	r3, [r7, #215]
 10219 007e 0123     		movs	r3, #1
 10220 0080 87F8D830 		strb	r3, [r7, #216]
 10221 0084 D7F8D830 		ldr	r3, [r7, #216]
 10222 0088 0422     		movs	r2, #4
 10223 008a 62F31F23 		bfi	r3, r2, #8, #24
 10224 008e C7F8D830 		str	r3, [r7, #216]
 10225 0092 D7F80C31 		ldr	r3, [r7, #268]
 10226 0096 1B69     		ldr	r3, [r3, #16]
 10227 0098 C7F8C030 		str	r3, [r7, #192]
 10228 009c D7F80C31 		ldr	r3, [r7, #268]
 10229 00a0 DB68     		ldr	r3, [r3, #12]
 10230 00a2 C7F8C430 		str	r3, [r7, #196]
 10231 00a6 D7F80C31 		ldr	r3, [r7, #268]
 10232 00aa 9B68     		ldr	r3, [r3, #8]
 10233 00ac C7F8C830 		str	r3, [r7, #200]
 10234 00b0 D7F80C31 		ldr	r3, [r7, #268]
 10235 00b4 5B68     		ldr	r3, [r3, #4]
 10236 00b6 C7F8CC30 		str	r3, [r7, #204]
 10237 00ba 07F1C003 		add	r3, r7, #192
 10238 00be C7F8DC30 		str	r3, [r7, #220]
 10239 00c2 0223     		movs	r3, #2
 10240 00c4 87F8E030 		strb	r3, [r7, #224]
 10241 00c8 D7F8E030 		ldr	r3, [r7, #224]
 10242 00cc 0422     		movs	r2, #4
 10243 00ce 62F31F23 		bfi	r3, r2, #8, #24
 10244 00d2 C7F8E030 		str	r3, [r7, #224]
 10245 00d6 D7F80C31 		ldr	r3, [r7, #268]
 10246 00da 5B6A     		ldr	r3, [r3, #36]
 10247 00dc C7F8B030 		str	r3, [r7, #176]
 10248 00e0 D7F80C31 		ldr	r3, [r7, #268]
 10249 00e4 1B6A     		ldr	r3, [r3, #32]
 10250 00e6 C7F8B430 		str	r3, [r7, #180]
 10251 00ea D7F80C31 		ldr	r3, [r7, #268]
 10252 00ee DB69     		ldr	r3, [r3, #28]
 10253 00f0 C7F8B830 		str	r3, [r7, #184]
 10254 00f4 D7F80C31 		ldr	r3, [r7, #268]
 10255 00f8 9B69     		ldr	r3, [r3, #24]
 10256 00fa C7F8BC30 		str	r3, [r7, #188]
 10257 00fe 07F1B003 		add	r3, r7, #176
 10258 0102 C7F8E430 		str	r3, [r7, #228]
 10259 0106 07F1FC03 		add	r3, r7, #252
ARM GAS  /tmp/ccEo7NLA.s 			page 210


 10260 010a C7F8E830 		str	r3, [r7, #232]
1313:Lib/AI_Runtime/Npu/ll_aton/ll_sw_float.c ****                         SHAPE_INIT(sw_info->general.input.dim.tensor_h, sw_info->general.input.dim.
1314:Lib/AI_Runtime/Npu/ll_aton/ll_sw_float.c ****                                    sw_info->general.input.dim.tensor_c, sw_info->general.input.dim.
1315:Lib/AI_Runtime/Npu/ll_aton/ll_sw_float.c ****                         STRIDE_INIT(sw_info->general.input.stride.h, sw_info->general.input.stride.
1316:Lib/AI_Runtime/Npu/ll_aton/ll_sw_float.c ****                                     sw_info->general.input.stride.c, sw_info->general.input.stride.
1317:Lib/AI_Runtime/Npu/ll_aton/ll_sw_float.c ****                         1, &input_output_array, NULL)
1318:Lib/AI_Runtime/Npu/ll_aton/ll_sw_float.c ****   AI_TENSOR_OBJ_DECLARE(sign_output, , 0x0, 4,
 10261              		.loc 1 1318 3
 10262 010e 0023     		movs	r3, #0
 10263 0110 C7F89430 		str	r3, [r7, #148]
 10264 0114 0023     		movs	r3, #0
 10265 0116 A7F89830 		strh	r3, [r7, #152]	@ movhi
 10266 011a 0423     		movs	r3, #4
 10267 011c 87F89A30 		strb	r3, [r7, #154]
 10268 0120 0123     		movs	r3, #1
 10269 0122 87F89B30 		strb	r3, [r7, #155]
 10270 0126 0123     		movs	r3, #1
 10271 0128 87F89C30 		strb	r3, [r7, #156]
 10272 012c D7F89C30 		ldr	r3, [r7, #156]
 10273 0130 0422     		movs	r2, #4
 10274 0132 62F31F23 		bfi	r3, r2, #8, #24
 10275 0136 C7F89C30 		str	r3, [r7, #156]
 10276 013a D7F80C31 		ldr	r3, [r7, #268]
 10277 013e DB6B     		ldr	r3, [r3, #60]
 10278 0140 C7F88430 		str	r3, [r7, #132]
 10279 0144 D7F80C31 		ldr	r3, [r7, #268]
 10280 0148 9B6B     		ldr	r3, [r3, #56]
 10281 014a C7F88830 		str	r3, [r7, #136]
 10282 014e D7F80C31 		ldr	r3, [r7, #268]
 10283 0152 5B6B     		ldr	r3, [r3, #52]
 10284 0154 C7F88C30 		str	r3, [r7, #140]
 10285 0158 D7F80C31 		ldr	r3, [r7, #268]
 10286 015c 1B6B     		ldr	r3, [r3, #48]
 10287 015e C7F89030 		str	r3, [r7, #144]
 10288 0162 07F18403 		add	r3, r7, #132
 10289 0166 C7F8A030 		str	r3, [r7, #160]
 10290 016a 0223     		movs	r3, #2
 10291 016c 87F8A430 		strb	r3, [r7, #164]
 10292 0170 D7F8A430 		ldr	r3, [r7, #164]
 10293 0174 0422     		movs	r2, #4
 10294 0176 62F31F23 		bfi	r3, r2, #8, #24
 10295 017a C7F8A430 		str	r3, [r7, #164]
 10296 017e D7F80C31 		ldr	r3, [r7, #268]
 10297 0182 1B6D     		ldr	r3, [r3, #80]
 10298 0184 7B67     		str	r3, [r7, #116]
 10299 0186 D7F80C31 		ldr	r3, [r7, #268]
 10300 018a DB6C     		ldr	r3, [r3, #76]
 10301 018c BB67     		str	r3, [r7, #120]
 10302 018e D7F80C31 		ldr	r3, [r7, #268]
 10303 0192 9B6C     		ldr	r3, [r3, #72]
 10304 0194 FB67     		str	r3, [r7, #124]
 10305 0196 D7F80C31 		ldr	r3, [r7, #268]
 10306 019a 5B6C     		ldr	r3, [r3, #68]
 10307 019c C7F88030 		str	r3, [r7, #128]
 10308 01a0 07F17403 		add	r3, r7, #116
 10309 01a4 C7F8A830 		str	r3, [r7, #168]
 10310 01a8 07F1EC03 		add	r3, r7, #236
ARM GAS  /tmp/ccEo7NLA.s 			page 211


 10311 01ac C7F8AC30 		str	r3, [r7, #172]
1319:Lib/AI_Runtime/Npu/ll_aton/ll_sw_float.c ****                         SHAPE_INIT(sw_info->general.output.dim.tensor_h, sw_info->general.output.di
1320:Lib/AI_Runtime/Npu/ll_aton/ll_sw_float.c ****                                    sw_info->general.output.dim.tensor_c, sw_info->general.output.di
1321:Lib/AI_Runtime/Npu/ll_aton/ll_sw_float.c ****                         STRIDE_INIT(sw_info->general.output.stride.h, sw_info->general.output.strid
1322:Lib/AI_Runtime/Npu/ll_aton/ll_sw_float.c ****                                     sw_info->general.output.stride.c, sw_info->general.output.strid
1323:Lib/AI_Runtime/Npu/ll_aton/ll_sw_float.c ****                         1, &sign_output_array, NULL)
1324:Lib/AI_Runtime/Npu/ll_aton/ll_sw_float.c **** 
1325:Lib/AI_Runtime/Npu/ll_aton/ll_sw_float.c ****   // tensor chain initialization
1326:Lib/AI_Runtime/Npu/ll_aton/ll_sw_float.c ****   AI_TENSOR_CHAIN_OBJ_DECLARE(sign_chain, , 4, AI_TENSOR_LIST_OBJ_INIT(AI_FLAG_NONE, 1, TENSORS(&in
 10312              		.loc 1 1326 3
 10313 01b0 0423     		movs	r3, #4
 10314 01b2 A7F86C30 		strh	r3, [r7, #108]	@ movhi
 10315 01b6 0023     		movs	r3, #0
 10316 01b8 A7F86E30 		strh	r3, [r7, #110]	@ movhi
 10317 01bc 0123     		movs	r3, #1
 10318 01be BB85     		strh	r3, [r7, #44]	@ movhi
 10319 01c0 0023     		movs	r3, #0
 10320 01c2 FB85     		strh	r3, [r7, #46]	@ movhi
 10321 01c4 07F1D003 		add	r3, r7, #208
 10322 01c8 BB66     		str	r3, [r7, #104]
 10323 01ca 07F16803 		add	r3, r7, #104
 10324 01ce 3B63     		str	r3, [r7, #48]
 10325 01d0 0023     		movs	r3, #0
 10326 01d2 7B63     		str	r3, [r7, #52]
 10327 01d4 0123     		movs	r3, #1
 10328 01d6 3B87     		strh	r3, [r7, #56]	@ movhi
 10329 01d8 0023     		movs	r3, #0
 10330 01da 7B87     		strh	r3, [r7, #58]	@ movhi
 10331 01dc 07F19403 		add	r3, r7, #148
 10332 01e0 7B66     		str	r3, [r7, #100]
 10333 01e2 07F16403 		add	r3, r7, #100
 10334 01e6 FB63     		str	r3, [r7, #60]
 10335 01e8 0023     		movs	r3, #0
 10336 01ea 3B64     		str	r3, [r7, #64]
 10337 01ec 0023     		movs	r3, #0
 10338 01ee A7F84430 		strh	r3, [r7, #68]	@ movhi
 10339 01f2 0023     		movs	r3, #0
 10340 01f4 A7F84630 		strh	r3, [r7, #70]	@ movhi
 10341 01f8 0023     		movs	r3, #0
 10342 01fa 3B66     		str	r3, [r7, #96]
 10343 01fc 07F16003 		add	r3, r7, #96
 10344 0200 BB64     		str	r3, [r7, #72]
 10345 0202 0023     		movs	r3, #0
 10346 0204 FB64     		str	r3, [r7, #76]
 10347 0206 0023     		movs	r3, #0
 10348 0208 A7F85030 		strh	r3, [r7, #80]	@ movhi
 10349 020c 0023     		movs	r3, #0
 10350 020e A7F85230 		strh	r3, [r7, #82]	@ movhi
 10351 0212 0023     		movs	r3, #0
 10352 0214 FB65     		str	r3, [r7, #92]
 10353 0216 07F15C03 		add	r3, r7, #92
 10354 021a 7B65     		str	r3, [r7, #84]
 10355 021c 0023     		movs	r3, #0
 10356 021e BB65     		str	r3, [r7, #88]
 10357 0220 07F12C03 		add	r3, r7, #44
 10358 0224 3B67     		str	r3, [r7, #112]
1327:Lib/AI_Runtime/Npu/ll_aton/ll_sw_float.c ****                               AI_TENSOR_LIST_OBJ_INIT(AI_FLAG_NONE, 1, TENSORS(&sign_output)), AI_T
ARM GAS  /tmp/ccEo7NLA.s 			page 212


1328:Lib/AI_Runtime/Npu/ll_aton/ll_sw_float.c ****                               AI_TENSOR_LIST_OBJ_EMPTY, )
1329:Lib/AI_Runtime/Npu/ll_aton/ll_sw_float.c **** 
1330:Lib/AI_Runtime/Npu/ll_aton/ll_sw_float.c ****   // layer initialization
1331:Lib/AI_Runtime/Npu/ll_aton/ll_sw_float.c ****   AI_LAYER_OBJ_DECLARE(sign_layer, 1, NL_TYPE, 0x0, NULL, nl, forward_sign, &sign_chain, NULL, NULL
 10359              		.loc 1 1331 3
 10360 0226 07F58873 		add	r3, r7, #272
 10361 022a A3F58273 		sub	r3, r3, #260
 10362 022e 1846     		mov	r0, r3
 10363 0230 2023     		movs	r3, #32
 10364 0232 1A46     		mov	r2, r3
 10365 0234 0021     		movs	r1, #0
 10366 0236 FFF7FEFF 		bl	memset
 10367 023a 07F58873 		add	r3, r7, #272
 10368 023e A3F58273 		sub	r3, r3, #260
 10369 0242 40F20712 		movw	r2, #263
 10370 0246 1A80     		strh	r2, [r3]	@ movhi
 10371 0248 07F58873 		add	r3, r7, #272
 10372 024c A3F58273 		sub	r3, r3, #260
 10373 0250 0122     		movs	r2, #1
 10374 0252 5A80     		strh	r2, [r3, #2]	@ movhi
 10375 0254 07F58873 		add	r3, r7, #272
 10376 0258 A3F58273 		sub	r3, r3, #260
 10377 025c 0C4A     		ldr	r2, .L210+4
 10378 025e 5A61     		str	r2, [r3, #20]
 10379 0260 07F58873 		add	r3, r7, #272
 10380 0264 A3F58273 		sub	r3, r3, #260
 10381 0268 07F16C02 		add	r2, r7, #108
 10382 026c 9A61     		str	r2, [r3, #24]
1332:Lib/AI_Runtime/Npu/ll_aton/ll_sw_float.c ****   sign_layer.forward(AI_LAYER_OBJ(&sign_layer));
 10383              		.loc 1 1332 13
 10384 026e 07F58873 		add	r3, r7, #272
 10385 0272 A3F58273 		sub	r3, r3, #260
 10386 0276 5B69     		ldr	r3, [r3, #20]
 10387              		.loc 1 1332 3
 10388 0278 07F10C02 		add	r2, r7, #12
 10389 027c 1046     		mov	r0, r2
 10390 027e 9847     		blx	r3
 10391              	.LVL54:
1333:Lib/AI_Runtime/Npu/ll_aton/ll_sw_float.c **** }
 10392              		.loc 1 1333 1
 10393 0280 00BF     		nop
 10394 0282 07F58877 		add	r7, r7, #272
 10395              		.cfi_def_cfa_offset 8
 10396 0286 BD46     		mov	sp, r7
 10397              		.cfi_def_cfa_register 13
 10398              		@ sp needed
 10399 0288 80BD     		pop	{r7, pc}
 10400              	.L211:
 10401 028a 00BF     		.align	2
 10402              	.L210:
 10403 028c 40108200 		.word	8523840
 10404 0290 00000000 		.word	forward_sign
 10405              		.cfi_endproc
 10406              	.LFE31:
 10408              		.section	.text.ll_sw_forward_lrn,"ax",%progbits
 10409              		.align	1
 10410              		.global	ll_sw_forward_lrn
ARM GAS  /tmp/ccEo7NLA.s 			page 213


 10411              		.syntax unified
 10412              		.thumb
 10413              		.thumb_func
 10415              	ll_sw_forward_lrn:
 10416              	.LFB32:
1334:Lib/AI_Runtime/Npu/ll_aton/ll_sw_float.c **** 
1335:Lib/AI_Runtime/Npu/ll_aton/ll_sw_float.c **** //##########################################################################################
1336:Lib/AI_Runtime/Npu/ll_aton/ll_sw_float.c **** /** LRN Local Response Normalization forward function  */
1337:Lib/AI_Runtime/Npu/ll_aton/ll_sw_float.c **** void ll_sw_forward_lrn(/* int processor, */ void *sw_info_struct)
1338:Lib/AI_Runtime/Npu/ll_aton/ll_sw_float.c **** {
 10417              		.loc 1 1338 1
 10418              		.cfi_startproc
 10419              		@ args = 0, pretend = 0, frame = 280
 10420              		@ frame_needed = 1, uses_anonymous_args = 0
 10421 0000 80B5     		push	{r7, lr}
 10422              		.cfi_def_cfa_offset 8
 10423              		.cfi_offset 7, -8
 10424              		.cfi_offset 14, -4
 10425 0002 C6B0     		sub	sp, sp, #280
 10426              		.cfi_def_cfa_offset 288
 10427 0004 00AF     		add	r7, sp, #0
 10428              		.cfi_def_cfa_register 7
 10429 0006 07F58C73 		add	r3, r7, #280
 10430 000a A3F58A73 		sub	r3, r3, #276
 10431 000e 1860     		str	r0, [r3]
1339:Lib/AI_Runtime/Npu/ll_aton/ll_sw_float.c ****   Lrn_sw_info *sw_info = (Lrn_sw_info *)sw_info_struct;
 10432              		.loc 1 1339 16
 10433 0010 07F58C73 		add	r3, r7, #280
 10434 0014 A3F58A73 		sub	r3, r3, #276
 10435 0018 1B68     		ldr	r3, [r3]
 10436 001a C7F81431 		str	r3, [r7, #276]
1340:Lib/AI_Runtime/Npu/ll_aton/ll_sw_float.c **** 
1341:Lib/AI_Runtime/Npu/ll_aton/ll_sw_float.c ****   AI_ARRAY_OBJ_DECLARE(input_output_array, FORMAT, sw_info->general.input.mem.start_offset,
 10437              		.loc 1 1341 3
 10438 001e B44B     		ldr	r3, .L213
 10439 0020 C7F80431 		str	r3, [r7, #260]
 10440 0024 D7F81431 		ldr	r3, [r7, #276]
 10441 0028 5B69     		ldr	r3, [r3, #20]
 10442 002a C7F80831 		str	r3, [r7, #264]
 10443 002e D7F81431 		ldr	r3, [r7, #276]
 10444 0032 9B6A     		ldr	r3, [r3, #40]
 10445 0034 C7F80C31 		str	r3, [r7, #268]
 10446 0038 D7F81431 		ldr	r3, [r7, #276]
 10447 003c 9B6A     		ldr	r3, [r3, #40]
 10448 003e C7F81031 		str	r3, [r7, #272]
1342:Lib/AI_Runtime/Npu/ll_aton/ll_sw_float.c ****                        sw_info->general.input.mem.start_offset, sw_info->general.input.dim.num_elem
1343:Lib/AI_Runtime/Npu/ll_aton/ll_sw_float.c ****   AI_ARRAY_OBJ_DECLARE(LRN_output_array, FORMAT, sw_info->general.output.mem.start_offset,
 10449              		.loc 1 1343 3
 10450 0042 AB4B     		ldr	r3, .L213
 10451 0044 C7F8F430 		str	r3, [r7, #244]
 10452 0048 D7F81431 		ldr	r3, [r7, #276]
 10453 004c 1B6C     		ldr	r3, [r3, #64]
 10454 004e C7F8F830 		str	r3, [r7, #248]
 10455 0052 D7F81431 		ldr	r3, [r7, #276]
 10456 0056 5B6D     		ldr	r3, [r3, #84]
 10457 0058 C7F8FC30 		str	r3, [r7, #252]
 10458 005c D7F81431 		ldr	r3, [r7, #276]
ARM GAS  /tmp/ccEo7NLA.s 			page 214


 10459 0060 5B6D     		ldr	r3, [r3, #84]
 10460 0062 C7F80031 		str	r3, [r7, #256]
1344:Lib/AI_Runtime/Npu/ll_aton/ll_sw_float.c ****                        sw_info->general.output.mem.start_offset, sw_info->general.output.dim.num_el
1345:Lib/AI_Runtime/Npu/ll_aton/ll_sw_float.c **** 
1346:Lib/AI_Runtime/Npu/ll_aton/ll_sw_float.c ****   // tensors init
1347:Lib/AI_Runtime/Npu/ll_aton/ll_sw_float.c ****   AI_TENSOR_OBJ_DECLARE(input_output, , 0x0, 4,
 10461              		.loc 1 1347 3
 10462 0066 0023     		movs	r3, #0
 10463 0068 C7F8D830 		str	r3, [r7, #216]
 10464 006c 0023     		movs	r3, #0
 10465 006e A7F8DC30 		strh	r3, [r7, #220]	@ movhi
 10466 0072 0423     		movs	r3, #4
 10467 0074 87F8DE30 		strb	r3, [r7, #222]
 10468 0078 0123     		movs	r3, #1
 10469 007a 87F8DF30 		strb	r3, [r7, #223]
 10470 007e 0123     		movs	r3, #1
 10471 0080 87F8E030 		strb	r3, [r7, #224]
 10472 0084 D7F8E030 		ldr	r3, [r7, #224]
 10473 0088 0422     		movs	r2, #4
 10474 008a 62F31F23 		bfi	r3, r2, #8, #24
 10475 008e C7F8E030 		str	r3, [r7, #224]
 10476 0092 D7F81431 		ldr	r3, [r7, #276]
 10477 0096 1B69     		ldr	r3, [r3, #16]
 10478 0098 C7F8C830 		str	r3, [r7, #200]
 10479 009c D7F81431 		ldr	r3, [r7, #276]
 10480 00a0 DB68     		ldr	r3, [r3, #12]
 10481 00a2 C7F8CC30 		str	r3, [r7, #204]
 10482 00a6 D7F81431 		ldr	r3, [r7, #276]
 10483 00aa 9B68     		ldr	r3, [r3, #8]
 10484 00ac C7F8D030 		str	r3, [r7, #208]
 10485 00b0 D7F81431 		ldr	r3, [r7, #276]
 10486 00b4 5B68     		ldr	r3, [r3, #4]
 10487 00b6 C7F8D430 		str	r3, [r7, #212]
 10488 00ba 07F1C803 		add	r3, r7, #200
 10489 00be C7F8E430 		str	r3, [r7, #228]
 10490 00c2 0223     		movs	r3, #2
 10491 00c4 87F8E830 		strb	r3, [r7, #232]
 10492 00c8 D7F8E830 		ldr	r3, [r7, #232]
 10493 00cc 0422     		movs	r2, #4
 10494 00ce 62F31F23 		bfi	r3, r2, #8, #24
 10495 00d2 C7F8E830 		str	r3, [r7, #232]
 10496 00d6 D7F81431 		ldr	r3, [r7, #276]
 10497 00da 5B6A     		ldr	r3, [r3, #36]
 10498 00dc C7F8B830 		str	r3, [r7, #184]
 10499 00e0 D7F81431 		ldr	r3, [r7, #276]
 10500 00e4 1B6A     		ldr	r3, [r3, #32]
 10501 00e6 C7F8BC30 		str	r3, [r7, #188]
 10502 00ea D7F81431 		ldr	r3, [r7, #276]
 10503 00ee DB69     		ldr	r3, [r3, #28]
 10504 00f0 C7F8C030 		str	r3, [r7, #192]
 10505 00f4 D7F81431 		ldr	r3, [r7, #276]
 10506 00f8 9B69     		ldr	r3, [r3, #24]
 10507 00fa C7F8C430 		str	r3, [r7, #196]
 10508 00fe 07F1B803 		add	r3, r7, #184
 10509 0102 C7F8EC30 		str	r3, [r7, #236]
 10510 0106 07F58273 		add	r3, r7, #260
 10511 010a C7F8F030 		str	r3, [r7, #240]
ARM GAS  /tmp/ccEo7NLA.s 			page 215


1348:Lib/AI_Runtime/Npu/ll_aton/ll_sw_float.c ****                         SHAPE_INIT(sw_info->general.input.dim.tensor_h, sw_info->general.input.dim.
1349:Lib/AI_Runtime/Npu/ll_aton/ll_sw_float.c ****                                    sw_info->general.input.dim.tensor_c, sw_info->general.input.dim.
1350:Lib/AI_Runtime/Npu/ll_aton/ll_sw_float.c ****                         STRIDE_INIT(sw_info->general.input.stride.h, sw_info->general.input.stride.
1351:Lib/AI_Runtime/Npu/ll_aton/ll_sw_float.c ****                                     sw_info->general.input.stride.c, sw_info->general.input.stride.
1352:Lib/AI_Runtime/Npu/ll_aton/ll_sw_float.c ****                         1, &input_output_array, NULL)
1353:Lib/AI_Runtime/Npu/ll_aton/ll_sw_float.c ****   AI_TENSOR_OBJ_DECLARE(LRN_output, , 0x0, 4,
 10512              		.loc 1 1353 3
 10513 010e 0023     		movs	r3, #0
 10514 0110 C7F89C30 		str	r3, [r7, #156]
 10515 0114 0023     		movs	r3, #0
 10516 0116 A7F8A030 		strh	r3, [r7, #160]	@ movhi
 10517 011a 0423     		movs	r3, #4
 10518 011c 87F8A230 		strb	r3, [r7, #162]
 10519 0120 0123     		movs	r3, #1
 10520 0122 87F8A330 		strb	r3, [r7, #163]
 10521 0126 0123     		movs	r3, #1
 10522 0128 87F8A430 		strb	r3, [r7, #164]
 10523 012c D7F8A430 		ldr	r3, [r7, #164]
 10524 0130 0422     		movs	r2, #4
 10525 0132 62F31F23 		bfi	r3, r2, #8, #24
 10526 0136 C7F8A430 		str	r3, [r7, #164]
 10527 013a D7F81431 		ldr	r3, [r7, #276]
 10528 013e DB6B     		ldr	r3, [r3, #60]
 10529 0140 C7F88C30 		str	r3, [r7, #140]
 10530 0144 D7F81431 		ldr	r3, [r7, #276]
 10531 0148 9B6B     		ldr	r3, [r3, #56]
 10532 014a C7F89030 		str	r3, [r7, #144]
 10533 014e D7F81431 		ldr	r3, [r7, #276]
 10534 0152 5B6B     		ldr	r3, [r3, #52]
 10535 0154 C7F89430 		str	r3, [r7, #148]
 10536 0158 D7F81431 		ldr	r3, [r7, #276]
 10537 015c 1B6B     		ldr	r3, [r3, #48]
 10538 015e C7F89830 		str	r3, [r7, #152]
 10539 0162 07F18C03 		add	r3, r7, #140
 10540 0166 C7F8A830 		str	r3, [r7, #168]
 10541 016a 0223     		movs	r3, #2
 10542 016c 87F8AC30 		strb	r3, [r7, #172]
 10543 0170 D7F8AC30 		ldr	r3, [r7, #172]
 10544 0174 0422     		movs	r2, #4
 10545 0176 62F31F23 		bfi	r3, r2, #8, #24
 10546 017a C7F8AC30 		str	r3, [r7, #172]
 10547 017e D7F81431 		ldr	r3, [r7, #276]
 10548 0182 1B6D     		ldr	r3, [r3, #80]
 10549 0184 FB67     		str	r3, [r7, #124]
 10550 0186 D7F81431 		ldr	r3, [r7, #276]
 10551 018a DB6C     		ldr	r3, [r3, #76]
 10552 018c C7F88030 		str	r3, [r7, #128]
 10553 0190 D7F81431 		ldr	r3, [r7, #276]
 10554 0194 9B6C     		ldr	r3, [r3, #72]
 10555 0196 C7F88430 		str	r3, [r7, #132]
 10556 019a D7F81431 		ldr	r3, [r7, #276]
 10557 019e 5B6C     		ldr	r3, [r3, #68]
 10558 01a0 C7F88830 		str	r3, [r7, #136]
 10559 01a4 07F17C03 		add	r3, r7, #124
 10560 01a8 C7F8B030 		str	r3, [r7, #176]
 10561 01ac 07F1F403 		add	r3, r7, #244
 10562 01b0 C7F8B430 		str	r3, [r7, #180]
ARM GAS  /tmp/ccEo7NLA.s 			page 216


1354:Lib/AI_Runtime/Npu/ll_aton/ll_sw_float.c ****                         SHAPE_INIT(sw_info->general.output.dim.tensor_h, sw_info->general.output.di
1355:Lib/AI_Runtime/Npu/ll_aton/ll_sw_float.c ****                                    sw_info->general.output.dim.tensor_c, sw_info->general.output.di
1356:Lib/AI_Runtime/Npu/ll_aton/ll_sw_float.c ****                         STRIDE_INIT(sw_info->general.output.stride.h, sw_info->general.output.strid
1357:Lib/AI_Runtime/Npu/ll_aton/ll_sw_float.c ****                                     sw_info->general.output.stride.c, sw_info->general.output.strid
1358:Lib/AI_Runtime/Npu/ll_aton/ll_sw_float.c ****                         1, &LRN_output_array, NULL)
1359:Lib/AI_Runtime/Npu/ll_aton/ll_sw_float.c **** 
1360:Lib/AI_Runtime/Npu/ll_aton/ll_sw_float.c ****   // tensor chains init
1361:Lib/AI_Runtime/Npu/ll_aton/ll_sw_float.c ****   AI_TENSOR_CHAIN_OBJ_DECLARE(LRN_chain, , 4, AI_TENSOR_LIST_OBJ_INIT(AI_FLAG_NONE, 1, TENSORS(&inp
 10563              		.loc 1 1361 3
 10564 01b4 0423     		movs	r3, #4
 10565 01b6 A7F87430 		strh	r3, [r7, #116]	@ movhi
 10566 01ba 0023     		movs	r3, #0
 10567 01bc A7F87630 		strh	r3, [r7, #118]	@ movhi
 10568 01c0 0123     		movs	r3, #1
 10569 01c2 BB86     		strh	r3, [r7, #52]	@ movhi
 10570 01c4 0023     		movs	r3, #0
 10571 01c6 FB86     		strh	r3, [r7, #54]	@ movhi
 10572 01c8 07F1D803 		add	r3, r7, #216
 10573 01cc 3B67     		str	r3, [r7, #112]
 10574 01ce 07F17003 		add	r3, r7, #112
 10575 01d2 BB63     		str	r3, [r7, #56]
 10576 01d4 0023     		movs	r3, #0
 10577 01d6 FB63     		str	r3, [r7, #60]
 10578 01d8 0123     		movs	r3, #1
 10579 01da A7F84030 		strh	r3, [r7, #64]	@ movhi
 10580 01de 0023     		movs	r3, #0
 10581 01e0 A7F84230 		strh	r3, [r7, #66]	@ movhi
 10582 01e4 07F19C03 		add	r3, r7, #156
 10583 01e8 FB66     		str	r3, [r7, #108]
 10584 01ea 07F16C03 		add	r3, r7, #108
 10585 01ee 7B64     		str	r3, [r7, #68]
 10586 01f0 0023     		movs	r3, #0
 10587 01f2 BB64     		str	r3, [r7, #72]
 10588 01f4 0023     		movs	r3, #0
 10589 01f6 A7F84C30 		strh	r3, [r7, #76]	@ movhi
 10590 01fa 0023     		movs	r3, #0
 10591 01fc A7F84E30 		strh	r3, [r7, #78]	@ movhi
 10592 0200 0023     		movs	r3, #0
 10593 0202 BB66     		str	r3, [r7, #104]
 10594 0204 07F16803 		add	r3, r7, #104
 10595 0208 3B65     		str	r3, [r7, #80]
 10596 020a 0023     		movs	r3, #0
 10597 020c 7B65     		str	r3, [r7, #84]
 10598 020e 0023     		movs	r3, #0
 10599 0210 A7F85830 		strh	r3, [r7, #88]	@ movhi
 10600 0214 0023     		movs	r3, #0
 10601 0216 A7F85A30 		strh	r3, [r7, #90]	@ movhi
 10602 021a 0023     		movs	r3, #0
 10603 021c 7B66     		str	r3, [r7, #100]
 10604 021e 07F16403 		add	r3, r7, #100
 10605 0222 FB65     		str	r3, [r7, #92]
 10606 0224 0023     		movs	r3, #0
 10607 0226 3B66     		str	r3, [r7, #96]
 10608 0228 07F13403 		add	r3, r7, #52
 10609 022c BB67     		str	r3, [r7, #120]
1362:Lib/AI_Runtime/Npu/ll_aton/ll_sw_float.c ****                               AI_TENSOR_LIST_OBJ_INIT(AI_FLAG_NONE, 1, TENSORS(&LRN_output)), AI_TE
1363:Lib/AI_Runtime/Npu/ll_aton/ll_sw_float.c ****                               AI_TENSOR_LIST_OBJ_EMPTY)
ARM GAS  /tmp/ccEo7NLA.s 			page 217


1364:Lib/AI_Runtime/Npu/ll_aton/ll_sw_float.c ****   // TODO//layer initialization
1365:Lib/AI_Runtime/Npu/ll_aton/ll_sw_float.c ****   AI_LAYER_OBJ_DECLARE(LRN_layer, 2, LRN_TYPE, 0x0, NULL, lrn, forward_lrn, &LRN_chain, NULL, NULL,
 10610              		.loc 1 1365 3
 10611 022e 07F58C73 		add	r3, r7, #280
 10612 0232 A3F58873 		sub	r3, r3, #272
 10613 0236 4FF48372 		mov	r2, #262
 10614 023a 1A80     		strh	r2, [r3]	@ movhi
 10615 023c 07F58C73 		add	r3, r7, #280
 10616 0240 A3F58873 		sub	r3, r3, #272
 10617 0244 0222     		movs	r2, #2
 10618 0246 5A80     		strh	r2, [r3, #2]	@ movhi
 10619 0248 07F58C73 		add	r3, r7, #280
 10620 024c A3F58873 		sub	r3, r3, #272
 10621 0250 0022     		movs	r2, #0
 10622 0252 5A60     		str	r2, [r3, #4]
 10623 0254 07F58C73 		add	r3, r7, #280
 10624 0258 A3F58873 		sub	r3, r3, #272
 10625 025c 0022     		movs	r2, #0
 10626 025e 9A60     		str	r2, [r3, #8]
 10627 0260 07F58C73 		add	r3, r7, #280
 10628 0264 A3F58873 		sub	r3, r3, #272
 10629 0268 0022     		movs	r2, #0
 10630 026a DA60     		str	r2, [r3, #12]
 10631 026c 07F58C73 		add	r3, r7, #280
 10632 0270 A3F58873 		sub	r3, r3, #272
 10633 0274 0022     		movs	r2, #0
 10634 0276 1A61     		str	r2, [r3, #16]
 10635 0278 07F58C73 		add	r3, r7, #280
 10636 027c A3F58873 		sub	r3, r3, #272
 10637 0280 1C4A     		ldr	r2, .L213+4
 10638 0282 5A61     		str	r2, [r3, #20]
 10639 0284 07F58C73 		add	r3, r7, #280
 10640 0288 A3F58873 		sub	r3, r3, #272
 10641 028c 07F17402 		add	r2, r7, #116
 10642 0290 9A61     		str	r2, [r3, #24]
 10643 0292 D7F81431 		ldr	r3, [r7, #276]
 10644 0296 DA6D     		ldr	r2, [r3, #92]
 10645 0298 07F58C73 		add	r3, r7, #280
 10646 029c A3F58873 		sub	r3, r3, #272
 10647 02a0 DA61     		str	r2, [r3, #28]
 10648 02a2 D7F81431 		ldr	r3, [r7, #276]
 10649 02a6 9A6E     		ldr	r2, [r3, #104]	@ float
 10650 02a8 07F58C73 		add	r3, r7, #280
 10651 02ac A3F58873 		sub	r3, r3, #272
 10652 02b0 1A62     		str	r2, [r3, #32]	@ float
 10653 02b2 D7F81431 		ldr	r3, [r7, #276]
 10654 02b6 1A6E     		ldr	r2, [r3, #96]	@ float
 10655 02b8 07F58C73 		add	r3, r7, #280
 10656 02bc A3F58873 		sub	r3, r3, #272
 10657 02c0 5A62     		str	r2, [r3, #36]	@ float
 10658 02c2 D7F81431 		ldr	r3, [r7, #276]
 10659 02c6 5A6E     		ldr	r2, [r3, #100]	@ float
 10660 02c8 07F58C73 		add	r3, r7, #280
 10661 02cc A3F58873 		sub	r3, r3, #272
 10662 02d0 9A62     		str	r2, [r3, #40]	@ float
1366:Lib/AI_Runtime/Npu/ll_aton/ll_sw_float.c ****                        .local_size = sw_info->size, .k = sw_info->bias, .alpha = sw_info->alpha, .b
1367:Lib/AI_Runtime/Npu/ll_aton/ll_sw_float.c **** 
ARM GAS  /tmp/ccEo7NLA.s 			page 218


1368:Lib/AI_Runtime/Npu/ll_aton/ll_sw_float.c ****   // LL_ATON_PRINTF("beta %f \n", sw_info->beta);
1369:Lib/AI_Runtime/Npu/ll_aton/ll_sw_float.c ****   // LL_ATON_PRINTF("bias %f \n", sw_info->bias);
1370:Lib/AI_Runtime/Npu/ll_aton/ll_sw_float.c ****   // LL_ATON_PRINTF("alpha %f \n", sw_info->alpha);
1371:Lib/AI_Runtime/Npu/ll_aton/ll_sw_float.c ****   // LL_ATON_PRINTF("local_size %d \n", sw_info->size);
1372:Lib/AI_Runtime/Npu/ll_aton/ll_sw_float.c **** 
1373:Lib/AI_Runtime/Npu/ll_aton/ll_sw_float.c ****   LRN_layer.forward(AI_LAYER_OBJ(&LRN_layer));
 10663              		.loc 1 1373 12
 10664 02d2 07F58C73 		add	r3, r7, #280
 10665 02d6 A3F58873 		sub	r3, r3, #272
 10666 02da 5B69     		ldr	r3, [r3, #20]
 10667              		.loc 1 1373 3
 10668 02dc 07F10802 		add	r2, r7, #8
 10669 02e0 1046     		mov	r0, r2
 10670 02e2 9847     		blx	r3
 10671              	.LVL55:
1374:Lib/AI_Runtime/Npu/ll_aton/ll_sw_float.c **** }
 10672              		.loc 1 1374 1
 10673 02e4 00BF     		nop
 10674 02e6 07F58C77 		add	r7, r7, #280
 10675              		.cfi_def_cfa_offset 8
 10676 02ea BD46     		mov	sp, r7
 10677              		.cfi_def_cfa_register 13
 10678              		@ sp needed
 10679 02ec 80BD     		pop	{r7, pc}
 10680              	.L214:
 10681 02ee 00BF     		.align	2
 10682              	.L213:
 10683 02f0 40108200 		.word	8523840
 10684 02f4 00000000 		.word	forward_lrn
 10685              		.cfi_endproc
 10686              	.LFE32:
 10688              		.section	.text.ll_sw_forward_tile,"ax",%progbits
 10689              		.align	1
 10690              		.global	ll_sw_forward_tile
 10691              		.syntax unified
 10692              		.thumb
 10693              		.thumb_func
 10695              	ll_sw_forward_tile:
 10696              	.LFB33:
1375:Lib/AI_Runtime/Npu/ll_aton/ll_sw_float.c **** 
1376:Lib/AI_Runtime/Npu/ll_aton/ll_sw_float.c **** //##########################################################################################
1377:Lib/AI_Runtime/Npu/ll_aton/ll_sw_float.c **** /** Tile forward function  */
1378:Lib/AI_Runtime/Npu/ll_aton/ll_sw_float.c **** void ll_sw_forward_tile(/* int processor, */ void *sw_info_struct)
1379:Lib/AI_Runtime/Npu/ll_aton/ll_sw_float.c **** {
 10697              		.loc 1 1379 1
 10698              		.cfi_startproc
 10699              		@ args = 0, pretend = 0, frame = 296
 10700              		@ frame_needed = 1, uses_anonymous_args = 0
 10701 0000 80B5     		push	{r7, lr}
 10702              		.cfi_def_cfa_offset 8
 10703              		.cfi_offset 7, -8
 10704              		.cfi_offset 14, -4
 10705 0002 CAB0     		sub	sp, sp, #296
 10706              		.cfi_def_cfa_offset 304
 10707 0004 00AF     		add	r7, sp, #0
 10708              		.cfi_def_cfa_register 7
 10709 0006 07F59473 		add	r3, r7, #296
ARM GAS  /tmp/ccEo7NLA.s 			page 219


 10710 000a A3F59273 		sub	r3, r3, #292
 10711 000e 1860     		str	r0, [r3]
1380:Lib/AI_Runtime/Npu/ll_aton/ll_sw_float.c ****   Tile_sw_info *sw_info = (Tile_sw_info *)sw_info_struct;
 10712              		.loc 1 1380 17
 10713 0010 07F59473 		add	r3, r7, #296
 10714 0014 A3F59273 		sub	r3, r3, #292
 10715 0018 1B68     		ldr	r3, [r3]
 10716 001a C7F82431 		str	r3, [r7, #292]
1381:Lib/AI_Runtime/Npu/ll_aton/ll_sw_float.c **** 
1382:Lib/AI_Runtime/Npu/ll_aton/ll_sw_float.c ****   AI_ARRAY_OBJ_DECLARE(input_output_array, FORMAT, sw_info->general.input.mem.start_offset,
 10717              		.loc 1 1382 3
 10718 001e C34B     		ldr	r3, .L216
 10719 0020 C7F81431 		str	r3, [r7, #276]
 10720 0024 D7F82431 		ldr	r3, [r7, #292]
 10721 0028 5B69     		ldr	r3, [r3, #20]
 10722 002a C7F81831 		str	r3, [r7, #280]
 10723 002e D7F82431 		ldr	r3, [r7, #292]
 10724 0032 9B6A     		ldr	r3, [r3, #40]
 10725 0034 C7F81C31 		str	r3, [r7, #284]
 10726 0038 D7F82431 		ldr	r3, [r7, #292]
 10727 003c 9B6A     		ldr	r3, [r3, #40]
 10728 003e C7F82031 		str	r3, [r7, #288]
1383:Lib/AI_Runtime/Npu/ll_aton/ll_sw_float.c ****                        sw_info->general.input.mem.start_offset, sw_info->general.input.dim.num_elem
1384:Lib/AI_Runtime/Npu/ll_aton/ll_sw_float.c ****   AI_ARRAY_OBJ_DECLARE(tile_output_array, FORMAT, sw_info->general.output.mem.start_offset,
 10729              		.loc 1 1384 3
 10730 0042 BA4B     		ldr	r3, .L216
 10731 0044 C7F80431 		str	r3, [r7, #260]
 10732 0048 D7F82431 		ldr	r3, [r7, #292]
 10733 004c 1B6C     		ldr	r3, [r3, #64]
 10734 004e C7F80831 		str	r3, [r7, #264]
 10735 0052 D7F82431 		ldr	r3, [r7, #292]
 10736 0056 5B6D     		ldr	r3, [r3, #84]
 10737 0058 C7F80C31 		str	r3, [r7, #268]
 10738 005c D7F82431 		ldr	r3, [r7, #292]
 10739 0060 5B6D     		ldr	r3, [r3, #84]
 10740 0062 C7F81031 		str	r3, [r7, #272]
1385:Lib/AI_Runtime/Npu/ll_aton/ll_sw_float.c ****                        sw_info->general.output.mem.start_offset, sw_info->general.output.dim.num_el
1386:Lib/AI_Runtime/Npu/ll_aton/ll_sw_float.c **** 
1387:Lib/AI_Runtime/Npu/ll_aton/ll_sw_float.c ****   // tensors init
1388:Lib/AI_Runtime/Npu/ll_aton/ll_sw_float.c ****   AI_TENSOR_OBJ_DECLARE(input_output, , 0x0, 4,
 10741              		.loc 1 1388 3
 10742 0066 0023     		movs	r3, #0
 10743 0068 C7F8E830 		str	r3, [r7, #232]
 10744 006c 0023     		movs	r3, #0
 10745 006e A7F8EC30 		strh	r3, [r7, #236]	@ movhi
 10746 0072 0423     		movs	r3, #4
 10747 0074 87F8EE30 		strb	r3, [r7, #238]
 10748 0078 0123     		movs	r3, #1
 10749 007a 87F8EF30 		strb	r3, [r7, #239]
 10750 007e 0123     		movs	r3, #1
 10751 0080 87F8F030 		strb	r3, [r7, #240]
 10752 0084 D7F8F030 		ldr	r3, [r7, #240]
 10753 0088 0422     		movs	r2, #4
 10754 008a 62F31F23 		bfi	r3, r2, #8, #24
 10755 008e C7F8F030 		str	r3, [r7, #240]
 10756 0092 D7F82431 		ldr	r3, [r7, #292]
 10757 0096 1B69     		ldr	r3, [r3, #16]
ARM GAS  /tmp/ccEo7NLA.s 			page 220


 10758 0098 C7F8D830 		str	r3, [r7, #216]
 10759 009c D7F82431 		ldr	r3, [r7, #292]
 10760 00a0 DB68     		ldr	r3, [r3, #12]
 10761 00a2 C7F8DC30 		str	r3, [r7, #220]
 10762 00a6 D7F82431 		ldr	r3, [r7, #292]
 10763 00aa 9B68     		ldr	r3, [r3, #8]
 10764 00ac C7F8E030 		str	r3, [r7, #224]
 10765 00b0 D7F82431 		ldr	r3, [r7, #292]
 10766 00b4 5B68     		ldr	r3, [r3, #4]
 10767 00b6 C7F8E430 		str	r3, [r7, #228]
 10768 00ba 07F1D803 		add	r3, r7, #216
 10769 00be C7F8F430 		str	r3, [r7, #244]
 10770 00c2 0223     		movs	r3, #2
 10771 00c4 87F8F830 		strb	r3, [r7, #248]
 10772 00c8 D7F8F830 		ldr	r3, [r7, #248]
 10773 00cc 0422     		movs	r2, #4
 10774 00ce 62F31F23 		bfi	r3, r2, #8, #24
 10775 00d2 C7F8F830 		str	r3, [r7, #248]
 10776 00d6 D7F82431 		ldr	r3, [r7, #292]
 10777 00da 5B6A     		ldr	r3, [r3, #36]
 10778 00dc C7F8C830 		str	r3, [r7, #200]
 10779 00e0 D7F82431 		ldr	r3, [r7, #292]
 10780 00e4 1B6A     		ldr	r3, [r3, #32]
 10781 00e6 C7F8CC30 		str	r3, [r7, #204]
 10782 00ea D7F82431 		ldr	r3, [r7, #292]
 10783 00ee DB69     		ldr	r3, [r3, #28]
 10784 00f0 C7F8D030 		str	r3, [r7, #208]
 10785 00f4 D7F82431 		ldr	r3, [r7, #292]
 10786 00f8 9B69     		ldr	r3, [r3, #24]
 10787 00fa C7F8D430 		str	r3, [r7, #212]
 10788 00fe 07F1C803 		add	r3, r7, #200
 10789 0102 C7F8FC30 		str	r3, [r7, #252]
 10790 0106 07F58A73 		add	r3, r7, #276
 10791 010a C7F80031 		str	r3, [r7, #256]
1389:Lib/AI_Runtime/Npu/ll_aton/ll_sw_float.c ****                         SHAPE_INIT(sw_info->general.input.dim.tensor_h, sw_info->general.input.dim.
1390:Lib/AI_Runtime/Npu/ll_aton/ll_sw_float.c ****                                    sw_info->general.input.dim.tensor_c, sw_info->general.input.dim.
1391:Lib/AI_Runtime/Npu/ll_aton/ll_sw_float.c ****                         STRIDE_INIT(sw_info->general.input.stride.h, sw_info->general.input.stride.
1392:Lib/AI_Runtime/Npu/ll_aton/ll_sw_float.c ****                                     sw_info->general.input.stride.c, sw_info->general.input.stride.
1393:Lib/AI_Runtime/Npu/ll_aton/ll_sw_float.c ****                         1, &input_output_array, NULL)
1394:Lib/AI_Runtime/Npu/ll_aton/ll_sw_float.c ****   AI_TENSOR_OBJ_DECLARE(tile_output, , 0x0, 4,
 10792              		.loc 1 1394 3
 10793 010e 0023     		movs	r3, #0
 10794 0110 C7F8AC30 		str	r3, [r7, #172]
 10795 0114 0023     		movs	r3, #0
 10796 0116 A7F8B030 		strh	r3, [r7, #176]	@ movhi
 10797 011a 0423     		movs	r3, #4
 10798 011c 87F8B230 		strb	r3, [r7, #178]
 10799 0120 0123     		movs	r3, #1
 10800 0122 87F8B330 		strb	r3, [r7, #179]
 10801 0126 0123     		movs	r3, #1
 10802 0128 87F8B430 		strb	r3, [r7, #180]
 10803 012c D7F8B430 		ldr	r3, [r7, #180]
 10804 0130 0422     		movs	r2, #4
 10805 0132 62F31F23 		bfi	r3, r2, #8, #24
 10806 0136 C7F8B430 		str	r3, [r7, #180]
 10807 013a D7F82431 		ldr	r3, [r7, #292]
 10808 013e DB6B     		ldr	r3, [r3, #60]
ARM GAS  /tmp/ccEo7NLA.s 			page 221


 10809 0140 C7F89C30 		str	r3, [r7, #156]
 10810 0144 D7F82431 		ldr	r3, [r7, #292]
 10811 0148 9B6B     		ldr	r3, [r3, #56]
 10812 014a C7F8A030 		str	r3, [r7, #160]
 10813 014e D7F82431 		ldr	r3, [r7, #292]
 10814 0152 5B6B     		ldr	r3, [r3, #52]
 10815 0154 C7F8A430 		str	r3, [r7, #164]
 10816 0158 D7F82431 		ldr	r3, [r7, #292]
 10817 015c 1B6B     		ldr	r3, [r3, #48]
 10818 015e C7F8A830 		str	r3, [r7, #168]
 10819 0162 07F19C03 		add	r3, r7, #156
 10820 0166 C7F8B830 		str	r3, [r7, #184]
 10821 016a 0223     		movs	r3, #2
 10822 016c 87F8BC30 		strb	r3, [r7, #188]
 10823 0170 D7F8BC30 		ldr	r3, [r7, #188]
 10824 0174 0422     		movs	r2, #4
 10825 0176 62F31F23 		bfi	r3, r2, #8, #24
 10826 017a C7F8BC30 		str	r3, [r7, #188]
 10827 017e D7F82431 		ldr	r3, [r7, #292]
 10828 0182 1B6D     		ldr	r3, [r3, #80]
 10829 0184 C7F88C30 		str	r3, [r7, #140]
 10830 0188 D7F82431 		ldr	r3, [r7, #292]
 10831 018c DB6C     		ldr	r3, [r3, #76]
 10832 018e C7F89030 		str	r3, [r7, #144]
 10833 0192 D7F82431 		ldr	r3, [r7, #292]
 10834 0196 9B6C     		ldr	r3, [r3, #72]
 10835 0198 C7F89430 		str	r3, [r7, #148]
 10836 019c D7F82431 		ldr	r3, [r7, #292]
 10837 01a0 5B6C     		ldr	r3, [r3, #68]
 10838 01a2 C7F89830 		str	r3, [r7, #152]
 10839 01a6 07F18C03 		add	r3, r7, #140
 10840 01aa C7F8C030 		str	r3, [r7, #192]
 10841 01ae 07F58273 		add	r3, r7, #260
 10842 01b2 C7F8C430 		str	r3, [r7, #196]
1395:Lib/AI_Runtime/Npu/ll_aton/ll_sw_float.c ****                         SHAPE_INIT(sw_info->general.output.dim.tensor_h, sw_info->general.output.di
1396:Lib/AI_Runtime/Npu/ll_aton/ll_sw_float.c ****                                    sw_info->general.output.dim.tensor_c, sw_info->general.output.di
1397:Lib/AI_Runtime/Npu/ll_aton/ll_sw_float.c ****                         STRIDE_INIT(sw_info->general.output.stride.h, sw_info->general.output.strid
1398:Lib/AI_Runtime/Npu/ll_aton/ll_sw_float.c ****                                     sw_info->general.output.stride.c, sw_info->general.output.strid
1399:Lib/AI_Runtime/Npu/ll_aton/ll_sw_float.c ****                         1, &tile_output_array, NULL)
1400:Lib/AI_Runtime/Npu/ll_aton/ll_sw_float.c **** 
1401:Lib/AI_Runtime/Npu/ll_aton/ll_sw_float.c ****   // tensor chains init
1402:Lib/AI_Runtime/Npu/ll_aton/ll_sw_float.c ****   AI_TENSOR_CHAIN_OBJ_DECLARE(tile_chain, , 4, AI_TENSOR_LIST_OBJ_INIT(AI_FLAG_NONE, 1, TENSORS(&in
 10843              		.loc 1 1402 3
 10844 01b6 0423     		movs	r3, #4
 10845 01b8 A7F88430 		strh	r3, [r7, #132]	@ movhi
 10846 01bc 0023     		movs	r3, #0
 10847 01be A7F88630 		strh	r3, [r7, #134]	@ movhi
 10848 01c2 0123     		movs	r3, #1
 10849 01c4 A7F84430 		strh	r3, [r7, #68]	@ movhi
 10850 01c8 0023     		movs	r3, #0
 10851 01ca A7F84630 		strh	r3, [r7, #70]	@ movhi
 10852 01ce 07F1E803 		add	r3, r7, #232
 10853 01d2 C7F88030 		str	r3, [r7, #128]
 10854 01d6 07F18003 		add	r3, r7, #128
 10855 01da BB64     		str	r3, [r7, #72]
 10856 01dc 0023     		movs	r3, #0
 10857 01de FB64     		str	r3, [r7, #76]
ARM GAS  /tmp/ccEo7NLA.s 			page 222


 10858 01e0 0123     		movs	r3, #1
 10859 01e2 A7F85030 		strh	r3, [r7, #80]	@ movhi
 10860 01e6 0023     		movs	r3, #0
 10861 01e8 A7F85230 		strh	r3, [r7, #82]	@ movhi
 10862 01ec 07F1AC03 		add	r3, r7, #172
 10863 01f0 FB67     		str	r3, [r7, #124]
 10864 01f2 07F17C03 		add	r3, r7, #124
 10865 01f6 7B65     		str	r3, [r7, #84]
 10866 01f8 0023     		movs	r3, #0
 10867 01fa BB65     		str	r3, [r7, #88]
 10868 01fc 0023     		movs	r3, #0
 10869 01fe A7F85C30 		strh	r3, [r7, #92]	@ movhi
 10870 0202 0023     		movs	r3, #0
 10871 0204 A7F85E30 		strh	r3, [r7, #94]	@ movhi
 10872 0208 0023     		movs	r3, #0
 10873 020a BB67     		str	r3, [r7, #120]
 10874 020c 07F17803 		add	r3, r7, #120
 10875 0210 3B66     		str	r3, [r7, #96]
 10876 0212 0023     		movs	r3, #0
 10877 0214 7B66     		str	r3, [r7, #100]
 10878 0216 0023     		movs	r3, #0
 10879 0218 A7F86830 		strh	r3, [r7, #104]	@ movhi
 10880 021c 0023     		movs	r3, #0
 10881 021e A7F86A30 		strh	r3, [r7, #106]	@ movhi
 10882 0222 0023     		movs	r3, #0
 10883 0224 7B67     		str	r3, [r7, #116]
 10884 0226 07F17403 		add	r3, r7, #116
 10885 022a FB66     		str	r3, [r7, #108]
 10886 022c 0023     		movs	r3, #0
 10887 022e 3B67     		str	r3, [r7, #112]
 10888 0230 07F14403 		add	r3, r7, #68
 10889 0234 C7F88830 		str	r3, [r7, #136]
1403:Lib/AI_Runtime/Npu/ll_aton/ll_sw_float.c ****                               AI_TENSOR_LIST_OBJ_INIT(AI_FLAG_NONE, 1, TENSORS(&tile_output)), AI_T
1404:Lib/AI_Runtime/Npu/ll_aton/ll_sw_float.c ****                               AI_TENSOR_LIST_OBJ_EMPTY)
1405:Lib/AI_Runtime/Npu/ll_aton/ll_sw_float.c **** 
1406:Lib/AI_Runtime/Npu/ll_aton/ll_sw_float.c ****   AI_ARRAY_OBJ_DECLARE_STATIC(repeats, ai_i16, AI_ARRAY_FORMAT_S16, AI_CONST, 5, sw_info->repeats[2
 10890              		.loc 1 1406 3
 10891 0238 3D4B     		ldr	r3, .L216+4
 10892 023a 7B63     		str	r3, [r7, #52]
 10893 023c 0523     		movs	r3, #5
 10894 023e BB63     		str	r3, [r7, #56]
 10895 0240 D7F82431 		ldr	r3, [r7, #292]
 10896 0244 B3F96020 		ldrsh	r2, [r3, #96]
 10897 0248 07F59473 		add	r3, r7, #296
 10898 024c A3F58073 		sub	r3, r3, #256
 10899 0250 1A80     		strh	r2, [r3]	@ movhi
 10900 0252 D7F82431 		ldr	r3, [r7, #292]
 10901 0256 B3F96220 		ldrsh	r2, [r3, #98]
 10902 025a 07F59473 		add	r3, r7, #296
 10903 025e A3F58073 		sub	r3, r3, #256
 10904 0262 5A80     		strh	r2, [r3, #2]	@ movhi
 10905 0264 D7F82431 		ldr	r3, [r7, #292]
 10906 0268 B3F95E20 		ldrsh	r2, [r3, #94]
 10907 026c 07F59473 		add	r3, r7, #296
 10908 0270 A3F58073 		sub	r3, r3, #256
 10909 0274 9A80     		strh	r2, [r3, #4]	@ movhi
 10910 0276 D7F82431 		ldr	r3, [r7, #292]
ARM GAS  /tmp/ccEo7NLA.s 			page 223


 10911 027a B3F95C20 		ldrsh	r2, [r3, #92]
 10912 027e 07F59473 		add	r3, r7, #296
 10913 0282 A3F58073 		sub	r3, r3, #256
 10914 0286 DA80     		strh	r2, [r3, #6]	@ movhi
 10915 0288 07F59473 		add	r3, r7, #296
 10916 028c A3F58073 		sub	r3, r3, #256
 10917 0290 0122     		movs	r2, #1
 10918 0292 1A81     		strh	r2, [r3, #8]	@ movhi
 10919 0294 07F12803 		add	r3, r7, #40
 10920 0298 FB63     		str	r3, [r7, #60]
 10921 029a 0023     		movs	r3, #0
 10922 029c 3B64     		str	r3, [r7, #64]
1407:Lib/AI_Runtime/Npu/ll_aton/ll_sw_float.c ****                               sw_info->repeats[3], sw_info->repeats[1], sw_info->repeats[0], 1)
1408:Lib/AI_Runtime/Npu/ll_aton/ll_sw_float.c **** 
1409:Lib/AI_Runtime/Npu/ll_aton/ll_sw_float.c ****   // TODO//layer initialization
1410:Lib/AI_Runtime/Npu/ll_aton/ll_sw_float.c ****   AI_LAYER_OBJ_DECLARE(Tile_layer, 2, TILE_TYPE, 0x0, NULL, tile, forward_tile, &tile_chain, NULL, 
 10923              		.loc 1 1410 3
 10924 029e 07F59473 		add	r3, r7, #296
 10925 02a2 A3F59073 		sub	r3, r3, #288
 10926 02a6 4FF48C72 		mov	r2, #280
 10927 02aa 1A80     		strh	r2, [r3]	@ movhi
 10928 02ac 07F59473 		add	r3, r7, #296
 10929 02b0 A3F59073 		sub	r3, r3, #288
 10930 02b4 0222     		movs	r2, #2
 10931 02b6 5A80     		strh	r2, [r3, #2]	@ movhi
 10932 02b8 07F59473 		add	r3, r7, #296
 10933 02bc A3F59073 		sub	r3, r3, #288
 10934 02c0 0022     		movs	r2, #0
 10935 02c2 5A60     		str	r2, [r3, #4]
 10936 02c4 07F59473 		add	r3, r7, #296
 10937 02c8 A3F59073 		sub	r3, r3, #288
 10938 02cc 0022     		movs	r2, #0
 10939 02ce 9A60     		str	r2, [r3, #8]
 10940 02d0 07F59473 		add	r3, r7, #296
 10941 02d4 A3F59073 		sub	r3, r3, #288
 10942 02d8 0022     		movs	r2, #0
 10943 02da DA60     		str	r2, [r3, #12]
 10944 02dc 07F59473 		add	r3, r7, #296
 10945 02e0 A3F59073 		sub	r3, r3, #288
 10946 02e4 0022     		movs	r2, #0
 10947 02e6 1A61     		str	r2, [r3, #16]
 10948 02e8 07F59473 		add	r3, r7, #296
 10949 02ec A3F59073 		sub	r3, r3, #288
 10950 02f0 104A     		ldr	r2, .L216+8
 10951 02f2 5A61     		str	r2, [r3, #20]
 10952 02f4 07F59473 		add	r3, r7, #296
 10953 02f8 A3F59073 		sub	r3, r3, #288
 10954 02fc 07F18402 		add	r2, r7, #132
 10955 0300 9A61     		str	r2, [r3, #24]
 10956 0302 07F59473 		add	r3, r7, #296
 10957 0306 A3F59073 		sub	r3, r3, #288
 10958 030a 07F13402 		add	r2, r7, #52
 10959 030e DA61     		str	r2, [r3, #28]
1411:Lib/AI_Runtime/Npu/ll_aton/ll_sw_float.c ****                        .repeats = AI_ARRAY_OBJ(&repeats))
1412:Lib/AI_Runtime/Npu/ll_aton/ll_sw_float.c **** 
1413:Lib/AI_Runtime/Npu/ll_aton/ll_sw_float.c ****   Tile_layer.forward(AI_LAYER_OBJ(&Tile_layer));
 10960              		.loc 1 1413 13
ARM GAS  /tmp/ccEo7NLA.s 			page 224


 10961 0310 07F59473 		add	r3, r7, #296
 10962 0314 A3F59073 		sub	r3, r3, #288
 10963 0318 5B69     		ldr	r3, [r3, #20]
 10964              		.loc 1 1413 3
 10965 031a 07F10802 		add	r2, r7, #8
 10966 031e 1046     		mov	r0, r2
 10967 0320 9847     		blx	r3
 10968              	.LVL56:
1414:Lib/AI_Runtime/Npu/ll_aton/ll_sw_float.c **** }
 10969              		.loc 1 1414 1
 10970 0322 00BF     		nop
 10971 0324 07F59477 		add	r7, r7, #296
 10972              		.cfi_def_cfa_offset 8
 10973 0328 BD46     		mov	sp, r7
 10974              		.cfi_def_cfa_register 13
 10975              		@ sp needed
 10976 032a 80BD     		pop	{r7, pc}
 10977              	.L217:
 10978              		.align	2
 10979              	.L216:
 10980 032c 40108200 		.word	8523840
 10981 0330 40088400 		.word	8652864
 10982 0334 00000000 		.word	forward_tile
 10983              		.cfi_endproc
 10984              	.LFE33:
 10986              		.section	.text.ll_sw_forward_concat,"ax",%progbits
 10987              		.align	1
 10988              		.global	ll_sw_forward_concat
 10989              		.syntax unified
 10990              		.thumb
 10991              		.thumb_func
 10993              	ll_sw_forward_concat:
 10994              	.LFB34:
1415:Lib/AI_Runtime/Npu/ll_aton/ll_sw_float.c **** 
1416:Lib/AI_Runtime/Npu/ll_aton/ll_sw_float.c **** //##########################################################################################
1417:Lib/AI_Runtime/Npu/ll_aton/ll_sw_float.c **** /** concat forward function  */
1418:Lib/AI_Runtime/Npu/ll_aton/ll_sw_float.c **** void ll_sw_forward_concat(/* int processor, */ void *sw_info_struct)
1419:Lib/AI_Runtime/Npu/ll_aton/ll_sw_float.c **** {
 10995              		.loc 1 1419 1
 10996              		.cfi_startproc
 10997              		@ args = 0, pretend = 0, frame = 616
 10998              		@ frame_needed = 1, uses_anonymous_args = 0
 10999 0000 80B5     		push	{r7, lr}
 11000              		.cfi_def_cfa_offset 8
 11001              		.cfi_offset 7, -8
 11002              		.cfi_offset 14, -4
 11003 0002 ADF51A7D 		sub	sp, sp, #616
 11004              		.cfi_def_cfa_offset 624
 11005 0006 00AF     		add	r7, sp, #0
 11006              		.cfi_def_cfa_register 7
 11007 0008 07F51A73 		add	r3, r7, #616
 11008 000c A3F51973 		sub	r3, r3, #612
 11009 0010 1860     		str	r0, [r3]
1420:Lib/AI_Runtime/Npu/ll_aton/ll_sw_float.c ****   Concat_sw_info *sw_info = (Concat_sw_info *)sw_info_struct;
 11010              		.loc 1 1420 19
 11011 0012 07F51A73 		add	r3, r7, #616
 11012 0016 A3F51973 		sub	r3, r3, #612
ARM GAS  /tmp/ccEo7NLA.s 			page 225


 11013 001a 1B68     		ldr	r3, [r3]
 11014 001c C7F85432 		str	r3, [r7, #596]
1421:Lib/AI_Runtime/Npu/ll_aton/ll_sw_float.c **** 
1422:Lib/AI_Runtime/Npu/ll_aton/ll_sw_float.c ****   AI_ARRAY_OBJ_DECLARE(input_output_array, FORMAT, sw_info->general.input.mem.start_offset,
 11015              		.loc 1 1422 3
 11016 0020 3D4B     		ldr	r3, .L223
 11017 0022 C7F84432 		str	r3, [r7, #580]
 11018 0026 D7F85432 		ldr	r3, [r7, #596]
 11019 002a 5B69     		ldr	r3, [r3, #20]
 11020 002c C7F84832 		str	r3, [r7, #584]
 11021 0030 D7F85432 		ldr	r3, [r7, #596]
 11022 0034 9B6A     		ldr	r3, [r3, #40]
 11023 0036 C7F84C32 		str	r3, [r7, #588]
 11024 003a D7F85432 		ldr	r3, [r7, #596]
 11025 003e 9B6A     		ldr	r3, [r3, #40]
 11026 0040 C7F85032 		str	r3, [r7, #592]
1423:Lib/AI_Runtime/Npu/ll_aton/ll_sw_float.c ****                        sw_info->general.input.mem.start_offset, sw_info->general.input.dim.num_elem
1424:Lib/AI_Runtime/Npu/ll_aton/ll_sw_float.c ****   AI_ARRAY_OBJ_DECLARE(concat_output_array, FORMAT, sw_info->general.output.mem.start_offset,
 11027              		.loc 1 1424 3
 11028 0044 344B     		ldr	r3, .L223
 11029 0046 C7F83432 		str	r3, [r7, #564]
 11030 004a D7F85432 		ldr	r3, [r7, #596]
 11031 004e 1B6C     		ldr	r3, [r3, #64]
 11032 0050 C7F83832 		str	r3, [r7, #568]
 11033 0054 D7F85432 		ldr	r3, [r7, #596]
 11034 0058 5B6D     		ldr	r3, [r3, #84]
 11035 005a C7F83C32 		str	r3, [r7, #572]
 11036 005e D7F85432 		ldr	r3, [r7, #596]
 11037 0062 5B6D     		ldr	r3, [r3, #84]
 11038 0064 C7F84032 		str	r3, [r7, #576]
1425:Lib/AI_Runtime/Npu/ll_aton/ll_sw_float.c ****                        sw_info->general.output.mem.start_offset, sw_info->general.output.dim.num_el
1426:Lib/AI_Runtime/Npu/ll_aton/ll_sw_float.c **** 
1427:Lib/AI_Runtime/Npu/ll_aton/ll_sw_float.c ****   AI_ARRAY_OBJ_DECLARE(concat_operand_array, FORMAT, sw_info->operand.mem.start_offset,
 11039              		.loc 1 1427 3
 11040 0068 2B4B     		ldr	r3, .L223
 11041 006a C7F82432 		str	r3, [r7, #548]
 11042 006e D7F85432 		ldr	r3, [r7, #596]
 11043 0072 5B6F     		ldr	r3, [r3, #116]
 11044 0074 C7F82832 		str	r3, [r7, #552]
 11045 0078 D7F85432 		ldr	r3, [r7, #596]
 11046 007c D3F88830 		ldr	r3, [r3, #136]
 11047 0080 C7F82C32 		str	r3, [r7, #556]
 11048 0084 D7F85432 		ldr	r3, [r7, #596]
 11049 0088 D3F88830 		ldr	r3, [r3, #136]
 11050 008c C7F83032 		str	r3, [r7, #560]
1428:Lib/AI_Runtime/Npu/ll_aton/ll_sw_float.c ****                        sw_info->operand.mem.start_offset, sw_info->operand.dim.num_elem, )
1429:Lib/AI_Runtime/Npu/ll_aton/ll_sw_float.c **** 
1430:Lib/AI_Runtime/Npu/ll_aton/ll_sw_float.c ****   ai_array concat_operand_array1;
1431:Lib/AI_Runtime/Npu/ll_aton/ll_sw_float.c ****   ai_array *concat_operand_array1_ptr = NULL;
 11051              		.loc 1 1431 13
 11052 0090 0023     		movs	r3, #0
 11053 0092 C7F86432 		str	r3, [r7, #612]
1432:Lib/AI_Runtime/Npu/ll_aton/ll_sw_float.c ****   if (sw_info->num_of_inputs >= 3)
 11054              		.loc 1 1432 14
 11055 0096 D7F85432 		ldr	r3, [r7, #596]
 11056 009a 1B6E     		ldr	r3, [r3, #96]
 11057              		.loc 1 1432 6
ARM GAS  /tmp/ccEo7NLA.s 			page 226


 11058 009c 022B     		cmp	r3, #2
 11059 009e 18D9     		bls	.L219
 11060              	.LBB49:
1433:Lib/AI_Runtime/Npu/ll_aton/ll_sw_float.c ****   {
1434:Lib/AI_Runtime/Npu/ll_aton/ll_sw_float.c ****     concat_operand_array1 = (ai_array)AI_ARRAY_OBJ_INIT(
 11061              		.loc 1 1434 39
 11062 00a0 D7F85432 		ldr	r3, [r7, #596]
 11063 00a4 D3F8A010 		ldr	r1, [r3, #160]
 11064 00a8 D7F85432 		ldr	r3, [r7, #596]
 11065 00ac D3F8B420 		ldr	r2, [r3, #180]
 11066 00b0 D7F85432 		ldr	r3, [r7, #596]
 11067 00b4 D3F8B430 		ldr	r3, [r3, #180]
 11068              		.loc 1 1434 27
 11069 00b8 1748     		ldr	r0, .L223
 11070 00ba C7F81402 		str	r0, [r7, #532]
 11071 00be C7F81812 		str	r1, [r7, #536]
 11072 00c2 C7F81C22 		str	r2, [r7, #540]
 11073 00c6 C7F82032 		str	r3, [r7, #544]
1435:Lib/AI_Runtime/Npu/ll_aton/ll_sw_float.c ****         FORMAT, sw_info->operand1.mem.start_offset, sw_info->operand1.mem.start_offset, sw_info->op
1436:Lib/AI_Runtime/Npu/ll_aton/ll_sw_float.c ****     concat_operand_array1_ptr = &concat_operand_array1;
 11074              		.loc 1 1436 31
 11075 00ca 07F50573 		add	r3, r7, #532
 11076 00ce C7F86432 		str	r3, [r7, #612]
 11077              	.L219:
 11078              	.LBE49:
1437:Lib/AI_Runtime/Npu/ll_aton/ll_sw_float.c ****   }
1438:Lib/AI_Runtime/Npu/ll_aton/ll_sw_float.c **** 
1439:Lib/AI_Runtime/Npu/ll_aton/ll_sw_float.c ****   ai_array concat_operand_array2;
1440:Lib/AI_Runtime/Npu/ll_aton/ll_sw_float.c ****   ai_array *concat_operand_array2_ptr = NULL;
 11079              		.loc 1 1440 13
 11080 00d2 0023     		movs	r3, #0
 11081 00d4 C7F86032 		str	r3, [r7, #608]
1441:Lib/AI_Runtime/Npu/ll_aton/ll_sw_float.c ****   if (sw_info->num_of_inputs >= 4)
 11082              		.loc 1 1441 14
 11083 00d8 D7F85432 		ldr	r3, [r7, #596]
 11084 00dc 1B6E     		ldr	r3, [r3, #96]
 11085              		.loc 1 1441 6
 11086 00de 032B     		cmp	r3, #3
 11087 00e0 1CD9     		bls	.L220
 11088              	.LBB50:
1442:Lib/AI_Runtime/Npu/ll_aton/ll_sw_float.c ****   {
1443:Lib/AI_Runtime/Npu/ll_aton/ll_sw_float.c ****     concat_operand_array2 = (ai_array)AI_ARRAY_OBJ_INIT(
 11089              		.loc 1 1443 39
 11090 00e2 D7F85432 		ldr	r3, [r7, #596]
 11091 00e6 D3F8CC10 		ldr	r1, [r3, #204]
 11092 00ea D7F85432 		ldr	r3, [r7, #596]
 11093 00ee D3F8E020 		ldr	r2, [r3, #224]
 11094 00f2 D7F85432 		ldr	r3, [r7, #596]
 11095 00f6 D3F8E030 		ldr	r3, [r3, #224]
 11096              		.loc 1 1443 27
 11097 00fa 0748     		ldr	r0, .L223
 11098 00fc C7F80402 		str	r0, [r7, #516]
 11099 0100 C7F80812 		str	r1, [r7, #520]
 11100 0104 C7F80C22 		str	r2, [r7, #524]
 11101 0108 C7F81032 		str	r3, [r7, #528]
1444:Lib/AI_Runtime/Npu/ll_aton/ll_sw_float.c ****         FORMAT, sw_info->operand2.mem.start_offset, sw_info->operand2.mem.start_offset, sw_info->op
1445:Lib/AI_Runtime/Npu/ll_aton/ll_sw_float.c ****     concat_operand_array2_ptr = &concat_operand_array2;
ARM GAS  /tmp/ccEo7NLA.s 			page 227


 11102              		.loc 1 1445 31
 11103 010c 07F50173 		add	r3, r7, #516
 11104 0110 C7F86032 		str	r3, [r7, #608]
 11105 0114 02E0     		b	.L224
 11106              	.L225:
 11107 0116 00BF     		.align	2
 11108              	.L223:
 11109 0118 40108200 		.word	8523840
 11110              	.L224:
 11111              	.L220:
 11112              	.LBE50:
1446:Lib/AI_Runtime/Npu/ll_aton/ll_sw_float.c ****   }
1447:Lib/AI_Runtime/Npu/ll_aton/ll_sw_float.c **** 
1448:Lib/AI_Runtime/Npu/ll_aton/ll_sw_float.c ****   // tensors init
1449:Lib/AI_Runtime/Npu/ll_aton/ll_sw_float.c ****   AI_TENSOR_OBJ_DECLARE(input_output, , 0x0, 4,
 11113              		.loc 1 1449 3
 11114 011c 0023     		movs	r3, #0
 11115 011e C7F8E831 		str	r3, [r7, #488]
 11116 0122 0023     		movs	r3, #0
 11117 0124 A7F8EC31 		strh	r3, [r7, #492]	@ movhi
 11118 0128 0423     		movs	r3, #4
 11119 012a 87F8EE31 		strb	r3, [r7, #494]
 11120 012e 0123     		movs	r3, #1
 11121 0130 87F8EF31 		strb	r3, [r7, #495]
 11122 0134 0123     		movs	r3, #1
 11123 0136 87F8F031 		strb	r3, [r7, #496]
 11124 013a D7F8F031 		ldr	r3, [r7, #496]
 11125 013e 0422     		movs	r2, #4
 11126 0140 62F31F23 		bfi	r3, r2, #8, #24
 11127 0144 C7F8F031 		str	r3, [r7, #496]
 11128 0148 D7F85432 		ldr	r3, [r7, #596]
 11129 014c 1B69     		ldr	r3, [r3, #16]
 11130 014e C7F8D831 		str	r3, [r7, #472]
 11131 0152 D7F85432 		ldr	r3, [r7, #596]
 11132 0156 DB68     		ldr	r3, [r3, #12]
 11133 0158 C7F8DC31 		str	r3, [r7, #476]
 11134 015c D7F85432 		ldr	r3, [r7, #596]
 11135 0160 9B68     		ldr	r3, [r3, #8]
 11136 0162 C7F8E031 		str	r3, [r7, #480]
 11137 0166 D7F85432 		ldr	r3, [r7, #596]
 11138 016a 5B68     		ldr	r3, [r3, #4]
 11139 016c C7F8E431 		str	r3, [r7, #484]
 11140 0170 07F5EC73 		add	r3, r7, #472
 11141 0174 C7F8F431 		str	r3, [r7, #500]
 11142 0178 0223     		movs	r3, #2
 11143 017a 87F8F831 		strb	r3, [r7, #504]
 11144 017e D7F8F831 		ldr	r3, [r7, #504]
 11145 0182 0422     		movs	r2, #4
 11146 0184 62F31F23 		bfi	r3, r2, #8, #24
 11147 0188 C7F8F831 		str	r3, [r7, #504]
 11148 018c D7F85432 		ldr	r3, [r7, #596]
 11149 0190 5B6A     		ldr	r3, [r3, #36]
 11150 0192 C7F8C831 		str	r3, [r7, #456]
 11151 0196 D7F85432 		ldr	r3, [r7, #596]
 11152 019a 1B6A     		ldr	r3, [r3, #32]
 11153 019c C7F8CC31 		str	r3, [r7, #460]
 11154 01a0 D7F85432 		ldr	r3, [r7, #596]
ARM GAS  /tmp/ccEo7NLA.s 			page 228


 11155 01a4 DB69     		ldr	r3, [r3, #28]
 11156 01a6 C7F8D031 		str	r3, [r7, #464]
 11157 01aa D7F85432 		ldr	r3, [r7, #596]
 11158 01ae 9B69     		ldr	r3, [r3, #24]
 11159 01b0 C7F8D431 		str	r3, [r7, #468]
 11160 01b4 07F5E473 		add	r3, r7, #456
 11161 01b8 C7F8FC31 		str	r3, [r7, #508]
 11162 01bc 07F51173 		add	r3, r7, #580
 11163 01c0 C7F80032 		str	r3, [r7, #512]
1450:Lib/AI_Runtime/Npu/ll_aton/ll_sw_float.c ****                         SHAPE_INIT(sw_info->general.input.dim.tensor_h, sw_info->general.input.dim.
1451:Lib/AI_Runtime/Npu/ll_aton/ll_sw_float.c ****                                    sw_info->general.input.dim.tensor_c, sw_info->general.input.dim.
1452:Lib/AI_Runtime/Npu/ll_aton/ll_sw_float.c ****                         STRIDE_INIT(sw_info->general.input.stride.h, sw_info->general.input.stride.
1453:Lib/AI_Runtime/Npu/ll_aton/ll_sw_float.c ****                                     sw_info->general.input.stride.c, sw_info->general.input.stride.
1454:Lib/AI_Runtime/Npu/ll_aton/ll_sw_float.c ****                         1, &input_output_array, NULL)
1455:Lib/AI_Runtime/Npu/ll_aton/ll_sw_float.c ****   AI_TENSOR_OBJ_DECLARE(concat_output, , 0x0, 4,
 11164              		.loc 1 1455 3
 11165 01c4 0023     		movs	r3, #0
 11166 01c6 C7F8AC31 		str	r3, [r7, #428]
 11167 01ca 0023     		movs	r3, #0
 11168 01cc A7F8B031 		strh	r3, [r7, #432]	@ movhi
 11169 01d0 0423     		movs	r3, #4
 11170 01d2 87F8B231 		strb	r3, [r7, #434]
 11171 01d6 0123     		movs	r3, #1
 11172 01d8 87F8B331 		strb	r3, [r7, #435]
 11173 01dc 0123     		movs	r3, #1
 11174 01de 87F8B431 		strb	r3, [r7, #436]
 11175 01e2 D7F8B431 		ldr	r3, [r7, #436]
 11176 01e6 0422     		movs	r2, #4
 11177 01e8 62F31F23 		bfi	r3, r2, #8, #24
 11178 01ec C7F8B431 		str	r3, [r7, #436]
 11179 01f0 D7F85432 		ldr	r3, [r7, #596]
 11180 01f4 DB6B     		ldr	r3, [r3, #60]
 11181 01f6 C7F89C31 		str	r3, [r7, #412]
 11182 01fa D7F85432 		ldr	r3, [r7, #596]
 11183 01fe 9B6B     		ldr	r3, [r3, #56]
 11184 0200 C7F8A031 		str	r3, [r7, #416]
 11185 0204 D7F85432 		ldr	r3, [r7, #596]
 11186 0208 5B6B     		ldr	r3, [r3, #52]
 11187 020a C7F8A431 		str	r3, [r7, #420]
 11188 020e D7F85432 		ldr	r3, [r7, #596]
 11189 0212 1B6B     		ldr	r3, [r3, #48]
 11190 0214 C7F8A831 		str	r3, [r7, #424]
 11191 0218 07F5CE73 		add	r3, r7, #412
 11192 021c C7F8B831 		str	r3, [r7, #440]
 11193 0220 0223     		movs	r3, #2
 11194 0222 87F8BC31 		strb	r3, [r7, #444]
 11195 0226 D7F8BC31 		ldr	r3, [r7, #444]
 11196 022a 0422     		movs	r2, #4
 11197 022c 62F31F23 		bfi	r3, r2, #8, #24
 11198 0230 C7F8BC31 		str	r3, [r7, #444]
 11199 0234 D7F85432 		ldr	r3, [r7, #596]
 11200 0238 1B6D     		ldr	r3, [r3, #80]
 11201 023a C7F88C31 		str	r3, [r7, #396]
 11202 023e D7F85432 		ldr	r3, [r7, #596]
 11203 0242 DB6C     		ldr	r3, [r3, #76]
 11204 0244 C7F89031 		str	r3, [r7, #400]
 11205 0248 D7F85432 		ldr	r3, [r7, #596]
ARM GAS  /tmp/ccEo7NLA.s 			page 229


 11206 024c 9B6C     		ldr	r3, [r3, #72]
 11207 024e C7F89431 		str	r3, [r7, #404]
 11208 0252 D7F85432 		ldr	r3, [r7, #596]
 11209 0256 5B6C     		ldr	r3, [r3, #68]
 11210 0258 C7F89831 		str	r3, [r7, #408]
 11211 025c 07F5C673 		add	r3, r7, #396
 11212 0260 C7F8C031 		str	r3, [r7, #448]
 11213 0264 07F50D73 		add	r3, r7, #564
 11214 0268 C7F8C431 		str	r3, [r7, #452]
1456:Lib/AI_Runtime/Npu/ll_aton/ll_sw_float.c ****                         SHAPE_INIT(sw_info->general.output.dim.tensor_h, sw_info->general.output.di
1457:Lib/AI_Runtime/Npu/ll_aton/ll_sw_float.c ****                                    sw_info->general.output.dim.tensor_c, sw_info->general.output.di
1458:Lib/AI_Runtime/Npu/ll_aton/ll_sw_float.c ****                         STRIDE_INIT(sw_info->general.output.stride.h, sw_info->general.output.strid
1459:Lib/AI_Runtime/Npu/ll_aton/ll_sw_float.c ****                                     sw_info->general.output.stride.c, sw_info->general.output.strid
1460:Lib/AI_Runtime/Npu/ll_aton/ll_sw_float.c ****                         1, &concat_output_array, NULL)
1461:Lib/AI_Runtime/Npu/ll_aton/ll_sw_float.c **** 
1462:Lib/AI_Runtime/Npu/ll_aton/ll_sw_float.c ****   AI_TENSOR_OBJ_DECLARE(concat_operand, , 0x0, 4,
 11215              		.loc 1 1462 3
 11216 026c 0023     		movs	r3, #0
 11217 026e C7F87031 		str	r3, [r7, #368]
 11218 0272 0023     		movs	r3, #0
 11219 0274 A7F87431 		strh	r3, [r7, #372]	@ movhi
 11220 0278 0423     		movs	r3, #4
 11221 027a 87F87631 		strb	r3, [r7, #374]
 11222 027e 0123     		movs	r3, #1
 11223 0280 87F87731 		strb	r3, [r7, #375]
 11224 0284 0123     		movs	r3, #1
 11225 0286 87F87831 		strb	r3, [r7, #376]
 11226 028a D7F87831 		ldr	r3, [r7, #376]
 11227 028e 0422     		movs	r2, #4
 11228 0290 62F31F23 		bfi	r3, r2, #8, #24
 11229 0294 C7F87831 		str	r3, [r7, #376]
 11230 0298 D7F85432 		ldr	r3, [r7, #596]
 11231 029c 1A6F     		ldr	r2, [r3, #112]
 11232 029e 07F51A73 		add	r3, r7, #616
 11233 02a2 A3F58473 		sub	r3, r3, #264
 11234 02a6 1A60     		str	r2, [r3]
 11235 02a8 D7F85432 		ldr	r3, [r7, #596]
 11236 02ac DA6E     		ldr	r2, [r3, #108]
 11237 02ae 07F51A73 		add	r3, r7, #616
 11238 02b2 A3F58473 		sub	r3, r3, #264
 11239 02b6 5A60     		str	r2, [r3, #4]
 11240 02b8 D7F85432 		ldr	r3, [r7, #596]
 11241 02bc 9A6E     		ldr	r2, [r3, #104]
 11242 02be 07F51A73 		add	r3, r7, #616
 11243 02c2 A3F58473 		sub	r3, r3, #264
 11244 02c6 9A60     		str	r2, [r3, #8]
 11245 02c8 D7F85432 		ldr	r3, [r7, #596]
 11246 02cc 5A6E     		ldr	r2, [r3, #100]
 11247 02ce 07F51A73 		add	r3, r7, #616
 11248 02d2 A3F58473 		sub	r3, r3, #264
 11249 02d6 DA60     		str	r2, [r3, #12]
 11250 02d8 07F5B073 		add	r3, r7, #352
 11251 02dc C7F87C31 		str	r3, [r7, #380]
 11252 02e0 0223     		movs	r3, #2
 11253 02e2 87F88031 		strb	r3, [r7, #384]
 11254 02e6 D7F88031 		ldr	r3, [r7, #384]
 11255 02ea 0422     		movs	r2, #4
ARM GAS  /tmp/ccEo7NLA.s 			page 230


 11256 02ec 62F31F23 		bfi	r3, r2, #8, #24
 11257 02f0 C7F88031 		str	r3, [r7, #384]
 11258 02f4 D7F85432 		ldr	r3, [r7, #596]
 11259 02f8 D3F88430 		ldr	r3, [r3, #132]
 11260 02fc 1A46     		mov	r2, r3
 11261 02fe 07F51A73 		add	r3, r7, #616
 11262 0302 A3F58C73 		sub	r3, r3, #280
 11263 0306 1A60     		str	r2, [r3]
 11264 0308 D7F85432 		ldr	r3, [r7, #596]
 11265 030c D3F88030 		ldr	r3, [r3, #128]
 11266 0310 1A46     		mov	r2, r3
 11267 0312 07F51A73 		add	r3, r7, #616
 11268 0316 A3F58C73 		sub	r3, r3, #280
 11269 031a 5A60     		str	r2, [r3, #4]
 11270 031c D7F85432 		ldr	r3, [r7, #596]
 11271 0320 DB6F     		ldr	r3, [r3, #124]
 11272 0322 1A46     		mov	r2, r3
 11273 0324 07F51A73 		add	r3, r7, #616
 11274 0328 A3F58C73 		sub	r3, r3, #280
 11275 032c 9A60     		str	r2, [r3, #8]
 11276 032e D7F85432 		ldr	r3, [r7, #596]
 11277 0332 9B6F     		ldr	r3, [r3, #120]
 11278 0334 1A46     		mov	r2, r3
 11279 0336 07F51A73 		add	r3, r7, #616
 11280 033a A3F58C73 		sub	r3, r3, #280
 11281 033e DA60     		str	r2, [r3, #12]
 11282 0340 07F5A873 		add	r3, r7, #336
 11283 0344 C7F88431 		str	r3, [r7, #388]
 11284 0348 07F50973 		add	r3, r7, #548
 11285 034c C7F88831 		str	r3, [r7, #392]
1463:Lib/AI_Runtime/Npu/ll_aton/ll_sw_float.c ****                         SHAPE_INIT(sw_info->operand.dim.tensor_h, sw_info->operand.dim.tensor_w,
1464:Lib/AI_Runtime/Npu/ll_aton/ll_sw_float.c ****                                    sw_info->operand.dim.tensor_c, sw_info->operand.dim.tensor_b),
1465:Lib/AI_Runtime/Npu/ll_aton/ll_sw_float.c ****                         STRIDE_INIT(sw_info->operand.stride.h, sw_info->operand.stride.w, sw_info->
1466:Lib/AI_Runtime/Npu/ll_aton/ll_sw_float.c ****                                     sw_info->operand.stride.b),
1467:Lib/AI_Runtime/Npu/ll_aton/ll_sw_float.c ****                         1, &concat_operand_array, NULL)
1468:Lib/AI_Runtime/Npu/ll_aton/ll_sw_float.c **** 
1469:Lib/AI_Runtime/Npu/ll_aton/ll_sw_float.c ****   ai_tensor concat_operand1;
1470:Lib/AI_Runtime/Npu/ll_aton/ll_sw_float.c ****   ai_tensor *concat_operand1_ptr = NULL;
 11286              		.loc 1 1470 14
 11287 0350 0023     		movs	r3, #0
 11288 0352 C7F85C32 		str	r3, [r7, #604]
1471:Lib/AI_Runtime/Npu/ll_aton/ll_sw_float.c ****   if (sw_info->num_of_inputs >= 3)
 11289              		.loc 1 1471 14
 11290 0356 D7F85432 		ldr	r3, [r7, #596]
 11291 035a 1B6E     		ldr	r3, [r3, #96]
 11292              		.loc 1 1471 6
 11293 035c 022B     		cmp	r3, #2
 11294 035e 40F29B80 		bls	.L221
 11295              	.LBB51:
1472:Lib/AI_Runtime/Npu/ll_aton/ll_sw_float.c ****   {
1473:Lib/AI_Runtime/Npu/ll_aton/ll_sw_float.c ****     concat_operand1 =
1474:Lib/AI_Runtime/Npu/ll_aton/ll_sw_float.c ****         (ai_tensor)AI_TENSOR_OBJ_INIT(0x0, 4,
 11296              		.loc 1 1474 20
 11297 0362 D7F85432 		ldr	r3, [r7, #596]
 11298 0366 D3F89C20 		ldr	r2, [r3, #156]
 11299 036a 07F51A73 		add	r3, r7, #616
 11300 036e A3F5FA73 		sub	r3, r3, #500
ARM GAS  /tmp/ccEo7NLA.s 			page 231


 11301 0372 1A60     		str	r2, [r3]
 11302 0374 D7F85432 		ldr	r3, [r7, #596]
 11303 0378 D3F89820 		ldr	r2, [r3, #152]
 11304 037c 07F51A73 		add	r3, r7, #616
 11305 0380 A3F5FA73 		sub	r3, r3, #500
 11306 0384 5A60     		str	r2, [r3, #4]
 11307 0386 D7F85432 		ldr	r3, [r7, #596]
 11308 038a D3F89420 		ldr	r2, [r3, #148]
 11309 038e 07F51A73 		add	r3, r7, #616
 11310 0392 A3F5FA73 		sub	r3, r3, #500
 11311 0396 9A60     		str	r2, [r3, #8]
 11312 0398 D7F85432 		ldr	r3, [r7, #596]
 11313 039c D3F89020 		ldr	r2, [r3, #144]
 11314 03a0 07F51A73 		add	r3, r7, #616
 11315 03a4 A3F5FA73 		sub	r3, r3, #500
 11316 03a8 DA60     		str	r2, [r3, #12]
 11317 03aa D7F85432 		ldr	r3, [r7, #596]
 11318 03ae D3F8B030 		ldr	r3, [r3, #176]
 11319 03b2 1A46     		mov	r2, r3
 11320 03b4 07F51A73 		add	r3, r7, #616
 11321 03b8 A3F50173 		sub	r3, r3, #516
 11322 03bc 1A60     		str	r2, [r3]
 11323 03be D7F85432 		ldr	r3, [r7, #596]
 11324 03c2 D3F8AC30 		ldr	r3, [r3, #172]
 11325 03c6 1A46     		mov	r2, r3
 11326 03c8 07F51A73 		add	r3, r7, #616
 11327 03cc A3F50173 		sub	r3, r3, #516
 11328 03d0 5A60     		str	r2, [r3, #4]
 11329 03d2 D7F85432 		ldr	r3, [r7, #596]
 11330 03d6 D3F8A830 		ldr	r3, [r3, #168]
 11331 03da 1A46     		mov	r2, r3
 11332 03dc 07F51A73 		add	r3, r7, #616
 11333 03e0 A3F50173 		sub	r3, r3, #516
 11334 03e4 9A60     		str	r2, [r3, #8]
 11335 03e6 D7F85432 		ldr	r3, [r7, #596]
 11336 03ea D3F8A430 		ldr	r3, [r3, #164]
 11337 03ee 1A46     		mov	r2, r3
 11338 03f0 07F51A73 		add	r3, r7, #616
 11339 03f4 A3F50173 		sub	r3, r3, #516
 11340 03f8 DA60     		str	r2, [r3, #12]
1473:Lib/AI_Runtime/Npu/ll_aton/ll_sw_float.c ****         (ai_tensor)AI_TENSOR_OBJ_INIT(0x0, 4,
 11341              		.loc 1 1473 21
 11342 03fa 07F51A73 		add	r3, r7, #616
 11343 03fe A3F59A73 		sub	r3, r3, #308
 11344 0402 0022     		movs	r2, #0
 11345 0404 1A60     		str	r2, [r3]
 11346 0406 07F51A73 		add	r3, r7, #616
 11347 040a A3F59A73 		sub	r3, r3, #308
 11348 040e 0022     		movs	r2, #0
 11349 0410 9A80     		strh	r2, [r3, #4]	@ movhi
 11350 0412 07F51A73 		add	r3, r7, #616
 11351 0416 A3F59A73 		sub	r3, r3, #308
 11352 041a 0422     		movs	r2, #4
 11353 041c 9A71     		strb	r2, [r3, #6]
 11354 041e 07F51A73 		add	r3, r7, #616
 11355 0422 A3F59A73 		sub	r3, r3, #308
 11356 0426 0122     		movs	r2, #1
ARM GAS  /tmp/ccEo7NLA.s 			page 232


 11357 0428 DA71     		strb	r2, [r3, #7]
 11358 042a 07F51A73 		add	r3, r7, #616
 11359 042e A3F59A73 		sub	r3, r3, #308
 11360 0432 0122     		movs	r2, #1
 11361 0434 1A72     		strb	r2, [r3, #8]
 11362 0436 07F51A73 		add	r3, r7, #616
 11363 043a A3F59A72 		sub	r2, r3, #308
 11364 043e 9368     		ldr	r3, [r2, #8]
 11365 0440 0421     		movs	r1, #4
 11366 0442 61F31F23 		bfi	r3, r1, #8, #24
 11367 0446 9360     		str	r3, [r2, #8]
 11368 0448 07F51A73 		add	r3, r7, #616
 11369 044c A3F59A73 		sub	r3, r3, #308
 11370 0450 07F17402 		add	r2, r7, #116
 11371 0454 DA60     		str	r2, [r3, #12]
 11372 0456 07F51A73 		add	r3, r7, #616
 11373 045a A3F59A73 		sub	r3, r3, #308
 11374 045e 0222     		movs	r2, #2
 11375 0460 1A74     		strb	r2, [r3, #16]
 11376 0462 07F51A73 		add	r3, r7, #616
 11377 0466 A3F59A72 		sub	r2, r3, #308
 11378 046a 1369     		ldr	r3, [r2, #16]
 11379 046c 0421     		movs	r1, #4
 11380 046e 61F31F23 		bfi	r3, r1, #8, #24
 11381 0472 1361     		str	r3, [r2, #16]
 11382 0474 07F51A73 		add	r3, r7, #616
 11383 0478 A3F59A73 		sub	r3, r3, #308
 11384 047c 07F16402 		add	r2, r7, #100
 11385 0480 5A61     		str	r2, [r3, #20]
 11386 0482 07F51A73 		add	r3, r7, #616
 11387 0486 A3F59A73 		sub	r3, r3, #308
 11388 048a D7F86422 		ldr	r2, [r7, #612]
 11389 048e 9A61     		str	r2, [r3, #24]
1475:Lib/AI_Runtime/Npu/ll_aton/ll_sw_float.c ****                                       SHAPE_INIT(sw_info->operand1.dim.tensor_h, sw_info->operand1.
1476:Lib/AI_Runtime/Npu/ll_aton/ll_sw_float.c ****                                                  sw_info->operand1.dim.tensor_c, sw_info->operand1.
1477:Lib/AI_Runtime/Npu/ll_aton/ll_sw_float.c ****                                       STRIDE_INIT(sw_info->operand1.stride.h, sw_info->operand1.str
1478:Lib/AI_Runtime/Npu/ll_aton/ll_sw_float.c ****                                                   sw_info->operand1.stride.c, sw_info->operand1.str
1479:Lib/AI_Runtime/Npu/ll_aton/ll_sw_float.c ****                                       1, concat_operand_array1_ptr, NULL);
1480:Lib/AI_Runtime/Npu/ll_aton/ll_sw_float.c ****     concat_operand1_ptr = &concat_operand1;
 11390              		.loc 1 1480 25
 11391 0490 07F59A73 		add	r3, r7, #308
 11392 0494 C7F85C32 		str	r3, [r7, #604]
 11393              	.L221:
 11394              	.LBE51:
1481:Lib/AI_Runtime/Npu/ll_aton/ll_sw_float.c ****   }
1482:Lib/AI_Runtime/Npu/ll_aton/ll_sw_float.c ****   ai_tensor concat_operand2;
1483:Lib/AI_Runtime/Npu/ll_aton/ll_sw_float.c ****   ai_tensor *concat_operand2_ptr = NULL;
 11395              		.loc 1 1483 14
 11396 0498 0023     		movs	r3, #0
 11397 049a C7F85832 		str	r3, [r7, #600]
1484:Lib/AI_Runtime/Npu/ll_aton/ll_sw_float.c ****   if (sw_info->num_of_inputs >= 4)
 11398              		.loc 1 1484 14
 11399 049e D7F85432 		ldr	r3, [r7, #596]
 11400 04a2 1B6E     		ldr	r3, [r3, #96]
 11401              		.loc 1 1484 6
 11402 04a4 032B     		cmp	r3, #3
 11403 04a6 40F29B80 		bls	.L222
ARM GAS  /tmp/ccEo7NLA.s 			page 233


 11404              	.LBB52:
1485:Lib/AI_Runtime/Npu/ll_aton/ll_sw_float.c ****   {
1486:Lib/AI_Runtime/Npu/ll_aton/ll_sw_float.c ****     concat_operand2 =
1487:Lib/AI_Runtime/Npu/ll_aton/ll_sw_float.c ****         (ai_tensor)AI_TENSOR_OBJ_INIT(0x0, 4,
 11405              		.loc 1 1487 20
 11406 04aa D7F85432 		ldr	r3, [r7, #596]
 11407 04ae D3F8C820 		ldr	r2, [r3, #200]
 11408 04b2 07F51A73 		add	r3, r7, #616
 11409 04b6 A3F50C73 		sub	r3, r3, #560
 11410 04ba 1A60     		str	r2, [r3]
 11411 04bc D7F85432 		ldr	r3, [r7, #596]
 11412 04c0 D3F8C420 		ldr	r2, [r3, #196]
 11413 04c4 07F51A73 		add	r3, r7, #616
 11414 04c8 A3F50C73 		sub	r3, r3, #560
 11415 04cc 5A60     		str	r2, [r3, #4]
 11416 04ce D7F85432 		ldr	r3, [r7, #596]
 11417 04d2 D3F8C020 		ldr	r2, [r3, #192]
 11418 04d6 07F51A73 		add	r3, r7, #616
 11419 04da A3F50C73 		sub	r3, r3, #560
 11420 04de 9A60     		str	r2, [r3, #8]
 11421 04e0 D7F85432 		ldr	r3, [r7, #596]
 11422 04e4 D3F8BC20 		ldr	r2, [r3, #188]
 11423 04e8 07F51A73 		add	r3, r7, #616
 11424 04ec A3F50C73 		sub	r3, r3, #560
 11425 04f0 DA60     		str	r2, [r3, #12]
 11426 04f2 D7F85432 		ldr	r3, [r7, #596]
 11427 04f6 D3F8DC30 		ldr	r3, [r3, #220]
 11428 04fa 1A46     		mov	r2, r3
 11429 04fc 07F51A73 		add	r3, r7, #616
 11430 0500 A3F51073 		sub	r3, r3, #576
 11431 0504 1A60     		str	r2, [r3]
 11432 0506 D7F85432 		ldr	r3, [r7, #596]
 11433 050a D3F8D830 		ldr	r3, [r3, #216]
 11434 050e 1A46     		mov	r2, r3
 11435 0510 07F51A73 		add	r3, r7, #616
 11436 0514 A3F51073 		sub	r3, r3, #576
 11437 0518 5A60     		str	r2, [r3, #4]
 11438 051a D7F85432 		ldr	r3, [r7, #596]
 11439 051e D3F8D430 		ldr	r3, [r3, #212]
 11440 0522 1A46     		mov	r2, r3
 11441 0524 07F51A73 		add	r3, r7, #616
 11442 0528 A3F51073 		sub	r3, r3, #576
 11443 052c 9A60     		str	r2, [r3, #8]
 11444 052e D7F85432 		ldr	r3, [r7, #596]
 11445 0532 D3F8D030 		ldr	r3, [r3, #208]
 11446 0536 1A46     		mov	r2, r3
 11447 0538 07F51A73 		add	r3, r7, #616
 11448 053c A3F51073 		sub	r3, r3, #576
 11449 0540 DA60     		str	r2, [r3, #12]
1486:Lib/AI_Runtime/Npu/ll_aton/ll_sw_float.c ****         (ai_tensor)AI_TENSOR_OBJ_INIT(0x0, 4,
 11450              		.loc 1 1486 21
 11451 0542 07F51A73 		add	r3, r7, #616
 11452 0546 A3F5A873 		sub	r3, r3, #336
 11453 054a 0022     		movs	r2, #0
 11454 054c 1A60     		str	r2, [r3]
 11455 054e 07F51A73 		add	r3, r7, #616
 11456 0552 A3F5A873 		sub	r3, r3, #336
ARM GAS  /tmp/ccEo7NLA.s 			page 234


 11457 0556 0022     		movs	r2, #0
 11458 0558 9A80     		strh	r2, [r3, #4]	@ movhi
 11459 055a 07F51A73 		add	r3, r7, #616
 11460 055e A3F5A873 		sub	r3, r3, #336
 11461 0562 0422     		movs	r2, #4
 11462 0564 9A71     		strb	r2, [r3, #6]
 11463 0566 07F51A73 		add	r3, r7, #616
 11464 056a A3F5A873 		sub	r3, r3, #336
 11465 056e 0122     		movs	r2, #1
 11466 0570 DA71     		strb	r2, [r3, #7]
 11467 0572 07F51A73 		add	r3, r7, #616
 11468 0576 A3F5A873 		sub	r3, r3, #336
 11469 057a 0122     		movs	r2, #1
 11470 057c 1A72     		strb	r2, [r3, #8]
 11471 057e 07F51A73 		add	r3, r7, #616
 11472 0582 A3F5A872 		sub	r2, r3, #336
 11473 0586 9368     		ldr	r3, [r2, #8]
 11474 0588 0421     		movs	r1, #4
 11475 058a 61F31F23 		bfi	r3, r1, #8, #24
 11476 058e 9360     		str	r3, [r2, #8]
 11477 0590 07F51A73 		add	r3, r7, #616
 11478 0594 A3F5A873 		sub	r3, r3, #336
 11479 0598 07F13802 		add	r2, r7, #56
 11480 059c DA60     		str	r2, [r3, #12]
 11481 059e 07F51A73 		add	r3, r7, #616
 11482 05a2 A3F5A873 		sub	r3, r3, #336
 11483 05a6 0222     		movs	r2, #2
 11484 05a8 1A74     		strb	r2, [r3, #16]
 11485 05aa 07F51A73 		add	r3, r7, #616
 11486 05ae A3F5A872 		sub	r2, r3, #336
 11487 05b2 1369     		ldr	r3, [r2, #16]
 11488 05b4 0421     		movs	r1, #4
 11489 05b6 61F31F23 		bfi	r3, r1, #8, #24
 11490 05ba 1361     		str	r3, [r2, #16]
 11491 05bc 07F51A73 		add	r3, r7, #616
 11492 05c0 A3F5A873 		sub	r3, r3, #336
 11493 05c4 07F12802 		add	r2, r7, #40
 11494 05c8 5A61     		str	r2, [r3, #20]
 11495 05ca 07F51A73 		add	r3, r7, #616
 11496 05ce A3F5A873 		sub	r3, r3, #336
 11497 05d2 D7F86022 		ldr	r2, [r7, #608]
 11498 05d6 9A61     		str	r2, [r3, #24]
1488:Lib/AI_Runtime/Npu/ll_aton/ll_sw_float.c ****                                       SHAPE_INIT(sw_info->operand2.dim.tensor_h, sw_info->operand2.
1489:Lib/AI_Runtime/Npu/ll_aton/ll_sw_float.c ****                                                  sw_info->operand2.dim.tensor_c, sw_info->operand2.
1490:Lib/AI_Runtime/Npu/ll_aton/ll_sw_float.c ****                                       STRIDE_INIT(sw_info->operand2.stride.h, sw_info->operand2.str
1491:Lib/AI_Runtime/Npu/ll_aton/ll_sw_float.c ****                                                   sw_info->operand2.stride.c, sw_info->operand2.str
1492:Lib/AI_Runtime/Npu/ll_aton/ll_sw_float.c ****                                       1, concat_operand_array2_ptr, NULL);
1493:Lib/AI_Runtime/Npu/ll_aton/ll_sw_float.c ****     concat_operand2_ptr = &concat_operand2;
 11499              		.loc 1 1493 25
 11500 05d8 07F58C73 		add	r3, r7, #280
 11501 05dc C7F85832 		str	r3, [r7, #600]
 11502              	.L222:
 11503              	.LBE52:
1494:Lib/AI_Runtime/Npu/ll_aton/ll_sw_float.c ****   }
1495:Lib/AI_Runtime/Npu/ll_aton/ll_sw_float.c **** 
1496:Lib/AI_Runtime/Npu/ll_aton/ll_sw_float.c ****   // tensor chains init
1497:Lib/AI_Runtime/Npu/ll_aton/ll_sw_float.c ****   AI_TENSOR_CHAIN_OBJ_DECLARE(
ARM GAS  /tmp/ccEo7NLA.s 			page 235


 11504              		.loc 1 1497 3
 11505 05e0 07F51A73 		add	r3, r7, #616
 11506 05e4 A3F5AC73 		sub	r3, r3, #344
 11507 05e8 0422     		movs	r2, #4
 11508 05ea 1A80     		strh	r2, [r3]	@ movhi
 11509 05ec 07F51A73 		add	r3, r7, #616
 11510 05f0 A3F5AC73 		sub	r3, r3, #344
 11511 05f4 0022     		movs	r2, #0
 11512 05f6 5A80     		strh	r2, [r3, #2]	@ movhi
 11513 05f8 07F51A73 		add	r3, r7, #616
 11514 05fc A3F5D273 		sub	r3, r3, #420
 11515 0600 0422     		movs	r2, #4
 11516 0602 1A80     		strh	r2, [r3]	@ movhi
 11517 0604 07F51A73 		add	r3, r7, #616
 11518 0608 A3F5D273 		sub	r3, r3, #420
 11519 060c 0022     		movs	r2, #0
 11520 060e 5A80     		strh	r2, [r3, #2]	@ movhi
 11521 0610 07F51A73 		add	r3, r7, #616
 11522 0614 A3F5B473 		sub	r3, r3, #360
 11523 0618 07F5F472 		add	r2, r7, #488
 11524 061c 1A60     		str	r2, [r3]
 11525 061e 07F51A73 		add	r3, r7, #616
 11526 0622 A3F5B473 		sub	r3, r3, #360
 11527 0626 07F5B872 		add	r2, r7, #368
 11528 062a 5A60     		str	r2, [r3, #4]
 11529 062c 07F51A73 		add	r3, r7, #616
 11530 0630 A3F5B473 		sub	r3, r3, #360
 11531 0634 D7F85C22 		ldr	r2, [r7, #604]
 11532 0638 9A60     		str	r2, [r3, #8]
 11533 063a 07F51A73 		add	r3, r7, #616
 11534 063e A3F5B473 		sub	r3, r3, #360
 11535 0642 D7F85822 		ldr	r2, [r7, #600]
 11536 0646 DA60     		str	r2, [r3, #12]
 11537 0648 07F51A73 		add	r3, r7, #616
 11538 064c A3F5D273 		sub	r3, r3, #420
 11539 0650 07F58072 		add	r2, r7, #256
 11540 0654 5A60     		str	r2, [r3, #4]
 11541 0656 07F51A73 		add	r3, r7, #616
 11542 065a A3F5D273 		sub	r3, r3, #420
 11543 065e 0022     		movs	r2, #0
 11544 0660 9A60     		str	r2, [r3, #8]
 11545 0662 07F51A73 		add	r3, r7, #616
 11546 0666 A3F5D273 		sub	r3, r3, #420
 11547 066a 0122     		movs	r2, #1
 11548 066c 9A81     		strh	r2, [r3, #12]	@ movhi
 11549 066e 07F51A73 		add	r3, r7, #616
 11550 0672 A3F5D273 		sub	r3, r3, #420
 11551 0676 0022     		movs	r2, #0
 11552 0678 DA81     		strh	r2, [r3, #14]	@ movhi
 11553 067a 07F51A73 		add	r3, r7, #616
 11554 067e A3F5B673 		sub	r3, r3, #364
 11555 0682 07F5D672 		add	r2, r7, #428
 11556 0686 1A60     		str	r2, [r3]
 11557 0688 07F51A73 		add	r3, r7, #616
 11558 068c A3F5D273 		sub	r3, r3, #420
 11559 0690 07F1FC02 		add	r2, r7, #252
 11560 0694 1A61     		str	r2, [r3, #16]
ARM GAS  /tmp/ccEo7NLA.s 			page 236


 11561 0696 07F51A73 		add	r3, r7, #616
 11562 069a A3F5D273 		sub	r3, r3, #420
 11563 069e 0022     		movs	r2, #0
 11564 06a0 5A61     		str	r2, [r3, #20]
 11565 06a2 07F51A73 		add	r3, r7, #616
 11566 06a6 A3F5D273 		sub	r3, r3, #420
 11567 06aa 0022     		movs	r2, #0
 11568 06ac 1A83     		strh	r2, [r3, #24]	@ movhi
 11569 06ae 07F51A73 		add	r3, r7, #616
 11570 06b2 A3F5D273 		sub	r3, r3, #420
 11571 06b6 0022     		movs	r2, #0
 11572 06b8 5A83     		strh	r2, [r3, #26]	@ movhi
 11573 06ba 07F51A73 		add	r3, r7, #616
 11574 06be A3F5B873 		sub	r3, r3, #368
 11575 06c2 0022     		movs	r2, #0
 11576 06c4 1A60     		str	r2, [r3]
 11577 06c6 07F51A73 		add	r3, r7, #616
 11578 06ca A3F5D273 		sub	r3, r3, #420
 11579 06ce 07F1F802 		add	r2, r7, #248
 11580 06d2 DA61     		str	r2, [r3, #28]
 11581 06d4 07F51A73 		add	r3, r7, #616
 11582 06d8 A3F5D273 		sub	r3, r3, #420
 11583 06dc 0022     		movs	r2, #0
 11584 06de 1A62     		str	r2, [r3, #32]
 11585 06e0 07F51A73 		add	r3, r7, #616
 11586 06e4 A3F5D273 		sub	r3, r3, #420
 11587 06e8 0022     		movs	r2, #0
 11588 06ea 9A84     		strh	r2, [r3, #36]	@ movhi
 11589 06ec 07F51A73 		add	r3, r7, #616
 11590 06f0 A3F5D273 		sub	r3, r3, #420
 11591 06f4 0022     		movs	r2, #0
 11592 06f6 DA84     		strh	r2, [r3, #38]	@ movhi
 11593 06f8 07F51A73 		add	r3, r7, #616
 11594 06fc A3F5BA73 		sub	r3, r3, #372
 11595 0700 0022     		movs	r2, #0
 11596 0702 1A60     		str	r2, [r3]
 11597 0704 07F51A73 		add	r3, r7, #616
 11598 0708 A3F5D273 		sub	r3, r3, #420
 11599 070c 07F1F402 		add	r2, r7, #244
 11600 0710 9A62     		str	r2, [r3, #40]
 11601 0712 07F51A73 		add	r3, r7, #616
 11602 0716 A3F5D273 		sub	r3, r3, #420
 11603 071a 0022     		movs	r2, #0
 11604 071c DA62     		str	r2, [r3, #44]
 11605 071e 07F51A73 		add	r3, r7, #616
 11606 0722 A3F5AC73 		sub	r3, r3, #344
 11607 0726 07F1C402 		add	r2, r7, #196
 11608 072a 5A60     		str	r2, [r3, #4]
1498:Lib/AI_Runtime/Npu/ll_aton/ll_sw_float.c ****       concat_chain, , 4,
1499:Lib/AI_Runtime/Npu/ll_aton/ll_sw_float.c ****       AI_TENSOR_LIST_OBJ_INIT(AI_FLAG_NONE, 4,
1500:Lib/AI_Runtime/Npu/ll_aton/ll_sw_float.c ****                               TENSORS(&input_output, &concat_operand, concat_operand1_ptr, concat_o
1501:Lib/AI_Runtime/Npu/ll_aton/ll_sw_float.c ****       AI_TENSOR_LIST_OBJ_INIT(AI_FLAG_NONE, 1, TENSORS(&concat_output)), AI_TENSOR_LIST_OBJ_EMPTY,
1502:Lib/AI_Runtime/Npu/ll_aton/ll_sw_float.c ****       AI_TENSOR_LIST_OBJ_EMPTY)
1503:Lib/AI_Runtime/Npu/ll_aton/ll_sw_float.c ****   AI_LAYER_OBJ_DECLARE(concat_layer, 1, CONCAT_TYPE, 0x0, NULL, concat, forward_concat, &concat_cha
 11609              		.loc 1 1503 3
 11610 072c 07F51A73 		add	r3, r7, #616
 11611 0730 A3F5E273 		sub	r3, r3, #452
ARM GAS  /tmp/ccEo7NLA.s 			page 237


 11612 0734 4FF48872 		mov	r2, #272
 11613 0738 1A80     		strh	r2, [r3]	@ movhi
 11614 073a 07F51A73 		add	r3, r7, #616
 11615 073e A3F5E273 		sub	r3, r3, #452
 11616 0742 0122     		movs	r2, #1
 11617 0744 5A80     		strh	r2, [r3, #2]	@ movhi
 11618 0746 07F51A73 		add	r3, r7, #616
 11619 074a A3F5E273 		sub	r3, r3, #452
 11620 074e 0022     		movs	r2, #0
 11621 0750 5A60     		str	r2, [r3, #4]
 11622 0752 07F51A73 		add	r3, r7, #616
 11623 0756 A3F5E273 		sub	r3, r3, #452
 11624 075a 0022     		movs	r2, #0
 11625 075c 9A60     		str	r2, [r3, #8]
 11626 075e 07F51A73 		add	r3, r7, #616
 11627 0762 A3F5E273 		sub	r3, r3, #452
 11628 0766 0022     		movs	r2, #0
 11629 0768 DA60     		str	r2, [r3, #12]
 11630 076a 07F51A73 		add	r3, r7, #616
 11631 076e A3F5E273 		sub	r3, r3, #452
 11632 0772 0022     		movs	r2, #0
 11633 0774 1A61     		str	r2, [r3, #16]
 11634 0776 07F51A73 		add	r3, r7, #616
 11635 077a A3F5E273 		sub	r3, r3, #452
 11636 077e 0F4A     		ldr	r2, .L226
 11637 0780 5A61     		str	r2, [r3, #20]
 11638 0782 07F51A73 		add	r3, r7, #616
 11639 0786 A3F5E273 		sub	r3, r3, #452
 11640 078a 07F58872 		add	r2, r7, #272
 11641 078e 9A61     		str	r2, [r3, #24]
 11642 0790 D7F85432 		ldr	r3, [r7, #596]
 11643 0794 DA6D     		ldr	r2, [r3, #92]
 11644 0796 07F51A73 		add	r3, r7, #616
 11645 079a A3F5E273 		sub	r3, r3, #452
 11646 079e DA61     		str	r2, [r3, #28]
1504:Lib/AI_Runtime/Npu/ll_aton/ll_sw_float.c ****                        .axis = sw_info->concat_axis)
1505:Lib/AI_Runtime/Npu/ll_aton/ll_sw_float.c ****   concat_layer.forward(AI_LAYER_OBJ(&concat_layer));
 11647              		.loc 1 1505 15
 11648 07a0 07F51A73 		add	r3, r7, #616
 11649 07a4 A3F5E273 		sub	r3, r3, #452
 11650 07a8 5B69     		ldr	r3, [r3, #20]
 11651              		.loc 1 1505 3
 11652 07aa 07F1A402 		add	r2, r7, #164
 11653 07ae 1046     		mov	r0, r2
 11654 07b0 9847     		blx	r3
 11655              	.LVL57:
1506:Lib/AI_Runtime/Npu/ll_aton/ll_sw_float.c **** }
 11656              		.loc 1 1506 1
 11657 07b2 00BF     		nop
 11658 07b4 07F51A77 		add	r7, r7, #616
 11659              		.cfi_def_cfa_offset 8
 11660 07b8 BD46     		mov	sp, r7
 11661              		.cfi_def_cfa_register 13
 11662              		@ sp needed
 11663 07ba 80BD     		pop	{r7, pc}
 11664              	.L227:
 11665              		.align	2
ARM GAS  /tmp/ccEo7NLA.s 			page 238


 11666              	.L226:
 11667 07bc 00000000 		.word	forward_concat
 11668              		.cfi_endproc
 11669              	.LFE34:
 11671              		.text
 11672              	.Letext0:
 11673              		.file 3 "/home/tanjiajun2002/renesas/rzv/e2studio_v2025-01_fsp_v3.1.0/toolchains/gcc_arm/arm-gnu-t
 11674              		.file 4 "/home/tanjiajun2002/renesas/rzv/e2studio_v2025-01_fsp_v3.1.0/toolchains/gcc_arm/arm-gnu-t
 11675              		.file 5 "Lib/AI_Runtime/Npu/ll_aton/ll_sw.h"
 11676              		.file 6 "Lib/AI_Runtime/Inc/ai_platform.h"
 11677              		.file 7 "Lib/AI_Runtime/Inc/datatypes_network.h"
 11678              		.file 8 "Lib/AI_Runtime/Inc/ai_datatypes_format.h"
 11679              		.file 9 "Lib/AI_Runtime/Inc/ai_platform_interface.h"
 11680              		.file 10 "Lib/AI_Runtime/Inc/core_common.h"
 11681              		.file 11 "Lib/AI_Runtime/Inc/core_datatypes.h"
 11682              		.file 12 "Lib/AI_Runtime/Inc/layers_common.h"
 11683              		.file 13 "Lib/AI_Runtime/Inc/layers_nl.h"
 11684              		.file 14 "Lib/AI_Runtime/Inc/layers_pool.h"
 11685              		.file 15 "Lib/AI_Runtime/Inc/layers_conv2d.h"
 11686              		.file 16 "Lib/AI_Runtime/Inc/layers_generic.h"
 11687              		.file 17 "Lib/AI_Runtime/Inc/layers_norm.h"
 11688              		.file 18 "Lib/AI_Runtime/Inc/ai_math_helpers.h"
 11689              		.file 19 "Lib/AI_Runtime/Inc/layers_upsample_generic.h"
 11690              		.file 20 "/home/tanjiajun2002/renesas/rzv/e2studio_v2025-01_fsp_v3.1.0/toolchains/gcc_arm/arm-gnu-
ARM GAS  /tmp/ccEo7NLA.s 			page 239


DEFINED SYMBOLS
                            *ABS*:00000000 ll_sw_float.c
     /tmp/ccEo7NLA.s:26     .text.ai_shape_get_size:00000000 $t
     /tmp/ccEo7NLA.s:31     .text.ai_shape_get_size:00000000 ai_shape_get_size
     /tmp/ccEo7NLA.s:96     .text.helper_emit_shape_index_axis:00000000 $t
     /tmp/ccEo7NLA.s:101    .text.helper_emit_shape_index_axis:00000000 helper_emit_shape_index_axis
     /tmp/ccEo7NLA.s:124    .text.helper_emit_shape_index_axis:00000014 $d
     /tmp/ccEo7NLA.s:128    .text.helper_emit_shape_index_axis:00000024 $t
     /tmp/ccEo7NLA.s:164    .text.ll_sw_forward_conv:00000000 $t
     /tmp/ccEo7NLA.s:170    .text.ll_sw_forward_conv:00000000 ll_sw_forward_conv
     /tmp/ccEo7NLA.s:480    .text.ll_sw_forward_conv:000003b8 $d
     /tmp/ccEo7NLA.s:482    .text.ll_sw_forward_conv:000003bc $t
     /tmp/ccEo7NLA.s:711    .text.ll_sw_forward_conv:00000680 $d
     /tmp/ccEo7NLA.s:715    .text.ll_sw_forward_conv:00000684 $t
     /tmp/ccEo7NLA.s:933    .text.ll_sw_forward_conv:00000914 $d
     /tmp/ccEo7NLA.s:938    .text.ll_sw_forward_gemm:00000000 $t
     /tmp/ccEo7NLA.s:944    .text.ll_sw_forward_gemm:00000000 ll_sw_forward_gemm
     /tmp/ccEo7NLA.s:1251   .text.ll_sw_forward_gemm:000003b8 $d
     /tmp/ccEo7NLA.s:1253   .text.ll_sw_forward_gemm:000003bc $t
     /tmp/ccEo7NLA.s:1440   .text.ll_sw_forward_gemm:000005f0 $d
     /tmp/ccEo7NLA.s:1445   .text.ll_sw_forward_matmul:00000000 $t
     /tmp/ccEo7NLA.s:1451   .text.ll_sw_forward_matmul:00000000 ll_sw_forward_matmul
     /tmp/ccEo7NLA.s:1761   .text.ll_sw_forward_matmul:000003a4 $d
     /tmp/ccEo7NLA.s:1763   .text.ll_sw_forward_matmul:000003a8 $t
     /tmp/ccEo7NLA.s:1797   .text.ll_sw_forward_matmul:000003f0 $d
     /tmp/ccEo7NLA.s:1802   .text.ll_sw_forward_resize:00000000 $t
     /tmp/ccEo7NLA.s:1808   .text.ll_sw_forward_resize:00000000 ll_sw_forward_resize
     /tmp/ccEo7NLA.s:2124   .text.ll_sw_forward_resize:000003a8 $d
     /tmp/ccEo7NLA.s:2126   .text.ll_sw_forward_resize:000003ac $t
     /tmp/ccEo7NLA.s:2359   .text.ll_sw_forward_resize:00000644 $d
     /tmp/ccEo7NLA.s:2366   .text.ll_sw_forward_softmax:00000000 $t
     /tmp/ccEo7NLA.s:2372   .text.ll_sw_forward_softmax:00000000 ll_sw_forward_softmax
     /tmp/ccEo7NLA.s:2433   .text.ll_sw_forward_softmax:0000006c $d
     /tmp/ccEo7NLA.s:2437   .text.ll_sw_forward_softmax:00000074 $t
     /tmp/ccEo7NLA.s:2726   .text.ll_sw_forward_softmax:000003fc $d
     /tmp/ccEo7NLA.s:2730   .text.ll_sw_forward_softmax:00000408 $t
     /tmp/ccEo7NLA.s:2764   .text.ll_sw_forward_activ:00000000 $t
     /tmp/ccEo7NLA.s:2770   .text.ll_sw_forward_activ:00000000 ll_sw_forward_activ
     /tmp/ccEo7NLA.s:2976   .text.ll_sw_forward_activ:00000264 $d
     /tmp/ccEo7NLA.s:3059   .text.ll_sw_forward_activ:000003a0 $d
     /tmp/ccEo7NLA.s:3063   .text.ll_sw_forward_activ:000003a4 $t
     /tmp/ccEo7NLA.s:3180   .text.ll_sw_forward_activ:000004e4 $d
     /tmp/ccEo7NLA.s:3186   .text.ll_sw_forward_activ:000004f0 $t
     /tmp/ccEo7NLA.s:3443   .text.ll_sw_forward_activ:000007f8 $d
     /tmp/ccEo7NLA.s:3448   .text.ll_sw_forward_activ:00000800 $t
     /tmp/ccEo7NLA.s:3723   .text.ll_sw_forward_activ:00000afc $d
     /tmp/ccEo7NLA.s:3731   .text.ll_sw_forward_activ:00000b10 $t
     /tmp/ccEo7NLA.s:4088   .text.ll_sw_forward_activ:00000ebc $d
     /tmp/ccEo7NLA.s:4098   .text.ll_sw_forward_activ:00000ed8 $t
     /tmp/ccEo7NLA.s:4455   .text.ll_sw_forward_activ:00001280 $d
     /tmp/ccEo7NLA.s:4465   .text.ll_sw_forward_activ:0000129c $t
     /tmp/ccEo7NLA.s:4771   .text.ll_sw_forward_activ:000015b4 $d
     /tmp/ccEo7NLA.s:4780   .text.ll_sw_forward_activ:000015cc $t
     /tmp/ccEo7NLA.s:5062   .text.ll_sw_forward_activ:000018b8 $d
     /tmp/ccEo7NLA.s:5071   .text.ll_sw_forward_activ:000018d0 $t
     /tmp/ccEo7NLA.s:5236   .text.ll_sw_forward_activ:00001a68 $d
     /tmp/ccEo7NLA.s:5243   .text.ll_sw_forward_arith:00000000 $t
ARM GAS  /tmp/ccEo7NLA.s 			page 240


     /tmp/ccEo7NLA.s:5249   .text.ll_sw_forward_arith:00000000 ll_sw_forward_arith
     /tmp/ccEo7NLA.s:5477   .text.ll_sw_forward_arith:000002a8 $d
     /tmp/ccEo7NLA.s:5544   .text.ll_sw_forward_arith:000003b4 $t
     /tmp/ccEo7NLA.s:5557   .text.ll_sw_forward_arith:000003c4 $d
     /tmp/ccEo7NLA.s:5562   .text.ll_sw_forward_arith:000003d0 $t
     /tmp/ccEo7NLA.s:5671   .text.ll_sw_forward_arith:00000478 $d
     /tmp/ccEo7NLA.s:5697   .text.ll_sw_forward_arith:000004d8 $t
     /tmp/ccEo7NLA.s:5996   .text.ll_sw_forward_arith:00000884 $d
     /tmp/ccEo7NLA.s:5998   .text.ll_sw_forward_arith:00000888 $t
     /tmp/ccEo7NLA.s:6105   .text.ll_sw_forward_arith:000009bc $d
     /tmp/ccEo7NLA.s:6108   .text.ll_sw_forward_arith:000009c0 $t
     /tmp/ccEo7NLA.s:6390   .text.ll_sw_forward_arith:00000d1c $d
     /tmp/ccEo7NLA.s:6395   .text.ll_sw_forward_arith:00000d24 $t
     /tmp/ccEo7NLA.s:6555   .text.ll_sw_forward_arith:00000ef4 $d
     /tmp/ccEo7NLA.s:6560   .text.ll_sw_forward_pool:00000000 $t
     /tmp/ccEo7NLA.s:6566   .text.ll_sw_forward_pool:00000000 ll_sw_forward_pool
     /tmp/ccEo7NLA.s:6793   .text.ll_sw_forward_pool:00000278 $d
     /tmp/ccEo7NLA.s:6798   .text.ll_sw_forward_pool:00000284 $t
     /tmp/ccEo7NLA.s:6920   .text.ll_sw_forward_global_pool:00000000 $t
     /tmp/ccEo7NLA.s:6926   .text.ll_sw_forward_global_pool:00000000 ll_sw_forward_global_pool
     /tmp/ccEo7NLA.s:7231   .text.ll_sw_forward_global_pool:00000344 $d
     /tmp/ccEo7NLA.s:7238   .text.ll_sw_forward_argmax:00000000 $t
     /tmp/ccEo7NLA.s:7244   .text.ll_sw_forward_argmax:00000000 ll_sw_forward_argmax
     /tmp/ccEo7NLA.s:7508   .text.ll_sw_forward_argmax:000002d4 $d
     /tmp/ccEo7NLA.s:7515   .text.ll_sw_forward_gather:00000000 $t
     /tmp/ccEo7NLA.s:7521   .text.ll_sw_forward_gather:00000000 ll_sw_forward_gather
     /tmp/ccEo7NLA.s:7831   .text.ll_sw_forward_gather:000003a4 $d
     /tmp/ccEo7NLA.s:7834   .text.ll_sw_forward_gather:000003ac $t
     /tmp/ccEo7NLA.s:7878   .text.ll_sw_forward_gather:00000410 $d
     /tmp/ccEo7NLA.s:7883   .text.ll_sw_forward_argmin:00000000 $t
     /tmp/ccEo7NLA.s:7889   .text.ll_sw_forward_argmin:00000000 ll_sw_forward_argmin
     /tmp/ccEo7NLA.s:8153   .text.ll_sw_forward_argmin:000002d4 $d
     /tmp/ccEo7NLA.s:8160   .text.ll_sw_forward_reduce:00000000 $t
     /tmp/ccEo7NLA.s:8166   .text.ll_sw_forward_reduce:00000000 ll_sw_forward_reduce
     /tmp/ccEo7NLA.s:8442   .text.ll_sw_forward_reduce:000002f4 $d
     /tmp/ccEo7NLA.s:8447   .text.ll_sw_forward_reduce:00000308 $t
     /tmp/ccEo7NLA.s:8487   .text.ll_sw_forward_reduce:00000348 $d
     /tmp/ccEo7NLA.s:8495   .text.ll_sw_forward_reduce:00000360 $t
     /tmp/ccEo7NLA.s:8573   .text.ll_sw_forward_reduce:00000420 $d
     /tmp/ccEo7NLA.s:8579   .text.ll_sw_forward_bn:00000000 $t
     /tmp/ccEo7NLA.s:8585   .text.ll_sw_forward_bn:00000000 ll_sw_forward_bn
     /tmp/ccEo7NLA.s:8896   .text.ll_sw_forward_bn:000003a0 $d
     /tmp/ccEo7NLA.s:8898   .text.ll_sw_forward_bn:000003a4 $t
     /tmp/ccEo7NLA.s:9393   .text.ll_sw_forward_bn:00000914 $d
     /tmp/ccEo7NLA.s:9398   .text.ll_sw_forward_instance_normalization:00000000 $t
     /tmp/ccEo7NLA.s:9404   .text.ll_sw_forward_instance_normalization:00000000 ll_sw_forward_instance_normalization
     /tmp/ccEo7NLA.s:9711   .text.ll_sw_forward_instance_normalization:000003b4 $d
     /tmp/ccEo7NLA.s:9713   .text.ll_sw_forward_instance_normalization:000003b8 $t
     /tmp/ccEo7NLA.s:9884   .text.ll_sw_forward_instance_normalization:000005b0 $d
     /tmp/ccEo7NLA.s:9890   .text.ll_sw_forward_lpnormalization:00000000 $t
     /tmp/ccEo7NLA.s:9896   .text.ll_sw_forward_lpnormalization:00000000 ll_sw_forward_lpnormalization
     /tmp/ccEo7NLA.s:10152  .text.ll_sw_forward_lpnormalization:000002c8 $d
     /tmp/ccEo7NLA.s:10158  .text.ll_sw_forward_sign:00000000 $t
     /tmp/ccEo7NLA.s:10164  .text.ll_sw_forward_sign:00000000 ll_sw_forward_sign
     /tmp/ccEo7NLA.s:10403  .text.ll_sw_forward_sign:0000028c $d
     /tmp/ccEo7NLA.s:10409  .text.ll_sw_forward_lrn:00000000 $t
     /tmp/ccEo7NLA.s:10415  .text.ll_sw_forward_lrn:00000000 ll_sw_forward_lrn
ARM GAS  /tmp/ccEo7NLA.s 			page 241


     /tmp/ccEo7NLA.s:10683  .text.ll_sw_forward_lrn:000002f0 $d
     /tmp/ccEo7NLA.s:10689  .text.ll_sw_forward_tile:00000000 $t
     /tmp/ccEo7NLA.s:10695  .text.ll_sw_forward_tile:00000000 ll_sw_forward_tile
     /tmp/ccEo7NLA.s:10980  .text.ll_sw_forward_tile:0000032c $d
     /tmp/ccEo7NLA.s:10987  .text.ll_sw_forward_concat:00000000 $t
     /tmp/ccEo7NLA.s:10993  .text.ll_sw_forward_concat:00000000 ll_sw_forward_concat
     /tmp/ccEo7NLA.s:11109  .text.ll_sw_forward_concat:00000118 $d
     /tmp/ccEo7NLA.s:11114  .text.ll_sw_forward_concat:0000011c $t
     /tmp/ccEo7NLA.s:11667  .text.ll_sw_forward_concat:000007bc $d
                           .group:00000000 wm4.0.2a10773746a5c5ebb5552f50e466f80b
                           .group:00000000 wm4.ll_aton_config.h.20.79eb8be0291ee9086e6be08969d61846
                           .group:00000000 wm4._newlib_version.h.4.411db44ea2338a62eca2f0777f81481b
                           .group:00000000 wm4.newlib.h.27.4b972ceed5d01f491020c20f1e546cab
                           .group:00000000 wm4.ieeefp.h.77.bd5feb87d9990dd328793ced294f6a87
                           .group:00000000 wm4.features.h.22.9dfb1293666eb4caf24cccb81c86a551
                           .group:00000000 wm4.config.h.224.10ee1ad185d877c6e334e6581faab44d
                           .group:00000000 wm4._ansi.h.31.de524f58584151836e90d8620a16f8e8
                           .group:00000000 wm4.assert.h.11.db24e541f16414db224bf986d21017e2
                           .group:00000000 wm4._default_types.h.6.959254cf5f09734ea7516c89e8bb21bd
                           .group:00000000 wm4._intsup.h.10.48bafbb683905c4daa4565a85aeeb264
                           .group:00000000 wm4._stdint.h.10.c24fa3af3bc1706662bb5593a907e841
                           .group:00000000 wm4.stdint.h.23.d53047a68f4a85177f80b422d52785ed
                           .group:00000000 wm4.stdio.h.27.3fc80220048df77954e38daec3bb9670
                           .group:00000000 wm4.stddef.h.185.cbb642e1ccd385e8aa504b15cb7fb086
                           .group:00000000 wm4.cdefs.h.49.70fc7af612f78ddcace70fdd90b5623b
                           .group:00000000 wm4.stddef.h.39.6817658cc6bc4c7c8354d2009e4a5777
                           .group:00000000 wm4.stdarg.h.34.3a23a216c0c293b3d2ea2e89281481e6
                           .group:00000000 wm4._types.h.20.dd0d04dca3800a0d2a6129b87f3adbb2
                           .group:00000000 wm4.stddef.h.158.6f8e08a347b1cff664332fa350bfceb3
                           .group:00000000 wm4._types.h.127.3bdfe3ff8ea2d0985b03d9cbe93480e3
                           .group:00000000 wm4.reent.h.18.25503cdc8b7e55dd0d6ea7b3e5af7a03
                           .group:00000000 wm4.lock.h.2.1461d1fff82dffe8bfddc23307f6484f
                           .group:00000000 wm4.reent.h.78.6b87466b04591b1f1cb88c14fdf2ba9e
                           .group:00000000 wm4.stdio.h.67.0cf8a9c281ab0b348aef5c02e7e48825
                           .group:00000000 wm4.stdio.h.2.4aa87247282eca6c8f36f9de33d8df1a
                           .group:00000000 wm4.stdio.h.87.a1e20d2651f9bfb66e51bfbe849db00a
                           .group:00000000 wm4.stdbool.h.29.c08aa3eec75cf5b9b5003883f43253f0
                           .group:00000000 wm4.string.h.8.c4b8571ce60dff2817f43fec8b86aecd
                           .group:00000000 wm4.stddef.h.158.eec8bf00b5213f43d095cb984c5f22e3
                           .group:00000000 wm4.inttypes.h.14.b28deb26920e51e0da310220ef0f9003
                           .group:00000000 wm4.inttypes.h.28.684aa7736e7ecc9a6ffc44acc61c7a90
                           .group:00000000 wm4.ai_platform.h.28.c058f0275203ef49c6ebffc19c3186b7
                           .group:00000000 wm4.datatypes_network.h.19.0916132781a5a985d4857655dae04a72
                           .group:00000000 wm4.core_assert.h.19.bbca5bb3090ffa7dddc8f8ab2ac82724
                           .group:00000000 wm4.ai_datatypes_defines.h.32.7c74a350659aaf8415fab7bed7e2285d
                           .group:00000000 wm4.ai_datatypes_format.h.19.1a802854dffbcb65ea52443a8fe88175
                           .group:00000000 wm4.ai_datatypes_format.h.392.61aa27312938e25431eaac70519dcc7b
                           .group:00000000 wm4.stai.h.24.81430cd48316c88285186e24aa74efb2
                           .group:00000000 wm4.ai_platform_interface.h.30.2ea047b53ca1b81608da569a3716f521
                           .group:00000000 wm4.ai_datatypes.h.32.d5dda011299ea885036e6533ca9dee42
                           .group:00000000 wm4.ai_datatypes_internal.h.49.5ab3a9b7b297be1460f6458ee1870b58
                           .group:00000000 wm4.math.h.13.47cfc34cae8a1153323939c4d32cf7c2
                           .group:00000000 wm4.syslimits.h.34.de5cbd310098bc5895998b6bde577ed2
                           .group:00000000 wm4.limits.h.9.70fb0ada6f71b16202a66baaa6d8ea70
                           .group:00000000 wm4.limits.h.60.56a1ae353e2028a24298ec6463b8b593
                           .group:00000000 wm4.ai_lite_math_helpers.h.28.5a4e48e259ebe557bbbffc7ac6527059
                           .group:00000000 wm4.ai_math_helpers.h.23.a19c785e74bb0bde4af288ca79a63b1f
ARM GAS  /tmp/ccEo7NLA.s 			page 242


                           .group:00000000 wm4.core_log.h.19.dbcf060b9a897e8bc8903452f7768b3b
                           .group:00000000 wm4.core_private.h.38.c86eca07862e08e6af28e4a25308dec9
                           .group:00000000 wm4.ai_common_config.h.19.fb67468a4f6fea8360e0f37e5f15139c
                           .group:00000000 wm4.core_datatypes.h.20.9e4628932c9663fd62444fe00a84d897
                           .group:00000000 wm4.core_common.h.65.4551a4f0a625b0033601444691182d61
                           .group:00000000 wm4.layers_common.h.30.b37bee6f76b8177da41061225fdf3d98
                           .group:00000000 wm4.layers_list.h.38.51c2167dafe2f07f046abdbc71e56278
                           .group:00000000 wm4.layers_common.h.162.48d6ce1fc28d2c9f3e577717d3440b72
                           .group:00000000 wm4.ai_lite.h.19.9f8b519f46333304e1e5858b36e90592
                           .group:00000000 wm4.ai_lite_interface.h.39.74c820fd88c5a59637552e47cb0a5e08
                           .group:00000000 wm4.lite_nl_list.h.71.82af4649e7198012c12f18657d35b60a
                           .group:00000000 wm4.lite_pool_f32.h.19.ea8272c420c3cb80b24c7967417cd16e
                           .group:00000000 wm4.layers_generic.h.20.21710cd19917cbd09eab3a433005f012
                           .group:00000000 wm4.layers_ml_treeensembleclassifier.h.20.1b484c65846fc8b1b6d60458adee6a2f
                           .group:00000000 wm4.layers_conv2d_dqnn.h.19.58bd281048af34dc1f0e1185dd771f04
                           .group:00000000 wm4.assert.h.11.d99a111e320bc5106fc4046225782672
                           .group:00000000 wm4.errno.h.2.ba016d646105af6cad23be83630b6a3f
                           .group:00000000 wm4.errno.h.9.ae5ea2b0ff9ea6e39e585807e35200d3
                           .group:00000000 wm4.ll_aton_util.h.34.9098eaa90d3d72b819973556e3e5fe44

UNDEFINED SYMBOLS
memset
forward_conv2d_if32of32wf32_group
forward_gemm
forward_matmul
forward_upsample_zeros
forward_resize
forward_sm
forward_relu
forward_clip
forward_prelu
forward_elu
forward_relu_thresholded
forward_selu
forward_ceil
forward_floor
forward_exp
forward_log
forward_acos
forward_acosh
forward_asin
forward_asinh
forward_atan
forward_atanh
forward_cos
forward_cosh
forward_sin
forward_sinh
forward_tanh
forward_tan
forward_sigmoid
forward_sqrt
forward_erf
forward_soft_plus
forward_soft_sign
forward_hard_sigmoid
forward_swish
ARM GAS  /tmp/ccEo7NLA.s 			page 243


forward_hard_swish
forward_hardmax
forward_abs
forward_neg
forward_reciprocal
forward_round
ai_sum
ai_sum_buffer
ai_mul
ai_mul_buffer
ai_div
ai_div_buffer
ai_sub
ai_sub_buffer
ai_pow
ai_pow_buffer
ai_greater
ai_greater_buffer
ai_greater_or_equal
ai_greater_or_equal_buffer
ai_less
ai_less_buffer
ai_equal
ai_equal_buffer
ai_less_or_equal
ai_less_or_equal_buffer
ai_min
ai_min_buffer
ai_max
ai_max_buffer
ai_floor_mod
ai_floor_mod_buffer
forward_eltwise
forward_ap
forward_mp
forward_argmax
forward_gather
forward_argmin
forward_reduce_log_sum_exp
forward_reduce
sqrtf
forward_instanceNormalization
forward_norm
forward_sign
forward_lrn
forward_tile
forward_concat
