ARM GAS  /tmp/ccEo7NLA.s 			page 1


   1              		.arch armv8.1-m.main
   2              		.fpu fpv5-d16
   3              		.arch_extension dsp
   4              		.arch_extension fp
   5              		.arch_extension fp.dp
   6              		.arch_extension mve
   7              		.arch_extension mve.fp
   8              		.eabi_attribute 5, "cortex-m55"
   9              		.eabi_attribute 28, 1
  10              		.eabi_attribute 20, 1
  11              		.eabi_attribute 21, 1
  12              		.eabi_attribute 23, 3
  13              		.eabi_attribute 24, 1
  14              		.eabi_attribute 25, 1
  15              		.eabi_attribute 26, 1
  16              		.eabi_attribute 30, 6
  17              		.eabi_attribute 34, 1
  18              		.eabi_attribute 38, 1
  19              		.eabi_attribute 18, 4
  20              		.file	"ll_sw_float.c"
  21              		.text
  22              	.Ltext0:
  23              		.cfi_sections	.debug_frame
  24              		.file 1 "Lib/AI_Runtime/Npu/ll_aton/ll_sw_float.c"
  25              		.section	.text.ai_shape_get_size,"ax",%progbits
  26              		.align	1
  27              		.syntax unified
  28              		.thumb
  29              		.thumb_func
  31              	ai_shape_get_size:
  32              	.LFB6:
  33              		.file 2 "Lib/AI_Runtime/Inc/ai_datatypes_internal.h"
   1:Lib/AI_Runtime/Inc/ai_datatypes_internal.h **** /**
   2:Lib/AI_Runtime/Inc/ai_datatypes_internal.h ****   ******************************************************************************
   3:Lib/AI_Runtime/Inc/ai_datatypes_internal.h ****   * @file    ai_datatypes_internal.h
   4:Lib/AI_Runtime/Inc/ai_datatypes_internal.h ****   * @author  AST Embedded Analytics Research Platform
   5:Lib/AI_Runtime/Inc/ai_datatypes_internal.h ****   * @brief   Definitions of AI platform private APIs types
   6:Lib/AI_Runtime/Inc/ai_datatypes_internal.h ****   ******************************************************************************
   7:Lib/AI_Runtime/Inc/ai_datatypes_internal.h ****   * @attention
   8:Lib/AI_Runtime/Inc/ai_datatypes_internal.h ****   *
   9:Lib/AI_Runtime/Inc/ai_datatypes_internal.h ****   * Copyright (c) 2017 STMicroelectronics.
  10:Lib/AI_Runtime/Inc/ai_datatypes_internal.h ****   * All rights reserved.
  11:Lib/AI_Runtime/Inc/ai_datatypes_internal.h ****   *
  12:Lib/AI_Runtime/Inc/ai_datatypes_internal.h ****   * This software is licensed under terms that can be found in the LICENSE file
  13:Lib/AI_Runtime/Inc/ai_datatypes_internal.h ****   * in the root directory of this software component.
  14:Lib/AI_Runtime/Inc/ai_datatypes_internal.h ****   * If no LICENSE file comes with this software, it is provided AS-IS.
  15:Lib/AI_Runtime/Inc/ai_datatypes_internal.h ****   *
  16:Lib/AI_Runtime/Inc/ai_datatypes_internal.h ****   ******************************************************************************
  17:Lib/AI_Runtime/Inc/ai_datatypes_internal.h ****   */
  18:Lib/AI_Runtime/Inc/ai_datatypes_internal.h **** #ifndef AI_DATATYPES_INTERNAL_H
  19:Lib/AI_Runtime/Inc/ai_datatypes_internal.h **** #define AI_DATATYPES_INTERNAL_H
  20:Lib/AI_Runtime/Inc/ai_datatypes_internal.h **** 
  21:Lib/AI_Runtime/Inc/ai_datatypes_internal.h **** #include "ai_datatypes.h"
  22:Lib/AI_Runtime/Inc/ai_datatypes_internal.h **** #include "ai_datatypes_defines.h"
  23:Lib/AI_Runtime/Inc/ai_datatypes_internal.h **** 
  24:Lib/AI_Runtime/Inc/ai_datatypes_internal.h **** /*!
  25:Lib/AI_Runtime/Inc/ai_datatypes_internal.h ****  * @defgroup datatypes_internal Internal Datatypes
ARM GAS  /tmp/ccEo7NLA.s 			page 2


  26:Lib/AI_Runtime/Inc/ai_datatypes_internal.h ****  * @brief Data structures used internally to implement neural networks
  27:Lib/AI_Runtime/Inc/ai_datatypes_internal.h ****  *
  28:Lib/AI_Runtime/Inc/ai_datatypes_internal.h ****  * The layers are defined as structs; a generic layer type defines the basic
  29:Lib/AI_Runtime/Inc/ai_datatypes_internal.h ****  * layer parameters and type-specific parameters are handled by specializations
  30:Lib/AI_Runtime/Inc/ai_datatypes_internal.h ****  * implemented as a C union. The layers keep also a pointer to the parent
  31:Lib/AI_Runtime/Inc/ai_datatypes_internal.h ****  * network and the next layer in the network.
  32:Lib/AI_Runtime/Inc/ai_datatypes_internal.h ****  * The input, output and parameters are tensor with an hard-coded maximum
  33:Lib/AI_Runtime/Inc/ai_datatypes_internal.h ****  * dimension of 4. Tensors are floating point arrays with a notion of size.
  34:Lib/AI_Runtime/Inc/ai_datatypes_internal.h ****  * The network is a linked list of layers, and thus it stores only the pointer
  35:Lib/AI_Runtime/Inc/ai_datatypes_internal.h ****  * to the first layer.
  36:Lib/AI_Runtime/Inc/ai_datatypes_internal.h ****  */
  37:Lib/AI_Runtime/Inc/ai_datatypes_internal.h **** 
  38:Lib/AI_Runtime/Inc/ai_datatypes_internal.h **** /*!
  39:Lib/AI_Runtime/Inc/ai_datatypes_internal.h ****  * @section Offsets
  40:Lib/AI_Runtime/Inc/ai_datatypes_internal.h ****  * @ingroup datatypes_internal
  41:Lib/AI_Runtime/Inc/ai_datatypes_internal.h ****  * Macros to handle (byte) stride addressing on tensors. The `AI_PTR` macro
  42:Lib/AI_Runtime/Inc/ai_datatypes_internal.h ****  * is used to always cast a pointer to byte array. The macros `AI_OFFSET_X` are
  43:Lib/AI_Runtime/Inc/ai_datatypes_internal.h ****  * used to compute (byte) offsets of respectively adjacents row elements, col
  44:Lib/AI_Runtime/Inc/ai_datatypes_internal.h ****  * elements, channel elements and `channel_in` elements.
  45:Lib/AI_Runtime/Inc/ai_datatypes_internal.h ****  * @{
  46:Lib/AI_Runtime/Inc/ai_datatypes_internal.h ****  */
  47:Lib/AI_Runtime/Inc/ai_datatypes_internal.h **** 
  48:Lib/AI_Runtime/Inc/ai_datatypes_internal.h **** /*!  AI_STORAGE_KLASS SECTION              ************************************/
  49:Lib/AI_Runtime/Inc/ai_datatypes_internal.h **** #define AI_STORAGE_KLASS_TYPE(s_) \
  50:Lib/AI_Runtime/Inc/ai_datatypes_internal.h ****   ( (s_)->type )
  51:Lib/AI_Runtime/Inc/ai_datatypes_internal.h **** 
  52:Lib/AI_Runtime/Inc/ai_datatypes_internal.h **** #define AI_STORAGE_KLASS_SIZE(s_) \
  53:Lib/AI_Runtime/Inc/ai_datatypes_internal.h ****   ( (s_)->size )
  54:Lib/AI_Runtime/Inc/ai_datatypes_internal.h **** 
  55:Lib/AI_Runtime/Inc/ai_datatypes_internal.h **** #define AI_STORAGE_KLASS_DATA(s_, type_) \
  56:Lib/AI_Runtime/Inc/ai_datatypes_internal.h ****   ( (type_*)((s_)->data) )
  57:Lib/AI_Runtime/Inc/ai_datatypes_internal.h **** 
  58:Lib/AI_Runtime/Inc/ai_datatypes_internal.h **** #define AI_STORAGE_KLASS_COPY(dst_, dst_type_, src_, src_type_) \
  59:Lib/AI_Runtime/Inc/ai_datatypes_internal.h **** { \
  60:Lib/AI_Runtime/Inc/ai_datatypes_internal.h ****   AI_ASSERT(AI_STORAGE_KLASS_SIZE(src_)>=AI_STORAGE_KLASS_SIZE(dst_)) \
  61:Lib/AI_Runtime/Inc/ai_datatypes_internal.h ****   AI_STORAGE_KLASS_SIZE(dst_) = AI_STORAGE_KLASS_SIZE(src_); \
  62:Lib/AI_Runtime/Inc/ai_datatypes_internal.h ****   for (ai_size i=0; i<AI_STORAGE_KLASS_SIZE(dst_); i++ ) { \
  63:Lib/AI_Runtime/Inc/ai_datatypes_internal.h ****     AI_STORAGE_KLASS_DATA(dst_, dst_type_)[i] = \
  64:Lib/AI_Runtime/Inc/ai_datatypes_internal.h ****       AI_STORAGE_KLASS_DATA(src_, src_type_)[i]; \
  65:Lib/AI_Runtime/Inc/ai_datatypes_internal.h ****   } \
  66:Lib/AI_Runtime/Inc/ai_datatypes_internal.h **** }
  67:Lib/AI_Runtime/Inc/ai_datatypes_internal.h **** 
  68:Lib/AI_Runtime/Inc/ai_datatypes_internal.h **** #define AI_STORAGE_KLASS_DUMP(s_, pfx_, post_, fmt_, type_) \
  69:Lib/AI_Runtime/Inc/ai_datatypes_internal.h **** { \
  70:Lib/AI_Runtime/Inc/ai_datatypes_internal.h ****   AI_ASSERT(s_) \
  71:Lib/AI_Runtime/Inc/ai_datatypes_internal.h ****   AI_DEBUG_PRINT(pfx_, AI_STORAGE_KLASS_SIZE(s_)) \
  72:Lib/AI_Runtime/Inc/ai_datatypes_internal.h ****   for ( ai_u32 i=0; i<AI_STORAGE_KLASS_SIZE(s_); i++ ) { \
  73:Lib/AI_Runtime/Inc/ai_datatypes_internal.h ****     if ( (i % 8)==0 ) { AI_DEBUG_PRINT("\n      ") } \
  74:Lib/AI_Runtime/Inc/ai_datatypes_internal.h ****     AI_DEBUG_PRINT(fmt_, AI_STORAGE_KLASS_DATA(s_, type_)[i]) \
  75:Lib/AI_Runtime/Inc/ai_datatypes_internal.h ****   } \
  76:Lib/AI_Runtime/Inc/ai_datatypes_internal.h ****   AI_DEBUG_PRINT(post_) \
  77:Lib/AI_Runtime/Inc/ai_datatypes_internal.h **** }
  78:Lib/AI_Runtime/Inc/ai_datatypes_internal.h **** 
  79:Lib/AI_Runtime/Inc/ai_datatypes_internal.h **** /*!  AI_SHAPES SECTION                     ************************************/
  80:Lib/AI_Runtime/Inc/ai_datatypes_internal.h **** #define AI_SHAPE_2D_H(shape_) \
  81:Lib/AI_Runtime/Inc/ai_datatypes_internal.h ****   AI_SHAPE_ELEM(shape_, AI_SHAPE_2D_HEIGHT)
  82:Lib/AI_Runtime/Inc/ai_datatypes_internal.h **** 
ARM GAS  /tmp/ccEo7NLA.s 			page 3


  83:Lib/AI_Runtime/Inc/ai_datatypes_internal.h **** #define AI_SHAPE_2D_W(shape_) \
  84:Lib/AI_Runtime/Inc/ai_datatypes_internal.h ****   AI_SHAPE_ELEM(shape_, AI_SHAPE_2D_WIDTH)
  85:Lib/AI_Runtime/Inc/ai_datatypes_internal.h **** 
  86:Lib/AI_Runtime/Inc/ai_datatypes_internal.h **** #define AI_SHAPE_ELEM(shape_, pos_) \
  87:Lib/AI_Runtime/Inc/ai_datatypes_internal.h ****   AI_STORAGE_KLASS_DATA(shape_, ai_shape_dimension)[pos_]
  88:Lib/AI_Runtime/Inc/ai_datatypes_internal.h **** 
  89:Lib/AI_Runtime/Inc/ai_datatypes_internal.h **** #define AI_SHAPE_GET_ELEM(shape_, pos_) \
  90:Lib/AI_Runtime/Inc/ai_datatypes_internal.h ****   (((pos_) < AI_SHAPE_SIZE(shape_)) ? AI_SHAPE_ELEM(shape_, pos_) : 1)
  91:Lib/AI_Runtime/Inc/ai_datatypes_internal.h **** 
  92:Lib/AI_Runtime/Inc/ai_datatypes_internal.h **** #define AI_SHAPE_SET_ELEM(shape_, pos_, val_) \
  93:Lib/AI_Runtime/Inc/ai_datatypes_internal.h ****   if ((pos_) < AI_SHAPE_SIZE(shape_)) { AI_SHAPE_ELEM(shape_, pos_) = (val_); }
  94:Lib/AI_Runtime/Inc/ai_datatypes_internal.h **** 
  95:Lib/AI_Runtime/Inc/ai_datatypes_internal.h **** #define AI_SHAPE_TYPE(shape_) \
  96:Lib/AI_Runtime/Inc/ai_datatypes_internal.h ****   AI_STORAGE_KLASS_TYPE(shape_)
  97:Lib/AI_Runtime/Inc/ai_datatypes_internal.h **** 
  98:Lib/AI_Runtime/Inc/ai_datatypes_internal.h **** #define AI_SHAPE_SIZE(shape_) \
  99:Lib/AI_Runtime/Inc/ai_datatypes_internal.h ****   AI_STORAGE_KLASS_SIZE(shape_)
 100:Lib/AI_Runtime/Inc/ai_datatypes_internal.h **** 
 101:Lib/AI_Runtime/Inc/ai_datatypes_internal.h **** #define AI_SHAPE_CLONE(dst_, src_) \
 102:Lib/AI_Runtime/Inc/ai_datatypes_internal.h ****   AI_STORAGE_KLASS_COPY(dst_, ai_shape_dimension, src_, ai_shape_dimension)
 103:Lib/AI_Runtime/Inc/ai_datatypes_internal.h **** 
 104:Lib/AI_Runtime/Inc/ai_datatypes_internal.h **** #define AI_SHAPE_BCAST_CLONE(dst_, src_) \
 105:Lib/AI_Runtime/Inc/ai_datatypes_internal.h **** { \
 106:Lib/AI_Runtime/Inc/ai_datatypes_internal.h ****   for (ai_size i = 0; i < AI_SHAPE_SIZE(dst_); i++) { \
 107:Lib/AI_Runtime/Inc/ai_datatypes_internal.h ****     AI_SHAPE_SET_ELEM(dst_, i, AI_SHAPE_GET_ELEM(src_, i)); \
 108:Lib/AI_Runtime/Inc/ai_datatypes_internal.h ****   } \
 109:Lib/AI_Runtime/Inc/ai_datatypes_internal.h **** }
 110:Lib/AI_Runtime/Inc/ai_datatypes_internal.h **** 
 111:Lib/AI_Runtime/Inc/ai_datatypes_internal.h **** //#define AI_SHAPE_BATCH(shape_)      AI_SHAPE_ELEM((shape_), AI_SHAPE_BATCH_CHANNEL)
 112:Lib/AI_Runtime/Inc/ai_datatypes_internal.h **** #define AI_SHAPE_H(shape_)          AI_SHAPE_ELEM((shape_), AI_SHAPE_HEIGHT)
 113:Lib/AI_Runtime/Inc/ai_datatypes_internal.h **** #define AI_SHAPE_W(shape_)          AI_SHAPE_ELEM((shape_), AI_SHAPE_WIDTH)
 114:Lib/AI_Runtime/Inc/ai_datatypes_internal.h **** #define AI_SHAPE_CH(shape_)         AI_SHAPE_ELEM((shape_), AI_SHAPE_CHANNEL)
 115:Lib/AI_Runtime/Inc/ai_datatypes_internal.h **** #define AI_SHAPE_IN_CH(shape_)      AI_SHAPE_ELEM((shape_), AI_SHAPE_IN_CHANNEL)
 116:Lib/AI_Runtime/Inc/ai_datatypes_internal.h **** #define AI_SHAPE_D(shape_)          ((AI_SHAPE_SIZE((shape_)) > AI_SHAPE_DEPTH) \
 117:Lib/AI_Runtime/Inc/ai_datatypes_internal.h ****   ? AI_SHAPE_ELEM((shape_), AI_SHAPE_DEPTH) : 1)
 118:Lib/AI_Runtime/Inc/ai_datatypes_internal.h **** #define AI_SHAPE_E(shape_)          ((AI_SHAPE_SIZE((shape_)) > AI_SHAPE_EXTENSION) \
 119:Lib/AI_Runtime/Inc/ai_datatypes_internal.h ****   ? AI_SHAPE_ELEM((shape_), AI_SHAPE_EXTENSION) : 1)
 120:Lib/AI_Runtime/Inc/ai_datatypes_internal.h **** #define AI_SHAPE_T(shape_)          AI_SHAPE_ELEM((shape_), AI_SHAPE_TIME)
 121:Lib/AI_Runtime/Inc/ai_datatypes_internal.h **** 
 122:Lib/AI_Runtime/Inc/ai_datatypes_internal.h **** #define AI_CONV_SHAPE_H             AI_SHAPE_W
 123:Lib/AI_Runtime/Inc/ai_datatypes_internal.h **** #define AI_CONV_SHAPE_W             AI_SHAPE_CH
 124:Lib/AI_Runtime/Inc/ai_datatypes_internal.h **** #define AI_CONV_SHAPE_CH            AI_SHAPE_H
 125:Lib/AI_Runtime/Inc/ai_datatypes_internal.h **** #define AI_CONV_SHAPE_IN_CH         AI_SHAPE_IN_CH
 126:Lib/AI_Runtime/Inc/ai_datatypes_internal.h **** 
 127:Lib/AI_Runtime/Inc/ai_datatypes_internal.h **** /*!  AI_STRIDES SECTION                     ***********************************/
 128:Lib/AI_Runtime/Inc/ai_datatypes_internal.h **** #define AI_STRIDE_2D_H(stride_) \
 129:Lib/AI_Runtime/Inc/ai_datatypes_internal.h ****   AI_STRIDE_ELEM((stride_), AI_SHAPE_2D_HEIGHT)
 130:Lib/AI_Runtime/Inc/ai_datatypes_internal.h **** 
 131:Lib/AI_Runtime/Inc/ai_datatypes_internal.h **** #define AI_STRIDE_2D_W(stride_) \
 132:Lib/AI_Runtime/Inc/ai_datatypes_internal.h ****   AI_STRIDE_ELEM((stride_), AI_SHAPE_2D_WIDTH)
 133:Lib/AI_Runtime/Inc/ai_datatypes_internal.h **** 
 134:Lib/AI_Runtime/Inc/ai_datatypes_internal.h **** #define AI_STRIDE_ELEM(stride_, pos_) \
 135:Lib/AI_Runtime/Inc/ai_datatypes_internal.h ****   AI_STORAGE_KLASS_DATA(stride_, ai_stride_dimension)[pos_]
 136:Lib/AI_Runtime/Inc/ai_datatypes_internal.h **** 
 137:Lib/AI_Runtime/Inc/ai_datatypes_internal.h **** #define AI_STRIDE_GET_ELEM(stride_, pos_) \
 138:Lib/AI_Runtime/Inc/ai_datatypes_internal.h ****   (((pos_) < AI_STRIDE_SIZE(stride_)) ? AI_STRIDE_ELEM(stride_, pos_) : 0)
 139:Lib/AI_Runtime/Inc/ai_datatypes_internal.h **** 
ARM GAS  /tmp/ccEo7NLA.s 			page 4


 140:Lib/AI_Runtime/Inc/ai_datatypes_internal.h **** #define AI_STRIDE_SET_ELEM(stride_, pos_, val_) \
 141:Lib/AI_Runtime/Inc/ai_datatypes_internal.h ****   if ((pos_) < AI_STRIDE_SIZE(stride_)) AI_STRIDE_ELEM(stride_, pos_) = (val_);
 142:Lib/AI_Runtime/Inc/ai_datatypes_internal.h **** 
 143:Lib/AI_Runtime/Inc/ai_datatypes_internal.h **** #define AI_STRIDE_TYPE(stride_) \
 144:Lib/AI_Runtime/Inc/ai_datatypes_internal.h ****   AI_STORAGE_KLASS_TYPE(stride_)
 145:Lib/AI_Runtime/Inc/ai_datatypes_internal.h **** 
 146:Lib/AI_Runtime/Inc/ai_datatypes_internal.h **** #define AI_STRIDE_SIZE(stride_) \
 147:Lib/AI_Runtime/Inc/ai_datatypes_internal.h ****   AI_STORAGE_KLASS_SIZE(stride_)
 148:Lib/AI_Runtime/Inc/ai_datatypes_internal.h **** 
 149:Lib/AI_Runtime/Inc/ai_datatypes_internal.h **** #define AI_STRIDE_CLONE(dst_, src_) \
 150:Lib/AI_Runtime/Inc/ai_datatypes_internal.h ****   AI_STORAGE_KLASS_COPY(dst_, ai_stride_dimension, src_, ai_stride_dimension)
 151:Lib/AI_Runtime/Inc/ai_datatypes_internal.h **** 
 152:Lib/AI_Runtime/Inc/ai_datatypes_internal.h **** #define AI_STRIDE_BCAST_CLONE(dst_, src_) \
 153:Lib/AI_Runtime/Inc/ai_datatypes_internal.h **** { \
 154:Lib/AI_Runtime/Inc/ai_datatypes_internal.h ****   for (ai_size i=0; i<AI_STRIDE_SIZE(dst_); i++) { \
 155:Lib/AI_Runtime/Inc/ai_datatypes_internal.h ****     AI_STRIDE_SET_ELEM(dst_, i, AI_STRIDE_GET_ELEM(src_, i)); \
 156:Lib/AI_Runtime/Inc/ai_datatypes_internal.h ****   } \
 157:Lib/AI_Runtime/Inc/ai_datatypes_internal.h **** }
 158:Lib/AI_Runtime/Inc/ai_datatypes_internal.h **** 
 159:Lib/AI_Runtime/Inc/ai_datatypes_internal.h **** //#define AI_STRIDE_BATCH(stride)     AI_STRIDE_ELEM((stride), AI_SHAPE_BATCH_CHANNEL)
 160:Lib/AI_Runtime/Inc/ai_datatypes_internal.h **** #define AI_STRIDE_H(stride)         AI_STRIDE_ELEM((stride), AI_SHAPE_HEIGHT)
 161:Lib/AI_Runtime/Inc/ai_datatypes_internal.h **** #define AI_STRIDE_W(stride)         AI_STRIDE_ELEM((stride), AI_SHAPE_WIDTH)
 162:Lib/AI_Runtime/Inc/ai_datatypes_internal.h **** #define AI_STRIDE_CH(stride)        AI_STRIDE_ELEM((stride), AI_SHAPE_CHANNEL)
 163:Lib/AI_Runtime/Inc/ai_datatypes_internal.h **** #define AI_STRIDE_IN_CH(stride)     AI_STRIDE_ELEM((stride), AI_SHAPE_IN_CHANNEL)
 164:Lib/AI_Runtime/Inc/ai_datatypes_internal.h **** #define AI_STRIDE_D(stride)         ((AI_STRIDE_SIZE((stride)) >= 5) ? AI_STRIDE_ELEM((stride), AI_
 165:Lib/AI_Runtime/Inc/ai_datatypes_internal.h **** #define AI_STRIDE_E(stride)         ((AI_STRIDE_SIZE((stride)) == 6) ? AI_STRIDE_ELEM((stride), AI_
 166:Lib/AI_Runtime/Inc/ai_datatypes_internal.h **** #define AI_STRIDE_T(stride)         AI_STRIDE_ELEM((stride), AI_SHAPE_TIME)
 167:Lib/AI_Runtime/Inc/ai_datatypes_internal.h **** 
 168:Lib/AI_Runtime/Inc/ai_datatypes_internal.h **** #define AI_STRIDE_SET_H(stride, val)         AI_STRIDE_SET_ELEM((stride), AI_SHAPE_HEIGHT, val)
 169:Lib/AI_Runtime/Inc/ai_datatypes_internal.h **** #define AI_STRIDE_SET_W(stride, val)         AI_STRIDE_SET_ELEM((stride), AI_SHAPE_WIDTH, val)
 170:Lib/AI_Runtime/Inc/ai_datatypes_internal.h **** #define AI_STRIDE_SET_CH(stride, val)        AI_STRIDE_SET_ELEM((stride), AI_SHAPE_CHANNEL, val)
 171:Lib/AI_Runtime/Inc/ai_datatypes_internal.h **** #define AI_STRIDE_SET_IN_CH(stride, val)     AI_STRIDE_SET_ELEM((stride), AI_SHAPE_IN_CHANNEL, val)
 172:Lib/AI_Runtime/Inc/ai_datatypes_internal.h **** #define AI_STRIDE_SET_D(stride, val)         if (AI_STRIDE_SIZE((stride)) >= 5) AI_STRIDE_SET_ELEM(
 173:Lib/AI_Runtime/Inc/ai_datatypes_internal.h **** #define AI_STRIDE_SET_E(stride, val)         if (AI_STRIDE_SIZE((stride)) == 6) AI_STRIDE_SET_ELEM(
 174:Lib/AI_Runtime/Inc/ai_datatypes_internal.h **** 
 175:Lib/AI_Runtime/Inc/ai_datatypes_internal.h **** /*!  AI_TENSORS SECTION                     ***********************************/
 176:Lib/AI_Runtime/Inc/ai_datatypes_internal.h **** #define AI_TENSOR_KLASS(tensor_) \
 177:Lib/AI_Runtime/Inc/ai_datatypes_internal.h ****   ((tensor_) ? (tensor_)->klass : NULL)
 178:Lib/AI_Runtime/Inc/ai_datatypes_internal.h **** 
 179:Lib/AI_Runtime/Inc/ai_datatypes_internal.h **** #define AI_TENSOR_SHAPE(tensor_) \
 180:Lib/AI_Runtime/Inc/ai_datatypes_internal.h ****   (&((tensor_)->shape))
 181:Lib/AI_Runtime/Inc/ai_datatypes_internal.h **** 
 182:Lib/AI_Runtime/Inc/ai_datatypes_internal.h **** #define AI_TENSOR_STRIDE(tensor_) \
 183:Lib/AI_Runtime/Inc/ai_datatypes_internal.h ****   (&((tensor_)->stride))
 184:Lib/AI_Runtime/Inc/ai_datatypes_internal.h **** 
 185:Lib/AI_Runtime/Inc/ai_datatypes_internal.h **** #define AI_TENSOR_INFO(tensor_) \
 186:Lib/AI_Runtime/Inc/ai_datatypes_internal.h ****   (&((tensor_)->info))
 187:Lib/AI_Runtime/Inc/ai_datatypes_internal.h **** 
 188:Lib/AI_Runtime/Inc/ai_datatypes_internal.h **** #define AI_TENSOR_ARRAY(tensor_) \
 189:Lib/AI_Runtime/Inc/ai_datatypes_internal.h ****   ((tensor_) ? (tensor_)->data : NULL)
 190:Lib/AI_Runtime/Inc/ai_datatypes_internal.h **** 
 191:Lib/AI_Runtime/Inc/ai_datatypes_internal.h **** #define AI_TENSOR_ID(tensor_) \
 192:Lib/AI_Runtime/Inc/ai_datatypes_internal.h ****   ((tensor_) ? AI_TENSOR_INFO(tensor_)->id : 0)
 193:Lib/AI_Runtime/Inc/ai_datatypes_internal.h **** 
 194:Lib/AI_Runtime/Inc/ai_datatypes_internal.h **** #define AI_TENSOR_FLAGS(tensor_) \
 195:Lib/AI_Runtime/Inc/ai_datatypes_internal.h ****   ((tensor_) ? AI_TENSOR_INFO(tensor_)->flags : 0)
 196:Lib/AI_Runtime/Inc/ai_datatypes_internal.h **** 
ARM GAS  /tmp/ccEo7NLA.s 			page 5


 197:Lib/AI_Runtime/Inc/ai_datatypes_internal.h **** #define AI_TENSOR_DATA_SIZE(tensor_) \
 198:Lib/AI_Runtime/Inc/ai_datatypes_internal.h ****   ((tensor_) ? AI_TENSOR_INFO(tensor_)->data_size : 0)
 199:Lib/AI_Runtime/Inc/ai_datatypes_internal.h **** 
 200:Lib/AI_Runtime/Inc/ai_datatypes_internal.h **** /*!  AI_OFFSETS SECTION                     ***********************************/
 201:Lib/AI_Runtime/Inc/ai_datatypes_internal.h **** //#define AI_OFFSET_BATCH(b, stride)  ((ai_ptr_offset)(b)  * AI_STRIDE_BATCH(stride))
 202:Lib/AI_Runtime/Inc/ai_datatypes_internal.h **** #define AI_OFFSET_H(y, stride)      ((ai_ptr_offset)(y)  * AI_STRIDE_H(stride))
 203:Lib/AI_Runtime/Inc/ai_datatypes_internal.h **** #define AI_OFFSET_W(x, stride)      ((ai_ptr_offset)(x)  * AI_STRIDE_W(stride))
 204:Lib/AI_Runtime/Inc/ai_datatypes_internal.h **** #define AI_OFFSET_CH(ch, stride)    ((ai_ptr_offset)(ch) * AI_STRIDE_CH(stride))
 205:Lib/AI_Runtime/Inc/ai_datatypes_internal.h **** #define AI_OFFSET_IN_CH(in_ch, stride) ((ai_ptr_offset)(in_ch) * \
 206:Lib/AI_Runtime/Inc/ai_datatypes_internal.h ****                                       AI_STRIDE_IN_CH(stride))
 207:Lib/AI_Runtime/Inc/ai_datatypes_internal.h **** #define AI_OFFSET_D(d, stride)      ((ai_ptr_offset)(d) * AI_STRIDE_D(stride))
 208:Lib/AI_Runtime/Inc/ai_datatypes_internal.h **** #define AI_OFFSET_E(e, stride)      ((ai_ptr_offset)(e) * AI_STRIDE_E(stride))
 209:Lib/AI_Runtime/Inc/ai_datatypes_internal.h **** 
 210:Lib/AI_Runtime/Inc/ai_datatypes_internal.h **** #define AI_OFFSET_5D(y, x, d, e, ch, stride) ( \
 211:Lib/AI_Runtime/Inc/ai_datatypes_internal.h ****   AI_OFFSET_H((y), (stride)) + AI_OFFSET_W((x), (stride)) + \
 212:Lib/AI_Runtime/Inc/ai_datatypes_internal.h ****   AI_OFFSET_D((d), (stride)) + AI_OFFSET_E((e), (stride)) + \
 213:Lib/AI_Runtime/Inc/ai_datatypes_internal.h ****   AI_OFFSET_CH((ch), (stride)) )
 214:Lib/AI_Runtime/Inc/ai_datatypes_internal.h **** 
 215:Lib/AI_Runtime/Inc/ai_datatypes_internal.h **** #define AI_OFFSET(y, x, ch, z, stride) ( \
 216:Lib/AI_Runtime/Inc/ai_datatypes_internal.h ****   AI_OFFSET_H((y), (stride)) + AI_OFFSET_W((x), (stride)) + \
 217:Lib/AI_Runtime/Inc/ai_datatypes_internal.h ****   AI_OFFSET_CH((ch), (stride)) + \
 218:Lib/AI_Runtime/Inc/ai_datatypes_internal.h ****   ((AI_STRIDE_SIZE((stride)) == 4) ? AI_OFFSET_IN_CH((z), (stride)) : AI_OFFSET_D((z), (stride))) )
 219:Lib/AI_Runtime/Inc/ai_datatypes_internal.h **** 
 220:Lib/AI_Runtime/Inc/ai_datatypes_internal.h **** /*! @} */
 221:Lib/AI_Runtime/Inc/ai_datatypes_internal.h **** 
 222:Lib/AI_Runtime/Inc/ai_datatypes_internal.h **** #define AI_GET_CONV_OUT_SIZE(in_size, filt_size, pad_l, pad_r, filt_stride) \
 223:Lib/AI_Runtime/Inc/ai_datatypes_internal.h ****   ((((in_size) - (filt_size) + (pad_l) + (pad_r)) / (filt_stride)) + 1)
 224:Lib/AI_Runtime/Inc/ai_datatypes_internal.h **** 
 225:Lib/AI_Runtime/Inc/ai_datatypes_internal.h **** 
 226:Lib/AI_Runtime/Inc/ai_datatypes_internal.h **** /** Tensors datatypes defines handlers ****************************************/
 227:Lib/AI_Runtime/Inc/ai_datatypes_internal.h **** #define AI_TENSOR_SIZE(tensor_) \
 228:Lib/AI_Runtime/Inc/ai_datatypes_internal.h ****   get_tensor_size(tensor_, true)
 229:Lib/AI_Runtime/Inc/ai_datatypes_internal.h **** 
 230:Lib/AI_Runtime/Inc/ai_datatypes_internal.h **** #define AI_TENSOR_SIZE_UNPAD(tensor_) \
 231:Lib/AI_Runtime/Inc/ai_datatypes_internal.h ****   get_tensor_size(tensor_, false)
 232:Lib/AI_Runtime/Inc/ai_datatypes_internal.h **** 
 233:Lib/AI_Runtime/Inc/ai_datatypes_internal.h **** #define AI_TENSOR_BYTE_SIZE(tensor_) \
 234:Lib/AI_Runtime/Inc/ai_datatypes_internal.h ****   get_tensor_byte_size(tensor_)
 235:Lib/AI_Runtime/Inc/ai_datatypes_internal.h **** 
 236:Lib/AI_Runtime/Inc/ai_datatypes_internal.h **** 
 237:Lib/AI_Runtime/Inc/ai_datatypes_internal.h **** /******************************************************************************/
 238:Lib/AI_Runtime/Inc/ai_datatypes_internal.h **** #define AI_PLATFORM_VERSION_INIT(major_, minor_, micro_) \
 239:Lib/AI_Runtime/Inc/ai_datatypes_internal.h ****   { .major = (major_), .minor = (minor_), .micro = (micro_), .reserved = 0x0 }
 240:Lib/AI_Runtime/Inc/ai_datatypes_internal.h **** 
 241:Lib/AI_Runtime/Inc/ai_datatypes_internal.h **** 
 242:Lib/AI_Runtime/Inc/ai_datatypes_internal.h **** /** Integer tensor info extraction ********************************************/
 243:Lib/AI_Runtime/Inc/ai_datatypes_internal.h **** #define AI_INTQ_INFO_LIST_SCALE_ARRAY(list_, type_) \
 244:Lib/AI_Runtime/Inc/ai_datatypes_internal.h ****   ( ((list_) && (list_)->info) \
 245:Lib/AI_Runtime/Inc/ai_datatypes_internal.h ****     ? ((type_*)((list_)->info->scale)) : NULL )
 246:Lib/AI_Runtime/Inc/ai_datatypes_internal.h **** 
 247:Lib/AI_Runtime/Inc/ai_datatypes_internal.h **** #define AI_INTQ_INFO_LIST_ZEROPOINT_ARRAY(list_, type_) \
 248:Lib/AI_Runtime/Inc/ai_datatypes_internal.h ****   ( ((list_) && (list_)->info) \
 249:Lib/AI_Runtime/Inc/ai_datatypes_internal.h ****     ? ((type_*)((list_)->info->zeropoint)) : NULL )
 250:Lib/AI_Runtime/Inc/ai_datatypes_internal.h **** 
 251:Lib/AI_Runtime/Inc/ai_datatypes_internal.h **** #define AI_KLASS_GET_INTQ_INFO_LIST(tensor_) \
 252:Lib/AI_Runtime/Inc/ai_datatypes_internal.h ****   ((ai_intq_info_list*)((tensor_)->klass))
 253:Lib/AI_Runtime/Inc/ai_datatypes_internal.h **** 
ARM GAS  /tmp/ccEo7NLA.s 			page 6


 254:Lib/AI_Runtime/Inc/ai_datatypes_internal.h **** 
 255:Lib/AI_Runtime/Inc/ai_datatypes_internal.h **** AI_API_DECLARE_BEGIN
 256:Lib/AI_Runtime/Inc/ai_datatypes_internal.h **** 
 257:Lib/AI_Runtime/Inc/ai_datatypes_internal.h **** /*!
 258:Lib/AI_Runtime/Inc/ai_datatypes_internal.h ****  * @brief Check whether 2 shapes have identical dimensions.
 259:Lib/AI_Runtime/Inc/ai_datatypes_internal.h ****  * @ingroup datatypes_internal
 260:Lib/AI_Runtime/Inc/ai_datatypes_internal.h ****  * @param shape0 the 1st tensor shape to compare
 261:Lib/AI_Runtime/Inc/ai_datatypes_internal.h ****  * @param shape1 the 2nd tensor shape to compare
 262:Lib/AI_Runtime/Inc/ai_datatypes_internal.h ****  * @return true if shape0 and shape1 have same dimensions. false otherwise
 263:Lib/AI_Runtime/Inc/ai_datatypes_internal.h ****  */
 264:Lib/AI_Runtime/Inc/ai_datatypes_internal.h **** AI_DECLARE_STATIC
 265:Lib/AI_Runtime/Inc/ai_datatypes_internal.h **** ai_bool ai_shape_is_same(
 266:Lib/AI_Runtime/Inc/ai_datatypes_internal.h ****   const ai_shape* shape0, const ai_shape* shape1)
 267:Lib/AI_Runtime/Inc/ai_datatypes_internal.h **** {
 268:Lib/AI_Runtime/Inc/ai_datatypes_internal.h ****   AI_ASSERT(shape0 && shape1)
 269:Lib/AI_Runtime/Inc/ai_datatypes_internal.h ****   if (AI_SHAPE_SIZE(shape0) != AI_SHAPE_SIZE(shape1))
 270:Lib/AI_Runtime/Inc/ai_datatypes_internal.h ****     return false;
 271:Lib/AI_Runtime/Inc/ai_datatypes_internal.h ****   ai_size dim = AI_SHAPE_SIZE(shape0);
 272:Lib/AI_Runtime/Inc/ai_datatypes_internal.h ****   while ( dim>0 ) {
 273:Lib/AI_Runtime/Inc/ai_datatypes_internal.h ****     dim--;
 274:Lib/AI_Runtime/Inc/ai_datatypes_internal.h ****     if ( AI_SHAPE_ELEM(shape0, dim)!=AI_SHAPE_ELEM(shape1, dim) )
 275:Lib/AI_Runtime/Inc/ai_datatypes_internal.h ****       return false;
 276:Lib/AI_Runtime/Inc/ai_datatypes_internal.h ****   }
 277:Lib/AI_Runtime/Inc/ai_datatypes_internal.h ****   return true;
 278:Lib/AI_Runtime/Inc/ai_datatypes_internal.h **** }
 279:Lib/AI_Runtime/Inc/ai_datatypes_internal.h **** 
 280:Lib/AI_Runtime/Inc/ai_datatypes_internal.h **** 
 281:Lib/AI_Runtime/Inc/ai_datatypes_internal.h **** /*!
 282:Lib/AI_Runtime/Inc/ai_datatypes_internal.h ****  * @brief Check whether the shapes is 1*1*1... for a scalar value content.
 283:Lib/AI_Runtime/Inc/ai_datatypes_internal.h ****  * @ingroup datatypes_internal
 284:Lib/AI_Runtime/Inc/ai_datatypes_internal.h ****  * @param shape the tensor shape to evaluate
 285:Lib/AI_Runtime/Inc/ai_datatypes_internal.h ****  * @return true if shape0 is scalar false otherwise
 286:Lib/AI_Runtime/Inc/ai_datatypes_internal.h ****  */
 287:Lib/AI_Runtime/Inc/ai_datatypes_internal.h **** AI_DECLARE_STATIC
 288:Lib/AI_Runtime/Inc/ai_datatypes_internal.h **** ai_bool ai_shape_is_scalar(
 289:Lib/AI_Runtime/Inc/ai_datatypes_internal.h ****   const ai_shape* shape0)
 290:Lib/AI_Runtime/Inc/ai_datatypes_internal.h **** {
 291:Lib/AI_Runtime/Inc/ai_datatypes_internal.h ****   ai_size dim = AI_SHAPE_SIZE(shape0);
 292:Lib/AI_Runtime/Inc/ai_datatypes_internal.h ****   while (dim>0) {
 293:Lib/AI_Runtime/Inc/ai_datatypes_internal.h ****     dim--;
 294:Lib/AI_Runtime/Inc/ai_datatypes_internal.h ****     if (AI_SHAPE_ELEM(shape0, dim) != 1)
 295:Lib/AI_Runtime/Inc/ai_datatypes_internal.h ****       return false;
 296:Lib/AI_Runtime/Inc/ai_datatypes_internal.h ****   }
 297:Lib/AI_Runtime/Inc/ai_datatypes_internal.h ****   return true;
 298:Lib/AI_Runtime/Inc/ai_datatypes_internal.h **** }
 299:Lib/AI_Runtime/Inc/ai_datatypes_internal.h **** 
 300:Lib/AI_Runtime/Inc/ai_datatypes_internal.h **** 
 301:Lib/AI_Runtime/Inc/ai_datatypes_internal.h **** /*!
 302:Lib/AI_Runtime/Inc/ai_datatypes_internal.h ****  * @brief Check if shape0 is a subshape of shape1
 303:Lib/AI_Runtime/Inc/ai_datatypes_internal.h ****  * @ingroup datatypes_internal
 304:Lib/AI_Runtime/Inc/ai_datatypes_internal.h ****  * @param shape0 the 1st tensor shape to compare
 305:Lib/AI_Runtime/Inc/ai_datatypes_internal.h ****  * @param shape1 the 2nd tensor shape to compare
 306:Lib/AI_Runtime/Inc/ai_datatypes_internal.h ****  * @return true if shape0 is a subshape of shape1 (all shape0 dimensions are
 307:Lib/AI_Runtime/Inc/ai_datatypes_internal.h **** *  smallers or equal of the shape1 ones). false otherwise
 308:Lib/AI_Runtime/Inc/ai_datatypes_internal.h ****  */
 309:Lib/AI_Runtime/Inc/ai_datatypes_internal.h **** AI_DECLARE_STATIC
 310:Lib/AI_Runtime/Inc/ai_datatypes_internal.h **** ai_bool ai_shape_is_subshape(
ARM GAS  /tmp/ccEo7NLA.s 			page 7


 311:Lib/AI_Runtime/Inc/ai_datatypes_internal.h ****   const ai_shape* shape0, const ai_shape* shape1)
 312:Lib/AI_Runtime/Inc/ai_datatypes_internal.h **** {
 313:Lib/AI_Runtime/Inc/ai_datatypes_internal.h ****   AI_ASSERT(shape0 && shape1)
 314:Lib/AI_Runtime/Inc/ai_datatypes_internal.h ****   AI_ASSERT(AI_SHAPE_SIZE(shape0)==AI_SHAPE_SIZE(shape1))
 315:Lib/AI_Runtime/Inc/ai_datatypes_internal.h ****   ai_size dim = AI_SHAPE_SIZE(shape0);
 316:Lib/AI_Runtime/Inc/ai_datatypes_internal.h ****   while (dim) {
 317:Lib/AI_Runtime/Inc/ai_datatypes_internal.h ****     dim--;
 318:Lib/AI_Runtime/Inc/ai_datatypes_internal.h ****     if ( AI_SHAPE_ELEM(shape0, dim)>AI_SHAPE_ELEM(shape1, dim) )
 319:Lib/AI_Runtime/Inc/ai_datatypes_internal.h ****       return false;
 320:Lib/AI_Runtime/Inc/ai_datatypes_internal.h ****   }
 321:Lib/AI_Runtime/Inc/ai_datatypes_internal.h ****   return true;
 322:Lib/AI_Runtime/Inc/ai_datatypes_internal.h **** }
 323:Lib/AI_Runtime/Inc/ai_datatypes_internal.h **** 
 324:Lib/AI_Runtime/Inc/ai_datatypes_internal.h **** /*!
 325:Lib/AI_Runtime/Inc/ai_datatypes_internal.h ****  * @brief Computes the total size of a tensor given its dimensions.
 326:Lib/AI_Runtime/Inc/ai_datatypes_internal.h ****  * @ingroup datatypes_internal
 327:Lib/AI_Runtime/Inc/ai_datatypes_internal.h ****  * @param shape the tensor shape
 328:Lib/AI_Runtime/Inc/ai_datatypes_internal.h ****  */
 329:Lib/AI_Runtime/Inc/ai_datatypes_internal.h **** AI_DECLARE_STATIC
 330:Lib/AI_Runtime/Inc/ai_datatypes_internal.h **** ai_size ai_shape_get_size(const ai_shape* shape)
 331:Lib/AI_Runtime/Inc/ai_datatypes_internal.h **** {
  34              		.loc 2 331 1
  35              		.cfi_startproc
  36              		@ args = 0, pretend = 0, frame = 16
  37              		@ frame_needed = 1, uses_anonymous_args = 0
  38              		@ link register save eliminated.
  39 0000 80B4     		push	{r7}
  40              		.cfi_def_cfa_offset 4
  41              		.cfi_offset 7, -4
  42 0002 85B0     		sub	sp, sp, #20
  43              		.cfi_def_cfa_offset 24
  44 0004 00AF     		add	r7, sp, #0
  45              		.cfi_def_cfa_register 7
  46 0006 7860     		str	r0, [r7, #4]
 332:Lib/AI_Runtime/Inc/ai_datatypes_internal.h ****   AI_ASSERT(shape)
 333:Lib/AI_Runtime/Inc/ai_datatypes_internal.h ****   ai_size dim = AI_SHAPE_SIZE(shape);
  47              		.loc 2 333 17
  48 0008 7B68     		ldr	r3, [r7, #4]
  49 000a 1B68     		ldr	r3, [r3]
  50 000c C3F31723 		ubfx	r3, r3, #8, #24
  51              		.loc 2 333 11
  52 0010 FB60     		str	r3, [r7, #12]
 334:Lib/AI_Runtime/Inc/ai_datatypes_internal.h ****   AI_ASSERT(dim > 0)
 335:Lib/AI_Runtime/Inc/ai_datatypes_internal.h ****   ai_size size = 1;
  53              		.loc 2 335 11
  54 0012 0123     		movs	r3, #1
  55 0014 BB60     		str	r3, [r7, #8]
 336:Lib/AI_Runtime/Inc/ai_datatypes_internal.h ****   while (dim>0) {
  56              		.loc 2 336 9
  57 0016 0CE0     		b	.L2
  58              	.L3:
 337:Lib/AI_Runtime/Inc/ai_datatypes_internal.h ****     dim--;
  59              		.loc 2 337 8
  60 0018 FB68     		ldr	r3, [r7, #12]
  61 001a 013B     		subs	r3, r3, #1
  62 001c FB60     		str	r3, [r7, #12]
 338:Lib/AI_Runtime/Inc/ai_datatypes_internal.h ****     size *= AI_SHAPE_ELEM(shape, dim);
ARM GAS  /tmp/ccEo7NLA.s 			page 8


  63              		.loc 2 338 13
  64 001e 7B68     		ldr	r3, [r7, #4]
  65 0020 5A68     		ldr	r2, [r3, #4]
  66 0022 FB68     		ldr	r3, [r7, #12]
  67 0024 9B00     		lsls	r3, r3, #2
  68 0026 1344     		add	r3, r3, r2
  69 0028 1A68     		ldr	r2, [r3]
  70              		.loc 2 338 10
  71 002a BB68     		ldr	r3, [r7, #8]
  72 002c 02FB03F3 		mul	r3, r2, r3
  73 0030 BB60     		str	r3, [r7, #8]
  74              	.L2:
 336:Lib/AI_Runtime/Inc/ai_datatypes_internal.h ****   while (dim>0) {
  75              		.loc 2 336 13
  76 0032 FB68     		ldr	r3, [r7, #12]
  77 0034 002B     		cmp	r3, #0
  78 0036 EFD1     		bne	.L3
 339:Lib/AI_Runtime/Inc/ai_datatypes_internal.h ****   }
 340:Lib/AI_Runtime/Inc/ai_datatypes_internal.h ****   return size;
  79              		.loc 2 340 10
  80 0038 BB68     		ldr	r3, [r7, #8]
 341:Lib/AI_Runtime/Inc/ai_datatypes_internal.h **** }
  81              		.loc 2 341 1
  82 003a 1846     		mov	r0, r3
  83 003c 1437     		adds	r7, r7, #20
  84              		.cfi_def_cfa_offset 4
  85 003e BD46     		mov	sp, r7
  86              		.cfi_def_cfa_register 13
  87              		@ sp needed
  88 0040 5DF8047B 		ldr	r7, [sp], #4
  89              		.cfi_restore 7
  90              		.cfi_def_cfa_offset 0
  91 0044 7047     		bx	lr
  92              		.cfi_endproc
  93              	.LFE6:
  95              		.section	.text.helper_emit_shape_index_axis,"ax",%progbits
  96              		.align	1
  97              		.syntax unified
  98              		.thumb
  99              		.thumb_func
 101              	helper_emit_shape_index_axis:
 102              	.LFB14:
   1:Lib/AI_Runtime/Npu/ll_aton/ll_sw_float.c **** /**
   2:Lib/AI_Runtime/Npu/ll_aton/ll_sw_float.c ****  ******************************************************************************
   3:Lib/AI_Runtime/Npu/ll_aton/ll_sw_float.c ****  * @file    ll_sw_float.c
   4:Lib/AI_Runtime/Npu/ll_aton/ll_sw_float.c ****  * @author  SRA Artificial Intelligence & Embedded Architectures
   5:Lib/AI_Runtime/Npu/ll_aton/ll_sw_float.c ****  * @brief   Low Level Software library for Floating Point inference interfacing with EmbedNets(c)
   6:Lib/AI_Runtime/Npu/ll_aton/ll_sw_float.c ****  ******************************************************************************
   7:Lib/AI_Runtime/Npu/ll_aton/ll_sw_float.c ****  * @attention
   8:Lib/AI_Runtime/Npu/ll_aton/ll_sw_float.c ****  *
   9:Lib/AI_Runtime/Npu/ll_aton/ll_sw_float.c ****  * Copyright (c) 2024 STMicroelectronics.
  10:Lib/AI_Runtime/Npu/ll_aton/ll_sw_float.c ****  * All rights reserved.
  11:Lib/AI_Runtime/Npu/ll_aton/ll_sw_float.c ****  *
  12:Lib/AI_Runtime/Npu/ll_aton/ll_sw_float.c ****  * This software is licensed under terms that can be found in the LICENSE file
  13:Lib/AI_Runtime/Npu/ll_aton/ll_sw_float.c ****  * in the root directory of this software component.
  14:Lib/AI_Runtime/Npu/ll_aton/ll_sw_float.c ****  * If no LICENSE file comes with this software, it is provided AS-IS.
  15:Lib/AI_Runtime/Npu/ll_aton/ll_sw_float.c ****  *
ARM GAS  /tmp/ccEo7NLA.s 			page 9


  16:Lib/AI_Runtime/Npu/ll_aton/ll_sw_float.c ****  ******************************************************************************
  17:Lib/AI_Runtime/Npu/ll_aton/ll_sw_float.c ****  */
  18:Lib/AI_Runtime/Npu/ll_aton/ll_sw_float.c **** 
  19:Lib/AI_Runtime/Npu/ll_aton/ll_sw_float.c **** #include "ll_aton_config.h"
  20:Lib/AI_Runtime/Npu/ll_aton/ll_sw_float.c **** 
  21:Lib/AI_Runtime/Npu/ll_aton/ll_sw_float.c **** #if LL_ATON_SW_FALLBACK == 1
  22:Lib/AI_Runtime/Npu/ll_aton/ll_sw_float.c **** 
  23:Lib/AI_Runtime/Npu/ll_aton/ll_sw_float.c **** #include <assert.h>
  24:Lib/AI_Runtime/Npu/ll_aton/ll_sw_float.c **** #include <stdint.h>
  25:Lib/AI_Runtime/Npu/ll_aton/ll_sw_float.c **** #include <stdio.h>
  26:Lib/AI_Runtime/Npu/ll_aton/ll_sw_float.c **** 
  27:Lib/AI_Runtime/Npu/ll_aton/ll_sw_float.c **** #include "ll_sw.h"
  28:Lib/AI_Runtime/Npu/ll_aton/ll_sw_float.c **** #include "ll_sw_float.h"
  29:Lib/AI_Runtime/Npu/ll_aton/ll_sw_float.c **** 
  30:Lib/AI_Runtime/Npu/ll_aton/ll_sw_float.c **** #include "ai_datatypes_internal.h"
  31:Lib/AI_Runtime/Npu/ll_aton/ll_sw_float.c **** #include "ai_math_helpers.h"
  32:Lib/AI_Runtime/Npu/ll_aton/ll_sw_float.c **** #include "core_private.h"
  33:Lib/AI_Runtime/Npu/ll_aton/ll_sw_float.c **** #include "layers.h"
  34:Lib/AI_Runtime/Npu/ll_aton/ll_sw_float.c **** #include "ll_aton_util.h"
  35:Lib/AI_Runtime/Npu/ll_aton/ll_sw_float.c **** 
  36:Lib/AI_Runtime/Npu/ll_aton/ll_sw_float.c **** #define FORMAT AI_ARRAY_FORMAT_FLOAT
  37:Lib/AI_Runtime/Npu/ll_aton/ll_sw_float.c **** 
  38:Lib/AI_Runtime/Npu/ll_aton/ll_sw_float.c **** #define SHAPE_INIT(a_, b_, c_, d_) AI_SHAPE_INIT(4, (d_), (c_), (b_), (a_))
  39:Lib/AI_Runtime/Npu/ll_aton/ll_sw_float.c **** 
  40:Lib/AI_Runtime/Npu/ll_aton/ll_sw_float.c **** #define SHAPE_2D_INIT(h_, w_) AI_SHAPE_2D_INIT((w_), (h_))
  41:Lib/AI_Runtime/Npu/ll_aton/ll_sw_float.c **** 
  42:Lib/AI_Runtime/Npu/ll_aton/ll_sw_float.c **** #define STRIDE_INIT(a_, b_, c_, d_) AI_STRIDE_INIT(4, (d_), (c_), (b_), (a_))
  43:Lib/AI_Runtime/Npu/ll_aton/ll_sw_float.c **** 
  44:Lib/AI_Runtime/Npu/ll_aton/ll_sw_float.c **** #define TENSORS(...) __VA_ARGS__
  45:Lib/AI_Runtime/Npu/ll_aton/ll_sw_float.c **** 
  46:Lib/AI_Runtime/Npu/ll_aton/ll_sw_float.c **** /* Managing shape index to be consistent with the enum in embednets ai_platform.h */
  47:Lib/AI_Runtime/Npu/ll_aton/ll_sw_float.c **** static int helper_emit_shape_index_axis(int onnx_axis)
  48:Lib/AI_Runtime/Npu/ll_aton/ll_sw_float.c **** {
 103              		.loc 1 48 1
 104              		.cfi_startproc
 105              		@ args = 0, pretend = 0, frame = 8
 106              		@ frame_needed = 1, uses_anonymous_args = 0
 107              		@ link register save eliminated.
 108 0000 80B4     		push	{r7}
 109              		.cfi_def_cfa_offset 4
 110              		.cfi_offset 7, -4
 111 0002 83B0     		sub	sp, sp, #12
 112              		.cfi_def_cfa_offset 16
 113 0004 00AF     		add	r7, sp, #0
 114              		.cfi_def_cfa_register 7
 115 0006 7860     		str	r0, [r7, #4]
  49:Lib/AI_Runtime/Npu/ll_aton/ll_sw_float.c ****   switch (onnx_axis)
 116              		.loc 1 49 3
 117 0008 7B68     		ldr	r3, [r7, #4]
 118 000a 032B     		cmp	r3, #3
 119 000c 12D8     		bhi	.L6
 120 000e 01A2     		adr	r2, .L8
 121 0010 52F823F0 		ldr	pc, [r2, r3, lsl #2]
 122              		.p2align 2
 123              	.L8:
 124 0014 25000000 		.word	.L11+1
 125 0018 29000000 		.word	.L10+1
ARM GAS  /tmp/ccEo7NLA.s 			page 10


 126 001c 2D000000 		.word	.L9+1
 127 0020 31000000 		.word	.L7+1
 128              		.p2align 1
 129              	.L11:
  50:Lib/AI_Runtime/Npu/ll_aton/ll_sw_float.c ****   {
  51:Lib/AI_Runtime/Npu/ll_aton/ll_sw_float.c ****   case 0:
  52:Lib/AI_Runtime/Npu/ll_aton/ll_sw_float.c ****     return AI_SHAPE_IN_CHANNEL;
 130              		.loc 1 52 12
 131 0024 0023     		movs	r3, #0
 132 0026 07E0     		b	.L12
 133              	.L10:
  53:Lib/AI_Runtime/Npu/ll_aton/ll_sw_float.c ****   case 1:
  54:Lib/AI_Runtime/Npu/ll_aton/ll_sw_float.c ****     return AI_SHAPE_CHANNEL;
 134              		.loc 1 54 12
 135 0028 0123     		movs	r3, #1
 136 002a 05E0     		b	.L12
 137              	.L9:
  55:Lib/AI_Runtime/Npu/ll_aton/ll_sw_float.c ****   case 2:
  56:Lib/AI_Runtime/Npu/ll_aton/ll_sw_float.c ****     return AI_SHAPE_HEIGHT; // note the switch required with case 3
 138              		.loc 1 56 12
 139 002c 0323     		movs	r3, #3
 140 002e 03E0     		b	.L12
 141              	.L7:
  57:Lib/AI_Runtime/Npu/ll_aton/ll_sw_float.c ****   case 3:
  58:Lib/AI_Runtime/Npu/ll_aton/ll_sw_float.c ****     return AI_SHAPE_WIDTH; // note the switch required with case 2
 142              		.loc 1 58 12
 143 0030 0223     		movs	r3, #2
 144 0032 01E0     		b	.L12
 145              	.L6:
  59:Lib/AI_Runtime/Npu/ll_aton/ll_sw_float.c ****   default:
  60:Lib/AI_Runtime/Npu/ll_aton/ll_sw_float.c **** #ifdef LL_SW_ENABLE_ASSERTS
  61:Lib/AI_Runtime/Npu/ll_aton/ll_sw_float.c ****     LL_ATON_ASSERT(0 && "axis index not supported");
  62:Lib/AI_Runtime/Npu/ll_aton/ll_sw_float.c **** #endif
  63:Lib/AI_Runtime/Npu/ll_aton/ll_sw_float.c ****     return -1;
 146              		.loc 1 63 12
 147 0034 4FF0FF33 		mov	r3, #-1
 148              	.L12:
  64:Lib/AI_Runtime/Npu/ll_aton/ll_sw_float.c ****   }
  65:Lib/AI_Runtime/Npu/ll_aton/ll_sw_float.c **** }
 149              		.loc 1 65 1
 150 0038 1846     		mov	r0, r3
 151 003a 0C37     		adds	r7, r7, #12
 152              		.cfi_def_cfa_offset 4
 153 003c BD46     		mov	sp, r7
 154              		.cfi_def_cfa_register 13
 155              		@ sp needed
 156 003e 5DF8047B 		ldr	r7, [sp], #4
 157              		.cfi_restore 7
 158              		.cfi_def_cfa_offset 0
 159 0042 7047     		bx	lr
 160              		.cfi_endproc
 161              	.LFE14:
 163              		.section	.text.ll_sw_forward_conv,"ax",%progbits
 164              		.align	1
 165              		.global	ll_sw_forward_conv
 166              		.syntax unified
 167              		.thumb
ARM GAS  /tmp/ccEo7NLA.s 			page 11


 168              		.thumb_func
 170              	ll_sw_forward_conv:
 171              	.LFB15:
  66:Lib/AI_Runtime/Npu/ll_aton/ll_sw_float.c **** 
  67:Lib/AI_Runtime/Npu/ll_aton/ll_sw_float.c **** //##########################################################################################
  68:Lib/AI_Runtime/Npu/ll_aton/ll_sw_float.c **** /** Conv forward function */
  69:Lib/AI_Runtime/Npu/ll_aton/ll_sw_float.c **** void ll_sw_forward_conv(/* int processor, */ void *sw_info_struct)
  70:Lib/AI_Runtime/Npu/ll_aton/ll_sw_float.c **** {
 172              		.loc 1 70 1
 173              		.cfi_startproc
 174              		@ args = 0, pretend = 0, frame = 536
 175              		@ frame_needed = 1, uses_anonymous_args = 0
 176 0000 80B5     		push	{r7, lr}
 177              		.cfi_def_cfa_offset 8
 178              		.cfi_offset 7, -8
 179              		.cfi_offset 14, -4
 180 0002 ADF5067D 		sub	sp, sp, #536
 181              		.cfi_def_cfa_offset 544
 182 0006 00AF     		add	r7, sp, #0
 183              		.cfi_def_cfa_register 7
 184 0008 07F50673 		add	r3, r7, #536
 185 000c A3F50573 		sub	r3, r3, #532
 186 0010 1860     		str	r0, [r3]
  71:Lib/AI_Runtime/Npu/ll_aton/ll_sw_float.c ****   Conv_sw_info *sw_info = (Conv_sw_info *)sw_info_struct;
 187              		.loc 1 71 17
 188 0012 07F50673 		add	r3, r7, #536
 189 0016 A3F50573 		sub	r3, r3, #532
 190 001a 1B68     		ldr	r3, [r3]
 191 001c C7F81432 		str	r3, [r7, #532]
  72:Lib/AI_Runtime/Npu/ll_aton/ll_sw_float.c ****   // array init
  73:Lib/AI_Runtime/Npu/ll_aton/ll_sw_float.c ****   AI_ARRAY_OBJ_DECLARE(input_output_array, FORMAT, sw_info->general.input.mem.start_offset,
 192              		.loc 1 73 3
 193 0020 E54B     		ldr	r3, .L17
 194 0022 C7F80432 		str	r3, [r7, #516]
 195 0026 D7F81432 		ldr	r3, [r7, #532]
 196 002a 5B69     		ldr	r3, [r3, #20]
 197 002c C7F80832 		str	r3, [r7, #520]
 198 0030 D7F81432 		ldr	r3, [r7, #532]
 199 0034 9B6A     		ldr	r3, [r3, #40]
 200 0036 C7F80C32 		str	r3, [r7, #524]
 201 003a D7F81432 		ldr	r3, [r7, #532]
 202 003e 9B6A     		ldr	r3, [r3, #40]
 203 0040 C7F81032 		str	r3, [r7, #528]
  74:Lib/AI_Runtime/Npu/ll_aton/ll_sw_float.c ****                        sw_info->general.input.mem.start_offset, sw_info->general.input.dim.num_elem
  75:Lib/AI_Runtime/Npu/ll_aton/ll_sw_float.c ****   AI_ARRAY_OBJ_DECLARE(conv_weights_array, FORMAT, sw_info->weights.mem.start_offset, sw_info->weig
 204              		.loc 1 75 3
 205 0044 DC4B     		ldr	r3, .L17
 206 0046 C7F8F431 		str	r3, [r7, #500]
 207 004a D7F81432 		ldr	r3, [r7, #532]
 208 004e DB6E     		ldr	r3, [r3, #108]
 209 0050 C7F8F831 		str	r3, [r7, #504]
 210 0054 D7F81432 		ldr	r3, [r7, #532]
 211 0058 D3F88030 		ldr	r3, [r3, #128]
 212 005c C7F8FC31 		str	r3, [r7, #508]
 213 0060 D7F81432 		ldr	r3, [r7, #532]
 214 0064 D3F88030 		ldr	r3, [r3, #128]
 215 0068 C7F80032 		str	r3, [r7, #512]
ARM GAS  /tmp/ccEo7NLA.s 			page 12


  76:Lib/AI_Runtime/Npu/ll_aton/ll_sw_float.c ****                        sw_info->weights.dim.num_elem, )
  77:Lib/AI_Runtime/Npu/ll_aton/ll_sw_float.c ****   AI_ARRAY_OBJ_DECLARE(conv_output_array, FORMAT, sw_info->general.output.mem.start_offset,
 216              		.loc 1 77 3
 217 006c D24B     		ldr	r3, .L17
 218 006e C7F8E431 		str	r3, [r7, #484]
 219 0072 D7F81432 		ldr	r3, [r7, #532]
 220 0076 1B6C     		ldr	r3, [r3, #64]
 221 0078 C7F8E831 		str	r3, [r7, #488]
 222 007c D7F81432 		ldr	r3, [r7, #532]
 223 0080 5B6D     		ldr	r3, [r3, #84]
 224 0082 C7F8EC31 		str	r3, [r7, #492]
 225 0086 D7F81432 		ldr	r3, [r7, #532]
 226 008a 5B6D     		ldr	r3, [r3, #84]
 227 008c C7F8F031 		str	r3, [r7, #496]
  78:Lib/AI_Runtime/Npu/ll_aton/ll_sw_float.c ****                        sw_info->general.output.mem.start_offset, sw_info->general.output.dim.num_el
  79:Lib/AI_Runtime/Npu/ll_aton/ll_sw_float.c **** 
  80:Lib/AI_Runtime/Npu/ll_aton/ll_sw_float.c ****   AI_TENSOR_OBJ_DECLARE(conv_weights, , 0x0, 4,
 228              		.loc 1 80 3
 229 0090 0023     		movs	r3, #0
 230 0092 C7F8C831 		str	r3, [r7, #456]
 231 0096 0023     		movs	r3, #0
 232 0098 A7F8CC31 		strh	r3, [r7, #460]	@ movhi
 233 009c 0423     		movs	r3, #4
 234 009e 87F8CE31 		strb	r3, [r7, #462]
 235 00a2 0123     		movs	r3, #1
 236 00a4 87F8CF31 		strb	r3, [r7, #463]
 237 00a8 0123     		movs	r3, #1
 238 00aa 87F8D031 		strb	r3, [r7, #464]
 239 00ae D7F8D031 		ldr	r3, [r7, #464]
 240 00b2 0422     		movs	r2, #4
 241 00b4 62F31F23 		bfi	r3, r2, #8, #24
 242 00b8 C7F8D031 		str	r3, [r7, #464]
 243 00bc D7F81432 		ldr	r3, [r7, #532]
 244 00c0 5B6E     		ldr	r3, [r3, #100]
 245 00c2 C7F8B831 		str	r3, [r7, #440]
 246 00c6 D7F81432 		ldr	r3, [r7, #532]
 247 00ca 1B6E     		ldr	r3, [r3, #96]
 248 00cc C7F8BC31 		str	r3, [r7, #444]
 249 00d0 D7F81432 		ldr	r3, [r7, #532]
 250 00d4 DB6D     		ldr	r3, [r3, #92]
 251 00d6 C7F8C031 		str	r3, [r7, #448]
 252 00da D7F81432 		ldr	r3, [r7, #532]
 253 00de 9B6E     		ldr	r3, [r3, #104]
 254 00e0 C7F8C431 		str	r3, [r7, #452]
 255 00e4 07F5DC73 		add	r3, r7, #440
 256 00e8 C7F8D431 		str	r3, [r7, #468]
 257 00ec 0223     		movs	r3, #2
 258 00ee 87F8D831 		strb	r3, [r7, #472]
 259 00f2 D7F8D831 		ldr	r3, [r7, #472]
 260 00f6 0422     		movs	r2, #4
 261 00f8 62F31F23 		bfi	r3, r2, #8, #24
 262 00fc C7F8D831 		str	r3, [r7, #472]
 263 0100 D7F81432 		ldr	r3, [r7, #532]
 264 0104 DB6F     		ldr	r3, [r3, #124]
 265 0106 C7F8A831 		str	r3, [r7, #424]
 266 010a D7F81432 		ldr	r3, [r7, #532]
 267 010e DB6F     		ldr	r3, [r3, #124]
ARM GAS  /tmp/ccEo7NLA.s 			page 13


 268 0110 C7F8AC31 		str	r3, [r7, #428]
 269 0114 D7F81432 		ldr	r3, [r7, #532]
 270 0118 5B6F     		ldr	r3, [r3, #116]
 271 011a C7F8B031 		str	r3, [r7, #432]
 272 011e D7F81432 		ldr	r3, [r7, #532]
 273 0122 1B6F     		ldr	r3, [r3, #112]
 274 0124 C7F8B431 		str	r3, [r7, #436]
 275 0128 07F5D473 		add	r3, r7, #424
 276 012c C7F8DC31 		str	r3, [r7, #476]
 277 0130 07F5FA73 		add	r3, r7, #500
 278 0134 C7F8E031 		str	r3, [r7, #480]
  81:Lib/AI_Runtime/Npu/ll_aton/ll_sw_float.c ****                         SHAPE_INIT(sw_info->weights.dim.tensor_b, sw_info->weights.dim.tensor_h,
  82:Lib/AI_Runtime/Npu/ll_aton/ll_sw_float.c ****                                    sw_info->weights.dim.tensor_w, sw_info->weights.dim.tensor_c),
  83:Lib/AI_Runtime/Npu/ll_aton/ll_sw_float.c ****                         STRIDE_INIT(sw_info->weights.stride.h, sw_info->weights.stride.w, sw_info->
  84:Lib/AI_Runtime/Npu/ll_aton/ll_sw_float.c ****                                     sw_info->weights.stride.b),
  85:Lib/AI_Runtime/Npu/ll_aton/ll_sw_float.c ****                         1, &conv_weights_array, NULL);
  86:Lib/AI_Runtime/Npu/ll_aton/ll_sw_float.c ****   AI_TENSOR_OBJ_DECLARE(input_output, , 0x0, 4,
 279              		.loc 1 86 3
 280 0138 0023     		movs	r3, #0
 281 013a C7F88C31 		str	r3, [r7, #396]
 282 013e 0023     		movs	r3, #0
 283 0140 A7F89031 		strh	r3, [r7, #400]	@ movhi
 284 0144 0423     		movs	r3, #4
 285 0146 87F89231 		strb	r3, [r7, #402]
 286 014a 0123     		movs	r3, #1
 287 014c 87F89331 		strb	r3, [r7, #403]
 288 0150 0123     		movs	r3, #1
 289 0152 87F89431 		strb	r3, [r7, #404]
 290 0156 D7F89431 		ldr	r3, [r7, #404]
 291 015a 0422     		movs	r2, #4
 292 015c 62F31F23 		bfi	r3, r2, #8, #24
 293 0160 C7F89431 		str	r3, [r7, #404]
 294 0164 D7F81432 		ldr	r3, [r7, #532]
 295 0168 1B69     		ldr	r3, [r3, #16]
 296 016a C7F87C31 		str	r3, [r7, #380]
 297 016e D7F81432 		ldr	r3, [r7, #532]
 298 0172 DB68     		ldr	r3, [r3, #12]
 299 0174 C7F88031 		str	r3, [r7, #384]
 300 0178 D7F81432 		ldr	r3, [r7, #532]
 301 017c 9B68     		ldr	r3, [r3, #8]
 302 017e C7F88431 		str	r3, [r7, #388]
 303 0182 D7F81432 		ldr	r3, [r7, #532]
 304 0186 5B68     		ldr	r3, [r3, #4]
 305 0188 C7F88831 		str	r3, [r7, #392]
 306 018c 07F5BE73 		add	r3, r7, #380
 307 0190 C7F89831 		str	r3, [r7, #408]
 308 0194 0223     		movs	r3, #2
 309 0196 87F89C31 		strb	r3, [r7, #412]
 310 019a D7F89C31 		ldr	r3, [r7, #412]
 311 019e 0422     		movs	r2, #4
 312 01a0 62F31F23 		bfi	r3, r2, #8, #24
 313 01a4 C7F89C31 		str	r3, [r7, #412]
 314 01a8 D7F81432 		ldr	r3, [r7, #532]
 315 01ac 5B6A     		ldr	r3, [r3, #36]
 316 01ae C7F86C31 		str	r3, [r7, #364]
 317 01b2 D7F81432 		ldr	r3, [r7, #532]
 318 01b6 1B6A     		ldr	r3, [r3, #32]
ARM GAS  /tmp/ccEo7NLA.s 			page 14


 319 01b8 C7F87031 		str	r3, [r7, #368]
 320 01bc D7F81432 		ldr	r3, [r7, #532]
 321 01c0 DB69     		ldr	r3, [r3, #28]
 322 01c2 C7F87431 		str	r3, [r7, #372]
 323 01c6 D7F81432 		ldr	r3, [r7, #532]
 324 01ca 9B69     		ldr	r3, [r3, #24]
 325 01cc C7F87831 		str	r3, [r7, #376]
 326 01d0 07F5B673 		add	r3, r7, #364
 327 01d4 C7F8A031 		str	r3, [r7, #416]
 328 01d8 07F50173 		add	r3, r7, #516
 329 01dc C7F8A431 		str	r3, [r7, #420]
  87:Lib/AI_Runtime/Npu/ll_aton/ll_sw_float.c ****                         SHAPE_INIT(sw_info->general.input.dim.tensor_h, sw_info->general.input.dim.
  88:Lib/AI_Runtime/Npu/ll_aton/ll_sw_float.c ****                                    sw_info->general.input.dim.tensor_c, sw_info->general.input.dim.
  89:Lib/AI_Runtime/Npu/ll_aton/ll_sw_float.c ****                         STRIDE_INIT(sw_info->general.input.stride.h, sw_info->general.input.stride.
  90:Lib/AI_Runtime/Npu/ll_aton/ll_sw_float.c ****                                     sw_info->general.input.stride.c, sw_info->general.input.stride.
  91:Lib/AI_Runtime/Npu/ll_aton/ll_sw_float.c ****                         1, &input_output_array, NULL);
  92:Lib/AI_Runtime/Npu/ll_aton/ll_sw_float.c ****   AI_TENSOR_OBJ_DECLARE(conv_output, , 0x0, 4,
 330              		.loc 1 92 3
 331 01e0 0023     		movs	r3, #0
 332 01e2 C7F85031 		str	r3, [r7, #336]
 333 01e6 0023     		movs	r3, #0
 334 01e8 A7F85431 		strh	r3, [r7, #340]	@ movhi
 335 01ec 0423     		movs	r3, #4
 336 01ee 87F85631 		strb	r3, [r7, #342]
 337 01f2 0123     		movs	r3, #1
 338 01f4 87F85731 		strb	r3, [r7, #343]
 339 01f8 0123     		movs	r3, #1
 340 01fa 87F85831 		strb	r3, [r7, #344]
 341 01fe D7F85831 		ldr	r3, [r7, #344]
 342 0202 0422     		movs	r2, #4
 343 0204 62F31F23 		bfi	r3, r2, #8, #24
 344 0208 C7F85831 		str	r3, [r7, #344]
 345 020c D7F81432 		ldr	r3, [r7, #532]
 346 0210 DB6B     		ldr	r3, [r3, #60]
 347 0212 C7F84031 		str	r3, [r7, #320]
 348 0216 D7F81432 		ldr	r3, [r7, #532]
 349 021a 9B6B     		ldr	r3, [r3, #56]
 350 021c C7F84431 		str	r3, [r7, #324]
 351 0220 D7F81432 		ldr	r3, [r7, #532]
 352 0224 5B6B     		ldr	r3, [r3, #52]
 353 0226 C7F84831 		str	r3, [r7, #328]
 354 022a D7F81432 		ldr	r3, [r7, #532]
 355 022e 1B6B     		ldr	r3, [r3, #48]
 356 0230 C7F84C31 		str	r3, [r7, #332]
 357 0234 07F5A073 		add	r3, r7, #320
 358 0238 C7F85C31 		str	r3, [r7, #348]
 359 023c 0223     		movs	r3, #2
 360 023e 87F86031 		strb	r3, [r7, #352]
 361 0242 D7F86031 		ldr	r3, [r7, #352]
 362 0246 0422     		movs	r2, #4
 363 0248 62F31F23 		bfi	r3, r2, #8, #24
 364 024c C7F86031 		str	r3, [r7, #352]
 365 0250 D7F81432 		ldr	r3, [r7, #532]
 366 0254 1B6D     		ldr	r3, [r3, #80]
 367 0256 C7F83031 		str	r3, [r7, #304]
 368 025a D7F81432 		ldr	r3, [r7, #532]
 369 025e DB6C     		ldr	r3, [r3, #76]
ARM GAS  /tmp/ccEo7NLA.s 			page 15


 370 0260 C7F83431 		str	r3, [r7, #308]
 371 0264 D7F81432 		ldr	r3, [r7, #532]
 372 0268 9B6C     		ldr	r3, [r3, #72]
 373 026a C7F83831 		str	r3, [r7, #312]
 374 026e D7F81432 		ldr	r3, [r7, #532]
 375 0272 5B6C     		ldr	r3, [r3, #68]
 376 0274 C7F83C31 		str	r3, [r7, #316]
 377 0278 07F59873 		add	r3, r7, #304
 378 027c C7F86431 		str	r3, [r7, #356]
 379 0280 07F5F273 		add	r3, r7, #484
 380 0284 C7F86831 		str	r3, [r7, #360]
  93:Lib/AI_Runtime/Npu/ll_aton/ll_sw_float.c ****                         SHAPE_INIT(sw_info->general.output.dim.tensor_h, sw_info->general.output.di
  94:Lib/AI_Runtime/Npu/ll_aton/ll_sw_float.c ****                                    sw_info->general.output.dim.tensor_c, sw_info->general.output.di
  95:Lib/AI_Runtime/Npu/ll_aton/ll_sw_float.c ****                         STRIDE_INIT(sw_info->general.output.stride.h, sw_info->general.output.strid
  96:Lib/AI_Runtime/Npu/ll_aton/ll_sw_float.c ****                                     sw_info->general.output.stride.c, sw_info->general.output.strid
  97:Lib/AI_Runtime/Npu/ll_aton/ll_sw_float.c ****                         1, &conv_output_array, NULL);
  98:Lib/AI_Runtime/Npu/ll_aton/ll_sw_float.c **** 
  99:Lib/AI_Runtime/Npu/ll_aton/ll_sw_float.c ****   if (sw_info->bias.mem.start_offset != NULL)
 381              		.loc 1 99 24
 382 0288 D7F81432 		ldr	r3, [r7, #532]
 383 028c D3F8D830 		ldr	r3, [r3, #216]
 384              		.loc 1 99 6
 385 0290 002B     		cmp	r3, #0
 386 0292 00F0F781 		beq	.L14
 387              	.LBB2:
 100:Lib/AI_Runtime/Npu/ll_aton/ll_sw_float.c ****   {
 101:Lib/AI_Runtime/Npu/ll_aton/ll_sw_float.c ****     AI_ARRAY_OBJ_DECLARE(conv_bias_array, FORMAT, sw_info->bias.mem.start_offset, sw_info->bias.mem
 388              		.loc 1 101 5
 389 0296 484B     		ldr	r3, .L17
 390 0298 C7F82031 		str	r3, [r7, #288]
 391 029c D7F81432 		ldr	r3, [r7, #532]
 392 02a0 D3F8C430 		ldr	r3, [r3, #196]
 393 02a4 C7F82431 		str	r3, [r7, #292]
 394 02a8 D7F81432 		ldr	r3, [r7, #532]
 395 02ac D3F8D830 		ldr	r3, [r3, #216]
 396 02b0 C7F82831 		str	r3, [r7, #296]
 397 02b4 D7F81432 		ldr	r3, [r7, #532]
 398 02b8 D3F8D830 		ldr	r3, [r3, #216]
 399 02bc C7F82C31 		str	r3, [r7, #300]
 102:Lib/AI_Runtime/Npu/ll_aton/ll_sw_float.c ****                          sw_info->bias.dim.num_elem, )
 103:Lib/AI_Runtime/Npu/ll_aton/ll_sw_float.c ****     AI_TENSOR_OBJ_DECLARE(
 400              		.loc 1 103 5
 401 02c0 07F50673 		add	r3, r7, #536
 402 02c4 A3F58A73 		sub	r3, r3, #276
 403 02c8 0022     		movs	r2, #0
 404 02ca 1A60     		str	r2, [r3]
 405 02cc 07F50673 		add	r3, r7, #536
 406 02d0 A3F58A73 		sub	r3, r3, #276
 407 02d4 0022     		movs	r2, #0
 408 02d6 9A80     		strh	r2, [r3, #4]	@ movhi
 409 02d8 07F50673 		add	r3, r7, #536
 410 02dc A3F58A73 		sub	r3, r3, #276
 411 02e0 0422     		movs	r2, #4
 412 02e2 9A71     		strb	r2, [r3, #6]
 413 02e4 07F50673 		add	r3, r7, #536
 414 02e8 A3F58A73 		sub	r3, r3, #276
 415 02ec 0122     		movs	r2, #1
ARM GAS  /tmp/ccEo7NLA.s 			page 16


 416 02ee DA71     		strb	r2, [r3, #7]
 417 02f0 07F50673 		add	r3, r7, #536
 418 02f4 A3F58A73 		sub	r3, r3, #276
 419 02f8 0122     		movs	r2, #1
 420 02fa 1A72     		strb	r2, [r3, #8]
 421 02fc 07F50673 		add	r3, r7, #536
 422 0300 A3F58A72 		sub	r2, r3, #276
 423 0304 9368     		ldr	r3, [r2, #8]
 424 0306 0421     		movs	r1, #4
 425 0308 61F31F23 		bfi	r3, r1, #8, #24
 426 030c 9360     		str	r3, [r2, #8]
 427 030e D7F81432 		ldr	r3, [r7, #532]
 428 0312 D3F8C020 		ldr	r2, [r3, #192]
 429 0316 07F50673 		add	r3, r7, #536
 430 031a A3F59273 		sub	r3, r3, #292
 431 031e 1A60     		str	r2, [r3]
 432 0320 D7F81432 		ldr	r3, [r7, #532]
 433 0324 D3F8BC20 		ldr	r2, [r3, #188]
 434 0328 07F50673 		add	r3, r7, #536
 435 032c A3F59273 		sub	r3, r3, #292
 436 0330 5A60     		str	r2, [r3, #4]
 437 0332 D7F81432 		ldr	r3, [r7, #532]
 438 0336 D3F8B820 		ldr	r2, [r3, #184]
 439 033a 07F50673 		add	r3, r7, #536
 440 033e A3F59273 		sub	r3, r3, #292
 441 0342 9A60     		str	r2, [r3, #8]
 442 0344 D7F81432 		ldr	r3, [r7, #532]
 443 0348 D3F8B420 		ldr	r2, [r3, #180]
 444 034c 07F50673 		add	r3, r7, #536
 445 0350 A3F59273 		sub	r3, r3, #292
 446 0354 DA60     		str	r2, [r3, #12]
 447 0356 07F50673 		add	r3, r7, #536
 448 035a A3F58A73 		sub	r3, r3, #276
 449 035e 07F1F402 		add	r2, r7, #244
 450 0362 DA60     		str	r2, [r3, #12]
 451 0364 07F50673 		add	r3, r7, #536
 452 0368 A3F58A73 		sub	r3, r3, #276
 453 036c 0222     		movs	r2, #2
 454 036e 1A74     		strb	r2, [r3, #16]
 455 0370 07F50673 		add	r3, r7, #536
 456 0374 A3F58A72 		sub	r2, r3, #276
 457 0378 1369     		ldr	r3, [r2, #16]
 458 037a 0421     		movs	r1, #4
 459 037c 61F31F23 		bfi	r3, r1, #8, #24
 460 0380 1361     		str	r3, [r2, #16]
 461 0382 D7F81432 		ldr	r3, [r7, #532]
 462 0386 D3F8D430 		ldr	r3, [r3, #212]
 463 038a 1A46     		mov	r2, r3
 464 038c 07F50673 		add	r3, r7, #536
 465 0390 A3F59A73 		sub	r3, r3, #308
 466 0394 1A60     		str	r2, [r3]
 467 0396 D7F81432 		ldr	r3, [r7, #532]
 468 039a D3F8D030 		ldr	r3, [r3, #208]
 469 039e 1A46     		mov	r2, r3
 470 03a0 07F50673 		add	r3, r7, #536
 471 03a4 A3F59A73 		sub	r3, r3, #308
 472 03a8 5A60     		str	r2, [r3, #4]
ARM GAS  /tmp/ccEo7NLA.s 			page 17


 473 03aa D7F81432 		ldr	r3, [r7, #532]
 474 03ae D3F8CC30 		ldr	r3, [r3, #204]
 475 03b2 1A46     		mov	r2, r3
 476 03b4 02E0     		b	.L18
 477              	.L19:
 478 03b6 00BF     		.align	2
 479              	.L17:
 480 03b8 40108200 		.word	8523840
 481              	.L18:
 482 03bc 07F50673 		add	r3, r7, #536
 483 03c0 A3F59A73 		sub	r3, r3, #308
 484 03c4 9A60     		str	r2, [r3, #8]
 485 03c6 D7F81432 		ldr	r3, [r7, #532]
 486 03ca D3F8C830 		ldr	r3, [r3, #200]
 487 03ce 1A46     		mov	r2, r3
 488 03d0 07F50673 		add	r3, r7, #536
 489 03d4 A3F59A73 		sub	r3, r3, #308
 490 03d8 DA60     		str	r2, [r3, #12]
 491 03da 07F50673 		add	r3, r7, #536
 492 03de A3F58A73 		sub	r3, r3, #276
 493 03e2 07F1E402 		add	r2, r7, #228
 494 03e6 5A61     		str	r2, [r3, #20]
 495 03e8 07F50673 		add	r3, r7, #536
 496 03ec A3F58A73 		sub	r3, r3, #276
 497 03f0 07F59072 		add	r2, r7, #288
 498 03f4 9A61     		str	r2, [r3, #24]
 104:Lib/AI_Runtime/Npu/ll_aton/ll_sw_float.c ****         conv_bias, , 0x0, 4,
 105:Lib/AI_Runtime/Npu/ll_aton/ll_sw_float.c ****         SHAPE_INIT(sw_info->bias.dim.tensor_h, sw_info->bias.dim.tensor_w, sw_info->bias.dim.tensor
 106:Lib/AI_Runtime/Npu/ll_aton/ll_sw_float.c ****                    sw_info->bias.dim.tensor_b),
 107:Lib/AI_Runtime/Npu/ll_aton/ll_sw_float.c ****         STRIDE_INIT(sw_info->bias.stride.h, sw_info->bias.stride.w, sw_info->bias.stride.c, sw_info
 108:Lib/AI_Runtime/Npu/ll_aton/ll_sw_float.c ****         &conv_bias_array, NULL);
 109:Lib/AI_Runtime/Npu/ll_aton/ll_sw_float.c **** 
 110:Lib/AI_Runtime/Npu/ll_aton/ll_sw_float.c ****     // tensor chain initialization
 111:Lib/AI_Runtime/Npu/ll_aton/ll_sw_float.c ****     AI_TENSOR_CHAIN_OBJ_DECLARE(conv_chain, , 4, AI_TENSOR_LIST_OBJ_INIT(AI_FLAG_NONE, 1, TENSORS(&
 499              		.loc 1 111 5
 500 03f6 07F50673 		add	r3, r7, #536
 501 03fa A3F59E73 		sub	r3, r3, #316
 502 03fe 0422     		movs	r2, #4
 503 0400 1A80     		strh	r2, [r3]	@ movhi
 504 0402 07F50673 		add	r3, r7, #536
 505 0406 A3F59E73 		sub	r3, r3, #316
 506 040a 0022     		movs	r2, #0
 507 040c 5A80     		strh	r2, [r3, #2]	@ movhi
 508 040e 07F50673 		add	r3, r7, #536
 509 0412 A3F50473 		sub	r3, r3, #528
 510 0416 0122     		movs	r2, #1
 511 0418 1A80     		strh	r2, [r3]	@ movhi
 512 041a 07F50673 		add	r3, r7, #536
 513 041e A3F50473 		sub	r3, r3, #528
 514 0422 0022     		movs	r2, #0
 515 0424 5A80     		strh	r2, [r3, #2]	@ movhi
 516 0426 07F50673 		add	r3, r7, #536
 517 042a A3F5A073 		sub	r3, r3, #320
 518 042e 07F5C672 		add	r2, r7, #396
 519 0432 1A60     		str	r2, [r3]
 520 0434 07F50673 		add	r3, r7, #536
 521 0438 A3F50473 		sub	r3, r3, #528
ARM GAS  /tmp/ccEo7NLA.s 			page 18


 522 043c 07F1D802 		add	r2, r7, #216
 523 0440 5A60     		str	r2, [r3, #4]
 524 0442 07F50673 		add	r3, r7, #536
 525 0446 A3F50473 		sub	r3, r3, #528
 526 044a 0022     		movs	r2, #0
 527 044c 9A60     		str	r2, [r3, #8]
 528 044e 07F50673 		add	r3, r7, #536
 529 0452 A3F50473 		sub	r3, r3, #528
 530 0456 0122     		movs	r2, #1
 531 0458 9A81     		strh	r2, [r3, #12]	@ movhi
 532 045a 07F50673 		add	r3, r7, #536
 533 045e A3F50473 		sub	r3, r3, #528
 534 0462 0022     		movs	r2, #0
 535 0464 DA81     		strh	r2, [r3, #14]	@ movhi
 536 0466 07F50673 		add	r3, r7, #536
 537 046a A3F5A273 		sub	r3, r3, #324
 538 046e 07F5A872 		add	r2, r7, #336
 539 0472 1A60     		str	r2, [r3]
 540 0474 07F50673 		add	r3, r7, #536
 541 0478 A3F50473 		sub	r3, r3, #528
 542 047c 07F1D402 		add	r2, r7, #212
 543 0480 1A61     		str	r2, [r3, #16]
 544 0482 07F50673 		add	r3, r7, #536
 545 0486 A3F50473 		sub	r3, r3, #528
 546 048a 0022     		movs	r2, #0
 547 048c 5A61     		str	r2, [r3, #20]
 548 048e 07F50673 		add	r3, r7, #536
 549 0492 A3F50473 		sub	r3, r3, #528
 550 0496 0322     		movs	r2, #3
 551 0498 1A83     		strh	r2, [r3, #24]	@ movhi
 552 049a 07F50673 		add	r3, r7, #536
 553 049e A3F50473 		sub	r3, r3, #528
 554 04a2 0022     		movs	r2, #0
 555 04a4 5A83     		strh	r2, [r3, #26]	@ movhi
 556 04a6 07F50673 		add	r3, r7, #536
 557 04aa A3F5A873 		sub	r3, r3, #336
 558 04ae 07F5E472 		add	r2, r7, #456
 559 04b2 1A60     		str	r2, [r3]
 560 04b4 07F50673 		add	r3, r7, #536
 561 04b8 A3F5A873 		sub	r3, r3, #336
 562 04bc 07F58272 		add	r2, r7, #260
 563 04c0 5A60     		str	r2, [r3, #4]
 564 04c2 07F50673 		add	r3, r7, #536
 565 04c6 A3F5A873 		sub	r3, r3, #336
 566 04ca 0022     		movs	r2, #0
 567 04cc 9A60     		str	r2, [r3, #8]
 568 04ce 07F50673 		add	r3, r7, #536
 569 04d2 A3F50473 		sub	r3, r3, #528
 570 04d6 07F1C802 		add	r2, r7, #200
 571 04da DA61     		str	r2, [r3, #28]
 572 04dc 07F50673 		add	r3, r7, #536
 573 04e0 A3F50473 		sub	r3, r3, #528
 574 04e4 0022     		movs	r2, #0
 575 04e6 1A62     		str	r2, [r3, #32]
 576 04e8 07F50673 		add	r3, r7, #536
 577 04ec A3F50473 		sub	r3, r3, #528
 578 04f0 0222     		movs	r2, #2
ARM GAS  /tmp/ccEo7NLA.s 			page 19


 579 04f2 9A84     		strh	r2, [r3, #36]	@ movhi
 580 04f4 07F50673 		add	r3, r7, #536
 581 04f8 A3F50473 		sub	r3, r3, #528
 582 04fc 0022     		movs	r2, #0
 583 04fe DA84     		strh	r2, [r3, #38]	@ movhi
 584 0500 07F50673 		add	r3, r7, #536
 585 0504 A3F5AC73 		sub	r3, r3, #344
 586 0508 0022     		movs	r2, #0
 587 050a 1A60     		str	r2, [r3]
 588 050c 07F50673 		add	r3, r7, #536
 589 0510 A3F5AC73 		sub	r3, r3, #344
 590 0514 0022     		movs	r2, #0
 591 0516 5A60     		str	r2, [r3, #4]
 592 0518 07F50673 		add	r3, r7, #536
 593 051c A3F50473 		sub	r3, r3, #528
 594 0520 07F1C002 		add	r2, r7, #192
 595 0524 9A62     		str	r2, [r3, #40]
 596 0526 07F50673 		add	r3, r7, #536
 597 052a A3F50473 		sub	r3, r3, #528
 598 052e 0022     		movs	r2, #0
 599 0530 DA62     		str	r2, [r3, #44]
 600 0532 07F50673 		add	r3, r7, #536
 601 0536 A3F59E73 		sub	r3, r3, #316
 602 053a 07F10802 		add	r2, r7, #8
 603 053e 5A60     		str	r2, [r3, #4]
 112:Lib/AI_Runtime/Npu/ll_aton/ll_sw_float.c ****                                 AI_TENSOR_LIST_OBJ_INIT(AI_FLAG_NONE, 1, TENSORS(&conv_output)),
 113:Lib/AI_Runtime/Npu/ll_aton/ll_sw_float.c ****                                 AI_TENSOR_LIST_OBJ_INIT(AI_FLAG_NONE, 3, TENSORS(&conv_weights, &co
 114:Lib/AI_Runtime/Npu/ll_aton/ll_sw_float.c ****                                 AI_TENSOR_LIST_OBJ_INIT(AI_FLAG_NONE, 2, TENSORS(NULL, NULL)))
 115:Lib/AI_Runtime/Npu/ll_aton/ll_sw_float.c ****     // layer initialization
 116:Lib/AI_Runtime/Npu/ll_aton/ll_sw_float.c ****     AI_LAYER_OBJ_DECLARE(conv_layer, 1, CONV2D_TYPE, 0x0, NULL, conv2d, forward_conv2d_if32of32wf32
 604              		.loc 1 116 5
 605 0540 07F50673 		add	r3, r7, #536
 606 0544 A3F5F073 		sub	r3, r3, #480
 607 0548 1846     		mov	r0, r3
 608 054a 4423     		movs	r3, #68
 609 054c 1A46     		mov	r2, r3
 610 054e 0021     		movs	r1, #0
 611 0550 FFF7FEFF 		bl	memset
 612 0554 07F50673 		add	r3, r7, #536
 613 0558 A3F5F073 		sub	r3, r3, #480
 614 055c 40F20312 		movw	r2, #259
 615 0560 1A80     		strh	r2, [r3]	@ movhi
 616 0562 07F50673 		add	r3, r7, #536
 617 0566 A3F5F073 		sub	r3, r3, #480
 618 056a 0122     		movs	r2, #1
 619 056c 5A80     		strh	r2, [r3, #2]	@ movhi
 620 056e 07F50673 		add	r3, r7, #536
 621 0572 A3F5F073 		sub	r3, r3, #480
 622 0576 424A     		ldr	r2, .L20
 623 0578 5A61     		str	r2, [r3, #20]
 624 057a 07F50673 		add	r3, r7, #536
 625 057e A3F5F073 		sub	r3, r3, #480
 626 0582 07F1DC02 		add	r2, r7, #220
 627 0586 9A61     		str	r2, [r3, #24]
 628 0588 D7F81432 		ldr	r3, [r7, #532]
 629 058c D3F80C31 		ldr	r3, [r3, #268]
 630 0590 1A46     		mov	r2, r3
ARM GAS  /tmp/ccEo7NLA.s 			page 20


 631 0592 07F50673 		add	r3, r7, #536
 632 0596 A3F5F073 		sub	r3, r3, #480
 633 059a DA61     		str	r2, [r3, #28]
 634 059c D7F81432 		ldr	r3, [r7, #532]
 635 05a0 D3F82431 		ldr	r3, [r3, #292]
 636 05a4 1A46     		mov	r2, r3
 637 05a6 07F50673 		add	r3, r7, #536
 638 05aa A3F5F073 		sub	r3, r3, #480
 639 05ae 9A62     		str	r2, [r3, #40]
 640 05b0 D7F81432 		ldr	r3, [r7, #532]
 641 05b4 D3F82031 		ldr	r3, [r3, #288]
 642 05b8 1A46     		mov	r2, r3
 643 05ba 07F50673 		add	r3, r7, #536
 644 05be A3F5F073 		sub	r3, r3, #480
 645 05c2 DA62     		str	r2, [r3, #44]
 646 05c4 D7F81432 		ldr	r3, [r7, #532]
 647 05c8 D3F83431 		ldr	r3, [r3, #308]
 648 05cc 1A46     		mov	r2, r3
 649 05ce 07F50673 		add	r3, r7, #536
 650 05d2 A3F5F073 		sub	r3, r3, #480
 651 05d6 1A63     		str	r2, [r3, #48]
 652 05d8 D7F81432 		ldr	r3, [r7, #532]
 653 05dc D3F83031 		ldr	r3, [r3, #304]
 654 05e0 1A46     		mov	r2, r3
 655 05e2 07F50673 		add	r3, r7, #536
 656 05e6 A3F5F073 		sub	r3, r3, #480
 657 05ea 5A63     		str	r2, [r3, #52]
 658 05ec 07F50673 		add	r3, r7, #536
 659 05f0 A3F5F073 		sub	r3, r3, #480
 660 05f4 0122     		movs	r2, #1
 661 05f6 83F83820 		strb	r2, [r3, #56]
 662 05fa 07F50673 		add	r3, r7, #536
 663 05fe A3F5F072 		sub	r2, r3, #480
 664 0602 936B     		ldr	r3, [r2, #56]
 665 0604 0421     		movs	r1, #4
 666 0606 61F31F23 		bfi	r3, r1, #8, #24
 667 060a 9363     		str	r3, [r2, #56]
 668 060c D7F81432 		ldr	r3, [r7, #532]
 669 0610 D3F81031 		ldr	r3, [r3, #272]
 670 0614 1A46     		mov	r2, r3
 671 0616 07F50673 		add	r3, r7, #536
 672 061a A3F5B473 		sub	r3, r3, #360
 673 061e 1A60     		str	r2, [r3]
 674 0620 D7F81432 		ldr	r3, [r7, #532]
 675 0624 D3F81431 		ldr	r3, [r3, #276]
 676 0628 1A46     		mov	r2, r3
 677 062a 07F50673 		add	r3, r7, #536
 678 062e A3F5B473 		sub	r3, r3, #360
 679 0632 5A60     		str	r2, [r3, #4]
 680 0634 D7F81432 		ldr	r3, [r7, #532]
 681 0638 D3F81831 		ldr	r3, [r3, #280]
 682 063c 1A46     		mov	r2, r3
 683 063e 07F50673 		add	r3, r7, #536
 684 0642 A3F5B473 		sub	r3, r3, #360
 685 0646 9A60     		str	r2, [r3, #8]
 686 0648 D7F81432 		ldr	r3, [r7, #532]
 687 064c D3F81C31 		ldr	r3, [r3, #284]
ARM GAS  /tmp/ccEo7NLA.s 			page 21


 688 0650 1A46     		mov	r2, r3
 689 0652 07F50673 		add	r3, r7, #536
 690 0656 A3F5B473 		sub	r3, r3, #360
 691 065a DA60     		str	r2, [r3, #12]
 692 065c 07F50673 		add	r3, r7, #536
 693 0660 A3F5F073 		sub	r3, r3, #480
 694 0664 07F1B002 		add	r2, r7, #176
 695 0668 DA63     		str	r2, [r3, #60]
 117:Lib/AI_Runtime/Npu/ll_aton/ll_sw_float.c ****                          NULL, NULL, , .groups = sw_info->ngroup, .nl_params = NULL, .nl_func = NUL
 118:Lib/AI_Runtime/Npu/ll_aton/ll_sw_float.c ****                          .filter_stride = SHAPE_2D_INIT(sw_info->strides[0],
 119:Lib/AI_Runtime/Npu/ll_aton/ll_sw_float.c ****                                                         sw_info->strides[1]), // controlla perche' 
 120:Lib/AI_Runtime/Npu/ll_aton/ll_sw_float.c ****                          .filter_pad =
 121:Lib/AI_Runtime/Npu/ll_aton/ll_sw_float.c ****                              SHAPE_INIT(sw_info->pads[3], sw_info->pads[2], sw_info->pads[1], sw_in
 122:Lib/AI_Runtime/Npu/ll_aton/ll_sw_float.c ****                          .dilation = SHAPE_2D_INIT(sw_info->dilations[0], sw_info->dilations[1]), )
 123:Lib/AI_Runtime/Npu/ll_aton/ll_sw_float.c ****     conv_layer.forward(AI_LAYER_OBJ(&conv_layer));
 696              		.loc 1 123 15
 697 066a 07F50673 		add	r3, r7, #536
 698 066e A3F5F073 		sub	r3, r3, #480
 699 0672 5B69     		ldr	r3, [r3, #20]
 700              		.loc 1 123 5
 701 0674 07F13802 		add	r2, r7, #56
 702 0678 1046     		mov	r0, r2
 703 067a 9847     		blx	r3
 704              	.LVL0:
 705              	.LBE2:
 124:Lib/AI_Runtime/Npu/ll_aton/ll_sw_float.c ****   }
 125:Lib/AI_Runtime/Npu/ll_aton/ll_sw_float.c ****   else
 126:Lib/AI_Runtime/Npu/ll_aton/ll_sw_float.c ****   {
 127:Lib/AI_Runtime/Npu/ll_aton/ll_sw_float.c ****     // tensor chain initialization
 128:Lib/AI_Runtime/Npu/ll_aton/ll_sw_float.c ****     AI_TENSOR_CHAIN_OBJ_DECLARE(conv_chain, , 4, AI_TENSOR_LIST_OBJ_INIT(AI_FLAG_NONE, 1, TENSORS(&
 129:Lib/AI_Runtime/Npu/ll_aton/ll_sw_float.c ****                                 AI_TENSOR_LIST_OBJ_INIT(AI_FLAG_NONE, 1, TENSORS(&conv_output)),
 130:Lib/AI_Runtime/Npu/ll_aton/ll_sw_float.c ****                                 AI_TENSOR_LIST_OBJ_INIT(AI_FLAG_NONE, 3, TENSORS(&conv_weights, NUL
 131:Lib/AI_Runtime/Npu/ll_aton/ll_sw_float.c ****                                 AI_TENSOR_LIST_OBJ_INIT(AI_FLAG_NONE, 2, TENSORS(NULL, NULL)))
 132:Lib/AI_Runtime/Npu/ll_aton/ll_sw_float.c ****     // layer initialization
 133:Lib/AI_Runtime/Npu/ll_aton/ll_sw_float.c ****     AI_LAYER_OBJ_DECLARE(conv_layer, 1, CONV2D_TYPE, 0x0, NULL, conv2d, forward_conv2d_if32of32wf32
 134:Lib/AI_Runtime/Npu/ll_aton/ll_sw_float.c ****                          NULL, NULL, , .groups = sw_info->ngroup, .nl_params = NULL, .nl_func = NUL
 135:Lib/AI_Runtime/Npu/ll_aton/ll_sw_float.c ****                          .filter_stride = SHAPE_2D_INIT(sw_info->strides[0],
 136:Lib/AI_Runtime/Npu/ll_aton/ll_sw_float.c ****                                                         sw_info->strides[1]), // controlla perche' 
 137:Lib/AI_Runtime/Npu/ll_aton/ll_sw_float.c ****                          .filter_pad =
 138:Lib/AI_Runtime/Npu/ll_aton/ll_sw_float.c ****                              SHAPE_INIT(sw_info->pads[3], sw_info->pads[2], sw_info->pads[1], sw_in
 139:Lib/AI_Runtime/Npu/ll_aton/ll_sw_float.c ****                          .dilation = SHAPE_2D_INIT(sw_info->dilations[0], sw_info->dilations[1]), )
 140:Lib/AI_Runtime/Npu/ll_aton/ll_sw_float.c ****     conv_layer.forward(AI_LAYER_OBJ(&conv_layer));
 141:Lib/AI_Runtime/Npu/ll_aton/ll_sw_float.c ****   }
 142:Lib/AI_Runtime/Npu/ll_aton/ll_sw_float.c **** }
 706              		.loc 1 142 1
 707 067c 44E1     		b	.L16
 708              	.L21:
 709 067e 00BF     		.align	2
 710              	.L20:
 711 0680 00000000 		.word	forward_conv2d_if32of32wf32_group
 712              	.L14:
 713              	.LBB3:
 128:Lib/AI_Runtime/Npu/ll_aton/ll_sw_float.c ****                                 AI_TENSOR_LIST_OBJ_INIT(AI_FLAG_NONE, 1, TENSORS(&conv_output)),
 714              		.loc 1 128 5
 715 0684 07F50673 		add	r3, r7, #536
 716 0688 A3F5B873 		sub	r3, r3, #368
 717 068c 0422     		movs	r2, #4
ARM GAS  /tmp/ccEo7NLA.s 			page 22


 718 068e 1A80     		strh	r2, [r3]	@ movhi
 719 0690 07F50673 		add	r3, r7, #536
 720 0694 A3F5B873 		sub	r3, r3, #368
 721 0698 0022     		movs	r2, #0
 722 069a 5A80     		strh	r2, [r3, #2]	@ movhi
 723 069c 07F50673 		add	r3, r7, #536
 724 06a0 A3F50473 		sub	r3, r3, #528
 725 06a4 0122     		movs	r2, #1
 726 06a6 1A80     		strh	r2, [r3]	@ movhi
 727 06a8 07F50673 		add	r3, r7, #536
 728 06ac A3F50473 		sub	r3, r3, #528
 729 06b0 0022     		movs	r2, #0
 730 06b2 5A80     		strh	r2, [r3, #2]	@ movhi
 731 06b4 07F50673 		add	r3, r7, #536
 732 06b8 A3F5BA73 		sub	r3, r3, #372
 733 06bc 07F5C672 		add	r2, r7, #396
 734 06c0 1A60     		str	r2, [r3]
 735 06c2 07F50673 		add	r3, r7, #536
 736 06c6 A3F50473 		sub	r3, r3, #528
 737 06ca 07F1A402 		add	r2, r7, #164
 738 06ce 5A60     		str	r2, [r3, #4]
 739 06d0 07F50673 		add	r3, r7, #536
 740 06d4 A3F50473 		sub	r3, r3, #528
 741 06d8 0022     		movs	r2, #0
 742 06da 9A60     		str	r2, [r3, #8]
 743 06dc 07F50673 		add	r3, r7, #536
 744 06e0 A3F50473 		sub	r3, r3, #528
 745 06e4 0122     		movs	r2, #1
 746 06e6 9A81     		strh	r2, [r3, #12]	@ movhi
 747 06e8 07F50673 		add	r3, r7, #536
 748 06ec A3F50473 		sub	r3, r3, #528
 749 06f0 0022     		movs	r2, #0
 750 06f2 DA81     		strh	r2, [r3, #14]	@ movhi
 751 06f4 07F50673 		add	r3, r7, #536
 752 06f8 A3F5BC73 		sub	r3, r3, #376
 753 06fc 07F5A872 		add	r2, r7, #336
 754 0700 1A60     		str	r2, [r3]
 755 0702 07F50673 		add	r3, r7, #536
 756 0706 A3F50473 		sub	r3, r3, #528
 757 070a 07F1A002 		add	r2, r7, #160
 758 070e 1A61     		str	r2, [r3, #16]
 759 0710 07F50673 		add	r3, r7, #536
 760 0714 A3F50473 		sub	r3, r3, #528
 761 0718 0022     		movs	r2, #0
 762 071a 5A61     		str	r2, [r3, #20]
 763 071c 07F50673 		add	r3, r7, #536
 764 0720 A3F50473 		sub	r3, r3, #528
 765 0724 0322     		movs	r2, #3
 766 0726 1A83     		strh	r2, [r3, #24]	@ movhi
 767 0728 07F50673 		add	r3, r7, #536
 768 072c A3F50473 		sub	r3, r3, #528
 769 0730 0022     		movs	r2, #0
 770 0732 5A83     		strh	r2, [r3, #26]	@ movhi
 771 0734 07F50673 		add	r3, r7, #536
 772 0738 A3F5C273 		sub	r3, r3, #388
 773 073c 07F5E472 		add	r2, r7, #456
 774 0740 1A60     		str	r2, [r3]
ARM GAS  /tmp/ccEo7NLA.s 			page 23


 775 0742 07F50673 		add	r3, r7, #536
 776 0746 A3F5C273 		sub	r3, r3, #388
 777 074a 0022     		movs	r2, #0
 778 074c 5A60     		str	r2, [r3, #4]
 779 074e 07F50673 		add	r3, r7, #536
 780 0752 A3F5C273 		sub	r3, r3, #388
 781 0756 0022     		movs	r2, #0
 782 0758 9A60     		str	r2, [r3, #8]
 783 075a 07F50673 		add	r3, r7, #536
 784 075e A3F50473 		sub	r3, r3, #528
 785 0762 07F19402 		add	r2, r7, #148
 786 0766 DA61     		str	r2, [r3, #28]
 787 0768 07F50673 		add	r3, r7, #536
 788 076c A3F50473 		sub	r3, r3, #528
 789 0770 0022     		movs	r2, #0
 790 0772 1A62     		str	r2, [r3, #32]
 791 0774 07F50673 		add	r3, r7, #536
 792 0778 A3F50473 		sub	r3, r3, #528
 793 077c 0222     		movs	r2, #2
 794 077e 9A84     		strh	r2, [r3, #36]	@ movhi
 795 0780 07F50673 		add	r3, r7, #536
 796 0784 A3F50473 		sub	r3, r3, #528
 797 0788 0022     		movs	r2, #0
 798 078a DA84     		strh	r2, [r3, #38]	@ movhi
 799 078c 07F50673 		add	r3, r7, #536
 800 0790 A3F5C673 		sub	r3, r3, #396
 801 0794 0022     		movs	r2, #0
 802 0796 1A60     		str	r2, [r3]
 803 0798 07F50673 		add	r3, r7, #536
 804 079c A3F5C673 		sub	r3, r3, #396
 805 07a0 0022     		movs	r2, #0
 806 07a2 5A60     		str	r2, [r3, #4]
 807 07a4 07F50673 		add	r3, r7, #536
 808 07a8 A3F50473 		sub	r3, r3, #528
 809 07ac 07F18C02 		add	r2, r7, #140
 810 07b0 9A62     		str	r2, [r3, #40]
 811 07b2 07F50673 		add	r3, r7, #536
 812 07b6 A3F50473 		sub	r3, r3, #528
 813 07ba 0022     		movs	r2, #0
 814 07bc DA62     		str	r2, [r3, #44]
 815 07be 07F50673 		add	r3, r7, #536
 816 07c2 A3F5B873 		sub	r3, r3, #368
 817 07c6 07F10802 		add	r2, r7, #8
 818 07ca 5A60     		str	r2, [r3, #4]
 133:Lib/AI_Runtime/Npu/ll_aton/ll_sw_float.c ****                          NULL, NULL, , .groups = sw_info->ngroup, .nl_params = NULL, .nl_func = NUL
 819              		.loc 1 133 5
 820 07cc 07F50673 		add	r3, r7, #536
 821 07d0 A3F5F073 		sub	r3, r3, #480
 822 07d4 1846     		mov	r0, r3
 823 07d6 4423     		movs	r3, #68
 824 07d8 1A46     		mov	r2, r3
 825 07da 0021     		movs	r1, #0
 826 07dc FFF7FEFF 		bl	memset
 827 07e0 07F50673 		add	r3, r7, #536
 828 07e4 A3F5F073 		sub	r3, r3, #480
 829 07e8 40F20312 		movw	r2, #259
 830 07ec 1A80     		strh	r2, [r3]	@ movhi
ARM GAS  /tmp/ccEo7NLA.s 			page 24


 831 07ee 07F50673 		add	r3, r7, #536
 832 07f2 A3F5F073 		sub	r3, r3, #480
 833 07f6 0122     		movs	r2, #1
 834 07f8 5A80     		strh	r2, [r3, #2]	@ movhi
 835 07fa 07F50673 		add	r3, r7, #536
 836 07fe A3F5F073 		sub	r3, r3, #480
 837 0802 444A     		ldr	r2, .L22
 838 0804 5A61     		str	r2, [r3, #20]
 839 0806 07F50673 		add	r3, r7, #536
 840 080a A3F5F073 		sub	r3, r3, #480
 841 080e 07F1A802 		add	r2, r7, #168
 842 0812 9A61     		str	r2, [r3, #24]
 843 0814 D7F81432 		ldr	r3, [r7, #532]
 844 0818 D3F80C31 		ldr	r3, [r3, #268]
 845 081c 1A46     		mov	r2, r3
 846 081e 07F50673 		add	r3, r7, #536
 847 0822 A3F5F073 		sub	r3, r3, #480
 848 0826 DA61     		str	r2, [r3, #28]
 849 0828 D7F81432 		ldr	r3, [r7, #532]
 850 082c D3F82431 		ldr	r3, [r3, #292]
 851 0830 1A46     		mov	r2, r3
 852 0832 07F50673 		add	r3, r7, #536
 853 0836 A3F5F073 		sub	r3, r3, #480
 854 083a 9A62     		str	r2, [r3, #40]
 855 083c D7F81432 		ldr	r3, [r7, #532]
 856 0840 D3F82031 		ldr	r3, [r3, #288]
 857 0844 1A46     		mov	r2, r3
 858 0846 07F50673 		add	r3, r7, #536
 859 084a A3F5F073 		sub	r3, r3, #480
 860 084e DA62     		str	r2, [r3, #44]
 861 0850 D7F81432 		ldr	r3, [r7, #532]
 862 0854 D3F83431 		ldr	r3, [r3, #308]
 863 0858 1A46     		mov	r2, r3
 864 085a 07F50673 		add	r3, r7, #536
 865 085e A3F5F073 		sub	r3, r3, #480
 866 0862 1A63     		str	r2, [r3, #48]
 867 0864 D7F81432 		ldr	r3, [r7, #532]
 868 0868 D3F83031 		ldr	r3, [r3, #304]
 869 086c 1A46     		mov	r2, r3
 870 086e 07F50673 		add	r3, r7, #536
 871 0872 A3F5F073 		sub	r3, r3, #480
 872 0876 5A63     		str	r2, [r3, #52]
 873 0878 07F50673 		add	r3, r7, #536
 874 087c A3F5F073 		sub	r3, r3, #480
 875 0880 0122     		movs	r2, #1
 876 0882 83F83820 		strb	r2, [r3, #56]
 877 0886 07F50673 		add	r3, r7, #536
 878 088a A3F5F072 		sub	r2, r3, #480
 879 088e 936B     		ldr	r3, [r2, #56]
 880 0890 0421     		movs	r1, #4
 881 0892 61F31F23 		bfi	r3, r1, #8, #24
 882 0896 9363     		str	r3, [r2, #56]
 883 0898 D7F81432 		ldr	r3, [r7, #532]
 884 089c D3F81031 		ldr	r3, [r3, #272]
 885 08a0 1A46     		mov	r2, r3
 886 08a2 07F50673 		add	r3, r7, #536
 887 08a6 A3F5CE73 		sub	r3, r3, #412
ARM GAS  /tmp/ccEo7NLA.s 			page 25


 888 08aa 1A60     		str	r2, [r3]
 889 08ac D7F81432 		ldr	r3, [r7, #532]
 890 08b0 D3F81431 		ldr	r3, [r3, #276]
 891 08b4 1A46     		mov	r2, r3
 892 08b6 07F50673 		add	r3, r7, #536
 893 08ba A3F5CE73 		sub	r3, r3, #412
 894 08be 5A60     		str	r2, [r3, #4]
 895 08c0 D7F81432 		ldr	r3, [r7, #532]
 896 08c4 D3F81831 		ldr	r3, [r3, #280]
 897 08c8 1A46     		mov	r2, r3
 898 08ca 07F50673 		add	r3, r7, #536
 899 08ce A3F5CE73 		sub	r3, r3, #412
 900 08d2 9A60     		str	r2, [r3, #8]
 901 08d4 D7F81432 		ldr	r3, [r7, #532]
 902 08d8 D3F81C31 		ldr	r3, [r3, #284]
 903 08dc 1A46     		mov	r2, r3
 904 08de 07F50673 		add	r3, r7, #536
 905 08e2 A3F5CE73 		sub	r3, r3, #412
 906 08e6 DA60     		str	r2, [r3, #12]
 907 08e8 07F50673 		add	r3, r7, #536
 908 08ec A3F5F073 		sub	r3, r3, #480
 909 08f0 07F17C02 		add	r2, r7, #124
 910 08f4 DA63     		str	r2, [r3, #60]
 140:Lib/AI_Runtime/Npu/ll_aton/ll_sw_float.c ****   }
 911              		.loc 1 140 15
 912 08f6 07F50673 		add	r3, r7, #536
 913 08fa A3F5F073 		sub	r3, r3, #480
 914 08fe 5B69     		ldr	r3, [r3, #20]
 140:Lib/AI_Runtime/Npu/ll_aton/ll_sw_float.c ****   }
 915              		.loc 1 140 5
 916 0900 07F13802 		add	r2, r7, #56
 917 0904 1046     		mov	r0, r2
 918 0906 9847     		blx	r3
 919              	.LVL1:
 920              	.L16:
 921              	.LBE3:
 922              		.loc 1 142 1
 923 0908 00BF     		nop
 924 090a 07F50677 		add	r7, r7, #536
 925              		.cfi_def_cfa_offset 8
 926 090e BD46     		mov	sp, r7
 927              		.cfi_def_cfa_register 13
 928              		@ sp needed
 929 0910 80BD     		pop	{r7, pc}
 930              	.L23:
 931 0912 00BF     		.align	2
 932              	.L22:
 933 0914 00000000 		.word	forward_conv2d_if32of32wf32_group
 934              		.cfi_endproc
 935              	.LFE15:
 937              		.section	.text.ll_sw_forward_gemm,"ax",%progbits
 938              		.align	1
 939              		.global	ll_sw_forward_gemm
 940              		.syntax unified
 941              		.thumb
 942              		.thumb_func
 944              	ll_sw_forward_gemm:
ARM GAS  /tmp/ccEo7NLA.s 			page 26


 945              	.LFB16:
 143:Lib/AI_Runtime/Npu/ll_aton/ll_sw_float.c **** 
 144:Lib/AI_Runtime/Npu/ll_aton/ll_sw_float.c **** //##########################################################################################
 145:Lib/AI_Runtime/Npu/ll_aton/ll_sw_float.c **** /** GEMM forward function */
 146:Lib/AI_Runtime/Npu/ll_aton/ll_sw_float.c **** void ll_sw_forward_gemm(/* int processor, */ void *sw_info_struct)
 147:Lib/AI_Runtime/Npu/ll_aton/ll_sw_float.c **** {
 946              		.loc 1 147 1
 947              		.cfi_startproc
 948              		@ args = 0, pretend = 0, frame = 440
 949              		@ frame_needed = 1, uses_anonymous_args = 0
 950 0000 80B5     		push	{r7, lr}
 951              		.cfi_def_cfa_offset 8
 952              		.cfi_offset 7, -8
 953              		.cfi_offset 14, -4
 954 0002 EEB0     		sub	sp, sp, #440
 955              		.cfi_def_cfa_offset 448
 956 0004 00AF     		add	r7, sp, #0
 957              		.cfi_def_cfa_register 7
 958 0006 07F5DC73 		add	r3, r7, #440
 959 000a A3F5DA73 		sub	r3, r3, #436
 960 000e 1860     		str	r0, [r3]
 148:Lib/AI_Runtime/Npu/ll_aton/ll_sw_float.c ****   Gemm_sw_info *sw_info = (Gemm_sw_info *)sw_info_struct;
 961              		.loc 1 148 17
 962 0010 07F5DC73 		add	r3, r7, #440
 963 0014 A3F5DA73 		sub	r3, r3, #436
 964 0018 1B68     		ldr	r3, [r3]
 965 001a C7F8B431 		str	r3, [r7, #436]
 149:Lib/AI_Runtime/Npu/ll_aton/ll_sw_float.c ****   // array init
 150:Lib/AI_Runtime/Npu/ll_aton/ll_sw_float.c ****   AI_ARRAY_OBJ_DECLARE(input_output_array, FORMAT, sw_info->general.input.mem.start_offset,
 966              		.loc 1 150 3
 967 001e E64B     		ldr	r3, .L25
 968 0020 C7F8A431 		str	r3, [r7, #420]
 969 0024 D7F8B431 		ldr	r3, [r7, #436]
 970 0028 5B69     		ldr	r3, [r3, #20]
 971 002a C7F8A831 		str	r3, [r7, #424]
 972 002e D7F8B431 		ldr	r3, [r7, #436]
 973 0032 9B6A     		ldr	r3, [r3, #40]
 974 0034 C7F8AC31 		str	r3, [r7, #428]
 975 0038 D7F8B431 		ldr	r3, [r7, #436]
 976 003c 9B6A     		ldr	r3, [r3, #40]
 977 003e C7F8B031 		str	r3, [r7, #432]
 151:Lib/AI_Runtime/Npu/ll_aton/ll_sw_float.c ****                        sw_info->general.input.mem.start_offset, sw_info->general.input.dim.num_elem
 152:Lib/AI_Runtime/Npu/ll_aton/ll_sw_float.c **** 
 153:Lib/AI_Runtime/Npu/ll_aton/ll_sw_float.c ****   AI_ARRAY_OBJ_DECLARE(gemm_operand_b_array, FORMAT, sw_info->operand_b.mem.start_offset,
 978              		.loc 1 153 3
 979 0042 DD4B     		ldr	r3, .L25
 980 0044 C7F89431 		str	r3, [r7, #404]
 981 0048 D7F8B431 		ldr	r3, [r7, #436]
 982 004c DB6E     		ldr	r3, [r3, #108]
 983 004e C7F89831 		str	r3, [r7, #408]
 984 0052 D7F8B431 		ldr	r3, [r7, #436]
 985 0056 D3F88030 		ldr	r3, [r3, #128]
 986 005a C7F89C31 		str	r3, [r7, #412]
 987 005e D7F8B431 		ldr	r3, [r7, #436]
 988 0062 D3F88030 		ldr	r3, [r3, #128]
 989 0066 C7F8A031 		str	r3, [r7, #416]
 154:Lib/AI_Runtime/Npu/ll_aton/ll_sw_float.c ****                        sw_info->operand_b.mem.start_offset, sw_info->operand_b.dim.num_elem, )
ARM GAS  /tmp/ccEo7NLA.s 			page 27


 155:Lib/AI_Runtime/Npu/ll_aton/ll_sw_float.c **** 
 156:Lib/AI_Runtime/Npu/ll_aton/ll_sw_float.c ****   AI_ARRAY_OBJ_DECLARE(gemm_operand_c_array, FORMAT, sw_info->operand_c.mem.start_offset,
 990              		.loc 1 156 3
 991 006a D34B     		ldr	r3, .L25
 992 006c C7F88431 		str	r3, [r7, #388]
 993 0070 D7F8B431 		ldr	r3, [r7, #436]
 994 0074 D3F89830 		ldr	r3, [r3, #152]
 995 0078 C7F88831 		str	r3, [r7, #392]
 996 007c D7F8B431 		ldr	r3, [r7, #436]
 997 0080 D3F8AC30 		ldr	r3, [r3, #172]
 998 0084 C7F88C31 		str	r3, [r7, #396]
 999 0088 D7F8B431 		ldr	r3, [r7, #436]
 1000 008c D3F8AC30 		ldr	r3, [r3, #172]
 1001 0090 C7F89031 		str	r3, [r7, #400]
 157:Lib/AI_Runtime/Npu/ll_aton/ll_sw_float.c ****                        sw_info->operand_c.mem.start_offset, sw_info->operand_c.dim.num_elem, )
 158:Lib/AI_Runtime/Npu/ll_aton/ll_sw_float.c **** 
 159:Lib/AI_Runtime/Npu/ll_aton/ll_sw_float.c ****   AI_ARRAY_OBJ_DECLARE(gemm_output_array, FORMAT, sw_info->general.output.mem.start_offset,
 1002              		.loc 1 159 3
 1003 0094 C84B     		ldr	r3, .L25
 1004 0096 C7F87431 		str	r3, [r7, #372]
 1005 009a D7F8B431 		ldr	r3, [r7, #436]
 1006 009e 1B6C     		ldr	r3, [r3, #64]
 1007 00a0 C7F87831 		str	r3, [r7, #376]
 1008 00a4 D7F8B431 		ldr	r3, [r7, #436]
 1009 00a8 5B6D     		ldr	r3, [r3, #84]
 1010 00aa C7F87C31 		str	r3, [r7, #380]
 1011 00ae D7F8B431 		ldr	r3, [r7, #436]
 1012 00b2 5B6D     		ldr	r3, [r3, #84]
 1013 00b4 C7F88031 		str	r3, [r7, #384]
 160:Lib/AI_Runtime/Npu/ll_aton/ll_sw_float.c ****                        sw_info->general.output.mem.start_offset, sw_info->general.output.dim.num_el
 161:Lib/AI_Runtime/Npu/ll_aton/ll_sw_float.c **** 
 162:Lib/AI_Runtime/Npu/ll_aton/ll_sw_float.c ****   AI_TENSOR_OBJ_DECLARE(input_output, , 0x0, 4,
 1014              		.loc 1 162 3
 1015 00b8 0023     		movs	r3, #0
 1016 00ba C7F85831 		str	r3, [r7, #344]
 1017 00be 0023     		movs	r3, #0
 1018 00c0 A7F85C31 		strh	r3, [r7, #348]	@ movhi
 1019 00c4 0423     		movs	r3, #4
 1020 00c6 87F85E31 		strb	r3, [r7, #350]
 1021 00ca 0123     		movs	r3, #1
 1022 00cc 87F85F31 		strb	r3, [r7, #351]
 1023 00d0 0123     		movs	r3, #1
 1024 00d2 87F86031 		strb	r3, [r7, #352]
 1025 00d6 D7F86031 		ldr	r3, [r7, #352]
 1026 00da 0422     		movs	r2, #4
 1027 00dc 62F31F23 		bfi	r3, r2, #8, #24
 1028 00e0 C7F86031 		str	r3, [r7, #352]
 1029 00e4 D7F8B431 		ldr	r3, [r7, #436]
 1030 00e8 1B69     		ldr	r3, [r3, #16]
 1031 00ea C7F84831 		str	r3, [r7, #328]
 1032 00ee D7F8B431 		ldr	r3, [r7, #436]
 1033 00f2 DB68     		ldr	r3, [r3, #12]
 1034 00f4 C7F84C31 		str	r3, [r7, #332]
 1035 00f8 D7F8B431 		ldr	r3, [r7, #436]
 1036 00fc 9B68     		ldr	r3, [r3, #8]
 1037 00fe C7F85031 		str	r3, [r7, #336]
 1038 0102 D7F8B431 		ldr	r3, [r7, #436]
ARM GAS  /tmp/ccEo7NLA.s 			page 28


 1039 0106 5B68     		ldr	r3, [r3, #4]
 1040 0108 C7F85431 		str	r3, [r7, #340]
 1041 010c 07F5A473 		add	r3, r7, #328
 1042 0110 C7F86431 		str	r3, [r7, #356]
 1043 0114 0223     		movs	r3, #2
 1044 0116 87F86831 		strb	r3, [r7, #360]
 1045 011a D7F86831 		ldr	r3, [r7, #360]
 1046 011e 0422     		movs	r2, #4
 1047 0120 62F31F23 		bfi	r3, r2, #8, #24
 1048 0124 C7F86831 		str	r3, [r7, #360]
 1049 0128 D7F8B431 		ldr	r3, [r7, #436]
 1050 012c 5B6A     		ldr	r3, [r3, #36]
 1051 012e C7F83831 		str	r3, [r7, #312]
 1052 0132 D7F8B431 		ldr	r3, [r7, #436]
 1053 0136 1B6A     		ldr	r3, [r3, #32]
 1054 0138 C7F83C31 		str	r3, [r7, #316]
 1055 013c D7F8B431 		ldr	r3, [r7, #436]
 1056 0140 DB69     		ldr	r3, [r3, #28]
 1057 0142 C7F84031 		str	r3, [r7, #320]
 1058 0146 D7F8B431 		ldr	r3, [r7, #436]
 1059 014a 9B69     		ldr	r3, [r3, #24]
 1060 014c C7F84431 		str	r3, [r7, #324]
 1061 0150 07F59C73 		add	r3, r7, #312
 1062 0154 C7F86C31 		str	r3, [r7, #364]
 1063 0158 07F5D273 		add	r3, r7, #420
 1064 015c C7F87031 		str	r3, [r7, #368]
 163:Lib/AI_Runtime/Npu/ll_aton/ll_sw_float.c ****                         SHAPE_INIT(sw_info->general.input.dim.tensor_h, sw_info->general.input.dim.
 164:Lib/AI_Runtime/Npu/ll_aton/ll_sw_float.c ****                                    sw_info->general.input.dim.tensor_c, sw_info->general.input.dim.
 165:Lib/AI_Runtime/Npu/ll_aton/ll_sw_float.c ****                         STRIDE_INIT(sw_info->general.input.stride.h, sw_info->general.input.stride.
 166:Lib/AI_Runtime/Npu/ll_aton/ll_sw_float.c ****                                     sw_info->general.input.stride.c, sw_info->general.input.stride.
 167:Lib/AI_Runtime/Npu/ll_aton/ll_sw_float.c ****                         1, &input_output_array, NULL);
 168:Lib/AI_Runtime/Npu/ll_aton/ll_sw_float.c ****   AI_TENSOR_OBJ_DECLARE(gemm_operand_b, , 0x0, 4,
 1065              		.loc 1 168 3
 1066 0160 0023     		movs	r3, #0
 1067 0162 C7F81C31 		str	r3, [r7, #284]
 1068 0166 0023     		movs	r3, #0
 1069 0168 A7F82031 		strh	r3, [r7, #288]	@ movhi
 1070 016c 0423     		movs	r3, #4
 1071 016e 87F82231 		strb	r3, [r7, #290]
 1072 0172 0123     		movs	r3, #1
 1073 0174 87F82331 		strb	r3, [r7, #291]
 1074 0178 0123     		movs	r3, #1
 1075 017a 87F82431 		strb	r3, [r7, #292]
 1076 017e D7F82431 		ldr	r3, [r7, #292]
 1077 0182 0422     		movs	r2, #4
 1078 0184 62F31F23 		bfi	r3, r2, #8, #24
 1079 0188 C7F82431 		str	r3, [r7, #292]
 1080 018c D7F8B431 		ldr	r3, [r7, #436]
 1081 0190 9B6E     		ldr	r3, [r3, #104]
 1082 0192 C7F80C31 		str	r3, [r7, #268]
 1083 0196 D7F8B431 		ldr	r3, [r7, #436]
 1084 019a 5B6E     		ldr	r3, [r3, #100]
 1085 019c C7F81031 		str	r3, [r7, #272]
 1086 01a0 D7F8B431 		ldr	r3, [r7, #436]
 1087 01a4 1B6E     		ldr	r3, [r3, #96]
 1088 01a6 C7F81431 		str	r3, [r7, #276]
 1089 01aa D7F8B431 		ldr	r3, [r7, #436]
ARM GAS  /tmp/ccEo7NLA.s 			page 29


 1090 01ae DB6D     		ldr	r3, [r3, #92]
 1091 01b0 C7F81831 		str	r3, [r7, #280]
 1092 01b4 07F58673 		add	r3, r7, #268
 1093 01b8 C7F82831 		str	r3, [r7, #296]
 1094 01bc 0223     		movs	r3, #2
 1095 01be 87F82C31 		strb	r3, [r7, #300]
 1096 01c2 D7F82C31 		ldr	r3, [r7, #300]
 1097 01c6 0422     		movs	r2, #4
 1098 01c8 62F31F23 		bfi	r3, r2, #8, #24
 1099 01cc C7F82C31 		str	r3, [r7, #300]
 1100 01d0 D7F8B431 		ldr	r3, [r7, #436]
 1101 01d4 DB6F     		ldr	r3, [r3, #124]
 1102 01d6 C7F8FC30 		str	r3, [r7, #252]
 1103 01da D7F8B431 		ldr	r3, [r7, #436]
 1104 01de 9B6F     		ldr	r3, [r3, #120]
 1105 01e0 C7F80031 		str	r3, [r7, #256]
 1106 01e4 D7F8B431 		ldr	r3, [r7, #436]
 1107 01e8 5B6F     		ldr	r3, [r3, #116]
 1108 01ea C7F80431 		str	r3, [r7, #260]
 1109 01ee D7F8B431 		ldr	r3, [r7, #436]
 1110 01f2 1B6F     		ldr	r3, [r3, #112]
 1111 01f4 C7F80831 		str	r3, [r7, #264]
 1112 01f8 07F1FC03 		add	r3, r7, #252
 1113 01fc C7F83031 		str	r3, [r7, #304]
 1114 0200 07F5CA73 		add	r3, r7, #404
 1115 0204 C7F83431 		str	r3, [r7, #308]
 169:Lib/AI_Runtime/Npu/ll_aton/ll_sw_float.c ****                         SHAPE_INIT(sw_info->operand_b.dim.tensor_h, sw_info->operand_b.dim.tensor_w
 170:Lib/AI_Runtime/Npu/ll_aton/ll_sw_float.c ****                                    sw_info->operand_b.dim.tensor_c, sw_info->operand_b.dim.tensor_b
 171:Lib/AI_Runtime/Npu/ll_aton/ll_sw_float.c ****                         STRIDE_INIT(sw_info->operand_b.stride.h, sw_info->operand_b.stride.w,
 172:Lib/AI_Runtime/Npu/ll_aton/ll_sw_float.c ****                                     sw_info->operand_b.stride.c, sw_info->operand_b.stride.b),
 173:Lib/AI_Runtime/Npu/ll_aton/ll_sw_float.c ****                         1, &gemm_operand_b_array, NULL);
 174:Lib/AI_Runtime/Npu/ll_aton/ll_sw_float.c ****   AI_TENSOR_OBJ_DECLARE(gemm_operand_c, , 0x0, 4,
 1116              		.loc 1 174 3
 1117 0208 0023     		movs	r3, #0
 1118 020a C7F8E030 		str	r3, [r7, #224]
 1119 020e 0023     		movs	r3, #0
 1120 0210 A7F8E430 		strh	r3, [r7, #228]	@ movhi
 1121 0214 0423     		movs	r3, #4
 1122 0216 87F8E630 		strb	r3, [r7, #230]
 1123 021a 0123     		movs	r3, #1
 1124 021c 87F8E730 		strb	r3, [r7, #231]
 1125 0220 0123     		movs	r3, #1
 1126 0222 87F8E830 		strb	r3, [r7, #232]
 1127 0226 D7F8E830 		ldr	r3, [r7, #232]
 1128 022a 0422     		movs	r2, #4
 1129 022c 62F31F23 		bfi	r3, r2, #8, #24
 1130 0230 C7F8E830 		str	r3, [r7, #232]
 1131 0234 D7F8B431 		ldr	r3, [r7, #436]
 1132 0238 D3F89430 		ldr	r3, [r3, #148]
 1133 023c C7F8D030 		str	r3, [r7, #208]
 1134 0240 D7F8B431 		ldr	r3, [r7, #436]
 1135 0244 D3F89030 		ldr	r3, [r3, #144]
 1136 0248 C7F8D430 		str	r3, [r7, #212]
 1137 024c D7F8B431 		ldr	r3, [r7, #436]
 1138 0250 D3F88C30 		ldr	r3, [r3, #140]
 1139 0254 C7F8D830 		str	r3, [r7, #216]
 1140 0258 D7F8B431 		ldr	r3, [r7, #436]
ARM GAS  /tmp/ccEo7NLA.s 			page 30


 1141 025c D3F88830 		ldr	r3, [r3, #136]
 1142 0260 C7F8DC30 		str	r3, [r7, #220]
 1143 0264 07F1D003 		add	r3, r7, #208
 1144 0268 C7F8EC30 		str	r3, [r7, #236]
 1145 026c 0223     		movs	r3, #2
 1146 026e 87F8F030 		strb	r3, [r7, #240]
 1147 0272 D7F8F030 		ldr	r3, [r7, #240]
 1148 0276 0422     		movs	r2, #4
 1149 0278 62F31F23 		bfi	r3, r2, #8, #24
 1150 027c C7F8F030 		str	r3, [r7, #240]
 1151 0280 D7F8B431 		ldr	r3, [r7, #436]
 1152 0284 D3F8A830 		ldr	r3, [r3, #168]
 1153 0288 C7F8C030 		str	r3, [r7, #192]
 1154 028c D7F8B431 		ldr	r3, [r7, #436]
 1155 0290 D3F8A430 		ldr	r3, [r3, #164]
 1156 0294 C7F8C430 		str	r3, [r7, #196]
 1157 0298 D7F8B431 		ldr	r3, [r7, #436]
 1158 029c D3F8A030 		ldr	r3, [r3, #160]
 1159 02a0 C7F8C830 		str	r3, [r7, #200]
 1160 02a4 D7F8B431 		ldr	r3, [r7, #436]
 1161 02a8 D3F89C30 		ldr	r3, [r3, #156]
 1162 02ac C7F8CC30 		str	r3, [r7, #204]
 1163 02b0 07F1C003 		add	r3, r7, #192
 1164 02b4 C7F8F430 		str	r3, [r7, #244]
 1165 02b8 07F5C273 		add	r3, r7, #388
 1166 02bc C7F8F830 		str	r3, [r7, #248]
 175:Lib/AI_Runtime/Npu/ll_aton/ll_sw_float.c ****                         SHAPE_INIT(sw_info->operand_c.dim.tensor_h, sw_info->operand_c.dim.tensor_w
 176:Lib/AI_Runtime/Npu/ll_aton/ll_sw_float.c ****                                    sw_info->operand_c.dim.tensor_c, sw_info->operand_c.dim.tensor_b
 177:Lib/AI_Runtime/Npu/ll_aton/ll_sw_float.c ****                         STRIDE_INIT(sw_info->operand_c.stride.h, sw_info->operand_c.stride.w,
 178:Lib/AI_Runtime/Npu/ll_aton/ll_sw_float.c ****                                     sw_info->operand_c.stride.c, sw_info->operand_c.stride.b),
 179:Lib/AI_Runtime/Npu/ll_aton/ll_sw_float.c ****                         1, &gemm_operand_c_array, NULL);
 180:Lib/AI_Runtime/Npu/ll_aton/ll_sw_float.c **** 
 181:Lib/AI_Runtime/Npu/ll_aton/ll_sw_float.c ****   AI_TENSOR_OBJ_DECLARE(gemm_output, , 0x0, 4,
 1167              		.loc 1 181 3
 1168 02c0 07F5DC73 		add	r3, r7, #440
 1169 02c4 A3F58A73 		sub	r3, r3, #276
 1170 02c8 0022     		movs	r2, #0
 1171 02ca 1A60     		str	r2, [r3]
 1172 02cc 07F5DC73 		add	r3, r7, #440
 1173 02d0 A3F58A73 		sub	r3, r3, #276
 1174 02d4 0022     		movs	r2, #0
 1175 02d6 9A80     		strh	r2, [r3, #4]	@ movhi
 1176 02d8 07F5DC73 		add	r3, r7, #440
 1177 02dc A3F58A73 		sub	r3, r3, #276
 1178 02e0 0422     		movs	r2, #4
 1179 02e2 9A71     		strb	r2, [r3, #6]
 1180 02e4 07F5DC73 		add	r3, r7, #440
 1181 02e8 A3F58A73 		sub	r3, r3, #276
 1182 02ec 0122     		movs	r2, #1
 1183 02ee DA71     		strb	r2, [r3, #7]
 1184 02f0 07F5DC73 		add	r3, r7, #440
 1185 02f4 A3F58A73 		sub	r3, r3, #276
 1186 02f8 0122     		movs	r2, #1
 1187 02fa 1A72     		strb	r2, [r3, #8]
 1188 02fc 07F5DC73 		add	r3, r7, #440
 1189 0300 A3F58A72 		sub	r2, r3, #276
 1190 0304 9368     		ldr	r3, [r2, #8]
ARM GAS  /tmp/ccEo7NLA.s 			page 31


 1191 0306 0421     		movs	r1, #4
 1192 0308 61F31F23 		bfi	r3, r1, #8, #24
 1193 030c 9360     		str	r3, [r2, #8]
 1194 030e D7F8B431 		ldr	r3, [r7, #436]
 1195 0312 DA6B     		ldr	r2, [r3, #60]
 1196 0314 07F5DC73 		add	r3, r7, #440
 1197 0318 A3F59273 		sub	r3, r3, #292
 1198 031c 1A60     		str	r2, [r3]
 1199 031e D7F8B431 		ldr	r3, [r7, #436]
 1200 0322 9A6B     		ldr	r2, [r3, #56]
 1201 0324 07F5DC73 		add	r3, r7, #440
 1202 0328 A3F59273 		sub	r3, r3, #292
 1203 032c 5A60     		str	r2, [r3, #4]
 1204 032e D7F8B431 		ldr	r3, [r7, #436]
 1205 0332 5A6B     		ldr	r2, [r3, #52]
 1206 0334 07F5DC73 		add	r3, r7, #440
 1207 0338 A3F59273 		sub	r3, r3, #292
 1208 033c 9A60     		str	r2, [r3, #8]
 1209 033e D7F8B431 		ldr	r3, [r7, #436]
 1210 0342 1A6B     		ldr	r2, [r3, #48]
 1211 0344 07F5DC73 		add	r3, r7, #440
 1212 0348 A3F59273 		sub	r3, r3, #292
 1213 034c DA60     		str	r2, [r3, #12]
 1214 034e 07F5DC73 		add	r3, r7, #440
 1215 0352 A3F58A73 		sub	r3, r3, #276
 1216 0356 07F19402 		add	r2, r7, #148
 1217 035a DA60     		str	r2, [r3, #12]
 1218 035c 07F5DC73 		add	r3, r7, #440
 1219 0360 A3F58A73 		sub	r3, r3, #276
 1220 0364 0222     		movs	r2, #2
 1221 0366 1A74     		strb	r2, [r3, #16]
 1222 0368 07F5DC73 		add	r3, r7, #440
 1223 036c A3F58A72 		sub	r2, r3, #276
 1224 0370 1369     		ldr	r3, [r2, #16]
 1225 0372 0421     		movs	r1, #4
 1226 0374 61F31F23 		bfi	r3, r1, #8, #24
 1227 0378 1361     		str	r3, [r2, #16]
 1228 037a D7F8B431 		ldr	r3, [r7, #436]
 1229 037e 1B6D     		ldr	r3, [r3, #80]
 1230 0380 1A46     		mov	r2, r3
 1231 0382 07F5DC73 		add	r3, r7, #440
 1232 0386 A3F59A73 		sub	r3, r3, #308
 1233 038a 1A60     		str	r2, [r3]
 1234 038c D7F8B431 		ldr	r3, [r7, #436]
 1235 0390 DB6C     		ldr	r3, [r3, #76]
 1236 0392 1A46     		mov	r2, r3
 1237 0394 07F5DC73 		add	r3, r7, #440
 1238 0398 A3F59A73 		sub	r3, r3, #308
 1239 039c 5A60     		str	r2, [r3, #4]
 1240 039e D7F8B431 		ldr	r3, [r7, #436]
 1241 03a2 9B6C     		ldr	r3, [r3, #72]
 1242 03a4 1A46     		mov	r2, r3
 1243 03a6 07F5DC73 		add	r3, r7, #440
 1244 03aa A3F59A73 		sub	r3, r3, #308
 1245 03ae 9A60     		str	r2, [r3, #8]
 1246 03b0 D7F8B431 		ldr	r3, [r7, #436]
 1247 03b4 02E0     		b	.L26
ARM GAS  /tmp/ccEo7NLA.s 			page 32


 1248              	.L27:
 1249 03b6 00BF     		.align	2
 1250              	.L25:
 1251 03b8 40108200 		.word	8523840
 1252              	.L26:
 1253 03bc 5B6C     		ldr	r3, [r3, #68]
 1254 03be 1A46     		mov	r2, r3
 1255 03c0 07F5DC73 		add	r3, r7, #440
 1256 03c4 A3F59A73 		sub	r3, r3, #308
 1257 03c8 DA60     		str	r2, [r3, #12]
 1258 03ca 07F5DC73 		add	r3, r7, #440
 1259 03ce A3F58A73 		sub	r3, r3, #276
 1260 03d2 07F18402 		add	r2, r7, #132
 1261 03d6 5A61     		str	r2, [r3, #20]
 1262 03d8 07F5DC73 		add	r3, r7, #440
 1263 03dc A3F58A73 		sub	r3, r3, #276
 1264 03e0 07F5BA72 		add	r2, r7, #372
 1265 03e4 9A61     		str	r2, [r3, #24]
 182:Lib/AI_Runtime/Npu/ll_aton/ll_sw_float.c ****                         SHAPE_INIT(sw_info->general.output.dim.tensor_h, sw_info->general.output.di
 183:Lib/AI_Runtime/Npu/ll_aton/ll_sw_float.c ****                                    sw_info->general.output.dim.tensor_c, sw_info->general.output.di
 184:Lib/AI_Runtime/Npu/ll_aton/ll_sw_float.c ****                         STRIDE_INIT(sw_info->general.output.stride.h, sw_info->general.output.strid
 185:Lib/AI_Runtime/Npu/ll_aton/ll_sw_float.c ****                                     sw_info->general.output.stride.c, sw_info->general.output.strid
 186:Lib/AI_Runtime/Npu/ll_aton/ll_sw_float.c ****                         1, &gemm_output_array, NULL);
 187:Lib/AI_Runtime/Npu/ll_aton/ll_sw_float.c ****   // tensor chain initialization
 188:Lib/AI_Runtime/Npu/ll_aton/ll_sw_float.c ****   AI_TENSOR_CHAIN_OBJ_DECLARE(
 1266              		.loc 1 188 3
 1267 03e6 07F5DC73 		add	r3, r7, #440
 1268 03ea A3F59E73 		sub	r3, r3, #316
 1269 03ee 0422     		movs	r2, #4
 1270 03f0 1A80     		strh	r2, [r3]	@ movhi
 1271 03f2 07F5DC73 		add	r3, r7, #440
 1272 03f6 A3F59E73 		sub	r3, r3, #316
 1273 03fa 0022     		movs	r2, #0
 1274 03fc 5A80     		strh	r2, [r3, #2]	@ movhi
 1275 03fe 07F5DC73 		add	r3, r7, #440
 1276 0402 A3F5C273 		sub	r3, r3, #388
 1277 0406 0322     		movs	r2, #3
 1278 0408 1A80     		strh	r2, [r3]	@ movhi
 1279 040a 07F5DC73 		add	r3, r7, #440
 1280 040e A3F5C273 		sub	r3, r3, #388
 1281 0412 0022     		movs	r2, #0
 1282 0414 5A80     		strh	r2, [r3, #2]	@ movhi
 1283 0416 07F5DC73 		add	r3, r7, #440
 1284 041a A3F5A473 		sub	r3, r3, #328
 1285 041e 07F5AC72 		add	r2, r7, #344
 1286 0422 1A60     		str	r2, [r3]
 1287 0424 07F5DC73 		add	r3, r7, #440
 1288 0428 A3F5A473 		sub	r3, r3, #328
 1289 042c 07F58E72 		add	r2, r7, #284
 1290 0430 5A60     		str	r2, [r3, #4]
 1291 0432 07F5DC73 		add	r3, r7, #440
 1292 0436 A3F5A473 		sub	r3, r3, #328
 1293 043a 07F1E002 		add	r2, r7, #224
 1294 043e 9A60     		str	r2, [r3, #8]
 1295 0440 07F5DC73 		add	r3, r7, #440
 1296 0444 A3F5C273 		sub	r3, r3, #388
 1297 0448 07F17002 		add	r2, r7, #112
ARM GAS  /tmp/ccEo7NLA.s 			page 33


 1298 044c 5A60     		str	r2, [r3, #4]
 1299 044e 07F5DC73 		add	r3, r7, #440
 1300 0452 A3F5C273 		sub	r3, r3, #388
 1301 0456 0022     		movs	r2, #0
 1302 0458 9A60     		str	r2, [r3, #8]
 1303 045a 07F5DC73 		add	r3, r7, #440
 1304 045e A3F5C273 		sub	r3, r3, #388
 1305 0462 0122     		movs	r2, #1
 1306 0464 9A81     		strh	r2, [r3, #12]	@ movhi
 1307 0466 07F5DC73 		add	r3, r7, #440
 1308 046a A3F5C273 		sub	r3, r3, #388
 1309 046e 0022     		movs	r2, #0
 1310 0470 DA81     		strh	r2, [r3, #14]	@ movhi
 1311 0472 07F5DC73 		add	r3, r7, #440
 1312 0476 A3F5A673 		sub	r3, r3, #332
 1313 047a 07F1A402 		add	r2, r7, #164
 1314 047e 1A60     		str	r2, [r3]
 1315 0480 07F5DC73 		add	r3, r7, #440
 1316 0484 A3F5C273 		sub	r3, r3, #388
 1317 0488 07F16C02 		add	r2, r7, #108
 1318 048c 1A61     		str	r2, [r3, #16]
 1319 048e 07F5DC73 		add	r3, r7, #440
 1320 0492 A3F5C273 		sub	r3, r3, #388
 1321 0496 0022     		movs	r2, #0
 1322 0498 5A61     		str	r2, [r3, #20]
 1323 049a 07F5DC73 		add	r3, r7, #440
 1324 049e A3F5C273 		sub	r3, r3, #388
 1325 04a2 0022     		movs	r2, #0
 1326 04a4 1A83     		strh	r2, [r3, #24]	@ movhi
 1327 04a6 07F5DC73 		add	r3, r7, #440
 1328 04aa A3F5C273 		sub	r3, r3, #388
 1329 04ae 0022     		movs	r2, #0
 1330 04b0 5A83     		strh	r2, [r3, #26]	@ movhi
 1331 04b2 07F5DC73 		add	r3, r7, #440
 1332 04b6 A3F5A873 		sub	r3, r3, #336
 1333 04ba 0022     		movs	r2, #0
 1334 04bc 1A60     		str	r2, [r3]
 1335 04be 07F5DC73 		add	r3, r7, #440
 1336 04c2 A3F5C273 		sub	r3, r3, #388
 1337 04c6 07F16802 		add	r2, r7, #104
 1338 04ca DA61     		str	r2, [r3, #28]
 1339 04cc 07F5DC73 		add	r3, r7, #440
 1340 04d0 A3F5C273 		sub	r3, r3, #388
 1341 04d4 0022     		movs	r2, #0
 1342 04d6 1A62     		str	r2, [r3, #32]
 1343 04d8 07F5DC73 		add	r3, r7, #440
 1344 04dc A3F5C273 		sub	r3, r3, #388
 1345 04e0 0022     		movs	r2, #0
 1346 04e2 9A84     		strh	r2, [r3, #36]	@ movhi
 1347 04e4 07F5DC73 		add	r3, r7, #440
 1348 04e8 A3F5C273 		sub	r3, r3, #388
 1349 04ec 0022     		movs	r2, #0
 1350 04ee DA84     		strh	r2, [r3, #38]	@ movhi
 1351 04f0 07F5DC73 		add	r3, r7, #440
 1352 04f4 A3F5AA73 		sub	r3, r3, #340
 1353 04f8 0022     		movs	r2, #0
 1354 04fa 1A60     		str	r2, [r3]
ARM GAS  /tmp/ccEo7NLA.s 			page 34


 1355 04fc 07F5DC73 		add	r3, r7, #440
 1356 0500 A3F5C273 		sub	r3, r3, #388
 1357 0504 07F16402 		add	r2, r7, #100
 1358 0508 9A62     		str	r2, [r3, #40]
 1359 050a 07F5DC73 		add	r3, r7, #440
 1360 050e A3F5C273 		sub	r3, r3, #388
 1361 0512 0022     		movs	r2, #0
 1362 0514 DA62     		str	r2, [r3, #44]
 1363 0516 07F5DC73 		add	r3, r7, #440
 1364 051a A3F59E73 		sub	r3, r3, #316
 1365 051e 07F13402 		add	r2, r7, #52
 1366 0522 5A60     		str	r2, [r3, #4]
 189:Lib/AI_Runtime/Npu/ll_aton/ll_sw_float.c ****       gemm_chain, , 4,
 190:Lib/AI_Runtime/Npu/ll_aton/ll_sw_float.c ****       AI_TENSOR_LIST_OBJ_INIT(AI_FLAG_NONE, 3, TENSORS(&input_output, &gemm_operand_b, &gemm_operan
 191:Lib/AI_Runtime/Npu/ll_aton/ll_sw_float.c ****       AI_TENSOR_LIST_OBJ_INIT(AI_FLAG_NONE, 1, TENSORS(&gemm_output)), AI_TENSOR_LIST_OBJ_EMPTY,
 192:Lib/AI_Runtime/Npu/ll_aton/ll_sw_float.c ****       AI_TENSOR_LIST_OBJ_EMPTY)
 193:Lib/AI_Runtime/Npu/ll_aton/ll_sw_float.c ****   // layer initialization
 194:Lib/AI_Runtime/Npu/ll_aton/ll_sw_float.c ****   AI_LAYER_OBJ_DECLARE(gemm_layer, 1, GEMM_TYPE, 0x0, NULL, gemm, forward_gemm, &gemm_chain, NULL, 
 1367              		.loc 1 194 3
 1368 0524 07F5DC73 		add	r3, r7, #440
 1369 0528 A3F5D673 		sub	r3, r3, #428
 1370 052c 40F21112 		movw	r2, #273
 1371 0530 1A80     		strh	r2, [r3]	@ movhi
 1372 0532 07F5DC73 		add	r3, r7, #440
 1373 0536 A3F5D673 		sub	r3, r3, #428
 1374 053a 0122     		movs	r2, #1
 1375 053c 5A80     		strh	r2, [r3, #2]	@ movhi
 1376 053e 07F5DC73 		add	r3, r7, #440
 1377 0542 A3F5D673 		sub	r3, r3, #428
 1378 0546 0022     		movs	r2, #0
 1379 0548 5A60     		str	r2, [r3, #4]
 1380 054a 07F5DC73 		add	r3, r7, #440
 1381 054e A3F5D673 		sub	r3, r3, #428
 1382 0552 0022     		movs	r2, #0
 1383 0554 9A60     		str	r2, [r3, #8]
 1384 0556 07F5DC73 		add	r3, r7, #440
 1385 055a A3F5D673 		sub	r3, r3, #428
 1386 055e 0022     		movs	r2, #0
 1387 0560 DA60     		str	r2, [r3, #12]
 1388 0562 07F5DC73 		add	r3, r7, #440
 1389 0566 A3F5D673 		sub	r3, r3, #428
 1390 056a 0022     		movs	r2, #0
 1391 056c 1A61     		str	r2, [r3, #16]
 1392 056e 07F5DC73 		add	r3, r7, #440
 1393 0572 A3F5D673 		sub	r3, r3, #428
 1394 0576 1E4A     		ldr	r2, .L28
 1395 0578 5A61     		str	r2, [r3, #20]
 1396 057a 07F5DC73 		add	r3, r7, #440
 1397 057e A3F5D673 		sub	r3, r3, #428
 1398 0582 07F17C02 		add	r2, r7, #124
 1399 0586 9A61     		str	r2, [r3, #24]
 1400 0588 D7F8B431 		ldr	r3, [r7, #436]
 1401 058c D3F8B420 		ldr	r2, [r3, #180]	@ float
 1402 0590 07F5DC73 		add	r3, r7, #440
 1403 0594 A3F5D673 		sub	r3, r3, #428
 1404 0598 DA61     		str	r2, [r3, #28]	@ float
 1405 059a D7F8B431 		ldr	r3, [r7, #436]
ARM GAS  /tmp/ccEo7NLA.s 			page 35


 1406 059e D3F8B820 		ldr	r2, [r3, #184]	@ float
 1407 05a2 07F5DC73 		add	r3, r7, #440
 1408 05a6 A3F5D673 		sub	r3, r3, #428
 1409 05aa 1A62     		str	r2, [r3, #32]	@ float
 1410 05ac D7F8B431 		ldr	r3, [r7, #436]
 1411 05b0 93F8BC20 		ldrb	r2, [r3, #188]	@ zero_extendqisi2
 1412 05b4 07F5DC73 		add	r3, r7, #440
 1413 05b8 A3F5D673 		sub	r3, r3, #428
 1414 05bc 83F82420 		strb	r2, [r3, #36]
 1415 05c0 D7F8B431 		ldr	r3, [r7, #436]
 1416 05c4 93F8BD20 		ldrb	r2, [r3, #189]	@ zero_extendqisi2
 1417 05c8 07F5DC73 		add	r3, r7, #440
 1418 05cc A3F5D673 		sub	r3, r3, #428
 1419 05d0 83F82520 		strb	r2, [r3, #37]
 195:Lib/AI_Runtime/Npu/ll_aton/ll_sw_float.c ****                        .alpha = sw_info->alpha, .beta = sw_info->beta, .tA = sw_info->tA, .tB = sw_
 196:Lib/AI_Runtime/Npu/ll_aton/ll_sw_float.c ****   gemm_layer.forward(AI_LAYER_OBJ(&gemm_layer));
 1420              		.loc 1 196 13
 1421 05d4 07F5DC73 		add	r3, r7, #440
 1422 05d8 A3F5D673 		sub	r3, r3, #428
 1423 05dc 5B69     		ldr	r3, [r3, #20]
 1424              		.loc 1 196 3
 1425 05de 07F10C02 		add	r2, r7, #12
 1426 05e2 1046     		mov	r0, r2
 1427 05e4 9847     		blx	r3
 1428              	.LVL2:
 197:Lib/AI_Runtime/Npu/ll_aton/ll_sw_float.c **** }
 1429              		.loc 1 197 1
 1430 05e6 00BF     		nop
 1431 05e8 07F5DC77 		add	r7, r7, #440
 1432              		.cfi_def_cfa_offset 8
 1433 05ec BD46     		mov	sp, r7
 1434              		.cfi_def_cfa_register 13
 1435              		@ sp needed
 1436 05ee 80BD     		pop	{r7, pc}
 1437              	.L29:
 1438              		.align	2
 1439              	.L28:
 1440 05f0 00000000 		.word	forward_gemm
 1441              		.cfi_endproc
 1442              	.LFE16:
 1444              		.section	.text.ll_sw_forward_matmul,"ax",%progbits
 1445              		.align	1
 1446              		.global	ll_sw_forward_matmul
 1447              		.syntax unified
 1448              		.thumb
 1449              		.thumb_func
 1451              	ll_sw_forward_matmul:
 1452              	.LFB17:
 198:Lib/AI_Runtime/Npu/ll_aton/ll_sw_float.c **** 
 199:Lib/AI_Runtime/Npu/ll_aton/ll_sw_float.c **** //##########################################################################################
 200:Lib/AI_Runtime/Npu/ll_aton/ll_sw_float.c **** /** MatMul forward function */
 201:Lib/AI_Runtime/Npu/ll_aton/ll_sw_float.c **** void ll_sw_forward_matmul(/* int processor, */ void *sw_info_struct)
 202:Lib/AI_Runtime/Npu/ll_aton/ll_sw_float.c **** {
 1453              		.loc 1 202 1
 1454              		.cfi_startproc
 1455              		@ args = 0, pretend = 0, frame = 352
 1456              		@ frame_needed = 1, uses_anonymous_args = 0
ARM GAS  /tmp/ccEo7NLA.s 			page 36


 1457 0000 80B5     		push	{r7, lr}
 1458              		.cfi_def_cfa_offset 8
 1459              		.cfi_offset 7, -8
 1460              		.cfi_offset 14, -4
 1461 0002 D8B0     		sub	sp, sp, #352
 1462              		.cfi_def_cfa_offset 360
 1463 0004 00AF     		add	r7, sp, #0
 1464              		.cfi_def_cfa_register 7
 1465 0006 07F5B073 		add	r3, r7, #352
 1466 000a A3F5AE73 		sub	r3, r3, #348
 1467 000e 1860     		str	r0, [r3]
 203:Lib/AI_Runtime/Npu/ll_aton/ll_sw_float.c ****   Matmul_sw_info *sw_info = (Matmul_sw_info *)sw_info_struct;
 1468              		.loc 1 203 19
 1469 0010 07F5B073 		add	r3, r7, #352
 1470 0014 A3F5AE73 		sub	r3, r3, #348
 1471 0018 1B68     		ldr	r3, [r3]
 1472 001a C7F85C31 		str	r3, [r7, #348]
 204:Lib/AI_Runtime/Npu/ll_aton/ll_sw_float.c ****   // array init
 205:Lib/AI_Runtime/Npu/ll_aton/ll_sw_float.c ****   AI_ARRAY_OBJ_DECLARE(input_output_array, FORMAT, sw_info->general.input.mem.start_offset,
 1473              		.loc 1 205 3
 1474 001e E14B     		ldr	r3, .L31
 1475 0020 C7F84C31 		str	r3, [r7, #332]
 1476 0024 D7F85C31 		ldr	r3, [r7, #348]
 1477 0028 5B69     		ldr	r3, [r3, #20]
 1478 002a C7F85031 		str	r3, [r7, #336]
 1479 002e D7F85C31 		ldr	r3, [r7, #348]
 1480 0032 9B6A     		ldr	r3, [r3, #40]
 1481 0034 C7F85431 		str	r3, [r7, #340]
 1482 0038 D7F85C31 		ldr	r3, [r7, #348]
 1483 003c 9B6A     		ldr	r3, [r3, #40]
 1484 003e C7F85831 		str	r3, [r7, #344]
 206:Lib/AI_Runtime/Npu/ll_aton/ll_sw_float.c ****                        sw_info->general.input.mem.start_offset, sw_info->general.input.dim.num_elem
 207:Lib/AI_Runtime/Npu/ll_aton/ll_sw_float.c **** 
 208:Lib/AI_Runtime/Npu/ll_aton/ll_sw_float.c ****   AI_ARRAY_OBJ_DECLARE(matmul_operand_b_array, FORMAT, sw_info->operand_b.mem.start_offset,
 1485              		.loc 1 208 3
 1486 0042 D84B     		ldr	r3, .L31
 1487 0044 C7F83C31 		str	r3, [r7, #316]
 1488 0048 D7F85C31 		ldr	r3, [r7, #348]
 1489 004c DB6E     		ldr	r3, [r3, #108]
 1490 004e C7F84031 		str	r3, [r7, #320]
 1491 0052 D7F85C31 		ldr	r3, [r7, #348]
 1492 0056 D3F88030 		ldr	r3, [r3, #128]
 1493 005a C7F84431 		str	r3, [r7, #324]
 1494 005e D7F85C31 		ldr	r3, [r7, #348]
 1495 0062 D3F88030 		ldr	r3, [r3, #128]
 1496 0066 C7F84831 		str	r3, [r7, #328]
 209:Lib/AI_Runtime/Npu/ll_aton/ll_sw_float.c ****                        sw_info->operand_b.mem.start_offset, sw_info->operand_b.dim.num_elem, )
 210:Lib/AI_Runtime/Npu/ll_aton/ll_sw_float.c **** 
 211:Lib/AI_Runtime/Npu/ll_aton/ll_sw_float.c ****   AI_ARRAY_OBJ_DECLARE(matmul_output_array, FORMAT, sw_info->general.output.mem.start_offset,
 1497              		.loc 1 211 3
 1498 006a CE4B     		ldr	r3, .L31
 1499 006c C7F82C31 		str	r3, [r7, #300]
 1500 0070 D7F85C31 		ldr	r3, [r7, #348]
 1501 0074 1B6C     		ldr	r3, [r3, #64]
 1502 0076 C7F83031 		str	r3, [r7, #304]
 1503 007a D7F85C31 		ldr	r3, [r7, #348]
 1504 007e 5B6D     		ldr	r3, [r3, #84]
ARM GAS  /tmp/ccEo7NLA.s 			page 37


 1505 0080 C7F83431 		str	r3, [r7, #308]
 1506 0084 D7F85C31 		ldr	r3, [r7, #348]
 1507 0088 5B6D     		ldr	r3, [r3, #84]
 1508 008a C7F83831 		str	r3, [r7, #312]
 212:Lib/AI_Runtime/Npu/ll_aton/ll_sw_float.c ****                        sw_info->general.output.mem.start_offset, sw_info->general.output.dim.num_el
 213:Lib/AI_Runtime/Npu/ll_aton/ll_sw_float.c **** 
 214:Lib/AI_Runtime/Npu/ll_aton/ll_sw_float.c ****   AI_TENSOR_OBJ_DECLARE(input_output, , 0x0, 4,
 1509              		.loc 1 214 3
 1510 008e 0023     		movs	r3, #0
 1511 0090 C7F81031 		str	r3, [r7, #272]
 1512 0094 0023     		movs	r3, #0
 1513 0096 A7F81431 		strh	r3, [r7, #276]	@ movhi
 1514 009a 0423     		movs	r3, #4
 1515 009c 87F81631 		strb	r3, [r7, #278]
 1516 00a0 0123     		movs	r3, #1
 1517 00a2 87F81731 		strb	r3, [r7, #279]
 1518 00a6 0123     		movs	r3, #1
 1519 00a8 87F81831 		strb	r3, [r7, #280]
 1520 00ac D7F81831 		ldr	r3, [r7, #280]
 1521 00b0 0422     		movs	r2, #4
 1522 00b2 62F31F23 		bfi	r3, r2, #8, #24
 1523 00b6 C7F81831 		str	r3, [r7, #280]
 1524 00ba D7F85C31 		ldr	r3, [r7, #348]
 1525 00be 1B69     		ldr	r3, [r3, #16]
 1526 00c0 C7F80031 		str	r3, [r7, #256]
 1527 00c4 D7F85C31 		ldr	r3, [r7, #348]
 1528 00c8 DB68     		ldr	r3, [r3, #12]
 1529 00ca C7F80431 		str	r3, [r7, #260]
 1530 00ce D7F85C31 		ldr	r3, [r7, #348]
 1531 00d2 9B68     		ldr	r3, [r3, #8]
 1532 00d4 C7F80831 		str	r3, [r7, #264]
 1533 00d8 D7F85C31 		ldr	r3, [r7, #348]
 1534 00dc 5B68     		ldr	r3, [r3, #4]
 1535 00de C7F80C31 		str	r3, [r7, #268]
 1536 00e2 07F58073 		add	r3, r7, #256
 1537 00e6 C7F81C31 		str	r3, [r7, #284]
 1538 00ea 0223     		movs	r3, #2
 1539 00ec 87F82031 		strb	r3, [r7, #288]
 1540 00f0 D7F82031 		ldr	r3, [r7, #288]
 1541 00f4 0422     		movs	r2, #4
 1542 00f6 62F31F23 		bfi	r3, r2, #8, #24
 1543 00fa C7F82031 		str	r3, [r7, #288]
 1544 00fe D7F85C31 		ldr	r3, [r7, #348]
 1545 0102 5B6A     		ldr	r3, [r3, #36]
 1546 0104 C7F8F030 		str	r3, [r7, #240]
 1547 0108 D7F85C31 		ldr	r3, [r7, #348]
 1548 010c 1B6A     		ldr	r3, [r3, #32]
 1549 010e C7F8F430 		str	r3, [r7, #244]
 1550 0112 D7F85C31 		ldr	r3, [r7, #348]
 1551 0116 DB69     		ldr	r3, [r3, #28]
 1552 0118 C7F8F830 		str	r3, [r7, #248]
 1553 011c D7F85C31 		ldr	r3, [r7, #348]
 1554 0120 9B69     		ldr	r3, [r3, #24]
 1555 0122 C7F8FC30 		str	r3, [r7, #252]
 1556 0126 07F1F003 		add	r3, r7, #240
 1557 012a C7F82431 		str	r3, [r7, #292]
 1558 012e 07F5A673 		add	r3, r7, #332
ARM GAS  /tmp/ccEo7NLA.s 			page 38


 1559 0132 C7F82831 		str	r3, [r7, #296]
 215:Lib/AI_Runtime/Npu/ll_aton/ll_sw_float.c ****                         SHAPE_INIT(sw_info->general.input.dim.tensor_h, sw_info->general.input.dim.
 216:Lib/AI_Runtime/Npu/ll_aton/ll_sw_float.c ****                                    sw_info->general.input.dim.tensor_c, sw_info->general.input.dim.
 217:Lib/AI_Runtime/Npu/ll_aton/ll_sw_float.c ****                         STRIDE_INIT(sw_info->general.input.stride.h, sw_info->general.input.stride.
 218:Lib/AI_Runtime/Npu/ll_aton/ll_sw_float.c ****                                     sw_info->general.input.stride.c, sw_info->general.input.stride.
 219:Lib/AI_Runtime/Npu/ll_aton/ll_sw_float.c ****                         1, &input_output_array, NULL);
 220:Lib/AI_Runtime/Npu/ll_aton/ll_sw_float.c ****   AI_TENSOR_OBJ_DECLARE(matmul_operand_b, , 0x0, 4,
 1560              		.loc 1 220 3
 1561 0136 0023     		movs	r3, #0
 1562 0138 C7F8D430 		str	r3, [r7, #212]
 1563 013c 0023     		movs	r3, #0
 1564 013e A7F8D830 		strh	r3, [r7, #216]	@ movhi
 1565 0142 0423     		movs	r3, #4
 1566 0144 87F8DA30 		strb	r3, [r7, #218]
 1567 0148 0123     		movs	r3, #1
 1568 014a 87F8DB30 		strb	r3, [r7, #219]
 1569 014e 0123     		movs	r3, #1
 1570 0150 87F8DC30 		strb	r3, [r7, #220]
 1571 0154 D7F8DC30 		ldr	r3, [r7, #220]
 1572 0158 0422     		movs	r2, #4
 1573 015a 62F31F23 		bfi	r3, r2, #8, #24
 1574 015e C7F8DC30 		str	r3, [r7, #220]
 1575 0162 D7F85C31 		ldr	r3, [r7, #348]
 1576 0166 9B6E     		ldr	r3, [r3, #104]
 1577 0168 C7F8C430 		str	r3, [r7, #196]
 1578 016c D7F85C31 		ldr	r3, [r7, #348]
 1579 0170 5B6E     		ldr	r3, [r3, #100]
 1580 0172 C7F8C830 		str	r3, [r7, #200]
 1581 0176 D7F85C31 		ldr	r3, [r7, #348]
 1582 017a 1B6E     		ldr	r3, [r3, #96]
 1583 017c C7F8CC30 		str	r3, [r7, #204]
 1584 0180 D7F85C31 		ldr	r3, [r7, #348]
 1585 0184 DB6D     		ldr	r3, [r3, #92]
 1586 0186 C7F8D030 		str	r3, [r7, #208]
 1587 018a 07F1C403 		add	r3, r7, #196
 1588 018e C7F8E030 		str	r3, [r7, #224]
 1589 0192 0223     		movs	r3, #2
 1590 0194 87F8E430 		strb	r3, [r7, #228]
 1591 0198 D7F8E430 		ldr	r3, [r7, #228]
 1592 019c 0422     		movs	r2, #4
 1593 019e 62F31F23 		bfi	r3, r2, #8, #24
 1594 01a2 C7F8E430 		str	r3, [r7, #228]
 1595 01a6 D7F85C31 		ldr	r3, [r7, #348]
 1596 01aa DB6F     		ldr	r3, [r3, #124]
 1597 01ac C7F8B430 		str	r3, [r7, #180]
 1598 01b0 D7F85C31 		ldr	r3, [r7, #348]
 1599 01b4 9B6F     		ldr	r3, [r3, #120]
 1600 01b6 C7F8B830 		str	r3, [r7, #184]
 1601 01ba D7F85C31 		ldr	r3, [r7, #348]
 1602 01be 5B6F     		ldr	r3, [r3, #116]
 1603 01c0 C7F8BC30 		str	r3, [r7, #188]
 1604 01c4 D7F85C31 		ldr	r3, [r7, #348]
 1605 01c8 1B6F     		ldr	r3, [r3, #112]
 1606 01ca C7F8C030 		str	r3, [r7, #192]
 1607 01ce 07F1B403 		add	r3, r7, #180
 1608 01d2 C7F8E830 		str	r3, [r7, #232]
 1609 01d6 07F59E73 		add	r3, r7, #316
ARM GAS  /tmp/ccEo7NLA.s 			page 39


 1610 01da C7F8EC30 		str	r3, [r7, #236]
 221:Lib/AI_Runtime/Npu/ll_aton/ll_sw_float.c ****                         SHAPE_INIT(sw_info->operand_b.dim.tensor_h, sw_info->operand_b.dim.tensor_w
 222:Lib/AI_Runtime/Npu/ll_aton/ll_sw_float.c ****                                    sw_info->operand_b.dim.tensor_c, sw_info->operand_b.dim.tensor_b
 223:Lib/AI_Runtime/Npu/ll_aton/ll_sw_float.c ****                         STRIDE_INIT(sw_info->operand_b.stride.h, sw_info->operand_b.stride.w,
 224:Lib/AI_Runtime/Npu/ll_aton/ll_sw_float.c ****                                     sw_info->operand_b.stride.c, sw_info->operand_b.stride.b),
 225:Lib/AI_Runtime/Npu/ll_aton/ll_sw_float.c ****                         1, &matmul_operand_b_array, NULL);
 226:Lib/AI_Runtime/Npu/ll_aton/ll_sw_float.c **** 
 227:Lib/AI_Runtime/Npu/ll_aton/ll_sw_float.c ****   AI_TENSOR_OBJ_DECLARE(matmul_output, , 0x0, 4,
 1611              		.loc 1 227 3
 1612 01de 0023     		movs	r3, #0
 1613 01e0 C7F89830 		str	r3, [r7, #152]
 1614 01e4 0023     		movs	r3, #0
 1615 01e6 A7F89C30 		strh	r3, [r7, #156]	@ movhi
 1616 01ea 0423     		movs	r3, #4
 1617 01ec 87F89E30 		strb	r3, [r7, #158]
 1618 01f0 0123     		movs	r3, #1
 1619 01f2 87F89F30 		strb	r3, [r7, #159]
 1620 01f6 0123     		movs	r3, #1
 1621 01f8 87F8A030 		strb	r3, [r7, #160]
 1622 01fc D7F8A030 		ldr	r3, [r7, #160]
 1623 0200 0422     		movs	r2, #4
 1624 0202 62F31F23 		bfi	r3, r2, #8, #24
 1625 0206 C7F8A030 		str	r3, [r7, #160]
 1626 020a D7F85C31 		ldr	r3, [r7, #348]
 1627 020e DB6B     		ldr	r3, [r3, #60]
 1628 0210 C7F88830 		str	r3, [r7, #136]
 1629 0214 D7F85C31 		ldr	r3, [r7, #348]
 1630 0218 9B6B     		ldr	r3, [r3, #56]
 1631 021a C7F88C30 		str	r3, [r7, #140]
 1632 021e D7F85C31 		ldr	r3, [r7, #348]
 1633 0222 5B6B     		ldr	r3, [r3, #52]
 1634 0224 C7F89030 		str	r3, [r7, #144]
 1635 0228 D7F85C31 		ldr	r3, [r7, #348]
 1636 022c 1B6B     		ldr	r3, [r3, #48]
 1637 022e C7F89430 		str	r3, [r7, #148]
 1638 0232 07F18803 		add	r3, r7, #136
 1639 0236 C7F8A430 		str	r3, [r7, #164]
 1640 023a 0223     		movs	r3, #2
 1641 023c 87F8A830 		strb	r3, [r7, #168]
 1642 0240 D7F8A830 		ldr	r3, [r7, #168]
 1643 0244 0422     		movs	r2, #4
 1644 0246 62F31F23 		bfi	r3, r2, #8, #24
 1645 024a C7F8A830 		str	r3, [r7, #168]
 1646 024e D7F85C31 		ldr	r3, [r7, #348]
 1647 0252 1B6D     		ldr	r3, [r3, #80]
 1648 0254 BB67     		str	r3, [r7, #120]
 1649 0256 D7F85C31 		ldr	r3, [r7, #348]
 1650 025a DB6C     		ldr	r3, [r3, #76]
 1651 025c FB67     		str	r3, [r7, #124]
 1652 025e D7F85C31 		ldr	r3, [r7, #348]
 1653 0262 9B6C     		ldr	r3, [r3, #72]
 1654 0264 C7F88030 		str	r3, [r7, #128]
 1655 0268 D7F85C31 		ldr	r3, [r7, #348]
 1656 026c 5B6C     		ldr	r3, [r3, #68]
 1657 026e C7F88430 		str	r3, [r7, #132]
 1658 0272 07F17803 		add	r3, r7, #120
 1659 0276 C7F8AC30 		str	r3, [r7, #172]
ARM GAS  /tmp/ccEo7NLA.s 			page 40


 1660 027a 07F59673 		add	r3, r7, #300
 1661 027e C7F8B030 		str	r3, [r7, #176]
 228:Lib/AI_Runtime/Npu/ll_aton/ll_sw_float.c ****                         SHAPE_INIT(sw_info->general.output.dim.tensor_h, sw_info->general.output.di
 229:Lib/AI_Runtime/Npu/ll_aton/ll_sw_float.c ****                                    sw_info->general.output.dim.tensor_c, sw_info->general.output.di
 230:Lib/AI_Runtime/Npu/ll_aton/ll_sw_float.c ****                         STRIDE_INIT(sw_info->general.output.stride.h, sw_info->general.output.strid
 231:Lib/AI_Runtime/Npu/ll_aton/ll_sw_float.c ****                                     sw_info->general.output.stride.c, sw_info->general.output.strid
 232:Lib/AI_Runtime/Npu/ll_aton/ll_sw_float.c ****                         1, &matmul_output_array, NULL);
 233:Lib/AI_Runtime/Npu/ll_aton/ll_sw_float.c ****   // tensor chain initialization
 234:Lib/AI_Runtime/Npu/ll_aton/ll_sw_float.c ****   AI_TENSOR_CHAIN_OBJ_DECLARE(matmul_chain, , 4,
 1662              		.loc 1 234 3
 1663 0282 0423     		movs	r3, #4
 1664 0284 A7F87030 		strh	r3, [r7, #112]	@ movhi
 1665 0288 0023     		movs	r3, #0
 1666 028a A7F87230 		strh	r3, [r7, #114]	@ movhi
 1667 028e 07F5B073 		add	r3, r7, #352
 1668 0292 A3F59A73 		sub	r3, r3, #308
 1669 0296 0222     		movs	r2, #2
 1670 0298 1A80     		strh	r2, [r3]	@ movhi
 1671 029a 07F5B073 		add	r3, r7, #352
 1672 029e A3F59A73 		sub	r3, r3, #308
 1673 02a2 0022     		movs	r2, #0
 1674 02a4 5A80     		strh	r2, [r3, #2]	@ movhi
 1675 02a6 07F58873 		add	r3, r7, #272
 1676 02aa BB66     		str	r3, [r7, #104]
 1677 02ac 07F1D403 		add	r3, r7, #212
 1678 02b0 FB66     		str	r3, [r7, #108]
 1679 02b2 07F5B073 		add	r3, r7, #352
 1680 02b6 A3F59A73 		sub	r3, r3, #308
 1681 02ba 07F16802 		add	r2, r7, #104
 1682 02be 5A60     		str	r2, [r3, #4]
 1683 02c0 07F5B073 		add	r3, r7, #352
 1684 02c4 A3F59A73 		sub	r3, r3, #308
 1685 02c8 0022     		movs	r2, #0
 1686 02ca 9A60     		str	r2, [r3, #8]
 1687 02cc 07F5B073 		add	r3, r7, #352
 1688 02d0 A3F59A73 		sub	r3, r3, #308
 1689 02d4 0122     		movs	r2, #1
 1690 02d6 9A81     		strh	r2, [r3, #12]	@ movhi
 1691 02d8 07F5B073 		add	r3, r7, #352
 1692 02dc A3F59A73 		sub	r3, r3, #308
 1693 02e0 0022     		movs	r2, #0
 1694 02e2 DA81     		strh	r2, [r3, #14]	@ movhi
 1695 02e4 07F19803 		add	r3, r7, #152
 1696 02e8 7B66     		str	r3, [r7, #100]
 1697 02ea 07F5B073 		add	r3, r7, #352
 1698 02ee A3F59A73 		sub	r3, r3, #308
 1699 02f2 07F16402 		add	r2, r7, #100
 1700 02f6 1A61     		str	r2, [r3, #16]
 1701 02f8 07F5B073 		add	r3, r7, #352
 1702 02fc A3F59A73 		sub	r3, r3, #308
 1703 0300 0022     		movs	r2, #0
 1704 0302 5A61     		str	r2, [r3, #20]
 1705 0304 07F5B073 		add	r3, r7, #352
 1706 0308 A3F59A73 		sub	r3, r3, #308
 1707 030c 0022     		movs	r2, #0
 1708 030e 1A83     		strh	r2, [r3, #24]	@ movhi
 1709 0310 07F5B073 		add	r3, r7, #352
ARM GAS  /tmp/ccEo7NLA.s 			page 41


 1710 0314 A3F59A73 		sub	r3, r3, #308
 1711 0318 0022     		movs	r2, #0
 1712 031a 5A83     		strh	r2, [r3, #26]	@ movhi
 1713 031c 07F5B073 		add	r3, r7, #352
 1714 0320 A3F58073 		sub	r3, r3, #256
 1715 0324 0022     		movs	r2, #0
 1716 0326 1A60     		str	r2, [r3]
 1717 0328 07F5B073 		add	r3, r7, #352
 1718 032c A3F59A73 		sub	r3, r3, #308
 1719 0330 07F16002 		add	r2, r7, #96
 1720 0334 DA61     		str	r2, [r3, #28]
 1721 0336 07F5B073 		add	r3, r7, #352
 1722 033a A3F59A73 		sub	r3, r3, #308
 1723 033e 0022     		movs	r2, #0
 1724 0340 1A62     		str	r2, [r3, #32]
 1725 0342 07F5B073 		add	r3, r7, #352
 1726 0346 A3F59A73 		sub	r3, r3, #308
 1727 034a 0022     		movs	r2, #0
 1728 034c 9A84     		strh	r2, [r3, #36]	@ movhi
 1729 034e 07F5B073 		add	r3, r7, #352
 1730 0352 A3F59A73 		sub	r3, r3, #308
 1731 0356 0022     		movs	r2, #0
 1732 0358 DA84     		strh	r2, [r3, #38]	@ movhi
 1733 035a 07F5B073 		add	r3, r7, #352
 1734 035e A3F58273 		sub	r3, r3, #260
 1735 0362 0022     		movs	r2, #0
 1736 0364 1A60     		str	r2, [r3]
 1737 0366 07F5B073 		add	r3, r7, #352
 1738 036a A3F59A73 		sub	r3, r3, #308
 1739 036e 07F15C02 		add	r2, r7, #92
 1740 0372 9A62     		str	r2, [r3, #40]
 1741 0374 07F5B073 		add	r3, r7, #352
 1742 0378 A3F59A73 		sub	r3, r3, #308
 1743 037c 0022     		movs	r2, #0
 1744 037e DA62     		str	r2, [r3, #44]
 1745 0380 07F12C03 		add	r3, r7, #44
 1746 0384 7B67     		str	r3, [r7, #116]
 235:Lib/AI_Runtime/Npu/ll_aton/ll_sw_float.c ****                               AI_TENSOR_LIST_OBJ_INIT(AI_FLAG_NONE, 2, TENSORS(&input_output, &matm
 236:Lib/AI_Runtime/Npu/ll_aton/ll_sw_float.c ****                               AI_TENSOR_LIST_OBJ_INIT(AI_FLAG_NONE, 1, TENSORS(&matmul_output)),
 237:Lib/AI_Runtime/Npu/ll_aton/ll_sw_float.c ****                               AI_TENSOR_LIST_OBJ_EMPTY, AI_TENSOR_LIST_OBJ_EMPTY)
 238:Lib/AI_Runtime/Npu/ll_aton/ll_sw_float.c ****   // layer initialization
 239:Lib/AI_Runtime/Npu/ll_aton/ll_sw_float.c ****   AI_LAYER_OBJ_DECLARE(matmul_layer, 1, NL_TYPE, 0x0, NULL, nl, forward_matmul, &matmul_chain, NULL
 1747              		.loc 1 239 3
 1748 0386 07F5B073 		add	r3, r7, #352
 1749 038a A3F5AA73 		sub	r3, r3, #340
 1750 038e 1846     		mov	r0, r3
 1751 0390 2023     		movs	r3, #32
 1752 0392 1A46     		mov	r2, r3
 1753 0394 0021     		movs	r1, #0
 1754 0396 FFF7FEFF 		bl	memset
 1755 039a 07F5B073 		add	r3, r7, #352
 1756 039e A3F5AA73 		sub	r3, r3, #340
 1757 03a2 01E0     		b	.L32
 1758              	.L33:
 1759              		.align	2
 1760              	.L31:
 1761 03a4 40108200 		.word	8523840
ARM GAS  /tmp/ccEo7NLA.s 			page 42


 1762              	.L32:
 1763 03a8 40F20712 		movw	r2, #263
 1764 03ac 1A80     		strh	r2, [r3]	@ movhi
 1765 03ae 07F5B073 		add	r3, r7, #352
 1766 03b2 A3F5AA73 		sub	r3, r3, #340
 1767 03b6 0122     		movs	r2, #1
 1768 03b8 5A80     		strh	r2, [r3, #2]	@ movhi
 1769 03ba 07F5B073 		add	r3, r7, #352
 1770 03be A3F5AA73 		sub	r3, r3, #340
 1771 03c2 0B4A     		ldr	r2, .L34
 1772 03c4 5A61     		str	r2, [r3, #20]
 1773 03c6 07F5B073 		add	r3, r7, #352
 1774 03ca A3F5AA73 		sub	r3, r3, #340
 1775 03ce 07F17002 		add	r2, r7, #112
 1776 03d2 9A61     		str	r2, [r3, #24]
 240:Lib/AI_Runtime/Npu/ll_aton/ll_sw_float.c ****   matmul_layer.forward(AI_LAYER_OBJ(&matmul_layer));
 1777              		.loc 1 240 15
 1778 03d4 07F5B073 		add	r3, r7, #352
 1779 03d8 A3F5AA73 		sub	r3, r3, #340
 1780 03dc 5B69     		ldr	r3, [r3, #20]
 1781              		.loc 1 240 3
 1782 03de 07F10C02 		add	r2, r7, #12
 1783 03e2 1046     		mov	r0, r2
 1784 03e4 9847     		blx	r3
 1785              	.LVL3:
 241:Lib/AI_Runtime/Npu/ll_aton/ll_sw_float.c **** }
 1786              		.loc 1 241 1
 1787 03e6 00BF     		nop
 1788 03e8 07F5B077 		add	r7, r7, #352
 1789              		.cfi_def_cfa_offset 8
 1790 03ec BD46     		mov	sp, r7
 1791              		.cfi_def_cfa_register 13
 1792              		@ sp needed
 1793 03ee 80BD     		pop	{r7, pc}
 1794              	.L35:
 1795              		.align	2
 1796              	.L34:
 1797 03f0 00000000 		.word	forward_matmul
 1798              		.cfi_endproc
 1799              	.LFE17:
 1801              		.section	.text.ll_sw_forward_resize,"ax",%progbits
 1802              		.align	1
 1803              		.global	ll_sw_forward_resize
 1804              		.syntax unified
 1805              		.thumb
 1806              		.thumb_func
 1808              	ll_sw_forward_resize:
 1809              	.LFB18:
 242:Lib/AI_Runtime/Npu/ll_aton/ll_sw_float.c **** 
 243:Lib/AI_Runtime/Npu/ll_aton/ll_sw_float.c **** //##########################################################################################
 244:Lib/AI_Runtime/Npu/ll_aton/ll_sw_float.c **** /** Resize forward function */
 245:Lib/AI_Runtime/Npu/ll_aton/ll_sw_float.c **** void ll_sw_forward_resize(/* int processor, */ void *sw_info_struct)
 246:Lib/AI_Runtime/Npu/ll_aton/ll_sw_float.c **** {
 1810              		.loc 1 246 1
 1811              		.cfi_startproc
 1812              		@ args = 0, pretend = 0, frame = 440
 1813              		@ frame_needed = 1, uses_anonymous_args = 0
ARM GAS  /tmp/ccEo7NLA.s 			page 43


 1814 0000 80B5     		push	{r7, lr}
 1815              		.cfi_def_cfa_offset 8
 1816              		.cfi_offset 7, -8
 1817              		.cfi_offset 14, -4
 1818 0002 EEB0     		sub	sp, sp, #440
 1819              		.cfi_def_cfa_offset 448
 1820 0004 00AF     		add	r7, sp, #0
 1821              		.cfi_def_cfa_register 7
 1822 0006 07F5DC73 		add	r3, r7, #440
 1823 000a A3F5DA73 		sub	r3, r3, #436
 1824 000e 1860     		str	r0, [r3]
 247:Lib/AI_Runtime/Npu/ll_aton/ll_sw_float.c ****   Resize_sw_info *sw_info = (Resize_sw_info *)sw_info_struct;
 1825              		.loc 1 247 19
 1826 0010 07F5DC73 		add	r3, r7, #440
 1827 0014 A3F5DA73 		sub	r3, r3, #436
 1828 0018 1B68     		ldr	r3, [r3]
 1829 001a C7F8B031 		str	r3, [r7, #432]
 248:Lib/AI_Runtime/Npu/ll_aton/ll_sw_float.c ****   // array init
 249:Lib/AI_Runtime/Npu/ll_aton/ll_sw_float.c ****   AI_ARRAY_OBJ_DECLARE(input_output_array, FORMAT, sw_info->general.input.mem.start_offset,
 1830              		.loc 1 249 3
 1831 001e E24B     		ldr	r3, .L41
 1832 0020 C7F89831 		str	r3, [r7, #408]
 1833 0024 D7F8B031 		ldr	r3, [r7, #432]
 1834 0028 5B69     		ldr	r3, [r3, #20]
 1835 002a C7F89C31 		str	r3, [r7, #412]
 1836 002e D7F8B031 		ldr	r3, [r7, #432]
 1837 0032 9B6A     		ldr	r3, [r3, #40]
 1838 0034 C7F8A031 		str	r3, [r7, #416]
 1839 0038 D7F8B031 		ldr	r3, [r7, #432]
 1840 003c 9B6A     		ldr	r3, [r3, #40]
 1841 003e C7F8A431 		str	r3, [r7, #420]
 250:Lib/AI_Runtime/Npu/ll_aton/ll_sw_float.c ****                        sw_info->general.input.mem.start_offset, sw_info->general.input.dim.num_elem
 251:Lib/AI_Runtime/Npu/ll_aton/ll_sw_float.c **** 
 252:Lib/AI_Runtime/Npu/ll_aton/ll_sw_float.c ****   AI_ARRAY_OBJ_DECLARE(resize_scales_array, FORMAT, sw_info->scales.mem.start_offset, sw_info->scal
 1842              		.loc 1 252 3
 1843 0042 D94B     		ldr	r3, .L41
 1844 0044 C7F88831 		str	r3, [r7, #392]
 1845 0048 D7F8B031 		ldr	r3, [r7, #432]
 1846 004c DB6E     		ldr	r3, [r3, #108]
 1847 004e C7F88C31 		str	r3, [r7, #396]
 1848 0052 D7F8B031 		ldr	r3, [r7, #432]
 1849 0056 D3F88030 		ldr	r3, [r3, #128]
 1850 005a C7F89031 		str	r3, [r7, #400]
 1851 005e D7F8B031 		ldr	r3, [r7, #432]
 1852 0062 D3F88030 		ldr	r3, [r3, #128]
 1853 0066 C7F89431 		str	r3, [r7, #404]
 253:Lib/AI_Runtime/Npu/ll_aton/ll_sw_float.c ****                        sw_info->scales.dim.num_elem, )
 254:Lib/AI_Runtime/Npu/ll_aton/ll_sw_float.c **** 
 255:Lib/AI_Runtime/Npu/ll_aton/ll_sw_float.c ****   ai_array *resize_roi_array_ptr = NULL;
 1854              		.loc 1 255 13
 1855 006a 0023     		movs	r3, #0
 1856 006c C7F8B431 		str	r3, [r7, #436]
 256:Lib/AI_Runtime/Npu/ll_aton/ll_sw_float.c ****   ai_array resize_roi_array;
 257:Lib/AI_Runtime/Npu/ll_aton/ll_sw_float.c ****   if (sw_info->roi.mem.start_offset != NULL)
 1857              		.loc 1 257 23
 1858 0070 D7F8B031 		ldr	r3, [r7, #432]
 1859 0074 D3F8AC30 		ldr	r3, [r3, #172]
ARM GAS  /tmp/ccEo7NLA.s 			page 44


 1860              		.loc 1 257 6
 1861 0078 002B     		cmp	r3, #0
 1862 007a 18D0     		beq	.L37
 1863              	.LBB4:
 258:Lib/AI_Runtime/Npu/ll_aton/ll_sw_float.c ****   {
 259:Lib/AI_Runtime/Npu/ll_aton/ll_sw_float.c ****     resize_roi_array = (ai_array)AI_ARRAY_OBJ_INIT(FORMAT, sw_info->roi.mem.start_offset, sw_info->
 1864              		.loc 1 259 34
 1865 007c D7F8B031 		ldr	r3, [r7, #432]
 1866 0080 D3F89810 		ldr	r1, [r3, #152]
 1867 0084 D7F8B031 		ldr	r3, [r7, #432]
 1868 0088 D3F8AC20 		ldr	r2, [r3, #172]
 1869 008c D7F8B031 		ldr	r3, [r7, #432]
 1870 0090 D3F8AC30 		ldr	r3, [r3, #172]
 1871              		.loc 1 259 22
 1872 0094 C448     		ldr	r0, .L41
 1873 0096 C7F87801 		str	r0, [r7, #376]
 1874 009a C7F87C11 		str	r1, [r7, #380]
 1875 009e C7F88021 		str	r2, [r7, #384]
 1876 00a2 C7F88431 		str	r3, [r7, #388]
 260:Lib/AI_Runtime/Npu/ll_aton/ll_sw_float.c ****                                                    sw_info->roi.dim.num_elem);
 261:Lib/AI_Runtime/Npu/ll_aton/ll_sw_float.c ****     resize_roi_array_ptr = &resize_roi_array;
 1877              		.loc 1 261 26
 1878 00a6 07F5BC73 		add	r3, r7, #376
 1879 00aa C7F8B431 		str	r3, [r7, #436]
 1880              	.L37:
 1881              	.LBE4:
 262:Lib/AI_Runtime/Npu/ll_aton/ll_sw_float.c ****   }
 263:Lib/AI_Runtime/Npu/ll_aton/ll_sw_float.c **** 
 264:Lib/AI_Runtime/Npu/ll_aton/ll_sw_float.c ****   AI_ARRAY_OBJ_DECLARE(resize_output_array, FORMAT, sw_info->general.output.mem.start_offset,
 1882              		.loc 1 264 3
 1883 00ae BE4B     		ldr	r3, .L41
 1884 00b0 C7F86831 		str	r3, [r7, #360]
 1885 00b4 D7F8B031 		ldr	r3, [r7, #432]
 1886 00b8 1B6C     		ldr	r3, [r3, #64]
 1887 00ba C7F86C31 		str	r3, [r7, #364]
 1888 00be D7F8B031 		ldr	r3, [r7, #432]
 1889 00c2 5B6D     		ldr	r3, [r3, #84]
 1890 00c4 C7F87031 		str	r3, [r7, #368]
 1891 00c8 D7F8B031 		ldr	r3, [r7, #432]
 1892 00cc 5B6D     		ldr	r3, [r3, #84]
 1893 00ce C7F87431 		str	r3, [r7, #372]
 265:Lib/AI_Runtime/Npu/ll_aton/ll_sw_float.c ****                        sw_info->general.output.mem.start_offset, sw_info->general.output.dim.num_el
 266:Lib/AI_Runtime/Npu/ll_aton/ll_sw_float.c **** 
 267:Lib/AI_Runtime/Npu/ll_aton/ll_sw_float.c ****   AI_TENSOR_OBJ_DECLARE(input_output, , 0x0, 4,
 1894              		.loc 1 267 3
 1895 00d2 0023     		movs	r3, #0
 1896 00d4 C7F84C31 		str	r3, [r7, #332]
 1897 00d8 0023     		movs	r3, #0
 1898 00da A7F85031 		strh	r3, [r7, #336]	@ movhi
 1899 00de 0423     		movs	r3, #4
 1900 00e0 87F85231 		strb	r3, [r7, #338]
 1901 00e4 0123     		movs	r3, #1
 1902 00e6 87F85331 		strb	r3, [r7, #339]
 1903 00ea 0123     		movs	r3, #1
 1904 00ec 87F85431 		strb	r3, [r7, #340]
 1905 00f0 D7F85431 		ldr	r3, [r7, #340]
 1906 00f4 0422     		movs	r2, #4
ARM GAS  /tmp/ccEo7NLA.s 			page 45


 1907 00f6 62F31F23 		bfi	r3, r2, #8, #24
 1908 00fa C7F85431 		str	r3, [r7, #340]
 1909 00fe D7F8B031 		ldr	r3, [r7, #432]
 1910 0102 1B69     		ldr	r3, [r3, #16]
 1911 0104 C7F83C31 		str	r3, [r7, #316]
 1912 0108 D7F8B031 		ldr	r3, [r7, #432]
 1913 010c DB68     		ldr	r3, [r3, #12]
 1914 010e C7F84031 		str	r3, [r7, #320]
 1915 0112 D7F8B031 		ldr	r3, [r7, #432]
 1916 0116 9B68     		ldr	r3, [r3, #8]
 1917 0118 C7F84431 		str	r3, [r7, #324]
 1918 011c D7F8B031 		ldr	r3, [r7, #432]
 1919 0120 5B68     		ldr	r3, [r3, #4]
 1920 0122 C7F84831 		str	r3, [r7, #328]
 1921 0126 07F59E73 		add	r3, r7, #316
 1922 012a C7F85831 		str	r3, [r7, #344]
 1923 012e 0223     		movs	r3, #2
 1924 0130 87F85C31 		strb	r3, [r7, #348]
 1925 0134 D7F85C31 		ldr	r3, [r7, #348]
 1926 0138 0422     		movs	r2, #4
 1927 013a 62F31F23 		bfi	r3, r2, #8, #24
 1928 013e C7F85C31 		str	r3, [r7, #348]
 1929 0142 D7F8B031 		ldr	r3, [r7, #432]
 1930 0146 5B6A     		ldr	r3, [r3, #36]
 1931 0148 C7F82C31 		str	r3, [r7, #300]
 1932 014c D7F8B031 		ldr	r3, [r7, #432]
 1933 0150 1B6A     		ldr	r3, [r3, #32]
 1934 0152 C7F83031 		str	r3, [r7, #304]
 1935 0156 D7F8B031 		ldr	r3, [r7, #432]
 1936 015a DB69     		ldr	r3, [r3, #28]
 1937 015c C7F83431 		str	r3, [r7, #308]
 1938 0160 D7F8B031 		ldr	r3, [r7, #432]
 1939 0164 9B69     		ldr	r3, [r3, #24]
 1940 0166 C7F83831 		str	r3, [r7, #312]
 1941 016a 07F59673 		add	r3, r7, #300
 1942 016e C7F86031 		str	r3, [r7, #352]
 1943 0172 07F5CC73 		add	r3, r7, #408
 1944 0176 C7F86431 		str	r3, [r7, #356]
 268:Lib/AI_Runtime/Npu/ll_aton/ll_sw_float.c ****                         SHAPE_INIT(sw_info->general.input.dim.tensor_h, sw_info->general.input.dim.
 269:Lib/AI_Runtime/Npu/ll_aton/ll_sw_float.c ****                                    sw_info->general.input.dim.tensor_c, sw_info->general.input.dim.
 270:Lib/AI_Runtime/Npu/ll_aton/ll_sw_float.c ****                         STRIDE_INIT(sw_info->general.input.stride.h, sw_info->general.input.stride.
 271:Lib/AI_Runtime/Npu/ll_aton/ll_sw_float.c ****                                     sw_info->general.input.stride.c, sw_info->general.input.stride.
 272:Lib/AI_Runtime/Npu/ll_aton/ll_sw_float.c ****                         1, &input_output_array, NULL);
 273:Lib/AI_Runtime/Npu/ll_aton/ll_sw_float.c ****   AI_TENSOR_OBJ_DECLARE(resize_scales, , 0x0, 4,
 1945              		.loc 1 273 3
 1946 017a 0023     		movs	r3, #0
 1947 017c C7F81031 		str	r3, [r7, #272]
 1948 0180 0023     		movs	r3, #0
 1949 0182 A7F81431 		strh	r3, [r7, #276]	@ movhi
 1950 0186 0423     		movs	r3, #4
 1951 0188 87F81631 		strb	r3, [r7, #278]
 1952 018c 0123     		movs	r3, #1
 1953 018e 87F81731 		strb	r3, [r7, #279]
 1954 0192 0123     		movs	r3, #1
 1955 0194 87F81831 		strb	r3, [r7, #280]
 1956 0198 D7F81831 		ldr	r3, [r7, #280]
 1957 019c 0422     		movs	r2, #4
ARM GAS  /tmp/ccEo7NLA.s 			page 46


 1958 019e 62F31F23 		bfi	r3, r2, #8, #24
 1959 01a2 C7F81831 		str	r3, [r7, #280]
 1960 01a6 D7F8B031 		ldr	r3, [r7, #432]
 1961 01aa 9B6E     		ldr	r3, [r3, #104]
 1962 01ac C7F80031 		str	r3, [r7, #256]
 1963 01b0 D7F8B031 		ldr	r3, [r7, #432]
 1964 01b4 5B6E     		ldr	r3, [r3, #100]
 1965 01b6 C7F80431 		str	r3, [r7, #260]
 1966 01ba D7F8B031 		ldr	r3, [r7, #432]
 1967 01be 1B6E     		ldr	r3, [r3, #96]
 1968 01c0 C7F80831 		str	r3, [r7, #264]
 1969 01c4 D7F8B031 		ldr	r3, [r7, #432]
 1970 01c8 DB6D     		ldr	r3, [r3, #92]
 1971 01ca C7F80C31 		str	r3, [r7, #268]
 1972 01ce 07F58073 		add	r3, r7, #256
 1973 01d2 C7F81C31 		str	r3, [r7, #284]
 1974 01d6 0223     		movs	r3, #2
 1975 01d8 87F82031 		strb	r3, [r7, #288]
 1976 01dc D7F82031 		ldr	r3, [r7, #288]
 1977 01e0 0422     		movs	r2, #4
 1978 01e2 62F31F23 		bfi	r3, r2, #8, #24
 1979 01e6 C7F82031 		str	r3, [r7, #288]
 1980 01ea D7F8B031 		ldr	r3, [r7, #432]
 1981 01ee DB6F     		ldr	r3, [r3, #124]
 1982 01f0 C7F8F030 		str	r3, [r7, #240]
 1983 01f4 D7F8B031 		ldr	r3, [r7, #432]
 1984 01f8 9B6F     		ldr	r3, [r3, #120]
 1985 01fa C7F8F430 		str	r3, [r7, #244]
 1986 01fe D7F8B031 		ldr	r3, [r7, #432]
 1987 0202 5B6F     		ldr	r3, [r3, #116]
 1988 0204 C7F8F830 		str	r3, [r7, #248]
 1989 0208 D7F8B031 		ldr	r3, [r7, #432]
 1990 020c 1B6F     		ldr	r3, [r3, #112]
 1991 020e C7F8FC30 		str	r3, [r7, #252]
 1992 0212 07F1F003 		add	r3, r7, #240
 1993 0216 C7F82431 		str	r3, [r7, #292]
 1994 021a 07F5C473 		add	r3, r7, #392
 1995 021e C7F82831 		str	r3, [r7, #296]
 274:Lib/AI_Runtime/Npu/ll_aton/ll_sw_float.c ****                         SHAPE_INIT(sw_info->scales.dim.tensor_h, sw_info->scales.dim.tensor_w,
 275:Lib/AI_Runtime/Npu/ll_aton/ll_sw_float.c ****                                    sw_info->scales.dim.tensor_c, sw_info->scales.dim.tensor_b),
 276:Lib/AI_Runtime/Npu/ll_aton/ll_sw_float.c ****                         STRIDE_INIT(sw_info->scales.stride.h, sw_info->scales.stride.w, sw_info->sc
 277:Lib/AI_Runtime/Npu/ll_aton/ll_sw_float.c ****                                     sw_info->scales.stride.b),
 278:Lib/AI_Runtime/Npu/ll_aton/ll_sw_float.c ****                         1, &resize_scales_array, NULL);
 279:Lib/AI_Runtime/Npu/ll_aton/ll_sw_float.c **** 
 280:Lib/AI_Runtime/Npu/ll_aton/ll_sw_float.c ****   AI_TENSOR_OBJ_DECLARE(resize_output, , 0x0, 4,
 1996              		.loc 1 280 3
 1997 0222 0023     		movs	r3, #0
 1998 0224 C7F8D430 		str	r3, [r7, #212]
 1999 0228 0023     		movs	r3, #0
 2000 022a A7F8D830 		strh	r3, [r7, #216]	@ movhi
 2001 022e 0423     		movs	r3, #4
 2002 0230 87F8DA30 		strb	r3, [r7, #218]
 2003 0234 0123     		movs	r3, #1
 2004 0236 87F8DB30 		strb	r3, [r7, #219]
 2005 023a 0123     		movs	r3, #1
 2006 023c 87F8DC30 		strb	r3, [r7, #220]
 2007 0240 D7F8DC30 		ldr	r3, [r7, #220]
ARM GAS  /tmp/ccEo7NLA.s 			page 47


 2008 0244 0422     		movs	r2, #4
 2009 0246 62F31F23 		bfi	r3, r2, #8, #24
 2010 024a C7F8DC30 		str	r3, [r7, #220]
 2011 024e D7F8B031 		ldr	r3, [r7, #432]
 2012 0252 DB6B     		ldr	r3, [r3, #60]
 2013 0254 C7F8C430 		str	r3, [r7, #196]
 2014 0258 D7F8B031 		ldr	r3, [r7, #432]
 2015 025c 9B6B     		ldr	r3, [r3, #56]
 2016 025e C7F8C830 		str	r3, [r7, #200]
 2017 0262 D7F8B031 		ldr	r3, [r7, #432]
 2018 0266 5B6B     		ldr	r3, [r3, #52]
 2019 0268 C7F8CC30 		str	r3, [r7, #204]
 2020 026c D7F8B031 		ldr	r3, [r7, #432]
 2021 0270 1B6B     		ldr	r3, [r3, #48]
 2022 0272 C7F8D030 		str	r3, [r7, #208]
 2023 0276 07F1C403 		add	r3, r7, #196
 2024 027a C7F8E030 		str	r3, [r7, #224]
 2025 027e 0223     		movs	r3, #2
 2026 0280 87F8E430 		strb	r3, [r7, #228]
 2027 0284 D7F8E430 		ldr	r3, [r7, #228]
 2028 0288 0422     		movs	r2, #4
 2029 028a 62F31F23 		bfi	r3, r2, #8, #24
 2030 028e C7F8E430 		str	r3, [r7, #228]
 2031 0292 D7F8B031 		ldr	r3, [r7, #432]
 2032 0296 1B6D     		ldr	r3, [r3, #80]
 2033 0298 1A46     		mov	r2, r3
 2034 029a 07F5DC73 		add	r3, r7, #440
 2035 029e A3F58273 		sub	r3, r3, #260
 2036 02a2 1A60     		str	r2, [r3]
 2037 02a4 D7F8B031 		ldr	r3, [r7, #432]
 2038 02a8 DB6C     		ldr	r3, [r3, #76]
 2039 02aa 1A46     		mov	r2, r3
 2040 02ac 07F5DC73 		add	r3, r7, #440
 2041 02b0 A3F58273 		sub	r3, r3, #260
 2042 02b4 5A60     		str	r2, [r3, #4]
 2043 02b6 D7F8B031 		ldr	r3, [r7, #432]
 2044 02ba 9B6C     		ldr	r3, [r3, #72]
 2045 02bc 1A46     		mov	r2, r3
 2046 02be 07F5DC73 		add	r3, r7, #440
 2047 02c2 A3F58273 		sub	r3, r3, #260
 2048 02c6 9A60     		str	r2, [r3, #8]
 2049 02c8 D7F8B031 		ldr	r3, [r7, #432]
 2050 02cc 5B6C     		ldr	r3, [r3, #68]
 2051 02ce 1A46     		mov	r2, r3
 2052 02d0 07F5DC73 		add	r3, r7, #440
 2053 02d4 A3F58273 		sub	r3, r3, #260
 2054 02d8 DA60     		str	r2, [r3, #12]
 2055 02da 07F1B403 		add	r3, r7, #180
 2056 02de C7F8E830 		str	r3, [r7, #232]
 2057 02e2 07F5B473 		add	r3, r7, #360
 2058 02e6 C7F8EC30 		str	r3, [r7, #236]
 281:Lib/AI_Runtime/Npu/ll_aton/ll_sw_float.c ****                         SHAPE_INIT(sw_info->general.output.dim.tensor_h, sw_info->general.output.di
 282:Lib/AI_Runtime/Npu/ll_aton/ll_sw_float.c ****                                    sw_info->general.output.dim.tensor_c, sw_info->general.output.di
 283:Lib/AI_Runtime/Npu/ll_aton/ll_sw_float.c ****                         STRIDE_INIT(sw_info->general.output.stride.h, sw_info->general.output.strid
 284:Lib/AI_Runtime/Npu/ll_aton/ll_sw_float.c ****                                     sw_info->general.output.stride.c, sw_info->general.output.strid
 285:Lib/AI_Runtime/Npu/ll_aton/ll_sw_float.c ****                         1, &resize_output_array, NULL);
 286:Lib/AI_Runtime/Npu/ll_aton/ll_sw_float.c ****   // tensor chain initialization
ARM GAS  /tmp/ccEo7NLA.s 			page 48


 287:Lib/AI_Runtime/Npu/ll_aton/ll_sw_float.c ****   AI_TENSOR_CHAIN_OBJ_DECLARE(resize_chain, , 4, AI_TENSOR_LIST_OBJ_INIT(AI_FLAG_NONE, 1, TENSORS(&
 2059              		.loc 1 287 3
 2060 02ea 07F5DC73 		add	r3, r7, #440
 2061 02ee A3F58673 		sub	r3, r3, #268
 2062 02f2 0422     		movs	r2, #4
 2063 02f4 1A80     		strh	r2, [r3]	@ movhi
 2064 02f6 07F5DC73 		add	r3, r7, #440
 2065 02fa A3F58673 		sub	r3, r3, #268
 2066 02fe 0022     		movs	r2, #0
 2067 0300 5A80     		strh	r2, [r3, #2]	@ movhi
 2068 0302 07F5DC73 		add	r3, r7, #440
 2069 0306 A3F5A673 		sub	r3, r3, #332
 2070 030a 0122     		movs	r2, #1
 2071 030c 1A80     		strh	r2, [r3]	@ movhi
 2072 030e 07F5DC73 		add	r3, r7, #440
 2073 0312 A3F5A673 		sub	r3, r3, #332
 2074 0316 0022     		movs	r2, #0
 2075 0318 5A80     		strh	r2, [r3, #2]	@ movhi
 2076 031a 07F5DC73 		add	r3, r7, #440
 2077 031e A3F58873 		sub	r3, r3, #272
 2078 0322 07F5A672 		add	r2, r7, #332
 2079 0326 1A60     		str	r2, [r3]
 2080 0328 07F5DC73 		add	r3, r7, #440
 2081 032c A3F5A673 		sub	r3, r3, #332
 2082 0330 07F1A802 		add	r2, r7, #168
 2083 0334 5A60     		str	r2, [r3, #4]
 2084 0336 07F5DC73 		add	r3, r7, #440
 2085 033a A3F5A673 		sub	r3, r3, #332
 2086 033e 0022     		movs	r2, #0
 2087 0340 9A60     		str	r2, [r3, #8]
 2088 0342 07F5DC73 		add	r3, r7, #440
 2089 0346 A3F5A673 		sub	r3, r3, #332
 2090 034a 0122     		movs	r2, #1
 2091 034c 9A81     		strh	r2, [r3, #12]	@ movhi
 2092 034e 07F5DC73 		add	r3, r7, #440
 2093 0352 A3F5A673 		sub	r3, r3, #332
 2094 0356 0022     		movs	r2, #0
 2095 0358 DA81     		strh	r2, [r3, #14]	@ movhi
 2096 035a 07F5DC73 		add	r3, r7, #440
 2097 035e A3F58A73 		sub	r3, r3, #276
 2098 0362 07F1D402 		add	r2, r7, #212
 2099 0366 1A60     		str	r2, [r3]
 2100 0368 07F5DC73 		add	r3, r7, #440
 2101 036c A3F5A673 		sub	r3, r3, #332
 2102 0370 07F1A402 		add	r2, r7, #164
 2103 0374 1A61     		str	r2, [r3, #16]
 2104 0376 07F5DC73 		add	r3, r7, #440
 2105 037a A3F5A673 		sub	r3, r3, #332
 2106 037e 0022     		movs	r2, #0
 2107 0380 5A61     		str	r2, [r3, #20]
 2108 0382 07F5DC73 		add	r3, r7, #440
 2109 0386 A3F5A673 		sub	r3, r3, #332
 2110 038a 0022     		movs	r2, #0
 2111 038c 1A83     		strh	r2, [r3, #24]	@ movhi
 2112 038e 07F5DC73 		add	r3, r7, #440
 2113 0392 A3F5A673 		sub	r3, r3, #332
 2114 0396 0022     		movs	r2, #0
ARM GAS  /tmp/ccEo7NLA.s 			page 49


 2115 0398 5A83     		strh	r2, [r3, #26]	@ movhi
 2116 039a 07F5DC73 		add	r3, r7, #440
 2117 039e A3F58C73 		sub	r3, r3, #280
 2118 03a2 0022     		movs	r2, #0
 2119 03a4 1A60     		str	r2, [r3]
 2120 03a6 01E0     		b	.L42
 2121              	.L43:
 2122              		.align	2
 2123              	.L41:
 2124 03a8 40108200 		.word	8523840
 2125              	.L42:
 2126 03ac 07F5DC73 		add	r3, r7, #440
 2127 03b0 A3F5A673 		sub	r3, r3, #332
 2128 03b4 07F1A002 		add	r2, r7, #160
 2129 03b8 DA61     		str	r2, [r3, #28]
 2130 03ba 07F5DC73 		add	r3, r7, #440
 2131 03be A3F5A673 		sub	r3, r3, #332
 2132 03c2 0022     		movs	r2, #0
 2133 03c4 1A62     		str	r2, [r3, #32]
 2134 03c6 07F5DC73 		add	r3, r7, #440
 2135 03ca A3F5A673 		sub	r3, r3, #332
 2136 03ce 0022     		movs	r2, #0
 2137 03d0 9A84     		strh	r2, [r3, #36]	@ movhi
 2138 03d2 07F5DC73 		add	r3, r7, #440
 2139 03d6 A3F5A673 		sub	r3, r3, #332
 2140 03da 0022     		movs	r2, #0
 2141 03dc DA84     		strh	r2, [r3, #38]	@ movhi
 2142 03de 07F5DC73 		add	r3, r7, #440
 2143 03e2 A3F58E73 		sub	r3, r3, #284
 2144 03e6 0022     		movs	r2, #0
 2145 03e8 1A60     		str	r2, [r3]
 2146 03ea 07F5DC73 		add	r3, r7, #440
 2147 03ee A3F5A673 		sub	r3, r3, #332
 2148 03f2 07F19C02 		add	r2, r7, #156
 2149 03f6 9A62     		str	r2, [r3, #40]
 2150 03f8 07F5DC73 		add	r3, r7, #440
 2151 03fc A3F5A673 		sub	r3, r3, #332
 2152 0400 0022     		movs	r2, #0
 2153 0402 DA62     		str	r2, [r3, #44]
 2154 0404 07F5DC73 		add	r3, r7, #440
 2155 0408 A3F58673 		sub	r3, r3, #268
 2156 040c 07F16C02 		add	r2, r7, #108
 2157 0410 5A60     		str	r2, [r3, #4]
 288:Lib/AI_Runtime/Npu/ll_aton/ll_sw_float.c ****                               AI_TENSOR_LIST_OBJ_INIT(AI_FLAG_NONE, 1, TENSORS(&resize_output)),
 289:Lib/AI_Runtime/Npu/ll_aton/ll_sw_float.c ****                               AI_TENSOR_LIST_OBJ_EMPTY, AI_TENSOR_LIST_OBJ_EMPTY)
 290:Lib/AI_Runtime/Npu/ll_aton/ll_sw_float.c **** 
 291:Lib/AI_Runtime/Npu/ll_aton/ll_sw_float.c ****   // extrapolating the scales values needed
 292:Lib/AI_Runtime/Npu/ll_aton/ll_sw_float.c ****   const ai_tensor *p = &resize_scales;
 2158              		.loc 1 292 20
 2159 0412 07F58873 		add	r3, r7, #272
 2160 0416 C7F8AC31 		str	r3, [r7, #428]
 293:Lib/AI_Runtime/Npu/ll_aton/ll_sw_float.c ****   const ai_float *s = AI_ARRAY_OBJ_DATA(p->data, ai_float);
 2161              		.loc 1 293 23
 2162 041a D7F8AC31 		ldr	r3, [r7, #428]
 2163 041e 9B69     		ldr	r3, [r3, #24]
 2164              		.loc 1 293 19
 2165 0420 9B68     		ldr	r3, [r3, #8]
ARM GAS  /tmp/ccEo7NLA.s 			page 50


 2166 0422 C7F8A831 		str	r3, [r7, #424]
 294:Lib/AI_Runtime/Npu/ll_aton/ll_sw_float.c ****   AI_ARRAY_OBJ_DECLARE_STATIC(rs, ai_float, AI_ARRAY_FORMAT_FLOAT, AI_CONST, 2, s[2], s[3])
 2167              		.loc 1 294 3
 2168 0426 07F5DC73 		add	r3, r7, #440
 2169 042a A3F5AE73 		sub	r3, r3, #348
 2170 042e 854A     		ldr	r2, .L44
 2171 0430 1A60     		str	r2, [r3]
 2172 0432 07F5DC73 		add	r3, r7, #440
 2173 0436 A3F5AE73 		sub	r3, r3, #348
 2174 043a 0222     		movs	r2, #2
 2175 043c 5A60     		str	r2, [r3, #4]
 2176 043e D7F8A831 		ldr	r3, [r7, #424]
 2177 0442 0833     		adds	r3, r3, #8
 2178 0444 1A68     		ldr	r2, [r3]	@ float
 2179 0446 07F5DC73 		add	r3, r7, #440
 2180 044a A3F5B273 		sub	r3, r3, #356
 2181 044e 1A60     		str	r2, [r3]	@ float
 2182 0450 D7F8A831 		ldr	r3, [r7, #424]
 2183 0454 0C33     		adds	r3, r3, #12
 2184 0456 1A68     		ldr	r2, [r3]	@ float
 2185 0458 07F5DC73 		add	r3, r7, #440
 2186 045c A3F5B273 		sub	r3, r3, #356
 2187 0460 5A60     		str	r2, [r3, #4]	@ float
 2188 0462 07F5DC73 		add	r3, r7, #440
 2189 0466 A3F5AE73 		sub	r3, r3, #348
 2190 046a 07F15402 		add	r2, r7, #84
 2191 046e 9A60     		str	r2, [r3, #8]
 2192 0470 07F5DC73 		add	r3, r7, #440
 2193 0474 A3F5AE73 		sub	r3, r3, #348
 2194 0478 0022     		movs	r2, #0
 2195 047a DA60     		str	r2, [r3, #12]
 295:Lib/AI_Runtime/Npu/ll_aton/ll_sw_float.c **** 
 296:Lib/AI_Runtime/Npu/ll_aton/ll_sw_float.c ****   // layer initialization
 297:Lib/AI_Runtime/Npu/ll_aton/ll_sw_float.c ****   if ((ai_resize_mode)sw_info->mode == AI_RESIZE_ZEROS)
 2196              		.loc 1 297 30
 2197 047c D7F8B031 		ldr	r3, [r7, #432]
 2198 0480 93F8EC30 		ldrb	r3, [r3, #236]	@ zero_extendqisi2
 2199              		.loc 1 297 6
 2200 0484 002B     		cmp	r3, #0
 2201 0486 55D1     		bne	.L38
 2202              	.LBB5:
 298:Lib/AI_Runtime/Npu/ll_aton/ll_sw_float.c ****   {
 299:Lib/AI_Runtime/Npu/ll_aton/ll_sw_float.c ****     AI_LAYER_OBJ_DECLARE(resize_layer, 1, UPSAMPLE_TYPE, 0x0, NULL, upsample, forward_upsample_zero
 2203              		.loc 1 299 5
 2204 0488 07F5DC73 		add	r3, r7, #440
 2205 048c A3F5D673 		sub	r3, r3, #428
 2206 0490 4FF48972 		mov	r2, #274
 2207 0494 1A80     		strh	r2, [r3]	@ movhi
 2208 0496 07F5DC73 		add	r3, r7, #440
 2209 049a A3F5D673 		sub	r3, r3, #428
 2210 049e 0122     		movs	r2, #1
 2211 04a0 5A80     		strh	r2, [r3, #2]	@ movhi
 2212 04a2 07F5DC73 		add	r3, r7, #440
 2213 04a6 A3F5D673 		sub	r3, r3, #428
 2214 04aa 0022     		movs	r2, #0
 2215 04ac 5A60     		str	r2, [r3, #4]
 2216 04ae 07F5DC73 		add	r3, r7, #440
ARM GAS  /tmp/ccEo7NLA.s 			page 51


 2217 04b2 A3F5D673 		sub	r3, r3, #428
 2218 04b6 0022     		movs	r2, #0
 2219 04b8 9A60     		str	r2, [r3, #8]
 2220 04ba 07F5DC73 		add	r3, r7, #440
 2221 04be A3F5D673 		sub	r3, r3, #428
 2222 04c2 0022     		movs	r2, #0
 2223 04c4 DA60     		str	r2, [r3, #12]
 2224 04c6 07F5DC73 		add	r3, r7, #440
 2225 04ca A3F5D673 		sub	r3, r3, #428
 2226 04ce 0022     		movs	r2, #0
 2227 04d0 1A61     		str	r2, [r3, #16]
 2228 04d2 07F5DC73 		add	r3, r7, #440
 2229 04d6 A3F5D673 		sub	r3, r3, #428
 2230 04da 5B4A     		ldr	r2, .L44+4
 2231 04dc 5A61     		str	r2, [r3, #20]
 2232 04de 07F5DC73 		add	r3, r7, #440
 2233 04e2 A3F5D673 		sub	r3, r3, #428
 2234 04e6 07F1AC02 		add	r2, r7, #172
 2235 04ea 9A61     		str	r2, [r3, #24]
 2236 04ec 07F5DC73 		add	r3, r7, #440
 2237 04f0 A3F5D673 		sub	r3, r3, #428
 2238 04f4 0022     		movs	r2, #0
 2239 04f6 1A77     		strb	r2, [r3, #28]
 2240 04f8 07F5DC73 		add	r3, r7, #440
 2241 04fc A3F5D673 		sub	r3, r3, #428
 2242 0500 0022     		movs	r2, #0
 2243 0502 5A77     		strb	r2, [r3, #29]
 2244 0504 07F5DC73 		add	r3, r7, #440
 2245 0508 A3F5D673 		sub	r3, r3, #428
 2246 050c 07F15C02 		add	r2, r7, #92
 2247 0510 1A62     		str	r2, [r3, #32]
 2248 0512 07F5DC73 		add	r3, r7, #440
 2249 0516 A3F5D673 		sub	r3, r3, #428
 2250 051a 0022     		movs	r2, #0
 2251 051c 83F82420 		strb	r2, [r3, #36]
 300:Lib/AI_Runtime/Npu/ll_aton/ll_sw_float.c ****                          NULL, NULL, , .mode = AI_UPSAMPLE_ZEROS, .center = false, .scales = AI_ARR
 301:Lib/AI_Runtime/Npu/ll_aton/ll_sw_float.c ****                          .nearest_mode = AI_ROUND_PREFER_FLOOR)
 302:Lib/AI_Runtime/Npu/ll_aton/ll_sw_float.c ****     resize_layer.forward(AI_LAYER_OBJ(&resize_layer));
 2252              		.loc 1 302 17
 2253 0520 07F5DC73 		add	r3, r7, #440
 2254 0524 A3F5D673 		sub	r3, r3, #428
 2255 0528 5B69     		ldr	r3, [r3, #20]
 2256              		.loc 1 302 5
 2257 052a 07F10C02 		add	r2, r7, #12
 2258 052e 1046     		mov	r0, r2
 2259 0530 9847     		blx	r3
 2260              	.LVL4:
 2261              	.LBE5:
 303:Lib/AI_Runtime/Npu/ll_aton/ll_sw_float.c ****   }
 304:Lib/AI_Runtime/Npu/ll_aton/ll_sw_float.c ****   else
 305:Lib/AI_Runtime/Npu/ll_aton/ll_sw_float.c ****   {
 306:Lib/AI_Runtime/Npu/ll_aton/ll_sw_float.c ****     AI_LAYER_OBJ_DECLARE(resize_layer, 1, RESIZE_TYPE, 0x0, NULL, resize, forward_resize, &resize_c
 307:Lib/AI_Runtime/Npu/ll_aton/ll_sw_float.c ****                          .cubic_coeff_a = sw_info->cubic_coeff_a, .exclude_outside = sw_info->exclu
 308:Lib/AI_Runtime/Npu/ll_aton/ll_sw_float.c ****                          .extrapol_val = sw_info->extrapol_val, .mode = (ai_resize_mode)sw_info->mo
 309:Lib/AI_Runtime/Npu/ll_aton/ll_sw_float.c ****                          .nearest_mode = (ai_nearest_mode)sw_info->nearest_mode,
 310:Lib/AI_Runtime/Npu/ll_aton/ll_sw_float.c ****                          .coord_transf_mode = (ai_coord_transf_mode)sw_info->coord_transf_mode,
 311:Lib/AI_Runtime/Npu/ll_aton/ll_sw_float.c ****                          .scales = AI_ARRAY_OBJ(&rs), .roi = resize_roi_array_ptr)
ARM GAS  /tmp/ccEo7NLA.s 			page 52


 312:Lib/AI_Runtime/Npu/ll_aton/ll_sw_float.c ****     resize_layer.forward(AI_LAYER_OBJ(&resize_layer));
 313:Lib/AI_Runtime/Npu/ll_aton/ll_sw_float.c ****   }
 314:Lib/AI_Runtime/Npu/ll_aton/ll_sw_float.c **** }
 2262              		.loc 1 314 1
 2263 0532 81E0     		b	.L40
 2264              	.L38:
 2265              	.LBB6:
 306:Lib/AI_Runtime/Npu/ll_aton/ll_sw_float.c ****                          .cubic_coeff_a = sw_info->cubic_coeff_a, .exclude_outside = sw_info->exclu
 2266              		.loc 1 306 5
 2267 0534 07F5DC73 		add	r3, r7, #440
 2268 0538 A3F5D673 		sub	r3, r3, #428
 2269 053c 40F21B12 		movw	r2, #283
 2270 0540 1A80     		strh	r2, [r3]	@ movhi
 2271 0542 07F5DC73 		add	r3, r7, #440
 2272 0546 A3F5D673 		sub	r3, r3, #428
 2273 054a 0122     		movs	r2, #1
 2274 054c 5A80     		strh	r2, [r3, #2]	@ movhi
 2275 054e 07F5DC73 		add	r3, r7, #440
 2276 0552 A3F5D673 		sub	r3, r3, #428
 2277 0556 0022     		movs	r2, #0
 2278 0558 5A60     		str	r2, [r3, #4]
 2279 055a 07F5DC73 		add	r3, r7, #440
 2280 055e A3F5D673 		sub	r3, r3, #428
 2281 0562 0022     		movs	r2, #0
 2282 0564 9A60     		str	r2, [r3, #8]
 2283 0566 07F5DC73 		add	r3, r7, #440
 2284 056a A3F5D673 		sub	r3, r3, #428
 2285 056e 0022     		movs	r2, #0
 2286 0570 DA60     		str	r2, [r3, #12]
 2287 0572 07F5DC73 		add	r3, r7, #440
 2288 0576 A3F5D673 		sub	r3, r3, #428
 2289 057a 0022     		movs	r2, #0
 2290 057c 1A61     		str	r2, [r3, #16]
 2291 057e 07F5DC73 		add	r3, r7, #440
 2292 0582 A3F5D673 		sub	r3, r3, #428
 2293 0586 314A     		ldr	r2, .L44+8
 2294 0588 5A61     		str	r2, [r3, #20]
 2295 058a 07F5DC73 		add	r3, r7, #440
 2296 058e A3F5D673 		sub	r3, r3, #428
 2297 0592 07F1AC02 		add	r2, r7, #172
 2298 0596 9A61     		str	r2, [r3, #24]
 2299 0598 D7F8B031 		ldr	r3, [r7, #432]
 2300 059c 93F8EE20 		ldrb	r2, [r3, #238]	@ zero_extendqisi2
 2301 05a0 07F5DC73 		add	r3, r7, #440
 2302 05a4 A3F5D673 		sub	r3, r3, #428
 2303 05a8 1A77     		strb	r2, [r3, #28]
 2304 05aa D7F8B031 		ldr	r3, [r7, #432]
 2305 05ae D3F8E020 		ldr	r2, [r3, #224]	@ float
 2306 05b2 07F5DC73 		add	r3, r7, #440
 2307 05b6 A3F5D673 		sub	r3, r3, #428
 2308 05ba 1A62     		str	r2, [r3, #32]	@ float
 2309 05bc D7F8B031 		ldr	r3, [r7, #432]
 2310 05c0 93F8E420 		ldrb	r2, [r3, #228]	@ zero_extendqisi2
 2311 05c4 07F5DC73 		add	r3, r7, #440
 2312 05c8 A3F5D673 		sub	r3, r3, #428
 2313 05cc 83F82420 		strb	r2, [r3, #36]
 2314 05d0 D7F8B031 		ldr	r3, [r7, #432]
ARM GAS  /tmp/ccEo7NLA.s 			page 53


 2315 05d4 D3F8E820 		ldr	r2, [r3, #232]	@ float
 2316 05d8 07F5DC73 		add	r3, r7, #440
 2317 05dc A3F5D673 		sub	r3, r3, #428
 2318 05e0 9A62     		str	r2, [r3, #40]	@ float
 2319 05e2 D7F8B031 		ldr	r3, [r7, #432]
 2320 05e6 93F8EC20 		ldrb	r2, [r3, #236]	@ zero_extendqisi2
 2321 05ea 07F5DC73 		add	r3, r7, #440
 2322 05ee A3F5D673 		sub	r3, r3, #428
 2323 05f2 83F82C20 		strb	r2, [r3, #44]
 2324 05f6 D7F8B031 		ldr	r3, [r7, #432]
 2325 05fa 93F8ED20 		ldrb	r2, [r3, #237]	@ zero_extendqisi2
 2326 05fe 07F5DC73 		add	r3, r7, #440
 2327 0602 A3F5D673 		sub	r3, r3, #428
 2328 0606 83F82D20 		strb	r2, [r3, #45]
 2329 060a 07F5DC73 		add	r3, r7, #440
 2330 060e A3F5D673 		sub	r3, r3, #428
 2331 0612 07F15C02 		add	r2, r7, #92
 2332 0616 1A63     		str	r2, [r3, #48]
 2333 0618 07F5DC73 		add	r3, r7, #440
 2334 061c A3F5D673 		sub	r3, r3, #428
 2335 0620 D7F8B421 		ldr	r2, [r7, #436]
 2336 0624 5A63     		str	r2, [r3, #52]
 312:Lib/AI_Runtime/Npu/ll_aton/ll_sw_float.c ****   }
 2337              		.loc 1 312 17
 2338 0626 07F5DC73 		add	r3, r7, #440
 2339 062a A3F5D673 		sub	r3, r3, #428
 2340 062e 5B69     		ldr	r3, [r3, #20]
 312:Lib/AI_Runtime/Npu/ll_aton/ll_sw_float.c ****   }
 2341              		.loc 1 312 5
 2342 0630 07F10C02 		add	r2, r7, #12
 2343 0634 1046     		mov	r0, r2
 2344 0636 9847     		blx	r3
 2345              	.LVL5:
 2346              	.L40:
 2347              	.LBE6:
 2348              		.loc 1 314 1
 2349 0638 00BF     		nop
 2350 063a 07F5DC77 		add	r7, r7, #440
 2351              		.cfi_def_cfa_offset 8
 2352 063e BD46     		mov	sp, r7
 2353              		.cfi_def_cfa_register 13
 2354              		@ sp needed
 2355 0640 80BD     		pop	{r7, pc}
 2356              	.L45:
 2357 0642 00BF     		.align	2
 2358              	.L44:
 2359 0644 40108200 		.word	8523840
 2360 0648 00000000 		.word	forward_upsample_zeros
 2361 064c 00000000 		.word	forward_resize
 2362              		.cfi_endproc
 2363              	.LFE18:
 2365              		.section	.text.ll_sw_forward_softmax,"ax",%progbits
 2366              		.align	1
 2367              		.global	ll_sw_forward_softmax
 2368              		.syntax unified
 2369              		.thumb
 2370              		.thumb_func
ARM GAS  /tmp/ccEo7NLA.s 			page 54


 2372              	ll_sw_forward_softmax:
 2373              	.LFB19:
 315:Lib/AI_Runtime/Npu/ll_aton/ll_sw_float.c **** 
 316:Lib/AI_Runtime/Npu/ll_aton/ll_sw_float.c **** //##########################################################################################
 317:Lib/AI_Runtime/Npu/ll_aton/ll_sw_float.c **** /** Softmax forward function */
 318:Lib/AI_Runtime/Npu/ll_aton/ll_sw_float.c **** void ll_sw_forward_softmax(/* int processor, */ void *sw_info_struct)
 319:Lib/AI_Runtime/Npu/ll_aton/ll_sw_float.c **** {
 2374              		.loc 1 319 1
 2375              		.cfi_startproc
 2376              		@ args = 0, pretend = 0, frame = 352
 2377              		@ frame_needed = 1, uses_anonymous_args = 0
 2378 0000 80B5     		push	{r7, lr}
 2379              		.cfi_def_cfa_offset 8
 2380              		.cfi_offset 7, -8
 2381              		.cfi_offset 14, -4
 2382 0002 D8B0     		sub	sp, sp, #352
 2383              		.cfi_def_cfa_offset 360
 2384 0004 00AF     		add	r7, sp, #0
 2385              		.cfi_def_cfa_register 7
 2386 0006 07F5B073 		add	r3, r7, #352
 2387 000a A3F5AE73 		sub	r3, r3, #348
 2388 000e 1860     		str	r0, [r3]
 320:Lib/AI_Runtime/Npu/ll_aton/ll_sw_float.c ****   Softmax_sw_info *sw_info = (Softmax_sw_info *)sw_info_struct;
 2389              		.loc 1 320 20
 2390 0010 07F5B073 		add	r3, r7, #352
 2391 0014 A3F5AE73 		sub	r3, r3, #348
 2392 0018 1B68     		ldr	r3, [r3]
 2393 001a C7F85C31 		str	r3, [r7, #348]
 321:Lib/AI_Runtime/Npu/ll_aton/ll_sw_float.c **** 
 322:Lib/AI_Runtime/Npu/ll_aton/ll_sw_float.c ****   // array init
 323:Lib/AI_Runtime/Npu/ll_aton/ll_sw_float.c ****   int32_t format = sw_info->general.input.format.is_signed ? (AI_ARRAY_FORMAT_S8 | AI_FMT_FLAG_IS_I
 2394              		.loc 1 323 49
 2395 001e D7F85C31 		ldr	r3, [r7, #348]
 2396 0022 93F82C30 		ldrb	r3, [r3, #44]	@ zero_extendqisi2
 324:Lib/AI_Runtime/Npu/ll_aton/ll_sw_float.c ****                                                            : (AI_ARRAY_FORMAT_U8 | AI_FMT_FLAG_IS_I
 2397              		.loc 1 324 60
 2398 0026 002B     		cmp	r3, #0
 2399 0028 01D0     		beq	.L47
 2400              		.loc 1 324 60 is_stmt 0 discriminator 1
 2401 002a 104B     		ldr	r3, .L51
 2402 002c 00E0     		b	.L48
 2403              	.L47:
 2404              		.loc 1 324 60 discriminator 2
 2405 002e 104B     		ldr	r3, .L51+4
 2406              	.L48:
 323:Lib/AI_Runtime/Npu/ll_aton/ll_sw_float.c ****                                                            : (AI_ARRAY_FORMAT_U8 | AI_FMT_FLAG_IS_I
 2407              		.loc 1 323 11 is_stmt 1
 2408 0030 C7F85831 		str	r3, [r7, #344]
 325:Lib/AI_Runtime/Npu/ll_aton/ll_sw_float.c ****   AI_ARRAY_OBJ_DECLARE(input_output_array, format, sw_info->general.input.mem.start_offset,
 2409              		.loc 1 325 3
 2410 0034 D7F85831 		ldr	r3, [r7, #344]
 2411 0038 C7F84831 		str	r3, [r7, #328]
 2412 003c D7F85C31 		ldr	r3, [r7, #348]
 2413 0040 5B69     		ldr	r3, [r3, #20]
 2414 0042 C7F84C31 		str	r3, [r7, #332]
 2415 0046 D7F85C31 		ldr	r3, [r7, #348]
 2416 004a 9B6A     		ldr	r3, [r3, #40]
ARM GAS  /tmp/ccEo7NLA.s 			page 55


 2417 004c C7F85031 		str	r3, [r7, #336]
 2418 0050 D7F85C31 		ldr	r3, [r7, #348]
 2419 0054 9B6A     		ldr	r3, [r3, #40]
 2420 0056 C7F85431 		str	r3, [r7, #340]
 326:Lib/AI_Runtime/Npu/ll_aton/ll_sw_float.c ****                        sw_info->general.input.mem.start_offset, sw_info->general.input.dim.num_elem
 327:Lib/AI_Runtime/Npu/ll_aton/ll_sw_float.c **** 
 328:Lib/AI_Runtime/Npu/ll_aton/ll_sw_float.c ****   format = sw_info->general.output.format.is_signed ? (AI_ARRAY_FORMAT_S8 | AI_FMT_FLAG_IS_IO)
 2421              		.loc 1 328 42
 2422 005a D7F85C31 		ldr	r3, [r7, #348]
 2423 005e 93F85830 		ldrb	r3, [r3, #88]	@ zero_extendqisi2
 329:Lib/AI_Runtime/Npu/ll_aton/ll_sw_float.c ****                                                     : (AI_ARRAY_FORMAT_U8 | AI_FMT_FLAG_IS_IO);
 2424              		.loc 1 329 53
 2425 0062 002B     		cmp	r3, #0
 2426 0064 06D0     		beq	.L49
 2427              		.loc 1 329 53 is_stmt 0 discriminator 1
 2428 0066 014B     		ldr	r3, .L51
 2429 0068 05E0     		b	.L50
 2430              	.L52:
 2431 006a 00BF     		.align	2
 2432              	.L51:
 2433 006c 40048408 		.word	142869568
 2434 0070 40040408 		.word	134480960
 2435              	.L49:
 2436              		.loc 1 329 53 discriminator 2
 2437 0074 E14B     		ldr	r3, .L53
 2438              	.L50:
 328:Lib/AI_Runtime/Npu/ll_aton/ll_sw_float.c ****                                                     : (AI_ARRAY_FORMAT_U8 | AI_FMT_FLAG_IS_IO);
 2439              		.loc 1 328 10 is_stmt 1
 2440 0076 C7F85831 		str	r3, [r7, #344]
 330:Lib/AI_Runtime/Npu/ll_aton/ll_sw_float.c ****   AI_ARRAY_OBJ_DECLARE(softmax_output_array, format, sw_info->general.output.mem.start_offset,
 2441              		.loc 1 330 3
 2442 007a D7F85831 		ldr	r3, [r7, #344]
 2443 007e C7F83831 		str	r3, [r7, #312]
 2444 0082 D7F85C31 		ldr	r3, [r7, #348]
 2445 0086 1B6C     		ldr	r3, [r3, #64]
 2446 0088 C7F83C31 		str	r3, [r7, #316]
 2447 008c D7F85C31 		ldr	r3, [r7, #348]
 2448 0090 5B6D     		ldr	r3, [r3, #84]
 2449 0092 C7F84031 		str	r3, [r7, #320]
 2450 0096 D7F85C31 		ldr	r3, [r7, #348]
 2451 009a 5B6D     		ldr	r3, [r3, #84]
 2452 009c C7F84431 		str	r3, [r7, #324]
 331:Lib/AI_Runtime/Npu/ll_aton/ll_sw_float.c ****                        sw_info->general.output.mem.start_offset, sw_info->general.output.dim.num_el
 332:Lib/AI_Runtime/Npu/ll_aton/ll_sw_float.c **** 
 333:Lib/AI_Runtime/Npu/ll_aton/ll_sw_float.c ****   AI_ARRAY_OBJ_DECLARE(sm_scratch0_array, AI_ARRAY_FORMAT_S32, sw_info->scratch.mem.start_offset,
 2453              		.loc 1 333 3
 2454 00a0 D74B     		ldr	r3, .L53+4
 2455 00a2 C7F82831 		str	r3, [r7, #296]
 2456 00a6 D7F85C31 		ldr	r3, [r7, #348]
 2457 00aa DB6E     		ldr	r3, [r3, #108]
 2458 00ac C7F82C31 		str	r3, [r7, #300]
 2459 00b0 D7F85C31 		ldr	r3, [r7, #348]
 2460 00b4 D3F88030 		ldr	r3, [r3, #128]
 2461 00b8 C7F83031 		str	r3, [r7, #304]
 2462 00bc D7F85C31 		ldr	r3, [r7, #348]
 2463 00c0 D3F88030 		ldr	r3, [r3, #128]
 2464 00c4 C7F83431 		str	r3, [r7, #308]
ARM GAS  /tmp/ccEo7NLA.s 			page 56


 334:Lib/AI_Runtime/Npu/ll_aton/ll_sw_float.c ****                        sw_info->scratch.mem.start_offset, sw_info->scratch.dim.num_elem, )
 335:Lib/AI_Runtime/Npu/ll_aton/ll_sw_float.c **** 
 336:Lib/AI_Runtime/Npu/ll_aton/ll_sw_float.c ****   AI_TENSOR_OBJ_DECLARE(input_output, , 0x0, 4,
 2465              		.loc 1 336 3
 2466 00c8 0023     		movs	r3, #0
 2467 00ca C7F80C31 		str	r3, [r7, #268]
 2468 00ce 0023     		movs	r3, #0
 2469 00d0 A7F81031 		strh	r3, [r7, #272]	@ movhi
 2470 00d4 0423     		movs	r3, #4
 2471 00d6 87F81231 		strb	r3, [r7, #274]
 2472 00da 0123     		movs	r3, #1
 2473 00dc 87F81331 		strb	r3, [r7, #275]
 2474 00e0 0123     		movs	r3, #1
 2475 00e2 87F81431 		strb	r3, [r7, #276]
 2476 00e6 D7F81431 		ldr	r3, [r7, #276]
 2477 00ea 0422     		movs	r2, #4
 2478 00ec 62F31F23 		bfi	r3, r2, #8, #24
 2479 00f0 C7F81431 		str	r3, [r7, #276]
 2480 00f4 D7F85C31 		ldr	r3, [r7, #348]
 2481 00f8 1B69     		ldr	r3, [r3, #16]
 2482 00fa C7F8FC30 		str	r3, [r7, #252]
 2483 00fe D7F85C31 		ldr	r3, [r7, #348]
 2484 0102 DB68     		ldr	r3, [r3, #12]
 2485 0104 C7F80031 		str	r3, [r7, #256]
 2486 0108 D7F85C31 		ldr	r3, [r7, #348]
 2487 010c 9B68     		ldr	r3, [r3, #8]
 2488 010e C7F80431 		str	r3, [r7, #260]
 2489 0112 D7F85C31 		ldr	r3, [r7, #348]
 2490 0116 5B68     		ldr	r3, [r3, #4]
 2491 0118 C7F80831 		str	r3, [r7, #264]
 2492 011c 07F1FC03 		add	r3, r7, #252
 2493 0120 C7F81831 		str	r3, [r7, #280]
 2494 0124 0223     		movs	r3, #2
 2495 0126 87F81C31 		strb	r3, [r7, #284]
 2496 012a D7F81C31 		ldr	r3, [r7, #284]
 2497 012e 0422     		movs	r2, #4
 2498 0130 62F31F23 		bfi	r3, r2, #8, #24
 2499 0134 C7F81C31 		str	r3, [r7, #284]
 2500 0138 D7F85C31 		ldr	r3, [r7, #348]
 2501 013c 5B6A     		ldr	r3, [r3, #36]
 2502 013e C7F8EC30 		str	r3, [r7, #236]
 2503 0142 D7F85C31 		ldr	r3, [r7, #348]
 2504 0146 1B6A     		ldr	r3, [r3, #32]
 2505 0148 C7F8F030 		str	r3, [r7, #240]
 2506 014c D7F85C31 		ldr	r3, [r7, #348]
 2507 0150 DB69     		ldr	r3, [r3, #28]
 2508 0152 C7F8F430 		str	r3, [r7, #244]
 2509 0156 D7F85C31 		ldr	r3, [r7, #348]
 2510 015a 9B69     		ldr	r3, [r3, #24]
 2511 015c C7F8F830 		str	r3, [r7, #248]
 2512 0160 07F1EC03 		add	r3, r7, #236
 2513 0164 C7F82031 		str	r3, [r7, #288]
 2514 0168 07F5A473 		add	r3, r7, #328
 2515 016c C7F82431 		str	r3, [r7, #292]
 337:Lib/AI_Runtime/Npu/ll_aton/ll_sw_float.c ****                         SHAPE_INIT(sw_info->general.input.dim.tensor_h, sw_info->general.input.dim.
 338:Lib/AI_Runtime/Npu/ll_aton/ll_sw_float.c ****                                    sw_info->general.input.dim.tensor_c, sw_info->general.input.dim.
 339:Lib/AI_Runtime/Npu/ll_aton/ll_sw_float.c ****                         STRIDE_INIT(sw_info->general.input.stride.h, sw_info->general.input.stride.
ARM GAS  /tmp/ccEo7NLA.s 			page 57


 340:Lib/AI_Runtime/Npu/ll_aton/ll_sw_float.c ****                                     sw_info->general.input.stride.c, sw_info->general.input.stride.
 341:Lib/AI_Runtime/Npu/ll_aton/ll_sw_float.c ****                         1, &input_output_array, NULL);
 342:Lib/AI_Runtime/Npu/ll_aton/ll_sw_float.c **** 
 343:Lib/AI_Runtime/Npu/ll_aton/ll_sw_float.c ****   AI_TENSOR_OBJ_DECLARE(softmax_output, , 0x0, 4,
 2516              		.loc 1 343 3
 2517 0170 0023     		movs	r3, #0
 2518 0172 C7F8D030 		str	r3, [r7, #208]
 2519 0176 0023     		movs	r3, #0
 2520 0178 A7F8D430 		strh	r3, [r7, #212]	@ movhi
 2521 017c 0423     		movs	r3, #4
 2522 017e 87F8D630 		strb	r3, [r7, #214]
 2523 0182 0123     		movs	r3, #1
 2524 0184 87F8D730 		strb	r3, [r7, #215]
 2525 0188 0123     		movs	r3, #1
 2526 018a 87F8D830 		strb	r3, [r7, #216]
 2527 018e D7F8D830 		ldr	r3, [r7, #216]
 2528 0192 0422     		movs	r2, #4
 2529 0194 62F31F23 		bfi	r3, r2, #8, #24
 2530 0198 C7F8D830 		str	r3, [r7, #216]
 2531 019c D7F85C31 		ldr	r3, [r7, #348]
 2532 01a0 DB6B     		ldr	r3, [r3, #60]
 2533 01a2 C7F8C030 		str	r3, [r7, #192]
 2534 01a6 D7F85C31 		ldr	r3, [r7, #348]
 2535 01aa 9B6B     		ldr	r3, [r3, #56]
 2536 01ac C7F8C430 		str	r3, [r7, #196]
 2537 01b0 D7F85C31 		ldr	r3, [r7, #348]
 2538 01b4 5B6B     		ldr	r3, [r3, #52]
 2539 01b6 C7F8C830 		str	r3, [r7, #200]
 2540 01ba D7F85C31 		ldr	r3, [r7, #348]
 2541 01be 1B6B     		ldr	r3, [r3, #48]
 2542 01c0 C7F8CC30 		str	r3, [r7, #204]
 2543 01c4 07F1C003 		add	r3, r7, #192
 2544 01c8 C7F8DC30 		str	r3, [r7, #220]
 2545 01cc 0223     		movs	r3, #2
 2546 01ce 87F8E030 		strb	r3, [r7, #224]
 2547 01d2 D7F8E030 		ldr	r3, [r7, #224]
 2548 01d6 0422     		movs	r2, #4
 2549 01d8 62F31F23 		bfi	r3, r2, #8, #24
 2550 01dc C7F8E030 		str	r3, [r7, #224]
 2551 01e0 D7F85C31 		ldr	r3, [r7, #348]
 2552 01e4 1B6D     		ldr	r3, [r3, #80]
 2553 01e6 C7F8B030 		str	r3, [r7, #176]
 2554 01ea D7F85C31 		ldr	r3, [r7, #348]
 2555 01ee DB6C     		ldr	r3, [r3, #76]
 2556 01f0 C7F8B430 		str	r3, [r7, #180]
 2557 01f4 D7F85C31 		ldr	r3, [r7, #348]
 2558 01f8 9B6C     		ldr	r3, [r3, #72]
 2559 01fa C7F8B830 		str	r3, [r7, #184]
 2560 01fe D7F85C31 		ldr	r3, [r7, #348]
 2561 0202 5B6C     		ldr	r3, [r3, #68]
 2562 0204 C7F8BC30 		str	r3, [r7, #188]
 2563 0208 07F1B003 		add	r3, r7, #176
 2564 020c C7F8E430 		str	r3, [r7, #228]
 2565 0210 07F59C73 		add	r3, r7, #312
 2566 0214 C7F8E830 		str	r3, [r7, #232]
 344:Lib/AI_Runtime/Npu/ll_aton/ll_sw_float.c ****                         SHAPE_INIT(sw_info->general.output.dim.tensor_h, sw_info->general.output.di
 345:Lib/AI_Runtime/Npu/ll_aton/ll_sw_float.c ****                                    sw_info->general.output.dim.tensor_c, sw_info->general.output.di
ARM GAS  /tmp/ccEo7NLA.s 			page 58


 346:Lib/AI_Runtime/Npu/ll_aton/ll_sw_float.c ****                         STRIDE_INIT(sw_info->general.output.stride.h, sw_info->general.output.strid
 347:Lib/AI_Runtime/Npu/ll_aton/ll_sw_float.c ****                                     sw_info->general.output.stride.c, sw_info->general.output.strid
 348:Lib/AI_Runtime/Npu/ll_aton/ll_sw_float.c ****                         1, &softmax_output_array, NULL);
 349:Lib/AI_Runtime/Npu/ll_aton/ll_sw_float.c **** 
 350:Lib/AI_Runtime/Npu/ll_aton/ll_sw_float.c ****   AI_TENSOR_OBJ_DECLARE(sm_scratch0, , 0x0, 4,
 2567              		.loc 1 350 3
 2568 0218 0023     		movs	r3, #0
 2569 021a C7F89430 		str	r3, [r7, #148]
 2570 021e 0023     		movs	r3, #0
 2571 0220 A7F89830 		strh	r3, [r7, #152]	@ movhi
 2572 0224 0423     		movs	r3, #4
 2573 0226 87F89A30 		strb	r3, [r7, #154]
 2574 022a 0123     		movs	r3, #1
 2575 022c 87F89B30 		strb	r3, [r7, #155]
 2576 0230 0123     		movs	r3, #1
 2577 0232 87F89C30 		strb	r3, [r7, #156]
 2578 0236 D7F89C30 		ldr	r3, [r7, #156]
 2579 023a 0422     		movs	r2, #4
 2580 023c 62F31F23 		bfi	r3, r2, #8, #24
 2581 0240 C7F89C30 		str	r3, [r7, #156]
 2582 0244 D7F85C31 		ldr	r3, [r7, #348]
 2583 0248 9B6E     		ldr	r3, [r3, #104]
 2584 024a C7F88430 		str	r3, [r7, #132]
 2585 024e D7F85C31 		ldr	r3, [r7, #348]
 2586 0252 5B6E     		ldr	r3, [r3, #100]
 2587 0254 C7F88830 		str	r3, [r7, #136]
 2588 0258 D7F85C31 		ldr	r3, [r7, #348]
 2589 025c 1B6E     		ldr	r3, [r3, #96]
 2590 025e C7F88C30 		str	r3, [r7, #140]
 2591 0262 D7F85C31 		ldr	r3, [r7, #348]
 2592 0266 DB6D     		ldr	r3, [r3, #92]
 2593 0268 C7F89030 		str	r3, [r7, #144]
 2594 026c 07F18403 		add	r3, r7, #132
 2595 0270 C7F8A030 		str	r3, [r7, #160]
 2596 0274 0223     		movs	r3, #2
 2597 0276 87F8A430 		strb	r3, [r7, #164]
 2598 027a D7F8A430 		ldr	r3, [r7, #164]
 2599 027e 0422     		movs	r2, #4
 2600 0280 62F31F23 		bfi	r3, r2, #8, #24
 2601 0284 C7F8A430 		str	r3, [r7, #164]
 2602 0288 D7F85C31 		ldr	r3, [r7, #348]
 2603 028c DB6F     		ldr	r3, [r3, #124]
 2604 028e 7B67     		str	r3, [r7, #116]
 2605 0290 D7F85C31 		ldr	r3, [r7, #348]
 2606 0294 9B6F     		ldr	r3, [r3, #120]
 2607 0296 BB67     		str	r3, [r7, #120]
 2608 0298 D7F85C31 		ldr	r3, [r7, #348]
 2609 029c 5B6F     		ldr	r3, [r3, #116]
 2610 029e FB67     		str	r3, [r7, #124]
 2611 02a0 D7F85C31 		ldr	r3, [r7, #348]
 2612 02a4 1B6F     		ldr	r3, [r3, #112]
 2613 02a6 C7F88030 		str	r3, [r7, #128]
 2614 02aa 07F17403 		add	r3, r7, #116
 2615 02ae C7F8A830 		str	r3, [r7, #168]
 2616 02b2 07F59473 		add	r3, r7, #296
 2617 02b6 C7F8AC30 		str	r3, [r7, #172]
 351:Lib/AI_Runtime/Npu/ll_aton/ll_sw_float.c ****                         SHAPE_INIT(sw_info->scratch.dim.tensor_h, sw_info->scratch.dim.tensor_w,
ARM GAS  /tmp/ccEo7NLA.s 			page 59


 352:Lib/AI_Runtime/Npu/ll_aton/ll_sw_float.c ****                                    sw_info->scratch.dim.tensor_c, sw_info->scratch.dim.tensor_b),
 353:Lib/AI_Runtime/Npu/ll_aton/ll_sw_float.c ****                         STRIDE_INIT(sw_info->scratch.stride.h, sw_info->scratch.stride.w, sw_info->
 354:Lib/AI_Runtime/Npu/ll_aton/ll_sw_float.c ****                                     sw_info->scratch.stride.b),
 355:Lib/AI_Runtime/Npu/ll_aton/ll_sw_float.c ****                         1, &sm_scratch0_array, NULL);
 356:Lib/AI_Runtime/Npu/ll_aton/ll_sw_float.c **** 
 357:Lib/AI_Runtime/Npu/ll_aton/ll_sw_float.c ****   // tensor chain initialization
 358:Lib/AI_Runtime/Npu/ll_aton/ll_sw_float.c ****   AI_TENSOR_CHAIN_OBJ_DECLARE(softmax_chain, , 4, AI_TENSOR_LIST_OBJ_INIT(AI_FLAG_NONE, 1, TENSORS(
 2618              		.loc 1 358 3
 2619 02ba 0423     		movs	r3, #4
 2620 02bc A7F86C30 		strh	r3, [r7, #108]	@ movhi
 2621 02c0 0023     		movs	r3, #0
 2622 02c2 A7F86E30 		strh	r3, [r7, #110]	@ movhi
 2623 02c6 07F5B073 		add	r3, r7, #352
 2624 02ca A3F59A73 		sub	r3, r3, #308
 2625 02ce 0122     		movs	r2, #1
 2626 02d0 1A80     		strh	r2, [r3]	@ movhi
 2627 02d2 07F5B073 		add	r3, r7, #352
 2628 02d6 A3F59A73 		sub	r3, r3, #308
 2629 02da 0022     		movs	r2, #0
 2630 02dc 5A80     		strh	r2, [r3, #2]	@ movhi
 2631 02de 07F58673 		add	r3, r7, #268
 2632 02e2 BB66     		str	r3, [r7, #104]
 2633 02e4 07F5B073 		add	r3, r7, #352
 2634 02e8 A3F59A73 		sub	r3, r3, #308
 2635 02ec 07F16802 		add	r2, r7, #104
 2636 02f0 5A60     		str	r2, [r3, #4]
 2637 02f2 07F5B073 		add	r3, r7, #352
 2638 02f6 A3F59A73 		sub	r3, r3, #308
 2639 02fa 0022     		movs	r2, #0
 2640 02fc 9A60     		str	r2, [r3, #8]
 2641 02fe 07F5B073 		add	r3, r7, #352
 2642 0302 A3F59A73 		sub	r3, r3, #308
 2643 0306 0122     		movs	r2, #1
 2644 0308 9A81     		strh	r2, [r3, #12]	@ movhi
 2645 030a 07F5B073 		add	r3, r7, #352
 2646 030e A3F59A73 		sub	r3, r3, #308
 2647 0312 0022     		movs	r2, #0
 2648 0314 DA81     		strh	r2, [r3, #14]	@ movhi
 2649 0316 07F1D003 		add	r3, r7, #208
 2650 031a 7B66     		str	r3, [r7, #100]
 2651 031c 07F5B073 		add	r3, r7, #352
 2652 0320 A3F59A73 		sub	r3, r3, #308
 2653 0324 07F16402 		add	r2, r7, #100
 2654 0328 1A61     		str	r2, [r3, #16]
 2655 032a 07F5B073 		add	r3, r7, #352
 2656 032e A3F59A73 		sub	r3, r3, #308
 2657 0332 0022     		movs	r2, #0
 2658 0334 5A61     		str	r2, [r3, #20]
 2659 0336 07F5B073 		add	r3, r7, #352
 2660 033a A3F59A73 		sub	r3, r3, #308
 2661 033e 0022     		movs	r2, #0
 2662 0340 1A83     		strh	r2, [r3, #24]	@ movhi
 2663 0342 07F5B073 		add	r3, r7, #352
 2664 0346 A3F59A73 		sub	r3, r3, #308
 2665 034a 0022     		movs	r2, #0
 2666 034c 5A83     		strh	r2, [r3, #26]	@ movhi
 2667 034e 07F5B073 		add	r3, r7, #352
ARM GAS  /tmp/ccEo7NLA.s 			page 60


 2668 0352 A3F58073 		sub	r3, r3, #256
 2669 0356 0022     		movs	r2, #0
 2670 0358 1A60     		str	r2, [r3]
 2671 035a 07F5B073 		add	r3, r7, #352
 2672 035e A3F59A73 		sub	r3, r3, #308
 2673 0362 07F16002 		add	r2, r7, #96
 2674 0366 DA61     		str	r2, [r3, #28]
 2675 0368 07F5B073 		add	r3, r7, #352
 2676 036c A3F59A73 		sub	r3, r3, #308
 2677 0370 0022     		movs	r2, #0
 2678 0372 1A62     		str	r2, [r3, #32]
 2679 0374 07F5B073 		add	r3, r7, #352
 2680 0378 A3F59A73 		sub	r3, r3, #308
 2681 037c 0122     		movs	r2, #1
 2682 037e 9A84     		strh	r2, [r3, #36]	@ movhi
 2683 0380 07F5B073 		add	r3, r7, #352
 2684 0384 A3F59A73 		sub	r3, r3, #308
 2685 0388 0022     		movs	r2, #0
 2686 038a DA84     		strh	r2, [r3, #38]	@ movhi
 2687 038c 07F5B073 		add	r3, r7, #352
 2688 0390 A3F58273 		sub	r3, r3, #260
 2689 0394 07F19402 		add	r2, r7, #148
 2690 0398 1A60     		str	r2, [r3]
 2691 039a 07F5B073 		add	r3, r7, #352
 2692 039e A3F59A73 		sub	r3, r3, #308
 2693 03a2 07F15C02 		add	r2, r7, #92
 2694 03a6 9A62     		str	r2, [r3, #40]
 2695 03a8 07F5B073 		add	r3, r7, #352
 2696 03ac A3F59A73 		sub	r3, r3, #308
 2697 03b0 0022     		movs	r2, #0
 2698 03b2 DA62     		str	r2, [r3, #44]
 2699 03b4 07F12C03 		add	r3, r7, #44
 2700 03b8 3B67     		str	r3, [r7, #112]
 359:Lib/AI_Runtime/Npu/ll_aton/ll_sw_float.c ****                               AI_TENSOR_LIST_OBJ_INIT(AI_FLAG_NONE, 1, TENSORS(&softmax_output)),
 360:Lib/AI_Runtime/Npu/ll_aton/ll_sw_float.c ****                               AI_TENSOR_LIST_OBJ_EMPTY, AI_TENSOR_LIST_OBJ_INIT(AI_FLAG_NONE, 1, TE
 361:Lib/AI_Runtime/Npu/ll_aton/ll_sw_float.c **** 
 362:Lib/AI_Runtime/Npu/ll_aton/ll_sw_float.c ****   AI_LAYER_OBJ_DECLARE(sm_layer, 1, SM_TYPE, 0x0, NULL, sm, forward_sm, &softmax_chain, NULL, NULL,
 2701              		.loc 1 362 3
 2702 03ba 07F5B073 		add	r3, r7, #352
 2703 03be A3F5AC73 		sub	r3, r3, #344
 2704 03c2 1846     		mov	r0, r3
 2705 03c4 2423     		movs	r3, #36
 2706 03c6 1A46     		mov	r2, r3
 2707 03c8 0021     		movs	r1, #0
 2708 03ca FFF7FEFF 		bl	memset
 2709 03ce 07F5B073 		add	r3, r7, #352
 2710 03d2 A3F5AC73 		sub	r3, r3, #344
 2711 03d6 4FF48672 		mov	r2, #268
 2712 03da 1A80     		strh	r2, [r3]	@ movhi
 2713 03dc 07F5B073 		add	r3, r7, #352
 2714 03e0 A3F5AC73 		sub	r3, r3, #344
 2715 03e4 0122     		movs	r2, #1
 2716 03e6 5A80     		strh	r2, [r3, #2]	@ movhi
 2717 03e8 07F5B073 		add	r3, r7, #352
 2718 03ec A3F5AC73 		sub	r3, r3, #344
 2719 03f0 044A     		ldr	r2, .L53+8
 2720 03f2 5A61     		str	r2, [r3, #20]
ARM GAS  /tmp/ccEo7NLA.s 			page 61


 2721 03f4 07F5B073 		add	r3, r7, #352
 2722 03f8 06E0     		b	.L54
 2723              	.L55:
 2724 03fa 00BF     		.align	2
 2725              	.L53:
 2726 03fc 40040408 		.word	134480960
 2727 0400 40108400 		.word	8654912
 2728 0404 00000000 		.word	forward_sm
 2729              	.L54:
 2730 0408 A3F5AC73 		sub	r3, r3, #344
 2731 040c 07F16C02 		add	r2, r7, #108
 2732 0410 9A61     		str	r2, [r3, #24]
 2733 0412 D7F85C31 		ldr	r3, [r7, #348]
 2734 0416 D3F88830 		ldr	r3, [r3, #136]
 2735 041a 1846     		mov	r0, r3
 2736 041c FFF7FEFF 		bl	helper_emit_shape_index_axis
 2737 0420 0346     		mov	r3, r0
 2738              		.loc 1 362 3 is_stmt 0 discriminator 1
 2739 0422 1AB2     		sxth	r2, r3
 2740 0424 07F5B073 		add	r3, r7, #352
 2741 0428 A3F5AC73 		sub	r3, r3, #344
 2742 042c 1A84     		strh	r2, [r3, #32]	@ movhi
 363:Lib/AI_Runtime/Npu/ll_aton/ll_sw_float.c ****                        .axis = helper_emit_shape_index_axis(sw_info->axis))
 364:Lib/AI_Runtime/Npu/ll_aton/ll_sw_float.c ****   sm_layer.forward(AI_LAYER_OBJ(&sm_layer));
 2743              		.loc 1 364 11 is_stmt 1
 2744 042e 07F5B073 		add	r3, r7, #352
 2745 0432 A3F5AC73 		sub	r3, r3, #344
 2746 0436 5B69     		ldr	r3, [r3, #20]
 2747              		.loc 1 364 3
 2748 0438 07F10802 		add	r2, r7, #8
 2749 043c 1046     		mov	r0, r2
 2750 043e 9847     		blx	r3
 2751              	.LVL6:
 365:Lib/AI_Runtime/Npu/ll_aton/ll_sw_float.c **** }
 2752              		.loc 1 365 1
 2753 0440 00BF     		nop
 2754 0442 07F5B077 		add	r7, r7, #352
 2755              		.cfi_def_cfa_offset 8
 2756 0446 BD46     		mov	sp, r7
 2757              		.cfi_def_cfa_register 13
 2758              		@ sp needed
 2759 0448 80BD     		pop	{r7, pc}
 2760              		.cfi_endproc
 2761              	.LFE19:
 2763 044a 00BF     		.section	.text.ll_sw_forward_activ,"ax",%progbits
 2764              		.align	1
 2765              		.global	ll_sw_forward_activ
 2766              		.syntax unified
 2767              		.thumb
 2768              		.thumb_func
 2770              	ll_sw_forward_activ:
 2771              	.LFB20:
 366:Lib/AI_Runtime/Npu/ll_aton/ll_sw_float.c **** 
 367:Lib/AI_Runtime/Npu/ll_aton/ll_sw_float.c **** //##########################################################################################
 368:Lib/AI_Runtime/Npu/ll_aton/ll_sw_float.c **** /** activ forward function  */
 369:Lib/AI_Runtime/Npu/ll_aton/ll_sw_float.c **** void ll_sw_forward_activ(/* int processor, */ void *sw_info_struct)
 370:Lib/AI_Runtime/Npu/ll_aton/ll_sw_float.c **** {
ARM GAS  /tmp/ccEo7NLA.s 			page 62


 2772              		.loc 1 370 1
 2773              		.cfi_startproc
 2774              		@ args = 0, pretend = 0, frame = 528
 2775              		@ frame_needed = 1, uses_anonymous_args = 0
 2776 0000 80B5     		push	{r7, lr}
 2777              		.cfi_def_cfa_offset 8
 2778              		.cfi_offset 7, -8
 2779              		.cfi_offset 14, -4
 2780 0002 ADF5047D 		sub	sp, sp, #528
 2781              		.cfi_def_cfa_offset 536
 2782 0006 00AF     		add	r7, sp, #0
 2783              		.cfi_def_cfa_register 7
 2784 0008 07F50473 		add	r3, r7, #528
 2785 000c A3F50373 		sub	r3, r3, #524
 2786 0010 1860     		str	r0, [r3]
 371:Lib/AI_Runtime/Npu/ll_aton/ll_sw_float.c ****   Activ_sw_info *sw_info = (Activ_sw_info *)sw_info_struct;
 2787              		.loc 1 371 18
 2788 0012 07F50473 		add	r3, r7, #528
 2789 0016 A3F50373 		sub	r3, r3, #524
 2790 001a 1B68     		ldr	r3, [r3]
 2791 001c C7F80C32 		str	r3, [r7, #524]
 372:Lib/AI_Runtime/Npu/ll_aton/ll_sw_float.c ****   // array init
 373:Lib/AI_Runtime/Npu/ll_aton/ll_sw_float.c ****   AI_ARRAY_OBJ_DECLARE(input_output_array, FORMAT, sw_info->general.input.mem.start_offset,
 2792              		.loc 1 373 3
 2793 0020 DF4B     		ldr	r3, .L96
 2794 0022 C7F8FC31 		str	r3, [r7, #508]
 2795 0026 D7F80C32 		ldr	r3, [r7, #524]
 2796 002a 5B69     		ldr	r3, [r3, #20]
 2797 002c C7F80032 		str	r3, [r7, #512]
 2798 0030 D7F80C32 		ldr	r3, [r7, #524]
 2799 0034 9B6A     		ldr	r3, [r3, #40]
 2800 0036 C7F80432 		str	r3, [r7, #516]
 2801 003a D7F80C32 		ldr	r3, [r7, #524]
 2802 003e 9B6A     		ldr	r3, [r3, #40]
 2803 0040 C7F80832 		str	r3, [r7, #520]
 374:Lib/AI_Runtime/Npu/ll_aton/ll_sw_float.c ****                        sw_info->general.input.mem.start_offset, sw_info->general.input.dim.num_elem
 375:Lib/AI_Runtime/Npu/ll_aton/ll_sw_float.c ****   AI_ARRAY_OBJ_DECLARE(activ_output_array, FORMAT, sw_info->general.output.mem.start_offset,
 2804              		.loc 1 375 3
 2805 0044 D64B     		ldr	r3, .L96
 2806 0046 C7F8EC31 		str	r3, [r7, #492]
 2807 004a D7F80C32 		ldr	r3, [r7, #524]
 2808 004e 1B6C     		ldr	r3, [r3, #64]
 2809 0050 C7F8F031 		str	r3, [r7, #496]
 2810 0054 D7F80C32 		ldr	r3, [r7, #524]
 2811 0058 5B6D     		ldr	r3, [r3, #84]
 2812 005a C7F8F431 		str	r3, [r7, #500]
 2813 005e D7F80C32 		ldr	r3, [r7, #524]
 2814 0062 5B6D     		ldr	r3, [r3, #84]
 2815 0064 C7F8F831 		str	r3, [r7, #504]
 376:Lib/AI_Runtime/Npu/ll_aton/ll_sw_float.c ****                        sw_info->general.output.mem.start_offset, sw_info->general.output.dim.num_el
 377:Lib/AI_Runtime/Npu/ll_aton/ll_sw_float.c ****   // tensors init
 378:Lib/AI_Runtime/Npu/ll_aton/ll_sw_float.c ****   AI_TENSOR_OBJ_DECLARE(input_output, , 0x0, 4,
 2816              		.loc 1 378 3
 2817 0068 0023     		movs	r3, #0
 2818 006a C7F8D031 		str	r3, [r7, #464]
 2819 006e 0023     		movs	r3, #0
 2820 0070 A7F8D431 		strh	r3, [r7, #468]	@ movhi
ARM GAS  /tmp/ccEo7NLA.s 			page 63


 2821 0074 0423     		movs	r3, #4
 2822 0076 87F8D631 		strb	r3, [r7, #470]
 2823 007a 0123     		movs	r3, #1
 2824 007c 87F8D731 		strb	r3, [r7, #471]
 2825 0080 0123     		movs	r3, #1
 2826 0082 87F8D831 		strb	r3, [r7, #472]
 2827 0086 D7F8D831 		ldr	r3, [r7, #472]
 2828 008a 0422     		movs	r2, #4
 2829 008c 62F31F23 		bfi	r3, r2, #8, #24
 2830 0090 C7F8D831 		str	r3, [r7, #472]
 2831 0094 D7F80C32 		ldr	r3, [r7, #524]
 2832 0098 1B69     		ldr	r3, [r3, #16]
 2833 009a C7F8C031 		str	r3, [r7, #448]
 2834 009e D7F80C32 		ldr	r3, [r7, #524]
 2835 00a2 DB68     		ldr	r3, [r3, #12]
 2836 00a4 C7F8C431 		str	r3, [r7, #452]
 2837 00a8 D7F80C32 		ldr	r3, [r7, #524]
 2838 00ac 9B68     		ldr	r3, [r3, #8]
 2839 00ae C7F8C831 		str	r3, [r7, #456]
 2840 00b2 D7F80C32 		ldr	r3, [r7, #524]
 2841 00b6 5B68     		ldr	r3, [r3, #4]
 2842 00b8 C7F8CC31 		str	r3, [r7, #460]
 2843 00bc 07F5E073 		add	r3, r7, #448
 2844 00c0 C7F8DC31 		str	r3, [r7, #476]
 2845 00c4 0223     		movs	r3, #2
 2846 00c6 87F8E031 		strb	r3, [r7, #480]
 2847 00ca D7F8E031 		ldr	r3, [r7, #480]
 2848 00ce 0422     		movs	r2, #4
 2849 00d0 62F31F23 		bfi	r3, r2, #8, #24
 2850 00d4 C7F8E031 		str	r3, [r7, #480]
 2851 00d8 D7F80C32 		ldr	r3, [r7, #524]
 2852 00dc 5B6A     		ldr	r3, [r3, #36]
 2853 00de C7F8B031 		str	r3, [r7, #432]
 2854 00e2 D7F80C32 		ldr	r3, [r7, #524]
 2855 00e6 1B6A     		ldr	r3, [r3, #32]
 2856 00e8 C7F8B431 		str	r3, [r7, #436]
 2857 00ec D7F80C32 		ldr	r3, [r7, #524]
 2858 00f0 DB69     		ldr	r3, [r3, #28]
 2859 00f2 C7F8B831 		str	r3, [r7, #440]
 2860 00f6 D7F80C32 		ldr	r3, [r7, #524]
 2861 00fa 9B69     		ldr	r3, [r3, #24]
 2862 00fc C7F8BC31 		str	r3, [r7, #444]
 2863 0100 07F5D873 		add	r3, r7, #432
 2864 0104 C7F8E431 		str	r3, [r7, #484]
 2865 0108 07F5FE73 		add	r3, r7, #508
 2866 010c C7F8E831 		str	r3, [r7, #488]
 379:Lib/AI_Runtime/Npu/ll_aton/ll_sw_float.c ****                         SHAPE_INIT(sw_info->general.input.dim.tensor_h, sw_info->general.input.dim.
 380:Lib/AI_Runtime/Npu/ll_aton/ll_sw_float.c ****                                    sw_info->general.input.dim.tensor_c, sw_info->general.input.dim.
 381:Lib/AI_Runtime/Npu/ll_aton/ll_sw_float.c ****                         STRIDE_INIT(sw_info->general.input.stride.h, sw_info->general.input.stride.
 382:Lib/AI_Runtime/Npu/ll_aton/ll_sw_float.c ****                                     sw_info->general.input.stride.c, sw_info->general.input.stride.
 383:Lib/AI_Runtime/Npu/ll_aton/ll_sw_float.c ****                         1, &input_output_array, NULL)
 384:Lib/AI_Runtime/Npu/ll_aton/ll_sw_float.c ****   AI_TENSOR_OBJ_DECLARE(activ_output, , 0x0, 4,
 2867              		.loc 1 384 3
 2868 0110 0023     		movs	r3, #0
 2869 0112 C7F89431 		str	r3, [r7, #404]
 2870 0116 0023     		movs	r3, #0
 2871 0118 A7F89831 		strh	r3, [r7, #408]	@ movhi
ARM GAS  /tmp/ccEo7NLA.s 			page 64


 2872 011c 0423     		movs	r3, #4
 2873 011e 87F89A31 		strb	r3, [r7, #410]
 2874 0122 0123     		movs	r3, #1
 2875 0124 87F89B31 		strb	r3, [r7, #411]
 2876 0128 0123     		movs	r3, #1
 2877 012a 87F89C31 		strb	r3, [r7, #412]
 2878 012e D7F89C31 		ldr	r3, [r7, #412]
 2879 0132 0422     		movs	r2, #4
 2880 0134 62F31F23 		bfi	r3, r2, #8, #24
 2881 0138 C7F89C31 		str	r3, [r7, #412]
 2882 013c D7F80C32 		ldr	r3, [r7, #524]
 2883 0140 DB6B     		ldr	r3, [r3, #60]
 2884 0142 C7F88431 		str	r3, [r7, #388]
 2885 0146 D7F80C32 		ldr	r3, [r7, #524]
 2886 014a 9B6B     		ldr	r3, [r3, #56]
 2887 014c C7F88831 		str	r3, [r7, #392]
 2888 0150 D7F80C32 		ldr	r3, [r7, #524]
 2889 0154 5B6B     		ldr	r3, [r3, #52]
 2890 0156 C7F88C31 		str	r3, [r7, #396]
 2891 015a D7F80C32 		ldr	r3, [r7, #524]
 2892 015e 1B6B     		ldr	r3, [r3, #48]
 2893 0160 C7F89031 		str	r3, [r7, #400]
 2894 0164 07F5C273 		add	r3, r7, #388
 2895 0168 C7F8A031 		str	r3, [r7, #416]
 2896 016c 0223     		movs	r3, #2
 2897 016e 87F8A431 		strb	r3, [r7, #420]
 2898 0172 D7F8A431 		ldr	r3, [r7, #420]
 2899 0176 0422     		movs	r2, #4
 2900 0178 62F31F23 		bfi	r3, r2, #8, #24
 2901 017c C7F8A431 		str	r3, [r7, #420]
 2902 0180 D7F80C32 		ldr	r3, [r7, #524]
 2903 0184 1B6D     		ldr	r3, [r3, #80]
 2904 0186 C7F87431 		str	r3, [r7, #372]
 2905 018a D7F80C32 		ldr	r3, [r7, #524]
 2906 018e DB6C     		ldr	r3, [r3, #76]
 2907 0190 C7F87831 		str	r3, [r7, #376]
 2908 0194 D7F80C32 		ldr	r3, [r7, #524]
 2909 0198 9B6C     		ldr	r3, [r3, #72]
 2910 019a C7F87C31 		str	r3, [r7, #380]
 2911 019e D7F80C32 		ldr	r3, [r7, #524]
 2912 01a2 5B6C     		ldr	r3, [r3, #68]
 2913 01a4 C7F88031 		str	r3, [r7, #384]
 2914 01a8 07F5BA73 		add	r3, r7, #372
 2915 01ac C7F8A831 		str	r3, [r7, #424]
 2916 01b0 07F5F673 		add	r3, r7, #492
 2917 01b4 C7F8AC31 		str	r3, [r7, #428]
 385:Lib/AI_Runtime/Npu/ll_aton/ll_sw_float.c ****                         SHAPE_INIT(sw_info->general.output.dim.tensor_h, sw_info->general.output.di
 386:Lib/AI_Runtime/Npu/ll_aton/ll_sw_float.c ****                                    sw_info->general.output.dim.tensor_c, sw_info->general.output.di
 387:Lib/AI_Runtime/Npu/ll_aton/ll_sw_float.c ****                         STRIDE_INIT(sw_info->general.output.stride.h, sw_info->general.output.strid
 388:Lib/AI_Runtime/Npu/ll_aton/ll_sw_float.c ****                                     sw_info->general.output.stride.c, sw_info->general.output.strid
 389:Lib/AI_Runtime/Npu/ll_aton/ll_sw_float.c ****                         1, &activ_output_array, NULL)
 390:Lib/AI_Runtime/Npu/ll_aton/ll_sw_float.c ****   // tensor chains init
 391:Lib/AI_Runtime/Npu/ll_aton/ll_sw_float.c ****   AI_TENSOR_CHAIN_OBJ_DECLARE(activ_chain, , 4, AI_TENSOR_LIST_OBJ_INIT(AI_FLAG_NONE, 1, TENSORS(&i
 2918              		.loc 1 391 3
 2919 01b8 0423     		movs	r3, #4
 2920 01ba A7F86C31 		strh	r3, [r7, #364]	@ movhi
 2921 01be 0023     		movs	r3, #0
ARM GAS  /tmp/ccEo7NLA.s 			page 65


 2922 01c0 A7F86E31 		strh	r3, [r7, #366]	@ movhi
 2923 01c4 0123     		movs	r3, #1
 2924 01c6 A7F82C31 		strh	r3, [r7, #300]	@ movhi
 2925 01ca 0023     		movs	r3, #0
 2926 01cc A7F82E31 		strh	r3, [r7, #302]	@ movhi
 2927 01d0 07F5E873 		add	r3, r7, #464
 2928 01d4 C7F86831 		str	r3, [r7, #360]
 2929 01d8 07F5B473 		add	r3, r7, #360
 2930 01dc C7F83031 		str	r3, [r7, #304]
 2931 01e0 0023     		movs	r3, #0
 2932 01e2 C7F83431 		str	r3, [r7, #308]
 2933 01e6 0123     		movs	r3, #1
 2934 01e8 A7F83831 		strh	r3, [r7, #312]	@ movhi
 2935 01ec 0023     		movs	r3, #0
 2936 01ee A7F83A31 		strh	r3, [r7, #314]	@ movhi
 2937 01f2 07F5CA73 		add	r3, r7, #404
 2938 01f6 C7F86431 		str	r3, [r7, #356]
 2939 01fa 07F5B273 		add	r3, r7, #356
 2940 01fe C7F83C31 		str	r3, [r7, #316]
 2941 0202 0023     		movs	r3, #0
 2942 0204 C7F84031 		str	r3, [r7, #320]
 2943 0208 0023     		movs	r3, #0
 2944 020a A7F84431 		strh	r3, [r7, #324]	@ movhi
 2945 020e 0023     		movs	r3, #0
 2946 0210 A7F84631 		strh	r3, [r7, #326]	@ movhi
 2947 0214 0023     		movs	r3, #0
 2948 0216 C7F86031 		str	r3, [r7, #352]
 2949 021a 07F5B073 		add	r3, r7, #352
 2950 021e C7F84831 		str	r3, [r7, #328]
 2951 0222 0023     		movs	r3, #0
 2952 0224 C7F84C31 		str	r3, [r7, #332]
 2953 0228 0023     		movs	r3, #0
 2954 022a A7F85031 		strh	r3, [r7, #336]	@ movhi
 2955 022e 0023     		movs	r3, #0
 2956 0230 A7F85231 		strh	r3, [r7, #338]	@ movhi
 2957 0234 0023     		movs	r3, #0
 2958 0236 C7F85C31 		str	r3, [r7, #348]
 2959 023a 07F5AE73 		add	r3, r7, #348
 2960 023e C7F85431 		str	r3, [r7, #340]
 2961 0242 0023     		movs	r3, #0
 2962 0244 C7F85831 		str	r3, [r7, #344]
 2963 0248 07F59673 		add	r3, r7, #300
 2964 024c C7F87031 		str	r3, [r7, #368]
 392:Lib/AI_Runtime/Npu/ll_aton/ll_sw_float.c ****                               AI_TENSOR_LIST_OBJ_INIT(AI_FLAG_NONE, 1, TENSORS(&activ_output)),
 393:Lib/AI_Runtime/Npu/ll_aton/ll_sw_float.c ****                               AI_TENSOR_LIST_OBJ_EMPTY, AI_TENSOR_LIST_OBJ_EMPTY)
 394:Lib/AI_Runtime/Npu/ll_aton/ll_sw_float.c **** 
 395:Lib/AI_Runtime/Npu/ll_aton/ll_sw_float.c ****   // layer initialization
 396:Lib/AI_Runtime/Npu/ll_aton/ll_sw_float.c ****   switch (sw_info->general.type)
 2965              		.loc 1 396 27
 2966 0250 D7F80C32 		ldr	r3, [r7, #524]
 2967 0254 1B78     		ldrb	r3, [r3]	@ zero_extendqisi2
 2968              		.loc 1 396 3
 2969 0256 013B     		subs	r3, r3, #1
 2970 0258 4E2B     		cmp	r3, #78
 2971 025a 01F2FF83 		bhi	.L95
 2972 025e 01A2     		adr	r2, .L59
 2973 0260 52F823F0 		ldr	pc, [r2, r3, lsl #2]
ARM GAS  /tmp/ccEo7NLA.s 			page 66


 2974              		.p2align 2
 2975              	.L59:
 2976 0264 A5030000 		.word	.L93+1
 2977 0268 F1040000 		.word	.L92+1
 2978 026c CD080000 		.word	.L91+1
 2979 0270 01080000 		.word	.L90+1
 2980 0274 99090000 		.word	.L89+1
 2981 0278 5D1A0000 		.word	.L95+1
 2982 027c 5D1A0000 		.word	.L95+1
 2983 0280 5D1A0000 		.word	.L95+1
 2984 0284 5D1A0000 		.word	.L95+1
 2985 0288 5D1A0000 		.word	.L95+1
 2986 028c 5D1A0000 		.word	.L95+1
 2987 0290 5D1A0000 		.word	.L95+1
 2988 0294 5D1A0000 		.word	.L95+1
 2989 0298 5D1A0000 		.word	.L95+1
 2990 029c 5D1A0000 		.word	.L95+1
 2991 02a0 5D1A0000 		.word	.L95+1
 2992 02a4 5D1A0000 		.word	.L95+1
 2993 02a8 5D1A0000 		.word	.L95+1
 2994 02ac 5D1A0000 		.word	.L95+1
 2995 02b0 21130000 		.word	.L88+1
 2996 02b4 D90E0000 		.word	.L87+1
 2997 02b8 5F0F0000 		.word	.L86+1
 2998 02bc A30C0000 		.word	.L85+1
 2999 02c0 290D0000 		.word	.L84+1
 3000 02c4 AF0D0000 		.word	.L83+1
 3001 02c8 350E0000 		.word	.L82+1
 3002 02cc 9D120000 		.word	.L81+1
 3003 02d0 FD110000 		.word	.L80+1
 3004 02d4 E50F0000 		.word	.L79+1
 3005 02d8 6B100000 		.word	.L78+1
 3006 02dc F1100000 		.word	.L77+1
 3007 02e0 77110000 		.word	.L76+1
 3008 02e4 A5130000 		.word	.L75+1
 3009 02e8 770A0000 		.word	.L74+1
 3010 02ec 5D1A0000 		.word	.L95+1
 3011 02f0 110B0000 		.word	.L73+1
 3012 02f4 970B0000 		.word	.L72+1
 3013 02f8 1D0C0000 		.word	.L71+1
 3014 02fc 5D1A0000 		.word	.L95+1
 3015 0300 5D1A0000 		.word	.L95+1
 3016 0304 5D1A0000 		.word	.L95+1
 3017 0308 5D1A0000 		.word	.L95+1
 3018 030c 5D1A0000 		.word	.L95+1
 3019 0310 5D1A0000 		.word	.L95+1
 3020 0314 5D1A0000 		.word	.L95+1
 3021 0318 29140000 		.word	.L70+1
 3022 031c 5D1A0000 		.word	.L95+1
 3023 0320 5D1A0000 		.word	.L95+1
 3024 0324 5D1A0000 		.word	.L95+1
 3025 0328 5D1A0000 		.word	.L95+1
 3026 032c 5D1A0000 		.word	.L95+1
 3027 0330 5D1A0000 		.word	.L95+1
 3028 0334 5D1A0000 		.word	.L95+1
 3029 0338 5D1A0000 		.word	.L95+1
 3030 033c 5D1A0000 		.word	.L95+1
ARM GAS  /tmp/ccEo7NLA.s 			page 67


 3031 0340 2B040000 		.word	.L69+1
 3032 0344 CD150000 		.word	.L68+1
 3033 0348 B1170000 		.word	.L67+1
 3034 034c 2D170000 		.word	.L66+1
 3035 0350 A9160000 		.word	.L65+1
 3036 0354 35180000 		.word	.L64+1
 3037 0358 5D1A0000 		.word	.L95+1
 3038 035c 5D1A0000 		.word	.L95+1
 3039 0360 5D1A0000 		.word	.L95+1
 3040 0364 5D1A0000 		.word	.L95+1
 3041 0368 5D1A0000 		.word	.L95+1
 3042 036c 5D1A0000 		.word	.L95+1
 3043 0370 31150000 		.word	.L63+1
 3044 0374 AD140000 		.word	.L62+1
 3045 0378 5D1A0000 		.word	.L95+1
 3046 037c 5D1A0000 		.word	.L95+1
 3047 0380 5D1A0000 		.word	.L95+1
 3048 0384 5D1A0000 		.word	.L95+1
 3049 0388 5D1A0000 		.word	.L95+1
 3050 038c 5D1A0000 		.word	.L95+1
 3051 0390 D1180000 		.word	.L61+1
 3052 0394 55190000 		.word	.L60+1
 3053 0398 5D1A0000 		.word	.L95+1
 3054 039c D9190000 		.word	.L58+1
 3055              		.p2align 1
 3056              	.L97:
 3057              		.align	2
 3058              	.L96:
 3059 03a0 40108200 		.word	8523840
 3060              	.L93:
 3061              	.LBB7:
 397:Lib/AI_Runtime/Npu/ll_aton/ll_sw_float.c ****   {
 398:Lib/AI_Runtime/Npu/ll_aton/ll_sw_float.c ****   case LL_SW_RELU:
 399:Lib/AI_Runtime/Npu/ll_aton/ll_sw_float.c ****   {
 400:Lib/AI_Runtime/Npu/ll_aton/ll_sw_float.c ****     AI_LAYER_OBJ_DECLARE(nonlinearity_layer, 2, NL_TYPE, 0x0, NULL, nl, forward_relu, &activ_chain,
 3062              		.loc 1 400 5
 3063 03a4 07F50473 		add	r3, r7, #528
 3064 03a8 A3F5F473 		sub	r3, r3, #488
 3065 03ac 40F20712 		movw	r2, #263
 3066 03b0 1A80     		strh	r2, [r3]	@ movhi
 3067 03b2 07F50473 		add	r3, r7, #528
 3068 03b6 A3F5F473 		sub	r3, r3, #488
 3069 03ba 0222     		movs	r2, #2
 3070 03bc 5A80     		strh	r2, [r3, #2]	@ movhi
 3071 03be 07F50473 		add	r3, r7, #528
 3072 03c2 A3F5F473 		sub	r3, r3, #488
 3073 03c6 0022     		movs	r2, #0
 3074 03c8 5A60     		str	r2, [r3, #4]
 3075 03ca 07F50473 		add	r3, r7, #528
 3076 03ce A3F5F473 		sub	r3, r3, #488
 3077 03d2 0022     		movs	r2, #0
 3078 03d4 9A60     		str	r2, [r3, #8]
 3079 03d6 07F50473 		add	r3, r7, #528
 3080 03da A3F5F473 		sub	r3, r3, #488
 3081 03de 0022     		movs	r2, #0
 3082 03e0 DA60     		str	r2, [r3, #12]
 3083 03e2 07F50473 		add	r3, r7, #528
ARM GAS  /tmp/ccEo7NLA.s 			page 68


 3084 03e6 A3F5F473 		sub	r3, r3, #488
 3085 03ea 0022     		movs	r2, #0
 3086 03ec 1A61     		str	r2, [r3, #16]
 3087 03ee 07F50473 		add	r3, r7, #528
 3088 03f2 A3F5F473 		sub	r3, r3, #488
 3089 03f6 3B4A     		ldr	r2, .L98
 3090 03f8 5A61     		str	r2, [r3, #20]
 3091 03fa 07F50473 		add	r3, r7, #528
 3092 03fe A3F5F473 		sub	r3, r3, #488
 3093 0402 07F5B672 		add	r2, r7, #364
 3094 0406 9A61     		str	r2, [r3, #24]
 3095 0408 07F50473 		add	r3, r7, #528
 3096 040c A3F5F473 		sub	r3, r3, #488
 3097 0410 0022     		movs	r2, #0
 3098 0412 DA61     		str	r2, [r3, #28]
 401:Lib/AI_Runtime/Npu/ll_aton/ll_sw_float.c ****                          .nl_params = NULL, )
 402:Lib/AI_Runtime/Npu/ll_aton/ll_sw_float.c ****     nonlinearity_layer.forward(AI_LAYER_OBJ(&nonlinearity_layer));
 3099              		.loc 1 402 23
 3100 0414 07F50473 		add	r3, r7, #528
 3101 0418 A3F5F473 		sub	r3, r3, #488
 3102 041c 5B69     		ldr	r3, [r3, #20]
 3103              		.loc 1 402 5
 3104 041e 07F12802 		add	r2, r7, #40
 3105 0422 1046     		mov	r0, r2
 3106 0424 9847     		blx	r3
 3107              	.LVL7:
 3108              	.LBE7:
 403:Lib/AI_Runtime/Npu/ll_aton/ll_sw_float.c ****   }
 404:Lib/AI_Runtime/Npu/ll_aton/ll_sw_float.c ****   break;
 3109              		.loc 1 404 3
 3110 0426 01F01ABB 		b	.L94
 3111              	.L69:
 3112              	.LBB8:
 405:Lib/AI_Runtime/Npu/ll_aton/ll_sw_float.c ****   case LL_SW_CLIP:
 406:Lib/AI_Runtime/Npu/ll_aton/ll_sw_float.c ****   {
 407:Lib/AI_Runtime/Npu/ll_aton/ll_sw_float.c ****     AI_ARRAY_OBJ_DECLARE_STATIC(clip_layer_params, ai_float, AI_ARRAY_FORMAT_FLOAT, AI_CONST, 2, sw
 3113              		.loc 1 407 5
 3114 042a 2F4B     		ldr	r3, .L98+4
 3115 042c C7F81C31 		str	r3, [r7, #284]
 3116 0430 0223     		movs	r3, #2
 3117 0432 C7F82031 		str	r3, [r7, #288]
 3118 0436 D7F80C32 		ldr	r3, [r7, #524]
 3119 043a D3F89430 		ldr	r3, [r3, #148]	@ float
 3120 043e C7F81431 		str	r3, [r7, #276]	@ float
 3121 0442 D7F80C32 		ldr	r3, [r7, #524]
 3122 0446 D3F89830 		ldr	r3, [r3, #152]	@ float
 3123 044a C7F81831 		str	r3, [r7, #280]	@ float
 3124 044e 07F58A73 		add	r3, r7, #276
 3125 0452 C7F82431 		str	r3, [r7, #292]
 3126 0456 0023     		movs	r3, #0
 3127 0458 C7F82831 		str	r3, [r7, #296]
 408:Lib/AI_Runtime/Npu/ll_aton/ll_sw_float.c ****                                 sw_info->max)
 409:Lib/AI_Runtime/Npu/ll_aton/ll_sw_float.c ****     AI_LAYER_OBJ_DECLARE(nonlinearity_layer, 2, NL_TYPE, 0x0, NULL, nl, forward_clip, &activ_chain,
 3128              		.loc 1 409 5
 3129 045c 07F50473 		add	r3, r7, #528
 3130 0460 A3F5F473 		sub	r3, r3, #488
 3131 0464 40F20712 		movw	r2, #263
ARM GAS  /tmp/ccEo7NLA.s 			page 69


 3132 0468 1A80     		strh	r2, [r3]	@ movhi
 3133 046a 07F50473 		add	r3, r7, #528
 3134 046e A3F5F473 		sub	r3, r3, #488
 3135 0472 0222     		movs	r2, #2
 3136 0474 5A80     		strh	r2, [r3, #2]	@ movhi
 3137 0476 07F50473 		add	r3, r7, #528
 3138 047a A3F5F473 		sub	r3, r3, #488
 3139 047e 0022     		movs	r2, #0
 3140 0480 5A60     		str	r2, [r3, #4]
 3141 0482 07F50473 		add	r3, r7, #528
 3142 0486 A3F5F473 		sub	r3, r3, #488
 3143 048a 0022     		movs	r2, #0
 3144 048c 9A60     		str	r2, [r3, #8]
 3145 048e 07F50473 		add	r3, r7, #528
 3146 0492 A3F5F473 		sub	r3, r3, #488
 3147 0496 0022     		movs	r2, #0
 3148 0498 DA60     		str	r2, [r3, #12]
 3149 049a 07F50473 		add	r3, r7, #528
 3150 049e A3F5F473 		sub	r3, r3, #488
 3151 04a2 0022     		movs	r2, #0
 3152 04a4 1A61     		str	r2, [r3, #16]
 3153 04a6 07F50473 		add	r3, r7, #528
 3154 04aa A3F5F473 		sub	r3, r3, #488
 3155 04ae 0F4A     		ldr	r2, .L98+8
 3156 04b0 5A61     		str	r2, [r3, #20]
 3157 04b2 07F50473 		add	r3, r7, #528
 3158 04b6 A3F5F473 		sub	r3, r3, #488
 3159 04ba 07F5B672 		add	r2, r7, #364
 3160 04be 9A61     		str	r2, [r3, #24]
 3161 04c0 07F50473 		add	r3, r7, #528
 3162 04c4 A3F5F473 		sub	r3, r3, #488
 3163 04c8 07F58E72 		add	r2, r7, #284
 3164 04cc DA61     		str	r2, [r3, #28]
 410:Lib/AI_Runtime/Npu/ll_aton/ll_sw_float.c ****                          .nl_params = AI_ARRAY_OBJ(&clip_layer_params))
 411:Lib/AI_Runtime/Npu/ll_aton/ll_sw_float.c ****     nonlinearity_layer.forward(AI_LAYER_OBJ(&nonlinearity_layer));
 3165              		.loc 1 411 23
 3166 04ce 07F50473 		add	r3, r7, #528
 3167 04d2 A3F5F473 		sub	r3, r3, #488
 3168 04d6 5B69     		ldr	r3, [r3, #20]
 3169              		.loc 1 411 5
 3170 04d8 07F12802 		add	r2, r7, #40
 3171 04dc 1046     		mov	r0, r2
 3172 04de 9847     		blx	r3
 3173              	.LVL8:
 3174              	.LBE8:
 412:Lib/AI_Runtime/Npu/ll_aton/ll_sw_float.c ****   }
 413:Lib/AI_Runtime/Npu/ll_aton/ll_sw_float.c ****   break;
 3175              		.loc 1 413 3
 3176 04e0 01F0BDBA 		b	.L94
 3177              	.L99:
 3178              		.align	2
 3179              	.L98:
 3180 04e4 00000000 		.word	forward_relu
 3181 04e8 40108200 		.word	8523840
 3182 04ec 00000000 		.word	forward_clip
 3183              	.L92:
 3184              	.LBB9:
ARM GAS  /tmp/ccEo7NLA.s 			page 70


 414:Lib/AI_Runtime/Npu/ll_aton/ll_sw_float.c ****   case LL_SW_PRELU:
 415:Lib/AI_Runtime/Npu/ll_aton/ll_sw_float.c ****   {
 416:Lib/AI_Runtime/Npu/ll_aton/ll_sw_float.c ****     AI_ARRAY_OBJ_DECLARE(activ_operand_array, FORMAT, sw_info->operand.mem.start_offset,
 3185              		.loc 1 416 5
 3186 04f0 07F50473 		add	r3, r7, #528
 3187 04f4 A3F58673 		sub	r3, r3, #268
 3188 04f8 BF4A     		ldr	r2, .L100
 3189 04fa 1A60     		str	r2, [r3]
 3190 04fc D7F80C32 		ldr	r3, [r7, #524]
 3191 0500 DA6E     		ldr	r2, [r3, #108]
 3192 0502 07F50473 		add	r3, r7, #528
 3193 0506 A3F58673 		sub	r3, r3, #268
 3194 050a 5A60     		str	r2, [r3, #4]
 3195 050c D7F80C32 		ldr	r3, [r7, #524]
 3196 0510 D3F88020 		ldr	r2, [r3, #128]
 3197 0514 07F50473 		add	r3, r7, #528
 3198 0518 A3F58673 		sub	r3, r3, #268
 3199 051c 9A60     		str	r2, [r3, #8]
 3200 051e D7F80C32 		ldr	r3, [r7, #524]
 3201 0522 D3F88020 		ldr	r2, [r3, #128]
 3202 0526 07F50473 		add	r3, r7, #528
 3203 052a A3F58673 		sub	r3, r3, #268
 3204 052e DA60     		str	r2, [r3, #12]
 417:Lib/AI_Runtime/Npu/ll_aton/ll_sw_float.c ****                          sw_info->operand.mem.start_offset, sw_info->operand.dim.num_elem, )
 418:Lib/AI_Runtime/Npu/ll_aton/ll_sw_float.c **** 
 419:Lib/AI_Runtime/Npu/ll_aton/ll_sw_float.c ****     AI_TENSOR_OBJ_DECLARE(activ_operand, , 0x0, 4,
 3205              		.loc 1 419 5
 3206 0530 07F50473 		add	r3, r7, #528
 3207 0534 A3F59473 		sub	r3, r3, #296
 3208 0538 0022     		movs	r2, #0
 3209 053a 1A60     		str	r2, [r3]
 3210 053c 07F50473 		add	r3, r7, #528
 3211 0540 A3F59473 		sub	r3, r3, #296
 3212 0544 0022     		movs	r2, #0
 3213 0546 9A80     		strh	r2, [r3, #4]	@ movhi
 3214 0548 07F50473 		add	r3, r7, #528
 3215 054c A3F59473 		sub	r3, r3, #296
 3216 0550 0422     		movs	r2, #4
 3217 0552 9A71     		strb	r2, [r3, #6]
 3218 0554 07F50473 		add	r3, r7, #528
 3219 0558 A3F59473 		sub	r3, r3, #296
 3220 055c 0122     		movs	r2, #1
 3221 055e DA71     		strb	r2, [r3, #7]
 3222 0560 07F50473 		add	r3, r7, #528
 3223 0564 A3F59473 		sub	r3, r3, #296
 3224 0568 0122     		movs	r2, #1
 3225 056a 1A72     		strb	r2, [r3, #8]
 3226 056c 07F50473 		add	r3, r7, #528
 3227 0570 A3F59472 		sub	r2, r3, #296
 3228 0574 9368     		ldr	r3, [r2, #8]
 3229 0576 0421     		movs	r1, #4
 3230 0578 61F31F23 		bfi	r3, r1, #8, #24
 3231 057c 9360     		str	r3, [r2, #8]
 3232 057e D7F80C32 		ldr	r3, [r7, #524]
 3233 0582 9A6E     		ldr	r2, [r3, #104]
 3234 0584 07F50473 		add	r3, r7, #528
 3235 0588 A3F59C73 		sub	r3, r3, #312
ARM GAS  /tmp/ccEo7NLA.s 			page 71


 3236 058c 1A60     		str	r2, [r3]
 3237 058e D7F80C32 		ldr	r3, [r7, #524]
 3238 0592 5A6E     		ldr	r2, [r3, #100]
 3239 0594 07F50473 		add	r3, r7, #528
 3240 0598 A3F59C73 		sub	r3, r3, #312
 3241 059c 5A60     		str	r2, [r3, #4]
 3242 059e D7F80C32 		ldr	r3, [r7, #524]
 3243 05a2 1A6E     		ldr	r2, [r3, #96]
 3244 05a4 07F50473 		add	r3, r7, #528
 3245 05a8 A3F59C73 		sub	r3, r3, #312
 3246 05ac 9A60     		str	r2, [r3, #8]
 3247 05ae D7F80C32 		ldr	r3, [r7, #524]
 3248 05b2 DA6D     		ldr	r2, [r3, #92]
 3249 05b4 07F50473 		add	r3, r7, #528
 3250 05b8 A3F59C73 		sub	r3, r3, #312
 3251 05bc DA60     		str	r2, [r3, #12]
 3252 05be 07F50473 		add	r3, r7, #528
 3253 05c2 A3F59473 		sub	r3, r3, #296
 3254 05c6 07F1D802 		add	r2, r7, #216
 3255 05ca DA60     		str	r2, [r3, #12]
 3256 05cc 07F50473 		add	r3, r7, #528
 3257 05d0 A3F59473 		sub	r3, r3, #296
 3258 05d4 0222     		movs	r2, #2
 3259 05d6 1A74     		strb	r2, [r3, #16]
 3260 05d8 07F50473 		add	r3, r7, #528
 3261 05dc A3F59472 		sub	r2, r3, #296
 3262 05e0 1369     		ldr	r3, [r2, #16]
 3263 05e2 0421     		movs	r1, #4
 3264 05e4 61F31F23 		bfi	r3, r1, #8, #24
 3265 05e8 1361     		str	r3, [r2, #16]
 3266 05ea D7F80C32 		ldr	r3, [r7, #524]
 3267 05ee DB6F     		ldr	r3, [r3, #124]
 3268 05f0 1A46     		mov	r2, r3
 3269 05f2 07F50473 		add	r3, r7, #528
 3270 05f6 A3F5A473 		sub	r3, r3, #328
 3271 05fa 1A60     		str	r2, [r3]
 3272 05fc D7F80C32 		ldr	r3, [r7, #524]
 3273 0600 9B6F     		ldr	r3, [r3, #120]
 3274 0602 1A46     		mov	r2, r3
 3275 0604 07F50473 		add	r3, r7, #528
 3276 0608 A3F5A473 		sub	r3, r3, #328
 3277 060c 5A60     		str	r2, [r3, #4]
 3278 060e D7F80C32 		ldr	r3, [r7, #524]
 3279 0612 5B6F     		ldr	r3, [r3, #116]
 3280 0614 1A46     		mov	r2, r3
 3281 0616 07F50473 		add	r3, r7, #528
 3282 061a A3F5A473 		sub	r3, r3, #328
 3283 061e 9A60     		str	r2, [r3, #8]
 3284 0620 D7F80C32 		ldr	r3, [r7, #524]
 3285 0624 1B6F     		ldr	r3, [r3, #112]
 3286 0626 1A46     		mov	r2, r3
 3287 0628 07F50473 		add	r3, r7, #528
 3288 062c A3F5A473 		sub	r3, r3, #328
 3289 0630 DA60     		str	r2, [r3, #12]
 3290 0632 07F50473 		add	r3, r7, #528
 3291 0636 A3F59473 		sub	r3, r3, #296
 3292 063a 07F1C802 		add	r2, r7, #200
ARM GAS  /tmp/ccEo7NLA.s 			page 72


 3293 063e 5A61     		str	r2, [r3, #20]
 3294 0640 07F50473 		add	r3, r7, #528
 3295 0644 A3F59473 		sub	r3, r3, #296
 3296 0648 07F58272 		add	r2, r7, #260
 3297 064c 9A61     		str	r2, [r3, #24]
 420:Lib/AI_Runtime/Npu/ll_aton/ll_sw_float.c ****                           SHAPE_INIT(sw_info->operand.dim.tensor_h, sw_info->operand.dim.tensor_w,
 421:Lib/AI_Runtime/Npu/ll_aton/ll_sw_float.c ****                                      sw_info->operand.dim.tensor_c, sw_info->operand.dim.tensor_b),
 422:Lib/AI_Runtime/Npu/ll_aton/ll_sw_float.c ****                           STRIDE_INIT(sw_info->operand.stride.h, sw_info->operand.stride.w, sw_info
 423:Lib/AI_Runtime/Npu/ll_aton/ll_sw_float.c ****                                       sw_info->operand.stride.b),
 424:Lib/AI_Runtime/Npu/ll_aton/ll_sw_float.c ****                           1, &activ_operand_array, NULL)
 425:Lib/AI_Runtime/Npu/ll_aton/ll_sw_float.c **** 
 426:Lib/AI_Runtime/Npu/ll_aton/ll_sw_float.c ****     // tensor chains init
 427:Lib/AI_Runtime/Npu/ll_aton/ll_sw_float.c ****     AI_TENSOR_CHAIN_OBJ_DECLARE(
 3298              		.loc 1 427 5
 3299 064e 07F50473 		add	r3, r7, #528
 3300 0652 A3F5A873 		sub	r3, r3, #336
 3301 0656 0422     		movs	r2, #4
 3302 0658 1A80     		strh	r2, [r3]	@ movhi
 3303 065a 07F50473 		add	r3, r7, #528
 3304 065e A3F5A873 		sub	r3, r3, #336
 3305 0662 0022     		movs	r2, #0
 3306 0664 5A80     		strh	r2, [r3, #2]	@ movhi
 3307 0666 07F50473 		add	r3, r7, #528
 3308 066a A3F5F473 		sub	r3, r3, #488
 3309 066e 0122     		movs	r2, #1
 3310 0670 1A80     		strh	r2, [r3]	@ movhi
 3311 0672 07F50473 		add	r3, r7, #528
 3312 0676 A3F5F473 		sub	r3, r3, #488
 3313 067a 0022     		movs	r2, #0
 3314 067c 5A80     		strh	r2, [r3, #2]	@ movhi
 3315 067e 07F50473 		add	r3, r7, #528
 3316 0682 A3F5AA73 		sub	r3, r3, #340
 3317 0686 07F5E872 		add	r2, r7, #464
 3318 068a 1A60     		str	r2, [r3]
 3319 068c 07F50473 		add	r3, r7, #528
 3320 0690 A3F5F473 		sub	r3, r3, #488
 3321 0694 07F1BC02 		add	r2, r7, #188
 3322 0698 5A60     		str	r2, [r3, #4]
 3323 069a 07F50473 		add	r3, r7, #528
 3324 069e A3F5F473 		sub	r3, r3, #488
 3325 06a2 0022     		movs	r2, #0
 3326 06a4 9A60     		str	r2, [r3, #8]
 3327 06a6 07F50473 		add	r3, r7, #528
 3328 06aa A3F5F473 		sub	r3, r3, #488
 3329 06ae 0122     		movs	r2, #1
 3330 06b0 9A81     		strh	r2, [r3, #12]	@ movhi
 3331 06b2 07F50473 		add	r3, r7, #528
 3332 06b6 A3F5F473 		sub	r3, r3, #488
 3333 06ba 0022     		movs	r2, #0
 3334 06bc DA81     		strh	r2, [r3, #14]	@ movhi
 3335 06be 07F50473 		add	r3, r7, #528
 3336 06c2 A3F5AC73 		sub	r3, r3, #344
 3337 06c6 07F5CA72 		add	r2, r7, #404
 3338 06ca 1A60     		str	r2, [r3]
 3339 06cc 07F50473 		add	r3, r7, #528
 3340 06d0 A3F5F473 		sub	r3, r3, #488
 3341 06d4 07F1B802 		add	r2, r7, #184
ARM GAS  /tmp/ccEo7NLA.s 			page 73


 3342 06d8 1A61     		str	r2, [r3, #16]
 3343 06da 07F50473 		add	r3, r7, #528
 3344 06de A3F5F473 		sub	r3, r3, #488
 3345 06e2 0022     		movs	r2, #0
 3346 06e4 5A61     		str	r2, [r3, #20]
 3347 06e6 07F50473 		add	r3, r7, #528
 3348 06ea A3F5F473 		sub	r3, r3, #488
 3349 06ee 0122     		movs	r2, #1
 3350 06f0 1A83     		strh	r2, [r3, #24]	@ movhi
 3351 06f2 07F50473 		add	r3, r7, #528
 3352 06f6 A3F5F473 		sub	r3, r3, #488
 3353 06fa 0022     		movs	r2, #0
 3354 06fc 5A83     		strh	r2, [r3, #26]	@ movhi
 3355 06fe 07F50473 		add	r3, r7, #528
 3356 0702 A3F5AE73 		sub	r3, r3, #348
 3357 0706 07F1E802 		add	r2, r7, #232
 3358 070a 1A60     		str	r2, [r3]
 3359 070c 07F50473 		add	r3, r7, #528
 3360 0710 A3F5F473 		sub	r3, r3, #488
 3361 0714 07F1B402 		add	r2, r7, #180
 3362 0718 DA61     		str	r2, [r3, #28]
 3363 071a 07F50473 		add	r3, r7, #528
 3364 071e A3F5F473 		sub	r3, r3, #488
 3365 0722 0022     		movs	r2, #0
 3366 0724 1A62     		str	r2, [r3, #32]
 3367 0726 07F50473 		add	r3, r7, #528
 3368 072a A3F5F473 		sub	r3, r3, #488
 3369 072e 0022     		movs	r2, #0
 3370 0730 9A84     		strh	r2, [r3, #36]	@ movhi
 3371 0732 07F50473 		add	r3, r7, #528
 3372 0736 A3F5F473 		sub	r3, r3, #488
 3373 073a 0022     		movs	r2, #0
 3374 073c DA84     		strh	r2, [r3, #38]	@ movhi
 3375 073e 07F50473 		add	r3, r7, #528
 3376 0742 A3F5B073 		sub	r3, r3, #352
 3377 0746 0022     		movs	r2, #0
 3378 0748 1A60     		str	r2, [r3]
 3379 074a 07F50473 		add	r3, r7, #528
 3380 074e A3F5F473 		sub	r3, r3, #488
 3381 0752 07F1B002 		add	r2, r7, #176
 3382 0756 9A62     		str	r2, [r3, #40]
 3383 0758 07F50473 		add	r3, r7, #528
 3384 075c A3F5F473 		sub	r3, r3, #488
 3385 0760 0022     		movs	r2, #0
 3386 0762 DA62     		str	r2, [r3, #44]
 3387 0764 07F50473 		add	r3, r7, #528
 3388 0768 A3F5A873 		sub	r3, r3, #336
 3389 076c 07F12802 		add	r2, r7, #40
 3390 0770 5A60     		str	r2, [r3, #4]
 428:Lib/AI_Runtime/Npu/ll_aton/ll_sw_float.c ****         prelu_activ_chain, , 4, AI_TENSOR_LIST_OBJ_INIT(AI_FLAG_NONE, 1, TENSORS(&input_output)),
 429:Lib/AI_Runtime/Npu/ll_aton/ll_sw_float.c ****         AI_TENSOR_LIST_OBJ_INIT(AI_FLAG_NONE, 1, TENSORS(&activ_output)),
 430:Lib/AI_Runtime/Npu/ll_aton/ll_sw_float.c ****         AI_TENSOR_LIST_OBJ_INIT(AI_FLAG_NONE, 1, TENSORS(&activ_operand)), AI_TENSOR_LIST_OBJ_EMPTY
 431:Lib/AI_Runtime/Npu/ll_aton/ll_sw_float.c **** 
 432:Lib/AI_Runtime/Npu/ll_aton/ll_sw_float.c ****     AI_LAYER_OBJ_DECLARE(nonlinearity_layer, 2, NL_TYPE, 0x0, NULL, nl, forward_prelu, &prelu_activ
 3391              		.loc 1 432 5
 3392 0772 07F50473 		add	r3, r7, #528
 3393 0776 A3F50273 		sub	r3, r3, #520
ARM GAS  /tmp/ccEo7NLA.s 			page 74


 3394 077a 40F20712 		movw	r2, #263
 3395 077e 1A80     		strh	r2, [r3]	@ movhi
 3396 0780 07F50473 		add	r3, r7, #528
 3397 0784 A3F50273 		sub	r3, r3, #520
 3398 0788 0222     		movs	r2, #2
 3399 078a 5A80     		strh	r2, [r3, #2]	@ movhi
 3400 078c 07F50473 		add	r3, r7, #528
 3401 0790 A3F50273 		sub	r3, r3, #520
 3402 0794 0022     		movs	r2, #0
 3403 0796 5A60     		str	r2, [r3, #4]
 3404 0798 07F50473 		add	r3, r7, #528
 3405 079c A3F50273 		sub	r3, r3, #520
 3406 07a0 0022     		movs	r2, #0
 3407 07a2 9A60     		str	r2, [r3, #8]
 3408 07a4 07F50473 		add	r3, r7, #528
 3409 07a8 A3F50273 		sub	r3, r3, #520
 3410 07ac 0022     		movs	r2, #0
 3411 07ae DA60     		str	r2, [r3, #12]
 3412 07b0 07F50473 		add	r3, r7, #528
 3413 07b4 A3F50273 		sub	r3, r3, #520
 3414 07b8 0022     		movs	r2, #0
 3415 07ba 1A61     		str	r2, [r3, #16]
 3416 07bc 07F50473 		add	r3, r7, #528
 3417 07c0 A3F50273 		sub	r3, r3, #520
 3418 07c4 0D4A     		ldr	r2, .L100+4
 3419 07c6 5A61     		str	r2, [r3, #20]
 3420 07c8 07F50473 		add	r3, r7, #528
 3421 07cc A3F50273 		sub	r3, r3, #520
 3422 07d0 07F1C002 		add	r2, r7, #192
 3423 07d4 9A61     		str	r2, [r3, #24]
 3424 07d6 07F50473 		add	r3, r7, #528
 3425 07da A3F50273 		sub	r3, r3, #520
 3426 07de 0022     		movs	r2, #0
 3427 07e0 DA61     		str	r2, [r3, #28]
 433:Lib/AI_Runtime/Npu/ll_aton/ll_sw_float.c ****                          .nl_params = NULL, )
 434:Lib/AI_Runtime/Npu/ll_aton/ll_sw_float.c ****     nonlinearity_layer.forward(AI_LAYER_OBJ(&nonlinearity_layer));
 3428              		.loc 1 434 23
 3429 07e2 07F50473 		add	r3, r7, #528
 3430 07e6 A3F50273 		sub	r3, r3, #520
 3431 07ea 5B69     		ldr	r3, [r3, #20]
 3432              		.loc 1 434 5
 3433 07ec 07F10802 		add	r2, r7, #8
 3434 07f0 1046     		mov	r0, r2
 3435 07f2 9847     		blx	r3
 3436              	.LVL9:
 3437              	.LBE9:
 435:Lib/AI_Runtime/Npu/ll_aton/ll_sw_float.c ****   }
 436:Lib/AI_Runtime/Npu/ll_aton/ll_sw_float.c ****   break;
 3438              		.loc 1 436 3
 3439 07f4 01F033B9 		b	.L94
 3440              	.L101:
 3441              		.align	2
 3442              	.L100:
 3443 07f8 40108200 		.word	8523840
 3444 07fc 00000000 		.word	forward_prelu
 3445              	.L90:
 3446              	.LBB10:
ARM GAS  /tmp/ccEo7NLA.s 			page 75


 437:Lib/AI_Runtime/Npu/ll_aton/ll_sw_float.c ****   case LL_SW_ELU:
 438:Lib/AI_Runtime/Npu/ll_aton/ll_sw_float.c ****   {
 439:Lib/AI_Runtime/Npu/ll_aton/ll_sw_float.c ****     // defining the array of params needed
 440:Lib/AI_Runtime/Npu/ll_aton/ll_sw_float.c ****     AI_ARRAY_OBJ_DECLARE_STATIC(elu_layer_params, ai_float, FORMAT, , 1, sw_info->alpha)
 3447              		.loc 1 440 5
 3448 0800 07F50473 		add	r3, r7, #528
 3449 0804 A3F5B873 		sub	r3, r3, #368
 3450 0808 BC4A     		ldr	r2, .L102
 3451 080a 1A60     		str	r2, [r3]
 3452 080c 07F50473 		add	r3, r7, #528
 3453 0810 A3F5B873 		sub	r3, r3, #368
 3454 0814 0122     		movs	r2, #1
 3455 0816 5A60     		str	r2, [r3, #4]
 3456 0818 D7F80C32 		ldr	r3, [r7, #524]
 3457 081c D3F88820 		ldr	r2, [r3, #136]	@ float
 3458 0820 07F50473 		add	r3, r7, #528
 3459 0824 A3F5BA73 		sub	r3, r3, #372
 3460 0828 1A60     		str	r2, [r3]	@ float
 3461 082a 07F50473 		add	r3, r7, #528
 3462 082e A3F5B873 		sub	r3, r3, #368
 3463 0832 07F19C02 		add	r2, r7, #156
 3464 0836 9A60     		str	r2, [r3, #8]
 3465 0838 07F50473 		add	r3, r7, #528
 3466 083c A3F5B873 		sub	r3, r3, #368
 3467 0840 0022     		movs	r2, #0
 3468 0842 DA60     		str	r2, [r3, #12]
 441:Lib/AI_Runtime/Npu/ll_aton/ll_sw_float.c **** 
 442:Lib/AI_Runtime/Npu/ll_aton/ll_sw_float.c ****     AI_LAYER_OBJ_DECLARE(nonlinearity_layer, 2, NL_TYPE, 0x0, NULL, nl, forward_elu, &activ_chain, 
 3469              		.loc 1 442 5
 3470 0844 07F50473 		add	r3, r7, #528
 3471 0848 A3F5F473 		sub	r3, r3, #488
 3472 084c 40F20712 		movw	r2, #263
 3473 0850 1A80     		strh	r2, [r3]	@ movhi
 3474 0852 07F50473 		add	r3, r7, #528
 3475 0856 A3F5F473 		sub	r3, r3, #488
 3476 085a 0222     		movs	r2, #2
 3477 085c 5A80     		strh	r2, [r3, #2]	@ movhi
 3478 085e 07F50473 		add	r3, r7, #528
 3479 0862 A3F5F473 		sub	r3, r3, #488
 3480 0866 0022     		movs	r2, #0
 3481 0868 5A60     		str	r2, [r3, #4]
 3482 086a 07F50473 		add	r3, r7, #528
 3483 086e A3F5F473 		sub	r3, r3, #488
 3484 0872 0022     		movs	r2, #0
 3485 0874 9A60     		str	r2, [r3, #8]
 3486 0876 07F50473 		add	r3, r7, #528
 3487 087a A3F5F473 		sub	r3, r3, #488
 3488 087e 0022     		movs	r2, #0
 3489 0880 DA60     		str	r2, [r3, #12]
 3490 0882 07F50473 		add	r3, r7, #528
 3491 0886 A3F5F473 		sub	r3, r3, #488
 3492 088a 0022     		movs	r2, #0
 3493 088c 1A61     		str	r2, [r3, #16]
 3494 088e 07F50473 		add	r3, r7, #528
 3495 0892 A3F5F473 		sub	r3, r3, #488
 3496 0896 9A4A     		ldr	r2, .L102+4
 3497 0898 5A61     		str	r2, [r3, #20]
ARM GAS  /tmp/ccEo7NLA.s 			page 76


 3498 089a 07F50473 		add	r3, r7, #528
 3499 089e A3F5F473 		sub	r3, r3, #488
 3500 08a2 07F5B672 		add	r2, r7, #364
 3501 08a6 9A61     		str	r2, [r3, #24]
 3502 08a8 07F50473 		add	r3, r7, #528
 3503 08ac A3F5F473 		sub	r3, r3, #488
 3504 08b0 07F1A002 		add	r2, r7, #160
 3505 08b4 DA61     		str	r2, [r3, #28]
 443:Lib/AI_Runtime/Npu/ll_aton/ll_sw_float.c ****                          .nl_params = AI_ARRAY_OBJ(&elu_layer_params), )
 444:Lib/AI_Runtime/Npu/ll_aton/ll_sw_float.c ****     nonlinearity_layer.forward(AI_LAYER_OBJ(&nonlinearity_layer));
 3506              		.loc 1 444 23
 3507 08b6 07F50473 		add	r3, r7, #528
 3508 08ba A3F5F473 		sub	r3, r3, #488
 3509 08be 5B69     		ldr	r3, [r3, #20]
 3510              		.loc 1 444 5
 3511 08c0 07F12802 		add	r2, r7, #40
 3512 08c4 1046     		mov	r0, r2
 3513 08c6 9847     		blx	r3
 3514              	.LVL10:
 3515              	.LBE10:
 445:Lib/AI_Runtime/Npu/ll_aton/ll_sw_float.c ****   }
 446:Lib/AI_Runtime/Npu/ll_aton/ll_sw_float.c ****   break;
 3516              		.loc 1 446 3
 3517 08c8 01F0C9B8 		b	.L94
 3518              	.L91:
 3519              	.LBB11:
 447:Lib/AI_Runtime/Npu/ll_aton/ll_sw_float.c ****   case LL_SW_THRESHOLDEDRELU:
 448:Lib/AI_Runtime/Npu/ll_aton/ll_sw_float.c ****   {
 449:Lib/AI_Runtime/Npu/ll_aton/ll_sw_float.c ****     // defining the array of params needed
 450:Lib/AI_Runtime/Npu/ll_aton/ll_sw_float.c ****     AI_ARRAY_OBJ_DECLARE_STATIC(thresholdedrelu_layer_params, ai_float, FORMAT, , 1, sw_info->alpha
 3520              		.loc 1 450 5
 3521 08cc 07F50473 		add	r3, r7, #528
 3522 08d0 A3F5C273 		sub	r3, r3, #388
 3523 08d4 894A     		ldr	r2, .L102
 3524 08d6 1A60     		str	r2, [r3]
 3525 08d8 07F50473 		add	r3, r7, #528
 3526 08dc A3F5C273 		sub	r3, r3, #388
 3527 08e0 0122     		movs	r2, #1
 3528 08e2 5A60     		str	r2, [r3, #4]
 3529 08e4 D7F80C32 		ldr	r3, [r7, #524]
 3530 08e8 D3F88820 		ldr	r2, [r3, #136]	@ float
 3531 08ec 07F50473 		add	r3, r7, #528
 3532 08f0 A3F5C473 		sub	r3, r3, #392
 3533 08f4 1A60     		str	r2, [r3]	@ float
 3534 08f6 07F50473 		add	r3, r7, #528
 3535 08fa A3F5C273 		sub	r3, r3, #388
 3536 08fe 07F18802 		add	r2, r7, #136
 3537 0902 9A60     		str	r2, [r3, #8]
 3538 0904 07F50473 		add	r3, r7, #528
 3539 0908 A3F5C273 		sub	r3, r3, #388
 3540 090c 0022     		movs	r2, #0
 3541 090e DA60     		str	r2, [r3, #12]
 451:Lib/AI_Runtime/Npu/ll_aton/ll_sw_float.c **** 
 452:Lib/AI_Runtime/Npu/ll_aton/ll_sw_float.c ****     AI_LAYER_OBJ_DECLARE(nonlinearity_layer, 2, NL_TYPE, 0x0, NULL, nl, forward_relu_thresholded, &
 3542              		.loc 1 452 5
 3543 0910 07F50473 		add	r3, r7, #528
 3544 0914 A3F5F473 		sub	r3, r3, #488
ARM GAS  /tmp/ccEo7NLA.s 			page 77


 3545 0918 40F20712 		movw	r2, #263
 3546 091c 1A80     		strh	r2, [r3]	@ movhi
 3547 091e 07F50473 		add	r3, r7, #528
 3548 0922 A3F5F473 		sub	r3, r3, #488
 3549 0926 0222     		movs	r2, #2
 3550 0928 5A80     		strh	r2, [r3, #2]	@ movhi
 3551 092a 07F50473 		add	r3, r7, #528
 3552 092e A3F5F473 		sub	r3, r3, #488
 3553 0932 0022     		movs	r2, #0
 3554 0934 5A60     		str	r2, [r3, #4]
 3555 0936 07F50473 		add	r3, r7, #528
 3556 093a A3F5F473 		sub	r3, r3, #488
 3557 093e 0022     		movs	r2, #0
 3558 0940 9A60     		str	r2, [r3, #8]
 3559 0942 07F50473 		add	r3, r7, #528
 3560 0946 A3F5F473 		sub	r3, r3, #488
 3561 094a 0022     		movs	r2, #0
 3562 094c DA60     		str	r2, [r3, #12]
 3563 094e 07F50473 		add	r3, r7, #528
 3564 0952 A3F5F473 		sub	r3, r3, #488
 3565 0956 0022     		movs	r2, #0
 3566 0958 1A61     		str	r2, [r3, #16]
 3567 095a 07F50473 		add	r3, r7, #528
 3568 095e A3F5F473 		sub	r3, r3, #488
 3569 0962 684A     		ldr	r2, .L102+8
 3570 0964 5A61     		str	r2, [r3, #20]
 3571 0966 07F50473 		add	r3, r7, #528
 3572 096a A3F5F473 		sub	r3, r3, #488
 3573 096e 07F5B672 		add	r2, r7, #364
 3574 0972 9A61     		str	r2, [r3, #24]
 3575 0974 07F50473 		add	r3, r7, #528
 3576 0978 A3F5F473 		sub	r3, r3, #488
 3577 097c 07F18C02 		add	r2, r7, #140
 3578 0980 DA61     		str	r2, [r3, #28]
 453:Lib/AI_Runtime/Npu/ll_aton/ll_sw_float.c ****                          NULL, , .nl_params = AI_ARRAY_OBJ(&thresholdedrelu_layer_params), )
 454:Lib/AI_Runtime/Npu/ll_aton/ll_sw_float.c ****     nonlinearity_layer.forward(AI_LAYER_OBJ(&nonlinearity_layer));
 3579              		.loc 1 454 23
 3580 0982 07F50473 		add	r3, r7, #528
 3581 0986 A3F5F473 		sub	r3, r3, #488
 3582 098a 5B69     		ldr	r3, [r3, #20]
 3583              		.loc 1 454 5
 3584 098c 07F12802 		add	r2, r7, #40
 3585 0990 1046     		mov	r0, r2
 3586 0992 9847     		blx	r3
 3587              	.LVL11:
 3588              	.LBE11:
 455:Lib/AI_Runtime/Npu/ll_aton/ll_sw_float.c ****   }
 456:Lib/AI_Runtime/Npu/ll_aton/ll_sw_float.c ****   break;
 3589              		.loc 1 456 3
 3590 0994 01F063B8 		b	.L94
 3591              	.L89:
 3592              	.LBB12:
 457:Lib/AI_Runtime/Npu/ll_aton/ll_sw_float.c ****   case LL_SW_SELU:
 458:Lib/AI_Runtime/Npu/ll_aton/ll_sw_float.c ****   {
 459:Lib/AI_Runtime/Npu/ll_aton/ll_sw_float.c ****     // defining the array of params needed
 460:Lib/AI_Runtime/Npu/ll_aton/ll_sw_float.c ****     AI_ARRAY_OBJ_DECLARE_STATIC(selu_layer_params, ai_float, FORMAT, , 2, sw_info->alpha, sw_info->
 3593              		.loc 1 460 5
ARM GAS  /tmp/ccEo7NLA.s 			page 78


 3594 0998 07F50473 		add	r3, r7, #528
 3595 099c A3F5CC73 		sub	r3, r3, #408
 3596 09a0 564A     		ldr	r2, .L102
 3597 09a2 1A60     		str	r2, [r3]
 3598 09a4 07F50473 		add	r3, r7, #528
 3599 09a8 A3F5CC73 		sub	r3, r3, #408
 3600 09ac 0222     		movs	r2, #2
 3601 09ae 5A60     		str	r2, [r3, #4]
 3602 09b0 D7F80C32 		ldr	r3, [r7, #524]
 3603 09b4 D3F88820 		ldr	r2, [r3, #136]	@ float
 3604 09b8 07F50473 		add	r3, r7, #528
 3605 09bc A3F5D073 		sub	r3, r3, #416
 3606 09c0 1A60     		str	r2, [r3]	@ float
 3607 09c2 D7F80C32 		ldr	r3, [r7, #524]
 3608 09c6 D3F89020 		ldr	r2, [r3, #144]	@ float
 3609 09ca 07F50473 		add	r3, r7, #528
 3610 09ce A3F5D073 		sub	r3, r3, #416
 3611 09d2 5A60     		str	r2, [r3, #4]	@ float
 3612 09d4 07F50473 		add	r3, r7, #528
 3613 09d8 A3F5CC73 		sub	r3, r3, #408
 3614 09dc 07F17002 		add	r2, r7, #112
 3615 09e0 9A60     		str	r2, [r3, #8]
 3616 09e2 07F50473 		add	r3, r7, #528
 3617 09e6 A3F5CC73 		sub	r3, r3, #408
 3618 09ea 0022     		movs	r2, #0
 3619 09ec DA60     		str	r2, [r3, #12]
 461:Lib/AI_Runtime/Npu/ll_aton/ll_sw_float.c **** 
 462:Lib/AI_Runtime/Npu/ll_aton/ll_sw_float.c ****     AI_LAYER_OBJ_DECLARE(nonlinearity_layer, 2, NL_TYPE, 0x0, NULL, nl, forward_selu, &activ_chain,
 3620              		.loc 1 462 5
 3621 09ee 07F50473 		add	r3, r7, #528
 3622 09f2 A3F5F473 		sub	r3, r3, #488
 3623 09f6 40F20712 		movw	r2, #263
 3624 09fa 1A80     		strh	r2, [r3]	@ movhi
 3625 09fc 07F50473 		add	r3, r7, #528
 3626 0a00 A3F5F473 		sub	r3, r3, #488
 3627 0a04 0222     		movs	r2, #2
 3628 0a06 5A80     		strh	r2, [r3, #2]	@ movhi
 3629 0a08 07F50473 		add	r3, r7, #528
 3630 0a0c A3F5F473 		sub	r3, r3, #488
 3631 0a10 0022     		movs	r2, #0
 3632 0a12 5A60     		str	r2, [r3, #4]
 3633 0a14 07F50473 		add	r3, r7, #528
 3634 0a18 A3F5F473 		sub	r3, r3, #488
 3635 0a1c 0022     		movs	r2, #0
 3636 0a1e 9A60     		str	r2, [r3, #8]
 3637 0a20 07F50473 		add	r3, r7, #528
 3638 0a24 A3F5F473 		sub	r3, r3, #488
 3639 0a28 0022     		movs	r2, #0
 3640 0a2a DA60     		str	r2, [r3, #12]
 3641 0a2c 07F50473 		add	r3, r7, #528
 3642 0a30 A3F5F473 		sub	r3, r3, #488
 3643 0a34 0022     		movs	r2, #0
 3644 0a36 1A61     		str	r2, [r3, #16]
 3645 0a38 07F50473 		add	r3, r7, #528
 3646 0a3c A3F5F473 		sub	r3, r3, #488
 3647 0a40 314A     		ldr	r2, .L102+12
 3648 0a42 5A61     		str	r2, [r3, #20]
ARM GAS  /tmp/ccEo7NLA.s 			page 79


 3649 0a44 07F50473 		add	r3, r7, #528
 3650 0a48 A3F5F473 		sub	r3, r3, #488
 3651 0a4c 07F5B672 		add	r2, r7, #364
 3652 0a50 9A61     		str	r2, [r3, #24]
 3653 0a52 07F50473 		add	r3, r7, #528
 3654 0a56 A3F5F473 		sub	r3, r3, #488
 3655 0a5a 07F17802 		add	r2, r7, #120
 3656 0a5e DA61     		str	r2, [r3, #28]
 463:Lib/AI_Runtime/Npu/ll_aton/ll_sw_float.c ****                          .nl_params = AI_ARRAY_OBJ(&selu_layer_params), )
 464:Lib/AI_Runtime/Npu/ll_aton/ll_sw_float.c ****     nonlinearity_layer.forward(AI_LAYER_OBJ(&nonlinearity_layer));
 3657              		.loc 1 464 23
 3658 0a60 07F50473 		add	r3, r7, #528
 3659 0a64 A3F5F473 		sub	r3, r3, #488
 3660 0a68 5B69     		ldr	r3, [r3, #20]
 3661              		.loc 1 464 5
 3662 0a6a 07F12802 		add	r2, r7, #40
 3663 0a6e 1046     		mov	r0, r2
 3664 0a70 9847     		blx	r3
 3665              	.LVL12:
 3666              	.LBE12:
 465:Lib/AI_Runtime/Npu/ll_aton/ll_sw_float.c ****   }
 466:Lib/AI_Runtime/Npu/ll_aton/ll_sw_float.c ****   break;
 3667              		.loc 1 466 3
 3668 0a72 00F0F4BF 		b	.L94
 3669              	.L74:
 3670              	.LBB13:
 467:Lib/AI_Runtime/Npu/ll_aton/ll_sw_float.c ****   case LL_SW_CEIL:
 468:Lib/AI_Runtime/Npu/ll_aton/ll_sw_float.c ****   {
 469:Lib/AI_Runtime/Npu/ll_aton/ll_sw_float.c ****     AI_LAYER_OBJ_DECLARE(nonlinearity_layer, 2, NL_TYPE, 0x0, NULL, nl, forward_ceil, &activ_chain,
 3671              		.loc 1 469 5
 3672 0a76 07F50473 		add	r3, r7, #528
 3673 0a7a A3F5F473 		sub	r3, r3, #488
 3674 0a7e 40F20712 		movw	r2, #263
 3675 0a82 1A80     		strh	r2, [r3]	@ movhi
 3676 0a84 07F50473 		add	r3, r7, #528
 3677 0a88 A3F5F473 		sub	r3, r3, #488
 3678 0a8c 0222     		movs	r2, #2
 3679 0a8e 5A80     		strh	r2, [r3, #2]	@ movhi
 3680 0a90 07F50473 		add	r3, r7, #528
 3681 0a94 A3F5F473 		sub	r3, r3, #488
 3682 0a98 0022     		movs	r2, #0
 3683 0a9a 5A60     		str	r2, [r3, #4]
 3684 0a9c 07F50473 		add	r3, r7, #528
 3685 0aa0 A3F5F473 		sub	r3, r3, #488
 3686 0aa4 0022     		movs	r2, #0
 3687 0aa6 9A60     		str	r2, [r3, #8]
 3688 0aa8 07F50473 		add	r3, r7, #528
 3689 0aac A3F5F473 		sub	r3, r3, #488
 3690 0ab0 0022     		movs	r2, #0
 3691 0ab2 DA60     		str	r2, [r3, #12]
 3692 0ab4 07F50473 		add	r3, r7, #528
 3693 0ab8 A3F5F473 		sub	r3, r3, #488
 3694 0abc 0022     		movs	r2, #0
 3695 0abe 1A61     		str	r2, [r3, #16]
 3696 0ac0 07F50473 		add	r3, r7, #528
 3697 0ac4 A3F5F473 		sub	r3, r3, #488
 3698 0ac8 104A     		ldr	r2, .L102+16
ARM GAS  /tmp/ccEo7NLA.s 			page 80


 3699 0aca 5A61     		str	r2, [r3, #20]
 3700 0acc 07F50473 		add	r3, r7, #528
 3701 0ad0 A3F5F473 		sub	r3, r3, #488
 3702 0ad4 07F5B672 		add	r2, r7, #364
 3703 0ad8 9A61     		str	r2, [r3, #24]
 3704 0ada 07F50473 		add	r3, r7, #528
 3705 0ade A3F5F473 		sub	r3, r3, #488
 3706 0ae2 0022     		movs	r2, #0
 3707 0ae4 DA61     		str	r2, [r3, #28]
 470:Lib/AI_Runtime/Npu/ll_aton/ll_sw_float.c ****                          .nl_params = NULL, )
 471:Lib/AI_Runtime/Npu/ll_aton/ll_sw_float.c ****     nonlinearity_layer.forward(AI_LAYER_OBJ(&nonlinearity_layer));
 3708              		.loc 1 471 23
 3709 0ae6 07F50473 		add	r3, r7, #528
 3710 0aea A3F5F473 		sub	r3, r3, #488
 3711 0aee 5B69     		ldr	r3, [r3, #20]
 3712              		.loc 1 471 5
 3713 0af0 07F12802 		add	r2, r7, #40
 3714 0af4 1046     		mov	r0, r2
 3715 0af6 9847     		blx	r3
 3716              	.LVL13:
 3717              	.LBE13:
 472:Lib/AI_Runtime/Npu/ll_aton/ll_sw_float.c ****   }
 473:Lib/AI_Runtime/Npu/ll_aton/ll_sw_float.c ****   break;
 3718              		.loc 1 473 3
 3719 0af8 00F0B1BF 		b	.L94
 3720              	.L103:
 3721              		.align	2
 3722              	.L102:
 3723 0afc 40108200 		.word	8523840
 3724 0b00 00000000 		.word	forward_elu
 3725 0b04 00000000 		.word	forward_relu_thresholded
 3726 0b08 00000000 		.word	forward_selu
 3727 0b0c 00000000 		.word	forward_ceil
 3728              	.L73:
 3729              	.LBB14:
 474:Lib/AI_Runtime/Npu/ll_aton/ll_sw_float.c ****   case LL_SW_FLOOR:
 475:Lib/AI_Runtime/Npu/ll_aton/ll_sw_float.c ****   {
 476:Lib/AI_Runtime/Npu/ll_aton/ll_sw_float.c ****     AI_LAYER_OBJ_DECLARE(nonlinearity_layer, 2, NL_TYPE, 0x0, NULL, nl, forward_floor, &activ_chain
 3730              		.loc 1 476 5
 3731 0b10 07F50473 		add	r3, r7, #528
 3732 0b14 A3F5F473 		sub	r3, r3, #488
 3733 0b18 40F20712 		movw	r2, #263
 3734 0b1c 1A80     		strh	r2, [r3]	@ movhi
 3735 0b1e 07F50473 		add	r3, r7, #528
 3736 0b22 A3F5F473 		sub	r3, r3, #488
 3737 0b26 0222     		movs	r2, #2
 3738 0b28 5A80     		strh	r2, [r3, #2]	@ movhi
 3739 0b2a 07F50473 		add	r3, r7, #528
 3740 0b2e A3F5F473 		sub	r3, r3, #488
 3741 0b32 0022     		movs	r2, #0
 3742 0b34 5A60     		str	r2, [r3, #4]
 3743 0b36 07F50473 		add	r3, r7, #528
 3744 0b3a A3F5F473 		sub	r3, r3, #488
 3745 0b3e 0022     		movs	r2, #0
 3746 0b40 9A60     		str	r2, [r3, #8]
 3747 0b42 07F50473 		add	r3, r7, #528
 3748 0b46 A3F5F473 		sub	r3, r3, #488
ARM GAS  /tmp/ccEo7NLA.s 			page 81


 3749 0b4a 0022     		movs	r2, #0
 3750 0b4c DA60     		str	r2, [r3, #12]
 3751 0b4e 07F50473 		add	r3, r7, #528
 3752 0b52 A3F5F473 		sub	r3, r3, #488
 3753 0b56 0022     		movs	r2, #0
 3754 0b58 1A61     		str	r2, [r3, #16]
 3755 0b5a 07F50473 		add	r3, r7, #528
 3756 0b5e A3F5F473 		sub	r3, r3, #488
 3757 0b62 D64A     		ldr	r2, .L104
 3758 0b64 5A61     		str	r2, [r3, #20]
 3759 0b66 07F50473 		add	r3, r7, #528
 3760 0b6a A3F5F473 		sub	r3, r3, #488
 3761 0b6e 07F5B672 		add	r2, r7, #364
 3762 0b72 9A61     		str	r2, [r3, #24]
 3763 0b74 07F50473 		add	r3, r7, #528
 3764 0b78 A3F5F473 		sub	r3, r3, #488
 3765 0b7c 0022     		movs	r2, #0
 3766 0b7e DA61     		str	r2, [r3, #28]
 477:Lib/AI_Runtime/Npu/ll_aton/ll_sw_float.c ****                          .nl_params = NULL, )
 478:Lib/AI_Runtime/Npu/ll_aton/ll_sw_float.c ****     nonlinearity_layer.forward(AI_LAYER_OBJ(&nonlinearity_layer));
 3767              		.loc 1 478 23
 3768 0b80 07F50473 		add	r3, r7, #528
 3769 0b84 A3F5F473 		sub	r3, r3, #488
 3770 0b88 5B69     		ldr	r3, [r3, #20]
 3771              		.loc 1 478 5
 3772 0b8a 07F12802 		add	r2, r7, #40
 3773 0b8e 1046     		mov	r0, r2
 3774 0b90 9847     		blx	r3
 3775              	.LVL14:
 3776              	.LBE14:
 479:Lib/AI_Runtime/Npu/ll_aton/ll_sw_float.c ****   }
 480:Lib/AI_Runtime/Npu/ll_aton/ll_sw_float.c ****   break;
 3777              		.loc 1 480 3
 3778 0b92 00F064BF 		b	.L94
 3779              	.L72:
 3780              	.LBB15:
 481:Lib/AI_Runtime/Npu/ll_aton/ll_sw_float.c ****   case LL_SW_EXP:
 482:Lib/AI_Runtime/Npu/ll_aton/ll_sw_float.c ****   {
 483:Lib/AI_Runtime/Npu/ll_aton/ll_sw_float.c ****     AI_LAYER_OBJ_DECLARE(nonlinearity_layer, 2, NL_TYPE, 0x0, NULL, nl, forward_exp, &activ_chain, 
 3781              		.loc 1 483 5
 3782 0b96 07F50473 		add	r3, r7, #528
 3783 0b9a A3F5F473 		sub	r3, r3, #488
 3784 0b9e 40F20712 		movw	r2, #263
 3785 0ba2 1A80     		strh	r2, [r3]	@ movhi
 3786 0ba4 07F50473 		add	r3, r7, #528
 3787 0ba8 A3F5F473 		sub	r3, r3, #488
 3788 0bac 0222     		movs	r2, #2
 3789 0bae 5A80     		strh	r2, [r3, #2]	@ movhi
 3790 0bb0 07F50473 		add	r3, r7, #528
 3791 0bb4 A3F5F473 		sub	r3, r3, #488
 3792 0bb8 0022     		movs	r2, #0
 3793 0bba 5A60     		str	r2, [r3, #4]
 3794 0bbc 07F50473 		add	r3, r7, #528
 3795 0bc0 A3F5F473 		sub	r3, r3, #488
 3796 0bc4 0022     		movs	r2, #0
 3797 0bc6 9A60     		str	r2, [r3, #8]
 3798 0bc8 07F50473 		add	r3, r7, #528
ARM GAS  /tmp/ccEo7NLA.s 			page 82


 3799 0bcc A3F5F473 		sub	r3, r3, #488
 3800 0bd0 0022     		movs	r2, #0
 3801 0bd2 DA60     		str	r2, [r3, #12]
 3802 0bd4 07F50473 		add	r3, r7, #528
 3803 0bd8 A3F5F473 		sub	r3, r3, #488
 3804 0bdc 0022     		movs	r2, #0
 3805 0bde 1A61     		str	r2, [r3, #16]
 3806 0be0 07F50473 		add	r3, r7, #528
 3807 0be4 A3F5F473 		sub	r3, r3, #488
 3808 0be8 B54A     		ldr	r2, .L104+4
 3809 0bea 5A61     		str	r2, [r3, #20]
 3810 0bec 07F50473 		add	r3, r7, #528
 3811 0bf0 A3F5F473 		sub	r3, r3, #488
 3812 0bf4 07F5B672 		add	r2, r7, #364
 3813 0bf8 9A61     		str	r2, [r3, #24]
 3814 0bfa 07F50473 		add	r3, r7, #528
 3815 0bfe A3F5F473 		sub	r3, r3, #488
 3816 0c02 0022     		movs	r2, #0
 3817 0c04 DA61     		str	r2, [r3, #28]
 484:Lib/AI_Runtime/Npu/ll_aton/ll_sw_float.c ****                          .nl_params = NULL, )
 485:Lib/AI_Runtime/Npu/ll_aton/ll_sw_float.c ****     nonlinearity_layer.forward(AI_LAYER_OBJ(&nonlinearity_layer));
 3818              		.loc 1 485 23
 3819 0c06 07F50473 		add	r3, r7, #528
 3820 0c0a A3F5F473 		sub	r3, r3, #488
 3821 0c0e 5B69     		ldr	r3, [r3, #20]
 3822              		.loc 1 485 5
 3823 0c10 07F12802 		add	r2, r7, #40
 3824 0c14 1046     		mov	r0, r2
 3825 0c16 9847     		blx	r3
 3826              	.LVL15:
 3827              	.LBE15:
 486:Lib/AI_Runtime/Npu/ll_aton/ll_sw_float.c ****   }
 487:Lib/AI_Runtime/Npu/ll_aton/ll_sw_float.c ****   break;
 3828              		.loc 1 487 3
 3829 0c18 00F021BF 		b	.L94
 3830              	.L71:
 3831              	.LBB16:
 488:Lib/AI_Runtime/Npu/ll_aton/ll_sw_float.c ****   case LL_SW_LOG:
 489:Lib/AI_Runtime/Npu/ll_aton/ll_sw_float.c ****   {
 490:Lib/AI_Runtime/Npu/ll_aton/ll_sw_float.c ****     AI_LAYER_OBJ_DECLARE(nonlinearity_layer, 2, NL_TYPE, 0x0, NULL, nl, forward_log, &activ_chain, 
 3832              		.loc 1 490 5
 3833 0c1c 07F50473 		add	r3, r7, #528
 3834 0c20 A3F5F473 		sub	r3, r3, #488
 3835 0c24 40F20712 		movw	r2, #263
 3836 0c28 1A80     		strh	r2, [r3]	@ movhi
 3837 0c2a 07F50473 		add	r3, r7, #528
 3838 0c2e A3F5F473 		sub	r3, r3, #488
 3839 0c32 0222     		movs	r2, #2
 3840 0c34 5A80     		strh	r2, [r3, #2]	@ movhi
 3841 0c36 07F50473 		add	r3, r7, #528
 3842 0c3a A3F5F473 		sub	r3, r3, #488
 3843 0c3e 0022     		movs	r2, #0
 3844 0c40 5A60     		str	r2, [r3, #4]
 3845 0c42 07F50473 		add	r3, r7, #528
 3846 0c46 A3F5F473 		sub	r3, r3, #488
 3847 0c4a 0022     		movs	r2, #0
 3848 0c4c 9A60     		str	r2, [r3, #8]
ARM GAS  /tmp/ccEo7NLA.s 			page 83


 3849 0c4e 07F50473 		add	r3, r7, #528
 3850 0c52 A3F5F473 		sub	r3, r3, #488
 3851 0c56 0022     		movs	r2, #0
 3852 0c58 DA60     		str	r2, [r3, #12]
 3853 0c5a 07F50473 		add	r3, r7, #528
 3854 0c5e A3F5F473 		sub	r3, r3, #488
 3855 0c62 0022     		movs	r2, #0
 3856 0c64 1A61     		str	r2, [r3, #16]
 3857 0c66 07F50473 		add	r3, r7, #528
 3858 0c6a A3F5F473 		sub	r3, r3, #488
 3859 0c6e 954A     		ldr	r2, .L104+8
 3860 0c70 5A61     		str	r2, [r3, #20]
 3861 0c72 07F50473 		add	r3, r7, #528
 3862 0c76 A3F5F473 		sub	r3, r3, #488
 3863 0c7a 07F5B672 		add	r2, r7, #364
 3864 0c7e 9A61     		str	r2, [r3, #24]
 3865 0c80 07F50473 		add	r3, r7, #528
 3866 0c84 A3F5F473 		sub	r3, r3, #488
 3867 0c88 0022     		movs	r2, #0
 3868 0c8a DA61     		str	r2, [r3, #28]
 491:Lib/AI_Runtime/Npu/ll_aton/ll_sw_float.c ****                          .nl_params = NULL, )
 492:Lib/AI_Runtime/Npu/ll_aton/ll_sw_float.c ****     nonlinearity_layer.forward(AI_LAYER_OBJ(&nonlinearity_layer));
 3869              		.loc 1 492 23
 3870 0c8c 07F50473 		add	r3, r7, #528
 3871 0c90 A3F5F473 		sub	r3, r3, #488
 3872 0c94 5B69     		ldr	r3, [r3, #20]
 3873              		.loc 1 492 5
 3874 0c96 07F12802 		add	r2, r7, #40
 3875 0c9a 1046     		mov	r0, r2
 3876 0c9c 9847     		blx	r3
 3877              	.LVL16:
 3878              	.LBE16:
 493:Lib/AI_Runtime/Npu/ll_aton/ll_sw_float.c ****   }
 494:Lib/AI_Runtime/Npu/ll_aton/ll_sw_float.c ****   break;
 3879              		.loc 1 494 3
 3880 0c9e 00F0DEBE 		b	.L94
 3881              	.L85:
 3882              	.LBB17:
 495:Lib/AI_Runtime/Npu/ll_aton/ll_sw_float.c ****   case LL_SW_ACOS:
 496:Lib/AI_Runtime/Npu/ll_aton/ll_sw_float.c ****   {
 497:Lib/AI_Runtime/Npu/ll_aton/ll_sw_float.c ****     AI_LAYER_OBJ_DECLARE(nonlinearity_layer, 2, NL_TYPE, 0x0, NULL, nl, forward_acos, &activ_chain,
 3883              		.loc 1 497 5
 3884 0ca2 07F50473 		add	r3, r7, #528
 3885 0ca6 A3F5F473 		sub	r3, r3, #488
 3886 0caa 40F20712 		movw	r2, #263
 3887 0cae 1A80     		strh	r2, [r3]	@ movhi
 3888 0cb0 07F50473 		add	r3, r7, #528
 3889 0cb4 A3F5F473 		sub	r3, r3, #488
 3890 0cb8 0222     		movs	r2, #2
 3891 0cba 5A80     		strh	r2, [r3, #2]	@ movhi
 3892 0cbc 07F50473 		add	r3, r7, #528
 3893 0cc0 A3F5F473 		sub	r3, r3, #488
 3894 0cc4 0022     		movs	r2, #0
 3895 0cc6 5A60     		str	r2, [r3, #4]
 3896 0cc8 07F50473 		add	r3, r7, #528
 3897 0ccc A3F5F473 		sub	r3, r3, #488
 3898 0cd0 0022     		movs	r2, #0
ARM GAS  /tmp/ccEo7NLA.s 			page 84


 3899 0cd2 9A60     		str	r2, [r3, #8]
 3900 0cd4 07F50473 		add	r3, r7, #528
 3901 0cd8 A3F5F473 		sub	r3, r3, #488
 3902 0cdc 0022     		movs	r2, #0
 3903 0cde DA60     		str	r2, [r3, #12]
 3904 0ce0 07F50473 		add	r3, r7, #528
 3905 0ce4 A3F5F473 		sub	r3, r3, #488
 3906 0ce8 0022     		movs	r2, #0
 3907 0cea 1A61     		str	r2, [r3, #16]
 3908 0cec 07F50473 		add	r3, r7, #528
 3909 0cf0 A3F5F473 		sub	r3, r3, #488
 3910 0cf4 744A     		ldr	r2, .L104+12
 3911 0cf6 5A61     		str	r2, [r3, #20]
 3912 0cf8 07F50473 		add	r3, r7, #528
 3913 0cfc A3F5F473 		sub	r3, r3, #488
 3914 0d00 07F5B672 		add	r2, r7, #364
 3915 0d04 9A61     		str	r2, [r3, #24]
 3916 0d06 07F50473 		add	r3, r7, #528
 3917 0d0a A3F5F473 		sub	r3, r3, #488
 3918 0d0e 0022     		movs	r2, #0
 3919 0d10 DA61     		str	r2, [r3, #28]
 498:Lib/AI_Runtime/Npu/ll_aton/ll_sw_float.c ****                          .nl_params = NULL, )
 499:Lib/AI_Runtime/Npu/ll_aton/ll_sw_float.c ****     nonlinearity_layer.forward(AI_LAYER_OBJ(&nonlinearity_layer));
 3920              		.loc 1 499 23
 3921 0d12 07F50473 		add	r3, r7, #528
 3922 0d16 A3F5F473 		sub	r3, r3, #488
 3923 0d1a 5B69     		ldr	r3, [r3, #20]
 3924              		.loc 1 499 5
 3925 0d1c 07F12802 		add	r2, r7, #40
 3926 0d20 1046     		mov	r0, r2
 3927 0d22 9847     		blx	r3
 3928              	.LVL17:
 3929              	.LBE17:
 500:Lib/AI_Runtime/Npu/ll_aton/ll_sw_float.c ****   }
 501:Lib/AI_Runtime/Npu/ll_aton/ll_sw_float.c ****   break;
 3930              		.loc 1 501 3
 3931 0d24 00F09BBE 		b	.L94
 3932              	.L84:
 3933              	.LBB18:
 502:Lib/AI_Runtime/Npu/ll_aton/ll_sw_float.c ****   case LL_SW_ACOSH:
 503:Lib/AI_Runtime/Npu/ll_aton/ll_sw_float.c ****   {
 504:Lib/AI_Runtime/Npu/ll_aton/ll_sw_float.c ****     AI_LAYER_OBJ_DECLARE(nonlinearity_layer, 2, NL_TYPE, 0x0, NULL, nl, forward_acosh, &activ_chain
 3934              		.loc 1 504 5
 3935 0d28 07F50473 		add	r3, r7, #528
 3936 0d2c A3F5F473 		sub	r3, r3, #488
 3937 0d30 40F20712 		movw	r2, #263
 3938 0d34 1A80     		strh	r2, [r3]	@ movhi
 3939 0d36 07F50473 		add	r3, r7, #528
 3940 0d3a A3F5F473 		sub	r3, r3, #488
 3941 0d3e 0222     		movs	r2, #2
 3942 0d40 5A80     		strh	r2, [r3, #2]	@ movhi
 3943 0d42 07F50473 		add	r3, r7, #528
 3944 0d46 A3F5F473 		sub	r3, r3, #488
 3945 0d4a 0022     		movs	r2, #0
 3946 0d4c 5A60     		str	r2, [r3, #4]
 3947 0d4e 07F50473 		add	r3, r7, #528
 3948 0d52 A3F5F473 		sub	r3, r3, #488
ARM GAS  /tmp/ccEo7NLA.s 			page 85


 3949 0d56 0022     		movs	r2, #0
 3950 0d58 9A60     		str	r2, [r3, #8]
 3951 0d5a 07F50473 		add	r3, r7, #528
 3952 0d5e A3F5F473 		sub	r3, r3, #488
 3953 0d62 0022     		movs	r2, #0
 3954 0d64 DA60     		str	r2, [r3, #12]
 3955 0d66 07F50473 		add	r3, r7, #528
 3956 0d6a A3F5F473 		sub	r3, r3, #488
 3957 0d6e 0022     		movs	r2, #0
 3958 0d70 1A61     		str	r2, [r3, #16]
 3959 0d72 07F50473 		add	r3, r7, #528
 3960 0d76 A3F5F473 		sub	r3, r3, #488
 3961 0d7a 544A     		ldr	r2, .L104+16
 3962 0d7c 5A61     		str	r2, [r3, #20]
 3963 0d7e 07F50473 		add	r3, r7, #528
 3964 0d82 A3F5F473 		sub	r3, r3, #488
 3965 0d86 07F5B672 		add	r2, r7, #364
 3966 0d8a 9A61     		str	r2, [r3, #24]
 3967 0d8c 07F50473 		add	r3, r7, #528
 3968 0d90 A3F5F473 		sub	r3, r3, #488
 3969 0d94 0022     		movs	r2, #0
 3970 0d96 DA61     		str	r2, [r3, #28]
 505:Lib/AI_Runtime/Npu/ll_aton/ll_sw_float.c ****                          .nl_params = NULL, )
 506:Lib/AI_Runtime/Npu/ll_aton/ll_sw_float.c ****     nonlinearity_layer.forward(AI_LAYER_OBJ(&nonlinearity_layer));
 3971              		.loc 1 506 23
 3972 0d98 07F50473 		add	r3, r7, #528
 3973 0d9c A3F5F473 		sub	r3, r3, #488
 3974 0da0 5B69     		ldr	r3, [r3, #20]
 3975              		.loc 1 506 5
 3976 0da2 07F12802 		add	r2, r7, #40
 3977 0da6 1046     		mov	r0, r2
 3978 0da8 9847     		blx	r3
 3979              	.LVL18:
 3980              	.LBE18:
 507:Lib/AI_Runtime/Npu/ll_aton/ll_sw_float.c ****   }
 508:Lib/AI_Runtime/Npu/ll_aton/ll_sw_float.c ****   break;
 3981              		.loc 1 508 3
 3982 0daa 00F058BE 		b	.L94
 3983              	.L83:
 3984              	.LBB19:
 509:Lib/AI_Runtime/Npu/ll_aton/ll_sw_float.c ****   case LL_SW_ASIN:
 510:Lib/AI_Runtime/Npu/ll_aton/ll_sw_float.c ****   {
 511:Lib/AI_Runtime/Npu/ll_aton/ll_sw_float.c ****     AI_LAYER_OBJ_DECLARE(nonlinearity_layer, 2, NL_TYPE, 0x0, NULL, nl, forward_asin, &activ_chain,
 3985              		.loc 1 511 5
 3986 0dae 07F50473 		add	r3, r7, #528
 3987 0db2 A3F5F473 		sub	r3, r3, #488
 3988 0db6 40F20712 		movw	r2, #263
 3989 0dba 1A80     		strh	r2, [r3]	@ movhi
 3990 0dbc 07F50473 		add	r3, r7, #528
 3991 0dc0 A3F5F473 		sub	r3, r3, #488
 3992 0dc4 0222     		movs	r2, #2
 3993 0dc6 5A80     		strh	r2, [r3, #2]	@ movhi
 3994 0dc8 07F50473 		add	r3, r7, #528
 3995 0dcc A3F5F473 		sub	r3, r3, #488
 3996 0dd0 0022     		movs	r2, #0
 3997 0dd2 5A60     		str	r2, [r3, #4]
 3998 0dd4 07F50473 		add	r3, r7, #528
ARM GAS  /tmp/ccEo7NLA.s 			page 86


 3999 0dd8 A3F5F473 		sub	r3, r3, #488
 4000 0ddc 0022     		movs	r2, #0
 4001 0dde 9A60     		str	r2, [r3, #8]
 4002 0de0 07F50473 		add	r3, r7, #528
 4003 0de4 A3F5F473 		sub	r3, r3, #488
 4004 0de8 0022     		movs	r2, #0
 4005 0dea DA60     		str	r2, [r3, #12]
 4006 0dec 07F50473 		add	r3, r7, #528
 4007 0df0 A3F5F473 		sub	r3, r3, #488
 4008 0df4 0022     		movs	r2, #0
 4009 0df6 1A61     		str	r2, [r3, #16]
 4010 0df8 07F50473 		add	r3, r7, #528
 4011 0dfc A3F5F473 		sub	r3, r3, #488
 4012 0e00 334A     		ldr	r2, .L104+20
 4013 0e02 5A61     		str	r2, [r3, #20]
 4014 0e04 07F50473 		add	r3, r7, #528
 4015 0e08 A3F5F473 		sub	r3, r3, #488
 4016 0e0c 07F5B672 		add	r2, r7, #364
 4017 0e10 9A61     		str	r2, [r3, #24]
 4018 0e12 07F50473 		add	r3, r7, #528
 4019 0e16 A3F5F473 		sub	r3, r3, #488
 4020 0e1a 0022     		movs	r2, #0
 4021 0e1c DA61     		str	r2, [r3, #28]
 512:Lib/AI_Runtime/Npu/ll_aton/ll_sw_float.c ****                          .nl_params = NULL, )
 513:Lib/AI_Runtime/Npu/ll_aton/ll_sw_float.c ****     nonlinearity_layer.forward(AI_LAYER_OBJ(&nonlinearity_layer));
 4022              		.loc 1 513 23
 4023 0e1e 07F50473 		add	r3, r7, #528
 4024 0e22 A3F5F473 		sub	r3, r3, #488
 4025 0e26 5B69     		ldr	r3, [r3, #20]
 4026              		.loc 1 513 5
 4027 0e28 07F12802 		add	r2, r7, #40
 4028 0e2c 1046     		mov	r0, r2
 4029 0e2e 9847     		blx	r3
 4030              	.LVL19:
 4031              	.LBE19:
 514:Lib/AI_Runtime/Npu/ll_aton/ll_sw_float.c ****   }
 515:Lib/AI_Runtime/Npu/ll_aton/ll_sw_float.c ****   break;
 4032              		.loc 1 515 3
 4033 0e30 00F015BE 		b	.L94
 4034              	.L82:
 4035              	.LBB20:
 516:Lib/AI_Runtime/Npu/ll_aton/ll_sw_float.c ****   case LL_SW_ASINH:
 517:Lib/AI_Runtime/Npu/ll_aton/ll_sw_float.c ****   {
 518:Lib/AI_Runtime/Npu/ll_aton/ll_sw_float.c ****     AI_LAYER_OBJ_DECLARE(nonlinearity_layer, 2, NL_TYPE, 0x0, NULL, nl, forward_asinh, &activ_chain
 4036              		.loc 1 518 5
 4037 0e34 07F50473 		add	r3, r7, #528
 4038 0e38 A3F5F473 		sub	r3, r3, #488
 4039 0e3c 40F20712 		movw	r2, #263
 4040 0e40 1A80     		strh	r2, [r3]	@ movhi
 4041 0e42 07F50473 		add	r3, r7, #528
 4042 0e46 A3F5F473 		sub	r3, r3, #488
 4043 0e4a 0222     		movs	r2, #2
 4044 0e4c 5A80     		strh	r2, [r3, #2]	@ movhi
 4045 0e4e 07F50473 		add	r3, r7, #528
 4046 0e52 A3F5F473 		sub	r3, r3, #488
 4047 0e56 0022     		movs	r2, #0
 4048 0e58 5A60     		str	r2, [r3, #4]
ARM GAS  /tmp/ccEo7NLA.s 			page 87


 4049 0e5a 07F50473 		add	r3, r7, #528
 4050 0e5e A3F5F473 		sub	r3, r3, #488
 4051 0e62 0022     		movs	r2, #0
 4052 0e64 9A60     		str	r2, [r3, #8]
 4053 0e66 07F50473 		add	r3, r7, #528
 4054 0e6a A3F5F473 		sub	r3, r3, #488
 4055 0e6e 0022     		movs	r2, #0
 4056 0e70 DA60     		str	r2, [r3, #12]
 4057 0e72 07F50473 		add	r3, r7, #528
 4058 0e76 A3F5F473 		sub	r3, r3, #488
 4059 0e7a 0022     		movs	r2, #0
 4060 0e7c 1A61     		str	r2, [r3, #16]
 4061 0e7e 07F50473 		add	r3, r7, #528
 4062 0e82 A3F5F473 		sub	r3, r3, #488
 4063 0e86 134A     		ldr	r2, .L104+24
 4064 0e88 5A61     		str	r2, [r3, #20]
 4065 0e8a 07F50473 		add	r3, r7, #528
 4066 0e8e A3F5F473 		sub	r3, r3, #488
 4067 0e92 07F5B672 		add	r2, r7, #364
 4068 0e96 9A61     		str	r2, [r3, #24]
 4069 0e98 07F50473 		add	r3, r7, #528
 4070 0e9c A3F5F473 		sub	r3, r3, #488
 4071 0ea0 0022     		movs	r2, #0
 4072 0ea2 DA61     		str	r2, [r3, #28]
 519:Lib/AI_Runtime/Npu/ll_aton/ll_sw_float.c ****                          .nl_params = NULL, )
 520:Lib/AI_Runtime/Npu/ll_aton/ll_sw_float.c ****     nonlinearity_layer.forward(AI_LAYER_OBJ(&nonlinearity_layer));
 4073              		.loc 1 520 23
 4074 0ea4 07F50473 		add	r3, r7, #528
 4075 0ea8 A3F5F473 		sub	r3, r3, #488
 4076 0eac 5B69     		ldr	r3, [r3, #20]
 4077              		.loc 1 520 5
 4078 0eae 07F12802 		add	r2, r7, #40
 4079 0eb2 1046     		mov	r0, r2
 4080 0eb4 9847     		blx	r3
 4081              	.LVL20:
 4082              	.LBE20:
 521:Lib/AI_Runtime/Npu/ll_aton/ll_sw_float.c ****   }
 522:Lib/AI_Runtime/Npu/ll_aton/ll_sw_float.c ****   break;
 4083              		.loc 1 522 3
 4084 0eb6 00F0D2BD 		b	.L94
 4085              	.L105:
 4086 0eba 00BF     		.align	2
 4087              	.L104:
 4088 0ebc 00000000 		.word	forward_floor
 4089 0ec0 00000000 		.word	forward_exp
 4090 0ec4 00000000 		.word	forward_log
 4091 0ec8 00000000 		.word	forward_acos
 4092 0ecc 00000000 		.word	forward_acosh
 4093 0ed0 00000000 		.word	forward_asin
 4094 0ed4 00000000 		.word	forward_asinh
 4095              	.L87:
 4096              	.LBB21:
 523:Lib/AI_Runtime/Npu/ll_aton/ll_sw_float.c ****   case LL_SW_ATAN:
 524:Lib/AI_Runtime/Npu/ll_aton/ll_sw_float.c ****   {
 525:Lib/AI_Runtime/Npu/ll_aton/ll_sw_float.c ****     AI_LAYER_OBJ_DECLARE(nonlinearity_layer, 2, NL_TYPE, 0x0, NULL, nl, forward_atan, &activ_chain,
 4097              		.loc 1 525 5
 4098 0ed8 07F50473 		add	r3, r7, #528
ARM GAS  /tmp/ccEo7NLA.s 			page 88


 4099 0edc A3F5F473 		sub	r3, r3, #488
 4100 0ee0 40F20712 		movw	r2, #263
 4101 0ee4 1A80     		strh	r2, [r3]	@ movhi
 4102 0ee6 07F50473 		add	r3, r7, #528
 4103 0eea A3F5F473 		sub	r3, r3, #488
 4104 0eee 0222     		movs	r2, #2
 4105 0ef0 5A80     		strh	r2, [r3, #2]	@ movhi
 4106 0ef2 07F50473 		add	r3, r7, #528
 4107 0ef6 A3F5F473 		sub	r3, r3, #488
 4108 0efa 0022     		movs	r2, #0
 4109 0efc 5A60     		str	r2, [r3, #4]
 4110 0efe 07F50473 		add	r3, r7, #528
 4111 0f02 A3F5F473 		sub	r3, r3, #488
 4112 0f06 0022     		movs	r2, #0
 4113 0f08 9A60     		str	r2, [r3, #8]
 4114 0f0a 07F50473 		add	r3, r7, #528
 4115 0f0e A3F5F473 		sub	r3, r3, #488
 4116 0f12 0022     		movs	r2, #0
 4117 0f14 DA60     		str	r2, [r3, #12]
 4118 0f16 07F50473 		add	r3, r7, #528
 4119 0f1a A3F5F473 		sub	r3, r3, #488
 4120 0f1e 0022     		movs	r2, #0
 4121 0f20 1A61     		str	r2, [r3, #16]
 4122 0f22 07F50473 		add	r3, r7, #528
 4123 0f26 A3F5F473 		sub	r3, r3, #488
 4124 0f2a D54A     		ldr	r2, .L106
 4125 0f2c 5A61     		str	r2, [r3, #20]
 4126 0f2e 07F50473 		add	r3, r7, #528
 4127 0f32 A3F5F473 		sub	r3, r3, #488
 4128 0f36 07F5B672 		add	r2, r7, #364
 4129 0f3a 9A61     		str	r2, [r3, #24]
 4130 0f3c 07F50473 		add	r3, r7, #528
 4131 0f40 A3F5F473 		sub	r3, r3, #488
 4132 0f44 0022     		movs	r2, #0
 4133 0f46 DA61     		str	r2, [r3, #28]
 526:Lib/AI_Runtime/Npu/ll_aton/ll_sw_float.c ****                          .nl_params = NULL, )
 527:Lib/AI_Runtime/Npu/ll_aton/ll_sw_float.c ****     nonlinearity_layer.forward(AI_LAYER_OBJ(&nonlinearity_layer));
 4134              		.loc 1 527 23
 4135 0f48 07F50473 		add	r3, r7, #528
 4136 0f4c A3F5F473 		sub	r3, r3, #488
 4137 0f50 5B69     		ldr	r3, [r3, #20]
 4138              		.loc 1 527 5
 4139 0f52 07F12802 		add	r2, r7, #40
 4140 0f56 1046     		mov	r0, r2
 4141 0f58 9847     		blx	r3
 4142              	.LVL21:
 4143              	.LBE21:
 528:Lib/AI_Runtime/Npu/ll_aton/ll_sw_float.c ****   }
 529:Lib/AI_Runtime/Npu/ll_aton/ll_sw_float.c ****   break;
 4144              		.loc 1 529 3
 4145 0f5a 00F080BD 		b	.L94
 4146              	.L86:
 4147              	.LBB22:
 530:Lib/AI_Runtime/Npu/ll_aton/ll_sw_float.c ****   case LL_SW_ATANH:
 531:Lib/AI_Runtime/Npu/ll_aton/ll_sw_float.c ****   {
 532:Lib/AI_Runtime/Npu/ll_aton/ll_sw_float.c ****     AI_LAYER_OBJ_DECLARE(nonlinearity_layer, 2, NL_TYPE, 0x0, NULL, nl, forward_atanh, &activ_chain
 4148              		.loc 1 532 5
ARM GAS  /tmp/ccEo7NLA.s 			page 89


 4149 0f5e 07F50473 		add	r3, r7, #528
 4150 0f62 A3F5F473 		sub	r3, r3, #488
 4151 0f66 40F20712 		movw	r2, #263
 4152 0f6a 1A80     		strh	r2, [r3]	@ movhi
 4153 0f6c 07F50473 		add	r3, r7, #528
 4154 0f70 A3F5F473 		sub	r3, r3, #488
 4155 0f74 0222     		movs	r2, #2
 4156 0f76 5A80     		strh	r2, [r3, #2]	@ movhi
 4157 0f78 07F50473 		add	r3, r7, #528
 4158 0f7c A3F5F473 		sub	r3, r3, #488
 4159 0f80 0022     		movs	r2, #0
 4160 0f82 5A60     		str	r2, [r3, #4]
 4161 0f84 07F50473 		add	r3, r7, #528
 4162 0f88 A3F5F473 		sub	r3, r3, #488
 4163 0f8c 0022     		movs	r2, #0
 4164 0f8e 9A60     		str	r2, [r3, #8]
 4165 0f90 07F50473 		add	r3, r7, #528
 4166 0f94 A3F5F473 		sub	r3, r3, #488
 4167 0f98 0022     		movs	r2, #0
 4168 0f9a DA60     		str	r2, [r3, #12]
 4169 0f9c 07F50473 		add	r3, r7, #528
 4170 0fa0 A3F5F473 		sub	r3, r3, #488
 4171 0fa4 0022     		movs	r2, #0
 4172 0fa6 1A61     		str	r2, [r3, #16]
 4173 0fa8 07F50473 		add	r3, r7, #528
 4174 0fac A3F5F473 		sub	r3, r3, #488
 4175 0fb0 B44A     		ldr	r2, .L106+4
 4176 0fb2 5A61     		str	r2, [r3, #20]
 4177 0fb4 07F50473 		add	r3, r7, #528
 4178 0fb8 A3F5F473 		sub	r3, r3, #488
 4179 0fbc 07F5B672 		add	r2, r7, #364
 4180 0fc0 9A61     		str	r2, [r3, #24]
 4181 0fc2 07F50473 		add	r3, r7, #528
 4182 0fc6 A3F5F473 		sub	r3, r3, #488
 4183 0fca 0022     		movs	r2, #0
 4184 0fcc DA61     		str	r2, [r3, #28]
 533:Lib/AI_Runtime/Npu/ll_aton/ll_sw_float.c ****                          .nl_params = NULL, )
