ARM GAS  /tmp/ccp9R2iB.s 			page 1


   1              		.arch armv8.1-m.main
   2              		.fpu fpv5-d16
   3              		.arch_extension dsp
   4              		.arch_extension fp
   5              		.arch_extension fp.dp
   6              		.arch_extension mve
   7              		.arch_extension mve.fp
   8              		.eabi_attribute 5, "cortex-m55"
   9              		.eabi_attribute 28, 1
  10              		.eabi_attribute 20, 1
  11              		.eabi_attribute 21, 1
  12              		.eabi_attribute 23, 3
  13              		.eabi_attribute 24, 1
  14              		.eabi_attribute 25, 1
  15              		.eabi_attribute 26, 1
  16              		.eabi_attribute 30, 6
  17              		.eabi_attribute 34, 1
  18              		.eabi_attribute 38, 1
  19              		.eabi_attribute 18, 4
  20              		.file	"od_pp_yolov8.c"
  21              		.text
  22              	.Ltext0:
  23              		.cfi_sections	.debug_frame
  24              		.file 1 "Lib/lib_vision_models_pp/lib_vision_models_pp/Src/od_pp_yolov8.c"
  25              		.section	.bss.AI_YOLOV8_PP_SORT_CLASS,"aw",%nobits
  26              		.align	2
  29              	AI_YOLOV8_PP_SORT_CLASS:
  30 0000 00000000 		.space	4
  31              		.section	.text.yolov8_nms_comparator,"ax",%progbits
  32              		.align	1
  33              		.global	yolov8_nms_comparator
  34              		.syntax unified
  35              		.thumb
  36              		.thumb_func
  38              	yolov8_nms_comparator:
  39              	.LFB2645:
   1:Lib/lib_vision_models_pp/lib_vision_models_pp/Src/od_pp_yolov8.c **** /*---------------------------------------------------------------------------------------------
   2:Lib/lib_vision_models_pp/lib_vision_models_pp/Src/od_pp_yolov8.c ****  * Copyright (c) 2023 STMicroelectronics.
   3:Lib/lib_vision_models_pp/lib_vision_models_pp/Src/od_pp_yolov8.c ****  * All rights reserved.
   4:Lib/lib_vision_models_pp/lib_vision_models_pp/Src/od_pp_yolov8.c ****  *
   5:Lib/lib_vision_models_pp/lib_vision_models_pp/Src/od_pp_yolov8.c ****  * This software is licensed under terms that can be found in the LICENSE file in
   6:Lib/lib_vision_models_pp/lib_vision_models_pp/Src/od_pp_yolov8.c ****  * the root directory of this software component.
   7:Lib/lib_vision_models_pp/lib_vision_models_pp/Src/od_pp_yolov8.c ****  * If no LICENSE file comes with this software, it is provided AS-IS.
   8:Lib/lib_vision_models_pp/lib_vision_models_pp/Src/od_pp_yolov8.c ****  *--------------------------------------------------------------------------------------------*/
   9:Lib/lib_vision_models_pp/lib_vision_models_pp/Src/od_pp_yolov8.c **** 
  10:Lib/lib_vision_models_pp/lib_vision_models_pp/Src/od_pp_yolov8.c **** #include "od_pp_loc.h"
  11:Lib/lib_vision_models_pp/lib_vision_models_pp/Src/od_pp_yolov8.c **** #include "od_yolov8_pp_if.h"
  12:Lib/lib_vision_models_pp/lib_vision_models_pp/Src/od_pp_yolov8.c **** #include "vision_models_pp.h"
  13:Lib/lib_vision_models_pp/lib_vision_models_pp/Src/od_pp_yolov8.c **** 
  14:Lib/lib_vision_models_pp/lib_vision_models_pp/Src/od_pp_yolov8.c **** 
  15:Lib/lib_vision_models_pp/lib_vision_models_pp/Src/od_pp_yolov8.c **** /* Can't be removed if qsort is not re-written... */
  16:Lib/lib_vision_models_pp/lib_vision_models_pp/Src/od_pp_yolov8.c **** static int32_t AI_YOLOV8_PP_SORT_CLASS;
  17:Lib/lib_vision_models_pp/lib_vision_models_pp/Src/od_pp_yolov8.c **** 
  18:Lib/lib_vision_models_pp/lib_vision_models_pp/Src/od_pp_yolov8.c **** typedef struct
  19:Lib/lib_vision_models_pp/lib_vision_models_pp/Src/od_pp_yolov8.c **** {
  20:Lib/lib_vision_models_pp/lib_vision_models_pp/Src/od_pp_yolov8.c ****   int8_t  x_center;
  21:Lib/lib_vision_models_pp/lib_vision_models_pp/Src/od_pp_yolov8.c ****   int8_t  y_center;
ARM GAS  /tmp/ccp9R2iB.s 			page 2


  22:Lib/lib_vision_models_pp/lib_vision_models_pp/Src/od_pp_yolov8.c ****   int8_t  width;
  23:Lib/lib_vision_models_pp/lib_vision_models_pp/Src/od_pp_yolov8.c ****   int8_t  height;
  24:Lib/lib_vision_models_pp/lib_vision_models_pp/Src/od_pp_yolov8.c ****   int8_t  conf;
  25:Lib/lib_vision_models_pp/lib_vision_models_pp/Src/od_pp_yolov8.c ****   uint8_t class_index;
  26:Lib/lib_vision_models_pp/lib_vision_models_pp/Src/od_pp_yolov8.c **** } od_yolov8_pp_scratch_s8_t;
  27:Lib/lib_vision_models_pp/lib_vision_models_pp/Src/od_pp_yolov8.c **** 
  28:Lib/lib_vision_models_pp/lib_vision_models_pp/Src/od_pp_yolov8.c **** int32_t yolov8_nms_comparator(const void *pa, const void *pb)
  29:Lib/lib_vision_models_pp/lib_vision_models_pp/Src/od_pp_yolov8.c **** {
  40              		.loc 1 29 1
  41              		.cfi_startproc
  42              		@ args = 0, pretend = 0, frame = 72
  43              		@ frame_needed = 1, uses_anonymous_args = 0
  44              		@ link register save eliminated.
  45 0000 B0B4     		push	{r4, r5, r7}
  46              		.cfi_def_cfa_offset 12
  47              		.cfi_offset 4, -12
  48              		.cfi_offset 5, -8
  49              		.cfi_offset 7, -4
  50 0002 93B0     		sub	sp, sp, #76
  51              		.cfi_def_cfa_offset 88
  52 0004 00AF     		add	r7, sp, #0
  53              		.cfi_def_cfa_register 7
  54 0006 7860     		str	r0, [r7, #4]
  55 0008 3960     		str	r1, [r7]
  30:Lib/lib_vision_models_pp/lib_vision_models_pp/Src/od_pp_yolov8.c ****   od_pp_outBuffer_t a = *(od_pp_outBuffer_t *)pa;
  56              		.loc 1 30 21
  57 000a 7B68     		ldr	r3, [r7, #4]
  58 000c 07F12404 		add	r4, r7, #36
  59 0010 1D46     		mov	r5, r3
  60 0012 0FCD     		ldmia	r5!, {r0, r1, r2, r3}
  61 0014 0FC4     		stmia	r4!, {r0, r1, r2, r3}
  62 0016 95E80300 		ldm	r5, {r0, r1}
  63 001a 84E80300 		stm	r4, {r0, r1}
  31:Lib/lib_vision_models_pp/lib_vision_models_pp/Src/od_pp_yolov8.c ****   od_pp_outBuffer_t b = *(od_pp_outBuffer_t *)pb;
  64              		.loc 1 31 21
  65 001e 3B68     		ldr	r3, [r7]
  66 0020 07F10C04 		add	r4, r7, #12
  67 0024 1D46     		mov	r5, r3
  68 0026 0FCD     		ldmia	r5!, {r0, r1, r2, r3}
  69 0028 0FC4     		stmia	r4!, {r0, r1, r2, r3}
  70 002a 95E80300 		ldm	r5, {r0, r1}
  71 002e 84E80300 		stm	r4, {r0, r1}
  32:Lib/lib_vision_models_pp/lib_vision_models_pp/Src/od_pp_yolov8.c **** 
  33:Lib/lib_vision_models_pp/lib_vision_models_pp/Src/od_pp_yolov8.c ****   float32_t diff = 0.0;
  72              		.loc 1 33 13
  73 0032 4FF00003 		mov	r3, #0
  74 0036 FB63     		str	r3, [r7, #60]	@ float
  34:Lib/lib_vision_models_pp/lib_vision_models_pp/Src/od_pp_yolov8.c ****   float32_t a_weighted_conf = 0.0;
  75              		.loc 1 34 13
  76 0038 4FF00003 		mov	r3, #0
  77 003c 7B64     		str	r3, [r7, #68]	@ float
  35:Lib/lib_vision_models_pp/lib_vision_models_pp/Src/od_pp_yolov8.c ****   float32_t b_weighted_conf = 0.0;
  78              		.loc 1 35 13
  79 003e 4FF00003 		mov	r3, #0
  80 0042 3B64     		str	r3, [r7, #64]	@ float
  36:Lib/lib_vision_models_pp/lib_vision_models_pp/Src/od_pp_yolov8.c **** 
  37:Lib/lib_vision_models_pp/lib_vision_models_pp/Src/od_pp_yolov8.c ****   if (a.class_index == AI_YOLOV8_PP_SORT_CLASS)
ARM GAS  /tmp/ccp9R2iB.s 			page 3


  81              		.loc 1 37 8
  82 0044 BA6B     		ldr	r2, [r7, #56]
  83              		.loc 1 37 21
  84 0046 1B4B     		ldr	r3, .L16
  85 0048 1B68     		ldr	r3, [r3]
  86              		.loc 1 37 6
  87 004a 9A42     		cmp	r2, r3
  88 004c 02D1     		bne	.L2
  38:Lib/lib_vision_models_pp/lib_vision_models_pp/Src/od_pp_yolov8.c ****   {
  39:Lib/lib_vision_models_pp/lib_vision_models_pp/Src/od_pp_yolov8.c ****     a_weighted_conf = a.conf;
  89              		.loc 1 39 21
  90 004e 7B6B     		ldr	r3, [r7, #52]	@ float
  91 0050 7B64     		str	r3, [r7, #68]	@ float
  92 0052 02E0     		b	.L3
  93              	.L2:
  40:Lib/lib_vision_models_pp/lib_vision_models_pp/Src/od_pp_yolov8.c ****   }
  41:Lib/lib_vision_models_pp/lib_vision_models_pp/Src/od_pp_yolov8.c ****   else
  42:Lib/lib_vision_models_pp/lib_vision_models_pp/Src/od_pp_yolov8.c ****   {
  43:Lib/lib_vision_models_pp/lib_vision_models_pp/Src/od_pp_yolov8.c ****     a_weighted_conf = 0.0;
  94              		.loc 1 43 21
  95 0054 4FF00003 		mov	r3, #0
  96 0058 7B64     		str	r3, [r7, #68]	@ float
  97              	.L3:
  44:Lib/lib_vision_models_pp/lib_vision_models_pp/Src/od_pp_yolov8.c ****   }
  45:Lib/lib_vision_models_pp/lib_vision_models_pp/Src/od_pp_yolov8.c **** 
  46:Lib/lib_vision_models_pp/lib_vision_models_pp/Src/od_pp_yolov8.c ****   if (b.class_index == AI_YOLOV8_PP_SORT_CLASS)
  98              		.loc 1 46 8
  99 005a 3A6A     		ldr	r2, [r7, #32]
 100              		.loc 1 46 21
 101 005c 154B     		ldr	r3, .L16
 102 005e 1B68     		ldr	r3, [r3]
 103              		.loc 1 46 6
 104 0060 9A42     		cmp	r2, r3
 105 0062 02D1     		bne	.L4
  47:Lib/lib_vision_models_pp/lib_vision_models_pp/Src/od_pp_yolov8.c ****   {
  48:Lib/lib_vision_models_pp/lib_vision_models_pp/Src/od_pp_yolov8.c ****     b_weighted_conf = b.conf;
 106              		.loc 1 48 21
 107 0064 FB69     		ldr	r3, [r7, #28]	@ float
 108 0066 3B64     		str	r3, [r7, #64]	@ float
 109 0068 02E0     		b	.L5
 110              	.L4:
  49:Lib/lib_vision_models_pp/lib_vision_models_pp/Src/od_pp_yolov8.c ****   }
  50:Lib/lib_vision_models_pp/lib_vision_models_pp/Src/od_pp_yolov8.c ****   else
  51:Lib/lib_vision_models_pp/lib_vision_models_pp/Src/od_pp_yolov8.c ****   {
  52:Lib/lib_vision_models_pp/lib_vision_models_pp/Src/od_pp_yolov8.c ****     b_weighted_conf = 0.0;
 111              		.loc 1 52 21
 112 006a 4FF00003 		mov	r3, #0
 113 006e 3B64     		str	r3, [r7, #64]	@ float
 114              	.L5:
  53:Lib/lib_vision_models_pp/lib_vision_models_pp/Src/od_pp_yolov8.c ****   }
  54:Lib/lib_vision_models_pp/lib_vision_models_pp/Src/od_pp_yolov8.c **** 
  55:Lib/lib_vision_models_pp/lib_vision_models_pp/Src/od_pp_yolov8.c ****   diff = a_weighted_conf - b_weighted_conf;
 115              		.loc 1 55 8
 116 0070 97ED117A 		vldr.32	s14, [r7, #68]
 117 0074 D7ED107A 		vldr.32	s15, [r7, #64]
 118 0078 77EE677A 		vsub.f32	s15, s14, s15
 119 007c C7ED0F7A 		vstr.32	s15, [r7, #60]
ARM GAS  /tmp/ccp9R2iB.s 			page 4


  56:Lib/lib_vision_models_pp/lib_vision_models_pp/Src/od_pp_yolov8.c **** 
  57:Lib/lib_vision_models_pp/lib_vision_models_pp/Src/od_pp_yolov8.c ****   if (diff < 0) return 1;
 120              		.loc 1 57 6
 121 0080 D7ED0F7A 		vldr.32	s15, [r7, #60]
 122 0084 F5EEC07A 		vcmpe.f32	s15, #0
 123 0088 F1EE10FA 		vmrs	APSR_nzcv, FPSCR
 124 008c 01D5     		bpl	.L14
 125              		.loc 1 57 24 discriminator 1
 126 008e 0123     		movs	r3, #1
 127              		.loc 1 57 24 is_stmt 0
 128 0090 0AE0     		b	.L11
 129              	.L14:
  58:Lib/lib_vision_models_pp/lib_vision_models_pp/Src/od_pp_yolov8.c ****   else if (diff > 0) return -1;
 130              		.loc 1 58 11 is_stmt 1
 131 0092 D7ED0F7A 		vldr.32	s15, [r7, #60]
 132 0096 F5EEC07A 		vcmpe.f32	s15, #0
 133 009a F1EE10FA 		vmrs	APSR_nzcv, FPSCR
 134 009e 02DD     		ble	.L15
 135              		.loc 1 58 29 discriminator 1
 136 00a0 4FF0FF33 		mov	r3, #-1
 137              		.loc 1 58 29 is_stmt 0
 138 00a4 00E0     		b	.L11
 139              	.L15:
  59:Lib/lib_vision_models_pp/lib_vision_models_pp/Src/od_pp_yolov8.c ****   return 0;
 140              		.loc 1 59 10 is_stmt 1
 141 00a6 0023     		movs	r3, #0
 142              	.L11:
  60:Lib/lib_vision_models_pp/lib_vision_models_pp/Src/od_pp_yolov8.c **** }
 143              		.loc 1 60 1
 144 00a8 1846     		mov	r0, r3
 145 00aa 4C37     		adds	r7, r7, #76
 146              		.cfi_def_cfa_offset 12
 147 00ac BD46     		mov	sp, r7
 148              		.cfi_def_cfa_register 13
 149              		@ sp needed
 150 00ae B0BC     		pop	{r4, r5, r7}
 151              		.cfi_restore 7
 152              		.cfi_restore 5
 153              		.cfi_restore 4
 154              		.cfi_def_cfa_offset 0
 155 00b0 7047     		bx	lr
 156              	.L17:
 157 00b2 00BF     		.align	2
 158              	.L16:
 159 00b4 00000000 		.word	AI_YOLOV8_PP_SORT_CLASS
 160              		.cfi_endproc
 161              	.LFE2645:
 163              		.section	.text.yolov8_nms_comparator_is8,"ax",%progbits
 164              		.align	1
 165              		.global	yolov8_nms_comparator_is8
 166              		.syntax unified
 167              		.thumb
 168              		.thumb_func
 170              	yolov8_nms_comparator_is8:
 171              	.LFB2646:
  61:Lib/lib_vision_models_pp/lib_vision_models_pp/Src/od_pp_yolov8.c **** 
  62:Lib/lib_vision_models_pp/lib_vision_models_pp/Src/od_pp_yolov8.c **** int32_t yolov8_nms_comparator_is8(const void *pa, const void *pb)
ARM GAS  /tmp/ccp9R2iB.s 			page 5


  63:Lib/lib_vision_models_pp/lib_vision_models_pp/Src/od_pp_yolov8.c **** {
 172              		.loc 1 63 1
 173              		.cfi_startproc
 174              		@ args = 0, pretend = 0, frame = 32
 175              		@ frame_needed = 1, uses_anonymous_args = 0
 176              		@ link register save eliminated.
 177 0000 80B4     		push	{r7}
 178              		.cfi_def_cfa_offset 4
 179              		.cfi_offset 7, -4
 180 0002 89B0     		sub	sp, sp, #36
 181              		.cfi_def_cfa_offset 40
 182 0004 00AF     		add	r7, sp, #0
 183              		.cfi_def_cfa_register 7
 184 0006 7860     		str	r0, [r7, #4]
 185 0008 3960     		str	r1, [r7]
  64:Lib/lib_vision_models_pp/lib_vision_models_pp/Src/od_pp_yolov8.c ****   od_yolov8_pp_scratch_s8_t a = *(od_yolov8_pp_scratch_s8_t *)pa;
 186              		.loc 1 64 29
 187 000a 7A68     		ldr	r2, [r7, #4]
 188 000c 07F11403 		add	r3, r7, #20
 189 0010 1068     		ldr	r0, [r2]	@ unaligned
 190 0012 1860     		str	r0, [r3]
 191 0014 9288     		ldrh	r2, [r2, #4]	@ unaligned
 192 0016 9A80     		strh	r2, [r3, #4]	@ unaligned
  65:Lib/lib_vision_models_pp/lib_vision_models_pp/Src/od_pp_yolov8.c ****   od_yolov8_pp_scratch_s8_t b = *(od_yolov8_pp_scratch_s8_t *)pb;
 193              		.loc 1 65 29
 194 0018 3A68     		ldr	r2, [r7]
 195 001a 07F10C03 		add	r3, r7, #12
 196 001e 1068     		ldr	r0, [r2]	@ unaligned
 197 0020 1860     		str	r0, [r3]
 198 0022 9288     		ldrh	r2, [r2, #4]	@ unaligned
 199 0024 9A80     		strh	r2, [r3, #4]	@ unaligned
  66:Lib/lib_vision_models_pp/lib_vision_models_pp/Src/od_pp_yolov8.c **** 
  67:Lib/lib_vision_models_pp/lib_vision_models_pp/Src/od_pp_yolov8.c ****   int16_t diff = 0;
 200              		.loc 1 67 11
 201 0026 0023     		movs	r3, #0
 202 0028 BB83     		strh	r3, [r7, #28]	@ movhi
  68:Lib/lib_vision_models_pp/lib_vision_models_pp/Src/od_pp_yolov8.c ****   int8_t a_weighted_conf = INT8_MIN;
 203              		.loc 1 68 10
 204 002a 8023     		movs	r3, #128
 205 002c FB77     		strb	r3, [r7, #31]
  69:Lib/lib_vision_models_pp/lib_vision_models_pp/Src/od_pp_yolov8.c ****   int8_t b_weighted_conf = INT8_MIN;
 206              		.loc 1 69 10
 207 002e 8023     		movs	r3, #128
 208 0030 BB77     		strb	r3, [r7, #30]
  70:Lib/lib_vision_models_pp/lib_vision_models_pp/Src/od_pp_yolov8.c **** 
  71:Lib/lib_vision_models_pp/lib_vision_models_pp/Src/od_pp_yolov8.c ****   if (a.class_index == AI_YOLOV8_PP_SORT_CLASS)
 209              		.loc 1 71 8
 210 0032 7B7E     		ldrb	r3, [r7, #25]	@ zero_extendqisi2
 211 0034 1A46     		mov	r2, r3
 212              		.loc 1 71 21
 213 0036 184B     		ldr	r3, .L27
 214 0038 1B68     		ldr	r3, [r3]
 215              		.loc 1 71 6
 216 003a 9A42     		cmp	r2, r3
 217 003c 02D1     		bne	.L19
  72:Lib/lib_vision_models_pp/lib_vision_models_pp/Src/od_pp_yolov8.c ****   {
  73:Lib/lib_vision_models_pp/lib_vision_models_pp/Src/od_pp_yolov8.c ****     a_weighted_conf = a.conf;
ARM GAS  /tmp/ccp9R2iB.s 			page 6


 218              		.loc 1 73 21
 219 003e 3B7E     		ldrb	r3, [r7, #24]
 220 0040 FB77     		strb	r3, [r7, #31]
 221 0042 01E0     		b	.L20
 222              	.L19:
  74:Lib/lib_vision_models_pp/lib_vision_models_pp/Src/od_pp_yolov8.c ****   }
  75:Lib/lib_vision_models_pp/lib_vision_models_pp/Src/od_pp_yolov8.c ****   else
  76:Lib/lib_vision_models_pp/lib_vision_models_pp/Src/od_pp_yolov8.c ****   {
  77:Lib/lib_vision_models_pp/lib_vision_models_pp/Src/od_pp_yolov8.c ****     a_weighted_conf = INT8_MIN;
 223              		.loc 1 77 21
 224 0044 8023     		movs	r3, #128
 225 0046 FB77     		strb	r3, [r7, #31]
 226              	.L20:
  78:Lib/lib_vision_models_pp/lib_vision_models_pp/Src/od_pp_yolov8.c ****   }
  79:Lib/lib_vision_models_pp/lib_vision_models_pp/Src/od_pp_yolov8.c **** 
  80:Lib/lib_vision_models_pp/lib_vision_models_pp/Src/od_pp_yolov8.c ****   if (b.class_index == AI_YOLOV8_PP_SORT_CLASS)
 227              		.loc 1 80 8
 228 0048 7B7C     		ldrb	r3, [r7, #17]	@ zero_extendqisi2
 229 004a 1A46     		mov	r2, r3
 230              		.loc 1 80 21
 231 004c 124B     		ldr	r3, .L27
 232 004e 1B68     		ldr	r3, [r3]
 233              		.loc 1 80 6
 234 0050 9A42     		cmp	r2, r3
 235 0052 02D1     		bne	.L21
  81:Lib/lib_vision_models_pp/lib_vision_models_pp/Src/od_pp_yolov8.c ****   {
  82:Lib/lib_vision_models_pp/lib_vision_models_pp/Src/od_pp_yolov8.c ****     b_weighted_conf = b.conf;
 236              		.loc 1 82 21
 237 0054 3B7C     		ldrb	r3, [r7, #16]
 238 0056 BB77     		strb	r3, [r7, #30]
 239 0058 01E0     		b	.L22
 240              	.L21:
  83:Lib/lib_vision_models_pp/lib_vision_models_pp/Src/od_pp_yolov8.c ****   }
  84:Lib/lib_vision_models_pp/lib_vision_models_pp/Src/od_pp_yolov8.c ****   else
  85:Lib/lib_vision_models_pp/lib_vision_models_pp/Src/od_pp_yolov8.c ****   {
  86:Lib/lib_vision_models_pp/lib_vision_models_pp/Src/od_pp_yolov8.c ****     b_weighted_conf = INT8_MIN;
 241              		.loc 1 86 21
 242 005a 8023     		movs	r3, #128
 243 005c BB77     		strb	r3, [r7, #30]
 244              	.L22:
  87:Lib/lib_vision_models_pp/lib_vision_models_pp/Src/od_pp_yolov8.c ****   }
  88:Lib/lib_vision_models_pp/lib_vision_models_pp/Src/od_pp_yolov8.c **** 
  89:Lib/lib_vision_models_pp/lib_vision_models_pp/Src/od_pp_yolov8.c ****   diff = a_weighted_conf - b_weighted_conf;
 245              		.loc 1 89 26
 246 005e 97F91F30 		ldrsb	r3, [r7, #31]
 247 0062 1AB2     		sxth	r2, r3
 248 0064 97F91E30 		ldrsb	r3, [r7, #30]
 249 0068 1BB2     		sxth	r3, r3
 250              		.loc 1 89 8
 251 006a D31A     		subs	r3, r2, r3
 252 006c BB83     		strh	r3, [r7, #28]	@ movhi
  90:Lib/lib_vision_models_pp/lib_vision_models_pp/Src/od_pp_yolov8.c **** 
  91:Lib/lib_vision_models_pp/lib_vision_models_pp/Src/od_pp_yolov8.c ****   if (diff < 0) return 1;
 253              		.loc 1 91 6
 254 006e B7F91C30 		ldrsh	r3, [r7, #28]
 255 0072 002B     		cmp	r3, #0
 256 0074 01DA     		bge	.L23
ARM GAS  /tmp/ccp9R2iB.s 			page 7


 257              		.loc 1 91 24 discriminator 1
 258 0076 0123     		movs	r3, #1
 259              		.loc 1 91 24 is_stmt 0
 260 0078 07E0     		b	.L26
 261              	.L23:
  92:Lib/lib_vision_models_pp/lib_vision_models_pp/Src/od_pp_yolov8.c ****   else if (diff > 0) return -1;
 262              		.loc 1 92 11 is_stmt 1
 263 007a B7F91C30 		ldrsh	r3, [r7, #28]
 264 007e 002B     		cmp	r3, #0
 265 0080 02DD     		ble	.L25
 266              		.loc 1 92 29 discriminator 1
 267 0082 4FF0FF33 		mov	r3, #-1
 268              		.loc 1 92 29 is_stmt 0
 269 0086 00E0     		b	.L26
 270              	.L25:
  93:Lib/lib_vision_models_pp/lib_vision_models_pp/Src/od_pp_yolov8.c ****   return 0;
 271              		.loc 1 93 10 is_stmt 1
 272 0088 0023     		movs	r3, #0
 273              	.L26:
  94:Lib/lib_vision_models_pp/lib_vision_models_pp/Src/od_pp_yolov8.c **** }
 274              		.loc 1 94 1
 275 008a 1846     		mov	r0, r3
 276 008c 2437     		adds	r7, r7, #36
 277              		.cfi_def_cfa_offset 4
 278 008e BD46     		mov	sp, r7
 279              		.cfi_def_cfa_register 13
 280              		@ sp needed
 281 0090 5DF8047B 		ldr	r7, [sp], #4
 282              		.cfi_restore 7
 283              		.cfi_def_cfa_offset 0
 284 0094 7047     		bx	lr
 285              	.L28:
 286 0096 00BF     		.align	2
 287              	.L27:
 288 0098 00000000 		.word	AI_YOLOV8_PP_SORT_CLASS
 289              		.cfi_endproc
 290              	.LFE2646:
 292              		.section	.text.yolov8_pp_nmsFiltering_centroid,"ax",%progbits
 293              		.align	1
 294              		.global	yolov8_pp_nmsFiltering_centroid
 295              		.syntax unified
 296              		.thumb
 297              		.thumb_func
 299              	yolov8_pp_nmsFiltering_centroid:
 300              	.LFB2647:
  95:Lib/lib_vision_models_pp/lib_vision_models_pp/Src/od_pp_yolov8.c **** 
  96:Lib/lib_vision_models_pp/lib_vision_models_pp/Src/od_pp_yolov8.c **** 
  97:Lib/lib_vision_models_pp/lib_vision_models_pp/Src/od_pp_yolov8.c **** int32_t yolov8_pp_nmsFiltering_centroid(od_pp_out_t *pOutput,
  98:Lib/lib_vision_models_pp/lib_vision_models_pp/Src/od_pp_yolov8.c ****                                         od_yolov8_pp_static_param_t *pInput_static_param)
  99:Lib/lib_vision_models_pp/lib_vision_models_pp/Src/od_pp_yolov8.c **** {
 301              		.loc 1 99 1
 302              		.cfi_startproc
 303              		@ args = 0, pretend = 0, frame = 48
 304              		@ frame_needed = 1, uses_anonymous_args = 0
 305 0000 80B5     		push	{r7, lr}
 306              		.cfi_def_cfa_offset 8
 307              		.cfi_offset 7, -8
ARM GAS  /tmp/ccp9R2iB.s 			page 8


 308              		.cfi_offset 14, -4
 309 0002 8CB0     		sub	sp, sp, #48
 310              		.cfi_def_cfa_offset 56
 311 0004 00AF     		add	r7, sp, #0
 312              		.cfi_def_cfa_register 7
 313 0006 7860     		str	r0, [r7, #4]
 314 0008 3960     		str	r1, [r7]
 100:Lib/lib_vision_models_pp/lib_vision_models_pp/Src/od_pp_yolov8.c ****   int32_t j, k, limit_counter, detections_per_class;
 101:Lib/lib_vision_models_pp/lib_vision_models_pp/Src/od_pp_yolov8.c **** 
 102:Lib/lib_vision_models_pp/lib_vision_models_pp/Src/od_pp_yolov8.c ****   for (k = 0; k < pInput_static_param->nb_classes; ++k)
 315              		.loc 1 102 10
 316 000a 0023     		movs	r3, #0
 317 000c BB62     		str	r3, [r7, #40]
 318              		.loc 1 102 3
 319 000e BFE0     		b	.L30
 320              	.L48:
 103:Lib/lib_vision_models_pp/lib_vision_models_pp/Src/od_pp_yolov8.c ****   {
 104:Lib/lib_vision_models_pp/lib_vision_models_pp/Src/od_pp_yolov8.c ****     limit_counter = 0;
 321              		.loc 1 104 19
 322 0010 0023     		movs	r3, #0
 323 0012 7B62     		str	r3, [r7, #36]
 105:Lib/lib_vision_models_pp/lib_vision_models_pp/Src/od_pp_yolov8.c ****     detections_per_class = 0;
 324              		.loc 1 105 26
 325 0014 0023     		movs	r3, #0
 326 0016 3B62     		str	r3, [r7, #32]
 106:Lib/lib_vision_models_pp/lib_vision_models_pp/Src/od_pp_yolov8.c ****     AI_YOLOV8_PP_SORT_CLASS = k;
 327              		.loc 1 106 29
 328 0018 634A     		ldr	r2, .L53
 329 001a BB6A     		ldr	r3, [r7, #40]
 330 001c 1360     		str	r3, [r2]
 331              	.LBB2:
 107:Lib/lib_vision_models_pp/lib_vision_models_pp/Src/od_pp_yolov8.c **** 
 108:Lib/lib_vision_models_pp/lib_vision_models_pp/Src/od_pp_yolov8.c ****     /* Counts the number of detections with class k */
 109:Lib/lib_vision_models_pp/lib_vision_models_pp/Src/od_pp_yolov8.c ****     for (int32_t i = 0; i < pInput_static_param->nb_detect ; i ++)
 332              		.loc 1 109 18
 333 001e 0023     		movs	r3, #0
 334 0020 FB61     		str	r3, [r7, #28]
 335              		.loc 1 109 5
 336 0022 11E0     		b	.L31
 337              	.L33:
 110:Lib/lib_vision_models_pp/lib_vision_models_pp/Src/od_pp_yolov8.c ****     {
 111:Lib/lib_vision_models_pp/lib_vision_models_pp/Src/od_pp_yolov8.c ****       if(pOutput->pOutBuff[i].class_index == k)
 338              		.loc 1 111 17
 339 0024 7B68     		ldr	r3, [r7, #4]
 340 0026 1968     		ldr	r1, [r3]
 341              		.loc 1 111 27
 342 0028 FA69     		ldr	r2, [r7, #28]
 343 002a 1346     		mov	r3, r2
 344 002c 5B00     		lsls	r3, r3, #1
 345 002e 1344     		add	r3, r3, r2
 346 0030 DB00     		lsls	r3, r3, #3
 347 0032 0B44     		add	r3, r3, r1
 348              		.loc 1 111 30
 349 0034 5B69     		ldr	r3, [r3, #20]
 350              		.loc 1 111 9
 351 0036 BA6A     		ldr	r2, [r7, #40]
 352 0038 9A42     		cmp	r2, r3
ARM GAS  /tmp/ccp9R2iB.s 			page 9


 353 003a 02D1     		bne	.L32
 112:Lib/lib_vision_models_pp/lib_vision_models_pp/Src/od_pp_yolov8.c ****       {
 113:Lib/lib_vision_models_pp/lib_vision_models_pp/Src/od_pp_yolov8.c ****           detections_per_class++;
 354              		.loc 1 113 31
 355 003c 3B6A     		ldr	r3, [r7, #32]
 356 003e 0133     		adds	r3, r3, #1
 357 0040 3B62     		str	r3, [r7, #32]
 358              	.L32:
 109:Lib/lib_vision_models_pp/lib_vision_models_pp/Src/od_pp_yolov8.c ****     {
 359              		.loc 1 109 64 discriminator 2
 360 0042 FB69     		ldr	r3, [r7, #28]
 361 0044 0133     		adds	r3, r3, #1
 362 0046 FB61     		str	r3, [r7, #28]
 363              	.L31:
 109:Lib/lib_vision_models_pp/lib_vision_models_pp/Src/od_pp_yolov8.c ****     {
 364              		.loc 1 109 48 discriminator 1
 365 0048 3B68     		ldr	r3, [r7]
 366 004a DB69     		ldr	r3, [r3, #28]
 109:Lib/lib_vision_models_pp/lib_vision_models_pp/Src/od_pp_yolov8.c ****     {
 367              		.loc 1 109 27 discriminator 1
 368 004c FA69     		ldr	r2, [r7, #28]
 369 004e 9A42     		cmp	r2, r3
 370 0050 E8DB     		blt	.L33
 371              	.LBE2:
 114:Lib/lib_vision_models_pp/lib_vision_models_pp/Src/od_pp_yolov8.c ****       }
 115:Lib/lib_vision_models_pp/lib_vision_models_pp/Src/od_pp_yolov8.c ****     }
 116:Lib/lib_vision_models_pp/lib_vision_models_pp/Src/od_pp_yolov8.c **** 
 117:Lib/lib_vision_models_pp/lib_vision_models_pp/Src/od_pp_yolov8.c ****     if (detections_per_class > 0)
 372              		.loc 1 117 8
 373 0052 3B6A     		ldr	r3, [r7, #32]
 374 0054 002B     		cmp	r3, #0
 375 0056 40F39880 		ble	.L34
 118:Lib/lib_vision_models_pp/lib_vision_models_pp/Src/od_pp_yolov8.c ****     {
 119:Lib/lib_vision_models_pp/lib_vision_models_pp/Src/od_pp_yolov8.c ****       /* Sorts detections based on class k */
 120:Lib/lib_vision_models_pp/lib_vision_models_pp/Src/od_pp_yolov8.c ****       qsort(pOutput->pOutBuff,
 376              		.loc 1 120 20
 377 005a 7B68     		ldr	r3, [r7, #4]
 378 005c 1868     		ldr	r0, [r3]
 121:Lib/lib_vision_models_pp/lib_vision_models_pp/Src/od_pp_yolov8.c ****             pInput_static_param->nb_detect,
 379              		.loc 1 121 32
 380 005e 3B68     		ldr	r3, [r7]
 381 0060 DB69     		ldr	r3, [r3, #28]
 120:Lib/lib_vision_models_pp/lib_vision_models_pp/Src/od_pp_yolov8.c ****             pInput_static_param->nb_detect,
 382              		.loc 1 120 7
 383 0062 1946     		mov	r1, r3
 384 0064 514B     		ldr	r3, .L53+4
 385 0066 1822     		movs	r2, #24
 386 0068 FFF7FEFF 		bl	qsort
 387              	.LBB3:
 122:Lib/lib_vision_models_pp/lib_vision_models_pp/Src/od_pp_yolov8.c ****             sizeof(od_pp_outBuffer_t),
 123:Lib/lib_vision_models_pp/lib_vision_models_pp/Src/od_pp_yolov8.c ****             yolov8_nms_comparator);
 124:Lib/lib_vision_models_pp/lib_vision_models_pp/Src/od_pp_yolov8.c **** 
 125:Lib/lib_vision_models_pp/lib_vision_models_pp/Src/od_pp_yolov8.c ****       for (int32_t i = 0; i < detections_per_class ; i ++)
 388              		.loc 1 125 20
 389 006c 0023     		movs	r3, #0
 390 006e BB61     		str	r3, [r7, #24]
 391              		.loc 1 125 7
ARM GAS  /tmp/ccp9R2iB.s 			page 10


 392 0070 5AE0     		b	.L35
 393              	.L43:
 394              	.LBB4:
 126:Lib/lib_vision_models_pp/lib_vision_models_pp/Src/od_pp_yolov8.c ****       {
 127:Lib/lib_vision_models_pp/lib_vision_models_pp/Src/od_pp_yolov8.c ****         if (pOutput->pOutBuff[i].conf == 0) continue; // Already filtered
 395              		.loc 1 127 20
 396 0072 7B68     		ldr	r3, [r7, #4]
 397 0074 1968     		ldr	r1, [r3]
 398              		.loc 1 127 30
 399 0076 BA69     		ldr	r2, [r7, #24]
 400 0078 1346     		mov	r3, r2
 401 007a 5B00     		lsls	r3, r3, #1
 402 007c 1344     		add	r3, r3, r2
 403 007e DB00     		lsls	r3, r3, #3
 404 0080 0B44     		add	r3, r3, r1
 405              		.loc 1 127 33
 406 0082 D3ED047A 		vldr.32	s15, [r3, #16]
 407              		.loc 1 127 12
 408 0086 F5EE407A 		vcmp.f32	s15, #0
 409 008a F1EE10FA 		vmrs	APSR_nzcv, FPSCR
 410 008e 47D0     		beq	.L51
 128:Lib/lib_vision_models_pp/lib_vision_models_pp/Src/od_pp_yolov8.c ****         float32_t *a = &(pOutput->pOutBuff[i].x_center);
 411              		.loc 1 128 33
 412 0090 7B68     		ldr	r3, [r7, #4]
 413 0092 1968     		ldr	r1, [r3]
 414              		.loc 1 128 43
 415 0094 BA69     		ldr	r2, [r7, #24]
 416 0096 1346     		mov	r3, r2
 417 0098 5B00     		lsls	r3, r3, #1
 418 009a 1344     		add	r3, r3, r2
 419 009c DB00     		lsls	r3, r3, #3
 420 009e 0B44     		add	r3, r3, r1
 421              		.loc 1 128 20
 422 00a0 3B61     		str	r3, [r7, #16]
 129:Lib/lib_vision_models_pp/lib_vision_models_pp/Src/od_pp_yolov8.c ****         for (j = i + 1; j < detections_per_class; j ++)
 423              		.loc 1 129 16
 424 00a2 BB69     		ldr	r3, [r7, #24]
 425 00a4 0133     		adds	r3, r3, #1
 426 00a6 FB62     		str	r3, [r7, #44]
 427              		.loc 1 129 9
 428 00a8 35E0     		b	.L38
 429              	.L42:
 430              	.LBB5:
 130:Lib/lib_vision_models_pp/lib_vision_models_pp/Src/od_pp_yolov8.c ****         {
 131:Lib/lib_vision_models_pp/lib_vision_models_pp/Src/od_pp_yolov8.c ****           if (pOutput->pOutBuff[j].conf == 0) continue; // Already filtered
 431              		.loc 1 131 22
 432 00aa 7B68     		ldr	r3, [r7, #4]
 433 00ac 1968     		ldr	r1, [r3]
 434              		.loc 1 131 32
 435 00ae FA6A     		ldr	r2, [r7, #44]
 436 00b0 1346     		mov	r3, r2
 437 00b2 5B00     		lsls	r3, r3, #1
 438 00b4 1344     		add	r3, r3, r2
 439 00b6 DB00     		lsls	r3, r3, #3
 440 00b8 0B44     		add	r3, r3, r1
 441              		.loc 1 131 35
 442 00ba D3ED047A 		vldr.32	s15, [r3, #16]
ARM GAS  /tmp/ccp9R2iB.s 			page 11


 443              		.loc 1 131 14
 444 00be F5EE407A 		vcmp.f32	s15, #0
 445 00c2 F1EE10FA 		vmrs	APSR_nzcv, FPSCR
 446 00c6 22D0     		beq	.L52
 132:Lib/lib_vision_models_pp/lib_vision_models_pp/Src/od_pp_yolov8.c ****           float32_t *b = &(pOutput->pOutBuff[j].x_center);
 447              		.loc 1 132 35
 448 00c8 7B68     		ldr	r3, [r7, #4]
 449 00ca 1968     		ldr	r1, [r3]
 450              		.loc 1 132 45
 451 00cc FA6A     		ldr	r2, [r7, #44]
 452 00ce 1346     		mov	r3, r2
 453 00d0 5B00     		lsls	r3, r3, #1
 454 00d2 1344     		add	r3, r3, r2
 455 00d4 DB00     		lsls	r3, r3, #3
 456 00d6 0B44     		add	r3, r3, r1
 457              		.loc 1 132 22
 458 00d8 FB60     		str	r3, [r7, #12]
 133:Lib/lib_vision_models_pp/lib_vision_models_pp/Src/od_pp_yolov8.c ****           if (vision_models_box_iou(a, b) > pInput_static_param->iou_threshold)
 459              		.loc 1 133 15
 460 00da F968     		ldr	r1, [r7, #12]
 461 00dc 3869     		ldr	r0, [r7, #16]
 462 00de FFF7FEFF 		bl	vision_models_box_iou
 463 00e2 B0EE407A 		vmov.f32	s14, s0
 464              		.loc 1 133 64 discriminator 1
 465 00e6 3B68     		ldr	r3, [r7]
 466 00e8 D3ED047A 		vldr.32	s15, [r3, #16]
 467              		.loc 1 133 14 discriminator 1
 468 00ec B4EEE77A 		vcmpe.f32	s14, s15
 469 00f0 F1EE10FA 		vmrs	APSR_nzcv, FPSCR
 470 00f4 0CDD     		ble	.L40
 134:Lib/lib_vision_models_pp/lib_vision_models_pp/Src/od_pp_yolov8.c ****           {
 135:Lib/lib_vision_models_pp/lib_vision_models_pp/Src/od_pp_yolov8.c ****             pOutput->pOutBuff[j].conf = 0;
 471              		.loc 1 135 20
 472 00f6 7B68     		ldr	r3, [r7, #4]
 473 00f8 1968     		ldr	r1, [r3]
 474              		.loc 1 135 30
 475 00fa FA6A     		ldr	r2, [r7, #44]
 476 00fc 1346     		mov	r3, r2
 477 00fe 5B00     		lsls	r3, r3, #1
 478 0100 1344     		add	r3, r3, r2
 479 0102 DB00     		lsls	r3, r3, #3
 480 0104 0B44     		add	r3, r3, r1
 481              		.loc 1 135 39
 482 0106 4FF00002 		mov	r2, #0
 483 010a 1A61     		str	r2, [r3, #16]	@ float
 484 010c 00E0     		b	.L40
 485              	.L52:
 131:Lib/lib_vision_models_pp/lib_vision_models_pp/Src/od_pp_yolov8.c ****           float32_t *b = &(pOutput->pOutBuff[j].x_center);
 486              		.loc 1 131 47
 487 010e 00BF     		nop
 488              	.L40:
 489              	.LBE5:
 129:Lib/lib_vision_models_pp/lib_vision_models_pp/Src/od_pp_yolov8.c ****         {
 490              		.loc 1 129 53 discriminator 2
 491 0110 FB6A     		ldr	r3, [r7, #44]
 492 0112 0133     		adds	r3, r3, #1
 493 0114 FB62     		str	r3, [r7, #44]
ARM GAS  /tmp/ccp9R2iB.s 			page 12


 494              	.L38:
 129:Lib/lib_vision_models_pp/lib_vision_models_pp/Src/od_pp_yolov8.c ****         {
 495              		.loc 1 129 27 discriminator 1
 496 0116 FA6A     		ldr	r2, [r7, #44]
 497 0118 3B6A     		ldr	r3, [r7, #32]
 498 011a 9A42     		cmp	r2, r3
 499 011c C5DB     		blt	.L42
 500 011e 00E0     		b	.L37
 501              	.L51:
 127:Lib/lib_vision_models_pp/lib_vision_models_pp/Src/od_pp_yolov8.c ****         float32_t *a = &(pOutput->pOutBuff[i].x_center);
 502              		.loc 1 127 45
 503 0120 00BF     		nop
 504              	.L37:
 505              	.LBE4:
 125:Lib/lib_vision_models_pp/lib_vision_models_pp/Src/od_pp_yolov8.c ****       {
 506              		.loc 1 125 56 discriminator 2
 507 0122 BB69     		ldr	r3, [r7, #24]
 508 0124 0133     		adds	r3, r3, #1
 509 0126 BB61     		str	r3, [r7, #24]
 510              	.L35:
 125:Lib/lib_vision_models_pp/lib_vision_models_pp/Src/od_pp_yolov8.c ****       {
 511              		.loc 1 125 29 discriminator 1
 512 0128 BA69     		ldr	r2, [r7, #24]
 513 012a 3B6A     		ldr	r3, [r7, #32]
 514 012c 9A42     		cmp	r2, r3
 515 012e A0DB     		blt	.L43
 516              	.LBE3:
 517              	.LBB6:
 136:Lib/lib_vision_models_pp/lib_vision_models_pp/Src/od_pp_yolov8.c ****           }
 137:Lib/lib_vision_models_pp/lib_vision_models_pp/Src/od_pp_yolov8.c ****         }
 138:Lib/lib_vision_models_pp/lib_vision_models_pp/Src/od_pp_yolov8.c ****       }
 139:Lib/lib_vision_models_pp/lib_vision_models_pp/Src/od_pp_yolov8.c **** 
 140:Lib/lib_vision_models_pp/lib_vision_models_pp/Src/od_pp_yolov8.c ****       /* Limits detections count */
 141:Lib/lib_vision_models_pp/lib_vision_models_pp/Src/od_pp_yolov8.c ****       for (int32_t i = 0; i < detections_per_class; i++)
 518              		.loc 1 141 20
 519 0130 0023     		movs	r3, #0
 520 0132 7B61     		str	r3, [r7, #20]
 521              		.loc 1 141 7
 522 0134 25E0     		b	.L44
 523              	.L47:
 142:Lib/lib_vision_models_pp/lib_vision_models_pp/Src/od_pp_yolov8.c ****       {
 143:Lib/lib_vision_models_pp/lib_vision_models_pp/Src/od_pp_yolov8.c ****         if ((limit_counter < pInput_static_param->max_boxes_limit) &&
 524              		.loc 1 143 49
 525 0136 3B68     		ldr	r3, [r7]
 526 0138 9B68     		ldr	r3, [r3, #8]
 527              		.loc 1 143 12
 528 013a 7A6A     		ldr	r2, [r7, #36]
 529 013c 9A42     		cmp	r2, r3
 530 013e 12DA     		bge	.L45
 144:Lib/lib_vision_models_pp/lib_vision_models_pp/Src/od_pp_yolov8.c ****             (pOutput->pOutBuff[i].conf != 0))
 531              		.loc 1 144 21
 532 0140 7B68     		ldr	r3, [r7, #4]
 533 0142 1968     		ldr	r1, [r3]
 534              		.loc 1 144 31
 535 0144 7A69     		ldr	r2, [r7, #20]
 536 0146 1346     		mov	r3, r2
 537 0148 5B00     		lsls	r3, r3, #1
ARM GAS  /tmp/ccp9R2iB.s 			page 13


 538 014a 1344     		add	r3, r3, r2
 539 014c DB00     		lsls	r3, r3, #3
 540 014e 0B44     		add	r3, r3, r1
 541              		.loc 1 144 34
 542 0150 D3ED047A 		vldr.32	s15, [r3, #16]
 143:Lib/lib_vision_models_pp/lib_vision_models_pp/Src/od_pp_yolov8.c ****             (pOutput->pOutBuff[i].conf != 0))
 543              		.loc 1 143 68 discriminator 1
 544 0154 F5EE407A 		vcmp.f32	s15, #0
 545 0158 F1EE10FA 		vmrs	APSR_nzcv, FPSCR
 546 015c 03D0     		beq	.L45
 145:Lib/lib_vision_models_pp/lib_vision_models_pp/Src/od_pp_yolov8.c ****         {
 146:Lib/lib_vision_models_pp/lib_vision_models_pp/Src/od_pp_yolov8.c ****           limit_counter++;
 547              		.loc 1 146 24
 548 015e 7B6A     		ldr	r3, [r7, #36]
 549 0160 0133     		adds	r3, r3, #1
 550 0162 7B62     		str	r3, [r7, #36]
 551 0164 0AE0     		b	.L46
 552              	.L45:
 147:Lib/lib_vision_models_pp/lib_vision_models_pp/Src/od_pp_yolov8.c ****         }
 148:Lib/lib_vision_models_pp/lib_vision_models_pp/Src/od_pp_yolov8.c ****         else
 149:Lib/lib_vision_models_pp/lib_vision_models_pp/Src/od_pp_yolov8.c ****         {
 150:Lib/lib_vision_models_pp/lib_vision_models_pp/Src/od_pp_yolov8.c ****           pOutput->pOutBuff[i].conf = 0;
 553              		.loc 1 150 18
 554 0166 7B68     		ldr	r3, [r7, #4]
 555 0168 1968     		ldr	r1, [r3]
 556              		.loc 1 150 28
 557 016a 7A69     		ldr	r2, [r7, #20]
 558 016c 1346     		mov	r3, r2
 559 016e 5B00     		lsls	r3, r3, #1
 560 0170 1344     		add	r3, r3, r2
 561 0172 DB00     		lsls	r3, r3, #3
 562 0174 0B44     		add	r3, r3, r1
 563              		.loc 1 150 37
 564 0176 4FF00002 		mov	r2, #0
 565 017a 1A61     		str	r2, [r3, #16]	@ float
 566              	.L46:
 141:Lib/lib_vision_models_pp/lib_vision_models_pp/Src/od_pp_yolov8.c ****       {
 567              		.loc 1 141 54 discriminator 2
 568 017c 7B69     		ldr	r3, [r7, #20]
 569 017e 0133     		adds	r3, r3, #1
 570 0180 7B61     		str	r3, [r7, #20]
 571              	.L44:
 141:Lib/lib_vision_models_pp/lib_vision_models_pp/Src/od_pp_yolov8.c ****       {
 572              		.loc 1 141 29 discriminator 1
 573 0182 7A69     		ldr	r2, [r7, #20]
 574 0184 3B6A     		ldr	r3, [r7, #32]
 575 0186 9A42     		cmp	r2, r3
 576 0188 D5DB     		blt	.L47
 577              	.L34:
 578              	.LBE6:
 102:Lib/lib_vision_models_pp/lib_vision_models_pp/Src/od_pp_yolov8.c ****   {
 579              		.loc 1 102 52 discriminator 2
 580 018a BB6A     		ldr	r3, [r7, #40]
 581 018c 0133     		adds	r3, r3, #1
 582 018e BB62     		str	r3, [r7, #40]
 583              	.L30:
 102:Lib/lib_vision_models_pp/lib_vision_models_pp/Src/od_pp_yolov8.c ****   {
ARM GAS  /tmp/ccp9R2iB.s 			page 14


 584              		.loc 1 102 38 discriminator 1
 585 0190 3B68     		ldr	r3, [r7]
 586 0192 1B68     		ldr	r3, [r3]
 102:Lib/lib_vision_models_pp/lib_vision_models_pp/Src/od_pp_yolov8.c ****   {
 587              		.loc 1 102 17 discriminator 1
 588 0194 BA6A     		ldr	r2, [r7, #40]
 589 0196 9A42     		cmp	r2, r3
 590 0198 FFF63AAF 		blt	.L48
 151:Lib/lib_vision_models_pp/lib_vision_models_pp/Src/od_pp_yolov8.c ****         }
 152:Lib/lib_vision_models_pp/lib_vision_models_pp/Src/od_pp_yolov8.c ****       } // for detection_per_class
 153:Lib/lib_vision_models_pp/lib_vision_models_pp/Src/od_pp_yolov8.c ****     } // if detection_per_class
 154:Lib/lib_vision_models_pp/lib_vision_models_pp/Src/od_pp_yolov8.c ****   } // for nb_classes
 155:Lib/lib_vision_models_pp/lib_vision_models_pp/Src/od_pp_yolov8.c ****   return (AI_OD_POSTPROCESS_ERROR_NO);
 591              		.loc 1 155 10
 592 019c 0023     		movs	r3, #0
 156:Lib/lib_vision_models_pp/lib_vision_models_pp/Src/od_pp_yolov8.c **** }
 593              		.loc 1 156 1
 594 019e 1846     		mov	r0, r3
 595 01a0 3037     		adds	r7, r7, #48
 596              		.cfi_def_cfa_offset 8
 597 01a2 BD46     		mov	sp, r7
 598              		.cfi_def_cfa_register 13
 599              		@ sp needed
 600 01a4 80BD     		pop	{r7, pc}
 601              	.L54:
 602 01a6 00BF     		.align	2
 603              	.L53:
 604 01a8 00000000 		.word	AI_YOLOV8_PP_SORT_CLASS
 605 01ac 00000000 		.word	yolov8_nms_comparator
 606              		.cfi_endproc
 607              	.LFE2647:
 609              		.section	.text.yolov8_pp_nmsFiltering_centroid_is8,"ax",%progbits
 610              		.align	1
 611              		.global	yolov8_pp_nmsFiltering_centroid_is8
 612              		.syntax unified
 613              		.thumb
 614              		.thumb_func
 616              	yolov8_pp_nmsFiltering_centroid_is8:
 617              	.LFB2648:
 157:Lib/lib_vision_models_pp/lib_vision_models_pp/Src/od_pp_yolov8.c **** 
 158:Lib/lib_vision_models_pp/lib_vision_models_pp/Src/od_pp_yolov8.c **** int32_t yolov8_pp_nmsFiltering_centroid_is8(od_yolov8_pp_scratch_s8_t *ptrScratch,
 159:Lib/lib_vision_models_pp/lib_vision_models_pp/Src/od_pp_yolov8.c ****                                             od_yolov8_pp_static_param_t *pInput_static_param)
 160:Lib/lib_vision_models_pp/lib_vision_models_pp/Src/od_pp_yolov8.c **** {
 618              		.loc 1 160 1
 619              		.cfi_startproc
 620              		@ args = 0, pretend = 0, frame = 48
 621              		@ frame_needed = 1, uses_anonymous_args = 0
 622 0000 80B5     		push	{r7, lr}
 623              		.cfi_def_cfa_offset 8
 624              		.cfi_offset 7, -8
 625              		.cfi_offset 14, -4
 626 0002 8CB0     		sub	sp, sp, #48
 627              		.cfi_def_cfa_offset 56
 628 0004 00AF     		add	r7, sp, #0
 629              		.cfi_def_cfa_register 7
 630 0006 7860     		str	r0, [r7, #4]
 631 0008 3960     		str	r1, [r7]
ARM GAS  /tmp/ccp9R2iB.s 			page 15


 161:Lib/lib_vision_models_pp/lib_vision_models_pp/Src/od_pp_yolov8.c ****   int32_t j, k, limit_counter, detections_per_class;
 162:Lib/lib_vision_models_pp/lib_vision_models_pp/Src/od_pp_yolov8.c **** 
 163:Lib/lib_vision_models_pp/lib_vision_models_pp/Src/od_pp_yolov8.c ****   for (k = 0; k < pInput_static_param->nb_classes; ++k)
 632              		.loc 1 163 10
 633 000a 0023     		movs	r3, #0
 634 000c BB62     		str	r3, [r7, #40]
 635              		.loc 1 163 3
 636 000e BBE0     		b	.L56
 637              	.L74:
 164:Lib/lib_vision_models_pp/lib_vision_models_pp/Src/od_pp_yolov8.c ****   {
 165:Lib/lib_vision_models_pp/lib_vision_models_pp/Src/od_pp_yolov8.c ****     limit_counter = 0;
 638              		.loc 1 165 19
 639 0010 0023     		movs	r3, #0
 640 0012 7B62     		str	r3, [r7, #36]
 166:Lib/lib_vision_models_pp/lib_vision_models_pp/Src/od_pp_yolov8.c ****     detections_per_class = 0;
 641              		.loc 1 166 26
 642 0014 0023     		movs	r3, #0
 643 0016 3B62     		str	r3, [r7, #32]
 167:Lib/lib_vision_models_pp/lib_vision_models_pp/Src/od_pp_yolov8.c ****     AI_YOLOV8_PP_SORT_CLASS = k;
 644              		.loc 1 167 29
 645 0018 614A     		ldr	r2, .L79
 646 001a BB6A     		ldr	r3, [r7, #40]
 647 001c 1360     		str	r3, [r2]
 648              	.LBB7:
 168:Lib/lib_vision_models_pp/lib_vision_models_pp/Src/od_pp_yolov8.c **** 
 169:Lib/lib_vision_models_pp/lib_vision_models_pp/Src/od_pp_yolov8.c ****     /* Counts the number of detections with class k */
 170:Lib/lib_vision_models_pp/lib_vision_models_pp/Src/od_pp_yolov8.c ****     for (int32_t i = 0; i < pInput_static_param->nb_detect ; i ++)
 649              		.loc 1 170 18
 650 001e 0023     		movs	r3, #0
 651 0020 FB61     		str	r3, [r7, #28]
 652              		.loc 1 170 5
 653 0022 12E0     		b	.L57
 654              	.L59:
 171:Lib/lib_vision_models_pp/lib_vision_models_pp/Src/od_pp_yolov8.c ****     {
 172:Lib/lib_vision_models_pp/lib_vision_models_pp/Src/od_pp_yolov8.c ****       if(ptrScratch[i].class_index == k)
 655              		.loc 1 172 20
 656 0024 FA69     		ldr	r2, [r7, #28]
 657 0026 1346     		mov	r3, r2
 658 0028 5B00     		lsls	r3, r3, #1
 659 002a 1344     		add	r3, r3, r2
 660 002c 5B00     		lsls	r3, r3, #1
 661 002e 1A46     		mov	r2, r3
 662 0030 7B68     		ldr	r3, [r7, #4]
 663 0032 1344     		add	r3, r3, r2
 664              		.loc 1 172 23
 665 0034 5B79     		ldrb	r3, [r3, #5]	@ zero_extendqisi2
 666 0036 1A46     		mov	r2, r3
 667              		.loc 1 172 9
 668 0038 BB6A     		ldr	r3, [r7, #40]
 669 003a 9342     		cmp	r3, r2
 670 003c 02D1     		bne	.L58
 173:Lib/lib_vision_models_pp/lib_vision_models_pp/Src/od_pp_yolov8.c ****       {
 174:Lib/lib_vision_models_pp/lib_vision_models_pp/Src/od_pp_yolov8.c ****         detections_per_class++;
 671              		.loc 1 174 29
 672 003e 3B6A     		ldr	r3, [r7, #32]
 673 0040 0133     		adds	r3, r3, #1
 674 0042 3B62     		str	r3, [r7, #32]
ARM GAS  /tmp/ccp9R2iB.s 			page 16


 675              	.L58:
 170:Lib/lib_vision_models_pp/lib_vision_models_pp/Src/od_pp_yolov8.c ****     {
 676              		.loc 1 170 64 discriminator 2
 677 0044 FB69     		ldr	r3, [r7, #28]
 678 0046 0133     		adds	r3, r3, #1
 679 0048 FB61     		str	r3, [r7, #28]
 680              	.L57:
 170:Lib/lib_vision_models_pp/lib_vision_models_pp/Src/od_pp_yolov8.c ****     {
 681              		.loc 1 170 48 discriminator 1
 682 004a 3B68     		ldr	r3, [r7]
 683 004c DB69     		ldr	r3, [r3, #28]
 170:Lib/lib_vision_models_pp/lib_vision_models_pp/Src/od_pp_yolov8.c ****     {
 684              		.loc 1 170 27 discriminator 1
 685 004e FA69     		ldr	r2, [r7, #28]
 686 0050 9A42     		cmp	r2, r3
 687 0052 E7DB     		blt	.L59
 688              	.LBE7:
 175:Lib/lib_vision_models_pp/lib_vision_models_pp/Src/od_pp_yolov8.c ****       }
 176:Lib/lib_vision_models_pp/lib_vision_models_pp/Src/od_pp_yolov8.c ****     }
 177:Lib/lib_vision_models_pp/lib_vision_models_pp/Src/od_pp_yolov8.c **** 
 178:Lib/lib_vision_models_pp/lib_vision_models_pp/Src/od_pp_yolov8.c ****     if (detections_per_class > 0)
 689              		.loc 1 178 8
 690 0054 3B6A     		ldr	r3, [r7, #32]
 691 0056 002B     		cmp	r3, #0
 692 0058 40F39380 		ble	.L60
 179:Lib/lib_vision_models_pp/lib_vision_models_pp/Src/od_pp_yolov8.c ****     {
 180:Lib/lib_vision_models_pp/lib_vision_models_pp/Src/od_pp_yolov8.c ****       /* Sorts detections based on class k */
 181:Lib/lib_vision_models_pp/lib_vision_models_pp/Src/od_pp_yolov8.c ****       qsort(ptrScratch,
 182:Lib/lib_vision_models_pp/lib_vision_models_pp/Src/od_pp_yolov8.c ****             pInput_static_param->nb_detect,
 693              		.loc 1 182 32
 694 005c 3B68     		ldr	r3, [r7]
 695 005e DB69     		ldr	r3, [r3, #28]
 181:Lib/lib_vision_models_pp/lib_vision_models_pp/Src/od_pp_yolov8.c ****             pInput_static_param->nb_detect,
 696              		.loc 1 181 7
 697 0060 1946     		mov	r1, r3
 698 0062 504B     		ldr	r3, .L79+4
 699 0064 0622     		movs	r2, #6
 700 0066 7868     		ldr	r0, [r7, #4]
 701 0068 FFF7FEFF 		bl	qsort
 702              	.LBB8:
 183:Lib/lib_vision_models_pp/lib_vision_models_pp/Src/od_pp_yolov8.c ****             sizeof(od_yolov8_pp_scratch_s8_t),
 184:Lib/lib_vision_models_pp/lib_vision_models_pp/Src/od_pp_yolov8.c ****             yolov8_nms_comparator_is8);
 185:Lib/lib_vision_models_pp/lib_vision_models_pp/Src/od_pp_yolov8.c **** 
 186:Lib/lib_vision_models_pp/lib_vision_models_pp/Src/od_pp_yolov8.c ****       for (int32_t i = 0; i < detections_per_class ; i ++)
 703              		.loc 1 186 20
 704 006c 0023     		movs	r3, #0
 705 006e BB61     		str	r3, [r7, #24]
 706              		.loc 1 186 7
 707 0070 59E0     		b	.L61
 708              	.L69:
 709              	.LBB9:
 187:Lib/lib_vision_models_pp/lib_vision_models_pp/Src/od_pp_yolov8.c ****       {
 188:Lib/lib_vision_models_pp/lib_vision_models_pp/Src/od_pp_yolov8.c ****         if (ptrScratch[i].conf == INT8_MIN) continue; // Already filtered
 710              		.loc 1 188 23
 711 0072 BA69     		ldr	r2, [r7, #24]
 712 0074 1346     		mov	r3, r2
 713 0076 5B00     		lsls	r3, r3, #1
ARM GAS  /tmp/ccp9R2iB.s 			page 17


 714 0078 1344     		add	r3, r3, r2
 715 007a 5B00     		lsls	r3, r3, #1
 716 007c 1A46     		mov	r2, r3
 717 007e 7B68     		ldr	r3, [r7, #4]
 718 0080 1344     		add	r3, r3, r2
 719              		.loc 1 188 26
 720 0082 93F90430 		ldrsb	r3, [r3, #4]
 721              		.loc 1 188 12
 722 0086 13F1800F 		cmn	r3, #128
 723 008a 48D0     		beq	.L77
 189:Lib/lib_vision_models_pp/lib_vision_models_pp/Src/od_pp_yolov8.c ****         int8_t *a = &(ptrScratch[i].x_center);
 724              		.loc 1 189 33
 725 008c BA69     		ldr	r2, [r7, #24]
 726 008e 1346     		mov	r3, r2
 727 0090 5B00     		lsls	r3, r3, #1
 728 0092 1344     		add	r3, r3, r2
 729 0094 5B00     		lsls	r3, r3, #1
 730 0096 1A46     		mov	r2, r3
 731 0098 7B68     		ldr	r3, [r7, #4]
 732 009a 1344     		add	r3, r3, r2
 733              		.loc 1 189 17
 734 009c 3B61     		str	r3, [r7, #16]
 190:Lib/lib_vision_models_pp/lib_vision_models_pp/Src/od_pp_yolov8.c ****         for (j = i + 1; j < detections_per_class; j ++)
 735              		.loc 1 190 16
 736 009e BB69     		ldr	r3, [r7, #24]
 737 00a0 0133     		adds	r3, r3, #1
 738 00a2 FB62     		str	r3, [r7, #44]
 739              		.loc 1 190 9
 740 00a4 36E0     		b	.L64
 741              	.L68:
 742              	.LBB10:
 191:Lib/lib_vision_models_pp/lib_vision_models_pp/Src/od_pp_yolov8.c ****         {
 192:Lib/lib_vision_models_pp/lib_vision_models_pp/Src/od_pp_yolov8.c ****           if (ptrScratch[j].conf == INT8_MIN) continue; // Already filtered
 743              		.loc 1 192 25
 744 00a6 FA6A     		ldr	r2, [r7, #44]
 745 00a8 1346     		mov	r3, r2
 746 00aa 5B00     		lsls	r3, r3, #1
 747 00ac 1344     		add	r3, r3, r2
 748 00ae 5B00     		lsls	r3, r3, #1
 749 00b0 1A46     		mov	r2, r3
 750 00b2 7B68     		ldr	r3, [r7, #4]
 751 00b4 1344     		add	r3, r3, r2
 752              		.loc 1 192 28
 753 00b6 93F90430 		ldrsb	r3, [r3, #4]
 754              		.loc 1 192 14
 755 00ba 13F1800F 		cmn	r3, #128
 756 00be 25D0     		beq	.L78
 193:Lib/lib_vision_models_pp/lib_vision_models_pp/Src/od_pp_yolov8.c ****           int8_t *b = &(ptrScratch[j].x_center);
 757              		.loc 1 193 35
 758 00c0 FA6A     		ldr	r2, [r7, #44]
 759 00c2 1346     		mov	r3, r2
 760 00c4 5B00     		lsls	r3, r3, #1
 761 00c6 1344     		add	r3, r3, r2
 762 00c8 5B00     		lsls	r3, r3, #1
 763 00ca 1A46     		mov	r2, r3
 764 00cc 7B68     		ldr	r3, [r7, #4]
 765 00ce 1344     		add	r3, r3, r2
ARM GAS  /tmp/ccp9R2iB.s 			page 18


 766              		.loc 1 193 19
 767 00d0 FB60     		str	r3, [r7, #12]
 194:Lib/lib_vision_models_pp/lib_vision_models_pp/Src/od_pp_yolov8.c ****           if (vision_models_box_iou_is8(a, b, pInput_static_param->raw_output_zero_point) > pInput_
 768              		.loc 1 194 15
 769 00d2 3B68     		ldr	r3, [r7]
 770 00d4 93F91830 		ldrsb	r3, [r3, #24]
 771 00d8 1A46     		mov	r2, r3
 772 00da F968     		ldr	r1, [r7, #12]
 773 00dc 3869     		ldr	r0, [r7, #16]
 774 00de FFF7FEFF 		bl	vision_models_box_iou_is8
 775 00e2 B0EE407A 		vmov.f32	s14, s0
 776              		.loc 1 194 112 discriminator 1
 777 00e6 3B68     		ldr	r3, [r7]
 778 00e8 D3ED047A 		vldr.32	s15, [r3, #16]
 779              		.loc 1 194 14 discriminator 1
 780 00ec B4EEE77A 		vcmpe.f32	s14, s15
 781 00f0 F1EE10FA 		vmrs	APSR_nzcv, FPSCR
 782 00f4 0BDD     		ble	.L66
 195:Lib/lib_vision_models_pp/lib_vision_models_pp/Src/od_pp_yolov8.c ****           {
 196:Lib/lib_vision_models_pp/lib_vision_models_pp/Src/od_pp_yolov8.c ****             ptrScratch[j].conf = INT8_MIN;
 783              		.loc 1 196 23
 784 00f6 FA6A     		ldr	r2, [r7, #44]
 785 00f8 1346     		mov	r3, r2
 786 00fa 5B00     		lsls	r3, r3, #1
 787 00fc 1344     		add	r3, r3, r2
 788 00fe 5B00     		lsls	r3, r3, #1
 789 0100 1A46     		mov	r2, r3
 790 0102 7B68     		ldr	r3, [r7, #4]
 791 0104 1344     		add	r3, r3, r2
 792              		.loc 1 196 32
 793 0106 8022     		movs	r2, #128
 794 0108 1A71     		strb	r2, [r3, #4]
 795 010a 00E0     		b	.L66
 796              	.L78:
 192:Lib/lib_vision_models_pp/lib_vision_models_pp/Src/od_pp_yolov8.c ****           int8_t *b = &(ptrScratch[j].x_center);
 797              		.loc 1 192 47
 798 010c 00BF     		nop
 799              	.L66:
 800              	.LBE10:
 190:Lib/lib_vision_models_pp/lib_vision_models_pp/Src/od_pp_yolov8.c ****         {
 801              		.loc 1 190 53 discriminator 2
 802 010e FB6A     		ldr	r3, [r7, #44]
 803 0110 0133     		adds	r3, r3, #1
 804 0112 FB62     		str	r3, [r7, #44]
 805              	.L64:
 190:Lib/lib_vision_models_pp/lib_vision_models_pp/Src/od_pp_yolov8.c ****         {
 806              		.loc 1 190 27 discriminator 1
 807 0114 FA6A     		ldr	r2, [r7, #44]
 808 0116 3B6A     		ldr	r3, [r7, #32]
 809 0118 9A42     		cmp	r2, r3
 810 011a C4DB     		blt	.L68
 811 011c 00E0     		b	.L63
 812              	.L77:
 188:Lib/lib_vision_models_pp/lib_vision_models_pp/Src/od_pp_yolov8.c ****         int8_t *a = &(ptrScratch[i].x_center);
 813              		.loc 1 188 45
 814 011e 00BF     		nop
 815              	.L63:
ARM GAS  /tmp/ccp9R2iB.s 			page 19


 816              	.LBE9:
 186:Lib/lib_vision_models_pp/lib_vision_models_pp/Src/od_pp_yolov8.c ****       {
 817              		.loc 1 186 56 discriminator 2
 818 0120 BB69     		ldr	r3, [r7, #24]
 819 0122 0133     		adds	r3, r3, #1
 820 0124 BB61     		str	r3, [r7, #24]
 821              	.L61:
 186:Lib/lib_vision_models_pp/lib_vision_models_pp/Src/od_pp_yolov8.c ****       {
 822              		.loc 1 186 29 discriminator 1
 823 0126 BA69     		ldr	r2, [r7, #24]
 824 0128 3B6A     		ldr	r3, [r7, #32]
 825 012a 9A42     		cmp	r2, r3
 826 012c A1DB     		blt	.L69
 827              	.LBE8:
 828              	.LBB11:
 197:Lib/lib_vision_models_pp/lib_vision_models_pp/Src/od_pp_yolov8.c ****           }
 198:Lib/lib_vision_models_pp/lib_vision_models_pp/Src/od_pp_yolov8.c ****         }
 199:Lib/lib_vision_models_pp/lib_vision_models_pp/Src/od_pp_yolov8.c ****       }
 200:Lib/lib_vision_models_pp/lib_vision_models_pp/Src/od_pp_yolov8.c **** 
 201:Lib/lib_vision_models_pp/lib_vision_models_pp/Src/od_pp_yolov8.c ****       /* Limits detections count */
 202:Lib/lib_vision_models_pp/lib_vision_models_pp/Src/od_pp_yolov8.c ****       for (int32_t i = 0; i < detections_per_class; i++)
 829              		.loc 1 202 20
 830 012e 0023     		movs	r3, #0
 831 0130 7B61     		str	r3, [r7, #20]
 832              		.loc 1 202 7
 833 0132 22E0     		b	.L70
 834              	.L73:
 203:Lib/lib_vision_models_pp/lib_vision_models_pp/Src/od_pp_yolov8.c ****       {
 204:Lib/lib_vision_models_pp/lib_vision_models_pp/Src/od_pp_yolov8.c ****         if ((limit_counter < pInput_static_param->max_boxes_limit) &&
 835              		.loc 1 204 49
 836 0134 3B68     		ldr	r3, [r7]
 837 0136 9B68     		ldr	r3, [r3, #8]
 838              		.loc 1 204 12
 839 0138 7A6A     		ldr	r2, [r7, #36]
 840 013a 9A42     		cmp	r2, r3
 841 013c 10DA     		bge	.L71
 205:Lib/lib_vision_models_pp/lib_vision_models_pp/Src/od_pp_yolov8.c ****             (ptrScratch[i].conf != INT8_MIN))
 842              		.loc 1 205 24
 843 013e 7A69     		ldr	r2, [r7, #20]
 844 0140 1346     		mov	r3, r2
 845 0142 5B00     		lsls	r3, r3, #1
 846 0144 1344     		add	r3, r3, r2
 847 0146 5B00     		lsls	r3, r3, #1
 848 0148 1A46     		mov	r2, r3
 849 014a 7B68     		ldr	r3, [r7, #4]
 850 014c 1344     		add	r3, r3, r2
 851              		.loc 1 205 27
 852 014e 93F90430 		ldrsb	r3, [r3, #4]
 204:Lib/lib_vision_models_pp/lib_vision_models_pp/Src/od_pp_yolov8.c ****             (ptrScratch[i].conf != INT8_MIN))
 853              		.loc 1 204 68 discriminator 1
 854 0152 13F1800F 		cmn	r3, #128
 855 0156 03D0     		beq	.L71
 206:Lib/lib_vision_models_pp/lib_vision_models_pp/Src/od_pp_yolov8.c ****         {
 207:Lib/lib_vision_models_pp/lib_vision_models_pp/Src/od_pp_yolov8.c ****           limit_counter++;
 856              		.loc 1 207 24
 857 0158 7B6A     		ldr	r3, [r7, #36]
 858 015a 0133     		adds	r3, r3, #1
ARM GAS  /tmp/ccp9R2iB.s 			page 20


 859 015c 7B62     		str	r3, [r7, #36]
 860 015e 09E0     		b	.L72
 861              	.L71:
 208:Lib/lib_vision_models_pp/lib_vision_models_pp/Src/od_pp_yolov8.c ****         }
 209:Lib/lib_vision_models_pp/lib_vision_models_pp/Src/od_pp_yolov8.c ****         else
 210:Lib/lib_vision_models_pp/lib_vision_models_pp/Src/od_pp_yolov8.c ****         {
 211:Lib/lib_vision_models_pp/lib_vision_models_pp/Src/od_pp_yolov8.c ****           ptrScratch[i].conf = INT8_MIN;
 862              		.loc 1 211 21
 863 0160 7A69     		ldr	r2, [r7, #20]
 864 0162 1346     		mov	r3, r2
 865 0164 5B00     		lsls	r3, r3, #1
 866 0166 1344     		add	r3, r3, r2
 867 0168 5B00     		lsls	r3, r3, #1
 868 016a 1A46     		mov	r2, r3
 869 016c 7B68     		ldr	r3, [r7, #4]
 870 016e 1344     		add	r3, r3, r2
 871              		.loc 1 211 30
 872 0170 8022     		movs	r2, #128
 873 0172 1A71     		strb	r2, [r3, #4]
 874              	.L72:
 202:Lib/lib_vision_models_pp/lib_vision_models_pp/Src/od_pp_yolov8.c ****       {
 875              		.loc 1 202 54 discriminator 2
 876 0174 7B69     		ldr	r3, [r7, #20]
 877 0176 0133     		adds	r3, r3, #1
 878 0178 7B61     		str	r3, [r7, #20]
 879              	.L70:
 202:Lib/lib_vision_models_pp/lib_vision_models_pp/Src/od_pp_yolov8.c ****       {
 880              		.loc 1 202 29 discriminator 1
 881 017a 7A69     		ldr	r2, [r7, #20]
 882 017c 3B6A     		ldr	r3, [r7, #32]
 883 017e 9A42     		cmp	r2, r3
 884 0180 D8DB     		blt	.L73
 885              	.L60:
 886              	.LBE11:
 163:Lib/lib_vision_models_pp/lib_vision_models_pp/Src/od_pp_yolov8.c ****   {
 887              		.loc 1 163 52 discriminator 2
 888 0182 BB6A     		ldr	r3, [r7, #40]
 889 0184 0133     		adds	r3, r3, #1
 890 0186 BB62     		str	r3, [r7, #40]
 891              	.L56:
 163:Lib/lib_vision_models_pp/lib_vision_models_pp/Src/od_pp_yolov8.c ****   {
 892              		.loc 1 163 38 discriminator 1
 893 0188 3B68     		ldr	r3, [r7]
 894 018a 1B68     		ldr	r3, [r3]
 163:Lib/lib_vision_models_pp/lib_vision_models_pp/Src/od_pp_yolov8.c ****   {
 895              		.loc 1 163 17 discriminator 1
 896 018c BA6A     		ldr	r2, [r7, #40]
 897 018e 9A42     		cmp	r2, r3
 898 0190 FFF63EAF 		blt	.L74
 212:Lib/lib_vision_models_pp/lib_vision_models_pp/Src/od_pp_yolov8.c ****         }
 213:Lib/lib_vision_models_pp/lib_vision_models_pp/Src/od_pp_yolov8.c ****       } // for detection_per_class
 214:Lib/lib_vision_models_pp/lib_vision_models_pp/Src/od_pp_yolov8.c ****     } // if detection_per_class
 215:Lib/lib_vision_models_pp/lib_vision_models_pp/Src/od_pp_yolov8.c ****   } // for nb_classes
 216:Lib/lib_vision_models_pp/lib_vision_models_pp/Src/od_pp_yolov8.c ****   return (AI_OD_POSTPROCESS_ERROR_NO);
 899              		.loc 1 216 10
 900 0194 0023     		movs	r3, #0
 217:Lib/lib_vision_models_pp/lib_vision_models_pp/Src/od_pp_yolov8.c **** }
ARM GAS  /tmp/ccp9R2iB.s 			page 21


 901              		.loc 1 217 1
 902 0196 1846     		mov	r0, r3
 903 0198 3037     		adds	r7, r7, #48
 904              		.cfi_def_cfa_offset 8
 905 019a BD46     		mov	sp, r7
 906              		.cfi_def_cfa_register 13
 907              		@ sp needed
 908 019c 80BD     		pop	{r7, pc}
 909              	.L80:
 910 019e 00BF     		.align	2
 911              	.L79:
 912 01a0 00000000 		.word	AI_YOLOV8_PP_SORT_CLASS
 913 01a4 00000000 		.word	yolov8_nms_comparator_is8
 914              		.cfi_endproc
 915              	.LFE2648:
 917              		.section	.text.yolov8_pp_scoreFiltering_centroid,"ax",%progbits
 918              		.align	1
 919              		.global	yolov8_pp_scoreFiltering_centroid
 920              		.syntax unified
 921              		.thumb
 922              		.thumb_func
 924              	yolov8_pp_scoreFiltering_centroid:
 925              	.LFB2649:
 218:Lib/lib_vision_models_pp/lib_vision_models_pp/Src/od_pp_yolov8.c **** 
 219:Lib/lib_vision_models_pp/lib_vision_models_pp/Src/od_pp_yolov8.c **** int32_t yolov8_pp_scoreFiltering_centroid(od_pp_out_t *pOutput,
 220:Lib/lib_vision_models_pp/lib_vision_models_pp/Src/od_pp_yolov8.c ****                                           od_yolov8_pp_static_param_t *pInput_static_param)
 221:Lib/lib_vision_models_pp/lib_vision_models_pp/Src/od_pp_yolov8.c **** {
 926              		.loc 1 221 1
 927              		.cfi_startproc
 928              		@ args = 0, pretend = 0, frame = 16
 929              		@ frame_needed = 1, uses_anonymous_args = 0
 930              		@ link register save eliminated.
 931 0000 80B4     		push	{r7}
 932              		.cfi_def_cfa_offset 4
 933              		.cfi_offset 7, -4
 934 0002 85B0     		sub	sp, sp, #20
 935              		.cfi_def_cfa_offset 24
 936 0004 00AF     		add	r7, sp, #0
 937              		.cfi_def_cfa_register 7
 938 0006 7860     		str	r0, [r7, #4]
 939 0008 3960     		str	r1, [r7]
 222:Lib/lib_vision_models_pp/lib_vision_models_pp/Src/od_pp_yolov8.c ****   int32_t det_count = 0;
 940              		.loc 1 222 11
 941 000a 0023     		movs	r3, #0
 942 000c FB60     		str	r3, [r7, #12]
 943              	.LBB12:
 223:Lib/lib_vision_models_pp/lib_vision_models_pp/Src/od_pp_yolov8.c **** 
 224:Lib/lib_vision_models_pp/lib_vision_models_pp/Src/od_pp_yolov8.c ****   for (int32_t i = 0; i < pInput_static_param->nb_detect; i++)
 944              		.loc 1 224 16
 945 000e 0023     		movs	r3, #0
 946 0010 BB60     		str	r3, [r7, #8]
 947              		.loc 1 224 3
 948 0012 83E0     		b	.L82
 949              	.L85:
 225:Lib/lib_vision_models_pp/lib_vision_models_pp/Src/od_pp_yolov8.c ****   {
 226:Lib/lib_vision_models_pp/lib_vision_models_pp/Src/od_pp_yolov8.c ****     if (pOutput->pOutBuff[i].conf >= pInput_static_param->conf_threshold)
 950              		.loc 1 226 16
ARM GAS  /tmp/ccp9R2iB.s 			page 22


 951 0014 7B68     		ldr	r3, [r7, #4]
 952 0016 1968     		ldr	r1, [r3]
 953              		.loc 1 226 26
 954 0018 BA68     		ldr	r2, [r7, #8]
 955 001a 1346     		mov	r3, r2
 956 001c 5B00     		lsls	r3, r3, #1
 957 001e 1344     		add	r3, r3, r2
 958 0020 DB00     		lsls	r3, r3, #3
 959 0022 0B44     		add	r3, r3, r1
 960              		.loc 1 226 29
 961 0024 93ED047A 		vldr.32	s14, [r3, #16]
 962              		.loc 1 226 57
 963 0028 3B68     		ldr	r3, [r7]
 964 002a D3ED037A 		vldr.32	s15, [r3, #12]
 965              		.loc 1 226 8
 966 002e B4EEE77A 		vcmpe.f32	s14, s15
 967 0032 F1EE10FA 		vmrs	APSR_nzcv, FPSCR
 968 0036 6EDB     		blt	.L83
 227:Lib/lib_vision_models_pp/lib_vision_models_pp/Src/od_pp_yolov8.c ****     {
 228:Lib/lib_vision_models_pp/lib_vision_models_pp/Src/od_pp_yolov8.c ****       pOutput->pOutBuff[det_count].x_center    = pOutput->pOutBuff[i].x_center;
 969              		.loc 1 228 57
 970 0038 7B68     		ldr	r3, [r7, #4]
 971 003a 1968     		ldr	r1, [r3]
 972              		.loc 1 228 67
 973 003c BA68     		ldr	r2, [r7, #8]
 974 003e 1346     		mov	r3, r2
 975 0040 5B00     		lsls	r3, r3, #1
 976 0042 1344     		add	r3, r3, r2
 977 0044 DB00     		lsls	r3, r3, #3
 978 0046 1944     		add	r1, r1, r3
 979              		.loc 1 228 14
 980 0048 7B68     		ldr	r3, [r7, #4]
 981 004a 1868     		ldr	r0, [r3]
 982              		.loc 1 228 24
 983 004c FA68     		ldr	r2, [r7, #12]
 984 004e 1346     		mov	r3, r2
 985 0050 5B00     		lsls	r3, r3, #1
 986 0052 1344     		add	r3, r3, r2
 987 0054 DB00     		lsls	r3, r3, #3
 988 0056 0344     		add	r3, r3, r0
 989              		.loc 1 228 70
 990 0058 0A68     		ldr	r2, [r1]	@ float
 991              		.loc 1 228 48
 992 005a 1A60     		str	r2, [r3]	@ float
 229:Lib/lib_vision_models_pp/lib_vision_models_pp/Src/od_pp_yolov8.c ****       pOutput->pOutBuff[det_count].y_center    = pOutput->pOutBuff[i].y_center;
 993              		.loc 1 229 57
 994 005c 7B68     		ldr	r3, [r7, #4]
 995 005e 1968     		ldr	r1, [r3]
 996              		.loc 1 229 67
 997 0060 BA68     		ldr	r2, [r7, #8]
 998 0062 1346     		mov	r3, r2
 999 0064 5B00     		lsls	r3, r3, #1
 1000 0066 1344     		add	r3, r3, r2
 1001 0068 DB00     		lsls	r3, r3, #3
 1002 006a 1944     		add	r1, r1, r3
 1003              		.loc 1 229 14
 1004 006c 7B68     		ldr	r3, [r7, #4]
ARM GAS  /tmp/ccp9R2iB.s 			page 23


 1005 006e 1868     		ldr	r0, [r3]
 1006              		.loc 1 229 24
 1007 0070 FA68     		ldr	r2, [r7, #12]
 1008 0072 1346     		mov	r3, r2
 1009 0074 5B00     		lsls	r3, r3, #1
 1010 0076 1344     		add	r3, r3, r2
 1011 0078 DB00     		lsls	r3, r3, #3
 1012 007a 0344     		add	r3, r3, r0
 1013              		.loc 1 229 70
 1014 007c 4A68     		ldr	r2, [r1, #4]	@ float
 1015              		.loc 1 229 48
 1016 007e 5A60     		str	r2, [r3, #4]	@ float
 230:Lib/lib_vision_models_pp/lib_vision_models_pp/Src/od_pp_yolov8.c ****       pOutput->pOutBuff[det_count].width       = pOutput->pOutBuff[i].width;
 1017              		.loc 1 230 57
 1018 0080 7B68     		ldr	r3, [r7, #4]
 1019 0082 1968     		ldr	r1, [r3]
 1020              		.loc 1 230 67
 1021 0084 BA68     		ldr	r2, [r7, #8]
 1022 0086 1346     		mov	r3, r2
 1023 0088 5B00     		lsls	r3, r3, #1
 1024 008a 1344     		add	r3, r3, r2
 1025 008c DB00     		lsls	r3, r3, #3
 1026 008e 1944     		add	r1, r1, r3
 1027              		.loc 1 230 14
 1028 0090 7B68     		ldr	r3, [r7, #4]
 1029 0092 1868     		ldr	r0, [r3]
 1030              		.loc 1 230 24
 1031 0094 FA68     		ldr	r2, [r7, #12]
 1032 0096 1346     		mov	r3, r2
 1033 0098 5B00     		lsls	r3, r3, #1
 1034 009a 1344     		add	r3, r3, r2
 1035 009c DB00     		lsls	r3, r3, #3
 1036 009e 0344     		add	r3, r3, r0
 1037              		.loc 1 230 70
 1038 00a0 8A68     		ldr	r2, [r1, #8]	@ float
 1039              		.loc 1 230 48
 1040 00a2 9A60     		str	r2, [r3, #8]	@ float
 231:Lib/lib_vision_models_pp/lib_vision_models_pp/Src/od_pp_yolov8.c ****       pOutput->pOutBuff[det_count].height      = pOutput->pOutBuff[i].height;
 1041              		.loc 1 231 57
 1042 00a4 7B68     		ldr	r3, [r7, #4]
 1043 00a6 1968     		ldr	r1, [r3]
 1044              		.loc 1 231 67
 1045 00a8 BA68     		ldr	r2, [r7, #8]
 1046 00aa 1346     		mov	r3, r2
 1047 00ac 5B00     		lsls	r3, r3, #1
 1048 00ae 1344     		add	r3, r3, r2
 1049 00b0 DB00     		lsls	r3, r3, #3
 1050 00b2 1944     		add	r1, r1, r3
 1051              		.loc 1 231 14
 1052 00b4 7B68     		ldr	r3, [r7, #4]
 1053 00b6 1868     		ldr	r0, [r3]
 1054              		.loc 1 231 24
 1055 00b8 FA68     		ldr	r2, [r7, #12]
 1056 00ba 1346     		mov	r3, r2
 1057 00bc 5B00     		lsls	r3, r3, #1
 1058 00be 1344     		add	r3, r3, r2
 1059 00c0 DB00     		lsls	r3, r3, #3
ARM GAS  /tmp/ccp9R2iB.s 			page 24


 1060 00c2 0344     		add	r3, r3, r0
 1061              		.loc 1 231 70
 1062 00c4 CA68     		ldr	r2, [r1, #12]	@ float
 1063              		.loc 1 231 48
 1064 00c6 DA60     		str	r2, [r3, #12]	@ float
 232:Lib/lib_vision_models_pp/lib_vision_models_pp/Src/od_pp_yolov8.c ****       pOutput->pOutBuff[det_count].conf        = pOutput->pOutBuff[i].conf;
 1065              		.loc 1 232 57
 1066 00c8 7B68     		ldr	r3, [r7, #4]
 1067 00ca 1968     		ldr	r1, [r3]
 1068              		.loc 1 232 67
 1069 00cc BA68     		ldr	r2, [r7, #8]
 1070 00ce 1346     		mov	r3, r2
 1071 00d0 5B00     		lsls	r3, r3, #1
 1072 00d2 1344     		add	r3, r3, r2
 1073 00d4 DB00     		lsls	r3, r3, #3
 1074 00d6 1944     		add	r1, r1, r3
 1075              		.loc 1 232 14
 1076 00d8 7B68     		ldr	r3, [r7, #4]
 1077 00da 1868     		ldr	r0, [r3]
 1078              		.loc 1 232 24
 1079 00dc FA68     		ldr	r2, [r7, #12]
 1080 00de 1346     		mov	r3, r2
 1081 00e0 5B00     		lsls	r3, r3, #1
 1082 00e2 1344     		add	r3, r3, r2
 1083 00e4 DB00     		lsls	r3, r3, #3
 1084 00e6 0344     		add	r3, r3, r0
 1085              		.loc 1 232 70
 1086 00e8 0A69     		ldr	r2, [r1, #16]	@ float
 1087              		.loc 1 232 48
 1088 00ea 1A61     		str	r2, [r3, #16]	@ float
 233:Lib/lib_vision_models_pp/lib_vision_models_pp/Src/od_pp_yolov8.c ****       pOutput->pOutBuff[det_count].class_index = pOutput->pOutBuff[i].class_index;
 1089              		.loc 1 233 57
 1090 00ec 7B68     		ldr	r3, [r7, #4]
 1091 00ee 1968     		ldr	r1, [r3]
 1092              		.loc 1 233 67
 1093 00f0 BA68     		ldr	r2, [r7, #8]
 1094 00f2 1346     		mov	r3, r2
 1095 00f4 5B00     		lsls	r3, r3, #1
 1096 00f6 1344     		add	r3, r3, r2
 1097 00f8 DB00     		lsls	r3, r3, #3
 1098 00fa 1944     		add	r1, r1, r3
 1099              		.loc 1 233 14
 1100 00fc 7B68     		ldr	r3, [r7, #4]
 1101 00fe 1868     		ldr	r0, [r3]
 1102              		.loc 1 233 24
 1103 0100 FA68     		ldr	r2, [r7, #12]
 1104 0102 1346     		mov	r3, r2
 1105 0104 5B00     		lsls	r3, r3, #1
 1106 0106 1344     		add	r3, r3, r2
 1107 0108 DB00     		lsls	r3, r3, #3
 1108 010a 0344     		add	r3, r3, r0
 1109              		.loc 1 233 70
 1110 010c 4A69     		ldr	r2, [r1, #20]
 1111              		.loc 1 233 48
 1112 010e 5A61     		str	r2, [r3, #20]
 234:Lib/lib_vision_models_pp/lib_vision_models_pp/Src/od_pp_yolov8.c ****       det_count++;
 1113              		.loc 1 234 16
ARM GAS  /tmp/ccp9R2iB.s 			page 25


 1114 0110 FB68     		ldr	r3, [r7, #12]
 1115 0112 0133     		adds	r3, r3, #1
 1116 0114 FB60     		str	r3, [r7, #12]
 1117              	.L83:
 224:Lib/lib_vision_models_pp/lib_vision_models_pp/Src/od_pp_yolov8.c ****   {
 1118              		.loc 1 224 60 discriminator 2
 1119 0116 BB68     		ldr	r3, [r7, #8]
 1120 0118 0133     		adds	r3, r3, #1
 1121 011a BB60     		str	r3, [r7, #8]
 1122              	.L82:
 224:Lib/lib_vision_models_pp/lib_vision_models_pp/Src/od_pp_yolov8.c ****   {
 1123              		.loc 1 224 46 discriminator 1
 1124 011c 3B68     		ldr	r3, [r7]
 1125 011e DB69     		ldr	r3, [r3, #28]
 224:Lib/lib_vision_models_pp/lib_vision_models_pp/Src/od_pp_yolov8.c ****   {
 1126              		.loc 1 224 25 discriminator 1
 1127 0120 BA68     		ldr	r2, [r7, #8]
 1128 0122 9A42     		cmp	r2, r3
 1129 0124 FFF676AF 		blt	.L85
 1130              	.LBE12:
 235:Lib/lib_vision_models_pp/lib_vision_models_pp/Src/od_pp_yolov8.c ****     }
 236:Lib/lib_vision_models_pp/lib_vision_models_pp/Src/od_pp_yolov8.c ****   }
 237:Lib/lib_vision_models_pp/lib_vision_models_pp/Src/od_pp_yolov8.c ****   pOutput->nb_detect = det_count;
 1131              		.loc 1 237 22
 1132 0128 7B68     		ldr	r3, [r7, #4]
 1133 012a FA68     		ldr	r2, [r7, #12]
 1134 012c 5A60     		str	r2, [r3, #4]
 238:Lib/lib_vision_models_pp/lib_vision_models_pp/Src/od_pp_yolov8.c **** 
 239:Lib/lib_vision_models_pp/lib_vision_models_pp/Src/od_pp_yolov8.c ****   return (AI_OD_POSTPROCESS_ERROR_NO);
 1135              		.loc 1 239 10
 1136 012e 0023     		movs	r3, #0
 240:Lib/lib_vision_models_pp/lib_vision_models_pp/Src/od_pp_yolov8.c **** }
 1137              		.loc 1 240 1
 1138 0130 1846     		mov	r0, r3
 1139 0132 1437     		adds	r7, r7, #20
 1140              		.cfi_def_cfa_offset 4
 1141 0134 BD46     		mov	sp, r7
 1142              		.cfi_def_cfa_register 13
 1143              		@ sp needed
 1144 0136 5DF8047B 		ldr	r7, [sp], #4
 1145              		.cfi_restore 7
 1146              		.cfi_def_cfa_offset 0
 1147 013a 7047     		bx	lr
 1148              		.cfi_endproc
 1149              	.LFE2649:
 1151              		.section	.text.yolov8_pp_scoreFiltering_centroid_is8,"ax",%progbits
 1152              		.align	1
 1153              		.global	yolov8_pp_scoreFiltering_centroid_is8
 1154              		.syntax unified
 1155              		.thumb
 1156              		.thumb_func
 1158              	yolov8_pp_scoreFiltering_centroid_is8:
 1159              	.LFB2650:
 241:Lib/lib_vision_models_pp/lib_vision_models_pp/Src/od_pp_yolov8.c **** 
 242:Lib/lib_vision_models_pp/lib_vision_models_pp/Src/od_pp_yolov8.c **** int32_t yolov8_pp_scoreFiltering_centroid_is8(od_yolov8_pp_scratch_s8_t *ptrScratch,
 243:Lib/lib_vision_models_pp/lib_vision_models_pp/Src/od_pp_yolov8.c ****                                               od_pp_out_t *pOutput,
 244:Lib/lib_vision_models_pp/lib_vision_models_pp/Src/od_pp_yolov8.c ****                                               od_yolov8_pp_static_param_t *pInput_static_param)
ARM GAS  /tmp/ccp9R2iB.s 			page 26


 245:Lib/lib_vision_models_pp/lib_vision_models_pp/Src/od_pp_yolov8.c **** {
 1160              		.loc 1 245 1
 1161              		.cfi_startproc
 1162              		@ args = 0, pretend = 0, frame = 40
 1163              		@ frame_needed = 1, uses_anonymous_args = 0
 1164              		@ link register save eliminated.
 1165 0000 80B4     		push	{r7}
 1166              		.cfi_def_cfa_offset 4
 1167              		.cfi_offset 7, -4
 1168 0002 8BB0     		sub	sp, sp, #44
 1169              		.cfi_def_cfa_offset 48
 1170 0004 00AF     		add	r7, sp, #0
 1171              		.cfi_def_cfa_register 7
 1172 0006 F860     		str	r0, [r7, #12]
 1173 0008 B960     		str	r1, [r7, #8]
 1174 000a 7A60     		str	r2, [r7, #4]
 246:Lib/lib_vision_models_pp/lib_vision_models_pp/Src/od_pp_yolov8.c ****   int32_t det_count = 0;
 1175              		.loc 1 246 11
 1176 000c 0023     		movs	r3, #0
 1177 000e 7B62     		str	r3, [r7, #36]
 247:Lib/lib_vision_models_pp/lib_vision_models_pp/Src/od_pp_yolov8.c ****   int8_t zero_point = pInput_static_param->raw_output_zero_point;
 1178              		.loc 1 247 10
 1179 0010 7B68     		ldr	r3, [r7, #4]
 1180 0012 1B7E     		ldrb	r3, [r3, #24]
 1181 0014 FB77     		strb	r3, [r7, #31]
 248:Lib/lib_vision_models_pp/lib_vision_models_pp/Src/od_pp_yolov8.c ****   float32_t scale = pInput_static_param->raw_output_scale;
 1182              		.loc 1 248 13
 1183 0016 7B68     		ldr	r3, [r7, #4]
 1184 0018 5B69     		ldr	r3, [r3, #20]	@ float
 1185 001a BB61     		str	r3, [r7, #24]	@ float
 249:Lib/lib_vision_models_pp/lib_vision_models_pp/Src/od_pp_yolov8.c ****   int8_t conf_threshold_s8 = (int8_t)(pInput_static_param->conf_threshold / scale + 0.5f) + zero_po
 1186              		.loc 1 249 58
 1187 001c 7B68     		ldr	r3, [r7, #4]
 1188 001e D3ED036A 		vldr.32	s13, [r3, #12]
 1189              		.loc 1 249 75
 1190 0022 97ED067A 		vldr.32	s14, [r7, #24]
 1191 0026 C6EE877A 		vdiv.f32	s15, s13, s14
 1192              		.loc 1 249 83
 1193 002a B6EE007A 		vmov.f32	s14, #5.0e-1
 1194 002e 77EE877A 		vadd.f32	s15, s15, s14
 1195              		.loc 1 249 30
 1196 0032 FDEEE77A 		vcvt.s32.f32	s15, s15
 1197 0036 C7ED007A 		vstr.32	s15, [r7]	@ int
 1198 003a 3B78     		ldrb	r3, [r7]
 1199 003c 5BB2     		sxtb	r3, r3
 1200 003e DAB2     		uxtb	r2, r3
 1201              		.loc 1 249 91
 1202 0040 FB7F     		ldrb	r3, [r7, #31]	@ zero_extendqisi2
 1203 0042 1344     		add	r3, r3, r2
 1204 0044 DBB2     		uxtb	r3, r3
 1205              		.loc 1 249 10
 1206 0046 FB75     		strb	r3, [r7, #23]
 1207              	.LBB13:
 250:Lib/lib_vision_models_pp/lib_vision_models_pp/Src/od_pp_yolov8.c **** 
 251:Lib/lib_vision_models_pp/lib_vision_models_pp/Src/od_pp_yolov8.c ****   for (int32_t i = 0; i < pInput_static_param->nb_detect; i++)
 1208              		.loc 1 251 16
 1209 0048 0023     		movs	r3, #0
ARM GAS  /tmp/ccp9R2iB.s 			page 27


 1210 004a 3B62     		str	r3, [r7, #32]
 1211              		.loc 1 251 3
 1212 004c C7E0     		b	.L89
 1213              	.L91:
 252:Lib/lib_vision_models_pp/lib_vision_models_pp/Src/od_pp_yolov8.c ****   {
 253:Lib/lib_vision_models_pp/lib_vision_models_pp/Src/od_pp_yolov8.c ****     if (ptrScratch[i].conf >= conf_threshold_s8)
 1214              		.loc 1 253 19
 1215 004e 3A6A     		ldr	r2, [r7, #32]
 1216 0050 1346     		mov	r3, r2
 1217 0052 5B00     		lsls	r3, r3, #1
 1218 0054 1344     		add	r3, r3, r2
 1219 0056 5B00     		lsls	r3, r3, #1
 1220 0058 1A46     		mov	r2, r3
 1221 005a FB68     		ldr	r3, [r7, #12]
 1222 005c 1344     		add	r3, r3, r2
 1223              		.loc 1 253 22
 1224 005e 93F90430 		ldrsb	r3, [r3, #4]
 1225              		.loc 1 253 8
 1226 0062 97F91720 		ldrsb	r2, [r7, #23]
 1227 0066 9A42     		cmp	r2, r3
 1228 0068 00F3B680 		bgt	.L90
 254:Lib/lib_vision_models_pp/lib_vision_models_pp/Src/od_pp_yolov8.c ****     {
 255:Lib/lib_vision_models_pp/lib_vision_models_pp/Src/od_pp_yolov8.c ****       pOutput->pOutBuff[det_count].x_center    = scale * (float32_t)((int32_t)ptrScratch[i].x_cente
 1229              		.loc 1 255 89
 1230 006c 3A6A     		ldr	r2, [r7, #32]
 1231 006e 1346     		mov	r3, r2
 1232 0070 5B00     		lsls	r3, r3, #1
 1233 0072 1344     		add	r3, r3, r2
 1234 0074 5B00     		lsls	r3, r3, #1
 1235 0076 1A46     		mov	r2, r3
 1236 0078 FB68     		ldr	r3, [r7, #12]
 1237 007a 1344     		add	r3, r3, r2
 1238              		.loc 1 255 92
 1239 007c 93F90030 		ldrsb	r3, [r3]
 1240              		.loc 1 255 70
 1241 0080 1A46     		mov	r2, r3
 1242              		.loc 1 255 107
 1243 0082 97F91F30 		ldrsb	r3, [r7, #31]
 1244              		.loc 1 255 105
 1245 0086 D31A     		subs	r3, r2, r3
 1246              		.loc 1 255 58
 1247 0088 07EE903A 		vmov	s15, r3	@ int
 1248 008c B8EEE77A 		vcvt.f32.s32	s14, s15
 1249              		.loc 1 255 14
 1250 0090 BB68     		ldr	r3, [r7, #8]
 1251 0092 1968     		ldr	r1, [r3]
 1252              		.loc 1 255 24
 1253 0094 7A6A     		ldr	r2, [r7, #36]
 1254 0096 1346     		mov	r3, r2
 1255 0098 5B00     		lsls	r3, r3, #1
 1256 009a 1344     		add	r3, r3, r2
 1257 009c DB00     		lsls	r3, r3, #3
 1258 009e 0B44     		add	r3, r3, r1
 1259              		.loc 1 255 56
 1260 00a0 D7ED067A 		vldr.32	s15, [r7, #24]
 1261 00a4 67EE277A 		vmul.f32	s15, s14, s15
 1262              		.loc 1 255 48
ARM GAS  /tmp/ccp9R2iB.s 			page 28


 1263 00a8 C3ED007A 		vstr.32	s15, [r3]
 256:Lib/lib_vision_models_pp/lib_vision_models_pp/Src/od_pp_yolov8.c ****       pOutput->pOutBuff[det_count].y_center    = scale * (float32_t)((int32_t)ptrScratch[i].y_cente
 1264              		.loc 1 256 89
 1265 00ac 3A6A     		ldr	r2, [r7, #32]
 1266 00ae 1346     		mov	r3, r2
 1267 00b0 5B00     		lsls	r3, r3, #1
 1268 00b2 1344     		add	r3, r3, r2
 1269 00b4 5B00     		lsls	r3, r3, #1
 1270 00b6 1A46     		mov	r2, r3
 1271 00b8 FB68     		ldr	r3, [r7, #12]
 1272 00ba 1344     		add	r3, r3, r2
 1273              		.loc 1 256 92
 1274 00bc 93F90130 		ldrsb	r3, [r3, #1]
 1275              		.loc 1 256 70
 1276 00c0 1A46     		mov	r2, r3
 1277              		.loc 1 256 107
 1278 00c2 97F91F30 		ldrsb	r3, [r7, #31]
 1279              		.loc 1 256 105
 1280 00c6 D31A     		subs	r3, r2, r3
 1281              		.loc 1 256 58
 1282 00c8 07EE903A 		vmov	s15, r3	@ int
 1283 00cc B8EEE77A 		vcvt.f32.s32	s14, s15
 1284              		.loc 1 256 14
 1285 00d0 BB68     		ldr	r3, [r7, #8]
 1286 00d2 1968     		ldr	r1, [r3]
 1287              		.loc 1 256 24
 1288 00d4 7A6A     		ldr	r2, [r7, #36]
 1289 00d6 1346     		mov	r3, r2
 1290 00d8 5B00     		lsls	r3, r3, #1
 1291 00da 1344     		add	r3, r3, r2
 1292 00dc DB00     		lsls	r3, r3, #3
 1293 00de 0B44     		add	r3, r3, r1
 1294              		.loc 1 256 56
 1295 00e0 D7ED067A 		vldr.32	s15, [r7, #24]
 1296 00e4 67EE277A 		vmul.f32	s15, s14, s15
 1297              		.loc 1 256 48
 1298 00e8 C3ED017A 		vstr.32	s15, [r3, #4]
 257:Lib/lib_vision_models_pp/lib_vision_models_pp/Src/od_pp_yolov8.c ****       pOutput->pOutBuff[det_count].width       = scale * (float32_t)((int32_t)ptrScratch[i].width  
 1299              		.loc 1 257 89
 1300 00ec 3A6A     		ldr	r2, [r7, #32]
 1301 00ee 1346     		mov	r3, r2
 1302 00f0 5B00     		lsls	r3, r3, #1
 1303 00f2 1344     		add	r3, r3, r2
 1304 00f4 5B00     		lsls	r3, r3, #1
 1305 00f6 1A46     		mov	r2, r3
 1306 00f8 FB68     		ldr	r3, [r7, #12]
 1307 00fa 1344     		add	r3, r3, r2
 1308              		.loc 1 257 92
 1309 00fc 93F90230 		ldrsb	r3, [r3, #2]
 1310              		.loc 1 257 70
 1311 0100 1A46     		mov	r2, r3
 1312              		.loc 1 257 107
 1313 0102 97F91F30 		ldrsb	r3, [r7, #31]
 1314              		.loc 1 257 105
 1315 0106 D31A     		subs	r3, r2, r3
 1316              		.loc 1 257 58
 1317 0108 07EE903A 		vmov	s15, r3	@ int
ARM GAS  /tmp/ccp9R2iB.s 			page 29


 1318 010c B8EEE77A 		vcvt.f32.s32	s14, s15
 1319              		.loc 1 257 14
 1320 0110 BB68     		ldr	r3, [r7, #8]
 1321 0112 1968     		ldr	r1, [r3]
 1322              		.loc 1 257 24
 1323 0114 7A6A     		ldr	r2, [r7, #36]
 1324 0116 1346     		mov	r3, r2
 1325 0118 5B00     		lsls	r3, r3, #1
 1326 011a 1344     		add	r3, r3, r2
 1327 011c DB00     		lsls	r3, r3, #3
 1328 011e 0B44     		add	r3, r3, r1
 1329              		.loc 1 257 56
 1330 0120 D7ED067A 		vldr.32	s15, [r7, #24]
 1331 0124 67EE277A 		vmul.f32	s15, s14, s15
 1332              		.loc 1 257 48
 1333 0128 C3ED027A 		vstr.32	s15, [r3, #8]
 258:Lib/lib_vision_models_pp/lib_vision_models_pp/Src/od_pp_yolov8.c ****       pOutput->pOutBuff[det_count].height      = scale * (float32_t)((int32_t)ptrScratch[i].height 
 1334              		.loc 1 258 89
 1335 012c 3A6A     		ldr	r2, [r7, #32]
 1336 012e 1346     		mov	r3, r2
 1337 0130 5B00     		lsls	r3, r3, #1
 1338 0132 1344     		add	r3, r3, r2
 1339 0134 5B00     		lsls	r3, r3, #1
 1340 0136 1A46     		mov	r2, r3
 1341 0138 FB68     		ldr	r3, [r7, #12]
 1342 013a 1344     		add	r3, r3, r2
 1343              		.loc 1 258 92
 1344 013c 93F90330 		ldrsb	r3, [r3, #3]
 1345              		.loc 1 258 70
 1346 0140 1A46     		mov	r2, r3
 1347              		.loc 1 258 107
 1348 0142 97F91F30 		ldrsb	r3, [r7, #31]
 1349              		.loc 1 258 105
 1350 0146 D31A     		subs	r3, r2, r3
 1351              		.loc 1 258 58
 1352 0148 07EE903A 		vmov	s15, r3	@ int
 1353 014c B8EEE77A 		vcvt.f32.s32	s14, s15
 1354              		.loc 1 258 14
 1355 0150 BB68     		ldr	r3, [r7, #8]
 1356 0152 1968     		ldr	r1, [r3]
 1357              		.loc 1 258 24
 1358 0154 7A6A     		ldr	r2, [r7, #36]
 1359 0156 1346     		mov	r3, r2
 1360 0158 5B00     		lsls	r3, r3, #1
 1361 015a 1344     		add	r3, r3, r2
 1362 015c DB00     		lsls	r3, r3, #3
 1363 015e 0B44     		add	r3, r3, r1
 1364              		.loc 1 258 56
 1365 0160 D7ED067A 		vldr.32	s15, [r7, #24]
 1366 0164 67EE277A 		vmul.f32	s15, s14, s15
 1367              		.loc 1 258 48
 1368 0168 C3ED037A 		vstr.32	s15, [r3, #12]
 259:Lib/lib_vision_models_pp/lib_vision_models_pp/Src/od_pp_yolov8.c ****       pOutput->pOutBuff[det_count].conf        = scale * (float32_t)((int32_t)ptrScratch[i].conf   
 1369              		.loc 1 259 89
 1370 016c 3A6A     		ldr	r2, [r7, #32]
 1371 016e 1346     		mov	r3, r2
 1372 0170 5B00     		lsls	r3, r3, #1
ARM GAS  /tmp/ccp9R2iB.s 			page 30


 1373 0172 1344     		add	r3, r3, r2
 1374 0174 5B00     		lsls	r3, r3, #1
 1375 0176 1A46     		mov	r2, r3
 1376 0178 FB68     		ldr	r3, [r7, #12]
 1377 017a 1344     		add	r3, r3, r2
 1378              		.loc 1 259 92
 1379 017c 93F90430 		ldrsb	r3, [r3, #4]
 1380              		.loc 1 259 70
 1381 0180 1A46     		mov	r2, r3
 1382              		.loc 1 259 107
 1383 0182 97F91F30 		ldrsb	r3, [r7, #31]
 1384              		.loc 1 259 105
 1385 0186 D31A     		subs	r3, r2, r3
 1386              		.loc 1 259 58
 1387 0188 07EE903A 		vmov	s15, r3	@ int
 1388 018c B8EEE77A 		vcvt.f32.s32	s14, s15
 1389              		.loc 1 259 14
 1390 0190 BB68     		ldr	r3, [r7, #8]
 1391 0192 1968     		ldr	r1, [r3]
 1392              		.loc 1 259 24
 1393 0194 7A6A     		ldr	r2, [r7, #36]
 1394 0196 1346     		mov	r3, r2
 1395 0198 5B00     		lsls	r3, r3, #1
 1396 019a 1344     		add	r3, r3, r2
 1397 019c DB00     		lsls	r3, r3, #3
 1398 019e 0B44     		add	r3, r3, r1
 1399              		.loc 1 259 56
 1400 01a0 D7ED067A 		vldr.32	s15, [r7, #24]
 1401 01a4 67EE277A 		vmul.f32	s15, s14, s15
 1402              		.loc 1 259 48
 1403 01a8 C3ED047A 		vstr.32	s15, [r3, #16]
 260:Lib/lib_vision_models_pp/lib_vision_models_pp/Src/od_pp_yolov8.c ****       pOutput->pOutBuff[det_count].class_index = (int32_t)ptrScratch[i].class_index;
 1404              		.loc 1 260 69
 1405 01ac 3A6A     		ldr	r2, [r7, #32]
 1406 01ae 1346     		mov	r3, r2
 1407 01b0 5B00     		lsls	r3, r3, #1
 1408 01b2 1344     		add	r3, r3, r2
 1409 01b4 5B00     		lsls	r3, r3, #1
 1410 01b6 1A46     		mov	r2, r3
 1411 01b8 FB68     		ldr	r3, [r7, #12]
 1412 01ba 1344     		add	r3, r3, r2
 1413              		.loc 1 260 72
 1414 01bc 5879     		ldrb	r0, [r3, #5]	@ zero_extendqisi2
 1415              		.loc 1 260 14
 1416 01be BB68     		ldr	r3, [r7, #8]
 1417 01c0 1968     		ldr	r1, [r3]
 1418              		.loc 1 260 24
 1419 01c2 7A6A     		ldr	r2, [r7, #36]
 1420 01c4 1346     		mov	r3, r2
 1421 01c6 5B00     		lsls	r3, r3, #1
 1422 01c8 1344     		add	r3, r3, r2
 1423 01ca DB00     		lsls	r3, r3, #3
 1424 01cc 0B44     		add	r3, r3, r1
 1425              		.loc 1 260 50
 1426 01ce 0246     		mov	r2, r0
 1427              		.loc 1 260 48
 1428 01d0 5A61     		str	r2, [r3, #20]
ARM GAS  /tmp/ccp9R2iB.s 			page 31


 261:Lib/lib_vision_models_pp/lib_vision_models_pp/Src/od_pp_yolov8.c ****       det_count++;
 1429              		.loc 1 261 16
 1430 01d2 7B6A     		ldr	r3, [r7, #36]
 1431 01d4 0133     		adds	r3, r3, #1
 1432 01d6 7B62     		str	r3, [r7, #36]
 1433              	.L90:
 251:Lib/lib_vision_models_pp/lib_vision_models_pp/Src/od_pp_yolov8.c ****   {
 1434              		.loc 1 251 60 discriminator 2
 1435 01d8 3B6A     		ldr	r3, [r7, #32]
 1436 01da 0133     		adds	r3, r3, #1
 1437 01dc 3B62     		str	r3, [r7, #32]
 1438              	.L89:
 251:Lib/lib_vision_models_pp/lib_vision_models_pp/Src/od_pp_yolov8.c ****   {
 1439              		.loc 1 251 46 discriminator 1
 1440 01de 7B68     		ldr	r3, [r7, #4]
 1441 01e0 DB69     		ldr	r3, [r3, #28]
 251:Lib/lib_vision_models_pp/lib_vision_models_pp/Src/od_pp_yolov8.c ****   {
 1442              		.loc 1 251 25 discriminator 1
 1443 01e2 3A6A     		ldr	r2, [r7, #32]
 1444 01e4 9A42     		cmp	r2, r3
 1445 01e6 FFF632AF 		blt	.L91
 1446              	.LBE13:
 262:Lib/lib_vision_models_pp/lib_vision_models_pp/Src/od_pp_yolov8.c ****     }
 263:Lib/lib_vision_models_pp/lib_vision_models_pp/Src/od_pp_yolov8.c ****   }
 264:Lib/lib_vision_models_pp/lib_vision_models_pp/Src/od_pp_yolov8.c ****   pOutput->nb_detect = det_count;
 1447              		.loc 1 264 22
 1448 01ea BB68     		ldr	r3, [r7, #8]
 1449 01ec 7A6A     		ldr	r2, [r7, #36]
 1450 01ee 5A60     		str	r2, [r3, #4]
 265:Lib/lib_vision_models_pp/lib_vision_models_pp/Src/od_pp_yolov8.c **** 
 266:Lib/lib_vision_models_pp/lib_vision_models_pp/Src/od_pp_yolov8.c ****   return (AI_OD_POSTPROCESS_ERROR_NO);
 1451              		.loc 1 266 10
 1452 01f0 0023     		movs	r3, #0
 267:Lib/lib_vision_models_pp/lib_vision_models_pp/Src/od_pp_yolov8.c **** }
 1453              		.loc 1 267 1
 1454 01f2 1846     		mov	r0, r3
 1455 01f4 2C37     		adds	r7, r7, #44
 1456              		.cfi_def_cfa_offset 4
 1457 01f6 BD46     		mov	sp, r7
 1458              		.cfi_def_cfa_register 13
 1459              		@ sp needed
 1460 01f8 5DF8047B 		ldr	r7, [sp], #4
 1461              		.cfi_restore 7
 1462              		.cfi_def_cfa_offset 0
 1463 01fc 7047     		bx	lr
 1464              		.cfi_endproc
 1465              	.LFE2650:
 1467              		.section	.text.yolov8_pp_getNNBoxes_centroid,"ax",%progbits
 1468              		.align	1
 1469              		.global	yolov8_pp_getNNBoxes_centroid
 1470              		.syntax unified
 1471              		.thumb
 1472              		.thumb_func
 1474              	yolov8_pp_getNNBoxes_centroid:
 1475              	.LFB2651:
 268:Lib/lib_vision_models_pp/lib_vision_models_pp/Src/od_pp_yolov8.c **** 
 269:Lib/lib_vision_models_pp/lib_vision_models_pp/Src/od_pp_yolov8.c **** int32_t yolov8_pp_getNNBoxes_centroid(od_yolov8_pp_in_centroid_t *pInput,
ARM GAS  /tmp/ccp9R2iB.s 			page 32


 270:Lib/lib_vision_models_pp/lib_vision_models_pp/Src/od_pp_yolov8.c ****                                       od_pp_out_t *pOutput,
 271:Lib/lib_vision_models_pp/lib_vision_models_pp/Src/od_pp_yolov8.c ****                                       od_yolov8_pp_static_param_t *pInput_static_param)
 272:Lib/lib_vision_models_pp/lib_vision_models_pp/Src/od_pp_yolov8.c **** {
 1476              		.loc 1 272 1
 1477              		.cfi_startproc
 1478              		@ args = 0, pretend = 0, frame = 88
 1479              		@ frame_needed = 1, uses_anonymous_args = 0
 1480 0000 90B5     		push	{r4, r7, lr}
 1481              		.cfi_def_cfa_offset 12
 1482              		.cfi_offset 4, -12
 1483              		.cfi_offset 7, -8
 1484              		.cfi_offset 14, -4
 1485 0002 99B0     		sub	sp, sp, #100
 1486              		.cfi_def_cfa_offset 112
 1487 0004 02AF     		add	r7, sp, #8
 1488              		.cfi_def_cfa 7, 104
 1489 0006 F860     		str	r0, [r7, #12]
 1490 0008 B960     		str	r1, [r7, #8]
 1491 000a 7A60     		str	r2, [r7, #4]
 273:Lib/lib_vision_models_pp/lib_vision_models_pp/Src/od_pp_yolov8.c ****   int32_t error   = AI_OD_POSTPROCESS_ERROR_NO;
 1492              		.loc 1 273 11
 1493 000c 0023     		movs	r3, #0
 1494 000e 7B64     		str	r3, [r7, #68]
 274:Lib/lib_vision_models_pp/lib_vision_models_pp/Src/od_pp_yolov8.c ****   int32_t nb_classes = pInput_static_param->nb_classes;
 1495              		.loc 1 274 11
 1496 0010 7B68     		ldr	r3, [r7, #4]
 1497 0012 1B68     		ldr	r3, [r3]
 1498 0014 3B64     		str	r3, [r7, #64]
 275:Lib/lib_vision_models_pp/lib_vision_models_pp/Src/od_pp_yolov8.c ****   int32_t nb_total_boxes = pInput_static_param->nb_total_boxes;
 1499              		.loc 1 275 11
 1500 0016 7B68     		ldr	r3, [r7, #4]
 1501 0018 5B68     		ldr	r3, [r3, #4]
 1502 001a FB63     		str	r3, [r7, #60]
 276:Lib/lib_vision_models_pp/lib_vision_models_pp/Src/od_pp_yolov8.c ****   float32_t *pRaw_detections = (float32_t *)pInput->pRaw_detections;
 1503              		.loc 1 276 14
 1504 001c FB68     		ldr	r3, [r7, #12]
 1505 001e 1B68     		ldr	r3, [r3]
 1506 0020 BB63     		str	r3, [r7, #56]
 277:Lib/lib_vision_models_pp/lib_vision_models_pp/Src/od_pp_yolov8.c ****   int32_t remaining_boxes = nb_total_boxes;
 1507              		.loc 1 277 11
 1508 0022 FB6B     		ldr	r3, [r7, #60]
 1509 0024 7B65     		str	r3, [r7, #84]
 278:Lib/lib_vision_models_pp/lib_vision_models_pp/Src/od_pp_yolov8.c **** 
 279:Lib/lib_vision_models_pp/lib_vision_models_pp/Src/od_pp_yolov8.c ****   int32_t nb_detect = 0;
 1510              		.loc 1 279 11
 1511 0026 0023     		movs	r3, #0
 1512 0028 3B65     		str	r3, [r7, #80]
 280:Lib/lib_vision_models_pp/lib_vision_models_pp/Src/od_pp_yolov8.c ****   od_pp_outBuffer_t *pOutBuff = (od_pp_outBuffer_t *)pOutput->pOutBuff;
 1513              		.loc 1 280 22
 1514 002a BB68     		ldr	r3, [r7, #8]
 1515 002c 1B68     		ldr	r3, [r3]
 1516 002e 7B63     		str	r3, [r7, #52]
 1517              	.LBB14:
 281:Lib/lib_vision_models_pp/lib_vision_models_pp/Src/od_pp_yolov8.c **** 
 282:Lib/lib_vision_models_pp/lib_vision_models_pp/Src/od_pp_yolov8.c ****   for (int32_t i = 0; i < nb_total_boxes; i+=4)
 1518              		.loc 1 282 16
 1519 0030 0023     		movs	r3, #0
ARM GAS  /tmp/ccp9R2iB.s 			page 33


 1520 0032 FB64     		str	r3, [r7, #76]
 1521              		.loc 1 282 3
 1522 0034 A1E0     		b	.L94
 1523              	.L99:
 1524              	.LBB15:
 283:Lib/lib_vision_models_pp/lib_vision_models_pp/Src/od_pp_yolov8.c ****   {
 284:Lib/lib_vision_models_pp/lib_vision_models_pp/Src/od_pp_yolov8.c ****     float32_t best_score_array[4];
 285:Lib/lib_vision_models_pp/lib_vision_models_pp/Src/od_pp_yolov8.c ****     uint32_t class_index_array[4];
 286:Lib/lib_vision_models_pp/lib_vision_models_pp/Src/od_pp_yolov8.c **** 
 287:Lib/lib_vision_models_pp/lib_vision_models_pp/Src/od_pp_yolov8.c ****     vision_models_maxi_tr_p_if32ou32(&pRaw_detections[i + AI_YOLOV8_PP_CLASSPROB * nb_total_boxes],
 1525              		.loc 1 287 82
 1526 0036 FB6B     		ldr	r3, [r7, #60]
 1527 0038 9A00     		lsls	r2, r3, #2
 1528              		.loc 1 287 57
 1529 003a FB6C     		ldr	r3, [r7, #76]
 1530 003c 1344     		add	r3, r3, r2
 1531              		.loc 1 287 54
 1532 003e 9B00     		lsls	r3, r3, #2
 1533              		.loc 1 287 5
 1534 0040 BA6B     		ldr	r2, [r7, #56]
 1535 0042 D018     		adds	r0, r2, r3
 1536 0044 396C     		ldr	r1, [r7, #64]
 1537 0046 FA6B     		ldr	r2, [r7, #60]
 1538 0048 7B6D     		ldr	r3, [r7, #84]
 1539 004a 07F12404 		add	r4, r7, #36
 1540 004e 0193     		str	r3, [sp, #4]
 1541 0050 07F11403 		add	r3, r7, #20
 1542 0054 0093     		str	r3, [sp]
 1543 0056 2346     		mov	r3, r4
 1544 0058 FFF7FEFF 		bl	vision_models_maxi_tr_p_if32ou32
 1545              	.LBB16:
 288:Lib/lib_vision_models_pp/lib_vision_models_pp/Src/od_pp_yolov8.c ****                                      nb_classes,
 289:Lib/lib_vision_models_pp/lib_vision_models_pp/Src/od_pp_yolov8.c ****                                      nb_total_boxes,
 290:Lib/lib_vision_models_pp/lib_vision_models_pp/Src/od_pp_yolov8.c ****                                      best_score_array,
 291:Lib/lib_vision_models_pp/lib_vision_models_pp/Src/od_pp_yolov8.c ****                                      class_index_array,
 292:Lib/lib_vision_models_pp/lib_vision_models_pp/Src/od_pp_yolov8.c ****                                      remaining_boxes);
 293:Lib/lib_vision_models_pp/lib_vision_models_pp/Src/od_pp_yolov8.c ****     for (int _i = 0; _i < ((remaining_boxes>4)?4:remaining_boxes); _i++)
 1546              		.loc 1 293 14
 1547 005c 0023     		movs	r3, #0
 1548 005e BB64     		str	r3, [r7, #72]
 1549              		.loc 1 293 5
 1550 0060 7DE0     		b	.L95
 1551              	.L98:
 294:Lib/lib_vision_models_pp/lib_vision_models_pp/Src/od_pp_yolov8.c ****     {
 295:Lib/lib_vision_models_pp/lib_vision_models_pp/Src/od_pp_yolov8.c ****       if (best_score_array[_i] >= pInput_static_param->conf_threshold)
 1552              		.loc 1 295 27
 1553 0062 BB6C     		ldr	r3, [r7, #72]
 1554 0064 9B00     		lsls	r3, r3, #2
 1555 0066 5833     		adds	r3, r3, #88
 1556 0068 3B44     		add	r3, r3, r7
 1557 006a 343B     		subs	r3, r3, #52
 1558 006c 93ED007A 		vldr.32	s14, [r3]
 1559              		.loc 1 295 54
 1560 0070 7B68     		ldr	r3, [r7, #4]
 1561 0072 D3ED037A 		vldr.32	s15, [r3, #12]
 1562              		.loc 1 295 10
 1563 0076 B4EEE77A 		vcmpe.f32	s14, s15
ARM GAS  /tmp/ccp9R2iB.s 			page 34


 1564 007a F1EE10FA 		vmrs	APSR_nzcv, FPSCR
 1565 007e 6BDB     		blt	.L96
 296:Lib/lib_vision_models_pp/lib_vision_models_pp/Src/od_pp_yolov8.c ****       {
 297:Lib/lib_vision_models_pp/lib_vision_models_pp/Src/od_pp_yolov8.c ****         pOutBuff[nb_detect].x_center    = pRaw_detections[i + _i + AI_YOLOV8_PP_XCENTER   * nb_tota
 1566              		.loc 1 297 66
 1567 0080 FA6C     		ldr	r2, [r7, #76]
 1568 0082 BB6C     		ldr	r3, [r7, #72]
 1569 0084 1344     		add	r3, r3, r2
 1570              		.loc 1 297 58
 1571 0086 9B00     		lsls	r3, r3, #2
 1572 0088 BA6B     		ldr	r2, [r7, #56]
 1573 008a D118     		adds	r1, r2, r3
 1574              		.loc 1 297 17
 1575 008c 3A6D     		ldr	r2, [r7, #80]
 1576 008e 1346     		mov	r3, r2
 1577 0090 5B00     		lsls	r3, r3, #1
 1578 0092 1344     		add	r3, r3, r2
 1579 0094 DB00     		lsls	r3, r3, #3
 1580 0096 1A46     		mov	r2, r3
 1581 0098 7B6B     		ldr	r3, [r7, #52]
 1582 009a 1344     		add	r3, r3, r2
 1583              		.loc 1 297 58
 1584 009c 0A68     		ldr	r2, [r1]	@ float
 1585              		.loc 1 297 41
 1586 009e 1A60     		str	r2, [r3]	@ float
 298:Lib/lib_vision_models_pp/lib_vision_models_pp/Src/od_pp_yolov8.c ****         pOutBuff[nb_detect].y_center    = pRaw_detections[i + _i + AI_YOLOV8_PP_YCENTER   * nb_tota
 1587              		.loc 1 298 61
 1588 00a0 FA6C     		ldr	r2, [r7, #76]
 1589 00a2 BB6C     		ldr	r3, [r7, #72]
 1590 00a4 1A44     		add	r2, r2, r3
 1591              		.loc 1 298 66
 1592 00a6 FB6B     		ldr	r3, [r7, #60]
 1593 00a8 1344     		add	r3, r3, r2
 1594              		.loc 1 298 58
 1595 00aa 9B00     		lsls	r3, r3, #2
 1596 00ac BA6B     		ldr	r2, [r7, #56]
 1597 00ae D118     		adds	r1, r2, r3
 1598              		.loc 1 298 17
 1599 00b0 3A6D     		ldr	r2, [r7, #80]
 1600 00b2 1346     		mov	r3, r2
 1601 00b4 5B00     		lsls	r3, r3, #1
 1602 00b6 1344     		add	r3, r3, r2
 1603 00b8 DB00     		lsls	r3, r3, #3
 1604 00ba 1A46     		mov	r2, r3
 1605 00bc 7B6B     		ldr	r3, [r7, #52]
 1606 00be 1344     		add	r3, r3, r2
 1607              		.loc 1 298 58
 1608 00c0 0A68     		ldr	r2, [r1]	@ float
 1609              		.loc 1 298 41
 1610 00c2 5A60     		str	r2, [r3, #4]	@ float
 299:Lib/lib_vision_models_pp/lib_vision_models_pp/Src/od_pp_yolov8.c ****         pOutBuff[nb_detect].width       = pRaw_detections[i + _i + AI_YOLOV8_PP_WIDTHREL  * nb_tota
 1611              		.loc 1 299 61
 1612 00c4 FA6C     		ldr	r2, [r7, #76]
 1613 00c6 BB6C     		ldr	r3, [r7, #72]
 1614 00c8 1A44     		add	r2, r2, r3
 1615              		.loc 1 299 91
 1616 00ca FB6B     		ldr	r3, [r7, #60]
ARM GAS  /tmp/ccp9R2iB.s 			page 35


 1617 00cc 5B00     		lsls	r3, r3, #1
 1618              		.loc 1 299 66
 1619 00ce 1344     		add	r3, r3, r2
 1620              		.loc 1 299 58
 1621 00d0 9B00     		lsls	r3, r3, #2
 1622 00d2 BA6B     		ldr	r2, [r7, #56]
 1623 00d4 D118     		adds	r1, r2, r3
 1624              		.loc 1 299 17
 1625 00d6 3A6D     		ldr	r2, [r7, #80]
 1626 00d8 1346     		mov	r3, r2
 1627 00da 5B00     		lsls	r3, r3, #1
 1628 00dc 1344     		add	r3, r3, r2
 1629 00de DB00     		lsls	r3, r3, #3
 1630 00e0 1A46     		mov	r2, r3
 1631 00e2 7B6B     		ldr	r3, [r7, #52]
 1632 00e4 1344     		add	r3, r3, r2
 1633              		.loc 1 299 58
 1634 00e6 0A68     		ldr	r2, [r1]	@ float
 1635              		.loc 1 299 41
 1636 00e8 9A60     		str	r2, [r3, #8]	@ float
 300:Lib/lib_vision_models_pp/lib_vision_models_pp/Src/od_pp_yolov8.c ****         pOutBuff[nb_detect].height      = pRaw_detections[i + _i + AI_YOLOV8_PP_HEIGHTREL * nb_tota
 1637              		.loc 1 300 61
 1638 00ea FA6C     		ldr	r2, [r7, #76]
 1639 00ec BB6C     		ldr	r3, [r7, #72]
 1640 00ee D118     		adds	r1, r2, r3
 1641              		.loc 1 300 91
 1642 00f0 FA6B     		ldr	r2, [r7, #60]
 1643 00f2 1346     		mov	r3, r2
 1644 00f4 5B00     		lsls	r3, r3, #1
 1645 00f6 1344     		add	r3, r3, r2
 1646              		.loc 1 300 66
 1647 00f8 0B44     		add	r3, r3, r1
 1648              		.loc 1 300 58
 1649 00fa 9B00     		lsls	r3, r3, #2
 1650 00fc BA6B     		ldr	r2, [r7, #56]
 1651 00fe D118     		adds	r1, r2, r3
 1652              		.loc 1 300 17
 1653 0100 3A6D     		ldr	r2, [r7, #80]
 1654 0102 1346     		mov	r3, r2
 1655 0104 5B00     		lsls	r3, r3, #1
 1656 0106 1344     		add	r3, r3, r2
 1657 0108 DB00     		lsls	r3, r3, #3
 1658 010a 1A46     		mov	r2, r3
 1659 010c 7B6B     		ldr	r3, [r7, #52]
 1660 010e 1344     		add	r3, r3, r2
 1661              		.loc 1 300 58
 1662 0110 0A68     		ldr	r2, [r1]	@ float
 1663              		.loc 1 300 41
 1664 0112 DA60     		str	r2, [r3, #12]	@ float
 301:Lib/lib_vision_models_pp/lib_vision_models_pp/Src/od_pp_yolov8.c ****         pOutBuff[nb_detect].conf        = best_score_array[_i];
 1665              		.loc 1 301 17
 1666 0114 3A6D     		ldr	r2, [r7, #80]
 1667 0116 1346     		mov	r3, r2
 1668 0118 5B00     		lsls	r3, r3, #1
 1669 011a 1344     		add	r3, r3, r2
 1670 011c DB00     		lsls	r3, r3, #3
 1671 011e 1A46     		mov	r2, r3
ARM GAS  /tmp/ccp9R2iB.s 			page 36


 1672 0120 7B6B     		ldr	r3, [r7, #52]
 1673 0122 1344     		add	r3, r3, r2
 1674              		.loc 1 301 59
 1675 0124 BA6C     		ldr	r2, [r7, #72]
 1676 0126 9200     		lsls	r2, r2, #2
 1677 0128 5832     		adds	r2, r2, #88
 1678 012a 3A44     		add	r2, r2, r7
 1679 012c 343A     		subs	r2, r2, #52
 1680 012e 1268     		ldr	r2, [r2]	@ float
 1681              		.loc 1 301 41
 1682 0130 1A61     		str	r2, [r3, #16]	@ float
 302:Lib/lib_vision_models_pp/lib_vision_models_pp/Src/od_pp_yolov8.c ****         pOutBuff[nb_detect].class_index = class_index_array[_i];
 1683              		.loc 1 302 60
 1684 0132 BB6C     		ldr	r3, [r7, #72]
 1685 0134 9B00     		lsls	r3, r3, #2
 1686 0136 5833     		adds	r3, r3, #88
 1687 0138 3B44     		add	r3, r3, r7
 1688 013a 53F8441C 		ldr	r1, [r3, #-68]
 1689              		.loc 1 302 17
 1690 013e 3A6D     		ldr	r2, [r7, #80]
 1691 0140 1346     		mov	r3, r2
 1692 0142 5B00     		lsls	r3, r3, #1
 1693 0144 1344     		add	r3, r3, r2
 1694 0146 DB00     		lsls	r3, r3, #3
 1695 0148 1A46     		mov	r2, r3
 1696 014a 7B6B     		ldr	r3, [r7, #52]
 1697 014c 1344     		add	r3, r3, r2
 1698              		.loc 1 302 60
 1699 014e 0A46     		mov	r2, r1
 1700              		.loc 1 302 41
 1701 0150 5A61     		str	r2, [r3, #20]
 303:Lib/lib_vision_models_pp/lib_vision_models_pp/Src/od_pp_yolov8.c ****         nb_detect++;
 1702              		.loc 1 303 18
 1703 0152 3B6D     		ldr	r3, [r7, #80]
 1704 0154 0133     		adds	r3, r3, #1
 1705 0156 3B65     		str	r3, [r7, #80]
 1706              	.L96:
 293:Lib/lib_vision_models_pp/lib_vision_models_pp/Src/od_pp_yolov8.c ****     {
 1707              		.loc 1 293 70 discriminator 2
 1708 0158 BB6C     		ldr	r3, [r7, #72]
 1709 015a 0133     		adds	r3, r3, #1
 1710 015c BB64     		str	r3, [r7, #72]
 1711              	.L95:
 293:Lib/lib_vision_models_pp/lib_vision_models_pp/Src/od_pp_yolov8.c ****     {
 1712              		.loc 1 293 49 discriminator 1
 1713 015e 7B6D     		ldr	r3, [r7, #84]
 1714 0160 042B     		cmp	r3, #4
 1715 0162 A8BF     		it	ge
 1716 0164 0423     		movge	r3, #4
 293:Lib/lib_vision_models_pp/lib_vision_models_pp/Src/od_pp_yolov8.c ****     {
 1717              		.loc 1 293 25 discriminator 1
 1718 0166 BA6C     		ldr	r2, [r7, #72]
 1719 0168 9A42     		cmp	r2, r3
 1720 016a FFF67AAF 		blt	.L98
 1721              	.LBE16:
 304:Lib/lib_vision_models_pp/lib_vision_models_pp/Src/od_pp_yolov8.c ****       }
 305:Lib/lib_vision_models_pp/lib_vision_models_pp/Src/od_pp_yolov8.c ****     }
ARM GAS  /tmp/ccp9R2iB.s 			page 37


 306:Lib/lib_vision_models_pp/lib_vision_models_pp/Src/od_pp_yolov8.c ****     remaining_boxes-=4;
 1722              		.loc 1 306 20
 1723 016e 7B6D     		ldr	r3, [r7, #84]
 1724 0170 043B     		subs	r3, r3, #4
 1725 0172 7B65     		str	r3, [r7, #84]
 1726              	.LBE15:
 282:Lib/lib_vision_models_pp/lib_vision_models_pp/Src/od_pp_yolov8.c ****   {
 1727              		.loc 1 282 44 discriminator 2
 1728 0174 FB6C     		ldr	r3, [r7, #76]
 1729 0176 0433     		adds	r3, r3, #4
 1730 0178 FB64     		str	r3, [r7, #76]
 1731              	.L94:
 282:Lib/lib_vision_models_pp/lib_vision_models_pp/Src/od_pp_yolov8.c ****   {
 1732              		.loc 1 282 25 discriminator 1
 1733 017a FA6C     		ldr	r2, [r7, #76]
 1734 017c FB6B     		ldr	r3, [r7, #60]
 1735 017e 9A42     		cmp	r2, r3
 1736 0180 FFF659AF 		blt	.L99
 1737              	.LBE14:
 307:Lib/lib_vision_models_pp/lib_vision_models_pp/Src/od_pp_yolov8.c ****   } // for nb_total_boxes
 308:Lib/lib_vision_models_pp/lib_vision_models_pp/Src/od_pp_yolov8.c ****   pInput_static_param->nb_detect = nb_detect;
 1738              		.loc 1 308 34
 1739 0184 7B68     		ldr	r3, [r7, #4]
 1740 0186 3A6D     		ldr	r2, [r7, #80]
 1741 0188 DA61     		str	r2, [r3, #28]
 309:Lib/lib_vision_models_pp/lib_vision_models_pp/Src/od_pp_yolov8.c **** 
 310:Lib/lib_vision_models_pp/lib_vision_models_pp/Src/od_pp_yolov8.c ****   return (error);
 1742              		.loc 1 310 10
 1743 018a 7B6C     		ldr	r3, [r7, #68]
 311:Lib/lib_vision_models_pp/lib_vision_models_pp/Src/od_pp_yolov8.c **** }
 1744              		.loc 1 311 1
 1745 018c 1846     		mov	r0, r3
 1746 018e 5C37     		adds	r7, r7, #92
 1747              		.cfi_def_cfa_offset 12
 1748 0190 BD46     		mov	sp, r7
 1749              		.cfi_def_cfa_register 13
 1750              		@ sp needed
 1751 0192 90BD     		pop	{r4, r7, pc}
 1752              		.cfi_endproc
 1753              	.LFE2651:
 1755              		.section	.text.yolov8_pp_getNNBoxes_centroid_int8,"ax",%progbits
 1756              		.align	1
 1757              		.global	yolov8_pp_getNNBoxes_centroid_int8
 1758              		.syntax unified
 1759              		.thumb
 1760              		.thumb_func
 1762              	yolov8_pp_getNNBoxes_centroid_int8:
 1763              	.LFB2652:
 312:Lib/lib_vision_models_pp/lib_vision_models_pp/Src/od_pp_yolov8.c **** 
 313:Lib/lib_vision_models_pp/lib_vision_models_pp/Src/od_pp_yolov8.c **** int32_t yolov8_pp_getNNBoxes_centroid_int8(od_yolov8_pp_in_centroid_t *pInput,
 314:Lib/lib_vision_models_pp/lib_vision_models_pp/Src/od_pp_yolov8.c ****                                            od_pp_out_t *pOutput,
 315:Lib/lib_vision_models_pp/lib_vision_models_pp/Src/od_pp_yolov8.c ****                                            od_yolov8_pp_static_param_t *pInput_static_param)
 316:Lib/lib_vision_models_pp/lib_vision_models_pp/Src/od_pp_yolov8.c **** {
 1764              		.loc 1 316 1
 1765              		.cfi_startproc
 1766              		@ args = 0, pretend = 0, frame = 160
 1767              		@ frame_needed = 1, uses_anonymous_args = 0
ARM GAS  /tmp/ccp9R2iB.s 			page 38


 1768 0000 90B5     		push	{r4, r7, lr}
 1769              		.cfi_def_cfa_offset 12
 1770              		.cfi_offset 4, -12
 1771              		.cfi_offset 7, -8
 1772              		.cfi_offset 14, -4
 1773 0002 ABB0     		sub	sp, sp, #172
 1774              		.cfi_def_cfa_offset 184
 1775 0004 02AF     		add	r7, sp, #8
 1776              		.cfi_def_cfa 7, 176
 1777 0006 F860     		str	r0, [r7, #12]
 1778 0008 B960     		str	r1, [r7, #8]
 1779 000a 7A60     		str	r2, [r7, #4]
 317:Lib/lib_vision_models_pp/lib_vision_models_pp/Src/od_pp_yolov8.c ****   int32_t error   = AI_OD_POSTPROCESS_ERROR_NO;
 1780              		.loc 1 317 11
 1781 000c 0023     		movs	r3, #0
 1782 000e C7F88430 		str	r3, [r7, #132]
 318:Lib/lib_vision_models_pp/lib_vision_models_pp/Src/od_pp_yolov8.c ****   int32_t class_index = 0;
 1783              		.loc 1 318 11
 1784 0012 0023     		movs	r3, #0
 1785 0014 C7F88030 		str	r3, [r7, #128]
 319:Lib/lib_vision_models_pp/lib_vision_models_pp/Src/od_pp_yolov8.c ****   int32_t nb_classes = pInput_static_param->nb_classes;
 1786              		.loc 1 319 11
 1787 0018 7B68     		ldr	r3, [r7, #4]
 1788 001a 1B68     		ldr	r3, [r3]
 1789 001c FB67     		str	r3, [r7, #124]
 320:Lib/lib_vision_models_pp/lib_vision_models_pp/Src/od_pp_yolov8.c ****   int32_t nb_total_boxes = pInput_static_param->nb_total_boxes;
 1790              		.loc 1 320 11
 1791 001e 7B68     		ldr	r3, [r7, #4]
 1792 0020 5B68     		ldr	r3, [r3, #4]
 1793 0022 BB67     		str	r3, [r7, #120]
 321:Lib/lib_vision_models_pp/lib_vision_models_pp/Src/od_pp_yolov8.c ****   int8_t *pRaw_detections = (int8_t *)pInput->pRaw_detections;
 1794              		.loc 1 321 11
 1795 0024 FB68     		ldr	r3, [r7, #12]
 1796 0026 1B68     		ldr	r3, [r3]
 1797 0028 7B67     		str	r3, [r7, #116]
 322:Lib/lib_vision_models_pp/lib_vision_models_pp/Src/od_pp_yolov8.c ****   int8_t zero_point = pInput_static_param->raw_output_zero_point;
 1798              		.loc 1 322 10
 1799 002a 7B68     		ldr	r3, [r7, #4]
 1800 002c 1B7E     		ldrb	r3, [r3, #24]
 1801 002e 87F87330 		strb	r3, [r7, #115]
 323:Lib/lib_vision_models_pp/lib_vision_models_pp/Src/od_pp_yolov8.c ****   float32_t scale = pInput_static_param->raw_output_scale;
 1802              		.loc 1 323 13
 1803 0032 7B68     		ldr	r3, [r7, #4]
 1804 0034 5B69     		ldr	r3, [r3, #20]	@ float
 1805 0036 FB66     		str	r3, [r7, #108]	@ float
 324:Lib/lib_vision_models_pp/lib_vision_models_pp/Src/od_pp_yolov8.c ****   float32_t best_score_f;
 325:Lib/lib_vision_models_pp/lib_vision_models_pp/Src/od_pp_yolov8.c **** 
 326:Lib/lib_vision_models_pp/lib_vision_models_pp/Src/od_pp_yolov8.c ****   int32_t remaining_boxes = nb_total_boxes;
 1806              		.loc 1 326 11
 1807 0038 BB6F     		ldr	r3, [r7, #120]
 1808 003a C7F89C30 		str	r3, [r7, #156]
 327:Lib/lib_vision_models_pp/lib_vision_models_pp/Src/od_pp_yolov8.c ****   int32_t nb_detect = 0;
 1809              		.loc 1 327 11
 1810 003e 0023     		movs	r3, #0
 1811 0040 C7F89830 		str	r3, [r7, #152]
 328:Lib/lib_vision_models_pp/lib_vision_models_pp/Src/od_pp_yolov8.c ****   int8_t conf_threshold_s8 = (int8_t)(pInput_static_param->conf_threshold / scale + 0.5f) + zero_po
 1812              		.loc 1 328 58
ARM GAS  /tmp/ccp9R2iB.s 			page 39


 1813 0044 7B68     		ldr	r3, [r7, #4]
 1814 0046 D3ED036A 		vldr.32	s13, [r3, #12]
 1815              		.loc 1 328 75
 1816 004a 97ED1B7A 		vldr.32	s14, [r7, #108]
 1817 004e C6EE877A 		vdiv.f32	s15, s13, s14
 1818              		.loc 1 328 83
 1819 0052 B6EE007A 		vmov.f32	s14, #5.0e-1
 1820 0056 77EE877A 		vadd.f32	s15, s15, s14
 1821              		.loc 1 328 30
 1822 005a FDEEE77A 		vcvt.s32.f32	s15, s15
 1823 005e C7ED007A 		vstr.32	s15, [r7]	@ int
 1824 0062 3B78     		ldrb	r3, [r7]
 1825 0064 5BB2     		sxtb	r3, r3
 1826 0066 DAB2     		uxtb	r2, r3
 1827              		.loc 1 328 91
 1828 0068 97F87330 		ldrb	r3, [r7, #115]	@ zero_extendqisi2
 1829 006c 1344     		add	r3, r3, r2
 1830 006e DBB2     		uxtb	r3, r3
 1831              		.loc 1 328 10
 1832 0070 87F86B30 		strb	r3, [r7, #107]
 329:Lib/lib_vision_models_pp/lib_vision_models_pp/Src/od_pp_yolov8.c **** 
 330:Lib/lib_vision_models_pp/lib_vision_models_pp/Src/od_pp_yolov8.c ****   od_pp_outBuffer_t *pOutBuff = (od_pp_outBuffer_t *)pOutput->pOutBuff;
 1833              		.loc 1 330 22
 1834 0074 BB68     		ldr	r3, [r7, #8]
 1835 0076 1B68     		ldr	r3, [r3]
 1836 0078 7B66     		str	r3, [r7, #100]
 331:Lib/lib_vision_models_pp/lib_vision_models_pp/Src/od_pp_yolov8.c ****   if (nb_classes < 256) {
 1837              		.loc 1 331 6
 1838 007a FB6F     		ldr	r3, [r7, #124]
 1839 007c FF2B     		cmp	r3, #255
 1840 007e 00F31081 		bgt	.L103
 1841              	.LBB17:
 1842              	.LBB18:
 332:Lib/lib_vision_models_pp/lib_vision_models_pp/Src/od_pp_yolov8.c ****     int8_t best_score_array[16];
 333:Lib/lib_vision_models_pp/lib_vision_models_pp/Src/od_pp_yolov8.c ****     uint8_t class_index_array[16];
 334:Lib/lib_vision_models_pp/lib_vision_models_pp/Src/od_pp_yolov8.c ****     for (int32_t i = 0; i < nb_total_boxes; i+=16)
 1843              		.loc 1 334 18
 1844 0082 0023     		movs	r3, #0
 1845 0084 C7F89430 		str	r3, [r7, #148]
 1846              		.loc 1 334 5
 1847 0088 04E1     		b	.L104
 1848              	.L108:
 335:Lib/lib_vision_models_pp/lib_vision_models_pp/Src/od_pp_yolov8.c ****     {
 336:Lib/lib_vision_models_pp/lib_vision_models_pp/Src/od_pp_yolov8.c ****       vision_models_maxi_tr_p_is8ou8(&pRaw_detections[i + AI_YOLOV8_PP_CLASSPROB * nb_total_boxes],
 1849              		.loc 1 336 82
 1850 008a BB6F     		ldr	r3, [r7, #120]
 1851 008c 9A00     		lsls	r2, r3, #2
 1852              		.loc 1 336 57
 1853 008e D7F89430 		ldr	r3, [r7, #148]
 1854 0092 1344     		add	r3, r3, r2
 1855 0094 1A46     		mov	r2, r3
 1856              		.loc 1 336 7
 1857 0096 7B6F     		ldr	r3, [r7, #116]
 1858 0098 9818     		adds	r0, r3, r2
 1859 009a F96F     		ldr	r1, [r7, #124]
 1860 009c BA6F     		ldr	r2, [r7, #120]
 1861 009e D7F89C30 		ldr	r3, [r7, #156]
ARM GAS  /tmp/ccp9R2iB.s 			page 40


 1862 00a2 07F15004 		add	r4, r7, #80
 1863 00a6 0193     		str	r3, [sp, #4]
 1864 00a8 07F14003 		add	r3, r7, #64
 1865 00ac 0093     		str	r3, [sp]
 1866 00ae 2346     		mov	r3, r4
 1867 00b0 FFF7FEFF 		bl	vision_models_maxi_tr_p_is8ou8
 1868              	.LBB19:
 337:Lib/lib_vision_models_pp/lib_vision_models_pp/Src/od_pp_yolov8.c ****                                      nb_classes,
 338:Lib/lib_vision_models_pp/lib_vision_models_pp/Src/od_pp_yolov8.c ****                                      nb_total_boxes,
 339:Lib/lib_vision_models_pp/lib_vision_models_pp/Src/od_pp_yolov8.c ****                                      best_score_array,
 340:Lib/lib_vision_models_pp/lib_vision_models_pp/Src/od_pp_yolov8.c ****                                      class_index_array,
 341:Lib/lib_vision_models_pp/lib_vision_models_pp/Src/od_pp_yolov8.c ****                                      remaining_boxes);
 342:Lib/lib_vision_models_pp/lib_vision_models_pp/Src/od_pp_yolov8.c ****       for (int _i = 0; _i < ((remaining_boxes>16)?16:remaining_boxes); _i++)
 1869              		.loc 1 342 16
 1870 00b4 0023     		movs	r3, #0
 1871 00b6 C7F89030 		str	r3, [r7, #144]
 1872              		.loc 1 342 7
 1873 00ba D7E0     		b	.L105
 1874              	.L107:
 343:Lib/lib_vision_models_pp/lib_vision_models_pp/Src/od_pp_yolov8.c ****       {
 344:Lib/lib_vision_models_pp/lib_vision_models_pp/Src/od_pp_yolov8.c ****           if ( best_score_array[_i] >= conf_threshold_s8)
 1875              		.loc 1 344 32
 1876 00bc 07F15002 		add	r2, r7, #80
 1877 00c0 D7F89030 		ldr	r3, [r7, #144]
 1878 00c4 1344     		add	r3, r3, r2
 1879 00c6 93F90030 		ldrsb	r3, [r3]
 1880              		.loc 1 344 14
 1881 00ca 97F96B20 		ldrsb	r2, [r7, #107]
 1882 00ce 9A42     		cmp	r2, r3
 1883 00d0 00F3C780 		bgt	.L106
 345:Lib/lib_vision_models_pp/lib_vision_models_pp/Src/od_pp_yolov8.c ****           {
 346:Lib/lib_vision_models_pp/lib_vision_models_pp/Src/od_pp_yolov8.c ****             best_score_f = scale * (float32_t)(best_score_array[_i] - zero_point);
 1884              		.loc 1 346 64
 1885 00d4 07F15002 		add	r2, r7, #80
 1886 00d8 D7F89030 		ldr	r3, [r7, #144]
 1887 00dc 1344     		add	r3, r3, r2
 1888 00de 93F90030 		ldrsb	r3, [r3]
 1889 00e2 1A46     		mov	r2, r3
 1890              		.loc 1 346 69
 1891 00e4 97F97330 		ldrsb	r3, [r7, #115]
 1892 00e8 D31A     		subs	r3, r2, r3
 1893              		.loc 1 346 36
 1894 00ea 07EE903A 		vmov	s15, r3	@ int
 1895 00ee F8EEE77A 		vcvt.f32.s32	s15, s15
 1896              		.loc 1 346 26
 1897 00f2 97ED1B7A 		vldr.32	s14, [r7, #108]
 1898 00f6 67EE277A 		vmul.f32	s15, s14, s15
 1899 00fa C7ED187A 		vstr.32	s15, [r7, #96]
 347:Lib/lib_vision_models_pp/lib_vision_models_pp/Src/od_pp_yolov8.c ****             class_index = class_index_array[_i];
 1900              		.loc 1 347 44
 1901 00fe 07F14002 		add	r2, r7, #64
 1902 0102 D7F89030 		ldr	r3, [r7, #144]
 1903 0106 1344     		add	r3, r3, r2
 1904 0108 1B78     		ldrb	r3, [r3]	@ zero_extendqisi2
 1905              		.loc 1 347 25
 1906 010a C7F88030 		str	r3, [r7, #128]
 348:Lib/lib_vision_models_pp/lib_vision_models_pp/Src/od_pp_yolov8.c ****             pOutBuff[nb_detect].x_center    = scale * (float32_t)((int32_t)pRaw_detections[i + _i +
ARM GAS  /tmp/ccp9R2iB.s 			page 41


 1907              		.loc 1 348 99
 1908 010e D7F89420 		ldr	r2, [r7, #148]
 1909 0112 D7F89030 		ldr	r3, [r7, #144]
 1910 0116 1344     		add	r3, r3, r2
 1911 0118 1A46     		mov	r2, r3
 1912              		.loc 1 348 91
 1913 011a 7B6F     		ldr	r3, [r7, #116]
 1914 011c 1344     		add	r3, r3, r2
 1915 011e 93F90030 		ldrsb	r3, [r3]
 1916              		.loc 1 348 67
 1917 0122 1A46     		mov	r2, r3
 1918              		.loc 1 348 144
 1919 0124 97F97330 		ldrsb	r3, [r7, #115]
 1920              		.loc 1 348 142
 1921 0128 D31A     		subs	r3, r2, r3
 1922              		.loc 1 348 55
 1923 012a 07EE903A 		vmov	s15, r3	@ int
 1924 012e B8EEE77A 		vcvt.f32.s32	s14, s15
 1925              		.loc 1 348 21
 1926 0132 D7F89820 		ldr	r2, [r7, #152]
 1927 0136 1346     		mov	r3, r2
 1928 0138 5B00     		lsls	r3, r3, #1
 1929 013a 1344     		add	r3, r3, r2
 1930 013c DB00     		lsls	r3, r3, #3
 1931 013e 1A46     		mov	r2, r3
 1932 0140 7B6E     		ldr	r3, [r7, #100]
 1933 0142 1344     		add	r3, r3, r2
 1934              		.loc 1 348 53
 1935 0144 D7ED1B7A 		vldr.32	s15, [r7, #108]
 1936 0148 67EE277A 		vmul.f32	s15, s14, s15
 1937              		.loc 1 348 45
 1938 014c C3ED007A 		vstr.32	s15, [r3]
 349:Lib/lib_vision_models_pp/lib_vision_models_pp/Src/od_pp_yolov8.c ****             pOutBuff[nb_detect].y_center    = scale * (float32_t)((int32_t)pRaw_detections[i + _i +
 1939              		.loc 1 349 94
 1940 0150 D7F89420 		ldr	r2, [r7, #148]
 1941 0154 D7F89030 		ldr	r3, [r7, #144]
 1942 0158 1A44     		add	r2, r2, r3
 1943              		.loc 1 349 99
 1944 015a BB6F     		ldr	r3, [r7, #120]
 1945 015c 1344     		add	r3, r3, r2
 1946 015e 1A46     		mov	r2, r3
 1947              		.loc 1 349 91
 1948 0160 7B6F     		ldr	r3, [r7, #116]
 1949 0162 1344     		add	r3, r3, r2
 1950 0164 93F90030 		ldrsb	r3, [r3]
 1951              		.loc 1 349 67
 1952 0168 1A46     		mov	r2, r3
 1953              		.loc 1 349 144
 1954 016a 97F97330 		ldrsb	r3, [r7, #115]
 1955              		.loc 1 349 142
 1956 016e D31A     		subs	r3, r2, r3
 1957              		.loc 1 349 55
 1958 0170 07EE903A 		vmov	s15, r3	@ int
 1959 0174 B8EEE77A 		vcvt.f32.s32	s14, s15
 1960              		.loc 1 349 21
 1961 0178 D7F89820 		ldr	r2, [r7, #152]
 1962 017c 1346     		mov	r3, r2
ARM GAS  /tmp/ccp9R2iB.s 			page 42


 1963 017e 5B00     		lsls	r3, r3, #1
 1964 0180 1344     		add	r3, r3, r2
 1965 0182 DB00     		lsls	r3, r3, #3
 1966 0184 1A46     		mov	r2, r3
 1967 0186 7B6E     		ldr	r3, [r7, #100]
 1968 0188 1344     		add	r3, r3, r2
 1969              		.loc 1 349 53
 1970 018a D7ED1B7A 		vldr.32	s15, [r7, #108]
 1971 018e 67EE277A 		vmul.f32	s15, s14, s15
 1972              		.loc 1 349 45
 1973 0192 C3ED017A 		vstr.32	s15, [r3, #4]
 350:Lib/lib_vision_models_pp/lib_vision_models_pp/Src/od_pp_yolov8.c ****             pOutBuff[nb_detect].width       = scale * (float32_t)((int32_t)pRaw_detections[i + _i +
 1974              		.loc 1 350 94
 1975 0196 D7F89420 		ldr	r2, [r7, #148]
 1976 019a D7F89030 		ldr	r3, [r7, #144]
 1977 019e 1A44     		add	r2, r2, r3
 1978              		.loc 1 350 124
 1979 01a0 BB6F     		ldr	r3, [r7, #120]
 1980 01a2 5B00     		lsls	r3, r3, #1
 1981              		.loc 1 350 99
 1982 01a4 1344     		add	r3, r3, r2
 1983 01a6 1A46     		mov	r2, r3
 1984              		.loc 1 350 91
 1985 01a8 7B6F     		ldr	r3, [r7, #116]
 1986 01aa 1344     		add	r3, r3, r2
 1987 01ac 93F90030 		ldrsb	r3, [r3]
 1988              		.loc 1 350 67
 1989 01b0 1A46     		mov	r2, r3
 1990              		.loc 1 350 144
 1991 01b2 97F97330 		ldrsb	r3, [r7, #115]
 1992              		.loc 1 350 142
 1993 01b6 D31A     		subs	r3, r2, r3
 1994              		.loc 1 350 55
 1995 01b8 07EE903A 		vmov	s15, r3	@ int
 1996 01bc B8EEE77A 		vcvt.f32.s32	s14, s15
 1997              		.loc 1 350 21
 1998 01c0 D7F89820 		ldr	r2, [r7, #152]
 1999 01c4 1346     		mov	r3, r2
 2000 01c6 5B00     		lsls	r3, r3, #1
 2001 01c8 1344     		add	r3, r3, r2
 2002 01ca DB00     		lsls	r3, r3, #3
 2003 01cc 1A46     		mov	r2, r3
 2004 01ce 7B6E     		ldr	r3, [r7, #100]
 2005 01d0 1344     		add	r3, r3, r2
 2006              		.loc 1 350 53
 2007 01d2 D7ED1B7A 		vldr.32	s15, [r7, #108]
 2008 01d6 67EE277A 		vmul.f32	s15, s14, s15
 2009              		.loc 1 350 45
 2010 01da C3ED027A 		vstr.32	s15, [r3, #8]
 351:Lib/lib_vision_models_pp/lib_vision_models_pp/Src/od_pp_yolov8.c ****             pOutBuff[nb_detect].height      = scale * (float32_t)((int32_t)pRaw_detections[i + _i +
 2011              		.loc 1 351 94
 2012 01de D7F89420 		ldr	r2, [r7, #148]
 2013 01e2 D7F89030 		ldr	r3, [r7, #144]
 2014 01e6 D118     		adds	r1, r2, r3
 2015              		.loc 1 351 124
 2016 01e8 BA6F     		ldr	r2, [r7, #120]
 2017 01ea 1346     		mov	r3, r2
ARM GAS  /tmp/ccp9R2iB.s 			page 43


 2018 01ec 5B00     		lsls	r3, r3, #1
 2019 01ee 1344     		add	r3, r3, r2
 2020              		.loc 1 351 99
 2021 01f0 0B44     		add	r3, r3, r1
 2022 01f2 1A46     		mov	r2, r3
 2023              		.loc 1 351 91
 2024 01f4 7B6F     		ldr	r3, [r7, #116]
 2025 01f6 1344     		add	r3, r3, r2
 2026 01f8 93F90030 		ldrsb	r3, [r3]
 2027              		.loc 1 351 67
 2028 01fc 1A46     		mov	r2, r3
 2029              		.loc 1 351 144
 2030 01fe 97F97330 		ldrsb	r3, [r7, #115]
 2031              		.loc 1 351 142
 2032 0202 D31A     		subs	r3, r2, r3
 2033              		.loc 1 351 55
 2034 0204 07EE903A 		vmov	s15, r3	@ int
 2035 0208 B8EEE77A 		vcvt.f32.s32	s14, s15
 2036              		.loc 1 351 21
 2037 020c D7F89820 		ldr	r2, [r7, #152]
 2038 0210 1346     		mov	r3, r2
 2039 0212 5B00     		lsls	r3, r3, #1
 2040 0214 1344     		add	r3, r3, r2
 2041 0216 DB00     		lsls	r3, r3, #3
 2042 0218 1A46     		mov	r2, r3
 2043 021a 7B6E     		ldr	r3, [r7, #100]
 2044 021c 1344     		add	r3, r3, r2
 2045              		.loc 1 351 53
 2046 021e D7ED1B7A 		vldr.32	s15, [r7, #108]
 2047 0222 67EE277A 		vmul.f32	s15, s14, s15
 2048              		.loc 1 351 45
 2049 0226 C3ED037A 		vstr.32	s15, [r3, #12]
 352:Lib/lib_vision_models_pp/lib_vision_models_pp/Src/od_pp_yolov8.c ****             pOutBuff[nb_detect].conf        = best_score_f;
 2050              		.loc 1 352 21
 2051 022a D7F89820 		ldr	r2, [r7, #152]
 2052 022e 1346     		mov	r3, r2
 2053 0230 5B00     		lsls	r3, r3, #1
 2054 0232 1344     		add	r3, r3, r2
 2055 0234 DB00     		lsls	r3, r3, #3
 2056 0236 1A46     		mov	r2, r3
 2057 0238 7B6E     		ldr	r3, [r7, #100]
 2058 023a 1344     		add	r3, r3, r2
 2059              		.loc 1 352 45
 2060 023c 3A6E     		ldr	r2, [r7, #96]	@ float
 2061 023e 1A61     		str	r2, [r3, #16]	@ float
 353:Lib/lib_vision_models_pp/lib_vision_models_pp/Src/od_pp_yolov8.c ****             pOutBuff[nb_detect].class_index = class_index;
 2062              		.loc 1 353 21
 2063 0240 D7F89820 		ldr	r2, [r7, #152]
 2064 0244 1346     		mov	r3, r2
 2065 0246 5B00     		lsls	r3, r3, #1
 2066 0248 1344     		add	r3, r3, r2
 2067 024a DB00     		lsls	r3, r3, #3
 2068 024c 1A46     		mov	r2, r3
 2069 024e 7B6E     		ldr	r3, [r7, #100]
 2070 0250 1344     		add	r3, r3, r2
 2071              		.loc 1 353 45
 2072 0252 D7F88020 		ldr	r2, [r7, #128]
ARM GAS  /tmp/ccp9R2iB.s 			page 44


 2073 0256 5A61     		str	r2, [r3, #20]
 354:Lib/lib_vision_models_pp/lib_vision_models_pp/Src/od_pp_yolov8.c ****             nb_detect++;
 2074              		.loc 1 354 22
 2075 0258 D7F89830 		ldr	r3, [r7, #152]
 2076 025c 0133     		adds	r3, r3, #1
 2077 025e C7F89830 		str	r3, [r7, #152]
 2078              	.L106:
 342:Lib/lib_vision_models_pp/lib_vision_models_pp/Src/od_pp_yolov8.c ****       {
 2079              		.loc 1 342 74 discriminator 2
 2080 0262 D7F89030 		ldr	r3, [r7, #144]
 2081 0266 0133     		adds	r3, r3, #1
 2082 0268 C7F89030 		str	r3, [r7, #144]
 2083              	.L105:
 342:Lib/lib_vision_models_pp/lib_vision_models_pp/Src/od_pp_yolov8.c ****       {
 2084              		.loc 1 342 53 discriminator 1
 2085 026c D7F89C30 		ldr	r3, [r7, #156]
 2086 0270 102B     		cmp	r3, #16
 2087 0272 A8BF     		it	ge
 2088 0274 1023     		movge	r3, #16
 342:Lib/lib_vision_models_pp/lib_vision_models_pp/Src/od_pp_yolov8.c ****       {
 2089              		.loc 1 342 27 discriminator 1
 2090 0276 D7F89020 		ldr	r2, [r7, #144]
 2091 027a 9A42     		cmp	r2, r3
 2092 027c FFF61EAF 		blt	.L107
 2093              	.LBE19:
 355:Lib/lib_vision_models_pp/lib_vision_models_pp/Src/od_pp_yolov8.c ****           }
 356:Lib/lib_vision_models_pp/lib_vision_models_pp/Src/od_pp_yolov8.c ****       }
 357:Lib/lib_vision_models_pp/lib_vision_models_pp/Src/od_pp_yolov8.c ****       remaining_boxes-=16;
 2094              		.loc 1 357 22
 2095 0280 D7F89C30 		ldr	r3, [r7, #156]
 2096 0284 103B     		subs	r3, r3, #16
 2097 0286 C7F89C30 		str	r3, [r7, #156]
 334:Lib/lib_vision_models_pp/lib_vision_models_pp/Src/od_pp_yolov8.c ****     {
 2098              		.loc 1 334 46 discriminator 2
 2099 028a D7F89430 		ldr	r3, [r7, #148]
 2100 028e 1033     		adds	r3, r3, #16
 2101 0290 C7F89430 		str	r3, [r7, #148]
 2102              	.L104:
 334:Lib/lib_vision_models_pp/lib_vision_models_pp/Src/od_pp_yolov8.c ****     {
 2103              		.loc 1 334 27 discriminator 1
 2104 0294 D7F89420 		ldr	r2, [r7, #148]
 2105 0298 BB6F     		ldr	r3, [r7, #120]
 2106 029a 9A42     		cmp	r2, r3
 2107 029c FFF6F5AE 		blt	.L108
 2108 02a0 02E1     		b	.L109
 2109              	.L103:
 2110              	.LBE18:
 2111              	.LBE17:
 2112              	.LBB20:
 2113              	.LBB21:
 358:Lib/lib_vision_models_pp/lib_vision_models_pp/Src/od_pp_yolov8.c ****     } // for nb_total_boxes
 359:Lib/lib_vision_models_pp/lib_vision_models_pp/Src/od_pp_yolov8.c ****   } // if nb_classes < 256
 360:Lib/lib_vision_models_pp/lib_vision_models_pp/Src/od_pp_yolov8.c ****   else
 361:Lib/lib_vision_models_pp/lib_vision_models_pp/Src/od_pp_yolov8.c ****   {
 362:Lib/lib_vision_models_pp/lib_vision_models_pp/Src/od_pp_yolov8.c ****     int8_t best_score_array[16];
 363:Lib/lib_vision_models_pp/lib_vision_models_pp/Src/od_pp_yolov8.c ****     uint16_t class_index_array[16];
 364:Lib/lib_vision_models_pp/lib_vision_models_pp/Src/od_pp_yolov8.c ****     for (int32_t i = 0; i < nb_total_boxes; i+=16)
ARM GAS  /tmp/ccp9R2iB.s 			page 45


 2114              		.loc 1 364 18
 2115 02a2 0023     		movs	r3, #0
 2116 02a4 C7F88C30 		str	r3, [r7, #140]
 2117              		.loc 1 364 5
 2118 02a8 F8E0     		b	.L110
 2119              	.L114:
 365:Lib/lib_vision_models_pp/lib_vision_models_pp/Src/od_pp_yolov8.c ****     {
 366:Lib/lib_vision_models_pp/lib_vision_models_pp/Src/od_pp_yolov8.c ****       vision_models_maxi_tr_p_is8ou16(&pRaw_detections[i + AI_YOLOV8_PP_CLASSPROB * nb_total_boxes]
 2120              		.loc 1 366 83
 2121 02aa BB6F     		ldr	r3, [r7, #120]
 2122 02ac 9A00     		lsls	r2, r3, #2
 2123              		.loc 1 366 58
 2124 02ae D7F88C30 		ldr	r3, [r7, #140]
 2125 02b2 1344     		add	r3, r3, r2
 2126 02b4 1A46     		mov	r2, r3
 2127              		.loc 1 366 7
 2128 02b6 7B6F     		ldr	r3, [r7, #116]
 2129 02b8 9818     		adds	r0, r3, r2
 2130 02ba F96F     		ldr	r1, [r7, #124]
 2131 02bc BA6F     		ldr	r2, [r7, #120]
 2132 02be D7F89C30 		ldr	r3, [r7, #156]
 2133 02c2 07F13004 		add	r4, r7, #48
 2134 02c6 0193     		str	r3, [sp, #4]
 2135 02c8 07F11003 		add	r3, r7, #16
 2136 02cc 0093     		str	r3, [sp]
 2137 02ce 2346     		mov	r3, r4
 2138 02d0 FFF7FEFF 		bl	vision_models_maxi_tr_p_is8ou16
 2139              	.LBB22:
 367:Lib/lib_vision_models_pp/lib_vision_models_pp/Src/od_pp_yolov8.c ****                                       nb_classes,
 368:Lib/lib_vision_models_pp/lib_vision_models_pp/Src/od_pp_yolov8.c ****                                       nb_total_boxes,
 369:Lib/lib_vision_models_pp/lib_vision_models_pp/Src/od_pp_yolov8.c ****                                       best_score_array,
 370:Lib/lib_vision_models_pp/lib_vision_models_pp/Src/od_pp_yolov8.c ****                                       class_index_array,
 371:Lib/lib_vision_models_pp/lib_vision_models_pp/Src/od_pp_yolov8.c ****                                       remaining_boxes);
 372:Lib/lib_vision_models_pp/lib_vision_models_pp/Src/od_pp_yolov8.c **** 
 373:Lib/lib_vision_models_pp/lib_vision_models_pp/Src/od_pp_yolov8.c ****       for (int _i = 0; _i < ((remaining_boxes>16)?16:remaining_boxes); _i++)
 2140              		.loc 1 373 16
 2141 02d4 0023     		movs	r3, #0
 2142 02d6 C7F88830 		str	r3, [r7, #136]
 2143              		.loc 1 373 7
 2144 02da CBE0     		b	.L111
 2145              	.L113:
 374:Lib/lib_vision_models_pp/lib_vision_models_pp/Src/od_pp_yolov8.c ****       {
 375:Lib/lib_vision_models_pp/lib_vision_models_pp/Src/od_pp_yolov8.c ****         if ( best_score_array[_i] >= conf_threshold_s8)
 2146              		.loc 1 375 30
 2147 02dc 07F13002 		add	r2, r7, #48
 2148 02e0 D7F88830 		ldr	r3, [r7, #136]
 2149 02e4 1344     		add	r3, r3, r2
 2150 02e6 93F90030 		ldrsb	r3, [r3]
 2151              		.loc 1 375 12
 2152 02ea 97F96B20 		ldrsb	r2, [r7, #107]
 2153 02ee 9A42     		cmp	r2, r3
 2154 02f0 00F3BB80 		bgt	.L112
 376:Lib/lib_vision_models_pp/lib_vision_models_pp/Src/od_pp_yolov8.c ****         {
 377:Lib/lib_vision_models_pp/lib_vision_models_pp/Src/od_pp_yolov8.c ****           best_score_f = scale * (float32_t)(best_score_array[_i] - zero_point);
 2155              		.loc 1 377 62
 2156 02f4 07F13002 		add	r2, r7, #48
 2157 02f8 D7F88830 		ldr	r3, [r7, #136]
ARM GAS  /tmp/ccp9R2iB.s 			page 46


 2158 02fc 1344     		add	r3, r3, r2
 2159 02fe 93F90030 		ldrsb	r3, [r3]
 2160 0302 1A46     		mov	r2, r3
 2161              		.loc 1 377 67
 2162 0304 97F97330 		ldrsb	r3, [r7, #115]
 2163 0308 D31A     		subs	r3, r2, r3
 2164              		.loc 1 377 34
 2165 030a 07EE903A 		vmov	s15, r3	@ int
 2166 030e F8EEE77A 		vcvt.f32.s32	s15, s15
 2167              		.loc 1 377 24
 2168 0312 97ED1B7A 		vldr.32	s14, [r7, #108]
 2169 0316 67EE277A 		vmul.f32	s15, s14, s15
 2170 031a C7ED187A 		vstr.32	s15, [r7, #96]
 378:Lib/lib_vision_models_pp/lib_vision_models_pp/Src/od_pp_yolov8.c ****           class_index = class_index_array[_i];
 2171              		.loc 1 378 42
 2172 031e D7F88830 		ldr	r3, [r7, #136]
 2173 0322 5B00     		lsls	r3, r3, #1
 2174 0324 A033     		adds	r3, r3, #160
 2175 0326 3B44     		add	r3, r3, r7
 2176 0328 33F8903C 		ldrh	r3, [r3, #-144]
 2177              		.loc 1 378 23
 2178 032c C7F88030 		str	r3, [r7, #128]
 379:Lib/lib_vision_models_pp/lib_vision_models_pp/Src/od_pp_yolov8.c ****           pOutBuff[nb_detect].x_center    = scale * (float32_t)((int32_t)pRaw_detections[i + AI_YOL
 2179              		.loc 1 379 92
 2180 0330 D7F88C30 		ldr	r3, [r7, #140]
 2181              		.loc 1 379 89
 2182 0334 7A6F     		ldr	r2, [r7, #116]
 2183 0336 1344     		add	r3, r3, r2
 2184 0338 93F90030 		ldrsb	r3, [r3]
 2185              		.loc 1 379 65
 2186 033c 1A46     		mov	r2, r3
 2187              		.loc 1 379 137
 2188 033e 97F97330 		ldrsb	r3, [r7, #115]
 2189              		.loc 1 379 135
 2190 0342 D31A     		subs	r3, r2, r3
 2191              		.loc 1 379 53
 2192 0344 07EE903A 		vmov	s15, r3	@ int
 2193 0348 B8EEE77A 		vcvt.f32.s32	s14, s15
 2194              		.loc 1 379 19
 2195 034c D7F89820 		ldr	r2, [r7, #152]
 2196 0350 1346     		mov	r3, r2
 2197 0352 5B00     		lsls	r3, r3, #1
 2198 0354 1344     		add	r3, r3, r2
 2199 0356 DB00     		lsls	r3, r3, #3
 2200 0358 1A46     		mov	r2, r3
 2201 035a 7B6E     		ldr	r3, [r7, #100]
 2202 035c 1344     		add	r3, r3, r2
 2203              		.loc 1 379 51
 2204 035e D7ED1B7A 		vldr.32	s15, [r7, #108]
 2205 0362 67EE277A 		vmul.f32	s15, s14, s15
 2206              		.loc 1 379 43
 2207 0366 C3ED007A 		vstr.32	s15, [r3]
 380:Lib/lib_vision_models_pp/lib_vision_models_pp/Src/od_pp_yolov8.c ****           pOutBuff[nb_detect].y_center    = scale * (float32_t)((int32_t)pRaw_detections[i + AI_YOL
 2208              		.loc 1 380 92
 2209 036a D7F88C20 		ldr	r2, [r7, #140]
 2210 036e BB6F     		ldr	r3, [r7, #120]
 2211 0370 1344     		add	r3, r3, r2
ARM GAS  /tmp/ccp9R2iB.s 			page 47


 2212 0372 1A46     		mov	r2, r3
 2213              		.loc 1 380 89
 2214 0374 7B6F     		ldr	r3, [r7, #116]
 2215 0376 1344     		add	r3, r3, r2
 2216 0378 93F90030 		ldrsb	r3, [r3]
 2217              		.loc 1 380 65
 2218 037c 1A46     		mov	r2, r3
 2219              		.loc 1 380 137
 2220 037e 97F97330 		ldrsb	r3, [r7, #115]
 2221              		.loc 1 380 135
 2222 0382 D31A     		subs	r3, r2, r3
 2223              		.loc 1 380 53
 2224 0384 07EE903A 		vmov	s15, r3	@ int
 2225 0388 B8EEE77A 		vcvt.f32.s32	s14, s15
 2226              		.loc 1 380 19
 2227 038c D7F89820 		ldr	r2, [r7, #152]
 2228 0390 1346     		mov	r3, r2
 2229 0392 5B00     		lsls	r3, r3, #1
 2230 0394 1344     		add	r3, r3, r2
 2231 0396 DB00     		lsls	r3, r3, #3
 2232 0398 1A46     		mov	r2, r3
 2233 039a 7B6E     		ldr	r3, [r7, #100]
 2234 039c 1344     		add	r3, r3, r2
 2235              		.loc 1 380 51
 2236 039e D7ED1B7A 		vldr.32	s15, [r7, #108]
 2237 03a2 67EE277A 		vmul.f32	s15, s14, s15
 2238              		.loc 1 380 43
 2239 03a6 C3ED017A 		vstr.32	s15, [r3, #4]
 381:Lib/lib_vision_models_pp/lib_vision_models_pp/Src/od_pp_yolov8.c ****           pOutBuff[nb_detect].width       = scale * (float32_t)((int32_t)pRaw_detections[i + AI_YOL
 2240              		.loc 1 381 117
 2241 03aa BB6F     		ldr	r3, [r7, #120]
 2242 03ac 5A00     		lsls	r2, r3, #1
 2243              		.loc 1 381 92
 2244 03ae D7F88C30 		ldr	r3, [r7, #140]
 2245 03b2 1344     		add	r3, r3, r2
 2246 03b4 1A46     		mov	r2, r3
 2247              		.loc 1 381 89
 2248 03b6 7B6F     		ldr	r3, [r7, #116]
 2249 03b8 1344     		add	r3, r3, r2
 2250 03ba 93F90030 		ldrsb	r3, [r3]
 2251              		.loc 1 381 65
 2252 03be 1A46     		mov	r2, r3
 2253              		.loc 1 381 137
 2254 03c0 97F97330 		ldrsb	r3, [r7, #115]
 2255              		.loc 1 381 135
 2256 03c4 D31A     		subs	r3, r2, r3
 2257              		.loc 1 381 53
 2258 03c6 07EE903A 		vmov	s15, r3	@ int
 2259 03ca B8EEE77A 		vcvt.f32.s32	s14, s15
 2260              		.loc 1 381 19
 2261 03ce D7F89820 		ldr	r2, [r7, #152]
 2262 03d2 1346     		mov	r3, r2
 2263 03d4 5B00     		lsls	r3, r3, #1
 2264 03d6 1344     		add	r3, r3, r2
 2265 03d8 DB00     		lsls	r3, r3, #3
 2266 03da 1A46     		mov	r2, r3
 2267 03dc 7B6E     		ldr	r3, [r7, #100]
ARM GAS  /tmp/ccp9R2iB.s 			page 48


 2268 03de 1344     		add	r3, r3, r2
 2269              		.loc 1 381 51
 2270 03e0 D7ED1B7A 		vldr.32	s15, [r7, #108]
 2271 03e4 67EE277A 		vmul.f32	s15, s14, s15
 2272              		.loc 1 381 43
 2273 03e8 C3ED027A 		vstr.32	s15, [r3, #8]
 382:Lib/lib_vision_models_pp/lib_vision_models_pp/Src/od_pp_yolov8.c ****           pOutBuff[nb_detect].height      = scale * (float32_t)((int32_t)pRaw_detections[i + AI_YOL
 2274              		.loc 1 382 117
 2275 03ec BA6F     		ldr	r2, [r7, #120]
 2276 03ee 1346     		mov	r3, r2
 2277 03f0 5B00     		lsls	r3, r3, #1
 2278 03f2 1A44     		add	r2, r2, r3
 2279              		.loc 1 382 92
 2280 03f4 D7F88C30 		ldr	r3, [r7, #140]
 2281 03f8 1344     		add	r3, r3, r2
 2282 03fa 1A46     		mov	r2, r3
 2283              		.loc 1 382 89
 2284 03fc 7B6F     		ldr	r3, [r7, #116]
 2285 03fe 1344     		add	r3, r3, r2
 2286 0400 93F90030 		ldrsb	r3, [r3]
 2287              		.loc 1 382 65
 2288 0404 1A46     		mov	r2, r3
 2289              		.loc 1 382 137
 2290 0406 97F97330 		ldrsb	r3, [r7, #115]
 2291              		.loc 1 382 135
 2292 040a D31A     		subs	r3, r2, r3
 2293              		.loc 1 382 53
 2294 040c 07EE903A 		vmov	s15, r3	@ int
 2295 0410 B8EEE77A 		vcvt.f32.s32	s14, s15
 2296              		.loc 1 382 19
 2297 0414 D7F89820 		ldr	r2, [r7, #152]
 2298 0418 1346     		mov	r3, r2
 2299 041a 5B00     		lsls	r3, r3, #1
 2300 041c 1344     		add	r3, r3, r2
 2301 041e DB00     		lsls	r3, r3, #3
 2302 0420 1A46     		mov	r2, r3
 2303 0422 7B6E     		ldr	r3, [r7, #100]
 2304 0424 1344     		add	r3, r3, r2
 2305              		.loc 1 382 51
 2306 0426 D7ED1B7A 		vldr.32	s15, [r7, #108]
 2307 042a 67EE277A 		vmul.f32	s15, s14, s15
 2308              		.loc 1 382 43
 2309 042e C3ED037A 		vstr.32	s15, [r3, #12]
 383:Lib/lib_vision_models_pp/lib_vision_models_pp/Src/od_pp_yolov8.c ****           pOutBuff[nb_detect].conf        = best_score_f;
 2310              		.loc 1 383 19
 2311 0432 D7F89820 		ldr	r2, [r7, #152]
 2312 0436 1346     		mov	r3, r2
 2313 0438 5B00     		lsls	r3, r3, #1
 2314 043a 1344     		add	r3, r3, r2
 2315 043c DB00     		lsls	r3, r3, #3
 2316 043e 1A46     		mov	r2, r3
 2317 0440 7B6E     		ldr	r3, [r7, #100]
 2318 0442 1344     		add	r3, r3, r2
 2319              		.loc 1 383 43
 2320 0444 3A6E     		ldr	r2, [r7, #96]	@ float
 2321 0446 1A61     		str	r2, [r3, #16]	@ float
 384:Lib/lib_vision_models_pp/lib_vision_models_pp/Src/od_pp_yolov8.c ****           pOutBuff[nb_detect].class_index = class_index;
ARM GAS  /tmp/ccp9R2iB.s 			page 49


 2322              		.loc 1 384 19
 2323 0448 D7F89820 		ldr	r2, [r7, #152]
 2324 044c 1346     		mov	r3, r2
 2325 044e 5B00     		lsls	r3, r3, #1
 2326 0450 1344     		add	r3, r3, r2
 2327 0452 DB00     		lsls	r3, r3, #3
 2328 0454 1A46     		mov	r2, r3
 2329 0456 7B6E     		ldr	r3, [r7, #100]
 2330 0458 1344     		add	r3, r3, r2
 2331              		.loc 1 384 43
 2332 045a D7F88020 		ldr	r2, [r7, #128]
 2333 045e 5A61     		str	r2, [r3, #20]
 385:Lib/lib_vision_models_pp/lib_vision_models_pp/Src/od_pp_yolov8.c ****           nb_detect++;
 2334              		.loc 1 385 20
 2335 0460 D7F89830 		ldr	r3, [r7, #152]
 2336 0464 0133     		adds	r3, r3, #1
 2337 0466 C7F89830 		str	r3, [r7, #152]
 2338              	.L112:
 373:Lib/lib_vision_models_pp/lib_vision_models_pp/Src/od_pp_yolov8.c ****       {
 2339              		.loc 1 373 74 discriminator 2
 2340 046a D7F88830 		ldr	r3, [r7, #136]
 2341 046e 0133     		adds	r3, r3, #1
 2342 0470 C7F88830 		str	r3, [r7, #136]
 2343              	.L111:
 373:Lib/lib_vision_models_pp/lib_vision_models_pp/Src/od_pp_yolov8.c ****       {
 2344              		.loc 1 373 53 discriminator 1
 2345 0474 D7F89C30 		ldr	r3, [r7, #156]
 2346 0478 102B     		cmp	r3, #16
 2347 047a A8BF     		it	ge
 2348 047c 1023     		movge	r3, #16
 373:Lib/lib_vision_models_pp/lib_vision_models_pp/Src/od_pp_yolov8.c ****       {
 2349              		.loc 1 373 27 discriminator 1
 2350 047e D7F88820 		ldr	r2, [r7, #136]
 2351 0482 9A42     		cmp	r2, r3
 2352 0484 FFF62AAF 		blt	.L113
 2353              	.LBE22:
 386:Lib/lib_vision_models_pp/lib_vision_models_pp/Src/od_pp_yolov8.c ****         }
 387:Lib/lib_vision_models_pp/lib_vision_models_pp/Src/od_pp_yolov8.c ****       }
 388:Lib/lib_vision_models_pp/lib_vision_models_pp/Src/od_pp_yolov8.c ****       remaining_boxes-=16;
 2354              		.loc 1 388 22
 2355 0488 D7F89C30 		ldr	r3, [r7, #156]
 2356 048c 103B     		subs	r3, r3, #16
 2357 048e C7F89C30 		str	r3, [r7, #156]
 364:Lib/lib_vision_models_pp/lib_vision_models_pp/Src/od_pp_yolov8.c ****     {
 2358              		.loc 1 364 46 discriminator 2
 2359 0492 D7F88C30 		ldr	r3, [r7, #140]
 2360 0496 1033     		adds	r3, r3, #16
 2361 0498 C7F88C30 		str	r3, [r7, #140]
 2362              	.L110:
 364:Lib/lib_vision_models_pp/lib_vision_models_pp/Src/od_pp_yolov8.c ****     {
 2363              		.loc 1 364 27 discriminator 1
 2364 049c D7F88C20 		ldr	r2, [r7, #140]
 2365 04a0 BB6F     		ldr	r3, [r7, #120]
 2366 04a2 9A42     		cmp	r2, r3
 2367 04a4 FFF601AF 		blt	.L114
 2368              	.L109:
 2369              	.LBE21:
ARM GAS  /tmp/ccp9R2iB.s 			page 50


 2370              	.LBE20:
 389:Lib/lib_vision_models_pp/lib_vision_models_pp/Src/od_pp_yolov8.c ****     } // for nb_total_boxes
 390:Lib/lib_vision_models_pp/lib_vision_models_pp/Src/od_pp_yolov8.c ****   } // else if nb_classes < 256
 391:Lib/lib_vision_models_pp/lib_vision_models_pp/Src/od_pp_yolov8.c ****   pInput_static_param->nb_detect = nb_detect;
 2371              		.loc 1 391 34
 2372 04a8 7B68     		ldr	r3, [r7, #4]
 2373 04aa D7F89820 		ldr	r2, [r7, #152]
 2374 04ae DA61     		str	r2, [r3, #28]
 392:Lib/lib_vision_models_pp/lib_vision_models_pp/Src/od_pp_yolov8.c **** 
 393:Lib/lib_vision_models_pp/lib_vision_models_pp/Src/od_pp_yolov8.c ****   return (error);
 2375              		.loc 1 393 10
 2376 04b0 D7F88430 		ldr	r3, [r7, #132]
 394:Lib/lib_vision_models_pp/lib_vision_models_pp/Src/od_pp_yolov8.c **** }
 2377              		.loc 1 394 1
 2378 04b4 1846     		mov	r0, r3
 2379 04b6 A437     		adds	r7, r7, #164
 2380              		.cfi_def_cfa_offset 12
 2381 04b8 BD46     		mov	sp, r7
 2382              		.cfi_def_cfa_register 13
 2383              		@ sp needed
 2384 04ba 90BD     		pop	{r4, r7, pc}
 2385              		.cfi_endproc
 2386              	.LFE2652:
 2388              		.section	.text.yolov8_pp_getNNBoxes_centroid_is8os8,"ax",%progbits
 2389              		.align	1
 2390              		.global	yolov8_pp_getNNBoxes_centroid_is8os8
 2391              		.syntax unified
 2392              		.thumb
 2393              		.thumb_func
 2395              	yolov8_pp_getNNBoxes_centroid_is8os8:
 2396              	.LFB2653:
 395:Lib/lib_vision_models_pp/lib_vision_models_pp/Src/od_pp_yolov8.c **** 
 396:Lib/lib_vision_models_pp/lib_vision_models_pp/Src/od_pp_yolov8.c **** int32_t yolov8_pp_getNNBoxes_centroid_is8os8(od_yolov8_pp_in_centroid_t *pInput,
 397:Lib/lib_vision_models_pp/lib_vision_models_pp/Src/od_pp_yolov8.c ****                                              od_yolov8_pp_scratch_s8_t *ptrScratch,
 398:Lib/lib_vision_models_pp/lib_vision_models_pp/Src/od_pp_yolov8.c ****                                              od_yolov8_pp_static_param_t *pInput_static_param)
 399:Lib/lib_vision_models_pp/lib_vision_models_pp/Src/od_pp_yolov8.c **** {
 2397              		.loc 1 399 1
 2398              		.cfi_startproc
 2399              		@ args = 0, pretend = 0, frame = 88
 2400              		@ frame_needed = 1, uses_anonymous_args = 0
 2401 0000 90B5     		push	{r4, r7, lr}
 2402              		.cfi_def_cfa_offset 12
 2403              		.cfi_offset 4, -12
 2404              		.cfi_offset 7, -8
 2405              		.cfi_offset 14, -4
 2406 0002 99B0     		sub	sp, sp, #100
 2407              		.cfi_def_cfa_offset 112
 2408 0004 02AF     		add	r7, sp, #8
 2409              		.cfi_def_cfa 7, 104
 2410 0006 F860     		str	r0, [r7, #12]
 2411 0008 B960     		str	r1, [r7, #8]
 2412 000a 7A60     		str	r2, [r7, #4]
 400:Lib/lib_vision_models_pp/lib_vision_models_pp/Src/od_pp_yolov8.c ****   int32_t error   = AI_OD_POSTPROCESS_ERROR_NO;
 2413              		.loc 1 400 11
 2414 000c 0023     		movs	r3, #0
 2415 000e BB64     		str	r3, [r7, #72]
 401:Lib/lib_vision_models_pp/lib_vision_models_pp/Src/od_pp_yolov8.c ****   int32_t nb_classes = pInput_static_param->nb_classes;
ARM GAS  /tmp/ccp9R2iB.s 			page 51


 2416              		.loc 1 401 11
 2417 0010 7B68     		ldr	r3, [r7, #4]
 2418 0012 1B68     		ldr	r3, [r3]
 2419 0014 7B64     		str	r3, [r7, #68]
 402:Lib/lib_vision_models_pp/lib_vision_models_pp/Src/od_pp_yolov8.c ****   int32_t nb_total_boxes = pInput_static_param->nb_total_boxes;
 2420              		.loc 1 402 11
 2421 0016 7B68     		ldr	r3, [r7, #4]
 2422 0018 5B68     		ldr	r3, [r3, #4]
 2423 001a 3B64     		str	r3, [r7, #64]
 403:Lib/lib_vision_models_pp/lib_vision_models_pp/Src/od_pp_yolov8.c ****   int8_t *pRaw_detections = (int8_t *)pInput->pRaw_detections;
 2424              		.loc 1 403 11
 2425 001c FB68     		ldr	r3, [r7, #12]
 2426 001e 1B68     		ldr	r3, [r3]
 2427 0020 FB63     		str	r3, [r7, #60]
 404:Lib/lib_vision_models_pp/lib_vision_models_pp/Src/od_pp_yolov8.c ****   int8_t zero_point = pInput_static_param->raw_output_zero_point;
 2428              		.loc 1 404 10
 2429 0022 7B68     		ldr	r3, [r7, #4]
 2430 0024 1B7E     		ldrb	r3, [r3, #24]
 2431 0026 87F83B30 		strb	r3, [r7, #59]
 405:Lib/lib_vision_models_pp/lib_vision_models_pp/Src/od_pp_yolov8.c ****   float32_t scale = pInput_static_param->raw_output_scale;
 2432              		.loc 1 405 13
 2433 002a 7B68     		ldr	r3, [r7, #4]
 2434 002c 5B69     		ldr	r3, [r3, #20]	@ float
 2435 002e 7B63     		str	r3, [r7, #52]	@ float
 406:Lib/lib_vision_models_pp/lib_vision_models_pp/Src/od_pp_yolov8.c **** 
 407:Lib/lib_vision_models_pp/lib_vision_models_pp/Src/od_pp_yolov8.c ****   pInput_static_param->nb_detect =0;
 2436              		.loc 1 407 34
 2437 0030 7B68     		ldr	r3, [r7, #4]
 2438 0032 0022     		movs	r2, #0
 2439 0034 DA61     		str	r2, [r3, #28]
 408:Lib/lib_vision_models_pp/lib_vision_models_pp/Src/od_pp_yolov8.c ****   int32_t remaining_boxes = nb_total_boxes;
 2440              		.loc 1 408 11
 2441 0036 3B6C     		ldr	r3, [r7, #64]
 2442 0038 7B65     		str	r3, [r7, #84]
 409:Lib/lib_vision_models_pp/lib_vision_models_pp/Src/od_pp_yolov8.c ****   int8_t conf_threshold_s8 = (int8_t)(pInput_static_param->conf_threshold / scale + 0.5f) + zero_po
 2443              		.loc 1 409 58
 2444 003a 7B68     		ldr	r3, [r7, #4]
 2445 003c D3ED036A 		vldr.32	s13, [r3, #12]
 2446              		.loc 1 409 75
 2447 0040 97ED0D7A 		vldr.32	s14, [r7, #52]
 2448 0044 C6EE877A 		vdiv.f32	s15, s13, s14
 2449              		.loc 1 409 83
 2450 0048 B6EE007A 		vmov.f32	s14, #5.0e-1
 2451 004c 77EE877A 		vadd.f32	s15, s15, s14
 2452              		.loc 1 409 30
 2453 0050 FDEEE77A 		vcvt.s32.f32	s15, s15
 2454 0054 C7ED007A 		vstr.32	s15, [r7]	@ int
 2455 0058 3B78     		ldrb	r3, [r7]
 2456 005a 5BB2     		sxtb	r3, r3
 2457 005c DAB2     		uxtb	r2, r3
 2458              		.loc 1 409 91
 2459 005e 97F83B30 		ldrb	r3, [r7, #59]	@ zero_extendqisi2
 2460 0062 1344     		add	r3, r3, r2
 2461 0064 DBB2     		uxtb	r3, r3
 2462              		.loc 1 409 10
 2463 0066 87F83330 		strb	r3, [r7, #51]
 2464              	.LBB23:
ARM GAS  /tmp/ccp9R2iB.s 			page 52


 410:Lib/lib_vision_models_pp/lib_vision_models_pp/Src/od_pp_yolov8.c **** 
 411:Lib/lib_vision_models_pp/lib_vision_models_pp/Src/od_pp_yolov8.c ****   int8_t best_score_array[16];
 412:Lib/lib_vision_models_pp/lib_vision_models_pp/Src/od_pp_yolov8.c ****   uint8_t class_index_array[16];
 413:Lib/lib_vision_models_pp/lib_vision_models_pp/Src/od_pp_yolov8.c **** 
 414:Lib/lib_vision_models_pp/lib_vision_models_pp/Src/od_pp_yolov8.c ****   for (int32_t i = 0; i < nb_total_boxes; i+=16)
 2465              		.loc 1 414 16
 2466 006a 0023     		movs	r3, #0
 2467 006c 3B65     		str	r3, [r7, #80]
 2468              		.loc 1 414 3
 2469 006e ACE0     		b	.L117
 2470              	.L121:
 415:Lib/lib_vision_models_pp/lib_vision_models_pp/Src/od_pp_yolov8.c ****   {
 416:Lib/lib_vision_models_pp/lib_vision_models_pp/Src/od_pp_yolov8.c ****     vision_models_maxi_tr_p_is8ou8(&pRaw_detections[i + AI_YOLOV8_PP_CLASSPROB * nb_total_boxes],
 2471              		.loc 1 416 80
 2472 0070 3B6C     		ldr	r3, [r7, #64]
 2473 0072 9A00     		lsls	r2, r3, #2
 2474              		.loc 1 416 55
 2475 0074 3B6D     		ldr	r3, [r7, #80]
 2476 0076 1344     		add	r3, r3, r2
 2477 0078 1A46     		mov	r2, r3
 2478              		.loc 1 416 5
 2479 007a FB6B     		ldr	r3, [r7, #60]
 2480 007c 9818     		adds	r0, r3, r2
 2481 007e 796C     		ldr	r1, [r7, #68]
 2482 0080 3A6C     		ldr	r2, [r7, #64]
 2483 0082 7B6D     		ldr	r3, [r7, #84]
 2484 0084 07F12004 		add	r4, r7, #32
 2485 0088 0193     		str	r3, [sp, #4]
 2486 008a 07F11003 		add	r3, r7, #16
 2487 008e 0093     		str	r3, [sp]
 2488 0090 2346     		mov	r3, r4
 2489 0092 FFF7FEFF 		bl	vision_models_maxi_tr_p_is8ou8
 2490              	.LBB24:
 417:Lib/lib_vision_models_pp/lib_vision_models_pp/Src/od_pp_yolov8.c ****                                   nb_classes,
 418:Lib/lib_vision_models_pp/lib_vision_models_pp/Src/od_pp_yolov8.c ****                                   nb_total_boxes,
 419:Lib/lib_vision_models_pp/lib_vision_models_pp/Src/od_pp_yolov8.c ****                                   best_score_array,
 420:Lib/lib_vision_models_pp/lib_vision_models_pp/Src/od_pp_yolov8.c ****                                   class_index_array,
 421:Lib/lib_vision_models_pp/lib_vision_models_pp/Src/od_pp_yolov8.c ****                                   remaining_boxes);
 422:Lib/lib_vision_models_pp/lib_vision_models_pp/Src/od_pp_yolov8.c ****     for (int _i = 0; _i < ((remaining_boxes>16)?16:remaining_boxes); _i++)
 2491              		.loc 1 422 14
 2492 0096 0023     		movs	r3, #0
 2493 0098 FB64     		str	r3, [r7, #76]
 2494              		.loc 1 422 5
 2495 009a 88E0     		b	.L118
 2496              	.L120:
 423:Lib/lib_vision_models_pp/lib_vision_models_pp/Src/od_pp_yolov8.c ****     {
 424:Lib/lib_vision_models_pp/lib_vision_models_pp/Src/od_pp_yolov8.c ****       if ( best_score_array[_i] >= conf_threshold_s8)
 2497              		.loc 1 424 28
 2498 009c 07F12002 		add	r2, r7, #32
 2499 00a0 FB6C     		ldr	r3, [r7, #76]
 2500 00a2 1344     		add	r3, r3, r2
 2501 00a4 93F90030 		ldrsb	r3, [r3]
 2502              		.loc 1 424 10
 2503 00a8 97F93320 		ldrsb	r2, [r7, #51]
 2504 00ac 9A42     		cmp	r2, r3
 2505 00ae 7BDC     		bgt	.L119
 425:Lib/lib_vision_models_pp/lib_vision_models_pp/Src/od_pp_yolov8.c ****       {
ARM GAS  /tmp/ccp9R2iB.s 			page 53


 426:Lib/lib_vision_models_pp/lib_vision_models_pp/Src/od_pp_yolov8.c ****         ptrScratch[pInput_static_param->nb_detect].x_center    = pRaw_detections[i + _i + AI_YOLOV8
 2506              		.loc 1 426 89
 2507 00b0 3A6D     		ldr	r2, [r7, #80]
 2508 00b2 FB6C     		ldr	r3, [r7, #76]
 2509 00b4 1344     		add	r3, r3, r2
 2510 00b6 1A46     		mov	r2, r3
 2511              		.loc 1 426 81
 2512 00b8 FB6B     		ldr	r3, [r7, #60]
 2513 00ba 1A44     		add	r2, r2, r3
 2514              		.loc 1 426 39
 2515 00bc 7B68     		ldr	r3, [r7, #4]
 2516 00be DB69     		ldr	r3, [r3, #28]
 2517 00c0 1946     		mov	r1, r3
 2518              		.loc 1 426 19
 2519 00c2 0B46     		mov	r3, r1
 2520 00c4 5B00     		lsls	r3, r3, #1
 2521 00c6 0B44     		add	r3, r3, r1
 2522 00c8 5B00     		lsls	r3, r3, #1
 2523 00ca 1946     		mov	r1, r3
 2524 00cc BB68     		ldr	r3, [r7, #8]
 2525 00ce 0B44     		add	r3, r3, r1
 2526              		.loc 1 426 81
 2527 00d0 92F90020 		ldrsb	r2, [r2]
 2528              		.loc 1 426 64
 2529 00d4 1A70     		strb	r2, [r3]
 427:Lib/lib_vision_models_pp/lib_vision_models_pp/Src/od_pp_yolov8.c ****         ptrScratch[pInput_static_param->nb_detect].y_center    = pRaw_detections[i + _i + AI_YOLOV8
 2530              		.loc 1 427 84
 2531 00d6 3A6D     		ldr	r2, [r7, #80]
 2532 00d8 FB6C     		ldr	r3, [r7, #76]
 2533 00da 1A44     		add	r2, r2, r3
 2534              		.loc 1 427 89
 2535 00dc 3B6C     		ldr	r3, [r7, #64]
 2536 00de 1344     		add	r3, r3, r2
 2537 00e0 1A46     		mov	r2, r3
 2538              		.loc 1 427 81
 2539 00e2 FB6B     		ldr	r3, [r7, #60]
 2540 00e4 1A44     		add	r2, r2, r3
 2541              		.loc 1 427 39
 2542 00e6 7B68     		ldr	r3, [r7, #4]
 2543 00e8 DB69     		ldr	r3, [r3, #28]
 2544 00ea 1946     		mov	r1, r3
 2545              		.loc 1 427 19
 2546 00ec 0B46     		mov	r3, r1
 2547 00ee 5B00     		lsls	r3, r3, #1
 2548 00f0 0B44     		add	r3, r3, r1
 2549 00f2 5B00     		lsls	r3, r3, #1
 2550 00f4 1946     		mov	r1, r3
 2551 00f6 BB68     		ldr	r3, [r7, #8]
 2552 00f8 0B44     		add	r3, r3, r1
 2553              		.loc 1 427 81
 2554 00fa 92F90020 		ldrsb	r2, [r2]
 2555              		.loc 1 427 64
 2556 00fe 5A70     		strb	r2, [r3, #1]
 428:Lib/lib_vision_models_pp/lib_vision_models_pp/Src/od_pp_yolov8.c ****         ptrScratch[pInput_static_param->nb_detect].width       = pRaw_detections[i + _i + AI_YOLOV8
 2557              		.loc 1 428 84
 2558 0100 3A6D     		ldr	r2, [r7, #80]
 2559 0102 FB6C     		ldr	r3, [r7, #76]
ARM GAS  /tmp/ccp9R2iB.s 			page 54


 2560 0104 1A44     		add	r2, r2, r3
 2561              		.loc 1 428 114
 2562 0106 3B6C     		ldr	r3, [r7, #64]
 2563 0108 5B00     		lsls	r3, r3, #1
 2564              		.loc 1 428 89
 2565 010a 1344     		add	r3, r3, r2
 2566 010c 1A46     		mov	r2, r3
 2567              		.loc 1 428 81
 2568 010e FB6B     		ldr	r3, [r7, #60]
 2569 0110 1A44     		add	r2, r2, r3
 2570              		.loc 1 428 39
 2571 0112 7B68     		ldr	r3, [r7, #4]
 2572 0114 DB69     		ldr	r3, [r3, #28]
 2573 0116 1946     		mov	r1, r3
 2574              		.loc 1 428 19
 2575 0118 0B46     		mov	r3, r1
 2576 011a 5B00     		lsls	r3, r3, #1
 2577 011c 0B44     		add	r3, r3, r1
 2578 011e 5B00     		lsls	r3, r3, #1
 2579 0120 1946     		mov	r1, r3
 2580 0122 BB68     		ldr	r3, [r7, #8]
 2581 0124 0B44     		add	r3, r3, r1
 2582              		.loc 1 428 81
 2583 0126 92F90020 		ldrsb	r2, [r2]
 2584              		.loc 1 428 64
 2585 012a 9A70     		strb	r2, [r3, #2]
 429:Lib/lib_vision_models_pp/lib_vision_models_pp/Src/od_pp_yolov8.c ****         ptrScratch[pInput_static_param->nb_detect].height      = pRaw_detections[i + _i + AI_YOLOV8
 2586              		.loc 1 429 84
 2587 012c 3A6D     		ldr	r2, [r7, #80]
 2588 012e FB6C     		ldr	r3, [r7, #76]
 2589 0130 D118     		adds	r1, r2, r3
 2590              		.loc 1 429 114
 2591 0132 3A6C     		ldr	r2, [r7, #64]
 2592 0134 1346     		mov	r3, r2
 2593 0136 5B00     		lsls	r3, r3, #1
 2594 0138 1344     		add	r3, r3, r2
 2595              		.loc 1 429 89
 2596 013a 0B44     		add	r3, r3, r1
 2597 013c 1A46     		mov	r2, r3
 2598              		.loc 1 429 81
 2599 013e FB6B     		ldr	r3, [r7, #60]
 2600 0140 1A44     		add	r2, r2, r3
 2601              		.loc 1 429 39
 2602 0142 7B68     		ldr	r3, [r7, #4]
 2603 0144 DB69     		ldr	r3, [r3, #28]
 2604 0146 1946     		mov	r1, r3
 2605              		.loc 1 429 19
 2606 0148 0B46     		mov	r3, r1
 2607 014a 5B00     		lsls	r3, r3, #1
 2608 014c 0B44     		add	r3, r3, r1
 2609 014e 5B00     		lsls	r3, r3, #1
 2610 0150 1946     		mov	r1, r3
 2611 0152 BB68     		ldr	r3, [r7, #8]
 2612 0154 0B44     		add	r3, r3, r1
 2613              		.loc 1 429 81
 2614 0156 92F90020 		ldrsb	r2, [r2]
 2615              		.loc 1 429 64
ARM GAS  /tmp/ccp9R2iB.s 			page 55


 2616 015a DA70     		strb	r2, [r3, #3]
 430:Lib/lib_vision_models_pp/lib_vision_models_pp/Src/od_pp_yolov8.c ****         ptrScratch[pInput_static_param->nb_detect].conf        = best_score_array[_i];
 2617              		.loc 1 430 39
 2618 015c 7B68     		ldr	r3, [r7, #4]
 2619 015e DB69     		ldr	r3, [r3, #28]
 2620 0160 1A46     		mov	r2, r3
 2621              		.loc 1 430 19
 2622 0162 1346     		mov	r3, r2
 2623 0164 5B00     		lsls	r3, r3, #1
 2624 0166 1344     		add	r3, r3, r2
 2625 0168 5B00     		lsls	r3, r3, #1
 2626 016a 1A46     		mov	r2, r3
 2627 016c BB68     		ldr	r3, [r7, #8]
 2628 016e 1344     		add	r3, r3, r2
 2629              		.loc 1 430 82
 2630 0170 07F12001 		add	r1, r7, #32
 2631 0174 FA6C     		ldr	r2, [r7, #76]
 2632 0176 0A44     		add	r2, r2, r1
 2633 0178 92F90020 		ldrsb	r2, [r2]
 2634              		.loc 1 430 64
 2635 017c 1A71     		strb	r2, [r3, #4]
 431:Lib/lib_vision_models_pp/lib_vision_models_pp/Src/od_pp_yolov8.c ****         ptrScratch[pInput_static_param->nb_detect].class_index = class_index_array[_i];
 2636              		.loc 1 431 39
 2637 017e 7B68     		ldr	r3, [r7, #4]
 2638 0180 DB69     		ldr	r3, [r3, #28]
 2639 0182 1A46     		mov	r2, r3
 2640              		.loc 1 431 19
 2641 0184 1346     		mov	r3, r2
 2642 0186 5B00     		lsls	r3, r3, #1
 2643 0188 1344     		add	r3, r3, r2
 2644 018a 5B00     		lsls	r3, r3, #1
 2645 018c 1A46     		mov	r2, r3
 2646 018e BB68     		ldr	r3, [r7, #8]
 2647 0190 1344     		add	r3, r3, r2
 2648              		.loc 1 431 83
 2649 0192 07F11001 		add	r1, r7, #16
 2650 0196 FA6C     		ldr	r2, [r7, #76]
 2651 0198 0A44     		add	r2, r2, r1
 2652 019a 1278     		ldrb	r2, [r2]	@ zero_extendqisi2
 2653              		.loc 1 431 64
 2654 019c 5A71     		strb	r2, [r3, #5]
 432:Lib/lib_vision_models_pp/lib_vision_models_pp/Src/od_pp_yolov8.c ****         pInput_static_param->nb_detect++;
 2655              		.loc 1 432 28
 2656 019e 7B68     		ldr	r3, [r7, #4]
 2657 01a0 DB69     		ldr	r3, [r3, #28]
 2658              		.loc 1 432 39
 2659 01a2 5A1C     		adds	r2, r3, #1
 2660 01a4 7B68     		ldr	r3, [r7, #4]
 2661 01a6 DA61     		str	r2, [r3, #28]
 2662              	.L119:
 422:Lib/lib_vision_models_pp/lib_vision_models_pp/Src/od_pp_yolov8.c ****     {
 2663              		.loc 1 422 72 discriminator 2
 2664 01a8 FB6C     		ldr	r3, [r7, #76]
 2665 01aa 0133     		adds	r3, r3, #1
 2666 01ac FB64     		str	r3, [r7, #76]
 2667              	.L118:
 422:Lib/lib_vision_models_pp/lib_vision_models_pp/Src/od_pp_yolov8.c ****     {
ARM GAS  /tmp/ccp9R2iB.s 			page 56


 2668              		.loc 1 422 51 discriminator 1
 2669 01ae 7B6D     		ldr	r3, [r7, #84]
 2670 01b0 102B     		cmp	r3, #16
 2671 01b2 A8BF     		it	ge
 2672 01b4 1023     		movge	r3, #16
 422:Lib/lib_vision_models_pp/lib_vision_models_pp/Src/od_pp_yolov8.c ****     {
 2673              		.loc 1 422 25 discriminator 1
 2674 01b6 FA6C     		ldr	r2, [r7, #76]
 2675 01b8 9A42     		cmp	r2, r3
 2676 01ba FFF66FAF 		blt	.L120
 2677              	.LBE24:
 433:Lib/lib_vision_models_pp/lib_vision_models_pp/Src/od_pp_yolov8.c ****       }
 434:Lib/lib_vision_models_pp/lib_vision_models_pp/Src/od_pp_yolov8.c ****     }
 435:Lib/lib_vision_models_pp/lib_vision_models_pp/Src/od_pp_yolov8.c ****     remaining_boxes-=16;
 2678              		.loc 1 435 20
 2679 01be 7B6D     		ldr	r3, [r7, #84]
 2680 01c0 103B     		subs	r3, r3, #16
 2681 01c2 7B65     		str	r3, [r7, #84]
 414:Lib/lib_vision_models_pp/lib_vision_models_pp/Src/od_pp_yolov8.c ****   {
 2682              		.loc 1 414 44 discriminator 2
 2683 01c4 3B6D     		ldr	r3, [r7, #80]
 2684 01c6 1033     		adds	r3, r3, #16
 2685 01c8 3B65     		str	r3, [r7, #80]
 2686              	.L117:
 414:Lib/lib_vision_models_pp/lib_vision_models_pp/Src/od_pp_yolov8.c ****   {
 2687              		.loc 1 414 25 discriminator 1
 2688 01ca 3A6D     		ldr	r2, [r7, #80]
 2689 01cc 3B6C     		ldr	r3, [r7, #64]
 2690 01ce 9A42     		cmp	r2, r3
 2691 01d0 FFF64EAF 		blt	.L121
 2692              	.LBE23:
 436:Lib/lib_vision_models_pp/lib_vision_models_pp/Src/od_pp_yolov8.c ****   } // for nb_total_boxes
 437:Lib/lib_vision_models_pp/lib_vision_models_pp/Src/od_pp_yolov8.c ****   return (error);
 2693              		.loc 1 437 10
 2694 01d4 BB6C     		ldr	r3, [r7, #72]
 438:Lib/lib_vision_models_pp/lib_vision_models_pp/Src/od_pp_yolov8.c **** }
 2695              		.loc 1 438 1
 2696 01d6 1846     		mov	r0, r3
 2697 01d8 5C37     		adds	r7, r7, #92
 2698              		.cfi_def_cfa_offset 12
 2699 01da BD46     		mov	sp, r7
 2700              		.cfi_def_cfa_register 13
 2701              		@ sp needed
 2702 01dc 90BD     		pop	{r4, r7, pc}
 2703              		.cfi_endproc
 2704              	.LFE2653:
 2706              		.section	.text.od_yolov8_pp_reset,"ax",%progbits
 2707              		.align	1
 2708              		.global	od_yolov8_pp_reset
 2709              		.syntax unified
 2710              		.thumb
 2711              		.thumb_func
 2713              	od_yolov8_pp_reset:
 2714              	.LFB2654:
 439:Lib/lib_vision_models_pp/lib_vision_models_pp/Src/od_pp_yolov8.c **** 
 440:Lib/lib_vision_models_pp/lib_vision_models_pp/Src/od_pp_yolov8.c **** /* ----------------------       Exported routines      ---------------------- */
 441:Lib/lib_vision_models_pp/lib_vision_models_pp/Src/od_pp_yolov8.c **** 
ARM GAS  /tmp/ccp9R2iB.s 			page 57


 442:Lib/lib_vision_models_pp/lib_vision_models_pp/Src/od_pp_yolov8.c **** int32_t od_yolov8_pp_reset(od_yolov8_pp_static_param_t *pInput_static_param)
 443:Lib/lib_vision_models_pp/lib_vision_models_pp/Src/od_pp_yolov8.c **** {
 2715              		.loc 1 443 1
 2716              		.cfi_startproc
 2717              		@ args = 0, pretend = 0, frame = 8
 2718              		@ frame_needed = 1, uses_anonymous_args = 0
 2719              		@ link register save eliminated.
 2720 0000 80B4     		push	{r7}
 2721              		.cfi_def_cfa_offset 4
 2722              		.cfi_offset 7, -4
 2723 0002 83B0     		sub	sp, sp, #12
 2724              		.cfi_def_cfa_offset 16
 2725 0004 00AF     		add	r7, sp, #0
 2726              		.cfi_def_cfa_register 7
 2727 0006 7860     		str	r0, [r7, #4]
 444:Lib/lib_vision_models_pp/lib_vision_models_pp/Src/od_pp_yolov8.c ****   /* Initializations */
 445:Lib/lib_vision_models_pp/lib_vision_models_pp/Src/od_pp_yolov8.c ****   pInput_static_param->nb_detect = 0;
 2728              		.loc 1 445 34
 2729 0008 7B68     		ldr	r3, [r7, #4]
 2730 000a 0022     		movs	r2, #0
 2731 000c DA61     		str	r2, [r3, #28]
 446:Lib/lib_vision_models_pp/lib_vision_models_pp/Src/od_pp_yolov8.c **** 
 447:Lib/lib_vision_models_pp/lib_vision_models_pp/Src/od_pp_yolov8.c ****   return (AI_OD_POSTPROCESS_ERROR_NO);
 2732              		.loc 1 447 10
 2733 000e 0023     		movs	r3, #0
 448:Lib/lib_vision_models_pp/lib_vision_models_pp/Src/od_pp_yolov8.c **** }
 2734              		.loc 1 448 1
 2735 0010 1846     		mov	r0, r3
 2736 0012 0C37     		adds	r7, r7, #12
 2737              		.cfi_def_cfa_offset 4
 2738 0014 BD46     		mov	sp, r7
 2739              		.cfi_def_cfa_register 13
 2740              		@ sp needed
 2741 0016 5DF8047B 		ldr	r7, [sp], #4
 2742              		.cfi_restore 7
 2743              		.cfi_def_cfa_offset 0
 2744 001a 7047     		bx	lr
 2745              		.cfi_endproc
 2746              	.LFE2654:
 2748              		.section	.text.od_yolov8_pp_process,"ax",%progbits
 2749              		.align	1
 2750              		.global	od_yolov8_pp_process
 2751              		.syntax unified
 2752              		.thumb
 2753              		.thumb_func
 2755              	od_yolov8_pp_process:
 2756              	.LFB2655:
 449:Lib/lib_vision_models_pp/lib_vision_models_pp/Src/od_pp_yolov8.c **** 
 450:Lib/lib_vision_models_pp/lib_vision_models_pp/Src/od_pp_yolov8.c **** 
 451:Lib/lib_vision_models_pp/lib_vision_models_pp/Src/od_pp_yolov8.c **** int32_t od_yolov8_pp_process(od_yolov8_pp_in_centroid_t *pInput,
 452:Lib/lib_vision_models_pp/lib_vision_models_pp/Src/od_pp_yolov8.c ****                              od_pp_out_t *pOutput,
 453:Lib/lib_vision_models_pp/lib_vision_models_pp/Src/od_pp_yolov8.c ****                              od_yolov8_pp_static_param_t *pInput_static_param)
 454:Lib/lib_vision_models_pp/lib_vision_models_pp/Src/od_pp_yolov8.c **** {
 2757              		.loc 1 454 1
 2758              		.cfi_startproc
 2759              		@ args = 0, pretend = 0, frame = 24
 2760              		@ frame_needed = 1, uses_anonymous_args = 0
ARM GAS  /tmp/ccp9R2iB.s 			page 58


 2761 0000 80B5     		push	{r7, lr}
 2762              		.cfi_def_cfa_offset 8
 2763              		.cfi_offset 7, -8
 2764              		.cfi_offset 14, -4
 2765 0002 86B0     		sub	sp, sp, #24
 2766              		.cfi_def_cfa_offset 32
 2767 0004 00AF     		add	r7, sp, #0
 2768              		.cfi_def_cfa_register 7
 2769 0006 F860     		str	r0, [r7, #12]
 2770 0008 B960     		str	r1, [r7, #8]
 2771 000a 7A60     		str	r2, [r7, #4]
 455:Lib/lib_vision_models_pp/lib_vision_models_pp/Src/od_pp_yolov8.c ****   int32_t error   = AI_OD_POSTPROCESS_ERROR_NO;
 2772              		.loc 1 455 11
 2773 000c 0023     		movs	r3, #0
 2774 000e 7B61     		str	r3, [r7, #20]
 456:Lib/lib_vision_models_pp/lib_vision_models_pp/Src/od_pp_yolov8.c **** 
 457:Lib/lib_vision_models_pp/lib_vision_models_pp/Src/od_pp_yolov8.c ****   /* Call Get NN boxes first */
 458:Lib/lib_vision_models_pp/lib_vision_models_pp/Src/od_pp_yolov8.c ****   error = yolov8_pp_getNNBoxes_centroid(pInput,
 2775              		.loc 1 458 11
 2776 0010 7A68     		ldr	r2, [r7, #4]
 2777 0012 B968     		ldr	r1, [r7, #8]
 2778 0014 F868     		ldr	r0, [r7, #12]
 2779 0016 FFF7FEFF 		bl	yolov8_pp_getNNBoxes_centroid
 2780 001a 7861     		str	r0, [r7, #20]
 459:Lib/lib_vision_models_pp/lib_vision_models_pp/Src/od_pp_yolov8.c ****                                         pOutput,
 460:Lib/lib_vision_models_pp/lib_vision_models_pp/Src/od_pp_yolov8.c ****                                         pInput_static_param);
 461:Lib/lib_vision_models_pp/lib_vision_models_pp/Src/od_pp_yolov8.c ****   if (error != AI_OD_POSTPROCESS_ERROR_NO) return (error);
 2781              		.loc 1 461 6
 2782 001c 7B69     		ldr	r3, [r7, #20]
 2783 001e 002B     		cmp	r3, #0
 2784 0020 01D0     		beq	.L126
 2785              		.loc 1 461 51 discriminator 1
 2786 0022 7B69     		ldr	r3, [r7, #20]
 2787              		.loc 1 461 51 is_stmt 0
 2788 0024 0FE0     		b	.L127
 2789              	.L126:
 462:Lib/lib_vision_models_pp/lib_vision_models_pp/Src/od_pp_yolov8.c **** 
 463:Lib/lib_vision_models_pp/lib_vision_models_pp/Src/od_pp_yolov8.c ****   /* Then NMS */
 464:Lib/lib_vision_models_pp/lib_vision_models_pp/Src/od_pp_yolov8.c ****   error = yolov8_pp_nmsFiltering_centroid(pOutput,
 2790              		.loc 1 464 11 is_stmt 1
 2791 0026 7968     		ldr	r1, [r7, #4]
 2792 0028 B868     		ldr	r0, [r7, #8]
 2793 002a FFF7FEFF 		bl	yolov8_pp_nmsFiltering_centroid
 2794 002e 7861     		str	r0, [r7, #20]
 465:Lib/lib_vision_models_pp/lib_vision_models_pp/Src/od_pp_yolov8.c ****                                           pInput_static_param);
 466:Lib/lib_vision_models_pp/lib_vision_models_pp/Src/od_pp_yolov8.c ****   if (error != AI_OD_POSTPROCESS_ERROR_NO) return (error);
 2795              		.loc 1 466 6
 2796 0030 7B69     		ldr	r3, [r7, #20]
 2797 0032 002B     		cmp	r3, #0
 2798 0034 01D0     		beq	.L128
 2799              		.loc 1 466 51 discriminator 1
 2800 0036 7B69     		ldr	r3, [r7, #20]
 2801              		.loc 1 466 51 is_stmt 0
 2802 0038 05E0     		b	.L127
 2803              	.L128:
 467:Lib/lib_vision_models_pp/lib_vision_models_pp/Src/od_pp_yolov8.c **** 
 468:Lib/lib_vision_models_pp/lib_vision_models_pp/Src/od_pp_yolov8.c ****   /* And score re-filtering */
ARM GAS  /tmp/ccp9R2iB.s 			page 59


 469:Lib/lib_vision_models_pp/lib_vision_models_pp/Src/od_pp_yolov8.c ****   error = yolov8_pp_scoreFiltering_centroid(pOutput,
 2804              		.loc 1 469 11 is_stmt 1
 2805 003a 7968     		ldr	r1, [r7, #4]
 2806 003c B868     		ldr	r0, [r7, #8]
 2807 003e FFF7FEFF 		bl	yolov8_pp_scoreFiltering_centroid
 2808 0042 7861     		str	r0, [r7, #20]
 470:Lib/lib_vision_models_pp/lib_vision_models_pp/Src/od_pp_yolov8.c ****                                             pInput_static_param);
 471:Lib/lib_vision_models_pp/lib_vision_models_pp/Src/od_pp_yolov8.c **** 
 472:Lib/lib_vision_models_pp/lib_vision_models_pp/Src/od_pp_yolov8.c ****   return (error);
 2809              		.loc 1 472 10
 2810 0044 7B69     		ldr	r3, [r7, #20]
 2811              	.L127:
 473:Lib/lib_vision_models_pp/lib_vision_models_pp/Src/od_pp_yolov8.c **** }
 2812              		.loc 1 473 1
 2813 0046 1846     		mov	r0, r3
 2814 0048 1837     		adds	r7, r7, #24
 2815              		.cfi_def_cfa_offset 8
 2816 004a BD46     		mov	sp, r7
 2817              		.cfi_def_cfa_register 13
 2818              		@ sp needed
 2819 004c 80BD     		pop	{r7, pc}
 2820              		.cfi_endproc
 2821              	.LFE2655:
 2823              		.section	.text.od_yolov8_pp_process_int8,"ax",%progbits
 2824              		.align	1
 2825              		.global	od_yolov8_pp_process_int8
 2826              		.syntax unified
 2827              		.thumb
 2828              		.thumb_func
 2830              	od_yolov8_pp_process_int8:
 2831              	.LFB2656:
 474:Lib/lib_vision_models_pp/lib_vision_models_pp/Src/od_pp_yolov8.c **** 
 475:Lib/lib_vision_models_pp/lib_vision_models_pp/Src/od_pp_yolov8.c **** 
 476:Lib/lib_vision_models_pp/lib_vision_models_pp/Src/od_pp_yolov8.c **** int32_t od_yolov8_pp_process_int8(od_yolov8_pp_in_centroid_t *pInput,
 477:Lib/lib_vision_models_pp/lib_vision_models_pp/Src/od_pp_yolov8.c ****                                   od_pp_out_t *pOutput,
 478:Lib/lib_vision_models_pp/lib_vision_models_pp/Src/od_pp_yolov8.c ****                                   od_yolov8_pp_static_param_t *pInput_static_param)
 479:Lib/lib_vision_models_pp/lib_vision_models_pp/Src/od_pp_yolov8.c **** {
 2832              		.loc 1 479 1
 2833              		.cfi_startproc
 2834              		@ args = 0, pretend = 0, frame = 24
 2835              		@ frame_needed = 1, uses_anonymous_args = 0
 2836 0000 80B5     		push	{r7, lr}
 2837              		.cfi_def_cfa_offset 8
 2838              		.cfi_offset 7, -8
 2839              		.cfi_offset 14, -4
 2840 0002 86B0     		sub	sp, sp, #24
 2841              		.cfi_def_cfa_offset 32
 2842 0004 00AF     		add	r7, sp, #0
 2843              		.cfi_def_cfa_register 7
 2844 0006 F860     		str	r0, [r7, #12]
 2845 0008 B960     		str	r1, [r7, #8]
 2846 000a 7A60     		str	r2, [r7, #4]
 480:Lib/lib_vision_models_pp/lib_vision_models_pp/Src/od_pp_yolov8.c ****   int32_t error   = AI_OD_POSTPROCESS_ERROR_NO;
 2847              		.loc 1 480 11
 2848 000c 0023     		movs	r3, #0
 2849 000e 7B61     		str	r3, [r7, #20]
 481:Lib/lib_vision_models_pp/lib_vision_models_pp/Src/od_pp_yolov8.c ****   od_yolov8_pp_scratch_s8_t *ptrScratch = pInput_static_param->pScratchBuff;
ARM GAS  /tmp/ccp9R2iB.s 			page 60


 2850              		.loc 1 481 30
 2851 0010 7B68     		ldr	r3, [r7, #4]
 2852 0012 1B6A     		ldr	r3, [r3, #32]
 2853 0014 3B61     		str	r3, [r7, #16]
 482:Lib/lib_vision_models_pp/lib_vision_models_pp/Src/od_pp_yolov8.c **** 
 483:Lib/lib_vision_models_pp/lib_vision_models_pp/Src/od_pp_yolov8.c ****   if (ptrScratch)
 2854              		.loc 1 483 6
 2855 0016 3B69     		ldr	r3, [r7, #16]
 2856 0018 002B     		cmp	r3, #0
 2857 001a 1BD0     		beq	.L130
 484:Lib/lib_vision_models_pp/lib_vision_models_pp/Src/od_pp_yolov8.c ****   {
 485:Lib/lib_vision_models_pp/lib_vision_models_pp/Src/od_pp_yolov8.c ****     /* Call Get NN boxes first */
 486:Lib/lib_vision_models_pp/lib_vision_models_pp/Src/od_pp_yolov8.c ****     error = yolov8_pp_getNNBoxes_centroid_is8os8(pInput,
 2858              		.loc 1 486 13
 2859 001c 7A68     		ldr	r2, [r7, #4]
 2860 001e 3969     		ldr	r1, [r7, #16]
 2861 0020 F868     		ldr	r0, [r7, #12]
 2862 0022 FFF7FEFF 		bl	yolov8_pp_getNNBoxes_centroid_is8os8
 2863 0026 7861     		str	r0, [r7, #20]
 487:Lib/lib_vision_models_pp/lib_vision_models_pp/Src/od_pp_yolov8.c ****                                                  ptrScratch,
 488:Lib/lib_vision_models_pp/lib_vision_models_pp/Src/od_pp_yolov8.c ****                                                  pInput_static_param);
 489:Lib/lib_vision_models_pp/lib_vision_models_pp/Src/od_pp_yolov8.c ****     if (error != AI_OD_POSTPROCESS_ERROR_NO) return (error);
 2864              		.loc 1 489 8
 2865 0028 7B69     		ldr	r3, [r7, #20]
 2866 002a 002B     		cmp	r3, #0
 2867 002c 01D0     		beq	.L131
 2868              		.loc 1 489 53 discriminator 1
 2869 002e 7B69     		ldr	r3, [r7, #20]
 2870              		.loc 1 489 53 is_stmt 0
 2871 0030 2BE0     		b	.L132
 2872              	.L131:
 490:Lib/lib_vision_models_pp/lib_vision_models_pp/Src/od_pp_yolov8.c **** 
 491:Lib/lib_vision_models_pp/lib_vision_models_pp/Src/od_pp_yolov8.c ****     /* Then NMS */
 492:Lib/lib_vision_models_pp/lib_vision_models_pp/Src/od_pp_yolov8.c **** 
 493:Lib/lib_vision_models_pp/lib_vision_models_pp/Src/od_pp_yolov8.c ****     error = yolov8_pp_nmsFiltering_centroid_is8(ptrScratch,
 2873              		.loc 1 493 13 is_stmt 1
 2874 0032 7968     		ldr	r1, [r7, #4]
 2875 0034 3869     		ldr	r0, [r7, #16]
 2876 0036 FFF7FEFF 		bl	yolov8_pp_nmsFiltering_centroid_is8
 2877 003a 7861     		str	r0, [r7, #20]
 494:Lib/lib_vision_models_pp/lib_vision_models_pp/Src/od_pp_yolov8.c ****                                                 pInput_static_param);
 495:Lib/lib_vision_models_pp/lib_vision_models_pp/Src/od_pp_yolov8.c ****     if (error != AI_OD_POSTPROCESS_ERROR_NO) return (error);
 2878              		.loc 1 495 8
 2879 003c 7B69     		ldr	r3, [r7, #20]
 2880 003e 002B     		cmp	r3, #0
 2881 0040 01D0     		beq	.L133
 2882              		.loc 1 495 53 discriminator 1
 2883 0042 7B69     		ldr	r3, [r7, #20]
 2884              		.loc 1 495 53 is_stmt 0
 2885 0044 21E0     		b	.L132
 2886              	.L133:
 496:Lib/lib_vision_models_pp/lib_vision_models_pp/Src/od_pp_yolov8.c **** 
 497:Lib/lib_vision_models_pp/lib_vision_models_pp/Src/od_pp_yolov8.c ****     /* And score re-filtering */
 498:Lib/lib_vision_models_pp/lib_vision_models_pp/Src/od_pp_yolov8.c ****     error = yolov8_pp_scoreFiltering_centroid_is8(ptrScratch,
 2887              		.loc 1 498 13 is_stmt 1
 2888 0046 7A68     		ldr	r2, [r7, #4]
 2889 0048 B968     		ldr	r1, [r7, #8]
ARM GAS  /tmp/ccp9R2iB.s 			page 61


 2890 004a 3869     		ldr	r0, [r7, #16]
 2891 004c FFF7FEFF 		bl	yolov8_pp_scoreFiltering_centroid_is8
 2892 0050 7861     		str	r0, [r7, #20]
 2893 0052 19E0     		b	.L134
 2894              	.L130:
 499:Lib/lib_vision_models_pp/lib_vision_models_pp/Src/od_pp_yolov8.c ****                                                   pOutput,
 500:Lib/lib_vision_models_pp/lib_vision_models_pp/Src/od_pp_yolov8.c ****                                                   pInput_static_param);
 501:Lib/lib_vision_models_pp/lib_vision_models_pp/Src/od_pp_yolov8.c ****   }
 502:Lib/lib_vision_models_pp/lib_vision_models_pp/Src/od_pp_yolov8.c ****   else
 503:Lib/lib_vision_models_pp/lib_vision_models_pp/Src/od_pp_yolov8.c ****   {
 504:Lib/lib_vision_models_pp/lib_vision_models_pp/Src/od_pp_yolov8.c ****     /* Call Get NN boxes first */
 505:Lib/lib_vision_models_pp/lib_vision_models_pp/Src/od_pp_yolov8.c ****     error = yolov8_pp_getNNBoxes_centroid_int8(pInput,
 2895              		.loc 1 505 13
 2896 0054 7A68     		ldr	r2, [r7, #4]
 2897 0056 B968     		ldr	r1, [r7, #8]
 2898 0058 F868     		ldr	r0, [r7, #12]
 2899 005a FFF7FEFF 		bl	yolov8_pp_getNNBoxes_centroid_int8
 2900 005e 7861     		str	r0, [r7, #20]
 506:Lib/lib_vision_models_pp/lib_vision_models_pp/Src/od_pp_yolov8.c ****                                                pOutput,
 507:Lib/lib_vision_models_pp/lib_vision_models_pp/Src/od_pp_yolov8.c ****                                                pInput_static_param);
 508:Lib/lib_vision_models_pp/lib_vision_models_pp/Src/od_pp_yolov8.c ****     if (error != AI_OD_POSTPROCESS_ERROR_NO) return (error);
 2901              		.loc 1 508 8
 2902 0060 7B69     		ldr	r3, [r7, #20]
 2903 0062 002B     		cmp	r3, #0
 2904 0064 01D0     		beq	.L135
 2905              		.loc 1 508 53 discriminator 1
 2906 0066 7B69     		ldr	r3, [r7, #20]
 2907              		.loc 1 508 53 is_stmt 0
 2908 0068 0FE0     		b	.L132
 2909              	.L135:
 509:Lib/lib_vision_models_pp/lib_vision_models_pp/Src/od_pp_yolov8.c **** 
 510:Lib/lib_vision_models_pp/lib_vision_models_pp/Src/od_pp_yolov8.c ****     /* Then NMS */
 511:Lib/lib_vision_models_pp/lib_vision_models_pp/Src/od_pp_yolov8.c **** 
 512:Lib/lib_vision_models_pp/lib_vision_models_pp/Src/od_pp_yolov8.c ****     error = yolov8_pp_nmsFiltering_centroid(pOutput,
 2910              		.loc 1 512 13 is_stmt 1
 2911 006a 7968     		ldr	r1, [r7, #4]
 2912 006c B868     		ldr	r0, [r7, #8]
 2913 006e FFF7FEFF 		bl	yolov8_pp_nmsFiltering_centroid
 2914 0072 7861     		str	r0, [r7, #20]
 513:Lib/lib_vision_models_pp/lib_vision_models_pp/Src/od_pp_yolov8.c ****                                             pInput_static_param);
 514:Lib/lib_vision_models_pp/lib_vision_models_pp/Src/od_pp_yolov8.c ****     if (error != AI_OD_POSTPROCESS_ERROR_NO) return (error);
 2915              		.loc 1 514 8
 2916 0074 7B69     		ldr	r3, [r7, #20]
 2917 0076 002B     		cmp	r3, #0
 2918 0078 01D0     		beq	.L136
 2919              		.loc 1 514 53 discriminator 1
 2920 007a 7B69     		ldr	r3, [r7, #20]
 2921              		.loc 1 514 53 is_stmt 0
 2922 007c 05E0     		b	.L132
 2923              	.L136:
 515:Lib/lib_vision_models_pp/lib_vision_models_pp/Src/od_pp_yolov8.c **** 
 516:Lib/lib_vision_models_pp/lib_vision_models_pp/Src/od_pp_yolov8.c ****     /* And score re-filtering */
 517:Lib/lib_vision_models_pp/lib_vision_models_pp/Src/od_pp_yolov8.c ****     error = yolov8_pp_scoreFiltering_centroid(pOutput,
 2924              		.loc 1 517 13 is_stmt 1
 2925 007e 7968     		ldr	r1, [r7, #4]
 2926 0080 B868     		ldr	r0, [r7, #8]
 2927 0082 FFF7FEFF 		bl	yolov8_pp_scoreFiltering_centroid
ARM GAS  /tmp/ccp9R2iB.s 			page 62


 2928 0086 7861     		str	r0, [r7, #20]
 2929              	.L134:
 518:Lib/lib_vision_models_pp/lib_vision_models_pp/Src/od_pp_yolov8.c ****                                               pInput_static_param);
 519:Lib/lib_vision_models_pp/lib_vision_models_pp/Src/od_pp_yolov8.c ****   }
 520:Lib/lib_vision_models_pp/lib_vision_models_pp/Src/od_pp_yolov8.c ****   return (error);
 2930              		.loc 1 520 10
 2931 0088 7B69     		ldr	r3, [r7, #20]
 2932              	.L132:
 521:Lib/lib_vision_models_pp/lib_vision_models_pp/Src/od_pp_yolov8.c **** }
 2933              		.loc 1 521 1
 2934 008a 1846     		mov	r0, r3
 2935 008c 1837     		adds	r7, r7, #24
 2936              		.cfi_def_cfa_offset 8
 2937 008e BD46     		mov	sp, r7
 2938              		.cfi_def_cfa_register 13
 2939              		@ sp needed
 2940 0090 80BD     		pop	{r7, pc}
 2941              		.cfi_endproc
 2942              	.LFE2656:
 2944              		.text
 2945              	.Letext0:
 2946              		.file 2 "/home/tanjiajun2002/renesas/rzv/e2studio_v2025-01_fsp_v3.1.0/toolchains/gcc_arm/arm-gnu-t
 2947              		.file 3 "/home/tanjiajun2002/renesas/rzv/e2studio_v2025-01_fsp_v3.1.0/toolchains/gcc_arm/arm-gnu-t
 2948              		.file 4 "/home/tanjiajun2002/renesas/rzv/e2studio_v2025-01_fsp_v3.1.0/toolchains/gcc_arm/arm-gnu-t
 2949              		.file 5 "/home/tanjiajun2002/renesas/rzv/e2studio_v2025-01_fsp_v3.1.0/toolchains/gcc_arm/arm-gnu-t
 2950              		.file 6 "Lib/lib_vision_models_pp/lib_vision_models_pp/Inc/od_pp_output_if.h"
 2951              		.file 7 "Lib/lib_vision_models_pp/lib_vision_models_pp/Inc/od_yolov8_pp_if.h"
 2952              		.file 8 "Lib/lib_vision_models_pp/lib_vision_models_pp/Src/vision_models_pp.h"
ARM GAS  /tmp/ccp9R2iB.s 			page 63


DEFINED SYMBOLS
                            *ABS*:00000000 od_pp_yolov8.c
     /tmp/ccp9R2iB.s:26     .bss.AI_YOLOV8_PP_SORT_CLASS:00000000 $d
     /tmp/ccp9R2iB.s:29     .bss.AI_YOLOV8_PP_SORT_CLASS:00000000 AI_YOLOV8_PP_SORT_CLASS
     /tmp/ccp9R2iB.s:32     .text.yolov8_nms_comparator:00000000 $t
     /tmp/ccp9R2iB.s:38     .text.yolov8_nms_comparator:00000000 yolov8_nms_comparator
     /tmp/ccp9R2iB.s:159    .text.yolov8_nms_comparator:000000b4 $d
     /tmp/ccp9R2iB.s:164    .text.yolov8_nms_comparator_is8:00000000 $t
     /tmp/ccp9R2iB.s:170    .text.yolov8_nms_comparator_is8:00000000 yolov8_nms_comparator_is8
     /tmp/ccp9R2iB.s:288    .text.yolov8_nms_comparator_is8:00000098 $d
     /tmp/ccp9R2iB.s:293    .text.yolov8_pp_nmsFiltering_centroid:00000000 $t
     /tmp/ccp9R2iB.s:299    .text.yolov8_pp_nmsFiltering_centroid:00000000 yolov8_pp_nmsFiltering_centroid
     /tmp/ccp9R2iB.s:604    .text.yolov8_pp_nmsFiltering_centroid:000001a8 $d
     /tmp/ccp9R2iB.s:610    .text.yolov8_pp_nmsFiltering_centroid_is8:00000000 $t
     /tmp/ccp9R2iB.s:616    .text.yolov8_pp_nmsFiltering_centroid_is8:00000000 yolov8_pp_nmsFiltering_centroid_is8
     /tmp/ccp9R2iB.s:912    .text.yolov8_pp_nmsFiltering_centroid_is8:000001a0 $d
     /tmp/ccp9R2iB.s:918    .text.yolov8_pp_scoreFiltering_centroid:00000000 $t
     /tmp/ccp9R2iB.s:924    .text.yolov8_pp_scoreFiltering_centroid:00000000 yolov8_pp_scoreFiltering_centroid
     /tmp/ccp9R2iB.s:1152   .text.yolov8_pp_scoreFiltering_centroid_is8:00000000 $t
     /tmp/ccp9R2iB.s:1158   .text.yolov8_pp_scoreFiltering_centroid_is8:00000000 yolov8_pp_scoreFiltering_centroid_is8
     /tmp/ccp9R2iB.s:1468   .text.yolov8_pp_getNNBoxes_centroid:00000000 $t
     /tmp/ccp9R2iB.s:1474   .text.yolov8_pp_getNNBoxes_centroid:00000000 yolov8_pp_getNNBoxes_centroid
     /tmp/ccp9R2iB.s:1756   .text.yolov8_pp_getNNBoxes_centroid_int8:00000000 $t
     /tmp/ccp9R2iB.s:1762   .text.yolov8_pp_getNNBoxes_centroid_int8:00000000 yolov8_pp_getNNBoxes_centroid_int8
     /tmp/ccp9R2iB.s:2389   .text.yolov8_pp_getNNBoxes_centroid_is8os8:00000000 $t
     /tmp/ccp9R2iB.s:2395   .text.yolov8_pp_getNNBoxes_centroid_is8os8:00000000 yolov8_pp_getNNBoxes_centroid_is8os8
     /tmp/ccp9R2iB.s:2707   .text.od_yolov8_pp_reset:00000000 $t
     /tmp/ccp9R2iB.s:2713   .text.od_yolov8_pp_reset:00000000 od_yolov8_pp_reset
     /tmp/ccp9R2iB.s:2749   .text.od_yolov8_pp_process:00000000 $t
     /tmp/ccp9R2iB.s:2755   .text.od_yolov8_pp_process:00000000 od_yolov8_pp_process
     /tmp/ccp9R2iB.s:2824   .text.od_yolov8_pp_process_int8:00000000 $t
     /tmp/ccp9R2iB.s:2830   .text.od_yolov8_pp_process_int8:00000000 od_yolov8_pp_process_int8
                           .group:00000000 wm4.0.2a10773746a5c5ebb5552f50e466f80b
                           .group:00000000 wm4._newlib_version.h.4.411db44ea2338a62eca2f0777f81481b
                           .group:00000000 wm4.features.h.33.e0c9f337c65cb9f22ed5f23d082bc78b
                           .group:00000000 wm4._default_types.h.15.247e5cd201eca3442cbf5404108c4935
                           .group:00000000 wm4._intsup.h.10.48bafbb683905c4daa4565a85aeeb264
                           .group:00000000 wm4._stdint.h.10.c24fa3af3bc1706662bb5593a907e841
                           .group:00000000 wm4.stdint.h.23.d53047a68f4a85177f80b422d52785ed
                           .group:00000000 wm4.cmsis_gcc.h.26.7a5fd1a99dbedde687044a4433ab3e15
                           .group:00000000 wm4.newlib.h.7.591ac1bd65c1f5b34864757667a05252
                           .group:00000000 wm4.ieeefp.h.77.bd5feb87d9990dd328793ced294f6a87
                           .group:00000000 wm4.config.h.224.10ee1ad185d877c6e334e6581faab44d
                           .group:00000000 wm4._ansi.h.31.de524f58584151836e90d8620a16f8e8
                           .group:00000000 wm4.stddef.h.39.0dc9006b34572d4d9cae4c8b422c4971
                           .group:00000000 wm4.cdefs.h.49.70fc7af612f78ddcace70fdd90b5623b
                           .group:00000000 wm4._types.h.20.dd0d04dca3800a0d2a6129b87f3adbb2
                           .group:00000000 wm4.stddef.h.158.6f8e08a347b1cff664332fa350bfceb3
                           .group:00000000 wm4._types.h.127.3bdfe3ff8ea2d0985b03d9cbe93480e3
                           .group:00000000 wm4.reent.h.18.25503cdc8b7e55dd0d6ea7b3e5af7a03
                           .group:00000000 wm4.lock.h.2.1461d1fff82dffe8bfddc23307f6484f
                           .group:00000000 wm4.reent.h.78.6b87466b04591b1f1cb88c14fdf2ba9e
                           .group:00000000 wm4.string.h.15.dab3980bf35408a4c507182805e2de3a
                           .group:00000000 wm4.stddef.h.158.eec8bf00b5213f43d095cb984c5f22e3
                           .group:00000000 wm4.math.h.13.47cfc34cae8a1153323939c4d32cf7c2
                           .group:00000000 wm4.float.h.29.0e9d9baf95ec39f9555dc80c6e28186b
                           .group:00000000 wm4.syslimits.h.34.de5cbd310098bc5895998b6bde577ed2
ARM GAS  /tmp/ccp9R2iB.s 			page 64


                           .group:00000000 wm4.limits.h.9.70fb0ada6f71b16202a66baaa6d8ea70
                           .group:00000000 wm4.limits.h.60.56a1ae353e2028a24298ec6463b8b593
                           .group:00000000 wm4.arm_math_types.h.94.a6c8422e2657ad4cd95bd8be69ba02aa
                           .group:00000000 wm4.stdbool.h.29.c08aa3eec75cf5b9b5003883f43253f0
                           .group:00000000 wm4.arm_mve.h.38.47b22bbd301ce82bc6dafd1a387f65a3
                           .group:00000000 wm4.arm_math_types.h.559.cab78f278b684a3ea2271947c7aea680
                           .group:00000000 wm4.arm_math_memory.h.28.fe8a81c6a9ac13061a5f748732089249
                           .group:00000000 wm4.none.h.185.db055cca83e83f96d8d0bb450fbdf4bb
                           .group:00000000 wm4.utils.h.27.57524573fe37b04009eecf3582a4c591
                           .group:00000000 wm4.fast_math_functions.h.28.8eb7477260c1d6b62047c49a01c4cbaa
                           .group:00000000 wm4.controller_functions.h.28.7bed7d7a726df2f65b8a3d89cff01247
                           .group:00000000 wm4.filtering_functions.h.46.6cf1424fb1f86d5f9958d208b83340a1
                           .group:00000000 wm4.od_pp_loc.h.22.a87c2f930c59ccf83a54c7460f623c76
                           .group:00000000 wm4.od_pp_output_if.h.11.62a3da738caf687aa42d96759c237b2c
                           .group:00000000 wm4.vision_models_pp.h.11.28b46b8e037dfd5f523e56a85135f80b

UNDEFINED SYMBOLS
qsort
vision_models_box_iou
vision_models_box_iou_is8
vision_models_maxi_tr_p_if32ou32
vision_models_maxi_tr_p_is8ou8
vision_models_maxi_tr_p_is8ou16
