ARM GAS  /tmp/cc3HBV3p.s 			page 1


   1              		.arch armv8.1-m.main
   2              		.fpu fpv5-d16
   3              		.arch_extension dsp
   4              		.arch_extension fp
   5              		.arch_extension fp.dp
   6              		.arch_extension mve
   7              		.arch_extension mve.fp
   8              		.eabi_attribute 5, "cortex-m55"
   9              		.eabi_attribute 28, 1
  10              		.eabi_attribute 20, 1
  11              		.eabi_attribute 21, 1
  12              		.eabi_attribute 23, 3
  13              		.eabi_attribute 24, 1
  14              		.eabi_attribute 25, 1
  15              		.eabi_attribute 26, 1
  16              		.eabi_attribute 30, 4
  17              		.eabi_attribute 34, 1
  18              		.eabi_attribute 38, 1
  19              		.eabi_attribute 18, 4
  20              		.file	"od_pp_yolov8.c"
  21              		.text
  22              	.Ltext0:
  23              		.cfi_sections	.debug_frame
  24              		.file 1 "Lib/lib_vision_models_pp/lib_vision_models_pp/Src/od_pp_yolov8.c"
  25              		.section	.text.yolov8_nms_comparator,"ax",%progbits
  26              		.align	1
  27              		.global	yolov8_nms_comparator
  28              		.syntax unified
  29              		.thumb
  30              		.thumb_func
  32              	yolov8_nms_comparator:
  33              	.LVL0:
  34              	.LFB2645:
   1:Lib/lib_vision_models_pp/lib_vision_models_pp/Src/od_pp_yolov8.c **** /*---------------------------------------------------------------------------------------------
   2:Lib/lib_vision_models_pp/lib_vision_models_pp/Src/od_pp_yolov8.c ****  * Copyright (c) 2023 STMicroelectronics.
   3:Lib/lib_vision_models_pp/lib_vision_models_pp/Src/od_pp_yolov8.c ****  * All rights reserved.
   4:Lib/lib_vision_models_pp/lib_vision_models_pp/Src/od_pp_yolov8.c ****  *
   5:Lib/lib_vision_models_pp/lib_vision_models_pp/Src/od_pp_yolov8.c ****  * This software is licensed under terms that can be found in the LICENSE file in
   6:Lib/lib_vision_models_pp/lib_vision_models_pp/Src/od_pp_yolov8.c ****  * the root directory of this software component.
   7:Lib/lib_vision_models_pp/lib_vision_models_pp/Src/od_pp_yolov8.c ****  * If no LICENSE file comes with this software, it is provided AS-IS.
   8:Lib/lib_vision_models_pp/lib_vision_models_pp/Src/od_pp_yolov8.c ****  *--------------------------------------------------------------------------------------------*/
   9:Lib/lib_vision_models_pp/lib_vision_models_pp/Src/od_pp_yolov8.c **** 
  10:Lib/lib_vision_models_pp/lib_vision_models_pp/Src/od_pp_yolov8.c **** #include "od_pp_loc.h"
  11:Lib/lib_vision_models_pp/lib_vision_models_pp/Src/od_pp_yolov8.c **** #include "od_yolov8_pp_if.h"
  12:Lib/lib_vision_models_pp/lib_vision_models_pp/Src/od_pp_yolov8.c **** #include "vision_models_pp.h"
  13:Lib/lib_vision_models_pp/lib_vision_models_pp/Src/od_pp_yolov8.c **** 
  14:Lib/lib_vision_models_pp/lib_vision_models_pp/Src/od_pp_yolov8.c **** 
  15:Lib/lib_vision_models_pp/lib_vision_models_pp/Src/od_pp_yolov8.c **** /* Can't be removed if qsort is not re-written... */
  16:Lib/lib_vision_models_pp/lib_vision_models_pp/Src/od_pp_yolov8.c **** static int32_t AI_YOLOV8_PP_SORT_CLASS;
  17:Lib/lib_vision_models_pp/lib_vision_models_pp/Src/od_pp_yolov8.c **** 
  18:Lib/lib_vision_models_pp/lib_vision_models_pp/Src/od_pp_yolov8.c **** typedef struct
  19:Lib/lib_vision_models_pp/lib_vision_models_pp/Src/od_pp_yolov8.c **** {
  20:Lib/lib_vision_models_pp/lib_vision_models_pp/Src/od_pp_yolov8.c ****   int8_t  x_center;
  21:Lib/lib_vision_models_pp/lib_vision_models_pp/Src/od_pp_yolov8.c ****   int8_t  y_center;
  22:Lib/lib_vision_models_pp/lib_vision_models_pp/Src/od_pp_yolov8.c ****   int8_t  width;
  23:Lib/lib_vision_models_pp/lib_vision_models_pp/Src/od_pp_yolov8.c ****   int8_t  height;
  24:Lib/lib_vision_models_pp/lib_vision_models_pp/Src/od_pp_yolov8.c ****   int8_t  conf;
ARM GAS  /tmp/cc3HBV3p.s 			page 2


  25:Lib/lib_vision_models_pp/lib_vision_models_pp/Src/od_pp_yolov8.c ****   uint8_t class_index;
  26:Lib/lib_vision_models_pp/lib_vision_models_pp/Src/od_pp_yolov8.c **** } od_yolov8_pp_scratch_s8_t;
  27:Lib/lib_vision_models_pp/lib_vision_models_pp/Src/od_pp_yolov8.c **** 
  28:Lib/lib_vision_models_pp/lib_vision_models_pp/Src/od_pp_yolov8.c **** int32_t yolov8_nms_comparator(const void *pa, const void *pb)
  29:Lib/lib_vision_models_pp/lib_vision_models_pp/Src/od_pp_yolov8.c **** {
  35              		.loc 1 29 1 view -0
  36              		.cfi_startproc
  37              		@ args = 0, pretend = 0, frame = 0
  38              		@ frame_needed = 0, uses_anonymous_args = 0
  30:Lib/lib_vision_models_pp/lib_vision_models_pp/Src/od_pp_yolov8.c ****   od_pp_outBuffer_t a = *(od_pp_outBuffer_t *)pa;
  39              		.loc 1 30 3 view .LVU1
  31:Lib/lib_vision_models_pp/lib_vision_models_pp/Src/od_pp_yolov8.c ****   od_pp_outBuffer_t b = *(od_pp_outBuffer_t *)pb;
  40              		.loc 1 31 3 view .LVU2
  32:Lib/lib_vision_models_pp/lib_vision_models_pp/Src/od_pp_yolov8.c **** 
  33:Lib/lib_vision_models_pp/lib_vision_models_pp/Src/od_pp_yolov8.c ****   float32_t diff = 0.0;
  34:Lib/lib_vision_models_pp/lib_vision_models_pp/Src/od_pp_yolov8.c ****   float32_t a_weighted_conf = 0.0;
  35:Lib/lib_vision_models_pp/lib_vision_models_pp/Src/od_pp_yolov8.c ****   float32_t b_weighted_conf = 0.0;
  36:Lib/lib_vision_models_pp/lib_vision_models_pp/Src/od_pp_yolov8.c **** 
  37:Lib/lib_vision_models_pp/lib_vision_models_pp/Src/od_pp_yolov8.c ****   if (a.class_index == AI_YOLOV8_PP_SORT_CLASS)
  41              		.loc 1 37 21 is_stmt 0 view .LVU3
  42 0000 0F4B     		ldr	r3, .L8
  29:Lib/lib_vision_models_pp/lib_vision_models_pp/Src/od_pp_yolov8.c ****   od_pp_outBuffer_t a = *(od_pp_outBuffer_t *)pa;
  43              		.loc 1 29 1 view .LVU4
  44 0002 10B5     		push	{r4, lr}
  45              		.cfi_def_cfa_offset 8
  46              		.cfi_offset 4, -8
  47              		.cfi_offset 14, -4
  48              		.loc 1 37 21 view .LVU5
  49 0004 1B68     		ldr	r3, [r3]
  50              		.loc 1 37 6 view .LVU6
  51 0006 4469     		ldr	r4, [r0, #20]
  31:Lib/lib_vision_models_pp/lib_vision_models_pp/Src/od_pp_yolov8.c ****   od_pp_outBuffer_t b = *(od_pp_outBuffer_t *)pb;
  52              		.loc 1 31 21 view .LVU7
  53 0008 4A69     		ldr	r2, [r1, #20]
  54              	.LVL1:
  33:Lib/lib_vision_models_pp/lib_vision_models_pp/Src/od_pp_yolov8.c ****   float32_t a_weighted_conf = 0.0;
  55              		.loc 1 33 3 is_stmt 1 view .LVU8
  34:Lib/lib_vision_models_pp/lib_vision_models_pp/Src/od_pp_yolov8.c ****   float32_t b_weighted_conf = 0.0;
  56              		.loc 1 34 3 view .LVU9
  35:Lib/lib_vision_models_pp/lib_vision_models_pp/Src/od_pp_yolov8.c **** 
  57              		.loc 1 35 3 view .LVU10
  58              		.loc 1 37 3 view .LVU11
  59              		.loc 1 37 6 is_stmt 0 view .LVU12
  60 000a A342     		cmp	r3, r4
  30:Lib/lib_vision_models_pp/lib_vision_models_pp/Src/od_pp_yolov8.c ****   od_pp_outBuffer_t b = *(od_pp_outBuffer_t *)pb;
  61              		.loc 1 30 21 view .LVU13
  62 000c 0CBF     		ite	eq
  63 000e D0ED047A 		vldreq.32	s15, [r0, #16]
  38:Lib/lib_vision_models_pp/lib_vision_models_pp/Src/od_pp_yolov8.c ****   {
  39:Lib/lib_vision_models_pp/lib_vision_models_pp/Src/od_pp_yolov8.c ****     a_weighted_conf = a.conf;
  64              		.loc 1 39 5 is_stmt 1 view .LVU14
  65              	.LVL2:
  40:Lib/lib_vision_models_pp/lib_vision_models_pp/Src/od_pp_yolov8.c ****   }
  41:Lib/lib_vision_models_pp/lib_vision_models_pp/Src/od_pp_yolov8.c ****   else
  42:Lib/lib_vision_models_pp/lib_vision_models_pp/Src/od_pp_yolov8.c ****   {
  43:Lib/lib_vision_models_pp/lib_vision_models_pp/Src/od_pp_yolov8.c ****     a_weighted_conf = 0.0;
  66              		.loc 1 43 21 is_stmt 0 view .LVU15
ARM GAS  /tmp/cc3HBV3p.s 			page 3


  67 0012 DFED0C7A 		vldrne.32	s15, .L8+4
  68              	.LVL3:
  44:Lib/lib_vision_models_pp/lib_vision_models_pp/Src/od_pp_yolov8.c ****   }
  45:Lib/lib_vision_models_pp/lib_vision_models_pp/Src/od_pp_yolov8.c **** 
  46:Lib/lib_vision_models_pp/lib_vision_models_pp/Src/od_pp_yolov8.c ****   if (b.class_index == AI_YOLOV8_PP_SORT_CLASS)
  69              		.loc 1 46 3 is_stmt 1 view .LVU16
  70              		.loc 1 46 6 is_stmt 0 view .LVU17
  71 0016 9342     		cmp	r3, r2
  31:Lib/lib_vision_models_pp/lib_vision_models_pp/Src/od_pp_yolov8.c **** 
  72              		.loc 1 31 21 view .LVU18
  73 0018 0CBF     		ite	eq
  74 001a 91ED047A 		vldreq.32	s14, [r1, #16]
  47:Lib/lib_vision_models_pp/lib_vision_models_pp/Src/od_pp_yolov8.c ****   {
  48:Lib/lib_vision_models_pp/lib_vision_models_pp/Src/od_pp_yolov8.c ****     b_weighted_conf = b.conf;
  75              		.loc 1 48 5 is_stmt 1 view .LVU19
  76              	.LVL4:
  49:Lib/lib_vision_models_pp/lib_vision_models_pp/Src/od_pp_yolov8.c ****   }
  50:Lib/lib_vision_models_pp/lib_vision_models_pp/Src/od_pp_yolov8.c ****   else
  51:Lib/lib_vision_models_pp/lib_vision_models_pp/Src/od_pp_yolov8.c ****   {
  52:Lib/lib_vision_models_pp/lib_vision_models_pp/Src/od_pp_yolov8.c ****     b_weighted_conf = 0.0;
  77              		.loc 1 52 21 is_stmt 0 view .LVU20
  78 001e 9FED097A 		vldrne.32	s14, .L8+4
  79              	.LVL5:
  53:Lib/lib_vision_models_pp/lib_vision_models_pp/Src/od_pp_yolov8.c ****   }
  54:Lib/lib_vision_models_pp/lib_vision_models_pp/Src/od_pp_yolov8.c **** 
  55:Lib/lib_vision_models_pp/lib_vision_models_pp/Src/od_pp_yolov8.c ****   diff = a_weighted_conf - b_weighted_conf;
  80              		.loc 1 55 3 is_stmt 1 view .LVU21
  81              		.loc 1 55 8 is_stmt 0 view .LVU22
  82 0022 77EEC77A 		vsub.f32	s15, s15, s14
  83              	.LVL6:
  56:Lib/lib_vision_models_pp/lib_vision_models_pp/Src/od_pp_yolov8.c **** 
  57:Lib/lib_vision_models_pp/lib_vision_models_pp/Src/od_pp_yolov8.c ****   if (diff < 0) return 1;
  84              		.loc 1 57 3 is_stmt 1 view .LVU23
  85              		.loc 1 57 6 is_stmt 0 view .LVU24
  86 0026 F5EEC07A 		vcmpe.f32	s15, #0
  87 002a F1EE10FA 		vmrs	APSR_nzcv, FPSCR
  88 002e 04D4     		bmi	.L7
  89              	.LVL7:
  58:Lib/lib_vision_models_pp/lib_vision_models_pp/Src/od_pp_yolov8.c ****   else if (diff > 0) return -1;
  90              		.loc 1 58 8 is_stmt 1 view .LVU25
  91              		.loc 1 58 11 is_stmt 0 view .LVU26
  92 0030 CCBF     		ite	gt
  93 0032 4FF0FF30 		movgt	r0, #-1
  94              	.LVL8:
  95              		.loc 1 58 11 view .LVU27
  96 0036 0020     		movle	r0, #0
  97              	.LVL9:
  98              	.L1:
  59:Lib/lib_vision_models_pp/lib_vision_models_pp/Src/od_pp_yolov8.c ****   return 0;
  60:Lib/lib_vision_models_pp/lib_vision_models_pp/Src/od_pp_yolov8.c **** }
  99              		.loc 1 60 1 view .LVU28
 100 0038 10BD     		pop	{r4, pc}
 101              	.LVL10:
 102              	.L7:
  57:Lib/lib_vision_models_pp/lib_vision_models_pp/Src/od_pp_yolov8.c ****   else if (diff > 0) return -1;
 103              		.loc 1 57 24 discriminator 1 view .LVU29
 104 003a 0120     		movs	r0, #1
ARM GAS  /tmp/cc3HBV3p.s 			page 4


 105              	.LVL11:
  57:Lib/lib_vision_models_pp/lib_vision_models_pp/Src/od_pp_yolov8.c ****   else if (diff > 0) return -1;
 106              		.loc 1 57 24 discriminator 1 view .LVU30
 107 003c FCE7     		b	.L1
 108              	.L9:
 109 003e 00BF     		.align	2
 110              	.L8:
 111 0040 00000000 		.word	AI_YOLOV8_PP_SORT_CLASS
 112 0044 00000000 		.word	0
 113              		.cfi_endproc
 114              	.LFE2645:
 116              		.section	.text.yolov8_nms_comparator_is8,"ax",%progbits
 117              		.align	1
 118              		.global	yolov8_nms_comparator_is8
 119              		.syntax unified
 120              		.thumb
 121              		.thumb_func
 123              	yolov8_nms_comparator_is8:
 124              	.LVL12:
 125              	.LFB2646:
  61:Lib/lib_vision_models_pp/lib_vision_models_pp/Src/od_pp_yolov8.c **** 
  62:Lib/lib_vision_models_pp/lib_vision_models_pp/Src/od_pp_yolov8.c **** int32_t yolov8_nms_comparator_is8(const void *pa, const void *pb)
  63:Lib/lib_vision_models_pp/lib_vision_models_pp/Src/od_pp_yolov8.c **** {
 126              		.loc 1 63 1 is_stmt 1 view -0
 127              		.cfi_startproc
 128              		@ args = 0, pretend = 0, frame = 0
 129              		@ frame_needed = 0, uses_anonymous_args = 0
  64:Lib/lib_vision_models_pp/lib_vision_models_pp/Src/od_pp_yolov8.c ****   od_yolov8_pp_scratch_s8_t a = *(od_yolov8_pp_scratch_s8_t *)pa;
 130              		.loc 1 64 3 view .LVU32
  65:Lib/lib_vision_models_pp/lib_vision_models_pp/Src/od_pp_yolov8.c ****   od_yolov8_pp_scratch_s8_t b = *(od_yolov8_pp_scratch_s8_t *)pb;
 131              		.loc 1 65 3 view .LVU33
  63:Lib/lib_vision_models_pp/lib_vision_models_pp/Src/od_pp_yolov8.c ****   od_yolov8_pp_scratch_s8_t a = *(od_yolov8_pp_scratch_s8_t *)pa;
 132              		.loc 1 63 1 is_stmt 0 view .LVU34
 133 0000 10B5     		push	{r4, lr}
 134              		.cfi_def_cfa_offset 8
 135              		.cfi_offset 4, -8
 136              		.cfi_offset 14, -4
  66:Lib/lib_vision_models_pp/lib_vision_models_pp/Src/od_pp_yolov8.c **** 
  67:Lib/lib_vision_models_pp/lib_vision_models_pp/Src/od_pp_yolov8.c ****   int16_t diff = 0;
  68:Lib/lib_vision_models_pp/lib_vision_models_pp/Src/od_pp_yolov8.c ****   int8_t a_weighted_conf = INT8_MIN;
  69:Lib/lib_vision_models_pp/lib_vision_models_pp/Src/od_pp_yolov8.c ****   int8_t b_weighted_conf = INT8_MIN;
  70:Lib/lib_vision_models_pp/lib_vision_models_pp/Src/od_pp_yolov8.c **** 
  71:Lib/lib_vision_models_pp/lib_vision_models_pp/Src/od_pp_yolov8.c ****   if (a.class_index == AI_YOLOV8_PP_SORT_CLASS)
 137              		.loc 1 71 21 view .LVU35
 138 0002 0C4B     		ldr	r3, .L17
  65:Lib/lib_vision_models_pp/lib_vision_models_pp/Src/od_pp_yolov8.c **** 
 139              		.loc 1 65 29 view .LVU36
 140 0004 4C79     		ldrb	r4, [r1, #5]	@ zero_extendqisi2
 141              	.LVL13:
  67:Lib/lib_vision_models_pp/lib_vision_models_pp/Src/od_pp_yolov8.c ****   int8_t a_weighted_conf = INT8_MIN;
 142              		.loc 1 67 3 is_stmt 1 view .LVU37
  68:Lib/lib_vision_models_pp/lib_vision_models_pp/Src/od_pp_yolov8.c ****   int8_t b_weighted_conf = INT8_MIN;
 143              		.loc 1 68 3 view .LVU38
  69:Lib/lib_vision_models_pp/lib_vision_models_pp/Src/od_pp_yolov8.c **** 
 144              		.loc 1 69 3 view .LVU39
 145              		.loc 1 71 3 view .LVU40
 146              		.loc 1 71 21 is_stmt 0 view .LVU41
ARM GAS  /tmp/cc3HBV3p.s 			page 5


 147 0006 1A68     		ldr	r2, [r3]
 148              		.loc 1 71 8 view .LVU42
 149 0008 4379     		ldrb	r3, [r0, #5]	@ zero_extendqisi2
 150              		.loc 1 71 6 view .LVU43
 151 000a 9342     		cmp	r3, r2
  64:Lib/lib_vision_models_pp/lib_vision_models_pp/Src/od_pp_yolov8.c ****   od_yolov8_pp_scratch_s8_t b = *(od_yolov8_pp_scratch_s8_t *)pb;
 152              		.loc 1 64 29 view .LVU44
 153 000c 0CBF     		ite	eq
 154 000e 90F90430 		ldrsbeq	r3, [r0, #4]
  72:Lib/lib_vision_models_pp/lib_vision_models_pp/Src/od_pp_yolov8.c ****   {
  73:Lib/lib_vision_models_pp/lib_vision_models_pp/Src/od_pp_yolov8.c ****     a_weighted_conf = a.conf;
 155              		.loc 1 73 5 is_stmt 1 view .LVU45
 156              	.LVL14:
  74:Lib/lib_vision_models_pp/lib_vision_models_pp/Src/od_pp_yolov8.c ****   }
  75:Lib/lib_vision_models_pp/lib_vision_models_pp/Src/od_pp_yolov8.c ****   else
  76:Lib/lib_vision_models_pp/lib_vision_models_pp/Src/od_pp_yolov8.c ****   {
  77:Lib/lib_vision_models_pp/lib_vision_models_pp/Src/od_pp_yolov8.c ****     a_weighted_conf = INT8_MIN;
 157              		.loc 1 77 21 is_stmt 0 view .LVU46
 158 0012 6FF07F03 		mvnne	r3, #127
 159              	.LVL15:
  78:Lib/lib_vision_models_pp/lib_vision_models_pp/Src/od_pp_yolov8.c ****   }
  79:Lib/lib_vision_models_pp/lib_vision_models_pp/Src/od_pp_yolov8.c **** 
  80:Lib/lib_vision_models_pp/lib_vision_models_pp/Src/od_pp_yolov8.c ****   if (b.class_index == AI_YOLOV8_PP_SORT_CLASS)
 160              		.loc 1 80 3 is_stmt 1 view .LVU47
 161              		.loc 1 80 6 is_stmt 0 view .LVU48
 162 0016 A242     		cmp	r2, r4
  81:Lib/lib_vision_models_pp/lib_vision_models_pp/Src/od_pp_yolov8.c ****   {
  82:Lib/lib_vision_models_pp/lib_vision_models_pp/Src/od_pp_yolov8.c ****     b_weighted_conf = b.conf;
  83:Lib/lib_vision_models_pp/lib_vision_models_pp/Src/od_pp_yolov8.c ****   }
  84:Lib/lib_vision_models_pp/lib_vision_models_pp/Src/od_pp_yolov8.c ****   else
  85:Lib/lib_vision_models_pp/lib_vision_models_pp/Src/od_pp_yolov8.c ****   {
  86:Lib/lib_vision_models_pp/lib_vision_models_pp/Src/od_pp_yolov8.c ****     b_weighted_conf = INT8_MIN;
 163              		.loc 1 86 21 view .LVU49
 164 0018 14BF     		ite	ne
 165 001a 6FF07F02 		mvnne	r2, #127
  65:Lib/lib_vision_models_pp/lib_vision_models_pp/Src/od_pp_yolov8.c **** 
 166              		.loc 1 65 29 view .LVU50
 167 001e 91F90420 		ldrsbeq	r2, [r1, #4]
  82:Lib/lib_vision_models_pp/lib_vision_models_pp/Src/od_pp_yolov8.c ****   }
 168              		.loc 1 82 5 is_stmt 1 view .LVU51
 169              	.LVL16:
  87:Lib/lib_vision_models_pp/lib_vision_models_pp/Src/od_pp_yolov8.c ****   }
  88:Lib/lib_vision_models_pp/lib_vision_models_pp/Src/od_pp_yolov8.c **** 
  89:Lib/lib_vision_models_pp/lib_vision_models_pp/Src/od_pp_yolov8.c ****   diff = a_weighted_conf - b_weighted_conf;
 170              		.loc 1 89 3 view .LVU52
 171              		.loc 1 89 8 is_stmt 0 view .LVU53
 172 0022 9B1A     		subs	r3, r3, r2
 173              	.LVL17:
  90:Lib/lib_vision_models_pp/lib_vision_models_pp/Src/od_pp_yolov8.c **** 
  91:Lib/lib_vision_models_pp/lib_vision_models_pp/Src/od_pp_yolov8.c ****   if (diff < 0) return 1;
 174              		.loc 1 91 3 is_stmt 1 view .LVU54
 175              		.loc 1 91 6 is_stmt 0 view .LVU55
 176 0024 002B     		cmp	r3, #0
  92:Lib/lib_vision_models_pp/lib_vision_models_pp/Src/od_pp_yolov8.c ****   else if (diff > 0) return -1;
 177              		.loc 1 92 11 view .LVU56
 178 0026 14BF     		ite	ne
 179 0028 4FF0FF30 		movne	r0, #-1
ARM GAS  /tmp/cc3HBV3p.s 			page 6


 180              	.LVL18:
 181              		.loc 1 92 11 view .LVU57
 182 002c 0020     		moveq	r0, #0
  93:Lib/lib_vision_models_pp/lib_vision_models_pp/Src/od_pp_yolov8.c ****   return 0;
  94:Lib/lib_vision_models_pp/lib_vision_models_pp/Src/od_pp_yolov8.c **** }
 183              		.loc 1 94 1 view .LVU58
 184 002e B8BF     		it	lt
 185 0030 0120     		movlt	r0, #1
 186 0032 10BD     		pop	{r4, pc}
 187              	.LVL19:
 188              	.L18:
 189              		.loc 1 94 1 view .LVU59
 190              		.align	2
 191              	.L17:
 192 0034 00000000 		.word	AI_YOLOV8_PP_SORT_CLASS
 193              		.cfi_endproc
 194              	.LFE2646:
 196              		.section	.text.yolov8_pp_nmsFiltering_centroid,"ax",%progbits
 197              		.align	1
 198              		.global	yolov8_pp_nmsFiltering_centroid
 199              		.syntax unified
 200              		.thumb
 201              		.thumb_func
 203              	yolov8_pp_nmsFiltering_centroid:
 204              	.LVL20:
 205              	.LFB2647:
  95:Lib/lib_vision_models_pp/lib_vision_models_pp/Src/od_pp_yolov8.c **** 
  96:Lib/lib_vision_models_pp/lib_vision_models_pp/Src/od_pp_yolov8.c **** 
  97:Lib/lib_vision_models_pp/lib_vision_models_pp/Src/od_pp_yolov8.c **** int32_t yolov8_pp_nmsFiltering_centroid(od_pp_out_t *pOutput,
  98:Lib/lib_vision_models_pp/lib_vision_models_pp/Src/od_pp_yolov8.c ****                                         od_yolov8_pp_static_param_t *pInput_static_param)
  99:Lib/lib_vision_models_pp/lib_vision_models_pp/Src/od_pp_yolov8.c **** {
 206              		.loc 1 99 1 is_stmt 1 view -0
 207              		.cfi_startproc
 208              		@ args = 0, pretend = 0, frame = 8
 209              		@ frame_needed = 0, uses_anonymous_args = 0
 100:Lib/lib_vision_models_pp/lib_vision_models_pp/Src/od_pp_yolov8.c ****   int32_t j, k, limit_counter, detections_per_class;
 210              		.loc 1 100 3 view .LVU61
 101:Lib/lib_vision_models_pp/lib_vision_models_pp/Src/od_pp_yolov8.c **** 
 102:Lib/lib_vision_models_pp/lib_vision_models_pp/Src/od_pp_yolov8.c ****   for (k = 0; k < pInput_static_param->nb_classes; ++k)
 211              		.loc 1 102 3 view .LVU62
  99:Lib/lib_vision_models_pp/lib_vision_models_pp/Src/od_pp_yolov8.c ****   int32_t j, k, limit_counter, detections_per_class;
 212              		.loc 1 99 1 is_stmt 0 view .LVU63
 213 0000 2DE9F74F 		push	{r0, r1, r2, r4, r5, r6, r7, r8, r9, r10, fp, lr}
 214              		.cfi_def_cfa_offset 48
 215              		.cfi_offset 4, -36
 216              		.cfi_offset 5, -32
 217              		.cfi_offset 6, -28
 218              		.cfi_offset 7, -24
 219              		.cfi_offset 8, -20
 220              		.cfi_offset 9, -16
 221              		.cfi_offset 10, -12
 222              		.cfi_offset 11, -8
 223              		.cfi_offset 14, -4
  99:Lib/lib_vision_models_pp/lib_vision_models_pp/Src/od_pp_yolov8.c ****   int32_t j, k, limit_counter, detections_per_class;
 224              		.loc 1 99 1 view .LVU64
 225 0004 0546     		mov	r5, r0
 226 0006 0E46     		mov	r6, r1
ARM GAS  /tmp/cc3HBV3p.s 			page 7


 227              		.loc 1 102 10 view .LVU65
 228 0008 0027     		movs	r7, #0
 229              	.LBB2:
 230              	.LBB3:
 231              	.LBB4:
 103:Lib/lib_vision_models_pp/lib_vision_models_pp/Src/od_pp_yolov8.c ****   {
 104:Lib/lib_vision_models_pp/lib_vision_models_pp/Src/od_pp_yolov8.c ****     limit_counter = 0;
 105:Lib/lib_vision_models_pp/lib_vision_models_pp/Src/od_pp_yolov8.c ****     detections_per_class = 0;
 106:Lib/lib_vision_models_pp/lib_vision_models_pp/Src/od_pp_yolov8.c ****     AI_YOLOV8_PP_SORT_CLASS = k;
 107:Lib/lib_vision_models_pp/lib_vision_models_pp/Src/od_pp_yolov8.c **** 
 108:Lib/lib_vision_models_pp/lib_vision_models_pp/Src/od_pp_yolov8.c ****     /* Counts the number of detections with class k */
 109:Lib/lib_vision_models_pp/lib_vision_models_pp/Src/od_pp_yolov8.c ****     for (int32_t i = 0; i < pInput_static_param->nb_detect ; i ++)
 110:Lib/lib_vision_models_pp/lib_vision_models_pp/Src/od_pp_yolov8.c ****     {
 111:Lib/lib_vision_models_pp/lib_vision_models_pp/Src/od_pp_yolov8.c ****       if(pOutput->pOutBuff[i].class_index == k)
 112:Lib/lib_vision_models_pp/lib_vision_models_pp/Src/od_pp_yolov8.c ****       {
 113:Lib/lib_vision_models_pp/lib_vision_models_pp/Src/od_pp_yolov8.c ****           detections_per_class++;
 114:Lib/lib_vision_models_pp/lib_vision_models_pp/Src/od_pp_yolov8.c ****       }
 115:Lib/lib_vision_models_pp/lib_vision_models_pp/Src/od_pp_yolov8.c ****     }
 116:Lib/lib_vision_models_pp/lib_vision_models_pp/Src/od_pp_yolov8.c **** 
 117:Lib/lib_vision_models_pp/lib_vision_models_pp/Src/od_pp_yolov8.c ****     if (detections_per_class > 0)
 118:Lib/lib_vision_models_pp/lib_vision_models_pp/Src/od_pp_yolov8.c ****     {
 119:Lib/lib_vision_models_pp/lib_vision_models_pp/Src/od_pp_yolov8.c ****       /* Sorts detections based on class k */
 120:Lib/lib_vision_models_pp/lib_vision_models_pp/Src/od_pp_yolov8.c ****       qsort(pOutput->pOutBuff,
 121:Lib/lib_vision_models_pp/lib_vision_models_pp/Src/od_pp_yolov8.c ****             pInput_static_param->nb_detect,
 122:Lib/lib_vision_models_pp/lib_vision_models_pp/Src/od_pp_yolov8.c ****             sizeof(od_pp_outBuffer_t),
 123:Lib/lib_vision_models_pp/lib_vision_models_pp/Src/od_pp_yolov8.c ****             yolov8_nms_comparator);
 124:Lib/lib_vision_models_pp/lib_vision_models_pp/Src/od_pp_yolov8.c **** 
 125:Lib/lib_vision_models_pp/lib_vision_models_pp/Src/od_pp_yolov8.c ****       for (int32_t i = 0; i < detections_per_class ; i ++)
 126:Lib/lib_vision_models_pp/lib_vision_models_pp/Src/od_pp_yolov8.c ****       {
 127:Lib/lib_vision_models_pp/lib_vision_models_pp/Src/od_pp_yolov8.c ****         if (pOutput->pOutBuff[i].conf == 0) continue; // Already filtered
 128:Lib/lib_vision_models_pp/lib_vision_models_pp/Src/od_pp_yolov8.c ****         float32_t *a = &(pOutput->pOutBuff[i].x_center);
 129:Lib/lib_vision_models_pp/lib_vision_models_pp/Src/od_pp_yolov8.c ****         for (j = i + 1; j < detections_per_class; j ++)
 130:Lib/lib_vision_models_pp/lib_vision_models_pp/Src/od_pp_yolov8.c ****         {
 131:Lib/lib_vision_models_pp/lib_vision_models_pp/Src/od_pp_yolov8.c ****           if (pOutput->pOutBuff[j].conf == 0) continue; // Already filtered
 232              		.loc 1 131 14 view .LVU66
 233 000a 4FF00008 		mov	r8, #0
 234              	.LVL21:
 235              	.L20:
 236              		.loc 1 131 14 view .LVU67
 237              	.LBE4:
 238              	.LBE3:
 239              	.LBE2:
 102:Lib/lib_vision_models_pp/lib_vision_models_pp/Src/od_pp_yolov8.c ****   {
 240              		.loc 1 102 17 is_stmt 1 discriminator 1 view .LVU68
 241 000e 3368     		ldr	r3, [r6]
 242 0010 BB42     		cmp	r3, r7
 243 0012 03DC     		bgt	.L39
 132:Lib/lib_vision_models_pp/lib_vision_models_pp/Src/od_pp_yolov8.c ****           float32_t *b = &(pOutput->pOutBuff[j].x_center);
 133:Lib/lib_vision_models_pp/lib_vision_models_pp/Src/od_pp_yolov8.c ****           if (vision_models_box_iou(a, b) > pInput_static_param->iou_threshold)
 134:Lib/lib_vision_models_pp/lib_vision_models_pp/Src/od_pp_yolov8.c ****           {
 135:Lib/lib_vision_models_pp/lib_vision_models_pp/Src/od_pp_yolov8.c ****             pOutput->pOutBuff[j].conf = 0;
 136:Lib/lib_vision_models_pp/lib_vision_models_pp/Src/od_pp_yolov8.c ****           }
 137:Lib/lib_vision_models_pp/lib_vision_models_pp/Src/od_pp_yolov8.c ****         }
 138:Lib/lib_vision_models_pp/lib_vision_models_pp/Src/od_pp_yolov8.c ****       }
 139:Lib/lib_vision_models_pp/lib_vision_models_pp/Src/od_pp_yolov8.c **** 
 140:Lib/lib_vision_models_pp/lib_vision_models_pp/Src/od_pp_yolov8.c ****       /* Limits detections count */
 141:Lib/lib_vision_models_pp/lib_vision_models_pp/Src/od_pp_yolov8.c ****       for (int32_t i = 0; i < detections_per_class; i++)
ARM GAS  /tmp/cc3HBV3p.s 			page 8


 142:Lib/lib_vision_models_pp/lib_vision_models_pp/Src/od_pp_yolov8.c ****       {
 143:Lib/lib_vision_models_pp/lib_vision_models_pp/Src/od_pp_yolov8.c ****         if ((limit_counter < pInput_static_param->max_boxes_limit) &&
 144:Lib/lib_vision_models_pp/lib_vision_models_pp/Src/od_pp_yolov8.c ****             (pOutput->pOutBuff[i].conf != 0))
 145:Lib/lib_vision_models_pp/lib_vision_models_pp/Src/od_pp_yolov8.c ****         {
 146:Lib/lib_vision_models_pp/lib_vision_models_pp/Src/od_pp_yolov8.c ****           limit_counter++;
 147:Lib/lib_vision_models_pp/lib_vision_models_pp/Src/od_pp_yolov8.c ****         }
 148:Lib/lib_vision_models_pp/lib_vision_models_pp/Src/od_pp_yolov8.c ****         else
 149:Lib/lib_vision_models_pp/lib_vision_models_pp/Src/od_pp_yolov8.c ****         {
 150:Lib/lib_vision_models_pp/lib_vision_models_pp/Src/od_pp_yolov8.c ****           pOutput->pOutBuff[i].conf = 0;
 151:Lib/lib_vision_models_pp/lib_vision_models_pp/Src/od_pp_yolov8.c ****         }
 152:Lib/lib_vision_models_pp/lib_vision_models_pp/Src/od_pp_yolov8.c ****       } // for detection_per_class
 153:Lib/lib_vision_models_pp/lib_vision_models_pp/Src/od_pp_yolov8.c ****     } // if detection_per_class
 154:Lib/lib_vision_models_pp/lib_vision_models_pp/Src/od_pp_yolov8.c ****   } // for nb_classes
 155:Lib/lib_vision_models_pp/lib_vision_models_pp/Src/od_pp_yolov8.c ****   return (AI_OD_POSTPROCESS_ERROR_NO);
 244              		.loc 1 155 3 view .LVU69
 156:Lib/lib_vision_models_pp/lib_vision_models_pp/Src/od_pp_yolov8.c **** }
 245              		.loc 1 156 1 is_stmt 0 view .LVU70
 246 0014 0020     		movs	r0, #0
 247 0016 03B0     		add	sp, sp, #12
 248              		.cfi_remember_state
 249              		.cfi_def_cfa_offset 36
 250              		@ sp needed
 251 0018 BDE8F08F 		pop	{r4, r5, r6, r7, r8, r9, r10, fp, pc}
 252              	.LVL22:
 253              	.L39:
 254              		.cfi_restore_state
 104:Lib/lib_vision_models_pp/lib_vision_models_pp/Src/od_pp_yolov8.c ****     detections_per_class = 0;
 255              		.loc 1 104 5 is_stmt 1 view .LVU71
 105:Lib/lib_vision_models_pp/lib_vision_models_pp/Src/od_pp_yolov8.c ****     AI_YOLOV8_PP_SORT_CLASS = k;
 256              		.loc 1 105 5 view .LVU72
 106:Lib/lib_vision_models_pp/lib_vision_models_pp/Src/od_pp_yolov8.c **** 
 257              		.loc 1 106 5 view .LVU73
 258              	.LBB9:
 109:Lib/lib_vision_models_pp/lib_vision_models_pp/Src/od_pp_yolov8.c ****     {
 259              		.loc 1 109 18 is_stmt 0 view .LVU74
 260 001c 0022     		movs	r2, #0
 109:Lib/lib_vision_models_pp/lib_vision_models_pp/Src/od_pp_yolov8.c ****     {
 261              		.loc 1 109 48 discriminator 1 view .LVU75
 262 001e F169     		ldr	r1, [r6, #28]
 263              	.LBE9:
 106:Lib/lib_vision_models_pp/lib_vision_models_pp/Src/od_pp_yolov8.c **** 
 264              		.loc 1 106 29 view .LVU76
 265 0020 364B     		ldr	r3, .L45
 266 0022 9142     		cmp	r1, r2
 267 0024 1F60     		str	r7, [r3]
 109:Lib/lib_vision_models_pp/lib_vision_models_pp/Src/od_pp_yolov8.c ****     {
 268              		.loc 1 109 5 is_stmt 1 view .LVU77
 269              	.LBB10:
 109:Lib/lib_vision_models_pp/lib_vision_models_pp/Src/od_pp_yolov8.c ****     {
 270              		.loc 1 109 10 view .LVU78
 271              	.LVL23:
 109:Lib/lib_vision_models_pp/lib_vision_models_pp/Src/od_pp_yolov8.c ****     {
 272              		.loc 1 109 10 is_stmt 0 view .LVU79
 273              	.LBE10:
 105:Lib/lib_vision_models_pp/lib_vision_models_pp/Src/od_pp_yolov8.c ****     AI_YOLOV8_PP_SORT_CLASS = k;
 274              		.loc 1 105 26 view .LVU80
 275 0026 1446     		mov	r4, r2
ARM GAS  /tmp/cc3HBV3p.s 			page 9


 276 0028 01F10103 		add	r3, r1, #1
 277              	.LBB11:
 111:Lib/lib_vision_models_pp/lib_vision_models_pp/Src/od_pp_yolov8.c ****       {
 278              		.loc 1 111 30 view .LVU81
 279 002c 4FF0180C 		mov	ip, #24
 280 0030 B8BF     		it	lt
 281 0032 0123     		movlt	r3, #1
 282              	.LVL24:
 283              	.L21:
 109:Lib/lib_vision_models_pp/lib_vision_models_pp/Src/od_pp_yolov8.c ****     {
 284              		.loc 1 109 27 is_stmt 1 discriminator 1 view .LVU82
 285 0034 013B     		subs	r3, r3, #1
 286 0036 03D1     		bne	.L23
 287              	.LBE11:
 117:Lib/lib_vision_models_pp/lib_vision_models_pp/Src/od_pp_yolov8.c ****     {
 288              		.loc 1 117 5 view .LVU83
 117:Lib/lib_vision_models_pp/lib_vision_models_pp/Src/od_pp_yolov8.c ****     {
 289              		.loc 1 117 8 is_stmt 0 view .LVU84
 290 0038 002C     		cmp	r4, #0
 291 003a 0ADC     		bgt	.L24
 292              	.LVL25:
 293              	.L38:
 102:Lib/lib_vision_models_pp/lib_vision_models_pp/Src/od_pp_yolov8.c ****   {
 294              		.loc 1 102 52 is_stmt 1 discriminator 2 view .LVU85
 295 003c 0137     		adds	r7, r7, #1
 296              	.LVL26:
 102:Lib/lib_vision_models_pp/lib_vision_models_pp/Src/od_pp_yolov8.c ****   {
 297              		.loc 1 102 52 is_stmt 0 discriminator 2 view .LVU86
 298 003e E6E7     		b	.L20
 299              	.LVL27:
 300              	.L23:
 301              	.LBB12:
 111:Lib/lib_vision_models_pp/lib_vision_models_pp/Src/od_pp_yolov8.c ****       {
 302              		.loc 1 111 7 is_stmt 1 view .LVU87
 111:Lib/lib_vision_models_pp/lib_vision_models_pp/Src/od_pp_yolov8.c ****       {
 303              		.loc 1 111 30 is_stmt 0 view .LVU88
 304 0040 2868     		ldr	r0, [r5]
 305 0042 0CFB0200 		mla	r0, ip, r2, r0
 111:Lib/lib_vision_models_pp/lib_vision_models_pp/Src/od_pp_yolov8.c ****       {
 306              		.loc 1 111 9 view .LVU89
 307 0046 4069     		ldr	r0, [r0, #20]
 109:Lib/lib_vision_models_pp/lib_vision_models_pp/Src/od_pp_yolov8.c ****     {
 308              		.loc 1 109 64 discriminator 2 view .LVU90
 309 0048 0132     		adds	r2, r2, #1
 310              	.LVL28:
 113:Lib/lib_vision_models_pp/lib_vision_models_pp/Src/od_pp_yolov8.c ****       }
 311              		.loc 1 113 31 view .LVU91
 312 004a B842     		cmp	r0, r7
 313 004c 54EA1494 		cinc	r4, r4, eq
 314              	.LVL29:
 109:Lib/lib_vision_models_pp/lib_vision_models_pp/Src/od_pp_yolov8.c ****     {
 315              		.loc 1 109 64 is_stmt 1 discriminator 2 view .LVU92
 109:Lib/lib_vision_models_pp/lib_vision_models_pp/Src/od_pp_yolov8.c ****     {
 316              		.loc 1 109 64 is_stmt 0 discriminator 2 view .LVU93
 317 0050 F0E7     		b	.L21
 318              	.L24:
 109:Lib/lib_vision_models_pp/lib_vision_models_pp/Src/od_pp_yolov8.c ****     {
ARM GAS  /tmp/cc3HBV3p.s 			page 10


 319              		.loc 1 109 64 discriminator 2 view .LVU94
 320              	.LBE12:
 120:Lib/lib_vision_models_pp/lib_vision_models_pp/Src/od_pp_yolov8.c ****             pInput_static_param->nb_detect,
 321              		.loc 1 120 7 is_stmt 1 view .LVU95
 322 0052 1822     		movs	r2, #24
 323              	.LVL30:
 120:Lib/lib_vision_models_pp/lib_vision_models_pp/Src/od_pp_yolov8.c ****             pInput_static_param->nb_detect,
 324              		.loc 1 120 7 is_stmt 0 view .LVU96
 325 0054 2A4B     		ldr	r3, .L45+4
 326 0056 2868     		ldr	r0, [r5]
 327 0058 FFF7FEFF 		bl	qsort
 328              	.LVL31:
 125:Lib/lib_vision_models_pp/lib_vision_models_pp/Src/od_pp_yolov8.c ****       {
 329              		.loc 1 125 7 is_stmt 1 view .LVU97
 330              	.LBB13:
 125:Lib/lib_vision_models_pp/lib_vision_models_pp/Src/od_pp_yolov8.c ****       {
 331              		.loc 1 125 12 view .LVU98
 125:Lib/lib_vision_models_pp/lib_vision_models_pp/Src/od_pp_yolov8.c ****       {
 332              		.loc 1 125 29 discriminator 1 view .LVU99
 125:Lib/lib_vision_models_pp/lib_vision_models_pp/Src/od_pp_yolov8.c ****       {
 333              		.loc 1 125 20 is_stmt 0 view .LVU100
 334 005c 4FF00009 		mov	r9, #0
 335              	.LBB7:
 127:Lib/lib_vision_models_pp/lib_vision_models_pp/Src/od_pp_yolov8.c ****         float32_t *a = &(pOutput->pOutBuff[i].x_center);
 336              		.loc 1 127 30 view .LVU101
 337 0060 4FF0180B 		mov	fp, #24
 338              	.LVL32:
 339              	.L26:
 127:Lib/lib_vision_models_pp/lib_vision_models_pp/Src/od_pp_yolov8.c ****         float32_t *a = &(pOutput->pOutBuff[i].x_center);
 340              		.loc 1 127 9 is_stmt 1 view .LVU102
 127:Lib/lib_vision_models_pp/lib_vision_models_pp/Src/od_pp_yolov8.c ****         float32_t *a = &(pOutput->pOutBuff[i].x_center);
 341              		.loc 1 127 30 is_stmt 0 view .LVU103
 342 0064 2868     		ldr	r0, [r5]
 343 0066 0BFB0900 		mla	r0, fp, r9, r0
 127:Lib/lib_vision_models_pp/lib_vision_models_pp/Src/od_pp_yolov8.c ****         float32_t *a = &(pOutput->pOutBuff[i].x_center);
 344              		.loc 1 127 12 view .LVU104
 345 006a D0ED047A 		vldr.32	s15, [r0, #16]
 346 006e F5EE407A 		vcmp.f32	s15, #0
 347 0072 F1EE10FA 		vmrs	APSR_nzcv, FPSCR
 129:Lib/lib_vision_models_pp/lib_vision_models_pp/Src/od_pp_yolov8.c ****         {
 348              		.loc 1 129 16 view .LVU105
 349 0076 09F10109 		add	r9, r9, #1
 350              	.LVL33:
 127:Lib/lib_vision_models_pp/lib_vision_models_pp/Src/od_pp_yolov8.c ****         float32_t *a = &(pOutput->pOutBuff[i].x_center);
 351              		.loc 1 127 12 view .LVU106
 352 007a 19D1     		bne	.L25
 353              	.L34:
 354              	.LBE7:
 125:Lib/lib_vision_models_pp/lib_vision_models_pp/Src/od_pp_yolov8.c ****       {
 355              		.loc 1 125 56 is_stmt 1 discriminator 2 view .LVU107
 356              	.LVL34:
 125:Lib/lib_vision_models_pp/lib_vision_models_pp/Src/od_pp_yolov8.c ****       {
 357              		.loc 1 125 29 discriminator 1 view .LVU108
 358 007c 4C45     		cmp	r4, r9
 359 007e F1D1     		bne	.L26
 360              	.LBE13:
 361              	.LBB14:
ARM GAS  /tmp/cc3HBV3p.s 			page 11


 141:Lib/lib_vision_models_pp/lib_vision_models_pp/Src/od_pp_yolov8.c ****       {
 362              		.loc 1 141 20 is_stmt 0 view .LVU109
 363 0080 0023     		movs	r3, #0
 144:Lib/lib_vision_models_pp/lib_vision_models_pp/Src/od_pp_yolov8.c ****         {
 364              		.loc 1 144 31 view .LVU110
 365 0082 4FF0180E 		mov	lr, #24
 366              	.LBE14:
 104:Lib/lib_vision_models_pp/lib_vision_models_pp/Src/od_pp_yolov8.c ****     detections_per_class = 0;
 367              		.loc 1 104 19 view .LVU111
 368 0086 1A46     		mov	r2, r3
 369              	.LBB15:
 143:Lib/lib_vision_models_pp/lib_vision_models_pp/Src/od_pp_yolov8.c ****             (pOutput->pOutBuff[i].conf != 0))
 370              		.loc 1 143 49 view .LVU112
 371 0088 B068     		ldr	r0, [r6, #8]
 144:Lib/lib_vision_models_pp/lib_vision_models_pp/Src/od_pp_yolov8.c ****         {
 372              		.loc 1 144 21 view .LVU113
 373 008a D5F800C0 		ldr	ip, [r5]
 374              	.LVL35:
 375              	.L37:
 143:Lib/lib_vision_models_pp/lib_vision_models_pp/Src/od_pp_yolov8.c ****             (pOutput->pOutBuff[i].conf != 0))
 376              		.loc 1 143 9 is_stmt 1 view .LVU114
 143:Lib/lib_vision_models_pp/lib_vision_models_pp/Src/od_pp_yolov8.c ****             (pOutput->pOutBuff[i].conf != 0))
 377              		.loc 1 143 12 is_stmt 0 view .LVU115
 378 008e 9042     		cmp	r0, r2
 144:Lib/lib_vision_models_pp/lib_vision_models_pp/Src/od_pp_yolov8.c ****         {
 379              		.loc 1 144 31 view .LVU116
 380 0090 0EFB03C1 		mla	r1, lr, r3, ip
 143:Lib/lib_vision_models_pp/lib_vision_models_pp/Src/od_pp_yolov8.c ****             (pOutput->pOutBuff[i].conf != 0))
 381              		.loc 1 143 12 view .LVU117
 382 0094 2FDD     		ble	.L35
 143:Lib/lib_vision_models_pp/lib_vision_models_pp/Src/od_pp_yolov8.c ****             (pOutput->pOutBuff[i].conf != 0))
 383              		.loc 1 143 68 discriminator 1 view .LVU118
 384 0096 D1ED047A 		vldr.32	s15, [r1, #16]
 385 009a F5EE407A 		vcmp.f32	s15, #0
 386 009e F1EE10FA 		vmrs	APSR_nzcv, FPSCR
 387 00a2 28D0     		beq	.L35
 146:Lib/lib_vision_models_pp/lib_vision_models_pp/Src/od_pp_yolov8.c ****         }
 388              		.loc 1 146 11 is_stmt 1 view .LVU119
 146:Lib/lib_vision_models_pp/lib_vision_models_pp/Src/od_pp_yolov8.c ****         }
 389              		.loc 1 146 24 is_stmt 0 view .LVU120
 390 00a4 0132     		adds	r2, r2, #1
 391              	.LVL36:
 392              	.L36:
 141:Lib/lib_vision_models_pp/lib_vision_models_pp/Src/od_pp_yolov8.c ****       {
 393              		.loc 1 141 54 is_stmt 1 discriminator 2 view .LVU121
 141:Lib/lib_vision_models_pp/lib_vision_models_pp/Src/od_pp_yolov8.c ****       {
 394              		.loc 1 141 29 is_stmt 0 discriminator 1 view .LVU122
 395 00a6 013C     		subs	r4, r4, #1
 141:Lib/lib_vision_models_pp/lib_vision_models_pp/Src/od_pp_yolov8.c ****       {
 396              		.loc 1 141 54 discriminator 2 view .LVU123
 397 00a8 03F10103 		add	r3, r3, #1
 398              	.LVL37:
 141:Lib/lib_vision_models_pp/lib_vision_models_pp/Src/od_pp_yolov8.c ****       {
 399              		.loc 1 141 29 is_stmt 1 discriminator 1 view .LVU124
 400 00ac EFD1     		bne	.L37
 141:Lib/lib_vision_models_pp/lib_vision_models_pp/Src/od_pp_yolov8.c ****       {
 401              		.loc 1 141 29 is_stmt 0 discriminator 1 view .LVU125
ARM GAS  /tmp/cc3HBV3p.s 			page 12


 402 00ae C5E7     		b	.L38
 403              	.LVL38:
 404              	.L25:
 141:Lib/lib_vision_models_pp/lib_vision_models_pp/Src/od_pp_yolov8.c ****       {
 405              		.loc 1 141 29 discriminator 1 view .LVU126
 406              	.LBE15:
 407              	.LBB16:
 408              	.LBB8:
 128:Lib/lib_vision_models_pp/lib_vision_models_pp/Src/od_pp_yolov8.c ****         for (j = i + 1; j < detections_per_class; j ++)
 409              		.loc 1 128 9 is_stmt 1 view .LVU127
 129:Lib/lib_vision_models_pp/lib_vision_models_pp/Src/od_pp_yolov8.c ****         {
 410              		.loc 1 129 9 view .LVU128
 129:Lib/lib_vision_models_pp/lib_vision_models_pp/Src/od_pp_yolov8.c ****         {
 411              		.loc 1 129 16 is_stmt 0 view .LVU129
 412 00b0 CA46     		mov	r10, r9
 413              	.LVL39:
 414              	.L28:
 129:Lib/lib_vision_models_pp/lib_vision_models_pp/Src/od_pp_yolov8.c ****         {
 415              		.loc 1 129 27 is_stmt 1 discriminator 1 view .LVU130
 416 00b2 A245     		cmp	r10, r4
 417              	.LBB5:
 131:Lib/lib_vision_models_pp/lib_vision_models_pp/Src/od_pp_yolov8.c ****           float32_t *b = &(pOutput->pOutBuff[j].x_center);
 418              		.loc 1 131 22 is_stmt 0 view .LVU131
 419 00b4 2968     		ldr	r1, [r5]
 420              	.LBE5:
 129:Lib/lib_vision_models_pp/lib_vision_models_pp/Src/od_pp_yolov8.c ****         {
 421              		.loc 1 129 27 discriminator 1 view .LVU132
 422 00b6 E1DA     		bge	.L34
 423              	.LBB6:
 131:Lib/lib_vision_models_pp/lib_vision_models_pp/Src/od_pp_yolov8.c ****           float32_t *b = &(pOutput->pOutBuff[j].x_center);
 424              		.loc 1 131 11 is_stmt 1 view .LVU133
 425 00b8 0BFB0AF3 		mul	r3, fp, r10
 131:Lib/lib_vision_models_pp/lib_vision_models_pp/Src/od_pp_yolov8.c ****           float32_t *b = &(pOutput->pOutBuff[j].x_center);
 426              		.loc 1 131 32 is_stmt 0 view .LVU134
 427 00bc 1944     		add	r1, r1, r3
 131:Lib/lib_vision_models_pp/lib_vision_models_pp/Src/od_pp_yolov8.c ****           float32_t *b = &(pOutput->pOutBuff[j].x_center);
 428              		.loc 1 131 14 view .LVU135
 429 00be D1ED047A 		vldr.32	s15, [r1, #16]
 430 00c2 F5EE407A 		vcmp.f32	s15, #0
 431 00c6 F1EE10FA 		vmrs	APSR_nzcv, FPSCR
 131:Lib/lib_vision_models_pp/lib_vision_models_pp/Src/od_pp_yolov8.c ****           float32_t *b = &(pOutput->pOutBuff[j].x_center);
 432              		.loc 1 131 32 view .LVU136
 433 00ca 0193     		str	r3, [sp, #4]
 131:Lib/lib_vision_models_pp/lib_vision_models_pp/Src/od_pp_yolov8.c ****           float32_t *b = &(pOutput->pOutBuff[j].x_center);
 434              		.loc 1 131 14 view .LVU137
 435 00cc 10D0     		beq	.L30
 132:Lib/lib_vision_models_pp/lib_vision_models_pp/Src/od_pp_yolov8.c ****           if (vision_models_box_iou(a, b) > pInput_static_param->iou_threshold)
 436              		.loc 1 132 11 is_stmt 1 view .LVU138
 437              	.LVL40:
 133:Lib/lib_vision_models_pp/lib_vision_models_pp/Src/od_pp_yolov8.c ****           {
 438              		.loc 1 133 11 view .LVU139
 133:Lib/lib_vision_models_pp/lib_vision_models_pp/Src/od_pp_yolov8.c ****           {
 439              		.loc 1 133 15 is_stmt 0 view .LVU140
 440 00ce 0090     		str	r0, [sp]
 441 00d0 FFF7FEFF 		bl	vision_models_box_iou
 442              	.LVL41:
 133:Lib/lib_vision_models_pp/lib_vision_models_pp/Src/od_pp_yolov8.c ****           {
ARM GAS  /tmp/cc3HBV3p.s 			page 13


 443              		.loc 1 133 14 discriminator 1 view .LVU141
 444 00d4 D6ED047A 		vldr.32	s15, [r6, #16]
 445 00d8 B4EEE70A 		vcmpe.f32	s0, s15
 446 00dc F1EE10FA 		vmrs	APSR_nzcv, FPSCR
 135:Lib/lib_vision_models_pp/lib_vision_models_pp/Src/od_pp_yolov8.c ****           }
 447              		.loc 1 135 39 view .LVU142
 448 00e0 C4BF     		itt	gt
 449 00e2 2A68     		ldrgt	r2, [r5]
 450 00e4 019B     		ldrgt	r3, [sp, #4]
 133:Lib/lib_vision_models_pp/lib_vision_models_pp/Src/od_pp_yolov8.c ****           {
 451              		.loc 1 133 14 discriminator 1 view .LVU143
 452 00e6 0098     		ldr	r0, [sp]
 135:Lib/lib_vision_models_pp/lib_vision_models_pp/Src/od_pp_yolov8.c ****           }
 453              		.loc 1 135 13 is_stmt 1 view .LVU144
 135:Lib/lib_vision_models_pp/lib_vision_models_pp/Src/od_pp_yolov8.c ****           }
 454              		.loc 1 135 39 is_stmt 0 view .LVU145
 455 00e8 C4BF     		itt	gt
 456 00ea D218     		addgt	r2, r2, r3
 457 00ec C2F81080 		strgt	r8, [r2, #16]	@ float
 458              	.LVL42:
 459              	.L30:
 135:Lib/lib_vision_models_pp/lib_vision_models_pp/Src/od_pp_yolov8.c ****           }
 460              		.loc 1 135 39 view .LVU146
 461              	.LBE6:
 129:Lib/lib_vision_models_pp/lib_vision_models_pp/Src/od_pp_yolov8.c ****         {
 462              		.loc 1 129 53 is_stmt 1 discriminator 2 view .LVU147
 463 00f0 0AF1010A 		add	r10, r10, #1
 464              	.LVL43:
 129:Lib/lib_vision_models_pp/lib_vision_models_pp/Src/od_pp_yolov8.c ****         {
 465              		.loc 1 129 53 is_stmt 0 discriminator 2 view .LVU148
 466 00f4 DDE7     		b	.L28
 467              	.LVL44:
 468              	.L35:
 129:Lib/lib_vision_models_pp/lib_vision_models_pp/Src/od_pp_yolov8.c ****         {
 469              		.loc 1 129 53 discriminator 2 view .LVU149
 470              	.LBE8:
 471              	.LBE16:
 472              	.LBB17:
 150:Lib/lib_vision_models_pp/lib_vision_models_pp/Src/od_pp_yolov8.c ****         }
 473              		.loc 1 150 11 is_stmt 1 view .LVU150
 150:Lib/lib_vision_models_pp/lib_vision_models_pp/Src/od_pp_yolov8.c ****         }
 474              		.loc 1 150 37 is_stmt 0 view .LVU151
 475 00f6 C1F81080 		str	r8, [r1, #16]	@ float
 476 00fa D4E7     		b	.L36
 477              	.L46:
 478              		.align	2
 479              	.L45:
 480 00fc 00000000 		.word	AI_YOLOV8_PP_SORT_CLASS
 481 0100 00000000 		.word	yolov8_nms_comparator
 482              	.LBE17:
 483              		.cfi_endproc
 484              	.LFE2647:
 486              		.section	.text.yolov8_pp_nmsFiltering_centroid_is8,"ax",%progbits
 487              		.align	1
 488              		.global	yolov8_pp_nmsFiltering_centroid_is8
 489              		.syntax unified
 490              		.thumb
ARM GAS  /tmp/cc3HBV3p.s 			page 14


 491              		.thumb_func
 493              	yolov8_pp_nmsFiltering_centroid_is8:
 494              	.LVL45:
 495              	.LFB2648:
 157:Lib/lib_vision_models_pp/lib_vision_models_pp/Src/od_pp_yolov8.c **** 
 158:Lib/lib_vision_models_pp/lib_vision_models_pp/Src/od_pp_yolov8.c **** int32_t yolov8_pp_nmsFiltering_centroid_is8(od_yolov8_pp_scratch_s8_t *ptrScratch,
 159:Lib/lib_vision_models_pp/lib_vision_models_pp/Src/od_pp_yolov8.c ****                                             od_yolov8_pp_static_param_t *pInput_static_param)
 160:Lib/lib_vision_models_pp/lib_vision_models_pp/Src/od_pp_yolov8.c **** {
 496              		.loc 1 160 1 is_stmt 1 view -0
 497              		.cfi_startproc
 498              		@ args = 0, pretend = 0, frame = 8
 499              		@ frame_needed = 0, uses_anonymous_args = 0
 161:Lib/lib_vision_models_pp/lib_vision_models_pp/Src/od_pp_yolov8.c ****   int32_t j, k, limit_counter, detections_per_class;
 500              		.loc 1 161 3 view .LVU153
 162:Lib/lib_vision_models_pp/lib_vision_models_pp/Src/od_pp_yolov8.c **** 
 163:Lib/lib_vision_models_pp/lib_vision_models_pp/Src/od_pp_yolov8.c ****   for (k = 0; k < pInput_static_param->nb_classes; ++k)
 501              		.loc 1 163 3 view .LVU154
 160:Lib/lib_vision_models_pp/lib_vision_models_pp/Src/od_pp_yolov8.c ****   int32_t j, k, limit_counter, detections_per_class;
 502              		.loc 1 160 1 is_stmt 0 view .LVU155
 503 0000 2DE9F74F 		push	{r0, r1, r2, r4, r5, r6, r7, r8, r9, r10, fp, lr}
 504              		.cfi_def_cfa_offset 48
 505              		.cfi_offset 4, -36
 506              		.cfi_offset 5, -32
 507              		.cfi_offset 6, -28
 508              		.cfi_offset 7, -24
 509              		.cfi_offset 8, -20
 510              		.cfi_offset 9, -16
 511              		.cfi_offset 10, -12
 512              		.cfi_offset 11, -8
 513              		.cfi_offset 14, -4
 160:Lib/lib_vision_models_pp/lib_vision_models_pp/Src/od_pp_yolov8.c ****   int32_t j, k, limit_counter, detections_per_class;
 514              		.loc 1 160 1 view .LVU156
 515 0004 0546     		mov	r5, r0
 516 0006 0E46     		mov	r6, r1
 517              		.loc 1 163 10 view .LVU157
 518 0008 0027     		movs	r7, #0
 519              	.LVL46:
 520              	.L48:
 521              		.loc 1 163 17 is_stmt 1 discriminator 1 view .LVU158
 522 000a 3368     		ldr	r3, [r6]
 523 000c BB42     		cmp	r3, r7
 524 000e 03DC     		bgt	.L66
 164:Lib/lib_vision_models_pp/lib_vision_models_pp/Src/od_pp_yolov8.c ****   {
 165:Lib/lib_vision_models_pp/lib_vision_models_pp/Src/od_pp_yolov8.c ****     limit_counter = 0;
 166:Lib/lib_vision_models_pp/lib_vision_models_pp/Src/od_pp_yolov8.c ****     detections_per_class = 0;
 167:Lib/lib_vision_models_pp/lib_vision_models_pp/Src/od_pp_yolov8.c ****     AI_YOLOV8_PP_SORT_CLASS = k;
 168:Lib/lib_vision_models_pp/lib_vision_models_pp/Src/od_pp_yolov8.c **** 
 169:Lib/lib_vision_models_pp/lib_vision_models_pp/Src/od_pp_yolov8.c ****     /* Counts the number of detections with class k */
 170:Lib/lib_vision_models_pp/lib_vision_models_pp/Src/od_pp_yolov8.c ****     for (int32_t i = 0; i < pInput_static_param->nb_detect ; i ++)
 171:Lib/lib_vision_models_pp/lib_vision_models_pp/Src/od_pp_yolov8.c ****     {
 172:Lib/lib_vision_models_pp/lib_vision_models_pp/Src/od_pp_yolov8.c ****       if(ptrScratch[i].class_index == k)
 173:Lib/lib_vision_models_pp/lib_vision_models_pp/Src/od_pp_yolov8.c ****       {
 174:Lib/lib_vision_models_pp/lib_vision_models_pp/Src/od_pp_yolov8.c ****         detections_per_class++;
 175:Lib/lib_vision_models_pp/lib_vision_models_pp/Src/od_pp_yolov8.c ****       }
 176:Lib/lib_vision_models_pp/lib_vision_models_pp/Src/od_pp_yolov8.c ****     }
 177:Lib/lib_vision_models_pp/lib_vision_models_pp/Src/od_pp_yolov8.c **** 
 178:Lib/lib_vision_models_pp/lib_vision_models_pp/Src/od_pp_yolov8.c ****     if (detections_per_class > 0)
ARM GAS  /tmp/cc3HBV3p.s 			page 15


 179:Lib/lib_vision_models_pp/lib_vision_models_pp/Src/od_pp_yolov8.c ****     {
 180:Lib/lib_vision_models_pp/lib_vision_models_pp/Src/od_pp_yolov8.c ****       /* Sorts detections based on class k */
 181:Lib/lib_vision_models_pp/lib_vision_models_pp/Src/od_pp_yolov8.c ****       qsort(ptrScratch,
 182:Lib/lib_vision_models_pp/lib_vision_models_pp/Src/od_pp_yolov8.c ****             pInput_static_param->nb_detect,
 183:Lib/lib_vision_models_pp/lib_vision_models_pp/Src/od_pp_yolov8.c ****             sizeof(od_yolov8_pp_scratch_s8_t),
 184:Lib/lib_vision_models_pp/lib_vision_models_pp/Src/od_pp_yolov8.c ****             yolov8_nms_comparator_is8);
 185:Lib/lib_vision_models_pp/lib_vision_models_pp/Src/od_pp_yolov8.c **** 
 186:Lib/lib_vision_models_pp/lib_vision_models_pp/Src/od_pp_yolov8.c ****       for (int32_t i = 0; i < detections_per_class ; i ++)
 187:Lib/lib_vision_models_pp/lib_vision_models_pp/Src/od_pp_yolov8.c ****       {
 188:Lib/lib_vision_models_pp/lib_vision_models_pp/Src/od_pp_yolov8.c ****         if (ptrScratch[i].conf == INT8_MIN) continue; // Already filtered
 189:Lib/lib_vision_models_pp/lib_vision_models_pp/Src/od_pp_yolov8.c ****         int8_t *a = &(ptrScratch[i].x_center);
 190:Lib/lib_vision_models_pp/lib_vision_models_pp/Src/od_pp_yolov8.c ****         for (j = i + 1; j < detections_per_class; j ++)
 191:Lib/lib_vision_models_pp/lib_vision_models_pp/Src/od_pp_yolov8.c ****         {
 192:Lib/lib_vision_models_pp/lib_vision_models_pp/Src/od_pp_yolov8.c ****           if (ptrScratch[j].conf == INT8_MIN) continue; // Already filtered
 193:Lib/lib_vision_models_pp/lib_vision_models_pp/Src/od_pp_yolov8.c ****           int8_t *b = &(ptrScratch[j].x_center);
 194:Lib/lib_vision_models_pp/lib_vision_models_pp/Src/od_pp_yolov8.c ****           if (vision_models_box_iou_is8(a, b, pInput_static_param->raw_output_zero_point) > pInput_
 195:Lib/lib_vision_models_pp/lib_vision_models_pp/Src/od_pp_yolov8.c ****           {
 196:Lib/lib_vision_models_pp/lib_vision_models_pp/Src/od_pp_yolov8.c ****             ptrScratch[j].conf = INT8_MIN;
 197:Lib/lib_vision_models_pp/lib_vision_models_pp/Src/od_pp_yolov8.c ****           }
 198:Lib/lib_vision_models_pp/lib_vision_models_pp/Src/od_pp_yolov8.c ****         }
 199:Lib/lib_vision_models_pp/lib_vision_models_pp/Src/od_pp_yolov8.c ****       }
 200:Lib/lib_vision_models_pp/lib_vision_models_pp/Src/od_pp_yolov8.c **** 
 201:Lib/lib_vision_models_pp/lib_vision_models_pp/Src/od_pp_yolov8.c ****       /* Limits detections count */
 202:Lib/lib_vision_models_pp/lib_vision_models_pp/Src/od_pp_yolov8.c ****       for (int32_t i = 0; i < detections_per_class; i++)
 203:Lib/lib_vision_models_pp/lib_vision_models_pp/Src/od_pp_yolov8.c ****       {
 204:Lib/lib_vision_models_pp/lib_vision_models_pp/Src/od_pp_yolov8.c ****         if ((limit_counter < pInput_static_param->max_boxes_limit) &&
 205:Lib/lib_vision_models_pp/lib_vision_models_pp/Src/od_pp_yolov8.c ****             (ptrScratch[i].conf != INT8_MIN))
 206:Lib/lib_vision_models_pp/lib_vision_models_pp/Src/od_pp_yolov8.c ****         {
 207:Lib/lib_vision_models_pp/lib_vision_models_pp/Src/od_pp_yolov8.c ****           limit_counter++;
 208:Lib/lib_vision_models_pp/lib_vision_models_pp/Src/od_pp_yolov8.c ****         }
 209:Lib/lib_vision_models_pp/lib_vision_models_pp/Src/od_pp_yolov8.c ****         else
 210:Lib/lib_vision_models_pp/lib_vision_models_pp/Src/od_pp_yolov8.c ****         {
 211:Lib/lib_vision_models_pp/lib_vision_models_pp/Src/od_pp_yolov8.c ****           ptrScratch[i].conf = INT8_MIN;
 212:Lib/lib_vision_models_pp/lib_vision_models_pp/Src/od_pp_yolov8.c ****         }
 213:Lib/lib_vision_models_pp/lib_vision_models_pp/Src/od_pp_yolov8.c ****       } // for detection_per_class
 214:Lib/lib_vision_models_pp/lib_vision_models_pp/Src/od_pp_yolov8.c ****     } // if detection_per_class
 215:Lib/lib_vision_models_pp/lib_vision_models_pp/Src/od_pp_yolov8.c ****   } // for nb_classes
 216:Lib/lib_vision_models_pp/lib_vision_models_pp/Src/od_pp_yolov8.c ****   return (AI_OD_POSTPROCESS_ERROR_NO);
 525              		.loc 1 216 3 view .LVU159
 217:Lib/lib_vision_models_pp/lib_vision_models_pp/Src/od_pp_yolov8.c **** }
 526              		.loc 1 217 1 is_stmt 0 view .LVU160
 527 0010 0020     		movs	r0, #0
 528 0012 03B0     		add	sp, sp, #12
 529              		.cfi_remember_state
 530              		.cfi_def_cfa_offset 36
 531              		@ sp needed
 532 0014 BDE8F08F 		pop	{r4, r5, r6, r7, r8, r9, r10, fp, pc}
 533              	.LVL47:
 534              	.L66:
 535              		.cfi_restore_state
 165:Lib/lib_vision_models_pp/lib_vision_models_pp/Src/od_pp_yolov8.c ****     detections_per_class = 0;
 536              		.loc 1 165 5 is_stmt 1 view .LVU161
 166:Lib/lib_vision_models_pp/lib_vision_models_pp/Src/od_pp_yolov8.c ****     AI_YOLOV8_PP_SORT_CLASS = k;
 537              		.loc 1 166 5 view .LVU162
 167:Lib/lib_vision_models_pp/lib_vision_models_pp/Src/od_pp_yolov8.c **** 
 538              		.loc 1 167 5 view .LVU163
 539              	.LBB18:
ARM GAS  /tmp/cc3HBV3p.s 			page 16


 170:Lib/lib_vision_models_pp/lib_vision_models_pp/Src/od_pp_yolov8.c ****     {
 540              		.loc 1 170 18 is_stmt 0 view .LVU164
 541 0018 0022     		movs	r2, #0
 170:Lib/lib_vision_models_pp/lib_vision_models_pp/Src/od_pp_yolov8.c ****     {
 542              		.loc 1 170 48 discriminator 1 view .LVU165
 543 001a F169     		ldr	r1, [r6, #28]
 544              	.LBE18:
 167:Lib/lib_vision_models_pp/lib_vision_models_pp/Src/od_pp_yolov8.c **** 
 545              		.loc 1 167 29 view .LVU166
 546 001c 364B     		ldr	r3, .L76
 547 001e 9142     		cmp	r1, r2
 548 0020 1F60     		str	r7, [r3]
 170:Lib/lib_vision_models_pp/lib_vision_models_pp/Src/od_pp_yolov8.c ****     {
 549              		.loc 1 170 5 is_stmt 1 view .LVU167
 550              	.LBB19:
 170:Lib/lib_vision_models_pp/lib_vision_models_pp/Src/od_pp_yolov8.c ****     {
 551              		.loc 1 170 10 view .LVU168
 552              	.LVL48:
 170:Lib/lib_vision_models_pp/lib_vision_models_pp/Src/od_pp_yolov8.c ****     {
 553              		.loc 1 170 10 is_stmt 0 view .LVU169
 554              	.LBE19:
 166:Lib/lib_vision_models_pp/lib_vision_models_pp/Src/od_pp_yolov8.c ****     AI_YOLOV8_PP_SORT_CLASS = k;
 555              		.loc 1 166 26 view .LVU170
 556 0022 1446     		mov	r4, r2
 557 0024 01F10103 		add	r3, r1, #1
 558              	.LBB20:
 172:Lib/lib_vision_models_pp/lib_vision_models_pp/Src/od_pp_yolov8.c ****       {
 559              		.loc 1 172 23 view .LVU171
 560 0028 4FF0060C 		mov	ip, #6
 561 002c B8BF     		it	lt
 562 002e 0123     		movlt	r3, #1
 563 0030 681D     		adds	r0, r5, #5
 564              	.LVL49:
 565              	.L49:
 170:Lib/lib_vision_models_pp/lib_vision_models_pp/Src/od_pp_yolov8.c ****     {
 566              		.loc 1 170 27 is_stmt 1 discriminator 1 view .LVU172
 567 0032 013B     		subs	r3, r3, #1
 568 0034 03D1     		bne	.L51
 569              	.LBE20:
 178:Lib/lib_vision_models_pp/lib_vision_models_pp/Src/od_pp_yolov8.c ****     {
 570              		.loc 1 178 5 view .LVU173
 178:Lib/lib_vision_models_pp/lib_vision_models_pp/Src/od_pp_yolov8.c ****     {
 571              		.loc 1 178 8 is_stmt 0 view .LVU174
 572 0036 002C     		cmp	r4, #0
 573 0038 0ADC     		bgt	.L52
 574              	.LVL50:
 575              	.L65:
 163:Lib/lib_vision_models_pp/lib_vision_models_pp/Src/od_pp_yolov8.c ****   {
 576              		.loc 1 163 52 is_stmt 1 discriminator 2 view .LVU175
 577 003a 0137     		adds	r7, r7, #1
 578              	.LVL51:
 163:Lib/lib_vision_models_pp/lib_vision_models_pp/Src/od_pp_yolov8.c ****   {
 579              		.loc 1 163 52 is_stmt 0 discriminator 2 view .LVU176
 580 003c E5E7     		b	.L48
 581              	.LVL52:
 582              	.L51:
 583              	.LBB21:
ARM GAS  /tmp/cc3HBV3p.s 			page 17


 172:Lib/lib_vision_models_pp/lib_vision_models_pp/Src/od_pp_yolov8.c ****       {
 584              		.loc 1 172 7 is_stmt 1 view .LVU177
 172:Lib/lib_vision_models_pp/lib_vision_models_pp/Src/od_pp_yolov8.c ****       {
 585              		.loc 1 172 23 is_stmt 0 view .LVU178
 586 003e 0CFB02FE 		mul	lr, ip, r2
 587 0042 10F80EE0 		ldrb	lr, [r0, lr]	@ zero_extendqisi2
 170:Lib/lib_vision_models_pp/lib_vision_models_pp/Src/od_pp_yolov8.c ****     {
 588              		.loc 1 170 64 discriminator 2 view .LVU179
 589 0046 0132     		adds	r2, r2, #1
 590              	.LVL53:
 174:Lib/lib_vision_models_pp/lib_vision_models_pp/Src/od_pp_yolov8.c ****       }
 591              		.loc 1 174 29 view .LVU180
 592 0048 BE45     		cmp	lr, r7
 593 004a 54EA1494 		cinc	r4, r4, eq
 594              	.LVL54:
 170:Lib/lib_vision_models_pp/lib_vision_models_pp/Src/od_pp_yolov8.c ****     {
 595              		.loc 1 170 64 is_stmt 1 discriminator 2 view .LVU181
 170:Lib/lib_vision_models_pp/lib_vision_models_pp/Src/od_pp_yolov8.c ****     {
 596              		.loc 1 170 64 is_stmt 0 discriminator 2 view .LVU182
 597 004e F0E7     		b	.L49
 598              	.L52:
 170:Lib/lib_vision_models_pp/lib_vision_models_pp/Src/od_pp_yolov8.c ****     {
 599              		.loc 1 170 64 discriminator 2 view .LVU183
 600              	.LBE21:
 181:Lib/lib_vision_models_pp/lib_vision_models_pp/Src/od_pp_yolov8.c ****             pInput_static_param->nb_detect,
 601              		.loc 1 181 7 is_stmt 1 view .LVU184
 602 0050 0622     		movs	r2, #6
 603              	.LVL55:
 181:Lib/lib_vision_models_pp/lib_vision_models_pp/Src/od_pp_yolov8.c ****             pInput_static_param->nb_detect,
 604              		.loc 1 181 7 is_stmt 0 view .LVU185
 605 0052 2846     		mov	r0, r5
 606 0054 294B     		ldr	r3, .L76+4
 607 0056 FFF7FEFF 		bl	qsort
 608              	.LVL56:
 186:Lib/lib_vision_models_pp/lib_vision_models_pp/Src/od_pp_yolov8.c ****       {
 609              		.loc 1 186 7 is_stmt 1 view .LVU186
 610              	.LBB22:
 186:Lib/lib_vision_models_pp/lib_vision_models_pp/Src/od_pp_yolov8.c ****       {
 611              		.loc 1 186 12 view .LVU187
 186:Lib/lib_vision_models_pp/lib_vision_models_pp/Src/od_pp_yolov8.c ****       {
 612              		.loc 1 186 29 discriminator 1 view .LVU188
 613 005a A946     		mov	r9, r5
 614              	.LBE22:
 181:Lib/lib_vision_models_pp/lib_vision_models_pp/Src/od_pp_yolov8.c ****             pInput_static_param->nb_detect,
 615              		.loc 1 181 7 is_stmt 0 view .LVU189
 616 005c A846     		mov	r8, r5
 617              	.LBB26:
 186:Lib/lib_vision_models_pp/lib_vision_models_pp/Src/od_pp_yolov8.c ****       {
 618              		.loc 1 186 20 view .LVU190
 619 005e 4FF0000A 		mov	r10, #0
 620              	.LVL57:
 621              	.L54:
 622              	.LBB23:
 188:Lib/lib_vision_models_pp/lib_vision_models_pp/Src/od_pp_yolov8.c ****         int8_t *a = &(ptrScratch[i].x_center);
 623              		.loc 1 188 9 is_stmt 1 view .LVU191
 188:Lib/lib_vision_models_pp/lib_vision_models_pp/Src/od_pp_yolov8.c ****         int8_t *a = &(ptrScratch[i].x_center);
 624              		.loc 1 188 12 is_stmt 0 view .LVU192
ARM GAS  /tmp/cc3HBV3p.s 			page 18


 625 0062 98F90430 		ldrsb	r3, [r8, #4]
 190:Lib/lib_vision_models_pp/lib_vision_models_pp/Src/od_pp_yolov8.c ****         {
 626              		.loc 1 190 16 view .LVU193
 627 0066 0AF1010A 		add	r10, r10, #1
 628              	.LVL58:
 188:Lib/lib_vision_models_pp/lib_vision_models_pp/Src/od_pp_yolov8.c ****         int8_t *a = &(ptrScratch[i].x_center);
 629              		.loc 1 188 12 view .LVU194
 630 006a 8033     		adds	r3, r3, #128
 631 006c 3BD1     		bne	.L67
 632              	.L61:
 633              	.LBE23:
 186:Lib/lib_vision_models_pp/lib_vision_models_pp/Src/od_pp_yolov8.c ****       {
 634              		.loc 1 186 56 is_stmt 1 discriminator 2 view .LVU195
 635              	.LVL59:
 186:Lib/lib_vision_models_pp/lib_vision_models_pp/Src/od_pp_yolov8.c ****       {
 636              		.loc 1 186 29 discriminator 1 view .LVU196
 637 006e 5445     		cmp	r4, r10
 638 0070 08F10608 		add	r8, r8, #6
 639 0074 F5D1     		bne	.L54
 640 0076 0623     		movs	r3, #6
 641              	.LBE26:
 165:Lib/lib_vision_models_pp/lib_vision_models_pp/Src/od_pp_yolov8.c ****     detections_per_class = 0;
 642              		.loc 1 165 19 is_stmt 0 view .LVU197
 643 0078 0021     		movs	r1, #0
 644 007a 03FB0453 		mla	r3, r3, r4, r5
 645              	.LBB27:
 211:Lib/lib_vision_models_pp/lib_vision_models_pp/Src/od_pp_yolov8.c ****         }
 646              		.loc 1 211 30 view .LVU198
 647 007e 5B1B     		subs	r3, r3, r5
 648 0080 1F48     		ldr	r0, .L76+8
 649 0082 063B     		subs	r3, r3, #6
 650 0084 5B08     		lsrs	r3, r3, #1
 651 0086 4343     		muls	r3, r0, r3
 204:Lib/lib_vision_models_pp/lib_vision_models_pp/Src/od_pp_yolov8.c ****             (ptrScratch[i].conf != INT8_MIN))
 652              		.loc 1 204 49 view .LVU199
 653 0088 B268     		ldr	r2, [r6, #8]
 211:Lib/lib_vision_models_pp/lib_vision_models_pp/Src/od_pp_yolov8.c ****         }
 654              		.loc 1 211 30 view .LVU200
 655 008a 23F00043 		bic	r3, r3, #-2147483648
 656 008e 0133     		adds	r3, r3, #1
 657              	.LVL60:
 658              	.L64:
 204:Lib/lib_vision_models_pp/lib_vision_models_pp/Src/od_pp_yolov8.c ****             (ptrScratch[i].conf != INT8_MIN))
 659              		.loc 1 204 9 is_stmt 1 view .LVU201
 204:Lib/lib_vision_models_pp/lib_vision_models_pp/Src/od_pp_yolov8.c ****             (ptrScratch[i].conf != INT8_MIN))
 660              		.loc 1 204 12 is_stmt 0 view .LVU202
 661 0090 8A42     		cmp	r2, r1
 662 0092 2BDD     		ble	.L62
 204:Lib/lib_vision_models_pp/lib_vision_models_pp/Src/od_pp_yolov8.c ****             (ptrScratch[i].conf != INT8_MIN))
 663              		.loc 1 204 68 discriminator 1 view .LVU203
 664 0094 99F90400 		ldrsb	r0, [r9, #4]
 665 0098 8030     		adds	r0, r0, #128
 666 009a 27D0     		beq	.L62
 207:Lib/lib_vision_models_pp/lib_vision_models_pp/Src/od_pp_yolov8.c ****         }
 667              		.loc 1 207 11 is_stmt 1 view .LVU204
 207:Lib/lib_vision_models_pp/lib_vision_models_pp/Src/od_pp_yolov8.c ****         }
 668              		.loc 1 207 24 is_stmt 0 view .LVU205
ARM GAS  /tmp/cc3HBV3p.s 			page 19


 669 009c 0131     		adds	r1, r1, #1
 670              	.LVL61:
 671              	.L63:
 202:Lib/lib_vision_models_pp/lib_vision_models_pp/Src/od_pp_yolov8.c ****       {
 672              		.loc 1 202 54 is_stmt 1 discriminator 2 view .LVU206
 202:Lib/lib_vision_models_pp/lib_vision_models_pp/Src/od_pp_yolov8.c ****       {
 673              		.loc 1 202 29 discriminator 1 view .LVU207
 674 009e 013B     		subs	r3, r3, #1
 675 00a0 09F10609 		add	r9, r9, #6
 676 00a4 F4D1     		bne	.L64
 202:Lib/lib_vision_models_pp/lib_vision_models_pp/Src/od_pp_yolov8.c ****       {
 677              		.loc 1 202 29 is_stmt 0 discriminator 1 view .LVU208
 678 00a6 C8E7     		b	.L65
 679              	.LVL62:
 680              	.L60:
 202:Lib/lib_vision_models_pp/lib_vision_models_pp/Src/od_pp_yolov8.c ****       {
 681              		.loc 1 202 29 discriminator 1 view .LVU209
 682              	.LBE27:
 683              	.LBB28:
 684              	.LBB25:
 685              	.LBB24:
 192:Lib/lib_vision_models_pp/lib_vision_models_pp/Src/od_pp_yolov8.c ****           int8_t *b = &(ptrScratch[j].x_center);
 686              		.loc 1 192 11 is_stmt 1 view .LVU210
 192:Lib/lib_vision_models_pp/lib_vision_models_pp/Src/od_pp_yolov8.c ****           int8_t *b = &(ptrScratch[j].x_center);
 687              		.loc 1 192 14 is_stmt 0 view .LVU211
 688 00a8 9BF90A20 		ldrsb	r2, [fp, #10]
 689 00ac 0BF10601 		add	r1, fp, #6
 690 00b0 8032     		adds	r2, r2, #128
 691 00b2 13D0     		beq	.L57
 194:Lib/lib_vision_models_pp/lib_vision_models_pp/Src/od_pp_yolov8.c ****           {
 692              		.loc 1 194 15 view .LVU212
 693 00b4 96F91820 		ldrsb	r2, [r6, #24]
 694 00b8 4046     		mov	r0, r8
 695 00ba 0193     		str	r3, [sp, #4]
 193:Lib/lib_vision_models_pp/lib_vision_models_pp/Src/od_pp_yolov8.c ****           if (vision_models_box_iou_is8(a, b, pInput_static_param->raw_output_zero_point) > pInput_
 696              		.loc 1 193 11 is_stmt 1 view .LVU213
 697              	.LVL63:
 194:Lib/lib_vision_models_pp/lib_vision_models_pp/Src/od_pp_yolov8.c ****           {
 698              		.loc 1 194 11 view .LVU214
 194:Lib/lib_vision_models_pp/lib_vision_models_pp/Src/od_pp_yolov8.c ****           {
 699              		.loc 1 194 15 is_stmt 0 view .LVU215
 700 00bc 0091     		str	r1, [sp]
 701 00be FFF7FEFF 		bl	vision_models_box_iou_is8
 702              	.LVL64:
 194:Lib/lib_vision_models_pp/lib_vision_models_pp/Src/od_pp_yolov8.c ****           {
 703              		.loc 1 194 14 discriminator 1 view .LVU216
 704 00c2 DDE90013 		ldrd	r1, r3, [sp]
 196:Lib/lib_vision_models_pp/lib_vision_models_pp/Src/od_pp_yolov8.c ****           }
 705              		.loc 1 196 13 is_stmt 1 view .LVU217
 194:Lib/lib_vision_models_pp/lib_vision_models_pp/Src/od_pp_yolov8.c ****           {
 706              		.loc 1 194 14 is_stmt 0 discriminator 1 view .LVU218
 707 00c6 D6ED047A 		vldr.32	s15, [r6, #16]
 708 00ca B4EEE70A 		vcmpe.f32	s0, s15
 709 00ce F1EE10FA 		vmrs	APSR_nzcv, FPSCR
 196:Lib/lib_vision_models_pp/lib_vision_models_pp/Src/od_pp_yolov8.c ****           }
 710              		.loc 1 196 32 view .LVU219
 711 00d2 C4BF     		itt	gt
ARM GAS  /tmp/cc3HBV3p.s 			page 20


 712 00d4 6FF07F02 		mvngt	r2, #127
 713 00d8 8BF80A20 		strbgt	r2, [fp, #10]
 714              	.LVL65:
 715              	.L57:
 196:Lib/lib_vision_models_pp/lib_vision_models_pp/Src/od_pp_yolov8.c ****           }
 716              		.loc 1 196 32 view .LVU220
 717              	.LBE24:
 190:Lib/lib_vision_models_pp/lib_vision_models_pp/Src/od_pp_yolov8.c ****         {
 718              		.loc 1 190 53 is_stmt 1 discriminator 2 view .LVU221
 719 00dc 8B46     		mov	fp, r1
 720 00de 0133     		adds	r3, r3, #1
 721              	.LVL66:
 722              	.L53:
 190:Lib/lib_vision_models_pp/lib_vision_models_pp/Src/od_pp_yolov8.c ****         {
 723              		.loc 1 190 27 discriminator 1 view .LVU222
 724 00e0 A342     		cmp	r3, r4
 725 00e2 E1DB     		blt	.L60
 726 00e4 C3E7     		b	.L61
 727              	.LVL67:
 728              	.L67:
 190:Lib/lib_vision_models_pp/lib_vision_models_pp/Src/od_pp_yolov8.c ****         {
 729              		.loc 1 190 27 is_stmt 0 discriminator 1 view .LVU223
 730 00e6 C346     		mov	fp, r8
 190:Lib/lib_vision_models_pp/lib_vision_models_pp/Src/od_pp_yolov8.c ****         {
 731              		.loc 1 190 16 view .LVU224
 732 00e8 5346     		mov	r3, r10
 733 00ea F9E7     		b	.L53
 734              	.LVL68:
 735              	.L62:
 190:Lib/lib_vision_models_pp/lib_vision_models_pp/Src/od_pp_yolov8.c ****         {
 736              		.loc 1 190 16 view .LVU225
 737              	.LBE25:
 738              	.LBE28:
 739              	.LBB29:
 211:Lib/lib_vision_models_pp/lib_vision_models_pp/Src/od_pp_yolov8.c ****         }
 740              		.loc 1 211 11 is_stmt 1 view .LVU226
 211:Lib/lib_vision_models_pp/lib_vision_models_pp/Src/od_pp_yolov8.c ****         }
 741              		.loc 1 211 30 is_stmt 0 view .LVU227
 742 00ec 6FF07F00 		mvn	r0, #127
 743 00f0 89F80400 		strb	r0, [r9, #4]
 744 00f4 D3E7     		b	.L63
 745              	.L77:
 746 00f6 00BF     		.align	2
 747              	.L76:
 748 00f8 00000000 		.word	AI_YOLOV8_PP_SORT_CLASS
 749 00fc 00000000 		.word	yolov8_nms_comparator_is8
 750 0100 ABAAAA2A 		.word	715827883
 751              	.LBE29:
 752              		.cfi_endproc
 753              	.LFE2648:
 755              		.section	.text.yolov8_pp_scoreFiltering_centroid,"ax",%progbits
 756              		.align	1
 757              		.global	yolov8_pp_scoreFiltering_centroid
 758              		.syntax unified
 759              		.thumb
 760              		.thumb_func
 762              	yolov8_pp_scoreFiltering_centroid:
ARM GAS  /tmp/cc3HBV3p.s 			page 21


 763              	.LVL69:
 764              	.LFB2649:
 218:Lib/lib_vision_models_pp/lib_vision_models_pp/Src/od_pp_yolov8.c **** 
 219:Lib/lib_vision_models_pp/lib_vision_models_pp/Src/od_pp_yolov8.c **** int32_t yolov8_pp_scoreFiltering_centroid(od_pp_out_t *pOutput,
 220:Lib/lib_vision_models_pp/lib_vision_models_pp/Src/od_pp_yolov8.c ****                                           od_yolov8_pp_static_param_t *pInput_static_param)
 221:Lib/lib_vision_models_pp/lib_vision_models_pp/Src/od_pp_yolov8.c **** {
 765              		.loc 1 221 1 is_stmt 1 view -0
 766              		.cfi_startproc
 767              		@ args = 0, pretend = 0, frame = 0
 768              		@ frame_needed = 0, uses_anonymous_args = 0
 222:Lib/lib_vision_models_pp/lib_vision_models_pp/Src/od_pp_yolov8.c ****   int32_t det_count = 0;
 769              		.loc 1 222 3 view .LVU229
 223:Lib/lib_vision_models_pp/lib_vision_models_pp/Src/od_pp_yolov8.c **** 
 224:Lib/lib_vision_models_pp/lib_vision_models_pp/Src/od_pp_yolov8.c ****   for (int32_t i = 0; i < pInput_static_param->nb_detect; i++)
 770              		.loc 1 224 3 view .LVU230
 771              	.LBB30:
 772              		.loc 1 224 8 view .LVU231
 773              		.loc 1 224 8 is_stmt 0 view .LVU232
 774              	.LBE30:
 221:Lib/lib_vision_models_pp/lib_vision_models_pp/Src/od_pp_yolov8.c ****   int32_t det_count = 0;
 775              		.loc 1 221 1 view .LVU233
 776 0000 F0B5     		push	{r4, r5, r6, r7, lr}
 777              		.cfi_def_cfa_offset 20
 778              		.cfi_offset 4, -20
 779              		.cfi_offset 5, -16
 780              		.cfi_offset 6, -12
 781              		.cfi_offset 7, -8
 782              		.cfi_offset 14, -4
 783              	.LBB31:
 784              		.loc 1 224 16 view .LVU234
 785 0002 0026     		movs	r6, #0
 786              		.loc 1 224 46 discriminator 1 view .LVU235
 787 0004 CB69     		ldr	r3, [r1, #28]
 788              	.LBE31:
 222:Lib/lib_vision_models_pp/lib_vision_models_pp/Src/od_pp_yolov8.c ****   int32_t det_count = 0;
 789              		.loc 1 222 11 view .LVU236
 790 0006 3546     		mov	r5, r6
 791 0008 B342     		cmp	r3, r6
 792 000a 03F10102 		add	r2, r3, #1
 793              	.LBB32:
 225:Lib/lib_vision_models_pp/lib_vision_models_pp/Src/od_pp_yolov8.c ****   {
 226:Lib/lib_vision_models_pp/lib_vision_models_pp/Src/od_pp_yolov8.c ****     if (pOutput->pOutBuff[i].conf >= pInput_static_param->conf_threshold)
 794              		.loc 1 226 26 view .LVU237
 795 000e 4FF01807 		mov	r7, #24
 796 0012 B8BF     		it	lt
 797 0014 0122     		movlt	r2, #1
 798              	.LVL70:
 799              	.L79:
 224:Lib/lib_vision_models_pp/lib_vision_models_pp/Src/od_pp_yolov8.c ****   {
 800              		.loc 1 224 25 is_stmt 1 discriminator 1 view .LVU238
 801 0016 013A     		subs	r2, r2, #1
 802 0018 02D1     		bne	.L82
 803              	.LBE32:
 227:Lib/lib_vision_models_pp/lib_vision_models_pp/Src/od_pp_yolov8.c ****     {
 228:Lib/lib_vision_models_pp/lib_vision_models_pp/Src/od_pp_yolov8.c ****       pOutput->pOutBuff[det_count].x_center    = pOutput->pOutBuff[i].x_center;
 229:Lib/lib_vision_models_pp/lib_vision_models_pp/Src/od_pp_yolov8.c ****       pOutput->pOutBuff[det_count].y_center    = pOutput->pOutBuff[i].y_center;
 230:Lib/lib_vision_models_pp/lib_vision_models_pp/Src/od_pp_yolov8.c ****       pOutput->pOutBuff[det_count].width       = pOutput->pOutBuff[i].width;
ARM GAS  /tmp/cc3HBV3p.s 			page 22


 231:Lib/lib_vision_models_pp/lib_vision_models_pp/Src/od_pp_yolov8.c ****       pOutput->pOutBuff[det_count].height      = pOutput->pOutBuff[i].height;
 232:Lib/lib_vision_models_pp/lib_vision_models_pp/Src/od_pp_yolov8.c ****       pOutput->pOutBuff[det_count].conf        = pOutput->pOutBuff[i].conf;
 233:Lib/lib_vision_models_pp/lib_vision_models_pp/Src/od_pp_yolov8.c ****       pOutput->pOutBuff[det_count].class_index = pOutput->pOutBuff[i].class_index;
 234:Lib/lib_vision_models_pp/lib_vision_models_pp/Src/od_pp_yolov8.c ****       det_count++;
 235:Lib/lib_vision_models_pp/lib_vision_models_pp/Src/od_pp_yolov8.c ****     }
 236:Lib/lib_vision_models_pp/lib_vision_models_pp/Src/od_pp_yolov8.c ****   }
 237:Lib/lib_vision_models_pp/lib_vision_models_pp/Src/od_pp_yolov8.c ****   pOutput->nb_detect = det_count;
 804              		.loc 1 237 3 view .LVU239
 805              		.loc 1 237 22 is_stmt 0 view .LVU240
 806 001a 4560     		str	r5, [r0, #4]
 238:Lib/lib_vision_models_pp/lib_vision_models_pp/Src/od_pp_yolov8.c **** 
 239:Lib/lib_vision_models_pp/lib_vision_models_pp/Src/od_pp_yolov8.c ****   return (AI_OD_POSTPROCESS_ERROR_NO);
 807              		.loc 1 239 3 is_stmt 1 view .LVU241
 240:Lib/lib_vision_models_pp/lib_vision_models_pp/Src/od_pp_yolov8.c **** }
 808              		.loc 1 240 1 is_stmt 0 view .LVU242
 809 001c 0020     		movs	r0, #0
 810              	.LVL71:
 811              		.loc 1 240 1 view .LVU243
 812 001e F0BD     		pop	{r4, r5, r6, r7, pc}
 813              	.LVL72:
 814              	.L82:
 815              	.LBB33:
 226:Lib/lib_vision_models_pp/lib_vision_models_pp/Src/od_pp_yolov8.c ****     {
 816              		.loc 1 226 5 is_stmt 1 view .LVU244
 226:Lib/lib_vision_models_pp/lib_vision_models_pp/Src/od_pp_yolov8.c ****     {
 817              		.loc 1 226 16 is_stmt 0 view .LVU245
 818 0020 0368     		ldr	r3, [r0]
 226:Lib/lib_vision_models_pp/lib_vision_models_pp/Src/od_pp_yolov8.c ****     {
 819              		.loc 1 226 8 view .LVU246
 820 0022 91ED037A 		vldr.32	s14, [r1, #12]
 226:Lib/lib_vision_models_pp/lib_vision_models_pp/Src/od_pp_yolov8.c ****     {
 821              		.loc 1 226 26 view .LVU247
 822 0026 07FB0634 		mla	r4, r7, r6, r3
 226:Lib/lib_vision_models_pp/lib_vision_models_pp/Src/od_pp_yolov8.c ****     {
 823              		.loc 1 226 29 view .LVU248
 824 002a D4ED047A 		vldr.32	s15, [r4, #16]
 226:Lib/lib_vision_models_pp/lib_vision_models_pp/Src/od_pp_yolov8.c ****     {
 825              		.loc 1 226 8 view .LVU249
 826 002e F4EEC77A 		vcmpe.f32	s15, s14
 827 0032 F1EE10FA 		vmrs	APSR_nzcv, FPSCR
 828 0036 16DB     		blt	.L80
 228:Lib/lib_vision_models_pp/lib_vision_models_pp/Src/od_pp_yolov8.c ****       pOutput->pOutBuff[det_count].y_center    = pOutput->pOutBuff[i].y_center;
 829              		.loc 1 228 7 is_stmt 1 view .LVU250
 228:Lib/lib_vision_models_pp/lib_vision_models_pp/Src/od_pp_yolov8.c ****       pOutput->pOutBuff[det_count].y_center    = pOutput->pOutBuff[i].y_center;
 830              		.loc 1 228 24 is_stmt 0 view .LVU251
 831 0038 07FB0533 		mla	r3, r7, r5, r3
 228:Lib/lib_vision_models_pp/lib_vision_models_pp/Src/od_pp_yolov8.c ****       pOutput->pOutBuff[det_count].y_center    = pOutput->pOutBuff[i].y_center;
 832              		.loc 1 228 70 view .LVU252
 833 003c D4F800C0 		ldr	ip, [r4]	@ float
 234:Lib/lib_vision_models_pp/lib_vision_models_pp/Src/od_pp_yolov8.c ****     }
 834              		.loc 1 234 16 view .LVU253
 835 0040 0135     		adds	r5, r5, #1
 836              	.LVL73:
 228:Lib/lib_vision_models_pp/lib_vision_models_pp/Src/od_pp_yolov8.c ****       pOutput->pOutBuff[det_count].y_center    = pOutput->pOutBuff[i].y_center;
 837              		.loc 1 228 48 view .LVU254
 838 0042 C3F800C0 		str	ip, [r3]	@ float
 229:Lib/lib_vision_models_pp/lib_vision_models_pp/Src/od_pp_yolov8.c ****       pOutput->pOutBuff[det_count].width       = pOutput->pOutBuff[i].width;
ARM GAS  /tmp/cc3HBV3p.s 			page 23


 839              		.loc 1 229 7 is_stmt 1 view .LVU255
 229:Lib/lib_vision_models_pp/lib_vision_models_pp/Src/od_pp_yolov8.c ****       pOutput->pOutBuff[det_count].width       = pOutput->pOutBuff[i].width;
 840              		.loc 1 229 70 is_stmt 0 view .LVU256
 841 0046 D4F804C0 		ldr	ip, [r4, #4]	@ float
 229:Lib/lib_vision_models_pp/lib_vision_models_pp/Src/od_pp_yolov8.c ****       pOutput->pOutBuff[det_count].width       = pOutput->pOutBuff[i].width;
 842              		.loc 1 229 48 view .LVU257
 843 004a C3F804C0 		str	ip, [r3, #4]	@ float
 230:Lib/lib_vision_models_pp/lib_vision_models_pp/Src/od_pp_yolov8.c ****       pOutput->pOutBuff[det_count].height      = pOutput->pOutBuff[i].height;
 844              		.loc 1 230 7 is_stmt 1 view .LVU258
 230:Lib/lib_vision_models_pp/lib_vision_models_pp/Src/od_pp_yolov8.c ****       pOutput->pOutBuff[det_count].height      = pOutput->pOutBuff[i].height;
 845              		.loc 1 230 70 is_stmt 0 view .LVU259
 846 004e D4F808C0 		ldr	ip, [r4, #8]	@ float
 230:Lib/lib_vision_models_pp/lib_vision_models_pp/Src/od_pp_yolov8.c ****       pOutput->pOutBuff[det_count].height      = pOutput->pOutBuff[i].height;
 847              		.loc 1 230 48 view .LVU260
 848 0052 C3F808C0 		str	ip, [r3, #8]	@ float
 231:Lib/lib_vision_models_pp/lib_vision_models_pp/Src/od_pp_yolov8.c ****       pOutput->pOutBuff[det_count].conf        = pOutput->pOutBuff[i].conf;
 849              		.loc 1 231 7 is_stmt 1 view .LVU261
 231:Lib/lib_vision_models_pp/lib_vision_models_pp/Src/od_pp_yolov8.c ****       pOutput->pOutBuff[det_count].conf        = pOutput->pOutBuff[i].conf;
 850              		.loc 1 231 70 is_stmt 0 view .LVU262
 851 0056 D4F80CC0 		ldr	ip, [r4, #12]	@ float
 232:Lib/lib_vision_models_pp/lib_vision_models_pp/Src/od_pp_yolov8.c ****       pOutput->pOutBuff[det_count].class_index = pOutput->pOutBuff[i].class_index;
 852              		.loc 1 232 48 view .LVU263
 853 005a C3ED047A 		vstr.32	s15, [r3, #16]
 233:Lib/lib_vision_models_pp/lib_vision_models_pp/Src/od_pp_yolov8.c ****       det_count++;
 854              		.loc 1 233 70 view .LVU264
 855 005e 6469     		ldr	r4, [r4, #20]
 231:Lib/lib_vision_models_pp/lib_vision_models_pp/Src/od_pp_yolov8.c ****       pOutput->pOutBuff[det_count].conf        = pOutput->pOutBuff[i].conf;
 856              		.loc 1 231 48 view .LVU265
 857 0060 C3F80CC0 		str	ip, [r3, #12]	@ float
 232:Lib/lib_vision_models_pp/lib_vision_models_pp/Src/od_pp_yolov8.c ****       pOutput->pOutBuff[det_count].class_index = pOutput->pOutBuff[i].class_index;
 858              		.loc 1 232 7 is_stmt 1 view .LVU266
 233:Lib/lib_vision_models_pp/lib_vision_models_pp/Src/od_pp_yolov8.c ****       det_count++;
 859              		.loc 1 233 7 view .LVU267
 233:Lib/lib_vision_models_pp/lib_vision_models_pp/Src/od_pp_yolov8.c ****       det_count++;
 860              		.loc 1 233 48 is_stmt 0 view .LVU268
 861 0064 5C61     		str	r4, [r3, #20]
 234:Lib/lib_vision_models_pp/lib_vision_models_pp/Src/od_pp_yolov8.c ****     }
 862              		.loc 1 234 7 is_stmt 1 view .LVU269
 863              	.LVL74:
 864              	.L80:
 224:Lib/lib_vision_models_pp/lib_vision_models_pp/Src/od_pp_yolov8.c ****   {
 865              		.loc 1 224 60 discriminator 2 view .LVU270
 866 0066 0136     		adds	r6, r6, #1
 867              	.LVL75:
 224:Lib/lib_vision_models_pp/lib_vision_models_pp/Src/od_pp_yolov8.c ****   {
 868              		.loc 1 224 60 is_stmt 0 discriminator 2 view .LVU271
 869 0068 D5E7     		b	.L79
 870              	.LBE33:
 871              		.cfi_endproc
 872              	.LFE2649:
 874              		.section	.text.yolov8_pp_scoreFiltering_centroid_is8,"ax",%progbits
 875              		.align	1
 876              		.global	yolov8_pp_scoreFiltering_centroid_is8
 877              		.syntax unified
 878              		.thumb
 879              		.thumb_func
 881              	yolov8_pp_scoreFiltering_centroid_is8:
ARM GAS  /tmp/cc3HBV3p.s 			page 24


 882              	.LVL76:
 883              	.LFB2650:
 241:Lib/lib_vision_models_pp/lib_vision_models_pp/Src/od_pp_yolov8.c **** 
 242:Lib/lib_vision_models_pp/lib_vision_models_pp/Src/od_pp_yolov8.c **** int32_t yolov8_pp_scoreFiltering_centroid_is8(od_yolov8_pp_scratch_s8_t *ptrScratch,
 243:Lib/lib_vision_models_pp/lib_vision_models_pp/Src/od_pp_yolov8.c ****                                               od_pp_out_t *pOutput,
 244:Lib/lib_vision_models_pp/lib_vision_models_pp/Src/od_pp_yolov8.c ****                                               od_yolov8_pp_static_param_t *pInput_static_param)
 245:Lib/lib_vision_models_pp/lib_vision_models_pp/Src/od_pp_yolov8.c **** {
 884              		.loc 1 245 1 is_stmt 1 view -0
 885              		.cfi_startproc
 886              		@ args = 0, pretend = 0, frame = 0
 887              		@ frame_needed = 0, uses_anonymous_args = 0
 246:Lib/lib_vision_models_pp/lib_vision_models_pp/Src/od_pp_yolov8.c ****   int32_t det_count = 0;
 888              		.loc 1 246 3 view .LVU273
 247:Lib/lib_vision_models_pp/lib_vision_models_pp/Src/od_pp_yolov8.c ****   int8_t zero_point = pInput_static_param->raw_output_zero_point;
 889              		.loc 1 247 3 view .LVU274
 248:Lib/lib_vision_models_pp/lib_vision_models_pp/Src/od_pp_yolov8.c ****   float32_t scale = pInput_static_param->raw_output_scale;
 249:Lib/lib_vision_models_pp/lib_vision_models_pp/Src/od_pp_yolov8.c ****   int8_t conf_threshold_s8 = (int8_t)(pInput_static_param->conf_threshold / scale + 0.5f) + zero_po
 890              		.loc 1 249 75 is_stmt 0 view .LVU275
 891 0000 D2ED036A 		vldr.32	s13, [r2, #12]
 248:Lib/lib_vision_models_pp/lib_vision_models_pp/Src/od_pp_yolov8.c ****   float32_t scale = pInput_static_param->raw_output_scale;
 892              		.loc 1 248 13 view .LVU276
 893 0004 92ED057A 		vldr.32	s14, [r2, #20]
 894              		.loc 1 249 75 view .LVU277
 895 0008 C6EE877A 		vdiv.f32	s15, s13, s14
 896              		.loc 1 249 83 view .LVU278
 897 000c F6EE006A 		vmov.f32	s13, #5.0e-1
 898 0010 77EEA67A 		vadd.f32	s15, s15, s13
 899              		.loc 1 249 30 view .LVU279
 900 0014 FDEEE77A 		vcvt.s32.f32	s15, s15
 246:Lib/lib_vision_models_pp/lib_vision_models_pp/Src/od_pp_yolov8.c ****   int8_t zero_point = pInput_static_param->raw_output_zero_point;
 901              		.loc 1 246 11 view .LVU280
 902 0018 4FF0000C 		mov	ip, #0
 245:Lib/lib_vision_models_pp/lib_vision_models_pp/Src/od_pp_yolov8.c ****   int32_t det_count = 0;
 903              		.loc 1 245 1 view .LVU281
 904 001c F0B5     		push	{r4, r5, r6, r7, lr}
 905              		.cfi_def_cfa_offset 20
 906              		.cfi_offset 4, -20
 907              		.cfi_offset 5, -16
 908              		.cfi_offset 6, -12
 909              		.cfi_offset 7, -8
 910              		.cfi_offset 14, -4
 247:Lib/lib_vision_models_pp/lib_vision_models_pp/Src/od_pp_yolov8.c ****   float32_t scale = pInput_static_param->raw_output_scale;
 911              		.loc 1 247 10 view .LVU282
 912 001e 92F91870 		ldrsb	r7, [r2, #24]
 913              	.LVL77:
 248:Lib/lib_vision_models_pp/lib_vision_models_pp/Src/od_pp_yolov8.c ****   int8_t conf_threshold_s8 = (int8_t)(pInput_static_param->conf_threshold / scale + 0.5f) + zero_po
 914              		.loc 1 248 3 is_stmt 1 view .LVU283
 915              		.loc 1 249 3 view .LVU284
 916              	.LBB34:
 250:Lib/lib_vision_models_pp/lib_vision_models_pp/Src/od_pp_yolov8.c **** 
 251:Lib/lib_vision_models_pp/lib_vision_models_pp/Src/od_pp_yolov8.c ****   for (int32_t i = 0; i < pInput_static_param->nb_detect; i++)
 917              		.loc 1 251 46 is_stmt 0 discriminator 1 view .LVU285
 918 0022 D269     		ldr	r2, [r2, #28]
 919              	.LVL78:
 920              		.loc 1 251 46 discriminator 1 view .LVU286
 921              	.LBE34:
 249:Lib/lib_vision_models_pp/lib_vision_models_pp/Src/od_pp_yolov8.c **** 
ARM GAS  /tmp/cc3HBV3p.s 			page 25


 922              		.loc 1 249 30 view .LVU287
 923 0024 17EE903A 		vmov	r3, s15	@ int
 924 0028 6245     		cmp	r2, ip
 925 002a 02F10106 		add	r6, r2, #1
 926              	.LBB35:
 252:Lib/lib_vision_models_pp/lib_vision_models_pp/Src/od_pp_yolov8.c ****   {
 253:Lib/lib_vision_models_pp/lib_vision_models_pp/Src/od_pp_yolov8.c ****     if (ptrScratch[i].conf >= conf_threshold_s8)
 254:Lib/lib_vision_models_pp/lib_vision_models_pp/Src/od_pp_yolov8.c ****     {
 255:Lib/lib_vision_models_pp/lib_vision_models_pp/Src/od_pp_yolov8.c ****       pOutput->pOutBuff[det_count].x_center    = scale * (float32_t)((int32_t)ptrScratch[i].x_cente
 927              		.loc 1 255 24 view .LVU288
 928 002e 4FF0180E 		mov	lr, #24
 929 0032 B8BF     		it	lt
 930 0034 0126     		movlt	r6, #1
 931              	.LBE35:
 249:Lib/lib_vision_models_pp/lib_vision_models_pp/Src/od_pp_yolov8.c **** 
 932              		.loc 1 249 91 view .LVU289
 933 0036 3B44     		add	r3, r3, r7
 249:Lib/lib_vision_models_pp/lib_vision_models_pp/Src/od_pp_yolov8.c **** 
 934              		.loc 1 249 10 view .LVU290
 935 0038 5BB2     		sxtb	r3, r3
 936              	.LVL79:
 251:Lib/lib_vision_models_pp/lib_vision_models_pp/Src/od_pp_yolov8.c ****   {
 937              		.loc 1 251 3 is_stmt 1 view .LVU291
 938              	.LBB36:
 251:Lib/lib_vision_models_pp/lib_vision_models_pp/Src/od_pp_yolov8.c ****   {
 939              		.loc 1 251 8 view .LVU292
 940              	.L86:
 251:Lib/lib_vision_models_pp/lib_vision_models_pp/Src/od_pp_yolov8.c ****   {
 941              		.loc 1 251 25 discriminator 1 view .LVU293
 942 003a 013E     		subs	r6, r6, #1
 943 003c 03D1     		bne	.L88
 944              	.LBE36:
 256:Lib/lib_vision_models_pp/lib_vision_models_pp/Src/od_pp_yolov8.c ****       pOutput->pOutBuff[det_count].y_center    = scale * (float32_t)((int32_t)ptrScratch[i].y_cente
 257:Lib/lib_vision_models_pp/lib_vision_models_pp/Src/od_pp_yolov8.c ****       pOutput->pOutBuff[det_count].width       = scale * (float32_t)((int32_t)ptrScratch[i].width  
 258:Lib/lib_vision_models_pp/lib_vision_models_pp/Src/od_pp_yolov8.c ****       pOutput->pOutBuff[det_count].height      = scale * (float32_t)((int32_t)ptrScratch[i].height 
 259:Lib/lib_vision_models_pp/lib_vision_models_pp/Src/od_pp_yolov8.c ****       pOutput->pOutBuff[det_count].conf        = scale * (float32_t)((int32_t)ptrScratch[i].conf   
 260:Lib/lib_vision_models_pp/lib_vision_models_pp/Src/od_pp_yolov8.c ****       pOutput->pOutBuff[det_count].class_index = (int32_t)ptrScratch[i].class_index;
 261:Lib/lib_vision_models_pp/lib_vision_models_pp/Src/od_pp_yolov8.c ****       det_count++;
 262:Lib/lib_vision_models_pp/lib_vision_models_pp/Src/od_pp_yolov8.c ****     }
 263:Lib/lib_vision_models_pp/lib_vision_models_pp/Src/od_pp_yolov8.c ****   }
 264:Lib/lib_vision_models_pp/lib_vision_models_pp/Src/od_pp_yolov8.c ****   pOutput->nb_detect = det_count;
 945              		.loc 1 264 3 view .LVU294
 265:Lib/lib_vision_models_pp/lib_vision_models_pp/Src/od_pp_yolov8.c **** 
 266:Lib/lib_vision_models_pp/lib_vision_models_pp/Src/od_pp_yolov8.c ****   return (AI_OD_POSTPROCESS_ERROR_NO);
 267:Lib/lib_vision_models_pp/lib_vision_models_pp/Src/od_pp_yolov8.c **** }
 946              		.loc 1 267 1 is_stmt 0 view .LVU295
 947 003e 0020     		movs	r0, #0
 264:Lib/lib_vision_models_pp/lib_vision_models_pp/Src/od_pp_yolov8.c **** 
 948              		.loc 1 264 22 view .LVU296
 949 0040 C1F804C0 		str	ip, [r1, #4]
 266:Lib/lib_vision_models_pp/lib_vision_models_pp/Src/od_pp_yolov8.c **** }
 950              		.loc 1 266 3 is_stmt 1 view .LVU297
 951              		.loc 1 267 1 is_stmt 0 view .LVU298
 952 0044 F0BD     		pop	{r4, r5, r6, r7, pc}
 953              	.LVL80:
 954              	.L88:
 955              	.LBB37:
ARM GAS  /tmp/cc3HBV3p.s 			page 26


 253:Lib/lib_vision_models_pp/lib_vision_models_pp/Src/od_pp_yolov8.c ****     {
 956              		.loc 1 253 5 is_stmt 1 view .LVU299
 253:Lib/lib_vision_models_pp/lib_vision_models_pp/Src/od_pp_yolov8.c ****     {
 957              		.loc 1 253 22 is_stmt 0 view .LVU300
 958 0046 90F90440 		ldrsb	r4, [r0, #4]
 253:Lib/lib_vision_models_pp/lib_vision_models_pp/Src/od_pp_yolov8.c ****     {
 959              		.loc 1 253 8 view .LVU301
 960 004a 9C42     		cmp	r4, r3
 961 004c 3BDB     		blt	.L87
 255:Lib/lib_vision_models_pp/lib_vision_models_pp/Src/od_pp_yolov8.c ****       pOutput->pOutBuff[det_count].y_center    = scale * (float32_t)((int32_t)ptrScratch[i].y_cente
 962              		.loc 1 255 7 is_stmt 1 view .LVU302
 255:Lib/lib_vision_models_pp/lib_vision_models_pp/Src/od_pp_yolov8.c ****       pOutput->pOutBuff[det_count].y_center    = scale * (float32_t)((int32_t)ptrScratch[i].y_cente
 963              		.loc 1 255 70 is_stmt 0 view .LVU303
 964 004e 90F90050 		ldrsb	r5, [r0]
 255:Lib/lib_vision_models_pp/lib_vision_models_pp/Src/od_pp_yolov8.c ****       pOutput->pOutBuff[det_count].y_center    = scale * (float32_t)((int32_t)ptrScratch[i].y_cente
 965              		.loc 1 255 24 view .LVU304
 966 0052 0A68     		ldr	r2, [r1]
 255:Lib/lib_vision_models_pp/lib_vision_models_pp/Src/od_pp_yolov8.c ****       pOutput->pOutBuff[det_count].y_center    = scale * (float32_t)((int32_t)ptrScratch[i].y_cente
 967              		.loc 1 255 105 view .LVU305
 968 0054 ED1B     		subs	r5, r5, r7
 969 0056 07EE905A 		vmov	s15, r5	@ int
 255:Lib/lib_vision_models_pp/lib_vision_models_pp/Src/od_pp_yolov8.c ****       pOutput->pOutBuff[det_count].y_center    = scale * (float32_t)((int32_t)ptrScratch[i].y_cente
 970              		.loc 1 255 58 view .LVU306
 971 005a F8EEE77A 		vcvt.f32.s32	s15, s15
 255:Lib/lib_vision_models_pp/lib_vision_models_pp/Src/od_pp_yolov8.c ****       pOutput->pOutBuff[det_count].y_center    = scale * (float32_t)((int32_t)ptrScratch[i].y_cente
 972              		.loc 1 255 56 view .LVU307
 973 005e 67EE877A 		vmul.f32	s15, s15, s14
 255:Lib/lib_vision_models_pp/lib_vision_models_pp/Src/od_pp_yolov8.c ****       pOutput->pOutBuff[det_count].y_center    = scale * (float32_t)((int32_t)ptrScratch[i].y_cente
 974              		.loc 1 255 24 view .LVU308
 975 0062 0EFB0C22 		mla	r2, lr, ip, r2
 255:Lib/lib_vision_models_pp/lib_vision_models_pp/Src/od_pp_yolov8.c ****       pOutput->pOutBuff[det_count].y_center    = scale * (float32_t)((int32_t)ptrScratch[i].y_cente
 976              		.loc 1 255 48 view .LVU309
 977 0066 C2ED007A 		vstr.32	s15, [r2]
 256:Lib/lib_vision_models_pp/lib_vision_models_pp/Src/od_pp_yolov8.c ****       pOutput->pOutBuff[det_count].width       = scale * (float32_t)((int32_t)ptrScratch[i].width  
 978              		.loc 1 256 7 is_stmt 1 view .LVU310
 256:Lib/lib_vision_models_pp/lib_vision_models_pp/Src/od_pp_yolov8.c ****       pOutput->pOutBuff[det_count].width       = scale * (float32_t)((int32_t)ptrScratch[i].width  
 979              		.loc 1 256 70 is_stmt 0 view .LVU311
 980 006a 90F90150 		ldrsb	r5, [r0, #1]
 259:Lib/lib_vision_models_pp/lib_vision_models_pp/Src/od_pp_yolov8.c ****       pOutput->pOutBuff[det_count].class_index = (int32_t)ptrScratch[i].class_index;
 981              		.loc 1 259 105 view .LVU312
 982 006e E41B     		subs	r4, r4, r7
 256:Lib/lib_vision_models_pp/lib_vision_models_pp/Src/od_pp_yolov8.c ****       pOutput->pOutBuff[det_count].width       = scale * (float32_t)((int32_t)ptrScratch[i].width  
 983              		.loc 1 256 105 view .LVU313
 984 0070 ED1B     		subs	r5, r5, r7
 985 0072 07EE905A 		vmov	s15, r5	@ int
 256:Lib/lib_vision_models_pp/lib_vision_models_pp/Src/od_pp_yolov8.c ****       pOutput->pOutBuff[det_count].width       = scale * (float32_t)((int32_t)ptrScratch[i].width  
 986              		.loc 1 256 58 view .LVU314
 987 0076 F8EEE77A 		vcvt.f32.s32	s15, s15
 256:Lib/lib_vision_models_pp/lib_vision_models_pp/Src/od_pp_yolov8.c ****       pOutput->pOutBuff[det_count].width       = scale * (float32_t)((int32_t)ptrScratch[i].width  
 988              		.loc 1 256 56 view .LVU315
 989 007a 67EE877A 		vmul.f32	s15, s15, s14
 256:Lib/lib_vision_models_pp/lib_vision_models_pp/Src/od_pp_yolov8.c ****       pOutput->pOutBuff[det_count].width       = scale * (float32_t)((int32_t)ptrScratch[i].width  
 990              		.loc 1 256 48 view .LVU316
 991 007e C2ED017A 		vstr.32	s15, [r2, #4]
 257:Lib/lib_vision_models_pp/lib_vision_models_pp/Src/od_pp_yolov8.c ****       pOutput->pOutBuff[det_count].height      = scale * (float32_t)((int32_t)ptrScratch[i].height 
 992              		.loc 1 257 7 is_stmt 1 view .LVU317
 257:Lib/lib_vision_models_pp/lib_vision_models_pp/Src/od_pp_yolov8.c ****       pOutput->pOutBuff[det_count].height      = scale * (float32_t)((int32_t)ptrScratch[i].height 
ARM GAS  /tmp/cc3HBV3p.s 			page 27


 993              		.loc 1 257 70 is_stmt 0 view .LVU318
 994 0082 90F90250 		ldrsb	r5, [r0, #2]
 261:Lib/lib_vision_models_pp/lib_vision_models_pp/Src/od_pp_yolov8.c ****     }
 995              		.loc 1 261 16 view .LVU319
 996 0086 0CF1010C 		add	ip, ip, #1
 997              	.LVL81:
 257:Lib/lib_vision_models_pp/lib_vision_models_pp/Src/od_pp_yolov8.c ****       pOutput->pOutBuff[det_count].height      = scale * (float32_t)((int32_t)ptrScratch[i].height 
 998              		.loc 1 257 105 view .LVU320
 999 008a ED1B     		subs	r5, r5, r7
 1000 008c 07EE905A 		vmov	s15, r5	@ int
 257:Lib/lib_vision_models_pp/lib_vision_models_pp/Src/od_pp_yolov8.c ****       pOutput->pOutBuff[det_count].height      = scale * (float32_t)((int32_t)ptrScratch[i].height 
 1001              		.loc 1 257 58 view .LVU321
 1002 0090 F8EEE77A 		vcvt.f32.s32	s15, s15
 257:Lib/lib_vision_models_pp/lib_vision_models_pp/Src/od_pp_yolov8.c ****       pOutput->pOutBuff[det_count].height      = scale * (float32_t)((int32_t)ptrScratch[i].height 
 1003              		.loc 1 257 56 view .LVU322
 1004 0094 67EE877A 		vmul.f32	s15, s15, s14
 257:Lib/lib_vision_models_pp/lib_vision_models_pp/Src/od_pp_yolov8.c ****       pOutput->pOutBuff[det_count].height      = scale * (float32_t)((int32_t)ptrScratch[i].height 
 1005              		.loc 1 257 48 view .LVU323
 1006 0098 C2ED027A 		vstr.32	s15, [r2, #8]
 258:Lib/lib_vision_models_pp/lib_vision_models_pp/Src/od_pp_yolov8.c ****       pOutput->pOutBuff[det_count].conf        = scale * (float32_t)((int32_t)ptrScratch[i].conf   
 1007              		.loc 1 258 7 is_stmt 1 view .LVU324
 258:Lib/lib_vision_models_pp/lib_vision_models_pp/Src/od_pp_yolov8.c ****       pOutput->pOutBuff[det_count].conf        = scale * (float32_t)((int32_t)ptrScratch[i].conf   
 1008              		.loc 1 258 70 is_stmt 0 view .LVU325
 1009 009c 90F90350 		ldrsb	r5, [r0, #3]
 258:Lib/lib_vision_models_pp/lib_vision_models_pp/Src/od_pp_yolov8.c ****       pOutput->pOutBuff[det_count].conf        = scale * (float32_t)((int32_t)ptrScratch[i].conf   
 1010              		.loc 1 258 105 view .LVU326
 1011 00a0 ED1B     		subs	r5, r5, r7
 1012 00a2 07EE905A 		vmov	s15, r5	@ int
 258:Lib/lib_vision_models_pp/lib_vision_models_pp/Src/od_pp_yolov8.c ****       pOutput->pOutBuff[det_count].conf        = scale * (float32_t)((int32_t)ptrScratch[i].conf   
 1013              		.loc 1 258 58 view .LVU327
 1014 00a6 F8EEE77A 		vcvt.f32.s32	s15, s15
 258:Lib/lib_vision_models_pp/lib_vision_models_pp/Src/od_pp_yolov8.c ****       pOutput->pOutBuff[det_count].conf        = scale * (float32_t)((int32_t)ptrScratch[i].conf   
 1015              		.loc 1 258 56 view .LVU328
 1016 00aa 67EE877A 		vmul.f32	s15, s15, s14
 258:Lib/lib_vision_models_pp/lib_vision_models_pp/Src/od_pp_yolov8.c ****       pOutput->pOutBuff[det_count].conf        = scale * (float32_t)((int32_t)ptrScratch[i].conf   
 1017              		.loc 1 258 48 view .LVU329
 1018 00ae C2ED037A 		vstr.32	s15, [r2, #12]
 259:Lib/lib_vision_models_pp/lib_vision_models_pp/Src/od_pp_yolov8.c ****       pOutput->pOutBuff[det_count].class_index = (int32_t)ptrScratch[i].class_index;
 1019              		.loc 1 259 7 is_stmt 1 view .LVU330
 259:Lib/lib_vision_models_pp/lib_vision_models_pp/Src/od_pp_yolov8.c ****       pOutput->pOutBuff[det_count].class_index = (int32_t)ptrScratch[i].class_index;
 1020              		.loc 1 259 105 is_stmt 0 view .LVU331
 1021 00b2 07EE904A 		vmov	s15, r4	@ int
 259:Lib/lib_vision_models_pp/lib_vision_models_pp/Src/od_pp_yolov8.c ****       pOutput->pOutBuff[det_count].class_index = (int32_t)ptrScratch[i].class_index;
 1022              		.loc 1 259 58 view .LVU332
 1023 00b6 F8EEE77A 		vcvt.f32.s32	s15, s15
 259:Lib/lib_vision_models_pp/lib_vision_models_pp/Src/od_pp_yolov8.c ****       pOutput->pOutBuff[det_count].class_index = (int32_t)ptrScratch[i].class_index;
 1024              		.loc 1 259 56 view .LVU333
 1025 00ba 67EE877A 		vmul.f32	s15, s15, s14
 259:Lib/lib_vision_models_pp/lib_vision_models_pp/Src/od_pp_yolov8.c ****       pOutput->pOutBuff[det_count].class_index = (int32_t)ptrScratch[i].class_index;
 1026              		.loc 1 259 48 view .LVU334
 1027 00be C2ED047A 		vstr.32	s15, [r2, #16]
 260:Lib/lib_vision_models_pp/lib_vision_models_pp/Src/od_pp_yolov8.c ****       det_count++;
 1028              		.loc 1 260 7 is_stmt 1 view .LVU335
 260:Lib/lib_vision_models_pp/lib_vision_models_pp/Src/od_pp_yolov8.c ****       det_count++;
 1029              		.loc 1 260 50 is_stmt 0 view .LVU336
 1030 00c2 4479     		ldrb	r4, [r0, #5]	@ zero_extendqisi2
 1031 00c4 5461     		str	r4, [r2, #20]
ARM GAS  /tmp/cc3HBV3p.s 			page 28


 261:Lib/lib_vision_models_pp/lib_vision_models_pp/Src/od_pp_yolov8.c ****     }
 1032              		.loc 1 261 7 is_stmt 1 view .LVU337
 1033              	.LVL82:
 1034              	.L87:
 251:Lib/lib_vision_models_pp/lib_vision_models_pp/Src/od_pp_yolov8.c ****   {
 1035              		.loc 1 251 60 discriminator 2 view .LVU338
 1036 00c6 0630     		adds	r0, r0, #6
 1037 00c8 B7E7     		b	.L86
 1038              	.LBE37:
 1039              		.cfi_endproc
 1040              	.LFE2650:
 1042              		.section	.text.yolov8_pp_getNNBoxes_centroid,"ax",%progbits
 1043              		.align	1
 1044              		.global	yolov8_pp_getNNBoxes_centroid
 1045              		.syntax unified
 1046              		.thumb
 1047              		.thumb_func
 1049              	yolov8_pp_getNNBoxes_centroid:
 1050              	.LVL83:
 1051              	.LFB2651:
 268:Lib/lib_vision_models_pp/lib_vision_models_pp/Src/od_pp_yolov8.c **** 
 269:Lib/lib_vision_models_pp/lib_vision_models_pp/Src/od_pp_yolov8.c **** int32_t yolov8_pp_getNNBoxes_centroid(od_yolov8_pp_in_centroid_t *pInput,
 270:Lib/lib_vision_models_pp/lib_vision_models_pp/Src/od_pp_yolov8.c ****                                       od_pp_out_t *pOutput,
 271:Lib/lib_vision_models_pp/lib_vision_models_pp/Src/od_pp_yolov8.c ****                                       od_yolov8_pp_static_param_t *pInput_static_param)
 272:Lib/lib_vision_models_pp/lib_vision_models_pp/Src/od_pp_yolov8.c **** {
 1052              		.loc 1 272 1 view -0
 1053              		.cfi_startproc
 1054              		@ args = 0, pretend = 0, frame = 56
 1055              		@ frame_needed = 0, uses_anonymous_args = 0
 273:Lib/lib_vision_models_pp/lib_vision_models_pp/Src/od_pp_yolov8.c ****   int32_t error   = AI_OD_POSTPROCESS_ERROR_NO;
 1056              		.loc 1 273 3 view .LVU340
 274:Lib/lib_vision_models_pp/lib_vision_models_pp/Src/od_pp_yolov8.c ****   int32_t nb_classes = pInput_static_param->nb_classes;
 1057              		.loc 1 274 3 view .LVU341
 272:Lib/lib_vision_models_pp/lib_vision_models_pp/Src/od_pp_yolov8.c ****   int32_t error   = AI_OD_POSTPROCESS_ERROR_NO;
 1058              		.loc 1 272 1 is_stmt 0 view .LVU342
 1059 0000 2DE9F04F 		push	{r4, r5, r6, r7, r8, r9, r10, fp, lr}
 1060              		.cfi_def_cfa_offset 36
 1061              		.cfi_offset 4, -36
 1062              		.cfi_offset 5, -32
 1063              		.cfi_offset 6, -28
 1064              		.cfi_offset 7, -24
 1065              		.cfi_offset 8, -20
 1066              		.cfi_offset 9, -16
 1067              		.cfi_offset 10, -12
 1068              		.cfi_offset 11, -8
 1069              		.cfi_offset 14, -4
 1070              	.LBB38:
 275:Lib/lib_vision_models_pp/lib_vision_models_pp/Src/od_pp_yolov8.c ****   int32_t nb_total_boxes = pInput_static_param->nb_total_boxes;
 276:Lib/lib_vision_models_pp/lib_vision_models_pp/Src/od_pp_yolov8.c ****   float32_t *pRaw_detections = (float32_t *)pInput->pRaw_detections;
 277:Lib/lib_vision_models_pp/lib_vision_models_pp/Src/od_pp_yolov8.c ****   int32_t remaining_boxes = nb_total_boxes;
 278:Lib/lib_vision_models_pp/lib_vision_models_pp/Src/od_pp_yolov8.c **** 
 279:Lib/lib_vision_models_pp/lib_vision_models_pp/Src/od_pp_yolov8.c ****   int32_t nb_detect = 0;
 280:Lib/lib_vision_models_pp/lib_vision_models_pp/Src/od_pp_yolov8.c ****   od_pp_outBuffer_t *pOutBuff = (od_pp_outBuffer_t *)pOutput->pOutBuff;
 281:Lib/lib_vision_models_pp/lib_vision_models_pp/Src/od_pp_yolov8.c **** 
 282:Lib/lib_vision_models_pp/lib_vision_models_pp/Src/od_pp_yolov8.c ****   for (int32_t i = 0; i < nb_total_boxes; i+=4)
 1071              		.loc 1 282 16 view .LVU343
 1072 0004 0025     		movs	r5, #0
ARM GAS  /tmp/cc3HBV3p.s 			page 29


 1073 0006 4FF00C08 		mov	r8, #12
 1074              	.LBE38:
 279:Lib/lib_vision_models_pp/lib_vision_models_pp/Src/od_pp_yolov8.c ****   od_pp_outBuffer_t *pOutBuff = (od_pp_outBuffer_t *)pOutput->pOutBuff;
 1075              		.loc 1 279 11 view .LVU344
 1076 000a 2F46     		mov	r7, r5
 1077              	.LBB46:
 1078              	.LBB39:
 1079              	.LBB40:
 283:Lib/lib_vision_models_pp/lib_vision_models_pp/Src/od_pp_yolov8.c ****   {
 284:Lib/lib_vision_models_pp/lib_vision_models_pp/Src/od_pp_yolov8.c ****     float32_t best_score_array[4];
 285:Lib/lib_vision_models_pp/lib_vision_models_pp/Src/od_pp_yolov8.c ****     uint32_t class_index_array[4];
 286:Lib/lib_vision_models_pp/lib_vision_models_pp/Src/od_pp_yolov8.c **** 
 287:Lib/lib_vision_models_pp/lib_vision_models_pp/Src/od_pp_yolov8.c ****     vision_models_maxi_tr_p_if32ou32(&pRaw_detections[i + AI_YOLOV8_PP_CLASSPROB * nb_total_boxes],
 288:Lib/lib_vision_models_pp/lib_vision_models_pp/Src/od_pp_yolov8.c ****                                      nb_classes,
 289:Lib/lib_vision_models_pp/lib_vision_models_pp/Src/od_pp_yolov8.c ****                                      nb_total_boxes,
 290:Lib/lib_vision_models_pp/lib_vision_models_pp/Src/od_pp_yolov8.c ****                                      best_score_array,
 291:Lib/lib_vision_models_pp/lib_vision_models_pp/Src/od_pp_yolov8.c ****                                      class_index_array,
 292:Lib/lib_vision_models_pp/lib_vision_models_pp/Src/od_pp_yolov8.c ****                                      remaining_boxes);
 293:Lib/lib_vision_models_pp/lib_vision_models_pp/Src/od_pp_yolov8.c ****     for (int _i = 0; _i < ((remaining_boxes>4)?4:remaining_boxes); _i++)
 294:Lib/lib_vision_models_pp/lib_vision_models_pp/Src/od_pp_yolov8.c ****     {
 295:Lib/lib_vision_models_pp/lib_vision_models_pp/Src/od_pp_yolov8.c ****       if (best_score_array[_i] >= pInput_static_param->conf_threshold)
 296:Lib/lib_vision_models_pp/lib_vision_models_pp/Src/od_pp_yolov8.c ****       {
 297:Lib/lib_vision_models_pp/lib_vision_models_pp/Src/od_pp_yolov8.c ****         pOutBuff[nb_detect].x_center    = pRaw_detections[i + _i + AI_YOLOV8_PP_XCENTER   * nb_tota
 1080              		.loc 1 297 17 view .LVU345
 1081 000c 4FF0180B 		mov	fp, #24
 1082              	.LBE40:
 1083              	.LBE39:
 1084              	.LBE46:
 274:Lib/lib_vision_models_pp/lib_vision_models_pp/Src/od_pp_yolov8.c ****   int32_t nb_total_boxes = pInput_static_param->nb_total_boxes;
 1085              		.loc 1 274 11 view .LVU346
 1086 0010 1368     		ldr	r3, [r2]
 272:Lib/lib_vision_models_pp/lib_vision_models_pp/Src/od_pp_yolov8.c ****   int32_t error   = AI_OD_POSTPROCESS_ERROR_NO;
 1087              		.loc 1 272 1 view .LVU347
 1088 0012 91B0     		sub	sp, sp, #68
 1089              		.cfi_def_cfa_offset 104
 272:Lib/lib_vision_models_pp/lib_vision_models_pp/Src/od_pp_yolov8.c ****   int32_t error   = AI_OD_POSTPROCESS_ERROR_NO;
 1090              		.loc 1 272 1 view .LVU348
 1091 0014 1446     		mov	r4, r2
 275:Lib/lib_vision_models_pp/lib_vision_models_pp/Src/od_pp_yolov8.c ****   float32_t *pRaw_detections = (float32_t *)pInput->pRaw_detections;
 1092              		.loc 1 275 11 view .LVU349
 1093 0016 5268     		ldr	r2, [r2, #4]
 1094              	.LVL84:
 274:Lib/lib_vision_models_pp/lib_vision_models_pp/Src/od_pp_yolov8.c ****   int32_t nb_total_boxes = pInput_static_param->nb_total_boxes;
 1095              		.loc 1 274 11 view .LVU350
 1096 0018 0293     		str	r3, [sp, #8]
 1097              	.LVL85:
 275:Lib/lib_vision_models_pp/lib_vision_models_pp/Src/od_pp_yolov8.c ****   float32_t *pRaw_detections = (float32_t *)pInput->pRaw_detections;
 1098              		.loc 1 275 3 is_stmt 1 view .LVU351
 276:Lib/lib_vision_models_pp/lib_vision_models_pp/Src/od_pp_yolov8.c ****   int32_t remaining_boxes = nb_total_boxes;
 1099              		.loc 1 276 3 view .LVU352
 280:Lib/lib_vision_models_pp/lib_vision_models_pp/Src/od_pp_yolov8.c **** 
 1100              		.loc 1 280 22 is_stmt 0 view .LVU353
 1101 001a 0B68     		ldr	r3, [r1]
 1102              	.LVL86:
 280:Lib/lib_vision_models_pp/lib_vision_models_pp/Src/od_pp_yolov8.c **** 
 1103              		.loc 1 280 22 view .LVU354
 1104 001c 08FB02F8 		mul	r8, r8, r2
ARM GAS  /tmp/cc3HBV3p.s 			page 30


 276:Lib/lib_vision_models_pp/lib_vision_models_pp/Src/od_pp_yolov8.c ****   int32_t remaining_boxes = nb_total_boxes;
 1105              		.loc 1 276 14 view .LVU355
 1106 0020 D0F80090 		ldr	r9, [r0]
 1107              	.LVL87:
 277:Lib/lib_vision_models_pp/lib_vision_models_pp/Src/od_pp_yolov8.c **** 
 1108              		.loc 1 277 3 is_stmt 1 view .LVU356
 279:Lib/lib_vision_models_pp/lib_vision_models_pp/Src/od_pp_yolov8.c ****   od_pp_outBuffer_t *pOutBuff = (od_pp_outBuffer_t *)pOutput->pOutBuff;
 1109              		.loc 1 279 3 view .LVU357
 280:Lib/lib_vision_models_pp/lib_vision_models_pp/Src/od_pp_yolov8.c **** 
 1110              		.loc 1 280 3 view .LVU358
 280:Lib/lib_vision_models_pp/lib_vision_models_pp/Src/od_pp_yolov8.c **** 
 1111              		.loc 1 280 22 is_stmt 0 view .LVU359
 1112 0024 0393     		str	r3, [sp, #12]
 1113              	.LVL88:
 282:Lib/lib_vision_models_pp/lib_vision_models_pp/Src/od_pp_yolov8.c ****   {
 1114              		.loc 1 282 3 is_stmt 1 view .LVU360
 1115              	.LBB47:
 282:Lib/lib_vision_models_pp/lib_vision_models_pp/Src/od_pp_yolov8.c ****   {
 1116              		.loc 1 282 8 view .LVU361
 1117              	.LBB43:
 287:Lib/lib_vision_models_pp/lib_vision_models_pp/Src/od_pp_yolov8.c ****                                      nb_classes,
 1118              		.loc 1 287 82 is_stmt 0 view .LVU362
 1119 0026 9300     		lsls	r3, r2, #2
 1120              	.LVL89:
 287:Lib/lib_vision_models_pp/lib_vision_models_pp/Src/od_pp_yolov8.c ****                                      nb_classes,
 1121              		.loc 1 287 82 view .LVU363
 1122 0028 0493     		str	r3, [sp, #16]
 1123 002a D300     		lsls	r3, r2, #3
 1124 002c 09EB0210 		add	r0, r9, r2, lsl #4
 1125              	.LVL90:
 287:Lib/lib_vision_models_pp/lib_vision_models_pp/Src/od_pp_yolov8.c ****                                      nb_classes,
 1126              		.loc 1 287 82 view .LVU364
 1127 0030 0593     		str	r3, [sp, #20]
 1128              	.LVL91:
 1129              	.L91:
 287:Lib/lib_vision_models_pp/lib_vision_models_pp/Src/od_pp_yolov8.c ****                                      nb_classes,
 1130              		.loc 1 287 82 view .LVU365
 1131              	.LBE43:
 282:Lib/lib_vision_models_pp/lib_vision_models_pp/Src/od_pp_yolov8.c ****   {
 1132              		.loc 1 282 25 discriminator 1 view .LVU366
 1133 0032 9542     		cmp	r5, r2
 1134 0034 A2EB0506 		sub	r6, r2, r5
 1135              	.LVL92:
 282:Lib/lib_vision_models_pp/lib_vision_models_pp/Src/od_pp_yolov8.c ****   {
 1136              		.loc 1 282 25 is_stmt 1 discriminator 1 view .LVU367
 1137 0038 04DB     		blt	.L96
 1138              	.LBE47:
 298:Lib/lib_vision_models_pp/lib_vision_models_pp/Src/od_pp_yolov8.c ****         pOutBuff[nb_detect].y_center    = pRaw_detections[i + _i + AI_YOLOV8_PP_YCENTER   * nb_tota
 299:Lib/lib_vision_models_pp/lib_vision_models_pp/Src/od_pp_yolov8.c ****         pOutBuff[nb_detect].width       = pRaw_detections[i + _i + AI_YOLOV8_PP_WIDTHREL  * nb_tota
 300:Lib/lib_vision_models_pp/lib_vision_models_pp/Src/od_pp_yolov8.c ****         pOutBuff[nb_detect].height      = pRaw_detections[i + _i + AI_YOLOV8_PP_HEIGHTREL * nb_tota
 301:Lib/lib_vision_models_pp/lib_vision_models_pp/Src/od_pp_yolov8.c ****         pOutBuff[nb_detect].conf        = best_score_array[_i];
 302:Lib/lib_vision_models_pp/lib_vision_models_pp/Src/od_pp_yolov8.c ****         pOutBuff[nb_detect].class_index = class_index_array[_i];
 303:Lib/lib_vision_models_pp/lib_vision_models_pp/Src/od_pp_yolov8.c ****         nb_detect++;
 304:Lib/lib_vision_models_pp/lib_vision_models_pp/Src/od_pp_yolov8.c ****       }
 305:Lib/lib_vision_models_pp/lib_vision_models_pp/Src/od_pp_yolov8.c ****     }
 306:Lib/lib_vision_models_pp/lib_vision_models_pp/Src/od_pp_yolov8.c ****     remaining_boxes-=4;
 307:Lib/lib_vision_models_pp/lib_vision_models_pp/Src/od_pp_yolov8.c ****   } // for nb_total_boxes
ARM GAS  /tmp/cc3HBV3p.s 			page 31


 308:Lib/lib_vision_models_pp/lib_vision_models_pp/Src/od_pp_yolov8.c ****   pInput_static_param->nb_detect = nb_detect;
 1139              		.loc 1 308 3 view .LVU368
 309:Lib/lib_vision_models_pp/lib_vision_models_pp/Src/od_pp_yolov8.c **** 
 310:Lib/lib_vision_models_pp/lib_vision_models_pp/Src/od_pp_yolov8.c ****   return (error);
 311:Lib/lib_vision_models_pp/lib_vision_models_pp/Src/od_pp_yolov8.c **** }
 1140              		.loc 1 311 1 is_stmt 0 view .LVU369
 1141 003a 0020     		movs	r0, #0
 308:Lib/lib_vision_models_pp/lib_vision_models_pp/Src/od_pp_yolov8.c **** 
 1142              		.loc 1 308 34 view .LVU370
 1143 003c E761     		str	r7, [r4, #28]
 310:Lib/lib_vision_models_pp/lib_vision_models_pp/Src/od_pp_yolov8.c **** }
 1144              		.loc 1 310 3 is_stmt 1 view .LVU371
 1145              		.loc 1 311 1 is_stmt 0 view .LVU372
 1146 003e 11B0     		add	sp, sp, #68
 1147              		.cfi_remember_state
 1148              		.cfi_def_cfa_offset 36
 1149              		@ sp needed
 1150 0040 BDE8F08F 		pop	{r4, r5, r6, r7, r8, r9, r10, fp, pc}
 1151              	.LVL93:
 1152              	.L96:
 1153              		.cfi_restore_state
 1154              	.LBB48:
 1155              	.LBB44:
 284:Lib/lib_vision_models_pp/lib_vision_models_pp/Src/od_pp_yolov8.c ****     uint32_t class_index_array[4];
 1156              		.loc 1 284 5 is_stmt 1 view .LVU373
 285:Lib/lib_vision_models_pp/lib_vision_models_pp/Src/od_pp_yolov8.c **** 
 1157              		.loc 1 285 5 view .LVU374
 287:Lib/lib_vision_models_pp/lib_vision_models_pp/Src/od_pp_yolov8.c ****                                      nb_classes,
 1158              		.loc 1 287 5 view .LVU375
 1159 0044 0DF1300A 		add	r10, sp, #48
 1160 0048 0196     		str	r6, [sp, #4]
 1161 004a 08AB     		add	r3, sp, #32
 1162 004c 0299     		ldr	r1, [sp, #8]
 1163 004e CDF800A0 		str	r10, [sp]
 1164 0052 0792     		str	r2, [sp, #28]
 1165 0054 0690     		str	r0, [sp, #24]
 1166 0056 FFF7FEFF 		bl	vision_models_maxi_tr_p_if32ou32
 1167              	.LVL94:
 293:Lib/lib_vision_models_pp/lib_vision_models_pp/Src/od_pp_yolov8.c ****     {
 1168              		.loc 1 293 5 view .LVU376
 1169              	.LBB41:
 293:Lib/lib_vision_models_pp/lib_vision_models_pp/Src/od_pp_yolov8.c ****     {
 1170              		.loc 1 293 10 view .LVU377
 293:Lib/lib_vision_models_pp/lib_vision_models_pp/Src/od_pp_yolov8.c ****     {
 1171              		.loc 1 293 10 is_stmt 0 view .LVU378
 1172 005a DDE90602 		ldrd	r0, r2, [sp, #24]
 293:Lib/lib_vision_models_pp/lib_vision_models_pp/Src/od_pp_yolov8.c ****     {
 1173              		.loc 1 293 49 discriminator 1 view .LVU379
 1174 005e 042E     		cmp	r6, #4
 1175 0060 A8BF     		it	ge
 1176 0062 0426     		movge	r6, #4
 1177              	.LVL95:
 293:Lib/lib_vision_models_pp/lib_vision_models_pp/Src/od_pp_yolov8.c ****     {
 1178              		.loc 1 293 14 view .LVU380
 1179 0064 4FF0000C 		mov	ip, #0
 1180 0068 B445     		cmp	ip, r6
 1181 006a 09EB8503 		add	r3, r9, r5, lsl #2
ARM GAS  /tmp/cc3HBV3p.s 			page 32


 302:Lib/lib_vision_models_pp/lib_vision_models_pp/Src/od_pp_yolov8.c ****         nb_detect++;
 1182              		.loc 1 302 60 view .LVU381
 1183 006e 06F1010E 		add	lr, r6, #1
 1184 0072 02DC     		bgt	.L98
 302:Lib/lib_vision_models_pp/lib_vision_models_pp/Src/od_pp_yolov8.c ****         nb_detect++;
 1185              		.loc 1 302 60 view .LVU382
 1186 0074 B6F1004F 		cmp	r6, #-2147483648
 1187 0078 01D1     		bne	.L92
 1188              	.L98:
 1189 007a 4FF0010E 		mov	lr, #1
 1190              	.LVL96:
 1191              	.L92:
 293:Lib/lib_vision_models_pp/lib_vision_models_pp/Src/od_pp_yolov8.c ****     {
 1192              		.loc 1 293 25 is_stmt 1 discriminator 1 view .LVU383
 1193 007e BEF1010E 		subs	lr, lr, #1
 1194 0082 02D1     		bne	.L95
 293:Lib/lib_vision_models_pp/lib_vision_models_pp/Src/od_pp_yolov8.c ****     {
 1195              		.loc 1 293 25 is_stmt 0 discriminator 1 view .LVU384
 1196              	.LBE41:
 306:Lib/lib_vision_models_pp/lib_vision_models_pp/Src/od_pp_yolov8.c ****   } // for nb_total_boxes
 1197              		.loc 1 306 5 is_stmt 1 view .LVU385
 1198              	.LVL97:
 306:Lib/lib_vision_models_pp/lib_vision_models_pp/Src/od_pp_yolov8.c ****   } // for nb_total_boxes
 1199              		.loc 1 306 5 is_stmt 0 view .LVU386
 1200              	.LBE44:
 282:Lib/lib_vision_models_pp/lib_vision_models_pp/Src/od_pp_yolov8.c ****   {
 1201              		.loc 1 282 44 is_stmt 1 discriminator 2 view .LVU387
 1202 0084 0435     		adds	r5, r5, #4
 1203              	.LVL98:
 282:Lib/lib_vision_models_pp/lib_vision_models_pp/Src/od_pp_yolov8.c ****   {
 1204              		.loc 1 282 44 is_stmt 0 discriminator 2 view .LVU388
 1205 0086 1030     		adds	r0, r0, #16
 1206 0088 D3E7     		b	.L91
 1207              	.LVL99:
 1208              	.L95:
 1209              	.LBB45:
 1210              	.LBB42:
 295:Lib/lib_vision_models_pp/lib_vision_models_pp/Src/od_pp_yolov8.c ****       {
 1211              		.loc 1 295 7 is_stmt 1 view .LVU389
 295:Lib/lib_vision_models_pp/lib_vision_models_pp/Src/od_pp_yolov8.c ****       {
 1212              		.loc 1 295 27 is_stmt 0 view .LVU390
 1213 008a 08A9     		add	r1, sp, #32
 1214 008c 01EB8C01 		add	r1, r1, ip, lsl #2
 1215 0090 D1ED007A 		vldr.32	s15, [r1]
 295:Lib/lib_vision_models_pp/lib_vision_models_pp/Src/od_pp_yolov8.c ****       {
 1216              		.loc 1 295 10 view .LVU391
 1217 0094 94ED037A 		vldr.32	s14, [r4, #12]
 1218 0098 F4EEC77A 		vcmpe.f32	s15, s14
 1219 009c F1EE10FA 		vmrs	APSR_nzcv, FPSCR
 1220 00a0 16DB     		blt	.L93
 297:Lib/lib_vision_models_pp/lib_vision_models_pp/Src/od_pp_yolov8.c ****         pOutBuff[nb_detect].y_center    = pRaw_detections[i + _i + AI_YOLOV8_PP_YCENTER   * nb_tota
 1221              		.loc 1 297 9 is_stmt 1 view .LVU392
 297:Lib/lib_vision_models_pp/lib_vision_models_pp/Src/od_pp_yolov8.c ****         pOutBuff[nb_detect].y_center    = pRaw_detections[i + _i + AI_YOLOV8_PP_YCENTER   * nb_tota
 1222              		.loc 1 297 17 is_stmt 0 view .LVU393
 1223 00a2 0399     		ldr	r1, [sp, #12]
 297:Lib/lib_vision_models_pp/lib_vision_models_pp/Src/od_pp_yolov8.c ****         pOutBuff[nb_detect].y_center    = pRaw_detections[i + _i + AI_YOLOV8_PP_YCENTER   * nb_tota
 1224              		.loc 1 297 58 view .LVU394
ARM GAS  /tmp/cc3HBV3p.s 			page 33


 1225 00a4 1E68     		ldr	r6, [r3]	@ float
 297:Lib/lib_vision_models_pp/lib_vision_models_pp/Src/od_pp_yolov8.c ****         pOutBuff[nb_detect].y_center    = pRaw_detections[i + _i + AI_YOLOV8_PP_YCENTER   * nb_tota
 1226              		.loc 1 297 17 view .LVU395
 1227 00a6 0BFB0711 		mla	r1, fp, r7, r1
 297:Lib/lib_vision_models_pp/lib_vision_models_pp/Src/od_pp_yolov8.c ****         pOutBuff[nb_detect].y_center    = pRaw_detections[i + _i + AI_YOLOV8_PP_YCENTER   * nb_tota
 1228              		.loc 1 297 41 view .LVU396
 1229 00aa 0E60     		str	r6, [r1]	@ float
 298:Lib/lib_vision_models_pp/lib_vision_models_pp/Src/od_pp_yolov8.c ****         pOutBuff[nb_detect].width       = pRaw_detections[i + _i + AI_YOLOV8_PP_WIDTHREL  * nb_tota
 1230              		.loc 1 298 9 is_stmt 1 view .LVU397
 298:Lib/lib_vision_models_pp/lib_vision_models_pp/Src/od_pp_yolov8.c ****         pOutBuff[nb_detect].width       = pRaw_detections[i + _i + AI_YOLOV8_PP_WIDTHREL  * nb_tota
 1231              		.loc 1 298 58 is_stmt 0 view .LVU398
 1232 00ac 049E     		ldr	r6, [sp, #16]
 303:Lib/lib_vision_models_pp/lib_vision_models_pp/Src/od_pp_yolov8.c ****       }
 1233              		.loc 1 303 18 view .LVU399
 1234 00ae 0137     		adds	r7, r7, #1
 1235              	.LVL100:
 298:Lib/lib_vision_models_pp/lib_vision_models_pp/Src/od_pp_yolov8.c ****         pOutBuff[nb_detect].width       = pRaw_detections[i + _i + AI_YOLOV8_PP_WIDTHREL  * nb_tota
 1236              		.loc 1 298 58 view .LVU400
 1237 00b0 9E19     		adds	r6, r3, r6
 1238 00b2 3668     		ldr	r6, [r6]	@ float
 298:Lib/lib_vision_models_pp/lib_vision_models_pp/Src/od_pp_yolov8.c ****         pOutBuff[nb_detect].width       = pRaw_detections[i + _i + AI_YOLOV8_PP_WIDTHREL  * nb_tota
 1239              		.loc 1 298 41 view .LVU401
 1240 00b4 4E60     		str	r6, [r1, #4]	@ float
 299:Lib/lib_vision_models_pp/lib_vision_models_pp/Src/od_pp_yolov8.c ****         pOutBuff[nb_detect].height      = pRaw_detections[i + _i + AI_YOLOV8_PP_HEIGHTREL * nb_tota
 1241              		.loc 1 299 9 is_stmt 1 view .LVU402
 299:Lib/lib_vision_models_pp/lib_vision_models_pp/Src/od_pp_yolov8.c ****         pOutBuff[nb_detect].height      = pRaw_detections[i + _i + AI_YOLOV8_PP_HEIGHTREL * nb_tota
 1242              		.loc 1 299 58 is_stmt 0 view .LVU403
 1243 00b6 059E     		ldr	r6, [sp, #20]
 1244 00b8 9E19     		adds	r6, r3, r6
 1245 00ba 3668     		ldr	r6, [r6]	@ float
 299:Lib/lib_vision_models_pp/lib_vision_models_pp/Src/od_pp_yolov8.c ****         pOutBuff[nb_detect].height      = pRaw_detections[i + _i + AI_YOLOV8_PP_HEIGHTREL * nb_tota
 1246              		.loc 1 299 41 view .LVU404
 1247 00bc 8E60     		str	r6, [r1, #8]	@ float
 300:Lib/lib_vision_models_pp/lib_vision_models_pp/Src/od_pp_yolov8.c ****         pOutBuff[nb_detect].conf        = best_score_array[_i];
 1248              		.loc 1 300 9 is_stmt 1 view .LVU405
 300:Lib/lib_vision_models_pp/lib_vision_models_pp/Src/od_pp_yolov8.c ****         pOutBuff[nb_detect].conf        = best_score_array[_i];
 1249              		.loc 1 300 58 is_stmt 0 view .LVU406
 1250 00be 03EB0806 		add	r6, r3, r8
 1251 00c2 3668     		ldr	r6, [r6]	@ float
 301:Lib/lib_vision_models_pp/lib_vision_models_pp/Src/od_pp_yolov8.c ****         pOutBuff[nb_detect].class_index = class_index_array[_i];
 1252              		.loc 1 301 41 view .LVU407
 1253 00c4 C1ED047A 		vstr.32	s15, [r1, #16]
 300:Lib/lib_vision_models_pp/lib_vision_models_pp/Src/od_pp_yolov8.c ****         pOutBuff[nb_detect].conf        = best_score_array[_i];
 1254              		.loc 1 300 41 view .LVU408
 1255 00c8 CE60     		str	r6, [r1, #12]	@ float
 301:Lib/lib_vision_models_pp/lib_vision_models_pp/Src/od_pp_yolov8.c ****         pOutBuff[nb_detect].class_index = class_index_array[_i];
 1256              		.loc 1 301 9 is_stmt 1 view .LVU409
 302:Lib/lib_vision_models_pp/lib_vision_models_pp/Src/od_pp_yolov8.c ****         nb_detect++;
 1257              		.loc 1 302 9 view .LVU410
 302:Lib/lib_vision_models_pp/lib_vision_models_pp/Src/od_pp_yolov8.c ****         nb_detect++;
 1258              		.loc 1 302 41 is_stmt 0 view .LVU411
 1259 00ca 5AF82C60 		ldr	r6, [r10, ip, lsl #2]
 1260 00ce 4E61     		str	r6, [r1, #20]
 303:Lib/lib_vision_models_pp/lib_vision_models_pp/Src/od_pp_yolov8.c ****       }
 1261              		.loc 1 303 9 is_stmt 1 view .LVU412
 1262              	.LVL101:
 1263              	.L93:
ARM GAS  /tmp/cc3HBV3p.s 			page 34


 293:Lib/lib_vision_models_pp/lib_vision_models_pp/Src/od_pp_yolov8.c ****     {
 1264              		.loc 1 293 70 discriminator 2 view .LVU413
 1265 00d0 0CF1010C 		add	ip, ip, #1
 1266              	.LVL102:
 293:Lib/lib_vision_models_pp/lib_vision_models_pp/Src/od_pp_yolov8.c ****     {
 1267              		.loc 1 293 70 is_stmt 0 discriminator 2 view .LVU414
 1268 00d4 0433     		adds	r3, r3, #4
 1269 00d6 D2E7     		b	.L92
 1270              	.LBE42:
 1271              	.LBE45:
 1272              	.LBE48:
 1273              		.cfi_endproc
 1274              	.LFE2651:
 1276              		.section	.text.yolov8_pp_getNNBoxes_centroid_int8,"ax",%progbits
 1277              		.align	1
 1278              		.global	yolov8_pp_getNNBoxes_centroid_int8
 1279              		.syntax unified
 1280              		.thumb
 1281              		.thumb_func
 1283              	yolov8_pp_getNNBoxes_centroid_int8:
 1284              	.LVL103:
 1285              	.LFB2652:
 312:Lib/lib_vision_models_pp/lib_vision_models_pp/Src/od_pp_yolov8.c **** 
 313:Lib/lib_vision_models_pp/lib_vision_models_pp/Src/od_pp_yolov8.c **** int32_t yolov8_pp_getNNBoxes_centroid_int8(od_yolov8_pp_in_centroid_t *pInput,
 314:Lib/lib_vision_models_pp/lib_vision_models_pp/Src/od_pp_yolov8.c ****                                            od_pp_out_t *pOutput,
 315:Lib/lib_vision_models_pp/lib_vision_models_pp/Src/od_pp_yolov8.c ****                                            od_yolov8_pp_static_param_t *pInput_static_param)
 316:Lib/lib_vision_models_pp/lib_vision_models_pp/Src/od_pp_yolov8.c **** {
 1286              		.loc 1 316 1 is_stmt 1 view -0
 1287              		.cfi_startproc
 1288              		@ args = 0, pretend = 0, frame = 72
 1289              		@ frame_needed = 0, uses_anonymous_args = 0
 317:Lib/lib_vision_models_pp/lib_vision_models_pp/Src/od_pp_yolov8.c ****   int32_t error   = AI_OD_POSTPROCESS_ERROR_NO;
 1290              		.loc 1 317 3 view .LVU416
 318:Lib/lib_vision_models_pp/lib_vision_models_pp/Src/od_pp_yolov8.c ****   int32_t class_index = 0;
 1291              		.loc 1 318 3 view .LVU417
 319:Lib/lib_vision_models_pp/lib_vision_models_pp/Src/od_pp_yolov8.c ****   int32_t nb_classes = pInput_static_param->nb_classes;
 1292              		.loc 1 319 3 view .LVU418
 316:Lib/lib_vision_models_pp/lib_vision_models_pp/Src/od_pp_yolov8.c ****   int32_t error   = AI_OD_POSTPROCESS_ERROR_NO;
 1293              		.loc 1 316 1 is_stmt 0 view .LVU419
 1294 0000 2DE9F04F 		push	{r4, r5, r6, r7, r8, r9, r10, fp, lr}
 1295              		.cfi_def_cfa_offset 36
 1296              		.cfi_offset 4, -36
 1297              		.cfi_offset 5, -32
 1298              		.cfi_offset 6, -28
 1299              		.cfi_offset 7, -24
 1300              		.cfi_offset 8, -20
 1301              		.cfi_offset 9, -16
 1302              		.cfi_offset 10, -12
 1303              		.cfi_offset 11, -8
 1304              		.cfi_offset 14, -4
 320:Lib/lib_vision_models_pp/lib_vision_models_pp/Src/od_pp_yolov8.c ****   int32_t nb_total_boxes = pInput_static_param->nb_total_boxes;
 321:Lib/lib_vision_models_pp/lib_vision_models_pp/Src/od_pp_yolov8.c ****   int8_t *pRaw_detections = (int8_t *)pInput->pRaw_detections;
 322:Lib/lib_vision_models_pp/lib_vision_models_pp/Src/od_pp_yolov8.c ****   int8_t zero_point = pInput_static_param->raw_output_zero_point;
 323:Lib/lib_vision_models_pp/lib_vision_models_pp/Src/od_pp_yolov8.c ****   float32_t scale = pInput_static_param->raw_output_scale;
 324:Lib/lib_vision_models_pp/lib_vision_models_pp/Src/od_pp_yolov8.c ****   float32_t best_score_f;
 325:Lib/lib_vision_models_pp/lib_vision_models_pp/Src/od_pp_yolov8.c **** 
 326:Lib/lib_vision_models_pp/lib_vision_models_pp/Src/od_pp_yolov8.c ****   int32_t remaining_boxes = nb_total_boxes;
ARM GAS  /tmp/cc3HBV3p.s 			page 35


 327:Lib/lib_vision_models_pp/lib_vision_models_pp/Src/od_pp_yolov8.c ****   int32_t nb_detect = 0;
 328:Lib/lib_vision_models_pp/lib_vision_models_pp/Src/od_pp_yolov8.c ****   int8_t conf_threshold_s8 = (int8_t)(pInput_static_param->conf_threshold / scale + 0.5f) + zero_po
 1305              		.loc 1 328 75 view .LVU420
 1306 0004 92ED037A 		vldr.32	s14, [r2, #12]
 316:Lib/lib_vision_models_pp/lib_vision_models_pp/Src/od_pp_yolov8.c ****   int32_t error   = AI_OD_POSTPROCESS_ERROR_NO;
 1307              		.loc 1 316 1 view .LVU421
 1308 0008 2DED028B 		vpush.64	{d8}
 1309              		.cfi_def_cfa_offset 44
 1310              		.cfi_offset 80, -44
 1311              		.cfi_offset 81, -40
 323:Lib/lib_vision_models_pp/lib_vision_models_pp/Src/od_pp_yolov8.c ****   float32_t best_score_f;
 1312              		.loc 1 323 13 view .LVU422
 1313 000c 92ED058A 		vldr.32	s16, [r2, #20]
 1314              		.loc 1 328 75 view .LVU423
 1315 0010 C7EE087A 		vdiv.f32	s15, s14, s16
 1316              		.loc 1 328 83 view .LVU424
 1317 0014 B6EE007A 		vmov.f32	s14, #5.0e-1
 1318 0018 77EE877A 		vadd.f32	s15, s15, s14
 1319              		.loc 1 328 30 view .LVU425
 1320 001c FDEEE77A 		vcvt.s32.f32	s15, s15
 319:Lib/lib_vision_models_pp/lib_vision_models_pp/Src/od_pp_yolov8.c ****   int32_t nb_total_boxes = pInput_static_param->nb_total_boxes;
 1321              		.loc 1 319 11 view .LVU426
 1322 0020 1368     		ldr	r3, [r2]
 316:Lib/lib_vision_models_pp/lib_vision_models_pp/Src/od_pp_yolov8.c ****   int32_t error   = AI_OD_POSTPROCESS_ERROR_NO;
 1323              		.loc 1 316 1 view .LVU427
 1324 0022 95B0     		sub	sp, sp, #84
 1325              		.cfi_def_cfa_offset 128
 319:Lib/lib_vision_models_pp/lib_vision_models_pp/Src/od_pp_yolov8.c ****   int32_t nb_total_boxes = pInput_static_param->nb_total_boxes;
 1326              		.loc 1 319 11 view .LVU428
 1327 0024 0393     		str	r3, [sp, #12]
 1328              	.LVL104:
 320:Lib/lib_vision_models_pp/lib_vision_models_pp/Src/od_pp_yolov8.c ****   int8_t *pRaw_detections = (int8_t *)pInput->pRaw_detections;
 1329              		.loc 1 320 3 is_stmt 1 view .LVU429
 1330              		.loc 1 328 30 is_stmt 0 view .LVU430
 1331 0026 17EE903A 		vmov	r3, s15	@ int
 1332              	.LVL105:
 322:Lib/lib_vision_models_pp/lib_vision_models_pp/Src/od_pp_yolov8.c ****   float32_t scale = pInput_static_param->raw_output_scale;
 1333              		.loc 1 322 10 view .LVU431
 1334 002a 92F91850 		ldrsb	r5, [r2, #24]
 320:Lib/lib_vision_models_pp/lib_vision_models_pp/Src/od_pp_yolov8.c ****   int8_t *pRaw_detections = (int8_t *)pInput->pRaw_detections;
 1335              		.loc 1 320 11 view .LVU432
 1336 002e 5468     		ldr	r4, [r2, #4]
 1337              	.LVL106:
 321:Lib/lib_vision_models_pp/lib_vision_models_pp/Src/od_pp_yolov8.c ****   int8_t zero_point = pInput_static_param->raw_output_zero_point;
 1338              		.loc 1 321 3 is_stmt 1 view .LVU433
 1339              		.loc 1 328 91 is_stmt 0 view .LVU434
 1340 0030 2B44     		add	r3, r3, r5
 1341              		.loc 1 328 10 view .LVU435
 1342 0032 5BB2     		sxtb	r3, r3
 1343 0034 0493     		str	r3, [sp, #16]
 329:Lib/lib_vision_models_pp/lib_vision_models_pp/Src/od_pp_yolov8.c **** 
 330:Lib/lib_vision_models_pp/lib_vision_models_pp/Src/od_pp_yolov8.c ****   od_pp_outBuffer_t *pOutBuff = (od_pp_outBuffer_t *)pOutput->pOutBuff;
 1344              		.loc 1 330 22 view .LVU436
 1345 0036 0B68     		ldr	r3, [r1]
 321:Lib/lib_vision_models_pp/lib_vision_models_pp/Src/od_pp_yolov8.c ****   int8_t zero_point = pInput_static_param->raw_output_zero_point;
 1346              		.loc 1 321 11 view .LVU437
 1347 0038 0668     		ldr	r6, [r0]
ARM GAS  /tmp/cc3HBV3p.s 			page 36


 1348              	.LVL107:
 322:Lib/lib_vision_models_pp/lib_vision_models_pp/Src/od_pp_yolov8.c ****   float32_t scale = pInput_static_param->raw_output_scale;
 1349              		.loc 1 322 3 is_stmt 1 view .LVU438
 323:Lib/lib_vision_models_pp/lib_vision_models_pp/Src/od_pp_yolov8.c ****   float32_t best_score_f;
 1350              		.loc 1 323 3 view .LVU439
 324:Lib/lib_vision_models_pp/lib_vision_models_pp/Src/od_pp_yolov8.c **** 
 1351              		.loc 1 324 3 view .LVU440
 326:Lib/lib_vision_models_pp/lib_vision_models_pp/Src/od_pp_yolov8.c ****   int32_t nb_detect = 0;
 1352              		.loc 1 326 3 view .LVU441
 327:Lib/lib_vision_models_pp/lib_vision_models_pp/Src/od_pp_yolov8.c ****   int8_t conf_threshold_s8 = (int8_t)(pInput_static_param->conf_threshold / scale + 0.5f) + zero_po
 1353              		.loc 1 327 3 view .LVU442
 328:Lib/lib_vision_models_pp/lib_vision_models_pp/Src/od_pp_yolov8.c **** 
 1354              		.loc 1 328 3 view .LVU443
 1355              		.loc 1 330 3 view .LVU444
 1356              		.loc 1 330 22 is_stmt 0 view .LVU445
 1357 003a 0593     		str	r3, [sp, #20]
 1358              	.LVL108:
 331:Lib/lib_vision_models_pp/lib_vision_models_pp/Src/od_pp_yolov8.c ****   if (nb_classes < 256) {
 1359              		.loc 1 331 3 is_stmt 1 view .LVU446
 1360              		.loc 1 331 6 is_stmt 0 view .LVU447
 1361 003c 039B     		ldr	r3, [sp, #12]
 1362              	.LVL109:
 316:Lib/lib_vision_models_pp/lib_vision_models_pp/Src/od_pp_yolov8.c ****   int32_t error   = AI_OD_POSTPROCESS_ERROR_NO;
 1363              		.loc 1 316 1 view .LVU448
 1364 003e 1746     		mov	r7, r2
 1365              		.loc 1 331 6 view .LVU449
 1366 0040 FF2B     		cmp	r3, #255
 1367 0042 06EB8403 		add	r3, r6, r4, lsl #2
 1368 0046 0693     		str	r3, [sp, #24]
 1369 0048 2EDD     		ble	.L101
 1370 004a 9B46     		mov	fp, r3
 326:Lib/lib_vision_models_pp/lib_vision_models_pp/Src/od_pp_yolov8.c ****   int32_t nb_detect = 0;
 1371              		.loc 1 326 11 view .LVU450
 1372 004c A146     		mov	r9, r4
 327:Lib/lib_vision_models_pp/lib_vision_models_pp/Src/od_pp_yolov8.c ****   int8_t conf_threshold_s8 = (int8_t)(pInput_static_param->conf_threshold / scale + 0.5f) + zero_po
 1373              		.loc 1 327 11 view .LVU451
 1374 004e 4FF00008 		mov	r8, #0
 1375 0052 2644     		add	r6, r6, r4
 1376              	.LVL110:
 327:Lib/lib_vision_models_pp/lib_vision_models_pp/Src/od_pp_yolov8.c ****   int8_t conf_threshold_s8 = (int8_t)(pInput_static_param->conf_threshold / scale + 0.5f) + zero_po
 1377              		.loc 1 327 11 view .LVU452
 1378 0054 C4F1000A 		rsb	r10, r4, #0
 1379              	.LVL111:
 1380              	.L102:
 1381              	.LBB49:
 1382              	.LBB50:
 332:Lib/lib_vision_models_pp/lib_vision_models_pp/Src/od_pp_yolov8.c ****     int8_t best_score_array[16];
 333:Lib/lib_vision_models_pp/lib_vision_models_pp/Src/od_pp_yolov8.c ****     uint8_t class_index_array[16];
 334:Lib/lib_vision_models_pp/lib_vision_models_pp/Src/od_pp_yolov8.c ****     for (int32_t i = 0; i < nb_total_boxes; i+=16)
 335:Lib/lib_vision_models_pp/lib_vision_models_pp/Src/od_pp_yolov8.c ****     {
 336:Lib/lib_vision_models_pp/lib_vision_models_pp/Src/od_pp_yolov8.c ****       vision_models_maxi_tr_p_is8ou8(&pRaw_detections[i + AI_YOLOV8_PP_CLASSPROB * nb_total_boxes],
 337:Lib/lib_vision_models_pp/lib_vision_models_pp/Src/od_pp_yolov8.c ****                                      nb_classes,
 338:Lib/lib_vision_models_pp/lib_vision_models_pp/Src/od_pp_yolov8.c ****                                      nb_total_boxes,
 339:Lib/lib_vision_models_pp/lib_vision_models_pp/Src/od_pp_yolov8.c ****                                      best_score_array,
 340:Lib/lib_vision_models_pp/lib_vision_models_pp/Src/od_pp_yolov8.c ****                                      class_index_array,
 341:Lib/lib_vision_models_pp/lib_vision_models_pp/Src/od_pp_yolov8.c ****                                      remaining_boxes);
 342:Lib/lib_vision_models_pp/lib_vision_models_pp/Src/od_pp_yolov8.c ****       for (int _i = 0; _i < ((remaining_boxes>16)?16:remaining_boxes); _i++)
ARM GAS  /tmp/cc3HBV3p.s 			page 37


 343:Lib/lib_vision_models_pp/lib_vision_models_pp/Src/od_pp_yolov8.c ****       {
 344:Lib/lib_vision_models_pp/lib_vision_models_pp/Src/od_pp_yolov8.c ****           if ( best_score_array[_i] >= conf_threshold_s8)
 345:Lib/lib_vision_models_pp/lib_vision_models_pp/Src/od_pp_yolov8.c ****           {
 346:Lib/lib_vision_models_pp/lib_vision_models_pp/Src/od_pp_yolov8.c ****             best_score_f = scale * (float32_t)(best_score_array[_i] - zero_point);
 347:Lib/lib_vision_models_pp/lib_vision_models_pp/Src/od_pp_yolov8.c ****             class_index = class_index_array[_i];
 348:Lib/lib_vision_models_pp/lib_vision_models_pp/Src/od_pp_yolov8.c ****             pOutBuff[nb_detect].x_center    = scale * (float32_t)((int32_t)pRaw_detections[i + _i +
 349:Lib/lib_vision_models_pp/lib_vision_models_pp/Src/od_pp_yolov8.c ****             pOutBuff[nb_detect].y_center    = scale * (float32_t)((int32_t)pRaw_detections[i + _i +
 350:Lib/lib_vision_models_pp/lib_vision_models_pp/Src/od_pp_yolov8.c ****             pOutBuff[nb_detect].width       = scale * (float32_t)((int32_t)pRaw_detections[i + _i +
 351:Lib/lib_vision_models_pp/lib_vision_models_pp/Src/od_pp_yolov8.c ****             pOutBuff[nb_detect].height      = scale * (float32_t)((int32_t)pRaw_detections[i + _i +
 352:Lib/lib_vision_models_pp/lib_vision_models_pp/Src/od_pp_yolov8.c ****             pOutBuff[nb_detect].conf        = best_score_f;
 353:Lib/lib_vision_models_pp/lib_vision_models_pp/Src/od_pp_yolov8.c ****             pOutBuff[nb_detect].class_index = class_index;
 354:Lib/lib_vision_models_pp/lib_vision_models_pp/Src/od_pp_yolov8.c ****             nb_detect++;
 355:Lib/lib_vision_models_pp/lib_vision_models_pp/Src/od_pp_yolov8.c ****           }
 356:Lib/lib_vision_models_pp/lib_vision_models_pp/Src/od_pp_yolov8.c ****       }
 357:Lib/lib_vision_models_pp/lib_vision_models_pp/Src/od_pp_yolov8.c ****       remaining_boxes-=16;
 358:Lib/lib_vision_models_pp/lib_vision_models_pp/Src/od_pp_yolov8.c ****     } // for nb_total_boxes
 359:Lib/lib_vision_models_pp/lib_vision_models_pp/Src/od_pp_yolov8.c ****   } // if nb_classes < 256
 360:Lib/lib_vision_models_pp/lib_vision_models_pp/Src/od_pp_yolov8.c ****   else
 361:Lib/lib_vision_models_pp/lib_vision_models_pp/Src/od_pp_yolov8.c ****   {
 362:Lib/lib_vision_models_pp/lib_vision_models_pp/Src/od_pp_yolov8.c ****     int8_t best_score_array[16];
 363:Lib/lib_vision_models_pp/lib_vision_models_pp/Src/od_pp_yolov8.c ****     uint16_t class_index_array[16];
 364:Lib/lib_vision_models_pp/lib_vision_models_pp/Src/od_pp_yolov8.c ****     for (int32_t i = 0; i < nb_total_boxes; i+=16)
 1383              		.loc 1 364 27 is_stmt 1 discriminator 1 view .LVU453
 1384 0058 A4EB0903 		sub	r3, r4, r9
 1385 005c 9C42     		cmp	r4, r3
 1386 005e 2DDD     		ble	.L108
 365:Lib/lib_vision_models_pp/lib_vision_models_pp/Src/od_pp_yolov8.c ****     {
 366:Lib/lib_vision_models_pp/lib_vision_models_pp/Src/od_pp_yolov8.c ****       vision_models_maxi_tr_p_is8ou16(&pRaw_detections[i + AI_YOLOV8_PP_CLASSPROB * nb_total_boxes]
 1387              		.loc 1 366 7 view .LVU454
 1388 0060 0CAB     		add	r3, sp, #48
 1389 0062 5846     		mov	r0, fp
 1390 0064 0093     		str	r3, [sp]
 1391 0066 2246     		mov	r2, r4
 1392 0068 08AB     		add	r3, sp, #32
 1393 006a 0399     		ldr	r1, [sp, #12]
 1394 006c CDF80490 		str	r9, [sp, #4]
 1395 0070 FFF7FEFF 		bl	vision_models_maxi_tr_p_is8ou16
 1396              	.LVL112:
 367:Lib/lib_vision_models_pp/lib_vision_models_pp/Src/od_pp_yolov8.c ****                                       nb_classes,
 368:Lib/lib_vision_models_pp/lib_vision_models_pp/Src/od_pp_yolov8.c ****                                       nb_total_boxes,
 369:Lib/lib_vision_models_pp/lib_vision_models_pp/Src/od_pp_yolov8.c ****                                       best_score_array,
 370:Lib/lib_vision_models_pp/lib_vision_models_pp/Src/od_pp_yolov8.c ****                                       class_index_array,
 371:Lib/lib_vision_models_pp/lib_vision_models_pp/Src/od_pp_yolov8.c ****                                       remaining_boxes);
 372:Lib/lib_vision_models_pp/lib_vision_models_pp/Src/od_pp_yolov8.c **** 
 373:Lib/lib_vision_models_pp/lib_vision_models_pp/Src/od_pp_yolov8.c ****       for (int _i = 0; _i < ((remaining_boxes>16)?16:remaining_boxes); _i++)
 1397              		.loc 1 373 7 view .LVU455
 1398              	.LBB51:
 1399              		.loc 1 373 12 view .LVU456
 1400              		.loc 1 373 53 is_stmt 0 discriminator 1 view .LVU457
 1401 0074 4B46     		mov	r3, r9
 1402 0076 102B     		cmp	r3, #16
 1403 0078 A8BF     		it	ge
 1404 007a 1023     		movge	r3, #16
 1405              		.loc 1 373 16 view .LVU458
 1406 007c 0020     		movs	r0, #0
 1407 007e 9842     		cmp	r0, r3
 374:Lib/lib_vision_models_pp/lib_vision_models_pp/Src/od_pp_yolov8.c ****       {
ARM GAS  /tmp/cc3HBV3p.s 			page 38


 375:Lib/lib_vision_models_pp/lib_vision_models_pp/Src/od_pp_yolov8.c ****         if ( best_score_array[_i] >= conf_threshold_s8)
 376:Lib/lib_vision_models_pp/lib_vision_models_pp/Src/od_pp_yolov8.c ****         {
 377:Lib/lib_vision_models_pp/lib_vision_models_pp/Src/od_pp_yolov8.c ****           best_score_f = scale * (float32_t)(best_score_array[_i] - zero_point);
 378:Lib/lib_vision_models_pp/lib_vision_models_pp/Src/od_pp_yolov8.c ****           class_index = class_index_array[_i];
 379:Lib/lib_vision_models_pp/lib_vision_models_pp/Src/od_pp_yolov8.c ****           pOutBuff[nb_detect].x_center    = scale * (float32_t)((int32_t)pRaw_detections[i + AI_YOL
 1408              		.loc 1 379 19 view .LVU459
 1409 0080 4FF0180E 		mov	lr, #24
 1410 0084 03F1010C 		add	ip, r3, #1
 1411 0088 02DC     		bgt	.L114
 1412 008a B3F1004F 		cmp	r3, #-2147483648
 1413 008e 01D1     		bne	.L109
 1414              	.L114:
 1415 0090 4FF0010C 		mov	ip, #1
 1416              	.LVL113:
 1417              	.L109:
 373:Lib/lib_vision_models_pp/lib_vision_models_pp/Src/od_pp_yolov8.c ****       {
 1418              		.loc 1 373 27 is_stmt 1 discriminator 1 view .LVU460
 1419 0094 BCF1010C 		subs	ip, ip, #1
 1420 0098 40F08880 		bne	.L111
 373:Lib/lib_vision_models_pp/lib_vision_models_pp/Src/od_pp_yolov8.c ****       {
 1421              		.loc 1 373 27 is_stmt 0 discriminator 1 view .LVU461
 1422              	.LBE51:
 380:Lib/lib_vision_models_pp/lib_vision_models_pp/Src/od_pp_yolov8.c ****           pOutBuff[nb_detect].y_center    = scale * (float32_t)((int32_t)pRaw_detections[i + AI_YOL
 381:Lib/lib_vision_models_pp/lib_vision_models_pp/Src/od_pp_yolov8.c ****           pOutBuff[nb_detect].width       = scale * (float32_t)((int32_t)pRaw_detections[i + AI_YOL
 382:Lib/lib_vision_models_pp/lib_vision_models_pp/Src/od_pp_yolov8.c ****           pOutBuff[nb_detect].height      = scale * (float32_t)((int32_t)pRaw_detections[i + AI_YOL
 383:Lib/lib_vision_models_pp/lib_vision_models_pp/Src/od_pp_yolov8.c ****           pOutBuff[nb_detect].conf        = best_score_f;
 384:Lib/lib_vision_models_pp/lib_vision_models_pp/Src/od_pp_yolov8.c ****           pOutBuff[nb_detect].class_index = class_index;
 385:Lib/lib_vision_models_pp/lib_vision_models_pp/Src/od_pp_yolov8.c ****           nb_detect++;
 386:Lib/lib_vision_models_pp/lib_vision_models_pp/Src/od_pp_yolov8.c ****         }
 387:Lib/lib_vision_models_pp/lib_vision_models_pp/Src/od_pp_yolov8.c ****       }
 388:Lib/lib_vision_models_pp/lib_vision_models_pp/Src/od_pp_yolov8.c ****       remaining_boxes-=16;
 1423              		.loc 1 388 7 is_stmt 1 view .LVU462
 1424              		.loc 1 388 22 is_stmt 0 view .LVU463
 1425 009c A9F11009 		sub	r9, r9, #16
 1426              	.LVL114:
 364:Lib/lib_vision_models_pp/lib_vision_models_pp/Src/od_pp_yolov8.c ****     {
 1427              		.loc 1 364 46 is_stmt 1 discriminator 2 view .LVU464
 364:Lib/lib_vision_models_pp/lib_vision_models_pp/Src/od_pp_yolov8.c ****     {
 1428              		.loc 1 364 46 is_stmt 0 discriminator 2 view .LVU465
 1429 00a0 0BF1100B 		add	fp, fp, #16
 1430 00a4 1036     		adds	r6, r6, #16
 1431 00a6 D7E7     		b	.L102
 1432              	.LVL115:
 1433              	.L101:
 364:Lib/lib_vision_models_pp/lib_vision_models_pp/Src/od_pp_yolov8.c ****     {
 1434              		.loc 1 364 46 discriminator 2 view .LVU466
 1435              	.LBE50:
 1436              	.LBE49:
 1437              	.LBB54:
 1438              	.LBB55:
 334:Lib/lib_vision_models_pp/lib_vision_models_pp/Src/od_pp_yolov8.c ****     {
 1439              		.loc 1 334 18 view .LVU467
 1440 00a8 4FF00009 		mov	r9, #0
 1441              	.LBE55:
 1442              	.LBE54:
 327:Lib/lib_vision_models_pp/lib_vision_models_pp/Src/od_pp_yolov8.c ****   int8_t conf_threshold_s8 = (int8_t)(pInput_static_param->conf_threshold / scale + 0.5f) + zero_po
 1443              		.loc 1 327 11 view .LVU468
ARM GAS  /tmp/cc3HBV3p.s 			page 39


 1444 00ac C846     		mov	r8, r9
 1445 00ae 06EB4403 		add	r3, r6, r4, lsl #1
 1446 00b2 0793     		str	r3, [sp, #28]
 1447              	.LVL116:
 1448              	.L103:
 1449              	.LBB60:
 1450              	.LBB58:
 334:Lib/lib_vision_models_pp/lib_vision_models_pp/Src/od_pp_yolov8.c ****     {
 1451              		.loc 1 334 27 discriminator 1 view .LVU469
 1452 00b4 A145     		cmp	r9, r4
 1453 00b6 A4EB090A 		sub	r10, r4, r9
 1454              	.LVL117:
 334:Lib/lib_vision_models_pp/lib_vision_models_pp/Src/od_pp_yolov8.c ****     {
 1455              		.loc 1 334 27 is_stmt 1 discriminator 1 view .LVU470
 1456 00ba 07DB     		blt	.L107
 1457              	.LVL118:
 1458              	.L108:
 334:Lib/lib_vision_models_pp/lib_vision_models_pp/Src/od_pp_yolov8.c ****     {
 1459              		.loc 1 334 27 is_stmt 0 discriminator 1 view .LVU471
 1460              	.LBE58:
 1461              	.LBE60:
 389:Lib/lib_vision_models_pp/lib_vision_models_pp/Src/od_pp_yolov8.c ****     } // for nb_total_boxes
 390:Lib/lib_vision_models_pp/lib_vision_models_pp/Src/od_pp_yolov8.c ****   } // else if nb_classes < 256
 391:Lib/lib_vision_models_pp/lib_vision_models_pp/Src/od_pp_yolov8.c ****   pInput_static_param->nb_detect = nb_detect;
 1462              		.loc 1 391 3 is_stmt 1 view .LVU472
 392:Lib/lib_vision_models_pp/lib_vision_models_pp/Src/od_pp_yolov8.c **** 
 393:Lib/lib_vision_models_pp/lib_vision_models_pp/Src/od_pp_yolov8.c ****   return (error);
 394:Lib/lib_vision_models_pp/lib_vision_models_pp/Src/od_pp_yolov8.c **** }
 1463              		.loc 1 394 1 is_stmt 0 view .LVU473
 1464 00bc 0020     		movs	r0, #0
 391:Lib/lib_vision_models_pp/lib_vision_models_pp/Src/od_pp_yolov8.c **** 
 1465              		.loc 1 391 34 view .LVU474
 1466 00be C7F81C80 		str	r8, [r7, #28]
 393:Lib/lib_vision_models_pp/lib_vision_models_pp/Src/od_pp_yolov8.c **** }
 1467              		.loc 1 393 3 is_stmt 1 view .LVU475
 1468              		.loc 1 394 1 is_stmt 0 view .LVU476
 1469 00c2 15B0     		add	sp, sp, #84
 1470              		.cfi_remember_state
 1471              		.cfi_def_cfa_offset 44
 1472              		@ sp needed
 1473 00c4 BDEC028B 		vldm	sp!, {d8}
 1474              		.cfi_restore 80
 1475              		.cfi_restore 81
 1476              		.cfi_def_cfa_offset 36
 1477              	.LVL119:
 1478              		.loc 1 394 1 view .LVU477
 1479 00c8 BDE8F08F 		pop	{r4, r5, r6, r7, r8, r9, r10, fp, pc}
 1480              	.LVL120:
 1481              	.L107:
 1482              		.cfi_restore_state
 1483              	.LBB61:
 1484              	.LBB59:
 336:Lib/lib_vision_models_pp/lib_vision_models_pp/Src/od_pp_yolov8.c ****                                      nb_classes,
 1485              		.loc 1 336 7 is_stmt 1 view .LVU478
 1486 00cc 0698     		ldr	r0, [sp, #24]
 1487 00ce 0CAB     		add	r3, sp, #48
 1488 00d0 CDF804A0 		str	r10, [sp, #4]
ARM GAS  /tmp/cc3HBV3p.s 			page 40


 1489 00d4 0093     		str	r3, [sp]
 1490 00d6 4844     		add	r0, r9, r0
 1491 00d8 08AB     		add	r3, sp, #32
 1492 00da 2246     		mov	r2, r4
 1493 00dc 0399     		ldr	r1, [sp, #12]
 1494 00de FFF7FEFF 		bl	vision_models_maxi_tr_p_is8ou8
 1495              	.LVL121:
 342:Lib/lib_vision_models_pp/lib_vision_models_pp/Src/od_pp_yolov8.c ****       {
 1496              		.loc 1 342 7 view .LVU479
 1497              	.LBB56:
 342:Lib/lib_vision_models_pp/lib_vision_models_pp/Src/od_pp_yolov8.c ****       {
 1498              		.loc 1 342 12 view .LVU480
 342:Lib/lib_vision_models_pp/lib_vision_models_pp/Src/od_pp_yolov8.c ****       {
 1499              		.loc 1 342 53 is_stmt 0 discriminator 1 view .LVU481
 1500 00e2 BAF1100F 		cmp	r10, #16
 1501 00e6 A8BF     		it	ge
 1502 00e8 4FF0100A 		movge	r10, #16
 1503              	.LVL122:
 342:Lib/lib_vision_models_pp/lib_vision_models_pp/Src/od_pp_yolov8.c ****       {
 1504              		.loc 1 342 16 view .LVU482
 1505 00ec 0020     		movs	r0, #0
 1506 00ee 079B     		ldr	r3, [sp, #28]
 1507 00f0 5045     		cmp	r0, r10
 1508 00f2 06EB090E 		add	lr, r6, r9
 1509 00f6 03EB090B 		add	fp, r3, r9
 348:Lib/lib_vision_models_pp/lib_vision_models_pp/Src/od_pp_yolov8.c ****             pOutBuff[nb_detect].y_center    = scale * (float32_t)((int32_t)pRaw_detections[i + _i +
 1510              		.loc 1 348 21 view .LVU483
 1511 00fa 0AF1010C 		add	ip, r10, #1
 1512 00fe 02DC     		bgt	.L113
 1513 0100 BAF1004F 		cmp	r10, #-2147483648
 1514 0104 01D1     		bne	.L104
 1515              	.L113:
 1516 0106 4FF0010C 		mov	ip, #1
 1517              	.LVL123:
 1518              	.L104:
 342:Lib/lib_vision_models_pp/lib_vision_models_pp/Src/od_pp_yolov8.c ****       {
 1519              		.loc 1 342 27 is_stmt 1 discriminator 1 view .LVU484
 1520 010a BCF1010C 		subs	ip, ip, #1
 1521 010e 02D1     		bne	.L106
 342:Lib/lib_vision_models_pp/lib_vision_models_pp/Src/od_pp_yolov8.c ****       {
 1522              		.loc 1 342 27 is_stmt 0 discriminator 1 view .LVU485
 1523              	.LBE56:
 357:Lib/lib_vision_models_pp/lib_vision_models_pp/Src/od_pp_yolov8.c ****     } // for nb_total_boxes
 1524              		.loc 1 357 7 is_stmt 1 view .LVU486
 1525              	.LVL124:
 334:Lib/lib_vision_models_pp/lib_vision_models_pp/Src/od_pp_yolov8.c ****     {
 1526              		.loc 1 334 46 discriminator 2 view .LVU487
 1527 0110 09F11009 		add	r9, r9, #16
 1528              	.LVL125:
 334:Lib/lib_vision_models_pp/lib_vision_models_pp/Src/od_pp_yolov8.c ****     {
 1529              		.loc 1 334 46 is_stmt 0 discriminator 2 view .LVU488
 1530 0114 CEE7     		b	.L103
 1531              	.LVL126:
 1532              	.L106:
 1533              	.LBB57:
 344:Lib/lib_vision_models_pp/lib_vision_models_pp/Src/od_pp_yolov8.c ****           {
 1534              		.loc 1 344 11 is_stmt 1 view .LVU489
ARM GAS  /tmp/cc3HBV3p.s 			page 41


 344:Lib/lib_vision_models_pp/lib_vision_models_pp/Src/od_pp_yolov8.c ****           {
 1535              		.loc 1 344 32 is_stmt 0 view .LVU490
 1536 0116 08AB     		add	r3, sp, #32
 1537 0118 1B56     		ldrsb	r3, [r3, r0]
 344:Lib/lib_vision_models_pp/lib_vision_models_pp/Src/od_pp_yolov8.c ****           {
 1538              		.loc 1 344 14 view .LVU491
 1539 011a 049A     		ldr	r2, [sp, #16]
 1540 011c 9342     		cmp	r3, r2
 1541 011e 3FDB     		blt	.L105
 346:Lib/lib_vision_models_pp/lib_vision_models_pp/Src/od_pp_yolov8.c ****             class_index = class_index_array[_i];
 1542              		.loc 1 346 13 is_stmt 1 view .LVU492
 1543              	.LVL127:
 347:Lib/lib_vision_models_pp/lib_vision_models_pp/Src/od_pp_yolov8.c ****             pOutBuff[nb_detect].x_center    = scale * (float32_t)((int32_t)pRaw_detections[i + _i +
 1544              		.loc 1 347 13 view .LVU493
 348:Lib/lib_vision_models_pp/lib_vision_models_pp/Src/od_pp_yolov8.c ****             pOutBuff[nb_detect].y_center    = scale * (float32_t)((int32_t)pRaw_detections[i + _i +
 1545              		.loc 1 348 21 is_stmt 0 view .LVU494
 1546 0120 1821     		movs	r1, #24
 347:Lib/lib_vision_models_pp/lib_vision_models_pp/Src/od_pp_yolov8.c ****             pOutBuff[nb_detect].x_center    = scale * (float32_t)((int32_t)pRaw_detections[i + _i +
 1547              		.loc 1 347 25 view .LVU495
 1548 0122 0CAA     		add	r2, sp, #48
 1549 0124 12F800A0 		ldrb	r10, [r2, r0]	@ zero_extendqisi2
 1550              	.LVL128:
 348:Lib/lib_vision_models_pp/lib_vision_models_pp/Src/od_pp_yolov8.c ****             pOutBuff[nb_detect].y_center    = scale * (float32_t)((int32_t)pRaw_detections[i + _i +
 1551              		.loc 1 348 13 is_stmt 1 view .LVU496
 348:Lib/lib_vision_models_pp/lib_vision_models_pp/Src/od_pp_yolov8.c ****             pOutBuff[nb_detect].y_center    = scale * (float32_t)((int32_t)pRaw_detections[i + _i +
 1552              		.loc 1 348 21 is_stmt 0 view .LVU497
 1553 0128 059A     		ldr	r2, [sp, #20]
 346:Lib/lib_vision_models_pp/lib_vision_models_pp/Src/od_pp_yolov8.c ****             class_index = class_index_array[_i];
 1554              		.loc 1 346 69 view .LVU498
 1555 012a 5B1B     		subs	r3, r3, r5
 1556              	.LVL129:
 348:Lib/lib_vision_models_pp/lib_vision_models_pp/Src/od_pp_yolov8.c ****             pOutBuff[nb_detect].y_center    = scale * (float32_t)((int32_t)pRaw_detections[i + _i +
 1557              		.loc 1 348 21 view .LVU499
 1558 012c 01FB0821 		mla	r1, r1, r8, r2
 348:Lib/lib_vision_models_pp/lib_vision_models_pp/Src/od_pp_yolov8.c ****             pOutBuff[nb_detect].y_center    = scale * (float32_t)((int32_t)pRaw_detections[i + _i +
 1559              		.loc 1 348 67 view .LVU500
 1560 0130 9EF90020 		ldrsb	r2, [lr]
 354:Lib/lib_vision_models_pp/lib_vision_models_pp/Src/od_pp_yolov8.c ****           }
 1561              		.loc 1 354 22 view .LVU501
 1562 0134 08F10108 		add	r8, r8, #1
 1563              	.LVL130:
 348:Lib/lib_vision_models_pp/lib_vision_models_pp/Src/od_pp_yolov8.c ****             pOutBuff[nb_detect].y_center    = scale * (float32_t)((int32_t)pRaw_detections[i + _i +
 1564              		.loc 1 348 142 view .LVU502
 1565 0138 521B     		subs	r2, r2, r5
 1566 013a 07EE902A 		vmov	s15, r2	@ int
 348:Lib/lib_vision_models_pp/lib_vision_models_pp/Src/od_pp_yolov8.c ****             pOutBuff[nb_detect].y_center    = scale * (float32_t)((int32_t)pRaw_detections[i + _i +
 1567              		.loc 1 348 55 view .LVU503
 1568 013e F8EEE77A 		vcvt.f32.s32	s15, s15
 348:Lib/lib_vision_models_pp/lib_vision_models_pp/Src/od_pp_yolov8.c ****             pOutBuff[nb_detect].y_center    = scale * (float32_t)((int32_t)pRaw_detections[i + _i +
 1569              		.loc 1 348 53 view .LVU504
 1570 0142 67EE887A 		vmul.f32	s15, s15, s16
 348:Lib/lib_vision_models_pp/lib_vision_models_pp/Src/od_pp_yolov8.c ****             pOutBuff[nb_detect].y_center    = scale * (float32_t)((int32_t)pRaw_detections[i + _i +
 1571              		.loc 1 348 45 view .LVU505
 1572 0146 C1ED007A 		vstr.32	s15, [r1]
 1573              	.LVL131:
 349:Lib/lib_vision_models_pp/lib_vision_models_pp/Src/od_pp_yolov8.c ****             pOutBuff[nb_detect].width       = scale * (float32_t)((int32_t)pRaw_detections[i + _i +
 1574              		.loc 1 349 13 is_stmt 1 view .LVU506
ARM GAS  /tmp/cc3HBV3p.s 			page 42


 349:Lib/lib_vision_models_pp/lib_vision_models_pp/Src/od_pp_yolov8.c ****             pOutBuff[nb_detect].width       = scale * (float32_t)((int32_t)pRaw_detections[i + _i +
 1575              		.loc 1 349 67 is_stmt 0 view .LVU507
 1576 014a 1EF90420 		ldrsb	r2, [lr, r4]
 349:Lib/lib_vision_models_pp/lib_vision_models_pp/Src/od_pp_yolov8.c ****             pOutBuff[nb_detect].width       = scale * (float32_t)((int32_t)pRaw_detections[i + _i +
 1577              		.loc 1 349 142 view .LVU508
 1578 014e 521B     		subs	r2, r2, r5
 1579 0150 07EE902A 		vmov	s15, r2	@ int
 349:Lib/lib_vision_models_pp/lib_vision_models_pp/Src/od_pp_yolov8.c ****             pOutBuff[nb_detect].width       = scale * (float32_t)((int32_t)pRaw_detections[i + _i +
 1580              		.loc 1 349 55 view .LVU509
 1581 0154 F8EEE77A 		vcvt.f32.s32	s15, s15
 349:Lib/lib_vision_models_pp/lib_vision_models_pp/Src/od_pp_yolov8.c ****             pOutBuff[nb_detect].width       = scale * (float32_t)((int32_t)pRaw_detections[i + _i +
 1582              		.loc 1 349 53 view .LVU510
 1583 0158 67EE887A 		vmul.f32	s15, s15, s16
 349:Lib/lib_vision_models_pp/lib_vision_models_pp/Src/od_pp_yolov8.c ****             pOutBuff[nb_detect].width       = scale * (float32_t)((int32_t)pRaw_detections[i + _i +
 1584              		.loc 1 349 45 view .LVU511
 1585 015c C1ED017A 		vstr.32	s15, [r1, #4]
 350:Lib/lib_vision_models_pp/lib_vision_models_pp/Src/od_pp_yolov8.c ****             pOutBuff[nb_detect].height      = scale * (float32_t)((int32_t)pRaw_detections[i + _i +
 1586              		.loc 1 350 13 is_stmt 1 view .LVU512
 350:Lib/lib_vision_models_pp/lib_vision_models_pp/Src/od_pp_yolov8.c ****             pOutBuff[nb_detect].height      = scale * (float32_t)((int32_t)pRaw_detections[i + _i +
 1587              		.loc 1 350 67 is_stmt 0 view .LVU513
 1588 0160 9BF90020 		ldrsb	r2, [fp]
 350:Lib/lib_vision_models_pp/lib_vision_models_pp/Src/od_pp_yolov8.c ****             pOutBuff[nb_detect].height      = scale * (float32_t)((int32_t)pRaw_detections[i + _i +
 1589              		.loc 1 350 142 view .LVU514
 1590 0164 521B     		subs	r2, r2, r5
 1591 0166 07EE902A 		vmov	s15, r2	@ int
 350:Lib/lib_vision_models_pp/lib_vision_models_pp/Src/od_pp_yolov8.c ****             pOutBuff[nb_detect].height      = scale * (float32_t)((int32_t)pRaw_detections[i + _i +
 1592              		.loc 1 350 55 view .LVU515
 1593 016a F8EEE77A 		vcvt.f32.s32	s15, s15
 350:Lib/lib_vision_models_pp/lib_vision_models_pp/Src/od_pp_yolov8.c ****             pOutBuff[nb_detect].height      = scale * (float32_t)((int32_t)pRaw_detections[i + _i +
 1594              		.loc 1 350 53 view .LVU516
 1595 016e 67EE887A 		vmul.f32	s15, s15, s16
 350:Lib/lib_vision_models_pp/lib_vision_models_pp/Src/od_pp_yolov8.c ****             pOutBuff[nb_detect].height      = scale * (float32_t)((int32_t)pRaw_detections[i + _i +
 1596              		.loc 1 350 45 view .LVU517
 1597 0172 C1ED027A 		vstr.32	s15, [r1, #8]
 351:Lib/lib_vision_models_pp/lib_vision_models_pp/Src/od_pp_yolov8.c ****             pOutBuff[nb_detect].conf        = best_score_f;
 1598              		.loc 1 351 13 is_stmt 1 view .LVU518
 351:Lib/lib_vision_models_pp/lib_vision_models_pp/Src/od_pp_yolov8.c ****             pOutBuff[nb_detect].conf        = best_score_f;
 1599              		.loc 1 351 67 is_stmt 0 view .LVU519
 1600 0176 1BF90420 		ldrsb	r2, [fp, r4]
 353:Lib/lib_vision_models_pp/lib_vision_models_pp/Src/od_pp_yolov8.c ****             nb_detect++;
 1601              		.loc 1 353 45 view .LVU520
 1602 017a C1F814A0 		str	r10, [r1, #20]
 351:Lib/lib_vision_models_pp/lib_vision_models_pp/Src/od_pp_yolov8.c ****             pOutBuff[nb_detect].conf        = best_score_f;
 1603              		.loc 1 351 142 view .LVU521
 1604 017e 521B     		subs	r2, r2, r5
 1605 0180 07EE902A 		vmov	s15, r2	@ int
 351:Lib/lib_vision_models_pp/lib_vision_models_pp/Src/od_pp_yolov8.c ****             pOutBuff[nb_detect].conf        = best_score_f;
 1606              		.loc 1 351 55 view .LVU522
 1607 0184 F8EEE77A 		vcvt.f32.s32	s15, s15
 351:Lib/lib_vision_models_pp/lib_vision_models_pp/Src/od_pp_yolov8.c ****             pOutBuff[nb_detect].conf        = best_score_f;
 1608              		.loc 1 351 53 view .LVU523
 1609 0188 67EE887A 		vmul.f32	s15, s15, s16
 351:Lib/lib_vision_models_pp/lib_vision_models_pp/Src/od_pp_yolov8.c ****             pOutBuff[nb_detect].conf        = best_score_f;
 1610              		.loc 1 351 45 view .LVU524
 1611 018c C1ED037A 		vstr.32	s15, [r1, #12]
 352:Lib/lib_vision_models_pp/lib_vision_models_pp/Src/od_pp_yolov8.c ****             pOutBuff[nb_detect].class_index = class_index;
 1612              		.loc 1 352 13 is_stmt 1 view .LVU525
ARM GAS  /tmp/cc3HBV3p.s 			page 43


 346:Lib/lib_vision_models_pp/lib_vision_models_pp/Src/od_pp_yolov8.c ****             class_index = class_index_array[_i];
 1613              		.loc 1 346 69 is_stmt 0 view .LVU526
 1614 0190 07EE903A 		vmov	s15, r3	@ int
 346:Lib/lib_vision_models_pp/lib_vision_models_pp/Src/od_pp_yolov8.c ****             class_index = class_index_array[_i];
 1615              		.loc 1 346 36 view .LVU527
 1616 0194 F8EEE77A 		vcvt.f32.s32	s15, s15
 346:Lib/lib_vision_models_pp/lib_vision_models_pp/Src/od_pp_yolov8.c ****             class_index = class_index_array[_i];
 1617              		.loc 1 346 26 view .LVU528
 1618 0198 67EE887A 		vmul.f32	s15, s15, s16
 352:Lib/lib_vision_models_pp/lib_vision_models_pp/Src/od_pp_yolov8.c ****             pOutBuff[nb_detect].class_index = class_index;
 1619              		.loc 1 352 45 view .LVU529
 1620 019c C1ED047A 		vstr.32	s15, [r1, #16]
 353:Lib/lib_vision_models_pp/lib_vision_models_pp/Src/od_pp_yolov8.c ****             nb_detect++;
 1621              		.loc 1 353 13 is_stmt 1 view .LVU530
 354:Lib/lib_vision_models_pp/lib_vision_models_pp/Src/od_pp_yolov8.c ****           }
 1622              		.loc 1 354 13 view .LVU531
 1623              	.LVL132:
 1624              	.L105:
 342:Lib/lib_vision_models_pp/lib_vision_models_pp/Src/od_pp_yolov8.c ****       {
 1625              		.loc 1 342 74 discriminator 2 view .LVU532
 1626 01a0 0130     		adds	r0, r0, #1
 1627              	.LVL133:
 342:Lib/lib_vision_models_pp/lib_vision_models_pp/Src/od_pp_yolov8.c ****       {
 1628              		.loc 1 342 74 is_stmt 0 discriminator 2 view .LVU533
 1629 01a2 0EF1010E 		add	lr, lr, #1
 1630 01a6 0BF1010B 		add	fp, fp, #1
 1631 01aa AEE7     		b	.L104
 1632              	.LVL134:
 1633              	.L111:
 342:Lib/lib_vision_models_pp/lib_vision_models_pp/Src/od_pp_yolov8.c ****       {
 1634              		.loc 1 342 74 discriminator 2 view .LVU534
 1635              	.LBE57:
 1636              	.LBE59:
 1637              	.LBE61:
 1638              	.LBB62:
 1639              	.LBB53:
 1640              	.LBB52:
 375:Lib/lib_vision_models_pp/lib_vision_models_pp/Src/od_pp_yolov8.c ****         {
 1641              		.loc 1 375 9 is_stmt 1 view .LVU535
 375:Lib/lib_vision_models_pp/lib_vision_models_pp/Src/od_pp_yolov8.c ****         {
 1642              		.loc 1 375 30 is_stmt 0 view .LVU536
 1643 01ac 08AB     		add	r3, sp, #32
 1644 01ae 1B56     		ldrsb	r3, [r3, r0]
 375:Lib/lib_vision_models_pp/lib_vision_models_pp/Src/od_pp_yolov8.c ****         {
 1645              		.loc 1 375 12 view .LVU537
 1646 01b0 049A     		ldr	r2, [sp, #16]
 1647 01b2 9342     		cmp	r3, r2
 1648 01b4 3EDB     		blt	.L110
 377:Lib/lib_vision_models_pp/lib_vision_models_pp/Src/od_pp_yolov8.c ****           class_index = class_index_array[_i];
 1649              		.loc 1 377 11 is_stmt 1 view .LVU538
 1650              	.LVL135:
 378:Lib/lib_vision_models_pp/lib_vision_models_pp/Src/od_pp_yolov8.c ****           pOutBuff[nb_detect].x_center    = scale * (float32_t)((int32_t)pRaw_detections[i + AI_YOL
 1651              		.loc 1 378 11 view .LVU539
 378:Lib/lib_vision_models_pp/lib_vision_models_pp/Src/od_pp_yolov8.c ****           pOutBuff[nb_detect].x_center    = scale * (float32_t)((int32_t)pRaw_detections[i + AI_YOL
 1652              		.loc 1 378 23 is_stmt 0 view .LVU540
 1653 01b6 0CAA     		add	r2, sp, #48
 1654 01b8 32F81020 		ldrh	r2, [r2, r0, lsl #1]
ARM GAS  /tmp/cc3HBV3p.s 			page 44


 377:Lib/lib_vision_models_pp/lib_vision_models_pp/Src/od_pp_yolov8.c ****           class_index = class_index_array[_i];
 1655              		.loc 1 377 67 view .LVU541
 1656 01bc 5B1B     		subs	r3, r3, r5
 1657              	.LVL136:
 378:Lib/lib_vision_models_pp/lib_vision_models_pp/Src/od_pp_yolov8.c ****           pOutBuff[nb_detect].x_center    = scale * (float32_t)((int32_t)pRaw_detections[i + AI_YOL
 1658              		.loc 1 378 23 view .LVU542
 1659 01be 0692     		str	r2, [sp, #24]
 1660              	.LVL137:
 379:Lib/lib_vision_models_pp/lib_vision_models_pp/Src/od_pp_yolov8.c ****           pOutBuff[nb_detect].y_center    = scale * (float32_t)((int32_t)pRaw_detections[i + AI_YOL
 1661              		.loc 1 379 11 is_stmt 1 view .LVU543
 379:Lib/lib_vision_models_pp/lib_vision_models_pp/Src/od_pp_yolov8.c ****           pOutBuff[nb_detect].y_center    = scale * (float32_t)((int32_t)pRaw_detections[i + AI_YOL
 1662              		.loc 1 379 19 is_stmt 0 view .LVU544
 1663 01c0 059A     		ldr	r2, [sp, #20]
 1664              	.LVL138:
 379:Lib/lib_vision_models_pp/lib_vision_models_pp/Src/od_pp_yolov8.c ****           pOutBuff[nb_detect].y_center    = scale * (float32_t)((int32_t)pRaw_detections[i + AI_YOL
 1665              		.loc 1 379 19 view .LVU545
 1666 01c2 0EFB0821 		mla	r1, lr, r8, r2
 379:Lib/lib_vision_models_pp/lib_vision_models_pp/Src/od_pp_yolov8.c ****           pOutBuff[nb_detect].y_center    = scale * (float32_t)((int32_t)pRaw_detections[i + AI_YOL
 1667              		.loc 1 379 65 view .LVU546
 1668 01c6 16F90A20 		ldrsb	r2, [r6, r10]
 385:Lib/lib_vision_models_pp/lib_vision_models_pp/Src/od_pp_yolov8.c ****         }
 1669              		.loc 1 385 20 view .LVU547
 1670 01ca 08F10108 		add	r8, r8, #1
 1671              	.LVL139:
 379:Lib/lib_vision_models_pp/lib_vision_models_pp/Src/od_pp_yolov8.c ****           pOutBuff[nb_detect].y_center    = scale * (float32_t)((int32_t)pRaw_detections[i + AI_YOL
 1672              		.loc 1 379 135 view .LVU548
 1673 01ce 521B     		subs	r2, r2, r5
 1674 01d0 07EE902A 		vmov	s15, r2	@ int
 379:Lib/lib_vision_models_pp/lib_vision_models_pp/Src/od_pp_yolov8.c ****           pOutBuff[nb_detect].y_center    = scale * (float32_t)((int32_t)pRaw_detections[i + AI_YOL
 1675              		.loc 1 379 53 view .LVU549
 1676 01d4 F8EEE77A 		vcvt.f32.s32	s15, s15
 379:Lib/lib_vision_models_pp/lib_vision_models_pp/Src/od_pp_yolov8.c ****           pOutBuff[nb_detect].y_center    = scale * (float32_t)((int32_t)pRaw_detections[i + AI_YOL
 1677              		.loc 1 379 51 view .LVU550
 1678 01d8 67EE887A 		vmul.f32	s15, s15, s16
 379:Lib/lib_vision_models_pp/lib_vision_models_pp/Src/od_pp_yolov8.c ****           pOutBuff[nb_detect].y_center    = scale * (float32_t)((int32_t)pRaw_detections[i + AI_YOL
 1679              		.loc 1 379 43 view .LVU551
 1680 01dc C1ED007A 		vstr.32	s15, [r1]
 1681              	.LVL140:
 380:Lib/lib_vision_models_pp/lib_vision_models_pp/Src/od_pp_yolov8.c ****           pOutBuff[nb_detect].width       = scale * (float32_t)((int32_t)pRaw_detections[i + AI_YOL
 1682              		.loc 1 380 11 is_stmt 1 view .LVU552
 380:Lib/lib_vision_models_pp/lib_vision_models_pp/Src/od_pp_yolov8.c ****           pOutBuff[nb_detect].width       = scale * (float32_t)((int32_t)pRaw_detections[i + AI_YOL
 1683              		.loc 1 380 65 is_stmt 0 view .LVU553
 1684 01e0 96F90020 		ldrsb	r2, [r6]
 380:Lib/lib_vision_models_pp/lib_vision_models_pp/Src/od_pp_yolov8.c ****           pOutBuff[nb_detect].width       = scale * (float32_t)((int32_t)pRaw_detections[i + AI_YOL
 1685              		.loc 1 380 135 view .LVU554
 1686 01e4 521B     		subs	r2, r2, r5
 1687 01e6 07EE902A 		vmov	s15, r2	@ int
 380:Lib/lib_vision_models_pp/lib_vision_models_pp/Src/od_pp_yolov8.c ****           pOutBuff[nb_detect].width       = scale * (float32_t)((int32_t)pRaw_detections[i + AI_YOL
 1688              		.loc 1 380 53 view .LVU555
 1689 01ea F8EEE77A 		vcvt.f32.s32	s15, s15
 380:Lib/lib_vision_models_pp/lib_vision_models_pp/Src/od_pp_yolov8.c ****           pOutBuff[nb_detect].width       = scale * (float32_t)((int32_t)pRaw_detections[i + AI_YOL
 1690              		.loc 1 380 51 view .LVU556
 1691 01ee 67EE887A 		vmul.f32	s15, s15, s16
 380:Lib/lib_vision_models_pp/lib_vision_models_pp/Src/od_pp_yolov8.c ****           pOutBuff[nb_detect].width       = scale * (float32_t)((int32_t)pRaw_detections[i + AI_YOL
 1692              		.loc 1 380 43 view .LVU557
 1693 01f2 C1ED017A 		vstr.32	s15, [r1, #4]
 381:Lib/lib_vision_models_pp/lib_vision_models_pp/Src/od_pp_yolov8.c ****           pOutBuff[nb_detect].height      = scale * (float32_t)((int32_t)pRaw_detections[i + AI_YOL
ARM GAS  /tmp/cc3HBV3p.s 			page 45


 1694              		.loc 1 381 11 is_stmt 1 view .LVU558
 381:Lib/lib_vision_models_pp/lib_vision_models_pp/Src/od_pp_yolov8.c ****           pOutBuff[nb_detect].height      = scale * (float32_t)((int32_t)pRaw_detections[i + AI_YOL
 1695              		.loc 1 381 65 is_stmt 0 view .LVU559
 1696 01f6 3257     		ldrsb	r2, [r6, r4]
 381:Lib/lib_vision_models_pp/lib_vision_models_pp/Src/od_pp_yolov8.c ****           pOutBuff[nb_detect].height      = scale * (float32_t)((int32_t)pRaw_detections[i + AI_YOL
 1697              		.loc 1 381 135 view .LVU560
 1698 01f8 521B     		subs	r2, r2, r5
 1699 01fa 07EE902A 		vmov	s15, r2	@ int
 381:Lib/lib_vision_models_pp/lib_vision_models_pp/Src/od_pp_yolov8.c ****           pOutBuff[nb_detect].height      = scale * (float32_t)((int32_t)pRaw_detections[i + AI_YOL
 1700              		.loc 1 381 53 view .LVU561
 1701 01fe F8EEE77A 		vcvt.f32.s32	s15, s15
 381:Lib/lib_vision_models_pp/lib_vision_models_pp/Src/od_pp_yolov8.c ****           pOutBuff[nb_detect].height      = scale * (float32_t)((int32_t)pRaw_detections[i + AI_YOL
 1702              		.loc 1 381 51 view .LVU562
 1703 0202 67EE887A 		vmul.f32	s15, s15, s16
 381:Lib/lib_vision_models_pp/lib_vision_models_pp/Src/od_pp_yolov8.c ****           pOutBuff[nb_detect].height      = scale * (float32_t)((int32_t)pRaw_detections[i + AI_YOL
 1704              		.loc 1 381 43 view .LVU563
 1705 0206 C1ED027A 		vstr.32	s15, [r1, #8]
 382:Lib/lib_vision_models_pp/lib_vision_models_pp/Src/od_pp_yolov8.c ****           pOutBuff[nb_detect].conf        = best_score_f;
 1706              		.loc 1 382 11 is_stmt 1 view .LVU564
 382:Lib/lib_vision_models_pp/lib_vision_models_pp/Src/od_pp_yolov8.c ****           pOutBuff[nb_detect].conf        = best_score_f;
 1707              		.loc 1 382 65 is_stmt 0 view .LVU565
 1708 020a 1BF90A20 		ldrsb	r2, [fp, r10]
 382:Lib/lib_vision_models_pp/lib_vision_models_pp/Src/od_pp_yolov8.c ****           pOutBuff[nb_detect].conf        = best_score_f;
 1709              		.loc 1 382 135 view .LVU566
 1710 020e 521B     		subs	r2, r2, r5
 1711 0210 07EE902A 		vmov	s15, r2	@ int
 382:Lib/lib_vision_models_pp/lib_vision_models_pp/Src/od_pp_yolov8.c ****           pOutBuff[nb_detect].conf        = best_score_f;
 1712              		.loc 1 382 53 view .LVU567
 1713 0214 F8EEE77A 		vcvt.f32.s32	s15, s15
 382:Lib/lib_vision_models_pp/lib_vision_models_pp/Src/od_pp_yolov8.c ****           pOutBuff[nb_detect].conf        = best_score_f;
 1714              		.loc 1 382 51 view .LVU568
 1715 0218 67EE887A 		vmul.f32	s15, s15, s16
 382:Lib/lib_vision_models_pp/lib_vision_models_pp/Src/od_pp_yolov8.c ****           pOutBuff[nb_detect].conf        = best_score_f;
 1716              		.loc 1 382 43 view .LVU569
 1717 021c C1ED037A 		vstr.32	s15, [r1, #12]
 383:Lib/lib_vision_models_pp/lib_vision_models_pp/Src/od_pp_yolov8.c ****           pOutBuff[nb_detect].class_index = class_index;
 1718              		.loc 1 383 11 is_stmt 1 view .LVU570
 377:Lib/lib_vision_models_pp/lib_vision_models_pp/Src/od_pp_yolov8.c ****           class_index = class_index_array[_i];
 1719              		.loc 1 377 67 is_stmt 0 view .LVU571
 1720 0220 07EE903A 		vmov	s15, r3	@ int
 377:Lib/lib_vision_models_pp/lib_vision_models_pp/Src/od_pp_yolov8.c ****           class_index = class_index_array[_i];
 1721              		.loc 1 377 34 view .LVU572
 1722 0224 F8EEE77A 		vcvt.f32.s32	s15, s15
 377:Lib/lib_vision_models_pp/lib_vision_models_pp/Src/od_pp_yolov8.c ****           class_index = class_index_array[_i];
 1723              		.loc 1 377 24 view .LVU573
 1724 0228 67EE887A 		vmul.f32	s15, s15, s16
 383:Lib/lib_vision_models_pp/lib_vision_models_pp/Src/od_pp_yolov8.c ****           pOutBuff[nb_detect].class_index = class_index;
 1725              		.loc 1 383 43 view .LVU574
 1726 022c C1ED047A 		vstr.32	s15, [r1, #16]
 384:Lib/lib_vision_models_pp/lib_vision_models_pp/Src/od_pp_yolov8.c ****           nb_detect++;
 1727              		.loc 1 384 11 is_stmt 1 view .LVU575
 384:Lib/lib_vision_models_pp/lib_vision_models_pp/Src/od_pp_yolov8.c ****           nb_detect++;
 1728              		.loc 1 384 43 is_stmt 0 view .LVU576
 1729 0230 069B     		ldr	r3, [sp, #24]
 1730 0232 4B61     		str	r3, [r1, #20]
 385:Lib/lib_vision_models_pp/lib_vision_models_pp/Src/od_pp_yolov8.c ****         }
 1731              		.loc 1 385 11 is_stmt 1 view .LVU577
ARM GAS  /tmp/cc3HBV3p.s 			page 46


 1732              	.LVL141:
 1733              	.L110:
 373:Lib/lib_vision_models_pp/lib_vision_models_pp/Src/od_pp_yolov8.c ****       {
 1734              		.loc 1 373 74 discriminator 2 view .LVU578
 1735 0234 0130     		adds	r0, r0, #1
 1736              	.LVL142:
 373:Lib/lib_vision_models_pp/lib_vision_models_pp/Src/od_pp_yolov8.c ****       {
 1737              		.loc 1 373 74 is_stmt 0 discriminator 2 view .LVU579
 1738 0236 2DE7     		b	.L109
 1739              	.LBE52:
 1740              	.LBE53:
 1741              	.LBE62:
 1742              		.cfi_endproc
 1743              	.LFE2652:
 1745              		.section	.text.yolov8_pp_getNNBoxes_centroid_is8os8,"ax",%progbits
 1746              		.align	1
 1747              		.global	yolov8_pp_getNNBoxes_centroid_is8os8
 1748              		.syntax unified
 1749              		.thumb
 1750              		.thumb_func
 1752              	yolov8_pp_getNNBoxes_centroid_is8os8:
 1753              	.LVL143:
 1754              	.LFB2653:
 395:Lib/lib_vision_models_pp/lib_vision_models_pp/Src/od_pp_yolov8.c **** 
 396:Lib/lib_vision_models_pp/lib_vision_models_pp/Src/od_pp_yolov8.c **** int32_t yolov8_pp_getNNBoxes_centroid_is8os8(od_yolov8_pp_in_centroid_t *pInput,
 397:Lib/lib_vision_models_pp/lib_vision_models_pp/Src/od_pp_yolov8.c ****                                              od_yolov8_pp_scratch_s8_t *ptrScratch,
 398:Lib/lib_vision_models_pp/lib_vision_models_pp/Src/od_pp_yolov8.c ****                                              od_yolov8_pp_static_param_t *pInput_static_param)
 399:Lib/lib_vision_models_pp/lib_vision_models_pp/Src/od_pp_yolov8.c **** {
 1755              		.loc 1 399 1 is_stmt 1 view -0
 1756              		.cfi_startproc
 1757              		@ args = 0, pretend = 0, frame = 56
 1758              		@ frame_needed = 0, uses_anonymous_args = 0
 400:Lib/lib_vision_models_pp/lib_vision_models_pp/Src/od_pp_yolov8.c ****   int32_t error   = AI_OD_POSTPROCESS_ERROR_NO;
 1759              		.loc 1 400 3 view .LVU581
 401:Lib/lib_vision_models_pp/lib_vision_models_pp/Src/od_pp_yolov8.c ****   int32_t nb_classes = pInput_static_param->nb_classes;
 1760              		.loc 1 401 3 view .LVU582
 399:Lib/lib_vision_models_pp/lib_vision_models_pp/Src/od_pp_yolov8.c ****   int32_t error   = AI_OD_POSTPROCESS_ERROR_NO;
 1761              		.loc 1 399 1 is_stmt 0 view .LVU583
 1762 0000 2DE9F04F 		push	{r4, r5, r6, r7, r8, r9, r10, fp, lr}
 1763              		.cfi_def_cfa_offset 36
 1764              		.cfi_offset 4, -36
 1765              		.cfi_offset 5, -32
 1766              		.cfi_offset 6, -28
 1767              		.cfi_offset 7, -24
 1768              		.cfi_offset 8, -20
 1769              		.cfi_offset 9, -16
 1770              		.cfi_offset 10, -12
 1771              		.cfi_offset 11, -8
 1772              		.cfi_offset 14, -4
 1773 0004 1446     		mov	r4, r2
 402:Lib/lib_vision_models_pp/lib_vision_models_pp/Src/od_pp_yolov8.c ****   int32_t nb_total_boxes = pInput_static_param->nb_total_boxes;
 403:Lib/lib_vision_models_pp/lib_vision_models_pp/Src/od_pp_yolov8.c ****   int8_t *pRaw_detections = (int8_t *)pInput->pRaw_detections;
 404:Lib/lib_vision_models_pp/lib_vision_models_pp/Src/od_pp_yolov8.c ****   int8_t zero_point = pInput_static_param->raw_output_zero_point;
 405:Lib/lib_vision_models_pp/lib_vision_models_pp/Src/od_pp_yolov8.c ****   float32_t scale = pInput_static_param->raw_output_scale;
 1774              		.loc 1 405 13 view .LVU584
 1775 0006 94ED057A 		vldr.32	s14, [r4, #20]
 406:Lib/lib_vision_models_pp/lib_vision_models_pp/Src/od_pp_yolov8.c **** 
ARM GAS  /tmp/cc3HBV3p.s 			page 47


 407:Lib/lib_vision_models_pp/lib_vision_models_pp/Src/od_pp_yolov8.c ****   pInput_static_param->nb_detect =0;
 408:Lib/lib_vision_models_pp/lib_vision_models_pp/Src/od_pp_yolov8.c ****   int32_t remaining_boxes = nb_total_boxes;
 409:Lib/lib_vision_models_pp/lib_vision_models_pp/Src/od_pp_yolov8.c ****   int8_t conf_threshold_s8 = (int8_t)(pInput_static_param->conf_threshold / scale + 0.5f) + zero_po
 1776              		.loc 1 409 75 view .LVU585
 1777 000a D4ED036A 		vldr.32	s13, [r4, #12]
 1778 000e C6EE877A 		vdiv.f32	s15, s13, s14
 1779              		.loc 1 409 83 view .LVU586
 1780 0012 B6EE007A 		vmov.f32	s14, #5.0e-1
 1781 0016 77EE877A 		vadd.f32	s15, s15, s14
 1782              		.loc 1 409 30 view .LVU587
 1783 001a FDEEE77A 		vcvt.s32.f32	s15, s15
 401:Lib/lib_vision_models_pp/lib_vision_models_pp/Src/od_pp_yolov8.c ****   int32_t nb_total_boxes = pInput_static_param->nb_total_boxes;
 1784              		.loc 1 401 11 view .LVU588
 1785 001e 1368     		ldr	r3, [r2]
 399:Lib/lib_vision_models_pp/lib_vision_models_pp/Src/od_pp_yolov8.c ****   int32_t error   = AI_OD_POSTPROCESS_ERROR_NO;
 1786              		.loc 1 399 1 view .LVU589
 1787 0020 91B0     		sub	sp, sp, #68
 1788              		.cfi_def_cfa_offset 104
 401:Lib/lib_vision_models_pp/lib_vision_models_pp/Src/od_pp_yolov8.c ****   int32_t nb_total_boxes = pInput_static_param->nb_total_boxes;
 1789              		.loc 1 401 11 view .LVU590
 1790 0022 0493     		str	r3, [sp, #16]
 1791              	.LVL144:
 402:Lib/lib_vision_models_pp/lib_vision_models_pp/Src/od_pp_yolov8.c ****   int8_t *pRaw_detections = (int8_t *)pInput->pRaw_detections;
 1792              		.loc 1 402 3 is_stmt 1 view .LVU591
 1793              		.loc 1 409 30 is_stmt 0 view .LVU592
 1794 0024 17EE903A 		vmov	r3, s15	@ int
 1795              	.LVL145:
 407:Lib/lib_vision_models_pp/lib_vision_models_pp/Src/od_pp_yolov8.c ****   int32_t remaining_boxes = nb_total_boxes;
 1796              		.loc 1 407 34 view .LVU593
 1797 0028 0025     		movs	r5, #0
 399:Lib/lib_vision_models_pp/lib_vision_models_pp/Src/od_pp_yolov8.c ****   int32_t error   = AI_OD_POSTPROCESS_ERROR_NO;
 1798              		.loc 1 399 1 view .LVU594
 1799 002a 8846     		mov	r8, r1
 402:Lib/lib_vision_models_pp/lib_vision_models_pp/Src/od_pp_yolov8.c ****   int8_t *pRaw_detections = (int8_t *)pInput->pRaw_detections;
 1800              		.loc 1 402 11 view .LVU595
 1801 002c 5668     		ldr	r6, [r2, #4]
 1802              	.LVL146:
 403:Lib/lib_vision_models_pp/lib_vision_models_pp/Src/od_pp_yolov8.c ****   int8_t zero_point = pInput_static_param->raw_output_zero_point;
 1803              		.loc 1 403 3 is_stmt 1 view .LVU596
 404:Lib/lib_vision_models_pp/lib_vision_models_pp/Src/od_pp_yolov8.c ****   float32_t scale = pInput_static_param->raw_output_scale;
 1804              		.loc 1 404 10 is_stmt 0 view .LVU597
 1805 002e 92F91820 		ldrsb	r2, [r2, #24]
 1806              	.LVL147:
 403:Lib/lib_vision_models_pp/lib_vision_models_pp/Src/od_pp_yolov8.c ****   int8_t zero_point = pInput_static_param->raw_output_zero_point;
 1807              		.loc 1 403 11 view .LVU598
 1808 0032 D0F800B0 		ldr	fp, [r0]
 1809              	.LVL148:
 404:Lib/lib_vision_models_pp/lib_vision_models_pp/Src/od_pp_yolov8.c ****   float32_t scale = pInput_static_param->raw_output_scale;
 1810              		.loc 1 404 3 is_stmt 1 view .LVU599
 405:Lib/lib_vision_models_pp/lib_vision_models_pp/Src/od_pp_yolov8.c **** 
 1811              		.loc 1 405 3 view .LVU600
 407:Lib/lib_vision_models_pp/lib_vision_models_pp/Src/od_pp_yolov8.c ****   int32_t remaining_boxes = nb_total_boxes;
 1812              		.loc 1 407 3 view .LVU601
 1813              		.loc 1 409 91 is_stmt 0 view .LVU602
 1814 0036 1344     		add	r3, r3, r2
 1815              		.loc 1 409 10 view .LVU603
 1816 0038 5BB2     		sxtb	r3, r3
ARM GAS  /tmp/cc3HBV3p.s 			page 48


 1817 003a 0593     		str	r3, [sp, #20]
 1818              	.LBB63:
 1819              	.LBB64:
 410:Lib/lib_vision_models_pp/lib_vision_models_pp/Src/od_pp_yolov8.c **** 
 411:Lib/lib_vision_models_pp/lib_vision_models_pp/Src/od_pp_yolov8.c ****   int8_t best_score_array[16];
 412:Lib/lib_vision_models_pp/lib_vision_models_pp/Src/od_pp_yolov8.c ****   uint8_t class_index_array[16];
 413:Lib/lib_vision_models_pp/lib_vision_models_pp/Src/od_pp_yolov8.c **** 
 414:Lib/lib_vision_models_pp/lib_vision_models_pp/Src/od_pp_yolov8.c ****   for (int32_t i = 0; i < nb_total_boxes; i+=16)
 415:Lib/lib_vision_models_pp/lib_vision_models_pp/Src/od_pp_yolov8.c ****   {
 416:Lib/lib_vision_models_pp/lib_vision_models_pp/Src/od_pp_yolov8.c ****     vision_models_maxi_tr_p_is8ou8(&pRaw_detections[i + AI_YOLOV8_PP_CLASSPROB * nb_total_boxes],
 417:Lib/lib_vision_models_pp/lib_vision_models_pp/Src/od_pp_yolov8.c ****                                   nb_classes,
 418:Lib/lib_vision_models_pp/lib_vision_models_pp/Src/od_pp_yolov8.c ****                                   nb_total_boxes,
 419:Lib/lib_vision_models_pp/lib_vision_models_pp/Src/od_pp_yolov8.c ****                                   best_score_array,
 420:Lib/lib_vision_models_pp/lib_vision_models_pp/Src/od_pp_yolov8.c ****                                   class_index_array,
 421:Lib/lib_vision_models_pp/lib_vision_models_pp/Src/od_pp_yolov8.c ****                                   remaining_boxes);
 422:Lib/lib_vision_models_pp/lib_vision_models_pp/Src/od_pp_yolov8.c ****     for (int _i = 0; _i < ((remaining_boxes>16)?16:remaining_boxes); _i++)
 423:Lib/lib_vision_models_pp/lib_vision_models_pp/Src/od_pp_yolov8.c ****     {
 424:Lib/lib_vision_models_pp/lib_vision_models_pp/Src/od_pp_yolov8.c ****       if ( best_score_array[_i] >= conf_threshold_s8)
 425:Lib/lib_vision_models_pp/lib_vision_models_pp/Src/od_pp_yolov8.c ****       {
 426:Lib/lib_vision_models_pp/lib_vision_models_pp/Src/od_pp_yolov8.c ****         ptrScratch[pInput_static_param->nb_detect].x_center    = pRaw_detections[i + _i + AI_YOLOV8
 427:Lib/lib_vision_models_pp/lib_vision_models_pp/Src/od_pp_yolov8.c ****         ptrScratch[pInput_static_param->nb_detect].y_center    = pRaw_detections[i + _i + AI_YOLOV8
 428:Lib/lib_vision_models_pp/lib_vision_models_pp/Src/od_pp_yolov8.c ****         ptrScratch[pInput_static_param->nb_detect].width       = pRaw_detections[i + _i + AI_YOLOV8
 429:Lib/lib_vision_models_pp/lib_vision_models_pp/Src/od_pp_yolov8.c ****         ptrScratch[pInput_static_param->nb_detect].height      = pRaw_detections[i + _i + AI_YOLOV8
 1820              		.loc 1 429 114 view .LVU604
 1821 003c 06EB4603 		add	r3, r6, r6, lsl #1
 1822 0040 0693     		str	r3, [sp, #24]
 1823 0042 0BEB8603 		add	r3, fp, r6, lsl #2
 1824              	.LBE64:
 1825              	.LBE63:
 407:Lib/lib_vision_models_pp/lib_vision_models_pp/Src/od_pp_yolov8.c ****   int32_t remaining_boxes = nb_total_boxes;
 1826              		.loc 1 407 34 view .LVU605
 1827 0046 E561     		str	r5, [r4, #28]
 408:Lib/lib_vision_models_pp/lib_vision_models_pp/Src/od_pp_yolov8.c ****   int8_t conf_threshold_s8 = (int8_t)(pInput_static_param->conf_threshold / scale + 0.5f) + zero_po
 1828              		.loc 1 408 3 is_stmt 1 view .LVU606
 1829              	.LVL149:
 409:Lib/lib_vision_models_pp/lib_vision_models_pp/Src/od_pp_yolov8.c **** 
 1830              		.loc 1 409 3 view .LVU607
 411:Lib/lib_vision_models_pp/lib_vision_models_pp/Src/od_pp_yolov8.c ****   uint8_t class_index_array[16];
 1831              		.loc 1 411 3 view .LVU608
 412:Lib/lib_vision_models_pp/lib_vision_models_pp/Src/od_pp_yolov8.c **** 
 1832              		.loc 1 412 3 view .LVU609
 414:Lib/lib_vision_models_pp/lib_vision_models_pp/Src/od_pp_yolov8.c ****   {
 1833              		.loc 1 414 3 view .LVU610
 1834              	.LBB67:
 414:Lib/lib_vision_models_pp/lib_vision_models_pp/Src/od_pp_yolov8.c ****   {
 1835              		.loc 1 414 8 view .LVU611
 414:Lib/lib_vision_models_pp/lib_vision_models_pp/Src/od_pp_yolov8.c ****   {
 1836              		.loc 1 414 8 is_stmt 0 view .LVU612
 1837 0048 0793     		str	r3, [sp, #28]
 1838              	.LVL150:
 1839              	.L118:
 414:Lib/lib_vision_models_pp/lib_vision_models_pp/Src/od_pp_yolov8.c ****   {
 1840              		.loc 1 414 25 discriminator 1 view .LVU613
 1841 004a B542     		cmp	r5, r6
 1842 004c A6EB0507 		sub	r7, r6, r5
 1843              	.LVL151:
 414:Lib/lib_vision_models_pp/lib_vision_models_pp/Src/od_pp_yolov8.c ****   {
ARM GAS  /tmp/cc3HBV3p.s 			page 49


 1844              		.loc 1 414 25 is_stmt 1 discriminator 1 view .LVU614
 1845 0050 03DB     		blt	.L122
 1846              	.LBE67:
 430:Lib/lib_vision_models_pp/lib_vision_models_pp/Src/od_pp_yolov8.c ****         ptrScratch[pInput_static_param->nb_detect].conf        = best_score_array[_i];
 431:Lib/lib_vision_models_pp/lib_vision_models_pp/Src/od_pp_yolov8.c ****         ptrScratch[pInput_static_param->nb_detect].class_index = class_index_array[_i];
 432:Lib/lib_vision_models_pp/lib_vision_models_pp/Src/od_pp_yolov8.c ****         pInput_static_param->nb_detect++;
 433:Lib/lib_vision_models_pp/lib_vision_models_pp/Src/od_pp_yolov8.c ****       }
 434:Lib/lib_vision_models_pp/lib_vision_models_pp/Src/od_pp_yolov8.c ****     }
 435:Lib/lib_vision_models_pp/lib_vision_models_pp/Src/od_pp_yolov8.c ****     remaining_boxes-=16;
 436:Lib/lib_vision_models_pp/lib_vision_models_pp/Src/od_pp_yolov8.c ****   } // for nb_total_boxes
 437:Lib/lib_vision_models_pp/lib_vision_models_pp/Src/od_pp_yolov8.c ****   return (error);
 1847              		.loc 1 437 3 view .LVU615
 438:Lib/lib_vision_models_pp/lib_vision_models_pp/Src/od_pp_yolov8.c **** }
 1848              		.loc 1 438 1 is_stmt 0 view .LVU616
 1849 0052 0020     		movs	r0, #0
 1850 0054 11B0     		add	sp, sp, #68
 1851              		.cfi_remember_state
 1852              		.cfi_def_cfa_offset 36
 1853              		@ sp needed
 1854 0056 BDE8F08F 		pop	{r4, r5, r6, r7, r8, r9, r10, fp, pc}
 1855              	.LVL152:
 1856              	.L122:
 1857              		.cfi_restore_state
 1858              	.LBB68:
 416:Lib/lib_vision_models_pp/lib_vision_models_pp/Src/od_pp_yolov8.c ****                                   nb_classes,
 1859              		.loc 1 416 5 is_stmt 1 view .LVU617
 1860 005a 0798     		ldr	r0, [sp, #28]
 1861 005c 0DF13009 		add	r9, sp, #48
 1862 0060 3246     		mov	r2, r6
 1863 0062 0197     		str	r7, [sp, #4]
 1864 0064 08AB     		add	r3, sp, #32
 1865 0066 2818     		adds	r0, r5, r0
 1866 0068 0499     		ldr	r1, [sp, #16]
 1867 006a CDF80090 		str	r9, [sp]
 1868 006e FFF7FEFF 		bl	vision_models_maxi_tr_p_is8ou8
 1869              	.LVL153:
 422:Lib/lib_vision_models_pp/lib_vision_models_pp/Src/od_pp_yolov8.c ****     {
 1870              		.loc 1 422 5 view .LVU618
 1871              	.LBB65:
 422:Lib/lib_vision_models_pp/lib_vision_models_pp/Src/od_pp_yolov8.c ****     {
 1872              		.loc 1 422 10 view .LVU619
 422:Lib/lib_vision_models_pp/lib_vision_models_pp/Src/od_pp_yolov8.c ****     {
 1873              		.loc 1 422 51 is_stmt 0 discriminator 1 view .LVU620
 1874 0072 102F     		cmp	r7, #16
 1875 0074 A8BF     		it	ge
 1876 0076 1027     		movge	r7, #16
 1877              	.LVL154:
 422:Lib/lib_vision_models_pp/lib_vision_models_pp/Src/od_pp_yolov8.c ****     {
 1878              		.loc 1 422 14 view .LVU621
 1879 0078 0020     		movs	r0, #0
 431:Lib/lib_vision_models_pp/lib_vision_models_pp/Src/od_pp_yolov8.c ****         pInput_static_param->nb_detect++;
 1880              		.loc 1 431 83 view .LVU622
 1881 007a 7A1C     		adds	r2, r7, #1
 1882 007c B842     		cmp	r0, r7
 1883 007e 0BEB0503 		add	r3, fp, r5
 1884 0082 0DF1200C 		add	ip, sp, #32
 1885 0086 0392     		str	r2, [sp, #12]
ARM GAS  /tmp/cc3HBV3p.s 			page 50


 1886 0088 02DC     		bgt	.L123
 1887 008a B7F1004F 		cmp	r7, #-2147483648
 1888 008e 01D1     		bne	.L119
 1889              	.L123:
 1890 0090 0122     		movs	r2, #1
 1891 0092 0392     		str	r2, [sp, #12]
 1892              	.LVL155:
 1893              	.L119:
 422:Lib/lib_vision_models_pp/lib_vision_models_pp/Src/od_pp_yolov8.c ****     {
 1894              		.loc 1 422 25 is_stmt 1 discriminator 1 view .LVU623
 1895 0094 039A     		ldr	r2, [sp, #12]
 1896 0096 013A     		subs	r2, r2, #1
 1897 0098 0392     		str	r2, [sp, #12]
 1898 009a 01D1     		bne	.L121
 1899              	.LBE65:
 435:Lib/lib_vision_models_pp/lib_vision_models_pp/Src/od_pp_yolov8.c ****   } // for nb_total_boxes
 1900              		.loc 1 435 5 view .LVU624
 1901              	.LVL156:
 414:Lib/lib_vision_models_pp/lib_vision_models_pp/Src/od_pp_yolov8.c ****   {
 1902              		.loc 1 414 44 discriminator 2 view .LVU625
 1903 009c 1035     		adds	r5, r5, #16
 1904              	.LVL157:
 414:Lib/lib_vision_models_pp/lib_vision_models_pp/Src/od_pp_yolov8.c ****   {
 1905              		.loc 1 414 44 is_stmt 0 discriminator 2 view .LVU626
 1906 009e D4E7     		b	.L118
 1907              	.LVL158:
 1908              	.L121:
 1909              	.LBB66:
 424:Lib/lib_vision_models_pp/lib_vision_models_pp/Src/od_pp_yolov8.c ****       {
 1910              		.loc 1 424 7 is_stmt 1 view .LVU627
 424:Lib/lib_vision_models_pp/lib_vision_models_pp/Src/od_pp_yolov8.c ****       {
 1911              		.loc 1 424 28 is_stmt 0 view .LVU628
 1912 00a0 1CF901EB 		ldrsb	lr, [ip], #1
 424:Lib/lib_vision_models_pp/lib_vision_models_pp/Src/od_pp_yolov8.c ****       {
 1913              		.loc 1 424 10 view .LVU629
 1914 00a4 059A     		ldr	r2, [sp, #20]
 1915 00a6 9645     		cmp	lr, r2
 1916 00a8 1EDB     		blt	.L120
 426:Lib/lib_vision_models_pp/lib_vision_models_pp/Src/od_pp_yolov8.c ****         ptrScratch[pInput_static_param->nb_detect].y_center    = pRaw_detections[i + _i + AI_YOLOV8
 1917              		.loc 1 426 9 is_stmt 1 view .LVU630
 426:Lib/lib_vision_models_pp/lib_vision_models_pp/Src/od_pp_yolov8.c ****         ptrScratch[pInput_static_param->nb_detect].y_center    = pRaw_detections[i + _i + AI_YOLOV8
 1918              		.loc 1 426 19 is_stmt 0 view .LVU631
 1919 00aa 0622     		movs	r2, #6
 426:Lib/lib_vision_models_pp/lib_vision_models_pp/Src/od_pp_yolov8.c ****         ptrScratch[pInput_static_param->nb_detect].y_center    = pRaw_detections[i + _i + AI_YOLOV8
 1920              		.loc 1 426 39 view .LVU632
 1921 00ac E769     		ldr	r7, [r4, #28]
 426:Lib/lib_vision_models_pp/lib_vision_models_pp/Src/od_pp_yolov8.c ****         ptrScratch[pInput_static_param->nb_detect].y_center    = pRaw_detections[i + _i + AI_YOLOV8
 1922              		.loc 1 426 81 view .LVU633
 1923 00ae 93F90010 		ldrsb	r1, [r3]
 426:Lib/lib_vision_models_pp/lib_vision_models_pp/Src/od_pp_yolov8.c ****         ptrScratch[pInput_static_param->nb_detect].y_center    = pRaw_detections[i + _i + AI_YOLOV8
 1924              		.loc 1 426 19 view .LVU634
 1925 00b2 02FB07FA 		mul	r10, r2, r7
 426:Lib/lib_vision_models_pp/lib_vision_models_pp/Src/od_pp_yolov8.c ****         ptrScratch[pInput_static_param->nb_detect].y_center    = pRaw_detections[i + _i + AI_YOLOV8
 1926              		.loc 1 426 64 view .LVU635
 1927 00b6 08F80A10 		strb	r1, [r8, r10]
 427:Lib/lib_vision_models_pp/lib_vision_models_pp/Src/od_pp_yolov8.c ****         ptrScratch[pInput_static_param->nb_detect].width       = pRaw_detections[i + _i + AI_YOLOV8
 1928              		.loc 1 427 9 is_stmt 1 view .LVU636
ARM GAS  /tmp/cc3HBV3p.s 			page 51


 426:Lib/lib_vision_models_pp/lib_vision_models_pp/Src/od_pp_yolov8.c ****         ptrScratch[pInput_static_param->nb_detect].y_center    = pRaw_detections[i + _i + AI_YOLOV8
 1929              		.loc 1 426 19 is_stmt 0 view .LVU637
 1930 00ba 08EB0A02 		add	r2, r8, r10
 427:Lib/lib_vision_models_pp/lib_vision_models_pp/Src/od_pp_yolov8.c ****         ptrScratch[pInput_static_param->nb_detect].width       = pRaw_detections[i + _i + AI_YOLOV8
 1931              		.loc 1 427 81 view .LVU638
 1932 00be 13F906A0 		ldrsb	r10, [r3, r6]
 429:Lib/lib_vision_models_pp/lib_vision_models_pp/Src/od_pp_yolov8.c ****         ptrScratch[pInput_static_param->nb_detect].conf        = best_score_array[_i];
 1933              		.loc 1 429 81 view .LVU639
 1934 00c2 0699     		ldr	r1, [sp, #24]
 427:Lib/lib_vision_models_pp/lib_vision_models_pp/Src/od_pp_yolov8.c ****         ptrScratch[pInput_static_param->nb_detect].width       = pRaw_detections[i + _i + AI_YOLOV8
 1935              		.loc 1 427 64 view .LVU640
 1936 00c4 82F801A0 		strb	r10, [r2, #1]
 428:Lib/lib_vision_models_pp/lib_vision_models_pp/Src/od_pp_yolov8.c ****         ptrScratch[pInput_static_param->nb_detect].height      = pRaw_detections[i + _i + AI_YOLOV8
 1937              		.loc 1 428 9 is_stmt 1 view .LVU641
 428:Lib/lib_vision_models_pp/lib_vision_models_pp/Src/od_pp_yolov8.c ****         ptrScratch[pInput_static_param->nb_detect].height      = pRaw_detections[i + _i + AI_YOLOV8
 1938              		.loc 1 428 81 is_stmt 0 view .LVU642
 1939 00c8 13F916A0 		ldrsb	r10, [r3, r6, lsl #1]
 432:Lib/lib_vision_models_pp/lib_vision_models_pp/Src/od_pp_yolov8.c ****       }
 1940              		.loc 1 432 39 view .LVU643
 1941 00cc 0137     		adds	r7, r7, #1
 428:Lib/lib_vision_models_pp/lib_vision_models_pp/Src/od_pp_yolov8.c ****         ptrScratch[pInput_static_param->nb_detect].height      = pRaw_detections[i + _i + AI_YOLOV8
 1942              		.loc 1 428 64 view .LVU644
 1943 00ce 82F802A0 		strb	r10, [r2, #2]
 429:Lib/lib_vision_models_pp/lib_vision_models_pp/Src/od_pp_yolov8.c ****         ptrScratch[pInput_static_param->nb_detect].conf        = best_score_array[_i];
 1944              		.loc 1 429 9 is_stmt 1 view .LVU645
 429:Lib/lib_vision_models_pp/lib_vision_models_pp/Src/od_pp_yolov8.c ****         ptrScratch[pInput_static_param->nb_detect].conf        = best_score_array[_i];
 1945              		.loc 1 429 81 is_stmt 0 view .LVU646
 1946 00d2 13F901A0 		ldrsb	r10, [r3, r1]
 430:Lib/lib_vision_models_pp/lib_vision_models_pp/Src/od_pp_yolov8.c ****         ptrScratch[pInput_static_param->nb_detect].class_index = class_index_array[_i];
 1947              		.loc 1 430 64 view .LVU647
 1948 00d6 82F804E0 		strb	lr, [r2, #4]
 431:Lib/lib_vision_models_pp/lib_vision_models_pp/Src/od_pp_yolov8.c ****         pInput_static_param->nb_detect++;
 1949              		.loc 1 431 64 view .LVU648
 1950 00da 19F800E0 		ldrb	lr, [r9, r0]	@ zero_extendqisi2
 429:Lib/lib_vision_models_pp/lib_vision_models_pp/Src/od_pp_yolov8.c ****         ptrScratch[pInput_static_param->nb_detect].conf        = best_score_array[_i];
 1951              		.loc 1 429 64 view .LVU649
 1952 00de 82F803A0 		strb	r10, [r2, #3]
 430:Lib/lib_vision_models_pp/lib_vision_models_pp/Src/od_pp_yolov8.c ****         ptrScratch[pInput_static_param->nb_detect].class_index = class_index_array[_i];
 1953              		.loc 1 430 9 is_stmt 1 view .LVU650
 431:Lib/lib_vision_models_pp/lib_vision_models_pp/Src/od_pp_yolov8.c ****         pInput_static_param->nb_detect++;
 1954              		.loc 1 431 9 view .LVU651
 431:Lib/lib_vision_models_pp/lib_vision_models_pp/Src/od_pp_yolov8.c ****         pInput_static_param->nb_detect++;
 1955              		.loc 1 431 64 is_stmt 0 view .LVU652
 1956 00e2 82F805E0 		strb	lr, [r2, #5]
 432:Lib/lib_vision_models_pp/lib_vision_models_pp/Src/od_pp_yolov8.c ****       }
 1957              		.loc 1 432 9 is_stmt 1 view .LVU653
 432:Lib/lib_vision_models_pp/lib_vision_models_pp/Src/od_pp_yolov8.c ****       }
 1958              		.loc 1 432 39 is_stmt 0 view .LVU654
 1959 00e6 E761     		str	r7, [r4, #28]
 1960              	.L120:
 422:Lib/lib_vision_models_pp/lib_vision_models_pp/Src/od_pp_yolov8.c ****     {
 1961              		.loc 1 422 72 is_stmt 1 discriminator 2 view .LVU655
 1962 00e8 0130     		adds	r0, r0, #1
 1963              	.LVL159:
 422:Lib/lib_vision_models_pp/lib_vision_models_pp/Src/od_pp_yolov8.c ****     {
 1964              		.loc 1 422 72 is_stmt 0 discriminator 2 view .LVU656
 1965 00ea 0133     		adds	r3, r3, #1
ARM GAS  /tmp/cc3HBV3p.s 			page 52


 1966 00ec D2E7     		b	.L119
 1967              	.LBE66:
 1968              	.LBE68:
 1969              		.cfi_endproc
 1970              	.LFE2653:
 1972              		.section	.text.od_yolov8_pp_reset,"ax",%progbits
 1973              		.align	1
 1974              		.global	od_yolov8_pp_reset
 1975              		.syntax unified
 1976              		.thumb
 1977              		.thumb_func
 1979              	od_yolov8_pp_reset:
 1980              	.LVL160:
 1981              	.LFB2654:
 439:Lib/lib_vision_models_pp/lib_vision_models_pp/Src/od_pp_yolov8.c **** 
 440:Lib/lib_vision_models_pp/lib_vision_models_pp/Src/od_pp_yolov8.c **** /* ----------------------       Exported routines      ---------------------- */
 441:Lib/lib_vision_models_pp/lib_vision_models_pp/Src/od_pp_yolov8.c **** 
 442:Lib/lib_vision_models_pp/lib_vision_models_pp/Src/od_pp_yolov8.c **** int32_t od_yolov8_pp_reset(od_yolov8_pp_static_param_t *pInput_static_param)
 443:Lib/lib_vision_models_pp/lib_vision_models_pp/Src/od_pp_yolov8.c **** {
 1982              		.loc 1 443 1 is_stmt 1 view -0
 1983              		.cfi_startproc
 1984              		@ args = 0, pretend = 0, frame = 0
 1985              		@ frame_needed = 0, uses_anonymous_args = 0
 1986              		@ link register save eliminated.
 444:Lib/lib_vision_models_pp/lib_vision_models_pp/Src/od_pp_yolov8.c ****   /* Initializations */
 445:Lib/lib_vision_models_pp/lib_vision_models_pp/Src/od_pp_yolov8.c ****   pInput_static_param->nb_detect = 0;
 1987              		.loc 1 445 3 view .LVU658
 443:Lib/lib_vision_models_pp/lib_vision_models_pp/Src/od_pp_yolov8.c ****   /* Initializations */
 1988              		.loc 1 443 1 is_stmt 0 view .LVU659
 1989 0000 0346     		mov	r3, r0
 1990              		.loc 1 445 34 view .LVU660
 1991 0002 0020     		movs	r0, #0
 1992              	.LVL161:
 1993              		.loc 1 445 34 view .LVU661
 1994 0004 D861     		str	r0, [r3, #28]
 446:Lib/lib_vision_models_pp/lib_vision_models_pp/Src/od_pp_yolov8.c **** 
 447:Lib/lib_vision_models_pp/lib_vision_models_pp/Src/od_pp_yolov8.c ****   return (AI_OD_POSTPROCESS_ERROR_NO);
 1995              		.loc 1 447 3 is_stmt 1 view .LVU662
 448:Lib/lib_vision_models_pp/lib_vision_models_pp/Src/od_pp_yolov8.c **** }
 1996              		.loc 1 448 1 is_stmt 0 view .LVU663
 1997 0006 7047     		bx	lr
 1998              		.cfi_endproc
 1999              	.LFE2654:
 2001              		.section	.text.od_yolov8_pp_process,"ax",%progbits
 2002              		.align	1
 2003              		.global	od_yolov8_pp_process
 2004              		.syntax unified
 2005              		.thumb
 2006              		.thumb_func
 2008              	od_yolov8_pp_process:
 2009              	.LVL162:
 2010              	.LFB2655:
 449:Lib/lib_vision_models_pp/lib_vision_models_pp/Src/od_pp_yolov8.c **** 
 450:Lib/lib_vision_models_pp/lib_vision_models_pp/Src/od_pp_yolov8.c **** 
 451:Lib/lib_vision_models_pp/lib_vision_models_pp/Src/od_pp_yolov8.c **** int32_t od_yolov8_pp_process(od_yolov8_pp_in_centroid_t *pInput,
 452:Lib/lib_vision_models_pp/lib_vision_models_pp/Src/od_pp_yolov8.c ****                              od_pp_out_t *pOutput,
 453:Lib/lib_vision_models_pp/lib_vision_models_pp/Src/od_pp_yolov8.c ****                              od_yolov8_pp_static_param_t *pInput_static_param)
ARM GAS  /tmp/cc3HBV3p.s 			page 53


 454:Lib/lib_vision_models_pp/lib_vision_models_pp/Src/od_pp_yolov8.c **** {
 2011              		.loc 1 454 1 is_stmt 1 view -0
 2012              		.cfi_startproc
 2013              		@ args = 0, pretend = 0, frame = 0
 2014              		@ frame_needed = 0, uses_anonymous_args = 0
 455:Lib/lib_vision_models_pp/lib_vision_models_pp/Src/od_pp_yolov8.c ****   int32_t error   = AI_OD_POSTPROCESS_ERROR_NO;
 2015              		.loc 1 455 3 view .LVU665
 456:Lib/lib_vision_models_pp/lib_vision_models_pp/Src/od_pp_yolov8.c **** 
 457:Lib/lib_vision_models_pp/lib_vision_models_pp/Src/od_pp_yolov8.c ****   /* Call Get NN boxes first */
 458:Lib/lib_vision_models_pp/lib_vision_models_pp/Src/od_pp_yolov8.c ****   error = yolov8_pp_getNNBoxes_centroid(pInput,
 2016              		.loc 1 458 3 view .LVU666
 454:Lib/lib_vision_models_pp/lib_vision_models_pp/Src/od_pp_yolov8.c ****   int32_t error   = AI_OD_POSTPROCESS_ERROR_NO;
 2017              		.loc 1 454 1 is_stmt 0 view .LVU667
 2018 0000 38B5     		push	{r3, r4, r5, lr}
 2019              		.cfi_def_cfa_offset 16
 2020              		.cfi_offset 3, -16
 2021              		.cfi_offset 4, -12
 2022              		.cfi_offset 5, -8
 2023              		.cfi_offset 14, -4
 454:Lib/lib_vision_models_pp/lib_vision_models_pp/Src/od_pp_yolov8.c ****   int32_t error   = AI_OD_POSTPROCESS_ERROR_NO;
 2024              		.loc 1 454 1 view .LVU668
 2025 0002 0C46     		mov	r4, r1
 2026 0004 1546     		mov	r5, r2
 2027              		.loc 1 458 11 view .LVU669
 2028 0006 FFF7FEFF 		bl	yolov8_pp_getNNBoxes_centroid
 2029              	.LVL163:
 459:Lib/lib_vision_models_pp/lib_vision_models_pp/Src/od_pp_yolov8.c ****                                         pOutput,
 460:Lib/lib_vision_models_pp/lib_vision_models_pp/Src/od_pp_yolov8.c ****                                         pInput_static_param);
 461:Lib/lib_vision_models_pp/lib_vision_models_pp/Src/od_pp_yolov8.c ****   if (error != AI_OD_POSTPROCESS_ERROR_NO) return (error);
 2030              		.loc 1 461 3 is_stmt 1 view .LVU670
 2031              		.loc 1 461 6 is_stmt 0 view .LVU671
 2032 000a 50B9     		cbnz	r0, .L126
 462:Lib/lib_vision_models_pp/lib_vision_models_pp/Src/od_pp_yolov8.c **** 
 463:Lib/lib_vision_models_pp/lib_vision_models_pp/Src/od_pp_yolov8.c ****   /* Then NMS */
 464:Lib/lib_vision_models_pp/lib_vision_models_pp/Src/od_pp_yolov8.c ****   error = yolov8_pp_nmsFiltering_centroid(pOutput,
 2033              		.loc 1 464 3 is_stmt 1 view .LVU672
 2034              		.loc 1 464 11 is_stmt 0 view .LVU673
 2035 000c 2946     		mov	r1, r5
 2036 000e 2046     		mov	r0, r4
 2037              	.LVL164:
 2038              		.loc 1 464 11 view .LVU674
 2039 0010 FFF7FEFF 		bl	yolov8_pp_nmsFiltering_centroid
 2040              	.LVL165:
 465:Lib/lib_vision_models_pp/lib_vision_models_pp/Src/od_pp_yolov8.c ****                                           pInput_static_param);
 466:Lib/lib_vision_models_pp/lib_vision_models_pp/Src/od_pp_yolov8.c ****   if (error != AI_OD_POSTPROCESS_ERROR_NO) return (error);
 2041              		.loc 1 466 3 is_stmt 1 view .LVU675
 2042              		.loc 1 466 6 is_stmt 0 view .LVU676
 2043 0014 28B9     		cbnz	r0, .L126
 467:Lib/lib_vision_models_pp/lib_vision_models_pp/Src/od_pp_yolov8.c **** 
 468:Lib/lib_vision_models_pp/lib_vision_models_pp/Src/od_pp_yolov8.c ****   /* And score re-filtering */
 469:Lib/lib_vision_models_pp/lib_vision_models_pp/Src/od_pp_yolov8.c ****   error = yolov8_pp_scoreFiltering_centroid(pOutput,
 2044              		.loc 1 469 3 is_stmt 1 view .LVU677
 2045              		.loc 1 469 11 is_stmt 0 view .LVU678
 2046 0016 2946     		mov	r1, r5
 2047 0018 2046     		mov	r0, r4
 2048              	.LVL166:
 470:Lib/lib_vision_models_pp/lib_vision_models_pp/Src/od_pp_yolov8.c ****                                             pInput_static_param);
ARM GAS  /tmp/cc3HBV3p.s 			page 54


 471:Lib/lib_vision_models_pp/lib_vision_models_pp/Src/od_pp_yolov8.c **** 
 472:Lib/lib_vision_models_pp/lib_vision_models_pp/Src/od_pp_yolov8.c ****   return (error);
 473:Lib/lib_vision_models_pp/lib_vision_models_pp/Src/od_pp_yolov8.c **** }
 2049              		.loc 1 473 1 view .LVU679
 2050 001a BDE83840 		pop	{r3, r4, r5, lr}
 2051              		.cfi_remember_state
 2052              		.cfi_restore 14
 2053              		.cfi_restore 5
 2054              		.cfi_restore 4
 2055              		.cfi_restore 3
 2056              		.cfi_def_cfa_offset 0
 2057              	.LVL167:
 469:Lib/lib_vision_models_pp/lib_vision_models_pp/Src/od_pp_yolov8.c ****                                             pInput_static_param);
 2058              		.loc 1 469 11 view .LVU680
 2059 001e FFF7FEBF 		b	yolov8_pp_scoreFiltering_centroid
 2060              	.LVL168:
 2061              	.L126:
 2062              		.cfi_restore_state
 2063              		.loc 1 473 1 view .LVU681
 2064 0022 38BD     		pop	{r3, r4, r5, pc}
 2065              		.loc 1 473 1 view .LVU682
 2066              		.cfi_endproc
 2067              	.LFE2655:
 2069              		.section	.text.od_yolov8_pp_process_int8,"ax",%progbits
 2070              		.align	1
 2071              		.global	od_yolov8_pp_process_int8
 2072              		.syntax unified
 2073              		.thumb
 2074              		.thumb_func
 2076              	od_yolov8_pp_process_int8:
 2077              	.LVL169:
 2078              	.LFB2656:
 474:Lib/lib_vision_models_pp/lib_vision_models_pp/Src/od_pp_yolov8.c **** 
 475:Lib/lib_vision_models_pp/lib_vision_models_pp/Src/od_pp_yolov8.c **** 
 476:Lib/lib_vision_models_pp/lib_vision_models_pp/Src/od_pp_yolov8.c **** int32_t od_yolov8_pp_process_int8(od_yolov8_pp_in_centroid_t *pInput,
 477:Lib/lib_vision_models_pp/lib_vision_models_pp/Src/od_pp_yolov8.c ****                                   od_pp_out_t *pOutput,
 478:Lib/lib_vision_models_pp/lib_vision_models_pp/Src/od_pp_yolov8.c ****                                   od_yolov8_pp_static_param_t *pInput_static_param)
 479:Lib/lib_vision_models_pp/lib_vision_models_pp/Src/od_pp_yolov8.c **** {
 2079              		.loc 1 479 1 is_stmt 1 view -0
 2080              		.cfi_startproc
 2081              		@ args = 0, pretend = 0, frame = 0
 2082              		@ frame_needed = 0, uses_anonymous_args = 0
 480:Lib/lib_vision_models_pp/lib_vision_models_pp/Src/od_pp_yolov8.c ****   int32_t error   = AI_OD_POSTPROCESS_ERROR_NO;
 2083              		.loc 1 480 3 view .LVU684
 481:Lib/lib_vision_models_pp/lib_vision_models_pp/Src/od_pp_yolov8.c ****   od_yolov8_pp_scratch_s8_t *ptrScratch = pInput_static_param->pScratchBuff;
 2084              		.loc 1 481 3 view .LVU685
 479:Lib/lib_vision_models_pp/lib_vision_models_pp/Src/od_pp_yolov8.c ****   int32_t error   = AI_OD_POSTPROCESS_ERROR_NO;
 2085              		.loc 1 479 1 is_stmt 0 view .LVU686
 2086 0000 70B5     		push	{r4, r5, r6, lr}
 2087              		.cfi_def_cfa_offset 16
 2088              		.cfi_offset 4, -16
 2089              		.cfi_offset 5, -12
 2090              		.cfi_offset 6, -8
 2091              		.cfi_offset 14, -4
 2092              		.loc 1 481 30 view .LVU687
 2093 0002 166A     		ldr	r6, [r2, #32]
 2094              	.LVL170:
ARM GAS  /tmp/cc3HBV3p.s 			page 55


 482:Lib/lib_vision_models_pp/lib_vision_models_pp/Src/od_pp_yolov8.c **** 
 483:Lib/lib_vision_models_pp/lib_vision_models_pp/Src/od_pp_yolov8.c ****   if (ptrScratch)
 2095              		.loc 1 483 3 is_stmt 1 view .LVU688
 479:Lib/lib_vision_models_pp/lib_vision_models_pp/Src/od_pp_yolov8.c ****   int32_t error   = AI_OD_POSTPROCESS_ERROR_NO;
 2096              		.loc 1 479 1 is_stmt 0 view .LVU689
 2097 0004 0D46     		mov	r5, r1
 2098 0006 1446     		mov	r4, r2
 2099              		.loc 1 483 6 view .LVU690
 2100 0008 7EB1     		cbz	r6, .L129
 484:Lib/lib_vision_models_pp/lib_vision_models_pp/Src/od_pp_yolov8.c ****   {
 485:Lib/lib_vision_models_pp/lib_vision_models_pp/Src/od_pp_yolov8.c ****     /* Call Get NN boxes first */
 486:Lib/lib_vision_models_pp/lib_vision_models_pp/Src/od_pp_yolov8.c ****     error = yolov8_pp_getNNBoxes_centroid_is8os8(pInput,
 2101              		.loc 1 486 5 is_stmt 1 view .LVU691
 2102              		.loc 1 486 13 is_stmt 0 view .LVU692
 2103 000a 3146     		mov	r1, r6
 2104              	.LVL171:
 2105              		.loc 1 486 13 view .LVU693
 2106 000c FFF7FEFF 		bl	yolov8_pp_getNNBoxes_centroid_is8os8
 2107              	.LVL172:
 487:Lib/lib_vision_models_pp/lib_vision_models_pp/Src/od_pp_yolov8.c ****                                                  ptrScratch,
 488:Lib/lib_vision_models_pp/lib_vision_models_pp/Src/od_pp_yolov8.c ****                                                  pInput_static_param);
 489:Lib/lib_vision_models_pp/lib_vision_models_pp/Src/od_pp_yolov8.c ****     if (error != AI_OD_POSTPROCESS_ERROR_NO) return (error);
 2108              		.loc 1 489 5 is_stmt 1 view .LVU694
 2109              		.loc 1 489 8 is_stmt 0 view .LVU695
 2110 0010 C8B9     		cbnz	r0, .L128
 490:Lib/lib_vision_models_pp/lib_vision_models_pp/Src/od_pp_yolov8.c **** 
 491:Lib/lib_vision_models_pp/lib_vision_models_pp/Src/od_pp_yolov8.c ****     /* Then NMS */
 492:Lib/lib_vision_models_pp/lib_vision_models_pp/Src/od_pp_yolov8.c **** 
 493:Lib/lib_vision_models_pp/lib_vision_models_pp/Src/od_pp_yolov8.c ****     error = yolov8_pp_nmsFiltering_centroid_is8(ptrScratch,
 2111              		.loc 1 493 5 is_stmt 1 view .LVU696
 2112              		.loc 1 493 13 is_stmt 0 view .LVU697
 2113 0012 2146     		mov	r1, r4
 2114 0014 3046     		mov	r0, r6
 2115              	.LVL173:
 2116              		.loc 1 493 13 view .LVU698
 2117 0016 FFF7FEFF 		bl	yolov8_pp_nmsFiltering_centroid_is8
 2118              	.LVL174:
 494:Lib/lib_vision_models_pp/lib_vision_models_pp/Src/od_pp_yolov8.c ****                                                 pInput_static_param);
 495:Lib/lib_vision_models_pp/lib_vision_models_pp/Src/od_pp_yolov8.c ****     if (error != AI_OD_POSTPROCESS_ERROR_NO) return (error);
 2119              		.loc 1 495 5 is_stmt 1 view .LVU699
 2120              		.loc 1 495 8 is_stmt 0 view .LVU700
 2121 001a A0B9     		cbnz	r0, .L128
 496:Lib/lib_vision_models_pp/lib_vision_models_pp/Src/od_pp_yolov8.c **** 
 497:Lib/lib_vision_models_pp/lib_vision_models_pp/Src/od_pp_yolov8.c ****     /* And score re-filtering */
 498:Lib/lib_vision_models_pp/lib_vision_models_pp/Src/od_pp_yolov8.c ****     error = yolov8_pp_scoreFiltering_centroid_is8(ptrScratch,
 2122              		.loc 1 498 5 is_stmt 1 view .LVU701
 2123              		.loc 1 498 13 is_stmt 0 view .LVU702
 2124 001c 2246     		mov	r2, r4
 2125 001e 2946     		mov	r1, r5
 2126 0020 3046     		mov	r0, r6
 2127              	.LVL175:
 499:Lib/lib_vision_models_pp/lib_vision_models_pp/Src/od_pp_yolov8.c ****                                                   pOutput,
 500:Lib/lib_vision_models_pp/lib_vision_models_pp/Src/od_pp_yolov8.c ****                                                   pInput_static_param);
 501:Lib/lib_vision_models_pp/lib_vision_models_pp/Src/od_pp_yolov8.c ****   }
 502:Lib/lib_vision_models_pp/lib_vision_models_pp/Src/od_pp_yolov8.c ****   else
 503:Lib/lib_vision_models_pp/lib_vision_models_pp/Src/od_pp_yolov8.c ****   {
 504:Lib/lib_vision_models_pp/lib_vision_models_pp/Src/od_pp_yolov8.c ****     /* Call Get NN boxes first */
ARM GAS  /tmp/cc3HBV3p.s 			page 56


 505:Lib/lib_vision_models_pp/lib_vision_models_pp/Src/od_pp_yolov8.c ****     error = yolov8_pp_getNNBoxes_centroid_int8(pInput,
 506:Lib/lib_vision_models_pp/lib_vision_models_pp/Src/od_pp_yolov8.c ****                                                pOutput,
 507:Lib/lib_vision_models_pp/lib_vision_models_pp/Src/od_pp_yolov8.c ****                                                pInput_static_param);
 508:Lib/lib_vision_models_pp/lib_vision_models_pp/Src/od_pp_yolov8.c ****     if (error != AI_OD_POSTPROCESS_ERROR_NO) return (error);
 509:Lib/lib_vision_models_pp/lib_vision_models_pp/Src/od_pp_yolov8.c **** 
 510:Lib/lib_vision_models_pp/lib_vision_models_pp/Src/od_pp_yolov8.c ****     /* Then NMS */
 511:Lib/lib_vision_models_pp/lib_vision_models_pp/Src/od_pp_yolov8.c **** 
 512:Lib/lib_vision_models_pp/lib_vision_models_pp/Src/od_pp_yolov8.c ****     error = yolov8_pp_nmsFiltering_centroid(pOutput,
 513:Lib/lib_vision_models_pp/lib_vision_models_pp/Src/od_pp_yolov8.c ****                                             pInput_static_param);
 514:Lib/lib_vision_models_pp/lib_vision_models_pp/Src/od_pp_yolov8.c ****     if (error != AI_OD_POSTPROCESS_ERROR_NO) return (error);
 515:Lib/lib_vision_models_pp/lib_vision_models_pp/Src/od_pp_yolov8.c **** 
 516:Lib/lib_vision_models_pp/lib_vision_models_pp/Src/od_pp_yolov8.c ****     /* And score re-filtering */
 517:Lib/lib_vision_models_pp/lib_vision_models_pp/Src/od_pp_yolov8.c ****     error = yolov8_pp_scoreFiltering_centroid(pOutput,
 518:Lib/lib_vision_models_pp/lib_vision_models_pp/Src/od_pp_yolov8.c ****                                               pInput_static_param);
 519:Lib/lib_vision_models_pp/lib_vision_models_pp/Src/od_pp_yolov8.c ****   }
 520:Lib/lib_vision_models_pp/lib_vision_models_pp/Src/od_pp_yolov8.c ****   return (error);
 521:Lib/lib_vision_models_pp/lib_vision_models_pp/Src/od_pp_yolov8.c **** }
 2128              		.loc 1 521 1 view .LVU703
 2129 0022 BDE87040 		pop	{r4, r5, r6, lr}
 2130              		.cfi_remember_state
 2131              		.cfi_restore 14
 2132              		.cfi_restore 6
 2133              		.cfi_restore 5
 2134              		.cfi_restore 4
 2135              		.cfi_def_cfa_offset 0
 2136              	.LVL176:
 498:Lib/lib_vision_models_pp/lib_vision_models_pp/Src/od_pp_yolov8.c ****                                                   pOutput,
 2137              		.loc 1 498 13 view .LVU704
 2138 0026 FFF7FEBF 		b	yolov8_pp_scoreFiltering_centroid_is8
 2139              	.LVL177:
 2140              	.L129:
 2141              		.cfi_restore_state
 505:Lib/lib_vision_models_pp/lib_vision_models_pp/Src/od_pp_yolov8.c ****                                                pOutput,
 2142              		.loc 1 505 5 is_stmt 1 view .LVU705
 505:Lib/lib_vision_models_pp/lib_vision_models_pp/Src/od_pp_yolov8.c ****                                                pOutput,
 2143              		.loc 1 505 13 is_stmt 0 view .LVU706
 2144 002a FFF7FEFF 		bl	yolov8_pp_getNNBoxes_centroid_int8
 2145              	.LVL178:
 508:Lib/lib_vision_models_pp/lib_vision_models_pp/Src/od_pp_yolov8.c **** 
 2146              		.loc 1 508 5 is_stmt 1 view .LVU707
 508:Lib/lib_vision_models_pp/lib_vision_models_pp/Src/od_pp_yolov8.c **** 
 2147              		.loc 1 508 8 is_stmt 0 view .LVU708
 2148 002e 50B9     		cbnz	r0, .L128
 512:Lib/lib_vision_models_pp/lib_vision_models_pp/Src/od_pp_yolov8.c ****                                             pInput_static_param);
 2149              		.loc 1 512 5 is_stmt 1 view .LVU709
 512:Lib/lib_vision_models_pp/lib_vision_models_pp/Src/od_pp_yolov8.c ****                                             pInput_static_param);
 2150              		.loc 1 512 13 is_stmt 0 view .LVU710
 2151 0030 2146     		mov	r1, r4
 2152 0032 2846     		mov	r0, r5
 2153              	.LVL179:
 512:Lib/lib_vision_models_pp/lib_vision_models_pp/Src/od_pp_yolov8.c ****                                             pInput_static_param);
 2154              		.loc 1 512 13 view .LVU711
 2155 0034 FFF7FEFF 		bl	yolov8_pp_nmsFiltering_centroid
 2156              	.LVL180:
 514:Lib/lib_vision_models_pp/lib_vision_models_pp/Src/od_pp_yolov8.c **** 
 2157              		.loc 1 514 5 is_stmt 1 view .LVU712
 514:Lib/lib_vision_models_pp/lib_vision_models_pp/Src/od_pp_yolov8.c **** 
ARM GAS  /tmp/cc3HBV3p.s 			page 57


 2158              		.loc 1 514 8 is_stmt 0 view .LVU713
 2159 0038 28B9     		cbnz	r0, .L128
 517:Lib/lib_vision_models_pp/lib_vision_models_pp/Src/od_pp_yolov8.c ****                                               pInput_static_param);
 2160              		.loc 1 517 5 is_stmt 1 view .LVU714
 517:Lib/lib_vision_models_pp/lib_vision_models_pp/Src/od_pp_yolov8.c ****                                               pInput_static_param);
 2161              		.loc 1 517 13 is_stmt 0 view .LVU715
 2162 003a 2146     		mov	r1, r4
 2163 003c 2846     		mov	r0, r5
 2164              	.LVL181:
 2165              		.loc 1 521 1 view .LVU716
 2166 003e BDE87040 		pop	{r4, r5, r6, lr}
 2167              		.cfi_remember_state
 2168              		.cfi_restore 14
 2169              		.cfi_restore 6
 2170              		.cfi_restore 5
 2171              		.cfi_restore 4
 2172              		.cfi_def_cfa_offset 0
 2173              	.LVL182:
 517:Lib/lib_vision_models_pp/lib_vision_models_pp/Src/od_pp_yolov8.c ****                                               pInput_static_param);
 2174              		.loc 1 517 13 view .LVU717
 2175 0042 FFF7FEBF 		b	yolov8_pp_scoreFiltering_centroid
 2176              	.LVL183:
 2177              	.L128:
 2178              		.cfi_restore_state
 2179              		.loc 1 521 1 view .LVU718
 2180 0046 70BD     		pop	{r4, r5, r6, pc}
 2181              		.loc 1 521 1 view .LVU719
 2182              		.cfi_endproc
 2183              	.LFE2656:
 2185              		.section	.bss.AI_YOLOV8_PP_SORT_CLASS,"aw",%nobits
 2186              		.align	2
 2189              	AI_YOLOV8_PP_SORT_CLASS:
 2190 0000 00000000 		.space	4
 2191              		.text
 2192              	.Letext0:
 2193              		.file 2 "/home/tanjiajun2002/renesas/rzv/e2studio_v2025-01_fsp_v3.1.0/toolchains/gcc_arm/arm-gnu-t
 2194              		.file 3 "/home/tanjiajun2002/renesas/rzv/e2studio_v2025-01_fsp_v3.1.0/toolchains/gcc_arm/arm-gnu-t
 2195              		.file 4 "/home/tanjiajun2002/renesas/rzv/e2studio_v2025-01_fsp_v3.1.0/toolchains/gcc_arm/arm-gnu-t
 2196              		.file 5 "/home/tanjiajun2002/renesas/rzv/e2studio_v2025-01_fsp_v3.1.0/toolchains/gcc_arm/arm-gnu-t
 2197              		.file 6 "Lib/lib_vision_models_pp/lib_vision_models_pp/Inc/od_pp_output_if.h"
 2198              		.file 7 "Lib/lib_vision_models_pp/lib_vision_models_pp/Inc/od_yolov8_pp_if.h"
 2199              		.file 8 "Lib/lib_vision_models_pp/lib_vision_models_pp/Src/vision_models_pp.h"
ARM GAS  /tmp/cc3HBV3p.s 			page 58

