ARM GAS  /tmp/cchb1jCG.s 			page 1


   1              		.arch armv8.1-m.main
   2              		.fpu fpv5-d16
   3              		.arch_extension dsp
   4              		.arch_extension fp
   5              		.arch_extension fp.dp
   6              		.arch_extension mve
   7              		.arch_extension mve.fp
   8              		.eabi_attribute 5, "cortex-m55"
   9              		.eabi_attribute 28, 1
  10              		.eabi_attribute 20, 1
  11              		.eabi_attribute 21, 1
  12              		.eabi_attribute 23, 3
  13              		.eabi_attribute 24, 1
  14              		.eabi_attribute 25, 1
  15              		.eabi_attribute 26, 1
  16              		.eabi_attribute 30, 6
  17              		.eabi_attribute 34, 1
  18              		.eabi_attribute 38, 1
  19              		.eabi_attribute 18, 4
  20              		.file	"pd_pp_model.c"
  21              		.text
  22              	.Ltext0:
  23              		.cfi_sections	.debug_frame
  24              		.file 1 "Lib/lib_vision_models_pp/lib_vision_models_pp/Src/pd_pp_model.c"
  25              		.section	.text.pd_pp_nms_comparator,"ax",%progbits
  26              		.align	1
  27              		.syntax unified
  28              		.thumb
  29              		.thumb_func
  31              	pd_pp_nms_comparator:
  32              	.LFB2645:
   1:Lib/lib_vision_models_pp/lib_vision_models_pp/Src/pd_pp_model.c **** /**
   2:Lib/lib_vision_models_pp/lib_vision_models_pp/Src/pd_pp_model.c ****   ******************************************************************************
   3:Lib/lib_vision_models_pp/lib_vision_models_pp/Src/pd_pp_model.c ****   * @file    pd_pp_model.c
   4:Lib/lib_vision_models_pp/lib_vision_models_pp/Src/pd_pp_model.c ****   * @author  MDG Application Team
   5:Lib/lib_vision_models_pp/lib_vision_models_pp/Src/pd_pp_model.c ****   ******************************************************************************
   6:Lib/lib_vision_models_pp/lib_vision_models_pp/Src/pd_pp_model.c ****   * @attention
   7:Lib/lib_vision_models_pp/lib_vision_models_pp/Src/pd_pp_model.c ****   *
   8:Lib/lib_vision_models_pp/lib_vision_models_pp/Src/pd_pp_model.c ****   * Copyright (c) 2024 STMicroelectronics.
   9:Lib/lib_vision_models_pp/lib_vision_models_pp/Src/pd_pp_model.c ****   * All rights reserved.
  10:Lib/lib_vision_models_pp/lib_vision_models_pp/Src/pd_pp_model.c ****   *
  11:Lib/lib_vision_models_pp/lib_vision_models_pp/Src/pd_pp_model.c ****   * This software is licensed under terms that can be found in the LICENSE file
  12:Lib/lib_vision_models_pp/lib_vision_models_pp/Src/pd_pp_model.c ****   * in the root directory of this software component.
  13:Lib/lib_vision_models_pp/lib_vision_models_pp/Src/pd_pp_model.c ****   * If no LICENSE file comes with this software, it is provided AS-IS.
  14:Lib/lib_vision_models_pp/lib_vision_models_pp/Src/pd_pp_model.c ****   *
  15:Lib/lib_vision_models_pp/lib_vision_models_pp/Src/pd_pp_model.c ****   ******************************************************************************
  16:Lib/lib_vision_models_pp/lib_vision_models_pp/Src/pd_pp_model.c ****   */
  17:Lib/lib_vision_models_pp/lib_vision_models_pp/Src/pd_pp_model.c **** 
  18:Lib/lib_vision_models_pp/lib_vision_models_pp/Src/pd_pp_model.c **** #include "pd_model_pp_if.h"
  19:Lib/lib_vision_models_pp/lib_vision_models_pp/Src/pd_pp_model.c **** #include "vision_models_pp.h"
  20:Lib/lib_vision_models_pp/lib_vision_models_pp/Src/pd_pp_model.c **** #include "pd_pp_loc.h"
  21:Lib/lib_vision_models_pp/lib_vision_models_pp/Src/pd_pp_model.c **** 
  22:Lib/lib_vision_models_pp/lib_vision_models_pp/Src/pd_pp_model.c **** 
  23:Lib/lib_vision_models_pp/lib_vision_models_pp/Src/pd_pp_model.c **** static int32_t pd_pp_nms_comparator(const void *arg1, const void *arg2)
  24:Lib/lib_vision_models_pp/lib_vision_models_pp/Src/pd_pp_model.c **** {
  33              		.loc 1 24 1
  34              		.cfi_startproc
ARM GAS  /tmp/cchb1jCG.s 			page 2


  35              		@ args = 0, pretend = 0, frame = 16
  36              		@ frame_needed = 1, uses_anonymous_args = 0
  37              		@ link register save eliminated.
  38 0000 80B4     		push	{r7}
  39              		.cfi_def_cfa_offset 4
  40              		.cfi_offset 7, -4
  41 0002 85B0     		sub	sp, sp, #20
  42              		.cfi_def_cfa_offset 24
  43 0004 00AF     		add	r7, sp, #0
  44              		.cfi_def_cfa_register 7
  45 0006 7860     		str	r0, [r7, #4]
  46 0008 3960     		str	r1, [r7]
  25:Lib/lib_vision_models_pp/lib_vision_models_pp/Src/pd_pp_model.c ****   const pd_pp_box_t *box1 = arg1;
  47              		.loc 1 25 22
  48 000a 7B68     		ldr	r3, [r7, #4]
  49 000c FB60     		str	r3, [r7, #12]
  26:Lib/lib_vision_models_pp/lib_vision_models_pp/Src/pd_pp_model.c ****   const pd_pp_box_t *box2 = arg2;
  50              		.loc 1 26 22
  51 000e 3B68     		ldr	r3, [r7]
  52 0010 BB60     		str	r3, [r7, #8]
  27:Lib/lib_vision_models_pp/lib_vision_models_pp/Src/pd_pp_model.c **** 
  28:Lib/lib_vision_models_pp/lib_vision_models_pp/Src/pd_pp_model.c ****   if (box1->prob < box2->prob)
  53              		.loc 1 28 11
  54 0012 FB68     		ldr	r3, [r7, #12]
  55 0014 93ED007A 		vldr.32	s14, [r3]
  56              		.loc 1 28 24
  57 0018 BB68     		ldr	r3, [r7, #8]
  58 001a D3ED007A 		vldr.32	s15, [r3]
  59              		.loc 1 28 6
  60 001e B4EEE77A 		vcmpe.f32	s14, s15
  61 0022 F1EE10FA 		vmrs	APSR_nzcv, FPSCR
  62 0026 01D5     		bpl	.L9
  29:Lib/lib_vision_models_pp/lib_vision_models_pp/Src/pd_pp_model.c ****     return 1;
  63              		.loc 1 29 12
  64 0028 0123     		movs	r3, #1
  65 002a 0EE0     		b	.L4
  66              	.L9:
  30:Lib/lib_vision_models_pp/lib_vision_models_pp/Src/pd_pp_model.c **** 
  31:Lib/lib_vision_models_pp/lib_vision_models_pp/Src/pd_pp_model.c ****   if (box1->prob > box2->prob)
  67              		.loc 1 31 11
  68 002c FB68     		ldr	r3, [r7, #12]
  69 002e 93ED007A 		vldr.32	s14, [r3]
  70              		.loc 1 31 24
  71 0032 BB68     		ldr	r3, [r7, #8]
  72 0034 D3ED007A 		vldr.32	s15, [r3]
  73              		.loc 1 31 6
  74 0038 B4EEE77A 		vcmpe.f32	s14, s15
  75 003c F1EE10FA 		vmrs	APSR_nzcv, FPSCR
  76 0040 02DD     		ble	.L10
  32:Lib/lib_vision_models_pp/lib_vision_models_pp/Src/pd_pp_model.c ****     return -1;
  77              		.loc 1 32 12
  78 0042 4FF0FF33 		mov	r3, #-1
  79 0046 00E0     		b	.L4
  80              	.L10:
  33:Lib/lib_vision_models_pp/lib_vision_models_pp/Src/pd_pp_model.c **** 
  34:Lib/lib_vision_models_pp/lib_vision_models_pp/Src/pd_pp_model.c ****   return 0;
  81              		.loc 1 34 10
ARM GAS  /tmp/cchb1jCG.s 			page 3


  82 0048 0023     		movs	r3, #0
  83              	.L4:
  35:Lib/lib_vision_models_pp/lib_vision_models_pp/Src/pd_pp_model.c **** }
  84              		.loc 1 35 1
  85 004a 1846     		mov	r0, r3
  86 004c 1437     		adds	r7, r7, #20
  87              		.cfi_def_cfa_offset 4
  88 004e BD46     		mov	sp, r7
  89              		.cfi_def_cfa_register 13
  90              		@ sp needed
  91 0050 5DF8047B 		ldr	r7, [sp], #4
  92              		.cfi_restore 7
  93              		.cfi_def_cfa_offset 0
  94 0054 7047     		bx	lr
  95              		.cfi_endproc
  96              	.LFE2645:
  98              		.section	.text.pd_pp_compute_opposite_corners_from_box,"ax",%progbits
  99              		.align	1
 100              		.syntax unified
 101              		.thumb
 102              		.thumb_func
 104              	pd_pp_compute_opposite_corners_from_box:
 105              	.LFB2646:
  36:Lib/lib_vision_models_pp/lib_vision_models_pp/Src/pd_pp_model.c **** 
  37:Lib/lib_vision_models_pp/lib_vision_models_pp/Src/pd_pp_model.c **** static void pd_pp_compute_opposite_corners_from_box(pd_pp_box_t *box, pd_pp_point_t corners[2])
  38:Lib/lib_vision_models_pp/lib_vision_models_pp/Src/pd_pp_model.c **** {
 106              		.loc 1 38 1
 107              		.cfi_startproc
 108              		@ args = 0, pretend = 0, frame = 8
 109              		@ frame_needed = 1, uses_anonymous_args = 0
 110              		@ link register save eliminated.
 111 0000 80B4     		push	{r7}
 112              		.cfi_def_cfa_offset 4
 113              		.cfi_offset 7, -4
 114 0002 83B0     		sub	sp, sp, #12
 115              		.cfi_def_cfa_offset 16
 116 0004 00AF     		add	r7, sp, #0
 117              		.cfi_def_cfa_register 7
 118 0006 7860     		str	r0, [r7, #4]
 119 0008 3960     		str	r1, [r7]
  39:Lib/lib_vision_models_pp/lib_vision_models_pp/Src/pd_pp_model.c ****   corners[0].x = box->x_center - box->width / 2;
 120              		.loc 1 39 21
 121 000a 7B68     		ldr	r3, [r7, #4]
 122 000c 93ED017A 		vldr.32	s14, [r3, #4]
 123              		.loc 1 39 37
 124 0010 7B68     		ldr	r3, [r7, #4]
 125 0012 D3ED036A 		vldr.32	s13, [r3, #12]
 126              		.loc 1 39 45
 127 0016 B0EE006A 		vmov.f32	s12, #2.0e+0
 128 001a C6EE867A 		vdiv.f32	s15, s13, s12
 129              		.loc 1 39 32
 130 001e 77EE677A 		vsub.f32	s15, s14, s15
 131              		.loc 1 39 16
 132 0022 3B68     		ldr	r3, [r7]
 133 0024 C3ED007A 		vstr.32	s15, [r3]
  40:Lib/lib_vision_models_pp/lib_vision_models_pp/Src/pd_pp_model.c ****   corners[0].y = box->y_center - box->height / 2;
 134              		.loc 1 40 21
ARM GAS  /tmp/cchb1jCG.s 			page 4


 135 0028 7B68     		ldr	r3, [r7, #4]
 136 002a 93ED027A 		vldr.32	s14, [r3, #8]
 137              		.loc 1 40 37
 138 002e 7B68     		ldr	r3, [r7, #4]
 139 0030 D3ED046A 		vldr.32	s13, [r3, #16]
 140              		.loc 1 40 46
 141 0034 B0EE006A 		vmov.f32	s12, #2.0e+0
 142 0038 C6EE867A 		vdiv.f32	s15, s13, s12
 143              		.loc 1 40 32
 144 003c 77EE677A 		vsub.f32	s15, s14, s15
 145              		.loc 1 40 16
 146 0040 3B68     		ldr	r3, [r7]
 147 0042 C3ED017A 		vstr.32	s15, [r3, #4]
  41:Lib/lib_vision_models_pp/lib_vision_models_pp/Src/pd_pp_model.c ****   corners[1].x = box->x_center + box->width / 2;
 148              		.loc 1 41 21
 149 0046 7B68     		ldr	r3, [r7, #4]
 150 0048 93ED017A 		vldr.32	s14, [r3, #4]
 151              		.loc 1 41 37
 152 004c 7B68     		ldr	r3, [r7, #4]
 153 004e D3ED036A 		vldr.32	s13, [r3, #12]
 154              		.loc 1 41 45
 155 0052 B0EE006A 		vmov.f32	s12, #2.0e+0
 156 0056 C6EE867A 		vdiv.f32	s15, s13, s12
 157              		.loc 1 41 10
 158 005a 3B68     		ldr	r3, [r7]
 159 005c 0833     		adds	r3, r3, #8
 160              		.loc 1 41 32
 161 005e 77EE277A 		vadd.f32	s15, s14, s15
 162              		.loc 1 41 16
 163 0062 C3ED007A 		vstr.32	s15, [r3]
  42:Lib/lib_vision_models_pp/lib_vision_models_pp/Src/pd_pp_model.c ****   corners[1].y = box->y_center + box->height / 2;
 164              		.loc 1 42 21
 165 0066 7B68     		ldr	r3, [r7, #4]
 166 0068 93ED027A 		vldr.32	s14, [r3, #8]
 167              		.loc 1 42 37
 168 006c 7B68     		ldr	r3, [r7, #4]
 169 006e D3ED046A 		vldr.32	s13, [r3, #16]
 170              		.loc 1 42 46
 171 0072 B0EE006A 		vmov.f32	s12, #2.0e+0
 172 0076 C6EE867A 		vdiv.f32	s15, s13, s12
 173              		.loc 1 42 10
 174 007a 3B68     		ldr	r3, [r7]
 175 007c 0833     		adds	r3, r3, #8
 176              		.loc 1 42 32
 177 007e 77EE277A 		vadd.f32	s15, s14, s15
 178              		.loc 1 42 16
 179 0082 C3ED017A 		vstr.32	s15, [r3, #4]
  43:Lib/lib_vision_models_pp/lib_vision_models_pp/Src/pd_pp_model.c **** }
 180              		.loc 1 43 1
 181 0086 00BF     		nop
 182 0088 0C37     		adds	r7, r7, #12
 183              		.cfi_def_cfa_offset 4
 184 008a BD46     		mov	sp, r7
 185              		.cfi_def_cfa_register 13
 186              		@ sp needed
 187 008c 5DF8047B 		ldr	r7, [sp], #4
 188              		.cfi_restore 7
ARM GAS  /tmp/cchb1jCG.s 			page 5


 189              		.cfi_def_cfa_offset 0
 190 0090 7047     		bx	lr
 191              		.cfi_endproc
 192              	.LFE2646:
 194              		.section	.text.pd_pp_compute_iou,"ax",%progbits
 195              		.align	1
 196              		.syntax unified
 197              		.thumb
 198              		.thumb_func
 200              	pd_pp_compute_iou:
 201              	.LFB2647:
  44:Lib/lib_vision_models_pp/lib_vision_models_pp/Src/pd_pp_model.c **** 
  45:Lib/lib_vision_models_pp/lib_vision_models_pp/Src/pd_pp_model.c **** static float pd_pp_compute_iou(pd_pp_box_t *box0, pd_pp_box_t *box1)
  46:Lib/lib_vision_models_pp/lib_vision_models_pp/Src/pd_pp_model.c **** {
 202              		.loc 1 46 1
 203              		.cfi_startproc
 204              		@ args = 0, pretend = 0, frame = 104
 205              		@ frame_needed = 1, uses_anonymous_args = 0
 206 0000 80B5     		push	{r7, lr}
 207              		.cfi_def_cfa_offset 8
 208              		.cfi_offset 7, -8
 209              		.cfi_offset 14, -4
 210 0002 9AB0     		sub	sp, sp, #104
 211              		.cfi_def_cfa_offset 112
 212 0004 00AF     		add	r7, sp, #0
 213              		.cfi_def_cfa_register 7
 214 0006 7860     		str	r0, [r7, #4]
 215 0008 3960     		str	r1, [r7]
  47:Lib/lib_vision_models_pp/lib_vision_models_pp/Src/pd_pp_model.c ****   pd_pp_point_t corners[2][2];
  48:Lib/lib_vision_models_pp/lib_vision_models_pp/Src/pd_pp_model.c ****   float32_t intersect_xmin;
  49:Lib/lib_vision_models_pp/lib_vision_models_pp/Src/pd_pp_model.c ****   float32_t intersect_ymin;
  50:Lib/lib_vision_models_pp/lib_vision_models_pp/Src/pd_pp_model.c ****   float32_t intersect_xmax;
  51:Lib/lib_vision_models_pp/lib_vision_models_pp/Src/pd_pp_model.c ****   float32_t intersect_ymax;
  52:Lib/lib_vision_models_pp/lib_vision_models_pp/Src/pd_pp_model.c ****   float32_t intersect_area;
  53:Lib/lib_vision_models_pp/lib_vision_models_pp/Src/pd_pp_model.c ****   float32_t area[2];
  54:Lib/lib_vision_models_pp/lib_vision_models_pp/Src/pd_pp_model.c ****   float32_t xmin[2];
  55:Lib/lib_vision_models_pp/lib_vision_models_pp/Src/pd_pp_model.c ****   float32_t xmax[2];
  56:Lib/lib_vision_models_pp/lib_vision_models_pp/Src/pd_pp_model.c ****   float32_t ymin[2];
  57:Lib/lib_vision_models_pp/lib_vision_models_pp/Src/pd_pp_model.c ****   float32_t ymax[2];
  58:Lib/lib_vision_models_pp/lib_vision_models_pp/Src/pd_pp_model.c ****   int i;
  59:Lib/lib_vision_models_pp/lib_vision_models_pp/Src/pd_pp_model.c **** 
  60:Lib/lib_vision_models_pp/lib_vision_models_pp/Src/pd_pp_model.c ****   pd_pp_compute_opposite_corners_from_box(box0, corners[0]);
 216              		.loc 1 60 3
 217 000a 07F13003 		add	r3, r7, #48
 218 000e 1946     		mov	r1, r3
 219 0010 7868     		ldr	r0, [r7, #4]
 220 0012 FFF7FEFF 		bl	pd_pp_compute_opposite_corners_from_box
  61:Lib/lib_vision_models_pp/lib_vision_models_pp/Src/pd_pp_model.c ****   pd_pp_compute_opposite_corners_from_box(box1, corners[1]);
 221              		.loc 1 61 3
 222 0016 07F13003 		add	r3, r7, #48
 223 001a 1033     		adds	r3, r3, #16
 224 001c 1946     		mov	r1, r3
 225 001e 3868     		ldr	r0, [r7]
 226 0020 FFF7FEFF 		bl	pd_pp_compute_opposite_corners_from_box
  62:Lib/lib_vision_models_pp/lib_vision_models_pp/Src/pd_pp_model.c **** 
  63:Lib/lib_vision_models_pp/lib_vision_models_pp/Src/pd_pp_model.c ****   for (i = 0; i < 2; i++) {
 227              		.loc 1 63 10
ARM GAS  /tmp/cchb1jCG.s 			page 6


 228 0024 0023     		movs	r3, #0
 229 0026 7B66     		str	r3, [r7, #100]
 230              		.loc 1 63 3
 231 0028 9AE0     		b	.L13
 232              	.L26:
  64:Lib/lib_vision_models_pp/lib_vision_models_pp/Src/pd_pp_model.c ****     xmin[i] = MIN(corners[i][0].x, corners[i][1].x);
 233              		.loc 1 64 15
 234 002a 7B6E     		ldr	r3, [r7, #100]
 235 002c 1B01     		lsls	r3, r3, #4
 236 002e 6833     		adds	r3, r3, #104
 237 0030 3B44     		add	r3, r3, r7
 238 0032 383B     		subs	r3, r3, #56
 239 0034 93ED007A 		vldr.32	s14, [r3]
 240 0038 7B6E     		ldr	r3, [r7, #100]
 241 003a 1B01     		lsls	r3, r3, #4
 242 003c 6833     		adds	r3, r3, #104
 243 003e 3B44     		add	r3, r3, r7
 244 0040 303B     		subs	r3, r3, #48
 245 0042 D3ED007A 		vldr.32	s15, [r3]
 246 0046 B4EEE77A 		vcmpe.f32	s14, s15
 247 004a F1EE10FA 		vmrs	APSR_nzcv, FPSCR
 248 004e 06D5     		bpl	.L62
 249              		.loc 1 64 15 is_stmt 0 discriminator 1
 250 0050 7B6E     		ldr	r3, [r7, #100]
 251 0052 1B01     		lsls	r3, r3, #4
 252 0054 6833     		adds	r3, r3, #104
 253 0056 3B44     		add	r3, r3, r7
 254 0058 383B     		subs	r3, r3, #56
 255 005a 1B68     		ldr	r3, [r3]	@ float
 256 005c 05E0     		b	.L16
 257              	.L62:
 258              		.loc 1 64 15 discriminator 2
 259 005e 7B6E     		ldr	r3, [r7, #100]
 260 0060 1B01     		lsls	r3, r3, #4
 261 0062 6833     		adds	r3, r3, #104
 262 0064 3B44     		add	r3, r3, r7
 263 0066 303B     		subs	r3, r3, #48
 264 0068 1B68     		ldr	r3, [r3]	@ float
 265              	.L16:
 266              		.loc 1 64 13 is_stmt 1 discriminator 4
 267 006a 7A6E     		ldr	r2, [r7, #100]
 268 006c 9200     		lsls	r2, r2, #2
 269 006e 6832     		adds	r2, r2, #104
 270 0070 3A44     		add	r2, r2, r7
 271 0072 483A     		subs	r2, r2, #72
 272 0074 1360     		str	r3, [r2]	@ float
  65:Lib/lib_vision_models_pp/lib_vision_models_pp/Src/pd_pp_model.c ****     xmax[i] = MAX(corners[i][0].x, corners[i][1].x);
 273              		.loc 1 65 15
 274 0076 7B6E     		ldr	r3, [r7, #100]
 275 0078 1B01     		lsls	r3, r3, #4
 276 007a 6833     		adds	r3, r3, #104
 277 007c 3B44     		add	r3, r3, r7
 278 007e 383B     		subs	r3, r3, #56
 279 0080 93ED007A 		vldr.32	s14, [r3]
 280 0084 7B6E     		ldr	r3, [r7, #100]
 281 0086 1B01     		lsls	r3, r3, #4
 282 0088 6833     		adds	r3, r3, #104
ARM GAS  /tmp/cchb1jCG.s 			page 7


 283 008a 3B44     		add	r3, r3, r7
 284 008c 303B     		subs	r3, r3, #48
 285 008e D3ED007A 		vldr.32	s15, [r3]
 286 0092 B4EEE77A 		vcmpe.f32	s14, s15
 287 0096 F1EE10FA 		vmrs	APSR_nzcv, FPSCR
 288 009a 06DD     		ble	.L63
 289              		.loc 1 65 15 is_stmt 0 discriminator 1
 290 009c 7B6E     		ldr	r3, [r7, #100]
 291 009e 1B01     		lsls	r3, r3, #4
 292 00a0 6833     		adds	r3, r3, #104
 293 00a2 3B44     		add	r3, r3, r7
 294 00a4 383B     		subs	r3, r3, #56
 295 00a6 1B68     		ldr	r3, [r3]	@ float
 296 00a8 05E0     		b	.L19
 297              	.L63:
 298              		.loc 1 65 15 discriminator 2
 299 00aa 7B6E     		ldr	r3, [r7, #100]
 300 00ac 1B01     		lsls	r3, r3, #4
 301 00ae 6833     		adds	r3, r3, #104
 302 00b0 3B44     		add	r3, r3, r7
 303 00b2 303B     		subs	r3, r3, #48
 304 00b4 1B68     		ldr	r3, [r3]	@ float
 305              	.L19:
 306              		.loc 1 65 13 is_stmt 1 discriminator 4
 307 00b6 7A6E     		ldr	r2, [r7, #100]
 308 00b8 9200     		lsls	r2, r2, #2
 309 00ba 6832     		adds	r2, r2, #104
 310 00bc 3A44     		add	r2, r2, r7
 311 00be 503A     		subs	r2, r2, #80
 312 00c0 1360     		str	r3, [r2]	@ float
  66:Lib/lib_vision_models_pp/lib_vision_models_pp/Src/pd_pp_model.c ****     ymin[i] = MIN(corners[i][0].y, corners[i][1].y);
 313              		.loc 1 66 15
 314 00c2 7B6E     		ldr	r3, [r7, #100]
 315 00c4 1B01     		lsls	r3, r3, #4
 316 00c6 6833     		adds	r3, r3, #104
 317 00c8 3B44     		add	r3, r3, r7
 318 00ca 343B     		subs	r3, r3, #52
 319 00cc 93ED007A 		vldr.32	s14, [r3]
 320 00d0 7B6E     		ldr	r3, [r7, #100]
 321 00d2 1B01     		lsls	r3, r3, #4
 322 00d4 6833     		adds	r3, r3, #104
 323 00d6 3B44     		add	r3, r3, r7
 324 00d8 2C3B     		subs	r3, r3, #44
 325 00da D3ED007A 		vldr.32	s15, [r3]
 326 00de B4EEE77A 		vcmpe.f32	s14, s15
 327 00e2 F1EE10FA 		vmrs	APSR_nzcv, FPSCR
 328 00e6 06D5     		bpl	.L64
 329              		.loc 1 66 15 is_stmt 0 discriminator 1
 330 00e8 7B6E     		ldr	r3, [r7, #100]
 331 00ea 1B01     		lsls	r3, r3, #4
 332 00ec 6833     		adds	r3, r3, #104
 333 00ee 3B44     		add	r3, r3, r7
 334 00f0 343B     		subs	r3, r3, #52
 335 00f2 1B68     		ldr	r3, [r3]	@ float
 336 00f4 05E0     		b	.L22
 337              	.L64:
 338              		.loc 1 66 15 discriminator 2
ARM GAS  /tmp/cchb1jCG.s 			page 8


 339 00f6 7B6E     		ldr	r3, [r7, #100]
 340 00f8 1B01     		lsls	r3, r3, #4
 341 00fa 6833     		adds	r3, r3, #104
 342 00fc 3B44     		add	r3, r3, r7
 343 00fe 2C3B     		subs	r3, r3, #44
 344 0100 1B68     		ldr	r3, [r3]	@ float
 345              	.L22:
 346              		.loc 1 66 13 is_stmt 1 discriminator 4
 347 0102 7A6E     		ldr	r2, [r7, #100]
 348 0104 9200     		lsls	r2, r2, #2
 349 0106 6832     		adds	r2, r2, #104
 350 0108 3A44     		add	r2, r2, r7
 351 010a 583A     		subs	r2, r2, #88
 352 010c 1360     		str	r3, [r2]	@ float
  67:Lib/lib_vision_models_pp/lib_vision_models_pp/Src/pd_pp_model.c ****     ymax[i] = MAX(corners[i][0].y, corners[i][1].y);
 353              		.loc 1 67 15
 354 010e 7B6E     		ldr	r3, [r7, #100]
 355 0110 1B01     		lsls	r3, r3, #4
 356 0112 6833     		adds	r3, r3, #104
 357 0114 3B44     		add	r3, r3, r7
 358 0116 343B     		subs	r3, r3, #52
 359 0118 93ED007A 		vldr.32	s14, [r3]
 360 011c 7B6E     		ldr	r3, [r7, #100]
 361 011e 1B01     		lsls	r3, r3, #4
 362 0120 6833     		adds	r3, r3, #104
 363 0122 3B44     		add	r3, r3, r7
 364 0124 2C3B     		subs	r3, r3, #44
 365 0126 D3ED007A 		vldr.32	s15, [r3]
 366 012a B4EEE77A 		vcmpe.f32	s14, s15
 367 012e F1EE10FA 		vmrs	APSR_nzcv, FPSCR
 368 0132 06DD     		ble	.L65
 369              		.loc 1 67 15 is_stmt 0 discriminator 1
 370 0134 7B6E     		ldr	r3, [r7, #100]
 371 0136 1B01     		lsls	r3, r3, #4
 372 0138 6833     		adds	r3, r3, #104
 373 013a 3B44     		add	r3, r3, r7
 374 013c 343B     		subs	r3, r3, #52
 375 013e 1B68     		ldr	r3, [r3]	@ float
 376 0140 05E0     		b	.L25
 377              	.L65:
 378              		.loc 1 67 15 discriminator 2
 379 0142 7B6E     		ldr	r3, [r7, #100]
 380 0144 1B01     		lsls	r3, r3, #4
 381 0146 6833     		adds	r3, r3, #104
 382 0148 3B44     		add	r3, r3, r7
 383 014a 2C3B     		subs	r3, r3, #44
 384 014c 1B68     		ldr	r3, [r3]	@ float
 385              	.L25:
 386              		.loc 1 67 13 is_stmt 1 discriminator 4
 387 014e 7A6E     		ldr	r2, [r7, #100]
 388 0150 9200     		lsls	r2, r2, #2
 389 0152 6832     		adds	r2, r2, #104
 390 0154 3A44     		add	r2, r2, r7
 391 0156 603A     		subs	r2, r2, #96
 392 0158 1360     		str	r3, [r2]	@ float
  63:Lib/lib_vision_models_pp/lib_vision_models_pp/Src/pd_pp_model.c ****     xmin[i] = MIN(corners[i][0].x, corners[i][1].x);
 393              		.loc 1 63 23 discriminator 2
ARM GAS  /tmp/cchb1jCG.s 			page 9


 394 015a 7B6E     		ldr	r3, [r7, #100]
 395 015c 0133     		adds	r3, r3, #1
 396 015e 7B66     		str	r3, [r7, #100]
 397              	.L13:
  63:Lib/lib_vision_models_pp/lib_vision_models_pp/Src/pd_pp_model.c ****     xmin[i] = MIN(corners[i][0].x, corners[i][1].x);
 398              		.loc 1 63 17 discriminator 1
 399 0160 7B6E     		ldr	r3, [r7, #100]
 400 0162 012B     		cmp	r3, #1
 401 0164 7FF761AF 		ble	.L26
  68:Lib/lib_vision_models_pp/lib_vision_models_pp/Src/pd_pp_model.c ****   }
  69:Lib/lib_vision_models_pp/lib_vision_models_pp/Src/pd_pp_model.c **** 
  70:Lib/lib_vision_models_pp/lib_vision_models_pp/Src/pd_pp_model.c ****   for (i = 0; i < 2; i++) {
 402              		.loc 1 70 10
 403 0168 0023     		movs	r3, #0
 404 016a 7B66     		str	r3, [r7, #100]
 405              		.loc 1 70 3
 406 016c 2BE0     		b	.L27
 407              	.L28:
  71:Lib/lib_vision_models_pp/lib_vision_models_pp/Src/pd_pp_model.c ****     area[i] = (ymax[i] - ymin[i]) * (xmax[i] - xmin[i]);
 408              		.loc 1 71 20
 409 016e 7B6E     		ldr	r3, [r7, #100]
 410 0170 9B00     		lsls	r3, r3, #2
 411 0172 6833     		adds	r3, r3, #104
 412 0174 3B44     		add	r3, r3, r7
 413 0176 603B     		subs	r3, r3, #96
 414 0178 93ED007A 		vldr.32	s14, [r3]
 415              		.loc 1 71 30
 416 017c 7B6E     		ldr	r3, [r7, #100]
 417 017e 9B00     		lsls	r3, r3, #2
 418 0180 6833     		adds	r3, r3, #104
 419 0182 3B44     		add	r3, r3, r7
 420 0184 583B     		subs	r3, r3, #88
 421 0186 D3ED007A 		vldr.32	s15, [r3]
 422              		.loc 1 71 24
 423 018a 37EE677A 		vsub.f32	s14, s14, s15
 424              		.loc 1 71 42
 425 018e 7B6E     		ldr	r3, [r7, #100]
 426 0190 9B00     		lsls	r3, r3, #2
 427 0192 6833     		adds	r3, r3, #104
 428 0194 3B44     		add	r3, r3, r7
 429 0196 503B     		subs	r3, r3, #80
 430 0198 D3ED006A 		vldr.32	s13, [r3]
 431              		.loc 1 71 52
 432 019c 7B6E     		ldr	r3, [r7, #100]
 433 019e 9B00     		lsls	r3, r3, #2
 434 01a0 6833     		adds	r3, r3, #104
 435 01a2 3B44     		add	r3, r3, r7
 436 01a4 483B     		subs	r3, r3, #72
 437 01a6 D3ED007A 		vldr.32	s15, [r3]
 438              		.loc 1 71 46
 439 01aa 76EEE77A 		vsub.f32	s15, s13, s15
 440              		.loc 1 71 35
 441 01ae 67EE277A 		vmul.f32	s15, s14, s15
 442              		.loc 1 71 13
 443 01b2 7B6E     		ldr	r3, [r7, #100]
 444 01b4 9B00     		lsls	r3, r3, #2
 445 01b6 6833     		adds	r3, r3, #104
ARM GAS  /tmp/cchb1jCG.s 			page 10


 446 01b8 3B44     		add	r3, r3, r7
 447 01ba 403B     		subs	r3, r3, #64
 448 01bc C3ED007A 		vstr.32	s15, [r3]
  70:Lib/lib_vision_models_pp/lib_vision_models_pp/Src/pd_pp_model.c ****     area[i] = (ymax[i] - ymin[i]) * (xmax[i] - xmin[i]);
 449              		.loc 1 70 23 discriminator 3
 450 01c0 7B6E     		ldr	r3, [r7, #100]
 451 01c2 0133     		adds	r3, r3, #1
 452 01c4 7B66     		str	r3, [r7, #100]
 453              	.L27:
  70:Lib/lib_vision_models_pp/lib_vision_models_pp/Src/pd_pp_model.c ****     area[i] = (ymax[i] - ymin[i]) * (xmax[i] - xmin[i]);
 454              		.loc 1 70 17 discriminator 1
 455 01c6 7B6E     		ldr	r3, [r7, #100]
 456 01c8 012B     		cmp	r3, #1
 457 01ca D0DD     		ble	.L28
  72:Lib/lib_vision_models_pp/lib_vision_models_pp/Src/pd_pp_model.c ****   }
  73:Lib/lib_vision_models_pp/lib_vision_models_pp/Src/pd_pp_model.c ****   if (area[0] <= 0 || area[1] <= 0)
 458              		.loc 1 73 11
 459 01cc D7ED0A7A 		vldr.32	s15, [r7, #40]
 460              		.loc 1 73 6
 461 01d0 F5EEC07A 		vcmpe.f32	s15, #0
 462 01d4 F1EE10FA 		vmrs	APSR_nzcv, FPSCR
 463 01d8 06D9     		bls	.L29
 464              		.loc 1 73 27 discriminator 1
 465 01da D7ED0B7A 		vldr.32	s15, [r7, #44]
 466              		.loc 1 73 20 discriminator 1
 467 01de F5EEC07A 		vcmpe.f32	s15, #0
 468 01e2 F1EE10FA 		vmrs	APSR_nzcv, FPSCR
 469 01e6 02D8     		bhi	.L66
 470              	.L29:
  74:Lib/lib_vision_models_pp/lib_vision_models_pp/Src/pd_pp_model.c ****     return 0;
 471              		.loc 1 74 12
 472 01e8 DFED3B6A 		vldr.32	s13, .L73
 473 01ec 6DE0     		b	.L51
 474              	.L66:
  75:Lib/lib_vision_models_pp/lib_vision_models_pp/Src/pd_pp_model.c **** 
  76:Lib/lib_vision_models_pp/lib_vision_models_pp/Src/pd_pp_model.c ****   intersect_xmin = MAX(xmin[0], xmin[1]);
 475              		.loc 1 76 20
 476 01ee 97ED087A 		vldr.32	s14, [r7, #32]
 477 01f2 D7ED097A 		vldr.32	s15, [r7, #36]
 478 01f6 B4EEE77A 		vcmpe.f32	s14, s15
 479 01fa F1EE10FA 		vmrs	APSR_nzcv, FPSCR
 480 01fe 01DD     		ble	.L67
 481              		.loc 1 76 20 is_stmt 0 discriminator 1
 482 0200 3B6A     		ldr	r3, [r7, #32]	@ float
 483 0202 00E0     		b	.L35
 484              	.L67:
 485              		.loc 1 76 20 discriminator 2
 486 0204 7B6A     		ldr	r3, [r7, #36]	@ float
 487              	.L35:
 488              		.loc 1 76 18 is_stmt 1 discriminator 4
 489 0206 3B66     		str	r3, [r7, #96]	@ float
  77:Lib/lib_vision_models_pp/lib_vision_models_pp/Src/pd_pp_model.c ****   intersect_ymin = MAX(ymin[0], ymin[1]);
 490              		.loc 1 77 20
 491 0208 97ED047A 		vldr.32	s14, [r7, #16]
 492 020c D7ED057A 		vldr.32	s15, [r7, #20]
 493 0210 B4EEE77A 		vcmpe.f32	s14, s15
 494 0214 F1EE10FA 		vmrs	APSR_nzcv, FPSCR
ARM GAS  /tmp/cchb1jCG.s 			page 11


 495 0218 01DD     		ble	.L68
 496              		.loc 1 77 20 is_stmt 0 discriminator 1
 497 021a 3B69     		ldr	r3, [r7, #16]	@ float
 498 021c 00E0     		b	.L38
 499              	.L68:
 500              		.loc 1 77 20 discriminator 2
 501 021e 7B69     		ldr	r3, [r7, #20]	@ float
 502              	.L38:
 503              		.loc 1 77 18 is_stmt 1 discriminator 4
 504 0220 FB65     		str	r3, [r7, #92]	@ float
  78:Lib/lib_vision_models_pp/lib_vision_models_pp/Src/pd_pp_model.c ****   intersect_xmax = MIN(xmax[0], xmax[1]);
 505              		.loc 1 78 20
 506 0222 97ED067A 		vldr.32	s14, [r7, #24]
 507 0226 D7ED077A 		vldr.32	s15, [r7, #28]
 508 022a B4EEE77A 		vcmpe.f32	s14, s15
 509 022e F1EE10FA 		vmrs	APSR_nzcv, FPSCR
 510 0232 01D5     		bpl	.L69
 511              		.loc 1 78 20 is_stmt 0 discriminator 1
 512 0234 BB69     		ldr	r3, [r7, #24]	@ float
 513 0236 00E0     		b	.L41
 514              	.L69:
 515              		.loc 1 78 20 discriminator 2
 516 0238 FB69     		ldr	r3, [r7, #28]	@ float
 517              	.L41:
 518              		.loc 1 78 18 is_stmt 1 discriminator 4
 519 023a BB65     		str	r3, [r7, #88]	@ float
  79:Lib/lib_vision_models_pp/lib_vision_models_pp/Src/pd_pp_model.c ****   intersect_ymax = MIN(ymax[0], ymax[1]);
 520              		.loc 1 79 20
 521 023c 97ED027A 		vldr.32	s14, [r7, #8]
 522 0240 D7ED037A 		vldr.32	s15, [r7, #12]
 523 0244 B4EEE77A 		vcmpe.f32	s14, s15
 524 0248 F1EE10FA 		vmrs	APSR_nzcv, FPSCR
 525 024c 01D5     		bpl	.L70
 526              		.loc 1 79 20 is_stmt 0 discriminator 1
 527 024e BB68     		ldr	r3, [r7, #8]	@ float
 528 0250 00E0     		b	.L44
 529              	.L70:
 530              		.loc 1 79 20 discriminator 2
 531 0252 FB68     		ldr	r3, [r7, #12]	@ float
 532              	.L44:
 533              		.loc 1 79 18 is_stmt 1 discriminator 4
 534 0254 7B65     		str	r3, [r7, #84]	@ float
  80:Lib/lib_vision_models_pp/lib_vision_models_pp/Src/pd_pp_model.c **** 
  81:Lib/lib_vision_models_pp/lib_vision_models_pp/Src/pd_pp_model.c ****   intersect_area = MAX(intersect_ymax - intersect_ymin, 0.0f) * MAX(intersect_xmax - intersect_xmin
 535              		.loc 1 81 20
 536 0256 97ED157A 		vldr.32	s14, [r7, #84]
 537 025a D7ED177A 		vldr.32	s15, [r7, #92]
 538 025e 77EE677A 		vsub.f32	s15, s14, s15
 539 0262 F5EEC07A 		vcmpe.f32	s15, #0
 540 0266 F1EE10FA 		vmrs	APSR_nzcv, FPSCR
 541 026a 06DD     		ble	.L71
 542              		.loc 1 81 20 is_stmt 0 discriminator 1
 543 026c 97ED157A 		vldr.32	s14, [r7, #84]
 544 0270 D7ED177A 		vldr.32	s15, [r7, #92]
 545 0274 37EE677A 		vsub.f32	s14, s14, s15
 546 0278 01E0     		b	.L47
 547              	.L71:
ARM GAS  /tmp/cchb1jCG.s 			page 12


 548              		.loc 1 81 20 discriminator 2
 549 027a 9FED177A 		vldr.32	s14, .L73
 550              	.L47:
 551              		.loc 1 81 65 is_stmt 1 discriminator 4
 552 027e D7ED166A 		vldr.32	s13, [r7, #88]
 553 0282 D7ED187A 		vldr.32	s15, [r7, #96]
 554 0286 76EEE77A 		vsub.f32	s15, s13, s15
 555 028a F5EEC07A 		vcmpe.f32	s15, #0
 556 028e F1EE10FA 		vmrs	APSR_nzcv, FPSCR
 557 0292 06DD     		ble	.L72
 558              		.loc 1 81 65 is_stmt 0 discriminator 5
 559 0294 D7ED166A 		vldr.32	s13, [r7, #88]
 560 0298 D7ED187A 		vldr.32	s15, [r7, #96]
 561 029c 76EEE77A 		vsub.f32	s15, s13, s15
 562 02a0 01E0     		b	.L50
 563              	.L72:
 564              		.loc 1 81 65 discriminator 6
 565 02a2 DFED0D7A 		vldr.32	s15, .L73
 566              	.L50:
 567              		.loc 1 81 18 is_stmt 1 discriminator 8
 568 02a6 67EE277A 		vmul.f32	s15, s14, s15
 569 02aa C7ED147A 		vstr.32	s15, [r7, #80]
  82:Lib/lib_vision_models_pp/lib_vision_models_pp/Src/pd_pp_model.c **** 
  83:Lib/lib_vision_models_pp/lib_vision_models_pp/Src/pd_pp_model.c ****   return intersect_area / (area[0] + area[1] - intersect_area);
 570              		.loc 1 83 32
 571 02ae 97ED0A7A 		vldr.32	s14, [r7, #40]
 572              		.loc 1 83 42
 573 02b2 D7ED0B7A 		vldr.32	s15, [r7, #44]
 574              		.loc 1 83 36
 575 02b6 37EE277A 		vadd.f32	s14, s14, s15
 576              		.loc 1 83 46
 577 02ba D7ED147A 		vldr.32	s15, [r7, #80]
 578 02be 77EE677A 		vsub.f32	s15, s14, s15
 579              		.loc 1 83 25
 580 02c2 97ED147A 		vldr.32	s14, [r7, #80]
 581 02c6 C7EE276A 		vdiv.f32	s13, s14, s15
 582              	.L51:
  84:Lib/lib_vision_models_pp/lib_vision_models_pp/Src/pd_pp_model.c **** }
 583              		.loc 1 84 1
 584 02ca F0EE667A 		vmov.f32	s15, s13
 585 02ce B0EE670A 		vmov.f32	s0, s15
 586 02d2 6837     		adds	r7, r7, #104
 587              		.cfi_def_cfa_offset 8
 588 02d4 BD46     		mov	sp, r7
 589              		.cfi_def_cfa_register 13
 590              		@ sp needed
 591 02d6 80BD     		pop	{r7, pc}
 592              	.L74:
 593              		.align	2
 594              	.L73:
 595 02d8 00000000 		.word	0
 596              		.cfi_endproc
 597              	.LFE2647:
 599              		.section	.text.pd_pp_decode,"ax",%progbits
 600              		.align	1
 601              		.syntax unified
 602              		.thumb
ARM GAS  /tmp/cchb1jCG.s 			page 13


 603              		.thumb_func
 605              	pd_pp_decode:
 606              	.LFB2648:
  85:Lib/lib_vision_models_pp/lib_vision_models_pp/Src/pd_pp_model.c **** static int32_t pd_pp_decode(pd_model_pp_in_t *pInput,
  86:Lib/lib_vision_models_pp/lib_vision_models_pp/Src/pd_pp_model.c ****                             pd_pp_out_t *pOutput,
  87:Lib/lib_vision_models_pp/lib_vision_models_pp/Src/pd_pp_model.c ****                             pd_model_pp_static_param_t *pInput_static_param) {
 607              		.loc 1 87 78
 608              		.cfi_startproc
 609              		@ args = 0, pretend = 0, frame = 64
 610              		@ frame_needed = 1, uses_anonymous_args = 0
 611 0000 80B5     		push	{r7, lr}
 612              		.cfi_def_cfa_offset 8
 613              		.cfi_offset 7, -8
 614              		.cfi_offset 14, -4
 615 0002 90B0     		sub	sp, sp, #64
 616              		.cfi_def_cfa_offset 72
 617 0004 00AF     		add	r7, sp, #0
 618              		.cfi_def_cfa_register 7
 619 0006 F860     		str	r0, [r7, #12]
 620 0008 B960     		str	r1, [r7, #8]
 621 000a 7A60     		str	r2, [r7, #4]
  88:Lib/lib_vision_models_pp/lib_vision_models_pp/Src/pd_pp_model.c **** 
  89:Lib/lib_vision_models_pp/lib_vision_models_pp/Src/pd_pp_model.c ****   pOutput->box_nb = 0;
 622              		.loc 1 89 19
 623 000c BB68     		ldr	r3, [r7, #8]
 624 000e 0022     		movs	r2, #0
 625 0010 5A60     		str	r2, [r3, #4]
  90:Lib/lib_vision_models_pp/lib_vision_models_pp/Src/pd_pp_model.c **** 
  91:Lib/lib_vision_models_pp/lib_vision_models_pp/Src/pd_pp_model.c ****   pd_pp_box_t *pBoxes = (pd_pp_box_t *)pOutput->pOutData;
 626              		.loc 1 91 16
 627 0012 BB68     		ldr	r3, [r7, #8]
 628 0014 1B68     		ldr	r3, [r3]
 629 0016 3B63     		str	r3, [r7, #48]
  92:Lib/lib_vision_models_pp/lib_vision_models_pp/Src/pd_pp_model.c ****   float32_t width  = pInput_static_param->width;
 630              		.loc 1 92 41
 631 0018 7B68     		ldr	r3, [r7, #4]
 632 001a 1B68     		ldr	r3, [r3]
 633              		.loc 1 92 13
 634 001c 07EE903A 		vmov	s15, r3	@ int
 635 0020 F8EE677A 		vcvt.f32.u32	s15, s15
 636 0024 C7ED0B7A 		vstr.32	s15, [r7, #44]
  93:Lib/lib_vision_models_pp/lib_vision_models_pp/Src/pd_pp_model.c ****   float32_t height = pInput_static_param->height;
 637              		.loc 1 93 41
 638 0028 7B68     		ldr	r3, [r7, #4]
 639 002a 5B68     		ldr	r3, [r3, #4]
 640              		.loc 1 93 13
 641 002c 07EE903A 		vmov	s15, r3	@ int
 642 0030 F8EE677A 		vcvt.f32.u32	s15, s15
 643 0034 C7ED0A7A 		vstr.32	s15, [r7, #40]
  94:Lib/lib_vision_models_pp/lib_vision_models_pp/Src/pd_pp_model.c ****   float32_t *pRawBoxes = (float32_t *)pInput->pBoxes;
 644              		.loc 1 94 14
 645 0038 FB68     		ldr	r3, [r7, #12]
 646 003a 5B68     		ldr	r3, [r3, #4]
 647 003c 7B62     		str	r3, [r7, #36]
  95:Lib/lib_vision_models_pp/lib_vision_models_pp/Src/pd_pp_model.c ****   float32_t *pRawProbs = (float32_t *)pInput->pProbs;
 648              		.loc 1 95 14
 649 003e FB68     		ldr	r3, [r7, #12]
ARM GAS  /tmp/cchb1jCG.s 			page 14


 650 0040 1B68     		ldr	r3, [r3]
 651 0042 3B62     		str	r3, [r7, #32]
  96:Lib/lib_vision_models_pp/lib_vision_models_pp/Src/pd_pp_model.c ****   float32_t *pAnchors = (float32_t *)pInput_static_param->pAnchors;
 652              		.loc 1 96 14
 653 0044 7B68     		ldr	r3, [r7, #4]
 654 0046 DB69     		ldr	r3, [r3, #28]
 655 0048 FB61     		str	r3, [r7, #28]
  97:Lib/lib_vision_models_pp/lib_vision_models_pp/Src/pd_pp_model.c ****   const size_t in_struct_size = (2 * pInput_static_param->nb_keypoints) + AI_PD_MODEL_PP_KEYPOINTS;
 656              		.loc 1 97 57
 657 004a 7B68     		ldr	r3, [r7, #4]
 658 004c 9B68     		ldr	r3, [r3, #8]
 659              		.loc 1 97 73
 660 004e 0233     		adds	r3, r3, #2
 661              		.loc 1 97 16
 662 0050 5B00     		lsls	r3, r3, #1
 663 0052 BB61     		str	r3, [r7, #24]
  98:Lib/lib_vision_models_pp/lib_vision_models_pp/Src/pd_pp_model.c ****   size_t box_nb = 0;
 664              		.loc 1 98 10
 665 0054 0023     		movs	r3, #0
 666 0056 FB63     		str	r3, [r7, #60]
  99:Lib/lib_vision_models_pp/lib_vision_models_pp/Src/pd_pp_model.c ****   float32_t computedThreshold = -logf( 1 / pInput_static_param->conf_threshold - 1);
 667              		.loc 1 99 63
 668 0058 7B68     		ldr	r3, [r7, #4]
 669 005a 93ED037A 		vldr.32	s14, [r3, #12]
 670              		.loc 1 99 42
 671 005e F7EE006A 		vmov.f32	s13, #1.0e+0
 672 0062 C6EE877A 		vdiv.f32	s15, s13, s14
 673              		.loc 1 99 34
 674 0066 B7EE007A 		vmov.f32	s14, #1.0e+0
 675 006a 77EEC77A 		vsub.f32	s15, s15, s14
 676 006e B0EE670A 		vmov.f32	s0, s15
 677 0072 FFF7FEFF 		bl	logf
 678 0076 F0EE407A 		vmov.f32	s15, s0
 679              		.loc 1 99 13 discriminator 1
 680 007a F1EE677A 		vneg.f32	s15, s15
 681 007e C7ED057A 		vstr.32	s15, [r7, #20]
 682              	.LBB2:
 100:Lib/lib_vision_models_pp/lib_vision_models_pp/Src/pd_pp_model.c **** 
 101:Lib/lib_vision_models_pp/lib_vision_models_pp/Src/pd_pp_model.c ****   for (uint32_t i = 0; i < pInput_static_param->nb_total_boxes; i++) {
 683              		.loc 1 101 17
 684 0082 0023     		movs	r3, #0
 685 0084 BB63     		str	r3, [r7, #56]
 686              		.loc 1 101 3
 687 0086 EAE0     		b	.L76
 688              	.L82:
 689              	.LBB3:
 102:Lib/lib_vision_models_pp/lib_vision_models_pp/Src/pd_pp_model.c ****     pd_pp_box_t *pBox = &pBoxes[box_nb]; //&pd_boxes[box_nb];
 690              		.loc 1 102 32
 691 0088 FA6B     		ldr	r2, [r7, #60]
 692 008a 1346     		mov	r3, r2
 693 008c 5B00     		lsls	r3, r3, #1
 694 008e 1344     		add	r3, r3, r2
 695 0090 DB00     		lsls	r3, r3, #3
 696 0092 1A46     		mov	r2, r3
 697              		.loc 1 102 18
 698 0094 3B6B     		ldr	r3, [r7, #48]
 699 0096 1344     		add	r3, r3, r2
ARM GAS  /tmp/cchb1jCG.s 			page 15


 700 0098 3B61     		str	r3, [r7, #16]
 103:Lib/lib_vision_models_pp/lib_vision_models_pp/Src/pd_pp_model.c **** 
 104:Lib/lib_vision_models_pp/lib_vision_models_pp/Src/pd_pp_model.c ****     /* decode prob */
 105:Lib/lib_vision_models_pp/lib_vision_models_pp/Src/pd_pp_model.c ****     if (pRawProbs[i] >= computedThreshold) {
 701              		.loc 1 105 18
 702 009a BB6B     		ldr	r3, [r7, #56]
 703 009c 9B00     		lsls	r3, r3, #2
 704 009e 3A6A     		ldr	r2, [r7, #32]
 705 00a0 1344     		add	r3, r3, r2
 706 00a2 D3ED007A 		vldr.32	s15, [r3]
 707              		.loc 1 105 8
 708 00a6 97ED057A 		vldr.32	s14, [r7, #20]
 709 00aa B4EEE77A 		vcmpe.f32	s14, s15
 710 00ae F1EE10FA 		vmrs	APSR_nzcv, FPSCR
 711 00b2 00F2D180 		bhi	.L77
 106:Lib/lib_vision_models_pp/lib_vision_models_pp/Src/pd_pp_model.c ****       pBox->prob = 1.0f / (1.0f + expf(-pRawProbs[i]));
 712              		.loc 1 106 50
 713 00b6 BB6B     		ldr	r3, [r7, #56]
 714 00b8 9B00     		lsls	r3, r3, #2
 715 00ba 3A6A     		ldr	r2, [r7, #32]
 716 00bc 1344     		add	r3, r3, r2
 717 00be D3ED007A 		vldr.32	s15, [r3]
 718              		.loc 1 106 35
 719 00c2 F1EE677A 		vneg.f32	s15, s15
 720 00c6 B0EE670A 		vmov.f32	s0, s15
 721 00ca FFF7FEFF 		bl	expf
 722 00ce F0EE407A 		vmov.f32	s15, s0
 723              		.loc 1 106 33 discriminator 1
 724 00d2 B7EE007A 		vmov.f32	s14, #1.0e+0
 725 00d6 37EE877A 		vadd.f32	s14, s15, s14
 726              		.loc 1 106 25 discriminator 1
 727 00da F7EE006A 		vmov.f32	s13, #1.0e+0
 728 00de C6EE877A 		vdiv.f32	s15, s13, s14
 729              		.loc 1 106 18 discriminator 1
 730 00e2 3B69     		ldr	r3, [r7, #16]
 731 00e4 C3ED007A 		vstr.32	s15, [r3]
 107:Lib/lib_vision_models_pp/lib_vision_models_pp/Src/pd_pp_model.c ****       /* decode palm box */
 108:Lib/lib_vision_models_pp/lib_vision_models_pp/Src/pd_pp_model.c ****       pBox->x_center = (pAnchors[i*2+0] * width  + pRawBoxes[i * in_struct_size + AI_PD_MODEL_PP_XC
 732              		.loc 1 108 33
 733 00e8 BB6B     		ldr	r3, [r7, #56]
 734 00ea DB00     		lsls	r3, r3, #3
 735 00ec FA69     		ldr	r2, [r7, #28]
 736 00ee 1344     		add	r3, r3, r2
 737 00f0 93ED007A 		vldr.32	s14, [r3]
 738              		.loc 1 108 41
 739 00f4 D7ED0B7A 		vldr.32	s15, [r7, #44]
 740 00f8 27EE277A 		vmul.f32	s14, s14, s15
 741              		.loc 1 108 64
 742 00fc BB6B     		ldr	r3, [r7, #56]
 743 00fe BA69     		ldr	r2, [r7, #24]
 744 0100 02FB03F3 		mul	r3, r2, r3
 745              		.loc 1 108 61
 746 0104 9B00     		lsls	r3, r3, #2
 747 0106 7A6A     		ldr	r2, [r7, #36]
 748 0108 1344     		add	r3, r3, r2
 749 010a D3ED007A 		vldr.32	s15, [r3]
 750              		.loc 1 108 50
ARM GAS  /tmp/cchb1jCG.s 			page 16


 751 010e 77EE276A 		vadd.f32	s13, s14, s15
 752              		.loc 1 108 108
 753 0112 97ED0B7A 		vldr.32	s14, [r7, #44]
 754 0116 C6EE877A 		vdiv.f32	s15, s13, s14
 755              		.loc 1 108 22
 756 011a 3B69     		ldr	r3, [r7, #16]
 757 011c C3ED017A 		vstr.32	s15, [r3, #4]
 109:Lib/lib_vision_models_pp/lib_vision_models_pp/Src/pd_pp_model.c ****       pBox->y_center = (pAnchors[i*2+1] * height + pRawBoxes[i * in_struct_size + AI_PD_MODEL_PP_YC
 758              		.loc 1 109 33
 759 0120 BB6B     		ldr	r3, [r7, #56]
 760 0122 DB00     		lsls	r3, r3, #3
 761 0124 0433     		adds	r3, r3, #4
 762 0126 FA69     		ldr	r2, [r7, #28]
 763 0128 1344     		add	r3, r3, r2
 764 012a 93ED007A 		vldr.32	s14, [r3]
 765              		.loc 1 109 41
 766 012e D7ED0A7A 		vldr.32	s15, [r7, #40]
 767 0132 27EE277A 		vmul.f32	s14, s14, s15
 768              		.loc 1 109 64
 769 0136 BB6B     		ldr	r3, [r7, #56]
 770 0138 BA69     		ldr	r2, [r7, #24]
 771 013a 02FB03F3 		mul	r3, r2, r3
 772              		.loc 1 109 61
 773 013e 0133     		adds	r3, r3, #1
 774 0140 9B00     		lsls	r3, r3, #2
 775 0142 7A6A     		ldr	r2, [r7, #36]
 776 0144 1344     		add	r3, r3, r2
 777 0146 D3ED007A 		vldr.32	s15, [r3]
 778              		.loc 1 109 50
 779 014a 77EE276A 		vadd.f32	s13, s14, s15
 780              		.loc 1 109 108
 781 014e 97ED0A7A 		vldr.32	s14, [r7, #40]
 782 0152 C6EE877A 		vdiv.f32	s15, s13, s14
 783              		.loc 1 109 22
 784 0156 3B69     		ldr	r3, [r7, #16]
 785 0158 C3ED027A 		vstr.32	s15, [r3, #8]
 110:Lib/lib_vision_models_pp/lib_vision_models_pp/Src/pd_pp_model.c ****       pBox->width = pRawBoxes[i * in_struct_size + AI_PD_MODEL_PP_WIDTHREL]  / width;
 786              		.loc 1 110 33
 787 015c BB6B     		ldr	r3, [r7, #56]
 788 015e BA69     		ldr	r2, [r7, #24]
 789 0160 02FB03F3 		mul	r3, r2, r3
 790              		.loc 1 110 30
 791 0164 0233     		adds	r3, r3, #2
 792 0166 9B00     		lsls	r3, r3, #2
 793 0168 7A6A     		ldr	r2, [r7, #36]
 794 016a 1344     		add	r3, r3, r2
 795 016c D3ED006A 		vldr.32	s13, [r3]
 796              		.loc 1 110 78
 797 0170 97ED0B7A 		vldr.32	s14, [r7, #44]
 798 0174 C6EE877A 		vdiv.f32	s15, s13, s14
 799              		.loc 1 110 19
 800 0178 3B69     		ldr	r3, [r7, #16]
 801 017a C3ED037A 		vstr.32	s15, [r3, #12]
 111:Lib/lib_vision_models_pp/lib_vision_models_pp/Src/pd_pp_model.c ****       pBox->height = pRawBoxes[i * in_struct_size + AI_PD_MODEL_PP_HEIGHTREL] / height;
 802              		.loc 1 111 34
 803 017e BB6B     		ldr	r3, [r7, #56]
 804 0180 BA69     		ldr	r2, [r7, #24]
ARM GAS  /tmp/cchb1jCG.s 			page 17


 805 0182 02FB03F3 		mul	r3, r2, r3
 806              		.loc 1 111 31
 807 0186 0333     		adds	r3, r3, #3
 808 0188 9B00     		lsls	r3, r3, #2
 809 018a 7A6A     		ldr	r2, [r7, #36]
 810 018c 1344     		add	r3, r3, r2
 811 018e D3ED006A 		vldr.32	s13, [r3]
 812              		.loc 1 111 79
 813 0192 97ED0A7A 		vldr.32	s14, [r7, #40]
 814 0196 C6EE877A 		vdiv.f32	s15, s13, s14
 815              		.loc 1 111 20
 816 019a 3B69     		ldr	r3, [r7, #16]
 817 019c C3ED047A 		vstr.32	s15, [r3, #16]
 818              	.LBB4:
 112:Lib/lib_vision_models_pp/lib_vision_models_pp/Src/pd_pp_model.c **** 
 113:Lib/lib_vision_models_pp/lib_vision_models_pp/Src/pd_pp_model.c ****       /* decode keypoints */
 114:Lib/lib_vision_models_pp/lib_vision_models_pp/Src/pd_pp_model.c ****       for (uint32_t j = 0; j < pInput_static_param->nb_keypoints; j++) {
 819              		.loc 1 114 21
 820 01a0 0023     		movs	r3, #0
 821 01a2 7B63     		str	r3, [r7, #52]
 822              		.loc 1 114 7
 823 01a4 4BE0     		b	.L79
 824              	.L80:
 115:Lib/lib_vision_models_pp/lib_vision_models_pp/Src/pd_pp_model.c ****         pBox->pKps[j].x = (pAnchors[i*2+0] * width  + pRawBoxes[i * in_struct_size + AI_PD_MODEL_PP
 825              		.loc 1 115 36
 826 01a6 BB6B     		ldr	r3, [r7, #56]
 827 01a8 DB00     		lsls	r3, r3, #3
 828 01aa FA69     		ldr	r2, [r7, #28]
 829 01ac 1344     		add	r3, r3, r2
 830 01ae 93ED007A 		vldr.32	s14, [r3]
 831              		.loc 1 115 44
 832 01b2 D7ED0B7A 		vldr.32	s15, [r7, #44]
 833 01b6 27EE277A 		vmul.f32	s14, s14, s15
 834              		.loc 1 115 67
 835 01ba BB6B     		ldr	r3, [r7, #56]
 836 01bc BA69     		ldr	r2, [r7, #24]
 837 01be 03FB02F2 		mul	r2, r3, r2
 838              		.loc 1 115 116
 839 01c2 7B6B     		ldr	r3, [r7, #52]
 840 01c4 5B00     		lsls	r3, r3, #1
 841              		.loc 1 115 111
 842 01c6 1344     		add	r3, r3, r2
 843 01c8 0433     		adds	r3, r3, #4
 844              		.loc 1 115 64
 845 01ca 9B00     		lsls	r3, r3, #2
 846 01cc 7A6A     		ldr	r2, [r7, #36]
 847 01ce 1344     		add	r3, r3, r2
 848 01d0 D3ED007A 		vldr.32	s15, [r3]
 849              		.loc 1 115 53
 850 01d4 77EE276A 		vadd.f32	s13, s14, s15
 851              		.loc 1 115 13
 852 01d8 3B69     		ldr	r3, [r7, #16]
 853 01da 5A69     		ldr	r2, [r3, #20]
 854              		.loc 1 115 19
 855 01dc 7B6B     		ldr	r3, [r7, #52]
 856 01de DB00     		lsls	r3, r3, #3
 857 01e0 1344     		add	r3, r3, r2
ARM GAS  /tmp/cchb1jCG.s 			page 18


 858              		.loc 1 115 127
 859 01e2 97ED0B7A 		vldr.32	s14, [r7, #44]
 860 01e6 C6EE877A 		vdiv.f32	s15, s13, s14
 861              		.loc 1 115 25
 862 01ea C3ED007A 		vstr.32	s15, [r3]
 116:Lib/lib_vision_models_pp/lib_vision_models_pp/Src/pd_pp_model.c ****         pBox->pKps[j].y = (pAnchors[i*2+1] * height + pRawBoxes[i * in_struct_size + AI_PD_MODEL_PP
 863              		.loc 1 116 36
 864 01ee BB6B     		ldr	r3, [r7, #56]
 865 01f0 DB00     		lsls	r3, r3, #3
 866 01f2 0433     		adds	r3, r3, #4
 867 01f4 FA69     		ldr	r2, [r7, #28]
 868 01f6 1344     		add	r3, r3, r2
 869 01f8 93ED007A 		vldr.32	s14, [r3]
 870              		.loc 1 116 44
 871 01fc D7ED0A7A 		vldr.32	s15, [r7, #40]
 872 0200 27EE277A 		vmul.f32	s14, s14, s15
 873              		.loc 1 116 67
 874 0204 BB6B     		ldr	r3, [r7, #56]
 875 0206 BA69     		ldr	r2, [r7, #24]
 876 0208 03FB02F2 		mul	r2, r3, r2
 877              		.loc 1 116 116
 878 020c 7B6B     		ldr	r3, [r7, #52]
 879 020e 5B00     		lsls	r3, r3, #1
 880              		.loc 1 116 111
 881 0210 1344     		add	r3, r3, r2
 882              		.loc 1 116 64
 883 0212 0533     		adds	r3, r3, #5
 884 0214 9B00     		lsls	r3, r3, #2
 885 0216 7A6A     		ldr	r2, [r7, #36]
 886 0218 1344     		add	r3, r3, r2
 887 021a D3ED007A 		vldr.32	s15, [r3]
 888              		.loc 1 116 53
 889 021e 77EE276A 		vadd.f32	s13, s14, s15
 890              		.loc 1 116 13
 891 0222 3B69     		ldr	r3, [r7, #16]
 892 0224 5A69     		ldr	r2, [r3, #20]
 893              		.loc 1 116 19
 894 0226 7B6B     		ldr	r3, [r7, #52]
 895 0228 DB00     		lsls	r3, r3, #3
 896 022a 1344     		add	r3, r3, r2
 897              		.loc 1 116 127
 898 022c 97ED0A7A 		vldr.32	s14, [r7, #40]
 899 0230 C6EE877A 		vdiv.f32	s15, s13, s14
 900              		.loc 1 116 25
 901 0234 C3ED017A 		vstr.32	s15, [r3, #4]
 114:Lib/lib_vision_models_pp/lib_vision_models_pp/Src/pd_pp_model.c ****         pBox->pKps[j].x = (pAnchors[i*2+0] * width  + pRawBoxes[i * in_struct_size + AI_PD_MODEL_PP
 902              		.loc 1 114 68 discriminator 3
 903 0238 7B6B     		ldr	r3, [r7, #52]
 904 023a 0133     		adds	r3, r3, #1
 905 023c 7B63     		str	r3, [r7, #52]
 906              	.L79:
 114:Lib/lib_vision_models_pp/lib_vision_models_pp/Src/pd_pp_model.c ****         pBox->pKps[j].x = (pAnchors[i*2+0] * width  + pRawBoxes[i * in_struct_size + AI_PD_MODEL_PP
 907              		.loc 1 114 51 discriminator 1
 908 023e 7B68     		ldr	r3, [r7, #4]
 909 0240 9B68     		ldr	r3, [r3, #8]
 114:Lib/lib_vision_models_pp/lib_vision_models_pp/Src/pd_pp_model.c ****         pBox->pKps[j].x = (pAnchors[i*2+0] * width  + pRawBoxes[i * in_struct_size + AI_PD_MODEL_PP
 910              		.loc 1 114 30 discriminator 1
ARM GAS  /tmp/cchb1jCG.s 			page 19


 911 0242 7A6B     		ldr	r2, [r7, #52]
 912 0244 9A42     		cmp	r2, r3
 913 0246 AED3     		bcc	.L80
 914              	.LBE4:
 117:Lib/lib_vision_models_pp/lib_vision_models_pp/Src/pd_pp_model.c ****      }
 118:Lib/lib_vision_models_pp/lib_vision_models_pp/Src/pd_pp_model.c **** 
 119:Lib/lib_vision_models_pp/lib_vision_models_pp/Src/pd_pp_model.c ****       box_nb++;
 915              		.loc 1 119 13
 916 0248 FB6B     		ldr	r3, [r7, #60]
 917 024a 0133     		adds	r3, r3, #1
 918 024c FB63     		str	r3, [r7, #60]
 120:Lib/lib_vision_models_pp/lib_vision_models_pp/Src/pd_pp_model.c ****       if (box_nb >= pInput_static_param->max_boxes_limit) {
 919              		.loc 1 120 40
 920 024e 7B68     		ldr	r3, [r7, #4]
 921 0250 9B69     		ldr	r3, [r3, #24]
 922              		.loc 1 120 10
 923 0252 FA6B     		ldr	r2, [r7, #60]
 924 0254 9A42     		cmp	r2, r3
 925 0256 09D2     		bcs	.L85
 926              	.L77:
 927              	.LBE3:
 101:Lib/lib_vision_models_pp/lib_vision_models_pp/Src/pd_pp_model.c ****     pd_pp_box_t *pBox = &pBoxes[box_nb]; //&pd_boxes[box_nb];
 928              		.loc 1 101 66 discriminator 2
 929 0258 BB6B     		ldr	r3, [r7, #56]
 930 025a 0133     		adds	r3, r3, #1
 931 025c BB63     		str	r3, [r7, #56]
 932              	.L76:
 101:Lib/lib_vision_models_pp/lib_vision_models_pp/Src/pd_pp_model.c ****     pd_pp_box_t *pBox = &pBoxes[box_nb]; //&pd_boxes[box_nb];
 933              		.loc 1 101 47 discriminator 1
 934 025e 7B68     		ldr	r3, [r7, #4]
 935 0260 5B69     		ldr	r3, [r3, #20]
 101:Lib/lib_vision_models_pp/lib_vision_models_pp/Src/pd_pp_model.c ****     pd_pp_box_t *pBox = &pBoxes[box_nb]; //&pd_boxes[box_nb];
 936              		.loc 1 101 26 discriminator 1
 937 0262 BA6B     		ldr	r2, [r7, #56]
 938 0264 9A42     		cmp	r2, r3
 939 0266 FFF40FAF 		bcc	.L82
 940 026a 00E0     		b	.L81
 941              	.L85:
 942              	.LBB5:
 121:Lib/lib_vision_models_pp/lib_vision_models_pp/Src/pd_pp_model.c ****         break;
 943              		.loc 1 121 9
 944 026c 00BF     		nop
 945              	.L81:
 946              	.LBE5:
 947              	.LBE2:
 122:Lib/lib_vision_models_pp/lib_vision_models_pp/Src/pd_pp_model.c ****       }
 123:Lib/lib_vision_models_pp/lib_vision_models_pp/Src/pd_pp_model.c ****     }
 124:Lib/lib_vision_models_pp/lib_vision_models_pp/Src/pd_pp_model.c ****   }
 125:Lib/lib_vision_models_pp/lib_vision_models_pp/Src/pd_pp_model.c **** 
 126:Lib/lib_vision_models_pp/lib_vision_models_pp/Src/pd_pp_model.c ****   pOutput->box_nb = box_nb;
 948              		.loc 1 126 19
 949 026e BB68     		ldr	r3, [r7, #8]
 950 0270 FA6B     		ldr	r2, [r7, #60]
 951 0272 5A60     		str	r2, [r3, #4]
 127:Lib/lib_vision_models_pp/lib_vision_models_pp/Src/pd_pp_model.c ****   return AI_PD_POSTPROCESS_ERROR_NO;
 952              		.loc 1 127 10
 953 0274 0023     		movs	r3, #0
ARM GAS  /tmp/cchb1jCG.s 			page 20


 128:Lib/lib_vision_models_pp/lib_vision_models_pp/Src/pd_pp_model.c **** }
 954              		.loc 1 128 1
 955 0276 1846     		mov	r0, r3
 956 0278 4037     		adds	r7, r7, #64
 957              		.cfi_def_cfa_offset 8
 958 027a BD46     		mov	sp, r7
 959              		.cfi_def_cfa_register 13
 960              		@ sp needed
 961 027c 80BD     		pop	{r7, pc}
 962              		.cfi_endproc
 963              	.LFE2648:
 965              		.section	.text.pd_pp_decode_int8,"ax",%progbits
 966              		.align	1
 967              		.syntax unified
 968              		.thumb
 969              		.thumb_func
 971              	pd_pp_decode_int8:
 972              	.LFB2649:
 129:Lib/lib_vision_models_pp/lib_vision_models_pp/Src/pd_pp_model.c **** 
 130:Lib/lib_vision_models_pp/lib_vision_models_pp/Src/pd_pp_model.c **** static int32_t pd_pp_decode_int8(pd_model_pp_in_t *pInput,
 131:Lib/lib_vision_models_pp/lib_vision_models_pp/Src/pd_pp_model.c ****                             pd_pp_out_t *pOutput,
 132:Lib/lib_vision_models_pp/lib_vision_models_pp/Src/pd_pp_model.c ****                             pd_model_pp_static_param_t *pInput_static_param) {
 973              		.loc 1 132 78
 974              		.cfi_startproc
 975              		@ args = 0, pretend = 0, frame = 96
 976              		@ frame_needed = 1, uses_anonymous_args = 0
 977 0000 80B5     		push	{r7, lr}
 978              		.cfi_def_cfa_offset 8
 979              		.cfi_offset 7, -8
 980              		.cfi_offset 14, -4
 981 0002 98B0     		sub	sp, sp, #96
 982              		.cfi_def_cfa_offset 104
 983 0004 00AF     		add	r7, sp, #0
 984              		.cfi_def_cfa_register 7
 985 0006 F860     		str	r0, [r7, #12]
 986 0008 B960     		str	r1, [r7, #8]
 987 000a 7A60     		str	r2, [r7, #4]
 133:Lib/lib_vision_models_pp/lib_vision_models_pp/Src/pd_pp_model.c **** 
 134:Lib/lib_vision_models_pp/lib_vision_models_pp/Src/pd_pp_model.c ****   pOutput->box_nb = 0;
 988              		.loc 1 134 19
 989 000c BB68     		ldr	r3, [r7, #8]
 990 000e 0022     		movs	r2, #0
 991 0010 5A60     		str	r2, [r3, #4]
 135:Lib/lib_vision_models_pp/lib_vision_models_pp/Src/pd_pp_model.c **** 
 136:Lib/lib_vision_models_pp/lib_vision_models_pp/Src/pd_pp_model.c ****   pd_pp_box_t *pBoxes = (pd_pp_box_t *)pOutput->pOutData;
 992              		.loc 1 136 16
 993 0012 BB68     		ldr	r3, [r7, #8]
 994 0014 1B68     		ldr	r3, [r3]
 995 0016 3B65     		str	r3, [r7, #80]
 137:Lib/lib_vision_models_pp/lib_vision_models_pp/Src/pd_pp_model.c ****   float32_t width  = pInput_static_param->width;
 996              		.loc 1 137 41
 997 0018 7B68     		ldr	r3, [r7, #4]
 998 001a 1B68     		ldr	r3, [r3]
 999              		.loc 1 137 13
 1000 001c 07EE903A 		vmov	s15, r3	@ int
 1001 0020 F8EE677A 		vcvt.f32.u32	s15, s15
 1002 0024 C7ED137A 		vstr.32	s15, [r7, #76]
ARM GAS  /tmp/cchb1jCG.s 			page 21


 138:Lib/lib_vision_models_pp/lib_vision_models_pp/Src/pd_pp_model.c ****   float32_t height = pInput_static_param->height;
 1003              		.loc 1 138 41
 1004 0028 7B68     		ldr	r3, [r7, #4]
 1005 002a 5B68     		ldr	r3, [r3, #4]
 1006              		.loc 1 138 13
 1007 002c 07EE903A 		vmov	s15, r3	@ int
 1008 0030 F8EE677A 		vcvt.f32.u32	s15, s15
 1009 0034 C7ED127A 		vstr.32	s15, [r7, #72]
 139:Lib/lib_vision_models_pp/lib_vision_models_pp/Src/pd_pp_model.c ****   int8_t *pRawBoxes = (int8_t *)pInput->pBoxes;
 1010              		.loc 1 139 11
 1011 0038 FB68     		ldr	r3, [r7, #12]
 1012 003a 5B68     		ldr	r3, [r3, #4]
 1013 003c 7B64     		str	r3, [r7, #68]
 140:Lib/lib_vision_models_pp/lib_vision_models_pp/Src/pd_pp_model.c ****   int8_t *pRawProbs = (int8_t *)pInput->pProbs;
 1014              		.loc 1 140 11
 1015 003e FB68     		ldr	r3, [r7, #12]
 1016 0040 1B68     		ldr	r3, [r3]
 1017 0042 3B64     		str	r3, [r7, #64]
 141:Lib/lib_vision_models_pp/lib_vision_models_pp/Src/pd_pp_model.c ****   float32_t *pAnchors  = (float32_t *)pInput_static_param->pAnchors;
 1018              		.loc 1 141 14
 1019 0044 7B68     		ldr	r3, [r7, #4]
 1020 0046 DB69     		ldr	r3, [r3, #28]
 1021 0048 FB63     		str	r3, [r7, #60]
 142:Lib/lib_vision_models_pp/lib_vision_models_pp/Src/pd_pp_model.c **** 
 143:Lib/lib_vision_models_pp/lib_vision_models_pp/Src/pd_pp_model.c ****   float32_t boxe_scale = pInput_static_param->boxe_scale;
 1022              		.loc 1 143 13
 1023 004a 7B68     		ldr	r3, [r7, #4]
 1024 004c 1B6A     		ldr	r3, [r3, #32]	@ float
 1025 004e BB63     		str	r3, [r7, #56]	@ float
 144:Lib/lib_vision_models_pp/lib_vision_models_pp/Src/pd_pp_model.c ****   float32_t proba_scale = pInput_static_param->proba_scale;
 1026              		.loc 1 144 13
 1027 0050 7B68     		ldr	r3, [r7, #4]
 1028 0052 5B6A     		ldr	r3, [r3, #36]	@ float
 1029 0054 7B63     		str	r3, [r7, #52]	@ float
 145:Lib/lib_vision_models_pp/lib_vision_models_pp/Src/pd_pp_model.c ****   int8_t boxe_zp = pInput_static_param->boxe_zp;
 1030              		.loc 1 145 10
 1031 0056 7B68     		ldr	r3, [r7, #4]
 1032 0058 93F82830 		ldrb	r3, [r3, #40]
 1033 005c 87F83330 		strb	r3, [r7, #51]
 146:Lib/lib_vision_models_pp/lib_vision_models_pp/Src/pd_pp_model.c ****   int8_t proba_zp = pInput_static_param->proba_zp;
 1034              		.loc 1 146 10
 1035 0060 7B68     		ldr	r3, [r7, #4]
 1036 0062 93F82930 		ldrb	r3, [r3, #41]
 1037 0066 87F83230 		strb	r3, [r7, #50]
 147:Lib/lib_vision_models_pp/lib_vision_models_pp/Src/pd_pp_model.c **** 
 148:Lib/lib_vision_models_pp/lib_vision_models_pp/Src/pd_pp_model.c ****   const size_t in_struct_size = (2 * pInput_static_param->nb_keypoints) + AI_PD_MODEL_PP_KEYPOINTS;
 1038              		.loc 1 148 57
 1039 006a 7B68     		ldr	r3, [r7, #4]
 1040 006c 9B68     		ldr	r3, [r3, #8]
 1041              		.loc 1 148 73
 1042 006e 0233     		adds	r3, r3, #2
 1043              		.loc 1 148 16
 1044 0070 5B00     		lsls	r3, r3, #1
 1045 0072 FB62     		str	r3, [r7, #44]
 149:Lib/lib_vision_models_pp/lib_vision_models_pp/Src/pd_pp_model.c ****   size_t box_nb = 0;
 1046              		.loc 1 149 10
 1047 0074 0023     		movs	r3, #0
ARM GAS  /tmp/cchb1jCG.s 			page 22


 1048 0076 FB65     		str	r3, [r7, #92]
 150:Lib/lib_vision_models_pp/lib_vision_models_pp/Src/pd_pp_model.c ****   float32_t computedThreshold = -logf( 1.0f / pInput_static_param->conf_threshold - 1);
 1049              		.loc 1 150 66
 1050 0078 7B68     		ldr	r3, [r7, #4]
 1051 007a 93ED037A 		vldr.32	s14, [r3, #12]
 1052              		.loc 1 150 45
 1053 007e F7EE006A 		vmov.f32	s13, #1.0e+0
 1054 0082 C6EE877A 		vdiv.f32	s15, s13, s14
 1055              		.loc 1 150 34
 1056 0086 B7EE007A 		vmov.f32	s14, #1.0e+0
 1057 008a 77EEC77A 		vsub.f32	s15, s15, s14
 1058 008e B0EE670A 		vmov.f32	s0, s15
 1059 0092 FFF7FEFF 		bl	logf
 1060 0096 F0EE407A 		vmov.f32	s15, s0
 1061              		.loc 1 150 13 discriminator 1
 1062 009a F1EE677A 		vneg.f32	s15, s15
 1063 009e C7ED0A7A 		vstr.32	s15, [r7, #40]
 151:Lib/lib_vision_models_pp/lib_vision_models_pp/Src/pd_pp_model.c ****   int8_t threshold_s8  = (int8_t)(computedThreshold / proba_scale + 0.5 + proba_zp);
 1064              		.loc 1 151 53
 1065 00a2 D7ED0A6A 		vldr.32	s13, [r7, #40]
 1066 00a6 97ED0D7A 		vldr.32	s14, [r7, #52]
 1067 00aa C6EE877A 		vdiv.f32	s15, s13, s14
 1068 00ae B7EEE77A 		vcvt.f64.f32	d7, s15
 1069              		.loc 1 151 67
 1070 00b2 B6EE006B 		vmov.f64	d6, #5.0e-1
 1071 00b6 37EE066B 		vadd.f64	d6, d7, d6
 1072              		.loc 1 151 73
 1073 00ba 97F93230 		ldrsb	r3, [r7, #50]
 1074 00be 07EE903A 		vmov	s15, r3	@ int
 1075 00c2 B8EEE77B 		vcvt.f64.s32	d7, s15
 1076 00c6 36EE077B 		vadd.f64	d7, d6, d7
 1077              		.loc 1 151 10
 1078 00ca FDEEC77B 		vcvt.s32.f64	s15, d7
 1079 00ce C7ED007A 		vstr.32	s15, [r7]	@ int
 1080 00d2 3B78     		ldrb	r3, [r7]
 1081 00d4 87F82730 		strb	r3, [r7, #39]
 1082              	.LBB6:
 152:Lib/lib_vision_models_pp/lib_vision_models_pp/Src/pd_pp_model.c **** 
 153:Lib/lib_vision_models_pp/lib_vision_models_pp/Src/pd_pp_model.c ****   for (uint32_t i = 0; i < pInput_static_param->nb_total_boxes; i++) {
 1083              		.loc 1 153 17
 1084 00d8 0023     		movs	r3, #0
 1085 00da BB65     		str	r3, [r7, #88]
 1086              		.loc 1 153 3
 1087 00dc 4AE1     		b	.L87
 1088              	.L92:
 1089              	.LBB7:
 154:Lib/lib_vision_models_pp/lib_vision_models_pp/Src/pd_pp_model.c ****     pd_pp_box_t *pBox = &pBoxes[box_nb]; //&pd_boxes[box_nb];
 1090              		.loc 1 154 32
 1091 00de FA6D     		ldr	r2, [r7, #92]
 1092 00e0 1346     		mov	r3, r2
 1093 00e2 5B00     		lsls	r3, r3, #1
 1094 00e4 1344     		add	r3, r3, r2
 1095 00e6 DB00     		lsls	r3, r3, #3
 1096 00e8 1A46     		mov	r2, r3
 1097              		.loc 1 154 18
 1098 00ea 3B6D     		ldr	r3, [r7, #80]
 1099 00ec 1344     		add	r3, r3, r2
ARM GAS  /tmp/cchb1jCG.s 			page 23


 1100 00ee 3B62     		str	r3, [r7, #32]
 155:Lib/lib_vision_models_pp/lib_vision_models_pp/Src/pd_pp_model.c **** 
 156:Lib/lib_vision_models_pp/lib_vision_models_pp/Src/pd_pp_model.c ****     /* decode prob */
 157:Lib/lib_vision_models_pp/lib_vision_models_pp/Src/pd_pp_model.c ****     if (pRawProbs[i] >= threshold_s8) {
 1101              		.loc 1 157 18
 1102 00f0 3A6C     		ldr	r2, [r7, #64]
 1103 00f2 BB6D     		ldr	r3, [r7, #88]
 1104 00f4 1344     		add	r3, r3, r2
 1105 00f6 93F90030 		ldrsb	r3, [r3]
 1106              		.loc 1 157 8
 1107 00fa 97F92720 		ldrsb	r2, [r7, #39]
 1108 00fe 9A42     		cmp	r2, r3
 1109 0100 00F33581 		bgt	.L88
 1110              	.LBB8:
 158:Lib/lib_vision_models_pp/lib_vision_models_pp/Src/pd_pp_model.c ****       float32_t value = (float32_t)((int32_t)pRawProbs[i] - proba_zp) * proba_scale;
 1111              		.loc 1 158 55
 1112 0104 3A6C     		ldr	r2, [r7, #64]
 1113 0106 BB6D     		ldr	r3, [r7, #88]
 1114 0108 1344     		add	r3, r3, r2
 1115 010a 93F90030 		ldrsb	r3, [r3]
 1116              		.loc 1 158 37
 1117 010e 1A46     		mov	r2, r3
 1118              		.loc 1 158 59
 1119 0110 97F93230 		ldrsb	r3, [r7, #50]
 1120 0114 D31A     		subs	r3, r2, r3
 1121              		.loc 1 158 25
 1122 0116 07EE903A 		vmov	s15, r3	@ int
 1123 011a F8EEE77A 		vcvt.f32.s32	s15, s15
 1124              		.loc 1 158 17
 1125 011e 97ED0D7A 		vldr.32	s14, [r7, #52]
 1126 0122 67EE277A 		vmul.f32	s15, s14, s15
 1127 0126 C7ED077A 		vstr.32	s15, [r7, #28]
 159:Lib/lib_vision_models_pp/lib_vision_models_pp/Src/pd_pp_model.c ****       pBox->prob = 1.0f / (1.0f + expf(-value));
 1128              		.loc 1 159 35
 1129 012a D7ED077A 		vldr.32	s15, [r7, #28]
 1130 012e F1EE677A 		vneg.f32	s15, s15
 1131 0132 B0EE670A 		vmov.f32	s0, s15
 1132 0136 FFF7FEFF 		bl	expf
 1133 013a F0EE407A 		vmov.f32	s15, s0
 1134              		.loc 1 159 33 discriminator 1
 1135 013e B7EE007A 		vmov.f32	s14, #1.0e+0
 1136 0142 37EE877A 		vadd.f32	s14, s15, s14
 1137              		.loc 1 159 25 discriminator 1
 1138 0146 F7EE006A 		vmov.f32	s13, #1.0e+0
 1139 014a C6EE877A 		vdiv.f32	s15, s13, s14
 1140              		.loc 1 159 18 discriminator 1
 1141 014e 3B6A     		ldr	r3, [r7, #32]
 1142 0150 C3ED007A 		vstr.32	s15, [r3]
 160:Lib/lib_vision_models_pp/lib_vision_models_pp/Src/pd_pp_model.c ****       /* decode palm box */
 161:Lib/lib_vision_models_pp/lib_vision_models_pp/Src/pd_pp_model.c ****       float32_t anchor_x, anchor_y;
 162:Lib/lib_vision_models_pp/lib_vision_models_pp/Src/pd_pp_model.c **** 
 163:Lib/lib_vision_models_pp/lib_vision_models_pp/Src/pd_pp_model.c ****       value = (float32_t)((int32_t)pRawBoxes[i * in_struct_size + AI_PD_MODEL_PP_XCENTER] - boxe_zp
 1143              		.loc 1 163 48
 1144 0154 BB6D     		ldr	r3, [r7, #88]
 1145 0156 FA6A     		ldr	r2, [r7, #44]
 1146 0158 02FB03F3 		mul	r3, r2, r3
 1147              		.loc 1 163 45
ARM GAS  /tmp/cchb1jCG.s 			page 24


 1148 015c 7A6C     		ldr	r2, [r7, #68]
 1149 015e 1344     		add	r3, r3, r2
 1150 0160 93F90030 		ldrsb	r3, [r3]
 1151              		.loc 1 163 27
 1152 0164 1A46     		mov	r2, r3
 1153              		.loc 1 163 91
 1154 0166 97F93330 		ldrsb	r3, [r7, #51]
 1155 016a D31A     		subs	r3, r2, r3
 1156              		.loc 1 163 15
 1157 016c 07EE903A 		vmov	s15, r3	@ int
 1158 0170 F8EEE77A 		vcvt.f32.s32	s15, s15
 1159              		.loc 1 163 13
 1160 0174 97ED0E7A 		vldr.32	s14, [r7, #56]
 1161 0178 67EE277A 		vmul.f32	s15, s14, s15
 1162 017c C7ED077A 		vstr.32	s15, [r7, #28]
 164:Lib/lib_vision_models_pp/lib_vision_models_pp/Src/pd_pp_model.c ****       anchor_x = pAnchors[i*2+0];
 1163              		.loc 1 164 26
 1164 0180 BB6D     		ldr	r3, [r7, #88]
 1165 0182 DB00     		lsls	r3, r3, #3
 1166 0184 FA6B     		ldr	r2, [r7, #60]
 1167 0186 1344     		add	r3, r3, r2
 1168              		.loc 1 164 16
 1169 0188 1B68     		ldr	r3, [r3]	@ float
 1170 018a BB61     		str	r3, [r7, #24]	@ float
 165:Lib/lib_vision_models_pp/lib_vision_models_pp/Src/pd_pp_model.c **** 
 166:Lib/lib_vision_models_pp/lib_vision_models_pp/Src/pd_pp_model.c ****       pBox->x_center = (anchor_x * width  + value) / width;
 1171              		.loc 1 166 34
 1172 018c 97ED067A 		vldr.32	s14, [r7, #24]
 1173 0190 D7ED137A 		vldr.32	s15, [r7, #76]
 1174 0194 27EE277A 		vmul.f32	s14, s14, s15
 1175              		.loc 1 166 43
 1176 0198 D7ED077A 		vldr.32	s15, [r7, #28]
 1177 019c 77EE276A 		vadd.f32	s13, s14, s15
 1178              		.loc 1 166 52
 1179 01a0 97ED137A 		vldr.32	s14, [r7, #76]
 1180 01a4 C6EE877A 		vdiv.f32	s15, s13, s14
 1181              		.loc 1 166 22
 1182 01a8 3B6A     		ldr	r3, [r7, #32]
 1183 01aa C3ED017A 		vstr.32	s15, [r3, #4]
 167:Lib/lib_vision_models_pp/lib_vision_models_pp/Src/pd_pp_model.c **** 
 168:Lib/lib_vision_models_pp/lib_vision_models_pp/Src/pd_pp_model.c ****       value = (float32_t)((int32_t)pRawBoxes[i * in_struct_size + AI_PD_MODEL_PP_YCENTER] - boxe_zp
 1184              		.loc 1 168 48
 1185 01ae BB6D     		ldr	r3, [r7, #88]
 1186 01b0 FA6A     		ldr	r2, [r7, #44]
 1187 01b2 02FB03F3 		mul	r3, r2, r3
 1188              		.loc 1 168 45
 1189 01b6 0133     		adds	r3, r3, #1
 1190 01b8 7A6C     		ldr	r2, [r7, #68]
 1191 01ba 1344     		add	r3, r3, r2
 1192 01bc 93F90030 		ldrsb	r3, [r3]
 1193              		.loc 1 168 27
 1194 01c0 1A46     		mov	r2, r3
 1195              		.loc 1 168 91
 1196 01c2 97F93330 		ldrsb	r3, [r7, #51]
 1197 01c6 D31A     		subs	r3, r2, r3
 1198              		.loc 1 168 15
 1199 01c8 07EE903A 		vmov	s15, r3	@ int
ARM GAS  /tmp/cchb1jCG.s 			page 25


 1200 01cc F8EEE77A 		vcvt.f32.s32	s15, s15
 1201              		.loc 1 168 13
 1202 01d0 97ED0E7A 		vldr.32	s14, [r7, #56]
 1203 01d4 67EE277A 		vmul.f32	s15, s14, s15
 1204 01d8 C7ED077A 		vstr.32	s15, [r7, #28]
 169:Lib/lib_vision_models_pp/lib_vision_models_pp/Src/pd_pp_model.c ****       anchor_y = pAnchors[i*2+1];
 1205              		.loc 1 169 26
 1206 01dc BB6D     		ldr	r3, [r7, #88]
 1207 01de DB00     		lsls	r3, r3, #3
 1208 01e0 0433     		adds	r3, r3, #4
 1209 01e2 FA6B     		ldr	r2, [r7, #60]
 1210 01e4 1344     		add	r3, r3, r2
 1211              		.loc 1 169 16
 1212 01e6 1B68     		ldr	r3, [r3]	@ float
 1213 01e8 7B61     		str	r3, [r7, #20]	@ float
 170:Lib/lib_vision_models_pp/lib_vision_models_pp/Src/pd_pp_model.c **** 
 171:Lib/lib_vision_models_pp/lib_vision_models_pp/Src/pd_pp_model.c ****       pBox->y_center = (anchor_y * height + value) / height;
 1214              		.loc 1 171 34
 1215 01ea 97ED057A 		vldr.32	s14, [r7, #20]
 1216 01ee D7ED127A 		vldr.32	s15, [r7, #72]
 1217 01f2 27EE277A 		vmul.f32	s14, s14, s15
 1218              		.loc 1 171 43
 1219 01f6 D7ED077A 		vldr.32	s15, [r7, #28]
 1220 01fa 77EE276A 		vadd.f32	s13, s14, s15
 1221              		.loc 1 171 52
 1222 01fe 97ED127A 		vldr.32	s14, [r7, #72]
 1223 0202 C6EE877A 		vdiv.f32	s15, s13, s14
 1224              		.loc 1 171 22
 1225 0206 3B6A     		ldr	r3, [r7, #32]
 1226 0208 C3ED027A 		vstr.32	s15, [r3, #8]
 172:Lib/lib_vision_models_pp/lib_vision_models_pp/Src/pd_pp_model.c **** 
 173:Lib/lib_vision_models_pp/lib_vision_models_pp/Src/pd_pp_model.c ****       value = (float32_t)((int32_t)pRawBoxes[i * in_struct_size + AI_PD_MODEL_PP_WIDTHREL] - boxe_z
 1227              		.loc 1 173 48
 1228 020c BB6D     		ldr	r3, [r7, #88]
 1229 020e FA6A     		ldr	r2, [r7, #44]
 1230 0210 02FB03F3 		mul	r3, r2, r3
 1231              		.loc 1 173 45
 1232 0214 0233     		adds	r3, r3, #2
 1233 0216 7A6C     		ldr	r2, [r7, #68]
 1234 0218 1344     		add	r3, r3, r2
 1235 021a 93F90030 		ldrsb	r3, [r3]
 1236              		.loc 1 173 27
 1237 021e 1A46     		mov	r2, r3
 1238              		.loc 1 173 92
 1239 0220 97F93330 		ldrsb	r3, [r7, #51]
 1240 0224 D31A     		subs	r3, r2, r3
 1241              		.loc 1 173 15
 1242 0226 07EE903A 		vmov	s15, r3	@ int
 1243 022a F8EEE77A 		vcvt.f32.s32	s15, s15
 1244              		.loc 1 173 13
 1245 022e 97ED0E7A 		vldr.32	s14, [r7, #56]
 1246 0232 67EE277A 		vmul.f32	s15, s14, s15
 1247 0236 C7ED077A 		vstr.32	s15, [r7, #28]
 174:Lib/lib_vision_models_pp/lib_vision_models_pp/Src/pd_pp_model.c ****       pBox->width = value  / width;
 1248              		.loc 1 174 28
 1249 023a D7ED076A 		vldr.32	s13, [r7, #28]
 1250 023e 97ED137A 		vldr.32	s14, [r7, #76]
ARM GAS  /tmp/cchb1jCG.s 			page 26


 1251 0242 C6EE877A 		vdiv.f32	s15, s13, s14
 1252              		.loc 1 174 19
 1253 0246 3B6A     		ldr	r3, [r7, #32]
 1254 0248 C3ED037A 		vstr.32	s15, [r3, #12]
 175:Lib/lib_vision_models_pp/lib_vision_models_pp/Src/pd_pp_model.c **** 
 176:Lib/lib_vision_models_pp/lib_vision_models_pp/Src/pd_pp_model.c ****       value = (float32_t)((int32_t)pRawBoxes[i * in_struct_size + AI_PD_MODEL_PP_HEIGHTREL] - boxe_
 1255              		.loc 1 176 48
 1256 024c BB6D     		ldr	r3, [r7, #88]
 1257 024e FA6A     		ldr	r2, [r7, #44]
 1258 0250 02FB03F3 		mul	r3, r2, r3
 1259              		.loc 1 176 45
 1260 0254 0333     		adds	r3, r3, #3
 1261 0256 7A6C     		ldr	r2, [r7, #68]
 1262 0258 1344     		add	r3, r3, r2
 1263 025a 93F90030 		ldrsb	r3, [r3]
 1264              		.loc 1 176 27
 1265 025e 1A46     		mov	r2, r3
 1266              		.loc 1 176 93
 1267 0260 97F93330 		ldrsb	r3, [r7, #51]
 1268 0264 D31A     		subs	r3, r2, r3
 1269              		.loc 1 176 15
 1270 0266 07EE903A 		vmov	s15, r3	@ int
 1271 026a F8EEE77A 		vcvt.f32.s32	s15, s15
 1272              		.loc 1 176 13
 1273 026e 97ED0E7A 		vldr.32	s14, [r7, #56]
 1274 0272 67EE277A 		vmul.f32	s15, s14, s15
 1275 0276 C7ED077A 		vstr.32	s15, [r7, #28]
 177:Lib/lib_vision_models_pp/lib_vision_models_pp/Src/pd_pp_model.c ****       pBox->height = value / height;
 1276              		.loc 1 177 28
 1277 027a D7ED076A 		vldr.32	s13, [r7, #28]
 1278 027e 97ED127A 		vldr.32	s14, [r7, #72]
 1279 0282 C6EE877A 		vdiv.f32	s15, s13, s14
 1280              		.loc 1 177 20
 1281 0286 3B6A     		ldr	r3, [r7, #32]
 1282 0288 C3ED047A 		vstr.32	s15, [r3, #16]
 1283              	.LBB9:
 178:Lib/lib_vision_models_pp/lib_vision_models_pp/Src/pd_pp_model.c **** 
 179:Lib/lib_vision_models_pp/lib_vision_models_pp/Src/pd_pp_model.c ****       /* decode keypoints */
 180:Lib/lib_vision_models_pp/lib_vision_models_pp/Src/pd_pp_model.c ****       for (uint32_t j = 0; j < pInput_static_param->nb_keypoints; j++) {
 1284              		.loc 1 180 21
 1285 028c 0023     		movs	r3, #0
 1286 028e 7B65     		str	r3, [r7, #84]
 1287              		.loc 1 180 7
 1288 0290 60E0     		b	.L89
 1289              	.L90:
 181:Lib/lib_vision_models_pp/lib_vision_models_pp/Src/pd_pp_model.c ****         value = (float32_t)((int32_t)pRawBoxes[i * in_struct_size + AI_PD_MODEL_PP_KEYPOINTS + (2 *
 1290              		.loc 1 181 50
 1291 0292 BB6D     		ldr	r3, [r7, #88]
 1292 0294 FA6A     		ldr	r2, [r7, #44]
 1293 0296 03FB02F2 		mul	r2, r3, r2
 1294              		.loc 1 181 99
 1295 029a 7B6D     		ldr	r3, [r7, #84]
 1296 029c 5B00     		lsls	r3, r3, #1
 1297              		.loc 1 181 94
 1298 029e 1344     		add	r3, r3, r2
 1299 02a0 0433     		adds	r3, r3, #4
 1300              		.loc 1 181 47
ARM GAS  /tmp/cchb1jCG.s 			page 27


 1301 02a2 7A6C     		ldr	r2, [r7, #68]
 1302 02a4 1344     		add	r3, r3, r2
 1303 02a6 93F90030 		ldrsb	r3, [r3]
 1304              		.loc 1 181 29
 1305 02aa 1A46     		mov	r2, r3
 1306              		.loc 1 181 109
 1307 02ac 97F93330 		ldrsb	r3, [r7, #51]
 1308 02b0 D31A     		subs	r3, r2, r3
 1309              		.loc 1 181 17
 1310 02b2 07EE903A 		vmov	s15, r3	@ int
 1311 02b6 F8EEE77A 		vcvt.f32.s32	s15, s15
 1312              		.loc 1 181 15
 1313 02ba 97ED0E7A 		vldr.32	s14, [r7, #56]
 1314 02be 67EE277A 		vmul.f32	s15, s14, s15
 1315 02c2 C7ED077A 		vstr.32	s15, [r7, #28]
 182:Lib/lib_vision_models_pp/lib_vision_models_pp/Src/pd_pp_model.c ****         pBox->pKps[j].x = (anchor_x * width  + value) / width;
 1316              		.loc 1 182 37
 1317 02c6 97ED067A 		vldr.32	s14, [r7, #24]
 1318 02ca D7ED137A 		vldr.32	s15, [r7, #76]
 1319 02ce 27EE277A 		vmul.f32	s14, s14, s15
 1320              		.loc 1 182 46
 1321 02d2 D7ED077A 		vldr.32	s15, [r7, #28]
 1322 02d6 77EE276A 		vadd.f32	s13, s14, s15
 1323              		.loc 1 182 13
 1324 02da 3B6A     		ldr	r3, [r7, #32]
 1325 02dc 5A69     		ldr	r2, [r3, #20]
 1326              		.loc 1 182 19
 1327 02de 7B6D     		ldr	r3, [r7, #84]
 1328 02e0 DB00     		lsls	r3, r3, #3
 1329 02e2 1344     		add	r3, r3, r2
 1330              		.loc 1 182 55
 1331 02e4 97ED137A 		vldr.32	s14, [r7, #76]
 1332 02e8 C6EE877A 		vdiv.f32	s15, s13, s14
 1333              		.loc 1 182 25
 1334 02ec C3ED007A 		vstr.32	s15, [r3]
 183:Lib/lib_vision_models_pp/lib_vision_models_pp/Src/pd_pp_model.c **** 
 184:Lib/lib_vision_models_pp/lib_vision_models_pp/Src/pd_pp_model.c ****         value = (float32_t)((int32_t)pRawBoxes[i * in_struct_size + AI_PD_MODEL_PP_KEYPOINTS + (2 *
 1335              		.loc 1 184 50
 1336 02f0 BB6D     		ldr	r3, [r7, #88]
 1337 02f2 FA6A     		ldr	r2, [r7, #44]
 1338 02f4 03FB02F2 		mul	r2, r3, r2
 1339              		.loc 1 184 99
 1340 02f8 7B6D     		ldr	r3, [r7, #84]
 1341 02fa 5B00     		lsls	r3, r3, #1
 1342              		.loc 1 184 94
 1343 02fc 1344     		add	r3, r3, r2
 1344              		.loc 1 184 47
 1345 02fe 0533     		adds	r3, r3, #5
 1346 0300 7A6C     		ldr	r2, [r7, #68]
 1347 0302 1344     		add	r3, r3, r2
 1348 0304 93F90030 		ldrsb	r3, [r3]
 1349              		.loc 1 184 29
 1350 0308 1A46     		mov	r2, r3
 1351              		.loc 1 184 109
 1352 030a 97F93330 		ldrsb	r3, [r7, #51]
 1353 030e D31A     		subs	r3, r2, r3
 1354              		.loc 1 184 17
ARM GAS  /tmp/cchb1jCG.s 			page 28


 1355 0310 07EE903A 		vmov	s15, r3	@ int
 1356 0314 F8EEE77A 		vcvt.f32.s32	s15, s15
 1357              		.loc 1 184 15
 1358 0318 97ED0E7A 		vldr.32	s14, [r7, #56]
 1359 031c 67EE277A 		vmul.f32	s15, s14, s15
 1360 0320 C7ED077A 		vstr.32	s15, [r7, #28]
 185:Lib/lib_vision_models_pp/lib_vision_models_pp/Src/pd_pp_model.c ****         pBox->pKps[j].y = (anchor_y * height + value) / height;
 1361              		.loc 1 185 37
 1362 0324 97ED057A 		vldr.32	s14, [r7, #20]
 1363 0328 D7ED127A 		vldr.32	s15, [r7, #72]
 1364 032c 27EE277A 		vmul.f32	s14, s14, s15
 1365              		.loc 1 185 46
 1366 0330 D7ED077A 		vldr.32	s15, [r7, #28]
 1367 0334 77EE276A 		vadd.f32	s13, s14, s15
 1368              		.loc 1 185 13
 1369 0338 3B6A     		ldr	r3, [r7, #32]
 1370 033a 5A69     		ldr	r2, [r3, #20]
 1371              		.loc 1 185 19
 1372 033c 7B6D     		ldr	r3, [r7, #84]
 1373 033e DB00     		lsls	r3, r3, #3
 1374 0340 1344     		add	r3, r3, r2
 1375              		.loc 1 185 55
 1376 0342 97ED127A 		vldr.32	s14, [r7, #72]
 1377 0346 C6EE877A 		vdiv.f32	s15, s13, s14
 1378              		.loc 1 185 25
 1379 034a C3ED017A 		vstr.32	s15, [r3, #4]
 180:Lib/lib_vision_models_pp/lib_vision_models_pp/Src/pd_pp_model.c ****         value = (float32_t)((int32_t)pRawBoxes[i * in_struct_size + AI_PD_MODEL_PP_KEYPOINTS + (2 *
 1380              		.loc 1 180 68 discriminator 3
 1381 034e 7B6D     		ldr	r3, [r7, #84]
 1382 0350 0133     		adds	r3, r3, #1
 1383 0352 7B65     		str	r3, [r7, #84]
 1384              	.L89:
 180:Lib/lib_vision_models_pp/lib_vision_models_pp/Src/pd_pp_model.c ****         value = (float32_t)((int32_t)pRawBoxes[i * in_struct_size + AI_PD_MODEL_PP_KEYPOINTS + (2 *
 1385              		.loc 1 180 51 discriminator 1
 1386 0354 7B68     		ldr	r3, [r7, #4]
 1387 0356 9B68     		ldr	r3, [r3, #8]
 180:Lib/lib_vision_models_pp/lib_vision_models_pp/Src/pd_pp_model.c ****         value = (float32_t)((int32_t)pRawBoxes[i * in_struct_size + AI_PD_MODEL_PP_KEYPOINTS + (2 *
 1388              		.loc 1 180 30 discriminator 1
 1389 0358 7A6D     		ldr	r2, [r7, #84]
 1390 035a 9A42     		cmp	r2, r3
 1391 035c 99D3     		bcc	.L90
 1392              	.LBE9:
 186:Lib/lib_vision_models_pp/lib_vision_models_pp/Src/pd_pp_model.c ****       }
 187:Lib/lib_vision_models_pp/lib_vision_models_pp/Src/pd_pp_model.c **** 
 188:Lib/lib_vision_models_pp/lib_vision_models_pp/Src/pd_pp_model.c ****       box_nb++;
 1393              		.loc 1 188 13
 1394 035e FB6D     		ldr	r3, [r7, #92]
 1395 0360 0133     		adds	r3, r3, #1
 1396 0362 FB65     		str	r3, [r7, #92]
 189:Lib/lib_vision_models_pp/lib_vision_models_pp/Src/pd_pp_model.c ****       if (box_nb >= pInput_static_param->max_boxes_limit) {
 1397              		.loc 1 189 40
 1398 0364 7B68     		ldr	r3, [r7, #4]
 1399 0366 9B69     		ldr	r3, [r3, #24]
 1400              		.loc 1 189 10
 1401 0368 FA6D     		ldr	r2, [r7, #92]
 1402 036a 9A42     		cmp	r2, r3
 1403 036c 09D2     		bcs	.L94
ARM GAS  /tmp/cchb1jCG.s 			page 29


 1404              	.L88:
 1405              	.LBE8:
 1406              	.LBE7:
 153:Lib/lib_vision_models_pp/lib_vision_models_pp/Src/pd_pp_model.c ****     pd_pp_box_t *pBox = &pBoxes[box_nb]; //&pd_boxes[box_nb];
 1407              		.loc 1 153 66 discriminator 2
 1408 036e BB6D     		ldr	r3, [r7, #88]
 1409 0370 0133     		adds	r3, r3, #1
 1410 0372 BB65     		str	r3, [r7, #88]
 1411              	.L87:
 153:Lib/lib_vision_models_pp/lib_vision_models_pp/Src/pd_pp_model.c ****     pd_pp_box_t *pBox = &pBoxes[box_nb]; //&pd_boxes[box_nb];
 1412              		.loc 1 153 47 discriminator 1
 1413 0374 7B68     		ldr	r3, [r7, #4]
 1414 0376 5B69     		ldr	r3, [r3, #20]
 153:Lib/lib_vision_models_pp/lib_vision_models_pp/Src/pd_pp_model.c ****     pd_pp_box_t *pBox = &pBoxes[box_nb]; //&pd_boxes[box_nb];
 1415              		.loc 1 153 26 discriminator 1
 1416 0378 BA6D     		ldr	r2, [r7, #88]
 1417 037a 9A42     		cmp	r2, r3
 1418 037c FFF4AFAE 		bcc	.L92
 1419 0380 00E0     		b	.L91
 1420              	.L94:
 1421              	.LBB11:
 1422              	.LBB10:
 190:Lib/lib_vision_models_pp/lib_vision_models_pp/Src/pd_pp_model.c ****         break;
 1423              		.loc 1 190 9
 1424 0382 00BF     		nop
 1425              	.L91:
 1426              	.LBE10:
 1427              	.LBE11:
 1428              	.LBE6:
 191:Lib/lib_vision_models_pp/lib_vision_models_pp/Src/pd_pp_model.c ****       }
 192:Lib/lib_vision_models_pp/lib_vision_models_pp/Src/pd_pp_model.c ****     }
 193:Lib/lib_vision_models_pp/lib_vision_models_pp/Src/pd_pp_model.c ****   }
 194:Lib/lib_vision_models_pp/lib_vision_models_pp/Src/pd_pp_model.c **** 
 195:Lib/lib_vision_models_pp/lib_vision_models_pp/Src/pd_pp_model.c ****   pOutput->box_nb = box_nb;
 1429              		.loc 1 195 19
 1430 0384 BB68     		ldr	r3, [r7, #8]
 1431 0386 FA6D     		ldr	r2, [r7, #92]
 1432 0388 5A60     		str	r2, [r3, #4]
 196:Lib/lib_vision_models_pp/lib_vision_models_pp/Src/pd_pp_model.c ****   return AI_PD_POSTPROCESS_ERROR_NO;
 1433              		.loc 1 196 10
 1434 038a 0023     		movs	r3, #0
 197:Lib/lib_vision_models_pp/lib_vision_models_pp/Src/pd_pp_model.c **** }
 1435              		.loc 1 197 1
 1436 038c 1846     		mov	r0, r3
 1437 038e 6037     		adds	r7, r7, #96
 1438              		.cfi_def_cfa_offset 8
 1439 0390 BD46     		mov	sp, r7
 1440              		.cfi_def_cfa_register 13
 1441              		@ sp needed
 1442 0392 80BD     		pop	{r7, pc}
 1443              		.cfi_endproc
 1444              	.LFE2649:
 1446              		.section	.text.pd_pp_nms,"ax",%progbits
 1447              		.align	1
 1448              		.syntax unified
 1449              		.thumb
 1450              		.thumb_func
ARM GAS  /tmp/cchb1jCG.s 			page 30


 1452              	pd_pp_nms:
 1453              	.LFB2650:
 198:Lib/lib_vision_models_pp/lib_vision_models_pp/Src/pd_pp_model.c **** 
 199:Lib/lib_vision_models_pp/lib_vision_models_pp/Src/pd_pp_model.c **** static int pd_pp_nms(pd_pp_out_t *pOutput,
 200:Lib/lib_vision_models_pp/lib_vision_models_pp/Src/pd_pp_model.c ****                      pd_model_pp_static_param_t *pInput_static_param)
 201:Lib/lib_vision_models_pp/lib_vision_models_pp/Src/pd_pp_model.c **** {
 1454              		.loc 1 201 1
 1455              		.cfi_startproc
 1456              		@ args = 0, pretend = 0, frame = 40
 1457              		@ frame_needed = 1, uses_anonymous_args = 0
 1458 0000 B0B5     		push	{r4, r5, r7, lr}
 1459              		.cfi_def_cfa_offset 16
 1460              		.cfi_offset 4, -16
 1461              		.cfi_offset 5, -12
 1462              		.cfi_offset 7, -8
 1463              		.cfi_offset 14, -4
 1464 0002 8AB0     		sub	sp, sp, #40
 1465              		.cfi_def_cfa_offset 56
 1466 0004 00AF     		add	r7, sp, #0
 1467              		.cfi_def_cfa_register 7
 1468 0006 7860     		str	r0, [r7, #4]
 1469 0008 3960     		str	r1, [r7]
 202:Lib/lib_vision_models_pp/lib_vision_models_pp/Src/pd_pp_model.c ****   int hand_nb = 0;
 1470              		.loc 1 202 7
 1471 000a 0023     		movs	r3, #0
 1472 000c 7B62     		str	r3, [r7, #36]
 203:Lib/lib_vision_models_pp/lib_vision_models_pp/Src/pd_pp_model.c ****   int skip_box;
 204:Lib/lib_vision_models_pp/lib_vision_models_pp/Src/pd_pp_model.c ****   float iou;
 205:Lib/lib_vision_models_pp/lib_vision_models_pp/Src/pd_pp_model.c ****   pd_pp_box_t *pd_boxes = (pd_pp_box_t *)pOutput->pOutData;
 1473              		.loc 1 205 16
 1474 000e 7B68     		ldr	r3, [r7, #4]
 1475 0010 1B68     		ldr	r3, [r3]
 1476 0012 7B61     		str	r3, [r7, #20]
 206:Lib/lib_vision_models_pp/lib_vision_models_pp/Src/pd_pp_model.c ****   size_t box_nb =  pOutput->box_nb;
 1477              		.loc 1 206 10
 1478 0014 7B68     		ldr	r3, [r7, #4]
 1479 0016 5B68     		ldr	r3, [r3, #4]
 1480 0018 3B61     		str	r3, [r7, #16]
 207:Lib/lib_vision_models_pp/lib_vision_models_pp/Src/pd_pp_model.c **** 
 208:Lib/lib_vision_models_pp/lib_vision_models_pp/Src/pd_pp_model.c ****   /* first sort boxes by higher probability */
 209:Lib/lib_vision_models_pp/lib_vision_models_pp/Src/pd_pp_model.c ****   qsort(pd_boxes, box_nb, sizeof(pd_pp_box_t), pd_pp_nms_comparator);
 1481              		.loc 1 209 3
 1482 001a 314B     		ldr	r3, .L109
 1483 001c 1822     		movs	r2, #24
 1484 001e 3969     		ldr	r1, [r7, #16]
 1485 0020 7869     		ldr	r0, [r7, #20]
 1486 0022 FFF7FEFF 		bl	qsort
 1487              	.LBB12:
 210:Lib/lib_vision_models_pp/lib_vision_models_pp/Src/pd_pp_model.c **** 
 211:Lib/lib_vision_models_pp/lib_vision_models_pp/Src/pd_pp_model.c ****   /* then apply iou to filter them */
 212:Lib/lib_vision_models_pp/lib_vision_models_pp/Src/pd_pp_model.c ****   for (size_t i = 0; i < box_nb; i++) {
 1488              		.loc 1 212 15
 1489 0026 0023     		movs	r3, #0
 1490 0028 FB61     		str	r3, [r7, #28]
 1491              		.loc 1 212 3
 1492 002a 50E0     		b	.L96
 1493              	.L104:
ARM GAS  /tmp/cchb1jCG.s 			page 31


 213:Lib/lib_vision_models_pp/lib_vision_models_pp/Src/pd_pp_model.c ****     skip_box = 0;
 1494              		.loc 1 213 14
 1495 002c 0023     		movs	r3, #0
 1496 002e 3B62     		str	r3, [r7, #32]
 1497              	.LBB13:
 214:Lib/lib_vision_models_pp/lib_vision_models_pp/Src/pd_pp_model.c ****     for (int j = 0; j < hand_nb; j++) {
 1498              		.loc 1 214 14
 1499 0030 0023     		movs	r3, #0
 1500 0032 BB61     		str	r3, [r7, #24]
 1501              		.loc 1 214 5
 1502 0034 24E0     		b	.L97
 1503              	.L101:
 215:Lib/lib_vision_models_pp/lib_vision_models_pp/Src/pd_pp_model.c ****       iou = pd_pp_compute_iou(&pd_boxes[i], &pd_boxes[j]);
 1504              		.loc 1 215 40
 1505 0036 FA69     		ldr	r2, [r7, #28]
 1506 0038 1346     		mov	r3, r2
 1507 003a 5B00     		lsls	r3, r3, #1
 1508 003c 1344     		add	r3, r3, r2
 1509 003e DB00     		lsls	r3, r3, #3
 1510 0040 1A46     		mov	r2, r3
 1511              		.loc 1 215 13
 1512 0042 7B69     		ldr	r3, [r7, #20]
 1513 0044 9818     		adds	r0, r3, r2
 1514              		.loc 1 215 54
 1515 0046 BA69     		ldr	r2, [r7, #24]
 1516 0048 1346     		mov	r3, r2
 1517 004a 5B00     		lsls	r3, r3, #1
 1518 004c 1344     		add	r3, r3, r2
 1519 004e DB00     		lsls	r3, r3, #3
 1520 0050 1A46     		mov	r2, r3
 1521              		.loc 1 215 13
 1522 0052 7B69     		ldr	r3, [r7, #20]
 1523 0054 1344     		add	r3, r3, r2
 1524 0056 1946     		mov	r1, r3
 1525 0058 FFF7FEFF 		bl	pd_pp_compute_iou
 1526 005c 87ED030A 		vstr.32	s0, [r7, #12]
 216:Lib/lib_vision_models_pp/lib_vision_models_pp/Src/pd_pp_model.c ****       if (iou >= pInput_static_param->iou_threshold) {
 1527              		.loc 1 216 37
 1528 0060 3B68     		ldr	r3, [r7]
 1529 0062 D3ED047A 		vldr.32	s15, [r3, #16]
 1530              		.loc 1 216 10
 1531 0066 97ED037A 		vldr.32	s14, [r7, #12]
 1532 006a B4EEE77A 		vcmpe.f32	s14, s15
 1533 006e F1EE10FA 		vmrs	APSR_nzcv, FPSCR
 1534 0072 02DB     		blt	.L107
 217:Lib/lib_vision_models_pp/lib_vision_models_pp/Src/pd_pp_model.c ****         skip_box = 1;
 1535              		.loc 1 217 18
 1536 0074 0123     		movs	r3, #1
 1537 0076 3B62     		str	r3, [r7, #32]
 218:Lib/lib_vision_models_pp/lib_vision_models_pp/Src/pd_pp_model.c ****         break;
 1538              		.loc 1 218 9
 1539 0078 06E0     		b	.L100
 1540              	.L107:
 214:Lib/lib_vision_models_pp/lib_vision_models_pp/Src/pd_pp_model.c ****       iou = pd_pp_compute_iou(&pd_boxes[i], &pd_boxes[j]);
 1541              		.loc 1 214 35 discriminator 2
 1542 007a BB69     		ldr	r3, [r7, #24]
 1543 007c 0133     		adds	r3, r3, #1
ARM GAS  /tmp/cchb1jCG.s 			page 32


 1544 007e BB61     		str	r3, [r7, #24]
 1545              	.L97:
 214:Lib/lib_vision_models_pp/lib_vision_models_pp/Src/pd_pp_model.c ****       iou = pd_pp_compute_iou(&pd_boxes[i], &pd_boxes[j]);
 1546              		.loc 1 214 23 discriminator 1
 1547 0080 BA69     		ldr	r2, [r7, #24]
 1548 0082 7B6A     		ldr	r3, [r7, #36]
 1549 0084 9A42     		cmp	r2, r3
 1550 0086 D6DB     		blt	.L101
 1551              	.L100:
 1552              	.LBE13:
 219:Lib/lib_vision_models_pp/lib_vision_models_pp/Src/pd_pp_model.c ****       }
 220:Lib/lib_vision_models_pp/lib_vision_models_pp/Src/pd_pp_model.c ****     }
 221:Lib/lib_vision_models_pp/lib_vision_models_pp/Src/pd_pp_model.c ****     if (skip_box)
 1553              		.loc 1 221 8
 1554 0088 3B6A     		ldr	r3, [r7, #32]
 1555 008a 002B     		cmp	r3, #0
 1556 008c 1BD1     		bne	.L108
 222:Lib/lib_vision_models_pp/lib_vision_models_pp/Src/pd_pp_model.c ****       continue;
 223:Lib/lib_vision_models_pp/lib_vision_models_pp/Src/pd_pp_model.c **** 
 224:Lib/lib_vision_models_pp/lib_vision_models_pp/Src/pd_pp_model.c ****     pd_boxes[hand_nb++] = pd_boxes[i];
 1557              		.loc 1 224 35
 1558 008e FA69     		ldr	r2, [r7, #28]
 1559 0090 1346     		mov	r3, r2
 1560 0092 5B00     		lsls	r3, r3, #1
 1561 0094 1344     		add	r3, r3, r2
 1562 0096 DB00     		lsls	r3, r3, #3
 1563 0098 1A46     		mov	r2, r3
 1564 009a 7B69     		ldr	r3, [r7, #20]
 1565 009c 9918     		adds	r1, r3, r2
 1566              		.loc 1 224 21
 1567 009e 7B6A     		ldr	r3, [r7, #36]
 1568 00a0 5A1C     		adds	r2, r3, #1
 1569 00a2 7A62     		str	r2, [r7, #36]
 1570 00a4 1A46     		mov	r2, r3
 1571              		.loc 1 224 13
 1572 00a6 1346     		mov	r3, r2
 1573 00a8 5B00     		lsls	r3, r3, #1
 1574 00aa 1344     		add	r3, r3, r2
 1575 00ac DB00     		lsls	r3, r3, #3
 1576 00ae 1A46     		mov	r2, r3
 1577 00b0 7B69     		ldr	r3, [r7, #20]
 1578 00b2 1344     		add	r3, r3, r2
 1579              		.loc 1 224 25
 1580 00b4 1C46     		mov	r4, r3
 1581 00b6 0D46     		mov	r5, r1
 1582 00b8 0FCD     		ldmia	r5!, {r0, r1, r2, r3}
 1583 00ba 0FC4     		stmia	r4!, {r0, r1, r2, r3}
 1584 00bc 95E80300 		ldm	r5, {r0, r1}
 1585 00c0 84E80300 		stm	r4, {r0, r1}
 1586 00c4 00E0     		b	.L103
 1587              	.L108:
 222:Lib/lib_vision_models_pp/lib_vision_models_pp/Src/pd_pp_model.c ****       continue;
 1588              		.loc 1 222 7
 1589 00c6 00BF     		nop
 1590              	.L103:
 212:Lib/lib_vision_models_pp/lib_vision_models_pp/Src/pd_pp_model.c ****     skip_box = 0;
 1591              		.loc 1 212 35 discriminator 2
ARM GAS  /tmp/cchb1jCG.s 			page 33


 1592 00c8 FB69     		ldr	r3, [r7, #28]
 1593 00ca 0133     		adds	r3, r3, #1
 1594 00cc FB61     		str	r3, [r7, #28]
 1595              	.L96:
 212:Lib/lib_vision_models_pp/lib_vision_models_pp/Src/pd_pp_model.c ****     skip_box = 0;
 1596              		.loc 1 212 24 discriminator 1
 1597 00ce FA69     		ldr	r2, [r7, #28]
 1598 00d0 3B69     		ldr	r3, [r7, #16]
 1599 00d2 9A42     		cmp	r2, r3
 1600 00d4 AAD3     		bcc	.L104
 1601              	.LBE12:
 225:Lib/lib_vision_models_pp/lib_vision_models_pp/Src/pd_pp_model.c ****   }
 226:Lib/lib_vision_models_pp/lib_vision_models_pp/Src/pd_pp_model.c **** 
 227:Lib/lib_vision_models_pp/lib_vision_models_pp/Src/pd_pp_model.c ****   return hand_nb;
 1602              		.loc 1 227 10
 1603 00d6 7B6A     		ldr	r3, [r7, #36]
 228:Lib/lib_vision_models_pp/lib_vision_models_pp/Src/pd_pp_model.c **** }
 1604              		.loc 1 228 1
 1605 00d8 1846     		mov	r0, r3
 1606 00da 2837     		adds	r7, r7, #40
 1607              		.cfi_def_cfa_offset 16
 1608 00dc BD46     		mov	sp, r7
 1609              		.cfi_def_cfa_register 13
 1610              		@ sp needed
 1611 00de B0BD     		pop	{r4, r5, r7, pc}
 1612              	.L110:
 1613              		.align	2
 1614              	.L109:
 1615 00e0 00000000 		.word	pd_pp_nms_comparator
 1616              		.cfi_endproc
 1617              	.LFE2650:
 1619              		.section	.text.pd_model_pp_reset,"ax",%progbits
 1620              		.align	1
 1621              		.global	pd_model_pp_reset
 1622              		.syntax unified
 1623              		.thumb
 1624              		.thumb_func
 1626              	pd_model_pp_reset:
 1627              	.LFB2651:
 229:Lib/lib_vision_models_pp/lib_vision_models_pp/Src/pd_pp_model.c **** int32_t pd_model_pp_reset(pd_model_pp_static_param_t *pInput_static_param)
 230:Lib/lib_vision_models_pp/lib_vision_models_pp/Src/pd_pp_model.c **** {
 1628              		.loc 1 230 1
 1629              		.cfi_startproc
 1630              		@ args = 0, pretend = 0, frame = 8
 1631              		@ frame_needed = 1, uses_anonymous_args = 0
 1632              		@ link register save eliminated.
 1633 0000 80B4     		push	{r7}
 1634              		.cfi_def_cfa_offset 4
 1635              		.cfi_offset 7, -4
 1636 0002 83B0     		sub	sp, sp, #12
 1637              		.cfi_def_cfa_offset 16
 1638 0004 00AF     		add	r7, sp, #0
 1639              		.cfi_def_cfa_register 7
 1640 0006 7860     		str	r0, [r7, #4]
 231:Lib/lib_vision_models_pp/lib_vision_models_pp/Src/pd_pp_model.c ****   return AI_PD_POSTPROCESS_ERROR_NO;
 1641              		.loc 1 231 10
 1642 0008 0023     		movs	r3, #0
ARM GAS  /tmp/cchb1jCG.s 			page 34


 232:Lib/lib_vision_models_pp/lib_vision_models_pp/Src/pd_pp_model.c **** }
 1643              		.loc 1 232 1
 1644 000a 1846     		mov	r0, r3
 1645 000c 0C37     		adds	r7, r7, #12
 1646              		.cfi_def_cfa_offset 4
 1647 000e BD46     		mov	sp, r7
 1648              		.cfi_def_cfa_register 13
 1649              		@ sp needed
 1650 0010 5DF8047B 		ldr	r7, [sp], #4
 1651              		.cfi_restore 7
 1652              		.cfi_def_cfa_offset 0
 1653 0014 7047     		bx	lr
 1654              		.cfi_endproc
 1655              	.LFE2651:
 1657              		.section	.text.pd_model_pp_process,"ax",%progbits
 1658              		.align	1
 1659              		.global	pd_model_pp_process
 1660              		.syntax unified
 1661              		.thumb
 1662              		.thumb_func
 1664              	pd_model_pp_process:
 1665              	.LFB2652:
 233:Lib/lib_vision_models_pp/lib_vision_models_pp/Src/pd_pp_model.c **** 
 234:Lib/lib_vision_models_pp/lib_vision_models_pp/Src/pd_pp_model.c **** 
 235:Lib/lib_vision_models_pp/lib_vision_models_pp/Src/pd_pp_model.c **** int32_t pd_model_pp_process(pd_model_pp_in_t *pInput,
 236:Lib/lib_vision_models_pp/lib_vision_models_pp/Src/pd_pp_model.c ****                             pd_pp_out_t *pOutput,
 237:Lib/lib_vision_models_pp/lib_vision_models_pp/Src/pd_pp_model.c ****                             pd_model_pp_static_param_t *pInput_static_param)
 238:Lib/lib_vision_models_pp/lib_vision_models_pp/Src/pd_pp_model.c **** {
 1666              		.loc 1 238 1
 1667              		.cfi_startproc
 1668              		@ args = 0, pretend = 0, frame = 24
 1669              		@ frame_needed = 1, uses_anonymous_args = 0
 1670 0000 80B5     		push	{r7, lr}
 1671              		.cfi_def_cfa_offset 8
 1672              		.cfi_offset 7, -8
 1673              		.cfi_offset 14, -4
 1674 0002 86B0     		sub	sp, sp, #24
 1675              		.cfi_def_cfa_offset 32
 1676 0004 00AF     		add	r7, sp, #0
 1677              		.cfi_def_cfa_register 7
 1678 0006 F860     		str	r0, [r7, #12]
 1679 0008 B960     		str	r1, [r7, #8]
 1680 000a 7A60     		str	r2, [r7, #4]
 239:Lib/lib_vision_models_pp/lib_vision_models_pp/Src/pd_pp_model.c ****   int32_t ret = AI_PD_POSTPROCESS_ERROR;
 1681              		.loc 1 239 11
 1682 000c 4FF0FF33 		mov	r3, #-1
 1683 0010 7B61     		str	r3, [r7, #20]
 240:Lib/lib_vision_models_pp/lib_vision_models_pp/Src/pd_pp_model.c ****   ret = pd_pp_decode(pInput,
 1684              		.loc 1 240 9
 1685 0012 7A68     		ldr	r2, [r7, #4]
 1686 0014 B968     		ldr	r1, [r7, #8]
 1687 0016 F868     		ldr	r0, [r7, #12]
 1688 0018 FFF7FEFF 		bl	pd_pp_decode
 1689 001c 7861     		str	r0, [r7, #20]
 241:Lib/lib_vision_models_pp/lib_vision_models_pp/Src/pd_pp_model.c ****                      pOutput,
 242:Lib/lib_vision_models_pp/lib_vision_models_pp/Src/pd_pp_model.c ****                      pInput_static_param);
 243:Lib/lib_vision_models_pp/lib_vision_models_pp/Src/pd_pp_model.c **** 
ARM GAS  /tmp/cchb1jCG.s 			page 35


 244:Lib/lib_vision_models_pp/lib_vision_models_pp/Src/pd_pp_model.c ****   if (AI_PD_POSTPROCESS_ERROR_NO != ret) {
 1690              		.loc 1 244 6
 1691 001e 7B69     		ldr	r3, [r7, #20]
 1692 0020 002B     		cmp	r3, #0
 1693 0022 01D0     		beq	.L114
 245:Lib/lib_vision_models_pp/lib_vision_models_pp/Src/pd_pp_model.c ****     return ret;
 1694              		.loc 1 245 12
 1695 0024 7B69     		ldr	r3, [r7, #20]
 1696 0026 04E0     		b	.L115
 1697              	.L114:
 246:Lib/lib_vision_models_pp/lib_vision_models_pp/Src/pd_pp_model.c ****   }
 247:Lib/lib_vision_models_pp/lib_vision_models_pp/Src/pd_pp_model.c ****   pd_pp_nms(pOutput,
 1698              		.loc 1 247 3
 1699 0028 7968     		ldr	r1, [r7, #4]
 1700 002a B868     		ldr	r0, [r7, #8]
 1701 002c FFF7FEFF 		bl	pd_pp_nms
 248:Lib/lib_vision_models_pp/lib_vision_models_pp/Src/pd_pp_model.c ****             pInput_static_param);
 249:Lib/lib_vision_models_pp/lib_vision_models_pp/Src/pd_pp_model.c **** 
 250:Lib/lib_vision_models_pp/lib_vision_models_pp/Src/pd_pp_model.c ****   return ret;
 1702              		.loc 1 250 10
 1703 0030 7B69     		ldr	r3, [r7, #20]
 1704              	.L115:
 251:Lib/lib_vision_models_pp/lib_vision_models_pp/Src/pd_pp_model.c **** }
 1705              		.loc 1 251 1
 1706 0032 1846     		mov	r0, r3
 1707 0034 1837     		adds	r7, r7, #24
 1708              		.cfi_def_cfa_offset 8
 1709 0036 BD46     		mov	sp, r7
 1710              		.cfi_def_cfa_register 13
 1711              		@ sp needed
 1712 0038 80BD     		pop	{r7, pc}
 1713              		.cfi_endproc
 1714              	.LFE2652:
 1716              		.section	.text.pd_model_pp_process_int8,"ax",%progbits
 1717              		.align	1
 1718              		.global	pd_model_pp_process_int8
 1719              		.syntax unified
 1720              		.thumb
 1721              		.thumb_func
 1723              	pd_model_pp_process_int8:
 1724              	.LFB2653:
 252:Lib/lib_vision_models_pp/lib_vision_models_pp/Src/pd_pp_model.c **** 
 253:Lib/lib_vision_models_pp/lib_vision_models_pp/Src/pd_pp_model.c **** int32_t pd_model_pp_process_int8(pd_model_pp_in_t *pInput,
 254:Lib/lib_vision_models_pp/lib_vision_models_pp/Src/pd_pp_model.c ****                             pd_pp_out_t *pOutput,
 255:Lib/lib_vision_models_pp/lib_vision_models_pp/Src/pd_pp_model.c ****                             pd_model_pp_static_param_t *pInput_static_param)
 256:Lib/lib_vision_models_pp/lib_vision_models_pp/Src/pd_pp_model.c **** {
 1725              		.loc 1 256 1
 1726              		.cfi_startproc
 1727              		@ args = 0, pretend = 0, frame = 24
 1728              		@ frame_needed = 1, uses_anonymous_args = 0
 1729 0000 80B5     		push	{r7, lr}
 1730              		.cfi_def_cfa_offset 8
 1731              		.cfi_offset 7, -8
 1732              		.cfi_offset 14, -4
 1733 0002 86B0     		sub	sp, sp, #24
 1734              		.cfi_def_cfa_offset 32
 1735 0004 00AF     		add	r7, sp, #0
ARM GAS  /tmp/cchb1jCG.s 			page 36


 1736              		.cfi_def_cfa_register 7
 1737 0006 F860     		str	r0, [r7, #12]
 1738 0008 B960     		str	r1, [r7, #8]
 1739 000a 7A60     		str	r2, [r7, #4]
 257:Lib/lib_vision_models_pp/lib_vision_models_pp/Src/pd_pp_model.c ****   int32_t ret = AI_PD_POSTPROCESS_ERROR;
 1740              		.loc 1 257 11
 1741 000c 4FF0FF33 		mov	r3, #-1
 1742 0010 7B61     		str	r3, [r7, #20]
 258:Lib/lib_vision_models_pp/lib_vision_models_pp/Src/pd_pp_model.c ****   ret = pd_pp_decode_int8(pInput,
 1743              		.loc 1 258 9
 1744 0012 7A68     		ldr	r2, [r7, #4]
 1745 0014 B968     		ldr	r1, [r7, #8]
 1746 0016 F868     		ldr	r0, [r7, #12]
 1747 0018 FFF7FEFF 		bl	pd_pp_decode_int8
 1748 001c 7861     		str	r0, [r7, #20]
 259:Lib/lib_vision_models_pp/lib_vision_models_pp/Src/pd_pp_model.c ****                           pOutput,
 260:Lib/lib_vision_models_pp/lib_vision_models_pp/Src/pd_pp_model.c ****                           pInput_static_param);
 261:Lib/lib_vision_models_pp/lib_vision_models_pp/Src/pd_pp_model.c **** 
 262:Lib/lib_vision_models_pp/lib_vision_models_pp/Src/pd_pp_model.c ****   if (AI_PD_POSTPROCESS_ERROR_NO != ret) {
 1749              		.loc 1 262 6
 1750 001e 7B69     		ldr	r3, [r7, #20]
 1751 0020 002B     		cmp	r3, #0
 1752 0022 01D0     		beq	.L117
 263:Lib/lib_vision_models_pp/lib_vision_models_pp/Src/pd_pp_model.c ****     return ret;
 1753              		.loc 1 263 12
 1754 0024 7B69     		ldr	r3, [r7, #20]
 1755 0026 04E0     		b	.L118
 1756              	.L117:
 264:Lib/lib_vision_models_pp/lib_vision_models_pp/Src/pd_pp_model.c ****   }
 265:Lib/lib_vision_models_pp/lib_vision_models_pp/Src/pd_pp_model.c ****   pd_pp_nms(pOutput,
 1757              		.loc 1 265 3
 1758 0028 7968     		ldr	r1, [r7, #4]
 1759 002a B868     		ldr	r0, [r7, #8]
 1760 002c FFF7FEFF 		bl	pd_pp_nms
 266:Lib/lib_vision_models_pp/lib_vision_models_pp/Src/pd_pp_model.c ****             pInput_static_param);
 267:Lib/lib_vision_models_pp/lib_vision_models_pp/Src/pd_pp_model.c **** 
 268:Lib/lib_vision_models_pp/lib_vision_models_pp/Src/pd_pp_model.c ****   return ret;
 1761              		.loc 1 268 10
 1762 0030 7B69     		ldr	r3, [r7, #20]
 1763              	.L118:
 269:Lib/lib_vision_models_pp/lib_vision_models_pp/Src/pd_pp_model.c **** }
 1764              		.loc 1 269 1
 1765 0032 1846     		mov	r0, r3
 1766 0034 1837     		adds	r7, r7, #24
 1767              		.cfi_def_cfa_offset 8
 1768 0036 BD46     		mov	sp, r7
 1769              		.cfi_def_cfa_register 13
 1770              		@ sp needed
 1771 0038 80BD     		pop	{r7, pc}
 1772              		.cfi_endproc
 1773              	.LFE2653:
 1775              		.text
 1776              	.Letext0:
 1777              		.file 2 "/home/tanjiajun2002/renesas/rzv/e2studio_v2025-01_fsp_v3.1.0/toolchains/gcc_arm/arm-gnu-t
 1778              		.file 3 "/home/tanjiajun2002/renesas/rzv/e2studio_v2025-01_fsp_v3.1.0/toolchains/gcc_arm/arm-gnu-t
 1779              		.file 4 "/home/tanjiajun2002/renesas/rzv/e2studio_v2025-01_fsp_v3.1.0/toolchains/gcc_arm/arm-gnu-t
 1780              		.file 5 "/home/tanjiajun2002/renesas/rzv/e2studio_v2025-01_fsp_v3.1.0/toolchains/gcc_arm/arm-gnu-t
ARM GAS  /tmp/cchb1jCG.s 			page 37


 1781              		.file 6 "Lib/lib_vision_models_pp/lib_vision_models_pp/Inc/pd_pp_output_if.h"
 1782              		.file 7 "Lib/lib_vision_models_pp/lib_vision_models_pp/Inc/pd_model_pp_if.h"
 1783              		.file 8 "Lib/lib_vision_models_pp/lib_vision_models_pp/Src/vision_models_pp.h"
 1784              		.file 9 "/home/tanjiajun2002/renesas/rzv/e2studio_v2025-01_fsp_v3.1.0/toolchains/gcc_arm/arm-gnu-t
ARM GAS  /tmp/cchb1jCG.s 			page 38


DEFINED SYMBOLS
                            *ABS*:00000000 pd_pp_model.c
     /tmp/cchb1jCG.s:26     .text.pd_pp_nms_comparator:00000000 $t
     /tmp/cchb1jCG.s:31     .text.pd_pp_nms_comparator:00000000 pd_pp_nms_comparator
     /tmp/cchb1jCG.s:99     .text.pd_pp_compute_opposite_corners_from_box:00000000 $t
     /tmp/cchb1jCG.s:104    .text.pd_pp_compute_opposite_corners_from_box:00000000 pd_pp_compute_opposite_corners_from_box
     /tmp/cchb1jCG.s:195    .text.pd_pp_compute_iou:00000000 $t
     /tmp/cchb1jCG.s:200    .text.pd_pp_compute_iou:00000000 pd_pp_compute_iou
     /tmp/cchb1jCG.s:595    .text.pd_pp_compute_iou:000002d8 $d
     /tmp/cchb1jCG.s:600    .text.pd_pp_decode:00000000 $t
     /tmp/cchb1jCG.s:605    .text.pd_pp_decode:00000000 pd_pp_decode
     /tmp/cchb1jCG.s:966    .text.pd_pp_decode_int8:00000000 $t
     /tmp/cchb1jCG.s:971    .text.pd_pp_decode_int8:00000000 pd_pp_decode_int8
     /tmp/cchb1jCG.s:1447   .text.pd_pp_nms:00000000 $t
     /tmp/cchb1jCG.s:1452   .text.pd_pp_nms:00000000 pd_pp_nms
     /tmp/cchb1jCG.s:1615   .text.pd_pp_nms:000000e0 $d
     /tmp/cchb1jCG.s:1620   .text.pd_model_pp_reset:00000000 $t
     /tmp/cchb1jCG.s:1626   .text.pd_model_pp_reset:00000000 pd_model_pp_reset
     /tmp/cchb1jCG.s:1658   .text.pd_model_pp_process:00000000 $t
     /tmp/cchb1jCG.s:1664   .text.pd_model_pp_process:00000000 pd_model_pp_process
     /tmp/cchb1jCG.s:1717   .text.pd_model_pp_process_int8:00000000 $t
     /tmp/cchb1jCG.s:1723   .text.pd_model_pp_process_int8:00000000 pd_model_pp_process_int8
                           .group:00000000 wm4.0.2a10773746a5c5ebb5552f50e466f80b
                           .group:00000000 wm4._newlib_version.h.4.411db44ea2338a62eca2f0777f81481b
                           .group:00000000 wm4.features.h.33.e0c9f337c65cb9f22ed5f23d082bc78b
                           .group:00000000 wm4._default_types.h.15.247e5cd201eca3442cbf5404108c4935
                           .group:00000000 wm4._intsup.h.10.48bafbb683905c4daa4565a85aeeb264
                           .group:00000000 wm4._stdint.h.10.c24fa3af3bc1706662bb5593a907e841
                           .group:00000000 wm4.stdint.h.23.d53047a68f4a85177f80b422d52785ed
                           .group:00000000 wm4.cmsis_gcc.h.26.7a5fd1a99dbedde687044a4433ab3e15
                           .group:00000000 wm4.newlib.h.7.591ac1bd65c1f5b34864757667a05252
                           .group:00000000 wm4.ieeefp.h.77.bd5feb87d9990dd328793ced294f6a87
                           .group:00000000 wm4.config.h.224.10ee1ad185d877c6e334e6581faab44d
                           .group:00000000 wm4._ansi.h.31.de524f58584151836e90d8620a16f8e8
                           .group:00000000 wm4.stddef.h.39.0dc9006b34572d4d9cae4c8b422c4971
                           .group:00000000 wm4.cdefs.h.49.70fc7af612f78ddcace70fdd90b5623b
                           .group:00000000 wm4._types.h.20.dd0d04dca3800a0d2a6129b87f3adbb2
                           .group:00000000 wm4.stddef.h.158.6f8e08a347b1cff664332fa350bfceb3
                           .group:00000000 wm4._types.h.127.3bdfe3ff8ea2d0985b03d9cbe93480e3
                           .group:00000000 wm4.reent.h.18.25503cdc8b7e55dd0d6ea7b3e5af7a03
                           .group:00000000 wm4.lock.h.2.1461d1fff82dffe8bfddc23307f6484f
                           .group:00000000 wm4.reent.h.78.6b87466b04591b1f1cb88c14fdf2ba9e
                           .group:00000000 wm4.string.h.15.dab3980bf35408a4c507182805e2de3a
                           .group:00000000 wm4.stddef.h.158.eec8bf00b5213f43d095cb984c5f22e3
                           .group:00000000 wm4.math.h.13.47cfc34cae8a1153323939c4d32cf7c2
                           .group:00000000 wm4.float.h.29.0e9d9baf95ec39f9555dc80c6e28186b
                           .group:00000000 wm4.syslimits.h.34.de5cbd310098bc5895998b6bde577ed2
                           .group:00000000 wm4.limits.h.9.70fb0ada6f71b16202a66baaa6d8ea70
                           .group:00000000 wm4.limits.h.60.56a1ae353e2028a24298ec6463b8b593
                           .group:00000000 wm4.arm_math_types.h.94.a6c8422e2657ad4cd95bd8be69ba02aa
                           .group:00000000 wm4.stdbool.h.29.c08aa3eec75cf5b9b5003883f43253f0
                           .group:00000000 wm4.arm_mve.h.38.47b22bbd301ce82bc6dafd1a387f65a3
                           .group:00000000 wm4.arm_math_types.h.559.cab78f278b684a3ea2271947c7aea680
                           .group:00000000 wm4.arm_math_memory.h.28.fe8a81c6a9ac13061a5f748732089249
                           .group:00000000 wm4.none.h.185.db055cca83e83f96d8d0bb450fbdf4bb
                           .group:00000000 wm4.utils.h.27.57524573fe37b04009eecf3582a4c591
                           .group:00000000 wm4.fast_math_functions.h.28.8eb7477260c1d6b62047c49a01c4cbaa
ARM GAS  /tmp/cchb1jCG.s 			page 39


                           .group:00000000 wm4.controller_functions.h.28.7bed7d7a726df2f65b8a3d89cff01247
                           .group:00000000 wm4.filtering_functions.h.46.6cf1424fb1f86d5f9958d208b83340a1
                           .group:00000000 wm4.pd_pp_output_if.h.29.27cfc4152de0f18405a8c4deeb846b9b
                           .group:00000000 wm4.vision_models_pp.h.11.28b46b8e037dfd5f523e56a85135f80b
                           .group:00000000 wm4.pd_pp_loc.h.19.d61e5c899c1b03ae8976481d0be1234f

UNDEFINED SYMBOLS
logf
expf
qsort
