ARM GAS  /tmp/ccXOK4tq.s 			page 1


   1              		.arch armv8.1-m.main
   2              		.fpu fpv5-d16
   3              		.arch_extension dsp
   4              		.arch_extension fp
   5              		.arch_extension fp.dp
   6              		.arch_extension mve
   7              		.arch_extension mve.fp
   8              		.eabi_attribute 5, "cortex-m55"
   9              		.eabi_attribute 28, 1
  10              		.eabi_attribute 20, 1
  11              		.eabi_attribute 21, 1
  12              		.eabi_attribute 23, 3
  13              		.eabi_attribute 24, 1
  14              		.eabi_attribute 25, 1
  15              		.eabi_attribute 26, 1
  16              		.eabi_attribute 30, 4
  17              		.eabi_attribute 34, 1
  18              		.eabi_attribute 38, 1
  19              		.eabi_attribute 18, 4
  20              		.file	"pd_pp_model.c"
  21              		.text
  22              	.Ltext0:
  23              		.cfi_sections	.debug_frame
  24              		.file 1 "Lib/lib_vision_models_pp/lib_vision_models_pp/Src/pd_pp_model.c"
  25              		.section	.text.pd_pp_nms_comparator,"ax",%progbits
  26              		.align	1
  27              		.syntax unified
  28              		.thumb
  29              		.thumb_func
  31              	pd_pp_nms_comparator:
  32              	.LVL0:
  33              	.LFB2645:
   1:Lib/lib_vision_models_pp/lib_vision_models_pp/Src/pd_pp_model.c **** /**
   2:Lib/lib_vision_models_pp/lib_vision_models_pp/Src/pd_pp_model.c ****   ******************************************************************************
   3:Lib/lib_vision_models_pp/lib_vision_models_pp/Src/pd_pp_model.c ****   * @file    pd_pp_model.c
   4:Lib/lib_vision_models_pp/lib_vision_models_pp/Src/pd_pp_model.c ****   * @author  MDG Application Team
   5:Lib/lib_vision_models_pp/lib_vision_models_pp/Src/pd_pp_model.c ****   ******************************************************************************
   6:Lib/lib_vision_models_pp/lib_vision_models_pp/Src/pd_pp_model.c ****   * @attention
   7:Lib/lib_vision_models_pp/lib_vision_models_pp/Src/pd_pp_model.c ****   *
   8:Lib/lib_vision_models_pp/lib_vision_models_pp/Src/pd_pp_model.c ****   * Copyright (c) 2024 STMicroelectronics.
   9:Lib/lib_vision_models_pp/lib_vision_models_pp/Src/pd_pp_model.c ****   * All rights reserved.
  10:Lib/lib_vision_models_pp/lib_vision_models_pp/Src/pd_pp_model.c ****   *
  11:Lib/lib_vision_models_pp/lib_vision_models_pp/Src/pd_pp_model.c ****   * This software is licensed under terms that can be found in the LICENSE file
  12:Lib/lib_vision_models_pp/lib_vision_models_pp/Src/pd_pp_model.c ****   * in the root directory of this software component.
  13:Lib/lib_vision_models_pp/lib_vision_models_pp/Src/pd_pp_model.c ****   * If no LICENSE file comes with this software, it is provided AS-IS.
  14:Lib/lib_vision_models_pp/lib_vision_models_pp/Src/pd_pp_model.c ****   *
  15:Lib/lib_vision_models_pp/lib_vision_models_pp/Src/pd_pp_model.c ****   ******************************************************************************
  16:Lib/lib_vision_models_pp/lib_vision_models_pp/Src/pd_pp_model.c ****   */
  17:Lib/lib_vision_models_pp/lib_vision_models_pp/Src/pd_pp_model.c **** 
  18:Lib/lib_vision_models_pp/lib_vision_models_pp/Src/pd_pp_model.c **** #include "pd_model_pp_if.h"
  19:Lib/lib_vision_models_pp/lib_vision_models_pp/Src/pd_pp_model.c **** #include "vision_models_pp.h"
  20:Lib/lib_vision_models_pp/lib_vision_models_pp/Src/pd_pp_model.c **** #include "pd_pp_loc.h"
  21:Lib/lib_vision_models_pp/lib_vision_models_pp/Src/pd_pp_model.c **** 
  22:Lib/lib_vision_models_pp/lib_vision_models_pp/Src/pd_pp_model.c **** 
  23:Lib/lib_vision_models_pp/lib_vision_models_pp/Src/pd_pp_model.c **** static int32_t pd_pp_nms_comparator(const void *arg1, const void *arg2)
  24:Lib/lib_vision_models_pp/lib_vision_models_pp/Src/pd_pp_model.c **** {
  34              		.loc 1 24 1 view -0
ARM GAS  /tmp/ccXOK4tq.s 			page 2


  35              		.cfi_startproc
  36              		@ args = 0, pretend = 0, frame = 0
  37              		@ frame_needed = 0, uses_anonymous_args = 0
  38              		@ link register save eliminated.
  25:Lib/lib_vision_models_pp/lib_vision_models_pp/Src/pd_pp_model.c ****   const pd_pp_box_t *box1 = arg1;
  39              		.loc 1 25 3 view .LVU1
  26:Lib/lib_vision_models_pp/lib_vision_models_pp/Src/pd_pp_model.c ****   const pd_pp_box_t *box2 = arg2;
  40              		.loc 1 26 3 view .LVU2
  27:Lib/lib_vision_models_pp/lib_vision_models_pp/Src/pd_pp_model.c **** 
  28:Lib/lib_vision_models_pp/lib_vision_models_pp/Src/pd_pp_model.c ****   if (box1->prob < box2->prob)
  41              		.loc 1 28 3 view .LVU3
  42              		.loc 1 28 11 is_stmt 0 view .LVU4
  43 0000 90ED007A 		vldr.32	s14, [r0]
  44              		.loc 1 28 24 view .LVU5
  45 0004 D1ED007A 		vldr.32	s15, [r1]
  46              		.loc 1 28 6 view .LVU6
  47 0008 B4EEE77A 		vcmpe.f32	s14, s15
  48 000c F1EE10FA 		vmrs	APSR_nzcv, FPSCR
  29:Lib/lib_vision_models_pp/lib_vision_models_pp/Src/pd_pp_model.c ****     return 1;
  30:Lib/lib_vision_models_pp/lib_vision_models_pp/Src/pd_pp_model.c **** 
  31:Lib/lib_vision_models_pp/lib_vision_models_pp/Src/pd_pp_model.c ****   if (box1->prob > box2->prob)
  49              		.loc 1 31 6 view .LVU7
  50 0010 B4EE677A 		vcmp.f32	s14, s15
  51 0014 CCBF     		ite	gt
  52 0016 4FF0FF30 		movgt	r0, #-1
  53              	.LVL1:
  54              		.loc 1 31 6 view .LVU8
  55 001a 0020     		movle	r0, #0
  56 001c F1EE10FA 		vmrs	APSR_nzcv, FPSCR
  32:Lib/lib_vision_models_pp/lib_vision_models_pp/Src/pd_pp_model.c ****     return -1;
  33:Lib/lib_vision_models_pp/lib_vision_models_pp/Src/pd_pp_model.c **** 
  34:Lib/lib_vision_models_pp/lib_vision_models_pp/Src/pd_pp_model.c ****   return 0;
  35:Lib/lib_vision_models_pp/lib_vision_models_pp/Src/pd_pp_model.c **** }
  57              		.loc 1 35 1 view .LVU9
  58 0020 48BF     		it	mi
  59 0022 0120     		movmi	r0, #1
  60 0024 7047     		bx	lr
  61              		.cfi_endproc
  62              	.LFE2645:
  64              		.section	.text.pd_pp_nms.isra.0,"ax",%progbits
  65              		.align	1
  66              		.syntax unified
  67              		.thumb
  68              		.thumb_func
  70              	pd_pp_nms.isra.0:
  71              	.LVL2:
  72              	.LFB2654:
  36:Lib/lib_vision_models_pp/lib_vision_models_pp/Src/pd_pp_model.c **** 
  37:Lib/lib_vision_models_pp/lib_vision_models_pp/Src/pd_pp_model.c **** static void pd_pp_compute_opposite_corners_from_box(pd_pp_box_t *box, pd_pp_point_t corners[2])
  38:Lib/lib_vision_models_pp/lib_vision_models_pp/Src/pd_pp_model.c **** {
  39:Lib/lib_vision_models_pp/lib_vision_models_pp/Src/pd_pp_model.c ****   corners[0].x = box->x_center - box->width / 2;
  40:Lib/lib_vision_models_pp/lib_vision_models_pp/Src/pd_pp_model.c ****   corners[0].y = box->y_center - box->height / 2;
  41:Lib/lib_vision_models_pp/lib_vision_models_pp/Src/pd_pp_model.c ****   corners[1].x = box->x_center + box->width / 2;
  42:Lib/lib_vision_models_pp/lib_vision_models_pp/Src/pd_pp_model.c ****   corners[1].y = box->y_center + box->height / 2;
  43:Lib/lib_vision_models_pp/lib_vision_models_pp/Src/pd_pp_model.c **** }
  44:Lib/lib_vision_models_pp/lib_vision_models_pp/Src/pd_pp_model.c **** 
  45:Lib/lib_vision_models_pp/lib_vision_models_pp/Src/pd_pp_model.c **** static float pd_pp_compute_iou(pd_pp_box_t *box0, pd_pp_box_t *box1)
ARM GAS  /tmp/ccXOK4tq.s 			page 3


  46:Lib/lib_vision_models_pp/lib_vision_models_pp/Src/pd_pp_model.c **** {
  47:Lib/lib_vision_models_pp/lib_vision_models_pp/Src/pd_pp_model.c ****   pd_pp_point_t corners[2][2];
  48:Lib/lib_vision_models_pp/lib_vision_models_pp/Src/pd_pp_model.c ****   float32_t intersect_xmin;
  49:Lib/lib_vision_models_pp/lib_vision_models_pp/Src/pd_pp_model.c ****   float32_t intersect_ymin;
  50:Lib/lib_vision_models_pp/lib_vision_models_pp/Src/pd_pp_model.c ****   float32_t intersect_xmax;
  51:Lib/lib_vision_models_pp/lib_vision_models_pp/Src/pd_pp_model.c ****   float32_t intersect_ymax;
  52:Lib/lib_vision_models_pp/lib_vision_models_pp/Src/pd_pp_model.c ****   float32_t intersect_area;
  53:Lib/lib_vision_models_pp/lib_vision_models_pp/Src/pd_pp_model.c ****   float32_t area[2];
  54:Lib/lib_vision_models_pp/lib_vision_models_pp/Src/pd_pp_model.c ****   float32_t xmin[2];
  55:Lib/lib_vision_models_pp/lib_vision_models_pp/Src/pd_pp_model.c ****   float32_t xmax[2];
  56:Lib/lib_vision_models_pp/lib_vision_models_pp/Src/pd_pp_model.c ****   float32_t ymin[2];
  57:Lib/lib_vision_models_pp/lib_vision_models_pp/Src/pd_pp_model.c ****   float32_t ymax[2];
  58:Lib/lib_vision_models_pp/lib_vision_models_pp/Src/pd_pp_model.c ****   int i;
  59:Lib/lib_vision_models_pp/lib_vision_models_pp/Src/pd_pp_model.c **** 
  60:Lib/lib_vision_models_pp/lib_vision_models_pp/Src/pd_pp_model.c ****   pd_pp_compute_opposite_corners_from_box(box0, corners[0]);
  61:Lib/lib_vision_models_pp/lib_vision_models_pp/Src/pd_pp_model.c ****   pd_pp_compute_opposite_corners_from_box(box1, corners[1]);
  62:Lib/lib_vision_models_pp/lib_vision_models_pp/Src/pd_pp_model.c **** 
  63:Lib/lib_vision_models_pp/lib_vision_models_pp/Src/pd_pp_model.c ****   for (i = 0; i < 2; i++) {
  64:Lib/lib_vision_models_pp/lib_vision_models_pp/Src/pd_pp_model.c ****     xmin[i] = MIN(corners[i][0].x, corners[i][1].x);
  65:Lib/lib_vision_models_pp/lib_vision_models_pp/Src/pd_pp_model.c ****     xmax[i] = MAX(corners[i][0].x, corners[i][1].x);
  66:Lib/lib_vision_models_pp/lib_vision_models_pp/Src/pd_pp_model.c ****     ymin[i] = MIN(corners[i][0].y, corners[i][1].y);
  67:Lib/lib_vision_models_pp/lib_vision_models_pp/Src/pd_pp_model.c ****     ymax[i] = MAX(corners[i][0].y, corners[i][1].y);
  68:Lib/lib_vision_models_pp/lib_vision_models_pp/Src/pd_pp_model.c ****   }
  69:Lib/lib_vision_models_pp/lib_vision_models_pp/Src/pd_pp_model.c **** 
  70:Lib/lib_vision_models_pp/lib_vision_models_pp/Src/pd_pp_model.c ****   for (i = 0; i < 2; i++) {
  71:Lib/lib_vision_models_pp/lib_vision_models_pp/Src/pd_pp_model.c ****     area[i] = (ymax[i] - ymin[i]) * (xmax[i] - xmin[i]);
  72:Lib/lib_vision_models_pp/lib_vision_models_pp/Src/pd_pp_model.c ****   }
  73:Lib/lib_vision_models_pp/lib_vision_models_pp/Src/pd_pp_model.c ****   if (area[0] <= 0 || area[1] <= 0)
  74:Lib/lib_vision_models_pp/lib_vision_models_pp/Src/pd_pp_model.c ****     return 0;
  75:Lib/lib_vision_models_pp/lib_vision_models_pp/Src/pd_pp_model.c **** 
  76:Lib/lib_vision_models_pp/lib_vision_models_pp/Src/pd_pp_model.c ****   intersect_xmin = MAX(xmin[0], xmin[1]);
  77:Lib/lib_vision_models_pp/lib_vision_models_pp/Src/pd_pp_model.c ****   intersect_ymin = MAX(ymin[0], ymin[1]);
  78:Lib/lib_vision_models_pp/lib_vision_models_pp/Src/pd_pp_model.c ****   intersect_xmax = MIN(xmax[0], xmax[1]);
  79:Lib/lib_vision_models_pp/lib_vision_models_pp/Src/pd_pp_model.c ****   intersect_ymax = MIN(ymax[0], ymax[1]);
  80:Lib/lib_vision_models_pp/lib_vision_models_pp/Src/pd_pp_model.c **** 
  81:Lib/lib_vision_models_pp/lib_vision_models_pp/Src/pd_pp_model.c ****   intersect_area = MAX(intersect_ymax - intersect_ymin, 0.0f) * MAX(intersect_xmax - intersect_xmin
  82:Lib/lib_vision_models_pp/lib_vision_models_pp/Src/pd_pp_model.c **** 
  83:Lib/lib_vision_models_pp/lib_vision_models_pp/Src/pd_pp_model.c ****   return intersect_area / (area[0] + area[1] - intersect_area);
  84:Lib/lib_vision_models_pp/lib_vision_models_pp/Src/pd_pp_model.c **** }
  85:Lib/lib_vision_models_pp/lib_vision_models_pp/Src/pd_pp_model.c **** static int32_t pd_pp_decode(pd_model_pp_in_t *pInput,
  86:Lib/lib_vision_models_pp/lib_vision_models_pp/Src/pd_pp_model.c ****                             pd_pp_out_t *pOutput,
  87:Lib/lib_vision_models_pp/lib_vision_models_pp/Src/pd_pp_model.c ****                             pd_model_pp_static_param_t *pInput_static_param) {
  88:Lib/lib_vision_models_pp/lib_vision_models_pp/Src/pd_pp_model.c **** 
  89:Lib/lib_vision_models_pp/lib_vision_models_pp/Src/pd_pp_model.c ****   pOutput->box_nb = 0;
  90:Lib/lib_vision_models_pp/lib_vision_models_pp/Src/pd_pp_model.c **** 
  91:Lib/lib_vision_models_pp/lib_vision_models_pp/Src/pd_pp_model.c ****   pd_pp_box_t *pBoxes = (pd_pp_box_t *)pOutput->pOutData;
  92:Lib/lib_vision_models_pp/lib_vision_models_pp/Src/pd_pp_model.c ****   float32_t width  = pInput_static_param->width;
  93:Lib/lib_vision_models_pp/lib_vision_models_pp/Src/pd_pp_model.c ****   float32_t height = pInput_static_param->height;
  94:Lib/lib_vision_models_pp/lib_vision_models_pp/Src/pd_pp_model.c ****   float32_t *pRawBoxes = (float32_t *)pInput->pBoxes;
  95:Lib/lib_vision_models_pp/lib_vision_models_pp/Src/pd_pp_model.c ****   float32_t *pRawProbs = (float32_t *)pInput->pProbs;
  96:Lib/lib_vision_models_pp/lib_vision_models_pp/Src/pd_pp_model.c ****   float32_t *pAnchors = (float32_t *)pInput_static_param->pAnchors;
  97:Lib/lib_vision_models_pp/lib_vision_models_pp/Src/pd_pp_model.c ****   const size_t in_struct_size = (2 * pInput_static_param->nb_keypoints) + AI_PD_MODEL_PP_KEYPOINTS;
  98:Lib/lib_vision_models_pp/lib_vision_models_pp/Src/pd_pp_model.c ****   size_t box_nb = 0;
  99:Lib/lib_vision_models_pp/lib_vision_models_pp/Src/pd_pp_model.c ****   float32_t computedThreshold = -logf( 1 / pInput_static_param->conf_threshold - 1);
 100:Lib/lib_vision_models_pp/lib_vision_models_pp/Src/pd_pp_model.c **** 
 101:Lib/lib_vision_models_pp/lib_vision_models_pp/Src/pd_pp_model.c ****   for (uint32_t i = 0; i < pInput_static_param->nb_total_boxes; i++) {
 102:Lib/lib_vision_models_pp/lib_vision_models_pp/Src/pd_pp_model.c ****     pd_pp_box_t *pBox = &pBoxes[box_nb]; //&pd_boxes[box_nb];
ARM GAS  /tmp/ccXOK4tq.s 			page 4


 103:Lib/lib_vision_models_pp/lib_vision_models_pp/Src/pd_pp_model.c **** 
 104:Lib/lib_vision_models_pp/lib_vision_models_pp/Src/pd_pp_model.c ****     /* decode prob */
 105:Lib/lib_vision_models_pp/lib_vision_models_pp/Src/pd_pp_model.c ****     if (pRawProbs[i] >= computedThreshold) {
 106:Lib/lib_vision_models_pp/lib_vision_models_pp/Src/pd_pp_model.c ****       pBox->prob = 1.0f / (1.0f + expf(-pRawProbs[i]));
 107:Lib/lib_vision_models_pp/lib_vision_models_pp/Src/pd_pp_model.c ****       /* decode palm box */
 108:Lib/lib_vision_models_pp/lib_vision_models_pp/Src/pd_pp_model.c ****       pBox->x_center = (pAnchors[i*2+0] * width  + pRawBoxes[i * in_struct_size + AI_PD_MODEL_PP_XC
 109:Lib/lib_vision_models_pp/lib_vision_models_pp/Src/pd_pp_model.c ****       pBox->y_center = (pAnchors[i*2+1] * height + pRawBoxes[i * in_struct_size + AI_PD_MODEL_PP_YC
 110:Lib/lib_vision_models_pp/lib_vision_models_pp/Src/pd_pp_model.c ****       pBox->width = pRawBoxes[i * in_struct_size + AI_PD_MODEL_PP_WIDTHREL]  / width;
 111:Lib/lib_vision_models_pp/lib_vision_models_pp/Src/pd_pp_model.c ****       pBox->height = pRawBoxes[i * in_struct_size + AI_PD_MODEL_PP_HEIGHTREL] / height;
 112:Lib/lib_vision_models_pp/lib_vision_models_pp/Src/pd_pp_model.c **** 
 113:Lib/lib_vision_models_pp/lib_vision_models_pp/Src/pd_pp_model.c ****       /* decode keypoints */
 114:Lib/lib_vision_models_pp/lib_vision_models_pp/Src/pd_pp_model.c ****       for (uint32_t j = 0; j < pInput_static_param->nb_keypoints; j++) {
 115:Lib/lib_vision_models_pp/lib_vision_models_pp/Src/pd_pp_model.c ****         pBox->pKps[j].x = (pAnchors[i*2+0] * width  + pRawBoxes[i * in_struct_size + AI_PD_MODEL_PP
 116:Lib/lib_vision_models_pp/lib_vision_models_pp/Src/pd_pp_model.c ****         pBox->pKps[j].y = (pAnchors[i*2+1] * height + pRawBoxes[i * in_struct_size + AI_PD_MODEL_PP
 117:Lib/lib_vision_models_pp/lib_vision_models_pp/Src/pd_pp_model.c ****      }
 118:Lib/lib_vision_models_pp/lib_vision_models_pp/Src/pd_pp_model.c **** 
 119:Lib/lib_vision_models_pp/lib_vision_models_pp/Src/pd_pp_model.c ****       box_nb++;
 120:Lib/lib_vision_models_pp/lib_vision_models_pp/Src/pd_pp_model.c ****       if (box_nb >= pInput_static_param->max_boxes_limit) {
 121:Lib/lib_vision_models_pp/lib_vision_models_pp/Src/pd_pp_model.c ****         break;
 122:Lib/lib_vision_models_pp/lib_vision_models_pp/Src/pd_pp_model.c ****       }
 123:Lib/lib_vision_models_pp/lib_vision_models_pp/Src/pd_pp_model.c ****     }
 124:Lib/lib_vision_models_pp/lib_vision_models_pp/Src/pd_pp_model.c ****   }
 125:Lib/lib_vision_models_pp/lib_vision_models_pp/Src/pd_pp_model.c **** 
 126:Lib/lib_vision_models_pp/lib_vision_models_pp/Src/pd_pp_model.c ****   pOutput->box_nb = box_nb;
 127:Lib/lib_vision_models_pp/lib_vision_models_pp/Src/pd_pp_model.c ****   return AI_PD_POSTPROCESS_ERROR_NO;
 128:Lib/lib_vision_models_pp/lib_vision_models_pp/Src/pd_pp_model.c **** }
 129:Lib/lib_vision_models_pp/lib_vision_models_pp/Src/pd_pp_model.c **** 
 130:Lib/lib_vision_models_pp/lib_vision_models_pp/Src/pd_pp_model.c **** static int32_t pd_pp_decode_int8(pd_model_pp_in_t *pInput,
 131:Lib/lib_vision_models_pp/lib_vision_models_pp/Src/pd_pp_model.c ****                             pd_pp_out_t *pOutput,
 132:Lib/lib_vision_models_pp/lib_vision_models_pp/Src/pd_pp_model.c ****                             pd_model_pp_static_param_t *pInput_static_param) {
 133:Lib/lib_vision_models_pp/lib_vision_models_pp/Src/pd_pp_model.c **** 
 134:Lib/lib_vision_models_pp/lib_vision_models_pp/Src/pd_pp_model.c ****   pOutput->box_nb = 0;
 135:Lib/lib_vision_models_pp/lib_vision_models_pp/Src/pd_pp_model.c **** 
 136:Lib/lib_vision_models_pp/lib_vision_models_pp/Src/pd_pp_model.c ****   pd_pp_box_t *pBoxes = (pd_pp_box_t *)pOutput->pOutData;
 137:Lib/lib_vision_models_pp/lib_vision_models_pp/Src/pd_pp_model.c ****   float32_t width  = pInput_static_param->width;
 138:Lib/lib_vision_models_pp/lib_vision_models_pp/Src/pd_pp_model.c ****   float32_t height = pInput_static_param->height;
 139:Lib/lib_vision_models_pp/lib_vision_models_pp/Src/pd_pp_model.c ****   int8_t *pRawBoxes = (int8_t *)pInput->pBoxes;
 140:Lib/lib_vision_models_pp/lib_vision_models_pp/Src/pd_pp_model.c ****   int8_t *pRawProbs = (int8_t *)pInput->pProbs;
 141:Lib/lib_vision_models_pp/lib_vision_models_pp/Src/pd_pp_model.c ****   float32_t *pAnchors  = (float32_t *)pInput_static_param->pAnchors;
 142:Lib/lib_vision_models_pp/lib_vision_models_pp/Src/pd_pp_model.c **** 
 143:Lib/lib_vision_models_pp/lib_vision_models_pp/Src/pd_pp_model.c ****   float32_t boxe_scale = pInput_static_param->boxe_scale;
 144:Lib/lib_vision_models_pp/lib_vision_models_pp/Src/pd_pp_model.c ****   float32_t proba_scale = pInput_static_param->proba_scale;
 145:Lib/lib_vision_models_pp/lib_vision_models_pp/Src/pd_pp_model.c ****   int8_t boxe_zp = pInput_static_param->boxe_zp;
 146:Lib/lib_vision_models_pp/lib_vision_models_pp/Src/pd_pp_model.c ****   int8_t proba_zp = pInput_static_param->proba_zp;
 147:Lib/lib_vision_models_pp/lib_vision_models_pp/Src/pd_pp_model.c **** 
 148:Lib/lib_vision_models_pp/lib_vision_models_pp/Src/pd_pp_model.c ****   const size_t in_struct_size = (2 * pInput_static_param->nb_keypoints) + AI_PD_MODEL_PP_KEYPOINTS;
 149:Lib/lib_vision_models_pp/lib_vision_models_pp/Src/pd_pp_model.c ****   size_t box_nb = 0;
 150:Lib/lib_vision_models_pp/lib_vision_models_pp/Src/pd_pp_model.c ****   float32_t computedThreshold = -logf( 1.0f / pInput_static_param->conf_threshold - 1);
 151:Lib/lib_vision_models_pp/lib_vision_models_pp/Src/pd_pp_model.c ****   int8_t threshold_s8  = (int8_t)(computedThreshold / proba_scale + 0.5 + proba_zp);
 152:Lib/lib_vision_models_pp/lib_vision_models_pp/Src/pd_pp_model.c **** 
 153:Lib/lib_vision_models_pp/lib_vision_models_pp/Src/pd_pp_model.c ****   for (uint32_t i = 0; i < pInput_static_param->nb_total_boxes; i++) {
 154:Lib/lib_vision_models_pp/lib_vision_models_pp/Src/pd_pp_model.c ****     pd_pp_box_t *pBox = &pBoxes[box_nb]; //&pd_boxes[box_nb];
 155:Lib/lib_vision_models_pp/lib_vision_models_pp/Src/pd_pp_model.c **** 
 156:Lib/lib_vision_models_pp/lib_vision_models_pp/Src/pd_pp_model.c ****     /* decode prob */
 157:Lib/lib_vision_models_pp/lib_vision_models_pp/Src/pd_pp_model.c ****     if (pRawProbs[i] >= threshold_s8) {
 158:Lib/lib_vision_models_pp/lib_vision_models_pp/Src/pd_pp_model.c ****       float32_t value = (float32_t)((int32_t)pRawProbs[i] - proba_zp) * proba_scale;
 159:Lib/lib_vision_models_pp/lib_vision_models_pp/Src/pd_pp_model.c ****       pBox->prob = 1.0f / (1.0f + expf(-value));
ARM GAS  /tmp/ccXOK4tq.s 			page 5


 160:Lib/lib_vision_models_pp/lib_vision_models_pp/Src/pd_pp_model.c ****       /* decode palm box */
 161:Lib/lib_vision_models_pp/lib_vision_models_pp/Src/pd_pp_model.c ****       float32_t anchor_x, anchor_y;
 162:Lib/lib_vision_models_pp/lib_vision_models_pp/Src/pd_pp_model.c **** 
 163:Lib/lib_vision_models_pp/lib_vision_models_pp/Src/pd_pp_model.c ****       value = (float32_t)((int32_t)pRawBoxes[i * in_struct_size + AI_PD_MODEL_PP_XCENTER] - boxe_zp
 164:Lib/lib_vision_models_pp/lib_vision_models_pp/Src/pd_pp_model.c ****       anchor_x = pAnchors[i*2+0];
 165:Lib/lib_vision_models_pp/lib_vision_models_pp/Src/pd_pp_model.c **** 
 166:Lib/lib_vision_models_pp/lib_vision_models_pp/Src/pd_pp_model.c ****       pBox->x_center = (anchor_x * width  + value) / width;
 167:Lib/lib_vision_models_pp/lib_vision_models_pp/Src/pd_pp_model.c **** 
 168:Lib/lib_vision_models_pp/lib_vision_models_pp/Src/pd_pp_model.c ****       value = (float32_t)((int32_t)pRawBoxes[i * in_struct_size + AI_PD_MODEL_PP_YCENTER] - boxe_zp
 169:Lib/lib_vision_models_pp/lib_vision_models_pp/Src/pd_pp_model.c ****       anchor_y = pAnchors[i*2+1];
 170:Lib/lib_vision_models_pp/lib_vision_models_pp/Src/pd_pp_model.c **** 
 171:Lib/lib_vision_models_pp/lib_vision_models_pp/Src/pd_pp_model.c ****       pBox->y_center = (anchor_y * height + value) / height;
 172:Lib/lib_vision_models_pp/lib_vision_models_pp/Src/pd_pp_model.c **** 
 173:Lib/lib_vision_models_pp/lib_vision_models_pp/Src/pd_pp_model.c ****       value = (float32_t)((int32_t)pRawBoxes[i * in_struct_size + AI_PD_MODEL_PP_WIDTHREL] - boxe_z
 174:Lib/lib_vision_models_pp/lib_vision_models_pp/Src/pd_pp_model.c ****       pBox->width = value  / width;
 175:Lib/lib_vision_models_pp/lib_vision_models_pp/Src/pd_pp_model.c **** 
 176:Lib/lib_vision_models_pp/lib_vision_models_pp/Src/pd_pp_model.c ****       value = (float32_t)((int32_t)pRawBoxes[i * in_struct_size + AI_PD_MODEL_PP_HEIGHTREL] - boxe_
 177:Lib/lib_vision_models_pp/lib_vision_models_pp/Src/pd_pp_model.c ****       pBox->height = value / height;
 178:Lib/lib_vision_models_pp/lib_vision_models_pp/Src/pd_pp_model.c **** 
 179:Lib/lib_vision_models_pp/lib_vision_models_pp/Src/pd_pp_model.c ****       /* decode keypoints */
 180:Lib/lib_vision_models_pp/lib_vision_models_pp/Src/pd_pp_model.c ****       for (uint32_t j = 0; j < pInput_static_param->nb_keypoints; j++) {
 181:Lib/lib_vision_models_pp/lib_vision_models_pp/Src/pd_pp_model.c ****         value = (float32_t)((int32_t)pRawBoxes[i * in_struct_size + AI_PD_MODEL_PP_KEYPOINTS + (2 *
 182:Lib/lib_vision_models_pp/lib_vision_models_pp/Src/pd_pp_model.c ****         pBox->pKps[j].x = (anchor_x * width  + value) / width;
 183:Lib/lib_vision_models_pp/lib_vision_models_pp/Src/pd_pp_model.c **** 
 184:Lib/lib_vision_models_pp/lib_vision_models_pp/Src/pd_pp_model.c ****         value = (float32_t)((int32_t)pRawBoxes[i * in_struct_size + AI_PD_MODEL_PP_KEYPOINTS + (2 *
 185:Lib/lib_vision_models_pp/lib_vision_models_pp/Src/pd_pp_model.c ****         pBox->pKps[j].y = (anchor_y * height + value) / height;
 186:Lib/lib_vision_models_pp/lib_vision_models_pp/Src/pd_pp_model.c ****       }
 187:Lib/lib_vision_models_pp/lib_vision_models_pp/Src/pd_pp_model.c **** 
 188:Lib/lib_vision_models_pp/lib_vision_models_pp/Src/pd_pp_model.c ****       box_nb++;
 189:Lib/lib_vision_models_pp/lib_vision_models_pp/Src/pd_pp_model.c ****       if (box_nb >= pInput_static_param->max_boxes_limit) {
 190:Lib/lib_vision_models_pp/lib_vision_models_pp/Src/pd_pp_model.c ****         break;
 191:Lib/lib_vision_models_pp/lib_vision_models_pp/Src/pd_pp_model.c ****       }
 192:Lib/lib_vision_models_pp/lib_vision_models_pp/Src/pd_pp_model.c ****     }
 193:Lib/lib_vision_models_pp/lib_vision_models_pp/Src/pd_pp_model.c ****   }
 194:Lib/lib_vision_models_pp/lib_vision_models_pp/Src/pd_pp_model.c **** 
 195:Lib/lib_vision_models_pp/lib_vision_models_pp/Src/pd_pp_model.c ****   pOutput->box_nb = box_nb;
 196:Lib/lib_vision_models_pp/lib_vision_models_pp/Src/pd_pp_model.c ****   return AI_PD_POSTPROCESS_ERROR_NO;
 197:Lib/lib_vision_models_pp/lib_vision_models_pp/Src/pd_pp_model.c **** }
 198:Lib/lib_vision_models_pp/lib_vision_models_pp/Src/pd_pp_model.c **** 
 199:Lib/lib_vision_models_pp/lib_vision_models_pp/Src/pd_pp_model.c **** static int pd_pp_nms(pd_pp_out_t *pOutput,
  73              		.loc 1 199 12 is_stmt 1 view -0
  74              		.cfi_startproc
  75              		@ args = 0, pretend = 0, frame = 64
  76              		@ frame_needed = 0, uses_anonymous_args = 0
 200:Lib/lib_vision_models_pp/lib_vision_models_pp/Src/pd_pp_model.c ****                      pd_model_pp_static_param_t *pInput_static_param)
 201:Lib/lib_vision_models_pp/lib_vision_models_pp/Src/pd_pp_model.c **** {
 202:Lib/lib_vision_models_pp/lib_vision_models_pp/Src/pd_pp_model.c ****   int hand_nb = 0;
  77              		.loc 1 202 3 view .LVU11
 203:Lib/lib_vision_models_pp/lib_vision_models_pp/Src/pd_pp_model.c ****   int skip_box;
  78              		.loc 1 203 3 view .LVU12
 204:Lib/lib_vision_models_pp/lib_vision_models_pp/Src/pd_pp_model.c ****   float iou;
  79              		.loc 1 204 3 view .LVU13
 205:Lib/lib_vision_models_pp/lib_vision_models_pp/Src/pd_pp_model.c ****   pd_pp_box_t *pd_boxes = (pd_pp_box_t *)pOutput->pOutData;
  80              		.loc 1 205 3 view .LVU14
 199:Lib/lib_vision_models_pp/lib_vision_models_pp/Src/pd_pp_model.c ****                      pd_model_pp_static_param_t *pInput_static_param)
  81              		.loc 1 199 12 is_stmt 0 view .LVU15
  82 0000 2DE9F047 		push	{r4, r5, r6, r7, r8, r9, r10, lr}
ARM GAS  /tmp/ccXOK4tq.s 			page 6


  83              		.cfi_def_cfa_offset 32
  84              		.cfi_offset 4, -32
  85              		.cfi_offset 5, -28
  86              		.cfi_offset 6, -24
  87              		.cfi_offset 7, -20
  88              		.cfi_offset 8, -16
  89              		.cfi_offset 9, -12
  90              		.cfi_offset 10, -8
  91              		.cfi_offset 14, -4
 206:Lib/lib_vision_models_pp/lib_vision_models_pp/Src/pd_pp_model.c ****   size_t box_nb =  pOutput->box_nb;
  92              		.loc 1 206 10 view .LVU16
  93 0004 D0E90074 		ldrd	r7, r4, [r0]
  94              	.LVL3:
 207:Lib/lib_vision_models_pp/lib_vision_models_pp/Src/pd_pp_model.c **** 
 208:Lib/lib_vision_models_pp/lib_vision_models_pp/Src/pd_pp_model.c ****   /* first sort boxes by higher probability */
 209:Lib/lib_vision_models_pp/lib_vision_models_pp/Src/pd_pp_model.c ****   qsort(pd_boxes, box_nb, sizeof(pd_pp_box_t), pd_pp_nms_comparator);
  95              		.loc 1 209 3 is_stmt 1 view .LVU17
  96 0008 824B     		ldr	r3, .L46
 199:Lib/lib_vision_models_pp/lib_vision_models_pp/Src/pd_pp_model.c ****                      pd_model_pp_static_param_t *pInput_static_param)
  97              		.loc 1 199 12 is_stmt 0 view .LVU18
  98 000a 8846     		mov	r8, r1
  99              		.loc 1 209 3 view .LVU19
 100 000c 1822     		movs	r2, #24
 101 000e 2146     		mov	r1, r4
 102              	.LVL4:
 103              		.loc 1 209 3 view .LVU20
 104 0010 3846     		mov	r0, r7
 105              	.LVL5:
 199:Lib/lib_vision_models_pp/lib_vision_models_pp/Src/pd_pp_model.c ****                      pd_model_pp_static_param_t *pInput_static_param)
 106              		.loc 1 199 12 view .LVU21
 107 0012 90B0     		sub	sp, sp, #64
 108              		.cfi_def_cfa_offset 96
 109              		.loc 1 209 3 view .LVU22
 110 0014 FFF7FEFF 		bl	qsort
 111              	.LVL6:
 210:Lib/lib_vision_models_pp/lib_vision_models_pp/Src/pd_pp_model.c **** 
 211:Lib/lib_vision_models_pp/lib_vision_models_pp/Src/pd_pp_model.c ****   /* then apply iou to filter them */
 212:Lib/lib_vision_models_pp/lib_vision_models_pp/Src/pd_pp_model.c ****   for (size_t i = 0; i < box_nb; i++) {
 112              		.loc 1 212 3 is_stmt 1 view .LVU23
 113              	.LBB12:
 114              		.loc 1 212 8 view .LVU24
 115              		.loc 1 212 8 is_stmt 0 view .LVU25
 116 0018 1823     		movs	r3, #24
 117              		.loc 1 212 3 view .LVU26
 118 001a 3E46     		mov	r6, r7
 119              	.LBE12:
 202:Lib/lib_vision_models_pp/lib_vision_models_pp/Src/pd_pp_model.c ****   int skip_box;
 120              		.loc 1 202 7 view .LVU27
 121 001c 4FF0000C 		mov	ip, #0
 122              	.LBB47:
 123              	.LBB13:
 124              	.LBB14:
 125              	.LBB15:
 126              	.LBB16:
 127              	.LBB17:
  39:Lib/lib_vision_models_pp/lib_vision_models_pp/Src/pd_pp_model.c ****   corners[0].y = box->y_center - box->height / 2;
 128              		.loc 1 39 32 view .LVU28
ARM GAS  /tmp/ccXOK4tq.s 			page 7


 129 0020 F6EE006A 		vmov.f32	s13, #5.0e-1
 130              	.LBE17:
 131              	.LBE16:
  74:Lib/lib_vision_models_pp/lib_vision_models_pp/Src/pd_pp_model.c **** 
 132              		.loc 1 74 12 view .LVU29
 133 0024 9FED7C4A 		vldr.32	s8, .L46+4
 134 0028 03FB047E 		mla	lr, r3, r4, r7
 135              	.LVL7:
 136              	.L5:
  74:Lib/lib_vision_models_pp/lib_vision_models_pp/Src/pd_pp_model.c **** 
 137              		.loc 1 74 12 view .LVU30
 138              	.LBE15:
 139              	.LBE14:
 140              	.LBE13:
 141              		.loc 1 212 24 is_stmt 1 discriminator 1 view .LVU31
 142 002c 7645     		cmp	r6, lr
 143 002e 40F0EE80 		bne	.L35
 144              	.LBE47:
 213:Lib/lib_vision_models_pp/lib_vision_models_pp/Src/pd_pp_model.c ****     skip_box = 0;
 214:Lib/lib_vision_models_pp/lib_vision_models_pp/Src/pd_pp_model.c ****     for (int j = 0; j < hand_nb; j++) {
 215:Lib/lib_vision_models_pp/lib_vision_models_pp/Src/pd_pp_model.c ****       iou = pd_pp_compute_iou(&pd_boxes[i], &pd_boxes[j]);
 216:Lib/lib_vision_models_pp/lib_vision_models_pp/Src/pd_pp_model.c ****       if (iou >= pInput_static_param->iou_threshold) {
 217:Lib/lib_vision_models_pp/lib_vision_models_pp/Src/pd_pp_model.c ****         skip_box = 1;
 218:Lib/lib_vision_models_pp/lib_vision_models_pp/Src/pd_pp_model.c ****         break;
 219:Lib/lib_vision_models_pp/lib_vision_models_pp/Src/pd_pp_model.c ****       }
 220:Lib/lib_vision_models_pp/lib_vision_models_pp/Src/pd_pp_model.c ****     }
 221:Lib/lib_vision_models_pp/lib_vision_models_pp/Src/pd_pp_model.c ****     if (skip_box)
 222:Lib/lib_vision_models_pp/lib_vision_models_pp/Src/pd_pp_model.c ****       continue;
 223:Lib/lib_vision_models_pp/lib_vision_models_pp/Src/pd_pp_model.c **** 
 224:Lib/lib_vision_models_pp/lib_vision_models_pp/Src/pd_pp_model.c ****     pd_boxes[hand_nb++] = pd_boxes[i];
 225:Lib/lib_vision_models_pp/lib_vision_models_pp/Src/pd_pp_model.c ****   }
 226:Lib/lib_vision_models_pp/lib_vision_models_pp/Src/pd_pp_model.c **** 
 227:Lib/lib_vision_models_pp/lib_vision_models_pp/Src/pd_pp_model.c ****   return hand_nb;
 228:Lib/lib_vision_models_pp/lib_vision_models_pp/Src/pd_pp_model.c **** }
 145              		.loc 1 228 1 is_stmt 0 view .LVU32
 146 0032 10B0     		add	sp, sp, #64
 147              		.cfi_remember_state
 148              		.cfi_def_cfa_offset 32
 149              		@ sp needed
 150 0034 BDE8F087 		pop	{r4, r5, r6, r7, r8, r9, r10, pc}
 151              	.LVL8:
 152              	.L27:
 153              		.cfi_restore_state
 154              	.LBB48:
 155              	.LBB44:
 215:Lib/lib_vision_models_pp/lib_vision_models_pp/Src/pd_pp_model.c ****       if (iou >= pInput_static_param->iou_threshold) {
 156              		.loc 1 215 7 is_stmt 1 view .LVU33
 157              	.LBB42:
 158              	.LBI14:
  45:Lib/lib_vision_models_pp/lib_vision_models_pp/Src/pd_pp_model.c **** {
 159              		.loc 1 45 14 view .LVU34
 160              	.LBB40:
  47:Lib/lib_vision_models_pp/lib_vision_models_pp/Src/pd_pp_model.c ****   float32_t intersect_xmin;
 161              		.loc 1 47 3 view .LVU35
  48:Lib/lib_vision_models_pp/lib_vision_models_pp/Src/pd_pp_model.c ****   float32_t intersect_ymin;
 162              		.loc 1 48 3 view .LVU36
  49:Lib/lib_vision_models_pp/lib_vision_models_pp/Src/pd_pp_model.c ****   float32_t intersect_xmax;
ARM GAS  /tmp/ccXOK4tq.s 			page 8


 163              		.loc 1 49 3 view .LVU37
  50:Lib/lib_vision_models_pp/lib_vision_models_pp/Src/pd_pp_model.c ****   float32_t intersect_ymax;
 164              		.loc 1 50 3 view .LVU38
  51:Lib/lib_vision_models_pp/lib_vision_models_pp/Src/pd_pp_model.c ****   float32_t intersect_area;
 165              		.loc 1 51 3 view .LVU39
  52:Lib/lib_vision_models_pp/lib_vision_models_pp/Src/pd_pp_model.c ****   float32_t area[2];
 166              		.loc 1 52 3 view .LVU40
  53:Lib/lib_vision_models_pp/lib_vision_models_pp/Src/pd_pp_model.c ****   float32_t xmin[2];
 167              		.loc 1 53 3 view .LVU41
  54:Lib/lib_vision_models_pp/lib_vision_models_pp/Src/pd_pp_model.c ****   float32_t xmax[2];
 168              		.loc 1 54 3 view .LVU42
  55:Lib/lib_vision_models_pp/lib_vision_models_pp/Src/pd_pp_model.c ****   float32_t ymin[2];
 169              		.loc 1 55 3 view .LVU43
  56:Lib/lib_vision_models_pp/lib_vision_models_pp/Src/pd_pp_model.c ****   float32_t ymax[2];
 170              		.loc 1 56 3 view .LVU44
  57:Lib/lib_vision_models_pp/lib_vision_models_pp/Src/pd_pp_model.c ****   int i;
 171              		.loc 1 57 3 view .LVU45
  58:Lib/lib_vision_models_pp/lib_vision_models_pp/Src/pd_pp_model.c **** 
 172              		.loc 1 58 3 view .LVU46
  60:Lib/lib_vision_models_pp/lib_vision_models_pp/Src/pd_pp_model.c ****   pd_pp_compute_opposite_corners_from_box(box1, corners[1]);
 173              		.loc 1 60 3 view .LVU47
 174              	.LBB23:
 175              	.LBI16:
  37:Lib/lib_vision_models_pp/lib_vision_models_pp/Src/pd_pp_model.c **** {
 176              		.loc 1 37 13 view .LVU48
 177              	.LBB18:
  39:Lib/lib_vision_models_pp/lib_vision_models_pp/Src/pd_pp_model.c ****   corners[0].y = box->y_center - box->height / 2;
 178              		.loc 1 39 3 view .LVU49
  39:Lib/lib_vision_models_pp/lib_vision_models_pp/Src/pd_pp_model.c ****   corners[0].y = box->y_center - box->height / 2;
 179              		.loc 1 39 21 is_stmt 0 view .LVU50
 180 0038 96ED017A 		vldr.32	s14, [r6, #4]
  39:Lib/lib_vision_models_pp/lib_vision_models_pp/Src/pd_pp_model.c ****   corners[0].y = box->y_center - box->height / 2;
 181              		.loc 1 39 37 view .LVU51
 182 003c D6ED035A 		vldr.32	s11, [r6, #12]
  39:Lib/lib_vision_models_pp/lib_vision_models_pp/Src/pd_pp_model.c ****   corners[0].y = box->y_center - box->height / 2;
 183              		.loc 1 39 32 view .LVU52
 184 0040 F0EE477A 		vmov.f32	s15, s14
 185 0044 E5EEE67A 		vfms.f32	s15, s11, s13
  40:Lib/lib_vision_models_pp/lib_vision_models_pp/Src/pd_pp_model.c ****   corners[1].x = box->x_center + box->width / 2;
 186              		.loc 1 40 37 view .LVU53
 187 0048 96ED046A 		vldr.32	s12, [r6, #16]
  41:Lib/lib_vision_models_pp/lib_vision_models_pp/Src/pd_pp_model.c ****   corners[1].y = box->y_center + box->height / 2;
 188              		.loc 1 41 32 view .LVU54
 189 004c A5EEA67A 		vfma.f32	s14, s11, s13
  39:Lib/lib_vision_models_pp/lib_vision_models_pp/Src/pd_pp_model.c ****   corners[0].y = box->y_center - box->height / 2;
 190              		.loc 1 39 16 view .LVU55
 191 0050 CDED087A 		vstr.32	s15, [sp, #32]
  40:Lib/lib_vision_models_pp/lib_vision_models_pp/Src/pd_pp_model.c ****   corners[1].x = box->x_center + box->width / 2;
 192              		.loc 1 40 3 is_stmt 1 view .LVU56
  40:Lib/lib_vision_models_pp/lib_vision_models_pp/Src/pd_pp_model.c ****   corners[1].x = box->x_center + box->width / 2;
 193              		.loc 1 40 21 is_stmt 0 view .LVU57
 194 0054 D6ED027A 		vldr.32	s15, [r6, #8]
  41:Lib/lib_vision_models_pp/lib_vision_models_pp/Src/pd_pp_model.c ****   corners[1].y = box->y_center + box->height / 2;
 195              		.loc 1 41 16 view .LVU58
 196 0058 8DED0A7A 		vstr.32	s14, [sp, #40]
  40:Lib/lib_vision_models_pp/lib_vision_models_pp/Src/pd_pp_model.c ****   corners[1].x = box->x_center + box->width / 2;
 197              		.loc 1 40 32 view .LVU59
ARM GAS  /tmp/ccXOK4tq.s 			page 9


 198 005c B0EE675A 		vmov.f32	s10, s15
 199              	.LBE18:
 200              	.LBE23:
 201              	.LBB24:
 202              	.LBB25:
  39:Lib/lib_vision_models_pp/lib_vision_models_pp/Src/pd_pp_model.c ****   corners[0].y = box->y_center - box->height / 2;
 203              		.loc 1 39 21 view .LVU60
 204 0060 93ED017A 		vldr.32	s14, [r3, #4]
 205              	.LBE25:
 206              	.LBE24:
 207              	.LBB31:
 208              	.LBB19:
  42:Lib/lib_vision_models_pp/lib_vision_models_pp/Src/pd_pp_model.c **** }
 209              		.loc 1 42 32 view .LVU61
 210 0064 E6EE267A 		vfma.f32	s15, s12, s13
 211              	.LBE19:
 212              	.LBE31:
 213              	.LBB32:
 214              	.LBB26:
  39:Lib/lib_vision_models_pp/lib_vision_models_pp/Src/pd_pp_model.c ****   corners[0].y = box->y_center - box->height / 2;
 215              		.loc 1 39 37 view .LVU62
 216 0068 D3ED035A 		vldr.32	s11, [r3, #12]
 217              	.LBE26:
 218              	.LBE32:
 219              	.LBB33:
 220              	.LBB20:
  42:Lib/lib_vision_models_pp/lib_vision_models_pp/Src/pd_pp_model.c **** }
 221              		.loc 1 42 16 view .LVU63
 222 006c CDED0B7A 		vstr.32	s15, [sp, #44]
 223              	.LBE20:
 224              	.LBE33:
 225              	.LBB34:
 226              	.LBB27:
  39:Lib/lib_vision_models_pp/lib_vision_models_pp/Src/pd_pp_model.c ****   corners[0].y = box->y_center - box->height / 2;
 227              		.loc 1 39 32 view .LVU64
 228 0070 F0EE477A 		vmov.f32	s15, s14
 229 0074 E5EEE67A 		vfms.f32	s15, s11, s13
 230              	.LBE27:
 231              	.LBE34:
 232              	.LBB35:
 233              	.LBB21:
  40:Lib/lib_vision_models_pp/lib_vision_models_pp/Src/pd_pp_model.c ****   corners[1].x = box->x_center + box->width / 2;
 234              		.loc 1 40 32 view .LVU65
 235 0078 A6EE665A 		vfms.f32	s10, s12, s13
 236              	.LBE21:
 237              	.LBE35:
 238              	.LBB36:
 239              	.LBB28:
  39:Lib/lib_vision_models_pp/lib_vision_models_pp/Src/pd_pp_model.c ****   corners[0].y = box->y_center - box->height / 2;
 240              		.loc 1 39 16 view .LVU66
 241 007c CDED0C7A 		vstr.32	s15, [sp, #48]
  40:Lib/lib_vision_models_pp/lib_vision_models_pp/Src/pd_pp_model.c ****   corners[1].x = box->x_center + box->width / 2;
 242              		.loc 1 40 21 view .LVU67
 243 0080 D3ED027A 		vldr.32	s15, [r3, #8]
  40:Lib/lib_vision_models_pp/lib_vision_models_pp/Src/pd_pp_model.c ****   corners[1].x = box->x_center + box->width / 2;
 244              		.loc 1 40 37 view .LVU68
 245 0084 93ED046A 		vldr.32	s12, [r3, #16]
ARM GAS  /tmp/ccXOK4tq.s 			page 10


 246              	.LBE28:
 247              	.LBE36:
 248              	.LBB37:
 249              	.LBB22:
  40:Lib/lib_vision_models_pp/lib_vision_models_pp/Src/pd_pp_model.c ****   corners[1].x = box->x_center + box->width / 2;
 250              		.loc 1 40 16 view .LVU69
 251 0088 8DED095A 		vstr.32	s10, [sp, #36]
  41:Lib/lib_vision_models_pp/lib_vision_models_pp/Src/pd_pp_model.c ****   corners[1].y = box->y_center + box->height / 2;
 252              		.loc 1 41 3 is_stmt 1 view .LVU70
  42:Lib/lib_vision_models_pp/lib_vision_models_pp/Src/pd_pp_model.c **** }
 253              		.loc 1 42 3 view .LVU71
 254              	.LVL9:
  42:Lib/lib_vision_models_pp/lib_vision_models_pp/Src/pd_pp_model.c **** }
 255              		.loc 1 42 3 is_stmt 0 view .LVU72
 256              	.LBE22:
 257              	.LBE37:
  61:Lib/lib_vision_models_pp/lib_vision_models_pp/Src/pd_pp_model.c **** 
 258              		.loc 1 61 3 is_stmt 1 view .LVU73
 259              	.LBB38:
 260              	.LBI24:
  37:Lib/lib_vision_models_pp/lib_vision_models_pp/Src/pd_pp_model.c **** {
 261              		.loc 1 37 13 view .LVU74
 262              	.LBB29:
  39:Lib/lib_vision_models_pp/lib_vision_models_pp/Src/pd_pp_model.c ****   corners[0].y = box->y_center - box->height / 2;
 263              		.loc 1 39 3 view .LVU75
  40:Lib/lib_vision_models_pp/lib_vision_models_pp/Src/pd_pp_model.c ****   corners[1].x = box->x_center + box->width / 2;
 264              		.loc 1 40 3 view .LVU76
  40:Lib/lib_vision_models_pp/lib_vision_models_pp/Src/pd_pp_model.c ****   corners[1].x = box->x_center + box->width / 2;
 265              		.loc 1 40 32 is_stmt 0 view .LVU77
 266 008c B0EE675A 		vmov.f32	s10, s15
  41:Lib/lib_vision_models_pp/lib_vision_models_pp/Src/pd_pp_model.c ****   corners[1].y = box->y_center + box->height / 2;
 267              		.loc 1 41 32 view .LVU78
 268 0090 A5EEA67A 		vfma.f32	s14, s11, s13
  40:Lib/lib_vision_models_pp/lib_vision_models_pp/Src/pd_pp_model.c ****   corners[1].x = box->x_center + box->width / 2;
 269              		.loc 1 40 32 view .LVU79
 270 0094 A6EE665A 		vfms.f32	s10, s12, s13
  42:Lib/lib_vision_models_pp/lib_vision_models_pp/Src/pd_pp_model.c **** }
 271              		.loc 1 42 32 view .LVU80
 272 0098 E6EE267A 		vfma.f32	s15, s12, s13
  40:Lib/lib_vision_models_pp/lib_vision_models_pp/Src/pd_pp_model.c ****   corners[1].x = box->x_center + box->width / 2;
 273              		.loc 1 40 16 view .LVU81
 274 009c 8DED0D5A 		vstr.32	s10, [sp, #52]
  41:Lib/lib_vision_models_pp/lib_vision_models_pp/Src/pd_pp_model.c ****   corners[1].y = box->y_center + box->height / 2;
 275              		.loc 1 41 3 is_stmt 1 view .LVU82
  41:Lib/lib_vision_models_pp/lib_vision_models_pp/Src/pd_pp_model.c ****   corners[1].y = box->y_center + box->height / 2;
 276              		.loc 1 41 16 is_stmt 0 view .LVU83
 277 00a0 8DED0E7A 		vstr.32	s14, [sp, #56]
  42:Lib/lib_vision_models_pp/lib_vision_models_pp/Src/pd_pp_model.c **** }
 278              		.loc 1 42 3 is_stmt 1 view .LVU84
  42:Lib/lib_vision_models_pp/lib_vision_models_pp/Src/pd_pp_model.c **** }
 279              		.loc 1 42 16 is_stmt 0 view .LVU85
 280 00a4 CDED0F7A 		vstr.32	s15, [sp, #60]
 281              	.LVL10:
  42:Lib/lib_vision_models_pp/lib_vision_models_pp/Src/pd_pp_model.c **** }
 282              		.loc 1 42 16 view .LVU86
 283              	.LBE29:
 284              	.LBE38:
ARM GAS  /tmp/ccXOK4tq.s 			page 11


  63:Lib/lib_vision_models_pp/lib_vision_models_pp/Src/pd_pp_model.c ****     xmin[i] = MIN(corners[i][0].x, corners[i][1].x);
 285              		.loc 1 63 3 is_stmt 1 view .LVU87
  63:Lib/lib_vision_models_pp/lib_vision_models_pp/Src/pd_pp_model.c ****     xmin[i] = MIN(corners[i][0].x, corners[i][1].x);
 286              		.loc 1 63 17 discriminator 1 view .LVU88
 287 00a8 EA46     		mov	r10, sp
 288              	.LBB39:
 289              	.LBB30:
  42:Lib/lib_vision_models_pp/lib_vision_models_pp/Src/pd_pp_model.c **** }
 290              		.loc 1 42 16 is_stmt 0 view .LVU89
 291 00aa 0220     		movs	r0, #2
 292 00ac 08AA     		add	r2, sp, #32
 293 00ae 06AC     		add	r4, sp, #24
 294 00b0 04AD     		add	r5, sp, #16
 295 00b2 0DF10809 		add	r9, sp, #8
 296              	.LVL11:
 297              	.L14:
  42:Lib/lib_vision_models_pp/lib_vision_models_pp/Src/pd_pp_model.c **** }
 298              		.loc 1 42 16 view .LVU90
 299              	.LBE30:
 300              	.LBE39:
  64:Lib/lib_vision_models_pp/lib_vision_models_pp/Src/pd_pp_model.c ****     xmax[i] = MAX(corners[i][0].x, corners[i][1].x);
 301              		.loc 1 64 5 is_stmt 1 view .LVU91
  64:Lib/lib_vision_models_pp/lib_vision_models_pp/Src/pd_pp_model.c ****     xmax[i] = MAX(corners[i][0].x, corners[i][1].x);
 302              		.loc 1 64 15 is_stmt 0 view .LVU92
 303 00b6 92ED007A 		vldr.32	s14, [r2]
 304 00ba D2ED027A 		vldr.32	s15, [r2, #8]
  64:Lib/lib_vision_models_pp/lib_vision_models_pp/Src/pd_pp_model.c ****     xmax[i] = MAX(corners[i][0].x, corners[i][1].x);
 305              		.loc 1 64 15 discriminator 2 view .LVU93
 306 00be B4EEE77A 		vcmpe.f32	s14, s15
 307 00c2 F1EE10FA 		vmrs	APSR_nzcv, FPSCR
  65:Lib/lib_vision_models_pp/lib_vision_models_pp/Src/pd_pp_model.c ****     ymin[i] = MIN(corners[i][0].y, corners[i][1].y);
 308              		.loc 1 65 15 discriminator 1 view .LVU94
 309 00c6 B4EE677A 		vcmp.f32	s14, s15
  64:Lib/lib_vision_models_pp/lib_vision_models_pp/Src/pd_pp_model.c ****     xmax[i] = MAX(corners[i][0].x, corners[i][1].x);
 310              		.loc 1 64 15 discriminator 2 view .LVU95
 311 00ca 54BF     		ite	pl
 312 00cc B0EE676A 		vmovpl.f32	s12, s15
 313 00d0 B0EE476A 		vmovmi.f32	s12, s14
  65:Lib/lib_vision_models_pp/lib_vision_models_pp/Src/pd_pp_model.c ****     ymin[i] = MIN(corners[i][0].y, corners[i][1].y);
 314              		.loc 1 65 15 discriminator 1 view .LVU96
 315 00d4 F1EE10FA 		vmrs	APSR_nzcv, FPSCR
 316 00d8 77FE277A 		vselgt.f32	s15, s14, s15
  65:Lib/lib_vision_models_pp/lib_vision_models_pp/Src/pd_pp_model.c ****     ymin[i] = MIN(corners[i][0].y, corners[i][1].y);
 317              		.loc 1 65 13 discriminator 4 view .LVU97
 318 00dc E9EC017A 		vstmia.32	r9!, {s15}
  66:Lib/lib_vision_models_pp/lib_vision_models_pp/Src/pd_pp_model.c ****     ymax[i] = MAX(corners[i][0].y, corners[i][1].y);
 319              		.loc 1 66 15 view .LVU98
 320 00e0 92ED017A 		vldr.32	s14, [r2, #4]
 321 00e4 D2ED037A 		vldr.32	s15, [r2, #12]
  66:Lib/lib_vision_models_pp/lib_vision_models_pp/Src/pd_pp_model.c ****     ymax[i] = MAX(corners[i][0].y, corners[i][1].y);
 322              		.loc 1 66 15 discriminator 2 view .LVU99
 323 00e8 B4EEE77A 		vcmpe.f32	s14, s15
 324 00ec F1EE10FA 		vmrs	APSR_nzcv, FPSCR
  67:Lib/lib_vision_models_pp/lib_vision_models_pp/Src/pd_pp_model.c ****   }
 325              		.loc 1 67 15 discriminator 1 view .LVU100
 326 00f0 B4EE677A 		vcmp.f32	s14, s15
  64:Lib/lib_vision_models_pp/lib_vision_models_pp/Src/pd_pp_model.c ****     xmax[i] = MAX(corners[i][0].x, corners[i][1].x);
ARM GAS  /tmp/ccXOK4tq.s 			page 12


 327              		.loc 1 64 13 discriminator 4 view .LVU101
 328 00f4 AAEC016A 		vstmia.32	r10!, {s12}
  65:Lib/lib_vision_models_pp/lib_vision_models_pp/Src/pd_pp_model.c ****     ymin[i] = MIN(corners[i][0].y, corners[i][1].y);
 329              		.loc 1 65 5 is_stmt 1 view .LVU102
  66:Lib/lib_vision_models_pp/lib_vision_models_pp/Src/pd_pp_model.c ****     ymax[i] = MAX(corners[i][0].y, corners[i][1].y);
 330              		.loc 1 66 5 view .LVU103
  66:Lib/lib_vision_models_pp/lib_vision_models_pp/Src/pd_pp_model.c ****     ymax[i] = MAX(corners[i][0].y, corners[i][1].y);
 331              		.loc 1 66 15 is_stmt 0 discriminator 2 view .LVU104
 332 00f8 54BF     		ite	pl
 333 00fa B0EE676A 		vmovpl.f32	s12, s15
 334 00fe B0EE476A 		vmovmi.f32	s12, s14
  67:Lib/lib_vision_models_pp/lib_vision_models_pp/Src/pd_pp_model.c ****   }
 335              		.loc 1 67 15 discriminator 1 view .LVU105
 336 0102 F1EE10FA 		vmrs	APSR_nzcv, FPSCR
 337 0106 77FE277A 		vselgt.f32	s15, s14, s15
  63:Lib/lib_vision_models_pp/lib_vision_models_pp/Src/pd_pp_model.c ****     xmin[i] = MIN(corners[i][0].x, corners[i][1].x);
 338              		.loc 1 63 17 discriminator 1 view .LVU106
 339 010a 0128     		cmp	r0, #1
  66:Lib/lib_vision_models_pp/lib_vision_models_pp/Src/pd_pp_model.c ****     ymax[i] = MAX(corners[i][0].y, corners[i][1].y);
 340              		.loc 1 66 13 discriminator 4 view .LVU107
 341 010c A5EC016A 		vstmia.32	r5!, {s12}
  67:Lib/lib_vision_models_pp/lib_vision_models_pp/Src/pd_pp_model.c ****   }
 342              		.loc 1 67 5 is_stmt 1 view .LVU108
  67:Lib/lib_vision_models_pp/lib_vision_models_pp/Src/pd_pp_model.c ****   }
 343              		.loc 1 67 13 is_stmt 0 discriminator 4 view .LVU109
 344 0110 E4EC017A 		vstmia.32	r4!, {s15}
  63:Lib/lib_vision_models_pp/lib_vision_models_pp/Src/pd_pp_model.c ****     xmin[i] = MIN(corners[i][0].x, corners[i][1].x);
 345              		.loc 1 63 23 is_stmt 1 discriminator 2 view .LVU110
 346              	.LVL12:
  63:Lib/lib_vision_models_pp/lib_vision_models_pp/Src/pd_pp_model.c ****     xmin[i] = MIN(corners[i][0].x, corners[i][1].x);
 347              		.loc 1 63 17 discriminator 1 view .LVU111
 348 0114 02F11002 		add	r2, r2, #16
 349 0118 74D1     		bne	.L32
 350              	.LVL13:
  70:Lib/lib_vision_models_pp/lib_vision_models_pp/Src/pd_pp_model.c ****     area[i] = (ymax[i] - ymin[i]) * (xmax[i] - xmin[i]);
 351              		.loc 1 70 17 discriminator 1 view .LVU112
  71:Lib/lib_vision_models_pp/lib_vision_models_pp/Src/pd_pp_model.c ****   }
 352              		.loc 1 71 5 view .LVU113
  71:Lib/lib_vision_models_pp/lib_vision_models_pp/Src/pd_pp_model.c ****   }
 353              		.loc 1 71 20 is_stmt 0 view .LVU114
 354 011a DDED063A 		vldr.32	s7, [sp, #24]
  71:Lib/lib_vision_models_pp/lib_vision_models_pp/Src/pd_pp_model.c ****   }
 355              		.loc 1 71 30 view .LVU115
 356 011e DDED042A 		vldr.32	s5, [sp, #16]
  71:Lib/lib_vision_models_pp/lib_vision_models_pp/Src/pd_pp_model.c ****   }
 357              		.loc 1 71 42 view .LVU116
 358 0122 9DED023A 		vldr.32	s6, [sp, #8]
  71:Lib/lib_vision_models_pp/lib_vision_models_pp/Src/pd_pp_model.c ****   }
 359              		.loc 1 71 52 view .LVU117
 360 0126 9DED002A 		vldr.32	s4, [sp]
  71:Lib/lib_vision_models_pp/lib_vision_models_pp/Src/pd_pp_model.c ****   }
 361              		.loc 1 71 24 view .LVU118
 362 012a 33EEE26A 		vsub.f32	s12, s7, s5
  71:Lib/lib_vision_models_pp/lib_vision_models_pp/Src/pd_pp_model.c ****   }
 363              		.loc 1 71 46 view .LVU119
 364 012e 73EE427A 		vsub.f32	s15, s6, s4
  71:Lib/lib_vision_models_pp/lib_vision_models_pp/Src/pd_pp_model.c ****   }
ARM GAS  /tmp/ccXOK4tq.s 			page 13


 365              		.loc 1 71 35 view .LVU120
 366 0132 26EE276A 		vmul.f32	s12, s12, s15
  70:Lib/lib_vision_models_pp/lib_vision_models_pp/Src/pd_pp_model.c ****     area[i] = (ymax[i] - ymin[i]) * (xmax[i] - xmin[i]);
 367              		.loc 1 70 23 is_stmt 1 discriminator 3 view .LVU121
 368              	.LVL14:
  70:Lib/lib_vision_models_pp/lib_vision_models_pp/Src/pd_pp_model.c ****     area[i] = (ymax[i] - ymin[i]) * (xmax[i] - xmin[i]);
 369              		.loc 1 70 17 discriminator 1 view .LVU122
  71:Lib/lib_vision_models_pp/lib_vision_models_pp/Src/pd_pp_model.c ****   }
 370              		.loc 1 71 5 view .LVU123
  73:Lib/lib_vision_models_pp/lib_vision_models_pp/Src/pd_pp_model.c ****     return 0;
 371              		.loc 1 73 6 is_stmt 0 view .LVU124
 372 0136 B5EEC06A 		vcmpe.f32	s12, #0
 373 013a F1EE10FA 		vmrs	APSR_nzcv, FPSCR
  71:Lib/lib_vision_models_pp/lib_vision_models_pp/Src/pd_pp_model.c ****   }
 374              		.loc 1 71 20 view .LVU125
 375 013e DDED077A 		vldr.32	s15, [sp, #28]
  71:Lib/lib_vision_models_pp/lib_vision_models_pp/Src/pd_pp_model.c ****   }
 376              		.loc 1 71 30 view .LVU126
 377 0142 DDED054A 		vldr.32	s9, [sp, #20]
  71:Lib/lib_vision_models_pp/lib_vision_models_pp/Src/pd_pp_model.c ****   }
 378              		.loc 1 71 42 view .LVU127
 379 0146 9DED037A 		vldr.32	s14, [sp, #12]
  71:Lib/lib_vision_models_pp/lib_vision_models_pp/Src/pd_pp_model.c ****   }
 380              		.loc 1 71 52 view .LVU128
 381 014a 9DED015A 		vldr.32	s10, [sp, #4]
  70:Lib/lib_vision_models_pp/lib_vision_models_pp/Src/pd_pp_model.c ****     area[i] = (ymax[i] - ymin[i]) * (xmax[i] - xmin[i]);
 382              		.loc 1 70 23 is_stmt 1 discriminator 3 view .LVU129
 383              	.LVL15:
  70:Lib/lib_vision_models_pp/lib_vision_models_pp/Src/pd_pp_model.c ****     area[i] = (ymax[i] - ymin[i]) * (xmax[i] - xmin[i]);
 384              		.loc 1 70 17 discriminator 1 view .LVU130
  73:Lib/lib_vision_models_pp/lib_vision_models_pp/Src/pd_pp_model.c ****     return 0;
 385              		.loc 1 73 3 view .LVU131
  74:Lib/lib_vision_models_pp/lib_vision_models_pp/Src/pd_pp_model.c **** 
 386              		.loc 1 74 12 is_stmt 0 view .LVU132
 387 014e F0EE445A 		vmov.f32	s11, s8
  73:Lib/lib_vision_models_pp/lib_vision_models_pp/Src/pd_pp_model.c ****     return 0;
 388              		.loc 1 73 6 view .LVU133
 389 0152 3CD9     		bls	.L15
  71:Lib/lib_vision_models_pp/lib_vision_models_pp/Src/pd_pp_model.c ****   }
 390              		.loc 1 71 24 view .LVU134
 391 0154 77EEE45A 		vsub.f32	s11, s15, s9
  71:Lib/lib_vision_models_pp/lib_vision_models_pp/Src/pd_pp_model.c ****   }
 392              		.loc 1 71 46 view .LVU135
 393 0158 77EE451A 		vsub.f32	s3, s14, s10
  71:Lib/lib_vision_models_pp/lib_vision_models_pp/Src/pd_pp_model.c ****   }
 394              		.loc 1 71 35 view .LVU136
 395 015c 65EEA15A 		vmul.f32	s11, s11, s3
  73:Lib/lib_vision_models_pp/lib_vision_models_pp/Src/pd_pp_model.c ****     return 0;
 396              		.loc 1 73 20 discriminator 1 view .LVU137
 397 0160 F5EEC05A 		vcmpe.f32	s11, #0
 398 0164 F1EE10FA 		vmrs	APSR_nzcv, FPSCR
 399 0168 4ED9     		bls	.L34
  76:Lib/lib_vision_models_pp/lib_vision_models_pp/Src/pd_pp_model.c ****   intersect_ymin = MAX(ymin[0], ymin[1]);
 400              		.loc 1 76 3 is_stmt 1 view .LVU138
  76:Lib/lib_vision_models_pp/lib_vision_models_pp/Src/pd_pp_model.c ****   intersect_ymin = MAX(ymin[0], ymin[1]);
 401              		.loc 1 76 20 is_stmt 0 discriminator 1 view .LVU139
 402 016a B4EE452A 		vcmp.f32	s4, s10
ARM GAS  /tmp/ccXOK4tq.s 			page 14


 403 016e F1EE10FA 		vmrs	APSR_nzcv, FPSCR
  77:Lib/lib_vision_models_pp/lib_vision_models_pp/Src/pd_pp_model.c ****   intersect_xmax = MIN(xmax[0], xmax[1]);
 404              		.loc 1 77 20 discriminator 1 view .LVU140
 405 0172 F4EE642A 		vcmp.f32	s5, s9
  76:Lib/lib_vision_models_pp/lib_vision_models_pp/Src/pd_pp_model.c ****   intersect_ymin = MAX(ymin[0], ymin[1]);
 406              		.loc 1 76 20 discriminator 1 view .LVU141
 407 0176 32FE055A 		vselgt.f32	s10, s4, s10
 408              	.LVL16:
  77:Lib/lib_vision_models_pp/lib_vision_models_pp/Src/pd_pp_model.c ****   intersect_xmax = MIN(xmax[0], xmax[1]);
 409              		.loc 1 77 3 is_stmt 1 view .LVU142
  77:Lib/lib_vision_models_pp/lib_vision_models_pp/Src/pd_pp_model.c ****   intersect_xmax = MIN(xmax[0], xmax[1]);
 410              		.loc 1 77 20 is_stmt 0 discriminator 1 view .LVU143
 411 017a F1EE10FA 		vmrs	APSR_nzcv, FPSCR
  78:Lib/lib_vision_models_pp/lib_vision_models_pp/Src/pd_pp_model.c ****   intersect_ymax = MIN(ymax[0], ymax[1]);
 412              		.loc 1 78 20 discriminator 1 view .LVU144
 413 017e B4EE473A 		vcmp.f32	s6, s14
  77:Lib/lib_vision_models_pp/lib_vision_models_pp/Src/pd_pp_model.c ****   intersect_xmax = MIN(xmax[0], xmax[1]);
 414              		.loc 1 77 20 discriminator 1 view .LVU145
 415 0182 72FEA44A 		vselgt.f32	s9, s5, s9
 416              	.LVL17:
  78:Lib/lib_vision_models_pp/lib_vision_models_pp/Src/pd_pp_model.c ****   intersect_ymax = MIN(ymax[0], ymax[1]);
 417              		.loc 1 78 3 is_stmt 1 view .LVU146
  78:Lib/lib_vision_models_pp/lib_vision_models_pp/Src/pd_pp_model.c ****   intersect_ymax = MIN(ymax[0], ymax[1]);
 418              		.loc 1 78 20 is_stmt 0 discriminator 1 view .LVU147
 419 0186 F1EE10FA 		vmrs	APSR_nzcv, FPSCR
  79:Lib/lib_vision_models_pp/lib_vision_models_pp/Src/pd_pp_model.c **** 
 420              		.loc 1 79 20 discriminator 1 view .LVU148
 421 018a F4EE673A 		vcmp.f32	s7, s15
  78:Lib/lib_vision_models_pp/lib_vision_models_pp/Src/pd_pp_model.c ****   intersect_ymax = MIN(ymax[0], ymax[1]);
 422              		.loc 1 78 20 discriminator 1 view .LVU149
 423 018e 48BF     		it	mi
 424 0190 B0EE437A 		vmovmi.f32	s14, s6
 425              	.LVL18:
  79:Lib/lib_vision_models_pp/lib_vision_models_pp/Src/pd_pp_model.c **** 
 426              		.loc 1 79 3 is_stmt 1 view .LVU150
  79:Lib/lib_vision_models_pp/lib_vision_models_pp/Src/pd_pp_model.c **** 
 427              		.loc 1 79 20 is_stmt 0 discriminator 1 view .LVU151
 428 0194 F1EE10FA 		vmrs	APSR_nzcv, FPSCR
 429 0198 48BF     		it	mi
 430 019a F0EE637A 		vmovmi.f32	s15, s7
 431              	.LVL19:
  81:Lib/lib_vision_models_pp/lib_vision_models_pp/Src/pd_pp_model.c **** 
 432              		.loc 1 81 3 is_stmt 1 view .LVU152
  81:Lib/lib_vision_models_pp/lib_vision_models_pp/Src/pd_pp_model.c **** 
 433              		.loc 1 81 20 is_stmt 0 view .LVU153
 434 019e 77EEE47A 		vsub.f32	s15, s15, s9
 435              	.LVL20:
  81:Lib/lib_vision_models_pp/lib_vision_models_pp/Src/pd_pp_model.c **** 
 436              		.loc 1 81 65 discriminator 4 view .LVU154
 437 01a2 37EE457A 		vsub.f32	s14, s14, s10
 438              	.LVL21:
  81:Lib/lib_vision_models_pp/lib_vision_models_pp/Src/pd_pp_model.c **** 
 439              		.loc 1 81 20 view .LVU155
 440 01a6 F5EEC07A 		vcmpe.f32	s15, #0
 441 01aa F1EE10FA 		vmrs	APSR_nzcv, FPSCR
 442              	.LVL22:
  81:Lib/lib_vision_models_pp/lib_vision_models_pp/Src/pd_pp_model.c **** 
ARM GAS  /tmp/ccXOK4tq.s 			page 15


 443              		.loc 1 81 65 discriminator 4 view .LVU156
 444 01ae B5EEC07A 		vcmpe.f32	s14, #0
  81:Lib/lib_vision_models_pp/lib_vision_models_pp/Src/pd_pp_model.c **** 
 445              		.loc 1 81 20 discriminator 2 view .LVU157
 446 01b2 77FE847A 		vselgt.f32	s15, s15, s8
  81:Lib/lib_vision_models_pp/lib_vision_models_pp/Src/pd_pp_model.c **** 
 447              		.loc 1 81 65 discriminator 4 view .LVU158
 448 01b6 F1EE10FA 		vmrs	APSR_nzcv, FPSCR
  81:Lib/lib_vision_models_pp/lib_vision_models_pp/Src/pd_pp_model.c **** 
 449              		.loc 1 81 65 discriminator 6 view .LVU159
 450 01ba 37FE047A 		vselgt.f32	s14, s14, s8
  81:Lib/lib_vision_models_pp/lib_vision_models_pp/Src/pd_pp_model.c **** 
 451              		.loc 1 81 18 discriminator 8 view .LVU160
 452 01be 67EE877A 		vmul.f32	s15, s15, s14
 453              	.LVL23:
  83:Lib/lib_vision_models_pp/lib_vision_models_pp/Src/pd_pp_model.c **** }
 454              		.loc 1 83 3 is_stmt 1 view .LVU161
  83:Lib/lib_vision_models_pp/lib_vision_models_pp/Src/pd_pp_model.c **** }
 455              		.loc 1 83 36 is_stmt 0 view .LVU162
 456 01c2 36EE256A 		vadd.f32	s12, s12, s11
  83:Lib/lib_vision_models_pp/lib_vision_models_pp/Src/pd_pp_model.c **** }
 457              		.loc 1 83 46 view .LVU163
 458 01c6 36EE676A 		vsub.f32	s12, s12, s15
  83:Lib/lib_vision_models_pp/lib_vision_models_pp/Src/pd_pp_model.c **** }
 459              		.loc 1 83 25 view .LVU164
 460 01ca C7EE865A 		vdiv.f32	s11, s15, s12
 461              	.LVL24:
 462              	.L15:
  83:Lib/lib_vision_models_pp/lib_vision_models_pp/Src/pd_pp_model.c **** }
 463              		.loc 1 83 25 view .LVU165
 464              	.LBE40:
 465              	.LBE42:
 216:Lib/lib_vision_models_pp/lib_vision_models_pp/Src/pd_pp_model.c ****         skip_box = 1;
 466              		.loc 1 216 7 is_stmt 1 view .LVU166
 216:Lib/lib_vision_models_pp/lib_vision_models_pp/Src/pd_pp_model.c ****         skip_box = 1;
 467              		.loc 1 216 10 is_stmt 0 view .LVU167
 468 01ce D8ED047A 		vldr.32	s15, [r8, #16]
 469 01d2 F4EEE57A 		vcmpe.f32	s15, s11
 470 01d6 F1EE10FA 		vmrs	APSR_nzcv, FPSCR
 471 01da 03F11803 		add	r3, r3, #24
 472 01de 0FD9     		bls	.L26
 214:Lib/lib_vision_models_pp/lib_vision_models_pp/Src/pd_pp_model.c ****       iou = pd_pp_compute_iou(&pd_boxes[i], &pd_boxes[j]);
 473              		.loc 1 214 35 is_stmt 1 discriminator 2 view .LVU168
 474 01e0 0131     		adds	r1, r1, #1
 475              	.LVL25:
 476              	.L29:
 214:Lib/lib_vision_models_pp/lib_vision_models_pp/Src/pd_pp_model.c ****       iou = pd_pp_compute_iou(&pd_boxes[i], &pd_boxes[j]);
 477              		.loc 1 214 23 discriminator 1 view .LVU169
 478 01e2 6145     		cmp	r1, ip
 479 01e4 FFF628AF 		blt	.L27
 480              	.LVL26:
 214:Lib/lib_vision_models_pp/lib_vision_models_pp/Src/pd_pp_model.c ****       iou = pd_pp_compute_iou(&pd_boxes[i], &pd_boxes[j]);
 481              		.loc 1 214 23 is_stmt 0 discriminator 1 view .LVU170
 482              	.LBE44:
 221:Lib/lib_vision_models_pp/lib_vision_models_pp/Src/pd_pp_model.c ****       continue;
 483              		.loc 1 221 5 is_stmt 1 view .LVU171
 224:Lib/lib_vision_models_pp/lib_vision_models_pp/Src/pd_pp_model.c ****   }
ARM GAS  /tmp/ccXOK4tq.s 			page 16


 484              		.loc 1 224 5 view .LVU172
 224:Lib/lib_vision_models_pp/lib_vision_models_pp/Src/pd_pp_model.c ****   }
 485              		.loc 1 224 25 is_stmt 0 view .LVU173
 486 01e8 1824     		movs	r4, #24
 487 01ea 3546     		mov	r5, r6
 488 01ec 04FB0C74 		mla	r4, r4, ip, r7
 489 01f0 0FCD     		ldmia	r5!, {r0, r1, r2, r3}
 490              	.LVL27:
 224:Lib/lib_vision_models_pp/lib_vision_models_pp/Src/pd_pp_model.c ****   }
 491              		.loc 1 224 25 view .LVU174
 492 01f2 0FC4     		stmia	r4!, {r0, r1, r2, r3}
 493 01f4 95E80300 		ldm	r5, {r0, r1}
 494 01f8 84E80300 		stm	r4, {r0, r1}
 224:Lib/lib_vision_models_pp/lib_vision_models_pp/Src/pd_pp_model.c ****   }
 495              		.loc 1 224 21 view .LVU175
 496 01fc 0CF1010C 		add	ip, ip, #1
 497              	.LVL28:
 498              	.L26:
 212:Lib/lib_vision_models_pp/lib_vision_models_pp/Src/pd_pp_model.c ****     skip_box = 0;
 499              		.loc 1 212 35 is_stmt 1 discriminator 2 view .LVU176
 500 0200 1836     		adds	r6, r6, #24
 501 0202 13E7     		b	.L5
 502              	.LVL29:
 503              	.L32:
 504              	.LBB45:
 505              	.LBB43:
 506              	.LBB41:
 212:Lib/lib_vision_models_pp/lib_vision_models_pp/Src/pd_pp_model.c ****     skip_box = 0;
 507              		.loc 1 212 35 is_stmt 0 discriminator 2 view .LVU177
 508 0204 0120     		movs	r0, #1
 509              	.LVL30:
 212:Lib/lib_vision_models_pp/lib_vision_models_pp/Src/pd_pp_model.c ****     skip_box = 0;
 510              		.loc 1 212 35 discriminator 2 view .LVU178
 511 0206 56E7     		b	.L14
 512              	.LVL31:
 513              	.L34:
  74:Lib/lib_vision_models_pp/lib_vision_models_pp/Src/pd_pp_model.c **** 
 514              		.loc 1 74 12 view .LVU179
 515 0208 F0EE445A 		vmov.f32	s11, s8
 516 020c DFE7     		b	.L15
 517              	.LVL32:
 518              	.L35:
  74:Lib/lib_vision_models_pp/lib_vision_models_pp/Src/pd_pp_model.c **** 
 519              		.loc 1 74 12 view .LVU180
 520              	.LBE41:
 521              	.LBE43:
 522              	.LBE45:
 523 020e 3B46     		mov	r3, r7
 524              	.LBB46:
 214:Lib/lib_vision_models_pp/lib_vision_models_pp/Src/pd_pp_model.c ****       iou = pd_pp_compute_iou(&pd_boxes[i], &pd_boxes[j]);
 525              		.loc 1 214 14 view .LVU181
 526 0210 0021     		movs	r1, #0
 527 0212 E6E7     		b	.L29
 528              	.L47:
 529              		.align	2
 530              	.L46:
 531 0214 00000000 		.word	pd_pp_nms_comparator
ARM GAS  /tmp/ccXOK4tq.s 			page 17


 532 0218 00000000 		.word	0
 533              	.LBE46:
 534              	.LBE48:
 535              		.cfi_endproc
 536              	.LFE2654:
 538              		.section	.text.pd_model_pp_reset,"ax",%progbits
 539              		.align	1
 540              		.global	pd_model_pp_reset
 541              		.syntax unified
 542              		.thumb
 543              		.thumb_func
 545              	pd_model_pp_reset:
 546              	.LVL33:
 547              	.LFB2651:
 229:Lib/lib_vision_models_pp/lib_vision_models_pp/Src/pd_pp_model.c **** int32_t pd_model_pp_reset(pd_model_pp_static_param_t *pInput_static_param)
 230:Lib/lib_vision_models_pp/lib_vision_models_pp/Src/pd_pp_model.c **** {
 548              		.loc 1 230 1 is_stmt 1 view -0
 549              		.cfi_startproc
 550              		@ args = 0, pretend = 0, frame = 0
 551              		@ frame_needed = 0, uses_anonymous_args = 0
 552              		@ link register save eliminated.
 231:Lib/lib_vision_models_pp/lib_vision_models_pp/Src/pd_pp_model.c ****   return AI_PD_POSTPROCESS_ERROR_NO;
 553              		.loc 1 231 3 view .LVU183
 232:Lib/lib_vision_models_pp/lib_vision_models_pp/Src/pd_pp_model.c **** }
 554              		.loc 1 232 1 is_stmt 0 view .LVU184
 555 0000 0020     		movs	r0, #0
 556              	.LVL34:
 557              		.loc 1 232 1 view .LVU185
 558 0002 7047     		bx	lr
 559              		.cfi_endproc
 560              	.LFE2651:
 562              		.section	.text.pd_model_pp_process,"ax",%progbits
 563              		.align	1
 564              		.global	pd_model_pp_process
 565              		.syntax unified
 566              		.thumb
 567              		.thumb_func
 569              	pd_model_pp_process:
 570              	.LVL35:
 571              	.LFB2652:
 233:Lib/lib_vision_models_pp/lib_vision_models_pp/Src/pd_pp_model.c **** 
 234:Lib/lib_vision_models_pp/lib_vision_models_pp/Src/pd_pp_model.c **** 
 235:Lib/lib_vision_models_pp/lib_vision_models_pp/Src/pd_pp_model.c **** int32_t pd_model_pp_process(pd_model_pp_in_t *pInput,
 236:Lib/lib_vision_models_pp/lib_vision_models_pp/Src/pd_pp_model.c ****                             pd_pp_out_t *pOutput,
 237:Lib/lib_vision_models_pp/lib_vision_models_pp/Src/pd_pp_model.c ****                             pd_model_pp_static_param_t *pInput_static_param)
 238:Lib/lib_vision_models_pp/lib_vision_models_pp/Src/pd_pp_model.c **** {
 572              		.loc 1 238 1 is_stmt 1 view -0
 573              		.cfi_startproc
 574              		@ args = 0, pretend = 0, frame = 16
 575              		@ frame_needed = 0, uses_anonymous_args = 0
 239:Lib/lib_vision_models_pp/lib_vision_models_pp/Src/pd_pp_model.c ****   int32_t ret = AI_PD_POSTPROCESS_ERROR;
 576              		.loc 1 239 3 view .LVU187
 240:Lib/lib_vision_models_pp/lib_vision_models_pp/Src/pd_pp_model.c ****   ret = pd_pp_decode(pInput,
 577              		.loc 1 240 3 view .LVU188
 578              	.LBB54:
 579              	.LBI54:
  85:Lib/lib_vision_models_pp/lib_vision_models_pp/Src/pd_pp_model.c ****                             pd_pp_out_t *pOutput,
ARM GAS  /tmp/ccXOK4tq.s 			page 18


 580              		.loc 1 85 16 view .LVU189
 581              	.LBB55:
  89:Lib/lib_vision_models_pp/lib_vision_models_pp/Src/pd_pp_model.c **** 
 582              		.loc 1 89 3 view .LVU190
  92:Lib/lib_vision_models_pp/lib_vision_models_pp/Src/pd_pp_model.c ****   float32_t height = pInput_static_param->height;
 583              		.loc 1 92 13 is_stmt 0 view .LVU191
 584 0000 D2ED007A 		vldr.32	s15, [r2]	@ int
 585              	.LBE55:
 586              	.LBE54:
 238:Lib/lib_vision_models_pp/lib_vision_models_pp/Src/pd_pp_model.c ****   int32_t ret = AI_PD_POSTPROCESS_ERROR;
 587              		.loc 1 238 1 view .LVU192
 588 0004 2DE9F04F 		push	{r4, r5, r6, r7, r8, r9, r10, fp, lr}
 589              		.cfi_def_cfa_offset 36
 590              		.cfi_offset 4, -36
 591              		.cfi_offset 5, -32
 592              		.cfi_offset 6, -28
 593              		.cfi_offset 7, -24
 594              		.cfi_offset 8, -20
 595              		.cfi_offset 9, -16
 596              		.cfi_offset 10, -12
 597              		.cfi_offset 11, -8
 598              		.cfi_offset 14, -4
 599              	.LBB73:
 600              	.LBB66:
  95:Lib/lib_vision_models_pp/lib_vision_models_pp/Src/pd_pp_model.c ****   float32_t *pAnchors = (float32_t *)pInput_static_param->pAnchors;
 601              		.loc 1 95 14 view .LVU193
 602 0008 D0E900B5 		ldrd	fp, r5, [r0]
 603              	.LBE66:
 604              	.LBE73:
 238:Lib/lib_vision_models_pp/lib_vision_models_pp/Src/pd_pp_model.c ****   int32_t ret = AI_PD_POSTPROCESS_ERROR;
 605              		.loc 1 238 1 view .LVU194
 606 000c 2DED048B 		vpush.64	{d8, d9}
 607              		.cfi_def_cfa_offset 52
 608              		.cfi_offset 80, -52
 609              		.cfi_offset 81, -48
 610              		.cfi_offset 82, -44
 611              		.cfi_offset 83, -40
 612              	.LBB74:
 613              	.LBB67:
  92:Lib/lib_vision_models_pp/lib_vision_models_pp/Src/pd_pp_model.c ****   float32_t height = pInput_static_param->height;
 614              		.loc 1 92 13 view .LVU195
 615 0010 B8EE678A 		vcvt.f32.u32	s16, s15
  93:Lib/lib_vision_models_pp/lib_vision_models_pp/Src/pd_pp_model.c ****   float32_t *pRawBoxes = (float32_t *)pInput->pBoxes;
 616              		.loc 1 93 13 view .LVU196
 617 0014 D2ED017A 		vldr.32	s15, [r2, #4]	@ int
  99:Lib/lib_vision_models_pp/lib_vision_models_pp/Src/pd_pp_model.c **** 
 618              		.loc 1 99 42 view .LVU197
 619 0018 B7EE009A 		vmov.f32	s18, #1.0e+0
  93:Lib/lib_vision_models_pp/lib_vision_models_pp/Src/pd_pp_model.c ****   float32_t *pRawBoxes = (float32_t *)pInput->pBoxes;
 620              		.loc 1 93 13 view .LVU198
 621 001c F8EE678A 		vcvt.f32.u32	s17, s15
  99:Lib/lib_vision_models_pp/lib_vision_models_pp/Src/pd_pp_model.c **** 
 622              		.loc 1 99 42 view .LVU199
 623 0020 D2ED037A 		vldr.32	s15, [r2, #12]
  89:Lib/lib_vision_models_pp/lib_vision_models_pp/Src/pd_pp_model.c **** 
 624              		.loc 1 89 19 view .LVU200
 625 0024 0027     		movs	r7, #0
ARM GAS  /tmp/ccXOK4tq.s 			page 19


  99:Lib/lib_vision_models_pp/lib_vision_models_pp/Src/pd_pp_model.c **** 
 626              		.loc 1 99 42 view .LVU201
 627 0026 89EE270A 		vdiv.f32	s0, s18, s15
  91:Lib/lib_vision_models_pp/lib_vision_models_pp/Src/pd_pp_model.c ****   float32_t width  = pInput_static_param->width;
 628              		.loc 1 91 16 view .LVU202
 629 002a 0B68     		ldr	r3, [r1]
 630              	.LBE67:
 631              	.LBE74:
 238:Lib/lib_vision_models_pp/lib_vision_models_pp/Src/pd_pp_model.c ****   int32_t ret = AI_PD_POSTPROCESS_ERROR;
 632              		.loc 1 238 1 view .LVU203
 633 002c 85B0     		sub	sp, sp, #20
 634              		.cfi_def_cfa_offset 72
 635              	.LBB75:
 636              	.LBB68:
  99:Lib/lib_vision_models_pp/lib_vision_models_pp/Src/pd_pp_model.c **** 
 637              		.loc 1 99 34 view .LVU204
 638 002e 30EE490A 		vsub.f32	s0, s0, s18
  89:Lib/lib_vision_models_pp/lib_vision_models_pp/Src/pd_pp_model.c **** 
 639              		.loc 1 89 19 view .LVU205
 640 0032 4F60     		str	r7, [r1, #4]
  91:Lib/lib_vision_models_pp/lib_vision_models_pp/Src/pd_pp_model.c ****   float32_t width  = pInput_static_param->width;
 641              		.loc 1 91 3 is_stmt 1 view .LVU206
  97:Lib/lib_vision_models_pp/lib_vision_models_pp/Src/pd_pp_model.c ****   size_t box_nb = 0;
 642              		.loc 1 97 57 is_stmt 0 view .LVU207
 643 0034 D2F808A0 		ldr	r10, [r2, #8]
 644              	.LBE68:
 645              	.LBE75:
 238:Lib/lib_vision_models_pp/lib_vision_models_pp/Src/pd_pp_model.c ****   int32_t ret = AI_PD_POSTPROCESS_ERROR;
 646              		.loc 1 238 1 view .LVU208
 647 0038 1446     		mov	r4, r2
 648              	.LBB76:
 649              	.LBB69:
  96:Lib/lib_vision_models_pp/lib_vision_models_pp/Src/pd_pp_model.c ****   const size_t in_struct_size = (2 * pInput_static_param->nb_keypoints) + AI_PD_MODEL_PP_KEYPOINTS;
 650              		.loc 1 96 14 view .LVU209
 651 003a D669     		ldr	r6, [r2, #28]
  91:Lib/lib_vision_models_pp/lib_vision_models_pp/Src/pd_pp_model.c ****   float32_t width  = pInput_static_param->width;
 652              		.loc 1 91 16 view .LVU210
 653 003c 0193     		str	r3, [sp, #4]
 654              	.LVL36:
  92:Lib/lib_vision_models_pp/lib_vision_models_pp/Src/pd_pp_model.c ****   float32_t height = pInput_static_param->height;
 655              		.loc 1 92 3 is_stmt 1 view .LVU211
  93:Lib/lib_vision_models_pp/lib_vision_models_pp/Src/pd_pp_model.c ****   float32_t *pRawBoxes = (float32_t *)pInput->pBoxes;
 656              		.loc 1 93 3 view .LVU212
  94:Lib/lib_vision_models_pp/lib_vision_models_pp/Src/pd_pp_model.c ****   float32_t *pRawProbs = (float32_t *)pInput->pProbs;
 657              		.loc 1 94 3 view .LVU213
  96:Lib/lib_vision_models_pp/lib_vision_models_pp/Src/pd_pp_model.c ****   const size_t in_struct_size = (2 * pInput_static_param->nb_keypoints) + AI_PD_MODEL_PP_KEYPOINTS;
 658              		.loc 1 96 3 view .LVU214
  97:Lib/lib_vision_models_pp/lib_vision_models_pp/Src/pd_pp_model.c ****   size_t box_nb = 0;
 659              		.loc 1 97 3 view .LVU215
  98:Lib/lib_vision_models_pp/lib_vision_models_pp/Src/pd_pp_model.c ****   float32_t computedThreshold = -logf( 1 / pInput_static_param->conf_threshold - 1);
 660              		.loc 1 98 3 view .LVU216
  99:Lib/lib_vision_models_pp/lib_vision_models_pp/Src/pd_pp_model.c **** 
 661              		.loc 1 99 3 view .LVU217
 662              	.LBE69:
 663              	.LBE76:
 238:Lib/lib_vision_models_pp/lib_vision_models_pp/Src/pd_pp_model.c ****   int32_t ret = AI_PD_POSTPROCESS_ERROR;
 664              		.loc 1 238 1 is_stmt 0 view .LVU218
ARM GAS  /tmp/ccXOK4tq.s 			page 20


 665 003e 8846     		mov	r8, r1
 666              	.LBB77:
 667              	.LBB70:
  99:Lib/lib_vision_models_pp/lib_vision_models_pp/Src/pd_pp_model.c **** 
 668              		.loc 1 99 34 view .LVU219
 669 0040 FFF7FEFF 		bl	logf
 670              	.LVL37:
  98:Lib/lib_vision_models_pp/lib_vision_models_pp/Src/pd_pp_model.c ****   float32_t computedThreshold = -logf( 1 / pInput_static_param->conf_threshold - 1);
 671              		.loc 1 98 10 view .LVU220
 672 0044 B946     		mov	r9, r7
  99:Lib/lib_vision_models_pp/lib_vision_models_pp/Src/pd_pp_model.c **** 
 673              		.loc 1 99 13 discriminator 1 view .LVU221
 674 0046 F1EE409A 		vneg.f32	s19, s0
 675              	.LVL38:
 101:Lib/lib_vision_models_pp/lib_vision_models_pp/Src/pd_pp_model.c ****     pd_pp_box_t *pBox = &pBoxes[box_nb]; //&pd_boxes[box_nb];
 676              		.loc 1 101 3 is_stmt 1 view .LVU222
 677              	.LBB56:
 101:Lib/lib_vision_models_pp/lib_vision_models_pp/Src/pd_pp_model.c ****     pd_pp_box_t *pBox = &pBoxes[box_nb]; //&pd_boxes[box_nb];
 678              		.loc 1 101 8 view .LVU223
 679              	.LBB57:
 102:Lib/lib_vision_models_pp/lib_vision_models_pp/Src/pd_pp_model.c **** 
 680              		.loc 1 102 32 is_stmt 0 view .LVU224
 681 004a 1822     		movs	r2, #24
 682              	.LBE57:
 683              	.LBE56:
  97:Lib/lib_vision_models_pp/lib_vision_models_pp/Src/pd_pp_model.c ****   size_t box_nb = 0;
 684              		.loc 1 97 73 view .LVU225
 685 004c 0AF10203 		add	r3, r10, #2
 686 0050 DB00     		lsls	r3, r3, #3
 687 0052 0293     		str	r3, [sp, #8]
 688              	.LVL39:
 689              	.L50:
 690              	.LBB64:
 101:Lib/lib_vision_models_pp/lib_vision_models_pp/Src/pd_pp_model.c ****     pd_pp_box_t *pBox = &pBoxes[box_nb]; //&pd_boxes[box_nb];
 691              		.loc 1 101 26 is_stmt 1 discriminator 1 view .LVU226
 692 0054 6369     		ldr	r3, [r4, #20]
 693 0056 9F42     		cmp	r7, r3
 694 0058 0BD3     		bcc	.L56
 695              	.L55:
 101:Lib/lib_vision_models_pp/lib_vision_models_pp/Src/pd_pp_model.c ****     pd_pp_box_t *pBox = &pBoxes[box_nb]; //&pd_boxes[box_nb];
 696              		.loc 1 101 26 is_stmt 0 discriminator 1 view .LVU227
 697              	.LBE64:
 126:Lib/lib_vision_models_pp/lib_vision_models_pp/Src/pd_pp_model.c ****   return AI_PD_POSTPROCESS_ERROR_NO;
 698              		.loc 1 126 3 is_stmt 1 view .LVU228
 699              	.LBE70:
 700              	.LBE77:
 241:Lib/lib_vision_models_pp/lib_vision_models_pp/Src/pd_pp_model.c ****                      pOutput,
 242:Lib/lib_vision_models_pp/lib_vision_models_pp/Src/pd_pp_model.c ****                      pInput_static_param);
 243:Lib/lib_vision_models_pp/lib_vision_models_pp/Src/pd_pp_model.c **** 
 244:Lib/lib_vision_models_pp/lib_vision_models_pp/Src/pd_pp_model.c ****   if (AI_PD_POSTPROCESS_ERROR_NO != ret) {
 245:Lib/lib_vision_models_pp/lib_vision_models_pp/Src/pd_pp_model.c ****     return ret;
 246:Lib/lib_vision_models_pp/lib_vision_models_pp/Src/pd_pp_model.c ****   }
 247:Lib/lib_vision_models_pp/lib_vision_models_pp/Src/pd_pp_model.c ****   pd_pp_nms(pOutput,
 701              		.loc 1 247 3 is_stmt 0 view .LVU229
 702 005a 4046     		mov	r0, r8
 703 005c 2146     		mov	r1, r4
 704              	.LBB78:
ARM GAS  /tmp/ccXOK4tq.s 			page 21


 705              	.LBB71:
 126:Lib/lib_vision_models_pp/lib_vision_models_pp/Src/pd_pp_model.c ****   return AI_PD_POSTPROCESS_ERROR_NO;
 706              		.loc 1 126 19 view .LVU230
 707 005e C8F80490 		str	r9, [r8, #4]
 127:Lib/lib_vision_models_pp/lib_vision_models_pp/Src/pd_pp_model.c **** }
 708              		.loc 1 127 3 is_stmt 1 view .LVU231
 709              	.LVL40:
 127:Lib/lib_vision_models_pp/lib_vision_models_pp/Src/pd_pp_model.c **** }
 710              		.loc 1 127 3 is_stmt 0 view .LVU232
 711              	.LBE71:
 712              	.LBE78:
 244:Lib/lib_vision_models_pp/lib_vision_models_pp/Src/pd_pp_model.c ****     return ret;
 713              		.loc 1 244 3 is_stmt 1 view .LVU233
 714              		.loc 1 247 3 view .LVU234
 715 0062 FFF7FEFF 		bl	pd_pp_nms.isra.0
 716              	.LVL41:
 248:Lib/lib_vision_models_pp/lib_vision_models_pp/Src/pd_pp_model.c ****             pInput_static_param);
 249:Lib/lib_vision_models_pp/lib_vision_models_pp/Src/pd_pp_model.c **** 
 250:Lib/lib_vision_models_pp/lib_vision_models_pp/Src/pd_pp_model.c ****   return ret;
 717              		.loc 1 250 3 view .LVU235
 251:Lib/lib_vision_models_pp/lib_vision_models_pp/Src/pd_pp_model.c **** }
 718              		.loc 1 251 1 is_stmt 0 view .LVU236
 719 0066 0020     		movs	r0, #0
 720 0068 05B0     		add	sp, sp, #20
 721              		.cfi_remember_state
 722              		.cfi_def_cfa_offset 52
 723              		@ sp needed
 724 006a BDEC048B 		vldm	sp!, {d8-d9}
 725              		.cfi_restore 82
 726              		.cfi_restore 83
 727              		.cfi_restore 80
 728              		.cfi_restore 81
 729              		.cfi_def_cfa_offset 36
 730 006e BDE8F08F 		pop	{r4, r5, r6, r7, r8, r9, r10, fp, pc}
 731              	.LVL42:
 732              	.L56:
 733              		.cfi_restore_state
 734              	.LBB79:
 735              	.LBB72:
 736              	.LBB65:
 737              	.LBB62:
 102:Lib/lib_vision_models_pp/lib_vision_models_pp/Src/pd_pp_model.c **** 
 738              		.loc 1 102 5 is_stmt 1 view .LVU237
 105:Lib/lib_vision_models_pp/lib_vision_models_pp/Src/pd_pp_model.c ****       pBox->prob = 1.0f / (1.0f + expf(-pRawProbs[i]));
 739              		.loc 1 105 5 view .LVU238
 105:Lib/lib_vision_models_pp/lib_vision_models_pp/Src/pd_pp_model.c ****       pBox->prob = 1.0f / (1.0f + expf(-pRawProbs[i]));
 740              		.loc 1 105 18 is_stmt 0 view .LVU239
 741 0072 BBEC010A 		vldmia.32	fp!, {s0}
 105:Lib/lib_vision_models_pp/lib_vision_models_pp/Src/pd_pp_model.c ****       pBox->prob = 1.0f / (1.0f + expf(-pRawProbs[i]));
 742              		.loc 1 105 8 view .LVU240
 743 0076 F4EEC09A 		vcmpe.f32	s19, s0
 744 007a F1EE10FA 		vmrs	APSR_nzcv, FPSCR
 745 007e 3ED8     		bhi	.L51
 102:Lib/lib_vision_models_pp/lib_vision_models_pp/Src/pd_pp_model.c **** 
 746              		.loc 1 102 18 view .LVU241
 747 0080 019B     		ldr	r3, [sp, #4]
 106:Lib/lib_vision_models_pp/lib_vision_models_pp/Src/pd_pp_model.c ****       /* decode palm box */
ARM GAS  /tmp/ccXOK4tq.s 			page 22


 748              		.loc 1 106 35 view .LVU242
 749 0082 B1EE400A 		vneg.f32	s0, s0
 102:Lib/lib_vision_models_pp/lib_vision_models_pp/Src/pd_pp_model.c **** 
 750              		.loc 1 102 18 view .LVU243
 751 0086 02FB0931 		mla	r1, r2, r9, r3
 752 008a 0391     		str	r1, [sp, #12]
 106:Lib/lib_vision_models_pp/lib_vision_models_pp/Src/pd_pp_model.c ****       /* decode palm box */
 753              		.loc 1 106 7 is_stmt 1 view .LVU244
 106:Lib/lib_vision_models_pp/lib_vision_models_pp/Src/pd_pp_model.c ****       /* decode palm box */
 754              		.loc 1 106 35 is_stmt 0 view .LVU245
 755 008c FFF7FEFF 		bl	expf
 756              	.LVL43:
 106:Lib/lib_vision_models_pp/lib_vision_models_pp/Src/pd_pp_model.c ****       /* decode palm box */
 757              		.loc 1 106 33 discriminator 1 view .LVU246
 758 0090 30EE090A 		vadd.f32	s0, s0, s18
 106:Lib/lib_vision_models_pp/lib_vision_models_pp/Src/pd_pp_model.c ****       /* decode palm box */
 759              		.loc 1 106 25 discriminator 1 view .LVU247
 760 0094 C9EE007A 		vdiv.f32	s15, s18, s0
 106:Lib/lib_vision_models_pp/lib_vision_models_pp/Src/pd_pp_model.c ****       /* decode palm box */
 761              		.loc 1 106 18 discriminator 1 view .LVU248
 762 0098 0399     		ldr	r1, [sp, #12]
 763              	.LBB58:
 114:Lib/lib_vision_models_pp/lib_vision_models_pp/Src/pd_pp_model.c ****         pBox->pKps[j].x = (pAnchors[i*2+0] * width  + pRawBoxes[i * in_struct_size + AI_PD_MODEL_PP
 764              		.loc 1 114 7 view .LVU249
 765 009a 2846     		mov	r0, r5
 766              	.LBE58:
 106:Lib/lib_vision_models_pp/lib_vision_models_pp/Src/pd_pp_model.c ****       /* decode palm box */
 767              		.loc 1 106 18 discriminator 1 view .LVU250
 768 009c C1ED007A 		vstr.32	s15, [r1]
 108:Lib/lib_vision_models_pp/lib_vision_models_pp/Src/pd_pp_model.c ****       pBox->y_center = (pAnchors[i*2+1] * height + pRawBoxes[i * in_struct_size + AI_PD_MODEL_PP_YC
 769              		.loc 1 108 7 is_stmt 1 view .LVU251
 108:Lib/lib_vision_models_pp/lib_vision_models_pp/Src/pd_pp_model.c ****       pBox->y_center = (pAnchors[i*2+1] * height + pRawBoxes[i * in_struct_size + AI_PD_MODEL_PP_YC
 770              		.loc 1 108 50 is_stmt 0 view .LVU252
 771 00a0 96ED007A 		vldr.32	s14, [r6]
 772 00a4 D5ED007A 		vldr.32	s15, [r5]
 773 00a8 E8EE077A 		vfma.f32	s15, s16, s14
 108:Lib/lib_vision_models_pp/lib_vision_models_pp/Src/pd_pp_model.c ****       pBox->y_center = (pAnchors[i*2+1] * height + pRawBoxes[i * in_struct_size + AI_PD_MODEL_PP_YC
 774              		.loc 1 108 108 view .LVU253
 775 00ac 87EE887A 		vdiv.f32	s14, s15, s16
 108:Lib/lib_vision_models_pp/lib_vision_models_pp/Src/pd_pp_model.c ****       pBox->y_center = (pAnchors[i*2+1] * height + pRawBoxes[i * in_struct_size + AI_PD_MODEL_PP_YC
 776              		.loc 1 108 22 view .LVU254
 777 00b0 81ED017A 		vstr.32	s14, [r1, #4]
 109:Lib/lib_vision_models_pp/lib_vision_models_pp/Src/pd_pp_model.c ****       pBox->width = pRawBoxes[i * in_struct_size + AI_PD_MODEL_PP_WIDTHREL]  / width;
 778              		.loc 1 109 7 is_stmt 1 view .LVU255
 109:Lib/lib_vision_models_pp/lib_vision_models_pp/Src/pd_pp_model.c ****       pBox->width = pRawBoxes[i * in_struct_size + AI_PD_MODEL_PP_WIDTHREL]  / width;
 779              		.loc 1 109 50 is_stmt 0 view .LVU256
 780 00b4 96ED017A 		vldr.32	s14, [r6, #4]
 781 00b8 D5ED017A 		vldr.32	s15, [r5, #4]
 782 00bc E8EE877A 		vfma.f32	s15, s17, s14
 109:Lib/lib_vision_models_pp/lib_vision_models_pp/Src/pd_pp_model.c ****       pBox->width = pRawBoxes[i * in_struct_size + AI_PD_MODEL_PP_WIDTHREL]  / width;
 783              		.loc 1 109 108 view .LVU257
 784 00c0 87EEA87A 		vdiv.f32	s14, s15, s17
 109:Lib/lib_vision_models_pp/lib_vision_models_pp/Src/pd_pp_model.c ****       pBox->width = pRawBoxes[i * in_struct_size + AI_PD_MODEL_PP_WIDTHREL]  / width;
 785              		.loc 1 109 22 view .LVU258
 786 00c4 81ED027A 		vstr.32	s14, [r1, #8]
 110:Lib/lib_vision_models_pp/lib_vision_models_pp/Src/pd_pp_model.c ****       pBox->height = pRawBoxes[i * in_struct_size + AI_PD_MODEL_PP_HEIGHTREL] / height;
 787              		.loc 1 110 7 is_stmt 1 view .LVU259
ARM GAS  /tmp/ccXOK4tq.s 			page 23


 110:Lib/lib_vision_models_pp/lib_vision_models_pp/Src/pd_pp_model.c ****       pBox->height = pRawBoxes[i * in_struct_size + AI_PD_MODEL_PP_HEIGHTREL] / height;
 788              		.loc 1 110 78 is_stmt 0 view .LVU260
 789 00c8 95ED027A 		vldr.32	s14, [r5, #8]
 790 00cc C7EE087A 		vdiv.f32	s15, s14, s16
 110:Lib/lib_vision_models_pp/lib_vision_models_pp/Src/pd_pp_model.c ****       pBox->height = pRawBoxes[i * in_struct_size + AI_PD_MODEL_PP_HEIGHTREL] / height;
 791              		.loc 1 110 19 view .LVU261
 792 00d0 C1ED037A 		vstr.32	s15, [r1, #12]
 111:Lib/lib_vision_models_pp/lib_vision_models_pp/Src/pd_pp_model.c **** 
 793              		.loc 1 111 7 is_stmt 1 view .LVU262
 111:Lib/lib_vision_models_pp/lib_vision_models_pp/Src/pd_pp_model.c **** 
 794              		.loc 1 111 79 is_stmt 0 view .LVU263
 795 00d4 95ED037A 		vldr.32	s14, [r5, #12]
 796 00d8 C7EE287A 		vdiv.f32	s15, s14, s17
 797              	.LBB59:
 114:Lib/lib_vision_models_pp/lib_vision_models_pp/Src/pd_pp_model.c ****         pBox->pKps[j].x = (pAnchors[i*2+0] * width  + pRawBoxes[i * in_struct_size + AI_PD_MODEL_PP
 798              		.loc 1 114 21 view .LVU264
 799 00dc 4FF0000E 		mov	lr, #0
 800              	.LBE59:
 111:Lib/lib_vision_models_pp/lib_vision_models_pp/Src/pd_pp_model.c **** 
 801              		.loc 1 111 20 view .LVU265
 802 00e0 C1ED047A 		vstr.32	s15, [r1, #16]
 114:Lib/lib_vision_models_pp/lib_vision_models_pp/Src/pd_pp_model.c ****         pBox->pKps[j].x = (pAnchors[i*2+0] * width  + pRawBoxes[i * in_struct_size + AI_PD_MODEL_PP
 803              		.loc 1 114 7 is_stmt 1 view .LVU266
 804              	.LBB60:
 114:Lib/lib_vision_models_pp/lib_vision_models_pp/Src/pd_pp_model.c ****         pBox->pKps[j].x = (pAnchors[i*2+0] * width  + pRawBoxes[i * in_struct_size + AI_PD_MODEL_PP
 805              		.loc 1 114 12 view .LVU267
 806              	.LVL44:
 114:Lib/lib_vision_models_pp/lib_vision_models_pp/Src/pd_pp_model.c ****         pBox->pKps[j].x = (pAnchors[i*2+0] * width  + pRawBoxes[i * in_struct_size + AI_PD_MODEL_PP
 807              		.loc 1 114 7 is_stmt 0 view .LVU268
 808 00e4 1822     		movs	r2, #24
 114:Lib/lib_vision_models_pp/lib_vision_models_pp/Src/pd_pp_model.c ****         pBox->pKps[j].x = (pAnchors[i*2+0] * width  + pRawBoxes[i * in_struct_size + AI_PD_MODEL_PP
 809              		.loc 1 114 21 view .LVU269
 810 00e6 0AF1010C 		add	ip, r10, #1
 811              	.LVL45:
 812              	.L53:
 114:Lib/lib_vision_models_pp/lib_vision_models_pp/Src/pd_pp_model.c ****         pBox->pKps[j].x = (pAnchors[i*2+0] * width  + pRawBoxes[i * in_struct_size + AI_PD_MODEL_PP
 813              		.loc 1 114 30 is_stmt 1 discriminator 1 view .LVU270
 814 00ea BCF1010C 		subs	ip, ip, #1
 815 00ee 00F10800 		add	r0, r0, #8
 816 00f2 09D1     		bne	.L54
 817              	.LBE60:
 119:Lib/lib_vision_models_pp/lib_vision_models_pp/Src/pd_pp_model.c ****       if (box_nb >= pInput_static_param->max_boxes_limit) {
 818              		.loc 1 119 7 view .LVU271
 120:Lib/lib_vision_models_pp/lib_vision_models_pp/Src/pd_pp_model.c ****         break;
 819              		.loc 1 120 10 is_stmt 0 view .LVU272
 820 00f4 A369     		ldr	r3, [r4, #24]
 119:Lib/lib_vision_models_pp/lib_vision_models_pp/Src/pd_pp_model.c ****       if (box_nb >= pInput_static_param->max_boxes_limit) {
 821              		.loc 1 119 13 view .LVU273
 822 00f6 09F10109 		add	r9, r9, #1
 823              	.LVL46:
 120:Lib/lib_vision_models_pp/lib_vision_models_pp/Src/pd_pp_model.c ****         break;
 824              		.loc 1 120 7 is_stmt 1 view .LVU274
 120:Lib/lib_vision_models_pp/lib_vision_models_pp/Src/pd_pp_model.c ****         break;
 825              		.loc 1 120 10 is_stmt 0 view .LVU275
 826 00fa 9945     		cmp	r9, r3
 827 00fc ADD2     		bcs	.L55
 828              	.LVL47:
ARM GAS  /tmp/ccXOK4tq.s 			page 24


 829              	.L51:
 120:Lib/lib_vision_models_pp/lib_vision_models_pp/Src/pd_pp_model.c ****         break;
 830              		.loc 1 120 10 view .LVU276
 831              	.LBE62:
 101:Lib/lib_vision_models_pp/lib_vision_models_pp/Src/pd_pp_model.c ****     pd_pp_box_t *pBox = &pBoxes[box_nb]; //&pd_boxes[box_nb];
 832              		.loc 1 101 66 is_stmt 1 discriminator 2 view .LVU277
 833 00fe 029B     		ldr	r3, [sp, #8]
 834 0100 0137     		adds	r7, r7, #1
 835              	.LVL48:
 101:Lib/lib_vision_models_pp/lib_vision_models_pp/Src/pd_pp_model.c ****     pd_pp_box_t *pBox = &pBoxes[box_nb]; //&pd_boxes[box_nb];
 836              		.loc 1 101 66 is_stmt 0 discriminator 2 view .LVU278
 837 0102 1D44     		add	r5, r5, r3
 838 0104 0836     		adds	r6, r6, #8
 839 0106 A5E7     		b	.L50
 840              	.LVL49:
 841              	.L54:
 842              	.LBB63:
 843              	.LBB61:
 115:Lib/lib_vision_models_pp/lib_vision_models_pp/Src/pd_pp_model.c ****         pBox->pKps[j].y = (pAnchors[i*2+1] * height + pRawBoxes[i * in_struct_size + AI_PD_MODEL_PP
 844              		.loc 1 115 9 is_stmt 1 view .LVU279
 115:Lib/lib_vision_models_pp/lib_vision_models_pp/Src/pd_pp_model.c ****         pBox->pKps[j].y = (pAnchors[i*2+1] * height + pRawBoxes[i * in_struct_size + AI_PD_MODEL_PP
 845              		.loc 1 115 53 is_stmt 0 view .LVU280
 846 0108 96ED007A 		vldr.32	s14, [r6]
 847 010c D0ED027A 		vldr.32	s15, [r0, #8]
 848 0110 E8EE077A 		vfma.f32	s15, s16, s14
 115:Lib/lib_vision_models_pp/lib_vision_models_pp/Src/pd_pp_model.c ****         pBox->pKps[j].y = (pAnchors[i*2+1] * height + pRawBoxes[i * in_struct_size + AI_PD_MODEL_PP
 849              		.loc 1 115 127 view .LVU281
 850 0114 87EE887A 		vdiv.f32	s14, s15, s16
 115:Lib/lib_vision_models_pp/lib_vision_models_pp/Src/pd_pp_model.c ****         pBox->pKps[j].y = (pAnchors[i*2+1] * height + pRawBoxes[i * in_struct_size + AI_PD_MODEL_PP
 851              		.loc 1 115 19 view .LVU282
 852 0118 4B69     		ldr	r3, [r1, #20]
 853 011a 03EBCE03 		add	r3, r3, lr, lsl #3
 115:Lib/lib_vision_models_pp/lib_vision_models_pp/Src/pd_pp_model.c ****         pBox->pKps[j].y = (pAnchors[i*2+1] * height + pRawBoxes[i * in_struct_size + AI_PD_MODEL_PP
 854              		.loc 1 115 25 view .LVU283
 855 011e 83ED007A 		vstr.32	s14, [r3]
 116:Lib/lib_vision_models_pp/lib_vision_models_pp/Src/pd_pp_model.c ****      }
 856              		.loc 1 116 9 is_stmt 1 view .LVU284
 116:Lib/lib_vision_models_pp/lib_vision_models_pp/Src/pd_pp_model.c ****      }
 857              		.loc 1 116 53 is_stmt 0 view .LVU285
 858 0122 96ED017A 		vldr.32	s14, [r6, #4]
 859 0126 D0ED037A 		vldr.32	s15, [r0, #12]
 860 012a E8EE877A 		vfma.f32	s15, s17, s14
 116:Lib/lib_vision_models_pp/lib_vision_models_pp/Src/pd_pp_model.c ****      }
 861              		.loc 1 116 127 view .LVU286
 862 012e 87EEA87A 		vdiv.f32	s14, s15, s17
 114:Lib/lib_vision_models_pp/lib_vision_models_pp/Src/pd_pp_model.c ****         pBox->pKps[j].x = (pAnchors[i*2+0] * width  + pRawBoxes[i * in_struct_size + AI_PD_MODEL_PP
 863              		.loc 1 114 68 discriminator 3 view .LVU287
 864 0132 0EF1010E 		add	lr, lr, #1
 865              	.LVL50:
 116:Lib/lib_vision_models_pp/lib_vision_models_pp/Src/pd_pp_model.c ****      }
 866              		.loc 1 116 25 view .LVU288
 867 0136 83ED017A 		vstr.32	s14, [r3, #4]
 114:Lib/lib_vision_models_pp/lib_vision_models_pp/Src/pd_pp_model.c ****         pBox->pKps[j].x = (pAnchors[i*2+0] * width  + pRawBoxes[i * in_struct_size + AI_PD_MODEL_PP
 868              		.loc 1 114 68 is_stmt 1 discriminator 3 view .LVU289
 869              	.LVL51:
 114:Lib/lib_vision_models_pp/lib_vision_models_pp/Src/pd_pp_model.c ****         pBox->pKps[j].x = (pAnchors[i*2+0] * width  + pRawBoxes[i * in_struct_size + AI_PD_MODEL_PP
 870              		.loc 1 114 68 is_stmt 0 discriminator 3 view .LVU290
ARM GAS  /tmp/ccXOK4tq.s 			page 25


 871 013a D6E7     		b	.L53
 872              	.LBE61:
 873              	.LBE63:
 874              	.LBE65:
 875              	.LBE72:
 876              	.LBE79:
 877              		.cfi_endproc
 878              	.LFE2652:
 880              		.section	.text.pd_model_pp_process_int8,"ax",%progbits
 881              		.align	1
 882              		.global	pd_model_pp_process_int8
 883              		.syntax unified
 884              		.thumb
 885              		.thumb_func
 887              	pd_model_pp_process_int8:
 888              	.LVL52:
 889              	.LFB2653:
 252:Lib/lib_vision_models_pp/lib_vision_models_pp/Src/pd_pp_model.c **** 
 253:Lib/lib_vision_models_pp/lib_vision_models_pp/Src/pd_pp_model.c **** int32_t pd_model_pp_process_int8(pd_model_pp_in_t *pInput,
 254:Lib/lib_vision_models_pp/lib_vision_models_pp/Src/pd_pp_model.c ****                             pd_pp_out_t *pOutput,
 255:Lib/lib_vision_models_pp/lib_vision_models_pp/Src/pd_pp_model.c ****                             pd_model_pp_static_param_t *pInput_static_param)
 256:Lib/lib_vision_models_pp/lib_vision_models_pp/Src/pd_pp_model.c **** {
 890              		.loc 1 256 1 is_stmt 1 view -0
 891              		.cfi_startproc
 892              		@ args = 0, pretend = 0, frame = 24
 893              		@ frame_needed = 0, uses_anonymous_args = 0
 257:Lib/lib_vision_models_pp/lib_vision_models_pp/Src/pd_pp_model.c ****   int32_t ret = AI_PD_POSTPROCESS_ERROR;
 894              		.loc 1 257 3 view .LVU292
 258:Lib/lib_vision_models_pp/lib_vision_models_pp/Src/pd_pp_model.c ****   ret = pd_pp_decode_int8(pInput,
 895              		.loc 1 258 3 view .LVU293
 896              	.LBB86:
 897              	.LBI86:
 130:Lib/lib_vision_models_pp/lib_vision_models_pp/Src/pd_pp_model.c ****                             pd_pp_out_t *pOutput,
 898              		.loc 1 130 16 view .LVU294
 899              	.LBB87:
 134:Lib/lib_vision_models_pp/lib_vision_models_pp/Src/pd_pp_model.c **** 
 900              		.loc 1 134 3 view .LVU295
 137:Lib/lib_vision_models_pp/lib_vision_models_pp/Src/pd_pp_model.c ****   float32_t height = pInput_static_param->height;
 901              		.loc 1 137 13 is_stmt 0 view .LVU296
 902 0000 D2ED007A 		vldr.32	s15, [r2]	@ int
 903              	.LBE87:
 904              	.LBE86:
 256:Lib/lib_vision_models_pp/lib_vision_models_pp/Src/pd_pp_model.c ****   int32_t ret = AI_PD_POSTPROCESS_ERROR;
 905              		.loc 1 256 1 view .LVU297
 906 0004 2DE9F04F 		push	{r4, r5, r6, r7, r8, r9, r10, fp, lr}
 907              		.cfi_def_cfa_offset 36
 908              		.cfi_offset 4, -36
 909              		.cfi_offset 5, -32
 910              		.cfi_offset 6, -28
 911              		.cfi_offset 7, -24
 912              		.cfi_offset 8, -20
 913              		.cfi_offset 9, -16
 914              		.cfi_offset 10, -12
 915              		.cfi_offset 11, -8
 916              		.cfi_offset 14, -4
 917 0008 2DED068B 		vpush.64	{d8, d9, d10}
 918              		.cfi_def_cfa_offset 60
ARM GAS  /tmp/ccXOK4tq.s 			page 26


 919              		.cfi_offset 80, -60
 920              		.cfi_offset 81, -56
 921              		.cfi_offset 82, -52
 922              		.cfi_offset 83, -48
 923              		.cfi_offset 84, -44
 924              		.cfi_offset 85, -40
 925              	.LBB106:
 926              	.LBB100:
 137:Lib/lib_vision_models_pp/lib_vision_models_pp/Src/pd_pp_model.c ****   float32_t height = pInput_static_param->height;
 927              		.loc 1 137 13 view .LVU298
 928 000c B8EE678A 		vcvt.f32.u32	s16, s15
 138:Lib/lib_vision_models_pp/lib_vision_models_pp/Src/pd_pp_model.c ****   int8_t *pRawBoxes = (int8_t *)pInput->pBoxes;
 929              		.loc 1 138 13 view .LVU299
 930 0010 D2ED017A 		vldr.32	s15, [r2, #4]	@ int
 150:Lib/lib_vision_models_pp/lib_vision_models_pp/Src/pd_pp_model.c ****   int8_t threshold_s8  = (int8_t)(computedThreshold / proba_scale + 0.5 + proba_zp);
 931              		.loc 1 150 45 view .LVU300
 932 0014 F7EE00AA 		vmov.f32	s21, #1.0e+0
 138:Lib/lib_vision_models_pp/lib_vision_models_pp/Src/pd_pp_model.c ****   int8_t *pRawBoxes = (int8_t *)pInput->pBoxes;
 933              		.loc 1 138 13 view .LVU301
 934 0018 F8EE679A 		vcvt.f32.u32	s19, s15
 150:Lib/lib_vision_models_pp/lib_vision_models_pp/Src/pd_pp_model.c ****   int8_t threshold_s8  = (int8_t)(computedThreshold / proba_scale + 0.5 + proba_zp);
 935              		.loc 1 150 45 view .LVU302
 936 001c D2ED037A 		vldr.32	s15, [r2, #12]
 134:Lib/lib_vision_models_pp/lib_vision_models_pp/Src/pd_pp_model.c **** 
 937              		.loc 1 134 19 view .LVU303
 938 0020 0026     		movs	r6, #0
 150:Lib/lib_vision_models_pp/lib_vision_models_pp/Src/pd_pp_model.c ****   int8_t threshold_s8  = (int8_t)(computedThreshold / proba_scale + 0.5 + proba_zp);
 939              		.loc 1 150 45 view .LVU304
 940 0022 8AEEA70A 		vdiv.f32	s0, s21, s15
 136:Lib/lib_vision_models_pp/lib_vision_models_pp/Src/pd_pp_model.c ****   float32_t width  = pInput_static_param->width;
 941              		.loc 1 136 16 view .LVU305
 942 0026 0B68     		ldr	r3, [r1]
 943              	.LBE100:
 944              	.LBE106:
 256:Lib/lib_vision_models_pp/lib_vision_models_pp/Src/pd_pp_model.c ****   int32_t ret = AI_PD_POSTPROCESS_ERROR;
 945              		.loc 1 256 1 view .LVU306
 946 0028 87B0     		sub	sp, sp, #28
 947              		.cfi_def_cfa_offset 88
 948              	.LBB107:
 949              	.LBB101:
 134:Lib/lib_vision_models_pp/lib_vision_models_pp/Src/pd_pp_model.c **** 
 950              		.loc 1 134 19 view .LVU307
 951 002a 4E60     		str	r6, [r1, #4]
 136:Lib/lib_vision_models_pp/lib_vision_models_pp/Src/pd_pp_model.c ****   float32_t width  = pInput_static_param->width;
 952              		.loc 1 136 3 is_stmt 1 view .LVU308
 136:Lib/lib_vision_models_pp/lib_vision_models_pp/Src/pd_pp_model.c ****   float32_t width  = pInput_static_param->width;
 953              		.loc 1 136 16 is_stmt 0 view .LVU309
 954 002c 0193     		str	r3, [sp, #4]
 955              	.LVL53:
 137:Lib/lib_vision_models_pp/lib_vision_models_pp/Src/pd_pp_model.c ****   float32_t height = pInput_static_param->height;
 956              		.loc 1 137 3 is_stmt 1 view .LVU310
 138:Lib/lib_vision_models_pp/lib_vision_models_pp/Src/pd_pp_model.c ****   int8_t *pRawBoxes = (int8_t *)pInput->pBoxes;
 957              		.loc 1 138 3 view .LVU311
 139:Lib/lib_vision_models_pp/lib_vision_models_pp/Src/pd_pp_model.c ****   int8_t *pRawProbs = (int8_t *)pInput->pProbs;
 958              		.loc 1 139 3 view .LVU312
 140:Lib/lib_vision_models_pp/lib_vision_models_pp/Src/pd_pp_model.c ****   float32_t *pAnchors  = (float32_t *)pInput_static_param->pAnchors;
 959              		.loc 1 140 11 is_stmt 0 view .LVU313
ARM GAS  /tmp/ccXOK4tq.s 			page 27


 960 002e D0E90035 		ldrd	r3, r5, [r0]
 961              	.LVL54:
 140:Lib/lib_vision_models_pp/lib_vision_models_pp/Src/pd_pp_model.c ****   float32_t *pAnchors  = (float32_t *)pInput_static_param->pAnchors;
 962              		.loc 1 140 11 view .LVU314
 963 0032 0293     		str	r3, [sp, #8]
 964              	.LVL55:
 141:Lib/lib_vision_models_pp/lib_vision_models_pp/Src/pd_pp_model.c **** 
 965              		.loc 1 141 3 is_stmt 1 view .LVU315
 146:Lib/lib_vision_models_pp/lib_vision_models_pp/Src/pd_pp_model.c **** 
 966              		.loc 1 146 10 is_stmt 0 view .LVU316
 967 0034 92F92930 		ldrsb	r3, [r2, #41]
 968              	.LVL56:
 150:Lib/lib_vision_models_pp/lib_vision_models_pp/Src/pd_pp_model.c ****   int8_t threshold_s8  = (int8_t)(computedThreshold / proba_scale + 0.5 + proba_zp);
 969              		.loc 1 150 34 view .LVU317
 970 0038 30EE6A0A 		vsub.f32	s0, s0, s21
 144:Lib/lib_vision_models_pp/lib_vision_models_pp/Src/pd_pp_model.c ****   int8_t boxe_zp = pInput_static_param->boxe_zp;
 971              		.loc 1 144 13 view .LVU318
 972 003c D2ED098A 		vldr.32	s17, [r2, #36]
 146:Lib/lib_vision_models_pp/lib_vision_models_pp/Src/pd_pp_model.c **** 
 973              		.loc 1 146 10 view .LVU319
 974 0040 09EE103A 		vmov	s18, r3	@ int
 148:Lib/lib_vision_models_pp/lib_vision_models_pp/Src/pd_pp_model.c ****   size_t box_nb = 0;
 975              		.loc 1 148 57 view .LVU320
 976 0044 D2F808A0 		ldr	r10, [r2, #8]
 977              	.LBE101:
 978              	.LBE107:
 256:Lib/lib_vision_models_pp/lib_vision_models_pp/Src/pd_pp_model.c ****   int32_t ret = AI_PD_POSTPROCESS_ERROR;
 979              		.loc 1 256 1 view .LVU321
 980 0048 1446     		mov	r4, r2
 981              	.LBB108:
 982              	.LBB102:
 143:Lib/lib_vision_models_pp/lib_vision_models_pp/Src/pd_pp_model.c ****   float32_t proba_scale = pInput_static_param->proba_scale;
 983              		.loc 1 143 13 view .LVU322
 984 004a 92ED08AA 		vldr.32	s20, [r2, #32]
 141:Lib/lib_vision_models_pp/lib_vision_models_pp/Src/pd_pp_model.c **** 
 985              		.loc 1 141 14 view .LVU323
 986 004e D2F81C90 		ldr	r9, [r2, #28]
 987              	.LVL57:
 143:Lib/lib_vision_models_pp/lib_vision_models_pp/Src/pd_pp_model.c ****   float32_t proba_scale = pInput_static_param->proba_scale;
 988              		.loc 1 143 3 is_stmt 1 view .LVU324
 144:Lib/lib_vision_models_pp/lib_vision_models_pp/Src/pd_pp_model.c ****   int8_t boxe_zp = pInput_static_param->boxe_zp;
 989              		.loc 1 144 3 view .LVU325
 145:Lib/lib_vision_models_pp/lib_vision_models_pp/Src/pd_pp_model.c ****   int8_t proba_zp = pInput_static_param->proba_zp;
 990              		.loc 1 145 3 view .LVU326
 145:Lib/lib_vision_models_pp/lib_vision_models_pp/Src/pd_pp_model.c ****   int8_t proba_zp = pInput_static_param->proba_zp;
 991              		.loc 1 145 10 is_stmt 0 view .LVU327
 992 0052 92F92880 		ldrsb	r8, [r2, #40]
 993              	.LVL58:
 146:Lib/lib_vision_models_pp/lib_vision_models_pp/Src/pd_pp_model.c **** 
 994              		.loc 1 146 3 is_stmt 1 view .LVU328
 148:Lib/lib_vision_models_pp/lib_vision_models_pp/Src/pd_pp_model.c ****   size_t box_nb = 0;
 995              		.loc 1 148 3 view .LVU329
 149:Lib/lib_vision_models_pp/lib_vision_models_pp/Src/pd_pp_model.c ****   float32_t computedThreshold = -logf( 1.0f / pInput_static_param->conf_threshold - 1);
 996              		.loc 1 149 3 view .LVU330
 150:Lib/lib_vision_models_pp/lib_vision_models_pp/Src/pd_pp_model.c ****   int8_t threshold_s8  = (int8_t)(computedThreshold / proba_scale + 0.5 + proba_zp);
 997              		.loc 1 150 3 view .LVU331
 998              	.LBE102:
ARM GAS  /tmp/ccXOK4tq.s 			page 28


 999              	.LBE108:
 256:Lib/lib_vision_models_pp/lib_vision_models_pp/Src/pd_pp_model.c ****   int32_t ret = AI_PD_POSTPROCESS_ERROR;
 1000              		.loc 1 256 1 is_stmt 0 view .LVU332
 1001 0056 0F46     		mov	r7, r1
 1002              	.LBB109:
 1003              	.LBB103:
 150:Lib/lib_vision_models_pp/lib_vision_models_pp/Src/pd_pp_model.c ****   int8_t threshold_s8  = (int8_t)(computedThreshold / proba_scale + 0.5 + proba_zp);
 1004              		.loc 1 150 34 view .LVU333
 1005 0058 FFF7FEFF 		bl	logf
 1006              	.LVL59:
 151:Lib/lib_vision_models_pp/lib_vision_models_pp/Src/pd_pp_model.c **** 
 1007              		.loc 1 151 3 is_stmt 1 view .LVU334
 150:Lib/lib_vision_models_pp/lib_vision_models_pp/Src/pd_pp_model.c ****   int8_t threshold_s8  = (int8_t)(computedThreshold / proba_scale + 0.5 + proba_zp);
 1008              		.loc 1 150 13 is_stmt 0 discriminator 1 view .LVU335
 1009 005c B1EE400A 		vneg.f32	s0, s0
 1010              	.LVL60:
 151:Lib/lib_vision_models_pp/lib_vision_models_pp/Src/pd_pp_model.c **** 
 1011              		.loc 1 151 53 view .LVU336
 1012 0060 80EE287A 		vdiv.f32	s14, s0, s17
 151:Lib/lib_vision_models_pp/lib_vision_models_pp/Src/pd_pp_model.c **** 
 1013              		.loc 1 151 67 view .LVU337
 1014 0064 B6EE006B 		vmov.f64	d6, #5.0e-1
 151:Lib/lib_vision_models_pp/lib_vision_models_pp/Src/pd_pp_model.c **** 
 1015              		.loc 1 151 53 view .LVU338
 1016 0068 B7EEC77A 		vcvt.f64.f32	d7, s14
 151:Lib/lib_vision_models_pp/lib_vision_models_pp/Src/pd_pp_model.c **** 
 1017              		.loc 1 151 67 view .LVU339
 1018 006c 37EE067B 		vadd.f64	d7, d7, d6
 151:Lib/lib_vision_models_pp/lib_vision_models_pp/Src/pd_pp_model.c **** 
 1019              		.loc 1 151 73 view .LVU340
 1020 0070 B8EEC96B 		vcvt.f64.s32	d6, s18
 1021 0074 37EE067B 		vadd.f64	d7, d7, d6
 151:Lib/lib_vision_models_pp/lib_vision_models_pp/Src/pd_pp_model.c **** 
 1022              		.loc 1 151 10 view .LVU341
 1023 0078 FDEEC77B 		vcvt.s32.f64	s15, d7
 1024 007c CDED037A 		vstr.32	s15, [sp, #12]	@ int
 149:Lib/lib_vision_models_pp/lib_vision_models_pp/Src/pd_pp_model.c ****   float32_t computedThreshold = -logf( 1.0f / pInput_static_param->conf_threshold - 1);
 1025              		.loc 1 149 10 view .LVU342
 1026 0080 3246     		mov	r2, r6
 151:Lib/lib_vision_models_pp/lib_vision_models_pp/Src/pd_pp_model.c **** 
 1027              		.loc 1 151 10 view .LVU343
 1028 0082 9DF90C30 		ldrsb	r3, [sp, #12]
 1029 0086 0393     		str	r3, [sp, #12]
 1030              	.LVL61:
 153:Lib/lib_vision_models_pp/lib_vision_models_pp/Src/pd_pp_model.c ****     pd_pp_box_t *pBox = &pBoxes[box_nb]; //&pd_boxes[box_nb];
 1031              		.loc 1 153 3 is_stmt 1 view .LVU344
 1032              	.LBB88:
 153:Lib/lib_vision_models_pp/lib_vision_models_pp/Src/pd_pp_model.c ****     pd_pp_box_t *pBox = &pBoxes[box_nb]; //&pd_boxes[box_nb];
 1033              		.loc 1 153 8 view .LVU345
 153:Lib/lib_vision_models_pp/lib_vision_models_pp/Src/pd_pp_model.c ****     pd_pp_box_t *pBox = &pBoxes[box_nb]; //&pd_boxes[box_nb];
 1034              		.loc 1 153 8 is_stmt 0 view .LVU346
 1035              	.LBE88:
 148:Lib/lib_vision_models_pp/lib_vision_models_pp/Src/pd_pp_model.c ****   size_t box_nb = 0;
 1036              		.loc 1 148 73 view .LVU347
 1037 0088 0AF10203 		add	r3, r10, #2
 1038 008c 5B00     		lsls	r3, r3, #1
 1039              	.LVL62:
ARM GAS  /tmp/ccXOK4tq.s 			page 29


 148:Lib/lib_vision_models_pp/lib_vision_models_pp/Src/pd_pp_model.c ****   size_t box_nb = 0;
 1040              		.loc 1 148 73 view .LVU348
 1041 008e 0493     		str	r3, [sp, #16]
 1042              	.LVL63:
 1043              	.L59:
 1044              	.LBB98:
 153:Lib/lib_vision_models_pp/lib_vision_models_pp/Src/pd_pp_model.c ****     pd_pp_box_t *pBox = &pBoxes[box_nb]; //&pd_boxes[box_nb];
 1045              		.loc 1 153 26 is_stmt 1 discriminator 1 view .LVU349
 1046 0090 6369     		ldr	r3, [r4, #20]
 1047 0092 9E42     		cmp	r6, r3
 1048 0094 0AD3     		bcc	.L64
 1049              	.L63:
 153:Lib/lib_vision_models_pp/lib_vision_models_pp/Src/pd_pp_model.c ****     pd_pp_box_t *pBox = &pBoxes[box_nb]; //&pd_boxes[box_nb];
 1050              		.loc 1 153 26 is_stmt 0 discriminator 1 view .LVU350
 1051              	.LBE98:
 195:Lib/lib_vision_models_pp/lib_vision_models_pp/Src/pd_pp_model.c ****   return AI_PD_POSTPROCESS_ERROR_NO;
 1052              		.loc 1 195 3 is_stmt 1 view .LVU351
 1053              	.LBE103:
 1054              	.LBE109:
 259:Lib/lib_vision_models_pp/lib_vision_models_pp/Src/pd_pp_model.c ****                           pOutput,
 260:Lib/lib_vision_models_pp/lib_vision_models_pp/Src/pd_pp_model.c ****                           pInput_static_param);
 261:Lib/lib_vision_models_pp/lib_vision_models_pp/Src/pd_pp_model.c **** 
 262:Lib/lib_vision_models_pp/lib_vision_models_pp/Src/pd_pp_model.c ****   if (AI_PD_POSTPROCESS_ERROR_NO != ret) {
 263:Lib/lib_vision_models_pp/lib_vision_models_pp/Src/pd_pp_model.c ****     return ret;
 264:Lib/lib_vision_models_pp/lib_vision_models_pp/Src/pd_pp_model.c ****   }
 265:Lib/lib_vision_models_pp/lib_vision_models_pp/Src/pd_pp_model.c ****   pd_pp_nms(pOutput,
 1055              		.loc 1 265 3 is_stmt 0 view .LVU352
 1056 0096 3846     		mov	r0, r7
 1057 0098 2146     		mov	r1, r4
 1058              	.LBB110:
 1059              	.LBB104:
 195:Lib/lib_vision_models_pp/lib_vision_models_pp/Src/pd_pp_model.c ****   return AI_PD_POSTPROCESS_ERROR_NO;
 1060              		.loc 1 195 19 view .LVU353
 1061 009a 7A60     		str	r2, [r7, #4]
 196:Lib/lib_vision_models_pp/lib_vision_models_pp/Src/pd_pp_model.c **** }
 1062              		.loc 1 196 3 is_stmt 1 view .LVU354
 1063              	.LVL64:
 196:Lib/lib_vision_models_pp/lib_vision_models_pp/Src/pd_pp_model.c **** }
 1064              		.loc 1 196 3 is_stmt 0 view .LVU355
 1065              	.LBE104:
 1066              	.LBE110:
 262:Lib/lib_vision_models_pp/lib_vision_models_pp/Src/pd_pp_model.c ****     return ret;
 1067              		.loc 1 262 3 is_stmt 1 view .LVU356
 1068              		.loc 1 265 3 view .LVU357
 1069 009c FFF7FEFF 		bl	pd_pp_nms.isra.0
 1070              	.LVL65:
 266:Lib/lib_vision_models_pp/lib_vision_models_pp/Src/pd_pp_model.c ****             pInput_static_param);
 267:Lib/lib_vision_models_pp/lib_vision_models_pp/Src/pd_pp_model.c **** 
 268:Lib/lib_vision_models_pp/lib_vision_models_pp/Src/pd_pp_model.c ****   return ret;
 1071              		.loc 1 268 3 view .LVU358
 269:Lib/lib_vision_models_pp/lib_vision_models_pp/Src/pd_pp_model.c **** }
 1072              		.loc 1 269 1 is_stmt 0 view .LVU359
 1073 00a0 0020     		movs	r0, #0
 1074 00a2 07B0     		add	sp, sp, #28
 1075              		.cfi_remember_state
 1076              		.cfi_def_cfa_offset 60
 1077              		@ sp needed
ARM GAS  /tmp/ccXOK4tq.s 			page 30


 1078 00a4 BDEC068B 		vldm	sp!, {d8-d10}
 1079              		.cfi_restore 84
 1080              		.cfi_restore 85
 1081              		.cfi_restore 82
 1082              		.cfi_restore 83
 1083              		.cfi_restore 80
 1084              		.cfi_restore 81
 1085              		.cfi_def_cfa_offset 36
 1086 00a8 BDE8F08F 		pop	{r4, r5, r6, r7, r8, r9, r10, fp, pc}
 1087              	.LVL66:
 1088              	.L64:
 1089              		.cfi_restore_state
 1090              	.LBB111:
 1091              	.LBB105:
 1092              	.LBB99:
 1093              	.LBB89:
 154:Lib/lib_vision_models_pp/lib_vision_models_pp/Src/pd_pp_model.c **** 
 1094              		.loc 1 154 5 is_stmt 1 view .LVU360
 157:Lib/lib_vision_models_pp/lib_vision_models_pp/Src/pd_pp_model.c ****       float32_t value = (float32_t)((int32_t)pRawProbs[i] - proba_zp) * proba_scale;
 1095              		.loc 1 157 5 view .LVU361
 157:Lib/lib_vision_models_pp/lib_vision_models_pp/Src/pd_pp_model.c ****       float32_t value = (float32_t)((int32_t)pRawProbs[i] - proba_zp) * proba_scale;
 1096              		.loc 1 157 18 is_stmt 0 view .LVU362
 1097 00ac 029B     		ldr	r3, [sp, #8]
 157:Lib/lib_vision_models_pp/lib_vision_models_pp/Src/pd_pp_model.c ****       float32_t value = (float32_t)((int32_t)pRawProbs[i] - proba_zp) * proba_scale;
 1098              		.loc 1 157 8 view .LVU363
 1099 00ae 0399     		ldr	r1, [sp, #12]
 157:Lib/lib_vision_models_pp/lib_vision_models_pp/Src/pd_pp_model.c ****       float32_t value = (float32_t)((int32_t)pRawProbs[i] - proba_zp) * proba_scale;
 1100              		.loc 1 157 18 view .LVU364
 1101 00b0 9B57     		ldrsb	r3, [r3, r6]
 157:Lib/lib_vision_models_pp/lib_vision_models_pp/Src/pd_pp_model.c ****       float32_t value = (float32_t)((int32_t)pRawProbs[i] - proba_zp) * proba_scale;
 1102              		.loc 1 157 8 view .LVU365
 1103 00b2 9942     		cmp	r1, r3
 1104 00b4 68DC     		bgt	.L60
 154:Lib/lib_vision_models_pp/lib_vision_models_pp/Src/pd_pp_model.c **** 
 1105              		.loc 1 154 18 view .LVU366
 1106 00b6 1820     		movs	r0, #24
 1107 00b8 0199     		ldr	r1, [sp, #4]
 1108 00ba 0592     		str	r2, [sp, #20]
 1109              	.LBB90:
 158:Lib/lib_vision_models_pp/lib_vision_models_pp/Src/pd_pp_model.c ****       pBox->prob = 1.0f / (1.0f + expf(-value));
 1110              		.loc 1 158 7 is_stmt 1 view .LVU367
 1111              	.LVL67:
 159:Lib/lib_vision_models_pp/lib_vision_models_pp/Src/pd_pp_model.c ****       /* decode palm box */
 1112              		.loc 1 159 7 view .LVU368
 1113              	.LBE90:
 154:Lib/lib_vision_models_pp/lib_vision_models_pp/Src/pd_pp_model.c **** 
 1114              		.loc 1 154 18 is_stmt 0 view .LVU369
 1115 00bc 00FB021B 		mla	fp, r0, r2, r1
 1116              	.LBB95:
 158:Lib/lib_vision_models_pp/lib_vision_models_pp/Src/pd_pp_model.c ****       pBox->prob = 1.0f / (1.0f + expf(-value));
 1117              		.loc 1 158 59 view .LVU370
 1118 00c0 19EE102A 		vmov	r2, s18	@ int
 1119              	.LVL68:
 158:Lib/lib_vision_models_pp/lib_vision_models_pp/Src/pd_pp_model.c ****       pBox->prob = 1.0f / (1.0f + expf(-value));
 1120              		.loc 1 158 59 view .LVU371
 1121 00c4 9B1A     		subs	r3, r3, r2
 1122              	.LVL69:
ARM GAS  /tmp/ccXOK4tq.s 			page 31


 158:Lib/lib_vision_models_pp/lib_vision_models_pp/Src/pd_pp_model.c ****       pBox->prob = 1.0f / (1.0f + expf(-value));
 1123              		.loc 1 158 59 view .LVU372
 1124 00c6 00EE103A 		vmov	s0, r3	@ int
 158:Lib/lib_vision_models_pp/lib_vision_models_pp/Src/pd_pp_model.c ****       pBox->prob = 1.0f / (1.0f + expf(-value));
 1125              		.loc 1 158 25 view .LVU373
 1126 00ca B8EEC00A 		vcvt.f32.s32	s0, s0
 159:Lib/lib_vision_models_pp/lib_vision_models_pp/Src/pd_pp_model.c ****       /* decode palm box */
 1127              		.loc 1 159 35 view .LVU374
 1128 00ce 28EEC00A 		vnmul.f32	s0, s17, s0
 1129 00d2 FFF7FEFF 		bl	expf
 1130              	.LVL70:
 159:Lib/lib_vision_models_pp/lib_vision_models_pp/Src/pd_pp_model.c ****       /* decode palm box */
 1131              		.loc 1 159 33 discriminator 1 view .LVU375
 1132 00d6 30EE2A0A 		vadd.f32	s0, s0, s21
 159:Lib/lib_vision_models_pp/lib_vision_models_pp/Src/pd_pp_model.c ****       /* decode palm box */
 1133              		.loc 1 159 25 discriminator 1 view .LVU376
 1134 00da CAEE807A 		vdiv.f32	s15, s21, s0
 159:Lib/lib_vision_models_pp/lib_vision_models_pp/Src/pd_pp_model.c ****       /* decode palm box */
 1135              		.loc 1 159 18 discriminator 1 view .LVU377
 1136 00de CBED007A 		vstr.32	s15, [fp]
 161:Lib/lib_vision_models_pp/lib_vision_models_pp/Src/pd_pp_model.c **** 
 1137              		.loc 1 161 7 is_stmt 1 view .LVU378
 163:Lib/lib_vision_models_pp/lib_vision_models_pp/Src/pd_pp_model.c ****       anchor_x = pAnchors[i*2+0];
 1138              		.loc 1 163 7 view .LVU379
 1139              	.LVL71:
 164:Lib/lib_vision_models_pp/lib_vision_models_pp/Src/pd_pp_model.c **** 
 1140              		.loc 1 164 7 view .LVU380
 166:Lib/lib_vision_models_pp/lib_vision_models_pp/Src/pd_pp_model.c **** 
 1141              		.loc 1 166 7 view .LVU381
 166:Lib/lib_vision_models_pp/lib_vision_models_pp/Src/pd_pp_model.c **** 
 1142              		.loc 1 166 34 is_stmt 0 view .LVU382
 1143 00e2 99ED007A 		vldr.32	s14, [r9]
 163:Lib/lib_vision_models_pp/lib_vision_models_pp/Src/pd_pp_model.c ****       anchor_x = pAnchors[i*2+0];
 1144              		.loc 1 163 27 view .LVU383
 1145 00e6 95F90030 		ldrsb	r3, [r5]
 166:Lib/lib_vision_models_pp/lib_vision_models_pp/Src/pd_pp_model.c **** 
 1146              		.loc 1 166 34 view .LVU384
 1147 00ea 28EE077A 		vmul.f32	s14, s16, s14
 163:Lib/lib_vision_models_pp/lib_vision_models_pp/Src/pd_pp_model.c ****       anchor_x = pAnchors[i*2+0];
 1148              		.loc 1 163 91 view .LVU385
 1149 00ee A3EB0803 		sub	r3, r3, r8
 163:Lib/lib_vision_models_pp/lib_vision_models_pp/Src/pd_pp_model.c ****       anchor_x = pAnchors[i*2+0];
 1150              		.loc 1 163 15 view .LVU386
 1151 00f2 07EE903A 		vmov	s15, r3	@ int
 166:Lib/lib_vision_models_pp/lib_vision_models_pp/Src/pd_pp_model.c **** 
 1152              		.loc 1 166 43 view .LVU387
 1153 00f6 F0EE476A 		vmov.f32	s13, s14
 163:Lib/lib_vision_models_pp/lib_vision_models_pp/Src/pd_pp_model.c ****       anchor_x = pAnchors[i*2+0];
 1154              		.loc 1 163 15 view .LVU388
 1155 00fa F8EEE77A 		vcvt.f32.s32	s15, s15
 166:Lib/lib_vision_models_pp/lib_vision_models_pp/Src/pd_pp_model.c **** 
 1156              		.loc 1 166 43 view .LVU389
 1157 00fe EAEE276A 		vfma.f32	s13, s20, s15
 166:Lib/lib_vision_models_pp/lib_vision_models_pp/Src/pd_pp_model.c **** 
 1158              		.loc 1 166 52 view .LVU390
 1159 0102 C6EE887A 		vdiv.f32	s15, s13, s16
 166:Lib/lib_vision_models_pp/lib_vision_models_pp/Src/pd_pp_model.c **** 
ARM GAS  /tmp/ccXOK4tq.s 			page 32


 1160              		.loc 1 166 22 view .LVU391
 1161 0106 CBED017A 		vstr.32	s15, [fp, #4]
 1162              	.LVL72:
 168:Lib/lib_vision_models_pp/lib_vision_models_pp/Src/pd_pp_model.c ****       anchor_y = pAnchors[i*2+1];
 1163              		.loc 1 168 7 is_stmt 1 view .LVU392
 169:Lib/lib_vision_models_pp/lib_vision_models_pp/Src/pd_pp_model.c **** 
 1164              		.loc 1 169 7 view .LVU393
 171:Lib/lib_vision_models_pp/lib_vision_models_pp/Src/pd_pp_model.c **** 
 1165              		.loc 1 171 7 view .LVU394
 171:Lib/lib_vision_models_pp/lib_vision_models_pp/Src/pd_pp_model.c **** 
 1166              		.loc 1 171 34 is_stmt 0 view .LVU395
 1167 010a D9ED016A 		vldr.32	s13, [r9, #4]
 168:Lib/lib_vision_models_pp/lib_vision_models_pp/Src/pd_pp_model.c ****       anchor_y = pAnchors[i*2+1];
 1168              		.loc 1 168 27 view .LVU396
 1169 010e 95F90130 		ldrsb	r3, [r5, #1]
 171:Lib/lib_vision_models_pp/lib_vision_models_pp/Src/pd_pp_model.c **** 
 1170              		.loc 1 171 34 view .LVU397
 1171 0112 69EEA66A 		vmul.f32	s13, s19, s13
 168:Lib/lib_vision_models_pp/lib_vision_models_pp/Src/pd_pp_model.c ****       anchor_y = pAnchors[i*2+1];
 1172              		.loc 1 168 91 view .LVU398
 1173 0116 A3EB0803 		sub	r3, r3, r8
 168:Lib/lib_vision_models_pp/lib_vision_models_pp/Src/pd_pp_model.c ****       anchor_y = pAnchors[i*2+1];
 1174              		.loc 1 168 15 view .LVU399
 1175 011a 07EE903A 		vmov	s15, r3	@ int
 171:Lib/lib_vision_models_pp/lib_vision_models_pp/Src/pd_pp_model.c **** 
 1176              		.loc 1 171 43 view .LVU400
 1177 011e B0EE666A 		vmov.f32	s12, s13
 168:Lib/lib_vision_models_pp/lib_vision_models_pp/Src/pd_pp_model.c ****       anchor_y = pAnchors[i*2+1];
 1178              		.loc 1 168 15 view .LVU401
 1179 0122 F8EEE77A 		vcvt.f32.s32	s15, s15
 171:Lib/lib_vision_models_pp/lib_vision_models_pp/Src/pd_pp_model.c **** 
 1180              		.loc 1 171 43 view .LVU402
 1181 0126 AAEE276A 		vfma.f32	s12, s20, s15
 171:Lib/lib_vision_models_pp/lib_vision_models_pp/Src/pd_pp_model.c **** 
 1182              		.loc 1 171 52 view .LVU403
 1183 012a C6EE297A 		vdiv.f32	s15, s12, s19
 171:Lib/lib_vision_models_pp/lib_vision_models_pp/Src/pd_pp_model.c **** 
 1184              		.loc 1 171 22 view .LVU404
 1185 012e CBED027A 		vstr.32	s15, [fp, #8]
 1186              	.LVL73:
 173:Lib/lib_vision_models_pp/lib_vision_models_pp/Src/pd_pp_model.c ****       pBox->width = value  / width;
 1187              		.loc 1 173 7 is_stmt 1 view .LVU405
 174:Lib/lib_vision_models_pp/lib_vision_models_pp/Src/pd_pp_model.c **** 
 1188              		.loc 1 174 7 view .LVU406
 173:Lib/lib_vision_models_pp/lib_vision_models_pp/Src/pd_pp_model.c ****       pBox->width = value  / width;
 1189              		.loc 1 173 27 is_stmt 0 view .LVU407
 1190 0132 95F90230 		ldrsb	r3, [r5, #2]
 1191              	.LBB91:
 180:Lib/lib_vision_models_pp/lib_vision_models_pp/Src/pd_pp_model.c ****         value = (float32_t)((int32_t)pRawBoxes[i * in_struct_size + AI_PD_MODEL_PP_KEYPOINTS + (2 *
 1192              		.loc 1 180 7 view .LVU408
 1193 0136 2846     		mov	r0, r5
 1194              	.LBE91:
 173:Lib/lib_vision_models_pp/lib_vision_models_pp/Src/pd_pp_model.c ****       pBox->width = value  / width;
 1195              		.loc 1 173 92 view .LVU409
 1196 0138 A3EB0803 		sub	r3, r3, r8
 1197 013c 07EE903A 		vmov	s15, r3	@ int
 173:Lib/lib_vision_models_pp/lib_vision_models_pp/Src/pd_pp_model.c ****       pBox->width = value  / width;
ARM GAS  /tmp/ccXOK4tq.s 			page 33


 1198              		.loc 1 173 15 view .LVU410
 1199 0140 F8EEE77A 		vcvt.f32.s32	s15, s15
 173:Lib/lib_vision_models_pp/lib_vision_models_pp/Src/pd_pp_model.c ****       pBox->width = value  / width;
 1200              		.loc 1 173 13 view .LVU411
 1201 0144 67EE8A7A 		vmul.f32	s15, s15, s20
 174:Lib/lib_vision_models_pp/lib_vision_models_pp/Src/pd_pp_model.c **** 
 1202              		.loc 1 174 28 view .LVU412
 1203 0148 87EE886A 		vdiv.f32	s12, s15, s16
 174:Lib/lib_vision_models_pp/lib_vision_models_pp/Src/pd_pp_model.c **** 
 1204              		.loc 1 174 19 view .LVU413
 1205 014c 8BED036A 		vstr.32	s12, [fp, #12]
 1206              	.LVL74:
 176:Lib/lib_vision_models_pp/lib_vision_models_pp/Src/pd_pp_model.c ****       pBox->height = value / height;
 1207              		.loc 1 176 7 is_stmt 1 view .LVU414
 177:Lib/lib_vision_models_pp/lib_vision_models_pp/Src/pd_pp_model.c **** 
 1208              		.loc 1 177 7 view .LVU415
 176:Lib/lib_vision_models_pp/lib_vision_models_pp/Src/pd_pp_model.c ****       pBox->height = value / height;
 1209              		.loc 1 176 27 is_stmt 0 view .LVU416
 1210 0150 95F90330 		ldrsb	r3, [r5, #3]
 1211              	.LBB92:
 180:Lib/lib_vision_models_pp/lib_vision_models_pp/Src/pd_pp_model.c ****         value = (float32_t)((int32_t)pRawBoxes[i * in_struct_size + AI_PD_MODEL_PP_KEYPOINTS + (2 *
 1212              		.loc 1 180 21 view .LVU417
 1213 0154 4FF0000E 		mov	lr, #0
 1214              	.LBE92:
 176:Lib/lib_vision_models_pp/lib_vision_models_pp/Src/pd_pp_model.c ****       pBox->height = value / height;
 1215              		.loc 1 176 93 view .LVU418
 1216 0158 A3EB0803 		sub	r3, r3, r8
 1217 015c 07EE903A 		vmov	s15, r3	@ int
 176:Lib/lib_vision_models_pp/lib_vision_models_pp/Src/pd_pp_model.c ****       pBox->height = value / height;
 1218              		.loc 1 176 15 view .LVU419
 1219 0160 F8EEE77A 		vcvt.f32.s32	s15, s15
 176:Lib/lib_vision_models_pp/lib_vision_models_pp/Src/pd_pp_model.c ****       pBox->height = value / height;
 1220              		.loc 1 176 13 view .LVU420
 1221 0164 67EE8A7A 		vmul.f32	s15, s15, s20
 177:Lib/lib_vision_models_pp/lib_vision_models_pp/Src/pd_pp_model.c **** 
 1222              		.loc 1 177 28 view .LVU421
 1223 0168 87EEA96A 		vdiv.f32	s12, s15, s19
 177:Lib/lib_vision_models_pp/lib_vision_models_pp/Src/pd_pp_model.c **** 
 1224              		.loc 1 177 20 view .LVU422
 1225 016c 8BED046A 		vstr.32	s12, [fp, #16]
 1226              	.LVL75:
 180:Lib/lib_vision_models_pp/lib_vision_models_pp/Src/pd_pp_model.c ****         value = (float32_t)((int32_t)pRawBoxes[i * in_struct_size + AI_PD_MODEL_PP_KEYPOINTS + (2 *
 1227              		.loc 1 180 7 is_stmt 1 view .LVU423
 1228              	.LBB93:
 180:Lib/lib_vision_models_pp/lib_vision_models_pp/Src/pd_pp_model.c ****         value = (float32_t)((int32_t)pRawBoxes[i * in_struct_size + AI_PD_MODEL_PP_KEYPOINTS + (2 *
 1229              		.loc 1 180 12 view .LVU424
 180:Lib/lib_vision_models_pp/lib_vision_models_pp/Src/pd_pp_model.c ****         value = (float32_t)((int32_t)pRawBoxes[i * in_struct_size + AI_PD_MODEL_PP_KEYPOINTS + (2 *
 1230              		.loc 1 180 7 is_stmt 0 view .LVU425
 1231 0170 059A     		ldr	r2, [sp, #20]
 180:Lib/lib_vision_models_pp/lib_vision_models_pp/Src/pd_pp_model.c ****         value = (float32_t)((int32_t)pRawBoxes[i * in_struct_size + AI_PD_MODEL_PP_KEYPOINTS + (2 *
 1232              		.loc 1 180 21 view .LVU426
 1233 0172 0AF1010C 		add	ip, r10, #1
 1234              	.LVL76:
 1235              	.L61:
 180:Lib/lib_vision_models_pp/lib_vision_models_pp/Src/pd_pp_model.c ****         value = (float32_t)((int32_t)pRawBoxes[i * in_struct_size + AI_PD_MODEL_PP_KEYPOINTS + (2 *
 1236              		.loc 1 180 30 is_stmt 1 discriminator 1 view .LVU427
 1237 0176 BCF1010C 		subs	ip, ip, #1
ARM GAS  /tmp/ccXOK4tq.s 			page 34


 1238 017a 00F10200 		add	r0, r0, #2
 1239 017e 09D1     		bne	.L62
 1240              	.LBE93:
 188:Lib/lib_vision_models_pp/lib_vision_models_pp/Src/pd_pp_model.c ****       if (box_nb >= pInput_static_param->max_boxes_limit) {
 1241              		.loc 1 188 7 view .LVU428
 189:Lib/lib_vision_models_pp/lib_vision_models_pp/Src/pd_pp_model.c ****         break;
 1242              		.loc 1 189 10 is_stmt 0 view .LVU429
 1243 0180 A369     		ldr	r3, [r4, #24]
 188:Lib/lib_vision_models_pp/lib_vision_models_pp/Src/pd_pp_model.c ****       if (box_nb >= pInput_static_param->max_boxes_limit) {
 1244              		.loc 1 188 13 view .LVU430
 1245 0182 0132     		adds	r2, r2, #1
 1246              	.LVL77:
 189:Lib/lib_vision_models_pp/lib_vision_models_pp/Src/pd_pp_model.c ****         break;
 1247              		.loc 1 189 7 is_stmt 1 view .LVU431
 189:Lib/lib_vision_models_pp/lib_vision_models_pp/Src/pd_pp_model.c ****         break;
 1248              		.loc 1 189 10 is_stmt 0 view .LVU432
 1249 0184 9A42     		cmp	r2, r3
 1250 0186 86D2     		bcs	.L63
 1251              	.LVL78:
 1252              	.L60:
 189:Lib/lib_vision_models_pp/lib_vision_models_pp/Src/pd_pp_model.c ****         break;
 1253              		.loc 1 189 10 view .LVU433
 1254              	.LBE95:
 1255              	.LBE89:
 153:Lib/lib_vision_models_pp/lib_vision_models_pp/Src/pd_pp_model.c ****     pd_pp_box_t *pBox = &pBoxes[box_nb]; //&pd_boxes[box_nb];
 1256              		.loc 1 153 66 is_stmt 1 discriminator 2 view .LVU434
 1257 0188 049B     		ldr	r3, [sp, #16]
 1258 018a 0136     		adds	r6, r6, #1
 1259              	.LVL79:
 153:Lib/lib_vision_models_pp/lib_vision_models_pp/Src/pd_pp_model.c ****     pd_pp_box_t *pBox = &pBoxes[box_nb]; //&pd_boxes[box_nb];
 1260              		.loc 1 153 66 is_stmt 0 discriminator 2 view .LVU435
 1261 018c 1D44     		add	r5, r5, r3
 1262 018e 09F10809 		add	r9, r9, #8
 1263 0192 7DE7     		b	.L59
 1264              	.LVL80:
 1265              	.L62:
 1266              	.LBB97:
 1267              	.LBB96:
 1268              	.LBB94:
 181:Lib/lib_vision_models_pp/lib_vision_models_pp/Src/pd_pp_model.c ****         pBox->pKps[j].x = (anchor_x * width  + value) / width;
 1269              		.loc 1 181 9 is_stmt 1 view .LVU436
 182:Lib/lib_vision_models_pp/lib_vision_models_pp/Src/pd_pp_model.c **** 
 1270              		.loc 1 182 9 view .LVU437
 181:Lib/lib_vision_models_pp/lib_vision_models_pp/Src/pd_pp_model.c ****         pBox->pKps[j].x = (anchor_x * width  + value) / width;
 1271              		.loc 1 181 29 is_stmt 0 view .LVU438
 1272 0194 90F90230 		ldrsb	r3, [r0, #2]
 182:Lib/lib_vision_models_pp/lib_vision_models_pp/Src/pd_pp_model.c **** 
 1273              		.loc 1 182 46 view .LVU439
 1274 0198 B0EE476A 		vmov.f32	s12, s14
 181:Lib/lib_vision_models_pp/lib_vision_models_pp/Src/pd_pp_model.c ****         pBox->pKps[j].x = (anchor_x * width  + value) / width;
 1275              		.loc 1 181 109 view .LVU440
 1276 019c A3EB0803 		sub	r3, r3, r8
 181:Lib/lib_vision_models_pp/lib_vision_models_pp/Src/pd_pp_model.c ****         pBox->pKps[j].x = (anchor_x * width  + value) / width;
 1277              		.loc 1 181 17 view .LVU441
 1278 01a0 07EE903A 		vmov	s15, r3	@ int
 1279 01a4 F8EEE77A 		vcvt.f32.s32	s15, s15
 182:Lib/lib_vision_models_pp/lib_vision_models_pp/Src/pd_pp_model.c **** 
ARM GAS  /tmp/ccXOK4tq.s 			page 35


 1280              		.loc 1 182 46 view .LVU442
 1281 01a8 AAEE276A 		vfma.f32	s12, s20, s15
 182:Lib/lib_vision_models_pp/lib_vision_models_pp/Src/pd_pp_model.c **** 
 1282              		.loc 1 182 55 view .LVU443
 1283 01ac C6EE087A 		vdiv.f32	s15, s12, s16
 182:Lib/lib_vision_models_pp/lib_vision_models_pp/Src/pd_pp_model.c **** 
 1284              		.loc 1 182 19 view .LVU444
 1285 01b0 DBF81430 		ldr	r3, [fp, #20]
 185:Lib/lib_vision_models_pp/lib_vision_models_pp/Src/pd_pp_model.c ****       }
 1286              		.loc 1 185 46 view .LVU445
 1287 01b4 B0EE666A 		vmov.f32	s12, s13
 182:Lib/lib_vision_models_pp/lib_vision_models_pp/Src/pd_pp_model.c **** 
 1288              		.loc 1 182 19 view .LVU446
 1289 01b8 03EBCE03 		add	r3, r3, lr, lsl #3
 182:Lib/lib_vision_models_pp/lib_vision_models_pp/Src/pd_pp_model.c **** 
 1290              		.loc 1 182 25 view .LVU447
 1291 01bc C3ED007A 		vstr.32	s15, [r3]
 1292              	.LVL81:
 184:Lib/lib_vision_models_pp/lib_vision_models_pp/Src/pd_pp_model.c ****         pBox->pKps[j].y = (anchor_y * height + value) / height;
 1293              		.loc 1 184 9 is_stmt 1 view .LVU448
 185:Lib/lib_vision_models_pp/lib_vision_models_pp/Src/pd_pp_model.c ****       }
 1294              		.loc 1 185 9 view .LVU449
 184:Lib/lib_vision_models_pp/lib_vision_models_pp/Src/pd_pp_model.c ****         pBox->pKps[j].y = (anchor_y * height + value) / height;
 1295              		.loc 1 184 29 is_stmt 0 view .LVU450
 1296 01c0 90F90310 		ldrsb	r1, [r0, #3]
 180:Lib/lib_vision_models_pp/lib_vision_models_pp/Src/pd_pp_model.c ****         value = (float32_t)((int32_t)pRawBoxes[i * in_struct_size + AI_PD_MODEL_PP_KEYPOINTS + (2 *
 1297              		.loc 1 180 68 discriminator 3 view .LVU451
 1298 01c4 0EF1010E 		add	lr, lr, #1
 1299              	.LVL82:
 184:Lib/lib_vision_models_pp/lib_vision_models_pp/Src/pd_pp_model.c ****         pBox->pKps[j].y = (anchor_y * height + value) / height;
 1300              		.loc 1 184 109 view .LVU452
 1301 01c8 A1EB0801 		sub	r1, r1, r8
 184:Lib/lib_vision_models_pp/lib_vision_models_pp/Src/pd_pp_model.c ****         pBox->pKps[j].y = (anchor_y * height + value) / height;
 1302              		.loc 1 184 17 view .LVU453
 1303 01cc 07EE901A 		vmov	s15, r1	@ int
 1304 01d0 F8EEE77A 		vcvt.f32.s32	s15, s15
 185:Lib/lib_vision_models_pp/lib_vision_models_pp/Src/pd_pp_model.c ****       }
 1305              		.loc 1 185 46 view .LVU454
 1306 01d4 AAEE276A 		vfma.f32	s12, s20, s15
 185:Lib/lib_vision_models_pp/lib_vision_models_pp/Src/pd_pp_model.c ****       }
 1307              		.loc 1 185 55 view .LVU455
 1308 01d8 C6EE297A 		vdiv.f32	s15, s12, s19
 185:Lib/lib_vision_models_pp/lib_vision_models_pp/Src/pd_pp_model.c ****       }
 1309              		.loc 1 185 25 view .LVU456
 1310 01dc C3ED017A 		vstr.32	s15, [r3, #4]
 1311              	.LVL83:
 180:Lib/lib_vision_models_pp/lib_vision_models_pp/Src/pd_pp_model.c ****         value = (float32_t)((int32_t)pRawBoxes[i * in_struct_size + AI_PD_MODEL_PP_KEYPOINTS + (2 *
 1312              		.loc 1 180 68 is_stmt 1 discriminator 3 view .LVU457
 180:Lib/lib_vision_models_pp/lib_vision_models_pp/Src/pd_pp_model.c ****         value = (float32_t)((int32_t)pRawBoxes[i * in_struct_size + AI_PD_MODEL_PP_KEYPOINTS + (2 *
 1313              		.loc 1 180 68 is_stmt 0 discriminator 3 view .LVU458
 1314 01e0 C9E7     		b	.L61
 1315              	.LBE94:
 1316              	.LBE96:
 1317              	.LBE97:
 1318              	.LBE99:
 1319              	.LBE105:
 1320              	.LBE111:
ARM GAS  /tmp/ccXOK4tq.s 			page 36


 1321              		.cfi_endproc
 1322              	.LFE2653:
 1324              		.text
 1325              	.Letext0:
 1326              		.file 2 "/home/tanjiajun2002/renesas/rzv/e2studio_v2025-01_fsp_v3.1.0/toolchains/gcc_arm/arm-gnu-t
 1327              		.file 3 "/home/tanjiajun2002/renesas/rzv/e2studio_v2025-01_fsp_v3.1.0/toolchains/gcc_arm/arm-gnu-t
 1328              		.file 4 "/home/tanjiajun2002/renesas/rzv/e2studio_v2025-01_fsp_v3.1.0/toolchains/gcc_arm/arm-gnu-t
 1329              		.file 5 "/home/tanjiajun2002/renesas/rzv/e2studio_v2025-01_fsp_v3.1.0/toolchains/gcc_arm/arm-gnu-t
 1330              		.file 6 "Lib/lib_vision_models_pp/lib_vision_models_pp/Inc/pd_pp_output_if.h"
 1331              		.file 7 "Lib/lib_vision_models_pp/lib_vision_models_pp/Inc/pd_model_pp_if.h"
 1332              		.file 8 "Lib/lib_vision_models_pp/lib_vision_models_pp/Src/vision_models_pp.h"
 1333              		.file 9 "/home/tanjiajun2002/renesas/rzv/e2studio_v2025-01_fsp_v3.1.0/toolchains/gcc_arm/arm-gnu-t
ARM GAS  /tmp/ccXOK4tq.s 			page 37

