ARM GAS  /tmp/ccxt1UfV.s 			page 1


   1              		.arch armv8.1-m.main
   2              		.fpu fpv5-d16
   3              		.arch_extension dsp
   4              		.arch_extension fp
   5              		.arch_extension fp.dp
   6              		.arch_extension mve
   7              		.arch_extension mve.fp
   8              		.eabi_attribute 5, "cortex-m55"
   9              		.eabi_attribute 28, 1
  10              		.eabi_attribute 20, 1
  11              		.eabi_attribute 21, 1
  12              		.eabi_attribute 23, 3
  13              		.eabi_attribute 24, 1
  14              		.eabi_attribute 25, 1
  15              		.eabi_attribute 26, 1
  16              		.eabi_attribute 30, 6
  17              		.eabi_attribute 34, 1
  18              		.eabi_attribute 38, 1
  19              		.eabi_attribute 18, 4
  20              		.file	"stm32n6xx_ll_usb.c"
  21              		.text
  22              	.Ltext0:
  23              		.cfi_sections	.debug_frame
  24              		.file 1 "STM32Cube_FW_N6/Drivers/STM32N6xx_HAL_Driver/Src/stm32n6xx_ll_usb.c"
  25              		.section	.text.USB_CoreInit,"ax",%progbits
  26              		.align	1
  27              		.global	USB_CoreInit
  28              		.syntax unified
  29              		.thumb
  30              		.thumb_func
  32              	USB_CoreInit:
  33              	.LFB835:
   1:STM32Cube_FW_N6/Drivers/STM32N6xx_HAL_Driver/Src/stm32n6xx_ll_usb.c **** /**
   2:STM32Cube_FW_N6/Drivers/STM32N6xx_HAL_Driver/Src/stm32n6xx_ll_usb.c ****   ******************************************************************************
   3:STM32Cube_FW_N6/Drivers/STM32N6xx_HAL_Driver/Src/stm32n6xx_ll_usb.c ****   * @file    stm32n6xx_ll_usb.c
   4:STM32Cube_FW_N6/Drivers/STM32N6xx_HAL_Driver/Src/stm32n6xx_ll_usb.c ****   * @author  MCD Application Team
   5:STM32Cube_FW_N6/Drivers/STM32N6xx_HAL_Driver/Src/stm32n6xx_ll_usb.c ****   * @brief   USB Low Layer HAL module driver.
   6:STM32Cube_FW_N6/Drivers/STM32N6xx_HAL_Driver/Src/stm32n6xx_ll_usb.c ****   *
   7:STM32Cube_FW_N6/Drivers/STM32N6xx_HAL_Driver/Src/stm32n6xx_ll_usb.c ****   *          This file provides firmware functions to manage the following
   8:STM32Cube_FW_N6/Drivers/STM32N6xx_HAL_Driver/Src/stm32n6xx_ll_usb.c ****   *          functionalities of the USB Peripheral Controller:
   9:STM32Cube_FW_N6/Drivers/STM32N6xx_HAL_Driver/Src/stm32n6xx_ll_usb.c ****   *           + Initialization/de-initialization functions
  10:STM32Cube_FW_N6/Drivers/STM32N6xx_HAL_Driver/Src/stm32n6xx_ll_usb.c ****   *           + I/O operation functions
  11:STM32Cube_FW_N6/Drivers/STM32N6xx_HAL_Driver/Src/stm32n6xx_ll_usb.c ****   *           + Peripheral Control functions
  12:STM32Cube_FW_N6/Drivers/STM32N6xx_HAL_Driver/Src/stm32n6xx_ll_usb.c ****   *           + Peripheral State functions
  13:STM32Cube_FW_N6/Drivers/STM32N6xx_HAL_Driver/Src/stm32n6xx_ll_usb.c ****   *
  14:STM32Cube_FW_N6/Drivers/STM32N6xx_HAL_Driver/Src/stm32n6xx_ll_usb.c ****   ******************************************************************************
  15:STM32Cube_FW_N6/Drivers/STM32N6xx_HAL_Driver/Src/stm32n6xx_ll_usb.c ****   * @attention
  16:STM32Cube_FW_N6/Drivers/STM32N6xx_HAL_Driver/Src/stm32n6xx_ll_usb.c ****   *
  17:STM32Cube_FW_N6/Drivers/STM32N6xx_HAL_Driver/Src/stm32n6xx_ll_usb.c ****   * Copyright (c) 2023 STMicroelectronics.
  18:STM32Cube_FW_N6/Drivers/STM32N6xx_HAL_Driver/Src/stm32n6xx_ll_usb.c ****   * All rights reserved.
  19:STM32Cube_FW_N6/Drivers/STM32N6xx_HAL_Driver/Src/stm32n6xx_ll_usb.c ****   *
  20:STM32Cube_FW_N6/Drivers/STM32N6xx_HAL_Driver/Src/stm32n6xx_ll_usb.c ****   * This software is licensed under terms that can be found in the LICENSE file
  21:STM32Cube_FW_N6/Drivers/STM32N6xx_HAL_Driver/Src/stm32n6xx_ll_usb.c ****   * in the root directory of this software component.
  22:STM32Cube_FW_N6/Drivers/STM32N6xx_HAL_Driver/Src/stm32n6xx_ll_usb.c ****   * If no LICENSE file comes with this software, it is provided AS-IS.
  23:STM32Cube_FW_N6/Drivers/STM32N6xx_HAL_Driver/Src/stm32n6xx_ll_usb.c ****   *
  24:STM32Cube_FW_N6/Drivers/STM32N6xx_HAL_Driver/Src/stm32n6xx_ll_usb.c ****   ******************************************************************************
  25:STM32Cube_FW_N6/Drivers/STM32N6xx_HAL_Driver/Src/stm32n6xx_ll_usb.c ****   @verbatim
ARM GAS  /tmp/ccxt1UfV.s 			page 2


  26:STM32Cube_FW_N6/Drivers/STM32N6xx_HAL_Driver/Src/stm32n6xx_ll_usb.c ****   ==============================================================================
  27:STM32Cube_FW_N6/Drivers/STM32N6xx_HAL_Driver/Src/stm32n6xx_ll_usb.c ****                     ##### How to use this driver #####
  28:STM32Cube_FW_N6/Drivers/STM32N6xx_HAL_Driver/Src/stm32n6xx_ll_usb.c ****   ==============================================================================
  29:STM32Cube_FW_N6/Drivers/STM32N6xx_HAL_Driver/Src/stm32n6xx_ll_usb.c ****     [..]
  30:STM32Cube_FW_N6/Drivers/STM32N6xx_HAL_Driver/Src/stm32n6xx_ll_usb.c ****       (#) Fill parameters of Init structure in USB_CfgTypeDef structure.
  31:STM32Cube_FW_N6/Drivers/STM32N6xx_HAL_Driver/Src/stm32n6xx_ll_usb.c **** 
  32:STM32Cube_FW_N6/Drivers/STM32N6xx_HAL_Driver/Src/stm32n6xx_ll_usb.c ****       (#) Call USB_CoreInit() API to initialize the USB Core peripheral.
  33:STM32Cube_FW_N6/Drivers/STM32N6xx_HAL_Driver/Src/stm32n6xx_ll_usb.c **** 
  34:STM32Cube_FW_N6/Drivers/STM32N6xx_HAL_Driver/Src/stm32n6xx_ll_usb.c ****       (#) The upper HAL HCD/PCD driver will call the right routines for its internal processes.
  35:STM32Cube_FW_N6/Drivers/STM32N6xx_HAL_Driver/Src/stm32n6xx_ll_usb.c **** 
  36:STM32Cube_FW_N6/Drivers/STM32N6xx_HAL_Driver/Src/stm32n6xx_ll_usb.c ****   @endverbatim
  37:STM32Cube_FW_N6/Drivers/STM32N6xx_HAL_Driver/Src/stm32n6xx_ll_usb.c **** 
  38:STM32Cube_FW_N6/Drivers/STM32N6xx_HAL_Driver/Src/stm32n6xx_ll_usb.c ****   ******************************************************************************
  39:STM32Cube_FW_N6/Drivers/STM32N6xx_HAL_Driver/Src/stm32n6xx_ll_usb.c ****   */
  40:STM32Cube_FW_N6/Drivers/STM32N6xx_HAL_Driver/Src/stm32n6xx_ll_usb.c **** 
  41:STM32Cube_FW_N6/Drivers/STM32N6xx_HAL_Driver/Src/stm32n6xx_ll_usb.c **** /* Includes ------------------------------------------------------------------*/
  42:STM32Cube_FW_N6/Drivers/STM32N6xx_HAL_Driver/Src/stm32n6xx_ll_usb.c **** #include "stm32n6xx_hal.h"
  43:STM32Cube_FW_N6/Drivers/STM32N6xx_HAL_Driver/Src/stm32n6xx_ll_usb.c **** 
  44:STM32Cube_FW_N6/Drivers/STM32N6xx_HAL_Driver/Src/stm32n6xx_ll_usb.c **** /** @addtogroup STM32N6xx_LL_USB_DRIVER
  45:STM32Cube_FW_N6/Drivers/STM32N6xx_HAL_Driver/Src/stm32n6xx_ll_usb.c ****   * @{
  46:STM32Cube_FW_N6/Drivers/STM32N6xx_HAL_Driver/Src/stm32n6xx_ll_usb.c ****   */
  47:STM32Cube_FW_N6/Drivers/STM32N6xx_HAL_Driver/Src/stm32n6xx_ll_usb.c **** 
  48:STM32Cube_FW_N6/Drivers/STM32N6xx_HAL_Driver/Src/stm32n6xx_ll_usb.c **** #if defined (HAL_PCD_MODULE_ENABLED) || defined (HAL_HCD_MODULE_ENABLED)
  49:STM32Cube_FW_N6/Drivers/STM32N6xx_HAL_Driver/Src/stm32n6xx_ll_usb.c **** #if defined (USB1_OTG_HS) || defined (USB2_OTG_HS)
  50:STM32Cube_FW_N6/Drivers/STM32N6xx_HAL_Driver/Src/stm32n6xx_ll_usb.c **** /* Private typedef -----------------------------------------------------------*/
  51:STM32Cube_FW_N6/Drivers/STM32N6xx_HAL_Driver/Src/stm32n6xx_ll_usb.c **** /* Private define ------------------------------------------------------------*/
  52:STM32Cube_FW_N6/Drivers/STM32N6xx_HAL_Driver/Src/stm32n6xx_ll_usb.c **** /* Private macro -------------------------------------------------------------*/
  53:STM32Cube_FW_N6/Drivers/STM32N6xx_HAL_Driver/Src/stm32n6xx_ll_usb.c **** /* Private variables ---------------------------------------------------------*/
  54:STM32Cube_FW_N6/Drivers/STM32N6xx_HAL_Driver/Src/stm32n6xx_ll_usb.c **** /* Private function prototypes -----------------------------------------------*/
  55:STM32Cube_FW_N6/Drivers/STM32N6xx_HAL_Driver/Src/stm32n6xx_ll_usb.c **** /* Private functions ---------------------------------------------------------*/
  56:STM32Cube_FW_N6/Drivers/STM32N6xx_HAL_Driver/Src/stm32n6xx_ll_usb.c **** #if defined (USB1_OTG_HS) || defined (USB2_OTG_HS)
  57:STM32Cube_FW_N6/Drivers/STM32N6xx_HAL_Driver/Src/stm32n6xx_ll_usb.c **** static HAL_StatusTypeDef USB_CoreReset(USB_OTG_GlobalTypeDef *USBx);
  58:STM32Cube_FW_N6/Drivers/STM32N6xx_HAL_Driver/Src/stm32n6xx_ll_usb.c **** 
  59:STM32Cube_FW_N6/Drivers/STM32N6xx_HAL_Driver/Src/stm32n6xx_ll_usb.c **** /* Exported functions --------------------------------------------------------*/
  60:STM32Cube_FW_N6/Drivers/STM32N6xx_HAL_Driver/Src/stm32n6xx_ll_usb.c **** /** @defgroup USB_LL_Exported_Functions USB Low Layer Exported Functions
  61:STM32Cube_FW_N6/Drivers/STM32N6xx_HAL_Driver/Src/stm32n6xx_ll_usb.c ****   * @{
  62:STM32Cube_FW_N6/Drivers/STM32N6xx_HAL_Driver/Src/stm32n6xx_ll_usb.c ****   */
  63:STM32Cube_FW_N6/Drivers/STM32N6xx_HAL_Driver/Src/stm32n6xx_ll_usb.c **** 
  64:STM32Cube_FW_N6/Drivers/STM32N6xx_HAL_Driver/Src/stm32n6xx_ll_usb.c **** /** @defgroup USB_LL_Exported_Functions_Group1 Initialization/de-initialization functions
  65:STM32Cube_FW_N6/Drivers/STM32N6xx_HAL_Driver/Src/stm32n6xx_ll_usb.c ****   *  @brief    Initialization and Configuration functions
  66:STM32Cube_FW_N6/Drivers/STM32N6xx_HAL_Driver/Src/stm32n6xx_ll_usb.c ****   *
  67:STM32Cube_FW_N6/Drivers/STM32N6xx_HAL_Driver/Src/stm32n6xx_ll_usb.c **** @verbatim
  68:STM32Cube_FW_N6/Drivers/STM32N6xx_HAL_Driver/Src/stm32n6xx_ll_usb.c ****  ===============================================================================
  69:STM32Cube_FW_N6/Drivers/STM32N6xx_HAL_Driver/Src/stm32n6xx_ll_usb.c ****                       ##### Initialization/de-initialization functions #####
  70:STM32Cube_FW_N6/Drivers/STM32N6xx_HAL_Driver/Src/stm32n6xx_ll_usb.c ****  ===============================================================================
  71:STM32Cube_FW_N6/Drivers/STM32N6xx_HAL_Driver/Src/stm32n6xx_ll_usb.c **** 
  72:STM32Cube_FW_N6/Drivers/STM32N6xx_HAL_Driver/Src/stm32n6xx_ll_usb.c **** @endverbatim
  73:STM32Cube_FW_N6/Drivers/STM32N6xx_HAL_Driver/Src/stm32n6xx_ll_usb.c ****   * @{
  74:STM32Cube_FW_N6/Drivers/STM32N6xx_HAL_Driver/Src/stm32n6xx_ll_usb.c ****   */
  75:STM32Cube_FW_N6/Drivers/STM32N6xx_HAL_Driver/Src/stm32n6xx_ll_usb.c **** 
  76:STM32Cube_FW_N6/Drivers/STM32N6xx_HAL_Driver/Src/stm32n6xx_ll_usb.c **** /**
  77:STM32Cube_FW_N6/Drivers/STM32N6xx_HAL_Driver/Src/stm32n6xx_ll_usb.c ****   * @brief  Initializes the USB Core
  78:STM32Cube_FW_N6/Drivers/STM32N6xx_HAL_Driver/Src/stm32n6xx_ll_usb.c ****   * @param  USBx USB Instance
  79:STM32Cube_FW_N6/Drivers/STM32N6xx_HAL_Driver/Src/stm32n6xx_ll_usb.c ****   * @param  cfg pointer to a USB_OTG_CfgTypeDef structure that contains
  80:STM32Cube_FW_N6/Drivers/STM32N6xx_HAL_Driver/Src/stm32n6xx_ll_usb.c ****   *         the configuration information for the specified USBx peripheral.
  81:STM32Cube_FW_N6/Drivers/STM32N6xx_HAL_Driver/Src/stm32n6xx_ll_usb.c ****   * @retval HAL status
  82:STM32Cube_FW_N6/Drivers/STM32N6xx_HAL_Driver/Src/stm32n6xx_ll_usb.c ****   */
ARM GAS  /tmp/ccxt1UfV.s 			page 3


  83:STM32Cube_FW_N6/Drivers/STM32N6xx_HAL_Driver/Src/stm32n6xx_ll_usb.c **** HAL_StatusTypeDef USB_CoreInit(USB_OTG_GlobalTypeDef *USBx, USB_OTG_CfgTypeDef cfg)
  84:STM32Cube_FW_N6/Drivers/STM32N6xx_HAL_Driver/Src/stm32n6xx_ll_usb.c **** {
  34              		.loc 1 84 1
  35              		.cfi_startproc
  36              		@ args = 20, pretend = 16, frame = 16
  37              		@ frame_needed = 1, uses_anonymous_args = 0
  38 0000 84B0     		sub	sp, sp, #16
  39              		.cfi_def_cfa_offset 16
  40 0002 80B5     		push	{r7, lr}
  41              		.cfi_def_cfa_offset 24
  42              		.cfi_offset 7, -24
  43              		.cfi_offset 14, -20
  44 0004 84B0     		sub	sp, sp, #16
  45              		.cfi_def_cfa_offset 40
  46 0006 00AF     		add	r7, sp, #0
  47              		.cfi_def_cfa_register 7
  48 0008 7860     		str	r0, [r7, #4]
  49 000a 07F11C00 		add	r0, r7, #28
  50 000e 80E80E00 		stm	r0, {r1, r2, r3}
  85:STM32Cube_FW_N6/Drivers/STM32N6xx_HAL_Driver/Src/stm32n6xx_ll_usb.c ****   HAL_StatusTypeDef ret;
  86:STM32Cube_FW_N6/Drivers/STM32N6xx_HAL_Driver/Src/stm32n6xx_ll_usb.c **** 
  87:STM32Cube_FW_N6/Drivers/STM32N6xx_HAL_Driver/Src/stm32n6xx_ll_usb.c ****   if (cfg.phy_itface == USB_OTG_HS_EMBEDDED_PHY)
  51              		.loc 1 87 10
  52 0012 97F82130 		ldrb	r3, [r7, #33]	@ zero_extendqisi2
  53              		.loc 1 87 6
  54 0016 032B     		cmp	r3, #3
  55 0018 0ED1     		bne	.L2
  88:STM32Cube_FW_N6/Drivers/STM32N6xx_HAL_Driver/Src/stm32n6xx_ll_usb.c ****   {
  89:STM32Cube_FW_N6/Drivers/STM32N6xx_HAL_Driver/Src/stm32n6xx_ll_usb.c ****     /* Select Data line pulsing using utmi_txvalid */
  90:STM32Cube_FW_N6/Drivers/STM32N6xx_HAL_Driver/Src/stm32n6xx_ll_usb.c ****     USBx->GUSBCFG &= ~(USB_OTG_GUSBCFG_TSDPS);
  56              		.loc 1 90 9
  57 001a 7B68     		ldr	r3, [r7, #4]
  58 001c DB68     		ldr	r3, [r3, #12]
  59              		.loc 1 90 19
  60 001e 23F48002 		bic	r2, r3, #4194304
  61 0022 7B68     		ldr	r3, [r7, #4]
  62 0024 DA60     		str	r2, [r3, #12]
  91:STM32Cube_FW_N6/Drivers/STM32N6xx_HAL_Driver/Src/stm32n6xx_ll_usb.c **** 
  92:STM32Cube_FW_N6/Drivers/STM32N6xx_HAL_Driver/Src/stm32n6xx_ll_usb.c **** 
  93:STM32Cube_FW_N6/Drivers/STM32N6xx_HAL_Driver/Src/stm32n6xx_ll_usb.c ****     /* Reset after a PHY select */
  94:STM32Cube_FW_N6/Drivers/STM32N6xx_HAL_Driver/Src/stm32n6xx_ll_usb.c ****     ret = USB_CoreReset(USBx);
  63              		.loc 1 94 11
  64 0026 7868     		ldr	r0, [r7, #4]
  65 0028 FFF7FEFF 		bl	USB_CoreReset
  66 002c 0346     		mov	r3, r0
  67 002e FB73     		strb	r3, [r7, #15]
  95:STM32Cube_FW_N6/Drivers/STM32N6xx_HAL_Driver/Src/stm32n6xx_ll_usb.c ****   }
  96:STM32Cube_FW_N6/Drivers/STM32N6xx_HAL_Driver/Src/stm32n6xx_ll_usb.c ****   else
  97:STM32Cube_FW_N6/Drivers/STM32N6xx_HAL_Driver/Src/stm32n6xx_ll_usb.c ****   {
  98:STM32Cube_FW_N6/Drivers/STM32N6xx_HAL_Driver/Src/stm32n6xx_ll_usb.c ****     return HAL_ERROR;
  99:STM32Cube_FW_N6/Drivers/STM32N6xx_HAL_Driver/Src/stm32n6xx_ll_usb.c ****   }
 100:STM32Cube_FW_N6/Drivers/STM32N6xx_HAL_Driver/Src/stm32n6xx_ll_usb.c **** 
 101:STM32Cube_FW_N6/Drivers/STM32N6xx_HAL_Driver/Src/stm32n6xx_ll_usb.c ****   if (cfg.dma_enable == 1U)
  68              		.loc 1 101 10
  69 0030 BB7F     		ldrb	r3, [r7, #30]	@ zero_extendqisi2
  70              		.loc 1 101 6
  71 0032 012B     		cmp	r3, #1
ARM GAS  /tmp/ccxt1UfV.s 			page 4


  72 0034 0ED1     		bne	.L5
  73 0036 01E0     		b	.L6
  74              	.L2:
  98:STM32Cube_FW_N6/Drivers/STM32N6xx_HAL_Driver/Src/stm32n6xx_ll_usb.c ****   }
  75              		.loc 1 98 12
  76 0038 0123     		movs	r3, #1
  77 003a 0CE0     		b	.L4
  78              	.L6:
 102:STM32Cube_FW_N6/Drivers/STM32N6xx_HAL_Driver/Src/stm32n6xx_ll_usb.c ****   {
 103:STM32Cube_FW_N6/Drivers/STM32N6xx_HAL_Driver/Src/stm32n6xx_ll_usb.c ****     USBx->GAHBCFG |= USB_OTG_GAHBCFG_HBSTLEN_2;
  79              		.loc 1 103 9
  80 003c 7B68     		ldr	r3, [r7, #4]
  81 003e 9B68     		ldr	r3, [r3, #8]
  82              		.loc 1 103 19
  83 0040 43F00602 		orr	r2, r3, #6
  84 0044 7B68     		ldr	r3, [r7, #4]
  85 0046 9A60     		str	r2, [r3, #8]
 104:STM32Cube_FW_N6/Drivers/STM32N6xx_HAL_Driver/Src/stm32n6xx_ll_usb.c ****     USBx->GAHBCFG |= USB_OTG_GAHBCFG_DMAEN;
  86              		.loc 1 104 9
  87 0048 7B68     		ldr	r3, [r7, #4]
  88 004a 9B68     		ldr	r3, [r3, #8]
  89              		.loc 1 104 19
  90 004c 43F02002 		orr	r2, r3, #32
  91 0050 7B68     		ldr	r3, [r7, #4]
  92 0052 9A60     		str	r2, [r3, #8]
  93              	.L5:
 105:STM32Cube_FW_N6/Drivers/STM32N6xx_HAL_Driver/Src/stm32n6xx_ll_usb.c ****   }
 106:STM32Cube_FW_N6/Drivers/STM32N6xx_HAL_Driver/Src/stm32n6xx_ll_usb.c **** 
 107:STM32Cube_FW_N6/Drivers/STM32N6xx_HAL_Driver/Src/stm32n6xx_ll_usb.c ****   return ret;
  94              		.loc 1 107 10
  95 0054 FB7B     		ldrb	r3, [r7, #15]	@ zero_extendqisi2
  96              	.L4:
 108:STM32Cube_FW_N6/Drivers/STM32N6xx_HAL_Driver/Src/stm32n6xx_ll_usb.c **** }
  97              		.loc 1 108 1
  98 0056 1846     		mov	r0, r3
  99 0058 1037     		adds	r7, r7, #16
 100              		.cfi_def_cfa_offset 24
 101 005a BD46     		mov	sp, r7
 102              		.cfi_def_cfa_register 13
 103              		@ sp needed
 104 005c BDE88040 		pop	{r7, lr}
 105              		.cfi_restore 14
 106              		.cfi_restore 7
 107              		.cfi_def_cfa_offset 16
 108 0060 04B0     		add	sp, sp, #16
 109              		.cfi_def_cfa_offset 0
 110 0062 7047     		bx	lr
 111              		.cfi_endproc
 112              	.LFE835:
 114              		.section	.text.USB_SetTurnaroundTime,"ax",%progbits
 115              		.align	1
 116              		.global	USB_SetTurnaroundTime
 117              		.syntax unified
 118              		.thumb
 119              		.thumb_func
 121              	USB_SetTurnaroundTime:
 122              	.LFB836:
ARM GAS  /tmp/ccxt1UfV.s 			page 5


 109:STM32Cube_FW_N6/Drivers/STM32N6xx_HAL_Driver/Src/stm32n6xx_ll_usb.c **** 
 110:STM32Cube_FW_N6/Drivers/STM32N6xx_HAL_Driver/Src/stm32n6xx_ll_usb.c **** 
 111:STM32Cube_FW_N6/Drivers/STM32N6xx_HAL_Driver/Src/stm32n6xx_ll_usb.c **** /**
 112:STM32Cube_FW_N6/Drivers/STM32N6xx_HAL_Driver/Src/stm32n6xx_ll_usb.c ****   * @brief  Set the USB turnaround time
 113:STM32Cube_FW_N6/Drivers/STM32N6xx_HAL_Driver/Src/stm32n6xx_ll_usb.c ****   * @param  USBx USB Instance
 114:STM32Cube_FW_N6/Drivers/STM32N6xx_HAL_Driver/Src/stm32n6xx_ll_usb.c ****   * @param  hclk: AHB clock frequency
 115:STM32Cube_FW_N6/Drivers/STM32N6xx_HAL_Driver/Src/stm32n6xx_ll_usb.c ****   * @retval USB turnaround time In PHY Clocks number
 116:STM32Cube_FW_N6/Drivers/STM32N6xx_HAL_Driver/Src/stm32n6xx_ll_usb.c ****   */
 117:STM32Cube_FW_N6/Drivers/STM32N6xx_HAL_Driver/Src/stm32n6xx_ll_usb.c **** HAL_StatusTypeDef USB_SetTurnaroundTime(USB_OTG_GlobalTypeDef *USBx,
 118:STM32Cube_FW_N6/Drivers/STM32N6xx_HAL_Driver/Src/stm32n6xx_ll_usb.c ****                                         uint32_t hclk, uint8_t speed)
 119:STM32Cube_FW_N6/Drivers/STM32N6xx_HAL_Driver/Src/stm32n6xx_ll_usb.c **** {
 123              		.loc 1 119 1
 124              		.cfi_startproc
 125              		@ args = 0, pretend = 0, frame = 24
 126              		@ frame_needed = 1, uses_anonymous_args = 0
 127              		@ link register save eliminated.
 128 0000 80B4     		push	{r7}
 129              		.cfi_def_cfa_offset 4
 130              		.cfi_offset 7, -4
 131 0002 87B0     		sub	sp, sp, #28
 132              		.cfi_def_cfa_offset 32
 133 0004 00AF     		add	r7, sp, #0
 134              		.cfi_def_cfa_register 7
 135 0006 F860     		str	r0, [r7, #12]
 136 0008 B960     		str	r1, [r7, #8]
 137 000a 1346     		mov	r3, r2
 138 000c FB71     		strb	r3, [r7, #7]
 120:STM32Cube_FW_N6/Drivers/STM32N6xx_HAL_Driver/Src/stm32n6xx_ll_usb.c ****   uint32_t UsbTrd;
 121:STM32Cube_FW_N6/Drivers/STM32N6xx_HAL_Driver/Src/stm32n6xx_ll_usb.c **** 
 122:STM32Cube_FW_N6/Drivers/STM32N6xx_HAL_Driver/Src/stm32n6xx_ll_usb.c ****   /* The USBTRD is configured according to the tables below, depending on AHB frequency
 123:STM32Cube_FW_N6/Drivers/STM32N6xx_HAL_Driver/Src/stm32n6xx_ll_usb.c ****   used by application. In the low AHB frequency range it is used to stretch enough the USB response
 124:STM32Cube_FW_N6/Drivers/STM32N6xx_HAL_Driver/Src/stm32n6xx_ll_usb.c ****   time to IN tokens, the USB turnaround time, so to compensate for the longer AHB read access
 125:STM32Cube_FW_N6/Drivers/STM32N6xx_HAL_Driver/Src/stm32n6xx_ll_usb.c ****   latency to the Data FIFO */
 126:STM32Cube_FW_N6/Drivers/STM32N6xx_HAL_Driver/Src/stm32n6xx_ll_usb.c ****   if (speed == USBD_FS_SPEED)
 139              		.loc 1 126 6
 140 000e FB79     		ldrb	r3, [r7, #7]	@ zero_extendqisi2
 141 0010 022B     		cmp	r3, #2
 142 0012 65D1     		bne	.L8
 127:STM32Cube_FW_N6/Drivers/STM32N6xx_HAL_Driver/Src/stm32n6xx_ll_usb.c ****   {
 128:STM32Cube_FW_N6/Drivers/STM32N6xx_HAL_Driver/Src/stm32n6xx_ll_usb.c ****     if ((hclk >= 14200000U) && (hclk < 15000000U))
 143              		.loc 1 128 8
 144 0014 BB68     		ldr	r3, [r7, #8]
 145 0016 414A     		ldr	r2, .L22
 146 0018 9342     		cmp	r3, r2
 147 001a 06D9     		bls	.L9
 148              		.loc 1 128 29 discriminator 1
 149 001c BB68     		ldr	r3, [r7, #8]
 150 001e 404A     		ldr	r2, .L22+4
 151 0020 9342     		cmp	r3, r2
 152 0022 02D2     		bcs	.L9
 129:STM32Cube_FW_N6/Drivers/STM32N6xx_HAL_Driver/Src/stm32n6xx_ll_usb.c ****     {
 130:STM32Cube_FW_N6/Drivers/STM32N6xx_HAL_Driver/Src/stm32n6xx_ll_usb.c ****       /* hclk Clock Range between 14.2-15 MHz */
 131:STM32Cube_FW_N6/Drivers/STM32N6xx_HAL_Driver/Src/stm32n6xx_ll_usb.c ****       UsbTrd = 0xFU;
 153              		.loc 1 131 14
 154 0024 0F23     		movs	r3, #15
 155 0026 7B61     		str	r3, [r7, #20]
 156 0028 62E0     		b	.L19
ARM GAS  /tmp/ccxt1UfV.s 			page 6


 157              	.L9:
 132:STM32Cube_FW_N6/Drivers/STM32N6xx_HAL_Driver/Src/stm32n6xx_ll_usb.c ****     }
 133:STM32Cube_FW_N6/Drivers/STM32N6xx_HAL_Driver/Src/stm32n6xx_ll_usb.c ****     else if ((hclk >= 15000000U) && (hclk < 16000000U))
 158              		.loc 1 133 13
 159 002a BB68     		ldr	r3, [r7, #8]
 160 002c 3C4A     		ldr	r2, .L22+4
 161 002e 9342     		cmp	r3, r2
 162 0030 06D3     		bcc	.L11
 163              		.loc 1 133 34 discriminator 1
 164 0032 BB68     		ldr	r3, [r7, #8]
 165 0034 3B4A     		ldr	r2, .L22+8
 166 0036 9342     		cmp	r3, r2
 167 0038 02D2     		bcs	.L11
 134:STM32Cube_FW_N6/Drivers/STM32N6xx_HAL_Driver/Src/stm32n6xx_ll_usb.c ****     {
 135:STM32Cube_FW_N6/Drivers/STM32N6xx_HAL_Driver/Src/stm32n6xx_ll_usb.c ****       /* hclk Clock Range between 15-16 MHz */
 136:STM32Cube_FW_N6/Drivers/STM32N6xx_HAL_Driver/Src/stm32n6xx_ll_usb.c ****       UsbTrd = 0xEU;
 168              		.loc 1 136 14
 169 003a 0E23     		movs	r3, #14
 170 003c 7B61     		str	r3, [r7, #20]
 171 003e 57E0     		b	.L19
 172              	.L11:
 137:STM32Cube_FW_N6/Drivers/STM32N6xx_HAL_Driver/Src/stm32n6xx_ll_usb.c ****     }
 138:STM32Cube_FW_N6/Drivers/STM32N6xx_HAL_Driver/Src/stm32n6xx_ll_usb.c ****     else if ((hclk >= 16000000U) && (hclk < 17200000U))
 173              		.loc 1 138 13
 174 0040 BB68     		ldr	r3, [r7, #8]
 175 0042 384A     		ldr	r2, .L22+8
 176 0044 9342     		cmp	r3, r2
 177 0046 06D3     		bcc	.L12
 178              		.loc 1 138 34 discriminator 1
 179 0048 BB68     		ldr	r3, [r7, #8]
 180 004a 374A     		ldr	r2, .L22+12
 181 004c 9342     		cmp	r3, r2
 182 004e 02D2     		bcs	.L12
 139:STM32Cube_FW_N6/Drivers/STM32N6xx_HAL_Driver/Src/stm32n6xx_ll_usb.c ****     {
 140:STM32Cube_FW_N6/Drivers/STM32N6xx_HAL_Driver/Src/stm32n6xx_ll_usb.c ****       /* hclk Clock Range between 16-17.2 MHz */
 141:STM32Cube_FW_N6/Drivers/STM32N6xx_HAL_Driver/Src/stm32n6xx_ll_usb.c ****       UsbTrd = 0xDU;
 183              		.loc 1 141 14
 184 0050 0D23     		movs	r3, #13
 185 0052 7B61     		str	r3, [r7, #20]
 186 0054 4CE0     		b	.L19
 187              	.L12:
 142:STM32Cube_FW_N6/Drivers/STM32N6xx_HAL_Driver/Src/stm32n6xx_ll_usb.c ****     }
 143:STM32Cube_FW_N6/Drivers/STM32N6xx_HAL_Driver/Src/stm32n6xx_ll_usb.c ****     else if ((hclk >= 17200000U) && (hclk < 18500000U))
 188              		.loc 1 143 13
 189 0056 BB68     		ldr	r3, [r7, #8]
 190 0058 334A     		ldr	r2, .L22+12
 191 005a 9342     		cmp	r3, r2
 192 005c 06D3     		bcc	.L13
 193              		.loc 1 143 34 discriminator 1
 194 005e BB68     		ldr	r3, [r7, #8]
 195 0060 324A     		ldr	r2, .L22+16
 196 0062 9342     		cmp	r3, r2
 197 0064 02D8     		bhi	.L13
 144:STM32Cube_FW_N6/Drivers/STM32N6xx_HAL_Driver/Src/stm32n6xx_ll_usb.c ****     {
 145:STM32Cube_FW_N6/Drivers/STM32N6xx_HAL_Driver/Src/stm32n6xx_ll_usb.c ****       /* hclk Clock Range between 17.2-18.5 MHz */
 146:STM32Cube_FW_N6/Drivers/STM32N6xx_HAL_Driver/Src/stm32n6xx_ll_usb.c ****       UsbTrd = 0xCU;
 198              		.loc 1 146 14
ARM GAS  /tmp/ccxt1UfV.s 			page 7


 199 0066 0C23     		movs	r3, #12
 200 0068 7B61     		str	r3, [r7, #20]
 201 006a 41E0     		b	.L19
 202              	.L13:
 147:STM32Cube_FW_N6/Drivers/STM32N6xx_HAL_Driver/Src/stm32n6xx_ll_usb.c ****     }
 148:STM32Cube_FW_N6/Drivers/STM32N6xx_HAL_Driver/Src/stm32n6xx_ll_usb.c ****     else if ((hclk >= 18500000U) && (hclk < 20000000U))
 203              		.loc 1 148 13
 204 006c BB68     		ldr	r3, [r7, #8]
 205 006e 2F4A     		ldr	r2, .L22+16
 206 0070 9342     		cmp	r3, r2
 207 0072 06D9     		bls	.L14
 208              		.loc 1 148 34 discriminator 1
 209 0074 BB68     		ldr	r3, [r7, #8]
 210 0076 2E4A     		ldr	r2, .L22+20
 211 0078 9342     		cmp	r3, r2
 212 007a 02D8     		bhi	.L14
 149:STM32Cube_FW_N6/Drivers/STM32N6xx_HAL_Driver/Src/stm32n6xx_ll_usb.c ****     {
 150:STM32Cube_FW_N6/Drivers/STM32N6xx_HAL_Driver/Src/stm32n6xx_ll_usb.c ****       /* hclk Clock Range between 18.5-20 MHz */
 151:STM32Cube_FW_N6/Drivers/STM32N6xx_HAL_Driver/Src/stm32n6xx_ll_usb.c ****       UsbTrd = 0xBU;
 213              		.loc 1 151 14
 214 007c 0B23     		movs	r3, #11
 215 007e 7B61     		str	r3, [r7, #20]
 216 0080 36E0     		b	.L19
 217              	.L14:
 152:STM32Cube_FW_N6/Drivers/STM32N6xx_HAL_Driver/Src/stm32n6xx_ll_usb.c ****     }
 153:STM32Cube_FW_N6/Drivers/STM32N6xx_HAL_Driver/Src/stm32n6xx_ll_usb.c ****     else if ((hclk >= 20000000U) && (hclk < 21800000U))
 218              		.loc 1 153 13
 219 0082 BB68     		ldr	r3, [r7, #8]
 220 0084 2A4A     		ldr	r2, .L22+20
 221 0086 9342     		cmp	r3, r2
 222 0088 06D9     		bls	.L15
 223              		.loc 1 153 34 discriminator 1
 224 008a BB68     		ldr	r3, [r7, #8]
 225 008c 294A     		ldr	r2, .L22+24
 226 008e 9342     		cmp	r3, r2
 227 0090 02D8     		bhi	.L15
 154:STM32Cube_FW_N6/Drivers/STM32N6xx_HAL_Driver/Src/stm32n6xx_ll_usb.c ****     {
 155:STM32Cube_FW_N6/Drivers/STM32N6xx_HAL_Driver/Src/stm32n6xx_ll_usb.c ****       /* hclk Clock Range between 20-21.8 MHz */
 156:STM32Cube_FW_N6/Drivers/STM32N6xx_HAL_Driver/Src/stm32n6xx_ll_usb.c ****       UsbTrd = 0xAU;
 228              		.loc 1 156 14
 229 0092 0A23     		movs	r3, #10
 230 0094 7B61     		str	r3, [r7, #20]
 231 0096 2BE0     		b	.L19
 232              	.L15:
 157:STM32Cube_FW_N6/Drivers/STM32N6xx_HAL_Driver/Src/stm32n6xx_ll_usb.c ****     }
 158:STM32Cube_FW_N6/Drivers/STM32N6xx_HAL_Driver/Src/stm32n6xx_ll_usb.c ****     else if ((hclk >= 21800000U) && (hclk < 24000000U))
 233              		.loc 1 158 13
 234 0098 BB68     		ldr	r3, [r7, #8]
 235 009a 264A     		ldr	r2, .L22+24
 236 009c 9342     		cmp	r3, r2
 237 009e 06D9     		bls	.L16
 238              		.loc 1 158 34 discriminator 1
 239 00a0 BB68     		ldr	r3, [r7, #8]
 240 00a2 254A     		ldr	r2, .L22+28
 241 00a4 9342     		cmp	r3, r2
 242 00a6 02D2     		bcs	.L16
 159:STM32Cube_FW_N6/Drivers/STM32N6xx_HAL_Driver/Src/stm32n6xx_ll_usb.c ****     {
ARM GAS  /tmp/ccxt1UfV.s 			page 8


 160:STM32Cube_FW_N6/Drivers/STM32N6xx_HAL_Driver/Src/stm32n6xx_ll_usb.c ****       /* hclk Clock Range between 21.8-24 MHz */
 161:STM32Cube_FW_N6/Drivers/STM32N6xx_HAL_Driver/Src/stm32n6xx_ll_usb.c ****       UsbTrd = 0x9U;
 243              		.loc 1 161 14
 244 00a8 0923     		movs	r3, #9
 245 00aa 7B61     		str	r3, [r7, #20]
 246 00ac 20E0     		b	.L19
 247              	.L16:
 162:STM32Cube_FW_N6/Drivers/STM32N6xx_HAL_Driver/Src/stm32n6xx_ll_usb.c ****     }
 163:STM32Cube_FW_N6/Drivers/STM32N6xx_HAL_Driver/Src/stm32n6xx_ll_usb.c ****     else if ((hclk >= 24000000U) && (hclk < 27700000U))
 248              		.loc 1 163 13
 249 00ae BB68     		ldr	r3, [r7, #8]
 250 00b0 214A     		ldr	r2, .L22+28
 251 00b2 9342     		cmp	r3, r2
 252 00b4 06D3     		bcc	.L17
 253              		.loc 1 163 34 discriminator 1
 254 00b6 BB68     		ldr	r3, [r7, #8]
 255 00b8 204A     		ldr	r2, .L22+32
 256 00ba 9342     		cmp	r3, r2
 257 00bc 02D8     		bhi	.L17
 164:STM32Cube_FW_N6/Drivers/STM32N6xx_HAL_Driver/Src/stm32n6xx_ll_usb.c ****     {
 165:STM32Cube_FW_N6/Drivers/STM32N6xx_HAL_Driver/Src/stm32n6xx_ll_usb.c ****       /* hclk Clock Range between 24-27.7 MHz */
 166:STM32Cube_FW_N6/Drivers/STM32N6xx_HAL_Driver/Src/stm32n6xx_ll_usb.c ****       UsbTrd = 0x8U;
 258              		.loc 1 166 14
 259 00be 0823     		movs	r3, #8
 260 00c0 7B61     		str	r3, [r7, #20]
 261 00c2 15E0     		b	.L19
 262              	.L17:
 167:STM32Cube_FW_N6/Drivers/STM32N6xx_HAL_Driver/Src/stm32n6xx_ll_usb.c ****     }
 168:STM32Cube_FW_N6/Drivers/STM32N6xx_HAL_Driver/Src/stm32n6xx_ll_usb.c ****     else if ((hclk >= 27700000U) && (hclk < 32000000U))
 263              		.loc 1 168 13
 264 00c4 BB68     		ldr	r3, [r7, #8]
 265 00c6 1D4A     		ldr	r2, .L22+32
 266 00c8 9342     		cmp	r3, r2
 267 00ca 06D9     		bls	.L18
 268              		.loc 1 168 34 discriminator 1
 269 00cc BB68     		ldr	r3, [r7, #8]
 270 00ce 1C4A     		ldr	r2, .L22+36
 271 00d0 9342     		cmp	r3, r2
 272 00d2 02D2     		bcs	.L18
 169:STM32Cube_FW_N6/Drivers/STM32N6xx_HAL_Driver/Src/stm32n6xx_ll_usb.c ****     {
 170:STM32Cube_FW_N6/Drivers/STM32N6xx_HAL_Driver/Src/stm32n6xx_ll_usb.c ****       /* hclk Clock Range between 27.7-32 MHz */
 171:STM32Cube_FW_N6/Drivers/STM32N6xx_HAL_Driver/Src/stm32n6xx_ll_usb.c ****       UsbTrd = 0x7U;
 273              		.loc 1 171 14
 274 00d4 0723     		movs	r3, #7
 275 00d6 7B61     		str	r3, [r7, #20]
 276 00d8 0AE0     		b	.L19
 277              	.L18:
 172:STM32Cube_FW_N6/Drivers/STM32N6xx_HAL_Driver/Src/stm32n6xx_ll_usb.c ****     }
 173:STM32Cube_FW_N6/Drivers/STM32N6xx_HAL_Driver/Src/stm32n6xx_ll_usb.c ****     else /* if(hclk >= 32000000) */
 174:STM32Cube_FW_N6/Drivers/STM32N6xx_HAL_Driver/Src/stm32n6xx_ll_usb.c ****     {
 175:STM32Cube_FW_N6/Drivers/STM32N6xx_HAL_Driver/Src/stm32n6xx_ll_usb.c ****       /* hclk Clock Range between 32-200 MHz */
 176:STM32Cube_FW_N6/Drivers/STM32N6xx_HAL_Driver/Src/stm32n6xx_ll_usb.c ****       UsbTrd = 0x6U;
 278              		.loc 1 176 14
 279 00da 0623     		movs	r3, #6
 280 00dc 7B61     		str	r3, [r7, #20]
 281 00de 07E0     		b	.L19
 282              	.L8:
ARM GAS  /tmp/ccxt1UfV.s 			page 9


 177:STM32Cube_FW_N6/Drivers/STM32N6xx_HAL_Driver/Src/stm32n6xx_ll_usb.c ****     }
 178:STM32Cube_FW_N6/Drivers/STM32N6xx_HAL_Driver/Src/stm32n6xx_ll_usb.c ****   }
 179:STM32Cube_FW_N6/Drivers/STM32N6xx_HAL_Driver/Src/stm32n6xx_ll_usb.c ****   else if (speed == USBD_HS_SPEED)
 283              		.loc 1 179 11
 284 00e0 FB79     		ldrb	r3, [r7, #7]	@ zero_extendqisi2
 285 00e2 002B     		cmp	r3, #0
 286 00e4 02D1     		bne	.L20
 180:STM32Cube_FW_N6/Drivers/STM32N6xx_HAL_Driver/Src/stm32n6xx_ll_usb.c ****   {
 181:STM32Cube_FW_N6/Drivers/STM32N6xx_HAL_Driver/Src/stm32n6xx_ll_usb.c ****     UsbTrd = USBD_HS_TRDT_VALUE;
 287              		.loc 1 181 12
 288 00e6 0923     		movs	r3, #9
 289 00e8 7B61     		str	r3, [r7, #20]
 290 00ea 01E0     		b	.L19
 291              	.L20:
 182:STM32Cube_FW_N6/Drivers/STM32N6xx_HAL_Driver/Src/stm32n6xx_ll_usb.c ****   }
 183:STM32Cube_FW_N6/Drivers/STM32N6xx_HAL_Driver/Src/stm32n6xx_ll_usb.c ****   else
 184:STM32Cube_FW_N6/Drivers/STM32N6xx_HAL_Driver/Src/stm32n6xx_ll_usb.c ****   {
 185:STM32Cube_FW_N6/Drivers/STM32N6xx_HAL_Driver/Src/stm32n6xx_ll_usb.c ****     UsbTrd = USBD_DEFAULT_TRDT_VALUE;
 292              		.loc 1 185 12
 293 00ec 0923     		movs	r3, #9
 294 00ee 7B61     		str	r3, [r7, #20]
 295              	.L19:
 186:STM32Cube_FW_N6/Drivers/STM32N6xx_HAL_Driver/Src/stm32n6xx_ll_usb.c ****   }
 187:STM32Cube_FW_N6/Drivers/STM32N6xx_HAL_Driver/Src/stm32n6xx_ll_usb.c **** 
 188:STM32Cube_FW_N6/Drivers/STM32N6xx_HAL_Driver/Src/stm32n6xx_ll_usb.c ****   USBx->GUSBCFG &= ~USB_OTG_GUSBCFG_TRDT;
 296              		.loc 1 188 7
 297 00f0 FB68     		ldr	r3, [r7, #12]
 298 00f2 DB68     		ldr	r3, [r3, #12]
 299              		.loc 1 188 17
 300 00f4 23F47052 		bic	r2, r3, #15360
 301 00f8 FB68     		ldr	r3, [r7, #12]
 302 00fa DA60     		str	r2, [r3, #12]
 189:STM32Cube_FW_N6/Drivers/STM32N6xx_HAL_Driver/Src/stm32n6xx_ll_usb.c ****   USBx->GUSBCFG |= (uint32_t)((UsbTrd << 10) & USB_OTG_GUSBCFG_TRDT);
 303              		.loc 1 189 7
 304 00fc FB68     		ldr	r3, [r7, #12]
 305 00fe DA68     		ldr	r2, [r3, #12]
 306              		.loc 1 189 39
 307 0100 7B69     		ldr	r3, [r7, #20]
 308 0102 9B02     		lsls	r3, r3, #10
 309              		.loc 1 189 20
 310 0104 03F47053 		and	r3, r3, #15360
 311              		.loc 1 189 17
 312 0108 1A43     		orrs	r2, r2, r3
 313 010a FB68     		ldr	r3, [r7, #12]
 314 010c DA60     		str	r2, [r3, #12]
 190:STM32Cube_FW_N6/Drivers/STM32N6xx_HAL_Driver/Src/stm32n6xx_ll_usb.c **** 
 191:STM32Cube_FW_N6/Drivers/STM32N6xx_HAL_Driver/Src/stm32n6xx_ll_usb.c ****   return HAL_OK;
 315              		.loc 1 191 10
 316 010e 0023     		movs	r3, #0
 192:STM32Cube_FW_N6/Drivers/STM32N6xx_HAL_Driver/Src/stm32n6xx_ll_usb.c **** }
 317              		.loc 1 192 1
 318 0110 1846     		mov	r0, r3
 319 0112 1C37     		adds	r7, r7, #28
 320              		.cfi_def_cfa_offset 4
 321 0114 BD46     		mov	sp, r7
 322              		.cfi_def_cfa_register 13
 323              		@ sp needed
ARM GAS  /tmp/ccxt1UfV.s 			page 10


 324 0116 5DF8047B 		ldr	r7, [sp], #4
 325              		.cfi_restore 7
 326              		.cfi_def_cfa_offset 0
 327 011a 7047     		bx	lr
 328              	.L23:
 329              		.align	2
 330              	.L22:
 331 011c BFACD800 		.word	14199999
 332 0120 C0E1E400 		.word	15000000
 333 0124 0024F400 		.word	16000000
 334 0128 80730601 		.word	17200000
 335 012c 9F491A01 		.word	18499999
 336 0130 FF2C3101 		.word	19999999
 337 0134 3FA44C01 		.word	21799999
 338 0138 00366E01 		.word	24000000
 339 013c 1FABA601 		.word	27699999
 340 0140 0048E801 		.word	32000000
 341              		.cfi_endproc
 342              	.LFE836:
 344              		.section	.text.USB_EnableGlobalInt,"ax",%progbits
 345              		.align	1
 346              		.global	USB_EnableGlobalInt
 347              		.syntax unified
 348              		.thumb
 349              		.thumb_func
 351              	USB_EnableGlobalInt:
 352              	.LFB837:
 193:STM32Cube_FW_N6/Drivers/STM32N6xx_HAL_Driver/Src/stm32n6xx_ll_usb.c **** 
 194:STM32Cube_FW_N6/Drivers/STM32N6xx_HAL_Driver/Src/stm32n6xx_ll_usb.c **** /**
 195:STM32Cube_FW_N6/Drivers/STM32N6xx_HAL_Driver/Src/stm32n6xx_ll_usb.c ****   * @brief  USB_EnableGlobalInt
 196:STM32Cube_FW_N6/Drivers/STM32N6xx_HAL_Driver/Src/stm32n6xx_ll_usb.c ****   *         Enables the controller's Global Int in the AHB Config reg
 197:STM32Cube_FW_N6/Drivers/STM32N6xx_HAL_Driver/Src/stm32n6xx_ll_usb.c ****   * @param  USBx  Selected device
 198:STM32Cube_FW_N6/Drivers/STM32N6xx_HAL_Driver/Src/stm32n6xx_ll_usb.c ****   * @retval HAL status
 199:STM32Cube_FW_N6/Drivers/STM32N6xx_HAL_Driver/Src/stm32n6xx_ll_usb.c ****   */
 200:STM32Cube_FW_N6/Drivers/STM32N6xx_HAL_Driver/Src/stm32n6xx_ll_usb.c **** HAL_StatusTypeDef USB_EnableGlobalInt(USB_OTG_GlobalTypeDef *USBx)
 201:STM32Cube_FW_N6/Drivers/STM32N6xx_HAL_Driver/Src/stm32n6xx_ll_usb.c **** {
 353              		.loc 1 201 1
 354              		.cfi_startproc
 355              		@ args = 0, pretend = 0, frame = 8
 356              		@ frame_needed = 1, uses_anonymous_args = 0
 357              		@ link register save eliminated.
 358 0000 80B4     		push	{r7}
 359              		.cfi_def_cfa_offset 4
 360              		.cfi_offset 7, -4
 361 0002 83B0     		sub	sp, sp, #12
 362              		.cfi_def_cfa_offset 16
 363 0004 00AF     		add	r7, sp, #0
 364              		.cfi_def_cfa_register 7
 365 0006 7860     		str	r0, [r7, #4]
 202:STM32Cube_FW_N6/Drivers/STM32N6xx_HAL_Driver/Src/stm32n6xx_ll_usb.c ****   USBx->GAHBCFG |= USB_OTG_GAHBCFG_GINT;
 366              		.loc 1 202 7
 367 0008 7B68     		ldr	r3, [r7, #4]
 368 000a 9B68     		ldr	r3, [r3, #8]
 369              		.loc 1 202 17
 370 000c 43F00102 		orr	r2, r3, #1
 371 0010 7B68     		ldr	r3, [r7, #4]
 372 0012 9A60     		str	r2, [r3, #8]
ARM GAS  /tmp/ccxt1UfV.s 			page 11


 203:STM32Cube_FW_N6/Drivers/STM32N6xx_HAL_Driver/Src/stm32n6xx_ll_usb.c ****   return HAL_OK;
 373              		.loc 1 203 10
 374 0014 0023     		movs	r3, #0
 204:STM32Cube_FW_N6/Drivers/STM32N6xx_HAL_Driver/Src/stm32n6xx_ll_usb.c **** }
 375              		.loc 1 204 1
 376 0016 1846     		mov	r0, r3
 377 0018 0C37     		adds	r7, r7, #12
 378              		.cfi_def_cfa_offset 4
 379 001a BD46     		mov	sp, r7
 380              		.cfi_def_cfa_register 13
 381              		@ sp needed
 382 001c 5DF8047B 		ldr	r7, [sp], #4
 383              		.cfi_restore 7
 384              		.cfi_def_cfa_offset 0
 385 0020 7047     		bx	lr
 386              		.cfi_endproc
 387              	.LFE837:
 389              		.section	.text.USB_DisableGlobalInt,"ax",%progbits
 390              		.align	1
 391              		.global	USB_DisableGlobalInt
 392              		.syntax unified
 393              		.thumb
 394              		.thumb_func
 396              	USB_DisableGlobalInt:
 397              	.LFB838:
 205:STM32Cube_FW_N6/Drivers/STM32N6xx_HAL_Driver/Src/stm32n6xx_ll_usb.c **** 
 206:STM32Cube_FW_N6/Drivers/STM32N6xx_HAL_Driver/Src/stm32n6xx_ll_usb.c **** /**
 207:STM32Cube_FW_N6/Drivers/STM32N6xx_HAL_Driver/Src/stm32n6xx_ll_usb.c ****   * @brief  USB_DisableGlobalInt
 208:STM32Cube_FW_N6/Drivers/STM32N6xx_HAL_Driver/Src/stm32n6xx_ll_usb.c ****   *         Disable the controller's Global Int in the AHB Config reg
 209:STM32Cube_FW_N6/Drivers/STM32N6xx_HAL_Driver/Src/stm32n6xx_ll_usb.c ****   * @param  USBx  Selected device
 210:STM32Cube_FW_N6/Drivers/STM32N6xx_HAL_Driver/Src/stm32n6xx_ll_usb.c ****   * @retval HAL status
 211:STM32Cube_FW_N6/Drivers/STM32N6xx_HAL_Driver/Src/stm32n6xx_ll_usb.c ****   */
 212:STM32Cube_FW_N6/Drivers/STM32N6xx_HAL_Driver/Src/stm32n6xx_ll_usb.c **** HAL_StatusTypeDef USB_DisableGlobalInt(USB_OTG_GlobalTypeDef *USBx)
 213:STM32Cube_FW_N6/Drivers/STM32N6xx_HAL_Driver/Src/stm32n6xx_ll_usb.c **** {
 398              		.loc 1 213 1
 399              		.cfi_startproc
 400              		@ args = 0, pretend = 0, frame = 8
 401              		@ frame_needed = 1, uses_anonymous_args = 0
 402              		@ link register save eliminated.
 403 0000 80B4     		push	{r7}
 404              		.cfi_def_cfa_offset 4
 405              		.cfi_offset 7, -4
 406 0002 83B0     		sub	sp, sp, #12
 407              		.cfi_def_cfa_offset 16
 408 0004 00AF     		add	r7, sp, #0
 409              		.cfi_def_cfa_register 7
 410 0006 7860     		str	r0, [r7, #4]
 214:STM32Cube_FW_N6/Drivers/STM32N6xx_HAL_Driver/Src/stm32n6xx_ll_usb.c ****   USBx->GAHBCFG &= ~USB_OTG_GAHBCFG_GINT;
 411              		.loc 1 214 7
 412 0008 7B68     		ldr	r3, [r7, #4]
 413 000a 9B68     		ldr	r3, [r3, #8]
 414              		.loc 1 214 17
 415 000c 23F00102 		bic	r2, r3, #1
 416 0010 7B68     		ldr	r3, [r7, #4]
 417 0012 9A60     		str	r2, [r3, #8]
 215:STM32Cube_FW_N6/Drivers/STM32N6xx_HAL_Driver/Src/stm32n6xx_ll_usb.c ****   return HAL_OK;
 418              		.loc 1 215 10
ARM GAS  /tmp/ccxt1UfV.s 			page 12


 419 0014 0023     		movs	r3, #0
 216:STM32Cube_FW_N6/Drivers/STM32N6xx_HAL_Driver/Src/stm32n6xx_ll_usb.c **** }
 420              		.loc 1 216 1
 421 0016 1846     		mov	r0, r3
 422 0018 0C37     		adds	r7, r7, #12
 423              		.cfi_def_cfa_offset 4
 424 001a BD46     		mov	sp, r7
 425              		.cfi_def_cfa_register 13
 426              		@ sp needed
 427 001c 5DF8047B 		ldr	r7, [sp], #4
 428              		.cfi_restore 7
 429              		.cfi_def_cfa_offset 0
 430 0020 7047     		bx	lr
 431              		.cfi_endproc
 432              	.LFE838:
 434              		.section	.text.USB_SetCurrentMode,"ax",%progbits
 435              		.align	1
 436              		.global	USB_SetCurrentMode
 437              		.syntax unified
 438              		.thumb
 439              		.thumb_func
 441              	USB_SetCurrentMode:
 442              	.LFB839:
 217:STM32Cube_FW_N6/Drivers/STM32N6xx_HAL_Driver/Src/stm32n6xx_ll_usb.c **** 
 218:STM32Cube_FW_N6/Drivers/STM32N6xx_HAL_Driver/Src/stm32n6xx_ll_usb.c **** /**
 219:STM32Cube_FW_N6/Drivers/STM32N6xx_HAL_Driver/Src/stm32n6xx_ll_usb.c ****   * @brief  USB_SetCurrentMode Set functional mode
 220:STM32Cube_FW_N6/Drivers/STM32N6xx_HAL_Driver/Src/stm32n6xx_ll_usb.c ****   * @param  USBx  Selected device
 221:STM32Cube_FW_N6/Drivers/STM32N6xx_HAL_Driver/Src/stm32n6xx_ll_usb.c ****   * @param  mode  current core mode
 222:STM32Cube_FW_N6/Drivers/STM32N6xx_HAL_Driver/Src/stm32n6xx_ll_usb.c ****   *          This parameter can be one of these values:
 223:STM32Cube_FW_N6/Drivers/STM32N6xx_HAL_Driver/Src/stm32n6xx_ll_usb.c ****   *            @arg USB_DEVICE_MODE Peripheral mode
 224:STM32Cube_FW_N6/Drivers/STM32N6xx_HAL_Driver/Src/stm32n6xx_ll_usb.c ****   *            @arg USB_HOST_MODE Host mode
 225:STM32Cube_FW_N6/Drivers/STM32N6xx_HAL_Driver/Src/stm32n6xx_ll_usb.c ****   * @retval HAL status
 226:STM32Cube_FW_N6/Drivers/STM32N6xx_HAL_Driver/Src/stm32n6xx_ll_usb.c ****   */
 227:STM32Cube_FW_N6/Drivers/STM32N6xx_HAL_Driver/Src/stm32n6xx_ll_usb.c **** HAL_StatusTypeDef USB_SetCurrentMode(USB_OTG_GlobalTypeDef *USBx, USB_OTG_ModeTypeDef mode)
 228:STM32Cube_FW_N6/Drivers/STM32N6xx_HAL_Driver/Src/stm32n6xx_ll_usb.c **** {
 443              		.loc 1 228 1
 444              		.cfi_startproc
 445              		@ args = 0, pretend = 0, frame = 16
 446              		@ frame_needed = 1, uses_anonymous_args = 0
 447 0000 80B5     		push	{r7, lr}
 448              		.cfi_def_cfa_offset 8
 449              		.cfi_offset 7, -8
 450              		.cfi_offset 14, -4
 451 0002 84B0     		sub	sp, sp, #16
 452              		.cfi_def_cfa_offset 24
 453 0004 00AF     		add	r7, sp, #0
 454              		.cfi_def_cfa_register 7
 455 0006 7860     		str	r0, [r7, #4]
 456 0008 0B46     		mov	r3, r1
 457 000a FB70     		strb	r3, [r7, #3]
 229:STM32Cube_FW_N6/Drivers/STM32N6xx_HAL_Driver/Src/stm32n6xx_ll_usb.c ****   uint32_t ms = 0U;
 458              		.loc 1 229 12
 459 000c 0023     		movs	r3, #0
 460 000e FB60     		str	r3, [r7, #12]
 230:STM32Cube_FW_N6/Drivers/STM32N6xx_HAL_Driver/Src/stm32n6xx_ll_usb.c **** 
 231:STM32Cube_FW_N6/Drivers/STM32N6xx_HAL_Driver/Src/stm32n6xx_ll_usb.c ****   USBx->GUSBCFG &= ~(USB_OTG_GUSBCFG_FHMOD | USB_OTG_GUSBCFG_FDMOD);
 461              		.loc 1 231 7
ARM GAS  /tmp/ccxt1UfV.s 			page 13


 462 0010 7B68     		ldr	r3, [r7, #4]
 463 0012 DB68     		ldr	r3, [r3, #12]
 464              		.loc 1 231 17
 465 0014 23F0C042 		bic	r2, r3, #1610612736
 466 0018 7B68     		ldr	r3, [r7, #4]
 467 001a DA60     		str	r2, [r3, #12]
 232:STM32Cube_FW_N6/Drivers/STM32N6xx_HAL_Driver/Src/stm32n6xx_ll_usb.c **** 
 233:STM32Cube_FW_N6/Drivers/STM32N6xx_HAL_Driver/Src/stm32n6xx_ll_usb.c ****   if (mode == USB_HOST_MODE)
 468              		.loc 1 233 6
 469 001c FB78     		ldrb	r3, [r7, #3]	@ zero_extendqisi2
 470 001e 012B     		cmp	r3, #1
 471 0020 15D1     		bne	.L29
 234:STM32Cube_FW_N6/Drivers/STM32N6xx_HAL_Driver/Src/stm32n6xx_ll_usb.c ****   {
 235:STM32Cube_FW_N6/Drivers/STM32N6xx_HAL_Driver/Src/stm32n6xx_ll_usb.c ****     USBx->GUSBCFG |= USB_OTG_GUSBCFG_FHMOD;
 472              		.loc 1 235 9
 473 0022 7B68     		ldr	r3, [r7, #4]
 474 0024 DB68     		ldr	r3, [r3, #12]
 475              		.loc 1 235 19
 476 0026 43F00052 		orr	r2, r3, #536870912
 477 002a 7B68     		ldr	r3, [r7, #4]
 478 002c DA60     		str	r2, [r3, #12]
 479              	.L31:
 236:STM32Cube_FW_N6/Drivers/STM32N6xx_HAL_Driver/Src/stm32n6xx_ll_usb.c **** 
 237:STM32Cube_FW_N6/Drivers/STM32N6xx_HAL_Driver/Src/stm32n6xx_ll_usb.c ****     do
 238:STM32Cube_FW_N6/Drivers/STM32N6xx_HAL_Driver/Src/stm32n6xx_ll_usb.c ****     {
 239:STM32Cube_FW_N6/Drivers/STM32N6xx_HAL_Driver/Src/stm32n6xx_ll_usb.c ****       HAL_Delay(10U);
 480              		.loc 1 239 7
 481 002e 0A20     		movs	r0, #10
 482 0030 FFF7FEFF 		bl	HAL_Delay
 240:STM32Cube_FW_N6/Drivers/STM32N6xx_HAL_Driver/Src/stm32n6xx_ll_usb.c ****       ms += 10U;
 483              		.loc 1 240 10
 484 0034 FB68     		ldr	r3, [r7, #12]
 485 0036 0A33     		adds	r3, r3, #10
 486 0038 FB60     		str	r3, [r7, #12]
 241:STM32Cube_FW_N6/Drivers/STM32N6xx_HAL_Driver/Src/stm32n6xx_ll_usb.c ****     } while ((USB_GetMode(USBx) != (uint32_t)USB_HOST_MODE) && (ms < HAL_USB_CURRENT_MODE_MAX_DELAY
 487              		.loc 1 241 15 discriminator 2
 488 003a 7868     		ldr	r0, [r7, #4]
 489 003c FFF7FEFF 		bl	USB_GetMode
 490 0040 0346     		mov	r3, r0
 491              		.loc 1 241 61 discriminator 2
 492 0042 012B     		cmp	r3, #1
 493 0044 1ED0     		beq	.L30
 494              		.loc 1 241 61 is_stmt 0 discriminator 1
 495 0046 FB68     		ldr	r3, [r7, #12]
 496 0048 C72B     		cmp	r3, #199
 497 004a F0D9     		bls	.L31
 498 004c 1AE0     		b	.L30
 499              	.L29:
 242:STM32Cube_FW_N6/Drivers/STM32N6xx_HAL_Driver/Src/stm32n6xx_ll_usb.c ****   }
 243:STM32Cube_FW_N6/Drivers/STM32N6xx_HAL_Driver/Src/stm32n6xx_ll_usb.c ****   else if (mode == USB_DEVICE_MODE)
 500              		.loc 1 243 11 is_stmt 1
 501 004e FB78     		ldrb	r3, [r7, #3]	@ zero_extendqisi2
 502 0050 002B     		cmp	r3, #0
 503 0052 15D1     		bne	.L32
 244:STM32Cube_FW_N6/Drivers/STM32N6xx_HAL_Driver/Src/stm32n6xx_ll_usb.c ****   {
 245:STM32Cube_FW_N6/Drivers/STM32N6xx_HAL_Driver/Src/stm32n6xx_ll_usb.c ****     USBx->GUSBCFG |= USB_OTG_GUSBCFG_FDMOD;
 504              		.loc 1 245 9
ARM GAS  /tmp/ccxt1UfV.s 			page 14


 505 0054 7B68     		ldr	r3, [r7, #4]
 506 0056 DB68     		ldr	r3, [r3, #12]
 507              		.loc 1 245 19
 508 0058 43F08042 		orr	r2, r3, #1073741824
 509 005c 7B68     		ldr	r3, [r7, #4]
 510 005e DA60     		str	r2, [r3, #12]
 511              	.L33:
 246:STM32Cube_FW_N6/Drivers/STM32N6xx_HAL_Driver/Src/stm32n6xx_ll_usb.c **** 
 247:STM32Cube_FW_N6/Drivers/STM32N6xx_HAL_Driver/Src/stm32n6xx_ll_usb.c ****     do
 248:STM32Cube_FW_N6/Drivers/STM32N6xx_HAL_Driver/Src/stm32n6xx_ll_usb.c ****     {
 249:STM32Cube_FW_N6/Drivers/STM32N6xx_HAL_Driver/Src/stm32n6xx_ll_usb.c ****       HAL_Delay(10U);
 512              		.loc 1 249 7
 513 0060 0A20     		movs	r0, #10
 514 0062 FFF7FEFF 		bl	HAL_Delay
 250:STM32Cube_FW_N6/Drivers/STM32N6xx_HAL_Driver/Src/stm32n6xx_ll_usb.c ****       ms += 10U;
 515              		.loc 1 250 10
 516 0066 FB68     		ldr	r3, [r7, #12]
 517 0068 0A33     		adds	r3, r3, #10
 518 006a FB60     		str	r3, [r7, #12]
 251:STM32Cube_FW_N6/Drivers/STM32N6xx_HAL_Driver/Src/stm32n6xx_ll_usb.c ****     } while ((USB_GetMode(USBx) != (uint32_t)USB_DEVICE_MODE) && (ms < HAL_USB_CURRENT_MODE_MAX_DEL
 519              		.loc 1 251 15 discriminator 2
 520 006c 7868     		ldr	r0, [r7, #4]
 521 006e FFF7FEFF 		bl	USB_GetMode
 522 0072 0346     		mov	r3, r0
 523              		.loc 1 251 63 discriminator 2
 524 0074 002B     		cmp	r3, #0
 525 0076 05D0     		beq	.L30
 526              		.loc 1 251 63 is_stmt 0 discriminator 1
 527 0078 FB68     		ldr	r3, [r7, #12]
 528 007a C72B     		cmp	r3, #199
 529 007c F0D9     		bls	.L33
 530 007e 01E0     		b	.L30
 531              	.L32:
 252:STM32Cube_FW_N6/Drivers/STM32N6xx_HAL_Driver/Src/stm32n6xx_ll_usb.c ****   }
 253:STM32Cube_FW_N6/Drivers/STM32N6xx_HAL_Driver/Src/stm32n6xx_ll_usb.c ****   else
 254:STM32Cube_FW_N6/Drivers/STM32N6xx_HAL_Driver/Src/stm32n6xx_ll_usb.c ****   {
 255:STM32Cube_FW_N6/Drivers/STM32N6xx_HAL_Driver/Src/stm32n6xx_ll_usb.c ****     return HAL_ERROR;
 532              		.loc 1 255 12 is_stmt 1
 533 0080 0123     		movs	r3, #1
 534 0082 05E0     		b	.L34
 535              	.L30:
 256:STM32Cube_FW_N6/Drivers/STM32N6xx_HAL_Driver/Src/stm32n6xx_ll_usb.c ****   }
 257:STM32Cube_FW_N6/Drivers/STM32N6xx_HAL_Driver/Src/stm32n6xx_ll_usb.c **** 
 258:STM32Cube_FW_N6/Drivers/STM32N6xx_HAL_Driver/Src/stm32n6xx_ll_usb.c ****   if (ms == HAL_USB_CURRENT_MODE_MAX_DELAY_MS)
 536              		.loc 1 258 6
 537 0084 FB68     		ldr	r3, [r7, #12]
 538 0086 C82B     		cmp	r3, #200
 539 0088 01D1     		bne	.L35
 259:STM32Cube_FW_N6/Drivers/STM32N6xx_HAL_Driver/Src/stm32n6xx_ll_usb.c ****   {
 260:STM32Cube_FW_N6/Drivers/STM32N6xx_HAL_Driver/Src/stm32n6xx_ll_usb.c ****     return HAL_ERROR;
 540              		.loc 1 260 12
 541 008a 0123     		movs	r3, #1
 542 008c 00E0     		b	.L34
 543              	.L35:
 261:STM32Cube_FW_N6/Drivers/STM32N6xx_HAL_Driver/Src/stm32n6xx_ll_usb.c ****   }
 262:STM32Cube_FW_N6/Drivers/STM32N6xx_HAL_Driver/Src/stm32n6xx_ll_usb.c **** 
 263:STM32Cube_FW_N6/Drivers/STM32N6xx_HAL_Driver/Src/stm32n6xx_ll_usb.c ****   return HAL_OK;
ARM GAS  /tmp/ccxt1UfV.s 			page 15


 544              		.loc 1 263 10
 545 008e 0023     		movs	r3, #0
 546              	.L34:
 264:STM32Cube_FW_N6/Drivers/STM32N6xx_HAL_Driver/Src/stm32n6xx_ll_usb.c **** }
 547              		.loc 1 264 1
 548 0090 1846     		mov	r0, r3
 549 0092 1037     		adds	r7, r7, #16
 550              		.cfi_def_cfa_offset 8
 551 0094 BD46     		mov	sp, r7
 552              		.cfi_def_cfa_register 13
 553              		@ sp needed
 554 0096 80BD     		pop	{r7, pc}
 555              		.cfi_endproc
 556              	.LFE839:
 558              		.section	.text.USB_DevInit,"ax",%progbits
 559              		.align	1
 560              		.global	USB_DevInit
 561              		.syntax unified
 562              		.thumb
 563              		.thumb_func
 565              	USB_DevInit:
 566              	.LFB840:
 265:STM32Cube_FW_N6/Drivers/STM32N6xx_HAL_Driver/Src/stm32n6xx_ll_usb.c **** 
 266:STM32Cube_FW_N6/Drivers/STM32N6xx_HAL_Driver/Src/stm32n6xx_ll_usb.c **** /**
 267:STM32Cube_FW_N6/Drivers/STM32N6xx_HAL_Driver/Src/stm32n6xx_ll_usb.c ****   * @brief  USB_DevInit Initializes the USB_OTG controller registers
 268:STM32Cube_FW_N6/Drivers/STM32N6xx_HAL_Driver/Src/stm32n6xx_ll_usb.c ****   *         for device mode
 269:STM32Cube_FW_N6/Drivers/STM32N6xx_HAL_Driver/Src/stm32n6xx_ll_usb.c ****   * @param  USBx  Selected device
 270:STM32Cube_FW_N6/Drivers/STM32N6xx_HAL_Driver/Src/stm32n6xx_ll_usb.c ****   * @param  cfg   pointer to a USB_OTG_CfgTypeDef structure that contains
 271:STM32Cube_FW_N6/Drivers/STM32N6xx_HAL_Driver/Src/stm32n6xx_ll_usb.c ****   *         the configuration information for the specified USBx peripheral.
 272:STM32Cube_FW_N6/Drivers/STM32N6xx_HAL_Driver/Src/stm32n6xx_ll_usb.c ****   * @retval HAL status
 273:STM32Cube_FW_N6/Drivers/STM32N6xx_HAL_Driver/Src/stm32n6xx_ll_usb.c ****   */
 274:STM32Cube_FW_N6/Drivers/STM32N6xx_HAL_Driver/Src/stm32n6xx_ll_usb.c **** HAL_StatusTypeDef USB_DevInit(USB_OTG_GlobalTypeDef *USBx, USB_OTG_CfgTypeDef cfg)
 275:STM32Cube_FW_N6/Drivers/STM32N6xx_HAL_Driver/Src/stm32n6xx_ll_usb.c **** {
 567              		.loc 1 275 1
 568              		.cfi_startproc
 569              		@ args = 20, pretend = 16, frame = 24
 570              		@ frame_needed = 1, uses_anonymous_args = 0
 571 0000 84B0     		sub	sp, sp, #16
 572              		.cfi_def_cfa_offset 16
 573 0002 80B5     		push	{r7, lr}
 574              		.cfi_def_cfa_offset 24
 575              		.cfi_offset 7, -24
 576              		.cfi_offset 14, -20
 577 0004 86B0     		sub	sp, sp, #24
 578              		.cfi_def_cfa_offset 48
 579 0006 00AF     		add	r7, sp, #0
 580              		.cfi_def_cfa_register 7
 581 0008 7860     		str	r0, [r7, #4]
 582 000a 07F12400 		add	r0, r7, #36
 583 000e 80E80E00 		stm	r0, {r1, r2, r3}
 276:STM32Cube_FW_N6/Drivers/STM32N6xx_HAL_Driver/Src/stm32n6xx_ll_usb.c ****   HAL_StatusTypeDef ret = HAL_OK;
 584              		.loc 1 276 21
 585 0012 0023     		movs	r3, #0
 586 0014 FB75     		strb	r3, [r7, #23]
 277:STM32Cube_FW_N6/Drivers/STM32N6xx_HAL_Driver/Src/stm32n6xx_ll_usb.c ****   uint32_t USBx_BASE = (uint32_t)USBx;
 587              		.loc 1 277 12
 588 0016 7B68     		ldr	r3, [r7, #4]
ARM GAS  /tmp/ccxt1UfV.s 			page 16


 589 0018 FB60     		str	r3, [r7, #12]
 278:STM32Cube_FW_N6/Drivers/STM32N6xx_HAL_Driver/Src/stm32n6xx_ll_usb.c ****   uint32_t i;
 279:STM32Cube_FW_N6/Drivers/STM32N6xx_HAL_Driver/Src/stm32n6xx_ll_usb.c **** 
 280:STM32Cube_FW_N6/Drivers/STM32N6xx_HAL_Driver/Src/stm32n6xx_ll_usb.c ****   for (i = 0U; i < 15U; i++)
 590              		.loc 1 280 10
 591 001a 0023     		movs	r3, #0
 592 001c 3B61     		str	r3, [r7, #16]
 593              		.loc 1 280 3
 594 001e 09E0     		b	.L37
 595              	.L38:
 281:STM32Cube_FW_N6/Drivers/STM32N6xx_HAL_Driver/Src/stm32n6xx_ll_usb.c ****   {
 282:STM32Cube_FW_N6/Drivers/STM32N6xx_HAL_Driver/Src/stm32n6xx_ll_usb.c ****     USBx->DIEPTXF[i] = 0U;
 596              		.loc 1 282 22
 597 0020 7A68     		ldr	r2, [r7, #4]
 598 0022 3B69     		ldr	r3, [r7, #16]
 599 0024 4033     		adds	r3, r3, #64
 600 0026 9B00     		lsls	r3, r3, #2
 601 0028 1344     		add	r3, r3, r2
 602 002a 0022     		movs	r2, #0
 603 002c 5A60     		str	r2, [r3, #4]
 280:STM32Cube_FW_N6/Drivers/STM32N6xx_HAL_Driver/Src/stm32n6xx_ll_usb.c ****   {
 604              		.loc 1 280 26 discriminator 3
 605 002e 3B69     		ldr	r3, [r7, #16]
 606 0030 0133     		adds	r3, r3, #1
 607 0032 3B61     		str	r3, [r7, #16]
 608              	.L37:
 280:STM32Cube_FW_N6/Drivers/STM32N6xx_HAL_Driver/Src/stm32n6xx_ll_usb.c ****   {
 609              		.loc 1 280 18 discriminator 1
 610 0034 3B69     		ldr	r3, [r7, #16]
 611 0036 0E2B     		cmp	r3, #14
 612 0038 F2D9     		bls	.L38
 283:STM32Cube_FW_N6/Drivers/STM32N6xx_HAL_Driver/Src/stm32n6xx_ll_usb.c ****   }
 284:STM32Cube_FW_N6/Drivers/STM32N6xx_HAL_Driver/Src/stm32n6xx_ll_usb.c **** 
 285:STM32Cube_FW_N6/Drivers/STM32N6xx_HAL_Driver/Src/stm32n6xx_ll_usb.c ****   /* Disable USB PHY pulldown resistors */
 286:STM32Cube_FW_N6/Drivers/STM32N6xx_HAL_Driver/Src/stm32n6xx_ll_usb.c ****   USBx->GCCFG &= ~USB_OTG_GCCFG_PULLDOWNEN;
 613              		.loc 1 286 7
 614 003a 7B68     		ldr	r3, [r7, #4]
 615 003c 9B6B     		ldr	r3, [r3, #56]
 616              		.loc 1 286 15
 617 003e 23F00072 		bic	r2, r3, #33554432
 618 0042 7B68     		ldr	r3, [r7, #4]
 619 0044 9A63     		str	r2, [r3, #56]
 287:STM32Cube_FW_N6/Drivers/STM32N6xx_HAL_Driver/Src/stm32n6xx_ll_usb.c **** 
 288:STM32Cube_FW_N6/Drivers/STM32N6xx_HAL_Driver/Src/stm32n6xx_ll_usb.c ****   /* VBUS Sensing setup */
 289:STM32Cube_FW_N6/Drivers/STM32N6xx_HAL_Driver/Src/stm32n6xx_ll_usb.c ****   if (cfg.vbus_sensing_enable == 0U)
 620              		.loc 1 289 10
 621 0046 97F82E30 		ldrb	r3, [r7, #46]	@ zero_extendqisi2
 622              		.loc 1 289 6
 623 004a 002B     		cmp	r3, #0
 624 004c 16D1     		bne	.L39
 290:STM32Cube_FW_N6/Drivers/STM32N6xx_HAL_Driver/Src/stm32n6xx_ll_usb.c ****   {
 291:STM32Cube_FW_N6/Drivers/STM32N6xx_HAL_Driver/Src/stm32n6xx_ll_usb.c ****     USBx_DEVICE->DCTL |= USB_OTG_DCTL_SDIS;
 625              		.loc 1 291 16
 626 004e FB68     		ldr	r3, [r7, #12]
 627 0050 03F50063 		add	r3, r3, #2048
 628 0054 5B68     		ldr	r3, [r3, #4]
 629 0056 FA68     		ldr	r2, [r7, #12]
ARM GAS  /tmp/ccxt1UfV.s 			page 17


 630 0058 02F50062 		add	r2, r2, #2048
 631              		.loc 1 291 23
 632 005c 43F00203 		orr	r3, r3, #2
 633 0060 5360     		str	r3, [r2, #4]
 292:STM32Cube_FW_N6/Drivers/STM32N6xx_HAL_Driver/Src/stm32n6xx_ll_usb.c **** 
 293:STM32Cube_FW_N6/Drivers/STM32N6xx_HAL_Driver/Src/stm32n6xx_ll_usb.c ****     /* B-peripheral session valid override enable */
 294:STM32Cube_FW_N6/Drivers/STM32N6xx_HAL_Driver/Src/stm32n6xx_ll_usb.c ****     USBx->GCCFG |= USB_OTG_GCCFG_VBVALEXTOEN;
 634              		.loc 1 294 9
 635 0062 7B68     		ldr	r3, [r7, #4]
 636 0064 9B6B     		ldr	r3, [r3, #56]
 637              		.loc 1 294 17
 638 0066 43F08072 		orr	r2, r3, #16777216
 639 006a 7B68     		ldr	r3, [r7, #4]
 640 006c 9A63     		str	r2, [r3, #56]
 295:STM32Cube_FW_N6/Drivers/STM32N6xx_HAL_Driver/Src/stm32n6xx_ll_usb.c ****     USBx->GCCFG |= USB_OTG_GCCFG_VBVALOVAL;
 641              		.loc 1 295 9
 642 006e 7B68     		ldr	r3, [r7, #4]
 643 0070 9B6B     		ldr	r3, [r3, #56]
 644              		.loc 1 295 17
 645 0072 43F40002 		orr	r2, r3, #8388608
 646 0076 7B68     		ldr	r3, [r7, #4]
 647 0078 9A63     		str	r2, [r3, #56]
 648 007a 0BE0     		b	.L40
 649              	.L39:
 296:STM32Cube_FW_N6/Drivers/STM32N6xx_HAL_Driver/Src/stm32n6xx_ll_usb.c ****   }
 297:STM32Cube_FW_N6/Drivers/STM32N6xx_HAL_Driver/Src/stm32n6xx_ll_usb.c ****   else
 298:STM32Cube_FW_N6/Drivers/STM32N6xx_HAL_Driver/Src/stm32n6xx_ll_usb.c ****   {
 299:STM32Cube_FW_N6/Drivers/STM32N6xx_HAL_Driver/Src/stm32n6xx_ll_usb.c ****     /* B-peripheral session valid override disable */
 300:STM32Cube_FW_N6/Drivers/STM32N6xx_HAL_Driver/Src/stm32n6xx_ll_usb.c ****     USBx->GCCFG &= ~USB_OTG_GCCFG_VBVALEXTOEN;
 650              		.loc 1 300 9
 651 007c 7B68     		ldr	r3, [r7, #4]
 652 007e 9B6B     		ldr	r3, [r3, #56]
 653              		.loc 1 300 17
 654 0080 23F08072 		bic	r2, r3, #16777216
 655 0084 7B68     		ldr	r3, [r7, #4]
 656 0086 9A63     		str	r2, [r3, #56]
 301:STM32Cube_FW_N6/Drivers/STM32N6xx_HAL_Driver/Src/stm32n6xx_ll_usb.c ****     USBx->GCCFG &= ~USB_OTG_GCCFG_VBVALOVAL;
 657              		.loc 1 301 9
 658 0088 7B68     		ldr	r3, [r7, #4]
 659 008a 9B6B     		ldr	r3, [r3, #56]
 660              		.loc 1 301 17
 661 008c 23F40002 		bic	r2, r3, #8388608
 662 0090 7B68     		ldr	r3, [r7, #4]
 663 0092 9A63     		str	r2, [r3, #56]
 664              	.L40:
 302:STM32Cube_FW_N6/Drivers/STM32N6xx_HAL_Driver/Src/stm32n6xx_ll_usb.c ****   }
 303:STM32Cube_FW_N6/Drivers/STM32N6xx_HAL_Driver/Src/stm32n6xx_ll_usb.c **** 
 304:STM32Cube_FW_N6/Drivers/STM32N6xx_HAL_Driver/Src/stm32n6xx_ll_usb.c ****   /* Restart the Phy Clock */
 305:STM32Cube_FW_N6/Drivers/STM32N6xx_HAL_Driver/Src/stm32n6xx_ll_usb.c ****   USBx_PCGCCTL = 0U;
 665              		.loc 1 305 3
 666 0094 FB68     		ldr	r3, [r7, #12]
 667 0096 03F56063 		add	r3, r3, #3584
 668 009a 1A46     		mov	r2, r3
 669              		.loc 1 305 16
 670 009c 0023     		movs	r3, #0
 671 009e 1360     		str	r3, [r2]
 306:STM32Cube_FW_N6/Drivers/STM32N6xx_HAL_Driver/Src/stm32n6xx_ll_usb.c **** 
ARM GAS  /tmp/ccxt1UfV.s 			page 18


 307:STM32Cube_FW_N6/Drivers/STM32N6xx_HAL_Driver/Src/stm32n6xx_ll_usb.c **** 
 308:STM32Cube_FW_N6/Drivers/STM32N6xx_HAL_Driver/Src/stm32n6xx_ll_usb.c ****   if (cfg.phy_itface == USB_OTG_HS_EMBEDDED_PHY)
 672              		.loc 1 308 10
 673 00a0 97F82930 		ldrb	r3, [r7, #41]	@ zero_extendqisi2
 674              		.loc 1 308 6
 675 00a4 032B     		cmp	r3, #3
 676 00a6 0DD1     		bne	.L41
 309:STM32Cube_FW_N6/Drivers/STM32N6xx_HAL_Driver/Src/stm32n6xx_ll_usb.c ****   {
 310:STM32Cube_FW_N6/Drivers/STM32N6xx_HAL_Driver/Src/stm32n6xx_ll_usb.c ****     if (cfg.speed == USBD_HS_SPEED)
 677              		.loc 1 310 12
 678 00a8 97F82730 		ldrb	r3, [r7, #39]	@ zero_extendqisi2
 679              		.loc 1 310 8
 680 00ac 002B     		cmp	r3, #0
 681 00ae 04D1     		bne	.L42
 311:STM32Cube_FW_N6/Drivers/STM32N6xx_HAL_Driver/Src/stm32n6xx_ll_usb.c ****     {
 312:STM32Cube_FW_N6/Drivers/STM32N6xx_HAL_Driver/Src/stm32n6xx_ll_usb.c ****       /* Set Core speed to High speed mode */
 313:STM32Cube_FW_N6/Drivers/STM32N6xx_HAL_Driver/Src/stm32n6xx_ll_usb.c ****       (void)USB_SetDevSpeed(USBx, USB_OTG_SPEED_HIGH);
 682              		.loc 1 313 13
 683 00b0 0021     		movs	r1, #0
 684 00b2 7868     		ldr	r0, [r7, #4]
 685 00b4 FFF7FEFF 		bl	USB_SetDevSpeed
 686 00b8 08E0     		b	.L43
 687              	.L42:
 314:STM32Cube_FW_N6/Drivers/STM32N6xx_HAL_Driver/Src/stm32n6xx_ll_usb.c ****     }
 315:STM32Cube_FW_N6/Drivers/STM32N6xx_HAL_Driver/Src/stm32n6xx_ll_usb.c ****     else
 316:STM32Cube_FW_N6/Drivers/STM32N6xx_HAL_Driver/Src/stm32n6xx_ll_usb.c ****     {
 317:STM32Cube_FW_N6/Drivers/STM32N6xx_HAL_Driver/Src/stm32n6xx_ll_usb.c ****       /* Set Core speed to Full speed mode */
 318:STM32Cube_FW_N6/Drivers/STM32N6xx_HAL_Driver/Src/stm32n6xx_ll_usb.c ****       (void)USB_SetDevSpeed(USBx, USB_OTG_SPEED_HIGH_IN_FULL);
 688              		.loc 1 318 13
 689 00ba 0121     		movs	r1, #1
 690 00bc 7868     		ldr	r0, [r7, #4]
 691 00be FFF7FEFF 		bl	USB_SetDevSpeed
 692 00c2 03E0     		b	.L43
 693              	.L41:
 319:STM32Cube_FW_N6/Drivers/STM32N6xx_HAL_Driver/Src/stm32n6xx_ll_usb.c ****     }
 320:STM32Cube_FW_N6/Drivers/STM32N6xx_HAL_Driver/Src/stm32n6xx_ll_usb.c ****   }
 321:STM32Cube_FW_N6/Drivers/STM32N6xx_HAL_Driver/Src/stm32n6xx_ll_usb.c ****   else
 322:STM32Cube_FW_N6/Drivers/STM32N6xx_HAL_Driver/Src/stm32n6xx_ll_usb.c **** 
 323:STM32Cube_FW_N6/Drivers/STM32N6xx_HAL_Driver/Src/stm32n6xx_ll_usb.c ****   {
 324:STM32Cube_FW_N6/Drivers/STM32N6xx_HAL_Driver/Src/stm32n6xx_ll_usb.c ****     /* Set Core speed to Full speed mode */
 325:STM32Cube_FW_N6/Drivers/STM32N6xx_HAL_Driver/Src/stm32n6xx_ll_usb.c ****     (void)USB_SetDevSpeed(USBx, USB_OTG_SPEED_FULL);
 694              		.loc 1 325 11
 695 00c4 0321     		movs	r1, #3
 696 00c6 7868     		ldr	r0, [r7, #4]
 697 00c8 FFF7FEFF 		bl	USB_SetDevSpeed
 698              	.L43:
 326:STM32Cube_FW_N6/Drivers/STM32N6xx_HAL_Driver/Src/stm32n6xx_ll_usb.c ****   }
 327:STM32Cube_FW_N6/Drivers/STM32N6xx_HAL_Driver/Src/stm32n6xx_ll_usb.c **** 
 328:STM32Cube_FW_N6/Drivers/STM32N6xx_HAL_Driver/Src/stm32n6xx_ll_usb.c ****   /* Flush the FIFOs */
 329:STM32Cube_FW_N6/Drivers/STM32N6xx_HAL_Driver/Src/stm32n6xx_ll_usb.c ****   if (USB_FlushTxFifo(USBx, 0x10U) != HAL_OK) /* all Tx FIFOs */
 699              		.loc 1 329 7
 700 00cc 1021     		movs	r1, #16
 701 00ce 7868     		ldr	r0, [r7, #4]
 702 00d0 FFF7FEFF 		bl	USB_FlushTxFifo
 703 00d4 0346     		mov	r3, r0
 704              		.loc 1 329 6 discriminator 1
 705 00d6 002B     		cmp	r3, #0
ARM GAS  /tmp/ccxt1UfV.s 			page 19


 706 00d8 01D0     		beq	.L44
 330:STM32Cube_FW_N6/Drivers/STM32N6xx_HAL_Driver/Src/stm32n6xx_ll_usb.c ****   {
 331:STM32Cube_FW_N6/Drivers/STM32N6xx_HAL_Driver/Src/stm32n6xx_ll_usb.c ****     ret = HAL_ERROR;
 707              		.loc 1 331 9
 708 00da 0123     		movs	r3, #1
 709 00dc FB75     		strb	r3, [r7, #23]
 710              	.L44:
 332:STM32Cube_FW_N6/Drivers/STM32N6xx_HAL_Driver/Src/stm32n6xx_ll_usb.c ****   }
 333:STM32Cube_FW_N6/Drivers/STM32N6xx_HAL_Driver/Src/stm32n6xx_ll_usb.c **** 
 334:STM32Cube_FW_N6/Drivers/STM32N6xx_HAL_Driver/Src/stm32n6xx_ll_usb.c ****   if (USB_FlushRxFifo(USBx) != HAL_OK)
 711              		.loc 1 334 7
 712 00de 7868     		ldr	r0, [r7, #4]
 713 00e0 FFF7FEFF 		bl	USB_FlushRxFifo
 714 00e4 0346     		mov	r3, r0
 715              		.loc 1 334 6 discriminator 1
 716 00e6 002B     		cmp	r3, #0
 717 00e8 01D0     		beq	.L45
 335:STM32Cube_FW_N6/Drivers/STM32N6xx_HAL_Driver/Src/stm32n6xx_ll_usb.c ****   {
 336:STM32Cube_FW_N6/Drivers/STM32N6xx_HAL_Driver/Src/stm32n6xx_ll_usb.c ****     ret = HAL_ERROR;
 718              		.loc 1 336 9
 719 00ea 0123     		movs	r3, #1
 720 00ec FB75     		strb	r3, [r7, #23]
 721              	.L45:
 337:STM32Cube_FW_N6/Drivers/STM32N6xx_HAL_Driver/Src/stm32n6xx_ll_usb.c ****   }
 338:STM32Cube_FW_N6/Drivers/STM32N6xx_HAL_Driver/Src/stm32n6xx_ll_usb.c **** 
 339:STM32Cube_FW_N6/Drivers/STM32N6xx_HAL_Driver/Src/stm32n6xx_ll_usb.c ****   /* Clear all pending Device Interrupts */
 340:STM32Cube_FW_N6/Drivers/STM32N6xx_HAL_Driver/Src/stm32n6xx_ll_usb.c ****   USBx_DEVICE->DIEPMSK = 0U;
 722              		.loc 1 340 3
 723 00ee FB68     		ldr	r3, [r7, #12]
 724 00f0 03F50063 		add	r3, r3, #2048
 725 00f4 1A46     		mov	r2, r3
 726              		.loc 1 340 24
 727 00f6 0023     		movs	r3, #0
 728 00f8 1361     		str	r3, [r2, #16]
 341:STM32Cube_FW_N6/Drivers/STM32N6xx_HAL_Driver/Src/stm32n6xx_ll_usb.c ****   USBx_DEVICE->DOEPMSK = 0U;
 729              		.loc 1 341 3
 730 00fa FB68     		ldr	r3, [r7, #12]
 731 00fc 03F50063 		add	r3, r3, #2048
 732 0100 1A46     		mov	r2, r3
 733              		.loc 1 341 24
 734 0102 0023     		movs	r3, #0
 735 0104 5361     		str	r3, [r2, #20]
 342:STM32Cube_FW_N6/Drivers/STM32N6xx_HAL_Driver/Src/stm32n6xx_ll_usb.c ****   USBx_DEVICE->DAINTMSK = 0U;
 736              		.loc 1 342 3
 737 0106 FB68     		ldr	r3, [r7, #12]
 738 0108 03F50063 		add	r3, r3, #2048
 739 010c 1A46     		mov	r2, r3
 740              		.loc 1 342 25
 741 010e 0023     		movs	r3, #0
 742 0110 D361     		str	r3, [r2, #28]
 343:STM32Cube_FW_N6/Drivers/STM32N6xx_HAL_Driver/Src/stm32n6xx_ll_usb.c **** 
 344:STM32Cube_FW_N6/Drivers/STM32N6xx_HAL_Driver/Src/stm32n6xx_ll_usb.c ****   for (i = 0U; i < cfg.dev_endpoints; i++)
 743              		.loc 1 344 10
 744 0112 0023     		movs	r3, #0
 745 0114 3B61     		str	r3, [r7, #16]
 746              		.loc 1 344 3
 747 0116 43E0     		b	.L46
ARM GAS  /tmp/ccxt1UfV.s 			page 20


 748              	.L50:
 345:STM32Cube_FW_N6/Drivers/STM32N6xx_HAL_Driver/Src/stm32n6xx_ll_usb.c ****   {
 346:STM32Cube_FW_N6/Drivers/STM32N6xx_HAL_Driver/Src/stm32n6xx_ll_usb.c ****     if ((USBx_INEP(i)->DIEPCTL & USB_OTG_DIEPCTL_EPENA) == USB_OTG_DIEPCTL_EPENA)
 749              		.loc 1 346 10
 750 0118 3B69     		ldr	r3, [r7, #16]
 751 011a 5A01     		lsls	r2, r3, #5
 752 011c FB68     		ldr	r3, [r7, #12]
 753 011e 1344     		add	r3, r3, r2
 754 0120 03F51063 		add	r3, r3, #2304
 755              		.loc 1 346 22
 756 0124 1B68     		ldr	r3, [r3]
 757              		.loc 1 346 32
 758 0126 03F00043 		and	r3, r3, #-2147483648
 759              		.loc 1 346 8
 760 012a B3F1004F 		cmp	r3, #-2147483648
 761 012e 18D1     		bne	.L47
 347:STM32Cube_FW_N6/Drivers/STM32N6xx_HAL_Driver/Src/stm32n6xx_ll_usb.c ****     {
 348:STM32Cube_FW_N6/Drivers/STM32N6xx_HAL_Driver/Src/stm32n6xx_ll_usb.c ****       if (i == 0U)
 762              		.loc 1 348 10
 763 0130 3B69     		ldr	r3, [r7, #16]
 764 0132 002B     		cmp	r3, #0
 765 0134 0AD1     		bne	.L48
 349:STM32Cube_FW_N6/Drivers/STM32N6xx_HAL_Driver/Src/stm32n6xx_ll_usb.c ****       {
 350:STM32Cube_FW_N6/Drivers/STM32N6xx_HAL_Driver/Src/stm32n6xx_ll_usb.c ****         USBx_INEP(i)->DIEPCTL = USB_OTG_DIEPCTL_SNAK;
 766              		.loc 1 350 9
 767 0136 3B69     		ldr	r3, [r7, #16]
 768 0138 5A01     		lsls	r2, r3, #5
 769 013a FB68     		ldr	r3, [r7, #12]
 770 013c 1344     		add	r3, r3, r2
 771 013e 03F51063 		add	r3, r3, #2304
 772 0142 1A46     		mov	r2, r3
 773              		.loc 1 350 31
 774 0144 4FF00063 		mov	r3, #134217728
 775 0148 1360     		str	r3, [r2]
 776 014a 13E0     		b	.L49
 777              	.L48:
 351:STM32Cube_FW_N6/Drivers/STM32N6xx_HAL_Driver/Src/stm32n6xx_ll_usb.c ****       }
 352:STM32Cube_FW_N6/Drivers/STM32N6xx_HAL_Driver/Src/stm32n6xx_ll_usb.c ****       else
 353:STM32Cube_FW_N6/Drivers/STM32N6xx_HAL_Driver/Src/stm32n6xx_ll_usb.c ****       {
 354:STM32Cube_FW_N6/Drivers/STM32N6xx_HAL_Driver/Src/stm32n6xx_ll_usb.c ****         USBx_INEP(i)->DIEPCTL = USB_OTG_DIEPCTL_EPDIS | USB_OTG_DIEPCTL_SNAK;
 778              		.loc 1 354 9
 779 014c 3B69     		ldr	r3, [r7, #16]
 780 014e 5A01     		lsls	r2, r3, #5
 781 0150 FB68     		ldr	r3, [r7, #12]
 782 0152 1344     		add	r3, r3, r2
 783 0154 03F51063 		add	r3, r3, #2304
 784 0158 1A46     		mov	r2, r3
 785              		.loc 1 354 31
 786 015a 4FF09043 		mov	r3, #1207959552
 787 015e 1360     		str	r3, [r2]
 788 0160 08E0     		b	.L49
 789              	.L47:
 355:STM32Cube_FW_N6/Drivers/STM32N6xx_HAL_Driver/Src/stm32n6xx_ll_usb.c ****       }
 356:STM32Cube_FW_N6/Drivers/STM32N6xx_HAL_Driver/Src/stm32n6xx_ll_usb.c ****     }
 357:STM32Cube_FW_N6/Drivers/STM32N6xx_HAL_Driver/Src/stm32n6xx_ll_usb.c ****     else
 358:STM32Cube_FW_N6/Drivers/STM32N6xx_HAL_Driver/Src/stm32n6xx_ll_usb.c ****     {
 359:STM32Cube_FW_N6/Drivers/STM32N6xx_HAL_Driver/Src/stm32n6xx_ll_usb.c ****       USBx_INEP(i)->DIEPCTL = 0U;
ARM GAS  /tmp/ccxt1UfV.s 			page 21


 790              		.loc 1 359 7
 791 0162 3B69     		ldr	r3, [r7, #16]
 792 0164 5A01     		lsls	r2, r3, #5
 793 0166 FB68     		ldr	r3, [r7, #12]
 794 0168 1344     		add	r3, r3, r2
 795 016a 03F51063 		add	r3, r3, #2304
 796 016e 1A46     		mov	r2, r3
 797              		.loc 1 359 29
 798 0170 0023     		movs	r3, #0
 799 0172 1360     		str	r3, [r2]
 800              	.L49:
 360:STM32Cube_FW_N6/Drivers/STM32N6xx_HAL_Driver/Src/stm32n6xx_ll_usb.c ****     }
 361:STM32Cube_FW_N6/Drivers/STM32N6xx_HAL_Driver/Src/stm32n6xx_ll_usb.c **** 
 362:STM32Cube_FW_N6/Drivers/STM32N6xx_HAL_Driver/Src/stm32n6xx_ll_usb.c ****     USBx_INEP(i)->DIEPTSIZ = 0U;
 801              		.loc 1 362 5
 802 0174 3B69     		ldr	r3, [r7, #16]
 803 0176 5A01     		lsls	r2, r3, #5
 804 0178 FB68     		ldr	r3, [r7, #12]
 805 017a 1344     		add	r3, r3, r2
 806 017c 03F51063 		add	r3, r3, #2304
 807 0180 1A46     		mov	r2, r3
 808              		.loc 1 362 28
 809 0182 0023     		movs	r3, #0
 810 0184 1361     		str	r3, [r2, #16]
 363:STM32Cube_FW_N6/Drivers/STM32N6xx_HAL_Driver/Src/stm32n6xx_ll_usb.c ****     USBx_INEP(i)->DIEPINT  = 0xFB7FU;
 811              		.loc 1 363 5
 812 0186 3B69     		ldr	r3, [r7, #16]
 813 0188 5A01     		lsls	r2, r3, #5
 814 018a FB68     		ldr	r3, [r7, #12]
 815 018c 1344     		add	r3, r3, r2
 816 018e 03F51063 		add	r3, r3, #2304
 817 0192 1A46     		mov	r2, r3
 818              		.loc 1 363 28
 819 0194 4FF67F33 		movw	r3, #64383
 820 0198 9360     		str	r3, [r2, #8]
 344:STM32Cube_FW_N6/Drivers/STM32N6xx_HAL_Driver/Src/stm32n6xx_ll_usb.c ****   {
 821              		.loc 1 344 40 discriminator 2
 822 019a 3B69     		ldr	r3, [r7, #16]
 823 019c 0133     		adds	r3, r3, #1
 824 019e 3B61     		str	r3, [r7, #16]
 825              	.L46:
 344:STM32Cube_FW_N6/Drivers/STM32N6xx_HAL_Driver/Src/stm32n6xx_ll_usb.c ****   {
 826              		.loc 1 344 23 discriminator 1
 827 01a0 97F82430 		ldrb	r3, [r7, #36]	@ zero_extendqisi2
 828 01a4 1A46     		mov	r2, r3
 344:STM32Cube_FW_N6/Drivers/STM32N6xx_HAL_Driver/Src/stm32n6xx_ll_usb.c ****   {
 829              		.loc 1 344 18 discriminator 1
 830 01a6 3B69     		ldr	r3, [r7, #16]
 831 01a8 9342     		cmp	r3, r2
 832 01aa B5D3     		bcc	.L50
 364:STM32Cube_FW_N6/Drivers/STM32N6xx_HAL_Driver/Src/stm32n6xx_ll_usb.c ****   }
 365:STM32Cube_FW_N6/Drivers/STM32N6xx_HAL_Driver/Src/stm32n6xx_ll_usb.c **** 
 366:STM32Cube_FW_N6/Drivers/STM32N6xx_HAL_Driver/Src/stm32n6xx_ll_usb.c ****   for (i = 0U; i < cfg.dev_endpoints; i++)
 833              		.loc 1 366 10
 834 01ac 0023     		movs	r3, #0
 835 01ae 3B61     		str	r3, [r7, #16]
 836              		.loc 1 366 3
ARM GAS  /tmp/ccxt1UfV.s 			page 22


 837 01b0 43E0     		b	.L51
 838              	.L55:
 367:STM32Cube_FW_N6/Drivers/STM32N6xx_HAL_Driver/Src/stm32n6xx_ll_usb.c ****   {
 368:STM32Cube_FW_N6/Drivers/STM32N6xx_HAL_Driver/Src/stm32n6xx_ll_usb.c ****     if ((USBx_OUTEP(i)->DOEPCTL & USB_OTG_DOEPCTL_EPENA) == USB_OTG_DOEPCTL_EPENA)
 839              		.loc 1 368 10
 840 01b2 3B69     		ldr	r3, [r7, #16]
 841 01b4 5A01     		lsls	r2, r3, #5
 842 01b6 FB68     		ldr	r3, [r7, #12]
 843 01b8 1344     		add	r3, r3, r2
 844 01ba 03F53063 		add	r3, r3, #2816
 845              		.loc 1 368 23
 846 01be 1B68     		ldr	r3, [r3]
 847              		.loc 1 368 33
 848 01c0 03F00043 		and	r3, r3, #-2147483648
 849              		.loc 1 368 8
 850 01c4 B3F1004F 		cmp	r3, #-2147483648
 851 01c8 18D1     		bne	.L52
 369:STM32Cube_FW_N6/Drivers/STM32N6xx_HAL_Driver/Src/stm32n6xx_ll_usb.c ****     {
 370:STM32Cube_FW_N6/Drivers/STM32N6xx_HAL_Driver/Src/stm32n6xx_ll_usb.c ****       if (i == 0U)
 852              		.loc 1 370 10
 853 01ca 3B69     		ldr	r3, [r7, #16]
 854 01cc 002B     		cmp	r3, #0
 855 01ce 0AD1     		bne	.L53
 371:STM32Cube_FW_N6/Drivers/STM32N6xx_HAL_Driver/Src/stm32n6xx_ll_usb.c ****       {
 372:STM32Cube_FW_N6/Drivers/STM32N6xx_HAL_Driver/Src/stm32n6xx_ll_usb.c ****         USBx_OUTEP(i)->DOEPCTL = USB_OTG_DOEPCTL_SNAK;
 856              		.loc 1 372 9
 857 01d0 3B69     		ldr	r3, [r7, #16]
 858 01d2 5A01     		lsls	r2, r3, #5
 859 01d4 FB68     		ldr	r3, [r7, #12]
 860 01d6 1344     		add	r3, r3, r2
 861 01d8 03F53063 		add	r3, r3, #2816
 862 01dc 1A46     		mov	r2, r3
 863              		.loc 1 372 32
 864 01de 4FF00063 		mov	r3, #134217728
 865 01e2 1360     		str	r3, [r2]
 866 01e4 13E0     		b	.L54
 867              	.L53:
 373:STM32Cube_FW_N6/Drivers/STM32N6xx_HAL_Driver/Src/stm32n6xx_ll_usb.c ****       }
 374:STM32Cube_FW_N6/Drivers/STM32N6xx_HAL_Driver/Src/stm32n6xx_ll_usb.c ****       else
 375:STM32Cube_FW_N6/Drivers/STM32N6xx_HAL_Driver/Src/stm32n6xx_ll_usb.c ****       {
 376:STM32Cube_FW_N6/Drivers/STM32N6xx_HAL_Driver/Src/stm32n6xx_ll_usb.c ****         USBx_OUTEP(i)->DOEPCTL = USB_OTG_DOEPCTL_EPDIS | USB_OTG_DOEPCTL_SNAK;
 868              		.loc 1 376 9
 869 01e6 3B69     		ldr	r3, [r7, #16]
 870 01e8 5A01     		lsls	r2, r3, #5
 871 01ea FB68     		ldr	r3, [r7, #12]
 872 01ec 1344     		add	r3, r3, r2
 873 01ee 03F53063 		add	r3, r3, #2816
 874 01f2 1A46     		mov	r2, r3
 875              		.loc 1 376 32
 876 01f4 4FF09043 		mov	r3, #1207959552
 877 01f8 1360     		str	r3, [r2]
 878 01fa 08E0     		b	.L54
 879              	.L52:
 377:STM32Cube_FW_N6/Drivers/STM32N6xx_HAL_Driver/Src/stm32n6xx_ll_usb.c ****       }
 378:STM32Cube_FW_N6/Drivers/STM32N6xx_HAL_Driver/Src/stm32n6xx_ll_usb.c ****     }
 379:STM32Cube_FW_N6/Drivers/STM32N6xx_HAL_Driver/Src/stm32n6xx_ll_usb.c ****     else
 380:STM32Cube_FW_N6/Drivers/STM32N6xx_HAL_Driver/Src/stm32n6xx_ll_usb.c ****     {
ARM GAS  /tmp/ccxt1UfV.s 			page 23


 381:STM32Cube_FW_N6/Drivers/STM32N6xx_HAL_Driver/Src/stm32n6xx_ll_usb.c ****       USBx_OUTEP(i)->DOEPCTL = 0U;
 880              		.loc 1 381 7
 881 01fc 3B69     		ldr	r3, [r7, #16]
 882 01fe 5A01     		lsls	r2, r3, #5
 883 0200 FB68     		ldr	r3, [r7, #12]
 884 0202 1344     		add	r3, r3, r2
 885 0204 03F53063 		add	r3, r3, #2816
 886 0208 1A46     		mov	r2, r3
 887              		.loc 1 381 30
 888 020a 0023     		movs	r3, #0
 889 020c 1360     		str	r3, [r2]
 890              	.L54:
 382:STM32Cube_FW_N6/Drivers/STM32N6xx_HAL_Driver/Src/stm32n6xx_ll_usb.c ****     }
 383:STM32Cube_FW_N6/Drivers/STM32N6xx_HAL_Driver/Src/stm32n6xx_ll_usb.c **** 
 384:STM32Cube_FW_N6/Drivers/STM32N6xx_HAL_Driver/Src/stm32n6xx_ll_usb.c ****     USBx_OUTEP(i)->DOEPTSIZ = 0U;
 891              		.loc 1 384 5
 892 020e 3B69     		ldr	r3, [r7, #16]
 893 0210 5A01     		lsls	r2, r3, #5
 894 0212 FB68     		ldr	r3, [r7, #12]
 895 0214 1344     		add	r3, r3, r2
 896 0216 03F53063 		add	r3, r3, #2816
 897 021a 1A46     		mov	r2, r3
 898              		.loc 1 384 29
 899 021c 0023     		movs	r3, #0
 900 021e 1361     		str	r3, [r2, #16]
 385:STM32Cube_FW_N6/Drivers/STM32N6xx_HAL_Driver/Src/stm32n6xx_ll_usb.c ****     USBx_OUTEP(i)->DOEPINT  = 0xFB7FU;
 901              		.loc 1 385 5
 902 0220 3B69     		ldr	r3, [r7, #16]
 903 0222 5A01     		lsls	r2, r3, #5
 904 0224 FB68     		ldr	r3, [r7, #12]
 905 0226 1344     		add	r3, r3, r2
 906 0228 03F53063 		add	r3, r3, #2816
 907 022c 1A46     		mov	r2, r3
 908              		.loc 1 385 29
 909 022e 4FF67F33 		movw	r3, #64383
 910 0232 9360     		str	r3, [r2, #8]
 366:STM32Cube_FW_N6/Drivers/STM32N6xx_HAL_Driver/Src/stm32n6xx_ll_usb.c ****   {
 911              		.loc 1 366 40 discriminator 2
 912 0234 3B69     		ldr	r3, [r7, #16]
 913 0236 0133     		adds	r3, r3, #1
 914 0238 3B61     		str	r3, [r7, #16]
 915              	.L51:
 366:STM32Cube_FW_N6/Drivers/STM32N6xx_HAL_Driver/Src/stm32n6xx_ll_usb.c ****   {
 916              		.loc 1 366 23 discriminator 1
 917 023a 97F82430 		ldrb	r3, [r7, #36]	@ zero_extendqisi2
 918 023e 1A46     		mov	r2, r3
 366:STM32Cube_FW_N6/Drivers/STM32N6xx_HAL_Driver/Src/stm32n6xx_ll_usb.c ****   {
 919              		.loc 1 366 18 discriminator 1
 920 0240 3B69     		ldr	r3, [r7, #16]
 921 0242 9342     		cmp	r3, r2
 922 0244 B5D3     		bcc	.L55
 386:STM32Cube_FW_N6/Drivers/STM32N6xx_HAL_Driver/Src/stm32n6xx_ll_usb.c ****   }
 387:STM32Cube_FW_N6/Drivers/STM32N6xx_HAL_Driver/Src/stm32n6xx_ll_usb.c **** 
 388:STM32Cube_FW_N6/Drivers/STM32N6xx_HAL_Driver/Src/stm32n6xx_ll_usb.c ****   USBx_DEVICE->DIEPMSK &= ~(USB_OTG_DIEPMSK_TXFURM);
 923              		.loc 1 388 14
 924 0246 FB68     		ldr	r3, [r7, #12]
 925 0248 03F50063 		add	r3, r3, #2048
ARM GAS  /tmp/ccxt1UfV.s 			page 24


 926 024c 1B69     		ldr	r3, [r3, #16]
 927 024e FA68     		ldr	r2, [r7, #12]
 928 0250 02F50062 		add	r2, r2, #2048
 929              		.loc 1 388 24
 930 0254 23F48073 		bic	r3, r3, #256
 931 0258 1361     		str	r3, [r2, #16]
 389:STM32Cube_FW_N6/Drivers/STM32N6xx_HAL_Driver/Src/stm32n6xx_ll_usb.c **** 
 390:STM32Cube_FW_N6/Drivers/STM32N6xx_HAL_Driver/Src/stm32n6xx_ll_usb.c ****   /* Disable all interrupts. */
 391:STM32Cube_FW_N6/Drivers/STM32N6xx_HAL_Driver/Src/stm32n6xx_ll_usb.c ****   USBx->GINTMSK = 0U;
 932              		.loc 1 391 17
 933 025a 7B68     		ldr	r3, [r7, #4]
 934 025c 0022     		movs	r2, #0
 935 025e 9A61     		str	r2, [r3, #24]
 392:STM32Cube_FW_N6/Drivers/STM32N6xx_HAL_Driver/Src/stm32n6xx_ll_usb.c **** 
 393:STM32Cube_FW_N6/Drivers/STM32N6xx_HAL_Driver/Src/stm32n6xx_ll_usb.c ****   /* Clear any pending interrupts */
 394:STM32Cube_FW_N6/Drivers/STM32N6xx_HAL_Driver/Src/stm32n6xx_ll_usb.c ****   USBx->GINTSTS = 0xBFFFFFFFU;
 936              		.loc 1 394 17
 937 0260 7B68     		ldr	r3, [r7, #4]
 938 0262 6FF08042 		mvn	r2, #1073741824
 939 0266 5A61     		str	r2, [r3, #20]
 395:STM32Cube_FW_N6/Drivers/STM32N6xx_HAL_Driver/Src/stm32n6xx_ll_usb.c **** 
 396:STM32Cube_FW_N6/Drivers/STM32N6xx_HAL_Driver/Src/stm32n6xx_ll_usb.c ****   /* Enable the common interrupts */
 397:STM32Cube_FW_N6/Drivers/STM32N6xx_HAL_Driver/Src/stm32n6xx_ll_usb.c ****   if (cfg.dma_enable == 0U)
 940              		.loc 1 397 10
 941 0268 97F82630 		ldrb	r3, [r7, #38]	@ zero_extendqisi2
 942              		.loc 1 397 6
 943 026c 002B     		cmp	r3, #0
 944 026e 05D1     		bne	.L56
 398:STM32Cube_FW_N6/Drivers/STM32N6xx_HAL_Driver/Src/stm32n6xx_ll_usb.c ****   {
 399:STM32Cube_FW_N6/Drivers/STM32N6xx_HAL_Driver/Src/stm32n6xx_ll_usb.c ****     USBx->GINTMSK |= USB_OTG_GINTMSK_RXFLVLM;
 945              		.loc 1 399 9
 946 0270 7B68     		ldr	r3, [r7, #4]
 947 0272 9B69     		ldr	r3, [r3, #24]
 948              		.loc 1 399 19
 949 0274 43F01002 		orr	r2, r3, #16
 950 0278 7B68     		ldr	r3, [r7, #4]
 951 027a 9A61     		str	r2, [r3, #24]
 952              	.L56:
 400:STM32Cube_FW_N6/Drivers/STM32N6xx_HAL_Driver/Src/stm32n6xx_ll_usb.c ****   }
 401:STM32Cube_FW_N6/Drivers/STM32N6xx_HAL_Driver/Src/stm32n6xx_ll_usb.c **** 
 402:STM32Cube_FW_N6/Drivers/STM32N6xx_HAL_Driver/Src/stm32n6xx_ll_usb.c ****   /* Enable interrupts matching to the Device mode ONLY */
 403:STM32Cube_FW_N6/Drivers/STM32N6xx_HAL_Driver/Src/stm32n6xx_ll_usb.c ****   USBx->GINTMSK |= USB_OTG_GINTMSK_USBSUSPM | USB_OTG_GINTMSK_USBRST |
 953              		.loc 1 403 7
 954 027c 7B68     		ldr	r3, [r7, #4]
 955 027e 9A69     		ldr	r2, [r3, #24]
 956              		.loc 1 403 17
 957 0280 104B     		ldr	r3, .L60
 958 0282 1343     		orrs	r3, r3, r2
 959 0284 7A68     		ldr	r2, [r7, #4]
 960 0286 9361     		str	r3, [r2, #24]
 404:STM32Cube_FW_N6/Drivers/STM32N6xx_HAL_Driver/Src/stm32n6xx_ll_usb.c ****                    USB_OTG_GINTMSK_ENUMDNEM | USB_OTG_GINTMSK_IEPINT |
 405:STM32Cube_FW_N6/Drivers/STM32N6xx_HAL_Driver/Src/stm32n6xx_ll_usb.c ****                    USB_OTG_GINTMSK_OEPINT   | USB_OTG_GINTMSK_IISOIXFRM |
 406:STM32Cube_FW_N6/Drivers/STM32N6xx_HAL_Driver/Src/stm32n6xx_ll_usb.c ****                    USB_OTG_GINTMSK_PXFRM_IISOOXFRM | USB_OTG_GINTMSK_WUIM;
 407:STM32Cube_FW_N6/Drivers/STM32N6xx_HAL_Driver/Src/stm32n6xx_ll_usb.c **** 
 408:STM32Cube_FW_N6/Drivers/STM32N6xx_HAL_Driver/Src/stm32n6xx_ll_usb.c ****   if (cfg.Sof_enable != 0U)
 961              		.loc 1 408 10
 962 0288 97F82A30 		ldrb	r3, [r7, #42]	@ zero_extendqisi2
ARM GAS  /tmp/ccxt1UfV.s 			page 25


 963              		.loc 1 408 6
 964 028c 002B     		cmp	r3, #0
 965 028e 05D0     		beq	.L57
 409:STM32Cube_FW_N6/Drivers/STM32N6xx_HAL_Driver/Src/stm32n6xx_ll_usb.c ****   {
 410:STM32Cube_FW_N6/Drivers/STM32N6xx_HAL_Driver/Src/stm32n6xx_ll_usb.c ****     USBx->GINTMSK |= USB_OTG_GINTMSK_SOFM;
 966              		.loc 1 410 9
 967 0290 7B68     		ldr	r3, [r7, #4]
 968 0292 9B69     		ldr	r3, [r3, #24]
 969              		.loc 1 410 19
 970 0294 43F00802 		orr	r2, r3, #8
 971 0298 7B68     		ldr	r3, [r7, #4]
 972 029a 9A61     		str	r2, [r3, #24]
 973              	.L57:
 411:STM32Cube_FW_N6/Drivers/STM32N6xx_HAL_Driver/Src/stm32n6xx_ll_usb.c ****   }
 412:STM32Cube_FW_N6/Drivers/STM32N6xx_HAL_Driver/Src/stm32n6xx_ll_usb.c **** 
 413:STM32Cube_FW_N6/Drivers/STM32N6xx_HAL_Driver/Src/stm32n6xx_ll_usb.c ****   if (cfg.vbus_sensing_enable == 1U)
 974              		.loc 1 413 10
 975 029c 97F82E30 		ldrb	r3, [r7, #46]	@ zero_extendqisi2
 976              		.loc 1 413 6
 977 02a0 012B     		cmp	r3, #1
 978 02a2 07D1     		bne	.L58
 414:STM32Cube_FW_N6/Drivers/STM32N6xx_HAL_Driver/Src/stm32n6xx_ll_usb.c ****   {
 415:STM32Cube_FW_N6/Drivers/STM32N6xx_HAL_Driver/Src/stm32n6xx_ll_usb.c ****     USBx->GINTMSK |= (USB_OTG_GINTMSK_SRQIM | USB_OTG_GINTMSK_OTGINT);
 979              		.loc 1 415 9
 980 02a4 7B68     		ldr	r3, [r7, #4]
 981 02a6 9B69     		ldr	r3, [r3, #24]
 982              		.loc 1 415 19
 983 02a8 43F08043 		orr	r3, r3, #1073741824
 984 02ac 43F00403 		orr	r3, r3, #4
 985 02b0 7A68     		ldr	r2, [r7, #4]
 986 02b2 9361     		str	r3, [r2, #24]
 987              	.L58:
 416:STM32Cube_FW_N6/Drivers/STM32N6xx_HAL_Driver/Src/stm32n6xx_ll_usb.c ****   }
 417:STM32Cube_FW_N6/Drivers/STM32N6xx_HAL_Driver/Src/stm32n6xx_ll_usb.c **** 
 418:STM32Cube_FW_N6/Drivers/STM32N6xx_HAL_Driver/Src/stm32n6xx_ll_usb.c ****   return ret;
 988              		.loc 1 418 10
 989 02b4 FB7D     		ldrb	r3, [r7, #23]	@ zero_extendqisi2
 419:STM32Cube_FW_N6/Drivers/STM32N6xx_HAL_Driver/Src/stm32n6xx_ll_usb.c **** }
 990              		.loc 1 419 1
 991 02b6 1846     		mov	r0, r3
 992 02b8 1837     		adds	r7, r7, #24
 993              		.cfi_def_cfa_offset 24
 994 02ba BD46     		mov	sp, r7
 995              		.cfi_def_cfa_register 13
 996              		@ sp needed
 997 02bc BDE88040 		pop	{r7, lr}
 998              		.cfi_restore 14
 999              		.cfi_restore 7
 1000              		.cfi_def_cfa_offset 16
 1001 02c0 04B0     		add	sp, sp, #16
 1002              		.cfi_def_cfa_offset 0
 1003 02c2 7047     		bx	lr
 1004              	.L61:
 1005              		.align	2
 1006              	.L60:
 1007 02c4 00383C80 		.word	-2143537152
 1008              		.cfi_endproc
ARM GAS  /tmp/ccxt1UfV.s 			page 26


 1009              	.LFE840:
 1011              		.section	.text.USB_FlushTxFifo,"ax",%progbits
 1012              		.align	1
 1013              		.global	USB_FlushTxFifo
 1014              		.syntax unified
 1015              		.thumb
 1016              		.thumb_func
 1018              	USB_FlushTxFifo:
 1019              	.LFB841:
 420:STM32Cube_FW_N6/Drivers/STM32N6xx_HAL_Driver/Src/stm32n6xx_ll_usb.c **** 
 421:STM32Cube_FW_N6/Drivers/STM32N6xx_HAL_Driver/Src/stm32n6xx_ll_usb.c **** /**
 422:STM32Cube_FW_N6/Drivers/STM32N6xx_HAL_Driver/Src/stm32n6xx_ll_usb.c ****   * @brief  USB_FlushTxFifo Flush a Tx FIFO
 423:STM32Cube_FW_N6/Drivers/STM32N6xx_HAL_Driver/Src/stm32n6xx_ll_usb.c ****   * @param  USBx  Selected device
 424:STM32Cube_FW_N6/Drivers/STM32N6xx_HAL_Driver/Src/stm32n6xx_ll_usb.c ****   * @param  num  FIFO number
 425:STM32Cube_FW_N6/Drivers/STM32N6xx_HAL_Driver/Src/stm32n6xx_ll_usb.c ****   *         This parameter can be a value from 1 to 15
 426:STM32Cube_FW_N6/Drivers/STM32N6xx_HAL_Driver/Src/stm32n6xx_ll_usb.c ****             15 means Flush all Tx FIFOs
 427:STM32Cube_FW_N6/Drivers/STM32N6xx_HAL_Driver/Src/stm32n6xx_ll_usb.c ****   * @retval HAL status
 428:STM32Cube_FW_N6/Drivers/STM32N6xx_HAL_Driver/Src/stm32n6xx_ll_usb.c ****   */
 429:STM32Cube_FW_N6/Drivers/STM32N6xx_HAL_Driver/Src/stm32n6xx_ll_usb.c **** HAL_StatusTypeDef USB_FlushTxFifo(USB_OTG_GlobalTypeDef *USBx, uint32_t num)
 430:STM32Cube_FW_N6/Drivers/STM32N6xx_HAL_Driver/Src/stm32n6xx_ll_usb.c **** {
 1020              		.loc 1 430 1
 1021              		.cfi_startproc
 1022              		@ args = 0, pretend = 0, frame = 16
 1023              		@ frame_needed = 1, uses_anonymous_args = 0
 1024              		@ link register save eliminated.
 1025 0000 80B4     		push	{r7}
 1026              		.cfi_def_cfa_offset 4
 1027              		.cfi_offset 7, -4
 1028 0002 85B0     		sub	sp, sp, #20
 1029              		.cfi_def_cfa_offset 24
 1030 0004 00AF     		add	r7, sp, #0
 1031              		.cfi_def_cfa_register 7
 1032 0006 7860     		str	r0, [r7, #4]
 1033 0008 3960     		str	r1, [r7]
 431:STM32Cube_FW_N6/Drivers/STM32N6xx_HAL_Driver/Src/stm32n6xx_ll_usb.c ****   __IO uint32_t count = 0U;
 1034              		.loc 1 431 17
 1035 000a 0023     		movs	r3, #0
 1036 000c FB60     		str	r3, [r7, #12]
 1037              	.L65:
 432:STM32Cube_FW_N6/Drivers/STM32N6xx_HAL_Driver/Src/stm32n6xx_ll_usb.c **** 
 433:STM32Cube_FW_N6/Drivers/STM32N6xx_HAL_Driver/Src/stm32n6xx_ll_usb.c ****   /* Wait for AHB master IDLE state. */
 434:STM32Cube_FW_N6/Drivers/STM32N6xx_HAL_Driver/Src/stm32n6xx_ll_usb.c ****   do
 435:STM32Cube_FW_N6/Drivers/STM32N6xx_HAL_Driver/Src/stm32n6xx_ll_usb.c ****   {
 436:STM32Cube_FW_N6/Drivers/STM32N6xx_HAL_Driver/Src/stm32n6xx_ll_usb.c ****     count++;
 1038              		.loc 1 436 10
 1039 000e FB68     		ldr	r3, [r7, #12]
 1040 0010 0133     		adds	r3, r3, #1
 1041 0012 FB60     		str	r3, [r7, #12]
 437:STM32Cube_FW_N6/Drivers/STM32N6xx_HAL_Driver/Src/stm32n6xx_ll_usb.c **** 
 438:STM32Cube_FW_N6/Drivers/STM32N6xx_HAL_Driver/Src/stm32n6xx_ll_usb.c ****     if (count > HAL_USB_TIMEOUT)
 1042              		.loc 1 438 15
 1043 0014 FB68     		ldr	r3, [r7, #12]
 1044              		.loc 1 438 8
 1045 0016 B3F1706F 		cmp	r3, #251658240
 1046 001a 01D9     		bls	.L63
 439:STM32Cube_FW_N6/Drivers/STM32N6xx_HAL_Driver/Src/stm32n6xx_ll_usb.c ****     {
 440:STM32Cube_FW_N6/Drivers/STM32N6xx_HAL_Driver/Src/stm32n6xx_ll_usb.c ****       return HAL_TIMEOUT;
ARM GAS  /tmp/ccxt1UfV.s 			page 27


 1047              		.loc 1 440 14
 1048 001c 0323     		movs	r3, #3
 1049 001e 1BE0     		b	.L64
 1050              	.L63:
 441:STM32Cube_FW_N6/Drivers/STM32N6xx_HAL_Driver/Src/stm32n6xx_ll_usb.c ****     }
 442:STM32Cube_FW_N6/Drivers/STM32N6xx_HAL_Driver/Src/stm32n6xx_ll_usb.c ****   } while ((USBx->GRSTCTL & USB_OTG_GRSTCTL_AHBIDL) == 0U);
 1051              		.loc 1 442 17
 1052 0020 7B68     		ldr	r3, [r7, #4]
 1053 0022 1B69     		ldr	r3, [r3, #16]
 1054              		.loc 1 442 53
 1055 0024 002B     		cmp	r3, #0
 1056 0026 F2DA     		bge	.L65
 443:STM32Cube_FW_N6/Drivers/STM32N6xx_HAL_Driver/Src/stm32n6xx_ll_usb.c **** 
 444:STM32Cube_FW_N6/Drivers/STM32N6xx_HAL_Driver/Src/stm32n6xx_ll_usb.c ****   /* Flush TX Fifo */
 445:STM32Cube_FW_N6/Drivers/STM32N6xx_HAL_Driver/Src/stm32n6xx_ll_usb.c ****   count = 0U;
 1057              		.loc 1 445 9
 1058 0028 0023     		movs	r3, #0
 1059 002a FB60     		str	r3, [r7, #12]
 446:STM32Cube_FW_N6/Drivers/STM32N6xx_HAL_Driver/Src/stm32n6xx_ll_usb.c ****   USBx->GRSTCTL = (USB_OTG_GRSTCTL_TXFFLSH | (num << 6));
 1060              		.loc 1 446 51
 1061 002c 3B68     		ldr	r3, [r7]
 1062 002e 9B01     		lsls	r3, r3, #6
 1063              		.loc 1 446 44
 1064 0030 43F02002 		orr	r2, r3, #32
 1065              		.loc 1 446 17
 1066 0034 7B68     		ldr	r3, [r7, #4]
 1067 0036 1A61     		str	r2, [r3, #16]
 1068              	.L67:
 447:STM32Cube_FW_N6/Drivers/STM32N6xx_HAL_Driver/Src/stm32n6xx_ll_usb.c **** 
 448:STM32Cube_FW_N6/Drivers/STM32N6xx_HAL_Driver/Src/stm32n6xx_ll_usb.c ****   do
 449:STM32Cube_FW_N6/Drivers/STM32N6xx_HAL_Driver/Src/stm32n6xx_ll_usb.c ****   {
 450:STM32Cube_FW_N6/Drivers/STM32N6xx_HAL_Driver/Src/stm32n6xx_ll_usb.c ****     count++;
 1069              		.loc 1 450 10
 1070 0038 FB68     		ldr	r3, [r7, #12]
 1071 003a 0133     		adds	r3, r3, #1
 1072 003c FB60     		str	r3, [r7, #12]
 451:STM32Cube_FW_N6/Drivers/STM32N6xx_HAL_Driver/Src/stm32n6xx_ll_usb.c **** 
 452:STM32Cube_FW_N6/Drivers/STM32N6xx_HAL_Driver/Src/stm32n6xx_ll_usb.c ****     if (count > HAL_USB_TIMEOUT)
 1073              		.loc 1 452 15
 1074 003e FB68     		ldr	r3, [r7, #12]
 1075              		.loc 1 452 8
 1076 0040 B3F1706F 		cmp	r3, #251658240
 1077 0044 01D9     		bls	.L66
 453:STM32Cube_FW_N6/Drivers/STM32N6xx_HAL_Driver/Src/stm32n6xx_ll_usb.c ****     {
 454:STM32Cube_FW_N6/Drivers/STM32N6xx_HAL_Driver/Src/stm32n6xx_ll_usb.c ****       return HAL_TIMEOUT;
 1078              		.loc 1 454 14
 1079 0046 0323     		movs	r3, #3
 1080 0048 06E0     		b	.L64
 1081              	.L66:
 455:STM32Cube_FW_N6/Drivers/STM32N6xx_HAL_Driver/Src/stm32n6xx_ll_usb.c ****     }
 456:STM32Cube_FW_N6/Drivers/STM32N6xx_HAL_Driver/Src/stm32n6xx_ll_usb.c ****   } while ((USBx->GRSTCTL & USB_OTG_GRSTCTL_TXFFLSH) == USB_OTG_GRSTCTL_TXFFLSH);
 1082              		.loc 1 456 17
 1083 004a 7B68     		ldr	r3, [r7, #4]
 1084 004c 1B69     		ldr	r3, [r3, #16]
 1085              		.loc 1 456 27
 1086 004e 03F02003 		and	r3, r3, #32
 1087              		.loc 1 456 54
ARM GAS  /tmp/ccxt1UfV.s 			page 28


 1088 0052 202B     		cmp	r3, #32
 1089 0054 F0D0     		beq	.L67
 457:STM32Cube_FW_N6/Drivers/STM32N6xx_HAL_Driver/Src/stm32n6xx_ll_usb.c **** 
 458:STM32Cube_FW_N6/Drivers/STM32N6xx_HAL_Driver/Src/stm32n6xx_ll_usb.c ****   return HAL_OK;
 1090              		.loc 1 458 10
 1091 0056 0023     		movs	r3, #0
 1092              	.L64:
 459:STM32Cube_FW_N6/Drivers/STM32N6xx_HAL_Driver/Src/stm32n6xx_ll_usb.c **** }
 1093              		.loc 1 459 1
 1094 0058 1846     		mov	r0, r3
 1095 005a 1437     		adds	r7, r7, #20
 1096              		.cfi_def_cfa_offset 4
 1097 005c BD46     		mov	sp, r7
 1098              		.cfi_def_cfa_register 13
 1099              		@ sp needed
 1100 005e 5DF8047B 		ldr	r7, [sp], #4
 1101              		.cfi_restore 7
 1102              		.cfi_def_cfa_offset 0
 1103 0062 7047     		bx	lr
 1104              		.cfi_endproc
 1105              	.LFE841:
 1107              		.section	.text.USB_FlushRxFifo,"ax",%progbits
 1108              		.align	1
 1109              		.global	USB_FlushRxFifo
 1110              		.syntax unified
 1111              		.thumb
 1112              		.thumb_func
 1114              	USB_FlushRxFifo:
 1115              	.LFB842:
 460:STM32Cube_FW_N6/Drivers/STM32N6xx_HAL_Driver/Src/stm32n6xx_ll_usb.c **** 
 461:STM32Cube_FW_N6/Drivers/STM32N6xx_HAL_Driver/Src/stm32n6xx_ll_usb.c **** /**
 462:STM32Cube_FW_N6/Drivers/STM32N6xx_HAL_Driver/Src/stm32n6xx_ll_usb.c ****   * @brief  USB_FlushRxFifo  Flush Rx FIFO
 463:STM32Cube_FW_N6/Drivers/STM32N6xx_HAL_Driver/Src/stm32n6xx_ll_usb.c ****   * @param  USBx  Selected device
 464:STM32Cube_FW_N6/Drivers/STM32N6xx_HAL_Driver/Src/stm32n6xx_ll_usb.c ****   * @retval HAL status
 465:STM32Cube_FW_N6/Drivers/STM32N6xx_HAL_Driver/Src/stm32n6xx_ll_usb.c ****   */
 466:STM32Cube_FW_N6/Drivers/STM32N6xx_HAL_Driver/Src/stm32n6xx_ll_usb.c **** HAL_StatusTypeDef USB_FlushRxFifo(USB_OTG_GlobalTypeDef *USBx)
 467:STM32Cube_FW_N6/Drivers/STM32N6xx_HAL_Driver/Src/stm32n6xx_ll_usb.c **** {
 1116              		.loc 1 467 1
 1117              		.cfi_startproc
 1118              		@ args = 0, pretend = 0, frame = 16
 1119              		@ frame_needed = 1, uses_anonymous_args = 0
 1120              		@ link register save eliminated.
 1121 0000 80B4     		push	{r7}
 1122              		.cfi_def_cfa_offset 4
 1123              		.cfi_offset 7, -4
 1124 0002 85B0     		sub	sp, sp, #20
 1125              		.cfi_def_cfa_offset 24
 1126 0004 00AF     		add	r7, sp, #0
 1127              		.cfi_def_cfa_register 7
 1128 0006 7860     		str	r0, [r7, #4]
 468:STM32Cube_FW_N6/Drivers/STM32N6xx_HAL_Driver/Src/stm32n6xx_ll_usb.c ****   __IO uint32_t count = 0U;
 1129              		.loc 1 468 17
 1130 0008 0023     		movs	r3, #0
 1131 000a FB60     		str	r3, [r7, #12]
 1132              	.L71:
 469:STM32Cube_FW_N6/Drivers/STM32N6xx_HAL_Driver/Src/stm32n6xx_ll_usb.c **** 
 470:STM32Cube_FW_N6/Drivers/STM32N6xx_HAL_Driver/Src/stm32n6xx_ll_usb.c ****   /* Wait for AHB master IDLE state. */
ARM GAS  /tmp/ccxt1UfV.s 			page 29


 471:STM32Cube_FW_N6/Drivers/STM32N6xx_HAL_Driver/Src/stm32n6xx_ll_usb.c ****   do
 472:STM32Cube_FW_N6/Drivers/STM32N6xx_HAL_Driver/Src/stm32n6xx_ll_usb.c ****   {
 473:STM32Cube_FW_N6/Drivers/STM32N6xx_HAL_Driver/Src/stm32n6xx_ll_usb.c ****     count++;
 1133              		.loc 1 473 10
 1134 000c FB68     		ldr	r3, [r7, #12]
 1135 000e 0133     		adds	r3, r3, #1
 1136 0010 FB60     		str	r3, [r7, #12]
 474:STM32Cube_FW_N6/Drivers/STM32N6xx_HAL_Driver/Src/stm32n6xx_ll_usb.c **** 
 475:STM32Cube_FW_N6/Drivers/STM32N6xx_HAL_Driver/Src/stm32n6xx_ll_usb.c ****     if (count > HAL_USB_TIMEOUT)
 1137              		.loc 1 475 15
 1138 0012 FB68     		ldr	r3, [r7, #12]
 1139              		.loc 1 475 8
 1140 0014 B3F1706F 		cmp	r3, #251658240
 1141 0018 01D9     		bls	.L69
 476:STM32Cube_FW_N6/Drivers/STM32N6xx_HAL_Driver/Src/stm32n6xx_ll_usb.c ****     {
 477:STM32Cube_FW_N6/Drivers/STM32N6xx_HAL_Driver/Src/stm32n6xx_ll_usb.c ****       return HAL_TIMEOUT;
 1142              		.loc 1 477 14
 1143 001a 0323     		movs	r3, #3
 1144 001c 18E0     		b	.L70
 1145              	.L69:
 478:STM32Cube_FW_N6/Drivers/STM32N6xx_HAL_Driver/Src/stm32n6xx_ll_usb.c ****     }
 479:STM32Cube_FW_N6/Drivers/STM32N6xx_HAL_Driver/Src/stm32n6xx_ll_usb.c ****   } while ((USBx->GRSTCTL & USB_OTG_GRSTCTL_AHBIDL) == 0U);
 1146              		.loc 1 479 17
 1147 001e 7B68     		ldr	r3, [r7, #4]
 1148 0020 1B69     		ldr	r3, [r3, #16]
 1149              		.loc 1 479 53
 1150 0022 002B     		cmp	r3, #0
 1151 0024 F2DA     		bge	.L71
 480:STM32Cube_FW_N6/Drivers/STM32N6xx_HAL_Driver/Src/stm32n6xx_ll_usb.c **** 
 481:STM32Cube_FW_N6/Drivers/STM32N6xx_HAL_Driver/Src/stm32n6xx_ll_usb.c ****   /* Flush RX Fifo */
 482:STM32Cube_FW_N6/Drivers/STM32N6xx_HAL_Driver/Src/stm32n6xx_ll_usb.c ****   count = 0U;
 1152              		.loc 1 482 9
 1153 0026 0023     		movs	r3, #0
 1154 0028 FB60     		str	r3, [r7, #12]
 483:STM32Cube_FW_N6/Drivers/STM32N6xx_HAL_Driver/Src/stm32n6xx_ll_usb.c ****   USBx->GRSTCTL = USB_OTG_GRSTCTL_RXFFLSH;
 1155              		.loc 1 483 17
 1156 002a 7B68     		ldr	r3, [r7, #4]
 1157 002c 1022     		movs	r2, #16
 1158 002e 1A61     		str	r2, [r3, #16]
 1159              	.L73:
 484:STM32Cube_FW_N6/Drivers/STM32N6xx_HAL_Driver/Src/stm32n6xx_ll_usb.c **** 
 485:STM32Cube_FW_N6/Drivers/STM32N6xx_HAL_Driver/Src/stm32n6xx_ll_usb.c ****   do
 486:STM32Cube_FW_N6/Drivers/STM32N6xx_HAL_Driver/Src/stm32n6xx_ll_usb.c ****   {
 487:STM32Cube_FW_N6/Drivers/STM32N6xx_HAL_Driver/Src/stm32n6xx_ll_usb.c ****     count++;
 1160              		.loc 1 487 10
 1161 0030 FB68     		ldr	r3, [r7, #12]
 1162 0032 0133     		adds	r3, r3, #1
 1163 0034 FB60     		str	r3, [r7, #12]
 488:STM32Cube_FW_N6/Drivers/STM32N6xx_HAL_Driver/Src/stm32n6xx_ll_usb.c **** 
 489:STM32Cube_FW_N6/Drivers/STM32N6xx_HAL_Driver/Src/stm32n6xx_ll_usb.c ****     if (count > HAL_USB_TIMEOUT)
 1164              		.loc 1 489 15
 1165 0036 FB68     		ldr	r3, [r7, #12]
 1166              		.loc 1 489 8
 1167 0038 B3F1706F 		cmp	r3, #251658240
 1168 003c 01D9     		bls	.L72
 490:STM32Cube_FW_N6/Drivers/STM32N6xx_HAL_Driver/Src/stm32n6xx_ll_usb.c ****     {
 491:STM32Cube_FW_N6/Drivers/STM32N6xx_HAL_Driver/Src/stm32n6xx_ll_usb.c ****       return HAL_TIMEOUT;
ARM GAS  /tmp/ccxt1UfV.s 			page 30


 1169              		.loc 1 491 14
 1170 003e 0323     		movs	r3, #3
 1171 0040 06E0     		b	.L70
 1172              	.L72:
 492:STM32Cube_FW_N6/Drivers/STM32N6xx_HAL_Driver/Src/stm32n6xx_ll_usb.c ****     }
 493:STM32Cube_FW_N6/Drivers/STM32N6xx_HAL_Driver/Src/stm32n6xx_ll_usb.c ****   } while ((USBx->GRSTCTL & USB_OTG_GRSTCTL_RXFFLSH) == USB_OTG_GRSTCTL_RXFFLSH);
 1173              		.loc 1 493 17
 1174 0042 7B68     		ldr	r3, [r7, #4]
 1175 0044 1B69     		ldr	r3, [r3, #16]
 1176              		.loc 1 493 27
 1177 0046 03F01003 		and	r3, r3, #16
 1178              		.loc 1 493 54
 1179 004a 102B     		cmp	r3, #16
 1180 004c F0D0     		beq	.L73
 494:STM32Cube_FW_N6/Drivers/STM32N6xx_HAL_Driver/Src/stm32n6xx_ll_usb.c **** 
 495:STM32Cube_FW_N6/Drivers/STM32N6xx_HAL_Driver/Src/stm32n6xx_ll_usb.c ****   return HAL_OK;
 1181              		.loc 1 495 10
 1182 004e 0023     		movs	r3, #0
 1183              	.L70:
 496:STM32Cube_FW_N6/Drivers/STM32N6xx_HAL_Driver/Src/stm32n6xx_ll_usb.c **** }
 1184              		.loc 1 496 1
 1185 0050 1846     		mov	r0, r3
 1186 0052 1437     		adds	r7, r7, #20
 1187              		.cfi_def_cfa_offset 4
 1188 0054 BD46     		mov	sp, r7
 1189              		.cfi_def_cfa_register 13
 1190              		@ sp needed
 1191 0056 5DF8047B 		ldr	r7, [sp], #4
 1192              		.cfi_restore 7
 1193              		.cfi_def_cfa_offset 0
 1194 005a 7047     		bx	lr
 1195              		.cfi_endproc
 1196              	.LFE842:
 1198              		.section	.text.USB_SetDevSpeed,"ax",%progbits
 1199              		.align	1
 1200              		.global	USB_SetDevSpeed
 1201              		.syntax unified
 1202              		.thumb
 1203              		.thumb_func
 1205              	USB_SetDevSpeed:
 1206              	.LFB843:
 497:STM32Cube_FW_N6/Drivers/STM32N6xx_HAL_Driver/Src/stm32n6xx_ll_usb.c **** 
 498:STM32Cube_FW_N6/Drivers/STM32N6xx_HAL_Driver/Src/stm32n6xx_ll_usb.c **** /**
 499:STM32Cube_FW_N6/Drivers/STM32N6xx_HAL_Driver/Src/stm32n6xx_ll_usb.c ****   * @brief  USB_SetDevSpeed  Initializes the DevSpd field of DCFG register
 500:STM32Cube_FW_N6/Drivers/STM32N6xx_HAL_Driver/Src/stm32n6xx_ll_usb.c ****   *         depending the PHY type and the enumeration speed of the device.
 501:STM32Cube_FW_N6/Drivers/STM32N6xx_HAL_Driver/Src/stm32n6xx_ll_usb.c ****   * @param  USBx  Selected device
 502:STM32Cube_FW_N6/Drivers/STM32N6xx_HAL_Driver/Src/stm32n6xx_ll_usb.c ****   * @param  speed  device speed
 503:STM32Cube_FW_N6/Drivers/STM32N6xx_HAL_Driver/Src/stm32n6xx_ll_usb.c ****   *          This parameter can be one of these values:
 504:STM32Cube_FW_N6/Drivers/STM32N6xx_HAL_Driver/Src/stm32n6xx_ll_usb.c ****   *            @arg USB_OTG_SPEED_HIGH: High speed mode
 505:STM32Cube_FW_N6/Drivers/STM32N6xx_HAL_Driver/Src/stm32n6xx_ll_usb.c ****   *            @arg USB_OTG_SPEED_HIGH_IN_FULL: High speed core in Full Speed mode
 506:STM32Cube_FW_N6/Drivers/STM32N6xx_HAL_Driver/Src/stm32n6xx_ll_usb.c ****   *            @arg USB_OTG_SPEED_FULL: Full speed mode
 507:STM32Cube_FW_N6/Drivers/STM32N6xx_HAL_Driver/Src/stm32n6xx_ll_usb.c ****   * @retval  Hal status
 508:STM32Cube_FW_N6/Drivers/STM32N6xx_HAL_Driver/Src/stm32n6xx_ll_usb.c ****   */
 509:STM32Cube_FW_N6/Drivers/STM32N6xx_HAL_Driver/Src/stm32n6xx_ll_usb.c **** HAL_StatusTypeDef USB_SetDevSpeed(const USB_OTG_GlobalTypeDef *USBx, uint8_t speed)
 510:STM32Cube_FW_N6/Drivers/STM32N6xx_HAL_Driver/Src/stm32n6xx_ll_usb.c **** {
 1207              		.loc 1 510 1
 1208              		.cfi_startproc
ARM GAS  /tmp/ccxt1UfV.s 			page 31


 1209              		@ args = 0, pretend = 0, frame = 16
 1210              		@ frame_needed = 1, uses_anonymous_args = 0
 1211              		@ link register save eliminated.
 1212 0000 80B4     		push	{r7}
 1213              		.cfi_def_cfa_offset 4
 1214              		.cfi_offset 7, -4
 1215 0002 85B0     		sub	sp, sp, #20
 1216              		.cfi_def_cfa_offset 24
 1217 0004 00AF     		add	r7, sp, #0
 1218              		.cfi_def_cfa_register 7
 1219 0006 7860     		str	r0, [r7, #4]
 1220 0008 0B46     		mov	r3, r1
 1221 000a FB70     		strb	r3, [r7, #3]
 511:STM32Cube_FW_N6/Drivers/STM32N6xx_HAL_Driver/Src/stm32n6xx_ll_usb.c ****   uint32_t USBx_BASE = (uint32_t)USBx;
 1222              		.loc 1 511 12
 1223 000c 7B68     		ldr	r3, [r7, #4]
 1224 000e FB60     		str	r3, [r7, #12]
 512:STM32Cube_FW_N6/Drivers/STM32N6xx_HAL_Driver/Src/stm32n6xx_ll_usb.c **** 
 513:STM32Cube_FW_N6/Drivers/STM32N6xx_HAL_Driver/Src/stm32n6xx_ll_usb.c ****   USBx_DEVICE->DCFG |= speed;
 1225              		.loc 1 513 14
 1226 0010 FB68     		ldr	r3, [r7, #12]
 1227 0012 03F50063 		add	r3, r3, #2048
 1228 0016 1A68     		ldr	r2, [r3]
 1229              		.loc 1 513 21
 1230 0018 FB78     		ldrb	r3, [r7, #3]	@ zero_extendqisi2
 1231              		.loc 1 513 14
 1232 001a F968     		ldr	r1, [r7, #12]
 1233 001c 01F50061 		add	r1, r1, #2048
 1234              		.loc 1 513 21
 1235 0020 1343     		orrs	r3, r3, r2
 1236 0022 0B60     		str	r3, [r1]
 514:STM32Cube_FW_N6/Drivers/STM32N6xx_HAL_Driver/Src/stm32n6xx_ll_usb.c ****   return HAL_OK;
 1237              		.loc 1 514 10
 1238 0024 0023     		movs	r3, #0
 515:STM32Cube_FW_N6/Drivers/STM32N6xx_HAL_Driver/Src/stm32n6xx_ll_usb.c **** }
 1239              		.loc 1 515 1
 1240 0026 1846     		mov	r0, r3
 1241 0028 1437     		adds	r7, r7, #20
 1242              		.cfi_def_cfa_offset 4
 1243 002a BD46     		mov	sp, r7
 1244              		.cfi_def_cfa_register 13
 1245              		@ sp needed
 1246 002c 5DF8047B 		ldr	r7, [sp], #4
 1247              		.cfi_restore 7
 1248              		.cfi_def_cfa_offset 0
 1249 0030 7047     		bx	lr
 1250              		.cfi_endproc
 1251              	.LFE843:
 1253              		.section	.text.USB_GetDevSpeed,"ax",%progbits
 1254              		.align	1
 1255              		.global	USB_GetDevSpeed
 1256              		.syntax unified
 1257              		.thumb
 1258              		.thumb_func
 1260              	USB_GetDevSpeed:
 1261              	.LFB844:
 516:STM32Cube_FW_N6/Drivers/STM32N6xx_HAL_Driver/Src/stm32n6xx_ll_usb.c **** 
ARM GAS  /tmp/ccxt1UfV.s 			page 32


 517:STM32Cube_FW_N6/Drivers/STM32N6xx_HAL_Driver/Src/stm32n6xx_ll_usb.c **** /**
 518:STM32Cube_FW_N6/Drivers/STM32N6xx_HAL_Driver/Src/stm32n6xx_ll_usb.c ****   * @brief  USB_GetDevSpeed  Return the Dev Speed
 519:STM32Cube_FW_N6/Drivers/STM32N6xx_HAL_Driver/Src/stm32n6xx_ll_usb.c ****   * @param  USBx  Selected device
 520:STM32Cube_FW_N6/Drivers/STM32N6xx_HAL_Driver/Src/stm32n6xx_ll_usb.c ****   * @retval speed  device speed
 521:STM32Cube_FW_N6/Drivers/STM32N6xx_HAL_Driver/Src/stm32n6xx_ll_usb.c ****   *          This parameter can be one of these values:
 522:STM32Cube_FW_N6/Drivers/STM32N6xx_HAL_Driver/Src/stm32n6xx_ll_usb.c ****   *            @arg USBD_HS_SPEED: High speed mode
 523:STM32Cube_FW_N6/Drivers/STM32N6xx_HAL_Driver/Src/stm32n6xx_ll_usb.c ****   *            @arg USBD_FS_SPEED: Full speed mode
 524:STM32Cube_FW_N6/Drivers/STM32N6xx_HAL_Driver/Src/stm32n6xx_ll_usb.c ****   */
 525:STM32Cube_FW_N6/Drivers/STM32N6xx_HAL_Driver/Src/stm32n6xx_ll_usb.c **** uint8_t USB_GetDevSpeed(const USB_OTG_GlobalTypeDef *USBx)
 526:STM32Cube_FW_N6/Drivers/STM32N6xx_HAL_Driver/Src/stm32n6xx_ll_usb.c **** {
 1262              		.loc 1 526 1
 1263              		.cfi_startproc
 1264              		@ args = 0, pretend = 0, frame = 24
 1265              		@ frame_needed = 1, uses_anonymous_args = 0
 1266              		@ link register save eliminated.
 1267 0000 80B4     		push	{r7}
 1268              		.cfi_def_cfa_offset 4
 1269              		.cfi_offset 7, -4
 1270 0002 87B0     		sub	sp, sp, #28
 1271              		.cfi_def_cfa_offset 32
 1272 0004 00AF     		add	r7, sp, #0
 1273              		.cfi_def_cfa_register 7
 1274 0006 7860     		str	r0, [r7, #4]
 527:STM32Cube_FW_N6/Drivers/STM32N6xx_HAL_Driver/Src/stm32n6xx_ll_usb.c ****   uint32_t USBx_BASE = (uint32_t)USBx;
 1275              		.loc 1 527 12
 1276 0008 7B68     		ldr	r3, [r7, #4]
 1277 000a 3B61     		str	r3, [r7, #16]
 528:STM32Cube_FW_N6/Drivers/STM32N6xx_HAL_Driver/Src/stm32n6xx_ll_usb.c ****   uint8_t speed;
 529:STM32Cube_FW_N6/Drivers/STM32N6xx_HAL_Driver/Src/stm32n6xx_ll_usb.c ****   uint32_t DevEnumSpeed = USBx_DEVICE->DSTS & USB_OTG_DSTS_ENUMSPD;
 1278              		.loc 1 529 27
 1279 000c 3B69     		ldr	r3, [r7, #16]
 1280 000e 03F50063 		add	r3, r3, #2048
 1281              		.loc 1 529 38
 1282 0012 9B68     		ldr	r3, [r3, #8]
 1283              		.loc 1 529 12
 1284 0014 03F00603 		and	r3, r3, #6
 1285 0018 FB60     		str	r3, [r7, #12]
 530:STM32Cube_FW_N6/Drivers/STM32N6xx_HAL_Driver/Src/stm32n6xx_ll_usb.c **** 
 531:STM32Cube_FW_N6/Drivers/STM32N6xx_HAL_Driver/Src/stm32n6xx_ll_usb.c ****   if (DevEnumSpeed == DSTS_ENUMSPD_HS_PHY_30MHZ_OR_60MHZ)
 1286              		.loc 1 531 6
 1287 001a FB68     		ldr	r3, [r7, #12]
 1288 001c 002B     		cmp	r3, #0
 1289 001e 02D1     		bne	.L77
 532:STM32Cube_FW_N6/Drivers/STM32N6xx_HAL_Driver/Src/stm32n6xx_ll_usb.c ****   {
 533:STM32Cube_FW_N6/Drivers/STM32N6xx_HAL_Driver/Src/stm32n6xx_ll_usb.c ****     speed = USBD_HS_SPEED;
 1290              		.loc 1 533 11
 1291 0020 0023     		movs	r3, #0
 1292 0022 FB75     		strb	r3, [r7, #23]
 1293 0024 0AE0     		b	.L78
 1294              	.L77:
 534:STM32Cube_FW_N6/Drivers/STM32N6xx_HAL_Driver/Src/stm32n6xx_ll_usb.c ****   }
 535:STM32Cube_FW_N6/Drivers/STM32N6xx_HAL_Driver/Src/stm32n6xx_ll_usb.c ****   else if ((DevEnumSpeed == DSTS_ENUMSPD_FS_PHY_30MHZ_OR_60MHZ) ||
 1295              		.loc 1 535 11
 1296 0026 FB68     		ldr	r3, [r7, #12]
 1297 0028 022B     		cmp	r3, #2
 1298 002a 02D0     		beq	.L79
 1299              		.loc 1 535 65 discriminator 1
ARM GAS  /tmp/ccxt1UfV.s 			page 33


 1300 002c FB68     		ldr	r3, [r7, #12]
 1301 002e 062B     		cmp	r3, #6
 1302 0030 02D1     		bne	.L80
 1303              	.L79:
 536:STM32Cube_FW_N6/Drivers/STM32N6xx_HAL_Driver/Src/stm32n6xx_ll_usb.c ****            (DevEnumSpeed == DSTS_ENUMSPD_FS_PHY_48MHZ))
 537:STM32Cube_FW_N6/Drivers/STM32N6xx_HAL_Driver/Src/stm32n6xx_ll_usb.c ****   {
 538:STM32Cube_FW_N6/Drivers/STM32N6xx_HAL_Driver/Src/stm32n6xx_ll_usb.c ****     speed = USBD_FS_SPEED;
 1304              		.loc 1 538 11
 1305 0032 0223     		movs	r3, #2
 1306 0034 FB75     		strb	r3, [r7, #23]
 1307 0036 01E0     		b	.L78
 1308              	.L80:
 539:STM32Cube_FW_N6/Drivers/STM32N6xx_HAL_Driver/Src/stm32n6xx_ll_usb.c ****   }
 540:STM32Cube_FW_N6/Drivers/STM32N6xx_HAL_Driver/Src/stm32n6xx_ll_usb.c ****   else
 541:STM32Cube_FW_N6/Drivers/STM32N6xx_HAL_Driver/Src/stm32n6xx_ll_usb.c ****   {
 542:STM32Cube_FW_N6/Drivers/STM32N6xx_HAL_Driver/Src/stm32n6xx_ll_usb.c ****     speed = 0xFU;
 1309              		.loc 1 542 11
 1310 0038 0F23     		movs	r3, #15
 1311 003a FB75     		strb	r3, [r7, #23]
 1312              	.L78:
 543:STM32Cube_FW_N6/Drivers/STM32N6xx_HAL_Driver/Src/stm32n6xx_ll_usb.c ****   }
 544:STM32Cube_FW_N6/Drivers/STM32N6xx_HAL_Driver/Src/stm32n6xx_ll_usb.c **** 
 545:STM32Cube_FW_N6/Drivers/STM32N6xx_HAL_Driver/Src/stm32n6xx_ll_usb.c ****   return speed;
 1313              		.loc 1 545 10
 1314 003c FB7D     		ldrb	r3, [r7, #23]	@ zero_extendqisi2
 546:STM32Cube_FW_N6/Drivers/STM32N6xx_HAL_Driver/Src/stm32n6xx_ll_usb.c **** }
 1315              		.loc 1 546 1
 1316 003e 1846     		mov	r0, r3
 1317 0040 1C37     		adds	r7, r7, #28
 1318              		.cfi_def_cfa_offset 4
 1319 0042 BD46     		mov	sp, r7
 1320              		.cfi_def_cfa_register 13
 1321              		@ sp needed
 1322 0044 5DF8047B 		ldr	r7, [sp], #4
 1323              		.cfi_restore 7
 1324              		.cfi_def_cfa_offset 0
 1325 0048 7047     		bx	lr
 1326              		.cfi_endproc
 1327              	.LFE844:
 1329              		.section	.text.USB_ActivateEndpoint,"ax",%progbits
 1330              		.align	1
 1331              		.global	USB_ActivateEndpoint
 1332              		.syntax unified
 1333              		.thumb
 1334              		.thumb_func
 1336              	USB_ActivateEndpoint:
 1337              	.LFB845:
 547:STM32Cube_FW_N6/Drivers/STM32N6xx_HAL_Driver/Src/stm32n6xx_ll_usb.c **** 
 548:STM32Cube_FW_N6/Drivers/STM32N6xx_HAL_Driver/Src/stm32n6xx_ll_usb.c **** /**
 549:STM32Cube_FW_N6/Drivers/STM32N6xx_HAL_Driver/Src/stm32n6xx_ll_usb.c ****   * @brief  Activate and configure an endpoint
 550:STM32Cube_FW_N6/Drivers/STM32N6xx_HAL_Driver/Src/stm32n6xx_ll_usb.c ****   * @param  USBx  Selected device
 551:STM32Cube_FW_N6/Drivers/STM32N6xx_HAL_Driver/Src/stm32n6xx_ll_usb.c ****   * @param  ep pointer to endpoint structure
 552:STM32Cube_FW_N6/Drivers/STM32N6xx_HAL_Driver/Src/stm32n6xx_ll_usb.c ****   * @retval HAL status
 553:STM32Cube_FW_N6/Drivers/STM32N6xx_HAL_Driver/Src/stm32n6xx_ll_usb.c ****   */
 554:STM32Cube_FW_N6/Drivers/STM32N6xx_HAL_Driver/Src/stm32n6xx_ll_usb.c **** HAL_StatusTypeDef USB_ActivateEndpoint(const USB_OTG_GlobalTypeDef *USBx, const USB_OTG_EPTypeDef *
 555:STM32Cube_FW_N6/Drivers/STM32N6xx_HAL_Driver/Src/stm32n6xx_ll_usb.c **** {
 1338              		.loc 1 555 1
ARM GAS  /tmp/ccxt1UfV.s 			page 34


 1339              		.cfi_startproc
 1340              		@ args = 0, pretend = 0, frame = 16
 1341              		@ frame_needed = 1, uses_anonymous_args = 0
 1342              		@ link register save eliminated.
 1343 0000 80B4     		push	{r7}
 1344              		.cfi_def_cfa_offset 4
 1345              		.cfi_offset 7, -4
 1346 0002 85B0     		sub	sp, sp, #20
 1347              		.cfi_def_cfa_offset 24
 1348 0004 00AF     		add	r7, sp, #0
 1349              		.cfi_def_cfa_register 7
 1350 0006 7860     		str	r0, [r7, #4]
 1351 0008 3960     		str	r1, [r7]
 556:STM32Cube_FW_N6/Drivers/STM32N6xx_HAL_Driver/Src/stm32n6xx_ll_usb.c ****   uint32_t USBx_BASE = (uint32_t)USBx;
 1352              		.loc 1 556 12
 1353 000a 7B68     		ldr	r3, [r7, #4]
 1354 000c FB60     		str	r3, [r7, #12]
 557:STM32Cube_FW_N6/Drivers/STM32N6xx_HAL_Driver/Src/stm32n6xx_ll_usb.c ****   uint32_t epnum = (uint32_t)ep->num;
 1355              		.loc 1 557 32
 1356 000e 3B68     		ldr	r3, [r7]
 1357 0010 1B78     		ldrb	r3, [r3]	@ zero_extendqisi2
 1358              		.loc 1 557 12
 1359 0012 BB60     		str	r3, [r7, #8]
 558:STM32Cube_FW_N6/Drivers/STM32N6xx_HAL_Driver/Src/stm32n6xx_ll_usb.c **** 
 559:STM32Cube_FW_N6/Drivers/STM32N6xx_HAL_Driver/Src/stm32n6xx_ll_usb.c ****   if (ep->is_in == 1U)
 1360              		.loc 1 559 9
 1361 0014 3B68     		ldr	r3, [r7]
 1362 0016 5B78     		ldrb	r3, [r3, #1]	@ zero_extendqisi2
 1363              		.loc 1 559 6
 1364 0018 012B     		cmp	r3, #1
 1365 001a 3AD1     		bne	.L83
 560:STM32Cube_FW_N6/Drivers/STM32N6xx_HAL_Driver/Src/stm32n6xx_ll_usb.c ****   {
 561:STM32Cube_FW_N6/Drivers/STM32N6xx_HAL_Driver/Src/stm32n6xx_ll_usb.c ****     USBx_DEVICE->DAINTMSK |= USB_OTG_DAINTMSK_IEPM & (uint32_t)(1UL << (ep->num & EP_ADDR_MSK));
 1366              		.loc 1 561 16
 1367 001c FB68     		ldr	r3, [r7, #12]
 1368 001e 03F50063 		add	r3, r3, #2048
 1369 0022 DA69     		ldr	r2, [r3, #28]
 1370              		.loc 1 561 75
 1371 0024 3B68     		ldr	r3, [r7]
 1372 0026 1B78     		ldrb	r3, [r3]	@ zero_extendqisi2
 1373              		.loc 1 561 81
 1374 0028 03F00F03 		and	r3, r3, #15
 1375              		.loc 1 561 54
 1376 002c 0121     		movs	r1, #1
 1377 002e 01FA03F3 		lsl	r3, r1, r3
 1378              		.loc 1 561 52
 1379 0032 9BB2     		uxth	r3, r3
 1380              		.loc 1 561 16
 1381 0034 F968     		ldr	r1, [r7, #12]
 1382 0036 01F50061 		add	r1, r1, #2048
 1383              		.loc 1 561 27
 1384 003a 1343     		orrs	r3, r3, r2
 1385 003c CB61     		str	r3, [r1, #28]
 562:STM32Cube_FW_N6/Drivers/STM32N6xx_HAL_Driver/Src/stm32n6xx_ll_usb.c **** 
 563:STM32Cube_FW_N6/Drivers/STM32N6xx_HAL_Driver/Src/stm32n6xx_ll_usb.c ****     if ((USBx_INEP(epnum)->DIEPCTL & USB_OTG_DIEPCTL_USBAEP) == 0U)
 1386              		.loc 1 563 10
 1387 003e BB68     		ldr	r3, [r7, #8]
ARM GAS  /tmp/ccxt1UfV.s 			page 35


 1388 0040 5A01     		lsls	r2, r3, #5
 1389 0042 FB68     		ldr	r3, [r7, #12]
 1390 0044 1344     		add	r3, r3, r2
 1391 0046 03F51063 		add	r3, r3, #2304
 1392              		.loc 1 563 26
 1393 004a 1B68     		ldr	r3, [r3]
 1394              		.loc 1 563 36
 1395 004c 03F40043 		and	r3, r3, #32768
 1396              		.loc 1 563 8
 1397 0050 002B     		cmp	r3, #0
 1398 0052 55D1     		bne	.L84
 564:STM32Cube_FW_N6/Drivers/STM32N6xx_HAL_Driver/Src/stm32n6xx_ll_usb.c ****     {
 565:STM32Cube_FW_N6/Drivers/STM32N6xx_HAL_Driver/Src/stm32n6xx_ll_usb.c ****       USBx_INEP(epnum)->DIEPCTL |= (ep->maxpacket & USB_OTG_DIEPCTL_MPSIZ) |
 1399              		.loc 1 565 23
 1400 0054 BB68     		ldr	r3, [r7, #8]
 1401 0056 5A01     		lsls	r2, r3, #5
 1402 0058 FB68     		ldr	r3, [r7, #12]
 1403 005a 1344     		add	r3, r3, r2
 1404 005c 03F51063 		add	r3, r3, #2304
 1405 0060 1A68     		ldr	r2, [r3]
 1406              		.loc 1 565 39
 1407 0062 3B68     		ldr	r3, [r7]
 1408 0064 9B68     		ldr	r3, [r3, #8]
 1409              		.loc 1 565 51
 1410 0066 C3F30A01 		ubfx	r1, r3, #0, #11
 566:STM32Cube_FW_N6/Drivers/STM32N6xx_HAL_Driver/Src/stm32n6xx_ll_usb.c ****                                    ((uint32_t)ep->type << 18) | (epnum << 22) |
 1411              		.loc 1 566 49
 1412 006a 3B68     		ldr	r3, [r7]
 1413 006c 1B79     		ldrb	r3, [r3, #4]	@ zero_extendqisi2
 1414              		.loc 1 566 56
 1415 006e 9B04     		lsls	r3, r3, #18
 565:STM32Cube_FW_N6/Drivers/STM32N6xx_HAL_Driver/Src/stm32n6xx_ll_usb.c ****                                    ((uint32_t)ep->type << 18) | (epnum << 22) |
 1416              		.loc 1 565 76
 1417 0070 1943     		orrs	r1, r1, r3
 1418              		.loc 1 566 72
 1419 0072 BB68     		ldr	r3, [r7, #8]
 1420 0074 9B05     		lsls	r3, r3, #22
 1421              		.loc 1 566 63
 1422 0076 0B43     		orrs	r3, r3, r1
 565:STM32Cube_FW_N6/Drivers/STM32N6xx_HAL_Driver/Src/stm32n6xx_ll_usb.c ****                                    ((uint32_t)ep->type << 18) | (epnum << 22) |
 1423              		.loc 1 565 33
 1424 0078 1343     		orrs	r3, r3, r2
 565:STM32Cube_FW_N6/Drivers/STM32N6xx_HAL_Driver/Src/stm32n6xx_ll_usb.c ****                                    ((uint32_t)ep->type << 18) | (epnum << 22) |
 1425              		.loc 1 565 23
 1426 007a BA68     		ldr	r2, [r7, #8]
 1427 007c 5101     		lsls	r1, r2, #5
 1428 007e FA68     		ldr	r2, [r7, #12]
 1429 0080 0A44     		add	r2, r2, r1
 1430 0082 02F51062 		add	r2, r2, #2304
 565:STM32Cube_FW_N6/Drivers/STM32N6xx_HAL_Driver/Src/stm32n6xx_ll_usb.c ****                                    ((uint32_t)ep->type << 18) | (epnum << 22) |
 1431              		.loc 1 565 33
 1432 0086 43F08053 		orr	r3, r3, #268435456
 1433 008a 43F40043 		orr	r3, r3, #32768
 1434 008e 1360     		str	r3, [r2]
 1435 0090 36E0     		b	.L84
 1436              	.L83:
 567:STM32Cube_FW_N6/Drivers/STM32N6xx_HAL_Driver/Src/stm32n6xx_ll_usb.c ****                                    USB_OTG_DIEPCTL_SD0PID_SEVNFRM |
ARM GAS  /tmp/ccxt1UfV.s 			page 36


 568:STM32Cube_FW_N6/Drivers/STM32N6xx_HAL_Driver/Src/stm32n6xx_ll_usb.c ****                                    USB_OTG_DIEPCTL_USBAEP;
 569:STM32Cube_FW_N6/Drivers/STM32N6xx_HAL_Driver/Src/stm32n6xx_ll_usb.c ****     }
 570:STM32Cube_FW_N6/Drivers/STM32N6xx_HAL_Driver/Src/stm32n6xx_ll_usb.c ****   }
 571:STM32Cube_FW_N6/Drivers/STM32N6xx_HAL_Driver/Src/stm32n6xx_ll_usb.c ****   else
 572:STM32Cube_FW_N6/Drivers/STM32N6xx_HAL_Driver/Src/stm32n6xx_ll_usb.c ****   {
 573:STM32Cube_FW_N6/Drivers/STM32N6xx_HAL_Driver/Src/stm32n6xx_ll_usb.c ****     USBx_DEVICE->DAINTMSK |= USB_OTG_DAINTMSK_OEPM & ((uint32_t)(1UL << (ep->num & EP_ADDR_MSK)) <<
 1437              		.loc 1 573 16
 1438 0092 FB68     		ldr	r3, [r7, #12]
 1439 0094 03F50063 		add	r3, r3, #2048
 1440 0098 DA69     		ldr	r2, [r3, #28]
 1441              		.loc 1 573 76
 1442 009a 3B68     		ldr	r3, [r7]
 1443 009c 1B78     		ldrb	r3, [r3]	@ zero_extendqisi2
 1444              		.loc 1 573 82
 1445 009e 03F00F03 		and	r3, r3, #15
 1446              		.loc 1 573 55
 1447 00a2 0121     		movs	r1, #1
 1448 00a4 01FA03F3 		lsl	r3, r1, r3
 1449              		.loc 1 573 52
 1450 00a8 1B04     		lsls	r3, r3, #16
 1451              		.loc 1 573 16
 1452 00aa F968     		ldr	r1, [r7, #12]
 1453 00ac 01F50061 		add	r1, r1, #2048
 1454              		.loc 1 573 27
 1455 00b0 1343     		orrs	r3, r3, r2
 1456 00b2 CB61     		str	r3, [r1, #28]
 574:STM32Cube_FW_N6/Drivers/STM32N6xx_HAL_Driver/Src/stm32n6xx_ll_usb.c **** 
 575:STM32Cube_FW_N6/Drivers/STM32N6xx_HAL_Driver/Src/stm32n6xx_ll_usb.c ****     if (((USBx_OUTEP(epnum)->DOEPCTL) & USB_OTG_DOEPCTL_USBAEP) == 0U)
 1457              		.loc 1 575 11
 1458 00b4 BB68     		ldr	r3, [r7, #8]
 1459 00b6 5A01     		lsls	r2, r3, #5
 1460 00b8 FB68     		ldr	r3, [r7, #12]
 1461 00ba 1344     		add	r3, r3, r2
 1462 00bc 03F53063 		add	r3, r3, #2816
 1463              		.loc 1 575 28
 1464 00c0 1B68     		ldr	r3, [r3]
 1465              		.loc 1 575 39
 1466 00c2 03F40043 		and	r3, r3, #32768
 1467              		.loc 1 575 8
 1468 00c6 002B     		cmp	r3, #0
 1469 00c8 1AD1     		bne	.L84
 576:STM32Cube_FW_N6/Drivers/STM32N6xx_HAL_Driver/Src/stm32n6xx_ll_usb.c ****     {
 577:STM32Cube_FW_N6/Drivers/STM32N6xx_HAL_Driver/Src/stm32n6xx_ll_usb.c ****       USBx_OUTEP(epnum)->DOEPCTL |= (ep->maxpacket & USB_OTG_DOEPCTL_MPSIZ) |
 1470              		.loc 1 577 24
 1471 00ca BB68     		ldr	r3, [r7, #8]
 1472 00cc 5A01     		lsls	r2, r3, #5
 1473 00ce FB68     		ldr	r3, [r7, #12]
 1474 00d0 1344     		add	r3, r3, r2
 1475 00d2 03F53063 		add	r3, r3, #2816
 1476 00d6 1A68     		ldr	r2, [r3]
 1477              		.loc 1 577 40
 1478 00d8 3B68     		ldr	r3, [r7]
 1479 00da 9B68     		ldr	r3, [r3, #8]
 1480              		.loc 1 577 52
 1481 00dc C3F30A01 		ubfx	r1, r3, #0, #11
 578:STM32Cube_FW_N6/Drivers/STM32N6xx_HAL_Driver/Src/stm32n6xx_ll_usb.c ****                                     ((uint32_t)ep->type << 18) |
 1482              		.loc 1 578 50
ARM GAS  /tmp/ccxt1UfV.s 			page 37


 1483 00e0 3B68     		ldr	r3, [r7]
 1484 00e2 1B79     		ldrb	r3, [r3, #4]	@ zero_extendqisi2
 1485              		.loc 1 578 57
 1486 00e4 9B04     		lsls	r3, r3, #18
 577:STM32Cube_FW_N6/Drivers/STM32N6xx_HAL_Driver/Src/stm32n6xx_ll_usb.c ****                                     ((uint32_t)ep->type << 18) |
 1487              		.loc 1 577 77
 1488 00e6 0B43     		orrs	r3, r3, r1
 577:STM32Cube_FW_N6/Drivers/STM32N6xx_HAL_Driver/Src/stm32n6xx_ll_usb.c ****                                     ((uint32_t)ep->type << 18) |
 1489              		.loc 1 577 34
 1490 00e8 1343     		orrs	r3, r3, r2
 577:STM32Cube_FW_N6/Drivers/STM32N6xx_HAL_Driver/Src/stm32n6xx_ll_usb.c ****                                     ((uint32_t)ep->type << 18) |
 1491              		.loc 1 577 24
 1492 00ea BA68     		ldr	r2, [r7, #8]
 1493 00ec 5101     		lsls	r1, r2, #5
 1494 00ee FA68     		ldr	r2, [r7, #12]
 1495 00f0 0A44     		add	r2, r2, r1
 1496 00f2 02F53062 		add	r2, r2, #2816
 577:STM32Cube_FW_N6/Drivers/STM32N6xx_HAL_Driver/Src/stm32n6xx_ll_usb.c ****                                     ((uint32_t)ep->type << 18) |
 1497              		.loc 1 577 34
 1498 00f6 43F08053 		orr	r3, r3, #268435456
 1499 00fa 43F40043 		orr	r3, r3, #32768
 1500 00fe 1360     		str	r3, [r2]
 1501              	.L84:
 579:STM32Cube_FW_N6/Drivers/STM32N6xx_HAL_Driver/Src/stm32n6xx_ll_usb.c ****                                     USB_OTG_DIEPCTL_SD0PID_SEVNFRM |
 580:STM32Cube_FW_N6/Drivers/STM32N6xx_HAL_Driver/Src/stm32n6xx_ll_usb.c ****                                     USB_OTG_DOEPCTL_USBAEP;
 581:STM32Cube_FW_N6/Drivers/STM32N6xx_HAL_Driver/Src/stm32n6xx_ll_usb.c ****     }
 582:STM32Cube_FW_N6/Drivers/STM32N6xx_HAL_Driver/Src/stm32n6xx_ll_usb.c ****   }
 583:STM32Cube_FW_N6/Drivers/STM32N6xx_HAL_Driver/Src/stm32n6xx_ll_usb.c ****   return HAL_OK;
 1502              		.loc 1 583 10
 1503 0100 0023     		movs	r3, #0
 584:STM32Cube_FW_N6/Drivers/STM32N6xx_HAL_Driver/Src/stm32n6xx_ll_usb.c **** }
 1504              		.loc 1 584 1
 1505 0102 1846     		mov	r0, r3
 1506 0104 1437     		adds	r7, r7, #20
 1507              		.cfi_def_cfa_offset 4
 1508 0106 BD46     		mov	sp, r7
 1509              		.cfi_def_cfa_register 13
 1510              		@ sp needed
 1511 0108 5DF8047B 		ldr	r7, [sp], #4
 1512              		.cfi_restore 7
 1513              		.cfi_def_cfa_offset 0
 1514 010c 7047     		bx	lr
 1515              		.cfi_endproc
 1516              	.LFE845:
 1518              		.section	.text.USB_ActivateDedicatedEndpoint,"ax",%progbits
 1519              		.align	1
 1520              		.global	USB_ActivateDedicatedEndpoint
 1521              		.syntax unified
 1522              		.thumb
 1523              		.thumb_func
 1525              	USB_ActivateDedicatedEndpoint:
 1526              	.LFB846:
 585:STM32Cube_FW_N6/Drivers/STM32N6xx_HAL_Driver/Src/stm32n6xx_ll_usb.c **** 
 586:STM32Cube_FW_N6/Drivers/STM32N6xx_HAL_Driver/Src/stm32n6xx_ll_usb.c **** /**
 587:STM32Cube_FW_N6/Drivers/STM32N6xx_HAL_Driver/Src/stm32n6xx_ll_usb.c ****   * @brief  Activate and configure a dedicated endpoint
 588:STM32Cube_FW_N6/Drivers/STM32N6xx_HAL_Driver/Src/stm32n6xx_ll_usb.c ****   * @param  USBx  Selected device
 589:STM32Cube_FW_N6/Drivers/STM32N6xx_HAL_Driver/Src/stm32n6xx_ll_usb.c ****   * @param  ep pointer to endpoint structure
ARM GAS  /tmp/ccxt1UfV.s 			page 38


 590:STM32Cube_FW_N6/Drivers/STM32N6xx_HAL_Driver/Src/stm32n6xx_ll_usb.c ****   * @retval HAL status
 591:STM32Cube_FW_N6/Drivers/STM32N6xx_HAL_Driver/Src/stm32n6xx_ll_usb.c ****   */
 592:STM32Cube_FW_N6/Drivers/STM32N6xx_HAL_Driver/Src/stm32n6xx_ll_usb.c **** HAL_StatusTypeDef USB_ActivateDedicatedEndpoint(const USB_OTG_GlobalTypeDef *USBx, const USB_OTG_EP
 593:STM32Cube_FW_N6/Drivers/STM32N6xx_HAL_Driver/Src/stm32n6xx_ll_usb.c **** {
 1527              		.loc 1 593 1
 1528              		.cfi_startproc
 1529              		@ args = 0, pretend = 0, frame = 16
 1530              		@ frame_needed = 1, uses_anonymous_args = 0
 1531              		@ link register save eliminated.
 1532 0000 80B4     		push	{r7}
 1533              		.cfi_def_cfa_offset 4
 1534              		.cfi_offset 7, -4
 1535 0002 85B0     		sub	sp, sp, #20
 1536              		.cfi_def_cfa_offset 24
 1537 0004 00AF     		add	r7, sp, #0
 1538              		.cfi_def_cfa_register 7
 1539 0006 7860     		str	r0, [r7, #4]
 1540 0008 3960     		str	r1, [r7]
 594:STM32Cube_FW_N6/Drivers/STM32N6xx_HAL_Driver/Src/stm32n6xx_ll_usb.c ****   uint32_t USBx_BASE = (uint32_t)USBx;
 1541              		.loc 1 594 12
 1542 000a 7B68     		ldr	r3, [r7, #4]
 1543 000c FB60     		str	r3, [r7, #12]
 595:STM32Cube_FW_N6/Drivers/STM32N6xx_HAL_Driver/Src/stm32n6xx_ll_usb.c ****   uint32_t epnum = (uint32_t)ep->num;
 1544              		.loc 1 595 32
 1545 000e 3B68     		ldr	r3, [r7]
 1546 0010 1B78     		ldrb	r3, [r3]	@ zero_extendqisi2
 1547              		.loc 1 595 12
 1548 0012 BB60     		str	r3, [r7, #8]
 596:STM32Cube_FW_N6/Drivers/STM32N6xx_HAL_Driver/Src/stm32n6xx_ll_usb.c **** 
 597:STM32Cube_FW_N6/Drivers/STM32N6xx_HAL_Driver/Src/stm32n6xx_ll_usb.c ****   /* Read DEPCTLn register */
 598:STM32Cube_FW_N6/Drivers/STM32N6xx_HAL_Driver/Src/stm32n6xx_ll_usb.c ****   if (ep->is_in == 1U)
 1549              		.loc 1 598 9
 1550 0014 3B68     		ldr	r3, [r7]
 1551 0016 5B78     		ldrb	r3, [r3, #1]	@ zero_extendqisi2
 1552              		.loc 1 598 6
 1553 0018 012B     		cmp	r3, #1
 1554 001a 3AD1     		bne	.L87
 599:STM32Cube_FW_N6/Drivers/STM32N6xx_HAL_Driver/Src/stm32n6xx_ll_usb.c ****   {
 600:STM32Cube_FW_N6/Drivers/STM32N6xx_HAL_Driver/Src/stm32n6xx_ll_usb.c ****     if (((USBx_INEP(epnum)->DIEPCTL) & USB_OTG_DIEPCTL_USBAEP) == 0U)
 1555              		.loc 1 600 11
 1556 001c BB68     		ldr	r3, [r7, #8]
 1557 001e 5A01     		lsls	r2, r3, #5
 1558 0020 FB68     		ldr	r3, [r7, #12]
 1559 0022 1344     		add	r3, r3, r2
 1560 0024 03F51063 		add	r3, r3, #2304
 1561              		.loc 1 600 27
 1562 0028 1B68     		ldr	r3, [r3]
 1563              		.loc 1 600 38
 1564 002a 03F40043 		and	r3, r3, #32768
 1565              		.loc 1 600 8
 1566 002e 002B     		cmp	r3, #0
 1567 0030 1DD1     		bne	.L88
 601:STM32Cube_FW_N6/Drivers/STM32N6xx_HAL_Driver/Src/stm32n6xx_ll_usb.c ****     {
 602:STM32Cube_FW_N6/Drivers/STM32N6xx_HAL_Driver/Src/stm32n6xx_ll_usb.c ****       USBx_INEP(epnum)->DIEPCTL |= (ep->maxpacket & USB_OTG_DIEPCTL_MPSIZ) |
 1568              		.loc 1 602 23
 1569 0032 BB68     		ldr	r3, [r7, #8]
 1570 0034 5A01     		lsls	r2, r3, #5
ARM GAS  /tmp/ccxt1UfV.s 			page 39


 1571 0036 FB68     		ldr	r3, [r7, #12]
 1572 0038 1344     		add	r3, r3, r2
 1573 003a 03F51063 		add	r3, r3, #2304
 1574 003e 1A68     		ldr	r2, [r3]
 1575              		.loc 1 602 39
 1576 0040 3B68     		ldr	r3, [r7]
 1577 0042 9B68     		ldr	r3, [r3, #8]
 1578              		.loc 1 602 51
 1579 0044 C3F30A01 		ubfx	r1, r3, #0, #11
 603:STM32Cube_FW_N6/Drivers/STM32N6xx_HAL_Driver/Src/stm32n6xx_ll_usb.c ****                                    ((uint32_t)ep->type << 18) | (epnum << 22) |
 1580              		.loc 1 603 49
 1581 0048 3B68     		ldr	r3, [r7]
 1582 004a 1B79     		ldrb	r3, [r3, #4]	@ zero_extendqisi2
 1583              		.loc 1 603 56
 1584 004c 9B04     		lsls	r3, r3, #18
 602:STM32Cube_FW_N6/Drivers/STM32N6xx_HAL_Driver/Src/stm32n6xx_ll_usb.c ****                                    ((uint32_t)ep->type << 18) | (epnum << 22) |
 1585              		.loc 1 602 76
 1586 004e 1943     		orrs	r1, r1, r3
 1587              		.loc 1 603 72
 1588 0050 BB68     		ldr	r3, [r7, #8]
 1589 0052 9B05     		lsls	r3, r3, #22
 1590              		.loc 1 603 63
 1591 0054 0B43     		orrs	r3, r3, r1
 602:STM32Cube_FW_N6/Drivers/STM32N6xx_HAL_Driver/Src/stm32n6xx_ll_usb.c ****                                    ((uint32_t)ep->type << 18) | (epnum << 22) |
 1592              		.loc 1 602 33
 1593 0056 1343     		orrs	r3, r3, r2
 602:STM32Cube_FW_N6/Drivers/STM32N6xx_HAL_Driver/Src/stm32n6xx_ll_usb.c ****                                    ((uint32_t)ep->type << 18) | (epnum << 22) |
 1594              		.loc 1 602 23
 1595 0058 BA68     		ldr	r2, [r7, #8]
 1596 005a 5101     		lsls	r1, r2, #5
 1597 005c FA68     		ldr	r2, [r7, #12]
 1598 005e 0A44     		add	r2, r2, r1
 1599 0060 02F51062 		add	r2, r2, #2304
 602:STM32Cube_FW_N6/Drivers/STM32N6xx_HAL_Driver/Src/stm32n6xx_ll_usb.c ****                                    ((uint32_t)ep->type << 18) | (epnum << 22) |
 1600              		.loc 1 602 33
 1601 0064 43F08053 		orr	r3, r3, #268435456
 1602 0068 43F40043 		orr	r3, r3, #32768
 1603 006c 1360     		str	r3, [r2]
 1604              	.L88:
 604:STM32Cube_FW_N6/Drivers/STM32N6xx_HAL_Driver/Src/stm32n6xx_ll_usb.c ****                                    USB_OTG_DIEPCTL_SD0PID_SEVNFRM |
 605:STM32Cube_FW_N6/Drivers/STM32N6xx_HAL_Driver/Src/stm32n6xx_ll_usb.c ****                                    USB_OTG_DIEPCTL_USBAEP;
 606:STM32Cube_FW_N6/Drivers/STM32N6xx_HAL_Driver/Src/stm32n6xx_ll_usb.c ****     }
 607:STM32Cube_FW_N6/Drivers/STM32N6xx_HAL_Driver/Src/stm32n6xx_ll_usb.c **** 
 608:STM32Cube_FW_N6/Drivers/STM32N6xx_HAL_Driver/Src/stm32n6xx_ll_usb.c ****     USBx_DEVICE->DEACHMSK |= USB_OTG_DAINTMSK_IEPM & (uint32_t)(1UL << (ep->num & EP_ADDR_MSK));
 1605              		.loc 1 608 16
 1606 006e FB68     		ldr	r3, [r7, #12]
 1607 0070 03F50063 		add	r3, r3, #2048
 1608 0074 DA6B     		ldr	r2, [r3, #60]
 1609              		.loc 1 608 75
 1610 0076 3B68     		ldr	r3, [r7]
 1611 0078 1B78     		ldrb	r3, [r3]	@ zero_extendqisi2
 1612              		.loc 1 608 81
 1613 007a 03F00F03 		and	r3, r3, #15
 1614              		.loc 1 608 54
 1615 007e 0121     		movs	r1, #1
 1616 0080 01FA03F3 		lsl	r3, r1, r3
 1617              		.loc 1 608 52
ARM GAS  /tmp/ccxt1UfV.s 			page 40


 1618 0084 9BB2     		uxth	r3, r3
 1619              		.loc 1 608 16
 1620 0086 F968     		ldr	r1, [r7, #12]
 1621 0088 01F50061 		add	r1, r1, #2048
 1622              		.loc 1 608 27
 1623 008c 1343     		orrs	r3, r3, r2
 1624 008e CB63     		str	r3, [r1, #60]
 1625 0090 37E0     		b	.L89
 1626              	.L87:
 609:STM32Cube_FW_N6/Drivers/STM32N6xx_HAL_Driver/Src/stm32n6xx_ll_usb.c ****   }
 610:STM32Cube_FW_N6/Drivers/STM32N6xx_HAL_Driver/Src/stm32n6xx_ll_usb.c ****   else
 611:STM32Cube_FW_N6/Drivers/STM32N6xx_HAL_Driver/Src/stm32n6xx_ll_usb.c ****   {
 612:STM32Cube_FW_N6/Drivers/STM32N6xx_HAL_Driver/Src/stm32n6xx_ll_usb.c ****     if (((USBx_OUTEP(epnum)->DOEPCTL) & USB_OTG_DOEPCTL_USBAEP) == 0U)
 1627              		.loc 1 612 11
 1628 0092 BB68     		ldr	r3, [r7, #8]
 1629 0094 5A01     		lsls	r2, r3, #5
 1630 0096 FB68     		ldr	r3, [r7, #12]
 1631 0098 1344     		add	r3, r3, r2
 1632 009a 03F53063 		add	r3, r3, #2816
 1633              		.loc 1 612 28
 1634 009e 1B68     		ldr	r3, [r3]
 1635              		.loc 1 612 39
 1636 00a0 03F40043 		and	r3, r3, #32768
 1637              		.loc 1 612 8
 1638 00a4 002B     		cmp	r3, #0
 1639 00a6 1BD1     		bne	.L90
 613:STM32Cube_FW_N6/Drivers/STM32N6xx_HAL_Driver/Src/stm32n6xx_ll_usb.c ****     {
 614:STM32Cube_FW_N6/Drivers/STM32N6xx_HAL_Driver/Src/stm32n6xx_ll_usb.c ****       USBx_OUTEP(epnum)->DOEPCTL |= (ep->maxpacket & USB_OTG_DOEPCTL_MPSIZ) |
 1640              		.loc 1 614 24
 1641 00a8 BB68     		ldr	r3, [r7, #8]
 1642 00aa 5A01     		lsls	r2, r3, #5
 1643 00ac FB68     		ldr	r3, [r7, #12]
 1644 00ae 1344     		add	r3, r3, r2
 1645 00b0 03F53063 		add	r3, r3, #2816
 1646 00b4 1A68     		ldr	r2, [r3]
 1647              		.loc 1 614 40
 1648 00b6 3B68     		ldr	r3, [r7]
 1649 00b8 9B68     		ldr	r3, [r3, #8]
 1650              		.loc 1 614 52
 1651 00ba C3F30A01 		ubfx	r1, r3, #0, #11
 615:STM32Cube_FW_N6/Drivers/STM32N6xx_HAL_Driver/Src/stm32n6xx_ll_usb.c ****                                     ((uint32_t)ep->type << 18) | (epnum << 22) |
 1652              		.loc 1 615 50
 1653 00be 3B68     		ldr	r3, [r7]
 1654 00c0 1B79     		ldrb	r3, [r3, #4]	@ zero_extendqisi2
 1655              		.loc 1 615 57
 1656 00c2 9B04     		lsls	r3, r3, #18
 614:STM32Cube_FW_N6/Drivers/STM32N6xx_HAL_Driver/Src/stm32n6xx_ll_usb.c ****                                     ((uint32_t)ep->type << 18) | (epnum << 22) |
 1657              		.loc 1 614 77
 1658 00c4 1943     		orrs	r1, r1, r3
 1659              		.loc 1 615 73
 1660 00c6 BB68     		ldr	r3, [r7, #8]
 1661 00c8 9B05     		lsls	r3, r3, #22
 1662              		.loc 1 615 64
 1663 00ca 0B43     		orrs	r3, r3, r1
 614:STM32Cube_FW_N6/Drivers/STM32N6xx_HAL_Driver/Src/stm32n6xx_ll_usb.c ****                                     ((uint32_t)ep->type << 18) | (epnum << 22) |
 1664              		.loc 1 614 34
 1665 00cc 1343     		orrs	r3, r3, r2
ARM GAS  /tmp/ccxt1UfV.s 			page 41


 614:STM32Cube_FW_N6/Drivers/STM32N6xx_HAL_Driver/Src/stm32n6xx_ll_usb.c ****                                     ((uint32_t)ep->type << 18) | (epnum << 22) |
 1666              		.loc 1 614 24
 1667 00ce BA68     		ldr	r2, [r7, #8]
 1668 00d0 5101     		lsls	r1, r2, #5
 1669 00d2 FA68     		ldr	r2, [r7, #12]
 1670 00d4 0A44     		add	r2, r2, r1
 1671 00d6 02F53062 		add	r2, r2, #2816
 614:STM32Cube_FW_N6/Drivers/STM32N6xx_HAL_Driver/Src/stm32n6xx_ll_usb.c ****                                     ((uint32_t)ep->type << 18) | (epnum << 22) |
 1672              		.loc 1 614 34
 1673 00da 43F40043 		orr	r3, r3, #32768
 1674 00de 1360     		str	r3, [r2]
 1675              	.L90:
 616:STM32Cube_FW_N6/Drivers/STM32N6xx_HAL_Driver/Src/stm32n6xx_ll_usb.c ****                                     USB_OTG_DOEPCTL_USBAEP;
 617:STM32Cube_FW_N6/Drivers/STM32N6xx_HAL_Driver/Src/stm32n6xx_ll_usb.c ****     }
 618:STM32Cube_FW_N6/Drivers/STM32N6xx_HAL_Driver/Src/stm32n6xx_ll_usb.c **** 
 619:STM32Cube_FW_N6/Drivers/STM32N6xx_HAL_Driver/Src/stm32n6xx_ll_usb.c ****     USBx_DEVICE->DEACHMSK |= USB_OTG_DAINTMSK_OEPM & ((uint32_t)(1UL << (ep->num & EP_ADDR_MSK)) <<
 1676              		.loc 1 619 16
 1677 00e0 FB68     		ldr	r3, [r7, #12]
 1678 00e2 03F50063 		add	r3, r3, #2048
 1679 00e6 DA6B     		ldr	r2, [r3, #60]
 1680              		.loc 1 619 76
 1681 00e8 3B68     		ldr	r3, [r7]
 1682 00ea 1B78     		ldrb	r3, [r3]	@ zero_extendqisi2
 1683              		.loc 1 619 82
 1684 00ec 03F00F03 		and	r3, r3, #15
 1685              		.loc 1 619 55
 1686 00f0 0121     		movs	r1, #1
 1687 00f2 01FA03F3 		lsl	r3, r1, r3
 1688              		.loc 1 619 52
 1689 00f6 1B04     		lsls	r3, r3, #16
 1690              		.loc 1 619 16
 1691 00f8 F968     		ldr	r1, [r7, #12]
 1692 00fa 01F50061 		add	r1, r1, #2048
 1693              		.loc 1 619 27
 1694 00fe 1343     		orrs	r3, r3, r2
 1695 0100 CB63     		str	r3, [r1, #60]
 1696              	.L89:
 620:STM32Cube_FW_N6/Drivers/STM32N6xx_HAL_Driver/Src/stm32n6xx_ll_usb.c ****   }
 621:STM32Cube_FW_N6/Drivers/STM32N6xx_HAL_Driver/Src/stm32n6xx_ll_usb.c **** 
 622:STM32Cube_FW_N6/Drivers/STM32N6xx_HAL_Driver/Src/stm32n6xx_ll_usb.c ****   return HAL_OK;
 1697              		.loc 1 622 10
 1698 0102 0023     		movs	r3, #0
 623:STM32Cube_FW_N6/Drivers/STM32N6xx_HAL_Driver/Src/stm32n6xx_ll_usb.c **** }
 1699              		.loc 1 623 1
 1700 0104 1846     		mov	r0, r3
 1701 0106 1437     		adds	r7, r7, #20
 1702              		.cfi_def_cfa_offset 4
 1703 0108 BD46     		mov	sp, r7
 1704              		.cfi_def_cfa_register 13
 1705              		@ sp needed
 1706 010a 5DF8047B 		ldr	r7, [sp], #4
 1707              		.cfi_restore 7
 1708              		.cfi_def_cfa_offset 0
 1709 010e 7047     		bx	lr
 1710              		.cfi_endproc
 1711              	.LFE846:
 1713              		.section	.text.USB_DeactivateEndpoint,"ax",%progbits
ARM GAS  /tmp/ccxt1UfV.s 			page 42


 1714              		.align	1
 1715              		.global	USB_DeactivateEndpoint
 1716              		.syntax unified
 1717              		.thumb
 1718              		.thumb_func
 1720              	USB_DeactivateEndpoint:
 1721              	.LFB847:
 624:STM32Cube_FW_N6/Drivers/STM32N6xx_HAL_Driver/Src/stm32n6xx_ll_usb.c **** 
 625:STM32Cube_FW_N6/Drivers/STM32N6xx_HAL_Driver/Src/stm32n6xx_ll_usb.c **** /**
 626:STM32Cube_FW_N6/Drivers/STM32N6xx_HAL_Driver/Src/stm32n6xx_ll_usb.c ****   * @brief  De-activate and de-initialize an endpoint
 627:STM32Cube_FW_N6/Drivers/STM32N6xx_HAL_Driver/Src/stm32n6xx_ll_usb.c ****   * @param  USBx  Selected device
 628:STM32Cube_FW_N6/Drivers/STM32N6xx_HAL_Driver/Src/stm32n6xx_ll_usb.c ****   * @param  ep pointer to endpoint structure
 629:STM32Cube_FW_N6/Drivers/STM32N6xx_HAL_Driver/Src/stm32n6xx_ll_usb.c ****   * @retval HAL status
 630:STM32Cube_FW_N6/Drivers/STM32N6xx_HAL_Driver/Src/stm32n6xx_ll_usb.c ****   */
 631:STM32Cube_FW_N6/Drivers/STM32N6xx_HAL_Driver/Src/stm32n6xx_ll_usb.c **** HAL_StatusTypeDef USB_DeactivateEndpoint(const USB_OTG_GlobalTypeDef *USBx, const USB_OTG_EPTypeDef
 632:STM32Cube_FW_N6/Drivers/STM32N6xx_HAL_Driver/Src/stm32n6xx_ll_usb.c **** {
 1722              		.loc 1 632 1
 1723              		.cfi_startproc
 1724              		@ args = 0, pretend = 0, frame = 16
 1725              		@ frame_needed = 1, uses_anonymous_args = 0
 1726              		@ link register save eliminated.
 1727 0000 80B4     		push	{r7}
 1728              		.cfi_def_cfa_offset 4
 1729              		.cfi_offset 7, -4
 1730 0002 85B0     		sub	sp, sp, #20
 1731              		.cfi_def_cfa_offset 24
 1732 0004 00AF     		add	r7, sp, #0
 1733              		.cfi_def_cfa_register 7
 1734 0006 7860     		str	r0, [r7, #4]
 1735 0008 3960     		str	r1, [r7]
 633:STM32Cube_FW_N6/Drivers/STM32N6xx_HAL_Driver/Src/stm32n6xx_ll_usb.c ****   uint32_t USBx_BASE = (uint32_t)USBx;
 1736              		.loc 1 633 12
 1737 000a 7B68     		ldr	r3, [r7, #4]
 1738 000c FB60     		str	r3, [r7, #12]
 634:STM32Cube_FW_N6/Drivers/STM32N6xx_HAL_Driver/Src/stm32n6xx_ll_usb.c ****   uint32_t epnum = (uint32_t)ep->num;
 1739              		.loc 1 634 32
 1740 000e 3B68     		ldr	r3, [r7]
 1741 0010 1B78     		ldrb	r3, [r3]	@ zero_extendqisi2
 1742              		.loc 1 634 12
 1743 0012 BB60     		str	r3, [r7, #8]
 635:STM32Cube_FW_N6/Drivers/STM32N6xx_HAL_Driver/Src/stm32n6xx_ll_usb.c **** 
 636:STM32Cube_FW_N6/Drivers/STM32N6xx_HAL_Driver/Src/stm32n6xx_ll_usb.c ****   /* Read DEPCTLn register */
 637:STM32Cube_FW_N6/Drivers/STM32N6xx_HAL_Driver/Src/stm32n6xx_ll_usb.c ****   if (ep->is_in == 1U)
 1744              		.loc 1 637 9
 1745 0014 3B68     		ldr	r3, [r7]
 1746 0016 5B78     		ldrb	r3, [r3, #1]	@ zero_extendqisi2
 1747              		.loc 1 637 6
 1748 0018 012B     		cmp	r3, #1
 1749 001a 61D1     		bne	.L93
 638:STM32Cube_FW_N6/Drivers/STM32N6xx_HAL_Driver/Src/stm32n6xx_ll_usb.c ****   {
 639:STM32Cube_FW_N6/Drivers/STM32N6xx_HAL_Driver/Src/stm32n6xx_ll_usb.c ****     if ((USBx_INEP(epnum)->DIEPCTL & USB_OTG_DIEPCTL_EPENA) == USB_OTG_DIEPCTL_EPENA)
 1750              		.loc 1 639 10
 1751 001c BB68     		ldr	r3, [r7, #8]
 1752 001e 5A01     		lsls	r2, r3, #5
 1753 0020 FB68     		ldr	r3, [r7, #12]
 1754 0022 1344     		add	r3, r3, r2
 1755 0024 03F51063 		add	r3, r3, #2304
ARM GAS  /tmp/ccxt1UfV.s 			page 43


 1756              		.loc 1 639 26
 1757 0028 1B68     		ldr	r3, [r3]
 1758              		.loc 1 639 36
 1759 002a 03F00043 		and	r3, r3, #-2147483648
 1760              		.loc 1 639 8
 1761 002e B3F1004F 		cmp	r3, #-2147483648
 1762 0032 1FD1     		bne	.L94
 640:STM32Cube_FW_N6/Drivers/STM32N6xx_HAL_Driver/Src/stm32n6xx_ll_usb.c ****     {
 641:STM32Cube_FW_N6/Drivers/STM32N6xx_HAL_Driver/Src/stm32n6xx_ll_usb.c ****       USBx_INEP(epnum)->DIEPCTL |= USB_OTG_DIEPCTL_SNAK;
 1763              		.loc 1 641 23
 1764 0034 BB68     		ldr	r3, [r7, #8]
 1765 0036 5A01     		lsls	r2, r3, #5
 1766 0038 FB68     		ldr	r3, [r7, #12]
 1767 003a 1344     		add	r3, r3, r2
 1768 003c 03F51063 		add	r3, r3, #2304
 1769 0040 1B68     		ldr	r3, [r3]
 1770 0042 BA68     		ldr	r2, [r7, #8]
 1771 0044 5101     		lsls	r1, r2, #5
 1772 0046 FA68     		ldr	r2, [r7, #12]
 1773 0048 0A44     		add	r2, r2, r1
 1774 004a 02F51062 		add	r2, r2, #2304
 1775              		.loc 1 641 33
 1776 004e 43F00063 		orr	r3, r3, #134217728
 1777 0052 1360     		str	r3, [r2]
 642:STM32Cube_FW_N6/Drivers/STM32N6xx_HAL_Driver/Src/stm32n6xx_ll_usb.c ****       USBx_INEP(epnum)->DIEPCTL |= USB_OTG_DIEPCTL_EPDIS;
 1778              		.loc 1 642 23
 1779 0054 BB68     		ldr	r3, [r7, #8]
 1780 0056 5A01     		lsls	r2, r3, #5
 1781 0058 FB68     		ldr	r3, [r7, #12]
 1782 005a 1344     		add	r3, r3, r2
 1783 005c 03F51063 		add	r3, r3, #2304
 1784 0060 1B68     		ldr	r3, [r3]
 1785 0062 BA68     		ldr	r2, [r7, #8]
 1786 0064 5101     		lsls	r1, r2, #5
 1787 0066 FA68     		ldr	r2, [r7, #12]
 1788 0068 0A44     		add	r2, r2, r1
 1789 006a 02F51062 		add	r2, r2, #2304
 1790              		.loc 1 642 33
 1791 006e 43F08043 		orr	r3, r3, #1073741824
 1792 0072 1360     		str	r3, [r2]
 1793              	.L94:
 643:STM32Cube_FW_N6/Drivers/STM32N6xx_HAL_Driver/Src/stm32n6xx_ll_usb.c ****     }
 644:STM32Cube_FW_N6/Drivers/STM32N6xx_HAL_Driver/Src/stm32n6xx_ll_usb.c **** 
 645:STM32Cube_FW_N6/Drivers/STM32N6xx_HAL_Driver/Src/stm32n6xx_ll_usb.c ****     USBx_DEVICE->DEACHMSK &= ~(USB_OTG_DAINTMSK_IEPM & (uint32_t)(1UL << (ep->num & EP_ADDR_MSK)));
 1794              		.loc 1 645 16
 1795 0074 FB68     		ldr	r3, [r7, #12]
 1796 0076 03F50063 		add	r3, r3, #2048
 1797 007a DA6B     		ldr	r2, [r3, #60]
 1798              		.loc 1 645 77
 1799 007c 3B68     		ldr	r3, [r7]
 1800 007e 1B78     		ldrb	r3, [r3]	@ zero_extendqisi2
 1801              		.loc 1 645 83
 1802 0080 03F00F03 		and	r3, r3, #15
 1803              		.loc 1 645 56
 1804 0084 0121     		movs	r1, #1
 1805 0086 01FA03F3 		lsl	r3, r1, r3
 1806              		.loc 1 645 54
ARM GAS  /tmp/ccxt1UfV.s 			page 44


 1807 008a 9BB2     		uxth	r3, r3
 1808              		.loc 1 645 30
 1809 008c DB43     		mvns	r3, r3
 1810              		.loc 1 645 16
 1811 008e F968     		ldr	r1, [r7, #12]
 1812 0090 01F50061 		add	r1, r1, #2048
 1813              		.loc 1 645 27
 1814 0094 1340     		ands	r3, r3, r2
 1815 0096 CB63     		str	r3, [r1, #60]
 646:STM32Cube_FW_N6/Drivers/STM32N6xx_HAL_Driver/Src/stm32n6xx_ll_usb.c ****     USBx_DEVICE->DAINTMSK &= ~(USB_OTG_DAINTMSK_IEPM & (uint32_t)(1UL << (ep->num & EP_ADDR_MSK)));
 1816              		.loc 1 646 16
 1817 0098 FB68     		ldr	r3, [r7, #12]
 1818 009a 03F50063 		add	r3, r3, #2048
 1819 009e DA69     		ldr	r2, [r3, #28]
 1820              		.loc 1 646 77
 1821 00a0 3B68     		ldr	r3, [r7]
 1822 00a2 1B78     		ldrb	r3, [r3]	@ zero_extendqisi2
 1823              		.loc 1 646 83
 1824 00a4 03F00F03 		and	r3, r3, #15
 1825              		.loc 1 646 56
 1826 00a8 0121     		movs	r1, #1
 1827 00aa 01FA03F3 		lsl	r3, r1, r3
 1828              		.loc 1 646 54
 1829 00ae 9BB2     		uxth	r3, r3
 1830              		.loc 1 646 30
 1831 00b0 DB43     		mvns	r3, r3
 1832              		.loc 1 646 16
 1833 00b2 F968     		ldr	r1, [r7, #12]
 1834 00b4 01F50061 		add	r1, r1, #2048
 1835              		.loc 1 646 27
 1836 00b8 1340     		ands	r3, r3, r2
 1837 00ba CB61     		str	r3, [r1, #28]
 647:STM32Cube_FW_N6/Drivers/STM32N6xx_HAL_Driver/Src/stm32n6xx_ll_usb.c ****     USBx_INEP(epnum)->DIEPCTL &= ~(USB_OTG_DIEPCTL_USBAEP |
 1838              		.loc 1 647 21
 1839 00bc BB68     		ldr	r3, [r7, #8]
 1840 00be 5A01     		lsls	r2, r3, #5
 1841 00c0 FB68     		ldr	r3, [r7, #12]
 1842 00c2 1344     		add	r3, r3, r2
 1843 00c4 03F51063 		add	r3, r3, #2304
 1844 00c8 1A68     		ldr	r2, [r3]
 1845 00ca BB68     		ldr	r3, [r7, #8]
 1846 00cc 5901     		lsls	r1, r3, #5
 1847 00ce FB68     		ldr	r3, [r7, #12]
 1848 00d0 0B44     		add	r3, r3, r1
 1849 00d2 03F51063 		add	r3, r3, #2304
 1850 00d6 1946     		mov	r1, r3
 1851              		.loc 1 647 31
 1852 00d8 354B     		ldr	r3, .L98
 1853 00da 1340     		ands	r3, r3, r2
 1854 00dc 0B60     		str	r3, [r1]
 1855 00de 60E0     		b	.L95
 1856              	.L93:
 648:STM32Cube_FW_N6/Drivers/STM32N6xx_HAL_Driver/Src/stm32n6xx_ll_usb.c ****                                    USB_OTG_DIEPCTL_MPSIZ |
 649:STM32Cube_FW_N6/Drivers/STM32N6xx_HAL_Driver/Src/stm32n6xx_ll_usb.c ****                                    USB_OTG_DIEPCTL_TXFNUM |
 650:STM32Cube_FW_N6/Drivers/STM32N6xx_HAL_Driver/Src/stm32n6xx_ll_usb.c ****                                    USB_OTG_DIEPCTL_SD0PID_SEVNFRM |
 651:STM32Cube_FW_N6/Drivers/STM32N6xx_HAL_Driver/Src/stm32n6xx_ll_usb.c ****                                    USB_OTG_DIEPCTL_EPTYP);
 652:STM32Cube_FW_N6/Drivers/STM32N6xx_HAL_Driver/Src/stm32n6xx_ll_usb.c ****   }
ARM GAS  /tmp/ccxt1UfV.s 			page 45


 653:STM32Cube_FW_N6/Drivers/STM32N6xx_HAL_Driver/Src/stm32n6xx_ll_usb.c ****   else
 654:STM32Cube_FW_N6/Drivers/STM32N6xx_HAL_Driver/Src/stm32n6xx_ll_usb.c ****   {
 655:STM32Cube_FW_N6/Drivers/STM32N6xx_HAL_Driver/Src/stm32n6xx_ll_usb.c ****     if ((USBx_OUTEP(epnum)->DOEPCTL & USB_OTG_DOEPCTL_EPENA) == USB_OTG_DOEPCTL_EPENA)
 1857              		.loc 1 655 10
 1858 00e0 BB68     		ldr	r3, [r7, #8]
 1859 00e2 5A01     		lsls	r2, r3, #5
 1860 00e4 FB68     		ldr	r3, [r7, #12]
 1861 00e6 1344     		add	r3, r3, r2
 1862 00e8 03F53063 		add	r3, r3, #2816
 1863              		.loc 1 655 27
 1864 00ec 1B68     		ldr	r3, [r3]
 1865              		.loc 1 655 37
 1866 00ee 03F00043 		and	r3, r3, #-2147483648
 1867              		.loc 1 655 8
 1868 00f2 B3F1004F 		cmp	r3, #-2147483648
 1869 00f6 1FD1     		bne	.L96
 656:STM32Cube_FW_N6/Drivers/STM32N6xx_HAL_Driver/Src/stm32n6xx_ll_usb.c ****     {
 657:STM32Cube_FW_N6/Drivers/STM32N6xx_HAL_Driver/Src/stm32n6xx_ll_usb.c ****       USBx_OUTEP(epnum)->DOEPCTL |= USB_OTG_DOEPCTL_SNAK;
 1870              		.loc 1 657 24
 1871 00f8 BB68     		ldr	r3, [r7, #8]
 1872 00fa 5A01     		lsls	r2, r3, #5
 1873 00fc FB68     		ldr	r3, [r7, #12]
 1874 00fe 1344     		add	r3, r3, r2
 1875 0100 03F53063 		add	r3, r3, #2816
 1876 0104 1B68     		ldr	r3, [r3]
 1877 0106 BA68     		ldr	r2, [r7, #8]
 1878 0108 5101     		lsls	r1, r2, #5
 1879 010a FA68     		ldr	r2, [r7, #12]
 1880 010c 0A44     		add	r2, r2, r1
 1881 010e 02F53062 		add	r2, r2, #2816
 1882              		.loc 1 657 34
 1883 0112 43F00063 		orr	r3, r3, #134217728
 1884 0116 1360     		str	r3, [r2]
 658:STM32Cube_FW_N6/Drivers/STM32N6xx_HAL_Driver/Src/stm32n6xx_ll_usb.c ****       USBx_OUTEP(epnum)->DOEPCTL |= USB_OTG_DOEPCTL_EPDIS;
 1885              		.loc 1 658 24
 1886 0118 BB68     		ldr	r3, [r7, #8]
 1887 011a 5A01     		lsls	r2, r3, #5
 1888 011c FB68     		ldr	r3, [r7, #12]
 1889 011e 1344     		add	r3, r3, r2
 1890 0120 03F53063 		add	r3, r3, #2816
 1891 0124 1B68     		ldr	r3, [r3]
 1892 0126 BA68     		ldr	r2, [r7, #8]
 1893 0128 5101     		lsls	r1, r2, #5
 1894 012a FA68     		ldr	r2, [r7, #12]
 1895 012c 0A44     		add	r2, r2, r1
 1896 012e 02F53062 		add	r2, r2, #2816
 1897              		.loc 1 658 34
 1898 0132 43F08043 		orr	r3, r3, #1073741824
 1899 0136 1360     		str	r3, [r2]
 1900              	.L96:
 659:STM32Cube_FW_N6/Drivers/STM32N6xx_HAL_Driver/Src/stm32n6xx_ll_usb.c ****     }
 660:STM32Cube_FW_N6/Drivers/STM32N6xx_HAL_Driver/Src/stm32n6xx_ll_usb.c **** 
 661:STM32Cube_FW_N6/Drivers/STM32N6xx_HAL_Driver/Src/stm32n6xx_ll_usb.c ****     USBx_DEVICE->DEACHMSK &= ~(USB_OTG_DAINTMSK_OEPM & ((uint32_t)(1UL << (ep->num & EP_ADDR_MSK)) 
 1901              		.loc 1 661 16
 1902 0138 FB68     		ldr	r3, [r7, #12]
 1903 013a 03F50063 		add	r3, r3, #2048
 1904 013e DA6B     		ldr	r2, [r3, #60]
ARM GAS  /tmp/ccxt1UfV.s 			page 46


 1905              		.loc 1 661 78
 1906 0140 3B68     		ldr	r3, [r7]
 1907 0142 1B78     		ldrb	r3, [r3]	@ zero_extendqisi2
 1908              		.loc 1 661 84
 1909 0144 03F00F03 		and	r3, r3, #15
 1910              		.loc 1 661 57
 1911 0148 0121     		movs	r1, #1
 1912 014a 01FA03F3 		lsl	r3, r1, r3
 1913              		.loc 1 661 54
 1914 014e 1B04     		lsls	r3, r3, #16
 1915              		.loc 1 661 30
 1916 0150 DB43     		mvns	r3, r3
 1917              		.loc 1 661 16
 1918 0152 F968     		ldr	r1, [r7, #12]
 1919 0154 01F50061 		add	r1, r1, #2048
 1920              		.loc 1 661 27
 1921 0158 1340     		ands	r3, r3, r2
 1922 015a CB63     		str	r3, [r1, #60]
 662:STM32Cube_FW_N6/Drivers/STM32N6xx_HAL_Driver/Src/stm32n6xx_ll_usb.c ****     USBx_DEVICE->DAINTMSK &= ~(USB_OTG_DAINTMSK_OEPM & ((uint32_t)(1UL << (ep->num & EP_ADDR_MSK)) 
 1923              		.loc 1 662 16
 1924 015c FB68     		ldr	r3, [r7, #12]
 1925 015e 03F50063 		add	r3, r3, #2048
 1926 0162 DA69     		ldr	r2, [r3, #28]
 1927              		.loc 1 662 78
 1928 0164 3B68     		ldr	r3, [r7]
 1929 0166 1B78     		ldrb	r3, [r3]	@ zero_extendqisi2
 1930              		.loc 1 662 84
 1931 0168 03F00F03 		and	r3, r3, #15
 1932              		.loc 1 662 57
 1933 016c 0121     		movs	r1, #1
 1934 016e 01FA03F3 		lsl	r3, r1, r3
 1935              		.loc 1 662 54
 1936 0172 1B04     		lsls	r3, r3, #16
 1937              		.loc 1 662 30
 1938 0174 DB43     		mvns	r3, r3
 1939              		.loc 1 662 16
 1940 0176 F968     		ldr	r1, [r7, #12]
 1941 0178 01F50061 		add	r1, r1, #2048
 1942              		.loc 1 662 27
 1943 017c 1340     		ands	r3, r3, r2
 1944 017e CB61     		str	r3, [r1, #28]
 663:STM32Cube_FW_N6/Drivers/STM32N6xx_HAL_Driver/Src/stm32n6xx_ll_usb.c ****     USBx_OUTEP(epnum)->DOEPCTL &= ~(USB_OTG_DOEPCTL_USBAEP |
 1945              		.loc 1 663 22
 1946 0180 BB68     		ldr	r3, [r7, #8]
 1947 0182 5A01     		lsls	r2, r3, #5
 1948 0184 FB68     		ldr	r3, [r7, #12]
 1949 0186 1344     		add	r3, r3, r2
 1950 0188 03F53063 		add	r3, r3, #2816
 1951 018c 1A68     		ldr	r2, [r3]
 1952 018e BB68     		ldr	r3, [r7, #8]
 1953 0190 5901     		lsls	r1, r3, #5
 1954 0192 FB68     		ldr	r3, [r7, #12]
 1955 0194 0B44     		add	r3, r3, r1
 1956 0196 03F53063 		add	r3, r3, #2816
 1957 019a 1946     		mov	r1, r3
 1958              		.loc 1 663 32
 1959 019c 054B     		ldr	r3, .L98+4
ARM GAS  /tmp/ccxt1UfV.s 			page 47


 1960 019e 1340     		ands	r3, r3, r2
 1961 01a0 0B60     		str	r3, [r1]
 1962              	.L95:
 664:STM32Cube_FW_N6/Drivers/STM32N6xx_HAL_Driver/Src/stm32n6xx_ll_usb.c ****                                     USB_OTG_DOEPCTL_MPSIZ |
 665:STM32Cube_FW_N6/Drivers/STM32N6xx_HAL_Driver/Src/stm32n6xx_ll_usb.c ****                                     USB_OTG_DOEPCTL_SD0PID_SEVNFRM |
 666:STM32Cube_FW_N6/Drivers/STM32N6xx_HAL_Driver/Src/stm32n6xx_ll_usb.c ****                                     USB_OTG_DOEPCTL_EPTYP);
 667:STM32Cube_FW_N6/Drivers/STM32N6xx_HAL_Driver/Src/stm32n6xx_ll_usb.c ****   }
 668:STM32Cube_FW_N6/Drivers/STM32N6xx_HAL_Driver/Src/stm32n6xx_ll_usb.c **** 
 669:STM32Cube_FW_N6/Drivers/STM32N6xx_HAL_Driver/Src/stm32n6xx_ll_usb.c ****   return HAL_OK;
 1963              		.loc 1 669 10
 1964 01a2 0023     		movs	r3, #0
 670:STM32Cube_FW_N6/Drivers/STM32N6xx_HAL_Driver/Src/stm32n6xx_ll_usb.c **** }
 1965              		.loc 1 670 1
 1966 01a4 1846     		mov	r0, r3
 1967 01a6 1437     		adds	r7, r7, #20
 1968              		.cfi_def_cfa_offset 4
 1969 01a8 BD46     		mov	sp, r7
 1970              		.cfi_def_cfa_register 13
 1971              		@ sp needed
 1972 01aa 5DF8047B 		ldr	r7, [sp], #4
 1973              		.cfi_restore 7
 1974              		.cfi_def_cfa_offset 0
 1975 01ae 7047     		bx	lr
 1976              	.L99:
 1977              		.align	2
 1978              	.L98:
 1979 01b0 007833EC 		.word	-332171264
 1980 01b4 0078F3EF 		.word	-269256704
 1981              		.cfi_endproc
 1982              	.LFE847:
 1984              		.section	.text.USB_DeactivateDedicatedEndpoint,"ax",%progbits
 1985              		.align	1
 1986              		.global	USB_DeactivateDedicatedEndpoint
 1987              		.syntax unified
 1988              		.thumb
 1989              		.thumb_func
 1991              	USB_DeactivateDedicatedEndpoint:
 1992              	.LFB848:
 671:STM32Cube_FW_N6/Drivers/STM32N6xx_HAL_Driver/Src/stm32n6xx_ll_usb.c **** 
 672:STM32Cube_FW_N6/Drivers/STM32N6xx_HAL_Driver/Src/stm32n6xx_ll_usb.c **** /**
 673:STM32Cube_FW_N6/Drivers/STM32N6xx_HAL_Driver/Src/stm32n6xx_ll_usb.c ****   * @brief  De-activate and de-initialize a dedicated endpoint
 674:STM32Cube_FW_N6/Drivers/STM32N6xx_HAL_Driver/Src/stm32n6xx_ll_usb.c ****   * @param  USBx  Selected device
 675:STM32Cube_FW_N6/Drivers/STM32N6xx_HAL_Driver/Src/stm32n6xx_ll_usb.c ****   * @param  ep pointer to endpoint structure
 676:STM32Cube_FW_N6/Drivers/STM32N6xx_HAL_Driver/Src/stm32n6xx_ll_usb.c ****   * @retval HAL status
 677:STM32Cube_FW_N6/Drivers/STM32N6xx_HAL_Driver/Src/stm32n6xx_ll_usb.c ****   */
 678:STM32Cube_FW_N6/Drivers/STM32N6xx_HAL_Driver/Src/stm32n6xx_ll_usb.c **** HAL_StatusTypeDef USB_DeactivateDedicatedEndpoint(const USB_OTG_GlobalTypeDef *USBx, const USB_OTG_
 679:STM32Cube_FW_N6/Drivers/STM32N6xx_HAL_Driver/Src/stm32n6xx_ll_usb.c **** {
 1993              		.loc 1 679 1
 1994              		.cfi_startproc
 1995              		@ args = 0, pretend = 0, frame = 16
 1996              		@ frame_needed = 1, uses_anonymous_args = 0
 1997              		@ link register save eliminated.
 1998 0000 80B4     		push	{r7}
 1999              		.cfi_def_cfa_offset 4
 2000              		.cfi_offset 7, -4
 2001 0002 85B0     		sub	sp, sp, #20
 2002              		.cfi_def_cfa_offset 24
ARM GAS  /tmp/ccxt1UfV.s 			page 48


 2003 0004 00AF     		add	r7, sp, #0
 2004              		.cfi_def_cfa_register 7
 2005 0006 7860     		str	r0, [r7, #4]
 2006 0008 3960     		str	r1, [r7]
 680:STM32Cube_FW_N6/Drivers/STM32N6xx_HAL_Driver/Src/stm32n6xx_ll_usb.c ****   uint32_t USBx_BASE = (uint32_t)USBx;
 2007              		.loc 1 680 12
 2008 000a 7B68     		ldr	r3, [r7, #4]
 2009 000c FB60     		str	r3, [r7, #12]
 681:STM32Cube_FW_N6/Drivers/STM32N6xx_HAL_Driver/Src/stm32n6xx_ll_usb.c ****   uint32_t epnum = (uint32_t)ep->num;
 2010              		.loc 1 681 32
 2011 000e 3B68     		ldr	r3, [r7]
 2012 0010 1B78     		ldrb	r3, [r3]	@ zero_extendqisi2
 2013              		.loc 1 681 12
 2014 0012 BB60     		str	r3, [r7, #8]
 682:STM32Cube_FW_N6/Drivers/STM32N6xx_HAL_Driver/Src/stm32n6xx_ll_usb.c **** 
 683:STM32Cube_FW_N6/Drivers/STM32N6xx_HAL_Driver/Src/stm32n6xx_ll_usb.c ****   /* Read DEPCTLn register */
 684:STM32Cube_FW_N6/Drivers/STM32N6xx_HAL_Driver/Src/stm32n6xx_ll_usb.c ****   if (ep->is_in == 1U)
 2015              		.loc 1 684 9
 2016 0014 3B68     		ldr	r3, [r7]
 2017 0016 5B78     		ldrb	r3, [r3, #1]	@ zero_extendqisi2
 2018              		.loc 1 684 6
 2019 0018 012B     		cmp	r3, #1
 2020 001a 4ED1     		bne	.L101
 685:STM32Cube_FW_N6/Drivers/STM32N6xx_HAL_Driver/Src/stm32n6xx_ll_usb.c ****   {
 686:STM32Cube_FW_N6/Drivers/STM32N6xx_HAL_Driver/Src/stm32n6xx_ll_usb.c ****     if ((USBx_INEP(epnum)->DIEPCTL & USB_OTG_DIEPCTL_EPENA) == USB_OTG_DIEPCTL_EPENA)
 2021              		.loc 1 686 10
 2022 001c BB68     		ldr	r3, [r7, #8]
 2023 001e 5A01     		lsls	r2, r3, #5
 2024 0020 FB68     		ldr	r3, [r7, #12]
 2025 0022 1344     		add	r3, r3, r2
 2026 0024 03F51063 		add	r3, r3, #2304
 2027              		.loc 1 686 26
 2028 0028 1B68     		ldr	r3, [r3]
 2029              		.loc 1 686 36
 2030 002a 03F00043 		and	r3, r3, #-2147483648
 2031              		.loc 1 686 8
 2032 002e B3F1004F 		cmp	r3, #-2147483648
 2033 0032 1FD1     		bne	.L102
 687:STM32Cube_FW_N6/Drivers/STM32N6xx_HAL_Driver/Src/stm32n6xx_ll_usb.c ****     {
 688:STM32Cube_FW_N6/Drivers/STM32N6xx_HAL_Driver/Src/stm32n6xx_ll_usb.c ****       USBx_INEP(epnum)->DIEPCTL  |= USB_OTG_DIEPCTL_SNAK;
 2034              		.loc 1 688 23
 2035 0034 BB68     		ldr	r3, [r7, #8]
 2036 0036 5A01     		lsls	r2, r3, #5
 2037 0038 FB68     		ldr	r3, [r7, #12]
 2038 003a 1344     		add	r3, r3, r2
 2039 003c 03F51063 		add	r3, r3, #2304
 2040 0040 1B68     		ldr	r3, [r3]
 2041 0042 BA68     		ldr	r2, [r7, #8]
 2042 0044 5101     		lsls	r1, r2, #5
 2043 0046 FA68     		ldr	r2, [r7, #12]
 2044 0048 0A44     		add	r2, r2, r1
 2045 004a 02F51062 		add	r2, r2, #2304
 2046              		.loc 1 688 34
 2047 004e 43F00063 		orr	r3, r3, #134217728
 2048 0052 1360     		str	r3, [r2]
 689:STM32Cube_FW_N6/Drivers/STM32N6xx_HAL_Driver/Src/stm32n6xx_ll_usb.c ****       USBx_INEP(epnum)->DIEPCTL  |= USB_OTG_DIEPCTL_EPDIS;
 2049              		.loc 1 689 23
ARM GAS  /tmp/ccxt1UfV.s 			page 49


 2050 0054 BB68     		ldr	r3, [r7, #8]
 2051 0056 5A01     		lsls	r2, r3, #5
 2052 0058 FB68     		ldr	r3, [r7, #12]
 2053 005a 1344     		add	r3, r3, r2
 2054 005c 03F51063 		add	r3, r3, #2304
 2055 0060 1B68     		ldr	r3, [r3]
 2056 0062 BA68     		ldr	r2, [r7, #8]
 2057 0064 5101     		lsls	r1, r2, #5
 2058 0066 FA68     		ldr	r2, [r7, #12]
 2059 0068 0A44     		add	r2, r2, r1
 2060 006a 02F51062 		add	r2, r2, #2304
 2061              		.loc 1 689 34
 2062 006e 43F08043 		orr	r3, r3, #1073741824
 2063 0072 1360     		str	r3, [r2]
 2064              	.L102:
 690:STM32Cube_FW_N6/Drivers/STM32N6xx_HAL_Driver/Src/stm32n6xx_ll_usb.c ****     }
 691:STM32Cube_FW_N6/Drivers/STM32N6xx_HAL_Driver/Src/stm32n6xx_ll_usb.c **** 
 692:STM32Cube_FW_N6/Drivers/STM32N6xx_HAL_Driver/Src/stm32n6xx_ll_usb.c ****     USBx_INEP(epnum)->DIEPCTL &= ~ USB_OTG_DIEPCTL_USBAEP;
 2065              		.loc 1 692 21
 2066 0074 BB68     		ldr	r3, [r7, #8]
 2067 0076 5A01     		lsls	r2, r3, #5
 2068 0078 FB68     		ldr	r3, [r7, #12]
 2069 007a 1344     		add	r3, r3, r2
 2070 007c 03F51063 		add	r3, r3, #2304
 2071 0080 1B68     		ldr	r3, [r3]
 2072 0082 BA68     		ldr	r2, [r7, #8]
 2073 0084 5101     		lsls	r1, r2, #5
 2074 0086 FA68     		ldr	r2, [r7, #12]
 2075 0088 0A44     		add	r2, r2, r1
 2076 008a 02F51062 		add	r2, r2, #2304
 2077              		.loc 1 692 31
 2078 008e 23F40043 		bic	r3, r3, #32768
 2079 0092 1360     		str	r3, [r2]
 693:STM32Cube_FW_N6/Drivers/STM32N6xx_HAL_Driver/Src/stm32n6xx_ll_usb.c ****     USBx_DEVICE->DAINTMSK &= ~(USB_OTG_DAINTMSK_IEPM & (uint32_t)(1UL << (ep->num & EP_ADDR_MSK)));
 2080              		.loc 1 693 16
 2081 0094 FB68     		ldr	r3, [r7, #12]
 2082 0096 03F50063 		add	r3, r3, #2048
 2083 009a DA69     		ldr	r2, [r3, #28]
 2084              		.loc 1 693 77
 2085 009c 3B68     		ldr	r3, [r7]
 2086 009e 1B78     		ldrb	r3, [r3]	@ zero_extendqisi2
 2087              		.loc 1 693 83
 2088 00a0 03F00F03 		and	r3, r3, #15
 2089              		.loc 1 693 56
 2090 00a4 0121     		movs	r1, #1
 2091 00a6 01FA03F3 		lsl	r3, r1, r3
 2092              		.loc 1 693 54
 2093 00aa 9BB2     		uxth	r3, r3
 2094              		.loc 1 693 30
 2095 00ac DB43     		mvns	r3, r3
 2096              		.loc 1 693 16
 2097 00ae F968     		ldr	r1, [r7, #12]
 2098 00b0 01F50061 		add	r1, r1, #2048
 2099              		.loc 1 693 27
 2100 00b4 1340     		ands	r3, r3, r2
 2101 00b6 CB61     		str	r3, [r1, #28]
 2102 00b8 4DE0     		b	.L103
ARM GAS  /tmp/ccxt1UfV.s 			page 50


 2103              	.L101:
 694:STM32Cube_FW_N6/Drivers/STM32N6xx_HAL_Driver/Src/stm32n6xx_ll_usb.c ****   }
 695:STM32Cube_FW_N6/Drivers/STM32N6xx_HAL_Driver/Src/stm32n6xx_ll_usb.c ****   else
 696:STM32Cube_FW_N6/Drivers/STM32N6xx_HAL_Driver/Src/stm32n6xx_ll_usb.c ****   {
 697:STM32Cube_FW_N6/Drivers/STM32N6xx_HAL_Driver/Src/stm32n6xx_ll_usb.c ****     if ((USBx_OUTEP(epnum)->DOEPCTL & USB_OTG_DOEPCTL_EPENA) == USB_OTG_DOEPCTL_EPENA)
 2104              		.loc 1 697 10
 2105 00ba BB68     		ldr	r3, [r7, #8]
 2106 00bc 5A01     		lsls	r2, r3, #5
 2107 00be FB68     		ldr	r3, [r7, #12]
 2108 00c0 1344     		add	r3, r3, r2
 2109 00c2 03F53063 		add	r3, r3, #2816
 2110              		.loc 1 697 27
 2111 00c6 1B68     		ldr	r3, [r3]
 2112              		.loc 1 697 37
 2113 00c8 03F00043 		and	r3, r3, #-2147483648
 2114              		.loc 1 697 8
 2115 00cc B3F1004F 		cmp	r3, #-2147483648
 2116 00d0 1FD1     		bne	.L104
 698:STM32Cube_FW_N6/Drivers/STM32N6xx_HAL_Driver/Src/stm32n6xx_ll_usb.c ****     {
 699:STM32Cube_FW_N6/Drivers/STM32N6xx_HAL_Driver/Src/stm32n6xx_ll_usb.c ****       USBx_OUTEP(epnum)->DOEPCTL  |= USB_OTG_DOEPCTL_SNAK;
 2117              		.loc 1 699 24
 2118 00d2 BB68     		ldr	r3, [r7, #8]
 2119 00d4 5A01     		lsls	r2, r3, #5
 2120 00d6 FB68     		ldr	r3, [r7, #12]
 2121 00d8 1344     		add	r3, r3, r2
 2122 00da 03F53063 		add	r3, r3, #2816
 2123 00de 1B68     		ldr	r3, [r3]
 2124 00e0 BA68     		ldr	r2, [r7, #8]
 2125 00e2 5101     		lsls	r1, r2, #5
 2126 00e4 FA68     		ldr	r2, [r7, #12]
 2127 00e6 0A44     		add	r2, r2, r1
 2128 00e8 02F53062 		add	r2, r2, #2816
 2129              		.loc 1 699 35
 2130 00ec 43F00063 		orr	r3, r3, #134217728
 2131 00f0 1360     		str	r3, [r2]
 700:STM32Cube_FW_N6/Drivers/STM32N6xx_HAL_Driver/Src/stm32n6xx_ll_usb.c ****       USBx_OUTEP(epnum)->DOEPCTL  |= USB_OTG_DOEPCTL_EPDIS;
 2132              		.loc 1 700 24
 2133 00f2 BB68     		ldr	r3, [r7, #8]
 2134 00f4 5A01     		lsls	r2, r3, #5
 2135 00f6 FB68     		ldr	r3, [r7, #12]
 2136 00f8 1344     		add	r3, r3, r2
 2137 00fa 03F53063 		add	r3, r3, #2816
 2138 00fe 1B68     		ldr	r3, [r3]
 2139 0100 BA68     		ldr	r2, [r7, #8]
 2140 0102 5101     		lsls	r1, r2, #5
 2141 0104 FA68     		ldr	r2, [r7, #12]
 2142 0106 0A44     		add	r2, r2, r1
 2143 0108 02F53062 		add	r2, r2, #2816
 2144              		.loc 1 700 35
 2145 010c 43F08043 		orr	r3, r3, #1073741824
 2146 0110 1360     		str	r3, [r2]
 2147              	.L104:
 701:STM32Cube_FW_N6/Drivers/STM32N6xx_HAL_Driver/Src/stm32n6xx_ll_usb.c ****     }
 702:STM32Cube_FW_N6/Drivers/STM32N6xx_HAL_Driver/Src/stm32n6xx_ll_usb.c **** 
 703:STM32Cube_FW_N6/Drivers/STM32N6xx_HAL_Driver/Src/stm32n6xx_ll_usb.c ****     USBx_OUTEP(epnum)->DOEPCTL &= ~USB_OTG_DOEPCTL_USBAEP;
 2148              		.loc 1 703 22
 2149 0112 BB68     		ldr	r3, [r7, #8]
ARM GAS  /tmp/ccxt1UfV.s 			page 51


 2150 0114 5A01     		lsls	r2, r3, #5
 2151 0116 FB68     		ldr	r3, [r7, #12]
 2152 0118 1344     		add	r3, r3, r2
 2153 011a 03F53063 		add	r3, r3, #2816
 2154 011e 1B68     		ldr	r3, [r3]
 2155 0120 BA68     		ldr	r2, [r7, #8]
 2156 0122 5101     		lsls	r1, r2, #5
 2157 0124 FA68     		ldr	r2, [r7, #12]
 2158 0126 0A44     		add	r2, r2, r1
 2159 0128 02F53062 		add	r2, r2, #2816
 2160              		.loc 1 703 32
 2161 012c 23F40043 		bic	r3, r3, #32768
 2162 0130 1360     		str	r3, [r2]
 704:STM32Cube_FW_N6/Drivers/STM32N6xx_HAL_Driver/Src/stm32n6xx_ll_usb.c ****     USBx_DEVICE->DAINTMSK &= ~(USB_OTG_DAINTMSK_OEPM & ((uint32_t)(1UL << (ep->num & EP_ADDR_MSK)) 
 2163              		.loc 1 704 16
 2164 0132 FB68     		ldr	r3, [r7, #12]
 2165 0134 03F50063 		add	r3, r3, #2048
 2166 0138 DA69     		ldr	r2, [r3, #28]
 2167              		.loc 1 704 78
 2168 013a 3B68     		ldr	r3, [r7]
 2169 013c 1B78     		ldrb	r3, [r3]	@ zero_extendqisi2
 2170              		.loc 1 704 84
 2171 013e 03F00F03 		and	r3, r3, #15
 2172              		.loc 1 704 57
 2173 0142 0121     		movs	r1, #1
 2174 0144 01FA03F3 		lsl	r3, r1, r3
 2175              		.loc 1 704 54
 2176 0148 1B04     		lsls	r3, r3, #16
 2177              		.loc 1 704 30
 2178 014a DB43     		mvns	r3, r3
 2179              		.loc 1 704 16
 2180 014c F968     		ldr	r1, [r7, #12]
 2181 014e 01F50061 		add	r1, r1, #2048
 2182              		.loc 1 704 27
 2183 0152 1340     		ands	r3, r3, r2
 2184 0154 CB61     		str	r3, [r1, #28]
 2185              	.L103:
 705:STM32Cube_FW_N6/Drivers/STM32N6xx_HAL_Driver/Src/stm32n6xx_ll_usb.c ****   }
 706:STM32Cube_FW_N6/Drivers/STM32N6xx_HAL_Driver/Src/stm32n6xx_ll_usb.c **** 
 707:STM32Cube_FW_N6/Drivers/STM32N6xx_HAL_Driver/Src/stm32n6xx_ll_usb.c ****   return HAL_OK;
 2186              		.loc 1 707 10
 2187 0156 0023     		movs	r3, #0
 708:STM32Cube_FW_N6/Drivers/STM32N6xx_HAL_Driver/Src/stm32n6xx_ll_usb.c **** }
 2188              		.loc 1 708 1
 2189 0158 1846     		mov	r0, r3
 2190 015a 1437     		adds	r7, r7, #20
 2191              		.cfi_def_cfa_offset 4
 2192 015c BD46     		mov	sp, r7
 2193              		.cfi_def_cfa_register 13
 2194              		@ sp needed
 2195 015e 5DF8047B 		ldr	r7, [sp], #4
 2196              		.cfi_restore 7
 2197              		.cfi_def_cfa_offset 0
 2198 0162 7047     		bx	lr
 2199              		.cfi_endproc
 2200              	.LFE848:
 2202              		.section	.text.USB_EPStartXfer,"ax",%progbits
ARM GAS  /tmp/ccxt1UfV.s 			page 52


 2203              		.align	1
 2204              		.global	USB_EPStartXfer
 2205              		.syntax unified
 2206              		.thumb
 2207              		.thumb_func
 2209              	USB_EPStartXfer:
 2210              	.LFB849:
 709:STM32Cube_FW_N6/Drivers/STM32N6xx_HAL_Driver/Src/stm32n6xx_ll_usb.c **** 
 710:STM32Cube_FW_N6/Drivers/STM32N6xx_HAL_Driver/Src/stm32n6xx_ll_usb.c **** /**
 711:STM32Cube_FW_N6/Drivers/STM32N6xx_HAL_Driver/Src/stm32n6xx_ll_usb.c ****   * @brief  USB_EPStartXfer : setup and starts a transfer over an EP
 712:STM32Cube_FW_N6/Drivers/STM32N6xx_HAL_Driver/Src/stm32n6xx_ll_usb.c ****   * @param  USBx  Selected device
 713:STM32Cube_FW_N6/Drivers/STM32N6xx_HAL_Driver/Src/stm32n6xx_ll_usb.c ****   * @param  ep pointer to endpoint structure
 714:STM32Cube_FW_N6/Drivers/STM32N6xx_HAL_Driver/Src/stm32n6xx_ll_usb.c ****   * @param  dma USB dma enabled or disabled
 715:STM32Cube_FW_N6/Drivers/STM32N6xx_HAL_Driver/Src/stm32n6xx_ll_usb.c ****   *          This parameter can be one of these values:
 716:STM32Cube_FW_N6/Drivers/STM32N6xx_HAL_Driver/Src/stm32n6xx_ll_usb.c ****   *           0 : DMA feature not used
 717:STM32Cube_FW_N6/Drivers/STM32N6xx_HAL_Driver/Src/stm32n6xx_ll_usb.c ****   *           1 : DMA feature used
 718:STM32Cube_FW_N6/Drivers/STM32N6xx_HAL_Driver/Src/stm32n6xx_ll_usb.c ****   * @retval HAL status
 719:STM32Cube_FW_N6/Drivers/STM32N6xx_HAL_Driver/Src/stm32n6xx_ll_usb.c ****   */
 720:STM32Cube_FW_N6/Drivers/STM32N6xx_HAL_Driver/Src/stm32n6xx_ll_usb.c **** HAL_StatusTypeDef USB_EPStartXfer(USB_OTG_GlobalTypeDef *USBx, USB_OTG_EPTypeDef *ep, uint8_t dma)
 721:STM32Cube_FW_N6/Drivers/STM32N6xx_HAL_Driver/Src/stm32n6xx_ll_usb.c **** {
 2211              		.loc 1 721 1
 2212              		.cfi_startproc
 2213              		@ args = 0, pretend = 0, frame = 32
 2214              		@ frame_needed = 1, uses_anonymous_args = 0
 2215 0000 80B5     		push	{r7, lr}
 2216              		.cfi_def_cfa_offset 8
 2217              		.cfi_offset 7, -8
 2218              		.cfi_offset 14, -4
 2219 0002 8AB0     		sub	sp, sp, #40
 2220              		.cfi_def_cfa_offset 48
 2221 0004 02AF     		add	r7, sp, #8
 2222              		.cfi_def_cfa 7, 40
 2223 0006 F860     		str	r0, [r7, #12]
 2224 0008 B960     		str	r1, [r7, #8]
 2225 000a 1346     		mov	r3, r2
 2226 000c FB71     		strb	r3, [r7, #7]
 722:STM32Cube_FW_N6/Drivers/STM32N6xx_HAL_Driver/Src/stm32n6xx_ll_usb.c ****   uint32_t USBx_BASE = (uint32_t)USBx;
 2227              		.loc 1 722 12
 2228 000e FB68     		ldr	r3, [r7, #12]
 2229 0010 FB61     		str	r3, [r7, #28]
 723:STM32Cube_FW_N6/Drivers/STM32N6xx_HAL_Driver/Src/stm32n6xx_ll_usb.c ****   uint32_t epnum = (uint32_t)ep->num;
 2230              		.loc 1 723 32
 2231 0012 BB68     		ldr	r3, [r7, #8]
 2232 0014 1B78     		ldrb	r3, [r3]	@ zero_extendqisi2
 2233              		.loc 1 723 12
 2234 0016 BB61     		str	r3, [r7, #24]
 724:STM32Cube_FW_N6/Drivers/STM32N6xx_HAL_Driver/Src/stm32n6xx_ll_usb.c ****   uint16_t pktcnt;
 725:STM32Cube_FW_N6/Drivers/STM32N6xx_HAL_Driver/Src/stm32n6xx_ll_usb.c **** 
 726:STM32Cube_FW_N6/Drivers/STM32N6xx_HAL_Driver/Src/stm32n6xx_ll_usb.c ****   /* IN endpoint */
 727:STM32Cube_FW_N6/Drivers/STM32N6xx_HAL_Driver/Src/stm32n6xx_ll_usb.c ****   if (ep->is_in == 1U)
 2235              		.loc 1 727 9
 2236 0018 BB68     		ldr	r3, [r7, #8]
 2237 001a 5B78     		ldrb	r3, [r3, #1]	@ zero_extendqisi2
 2238              		.loc 1 727 6
 2239 001c 012B     		cmp	r3, #1
 2240 001e 40F07F81 		bne	.L107
 728:STM32Cube_FW_N6/Drivers/STM32N6xx_HAL_Driver/Src/stm32n6xx_ll_usb.c ****   {
ARM GAS  /tmp/ccxt1UfV.s 			page 53


 729:STM32Cube_FW_N6/Drivers/STM32N6xx_HAL_Driver/Src/stm32n6xx_ll_usb.c ****     /* Zero Length Packet? */
 730:STM32Cube_FW_N6/Drivers/STM32N6xx_HAL_Driver/Src/stm32n6xx_ll_usb.c ****     if (ep->xfer_len == 0U)
 2241              		.loc 1 730 11
 2242 0022 BB68     		ldr	r3, [r7, #8]
 2243 0024 1B69     		ldr	r3, [r3, #16]
 2244              		.loc 1 730 8
 2245 0026 002B     		cmp	r3, #0
 2246 0028 32D1     		bne	.L108
 731:STM32Cube_FW_N6/Drivers/STM32N6xx_HAL_Driver/Src/stm32n6xx_ll_usb.c ****     {
 732:STM32Cube_FW_N6/Drivers/STM32N6xx_HAL_Driver/Src/stm32n6xx_ll_usb.c ****       USBx_INEP(epnum)->DIEPTSIZ &= ~(USB_OTG_DIEPTSIZ_PKTCNT);
 2247              		.loc 1 732 23
 2248 002a BB69     		ldr	r3, [r7, #24]
 2249 002c 5A01     		lsls	r2, r3, #5
 2250 002e FB69     		ldr	r3, [r7, #28]
 2251 0030 1344     		add	r3, r3, r2
 2252 0032 03F51063 		add	r3, r3, #2304
 2253 0036 1B69     		ldr	r3, [r3, #16]
 2254 0038 BA69     		ldr	r2, [r7, #24]
 2255 003a 5101     		lsls	r1, r2, #5
 2256 003c FA69     		ldr	r2, [r7, #28]
 2257 003e 0A44     		add	r2, r2, r1
 2258 0040 02F51062 		add	r2, r2, #2304
 2259              		.loc 1 732 34
 2260 0044 23F0FF53 		bic	r3, r3, #534773760
 2261 0048 23F4C013 		bic	r3, r3, #1572864
 2262 004c 1361     		str	r3, [r2, #16]
 733:STM32Cube_FW_N6/Drivers/STM32N6xx_HAL_Driver/Src/stm32n6xx_ll_usb.c ****       USBx_INEP(epnum)->DIEPTSIZ |= (USB_OTG_DIEPTSIZ_PKTCNT & (1U << 19));
 2263              		.loc 1 733 23
 2264 004e BB69     		ldr	r3, [r7, #24]
 2265 0050 5A01     		lsls	r2, r3, #5
 2266 0052 FB69     		ldr	r3, [r7, #28]
 2267 0054 1344     		add	r3, r3, r2
 2268 0056 03F51063 		add	r3, r3, #2304
 2269 005a 1B69     		ldr	r3, [r3, #16]
 2270 005c BA69     		ldr	r2, [r7, #24]
 2271 005e 5101     		lsls	r1, r2, #5
 2272 0060 FA69     		ldr	r2, [r7, #28]
 2273 0062 0A44     		add	r2, r2, r1
 2274 0064 02F51062 		add	r2, r2, #2304
 2275              		.loc 1 733 34
 2276 0068 43F40023 		orr	r3, r3, #524288
 2277 006c 1361     		str	r3, [r2, #16]
 734:STM32Cube_FW_N6/Drivers/STM32N6xx_HAL_Driver/Src/stm32n6xx_ll_usb.c ****       USBx_INEP(epnum)->DIEPTSIZ &= ~(USB_OTG_DIEPTSIZ_XFRSIZ);
 2278              		.loc 1 734 23
 2279 006e BB69     		ldr	r3, [r7, #24]
 2280 0070 5A01     		lsls	r2, r3, #5
 2281 0072 FB69     		ldr	r3, [r7, #28]
 2282 0074 1344     		add	r3, r3, r2
 2283 0076 03F51063 		add	r3, r3, #2304
 2284 007a 1B69     		ldr	r3, [r3, #16]
 2285 007c BA69     		ldr	r2, [r7, #24]
 2286 007e 5101     		lsls	r1, r2, #5
 2287 0080 FA69     		ldr	r2, [r7, #28]
 2288 0082 0A44     		add	r2, r2, r1
 2289 0084 02F51062 		add	r2, r2, #2304
 2290              		.loc 1 734 34
 2291 0088 DB0C     		lsrs	r3, r3, #19
ARM GAS  /tmp/ccxt1UfV.s 			page 54


 2292 008a DB04     		lsls	r3, r3, #19
 2293 008c 1361     		str	r3, [r2, #16]
 2294 008e 97E0     		b	.L109
 2295              	.L108:
 735:STM32Cube_FW_N6/Drivers/STM32N6xx_HAL_Driver/Src/stm32n6xx_ll_usb.c ****     }
 736:STM32Cube_FW_N6/Drivers/STM32N6xx_HAL_Driver/Src/stm32n6xx_ll_usb.c ****     else
 737:STM32Cube_FW_N6/Drivers/STM32N6xx_HAL_Driver/Src/stm32n6xx_ll_usb.c ****     {
 738:STM32Cube_FW_N6/Drivers/STM32N6xx_HAL_Driver/Src/stm32n6xx_ll_usb.c ****       /* Program the transfer size and packet count
 739:STM32Cube_FW_N6/Drivers/STM32N6xx_HAL_Driver/Src/stm32n6xx_ll_usb.c ****       * as follows: xfersize = N * maxpacket +
 740:STM32Cube_FW_N6/Drivers/STM32N6xx_HAL_Driver/Src/stm32n6xx_ll_usb.c ****       * short_packet pktcnt = N + (short_packet
 741:STM32Cube_FW_N6/Drivers/STM32N6xx_HAL_Driver/Src/stm32n6xx_ll_usb.c ****       * exist ? 1 : 0)
 742:STM32Cube_FW_N6/Drivers/STM32N6xx_HAL_Driver/Src/stm32n6xx_ll_usb.c ****       */
 743:STM32Cube_FW_N6/Drivers/STM32N6xx_HAL_Driver/Src/stm32n6xx_ll_usb.c ****       USBx_INEP(epnum)->DIEPTSIZ &= ~(USB_OTG_DIEPTSIZ_XFRSIZ);
 2296              		.loc 1 743 23
 2297 0090 BB69     		ldr	r3, [r7, #24]
 2298 0092 5A01     		lsls	r2, r3, #5
 2299 0094 FB69     		ldr	r3, [r7, #28]
 2300 0096 1344     		add	r3, r3, r2
 2301 0098 03F51063 		add	r3, r3, #2304
 2302 009c 1B69     		ldr	r3, [r3, #16]
 2303 009e BA69     		ldr	r2, [r7, #24]
 2304 00a0 5101     		lsls	r1, r2, #5
 2305 00a2 FA69     		ldr	r2, [r7, #28]
 2306 00a4 0A44     		add	r2, r2, r1
 2307 00a6 02F51062 		add	r2, r2, #2304
 2308              		.loc 1 743 34
 2309 00aa DB0C     		lsrs	r3, r3, #19
 2310 00ac DB04     		lsls	r3, r3, #19
 2311 00ae 1361     		str	r3, [r2, #16]
 744:STM32Cube_FW_N6/Drivers/STM32N6xx_HAL_Driver/Src/stm32n6xx_ll_usb.c ****       USBx_INEP(epnum)->DIEPTSIZ &= ~(USB_OTG_DIEPTSIZ_PKTCNT);
 2312              		.loc 1 744 23
 2313 00b0 BB69     		ldr	r3, [r7, #24]
 2314 00b2 5A01     		lsls	r2, r3, #5
 2315 00b4 FB69     		ldr	r3, [r7, #28]
 2316 00b6 1344     		add	r3, r3, r2
 2317 00b8 03F51063 		add	r3, r3, #2304
 2318 00bc 1B69     		ldr	r3, [r3, #16]
 2319 00be BA69     		ldr	r2, [r7, #24]
 2320 00c0 5101     		lsls	r1, r2, #5
 2321 00c2 FA69     		ldr	r2, [r7, #28]
 2322 00c4 0A44     		add	r2, r2, r1
 2323 00c6 02F51062 		add	r2, r2, #2304
 2324              		.loc 1 744 34
 2325 00ca 23F0FF53 		bic	r3, r3, #534773760
 2326 00ce 23F4C013 		bic	r3, r3, #1572864
 2327 00d2 1361     		str	r3, [r2, #16]
 745:STM32Cube_FW_N6/Drivers/STM32N6xx_HAL_Driver/Src/stm32n6xx_ll_usb.c **** 
 746:STM32Cube_FW_N6/Drivers/STM32N6xx_HAL_Driver/Src/stm32n6xx_ll_usb.c ****       if (epnum == 0U)
 2328              		.loc 1 746 10
 2329 00d4 BB69     		ldr	r3, [r7, #24]
 2330 00d6 002B     		cmp	r3, #0
 2331 00d8 1AD1     		bne	.L110
 747:STM32Cube_FW_N6/Drivers/STM32N6xx_HAL_Driver/Src/stm32n6xx_ll_usb.c ****       {
 748:STM32Cube_FW_N6/Drivers/STM32N6xx_HAL_Driver/Src/stm32n6xx_ll_usb.c ****         if (ep->xfer_len > ep->maxpacket)
 2332              		.loc 1 748 15
 2333 00da BB68     		ldr	r3, [r7, #8]
 2334 00dc 1A69     		ldr	r2, [r3, #16]
ARM GAS  /tmp/ccxt1UfV.s 			page 55


 2335              		.loc 1 748 30
 2336 00de BB68     		ldr	r3, [r7, #8]
 2337 00e0 9B68     		ldr	r3, [r3, #8]
 2338              		.loc 1 748 12
 2339 00e2 9A42     		cmp	r2, r3
 2340 00e4 03D9     		bls	.L111
 749:STM32Cube_FW_N6/Drivers/STM32N6xx_HAL_Driver/Src/stm32n6xx_ll_usb.c ****         {
 750:STM32Cube_FW_N6/Drivers/STM32N6xx_HAL_Driver/Src/stm32n6xx_ll_usb.c ****           ep->xfer_len = ep->maxpacket;
 2341              		.loc 1 750 28
 2342 00e6 BB68     		ldr	r3, [r7, #8]
 2343 00e8 9A68     		ldr	r2, [r3, #8]
 2344              		.loc 1 750 24
 2345 00ea BB68     		ldr	r3, [r7, #8]
 2346 00ec 1A61     		str	r2, [r3, #16]
 2347              	.L111:
 751:STM32Cube_FW_N6/Drivers/STM32N6xx_HAL_Driver/Src/stm32n6xx_ll_usb.c ****         }
 752:STM32Cube_FW_N6/Drivers/STM32N6xx_HAL_Driver/Src/stm32n6xx_ll_usb.c **** 
 753:STM32Cube_FW_N6/Drivers/STM32N6xx_HAL_Driver/Src/stm32n6xx_ll_usb.c ****         USBx_INEP(epnum)->DIEPTSIZ |= (USB_OTG_DIEPTSIZ_PKTCNT & (1U << 19));
 2348              		.loc 1 753 25
 2349 00ee BB69     		ldr	r3, [r7, #24]
 2350 00f0 5A01     		lsls	r2, r3, #5
 2351 00f2 FB69     		ldr	r3, [r7, #28]
 2352 00f4 1344     		add	r3, r3, r2
 2353 00f6 03F51063 		add	r3, r3, #2304
 2354 00fa 1B69     		ldr	r3, [r3, #16]
 2355 00fc BA69     		ldr	r2, [r7, #24]
 2356 00fe 5101     		lsls	r1, r2, #5
 2357 0100 FA69     		ldr	r2, [r7, #28]
 2358 0102 0A44     		add	r2, r2, r1
 2359 0104 02F51062 		add	r2, r2, #2304
 2360              		.loc 1 753 36
 2361 0108 43F40023 		orr	r3, r3, #524288
 2362 010c 1361     		str	r3, [r2, #16]
 2363 010e 44E0     		b	.L112
 2364              	.L110:
 754:STM32Cube_FW_N6/Drivers/STM32N6xx_HAL_Driver/Src/stm32n6xx_ll_usb.c ****       }
 755:STM32Cube_FW_N6/Drivers/STM32N6xx_HAL_Driver/Src/stm32n6xx_ll_usb.c ****       else
 756:STM32Cube_FW_N6/Drivers/STM32N6xx_HAL_Driver/Src/stm32n6xx_ll_usb.c ****       {
 757:STM32Cube_FW_N6/Drivers/STM32N6xx_HAL_Driver/Src/stm32n6xx_ll_usb.c ****         pktcnt = (uint16_t)((ep->xfer_len + ep->maxpacket - 1U) / ep->maxpacket);
 2365              		.loc 1 757 32
 2366 0110 BB68     		ldr	r3, [r7, #8]
 2367 0112 1A69     		ldr	r2, [r3, #16]
 2368              		.loc 1 757 47
 2369 0114 BB68     		ldr	r3, [r7, #8]
 2370 0116 9B68     		ldr	r3, [r3, #8]
 2371              		.loc 1 757 43
 2372 0118 1344     		add	r3, r3, r2
 2373              		.loc 1 757 59
 2374 011a 5A1E     		subs	r2, r3, #1
 2375              		.loc 1 757 69
 2376 011c BB68     		ldr	r3, [r7, #8]
 2377 011e 9B68     		ldr	r3, [r3, #8]
 2378              		.loc 1 757 65
 2379 0120 B2FBF3F3 		udiv	r3, r2, r3
 2380              		.loc 1 757 16
 2381 0124 FB82     		strh	r3, [r7, #22]	@ movhi
 758:STM32Cube_FW_N6/Drivers/STM32N6xx_HAL_Driver/Src/stm32n6xx_ll_usb.c ****         USBx_INEP(epnum)->DIEPTSIZ |= (USB_OTG_DIEPTSIZ_PKTCNT & ((uint32_t)pktcnt << 19));
ARM GAS  /tmp/ccxt1UfV.s 			page 56


 2382              		.loc 1 758 25
 2383 0126 BB69     		ldr	r3, [r7, #24]
 2384 0128 5A01     		lsls	r2, r3, #5
 2385 012a FB69     		ldr	r3, [r7, #28]
 2386 012c 1344     		add	r3, r3, r2
 2387 012e 03F51063 		add	r3, r3, #2304
 2388 0132 1A69     		ldr	r2, [r3, #16]
 2389              		.loc 1 758 67
 2390 0134 FB8A     		ldrh	r3, [r7, #22]
 2391              		.loc 1 758 84
 2392 0136 D904     		lsls	r1, r3, #19
 2393              		.loc 1 758 64
 2394 0138 A44B     		ldr	r3, .L129
 2395 013a 0B40     		ands	r3, r3, r1
 2396              		.loc 1 758 25
 2397 013c B969     		ldr	r1, [r7, #24]
 2398 013e 4801     		lsls	r0, r1, #5
 2399 0140 F969     		ldr	r1, [r7, #28]
 2400 0142 0144     		add	r1, r1, r0
 2401 0144 01F51061 		add	r1, r1, #2304
 2402              		.loc 1 758 36
 2403 0148 1343     		orrs	r3, r3, r2
 2404 014a 0B61     		str	r3, [r1, #16]
 759:STM32Cube_FW_N6/Drivers/STM32N6xx_HAL_Driver/Src/stm32n6xx_ll_usb.c **** 
 760:STM32Cube_FW_N6/Drivers/STM32N6xx_HAL_Driver/Src/stm32n6xx_ll_usb.c ****         if (ep->type == EP_TYPE_ISOC)
 2405              		.loc 1 760 15
 2406 014c BB68     		ldr	r3, [r7, #8]
 2407 014e 1B79     		ldrb	r3, [r3, #4]	@ zero_extendqisi2
 2408              		.loc 1 760 12
 2409 0150 012B     		cmp	r3, #1
 2410 0152 22D1     		bne	.L112
 761:STM32Cube_FW_N6/Drivers/STM32N6xx_HAL_Driver/Src/stm32n6xx_ll_usb.c ****         {
 762:STM32Cube_FW_N6/Drivers/STM32N6xx_HAL_Driver/Src/stm32n6xx_ll_usb.c ****           USBx_INEP(epnum)->DIEPTSIZ &= ~(USB_OTG_DIEPTSIZ_MULCNT);
 2411              		.loc 1 762 27
 2412 0154 BB69     		ldr	r3, [r7, #24]
 2413 0156 5A01     		lsls	r2, r3, #5
 2414 0158 FB69     		ldr	r3, [r7, #28]
 2415 015a 1344     		add	r3, r3, r2
 2416 015c 03F51063 		add	r3, r3, #2304
 2417 0160 1B69     		ldr	r3, [r3, #16]
 2418 0162 BA69     		ldr	r2, [r7, #24]
 2419 0164 5101     		lsls	r1, r2, #5
 2420 0166 FA69     		ldr	r2, [r7, #28]
 2421 0168 0A44     		add	r2, r2, r1
 2422 016a 02F51062 		add	r2, r2, #2304
 2423              		.loc 1 762 38
 2424 016e 23F0C043 		bic	r3, r3, #1610612736
 2425 0172 1361     		str	r3, [r2, #16]
 763:STM32Cube_FW_N6/Drivers/STM32N6xx_HAL_Driver/Src/stm32n6xx_ll_usb.c ****           USBx_INEP(epnum)->DIEPTSIZ |= (USB_OTG_DIEPTSIZ_MULCNT & ((uint32_t)pktcnt << 29));
 2426              		.loc 1 763 27
 2427 0174 BB69     		ldr	r3, [r7, #24]
 2428 0176 5A01     		lsls	r2, r3, #5
 2429 0178 FB69     		ldr	r3, [r7, #28]
 2430 017a 1344     		add	r3, r3, r2
 2431 017c 03F51063 		add	r3, r3, #2304
 2432 0180 1A69     		ldr	r2, [r3, #16]
 2433              		.loc 1 763 69
ARM GAS  /tmp/ccxt1UfV.s 			page 57


 2434 0182 FB8A     		ldrh	r3, [r7, #22]
 2435              		.loc 1 763 86
 2436 0184 5B07     		lsls	r3, r3, #29
 2437              		.loc 1 763 66
 2438 0186 03F0C043 		and	r3, r3, #1610612736
 2439              		.loc 1 763 27
 2440 018a B969     		ldr	r1, [r7, #24]
 2441 018c 4801     		lsls	r0, r1, #5
 2442 018e F969     		ldr	r1, [r7, #28]
 2443 0190 0144     		add	r1, r1, r0
 2444 0192 01F51061 		add	r1, r1, #2304
 2445              		.loc 1 763 38
 2446 0196 1343     		orrs	r3, r3, r2
 2447 0198 0B61     		str	r3, [r1, #16]
 2448              	.L112:
 764:STM32Cube_FW_N6/Drivers/STM32N6xx_HAL_Driver/Src/stm32n6xx_ll_usb.c ****         }
 765:STM32Cube_FW_N6/Drivers/STM32N6xx_HAL_Driver/Src/stm32n6xx_ll_usb.c ****       }
 766:STM32Cube_FW_N6/Drivers/STM32N6xx_HAL_Driver/Src/stm32n6xx_ll_usb.c **** 
 767:STM32Cube_FW_N6/Drivers/STM32N6xx_HAL_Driver/Src/stm32n6xx_ll_usb.c ****       USBx_INEP(epnum)->DIEPTSIZ |= (USB_OTG_DIEPTSIZ_XFRSIZ & ep->xfer_len);
 2449              		.loc 1 767 23
 2450 019a BB69     		ldr	r3, [r7, #24]
 2451 019c 5A01     		lsls	r2, r3, #5
 2452 019e FB69     		ldr	r3, [r7, #28]
 2453 01a0 1344     		add	r3, r3, r2
 2454 01a2 03F51063 		add	r3, r3, #2304
 2455 01a6 1A69     		ldr	r2, [r3, #16]
 2456              		.loc 1 767 66
 2457 01a8 BB68     		ldr	r3, [r7, #8]
 2458 01aa 1B69     		ldr	r3, [r3, #16]
 2459              		.loc 1 767 62
 2460 01ac C3F31203 		ubfx	r3, r3, #0, #19
 2461              		.loc 1 767 23
 2462 01b0 B969     		ldr	r1, [r7, #24]
 2463 01b2 4801     		lsls	r0, r1, #5
 2464 01b4 F969     		ldr	r1, [r7, #28]
 2465 01b6 0144     		add	r1, r1, r0
 2466 01b8 01F51061 		add	r1, r1, #2304
 2467              		.loc 1 767 34
 2468 01bc 1343     		orrs	r3, r3, r2
 2469 01be 0B61     		str	r3, [r1, #16]
 2470              	.L109:
 768:STM32Cube_FW_N6/Drivers/STM32N6xx_HAL_Driver/Src/stm32n6xx_ll_usb.c ****     }
 769:STM32Cube_FW_N6/Drivers/STM32N6xx_HAL_Driver/Src/stm32n6xx_ll_usb.c **** 
 770:STM32Cube_FW_N6/Drivers/STM32N6xx_HAL_Driver/Src/stm32n6xx_ll_usb.c ****     if (dma == 1U)
 2471              		.loc 1 770 8
 2472 01c0 FB79     		ldrb	r3, [r7, #7]	@ zero_extendqisi2
 2473 01c2 012B     		cmp	r3, #1
 2474 01c4 4BD1     		bne	.L113
 771:STM32Cube_FW_N6/Drivers/STM32N6xx_HAL_Driver/Src/stm32n6xx_ll_usb.c ****     {
 772:STM32Cube_FW_N6/Drivers/STM32N6xx_HAL_Driver/Src/stm32n6xx_ll_usb.c ****       if ((uint32_t)ep->dma_addr != 0U)
 2475              		.loc 1 772 23
 2476 01c6 BB68     		ldr	r3, [r7, #8]
 2477 01c8 DB69     		ldr	r3, [r3, #28]
 2478              		.loc 1 772 10
 2479 01ca 002B     		cmp	r3, #0
 2480 01cc 09D0     		beq	.L114
 773:STM32Cube_FW_N6/Drivers/STM32N6xx_HAL_Driver/Src/stm32n6xx_ll_usb.c ****       {
ARM GAS  /tmp/ccxt1UfV.s 			page 58


 774:STM32Cube_FW_N6/Drivers/STM32N6xx_HAL_Driver/Src/stm32n6xx_ll_usb.c ****         USBx_INEP(epnum)->DIEPDMA = (uint32_t)(ep->dma_addr);
 2481              		.loc 1 774 9
 2482 01ce BB69     		ldr	r3, [r7, #24]
 2483 01d0 5A01     		lsls	r2, r3, #5
 2484 01d2 FB69     		ldr	r3, [r7, #28]
 2485 01d4 1344     		add	r3, r3, r2
 2486 01d6 03F51063 		add	r3, r3, #2304
 2487 01da 1A46     		mov	r2, r3
 2488              		.loc 1 774 50
 2489 01dc BB68     		ldr	r3, [r7, #8]
 2490 01de DB69     		ldr	r3, [r3, #28]
 2491              		.loc 1 774 35
 2492 01e0 5361     		str	r3, [r2, #20]
 2493              	.L114:
 775:STM32Cube_FW_N6/Drivers/STM32N6xx_HAL_Driver/Src/stm32n6xx_ll_usb.c ****       }
 776:STM32Cube_FW_N6/Drivers/STM32N6xx_HAL_Driver/Src/stm32n6xx_ll_usb.c **** 
 777:STM32Cube_FW_N6/Drivers/STM32N6xx_HAL_Driver/Src/stm32n6xx_ll_usb.c ****       if (ep->type == EP_TYPE_ISOC)
 2494              		.loc 1 777 13
 2495 01e2 BB68     		ldr	r3, [r7, #8]
 2496 01e4 1B79     		ldrb	r3, [r3, #4]	@ zero_extendqisi2
 2497              		.loc 1 777 10
 2498 01e6 012B     		cmp	r3, #1
 2499 01e8 28D1     		bne	.L115
 778:STM32Cube_FW_N6/Drivers/STM32N6xx_HAL_Driver/Src/stm32n6xx_ll_usb.c ****       {
 779:STM32Cube_FW_N6/Drivers/STM32N6xx_HAL_Driver/Src/stm32n6xx_ll_usb.c ****         if ((USBx_DEVICE->DSTS & (1U << 8)) == 0U)
 2500              		.loc 1 779 14
 2501 01ea FB69     		ldr	r3, [r7, #28]
 2502 01ec 03F50063 		add	r3, r3, #2048
 2503              		.loc 1 779 25
 2504 01f0 9B68     		ldr	r3, [r3, #8]
 2505              		.loc 1 779 32
 2506 01f2 03F48073 		and	r3, r3, #256
 2507              		.loc 1 779 12
 2508 01f6 002B     		cmp	r3, #0
 2509 01f8 10D1     		bne	.L116
 780:STM32Cube_FW_N6/Drivers/STM32N6xx_HAL_Driver/Src/stm32n6xx_ll_usb.c ****         {
 781:STM32Cube_FW_N6/Drivers/STM32N6xx_HAL_Driver/Src/stm32n6xx_ll_usb.c ****           USBx_INEP(epnum)->DIEPCTL |= USB_OTG_DIEPCTL_SODDFRM;
 2510              		.loc 1 781 27
 2511 01fa BB69     		ldr	r3, [r7, #24]
 2512 01fc 5A01     		lsls	r2, r3, #5
 2513 01fe FB69     		ldr	r3, [r7, #28]
 2514 0200 1344     		add	r3, r3, r2
 2515 0202 03F51063 		add	r3, r3, #2304
 2516 0206 1B68     		ldr	r3, [r3]
 2517 0208 BA69     		ldr	r2, [r7, #24]
 2518 020a 5101     		lsls	r1, r2, #5
 2519 020c FA69     		ldr	r2, [r7, #28]
 2520 020e 0A44     		add	r2, r2, r1
 2521 0210 02F51062 		add	r2, r2, #2304
 2522              		.loc 1 781 37
 2523 0214 43F00053 		orr	r3, r3, #536870912
 2524 0218 1360     		str	r3, [r2]
 2525 021a 0FE0     		b	.L115
 2526              	.L116:
 782:STM32Cube_FW_N6/Drivers/STM32N6xx_HAL_Driver/Src/stm32n6xx_ll_usb.c ****         }
 783:STM32Cube_FW_N6/Drivers/STM32N6xx_HAL_Driver/Src/stm32n6xx_ll_usb.c ****         else
 784:STM32Cube_FW_N6/Drivers/STM32N6xx_HAL_Driver/Src/stm32n6xx_ll_usb.c ****         {
ARM GAS  /tmp/ccxt1UfV.s 			page 59


 785:STM32Cube_FW_N6/Drivers/STM32N6xx_HAL_Driver/Src/stm32n6xx_ll_usb.c ****           USBx_INEP(epnum)->DIEPCTL |= USB_OTG_DIEPCTL_SD0PID_SEVNFRM;
 2527              		.loc 1 785 27
 2528 021c BB69     		ldr	r3, [r7, #24]
 2529 021e 5A01     		lsls	r2, r3, #5
 2530 0220 FB69     		ldr	r3, [r7, #28]
 2531 0222 1344     		add	r3, r3, r2
 2532 0224 03F51063 		add	r3, r3, #2304
 2533 0228 1B68     		ldr	r3, [r3]
 2534 022a BA69     		ldr	r2, [r7, #24]
 2535 022c 5101     		lsls	r1, r2, #5
 2536 022e FA69     		ldr	r2, [r7, #28]
 2537 0230 0A44     		add	r2, r2, r1
 2538 0232 02F51062 		add	r2, r2, #2304
 2539              		.loc 1 785 37
 2540 0236 43F08053 		orr	r3, r3, #268435456
 2541 023a 1360     		str	r3, [r2]
 2542              	.L115:
 786:STM32Cube_FW_N6/Drivers/STM32N6xx_HAL_Driver/Src/stm32n6xx_ll_usb.c ****         }
 787:STM32Cube_FW_N6/Drivers/STM32N6xx_HAL_Driver/Src/stm32n6xx_ll_usb.c ****       }
 788:STM32Cube_FW_N6/Drivers/STM32N6xx_HAL_Driver/Src/stm32n6xx_ll_usb.c **** 
 789:STM32Cube_FW_N6/Drivers/STM32N6xx_HAL_Driver/Src/stm32n6xx_ll_usb.c ****       /* EP enable, IN data in FIFO */
 790:STM32Cube_FW_N6/Drivers/STM32N6xx_HAL_Driver/Src/stm32n6xx_ll_usb.c ****       USBx_INEP(epnum)->DIEPCTL |= (USB_OTG_DIEPCTL_CNAK | USB_OTG_DIEPCTL_EPENA);
 2543              		.loc 1 790 23
 2544 023c BB69     		ldr	r3, [r7, #24]
 2545 023e 5A01     		lsls	r2, r3, #5
 2546 0240 FB69     		ldr	r3, [r7, #28]
 2547 0242 1344     		add	r3, r3, r2
 2548 0244 03F51063 		add	r3, r3, #2304
 2549 0248 1B68     		ldr	r3, [r3]
 2550 024a BA69     		ldr	r2, [r7, #24]
 2551 024c 5101     		lsls	r1, r2, #5
 2552 024e FA69     		ldr	r2, [r7, #28]
 2553 0250 0A44     		add	r2, r2, r1
 2554 0252 02F51062 		add	r2, r2, #2304
 2555              		.loc 1 790 33
 2556 0256 43F00443 		orr	r3, r3, #-2080374784
 2557 025a 1360     		str	r3, [r2]
 2558 025c 66E1     		b	.L117
 2559              	.L113:
 791:STM32Cube_FW_N6/Drivers/STM32N6xx_HAL_Driver/Src/stm32n6xx_ll_usb.c ****     }
 792:STM32Cube_FW_N6/Drivers/STM32N6xx_HAL_Driver/Src/stm32n6xx_ll_usb.c ****     else
 793:STM32Cube_FW_N6/Drivers/STM32N6xx_HAL_Driver/Src/stm32n6xx_ll_usb.c ****     {
 794:STM32Cube_FW_N6/Drivers/STM32N6xx_HAL_Driver/Src/stm32n6xx_ll_usb.c ****       /* EP enable, IN data in FIFO */
 795:STM32Cube_FW_N6/Drivers/STM32N6xx_HAL_Driver/Src/stm32n6xx_ll_usb.c ****       USBx_INEP(epnum)->DIEPCTL |= (USB_OTG_DIEPCTL_CNAK | USB_OTG_DIEPCTL_EPENA);
 2560              		.loc 1 795 23
 2561 025e BB69     		ldr	r3, [r7, #24]
 2562 0260 5A01     		lsls	r2, r3, #5
 2563 0262 FB69     		ldr	r3, [r7, #28]
 2564 0264 1344     		add	r3, r3, r2
 2565 0266 03F51063 		add	r3, r3, #2304
 2566 026a 1B68     		ldr	r3, [r3]
 2567 026c BA69     		ldr	r2, [r7, #24]
 2568 026e 5101     		lsls	r1, r2, #5
 2569 0270 FA69     		ldr	r2, [r7, #28]
 2570 0272 0A44     		add	r2, r2, r1
 2571 0274 02F51062 		add	r2, r2, #2304
 2572              		.loc 1 795 33
ARM GAS  /tmp/ccxt1UfV.s 			page 60


 2573 0278 43F00443 		orr	r3, r3, #-2080374784
 2574 027c 1360     		str	r3, [r2]
 796:STM32Cube_FW_N6/Drivers/STM32N6xx_HAL_Driver/Src/stm32n6xx_ll_usb.c **** 
 797:STM32Cube_FW_N6/Drivers/STM32N6xx_HAL_Driver/Src/stm32n6xx_ll_usb.c ****       if (ep->type != EP_TYPE_ISOC)
 2575              		.loc 1 797 13
 2576 027e BB68     		ldr	r3, [r7, #8]
 2577 0280 1B79     		ldrb	r3, [r3, #4]	@ zero_extendqisi2
 2578              		.loc 1 797 10
 2579 0282 012B     		cmp	r3, #1
 2580 0284 15D0     		beq	.L118
 798:STM32Cube_FW_N6/Drivers/STM32N6xx_HAL_Driver/Src/stm32n6xx_ll_usb.c ****       {
 799:STM32Cube_FW_N6/Drivers/STM32N6xx_HAL_Driver/Src/stm32n6xx_ll_usb.c ****         /* Enable the Tx FIFO Empty Interrupt for this EP */
 800:STM32Cube_FW_N6/Drivers/STM32N6xx_HAL_Driver/Src/stm32n6xx_ll_usb.c ****         if (ep->xfer_len > 0U)
 2581              		.loc 1 800 15
 2582 0286 BB68     		ldr	r3, [r7, #8]
 2583 0288 1B69     		ldr	r3, [r3, #16]
 2584              		.loc 1 800 12
 2585 028a 002B     		cmp	r3, #0
 2586 028c 00F04E81 		beq	.L117
 801:STM32Cube_FW_N6/Drivers/STM32N6xx_HAL_Driver/Src/stm32n6xx_ll_usb.c ****         {
 802:STM32Cube_FW_N6/Drivers/STM32N6xx_HAL_Driver/Src/stm32n6xx_ll_usb.c ****           USBx_DEVICE->DIEPEMPMSK |= 1UL << (ep->num & EP_ADDR_MSK);
 2587              		.loc 1 802 22
 2588 0290 FB69     		ldr	r3, [r7, #28]
 2589 0292 03F50063 		add	r3, r3, #2048
 2590 0296 5A6B     		ldr	r2, [r3, #52]
 2591              		.loc 1 802 48
 2592 0298 BB68     		ldr	r3, [r7, #8]
 2593 029a 1B78     		ldrb	r3, [r3]	@ zero_extendqisi2
 2594              		.loc 1 802 54
 2595 029c 03F00F03 		and	r3, r3, #15
 2596              		.loc 1 802 42
 2597 02a0 0121     		movs	r1, #1
 2598 02a2 01FA03F3 		lsl	r3, r1, r3
 2599              		.loc 1 802 22
 2600 02a6 F969     		ldr	r1, [r7, #28]
 2601 02a8 01F50061 		add	r1, r1, #2048
 2602              		.loc 1 802 35
 2603 02ac 1343     		orrs	r3, r3, r2
 2604 02ae 4B63     		str	r3, [r1, #52]
 2605 02b0 3CE1     		b	.L117
 2606              	.L118:
 803:STM32Cube_FW_N6/Drivers/STM32N6xx_HAL_Driver/Src/stm32n6xx_ll_usb.c ****         }
 804:STM32Cube_FW_N6/Drivers/STM32N6xx_HAL_Driver/Src/stm32n6xx_ll_usb.c ****       }
 805:STM32Cube_FW_N6/Drivers/STM32N6xx_HAL_Driver/Src/stm32n6xx_ll_usb.c ****       else
 806:STM32Cube_FW_N6/Drivers/STM32N6xx_HAL_Driver/Src/stm32n6xx_ll_usb.c ****       {
 807:STM32Cube_FW_N6/Drivers/STM32N6xx_HAL_Driver/Src/stm32n6xx_ll_usb.c ****         if ((USBx_DEVICE->DSTS & (1U << 8)) == 0U)
 2607              		.loc 1 807 14
 2608 02b2 FB69     		ldr	r3, [r7, #28]
 2609 02b4 03F50063 		add	r3, r3, #2048
 2610              		.loc 1 807 25
 2611 02b8 9B68     		ldr	r3, [r3, #8]
 2612              		.loc 1 807 32
 2613 02ba 03F48073 		and	r3, r3, #256
 2614              		.loc 1 807 12
 2615 02be 002B     		cmp	r3, #0
 2616 02c0 10D1     		bne	.L119
 808:STM32Cube_FW_N6/Drivers/STM32N6xx_HAL_Driver/Src/stm32n6xx_ll_usb.c ****         {
ARM GAS  /tmp/ccxt1UfV.s 			page 61


 809:STM32Cube_FW_N6/Drivers/STM32N6xx_HAL_Driver/Src/stm32n6xx_ll_usb.c ****           USBx_INEP(epnum)->DIEPCTL |= USB_OTG_DIEPCTL_SODDFRM;
 2617              		.loc 1 809 27
 2618 02c2 BB69     		ldr	r3, [r7, #24]
 2619 02c4 5A01     		lsls	r2, r3, #5
 2620 02c6 FB69     		ldr	r3, [r7, #28]
 2621 02c8 1344     		add	r3, r3, r2
 2622 02ca 03F51063 		add	r3, r3, #2304
 2623 02ce 1B68     		ldr	r3, [r3]
 2624 02d0 BA69     		ldr	r2, [r7, #24]
 2625 02d2 5101     		lsls	r1, r2, #5
 2626 02d4 FA69     		ldr	r2, [r7, #28]
 2627 02d6 0A44     		add	r2, r2, r1
 2628 02d8 02F51062 		add	r2, r2, #2304
 2629              		.loc 1 809 37
 2630 02dc 43F00053 		orr	r3, r3, #536870912
 2631 02e0 1360     		str	r3, [r2]
 2632 02e2 0FE0     		b	.L120
 2633              	.L119:
 810:STM32Cube_FW_N6/Drivers/STM32N6xx_HAL_Driver/Src/stm32n6xx_ll_usb.c ****         }
 811:STM32Cube_FW_N6/Drivers/STM32N6xx_HAL_Driver/Src/stm32n6xx_ll_usb.c ****         else
 812:STM32Cube_FW_N6/Drivers/STM32N6xx_HAL_Driver/Src/stm32n6xx_ll_usb.c ****         {
 813:STM32Cube_FW_N6/Drivers/STM32N6xx_HAL_Driver/Src/stm32n6xx_ll_usb.c ****           USBx_INEP(epnum)->DIEPCTL |= USB_OTG_DIEPCTL_SD0PID_SEVNFRM;
 2634              		.loc 1 813 27
 2635 02e4 BB69     		ldr	r3, [r7, #24]
 2636 02e6 5A01     		lsls	r2, r3, #5
 2637 02e8 FB69     		ldr	r3, [r7, #28]
 2638 02ea 1344     		add	r3, r3, r2
 2639 02ec 03F51063 		add	r3, r3, #2304
 2640 02f0 1B68     		ldr	r3, [r3]
 2641 02f2 BA69     		ldr	r2, [r7, #24]
 2642 02f4 5101     		lsls	r1, r2, #5
 2643 02f6 FA69     		ldr	r2, [r7, #28]
 2644 02f8 0A44     		add	r2, r2, r1
 2645 02fa 02F51062 		add	r2, r2, #2304
 2646              		.loc 1 813 37
 2647 02fe 43F08053 		orr	r3, r3, #268435456
 2648 0302 1360     		str	r3, [r2]
 2649              	.L120:
 814:STM32Cube_FW_N6/Drivers/STM32N6xx_HAL_Driver/Src/stm32n6xx_ll_usb.c ****         }
 815:STM32Cube_FW_N6/Drivers/STM32N6xx_HAL_Driver/Src/stm32n6xx_ll_usb.c **** 
 816:STM32Cube_FW_N6/Drivers/STM32N6xx_HAL_Driver/Src/stm32n6xx_ll_usb.c ****         (void)USB_WritePacket(USBx, ep->xfer_buff, ep->num, (uint16_t)ep->xfer_len, dma);
 2650              		.loc 1 816 15
 2651 0304 BB68     		ldr	r3, [r7, #8]
 2652 0306 D968     		ldr	r1, [r3, #12]
 2653 0308 BB68     		ldr	r3, [r7, #8]
 2654 030a 1A78     		ldrb	r2, [r3]	@ zero_extendqisi2
 2655              		.loc 1 816 73
 2656 030c BB68     		ldr	r3, [r7, #8]
 2657 030e 1B69     		ldr	r3, [r3, #16]
 2658              		.loc 1 816 15
 2659 0310 98B2     		uxth	r0, r3
 2660 0312 FB79     		ldrb	r3, [r7, #7]	@ zero_extendqisi2
 2661 0314 0093     		str	r3, [sp]
 2662 0316 0346     		mov	r3, r0
 2663 0318 F868     		ldr	r0, [r7, #12]
 2664 031a FFF7FEFF 		bl	USB_WritePacket
 2665 031e 05E1     		b	.L117
ARM GAS  /tmp/ccxt1UfV.s 			page 62


 2666              	.L107:
 817:STM32Cube_FW_N6/Drivers/STM32N6xx_HAL_Driver/Src/stm32n6xx_ll_usb.c ****       }
 818:STM32Cube_FW_N6/Drivers/STM32N6xx_HAL_Driver/Src/stm32n6xx_ll_usb.c ****     }
 819:STM32Cube_FW_N6/Drivers/STM32N6xx_HAL_Driver/Src/stm32n6xx_ll_usb.c ****   }
 820:STM32Cube_FW_N6/Drivers/STM32N6xx_HAL_Driver/Src/stm32n6xx_ll_usb.c ****   else /* OUT endpoint */
 821:STM32Cube_FW_N6/Drivers/STM32N6xx_HAL_Driver/Src/stm32n6xx_ll_usb.c ****   {
 822:STM32Cube_FW_N6/Drivers/STM32N6xx_HAL_Driver/Src/stm32n6xx_ll_usb.c ****     /* Program the transfer size and packet count as follows:
 823:STM32Cube_FW_N6/Drivers/STM32N6xx_HAL_Driver/Src/stm32n6xx_ll_usb.c ****     * pktcnt = N
 824:STM32Cube_FW_N6/Drivers/STM32N6xx_HAL_Driver/Src/stm32n6xx_ll_usb.c ****     * xfersize = N * maxpacket
 825:STM32Cube_FW_N6/Drivers/STM32N6xx_HAL_Driver/Src/stm32n6xx_ll_usb.c ****     */
 826:STM32Cube_FW_N6/Drivers/STM32N6xx_HAL_Driver/Src/stm32n6xx_ll_usb.c ****     USBx_OUTEP(epnum)->DOEPTSIZ &= ~(USB_OTG_DOEPTSIZ_XFRSIZ);
 2667              		.loc 1 826 22
 2668 0320 BB69     		ldr	r3, [r7, #24]
 2669 0322 5A01     		lsls	r2, r3, #5
 2670 0324 FB69     		ldr	r3, [r7, #28]
 2671 0326 1344     		add	r3, r3, r2
 2672 0328 03F53063 		add	r3, r3, #2816
 2673 032c 1B69     		ldr	r3, [r3, #16]
 2674 032e BA69     		ldr	r2, [r7, #24]
 2675 0330 5101     		lsls	r1, r2, #5
 2676 0332 FA69     		ldr	r2, [r7, #28]
 2677 0334 0A44     		add	r2, r2, r1
 2678 0336 02F53062 		add	r2, r2, #2816
 2679              		.loc 1 826 33
 2680 033a DB0C     		lsrs	r3, r3, #19
 2681 033c DB04     		lsls	r3, r3, #19
 2682 033e 1361     		str	r3, [r2, #16]
 827:STM32Cube_FW_N6/Drivers/STM32N6xx_HAL_Driver/Src/stm32n6xx_ll_usb.c ****     USBx_OUTEP(epnum)->DOEPTSIZ &= ~(USB_OTG_DOEPTSIZ_PKTCNT);
 2683              		.loc 1 827 22
 2684 0340 BB69     		ldr	r3, [r7, #24]
 2685 0342 5A01     		lsls	r2, r3, #5
 2686 0344 FB69     		ldr	r3, [r7, #28]
 2687 0346 1344     		add	r3, r3, r2
 2688 0348 03F53063 		add	r3, r3, #2816
 2689 034c 1B69     		ldr	r3, [r3, #16]
 2690 034e BA69     		ldr	r2, [r7, #24]
 2691 0350 5101     		lsls	r1, r2, #5
 2692 0352 FA69     		ldr	r2, [r7, #28]
 2693 0354 0A44     		add	r2, r2, r1
 2694 0356 02F53062 		add	r2, r2, #2816
 2695              		.loc 1 827 33
 2696 035a 23F0FF53 		bic	r3, r3, #534773760
 2697 035e 23F4C013 		bic	r3, r3, #1572864
 2698 0362 1361     		str	r3, [r2, #16]
 828:STM32Cube_FW_N6/Drivers/STM32N6xx_HAL_Driver/Src/stm32n6xx_ll_usb.c **** 
 829:STM32Cube_FW_N6/Drivers/STM32N6xx_HAL_Driver/Src/stm32n6xx_ll_usb.c ****     if (epnum == 0U)
 2699              		.loc 1 829 8
 2700 0364 BB69     		ldr	r3, [r7, #24]
 2701 0366 002B     		cmp	r3, #0
 2702 0368 32D1     		bne	.L121
 830:STM32Cube_FW_N6/Drivers/STM32N6xx_HAL_Driver/Src/stm32n6xx_ll_usb.c ****     {
 831:STM32Cube_FW_N6/Drivers/STM32N6xx_HAL_Driver/Src/stm32n6xx_ll_usb.c ****       if (ep->xfer_len > 0U)
 2703              		.loc 1 831 13
 2704 036a BB68     		ldr	r3, [r7, #8]
 2705 036c 1B69     		ldr	r3, [r3, #16]
 2706              		.loc 1 831 10
 2707 036e 002B     		cmp	r3, #0
ARM GAS  /tmp/ccxt1UfV.s 			page 63


 2708 0370 03D0     		beq	.L122
 832:STM32Cube_FW_N6/Drivers/STM32N6xx_HAL_Driver/Src/stm32n6xx_ll_usb.c ****       {
 833:STM32Cube_FW_N6/Drivers/STM32N6xx_HAL_Driver/Src/stm32n6xx_ll_usb.c ****         ep->xfer_len = ep->maxpacket;
 2709              		.loc 1 833 26
 2710 0372 BB68     		ldr	r3, [r7, #8]
 2711 0374 9A68     		ldr	r2, [r3, #8]
 2712              		.loc 1 833 22
 2713 0376 BB68     		ldr	r3, [r7, #8]
 2714 0378 1A61     		str	r2, [r3, #16]
 2715              	.L122:
 834:STM32Cube_FW_N6/Drivers/STM32N6xx_HAL_Driver/Src/stm32n6xx_ll_usb.c ****       }
 835:STM32Cube_FW_N6/Drivers/STM32N6xx_HAL_Driver/Src/stm32n6xx_ll_usb.c **** 
 836:STM32Cube_FW_N6/Drivers/STM32N6xx_HAL_Driver/Src/stm32n6xx_ll_usb.c ****       /* Store transfer size, for EP0 this is equal to endpoint max packet size */
 837:STM32Cube_FW_N6/Drivers/STM32N6xx_HAL_Driver/Src/stm32n6xx_ll_usb.c ****       ep->xfer_size = ep->maxpacket;
 2716              		.loc 1 837 25
 2717 037a BB68     		ldr	r3, [r7, #8]
 2718 037c 9A68     		ldr	r2, [r3, #8]
 2719              		.loc 1 837 21
 2720 037e BB68     		ldr	r3, [r7, #8]
 2721 0380 1A62     		str	r2, [r3, #32]
 838:STM32Cube_FW_N6/Drivers/STM32N6xx_HAL_Driver/Src/stm32n6xx_ll_usb.c **** 
 839:STM32Cube_FW_N6/Drivers/STM32N6xx_HAL_Driver/Src/stm32n6xx_ll_usb.c ****       USBx_OUTEP(epnum)->DOEPTSIZ |= (USB_OTG_DOEPTSIZ_XFRSIZ & ep->xfer_size);
 2722              		.loc 1 839 24
 2723 0382 BB69     		ldr	r3, [r7, #24]
 2724 0384 5A01     		lsls	r2, r3, #5
 2725 0386 FB69     		ldr	r3, [r7, #28]
 2726 0388 1344     		add	r3, r3, r2
 2727 038a 03F53063 		add	r3, r3, #2816
 2728 038e 1A69     		ldr	r2, [r3, #16]
 2729              		.loc 1 839 67
 2730 0390 BB68     		ldr	r3, [r7, #8]
 2731 0392 1B6A     		ldr	r3, [r3, #32]
 2732              		.loc 1 839 63
 2733 0394 C3F31203 		ubfx	r3, r3, #0, #19
 2734              		.loc 1 839 24
 2735 0398 B969     		ldr	r1, [r7, #24]
 2736 039a 4801     		lsls	r0, r1, #5
 2737 039c F969     		ldr	r1, [r7, #28]
 2738 039e 0144     		add	r1, r1, r0
 2739 03a0 01F53061 		add	r1, r1, #2816
 2740              		.loc 1 839 35
 2741 03a4 1343     		orrs	r3, r3, r2
 2742 03a6 0B61     		str	r3, [r1, #16]
 840:STM32Cube_FW_N6/Drivers/STM32N6xx_HAL_Driver/Src/stm32n6xx_ll_usb.c ****       USBx_OUTEP(epnum)->DOEPTSIZ |= (USB_OTG_DOEPTSIZ_PKTCNT & (1U << 19));
 2743              		.loc 1 840 24
 2744 03a8 BB69     		ldr	r3, [r7, #24]
 2745 03aa 5A01     		lsls	r2, r3, #5
 2746 03ac FB69     		ldr	r3, [r7, #28]
 2747 03ae 1344     		add	r3, r3, r2
 2748 03b0 03F53063 		add	r3, r3, #2816
 2749 03b4 1B69     		ldr	r3, [r3, #16]
 2750 03b6 BA69     		ldr	r2, [r7, #24]
 2751 03b8 5101     		lsls	r1, r2, #5
 2752 03ba FA69     		ldr	r2, [r7, #28]
 2753 03bc 0A44     		add	r2, r2, r1
 2754 03be 02F53062 		add	r2, r2, #2816
 2755              		.loc 1 840 35
ARM GAS  /tmp/ccxt1UfV.s 			page 64


 2756 03c2 43F40023 		orr	r3, r3, #524288
 2757 03c6 1361     		str	r3, [r2, #16]
 2758 03c8 62E0     		b	.L123
 2759              	.L130:
 2760 03ca 00BF     		.align	2
 2761              	.L129:
 2762 03cc 0000F81F 		.word	536346624
 2763              	.L121:
 841:STM32Cube_FW_N6/Drivers/STM32N6xx_HAL_Driver/Src/stm32n6xx_ll_usb.c ****     }
 842:STM32Cube_FW_N6/Drivers/STM32N6xx_HAL_Driver/Src/stm32n6xx_ll_usb.c ****     else
 843:STM32Cube_FW_N6/Drivers/STM32N6xx_HAL_Driver/Src/stm32n6xx_ll_usb.c ****     {
 844:STM32Cube_FW_N6/Drivers/STM32N6xx_HAL_Driver/Src/stm32n6xx_ll_usb.c ****       if (ep->xfer_len == 0U)
 2764              		.loc 1 844 13
 2765 03d0 BB68     		ldr	r3, [r7, #8]
 2766 03d2 1B69     		ldr	r3, [r3, #16]
 2767              		.loc 1 844 10
 2768 03d4 002B     		cmp	r3, #0
 2769 03d6 23D1     		bne	.L124
 845:STM32Cube_FW_N6/Drivers/STM32N6xx_HAL_Driver/Src/stm32n6xx_ll_usb.c ****       {
 846:STM32Cube_FW_N6/Drivers/STM32N6xx_HAL_Driver/Src/stm32n6xx_ll_usb.c ****         USBx_OUTEP(epnum)->DOEPTSIZ |= (USB_OTG_DOEPTSIZ_XFRSIZ & ep->maxpacket);
 2770              		.loc 1 846 26
 2771 03d8 BB69     		ldr	r3, [r7, #24]
 2772 03da 5A01     		lsls	r2, r3, #5
 2773 03dc FB69     		ldr	r3, [r7, #28]
 2774 03de 1344     		add	r3, r3, r2
 2775 03e0 03F53063 		add	r3, r3, #2816
 2776 03e4 1A69     		ldr	r2, [r3, #16]
 2777              		.loc 1 846 69
 2778 03e6 BB68     		ldr	r3, [r7, #8]
 2779 03e8 9B68     		ldr	r3, [r3, #8]
 2780              		.loc 1 846 65
 2781 03ea C3F31203 		ubfx	r3, r3, #0, #19
 2782              		.loc 1 846 26
 2783 03ee B969     		ldr	r1, [r7, #24]
 2784 03f0 4801     		lsls	r0, r1, #5
 2785 03f2 F969     		ldr	r1, [r7, #28]
 2786 03f4 0144     		add	r1, r1, r0
 2787 03f6 01F53061 		add	r1, r1, #2816
 2788              		.loc 1 846 37
 2789 03fa 1343     		orrs	r3, r3, r2
 2790 03fc 0B61     		str	r3, [r1, #16]
 847:STM32Cube_FW_N6/Drivers/STM32N6xx_HAL_Driver/Src/stm32n6xx_ll_usb.c ****         USBx_OUTEP(epnum)->DOEPTSIZ |= (USB_OTG_DOEPTSIZ_PKTCNT & (1U << 19));
 2791              		.loc 1 847 26
 2792 03fe BB69     		ldr	r3, [r7, #24]
 2793 0400 5A01     		lsls	r2, r3, #5
 2794 0402 FB69     		ldr	r3, [r7, #28]
 2795 0404 1344     		add	r3, r3, r2
 2796 0406 03F53063 		add	r3, r3, #2816
 2797 040a 1B69     		ldr	r3, [r3, #16]
 2798 040c BA69     		ldr	r2, [r7, #24]
 2799 040e 5101     		lsls	r1, r2, #5
 2800 0410 FA69     		ldr	r2, [r7, #28]
 2801 0412 0A44     		add	r2, r2, r1
 2802 0414 02F53062 		add	r2, r2, #2816
 2803              		.loc 1 847 37
 2804 0418 43F40023 		orr	r3, r3, #524288
 2805 041c 1361     		str	r3, [r2, #16]
ARM GAS  /tmp/ccxt1UfV.s 			page 65


 2806 041e 37E0     		b	.L123
 2807              	.L124:
 848:STM32Cube_FW_N6/Drivers/STM32N6xx_HAL_Driver/Src/stm32n6xx_ll_usb.c ****       }
 849:STM32Cube_FW_N6/Drivers/STM32N6xx_HAL_Driver/Src/stm32n6xx_ll_usb.c ****       else
 850:STM32Cube_FW_N6/Drivers/STM32N6xx_HAL_Driver/Src/stm32n6xx_ll_usb.c ****       {
 851:STM32Cube_FW_N6/Drivers/STM32N6xx_HAL_Driver/Src/stm32n6xx_ll_usb.c ****         pktcnt = (uint16_t)((ep->xfer_len + ep->maxpacket - 1U) / ep->maxpacket);
 2808              		.loc 1 851 32
 2809 0420 BB68     		ldr	r3, [r7, #8]
 2810 0422 1A69     		ldr	r2, [r3, #16]
 2811              		.loc 1 851 47
 2812 0424 BB68     		ldr	r3, [r7, #8]
 2813 0426 9B68     		ldr	r3, [r3, #8]
 2814              		.loc 1 851 43
 2815 0428 1344     		add	r3, r3, r2
 2816              		.loc 1 851 59
 2817 042a 5A1E     		subs	r2, r3, #1
 2818              		.loc 1 851 69
 2819 042c BB68     		ldr	r3, [r7, #8]
 2820 042e 9B68     		ldr	r3, [r3, #8]
 2821              		.loc 1 851 65
 2822 0430 B2FBF3F3 		udiv	r3, r2, r3
 2823              		.loc 1 851 16
 2824 0434 FB82     		strh	r3, [r7, #22]	@ movhi
 852:STM32Cube_FW_N6/Drivers/STM32N6xx_HAL_Driver/Src/stm32n6xx_ll_usb.c ****         ep->xfer_size = ep->maxpacket * pktcnt;
 2825              		.loc 1 852 27
 2826 0436 BB68     		ldr	r3, [r7, #8]
 2827 0438 9B68     		ldr	r3, [r3, #8]
 2828              		.loc 1 852 39
 2829 043a FA8A     		ldrh	r2, [r7, #22]
 2830 043c 03FB02F2 		mul	r2, r3, r2
 2831              		.loc 1 852 23
 2832 0440 BB68     		ldr	r3, [r7, #8]
 2833 0442 1A62     		str	r2, [r3, #32]
 853:STM32Cube_FW_N6/Drivers/STM32N6xx_HAL_Driver/Src/stm32n6xx_ll_usb.c **** 
 854:STM32Cube_FW_N6/Drivers/STM32N6xx_HAL_Driver/Src/stm32n6xx_ll_usb.c ****         USBx_OUTEP(epnum)->DOEPTSIZ |= USB_OTG_DOEPTSIZ_PKTCNT & ((uint32_t)pktcnt << 19);
 2834              		.loc 1 854 26
 2835 0444 BB69     		ldr	r3, [r7, #24]
 2836 0446 5A01     		lsls	r2, r3, #5
 2837 0448 FB69     		ldr	r3, [r7, #28]
 2838 044a 1344     		add	r3, r3, r2
 2839 044c 03F53063 		add	r3, r3, #2816
 2840 0450 1A69     		ldr	r2, [r3, #16]
 2841              		.loc 1 854 67
 2842 0452 FB8A     		ldrh	r3, [r7, #22]
 2843              		.loc 1 854 84
 2844 0454 D904     		lsls	r1, r3, #19
 2845              		.loc 1 854 64
 2846 0456 384B     		ldr	r3, .L131
 2847 0458 0B40     		ands	r3, r3, r1
 2848              		.loc 1 854 26
 2849 045a B969     		ldr	r1, [r7, #24]
 2850 045c 4801     		lsls	r0, r1, #5
 2851 045e F969     		ldr	r1, [r7, #28]
 2852 0460 0144     		add	r1, r1, r0
 2853 0462 01F53061 		add	r1, r1, #2816
 2854              		.loc 1 854 37
 2855 0466 1343     		orrs	r3, r3, r2
ARM GAS  /tmp/ccxt1UfV.s 			page 66


 2856 0468 0B61     		str	r3, [r1, #16]
 855:STM32Cube_FW_N6/Drivers/STM32N6xx_HAL_Driver/Src/stm32n6xx_ll_usb.c ****         USBx_OUTEP(epnum)->DOEPTSIZ |= USB_OTG_DOEPTSIZ_XFRSIZ & ep->xfer_size;
 2857              		.loc 1 855 26
 2858 046a BB69     		ldr	r3, [r7, #24]
 2859 046c 5A01     		lsls	r2, r3, #5
 2860 046e FB69     		ldr	r3, [r7, #28]
 2861 0470 1344     		add	r3, r3, r2
 2862 0472 03F53063 		add	r3, r3, #2816
 2863 0476 1A69     		ldr	r2, [r3, #16]
 2864              		.loc 1 855 68
 2865 0478 BB68     		ldr	r3, [r7, #8]
 2866 047a 1B6A     		ldr	r3, [r3, #32]
 2867              		.loc 1 855 64
 2868 047c C3F31203 		ubfx	r3, r3, #0, #19
 2869              		.loc 1 855 26
 2870 0480 B969     		ldr	r1, [r7, #24]
 2871 0482 4801     		lsls	r0, r1, #5
 2872 0484 F969     		ldr	r1, [r7, #28]
 2873 0486 0144     		add	r1, r1, r0
 2874 0488 01F53061 		add	r1, r1, #2816
 2875              		.loc 1 855 37
 2876 048c 1343     		orrs	r3, r3, r2
 2877 048e 0B61     		str	r3, [r1, #16]
 2878              	.L123:
 856:STM32Cube_FW_N6/Drivers/STM32N6xx_HAL_Driver/Src/stm32n6xx_ll_usb.c ****       }
 857:STM32Cube_FW_N6/Drivers/STM32N6xx_HAL_Driver/Src/stm32n6xx_ll_usb.c ****     }
 858:STM32Cube_FW_N6/Drivers/STM32N6xx_HAL_Driver/Src/stm32n6xx_ll_usb.c **** 
 859:STM32Cube_FW_N6/Drivers/STM32N6xx_HAL_Driver/Src/stm32n6xx_ll_usb.c ****     if (dma == 1U)
 2879              		.loc 1 859 8
 2880 0490 FB79     		ldrb	r3, [r7, #7]	@ zero_extendqisi2
 2881 0492 012B     		cmp	r3, #1
 2882 0494 0DD1     		bne	.L125
 860:STM32Cube_FW_N6/Drivers/STM32N6xx_HAL_Driver/Src/stm32n6xx_ll_usb.c ****     {
 861:STM32Cube_FW_N6/Drivers/STM32N6xx_HAL_Driver/Src/stm32n6xx_ll_usb.c ****       if ((uint32_t)ep->xfer_buff != 0U)
 2883              		.loc 1 861 23
 2884 0496 BB68     		ldr	r3, [r7, #8]
 2885 0498 DB68     		ldr	r3, [r3, #12]
 2886              		.loc 1 861 10
 2887 049a 002B     		cmp	r3, #0
 2888 049c 09D0     		beq	.L125
 862:STM32Cube_FW_N6/Drivers/STM32N6xx_HAL_Driver/Src/stm32n6xx_ll_usb.c ****       {
 863:STM32Cube_FW_N6/Drivers/STM32N6xx_HAL_Driver/Src/stm32n6xx_ll_usb.c ****         USBx_OUTEP(epnum)->DOEPDMA = (uint32_t)(ep->xfer_buff);
 2889              		.loc 1 863 51
 2890 049e BB68     		ldr	r3, [r7, #8]
 2891 04a0 D968     		ldr	r1, [r3, #12]
 2892              		.loc 1 863 9
 2893 04a2 BB69     		ldr	r3, [r7, #24]
 2894 04a4 5A01     		lsls	r2, r3, #5
 2895 04a6 FB69     		ldr	r3, [r7, #28]
 2896 04a8 1344     		add	r3, r3, r2
 2897 04aa 03F53063 		add	r3, r3, #2816
 2898              		.loc 1 863 38
 2899 04ae 0A46     		mov	r2, r1
 2900              		.loc 1 863 36
 2901 04b0 5A61     		str	r2, [r3, #20]
 2902              	.L125:
 864:STM32Cube_FW_N6/Drivers/STM32N6xx_HAL_Driver/Src/stm32n6xx_ll_usb.c ****       }
ARM GAS  /tmp/ccxt1UfV.s 			page 67


 865:STM32Cube_FW_N6/Drivers/STM32N6xx_HAL_Driver/Src/stm32n6xx_ll_usb.c ****     }
 866:STM32Cube_FW_N6/Drivers/STM32N6xx_HAL_Driver/Src/stm32n6xx_ll_usb.c **** 
 867:STM32Cube_FW_N6/Drivers/STM32N6xx_HAL_Driver/Src/stm32n6xx_ll_usb.c ****     if (ep->type == EP_TYPE_ISOC)
 2903              		.loc 1 867 11
 2904 04b2 BB68     		ldr	r3, [r7, #8]
 2905 04b4 1B79     		ldrb	r3, [r3, #4]	@ zero_extendqisi2
 2906              		.loc 1 867 8
 2907 04b6 012B     		cmp	r3, #1
 2908 04b8 28D1     		bne	.L126
 868:STM32Cube_FW_N6/Drivers/STM32N6xx_HAL_Driver/Src/stm32n6xx_ll_usb.c ****     {
 869:STM32Cube_FW_N6/Drivers/STM32N6xx_HAL_Driver/Src/stm32n6xx_ll_usb.c ****       if ((USBx_DEVICE->DSTS & (1U << 8)) == 0U)
 2909              		.loc 1 869 12
 2910 04ba FB69     		ldr	r3, [r7, #28]
 2911 04bc 03F50063 		add	r3, r3, #2048
 2912              		.loc 1 869 23
 2913 04c0 9B68     		ldr	r3, [r3, #8]
 2914              		.loc 1 869 30
 2915 04c2 03F48073 		and	r3, r3, #256
 2916              		.loc 1 869 10
 2917 04c6 002B     		cmp	r3, #0
 2918 04c8 10D1     		bne	.L127
 870:STM32Cube_FW_N6/Drivers/STM32N6xx_HAL_Driver/Src/stm32n6xx_ll_usb.c ****       {
 871:STM32Cube_FW_N6/Drivers/STM32N6xx_HAL_Driver/Src/stm32n6xx_ll_usb.c ****         USBx_OUTEP(epnum)->DOEPCTL |= USB_OTG_DOEPCTL_SODDFRM;
 2919              		.loc 1 871 26
 2920 04ca BB69     		ldr	r3, [r7, #24]
 2921 04cc 5A01     		lsls	r2, r3, #5
 2922 04ce FB69     		ldr	r3, [r7, #28]
 2923 04d0 1344     		add	r3, r3, r2
 2924 04d2 03F53063 		add	r3, r3, #2816
 2925 04d6 1B68     		ldr	r3, [r3]
 2926 04d8 BA69     		ldr	r2, [r7, #24]
 2927 04da 5101     		lsls	r1, r2, #5
 2928 04dc FA69     		ldr	r2, [r7, #28]
 2929 04de 0A44     		add	r2, r2, r1
 2930 04e0 02F53062 		add	r2, r2, #2816
 2931              		.loc 1 871 36
 2932 04e4 43F00053 		orr	r3, r3, #536870912
 2933 04e8 1360     		str	r3, [r2]
 2934 04ea 0FE0     		b	.L126
 2935              	.L127:
 872:STM32Cube_FW_N6/Drivers/STM32N6xx_HAL_Driver/Src/stm32n6xx_ll_usb.c ****       }
 873:STM32Cube_FW_N6/Drivers/STM32N6xx_HAL_Driver/Src/stm32n6xx_ll_usb.c ****       else
 874:STM32Cube_FW_N6/Drivers/STM32N6xx_HAL_Driver/Src/stm32n6xx_ll_usb.c ****       {
 875:STM32Cube_FW_N6/Drivers/STM32N6xx_HAL_Driver/Src/stm32n6xx_ll_usb.c ****         USBx_OUTEP(epnum)->DOEPCTL |= USB_OTG_DOEPCTL_SD0PID_SEVNFRM;
 2936              		.loc 1 875 26
 2937 04ec BB69     		ldr	r3, [r7, #24]
 2938 04ee 5A01     		lsls	r2, r3, #5
 2939 04f0 FB69     		ldr	r3, [r7, #28]
 2940 04f2 1344     		add	r3, r3, r2
 2941 04f4 03F53063 		add	r3, r3, #2816
 2942 04f8 1B68     		ldr	r3, [r3]
 2943 04fa BA69     		ldr	r2, [r7, #24]
 2944 04fc 5101     		lsls	r1, r2, #5
 2945 04fe FA69     		ldr	r2, [r7, #28]
 2946 0500 0A44     		add	r2, r2, r1
 2947 0502 02F53062 		add	r2, r2, #2816
 2948              		.loc 1 875 36
ARM GAS  /tmp/ccxt1UfV.s 			page 68


 2949 0506 43F08053 		orr	r3, r3, #268435456
 2950 050a 1360     		str	r3, [r2]
 2951              	.L126:
 876:STM32Cube_FW_N6/Drivers/STM32N6xx_HAL_Driver/Src/stm32n6xx_ll_usb.c ****       }
 877:STM32Cube_FW_N6/Drivers/STM32N6xx_HAL_Driver/Src/stm32n6xx_ll_usb.c ****     }
 878:STM32Cube_FW_N6/Drivers/STM32N6xx_HAL_Driver/Src/stm32n6xx_ll_usb.c ****     /* EP enable */
 879:STM32Cube_FW_N6/Drivers/STM32N6xx_HAL_Driver/Src/stm32n6xx_ll_usb.c ****     USBx_OUTEP(epnum)->DOEPCTL |= (USB_OTG_DOEPCTL_CNAK | USB_OTG_DOEPCTL_EPENA);
 2952              		.loc 1 879 22
 2953 050c BB69     		ldr	r3, [r7, #24]
 2954 050e 5A01     		lsls	r2, r3, #5
 2955 0510 FB69     		ldr	r3, [r7, #28]
 2956 0512 1344     		add	r3, r3, r2
 2957 0514 03F53063 		add	r3, r3, #2816
 2958 0518 1B68     		ldr	r3, [r3]
 2959 051a BA69     		ldr	r2, [r7, #24]
 2960 051c 5101     		lsls	r1, r2, #5
 2961 051e FA69     		ldr	r2, [r7, #28]
 2962 0520 0A44     		add	r2, r2, r1
 2963 0522 02F53062 		add	r2, r2, #2816
 2964              		.loc 1 879 32
 2965 0526 43F00443 		orr	r3, r3, #-2080374784
 2966 052a 1360     		str	r3, [r2]
 2967              	.L117:
 880:STM32Cube_FW_N6/Drivers/STM32N6xx_HAL_Driver/Src/stm32n6xx_ll_usb.c ****   }
 881:STM32Cube_FW_N6/Drivers/STM32N6xx_HAL_Driver/Src/stm32n6xx_ll_usb.c **** 
 882:STM32Cube_FW_N6/Drivers/STM32N6xx_HAL_Driver/Src/stm32n6xx_ll_usb.c ****   return HAL_OK;
 2968              		.loc 1 882 10
 2969 052c 0023     		movs	r3, #0
 883:STM32Cube_FW_N6/Drivers/STM32N6xx_HAL_Driver/Src/stm32n6xx_ll_usb.c **** }
 2970              		.loc 1 883 1
 2971 052e 1846     		mov	r0, r3
 2972 0530 2037     		adds	r7, r7, #32
 2973              		.cfi_def_cfa_offset 8
 2974 0532 BD46     		mov	sp, r7
 2975              		.cfi_def_cfa_register 13
 2976              		@ sp needed
 2977 0534 80BD     		pop	{r7, pc}
 2978              	.L132:
 2979 0536 00BF     		.align	2
 2980              	.L131:
 2981 0538 0000F81F 		.word	536346624
 2982              		.cfi_endproc
 2983              	.LFE849:
 2985              		.section	.text.USB_EPStopXfer,"ax",%progbits
 2986              		.align	1
 2987              		.global	USB_EPStopXfer
 2988              		.syntax unified
 2989              		.thumb
 2990              		.thumb_func
 2992              	USB_EPStopXfer:
 2993              	.LFB850:
 884:STM32Cube_FW_N6/Drivers/STM32N6xx_HAL_Driver/Src/stm32n6xx_ll_usb.c **** 
 885:STM32Cube_FW_N6/Drivers/STM32N6xx_HAL_Driver/Src/stm32n6xx_ll_usb.c **** 
 886:STM32Cube_FW_N6/Drivers/STM32N6xx_HAL_Driver/Src/stm32n6xx_ll_usb.c **** /**
 887:STM32Cube_FW_N6/Drivers/STM32N6xx_HAL_Driver/Src/stm32n6xx_ll_usb.c ****    * @brief  USB_EPStoptXfer  Stop transfer on an EP
 888:STM32Cube_FW_N6/Drivers/STM32N6xx_HAL_Driver/Src/stm32n6xx_ll_usb.c ****    * @param  USBx  usb device instance
 889:STM32Cube_FW_N6/Drivers/STM32N6xx_HAL_Driver/Src/stm32n6xx_ll_usb.c ****    * @param  ep pointer to endpoint structure
ARM GAS  /tmp/ccxt1UfV.s 			page 69


 890:STM32Cube_FW_N6/Drivers/STM32N6xx_HAL_Driver/Src/stm32n6xx_ll_usb.c ****    * @retval HAL status
 891:STM32Cube_FW_N6/Drivers/STM32N6xx_HAL_Driver/Src/stm32n6xx_ll_usb.c ****    */
 892:STM32Cube_FW_N6/Drivers/STM32N6xx_HAL_Driver/Src/stm32n6xx_ll_usb.c **** HAL_StatusTypeDef USB_EPStopXfer(const USB_OTG_GlobalTypeDef *USBx, USB_OTG_EPTypeDef *ep)
 893:STM32Cube_FW_N6/Drivers/STM32N6xx_HAL_Driver/Src/stm32n6xx_ll_usb.c **** {
 2994              		.loc 1 893 1
 2995              		.cfi_startproc
 2996              		@ args = 0, pretend = 0, frame = 24
 2997              		@ frame_needed = 1, uses_anonymous_args = 0
 2998              		@ link register save eliminated.
 2999 0000 80B4     		push	{r7}
 3000              		.cfi_def_cfa_offset 4
 3001              		.cfi_offset 7, -4
 3002 0002 87B0     		sub	sp, sp, #28
 3003              		.cfi_def_cfa_offset 32
 3004 0004 00AF     		add	r7, sp, #0
 3005              		.cfi_def_cfa_register 7
 3006 0006 7860     		str	r0, [r7, #4]
 3007 0008 3960     		str	r1, [r7]
 894:STM32Cube_FW_N6/Drivers/STM32N6xx_HAL_Driver/Src/stm32n6xx_ll_usb.c ****   __IO uint32_t count = 0U;
 3008              		.loc 1 894 17
 3009 000a 0023     		movs	r3, #0
 3010 000c FB60     		str	r3, [r7, #12]
 895:STM32Cube_FW_N6/Drivers/STM32N6xx_HAL_Driver/Src/stm32n6xx_ll_usb.c ****   HAL_StatusTypeDef ret = HAL_OK;
 3011              		.loc 1 895 21
 3012 000e 0023     		movs	r3, #0
 3013 0010 FB75     		strb	r3, [r7, #23]
 896:STM32Cube_FW_N6/Drivers/STM32N6xx_HAL_Driver/Src/stm32n6xx_ll_usb.c ****   uint32_t USBx_BASE = (uint32_t)USBx;
 3014              		.loc 1 896 12
 3015 0012 7B68     		ldr	r3, [r7, #4]
 3016 0014 3B61     		str	r3, [r7, #16]
 897:STM32Cube_FW_N6/Drivers/STM32N6xx_HAL_Driver/Src/stm32n6xx_ll_usb.c **** 
 898:STM32Cube_FW_N6/Drivers/STM32N6xx_HAL_Driver/Src/stm32n6xx_ll_usb.c ****   /* IN endpoint */
 899:STM32Cube_FW_N6/Drivers/STM32N6xx_HAL_Driver/Src/stm32n6xx_ll_usb.c ****   if (ep->is_in == 1U)
 3017              		.loc 1 899 9
 3018 0016 3B68     		ldr	r3, [r7]
 3019 0018 5B78     		ldrb	r3, [r3, #1]	@ zero_extendqisi2
 3020              		.loc 1 899 6
 3021 001a 012B     		cmp	r3, #1
 3022 001c 4AD1     		bne	.L134
 900:STM32Cube_FW_N6/Drivers/STM32N6xx_HAL_Driver/Src/stm32n6xx_ll_usb.c ****   {
 901:STM32Cube_FW_N6/Drivers/STM32N6xx_HAL_Driver/Src/stm32n6xx_ll_usb.c ****     /* EP enable, IN data in FIFO */
 902:STM32Cube_FW_N6/Drivers/STM32N6xx_HAL_Driver/Src/stm32n6xx_ll_usb.c ****     if (((USBx_INEP(ep->num)->DIEPCTL) & USB_OTG_DIEPCTL_EPENA) == USB_OTG_DIEPCTL_EPENA)
 3023              		.loc 1 902 11
 3024 001e 3B68     		ldr	r3, [r7]
 3025 0020 1B78     		ldrb	r3, [r3]	@ zero_extendqisi2
 3026 0022 5A01     		lsls	r2, r3, #5
 3027 0024 3B69     		ldr	r3, [r7, #16]
 3028 0026 1344     		add	r3, r3, r2
 3029 0028 03F51063 		add	r3, r3, #2304
 3030              		.loc 1 902 29
 3031 002c 1B68     		ldr	r3, [r3]
 3032              		.loc 1 902 40
 3033 002e 03F00043 		and	r3, r3, #-2147483648
 3034              		.loc 1 902 8
 3035 0032 B3F1004F 		cmp	r3, #-2147483648
 3036 0036 40F08680 		bne	.L138
 903:STM32Cube_FW_N6/Drivers/STM32N6xx_HAL_Driver/Src/stm32n6xx_ll_usb.c ****     {
ARM GAS  /tmp/ccxt1UfV.s 			page 70


 904:STM32Cube_FW_N6/Drivers/STM32N6xx_HAL_Driver/Src/stm32n6xx_ll_usb.c ****       USBx_INEP(ep->num)->DIEPCTL |= (USB_OTG_DIEPCTL_SNAK);
 3037              		.loc 1 904 7
 3038 003a 3B68     		ldr	r3, [r7]
 3039 003c 1B78     		ldrb	r3, [r3]	@ zero_extendqisi2
 3040              		.loc 1 904 25
 3041 003e 5A01     		lsls	r2, r3, #5
 3042 0040 3B69     		ldr	r3, [r7, #16]
 3043 0042 1344     		add	r3, r3, r2
 3044 0044 03F51063 		add	r3, r3, #2304
 3045 0048 1B68     		ldr	r3, [r3]
 3046              		.loc 1 904 7
 3047 004a 3A68     		ldr	r2, [r7]
 3048 004c 1278     		ldrb	r2, [r2]	@ zero_extendqisi2
 3049              		.loc 1 904 25
 3050 004e 5101     		lsls	r1, r2, #5
 3051 0050 3A69     		ldr	r2, [r7, #16]
 3052 0052 0A44     		add	r2, r2, r1
 3053 0054 02F51062 		add	r2, r2, #2304
 3054              		.loc 1 904 35
 3055 0058 43F00063 		orr	r3, r3, #134217728
 3056 005c 1360     		str	r3, [r2]
 905:STM32Cube_FW_N6/Drivers/STM32N6xx_HAL_Driver/Src/stm32n6xx_ll_usb.c ****       USBx_INEP(ep->num)->DIEPCTL |= (USB_OTG_DIEPCTL_EPDIS);
 3057              		.loc 1 905 7
 3058 005e 3B68     		ldr	r3, [r7]
 3059 0060 1B78     		ldrb	r3, [r3]	@ zero_extendqisi2
 3060              		.loc 1 905 25
 3061 0062 5A01     		lsls	r2, r3, #5
 3062 0064 3B69     		ldr	r3, [r7, #16]
 3063 0066 1344     		add	r3, r3, r2
 3064 0068 03F51063 		add	r3, r3, #2304
 3065 006c 1B68     		ldr	r3, [r3]
 3066              		.loc 1 905 7
 3067 006e 3A68     		ldr	r2, [r7]
 3068 0070 1278     		ldrb	r2, [r2]	@ zero_extendqisi2
 3069              		.loc 1 905 25
 3070 0072 5101     		lsls	r1, r2, #5
 3071 0074 3A69     		ldr	r2, [r7, #16]
 3072 0076 0A44     		add	r2, r2, r1
 3073 0078 02F51062 		add	r2, r2, #2304
 3074              		.loc 1 905 35
 3075 007c 43F08043 		orr	r3, r3, #1073741824
 3076 0080 1360     		str	r3, [r2]
 3077              	.L137:
 906:STM32Cube_FW_N6/Drivers/STM32N6xx_HAL_Driver/Src/stm32n6xx_ll_usb.c **** 
 907:STM32Cube_FW_N6/Drivers/STM32N6xx_HAL_Driver/Src/stm32n6xx_ll_usb.c ****       do
 908:STM32Cube_FW_N6/Drivers/STM32N6xx_HAL_Driver/Src/stm32n6xx_ll_usb.c ****       {
 909:STM32Cube_FW_N6/Drivers/STM32N6xx_HAL_Driver/Src/stm32n6xx_ll_usb.c ****         count++;
 3078              		.loc 1 909 14
 3079 0082 FB68     		ldr	r3, [r7, #12]
 3080 0084 0133     		adds	r3, r3, #1
 3081 0086 FB60     		str	r3, [r7, #12]
 910:STM32Cube_FW_N6/Drivers/STM32N6xx_HAL_Driver/Src/stm32n6xx_ll_usb.c **** 
 911:STM32Cube_FW_N6/Drivers/STM32N6xx_HAL_Driver/Src/stm32n6xx_ll_usb.c ****         if (count > 10000U)
 3082              		.loc 1 911 19
 3083 0088 FB68     		ldr	r3, [r7, #12]
 3084              		.loc 1 911 12
 3085 008a 42F21072 		movw	r2, #10000
ARM GAS  /tmp/ccxt1UfV.s 			page 71


 3086 008e 9342     		cmp	r3, r2
 3087 0090 02D9     		bls	.L136
 912:STM32Cube_FW_N6/Drivers/STM32N6xx_HAL_Driver/Src/stm32n6xx_ll_usb.c ****         {
 913:STM32Cube_FW_N6/Drivers/STM32N6xx_HAL_Driver/Src/stm32n6xx_ll_usb.c ****           ret = HAL_ERROR;
 3088              		.loc 1 913 15
 3089 0092 0123     		movs	r3, #1
 3090 0094 FB75     		strb	r3, [r7, #23]
 914:STM32Cube_FW_N6/Drivers/STM32N6xx_HAL_Driver/Src/stm32n6xx_ll_usb.c ****           break;
 3091              		.loc 1 914 11
 3092 0096 56E0     		b	.L138
 3093              	.L136:
 915:STM32Cube_FW_N6/Drivers/STM32N6xx_HAL_Driver/Src/stm32n6xx_ll_usb.c ****         }
 916:STM32Cube_FW_N6/Drivers/STM32N6xx_HAL_Driver/Src/stm32n6xx_ll_usb.c ****       } while (((USBx_INEP(ep->num)->DIEPCTL) & USB_OTG_DIEPCTL_EPENA) ==  USB_OTG_DIEPCTL_EPENA);
 3094              		.loc 1 916 18
 3095 0098 3B68     		ldr	r3, [r7]
 3096 009a 1B78     		ldrb	r3, [r3]	@ zero_extendqisi2
 3097 009c 5A01     		lsls	r2, r3, #5
 3098 009e 3B69     		ldr	r3, [r7, #16]
 3099 00a0 1344     		add	r3, r3, r2
 3100 00a2 03F51063 		add	r3, r3, #2304
 3101              		.loc 1 916 36
 3102 00a6 1B68     		ldr	r3, [r3]
 3103              		.loc 1 916 47
 3104 00a8 03F00043 		and	r3, r3, #-2147483648
 3105              		.loc 1 916 72
 3106 00ac B3F1004F 		cmp	r3, #-2147483648
 3107 00b0 E7D0     		beq	.L137
 3108 00b2 48E0     		b	.L138
 3109              	.L134:
 917:STM32Cube_FW_N6/Drivers/STM32N6xx_HAL_Driver/Src/stm32n6xx_ll_usb.c ****     }
 918:STM32Cube_FW_N6/Drivers/STM32N6xx_HAL_Driver/Src/stm32n6xx_ll_usb.c ****   }
 919:STM32Cube_FW_N6/Drivers/STM32N6xx_HAL_Driver/Src/stm32n6xx_ll_usb.c ****   else /* OUT endpoint */
 920:STM32Cube_FW_N6/Drivers/STM32N6xx_HAL_Driver/Src/stm32n6xx_ll_usb.c ****   {
 921:STM32Cube_FW_N6/Drivers/STM32N6xx_HAL_Driver/Src/stm32n6xx_ll_usb.c ****     if (((USBx_OUTEP(ep->num)->DOEPCTL) & USB_OTG_DOEPCTL_EPENA) == USB_OTG_DOEPCTL_EPENA)
 3110              		.loc 1 921 11
 3111 00b4 3B68     		ldr	r3, [r7]
 3112 00b6 1B78     		ldrb	r3, [r3]	@ zero_extendqisi2
 3113 00b8 5A01     		lsls	r2, r3, #5
 3114 00ba 3B69     		ldr	r3, [r7, #16]
 3115 00bc 1344     		add	r3, r3, r2
 3116 00be 03F53063 		add	r3, r3, #2816
 3117              		.loc 1 921 30
 3118 00c2 1B68     		ldr	r3, [r3]
 3119              		.loc 1 921 41
 3120 00c4 03F00043 		and	r3, r3, #-2147483648
 3121              		.loc 1 921 8
 3122 00c8 B3F1004F 		cmp	r3, #-2147483648
 3123 00cc 3BD1     		bne	.L138
 922:STM32Cube_FW_N6/Drivers/STM32N6xx_HAL_Driver/Src/stm32n6xx_ll_usb.c ****     {
 923:STM32Cube_FW_N6/Drivers/STM32N6xx_HAL_Driver/Src/stm32n6xx_ll_usb.c ****       USBx_OUTEP(ep->num)->DOEPCTL |= (USB_OTG_DOEPCTL_SNAK);
 3124              		.loc 1 923 7
 3125 00ce 3B68     		ldr	r3, [r7]
 3126 00d0 1B78     		ldrb	r3, [r3]	@ zero_extendqisi2
 3127              		.loc 1 923 26
 3128 00d2 5A01     		lsls	r2, r3, #5
 3129 00d4 3B69     		ldr	r3, [r7, #16]
 3130 00d6 1344     		add	r3, r3, r2
ARM GAS  /tmp/ccxt1UfV.s 			page 72


 3131 00d8 03F53063 		add	r3, r3, #2816
 3132 00dc 1B68     		ldr	r3, [r3]
 3133              		.loc 1 923 7
 3134 00de 3A68     		ldr	r2, [r7]
 3135 00e0 1278     		ldrb	r2, [r2]	@ zero_extendqisi2
 3136              		.loc 1 923 26
 3137 00e2 5101     		lsls	r1, r2, #5
 3138 00e4 3A69     		ldr	r2, [r7, #16]
 3139 00e6 0A44     		add	r2, r2, r1
 3140 00e8 02F53062 		add	r2, r2, #2816
 3141              		.loc 1 923 36
 3142 00ec 43F00063 		orr	r3, r3, #134217728
 3143 00f0 1360     		str	r3, [r2]
 924:STM32Cube_FW_N6/Drivers/STM32N6xx_HAL_Driver/Src/stm32n6xx_ll_usb.c ****       USBx_OUTEP(ep->num)->DOEPCTL |= (USB_OTG_DOEPCTL_EPDIS);
 3144              		.loc 1 924 7
 3145 00f2 3B68     		ldr	r3, [r7]
 3146 00f4 1B78     		ldrb	r3, [r3]	@ zero_extendqisi2
 3147              		.loc 1 924 26
 3148 00f6 5A01     		lsls	r2, r3, #5
 3149 00f8 3B69     		ldr	r3, [r7, #16]
 3150 00fa 1344     		add	r3, r3, r2
 3151 00fc 03F53063 		add	r3, r3, #2816
 3152 0100 1B68     		ldr	r3, [r3]
 3153              		.loc 1 924 7
 3154 0102 3A68     		ldr	r2, [r7]
 3155 0104 1278     		ldrb	r2, [r2]	@ zero_extendqisi2
 3156              		.loc 1 924 26
 3157 0106 5101     		lsls	r1, r2, #5
 3158 0108 3A69     		ldr	r2, [r7, #16]
 3159 010a 0A44     		add	r2, r2, r1
 3160 010c 02F53062 		add	r2, r2, #2816
 3161              		.loc 1 924 36
 3162 0110 43F08043 		orr	r3, r3, #1073741824
 3163 0114 1360     		str	r3, [r2]
 3164              	.L140:
 925:STM32Cube_FW_N6/Drivers/STM32N6xx_HAL_Driver/Src/stm32n6xx_ll_usb.c **** 
 926:STM32Cube_FW_N6/Drivers/STM32N6xx_HAL_Driver/Src/stm32n6xx_ll_usb.c ****       do
 927:STM32Cube_FW_N6/Drivers/STM32N6xx_HAL_Driver/Src/stm32n6xx_ll_usb.c ****       {
 928:STM32Cube_FW_N6/Drivers/STM32N6xx_HAL_Driver/Src/stm32n6xx_ll_usb.c ****         count++;
 3165              		.loc 1 928 14
 3166 0116 FB68     		ldr	r3, [r7, #12]
 3167 0118 0133     		adds	r3, r3, #1
 3168 011a FB60     		str	r3, [r7, #12]
 929:STM32Cube_FW_N6/Drivers/STM32N6xx_HAL_Driver/Src/stm32n6xx_ll_usb.c **** 
 930:STM32Cube_FW_N6/Drivers/STM32N6xx_HAL_Driver/Src/stm32n6xx_ll_usb.c ****         if (count > 10000U)
 3169              		.loc 1 930 19
 3170 011c FB68     		ldr	r3, [r7, #12]
 3171              		.loc 1 930 12
 3172 011e 42F21072 		movw	r2, #10000
 3173 0122 9342     		cmp	r3, r2
 3174 0124 02D9     		bls	.L139
 931:STM32Cube_FW_N6/Drivers/STM32N6xx_HAL_Driver/Src/stm32n6xx_ll_usb.c ****         {
 932:STM32Cube_FW_N6/Drivers/STM32N6xx_HAL_Driver/Src/stm32n6xx_ll_usb.c ****           ret = HAL_ERROR;
 3175              		.loc 1 932 15
 3176 0126 0123     		movs	r3, #1
 3177 0128 FB75     		strb	r3, [r7, #23]
 933:STM32Cube_FW_N6/Drivers/STM32N6xx_HAL_Driver/Src/stm32n6xx_ll_usb.c ****           break;
ARM GAS  /tmp/ccxt1UfV.s 			page 73


 3178              		.loc 1 933 11
 3179 012a 0CE0     		b	.L138
 3180              	.L139:
 934:STM32Cube_FW_N6/Drivers/STM32N6xx_HAL_Driver/Src/stm32n6xx_ll_usb.c ****         }
 935:STM32Cube_FW_N6/Drivers/STM32N6xx_HAL_Driver/Src/stm32n6xx_ll_usb.c ****       } while (((USBx_OUTEP(ep->num)->DOEPCTL) & USB_OTG_DOEPCTL_EPENA) ==  USB_OTG_DOEPCTL_EPENA);
 3181              		.loc 1 935 18
 3182 012c 3B68     		ldr	r3, [r7]
 3183 012e 1B78     		ldrb	r3, [r3]	@ zero_extendqisi2
 3184 0130 5A01     		lsls	r2, r3, #5
 3185 0132 3B69     		ldr	r3, [r7, #16]
 3186 0134 1344     		add	r3, r3, r2
 3187 0136 03F53063 		add	r3, r3, #2816
 3188              		.loc 1 935 37
 3189 013a 1B68     		ldr	r3, [r3]
 3190              		.loc 1 935 48
 3191 013c 03F00043 		and	r3, r3, #-2147483648
 3192              		.loc 1 935 73
 3193 0140 B3F1004F 		cmp	r3, #-2147483648
 3194 0144 E7D0     		beq	.L140
 3195              	.L138:
 936:STM32Cube_FW_N6/Drivers/STM32N6xx_HAL_Driver/Src/stm32n6xx_ll_usb.c ****     }
 937:STM32Cube_FW_N6/Drivers/STM32N6xx_HAL_Driver/Src/stm32n6xx_ll_usb.c ****   }
 938:STM32Cube_FW_N6/Drivers/STM32N6xx_HAL_Driver/Src/stm32n6xx_ll_usb.c **** 
 939:STM32Cube_FW_N6/Drivers/STM32N6xx_HAL_Driver/Src/stm32n6xx_ll_usb.c ****   return ret;
 3196              		.loc 1 939 10
 3197 0146 FB7D     		ldrb	r3, [r7, #23]	@ zero_extendqisi2
 940:STM32Cube_FW_N6/Drivers/STM32N6xx_HAL_Driver/Src/stm32n6xx_ll_usb.c **** }
 3198              		.loc 1 940 1
 3199 0148 1846     		mov	r0, r3
 3200 014a 1C37     		adds	r7, r7, #28
 3201              		.cfi_def_cfa_offset 4
 3202 014c BD46     		mov	sp, r7
 3203              		.cfi_def_cfa_register 13
 3204              		@ sp needed
 3205 014e 5DF8047B 		ldr	r7, [sp], #4
 3206              		.cfi_restore 7
 3207              		.cfi_def_cfa_offset 0
 3208 0152 7047     		bx	lr
 3209              		.cfi_endproc
 3210              	.LFE850:
 3212              		.section	.text.USB_WritePacket,"ax",%progbits
 3213              		.align	1
 3214              		.global	USB_WritePacket
 3215              		.syntax unified
 3216              		.thumb
 3217              		.thumb_func
 3219              	USB_WritePacket:
 3220              	.LFB851:
 941:STM32Cube_FW_N6/Drivers/STM32N6xx_HAL_Driver/Src/stm32n6xx_ll_usb.c **** 
 942:STM32Cube_FW_N6/Drivers/STM32N6xx_HAL_Driver/Src/stm32n6xx_ll_usb.c **** 
 943:STM32Cube_FW_N6/Drivers/STM32N6xx_HAL_Driver/Src/stm32n6xx_ll_usb.c **** /**
 944:STM32Cube_FW_N6/Drivers/STM32N6xx_HAL_Driver/Src/stm32n6xx_ll_usb.c ****   * @brief  USB_WritePacket : Writes a packet into the Tx FIFO associated
 945:STM32Cube_FW_N6/Drivers/STM32N6xx_HAL_Driver/Src/stm32n6xx_ll_usb.c ****   *         with the EP/channel
 946:STM32Cube_FW_N6/Drivers/STM32N6xx_HAL_Driver/Src/stm32n6xx_ll_usb.c ****   * @param  USBx  Selected device
 947:STM32Cube_FW_N6/Drivers/STM32N6xx_HAL_Driver/Src/stm32n6xx_ll_usb.c ****   * @param  src   pointer to source buffer
 948:STM32Cube_FW_N6/Drivers/STM32N6xx_HAL_Driver/Src/stm32n6xx_ll_usb.c ****   * @param  ch_ep_num  endpoint or host channel number
 949:STM32Cube_FW_N6/Drivers/STM32N6xx_HAL_Driver/Src/stm32n6xx_ll_usb.c ****   * @param  len  Number of bytes to write
ARM GAS  /tmp/ccxt1UfV.s 			page 74


 950:STM32Cube_FW_N6/Drivers/STM32N6xx_HAL_Driver/Src/stm32n6xx_ll_usb.c ****   * @param  dma USB dma enabled or disabled
 951:STM32Cube_FW_N6/Drivers/STM32N6xx_HAL_Driver/Src/stm32n6xx_ll_usb.c ****   *          This parameter can be one of these values:
 952:STM32Cube_FW_N6/Drivers/STM32N6xx_HAL_Driver/Src/stm32n6xx_ll_usb.c ****   *           0 : DMA feature not used
 953:STM32Cube_FW_N6/Drivers/STM32N6xx_HAL_Driver/Src/stm32n6xx_ll_usb.c ****   *           1 : DMA feature used
 954:STM32Cube_FW_N6/Drivers/STM32N6xx_HAL_Driver/Src/stm32n6xx_ll_usb.c ****   * @retval HAL status
 955:STM32Cube_FW_N6/Drivers/STM32N6xx_HAL_Driver/Src/stm32n6xx_ll_usb.c ****   */
 956:STM32Cube_FW_N6/Drivers/STM32N6xx_HAL_Driver/Src/stm32n6xx_ll_usb.c **** HAL_StatusTypeDef USB_WritePacket(const USB_OTG_GlobalTypeDef *USBx, uint8_t *src,
 957:STM32Cube_FW_N6/Drivers/STM32N6xx_HAL_Driver/Src/stm32n6xx_ll_usb.c ****                                   uint8_t ch_ep_num, uint16_t len, uint8_t dma)
 958:STM32Cube_FW_N6/Drivers/STM32N6xx_HAL_Driver/Src/stm32n6xx_ll_usb.c **** {
 3221              		.loc 1 958 1
 3222              		.cfi_startproc
 3223              		@ args = 4, pretend = 0, frame = 32
 3224              		@ frame_needed = 1, uses_anonymous_args = 0
 3225              		@ link register save eliminated.
 3226 0000 80B4     		push	{r7}
 3227              		.cfi_def_cfa_offset 4
 3228              		.cfi_offset 7, -4
 3229 0002 89B0     		sub	sp, sp, #36
 3230              		.cfi_def_cfa_offset 40
 3231 0004 00AF     		add	r7, sp, #0
 3232              		.cfi_def_cfa_register 7
 3233 0006 F860     		str	r0, [r7, #12]
 3234 0008 B960     		str	r1, [r7, #8]
 3235 000a 1146     		mov	r1, r2
 3236 000c 1A46     		mov	r2, r3
 3237 000e 0B46     		mov	r3, r1
 3238 0010 FB71     		strb	r3, [r7, #7]
 3239 0012 1346     		mov	r3, r2	@ movhi
 3240 0014 BB80     		strh	r3, [r7, #4]	@ movhi
 959:STM32Cube_FW_N6/Drivers/STM32N6xx_HAL_Driver/Src/stm32n6xx_ll_usb.c ****   uint32_t USBx_BASE = (uint32_t)USBx;
 3241              		.loc 1 959 12
 3242 0016 FB68     		ldr	r3, [r7, #12]
 3243 0018 7B61     		str	r3, [r7, #20]
 960:STM32Cube_FW_N6/Drivers/STM32N6xx_HAL_Driver/Src/stm32n6xx_ll_usb.c ****   uint8_t *pSrc = src;
 3244              		.loc 1 960 12
 3245 001a BB68     		ldr	r3, [r7, #8]
 3246 001c FB61     		str	r3, [r7, #28]
 961:STM32Cube_FW_N6/Drivers/STM32N6xx_HAL_Driver/Src/stm32n6xx_ll_usb.c ****   uint32_t count32b;
 962:STM32Cube_FW_N6/Drivers/STM32N6xx_HAL_Driver/Src/stm32n6xx_ll_usb.c ****   uint32_t i;
 963:STM32Cube_FW_N6/Drivers/STM32N6xx_HAL_Driver/Src/stm32n6xx_ll_usb.c **** 
 964:STM32Cube_FW_N6/Drivers/STM32N6xx_HAL_Driver/Src/stm32n6xx_ll_usb.c ****   if (dma == 0U)
 3247              		.loc 1 964 6
 3248 001e 97F82830 		ldrb	r3, [r7, #40]	@ zero_extendqisi2
 3249 0022 002B     		cmp	r3, #0
 3250 0024 23D1     		bne	.L143
 965:STM32Cube_FW_N6/Drivers/STM32N6xx_HAL_Driver/Src/stm32n6xx_ll_usb.c ****   {
 966:STM32Cube_FW_N6/Drivers/STM32N6xx_HAL_Driver/Src/stm32n6xx_ll_usb.c ****     count32b = ((uint32_t)len + 3U) / 4U;
 3251              		.loc 1 966 17
 3252 0026 BB88     		ldrh	r3, [r7, #4]
 3253              		.loc 1 966 31
 3254 0028 0333     		adds	r3, r3, #3
 3255              		.loc 1 966 14
 3256 002a 9B08     		lsrs	r3, r3, #2
 3257 002c 3B61     		str	r3, [r7, #16]
 967:STM32Cube_FW_N6/Drivers/STM32N6xx_HAL_Driver/Src/stm32n6xx_ll_usb.c ****     for (i = 0U; i < count32b; i++)
 3258              		.loc 1 967 12
 3259 002e 0023     		movs	r3, #0
ARM GAS  /tmp/ccxt1UfV.s 			page 75


 3260 0030 BB61     		str	r3, [r7, #24]
 3261              		.loc 1 967 5
 3262 0032 18E0     		b	.L144
 3263              	.L145:
 968:STM32Cube_FW_N6/Drivers/STM32N6xx_HAL_Driver/Src/stm32n6xx_ll_usb.c ****     {
 969:STM32Cube_FW_N6/Drivers/STM32N6xx_HAL_Driver/Src/stm32n6xx_ll_usb.c ****       USBx_DFIFO((uint32_t)ch_ep_num) = __UNALIGNED_UINT32_READ(pSrc);
 3264              		.loc 1 969 7
 3265 0034 FB79     		ldrb	r3, [r7, #7]	@ zero_extendqisi2
 3266 0036 1A03     		lsls	r2, r3, #12
 3267 0038 7B69     		ldr	r3, [r7, #20]
 3268 003a 1344     		add	r3, r3, r2
 3269 003c 03F58053 		add	r3, r3, #4096
 3270 0040 1A46     		mov	r2, r3
 3271              		.loc 1 969 41
 3272 0042 FB69     		ldr	r3, [r7, #28]
 3273 0044 1B68     		ldr	r3, [r3]	@ unaligned
 3274              		.loc 1 969 39
 3275 0046 1360     		str	r3, [r2]
 970:STM32Cube_FW_N6/Drivers/STM32N6xx_HAL_Driver/Src/stm32n6xx_ll_usb.c ****       pSrc++;
 3276              		.loc 1 970 11
 3277 0048 FB69     		ldr	r3, [r7, #28]
 3278 004a 0133     		adds	r3, r3, #1
 3279 004c FB61     		str	r3, [r7, #28]
 971:STM32Cube_FW_N6/Drivers/STM32N6xx_HAL_Driver/Src/stm32n6xx_ll_usb.c ****       pSrc++;
 3280              		.loc 1 971 11
 3281 004e FB69     		ldr	r3, [r7, #28]
 3282 0050 0133     		adds	r3, r3, #1
 3283 0052 FB61     		str	r3, [r7, #28]
 972:STM32Cube_FW_N6/Drivers/STM32N6xx_HAL_Driver/Src/stm32n6xx_ll_usb.c ****       pSrc++;
 3284              		.loc 1 972 11
 3285 0054 FB69     		ldr	r3, [r7, #28]
 3286 0056 0133     		adds	r3, r3, #1
 3287 0058 FB61     		str	r3, [r7, #28]
 973:STM32Cube_FW_N6/Drivers/STM32N6xx_HAL_Driver/Src/stm32n6xx_ll_usb.c ****       pSrc++;
 3288              		.loc 1 973 11
 3289 005a FB69     		ldr	r3, [r7, #28]
 3290 005c 0133     		adds	r3, r3, #1
 3291 005e FB61     		str	r3, [r7, #28]
 967:STM32Cube_FW_N6/Drivers/STM32N6xx_HAL_Driver/Src/stm32n6xx_ll_usb.c ****     {
 3292              		.loc 1 967 33 discriminator 3
 3293 0060 BB69     		ldr	r3, [r7, #24]
 3294 0062 0133     		adds	r3, r3, #1
 3295 0064 BB61     		str	r3, [r7, #24]
 3296              	.L144:
 967:STM32Cube_FW_N6/Drivers/STM32N6xx_HAL_Driver/Src/stm32n6xx_ll_usb.c ****     {
 3297              		.loc 1 967 20 discriminator 1
 3298 0066 BA69     		ldr	r2, [r7, #24]
 3299 0068 3B69     		ldr	r3, [r7, #16]
 3300 006a 9A42     		cmp	r2, r3
 3301 006c E2D3     		bcc	.L145
 3302              	.L143:
 974:STM32Cube_FW_N6/Drivers/STM32N6xx_HAL_Driver/Src/stm32n6xx_ll_usb.c ****     }
 975:STM32Cube_FW_N6/Drivers/STM32N6xx_HAL_Driver/Src/stm32n6xx_ll_usb.c ****   }
 976:STM32Cube_FW_N6/Drivers/STM32N6xx_HAL_Driver/Src/stm32n6xx_ll_usb.c **** 
 977:STM32Cube_FW_N6/Drivers/STM32N6xx_HAL_Driver/Src/stm32n6xx_ll_usb.c ****   return HAL_OK;
 3303              		.loc 1 977 10
 3304 006e 0023     		movs	r3, #0
ARM GAS  /tmp/ccxt1UfV.s 			page 76


 978:STM32Cube_FW_N6/Drivers/STM32N6xx_HAL_Driver/Src/stm32n6xx_ll_usb.c **** }
 3305              		.loc 1 978 1
 3306 0070 1846     		mov	r0, r3
 3307 0072 2437     		adds	r7, r7, #36
 3308              		.cfi_def_cfa_offset 4
 3309 0074 BD46     		mov	sp, r7
 3310              		.cfi_def_cfa_register 13
 3311              		@ sp needed
 3312 0076 5DF8047B 		ldr	r7, [sp], #4
 3313              		.cfi_restore 7
 3314              		.cfi_def_cfa_offset 0
 3315 007a 7047     		bx	lr
 3316              		.cfi_endproc
 3317              	.LFE851:
 3319              		.section	.text.USB_ReadPacket,"ax",%progbits
 3320              		.align	1
 3321              		.global	USB_ReadPacket
 3322              		.syntax unified
 3323              		.thumb
 3324              		.thumb_func
 3326              	USB_ReadPacket:
 3327              	.LFB852:
 979:STM32Cube_FW_N6/Drivers/STM32N6xx_HAL_Driver/Src/stm32n6xx_ll_usb.c **** 
 980:STM32Cube_FW_N6/Drivers/STM32N6xx_HAL_Driver/Src/stm32n6xx_ll_usb.c **** /**
 981:STM32Cube_FW_N6/Drivers/STM32N6xx_HAL_Driver/Src/stm32n6xx_ll_usb.c ****   * @brief  USB_ReadPacket : read a packet from the RX FIFO
 982:STM32Cube_FW_N6/Drivers/STM32N6xx_HAL_Driver/Src/stm32n6xx_ll_usb.c ****   * @param  USBx  Selected device
 983:STM32Cube_FW_N6/Drivers/STM32N6xx_HAL_Driver/Src/stm32n6xx_ll_usb.c ****   * @param  dest  source pointer
 984:STM32Cube_FW_N6/Drivers/STM32N6xx_HAL_Driver/Src/stm32n6xx_ll_usb.c ****   * @param  len  Number of bytes to read
 985:STM32Cube_FW_N6/Drivers/STM32N6xx_HAL_Driver/Src/stm32n6xx_ll_usb.c ****   * @retval pointer to destination buffer
 986:STM32Cube_FW_N6/Drivers/STM32N6xx_HAL_Driver/Src/stm32n6xx_ll_usb.c ****   */
 987:STM32Cube_FW_N6/Drivers/STM32N6xx_HAL_Driver/Src/stm32n6xx_ll_usb.c **** void *USB_ReadPacket(const USB_OTG_GlobalTypeDef *USBx, uint8_t *dest, uint16_t len)
 988:STM32Cube_FW_N6/Drivers/STM32N6xx_HAL_Driver/Src/stm32n6xx_ll_usb.c **** {
 3328              		.loc 1 988 1
 3329              		.cfi_startproc
 3330              		@ args = 0, pretend = 0, frame = 40
 3331              		@ frame_needed = 1, uses_anonymous_args = 0
 3332              		@ link register save eliminated.
 3333 0000 80B4     		push	{r7}
 3334              		.cfi_def_cfa_offset 4
 3335              		.cfi_offset 7, -4
 3336 0002 8BB0     		sub	sp, sp, #44
 3337              		.cfi_def_cfa_offset 48
 3338 0004 00AF     		add	r7, sp, #0
 3339              		.cfi_def_cfa_register 7
 3340 0006 F860     		str	r0, [r7, #12]
 3341 0008 B960     		str	r1, [r7, #8]
 3342 000a 1346     		mov	r3, r2
 3343 000c FB80     		strh	r3, [r7, #6]	@ movhi
 989:STM32Cube_FW_N6/Drivers/STM32N6xx_HAL_Driver/Src/stm32n6xx_ll_usb.c ****   uint32_t USBx_BASE = (uint32_t)USBx;
 3344              		.loc 1 989 12
 3345 000e FB68     		ldr	r3, [r7, #12]
 3346 0010 BB61     		str	r3, [r7, #24]
 990:STM32Cube_FW_N6/Drivers/STM32N6xx_HAL_Driver/Src/stm32n6xx_ll_usb.c ****   uint8_t *pDest = dest;
 3347              		.loc 1 990 12
 3348 0012 BB68     		ldr	r3, [r7, #8]
 3349 0014 7B62     		str	r3, [r7, #36]
 991:STM32Cube_FW_N6/Drivers/STM32N6xx_HAL_Driver/Src/stm32n6xx_ll_usb.c ****   uint32_t pData;
ARM GAS  /tmp/ccxt1UfV.s 			page 77


 992:STM32Cube_FW_N6/Drivers/STM32N6xx_HAL_Driver/Src/stm32n6xx_ll_usb.c ****   uint32_t i;
 993:STM32Cube_FW_N6/Drivers/STM32N6xx_HAL_Driver/Src/stm32n6xx_ll_usb.c ****   uint32_t count32b = (uint32_t)len >> 2U;
 3350              		.loc 1 993 37
 3351 0016 FB88     		ldrh	r3, [r7, #6]
 3352 0018 9B08     		lsrs	r3, r3, #2
 3353 001a 9BB2     		uxth	r3, r3
 3354              		.loc 1 993 12
 3355 001c 7B61     		str	r3, [r7, #20]
 994:STM32Cube_FW_N6/Drivers/STM32N6xx_HAL_Driver/Src/stm32n6xx_ll_usb.c ****   uint16_t remaining_bytes = len % 4U;
 3356              		.loc 1 994 12
 3357 001e FB88     		ldrh	r3, [r7, #6]	@ movhi
 3358 0020 03F00303 		and	r3, r3, #3
 3359 0024 FB83     		strh	r3, [r7, #30]	@ movhi
 995:STM32Cube_FW_N6/Drivers/STM32N6xx_HAL_Driver/Src/stm32n6xx_ll_usb.c **** 
 996:STM32Cube_FW_N6/Drivers/STM32N6xx_HAL_Driver/Src/stm32n6xx_ll_usb.c ****   for (i = 0U; i < count32b; i++)
 3360              		.loc 1 996 10
 3361 0026 0023     		movs	r3, #0
 3362 0028 3B62     		str	r3, [r7, #32]
 3363              		.loc 1 996 3
 3364 002a 14E0     		b	.L148
 3365              	.L149:
 997:STM32Cube_FW_N6/Drivers/STM32N6xx_HAL_Driver/Src/stm32n6xx_ll_usb.c ****   {
 998:STM32Cube_FW_N6/Drivers/STM32N6xx_HAL_Driver/Src/stm32n6xx_ll_usb.c ****     __UNALIGNED_UINT32_WRITE(pDest, USBx_DFIFO(0U));
 3366              		.loc 1 998 5
 3367 002c BB69     		ldr	r3, [r7, #24]
 3368 002e 03F58053 		add	r3, r3, #4096
 3369 0032 1A68     		ldr	r2, [r3]
 3370 0034 7B6A     		ldr	r3, [r7, #36]
 3371 0036 1A60     		str	r2, [r3]	@ unaligned
 999:STM32Cube_FW_N6/Drivers/STM32N6xx_HAL_Driver/Src/stm32n6xx_ll_usb.c ****     pDest++;
 3372              		.loc 1 999 10
 3373 0038 7B6A     		ldr	r3, [r7, #36]
 3374 003a 0133     		adds	r3, r3, #1
 3375 003c 7B62     		str	r3, [r7, #36]
1000:STM32Cube_FW_N6/Drivers/STM32N6xx_HAL_Driver/Src/stm32n6xx_ll_usb.c ****     pDest++;
 3376              		.loc 1 1000 10
 3377 003e 7B6A     		ldr	r3, [r7, #36]
 3378 0040 0133     		adds	r3, r3, #1
 3379 0042 7B62     		str	r3, [r7, #36]
1001:STM32Cube_FW_N6/Drivers/STM32N6xx_HAL_Driver/Src/stm32n6xx_ll_usb.c ****     pDest++;
 3380              		.loc 1 1001 10
 3381 0044 7B6A     		ldr	r3, [r7, #36]
 3382 0046 0133     		adds	r3, r3, #1
 3383 0048 7B62     		str	r3, [r7, #36]
1002:STM32Cube_FW_N6/Drivers/STM32N6xx_HAL_Driver/Src/stm32n6xx_ll_usb.c ****     pDest++;
 3384              		.loc 1 1002 10
 3385 004a 7B6A     		ldr	r3, [r7, #36]
 3386 004c 0133     		adds	r3, r3, #1
 3387 004e 7B62     		str	r3, [r7, #36]
 996:STM32Cube_FW_N6/Drivers/STM32N6xx_HAL_Driver/Src/stm32n6xx_ll_usb.c ****   {
 3388              		.loc 1 996 31 discriminator 3
 3389 0050 3B6A     		ldr	r3, [r7, #32]
 3390 0052 0133     		adds	r3, r3, #1
 3391 0054 3B62     		str	r3, [r7, #32]
 3392              	.L148:
 996:STM32Cube_FW_N6/Drivers/STM32N6xx_HAL_Driver/Src/stm32n6xx_ll_usb.c ****   {
 3393              		.loc 1 996 18 discriminator 1
ARM GAS  /tmp/ccxt1UfV.s 			page 78


 3394 0056 3A6A     		ldr	r2, [r7, #32]
 3395 0058 7B69     		ldr	r3, [r7, #20]
 3396 005a 9A42     		cmp	r2, r3
 3397 005c E6D3     		bcc	.L149
1003:STM32Cube_FW_N6/Drivers/STM32N6xx_HAL_Driver/Src/stm32n6xx_ll_usb.c ****   }
1004:STM32Cube_FW_N6/Drivers/STM32N6xx_HAL_Driver/Src/stm32n6xx_ll_usb.c **** 
1005:STM32Cube_FW_N6/Drivers/STM32N6xx_HAL_Driver/Src/stm32n6xx_ll_usb.c ****   /* When Number of data is not word aligned, read the remaining byte */
1006:STM32Cube_FW_N6/Drivers/STM32N6xx_HAL_Driver/Src/stm32n6xx_ll_usb.c ****   if (remaining_bytes != 0U)
 3398              		.loc 1 1006 6
 3399 005e FB8B     		ldrh	r3, [r7, #30]
 3400 0060 002B     		cmp	r3, #0
 3401 0062 1ED0     		beq	.L150
1007:STM32Cube_FW_N6/Drivers/STM32N6xx_HAL_Driver/Src/stm32n6xx_ll_usb.c ****   {
1008:STM32Cube_FW_N6/Drivers/STM32N6xx_HAL_Driver/Src/stm32n6xx_ll_usb.c ****     i = 0U;
 3402              		.loc 1 1008 7
 3403 0064 0023     		movs	r3, #0
 3404 0066 3B62     		str	r3, [r7, #32]
1009:STM32Cube_FW_N6/Drivers/STM32N6xx_HAL_Driver/Src/stm32n6xx_ll_usb.c ****     __UNALIGNED_UINT32_WRITE(&pData, USBx_DFIFO(0U));
 3405              		.loc 1 1009 5
 3406 0068 BB69     		ldr	r3, [r7, #24]
 3407 006a 03F58053 		add	r3, r3, #4096
 3408 006e 1A46     		mov	r2, r3
 3409 0070 07F11003 		add	r3, r7, #16
 3410 0074 1268     		ldr	r2, [r2]
 3411 0076 1A60     		str	r2, [r3]	@ unaligned
 3412              	.L151:
1010:STM32Cube_FW_N6/Drivers/STM32N6xx_HAL_Driver/Src/stm32n6xx_ll_usb.c **** 
1011:STM32Cube_FW_N6/Drivers/STM32N6xx_HAL_Driver/Src/stm32n6xx_ll_usb.c ****     do
1012:STM32Cube_FW_N6/Drivers/STM32N6xx_HAL_Driver/Src/stm32n6xx_ll_usb.c ****     {
1013:STM32Cube_FW_N6/Drivers/STM32N6xx_HAL_Driver/Src/stm32n6xx_ll_usb.c ****       *(uint8_t *)pDest = (uint8_t)(pData >> (8U * (uint8_t)(i)));
 3413              		.loc 1 1013 43
 3414 0078 3A69     		ldr	r2, [r7, #16]
 3415              		.loc 1 1013 52
 3416 007a 3B6A     		ldr	r3, [r7, #32]
 3417 007c DBB2     		uxtb	r3, r3
 3418              		.loc 1 1013 50
 3419 007e DB00     		lsls	r3, r3, #3
 3420              		.loc 1 1013 43
 3421 0080 22FA03F3 		lsr	r3, r2, r3
 3422              		.loc 1 1013 27
 3423 0084 DAB2     		uxtb	r2, r3
 3424              		.loc 1 1013 25
 3425 0086 7B6A     		ldr	r3, [r7, #36]
 3426 0088 1A70     		strb	r2, [r3]
1014:STM32Cube_FW_N6/Drivers/STM32N6xx_HAL_Driver/Src/stm32n6xx_ll_usb.c ****       i++;
 3427              		.loc 1 1014 8
 3428 008a 3B6A     		ldr	r3, [r7, #32]
 3429 008c 0133     		adds	r3, r3, #1
 3430 008e 3B62     		str	r3, [r7, #32]
1015:STM32Cube_FW_N6/Drivers/STM32N6xx_HAL_Driver/Src/stm32n6xx_ll_usb.c ****       pDest++;
 3431              		.loc 1 1015 12
 3432 0090 7B6A     		ldr	r3, [r7, #36]
 3433 0092 0133     		adds	r3, r3, #1
 3434 0094 7B62     		str	r3, [r7, #36]
1016:STM32Cube_FW_N6/Drivers/STM32N6xx_HAL_Driver/Src/stm32n6xx_ll_usb.c ****       remaining_bytes--;
 3435              		.loc 1 1016 22
 3436 0096 FB8B     		ldrh	r3, [r7, #30]
ARM GAS  /tmp/ccxt1UfV.s 			page 79


 3437 0098 013B     		subs	r3, r3, #1
 3438 009a FB83     		strh	r3, [r7, #30]	@ movhi
1017:STM32Cube_FW_N6/Drivers/STM32N6xx_HAL_Driver/Src/stm32n6xx_ll_usb.c ****     } while (remaining_bytes != 0U);
 3439              		.loc 1 1017 30 discriminator 1
 3440 009c FB8B     		ldrh	r3, [r7, #30]
 3441 009e 002B     		cmp	r3, #0
 3442 00a0 EAD1     		bne	.L151
 3443              	.L150:
1018:STM32Cube_FW_N6/Drivers/STM32N6xx_HAL_Driver/Src/stm32n6xx_ll_usb.c ****   }
1019:STM32Cube_FW_N6/Drivers/STM32N6xx_HAL_Driver/Src/stm32n6xx_ll_usb.c **** 
1020:STM32Cube_FW_N6/Drivers/STM32N6xx_HAL_Driver/Src/stm32n6xx_ll_usb.c ****   return ((void *)pDest);
 3444              		.loc 1 1020 11
 3445 00a2 7B6A     		ldr	r3, [r7, #36]
1021:STM32Cube_FW_N6/Drivers/STM32N6xx_HAL_Driver/Src/stm32n6xx_ll_usb.c **** }
 3446              		.loc 1 1021 1
 3447 00a4 1846     		mov	r0, r3
 3448 00a6 2C37     		adds	r7, r7, #44
 3449              		.cfi_def_cfa_offset 4
 3450 00a8 BD46     		mov	sp, r7
 3451              		.cfi_def_cfa_register 13
 3452              		@ sp needed
 3453 00aa 5DF8047B 		ldr	r7, [sp], #4
 3454              		.cfi_restore 7
 3455              		.cfi_def_cfa_offset 0
 3456 00ae 7047     		bx	lr
 3457              		.cfi_endproc
 3458              	.LFE852:
 3460              		.section	.text.USB_EPSetStall,"ax",%progbits
 3461              		.align	1
 3462              		.global	USB_EPSetStall
 3463              		.syntax unified
 3464              		.thumb
 3465              		.thumb_func
 3467              	USB_EPSetStall:
 3468              	.LFB853:
1022:STM32Cube_FW_N6/Drivers/STM32N6xx_HAL_Driver/Src/stm32n6xx_ll_usb.c **** 
1023:STM32Cube_FW_N6/Drivers/STM32N6xx_HAL_Driver/Src/stm32n6xx_ll_usb.c **** /**
1024:STM32Cube_FW_N6/Drivers/STM32N6xx_HAL_Driver/Src/stm32n6xx_ll_usb.c ****   * @brief  USB_EPSetStall : set a stall condition over an EP
1025:STM32Cube_FW_N6/Drivers/STM32N6xx_HAL_Driver/Src/stm32n6xx_ll_usb.c ****   * @param  USBx  Selected device
1026:STM32Cube_FW_N6/Drivers/STM32N6xx_HAL_Driver/Src/stm32n6xx_ll_usb.c ****   * @param  ep pointer to endpoint structure
1027:STM32Cube_FW_N6/Drivers/STM32N6xx_HAL_Driver/Src/stm32n6xx_ll_usb.c ****   * @retval HAL status
1028:STM32Cube_FW_N6/Drivers/STM32N6xx_HAL_Driver/Src/stm32n6xx_ll_usb.c ****   */
1029:STM32Cube_FW_N6/Drivers/STM32N6xx_HAL_Driver/Src/stm32n6xx_ll_usb.c **** HAL_StatusTypeDef USB_EPSetStall(const USB_OTG_GlobalTypeDef *USBx, const USB_OTG_EPTypeDef *ep)
1030:STM32Cube_FW_N6/Drivers/STM32N6xx_HAL_Driver/Src/stm32n6xx_ll_usb.c **** {
 3469              		.loc 1 1030 1
 3470              		.cfi_startproc
 3471              		@ args = 0, pretend = 0, frame = 16
 3472              		@ frame_needed = 1, uses_anonymous_args = 0
 3473              		@ link register save eliminated.
 3474 0000 80B4     		push	{r7}
 3475              		.cfi_def_cfa_offset 4
 3476              		.cfi_offset 7, -4
 3477 0002 85B0     		sub	sp, sp, #20
 3478              		.cfi_def_cfa_offset 24
 3479 0004 00AF     		add	r7, sp, #0
 3480              		.cfi_def_cfa_register 7
 3481 0006 7860     		str	r0, [r7, #4]
ARM GAS  /tmp/ccxt1UfV.s 			page 80


 3482 0008 3960     		str	r1, [r7]
1031:STM32Cube_FW_N6/Drivers/STM32N6xx_HAL_Driver/Src/stm32n6xx_ll_usb.c ****   uint32_t USBx_BASE = (uint32_t)USBx;
 3483              		.loc 1 1031 12
 3484 000a 7B68     		ldr	r3, [r7, #4]
 3485 000c FB60     		str	r3, [r7, #12]
1032:STM32Cube_FW_N6/Drivers/STM32N6xx_HAL_Driver/Src/stm32n6xx_ll_usb.c ****   uint32_t epnum = (uint32_t)ep->num;
 3486              		.loc 1 1032 32
 3487 000e 3B68     		ldr	r3, [r7]
 3488 0010 1B78     		ldrb	r3, [r3]	@ zero_extendqisi2
 3489              		.loc 1 1032 12
 3490 0012 BB60     		str	r3, [r7, #8]
1033:STM32Cube_FW_N6/Drivers/STM32N6xx_HAL_Driver/Src/stm32n6xx_ll_usb.c **** 
1034:STM32Cube_FW_N6/Drivers/STM32N6xx_HAL_Driver/Src/stm32n6xx_ll_usb.c ****   if (ep->is_in == 1U)
 3491              		.loc 1 1034 9
 3492 0014 3B68     		ldr	r3, [r7]
 3493 0016 5B78     		ldrb	r3, [r3, #1]	@ zero_extendqisi2
 3494              		.loc 1 1034 6
 3495 0018 012B     		cmp	r3, #1
 3496 001a 2CD1     		bne	.L154
1035:STM32Cube_FW_N6/Drivers/STM32N6xx_HAL_Driver/Src/stm32n6xx_ll_usb.c ****   {
1036:STM32Cube_FW_N6/Drivers/STM32N6xx_HAL_Driver/Src/stm32n6xx_ll_usb.c ****     if (((USBx_INEP(epnum)->DIEPCTL & USB_OTG_DIEPCTL_EPENA) == 0U) && (epnum != 0U))
 3497              		.loc 1 1036 11
 3498 001c BB68     		ldr	r3, [r7, #8]
 3499 001e 5A01     		lsls	r2, r3, #5
 3500 0020 FB68     		ldr	r3, [r7, #12]
 3501 0022 1344     		add	r3, r3, r2
 3502 0024 03F51063 		add	r3, r3, #2304
 3503              		.loc 1 1036 27
 3504 0028 1B68     		ldr	r3, [r3]
 3505              		.loc 1 1036 8
 3506 002a 002B     		cmp	r3, #0
 3507 002c 12DB     		blt	.L155
 3508              		.loc 1 1036 69 discriminator 1
 3509 002e BB68     		ldr	r3, [r7, #8]
 3510 0030 002B     		cmp	r3, #0
 3511 0032 0FD0     		beq	.L155
1037:STM32Cube_FW_N6/Drivers/STM32N6xx_HAL_Driver/Src/stm32n6xx_ll_usb.c ****     {
1038:STM32Cube_FW_N6/Drivers/STM32N6xx_HAL_Driver/Src/stm32n6xx_ll_usb.c ****       USBx_INEP(epnum)->DIEPCTL &= ~(USB_OTG_DIEPCTL_EPDIS);
 3512              		.loc 1 1038 23
 3513 0034 BB68     		ldr	r3, [r7, #8]
 3514 0036 5A01     		lsls	r2, r3, #5
 3515 0038 FB68     		ldr	r3, [r7, #12]
 3516 003a 1344     		add	r3, r3, r2
 3517 003c 03F51063 		add	r3, r3, #2304
 3518 0040 1B68     		ldr	r3, [r3]
 3519 0042 BA68     		ldr	r2, [r7, #8]
 3520 0044 5101     		lsls	r1, r2, #5
 3521 0046 FA68     		ldr	r2, [r7, #12]
 3522 0048 0A44     		add	r2, r2, r1
 3523 004a 02F51062 		add	r2, r2, #2304
 3524              		.loc 1 1038 33
 3525 004e 23F08043 		bic	r3, r3, #1073741824
 3526 0052 1360     		str	r3, [r2]
 3527              	.L155:
1039:STM32Cube_FW_N6/Drivers/STM32N6xx_HAL_Driver/Src/stm32n6xx_ll_usb.c ****     }
1040:STM32Cube_FW_N6/Drivers/STM32N6xx_HAL_Driver/Src/stm32n6xx_ll_usb.c ****     USBx_INEP(epnum)->DIEPCTL |= USB_OTG_DIEPCTL_STALL;
 3528              		.loc 1 1040 21
ARM GAS  /tmp/ccxt1UfV.s 			page 81


 3529 0054 BB68     		ldr	r3, [r7, #8]
 3530 0056 5A01     		lsls	r2, r3, #5
 3531 0058 FB68     		ldr	r3, [r7, #12]
 3532 005a 1344     		add	r3, r3, r2
 3533 005c 03F51063 		add	r3, r3, #2304
 3534 0060 1B68     		ldr	r3, [r3]
 3535 0062 BA68     		ldr	r2, [r7, #8]
 3536 0064 5101     		lsls	r1, r2, #5
 3537 0066 FA68     		ldr	r2, [r7, #12]
 3538 0068 0A44     		add	r2, r2, r1
 3539 006a 02F51062 		add	r2, r2, #2304
 3540              		.loc 1 1040 31
 3541 006e 43F40013 		orr	r3, r3, #2097152
 3542 0072 1360     		str	r3, [r2]
 3543 0074 2BE0     		b	.L156
 3544              	.L154:
1041:STM32Cube_FW_N6/Drivers/STM32N6xx_HAL_Driver/Src/stm32n6xx_ll_usb.c ****   }
1042:STM32Cube_FW_N6/Drivers/STM32N6xx_HAL_Driver/Src/stm32n6xx_ll_usb.c ****   else
1043:STM32Cube_FW_N6/Drivers/STM32N6xx_HAL_Driver/Src/stm32n6xx_ll_usb.c ****   {
1044:STM32Cube_FW_N6/Drivers/STM32N6xx_HAL_Driver/Src/stm32n6xx_ll_usb.c ****     if (((USBx_OUTEP(epnum)->DOEPCTL & USB_OTG_DOEPCTL_EPENA) == 0U) && (epnum != 0U))
 3545              		.loc 1 1044 11
 3546 0076 BB68     		ldr	r3, [r7, #8]
 3547 0078 5A01     		lsls	r2, r3, #5
 3548 007a FB68     		ldr	r3, [r7, #12]
 3549 007c 1344     		add	r3, r3, r2
 3550 007e 03F53063 		add	r3, r3, #2816
 3551              		.loc 1 1044 28
 3552 0082 1B68     		ldr	r3, [r3]
 3553              		.loc 1 1044 8
 3554 0084 002B     		cmp	r3, #0
 3555 0086 12DB     		blt	.L157
 3556              		.loc 1 1044 70 discriminator 1
 3557 0088 BB68     		ldr	r3, [r7, #8]
 3558 008a 002B     		cmp	r3, #0
 3559 008c 0FD0     		beq	.L157
1045:STM32Cube_FW_N6/Drivers/STM32N6xx_HAL_Driver/Src/stm32n6xx_ll_usb.c ****     {
1046:STM32Cube_FW_N6/Drivers/STM32N6xx_HAL_Driver/Src/stm32n6xx_ll_usb.c ****       USBx_OUTEP(epnum)->DOEPCTL &= ~(USB_OTG_DOEPCTL_EPDIS);
 3560              		.loc 1 1046 24
 3561 008e BB68     		ldr	r3, [r7, #8]
 3562 0090 5A01     		lsls	r2, r3, #5
 3563 0092 FB68     		ldr	r3, [r7, #12]
 3564 0094 1344     		add	r3, r3, r2
 3565 0096 03F53063 		add	r3, r3, #2816
 3566 009a 1B68     		ldr	r3, [r3]
 3567 009c BA68     		ldr	r2, [r7, #8]
 3568 009e 5101     		lsls	r1, r2, #5
 3569 00a0 FA68     		ldr	r2, [r7, #12]
 3570 00a2 0A44     		add	r2, r2, r1
 3571 00a4 02F53062 		add	r2, r2, #2816
 3572              		.loc 1 1046 34
 3573 00a8 23F08043 		bic	r3, r3, #1073741824
 3574 00ac 1360     		str	r3, [r2]
 3575              	.L157:
1047:STM32Cube_FW_N6/Drivers/STM32N6xx_HAL_Driver/Src/stm32n6xx_ll_usb.c ****     }
1048:STM32Cube_FW_N6/Drivers/STM32N6xx_HAL_Driver/Src/stm32n6xx_ll_usb.c ****     USBx_OUTEP(epnum)->DOEPCTL |= USB_OTG_DOEPCTL_STALL;
 3576              		.loc 1 1048 22
 3577 00ae BB68     		ldr	r3, [r7, #8]
ARM GAS  /tmp/ccxt1UfV.s 			page 82


 3578 00b0 5A01     		lsls	r2, r3, #5
 3579 00b2 FB68     		ldr	r3, [r7, #12]
 3580 00b4 1344     		add	r3, r3, r2
 3581 00b6 03F53063 		add	r3, r3, #2816
 3582 00ba 1B68     		ldr	r3, [r3]
 3583 00bc BA68     		ldr	r2, [r7, #8]
 3584 00be 5101     		lsls	r1, r2, #5
 3585 00c0 FA68     		ldr	r2, [r7, #12]
 3586 00c2 0A44     		add	r2, r2, r1
 3587 00c4 02F53062 		add	r2, r2, #2816
 3588              		.loc 1 1048 32
 3589 00c8 43F40013 		orr	r3, r3, #2097152
 3590 00cc 1360     		str	r3, [r2]
 3591              	.L156:
1049:STM32Cube_FW_N6/Drivers/STM32N6xx_HAL_Driver/Src/stm32n6xx_ll_usb.c ****   }
1050:STM32Cube_FW_N6/Drivers/STM32N6xx_HAL_Driver/Src/stm32n6xx_ll_usb.c **** 
1051:STM32Cube_FW_N6/Drivers/STM32N6xx_HAL_Driver/Src/stm32n6xx_ll_usb.c ****   return HAL_OK;
 3592              		.loc 1 1051 10
 3593 00ce 0023     		movs	r3, #0
1052:STM32Cube_FW_N6/Drivers/STM32N6xx_HAL_Driver/Src/stm32n6xx_ll_usb.c **** }
 3594              		.loc 1 1052 1
 3595 00d0 1846     		mov	r0, r3
 3596 00d2 1437     		adds	r7, r7, #20
 3597              		.cfi_def_cfa_offset 4
 3598 00d4 BD46     		mov	sp, r7
 3599              		.cfi_def_cfa_register 13
 3600              		@ sp needed
 3601 00d6 5DF8047B 		ldr	r7, [sp], #4
 3602              		.cfi_restore 7
 3603              		.cfi_def_cfa_offset 0
 3604 00da 7047     		bx	lr
 3605              		.cfi_endproc
 3606              	.LFE853:
 3608              		.section	.text.USB_EPClearStall,"ax",%progbits
 3609              		.align	1
 3610              		.global	USB_EPClearStall
 3611              		.syntax unified
 3612              		.thumb
 3613              		.thumb_func
 3615              	USB_EPClearStall:
 3616              	.LFB854:
1053:STM32Cube_FW_N6/Drivers/STM32N6xx_HAL_Driver/Src/stm32n6xx_ll_usb.c **** 
1054:STM32Cube_FW_N6/Drivers/STM32N6xx_HAL_Driver/Src/stm32n6xx_ll_usb.c **** /**
1055:STM32Cube_FW_N6/Drivers/STM32N6xx_HAL_Driver/Src/stm32n6xx_ll_usb.c ****   * @brief  USB_EPClearStall : Clear a stall condition over an EP
1056:STM32Cube_FW_N6/Drivers/STM32N6xx_HAL_Driver/Src/stm32n6xx_ll_usb.c ****   * @param  USBx  Selected device
1057:STM32Cube_FW_N6/Drivers/STM32N6xx_HAL_Driver/Src/stm32n6xx_ll_usb.c ****   * @param  ep pointer to endpoint structure
1058:STM32Cube_FW_N6/Drivers/STM32N6xx_HAL_Driver/Src/stm32n6xx_ll_usb.c ****   * @retval HAL status
1059:STM32Cube_FW_N6/Drivers/STM32N6xx_HAL_Driver/Src/stm32n6xx_ll_usb.c ****   */
1060:STM32Cube_FW_N6/Drivers/STM32N6xx_HAL_Driver/Src/stm32n6xx_ll_usb.c **** HAL_StatusTypeDef USB_EPClearStall(const USB_OTG_GlobalTypeDef *USBx, const USB_OTG_EPTypeDef *ep)
1061:STM32Cube_FW_N6/Drivers/STM32N6xx_HAL_Driver/Src/stm32n6xx_ll_usb.c **** {
 3617              		.loc 1 1061 1
 3618              		.cfi_startproc
 3619              		@ args = 0, pretend = 0, frame = 16
 3620              		@ frame_needed = 1, uses_anonymous_args = 0
 3621              		@ link register save eliminated.
 3622 0000 80B4     		push	{r7}
 3623              		.cfi_def_cfa_offset 4
ARM GAS  /tmp/ccxt1UfV.s 			page 83


 3624              		.cfi_offset 7, -4
 3625 0002 85B0     		sub	sp, sp, #20
 3626              		.cfi_def_cfa_offset 24
 3627 0004 00AF     		add	r7, sp, #0
 3628              		.cfi_def_cfa_register 7
 3629 0006 7860     		str	r0, [r7, #4]
 3630 0008 3960     		str	r1, [r7]
1062:STM32Cube_FW_N6/Drivers/STM32N6xx_HAL_Driver/Src/stm32n6xx_ll_usb.c ****   uint32_t USBx_BASE = (uint32_t)USBx;
 3631              		.loc 1 1062 12
 3632 000a 7B68     		ldr	r3, [r7, #4]
 3633 000c FB60     		str	r3, [r7, #12]
1063:STM32Cube_FW_N6/Drivers/STM32N6xx_HAL_Driver/Src/stm32n6xx_ll_usb.c ****   uint32_t epnum = (uint32_t)ep->num;
 3634              		.loc 1 1063 32
 3635 000e 3B68     		ldr	r3, [r7]
 3636 0010 1B78     		ldrb	r3, [r3]	@ zero_extendqisi2
 3637              		.loc 1 1063 12
 3638 0012 BB60     		str	r3, [r7, #8]
1064:STM32Cube_FW_N6/Drivers/STM32N6xx_HAL_Driver/Src/stm32n6xx_ll_usb.c **** 
1065:STM32Cube_FW_N6/Drivers/STM32N6xx_HAL_Driver/Src/stm32n6xx_ll_usb.c ****   if (ep->is_in == 1U)
 3639              		.loc 1 1065 9
 3640 0014 3B68     		ldr	r3, [r7]
 3641 0016 5B78     		ldrb	r3, [r3, #1]	@ zero_extendqisi2
 3642              		.loc 1 1065 6
 3643 0018 012B     		cmp	r3, #1
 3644 001a 28D1     		bne	.L160
1066:STM32Cube_FW_N6/Drivers/STM32N6xx_HAL_Driver/Src/stm32n6xx_ll_usb.c ****   {
1067:STM32Cube_FW_N6/Drivers/STM32N6xx_HAL_Driver/Src/stm32n6xx_ll_usb.c ****     USBx_INEP(epnum)->DIEPCTL &= ~USB_OTG_DIEPCTL_STALL;
 3645              		.loc 1 1067 21
 3646 001c BB68     		ldr	r3, [r7, #8]
 3647 001e 5A01     		lsls	r2, r3, #5
 3648 0020 FB68     		ldr	r3, [r7, #12]
 3649 0022 1344     		add	r3, r3, r2
 3650 0024 03F51063 		add	r3, r3, #2304
 3651 0028 1B68     		ldr	r3, [r3]
 3652 002a BA68     		ldr	r2, [r7, #8]
 3653 002c 5101     		lsls	r1, r2, #5
 3654 002e FA68     		ldr	r2, [r7, #12]
 3655 0030 0A44     		add	r2, r2, r1
 3656 0032 02F51062 		add	r2, r2, #2304
 3657              		.loc 1 1067 31
 3658 0036 23F40013 		bic	r3, r3, #2097152
 3659 003a 1360     		str	r3, [r2]
1068:STM32Cube_FW_N6/Drivers/STM32N6xx_HAL_Driver/Src/stm32n6xx_ll_usb.c ****     if ((ep->type == EP_TYPE_INTR) || (ep->type == EP_TYPE_BULK))
 3660              		.loc 1 1068 12
 3661 003c 3B68     		ldr	r3, [r7]
 3662 003e 1B79     		ldrb	r3, [r3, #4]	@ zero_extendqisi2
 3663              		.loc 1 1068 8
 3664 0040 032B     		cmp	r3, #3
 3665 0042 03D0     		beq	.L161
 3666              		.loc 1 1068 42 discriminator 1
 3667 0044 3B68     		ldr	r3, [r7]
 3668 0046 1B79     		ldrb	r3, [r3, #4]	@ zero_extendqisi2
 3669              		.loc 1 1068 36 discriminator 1
 3670 0048 022B     		cmp	r3, #2
 3671 004a 38D1     		bne	.L162
 3672              	.L161:
1069:STM32Cube_FW_N6/Drivers/STM32N6xx_HAL_Driver/Src/stm32n6xx_ll_usb.c ****     {
ARM GAS  /tmp/ccxt1UfV.s 			page 84


1070:STM32Cube_FW_N6/Drivers/STM32N6xx_HAL_Driver/Src/stm32n6xx_ll_usb.c ****       USBx_INEP(epnum)->DIEPCTL |= USB_OTG_DIEPCTL_SD0PID_SEVNFRM; /* DATA0 */
 3673              		.loc 1 1070 23
 3674 004c BB68     		ldr	r3, [r7, #8]
 3675 004e 5A01     		lsls	r2, r3, #5
 3676 0050 FB68     		ldr	r3, [r7, #12]
 3677 0052 1344     		add	r3, r3, r2
 3678 0054 03F51063 		add	r3, r3, #2304
 3679 0058 1B68     		ldr	r3, [r3]
 3680 005a BA68     		ldr	r2, [r7, #8]
 3681 005c 5101     		lsls	r1, r2, #5
 3682 005e FA68     		ldr	r2, [r7, #12]
 3683 0060 0A44     		add	r2, r2, r1
 3684 0062 02F51062 		add	r2, r2, #2304
 3685              		.loc 1 1070 33
 3686 0066 43F08053 		orr	r3, r3, #268435456
 3687 006a 1360     		str	r3, [r2]
 3688 006c 27E0     		b	.L162
 3689              	.L160:
1071:STM32Cube_FW_N6/Drivers/STM32N6xx_HAL_Driver/Src/stm32n6xx_ll_usb.c ****     }
1072:STM32Cube_FW_N6/Drivers/STM32N6xx_HAL_Driver/Src/stm32n6xx_ll_usb.c ****   }
1073:STM32Cube_FW_N6/Drivers/STM32N6xx_HAL_Driver/Src/stm32n6xx_ll_usb.c ****   else
1074:STM32Cube_FW_N6/Drivers/STM32N6xx_HAL_Driver/Src/stm32n6xx_ll_usb.c ****   {
1075:STM32Cube_FW_N6/Drivers/STM32N6xx_HAL_Driver/Src/stm32n6xx_ll_usb.c ****     USBx_OUTEP(epnum)->DOEPCTL &= ~USB_OTG_DOEPCTL_STALL;
 3690              		.loc 1 1075 22
 3691 006e BB68     		ldr	r3, [r7, #8]
 3692 0070 5A01     		lsls	r2, r3, #5
 3693 0072 FB68     		ldr	r3, [r7, #12]
 3694 0074 1344     		add	r3, r3, r2
 3695 0076 03F53063 		add	r3, r3, #2816
 3696 007a 1B68     		ldr	r3, [r3]
 3697 007c BA68     		ldr	r2, [r7, #8]
 3698 007e 5101     		lsls	r1, r2, #5
 3699 0080 FA68     		ldr	r2, [r7, #12]
 3700 0082 0A44     		add	r2, r2, r1
 3701 0084 02F53062 		add	r2, r2, #2816
 3702              		.loc 1 1075 32
 3703 0088 23F40013 		bic	r3, r3, #2097152
 3704 008c 1360     		str	r3, [r2]
1076:STM32Cube_FW_N6/Drivers/STM32N6xx_HAL_Driver/Src/stm32n6xx_ll_usb.c ****     if ((ep->type == EP_TYPE_INTR) || (ep->type == EP_TYPE_BULK))
 3705              		.loc 1 1076 12
 3706 008e 3B68     		ldr	r3, [r7]
 3707 0090 1B79     		ldrb	r3, [r3, #4]	@ zero_extendqisi2
 3708              		.loc 1 1076 8
 3709 0092 032B     		cmp	r3, #3
 3710 0094 03D0     		beq	.L163
 3711              		.loc 1 1076 42 discriminator 1
 3712 0096 3B68     		ldr	r3, [r7]
 3713 0098 1B79     		ldrb	r3, [r3, #4]	@ zero_extendqisi2
 3714              		.loc 1 1076 36 discriminator 1
 3715 009a 022B     		cmp	r3, #2
 3716 009c 0FD1     		bne	.L162
 3717              	.L163:
1077:STM32Cube_FW_N6/Drivers/STM32N6xx_HAL_Driver/Src/stm32n6xx_ll_usb.c ****     {
1078:STM32Cube_FW_N6/Drivers/STM32N6xx_HAL_Driver/Src/stm32n6xx_ll_usb.c ****       USBx_OUTEP(epnum)->DOEPCTL |= USB_OTG_DOEPCTL_SD0PID_SEVNFRM; /* DATA0 */
 3718              		.loc 1 1078 24
 3719 009e BB68     		ldr	r3, [r7, #8]
 3720 00a0 5A01     		lsls	r2, r3, #5
ARM GAS  /tmp/ccxt1UfV.s 			page 85


 3721 00a2 FB68     		ldr	r3, [r7, #12]
 3722 00a4 1344     		add	r3, r3, r2
 3723 00a6 03F53063 		add	r3, r3, #2816
 3724 00aa 1B68     		ldr	r3, [r3]
 3725 00ac BA68     		ldr	r2, [r7, #8]
 3726 00ae 5101     		lsls	r1, r2, #5
 3727 00b0 FA68     		ldr	r2, [r7, #12]
 3728 00b2 0A44     		add	r2, r2, r1
 3729 00b4 02F53062 		add	r2, r2, #2816
 3730              		.loc 1 1078 34
 3731 00b8 43F08053 		orr	r3, r3, #268435456
 3732 00bc 1360     		str	r3, [r2]
 3733              	.L162:
1079:STM32Cube_FW_N6/Drivers/STM32N6xx_HAL_Driver/Src/stm32n6xx_ll_usb.c ****     }
1080:STM32Cube_FW_N6/Drivers/STM32N6xx_HAL_Driver/Src/stm32n6xx_ll_usb.c ****   }
1081:STM32Cube_FW_N6/Drivers/STM32N6xx_HAL_Driver/Src/stm32n6xx_ll_usb.c ****   return HAL_OK;
 3734              		.loc 1 1081 10
 3735 00be 0023     		movs	r3, #0
1082:STM32Cube_FW_N6/Drivers/STM32N6xx_HAL_Driver/Src/stm32n6xx_ll_usb.c **** }
 3736              		.loc 1 1082 1
 3737 00c0 1846     		mov	r0, r3
 3738 00c2 1437     		adds	r7, r7, #20
 3739              		.cfi_def_cfa_offset 4
 3740 00c4 BD46     		mov	sp, r7
 3741              		.cfi_def_cfa_register 13
 3742              		@ sp needed
 3743 00c6 5DF8047B 		ldr	r7, [sp], #4
 3744              		.cfi_restore 7
 3745              		.cfi_def_cfa_offset 0
 3746 00ca 7047     		bx	lr
 3747              		.cfi_endproc
 3748              	.LFE854:
 3750              		.section	.text.USB_StopDevice,"ax",%progbits
 3751              		.align	1
 3752              		.global	USB_StopDevice
 3753              		.syntax unified
 3754              		.thumb
 3755              		.thumb_func
 3757              	USB_StopDevice:
 3758              	.LFB855:
1083:STM32Cube_FW_N6/Drivers/STM32N6xx_HAL_Driver/Src/stm32n6xx_ll_usb.c **** 
1084:STM32Cube_FW_N6/Drivers/STM32N6xx_HAL_Driver/Src/stm32n6xx_ll_usb.c **** /**
1085:STM32Cube_FW_N6/Drivers/STM32N6xx_HAL_Driver/Src/stm32n6xx_ll_usb.c ****   * @brief  USB_StopDevice : Stop the usb device mode
1086:STM32Cube_FW_N6/Drivers/STM32N6xx_HAL_Driver/Src/stm32n6xx_ll_usb.c ****   * @param  USBx  Selected device
1087:STM32Cube_FW_N6/Drivers/STM32N6xx_HAL_Driver/Src/stm32n6xx_ll_usb.c ****   * @retval HAL status
1088:STM32Cube_FW_N6/Drivers/STM32N6xx_HAL_Driver/Src/stm32n6xx_ll_usb.c ****   */
1089:STM32Cube_FW_N6/Drivers/STM32N6xx_HAL_Driver/Src/stm32n6xx_ll_usb.c **** HAL_StatusTypeDef USB_StopDevice(USB_OTG_GlobalTypeDef *USBx)
1090:STM32Cube_FW_N6/Drivers/STM32N6xx_HAL_Driver/Src/stm32n6xx_ll_usb.c **** {
 3759              		.loc 1 1090 1
 3760              		.cfi_startproc
 3761              		@ args = 0, pretend = 0, frame = 24
 3762              		@ frame_needed = 1, uses_anonymous_args = 0
 3763 0000 80B5     		push	{r7, lr}
 3764              		.cfi_def_cfa_offset 8
 3765              		.cfi_offset 7, -8
 3766              		.cfi_offset 14, -4
 3767 0002 86B0     		sub	sp, sp, #24
ARM GAS  /tmp/ccxt1UfV.s 			page 86


 3768              		.cfi_def_cfa_offset 32
 3769 0004 00AF     		add	r7, sp, #0
 3770              		.cfi_def_cfa_register 7
 3771 0006 7860     		str	r0, [r7, #4]
1091:STM32Cube_FW_N6/Drivers/STM32N6xx_HAL_Driver/Src/stm32n6xx_ll_usb.c ****   HAL_StatusTypeDef ret;
1092:STM32Cube_FW_N6/Drivers/STM32N6xx_HAL_Driver/Src/stm32n6xx_ll_usb.c ****   uint32_t USBx_BASE = (uint32_t)USBx;
 3772              		.loc 1 1092 12
 3773 0008 7B68     		ldr	r3, [r7, #4]
 3774 000a 3B61     		str	r3, [r7, #16]
1093:STM32Cube_FW_N6/Drivers/STM32N6xx_HAL_Driver/Src/stm32n6xx_ll_usb.c ****   uint32_t i;
1094:STM32Cube_FW_N6/Drivers/STM32N6xx_HAL_Driver/Src/stm32n6xx_ll_usb.c **** 
1095:STM32Cube_FW_N6/Drivers/STM32N6xx_HAL_Driver/Src/stm32n6xx_ll_usb.c ****   /* Clear Pending interrupt */
1096:STM32Cube_FW_N6/Drivers/STM32N6xx_HAL_Driver/Src/stm32n6xx_ll_usb.c ****   for (i = 0U; i < 15U; i++)
 3775              		.loc 1 1096 10
 3776 000c 0023     		movs	r3, #0
 3777 000e 7B61     		str	r3, [r7, #20]
 3778              		.loc 1 1096 3
 3779 0010 16E0     		b	.L166
 3780              	.L167:
1097:STM32Cube_FW_N6/Drivers/STM32N6xx_HAL_Driver/Src/stm32n6xx_ll_usb.c ****   {
1098:STM32Cube_FW_N6/Drivers/STM32N6xx_HAL_Driver/Src/stm32n6xx_ll_usb.c ****     USBx_INEP(i)->DIEPINT = 0xFB7FU;
 3781              		.loc 1 1098 5
 3782 0012 7B69     		ldr	r3, [r7, #20]
 3783 0014 5A01     		lsls	r2, r3, #5
 3784 0016 3B69     		ldr	r3, [r7, #16]
 3785 0018 1344     		add	r3, r3, r2
 3786 001a 03F51063 		add	r3, r3, #2304
 3787 001e 1A46     		mov	r2, r3
 3788              		.loc 1 1098 27
 3789 0020 4FF67F33 		movw	r3, #64383
 3790 0024 9360     		str	r3, [r2, #8]
1099:STM32Cube_FW_N6/Drivers/STM32N6xx_HAL_Driver/Src/stm32n6xx_ll_usb.c ****     USBx_OUTEP(i)->DOEPINT = 0xFB7FU;
 3791              		.loc 1 1099 5
 3792 0026 7B69     		ldr	r3, [r7, #20]
 3793 0028 5A01     		lsls	r2, r3, #5
 3794 002a 3B69     		ldr	r3, [r7, #16]
 3795 002c 1344     		add	r3, r3, r2
 3796 002e 03F53063 		add	r3, r3, #2816
 3797 0032 1A46     		mov	r2, r3
 3798              		.loc 1 1099 28
 3799 0034 4FF67F33 		movw	r3, #64383
 3800 0038 9360     		str	r3, [r2, #8]
1096:STM32Cube_FW_N6/Drivers/STM32N6xx_HAL_Driver/Src/stm32n6xx_ll_usb.c ****   {
 3801              		.loc 1 1096 26 discriminator 3
 3802 003a 7B69     		ldr	r3, [r7, #20]
 3803 003c 0133     		adds	r3, r3, #1
 3804 003e 7B61     		str	r3, [r7, #20]
 3805              	.L166:
1096:STM32Cube_FW_N6/Drivers/STM32N6xx_HAL_Driver/Src/stm32n6xx_ll_usb.c ****   {
 3806              		.loc 1 1096 18 discriminator 1
 3807 0040 7B69     		ldr	r3, [r7, #20]
 3808 0042 0E2B     		cmp	r3, #14
 3809 0044 E5D9     		bls	.L167
1100:STM32Cube_FW_N6/Drivers/STM32N6xx_HAL_Driver/Src/stm32n6xx_ll_usb.c ****   }
1101:STM32Cube_FW_N6/Drivers/STM32N6xx_HAL_Driver/Src/stm32n6xx_ll_usb.c **** 
1102:STM32Cube_FW_N6/Drivers/STM32N6xx_HAL_Driver/Src/stm32n6xx_ll_usb.c ****   /* Clear interrupt masks */
1103:STM32Cube_FW_N6/Drivers/STM32N6xx_HAL_Driver/Src/stm32n6xx_ll_usb.c ****   USBx_DEVICE->DIEPMSK  = 0U;
ARM GAS  /tmp/ccxt1UfV.s 			page 87


 3810              		.loc 1 1103 3
 3811 0046 3B69     		ldr	r3, [r7, #16]
 3812 0048 03F50063 		add	r3, r3, #2048
 3813 004c 1A46     		mov	r2, r3
 3814              		.loc 1 1103 25
 3815 004e 0023     		movs	r3, #0
 3816 0050 1361     		str	r3, [r2, #16]
1104:STM32Cube_FW_N6/Drivers/STM32N6xx_HAL_Driver/Src/stm32n6xx_ll_usb.c ****   USBx_DEVICE->DOEPMSK  = 0U;
 3817              		.loc 1 1104 3
 3818 0052 3B69     		ldr	r3, [r7, #16]
 3819 0054 03F50063 		add	r3, r3, #2048
 3820 0058 1A46     		mov	r2, r3
 3821              		.loc 1 1104 25
 3822 005a 0023     		movs	r3, #0
 3823 005c 5361     		str	r3, [r2, #20]
1105:STM32Cube_FW_N6/Drivers/STM32N6xx_HAL_Driver/Src/stm32n6xx_ll_usb.c ****   USBx_DEVICE->DAINTMSK = 0U;
 3824              		.loc 1 1105 3
 3825 005e 3B69     		ldr	r3, [r7, #16]
 3826 0060 03F50063 		add	r3, r3, #2048
 3827 0064 1A46     		mov	r2, r3
 3828              		.loc 1 1105 25
 3829 0066 0023     		movs	r3, #0
 3830 0068 D361     		str	r3, [r2, #28]
1106:STM32Cube_FW_N6/Drivers/STM32N6xx_HAL_Driver/Src/stm32n6xx_ll_usb.c **** 
1107:STM32Cube_FW_N6/Drivers/STM32N6xx_HAL_Driver/Src/stm32n6xx_ll_usb.c ****   /* Flush the FIFO */
1108:STM32Cube_FW_N6/Drivers/STM32N6xx_HAL_Driver/Src/stm32n6xx_ll_usb.c ****   ret = USB_FlushRxFifo(USBx);
 3831              		.loc 1 1108 9
 3832 006a 7868     		ldr	r0, [r7, #4]
 3833 006c FFF7FEFF 		bl	USB_FlushRxFifo
 3834 0070 0346     		mov	r3, r0
 3835 0072 FB73     		strb	r3, [r7, #15]
1109:STM32Cube_FW_N6/Drivers/STM32N6xx_HAL_Driver/Src/stm32n6xx_ll_usb.c ****   if (ret != HAL_OK)
 3836              		.loc 1 1109 6
 3837 0074 FB7B     		ldrb	r3, [r7, #15]	@ zero_extendqisi2
 3838 0076 002B     		cmp	r3, #0
 3839 0078 01D0     		beq	.L168
1110:STM32Cube_FW_N6/Drivers/STM32N6xx_HAL_Driver/Src/stm32n6xx_ll_usb.c ****   {
1111:STM32Cube_FW_N6/Drivers/STM32N6xx_HAL_Driver/Src/stm32n6xx_ll_usb.c ****     return ret;
 3840              		.loc 1 1111 12
 3841 007a FB7B     		ldrb	r3, [r7, #15]	@ zero_extendqisi2
 3842 007c 0BE0     		b	.L169
 3843              	.L168:
1112:STM32Cube_FW_N6/Drivers/STM32N6xx_HAL_Driver/Src/stm32n6xx_ll_usb.c ****   }
1113:STM32Cube_FW_N6/Drivers/STM32N6xx_HAL_Driver/Src/stm32n6xx_ll_usb.c **** 
1114:STM32Cube_FW_N6/Drivers/STM32N6xx_HAL_Driver/Src/stm32n6xx_ll_usb.c ****   ret = USB_FlushTxFifo(USBx,  0x10U);
 3844              		.loc 1 1114 9
 3845 007e 1021     		movs	r1, #16
 3846 0080 7868     		ldr	r0, [r7, #4]
 3847 0082 FFF7FEFF 		bl	USB_FlushTxFifo
 3848 0086 0346     		mov	r3, r0
 3849 0088 FB73     		strb	r3, [r7, #15]
1115:STM32Cube_FW_N6/Drivers/STM32N6xx_HAL_Driver/Src/stm32n6xx_ll_usb.c ****   if (ret != HAL_OK)
 3850              		.loc 1 1115 6
 3851 008a FB7B     		ldrb	r3, [r7, #15]	@ zero_extendqisi2
 3852 008c 002B     		cmp	r3, #0
 3853 008e 01D0     		beq	.L170
1116:STM32Cube_FW_N6/Drivers/STM32N6xx_HAL_Driver/Src/stm32n6xx_ll_usb.c ****   {
ARM GAS  /tmp/ccxt1UfV.s 			page 88


1117:STM32Cube_FW_N6/Drivers/STM32N6xx_HAL_Driver/Src/stm32n6xx_ll_usb.c ****     return ret;
 3854              		.loc 1 1117 12
 3855 0090 FB7B     		ldrb	r3, [r7, #15]	@ zero_extendqisi2
 3856 0092 00E0     		b	.L169
 3857              	.L170:
1118:STM32Cube_FW_N6/Drivers/STM32N6xx_HAL_Driver/Src/stm32n6xx_ll_usb.c ****   }
1119:STM32Cube_FW_N6/Drivers/STM32N6xx_HAL_Driver/Src/stm32n6xx_ll_usb.c **** 
1120:STM32Cube_FW_N6/Drivers/STM32N6xx_HAL_Driver/Src/stm32n6xx_ll_usb.c ****   return ret;
 3858              		.loc 1 1120 10
 3859 0094 FB7B     		ldrb	r3, [r7, #15]	@ zero_extendqisi2
 3860              	.L169:
1121:STM32Cube_FW_N6/Drivers/STM32N6xx_HAL_Driver/Src/stm32n6xx_ll_usb.c **** }
 3861              		.loc 1 1121 1
 3862 0096 1846     		mov	r0, r3
 3863 0098 1837     		adds	r7, r7, #24
 3864              		.cfi_def_cfa_offset 8
 3865 009a BD46     		mov	sp, r7
 3866              		.cfi_def_cfa_register 13
 3867              		@ sp needed
 3868 009c 80BD     		pop	{r7, pc}
 3869              		.cfi_endproc
 3870              	.LFE855:
 3872              		.section	.text.USB_SetDevAddress,"ax",%progbits
 3873              		.align	1
 3874              		.global	USB_SetDevAddress
 3875              		.syntax unified
 3876              		.thumb
 3877              		.thumb_func
 3879              	USB_SetDevAddress:
 3880              	.LFB856:
1122:STM32Cube_FW_N6/Drivers/STM32N6xx_HAL_Driver/Src/stm32n6xx_ll_usb.c **** 
1123:STM32Cube_FW_N6/Drivers/STM32N6xx_HAL_Driver/Src/stm32n6xx_ll_usb.c **** /**
1124:STM32Cube_FW_N6/Drivers/STM32N6xx_HAL_Driver/Src/stm32n6xx_ll_usb.c ****   * @brief  USB_SetDevAddress : Stop the usb device mode
1125:STM32Cube_FW_N6/Drivers/STM32N6xx_HAL_Driver/Src/stm32n6xx_ll_usb.c ****   * @param  USBx  Selected device
1126:STM32Cube_FW_N6/Drivers/STM32N6xx_HAL_Driver/Src/stm32n6xx_ll_usb.c ****   * @param  address  new device address to be assigned
1127:STM32Cube_FW_N6/Drivers/STM32N6xx_HAL_Driver/Src/stm32n6xx_ll_usb.c ****   *          This parameter can be a value from 0 to 255
1128:STM32Cube_FW_N6/Drivers/STM32N6xx_HAL_Driver/Src/stm32n6xx_ll_usb.c ****   * @retval HAL status
1129:STM32Cube_FW_N6/Drivers/STM32N6xx_HAL_Driver/Src/stm32n6xx_ll_usb.c ****   */
1130:STM32Cube_FW_N6/Drivers/STM32N6xx_HAL_Driver/Src/stm32n6xx_ll_usb.c **** HAL_StatusTypeDef USB_SetDevAddress(const USB_OTG_GlobalTypeDef *USBx, uint8_t address)
1131:STM32Cube_FW_N6/Drivers/STM32N6xx_HAL_Driver/Src/stm32n6xx_ll_usb.c **** {
 3881              		.loc 1 1131 1
 3882              		.cfi_startproc
 3883              		@ args = 0, pretend = 0, frame = 16
 3884              		@ frame_needed = 1, uses_anonymous_args = 0
 3885              		@ link register save eliminated.
 3886 0000 80B4     		push	{r7}
 3887              		.cfi_def_cfa_offset 4
 3888              		.cfi_offset 7, -4
 3889 0002 85B0     		sub	sp, sp, #20
 3890              		.cfi_def_cfa_offset 24
 3891 0004 00AF     		add	r7, sp, #0
 3892              		.cfi_def_cfa_register 7
 3893 0006 7860     		str	r0, [r7, #4]
 3894 0008 0B46     		mov	r3, r1
 3895 000a FB70     		strb	r3, [r7, #3]
1132:STM32Cube_FW_N6/Drivers/STM32N6xx_HAL_Driver/Src/stm32n6xx_ll_usb.c ****   uint32_t USBx_BASE = (uint32_t)USBx;
 3896              		.loc 1 1132 12
ARM GAS  /tmp/ccxt1UfV.s 			page 89


 3897 000c 7B68     		ldr	r3, [r7, #4]
 3898 000e FB60     		str	r3, [r7, #12]
1133:STM32Cube_FW_N6/Drivers/STM32N6xx_HAL_Driver/Src/stm32n6xx_ll_usb.c **** 
1134:STM32Cube_FW_N6/Drivers/STM32N6xx_HAL_Driver/Src/stm32n6xx_ll_usb.c ****   USBx_DEVICE->DCFG &= ~(USB_OTG_DCFG_DAD);
 3899              		.loc 1 1134 14
 3900 0010 FB68     		ldr	r3, [r7, #12]
 3901 0012 03F50063 		add	r3, r3, #2048
 3902 0016 1B68     		ldr	r3, [r3]
 3903 0018 FA68     		ldr	r2, [r7, #12]
 3904 001a 02F50062 		add	r2, r2, #2048
 3905              		.loc 1 1134 21
 3906 001e 23F4FE63 		bic	r3, r3, #2032
 3907 0022 1360     		str	r3, [r2]
1135:STM32Cube_FW_N6/Drivers/STM32N6xx_HAL_Driver/Src/stm32n6xx_ll_usb.c ****   USBx_DEVICE->DCFG |= ((uint32_t)address << 4) & USB_OTG_DCFG_DAD;
 3908              		.loc 1 1135 14
 3909 0024 FB68     		ldr	r3, [r7, #12]
 3910 0026 03F50063 		add	r3, r3, #2048
 3911 002a 1A68     		ldr	r2, [r3]
 3912              		.loc 1 1135 25
 3913 002c FB78     		ldrb	r3, [r7, #3]	@ zero_extendqisi2
 3914              		.loc 1 1135 43
 3915 002e 1B01     		lsls	r3, r3, #4
 3916              		.loc 1 1135 49
 3917 0030 03F4FE63 		and	r3, r3, #2032
 3918              		.loc 1 1135 14
 3919 0034 F968     		ldr	r1, [r7, #12]
 3920 0036 01F50061 		add	r1, r1, #2048
 3921              		.loc 1 1135 21
 3922 003a 1343     		orrs	r3, r3, r2
 3923 003c 0B60     		str	r3, [r1]
1136:STM32Cube_FW_N6/Drivers/STM32N6xx_HAL_Driver/Src/stm32n6xx_ll_usb.c **** 
1137:STM32Cube_FW_N6/Drivers/STM32N6xx_HAL_Driver/Src/stm32n6xx_ll_usb.c ****   return HAL_OK;
 3924              		.loc 1 1137 10
 3925 003e 0023     		movs	r3, #0
1138:STM32Cube_FW_N6/Drivers/STM32N6xx_HAL_Driver/Src/stm32n6xx_ll_usb.c **** }
 3926              		.loc 1 1138 1
 3927 0040 1846     		mov	r0, r3
 3928 0042 1437     		adds	r7, r7, #20
 3929              		.cfi_def_cfa_offset 4
 3930 0044 BD46     		mov	sp, r7
 3931              		.cfi_def_cfa_register 13
 3932              		@ sp needed
 3933 0046 5DF8047B 		ldr	r7, [sp], #4
 3934              		.cfi_restore 7
 3935              		.cfi_def_cfa_offset 0
 3936 004a 7047     		bx	lr
 3937              		.cfi_endproc
 3938              	.LFE856:
 3940              		.section	.text.USB_DevConnect,"ax",%progbits
 3941              		.align	1
 3942              		.global	USB_DevConnect
 3943              		.syntax unified
 3944              		.thumb
 3945              		.thumb_func
 3947              	USB_DevConnect:
 3948              	.LFB857:
1139:STM32Cube_FW_N6/Drivers/STM32N6xx_HAL_Driver/Src/stm32n6xx_ll_usb.c **** 
ARM GAS  /tmp/ccxt1UfV.s 			page 90


1140:STM32Cube_FW_N6/Drivers/STM32N6xx_HAL_Driver/Src/stm32n6xx_ll_usb.c **** /**
1141:STM32Cube_FW_N6/Drivers/STM32N6xx_HAL_Driver/Src/stm32n6xx_ll_usb.c ****   * @brief  USB_DevConnect : Connect the USB device by enabling Rpu
1142:STM32Cube_FW_N6/Drivers/STM32N6xx_HAL_Driver/Src/stm32n6xx_ll_usb.c ****   * @param  USBx  Selected device
1143:STM32Cube_FW_N6/Drivers/STM32N6xx_HAL_Driver/Src/stm32n6xx_ll_usb.c ****   * @retval HAL status
1144:STM32Cube_FW_N6/Drivers/STM32N6xx_HAL_Driver/Src/stm32n6xx_ll_usb.c ****   */
1145:STM32Cube_FW_N6/Drivers/STM32N6xx_HAL_Driver/Src/stm32n6xx_ll_usb.c **** HAL_StatusTypeDef USB_DevConnect(const USB_OTG_GlobalTypeDef *USBx)
1146:STM32Cube_FW_N6/Drivers/STM32N6xx_HAL_Driver/Src/stm32n6xx_ll_usb.c **** {
 3949              		.loc 1 1146 1
 3950              		.cfi_startproc
 3951              		@ args = 0, pretend = 0, frame = 16
 3952              		@ frame_needed = 1, uses_anonymous_args = 0
 3953              		@ link register save eliminated.
 3954 0000 80B4     		push	{r7}
 3955              		.cfi_def_cfa_offset 4
 3956              		.cfi_offset 7, -4
 3957 0002 85B0     		sub	sp, sp, #20
 3958              		.cfi_def_cfa_offset 24
 3959 0004 00AF     		add	r7, sp, #0
 3960              		.cfi_def_cfa_register 7
 3961 0006 7860     		str	r0, [r7, #4]
1147:STM32Cube_FW_N6/Drivers/STM32N6xx_HAL_Driver/Src/stm32n6xx_ll_usb.c ****   uint32_t USBx_BASE = (uint32_t)USBx;
 3962              		.loc 1 1147 12
 3963 0008 7B68     		ldr	r3, [r7, #4]
 3964 000a FB60     		str	r3, [r7, #12]
1148:STM32Cube_FW_N6/Drivers/STM32N6xx_HAL_Driver/Src/stm32n6xx_ll_usb.c **** 
1149:STM32Cube_FW_N6/Drivers/STM32N6xx_HAL_Driver/Src/stm32n6xx_ll_usb.c ****   /* In case phy is stopped, ensure to ungate and restore the phy CLK */
1150:STM32Cube_FW_N6/Drivers/STM32N6xx_HAL_Driver/Src/stm32n6xx_ll_usb.c ****   USBx_PCGCCTL &= ~(USB_OTG_PCGCCTL_STOPCLK | USB_OTG_PCGCCTL_GATECLK);
 3965              		.loc 1 1150 3
 3966 000c FB68     		ldr	r3, [r7, #12]
 3967 000e 03F56063 		add	r3, r3, #3584
 3968 0012 1B68     		ldr	r3, [r3]
 3969 0014 FA68     		ldr	r2, [r7, #12]
 3970 0016 02F56062 		add	r2, r2, #3584
 3971              		.loc 1 1150 16
 3972 001a 23F00303 		bic	r3, r3, #3
 3973 001e 1360     		str	r3, [r2]
1151:STM32Cube_FW_N6/Drivers/STM32N6xx_HAL_Driver/Src/stm32n6xx_ll_usb.c **** 
1152:STM32Cube_FW_N6/Drivers/STM32N6xx_HAL_Driver/Src/stm32n6xx_ll_usb.c ****   USBx_DEVICE->DCTL &= ~USB_OTG_DCTL_SDIS;
 3974              		.loc 1 1152 14
 3975 0020 FB68     		ldr	r3, [r7, #12]
 3976 0022 03F50063 		add	r3, r3, #2048
 3977 0026 5B68     		ldr	r3, [r3, #4]
 3978 0028 FA68     		ldr	r2, [r7, #12]
 3979 002a 02F50062 		add	r2, r2, #2048
 3980              		.loc 1 1152 21
 3981 002e 23F00203 		bic	r3, r3, #2
 3982 0032 5360     		str	r3, [r2, #4]
1153:STM32Cube_FW_N6/Drivers/STM32N6xx_HAL_Driver/Src/stm32n6xx_ll_usb.c **** 
1154:STM32Cube_FW_N6/Drivers/STM32N6xx_HAL_Driver/Src/stm32n6xx_ll_usb.c ****   return HAL_OK;
 3983              		.loc 1 1154 10
 3984 0034 0023     		movs	r3, #0
1155:STM32Cube_FW_N6/Drivers/STM32N6xx_HAL_Driver/Src/stm32n6xx_ll_usb.c **** }
 3985              		.loc 1 1155 1
 3986 0036 1846     		mov	r0, r3
 3987 0038 1437     		adds	r7, r7, #20
 3988              		.cfi_def_cfa_offset 4
 3989 003a BD46     		mov	sp, r7
ARM GAS  /tmp/ccxt1UfV.s 			page 91


 3990              		.cfi_def_cfa_register 13
 3991              		@ sp needed
 3992 003c 5DF8047B 		ldr	r7, [sp], #4
 3993              		.cfi_restore 7
 3994              		.cfi_def_cfa_offset 0
 3995 0040 7047     		bx	lr
 3996              		.cfi_endproc
 3997              	.LFE857:
 3999              		.section	.text.USB_DevDisconnect,"ax",%progbits
 4000              		.align	1
 4001              		.global	USB_DevDisconnect
 4002              		.syntax unified
 4003              		.thumb
 4004              		.thumb_func
 4006              	USB_DevDisconnect:
 4007              	.LFB858:
1156:STM32Cube_FW_N6/Drivers/STM32N6xx_HAL_Driver/Src/stm32n6xx_ll_usb.c **** 
1157:STM32Cube_FW_N6/Drivers/STM32N6xx_HAL_Driver/Src/stm32n6xx_ll_usb.c **** /**
1158:STM32Cube_FW_N6/Drivers/STM32N6xx_HAL_Driver/Src/stm32n6xx_ll_usb.c ****   * @brief  USB_DevDisconnect : Disconnect the USB device by disabling Rpu
1159:STM32Cube_FW_N6/Drivers/STM32N6xx_HAL_Driver/Src/stm32n6xx_ll_usb.c ****   * @param  USBx  Selected device
1160:STM32Cube_FW_N6/Drivers/STM32N6xx_HAL_Driver/Src/stm32n6xx_ll_usb.c ****   * @retval HAL status
1161:STM32Cube_FW_N6/Drivers/STM32N6xx_HAL_Driver/Src/stm32n6xx_ll_usb.c ****   */
1162:STM32Cube_FW_N6/Drivers/STM32N6xx_HAL_Driver/Src/stm32n6xx_ll_usb.c **** HAL_StatusTypeDef USB_DevDisconnect(const USB_OTG_GlobalTypeDef *USBx)
1163:STM32Cube_FW_N6/Drivers/STM32N6xx_HAL_Driver/Src/stm32n6xx_ll_usb.c **** {
 4008              		.loc 1 1163 1
 4009              		.cfi_startproc
 4010              		@ args = 0, pretend = 0, frame = 16
 4011              		@ frame_needed = 1, uses_anonymous_args = 0
 4012              		@ link register save eliminated.
 4013 0000 80B4     		push	{r7}
 4014              		.cfi_def_cfa_offset 4
 4015              		.cfi_offset 7, -4
 4016 0002 85B0     		sub	sp, sp, #20
 4017              		.cfi_def_cfa_offset 24
 4018 0004 00AF     		add	r7, sp, #0
 4019              		.cfi_def_cfa_register 7
 4020 0006 7860     		str	r0, [r7, #4]
1164:STM32Cube_FW_N6/Drivers/STM32N6xx_HAL_Driver/Src/stm32n6xx_ll_usb.c ****   uint32_t USBx_BASE = (uint32_t)USBx;
 4021              		.loc 1 1164 12
 4022 0008 7B68     		ldr	r3, [r7, #4]
 4023 000a FB60     		str	r3, [r7, #12]
1165:STM32Cube_FW_N6/Drivers/STM32N6xx_HAL_Driver/Src/stm32n6xx_ll_usb.c **** 
1166:STM32Cube_FW_N6/Drivers/STM32N6xx_HAL_Driver/Src/stm32n6xx_ll_usb.c ****   /* In case phy is stopped, ensure to ungate and restore the phy CLK */
1167:STM32Cube_FW_N6/Drivers/STM32N6xx_HAL_Driver/Src/stm32n6xx_ll_usb.c ****   USBx_PCGCCTL &= ~(USB_OTG_PCGCCTL_STOPCLK | USB_OTG_PCGCCTL_GATECLK);
 4024              		.loc 1 1167 3
 4025 000c FB68     		ldr	r3, [r7, #12]
 4026 000e 03F56063 		add	r3, r3, #3584
 4027 0012 1B68     		ldr	r3, [r3]
 4028 0014 FA68     		ldr	r2, [r7, #12]
 4029 0016 02F56062 		add	r2, r2, #3584
 4030              		.loc 1 1167 16
 4031 001a 23F00303 		bic	r3, r3, #3
 4032 001e 1360     		str	r3, [r2]
1168:STM32Cube_FW_N6/Drivers/STM32N6xx_HAL_Driver/Src/stm32n6xx_ll_usb.c **** 
1169:STM32Cube_FW_N6/Drivers/STM32N6xx_HAL_Driver/Src/stm32n6xx_ll_usb.c ****   USBx_DEVICE->DCTL |= USB_OTG_DCTL_SDIS;
 4033              		.loc 1 1169 14
 4034 0020 FB68     		ldr	r3, [r7, #12]
ARM GAS  /tmp/ccxt1UfV.s 			page 92


 4035 0022 03F50063 		add	r3, r3, #2048
 4036 0026 5B68     		ldr	r3, [r3, #4]
 4037 0028 FA68     		ldr	r2, [r7, #12]
 4038 002a 02F50062 		add	r2, r2, #2048
 4039              		.loc 1 1169 21
 4040 002e 43F00203 		orr	r3, r3, #2
 4041 0032 5360     		str	r3, [r2, #4]
1170:STM32Cube_FW_N6/Drivers/STM32N6xx_HAL_Driver/Src/stm32n6xx_ll_usb.c **** 
1171:STM32Cube_FW_N6/Drivers/STM32N6xx_HAL_Driver/Src/stm32n6xx_ll_usb.c ****   return HAL_OK;
 4042              		.loc 1 1171 10
 4043 0034 0023     		movs	r3, #0
1172:STM32Cube_FW_N6/Drivers/STM32N6xx_HAL_Driver/Src/stm32n6xx_ll_usb.c **** }
 4044              		.loc 1 1172 1
 4045 0036 1846     		mov	r0, r3
 4046 0038 1437     		adds	r7, r7, #20
 4047              		.cfi_def_cfa_offset 4
 4048 003a BD46     		mov	sp, r7
 4049              		.cfi_def_cfa_register 13
 4050              		@ sp needed
 4051 003c 5DF8047B 		ldr	r7, [sp], #4
 4052              		.cfi_restore 7
 4053              		.cfi_def_cfa_offset 0
 4054 0040 7047     		bx	lr
 4055              		.cfi_endproc
 4056              	.LFE858:
 4058              		.section	.text.USB_ReadInterrupts,"ax",%progbits
 4059              		.align	1
 4060              		.global	USB_ReadInterrupts
 4061              		.syntax unified
 4062              		.thumb
 4063              		.thumb_func
 4065              	USB_ReadInterrupts:
 4066              	.LFB859:
1173:STM32Cube_FW_N6/Drivers/STM32N6xx_HAL_Driver/Src/stm32n6xx_ll_usb.c **** 
1174:STM32Cube_FW_N6/Drivers/STM32N6xx_HAL_Driver/Src/stm32n6xx_ll_usb.c **** /**
1175:STM32Cube_FW_N6/Drivers/STM32N6xx_HAL_Driver/Src/stm32n6xx_ll_usb.c ****   * @brief  USB_ReadInterrupts: return the global USB interrupt status
1176:STM32Cube_FW_N6/Drivers/STM32N6xx_HAL_Driver/Src/stm32n6xx_ll_usb.c ****   * @param  USBx  Selected device
1177:STM32Cube_FW_N6/Drivers/STM32N6xx_HAL_Driver/Src/stm32n6xx_ll_usb.c ****   * @retval USB Global Interrupt status
1178:STM32Cube_FW_N6/Drivers/STM32N6xx_HAL_Driver/Src/stm32n6xx_ll_usb.c ****   */
1179:STM32Cube_FW_N6/Drivers/STM32N6xx_HAL_Driver/Src/stm32n6xx_ll_usb.c **** uint32_t USB_ReadInterrupts(USB_OTG_GlobalTypeDef const *USBx)
1180:STM32Cube_FW_N6/Drivers/STM32N6xx_HAL_Driver/Src/stm32n6xx_ll_usb.c **** {
 4067              		.loc 1 1180 1
 4068              		.cfi_startproc
 4069              		@ args = 0, pretend = 0, frame = 16
 4070              		@ frame_needed = 1, uses_anonymous_args = 0
 4071              		@ link register save eliminated.
 4072 0000 80B4     		push	{r7}
 4073              		.cfi_def_cfa_offset 4
 4074              		.cfi_offset 7, -4
 4075 0002 85B0     		sub	sp, sp, #20
 4076              		.cfi_def_cfa_offset 24
 4077 0004 00AF     		add	r7, sp, #0
 4078              		.cfi_def_cfa_register 7
 4079 0006 7860     		str	r0, [r7, #4]
1181:STM32Cube_FW_N6/Drivers/STM32N6xx_HAL_Driver/Src/stm32n6xx_ll_usb.c ****   uint32_t tmpreg;
1182:STM32Cube_FW_N6/Drivers/STM32N6xx_HAL_Driver/Src/stm32n6xx_ll_usb.c **** 
1183:STM32Cube_FW_N6/Drivers/STM32N6xx_HAL_Driver/Src/stm32n6xx_ll_usb.c ****   tmpreg = USBx->GINTSTS;
ARM GAS  /tmp/ccxt1UfV.s 			page 93


 4080              		.loc 1 1183 10
 4081 0008 7B68     		ldr	r3, [r7, #4]
 4082 000a 5B69     		ldr	r3, [r3, #20]
 4083 000c FB60     		str	r3, [r7, #12]
1184:STM32Cube_FW_N6/Drivers/STM32N6xx_HAL_Driver/Src/stm32n6xx_ll_usb.c ****   tmpreg &= USBx->GINTMSK;
 4084              		.loc 1 1184 17
 4085 000e 7B68     		ldr	r3, [r7, #4]
 4086 0010 9B69     		ldr	r3, [r3, #24]
 4087              		.loc 1 1184 10
 4088 0012 FA68     		ldr	r2, [r7, #12]
 4089 0014 1340     		ands	r3, r3, r2
 4090 0016 FB60     		str	r3, [r7, #12]
1185:STM32Cube_FW_N6/Drivers/STM32N6xx_HAL_Driver/Src/stm32n6xx_ll_usb.c **** 
1186:STM32Cube_FW_N6/Drivers/STM32N6xx_HAL_Driver/Src/stm32n6xx_ll_usb.c ****   return tmpreg;
 4091              		.loc 1 1186 10
 4092 0018 FB68     		ldr	r3, [r7, #12]
1187:STM32Cube_FW_N6/Drivers/STM32N6xx_HAL_Driver/Src/stm32n6xx_ll_usb.c **** }
 4093              		.loc 1 1187 1
 4094 001a 1846     		mov	r0, r3
 4095 001c 1437     		adds	r7, r7, #20
 4096              		.cfi_def_cfa_offset 4
 4097 001e BD46     		mov	sp, r7
 4098              		.cfi_def_cfa_register 13
 4099              		@ sp needed
 4100 0020 5DF8047B 		ldr	r7, [sp], #4
 4101              		.cfi_restore 7
 4102              		.cfi_def_cfa_offset 0
 4103 0024 7047     		bx	lr
 4104              		.cfi_endproc
 4105              	.LFE859:
 4107              		.section	.text.USB_ReadChInterrupts,"ax",%progbits
 4108              		.align	1
 4109              		.global	USB_ReadChInterrupts
 4110              		.syntax unified
 4111              		.thumb
 4112              		.thumb_func
 4114              	USB_ReadChInterrupts:
 4115              	.LFB860:
1188:STM32Cube_FW_N6/Drivers/STM32N6xx_HAL_Driver/Src/stm32n6xx_ll_usb.c **** 
1189:STM32Cube_FW_N6/Drivers/STM32N6xx_HAL_Driver/Src/stm32n6xx_ll_usb.c **** /**
1190:STM32Cube_FW_N6/Drivers/STM32N6xx_HAL_Driver/Src/stm32n6xx_ll_usb.c ****   * @brief  USB_ReadChInterrupts: return USB channel interrupt status
1191:STM32Cube_FW_N6/Drivers/STM32N6xx_HAL_Driver/Src/stm32n6xx_ll_usb.c ****   * @param  USBx  Selected device
1192:STM32Cube_FW_N6/Drivers/STM32N6xx_HAL_Driver/Src/stm32n6xx_ll_usb.c ****   * @param  chnum Channel number
1193:STM32Cube_FW_N6/Drivers/STM32N6xx_HAL_Driver/Src/stm32n6xx_ll_usb.c ****   * @retval USB Channel Interrupt status
1194:STM32Cube_FW_N6/Drivers/STM32N6xx_HAL_Driver/Src/stm32n6xx_ll_usb.c ****   */
1195:STM32Cube_FW_N6/Drivers/STM32N6xx_HAL_Driver/Src/stm32n6xx_ll_usb.c **** uint32_t USB_ReadChInterrupts(const USB_OTG_GlobalTypeDef *USBx, uint8_t chnum)
1196:STM32Cube_FW_N6/Drivers/STM32N6xx_HAL_Driver/Src/stm32n6xx_ll_usb.c **** {
 4116              		.loc 1 1196 1
 4117              		.cfi_startproc
 4118              		@ args = 0, pretend = 0, frame = 16
 4119              		@ frame_needed = 1, uses_anonymous_args = 0
 4120              		@ link register save eliminated.
 4121 0000 80B4     		push	{r7}
 4122              		.cfi_def_cfa_offset 4
 4123              		.cfi_offset 7, -4
 4124 0002 85B0     		sub	sp, sp, #20
 4125              		.cfi_def_cfa_offset 24
ARM GAS  /tmp/ccxt1UfV.s 			page 94


 4126 0004 00AF     		add	r7, sp, #0
 4127              		.cfi_def_cfa_register 7
 4128 0006 7860     		str	r0, [r7, #4]
 4129 0008 0B46     		mov	r3, r1
 4130 000a FB70     		strb	r3, [r7, #3]
1197:STM32Cube_FW_N6/Drivers/STM32N6xx_HAL_Driver/Src/stm32n6xx_ll_usb.c ****   uint32_t USBx_BASE = (uint32_t)USBx;
 4131              		.loc 1 1197 12
 4132 000c 7B68     		ldr	r3, [r7, #4]
 4133 000e FB60     		str	r3, [r7, #12]
1198:STM32Cube_FW_N6/Drivers/STM32N6xx_HAL_Driver/Src/stm32n6xx_ll_usb.c ****   uint32_t tmpreg;
1199:STM32Cube_FW_N6/Drivers/STM32N6xx_HAL_Driver/Src/stm32n6xx_ll_usb.c **** 
1200:STM32Cube_FW_N6/Drivers/STM32N6xx_HAL_Driver/Src/stm32n6xx_ll_usb.c ****   tmpreg = USBx_HC(chnum)->HCINT;
 4134              		.loc 1 1200 12
 4135 0010 FB78     		ldrb	r3, [r7, #3]	@ zero_extendqisi2
 4136 0012 5A01     		lsls	r2, r3, #5
 4137 0014 FB68     		ldr	r3, [r7, #12]
 4138 0016 1344     		add	r3, r3, r2
 4139 0018 03F5A063 		add	r3, r3, #1280
 4140              		.loc 1 1200 10
 4141 001c 9B68     		ldr	r3, [r3, #8]
 4142 001e BB60     		str	r3, [r7, #8]
1201:STM32Cube_FW_N6/Drivers/STM32N6xx_HAL_Driver/Src/stm32n6xx_ll_usb.c ****   tmpreg &= USBx_HC(chnum)->HCINTMSK;
 4143              		.loc 1 1201 13
 4144 0020 FB78     		ldrb	r3, [r7, #3]	@ zero_extendqisi2
 4145 0022 5A01     		lsls	r2, r3, #5
 4146 0024 FB68     		ldr	r3, [r7, #12]
 4147 0026 1344     		add	r3, r3, r2
 4148 0028 03F5A063 		add	r3, r3, #1280
 4149              		.loc 1 1201 27
 4150 002c DB68     		ldr	r3, [r3, #12]
 4151              		.loc 1 1201 10
 4152 002e BA68     		ldr	r2, [r7, #8]
 4153 0030 1340     		ands	r3, r3, r2
 4154 0032 BB60     		str	r3, [r7, #8]
1202:STM32Cube_FW_N6/Drivers/STM32N6xx_HAL_Driver/Src/stm32n6xx_ll_usb.c **** 
1203:STM32Cube_FW_N6/Drivers/STM32N6xx_HAL_Driver/Src/stm32n6xx_ll_usb.c ****   return tmpreg;
 4155              		.loc 1 1203 10
 4156 0034 BB68     		ldr	r3, [r7, #8]
1204:STM32Cube_FW_N6/Drivers/STM32N6xx_HAL_Driver/Src/stm32n6xx_ll_usb.c **** }
 4157              		.loc 1 1204 1
 4158 0036 1846     		mov	r0, r3
 4159 0038 1437     		adds	r7, r7, #20
 4160              		.cfi_def_cfa_offset 4
 4161 003a BD46     		mov	sp, r7
 4162              		.cfi_def_cfa_register 13
 4163              		@ sp needed
 4164 003c 5DF8047B 		ldr	r7, [sp], #4
 4165              		.cfi_restore 7
 4166              		.cfi_def_cfa_offset 0
 4167 0040 7047     		bx	lr
 4168              		.cfi_endproc
 4169              	.LFE860:
 4171              		.section	.text.USB_ReadDevAllOutEpInterrupt,"ax",%progbits
 4172              		.align	1
 4173              		.global	USB_ReadDevAllOutEpInterrupt
 4174              		.syntax unified
 4175              		.thumb
ARM GAS  /tmp/ccxt1UfV.s 			page 95


 4176              		.thumb_func
 4178              	USB_ReadDevAllOutEpInterrupt:
 4179              	.LFB861:
1205:STM32Cube_FW_N6/Drivers/STM32N6xx_HAL_Driver/Src/stm32n6xx_ll_usb.c **** 
1206:STM32Cube_FW_N6/Drivers/STM32N6xx_HAL_Driver/Src/stm32n6xx_ll_usb.c **** /**
1207:STM32Cube_FW_N6/Drivers/STM32N6xx_HAL_Driver/Src/stm32n6xx_ll_usb.c ****   * @brief  USB_ReadDevAllOutEpInterrupt: return the USB device OUT endpoints interrupt status
1208:STM32Cube_FW_N6/Drivers/STM32N6xx_HAL_Driver/Src/stm32n6xx_ll_usb.c ****   * @param  USBx  Selected device
1209:STM32Cube_FW_N6/Drivers/STM32N6xx_HAL_Driver/Src/stm32n6xx_ll_usb.c ****   * @retval USB Device OUT EP interrupt status
1210:STM32Cube_FW_N6/Drivers/STM32N6xx_HAL_Driver/Src/stm32n6xx_ll_usb.c ****   */
1211:STM32Cube_FW_N6/Drivers/STM32N6xx_HAL_Driver/Src/stm32n6xx_ll_usb.c **** uint32_t USB_ReadDevAllOutEpInterrupt(const USB_OTG_GlobalTypeDef *USBx)
1212:STM32Cube_FW_N6/Drivers/STM32N6xx_HAL_Driver/Src/stm32n6xx_ll_usb.c **** {
 4180              		.loc 1 1212 1
 4181              		.cfi_startproc
 4182              		@ args = 0, pretend = 0, frame = 16
 4183              		@ frame_needed = 1, uses_anonymous_args = 0
 4184              		@ link register save eliminated.
 4185 0000 80B4     		push	{r7}
 4186              		.cfi_def_cfa_offset 4
 4187              		.cfi_offset 7, -4
 4188 0002 85B0     		sub	sp, sp, #20
 4189              		.cfi_def_cfa_offset 24
 4190 0004 00AF     		add	r7, sp, #0
 4191              		.cfi_def_cfa_register 7
 4192 0006 7860     		str	r0, [r7, #4]
1213:STM32Cube_FW_N6/Drivers/STM32N6xx_HAL_Driver/Src/stm32n6xx_ll_usb.c ****   uint32_t USBx_BASE = (uint32_t)USBx;
 4193              		.loc 1 1213 12
 4194 0008 7B68     		ldr	r3, [r7, #4]
 4195 000a FB60     		str	r3, [r7, #12]
1214:STM32Cube_FW_N6/Drivers/STM32N6xx_HAL_Driver/Src/stm32n6xx_ll_usb.c ****   uint32_t tmpreg;
1215:STM32Cube_FW_N6/Drivers/STM32N6xx_HAL_Driver/Src/stm32n6xx_ll_usb.c **** 
1216:STM32Cube_FW_N6/Drivers/STM32N6xx_HAL_Driver/Src/stm32n6xx_ll_usb.c ****   tmpreg  = USBx_DEVICE->DAINT;
 4196              		.loc 1 1216 13
 4197 000c FB68     		ldr	r3, [r7, #12]
 4198 000e 03F50063 		add	r3, r3, #2048
 4199              		.loc 1 1216 11
 4200 0012 9B69     		ldr	r3, [r3, #24]
 4201 0014 BB60     		str	r3, [r7, #8]
1217:STM32Cube_FW_N6/Drivers/STM32N6xx_HAL_Driver/Src/stm32n6xx_ll_usb.c ****   tmpreg &= USBx_DEVICE->DAINTMSK;
 4202              		.loc 1 1217 13
 4203 0016 FB68     		ldr	r3, [r7, #12]
 4204 0018 03F50063 		add	r3, r3, #2048
 4205              		.loc 1 1217 24
 4206 001c DB69     		ldr	r3, [r3, #28]
 4207              		.loc 1 1217 10
 4208 001e BA68     		ldr	r2, [r7, #8]
 4209 0020 1340     		ands	r3, r3, r2
 4210 0022 BB60     		str	r3, [r7, #8]
1218:STM32Cube_FW_N6/Drivers/STM32N6xx_HAL_Driver/Src/stm32n6xx_ll_usb.c **** 
1219:STM32Cube_FW_N6/Drivers/STM32N6xx_HAL_Driver/Src/stm32n6xx_ll_usb.c ****   return ((tmpreg & 0xffff0000U) >> 16);
 4211              		.loc 1 1219 34
 4212 0024 BB68     		ldr	r3, [r7, #8]
 4213 0026 1B0C     		lsrs	r3, r3, #16
1220:STM32Cube_FW_N6/Drivers/STM32N6xx_HAL_Driver/Src/stm32n6xx_ll_usb.c **** }
 4214              		.loc 1 1220 1
 4215 0028 1846     		mov	r0, r3
 4216 002a 1437     		adds	r7, r7, #20
 4217              		.cfi_def_cfa_offset 4
ARM GAS  /tmp/ccxt1UfV.s 			page 96


 4218 002c BD46     		mov	sp, r7
 4219              		.cfi_def_cfa_register 13
 4220              		@ sp needed
 4221 002e 5DF8047B 		ldr	r7, [sp], #4
 4222              		.cfi_restore 7
 4223              		.cfi_def_cfa_offset 0
 4224 0032 7047     		bx	lr
 4225              		.cfi_endproc
 4226              	.LFE861:
 4228              		.section	.text.USB_ReadDevAllInEpInterrupt,"ax",%progbits
 4229              		.align	1
 4230              		.global	USB_ReadDevAllInEpInterrupt
 4231              		.syntax unified
 4232              		.thumb
 4233              		.thumb_func
 4235              	USB_ReadDevAllInEpInterrupt:
 4236              	.LFB862:
1221:STM32Cube_FW_N6/Drivers/STM32N6xx_HAL_Driver/Src/stm32n6xx_ll_usb.c **** 
1222:STM32Cube_FW_N6/Drivers/STM32N6xx_HAL_Driver/Src/stm32n6xx_ll_usb.c **** /**
1223:STM32Cube_FW_N6/Drivers/STM32N6xx_HAL_Driver/Src/stm32n6xx_ll_usb.c ****   * @brief  USB_ReadDevAllInEpInterrupt: return the USB device IN endpoints interrupt status
1224:STM32Cube_FW_N6/Drivers/STM32N6xx_HAL_Driver/Src/stm32n6xx_ll_usb.c ****   * @param  USBx  Selected device
1225:STM32Cube_FW_N6/Drivers/STM32N6xx_HAL_Driver/Src/stm32n6xx_ll_usb.c ****   * @retval USB Device IN EP interrupt status
1226:STM32Cube_FW_N6/Drivers/STM32N6xx_HAL_Driver/Src/stm32n6xx_ll_usb.c ****   */
1227:STM32Cube_FW_N6/Drivers/STM32N6xx_HAL_Driver/Src/stm32n6xx_ll_usb.c **** uint32_t USB_ReadDevAllInEpInterrupt(const USB_OTG_GlobalTypeDef *USBx)
1228:STM32Cube_FW_N6/Drivers/STM32N6xx_HAL_Driver/Src/stm32n6xx_ll_usb.c **** {
 4237              		.loc 1 1228 1
 4238              		.cfi_startproc
 4239              		@ args = 0, pretend = 0, frame = 16
 4240              		@ frame_needed = 1, uses_anonymous_args = 0
 4241              		@ link register save eliminated.
 4242 0000 80B4     		push	{r7}
 4243              		.cfi_def_cfa_offset 4
 4244              		.cfi_offset 7, -4
 4245 0002 85B0     		sub	sp, sp, #20
 4246              		.cfi_def_cfa_offset 24
 4247 0004 00AF     		add	r7, sp, #0
 4248              		.cfi_def_cfa_register 7
 4249 0006 7860     		str	r0, [r7, #4]
1229:STM32Cube_FW_N6/Drivers/STM32N6xx_HAL_Driver/Src/stm32n6xx_ll_usb.c ****   uint32_t USBx_BASE = (uint32_t)USBx;
 4250              		.loc 1 1229 12
 4251 0008 7B68     		ldr	r3, [r7, #4]
 4252 000a FB60     		str	r3, [r7, #12]
1230:STM32Cube_FW_N6/Drivers/STM32N6xx_HAL_Driver/Src/stm32n6xx_ll_usb.c ****   uint32_t tmpreg;
1231:STM32Cube_FW_N6/Drivers/STM32N6xx_HAL_Driver/Src/stm32n6xx_ll_usb.c **** 
1232:STM32Cube_FW_N6/Drivers/STM32N6xx_HAL_Driver/Src/stm32n6xx_ll_usb.c ****   tmpreg  = USBx_DEVICE->DAINT;
 4253              		.loc 1 1232 13
 4254 000c FB68     		ldr	r3, [r7, #12]
 4255 000e 03F50063 		add	r3, r3, #2048
 4256              		.loc 1 1232 11
 4257 0012 9B69     		ldr	r3, [r3, #24]
 4258 0014 BB60     		str	r3, [r7, #8]
1233:STM32Cube_FW_N6/Drivers/STM32N6xx_HAL_Driver/Src/stm32n6xx_ll_usb.c ****   tmpreg &= USBx_DEVICE->DAINTMSK;
 4259              		.loc 1 1233 13
 4260 0016 FB68     		ldr	r3, [r7, #12]
 4261 0018 03F50063 		add	r3, r3, #2048
 4262              		.loc 1 1233 24
 4263 001c DB69     		ldr	r3, [r3, #28]
ARM GAS  /tmp/ccxt1UfV.s 			page 97


 4264              		.loc 1 1233 10
 4265 001e BA68     		ldr	r2, [r7, #8]
 4266 0020 1340     		ands	r3, r3, r2
 4267 0022 BB60     		str	r3, [r7, #8]
1234:STM32Cube_FW_N6/Drivers/STM32N6xx_HAL_Driver/Src/stm32n6xx_ll_usb.c **** 
1235:STM32Cube_FW_N6/Drivers/STM32N6xx_HAL_Driver/Src/stm32n6xx_ll_usb.c ****   return ((tmpreg & 0xFFFFU));
 4268              		.loc 1 1235 19
 4269 0024 BB68     		ldr	r3, [r7, #8]
 4270 0026 9BB2     		uxth	r3, r3
1236:STM32Cube_FW_N6/Drivers/STM32N6xx_HAL_Driver/Src/stm32n6xx_ll_usb.c **** }
 4271              		.loc 1 1236 1
 4272 0028 1846     		mov	r0, r3
 4273 002a 1437     		adds	r7, r7, #20
 4274              		.cfi_def_cfa_offset 4
 4275 002c BD46     		mov	sp, r7
 4276              		.cfi_def_cfa_register 13
 4277              		@ sp needed
 4278 002e 5DF8047B 		ldr	r7, [sp], #4
 4279              		.cfi_restore 7
 4280              		.cfi_def_cfa_offset 0
 4281 0032 7047     		bx	lr
 4282              		.cfi_endproc
 4283              	.LFE862:
 4285              		.section	.text.USB_ReadDevOutEPInterrupt,"ax",%progbits
 4286              		.align	1
 4287              		.global	USB_ReadDevOutEPInterrupt
 4288              		.syntax unified
 4289              		.thumb
 4290              		.thumb_func
 4292              	USB_ReadDevOutEPInterrupt:
 4293              	.LFB863:
1237:STM32Cube_FW_N6/Drivers/STM32N6xx_HAL_Driver/Src/stm32n6xx_ll_usb.c **** 
1238:STM32Cube_FW_N6/Drivers/STM32N6xx_HAL_Driver/Src/stm32n6xx_ll_usb.c **** /**
1239:STM32Cube_FW_N6/Drivers/STM32N6xx_HAL_Driver/Src/stm32n6xx_ll_usb.c ****   * @brief  Returns Device OUT EP Interrupt register
1240:STM32Cube_FW_N6/Drivers/STM32N6xx_HAL_Driver/Src/stm32n6xx_ll_usb.c ****   * @param  USBx  Selected device
1241:STM32Cube_FW_N6/Drivers/STM32N6xx_HAL_Driver/Src/stm32n6xx_ll_usb.c ****   * @param  epnum  endpoint number
1242:STM32Cube_FW_N6/Drivers/STM32N6xx_HAL_Driver/Src/stm32n6xx_ll_usb.c ****   *          This parameter can be a value from 0 to 15
1243:STM32Cube_FW_N6/Drivers/STM32N6xx_HAL_Driver/Src/stm32n6xx_ll_usb.c ****   * @retval Device OUT EP Interrupt register
1244:STM32Cube_FW_N6/Drivers/STM32N6xx_HAL_Driver/Src/stm32n6xx_ll_usb.c ****   */
1245:STM32Cube_FW_N6/Drivers/STM32N6xx_HAL_Driver/Src/stm32n6xx_ll_usb.c **** uint32_t USB_ReadDevOutEPInterrupt(const USB_OTG_GlobalTypeDef *USBx, uint8_t epnum)
1246:STM32Cube_FW_N6/Drivers/STM32N6xx_HAL_Driver/Src/stm32n6xx_ll_usb.c **** {
 4294              		.loc 1 1246 1
 4295              		.cfi_startproc
 4296              		@ args = 0, pretend = 0, frame = 16
 4297              		@ frame_needed = 1, uses_anonymous_args = 0
 4298              		@ link register save eliminated.
 4299 0000 80B4     		push	{r7}
 4300              		.cfi_def_cfa_offset 4
 4301              		.cfi_offset 7, -4
 4302 0002 85B0     		sub	sp, sp, #20
 4303              		.cfi_def_cfa_offset 24
 4304 0004 00AF     		add	r7, sp, #0
 4305              		.cfi_def_cfa_register 7
 4306 0006 7860     		str	r0, [r7, #4]
 4307 0008 0B46     		mov	r3, r1
 4308 000a FB70     		strb	r3, [r7, #3]
1247:STM32Cube_FW_N6/Drivers/STM32N6xx_HAL_Driver/Src/stm32n6xx_ll_usb.c ****   uint32_t USBx_BASE = (uint32_t)USBx;
ARM GAS  /tmp/ccxt1UfV.s 			page 98


 4309              		.loc 1 1247 12
 4310 000c 7B68     		ldr	r3, [r7, #4]
 4311 000e FB60     		str	r3, [r7, #12]
1248:STM32Cube_FW_N6/Drivers/STM32N6xx_HAL_Driver/Src/stm32n6xx_ll_usb.c ****   uint32_t tmpreg;
1249:STM32Cube_FW_N6/Drivers/STM32N6xx_HAL_Driver/Src/stm32n6xx_ll_usb.c **** 
1250:STM32Cube_FW_N6/Drivers/STM32N6xx_HAL_Driver/Src/stm32n6xx_ll_usb.c ****   tmpreg  = USBx_OUTEP((uint32_t)epnum)->DOEPINT;
 4312              		.loc 1 1250 13
 4313 0010 FB78     		ldrb	r3, [r7, #3]	@ zero_extendqisi2
 4314 0012 5A01     		lsls	r2, r3, #5
 4315 0014 FB68     		ldr	r3, [r7, #12]
 4316 0016 1344     		add	r3, r3, r2
 4317 0018 03F53063 		add	r3, r3, #2816
 4318              		.loc 1 1250 11
 4319 001c 9B68     		ldr	r3, [r3, #8]
 4320 001e BB60     		str	r3, [r7, #8]
1251:STM32Cube_FW_N6/Drivers/STM32N6xx_HAL_Driver/Src/stm32n6xx_ll_usb.c ****   tmpreg &= USBx_DEVICE->DOEPMSK;
 4321              		.loc 1 1251 13
 4322 0020 FB68     		ldr	r3, [r7, #12]
 4323 0022 03F50063 		add	r3, r3, #2048
 4324              		.loc 1 1251 24
 4325 0026 5B69     		ldr	r3, [r3, #20]
 4326              		.loc 1 1251 10
 4327 0028 BA68     		ldr	r2, [r7, #8]
 4328 002a 1340     		ands	r3, r3, r2
 4329 002c BB60     		str	r3, [r7, #8]
1252:STM32Cube_FW_N6/Drivers/STM32N6xx_HAL_Driver/Src/stm32n6xx_ll_usb.c **** 
1253:STM32Cube_FW_N6/Drivers/STM32N6xx_HAL_Driver/Src/stm32n6xx_ll_usb.c ****   return tmpreg;
 4330              		.loc 1 1253 10
 4331 002e BB68     		ldr	r3, [r7, #8]
1254:STM32Cube_FW_N6/Drivers/STM32N6xx_HAL_Driver/Src/stm32n6xx_ll_usb.c **** }
 4332              		.loc 1 1254 1
 4333 0030 1846     		mov	r0, r3
 4334 0032 1437     		adds	r7, r7, #20
 4335              		.cfi_def_cfa_offset 4
 4336 0034 BD46     		mov	sp, r7
 4337              		.cfi_def_cfa_register 13
 4338              		@ sp needed
 4339 0036 5DF8047B 		ldr	r7, [sp], #4
 4340              		.cfi_restore 7
 4341              		.cfi_def_cfa_offset 0
 4342 003a 7047     		bx	lr
 4343              		.cfi_endproc
 4344              	.LFE863:
 4346              		.section	.text.USB_ReadDevInEPInterrupt,"ax",%progbits
 4347              		.align	1
 4348              		.global	USB_ReadDevInEPInterrupt
 4349              		.syntax unified
 4350              		.thumb
 4351              		.thumb_func
 4353              	USB_ReadDevInEPInterrupt:
 4354              	.LFB864:
1255:STM32Cube_FW_N6/Drivers/STM32N6xx_HAL_Driver/Src/stm32n6xx_ll_usb.c **** 
1256:STM32Cube_FW_N6/Drivers/STM32N6xx_HAL_Driver/Src/stm32n6xx_ll_usb.c **** /**
1257:STM32Cube_FW_N6/Drivers/STM32N6xx_HAL_Driver/Src/stm32n6xx_ll_usb.c ****   * @brief  Returns Device IN EP Interrupt register
1258:STM32Cube_FW_N6/Drivers/STM32N6xx_HAL_Driver/Src/stm32n6xx_ll_usb.c ****   * @param  USBx  Selected device
1259:STM32Cube_FW_N6/Drivers/STM32N6xx_HAL_Driver/Src/stm32n6xx_ll_usb.c ****   * @param  epnum  endpoint number
1260:STM32Cube_FW_N6/Drivers/STM32N6xx_HAL_Driver/Src/stm32n6xx_ll_usb.c ****   *          This parameter can be a value from 0 to 15
ARM GAS  /tmp/ccxt1UfV.s 			page 99


1261:STM32Cube_FW_N6/Drivers/STM32N6xx_HAL_Driver/Src/stm32n6xx_ll_usb.c ****   * @retval Device IN EP Interrupt register
1262:STM32Cube_FW_N6/Drivers/STM32N6xx_HAL_Driver/Src/stm32n6xx_ll_usb.c ****   */
1263:STM32Cube_FW_N6/Drivers/STM32N6xx_HAL_Driver/Src/stm32n6xx_ll_usb.c **** uint32_t USB_ReadDevInEPInterrupt(const USB_OTG_GlobalTypeDef *USBx, uint8_t epnum)
1264:STM32Cube_FW_N6/Drivers/STM32N6xx_HAL_Driver/Src/stm32n6xx_ll_usb.c **** {
 4355              		.loc 1 1264 1
 4356              		.cfi_startproc
 4357              		@ args = 0, pretend = 0, frame = 24
 4358              		@ frame_needed = 1, uses_anonymous_args = 0
 4359              		@ link register save eliminated.
 4360 0000 80B4     		push	{r7}
 4361              		.cfi_def_cfa_offset 4
 4362              		.cfi_offset 7, -4
 4363 0002 87B0     		sub	sp, sp, #28
 4364              		.cfi_def_cfa_offset 32
 4365 0004 00AF     		add	r7, sp, #0
 4366              		.cfi_def_cfa_register 7
 4367 0006 7860     		str	r0, [r7, #4]
 4368 0008 0B46     		mov	r3, r1
 4369 000a FB70     		strb	r3, [r7, #3]
1265:STM32Cube_FW_N6/Drivers/STM32N6xx_HAL_Driver/Src/stm32n6xx_ll_usb.c ****   uint32_t USBx_BASE = (uint32_t)USBx;
 4370              		.loc 1 1265 12
 4371 000c 7B68     		ldr	r3, [r7, #4]
 4372 000e 7B61     		str	r3, [r7, #20]
1266:STM32Cube_FW_N6/Drivers/STM32N6xx_HAL_Driver/Src/stm32n6xx_ll_usb.c ****   uint32_t tmpreg;
1267:STM32Cube_FW_N6/Drivers/STM32N6xx_HAL_Driver/Src/stm32n6xx_ll_usb.c ****   uint32_t msk;
1268:STM32Cube_FW_N6/Drivers/STM32N6xx_HAL_Driver/Src/stm32n6xx_ll_usb.c ****   uint32_t emp;
1269:STM32Cube_FW_N6/Drivers/STM32N6xx_HAL_Driver/Src/stm32n6xx_ll_usb.c **** 
1270:STM32Cube_FW_N6/Drivers/STM32N6xx_HAL_Driver/Src/stm32n6xx_ll_usb.c ****   msk = USBx_DEVICE->DIEPMSK;
 4373              		.loc 1 1270 9
 4374 0010 7B69     		ldr	r3, [r7, #20]
 4375 0012 03F50063 		add	r3, r3, #2048
 4376              		.loc 1 1270 7
 4377 0016 1B69     		ldr	r3, [r3, #16]
 4378 0018 3B61     		str	r3, [r7, #16]
1271:STM32Cube_FW_N6/Drivers/STM32N6xx_HAL_Driver/Src/stm32n6xx_ll_usb.c ****   emp = USBx_DEVICE->DIEPEMPMSK;
 4379              		.loc 1 1271 9
 4380 001a 7B69     		ldr	r3, [r7, #20]
 4381 001c 03F50063 		add	r3, r3, #2048
 4382              		.loc 1 1271 7
 4383 0020 5B6B     		ldr	r3, [r3, #52]
 4384 0022 FB60     		str	r3, [r7, #12]
1272:STM32Cube_FW_N6/Drivers/STM32N6xx_HAL_Driver/Src/stm32n6xx_ll_usb.c ****   msk |= ((emp >> (epnum & EP_ADDR_MSK)) & 0x1U) << 7;
 4385              		.loc 1 1272 26
 4386 0024 FB78     		ldrb	r3, [r7, #3]	@ zero_extendqisi2
 4387 0026 03F00F03 		and	r3, r3, #15
 4388              		.loc 1 1272 16
 4389 002a FA68     		ldr	r2, [r7, #12]
 4390 002c 22FA03F3 		lsr	r3, r2, r3
 4391              		.loc 1 1272 50
 4392 0030 DB01     		lsls	r3, r3, #7
 4393 0032 DBB2     		uxtb	r3, r3
 4394              		.loc 1 1272 7
 4395 0034 3A69     		ldr	r2, [r7, #16]
 4396 0036 1343     		orrs	r3, r3, r2
 4397 0038 3B61     		str	r3, [r7, #16]
1273:STM32Cube_FW_N6/Drivers/STM32N6xx_HAL_Driver/Src/stm32n6xx_ll_usb.c ****   tmpreg = USBx_INEP((uint32_t)epnum)->DIEPINT & msk;
 4398              		.loc 1 1273 12
ARM GAS  /tmp/ccxt1UfV.s 			page 100


 4399 003a FB78     		ldrb	r3, [r7, #3]	@ zero_extendqisi2
 4400 003c 5A01     		lsls	r2, r3, #5
 4401 003e 7B69     		ldr	r3, [r7, #20]
 4402 0040 1344     		add	r3, r3, r2
 4403 0042 03F51063 		add	r3, r3, #2304
 4404              		.loc 1 1273 38
 4405 0046 9B68     		ldr	r3, [r3, #8]
 4406              		.loc 1 1273 10
 4407 0048 3A69     		ldr	r2, [r7, #16]
 4408 004a 1340     		ands	r3, r3, r2
 4409 004c BB60     		str	r3, [r7, #8]
1274:STM32Cube_FW_N6/Drivers/STM32N6xx_HAL_Driver/Src/stm32n6xx_ll_usb.c **** 
1275:STM32Cube_FW_N6/Drivers/STM32N6xx_HAL_Driver/Src/stm32n6xx_ll_usb.c ****   return tmpreg;
 4410              		.loc 1 1275 10
 4411 004e BB68     		ldr	r3, [r7, #8]
1276:STM32Cube_FW_N6/Drivers/STM32N6xx_HAL_Driver/Src/stm32n6xx_ll_usb.c **** }
 4412              		.loc 1 1276 1
 4413 0050 1846     		mov	r0, r3
 4414 0052 1C37     		adds	r7, r7, #28
 4415              		.cfi_def_cfa_offset 4
 4416 0054 BD46     		mov	sp, r7
 4417              		.cfi_def_cfa_register 13
 4418              		@ sp needed
 4419 0056 5DF8047B 		ldr	r7, [sp], #4
 4420              		.cfi_restore 7
 4421              		.cfi_def_cfa_offset 0
 4422 005a 7047     		bx	lr
 4423              		.cfi_endproc
 4424              	.LFE864:
 4426              		.section	.text.USB_ClearInterrupts,"ax",%progbits
 4427              		.align	1
 4428              		.global	USB_ClearInterrupts
 4429              		.syntax unified
 4430              		.thumb
 4431              		.thumb_func
 4433              	USB_ClearInterrupts:
 4434              	.LFB865:
1277:STM32Cube_FW_N6/Drivers/STM32N6xx_HAL_Driver/Src/stm32n6xx_ll_usb.c **** 
1278:STM32Cube_FW_N6/Drivers/STM32N6xx_HAL_Driver/Src/stm32n6xx_ll_usb.c **** /**
1279:STM32Cube_FW_N6/Drivers/STM32N6xx_HAL_Driver/Src/stm32n6xx_ll_usb.c ****   * @brief  USB_ClearInterrupts: clear a USB interrupt
1280:STM32Cube_FW_N6/Drivers/STM32N6xx_HAL_Driver/Src/stm32n6xx_ll_usb.c ****   * @param  USBx  Selected device
1281:STM32Cube_FW_N6/Drivers/STM32N6xx_HAL_Driver/Src/stm32n6xx_ll_usb.c ****   * @param  interrupt  flag
1282:STM32Cube_FW_N6/Drivers/STM32N6xx_HAL_Driver/Src/stm32n6xx_ll_usb.c ****   * @retval None
1283:STM32Cube_FW_N6/Drivers/STM32N6xx_HAL_Driver/Src/stm32n6xx_ll_usb.c ****   */
1284:STM32Cube_FW_N6/Drivers/STM32N6xx_HAL_Driver/Src/stm32n6xx_ll_usb.c **** void  USB_ClearInterrupts(USB_OTG_GlobalTypeDef *USBx, uint32_t interrupt)
1285:STM32Cube_FW_N6/Drivers/STM32N6xx_HAL_Driver/Src/stm32n6xx_ll_usb.c **** {
 4435              		.loc 1 1285 1
 4436              		.cfi_startproc
 4437              		@ args = 0, pretend = 0, frame = 8
 4438              		@ frame_needed = 1, uses_anonymous_args = 0
 4439              		@ link register save eliminated.
 4440 0000 80B4     		push	{r7}
 4441              		.cfi_def_cfa_offset 4
 4442              		.cfi_offset 7, -4
 4443 0002 83B0     		sub	sp, sp, #12
 4444              		.cfi_def_cfa_offset 16
 4445 0004 00AF     		add	r7, sp, #0
ARM GAS  /tmp/ccxt1UfV.s 			page 101


 4446              		.cfi_def_cfa_register 7
 4447 0006 7860     		str	r0, [r7, #4]
 4448 0008 3960     		str	r1, [r7]
1286:STM32Cube_FW_N6/Drivers/STM32N6xx_HAL_Driver/Src/stm32n6xx_ll_usb.c ****   USBx->GINTSTS &= interrupt;
 4449              		.loc 1 1286 7
 4450 000a 7B68     		ldr	r3, [r7, #4]
 4451 000c 5A69     		ldr	r2, [r3, #20]
 4452              		.loc 1 1286 17
 4453 000e 3B68     		ldr	r3, [r7]
 4454 0010 1A40     		ands	r2, r2, r3
 4455 0012 7B68     		ldr	r3, [r7, #4]
 4456 0014 5A61     		str	r2, [r3, #20]
1287:STM32Cube_FW_N6/Drivers/STM32N6xx_HAL_Driver/Src/stm32n6xx_ll_usb.c **** }
 4457              		.loc 1 1287 1
 4458 0016 00BF     		nop
 4459 0018 0C37     		adds	r7, r7, #12
 4460              		.cfi_def_cfa_offset 4
 4461 001a BD46     		mov	sp, r7
 4462              		.cfi_def_cfa_register 13
 4463              		@ sp needed
 4464 001c 5DF8047B 		ldr	r7, [sp], #4
 4465              		.cfi_restore 7
 4466              		.cfi_def_cfa_offset 0
 4467 0020 7047     		bx	lr
 4468              		.cfi_endproc
 4469              	.LFE865:
 4471              		.section	.text.USB_GetMode,"ax",%progbits
 4472              		.align	1
 4473              		.global	USB_GetMode
 4474              		.syntax unified
 4475              		.thumb
 4476              		.thumb_func
 4478              	USB_GetMode:
 4479              	.LFB866:
1288:STM32Cube_FW_N6/Drivers/STM32N6xx_HAL_Driver/Src/stm32n6xx_ll_usb.c **** 
1289:STM32Cube_FW_N6/Drivers/STM32N6xx_HAL_Driver/Src/stm32n6xx_ll_usb.c **** /**
1290:STM32Cube_FW_N6/Drivers/STM32N6xx_HAL_Driver/Src/stm32n6xx_ll_usb.c ****   * @brief  Returns USB core mode
1291:STM32Cube_FW_N6/Drivers/STM32N6xx_HAL_Driver/Src/stm32n6xx_ll_usb.c ****   * @param  USBx  Selected device
1292:STM32Cube_FW_N6/Drivers/STM32N6xx_HAL_Driver/Src/stm32n6xx_ll_usb.c ****   * @retval return core mode : Host or Device
1293:STM32Cube_FW_N6/Drivers/STM32N6xx_HAL_Driver/Src/stm32n6xx_ll_usb.c ****   *          This parameter can be one of these values:
1294:STM32Cube_FW_N6/Drivers/STM32N6xx_HAL_Driver/Src/stm32n6xx_ll_usb.c ****   *           0 : Host
1295:STM32Cube_FW_N6/Drivers/STM32N6xx_HAL_Driver/Src/stm32n6xx_ll_usb.c ****   *           1 : Device
1296:STM32Cube_FW_N6/Drivers/STM32N6xx_HAL_Driver/Src/stm32n6xx_ll_usb.c ****   */
1297:STM32Cube_FW_N6/Drivers/STM32N6xx_HAL_Driver/Src/stm32n6xx_ll_usb.c **** uint32_t USB_GetMode(const USB_OTG_GlobalTypeDef *USBx)
1298:STM32Cube_FW_N6/Drivers/STM32N6xx_HAL_Driver/Src/stm32n6xx_ll_usb.c **** {
 4480              		.loc 1 1298 1
 4481              		.cfi_startproc
 4482              		@ args = 0, pretend = 0, frame = 8
 4483              		@ frame_needed = 1, uses_anonymous_args = 0
 4484              		@ link register save eliminated.
 4485 0000 80B4     		push	{r7}
 4486              		.cfi_def_cfa_offset 4
 4487              		.cfi_offset 7, -4
 4488 0002 83B0     		sub	sp, sp, #12
 4489              		.cfi_def_cfa_offset 16
 4490 0004 00AF     		add	r7, sp, #0
 4491              		.cfi_def_cfa_register 7
ARM GAS  /tmp/ccxt1UfV.s 			page 102


 4492 0006 7860     		str	r0, [r7, #4]
1299:STM32Cube_FW_N6/Drivers/STM32N6xx_HAL_Driver/Src/stm32n6xx_ll_usb.c ****   return ((USBx->GINTSTS) & 0x1U);
 4493              		.loc 1 1299 16
 4494 0008 7B68     		ldr	r3, [r7, #4]
 4495 000a 5B69     		ldr	r3, [r3, #20]
 4496              		.loc 1 1299 27
 4497 000c 03F00103 		and	r3, r3, #1
1300:STM32Cube_FW_N6/Drivers/STM32N6xx_HAL_Driver/Src/stm32n6xx_ll_usb.c **** }
 4498              		.loc 1 1300 1
 4499 0010 1846     		mov	r0, r3
 4500 0012 0C37     		adds	r7, r7, #12
 4501              		.cfi_def_cfa_offset 4
 4502 0014 BD46     		mov	sp, r7
 4503              		.cfi_def_cfa_register 13
 4504              		@ sp needed
 4505 0016 5DF8047B 		ldr	r7, [sp], #4
 4506              		.cfi_restore 7
 4507              		.cfi_def_cfa_offset 0
 4508 001a 7047     		bx	lr
 4509              		.cfi_endproc
 4510              	.LFE866:
 4512              		.section	.text.USB_ActivateSetup,"ax",%progbits
 4513              		.align	1
 4514              		.global	USB_ActivateSetup
 4515              		.syntax unified
 4516              		.thumb
 4517              		.thumb_func
 4519              	USB_ActivateSetup:
 4520              	.LFB867:
1301:STM32Cube_FW_N6/Drivers/STM32N6xx_HAL_Driver/Src/stm32n6xx_ll_usb.c **** 
1302:STM32Cube_FW_N6/Drivers/STM32N6xx_HAL_Driver/Src/stm32n6xx_ll_usb.c **** /**
1303:STM32Cube_FW_N6/Drivers/STM32N6xx_HAL_Driver/Src/stm32n6xx_ll_usb.c ****   * @brief  Activate EP0 for Setup transactions
1304:STM32Cube_FW_N6/Drivers/STM32N6xx_HAL_Driver/Src/stm32n6xx_ll_usb.c ****   * @param  USBx  Selected device
1305:STM32Cube_FW_N6/Drivers/STM32N6xx_HAL_Driver/Src/stm32n6xx_ll_usb.c ****   * @retval HAL status
1306:STM32Cube_FW_N6/Drivers/STM32N6xx_HAL_Driver/Src/stm32n6xx_ll_usb.c ****   */
1307:STM32Cube_FW_N6/Drivers/STM32N6xx_HAL_Driver/Src/stm32n6xx_ll_usb.c **** HAL_StatusTypeDef USB_ActivateSetup(const USB_OTG_GlobalTypeDef *USBx)
1308:STM32Cube_FW_N6/Drivers/STM32N6xx_HAL_Driver/Src/stm32n6xx_ll_usb.c **** {
 4521              		.loc 1 1308 1
 4522              		.cfi_startproc
 4523              		@ args = 0, pretend = 0, frame = 16
 4524              		@ frame_needed = 1, uses_anonymous_args = 0
 4525              		@ link register save eliminated.
 4526 0000 80B4     		push	{r7}
 4527              		.cfi_def_cfa_offset 4
 4528              		.cfi_offset 7, -4
 4529 0002 85B0     		sub	sp, sp, #20
 4530              		.cfi_def_cfa_offset 24
 4531 0004 00AF     		add	r7, sp, #0
 4532              		.cfi_def_cfa_register 7
 4533 0006 7860     		str	r0, [r7, #4]
1309:STM32Cube_FW_N6/Drivers/STM32N6xx_HAL_Driver/Src/stm32n6xx_ll_usb.c ****   uint32_t USBx_BASE = (uint32_t)USBx;
 4534              		.loc 1 1309 12
 4535 0008 7B68     		ldr	r3, [r7, #4]
 4536 000a FB60     		str	r3, [r7, #12]
1310:STM32Cube_FW_N6/Drivers/STM32N6xx_HAL_Driver/Src/stm32n6xx_ll_usb.c **** 
1311:STM32Cube_FW_N6/Drivers/STM32N6xx_HAL_Driver/Src/stm32n6xx_ll_usb.c ****   /* Set the MPS of the IN EP0 to 64 bytes */
1312:STM32Cube_FW_N6/Drivers/STM32N6xx_HAL_Driver/Src/stm32n6xx_ll_usb.c ****   USBx_INEP(0U)->DIEPCTL &= ~USB_OTG_DIEPCTL_MPSIZ;
ARM GAS  /tmp/ccxt1UfV.s 			page 103


 4537              		.loc 1 1312 16
 4538 000c FB68     		ldr	r3, [r7, #12]
 4539 000e 03F51063 		add	r3, r3, #2304
 4540 0012 1B68     		ldr	r3, [r3]
 4541 0014 FA68     		ldr	r2, [r7, #12]
 4542 0016 02F51062 		add	r2, r2, #2304
 4543              		.loc 1 1312 26
 4544 001a 23F4FF63 		bic	r3, r3, #2040
 4545 001e 23F00703 		bic	r3, r3, #7
 4546 0022 1360     		str	r3, [r2]
1313:STM32Cube_FW_N6/Drivers/STM32N6xx_HAL_Driver/Src/stm32n6xx_ll_usb.c **** 
1314:STM32Cube_FW_N6/Drivers/STM32N6xx_HAL_Driver/Src/stm32n6xx_ll_usb.c ****   USBx_DEVICE->DCTL |= USB_OTG_DCTL_CGINAK;
 4547              		.loc 1 1314 14
 4548 0024 FB68     		ldr	r3, [r7, #12]
 4549 0026 03F50063 		add	r3, r3, #2048
 4550 002a 5B68     		ldr	r3, [r3, #4]
 4551 002c FA68     		ldr	r2, [r7, #12]
 4552 002e 02F50062 		add	r2, r2, #2048
 4553              		.loc 1 1314 21
 4554 0032 43F48073 		orr	r3, r3, #256
 4555 0036 5360     		str	r3, [r2, #4]
1315:STM32Cube_FW_N6/Drivers/STM32N6xx_HAL_Driver/Src/stm32n6xx_ll_usb.c **** 
1316:STM32Cube_FW_N6/Drivers/STM32N6xx_HAL_Driver/Src/stm32n6xx_ll_usb.c ****   return HAL_OK;
 4556              		.loc 1 1316 10
 4557 0038 0023     		movs	r3, #0
1317:STM32Cube_FW_N6/Drivers/STM32N6xx_HAL_Driver/Src/stm32n6xx_ll_usb.c **** }
 4558              		.loc 1 1317 1
 4559 003a 1846     		mov	r0, r3
 4560 003c 1437     		adds	r7, r7, #20
 4561              		.cfi_def_cfa_offset 4
 4562 003e BD46     		mov	sp, r7
 4563              		.cfi_def_cfa_register 13
 4564              		@ sp needed
 4565 0040 5DF8047B 		ldr	r7, [sp], #4
 4566              		.cfi_restore 7
 4567              		.cfi_def_cfa_offset 0
 4568 0044 7047     		bx	lr
 4569              		.cfi_endproc
 4570              	.LFE867:
 4572              		.section	.text.USB_EP0_OutStart,"ax",%progbits
 4573              		.align	1
 4574              		.global	USB_EP0_OutStart
 4575              		.syntax unified
 4576              		.thumb
 4577              		.thumb_func
 4579              	USB_EP0_OutStart:
 4580              	.LFB868:
1318:STM32Cube_FW_N6/Drivers/STM32N6xx_HAL_Driver/Src/stm32n6xx_ll_usb.c **** 
1319:STM32Cube_FW_N6/Drivers/STM32N6xx_HAL_Driver/Src/stm32n6xx_ll_usb.c **** /**
1320:STM32Cube_FW_N6/Drivers/STM32N6xx_HAL_Driver/Src/stm32n6xx_ll_usb.c ****   * @brief  Prepare the EP0 to start the first control setup
1321:STM32Cube_FW_N6/Drivers/STM32N6xx_HAL_Driver/Src/stm32n6xx_ll_usb.c ****   * @param  USBx  Selected device
1322:STM32Cube_FW_N6/Drivers/STM32N6xx_HAL_Driver/Src/stm32n6xx_ll_usb.c ****   * @param  dma USB dma enabled or disabled
1323:STM32Cube_FW_N6/Drivers/STM32N6xx_HAL_Driver/Src/stm32n6xx_ll_usb.c ****   *          This parameter can be one of these values:
1324:STM32Cube_FW_N6/Drivers/STM32N6xx_HAL_Driver/Src/stm32n6xx_ll_usb.c ****   *           0 : DMA feature not used
1325:STM32Cube_FW_N6/Drivers/STM32N6xx_HAL_Driver/Src/stm32n6xx_ll_usb.c ****   *           1 : DMA feature used
1326:STM32Cube_FW_N6/Drivers/STM32N6xx_HAL_Driver/Src/stm32n6xx_ll_usb.c ****   * @param  psetup  pointer to setup packet
1327:STM32Cube_FW_N6/Drivers/STM32N6xx_HAL_Driver/Src/stm32n6xx_ll_usb.c ****   * @retval HAL status
ARM GAS  /tmp/ccxt1UfV.s 			page 104


1328:STM32Cube_FW_N6/Drivers/STM32N6xx_HAL_Driver/Src/stm32n6xx_ll_usb.c ****   */
1329:STM32Cube_FW_N6/Drivers/STM32N6xx_HAL_Driver/Src/stm32n6xx_ll_usb.c **** HAL_StatusTypeDef USB_EP0_OutStart(const USB_OTG_GlobalTypeDef *USBx, uint8_t dma, const uint8_t *p
1330:STM32Cube_FW_N6/Drivers/STM32N6xx_HAL_Driver/Src/stm32n6xx_ll_usb.c **** {
 4581              		.loc 1 1330 1
 4582              		.cfi_startproc
 4583              		@ args = 0, pretend = 0, frame = 24
 4584              		@ frame_needed = 1, uses_anonymous_args = 0
 4585              		@ link register save eliminated.
 4586 0000 80B4     		push	{r7}
 4587              		.cfi_def_cfa_offset 4
 4588              		.cfi_offset 7, -4
 4589 0002 87B0     		sub	sp, sp, #28
 4590              		.cfi_def_cfa_offset 32
 4591 0004 00AF     		add	r7, sp, #0
 4592              		.cfi_def_cfa_register 7
 4593 0006 F860     		str	r0, [r7, #12]
 4594 0008 0B46     		mov	r3, r1
 4595 000a 7A60     		str	r2, [r7, #4]
 4596 000c FB72     		strb	r3, [r7, #11]
1331:STM32Cube_FW_N6/Drivers/STM32N6xx_HAL_Driver/Src/stm32n6xx_ll_usb.c ****   uint32_t USBx_BASE = (uint32_t)USBx;
 4597              		.loc 1 1331 12
 4598 000e FB68     		ldr	r3, [r7, #12]
 4599 0010 7B61     		str	r3, [r7, #20]
1332:STM32Cube_FW_N6/Drivers/STM32N6xx_HAL_Driver/Src/stm32n6xx_ll_usb.c ****   uint32_t gSNPSiD = *(__IO const uint32_t *)(&USBx->CID + 0x1U);
 4600              		.loc 1 1332 47
 4601 0012 FB68     		ldr	r3, [r7, #12]
 4602 0014 3C33     		adds	r3, r3, #60
 4603              		.loc 1 1332 23
 4604 0016 0433     		adds	r3, r3, #4
 4605              		.loc 1 1332 12
 4606 0018 1B68     		ldr	r3, [r3]
 4607 001a 3B61     		str	r3, [r7, #16]
1333:STM32Cube_FW_N6/Drivers/STM32N6xx_HAL_Driver/Src/stm32n6xx_ll_usb.c **** 
1334:STM32Cube_FW_N6/Drivers/STM32N6xx_HAL_Driver/Src/stm32n6xx_ll_usb.c ****   if (gSNPSiD > USB_OTG_CORE_ID_300A)
 4608              		.loc 1 1334 6
 4609 001c 3B69     		ldr	r3, [r7, #16]
 4610 001e 264A     		ldr	r2, .L198
 4611 0020 9342     		cmp	r3, r2
 4612 0022 0AD9     		bls	.L195
1335:STM32Cube_FW_N6/Drivers/STM32N6xx_HAL_Driver/Src/stm32n6xx_ll_usb.c ****   {
1336:STM32Cube_FW_N6/Drivers/STM32N6xx_HAL_Driver/Src/stm32n6xx_ll_usb.c ****     if ((USBx_OUTEP(0U)->DOEPCTL & USB_OTG_DOEPCTL_EPENA) == USB_OTG_DOEPCTL_EPENA)
 4613              		.loc 1 1336 10
 4614 0024 7B69     		ldr	r3, [r7, #20]
 4615 0026 03F53063 		add	r3, r3, #2816
 4616              		.loc 1 1336 24
 4617 002a 1B68     		ldr	r3, [r3]
 4618              		.loc 1 1336 34
 4619 002c 03F00043 		and	r3, r3, #-2147483648
 4620              		.loc 1 1336 8
 4621 0030 B3F1004F 		cmp	r3, #-2147483648
 4622 0034 01D1     		bne	.L195
1337:STM32Cube_FW_N6/Drivers/STM32N6xx_HAL_Driver/Src/stm32n6xx_ll_usb.c ****     {
1338:STM32Cube_FW_N6/Drivers/STM32N6xx_HAL_Driver/Src/stm32n6xx_ll_usb.c ****       return HAL_OK;
 4623              		.loc 1 1338 14
 4624 0036 0023     		movs	r3, #0
 4625 0038 37E0     		b	.L196
 4626              	.L195:
ARM GAS  /tmp/ccxt1UfV.s 			page 105


1339:STM32Cube_FW_N6/Drivers/STM32N6xx_HAL_Driver/Src/stm32n6xx_ll_usb.c ****     }
1340:STM32Cube_FW_N6/Drivers/STM32N6xx_HAL_Driver/Src/stm32n6xx_ll_usb.c ****   }
1341:STM32Cube_FW_N6/Drivers/STM32N6xx_HAL_Driver/Src/stm32n6xx_ll_usb.c **** 
1342:STM32Cube_FW_N6/Drivers/STM32N6xx_HAL_Driver/Src/stm32n6xx_ll_usb.c ****   USBx_OUTEP(0U)->DOEPTSIZ = 0U;
 4627              		.loc 1 1342 3
 4628 003a 7B69     		ldr	r3, [r7, #20]
 4629 003c 03F53063 		add	r3, r3, #2816
 4630 0040 1A46     		mov	r2, r3
 4631              		.loc 1 1342 28
 4632 0042 0023     		movs	r3, #0
 4633 0044 1361     		str	r3, [r2, #16]
1343:STM32Cube_FW_N6/Drivers/STM32N6xx_HAL_Driver/Src/stm32n6xx_ll_usb.c ****   USBx_OUTEP(0U)->DOEPTSIZ |= (USB_OTG_DOEPTSIZ_PKTCNT & (1U << 19));
 4634              		.loc 1 1343 17
 4635 0046 7B69     		ldr	r3, [r7, #20]
 4636 0048 03F53063 		add	r3, r3, #2816
 4637 004c 1B69     		ldr	r3, [r3, #16]
 4638 004e 7A69     		ldr	r2, [r7, #20]
 4639 0050 02F53062 		add	r2, r2, #2816
 4640              		.loc 1 1343 28
 4641 0054 43F40023 		orr	r3, r3, #524288
 4642 0058 1361     		str	r3, [r2, #16]
1344:STM32Cube_FW_N6/Drivers/STM32N6xx_HAL_Driver/Src/stm32n6xx_ll_usb.c ****   USBx_OUTEP(0U)->DOEPTSIZ |= (3U * 8U);
 4643              		.loc 1 1344 17
 4644 005a 7B69     		ldr	r3, [r7, #20]
 4645 005c 03F53063 		add	r3, r3, #2816
 4646 0060 1B69     		ldr	r3, [r3, #16]
 4647 0062 7A69     		ldr	r2, [r7, #20]
 4648 0064 02F53062 		add	r2, r2, #2816
 4649              		.loc 1 1344 28
 4650 0068 43F01803 		orr	r3, r3, #24
 4651 006c 1361     		str	r3, [r2, #16]
1345:STM32Cube_FW_N6/Drivers/STM32N6xx_HAL_Driver/Src/stm32n6xx_ll_usb.c ****   USBx_OUTEP(0U)->DOEPTSIZ |=  USB_OTG_DOEPTSIZ_STUPCNT;
 4652              		.loc 1 1345 17
 4653 006e 7B69     		ldr	r3, [r7, #20]
 4654 0070 03F53063 		add	r3, r3, #2816
 4655 0074 1B69     		ldr	r3, [r3, #16]
 4656 0076 7A69     		ldr	r2, [r7, #20]
 4657 0078 02F53062 		add	r2, r2, #2816
 4658              		.loc 1 1345 28
 4659 007c 43F0C043 		orr	r3, r3, #1610612736
 4660 0080 1361     		str	r3, [r2, #16]
1346:STM32Cube_FW_N6/Drivers/STM32N6xx_HAL_Driver/Src/stm32n6xx_ll_usb.c **** 
1347:STM32Cube_FW_N6/Drivers/STM32N6xx_HAL_Driver/Src/stm32n6xx_ll_usb.c ****   if (dma == 1U)
 4661              		.loc 1 1347 6
 4662 0082 FB7A     		ldrb	r3, [r7, #11]	@ zero_extendqisi2
 4663 0084 012B     		cmp	r3, #1
 4664 0086 0FD1     		bne	.L197
1348:STM32Cube_FW_N6/Drivers/STM32N6xx_HAL_Driver/Src/stm32n6xx_ll_usb.c ****   {
1349:STM32Cube_FW_N6/Drivers/STM32N6xx_HAL_Driver/Src/stm32n6xx_ll_usb.c ****     USBx_OUTEP(0U)->DOEPDMA = (uint32_t)psetup;
 4665              		.loc 1 1349 5
 4666 0088 7B69     		ldr	r3, [r7, #20]
 4667 008a 03F53063 		add	r3, r3, #2816
 4668 008e 1A46     		mov	r2, r3
 4669              		.loc 1 1349 31
 4670 0090 7B68     		ldr	r3, [r7, #4]
 4671              		.loc 1 1349 29
 4672 0092 5361     		str	r3, [r2, #20]
ARM GAS  /tmp/ccxt1UfV.s 			page 106


1350:STM32Cube_FW_N6/Drivers/STM32N6xx_HAL_Driver/Src/stm32n6xx_ll_usb.c ****     /* EP enable */
1351:STM32Cube_FW_N6/Drivers/STM32N6xx_HAL_Driver/Src/stm32n6xx_ll_usb.c ****     USBx_OUTEP(0U)->DOEPCTL |= USB_OTG_DOEPCTL_EPENA | USB_OTG_DOEPCTL_USBAEP;
 4673              		.loc 1 1351 19
 4674 0094 7B69     		ldr	r3, [r7, #20]
 4675 0096 03F53063 		add	r3, r3, #2816
 4676 009a 1B68     		ldr	r3, [r3]
 4677 009c 7A69     		ldr	r2, [r7, #20]
 4678 009e 02F53062 		add	r2, r2, #2816
 4679              		.loc 1 1351 29
 4680 00a2 43F08023 		orr	r3, r3, #-2147450880
 4681 00a6 1360     		str	r3, [r2]
 4682              	.L197:
1352:STM32Cube_FW_N6/Drivers/STM32N6xx_HAL_Driver/Src/stm32n6xx_ll_usb.c ****   }
1353:STM32Cube_FW_N6/Drivers/STM32N6xx_HAL_Driver/Src/stm32n6xx_ll_usb.c **** 
1354:STM32Cube_FW_N6/Drivers/STM32N6xx_HAL_Driver/Src/stm32n6xx_ll_usb.c ****   return HAL_OK;
 4683              		.loc 1 1354 10
 4684 00a8 0023     		movs	r3, #0
 4685              	.L196:
1355:STM32Cube_FW_N6/Drivers/STM32N6xx_HAL_Driver/Src/stm32n6xx_ll_usb.c **** }
 4686              		.loc 1 1355 1
 4687 00aa 1846     		mov	r0, r3
 4688 00ac 1C37     		adds	r7, r7, #28
 4689              		.cfi_def_cfa_offset 4
 4690 00ae BD46     		mov	sp, r7
 4691              		.cfi_def_cfa_register 13
 4692              		@ sp needed
 4693 00b0 5DF8047B 		ldr	r7, [sp], #4
 4694              		.cfi_restore 7
 4695              		.cfi_def_cfa_offset 0
 4696 00b4 7047     		bx	lr
 4697              	.L199:
 4698 00b6 00BF     		.align	2
 4699              	.L198:
 4700 00b8 0A30544F 		.word	1330917386
 4701              		.cfi_endproc
 4702              	.LFE868:
 4704              		.section	.text.USB_CoreReset,"ax",%progbits
 4705              		.align	1
 4706              		.syntax unified
 4707              		.thumb
 4708              		.thumb_func
 4710              	USB_CoreReset:
 4711              	.LFB869:
1356:STM32Cube_FW_N6/Drivers/STM32N6xx_HAL_Driver/Src/stm32n6xx_ll_usb.c **** 
1357:STM32Cube_FW_N6/Drivers/STM32N6xx_HAL_Driver/Src/stm32n6xx_ll_usb.c **** /**
1358:STM32Cube_FW_N6/Drivers/STM32N6xx_HAL_Driver/Src/stm32n6xx_ll_usb.c ****   * @brief  Reset the USB Core (needed after USB clock settings change)
1359:STM32Cube_FW_N6/Drivers/STM32N6xx_HAL_Driver/Src/stm32n6xx_ll_usb.c ****   * @param  USBx  Selected device
1360:STM32Cube_FW_N6/Drivers/STM32N6xx_HAL_Driver/Src/stm32n6xx_ll_usb.c ****   * @retval HAL status
1361:STM32Cube_FW_N6/Drivers/STM32N6xx_HAL_Driver/Src/stm32n6xx_ll_usb.c ****   */
1362:STM32Cube_FW_N6/Drivers/STM32N6xx_HAL_Driver/Src/stm32n6xx_ll_usb.c **** static HAL_StatusTypeDef USB_CoreReset(USB_OTG_GlobalTypeDef *USBx)
1363:STM32Cube_FW_N6/Drivers/STM32N6xx_HAL_Driver/Src/stm32n6xx_ll_usb.c **** {
 4712              		.loc 1 1363 1
 4713              		.cfi_startproc
 4714              		@ args = 0, pretend = 0, frame = 16
 4715              		@ frame_needed = 1, uses_anonymous_args = 0
 4716              		@ link register save eliminated.
 4717 0000 80B4     		push	{r7}
ARM GAS  /tmp/ccxt1UfV.s 			page 107


 4718              		.cfi_def_cfa_offset 4
 4719              		.cfi_offset 7, -4
 4720 0002 85B0     		sub	sp, sp, #20
 4721              		.cfi_def_cfa_offset 24
 4722 0004 00AF     		add	r7, sp, #0
 4723              		.cfi_def_cfa_register 7
 4724 0006 7860     		str	r0, [r7, #4]
1364:STM32Cube_FW_N6/Drivers/STM32N6xx_HAL_Driver/Src/stm32n6xx_ll_usb.c ****   __IO uint32_t count = 0U;
 4725              		.loc 1 1364 17
 4726 0008 0023     		movs	r3, #0
 4727 000a FB60     		str	r3, [r7, #12]
 4728              	.L203:
1365:STM32Cube_FW_N6/Drivers/STM32N6xx_HAL_Driver/Src/stm32n6xx_ll_usb.c **** 
1366:STM32Cube_FW_N6/Drivers/STM32N6xx_HAL_Driver/Src/stm32n6xx_ll_usb.c ****   /* Wait for AHB master IDLE state. */
1367:STM32Cube_FW_N6/Drivers/STM32N6xx_HAL_Driver/Src/stm32n6xx_ll_usb.c ****   do
1368:STM32Cube_FW_N6/Drivers/STM32N6xx_HAL_Driver/Src/stm32n6xx_ll_usb.c ****   {
1369:STM32Cube_FW_N6/Drivers/STM32N6xx_HAL_Driver/Src/stm32n6xx_ll_usb.c ****     count++;
 4729              		.loc 1 1369 10
 4730 000c FB68     		ldr	r3, [r7, #12]
 4731 000e 0133     		adds	r3, r3, #1
 4732 0010 FB60     		str	r3, [r7, #12]
1370:STM32Cube_FW_N6/Drivers/STM32N6xx_HAL_Driver/Src/stm32n6xx_ll_usb.c **** 
1371:STM32Cube_FW_N6/Drivers/STM32N6xx_HAL_Driver/Src/stm32n6xx_ll_usb.c ****     if (count > HAL_USB_TIMEOUT)
 4733              		.loc 1 1371 15
 4734 0012 FB68     		ldr	r3, [r7, #12]
 4735              		.loc 1 1371 8
 4736 0014 B3F1706F 		cmp	r3, #251658240
 4737 0018 01D9     		bls	.L201
1372:STM32Cube_FW_N6/Drivers/STM32N6xx_HAL_Driver/Src/stm32n6xx_ll_usb.c ****     {
1373:STM32Cube_FW_N6/Drivers/STM32N6xx_HAL_Driver/Src/stm32n6xx_ll_usb.c ****       return HAL_TIMEOUT;
 4738              		.loc 1 1373 14
 4739 001a 0323     		movs	r3, #3
 4740 001c 1BE0     		b	.L202
 4741              	.L201:
1374:STM32Cube_FW_N6/Drivers/STM32N6xx_HAL_Driver/Src/stm32n6xx_ll_usb.c ****     }
1375:STM32Cube_FW_N6/Drivers/STM32N6xx_HAL_Driver/Src/stm32n6xx_ll_usb.c ****   } while ((USBx->GRSTCTL & USB_OTG_GRSTCTL_AHBIDL) == 0U);
 4742              		.loc 1 1375 17
 4743 001e 7B68     		ldr	r3, [r7, #4]
 4744 0020 1B69     		ldr	r3, [r3, #16]
 4745              		.loc 1 1375 53
 4746 0022 002B     		cmp	r3, #0
 4747 0024 F2DA     		bge	.L203
1376:STM32Cube_FW_N6/Drivers/STM32N6xx_HAL_Driver/Src/stm32n6xx_ll_usb.c **** 
1377:STM32Cube_FW_N6/Drivers/STM32N6xx_HAL_Driver/Src/stm32n6xx_ll_usb.c ****   /* Core Soft Reset */
1378:STM32Cube_FW_N6/Drivers/STM32N6xx_HAL_Driver/Src/stm32n6xx_ll_usb.c ****   count = 0U;
 4748              		.loc 1 1378 9
 4749 0026 0023     		movs	r3, #0
 4750 0028 FB60     		str	r3, [r7, #12]
1379:STM32Cube_FW_N6/Drivers/STM32N6xx_HAL_Driver/Src/stm32n6xx_ll_usb.c ****   USBx->GRSTCTL |= USB_OTG_GRSTCTL_CSRST;
 4751              		.loc 1 1379 7
 4752 002a 7B68     		ldr	r3, [r7, #4]
 4753 002c 1B69     		ldr	r3, [r3, #16]
 4754              		.loc 1 1379 17
 4755 002e 43F00102 		orr	r2, r3, #1
 4756 0032 7B68     		ldr	r3, [r7, #4]
 4757 0034 1A61     		str	r2, [r3, #16]
 4758              	.L205:
ARM GAS  /tmp/ccxt1UfV.s 			page 108


1380:STM32Cube_FW_N6/Drivers/STM32N6xx_HAL_Driver/Src/stm32n6xx_ll_usb.c **** 
1381:STM32Cube_FW_N6/Drivers/STM32N6xx_HAL_Driver/Src/stm32n6xx_ll_usb.c ****   do
1382:STM32Cube_FW_N6/Drivers/STM32N6xx_HAL_Driver/Src/stm32n6xx_ll_usb.c ****   {
1383:STM32Cube_FW_N6/Drivers/STM32N6xx_HAL_Driver/Src/stm32n6xx_ll_usb.c ****     count++;
 4759              		.loc 1 1383 10
 4760 0036 FB68     		ldr	r3, [r7, #12]
 4761 0038 0133     		adds	r3, r3, #1
 4762 003a FB60     		str	r3, [r7, #12]
1384:STM32Cube_FW_N6/Drivers/STM32N6xx_HAL_Driver/Src/stm32n6xx_ll_usb.c **** 
1385:STM32Cube_FW_N6/Drivers/STM32N6xx_HAL_Driver/Src/stm32n6xx_ll_usb.c ****     if (count > HAL_USB_TIMEOUT)
 4763              		.loc 1 1385 15
 4764 003c FB68     		ldr	r3, [r7, #12]
 4765              		.loc 1 1385 8
 4766 003e B3F1706F 		cmp	r3, #251658240
 4767 0042 01D9     		bls	.L204
1386:STM32Cube_FW_N6/Drivers/STM32N6xx_HAL_Driver/Src/stm32n6xx_ll_usb.c ****     {
1387:STM32Cube_FW_N6/Drivers/STM32N6xx_HAL_Driver/Src/stm32n6xx_ll_usb.c ****       return HAL_TIMEOUT;
 4768              		.loc 1 1387 14
 4769 0044 0323     		movs	r3, #3
 4770 0046 06E0     		b	.L202
 4771              	.L204:
1388:STM32Cube_FW_N6/Drivers/STM32N6xx_HAL_Driver/Src/stm32n6xx_ll_usb.c ****     }
1389:STM32Cube_FW_N6/Drivers/STM32N6xx_HAL_Driver/Src/stm32n6xx_ll_usb.c ****   } while ((USBx->GRSTCTL & USB_OTG_GRSTCTL_CSRST) == USB_OTG_GRSTCTL_CSRST);
 4772              		.loc 1 1389 17
 4773 0048 7B68     		ldr	r3, [r7, #4]
 4774 004a 1B69     		ldr	r3, [r3, #16]
 4775              		.loc 1 1389 27
 4776 004c 03F00103 		and	r3, r3, #1
 4777              		.loc 1 1389 52
 4778 0050 012B     		cmp	r3, #1
 4779 0052 F0D0     		beq	.L205
1390:STM32Cube_FW_N6/Drivers/STM32N6xx_HAL_Driver/Src/stm32n6xx_ll_usb.c **** 
1391:STM32Cube_FW_N6/Drivers/STM32N6xx_HAL_Driver/Src/stm32n6xx_ll_usb.c ****   return HAL_OK;
 4780              		.loc 1 1391 10
 4781 0054 0023     		movs	r3, #0
 4782              	.L202:
1392:STM32Cube_FW_N6/Drivers/STM32N6xx_HAL_Driver/Src/stm32n6xx_ll_usb.c **** }
 4783              		.loc 1 1392 1
 4784 0056 1846     		mov	r0, r3
 4785 0058 1437     		adds	r7, r7, #20
 4786              		.cfi_def_cfa_offset 4
 4787 005a BD46     		mov	sp, r7
 4788              		.cfi_def_cfa_register 13
 4789              		@ sp needed
 4790 005c 5DF8047B 		ldr	r7, [sp], #4
 4791              		.cfi_restore 7
 4792              		.cfi_def_cfa_offset 0
 4793 0060 7047     		bx	lr
 4794              		.cfi_endproc
 4795              	.LFE869:
 4797              		.section	.text.USB_HostInit,"ax",%progbits
 4798              		.align	1
 4799              		.global	USB_HostInit
 4800              		.syntax unified
 4801              		.thumb
 4802              		.thumb_func
 4804              	USB_HostInit:
ARM GAS  /tmp/ccxt1UfV.s 			page 109


 4805              	.LFB870:
1393:STM32Cube_FW_N6/Drivers/STM32N6xx_HAL_Driver/Src/stm32n6xx_ll_usb.c **** 
1394:STM32Cube_FW_N6/Drivers/STM32N6xx_HAL_Driver/Src/stm32n6xx_ll_usb.c **** /**
1395:STM32Cube_FW_N6/Drivers/STM32N6xx_HAL_Driver/Src/stm32n6xx_ll_usb.c ****   * @brief  USB_HostInit : Initializes the USB OTG controller registers
1396:STM32Cube_FW_N6/Drivers/STM32N6xx_HAL_Driver/Src/stm32n6xx_ll_usb.c ****   *         for Host mode
1397:STM32Cube_FW_N6/Drivers/STM32N6xx_HAL_Driver/Src/stm32n6xx_ll_usb.c ****   * @param  USBx  Selected device
1398:STM32Cube_FW_N6/Drivers/STM32N6xx_HAL_Driver/Src/stm32n6xx_ll_usb.c ****   * @param  cfg   pointer to a USB_OTG_CfgTypeDef structure that contains
1399:STM32Cube_FW_N6/Drivers/STM32N6xx_HAL_Driver/Src/stm32n6xx_ll_usb.c ****   *         the configuration information for the specified USBx peripheral.
1400:STM32Cube_FW_N6/Drivers/STM32N6xx_HAL_Driver/Src/stm32n6xx_ll_usb.c ****   * @retval HAL status
1401:STM32Cube_FW_N6/Drivers/STM32N6xx_HAL_Driver/Src/stm32n6xx_ll_usb.c ****   */
1402:STM32Cube_FW_N6/Drivers/STM32N6xx_HAL_Driver/Src/stm32n6xx_ll_usb.c **** HAL_StatusTypeDef USB_HostInit(USB_OTG_GlobalTypeDef *USBx, USB_OTG_CfgTypeDef cfg)
1403:STM32Cube_FW_N6/Drivers/STM32N6xx_HAL_Driver/Src/stm32n6xx_ll_usb.c **** {
 4806              		.loc 1 1403 1
 4807              		.cfi_startproc
 4808              		@ args = 20, pretend = 16, frame = 24
 4809              		@ frame_needed = 1, uses_anonymous_args = 0
 4810 0000 84B0     		sub	sp, sp, #16
 4811              		.cfi_def_cfa_offset 16
 4812 0002 80B5     		push	{r7, lr}
 4813              		.cfi_def_cfa_offset 24
 4814              		.cfi_offset 7, -24
 4815              		.cfi_offset 14, -20
 4816 0004 86B0     		sub	sp, sp, #24
 4817              		.cfi_def_cfa_offset 48
 4818 0006 00AF     		add	r7, sp, #0
 4819              		.cfi_def_cfa_register 7
 4820 0008 7860     		str	r0, [r7, #4]
 4821 000a 07F12400 		add	r0, r7, #36
 4822 000e 80E80E00 		stm	r0, {r1, r2, r3}
1404:STM32Cube_FW_N6/Drivers/STM32N6xx_HAL_Driver/Src/stm32n6xx_ll_usb.c ****   HAL_StatusTypeDef ret = HAL_OK;
 4823              		.loc 1 1404 21
 4824 0012 0023     		movs	r3, #0
 4825 0014 FB75     		strb	r3, [r7, #23]
1405:STM32Cube_FW_N6/Drivers/STM32N6xx_HAL_Driver/Src/stm32n6xx_ll_usb.c ****   uint32_t USBx_BASE = (uint32_t)USBx;
 4826              		.loc 1 1405 12
 4827 0016 7B68     		ldr	r3, [r7, #4]
 4828 0018 FB60     		str	r3, [r7, #12]
1406:STM32Cube_FW_N6/Drivers/STM32N6xx_HAL_Driver/Src/stm32n6xx_ll_usb.c ****   uint32_t i;
1407:STM32Cube_FW_N6/Drivers/STM32N6xx_HAL_Driver/Src/stm32n6xx_ll_usb.c **** 
1408:STM32Cube_FW_N6/Drivers/STM32N6xx_HAL_Driver/Src/stm32n6xx_ll_usb.c ****   /* Enable USB PHY pulldown resistors */
1409:STM32Cube_FW_N6/Drivers/STM32N6xx_HAL_Driver/Src/stm32n6xx_ll_usb.c ****   USBx->GCCFG |= USB_OTG_GCCFG_PULLDOWNEN;
 4829              		.loc 1 1409 7
 4830 001a 7B68     		ldr	r3, [r7, #4]
 4831 001c 9B6B     		ldr	r3, [r3, #56]
 4832              		.loc 1 1409 15
 4833 001e 43F00072 		orr	r2, r3, #33554432
 4834 0022 7B68     		ldr	r3, [r7, #4]
 4835 0024 9A63     		str	r2, [r3, #56]
1410:STM32Cube_FW_N6/Drivers/STM32N6xx_HAL_Driver/Src/stm32n6xx_ll_usb.c **** 
1411:STM32Cube_FW_N6/Drivers/STM32N6xx_HAL_Driver/Src/stm32n6xx_ll_usb.c ****   /* Restart the Phy Clock */
1412:STM32Cube_FW_N6/Drivers/STM32N6xx_HAL_Driver/Src/stm32n6xx_ll_usb.c ****   USBx_PCGCCTL = 0U;
 4836              		.loc 1 1412 3
 4837 0026 FB68     		ldr	r3, [r7, #12]
 4838 0028 03F56063 		add	r3, r3, #3584
 4839 002c 1A46     		mov	r2, r3
 4840              		.loc 1 1412 16
 4841 002e 0023     		movs	r3, #0
ARM GAS  /tmp/ccxt1UfV.s 			page 110


 4842 0030 1360     		str	r3, [r2]
1413:STM32Cube_FW_N6/Drivers/STM32N6xx_HAL_Driver/Src/stm32n6xx_ll_usb.c **** 
1414:STM32Cube_FW_N6/Drivers/STM32N6xx_HAL_Driver/Src/stm32n6xx_ll_usb.c ****   /* Disable VBUS override */
1415:STM32Cube_FW_N6/Drivers/STM32N6xx_HAL_Driver/Src/stm32n6xx_ll_usb.c ****   USBx->GCCFG &= ~(USB_OTG_GCCFG_VBVALOVAL | USB_OTG_GCCFG_VBVALEXTOEN);
 4843              		.loc 1 1415 7
 4844 0032 7B68     		ldr	r3, [r7, #4]
 4845 0034 9B6B     		ldr	r3, [r3, #56]
 4846              		.loc 1 1415 15
 4847 0036 23F0C072 		bic	r2, r3, #25165824
 4848 003a 7B68     		ldr	r3, [r7, #4]
 4849 003c 9A63     		str	r2, [r3, #56]
1416:STM32Cube_FW_N6/Drivers/STM32N6xx_HAL_Driver/Src/stm32n6xx_ll_usb.c **** 
1417:STM32Cube_FW_N6/Drivers/STM32N6xx_HAL_Driver/Src/stm32n6xx_ll_usb.c ****   /* Disable Battery chargin detector */
1418:STM32Cube_FW_N6/Drivers/STM32N6xx_HAL_Driver/Src/stm32n6xx_ll_usb.c ****   USBx->GCCFG &= ~(USB_OTG_GCCFG_PDETEN);
 4850              		.loc 1 1418 7
 4851 003e 7B68     		ldr	r3, [r7, #4]
 4852 0040 9B6B     		ldr	r3, [r3, #56]
 4853              		.loc 1 1418 15
 4854 0042 23F48012 		bic	r2, r3, #1048576
 4855 0046 7B68     		ldr	r3, [r7, #4]
 4856 0048 9A63     		str	r2, [r3, #56]
1419:STM32Cube_FW_N6/Drivers/STM32N6xx_HAL_Driver/Src/stm32n6xx_ll_usb.c ****   USBx->GCCFG &= ~(USB_OTG_GCCFG_SDETEN);
 4857              		.loc 1 1419 7
 4858 004a 7B68     		ldr	r3, [r7, #4]
 4859 004c 9B6B     		ldr	r3, [r3, #56]
 4860              		.loc 1 1419 15
 4861 004e 23F48002 		bic	r2, r3, #4194304
 4862 0052 7B68     		ldr	r3, [r7, #4]
 4863 0054 9A63     		str	r2, [r3, #56]
1420:STM32Cube_FW_N6/Drivers/STM32N6xx_HAL_Driver/Src/stm32n6xx_ll_usb.c **** 
1421:STM32Cube_FW_N6/Drivers/STM32N6xx_HAL_Driver/Src/stm32n6xx_ll_usb.c ****   if ((USBx->GUSBCFG & USB_OTG_GUSBCFG_PHYSEL) == 0U)
 4864              		.loc 1 1421 12
 4865 0056 7B68     		ldr	r3, [r7, #4]
 4866 0058 DB68     		ldr	r3, [r3, #12]
 4867              		.loc 1 1421 22
 4868 005a 03F04003 		and	r3, r3, #64
 4869              		.loc 1 1421 6
 4870 005e 002B     		cmp	r3, #0
 4871 0060 19D1     		bne	.L207
1422:STM32Cube_FW_N6/Drivers/STM32N6xx_HAL_Driver/Src/stm32n6xx_ll_usb.c ****   {
1423:STM32Cube_FW_N6/Drivers/STM32N6xx_HAL_Driver/Src/stm32n6xx_ll_usb.c ****     if (cfg.speed == USBH_FSLS_SPEED)
 4872              		.loc 1 1423 12
 4873 0062 97F82730 		ldrb	r3, [r7, #39]	@ zero_extendqisi2
 4874              		.loc 1 1423 8
 4875 0066 012B     		cmp	r3, #1
 4876 0068 0AD1     		bne	.L208
1424:STM32Cube_FW_N6/Drivers/STM32N6xx_HAL_Driver/Src/stm32n6xx_ll_usb.c ****     {
1425:STM32Cube_FW_N6/Drivers/STM32N6xx_HAL_Driver/Src/stm32n6xx_ll_usb.c ****       /* Force Device Enumeration to FS/LS mode only */
1426:STM32Cube_FW_N6/Drivers/STM32N6xx_HAL_Driver/Src/stm32n6xx_ll_usb.c ****       USBx_HOST->HCFG |= USB_OTG_HCFG_FSLSS;
 4877              		.loc 1 1426 16
 4878 006a FB68     		ldr	r3, [r7, #12]
 4879 006c 03F58063 		add	r3, r3, #1024
 4880 0070 1B68     		ldr	r3, [r3]
 4881 0072 FA68     		ldr	r2, [r7, #12]
 4882 0074 02F58062 		add	r2, r2, #1024
 4883              		.loc 1 1426 23
 4884 0078 43F00403 		orr	r3, r3, #4
ARM GAS  /tmp/ccxt1UfV.s 			page 111


 4885 007c 1360     		str	r3, [r2]
 4886 007e 14E0     		b	.L209
 4887              	.L208:
1427:STM32Cube_FW_N6/Drivers/STM32N6xx_HAL_Driver/Src/stm32n6xx_ll_usb.c ****     }
1428:STM32Cube_FW_N6/Drivers/STM32N6xx_HAL_Driver/Src/stm32n6xx_ll_usb.c ****     else
1429:STM32Cube_FW_N6/Drivers/STM32N6xx_HAL_Driver/Src/stm32n6xx_ll_usb.c ****     {
1430:STM32Cube_FW_N6/Drivers/STM32N6xx_HAL_Driver/Src/stm32n6xx_ll_usb.c ****       /* Set default Max speed support */
1431:STM32Cube_FW_N6/Drivers/STM32N6xx_HAL_Driver/Src/stm32n6xx_ll_usb.c ****       USBx_HOST->HCFG &= ~(USB_OTG_HCFG_FSLSS);
 4888              		.loc 1 1431 16
 4889 0080 FB68     		ldr	r3, [r7, #12]
 4890 0082 03F58063 		add	r3, r3, #1024
 4891 0086 1B68     		ldr	r3, [r3]
 4892 0088 FA68     		ldr	r2, [r7, #12]
 4893 008a 02F58062 		add	r2, r2, #1024
 4894              		.loc 1 1431 23
 4895 008e 23F00403 		bic	r3, r3, #4
 4896 0092 1360     		str	r3, [r2]
 4897 0094 09E0     		b	.L209
 4898              	.L207:
1432:STM32Cube_FW_N6/Drivers/STM32N6xx_HAL_Driver/Src/stm32n6xx_ll_usb.c ****     }
1433:STM32Cube_FW_N6/Drivers/STM32N6xx_HAL_Driver/Src/stm32n6xx_ll_usb.c ****   }
1434:STM32Cube_FW_N6/Drivers/STM32N6xx_HAL_Driver/Src/stm32n6xx_ll_usb.c ****   else
1435:STM32Cube_FW_N6/Drivers/STM32N6xx_HAL_Driver/Src/stm32n6xx_ll_usb.c ****   {
1436:STM32Cube_FW_N6/Drivers/STM32N6xx_HAL_Driver/Src/stm32n6xx_ll_usb.c ****     /* Set default Max speed support */
1437:STM32Cube_FW_N6/Drivers/STM32N6xx_HAL_Driver/Src/stm32n6xx_ll_usb.c ****     USBx_HOST->HCFG &= ~(USB_OTG_HCFG_FSLSS);
 4899              		.loc 1 1437 14
 4900 0096 FB68     		ldr	r3, [r7, #12]
 4901 0098 03F58063 		add	r3, r3, #1024
 4902 009c 1B68     		ldr	r3, [r3]
 4903 009e FA68     		ldr	r2, [r7, #12]
 4904 00a0 02F58062 		add	r2, r2, #1024
 4905              		.loc 1 1437 21
 4906 00a4 23F00403 		bic	r3, r3, #4
 4907 00a8 1360     		str	r3, [r2]
 4908              	.L209:
1438:STM32Cube_FW_N6/Drivers/STM32N6xx_HAL_Driver/Src/stm32n6xx_ll_usb.c ****   }
1439:STM32Cube_FW_N6/Drivers/STM32N6xx_HAL_Driver/Src/stm32n6xx_ll_usb.c **** 
1440:STM32Cube_FW_N6/Drivers/STM32N6xx_HAL_Driver/Src/stm32n6xx_ll_usb.c ****   /* Make sure the FIFOs are flushed. */
1441:STM32Cube_FW_N6/Drivers/STM32N6xx_HAL_Driver/Src/stm32n6xx_ll_usb.c ****   if (USB_FlushTxFifo(USBx, 0x10U) != HAL_OK) /* all Tx FIFOs */
 4909              		.loc 1 1441 7
 4910 00aa 1021     		movs	r1, #16
 4911 00ac 7868     		ldr	r0, [r7, #4]
 4912 00ae FFF7FEFF 		bl	USB_FlushTxFifo
 4913 00b2 0346     		mov	r3, r0
 4914              		.loc 1 1441 6 discriminator 1
 4915 00b4 002B     		cmp	r3, #0
 4916 00b6 01D0     		beq	.L210
1442:STM32Cube_FW_N6/Drivers/STM32N6xx_HAL_Driver/Src/stm32n6xx_ll_usb.c ****   {
1443:STM32Cube_FW_N6/Drivers/STM32N6xx_HAL_Driver/Src/stm32n6xx_ll_usb.c ****     ret = HAL_ERROR;
 4917              		.loc 1 1443 9
 4918 00b8 0123     		movs	r3, #1
 4919 00ba FB75     		strb	r3, [r7, #23]
 4920              	.L210:
1444:STM32Cube_FW_N6/Drivers/STM32N6xx_HAL_Driver/Src/stm32n6xx_ll_usb.c ****   }
1445:STM32Cube_FW_N6/Drivers/STM32N6xx_HAL_Driver/Src/stm32n6xx_ll_usb.c **** 
1446:STM32Cube_FW_N6/Drivers/STM32N6xx_HAL_Driver/Src/stm32n6xx_ll_usb.c ****   if (USB_FlushRxFifo(USBx) != HAL_OK)
 4921              		.loc 1 1446 7
ARM GAS  /tmp/ccxt1UfV.s 			page 112


 4922 00bc 7868     		ldr	r0, [r7, #4]
 4923 00be FFF7FEFF 		bl	USB_FlushRxFifo
 4924 00c2 0346     		mov	r3, r0
 4925              		.loc 1 1446 6 discriminator 1
 4926 00c4 002B     		cmp	r3, #0
 4927 00c6 01D0     		beq	.L211
1447:STM32Cube_FW_N6/Drivers/STM32N6xx_HAL_Driver/Src/stm32n6xx_ll_usb.c ****   {
1448:STM32Cube_FW_N6/Drivers/STM32N6xx_HAL_Driver/Src/stm32n6xx_ll_usb.c ****     ret = HAL_ERROR;
 4928              		.loc 1 1448 9
 4929 00c8 0123     		movs	r3, #1
 4930 00ca FB75     		strb	r3, [r7, #23]
 4931              	.L211:
1449:STM32Cube_FW_N6/Drivers/STM32N6xx_HAL_Driver/Src/stm32n6xx_ll_usb.c ****   }
1450:STM32Cube_FW_N6/Drivers/STM32N6xx_HAL_Driver/Src/stm32n6xx_ll_usb.c **** 
1451:STM32Cube_FW_N6/Drivers/STM32N6xx_HAL_Driver/Src/stm32n6xx_ll_usb.c ****   /* Clear all pending HC Interrupts */
1452:STM32Cube_FW_N6/Drivers/STM32N6xx_HAL_Driver/Src/stm32n6xx_ll_usb.c ****   for (i = 0U; i < cfg.Host_channels; i++)
 4932              		.loc 1 1452 10
 4933 00cc 0023     		movs	r3, #0
 4934 00ce 3B61     		str	r3, [r7, #16]
 4935              		.loc 1 1452 3
 4936 00d0 15E0     		b	.L212
 4937              	.L213:
1453:STM32Cube_FW_N6/Drivers/STM32N6xx_HAL_Driver/Src/stm32n6xx_ll_usb.c ****   {
1454:STM32Cube_FW_N6/Drivers/STM32N6xx_HAL_Driver/Src/stm32n6xx_ll_usb.c ****     USBx_HC(i)->HCINT = CLEAR_INTERRUPT_MASK;
 4938              		.loc 1 1454 5
 4939 00d2 3B69     		ldr	r3, [r7, #16]
 4940 00d4 5A01     		lsls	r2, r3, #5
 4941 00d6 FB68     		ldr	r3, [r7, #12]
 4942 00d8 1344     		add	r3, r3, r2
 4943 00da 03F5A063 		add	r3, r3, #1280
 4944 00de 1A46     		mov	r2, r3
 4945              		.loc 1 1454 23
 4946 00e0 4FF0FF33 		mov	r3, #-1
 4947 00e4 9360     		str	r3, [r2, #8]
1455:STM32Cube_FW_N6/Drivers/STM32N6xx_HAL_Driver/Src/stm32n6xx_ll_usb.c ****     USBx_HC(i)->HCINTMSK = 0U;
 4948              		.loc 1 1455 5
 4949 00e6 3B69     		ldr	r3, [r7, #16]
 4950 00e8 5A01     		lsls	r2, r3, #5
 4951 00ea FB68     		ldr	r3, [r7, #12]
 4952 00ec 1344     		add	r3, r3, r2
 4953 00ee 03F5A063 		add	r3, r3, #1280
 4954 00f2 1A46     		mov	r2, r3
 4955              		.loc 1 1455 26
 4956 00f4 0023     		movs	r3, #0
 4957 00f6 D360     		str	r3, [r2, #12]
1452:STM32Cube_FW_N6/Drivers/STM32N6xx_HAL_Driver/Src/stm32n6xx_ll_usb.c ****   {
 4958              		.loc 1 1452 40 discriminator 3
 4959 00f8 3B69     		ldr	r3, [r7, #16]
 4960 00fa 0133     		adds	r3, r3, #1
 4961 00fc 3B61     		str	r3, [r7, #16]
 4962              	.L212:
1452:STM32Cube_FW_N6/Drivers/STM32N6xx_HAL_Driver/Src/stm32n6xx_ll_usb.c ****   {
 4963              		.loc 1 1452 23 discriminator 1
 4964 00fe 97F82530 		ldrb	r3, [r7, #37]	@ zero_extendqisi2
 4965 0102 1A46     		mov	r2, r3
1452:STM32Cube_FW_N6/Drivers/STM32N6xx_HAL_Driver/Src/stm32n6xx_ll_usb.c ****   {
 4966              		.loc 1 1452 18 discriminator 1
ARM GAS  /tmp/ccxt1UfV.s 			page 113


 4967 0104 3B69     		ldr	r3, [r7, #16]
 4968 0106 9342     		cmp	r3, r2
 4969 0108 E3D3     		bcc	.L213
1456:STM32Cube_FW_N6/Drivers/STM32N6xx_HAL_Driver/Src/stm32n6xx_ll_usb.c ****   }
1457:STM32Cube_FW_N6/Drivers/STM32N6xx_HAL_Driver/Src/stm32n6xx_ll_usb.c **** 
1458:STM32Cube_FW_N6/Drivers/STM32N6xx_HAL_Driver/Src/stm32n6xx_ll_usb.c ****   /* Disable all interrupts. */
1459:STM32Cube_FW_N6/Drivers/STM32N6xx_HAL_Driver/Src/stm32n6xx_ll_usb.c ****   USBx->GINTMSK = 0U;
 4970              		.loc 1 1459 17
 4971 010a 7B68     		ldr	r3, [r7, #4]
 4972 010c 0022     		movs	r2, #0
 4973 010e 9A61     		str	r2, [r3, #24]
1460:STM32Cube_FW_N6/Drivers/STM32N6xx_HAL_Driver/Src/stm32n6xx_ll_usb.c **** 
1461:STM32Cube_FW_N6/Drivers/STM32N6xx_HAL_Driver/Src/stm32n6xx_ll_usb.c ****   /* Clear any pending interrupts */
1462:STM32Cube_FW_N6/Drivers/STM32N6xx_HAL_Driver/Src/stm32n6xx_ll_usb.c ****   USBx->GINTSTS = CLEAR_INTERRUPT_MASK;
 4974              		.loc 1 1462 17
 4975 0110 7B68     		ldr	r3, [r7, #4]
 4976 0112 4FF0FF32 		mov	r2, #-1
 4977 0116 5A61     		str	r2, [r3, #20]
1463:STM32Cube_FW_N6/Drivers/STM32N6xx_HAL_Driver/Src/stm32n6xx_ll_usb.c ****   /* set Rx FIFO size */
1464:STM32Cube_FW_N6/Drivers/STM32N6xx_HAL_Driver/Src/stm32n6xx_ll_usb.c ****   USBx->GRXFSIZ  = 0x200U;
 4978              		.loc 1 1464 18
 4979 0118 7B68     		ldr	r3, [r7, #4]
 4980 011a 4FF40072 		mov	r2, #512
 4981 011e 5A62     		str	r2, [r3, #36]
1465:STM32Cube_FW_N6/Drivers/STM32N6xx_HAL_Driver/Src/stm32n6xx_ll_usb.c ****   USBx->DIEPTXF0_HNPTXFSIZ = (uint32_t)(((0x100U << 16) & USB_OTG_NPTXFD) | 0x200U);
 4982              		.loc 1 1465 28
 4983 0120 7B68     		ldr	r3, [r7, #4]
 4984 0122 0F4A     		ldr	r2, .L216
 4985 0124 9A62     		str	r2, [r3, #40]
1466:STM32Cube_FW_N6/Drivers/STM32N6xx_HAL_Driver/Src/stm32n6xx_ll_usb.c ****   USBx->HPTXFSIZ = (uint32_t)(((0xE0U << 16) & USB_OTG_HPTXFSIZ_PTXFD) | 0x300U);
 4986              		.loc 1 1466 18
 4987 0126 7B68     		ldr	r3, [r7, #4]
 4988 0128 0E4A     		ldr	r2, .L216+4
 4989 012a C3F80021 		str	r2, [r3, #256]
1467:STM32Cube_FW_N6/Drivers/STM32N6xx_HAL_Driver/Src/stm32n6xx_ll_usb.c **** 
1468:STM32Cube_FW_N6/Drivers/STM32N6xx_HAL_Driver/Src/stm32n6xx_ll_usb.c ****   /* Enable the common interrupts */
1469:STM32Cube_FW_N6/Drivers/STM32N6xx_HAL_Driver/Src/stm32n6xx_ll_usb.c ****   if (cfg.dma_enable == 0U)
 4990              		.loc 1 1469 10
 4991 012e 97F82630 		ldrb	r3, [r7, #38]	@ zero_extendqisi2
 4992              		.loc 1 1469 6
 4993 0132 002B     		cmp	r3, #0
 4994 0134 05D1     		bne	.L214
1470:STM32Cube_FW_N6/Drivers/STM32N6xx_HAL_Driver/Src/stm32n6xx_ll_usb.c ****   {
1471:STM32Cube_FW_N6/Drivers/STM32N6xx_HAL_Driver/Src/stm32n6xx_ll_usb.c ****     USBx->GINTMSK |= USB_OTG_GINTMSK_RXFLVLM;
 4995              		.loc 1 1471 9
 4996 0136 7B68     		ldr	r3, [r7, #4]
 4997 0138 9B69     		ldr	r3, [r3, #24]
 4998              		.loc 1 1471 19
 4999 013a 43F01002 		orr	r2, r3, #16
 5000 013e 7B68     		ldr	r3, [r7, #4]
 5001 0140 9A61     		str	r2, [r3, #24]
 5002              	.L214:
1472:STM32Cube_FW_N6/Drivers/STM32N6xx_HAL_Driver/Src/stm32n6xx_ll_usb.c ****   }
1473:STM32Cube_FW_N6/Drivers/STM32N6xx_HAL_Driver/Src/stm32n6xx_ll_usb.c **** 
1474:STM32Cube_FW_N6/Drivers/STM32N6xx_HAL_Driver/Src/stm32n6xx_ll_usb.c ****   /* Enable interrupts matching to the Host mode ONLY */
1475:STM32Cube_FW_N6/Drivers/STM32N6xx_HAL_Driver/Src/stm32n6xx_ll_usb.c ****   USBx->GINTMSK |= (USB_OTG_GINTMSK_PRTIM            | USB_OTG_GINTMSK_HCIM | \
 5003              		.loc 1 1475 7
ARM GAS  /tmp/ccxt1UfV.s 			page 114


 5004 0142 7B68     		ldr	r3, [r7, #4]
 5005 0144 9A69     		ldr	r2, [r3, #24]
 5006              		.loc 1 1475 17
 5007 0146 084B     		ldr	r3, .L216+8
 5008 0148 1343     		orrs	r3, r3, r2
 5009 014a 7A68     		ldr	r2, [r7, #4]
 5010 014c 9361     		str	r3, [r2, #24]
1476:STM32Cube_FW_N6/Drivers/STM32N6xx_HAL_Driver/Src/stm32n6xx_ll_usb.c ****                     USB_OTG_GINTMSK_SOFM             | USB_OTG_GINTSTS_DISCINT | \
1477:STM32Cube_FW_N6/Drivers/STM32N6xx_HAL_Driver/Src/stm32n6xx_ll_usb.c ****                     USB_OTG_GINTMSK_PXFRM_IISOOXFRM  | USB_OTG_GINTMSK_WUIM);
1478:STM32Cube_FW_N6/Drivers/STM32N6xx_HAL_Driver/Src/stm32n6xx_ll_usb.c **** 
1479:STM32Cube_FW_N6/Drivers/STM32N6xx_HAL_Driver/Src/stm32n6xx_ll_usb.c ****   return ret;
 5011              		.loc 1 1479 10
 5012 014e FB7D     		ldrb	r3, [r7, #23]	@ zero_extendqisi2
1480:STM32Cube_FW_N6/Drivers/STM32N6xx_HAL_Driver/Src/stm32n6xx_ll_usb.c **** }
 5013              		.loc 1 1480 1
 5014 0150 1846     		mov	r0, r3
 5015 0152 1837     		adds	r7, r7, #24
 5016              		.cfi_def_cfa_offset 24
 5017 0154 BD46     		mov	sp, r7
 5018              		.cfi_def_cfa_register 13
 5019              		@ sp needed
 5020 0156 BDE88040 		pop	{r7, lr}
 5021              		.cfi_restore 14
 5022              		.cfi_restore 7
 5023              		.cfi_def_cfa_offset 16
 5024 015a 04B0     		add	sp, sp, #16
 5025              		.cfi_def_cfa_offset 0
 5026 015c 7047     		bx	lr
 5027              	.L217:
 5028 015e 00BF     		.align	2
 5029              	.L216:
 5030 0160 00020001 		.word	16777728
 5031 0164 0003E000 		.word	14680832
 5032 0168 080020A3 		.word	-1558183928
 5033              		.cfi_endproc
 5034              	.LFE870:
 5036              		.section	.text.USB_InitFSLSPClkSel,"ax",%progbits
 5037              		.align	1
 5038              		.global	USB_InitFSLSPClkSel
 5039              		.syntax unified
 5040              		.thumb
 5041              		.thumb_func
 5043              	USB_InitFSLSPClkSel:
 5044              	.LFB871:
1481:STM32Cube_FW_N6/Drivers/STM32N6xx_HAL_Driver/Src/stm32n6xx_ll_usb.c **** 
1482:STM32Cube_FW_N6/Drivers/STM32N6xx_HAL_Driver/Src/stm32n6xx_ll_usb.c **** /**
1483:STM32Cube_FW_N6/Drivers/STM32N6xx_HAL_Driver/Src/stm32n6xx_ll_usb.c ****   * @brief  USB_InitFSLSPClkSel : Initializes the FSLSPClkSel field of the
1484:STM32Cube_FW_N6/Drivers/STM32N6xx_HAL_Driver/Src/stm32n6xx_ll_usb.c ****   *         HCFG register on the PHY type and set the right frame interval
1485:STM32Cube_FW_N6/Drivers/STM32N6xx_HAL_Driver/Src/stm32n6xx_ll_usb.c ****   * @param  USBx  Selected device
1486:STM32Cube_FW_N6/Drivers/STM32N6xx_HAL_Driver/Src/stm32n6xx_ll_usb.c ****   * @param  freq  clock frequency
1487:STM32Cube_FW_N6/Drivers/STM32N6xx_HAL_Driver/Src/stm32n6xx_ll_usb.c ****   *          This parameter can be one of these values:
1488:STM32Cube_FW_N6/Drivers/STM32N6xx_HAL_Driver/Src/stm32n6xx_ll_usb.c ****   *           HCFG_48_MHZ : Full Speed 48 MHz Clock
1489:STM32Cube_FW_N6/Drivers/STM32N6xx_HAL_Driver/Src/stm32n6xx_ll_usb.c ****   *           HCFG_6_MHZ : Low Speed 6 MHz Clock
1490:STM32Cube_FW_N6/Drivers/STM32N6xx_HAL_Driver/Src/stm32n6xx_ll_usb.c ****   * @retval HAL status
1491:STM32Cube_FW_N6/Drivers/STM32N6xx_HAL_Driver/Src/stm32n6xx_ll_usb.c ****   */
1492:STM32Cube_FW_N6/Drivers/STM32N6xx_HAL_Driver/Src/stm32n6xx_ll_usb.c **** HAL_StatusTypeDef USB_InitFSLSPClkSel(const USB_OTG_GlobalTypeDef *USBx, uint8_t freq)
1493:STM32Cube_FW_N6/Drivers/STM32N6xx_HAL_Driver/Src/stm32n6xx_ll_usb.c **** {
ARM GAS  /tmp/ccxt1UfV.s 			page 115


 5045              		.loc 1 1493 1
 5046              		.cfi_startproc
 5047              		@ args = 0, pretend = 0, frame = 16
 5048              		@ frame_needed = 1, uses_anonymous_args = 0
 5049              		@ link register save eliminated.
 5050 0000 80B4     		push	{r7}
 5051              		.cfi_def_cfa_offset 4
 5052              		.cfi_offset 7, -4
 5053 0002 85B0     		sub	sp, sp, #20
 5054              		.cfi_def_cfa_offset 24
 5055 0004 00AF     		add	r7, sp, #0
 5056              		.cfi_def_cfa_register 7
 5057 0006 7860     		str	r0, [r7, #4]
 5058 0008 0B46     		mov	r3, r1
 5059 000a FB70     		strb	r3, [r7, #3]
1494:STM32Cube_FW_N6/Drivers/STM32N6xx_HAL_Driver/Src/stm32n6xx_ll_usb.c ****   uint32_t USBx_BASE = (uint32_t)USBx;
 5060              		.loc 1 1494 12
 5061 000c 7B68     		ldr	r3, [r7, #4]
 5062 000e FB60     		str	r3, [r7, #12]
1495:STM32Cube_FW_N6/Drivers/STM32N6xx_HAL_Driver/Src/stm32n6xx_ll_usb.c **** 
1496:STM32Cube_FW_N6/Drivers/STM32N6xx_HAL_Driver/Src/stm32n6xx_ll_usb.c ****   USBx_HOST->HCFG &= ~(USB_OTG_HCFG_FSLSPCS);
 5063              		.loc 1 1496 12
 5064 0010 FB68     		ldr	r3, [r7, #12]
 5065 0012 03F58063 		add	r3, r3, #1024
 5066 0016 1B68     		ldr	r3, [r3]
 5067 0018 FA68     		ldr	r2, [r7, #12]
 5068 001a 02F58062 		add	r2, r2, #1024
 5069              		.loc 1 1496 19
 5070 001e 23F00303 		bic	r3, r3, #3
 5071 0022 1360     		str	r3, [r2]
1497:STM32Cube_FW_N6/Drivers/STM32N6xx_HAL_Driver/Src/stm32n6xx_ll_usb.c ****   USBx_HOST->HCFG |= (uint32_t)freq & USB_OTG_HCFG_FSLSPCS;
 5072              		.loc 1 1497 12
 5073 0024 FB68     		ldr	r3, [r7, #12]
 5074 0026 03F58063 		add	r3, r3, #1024
 5075 002a 1A68     		ldr	r2, [r3]
 5076              		.loc 1 1497 37
 5077 002c FB78     		ldrb	r3, [r7, #3]	@ zero_extendqisi2
 5078 002e 03F00303 		and	r3, r3, #3
 5079              		.loc 1 1497 12
 5080 0032 F968     		ldr	r1, [r7, #12]
 5081 0034 01F58061 		add	r1, r1, #1024
 5082              		.loc 1 1497 19
 5083 0038 1343     		orrs	r3, r3, r2
 5084 003a 0B60     		str	r3, [r1]
1498:STM32Cube_FW_N6/Drivers/STM32N6xx_HAL_Driver/Src/stm32n6xx_ll_usb.c **** 
1499:STM32Cube_FW_N6/Drivers/STM32N6xx_HAL_Driver/Src/stm32n6xx_ll_usb.c ****   if (freq == HCFG_48_MHZ)
 5085              		.loc 1 1499 6
 5086 003c FB78     		ldrb	r3, [r7, #3]	@ zero_extendqisi2
 5087 003e 012B     		cmp	r3, #1
 5088 0040 07D1     		bne	.L219
1500:STM32Cube_FW_N6/Drivers/STM32N6xx_HAL_Driver/Src/stm32n6xx_ll_usb.c ****   {
1501:STM32Cube_FW_N6/Drivers/STM32N6xx_HAL_Driver/Src/stm32n6xx_ll_usb.c ****     USBx_HOST->HFIR = HFIR_48_MHZ;
 5089              		.loc 1 1501 5
 5090 0042 FB68     		ldr	r3, [r7, #12]
 5091 0044 03F58063 		add	r3, r3, #1024
 5092 0048 1A46     		mov	r2, r3
 5093              		.loc 1 1501 21
ARM GAS  /tmp/ccxt1UfV.s 			page 116


 5094 004a 4BF68033 		movw	r3, #48000
 5095 004e 5360     		str	r3, [r2, #4]
 5096 0050 0CE0     		b	.L220
 5097              	.L219:
1502:STM32Cube_FW_N6/Drivers/STM32N6xx_HAL_Driver/Src/stm32n6xx_ll_usb.c ****   }
1503:STM32Cube_FW_N6/Drivers/STM32N6xx_HAL_Driver/Src/stm32n6xx_ll_usb.c ****   else if (freq == HCFG_6_MHZ)
 5098              		.loc 1 1503 11
 5099 0052 FB78     		ldrb	r3, [r7, #3]	@ zero_extendqisi2
 5100 0054 022B     		cmp	r3, #2
 5101 0056 07D1     		bne	.L221
1504:STM32Cube_FW_N6/Drivers/STM32N6xx_HAL_Driver/Src/stm32n6xx_ll_usb.c ****   {
1505:STM32Cube_FW_N6/Drivers/STM32N6xx_HAL_Driver/Src/stm32n6xx_ll_usb.c ****     USBx_HOST->HFIR = HFIR_6_MHZ;
 5102              		.loc 1 1505 5
 5103 0058 FB68     		ldr	r3, [r7, #12]
 5104 005a 03F58063 		add	r3, r3, #1024
 5105 005e 1A46     		mov	r2, r3
 5106              		.loc 1 1505 21
 5107 0060 41F27073 		movw	r3, #6000
 5108 0064 5360     		str	r3, [r2, #4]
 5109 0066 01E0     		b	.L220
 5110              	.L221:
1506:STM32Cube_FW_N6/Drivers/STM32N6xx_HAL_Driver/Src/stm32n6xx_ll_usb.c ****   }
1507:STM32Cube_FW_N6/Drivers/STM32N6xx_HAL_Driver/Src/stm32n6xx_ll_usb.c ****   else
1508:STM32Cube_FW_N6/Drivers/STM32N6xx_HAL_Driver/Src/stm32n6xx_ll_usb.c ****   {
1509:STM32Cube_FW_N6/Drivers/STM32N6xx_HAL_Driver/Src/stm32n6xx_ll_usb.c ****     return HAL_ERROR;
 5111              		.loc 1 1509 12
 5112 0068 0123     		movs	r3, #1
 5113 006a 00E0     		b	.L222
 5114              	.L220:
1510:STM32Cube_FW_N6/Drivers/STM32N6xx_HAL_Driver/Src/stm32n6xx_ll_usb.c ****   }
1511:STM32Cube_FW_N6/Drivers/STM32N6xx_HAL_Driver/Src/stm32n6xx_ll_usb.c **** 
1512:STM32Cube_FW_N6/Drivers/STM32N6xx_HAL_Driver/Src/stm32n6xx_ll_usb.c ****   return HAL_OK;
 5115              		.loc 1 1512 10
 5116 006c 0023     		movs	r3, #0
 5117              	.L222:
1513:STM32Cube_FW_N6/Drivers/STM32N6xx_HAL_Driver/Src/stm32n6xx_ll_usb.c **** }
 5118              		.loc 1 1513 1
 5119 006e 1846     		mov	r0, r3
 5120 0070 1437     		adds	r7, r7, #20
 5121              		.cfi_def_cfa_offset 4
 5122 0072 BD46     		mov	sp, r7
 5123              		.cfi_def_cfa_register 13
 5124              		@ sp needed
 5125 0074 5DF8047B 		ldr	r7, [sp], #4
 5126              		.cfi_restore 7
 5127              		.cfi_def_cfa_offset 0
 5128 0078 7047     		bx	lr
 5129              		.cfi_endproc
 5130              	.LFE871:
 5132              		.section	.text.USB_ResetPort,"ax",%progbits
 5133              		.align	1
 5134              		.global	USB_ResetPort
 5135              		.syntax unified
 5136              		.thumb
 5137              		.thumb_func
 5139              	USB_ResetPort:
 5140              	.LFB872:
ARM GAS  /tmp/ccxt1UfV.s 			page 117


1514:STM32Cube_FW_N6/Drivers/STM32N6xx_HAL_Driver/Src/stm32n6xx_ll_usb.c **** 
1515:STM32Cube_FW_N6/Drivers/STM32N6xx_HAL_Driver/Src/stm32n6xx_ll_usb.c **** /**
1516:STM32Cube_FW_N6/Drivers/STM32N6xx_HAL_Driver/Src/stm32n6xx_ll_usb.c ****   * @brief  USB_OTG_ResetPort : Reset Host Port
1517:STM32Cube_FW_N6/Drivers/STM32N6xx_HAL_Driver/Src/stm32n6xx_ll_usb.c ****   * @param  USBx  Selected device
1518:STM32Cube_FW_N6/Drivers/STM32N6xx_HAL_Driver/Src/stm32n6xx_ll_usb.c ****   * @retval HAL status
1519:STM32Cube_FW_N6/Drivers/STM32N6xx_HAL_Driver/Src/stm32n6xx_ll_usb.c ****   * @note (1)The application must wait at least 10 ms
1520:STM32Cube_FW_N6/Drivers/STM32N6xx_HAL_Driver/Src/stm32n6xx_ll_usb.c ****   *   before clearing the reset bit.
1521:STM32Cube_FW_N6/Drivers/STM32N6xx_HAL_Driver/Src/stm32n6xx_ll_usb.c ****   */
1522:STM32Cube_FW_N6/Drivers/STM32N6xx_HAL_Driver/Src/stm32n6xx_ll_usb.c **** HAL_StatusTypeDef USB_ResetPort(const USB_OTG_GlobalTypeDef *USBx)
1523:STM32Cube_FW_N6/Drivers/STM32N6xx_HAL_Driver/Src/stm32n6xx_ll_usb.c **** {
 5141              		.loc 1 1523 1
 5142              		.cfi_startproc
 5143              		@ args = 0, pretend = 0, frame = 16
 5144              		@ frame_needed = 1, uses_anonymous_args = 0
 5145 0000 80B5     		push	{r7, lr}
 5146              		.cfi_def_cfa_offset 8
 5147              		.cfi_offset 7, -8
 5148              		.cfi_offset 14, -4
 5149 0002 84B0     		sub	sp, sp, #16
 5150              		.cfi_def_cfa_offset 24
 5151 0004 00AF     		add	r7, sp, #0
 5152              		.cfi_def_cfa_register 7
 5153 0006 7860     		str	r0, [r7, #4]
1524:STM32Cube_FW_N6/Drivers/STM32N6xx_HAL_Driver/Src/stm32n6xx_ll_usb.c ****   uint32_t USBx_BASE = (uint32_t)USBx;
 5154              		.loc 1 1524 12
 5155 0008 7B68     		ldr	r3, [r7, #4]
 5156 000a FB60     		str	r3, [r7, #12]
1525:STM32Cube_FW_N6/Drivers/STM32N6xx_HAL_Driver/Src/stm32n6xx_ll_usb.c **** 
1526:STM32Cube_FW_N6/Drivers/STM32N6xx_HAL_Driver/Src/stm32n6xx_ll_usb.c ****   __IO uint32_t hprt0 = 0U;
 5157              		.loc 1 1526 17
 5158 000c 0023     		movs	r3, #0
 5159 000e BB60     		str	r3, [r7, #8]
1527:STM32Cube_FW_N6/Drivers/STM32N6xx_HAL_Driver/Src/stm32n6xx_ll_usb.c **** 
1528:STM32Cube_FW_N6/Drivers/STM32N6xx_HAL_Driver/Src/stm32n6xx_ll_usb.c ****   hprt0 = USBx_HPRT0;
 5160              		.loc 1 1528 11
 5161 0010 FB68     		ldr	r3, [r7, #12]
 5162 0012 03F58863 		add	r3, r3, #1088
 5163 0016 1B68     		ldr	r3, [r3]
 5164              		.loc 1 1528 9
 5165 0018 BB60     		str	r3, [r7, #8]
1529:STM32Cube_FW_N6/Drivers/STM32N6xx_HAL_Driver/Src/stm32n6xx_ll_usb.c **** 
1530:STM32Cube_FW_N6/Drivers/STM32N6xx_HAL_Driver/Src/stm32n6xx_ll_usb.c ****   hprt0 &= ~(USB_OTG_HPRT_PENA | USB_OTG_HPRT_PCDET |
 5166              		.loc 1 1530 9
 5167 001a BB68     		ldr	r3, [r7, #8]
 5168 001c 23F02E03 		bic	r3, r3, #46
 5169 0020 BB60     		str	r3, [r7, #8]
1531:STM32Cube_FW_N6/Drivers/STM32N6xx_HAL_Driver/Src/stm32n6xx_ll_usb.c ****              USB_OTG_HPRT_PENCHNG | USB_OTG_HPRT_POCCHNG);
1532:STM32Cube_FW_N6/Drivers/STM32N6xx_HAL_Driver/Src/stm32n6xx_ll_usb.c **** 
1533:STM32Cube_FW_N6/Drivers/STM32N6xx_HAL_Driver/Src/stm32n6xx_ll_usb.c ****   USBx_HPRT0 = (USB_OTG_HPRT_PRST | hprt0);
 5170              		.loc 1 1533 35
 5171 0022 BB68     		ldr	r3, [r7, #8]
 5172              		.loc 1 1533 3
 5173 0024 FA68     		ldr	r2, [r7, #12]
 5174 0026 02F58862 		add	r2, r2, #1088
 5175              		.loc 1 1533 35
 5176 002a 43F48073 		orr	r3, r3, #256
 5177              		.loc 1 1533 14
ARM GAS  /tmp/ccxt1UfV.s 			page 118


 5178 002e 1360     		str	r3, [r2]
1534:STM32Cube_FW_N6/Drivers/STM32N6xx_HAL_Driver/Src/stm32n6xx_ll_usb.c ****   HAL_Delay(100U);                                 /* See Note #1 */
 5179              		.loc 1 1534 3
 5180 0030 6420     		movs	r0, #100
 5181 0032 FFF7FEFF 		bl	HAL_Delay
1535:STM32Cube_FW_N6/Drivers/STM32N6xx_HAL_Driver/Src/stm32n6xx_ll_usb.c ****   USBx_HPRT0 = ((~USB_OTG_HPRT_PRST) & hprt0);
 5182              		.loc 1 1535 38
 5183 0036 BB68     		ldr	r3, [r7, #8]
 5184              		.loc 1 1535 3
 5185 0038 FA68     		ldr	r2, [r7, #12]
 5186 003a 02F58862 		add	r2, r2, #1088
 5187              		.loc 1 1535 38
 5188 003e 23F48073 		bic	r3, r3, #256
 5189              		.loc 1 1535 14
 5190 0042 1360     		str	r3, [r2]
1536:STM32Cube_FW_N6/Drivers/STM32N6xx_HAL_Driver/Src/stm32n6xx_ll_usb.c ****   HAL_Delay(10U);
 5191              		.loc 1 1536 3
 5192 0044 0A20     		movs	r0, #10
 5193 0046 FFF7FEFF 		bl	HAL_Delay
1537:STM32Cube_FW_N6/Drivers/STM32N6xx_HAL_Driver/Src/stm32n6xx_ll_usb.c **** 
1538:STM32Cube_FW_N6/Drivers/STM32N6xx_HAL_Driver/Src/stm32n6xx_ll_usb.c ****   return HAL_OK;
 5194              		.loc 1 1538 10
 5195 004a 0023     		movs	r3, #0
1539:STM32Cube_FW_N6/Drivers/STM32N6xx_HAL_Driver/Src/stm32n6xx_ll_usb.c **** }
 5196              		.loc 1 1539 1
 5197 004c 1846     		mov	r0, r3
 5198 004e 1037     		adds	r7, r7, #16
 5199              		.cfi_def_cfa_offset 8
 5200 0050 BD46     		mov	sp, r7
 5201              		.cfi_def_cfa_register 13
 5202              		@ sp needed
 5203 0052 80BD     		pop	{r7, pc}
 5204              		.cfi_endproc
 5205              	.LFE872:
 5207              		.section	.text.USB_DriveVbus,"ax",%progbits
 5208              		.align	1
 5209              		.global	USB_DriveVbus
 5210              		.syntax unified
 5211              		.thumb
 5212              		.thumb_func
 5214              	USB_DriveVbus:
 5215              	.LFB873:
1540:STM32Cube_FW_N6/Drivers/STM32N6xx_HAL_Driver/Src/stm32n6xx_ll_usb.c **** 
1541:STM32Cube_FW_N6/Drivers/STM32N6xx_HAL_Driver/Src/stm32n6xx_ll_usb.c **** /**
1542:STM32Cube_FW_N6/Drivers/STM32N6xx_HAL_Driver/Src/stm32n6xx_ll_usb.c ****   * @brief  USB_DriveVbus : activate or de-activate vbus
1543:STM32Cube_FW_N6/Drivers/STM32N6xx_HAL_Driver/Src/stm32n6xx_ll_usb.c ****   * @param  state  VBUS state
1544:STM32Cube_FW_N6/Drivers/STM32N6xx_HAL_Driver/Src/stm32n6xx_ll_usb.c ****   *          This parameter can be one of these values:
1545:STM32Cube_FW_N6/Drivers/STM32N6xx_HAL_Driver/Src/stm32n6xx_ll_usb.c ****   *           0 : Deactivate VBUS
1546:STM32Cube_FW_N6/Drivers/STM32N6xx_HAL_Driver/Src/stm32n6xx_ll_usb.c ****   *           1 : Activate VBUS
1547:STM32Cube_FW_N6/Drivers/STM32N6xx_HAL_Driver/Src/stm32n6xx_ll_usb.c ****   * @retval HAL status
1548:STM32Cube_FW_N6/Drivers/STM32N6xx_HAL_Driver/Src/stm32n6xx_ll_usb.c ****   */
1549:STM32Cube_FW_N6/Drivers/STM32N6xx_HAL_Driver/Src/stm32n6xx_ll_usb.c **** HAL_StatusTypeDef USB_DriveVbus(const USB_OTG_GlobalTypeDef *USBx, uint8_t state)
1550:STM32Cube_FW_N6/Drivers/STM32N6xx_HAL_Driver/Src/stm32n6xx_ll_usb.c **** {
 5216              		.loc 1 1550 1
 5217              		.cfi_startproc
 5218              		@ args = 0, pretend = 0, frame = 16
 5219              		@ frame_needed = 1, uses_anonymous_args = 0
ARM GAS  /tmp/ccxt1UfV.s 			page 119


 5220              		@ link register save eliminated.
 5221 0000 80B4     		push	{r7}
 5222              		.cfi_def_cfa_offset 4
 5223              		.cfi_offset 7, -4
 5224 0002 85B0     		sub	sp, sp, #20
 5225              		.cfi_def_cfa_offset 24
 5226 0004 00AF     		add	r7, sp, #0
 5227              		.cfi_def_cfa_register 7
 5228 0006 7860     		str	r0, [r7, #4]
 5229 0008 0B46     		mov	r3, r1
 5230 000a FB70     		strb	r3, [r7, #3]
1551:STM32Cube_FW_N6/Drivers/STM32N6xx_HAL_Driver/Src/stm32n6xx_ll_usb.c ****   uint32_t USBx_BASE = (uint32_t)USBx;
 5231              		.loc 1 1551 12
 5232 000c 7B68     		ldr	r3, [r7, #4]
 5233 000e FB60     		str	r3, [r7, #12]
1552:STM32Cube_FW_N6/Drivers/STM32N6xx_HAL_Driver/Src/stm32n6xx_ll_usb.c ****   __IO uint32_t hprt0 = 0U;
 5234              		.loc 1 1552 17
 5235 0010 0023     		movs	r3, #0
 5236 0012 BB60     		str	r3, [r7, #8]
1553:STM32Cube_FW_N6/Drivers/STM32N6xx_HAL_Driver/Src/stm32n6xx_ll_usb.c **** 
1554:STM32Cube_FW_N6/Drivers/STM32N6xx_HAL_Driver/Src/stm32n6xx_ll_usb.c ****   hprt0 = USBx_HPRT0;
 5237              		.loc 1 1554 11
 5238 0014 FB68     		ldr	r3, [r7, #12]
 5239 0016 03F58863 		add	r3, r3, #1088
 5240 001a 1B68     		ldr	r3, [r3]
 5241              		.loc 1 1554 9
 5242 001c BB60     		str	r3, [r7, #8]
1555:STM32Cube_FW_N6/Drivers/STM32N6xx_HAL_Driver/Src/stm32n6xx_ll_usb.c **** 
1556:STM32Cube_FW_N6/Drivers/STM32N6xx_HAL_Driver/Src/stm32n6xx_ll_usb.c ****   hprt0 &= ~(USB_OTG_HPRT_PENA | USB_OTG_HPRT_PCDET |
 5243              		.loc 1 1556 9
 5244 001e BB68     		ldr	r3, [r7, #8]
 5245 0020 23F02E03 		bic	r3, r3, #46
 5246 0024 BB60     		str	r3, [r7, #8]
1557:STM32Cube_FW_N6/Drivers/STM32N6xx_HAL_Driver/Src/stm32n6xx_ll_usb.c ****              USB_OTG_HPRT_PENCHNG | USB_OTG_HPRT_POCCHNG);
1558:STM32Cube_FW_N6/Drivers/STM32N6xx_HAL_Driver/Src/stm32n6xx_ll_usb.c **** 
1559:STM32Cube_FW_N6/Drivers/STM32N6xx_HAL_Driver/Src/stm32n6xx_ll_usb.c ****   if (((hprt0 & USB_OTG_HPRT_PPWR) == 0U) && (state == 1U))
 5247              		.loc 1 1559 15
 5248 0026 BB68     		ldr	r3, [r7, #8]
 5249 0028 03F48053 		and	r3, r3, #4096
 5250              		.loc 1 1559 6
 5251 002c 002B     		cmp	r3, #0
 5252 002e 09D1     		bne	.L226
 5253              		.loc 1 1559 43 discriminator 1
 5254 0030 FB78     		ldrb	r3, [r7, #3]	@ zero_extendqisi2
 5255 0032 012B     		cmp	r3, #1
 5256 0034 06D1     		bne	.L226
1560:STM32Cube_FW_N6/Drivers/STM32N6xx_HAL_Driver/Src/stm32n6xx_ll_usb.c ****   {
1561:STM32Cube_FW_N6/Drivers/STM32N6xx_HAL_Driver/Src/stm32n6xx_ll_usb.c ****     USBx_HPRT0 = (USB_OTG_HPRT_PPWR | hprt0);
 5257              		.loc 1 1561 37
 5258 0036 BB68     		ldr	r3, [r7, #8]
 5259              		.loc 1 1561 5
 5260 0038 FA68     		ldr	r2, [r7, #12]
 5261 003a 02F58862 		add	r2, r2, #1088
 5262              		.loc 1 1561 37
 5263 003e 43F48053 		orr	r3, r3, #4096
 5264              		.loc 1 1561 16
 5265 0042 1360     		str	r3, [r2]
ARM GAS  /tmp/ccxt1UfV.s 			page 120


 5266              	.L226:
1562:STM32Cube_FW_N6/Drivers/STM32N6xx_HAL_Driver/Src/stm32n6xx_ll_usb.c ****   }
1563:STM32Cube_FW_N6/Drivers/STM32N6xx_HAL_Driver/Src/stm32n6xx_ll_usb.c ****   if (((hprt0 & USB_OTG_HPRT_PPWR) == USB_OTG_HPRT_PPWR) && (state == 0U))
 5267              		.loc 1 1563 15
 5268 0044 BB68     		ldr	r3, [r7, #8]
 5269 0046 03F48053 		and	r3, r3, #4096
 5270              		.loc 1 1563 6
 5271 004a B3F5805F 		cmp	r3, #4096
 5272 004e 09D1     		bne	.L227
 5273              		.loc 1 1563 58 discriminator 1
 5274 0050 FB78     		ldrb	r3, [r7, #3]	@ zero_extendqisi2
 5275 0052 002B     		cmp	r3, #0
 5276 0054 06D1     		bne	.L227
1564:STM32Cube_FW_N6/Drivers/STM32N6xx_HAL_Driver/Src/stm32n6xx_ll_usb.c ****   {
1565:STM32Cube_FW_N6/Drivers/STM32N6xx_HAL_Driver/Src/stm32n6xx_ll_usb.c ****     USBx_HPRT0 = ((~USB_OTG_HPRT_PPWR) & hprt0);
 5277              		.loc 1 1565 40
 5278 0056 BB68     		ldr	r3, [r7, #8]
 5279              		.loc 1 1565 5
 5280 0058 FA68     		ldr	r2, [r7, #12]
 5281 005a 02F58862 		add	r2, r2, #1088
 5282              		.loc 1 1565 40
 5283 005e 23F48053 		bic	r3, r3, #4096
 5284              		.loc 1 1565 16
 5285 0062 1360     		str	r3, [r2]
 5286              	.L227:
1566:STM32Cube_FW_N6/Drivers/STM32N6xx_HAL_Driver/Src/stm32n6xx_ll_usb.c ****   }
1567:STM32Cube_FW_N6/Drivers/STM32N6xx_HAL_Driver/Src/stm32n6xx_ll_usb.c ****   return HAL_OK;
 5287              		.loc 1 1567 10
 5288 0064 0023     		movs	r3, #0
1568:STM32Cube_FW_N6/Drivers/STM32N6xx_HAL_Driver/Src/stm32n6xx_ll_usb.c **** }
 5289              		.loc 1 1568 1
 5290 0066 1846     		mov	r0, r3
 5291 0068 1437     		adds	r7, r7, #20
 5292              		.cfi_def_cfa_offset 4
 5293 006a BD46     		mov	sp, r7
 5294              		.cfi_def_cfa_register 13
 5295              		@ sp needed
 5296 006c 5DF8047B 		ldr	r7, [sp], #4
 5297              		.cfi_restore 7
 5298              		.cfi_def_cfa_offset 0
 5299 0070 7047     		bx	lr
 5300              		.cfi_endproc
 5301              	.LFE873:
 5303              		.section	.text.USB_GetHostSpeed,"ax",%progbits
 5304              		.align	1
 5305              		.global	USB_GetHostSpeed
 5306              		.syntax unified
 5307              		.thumb
 5308              		.thumb_func
 5310              	USB_GetHostSpeed:
 5311              	.LFB874:
1569:STM32Cube_FW_N6/Drivers/STM32N6xx_HAL_Driver/Src/stm32n6xx_ll_usb.c **** 
1570:STM32Cube_FW_N6/Drivers/STM32N6xx_HAL_Driver/Src/stm32n6xx_ll_usb.c **** /**
1571:STM32Cube_FW_N6/Drivers/STM32N6xx_HAL_Driver/Src/stm32n6xx_ll_usb.c ****   * @brief  Return Host Core speed
1572:STM32Cube_FW_N6/Drivers/STM32N6xx_HAL_Driver/Src/stm32n6xx_ll_usb.c ****   * @param  USBx  Selected device
1573:STM32Cube_FW_N6/Drivers/STM32N6xx_HAL_Driver/Src/stm32n6xx_ll_usb.c ****   * @retval speed : Host speed
1574:STM32Cube_FW_N6/Drivers/STM32N6xx_HAL_Driver/Src/stm32n6xx_ll_usb.c ****   *          This parameter can be one of these values:
ARM GAS  /tmp/ccxt1UfV.s 			page 121


1575:STM32Cube_FW_N6/Drivers/STM32N6xx_HAL_Driver/Src/stm32n6xx_ll_usb.c ****   *            @arg HCD_SPEED_HIGH: High speed mode
1576:STM32Cube_FW_N6/Drivers/STM32N6xx_HAL_Driver/Src/stm32n6xx_ll_usb.c ****   *            @arg HCD_SPEED_FULL: Full speed mode
1577:STM32Cube_FW_N6/Drivers/STM32N6xx_HAL_Driver/Src/stm32n6xx_ll_usb.c ****   *            @arg HCD_SPEED_LOW: Low speed mode
1578:STM32Cube_FW_N6/Drivers/STM32N6xx_HAL_Driver/Src/stm32n6xx_ll_usb.c ****   */
1579:STM32Cube_FW_N6/Drivers/STM32N6xx_HAL_Driver/Src/stm32n6xx_ll_usb.c **** uint32_t USB_GetHostSpeed(USB_OTG_GlobalTypeDef const *USBx)
1580:STM32Cube_FW_N6/Drivers/STM32N6xx_HAL_Driver/Src/stm32n6xx_ll_usb.c **** {
 5312              		.loc 1 1580 1
 5313              		.cfi_startproc
 5314              		@ args = 0, pretend = 0, frame = 16
 5315              		@ frame_needed = 1, uses_anonymous_args = 0
 5316              		@ link register save eliminated.
 5317 0000 80B4     		push	{r7}
 5318              		.cfi_def_cfa_offset 4
 5319              		.cfi_offset 7, -4
 5320 0002 85B0     		sub	sp, sp, #20
 5321              		.cfi_def_cfa_offset 24
 5322 0004 00AF     		add	r7, sp, #0
 5323              		.cfi_def_cfa_register 7
 5324 0006 7860     		str	r0, [r7, #4]
1581:STM32Cube_FW_N6/Drivers/STM32N6xx_HAL_Driver/Src/stm32n6xx_ll_usb.c ****   uint32_t USBx_BASE = (uint32_t)USBx;
 5325              		.loc 1 1581 12
 5326 0008 7B68     		ldr	r3, [r7, #4]
 5327 000a FB60     		str	r3, [r7, #12]
1582:STM32Cube_FW_N6/Drivers/STM32N6xx_HAL_Driver/Src/stm32n6xx_ll_usb.c ****   __IO uint32_t hprt0 = 0U;
 5328              		.loc 1 1582 17
 5329 000c 0023     		movs	r3, #0
 5330 000e BB60     		str	r3, [r7, #8]
1583:STM32Cube_FW_N6/Drivers/STM32N6xx_HAL_Driver/Src/stm32n6xx_ll_usb.c **** 
1584:STM32Cube_FW_N6/Drivers/STM32N6xx_HAL_Driver/Src/stm32n6xx_ll_usb.c ****   hprt0 = USBx_HPRT0;
 5331              		.loc 1 1584 11
 5332 0010 FB68     		ldr	r3, [r7, #12]
 5333 0012 03F58863 		add	r3, r3, #1088
 5334 0016 1B68     		ldr	r3, [r3]
 5335              		.loc 1 1584 9
 5336 0018 BB60     		str	r3, [r7, #8]
1585:STM32Cube_FW_N6/Drivers/STM32N6xx_HAL_Driver/Src/stm32n6xx_ll_usb.c ****   return ((hprt0 & USB_OTG_HPRT_PSPD) >> 17);
 5337              		.loc 1 1585 39
 5338 001a BB68     		ldr	r3, [r7, #8]
 5339 001c 5B0C     		lsrs	r3, r3, #17
 5340 001e 03F00303 		and	r3, r3, #3
1586:STM32Cube_FW_N6/Drivers/STM32N6xx_HAL_Driver/Src/stm32n6xx_ll_usb.c **** }
 5341              		.loc 1 1586 1
 5342 0022 1846     		mov	r0, r3
 5343 0024 1437     		adds	r7, r7, #20
 5344              		.cfi_def_cfa_offset 4
 5345 0026 BD46     		mov	sp, r7
 5346              		.cfi_def_cfa_register 13
 5347              		@ sp needed
 5348 0028 5DF8047B 		ldr	r7, [sp], #4
 5349              		.cfi_restore 7
 5350              		.cfi_def_cfa_offset 0
 5351 002c 7047     		bx	lr
 5352              		.cfi_endproc
 5353              	.LFE874:
 5355              		.section	.text.USB_GetCurrentFrame,"ax",%progbits
 5356              		.align	1
 5357              		.global	USB_GetCurrentFrame
ARM GAS  /tmp/ccxt1UfV.s 			page 122


 5358              		.syntax unified
 5359              		.thumb
 5360              		.thumb_func
 5362              	USB_GetCurrentFrame:
 5363              	.LFB875:
1587:STM32Cube_FW_N6/Drivers/STM32N6xx_HAL_Driver/Src/stm32n6xx_ll_usb.c **** 
1588:STM32Cube_FW_N6/Drivers/STM32N6xx_HAL_Driver/Src/stm32n6xx_ll_usb.c **** /**
1589:STM32Cube_FW_N6/Drivers/STM32N6xx_HAL_Driver/Src/stm32n6xx_ll_usb.c ****   * @brief  Return Host Current Frame number
1590:STM32Cube_FW_N6/Drivers/STM32N6xx_HAL_Driver/Src/stm32n6xx_ll_usb.c ****   * @param  USBx  Selected device
1591:STM32Cube_FW_N6/Drivers/STM32N6xx_HAL_Driver/Src/stm32n6xx_ll_usb.c ****   * @retval current frame number
1592:STM32Cube_FW_N6/Drivers/STM32N6xx_HAL_Driver/Src/stm32n6xx_ll_usb.c ****   */
1593:STM32Cube_FW_N6/Drivers/STM32N6xx_HAL_Driver/Src/stm32n6xx_ll_usb.c **** uint32_t USB_GetCurrentFrame(USB_OTG_GlobalTypeDef const *USBx)
1594:STM32Cube_FW_N6/Drivers/STM32N6xx_HAL_Driver/Src/stm32n6xx_ll_usb.c **** {
 5364              		.loc 1 1594 1
 5365              		.cfi_startproc
 5366              		@ args = 0, pretend = 0, frame = 16
 5367              		@ frame_needed = 1, uses_anonymous_args = 0
 5368              		@ link register save eliminated.
 5369 0000 80B4     		push	{r7}
 5370              		.cfi_def_cfa_offset 4
 5371              		.cfi_offset 7, -4
 5372 0002 85B0     		sub	sp, sp, #20
 5373              		.cfi_def_cfa_offset 24
 5374 0004 00AF     		add	r7, sp, #0
 5375              		.cfi_def_cfa_register 7
 5376 0006 7860     		str	r0, [r7, #4]
1595:STM32Cube_FW_N6/Drivers/STM32N6xx_HAL_Driver/Src/stm32n6xx_ll_usb.c ****   uint32_t USBx_BASE = (uint32_t)USBx;
 5377              		.loc 1 1595 12
 5378 0008 7B68     		ldr	r3, [r7, #4]
 5379 000a FB60     		str	r3, [r7, #12]
1596:STM32Cube_FW_N6/Drivers/STM32N6xx_HAL_Driver/Src/stm32n6xx_ll_usb.c **** 
1597:STM32Cube_FW_N6/Drivers/STM32N6xx_HAL_Driver/Src/stm32n6xx_ll_usb.c ****   return (USBx_HOST->HFNUM & USB_OTG_HFNUM_FRNUM);
 5380              		.loc 1 1597 11
 5381 000c FB68     		ldr	r3, [r7, #12]
 5382 000e 03F58063 		add	r3, r3, #1024
 5383              		.loc 1 1597 20
 5384 0012 9B68     		ldr	r3, [r3, #8]
 5385              		.loc 1 1597 28
 5386 0014 9BB2     		uxth	r3, r3
1598:STM32Cube_FW_N6/Drivers/STM32N6xx_HAL_Driver/Src/stm32n6xx_ll_usb.c **** }
 5387              		.loc 1 1598 1
 5388 0016 1846     		mov	r0, r3
 5389 0018 1437     		adds	r7, r7, #20
 5390              		.cfi_def_cfa_offset 4
 5391 001a BD46     		mov	sp, r7
 5392              		.cfi_def_cfa_register 13
 5393              		@ sp needed
 5394 001c 5DF8047B 		ldr	r7, [sp], #4
 5395              		.cfi_restore 7
 5396              		.cfi_def_cfa_offset 0
 5397 0020 7047     		bx	lr
 5398              		.cfi_endproc
 5399              	.LFE875:
 5401              		.section	.text.USB_HC_Init,"ax",%progbits
 5402              		.align	1
 5403              		.global	USB_HC_Init
 5404              		.syntax unified
ARM GAS  /tmp/ccxt1UfV.s 			page 123


 5405              		.thumb
 5406              		.thumb_func
 5408              	USB_HC_Init:
 5409              	.LFB876:
1599:STM32Cube_FW_N6/Drivers/STM32N6xx_HAL_Driver/Src/stm32n6xx_ll_usb.c **** 
1600:STM32Cube_FW_N6/Drivers/STM32N6xx_HAL_Driver/Src/stm32n6xx_ll_usb.c **** /**
1601:STM32Cube_FW_N6/Drivers/STM32N6xx_HAL_Driver/Src/stm32n6xx_ll_usb.c ****   * @brief  Initialize a host channel
1602:STM32Cube_FW_N6/Drivers/STM32N6xx_HAL_Driver/Src/stm32n6xx_ll_usb.c ****   * @param  USBx  Selected device
1603:STM32Cube_FW_N6/Drivers/STM32N6xx_HAL_Driver/Src/stm32n6xx_ll_usb.c ****   * @param  ch_num  Channel number
1604:STM32Cube_FW_N6/Drivers/STM32N6xx_HAL_Driver/Src/stm32n6xx_ll_usb.c ****   *         This parameter can be a value from 1 to 15
1605:STM32Cube_FW_N6/Drivers/STM32N6xx_HAL_Driver/Src/stm32n6xx_ll_usb.c ****   * @param  epnum  Endpoint number
1606:STM32Cube_FW_N6/Drivers/STM32N6xx_HAL_Driver/Src/stm32n6xx_ll_usb.c ****   *          This parameter can be a value from 1 to 15
1607:STM32Cube_FW_N6/Drivers/STM32N6xx_HAL_Driver/Src/stm32n6xx_ll_usb.c ****   * @param  dev_address  Current device address
1608:STM32Cube_FW_N6/Drivers/STM32N6xx_HAL_Driver/Src/stm32n6xx_ll_usb.c ****   *          This parameter can be a value from 0 to 255
1609:STM32Cube_FW_N6/Drivers/STM32N6xx_HAL_Driver/Src/stm32n6xx_ll_usb.c ****   * @param  speed  Current device speed
1610:STM32Cube_FW_N6/Drivers/STM32N6xx_HAL_Driver/Src/stm32n6xx_ll_usb.c ****   *          This parameter can be one of these values:
1611:STM32Cube_FW_N6/Drivers/STM32N6xx_HAL_Driver/Src/stm32n6xx_ll_usb.c ****   *            @arg USB_OTG_SPEED_HIGH: High speed mode
1612:STM32Cube_FW_N6/Drivers/STM32N6xx_HAL_Driver/Src/stm32n6xx_ll_usb.c ****   *            @arg USB_OTG_SPEED_FULL: Full speed mode
1613:STM32Cube_FW_N6/Drivers/STM32N6xx_HAL_Driver/Src/stm32n6xx_ll_usb.c ****   *            @arg USB_OTG_SPEED_LOW: Low speed mode
1614:STM32Cube_FW_N6/Drivers/STM32N6xx_HAL_Driver/Src/stm32n6xx_ll_usb.c ****   * @param  ep_type  Endpoint Type
1615:STM32Cube_FW_N6/Drivers/STM32N6xx_HAL_Driver/Src/stm32n6xx_ll_usb.c ****   *          This parameter can be one of these values:
1616:STM32Cube_FW_N6/Drivers/STM32N6xx_HAL_Driver/Src/stm32n6xx_ll_usb.c ****   *            @arg EP_TYPE_CTRL: Control type
1617:STM32Cube_FW_N6/Drivers/STM32N6xx_HAL_Driver/Src/stm32n6xx_ll_usb.c ****   *            @arg EP_TYPE_ISOC: Isochronous type
1618:STM32Cube_FW_N6/Drivers/STM32N6xx_HAL_Driver/Src/stm32n6xx_ll_usb.c ****   *            @arg EP_TYPE_BULK: Bulk type
1619:STM32Cube_FW_N6/Drivers/STM32N6xx_HAL_Driver/Src/stm32n6xx_ll_usb.c ****   *            @arg EP_TYPE_INTR: Interrupt type
1620:STM32Cube_FW_N6/Drivers/STM32N6xx_HAL_Driver/Src/stm32n6xx_ll_usb.c ****   * @param  mps  Max Packet Size
1621:STM32Cube_FW_N6/Drivers/STM32N6xx_HAL_Driver/Src/stm32n6xx_ll_usb.c ****   *          This parameter can be a value from 0 to 32K
1622:STM32Cube_FW_N6/Drivers/STM32N6xx_HAL_Driver/Src/stm32n6xx_ll_usb.c ****   * @retval HAL state
1623:STM32Cube_FW_N6/Drivers/STM32N6xx_HAL_Driver/Src/stm32n6xx_ll_usb.c ****   */
1624:STM32Cube_FW_N6/Drivers/STM32N6xx_HAL_Driver/Src/stm32n6xx_ll_usb.c **** HAL_StatusTypeDef USB_HC_Init(USB_OTG_GlobalTypeDef *USBx, uint8_t ch_num,
1625:STM32Cube_FW_N6/Drivers/STM32N6xx_HAL_Driver/Src/stm32n6xx_ll_usb.c ****                               uint8_t epnum, uint8_t dev_address, uint8_t speed,
1626:STM32Cube_FW_N6/Drivers/STM32N6xx_HAL_Driver/Src/stm32n6xx_ll_usb.c ****                               uint8_t ep_type, uint16_t mps)
1627:STM32Cube_FW_N6/Drivers/STM32N6xx_HAL_Driver/Src/stm32n6xx_ll_usb.c **** {
 5410              		.loc 1 1627 1
 5411              		.cfi_startproc
 5412              		@ args = 12, pretend = 0, frame = 32
 5413              		@ frame_needed = 1, uses_anonymous_args = 0
 5414 0000 80B5     		push	{r7, lr}
 5415              		.cfi_def_cfa_offset 8
 5416              		.cfi_offset 7, -8
 5417              		.cfi_offset 14, -4
 5418 0002 88B0     		sub	sp, sp, #32
 5419              		.cfi_def_cfa_offset 40
 5420 0004 00AF     		add	r7, sp, #0
 5421              		.cfi_def_cfa_register 7
 5422 0006 7860     		str	r0, [r7, #4]
 5423 0008 0846     		mov	r0, r1
 5424 000a 1146     		mov	r1, r2
 5425 000c 1A46     		mov	r2, r3
 5426 000e 0346     		mov	r3, r0
 5427 0010 FB70     		strb	r3, [r7, #3]
 5428 0012 0B46     		mov	r3, r1
 5429 0014 BB70     		strb	r3, [r7, #2]
 5430 0016 1346     		mov	r3, r2
 5431 0018 7B70     		strb	r3, [r7, #1]
1628:STM32Cube_FW_N6/Drivers/STM32N6xx_HAL_Driver/Src/stm32n6xx_ll_usb.c ****   HAL_StatusTypeDef ret = HAL_OK;
 5432              		.loc 1 1628 21
ARM GAS  /tmp/ccxt1UfV.s 			page 124


 5433 001a 0023     		movs	r3, #0
 5434 001c FB77     		strb	r3, [r7, #31]
1629:STM32Cube_FW_N6/Drivers/STM32N6xx_HAL_Driver/Src/stm32n6xx_ll_usb.c ****   uint32_t USBx_BASE = (uint32_t)USBx;
 5435              		.loc 1 1629 12
 5436 001e 7B68     		ldr	r3, [r7, #4]
 5437 0020 3B61     		str	r3, [r7, #16]
1630:STM32Cube_FW_N6/Drivers/STM32N6xx_HAL_Driver/Src/stm32n6xx_ll_usb.c ****   uint32_t HCcharEpDir;
1631:STM32Cube_FW_N6/Drivers/STM32N6xx_HAL_Driver/Src/stm32n6xx_ll_usb.c ****   uint32_t HCcharLowSpeed;
1632:STM32Cube_FW_N6/Drivers/STM32N6xx_HAL_Driver/Src/stm32n6xx_ll_usb.c ****   uint32_t HostCoreSpeed;
1633:STM32Cube_FW_N6/Drivers/STM32N6xx_HAL_Driver/Src/stm32n6xx_ll_usb.c **** 
1634:STM32Cube_FW_N6/Drivers/STM32N6xx_HAL_Driver/Src/stm32n6xx_ll_usb.c ****   /* Clear old interrupt conditions for this host channel. */
1635:STM32Cube_FW_N6/Drivers/STM32N6xx_HAL_Driver/Src/stm32n6xx_ll_usb.c ****   USBx_HC((uint32_t)ch_num)->HCINT = CLEAR_INTERRUPT_MASK;
 5438              		.loc 1 1635 3
 5439 0022 FB78     		ldrb	r3, [r7, #3]	@ zero_extendqisi2
 5440 0024 5A01     		lsls	r2, r3, #5
 5441 0026 3B69     		ldr	r3, [r7, #16]
 5442 0028 1344     		add	r3, r3, r2
 5443 002a 03F5A063 		add	r3, r3, #1280
 5444 002e 1A46     		mov	r2, r3
 5445              		.loc 1 1635 36
 5446 0030 4FF0FF33 		mov	r3, #-1
 5447 0034 9360     		str	r3, [r2, #8]
1636:STM32Cube_FW_N6/Drivers/STM32N6xx_HAL_Driver/Src/stm32n6xx_ll_usb.c **** 
1637:STM32Cube_FW_N6/Drivers/STM32N6xx_HAL_Driver/Src/stm32n6xx_ll_usb.c ****   /* Enable channel interrupts required for this transfer. */
1638:STM32Cube_FW_N6/Drivers/STM32N6xx_HAL_Driver/Src/stm32n6xx_ll_usb.c ****   switch (ep_type)
 5448              		.loc 1 1638 3
 5449 0036 97F82C30 		ldrb	r3, [r7, #44]	@ zero_extendqisi2
 5450 003a 032B     		cmp	r3, #3
 5451 003c 78D8     		bhi	.L234
 5452 003e 01A2     		adr	r2, .L236
 5453 0040 52F823F0 		ldr	pc, [r2, r3, lsl #2]
 5454              		.p2align 2
 5455              	.L236:
 5456 0044 55000000 		.word	.L237+1
 5457 0048 F3000000 		.word	.L238+1
 5458 004c 55000000 		.word	.L237+1
 5459 0050 B5000000 		.word	.L235+1
 5460              		.p2align 1
 5461              	.L237:
1639:STM32Cube_FW_N6/Drivers/STM32N6xx_HAL_Driver/Src/stm32n6xx_ll_usb.c ****   {
1640:STM32Cube_FW_N6/Drivers/STM32N6xx_HAL_Driver/Src/stm32n6xx_ll_usb.c ****     case EP_TYPE_CTRL:
1641:STM32Cube_FW_N6/Drivers/STM32N6xx_HAL_Driver/Src/stm32n6xx_ll_usb.c ****     case EP_TYPE_BULK:
1642:STM32Cube_FW_N6/Drivers/STM32N6xx_HAL_Driver/Src/stm32n6xx_ll_usb.c ****       USBx_HC((uint32_t)ch_num)->HCINTMSK = USB_OTG_HCINTMSK_XFRCM  |
 5462              		.loc 1 1642 7
 5463 0054 FB78     		ldrb	r3, [r7, #3]	@ zero_extendqisi2
 5464 0056 5A01     		lsls	r2, r3, #5
 5465 0058 3B69     		ldr	r3, [r7, #16]
 5466 005a 1344     		add	r3, r3, r2
 5467 005c 03F5A063 		add	r3, r3, #1280
 5468 0060 1A46     		mov	r2, r3
 5469              		.loc 1 1642 43
 5470 0062 40F29D43 		movw	r3, #1181
 5471 0066 D360     		str	r3, [r2, #12]
1643:STM32Cube_FW_N6/Drivers/STM32N6xx_HAL_Driver/Src/stm32n6xx_ll_usb.c ****                                             USB_OTG_HCINTMSK_STALLM |
1644:STM32Cube_FW_N6/Drivers/STM32N6xx_HAL_Driver/Src/stm32n6xx_ll_usb.c ****                                             USB_OTG_HCINTMSK_TXERRM |
1645:STM32Cube_FW_N6/Drivers/STM32N6xx_HAL_Driver/Src/stm32n6xx_ll_usb.c ****                                             USB_OTG_HCINTMSK_DTERRM |
1646:STM32Cube_FW_N6/Drivers/STM32N6xx_HAL_Driver/Src/stm32n6xx_ll_usb.c ****                                             USB_OTG_HCINTMSK_AHBERR |
ARM GAS  /tmp/ccxt1UfV.s 			page 125


1647:STM32Cube_FW_N6/Drivers/STM32N6xx_HAL_Driver/Src/stm32n6xx_ll_usb.c ****                                             USB_OTG_HCINTMSK_NAKM;
1648:STM32Cube_FW_N6/Drivers/STM32N6xx_HAL_Driver/Src/stm32n6xx_ll_usb.c **** 
1649:STM32Cube_FW_N6/Drivers/STM32N6xx_HAL_Driver/Src/stm32n6xx_ll_usb.c ****       if ((epnum & 0x80U) == 0x80U)
 5472              		.loc 1 1649 27
 5473 0068 97F90230 		ldrsb	r3, [r7, #2]
 5474              		.loc 1 1649 10
 5475 006c 002B     		cmp	r3, #0
 5476 006e 10DA     		bge	.L239
1650:STM32Cube_FW_N6/Drivers/STM32N6xx_HAL_Driver/Src/stm32n6xx_ll_usb.c ****       {
1651:STM32Cube_FW_N6/Drivers/STM32N6xx_HAL_Driver/Src/stm32n6xx_ll_usb.c ****         USBx_HC((uint32_t)ch_num)->HCINTMSK |= USB_OTG_HCINTMSK_BBERRM;
 5477              		.loc 1 1651 34
 5478 0070 FB78     		ldrb	r3, [r7, #3]	@ zero_extendqisi2
 5479 0072 5A01     		lsls	r2, r3, #5
 5480 0074 3B69     		ldr	r3, [r7, #16]
 5481 0076 1344     		add	r3, r3, r2
 5482 0078 03F5A063 		add	r3, r3, #1280
 5483 007c DB68     		ldr	r3, [r3, #12]
 5484 007e FA78     		ldrb	r2, [r7, #3]	@ zero_extendqisi2
 5485 0080 5101     		lsls	r1, r2, #5
 5486 0082 3A69     		ldr	r2, [r7, #16]
 5487 0084 0A44     		add	r2, r2, r1
 5488 0086 02F5A062 		add	r2, r2, #1280
 5489              		.loc 1 1651 45
 5490 008a 43F48073 		orr	r3, r3, #256
 5491 008e D360     		str	r3, [r2, #12]
1652:STM32Cube_FW_N6/Drivers/STM32N6xx_HAL_Driver/Src/stm32n6xx_ll_usb.c ****       }
1653:STM32Cube_FW_N6/Drivers/STM32N6xx_HAL_Driver/Src/stm32n6xx_ll_usb.c ****       else
1654:STM32Cube_FW_N6/Drivers/STM32N6xx_HAL_Driver/Src/stm32n6xx_ll_usb.c ****       {
1655:STM32Cube_FW_N6/Drivers/STM32N6xx_HAL_Driver/Src/stm32n6xx_ll_usb.c ****         USBx_HC((uint32_t)ch_num)->HCINTMSK |= USB_OTG_HCINTMSK_NYET |
1656:STM32Cube_FW_N6/Drivers/STM32N6xx_HAL_Driver/Src/stm32n6xx_ll_usb.c ****                                                USB_OTG_HCINTMSK_ACKM;
1657:STM32Cube_FW_N6/Drivers/STM32N6xx_HAL_Driver/Src/stm32n6xx_ll_usb.c ****       }
1658:STM32Cube_FW_N6/Drivers/STM32N6xx_HAL_Driver/Src/stm32n6xx_ll_usb.c ****       break;
 5492              		.loc 1 1658 7
 5493 0090 54E0     		b	.L241
 5494              	.L239:
1655:STM32Cube_FW_N6/Drivers/STM32N6xx_HAL_Driver/Src/stm32n6xx_ll_usb.c ****                                                USB_OTG_HCINTMSK_ACKM;
 5495              		.loc 1 1655 34
 5496 0092 FB78     		ldrb	r3, [r7, #3]	@ zero_extendqisi2
 5497 0094 5A01     		lsls	r2, r3, #5
 5498 0096 3B69     		ldr	r3, [r7, #16]
 5499 0098 1344     		add	r3, r3, r2
 5500 009a 03F5A063 		add	r3, r3, #1280
 5501 009e DB68     		ldr	r3, [r3, #12]
 5502 00a0 FA78     		ldrb	r2, [r7, #3]	@ zero_extendqisi2
 5503 00a2 5101     		lsls	r1, r2, #5
 5504 00a4 3A69     		ldr	r2, [r7, #16]
 5505 00a6 0A44     		add	r2, r2, r1
 5506 00a8 02F5A062 		add	r2, r2, #1280
1655:STM32Cube_FW_N6/Drivers/STM32N6xx_HAL_Driver/Src/stm32n6xx_ll_usb.c ****                                                USB_OTG_HCINTMSK_ACKM;
 5507              		.loc 1 1655 45
 5508 00ac 43F06003 		orr	r3, r3, #96
 5509 00b0 D360     		str	r3, [r2, #12]
 5510              		.loc 1 1658 7
 5511 00b2 43E0     		b	.L241
 5512              	.L235:
1659:STM32Cube_FW_N6/Drivers/STM32N6xx_HAL_Driver/Src/stm32n6xx_ll_usb.c **** 
1660:STM32Cube_FW_N6/Drivers/STM32N6xx_HAL_Driver/Src/stm32n6xx_ll_usb.c ****     case EP_TYPE_INTR:
ARM GAS  /tmp/ccxt1UfV.s 			page 126


1661:STM32Cube_FW_N6/Drivers/STM32N6xx_HAL_Driver/Src/stm32n6xx_ll_usb.c ****       USBx_HC((uint32_t)ch_num)->HCINTMSK = USB_OTG_HCINTMSK_XFRCM  |
 5513              		.loc 1 1661 7
 5514 00b4 FB78     		ldrb	r3, [r7, #3]	@ zero_extendqisi2
 5515 00b6 5A01     		lsls	r2, r3, #5
 5516 00b8 3B69     		ldr	r3, [r7, #16]
 5517 00ba 1344     		add	r3, r3, r2
 5518 00bc 03F5A063 		add	r3, r3, #1280
 5519 00c0 1A46     		mov	r2, r3
 5520              		.loc 1 1661 43
 5521 00c2 40F29D63 		movw	r3, #1693
 5522 00c6 D360     		str	r3, [r2, #12]
1662:STM32Cube_FW_N6/Drivers/STM32N6xx_HAL_Driver/Src/stm32n6xx_ll_usb.c ****                                             USB_OTG_HCINTMSK_STALLM |
1663:STM32Cube_FW_N6/Drivers/STM32N6xx_HAL_Driver/Src/stm32n6xx_ll_usb.c ****                                             USB_OTG_HCINTMSK_TXERRM |
1664:STM32Cube_FW_N6/Drivers/STM32N6xx_HAL_Driver/Src/stm32n6xx_ll_usb.c ****                                             USB_OTG_HCINTMSK_DTERRM |
1665:STM32Cube_FW_N6/Drivers/STM32N6xx_HAL_Driver/Src/stm32n6xx_ll_usb.c ****                                             USB_OTG_HCINTMSK_NAKM   |
1666:STM32Cube_FW_N6/Drivers/STM32N6xx_HAL_Driver/Src/stm32n6xx_ll_usb.c ****                                             USB_OTG_HCINTMSK_AHBERR |
1667:STM32Cube_FW_N6/Drivers/STM32N6xx_HAL_Driver/Src/stm32n6xx_ll_usb.c ****                                             USB_OTG_HCINTMSK_FRMORM;
1668:STM32Cube_FW_N6/Drivers/STM32N6xx_HAL_Driver/Src/stm32n6xx_ll_usb.c **** 
1669:STM32Cube_FW_N6/Drivers/STM32N6xx_HAL_Driver/Src/stm32n6xx_ll_usb.c ****       if ((epnum & 0x80U) == 0x80U)
 5523              		.loc 1 1669 27
 5524 00c8 97F90230 		ldrsb	r3, [r7, #2]
 5525              		.loc 1 1669 10
 5526 00cc 002B     		cmp	r3, #0
 5527 00ce 32DA     		bge	.L251
1670:STM32Cube_FW_N6/Drivers/STM32N6xx_HAL_Driver/Src/stm32n6xx_ll_usb.c ****       {
1671:STM32Cube_FW_N6/Drivers/STM32N6xx_HAL_Driver/Src/stm32n6xx_ll_usb.c ****         USBx_HC((uint32_t)ch_num)->HCINTMSK |= USB_OTG_HCINTMSK_BBERRM;
 5528              		.loc 1 1671 34
 5529 00d0 FB78     		ldrb	r3, [r7, #3]	@ zero_extendqisi2
 5530 00d2 5A01     		lsls	r2, r3, #5
 5531 00d4 3B69     		ldr	r3, [r7, #16]
 5532 00d6 1344     		add	r3, r3, r2
 5533 00d8 03F5A063 		add	r3, r3, #1280
 5534 00dc DB68     		ldr	r3, [r3, #12]
 5535 00de FA78     		ldrb	r2, [r7, #3]	@ zero_extendqisi2
 5536 00e0 5101     		lsls	r1, r2, #5
 5537 00e2 3A69     		ldr	r2, [r7, #16]
 5538 00e4 0A44     		add	r2, r2, r1
 5539 00e6 02F5A062 		add	r2, r2, #1280
 5540              		.loc 1 1671 45
 5541 00ea 43F48073 		orr	r3, r3, #256
 5542 00ee D360     		str	r3, [r2, #12]
1672:STM32Cube_FW_N6/Drivers/STM32N6xx_HAL_Driver/Src/stm32n6xx_ll_usb.c ****       }
1673:STM32Cube_FW_N6/Drivers/STM32N6xx_HAL_Driver/Src/stm32n6xx_ll_usb.c **** 
1674:STM32Cube_FW_N6/Drivers/STM32N6xx_HAL_Driver/Src/stm32n6xx_ll_usb.c ****       break;
 5543              		.loc 1 1674 7
 5544 00f0 21E0     		b	.L251
 5545              	.L238:
1675:STM32Cube_FW_N6/Drivers/STM32N6xx_HAL_Driver/Src/stm32n6xx_ll_usb.c **** 
1676:STM32Cube_FW_N6/Drivers/STM32N6xx_HAL_Driver/Src/stm32n6xx_ll_usb.c ****     case EP_TYPE_ISOC:
1677:STM32Cube_FW_N6/Drivers/STM32N6xx_HAL_Driver/Src/stm32n6xx_ll_usb.c ****       USBx_HC((uint32_t)ch_num)->HCINTMSK = USB_OTG_HCINTMSK_XFRCM  |
 5546              		.loc 1 1677 7
 5547 00f2 FB78     		ldrb	r3, [r7, #3]	@ zero_extendqisi2
 5548 00f4 5A01     		lsls	r2, r3, #5
 5549 00f6 3B69     		ldr	r3, [r7, #16]
 5550 00f8 1344     		add	r3, r3, r2
 5551 00fa 03F5A063 		add	r3, r3, #1280
 5552 00fe 1A46     		mov	r2, r3
ARM GAS  /tmp/ccxt1UfV.s 			page 127


 5553              		.loc 1 1677 43
 5554 0100 40F22523 		movw	r3, #549
 5555 0104 D360     		str	r3, [r2, #12]
1678:STM32Cube_FW_N6/Drivers/STM32N6xx_HAL_Driver/Src/stm32n6xx_ll_usb.c ****                                             USB_OTG_HCINTMSK_ACKM   |
1679:STM32Cube_FW_N6/Drivers/STM32N6xx_HAL_Driver/Src/stm32n6xx_ll_usb.c ****                                             USB_OTG_HCINTMSK_AHBERR |
1680:STM32Cube_FW_N6/Drivers/STM32N6xx_HAL_Driver/Src/stm32n6xx_ll_usb.c ****                                             USB_OTG_HCINTMSK_FRMORM;
1681:STM32Cube_FW_N6/Drivers/STM32N6xx_HAL_Driver/Src/stm32n6xx_ll_usb.c **** 
1682:STM32Cube_FW_N6/Drivers/STM32N6xx_HAL_Driver/Src/stm32n6xx_ll_usb.c ****       if ((epnum & 0x80U) == 0x80U)
 5556              		.loc 1 1682 27
 5557 0106 97F90230 		ldrsb	r3, [r7, #2]
 5558              		.loc 1 1682 10
 5559 010a 002B     		cmp	r3, #0
 5560 010c 15DA     		bge	.L252
1683:STM32Cube_FW_N6/Drivers/STM32N6xx_HAL_Driver/Src/stm32n6xx_ll_usb.c ****       {
1684:STM32Cube_FW_N6/Drivers/STM32N6xx_HAL_Driver/Src/stm32n6xx_ll_usb.c ****         USBx_HC((uint32_t)ch_num)->HCINTMSK |= (USB_OTG_HCINTMSK_TXERRM | USB_OTG_HCINTMSK_BBERRM);
 5561              		.loc 1 1684 34
 5562 010e FB78     		ldrb	r3, [r7, #3]	@ zero_extendqisi2
 5563 0110 5A01     		lsls	r2, r3, #5
 5564 0112 3B69     		ldr	r3, [r7, #16]
 5565 0114 1344     		add	r3, r3, r2
 5566 0116 03F5A063 		add	r3, r3, #1280
 5567 011a DB68     		ldr	r3, [r3, #12]
 5568 011c FA78     		ldrb	r2, [r7, #3]	@ zero_extendqisi2
 5569 011e 5101     		lsls	r1, r2, #5
 5570 0120 3A69     		ldr	r2, [r7, #16]
 5571 0122 0A44     		add	r2, r2, r1
 5572 0124 02F5A062 		add	r2, r2, #1280
 5573              		.loc 1 1684 45
 5574 0128 43F4C073 		orr	r3, r3, #384
 5575 012c D360     		str	r3, [r2, #12]
1685:STM32Cube_FW_N6/Drivers/STM32N6xx_HAL_Driver/Src/stm32n6xx_ll_usb.c ****       }
1686:STM32Cube_FW_N6/Drivers/STM32N6xx_HAL_Driver/Src/stm32n6xx_ll_usb.c ****       break;
 5576              		.loc 1 1686 7
 5577 012e 04E0     		b	.L252
 5578              	.L234:
1687:STM32Cube_FW_N6/Drivers/STM32N6xx_HAL_Driver/Src/stm32n6xx_ll_usb.c **** 
1688:STM32Cube_FW_N6/Drivers/STM32N6xx_HAL_Driver/Src/stm32n6xx_ll_usb.c ****     default:
1689:STM32Cube_FW_N6/Drivers/STM32N6xx_HAL_Driver/Src/stm32n6xx_ll_usb.c ****       ret = HAL_ERROR;
 5579              		.loc 1 1689 11
 5580 0130 0123     		movs	r3, #1
 5581 0132 FB77     		strb	r3, [r7, #31]
1690:STM32Cube_FW_N6/Drivers/STM32N6xx_HAL_Driver/Src/stm32n6xx_ll_usb.c ****       break;
 5582              		.loc 1 1690 7
 5583 0134 02E0     		b	.L241
 5584              	.L251:
1674:STM32Cube_FW_N6/Drivers/STM32N6xx_HAL_Driver/Src/stm32n6xx_ll_usb.c **** 
 5585              		.loc 1 1674 7
 5586 0136 00BF     		nop
 5587 0138 00E0     		b	.L241
 5588              	.L252:
1686:STM32Cube_FW_N6/Drivers/STM32N6xx_HAL_Driver/Src/stm32n6xx_ll_usb.c **** 
 5589              		.loc 1 1686 7
 5590 013a 00BF     		nop
 5591              	.L241:
1691:STM32Cube_FW_N6/Drivers/STM32N6xx_HAL_Driver/Src/stm32n6xx_ll_usb.c ****   }
1692:STM32Cube_FW_N6/Drivers/STM32N6xx_HAL_Driver/Src/stm32n6xx_ll_usb.c **** 
1693:STM32Cube_FW_N6/Drivers/STM32N6xx_HAL_Driver/Src/stm32n6xx_ll_usb.c ****   /* Clear Hub Start Split transaction */
ARM GAS  /tmp/ccxt1UfV.s 			page 128


1694:STM32Cube_FW_N6/Drivers/STM32N6xx_HAL_Driver/Src/stm32n6xx_ll_usb.c ****   USBx_HC((uint32_t)ch_num)->HCSPLT = 0U;
 5592              		.loc 1 1694 3
 5593 013c FB78     		ldrb	r3, [r7, #3]	@ zero_extendqisi2
 5594 013e 5A01     		lsls	r2, r3, #5
 5595 0140 3B69     		ldr	r3, [r7, #16]
 5596 0142 1344     		add	r3, r3, r2
 5597 0144 03F5A063 		add	r3, r3, #1280
 5598 0148 1A46     		mov	r2, r3
 5599              		.loc 1 1694 37
 5600 014a 0023     		movs	r3, #0
 5601 014c 5360     		str	r3, [r2, #4]
1695:STM32Cube_FW_N6/Drivers/STM32N6xx_HAL_Driver/Src/stm32n6xx_ll_usb.c **** 
1696:STM32Cube_FW_N6/Drivers/STM32N6xx_HAL_Driver/Src/stm32n6xx_ll_usb.c ****   /* Enable host channel Halt interrupt */
1697:STM32Cube_FW_N6/Drivers/STM32N6xx_HAL_Driver/Src/stm32n6xx_ll_usb.c ****   USBx_HC((uint32_t)ch_num)->HCINTMSK |= USB_OTG_HCINTMSK_CHHM;
 5602              		.loc 1 1697 28
 5603 014e FB78     		ldrb	r3, [r7, #3]	@ zero_extendqisi2
 5604 0150 5A01     		lsls	r2, r3, #5
 5605 0152 3B69     		ldr	r3, [r7, #16]
 5606 0154 1344     		add	r3, r3, r2
 5607 0156 03F5A063 		add	r3, r3, #1280
 5608 015a DB68     		ldr	r3, [r3, #12]
 5609 015c FA78     		ldrb	r2, [r7, #3]	@ zero_extendqisi2
 5610 015e 5101     		lsls	r1, r2, #5
 5611 0160 3A69     		ldr	r2, [r7, #16]
 5612 0162 0A44     		add	r2, r2, r1
 5613 0164 02F5A062 		add	r2, r2, #1280
 5614              		.loc 1 1697 39
 5615 0168 43F00203 		orr	r3, r3, #2
 5616 016c D360     		str	r3, [r2, #12]
1698:STM32Cube_FW_N6/Drivers/STM32N6xx_HAL_Driver/Src/stm32n6xx_ll_usb.c **** 
1699:STM32Cube_FW_N6/Drivers/STM32N6xx_HAL_Driver/Src/stm32n6xx_ll_usb.c ****   /* Enable the top level host channel interrupt. */
1700:STM32Cube_FW_N6/Drivers/STM32N6xx_HAL_Driver/Src/stm32n6xx_ll_usb.c ****   USBx_HOST->HAINTMSK |= 1UL << (ch_num & 0xFU);
 5617              		.loc 1 1700 12
 5618 016e 3B69     		ldr	r3, [r7, #16]
 5619 0170 03F58063 		add	r3, r3, #1024
 5620 0174 9A69     		ldr	r2, [r3, #24]
 5621              		.loc 1 1700 41
 5622 0176 FB78     		ldrb	r3, [r7, #3]	@ zero_extendqisi2
 5623 0178 03F00F03 		and	r3, r3, #15
 5624              		.loc 1 1700 30
 5625 017c 0121     		movs	r1, #1
 5626 017e 01FA03F3 		lsl	r3, r1, r3
 5627              		.loc 1 1700 12
 5628 0182 3969     		ldr	r1, [r7, #16]
 5629 0184 01F58061 		add	r1, r1, #1024
 5630              		.loc 1 1700 23
 5631 0188 1343     		orrs	r3, r3, r2
 5632 018a 8B61     		str	r3, [r1, #24]
1701:STM32Cube_FW_N6/Drivers/STM32N6xx_HAL_Driver/Src/stm32n6xx_ll_usb.c **** 
1702:STM32Cube_FW_N6/Drivers/STM32N6xx_HAL_Driver/Src/stm32n6xx_ll_usb.c ****   /* Make sure host channel interrupts are enabled. */
1703:STM32Cube_FW_N6/Drivers/STM32N6xx_HAL_Driver/Src/stm32n6xx_ll_usb.c ****   USBx->GINTMSK |= USB_OTG_GINTMSK_HCIM;
 5633              		.loc 1 1703 7
 5634 018c 7B68     		ldr	r3, [r7, #4]
 5635 018e 9B69     		ldr	r3, [r3, #24]
 5636              		.loc 1 1703 17
 5637 0190 43F00072 		orr	r2, r3, #33554432
 5638 0194 7B68     		ldr	r3, [r7, #4]
ARM GAS  /tmp/ccxt1UfV.s 			page 129


 5639 0196 9A61     		str	r2, [r3, #24]
1704:STM32Cube_FW_N6/Drivers/STM32N6xx_HAL_Driver/Src/stm32n6xx_ll_usb.c **** 
1705:STM32Cube_FW_N6/Drivers/STM32N6xx_HAL_Driver/Src/stm32n6xx_ll_usb.c ****   /* Program the HCCHAR register */
1706:STM32Cube_FW_N6/Drivers/STM32N6xx_HAL_Driver/Src/stm32n6xx_ll_usb.c ****   if ((epnum & 0x80U) == 0x80U)
 5640              		.loc 1 1706 23
 5641 0198 97F90230 		ldrsb	r3, [r7, #2]
 5642              		.loc 1 1706 6
 5643 019c 002B     		cmp	r3, #0
 5644 019e 03DA     		bge	.L244
1707:STM32Cube_FW_N6/Drivers/STM32N6xx_HAL_Driver/Src/stm32n6xx_ll_usb.c ****   {
1708:STM32Cube_FW_N6/Drivers/STM32N6xx_HAL_Driver/Src/stm32n6xx_ll_usb.c ****     HCcharEpDir = (0x1U << 15) & USB_OTG_HCCHAR_EPDIR;
 5645              		.loc 1 1708 17
 5646 01a0 4FF40043 		mov	r3, #32768
 5647 01a4 BB61     		str	r3, [r7, #24]
 5648 01a6 01E0     		b	.L245
 5649              	.L244:
1709:STM32Cube_FW_N6/Drivers/STM32N6xx_HAL_Driver/Src/stm32n6xx_ll_usb.c ****   }
1710:STM32Cube_FW_N6/Drivers/STM32N6xx_HAL_Driver/Src/stm32n6xx_ll_usb.c ****   else
1711:STM32Cube_FW_N6/Drivers/STM32N6xx_HAL_Driver/Src/stm32n6xx_ll_usb.c ****   {
1712:STM32Cube_FW_N6/Drivers/STM32N6xx_HAL_Driver/Src/stm32n6xx_ll_usb.c ****     HCcharEpDir = 0U;
 5650              		.loc 1 1712 17
 5651 01a8 0023     		movs	r3, #0
 5652 01aa BB61     		str	r3, [r7, #24]
 5653              	.L245:
1713:STM32Cube_FW_N6/Drivers/STM32N6xx_HAL_Driver/Src/stm32n6xx_ll_usb.c ****   }
1714:STM32Cube_FW_N6/Drivers/STM32N6xx_HAL_Driver/Src/stm32n6xx_ll_usb.c **** 
1715:STM32Cube_FW_N6/Drivers/STM32N6xx_HAL_Driver/Src/stm32n6xx_ll_usb.c ****   HostCoreSpeed = USB_GetHostSpeed(USBx);
 5654              		.loc 1 1715 19
 5655 01ac 7868     		ldr	r0, [r7, #4]
 5656 01ae FFF7FEFF 		bl	USB_GetHostSpeed
 5657 01b2 F860     		str	r0, [r7, #12]
1716:STM32Cube_FW_N6/Drivers/STM32N6xx_HAL_Driver/Src/stm32n6xx_ll_usb.c **** 
1717:STM32Cube_FW_N6/Drivers/STM32N6xx_HAL_Driver/Src/stm32n6xx_ll_usb.c ****   /* LS device plugged to HUB */
1718:STM32Cube_FW_N6/Drivers/STM32N6xx_HAL_Driver/Src/stm32n6xx_ll_usb.c ****   if ((speed == HPRT0_PRTSPD_LOW_SPEED) && (HostCoreSpeed != HPRT0_PRTSPD_LOW_SPEED))
 5658              		.loc 1 1718 6
 5659 01b4 97F82830 		ldrb	r3, [r7, #40]	@ zero_extendqisi2
 5660 01b8 022B     		cmp	r3, #2
 5661 01ba 06D1     		bne	.L246
 5662              		.loc 1 1718 41 discriminator 1
 5663 01bc FB68     		ldr	r3, [r7, #12]
 5664 01be 022B     		cmp	r3, #2
 5665 01c0 03D0     		beq	.L246
1719:STM32Cube_FW_N6/Drivers/STM32N6xx_HAL_Driver/Src/stm32n6xx_ll_usb.c ****   {
1720:STM32Cube_FW_N6/Drivers/STM32N6xx_HAL_Driver/Src/stm32n6xx_ll_usb.c ****     HCcharLowSpeed = (0x1U << 17) & USB_OTG_HCCHAR_LSDEV;
 5666              		.loc 1 1720 20
 5667 01c2 4FF40033 		mov	r3, #131072
 5668 01c6 7B61     		str	r3, [r7, #20]
 5669 01c8 01E0     		b	.L247
 5670              	.L246:
1721:STM32Cube_FW_N6/Drivers/STM32N6xx_HAL_Driver/Src/stm32n6xx_ll_usb.c ****   }
1722:STM32Cube_FW_N6/Drivers/STM32N6xx_HAL_Driver/Src/stm32n6xx_ll_usb.c ****   else
1723:STM32Cube_FW_N6/Drivers/STM32N6xx_HAL_Driver/Src/stm32n6xx_ll_usb.c ****   {
1724:STM32Cube_FW_N6/Drivers/STM32N6xx_HAL_Driver/Src/stm32n6xx_ll_usb.c ****     HCcharLowSpeed = 0U;
 5671              		.loc 1 1724 20
 5672 01ca 0023     		movs	r3, #0
 5673 01cc 7B61     		str	r3, [r7, #20]
 5674              	.L247:
ARM GAS  /tmp/ccxt1UfV.s 			page 130


1725:STM32Cube_FW_N6/Drivers/STM32N6xx_HAL_Driver/Src/stm32n6xx_ll_usb.c ****   }
1726:STM32Cube_FW_N6/Drivers/STM32N6xx_HAL_Driver/Src/stm32n6xx_ll_usb.c **** 
1727:STM32Cube_FW_N6/Drivers/STM32N6xx_HAL_Driver/Src/stm32n6xx_ll_usb.c ****   USBx_HC((uint32_t)ch_num)->HCCHAR = (((uint32_t)dev_address << 22) & USB_OTG_HCCHAR_DAD) |
 5675              		.loc 1 1727 41
 5676 01ce 7B78     		ldrb	r3, [r7, #1]	@ zero_extendqisi2
 5677              		.loc 1 1727 63
 5678 01d0 9B05     		lsls	r3, r3, #22
 5679              		.loc 1 1727 70
 5680 01d2 03F0FE52 		and	r2, r3, #532676608
1728:STM32Cube_FW_N6/Drivers/STM32N6xx_HAL_Driver/Src/stm32n6xx_ll_usb.c ****                                       ((((uint32_t)epnum & 0x7FU) << 11) & USB_OTG_HCCHAR_EPNUM) |
 5681              		.loc 1 1728 67
 5682 01d6 BB78     		ldrb	r3, [r7, #2]	@ zero_extendqisi2
 5683 01d8 DB02     		lsls	r3, r3, #11
 5684              		.loc 1 1728 74
 5685 01da 03F4F043 		and	r3, r3, #30720
1727:STM32Cube_FW_N6/Drivers/STM32N6xx_HAL_Driver/Src/stm32n6xx_ll_usb.c ****                                       ((((uint32_t)epnum & 0x7FU) << 11) & USB_OTG_HCCHAR_EPNUM) |
 5686              		.loc 1 1727 92
 5687 01de 1A43     		orrs	r2, r2, r3
1729:STM32Cube_FW_N6/Drivers/STM32N6xx_HAL_Driver/Src/stm32n6xx_ll_usb.c ****                                       (((uint32_t)ep_type << 18) & USB_OTG_HCCHAR_EPTYP) |
 5688              		.loc 1 1729 41
 5689 01e0 97F82C30 		ldrb	r3, [r7, #44]	@ zero_extendqisi2
 5690              		.loc 1 1729 59
 5691 01e4 9B04     		lsls	r3, r3, #18
 5692              		.loc 1 1729 66
 5693 01e6 03F44023 		and	r3, r3, #786432
1728:STM32Cube_FW_N6/Drivers/STM32N6xx_HAL_Driver/Src/stm32n6xx_ll_usb.c ****                                       ((((uint32_t)epnum & 0x7FU) << 11) & USB_OTG_HCCHAR_EPNUM) |
 5694              		.loc 1 1728 98
 5695 01ea 1A43     		orrs	r2, r2, r3
1730:STM32Cube_FW_N6/Drivers/STM32N6xx_HAL_Driver/Src/stm32n6xx_ll_usb.c ****                                       ((uint32_t)mps & USB_OTG_HCCHAR_MPSIZ) |
 5696              		.loc 1 1730 54
 5697 01ec 3B8E     		ldrh	r3, [r7, #48]
 5698 01ee C3F30A03 		ubfx	r3, r3, #0, #11
1729:STM32Cube_FW_N6/Drivers/STM32N6xx_HAL_Driver/Src/stm32n6xx_ll_usb.c ****                                       (((uint32_t)ep_type << 18) & USB_OTG_HCCHAR_EPTYP) |
 5699              		.loc 1 1729 90
 5700 01f2 1A43     		orrs	r2, r2, r3
1731:STM32Cube_FW_N6/Drivers/STM32N6xx_HAL_Driver/Src/stm32n6xx_ll_usb.c ****                                       USB_OTG_HCCHAR_MC_0 | HCcharEpDir | HCcharLowSpeed;
 5701              		.loc 1 1731 59
 5702 01f4 BB69     		ldr	r3, [r7, #24]
 5703 01f6 1A43     		orrs	r2, r2, r3
 5704              		.loc 1 1731 73
 5705 01f8 7B69     		ldr	r3, [r7, #20]
 5706 01fa 1343     		orrs	r3, r3, r2
1727:STM32Cube_FW_N6/Drivers/STM32N6xx_HAL_Driver/Src/stm32n6xx_ll_usb.c ****                                       ((((uint32_t)epnum & 0x7FU) << 11) & USB_OTG_HCCHAR_EPNUM) |
 5707              		.loc 1 1727 3
 5708 01fc FA78     		ldrb	r2, [r7, #3]	@ zero_extendqisi2
 5709 01fe 5101     		lsls	r1, r2, #5
 5710 0200 3A69     		ldr	r2, [r7, #16]
 5711 0202 0A44     		add	r2, r2, r1
 5712 0204 02F5A062 		add	r2, r2, #1280
 5713              		.loc 1 1731 73
 5714 0208 43F48013 		orr	r3, r3, #1048576
1727:STM32Cube_FW_N6/Drivers/STM32N6xx_HAL_Driver/Src/stm32n6xx_ll_usb.c ****                                       ((((uint32_t)epnum & 0x7FU) << 11) & USB_OTG_HCCHAR_EPNUM) |
 5715              		.loc 1 1727 37
 5716 020c 1360     		str	r3, [r2]
1732:STM32Cube_FW_N6/Drivers/STM32N6xx_HAL_Driver/Src/stm32n6xx_ll_usb.c **** 
1733:STM32Cube_FW_N6/Drivers/STM32N6xx_HAL_Driver/Src/stm32n6xx_ll_usb.c ****   if ((ep_type == EP_TYPE_INTR) || (ep_type == EP_TYPE_ISOC))
 5717              		.loc 1 1733 6
ARM GAS  /tmp/ccxt1UfV.s 			page 131


 5718 020e 97F82C30 		ldrb	r3, [r7, #44]	@ zero_extendqisi2
 5719 0212 032B     		cmp	r3, #3
 5720 0214 03D0     		beq	.L248
 5721              		.loc 1 1733 33 discriminator 1
 5722 0216 97F82C30 		ldrb	r3, [r7, #44]	@ zero_extendqisi2
 5723 021a 012B     		cmp	r3, #1
 5724 021c 0FD1     		bne	.L249
 5725              	.L248:
1734:STM32Cube_FW_N6/Drivers/STM32N6xx_HAL_Driver/Src/stm32n6xx_ll_usb.c ****   {
1735:STM32Cube_FW_N6/Drivers/STM32N6xx_HAL_Driver/Src/stm32n6xx_ll_usb.c ****     USBx_HC((uint32_t)ch_num)->HCCHAR |= USB_OTG_HCCHAR_ODDFRM;
 5726              		.loc 1 1735 30
 5727 021e FB78     		ldrb	r3, [r7, #3]	@ zero_extendqisi2
 5728 0220 5A01     		lsls	r2, r3, #5
 5729 0222 3B69     		ldr	r3, [r7, #16]
 5730 0224 1344     		add	r3, r3, r2
 5731 0226 03F5A063 		add	r3, r3, #1280
 5732 022a 1B68     		ldr	r3, [r3]
 5733 022c FA78     		ldrb	r2, [r7, #3]	@ zero_extendqisi2
 5734 022e 5101     		lsls	r1, r2, #5
 5735 0230 3A69     		ldr	r2, [r7, #16]
 5736 0232 0A44     		add	r2, r2, r1
 5737 0234 02F5A062 		add	r2, r2, #1280
 5738              		.loc 1 1735 39
 5739 0238 43F00053 		orr	r3, r3, #536870912
 5740 023c 1360     		str	r3, [r2]
 5741              	.L249:
1736:STM32Cube_FW_N6/Drivers/STM32N6xx_HAL_Driver/Src/stm32n6xx_ll_usb.c ****   }
1737:STM32Cube_FW_N6/Drivers/STM32N6xx_HAL_Driver/Src/stm32n6xx_ll_usb.c **** 
1738:STM32Cube_FW_N6/Drivers/STM32N6xx_HAL_Driver/Src/stm32n6xx_ll_usb.c ****   return ret;
 5742              		.loc 1 1738 10
 5743 023e FB7F     		ldrb	r3, [r7, #31]	@ zero_extendqisi2
1739:STM32Cube_FW_N6/Drivers/STM32N6xx_HAL_Driver/Src/stm32n6xx_ll_usb.c **** }
 5744              		.loc 1 1739 1
 5745 0240 1846     		mov	r0, r3
 5746 0242 2037     		adds	r7, r7, #32
 5747              		.cfi_def_cfa_offset 8
 5748 0244 BD46     		mov	sp, r7
 5749              		.cfi_def_cfa_register 13
 5750              		@ sp needed
 5751 0246 80BD     		pop	{r7, pc}
 5752              		.cfi_endproc
 5753              	.LFE876:
 5755              		.section	.text.USB_HC_StartXfer,"ax",%progbits
 5756              		.align	1
 5757              		.global	USB_HC_StartXfer
 5758              		.syntax unified
 5759              		.thumb
 5760              		.thumb_func
 5762              	USB_HC_StartXfer:
 5763              	.LFB877:
1740:STM32Cube_FW_N6/Drivers/STM32N6xx_HAL_Driver/Src/stm32n6xx_ll_usb.c **** 
1741:STM32Cube_FW_N6/Drivers/STM32N6xx_HAL_Driver/Src/stm32n6xx_ll_usb.c **** /**
1742:STM32Cube_FW_N6/Drivers/STM32N6xx_HAL_Driver/Src/stm32n6xx_ll_usb.c ****   * @brief  Start a transfer over a host channel
1743:STM32Cube_FW_N6/Drivers/STM32N6xx_HAL_Driver/Src/stm32n6xx_ll_usb.c ****   * @param  USBx  Selected device
1744:STM32Cube_FW_N6/Drivers/STM32N6xx_HAL_Driver/Src/stm32n6xx_ll_usb.c ****   * @param  hc  pointer to host channel structure
1745:STM32Cube_FW_N6/Drivers/STM32N6xx_HAL_Driver/Src/stm32n6xx_ll_usb.c ****   * @param  dma USB dma enabled or disabled
1746:STM32Cube_FW_N6/Drivers/STM32N6xx_HAL_Driver/Src/stm32n6xx_ll_usb.c ****   *          This parameter can be one of these values:
ARM GAS  /tmp/ccxt1UfV.s 			page 132


1747:STM32Cube_FW_N6/Drivers/STM32N6xx_HAL_Driver/Src/stm32n6xx_ll_usb.c ****   *           0 : DMA feature not used
1748:STM32Cube_FW_N6/Drivers/STM32N6xx_HAL_Driver/Src/stm32n6xx_ll_usb.c ****   *           1 : DMA feature used
1749:STM32Cube_FW_N6/Drivers/STM32N6xx_HAL_Driver/Src/stm32n6xx_ll_usb.c ****   * @retval HAL state
1750:STM32Cube_FW_N6/Drivers/STM32N6xx_HAL_Driver/Src/stm32n6xx_ll_usb.c ****   */
1751:STM32Cube_FW_N6/Drivers/STM32N6xx_HAL_Driver/Src/stm32n6xx_ll_usb.c **** HAL_StatusTypeDef USB_HC_StartXfer(USB_OTG_GlobalTypeDef *USBx, USB_OTG_HCTypeDef *hc, uint8_t dma)
1752:STM32Cube_FW_N6/Drivers/STM32N6xx_HAL_Driver/Src/stm32n6xx_ll_usb.c **** {
 5764              		.loc 1 1752 1
 5765              		.cfi_startproc
 5766              		@ args = 0, pretend = 0, frame = 40
 5767              		@ frame_needed = 1, uses_anonymous_args = 0
 5768 0000 80B5     		push	{r7, lr}
 5769              		.cfi_def_cfa_offset 8
 5770              		.cfi_offset 7, -8
 5771              		.cfi_offset 14, -4
 5772 0002 8CB0     		sub	sp, sp, #48
 5773              		.cfi_def_cfa_offset 56
 5774 0004 02AF     		add	r7, sp, #8
 5775              		.cfi_def_cfa 7, 48
 5776 0006 F860     		str	r0, [r7, #12]
 5777 0008 B960     		str	r1, [r7, #8]
 5778 000a 1346     		mov	r3, r2
 5779 000c FB71     		strb	r3, [r7, #7]
1753:STM32Cube_FW_N6/Drivers/STM32N6xx_HAL_Driver/Src/stm32n6xx_ll_usb.c ****   uint32_t USBx_BASE = (uint32_t)USBx;
 5780              		.loc 1 1753 12
 5781 000e FB68     		ldr	r3, [r7, #12]
 5782 0010 3B62     		str	r3, [r7, #32]
1754:STM32Cube_FW_N6/Drivers/STM32N6xx_HAL_Driver/Src/stm32n6xx_ll_usb.c ****   uint32_t ch_num = (uint32_t)hc->ch_num;
 5783              		.loc 1 1754 33
 5784 0012 BB68     		ldr	r3, [r7, #8]
 5785 0014 5B78     		ldrb	r3, [r3, #1]	@ zero_extendqisi2
 5786              		.loc 1 1754 12
 5787 0016 FB61     		str	r3, [r7, #28]
1755:STM32Cube_FW_N6/Drivers/STM32N6xx_HAL_Driver/Src/stm32n6xx_ll_usb.c ****   __IO uint32_t tmpreg;
1756:STM32Cube_FW_N6/Drivers/STM32N6xx_HAL_Driver/Src/stm32n6xx_ll_usb.c ****   uint8_t  is_oddframe;
1757:STM32Cube_FW_N6/Drivers/STM32N6xx_HAL_Driver/Src/stm32n6xx_ll_usb.c ****   uint16_t len_words;
1758:STM32Cube_FW_N6/Drivers/STM32N6xx_HAL_Driver/Src/stm32n6xx_ll_usb.c ****   uint16_t num_packets;
1759:STM32Cube_FW_N6/Drivers/STM32N6xx_HAL_Driver/Src/stm32n6xx_ll_usb.c ****   uint16_t max_hc_pkt_count = HC_MAX_PKT_CNT;
 5788              		.loc 1 1759 12
 5789 0018 4FF48073 		mov	r3, #256
 5790 001c 7B83     		strh	r3, [r7, #26]	@ movhi
1760:STM32Cube_FW_N6/Drivers/STM32N6xx_HAL_Driver/Src/stm32n6xx_ll_usb.c **** 
1761:STM32Cube_FW_N6/Drivers/STM32N6xx_HAL_Driver/Src/stm32n6xx_ll_usb.c ****   /* in DMA mode host Core automatically issues ping in case of NYET/NAK */
1762:STM32Cube_FW_N6/Drivers/STM32N6xx_HAL_Driver/Src/stm32n6xx_ll_usb.c ****   if (dma == 1U)
 5791              		.loc 1 1762 6
 5792 001e FB79     		ldrb	r3, [r7, #7]	@ zero_extendqisi2
 5793 0020 012B     		cmp	r3, #1
 5794 0022 18D1     		bne	.L254
1763:STM32Cube_FW_N6/Drivers/STM32N6xx_HAL_Driver/Src/stm32n6xx_ll_usb.c ****   {
1764:STM32Cube_FW_N6/Drivers/STM32N6xx_HAL_Driver/Src/stm32n6xx_ll_usb.c ****     if ((hc->ep_type == EP_TYPE_CTRL) || (hc->ep_type == EP_TYPE_BULK))
 5795              		.loc 1 1764 12
 5796 0024 BB68     		ldr	r3, [r7, #8]
 5797 0026 9B7C     		ldrb	r3, [r3, #18]	@ zero_extendqisi2
 5798              		.loc 1 1764 8
 5799 0028 002B     		cmp	r3, #0
 5800 002a 03D0     		beq	.L255
 5801              		.loc 1 1764 45 discriminator 1
 5802 002c BB68     		ldr	r3, [r7, #8]
ARM GAS  /tmp/ccxt1UfV.s 			page 133


 5803 002e 9B7C     		ldrb	r3, [r3, #18]	@ zero_extendqisi2
 5804              		.loc 1 1764 39 discriminator 1
 5805 0030 022B     		cmp	r3, #2
 5806 0032 20D1     		bne	.L256
 5807              	.L255:
1765:STM32Cube_FW_N6/Drivers/STM32N6xx_HAL_Driver/Src/stm32n6xx_ll_usb.c ****     {
1766:STM32Cube_FW_N6/Drivers/STM32N6xx_HAL_Driver/Src/stm32n6xx_ll_usb.c **** 
1767:STM32Cube_FW_N6/Drivers/STM32N6xx_HAL_Driver/Src/stm32n6xx_ll_usb.c ****       USBx_HC((uint32_t)ch_num)->HCINTMSK &= ~(USB_OTG_HCINTMSK_NYET |
 5808              		.loc 1 1767 32
 5809 0034 FB69     		ldr	r3, [r7, #28]
 5810 0036 5A01     		lsls	r2, r3, #5
 5811 0038 3B6A     		ldr	r3, [r7, #32]
 5812 003a 1344     		add	r3, r3, r2
 5813 003c 03F5A063 		add	r3, r3, #1280
 5814 0040 DB68     		ldr	r3, [r3, #12]
 5815 0042 FA69     		ldr	r2, [r7, #28]
 5816 0044 5101     		lsls	r1, r2, #5
 5817 0046 3A6A     		ldr	r2, [r7, #32]
 5818 0048 0A44     		add	r2, r2, r1
 5819 004a 02F5A062 		add	r2, r2, #1280
 5820              		.loc 1 1767 43
 5821 004e 23F07003 		bic	r3, r3, #112
 5822 0052 D360     		str	r3, [r2, #12]
 5823 0054 0FE0     		b	.L256
 5824              	.L254:
1768:STM32Cube_FW_N6/Drivers/STM32N6xx_HAL_Driver/Src/stm32n6xx_ll_usb.c ****                                                USB_OTG_HCINTMSK_ACKM |
1769:STM32Cube_FW_N6/Drivers/STM32N6xx_HAL_Driver/Src/stm32n6xx_ll_usb.c ****                                                USB_OTG_HCINTMSK_NAKM);
1770:STM32Cube_FW_N6/Drivers/STM32N6xx_HAL_Driver/Src/stm32n6xx_ll_usb.c ****     }
1771:STM32Cube_FW_N6/Drivers/STM32N6xx_HAL_Driver/Src/stm32n6xx_ll_usb.c ****   }
1772:STM32Cube_FW_N6/Drivers/STM32N6xx_HAL_Driver/Src/stm32n6xx_ll_usb.c ****   else
1773:STM32Cube_FW_N6/Drivers/STM32N6xx_HAL_Driver/Src/stm32n6xx_ll_usb.c ****   {
1774:STM32Cube_FW_N6/Drivers/STM32N6xx_HAL_Driver/Src/stm32n6xx_ll_usb.c ****     if ((hc->speed == USBH_HS_SPEED) && (hc->do_ping == 1U))
 5825              		.loc 1 1774 12
 5826 0056 BB68     		ldr	r3, [r7, #8]
 5827 0058 1B79     		ldrb	r3, [r3, #4]	@ zero_extendqisi2
 5828              		.loc 1 1774 8
 5829 005a 002B     		cmp	r3, #0
 5830 005c 0BD1     		bne	.L256
 5831              		.loc 1 1774 44 discriminator 1
 5832 005e BB68     		ldr	r3, [r7, #8]
 5833 0060 5B79     		ldrb	r3, [r3, #5]	@ zero_extendqisi2
 5834              		.loc 1 1774 38 discriminator 1
 5835 0062 012B     		cmp	r3, #1
 5836 0064 07D1     		bne	.L256
1775:STM32Cube_FW_N6/Drivers/STM32N6xx_HAL_Driver/Src/stm32n6xx_ll_usb.c ****     {
1776:STM32Cube_FW_N6/Drivers/STM32N6xx_HAL_Driver/Src/stm32n6xx_ll_usb.c ****       (void)USB_DoPing(USBx, hc->ch_num);
 5837              		.loc 1 1776 13
 5838 0066 BB68     		ldr	r3, [r7, #8]
 5839 0068 5B78     		ldrb	r3, [r3, #1]	@ zero_extendqisi2
 5840 006a 1946     		mov	r1, r3
 5841 006c F868     		ldr	r0, [r7, #12]
 5842 006e FFF7FEFF 		bl	USB_DoPing
1777:STM32Cube_FW_N6/Drivers/STM32N6xx_HAL_Driver/Src/stm32n6xx_ll_usb.c ****       return HAL_OK;
 5843              		.loc 1 1777 14
 5844 0072 0023     		movs	r3, #0
 5845 0074 30E2     		b	.L257
 5846              	.L256:
ARM GAS  /tmp/ccxt1UfV.s 			page 134


1778:STM32Cube_FW_N6/Drivers/STM32N6xx_HAL_Driver/Src/stm32n6xx_ll_usb.c ****     }
1779:STM32Cube_FW_N6/Drivers/STM32N6xx_HAL_Driver/Src/stm32n6xx_ll_usb.c ****   }
1780:STM32Cube_FW_N6/Drivers/STM32N6xx_HAL_Driver/Src/stm32n6xx_ll_usb.c **** 
1781:STM32Cube_FW_N6/Drivers/STM32N6xx_HAL_Driver/Src/stm32n6xx_ll_usb.c ****   if (hc->do_ssplit == 1U)
 5847              		.loc 1 1781 9
 5848 0076 BB68     		ldr	r3, [r7, #8]
 5849 0078 9B79     		ldrb	r3, [r3, #6]	@ zero_extendqisi2
 5850              		.loc 1 1781 6
 5851 007a 012B     		cmp	r3, #1
 5852 007c 58D1     		bne	.L258
1782:STM32Cube_FW_N6/Drivers/STM32N6xx_HAL_Driver/Src/stm32n6xx_ll_usb.c ****   {
1783:STM32Cube_FW_N6/Drivers/STM32N6xx_HAL_Driver/Src/stm32n6xx_ll_usb.c ****     /* Set number of packet to 1 for Split transaction */
1784:STM32Cube_FW_N6/Drivers/STM32N6xx_HAL_Driver/Src/stm32n6xx_ll_usb.c ****     num_packets = 1U;
 5853              		.loc 1 1784 17
 5854 007e 0123     		movs	r3, #1
 5855 0080 FB84     		strh	r3, [r7, #38]	@ movhi
1785:STM32Cube_FW_N6/Drivers/STM32N6xx_HAL_Driver/Src/stm32n6xx_ll_usb.c **** 
1786:STM32Cube_FW_N6/Drivers/STM32N6xx_HAL_Driver/Src/stm32n6xx_ll_usb.c ****     if (hc->ep_is_in != 0U)
 5856              		.loc 1 1786 11
 5857 0082 BB68     		ldr	r3, [r7, #8]
 5858 0084 DB78     		ldrb	r3, [r3, #3]	@ zero_extendqisi2
 5859              		.loc 1 1786 8
 5860 0086 002B     		cmp	r3, #0
 5861 0088 07D0     		beq	.L259
1787:STM32Cube_FW_N6/Drivers/STM32N6xx_HAL_Driver/Src/stm32n6xx_ll_usb.c ****     {
1788:STM32Cube_FW_N6/Drivers/STM32N6xx_HAL_Driver/Src/stm32n6xx_ll_usb.c ****       hc->XferSize = (uint32_t)num_packets * hc->max_packet;
 5862              		.loc 1 1788 22
 5863 008a FB8C     		ldrh	r3, [r7, #38]
 5864              		.loc 1 1788 48
 5865 008c BA68     		ldr	r2, [r7, #8]
 5866 008e 928A     		ldrh	r2, [r2, #20]
 5867              		.loc 1 1788 44
 5868 0090 03FB02F2 		mul	r2, r3, r2
 5869              		.loc 1 1788 20
 5870 0094 BB68     		ldr	r3, [r7, #8]
 5871 0096 DA61     		str	r2, [r3, #28]
 5872 0098 79E0     		b	.L269
 5873              	.L259:
1789:STM32Cube_FW_N6/Drivers/STM32N6xx_HAL_Driver/Src/stm32n6xx_ll_usb.c ****     }
1790:STM32Cube_FW_N6/Drivers/STM32N6xx_HAL_Driver/Src/stm32n6xx_ll_usb.c ****     else
1791:STM32Cube_FW_N6/Drivers/STM32N6xx_HAL_Driver/Src/stm32n6xx_ll_usb.c ****     {
1792:STM32Cube_FW_N6/Drivers/STM32N6xx_HAL_Driver/Src/stm32n6xx_ll_usb.c ****       if (hc->ep_type == EP_TYPE_ISOC)
 5874              		.loc 1 1792 13
 5875 009a BB68     		ldr	r3, [r7, #8]
 5876 009c 9B7C     		ldrb	r3, [r3, #18]	@ zero_extendqisi2
 5877              		.loc 1 1792 10
 5878 009e 012B     		cmp	r3, #1
 5879 00a0 30D1     		bne	.L261
1793:STM32Cube_FW_N6/Drivers/STM32N6xx_HAL_Driver/Src/stm32n6xx_ll_usb.c ****       {
1794:STM32Cube_FW_N6/Drivers/STM32N6xx_HAL_Driver/Src/stm32n6xx_ll_usb.c ****         if (hc->xfer_len > ISO_SPLT_MPS)
 5880              		.loc 1 1794 15
 5881 00a2 BB68     		ldr	r3, [r7, #8]
 5882 00a4 1B6A     		ldr	r3, [r3, #32]
 5883              		.loc 1 1794 12
 5884 00a6 BC2B     		cmp	r3, #188
 5885 00a8 18D9     		bls	.L262
1795:STM32Cube_FW_N6/Drivers/STM32N6xx_HAL_Driver/Src/stm32n6xx_ll_usb.c ****         {
ARM GAS  /tmp/ccxt1UfV.s 			page 135


1796:STM32Cube_FW_N6/Drivers/STM32N6xx_HAL_Driver/Src/stm32n6xx_ll_usb.c ****           /* Isochrone Max Packet Size for Split mode */
1797:STM32Cube_FW_N6/Drivers/STM32N6xx_HAL_Driver/Src/stm32n6xx_ll_usb.c ****           hc->XferSize = hc->max_packet;
 5886              		.loc 1 1797 28
 5887 00aa BB68     		ldr	r3, [r7, #8]
 5888 00ac 9B8A     		ldrh	r3, [r3, #20]
 5889 00ae 1A46     		mov	r2, r3
 5890              		.loc 1 1797 24
 5891 00b0 BB68     		ldr	r3, [r7, #8]
 5892 00b2 DA61     		str	r2, [r3, #28]
1798:STM32Cube_FW_N6/Drivers/STM32N6xx_HAL_Driver/Src/stm32n6xx_ll_usb.c ****           hc->xfer_len = hc->XferSize;
 5893              		.loc 1 1798 28
 5894 00b4 BB68     		ldr	r3, [r7, #8]
 5895 00b6 DA69     		ldr	r2, [r3, #28]
 5896              		.loc 1 1798 24
 5897 00b8 BB68     		ldr	r3, [r7, #8]
 5898 00ba 1A62     		str	r2, [r3, #32]
1799:STM32Cube_FW_N6/Drivers/STM32N6xx_HAL_Driver/Src/stm32n6xx_ll_usb.c **** 
1800:STM32Cube_FW_N6/Drivers/STM32N6xx_HAL_Driver/Src/stm32n6xx_ll_usb.c ****           if ((hc->iso_splt_xactPos == HCSPLT_BEGIN) || (hc->iso_splt_xactPos == HCSPLT_MIDDLE))
 5899              		.loc 1 1800 18
 5900 00bc BB68     		ldr	r3, [r7, #8]
 5901 00be DB68     		ldr	r3, [r3, #12]
 5902              		.loc 1 1800 14
 5903 00c0 012B     		cmp	r3, #1
 5904 00c2 03D0     		beq	.L263
 5905              		.loc 1 1800 60 discriminator 1
 5906 00c4 BB68     		ldr	r3, [r7, #8]
 5907 00c6 DB68     		ldr	r3, [r3, #12]
 5908              		.loc 1 1800 54 discriminator 1
 5909 00c8 022B     		cmp	r3, #2
 5910 00ca 03D1     		bne	.L264
 5911              	.L263:
1801:STM32Cube_FW_N6/Drivers/STM32N6xx_HAL_Driver/Src/stm32n6xx_ll_usb.c ****           {
1802:STM32Cube_FW_N6/Drivers/STM32N6xx_HAL_Driver/Src/stm32n6xx_ll_usb.c ****             hc->iso_splt_xactPos = HCSPLT_MIDDLE;
 5912              		.loc 1 1802 34
 5913 00cc BB68     		ldr	r3, [r7, #8]
 5914 00ce 0222     		movs	r2, #2
 5915 00d0 DA60     		str	r2, [r3, #12]
 5916 00d2 5CE0     		b	.L269
 5917              	.L264:
1803:STM32Cube_FW_N6/Drivers/STM32N6xx_HAL_Driver/Src/stm32n6xx_ll_usb.c ****           }
1804:STM32Cube_FW_N6/Drivers/STM32N6xx_HAL_Driver/Src/stm32n6xx_ll_usb.c ****           else
1805:STM32Cube_FW_N6/Drivers/STM32N6xx_HAL_Driver/Src/stm32n6xx_ll_usb.c ****           {
1806:STM32Cube_FW_N6/Drivers/STM32N6xx_HAL_Driver/Src/stm32n6xx_ll_usb.c ****             hc->iso_splt_xactPos = HCSPLT_BEGIN;
 5918              		.loc 1 1806 34
 5919 00d4 BB68     		ldr	r3, [r7, #8]
 5920 00d6 0122     		movs	r2, #1
 5921 00d8 DA60     		str	r2, [r3, #12]
 5922 00da 58E0     		b	.L269
 5923              	.L262:
1807:STM32Cube_FW_N6/Drivers/STM32N6xx_HAL_Driver/Src/stm32n6xx_ll_usb.c ****           }
1808:STM32Cube_FW_N6/Drivers/STM32N6xx_HAL_Driver/Src/stm32n6xx_ll_usb.c ****         }
1809:STM32Cube_FW_N6/Drivers/STM32N6xx_HAL_Driver/Src/stm32n6xx_ll_usb.c ****         else
1810:STM32Cube_FW_N6/Drivers/STM32N6xx_HAL_Driver/Src/stm32n6xx_ll_usb.c ****         {
1811:STM32Cube_FW_N6/Drivers/STM32N6xx_HAL_Driver/Src/stm32n6xx_ll_usb.c ****           hc->XferSize = hc->xfer_len;
 5924              		.loc 1 1811 28
 5925 00dc BB68     		ldr	r3, [r7, #8]
 5926 00de 1A6A     		ldr	r2, [r3, #32]
ARM GAS  /tmp/ccxt1UfV.s 			page 136


 5927              		.loc 1 1811 24
 5928 00e0 BB68     		ldr	r3, [r7, #8]
 5929 00e2 DA61     		str	r2, [r3, #28]
1812:STM32Cube_FW_N6/Drivers/STM32N6xx_HAL_Driver/Src/stm32n6xx_ll_usb.c **** 
1813:STM32Cube_FW_N6/Drivers/STM32N6xx_HAL_Driver/Src/stm32n6xx_ll_usb.c ****           if ((hc->iso_splt_xactPos != HCSPLT_BEGIN) && (hc->iso_splt_xactPos != HCSPLT_MIDDLE))
 5930              		.loc 1 1813 18
 5931 00e4 BB68     		ldr	r3, [r7, #8]
 5932 00e6 DB68     		ldr	r3, [r3, #12]
 5933              		.loc 1 1813 14
 5934 00e8 012B     		cmp	r3, #1
 5935 00ea 07D0     		beq	.L267
 5936              		.loc 1 1813 60 discriminator 1
 5937 00ec BB68     		ldr	r3, [r7, #8]
 5938 00ee DB68     		ldr	r3, [r3, #12]
 5939              		.loc 1 1813 54 discriminator 1
 5940 00f0 022B     		cmp	r3, #2
 5941 00f2 03D0     		beq	.L267
1814:STM32Cube_FW_N6/Drivers/STM32N6xx_HAL_Driver/Src/stm32n6xx_ll_usb.c ****           {
1815:STM32Cube_FW_N6/Drivers/STM32N6xx_HAL_Driver/Src/stm32n6xx_ll_usb.c ****             hc->iso_splt_xactPos = HCSPLT_FULL;
 5942              		.loc 1 1815 34
 5943 00f4 BB68     		ldr	r3, [r7, #8]
 5944 00f6 0422     		movs	r2, #4
 5945 00f8 DA60     		str	r2, [r3, #12]
 5946 00fa 48E0     		b	.L269
 5947              	.L267:
1816:STM32Cube_FW_N6/Drivers/STM32N6xx_HAL_Driver/Src/stm32n6xx_ll_usb.c ****           }
1817:STM32Cube_FW_N6/Drivers/STM32N6xx_HAL_Driver/Src/stm32n6xx_ll_usb.c ****           else
1818:STM32Cube_FW_N6/Drivers/STM32N6xx_HAL_Driver/Src/stm32n6xx_ll_usb.c ****           {
1819:STM32Cube_FW_N6/Drivers/STM32N6xx_HAL_Driver/Src/stm32n6xx_ll_usb.c ****             hc->iso_splt_xactPos = HCSPLT_END;
 5948              		.loc 1 1819 34
 5949 00fc BB68     		ldr	r3, [r7, #8]
 5950 00fe 0322     		movs	r2, #3
 5951 0100 DA60     		str	r2, [r3, #12]
 5952 0102 44E0     		b	.L269
 5953              	.L261:
1820:STM32Cube_FW_N6/Drivers/STM32N6xx_HAL_Driver/Src/stm32n6xx_ll_usb.c ****           }
1821:STM32Cube_FW_N6/Drivers/STM32N6xx_HAL_Driver/Src/stm32n6xx_ll_usb.c ****         }
1822:STM32Cube_FW_N6/Drivers/STM32N6xx_HAL_Driver/Src/stm32n6xx_ll_usb.c ****       }
1823:STM32Cube_FW_N6/Drivers/STM32N6xx_HAL_Driver/Src/stm32n6xx_ll_usb.c ****       else
1824:STM32Cube_FW_N6/Drivers/STM32N6xx_HAL_Driver/Src/stm32n6xx_ll_usb.c ****       {
1825:STM32Cube_FW_N6/Drivers/STM32N6xx_HAL_Driver/Src/stm32n6xx_ll_usb.c ****         if ((dma == 1U) && (hc->xfer_len > hc->max_packet))
 5954              		.loc 1 1825 12
 5955 0104 FB79     		ldrb	r3, [r7, #7]	@ zero_extendqisi2
 5956 0106 012B     		cmp	r3, #1
 5957 0108 0DD1     		bne	.L268
 5958              		.loc 1 1825 31 discriminator 1
 5959 010a BB68     		ldr	r3, [r7, #8]
 5960 010c 1B6A     		ldr	r3, [r3, #32]
 5961              		.loc 1 1825 46 discriminator 1
 5962 010e BA68     		ldr	r2, [r7, #8]
 5963 0110 928A     		ldrh	r2, [r2, #20]
 5964              		.loc 1 1825 25 discriminator 1
 5965 0112 9342     		cmp	r3, r2
 5966 0114 07D9     		bls	.L268
1826:STM32Cube_FW_N6/Drivers/STM32N6xx_HAL_Driver/Src/stm32n6xx_ll_usb.c ****         {
1827:STM32Cube_FW_N6/Drivers/STM32N6xx_HAL_Driver/Src/stm32n6xx_ll_usb.c ****           hc->XferSize = (uint32_t)num_packets * hc->max_packet;
 5967              		.loc 1 1827 26
ARM GAS  /tmp/ccxt1UfV.s 			page 137


 5968 0116 FB8C     		ldrh	r3, [r7, #38]
 5969              		.loc 1 1827 52
 5970 0118 BA68     		ldr	r2, [r7, #8]
 5971 011a 928A     		ldrh	r2, [r2, #20]
 5972              		.loc 1 1827 48
 5973 011c 03FB02F2 		mul	r2, r3, r2
 5974              		.loc 1 1827 24
 5975 0120 BB68     		ldr	r3, [r7, #8]
 5976 0122 DA61     		str	r2, [r3, #28]
 5977 0124 33E0     		b	.L269
 5978              	.L268:
1828:STM32Cube_FW_N6/Drivers/STM32N6xx_HAL_Driver/Src/stm32n6xx_ll_usb.c ****         }
1829:STM32Cube_FW_N6/Drivers/STM32N6xx_HAL_Driver/Src/stm32n6xx_ll_usb.c ****         else
1830:STM32Cube_FW_N6/Drivers/STM32N6xx_HAL_Driver/Src/stm32n6xx_ll_usb.c ****         {
1831:STM32Cube_FW_N6/Drivers/STM32N6xx_HAL_Driver/Src/stm32n6xx_ll_usb.c ****           hc->XferSize = hc->xfer_len;
 5979              		.loc 1 1831 28
 5980 0126 BB68     		ldr	r3, [r7, #8]
 5981 0128 1A6A     		ldr	r2, [r3, #32]
 5982              		.loc 1 1831 24
 5983 012a BB68     		ldr	r3, [r7, #8]
 5984 012c DA61     		str	r2, [r3, #28]
 5985 012e 2EE0     		b	.L269
 5986              	.L258:
1832:STM32Cube_FW_N6/Drivers/STM32N6xx_HAL_Driver/Src/stm32n6xx_ll_usb.c ****         }
1833:STM32Cube_FW_N6/Drivers/STM32N6xx_HAL_Driver/Src/stm32n6xx_ll_usb.c ****       }
1834:STM32Cube_FW_N6/Drivers/STM32N6xx_HAL_Driver/Src/stm32n6xx_ll_usb.c ****     }
1835:STM32Cube_FW_N6/Drivers/STM32N6xx_HAL_Driver/Src/stm32n6xx_ll_usb.c ****   }
1836:STM32Cube_FW_N6/Drivers/STM32N6xx_HAL_Driver/Src/stm32n6xx_ll_usb.c ****   else
1837:STM32Cube_FW_N6/Drivers/STM32N6xx_HAL_Driver/Src/stm32n6xx_ll_usb.c ****   {
1838:STM32Cube_FW_N6/Drivers/STM32N6xx_HAL_Driver/Src/stm32n6xx_ll_usb.c ****     /* Compute the expected number of packets associated to the transfer */
1839:STM32Cube_FW_N6/Drivers/STM32N6xx_HAL_Driver/Src/stm32n6xx_ll_usb.c ****     if (hc->xfer_len > 0U)
 5987              		.loc 1 1839 11
 5988 0130 BB68     		ldr	r3, [r7, #8]
 5989 0132 1B6A     		ldr	r3, [r3, #32]
 5990              		.loc 1 1839 8
 5991 0134 002B     		cmp	r3, #0
 5992 0136 18D0     		beq	.L270
1840:STM32Cube_FW_N6/Drivers/STM32N6xx_HAL_Driver/Src/stm32n6xx_ll_usb.c ****     {
1841:STM32Cube_FW_N6/Drivers/STM32N6xx_HAL_Driver/Src/stm32n6xx_ll_usb.c ****       num_packets = (uint16_t)((hc->xfer_len + hc->max_packet - 1U) / hc->max_packet);
 5993              		.loc 1 1841 35
 5994 0138 BB68     		ldr	r3, [r7, #8]
 5995 013a 1B6A     		ldr	r3, [r3, #32]
 5996              		.loc 1 1841 50
 5997 013c BA68     		ldr	r2, [r7, #8]
 5998 013e 928A     		ldrh	r2, [r2, #20]
 5999              		.loc 1 1841 46
 6000 0140 1344     		add	r3, r3, r2
 6001              		.loc 1 1841 63
 6002 0142 013B     		subs	r3, r3, #1
 6003              		.loc 1 1841 73
 6004 0144 BA68     		ldr	r2, [r7, #8]
 6005 0146 928A     		ldrh	r2, [r2, #20]
 6006              		.loc 1 1841 69
 6007 0148 B3FBF2F3 		udiv	r3, r3, r2
 6008              		.loc 1 1841 19
 6009 014c FB84     		strh	r3, [r7, #38]	@ movhi
1842:STM32Cube_FW_N6/Drivers/STM32N6xx_HAL_Driver/Src/stm32n6xx_ll_usb.c **** 
ARM GAS  /tmp/ccxt1UfV.s 			page 138


1843:STM32Cube_FW_N6/Drivers/STM32N6xx_HAL_Driver/Src/stm32n6xx_ll_usb.c ****       if (num_packets > max_hc_pkt_count)
 6010              		.loc 1 1843 10
 6011 014e FA8C     		ldrh	r2, [r7, #38]
 6012 0150 7B8B     		ldrh	r3, [r7, #26]
 6013 0152 9A42     		cmp	r2, r3
 6014 0154 0BD9     		bls	.L271
1844:STM32Cube_FW_N6/Drivers/STM32N6xx_HAL_Driver/Src/stm32n6xx_ll_usb.c ****       {
1845:STM32Cube_FW_N6/Drivers/STM32N6xx_HAL_Driver/Src/stm32n6xx_ll_usb.c ****         num_packets = max_hc_pkt_count;
 6015              		.loc 1 1845 21
 6016 0156 7B8B     		ldrh	r3, [r7, #26]	@ movhi
 6017 0158 FB84     		strh	r3, [r7, #38]	@ movhi
1846:STM32Cube_FW_N6/Drivers/STM32N6xx_HAL_Driver/Src/stm32n6xx_ll_usb.c ****         hc->XferSize = (uint32_t)num_packets * hc->max_packet;
 6018              		.loc 1 1846 24
 6019 015a FB8C     		ldrh	r3, [r7, #38]
 6020              		.loc 1 1846 50
 6021 015c BA68     		ldr	r2, [r7, #8]
 6022 015e 928A     		ldrh	r2, [r2, #20]
 6023              		.loc 1 1846 46
 6024 0160 03FB02F2 		mul	r2, r3, r2
 6025              		.loc 1 1846 22
 6026 0164 BB68     		ldr	r3, [r7, #8]
 6027 0166 DA61     		str	r2, [r3, #28]
 6028 0168 01E0     		b	.L271
 6029              	.L270:
1847:STM32Cube_FW_N6/Drivers/STM32N6xx_HAL_Driver/Src/stm32n6xx_ll_usb.c ****       }
1848:STM32Cube_FW_N6/Drivers/STM32N6xx_HAL_Driver/Src/stm32n6xx_ll_usb.c ****     }
1849:STM32Cube_FW_N6/Drivers/STM32N6xx_HAL_Driver/Src/stm32n6xx_ll_usb.c ****     else
1850:STM32Cube_FW_N6/Drivers/STM32N6xx_HAL_Driver/Src/stm32n6xx_ll_usb.c ****     {
1851:STM32Cube_FW_N6/Drivers/STM32N6xx_HAL_Driver/Src/stm32n6xx_ll_usb.c ****       num_packets = 1U;
 6030              		.loc 1 1851 19
 6031 016a 0123     		movs	r3, #1
 6032 016c FB84     		strh	r3, [r7, #38]	@ movhi
 6033              	.L271:
1852:STM32Cube_FW_N6/Drivers/STM32N6xx_HAL_Driver/Src/stm32n6xx_ll_usb.c ****     }
1853:STM32Cube_FW_N6/Drivers/STM32N6xx_HAL_Driver/Src/stm32n6xx_ll_usb.c **** 
1854:STM32Cube_FW_N6/Drivers/STM32N6xx_HAL_Driver/Src/stm32n6xx_ll_usb.c ****     /*
1855:STM32Cube_FW_N6/Drivers/STM32N6xx_HAL_Driver/Src/stm32n6xx_ll_usb.c ****     * For IN channel HCTSIZ.XferSize is expected to be an integer multiple of
1856:STM32Cube_FW_N6/Drivers/STM32N6xx_HAL_Driver/Src/stm32n6xx_ll_usb.c ****     * max_packet size.
1857:STM32Cube_FW_N6/Drivers/STM32N6xx_HAL_Driver/Src/stm32n6xx_ll_usb.c ****     */
1858:STM32Cube_FW_N6/Drivers/STM32N6xx_HAL_Driver/Src/stm32n6xx_ll_usb.c ****     if (hc->ep_is_in != 0U)
 6034              		.loc 1 1858 11
 6035 016e BB68     		ldr	r3, [r7, #8]
 6036 0170 DB78     		ldrb	r3, [r3, #3]	@ zero_extendqisi2
 6037              		.loc 1 1858 8
 6038 0172 002B     		cmp	r3, #0
 6039 0174 07D0     		beq	.L272
1859:STM32Cube_FW_N6/Drivers/STM32N6xx_HAL_Driver/Src/stm32n6xx_ll_usb.c ****     {
1860:STM32Cube_FW_N6/Drivers/STM32N6xx_HAL_Driver/Src/stm32n6xx_ll_usb.c ****       hc->XferSize = (uint32_t)num_packets * hc->max_packet;
 6040              		.loc 1 1860 22
 6041 0176 FB8C     		ldrh	r3, [r7, #38]
 6042              		.loc 1 1860 48
 6043 0178 BA68     		ldr	r2, [r7, #8]
 6044 017a 928A     		ldrh	r2, [r2, #20]
 6045              		.loc 1 1860 44
 6046 017c 03FB02F2 		mul	r2, r3, r2
 6047              		.loc 1 1860 20
 6048 0180 BB68     		ldr	r3, [r7, #8]
ARM GAS  /tmp/ccxt1UfV.s 			page 139


 6049 0182 DA61     		str	r2, [r3, #28]
 6050 0184 03E0     		b	.L269
 6051              	.L272:
1861:STM32Cube_FW_N6/Drivers/STM32N6xx_HAL_Driver/Src/stm32n6xx_ll_usb.c ****     }
1862:STM32Cube_FW_N6/Drivers/STM32N6xx_HAL_Driver/Src/stm32n6xx_ll_usb.c ****     else
1863:STM32Cube_FW_N6/Drivers/STM32N6xx_HAL_Driver/Src/stm32n6xx_ll_usb.c ****     {
1864:STM32Cube_FW_N6/Drivers/STM32N6xx_HAL_Driver/Src/stm32n6xx_ll_usb.c ****       hc->XferSize = hc->xfer_len;
 6052              		.loc 1 1864 24
 6053 0186 BB68     		ldr	r3, [r7, #8]
 6054 0188 1A6A     		ldr	r2, [r3, #32]
 6055              		.loc 1 1864 20
 6056 018a BB68     		ldr	r3, [r7, #8]
 6057 018c DA61     		str	r2, [r3, #28]
 6058              	.L269:
1865:STM32Cube_FW_N6/Drivers/STM32N6xx_HAL_Driver/Src/stm32n6xx_ll_usb.c ****     }
1866:STM32Cube_FW_N6/Drivers/STM32N6xx_HAL_Driver/Src/stm32n6xx_ll_usb.c ****   }
1867:STM32Cube_FW_N6/Drivers/STM32N6xx_HAL_Driver/Src/stm32n6xx_ll_usb.c **** 
1868:STM32Cube_FW_N6/Drivers/STM32N6xx_HAL_Driver/Src/stm32n6xx_ll_usb.c ****   /* Initialize the HCTSIZn register */
1869:STM32Cube_FW_N6/Drivers/STM32N6xx_HAL_Driver/Src/stm32n6xx_ll_usb.c ****   USBx_HC(ch_num)->HCTSIZ = (hc->XferSize & USB_OTG_HCTSIZ_XFRSIZ) |
 6059              		.loc 1 1869 32
 6060 018e BB68     		ldr	r3, [r7, #8]
 6061 0190 DB69     		ldr	r3, [r3, #28]
 6062              		.loc 1 1869 43
 6063 0192 C3F31202 		ubfx	r2, r3, #0, #19
1870:STM32Cube_FW_N6/Drivers/STM32N6xx_HAL_Driver/Src/stm32n6xx_ll_usb.c ****                             (((uint32_t)num_packets << 19) & USB_OTG_HCTSIZ_PKTCNT) |
 6064              		.loc 1 1870 31
 6065 0196 FB8C     		ldrh	r3, [r7, #38]
 6066              		.loc 1 1870 53
 6067 0198 D904     		lsls	r1, r3, #19
 6068              		.loc 1 1870 60
 6069 019a A44B     		ldr	r3, .L301
 6070 019c 0B40     		ands	r3, r3, r1
1869:STM32Cube_FW_N6/Drivers/STM32N6xx_HAL_Driver/Src/stm32n6xx_ll_usb.c ****                             (((uint32_t)num_packets << 19) & USB_OTG_HCTSIZ_PKTCNT) |
 6071              		.loc 1 1869 68
 6072 019e 1A43     		orrs	r2, r2, r3
1871:STM32Cube_FW_N6/Drivers/STM32N6xx_HAL_Driver/Src/stm32n6xx_ll_usb.c ****                             (((uint32_t)hc->data_pid << 29) & USB_OTG_HCTSIZ_DPID);
 6073              		.loc 1 1871 43
 6074 01a0 BB68     		ldr	r3, [r7, #8]
 6075 01a2 9B7D     		ldrb	r3, [r3, #22]	@ zero_extendqisi2
 6076              		.loc 1 1871 54
 6077 01a4 5B07     		lsls	r3, r3, #29
 6078              		.loc 1 1871 61
 6079 01a6 03F0C043 		and	r3, r3, #1610612736
1869:STM32Cube_FW_N6/Drivers/STM32N6xx_HAL_Driver/Src/stm32n6xx_ll_usb.c ****                             (((uint32_t)num_packets << 19) & USB_OTG_HCTSIZ_PKTCNT) |
 6080              		.loc 1 1869 3
 6081 01aa F969     		ldr	r1, [r7, #28]
 6082 01ac 4801     		lsls	r0, r1, #5
 6083 01ae 396A     		ldr	r1, [r7, #32]
 6084 01b0 0144     		add	r1, r1, r0
 6085 01b2 01F5A061 		add	r1, r1, #1280
1870:STM32Cube_FW_N6/Drivers/STM32N6xx_HAL_Driver/Src/stm32n6xx_ll_usb.c ****                             (((uint32_t)num_packets << 19) & USB_OTG_HCTSIZ_PKTCNT) |
 6086              		.loc 1 1870 85
 6087 01b6 1343     		orrs	r3, r3, r2
1869:STM32Cube_FW_N6/Drivers/STM32N6xx_HAL_Driver/Src/stm32n6xx_ll_usb.c ****                             (((uint32_t)num_packets << 19) & USB_OTG_HCTSIZ_PKTCNT) |
 6088              		.loc 1 1869 27
 6089 01b8 0B61     		str	r3, [r1, #16]
1872:STM32Cube_FW_N6/Drivers/STM32N6xx_HAL_Driver/Src/stm32n6xx_ll_usb.c **** 
ARM GAS  /tmp/ccxt1UfV.s 			page 140


1873:STM32Cube_FW_N6/Drivers/STM32N6xx_HAL_Driver/Src/stm32n6xx_ll_usb.c ****   if (dma != 0U)
 6090              		.loc 1 1873 6
 6091 01ba FB79     		ldrb	r3, [r7, #7]	@ zero_extendqisi2
 6092 01bc 002B     		cmp	r3, #0
 6093 01be 09D0     		beq	.L273
1874:STM32Cube_FW_N6/Drivers/STM32N6xx_HAL_Driver/Src/stm32n6xx_ll_usb.c ****   {
1875:STM32Cube_FW_N6/Drivers/STM32N6xx_HAL_Driver/Src/stm32n6xx_ll_usb.c ****     /* xfer_buff MUST be 32-bits aligned */
1876:STM32Cube_FW_N6/Drivers/STM32N6xx_HAL_Driver/Src/stm32n6xx_ll_usb.c ****     USBx_HC(ch_num)->HCDMA = (uint32_t)hc->xfer_buff;
 6094              		.loc 1 1876 42
 6095 01c0 BB68     		ldr	r3, [r7, #8]
 6096 01c2 9969     		ldr	r1, [r3, #24]
 6097              		.loc 1 1876 5
 6098 01c4 FB69     		ldr	r3, [r7, #28]
 6099 01c6 5A01     		lsls	r2, r3, #5
 6100 01c8 3B6A     		ldr	r3, [r7, #32]
 6101 01ca 1344     		add	r3, r3, r2
 6102 01cc 03F5A063 		add	r3, r3, #1280
 6103              		.loc 1 1876 30
 6104 01d0 0A46     		mov	r2, r1
 6105              		.loc 1 1876 28
 6106 01d2 5A61     		str	r2, [r3, #20]
 6107              	.L273:
1877:STM32Cube_FW_N6/Drivers/STM32N6xx_HAL_Driver/Src/stm32n6xx_ll_usb.c ****   }
1878:STM32Cube_FW_N6/Drivers/STM32N6xx_HAL_Driver/Src/stm32n6xx_ll_usb.c **** 
1879:STM32Cube_FW_N6/Drivers/STM32N6xx_HAL_Driver/Src/stm32n6xx_ll_usb.c ****   is_oddframe = (((uint32_t)USBx_HOST->HFNUM & 0x01U) != 0U) ? 0U : 1U;
 6108              		.loc 1 1879 29
 6109 01d4 3B6A     		ldr	r3, [r7, #32]
 6110 01d6 03F58063 		add	r3, r3, #1024
 6111              		.loc 1 1879 38
 6112 01da 9B68     		ldr	r3, [r3, #8]
 6113              		.loc 1 1879 46
 6114 01dc 03F00103 		and	r3, r3, #1
 6115              		.loc 1 1879 67
 6116 01e0 002B     		cmp	r3, #0
 6117 01e2 0CBF     		ite	eq
 6118 01e4 0123     		moveq	r3, #1
 6119 01e6 0023     		movne	r3, #0
 6120 01e8 DBB2     		uxtb	r3, r3
 6121              		.loc 1 1879 15
 6122 01ea 7B76     		strb	r3, [r7, #25]
1880:STM32Cube_FW_N6/Drivers/STM32N6xx_HAL_Driver/Src/stm32n6xx_ll_usb.c ****   USBx_HC(ch_num)->HCCHAR &= ~USB_OTG_HCCHAR_ODDFRM;
 6123              		.loc 1 1880 18
 6124 01ec FB69     		ldr	r3, [r7, #28]
 6125 01ee 5A01     		lsls	r2, r3, #5
 6126 01f0 3B6A     		ldr	r3, [r7, #32]
 6127 01f2 1344     		add	r3, r3, r2
 6128 01f4 03F5A063 		add	r3, r3, #1280
 6129 01f8 1B68     		ldr	r3, [r3]
 6130 01fa FA69     		ldr	r2, [r7, #28]
 6131 01fc 5101     		lsls	r1, r2, #5
 6132 01fe 3A6A     		ldr	r2, [r7, #32]
 6133 0200 0A44     		add	r2, r2, r1
 6134 0202 02F5A062 		add	r2, r2, #1280
 6135              		.loc 1 1880 27
 6136 0206 23F00053 		bic	r3, r3, #536870912
 6137 020a 1360     		str	r3, [r2]
1881:STM32Cube_FW_N6/Drivers/STM32N6xx_HAL_Driver/Src/stm32n6xx_ll_usb.c ****   USBx_HC(ch_num)->HCCHAR |= (uint32_t)is_oddframe << 29;
ARM GAS  /tmp/ccxt1UfV.s 			page 141


 6138              		.loc 1 1881 18
 6139 020c FB69     		ldr	r3, [r7, #28]
 6140 020e 5A01     		lsls	r2, r3, #5
 6141 0210 3B6A     		ldr	r3, [r7, #32]
 6142 0212 1344     		add	r3, r3, r2
 6143 0214 03F5A063 		add	r3, r3, #1280
 6144 0218 1A68     		ldr	r2, [r3]
 6145              		.loc 1 1881 30
 6146 021a 7B7E     		ldrb	r3, [r7, #25]	@ zero_extendqisi2
 6147              		.loc 1 1881 52
 6148 021c 5B07     		lsls	r3, r3, #29
 6149              		.loc 1 1881 18
 6150 021e F969     		ldr	r1, [r7, #28]
 6151 0220 4801     		lsls	r0, r1, #5
 6152 0222 396A     		ldr	r1, [r7, #32]
 6153 0224 0144     		add	r1, r1, r0
 6154 0226 01F5A061 		add	r1, r1, #1280
 6155              		.loc 1 1881 27
 6156 022a 1343     		orrs	r3, r3, r2
 6157 022c 0B60     		str	r3, [r1]
1882:STM32Cube_FW_N6/Drivers/STM32N6xx_HAL_Driver/Src/stm32n6xx_ll_usb.c **** 
1883:STM32Cube_FW_N6/Drivers/STM32N6xx_HAL_Driver/Src/stm32n6xx_ll_usb.c ****   if (hc->do_ssplit == 1U)
 6158              		.loc 1 1883 9
 6159 022e BB68     		ldr	r3, [r7, #8]
 6160 0230 9B79     		ldrb	r3, [r3, #6]	@ zero_extendqisi2
 6161              		.loc 1 1883 6
 6162 0232 012B     		cmp	r3, #1
 6163 0234 40F0C480 		bne	.L274
1884:STM32Cube_FW_N6/Drivers/STM32N6xx_HAL_Driver/Src/stm32n6xx_ll_usb.c ****   {
1885:STM32Cube_FW_N6/Drivers/STM32N6xx_HAL_Driver/Src/stm32n6xx_ll_usb.c ****     /* Set Hub start Split transaction */
1886:STM32Cube_FW_N6/Drivers/STM32N6xx_HAL_Driver/Src/stm32n6xx_ll_usb.c ****     USBx_HC((uint32_t)ch_num)->HCSPLT = ((uint32_t)hc->hub_addr << USB_OTG_HCSPLT_HUBADDR_Pos) |
 6164              		.loc 1 1886 54
 6165 0238 BB68     		ldr	r3, [r7, #8]
 6166 023a 5B7C     		ldrb	r3, [r3, #17]	@ zero_extendqisi2
 6167              		.loc 1 1886 65
 6168 023c DB01     		lsls	r3, r3, #7
1887:STM32Cube_FW_N6/Drivers/STM32N6xx_HAL_Driver/Src/stm32n6xx_ll_usb.c ****                                         (uint32_t)hc->hub_port_nbr | USB_OTG_HCSPLT_SPLITEN;
 6169              		.loc 1 1887 53
 6170 023e BA68     		ldr	r2, [r7, #8]
 6171 0240 127C     		ldrb	r2, [r2, #16]	@ zero_extendqisi2
1886:STM32Cube_FW_N6/Drivers/STM32N6xx_HAL_Driver/Src/stm32n6xx_ll_usb.c ****                                         (uint32_t)hc->hub_port_nbr | USB_OTG_HCSPLT_SPLITEN;
 6172              		.loc 1 1886 96
 6173 0242 1343     		orrs	r3, r3, r2
1886:STM32Cube_FW_N6/Drivers/STM32N6xx_HAL_Driver/Src/stm32n6xx_ll_usb.c ****                                         (uint32_t)hc->hub_port_nbr | USB_OTG_HCSPLT_SPLITEN;
 6174              		.loc 1 1886 5
 6175 0244 FA69     		ldr	r2, [r7, #28]
 6176 0246 5101     		lsls	r1, r2, #5
 6177 0248 3A6A     		ldr	r2, [r7, #32]
 6178 024a 0A44     		add	r2, r2, r1
 6179 024c 02F5A062 		add	r2, r2, #1280
 6180              		.loc 1 1887 68
 6181 0250 43F00043 		orr	r3, r3, #-2147483648
1886:STM32Cube_FW_N6/Drivers/STM32N6xx_HAL_Driver/Src/stm32n6xx_ll_usb.c ****                                         (uint32_t)hc->hub_port_nbr | USB_OTG_HCSPLT_SPLITEN;
 6182              		.loc 1 1886 39
 6183 0254 5360     		str	r3, [r2, #4]
1888:STM32Cube_FW_N6/Drivers/STM32N6xx_HAL_Driver/Src/stm32n6xx_ll_usb.c **** 
1889:STM32Cube_FW_N6/Drivers/STM32N6xx_HAL_Driver/Src/stm32n6xx_ll_usb.c ****     /* unmask ack & nyet for IN/OUT transactions */
ARM GAS  /tmp/ccxt1UfV.s 			page 142


1890:STM32Cube_FW_N6/Drivers/STM32N6xx_HAL_Driver/Src/stm32n6xx_ll_usb.c ****     USBx_HC((uint32_t)ch_num)->HCINTMSK |= (USB_OTG_HCINTMSK_ACKM |
 6184              		.loc 1 1890 30
 6185 0256 FB69     		ldr	r3, [r7, #28]
 6186 0258 5A01     		lsls	r2, r3, #5
 6187 025a 3B6A     		ldr	r3, [r7, #32]
 6188 025c 1344     		add	r3, r3, r2
 6189 025e 03F5A063 		add	r3, r3, #1280
 6190 0262 DB68     		ldr	r3, [r3, #12]
 6191 0264 FA69     		ldr	r2, [r7, #28]
 6192 0266 5101     		lsls	r1, r2, #5
 6193 0268 3A6A     		ldr	r2, [r7, #32]
 6194 026a 0A44     		add	r2, r2, r1
 6195 026c 02F5A062 		add	r2, r2, #1280
 6196              		.loc 1 1890 41
 6197 0270 43F06003 		orr	r3, r3, #96
 6198 0274 D360     		str	r3, [r2, #12]
1891:STM32Cube_FW_N6/Drivers/STM32N6xx_HAL_Driver/Src/stm32n6xx_ll_usb.c ****                                             USB_OTG_HCINTMSK_NYET);
1892:STM32Cube_FW_N6/Drivers/STM32N6xx_HAL_Driver/Src/stm32n6xx_ll_usb.c **** 
1893:STM32Cube_FW_N6/Drivers/STM32N6xx_HAL_Driver/Src/stm32n6xx_ll_usb.c ****     if ((hc->do_csplit == 1U) && (hc->ep_is_in == 0U))
 6199              		.loc 1 1893 12
 6200 0276 BB68     		ldr	r3, [r7, #8]
 6201 0278 DB79     		ldrb	r3, [r3, #7]	@ zero_extendqisi2
 6202              		.loc 1 1893 8
 6203 027a 012B     		cmp	r3, #1
 6204 027c 23D1     		bne	.L275
 6205              		.loc 1 1893 37 discriminator 1
 6206 027e BB68     		ldr	r3, [r7, #8]
 6207 0280 DB78     		ldrb	r3, [r3, #3]	@ zero_extendqisi2
 6208              		.loc 1 1893 31 discriminator 1
 6209 0282 002B     		cmp	r3, #0
 6210 0284 1FD1     		bne	.L275
1894:STM32Cube_FW_N6/Drivers/STM32N6xx_HAL_Driver/Src/stm32n6xx_ll_usb.c ****     {
1895:STM32Cube_FW_N6/Drivers/STM32N6xx_HAL_Driver/Src/stm32n6xx_ll_usb.c ****       USBx_HC((uint32_t)ch_num)->HCSPLT |= USB_OTG_HCSPLT_COMPLSPLT;
 6211              		.loc 1 1895 32
 6212 0286 FB69     		ldr	r3, [r7, #28]
 6213 0288 5A01     		lsls	r2, r3, #5
 6214 028a 3B6A     		ldr	r3, [r7, #32]
 6215 028c 1344     		add	r3, r3, r2
 6216 028e 03F5A063 		add	r3, r3, #1280
 6217 0292 5B68     		ldr	r3, [r3, #4]
 6218 0294 FA69     		ldr	r2, [r7, #28]
 6219 0296 5101     		lsls	r1, r2, #5
 6220 0298 3A6A     		ldr	r2, [r7, #32]
 6221 029a 0A44     		add	r2, r2, r1
 6222 029c 02F5A062 		add	r2, r2, #1280
 6223              		.loc 1 1895 41
 6224 02a0 43F48033 		orr	r3, r3, #65536
 6225 02a4 5360     		str	r3, [r2, #4]
1896:STM32Cube_FW_N6/Drivers/STM32N6xx_HAL_Driver/Src/stm32n6xx_ll_usb.c ****       USBx_HC((uint32_t)ch_num)->HCINTMSK |= USB_OTG_HCINTMSK_NYET;
 6226              		.loc 1 1896 32
 6227 02a6 FB69     		ldr	r3, [r7, #28]
 6228 02a8 5A01     		lsls	r2, r3, #5
 6229 02aa 3B6A     		ldr	r3, [r7, #32]
 6230 02ac 1344     		add	r3, r3, r2
 6231 02ae 03F5A063 		add	r3, r3, #1280
 6232 02b2 DB68     		ldr	r3, [r3, #12]
 6233 02b4 FA69     		ldr	r2, [r7, #28]
ARM GAS  /tmp/ccxt1UfV.s 			page 143


 6234 02b6 5101     		lsls	r1, r2, #5
 6235 02b8 3A6A     		ldr	r2, [r7, #32]
 6236 02ba 0A44     		add	r2, r2, r1
 6237 02bc 02F5A062 		add	r2, r2, #1280
 6238              		.loc 1 1896 43
 6239 02c0 43F04003 		orr	r3, r3, #64
 6240 02c4 D360     		str	r3, [r2, #12]
 6241              	.L275:
1897:STM32Cube_FW_N6/Drivers/STM32N6xx_HAL_Driver/Src/stm32n6xx_ll_usb.c ****     }
1898:STM32Cube_FW_N6/Drivers/STM32N6xx_HAL_Driver/Src/stm32n6xx_ll_usb.c **** 
1899:STM32Cube_FW_N6/Drivers/STM32N6xx_HAL_Driver/Src/stm32n6xx_ll_usb.c ****     if (((hc->ep_type == EP_TYPE_ISOC) || (hc->ep_type == EP_TYPE_INTR)) &&
 6242              		.loc 1 1899 13
 6243 02c6 BB68     		ldr	r3, [r7, #8]
 6244 02c8 9B7C     		ldrb	r3, [r3, #18]	@ zero_extendqisi2
 6245              		.loc 1 1899 8
 6246 02ca 012B     		cmp	r3, #1
 6247 02cc 03D0     		beq	.L276
 6248              		.loc 1 1899 46 discriminator 2
 6249 02ce BB68     		ldr	r3, [r7, #8]
 6250 02d0 9B7C     		ldrb	r3, [r3, #18]	@ zero_extendqisi2
 6251              		.loc 1 1899 40 discriminator 2
 6252 02d2 032B     		cmp	r3, #3
 6253 02d4 17D1     		bne	.L277
 6254              	.L276:
1900:STM32Cube_FW_N6/Drivers/STM32N6xx_HAL_Driver/Src/stm32n6xx_ll_usb.c ****         (hc->do_csplit == 1U) && (hc->ep_is_in == 1U))
 6255              		.loc 1 1900 12
 6256 02d6 BB68     		ldr	r3, [r7, #8]
 6257 02d8 DB79     		ldrb	r3, [r3, #7]	@ zero_extendqisi2
1899:STM32Cube_FW_N6/Drivers/STM32N6xx_HAL_Driver/Src/stm32n6xx_ll_usb.c ****         (hc->do_csplit == 1U) && (hc->ep_is_in == 1U))
 6258              		.loc 1 1899 74 discriminator 3
 6259 02da 012B     		cmp	r3, #1
 6260 02dc 13D1     		bne	.L277
 6261              		.loc 1 1900 37
 6262 02de BB68     		ldr	r3, [r7, #8]
 6263 02e0 DB78     		ldrb	r3, [r3, #3]	@ zero_extendqisi2
 6264              		.loc 1 1900 31
 6265 02e2 012B     		cmp	r3, #1
 6266 02e4 0FD1     		bne	.L277
1901:STM32Cube_FW_N6/Drivers/STM32N6xx_HAL_Driver/Src/stm32n6xx_ll_usb.c ****     {
1902:STM32Cube_FW_N6/Drivers/STM32N6xx_HAL_Driver/Src/stm32n6xx_ll_usb.c ****       USBx_HC((uint32_t)ch_num)->HCSPLT |= USB_OTG_HCSPLT_COMPLSPLT;
 6267              		.loc 1 1902 32
 6268 02e6 FB69     		ldr	r3, [r7, #28]
 6269 02e8 5A01     		lsls	r2, r3, #5
 6270 02ea 3B6A     		ldr	r3, [r7, #32]
 6271 02ec 1344     		add	r3, r3, r2
 6272 02ee 03F5A063 		add	r3, r3, #1280
 6273 02f2 5B68     		ldr	r3, [r3, #4]
 6274 02f4 FA69     		ldr	r2, [r7, #28]
 6275 02f6 5101     		lsls	r1, r2, #5
 6276 02f8 3A6A     		ldr	r2, [r7, #32]
 6277 02fa 0A44     		add	r2, r2, r1
 6278 02fc 02F5A062 		add	r2, r2, #1280
 6279              		.loc 1 1902 41
 6280 0300 43F48033 		orr	r3, r3, #65536
 6281 0304 5360     		str	r3, [r2, #4]
 6282              	.L277:
1903:STM32Cube_FW_N6/Drivers/STM32N6xx_HAL_Driver/Src/stm32n6xx_ll_usb.c ****     }
ARM GAS  /tmp/ccxt1UfV.s 			page 144


1904:STM32Cube_FW_N6/Drivers/STM32N6xx_HAL_Driver/Src/stm32n6xx_ll_usb.c **** 
1905:STM32Cube_FW_N6/Drivers/STM32N6xx_HAL_Driver/Src/stm32n6xx_ll_usb.c ****     /* Position management for iso out transaction on split mode */
1906:STM32Cube_FW_N6/Drivers/STM32N6xx_HAL_Driver/Src/stm32n6xx_ll_usb.c ****     if ((hc->ep_type == EP_TYPE_ISOC) && (hc->ep_is_in == 0U))
 6283              		.loc 1 1906 12
 6284 0306 BB68     		ldr	r3, [r7, #8]
 6285 0308 9B7C     		ldrb	r3, [r3, #18]	@ zero_extendqisi2
 6286              		.loc 1 1906 8
 6287 030a 012B     		cmp	r3, #1
 6288 030c 63D1     		bne	.L285
 6289              		.loc 1 1906 45 discriminator 1
 6290 030e BB68     		ldr	r3, [r7, #8]
 6291 0310 DB78     		ldrb	r3, [r3, #3]	@ zero_extendqisi2
 6292              		.loc 1 1906 39 discriminator 1
 6293 0312 002B     		cmp	r3, #0
 6294 0314 5FD1     		bne	.L285
1907:STM32Cube_FW_N6/Drivers/STM32N6xx_HAL_Driver/Src/stm32n6xx_ll_usb.c ****     {
1908:STM32Cube_FW_N6/Drivers/STM32N6xx_HAL_Driver/Src/stm32n6xx_ll_usb.c ****       /* Set data payload position */
1909:STM32Cube_FW_N6/Drivers/STM32N6xx_HAL_Driver/Src/stm32n6xx_ll_usb.c ****       switch (hc->iso_splt_xactPos)
 6295              		.loc 1 1909 17
 6296 0316 BB68     		ldr	r3, [r7, #8]
 6297 0318 DB68     		ldr	r3, [r3, #12]
 6298              		.loc 1 1909 7
 6299 031a 013B     		subs	r3, r3, #1
 6300 031c 032B     		cmp	r3, #3
 6301 031e 59D8     		bhi	.L297
 6302 0320 01A2     		adr	r2, .L281
 6303 0322 52F823F0 		ldr	pc, [r2, r3, lsl #2]
 6304 0326 00BF     		.p2align 2
 6305              	.L281:
 6306 0328 39030000 		.word	.L284+1
 6307 032c 5B030000 		.word	.L283+1
 6308 0330 7D030000 		.word	.L282+1
 6309 0334 9F030000 		.word	.L280+1
 6310              		.p2align 1
 6311              	.L284:
1910:STM32Cube_FW_N6/Drivers/STM32N6xx_HAL_Driver/Src/stm32n6xx_ll_usb.c ****       {
1911:STM32Cube_FW_N6/Drivers/STM32N6xx_HAL_Driver/Src/stm32n6xx_ll_usb.c ****         case HCSPLT_BEGIN:
1912:STM32Cube_FW_N6/Drivers/STM32N6xx_HAL_Driver/Src/stm32n6xx_ll_usb.c ****           /* First data payload for OUT Transaction */
1913:STM32Cube_FW_N6/Drivers/STM32N6xx_HAL_Driver/Src/stm32n6xx_ll_usb.c ****           USBx_HC((uint32_t)ch_num)->HCSPLT |= USB_OTG_HCSPLT_XACTPOS_1;
 6312              		.loc 1 1913 36
 6313 0338 FB69     		ldr	r3, [r7, #28]
 6314 033a 5A01     		lsls	r2, r3, #5
 6315 033c 3B6A     		ldr	r3, [r7, #32]
 6316 033e 1344     		add	r3, r3, r2
 6317 0340 03F5A063 		add	r3, r3, #1280
 6318 0344 5B68     		ldr	r3, [r3, #4]
 6319 0346 FA69     		ldr	r2, [r7, #28]
 6320 0348 5101     		lsls	r1, r2, #5
 6321 034a 3A6A     		ldr	r2, [r7, #32]
 6322 034c 0A44     		add	r2, r2, r1
 6323 034e 02F5A062 		add	r2, r2, #1280
 6324              		.loc 1 1913 45
 6325 0352 43F40043 		orr	r3, r3, #32768
 6326 0356 5360     		str	r3, [r2, #4]
1914:STM32Cube_FW_N6/Drivers/STM32N6xx_HAL_Driver/Src/stm32n6xx_ll_usb.c ****           break;
 6327              		.loc 1 1914 11
 6328 0358 3DE0     		b	.L285
ARM GAS  /tmp/ccxt1UfV.s 			page 145


 6329              	.L283:
1915:STM32Cube_FW_N6/Drivers/STM32N6xx_HAL_Driver/Src/stm32n6xx_ll_usb.c **** 
1916:STM32Cube_FW_N6/Drivers/STM32N6xx_HAL_Driver/Src/stm32n6xx_ll_usb.c ****         case HCSPLT_MIDDLE:
1917:STM32Cube_FW_N6/Drivers/STM32N6xx_HAL_Driver/Src/stm32n6xx_ll_usb.c ****           /* Middle data payload for OUT Transaction */
1918:STM32Cube_FW_N6/Drivers/STM32N6xx_HAL_Driver/Src/stm32n6xx_ll_usb.c ****           USBx_HC((uint32_t)ch_num)->HCSPLT |= USB_OTG_HCSPLT_XACTPOS_Pos;
 6330              		.loc 1 1918 36
 6331 035a FB69     		ldr	r3, [r7, #28]
 6332 035c 5A01     		lsls	r2, r3, #5
 6333 035e 3B6A     		ldr	r3, [r7, #32]
 6334 0360 1344     		add	r3, r3, r2
 6335 0362 03F5A063 		add	r3, r3, #1280
 6336 0366 5B68     		ldr	r3, [r3, #4]
 6337 0368 FA69     		ldr	r2, [r7, #28]
 6338 036a 5101     		lsls	r1, r2, #5
 6339 036c 3A6A     		ldr	r2, [r7, #32]
 6340 036e 0A44     		add	r2, r2, r1
 6341 0370 02F5A062 		add	r2, r2, #1280
 6342              		.loc 1 1918 45
 6343 0374 43F00E03 		orr	r3, r3, #14
 6344 0378 5360     		str	r3, [r2, #4]
1919:STM32Cube_FW_N6/Drivers/STM32N6xx_HAL_Driver/Src/stm32n6xx_ll_usb.c ****           break;
 6345              		.loc 1 1919 11
 6346 037a 2CE0     		b	.L285
 6347              	.L282:
1920:STM32Cube_FW_N6/Drivers/STM32N6xx_HAL_Driver/Src/stm32n6xx_ll_usb.c **** 
1921:STM32Cube_FW_N6/Drivers/STM32N6xx_HAL_Driver/Src/stm32n6xx_ll_usb.c ****         case HCSPLT_END:
1922:STM32Cube_FW_N6/Drivers/STM32N6xx_HAL_Driver/Src/stm32n6xx_ll_usb.c ****           /* End data payload for OUT Transaction */
1923:STM32Cube_FW_N6/Drivers/STM32N6xx_HAL_Driver/Src/stm32n6xx_ll_usb.c ****           USBx_HC((uint32_t)ch_num)->HCSPLT |= USB_OTG_HCSPLT_XACTPOS_0;
 6348              		.loc 1 1923 36
 6349 037c FB69     		ldr	r3, [r7, #28]
 6350 037e 5A01     		lsls	r2, r3, #5
 6351 0380 3B6A     		ldr	r3, [r7, #32]
 6352 0382 1344     		add	r3, r3, r2
 6353 0384 03F5A063 		add	r3, r3, #1280
 6354 0388 5B68     		ldr	r3, [r3, #4]
 6355 038a FA69     		ldr	r2, [r7, #28]
 6356 038c 5101     		lsls	r1, r2, #5
 6357 038e 3A6A     		ldr	r2, [r7, #32]
 6358 0390 0A44     		add	r2, r2, r1
 6359 0392 02F5A062 		add	r2, r2, #1280
 6360              		.loc 1 1923 45
 6361 0396 43F48043 		orr	r3, r3, #16384
 6362 039a 5360     		str	r3, [r2, #4]
1924:STM32Cube_FW_N6/Drivers/STM32N6xx_HAL_Driver/Src/stm32n6xx_ll_usb.c ****           break;
 6363              		.loc 1 1924 11
 6364 039c 1BE0     		b	.L285
 6365              	.L280:
1925:STM32Cube_FW_N6/Drivers/STM32N6xx_HAL_Driver/Src/stm32n6xx_ll_usb.c **** 
1926:STM32Cube_FW_N6/Drivers/STM32N6xx_HAL_Driver/Src/stm32n6xx_ll_usb.c ****         case HCSPLT_FULL:
1927:STM32Cube_FW_N6/Drivers/STM32N6xx_HAL_Driver/Src/stm32n6xx_ll_usb.c ****           /* Entire data payload for OUT Transaction */
1928:STM32Cube_FW_N6/Drivers/STM32N6xx_HAL_Driver/Src/stm32n6xx_ll_usb.c ****           USBx_HC((uint32_t)ch_num)->HCSPLT |= USB_OTG_HCSPLT_XACTPOS;
 6366              		.loc 1 1928 36
 6367 039e FB69     		ldr	r3, [r7, #28]
 6368 03a0 5A01     		lsls	r2, r3, #5
 6369 03a2 3B6A     		ldr	r3, [r7, #32]
 6370 03a4 1344     		add	r3, r3, r2
 6371 03a6 03F5A063 		add	r3, r3, #1280
ARM GAS  /tmp/ccxt1UfV.s 			page 146


 6372 03aa 5B68     		ldr	r3, [r3, #4]
 6373 03ac FA69     		ldr	r2, [r7, #28]
 6374 03ae 5101     		lsls	r1, r2, #5
 6375 03b0 3A6A     		ldr	r2, [r7, #32]
 6376 03b2 0A44     		add	r2, r2, r1
 6377 03b4 02F5A062 		add	r2, r2, #1280
 6378              		.loc 1 1928 45
 6379 03b8 43F44043 		orr	r3, r3, #49152
 6380 03bc 5360     		str	r3, [r2, #4]
1929:STM32Cube_FW_N6/Drivers/STM32N6xx_HAL_Driver/Src/stm32n6xx_ll_usb.c ****           break;
 6381              		.loc 1 1929 11
 6382 03be 0AE0     		b	.L285
 6383              	.L274:
1930:STM32Cube_FW_N6/Drivers/STM32N6xx_HAL_Driver/Src/stm32n6xx_ll_usb.c **** 
1931:STM32Cube_FW_N6/Drivers/STM32N6xx_HAL_Driver/Src/stm32n6xx_ll_usb.c ****         default:
1932:STM32Cube_FW_N6/Drivers/STM32N6xx_HAL_Driver/Src/stm32n6xx_ll_usb.c ****           break;
1933:STM32Cube_FW_N6/Drivers/STM32N6xx_HAL_Driver/Src/stm32n6xx_ll_usb.c ****       }
1934:STM32Cube_FW_N6/Drivers/STM32N6xx_HAL_Driver/Src/stm32n6xx_ll_usb.c ****     }
1935:STM32Cube_FW_N6/Drivers/STM32N6xx_HAL_Driver/Src/stm32n6xx_ll_usb.c ****   }
1936:STM32Cube_FW_N6/Drivers/STM32N6xx_HAL_Driver/Src/stm32n6xx_ll_usb.c ****   else
1937:STM32Cube_FW_N6/Drivers/STM32N6xx_HAL_Driver/Src/stm32n6xx_ll_usb.c ****   {
1938:STM32Cube_FW_N6/Drivers/STM32N6xx_HAL_Driver/Src/stm32n6xx_ll_usb.c ****     /* Clear Hub Start Split transaction */
1939:STM32Cube_FW_N6/Drivers/STM32N6xx_HAL_Driver/Src/stm32n6xx_ll_usb.c ****     USBx_HC((uint32_t)ch_num)->HCSPLT = 0U;
 6384              		.loc 1 1939 5
 6385 03c0 FB69     		ldr	r3, [r7, #28]
 6386 03c2 5A01     		lsls	r2, r3, #5
 6387 03c4 3B6A     		ldr	r3, [r7, #32]
 6388 03c6 1344     		add	r3, r3, r2
 6389 03c8 03F5A063 		add	r3, r3, #1280
 6390 03cc 1A46     		mov	r2, r3
 6391              		.loc 1 1939 39
 6392 03ce 0023     		movs	r3, #0
 6393 03d0 5360     		str	r3, [r2, #4]
 6394 03d2 00E0     		b	.L285
 6395              	.L297:
1932:STM32Cube_FW_N6/Drivers/STM32N6xx_HAL_Driver/Src/stm32n6xx_ll_usb.c ****       }
 6396              		.loc 1 1932 11
 6397 03d4 00BF     		nop
 6398              	.L285:
1940:STM32Cube_FW_N6/Drivers/STM32N6xx_HAL_Driver/Src/stm32n6xx_ll_usb.c ****   }
1941:STM32Cube_FW_N6/Drivers/STM32N6xx_HAL_Driver/Src/stm32n6xx_ll_usb.c **** 
1942:STM32Cube_FW_N6/Drivers/STM32N6xx_HAL_Driver/Src/stm32n6xx_ll_usb.c ****   /* Set host channel enable */
1943:STM32Cube_FW_N6/Drivers/STM32N6xx_HAL_Driver/Src/stm32n6xx_ll_usb.c ****   tmpreg = USBx_HC(ch_num)->HCCHAR;
 6399              		.loc 1 1943 12
 6400 03d6 FB69     		ldr	r3, [r7, #28]
 6401 03d8 5A01     		lsls	r2, r3, #5
 6402 03da 3B6A     		ldr	r3, [r7, #32]
 6403 03dc 1344     		add	r3, r3, r2
 6404 03de 03F5A063 		add	r3, r3, #1280
 6405              		.loc 1 1943 27
 6406 03e2 1B68     		ldr	r3, [r3]
 6407              		.loc 1 1943 10
 6408 03e4 3B61     		str	r3, [r7, #16]
1944:STM32Cube_FW_N6/Drivers/STM32N6xx_HAL_Driver/Src/stm32n6xx_ll_usb.c ****   tmpreg &= ~USB_OTG_HCCHAR_CHDIS;
 6409              		.loc 1 1944 10
 6410 03e6 3B69     		ldr	r3, [r7, #16]
 6411 03e8 23F08043 		bic	r3, r3, #1073741824
ARM GAS  /tmp/ccxt1UfV.s 			page 147


 6412 03ec 3B61     		str	r3, [r7, #16]
1945:STM32Cube_FW_N6/Drivers/STM32N6xx_HAL_Driver/Src/stm32n6xx_ll_usb.c **** 
1946:STM32Cube_FW_N6/Drivers/STM32N6xx_HAL_Driver/Src/stm32n6xx_ll_usb.c ****   /* make sure to set the correct ep direction */
1947:STM32Cube_FW_N6/Drivers/STM32N6xx_HAL_Driver/Src/stm32n6xx_ll_usb.c ****   if (hc->ep_is_in != 0U)
 6413              		.loc 1 1947 9
 6414 03ee BB68     		ldr	r3, [r7, #8]
 6415 03f0 DB78     		ldrb	r3, [r3, #3]	@ zero_extendqisi2
 6416              		.loc 1 1947 6
 6417 03f2 002B     		cmp	r3, #0
 6418 03f4 04D0     		beq	.L286
1948:STM32Cube_FW_N6/Drivers/STM32N6xx_HAL_Driver/Src/stm32n6xx_ll_usb.c ****   {
1949:STM32Cube_FW_N6/Drivers/STM32N6xx_HAL_Driver/Src/stm32n6xx_ll_usb.c ****     tmpreg |= USB_OTG_HCCHAR_EPDIR;
 6419              		.loc 1 1949 12
 6420 03f6 3B69     		ldr	r3, [r7, #16]
 6421 03f8 43F40043 		orr	r3, r3, #32768
 6422 03fc 3B61     		str	r3, [r7, #16]
 6423 03fe 03E0     		b	.L287
 6424              	.L286:
1950:STM32Cube_FW_N6/Drivers/STM32N6xx_HAL_Driver/Src/stm32n6xx_ll_usb.c ****   }
1951:STM32Cube_FW_N6/Drivers/STM32N6xx_HAL_Driver/Src/stm32n6xx_ll_usb.c ****   else
1952:STM32Cube_FW_N6/Drivers/STM32N6xx_HAL_Driver/Src/stm32n6xx_ll_usb.c ****   {
1953:STM32Cube_FW_N6/Drivers/STM32N6xx_HAL_Driver/Src/stm32n6xx_ll_usb.c ****     tmpreg &= ~USB_OTG_HCCHAR_EPDIR;
 6425              		.loc 1 1953 12
 6426 0400 3B69     		ldr	r3, [r7, #16]
 6427 0402 23F40043 		bic	r3, r3, #32768
 6428 0406 3B61     		str	r3, [r7, #16]
 6429              	.L287:
1954:STM32Cube_FW_N6/Drivers/STM32N6xx_HAL_Driver/Src/stm32n6xx_ll_usb.c ****   }
1955:STM32Cube_FW_N6/Drivers/STM32N6xx_HAL_Driver/Src/stm32n6xx_ll_usb.c ****   tmpreg |= USB_OTG_HCCHAR_CHENA;
 6430              		.loc 1 1955 10
 6431 0408 3B69     		ldr	r3, [r7, #16]
 6432 040a 43F00043 		orr	r3, r3, #-2147483648
 6433 040e 3B61     		str	r3, [r7, #16]
1956:STM32Cube_FW_N6/Drivers/STM32N6xx_HAL_Driver/Src/stm32n6xx_ll_usb.c ****   USBx_HC(ch_num)->HCCHAR = tmpreg;
 6434              		.loc 1 1956 3
 6435 0410 FB69     		ldr	r3, [r7, #28]
 6436 0412 5A01     		lsls	r2, r3, #5
 6437 0414 3B6A     		ldr	r3, [r7, #32]
 6438 0416 1344     		add	r3, r3, r2
 6439 0418 03F5A063 		add	r3, r3, #1280
 6440 041c 1A46     		mov	r2, r3
 6441              		.loc 1 1956 27
 6442 041e 3B69     		ldr	r3, [r7, #16]
 6443 0420 1360     		str	r3, [r2]
1957:STM32Cube_FW_N6/Drivers/STM32N6xx_HAL_Driver/Src/stm32n6xx_ll_usb.c **** 
1958:STM32Cube_FW_N6/Drivers/STM32N6xx_HAL_Driver/Src/stm32n6xx_ll_usb.c ****   if (dma != 0U) /* dma mode */
 6444              		.loc 1 1958 6
 6445 0422 FB79     		ldrb	r3, [r7, #7]	@ zero_extendqisi2
 6446 0424 002B     		cmp	r3, #0
 6447 0426 03D0     		beq	.L288
1959:STM32Cube_FW_N6/Drivers/STM32N6xx_HAL_Driver/Src/stm32n6xx_ll_usb.c ****   {
1960:STM32Cube_FW_N6/Drivers/STM32N6xx_HAL_Driver/Src/stm32n6xx_ll_usb.c ****     return HAL_OK;
 6448              		.loc 1 1960 12
 6449 0428 0023     		movs	r3, #0
 6450 042a 55E0     		b	.L257
 6451              	.L302:
 6452              		.align	2
ARM GAS  /tmp/ccxt1UfV.s 			page 148


 6453              	.L301:
 6454 042c 0000F81F 		.word	536346624
 6455              	.L288:
1961:STM32Cube_FW_N6/Drivers/STM32N6xx_HAL_Driver/Src/stm32n6xx_ll_usb.c ****   }
1962:STM32Cube_FW_N6/Drivers/STM32N6xx_HAL_Driver/Src/stm32n6xx_ll_usb.c **** 
1963:STM32Cube_FW_N6/Drivers/STM32N6xx_HAL_Driver/Src/stm32n6xx_ll_usb.c ****   if ((hc->ep_is_in == 0U) && (hc->xfer_len > 0U) && (hc->do_csplit == 0U))
 6456              		.loc 1 1963 10
 6457 0430 BB68     		ldr	r3, [r7, #8]
 6458 0432 DB78     		ldrb	r3, [r3, #3]	@ zero_extendqisi2
 6459              		.loc 1 1963 6
 6460 0434 002B     		cmp	r3, #0
 6461 0436 4ED1     		bne	.L289
 6462              		.loc 1 1963 34 discriminator 1
 6463 0438 BB68     		ldr	r3, [r7, #8]
 6464 043a 1B6A     		ldr	r3, [r3, #32]
 6465              		.loc 1 1963 28 discriminator 1
 6466 043c 002B     		cmp	r3, #0
 6467 043e 4AD0     		beq	.L289
 6468              		.loc 1 1963 57 discriminator 2
 6469 0440 BB68     		ldr	r3, [r7, #8]
 6470 0442 DB79     		ldrb	r3, [r3, #7]	@ zero_extendqisi2
 6471              		.loc 1 1963 51 discriminator 2
 6472 0444 002B     		cmp	r3, #0
 6473 0446 46D1     		bne	.L289
1964:STM32Cube_FW_N6/Drivers/STM32N6xx_HAL_Driver/Src/stm32n6xx_ll_usb.c ****   {
1965:STM32Cube_FW_N6/Drivers/STM32N6xx_HAL_Driver/Src/stm32n6xx_ll_usb.c ****     switch (hc->ep_type)
 6474              		.loc 1 1965 15
 6475 0448 BB68     		ldr	r3, [r7, #8]
 6476 044a 9B7C     		ldrb	r3, [r3, #18]	@ zero_extendqisi2
 6477              		.loc 1 1965 5
 6478 044c 032B     		cmp	r3, #3
 6479 044e 31D8     		bhi	.L298
 6480 0450 01A2     		adr	r2, .L292
 6481 0452 52F823F0 		ldr	pc, [r2, r3, lsl #2]
 6482 0456 00BF     		.p2align 2
 6483              	.L292:
 6484 0458 69040000 		.word	.L293+1
 6485 045c 8D040000 		.word	.L291+1
 6486 0460 69040000 		.word	.L293+1
 6487 0464 8D040000 		.word	.L291+1
 6488              		.p2align 1
 6489              	.L293:
1966:STM32Cube_FW_N6/Drivers/STM32N6xx_HAL_Driver/Src/stm32n6xx_ll_usb.c ****     {
1967:STM32Cube_FW_N6/Drivers/STM32N6xx_HAL_Driver/Src/stm32n6xx_ll_usb.c ****       /* Non periodic transfer */
1968:STM32Cube_FW_N6/Drivers/STM32N6xx_HAL_Driver/Src/stm32n6xx_ll_usb.c ****       case EP_TYPE_CTRL:
1969:STM32Cube_FW_N6/Drivers/STM32N6xx_HAL_Driver/Src/stm32n6xx_ll_usb.c ****       case EP_TYPE_BULK:
1970:STM32Cube_FW_N6/Drivers/STM32N6xx_HAL_Driver/Src/stm32n6xx_ll_usb.c **** 
1971:STM32Cube_FW_N6/Drivers/STM32N6xx_HAL_Driver/Src/stm32n6xx_ll_usb.c ****         len_words = (uint16_t)((hc->xfer_len + 3U) / 4U);
 6490              		.loc 1 1971 35
 6491 0468 BB68     		ldr	r3, [r7, #8]
 6492 046a 1B6A     		ldr	r3, [r3, #32]
 6493              		.loc 1 1971 46
 6494 046c 0333     		adds	r3, r3, #3
 6495              		.loc 1 1971 52
 6496 046e 9B08     		lsrs	r3, r3, #2
 6497              		.loc 1 1971 19
 6498 0470 FB82     		strh	r3, [r7, #22]	@ movhi
ARM GAS  /tmp/ccxt1UfV.s 			page 149


1972:STM32Cube_FW_N6/Drivers/STM32N6xx_HAL_Driver/Src/stm32n6xx_ll_usb.c **** 
1973:STM32Cube_FW_N6/Drivers/STM32N6xx_HAL_Driver/Src/stm32n6xx_ll_usb.c ****         /* check if there is enough space in FIFO space */
1974:STM32Cube_FW_N6/Drivers/STM32N6xx_HAL_Driver/Src/stm32n6xx_ll_usb.c ****         if (len_words > (USBx->HNPTXSTS & 0xFFFFU))
 6499              		.loc 1 1974 23
 6500 0472 FA8A     		ldrh	r2, [r7, #22]
 6501              		.loc 1 1974 30
 6502 0474 FB68     		ldr	r3, [r7, #12]
 6503 0476 DB6A     		ldr	r3, [r3, #44]
 6504              		.loc 1 1974 41
 6505 0478 9BB2     		uxth	r3, r3
 6506              		.loc 1 1974 12
 6507 047a 9A42     		cmp	r2, r3
 6508 047c 1CD9     		bls	.L299
1975:STM32Cube_FW_N6/Drivers/STM32N6xx_HAL_Driver/Src/stm32n6xx_ll_usb.c ****         {
1976:STM32Cube_FW_N6/Drivers/STM32N6xx_HAL_Driver/Src/stm32n6xx_ll_usb.c ****           /* need to process data in nptxfempty interrupt */
1977:STM32Cube_FW_N6/Drivers/STM32N6xx_HAL_Driver/Src/stm32n6xx_ll_usb.c ****           USBx->GINTMSK |= USB_OTG_GINTMSK_NPTXFEM;
 6509              		.loc 1 1977 15
 6510 047e FB68     		ldr	r3, [r7, #12]
 6511 0480 9B69     		ldr	r3, [r3, #24]
 6512              		.loc 1 1977 25
 6513 0482 43F02002 		orr	r2, r3, #32
 6514 0486 FB68     		ldr	r3, [r7, #12]
 6515 0488 9A61     		str	r2, [r3, #24]
1978:STM32Cube_FW_N6/Drivers/STM32N6xx_HAL_Driver/Src/stm32n6xx_ll_usb.c ****         }
1979:STM32Cube_FW_N6/Drivers/STM32N6xx_HAL_Driver/Src/stm32n6xx_ll_usb.c ****         break;
 6516              		.loc 1 1979 9
 6517 048a 15E0     		b	.L299
 6518              	.L291:
1980:STM32Cube_FW_N6/Drivers/STM32N6xx_HAL_Driver/Src/stm32n6xx_ll_usb.c **** 
1981:STM32Cube_FW_N6/Drivers/STM32N6xx_HAL_Driver/Src/stm32n6xx_ll_usb.c ****       /* Periodic transfer */
1982:STM32Cube_FW_N6/Drivers/STM32N6xx_HAL_Driver/Src/stm32n6xx_ll_usb.c ****       case EP_TYPE_INTR:
1983:STM32Cube_FW_N6/Drivers/STM32N6xx_HAL_Driver/Src/stm32n6xx_ll_usb.c ****       case EP_TYPE_ISOC:
1984:STM32Cube_FW_N6/Drivers/STM32N6xx_HAL_Driver/Src/stm32n6xx_ll_usb.c ****         len_words = (uint16_t)((hc->xfer_len + 3U) / 4U);
 6519              		.loc 1 1984 35
 6520 048c BB68     		ldr	r3, [r7, #8]
 6521 048e 1B6A     		ldr	r3, [r3, #32]
 6522              		.loc 1 1984 46
 6523 0490 0333     		adds	r3, r3, #3
 6524              		.loc 1 1984 52
 6525 0492 9B08     		lsrs	r3, r3, #2
 6526              		.loc 1 1984 19
 6527 0494 FB82     		strh	r3, [r7, #22]	@ movhi
1985:STM32Cube_FW_N6/Drivers/STM32N6xx_HAL_Driver/Src/stm32n6xx_ll_usb.c ****         /* check if there is enough space in FIFO space */
1986:STM32Cube_FW_N6/Drivers/STM32N6xx_HAL_Driver/Src/stm32n6xx_ll_usb.c ****         if (len_words > (USBx_HOST->HPTXSTS & 0xFFFFU)) /* split the transfer */
 6528              		.loc 1 1986 23
 6529 0496 FA8A     		ldrh	r2, [r7, #22]
 6530              		.loc 1 1986 26
 6531 0498 3B6A     		ldr	r3, [r7, #32]
 6532 049a 03F58063 		add	r3, r3, #1024
 6533              		.loc 1 1986 35
 6534 049e 1B69     		ldr	r3, [r3, #16]
 6535              		.loc 1 1986 45
 6536 04a0 9BB2     		uxth	r3, r3
 6537              		.loc 1 1986 12
 6538 04a2 9A42     		cmp	r2, r3
 6539 04a4 0AD9     		bls	.L300
1987:STM32Cube_FW_N6/Drivers/STM32N6xx_HAL_Driver/Src/stm32n6xx_ll_usb.c ****         {
ARM GAS  /tmp/ccxt1UfV.s 			page 150


1988:STM32Cube_FW_N6/Drivers/STM32N6xx_HAL_Driver/Src/stm32n6xx_ll_usb.c ****           /* need to process data in ptxfempty interrupt */
1989:STM32Cube_FW_N6/Drivers/STM32N6xx_HAL_Driver/Src/stm32n6xx_ll_usb.c ****           USBx->GINTMSK |= USB_OTG_GINTMSK_PTXFEM;
 6540              		.loc 1 1989 15
 6541 04a6 FB68     		ldr	r3, [r7, #12]
 6542 04a8 9B69     		ldr	r3, [r3, #24]
 6543              		.loc 1 1989 25
 6544 04aa 43F08062 		orr	r2, r3, #67108864
 6545 04ae FB68     		ldr	r3, [r7, #12]
 6546 04b0 9A61     		str	r2, [r3, #24]
1990:STM32Cube_FW_N6/Drivers/STM32N6xx_HAL_Driver/Src/stm32n6xx_ll_usb.c ****         }
1991:STM32Cube_FW_N6/Drivers/STM32N6xx_HAL_Driver/Src/stm32n6xx_ll_usb.c ****         break;
 6547              		.loc 1 1991 9
 6548 04b2 03E0     		b	.L300
 6549              	.L298:
1992:STM32Cube_FW_N6/Drivers/STM32N6xx_HAL_Driver/Src/stm32n6xx_ll_usb.c **** 
1993:STM32Cube_FW_N6/Drivers/STM32N6xx_HAL_Driver/Src/stm32n6xx_ll_usb.c ****       default:
1994:STM32Cube_FW_N6/Drivers/STM32N6xx_HAL_Driver/Src/stm32n6xx_ll_usb.c ****         break;
 6550              		.loc 1 1994 9
 6551 04b4 00BF     		nop
 6552 04b6 02E0     		b	.L295
 6553              	.L299:
1979:STM32Cube_FW_N6/Drivers/STM32N6xx_HAL_Driver/Src/stm32n6xx_ll_usb.c **** 
 6554              		.loc 1 1979 9
 6555 04b8 00BF     		nop
 6556 04ba 00E0     		b	.L295
 6557              	.L300:
1991:STM32Cube_FW_N6/Drivers/STM32N6xx_HAL_Driver/Src/stm32n6xx_ll_usb.c **** 
 6558              		.loc 1 1991 9
 6559 04bc 00BF     		nop
 6560              	.L295:
1995:STM32Cube_FW_N6/Drivers/STM32N6xx_HAL_Driver/Src/stm32n6xx_ll_usb.c ****     }
1996:STM32Cube_FW_N6/Drivers/STM32N6xx_HAL_Driver/Src/stm32n6xx_ll_usb.c **** 
1997:STM32Cube_FW_N6/Drivers/STM32N6xx_HAL_Driver/Src/stm32n6xx_ll_usb.c ****     /* Write packet into the Tx FIFO. */
1998:STM32Cube_FW_N6/Drivers/STM32N6xx_HAL_Driver/Src/stm32n6xx_ll_usb.c ****     (void)USB_WritePacket(USBx, hc->xfer_buff, hc->ch_num, (uint16_t)hc->xfer_len, 0);
 6561              		.loc 1 1998 11
 6562 04be BB68     		ldr	r3, [r7, #8]
 6563 04c0 9969     		ldr	r1, [r3, #24]
 6564 04c2 BB68     		ldr	r3, [r7, #8]
 6565 04c4 5A78     		ldrb	r2, [r3, #1]	@ zero_extendqisi2
 6566              		.loc 1 1998 72
 6567 04c6 BB68     		ldr	r3, [r7, #8]
 6568 04c8 1B6A     		ldr	r3, [r3, #32]
 6569              		.loc 1 1998 11
 6570 04ca 9BB2     		uxth	r3, r3
 6571 04cc 0020     		movs	r0, #0
 6572 04ce 0090     		str	r0, [sp]
 6573 04d0 F868     		ldr	r0, [r7, #12]
 6574 04d2 FFF7FEFF 		bl	USB_WritePacket
 6575              	.L289:
1999:STM32Cube_FW_N6/Drivers/STM32N6xx_HAL_Driver/Src/stm32n6xx_ll_usb.c ****   }
2000:STM32Cube_FW_N6/Drivers/STM32N6xx_HAL_Driver/Src/stm32n6xx_ll_usb.c **** 
2001:STM32Cube_FW_N6/Drivers/STM32N6xx_HAL_Driver/Src/stm32n6xx_ll_usb.c ****   return HAL_OK;
 6576              		.loc 1 2001 10
 6577 04d6 0023     		movs	r3, #0
 6578              	.L257:
2002:STM32Cube_FW_N6/Drivers/STM32N6xx_HAL_Driver/Src/stm32n6xx_ll_usb.c **** }
 6579              		.loc 1 2002 1
ARM GAS  /tmp/ccxt1UfV.s 			page 151


 6580 04d8 1846     		mov	r0, r3
 6581 04da 2837     		adds	r7, r7, #40
 6582              		.cfi_def_cfa_offset 8
 6583 04dc BD46     		mov	sp, r7
 6584              		.cfi_def_cfa_register 13
 6585              		@ sp needed
 6586 04de 80BD     		pop	{r7, pc}
 6587              		.cfi_endproc
 6588              	.LFE877:
 6590              		.section	.text.USB_HC_ReadInterrupt,"ax",%progbits
 6591              		.align	1
 6592              		.global	USB_HC_ReadInterrupt
 6593              		.syntax unified
 6594              		.thumb
 6595              		.thumb_func
 6597              	USB_HC_ReadInterrupt:
 6598              	.LFB878:
2003:STM32Cube_FW_N6/Drivers/STM32N6xx_HAL_Driver/Src/stm32n6xx_ll_usb.c **** 
2004:STM32Cube_FW_N6/Drivers/STM32N6xx_HAL_Driver/Src/stm32n6xx_ll_usb.c **** /**
2005:STM32Cube_FW_N6/Drivers/STM32N6xx_HAL_Driver/Src/stm32n6xx_ll_usb.c ****   * @brief Read all host channel interrupts status
2006:STM32Cube_FW_N6/Drivers/STM32N6xx_HAL_Driver/Src/stm32n6xx_ll_usb.c ****   * @param  USBx  Selected device
2007:STM32Cube_FW_N6/Drivers/STM32N6xx_HAL_Driver/Src/stm32n6xx_ll_usb.c ****   * @retval HAL state
2008:STM32Cube_FW_N6/Drivers/STM32N6xx_HAL_Driver/Src/stm32n6xx_ll_usb.c ****   */
2009:STM32Cube_FW_N6/Drivers/STM32N6xx_HAL_Driver/Src/stm32n6xx_ll_usb.c **** uint32_t USB_HC_ReadInterrupt(const USB_OTG_GlobalTypeDef *USBx)
2010:STM32Cube_FW_N6/Drivers/STM32N6xx_HAL_Driver/Src/stm32n6xx_ll_usb.c **** {
 6599              		.loc 1 2010 1
 6600              		.cfi_startproc
 6601              		@ args = 0, pretend = 0, frame = 16
 6602              		@ frame_needed = 1, uses_anonymous_args = 0
 6603              		@ link register save eliminated.
 6604 0000 80B4     		push	{r7}
 6605              		.cfi_def_cfa_offset 4
 6606              		.cfi_offset 7, -4
 6607 0002 85B0     		sub	sp, sp, #20
 6608              		.cfi_def_cfa_offset 24
 6609 0004 00AF     		add	r7, sp, #0
 6610              		.cfi_def_cfa_register 7
 6611 0006 7860     		str	r0, [r7, #4]
2011:STM32Cube_FW_N6/Drivers/STM32N6xx_HAL_Driver/Src/stm32n6xx_ll_usb.c ****   uint32_t USBx_BASE = (uint32_t)USBx;
 6612              		.loc 1 2011 12
 6613 0008 7B68     		ldr	r3, [r7, #4]
 6614 000a FB60     		str	r3, [r7, #12]
2012:STM32Cube_FW_N6/Drivers/STM32N6xx_HAL_Driver/Src/stm32n6xx_ll_usb.c **** 
2013:STM32Cube_FW_N6/Drivers/STM32N6xx_HAL_Driver/Src/stm32n6xx_ll_usb.c ****   return ((USBx_HOST->HAINT) & 0xFFFFU);
 6615              		.loc 1 2013 12
 6616 000c FB68     		ldr	r3, [r7, #12]
 6617 000e 03F58063 		add	r3, r3, #1024
 6618              		.loc 1 2013 21
 6619 0012 5B69     		ldr	r3, [r3, #20]
 6620              		.loc 1 2013 30
 6621 0014 9BB2     		uxth	r3, r3
2014:STM32Cube_FW_N6/Drivers/STM32N6xx_HAL_Driver/Src/stm32n6xx_ll_usb.c **** }
 6622              		.loc 1 2014 1
 6623 0016 1846     		mov	r0, r3
 6624 0018 1437     		adds	r7, r7, #20
 6625              		.cfi_def_cfa_offset 4
 6626 001a BD46     		mov	sp, r7
ARM GAS  /tmp/ccxt1UfV.s 			page 152


 6627              		.cfi_def_cfa_register 13
 6628              		@ sp needed
 6629 001c 5DF8047B 		ldr	r7, [sp], #4
 6630              		.cfi_restore 7
 6631              		.cfi_def_cfa_offset 0
 6632 0020 7047     		bx	lr
 6633              		.cfi_endproc
 6634              	.LFE878:
 6636              		.section	.text.USB_HC_Halt,"ax",%progbits
 6637              		.align	1
 6638              		.global	USB_HC_Halt
 6639              		.syntax unified
 6640              		.thumb
 6641              		.thumb_func
 6643              	USB_HC_Halt:
 6644              	.LFB879:
2015:STM32Cube_FW_N6/Drivers/STM32N6xx_HAL_Driver/Src/stm32n6xx_ll_usb.c **** 
2016:STM32Cube_FW_N6/Drivers/STM32N6xx_HAL_Driver/Src/stm32n6xx_ll_usb.c **** /**
2017:STM32Cube_FW_N6/Drivers/STM32N6xx_HAL_Driver/Src/stm32n6xx_ll_usb.c ****   * @brief  Halt a host channel
2018:STM32Cube_FW_N6/Drivers/STM32N6xx_HAL_Driver/Src/stm32n6xx_ll_usb.c ****   * @param  USBx  Selected device
2019:STM32Cube_FW_N6/Drivers/STM32N6xx_HAL_Driver/Src/stm32n6xx_ll_usb.c ****   * @param  hc_num  Host Channel number
2020:STM32Cube_FW_N6/Drivers/STM32N6xx_HAL_Driver/Src/stm32n6xx_ll_usb.c ****   *         This parameter can be a value from 1 to 15
2021:STM32Cube_FW_N6/Drivers/STM32N6xx_HAL_Driver/Src/stm32n6xx_ll_usb.c ****   * @retval HAL state
2022:STM32Cube_FW_N6/Drivers/STM32N6xx_HAL_Driver/Src/stm32n6xx_ll_usb.c ****   */
2023:STM32Cube_FW_N6/Drivers/STM32N6xx_HAL_Driver/Src/stm32n6xx_ll_usb.c **** HAL_StatusTypeDef USB_HC_Halt(const USB_OTG_GlobalTypeDef *USBx, uint8_t hc_num)
2024:STM32Cube_FW_N6/Drivers/STM32N6xx_HAL_Driver/Src/stm32n6xx_ll_usb.c **** {
 6645              		.loc 1 2024 1
 6646              		.cfi_startproc
 6647              		@ args = 0, pretend = 0, frame = 32
 6648              		@ frame_needed = 1, uses_anonymous_args = 0
 6649              		@ link register save eliminated.
 6650 0000 80B4     		push	{r7}
 6651              		.cfi_def_cfa_offset 4
 6652              		.cfi_offset 7, -4
 6653 0002 89B0     		sub	sp, sp, #36
 6654              		.cfi_def_cfa_offset 40
 6655 0004 00AF     		add	r7, sp, #0
 6656              		.cfi_def_cfa_register 7
 6657 0006 7860     		str	r0, [r7, #4]
 6658 0008 0B46     		mov	r3, r1
 6659 000a FB70     		strb	r3, [r7, #3]
2025:STM32Cube_FW_N6/Drivers/STM32N6xx_HAL_Driver/Src/stm32n6xx_ll_usb.c ****   uint32_t USBx_BASE = (uint32_t)USBx;
 6660              		.loc 1 2025 12
 6661 000c 7B68     		ldr	r3, [r7, #4]
 6662 000e FB61     		str	r3, [r7, #28]
2026:STM32Cube_FW_N6/Drivers/STM32N6xx_HAL_Driver/Src/stm32n6xx_ll_usb.c ****   uint32_t hcnum = (uint32_t)hc_num;
 6663              		.loc 1 2026 12
 6664 0010 FB78     		ldrb	r3, [r7, #3]	@ zero_extendqisi2
 6665 0012 BB61     		str	r3, [r7, #24]
2027:STM32Cube_FW_N6/Drivers/STM32N6xx_HAL_Driver/Src/stm32n6xx_ll_usb.c ****   __IO uint32_t count = 0U;
 6666              		.loc 1 2027 17
 6667 0014 0023     		movs	r3, #0
 6668 0016 BB60     		str	r3, [r7, #8]
2028:STM32Cube_FW_N6/Drivers/STM32N6xx_HAL_Driver/Src/stm32n6xx_ll_usb.c ****   uint32_t HcEpType = (USBx_HC(hcnum)->HCCHAR & USB_OTG_HCCHAR_EPTYP) >> 18;
 6669              		.loc 1 2028 24
 6670 0018 BB69     		ldr	r3, [r7, #24]
 6671 001a 5A01     		lsls	r2, r3, #5
ARM GAS  /tmp/ccxt1UfV.s 			page 153


 6672 001c FB69     		ldr	r3, [r7, #28]
 6673 001e 1344     		add	r3, r3, r2
 6674 0020 03F5A063 		add	r3, r3, #1280
 6675              		.loc 1 2028 38
 6676 0024 1B68     		ldr	r3, [r3]
 6677              		.loc 1 2028 71
 6678 0026 9B0C     		lsrs	r3, r3, #18
 6679              		.loc 1 2028 12
 6680 0028 03F00303 		and	r3, r3, #3
 6681 002c 7B61     		str	r3, [r7, #20]
2029:STM32Cube_FW_N6/Drivers/STM32N6xx_HAL_Driver/Src/stm32n6xx_ll_usb.c ****   uint32_t ChannelEna = (USBx_HC(hcnum)->HCCHAR & USB_OTG_HCCHAR_CHENA) >> 31;
 6682              		.loc 1 2029 26
 6683 002e BB69     		ldr	r3, [r7, #24]
 6684 0030 5A01     		lsls	r2, r3, #5
 6685 0032 FB69     		ldr	r3, [r7, #28]
 6686 0034 1344     		add	r3, r3, r2
 6687 0036 03F5A063 		add	r3, r3, #1280
 6688              		.loc 1 2029 40
 6689 003a 1B68     		ldr	r3, [r3]
 6690              		.loc 1 2029 73
 6691 003c DB0F     		lsrs	r3, r3, #31
 6692              		.loc 1 2029 12
 6693 003e 03F00103 		and	r3, r3, #1
 6694 0042 3B61     		str	r3, [r7, #16]
2030:STM32Cube_FW_N6/Drivers/STM32N6xx_HAL_Driver/Src/stm32n6xx_ll_usb.c ****   uint32_t SplitEna = (USBx_HC(hcnum)->HCSPLT & USB_OTG_HCSPLT_SPLITEN) >> 31;
 6695              		.loc 1 2030 24
 6696 0044 BB69     		ldr	r3, [r7, #24]
 6697 0046 5A01     		lsls	r2, r3, #5
 6698 0048 FB69     		ldr	r3, [r7, #28]
 6699 004a 1344     		add	r3, r3, r2
 6700 004c 03F5A063 		add	r3, r3, #1280
 6701              		.loc 1 2030 38
 6702 0050 5B68     		ldr	r3, [r3, #4]
 6703              		.loc 1 2030 73
 6704 0052 DB0F     		lsrs	r3, r3, #31
 6705              		.loc 1 2030 12
 6706 0054 03F00103 		and	r3, r3, #1
 6707 0058 FB60     		str	r3, [r7, #12]
2031:STM32Cube_FW_N6/Drivers/STM32N6xx_HAL_Driver/Src/stm32n6xx_ll_usb.c **** 
2032:STM32Cube_FW_N6/Drivers/STM32N6xx_HAL_Driver/Src/stm32n6xx_ll_usb.c ****   /* In buffer DMA, Channel disable must not be programmed for non-split periodic channels.
2033:STM32Cube_FW_N6/Drivers/STM32N6xx_HAL_Driver/Src/stm32n6xx_ll_usb.c ****      At the end of the next uframe/frame (in the worst case), the core generates a channel halted
2034:STM32Cube_FW_N6/Drivers/STM32N6xx_HAL_Driver/Src/stm32n6xx_ll_usb.c ****      and disables the channel automatically. */
2035:STM32Cube_FW_N6/Drivers/STM32N6xx_HAL_Driver/Src/stm32n6xx_ll_usb.c **** 
2036:STM32Cube_FW_N6/Drivers/STM32N6xx_HAL_Driver/Src/stm32n6xx_ll_usb.c ****   if ((((USBx->GAHBCFG & USB_OTG_GAHBCFG_DMAEN) == USB_OTG_GAHBCFG_DMAEN) && (SplitEna == 0U)) &&
 6708              		.loc 1 2036 14
 6709 005a 7B68     		ldr	r3, [r7, #4]
 6710 005c 9B68     		ldr	r3, [r3, #8]
 6711              		.loc 1 2036 24
 6712 005e 03F02003 		and	r3, r3, #32
 6713              		.loc 1 2036 6
 6714 0062 202B     		cmp	r3, #32
 6715 0064 0DD1     		bne	.L306
 6716              		.loc 1 2036 75 discriminator 1
 6717 0066 FB68     		ldr	r3, [r7, #12]
 6718 0068 002B     		cmp	r3, #0
 6719 006a 0AD1     		bne	.L306
 6720              		.loc 1 2036 96 discriminator 2
ARM GAS  /tmp/ccxt1UfV.s 			page 154


 6721 006c 3B69     		ldr	r3, [r7, #16]
 6722 006e 002B     		cmp	r3, #0
 6723 0070 05D0     		beq	.L307
2037:STM32Cube_FW_N6/Drivers/STM32N6xx_HAL_Driver/Src/stm32n6xx_ll_usb.c ****       ((ChannelEna == 0U) || (((HcEpType == HCCHAR_ISOC) || (HcEpType == HCCHAR_INTR)))))
 6724              		.loc 1 2037 27
 6725 0072 7B69     		ldr	r3, [r7, #20]
 6726 0074 012B     		cmp	r3, #1
 6727 0076 02D0     		beq	.L307
 6728              		.loc 1 2037 58 discriminator 1
 6729 0078 7B69     		ldr	r3, [r7, #20]
 6730 007a 032B     		cmp	r3, #3
 6731 007c 01D1     		bne	.L306
 6732              	.L307:
2038:STM32Cube_FW_N6/Drivers/STM32N6xx_HAL_Driver/Src/stm32n6xx_ll_usb.c ****   {
2039:STM32Cube_FW_N6/Drivers/STM32N6xx_HAL_Driver/Src/stm32n6xx_ll_usb.c ****     return HAL_OK;
 6733              		.loc 1 2039 12
 6734 007e 0023     		movs	r3, #0
 6735 0080 D8E0     		b	.L308
 6736              	.L306:
2040:STM32Cube_FW_N6/Drivers/STM32N6xx_HAL_Driver/Src/stm32n6xx_ll_usb.c ****   }
2041:STM32Cube_FW_N6/Drivers/STM32N6xx_HAL_Driver/Src/stm32n6xx_ll_usb.c **** 
2042:STM32Cube_FW_N6/Drivers/STM32N6xx_HAL_Driver/Src/stm32n6xx_ll_usb.c ****   /* Check for space in the request queue to issue the halt. */
2043:STM32Cube_FW_N6/Drivers/STM32N6xx_HAL_Driver/Src/stm32n6xx_ll_usb.c ****   if ((HcEpType == HCCHAR_CTRL) || (HcEpType == HCCHAR_BULK))
 6737              		.loc 1 2043 6
 6738 0082 7B69     		ldr	r3, [r7, #20]
 6739 0084 002B     		cmp	r3, #0
 6740 0086 02D0     		beq	.L309
 6741              		.loc 1 2043 33 discriminator 1
 6742 0088 7B69     		ldr	r3, [r7, #20]
 6743 008a 022B     		cmp	r3, #2
 6744 008c 73D1     		bne	.L310
 6745              	.L309:
2044:STM32Cube_FW_N6/Drivers/STM32N6xx_HAL_Driver/Src/stm32n6xx_ll_usb.c ****   {
2045:STM32Cube_FW_N6/Drivers/STM32N6xx_HAL_Driver/Src/stm32n6xx_ll_usb.c ****     USBx_HC(hcnum)->HCCHAR |= USB_OTG_HCCHAR_CHDIS;
 6746              		.loc 1 2045 19
 6747 008e BB69     		ldr	r3, [r7, #24]
 6748 0090 5A01     		lsls	r2, r3, #5
 6749 0092 FB69     		ldr	r3, [r7, #28]
 6750 0094 1344     		add	r3, r3, r2
 6751 0096 03F5A063 		add	r3, r3, #1280
 6752 009a 1B68     		ldr	r3, [r3]
 6753 009c BA69     		ldr	r2, [r7, #24]
 6754 009e 5101     		lsls	r1, r2, #5
 6755 00a0 FA69     		ldr	r2, [r7, #28]
 6756 00a2 0A44     		add	r2, r2, r1
 6757 00a4 02F5A062 		add	r2, r2, #1280
 6758              		.loc 1 2045 28
 6759 00a8 43F08043 		orr	r3, r3, #1073741824
 6760 00ac 1360     		str	r3, [r2]
2046:STM32Cube_FW_N6/Drivers/STM32N6xx_HAL_Driver/Src/stm32n6xx_ll_usb.c **** 
2047:STM32Cube_FW_N6/Drivers/STM32N6xx_HAL_Driver/Src/stm32n6xx_ll_usb.c ****     if ((USBx->GAHBCFG & USB_OTG_GAHBCFG_DMAEN) == 0U)
 6761              		.loc 1 2047 14
 6762 00ae 7B68     		ldr	r3, [r7, #4]
 6763 00b0 9B68     		ldr	r3, [r3, #8]
 6764              		.loc 1 2047 24
 6765 00b2 03F02003 		and	r3, r3, #32
 6766              		.loc 1 2047 8
ARM GAS  /tmp/ccxt1UfV.s 			page 155


 6767 00b6 002B     		cmp	r3, #0
 6768 00b8 4AD1     		bne	.L311
2048:STM32Cube_FW_N6/Drivers/STM32N6xx_HAL_Driver/Src/stm32n6xx_ll_usb.c ****     {
2049:STM32Cube_FW_N6/Drivers/STM32N6xx_HAL_Driver/Src/stm32n6xx_ll_usb.c ****       if ((USBx->HNPTXSTS & (0xFFU << 16)) == 0U)
 6769              		.loc 1 2049 16
 6770 00ba 7B68     		ldr	r3, [r7, #4]
 6771 00bc DB6A     		ldr	r3, [r3, #44]
 6772              		.loc 1 2049 27
 6773 00be 03F47F03 		and	r3, r3, #16711680
 6774              		.loc 1 2049 10
 6775 00c2 002B     		cmp	r3, #0
 6776 00c4 33D1     		bne	.L312
2050:STM32Cube_FW_N6/Drivers/STM32N6xx_HAL_Driver/Src/stm32n6xx_ll_usb.c ****       {
2051:STM32Cube_FW_N6/Drivers/STM32N6xx_HAL_Driver/Src/stm32n6xx_ll_usb.c ****         USBx_HC(hcnum)->HCCHAR &= ~USB_OTG_HCCHAR_CHENA;
 6777              		.loc 1 2051 23
 6778 00c6 BB69     		ldr	r3, [r7, #24]
 6779 00c8 5A01     		lsls	r2, r3, #5
 6780 00ca FB69     		ldr	r3, [r7, #28]
 6781 00cc 1344     		add	r3, r3, r2
 6782 00ce 03F5A063 		add	r3, r3, #1280
 6783 00d2 1B68     		ldr	r3, [r3]
 6784 00d4 BA69     		ldr	r2, [r7, #24]
 6785 00d6 5101     		lsls	r1, r2, #5
 6786 00d8 FA69     		ldr	r2, [r7, #28]
 6787 00da 0A44     		add	r2, r2, r1
 6788 00dc 02F5A062 		add	r2, r2, #1280
 6789              		.loc 1 2051 32
 6790 00e0 23F00043 		bic	r3, r3, #-2147483648
 6791 00e4 1360     		str	r3, [r2]
2052:STM32Cube_FW_N6/Drivers/STM32N6xx_HAL_Driver/Src/stm32n6xx_ll_usb.c ****         USBx_HC(hcnum)->HCCHAR |= USB_OTG_HCCHAR_CHENA;
 6792              		.loc 1 2052 23
 6793 00e6 BB69     		ldr	r3, [r7, #24]
 6794 00e8 5A01     		lsls	r2, r3, #5
 6795 00ea FB69     		ldr	r3, [r7, #28]
 6796 00ec 1344     		add	r3, r3, r2
 6797 00ee 03F5A063 		add	r3, r3, #1280
 6798 00f2 1B68     		ldr	r3, [r3]
 6799 00f4 BA69     		ldr	r2, [r7, #24]
 6800 00f6 5101     		lsls	r1, r2, #5
 6801 00f8 FA69     		ldr	r2, [r7, #28]
 6802 00fa 0A44     		add	r2, r2, r1
 6803 00fc 02F5A062 		add	r2, r2, #1280
 6804              		.loc 1 2052 32
 6805 0100 43F00043 		orr	r3, r3, #-2147483648
 6806 0104 1360     		str	r3, [r2]
 6807              	.L315:
2053:STM32Cube_FW_N6/Drivers/STM32N6xx_HAL_Driver/Src/stm32n6xx_ll_usb.c ****         do
2054:STM32Cube_FW_N6/Drivers/STM32N6xx_HAL_Driver/Src/stm32n6xx_ll_usb.c ****         {
2055:STM32Cube_FW_N6/Drivers/STM32N6xx_HAL_Driver/Src/stm32n6xx_ll_usb.c ****           count++;
 6808              		.loc 1 2055 16
 6809 0106 BB68     		ldr	r3, [r7, #8]
 6810 0108 0133     		adds	r3, r3, #1
 6811 010a BB60     		str	r3, [r7, #8]
2056:STM32Cube_FW_N6/Drivers/STM32N6xx_HAL_Driver/Src/stm32n6xx_ll_usb.c **** 
2057:STM32Cube_FW_N6/Drivers/STM32N6xx_HAL_Driver/Src/stm32n6xx_ll_usb.c ****           if (count > 1000U)
 6812              		.loc 1 2057 21
 6813 010c BB68     		ldr	r3, [r7, #8]
ARM GAS  /tmp/ccxt1UfV.s 			page 156


 6814              		.loc 1 2057 14
 6815 010e B3F57A7F 		cmp	r3, #1000
 6816 0112 2ED8     		bhi	.L323
2058:STM32Cube_FW_N6/Drivers/STM32N6xx_HAL_Driver/Src/stm32n6xx_ll_usb.c ****           {
2059:STM32Cube_FW_N6/Drivers/STM32N6xx_HAL_Driver/Src/stm32n6xx_ll_usb.c ****             break;
2060:STM32Cube_FW_N6/Drivers/STM32N6xx_HAL_Driver/Src/stm32n6xx_ll_usb.c ****           }
2061:STM32Cube_FW_N6/Drivers/STM32N6xx_HAL_Driver/Src/stm32n6xx_ll_usb.c ****         } while ((USBx_HC(hcnum)->HCCHAR & USB_OTG_HCCHAR_CHENA) == USB_OTG_HCCHAR_CHENA);
 6817              		.loc 1 2061 19
 6818 0114 BB69     		ldr	r3, [r7, #24]
 6819 0116 5A01     		lsls	r2, r3, #5
 6820 0118 FB69     		ldr	r3, [r7, #28]
 6821 011a 1344     		add	r3, r3, r2
 6822 011c 03F5A063 		add	r3, r3, #1280
 6823              		.loc 1 2061 33
 6824 0120 1B68     		ldr	r3, [r3]
 6825              		.loc 1 2061 42
 6826 0122 03F00043 		and	r3, r3, #-2147483648
 6827              		.loc 1 2061 66
 6828 0126 B3F1004F 		cmp	r3, #-2147483648
 6829 012a ECD0     		beq	.L315
2047:STM32Cube_FW_N6/Drivers/STM32N6xx_HAL_Driver/Src/stm32n6xx_ll_usb.c ****     {
 6830              		.loc 1 2047 8
 6831 012c 81E0     		b	.L317
 6832              	.L312:
2062:STM32Cube_FW_N6/Drivers/STM32N6xx_HAL_Driver/Src/stm32n6xx_ll_usb.c ****       }
2063:STM32Cube_FW_N6/Drivers/STM32N6xx_HAL_Driver/Src/stm32n6xx_ll_usb.c ****       else
2064:STM32Cube_FW_N6/Drivers/STM32N6xx_HAL_Driver/Src/stm32n6xx_ll_usb.c ****       {
2065:STM32Cube_FW_N6/Drivers/STM32N6xx_HAL_Driver/Src/stm32n6xx_ll_usb.c ****         USBx_HC(hcnum)->HCCHAR |= USB_OTG_HCCHAR_CHENA;
 6833              		.loc 1 2065 23
 6834 012e BB69     		ldr	r3, [r7, #24]
 6835 0130 5A01     		lsls	r2, r3, #5
 6836 0132 FB69     		ldr	r3, [r7, #28]
 6837 0134 1344     		add	r3, r3, r2
 6838 0136 03F5A063 		add	r3, r3, #1280
 6839 013a 1B68     		ldr	r3, [r3]
 6840 013c BA69     		ldr	r2, [r7, #24]
 6841 013e 5101     		lsls	r1, r2, #5
 6842 0140 FA69     		ldr	r2, [r7, #28]
 6843 0142 0A44     		add	r2, r2, r1
 6844 0144 02F5A062 		add	r2, r2, #1280
 6845              		.loc 1 2065 32
 6846 0148 43F00043 		orr	r3, r3, #-2147483648
 6847 014c 1360     		str	r3, [r2]
2047:STM32Cube_FW_N6/Drivers/STM32N6xx_HAL_Driver/Src/stm32n6xx_ll_usb.c ****     {
 6848              		.loc 1 2047 8
 6849 014e 70E0     		b	.L317
 6850              	.L311:
2066:STM32Cube_FW_N6/Drivers/STM32N6xx_HAL_Driver/Src/stm32n6xx_ll_usb.c ****       }
2067:STM32Cube_FW_N6/Drivers/STM32N6xx_HAL_Driver/Src/stm32n6xx_ll_usb.c ****     }
2068:STM32Cube_FW_N6/Drivers/STM32N6xx_HAL_Driver/Src/stm32n6xx_ll_usb.c ****     else
2069:STM32Cube_FW_N6/Drivers/STM32N6xx_HAL_Driver/Src/stm32n6xx_ll_usb.c ****     {
2070:STM32Cube_FW_N6/Drivers/STM32N6xx_HAL_Driver/Src/stm32n6xx_ll_usb.c ****       USBx_HC(hcnum)->HCCHAR |= USB_OTG_HCCHAR_CHENA;
 6851              		.loc 1 2070 21
 6852 0150 BB69     		ldr	r3, [r7, #24]
 6853 0152 5A01     		lsls	r2, r3, #5
 6854 0154 FB69     		ldr	r3, [r7, #28]
 6855 0156 1344     		add	r3, r3, r2
ARM GAS  /tmp/ccxt1UfV.s 			page 157


 6856 0158 03F5A063 		add	r3, r3, #1280
 6857 015c 1B68     		ldr	r3, [r3]
 6858 015e BA69     		ldr	r2, [r7, #24]
 6859 0160 5101     		lsls	r1, r2, #5
 6860 0162 FA69     		ldr	r2, [r7, #28]
 6861 0164 0A44     		add	r2, r2, r1
 6862 0166 02F5A062 		add	r2, r2, #1280
 6863              		.loc 1 2070 30
 6864 016a 43F00043 		orr	r3, r3, #-2147483648
 6865 016e 1360     		str	r3, [r2]
2047:STM32Cube_FW_N6/Drivers/STM32N6xx_HAL_Driver/Src/stm32n6xx_ll_usb.c ****     {
 6866              		.loc 1 2047 8
 6867 0170 5FE0     		b	.L317
 6868              	.L323:
2059:STM32Cube_FW_N6/Drivers/STM32N6xx_HAL_Driver/Src/stm32n6xx_ll_usb.c ****           }
 6869              		.loc 1 2059 13
 6870 0172 00BF     		nop
2047:STM32Cube_FW_N6/Drivers/STM32N6xx_HAL_Driver/Src/stm32n6xx_ll_usb.c ****     {
 6871              		.loc 1 2047 8
 6872 0174 5DE0     		b	.L317
 6873              	.L310:
2071:STM32Cube_FW_N6/Drivers/STM32N6xx_HAL_Driver/Src/stm32n6xx_ll_usb.c ****     }
2072:STM32Cube_FW_N6/Drivers/STM32N6xx_HAL_Driver/Src/stm32n6xx_ll_usb.c ****   }
2073:STM32Cube_FW_N6/Drivers/STM32N6xx_HAL_Driver/Src/stm32n6xx_ll_usb.c ****   else
2074:STM32Cube_FW_N6/Drivers/STM32N6xx_HAL_Driver/Src/stm32n6xx_ll_usb.c ****   {
2075:STM32Cube_FW_N6/Drivers/STM32N6xx_HAL_Driver/Src/stm32n6xx_ll_usb.c ****     USBx_HC(hcnum)->HCCHAR |= USB_OTG_HCCHAR_CHDIS;
 6874              		.loc 1 2075 19
 6875 0176 BB69     		ldr	r3, [r7, #24]
 6876 0178 5A01     		lsls	r2, r3, #5
 6877 017a FB69     		ldr	r3, [r7, #28]
 6878 017c 1344     		add	r3, r3, r2
 6879 017e 03F5A063 		add	r3, r3, #1280
 6880 0182 1B68     		ldr	r3, [r3]
 6881 0184 BA69     		ldr	r2, [r7, #24]
 6882 0186 5101     		lsls	r1, r2, #5
 6883 0188 FA69     		ldr	r2, [r7, #28]
 6884 018a 0A44     		add	r2, r2, r1
 6885 018c 02F5A062 		add	r2, r2, #1280
 6886              		.loc 1 2075 28
 6887 0190 43F08043 		orr	r3, r3, #1073741824
 6888 0194 1360     		str	r3, [r2]
2076:STM32Cube_FW_N6/Drivers/STM32N6xx_HAL_Driver/Src/stm32n6xx_ll_usb.c **** 
2077:STM32Cube_FW_N6/Drivers/STM32N6xx_HAL_Driver/Src/stm32n6xx_ll_usb.c ****     if ((USBx_HOST->HPTXSTS & (0xFFU << 16)) == 0U)
 6889              		.loc 1 2077 10
 6890 0196 FB69     		ldr	r3, [r7, #28]
 6891 0198 03F58063 		add	r3, r3, #1024
 6892              		.loc 1 2077 19
 6893 019c 1B69     		ldr	r3, [r3, #16]
 6894              		.loc 1 2077 29
 6895 019e 03F47F03 		and	r3, r3, #16711680
 6896              		.loc 1 2077 8
 6897 01a2 002B     		cmp	r3, #0
 6898 01a4 33D1     		bne	.L318
2078:STM32Cube_FW_N6/Drivers/STM32N6xx_HAL_Driver/Src/stm32n6xx_ll_usb.c ****     {
2079:STM32Cube_FW_N6/Drivers/STM32N6xx_HAL_Driver/Src/stm32n6xx_ll_usb.c ****       USBx_HC(hcnum)->HCCHAR &= ~USB_OTG_HCCHAR_CHENA;
 6899              		.loc 1 2079 21
 6900 01a6 BB69     		ldr	r3, [r7, #24]
ARM GAS  /tmp/ccxt1UfV.s 			page 158


 6901 01a8 5A01     		lsls	r2, r3, #5
 6902 01aa FB69     		ldr	r3, [r7, #28]
 6903 01ac 1344     		add	r3, r3, r2
 6904 01ae 03F5A063 		add	r3, r3, #1280
 6905 01b2 1B68     		ldr	r3, [r3]
 6906 01b4 BA69     		ldr	r2, [r7, #24]
 6907 01b6 5101     		lsls	r1, r2, #5
 6908 01b8 FA69     		ldr	r2, [r7, #28]
 6909 01ba 0A44     		add	r2, r2, r1
 6910 01bc 02F5A062 		add	r2, r2, #1280
 6911              		.loc 1 2079 30
 6912 01c0 23F00043 		bic	r3, r3, #-2147483648
 6913 01c4 1360     		str	r3, [r2]
2080:STM32Cube_FW_N6/Drivers/STM32N6xx_HAL_Driver/Src/stm32n6xx_ll_usb.c ****       USBx_HC(hcnum)->HCCHAR |= USB_OTG_HCCHAR_CHENA;
 6914              		.loc 1 2080 21
 6915 01c6 BB69     		ldr	r3, [r7, #24]
 6916 01c8 5A01     		lsls	r2, r3, #5
 6917 01ca FB69     		ldr	r3, [r7, #28]
 6918 01cc 1344     		add	r3, r3, r2
 6919 01ce 03F5A063 		add	r3, r3, #1280
 6920 01d2 1B68     		ldr	r3, [r3]
 6921 01d4 BA69     		ldr	r2, [r7, #24]
 6922 01d6 5101     		lsls	r1, r2, #5
 6923 01d8 FA69     		ldr	r2, [r7, #28]
 6924 01da 0A44     		add	r2, r2, r1
 6925 01dc 02F5A062 		add	r2, r2, #1280
 6926              		.loc 1 2080 30
 6927 01e0 43F00043 		orr	r3, r3, #-2147483648
 6928 01e4 1360     		str	r3, [r2]
 6929              	.L321:
2081:STM32Cube_FW_N6/Drivers/STM32N6xx_HAL_Driver/Src/stm32n6xx_ll_usb.c ****       do
2082:STM32Cube_FW_N6/Drivers/STM32N6xx_HAL_Driver/Src/stm32n6xx_ll_usb.c ****       {
2083:STM32Cube_FW_N6/Drivers/STM32N6xx_HAL_Driver/Src/stm32n6xx_ll_usb.c ****         count++;
 6930              		.loc 1 2083 14
 6931 01e6 BB68     		ldr	r3, [r7, #8]
 6932 01e8 0133     		adds	r3, r3, #1
 6933 01ea BB60     		str	r3, [r7, #8]
2084:STM32Cube_FW_N6/Drivers/STM32N6xx_HAL_Driver/Src/stm32n6xx_ll_usb.c **** 
2085:STM32Cube_FW_N6/Drivers/STM32N6xx_HAL_Driver/Src/stm32n6xx_ll_usb.c ****         if (count > 1000U)
 6934              		.loc 1 2085 19
 6935 01ec BB68     		ldr	r3, [r7, #8]
 6936              		.loc 1 2085 12
 6937 01ee B3F57A7F 		cmp	r3, #1000
 6938 01f2 1DD8     		bhi	.L324
2086:STM32Cube_FW_N6/Drivers/STM32N6xx_HAL_Driver/Src/stm32n6xx_ll_usb.c ****         {
2087:STM32Cube_FW_N6/Drivers/STM32N6xx_HAL_Driver/Src/stm32n6xx_ll_usb.c ****           break;
2088:STM32Cube_FW_N6/Drivers/STM32N6xx_HAL_Driver/Src/stm32n6xx_ll_usb.c ****         }
2089:STM32Cube_FW_N6/Drivers/STM32N6xx_HAL_Driver/Src/stm32n6xx_ll_usb.c ****       } while ((USBx_HC(hcnum)->HCCHAR & USB_OTG_HCCHAR_CHENA) == USB_OTG_HCCHAR_CHENA);
 6939              		.loc 1 2089 17
 6940 01f4 BB69     		ldr	r3, [r7, #24]
 6941 01f6 5A01     		lsls	r2, r3, #5
 6942 01f8 FB69     		ldr	r3, [r7, #28]
 6943 01fa 1344     		add	r3, r3, r2
 6944 01fc 03F5A063 		add	r3, r3, #1280
 6945              		.loc 1 2089 31
 6946 0200 1B68     		ldr	r3, [r3]
 6947              		.loc 1 2089 40
ARM GAS  /tmp/ccxt1UfV.s 			page 159


 6948 0202 03F00043 		and	r3, r3, #-2147483648
 6949              		.loc 1 2089 64
 6950 0206 B3F1004F 		cmp	r3, #-2147483648
 6951 020a ECD0     		beq	.L321
 6952 020c 11E0     		b	.L317
 6953              	.L318:
2090:STM32Cube_FW_N6/Drivers/STM32N6xx_HAL_Driver/Src/stm32n6xx_ll_usb.c ****     }
2091:STM32Cube_FW_N6/Drivers/STM32N6xx_HAL_Driver/Src/stm32n6xx_ll_usb.c ****     else
2092:STM32Cube_FW_N6/Drivers/STM32N6xx_HAL_Driver/Src/stm32n6xx_ll_usb.c ****     {
2093:STM32Cube_FW_N6/Drivers/STM32N6xx_HAL_Driver/Src/stm32n6xx_ll_usb.c ****       USBx_HC(hcnum)->HCCHAR |= USB_OTG_HCCHAR_CHENA;
 6954              		.loc 1 2093 21
 6955 020e BB69     		ldr	r3, [r7, #24]
 6956 0210 5A01     		lsls	r2, r3, #5
 6957 0212 FB69     		ldr	r3, [r7, #28]
 6958 0214 1344     		add	r3, r3, r2
 6959 0216 03F5A063 		add	r3, r3, #1280
 6960 021a 1B68     		ldr	r3, [r3]
 6961 021c BA69     		ldr	r2, [r7, #24]
 6962 021e 5101     		lsls	r1, r2, #5
 6963 0220 FA69     		ldr	r2, [r7, #28]
 6964 0222 0A44     		add	r2, r2, r1
 6965 0224 02F5A062 		add	r2, r2, #1280
 6966              		.loc 1 2093 30
 6967 0228 43F00043 		orr	r3, r3, #-2147483648
 6968 022c 1360     		str	r3, [r2]
 6969 022e 00E0     		b	.L317
 6970              	.L324:
2087:STM32Cube_FW_N6/Drivers/STM32N6xx_HAL_Driver/Src/stm32n6xx_ll_usb.c ****         }
 6971              		.loc 1 2087 11
 6972 0230 00BF     		nop
 6973              	.L317:
2094:STM32Cube_FW_N6/Drivers/STM32N6xx_HAL_Driver/Src/stm32n6xx_ll_usb.c ****     }
2095:STM32Cube_FW_N6/Drivers/STM32N6xx_HAL_Driver/Src/stm32n6xx_ll_usb.c ****   }
2096:STM32Cube_FW_N6/Drivers/STM32N6xx_HAL_Driver/Src/stm32n6xx_ll_usb.c **** 
2097:STM32Cube_FW_N6/Drivers/STM32N6xx_HAL_Driver/Src/stm32n6xx_ll_usb.c ****   return HAL_OK;
 6974              		.loc 1 2097 10
 6975 0232 0023     		movs	r3, #0
 6976              	.L308:
2098:STM32Cube_FW_N6/Drivers/STM32N6xx_HAL_Driver/Src/stm32n6xx_ll_usb.c **** }
 6977              		.loc 1 2098 1
 6978 0234 1846     		mov	r0, r3
 6979 0236 2437     		adds	r7, r7, #36
 6980              		.cfi_def_cfa_offset 4
 6981 0238 BD46     		mov	sp, r7
 6982              		.cfi_def_cfa_register 13
 6983              		@ sp needed
 6984 023a 5DF8047B 		ldr	r7, [sp], #4
 6985              		.cfi_restore 7
 6986              		.cfi_def_cfa_offset 0
 6987 023e 7047     		bx	lr
 6988              		.cfi_endproc
 6989              	.LFE879:
 6991              		.section	.text.USB_DoPing,"ax",%progbits
 6992              		.align	1
 6993              		.global	USB_DoPing
 6994              		.syntax unified
 6995              		.thumb
ARM GAS  /tmp/ccxt1UfV.s 			page 160


 6996              		.thumb_func
 6998              	USB_DoPing:
 6999              	.LFB880:
2099:STM32Cube_FW_N6/Drivers/STM32N6xx_HAL_Driver/Src/stm32n6xx_ll_usb.c **** 
2100:STM32Cube_FW_N6/Drivers/STM32N6xx_HAL_Driver/Src/stm32n6xx_ll_usb.c **** /**
2101:STM32Cube_FW_N6/Drivers/STM32N6xx_HAL_Driver/Src/stm32n6xx_ll_usb.c ****   * @brief  Initiate Do Ping protocol
2102:STM32Cube_FW_N6/Drivers/STM32N6xx_HAL_Driver/Src/stm32n6xx_ll_usb.c ****   * @param  USBx  Selected device
2103:STM32Cube_FW_N6/Drivers/STM32N6xx_HAL_Driver/Src/stm32n6xx_ll_usb.c ****   * @param  hc_num  Host Channel number
2104:STM32Cube_FW_N6/Drivers/STM32N6xx_HAL_Driver/Src/stm32n6xx_ll_usb.c ****   *         This parameter can be a value from 1 to 15
2105:STM32Cube_FW_N6/Drivers/STM32N6xx_HAL_Driver/Src/stm32n6xx_ll_usb.c ****   * @retval HAL state
2106:STM32Cube_FW_N6/Drivers/STM32N6xx_HAL_Driver/Src/stm32n6xx_ll_usb.c ****   */
2107:STM32Cube_FW_N6/Drivers/STM32N6xx_HAL_Driver/Src/stm32n6xx_ll_usb.c **** HAL_StatusTypeDef USB_DoPing(const USB_OTG_GlobalTypeDef *USBx, uint8_t ch_num)
2108:STM32Cube_FW_N6/Drivers/STM32N6xx_HAL_Driver/Src/stm32n6xx_ll_usb.c **** {
 7000              		.loc 1 2108 1
 7001              		.cfi_startproc
 7002              		@ args = 0, pretend = 0, frame = 24
 7003              		@ frame_needed = 1, uses_anonymous_args = 0
 7004              		@ link register save eliminated.
 7005 0000 80B4     		push	{r7}
 7006              		.cfi_def_cfa_offset 4
 7007              		.cfi_offset 7, -4
 7008 0002 87B0     		sub	sp, sp, #28
 7009              		.cfi_def_cfa_offset 32
 7010 0004 00AF     		add	r7, sp, #0
 7011              		.cfi_def_cfa_register 7
 7012 0006 7860     		str	r0, [r7, #4]
 7013 0008 0B46     		mov	r3, r1
 7014 000a FB70     		strb	r3, [r7, #3]
2109:STM32Cube_FW_N6/Drivers/STM32N6xx_HAL_Driver/Src/stm32n6xx_ll_usb.c ****   uint32_t USBx_BASE = (uint32_t)USBx;
 7015              		.loc 1 2109 12
 7016 000c 7B68     		ldr	r3, [r7, #4]
 7017 000e 7B61     		str	r3, [r7, #20]
2110:STM32Cube_FW_N6/Drivers/STM32N6xx_HAL_Driver/Src/stm32n6xx_ll_usb.c ****   uint32_t chnum = (uint32_t)ch_num;
 7018              		.loc 1 2110 12
 7019 0010 FB78     		ldrb	r3, [r7, #3]	@ zero_extendqisi2
 7020 0012 3B61     		str	r3, [r7, #16]
2111:STM32Cube_FW_N6/Drivers/STM32N6xx_HAL_Driver/Src/stm32n6xx_ll_usb.c ****   uint32_t num_packets = 1U;
 7021              		.loc 1 2111 12
 7022 0014 0123     		movs	r3, #1
 7023 0016 FB60     		str	r3, [r7, #12]
2112:STM32Cube_FW_N6/Drivers/STM32N6xx_HAL_Driver/Src/stm32n6xx_ll_usb.c ****   uint32_t tmpreg;
2113:STM32Cube_FW_N6/Drivers/STM32N6xx_HAL_Driver/Src/stm32n6xx_ll_usb.c **** 
2114:STM32Cube_FW_N6/Drivers/STM32N6xx_HAL_Driver/Src/stm32n6xx_ll_usb.c ****   USBx_HC(chnum)->HCTSIZ = ((num_packets << 19) & USB_OTG_HCTSIZ_PKTCNT) |
 7024              		.loc 1 2114 42
 7025 0018 FB68     		ldr	r3, [r7, #12]
 7026 001a DA04     		lsls	r2, r3, #19
 7027              		.loc 1 2114 49
 7028 001c 154B     		ldr	r3, .L327
 7029 001e 1340     		ands	r3, r3, r2
 7030              		.loc 1 2114 3
 7031 0020 3A69     		ldr	r2, [r7, #16]
 7032 0022 5101     		lsls	r1, r2, #5
 7033 0024 7A69     		ldr	r2, [r7, #20]
 7034 0026 0A44     		add	r2, r2, r1
 7035 0028 02F5A062 		add	r2, r2, #1280
 7036              		.loc 1 2114 74
 7037 002c 43F00043 		orr	r3, r3, #-2147483648
ARM GAS  /tmp/ccxt1UfV.s 			page 161


 7038              		.loc 1 2114 26
 7039 0030 1361     		str	r3, [r2, #16]
2115:STM32Cube_FW_N6/Drivers/STM32N6xx_HAL_Driver/Src/stm32n6xx_ll_usb.c ****                            USB_OTG_HCTSIZ_DOPING;
2116:STM32Cube_FW_N6/Drivers/STM32N6xx_HAL_Driver/Src/stm32n6xx_ll_usb.c **** 
2117:STM32Cube_FW_N6/Drivers/STM32N6xx_HAL_Driver/Src/stm32n6xx_ll_usb.c ****   /* Set host channel enable */
2118:STM32Cube_FW_N6/Drivers/STM32N6xx_HAL_Driver/Src/stm32n6xx_ll_usb.c ****   tmpreg = USBx_HC(chnum)->HCCHAR;
 7040              		.loc 1 2118 12
 7041 0032 3B69     		ldr	r3, [r7, #16]
 7042 0034 5A01     		lsls	r2, r3, #5
 7043 0036 7B69     		ldr	r3, [r7, #20]
 7044 0038 1344     		add	r3, r3, r2
 7045 003a 03F5A063 		add	r3, r3, #1280
 7046              		.loc 1 2118 10
 7047 003e 1B68     		ldr	r3, [r3]
 7048 0040 BB60     		str	r3, [r7, #8]
2119:STM32Cube_FW_N6/Drivers/STM32N6xx_HAL_Driver/Src/stm32n6xx_ll_usb.c ****   tmpreg &= ~USB_OTG_HCCHAR_CHDIS;
 7049              		.loc 1 2119 10
 7050 0042 BB68     		ldr	r3, [r7, #8]
 7051 0044 23F08043 		bic	r3, r3, #1073741824
 7052 0048 BB60     		str	r3, [r7, #8]
2120:STM32Cube_FW_N6/Drivers/STM32N6xx_HAL_Driver/Src/stm32n6xx_ll_usb.c ****   tmpreg |= USB_OTG_HCCHAR_CHENA;
 7053              		.loc 1 2120 10
 7054 004a BB68     		ldr	r3, [r7, #8]
 7055 004c 43F00043 		orr	r3, r3, #-2147483648
 7056 0050 BB60     		str	r3, [r7, #8]
2121:STM32Cube_FW_N6/Drivers/STM32N6xx_HAL_Driver/Src/stm32n6xx_ll_usb.c ****   USBx_HC(chnum)->HCCHAR = tmpreg;
 7057              		.loc 1 2121 3
 7058 0052 3B69     		ldr	r3, [r7, #16]
 7059 0054 5A01     		lsls	r2, r3, #5
 7060 0056 7B69     		ldr	r3, [r7, #20]
 7061 0058 1344     		add	r3, r3, r2
 7062 005a 03F5A063 		add	r3, r3, #1280
 7063 005e 1A46     		mov	r2, r3
 7064              		.loc 1 2121 26
 7065 0060 BB68     		ldr	r3, [r7, #8]
 7066 0062 1360     		str	r3, [r2]
2122:STM32Cube_FW_N6/Drivers/STM32N6xx_HAL_Driver/Src/stm32n6xx_ll_usb.c **** 
2123:STM32Cube_FW_N6/Drivers/STM32N6xx_HAL_Driver/Src/stm32n6xx_ll_usb.c ****   return HAL_OK;
 7067              		.loc 1 2123 10
 7068 0064 0023     		movs	r3, #0
2124:STM32Cube_FW_N6/Drivers/STM32N6xx_HAL_Driver/Src/stm32n6xx_ll_usb.c **** }
 7069              		.loc 1 2124 1
 7070 0066 1846     		mov	r0, r3
 7071 0068 1C37     		adds	r7, r7, #28
 7072              		.cfi_def_cfa_offset 4
 7073 006a BD46     		mov	sp, r7
 7074              		.cfi_def_cfa_register 13
 7075              		@ sp needed
 7076 006c 5DF8047B 		ldr	r7, [sp], #4
 7077              		.cfi_restore 7
 7078              		.cfi_def_cfa_offset 0
 7079 0070 7047     		bx	lr
 7080              	.L328:
 7081 0072 00BF     		.align	2
 7082              	.L327:
 7083 0074 0000F81F 		.word	536346624
 7084              		.cfi_endproc
ARM GAS  /tmp/ccxt1UfV.s 			page 162


 7085              	.LFE880:
 7087              		.section	.text.USB_StopHost,"ax",%progbits
 7088              		.align	1
 7089              		.global	USB_StopHost
 7090              		.syntax unified
 7091              		.thumb
 7092              		.thumb_func
 7094              	USB_StopHost:
 7095              	.LFB881:
2125:STM32Cube_FW_N6/Drivers/STM32N6xx_HAL_Driver/Src/stm32n6xx_ll_usb.c **** 
2126:STM32Cube_FW_N6/Drivers/STM32N6xx_HAL_Driver/Src/stm32n6xx_ll_usb.c **** /**
2127:STM32Cube_FW_N6/Drivers/STM32N6xx_HAL_Driver/Src/stm32n6xx_ll_usb.c ****   * @brief  Stop Host Core
2128:STM32Cube_FW_N6/Drivers/STM32N6xx_HAL_Driver/Src/stm32n6xx_ll_usb.c ****   * @param  USBx  Selected device
2129:STM32Cube_FW_N6/Drivers/STM32N6xx_HAL_Driver/Src/stm32n6xx_ll_usb.c ****   * @retval HAL state
2130:STM32Cube_FW_N6/Drivers/STM32N6xx_HAL_Driver/Src/stm32n6xx_ll_usb.c ****   */
2131:STM32Cube_FW_N6/Drivers/STM32N6xx_HAL_Driver/Src/stm32n6xx_ll_usb.c **** HAL_StatusTypeDef USB_StopHost(USB_OTG_GlobalTypeDef *USBx)
2132:STM32Cube_FW_N6/Drivers/STM32N6xx_HAL_Driver/Src/stm32n6xx_ll_usb.c **** {
 7096              		.loc 1 2132 1
 7097              		.cfi_startproc
 7098              		@ args = 0, pretend = 0, frame = 32
 7099              		@ frame_needed = 1, uses_anonymous_args = 0
 7100 0000 80B5     		push	{r7, lr}
 7101              		.cfi_def_cfa_offset 8
 7102              		.cfi_offset 7, -8
 7103              		.cfi_offset 14, -4
 7104 0002 88B0     		sub	sp, sp, #32
 7105              		.cfi_def_cfa_offset 40
 7106 0004 00AF     		add	r7, sp, #0
 7107              		.cfi_def_cfa_register 7
 7108 0006 7860     		str	r0, [r7, #4]
2133:STM32Cube_FW_N6/Drivers/STM32N6xx_HAL_Driver/Src/stm32n6xx_ll_usb.c ****   HAL_StatusTypeDef ret = HAL_OK;
 7109              		.loc 1 2133 21
 7110 0008 0023     		movs	r3, #0
 7111 000a FB77     		strb	r3, [r7, #31]
2134:STM32Cube_FW_N6/Drivers/STM32N6xx_HAL_Driver/Src/stm32n6xx_ll_usb.c ****   uint32_t USBx_BASE = (uint32_t)USBx;
 7112              		.loc 1 2134 12
 7113 000c 7B68     		ldr	r3, [r7, #4]
 7114 000e 7B61     		str	r3, [r7, #20]
2135:STM32Cube_FW_N6/Drivers/STM32N6xx_HAL_Driver/Src/stm32n6xx_ll_usb.c ****   __IO uint32_t count = 0U;
 7115              		.loc 1 2135 17
 7116 0010 0023     		movs	r3, #0
 7117 0012 FB60     		str	r3, [r7, #12]
2136:STM32Cube_FW_N6/Drivers/STM32N6xx_HAL_Driver/Src/stm32n6xx_ll_usb.c ****   uint32_t value;
2137:STM32Cube_FW_N6/Drivers/STM32N6xx_HAL_Driver/Src/stm32n6xx_ll_usb.c ****   uint32_t i;
2138:STM32Cube_FW_N6/Drivers/STM32N6xx_HAL_Driver/Src/stm32n6xx_ll_usb.c **** 
2139:STM32Cube_FW_N6/Drivers/STM32N6xx_HAL_Driver/Src/stm32n6xx_ll_usb.c ****   (void)USB_DisableGlobalInt(USBx);
 7118              		.loc 1 2139 9
 7119 0014 7868     		ldr	r0, [r7, #4]
 7120 0016 FFF7FEFF 		bl	USB_DisableGlobalInt
2140:STM32Cube_FW_N6/Drivers/STM32N6xx_HAL_Driver/Src/stm32n6xx_ll_usb.c **** 
2141:STM32Cube_FW_N6/Drivers/STM32N6xx_HAL_Driver/Src/stm32n6xx_ll_usb.c ****   /* Flush USB FIFO */
2142:STM32Cube_FW_N6/Drivers/STM32N6xx_HAL_Driver/Src/stm32n6xx_ll_usb.c ****   if (USB_FlushTxFifo(USBx, 0x10U) != HAL_OK) /* all Tx FIFOs */
 7121              		.loc 1 2142 7
 7122 001a 1021     		movs	r1, #16
 7123 001c 7868     		ldr	r0, [r7, #4]
 7124 001e FFF7FEFF 		bl	USB_FlushTxFifo
 7125 0022 0346     		mov	r3, r0
ARM GAS  /tmp/ccxt1UfV.s 			page 163


 7126              		.loc 1 2142 6 discriminator 1
 7127 0024 002B     		cmp	r3, #0
 7128 0026 01D0     		beq	.L330
2143:STM32Cube_FW_N6/Drivers/STM32N6xx_HAL_Driver/Src/stm32n6xx_ll_usb.c ****   {
2144:STM32Cube_FW_N6/Drivers/STM32N6xx_HAL_Driver/Src/stm32n6xx_ll_usb.c ****     ret = HAL_ERROR;
 7129              		.loc 1 2144 9
 7130 0028 0123     		movs	r3, #1
 7131 002a FB77     		strb	r3, [r7, #31]
 7132              	.L330:
2145:STM32Cube_FW_N6/Drivers/STM32N6xx_HAL_Driver/Src/stm32n6xx_ll_usb.c ****   }
2146:STM32Cube_FW_N6/Drivers/STM32N6xx_HAL_Driver/Src/stm32n6xx_ll_usb.c **** 
2147:STM32Cube_FW_N6/Drivers/STM32N6xx_HAL_Driver/Src/stm32n6xx_ll_usb.c ****   if (USB_FlushRxFifo(USBx) != HAL_OK)
 7133              		.loc 1 2147 7
 7134 002c 7868     		ldr	r0, [r7, #4]
 7135 002e FFF7FEFF 		bl	USB_FlushRxFifo
 7136 0032 0346     		mov	r3, r0
 7137              		.loc 1 2147 6 discriminator 1
 7138 0034 002B     		cmp	r3, #0
 7139 0036 01D0     		beq	.L331
2148:STM32Cube_FW_N6/Drivers/STM32N6xx_HAL_Driver/Src/stm32n6xx_ll_usb.c ****   {
2149:STM32Cube_FW_N6/Drivers/STM32N6xx_HAL_Driver/Src/stm32n6xx_ll_usb.c ****     ret = HAL_ERROR;
 7140              		.loc 1 2149 9
 7141 0038 0123     		movs	r3, #1
 7142 003a FB77     		strb	r3, [r7, #31]
 7143              	.L331:
2150:STM32Cube_FW_N6/Drivers/STM32N6xx_HAL_Driver/Src/stm32n6xx_ll_usb.c ****   }
2151:STM32Cube_FW_N6/Drivers/STM32N6xx_HAL_Driver/Src/stm32n6xx_ll_usb.c **** 
2152:STM32Cube_FW_N6/Drivers/STM32N6xx_HAL_Driver/Src/stm32n6xx_ll_usb.c ****   /* Flush out any leftover queued requests. */
2153:STM32Cube_FW_N6/Drivers/STM32N6xx_HAL_Driver/Src/stm32n6xx_ll_usb.c ****   for (i = 0U; i <= 15U; i++)
 7144              		.loc 1 2153 10
 7145 003c 0023     		movs	r3, #0
 7146 003e BB61     		str	r3, [r7, #24]
 7147              		.loc 1 2153 3
 7148 0040 1FE0     		b	.L332
 7149              	.L333:
2154:STM32Cube_FW_N6/Drivers/STM32N6xx_HAL_Driver/Src/stm32n6xx_ll_usb.c ****   {
2155:STM32Cube_FW_N6/Drivers/STM32N6xx_HAL_Driver/Src/stm32n6xx_ll_usb.c ****     value = USBx_HC(i)->HCCHAR;
 7150              		.loc 1 2155 13
 7151 0042 BB69     		ldr	r3, [r7, #24]
 7152 0044 5A01     		lsls	r2, r3, #5
 7153 0046 7B69     		ldr	r3, [r7, #20]
 7154 0048 1344     		add	r3, r3, r2
 7155 004a 03F5A063 		add	r3, r3, #1280
 7156              		.loc 1 2155 11
 7157 004e 1B68     		ldr	r3, [r3]
 7158 0050 3B61     		str	r3, [r7, #16]
2156:STM32Cube_FW_N6/Drivers/STM32N6xx_HAL_Driver/Src/stm32n6xx_ll_usb.c ****     value |=  USB_OTG_HCCHAR_CHDIS;
 7159              		.loc 1 2156 11
 7160 0052 3B69     		ldr	r3, [r7, #16]
 7161 0054 43F08043 		orr	r3, r3, #1073741824
 7162 0058 3B61     		str	r3, [r7, #16]
2157:STM32Cube_FW_N6/Drivers/STM32N6xx_HAL_Driver/Src/stm32n6xx_ll_usb.c ****     value &= ~USB_OTG_HCCHAR_CHENA;
 7163              		.loc 1 2157 11
 7164 005a 3B69     		ldr	r3, [r7, #16]
 7165 005c 23F00043 		bic	r3, r3, #-2147483648
 7166 0060 3B61     		str	r3, [r7, #16]
2158:STM32Cube_FW_N6/Drivers/STM32N6xx_HAL_Driver/Src/stm32n6xx_ll_usb.c ****     value &= ~USB_OTG_HCCHAR_EPDIR;
ARM GAS  /tmp/ccxt1UfV.s 			page 164


 7167              		.loc 1 2158 11
 7168 0062 3B69     		ldr	r3, [r7, #16]
 7169 0064 23F40043 		bic	r3, r3, #32768
 7170 0068 3B61     		str	r3, [r7, #16]
2159:STM32Cube_FW_N6/Drivers/STM32N6xx_HAL_Driver/Src/stm32n6xx_ll_usb.c ****     USBx_HC(i)->HCCHAR = value;
 7171              		.loc 1 2159 5
 7172 006a BB69     		ldr	r3, [r7, #24]
 7173 006c 5A01     		lsls	r2, r3, #5
 7174 006e 7B69     		ldr	r3, [r7, #20]
 7175 0070 1344     		add	r3, r3, r2
 7176 0072 03F5A063 		add	r3, r3, #1280
 7177 0076 1A46     		mov	r2, r3
 7178              		.loc 1 2159 24
 7179 0078 3B69     		ldr	r3, [r7, #16]
 7180 007a 1360     		str	r3, [r2]
2153:STM32Cube_FW_N6/Drivers/STM32N6xx_HAL_Driver/Src/stm32n6xx_ll_usb.c ****   {
 7181              		.loc 1 2153 27 discriminator 3
 7182 007c BB69     		ldr	r3, [r7, #24]
 7183 007e 0133     		adds	r3, r3, #1
 7184 0080 BB61     		str	r3, [r7, #24]
 7185              	.L332:
2153:STM32Cube_FW_N6/Drivers/STM32N6xx_HAL_Driver/Src/stm32n6xx_ll_usb.c ****   {
 7186              		.loc 1 2153 18 discriminator 1
 7187 0082 BB69     		ldr	r3, [r7, #24]
 7188 0084 0F2B     		cmp	r3, #15
 7189 0086 DCD9     		bls	.L333
2160:STM32Cube_FW_N6/Drivers/STM32N6xx_HAL_Driver/Src/stm32n6xx_ll_usb.c ****   }
2161:STM32Cube_FW_N6/Drivers/STM32N6xx_HAL_Driver/Src/stm32n6xx_ll_usb.c **** 
2162:STM32Cube_FW_N6/Drivers/STM32N6xx_HAL_Driver/Src/stm32n6xx_ll_usb.c ****   /* Halt all channels to put them into a known state. */
2163:STM32Cube_FW_N6/Drivers/STM32N6xx_HAL_Driver/Src/stm32n6xx_ll_usb.c ****   for (i = 0U; i <= 15U; i++)
 7190              		.loc 1 2163 10
 7191 0088 0023     		movs	r3, #0
 7192 008a BB61     		str	r3, [r7, #24]
 7193              		.loc 1 2163 3
 7194 008c 34E0     		b	.L334
 7195              	.L338:
2164:STM32Cube_FW_N6/Drivers/STM32N6xx_HAL_Driver/Src/stm32n6xx_ll_usb.c ****   {
2165:STM32Cube_FW_N6/Drivers/STM32N6xx_HAL_Driver/Src/stm32n6xx_ll_usb.c ****     value = USBx_HC(i)->HCCHAR;
 7196              		.loc 1 2165 13
 7197 008e BB69     		ldr	r3, [r7, #24]
 7198 0090 5A01     		lsls	r2, r3, #5
 7199 0092 7B69     		ldr	r3, [r7, #20]
 7200 0094 1344     		add	r3, r3, r2
 7201 0096 03F5A063 		add	r3, r3, #1280
 7202              		.loc 1 2165 11
 7203 009a 1B68     		ldr	r3, [r3]
 7204 009c 3B61     		str	r3, [r7, #16]
2166:STM32Cube_FW_N6/Drivers/STM32N6xx_HAL_Driver/Src/stm32n6xx_ll_usb.c ****     value |= USB_OTG_HCCHAR_CHDIS;
 7205              		.loc 1 2166 11
 7206 009e 3B69     		ldr	r3, [r7, #16]
 7207 00a0 43F08043 		orr	r3, r3, #1073741824
 7208 00a4 3B61     		str	r3, [r7, #16]
2167:STM32Cube_FW_N6/Drivers/STM32N6xx_HAL_Driver/Src/stm32n6xx_ll_usb.c ****     value |= USB_OTG_HCCHAR_CHENA;
 7209              		.loc 1 2167 11
 7210 00a6 3B69     		ldr	r3, [r7, #16]
 7211 00a8 43F00043 		orr	r3, r3, #-2147483648
 7212 00ac 3B61     		str	r3, [r7, #16]
ARM GAS  /tmp/ccxt1UfV.s 			page 165


2168:STM32Cube_FW_N6/Drivers/STM32N6xx_HAL_Driver/Src/stm32n6xx_ll_usb.c ****     value &= ~USB_OTG_HCCHAR_EPDIR;
 7213              		.loc 1 2168 11
 7214 00ae 3B69     		ldr	r3, [r7, #16]
 7215 00b0 23F40043 		bic	r3, r3, #32768
 7216 00b4 3B61     		str	r3, [r7, #16]
2169:STM32Cube_FW_N6/Drivers/STM32N6xx_HAL_Driver/Src/stm32n6xx_ll_usb.c ****     USBx_HC(i)->HCCHAR = value;
 7217              		.loc 1 2169 5
 7218 00b6 BB69     		ldr	r3, [r7, #24]
 7219 00b8 5A01     		lsls	r2, r3, #5
 7220 00ba 7B69     		ldr	r3, [r7, #20]
 7221 00bc 1344     		add	r3, r3, r2
 7222 00be 03F5A063 		add	r3, r3, #1280
 7223 00c2 1A46     		mov	r2, r3
 7224              		.loc 1 2169 24
 7225 00c4 3B69     		ldr	r3, [r7, #16]
 7226 00c6 1360     		str	r3, [r2]
 7227              	.L337:
2170:STM32Cube_FW_N6/Drivers/STM32N6xx_HAL_Driver/Src/stm32n6xx_ll_usb.c **** 
2171:STM32Cube_FW_N6/Drivers/STM32N6xx_HAL_Driver/Src/stm32n6xx_ll_usb.c ****     do
2172:STM32Cube_FW_N6/Drivers/STM32N6xx_HAL_Driver/Src/stm32n6xx_ll_usb.c ****     {
2173:STM32Cube_FW_N6/Drivers/STM32N6xx_HAL_Driver/Src/stm32n6xx_ll_usb.c ****       count++;
 7228              		.loc 1 2173 12
 7229 00c8 FB68     		ldr	r3, [r7, #12]
 7230 00ca 0133     		adds	r3, r3, #1
 7231 00cc FB60     		str	r3, [r7, #12]
2174:STM32Cube_FW_N6/Drivers/STM32N6xx_HAL_Driver/Src/stm32n6xx_ll_usb.c **** 
2175:STM32Cube_FW_N6/Drivers/STM32N6xx_HAL_Driver/Src/stm32n6xx_ll_usb.c ****       if (count > 1000U)
 7232              		.loc 1 2175 17
 7233 00ce FB68     		ldr	r3, [r7, #12]
 7234              		.loc 1 2175 10
 7235 00d0 B3F57A7F 		cmp	r3, #1000
 7236 00d4 0CD8     		bhi	.L340
2176:STM32Cube_FW_N6/Drivers/STM32N6xx_HAL_Driver/Src/stm32n6xx_ll_usb.c ****       {
2177:STM32Cube_FW_N6/Drivers/STM32N6xx_HAL_Driver/Src/stm32n6xx_ll_usb.c ****         break;
2178:STM32Cube_FW_N6/Drivers/STM32N6xx_HAL_Driver/Src/stm32n6xx_ll_usb.c ****       }
2179:STM32Cube_FW_N6/Drivers/STM32N6xx_HAL_Driver/Src/stm32n6xx_ll_usb.c ****     } while ((USBx_HC(i)->HCCHAR & USB_OTG_HCCHAR_CHENA) == USB_OTG_HCCHAR_CHENA);
 7237              		.loc 1 2179 15
 7238 00d6 BB69     		ldr	r3, [r7, #24]
 7239 00d8 5A01     		lsls	r2, r3, #5
 7240 00da 7B69     		ldr	r3, [r7, #20]
 7241 00dc 1344     		add	r3, r3, r2
 7242 00de 03F5A063 		add	r3, r3, #1280
 7243              		.loc 1 2179 25
 7244 00e2 1B68     		ldr	r3, [r3]
 7245              		.loc 1 2179 34
 7246 00e4 03F00043 		and	r3, r3, #-2147483648
 7247              		.loc 1 2179 58
 7248 00e8 B3F1004F 		cmp	r3, #-2147483648
 7249 00ec ECD0     		beq	.L337
 7250 00ee 00E0     		b	.L336
 7251              	.L340:
2177:STM32Cube_FW_N6/Drivers/STM32N6xx_HAL_Driver/Src/stm32n6xx_ll_usb.c ****       }
 7252              		.loc 1 2177 9
 7253 00f0 00BF     		nop
 7254              	.L336:
2163:STM32Cube_FW_N6/Drivers/STM32N6xx_HAL_Driver/Src/stm32n6xx_ll_usb.c ****   {
 7255              		.loc 1 2163 27 discriminator 2
ARM GAS  /tmp/ccxt1UfV.s 			page 166


 7256 00f2 BB69     		ldr	r3, [r7, #24]
 7257 00f4 0133     		adds	r3, r3, #1
 7258 00f6 BB61     		str	r3, [r7, #24]
 7259              	.L334:
2163:STM32Cube_FW_N6/Drivers/STM32N6xx_HAL_Driver/Src/stm32n6xx_ll_usb.c ****   {
 7260              		.loc 1 2163 18 discriminator 1
 7261 00f8 BB69     		ldr	r3, [r7, #24]
 7262 00fa 0F2B     		cmp	r3, #15
 7263 00fc C7D9     		bls	.L338
2180:STM32Cube_FW_N6/Drivers/STM32N6xx_HAL_Driver/Src/stm32n6xx_ll_usb.c ****   }
2181:STM32Cube_FW_N6/Drivers/STM32N6xx_HAL_Driver/Src/stm32n6xx_ll_usb.c **** 
2182:STM32Cube_FW_N6/Drivers/STM32N6xx_HAL_Driver/Src/stm32n6xx_ll_usb.c ****   /* Clear any pending Host interrupts */
2183:STM32Cube_FW_N6/Drivers/STM32N6xx_HAL_Driver/Src/stm32n6xx_ll_usb.c ****   USBx_HOST->HAINT = CLEAR_INTERRUPT_MASK;
 7264              		.loc 1 2183 3
 7265 00fe 7B69     		ldr	r3, [r7, #20]
 7266 0100 03F58063 		add	r3, r3, #1024
 7267 0104 1A46     		mov	r2, r3
 7268              		.loc 1 2183 20
 7269 0106 4FF0FF33 		mov	r3, #-1
 7270 010a 5361     		str	r3, [r2, #20]
2184:STM32Cube_FW_N6/Drivers/STM32N6xx_HAL_Driver/Src/stm32n6xx_ll_usb.c ****   USBx->GINTSTS = CLEAR_INTERRUPT_MASK;
 7271              		.loc 1 2184 17
 7272 010c 7B68     		ldr	r3, [r7, #4]
 7273 010e 4FF0FF32 		mov	r2, #-1
 7274 0112 5A61     		str	r2, [r3, #20]
2185:STM32Cube_FW_N6/Drivers/STM32N6xx_HAL_Driver/Src/stm32n6xx_ll_usb.c **** 
2186:STM32Cube_FW_N6/Drivers/STM32N6xx_HAL_Driver/Src/stm32n6xx_ll_usb.c ****   (void)USB_EnableGlobalInt(USBx);
 7275              		.loc 1 2186 9
 7276 0114 7868     		ldr	r0, [r7, #4]
 7277 0116 FFF7FEFF 		bl	USB_EnableGlobalInt
2187:STM32Cube_FW_N6/Drivers/STM32N6xx_HAL_Driver/Src/stm32n6xx_ll_usb.c **** 
2188:STM32Cube_FW_N6/Drivers/STM32N6xx_HAL_Driver/Src/stm32n6xx_ll_usb.c ****   return ret;
 7278              		.loc 1 2188 10
 7279 011a FB7F     		ldrb	r3, [r7, #31]	@ zero_extendqisi2
2189:STM32Cube_FW_N6/Drivers/STM32N6xx_HAL_Driver/Src/stm32n6xx_ll_usb.c **** }
 7280              		.loc 1 2189 1
 7281 011c 1846     		mov	r0, r3
 7282 011e 2037     		adds	r7, r7, #32
 7283              		.cfi_def_cfa_offset 8
 7284 0120 BD46     		mov	sp, r7
 7285              		.cfi_def_cfa_register 13
 7286              		@ sp needed
 7287 0122 80BD     		pop	{r7, pc}
 7288              		.cfi_endproc
 7289              	.LFE881:
 7291              		.section	.text.USB_ActivateRemoteWakeup,"ax",%progbits
 7292              		.align	1
 7293              		.global	USB_ActivateRemoteWakeup
 7294              		.syntax unified
 7295              		.thumb
 7296              		.thumb_func
 7298              	USB_ActivateRemoteWakeup:
 7299              	.LFB882:
2190:STM32Cube_FW_N6/Drivers/STM32N6xx_HAL_Driver/Src/stm32n6xx_ll_usb.c **** 
2191:STM32Cube_FW_N6/Drivers/STM32N6xx_HAL_Driver/Src/stm32n6xx_ll_usb.c **** /**
2192:STM32Cube_FW_N6/Drivers/STM32N6xx_HAL_Driver/Src/stm32n6xx_ll_usb.c ****   * @brief  USB_ActivateRemoteWakeup active remote wakeup signalling
2193:STM32Cube_FW_N6/Drivers/STM32N6xx_HAL_Driver/Src/stm32n6xx_ll_usb.c ****   * @param  USBx Selected device
ARM GAS  /tmp/ccxt1UfV.s 			page 167


2194:STM32Cube_FW_N6/Drivers/STM32N6xx_HAL_Driver/Src/stm32n6xx_ll_usb.c ****   * @retval HAL status
2195:STM32Cube_FW_N6/Drivers/STM32N6xx_HAL_Driver/Src/stm32n6xx_ll_usb.c ****   */
2196:STM32Cube_FW_N6/Drivers/STM32N6xx_HAL_Driver/Src/stm32n6xx_ll_usb.c **** HAL_StatusTypeDef USB_ActivateRemoteWakeup(const USB_OTG_GlobalTypeDef *USBx)
2197:STM32Cube_FW_N6/Drivers/STM32N6xx_HAL_Driver/Src/stm32n6xx_ll_usb.c **** {
 7300              		.loc 1 2197 1
 7301              		.cfi_startproc
 7302              		@ args = 0, pretend = 0, frame = 16
 7303              		@ frame_needed = 1, uses_anonymous_args = 0
 7304              		@ link register save eliminated.
 7305 0000 80B4     		push	{r7}
 7306              		.cfi_def_cfa_offset 4
 7307              		.cfi_offset 7, -4
 7308 0002 85B0     		sub	sp, sp, #20
 7309              		.cfi_def_cfa_offset 24
 7310 0004 00AF     		add	r7, sp, #0
 7311              		.cfi_def_cfa_register 7
 7312 0006 7860     		str	r0, [r7, #4]
2198:STM32Cube_FW_N6/Drivers/STM32N6xx_HAL_Driver/Src/stm32n6xx_ll_usb.c ****   uint32_t USBx_BASE = (uint32_t)USBx;
 7313              		.loc 1 2198 12
 7314 0008 7B68     		ldr	r3, [r7, #4]
 7315 000a FB60     		str	r3, [r7, #12]
2199:STM32Cube_FW_N6/Drivers/STM32N6xx_HAL_Driver/Src/stm32n6xx_ll_usb.c **** 
2200:STM32Cube_FW_N6/Drivers/STM32N6xx_HAL_Driver/Src/stm32n6xx_ll_usb.c ****   if ((USBx_DEVICE->DSTS & USB_OTG_DSTS_SUSPSTS) == USB_OTG_DSTS_SUSPSTS)
 7316              		.loc 1 2200 8
 7317 000c FB68     		ldr	r3, [r7, #12]
 7318 000e 03F50063 		add	r3, r3, #2048
 7319              		.loc 1 2200 19
 7320 0012 9B68     		ldr	r3, [r3, #8]
 7321              		.loc 1 2200 26
 7322 0014 03F00103 		and	r3, r3, #1
 7323              		.loc 1 2200 6
 7324 0018 012B     		cmp	r3, #1
 7325 001a 09D1     		bne	.L342
2201:STM32Cube_FW_N6/Drivers/STM32N6xx_HAL_Driver/Src/stm32n6xx_ll_usb.c ****   {
2202:STM32Cube_FW_N6/Drivers/STM32N6xx_HAL_Driver/Src/stm32n6xx_ll_usb.c ****     /* active Remote wakeup signalling */
2203:STM32Cube_FW_N6/Drivers/STM32N6xx_HAL_Driver/Src/stm32n6xx_ll_usb.c ****     USBx_DEVICE->DCTL |= USB_OTG_DCTL_RWUSIG;
 7326              		.loc 1 2203 16
 7327 001c FB68     		ldr	r3, [r7, #12]
 7328 001e 03F50063 		add	r3, r3, #2048
 7329 0022 5B68     		ldr	r3, [r3, #4]
 7330 0024 FA68     		ldr	r2, [r7, #12]
 7331 0026 02F50062 		add	r2, r2, #2048
 7332              		.loc 1 2203 23
 7333 002a 43F00103 		orr	r3, r3, #1
 7334 002e 5360     		str	r3, [r2, #4]
 7335              	.L342:
2204:STM32Cube_FW_N6/Drivers/STM32N6xx_HAL_Driver/Src/stm32n6xx_ll_usb.c ****   }
2205:STM32Cube_FW_N6/Drivers/STM32N6xx_HAL_Driver/Src/stm32n6xx_ll_usb.c **** 
2206:STM32Cube_FW_N6/Drivers/STM32N6xx_HAL_Driver/Src/stm32n6xx_ll_usb.c ****   return HAL_OK;
 7336              		.loc 1 2206 10
 7337 0030 0023     		movs	r3, #0
2207:STM32Cube_FW_N6/Drivers/STM32N6xx_HAL_Driver/Src/stm32n6xx_ll_usb.c **** }
 7338              		.loc 1 2207 1
 7339 0032 1846     		mov	r0, r3
 7340 0034 1437     		adds	r7, r7, #20
 7341              		.cfi_def_cfa_offset 4
 7342 0036 BD46     		mov	sp, r7
ARM GAS  /tmp/ccxt1UfV.s 			page 168


 7343              		.cfi_def_cfa_register 13
 7344              		@ sp needed
 7345 0038 5DF8047B 		ldr	r7, [sp], #4
 7346              		.cfi_restore 7
 7347              		.cfi_def_cfa_offset 0
 7348 003c 7047     		bx	lr
 7349              		.cfi_endproc
 7350              	.LFE882:
 7352              		.section	.text.USB_DeActivateRemoteWakeup,"ax",%progbits
 7353              		.align	1
 7354              		.global	USB_DeActivateRemoteWakeup
 7355              		.syntax unified
 7356              		.thumb
 7357              		.thumb_func
 7359              	USB_DeActivateRemoteWakeup:
 7360              	.LFB883:
2208:STM32Cube_FW_N6/Drivers/STM32N6xx_HAL_Driver/Src/stm32n6xx_ll_usb.c **** 
2209:STM32Cube_FW_N6/Drivers/STM32N6xx_HAL_Driver/Src/stm32n6xx_ll_usb.c **** /**
2210:STM32Cube_FW_N6/Drivers/STM32N6xx_HAL_Driver/Src/stm32n6xx_ll_usb.c ****   * @brief  USB_DeActivateRemoteWakeup de-active remote wakeup signalling
2211:STM32Cube_FW_N6/Drivers/STM32N6xx_HAL_Driver/Src/stm32n6xx_ll_usb.c ****   * @param  USBx Selected device
2212:STM32Cube_FW_N6/Drivers/STM32N6xx_HAL_Driver/Src/stm32n6xx_ll_usb.c ****   * @retval HAL status
2213:STM32Cube_FW_N6/Drivers/STM32N6xx_HAL_Driver/Src/stm32n6xx_ll_usb.c ****   */
2214:STM32Cube_FW_N6/Drivers/STM32N6xx_HAL_Driver/Src/stm32n6xx_ll_usb.c **** HAL_StatusTypeDef USB_DeActivateRemoteWakeup(const USB_OTG_GlobalTypeDef *USBx)
2215:STM32Cube_FW_N6/Drivers/STM32N6xx_HAL_Driver/Src/stm32n6xx_ll_usb.c **** {
 7361              		.loc 1 2215 1
 7362              		.cfi_startproc
 7363              		@ args = 0, pretend = 0, frame = 16
 7364              		@ frame_needed = 1, uses_anonymous_args = 0
 7365              		@ link register save eliminated.
 7366 0000 80B4     		push	{r7}
 7367              		.cfi_def_cfa_offset 4
 7368              		.cfi_offset 7, -4
 7369 0002 85B0     		sub	sp, sp, #20
 7370              		.cfi_def_cfa_offset 24
 7371 0004 00AF     		add	r7, sp, #0
 7372              		.cfi_def_cfa_register 7
 7373 0006 7860     		str	r0, [r7, #4]
2216:STM32Cube_FW_N6/Drivers/STM32N6xx_HAL_Driver/Src/stm32n6xx_ll_usb.c ****   uint32_t USBx_BASE = (uint32_t)USBx;
 7374              		.loc 1 2216 12
 7375 0008 7B68     		ldr	r3, [r7, #4]
 7376 000a FB60     		str	r3, [r7, #12]
2217:STM32Cube_FW_N6/Drivers/STM32N6xx_HAL_Driver/Src/stm32n6xx_ll_usb.c **** 
2218:STM32Cube_FW_N6/Drivers/STM32N6xx_HAL_Driver/Src/stm32n6xx_ll_usb.c ****   /* active Remote wakeup signalling */
2219:STM32Cube_FW_N6/Drivers/STM32N6xx_HAL_Driver/Src/stm32n6xx_ll_usb.c ****   USBx_DEVICE->DCTL &= ~(USB_OTG_DCTL_RWUSIG);
 7377              		.loc 1 2219 14
 7378 000c FB68     		ldr	r3, [r7, #12]
 7379 000e 03F50063 		add	r3, r3, #2048
 7380 0012 5B68     		ldr	r3, [r3, #4]
 7381 0014 FA68     		ldr	r2, [r7, #12]
 7382 0016 02F50062 		add	r2, r2, #2048
 7383              		.loc 1 2219 21
 7384 001a 23F00103 		bic	r3, r3, #1
 7385 001e 5360     		str	r3, [r2, #4]
2220:STM32Cube_FW_N6/Drivers/STM32N6xx_HAL_Driver/Src/stm32n6xx_ll_usb.c **** 
2221:STM32Cube_FW_N6/Drivers/STM32N6xx_HAL_Driver/Src/stm32n6xx_ll_usb.c ****   return HAL_OK;
 7386              		.loc 1 2221 10
 7387 0020 0023     		movs	r3, #0
ARM GAS  /tmp/ccxt1UfV.s 			page 169


2222:STM32Cube_FW_N6/Drivers/STM32N6xx_HAL_Driver/Src/stm32n6xx_ll_usb.c **** }
 7388              		.loc 1 2222 1
 7389 0022 1846     		mov	r0, r3
 7390 0024 1437     		adds	r7, r7, #20
 7391              		.cfi_def_cfa_offset 4
 7392 0026 BD46     		mov	sp, r7
 7393              		.cfi_def_cfa_register 13
 7394              		@ sp needed
 7395 0028 5DF8047B 		ldr	r7, [sp], #4
 7396              		.cfi_restore 7
 7397              		.cfi_def_cfa_offset 0
 7398 002c 7047     		bx	lr
 7399              		.cfi_endproc
 7400              	.LFE883:
 7402              		.text
 7403              	.Letext0:
 7404              		.file 2 "/home/tanjiajun2002/renesas/rzv/e2studio_v2025-01_fsp_v3.1.0/toolchains/gcc_arm/arm-gnu-t
 7405              		.file 3 "/home/tanjiajun2002/renesas/rzv/e2studio_v2025-01_fsp_v3.1.0/toolchains/gcc_arm/arm-gnu-t
 7406              		.file 4 "STM32Cube_FW_N6/Drivers/CMSIS/Include/cmsis_gcc.h"
 7407              		.file 5 "STM32Cube_FW_N6/Drivers/CMSIS/Device/ST/STM32N6xx/Include/stm32n657xx.h"
 7408              		.file 6 "STM32Cube_FW_N6/Drivers/STM32N6xx_HAL_Driver/Inc/stm32n6xx_hal_def.h"
 7409              		.file 7 "STM32Cube_FW_N6/Drivers/STM32N6xx_HAL_Driver/Inc/stm32n6xx_ll_usb.h"
 7410              		.file 8 "STM32Cube_FW_N6/Drivers/STM32N6xx_HAL_Driver/Inc/stm32n6xx_hal.h"
ARM GAS  /tmp/ccxt1UfV.s 			page 170


DEFINED SYMBOLS
                            *ABS*:00000000 stm32n6xx_ll_usb.c
     /tmp/ccxt1UfV.s:26     .text.USB_CoreInit:00000000 $t
     /tmp/ccxt1UfV.s:32     .text.USB_CoreInit:00000000 USB_CoreInit
     /tmp/ccxt1UfV.s:4710   .text.USB_CoreReset:00000000 USB_CoreReset
     /tmp/ccxt1UfV.s:115    .text.USB_SetTurnaroundTime:00000000 $t
     /tmp/ccxt1UfV.s:121    .text.USB_SetTurnaroundTime:00000000 USB_SetTurnaroundTime
     /tmp/ccxt1UfV.s:331    .text.USB_SetTurnaroundTime:0000011c $d
     /tmp/ccxt1UfV.s:345    .text.USB_EnableGlobalInt:00000000 $t
     /tmp/ccxt1UfV.s:351    .text.USB_EnableGlobalInt:00000000 USB_EnableGlobalInt
     /tmp/ccxt1UfV.s:390    .text.USB_DisableGlobalInt:00000000 $t
     /tmp/ccxt1UfV.s:396    .text.USB_DisableGlobalInt:00000000 USB_DisableGlobalInt
     /tmp/ccxt1UfV.s:435    .text.USB_SetCurrentMode:00000000 $t
     /tmp/ccxt1UfV.s:441    .text.USB_SetCurrentMode:00000000 USB_SetCurrentMode
     /tmp/ccxt1UfV.s:4478   .text.USB_GetMode:00000000 USB_GetMode
     /tmp/ccxt1UfV.s:559    .text.USB_DevInit:00000000 $t
     /tmp/ccxt1UfV.s:565    .text.USB_DevInit:00000000 USB_DevInit
     /tmp/ccxt1UfV.s:1205   .text.USB_SetDevSpeed:00000000 USB_SetDevSpeed
     /tmp/ccxt1UfV.s:1018   .text.USB_FlushTxFifo:00000000 USB_FlushTxFifo
     /tmp/ccxt1UfV.s:1114   .text.USB_FlushRxFifo:00000000 USB_FlushRxFifo
     /tmp/ccxt1UfV.s:1007   .text.USB_DevInit:000002c4 $d
     /tmp/ccxt1UfV.s:1012   .text.USB_FlushTxFifo:00000000 $t
     /tmp/ccxt1UfV.s:1108   .text.USB_FlushRxFifo:00000000 $t
     /tmp/ccxt1UfV.s:1199   .text.USB_SetDevSpeed:00000000 $t
     /tmp/ccxt1UfV.s:1254   .text.USB_GetDevSpeed:00000000 $t
     /tmp/ccxt1UfV.s:1260   .text.USB_GetDevSpeed:00000000 USB_GetDevSpeed
     /tmp/ccxt1UfV.s:1330   .text.USB_ActivateEndpoint:00000000 $t
     /tmp/ccxt1UfV.s:1336   .text.USB_ActivateEndpoint:00000000 USB_ActivateEndpoint
     /tmp/ccxt1UfV.s:1519   .text.USB_ActivateDedicatedEndpoint:00000000 $t
     /tmp/ccxt1UfV.s:1525   .text.USB_ActivateDedicatedEndpoint:00000000 USB_ActivateDedicatedEndpoint
     /tmp/ccxt1UfV.s:1714   .text.USB_DeactivateEndpoint:00000000 $t
     /tmp/ccxt1UfV.s:1720   .text.USB_DeactivateEndpoint:00000000 USB_DeactivateEndpoint
     /tmp/ccxt1UfV.s:1979   .text.USB_DeactivateEndpoint:000001b0 $d
     /tmp/ccxt1UfV.s:1985   .text.USB_DeactivateDedicatedEndpoint:00000000 $t
     /tmp/ccxt1UfV.s:1991   .text.USB_DeactivateDedicatedEndpoint:00000000 USB_DeactivateDedicatedEndpoint
     /tmp/ccxt1UfV.s:2203   .text.USB_EPStartXfer:00000000 $t
     /tmp/ccxt1UfV.s:2209   .text.USB_EPStartXfer:00000000 USB_EPStartXfer
     /tmp/ccxt1UfV.s:3219   .text.USB_WritePacket:00000000 USB_WritePacket
     /tmp/ccxt1UfV.s:2762   .text.USB_EPStartXfer:000003cc $d
     /tmp/ccxt1UfV.s:2765   .text.USB_EPStartXfer:000003d0 $t
     /tmp/ccxt1UfV.s:2981   .text.USB_EPStartXfer:00000538 $d
     /tmp/ccxt1UfV.s:2986   .text.USB_EPStopXfer:00000000 $t
     /tmp/ccxt1UfV.s:2992   .text.USB_EPStopXfer:00000000 USB_EPStopXfer
     /tmp/ccxt1UfV.s:3213   .text.USB_WritePacket:00000000 $t
     /tmp/ccxt1UfV.s:3320   .text.USB_ReadPacket:00000000 $t
     /tmp/ccxt1UfV.s:3326   .text.USB_ReadPacket:00000000 USB_ReadPacket
     /tmp/ccxt1UfV.s:3461   .text.USB_EPSetStall:00000000 $t
     /tmp/ccxt1UfV.s:3467   .text.USB_EPSetStall:00000000 USB_EPSetStall
     /tmp/ccxt1UfV.s:3609   .text.USB_EPClearStall:00000000 $t
     /tmp/ccxt1UfV.s:3615   .text.USB_EPClearStall:00000000 USB_EPClearStall
     /tmp/ccxt1UfV.s:3751   .text.USB_StopDevice:00000000 $t
     /tmp/ccxt1UfV.s:3757   .text.USB_StopDevice:00000000 USB_StopDevice
     /tmp/ccxt1UfV.s:3873   .text.USB_SetDevAddress:00000000 $t
     /tmp/ccxt1UfV.s:3879   .text.USB_SetDevAddress:00000000 USB_SetDevAddress
     /tmp/ccxt1UfV.s:3941   .text.USB_DevConnect:00000000 $t
     /tmp/ccxt1UfV.s:3947   .text.USB_DevConnect:00000000 USB_DevConnect
     /tmp/ccxt1UfV.s:4000   .text.USB_DevDisconnect:00000000 $t
ARM GAS  /tmp/ccxt1UfV.s 			page 171


     /tmp/ccxt1UfV.s:4006   .text.USB_DevDisconnect:00000000 USB_DevDisconnect
     /tmp/ccxt1UfV.s:4059   .text.USB_ReadInterrupts:00000000 $t
     /tmp/ccxt1UfV.s:4065   .text.USB_ReadInterrupts:00000000 USB_ReadInterrupts
     /tmp/ccxt1UfV.s:4108   .text.USB_ReadChInterrupts:00000000 $t
     /tmp/ccxt1UfV.s:4114   .text.USB_ReadChInterrupts:00000000 USB_ReadChInterrupts
     /tmp/ccxt1UfV.s:4172   .text.USB_ReadDevAllOutEpInterrupt:00000000 $t
     /tmp/ccxt1UfV.s:4178   .text.USB_ReadDevAllOutEpInterrupt:00000000 USB_ReadDevAllOutEpInterrupt
     /tmp/ccxt1UfV.s:4229   .text.USB_ReadDevAllInEpInterrupt:00000000 $t
     /tmp/ccxt1UfV.s:4235   .text.USB_ReadDevAllInEpInterrupt:00000000 USB_ReadDevAllInEpInterrupt
     /tmp/ccxt1UfV.s:4286   .text.USB_ReadDevOutEPInterrupt:00000000 $t
     /tmp/ccxt1UfV.s:4292   .text.USB_ReadDevOutEPInterrupt:00000000 USB_ReadDevOutEPInterrupt
     /tmp/ccxt1UfV.s:4347   .text.USB_ReadDevInEPInterrupt:00000000 $t
     /tmp/ccxt1UfV.s:4353   .text.USB_ReadDevInEPInterrupt:00000000 USB_ReadDevInEPInterrupt
     /tmp/ccxt1UfV.s:4427   .text.USB_ClearInterrupts:00000000 $t
     /tmp/ccxt1UfV.s:4433   .text.USB_ClearInterrupts:00000000 USB_ClearInterrupts
     /tmp/ccxt1UfV.s:4472   .text.USB_GetMode:00000000 $t
     /tmp/ccxt1UfV.s:4513   .text.USB_ActivateSetup:00000000 $t
     /tmp/ccxt1UfV.s:4519   .text.USB_ActivateSetup:00000000 USB_ActivateSetup
     /tmp/ccxt1UfV.s:4573   .text.USB_EP0_OutStart:00000000 $t
     /tmp/ccxt1UfV.s:4579   .text.USB_EP0_OutStart:00000000 USB_EP0_OutStart
     /tmp/ccxt1UfV.s:4700   .text.USB_EP0_OutStart:000000b8 $d
     /tmp/ccxt1UfV.s:4705   .text.USB_CoreReset:00000000 $t
     /tmp/ccxt1UfV.s:4798   .text.USB_HostInit:00000000 $t
     /tmp/ccxt1UfV.s:4804   .text.USB_HostInit:00000000 USB_HostInit
     /tmp/ccxt1UfV.s:5030   .text.USB_HostInit:00000160 $d
     /tmp/ccxt1UfV.s:5037   .text.USB_InitFSLSPClkSel:00000000 $t
     /tmp/ccxt1UfV.s:5043   .text.USB_InitFSLSPClkSel:00000000 USB_InitFSLSPClkSel
     /tmp/ccxt1UfV.s:5133   .text.USB_ResetPort:00000000 $t
     /tmp/ccxt1UfV.s:5139   .text.USB_ResetPort:00000000 USB_ResetPort
     /tmp/ccxt1UfV.s:5208   .text.USB_DriveVbus:00000000 $t
     /tmp/ccxt1UfV.s:5214   .text.USB_DriveVbus:00000000 USB_DriveVbus
     /tmp/ccxt1UfV.s:5304   .text.USB_GetHostSpeed:00000000 $t
     /tmp/ccxt1UfV.s:5310   .text.USB_GetHostSpeed:00000000 USB_GetHostSpeed
     /tmp/ccxt1UfV.s:5356   .text.USB_GetCurrentFrame:00000000 $t
     /tmp/ccxt1UfV.s:5362   .text.USB_GetCurrentFrame:00000000 USB_GetCurrentFrame
     /tmp/ccxt1UfV.s:5402   .text.USB_HC_Init:00000000 $t
     /tmp/ccxt1UfV.s:5408   .text.USB_HC_Init:00000000 USB_HC_Init
     /tmp/ccxt1UfV.s:5456   .text.USB_HC_Init:00000044 $d
     /tmp/ccxt1UfV.s:5460   .text.USB_HC_Init:00000054 $t
     /tmp/ccxt1UfV.s:5756   .text.USB_HC_StartXfer:00000000 $t
     /tmp/ccxt1UfV.s:5762   .text.USB_HC_StartXfer:00000000 USB_HC_StartXfer
     /tmp/ccxt1UfV.s:6998   .text.USB_DoPing:00000000 USB_DoPing
     /tmp/ccxt1UfV.s:6306   .text.USB_HC_StartXfer:00000328 $d
     /tmp/ccxt1UfV.s:6310   .text.USB_HC_StartXfer:00000338 $t
     /tmp/ccxt1UfV.s:6454   .text.USB_HC_StartXfer:0000042c $d
     /tmp/ccxt1UfV.s:6457   .text.USB_HC_StartXfer:00000430 $t
     /tmp/ccxt1UfV.s:6484   .text.USB_HC_StartXfer:00000458 $d
     /tmp/ccxt1UfV.s:6488   .text.USB_HC_StartXfer:00000468 $t
     /tmp/ccxt1UfV.s:6591   .text.USB_HC_ReadInterrupt:00000000 $t
     /tmp/ccxt1UfV.s:6597   .text.USB_HC_ReadInterrupt:00000000 USB_HC_ReadInterrupt
     /tmp/ccxt1UfV.s:6637   .text.USB_HC_Halt:00000000 $t
     /tmp/ccxt1UfV.s:6643   .text.USB_HC_Halt:00000000 USB_HC_Halt
     /tmp/ccxt1UfV.s:6992   .text.USB_DoPing:00000000 $t
     /tmp/ccxt1UfV.s:7083   .text.USB_DoPing:00000074 $d
     /tmp/ccxt1UfV.s:7088   .text.USB_StopHost:00000000 $t
     /tmp/ccxt1UfV.s:7094   .text.USB_StopHost:00000000 USB_StopHost
     /tmp/ccxt1UfV.s:7292   .text.USB_ActivateRemoteWakeup:00000000 $t
ARM GAS  /tmp/ccxt1UfV.s 			page 172


     /tmp/ccxt1UfV.s:7298   .text.USB_ActivateRemoteWakeup:00000000 USB_ActivateRemoteWakeup
     /tmp/ccxt1UfV.s:7353   .text.USB_DeActivateRemoteWakeup:00000000 $t
     /tmp/ccxt1UfV.s:7359   .text.USB_DeActivateRemoteWakeup:00000000 USB_DeActivateRemoteWakeup
                           .group:00000000 wm4.0.2a10773746a5c5ebb5552f50e466f80b
                           .group:00000000 wm4.stm32n6xx_hal_conf.h.21.004a06df6e15ac197e03f723792da58a
                           .group:00000000 wm4.stddef.h.39.0dc9006b34572d4d9cae4c8b422c4971
                           .group:00000000 wm4.arm_cmse.h.103.a0d15a79c4c9a67da8d5831704d7248e
                           .group:00000000 wm4.stm32n6xx.h.34.80585dd08aa426c932f6311fdb7386da
                           .group:00000000 wm4.stm32n657xx.h.26.acd272cb67318cc1a4791ce2f0720ca6
                           .group:00000000 wm4._newlib_version.h.4.411db44ea2338a62eca2f0777f81481b
                           .group:00000000 wm4.features.h.33.e0c9f337c65cb9f22ed5f23d082bc78b
                           .group:00000000 wm4._default_types.h.15.247e5cd201eca3442cbf5404108c4935
                           .group:00000000 wm4._intsup.h.10.48bafbb683905c4daa4565a85aeeb264
                           .group:00000000 wm4._stdint.h.10.c24fa3af3bc1706662bb5593a907e841
                           .group:00000000 wm4.stdint.h.23.d53047a68f4a85177f80b422d52785ed
                           .group:00000000 wm4.cmsis_version.h.32.0ac195c83bb4537824e6ad1c47474b79
                           .group:00000000 wm4.core_cm55.h.68.832d5cf835639cc0d28219c3d2867330
                           .group:00000000 wm4.cmsis_gcc.h.26.7a5fd1a99dbedde687044a4433ab3e15
                           .group:00000000 wm4.core_cm55.h.196.52e437a270752da561676e507b35baeb
                           .group:00000000 wm4.mpu_armv8.h.32.9d72426c8e2b47753456dcb84802c5b3
                           .group:00000000 wm4.pmu_armv8.h.32.eaa95f88a71b29390b135fd81c071b6b
                           .group:00000000 wm4.core_cm55.h.4411.860dad8650880893dd57b815844f7186
                           .group:00000000 wm4.cachel1_armv7.h.32.abd77761a989e008b0c60891114a33c7
                           .group:00000000 wm4.stm32n657xx.h.575.1c2a5e6bedffc6f9083dcc857bc6d09d
                           .group:00000000 wm4.stm32n6xx.h.114.5cf793d8af485e14f110e3e24bde1aa5
                           .group:00000000 wm4.stm32_hal_legacy.h.22.87fb12bf5a1a1e00fc134f22bc9aa8c4
                           .group:00000000 wm4.newlib.h.7.591ac1bd65c1f5b34864757667a05252
                           .group:00000000 wm4.ieeefp.h.77.bd5feb87d9990dd328793ced294f6a87
                           .group:00000000 wm4.config.h.224.10ee1ad185d877c6e334e6581faab44d
                           .group:00000000 wm4._ansi.h.31.de524f58584151836e90d8620a16f8e8
                           .group:00000000 wm4.cdefs.h.49.70fc7af612f78ddcace70fdd90b5623b
                           .group:00000000 wm4._types.h.20.dd0d04dca3800a0d2a6129b87f3adbb2
                           .group:00000000 wm4.stddef.h.158.6f8e08a347b1cff664332fa350bfceb3
                           .group:00000000 wm4._types.h.127.3bdfe3ff8ea2d0985b03d9cbe93480e3
                           .group:00000000 wm4.reent.h.18.25503cdc8b7e55dd0d6ea7b3e5af7a03
                           .group:00000000 wm4.lock.h.2.1461d1fff82dffe8bfddc23307f6484f
                           .group:00000000 wm4.reent.h.78.6b87466b04591b1f1cb88c14fdf2ba9e
                           .group:00000000 wm4.math.h.13.47cfc34cae8a1153323939c4d32cf7c2
                           .group:00000000 wm4.stm32n6xx_hal_def.h.63.3a8f01490e8852464e9fcb69092e9c75
                           .group:00000000 wm4.stm32n6xx_ll_bus.h.38.2366a295ee4cdb04833997d3787fcd2d
                           .group:00000000 wm4.stm32n6xx_ll_rcc.h.21.002e22a16fd7f67dde6dce41e8ba9620
                           .group:00000000 wm4.stm32n6xx_hal_rcc.h.194.1cb1283e40f9bebcd3fba2a9a961838e
                           .group:00000000 wm4.stm32n6xx_hal_rcc_ex.h.21.79aa32178dfef625fbd20d362449acfa
                           .group:00000000 wm4.stm32n6xx_hal_rcc.h.4359.3f0b7ad33826d95438602c9aebc08af9
                           .group:00000000 wm4.stm32n6xx_hal_gpio.h.21.89d54af663b98eb8fc098192053f7eeb
                           .group:00000000 wm4.stm32n6xx_hal_gpio_ex.h.22.4acb2e3511a98bb48b81cfc8e09fd59e
                           .group:00000000 wm4.stm32n6xx_hal_rif.h.21.424d0bafb874a777dee3742a22e13037
                           .group:00000000 wm4.stm32n6xx_hal_dma.h.21.61e48c5c2e8d25d22177834b232fe45c
                           .group:00000000 wm4.stm32n6xx_hal_dma_ex.h.21.66e597beb090a165329d6ccf665e41bc
                           .group:00000000 wm4.stm32n6xx_hal_dma.h.1020.87e2180c009560b617c1f8208140c950
                           .group:00000000 wm4.stm32n6xx_hal_cortex.h.21.f493623cc58f9454ab4eae41e395c5cc
                           .group:00000000 wm4.stm32n6xx_hal_bsec.h.21.61b309e67dd810e28897a01b1b21a97f
                           .group:00000000 wm4.stm32n6xx_hal_dcmipp.h.21.f538bfd785c6469670251ac9bc7af55d
                           .group:00000000 wm4.stm32n6xx_hal_dma2d.h.21.75c8d46cdbb72970123b3f34ae2043d7
                           .group:00000000 wm4.stm32n6xx_hal_exti.h.21.fda87e715ea6b98239ec30171d1df594
                           .group:00000000 wm4.stm32n6xx_hal_gfxmmu.h.21.9784a9103143d48bd3c37389d0e0b8e6
                           .group:00000000 wm4.stm32n6xx_hal_i2c.h.21.3f483626ff64c5bf027265bb2e1d1331
ARM GAS  /tmp/ccxt1UfV.s 			page 173


                           .group:00000000 wm4.stm32n6xx_hal_i2c_ex.h.21.79e9196c22282cdaf6b4047893638c45
                           .group:00000000 wm4.stm32n6xx_hal_i2c.h.741.1084702632703acc669e4282b3043372
                           .group:00000000 wm4.stm32n6xx_hal_icache.h.21.194b4ec6e76f32b14f65c85616854850
                           .group:00000000 wm4.stm32n6xx_hal_ltdc.h.21.ae1eb09930e7e550e48e418ac5849e4d
                           .group:00000000 wm4.stm32n6xx_hal_ltdc.h.1002.b13ede7fc94ed5ad1c6768a157d2149a
                           .group:00000000 wm4.stm32n6xx_ll_usb.h.21.d518a5d97876c2ff49040c20a2c4a120
                           .group:00000000 wm4.stm32n6xx_hal_pcd.h.155.27040aac6844effe2af8c180caf1dd2e
                           .group:00000000 wm4.stm32n6xx_hal_pwr.h.21.cdb73e4869c3fed3fc84f901ec0e5f0a
                           .group:00000000 wm4.stm32n6xx_hal_pwr_ex.h.21.1a673224a58b0c1e5fad8eeda6514208
                           .group:00000000 wm4.stm32n6xx_hal_ramcfg.h.21.a62dfbb4d2c14e9a8c634a215e37bd3d
                           .group:00000000 wm4.stm32n6xx_hal_spi.h.21.9f810303326e2d91749800e9911f8e4d
                           .group:00000000 wm4.stm32n6xx_hal_spi.h.906.93ec0695066db4253cdbcb7d84358a0b
                           .group:00000000 wm4.stm32n6xx_hal_tim.h.21.839dd2b2a70382fb2c44f8f293a84d5f
                           .group:00000000 wm4.stm32n6xx_hal_tim_ex.h.21.e372d5ac63c13441211ea4ecbd353150
                           .group:00000000 wm4.stm32n6xx_hal_uart.h.21.230f549bfa0d5ebfd77bfb311b2aca15
                           .group:00000000 wm4.stm32n6xx_hal_uart_ex.h.21.a0d5511e1d0703b7b5278c8f5472b96d
                           .group:00000000 wm4.stm32n6xx_hal_xspi.h.21.e17898be2073b6b6b19faf30b4e304e9
                           .group:00000000 wm4.stm32n6xx_hal_cacheaxi.h.21.7c3375b7903ec42376e4883320997f74
                           .group:00000000 wm4.stm32n6xx_hal_gpu2d.h.21.48d0249122abad294a630c39cc4ebaed
                           .group:00000000 wm4.stm32n6xx_hal.h.81.5e59143eba07faca3e9aeaa5470826c8

UNDEFINED SYMBOLS
HAL_Delay
