ARM GAS  /tmp/ccxt1UfV.s 			page 1


   1              		.arch armv8.1-m.main
   2              		.fpu fpv5-d16
   3              		.arch_extension dsp
   4              		.arch_extension fp
   5              		.arch_extension fp.dp
   6              		.arch_extension mve
   7              		.arch_extension mve.fp
   8              		.eabi_attribute 5, "cortex-m55"
   9              		.eabi_attribute 28, 1
  10              		.eabi_attribute 20, 1
  11              		.eabi_attribute 21, 1
  12              		.eabi_attribute 23, 3
  13              		.eabi_attribute 24, 1
  14              		.eabi_attribute 25, 1
  15              		.eabi_attribute 26, 1
  16              		.eabi_attribute 30, 6
  17              		.eabi_attribute 34, 1
  18              		.eabi_attribute 38, 1
  19              		.eabi_attribute 18, 4
  20              		.file	"stm32n6xx_ll_usb.c"
  21              		.text
  22              	.Ltext0:
  23              		.cfi_sections	.debug_frame
  24              		.file 1 "STM32Cube_FW_N6/Drivers/STM32N6xx_HAL_Driver/Src/stm32n6xx_ll_usb.c"
  25              		.section	.text.USB_CoreInit,"ax",%progbits
  26              		.align	1
  27              		.global	USB_CoreInit
  28              		.syntax unified
  29              		.thumb
  30              		.thumb_func
  32              	USB_CoreInit:
  33              	.LFB835:
   1:STM32Cube_FW_N6/Drivers/STM32N6xx_HAL_Driver/Src/stm32n6xx_ll_usb.c **** /**
   2:STM32Cube_FW_N6/Drivers/STM32N6xx_HAL_Driver/Src/stm32n6xx_ll_usb.c ****   ******************************************************************************
   3:STM32Cube_FW_N6/Drivers/STM32N6xx_HAL_Driver/Src/stm32n6xx_ll_usb.c ****   * @file    stm32n6xx_ll_usb.c
   4:STM32Cube_FW_N6/Drivers/STM32N6xx_HAL_Driver/Src/stm32n6xx_ll_usb.c ****   * @author  MCD Application Team
   5:STM32Cube_FW_N6/Drivers/STM32N6xx_HAL_Driver/Src/stm32n6xx_ll_usb.c ****   * @brief   USB Low Layer HAL module driver.
   6:STM32Cube_FW_N6/Drivers/STM32N6xx_HAL_Driver/Src/stm32n6xx_ll_usb.c ****   *
   7:STM32Cube_FW_N6/Drivers/STM32N6xx_HAL_Driver/Src/stm32n6xx_ll_usb.c ****   *          This file provides firmware functions to manage the following
   8:STM32Cube_FW_N6/Drivers/STM32N6xx_HAL_Driver/Src/stm32n6xx_ll_usb.c ****   *          functionalities of the USB Peripheral Controller:
   9:STM32Cube_FW_N6/Drivers/STM32N6xx_HAL_Driver/Src/stm32n6xx_ll_usb.c ****   *           + Initialization/de-initialization functions
  10:STM32Cube_FW_N6/Drivers/STM32N6xx_HAL_Driver/Src/stm32n6xx_ll_usb.c ****   *           + I/O operation functions
  11:STM32Cube_FW_N6/Drivers/STM32N6xx_HAL_Driver/Src/stm32n6xx_ll_usb.c ****   *           + Peripheral Control functions
  12:STM32Cube_FW_N6/Drivers/STM32N6xx_HAL_Driver/Src/stm32n6xx_ll_usb.c ****   *           + Peripheral State functions
  13:STM32Cube_FW_N6/Drivers/STM32N6xx_HAL_Driver/Src/stm32n6xx_ll_usb.c ****   *
  14:STM32Cube_FW_N6/Drivers/STM32N6xx_HAL_Driver/Src/stm32n6xx_ll_usb.c ****   ******************************************************************************
  15:STM32Cube_FW_N6/Drivers/STM32N6xx_HAL_Driver/Src/stm32n6xx_ll_usb.c ****   * @attention
  16:STM32Cube_FW_N6/Drivers/STM32N6xx_HAL_Driver/Src/stm32n6xx_ll_usb.c ****   *
  17:STM32Cube_FW_N6/Drivers/STM32N6xx_HAL_Driver/Src/stm32n6xx_ll_usb.c ****   * Copyright (c) 2023 STMicroelectronics.
  18:STM32Cube_FW_N6/Drivers/STM32N6xx_HAL_Driver/Src/stm32n6xx_ll_usb.c ****   * All rights reserved.
  19:STM32Cube_FW_N6/Drivers/STM32N6xx_HAL_Driver/Src/stm32n6xx_ll_usb.c ****   *
  20:STM32Cube_FW_N6/Drivers/STM32N6xx_HAL_Driver/Src/stm32n6xx_ll_usb.c ****   * This software is licensed under terms that can be found in the LICENSE file
  21:STM32Cube_FW_N6/Drivers/STM32N6xx_HAL_Driver/Src/stm32n6xx_ll_usb.c ****   * in the root directory of this software component.
  22:STM32Cube_FW_N6/Drivers/STM32N6xx_HAL_Driver/Src/stm32n6xx_ll_usb.c ****   * If no LICENSE file comes with this software, it is provided AS-IS.
  23:STM32Cube_FW_N6/Drivers/STM32N6xx_HAL_Driver/Src/stm32n6xx_ll_usb.c ****   *
  24:STM32Cube_FW_N6/Drivers/STM32N6xx_HAL_Driver/Src/stm32n6xx_ll_usb.c ****   ******************************************************************************
  25:STM32Cube_FW_N6/Drivers/STM32N6xx_HAL_Driver/Src/stm32n6xx_ll_usb.c ****   @verbatim
ARM GAS  /tmp/ccxt1UfV.s 			page 2


  26:STM32Cube_FW_N6/Drivers/STM32N6xx_HAL_Driver/Src/stm32n6xx_ll_usb.c ****   ==============================================================================
  27:STM32Cube_FW_N6/Drivers/STM32N6xx_HAL_Driver/Src/stm32n6xx_ll_usb.c ****                     ##### How to use this driver #####
  28:STM32Cube_FW_N6/Drivers/STM32N6xx_HAL_Driver/Src/stm32n6xx_ll_usb.c ****   ==============================================================================
  29:STM32Cube_FW_N6/Drivers/STM32N6xx_HAL_Driver/Src/stm32n6xx_ll_usb.c ****     [..]
  30:STM32Cube_FW_N6/Drivers/STM32N6xx_HAL_Driver/Src/stm32n6xx_ll_usb.c ****       (#) Fill parameters of Init structure in USB_CfgTypeDef structure.
  31:STM32Cube_FW_N6/Drivers/STM32N6xx_HAL_Driver/Src/stm32n6xx_ll_usb.c **** 
  32:STM32Cube_FW_N6/Drivers/STM32N6xx_HAL_Driver/Src/stm32n6xx_ll_usb.c ****       (#) Call USB_CoreInit() API to initialize the USB Core peripheral.
  33:STM32Cube_FW_N6/Drivers/STM32N6xx_HAL_Driver/Src/stm32n6xx_ll_usb.c **** 
  34:STM32Cube_FW_N6/Drivers/STM32N6xx_HAL_Driver/Src/stm32n6xx_ll_usb.c ****       (#) The upper HAL HCD/PCD driver will call the right routines for its internal processes.
  35:STM32Cube_FW_N6/Drivers/STM32N6xx_HAL_Driver/Src/stm32n6xx_ll_usb.c **** 
  36:STM32Cube_FW_N6/Drivers/STM32N6xx_HAL_Driver/Src/stm32n6xx_ll_usb.c ****   @endverbatim
  37:STM32Cube_FW_N6/Drivers/STM32N6xx_HAL_Driver/Src/stm32n6xx_ll_usb.c **** 
  38:STM32Cube_FW_N6/Drivers/STM32N6xx_HAL_Driver/Src/stm32n6xx_ll_usb.c ****   ******************************************************************************
  39:STM32Cube_FW_N6/Drivers/STM32N6xx_HAL_Driver/Src/stm32n6xx_ll_usb.c ****   */
  40:STM32Cube_FW_N6/Drivers/STM32N6xx_HAL_Driver/Src/stm32n6xx_ll_usb.c **** 
  41:STM32Cube_FW_N6/Drivers/STM32N6xx_HAL_Driver/Src/stm32n6xx_ll_usb.c **** /* Includes ------------------------------------------------------------------*/
  42:STM32Cube_FW_N6/Drivers/STM32N6xx_HAL_Driver/Src/stm32n6xx_ll_usb.c **** #include "stm32n6xx_hal.h"
  43:STM32Cube_FW_N6/Drivers/STM32N6xx_HAL_Driver/Src/stm32n6xx_ll_usb.c **** 
  44:STM32Cube_FW_N6/Drivers/STM32N6xx_HAL_Driver/Src/stm32n6xx_ll_usb.c **** /** @addtogroup STM32N6xx_LL_USB_DRIVER
  45:STM32Cube_FW_N6/Drivers/STM32N6xx_HAL_Driver/Src/stm32n6xx_ll_usb.c ****   * @{
  46:STM32Cube_FW_N6/Drivers/STM32N6xx_HAL_Driver/Src/stm32n6xx_ll_usb.c ****   */
  47:STM32Cube_FW_N6/Drivers/STM32N6xx_HAL_Driver/Src/stm32n6xx_ll_usb.c **** 
  48:STM32Cube_FW_N6/Drivers/STM32N6xx_HAL_Driver/Src/stm32n6xx_ll_usb.c **** #if defined (HAL_PCD_MODULE_ENABLED) || defined (HAL_HCD_MODULE_ENABLED)
  49:STM32Cube_FW_N6/Drivers/STM32N6xx_HAL_Driver/Src/stm32n6xx_ll_usb.c **** #if defined (USB1_OTG_HS) || defined (USB2_OTG_HS)
  50:STM32Cube_FW_N6/Drivers/STM32N6xx_HAL_Driver/Src/stm32n6xx_ll_usb.c **** /* Private typedef -----------------------------------------------------------*/
  51:STM32Cube_FW_N6/Drivers/STM32N6xx_HAL_Driver/Src/stm32n6xx_ll_usb.c **** /* Private define ------------------------------------------------------------*/
  52:STM32Cube_FW_N6/Drivers/STM32N6xx_HAL_Driver/Src/stm32n6xx_ll_usb.c **** /* Private macro -------------------------------------------------------------*/
  53:STM32Cube_FW_N6/Drivers/STM32N6xx_HAL_Driver/Src/stm32n6xx_ll_usb.c **** /* Private variables ---------------------------------------------------------*/
  54:STM32Cube_FW_N6/Drivers/STM32N6xx_HAL_Driver/Src/stm32n6xx_ll_usb.c **** /* Private function prototypes -----------------------------------------------*/
  55:STM32Cube_FW_N6/Drivers/STM32N6xx_HAL_Driver/Src/stm32n6xx_ll_usb.c **** /* Private functions ---------------------------------------------------------*/
  56:STM32Cube_FW_N6/Drivers/STM32N6xx_HAL_Driver/Src/stm32n6xx_ll_usb.c **** #if defined (USB1_OTG_HS) || defined (USB2_OTG_HS)
  57:STM32Cube_FW_N6/Drivers/STM32N6xx_HAL_Driver/Src/stm32n6xx_ll_usb.c **** static HAL_StatusTypeDef USB_CoreReset(USB_OTG_GlobalTypeDef *USBx);
  58:STM32Cube_FW_N6/Drivers/STM32N6xx_HAL_Driver/Src/stm32n6xx_ll_usb.c **** 
  59:STM32Cube_FW_N6/Drivers/STM32N6xx_HAL_Driver/Src/stm32n6xx_ll_usb.c **** /* Exported functions --------------------------------------------------------*/
  60:STM32Cube_FW_N6/Drivers/STM32N6xx_HAL_Driver/Src/stm32n6xx_ll_usb.c **** /** @defgroup USB_LL_Exported_Functions USB Low Layer Exported Functions
  61:STM32Cube_FW_N6/Drivers/STM32N6xx_HAL_Driver/Src/stm32n6xx_ll_usb.c ****   * @{
  62:STM32Cube_FW_N6/Drivers/STM32N6xx_HAL_Driver/Src/stm32n6xx_ll_usb.c ****   */
  63:STM32Cube_FW_N6/Drivers/STM32N6xx_HAL_Driver/Src/stm32n6xx_ll_usb.c **** 
  64:STM32Cube_FW_N6/Drivers/STM32N6xx_HAL_Driver/Src/stm32n6xx_ll_usb.c **** /** @defgroup USB_LL_Exported_Functions_Group1 Initialization/de-initialization functions
  65:STM32Cube_FW_N6/Drivers/STM32N6xx_HAL_Driver/Src/stm32n6xx_ll_usb.c ****   *  @brief    Initialization and Configuration functions
  66:STM32Cube_FW_N6/Drivers/STM32N6xx_HAL_Driver/Src/stm32n6xx_ll_usb.c ****   *
  67:STM32Cube_FW_N6/Drivers/STM32N6xx_HAL_Driver/Src/stm32n6xx_ll_usb.c **** @verbatim
  68:STM32Cube_FW_N6/Drivers/STM32N6xx_HAL_Driver/Src/stm32n6xx_ll_usb.c ****  ===============================================================================
  69:STM32Cube_FW_N6/Drivers/STM32N6xx_HAL_Driver/Src/stm32n6xx_ll_usb.c ****                       ##### Initialization/de-initialization functions #####
  70:STM32Cube_FW_N6/Drivers/STM32N6xx_HAL_Driver/Src/stm32n6xx_ll_usb.c ****  ===============================================================================
  71:STM32Cube_FW_N6/Drivers/STM32N6xx_HAL_Driver/Src/stm32n6xx_ll_usb.c **** 
  72:STM32Cube_FW_N6/Drivers/STM32N6xx_HAL_Driver/Src/stm32n6xx_ll_usb.c **** @endverbatim
  73:STM32Cube_FW_N6/Drivers/STM32N6xx_HAL_Driver/Src/stm32n6xx_ll_usb.c ****   * @{
  74:STM32Cube_FW_N6/Drivers/STM32N6xx_HAL_Driver/Src/stm32n6xx_ll_usb.c ****   */
  75:STM32Cube_FW_N6/Drivers/STM32N6xx_HAL_Driver/Src/stm32n6xx_ll_usb.c **** 
  76:STM32Cube_FW_N6/Drivers/STM32N6xx_HAL_Driver/Src/stm32n6xx_ll_usb.c **** /**
  77:STM32Cube_FW_N6/Drivers/STM32N6xx_HAL_Driver/Src/stm32n6xx_ll_usb.c ****   * @brief  Initializes the USB Core
  78:STM32Cube_FW_N6/Drivers/STM32N6xx_HAL_Driver/Src/stm32n6xx_ll_usb.c ****   * @param  USBx USB Instance
  79:STM32Cube_FW_N6/Drivers/STM32N6xx_HAL_Driver/Src/stm32n6xx_ll_usb.c ****   * @param  cfg pointer to a USB_OTG_CfgTypeDef structure that contains
  80:STM32Cube_FW_N6/Drivers/STM32N6xx_HAL_Driver/Src/stm32n6xx_ll_usb.c ****   *         the configuration information for the specified USBx peripheral.
  81:STM32Cube_FW_N6/Drivers/STM32N6xx_HAL_Driver/Src/stm32n6xx_ll_usb.c ****   * @retval HAL status
  82:STM32Cube_FW_N6/Drivers/STM32N6xx_HAL_Driver/Src/stm32n6xx_ll_usb.c ****   */
ARM GAS  /tmp/ccxt1UfV.s 			page 3


  83:STM32Cube_FW_N6/Drivers/STM32N6xx_HAL_Driver/Src/stm32n6xx_ll_usb.c **** HAL_StatusTypeDef USB_CoreInit(USB_OTG_GlobalTypeDef *USBx, USB_OTG_CfgTypeDef cfg)
  84:STM32Cube_FW_N6/Drivers/STM32N6xx_HAL_Driver/Src/stm32n6xx_ll_usb.c **** {
  34              		.loc 1 84 1
  35              		.cfi_startproc
  36              		@ args = 20, pretend = 16, frame = 16
  37              		@ frame_needed = 1, uses_anonymous_args = 0
  38 0000 84B0     		sub	sp, sp, #16
  39              		.cfi_def_cfa_offset 16
  40 0002 80B5     		push	{r7, lr}
  41              		.cfi_def_cfa_offset 24
  42              		.cfi_offset 7, -24
  43              		.cfi_offset 14, -20
  44 0004 84B0     		sub	sp, sp, #16
  45              		.cfi_def_cfa_offset 40
  46 0006 00AF     		add	r7, sp, #0
  47              		.cfi_def_cfa_register 7
  48 0008 7860     		str	r0, [r7, #4]
  49 000a 07F11C00 		add	r0, r7, #28
  50 000e 80E80E00 		stm	r0, {r1, r2, r3}
  85:STM32Cube_FW_N6/Drivers/STM32N6xx_HAL_Driver/Src/stm32n6xx_ll_usb.c ****   HAL_StatusTypeDef ret;
  86:STM32Cube_FW_N6/Drivers/STM32N6xx_HAL_Driver/Src/stm32n6xx_ll_usb.c **** 
  87:STM32Cube_FW_N6/Drivers/STM32N6xx_HAL_Driver/Src/stm32n6xx_ll_usb.c ****   if (cfg.phy_itface == USB_OTG_HS_EMBEDDED_PHY)
  51              		.loc 1 87 10
  52 0012 97F82130 		ldrb	r3, [r7, #33]	@ zero_extendqisi2
  53              		.loc 1 87 6
  54 0016 032B     		cmp	r3, #3
  55 0018 0ED1     		bne	.L2
  88:STM32Cube_FW_N6/Drivers/STM32N6xx_HAL_Driver/Src/stm32n6xx_ll_usb.c ****   {
  89:STM32Cube_FW_N6/Drivers/STM32N6xx_HAL_Driver/Src/stm32n6xx_ll_usb.c ****     /* Select Data line pulsing using utmi_txvalid */
  90:STM32Cube_FW_N6/Drivers/STM32N6xx_HAL_Driver/Src/stm32n6xx_ll_usb.c ****     USBx->GUSBCFG &= ~(USB_OTG_GUSBCFG_TSDPS);
  56              		.loc 1 90 9
  57 001a 7B68     		ldr	r3, [r7, #4]
  58 001c DB68     		ldr	r3, [r3, #12]
  59              		.loc 1 90 19
  60 001e 23F48002 		bic	r2, r3, #4194304
  61 0022 7B68     		ldr	r3, [r7, #4]
  62 0024 DA60     		str	r2, [r3, #12]
  91:STM32Cube_FW_N6/Drivers/STM32N6xx_HAL_Driver/Src/stm32n6xx_ll_usb.c **** 
  92:STM32Cube_FW_N6/Drivers/STM32N6xx_HAL_Driver/Src/stm32n6xx_ll_usb.c **** 
  93:STM32Cube_FW_N6/Drivers/STM32N6xx_HAL_Driver/Src/stm32n6xx_ll_usb.c ****     /* Reset after a PHY select */
  94:STM32Cube_FW_N6/Drivers/STM32N6xx_HAL_Driver/Src/stm32n6xx_ll_usb.c ****     ret = USB_CoreReset(USBx);
  63              		.loc 1 94 11
  64 0026 7868     		ldr	r0, [r7, #4]
  65 0028 FFF7FEFF 		bl	USB_CoreReset
  66 002c 0346     		mov	r3, r0
  67 002e FB73     		strb	r3, [r7, #15]
  95:STM32Cube_FW_N6/Drivers/STM32N6xx_HAL_Driver/Src/stm32n6xx_ll_usb.c ****   }
  96:STM32Cube_FW_N6/Drivers/STM32N6xx_HAL_Driver/Src/stm32n6xx_ll_usb.c ****   else
  97:STM32Cube_FW_N6/Drivers/STM32N6xx_HAL_Driver/Src/stm32n6xx_ll_usb.c ****   {
  98:STM32Cube_FW_N6/Drivers/STM32N6xx_HAL_Driver/Src/stm32n6xx_ll_usb.c ****     return HAL_ERROR;
  99:STM32Cube_FW_N6/Drivers/STM32N6xx_HAL_Driver/Src/stm32n6xx_ll_usb.c ****   }
 100:STM32Cube_FW_N6/Drivers/STM32N6xx_HAL_Driver/Src/stm32n6xx_ll_usb.c **** 
 101:STM32Cube_FW_N6/Drivers/STM32N6xx_HAL_Driver/Src/stm32n6xx_ll_usb.c ****   if (cfg.dma_enable == 1U)
  68              		.loc 1 101 10
  69 0030 BB7F     		ldrb	r3, [r7, #30]	@ zero_extendqisi2
  70              		.loc 1 101 6
  71 0032 012B     		cmp	r3, #1
ARM GAS  /tmp/ccxt1UfV.s 			page 4


  72 0034 0ED1     		bne	.L5
  73 0036 01E0     		b	.L6
  74              	.L2:
  98:STM32Cube_FW_N6/Drivers/STM32N6xx_HAL_Driver/Src/stm32n6xx_ll_usb.c ****   }
  75              		.loc 1 98 12
  76 0038 0123     		movs	r3, #1
  77 003a 0CE0     		b	.L4
  78              	.L6:
 102:STM32Cube_FW_N6/Drivers/STM32N6xx_HAL_Driver/Src/stm32n6xx_ll_usb.c ****   {
 103:STM32Cube_FW_N6/Drivers/STM32N6xx_HAL_Driver/Src/stm32n6xx_ll_usb.c ****     USBx->GAHBCFG |= USB_OTG_GAHBCFG_HBSTLEN_2;
  79              		.loc 1 103 9
  80 003c 7B68     		ldr	r3, [r7, #4]
  81 003e 9B68     		ldr	r3, [r3, #8]
  82              		.loc 1 103 19
  83 0040 43F00602 		orr	r2, r3, #6
  84 0044 7B68     		ldr	r3, [r7, #4]
  85 0046 9A60     		str	r2, [r3, #8]
 104:STM32Cube_FW_N6/Drivers/STM32N6xx_HAL_Driver/Src/stm32n6xx_ll_usb.c ****     USBx->GAHBCFG |= USB_OTG_GAHBCFG_DMAEN;
  86              		.loc 1 104 9
  87 0048 7B68     		ldr	r3, [r7, #4]
  88 004a 9B68     		ldr	r3, [r3, #8]
  89              		.loc 1 104 19
  90 004c 43F02002 		orr	r2, r3, #32
  91 0050 7B68     		ldr	r3, [r7, #4]
  92 0052 9A60     		str	r2, [r3, #8]
  93              	.L5:
 105:STM32Cube_FW_N6/Drivers/STM32N6xx_HAL_Driver/Src/stm32n6xx_ll_usb.c ****   }
 106:STM32Cube_FW_N6/Drivers/STM32N6xx_HAL_Driver/Src/stm32n6xx_ll_usb.c **** 
 107:STM32Cube_FW_N6/Drivers/STM32N6xx_HAL_Driver/Src/stm32n6xx_ll_usb.c ****   return ret;
  94              		.loc 1 107 10
  95 0054 FB7B     		ldrb	r3, [r7, #15]	@ zero_extendqisi2
  96              	.L4:
 108:STM32Cube_FW_N6/Drivers/STM32N6xx_HAL_Driver/Src/stm32n6xx_ll_usb.c **** }
  97              		.loc 1 108 1
  98 0056 1846     		mov	r0, r3
  99 0058 1037     		adds	r7, r7, #16
 100              		.cfi_def_cfa_offset 24
 101 005a BD46     		mov	sp, r7
 102              		.cfi_def_cfa_register 13
 103              		@ sp needed
 104 005c BDE88040 		pop	{r7, lr}
 105              		.cfi_restore 14
 106              		.cfi_restore 7
 107              		.cfi_def_cfa_offset 16
 108 0060 04B0     		add	sp, sp, #16
 109              		.cfi_def_cfa_offset 0
 110 0062 7047     		bx	lr
 111              		.cfi_endproc
 112              	.LFE835:
 114              		.section	.text.USB_SetTurnaroundTime,"ax",%progbits
 115              		.align	1
 116              		.global	USB_SetTurnaroundTime
 117              		.syntax unified
 118              		.thumb
 119              		.thumb_func
 121              	USB_SetTurnaroundTime:
 122              	.LFB836:
ARM GAS  /tmp/ccxt1UfV.s 			page 5


 109:STM32Cube_FW_N6/Drivers/STM32N6xx_HAL_Driver/Src/stm32n6xx_ll_usb.c **** 
 110:STM32Cube_FW_N6/Drivers/STM32N6xx_HAL_Driver/Src/stm32n6xx_ll_usb.c **** 
 111:STM32Cube_FW_N6/Drivers/STM32N6xx_HAL_Driver/Src/stm32n6xx_ll_usb.c **** /**
 112:STM32Cube_FW_N6/Drivers/STM32N6xx_HAL_Driver/Src/stm32n6xx_ll_usb.c ****   * @brief  Set the USB turnaround time
 113:STM32Cube_FW_N6/Drivers/STM32N6xx_HAL_Driver/Src/stm32n6xx_ll_usb.c ****   * @param  USBx USB Instance
 114:STM32Cube_FW_N6/Drivers/STM32N6xx_HAL_Driver/Src/stm32n6xx_ll_usb.c ****   * @param  hclk: AHB clock frequency
 115:STM32Cube_FW_N6/Drivers/STM32N6xx_HAL_Driver/Src/stm32n6xx_ll_usb.c ****   * @retval USB turnaround time In PHY Clocks number
 116:STM32Cube_FW_N6/Drivers/STM32N6xx_HAL_Driver/Src/stm32n6xx_ll_usb.c ****   */
 117:STM32Cube_FW_N6/Drivers/STM32N6xx_HAL_Driver/Src/stm32n6xx_ll_usb.c **** HAL_StatusTypeDef USB_SetTurnaroundTime(USB_OTG_GlobalTypeDef *USBx,
 118:STM32Cube_FW_N6/Drivers/STM32N6xx_HAL_Driver/Src/stm32n6xx_ll_usb.c ****                                         uint32_t hclk, uint8_t speed)
 119:STM32Cube_FW_N6/Drivers/STM32N6xx_HAL_Driver/Src/stm32n6xx_ll_usb.c **** {
 123              		.loc 1 119 1
 124              		.cfi_startproc
 125              		@ args = 0, pretend = 0, frame = 24
 126              		@ frame_needed = 1, uses_anonymous_args = 0
 127              		@ link register save eliminated.
 128 0000 80B4     		push	{r7}
 129              		.cfi_def_cfa_offset 4
 130              		.cfi_offset 7, -4
 131 0002 87B0     		sub	sp, sp, #28
 132              		.cfi_def_cfa_offset 32
 133 0004 00AF     		add	r7, sp, #0
 134              		.cfi_def_cfa_register 7
 135 0006 F860     		str	r0, [r7, #12]
 136 0008 B960     		str	r1, [r7, #8]
 137 000a 1346     		mov	r3, r2
 138 000c FB71     		strb	r3, [r7, #7]
 120:STM32Cube_FW_N6/Drivers/STM32N6xx_HAL_Driver/Src/stm32n6xx_ll_usb.c ****   uint32_t UsbTrd;
 121:STM32Cube_FW_N6/Drivers/STM32N6xx_HAL_Driver/Src/stm32n6xx_ll_usb.c **** 
 122:STM32Cube_FW_N6/Drivers/STM32N6xx_HAL_Driver/Src/stm32n6xx_ll_usb.c ****   /* The USBTRD is configured according to the tables below, depending on AHB frequency
 123:STM32Cube_FW_N6/Drivers/STM32N6xx_HAL_Driver/Src/stm32n6xx_ll_usb.c ****   used by application. In the low AHB frequency range it is used to stretch enough the USB response
 124:STM32Cube_FW_N6/Drivers/STM32N6xx_HAL_Driver/Src/stm32n6xx_ll_usb.c ****   time to IN tokens, the USB turnaround time, so to compensate for the longer AHB read access
 125:STM32Cube_FW_N6/Drivers/STM32N6xx_HAL_Driver/Src/stm32n6xx_ll_usb.c ****   latency to the Data FIFO */
 126:STM32Cube_FW_N6/Drivers/STM32N6xx_HAL_Driver/Src/stm32n6xx_ll_usb.c ****   if (speed == USBD_FS_SPEED)
 139              		.loc 1 126 6
 140 000e FB79     		ldrb	r3, [r7, #7]	@ zero_extendqisi2
 141 0010 022B     		cmp	r3, #2
 142 0012 65D1     		bne	.L8
 127:STM32Cube_FW_N6/Drivers/STM32N6xx_HAL_Driver/Src/stm32n6xx_ll_usb.c ****   {
 128:STM32Cube_FW_N6/Drivers/STM32N6xx_HAL_Driver/Src/stm32n6xx_ll_usb.c ****     if ((hclk >= 14200000U) && (hclk < 15000000U))
 143              		.loc 1 128 8
 144 0014 BB68     		ldr	r3, [r7, #8]
 145 0016 414A     		ldr	r2, .L22
 146 0018 9342     		cmp	r3, r2
 147 001a 06D9     		bls	.L9
 148              		.loc 1 128 29 discriminator 1
 149 001c BB68     		ldr	r3, [r7, #8]
 150 001e 404A     		ldr	r2, .L22+4
 151 0020 9342     		cmp	r3, r2
 152 0022 02D2     		bcs	.L9
 129:STM32Cube_FW_N6/Drivers/STM32N6xx_HAL_Driver/Src/stm32n6xx_ll_usb.c ****     {
 130:STM32Cube_FW_N6/Drivers/STM32N6xx_HAL_Driver/Src/stm32n6xx_ll_usb.c ****       /* hclk Clock Range between 14.2-15 MHz */
 131:STM32Cube_FW_N6/Drivers/STM32N6xx_HAL_Driver/Src/stm32n6xx_ll_usb.c ****       UsbTrd = 0xFU;
 153              		.loc 1 131 14
 154 0024 0F23     		movs	r3, #15
 155 0026 7B61     		str	r3, [r7, #20]
 156 0028 62E0     		b	.L19
ARM GAS  /tmp/ccxt1UfV.s 			page 6


 157              	.L9:
 132:STM32Cube_FW_N6/Drivers/STM32N6xx_HAL_Driver/Src/stm32n6xx_ll_usb.c ****     }
 133:STM32Cube_FW_N6/Drivers/STM32N6xx_HAL_Driver/Src/stm32n6xx_ll_usb.c ****     else if ((hclk >= 15000000U) && (hclk < 16000000U))
 158              		.loc 1 133 13
 159 002a BB68     		ldr	r3, [r7, #8]
 160 002c 3C4A     		ldr	r2, .L22+4
 161 002e 9342     		cmp	r3, r2
 162 0030 06D3     		bcc	.L11
 163              		.loc 1 133 34 discriminator 1
 164 0032 BB68     		ldr	r3, [r7, #8]
 165 0034 3B4A     		ldr	r2, .L22+8
 166 0036 9342     		cmp	r3, r2
 167 0038 02D2     		bcs	.L11
 134:STM32Cube_FW_N6/Drivers/STM32N6xx_HAL_Driver/Src/stm32n6xx_ll_usb.c ****     {
 135:STM32Cube_FW_N6/Drivers/STM32N6xx_HAL_Driver/Src/stm32n6xx_ll_usb.c ****       /* hclk Clock Range between 15-16 MHz */
 136:STM32Cube_FW_N6/Drivers/STM32N6xx_HAL_Driver/Src/stm32n6xx_ll_usb.c ****       UsbTrd = 0xEU;
 168              		.loc 1 136 14
 169 003a 0E23     		movs	r3, #14
 170 003c 7B61     		str	r3, [r7, #20]
 171 003e 57E0     		b	.L19
 172              	.L11:
 137:STM32Cube_FW_N6/Drivers/STM32N6xx_HAL_Driver/Src/stm32n6xx_ll_usb.c ****     }
 138:STM32Cube_FW_N6/Drivers/STM32N6xx_HAL_Driver/Src/stm32n6xx_ll_usb.c ****     else if ((hclk >= 16000000U) && (hclk < 17200000U))
 173              		.loc 1 138 13
 174 0040 BB68     		ldr	r3, [r7, #8]
 175 0042 384A     		ldr	r2, .L22+8
 176 0044 9342     		cmp	r3, r2
 177 0046 06D3     		bcc	.L12
 178              		.loc 1 138 34 discriminator 1
 179 0048 BB68     		ldr	r3, [r7, #8]
 180 004a 374A     		ldr	r2, .L22+12
 181 004c 9342     		cmp	r3, r2
 182 004e 02D2     		bcs	.L12
 139:STM32Cube_FW_N6/Drivers/STM32N6xx_HAL_Driver/Src/stm32n6xx_ll_usb.c ****     {
 140:STM32Cube_FW_N6/Drivers/STM32N6xx_HAL_Driver/Src/stm32n6xx_ll_usb.c ****       /* hclk Clock Range between 16-17.2 MHz */
 141:STM32Cube_FW_N6/Drivers/STM32N6xx_HAL_Driver/Src/stm32n6xx_ll_usb.c ****       UsbTrd = 0xDU;
 183              		.loc 1 141 14
 184 0050 0D23     		movs	r3, #13
 185 0052 7B61     		str	r3, [r7, #20]
 186 0054 4CE0     		b	.L19
 187              	.L12:
 142:STM32Cube_FW_N6/Drivers/STM32N6xx_HAL_Driver/Src/stm32n6xx_ll_usb.c ****     }
 143:STM32Cube_FW_N6/Drivers/STM32N6xx_HAL_Driver/Src/stm32n6xx_ll_usb.c ****     else if ((hclk >= 17200000U) && (hclk < 18500000U))
 188              		.loc 1 143 13
 189 0056 BB68     		ldr	r3, [r7, #8]
 190 0058 334A     		ldr	r2, .L22+12
 191 005a 9342     		cmp	r3, r2
 192 005c 06D3     		bcc	.L13
 193              		.loc 1 143 34 discriminator 1
 194 005e BB68     		ldr	r3, [r7, #8]
 195 0060 324A     		ldr	r2, .L22+16
 196 0062 9342     		cmp	r3, r2
 197 0064 02D8     		bhi	.L13
 144:STM32Cube_FW_N6/Drivers/STM32N6xx_HAL_Driver/Src/stm32n6xx_ll_usb.c ****     {
 145:STM32Cube_FW_N6/Drivers/STM32N6xx_HAL_Driver/Src/stm32n6xx_ll_usb.c ****       /* hclk Clock Range between 17.2-18.5 MHz */
 146:STM32Cube_FW_N6/Drivers/STM32N6xx_HAL_Driver/Src/stm32n6xx_ll_usb.c ****       UsbTrd = 0xCU;
 198              		.loc 1 146 14
ARM GAS  /tmp/ccxt1UfV.s 			page 7


 199 0066 0C23     		movs	r3, #12
 200 0068 7B61     		str	r3, [r7, #20]
 201 006a 41E0     		b	.L19
 202              	.L13:
 147:STM32Cube_FW_N6/Drivers/STM32N6xx_HAL_Driver/Src/stm32n6xx_ll_usb.c ****     }
 148:STM32Cube_FW_N6/Drivers/STM32N6xx_HAL_Driver/Src/stm32n6xx_ll_usb.c ****     else if ((hclk >= 18500000U) && (hclk < 20000000U))
 203              		.loc 1 148 13
 204 006c BB68     		ldr	r3, [r7, #8]
 205 006e 2F4A     		ldr	r2, .L22+16
 206 0070 9342     		cmp	r3, r2
 207 0072 06D9     		bls	.L14
 208              		.loc 1 148 34 discriminator 1
 209 0074 BB68     		ldr	r3, [r7, #8]
 210 0076 2E4A     		ldr	r2, .L22+20
 211 0078 9342     		cmp	r3, r2
 212 007a 02D8     		bhi	.L14
 149:STM32Cube_FW_N6/Drivers/STM32N6xx_HAL_Driver/Src/stm32n6xx_ll_usb.c ****     {
 150:STM32Cube_FW_N6/Drivers/STM32N6xx_HAL_Driver/Src/stm32n6xx_ll_usb.c ****       /* hclk Clock Range between 18.5-20 MHz */
 151:STM32Cube_FW_N6/Drivers/STM32N6xx_HAL_Driver/Src/stm32n6xx_ll_usb.c ****       UsbTrd = 0xBU;
 213              		.loc 1 151 14
 214 007c 0B23     		movs	r3, #11
 215 007e 7B61     		str	r3, [r7, #20]
 216 0080 36E0     		b	.L19
 217              	.L14:
 152:STM32Cube_FW_N6/Drivers/STM32N6xx_HAL_Driver/Src/stm32n6xx_ll_usb.c ****     }
 153:STM32Cube_FW_N6/Drivers/STM32N6xx_HAL_Driver/Src/stm32n6xx_ll_usb.c ****     else if ((hclk >= 20000000U) && (hclk < 21800000U))
 218              		.loc 1 153 13
 219 0082 BB68     		ldr	r3, [r7, #8]
 220 0084 2A4A     		ldr	r2, .L22+20
 221 0086 9342     		cmp	r3, r2
 222 0088 06D9     		bls	.L15
 223              		.loc 1 153 34 discriminator 1
 224 008a BB68     		ldr	r3, [r7, #8]
 225 008c 294A     		ldr	r2, .L22+24
 226 008e 9342     		cmp	r3, r2
 227 0090 02D8     		bhi	.L15
 154:STM32Cube_FW_N6/Drivers/STM32N6xx_HAL_Driver/Src/stm32n6xx_ll_usb.c ****     {
 155:STM32Cube_FW_N6/Drivers/STM32N6xx_HAL_Driver/Src/stm32n6xx_ll_usb.c ****       /* hclk Clock Range between 20-21.8 MHz */
 156:STM32Cube_FW_N6/Drivers/STM32N6xx_HAL_Driver/Src/stm32n6xx_ll_usb.c ****       UsbTrd = 0xAU;
 228              		.loc 1 156 14
 229 0092 0A23     		movs	r3, #10
 230 0094 7B61     		str	r3, [r7, #20]
 231 0096 2BE0     		b	.L19
 232              	.L15:
 157:STM32Cube_FW_N6/Drivers/STM32N6xx_HAL_Driver/Src/stm32n6xx_ll_usb.c ****     }
 158:STM32Cube_FW_N6/Drivers/STM32N6xx_HAL_Driver/Src/stm32n6xx_ll_usb.c ****     else if ((hclk >= 21800000U) && (hclk < 24000000U))
 233              		.loc 1 158 13
 234 0098 BB68     		ldr	r3, [r7, #8]
 235 009a 264A     		ldr	r2, .L22+24
 236 009c 9342     		cmp	r3, r2
 237 009e 06D9     		bls	.L16
 238              		.loc 1 158 34 discriminator 1
 239 00a0 BB68     		ldr	r3, [r7, #8]
 240 00a2 254A     		ldr	r2, .L22+28
 241 00a4 9342     		cmp	r3, r2
 242 00a6 02D2     		bcs	.L16
 159:STM32Cube_FW_N6/Drivers/STM32N6xx_HAL_Driver/Src/stm32n6xx_ll_usb.c ****     {
ARM GAS  /tmp/ccxt1UfV.s 			page 8


 160:STM32Cube_FW_N6/Drivers/STM32N6xx_HAL_Driver/Src/stm32n6xx_ll_usb.c ****       /* hclk Clock Range between 21.8-24 MHz */
 161:STM32Cube_FW_N6/Drivers/STM32N6xx_HAL_Driver/Src/stm32n6xx_ll_usb.c ****       UsbTrd = 0x9U;
 243              		.loc 1 161 14
 244 00a8 0923     		movs	r3, #9
 245 00aa 7B61     		str	r3, [r7, #20]
 246 00ac 20E0     		b	.L19
 247              	.L16:
 162:STM32Cube_FW_N6/Drivers/STM32N6xx_HAL_Driver/Src/stm32n6xx_ll_usb.c ****     }
 163:STM32Cube_FW_N6/Drivers/STM32N6xx_HAL_Driver/Src/stm32n6xx_ll_usb.c ****     else if ((hclk >= 24000000U) && (hclk < 27700000U))
 248              		.loc 1 163 13
 249 00ae BB68     		ldr	r3, [r7, #8]
 250 00b0 214A     		ldr	r2, .L22+28
 251 00b2 9342     		cmp	r3, r2
 252 00b4 06D3     		bcc	.L17
 253              		.loc 1 163 34 discriminator 1
 254 00b6 BB68     		ldr	r3, [r7, #8]
 255 00b8 204A     		ldr	r2, .L22+32
 256 00ba 9342     		cmp	r3, r2
 257 00bc 02D8     		bhi	.L17
 164:STM32Cube_FW_N6/Drivers/STM32N6xx_HAL_Driver/Src/stm32n6xx_ll_usb.c ****     {
 165:STM32Cube_FW_N6/Drivers/STM32N6xx_HAL_Driver/Src/stm32n6xx_ll_usb.c ****       /* hclk Clock Range between 24-27.7 MHz */
 166:STM32Cube_FW_N6/Drivers/STM32N6xx_HAL_Driver/Src/stm32n6xx_ll_usb.c ****       UsbTrd = 0x8U;
 258              		.loc 1 166 14
 259 00be 0823     		movs	r3, #8
 260 00c0 7B61     		str	r3, [r7, #20]
 261 00c2 15E0     		b	.L19
 262              	.L17:
 167:STM32Cube_FW_N6/Drivers/STM32N6xx_HAL_Driver/Src/stm32n6xx_ll_usb.c ****     }
 168:STM32Cube_FW_N6/Drivers/STM32N6xx_HAL_Driver/Src/stm32n6xx_ll_usb.c ****     else if ((hclk >= 27700000U) && (hclk < 32000000U))
 263              		.loc 1 168 13
 264 00c4 BB68     		ldr	r3, [r7, #8]
 265 00c6 1D4A     		ldr	r2, .L22+32
 266 00c8 9342     		cmp	r3, r2
 267 00ca 06D9     		bls	.L18
 268              		.loc 1 168 34 discriminator 1
 269 00cc BB68     		ldr	r3, [r7, #8]
 270 00ce 1C4A     		ldr	r2, .L22+36
 271 00d0 9342     		cmp	r3, r2
 272 00d2 02D2     		bcs	.L18
 169:STM32Cube_FW_N6/Drivers/STM32N6xx_HAL_Driver/Src/stm32n6xx_ll_usb.c ****     {
 170:STM32Cube_FW_N6/Drivers/STM32N6xx_HAL_Driver/Src/stm32n6xx_ll_usb.c ****       /* hclk Clock Range between 27.7-32 MHz */
 171:STM32Cube_FW_N6/Drivers/STM32N6xx_HAL_Driver/Src/stm32n6xx_ll_usb.c ****       UsbTrd = 0x7U;
 273              		.loc 1 171 14
 274 00d4 0723     		movs	r3, #7
 275 00d6 7B61     		str	r3, [r7, #20]
 276 00d8 0AE0     		b	.L19
 277              	.L18:
 172:STM32Cube_FW_N6/Drivers/STM32N6xx_HAL_Driver/Src/stm32n6xx_ll_usb.c ****     }
 173:STM32Cube_FW_N6/Drivers/STM32N6xx_HAL_Driver/Src/stm32n6xx_ll_usb.c ****     else /* if(hclk >= 32000000) */
 174:STM32Cube_FW_N6/Drivers/STM32N6xx_HAL_Driver/Src/stm32n6xx_ll_usb.c ****     {
 175:STM32Cube_FW_N6/Drivers/STM32N6xx_HAL_Driver/Src/stm32n6xx_ll_usb.c ****       /* hclk Clock Range between 32-200 MHz */
 176:STM32Cube_FW_N6/Drivers/STM32N6xx_HAL_Driver/Src/stm32n6xx_ll_usb.c ****       UsbTrd = 0x6U;
 278              		.loc 1 176 14
 279 00da 0623     		movs	r3, #6
 280 00dc 7B61     		str	r3, [r7, #20]
 281 00de 07E0     		b	.L19
 282              	.L8:
ARM GAS  /tmp/ccxt1UfV.s 			page 9


 177:STM32Cube_FW_N6/Drivers/STM32N6xx_HAL_Driver/Src/stm32n6xx_ll_usb.c ****     }
 178:STM32Cube_FW_N6/Drivers/STM32N6xx_HAL_Driver/Src/stm32n6xx_ll_usb.c ****   }
 179:STM32Cube_FW_N6/Drivers/STM32N6xx_HAL_Driver/Src/stm32n6xx_ll_usb.c ****   else if (speed == USBD_HS_SPEED)
 283              		.loc 1 179 11
 284 00e0 FB79     		ldrb	r3, [r7, #7]	@ zero_extendqisi2
 285 00e2 002B     		cmp	r3, #0
 286 00e4 02D1     		bne	.L20
 180:STM32Cube_FW_N6/Drivers/STM32N6xx_HAL_Driver/Src/stm32n6xx_ll_usb.c ****   {
 181:STM32Cube_FW_N6/Drivers/STM32N6xx_HAL_Driver/Src/stm32n6xx_ll_usb.c ****     UsbTrd = USBD_HS_TRDT_VALUE;
 287              		.loc 1 181 12
 288 00e6 0923     		movs	r3, #9
 289 00e8 7B61     		str	r3, [r7, #20]
 290 00ea 01E0     		b	.L19
 291              	.L20:
 182:STM32Cube_FW_N6/Drivers/STM32N6xx_HAL_Driver/Src/stm32n6xx_ll_usb.c ****   }
 183:STM32Cube_FW_N6/Drivers/STM32N6xx_HAL_Driver/Src/stm32n6xx_ll_usb.c ****   else
 184:STM32Cube_FW_N6/Drivers/STM32N6xx_HAL_Driver/Src/stm32n6xx_ll_usb.c ****   {
 185:STM32Cube_FW_N6/Drivers/STM32N6xx_HAL_Driver/Src/stm32n6xx_ll_usb.c ****     UsbTrd = USBD_DEFAULT_TRDT_VALUE;
 292              		.loc 1 185 12
 293 00ec 0923     		movs	r3, #9
 294 00ee 7B61     		str	r3, [r7, #20]
 295              	.L19:
 186:STM32Cube_FW_N6/Drivers/STM32N6xx_HAL_Driver/Src/stm32n6xx_ll_usb.c ****   }
 187:STM32Cube_FW_N6/Drivers/STM32N6xx_HAL_Driver/Src/stm32n6xx_ll_usb.c **** 
 188:STM32Cube_FW_N6/Drivers/STM32N6xx_HAL_Driver/Src/stm32n6xx_ll_usb.c ****   USBx->GUSBCFG &= ~USB_OTG_GUSBCFG_TRDT;
 296              		.loc 1 188 7
 297 00f0 FB68     		ldr	r3, [r7, #12]
 298 00f2 DB68     		ldr	r3, [r3, #12]
 299              		.loc 1 188 17
 300 00f4 23F47052 		bic	r2, r3, #15360
 301 00f8 FB68     		ldr	r3, [r7, #12]
 302 00fa DA60     		str	r2, [r3, #12]
 189:STM32Cube_FW_N6/Drivers/STM32N6xx_HAL_Driver/Src/stm32n6xx_ll_usb.c ****   USBx->GUSBCFG |= (uint32_t)((UsbTrd << 10) & USB_OTG_GUSBCFG_TRDT);
 303              		.loc 1 189 7
 304 00fc FB68     		ldr	r3, [r7, #12]
 305 00fe DA68     		ldr	r2, [r3, #12]
 306              		.loc 1 189 39
 307 0100 7B69     		ldr	r3, [r7, #20]
 308 0102 9B02     		lsls	r3, r3, #10
 309              		.loc 1 189 20
 310 0104 03F47053 		and	r3, r3, #15360
 311              		.loc 1 189 17
 312 0108 1A43     		orrs	r2, r2, r3
 313 010a FB68     		ldr	r3, [r7, #12]
 314 010c DA60     		str	r2, [r3, #12]
 190:STM32Cube_FW_N6/Drivers/STM32N6xx_HAL_Driver/Src/stm32n6xx_ll_usb.c **** 
 191:STM32Cube_FW_N6/Drivers/STM32N6xx_HAL_Driver/Src/stm32n6xx_ll_usb.c ****   return HAL_OK;
 315              		.loc 1 191 10
 316 010e 0023     		movs	r3, #0
 192:STM32Cube_FW_N6/Drivers/STM32N6xx_HAL_Driver/Src/stm32n6xx_ll_usb.c **** }
 317              		.loc 1 192 1
 318 0110 1846     		mov	r0, r3
 319 0112 1C37     		adds	r7, r7, #28
 320              		.cfi_def_cfa_offset 4
 321 0114 BD46     		mov	sp, r7
 322              		.cfi_def_cfa_register 13
 323              		@ sp needed
ARM GAS  /tmp/ccxt1UfV.s 			page 10


 324 0116 5DF8047B 		ldr	r7, [sp], #4
 325              		.cfi_restore 7
 326              		.cfi_def_cfa_offset 0
 327 011a 7047     		bx	lr
 328              	.L23:
 329              		.align	2
 330              	.L22:
 331 011c BFACD800 		.word	14199999
 332 0120 C0E1E400 		.word	15000000
 333 0124 0024F400 		.word	16000000
 334 0128 80730601 		.word	17200000
 335 012c 9F491A01 		.word	18499999
 336 0130 FF2C3101 		.word	19999999
 337 0134 3FA44C01 		.word	21799999
 338 0138 00366E01 		.word	24000000
 339 013c 1FABA601 		.word	27699999
 340 0140 0048E801 		.word	32000000
 341              		.cfi_endproc
 342              	.LFE836:
 344              		.section	.text.USB_EnableGlobalInt,"ax",%progbits
 345              		.align	1
 346              		.global	USB_EnableGlobalInt
 347              		.syntax unified
 348              		.thumb
 349              		.thumb_func
 351              	USB_EnableGlobalInt:
 352              	.LFB837:
 193:STM32Cube_FW_N6/Drivers/STM32N6xx_HAL_Driver/Src/stm32n6xx_ll_usb.c **** 
 194:STM32Cube_FW_N6/Drivers/STM32N6xx_HAL_Driver/Src/stm32n6xx_ll_usb.c **** /**
 195:STM32Cube_FW_N6/Drivers/STM32N6xx_HAL_Driver/Src/stm32n6xx_ll_usb.c ****   * @brief  USB_EnableGlobalInt
 196:STM32Cube_FW_N6/Drivers/STM32N6xx_HAL_Driver/Src/stm32n6xx_ll_usb.c ****   *         Enables the controller's Global Int in the AHB Config reg
 197:STM32Cube_FW_N6/Drivers/STM32N6xx_HAL_Driver/Src/stm32n6xx_ll_usb.c ****   * @param  USBx  Selected device
 198:STM32Cube_FW_N6/Drivers/STM32N6xx_HAL_Driver/Src/stm32n6xx_ll_usb.c ****   * @retval HAL status
 199:STM32Cube_FW_N6/Drivers/STM32N6xx_HAL_Driver/Src/stm32n6xx_ll_usb.c ****   */
 200:STM32Cube_FW_N6/Drivers/STM32N6xx_HAL_Driver/Src/stm32n6xx_ll_usb.c **** HAL_StatusTypeDef USB_EnableGlobalInt(USB_OTG_GlobalTypeDef *USBx)
 201:STM32Cube_FW_N6/Drivers/STM32N6xx_HAL_Driver/Src/stm32n6xx_ll_usb.c **** {
 353              		.loc 1 201 1
 354              		.cfi_startproc
 355              		@ args = 0, pretend = 0, frame = 8
 356              		@ frame_needed = 1, uses_anonymous_args = 0
 357              		@ link register save eliminated.
 358 0000 80B4     		push	{r7}
 359              		.cfi_def_cfa_offset 4
 360              		.cfi_offset 7, -4
 361 0002 83B0     		sub	sp, sp, #12
 362              		.cfi_def_cfa_offset 16
 363 0004 00AF     		add	r7, sp, #0
 364              		.cfi_def_cfa_register 7
 365 0006 7860     		str	r0, [r7, #4]
 202:STM32Cube_FW_N6/Drivers/STM32N6xx_HAL_Driver/Src/stm32n6xx_ll_usb.c ****   USBx->GAHBCFG |= USB_OTG_GAHBCFG_GINT;
 366              		.loc 1 202 7
 367 0008 7B68     		ldr	r3, [r7, #4]
 368 000a 9B68     		ldr	r3, [r3, #8]
 369              		.loc 1 202 17
 370 000c 43F00102 		orr	r2, r3, #1
 371 0010 7B68     		ldr	r3, [r7, #4]
 372 0012 9A60     		str	r2, [r3, #8]
ARM GAS  /tmp/ccxt1UfV.s 			page 11


 203:STM32Cube_FW_N6/Drivers/STM32N6xx_HAL_Driver/Src/stm32n6xx_ll_usb.c ****   return HAL_OK;
 373              		.loc 1 203 10
 374 0014 0023     		movs	r3, #0
 204:STM32Cube_FW_N6/Drivers/STM32N6xx_HAL_Driver/Src/stm32n6xx_ll_usb.c **** }
 375              		.loc 1 204 1
 376 0016 1846     		mov	r0, r3
 377 0018 0C37     		adds	r7, r7, #12
 378              		.cfi_def_cfa_offset 4
 379 001a BD46     		mov	sp, r7
 380              		.cfi_def_cfa_register 13
 381              		@ sp needed
 382 001c 5DF8047B 		ldr	r7, [sp], #4
 383              		.cfi_restore 7
 384              		.cfi_def_cfa_offset 0
 385 0020 7047     		bx	lr
 386              		.cfi_endproc
 387              	.LFE837:
 389              		.section	.text.USB_DisableGlobalInt,"ax",%progbits
 390              		.align	1
 391              		.global	USB_DisableGlobalInt
 392              		.syntax unified
 393              		.thumb
 394              		.thumb_func
 396              	USB_DisableGlobalInt:
 397              	.LFB838:
 205:STM32Cube_FW_N6/Drivers/STM32N6xx_HAL_Driver/Src/stm32n6xx_ll_usb.c **** 
 206:STM32Cube_FW_N6/Drivers/STM32N6xx_HAL_Driver/Src/stm32n6xx_ll_usb.c **** /**
 207:STM32Cube_FW_N6/Drivers/STM32N6xx_HAL_Driver/Src/stm32n6xx_ll_usb.c ****   * @brief  USB_DisableGlobalInt
 208:STM32Cube_FW_N6/Drivers/STM32N6xx_HAL_Driver/Src/stm32n6xx_ll_usb.c ****   *         Disable the controller's Global Int in the AHB Config reg
 209:STM32Cube_FW_N6/Drivers/STM32N6xx_HAL_Driver/Src/stm32n6xx_ll_usb.c ****   * @param  USBx  Selected device
 210:STM32Cube_FW_N6/Drivers/STM32N6xx_HAL_Driver/Src/stm32n6xx_ll_usb.c ****   * @retval HAL status
 211:STM32Cube_FW_N6/Drivers/STM32N6xx_HAL_Driver/Src/stm32n6xx_ll_usb.c ****   */
 212:STM32Cube_FW_N6/Drivers/STM32N6xx_HAL_Driver/Src/stm32n6xx_ll_usb.c **** HAL_StatusTypeDef USB_DisableGlobalInt(USB_OTG_GlobalTypeDef *USBx)
 213:STM32Cube_FW_N6/Drivers/STM32N6xx_HAL_Driver/Src/stm32n6xx_ll_usb.c **** {
 398              		.loc 1 213 1
 399              		.cfi_startproc
 400              		@ args = 0, pretend = 0, frame = 8
 401              		@ frame_needed = 1, uses_anonymous_args = 0
 402              		@ link register save eliminated.
 403 0000 80B4     		push	{r7}
 404              		.cfi_def_cfa_offset 4
 405              		.cfi_offset 7, -4
 406 0002 83B0     		sub	sp, sp, #12
 407              		.cfi_def_cfa_offset 16
 408 0004 00AF     		add	r7, sp, #0
 409              		.cfi_def_cfa_register 7
 410 0006 7860     		str	r0, [r7, #4]
 214:STM32Cube_FW_N6/Drivers/STM32N6xx_HAL_Driver/Src/stm32n6xx_ll_usb.c ****   USBx->GAHBCFG &= ~USB_OTG_GAHBCFG_GINT;
 411              		.loc 1 214 7
 412 0008 7B68     		ldr	r3, [r7, #4]
 413 000a 9B68     		ldr	r3, [r3, #8]
 414              		.loc 1 214 17
 415 000c 23F00102 		bic	r2, r3, #1
 416 0010 7B68     		ldr	r3, [r7, #4]
 417 0012 9A60     		str	r2, [r3, #8]
 215:STM32Cube_FW_N6/Drivers/STM32N6xx_HAL_Driver/Src/stm32n6xx_ll_usb.c ****   return HAL_OK;
 418              		.loc 1 215 10
ARM GAS  /tmp/ccxt1UfV.s 			page 12


 419 0014 0023     		movs	r3, #0
 216:STM32Cube_FW_N6/Drivers/STM32N6xx_HAL_Driver/Src/stm32n6xx_ll_usb.c **** }
 420              		.loc 1 216 1
 421 0016 1846     		mov	r0, r3
 422 0018 0C37     		adds	r7, r7, #12
 423              		.cfi_def_cfa_offset 4
 424 001a BD46     		mov	sp, r7
 425              		.cfi_def_cfa_register 13
 426              		@ sp needed
 427 001c 5DF8047B 		ldr	r7, [sp], #4
 428              		.cfi_restore 7
 429              		.cfi_def_cfa_offset 0
 430 0020 7047     		bx	lr
 431              		.cfi_endproc
 432              	.LFE838:
 434              		.section	.text.USB_SetCurrentMode,"ax",%progbits
 435              		.align	1
 436              		.global	USB_SetCurrentMode
 437              		.syntax unified
 438              		.thumb
 439              		.thumb_func
 441              	USB_SetCurrentMode:
 442              	.LFB839:
 217:STM32Cube_FW_N6/Drivers/STM32N6xx_HAL_Driver/Src/stm32n6xx_ll_usb.c **** 
 218:STM32Cube_FW_N6/Drivers/STM32N6xx_HAL_Driver/Src/stm32n6xx_ll_usb.c **** /**
 219:STM32Cube_FW_N6/Drivers/STM32N6xx_HAL_Driver/Src/stm32n6xx_ll_usb.c ****   * @brief  USB_SetCurrentMode Set functional mode
 220:STM32Cube_FW_N6/Drivers/STM32N6xx_HAL_Driver/Src/stm32n6xx_ll_usb.c ****   * @param  USBx  Selected device
 221:STM32Cube_FW_N6/Drivers/STM32N6xx_HAL_Driver/Src/stm32n6xx_ll_usb.c ****   * @param  mode  current core mode
 222:STM32Cube_FW_N6/Drivers/STM32N6xx_HAL_Driver/Src/stm32n6xx_ll_usb.c ****   *          This parameter can be one of these values:
 223:STM32Cube_FW_N6/Drivers/STM32N6xx_HAL_Driver/Src/stm32n6xx_ll_usb.c ****   *            @arg USB_DEVICE_MODE Peripheral mode
 224:STM32Cube_FW_N6/Drivers/STM32N6xx_HAL_Driver/Src/stm32n6xx_ll_usb.c ****   *            @arg USB_HOST_MODE Host mode
 225:STM32Cube_FW_N6/Drivers/STM32N6xx_HAL_Driver/Src/stm32n6xx_ll_usb.c ****   * @retval HAL status
 226:STM32Cube_FW_N6/Drivers/STM32N6xx_HAL_Driver/Src/stm32n6xx_ll_usb.c ****   */
 227:STM32Cube_FW_N6/Drivers/STM32N6xx_HAL_Driver/Src/stm32n6xx_ll_usb.c **** HAL_StatusTypeDef USB_SetCurrentMode(USB_OTG_GlobalTypeDef *USBx, USB_OTG_ModeTypeDef mode)
 228:STM32Cube_FW_N6/Drivers/STM32N6xx_HAL_Driver/Src/stm32n6xx_ll_usb.c **** {
 443              		.loc 1 228 1
 444              		.cfi_startproc
 445              		@ args = 0, pretend = 0, frame = 16
 446              		@ frame_needed = 1, uses_anonymous_args = 0
 447 0000 80B5     		push	{r7, lr}
 448              		.cfi_def_cfa_offset 8
 449              		.cfi_offset 7, -8
 450              		.cfi_offset 14, -4
 451 0002 84B0     		sub	sp, sp, #16
 452              		.cfi_def_cfa_offset 24
 453 0004 00AF     		add	r7, sp, #0
 454              		.cfi_def_cfa_register 7
 455 0006 7860     		str	r0, [r7, #4]
 456 0008 0B46     		mov	r3, r1
 457 000a FB70     		strb	r3, [r7, #3]
 229:STM32Cube_FW_N6/Drivers/STM32N6xx_HAL_Driver/Src/stm32n6xx_ll_usb.c ****   uint32_t ms = 0U;
 458              		.loc 1 229 12
 459 000c 0023     		movs	r3, #0
 460 000e FB60     		str	r3, [r7, #12]
 230:STM32Cube_FW_N6/Drivers/STM32N6xx_HAL_Driver/Src/stm32n6xx_ll_usb.c **** 
 231:STM32Cube_FW_N6/Drivers/STM32N6xx_HAL_Driver/Src/stm32n6xx_ll_usb.c ****   USBx->GUSBCFG &= ~(USB_OTG_GUSBCFG_FHMOD | USB_OTG_GUSBCFG_FDMOD);
 461              		.loc 1 231 7
ARM GAS  /tmp/ccxt1UfV.s 			page 13


 462 0010 7B68     		ldr	r3, [r7, #4]
 463 0012 DB68     		ldr	r3, [r3, #12]
 464              		.loc 1 231 17
 465 0014 23F0C042 		bic	r2, r3, #1610612736
 466 0018 7B68     		ldr	r3, [r7, #4]
 467 001a DA60     		str	r2, [r3, #12]
 232:STM32Cube_FW_N6/Drivers/STM32N6xx_HAL_Driver/Src/stm32n6xx_ll_usb.c **** 
 233:STM32Cube_FW_N6/Drivers/STM32N6xx_HAL_Driver/Src/stm32n6xx_ll_usb.c ****   if (mode == USB_HOST_MODE)
 468              		.loc 1 233 6
 469 001c FB78     		ldrb	r3, [r7, #3]	@ zero_extendqisi2
 470 001e 012B     		cmp	r3, #1
 471 0020 15D1     		bne	.L29
 234:STM32Cube_FW_N6/Drivers/STM32N6xx_HAL_Driver/Src/stm32n6xx_ll_usb.c ****   {
 235:STM32Cube_FW_N6/Drivers/STM32N6xx_HAL_Driver/Src/stm32n6xx_ll_usb.c ****     USBx->GUSBCFG |= USB_OTG_GUSBCFG_FHMOD;
 472              		.loc 1 235 9
 473 0022 7B68     		ldr	r3, [r7, #4]
 474 0024 DB68     		ldr	r3, [r3, #12]
 475              		.loc 1 235 19
 476 0026 43F00052 		orr	r2, r3, #536870912
 477 002a 7B68     		ldr	r3, [r7, #4]
 478 002c DA60     		str	r2, [r3, #12]
 479              	.L31:
 236:STM32Cube_FW_N6/Drivers/STM32N6xx_HAL_Driver/Src/stm32n6xx_ll_usb.c **** 
 237:STM32Cube_FW_N6/Drivers/STM32N6xx_HAL_Driver/Src/stm32n6xx_ll_usb.c ****     do
 238:STM32Cube_FW_N6/Drivers/STM32N6xx_HAL_Driver/Src/stm32n6xx_ll_usb.c ****     {
 239:STM32Cube_FW_N6/Drivers/STM32N6xx_HAL_Driver/Src/stm32n6xx_ll_usb.c ****       HAL_Delay(10U);
 480              		.loc 1 239 7
 481 002e 0A20     		movs	r0, #10
 482 0030 FFF7FEFF 		bl	HAL_Delay
 240:STM32Cube_FW_N6/Drivers/STM32N6xx_HAL_Driver/Src/stm32n6xx_ll_usb.c ****       ms += 10U;
 483              		.loc 1 240 10
 484 0034 FB68     		ldr	r3, [r7, #12]
 485 0036 0A33     		adds	r3, r3, #10
 486 0038 FB60     		str	r3, [r7, #12]
 241:STM32Cube_FW_N6/Drivers/STM32N6xx_HAL_Driver/Src/stm32n6xx_ll_usb.c ****     } while ((USB_GetMode(USBx) != (uint32_t)USB_HOST_MODE) && (ms < HAL_USB_CURRENT_MODE_MAX_DELAY
 487              		.loc 1 241 15 discriminator 2
 488 003a 7868     		ldr	r0, [r7, #4]
 489 003c FFF7FEFF 		bl	USB_GetMode
 490 0040 0346     		mov	r3, r0
 491              		.loc 1 241 61 discriminator 2
 492 0042 012B     		cmp	r3, #1
 493 0044 1ED0     		beq	.L30
 494              		.loc 1 241 61 is_stmt 0 discriminator 1
 495 0046 FB68     		ldr	r3, [r7, #12]
 496 0048 C72B     		cmp	r3, #199
 497 004a F0D9     		bls	.L31
 498 004c 1AE0     		b	.L30
 499              	.L29:
 242:STM32Cube_FW_N6/Drivers/STM32N6xx_HAL_Driver/Src/stm32n6xx_ll_usb.c ****   }
 243:STM32Cube_FW_N6/Drivers/STM32N6xx_HAL_Driver/Src/stm32n6xx_ll_usb.c ****   else if (mode == USB_DEVICE_MODE)
 500              		.loc 1 243 11 is_stmt 1
 501 004e FB78     		ldrb	r3, [r7, #3]	@ zero_extendqisi2
 502 0050 002B     		cmp	r3, #0
 503 0052 15D1     		bne	.L32
 244:STM32Cube_FW_N6/Drivers/STM32N6xx_HAL_Driver/Src/stm32n6xx_ll_usb.c ****   {
 245:STM32Cube_FW_N6/Drivers/STM32N6xx_HAL_Driver/Src/stm32n6xx_ll_usb.c ****     USBx->GUSBCFG |= USB_OTG_GUSBCFG_FDMOD;
 504              		.loc 1 245 9
ARM GAS  /tmp/ccxt1UfV.s 			page 14


 505 0054 7B68     		ldr	r3, [r7, #4]
 506 0056 DB68     		ldr	r3, [r3, #12]
 507              		.loc 1 245 19
 508 0058 43F08042 		orr	r2, r3, #1073741824
 509 005c 7B68     		ldr	r3, [r7, #4]
 510 005e DA60     		str	r2, [r3, #12]
 511              	.L33:
 246:STM32Cube_FW_N6/Drivers/STM32N6xx_HAL_Driver/Src/stm32n6xx_ll_usb.c **** 
 247:STM32Cube_FW_N6/Drivers/STM32N6xx_HAL_Driver/Src/stm32n6xx_ll_usb.c ****     do
 248:STM32Cube_FW_N6/Drivers/STM32N6xx_HAL_Driver/Src/stm32n6xx_ll_usb.c ****     {
 249:STM32Cube_FW_N6/Drivers/STM32N6xx_HAL_Driver/Src/stm32n6xx_ll_usb.c ****       HAL_Delay(10U);
 512              		.loc 1 249 7
 513 0060 0A20     		movs	r0, #10
 514 0062 FFF7FEFF 		bl	HAL_Delay
 250:STM32Cube_FW_N6/Drivers/STM32N6xx_HAL_Driver/Src/stm32n6xx_ll_usb.c ****       ms += 10U;
 515              		.loc 1 250 10
 516 0066 FB68     		ldr	r3, [r7, #12]
 517 0068 0A33     		adds	r3, r3, #10
 518 006a FB60     		str	r3, [r7, #12]
 251:STM32Cube_FW_N6/Drivers/STM32N6xx_HAL_Driver/Src/stm32n6xx_ll_usb.c ****     } while ((USB_GetMode(USBx) != (uint32_t)USB_DEVICE_MODE) && (ms < HAL_USB_CURRENT_MODE_MAX_DEL
 519              		.loc 1 251 15 discriminator 2
 520 006c 7868     		ldr	r0, [r7, #4]
 521 006e FFF7FEFF 		bl	USB_GetMode
 522 0072 0346     		mov	r3, r0
 523              		.loc 1 251 63 discriminator 2
 524 0074 002B     		cmp	r3, #0
 525 0076 05D0     		beq	.L30
 526              		.loc 1 251 63 is_stmt 0 discriminator 1
 527 0078 FB68     		ldr	r3, [r7, #12]
 528 007a C72B     		cmp	r3, #199
 529 007c F0D9     		bls	.L33
 530 007e 01E0     		b	.L30
 531              	.L32:
 252:STM32Cube_FW_N6/Drivers/STM32N6xx_HAL_Driver/Src/stm32n6xx_ll_usb.c ****   }
 253:STM32Cube_FW_N6/Drivers/STM32N6xx_HAL_Driver/Src/stm32n6xx_ll_usb.c ****   else
 254:STM32Cube_FW_N6/Drivers/STM32N6xx_HAL_Driver/Src/stm32n6xx_ll_usb.c ****   {
 255:STM32Cube_FW_N6/Drivers/STM32N6xx_HAL_Driver/Src/stm32n6xx_ll_usb.c ****     return HAL_ERROR;
 532              		.loc 1 255 12 is_stmt 1
 533 0080 0123     		movs	r3, #1
 534 0082 05E0     		b	.L34
 535              	.L30:
 256:STM32Cube_FW_N6/Drivers/STM32N6xx_HAL_Driver/Src/stm32n6xx_ll_usb.c ****   }
 257:STM32Cube_FW_N6/Drivers/STM32N6xx_HAL_Driver/Src/stm32n6xx_ll_usb.c **** 
 258:STM32Cube_FW_N6/Drivers/STM32N6xx_HAL_Driver/Src/stm32n6xx_ll_usb.c ****   if (ms == HAL_USB_CURRENT_MODE_MAX_DELAY_MS)
 536              		.loc 1 258 6
 537 0084 FB68     		ldr	r3, [r7, #12]
 538 0086 C82B     		cmp	r3, #200
 539 0088 01D1     		bne	.L35
 259:STM32Cube_FW_N6/Drivers/STM32N6xx_HAL_Driver/Src/stm32n6xx_ll_usb.c ****   {
 260:STM32Cube_FW_N6/Drivers/STM32N6xx_HAL_Driver/Src/stm32n6xx_ll_usb.c ****     return HAL_ERROR;
 540              		.loc 1 260 12
 541 008a 0123     		movs	r3, #1
 542 008c 00E0     		b	.L34
 543              	.L35:
 261:STM32Cube_FW_N6/Drivers/STM32N6xx_HAL_Driver/Src/stm32n6xx_ll_usb.c ****   }
 262:STM32Cube_FW_N6/Drivers/STM32N6xx_HAL_Driver/Src/stm32n6xx_ll_usb.c **** 
 263:STM32Cube_FW_N6/Drivers/STM32N6xx_HAL_Driver/Src/stm32n6xx_ll_usb.c ****   return HAL_OK;
ARM GAS  /tmp/ccxt1UfV.s 			page 15


 544              		.loc 1 263 10
 545 008e 0023     		movs	r3, #0
 546              	.L34:
 264:STM32Cube_FW_N6/Drivers/STM32N6xx_HAL_Driver/Src/stm32n6xx_ll_usb.c **** }
 547              		.loc 1 264 1
 548 0090 1846     		mov	r0, r3
 549 0092 1037     		adds	r7, r7, #16
 550              		.cfi_def_cfa_offset 8
 551 0094 BD46     		mov	sp, r7
 552              		.cfi_def_cfa_register 13
 553              		@ sp needed
 554 0096 80BD     		pop	{r7, pc}
 555              		.cfi_endproc
 556              	.LFE839:
 558              		.section	.text.USB_DevInit,"ax",%progbits
 559              		.align	1
 560              		.global	USB_DevInit
 561              		.syntax unified
 562              		.thumb
 563              		.thumb_func
 565              	USB_DevInit:
 566              	.LFB840:
 265:STM32Cube_FW_N6/Drivers/STM32N6xx_HAL_Driver/Src/stm32n6xx_ll_usb.c **** 
 266:STM32Cube_FW_N6/Drivers/STM32N6xx_HAL_Driver/Src/stm32n6xx_ll_usb.c **** /**
 267:STM32Cube_FW_N6/Drivers/STM32N6xx_HAL_Driver/Src/stm32n6xx_ll_usb.c ****   * @brief  USB_DevInit Initializes the USB_OTG controller registers
 268:STM32Cube_FW_N6/Drivers/STM32N6xx_HAL_Driver/Src/stm32n6xx_ll_usb.c ****   *         for device mode
 269:STM32Cube_FW_N6/Drivers/STM32N6xx_HAL_Driver/Src/stm32n6xx_ll_usb.c ****   * @param  USBx  Selected device
 270:STM32Cube_FW_N6/Drivers/STM32N6xx_HAL_Driver/Src/stm32n6xx_ll_usb.c ****   * @param  cfg   pointer to a USB_OTG_CfgTypeDef structure that contains
 271:STM32Cube_FW_N6/Drivers/STM32N6xx_HAL_Driver/Src/stm32n6xx_ll_usb.c ****   *         the configuration information for the specified USBx peripheral.
 272:STM32Cube_FW_N6/Drivers/STM32N6xx_HAL_Driver/Src/stm32n6xx_ll_usb.c ****   * @retval HAL status
 273:STM32Cube_FW_N6/Drivers/STM32N6xx_HAL_Driver/Src/stm32n6xx_ll_usb.c ****   */
 274:STM32Cube_FW_N6/Drivers/STM32N6xx_HAL_Driver/Src/stm32n6xx_ll_usb.c **** HAL_StatusTypeDef USB_DevInit(USB_OTG_GlobalTypeDef *USBx, USB_OTG_CfgTypeDef cfg)
 275:STM32Cube_FW_N6/Drivers/STM32N6xx_HAL_Driver/Src/stm32n6xx_ll_usb.c **** {
 567              		.loc 1 275 1
 568              		.cfi_startproc
 569              		@ args = 20, pretend = 16, frame = 24
 570              		@ frame_needed = 1, uses_anonymous_args = 0
 571 0000 84B0     		sub	sp, sp, #16
 572              		.cfi_def_cfa_offset 16
 573 0002 80B5     		push	{r7, lr}
 574              		.cfi_def_cfa_offset 24
 575              		.cfi_offset 7, -24
 576              		.cfi_offset 14, -20
 577 0004 86B0     		sub	sp, sp, #24
 578              		.cfi_def_cfa_offset 48
 579 0006 00AF     		add	r7, sp, #0
 580              		.cfi_def_cfa_register 7
 581 0008 7860     		str	r0, [r7, #4]
 582 000a 07F12400 		add	r0, r7, #36
 583 000e 80E80E00 		stm	r0, {r1, r2, r3}
 276:STM32Cube_FW_N6/Drivers/STM32N6xx_HAL_Driver/Src/stm32n6xx_ll_usb.c ****   HAL_StatusTypeDef ret = HAL_OK;
 584              		.loc 1 276 21
 585 0012 0023     		movs	r3, #0
 586 0014 FB75     		strb	r3, [r7, #23]
 277:STM32Cube_FW_N6/Drivers/STM32N6xx_HAL_Driver/Src/stm32n6xx_ll_usb.c ****   uint32_t USBx_BASE = (uint32_t)USBx;
 587              		.loc 1 277 12
 588 0016 7B68     		ldr	r3, [r7, #4]
ARM GAS  /tmp/ccxt1UfV.s 			page 16


 589 0018 FB60     		str	r3, [r7, #12]
 278:STM32Cube_FW_N6/Drivers/STM32N6xx_HAL_Driver/Src/stm32n6xx_ll_usb.c ****   uint32_t i;
 279:STM32Cube_FW_N6/Drivers/STM32N6xx_HAL_Driver/Src/stm32n6xx_ll_usb.c **** 
 280:STM32Cube_FW_N6/Drivers/STM32N6xx_HAL_Driver/Src/stm32n6xx_ll_usb.c ****   for (i = 0U; i < 15U; i++)
 590              		.loc 1 280 10
 591 001a 0023     		movs	r3, #0
 592 001c 3B61     		str	r3, [r7, #16]
 593              		.loc 1 280 3
 594 001e 09E0     		b	.L37
 595              	.L38:
 281:STM32Cube_FW_N6/Drivers/STM32N6xx_HAL_Driver/Src/stm32n6xx_ll_usb.c ****   {
 282:STM32Cube_FW_N6/Drivers/STM32N6xx_HAL_Driver/Src/stm32n6xx_ll_usb.c ****     USBx->DIEPTXF[i] = 0U;
 596              		.loc 1 282 22
 597 0020 7A68     		ldr	r2, [r7, #4]
 598 0022 3B69     		ldr	r3, [r7, #16]
 599 0024 4033     		adds	r3, r3, #64
 600 0026 9B00     		lsls	r3, r3, #2
 601 0028 1344     		add	r3, r3, r2
 602 002a 0022     		movs	r2, #0
 603 002c 5A60     		str	r2, [r3, #4]
 280:STM32Cube_FW_N6/Drivers/STM32N6xx_HAL_Driver/Src/stm32n6xx_ll_usb.c ****   {
 604              		.loc 1 280 26 discriminator 3
 605 002e 3B69     		ldr	r3, [r7, #16]
 606 0030 0133     		adds	r3, r3, #1
 607 0032 3B61     		str	r3, [r7, #16]
 608              	.L37:
 280:STM32Cube_FW_N6/Drivers/STM32N6xx_HAL_Driver/Src/stm32n6xx_ll_usb.c ****   {
 609              		.loc 1 280 18 discriminator 1
 610 0034 3B69     		ldr	r3, [r7, #16]
 611 0036 0E2B     		cmp	r3, #14
 612 0038 F2D9     		bls	.L38
 283:STM32Cube_FW_N6/Drivers/STM32N6xx_HAL_Driver/Src/stm32n6xx_ll_usb.c ****   }
 284:STM32Cube_FW_N6/Drivers/STM32N6xx_HAL_Driver/Src/stm32n6xx_ll_usb.c **** 
 285:STM32Cube_FW_N6/Drivers/STM32N6xx_HAL_Driver/Src/stm32n6xx_ll_usb.c ****   /* Disable USB PHY pulldown resistors */
 286:STM32Cube_FW_N6/Drivers/STM32N6xx_HAL_Driver/Src/stm32n6xx_ll_usb.c ****   USBx->GCCFG &= ~USB_OTG_GCCFG_PULLDOWNEN;
 613              		.loc 1 286 7
 614 003a 7B68     		ldr	r3, [r7, #4]
 615 003c 9B6B     		ldr	r3, [r3, #56]
 616              		.loc 1 286 15
 617 003e 23F00072 		bic	r2, r3, #33554432
 618 0042 7B68     		ldr	r3, [r7, #4]
 619 0044 9A63     		str	r2, [r3, #56]
 287:STM32Cube_FW_N6/Drivers/STM32N6xx_HAL_Driver/Src/stm32n6xx_ll_usb.c **** 
 288:STM32Cube_FW_N6/Drivers/STM32N6xx_HAL_Driver/Src/stm32n6xx_ll_usb.c ****   /* VBUS Sensing setup */
 289:STM32Cube_FW_N6/Drivers/STM32N6xx_HAL_Driver/Src/stm32n6xx_ll_usb.c ****   if (cfg.vbus_sensing_enable == 0U)
 620              		.loc 1 289 10
 621 0046 97F82E30 		ldrb	r3, [r7, #46]	@ zero_extendqisi2
 622              		.loc 1 289 6
 623 004a 002B     		cmp	r3, #0
 624 004c 16D1     		bne	.L39
 290:STM32Cube_FW_N6/Drivers/STM32N6xx_HAL_Driver/Src/stm32n6xx_ll_usb.c ****   {
 291:STM32Cube_FW_N6/Drivers/STM32N6xx_HAL_Driver/Src/stm32n6xx_ll_usb.c ****     USBx_DEVICE->DCTL |= USB_OTG_DCTL_SDIS;
 625              		.loc 1 291 16
 626 004e FB68     		ldr	r3, [r7, #12]
 627 0050 03F50063 		add	r3, r3, #2048
 628 0054 5B68     		ldr	r3, [r3, #4]
 629 0056 FA68     		ldr	r2, [r7, #12]
ARM GAS  /tmp/ccxt1UfV.s 			page 17


 630 0058 02F50062 		add	r2, r2, #2048
 631              		.loc 1 291 23
 632 005c 43F00203 		orr	r3, r3, #2
 633 0060 5360     		str	r3, [r2, #4]
 292:STM32Cube_FW_N6/Drivers/STM32N6xx_HAL_Driver/Src/stm32n6xx_ll_usb.c **** 
 293:STM32Cube_FW_N6/Drivers/STM32N6xx_HAL_Driver/Src/stm32n6xx_ll_usb.c ****     /* B-peripheral session valid override enable */
 294:STM32Cube_FW_N6/Drivers/STM32N6xx_HAL_Driver/Src/stm32n6xx_ll_usb.c ****     USBx->GCCFG |= USB_OTG_GCCFG_VBVALEXTOEN;
 634              		.loc 1 294 9
 635 0062 7B68     		ldr	r3, [r7, #4]
 636 0064 9B6B     		ldr	r3, [r3, #56]
 637              		.loc 1 294 17
 638 0066 43F08072 		orr	r2, r3, #16777216
 639 006a 7B68     		ldr	r3, [r7, #4]
 640 006c 9A63     		str	r2, [r3, #56]
 295:STM32Cube_FW_N6/Drivers/STM32N6xx_HAL_Driver/Src/stm32n6xx_ll_usb.c ****     USBx->GCCFG |= USB_OTG_GCCFG_VBVALOVAL;
 641              		.loc 1 295 9
 642 006e 7B68     		ldr	r3, [r7, #4]
 643 0070 9B6B     		ldr	r3, [r3, #56]
 644              		.loc 1 295 17
 645 0072 43F40002 		orr	r2, r3, #8388608
 646 0076 7B68     		ldr	r3, [r7, #4]
 647 0078 9A63     		str	r2, [r3, #56]
 648 007a 0BE0     		b	.L40
 649              	.L39:
 296:STM32Cube_FW_N6/Drivers/STM32N6xx_HAL_Driver/Src/stm32n6xx_ll_usb.c ****   }
 297:STM32Cube_FW_N6/Drivers/STM32N6xx_HAL_Driver/Src/stm32n6xx_ll_usb.c ****   else
 298:STM32Cube_FW_N6/Drivers/STM32N6xx_HAL_Driver/Src/stm32n6xx_ll_usb.c ****   {
 299:STM32Cube_FW_N6/Drivers/STM32N6xx_HAL_Driver/Src/stm32n6xx_ll_usb.c ****     /* B-peripheral session valid override disable */
 300:STM32Cube_FW_N6/Drivers/STM32N6xx_HAL_Driver/Src/stm32n6xx_ll_usb.c ****     USBx->GCCFG &= ~USB_OTG_GCCFG_VBVALEXTOEN;
 650              		.loc 1 300 9
 651 007c 7B68     		ldr	r3, [r7, #4]
 652 007e 9B6B     		ldr	r3, [r3, #56]
 653              		.loc 1 300 17
 654 0080 23F08072 		bic	r2, r3, #16777216
 655 0084 7B68     		ldr	r3, [r7, #4]
 656 0086 9A63     		str	r2, [r3, #56]
 301:STM32Cube_FW_N6/Drivers/STM32N6xx_HAL_Driver/Src/stm32n6xx_ll_usb.c ****     USBx->GCCFG &= ~USB_OTG_GCCFG_VBVALOVAL;
 657              		.loc 1 301 9
 658 0088 7B68     		ldr	r3, [r7, #4]
 659 008a 9B6B     		ldr	r3, [r3, #56]
 660              		.loc 1 301 17
 661 008c 23F40002 		bic	r2, r3, #8388608
 662 0090 7B68     		ldr	r3, [r7, #4]
 663 0092 9A63     		str	r2, [r3, #56]
 664              	.L40:
 302:STM32Cube_FW_N6/Drivers/STM32N6xx_HAL_Driver/Src/stm32n6xx_ll_usb.c ****   }
 303:STM32Cube_FW_N6/Drivers/STM32N6xx_HAL_Driver/Src/stm32n6xx_ll_usb.c **** 
 304:STM32Cube_FW_N6/Drivers/STM32N6xx_HAL_Driver/Src/stm32n6xx_ll_usb.c ****   /* Restart the Phy Clock */
 305:STM32Cube_FW_N6/Drivers/STM32N6xx_HAL_Driver/Src/stm32n6xx_ll_usb.c ****   USBx_PCGCCTL = 0U;
 665              		.loc 1 305 3
 666 0094 FB68     		ldr	r3, [r7, #12]
 667 0096 03F56063 		add	r3, r3, #3584
 668 009a 1A46     		mov	r2, r3
 669              		.loc 1 305 16
 670 009c 0023     		movs	r3, #0
 671 009e 1360     		str	r3, [r2]
 306:STM32Cube_FW_N6/Drivers/STM32N6xx_HAL_Driver/Src/stm32n6xx_ll_usb.c **** 
ARM GAS  /tmp/ccxt1UfV.s 			page 18


 307:STM32Cube_FW_N6/Drivers/STM32N6xx_HAL_Driver/Src/stm32n6xx_ll_usb.c **** 
 308:STM32Cube_FW_N6/Drivers/STM32N6xx_HAL_Driver/Src/stm32n6xx_ll_usb.c ****   if (cfg.phy_itface == USB_OTG_HS_EMBEDDED_PHY)
 672              		.loc 1 308 10
 673 00a0 97F82930 		ldrb	r3, [r7, #41]	@ zero_extendqisi2
 674              		.loc 1 308 6
 675 00a4 032B     		cmp	r3, #3
 676 00a6 0DD1     		bne	.L41
 309:STM32Cube_FW_N6/Drivers/STM32N6xx_HAL_Driver/Src/stm32n6xx_ll_usb.c ****   {
 310:STM32Cube_FW_N6/Drivers/STM32N6xx_HAL_Driver/Src/stm32n6xx_ll_usb.c ****     if (cfg.speed == USBD_HS_SPEED)
 677              		.loc 1 310 12
 678 00a8 97F82730 		ldrb	r3, [r7, #39]	@ zero_extendqisi2
 679              		.loc 1 310 8
 680 00ac 002B     		cmp	r3, #0
 681 00ae 04D1     		bne	.L42
 311:STM32Cube_FW_N6/Drivers/STM32N6xx_HAL_Driver/Src/stm32n6xx_ll_usb.c ****     {
 312:STM32Cube_FW_N6/Drivers/STM32N6xx_HAL_Driver/Src/stm32n6xx_ll_usb.c ****       /* Set Core speed to High speed mode */
 313:STM32Cube_FW_N6/Drivers/STM32N6xx_HAL_Driver/Src/stm32n6xx_ll_usb.c ****       (void)USB_SetDevSpeed(USBx, USB_OTG_SPEED_HIGH);
 682              		.loc 1 313 13
 683 00b0 0021     		movs	r1, #0
 684 00b2 7868     		ldr	r0, [r7, #4]
 685 00b4 FFF7FEFF 		bl	USB_SetDevSpeed
 686 00b8 08E0     		b	.L43
 687              	.L42:
 314:STM32Cube_FW_N6/Drivers/STM32N6xx_HAL_Driver/Src/stm32n6xx_ll_usb.c ****     }
 315:STM32Cube_FW_N6/Drivers/STM32N6xx_HAL_Driver/Src/stm32n6xx_ll_usb.c ****     else
 316:STM32Cube_FW_N6/Drivers/STM32N6xx_HAL_Driver/Src/stm32n6xx_ll_usb.c ****     {
 317:STM32Cube_FW_N6/Drivers/STM32N6xx_HAL_Driver/Src/stm32n6xx_ll_usb.c ****       /* Set Core speed to Full speed mode */
 318:STM32Cube_FW_N6/Drivers/STM32N6xx_HAL_Driver/Src/stm32n6xx_ll_usb.c ****       (void)USB_SetDevSpeed(USBx, USB_OTG_SPEED_HIGH_IN_FULL);
 688              		.loc 1 318 13
 689 00ba 0121     		movs	r1, #1
 690 00bc 7868     		ldr	r0, [r7, #4]
 691 00be FFF7FEFF 		bl	USB_SetDevSpeed
 692 00c2 03E0     		b	.L43
 693              	.L41:
 319:STM32Cube_FW_N6/Drivers/STM32N6xx_HAL_Driver/Src/stm32n6xx_ll_usb.c ****     }
 320:STM32Cube_FW_N6/Drivers/STM32N6xx_HAL_Driver/Src/stm32n6xx_ll_usb.c ****   }
 321:STM32Cube_FW_N6/Drivers/STM32N6xx_HAL_Driver/Src/stm32n6xx_ll_usb.c ****   else
 322:STM32Cube_FW_N6/Drivers/STM32N6xx_HAL_Driver/Src/stm32n6xx_ll_usb.c **** 
 323:STM32Cube_FW_N6/Drivers/STM32N6xx_HAL_Driver/Src/stm32n6xx_ll_usb.c ****   {
 324:STM32Cube_FW_N6/Drivers/STM32N6xx_HAL_Driver/Src/stm32n6xx_ll_usb.c ****     /* Set Core speed to Full speed mode */
 325:STM32Cube_FW_N6/Drivers/STM32N6xx_HAL_Driver/Src/stm32n6xx_ll_usb.c ****     (void)USB_SetDevSpeed(USBx, USB_OTG_SPEED_FULL);
 694              		.loc 1 325 11
 695 00c4 0321     		movs	r1, #3
 696 00c6 7868     		ldr	r0, [r7, #4]
 697 00c8 FFF7FEFF 		bl	USB_SetDevSpeed
 698              	.L43:
 326:STM32Cube_FW_N6/Drivers/STM32N6xx_HAL_Driver/Src/stm32n6xx_ll_usb.c ****   }
 327:STM32Cube_FW_N6/Drivers/STM32N6xx_HAL_Driver/Src/stm32n6xx_ll_usb.c **** 
 328:STM32Cube_FW_N6/Drivers/STM32N6xx_HAL_Driver/Src/stm32n6xx_ll_usb.c ****   /* Flush the FIFOs */
 329:STM32Cube_FW_N6/Drivers/STM32N6xx_HAL_Driver/Src/stm32n6xx_ll_usb.c ****   if (USB_FlushTxFifo(USBx, 0x10U) != HAL_OK) /* all Tx FIFOs */
 699              		.loc 1 329 7
 700 00cc 1021     		movs	r1, #16
 701 00ce 7868     		ldr	r0, [r7, #4]
 702 00d0 FFF7FEFF 		bl	USB_FlushTxFifo
 703 00d4 0346     		mov	r3, r0
 704              		.loc 1 329 6 discriminator 1
 705 00d6 002B     		cmp	r3, #0
ARM GAS  /tmp/ccxt1UfV.s 			page 19


 706 00d8 01D0     		beq	.L44
 330:STM32Cube_FW_N6/Drivers/STM32N6xx_HAL_Driver/Src/stm32n6xx_ll_usb.c ****   {
 331:STM32Cube_FW_N6/Drivers/STM32N6xx_HAL_Driver/Src/stm32n6xx_ll_usb.c ****     ret = HAL_ERROR;
 707              		.loc 1 331 9
 708 00da 0123     		movs	r3, #1
 709 00dc FB75     		strb	r3, [r7, #23]
 710              	.L44:
 332:STM32Cube_FW_N6/Drivers/STM32N6xx_HAL_Driver/Src/stm32n6xx_ll_usb.c ****   }
 333:STM32Cube_FW_N6/Drivers/STM32N6xx_HAL_Driver/Src/stm32n6xx_ll_usb.c **** 
 334:STM32Cube_FW_N6/Drivers/STM32N6xx_HAL_Driver/Src/stm32n6xx_ll_usb.c ****   if (USB_FlushRxFifo(USBx) != HAL_OK)
 711              		.loc 1 334 7
 712 00de 7868     		ldr	r0, [r7, #4]
 713 00e0 FFF7FEFF 		bl	USB_FlushRxFifo
 714 00e4 0346     		mov	r3, r0
 715              		.loc 1 334 6 discriminator 1
 716 00e6 002B     		cmp	r3, #0
 717 00e8 01D0     		beq	.L45
 335:STM32Cube_FW_N6/Drivers/STM32N6xx_HAL_Driver/Src/stm32n6xx_ll_usb.c ****   {
 336:STM32Cube_FW_N6/Drivers/STM32N6xx_HAL_Driver/Src/stm32n6xx_ll_usb.c ****     ret = HAL_ERROR;
 718              		.loc 1 336 9
 719 00ea 0123     		movs	r3, #1
 720 00ec FB75     		strb	r3, [r7, #23]
 721              	.L45:
 337:STM32Cube_FW_N6/Drivers/STM32N6xx_HAL_Driver/Src/stm32n6xx_ll_usb.c ****   }
 338:STM32Cube_FW_N6/Drivers/STM32N6xx_HAL_Driver/Src/stm32n6xx_ll_usb.c **** 
 339:STM32Cube_FW_N6/Drivers/STM32N6xx_HAL_Driver/Src/stm32n6xx_ll_usb.c ****   /* Clear all pending Device Interrupts */
 340:STM32Cube_FW_N6/Drivers/STM32N6xx_HAL_Driver/Src/stm32n6xx_ll_usb.c ****   USBx_DEVICE->DIEPMSK = 0U;
 722              		.loc 1 340 3
 723 00ee FB68     		ldr	r3, [r7, #12]
 724 00f0 03F50063 		add	r3, r3, #2048
 725 00f4 1A46     		mov	r2, r3
 726              		.loc 1 340 24
 727 00f6 0023     		movs	r3, #0
 728 00f8 1361     		str	r3, [r2, #16]
 341:STM32Cube_FW_N6/Drivers/STM32N6xx_HAL_Driver/Src/stm32n6xx_ll_usb.c ****   USBx_DEVICE->DOEPMSK = 0U;
 729              		.loc 1 341 3
 730 00fa FB68     		ldr	r3, [r7, #12]
 731 00fc 03F50063 		add	r3, r3, #2048
 732 0100 1A46     		mov	r2, r3
 733              		.loc 1 341 24
 734 0102 0023     		movs	r3, #0
 735 0104 5361     		str	r3, [r2, #20]
 342:STM32Cube_FW_N6/Drivers/STM32N6xx_HAL_Driver/Src/stm32n6xx_ll_usb.c ****   USBx_DEVICE->DAINTMSK = 0U;
 736              		.loc 1 342 3
 737 0106 FB68     		ldr	r3, [r7, #12]
 738 0108 03F50063 		add	r3, r3, #2048
 739 010c 1A46     		mov	r2, r3
 740              		.loc 1 342 25
 741 010e 0023     		movs	r3, #0
 742 0110 D361     		str	r3, [r2, #28]
 343:STM32Cube_FW_N6/Drivers/STM32N6xx_HAL_Driver/Src/stm32n6xx_ll_usb.c **** 
 344:STM32Cube_FW_N6/Drivers/STM32N6xx_HAL_Driver/Src/stm32n6xx_ll_usb.c ****   for (i = 0U; i < cfg.dev_endpoints; i++)
 743              		.loc 1 344 10
 744 0112 0023     		movs	r3, #0
 745 0114 3B61     		str	r3, [r7, #16]
 746              		.loc 1 344 3
 747 0116 43E0     		b	.L46
ARM GAS  /tmp/ccxt1UfV.s 			page 20


 748              	.L50:
 345:STM32Cube_FW_N6/Drivers/STM32N6xx_HAL_Driver/Src/stm32n6xx_ll_usb.c ****   {
 346:STM32Cube_FW_N6/Drivers/STM32N6xx_HAL_Driver/Src/stm32n6xx_ll_usb.c ****     if ((USBx_INEP(i)->DIEPCTL & USB_OTG_DIEPCTL_EPENA) == USB_OTG_DIEPCTL_EPENA)
 749              		.loc 1 346 10
 750 0118 3B69     		ldr	r3, [r7, #16]
 751 011a 5A01     		lsls	r2, r3, #5
 752 011c FB68     		ldr	r3, [r7, #12]
 753 011e 1344     		add	r3, r3, r2
 754 0120 03F51063 		add	r3, r3, #2304
 755              		.loc 1 346 22
 756 0124 1B68     		ldr	r3, [r3]
 757              		.loc 1 346 32
 758 0126 03F00043 		and	r3, r3, #-2147483648
 759              		.loc 1 346 8
 760 012a B3F1004F 		cmp	r3, #-2147483648
 761 012e 18D1     		bne	.L47
 347:STM32Cube_FW_N6/Drivers/STM32N6xx_HAL_Driver/Src/stm32n6xx_ll_usb.c ****     {
 348:STM32Cube_FW_N6/Drivers/STM32N6xx_HAL_Driver/Src/stm32n6xx_ll_usb.c ****       if (i == 0U)
 762              		.loc 1 348 10
 763 0130 3B69     		ldr	r3, [r7, #16]
 764 0132 002B     		cmp	r3, #0
 765 0134 0AD1     		bne	.L48
 349:STM32Cube_FW_N6/Drivers/STM32N6xx_HAL_Driver/Src/stm32n6xx_ll_usb.c ****       {
 350:STM32Cube_FW_N6/Drivers/STM32N6xx_HAL_Driver/Src/stm32n6xx_ll_usb.c ****         USBx_INEP(i)->DIEPCTL = USB_OTG_DIEPCTL_SNAK;
 766              		.loc 1 350 9
 767 0136 3B69     		ldr	r3, [r7, #16]
 768 0138 5A01     		lsls	r2, r3, #5
 769 013a FB68     		ldr	r3, [r7, #12]
 770 013c 1344     		add	r3, r3, r2
 771 013e 03F51063 		add	r3, r3, #2304
 772 0142 1A46     		mov	r2, r3
 773              		.loc 1 350 31
 774 0144 4FF00063 		mov	r3, #134217728
 775 0148 1360     		str	r3, [r2]
 776 014a 13E0     		b	.L49
 777              	.L48:
 351:STM32Cube_FW_N6/Drivers/STM32N6xx_HAL_Driver/Src/stm32n6xx_ll_usb.c ****       }
 352:STM32Cube_FW_N6/Drivers/STM32N6xx_HAL_Driver/Src/stm32n6xx_ll_usb.c ****       else
 353:STM32Cube_FW_N6/Drivers/STM32N6xx_HAL_Driver/Src/stm32n6xx_ll_usb.c ****       {
 354:STM32Cube_FW_N6/Drivers/STM32N6xx_HAL_Driver/Src/stm32n6xx_ll_usb.c ****         USBx_INEP(i)->DIEPCTL = USB_OTG_DIEPCTL_EPDIS | USB_OTG_DIEPCTL_SNAK;
 778              		.loc 1 354 9
 779 014c 3B69     		ldr	r3, [r7, #16]
 780 014e 5A01     		lsls	r2, r3, #5
 781 0150 FB68     		ldr	r3, [r7, #12]
 782 0152 1344     		add	r3, r3, r2
 783 0154 03F51063 		add	r3, r3, #2304
 784 0158 1A46     		mov	r2, r3
 785              		.loc 1 354 31
 786 015a 4FF09043 		mov	r3, #1207959552
 787 015e 1360     		str	r3, [r2]
 788 0160 08E0     		b	.L49
 789              	.L47:
 355:STM32Cube_FW_N6/Drivers/STM32N6xx_HAL_Driver/Src/stm32n6xx_ll_usb.c ****       }
 356:STM32Cube_FW_N6/Drivers/STM32N6xx_HAL_Driver/Src/stm32n6xx_ll_usb.c ****     }
 357:STM32Cube_FW_N6/Drivers/STM32N6xx_HAL_Driver/Src/stm32n6xx_ll_usb.c ****     else
 358:STM32Cube_FW_N6/Drivers/STM32N6xx_HAL_Driver/Src/stm32n6xx_ll_usb.c ****     {
 359:STM32Cube_FW_N6/Drivers/STM32N6xx_HAL_Driver/Src/stm32n6xx_ll_usb.c ****       USBx_INEP(i)->DIEPCTL = 0U;
ARM GAS  /tmp/ccxt1UfV.s 			page 21


 790              		.loc 1 359 7
 791 0162 3B69     		ldr	r3, [r7, #16]
 792 0164 5A01     		lsls	r2, r3, #5
 793 0166 FB68     		ldr	r3, [r7, #12]
 794 0168 1344     		add	r3, r3, r2
 795 016a 03F51063 		add	r3, r3, #2304
 796 016e 1A46     		mov	r2, r3
 797              		.loc 1 359 29
 798 0170 0023     		movs	r3, #0
 799 0172 1360     		str	r3, [r2]
 800              	.L49:
 360:STM32Cube_FW_N6/Drivers/STM32N6xx_HAL_Driver/Src/stm32n6xx_ll_usb.c ****     }
 361:STM32Cube_FW_N6/Drivers/STM32N6xx_HAL_Driver/Src/stm32n6xx_ll_usb.c **** 
 362:STM32Cube_FW_N6/Drivers/STM32N6xx_HAL_Driver/Src/stm32n6xx_ll_usb.c ****     USBx_INEP(i)->DIEPTSIZ = 0U;
 801              		.loc 1 362 5
 802 0174 3B69     		ldr	r3, [r7, #16]
 803 0176 5A01     		lsls	r2, r3, #5
 804 0178 FB68     		ldr	r3, [r7, #12]
 805 017a 1344     		add	r3, r3, r2
 806 017c 03F51063 		add	r3, r3, #2304
 807 0180 1A46     		mov	r2, r3
 808              		.loc 1 362 28
 809 0182 0023     		movs	r3, #0
 810 0184 1361     		str	r3, [r2, #16]
 363:STM32Cube_FW_N6/Drivers/STM32N6xx_HAL_Driver/Src/stm32n6xx_ll_usb.c ****     USBx_INEP(i)->DIEPINT  = 0xFB7FU;
 811              		.loc 1 363 5
 812 0186 3B69     		ldr	r3, [r7, #16]
 813 0188 5A01     		lsls	r2, r3, #5
 814 018a FB68     		ldr	r3, [r7, #12]
 815 018c 1344     		add	r3, r3, r2
 816 018e 03F51063 		add	r3, r3, #2304
 817 0192 1A46     		mov	r2, r3
 818              		.loc 1 363 28
 819 0194 4FF67F33 		movw	r3, #64383
 820 0198 9360     		str	r3, [r2, #8]
 344:STM32Cube_FW_N6/Drivers/STM32N6xx_HAL_Driver/Src/stm32n6xx_ll_usb.c ****   {
 821              		.loc 1 344 40 discriminator 2
 822 019a 3B69     		ldr	r3, [r7, #16]
 823 019c 0133     		adds	r3, r3, #1
 824 019e 3B61     		str	r3, [r7, #16]
 825              	.L46:
 344:STM32Cube_FW_N6/Drivers/STM32N6xx_HAL_Driver/Src/stm32n6xx_ll_usb.c ****   {
 826              		.loc 1 344 23 discriminator 1
 827 01a0 97F82430 		ldrb	r3, [r7, #36]	@ zero_extendqisi2
 828 01a4 1A46     		mov	r2, r3
 344:STM32Cube_FW_N6/Drivers/STM32N6xx_HAL_Driver/Src/stm32n6xx_ll_usb.c ****   {
 829              		.loc 1 344 18 discriminator 1
 830 01a6 3B69     		ldr	r3, [r7, #16]
 831 01a8 9342     		cmp	r3, r2
 832 01aa B5D3     		bcc	.L50
 364:STM32Cube_FW_N6/Drivers/STM32N6xx_HAL_Driver/Src/stm32n6xx_ll_usb.c ****   }
 365:STM32Cube_FW_N6/Drivers/STM32N6xx_HAL_Driver/Src/stm32n6xx_ll_usb.c **** 
 366:STM32Cube_FW_N6/Drivers/STM32N6xx_HAL_Driver/Src/stm32n6xx_ll_usb.c ****   for (i = 0U; i < cfg.dev_endpoints; i++)
 833              		.loc 1 366 10
 834 01ac 0023     		movs	r3, #0
 835 01ae 3B61     		str	r3, [r7, #16]
 836              		.loc 1 366 3
ARM GAS  /tmp/ccxt1UfV.s 			page 22


 837 01b0 43E0     		b	.L51
 838              	.L55:
 367:STM32Cube_FW_N6/Drivers/STM32N6xx_HAL_Driver/Src/stm32n6xx_ll_usb.c ****   {
 368:STM32Cube_FW_N6/Drivers/STM32N6xx_HAL_Driver/Src/stm32n6xx_ll_usb.c ****     if ((USBx_OUTEP(i)->DOEPCTL & USB_OTG_DOEPCTL_EPENA) == USB_OTG_DOEPCTL_EPENA)
 839              		.loc 1 368 10
 840 01b2 3B69     		ldr	r3, [r7, #16]
 841 01b4 5A01     		lsls	r2, r3, #5
 842 01b6 FB68     		ldr	r3, [r7, #12]
 843 01b8 1344     		add	r3, r3, r2
 844 01ba 03F53063 		add	r3, r3, #2816
 845              		.loc 1 368 23
 846 01be 1B68     		ldr	r3, [r3]
 847              		.loc 1 368 33
 848 01c0 03F00043 		and	r3, r3, #-2147483648
 849              		.loc 1 368 8
 850 01c4 B3F1004F 		cmp	r3, #-2147483648
 851 01c8 18D1     		bne	.L52
 369:STM32Cube_FW_N6/Drivers/STM32N6xx_HAL_Driver/Src/stm32n6xx_ll_usb.c ****     {
 370:STM32Cube_FW_N6/Drivers/STM32N6xx_HAL_Driver/Src/stm32n6xx_ll_usb.c ****       if (i == 0U)
 852              		.loc 1 370 10
 853 01ca 3B69     		ldr	r3, [r7, #16]
 854 01cc 002B     		cmp	r3, #0
 855 01ce 0AD1     		bne	.L53
 371:STM32Cube_FW_N6/Drivers/STM32N6xx_HAL_Driver/Src/stm32n6xx_ll_usb.c ****       {
 372:STM32Cube_FW_N6/Drivers/STM32N6xx_HAL_Driver/Src/stm32n6xx_ll_usb.c ****         USBx_OUTEP(i)->DOEPCTL = USB_OTG_DOEPCTL_SNAK;
 856              		.loc 1 372 9
 857 01d0 3B69     		ldr	r3, [r7, #16]
 858 01d2 5A01     		lsls	r2, r3, #5
 859 01d4 FB68     		ldr	r3, [r7, #12]
 860 01d6 1344     		add	r3, r3, r2
 861 01d8 03F53063 		add	r3, r3, #2816
 862 01dc 1A46     		mov	r2, r3
 863              		.loc 1 372 32
 864 01de 4FF00063 		mov	r3, #134217728
 865 01e2 1360     		str	r3, [r2]
 866 01e4 13E0     		b	.L54
 867              	.L53:
 373:STM32Cube_FW_N6/Drivers/STM32N6xx_HAL_Driver/Src/stm32n6xx_ll_usb.c ****       }
 374:STM32Cube_FW_N6/Drivers/STM32N6xx_HAL_Driver/Src/stm32n6xx_ll_usb.c ****       else
 375:STM32Cube_FW_N6/Drivers/STM32N6xx_HAL_Driver/Src/stm32n6xx_ll_usb.c ****       {
 376:STM32Cube_FW_N6/Drivers/STM32N6xx_HAL_Driver/Src/stm32n6xx_ll_usb.c ****         USBx_OUTEP(i)->DOEPCTL = USB_OTG_DOEPCTL_EPDIS | USB_OTG_DOEPCTL_SNAK;
 868              		.loc 1 376 9
 869 01e6 3B69     		ldr	r3, [r7, #16]
 870 01e8 5A01     		lsls	r2, r3, #5
 871 01ea FB68     		ldr	r3, [r7, #12]
 872 01ec 1344     		add	r3, r3, r2
 873 01ee 03F53063 		add	r3, r3, #2816
 874 01f2 1A46     		mov	r2, r3
 875              		.loc 1 376 32
 876 01f4 4FF09043 		mov	r3, #1207959552
 877 01f8 1360     		str	r3, [r2]
 878 01fa 08E0     		b	.L54
 879              	.L52:
 377:STM32Cube_FW_N6/Drivers/STM32N6xx_HAL_Driver/Src/stm32n6xx_ll_usb.c ****       }
 378:STM32Cube_FW_N6/Drivers/STM32N6xx_HAL_Driver/Src/stm32n6xx_ll_usb.c ****     }
 379:STM32Cube_FW_N6/Drivers/STM32N6xx_HAL_Driver/Src/stm32n6xx_ll_usb.c ****     else
 380:STM32Cube_FW_N6/Drivers/STM32N6xx_HAL_Driver/Src/stm32n6xx_ll_usb.c ****     {
ARM GAS  /tmp/ccxt1UfV.s 			page 23


 381:STM32Cube_FW_N6/Drivers/STM32N6xx_HAL_Driver/Src/stm32n6xx_ll_usb.c ****       USBx_OUTEP(i)->DOEPCTL = 0U;
 880              		.loc 1 381 7
 881 01fc 3B69     		ldr	r3, [r7, #16]
 882 01fe 5A01     		lsls	r2, r3, #5
 883 0200 FB68     		ldr	r3, [r7, #12]
 884 0202 1344     		add	r3, r3, r2
 885 0204 03F53063 		add	r3, r3, #2816
 886 0208 1A46     		mov	r2, r3
 887              		.loc 1 381 30
 888 020a 0023     		movs	r3, #0
 889 020c 1360     		str	r3, [r2]
 890              	.L54:
 382:STM32Cube_FW_N6/Drivers/STM32N6xx_HAL_Driver/Src/stm32n6xx_ll_usb.c ****     }
 383:STM32Cube_FW_N6/Drivers/STM32N6xx_HAL_Driver/Src/stm32n6xx_ll_usb.c **** 
 384:STM32Cube_FW_N6/Drivers/STM32N6xx_HAL_Driver/Src/stm32n6xx_ll_usb.c ****     USBx_OUTEP(i)->DOEPTSIZ = 0U;
 891              		.loc 1 384 5
 892 020e 3B69     		ldr	r3, [r7, #16]
 893 0210 5A01     		lsls	r2, r3, #5
 894 0212 FB68     		ldr	r3, [r7, #12]
 895 0214 1344     		add	r3, r3, r2
 896 0216 03F53063 		add	r3, r3, #2816
 897 021a 1A46     		mov	r2, r3
 898              		.loc 1 384 29
 899 021c 0023     		movs	r3, #0
 900 021e 1361     		str	r3, [r2, #16]
 385:STM32Cube_FW_N6/Drivers/STM32N6xx_HAL_Driver/Src/stm32n6xx_ll_usb.c ****     USBx_OUTEP(i)->DOEPINT  = 0xFB7FU;
 901              		.loc 1 385 5
 902 0220 3B69     		ldr	r3, [r7, #16]
 903 0222 5A01     		lsls	r2, r3, #5
 904 0224 FB68     		ldr	r3, [r7, #12]
 905 0226 1344     		add	r3, r3, r2
 906 0228 03F53063 		add	r3, r3, #2816
 907 022c 1A46     		mov	r2, r3
 908              		.loc 1 385 29
 909 022e 4FF67F33 		movw	r3, #64383
 910 0232 9360     		str	r3, [r2, #8]
 366:STM32Cube_FW_N6/Drivers/STM32N6xx_HAL_Driver/Src/stm32n6xx_ll_usb.c ****   {
 911              		.loc 1 366 40 discriminator 2
 912 0234 3B69     		ldr	r3, [r7, #16]
 913 0236 0133     		adds	r3, r3, #1
 914 0238 3B61     		str	r3, [r7, #16]
 915              	.L51:
 366:STM32Cube_FW_N6/Drivers/STM32N6xx_HAL_Driver/Src/stm32n6xx_ll_usb.c ****   {
 916              		.loc 1 366 23 discriminator 1
 917 023a 97F82430 		ldrb	r3, [r7, #36]	@ zero_extendqisi2
 918 023e 1A46     		mov	r2, r3
 366:STM32Cube_FW_N6/Drivers/STM32N6xx_HAL_Driver/Src/stm32n6xx_ll_usb.c ****   {
 919              		.loc 1 366 18 discriminator 1
 920 0240 3B69     		ldr	r3, [r7, #16]
 921 0242 9342     		cmp	r3, r2
 922 0244 B5D3     		bcc	.L55
 386:STM32Cube_FW_N6/Drivers/STM32N6xx_HAL_Driver/Src/stm32n6xx_ll_usb.c ****   }
 387:STM32Cube_FW_N6/Drivers/STM32N6xx_HAL_Driver/Src/stm32n6xx_ll_usb.c **** 
 388:STM32Cube_FW_N6/Drivers/STM32N6xx_HAL_Driver/Src/stm32n6xx_ll_usb.c ****   USBx_DEVICE->DIEPMSK &= ~(USB_OTG_DIEPMSK_TXFURM);
 923              		.loc 1 388 14
 924 0246 FB68     		ldr	r3, [r7, #12]
 925 0248 03F50063 		add	r3, r3, #2048
ARM GAS  /tmp/ccxt1UfV.s 			page 24


 926 024c 1B69     		ldr	r3, [r3, #16]
 927 024e FA68     		ldr	r2, [r7, #12]
 928 0250 02F50062 		add	r2, r2, #2048
 929              		.loc 1 388 24
 930 0254 23F48073 		bic	r3, r3, #256
 931 0258 1361     		str	r3, [r2, #16]
 389:STM32Cube_FW_N6/Drivers/STM32N6xx_HAL_Driver/Src/stm32n6xx_ll_usb.c **** 
 390:STM32Cube_FW_N6/Drivers/STM32N6xx_HAL_Driver/Src/stm32n6xx_ll_usb.c ****   /* Disable all interrupts. */
 391:STM32Cube_FW_N6/Drivers/STM32N6xx_HAL_Driver/Src/stm32n6xx_ll_usb.c ****   USBx->GINTMSK = 0U;
 932              		.loc 1 391 17
 933 025a 7B68     		ldr	r3, [r7, #4]
 934 025c 0022     		movs	r2, #0
 935 025e 9A61     		str	r2, [r3, #24]
 392:STM32Cube_FW_N6/Drivers/STM32N6xx_HAL_Driver/Src/stm32n6xx_ll_usb.c **** 
 393:STM32Cube_FW_N6/Drivers/STM32N6xx_HAL_Driver/Src/stm32n6xx_ll_usb.c ****   /* Clear any pending interrupts */
 394:STM32Cube_FW_N6/Drivers/STM32N6xx_HAL_Driver/Src/stm32n6xx_ll_usb.c ****   USBx->GINTSTS = 0xBFFFFFFFU;
 936              		.loc 1 394 17
 937 0260 7B68     		ldr	r3, [r7, #4]
 938 0262 6FF08042 		mvn	r2, #1073741824
 939 0266 5A61     		str	r2, [r3, #20]
 395:STM32Cube_FW_N6/Drivers/STM32N6xx_HAL_Driver/Src/stm32n6xx_ll_usb.c **** 
 396:STM32Cube_FW_N6/Drivers/STM32N6xx_HAL_Driver/Src/stm32n6xx_ll_usb.c ****   /* Enable the common interrupts */
 397:STM32Cube_FW_N6/Drivers/STM32N6xx_HAL_Driver/Src/stm32n6xx_ll_usb.c ****   if (cfg.dma_enable == 0U)
 940              		.loc 1 397 10
 941 0268 97F82630 		ldrb	r3, [r7, #38]	@ zero_extendqisi2
 942              		.loc 1 397 6
 943 026c 002B     		cmp	r3, #0
 944 026e 05D1     		bne	.L56
 398:STM32Cube_FW_N6/Drivers/STM32N6xx_HAL_Driver/Src/stm32n6xx_ll_usb.c ****   {
 399:STM32Cube_FW_N6/Drivers/STM32N6xx_HAL_Driver/Src/stm32n6xx_ll_usb.c ****     USBx->GINTMSK |= USB_OTG_GINTMSK_RXFLVLM;
 945              		.loc 1 399 9
 946 0270 7B68     		ldr	r3, [r7, #4]
 947 0272 9B69     		ldr	r3, [r3, #24]
 948              		.loc 1 399 19
 949 0274 43F01002 		orr	r2, r3, #16
 950 0278 7B68     		ldr	r3, [r7, #4]
 951 027a 9A61     		str	r2, [r3, #24]
 952              	.L56:
 400:STM32Cube_FW_N6/Drivers/STM32N6xx_HAL_Driver/Src/stm32n6xx_ll_usb.c ****   }
 401:STM32Cube_FW_N6/Drivers/STM32N6xx_HAL_Driver/Src/stm32n6xx_ll_usb.c **** 
 402:STM32Cube_FW_N6/Drivers/STM32N6xx_HAL_Driver/Src/stm32n6xx_ll_usb.c ****   /* Enable interrupts matching to the Device mode ONLY */
 403:STM32Cube_FW_N6/Drivers/STM32N6xx_HAL_Driver/Src/stm32n6xx_ll_usb.c ****   USBx->GINTMSK |= USB_OTG_GINTMSK_USBSUSPM | USB_OTG_GINTMSK_USBRST |
 953              		.loc 1 403 7
 954 027c 7B68     		ldr	r3, [r7, #4]
 955 027e 9A69     		ldr	r2, [r3, #24]
 956              		.loc 1 403 17
 957 0280 104B     		ldr	r3, .L60
 958 0282 1343     		orrs	r3, r3, r2
 959 0284 7A68     		ldr	r2, [r7, #4]
 960 0286 9361     		str	r3, [r2, #24]
 404:STM32Cube_FW_N6/Drivers/STM32N6xx_HAL_Driver/Src/stm32n6xx_ll_usb.c ****                    USB_OTG_GINTMSK_ENUMDNEM | USB_OTG_GINTMSK_IEPINT |
 405:STM32Cube_FW_N6/Drivers/STM32N6xx_HAL_Driver/Src/stm32n6xx_ll_usb.c ****                    USB_OTG_GINTMSK_OEPINT   | USB_OTG_GINTMSK_IISOIXFRM |
 406:STM32Cube_FW_N6/Drivers/STM32N6xx_HAL_Driver/Src/stm32n6xx_ll_usb.c ****                    USB_OTG_GINTMSK_PXFRM_IISOOXFRM | USB_OTG_GINTMSK_WUIM;
 407:STM32Cube_FW_N6/Drivers/STM32N6xx_HAL_Driver/Src/stm32n6xx_ll_usb.c **** 
 408:STM32Cube_FW_N6/Drivers/STM32N6xx_HAL_Driver/Src/stm32n6xx_ll_usb.c ****   if (cfg.Sof_enable != 0U)
 961              		.loc 1 408 10
 962 0288 97F82A30 		ldrb	r3, [r7, #42]	@ zero_extendqisi2
ARM GAS  /tmp/ccxt1UfV.s 			page 25


 963              		.loc 1 408 6
 964 028c 002B     		cmp	r3, #0
 965 028e 05D0     		beq	.L57
 409:STM32Cube_FW_N6/Drivers/STM32N6xx_HAL_Driver/Src/stm32n6xx_ll_usb.c ****   {
 410:STM32Cube_FW_N6/Drivers/STM32N6xx_HAL_Driver/Src/stm32n6xx_ll_usb.c ****     USBx->GINTMSK |= USB_OTG_GINTMSK_SOFM;
 966              		.loc 1 410 9
 967 0290 7B68     		ldr	r3, [r7, #4]
 968 0292 9B69     		ldr	r3, [r3, #24]
 969              		.loc 1 410 19
 970 0294 43F00802 		orr	r2, r3, #8
 971 0298 7B68     		ldr	r3, [r7, #4]
 972 029a 9A61     		str	r2, [r3, #24]
 973              	.L57:
 411:STM32Cube_FW_N6/Drivers/STM32N6xx_HAL_Driver/Src/stm32n6xx_ll_usb.c ****   }
 412:STM32Cube_FW_N6/Drivers/STM32N6xx_HAL_Driver/Src/stm32n6xx_ll_usb.c **** 
 413:STM32Cube_FW_N6/Drivers/STM32N6xx_HAL_Driver/Src/stm32n6xx_ll_usb.c ****   if (cfg.vbus_sensing_enable == 1U)
 974              		.loc 1 413 10
 975 029c 97F82E30 		ldrb	r3, [r7, #46]	@ zero_extendqisi2
 976              		.loc 1 413 6
 977 02a0 012B     		cmp	r3, #1
 978 02a2 07D1     		bne	.L58
 414:STM32Cube_FW_N6/Drivers/STM32N6xx_HAL_Driver/Src/stm32n6xx_ll_usb.c ****   {
 415:STM32Cube_FW_N6/Drivers/STM32N6xx_HAL_Driver/Src/stm32n6xx_ll_usb.c ****     USBx->GINTMSK |= (USB_OTG_GINTMSK_SRQIM | USB_OTG_GINTMSK_OTGINT);
 979              		.loc 1 415 9
 980 02a4 7B68     		ldr	r3, [r7, #4]
 981 02a6 9B69     		ldr	r3, [r3, #24]
 982              		.loc 1 415 19
 983 02a8 43F08043 		orr	r3, r3, #1073741824
 984 02ac 43F00403 		orr	r3, r3, #4
 985 02b0 7A68     		ldr	r2, [r7, #4]
 986 02b2 9361     		str	r3, [r2, #24]
 987              	.L58:
 416:STM32Cube_FW_N6/Drivers/STM32N6xx_HAL_Driver/Src/stm32n6xx_ll_usb.c ****   }
 417:STM32Cube_FW_N6/Drivers/STM32N6xx_HAL_Driver/Src/stm32n6xx_ll_usb.c **** 
 418:STM32Cube_FW_N6/Drivers/STM32N6xx_HAL_Driver/Src/stm32n6xx_ll_usb.c ****   return ret;
 988              		.loc 1 418 10
 989 02b4 FB7D     		ldrb	r3, [r7, #23]	@ zero_extendqisi2
 419:STM32Cube_FW_N6/Drivers/STM32N6xx_HAL_Driver/Src/stm32n6xx_ll_usb.c **** }
 990              		.loc 1 419 1
 991 02b6 1846     		mov	r0, r3
 992 02b8 1837     		adds	r7, r7, #24
 993              		.cfi_def_cfa_offset 24
 994 02ba BD46     		mov	sp, r7
 995              		.cfi_def_cfa_register 13
 996              		@ sp needed
 997 02bc BDE88040 		pop	{r7, lr}
 998              		.cfi_restore 14
 999              		.cfi_restore 7
 1000              		.cfi_def_cfa_offset 16
 1001 02c0 04B0     		add	sp, sp, #16
 1002              		.cfi_def_cfa_offset 0
 1003 02c2 7047     		bx	lr
 1004              	.L61:
 1005              		.align	2
 1006              	.L60:
 1007 02c4 00383C80 		.word	-2143537152
 1008              		.cfi_endproc
ARM GAS  /tmp/ccxt1UfV.s 			page 26


 1009              	.LFE840:
 1011              		.section	.text.USB_FlushTxFifo,"ax",%progbits
 1012              		.align	1
 1013              		.global	USB_FlushTxFifo
 1014              		.syntax unified
 1015              		.thumb
 1016              		.thumb_func
 1018              	USB_FlushTxFifo:
 1019              	.LFB841:
 420:STM32Cube_FW_N6/Drivers/STM32N6xx_HAL_Driver/Src/stm32n6xx_ll_usb.c **** 
 421:STM32Cube_FW_N6/Drivers/STM32N6xx_HAL_Driver/Src/stm32n6xx_ll_usb.c **** /**
 422:STM32Cube_FW_N6/Drivers/STM32N6xx_HAL_Driver/Src/stm32n6xx_ll_usb.c ****   * @brief  USB_FlushTxFifo Flush a Tx FIFO
 423:STM32Cube_FW_N6/Drivers/STM32N6xx_HAL_Driver/Src/stm32n6xx_ll_usb.c ****   * @param  USBx  Selected device
 424:STM32Cube_FW_N6/Drivers/STM32N6xx_HAL_Driver/Src/stm32n6xx_ll_usb.c ****   * @param  num  FIFO number
 425:STM32Cube_FW_N6/Drivers/STM32N6xx_HAL_Driver/Src/stm32n6xx_ll_usb.c ****   *         This parameter can be a value from 1 to 15
 426:STM32Cube_FW_N6/Drivers/STM32N6xx_HAL_Driver/Src/stm32n6xx_ll_usb.c ****             15 means Flush all Tx FIFOs
 427:STM32Cube_FW_N6/Drivers/STM32N6xx_HAL_Driver/Src/stm32n6xx_ll_usb.c ****   * @retval HAL status
 428:STM32Cube_FW_N6/Drivers/STM32N6xx_HAL_Driver/Src/stm32n6xx_ll_usb.c ****   */
 429:STM32Cube_FW_N6/Drivers/STM32N6xx_HAL_Driver/Src/stm32n6xx_ll_usb.c **** HAL_StatusTypeDef USB_FlushTxFifo(USB_OTG_GlobalTypeDef *USBx, uint32_t num)
 430:STM32Cube_FW_N6/Drivers/STM32N6xx_HAL_Driver/Src/stm32n6xx_ll_usb.c **** {
 1020              		.loc 1 430 1
 1021              		.cfi_startproc
 1022              		@ args = 0, pretend = 0, frame = 16
 1023              		@ frame_needed = 1, uses_anonymous_args = 0
 1024              		@ link register save eliminated.
 1025 0000 80B4     		push	{r7}
 1026              		.cfi_def_cfa_offset 4
 1027              		.cfi_offset 7, -4
 1028 0002 85B0     		sub	sp, sp, #20
 1029              		.cfi_def_cfa_offset 24
 1030 0004 00AF     		add	r7, sp, #0
 1031              		.cfi_def_cfa_register 7
 1032 0006 7860     		str	r0, [r7, #4]
 1033 0008 3960     		str	r1, [r7]
 431:STM32Cube_FW_N6/Drivers/STM32N6xx_HAL_Driver/Src/stm32n6xx_ll_usb.c ****   __IO uint32_t count = 0U;
 1034              		.loc 1 431 17
 1035 000a 0023     		movs	r3, #0
 1036 000c FB60     		str	r3, [r7, #12]
 1037              	.L65:
 432:STM32Cube_FW_N6/Drivers/STM32N6xx_HAL_Driver/Src/stm32n6xx_ll_usb.c **** 
 433:STM32Cube_FW_N6/Drivers/STM32N6xx_HAL_Driver/Src/stm32n6xx_ll_usb.c ****   /* Wait for AHB master IDLE state. */
 434:STM32Cube_FW_N6/Drivers/STM32N6xx_HAL_Driver/Src/stm32n6xx_ll_usb.c ****   do
 435:STM32Cube_FW_N6/Drivers/STM32N6xx_HAL_Driver/Src/stm32n6xx_ll_usb.c ****   {
 436:STM32Cube_FW_N6/Drivers/STM32N6xx_HAL_Driver/Src/stm32n6xx_ll_usb.c ****     count++;
 1038              		.loc 1 436 10
 1039 000e FB68     		ldr	r3, [r7, #12]
 1040 0010 0133     		adds	r3, r3, #1
 1041 0012 FB60     		str	r3, [r7, #12]
 437:STM32Cube_FW_N6/Drivers/STM32N6xx_HAL_Driver/Src/stm32n6xx_ll_usb.c **** 
 438:STM32Cube_FW_N6/Drivers/STM32N6xx_HAL_Driver/Src/stm32n6xx_ll_usb.c ****     if (count > HAL_USB_TIMEOUT)
 1042              		.loc 1 438 15
 1043 0014 FB68     		ldr	r3, [r7, #12]
 1044              		.loc 1 438 8
 1045 0016 B3F1706F 		cmp	r3, #251658240
 1046 001a 01D9     		bls	.L63
 439:STM32Cube_FW_N6/Drivers/STM32N6xx_HAL_Driver/Src/stm32n6xx_ll_usb.c ****     {
 440:STM32Cube_FW_N6/Drivers/STM32N6xx_HAL_Driver/Src/stm32n6xx_ll_usb.c ****       return HAL_TIMEOUT;
ARM GAS  /tmp/ccxt1UfV.s 			page 27


 1047              		.loc 1 440 14
 1048 001c 0323     		movs	r3, #3
 1049 001e 1BE0     		b	.L64
 1050              	.L63:
 441:STM32Cube_FW_N6/Drivers/STM32N6xx_HAL_Driver/Src/stm32n6xx_ll_usb.c ****     }
 442:STM32Cube_FW_N6/Drivers/STM32N6xx_HAL_Driver/Src/stm32n6xx_ll_usb.c ****   } while ((USBx->GRSTCTL & USB_OTG_GRSTCTL_AHBIDL) == 0U);
 1051              		.loc 1 442 17
 1052 0020 7B68     		ldr	r3, [r7, #4]
 1053 0022 1B69     		ldr	r3, [r3, #16]
 1054              		.loc 1 442 53
 1055 0024 002B     		cmp	r3, #0
 1056 0026 F2DA     		bge	.L65
 443:STM32Cube_FW_N6/Drivers/STM32N6xx_HAL_Driver/Src/stm32n6xx_ll_usb.c **** 
 444:STM32Cube_FW_N6/Drivers/STM32N6xx_HAL_Driver/Src/stm32n6xx_ll_usb.c ****   /* Flush TX Fifo */
 445:STM32Cube_FW_N6/Drivers/STM32N6xx_HAL_Driver/Src/stm32n6xx_ll_usb.c ****   count = 0U;
 1057              		.loc 1 445 9
 1058 0028 0023     		movs	r3, #0
 1059 002a FB60     		str	r3, [r7, #12]
 446:STM32Cube_FW_N6/Drivers/STM32N6xx_HAL_Driver/Src/stm32n6xx_ll_usb.c ****   USBx->GRSTCTL = (USB_OTG_GRSTCTL_TXFFLSH | (num << 6));
 1060              		.loc 1 446 51
 1061 002c 3B68     		ldr	r3, [r7]
 1062 002e 9B01     		lsls	r3, r3, #6
 1063              		.loc 1 446 44
 1064 0030 43F02002 		orr	r2, r3, #32
 1065              		.loc 1 446 17
 1066 0034 7B68     		ldr	r3, [r7, #4]
 1067 0036 1A61     		str	r2, [r3, #16]
 1068              	.L67:
 447:STM32Cube_FW_N6/Drivers/STM32N6xx_HAL_Driver/Src/stm32n6xx_ll_usb.c **** 
 448:STM32Cube_FW_N6/Drivers/STM32N6xx_HAL_Driver/Src/stm32n6xx_ll_usb.c ****   do
 449:STM32Cube_FW_N6/Drivers/STM32N6xx_HAL_Driver/Src/stm32n6xx_ll_usb.c ****   {
 450:STM32Cube_FW_N6/Drivers/STM32N6xx_HAL_Driver/Src/stm32n6xx_ll_usb.c ****     count++;
 1069              		.loc 1 450 10
 1070 0038 FB68     		ldr	r3, [r7, #12]
 1071 003a 0133     		adds	r3, r3, #1
 1072 003c FB60     		str	r3, [r7, #12]
 451:STM32Cube_FW_N6/Drivers/STM32N6xx_HAL_Driver/Src/stm32n6xx_ll_usb.c **** 
 452:STM32Cube_FW_N6/Drivers/STM32N6xx_HAL_Driver/Src/stm32n6xx_ll_usb.c ****     if (count > HAL_USB_TIMEOUT)
 1073              		.loc 1 452 15
 1074 003e FB68     		ldr	r3, [r7, #12]
 1075              		.loc 1 452 8
 1076 0040 B3F1706F 		cmp	r3, #251658240
 1077 0044 01D9     		bls	.L66
 453:STM32Cube_FW_N6/Drivers/STM32N6xx_HAL_Driver/Src/stm32n6xx_ll_usb.c ****     {
 454:STM32Cube_FW_N6/Drivers/STM32N6xx_HAL_Driver/Src/stm32n6xx_ll_usb.c ****       return HAL_TIMEOUT;
 1078              		.loc 1 454 14
 1079 0046 0323     		movs	r3, #3
 1080 0048 06E0     		b	.L64
 1081              	.L66:
 455:STM32Cube_FW_N6/Drivers/STM32N6xx_HAL_Driver/Src/stm32n6xx_ll_usb.c ****     }
 456:STM32Cube_FW_N6/Drivers/STM32N6xx_HAL_Driver/Src/stm32n6xx_ll_usb.c ****   } while ((USBx->GRSTCTL & USB_OTG_GRSTCTL_TXFFLSH) == USB_OTG_GRSTCTL_TXFFLSH);
 1082              		.loc 1 456 17
 1083 004a 7B68     		ldr	r3, [r7, #4]
 1084 004c 1B69     		ldr	r3, [r3, #16]
 1085              		.loc 1 456 27
 1086 004e 03F02003 		and	r3, r3, #32
 1087              		.loc 1 456 54
ARM GAS  /tmp/ccxt1UfV.s 			page 28


 1088 0052 202B     		cmp	r3, #32
 1089 0054 F0D0     		beq	.L67
 457:STM32Cube_FW_N6/Drivers/STM32N6xx_HAL_Driver/Src/stm32n6xx_ll_usb.c **** 
 458:STM32Cube_FW_N6/Drivers/STM32N6xx_HAL_Driver/Src/stm32n6xx_ll_usb.c ****   return HAL_OK;
 1090              		.loc 1 458 10
 1091 0056 0023     		movs	r3, #0
 1092              	.L64:
 459:STM32Cube_FW_N6/Drivers/STM32N6xx_HAL_Driver/Src/stm32n6xx_ll_usb.c **** }
 1093              		.loc 1 459 1
 1094 0058 1846     		mov	r0, r3
 1095 005a 1437     		adds	r7, r7, #20
 1096              		.cfi_def_cfa_offset 4
 1097 005c BD46     		mov	sp, r7
 1098              		.cfi_def_cfa_register 13
 1099              		@ sp needed
 1100 005e 5DF8047B 		ldr	r7, [sp], #4
 1101              		.cfi_restore 7
 1102              		.cfi_def_cfa_offset 0
 1103 0062 7047     		bx	lr
 1104              		.cfi_endproc
 1105              	.LFE841:
 1107              		.section	.text.USB_FlushRxFifo,"ax",%progbits
 1108              		.align	1
 1109              		.global	USB_FlushRxFifo
 1110              		.syntax unified
 1111              		.thumb
 1112              		.thumb_func
 1114              	USB_FlushRxFifo:
 1115              	.LFB842:
 460:STM32Cube_FW_N6/Drivers/STM32N6xx_HAL_Driver/Src/stm32n6xx_ll_usb.c **** 
 461:STM32Cube_FW_N6/Drivers/STM32N6xx_HAL_Driver/Src/stm32n6xx_ll_usb.c **** /**
 462:STM32Cube_FW_N6/Drivers/STM32N6xx_HAL_Driver/Src/stm32n6xx_ll_usb.c ****   * @brief  USB_FlushRxFifo  Flush Rx FIFO
 463:STM32Cube_FW_N6/Drivers/STM32N6xx_HAL_Driver/Src/stm32n6xx_ll_usb.c ****   * @param  USBx  Selected device
 464:STM32Cube_FW_N6/Drivers/STM32N6xx_HAL_Driver/Src/stm32n6xx_ll_usb.c ****   * @retval HAL status
 465:STM32Cube_FW_N6/Drivers/STM32N6xx_HAL_Driver/Src/stm32n6xx_ll_usb.c ****   */
 466:STM32Cube_FW_N6/Drivers/STM32N6xx_HAL_Driver/Src/stm32n6xx_ll_usb.c **** HAL_StatusTypeDef USB_FlushRxFifo(USB_OTG_GlobalTypeDef *USBx)
 467:STM32Cube_FW_N6/Drivers/STM32N6xx_HAL_Driver/Src/stm32n6xx_ll_usb.c **** {
 1116              		.loc 1 467 1
 1117              		.cfi_startproc
 1118              		@ args = 0, pretend = 0, frame = 16
 1119              		@ frame_needed = 1, uses_anonymous_args = 0
 1120              		@ link register save eliminated.
 1121 0000 80B4     		push	{r7}
 1122              		.cfi_def_cfa_offset 4
 1123              		.cfi_offset 7, -4
 1124 0002 85B0     		sub	sp, sp, #20
 1125              		.cfi_def_cfa_offset 24
 1126 0004 00AF     		add	r7, sp, #0
 1127              		.cfi_def_cfa_register 7
 1128 0006 7860     		str	r0, [r7, #4]
 468:STM32Cube_FW_N6/Drivers/STM32N6xx_HAL_Driver/Src/stm32n6xx_ll_usb.c ****   __IO uint32_t count = 0U;
 1129              		.loc 1 468 17
 1130 0008 0023     		movs	r3, #0
 1131 000a FB60     		str	r3, [r7, #12]
 1132              	.L71:
 469:STM32Cube_FW_N6/Drivers/STM32N6xx_HAL_Driver/Src/stm32n6xx_ll_usb.c **** 
 470:STM32Cube_FW_N6/Drivers/STM32N6xx_HAL_Driver/Src/stm32n6xx_ll_usb.c ****   /* Wait for AHB master IDLE state. */
ARM GAS  /tmp/ccxt1UfV.s 			page 29


 471:STM32Cube_FW_N6/Drivers/STM32N6xx_HAL_Driver/Src/stm32n6xx_ll_usb.c ****   do
 472:STM32Cube_FW_N6/Drivers/STM32N6xx_HAL_Driver/Src/stm32n6xx_ll_usb.c ****   {
 473:STM32Cube_FW_N6/Drivers/STM32N6xx_HAL_Driver/Src/stm32n6xx_ll_usb.c ****     count++;
 1133              		.loc 1 473 10
 1134 000c FB68     		ldr	r3, [r7, #12]
 1135 000e 0133     		adds	r3, r3, #1
 1136 0010 FB60     		str	r3, [r7, #12]
 474:STM32Cube_FW_N6/Drivers/STM32N6xx_HAL_Driver/Src/stm32n6xx_ll_usb.c **** 
 475:STM32Cube_FW_N6/Drivers/STM32N6xx_HAL_Driver/Src/stm32n6xx_ll_usb.c ****     if (count > HAL_USB_TIMEOUT)
 1137              		.loc 1 475 15
 1138 0012 FB68     		ldr	r3, [r7, #12]
 1139              		.loc 1 475 8
 1140 0014 B3F1706F 		cmp	r3, #251658240
 1141 0018 01D9     		bls	.L69
 476:STM32Cube_FW_N6/Drivers/STM32N6xx_HAL_Driver/Src/stm32n6xx_ll_usb.c ****     {
 477:STM32Cube_FW_N6/Drivers/STM32N6xx_HAL_Driver/Src/stm32n6xx_ll_usb.c ****       return HAL_TIMEOUT;
 1142              		.loc 1 477 14
 1143 001a 0323     		movs	r3, #3
 1144 001c 18E0     		b	.L70
 1145              	.L69:
 478:STM32Cube_FW_N6/Drivers/STM32N6xx_HAL_Driver/Src/stm32n6xx_ll_usb.c ****     }
 479:STM32Cube_FW_N6/Drivers/STM32N6xx_HAL_Driver/Src/stm32n6xx_ll_usb.c ****   } while ((USBx->GRSTCTL & USB_OTG_GRSTCTL_AHBIDL) == 0U);
 1146              		.loc 1 479 17
 1147 001e 7B68     		ldr	r3, [r7, #4]
 1148 0020 1B69     		ldr	r3, [r3, #16]
 1149              		.loc 1 479 53
 1150 0022 002B     		cmp	r3, #0
 1151 0024 F2DA     		bge	.L71
 480:STM32Cube_FW_N6/Drivers/STM32N6xx_HAL_Driver/Src/stm32n6xx_ll_usb.c **** 
 481:STM32Cube_FW_N6/Drivers/STM32N6xx_HAL_Driver/Src/stm32n6xx_ll_usb.c ****   /* Flush RX Fifo */
 482:STM32Cube_FW_N6/Drivers/STM32N6xx_HAL_Driver/Src/stm32n6xx_ll_usb.c ****   count = 0U;
 1152              		.loc 1 482 9
 1153 0026 0023     		movs	r3, #0
 1154 0028 FB60     		str	r3, [r7, #12]
 483:STM32Cube_FW_N6/Drivers/STM32N6xx_HAL_Driver/Src/stm32n6xx_ll_usb.c ****   USBx->GRSTCTL = USB_OTG_GRSTCTL_RXFFLSH;
 1155              		.loc 1 483 17
 1156 002a 7B68     		ldr	r3, [r7, #4]
 1157 002c 1022     		movs	r2, #16
 1158 002e 1A61     		str	r2, [r3, #16]
 1159              	.L73:
 484:STM32Cube_FW_N6/Drivers/STM32N6xx_HAL_Driver/Src/stm32n6xx_ll_usb.c **** 
 485:STM32Cube_FW_N6/Drivers/STM32N6xx_HAL_Driver/Src/stm32n6xx_ll_usb.c ****   do
 486:STM32Cube_FW_N6/Drivers/STM32N6xx_HAL_Driver/Src/stm32n6xx_ll_usb.c ****   {
 487:STM32Cube_FW_N6/Drivers/STM32N6xx_HAL_Driver/Src/stm32n6xx_ll_usb.c ****     count++;
 1160              		.loc 1 487 10
 1161 0030 FB68     		ldr	r3, [r7, #12]
 1162 0032 0133     		adds	r3, r3, #1
 1163 0034 FB60     		str	r3, [r7, #12]
 488:STM32Cube_FW_N6/Drivers/STM32N6xx_HAL_Driver/Src/stm32n6xx_ll_usb.c **** 
 489:STM32Cube_FW_N6/Drivers/STM32N6xx_HAL_Driver/Src/stm32n6xx_ll_usb.c ****     if (count > HAL_USB_TIMEOUT)
 1164              		.loc 1 489 15
 1165 0036 FB68     		ldr	r3, [r7, #12]
 1166              		.loc 1 489 8
 1167 0038 B3F1706F 		cmp	r3, #251658240
 1168 003c 01D9     		bls	.L72
 490:STM32Cube_FW_N6/Drivers/STM32N6xx_HAL_Driver/Src/stm32n6xx_ll_usb.c ****     {
 491:STM32Cube_FW_N6/Drivers/STM32N6xx_HAL_Driver/Src/stm32n6xx_ll_usb.c ****       return HAL_TIMEOUT;
ARM GAS  /tmp/ccxt1UfV.s 			page 30


 1169              		.loc 1 491 14
 1170 003e 0323     		movs	r3, #3
 1171 0040 06E0     		b	.L70
 1172              	.L72:
 492:STM32Cube_FW_N6/Drivers/STM32N6xx_HAL_Driver/Src/stm32n6xx_ll_usb.c ****     }
 493:STM32Cube_FW_N6/Drivers/STM32N6xx_HAL_Driver/Src/stm32n6xx_ll_usb.c ****   } while ((USBx->GRSTCTL & USB_OTG_GRSTCTL_RXFFLSH) == USB_OTG_GRSTCTL_RXFFLSH);
 1173              		.loc 1 493 17
 1174 0042 7B68     		ldr	r3, [r7, #4]
 1175 0044 1B69     		ldr	r3, [r3, #16]
 1176              		.loc 1 493 27
 1177 0046 03F01003 		and	r3, r3, #16
 1178              		.loc 1 493 54
 1179 004a 102B     		cmp	r3, #16
 1180 004c F0D0     		beq	.L73
 494:STM32Cube_FW_N6/Drivers/STM32N6xx_HAL_Driver/Src/stm32n6xx_ll_usb.c **** 
 495:STM32Cube_FW_N6/Drivers/STM32N6xx_HAL_Driver/Src/stm32n6xx_ll_usb.c ****   return HAL_OK;
 1181              		.loc 1 495 10
 1182 004e 0023     		movs	r3, #0
 1183              	.L70:
 496:STM32Cube_FW_N6/Drivers/STM32N6xx_HAL_Driver/Src/stm32n6xx_ll_usb.c **** }
 1184              		.loc 1 496 1
 1185 0050 1846     		mov	r0, r3
 1186 0052 1437     		adds	r7, r7, #20
 1187              		.cfi_def_cfa_offset 4
 1188 0054 BD46     		mov	sp, r7
 1189              		.cfi_def_cfa_register 13
 1190              		@ sp needed
 1191 0056 5DF8047B 		ldr	r7, [sp], #4
 1192              		.cfi_restore 7
 1193              		.cfi_def_cfa_offset 0
 1194 005a 7047     		bx	lr
 1195              		.cfi_endproc
 1196              	.LFE842:
 1198              		.section	.text.USB_SetDevSpeed,"ax",%progbits
 1199              		.align	1
 1200              		.global	USB_SetDevSpeed
 1201              		.syntax unified
 1202              		.thumb
 1203              		.thumb_func
 1205              	USB_SetDevSpeed:
 1206              	.LFB843:
 497:STM32Cube_FW_N6/Drivers/STM32N6xx_HAL_Driver/Src/stm32n6xx_ll_usb.c **** 
 498:STM32Cube_FW_N6/Drivers/STM32N6xx_HAL_Driver/Src/stm32n6xx_ll_usb.c **** /**
 499:STM32Cube_FW_N6/Drivers/STM32N6xx_HAL_Driver/Src/stm32n6xx_ll_usb.c ****   * @brief  USB_SetDevSpeed  Initializes the DevSpd field of DCFG register
 500:STM32Cube_FW_N6/Drivers/STM32N6xx_HAL_Driver/Src/stm32n6xx_ll_usb.c ****   *         depending the PHY type and the enumeration speed of the device.
 501:STM32Cube_FW_N6/Drivers/STM32N6xx_HAL_Driver/Src/stm32n6xx_ll_usb.c ****   * @param  USBx  Selected device
 502:STM32Cube_FW_N6/Drivers/STM32N6xx_HAL_Driver/Src/stm32n6xx_ll_usb.c ****   * @param  speed  device speed
 503:STM32Cube_FW_N6/Drivers/STM32N6xx_HAL_Driver/Src/stm32n6xx_ll_usb.c ****   *          This parameter can be one of these values:
 504:STM32Cube_FW_N6/Drivers/STM32N6xx_HAL_Driver/Src/stm32n6xx_ll_usb.c ****   *            @arg USB_OTG_SPEED_HIGH: High speed mode
 505:STM32Cube_FW_N6/Drivers/STM32N6xx_HAL_Driver/Src/stm32n6xx_ll_usb.c ****   *            @arg USB_OTG_SPEED_HIGH_IN_FULL: High speed core in Full Speed mode
 506:STM32Cube_FW_N6/Drivers/STM32N6xx_HAL_Driver/Src/stm32n6xx_ll_usb.c ****   *            @arg USB_OTG_SPEED_FULL: Full speed mode
 507:STM32Cube_FW_N6/Drivers/STM32N6xx_HAL_Driver/Src/stm32n6xx_ll_usb.c ****   * @retval  Hal status
 508:STM32Cube_FW_N6/Drivers/STM32N6xx_HAL_Driver/Src/stm32n6xx_ll_usb.c ****   */
 509:STM32Cube_FW_N6/Drivers/STM32N6xx_HAL_Driver/Src/stm32n6xx_ll_usb.c **** HAL_StatusTypeDef USB_SetDevSpeed(const USB_OTG_GlobalTypeDef *USBx, uint8_t speed)
 510:STM32Cube_FW_N6/Drivers/STM32N6xx_HAL_Driver/Src/stm32n6xx_ll_usb.c **** {
 1207              		.loc 1 510 1
 1208              		.cfi_startproc
ARM GAS  /tmp/ccxt1UfV.s 			page 31


 1209              		@ args = 0, pretend = 0, frame = 16
 1210              		@ frame_needed = 1, uses_anonymous_args = 0
 1211              		@ link register save eliminated.
 1212 0000 80B4     		push	{r7}
 1213              		.cfi_def_cfa_offset 4
 1214              		.cfi_offset 7, -4
 1215 0002 85B0     		sub	sp, sp, #20
 1216              		.cfi_def_cfa_offset 24
 1217 0004 00AF     		add	r7, sp, #0
 1218              		.cfi_def_cfa_register 7
 1219 0006 7860     		str	r0, [r7, #4]
 1220 0008 0B46     		mov	r3, r1
 1221 000a FB70     		strb	r3, [r7, #3]
 511:STM32Cube_FW_N6/Drivers/STM32N6xx_HAL_Driver/Src/stm32n6xx_ll_usb.c ****   uint32_t USBx_BASE = (uint32_t)USBx;
 1222              		.loc 1 511 12
 1223 000c 7B68     		ldr	r3, [r7, #4]
 1224 000e FB60     		str	r3, [r7, #12]
 512:STM32Cube_FW_N6/Drivers/STM32N6xx_HAL_Driver/Src/stm32n6xx_ll_usb.c **** 
 513:STM32Cube_FW_N6/Drivers/STM32N6xx_HAL_Driver/Src/stm32n6xx_ll_usb.c ****   USBx_DEVICE->DCFG |= speed;
 1225              		.loc 1 513 14
 1226 0010 FB68     		ldr	r3, [r7, #12]
 1227 0012 03F50063 		add	r3, r3, #2048
 1228 0016 1A68     		ldr	r2, [r3]
 1229              		.loc 1 513 21
 1230 0018 FB78     		ldrb	r3, [r7, #3]	@ zero_extendqisi2
 1231              		.loc 1 513 14
 1232 001a F968     		ldr	r1, [r7, #12]
 1233 001c 01F50061 		add	r1, r1, #2048
 1234              		.loc 1 513 21
 1235 0020 1343     		orrs	r3, r3, r2
 1236 0022 0B60     		str	r3, [r1]
 514:STM32Cube_FW_N6/Drivers/STM32N6xx_HAL_Driver/Src/stm32n6xx_ll_usb.c ****   return HAL_OK;
 1237              		.loc 1 514 10
 1238 0024 0023     		movs	r3, #0
 515:STM32Cube_FW_N6/Drivers/STM32N6xx_HAL_Driver/Src/stm32n6xx_ll_usb.c **** }
 1239              		.loc 1 515 1
 1240 0026 1846     		mov	r0, r3
 1241 0028 1437     		adds	r7, r7, #20
 1242              		.cfi_def_cfa_offset 4
 1243 002a BD46     		mov	sp, r7
 1244              		.cfi_def_cfa_register 13
 1245              		@ sp needed
 1246 002c 5DF8047B 		ldr	r7, [sp], #4
 1247              		.cfi_restore 7
 1248              		.cfi_def_cfa_offset 0
 1249 0030 7047     		bx	lr
 1250              		.cfi_endproc
 1251              	.LFE843:
 1253              		.section	.text.USB_GetDevSpeed,"ax",%progbits
 1254              		.align	1
 1255              		.global	USB_GetDevSpeed
 1256              		.syntax unified
 1257              		.thumb
 1258              		.thumb_func
 1260              	USB_GetDevSpeed:
 1261              	.LFB844:
 516:STM32Cube_FW_N6/Drivers/STM32N6xx_HAL_Driver/Src/stm32n6xx_ll_usb.c **** 
ARM GAS  /tmp/ccxt1UfV.s 			page 32


 517:STM32Cube_FW_N6/Drivers/STM32N6xx_HAL_Driver/Src/stm32n6xx_ll_usb.c **** /**
 518:STM32Cube_FW_N6/Drivers/STM32N6xx_HAL_Driver/Src/stm32n6xx_ll_usb.c ****   * @brief  USB_GetDevSpeed  Return the Dev Speed
 519:STM32Cube_FW_N6/Drivers/STM32N6xx_HAL_Driver/Src/stm32n6xx_ll_usb.c ****   * @param  USBx  Selected device
 520:STM32Cube_FW_N6/Drivers/STM32N6xx_HAL_Driver/Src/stm32n6xx_ll_usb.c ****   * @retval speed  device speed
 521:STM32Cube_FW_N6/Drivers/STM32N6xx_HAL_Driver/Src/stm32n6xx_ll_usb.c ****   *          This parameter can be one of these values:
 522:STM32Cube_FW_N6/Drivers/STM32N6xx_HAL_Driver/Src/stm32n6xx_ll_usb.c ****   *            @arg USBD_HS_SPEED: High speed mode
 523:STM32Cube_FW_N6/Drivers/STM32N6xx_HAL_Driver/Src/stm32n6xx_ll_usb.c ****   *            @arg USBD_FS_SPEED: Full speed mode
 524:STM32Cube_FW_N6/Drivers/STM32N6xx_HAL_Driver/Src/stm32n6xx_ll_usb.c ****   */
 525:STM32Cube_FW_N6/Drivers/STM32N6xx_HAL_Driver/Src/stm32n6xx_ll_usb.c **** uint8_t USB_GetDevSpeed(const USB_OTG_GlobalTypeDef *USBx)
 526:STM32Cube_FW_N6/Drivers/STM32N6xx_HAL_Driver/Src/stm32n6xx_ll_usb.c **** {
 1262              		.loc 1 526 1
 1263              		.cfi_startproc
 1264              		@ args = 0, pretend = 0, frame = 24
 1265              		@ frame_needed = 1, uses_anonymous_args = 0
 1266              		@ link register save eliminated.
 1267 0000 80B4     		push	{r7}
 1268              		.cfi_def_cfa_offset 4
 1269              		.cfi_offset 7, -4
 1270 0002 87B0     		sub	sp, sp, #28
 1271              		.cfi_def_cfa_offset 32
 1272 0004 00AF     		add	r7, sp, #0
 1273              		.cfi_def_cfa_register 7
 1274 0006 7860     		str	r0, [r7, #4]
 527:STM32Cube_FW_N6/Drivers/STM32N6xx_HAL_Driver/Src/stm32n6xx_ll_usb.c ****   uint32_t USBx_BASE = (uint32_t)USBx;
 1275              		.loc 1 527 12
 1276 0008 7B68     		ldr	r3, [r7, #4]
 1277 000a 3B61     		str	r3, [r7, #16]
 528:STM32Cube_FW_N6/Drivers/STM32N6xx_HAL_Driver/Src/stm32n6xx_ll_usb.c ****   uint8_t speed;
 529:STM32Cube_FW_N6/Drivers/STM32N6xx_HAL_Driver/Src/stm32n6xx_ll_usb.c ****   uint32_t DevEnumSpeed = USBx_DEVICE->DSTS & USB_OTG_DSTS_ENUMSPD;
 1278              		.loc 1 529 27
 1279 000c 3B69     		ldr	r3, [r7, #16]
 1280 000e 03F50063 		add	r3, r3, #2048
 1281              		.loc 1 529 38
 1282 0012 9B68     		ldr	r3, [r3, #8]
 1283              		.loc 1 529 12
 1284 0014 03F00603 		and	r3, r3, #6
 1285 0018 FB60     		str	r3, [r7, #12]
 530:STM32Cube_FW_N6/Drivers/STM32N6xx_HAL_Driver/Src/stm32n6xx_ll_usb.c **** 
 531:STM32Cube_FW_N6/Drivers/STM32N6xx_HAL_Driver/Src/stm32n6xx_ll_usb.c ****   if (DevEnumSpeed == DSTS_ENUMSPD_HS_PHY_30MHZ_OR_60MHZ)
 1286              		.loc 1 531 6
 1287 001a FB68     		ldr	r3, [r7, #12]
 1288 001c 002B     		cmp	r3, #0
 1289 001e 02D1     		bne	.L77
 532:STM32Cube_FW_N6/Drivers/STM32N6xx_HAL_Driver/Src/stm32n6xx_ll_usb.c ****   {
 533:STM32Cube_FW_N6/Drivers/STM32N6xx_HAL_Driver/Src/stm32n6xx_ll_usb.c ****     speed = USBD_HS_SPEED;
 1290              		.loc 1 533 11
 1291 0020 0023     		movs	r3, #0
 1292 0022 FB75     		strb	r3, [r7, #23]
 1293 0024 0AE0     		b	.L78
 1294              	.L77:
 534:STM32Cube_FW_N6/Drivers/STM32N6xx_HAL_Driver/Src/stm32n6xx_ll_usb.c ****   }
 535:STM32Cube_FW_N6/Drivers/STM32N6xx_HAL_Driver/Src/stm32n6xx_ll_usb.c ****   else if ((DevEnumSpeed == DSTS_ENUMSPD_FS_PHY_30MHZ_OR_60MHZ) ||
 1295              		.loc 1 535 11
 1296 0026 FB68     		ldr	r3, [r7, #12]
 1297 0028 022B     		cmp	r3, #2
 1298 002a 02D0     		beq	.L79
 1299              		.loc 1 535 65 discriminator 1
ARM GAS  /tmp/ccxt1UfV.s 			page 33


 1300 002c FB68     		ldr	r3, [r7, #12]
 1301 002e 062B     		cmp	r3, #6
 1302 0030 02D1     		bne	.L80
 1303              	.L79:
 536:STM32Cube_FW_N6/Drivers/STM32N6xx_HAL_Driver/Src/stm32n6xx_ll_usb.c ****            (DevEnumSpeed == DSTS_ENUMSPD_FS_PHY_48MHZ))
 537:STM32Cube_FW_N6/Drivers/STM32N6xx_HAL_Driver/Src/stm32n6xx_ll_usb.c ****   {
 538:STM32Cube_FW_N6/Drivers/STM32N6xx_HAL_Driver/Src/stm32n6xx_ll_usb.c ****     speed = USBD_FS_SPEED;
 1304              		.loc 1 538 11
 1305 0032 0223     		movs	r3, #2
 1306 0034 FB75     		strb	r3, [r7, #23]
 1307 0036 01E0     		b	.L78
 1308              	.L80:
 539:STM32Cube_FW_N6/Drivers/STM32N6xx_HAL_Driver/Src/stm32n6xx_ll_usb.c ****   }
 540:STM32Cube_FW_N6/Drivers/STM32N6xx_HAL_Driver/Src/stm32n6xx_ll_usb.c ****   else
 541:STM32Cube_FW_N6/Drivers/STM32N6xx_HAL_Driver/Src/stm32n6xx_ll_usb.c ****   {
 542:STM32Cube_FW_N6/Drivers/STM32N6xx_HAL_Driver/Src/stm32n6xx_ll_usb.c ****     speed = 0xFU;
 1309              		.loc 1 542 11
 1310 0038 0F23     		movs	r3, #15
 1311 003a FB75     		strb	r3, [r7, #23]
 1312              	.L78:
 543:STM32Cube_FW_N6/Drivers/STM32N6xx_HAL_Driver/Src/stm32n6xx_ll_usb.c ****   }
 544:STM32Cube_FW_N6/Drivers/STM32N6xx_HAL_Driver/Src/stm32n6xx_ll_usb.c **** 
 545:STM32Cube_FW_N6/Drivers/STM32N6xx_HAL_Driver/Src/stm32n6xx_ll_usb.c ****   return speed;
 1313              		.loc 1 545 10
 1314 003c FB7D     		ldrb	r3, [r7, #23]	@ zero_extendqisi2
 546:STM32Cube_FW_N6/Drivers/STM32N6xx_HAL_Driver/Src/stm32n6xx_ll_usb.c **** }
 1315              		.loc 1 546 1
 1316 003e 1846     		mov	r0, r3
 1317 0040 1C37     		adds	r7, r7, #28
 1318              		.cfi_def_cfa_offset 4
 1319 0042 BD46     		mov	sp, r7
 1320              		.cfi_def_cfa_register 13
 1321              		@ sp needed
 1322 0044 5DF8047B 		ldr	r7, [sp], #4
 1323              		.cfi_restore 7
 1324              		.cfi_def_cfa_offset 0
 1325 0048 7047     		bx	lr
 1326              		.cfi_endproc
 1327              	.LFE844:
 1329              		.section	.text.USB_ActivateEndpoint,"ax",%progbits
 1330              		.align	1
 1331              		.global	USB_ActivateEndpoint
 1332              		.syntax unified
 1333              		.thumb
 1334              		.thumb_func
 1336              	USB_ActivateEndpoint:
 1337              	.LFB845:
 547:STM32Cube_FW_N6/Drivers/STM32N6xx_HAL_Driver/Src/stm32n6xx_ll_usb.c **** 
 548:STM32Cube_FW_N6/Drivers/STM32N6xx_HAL_Driver/Src/stm32n6xx_ll_usb.c **** /**
 549:STM32Cube_FW_N6/Drivers/STM32N6xx_HAL_Driver/Src/stm32n6xx_ll_usb.c ****   * @brief  Activate and configure an endpoint
 550:STM32Cube_FW_N6/Drivers/STM32N6xx_HAL_Driver/Src/stm32n6xx_ll_usb.c ****   * @param  USBx  Selected device
 551:STM32Cube_FW_N6/Drivers/STM32N6xx_HAL_Driver/Src/stm32n6xx_ll_usb.c ****   * @param  ep pointer to endpoint structure
 552:STM32Cube_FW_N6/Drivers/STM32N6xx_HAL_Driver/Src/stm32n6xx_ll_usb.c ****   * @retval HAL status
 553:STM32Cube_FW_N6/Drivers/STM32N6xx_HAL_Driver/Src/stm32n6xx_ll_usb.c ****   */
 554:STM32Cube_FW_N6/Drivers/STM32N6xx_HAL_Driver/Src/stm32n6xx_ll_usb.c **** HAL_StatusTypeDef USB_ActivateEndpoint(const USB_OTG_GlobalTypeDef *USBx, const USB_OTG_EPTypeDef *
 555:STM32Cube_FW_N6/Drivers/STM32N6xx_HAL_Driver/Src/stm32n6xx_ll_usb.c **** {
 1338              		.loc 1 555 1
ARM GAS  /tmp/ccxt1UfV.s 			page 34


 1339              		.cfi_startproc
 1340              		@ args = 0, pretend = 0, frame = 16
 1341              		@ frame_needed = 1, uses_anonymous_args = 0
 1342              		@ link register save eliminated.
 1343 0000 80B4     		push	{r7}
 1344              		.cfi_def_cfa_offset 4
 1345              		.cfi_offset 7, -4
 1346 0002 85B0     		sub	sp, sp, #20
 1347              		.cfi_def_cfa_offset 24
 1348 0004 00AF     		add	r7, sp, #0
 1349              		.cfi_def_cfa_register 7
 1350 0006 7860     		str	r0, [r7, #4]
 1351 0008 3960     		str	r1, [r7]
 556:STM32Cube_FW_N6/Drivers/STM32N6xx_HAL_Driver/Src/stm32n6xx_ll_usb.c ****   uint32_t USBx_BASE = (uint32_t)USBx;
 1352              		.loc 1 556 12
 1353 000a 7B68     		ldr	r3, [r7, #4]
 1354 000c FB60     		str	r3, [r7, #12]
 557:STM32Cube_FW_N6/Drivers/STM32N6xx_HAL_Driver/Src/stm32n6xx_ll_usb.c ****   uint32_t epnum = (uint32_t)ep->num;
 1355              		.loc 1 557 32
 1356 000e 3B68     		ldr	r3, [r7]
 1357 0010 1B78     		ldrb	r3, [r3]	@ zero_extendqisi2
 1358              		.loc 1 557 12
 1359 0012 BB60     		str	r3, [r7, #8]
 558:STM32Cube_FW_N6/Drivers/STM32N6xx_HAL_Driver/Src/stm32n6xx_ll_usb.c **** 
 559:STM32Cube_FW_N6/Drivers/STM32N6xx_HAL_Driver/Src/stm32n6xx_ll_usb.c ****   if (ep->is_in == 1U)
 1360              		.loc 1 559 9
 1361 0014 3B68     		ldr	r3, [r7]
 1362 0016 5B78     		ldrb	r3, [r3, #1]	@ zero_extendqisi2
 1363              		.loc 1 559 6
 1364 0018 012B     		cmp	r3, #1
 1365 001a 3AD1     		bne	.L83
 560:STM32Cube_FW_N6/Drivers/STM32N6xx_HAL_Driver/Src/stm32n6xx_ll_usb.c ****   {
 561:STM32Cube_FW_N6/Drivers/STM32N6xx_HAL_Driver/Src/stm32n6xx_ll_usb.c ****     USBx_DEVICE->DAINTMSK |= USB_OTG_DAINTMSK_IEPM & (uint32_t)(1UL << (ep->num & EP_ADDR_MSK));
 1366              		.loc 1 561 16
 1367 001c FB68     		ldr	r3, [r7, #12]
 1368 001e 03F50063 		add	r3, r3, #2048
 1369 0022 DA69     		ldr	r2, [r3, #28]
 1370              		.loc 1 561 75
 1371 0024 3B68     		ldr	r3, [r7]
 1372 0026 1B78     		ldrb	r3, [r3]	@ zero_extendqisi2
 1373              		.loc 1 561 81
 1374 0028 03F00F03 		and	r3, r3, #15
 1375              		.loc 1 561 54
 1376 002c 0121     		movs	r1, #1
 1377 002e 01FA03F3 		lsl	r3, r1, r3
 1378              		.loc 1 561 52
 1379 0032 9BB2     		uxth	r3, r3
 1380              		.loc 1 561 16
 1381 0034 F968     		ldr	r1, [r7, #12]
 1382 0036 01F50061 		add	r1, r1, #2048
 1383              		.loc 1 561 27
 1384 003a 1343     		orrs	r3, r3, r2
 1385 003c CB61     		str	r3, [r1, #28]
 562:STM32Cube_FW_N6/Drivers/STM32N6xx_HAL_Driver/Src/stm32n6xx_ll_usb.c **** 
 563:STM32Cube_FW_N6/Drivers/STM32N6xx_HAL_Driver/Src/stm32n6xx_ll_usb.c ****     if ((USBx_INEP(epnum)->DIEPCTL & USB_OTG_DIEPCTL_USBAEP) == 0U)
 1386              		.loc 1 563 10
 1387 003e BB68     		ldr	r3, [r7, #8]
ARM GAS  /tmp/ccxt1UfV.s 			page 35


 1388 0040 5A01     		lsls	r2, r3, #5
 1389 0042 FB68     		ldr	r3, [r7, #12]
 1390 0044 1344     		add	r3, r3, r2
 1391 0046 03F51063 		add	r3, r3, #2304
 1392              		.loc 1 563 26
 1393 004a 1B68     		ldr	r3, [r3]
 1394              		.loc 1 563 36
 1395 004c 03F40043 		and	r3, r3, #32768
 1396              		.loc 1 563 8
 1397 0050 002B     		cmp	r3, #0
 1398 0052 55D1     		bne	.L84
 564:STM32Cube_FW_N6/Drivers/STM32N6xx_HAL_Driver/Src/stm32n6xx_ll_usb.c ****     {
 565:STM32Cube_FW_N6/Drivers/STM32N6xx_HAL_Driver/Src/stm32n6xx_ll_usb.c ****       USBx_INEP(epnum)->DIEPCTL |= (ep->maxpacket & USB_OTG_DIEPCTL_MPSIZ) |
 1399              		.loc 1 565 23
 1400 0054 BB68     		ldr	r3, [r7, #8]
 1401 0056 5A01     		lsls	r2, r3, #5
 1402 0058 FB68     		ldr	r3, [r7, #12]
 1403 005a 1344     		add	r3, r3, r2
 1404 005c 03F51063 		add	r3, r3, #2304
 1405 0060 1A68     		ldr	r2, [r3]
 1406              		.loc 1 565 39
 1407 0062 3B68     		ldr	r3, [r7]
 1408 0064 9B68     		ldr	r3, [r3, #8]
 1409              		.loc 1 565 51
 1410 0066 C3F30A01 		ubfx	r1, r3, #0, #11
 566:STM32Cube_FW_N6/Drivers/STM32N6xx_HAL_Driver/Src/stm32n6xx_ll_usb.c ****                                    ((uint32_t)ep->type << 18) | (epnum << 22) |
 1411              		.loc 1 566 49
 1412 006a 3B68     		ldr	r3, [r7]
 1413 006c 1B79     		ldrb	r3, [r3, #4]	@ zero_extendqisi2
 1414              		.loc 1 566 56
 1415 006e 9B04     		lsls	r3, r3, #18
 565:STM32Cube_FW_N6/Drivers/STM32N6xx_HAL_Driver/Src/stm32n6xx_ll_usb.c ****                                    ((uint32_t)ep->type << 18) | (epnum << 22) |
 1416              		.loc 1 565 76
 1417 0070 1943     		orrs	r1, r1, r3
 1418              		.loc 1 566 72
 1419 0072 BB68     		ldr	r3, [r7, #8]
 1420 0074 9B05     		lsls	r3, r3, #22
 1421              		.loc 1 566 63
 1422 0076 0B43     		orrs	r3, r3, r1
 565:STM32Cube_FW_N6/Drivers/STM32N6xx_HAL_Driver/Src/stm32n6xx_ll_usb.c ****                                    ((uint32_t)ep->type << 18) | (epnum << 22) |
 1423              		.loc 1 565 33
 1424 0078 1343     		orrs	r3, r3, r2
 565:STM32Cube_FW_N6/Drivers/STM32N6xx_HAL_Driver/Src/stm32n6xx_ll_usb.c ****                                    ((uint32_t)ep->type << 18) | (epnum << 22) |
 1425              		.loc 1 565 23
 1426 007a BA68     		ldr	r2, [r7, #8]
 1427 007c 5101     		lsls	r1, r2, #5
 1428 007e FA68     		ldr	r2, [r7, #12]
 1429 0080 0A44     		add	r2, r2, r1
 1430 0082 02F51062 		add	r2, r2, #2304
 565:STM32Cube_FW_N6/Drivers/STM32N6xx_HAL_Driver/Src/stm32n6xx_ll_usb.c ****                                    ((uint32_t)ep->type << 18) | (epnum << 22) |
 1431              		.loc 1 565 33
 1432 0086 43F08053 		orr	r3, r3, #268435456
 1433 008a 43F40043 		orr	r3, r3, #32768
 1434 008e 1360     		str	r3, [r2]
 1435 0090 36E0     		b	.L84
 1436              	.L83:
 567:STM32Cube_FW_N6/Drivers/STM32N6xx_HAL_Driver/Src/stm32n6xx_ll_usb.c ****                                    USB_OTG_DIEPCTL_SD0PID_SEVNFRM |
ARM GAS  /tmp/ccxt1UfV.s 			page 36


 568:STM32Cube_FW_N6/Drivers/STM32N6xx_HAL_Driver/Src/stm32n6xx_ll_usb.c ****                                    USB_OTG_DIEPCTL_USBAEP;
 569:STM32Cube_FW_N6/Drivers/STM32N6xx_HAL_Driver/Src/stm32n6xx_ll_usb.c ****     }
 570:STM32Cube_FW_N6/Drivers/STM32N6xx_HAL_Driver/Src/stm32n6xx_ll_usb.c ****   }
 571:STM32Cube_FW_N6/Drivers/STM32N6xx_HAL_Driver/Src/stm32n6xx_ll_usb.c ****   else
 572:STM32Cube_FW_N6/Drivers/STM32N6xx_HAL_Driver/Src/stm32n6xx_ll_usb.c ****   {
 573:STM32Cube_FW_N6/Drivers/STM32N6xx_HAL_Driver/Src/stm32n6xx_ll_usb.c ****     USBx_DEVICE->DAINTMSK |= USB_OTG_DAINTMSK_OEPM & ((uint32_t)(1UL << (ep->num & EP_ADDR_MSK)) <<
 1437              		.loc 1 573 16
 1438 0092 FB68     		ldr	r3, [r7, #12]
 1439 0094 03F50063 		add	r3, r3, #2048
 1440 0098 DA69     		ldr	r2, [r3, #28]
 1441              		.loc 1 573 76
 1442 009a 3B68     		ldr	r3, [r7]
 1443 009c 1B78     		ldrb	r3, [r3]	@ zero_extendqisi2
 1444              		.loc 1 573 82
 1445 009e 03F00F03 		and	r3, r3, #15
 1446              		.loc 1 573 55
 1447 00a2 0121     		movs	r1, #1
 1448 00a4 01FA03F3 		lsl	r3, r1, r3
 1449              		.loc 1 573 52
 1450 00a8 1B04     		lsls	r3, r3, #16
 1451              		.loc 1 573 16
 1452 00aa F968     		ldr	r1, [r7, #12]
 1453 00ac 01F50061 		add	r1, r1, #2048
 1454              		.loc 1 573 27
 1455 00b0 1343     		orrs	r3, r3, r2
 1456 00b2 CB61     		str	r3, [r1, #28]
 574:STM32Cube_FW_N6/Drivers/STM32N6xx_HAL_Driver/Src/stm32n6xx_ll_usb.c **** 
 575:STM32Cube_FW_N6/Drivers/STM32N6xx_HAL_Driver/Src/stm32n6xx_ll_usb.c ****     if (((USBx_OUTEP(epnum)->DOEPCTL) & USB_OTG_DOEPCTL_USBAEP) == 0U)
 1457              		.loc 1 575 11
 1458 00b4 BB68     		ldr	r3, [r7, #8]
 1459 00b6 5A01     		lsls	r2, r3, #5
 1460 00b8 FB68     		ldr	r3, [r7, #12]
 1461 00ba 1344     		add	r3, r3, r2
 1462 00bc 03F53063 		add	r3, r3, #2816
 1463              		.loc 1 575 28
 1464 00c0 1B68     		ldr	r3, [r3]
 1465              		.loc 1 575 39
 1466 00c2 03F40043 		and	r3, r3, #32768
 1467              		.loc 1 575 8
 1468 00c6 002B     		cmp	r3, #0
 1469 00c8 1AD1     		bne	.L84
 576:STM32Cube_FW_N6/Drivers/STM32N6xx_HAL_Driver/Src/stm32n6xx_ll_usb.c ****     {
 577:STM32Cube_FW_N6/Drivers/STM32N6xx_HAL_Driver/Src/stm32n6xx_ll_usb.c ****       USBx_OUTEP(epnum)->DOEPCTL |= (ep->maxpacket & USB_OTG_DOEPCTL_MPSIZ) |
 1470              		.loc 1 577 24
 1471 00ca BB68     		ldr	r3, [r7, #8]
 1472 00cc 5A01     		lsls	r2, r3, #5
 1473 00ce FB68     		ldr	r3, [r7, #12]
 1474 00d0 1344     		add	r3, r3, r2
 1475 00d2 03F53063 		add	r3, r3, #2816
 1476 00d6 1A68     		ldr	r2, [r3]
 1477              		.loc 1 577 40
 1478 00d8 3B68     		ldr	r3, [r7]
 1479 00da 9B68     		ldr	r3, [r3, #8]
 1480              		.loc 1 577 52
 1481 00dc C3F30A01 		ubfx	r1, r3, #0, #11
 578:STM32Cube_FW_N6/Drivers/STM32N6xx_HAL_Driver/Src/stm32n6xx_ll_usb.c ****                                     ((uint32_t)ep->type << 18) |
 1482              		.loc 1 578 50
ARM GAS  /tmp/ccxt1UfV.s 			page 37


 1483 00e0 3B68     		ldr	r3, [r7]
 1484 00e2 1B79     		ldrb	r3, [r3, #4]	@ zero_extendqisi2
 1485              		.loc 1 578 57
 1486 00e4 9B04     		lsls	r3, r3, #18
 577:STM32Cube_FW_N6/Drivers/STM32N6xx_HAL_Driver/Src/stm32n6xx_ll_usb.c ****                                     ((uint32_t)ep->type << 18) |
 1487              		.loc 1 577 77
 1488 00e6 0B43     		orrs	r3, r3, r1
 577:STM32Cube_FW_N6/Drivers/STM32N6xx_HAL_Driver/Src/stm32n6xx_ll_usb.c ****                                     ((uint32_t)ep->type << 18) |
 1489              		.loc 1 577 34
 1490 00e8 1343     		orrs	r3, r3, r2
 577:STM32Cube_FW_N6/Drivers/STM32N6xx_HAL_Driver/Src/stm32n6xx_ll_usb.c ****                                     ((uint32_t)ep->type << 18) |
 1491              		.loc 1 577 24
 1492 00ea BA68     		ldr	r2, [r7, #8]
 1493 00ec 5101     		lsls	r1, r2, #5
 1494 00ee FA68     		ldr	r2, [r7, #12]
 1495 00f0 0A44     		add	r2, r2, r1
 1496 00f2 02F53062 		add	r2, r2, #2816
 577:STM32Cube_FW_N6/Drivers/STM32N6xx_HAL_Driver/Src/stm32n6xx_ll_usb.c ****                                     ((uint32_t)ep->type << 18) |
 1497              		.loc 1 577 34
 1498 00f6 43F08053 		orr	r3, r3, #268435456
 1499 00fa 43F40043 		orr	r3, r3, #32768
 1500 00fe 1360     		str	r3, [r2]
 1501              	.L84:
 579:STM32Cube_FW_N6/Drivers/STM32N6xx_HAL_Driver/Src/stm32n6xx_ll_usb.c ****                                     USB_OTG_DIEPCTL_SD0PID_SEVNFRM |
 580:STM32Cube_FW_N6/Drivers/STM32N6xx_HAL_Driver/Src/stm32n6xx_ll_usb.c ****                                     USB_OTG_DOEPCTL_USBAEP;
 581:STM32Cube_FW_N6/Drivers/STM32N6xx_HAL_Driver/Src/stm32n6xx_ll_usb.c ****     }
 582:STM32Cube_FW_N6/Drivers/STM32N6xx_HAL_Driver/Src/stm32n6xx_ll_usb.c ****   }
 583:STM32Cube_FW_N6/Drivers/STM32N6xx_HAL_Driver/Src/stm32n6xx_ll_usb.c ****   return HAL_OK;
 1502              		.loc 1 583 10
 1503 0100 0023     		movs	r3, #0
 584:STM32Cube_FW_N6/Drivers/STM32N6xx_HAL_Driver/Src/stm32n6xx_ll_usb.c **** }
 1504              		.loc 1 584 1
 1505 0102 1846     		mov	r0, r3
 1506 0104 1437     		adds	r7, r7, #20
 1507              		.cfi_def_cfa_offset 4
 1508 0106 BD46     		mov	sp, r7
 1509              		.cfi_def_cfa_register 13
 1510              		@ sp needed
 1511 0108 5DF8047B 		ldr	r7, [sp], #4
 1512              		.cfi_restore 7
 1513              		.cfi_def_cfa_offset 0
 1514 010c 7047     		bx	lr
 1515              		.cfi_endproc
 1516              	.LFE845:
 1518              		.section	.text.USB_ActivateDedicatedEndpoint,"ax",%progbits
 1519              		.align	1
 1520              		.global	USB_ActivateDedicatedEndpoint
 1521              		.syntax unified
 1522              		.thumb
 1523              		.thumb_func
 1525              	USB_ActivateDedicatedEndpoint:
 1526              	.LFB846:
 585:STM32Cube_FW_N6/Drivers/STM32N6xx_HAL_Driver/Src/stm32n6xx_ll_usb.c **** 
 586:STM32Cube_FW_N6/Drivers/STM32N6xx_HAL_Driver/Src/stm32n6xx_ll_usb.c **** /**
 587:STM32Cube_FW_N6/Drivers/STM32N6xx_HAL_Driver/Src/stm32n6xx_ll_usb.c ****   * @brief  Activate and configure a dedicated endpoint
 588:STM32Cube_FW_N6/Drivers/STM32N6xx_HAL_Driver/Src/stm32n6xx_ll_usb.c ****   * @param  USBx  Selected device
 589:STM32Cube_FW_N6/Drivers/STM32N6xx_HAL_Driver/Src/stm32n6xx_ll_usb.c ****   * @param  ep pointer to endpoint structure
ARM GAS  /tmp/ccxt1UfV.s 			page 38


 590:STM32Cube_FW_N6/Drivers/STM32N6xx_HAL_Driver/Src/stm32n6xx_ll_usb.c ****   * @retval HAL status
 591:STM32Cube_FW_N6/Drivers/STM32N6xx_HAL_Driver/Src/stm32n6xx_ll_usb.c ****   */
 592:STM32Cube_FW_N6/Drivers/STM32N6xx_HAL_Driver/Src/stm32n6xx_ll_usb.c **** HAL_StatusTypeDef USB_ActivateDedicatedEndpoint(const USB_OTG_GlobalTypeDef *USBx, const USB_OTG_EP
 593:STM32Cube_FW_N6/Drivers/STM32N6xx_HAL_Driver/Src/stm32n6xx_ll_usb.c **** {
 1527              		.loc 1 593 1
 1528              		.cfi_startproc
 1529              		@ args = 0, pretend = 0, frame = 16
 1530              		@ frame_needed = 1, uses_anonymous_args = 0
 1531              		@ link register save eliminated.
 1532 0000 80B4     		push	{r7}
 1533              		.cfi_def_cfa_offset 4
 1534              		.cfi_offset 7, -4
 1535 0002 85B0     		sub	sp, sp, #20
 1536              		.cfi_def_cfa_offset 24
 1537 0004 00AF     		add	r7, sp, #0
 1538              		.cfi_def_cfa_register 7
 1539 0006 7860     		str	r0, [r7, #4]
 1540 0008 3960     		str	r1, [r7]
 594:STM32Cube_FW_N6/Drivers/STM32N6xx_HAL_Driver/Src/stm32n6xx_ll_usb.c ****   uint32_t USBx_BASE = (uint32_t)USBx;
 1541              		.loc 1 594 12
 1542 000a 7B68     		ldr	r3, [r7, #4]
 1543 000c FB60     		str	r3, [r7, #12]
 595:STM32Cube_FW_N6/Drivers/STM32N6xx_HAL_Driver/Src/stm32n6xx_ll_usb.c ****   uint32_t epnum = (uint32_t)ep->num;
 1544              		.loc 1 595 32
 1545 000e 3B68     		ldr	r3, [r7]
 1546 0010 1B78     		ldrb	r3, [r3]	@ zero_extendqisi2
 1547              		.loc 1 595 12
 1548 0012 BB60     		str	r3, [r7, #8]
 596:STM32Cube_FW_N6/Drivers/STM32N6xx_HAL_Driver/Src/stm32n6xx_ll_usb.c **** 
 597:STM32Cube_FW_N6/Drivers/STM32N6xx_HAL_Driver/Src/stm32n6xx_ll_usb.c ****   /* Read DEPCTLn register */
 598:STM32Cube_FW_N6/Drivers/STM32N6xx_HAL_Driver/Src/stm32n6xx_ll_usb.c ****   if (ep->is_in == 1U)
 1549              		.loc 1 598 9
 1550 0014 3B68     		ldr	r3, [r7]
 1551 0016 5B78     		ldrb	r3, [r3, #1]	@ zero_extendqisi2
 1552              		.loc 1 598 6
 1553 0018 012B     		cmp	r3, #1
 1554 001a 3AD1     		bne	.L87
 599:STM32Cube_FW_N6/Drivers/STM32N6xx_HAL_Driver/Src/stm32n6xx_ll_usb.c ****   {
 600:STM32Cube_FW_N6/Drivers/STM32N6xx_HAL_Driver/Src/stm32n6xx_ll_usb.c ****     if (((USBx_INEP(epnum)->DIEPCTL) & USB_OTG_DIEPCTL_USBAEP) == 0U)
 1555              		.loc 1 600 11
 1556 001c BB68     		ldr	r3, [r7, #8]
 1557 001e 5A01     		lsls	r2, r3, #5
 1558 0020 FB68     		ldr	r3, [r7, #12]
 1559 0022 1344     		add	r3, r3, r2
 1560 0024 03F51063 		add	r3, r3, #2304
 1561              		.loc 1 600 27
 1562 0028 1B68     		ldr	r3, [r3]
 1563              		.loc 1 600 38
 1564 002a 03F40043 		and	r3, r3, #32768
 1565              		.loc 1 600 8
 1566 002e 002B     		cmp	r3, #0
 1567 0030 1DD1     		bne	.L88
 601:STM32Cube_FW_N6/Drivers/STM32N6xx_HAL_Driver/Src/stm32n6xx_ll_usb.c ****     {
 602:STM32Cube_FW_N6/Drivers/STM32N6xx_HAL_Driver/Src/stm32n6xx_ll_usb.c ****       USBx_INEP(epnum)->DIEPCTL |= (ep->maxpacket & USB_OTG_DIEPCTL_MPSIZ) |
 1568              		.loc 1 602 23
 1569 0032 BB68     		ldr	r3, [r7, #8]
 1570 0034 5A01     		lsls	r2, r3, #5
ARM GAS  /tmp/ccxt1UfV.s 			page 39


 1571 0036 FB68     		ldr	r3, [r7, #12]
 1572 0038 1344     		add	r3, r3, r2
 1573 003a 03F51063 		add	r3, r3, #2304
 1574 003e 1A68     		ldr	r2, [r3]
 1575              		.loc 1 602 39
 1576 0040 3B68     		ldr	r3, [r7]
 1577 0042 9B68     		ldr	r3, [r3, #8]
 1578              		.loc 1 602 51
 1579 0044 C3F30A01 		ubfx	r1, r3, #0, #11
 603:STM32Cube_FW_N6/Drivers/STM32N6xx_HAL_Driver/Src/stm32n6xx_ll_usb.c ****                                    ((uint32_t)ep->type << 18) | (epnum << 22) |
 1580              		.loc 1 603 49
 1581 0048 3B68     		ldr	r3, [r7]
 1582 004a 1B79     		ldrb	r3, [r3, #4]	@ zero_extendqisi2
 1583              		.loc 1 603 56
 1584 004c 9B04     		lsls	r3, r3, #18
 602:STM32Cube_FW_N6/Drivers/STM32N6xx_HAL_Driver/Src/stm32n6xx_ll_usb.c ****                                    ((uint32_t)ep->type << 18) | (epnum << 22) |
 1585              		.loc 1 602 76
 1586 004e 1943     		orrs	r1, r1, r3
 1587              		.loc 1 603 72
 1588 0050 BB68     		ldr	r3, [r7, #8]
 1589 0052 9B05     		lsls	r3, r3, #22
 1590              		.loc 1 603 63
 1591 0054 0B43     		orrs	r3, r3, r1
 602:STM32Cube_FW_N6/Drivers/STM32N6xx_HAL_Driver/Src/stm32n6xx_ll_usb.c ****                                    ((uint32_t)ep->type << 18) | (epnum << 22) |
 1592              		.loc 1 602 33
 1593 0056 1343     		orrs	r3, r3, r2
 602:STM32Cube_FW_N6/Drivers/STM32N6xx_HAL_Driver/Src/stm32n6xx_ll_usb.c ****                                    ((uint32_t)ep->type << 18) | (epnum << 22) |
 1594              		.loc 1 602 23
 1595 0058 BA68     		ldr	r2, [r7, #8]
 1596 005a 5101     		lsls	r1, r2, #5
 1597 005c FA68     		ldr	r2, [r7, #12]
 1598 005e 0A44     		add	r2, r2, r1
 1599 0060 02F51062 		add	r2, r2, #2304
 602:STM32Cube_FW_N6/Drivers/STM32N6xx_HAL_Driver/Src/stm32n6xx_ll_usb.c ****                                    ((uint32_t)ep->type << 18) | (epnum << 22) |
 1600              		.loc 1 602 33
 1601 0064 43F08053 		orr	r3, r3, #268435456
 1602 0068 43F40043 		orr	r3, r3, #32768
 1603 006c 1360     		str	r3, [r2]
 1604              	.L88:
 604:STM32Cube_FW_N6/Drivers/STM32N6xx_HAL_Driver/Src/stm32n6xx_ll_usb.c ****                                    USB_OTG_DIEPCTL_SD0PID_SEVNFRM |
 605:STM32Cube_FW_N6/Drivers/STM32N6xx_HAL_Driver/Src/stm32n6xx_ll_usb.c ****                                    USB_OTG_DIEPCTL_USBAEP;
 606:STM32Cube_FW_N6/Drivers/STM32N6xx_HAL_Driver/Src/stm32n6xx_ll_usb.c ****     }
 607:STM32Cube_FW_N6/Drivers/STM32N6xx_HAL_Driver/Src/stm32n6xx_ll_usb.c **** 
 608:STM32Cube_FW_N6/Drivers/STM32N6xx_HAL_Driver/Src/stm32n6xx_ll_usb.c ****     USBx_DEVICE->DEACHMSK |= USB_OTG_DAINTMSK_IEPM & (uint32_t)(1UL << (ep->num & EP_ADDR_MSK));
 1605              		.loc 1 608 16
 1606 006e FB68     		ldr	r3, [r7, #12]
 1607 0070 03F50063 		add	r3, r3, #2048
 1608 0074 DA6B     		ldr	r2, [r3, #60]
 1609              		.loc 1 608 75
 1610 0076 3B68     		ldr	r3, [r7]
 1611 0078 1B78     		ldrb	r3, [r3]	@ zero_extendqisi2
 1612              		.loc 1 608 81
 1613 007a 03F00F03 		and	r3, r3, #15
 1614              		.loc 1 608 54
 1615 007e 0121     		movs	r1, #1
 1616 0080 01FA03F3 		lsl	r3, r1, r3
 1617              		.loc 1 608 52
ARM GAS  /tmp/ccxt1UfV.s 			page 40


 1618 0084 9BB2     		uxth	r3, r3
 1619              		.loc 1 608 16
 1620 0086 F968     		ldr	r1, [r7, #12]
 1621 0088 01F50061 		add	r1, r1, #2048
 1622              		.loc 1 608 27
 1623 008c 1343     		orrs	r3, r3, r2
 1624 008e CB63     		str	r3, [r1, #60]
 1625 0090 37E0     		b	.L89
 1626              	.L87:
 609:STM32Cube_FW_N6/Drivers/STM32N6xx_HAL_Driver/Src/stm32n6xx_ll_usb.c ****   }
 610:STM32Cube_FW_N6/Drivers/STM32N6xx_HAL_Driver/Src/stm32n6xx_ll_usb.c ****   else
 611:STM32Cube_FW_N6/Drivers/STM32N6xx_HAL_Driver/Src/stm32n6xx_ll_usb.c ****   {
 612:STM32Cube_FW_N6/Drivers/STM32N6xx_HAL_Driver/Src/stm32n6xx_ll_usb.c ****     if (((USBx_OUTEP(epnum)->DOEPCTL) & USB_OTG_DOEPCTL_USBAEP) == 0U)
 1627              		.loc 1 612 11
 1628 0092 BB68     		ldr	r3, [r7, #8]
 1629 0094 5A01     		lsls	r2, r3, #5
 1630 0096 FB68     		ldr	r3, [r7, #12]
 1631 0098 1344     		add	r3, r3, r2
 1632 009a 03F53063 		add	r3, r3, #2816
 1633              		.loc 1 612 28
 1634 009e 1B68     		ldr	r3, [r3]
 1635              		.loc 1 612 39
 1636 00a0 03F40043 		and	r3, r3, #32768
 1637              		.loc 1 612 8
 1638 00a4 002B     		cmp	r3, #0
 1639 00a6 1BD1     		bne	.L90
 613:STM32Cube_FW_N6/Drivers/STM32N6xx_HAL_Driver/Src/stm32n6xx_ll_usb.c ****     {
 614:STM32Cube_FW_N6/Drivers/STM32N6xx_HAL_Driver/Src/stm32n6xx_ll_usb.c ****       USBx_OUTEP(epnum)->DOEPCTL |= (ep->maxpacket & USB_OTG_DOEPCTL_MPSIZ) |
 1640              		.loc 1 614 24
 1641 00a8 BB68     		ldr	r3, [r7, #8]
 1642 00aa 5A01     		lsls	r2, r3, #5
 1643 00ac FB68     		ldr	r3, [r7, #12]
 1644 00ae 1344     		add	r3, r3, r2
 1645 00b0 03F53063 		add	r3, r3, #2816
 1646 00b4 1A68     		ldr	r2, [r3]
 1647              		.loc 1 614 40
 1648 00b6 3B68     		ldr	r3, [r7]
 1649 00b8 9B68     		ldr	r3, [r3, #8]
 1650              		.loc 1 614 52
 1651 00ba C3F30A01 		ubfx	r1, r3, #0, #11
 615:STM32Cube_FW_N6/Drivers/STM32N6xx_HAL_Driver/Src/stm32n6xx_ll_usb.c ****                                     ((uint32_t)ep->type << 18) | (epnum << 22) |
 1652              		.loc 1 615 50
 1653 00be 3B68     		ldr	r3, [r7]
 1654 00c0 1B79     		ldrb	r3, [r3, #4]	@ zero_extendqisi2
 1655              		.loc 1 615 57
 1656 00c2 9B04     		lsls	r3, r3, #18
 614:STM32Cube_FW_N6/Drivers/STM32N6xx_HAL_Driver/Src/stm32n6xx_ll_usb.c ****                                     ((uint32_t)ep->type << 18) | (epnum << 22) |
 1657              		.loc 1 614 77
 1658 00c4 1943     		orrs	r1, r1, r3
 1659              		.loc 1 615 73
 1660 00c6 BB68     		ldr	r3, [r7, #8]
 1661 00c8 9B05     		lsls	r3, r3, #22
 1662              		.loc 1 615 64
 1663 00ca 0B43     		orrs	r3, r3, r1
 614:STM32Cube_FW_N6/Drivers/STM32N6xx_HAL_Driver/Src/stm32n6xx_ll_usb.c ****                                     ((uint32_t)ep->type << 18) | (epnum << 22) |
 1664              		.loc 1 614 34
 1665 00cc 1343     		orrs	r3, r3, r2
ARM GAS  /tmp/ccxt1UfV.s 			page 41


 614:STM32Cube_FW_N6/Drivers/STM32N6xx_HAL_Driver/Src/stm32n6xx_ll_usb.c ****                                     ((uint32_t)ep->type << 18) | (epnum << 22) |
 1666              		.loc 1 614 24
 1667 00ce BA68     		ldr	r2, [r7, #8]
 1668 00d0 5101     		lsls	r1, r2, #5
 1669 00d2 FA68     		ldr	r2, [r7, #12]
 1670 00d4 0A44     		add	r2, r2, r1
 1671 00d6 02F53062 		add	r2, r2, #2816
 614:STM32Cube_FW_N6/Drivers/STM32N6xx_HAL_Driver/Src/stm32n6xx_ll_usb.c ****                                     ((uint32_t)ep->type << 18) | (epnum << 22) |
 1672              		.loc 1 614 34
 1673 00da 43F40043 		orr	r3, r3, #32768
 1674 00de 1360     		str	r3, [r2]
 1675              	.L90:
 616:STM32Cube_FW_N6/Drivers/STM32N6xx_HAL_Driver/Src/stm32n6xx_ll_usb.c ****                                     USB_OTG_DOEPCTL_USBAEP;
 617:STM32Cube_FW_N6/Drivers/STM32N6xx_HAL_Driver/Src/stm32n6xx_ll_usb.c ****     }
 618:STM32Cube_FW_N6/Drivers/STM32N6xx_HAL_Driver/Src/stm32n6xx_ll_usb.c **** 
 619:STM32Cube_FW_N6/Drivers/STM32N6xx_HAL_Driver/Src/stm32n6xx_ll_usb.c ****     USBx_DEVICE->DEACHMSK |= USB_OTG_DAINTMSK_OEPM & ((uint32_t)(1UL << (ep->num & EP_ADDR_MSK)) <<
 1676              		.loc 1 619 16
 1677 00e0 FB68     		ldr	r3, [r7, #12]
 1678 00e2 03F50063 		add	r3, r3, #2048
 1679 00e6 DA6B     		ldr	r2, [r3, #60]
 1680              		.loc 1 619 76
 1681 00e8 3B68     		ldr	r3, [r7]
 1682 00ea 1B78     		ldrb	r3, [r3]	@ zero_extendqisi2
 1683              		.loc 1 619 82
 1684 00ec 03F00F03 		and	r3, r3, #15
 1685              		.loc 1 619 55
 1686 00f0 0121     		movs	r1, #1
 1687 00f2 01FA03F3 		lsl	r3, r1, r3
 1688              		.loc 1 619 52
 1689 00f6 1B04     		lsls	r3, r3, #16
 1690              		.loc 1 619 16
 1691 00f8 F968     		ldr	r1, [r7, #12]
 1692 00fa 01F50061 		add	r1, r1, #2048
 1693              		.loc 1 619 27
 1694 00fe 1343     		orrs	r3, r3, r2
 1695 0100 CB63     		str	r3, [r1, #60]
 1696              	.L89:
 620:STM32Cube_FW_N6/Drivers/STM32N6xx_HAL_Driver/Src/stm32n6xx_ll_usb.c ****   }
 621:STM32Cube_FW_N6/Drivers/STM32N6xx_HAL_Driver/Src/stm32n6xx_ll_usb.c **** 
 622:STM32Cube_FW_N6/Drivers/STM32N6xx_HAL_Driver/Src/stm32n6xx_ll_usb.c ****   return HAL_OK;
 1697              		.loc 1 622 10
 1698 0102 0023     		movs	r3, #0
 623:STM32Cube_FW_N6/Drivers/STM32N6xx_HAL_Driver/Src/stm32n6xx_ll_usb.c **** }
 1699              		.loc 1 623 1
 1700 0104 1846     		mov	r0, r3
 1701 0106 1437     		adds	r7, r7, #20
 1702              		.cfi_def_cfa_offset 4
 1703 0108 BD46     		mov	sp, r7
 1704              		.cfi_def_cfa_register 13
 1705              		@ sp needed
 1706 010a 5DF8047B 		ldr	r7, [sp], #4
 1707              		.cfi_restore 7
 1708              		.cfi_def_cfa_offset 0
 1709 010e 7047     		bx	lr
 1710              		.cfi_endproc
 1711              	.LFE846:
 1713              		.section	.text.USB_DeactivateEndpoint,"ax",%progbits
ARM GAS  /tmp/ccxt1UfV.s 			page 42


 1714              		.align	1
 1715              		.global	USB_DeactivateEndpoint
 1716              		.syntax unified
 1717              		.thumb
 1718              		.thumb_func
 1720              	USB_DeactivateEndpoint:
 1721              	.LFB847:
 624:STM32Cube_FW_N6/Drivers/STM32N6xx_HAL_Driver/Src/stm32n6xx_ll_usb.c **** 
 625:STM32Cube_FW_N6/Drivers/STM32N6xx_HAL_Driver/Src/stm32n6xx_ll_usb.c **** /**
 626:STM32Cube_FW_N6/Drivers/STM32N6xx_HAL_Driver/Src/stm32n6xx_ll_usb.c ****   * @brief  De-activate and de-initialize an endpoint
 627:STM32Cube_FW_N6/Drivers/STM32N6xx_HAL_Driver/Src/stm32n6xx_ll_usb.c ****   * @param  USBx  Selected device
 628:STM32Cube_FW_N6/Drivers/STM32N6xx_HAL_Driver/Src/stm32n6xx_ll_usb.c ****   * @param  ep pointer to endpoint structure
 629:STM32Cube_FW_N6/Drivers/STM32N6xx_HAL_Driver/Src/stm32n6xx_ll_usb.c ****   * @retval HAL status
 630:STM32Cube_FW_N6/Drivers/STM32N6xx_HAL_Driver/Src/stm32n6xx_ll_usb.c ****   */
 631:STM32Cube_FW_N6/Drivers/STM32N6xx_HAL_Driver/Src/stm32n6xx_ll_usb.c **** HAL_StatusTypeDef USB_DeactivateEndpoint(const USB_OTG_GlobalTypeDef *USBx, const USB_OTG_EPTypeDef
 632:STM32Cube_FW_N6/Drivers/STM32N6xx_HAL_Driver/Src/stm32n6xx_ll_usb.c **** {
 1722              		.loc 1 632 1
 1723              		.cfi_startproc
 1724              		@ args = 0, pretend = 0, frame = 16
 1725              		@ frame_needed = 1, uses_anonymous_args = 0
 1726              		@ link register save eliminated.
 1727 0000 80B4     		push	{r7}
 1728              		.cfi_def_cfa_offset 4
 1729              		.cfi_offset 7, -4
 1730 0002 85B0     		sub	sp, sp, #20
 1731              		.cfi_def_cfa_offset 24
 1732 0004 00AF     		add	r7, sp, #0
 1733              		.cfi_def_cfa_register 7
 1734 0006 7860     		str	r0, [r7, #4]
 1735 0008 3960     		str	r1, [r7]
 633:STM32Cube_FW_N6/Drivers/STM32N6xx_HAL_Driver/Src/stm32n6xx_ll_usb.c ****   uint32_t USBx_BASE = (uint32_t)USBx;
 1736              		.loc 1 633 12
 1737 000a 7B68     		ldr	r3, [r7, #4]
 1738 000c FB60     		str	r3, [r7, #12]
 634:STM32Cube_FW_N6/Drivers/STM32N6xx_HAL_Driver/Src/stm32n6xx_ll_usb.c ****   uint32_t epnum = (uint32_t)ep->num;
 1739              		.loc 1 634 32
 1740 000e 3B68     		ldr	r3, [r7]
 1741 0010 1B78     		ldrb	r3, [r3]	@ zero_extendqisi2
 1742              		.loc 1 634 12
 1743 0012 BB60     		str	r3, [r7, #8]
 635:STM32Cube_FW_N6/Drivers/STM32N6xx_HAL_Driver/Src/stm32n6xx_ll_usb.c **** 
 636:STM32Cube_FW_N6/Drivers/STM32N6xx_HAL_Driver/Src/stm32n6xx_ll_usb.c ****   /* Read DEPCTLn register */
 637:STM32Cube_FW_N6/Drivers/STM32N6xx_HAL_Driver/Src/stm32n6xx_ll_usb.c ****   if (ep->is_in == 1U)
 1744              		.loc 1 637 9
 1745 0014 3B68     		ldr	r3, [r7]
 1746 0016 5B78     		ldrb	r3, [r3, #1]	@ zero_extendqisi2
 1747              		.loc 1 637 6
 1748 0018 012B     		cmp	r3, #1
 1749 001a 61D1     		bne	.L93
 638:STM32Cube_FW_N6/Drivers/STM32N6xx_HAL_Driver/Src/stm32n6xx_ll_usb.c ****   {
 639:STM32Cube_FW_N6/Drivers/STM32N6xx_HAL_Driver/Src/stm32n6xx_ll_usb.c ****     if ((USBx_INEP(epnum)->DIEPCTL & USB_OTG_DIEPCTL_EPENA) == USB_OTG_DIEPCTL_EPENA)
 1750              		.loc 1 639 10
 1751 001c BB68     		ldr	r3, [r7, #8]
 1752 001e 5A01     		lsls	r2, r3, #5
 1753 0020 FB68     		ldr	r3, [r7, #12]
 1754 0022 1344     		add	r3, r3, r2
 1755 0024 03F51063 		add	r3, r3, #2304
ARM GAS  /tmp/ccxt1UfV.s 			page 43


 1756              		.loc 1 639 26
 1757 0028 1B68     		ldr	r3, [r3]
 1758              		.loc 1 639 36
 1759 002a 03F00043 		and	r3, r3, #-2147483648
 1760              		.loc 1 639 8
 1761 002e B3F1004F 		cmp	r3, #-2147483648
 1762 0032 1FD1     		bne	.L94
 640:STM32Cube_FW_N6/Drivers/STM32N6xx_HAL_Driver/Src/stm32n6xx_ll_usb.c ****     {
 641:STM32Cube_FW_N6/Drivers/STM32N6xx_HAL_Driver/Src/stm32n6xx_ll_usb.c ****       USBx_INEP(epnum)->DIEPCTL |= USB_OTG_DIEPCTL_SNAK;
 1763              		.loc 1 641 23
 1764 0034 BB68     		ldr	r3, [r7, #8]
 1765 0036 5A01     		lsls	r2, r3, #5
 1766 0038 FB68     		ldr	r3, [r7, #12]
 1767 003a 1344     		add	r3, r3, r2
 1768 003c 03F51063 		add	r3, r3, #2304
 1769 0040 1B68     		ldr	r3, [r3]
 1770 0042 BA68     		ldr	r2, [r7, #8]
 1771 0044 5101     		lsls	r1, r2, #5
 1772 0046 FA68     		ldr	r2, [r7, #12]
 1773 0048 0A44     		add	r2, r2, r1
 1774 004a 02F51062 		add	r2, r2, #2304
 1775              		.loc 1 641 33
 1776 004e 43F00063 		orr	r3, r3, #134217728
 1777 0052 1360     		str	r3, [r2]
 642:STM32Cube_FW_N6/Drivers/STM32N6xx_HAL_Driver/Src/stm32n6xx_ll_usb.c ****       USBx_INEP(epnum)->DIEPCTL |= USB_OTG_DIEPCTL_EPDIS;
 1778              		.loc 1 642 23
 1779 0054 BB68     		ldr	r3, [r7, #8]
 1780 0056 5A01     		lsls	r2, r3, #5
 1781 0058 FB68     		ldr	r3, [r7, #12]
 1782 005a 1344     		add	r3, r3, r2
 1783 005c 03F51063 		add	r3, r3, #2304
 1784 0060 1B68     		ldr	r3, [r3]
 1785 0062 BA68     		ldr	r2, [r7, #8]
 1786 0064 5101     		lsls	r1, r2, #5
 1787 0066 FA68     		ldr	r2, [r7, #12]
 1788 0068 0A44     		add	r2, r2, r1
 1789 006a 02F51062 		add	r2, r2, #2304
 1790              		.loc 1 642 33
 1791 006e 43F08043 		orr	r3, r3, #1073741824
 1792 0072 1360     		str	r3, [r2]
 1793              	.L94:
 643:STM32Cube_FW_N6/Drivers/STM32N6xx_HAL_Driver/Src/stm32n6xx_ll_usb.c ****     }
 644:STM32Cube_FW_N6/Drivers/STM32N6xx_HAL_Driver/Src/stm32n6xx_ll_usb.c **** 
 645:STM32Cube_FW_N6/Drivers/STM32N6xx_HAL_Driver/Src/stm32n6xx_ll_usb.c ****     USBx_DEVICE->DEACHMSK &= ~(USB_OTG_DAINTMSK_IEPM & (uint32_t)(1UL << (ep->num & EP_ADDR_MSK)));
 1794              		.loc 1 645 16
 1795 0074 FB68     		ldr	r3, [r7, #12]
 1796 0076 03F50063 		add	r3, r3, #2048
 1797 007a DA6B     		ldr	r2, [r3, #60]
 1798              		.loc 1 645 77
 1799 007c 3B68     		ldr	r3, [r7]
 1800 007e 1B78     		ldrb	r3, [r3]	@ zero_extendqisi2
 1801              		.loc 1 645 83
 1802 0080 03F00F03 		and	r3, r3, #15
 1803              		.loc 1 645 56
 1804 0084 0121     		movs	r1, #1
 1805 0086 01FA03F3 		lsl	r3, r1, r3
 1806              		.loc 1 645 54
ARM GAS  /tmp/ccxt1UfV.s 			page 44


 1807 008a 9BB2     		uxth	r3, r3
 1808              		.loc 1 645 30
 1809 008c DB43     		mvns	r3, r3
 1810              		.loc 1 645 16
 1811 008e F968     		ldr	r1, [r7, #12]
 1812 0090 01F50061 		add	r1, r1, #2048
 1813              		.loc 1 645 27
 1814 0094 1340     		ands	r3, r3, r2
 1815 0096 CB63     		str	r3, [r1, #60]
 646:STM32Cube_FW_N6/Drivers/STM32N6xx_HAL_Driver/Src/stm32n6xx_ll_usb.c ****     USBx_DEVICE->DAINTMSK &= ~(USB_OTG_DAINTMSK_IEPM & (uint32_t)(1UL << (ep->num & EP_ADDR_MSK)));
 1816              		.loc 1 646 16
 1817 0098 FB68     		ldr	r3, [r7, #12]
 1818 009a 03F50063 		add	r3, r3, #2048
 1819 009e DA69     		ldr	r2, [r3, #28]
 1820              		.loc 1 646 77
 1821 00a0 3B68     		ldr	r3, [r7]
 1822 00a2 1B78     		ldrb	r3, [r3]	@ zero_extendqisi2
 1823              		.loc 1 646 83
 1824 00a4 03F00F03 		and	r3, r3, #15
 1825              		.loc 1 646 56
 1826 00a8 0121     		movs	r1, #1
 1827 00aa 01FA03F3 		lsl	r3, r1, r3
 1828              		.loc 1 646 54
 1829 00ae 9BB2     		uxth	r3, r3
 1830              		.loc 1 646 30
 1831 00b0 DB43     		mvns	r3, r3
 1832              		.loc 1 646 16
 1833 00b2 F968     		ldr	r1, [r7, #12]
 1834 00b4 01F50061 		add	r1, r1, #2048
 1835              		.loc 1 646 27
 1836 00b8 1340     		ands	r3, r3, r2
 1837 00ba CB61     		str	r3, [r1, #28]
 647:STM32Cube_FW_N6/Drivers/STM32N6xx_HAL_Driver/Src/stm32n6xx_ll_usb.c ****     USBx_INEP(epnum)->DIEPCTL &= ~(USB_OTG_DIEPCTL_USBAEP |
 1838              		.loc 1 647 21
 1839 00bc BB68     		ldr	r3, [r7, #8]
 1840 00be 5A01     		lsls	r2, r3, #5
 1841 00c0 FB68     		ldr	r3, [r7, #12]
 1842 00c2 1344     		add	r3, r3, r2
 1843 00c4 03F51063 		add	r3, r3, #2304
 1844 00c8 1A68     		ldr	r2, [r3]
 1845 00ca BB68     		ldr	r3, [r7, #8]
 1846 00cc 5901     		lsls	r1, r3, #5
 1847 00ce FB68     		ldr	r3, [r7, #12]
 1848 00d0 0B44     		add	r3, r3, r1
 1849 00d2 03F51063 		add	r3, r3, #2304
 1850 00d6 1946     		mov	r1, r3
 1851              		.loc 1 647 31
 1852 00d8 354B     		ldr	r3, .L98
 1853 00da 1340     		ands	r3, r3, r2
 1854 00dc 0B60     		str	r3, [r1]
 1855 00de 60E0     		b	.L95
 1856              	.L93:
 648:STM32Cube_FW_N6/Drivers/STM32N6xx_HAL_Driver/Src/stm32n6xx_ll_usb.c ****                                    USB_OTG_DIEPCTL_MPSIZ |
 649:STM32Cube_FW_N6/Drivers/STM32N6xx_HAL_Driver/Src/stm32n6xx_ll_usb.c ****                                    USB_OTG_DIEPCTL_TXFNUM |
 650:STM32Cube_FW_N6/Drivers/STM32N6xx_HAL_Driver/Src/stm32n6xx_ll_usb.c ****                                    USB_OTG_DIEPCTL_SD0PID_SEVNFRM |
 651:STM32Cube_FW_N6/Drivers/STM32N6xx_HAL_Driver/Src/stm32n6xx_ll_usb.c ****                                    USB_OTG_DIEPCTL_EPTYP);
 652:STM32Cube_FW_N6/Drivers/STM32N6xx_HAL_Driver/Src/stm32n6xx_ll_usb.c ****   }
ARM GAS  /tmp/ccxt1UfV.s 			page 45


 653:STM32Cube_FW_N6/Drivers/STM32N6xx_HAL_Driver/Src/stm32n6xx_ll_usb.c ****   else
 654:STM32Cube_FW_N6/Drivers/STM32N6xx_HAL_Driver/Src/stm32n6xx_ll_usb.c ****   {
 655:STM32Cube_FW_N6/Drivers/STM32N6xx_HAL_Driver/Src/stm32n6xx_ll_usb.c ****     if ((USBx_OUTEP(epnum)->DOEPCTL & USB_OTG_DOEPCTL_EPENA) == USB_OTG_DOEPCTL_EPENA)
 1857              		.loc 1 655 10
 1858 00e0 BB68     		ldr	r3, [r7, #8]
 1859 00e2 5A01     		lsls	r2, r3, #5
 1860 00e4 FB68     		ldr	r3, [r7, #12]
 1861 00e6 1344     		add	r3, r3, r2
 1862 00e8 03F53063 		add	r3, r3, #2816
 1863              		.loc 1 655 27
 1864 00ec 1B68     		ldr	r3, [r3]
 1865              		.loc 1 655 37
 1866 00ee 03F00043 		and	r3, r3, #-2147483648
 1867              		.loc 1 655 8
 1868 00f2 B3F1004F 		cmp	r3, #-2147483648
 1869 00f6 1FD1     		bne	.L96
 656:STM32Cube_FW_N6/Drivers/STM32N6xx_HAL_Driver/Src/stm32n6xx_ll_usb.c ****     {
 657:STM32Cube_FW_N6/Drivers/STM32N6xx_HAL_Driver/Src/stm32n6xx_ll_usb.c ****       USBx_OUTEP(epnum)->DOEPCTL |= USB_OTG_DOEPCTL_SNAK;
 1870              		.loc 1 657 24
 1871 00f8 BB68     		ldr	r3, [r7, #8]
 1872 00fa 5A01     		lsls	r2, r3, #5
 1873 00fc FB68     		ldr	r3, [r7, #12]
 1874 00fe 1344     		add	r3, r3, r2
 1875 0100 03F53063 		add	r3, r3, #2816
 1876 0104 1B68     		ldr	r3, [r3]
 1877 0106 BA68     		ldr	r2, [r7, #8]
 1878 0108 5101     		lsls	r1, r2, #5
 1879 010a FA68     		ldr	r2, [r7, #12]
 1880 010c 0A44     		add	r2, r2, r1
 1881 010e 02F53062 		add	r2, r2, #2816
 1882              		.loc 1 657 34
 1883 0112 43F00063 		orr	r3, r3, #134217728
 1884 0116 1360     		str	r3, [r2]
 658:STM32Cube_FW_N6/Drivers/STM32N6xx_HAL_Driver/Src/stm32n6xx_ll_usb.c ****       USBx_OUTEP(epnum)->DOEPCTL |= USB_OTG_DOEPCTL_EPDIS;
 1885              		.loc 1 658 24
 1886 0118 BB68     		ldr	r3, [r7, #8]
 1887 011a 5A01     		lsls	r2, r3, #5
 1888 011c FB68     		ldr	r3, [r7, #12]
 1889 011e 1344     		add	r3, r3, r2
 1890 0120 03F53063 		add	r3, r3, #2816
 1891 0124 1B68     		ldr	r3, [r3]
 1892 0126 BA68     		ldr	r2, [r7, #8]
 1893 0128 5101     		lsls	r1, r2, #5
 1894 012a FA68     		ldr	r2, [r7, #12]
 1895 012c 0A44     		add	r2, r2, r1
 1896 012e 02F53062 		add	r2, r2, #2816
 1897              		.loc 1 658 34
 1898 0132 43F08043 		orr	r3, r3, #1073741824
 1899 0136 1360     		str	r3, [r2]
 1900              	.L96:
 659:STM32Cube_FW_N6/Drivers/STM32N6xx_HAL_Driver/Src/stm32n6xx_ll_usb.c ****     }
 660:STM32Cube_FW_N6/Drivers/STM32N6xx_HAL_Driver/Src/stm32n6xx_ll_usb.c **** 
 661:STM32Cube_FW_N6/Drivers/STM32N6xx_HAL_Driver/Src/stm32n6xx_ll_usb.c ****     USBx_DEVICE->DEACHMSK &= ~(USB_OTG_DAINTMSK_OEPM & ((uint32_t)(1UL << (ep->num & EP_ADDR_MSK)) 
 1901              		.loc 1 661 16
 1902 0138 FB68     		ldr	r3, [r7, #12]
 1903 013a 03F50063 		add	r3, r3, #2048
 1904 013e DA6B     		ldr	r2, [r3, #60]
ARM GAS  /tmp/ccxt1UfV.s 			page 46


 1905              		.loc 1 661 78
 1906 0140 3B68     		ldr	r3, [r7]
 1907 0142 1B78     		ldrb	r3, [r3]	@ zero_extendqisi2
 1908              		.loc 1 661 84
 1909 0144 03F00F03 		and	r3, r3, #15
 1910              		.loc 1 661 57
 1911 0148 0121     		movs	r1, #1
 1912 014a 01FA03F3 		lsl	r3, r1, r3
 1913              		.loc 1 661 54
 1914 014e 1B04     		lsls	r3, r3, #16
 1915              		.loc 1 661 30
 1916 0150 DB43     		mvns	r3, r3
 1917              		.loc 1 661 16
 1918 0152 F968     		ldr	r1, [r7, #12]
 1919 0154 01F50061 		add	r1, r1, #2048
 1920              		.loc 1 661 27
 1921 0158 1340     		ands	r3, r3, r2
 1922 015a CB63     		str	r3, [r1, #60]
 662:STM32Cube_FW_N6/Drivers/STM32N6xx_HAL_Driver/Src/stm32n6xx_ll_usb.c ****     USBx_DEVICE->DAINTMSK &= ~(USB_OTG_DAINTMSK_OEPM & ((uint32_t)(1UL << (ep->num & EP_ADDR_MSK)) 
 1923              		.loc 1 662 16
 1924 015c FB68     		ldr	r3, [r7, #12]
 1925 015e 03F50063 		add	r3, r3, #2048
 1926 0162 DA69     		ldr	r2, [r3, #28]
 1927              		.loc 1 662 78
 1928 0164 3B68     		ldr	r3, [r7]
 1929 0166 1B78     		ldrb	r3, [r3]	@ zero_extendqisi2
 1930              		.loc 1 662 84
 1931 0168 03F00F03 		and	r3, r3, #15
 1932              		.loc 1 662 57
 1933 016c 0121     		movs	r1, #1
 1934 016e 01FA03F3 		lsl	r3, r1, r3
 1935              		.loc 1 662 54
 1936 0172 1B04     		lsls	r3, r3, #16
 1937              		.loc 1 662 30
 1938 0174 DB43     		mvns	r3, r3
 1939              		.loc 1 662 16
 1940 0176 F968     		ldr	r1, [r7, #12]
 1941 0178 01F50061 		add	r1, r1, #2048
 1942              		.loc 1 662 27
 1943 017c 1340     		ands	r3, r3, r2
 1944 017e CB61     		str	r3, [r1, #28]
 663:STM32Cube_FW_N6/Drivers/STM32N6xx_HAL_Driver/Src/stm32n6xx_ll_usb.c ****     USBx_OUTEP(epnum)->DOEPCTL &= ~(USB_OTG_DOEPCTL_USBAEP |
 1945              		.loc 1 663 22
 1946 0180 BB68     		ldr	r3, [r7, #8]
 1947 0182 5A01     		lsls	r2, r3, #5
 1948 0184 FB68     		ldr	r3, [r7, #12]
 1949 0186 1344     		add	r3, r3, r2
 1950 0188 03F53063 		add	r3, r3, #2816
 1951 018c 1A68     		ldr	r2, [r3]
 1952 018e BB68     		ldr	r3, [r7, #8]
 1953 0190 5901     		lsls	r1, r3, #5
 1954 0192 FB68     		ldr	r3, [r7, #12]
 1955 0194 0B44     		add	r3, r3, r1
 1956 0196 03F53063 		add	r3, r3, #2816
 1957 019a 1946     		mov	r1, r3
 1958              		.loc 1 663 32
 1959 019c 054B     		ldr	r3, .L98+4
ARM GAS  /tmp/ccxt1UfV.s 			page 47


 1960 019e 1340     		ands	r3, r3, r2
 1961 01a0 0B60     		str	r3, [r1]
 1962              	.L95:
 664:STM32Cube_FW_N6/Drivers/STM32N6xx_HAL_Driver/Src/stm32n6xx_ll_usb.c ****                                     USB_OTG_DOEPCTL_MPSIZ |
 665:STM32Cube_FW_N6/Drivers/STM32N6xx_HAL_Driver/Src/stm32n6xx_ll_usb.c ****                                     USB_OTG_DOEPCTL_SD0PID_SEVNFRM |
 666:STM32Cube_FW_N6/Drivers/STM32N6xx_HAL_Driver/Src/stm32n6xx_ll_usb.c ****                                     USB_OTG_DOEPCTL_EPTYP);
 667:STM32Cube_FW_N6/Drivers/STM32N6xx_HAL_Driver/Src/stm32n6xx_ll_usb.c ****   }
 668:STM32Cube_FW_N6/Drivers/STM32N6xx_HAL_Driver/Src/stm32n6xx_ll_usb.c **** 
 669:STM32Cube_FW_N6/Drivers/STM32N6xx_HAL_Driver/Src/stm32n6xx_ll_usb.c ****   return HAL_OK;
 1963              		.loc 1 669 10
 1964 01a2 0023     		movs	r3, #0
 670:STM32Cube_FW_N6/Drivers/STM32N6xx_HAL_Driver/Src/stm32n6xx_ll_usb.c **** }
 1965              		.loc 1 670 1
 1966 01a4 1846     		mov	r0, r3
 1967 01a6 1437     		adds	r7, r7, #20
 1968              		.cfi_def_cfa_offset 4
 1969 01a8 BD46     		mov	sp, r7
 1970              		.cfi_def_cfa_register 13
 1971              		@ sp needed
 1972 01aa 5DF8047B 		ldr	r7, [sp], #4
 1973              		.cfi_restore 7
 1974              		.cfi_def_cfa_offset 0
 1975 01ae 7047     		bx	lr
 1976              	.L99:
 1977              		.align	2
 1978              	.L98:
 1979 01b0 007833EC 		.word	-332171264
 1980 01b4 0078F3EF 		.word	-269256704
 1981              		.cfi_endproc
 1982              	.LFE847:
 1984              		.section	.text.USB_DeactivateDedicatedEndpoint,"ax",%progbits
 1985              		.align	1
 1986              		.global	USB_DeactivateDedicatedEndpoint
 1987              		.syntax unified
 1988              		.thumb
 1989              		.thumb_func
 1991              	USB_DeactivateDedicatedEndpoint:
 1992              	.LFB848:
 671:STM32Cube_FW_N6/Drivers/STM32N6xx_HAL_Driver/Src/stm32n6xx_ll_usb.c **** 
 672:STM32Cube_FW_N6/Drivers/STM32N6xx_HAL_Driver/Src/stm32n6xx_ll_usb.c **** /**
 673:STM32Cube_FW_N6/Drivers/STM32N6xx_HAL_Driver/Src/stm32n6xx_ll_usb.c ****   * @brief  De-activate and de-initialize a dedicated endpoint
 674:STM32Cube_FW_N6/Drivers/STM32N6xx_HAL_Driver/Src/stm32n6xx_ll_usb.c ****   * @param  USBx  Selected device
 675:STM32Cube_FW_N6/Drivers/STM32N6xx_HAL_Driver/Src/stm32n6xx_ll_usb.c ****   * @param  ep pointer to endpoint structure
 676:STM32Cube_FW_N6/Drivers/STM32N6xx_HAL_Driver/Src/stm32n6xx_ll_usb.c ****   * @retval HAL status
 677:STM32Cube_FW_N6/Drivers/STM32N6xx_HAL_Driver/Src/stm32n6xx_ll_usb.c ****   */
 678:STM32Cube_FW_N6/Drivers/STM32N6xx_HAL_Driver/Src/stm32n6xx_ll_usb.c **** HAL_StatusTypeDef USB_DeactivateDedicatedEndpoint(const USB_OTG_GlobalTypeDef *USBx, const USB_OTG_
 679:STM32Cube_FW_N6/Drivers/STM32N6xx_HAL_Driver/Src/stm32n6xx_ll_usb.c **** {
 1993              		.loc 1 679 1
 1994              		.cfi_startproc
 1995              		@ args = 0, pretend = 0, frame = 16
 1996              		@ frame_needed = 1, uses_anonymous_args = 0
 1997              		@ link register save eliminated.
 1998 0000 80B4     		push	{r7}
 1999              		.cfi_def_cfa_offset 4
 2000              		.cfi_offset 7, -4
 2001 0002 85B0     		sub	sp, sp, #20
 2002              		.cfi_def_cfa_offset 24
ARM GAS  /tmp/ccxt1UfV.s 			page 48


 2003 0004 00AF     		add	r7, sp, #0
 2004              		.cfi_def_cfa_register 7
 2005 0006 7860     		str	r0, [r7, #4]
 2006 0008 3960     		str	r1, [r7]
 680:STM32Cube_FW_N6/Drivers/STM32N6xx_HAL_Driver/Src/stm32n6xx_ll_usb.c ****   uint32_t USBx_BASE = (uint32_t)USBx;
 2007              		.loc 1 680 12
 2008 000a 7B68     		ldr	r3, [r7, #4]
 2009 000c FB60     		str	r3, [r7, #12]
 681:STM32Cube_FW_N6/Drivers/STM32N6xx_HAL_Driver/Src/stm32n6xx_ll_usb.c ****   uint32_t epnum = (uint32_t)ep->num;
 2010              		.loc 1 681 32
 2011 000e 3B68     		ldr	r3, [r7]
 2012 0010 1B78     		ldrb	r3, [r3]	@ zero_extendqisi2
 2013              		.loc 1 681 12
 2014 0012 BB60     		str	r3, [r7, #8]
 682:STM32Cube_FW_N6/Drivers/STM32N6xx_HAL_Driver/Src/stm32n6xx_ll_usb.c **** 
 683:STM32Cube_FW_N6/Drivers/STM32N6xx_HAL_Driver/Src/stm32n6xx_ll_usb.c ****   /* Read DEPCTLn register */
 684:STM32Cube_FW_N6/Drivers/STM32N6xx_HAL_Driver/Src/stm32n6xx_ll_usb.c ****   if (ep->is_in == 1U)
 2015              		.loc 1 684 9
 2016 0014 3B68     		ldr	r3, [r7]
 2017 0016 5B78     		ldrb	r3, [r3, #1]	@ zero_extendqisi2
 2018              		.loc 1 684 6
 2019 0018 012B     		cmp	r3, #1
 2020 001a 4ED1     		bne	.L101
 685:STM32Cube_FW_N6/Drivers/STM32N6xx_HAL_Driver/Src/stm32n6xx_ll_usb.c ****   {
 686:STM32Cube_FW_N6/Drivers/STM32N6xx_HAL_Driver/Src/stm32n6xx_ll_usb.c ****     if ((USBx_INEP(epnum)->DIEPCTL & USB_OTG_DIEPCTL_EPENA) == USB_OTG_DIEPCTL_EPENA)
 2021              		.loc 1 686 10
 2022 001c BB68     		ldr	r3, [r7, #8]
 2023 001e 5A01     		lsls	r2, r3, #5
 2024 0020 FB68     		ldr	r3, [r7, #12]
 2025 0022 1344     		add	r3, r3, r2
 2026 0024 03F51063 		add	r3, r3, #2304
 2027              		.loc 1 686 26
 2028 0028 1B68     		ldr	r3, [r3]
 2029              		.loc 1 686 36
 2030 002a 03F00043 		and	r3, r3, #-2147483648
 2031              		.loc 1 686 8
 2032 002e B3F1004F 		cmp	r3, #-2147483648
 2033 0032 1FD1     		bne	.L102
 687:STM32Cube_FW_N6/Drivers/STM32N6xx_HAL_Driver/Src/stm32n6xx_ll_usb.c ****     {
 688:STM32Cube_FW_N6/Drivers/STM32N6xx_HAL_Driver/Src/stm32n6xx_ll_usb.c ****       USBx_INEP(epnum)->DIEPCTL  |= USB_OTG_DIEPCTL_SNAK;
 2034              		.loc 1 688 23
 2035 0034 BB68     		ldr	r3, [r7, #8]
 2036 0036 5A01     		lsls	r2, r3, #5
 2037 0038 FB68     		ldr	r3, [r7, #12]
 2038 003a 1344     		add	r3, r3, r2
 2039 003c 03F51063 		add	r3, r3, #2304
 2040 0040 1B68     		ldr	r3, [r3]
 2041 0042 BA68     		ldr	r2, [r7, #8]
 2042 0044 5101     		lsls	r1, r2, #5
 2043 0046 FA68     		ldr	r2, [r7, #12]
 2044 0048 0A44     		add	r2, r2, r1
 2045 004a 02F51062 		add	r2, r2, #2304
 2046              		.loc 1 688 34
 2047 004e 43F00063 		orr	r3, r3, #134217728
 2048 0052 1360     		str	r3, [r2]
 689:STM32Cube_FW_N6/Drivers/STM32N6xx_HAL_Driver/Src/stm32n6xx_ll_usb.c ****       USBx_INEP(epnum)->DIEPCTL  |= USB_OTG_DIEPCTL_EPDIS;
 2049              		.loc 1 689 23
ARM GAS  /tmp/ccxt1UfV.s 			page 49


 2050 0054 BB68     		ldr	r3, [r7, #8]
 2051 0056 5A01     		lsls	r2, r3, #5
 2052 0058 FB68     		ldr	r3, [r7, #12]
 2053 005a 1344     		add	r3, r3, r2
 2054 005c 03F51063 		add	r3, r3, #2304
 2055 0060 1B68     		ldr	r3, [r3]
 2056 0062 BA68     		ldr	r2, [r7, #8]
 2057 0064 5101     		lsls	r1, r2, #5
 2058 0066 FA68     		ldr	r2, [r7, #12]
 2059 0068 0A44     		add	r2, r2, r1
 2060 006a 02F51062 		add	r2, r2, #2304
 2061              		.loc 1 689 34
 2062 006e 43F08043 		orr	r3, r3, #1073741824
 2063 0072 1360     		str	r3, [r2]
 2064              	.L102:
 690:STM32Cube_FW_N6/Drivers/STM32N6xx_HAL_Driver/Src/stm32n6xx_ll_usb.c ****     }
 691:STM32Cube_FW_N6/Drivers/STM32N6xx_HAL_Driver/Src/stm32n6xx_ll_usb.c **** 
 692:STM32Cube_FW_N6/Drivers/STM32N6xx_HAL_Driver/Src/stm32n6xx_ll_usb.c ****     USBx_INEP(epnum)->DIEPCTL &= ~ USB_OTG_DIEPCTL_USBAEP;
 2065              		.loc 1 692 21
 2066 0074 BB68     		ldr	r3, [r7, #8]
 2067 0076 5A01     		lsls	r2, r3, #5
 2068 0078 FB68     		ldr	r3, [r7, #12]
 2069 007a 1344     		add	r3, r3, r2
 2070 007c 03F51063 		add	r3, r3, #2304
 2071 0080 1B68     		ldr	r3, [r3]
 2072 0082 BA68     		ldr	r2, [r7, #8]
 2073 0084 5101     		lsls	r1, r2, #5
 2074 0086 FA68     		ldr	r2, [r7, #12]
 2075 0088 0A44     		add	r2, r2, r1
 2076 008a 02F51062 		add	r2, r2, #2304
 2077              		.loc 1 692 31
 2078 008e 23F40043 		bic	r3, r3, #32768
 2079 0092 1360     		str	r3, [r2]
 693:STM32Cube_FW_N6/Drivers/STM32N6xx_HAL_Driver/Src/stm32n6xx_ll_usb.c ****     USBx_DEVICE->DAINTMSK &= ~(USB_OTG_DAINTMSK_IEPM & (uint32_t)(1UL << (ep->num & EP_ADDR_MSK)));
 2080              		.loc 1 693 16
 2081 0094 FB68     		ldr	r3, [r7, #12]
 2082 0096 03F50063 		add	r3, r3, #2048
 2083 009a DA69     		ldr	r2, [r3, #28]
 2084              		.loc 1 693 77
 2085 009c 3B68     		ldr	r3, [r7]
 2086 009e 1B78     		ldrb	r3, [r3]	@ zero_extendqisi2
 2087              		.loc 1 693 83
 2088 00a0 03F00F03 		and	r3, r3, #15
 2089              		.loc 1 693 56
 2090 00a4 0121     		movs	r1, #1
 2091 00a6 01FA03F3 		lsl	r3, r1, r3
 2092              		.loc 1 693 54
 2093 00aa 9BB2     		uxth	r3, r3
 2094              		.loc 1 693 30
 2095 00ac DB43     		mvns	r3, r3
 2096              		.loc 1 693 16
 2097 00ae F968     		ldr	r1, [r7, #12]
 2098 00b0 01F50061 		add	r1, r1, #2048
 2099              		.loc 1 693 27
 2100 00b4 1340     		ands	r3, r3, r2
 2101 00b6 CB61     		str	r3, [r1, #28]
 2102 00b8 4DE0     		b	.L103
ARM GAS  /tmp/ccxt1UfV.s 			page 50


 2103              	.L101:
 694:STM32Cube_FW_N6/Drivers/STM32N6xx_HAL_Driver/Src/stm32n6xx_ll_usb.c ****   }
 695:STM32Cube_FW_N6/Drivers/STM32N6xx_HAL_Driver/Src/stm32n6xx_ll_usb.c ****   else
 696:STM32Cube_FW_N6/Drivers/STM32N6xx_HAL_Driver/Src/stm32n6xx_ll_usb.c ****   {
 697:STM32Cube_FW_N6/Drivers/STM32N6xx_HAL_Driver/Src/stm32n6xx_ll_usb.c ****     if ((USBx_OUTEP(epnum)->DOEPCTL & USB_OTG_DOEPCTL_EPENA) == USB_OTG_DOEPCTL_EPENA)
 2104              		.loc 1 697 10
 2105 00ba BB68     		ldr	r3, [r7, #8]
 2106 00bc 5A01     		lsls	r2, r3, #5
 2107 00be FB68     		ldr	r3, [r7, #12]
 2108 00c0 1344     		add	r3, r3, r2
 2109 00c2 03F53063 		add	r3, r3, #2816
 2110              		.loc 1 697 27
 2111 00c6 1B68     		ldr	r3, [r3]
 2112              		.loc 1 697 37
 2113 00c8 03F00043 		and	r3, r3, #-2147483648
 2114              		.loc 1 697 8
 2115 00cc B3F1004F 		cmp	r3, #-2147483648
 2116 00d0 1FD1     		bne	.L104
 698:STM32Cube_FW_N6/Drivers/STM32N6xx_HAL_Driver/Src/stm32n6xx_ll_usb.c ****     {
 699:STM32Cube_FW_N6/Drivers/STM32N6xx_HAL_Driver/Src/stm32n6xx_ll_usb.c ****       USBx_OUTEP(epnum)->DOEPCTL  |= USB_OTG_DOEPCTL_SNAK;
 2117              		.loc 1 699 24
 2118 00d2 BB68     		ldr	r3, [r7, #8]
 2119 00d4 5A01     		lsls	r2, r3, #5
 2120 00d6 FB68     		ldr	r3, [r7, #12]
 2121 00d8 1344     		add	r3, r3, r2
 2122 00da 03F53063 		add	r3, r3, #2816
 2123 00de 1B68     		ldr	r3, [r3]
 2124 00e0 BA68     		ldr	r2, [r7, #8]
 2125 00e2 5101     		lsls	r1, r2, #5
 2126 00e4 FA68     		ldr	r2, [r7, #12]
 2127 00e6 0A44     		add	r2, r2, r1
 2128 00e8 02F53062 		add	r2, r2, #2816
 2129              		.loc 1 699 35
 2130 00ec 43F00063 		orr	r3, r3, #134217728
 2131 00f0 1360     		str	r3, [r2]
 700:STM32Cube_FW_N6/Drivers/STM32N6xx_HAL_Driver/Src/stm32n6xx_ll_usb.c ****       USBx_OUTEP(epnum)->DOEPCTL  |= USB_OTG_DOEPCTL_EPDIS;
 2132              		.loc 1 700 24
 2133 00f2 BB68     		ldr	r3, [r7, #8]
 2134 00f4 5A01     		lsls	r2, r3, #5
 2135 00f6 FB68     		ldr	r3, [r7, #12]
 2136 00f8 1344     		add	r3, r3, r2
 2137 00fa 03F53063 		add	r3, r3, #2816
 2138 00fe 1B68     		ldr	r3, [r3]
 2139 0100 BA68     		ldr	r2, [r7, #8]
 2140 0102 5101     		lsls	r1, r2, #5
 2141 0104 FA68     		ldr	r2, [r7, #12]
 2142 0106 0A44     		add	r2, r2, r1
 2143 0108 02F53062 		add	r2, r2, #2816
 2144              		.loc 1 700 35
 2145 010c 43F08043 		orr	r3, r3, #1073741824
 2146 0110 1360     		str	r3, [r2]
 2147              	.L104:
 701:STM32Cube_FW_N6/Drivers/STM32N6xx_HAL_Driver/Src/stm32n6xx_ll_usb.c ****     }
 702:STM32Cube_FW_N6/Drivers/STM32N6xx_HAL_Driver/Src/stm32n6xx_ll_usb.c **** 
 703:STM32Cube_FW_N6/Drivers/STM32N6xx_HAL_Driver/Src/stm32n6xx_ll_usb.c ****     USBx_OUTEP(epnum)->DOEPCTL &= ~USB_OTG_DOEPCTL_USBAEP;
 2148              		.loc 1 703 22
 2149 0112 BB68     		ldr	r3, [r7, #8]
ARM GAS  /tmp/ccxt1UfV.s 			page 51


 2150 0114 5A01     		lsls	r2, r3, #5
 2151 0116 FB68     		ldr	r3, [r7, #12]
 2152 0118 1344     		add	r3, r3, r2
 2153 011a 03F53063 		add	r3, r3, #2816
 2154 011e 1B68     		ldr	r3, [r3]
 2155 0120 BA68     		ldr	r2, [r7, #8]
 2156 0122 5101     		lsls	r1, r2, #5
 2157 0124 FA68     		ldr	r2, [r7, #12]
 2158 0126 0A44     		add	r2, r2, r1
 2159 0128 02F53062 		add	r2, r2, #2816
 2160              		.loc 1 703 32
 2161 012c 23F40043 		bic	r3, r3, #32768
 2162 0130 1360     		str	r3, [r2]
 704:STM32Cube_FW_N6/Drivers/STM32N6xx_HAL_Driver/Src/stm32n6xx_ll_usb.c ****     USBx_DEVICE->DAINTMSK &= ~(USB_OTG_DAINTMSK_OEPM & ((uint32_t)(1UL << (ep->num & EP_ADDR_MSK)) 
 2163              		.loc 1 704 16
 2164 0132 FB68     		ldr	r3, [r7, #12]
 2165 0134 03F50063 		add	r3, r3, #2048
 2166 0138 DA69     		ldr	r2, [r3, #28]
 2167              		.loc 1 704 78
 2168 013a 3B68     		ldr	r3, [r7]
 2169 013c 1B78     		ldrb	r3, [r3]	@ zero_extendqisi2
 2170              		.loc 1 704 84
 2171 013e 03F00F03 		and	r3, r3, #15
 2172              		.loc 1 704 57
 2173 0142 0121     		movs	r1, #1
 2174 0144 01FA03F3 		lsl	r3, r1, r3
 2175              		.loc 1 704 54
 2176 0148 1B04     		lsls	r3, r3, #16
 2177              		.loc 1 704 30
 2178 014a DB43     		mvns	r3, r3
 2179              		.loc 1 704 16
 2180 014c F968     		ldr	r1, [r7, #12]
 2181 014e 01F50061 		add	r1, r1, #2048
 2182              		.loc 1 704 27
 2183 0152 1340     		ands	r3, r3, r2
 2184 0154 CB61     		str	r3, [r1, #28]
 2185              	.L103:
 705:STM32Cube_FW_N6/Drivers/STM32N6xx_HAL_Driver/Src/stm32n6xx_ll_usb.c ****   }
 706:STM32Cube_FW_N6/Drivers/STM32N6xx_HAL_Driver/Src/stm32n6xx_ll_usb.c **** 
 707:STM32Cube_FW_N6/Drivers/STM32N6xx_HAL_Driver/Src/stm32n6xx_ll_usb.c ****   return HAL_OK;
 2186              		.loc 1 707 10
 2187 0156 0023     		movs	r3, #0
 708:STM32Cube_FW_N6/Drivers/STM32N6xx_HAL_Driver/Src/stm32n6xx_ll_usb.c **** }
 2188              		.loc 1 708 1
 2189 0158 1846     		mov	r0, r3
 2190 015a 1437     		adds	r7, r7, #20
 2191              		.cfi_def_cfa_offset 4
 2192 015c BD46     		mov	sp, r7
 2193              		.cfi_def_cfa_register 13
 2194              		@ sp needed
 2195 015e 5DF8047B 		ldr	r7, [sp], #4
 2196              		.cfi_restore 7
 2197              		.cfi_def_cfa_offset 0
 2198 0162 7047     		bx	lr
 2199              		.cfi_endproc
 2200              	.LFE848:
 2202              		.section	.text.USB_EPStartXfer,"ax",%progbits
ARM GAS  /tmp/ccxt1UfV.s 			page 52


 2203              		.align	1
 2204              		.global	USB_EPStartXfer
 2205              		.syntax unified
 2206              		.thumb
 2207              		.thumb_func
 2209              	USB_EPStartXfer:
 2210              	.LFB849:
 709:STM32Cube_FW_N6/Drivers/STM32N6xx_HAL_Driver/Src/stm32n6xx_ll_usb.c **** 
 710:STM32Cube_FW_N6/Drivers/STM32N6xx_HAL_Driver/Src/stm32n6xx_ll_usb.c **** /**
 711:STM32Cube_FW_N6/Drivers/STM32N6xx_HAL_Driver/Src/stm32n6xx_ll_usb.c ****   * @brief  USB_EPStartXfer : setup and starts a transfer over an EP
 712:STM32Cube_FW_N6/Drivers/STM32N6xx_HAL_Driver/Src/stm32n6xx_ll_usb.c ****   * @param  USBx  Selected device
 713:STM32Cube_FW_N6/Drivers/STM32N6xx_HAL_Driver/Src/stm32n6xx_ll_usb.c ****   * @param  ep pointer to endpoint structure
 714:STM32Cube_FW_N6/Drivers/STM32N6xx_HAL_Driver/Src/stm32n6xx_ll_usb.c ****   * @param  dma USB dma enabled or disabled
 715:STM32Cube_FW_N6/Drivers/STM32N6xx_HAL_Driver/Src/stm32n6xx_ll_usb.c ****   *          This parameter can be one of these values:
 716:STM32Cube_FW_N6/Drivers/STM32N6xx_HAL_Driver/Src/stm32n6xx_ll_usb.c ****   *           0 : DMA feature not used
 717:STM32Cube_FW_N6/Drivers/STM32N6xx_HAL_Driver/Src/stm32n6xx_ll_usb.c ****   *           1 : DMA feature used
 718:STM32Cube_FW_N6/Drivers/STM32N6xx_HAL_Driver/Src/stm32n6xx_ll_usb.c ****   * @retval HAL status
 719:STM32Cube_FW_N6/Drivers/STM32N6xx_HAL_Driver/Src/stm32n6xx_ll_usb.c ****   */
 720:STM32Cube_FW_N6/Drivers/STM32N6xx_HAL_Driver/Src/stm32n6xx_ll_usb.c **** HAL_StatusTypeDef USB_EPStartXfer(USB_OTG_GlobalTypeDef *USBx, USB_OTG_EPTypeDef *ep, uint8_t dma)
 721:STM32Cube_FW_N6/Drivers/STM32N6xx_HAL_Driver/Src/stm32n6xx_ll_usb.c **** {
 2211              		.loc 1 721 1
 2212              		.cfi_startproc
 2213              		@ args = 0, pretend = 0, frame = 32
 2214              		@ frame_needed = 1, uses_anonymous_args = 0
 2215 0000 80B5     		push	{r7, lr}
 2216              		.cfi_def_cfa_offset 8
 2217              		.cfi_offset 7, -8
 2218              		.cfi_offset 14, -4
 2219 0002 8AB0     		sub	sp, sp, #40
 2220              		.cfi_def_cfa_offset 48
 2221 0004 02AF     		add	r7, sp, #8
 2222              		.cfi_def_cfa 7, 40
 2223 0006 F860     		str	r0, [r7, #12]
 2224 0008 B960     		str	r1, [r7, #8]
 2225 000a 1346     		mov	r3, r2
 2226 000c FB71     		strb	r3, [r7, #7]
 722:STM32Cube_FW_N6/Drivers/STM32N6xx_HAL_Driver/Src/stm32n6xx_ll_usb.c ****   uint32_t USBx_BASE = (uint32_t)USBx;
 2227              		.loc 1 722 12
 2228 000e FB68     		ldr	r3, [r7, #12]
 2229 0010 FB61     		str	r3, [r7, #28]
 723:STM32Cube_FW_N6/Drivers/STM32N6xx_HAL_Driver/Src/stm32n6xx_ll_usb.c ****   uint32_t epnum = (uint32_t)ep->num;
 2230              		.loc 1 723 32
 2231 0012 BB68     		ldr	r3, [r7, #8]
 2232 0014 1B78     		ldrb	r3, [r3]	@ zero_extendqisi2
 2233              		.loc 1 723 12
 2234 0016 BB61     		str	r3, [r7, #24]
 724:STM32Cube_FW_N6/Drivers/STM32N6xx_HAL_Driver/Src/stm32n6xx_ll_usb.c ****   uint16_t pktcnt;
 725:STM32Cube_FW_N6/Drivers/STM32N6xx_HAL_Driver/Src/stm32n6xx_ll_usb.c **** 
 726:STM32Cube_FW_N6/Drivers/STM32N6xx_HAL_Driver/Src/stm32n6xx_ll_usb.c ****   /* IN endpoint */
 727:STM32Cube_FW_N6/Drivers/STM32N6xx_HAL_Driver/Src/stm32n6xx_ll_usb.c ****   if (ep->is_in == 1U)
 2235              		.loc 1 727 9
 2236 0018 BB68     		ldr	r3, [r7, #8]
 2237 001a 5B78     		ldrb	r3, [r3, #1]	@ zero_extendqisi2
 2238              		.loc 1 727 6
 2239 001c 012B     		cmp	r3, #1
 2240 001e 40F07F81 		bne	.L107
 728:STM32Cube_FW_N6/Drivers/STM32N6xx_HAL_Driver/Src/stm32n6xx_ll_usb.c ****   {
ARM GAS  /tmp/ccxt1UfV.s 			page 53


 729:STM32Cube_FW_N6/Drivers/STM32N6xx_HAL_Driver/Src/stm32n6xx_ll_usb.c ****     /* Zero Length Packet? */
 730:STM32Cube_FW_N6/Drivers/STM32N6xx_HAL_Driver/Src/stm32n6xx_ll_usb.c ****     if (ep->xfer_len == 0U)
 2241              		.loc 1 730 11
 2242 0022 BB68     		ldr	r3, [r7, #8]
 2243 0024 1B69     		ldr	r3, [r3, #16]
 2244              		.loc 1 730 8
 2245 0026 002B     		cmp	r3, #0
 2246 0028 32D1     		bne	.L108
 731:STM32Cube_FW_N6/Drivers/STM32N6xx_HAL_Driver/Src/stm32n6xx_ll_usb.c ****     {
 732:STM32Cube_FW_N6/Drivers/STM32N6xx_HAL_Driver/Src/stm32n6xx_ll_usb.c ****       USBx_INEP(epnum)->DIEPTSIZ &= ~(USB_OTG_DIEPTSIZ_PKTCNT);
 2247              		.loc 1 732 23
 2248 002a BB69     		ldr	r3, [r7, #24]
 2249 002c 5A01     		lsls	r2, r3, #5
 2250 002e FB69     		ldr	r3, [r7, #28]
 2251 0030 1344     		add	r3, r3, r2
 2252 0032 03F51063 		add	r3, r3, #2304
 2253 0036 1B69     		ldr	r3, [r3, #16]
 2254 0038 BA69     		ldr	r2, [r7, #24]
 2255 003a 5101     		lsls	r1, r2, #5
 2256 003c FA69     		ldr	r2, [r7, #28]
 2257 003e 0A44     		add	r2, r2, r1
 2258 0040 02F51062 		add	r2, r2, #2304
 2259              		.loc 1 732 34
 2260 0044 23F0FF53 		bic	r3, r3, #534773760
 2261 0048 23F4C013 		bic	r3, r3, #1572864
 2262 004c 1361     		str	r3, [r2, #16]
 733:STM32Cube_FW_N6/Drivers/STM32N6xx_HAL_Driver/Src/stm32n6xx_ll_usb.c ****       USBx_INEP(epnum)->DIEPTSIZ |= (USB_OTG_DIEPTSIZ_PKTCNT & (1U << 19));
 2263              		.loc 1 733 23
 2264 004e BB69     		ldr	r3, [r7, #24]
 2265 0050 5A01     		lsls	r2, r3, #5
 2266 0052 FB69     		ldr	r3, [r7, #28]
 2267 0054 1344     		add	r3, r3, r2
 2268 0056 03F51063 		add	r3, r3, #2304
 2269 005a 1B69     		ldr	r3, [r3, #16]
 2270 005c BA69     		ldr	r2, [r7, #24]
 2271 005e 5101     		lsls	r1, r2, #5
 2272 0060 FA69     		ldr	r2, [r7, #28]
 2273 0062 0A44     		add	r2, r2, r1
 2274 0064 02F51062 		add	r2, r2, #2304
 2275              		.loc 1 733 34
 2276 0068 43F40023 		orr	r3, r3, #524288
 2277 006c 1361     		str	r3, [r2, #16]
 734:STM32Cube_FW_N6/Drivers/STM32N6xx_HAL_Driver/Src/stm32n6xx_ll_usb.c ****       USBx_INEP(epnum)->DIEPTSIZ &= ~(USB_OTG_DIEPTSIZ_XFRSIZ);
 2278              		.loc 1 734 23
 2279 006e BB69     		ldr	r3, [r7, #24]
 2280 0070 5A01     		lsls	r2, r3, #5
 2281 0072 FB69     		ldr	r3, [r7, #28]
 2282 0074 1344     		add	r3, r3, r2
 2283 0076 03F51063 		add	r3, r3, #2304
 2284 007a 1B69     		ldr	r3, [r3, #16]
 2285 007c BA69     		ldr	r2, [r7, #24]
 2286 007e 5101     		lsls	r1, r2, #5
 2287 0080 FA69     		ldr	r2, [r7, #28]
 2288 0082 0A44     		add	r2, r2, r1
 2289 0084 02F51062 		add	r2, r2, #2304
 2290              		.loc 1 734 34
 2291 0088 DB0C     		lsrs	r3, r3, #19
ARM GAS  /tmp/ccxt1UfV.s 			page 54


 2292 008a DB04     		lsls	r3, r3, #19
 2293 008c 1361     		str	r3, [r2, #16]
 2294 008e 97E0     		b	.L109
 2295              	.L108:
 735:STM32Cube_FW_N6/Drivers/STM32N6xx_HAL_Driver/Src/stm32n6xx_ll_usb.c ****     }
 736:STM32Cube_FW_N6/Drivers/STM32N6xx_HAL_Driver/Src/stm32n6xx_ll_usb.c ****     else
 737:STM32Cube_FW_N6/Drivers/STM32N6xx_HAL_Driver/Src/stm32n6xx_ll_usb.c ****     {
 738:STM32Cube_FW_N6/Drivers/STM32N6xx_HAL_Driver/Src/stm32n6xx_ll_usb.c ****       /* Program the transfer size and packet count
 739:STM32Cube_FW_N6/Drivers/STM32N6xx_HAL_Driver/Src/stm32n6xx_ll_usb.c ****       * as follows: xfersize = N * maxpacket +
 740:STM32Cube_FW_N6/Drivers/STM32N6xx_HAL_Driver/Src/stm32n6xx_ll_usb.c ****       * short_packet pktcnt = N + (short_packet
 741:STM32Cube_FW_N6/Drivers/STM32N6xx_HAL_Driver/Src/stm32n6xx_ll_usb.c ****       * exist ? 1 : 0)
 742:STM32Cube_FW_N6/Drivers/STM32N6xx_HAL_Driver/Src/stm32n6xx_ll_usb.c ****       */
 743:STM32Cube_FW_N6/Drivers/STM32N6xx_HAL_Driver/Src/stm32n6xx_ll_usb.c ****       USBx_INEP(epnum)->DIEPTSIZ &= ~(USB_OTG_DIEPTSIZ_XFRSIZ);
 2296              		.loc 1 743 23
 2297 0090 BB69     		ldr	r3, [r7, #24]
 2298 0092 5A01     		lsls	r2, r3, #5
 2299 0094 FB69     		ldr	r3, [r7, #28]
 2300 0096 1344     		add	r3, r3, r2
 2301 0098 03F51063 		add	r3, r3, #2304
 2302 009c 1B69     		ldr	r3, [r3, #16]
 2303 009e BA69     		ldr	r2, [r7, #24]
 2304 00a0 5101     		lsls	r1, r2, #5
 2305 00a2 FA69     		ldr	r2, [r7, #28]
 2306 00a4 0A44     		add	r2, r2, r1
 2307 00a6 02F51062 		add	r2, r2, #2304
 2308              		.loc 1 743 34
 2309 00aa DB0C     		lsrs	r3, r3, #19
 2310 00ac DB04     		lsls	r3, r3, #19
 2311 00ae 1361     		str	r3, [r2, #16]
 744:STM32Cube_FW_N6/Drivers/STM32N6xx_HAL_Driver/Src/stm32n6xx_ll_usb.c ****       USBx_INEP(epnum)->DIEPTSIZ &= ~(USB_OTG_DIEPTSIZ_PKTCNT);
 2312              		.loc 1 744 23
 2313 00b0 BB69     		ldr	r3, [r7, #24]
 2314 00b2 5A01     		lsls	r2, r3, #5
 2315 00b4 FB69     		ldr	r3, [r7, #28]
 2316 00b6 1344     		add	r3, r3, r2
 2317 00b8 03F51063 		add	r3, r3, #2304
 2318 00bc 1B69     		ldr	r3, [r3, #16]
 2319 00be BA69     		ldr	r2, [r7, #24]
 2320 00c0 5101     		lsls	r1, r2, #5
 2321 00c2 FA69     		ldr	r2, [r7, #28]
 2322 00c4 0A44     		add	r2, r2, r1
 2323 00c6 02F51062 		add	r2, r2, #2304
 2324              		.loc 1 744 34
 2325 00ca 23F0FF53 		bic	r3, r3, #534773760
 2326 00ce 23F4C013 		bic	r3, r3, #1572864
 2327 00d2 1361     		str	r3, [r2, #16]
 745:STM32Cube_FW_N6/Drivers/STM32N6xx_HAL_Driver/Src/stm32n6xx_ll_usb.c **** 
 746:STM32Cube_FW_N6/Drivers/STM32N6xx_HAL_Driver/Src/stm32n6xx_ll_usb.c ****       if (epnum == 0U)
 2328              		.loc 1 746 10
 2329 00d4 BB69     		ldr	r3, [r7, #24]
 2330 00d6 002B     		cmp	r3, #0
 2331 00d8 1AD1     		bne	.L110
 747:STM32Cube_FW_N6/Drivers/STM32N6xx_HAL_Driver/Src/stm32n6xx_ll_usb.c ****       {
 748:STM32Cube_FW_N6/Drivers/STM32N6xx_HAL_Driver/Src/stm32n6xx_ll_usb.c ****         if (ep->xfer_len > ep->maxpacket)
 2332              		.loc 1 748 15
 2333 00da BB68     		ldr	r3, [r7, #8]
 2334 00dc 1A69     		ldr	r2, [r3, #16]
ARM GAS  /tmp/ccxt1UfV.s 			page 55


 2335              		.loc 1 748 30
 2336 00de BB68     		ldr	r3, [r7, #8]
 2337 00e0 9B68     		ldr	r3, [r3, #8]
 2338              		.loc 1 748 12
 2339 00e2 9A42     		cmp	r2, r3
 2340 00e4 03D9     		bls	.L111
 749:STM32Cube_FW_N6/Drivers/STM32N6xx_HAL_Driver/Src/stm32n6xx_ll_usb.c ****         {
 750:STM32Cube_FW_N6/Drivers/STM32N6xx_HAL_Driver/Src/stm32n6xx_ll_usb.c ****           ep->xfer_len = ep->maxpacket;
 2341              		.loc 1 750 28
 2342 00e6 BB68     		ldr	r3, [r7, #8]
 2343 00e8 9A68     		ldr	r2, [r3, #8]
 2344              		.loc 1 750 24
 2345 00ea BB68     		ldr	r3, [r7, #8]
 2346 00ec 1A61     		str	r2, [r3, #16]
 2347              	.L111:
 751:STM32Cube_FW_N6/Drivers/STM32N6xx_HAL_Driver/Src/stm32n6xx_ll_usb.c ****         }
 752:STM32Cube_FW_N6/Drivers/STM32N6xx_HAL_Driver/Src/stm32n6xx_ll_usb.c **** 
 753:STM32Cube_FW_N6/Drivers/STM32N6xx_HAL_Driver/Src/stm32n6xx_ll_usb.c ****         USBx_INEP(epnum)->DIEPTSIZ |= (USB_OTG_DIEPTSIZ_PKTCNT & (1U << 19));
 2348              		.loc 1 753 25
 2349 00ee BB69     		ldr	r3, [r7, #24]
 2350 00f0 5A01     		lsls	r2, r3, #5
 2351 00f2 FB69     		ldr	r3, [r7, #28]
 2352 00f4 1344     		add	r3, r3, r2
 2353 00f6 03F51063 		add	r3, r3, #2304
 2354 00fa 1B69     		ldr	r3, [r3, #16]
 2355 00fc BA69     		ldr	r2, [r7, #24]
 2356 00fe 5101     		lsls	r1, r2, #5
 2357 0100 FA69     		ldr	r2, [r7, #28]
 2358 0102 0A44     		add	r2, r2, r1
 2359 0104 02F51062 		add	r2, r2, #2304
 2360              		.loc 1 753 36
 2361 0108 43F40023 		orr	r3, r3, #524288
 2362 010c 1361     		str	r3, [r2, #16]
 2363 010e 44E0     		b	.L112
 2364              	.L110:
 754:STM32Cube_FW_N6/Drivers/STM32N6xx_HAL_Driver/Src/stm32n6xx_ll_usb.c ****       }
 755:STM32Cube_FW_N6/Drivers/STM32N6xx_HAL_Driver/Src/stm32n6xx_ll_usb.c ****       else
 756:STM32Cube_FW_N6/Drivers/STM32N6xx_HAL_Driver/Src/stm32n6xx_ll_usb.c ****       {
 757:STM32Cube_FW_N6/Drivers/STM32N6xx_HAL_Driver/Src/stm32n6xx_ll_usb.c ****         pktcnt = (uint16_t)((ep->xfer_len + ep->maxpacket - 1U) / ep->maxpacket);
 2365              		.loc 1 757 32
 2366 0110 BB68     		ldr	r3, [r7, #8]
 2367 0112 1A69     		ldr	r2, [r3, #16]
 2368              		.loc 1 757 47
 2369 0114 BB68     		ldr	r3, [r7, #8]
 2370 0116 9B68     		ldr	r3, [r3, #8]
 2371              		.loc 1 757 43
 2372 0118 1344     		add	r3, r3, r2
 2373              		.loc 1 757 59
 2374 011a 5A1E     		subs	r2, r3, #1
 2375              		.loc 1 757 69
 2376 011c BB68     		ldr	r3, [r7, #8]
 2377 011e 9B68     		ldr	r3, [r3, #8]
 2378              		.loc 1 757 65
 2379 0120 B2FBF3F3 		udiv	r3, r2, r3
 2380              		.loc 1 757 16
 2381 0124 FB82     		strh	r3, [r7, #22]	@ movhi
 758:STM32Cube_FW_N6/Drivers/STM32N6xx_HAL_Driver/Src/stm32n6xx_ll_usb.c ****         USBx_INEP(epnum)->DIEPTSIZ |= (USB_OTG_DIEPTSIZ_PKTCNT & ((uint32_t)pktcnt << 19));
ARM GAS  /tmp/ccxt1UfV.s 			page 56


 2382              		.loc 1 758 25
 2383 0126 BB69     		ldr	r3, [r7, #24]
 2384 0128 5A01     		lsls	r2, r3, #5
 2385 012a FB69     		ldr	r3, [r7, #28]
 2386 012c 1344     		add	r3, r3, r2
 2387 012e 03F51063 		add	r3, r3, #2304
 2388 0132 1A69     		ldr	r2, [r3, #16]
 2389              		.loc 1 758 67
 2390 0134 FB8A     		ldrh	r3, [r7, #22]
 2391              		.loc 1 758 84
 2392 0136 D904     		lsls	r1, r3, #19
 2393              		.loc 1 758 64
 2394 0138 A44B     		ldr	r3, .L129
 2395 013a 0B40     		ands	r3, r3, r1
 2396              		.loc 1 758 25
 2397 013c B969     		ldr	r1, [r7, #24]
 2398 013e 4801     		lsls	r0, r1, #5
 2399 0140 F969     		ldr	r1, [r7, #28]
 2400 0142 0144     		add	r1, r1, r0
 2401 0144 01F51061 		add	r1, r1, #2304
 2402              		.loc 1 758 36
 2403 0148 1343     		orrs	r3, r3, r2
 2404 014a 0B61     		str	r3, [r1, #16]
 759:STM32Cube_FW_N6/Drivers/STM32N6xx_HAL_Driver/Src/stm32n6xx_ll_usb.c **** 
 760:STM32Cube_FW_N6/Drivers/STM32N6xx_HAL_Driver/Src/stm32n6xx_ll_usb.c ****         if (ep->type == EP_TYPE_ISOC)
 2405              		.loc 1 760 15
 2406 014c BB68     		ldr	r3, [r7, #8]
 2407 014e 1B79     		ldrb	r3, [r3, #4]	@ zero_extendqisi2
 2408              		.loc 1 760 12
 2409 0150 012B     		cmp	r3, #1
 2410 0152 22D1     		bne	.L112
 761:STM32Cube_FW_N6/Drivers/STM32N6xx_HAL_Driver/Src/stm32n6xx_ll_usb.c ****         {
 762:STM32Cube_FW_N6/Drivers/STM32N6xx_HAL_Driver/Src/stm32n6xx_ll_usb.c ****           USBx_INEP(epnum)->DIEPTSIZ &= ~(USB_OTG_DIEPTSIZ_MULCNT);
 2411              		.loc 1 762 27
 2412 0154 BB69     		ldr	r3, [r7, #24]
 2413 0156 5A01     		lsls	r2, r3, #5
 2414 0158 FB69     		ldr	r3, [r7, #28]
 2415 015a 1344     		add	r3, r3, r2
 2416 015c 03F51063 		add	r3, r3, #2304
 2417 0160 1B69     		ldr	r3, [r3, #16]
 2418 0162 BA69     		ldr	r2, [r7, #24]
 2419 0164 5101     		lsls	r1, r2, #5
 2420 0166 FA69     		ldr	r2, [r7, #28]
 2421 0168 0A44     		add	r2, r2, r1
 2422 016a 02F51062 		add	r2, r2, #2304
 2423              		.loc 1 762 38
 2424 016e 23F0C043 		bic	r3, r3, #1610612736
 2425 0172 1361     		str	r3, [r2, #16]
 763:STM32Cube_FW_N6/Drivers/STM32N6xx_HAL_Driver/Src/stm32n6xx_ll_usb.c ****           USBx_INEP(epnum)->DIEPTSIZ |= (USB_OTG_DIEPTSIZ_MULCNT & ((uint32_t)pktcnt << 29));
 2426              		.loc 1 763 27
 2427 0174 BB69     		ldr	r3, [r7, #24]
 2428 0176 5A01     		lsls	r2, r3, #5
 2429 0178 FB69     		ldr	r3, [r7, #28]
 2430 017a 1344     		add	r3, r3, r2
 2431 017c 03F51063 		add	r3, r3, #2304
 2432 0180 1A69     		ldr	r2, [r3, #16]
 2433              		.loc 1 763 69
ARM GAS  /tmp/ccxt1UfV.s 			page 57


 2434 0182 FB8A     		ldrh	r3, [r7, #22]
 2435              		.loc 1 763 86
 2436 0184 5B07     		lsls	r3, r3, #29
 2437              		.loc 1 763 66
 2438 0186 03F0C043 		and	r3, r3, #1610612736
 2439              		.loc 1 763 27
 2440 018a B969     		ldr	r1, [r7, #24]
 2441 018c 4801     		lsls	r0, r1, #5
 2442 018e F969     		ldr	r1, [r7, #28]
 2443 0190 0144     		add	r1, r1, r0
 2444 0192 01F51061 		add	r1, r1, #2304
 2445              		.loc 1 763 38
 2446 0196 1343     		orrs	r3, r3, r2
 2447 0198 0B61     		str	r3, [r1, #16]
 2448              	.L112:
 764:STM32Cube_FW_N6/Drivers/STM32N6xx_HAL_Driver/Src/stm32n6xx_ll_usb.c ****         }
 765:STM32Cube_FW_N6/Drivers/STM32N6xx_HAL_Driver/Src/stm32n6xx_ll_usb.c ****       }
 766:STM32Cube_FW_N6/Drivers/STM32N6xx_HAL_Driver/Src/stm32n6xx_ll_usb.c **** 
 767:STM32Cube_FW_N6/Drivers/STM32N6xx_HAL_Driver/Src/stm32n6xx_ll_usb.c ****       USBx_INEP(epnum)->DIEPTSIZ |= (USB_OTG_DIEPTSIZ_XFRSIZ & ep->xfer_len);
 2449              		.loc 1 767 23
 2450 019a BB69     		ldr	r3, [r7, #24]
 2451 019c 5A01     		lsls	r2, r3, #5
 2452 019e FB69     		ldr	r3, [r7, #28]
 2453 01a0 1344     		add	r3, r3, r2
 2454 01a2 03F51063 		add	r3, r3, #2304
 2455 01a6 1A69     		ldr	r2, [r3, #16]
 2456              		.loc 1 767 66
 2457 01a8 BB68     		ldr	r3, [r7, #8]
 2458 01aa 1B69     		ldr	r3, [r3, #16]
 2459              		.loc 1 767 62
 2460 01ac C3F31203 		ubfx	r3, r3, #0, #19
 2461              		.loc 1 767 23
 2462 01b0 B969     		ldr	r1, [r7, #24]
 2463 01b2 4801     		lsls	r0, r1, #5
 2464 01b4 F969     		ldr	r1, [r7, #28]
 2465 01b6 0144     		add	r1, r1, r0
 2466 01b8 01F51061 		add	r1, r1, #2304
 2467              		.loc 1 767 34
 2468 01bc 1343     		orrs	r3, r3, r2
 2469 01be 0B61     		str	r3, [r1, #16]
 2470              	.L109:
 768:STM32Cube_FW_N6/Drivers/STM32N6xx_HAL_Driver/Src/stm32n6xx_ll_usb.c ****     }
 769:STM32Cube_FW_N6/Drivers/STM32N6xx_HAL_Driver/Src/stm32n6xx_ll_usb.c **** 
 770:STM32Cube_FW_N6/Drivers/STM32N6xx_HAL_Driver/Src/stm32n6xx_ll_usb.c ****     if (dma == 1U)
 2471              		.loc 1 770 8
 2472 01c0 FB79     		ldrb	r3, [r7, #7]	@ zero_extendqisi2
 2473 01c2 012B     		cmp	r3, #1
 2474 01c4 4BD1     		bne	.L113
 771:STM32Cube_FW_N6/Drivers/STM32N6xx_HAL_Driver/Src/stm32n6xx_ll_usb.c ****     {
 772:STM32Cube_FW_N6/Drivers/STM32N6xx_HAL_Driver/Src/stm32n6xx_ll_usb.c ****       if ((uint32_t)ep->dma_addr != 0U)
 2475              		.loc 1 772 23
 2476 01c6 BB68     		ldr	r3, [r7, #8]
 2477 01c8 DB69     		ldr	r3, [r3, #28]
 2478              		.loc 1 772 10
 2479 01ca 002B     		cmp	r3, #0
 2480 01cc 09D0     		beq	.L114
 773:STM32Cube_FW_N6/Drivers/STM32N6xx_HAL_Driver/Src/stm32n6xx_ll_usb.c ****       {
ARM GAS  /tmp/ccxt1UfV.s 			page 58


 774:STM32Cube_FW_N6/Drivers/STM32N6xx_HAL_Driver/Src/stm32n6xx_ll_usb.c ****         USBx_INEP(epnum)->DIEPDMA = (uint32_t)(ep->dma_addr);
 2481              		.loc 1 774 9
 2482 01ce BB69     		ldr	r3, [r7, #24]
 2483 01d0 5A01     		lsls	r2, r3, #5
 2484 01d2 FB69     		ldr	r3, [r7, #28]
 2485 01d4 1344     		add	r3, r3, r2
 2486 01d6 03F51063 		add	r3, r3, #2304
 2487 01da 1A46     		mov	r2, r3
 2488              		.loc 1 774 50
 2489 01dc BB68     		ldr	r3, [r7, #8]
 2490 01de DB69     		ldr	r3, [r3, #28]
 2491              		.loc 1 774 35
 2492 01e0 5361     		str	r3, [r2, #20]
 2493              	.L114:
 775:STM32Cube_FW_N6/Drivers/STM32N6xx_HAL_Driver/Src/stm32n6xx_ll_usb.c ****       }
 776:STM32Cube_FW_N6/Drivers/STM32N6xx_HAL_Driver/Src/stm32n6xx_ll_usb.c **** 
 777:STM32Cube_FW_N6/Drivers/STM32N6xx_HAL_Driver/Src/stm32n6xx_ll_usb.c ****       if (ep->type == EP_TYPE_ISOC)
 2494              		.loc 1 777 13
 2495 01e2 BB68     		ldr	r3, [r7, #8]
 2496 01e4 1B79     		ldrb	r3, [r3, #4]	@ zero_extendqisi2
 2497              		.loc 1 777 10
 2498 01e6 012B     		cmp	r3, #1
 2499 01e8 28D1     		bne	.L115
 778:STM32Cube_FW_N6/Drivers/STM32N6xx_HAL_Driver/Src/stm32n6xx_ll_usb.c ****       {
 779:STM32Cube_FW_N6/Drivers/STM32N6xx_HAL_Driver/Src/stm32n6xx_ll_usb.c ****         if ((USBx_DEVICE->DSTS & (1U << 8)) == 0U)
 2500              		.loc 1 779 14
 2501 01ea FB69     		ldr	r3, [r7, #28]
 2502 01ec 03F50063 		add	r3, r3, #2048
 2503              		.loc 1 779 25
 2504 01f0 9B68     		ldr	r3, [r3, #8]
 2505              		.loc 1 779 32
 2506 01f2 03F48073 		and	r3, r3, #256
 2507              		.loc 1 779 12
 2508 01f6 002B     		cmp	r3, #0
 2509 01f8 10D1     		bne	.L116
 780:STM32Cube_FW_N6/Drivers/STM32N6xx_HAL_Driver/Src/stm32n6xx_ll_usb.c ****         {
 781:STM32Cube_FW_N6/Drivers/STM32N6xx_HAL_Driver/Src/stm32n6xx_ll_usb.c ****           USBx_INEP(epnum)->DIEPCTL |= USB_OTG_DIEPCTL_SODDFRM;
 2510              		.loc 1 781 27
 2511 01fa BB69     		ldr	r3, [r7, #24]
 2512 01fc 5A01     		lsls	r2, r3, #5
 2513 01fe FB69     		ldr	r3, [r7, #28]
 2514 0200 1344     		add	r3, r3, r2
 2515 0202 03F51063 		add	r3, r3, #2304
 2516 0206 1B68     		ldr	r3, [r3]
 2517 0208 BA69     		ldr	r2, [r7, #24]
 2518 020a 5101     		lsls	r1, r2, #5
 2519 020c FA69     		ldr	r2, [r7, #28]
 2520 020e 0A44     		add	r2, r2, r1
 2521 0210 02F51062 		add	r2, r2, #2304
 2522              		.loc 1 781 37
 2523 0214 43F00053 		orr	r3, r3, #536870912
 2524 0218 1360     		str	r3, [r2]
 2525 021a 0FE0     		b	.L115
 2526              	.L116:
 782:STM32Cube_FW_N6/Drivers/STM32N6xx_HAL_Driver/Src/stm32n6xx_ll_usb.c ****         }
 783:STM32Cube_FW_N6/Drivers/STM32N6xx_HAL_Driver/Src/stm32n6xx_ll_usb.c ****         else
 784:STM32Cube_FW_N6/Drivers/STM32N6xx_HAL_Driver/Src/stm32n6xx_ll_usb.c ****         {
ARM GAS  /tmp/ccxt1UfV.s 			page 59


 785:STM32Cube_FW_N6/Drivers/STM32N6xx_HAL_Driver/Src/stm32n6xx_ll_usb.c ****           USBx_INEP(epnum)->DIEPCTL |= USB_OTG_DIEPCTL_SD0PID_SEVNFRM;
 2527              		.loc 1 785 27
 2528 021c BB69     		ldr	r3, [r7, #24]
 2529 021e 5A01     		lsls	r2, r3, #5
 2530 0220 FB69     		ldr	r3, [r7, #28]
 2531 0222 1344     		add	r3, r3, r2
 2532 0224 03F51063 		add	r3, r3, #2304
 2533 0228 1B68     		ldr	r3, [r3]
 2534 022a BA69     		ldr	r2, [r7, #24]
 2535 022c 5101     		lsls	r1, r2, #5
 2536 022e FA69     		ldr	r2, [r7, #28]
 2537 0230 0A44     		add	r2, r2, r1
 2538 0232 02F51062 		add	r2, r2, #2304
 2539              		.loc 1 785 37
 2540 0236 43F08053 		orr	r3, r3, #268435456
 2541 023a 1360     		str	r3, [r2]
 2542              	.L115:
 786:STM32Cube_FW_N6/Drivers/STM32N6xx_HAL_Driver/Src/stm32n6xx_ll_usb.c ****         }
 787:STM32Cube_FW_N6/Drivers/STM32N6xx_HAL_Driver/Src/stm32n6xx_ll_usb.c ****       }
 788:STM32Cube_FW_N6/Drivers/STM32N6xx_HAL_Driver/Src/stm32n6xx_ll_usb.c **** 
 789:STM32Cube_FW_N6/Drivers/STM32N6xx_HAL_Driver/Src/stm32n6xx_ll_usb.c ****       /* EP enable, IN data in FIFO */
 790:STM32Cube_FW_N6/Drivers/STM32N6xx_HAL_Driver/Src/stm32n6xx_ll_usb.c ****       USBx_INEP(epnum)->DIEPCTL |= (USB_OTG_DIEPCTL_CNAK | USB_OTG_DIEPCTL_EPENA);
 2543              		.loc 1 790 23
 2544 023c BB69     		ldr	r3, [r7, #24]
 2545 023e 5A01     		lsls	r2, r3, #5
 2546 0240 FB69     		ldr	r3, [r7, #28]
 2547 0242 1344     		add	r3, r3, r2
 2548 0244 03F51063 		add	r3, r3, #2304
 2549 0248 1B68     		ldr	r3, [r3]
 2550 024a BA69     		ldr	r2, [r7, #24]
 2551 024c 5101     		lsls	r1, r2, #5
 2552 024e FA69     		ldr	r2, [r7, #28]
 2553 0250 0A44     		add	r2, r2, r1
 2554 0252 02F51062 		add	r2, r2, #2304
 2555              		.loc 1 790 33
 2556 0256 43F00443 		orr	r3, r3, #-2080374784
 2557 025a 1360     		str	r3, [r2]
 2558 025c 66E1     		b	.L117
 2559              	.L113:
 791:STM32Cube_FW_N6/Drivers/STM32N6xx_HAL_Driver/Src/stm32n6xx_ll_usb.c ****     }
 792:STM32Cube_FW_N6/Drivers/STM32N6xx_HAL_Driver/Src/stm32n6xx_ll_usb.c ****     else
 793:STM32Cube_FW_N6/Drivers/STM32N6xx_HAL_Driver/Src/stm32n6xx_ll_usb.c ****     {
 794:STM32Cube_FW_N6/Drivers/STM32N6xx_HAL_Driver/Src/stm32n6xx_ll_usb.c ****       /* EP enable, IN data in FIFO */
 795:STM32Cube_FW_N6/Drivers/STM32N6xx_HAL_Driver/Src/stm32n6xx_ll_usb.c ****       USBx_INEP(epnum)->DIEPCTL |= (USB_OTG_DIEPCTL_CNAK | USB_OTG_DIEPCTL_EPENA);
 2560              		.loc 1 795 23
 2561 025e BB69     		ldr	r3, [r7, #24]
 2562 0260 5A01     		lsls	r2, r3, #5
 2563 0262 FB69     		ldr	r3, [r7, #28]
 2564 0264 1344     		add	r3, r3, r2
 2565 0266 03F51063 		add	r3, r3, #2304
 2566 026a 1B68     		ldr	r3, [r3]
 2567 026c BA69     		ldr	r2, [r7, #24]
 2568 026e 5101     		lsls	r1, r2, #5
 2569 0270 FA69     		ldr	r2, [r7, #28]
 2570 0272 0A44     		add	r2, r2, r1
 2571 0274 02F51062 		add	r2, r2, #2304
 2572              		.loc 1 795 33
ARM GAS  /tmp/ccxt1UfV.s 			page 60


 2573 0278 43F00443 		orr	r3, r3, #-2080374784
 2574 027c 1360     		str	r3, [r2]
 796:STM32Cube_FW_N6/Drivers/STM32N6xx_HAL_Driver/Src/stm32n6xx_ll_usb.c **** 
 797:STM32Cube_FW_N6/Drivers/STM32N6xx_HAL_Driver/Src/stm32n6xx_ll_usb.c ****       if (ep->type != EP_TYPE_ISOC)
 2575              		.loc 1 797 13
 2576 027e BB68     		ldr	r3, [r7, #8]
 2577 0280 1B79     		ldrb	r3, [r3, #4]	@ zero_extendqisi2
 2578              		.loc 1 797 10
 2579 0282 012B     		cmp	r3, #1
 2580 0284 15D0     		beq	.L118
 798:STM32Cube_FW_N6/Drivers/STM32N6xx_HAL_Driver/Src/stm32n6xx_ll_usb.c ****       {
 799:STM32Cube_FW_N6/Drivers/STM32N6xx_HAL_Driver/Src/stm32n6xx_ll_usb.c ****         /* Enable the Tx FIFO Empty Interrupt for this EP */
 800:STM32Cube_FW_N6/Drivers/STM32N6xx_HAL_Driver/Src/stm32n6xx_ll_usb.c ****         if (ep->xfer_len > 0U)
 2581              		.loc 1 800 15
 2582 0286 BB68     		ldr	r3, [r7, #8]
 2583 0288 1B69     		ldr	r3, [r3, #16]
 2584              		.loc 1 800 12
 2585 028a 002B     		cmp	r3, #0
 2586 028c 00F04E81 		beq	.L117
 801:STM32Cube_FW_N6/Drivers/STM32N6xx_HAL_Driver/Src/stm32n6xx_ll_usb.c ****         {
 802:STM32Cube_FW_N6/Drivers/STM32N6xx_HAL_Driver/Src/stm32n6xx_ll_usb.c ****           USBx_DEVICE->DIEPEMPMSK |= 1UL << (ep->num & EP_ADDR_MSK);
 2587              		.loc 1 802 22
 2588 0290 FB69     		ldr	r3, [r7, #28]
 2589 0292 03F50063 		add	r3, r3, #2048
 2590 0296 5A6B     		ldr	r2, [r3, #52]
 2591              		.loc 1 802 48
 2592 0298 BB68     		ldr	r3, [r7, #8]
 2593 029a 1B78     		ldrb	r3, [r3]	@ zero_extendqisi2
 2594              		.loc 1 802 54
 2595 029c 03F00F03 		and	r3, r3, #15
 2596              		.loc 1 802 42
 2597 02a0 0121     		movs	r1, #1
 2598 02a2 01FA03F3 		lsl	r3, r1, r3
 2599              		.loc 1 802 22
 2600 02a6 F969     		ldr	r1, [r7, #28]
 2601 02a8 01F50061 		add	r1, r1, #2048
 2602              		.loc 1 802 35
 2603 02ac 1343     		orrs	r3, r3, r2
 2604 02ae 4B63     		str	r3, [r1, #52]
 2605 02b0 3CE1     		b	.L117
 2606              	.L118:
 803:STM32Cube_FW_N6/Drivers/STM32N6xx_HAL_Driver/Src/stm32n6xx_ll_usb.c ****         }
 804:STM32Cube_FW_N6/Drivers/STM32N6xx_HAL_Driver/Src/stm32n6xx_ll_usb.c ****       }
 805:STM32Cube_FW_N6/Drivers/STM32N6xx_HAL_Driver/Src/stm32n6xx_ll_usb.c ****       else
 806:STM32Cube_FW_N6/Drivers/STM32N6xx_HAL_Driver/Src/stm32n6xx_ll_usb.c ****       {
 807:STM32Cube_FW_N6/Drivers/STM32N6xx_HAL_Driver/Src/stm32n6xx_ll_usb.c ****         if ((USBx_DEVICE->DSTS & (1U << 8)) == 0U)
 2607              		.loc 1 807 14
 2608 02b2 FB69     		ldr	r3, [r7, #28]
 2609 02b4 03F50063 		add	r3, r3, #2048
 2610              		.loc 1 807 25
 2611 02b8 9B68     		ldr	r3, [r3, #8]
 2612              		.loc 1 807 32
 2613 02ba 03F48073 		and	r3, r3, #256
 2614              		.loc 1 807 12
 2615 02be 002B     		cmp	r3, #0
 2616 02c0 10D1     		bne	.L119
 808:STM32Cube_FW_N6/Drivers/STM32N6xx_HAL_Driver/Src/stm32n6xx_ll_usb.c ****         {
ARM GAS  /tmp/ccxt1UfV.s 			page 61


 809:STM32Cube_FW_N6/Drivers/STM32N6xx_HAL_Driver/Src/stm32n6xx_ll_usb.c ****           USBx_INEP(epnum)->DIEPCTL |= USB_OTG_DIEPCTL_SODDFRM;
 2617              		.loc 1 809 27
 2618 02c2 BB69     		ldr	r3, [r7, #24]
 2619 02c4 5A01     		lsls	r2, r3, #5
 2620 02c6 FB69     		ldr	r3, [r7, #28]
 2621 02c8 1344     		add	r3, r3, r2
 2622 02ca 03F51063 		add	r3, r3, #2304
 2623 02ce 1B68     		ldr	r3, [r3]
 2624 02d0 BA69     		ldr	r2, [r7, #24]
 2625 02d2 5101     		lsls	r1, r2, #5
 2626 02d4 FA69     		ldr	r2, [r7, #28]
 2627 02d6 0A44     		add	r2, r2, r1
 2628 02d8 02F51062 		add	r2, r2, #2304
 2629              		.loc 1 809 37
 2630 02dc 43F00053 		orr	r3, r3, #536870912
 2631 02e0 1360     		str	r3, [r2]
 2632 02e2 0FE0     		b	.L120
 2633              	.L119:
 810:STM32Cube_FW_N6/Drivers/STM32N6xx_HAL_Driver/Src/stm32n6xx_ll_usb.c ****         }
 811:STM32Cube_FW_N6/Drivers/STM32N6xx_HAL_Driver/Src/stm32n6xx_ll_usb.c ****         else
 812:STM32Cube_FW_N6/Drivers/STM32N6xx_HAL_Driver/Src/stm32n6xx_ll_usb.c ****         {
 813:STM32Cube_FW_N6/Drivers/STM32N6xx_HAL_Driver/Src/stm32n6xx_ll_usb.c ****           USBx_INEP(epnum)->DIEPCTL |= USB_OTG_DIEPCTL_SD0PID_SEVNFRM;
 2634              		.loc 1 813 27
 2635 02e4 BB69     		ldr	r3, [r7, #24]
 2636 02e6 5A01     		lsls	r2, r3, #5
 2637 02e8 FB69     		ldr	r3, [r7, #28]
 2638 02ea 1344     		add	r3, r3, r2
 2639 02ec 03F51063 		add	r3, r3, #2304
 2640 02f0 1B68     		ldr	r3, [r3]
 2641 02f2 BA69     		ldr	r2, [r7, #24]
 2642 02f4 5101     		lsls	r1, r2, #5
 2643 02f6 FA69     		ldr	r2, [r7, #28]
 2644 02f8 0A44     		add	r2, r2, r1
 2645 02fa 02F51062 		add	r2, r2, #2304
 2646              		.loc 1 813 37
 2647 02fe 43F08053 		orr	r3, r3, #268435456
 2648 0302 1360     		str	r3, [r2]
 2649              	.L120:
 814:STM32Cube_FW_N6/Drivers/STM32N6xx_HAL_Driver/Src/stm32n6xx_ll_usb.c ****         }
 815:STM32Cube_FW_N6/Drivers/STM32N6xx_HAL_Driver/Src/stm32n6xx_ll_usb.c **** 
 816:STM32Cube_FW_N6/Drivers/STM32N6xx_HAL_Driver/Src/stm32n6xx_ll_usb.c ****         (void)USB_WritePacket(USBx, ep->xfer_buff, ep->num, (uint16_t)ep->xfer_len, dma);
 2650              		.loc 1 816 15
 2651 0304 BB68     		ldr	r3, [r7, #8]
 2652 0306 D968     		ldr	r1, [r3, #12]
 2653 0308 BB68     		ldr	r3, [r7, #8]
 2654 030a 1A78     		ldrb	r2, [r3]	@ zero_extendqisi2
 2655              		.loc 1 816 73
 2656 030c BB68     		ldr	r3, [r7, #8]
 2657 030e 1B69     		ldr	r3, [r3, #16]
 2658              		.loc 1 816 15
 2659 0310 98B2     		uxth	r0, r3
 2660 0312 FB79     		ldrb	r3, [r7, #7]	@ zero_extendqisi2
 2661 0314 0093     		str	r3, [sp]
 2662 0316 0346     		mov	r3, r0
 2663 0318 F868     		ldr	r0, [r7, #12]
 2664 031a FFF7FEFF 		bl	USB_WritePacket
 2665 031e 05E1     		b	.L117
ARM GAS  /tmp/ccxt1UfV.s 			page 62


 2666              	.L107:
 817:STM32Cube_FW_N6/Drivers/STM32N6xx_HAL_Driver/Src/stm32n6xx_ll_usb.c ****       }
 818:STM32Cube_FW_N6/Drivers/STM32N6xx_HAL_Driver/Src/stm32n6xx_ll_usb.c ****     }
 819:STM32Cube_FW_N6/Drivers/STM32N6xx_HAL_Driver/Src/stm32n6xx_ll_usb.c ****   }
 820:STM32Cube_FW_N6/Drivers/STM32N6xx_HAL_Driver/Src/stm32n6xx_ll_usb.c ****   else /* OUT endpoint */
 821:STM32Cube_FW_N6/Drivers/STM32N6xx_HAL_Driver/Src/stm32n6xx_ll_usb.c ****   {
 822:STM32Cube_FW_N6/Drivers/STM32N6xx_HAL_Driver/Src/stm32n6xx_ll_usb.c ****     /* Program the transfer size and packet count as follows:
 823:STM32Cube_FW_N6/Drivers/STM32N6xx_HAL_Driver/Src/stm32n6xx_ll_usb.c ****     * pktcnt = N
 824:STM32Cube_FW_N6/Drivers/STM32N6xx_HAL_Driver/Src/stm32n6xx_ll_usb.c ****     * xfersize = N * maxpacket
 825:STM32Cube_FW_N6/Drivers/STM32N6xx_HAL_Driver/Src/stm32n6xx_ll_usb.c ****     */
 826:STM32Cube_FW_N6/Drivers/STM32N6xx_HAL_Driver/Src/stm32n6xx_ll_usb.c ****     USBx_OUTEP(epnum)->DOEPTSIZ &= ~(USB_OTG_DOEPTSIZ_XFRSIZ);
 2667              		.loc 1 826 22
 2668 0320 BB69     		ldr	r3, [r7, #24]
 2669 0322 5A01     		lsls	r2, r3, #5
 2670 0324 FB69     		ldr	r3, [r7, #28]
 2671 0326 1344     		add	r3, r3, r2
 2672 0328 03F53063 		add	r3, r3, #2816
 2673 032c 1B69     		ldr	r3, [r3, #16]
 2674 032e BA69     		ldr	r2, [r7, #24]
 2675 0330 5101     		lsls	r1, r2, #5
 2676 0332 FA69     		ldr	r2, [r7, #28]
 2677 0334 0A44     		add	r2, r2, r1
 2678 0336 02F53062 		add	r2, r2, #2816
 2679              		.loc 1 826 33
 2680 033a DB0C     		lsrs	r3, r3, #19
 2681 033c DB04     		lsls	r3, r3, #19
 2682 033e 1361     		str	r3, [r2, #16]
 827:STM32Cube_FW_N6/Drivers/STM32N6xx_HAL_Driver/Src/stm32n6xx_ll_usb.c ****     USBx_OUTEP(epnum)->DOEPTSIZ &= ~(USB_OTG_DOEPTSIZ_PKTCNT);
 2683              		.loc 1 827 22
 2684 0340 BB69     		ldr	r3, [r7, #24]
 2685 0342 5A01     		lsls	r2, r3, #5
 2686 0344 FB69     		ldr	r3, [r7, #28]
 2687 0346 1344     		add	r3, r3, r2
 2688 0348 03F53063 		add	r3, r3, #2816
 2689 034c 1B69     		ldr	r3, [r3, #16]
 2690 034e BA69     		ldr	r2, [r7, #24]
 2691 0350 5101     		lsls	r1, r2, #5
 2692 0352 FA69     		ldr	r2, [r7, #28]
 2693 0354 0A44     		add	r2, r2, r1
 2694 0356 02F53062 		add	r2, r2, #2816
 2695              		.loc 1 827 33
 2696 035a 23F0FF53 		bic	r3, r3, #534773760
 2697 035e 23F4C013 		bic	r3, r3, #1572864
 2698 0362 1361     		str	r3, [r2, #16]
 828:STM32Cube_FW_N6/Drivers/STM32N6xx_HAL_Driver/Src/stm32n6xx_ll_usb.c **** 
 829:STM32Cube_FW_N6/Drivers/STM32N6xx_HAL_Driver/Src/stm32n6xx_ll_usb.c ****     if (epnum == 0U)
 2699              		.loc 1 829 8
 2700 0364 BB69     		ldr	r3, [r7, #24]
 2701 0366 002B     		cmp	r3, #0
 2702 0368 32D1     		bne	.L121
 830:STM32Cube_FW_N6/Drivers/STM32N6xx_HAL_Driver/Src/stm32n6xx_ll_usb.c ****     {
 831:STM32Cube_FW_N6/Drivers/STM32N6xx_HAL_Driver/Src/stm32n6xx_ll_usb.c ****       if (ep->xfer_len > 0U)
 2703              		.loc 1 831 13
 2704 036a BB68     		ldr	r3, [r7, #8]
 2705 036c 1B69     		ldr	r3, [r3, #16]
 2706              		.loc 1 831 10
 2707 036e 002B     		cmp	r3, #0
ARM GAS  /tmp/ccxt1UfV.s 			page 63


 2708 0370 03D0     		beq	.L122
 832:STM32Cube_FW_N6/Drivers/STM32N6xx_HAL_Driver/Src/stm32n6xx_ll_usb.c ****       {
 833:STM32Cube_FW_N6/Drivers/STM32N6xx_HAL_Driver/Src/stm32n6xx_ll_usb.c ****         ep->xfer_len = ep->maxpacket;
 2709              		.loc 1 833 26
 2710 0372 BB68     		ldr	r3, [r7, #8]
 2711 0374 9A68     		ldr	r2, [r3, #8]
 2712              		.loc 1 833 22
 2713 0376 BB68     		ldr	r3, [r7, #8]
 2714 0378 1A61     		str	r2, [r3, #16]
 2715              	.L122:
 834:STM32Cube_FW_N6/Drivers/STM32N6xx_HAL_Driver/Src/stm32n6xx_ll_usb.c ****       }
 835:STM32Cube_FW_N6/Drivers/STM32N6xx_HAL_Driver/Src/stm32n6xx_ll_usb.c **** 
 836:STM32Cube_FW_N6/Drivers/STM32N6xx_HAL_Driver/Src/stm32n6xx_ll_usb.c ****       /* Store transfer size, for EP0 this is equal to endpoint max packet size */
 837:STM32Cube_FW_N6/Drivers/STM32N6xx_HAL_Driver/Src/stm32n6xx_ll_usb.c ****       ep->xfer_size = ep->maxpacket;
 2716              		.loc 1 837 25
 2717 037a BB68     		ldr	r3, [r7, #8]
 2718 037c 9A68     		ldr	r2, [r3, #8]
 2719              		.loc 1 837 21
 2720 037e BB68     		ldr	r3, [r7, #8]
 2721 0380 1A62     		str	r2, [r3, #32]
 838:STM32Cube_FW_N6/Drivers/STM32N6xx_HAL_Driver/Src/stm32n6xx_ll_usb.c **** 
 839:STM32Cube_FW_N6/Drivers/STM32N6xx_HAL_Driver/Src/stm32n6xx_ll_usb.c ****       USBx_OUTEP(epnum)->DOEPTSIZ |= (USB_OTG_DOEPTSIZ_XFRSIZ & ep->xfer_size);
 2722              		.loc 1 839 24
 2723 0382 BB69     		ldr	r3, [r7, #24]
 2724 0384 5A01     		lsls	r2, r3, #5
 2725 0386 FB69     		ldr	r3, [r7, #28]
 2726 0388 1344     		add	r3, r3, r2
 2727 038a 03F53063 		add	r3, r3, #2816
 2728 038e 1A69     		ldr	r2, [r3, #16]
 2729              		.loc 1 839 67
 2730 0390 BB68     		ldr	r3, [r7, #8]
 2731 0392 1B6A     		ldr	r3, [r3, #32]
 2732              		.loc 1 839 63
 2733 0394 C3F31203 		ubfx	r3, r3, #0, #19
 2734              		.loc 1 839 24
 2735 0398 B969     		ldr	r1, [r7, #24]
 2736 039a 4801     		lsls	r0, r1, #5
 2737 039c F969     		ldr	r1, [r7, #28]
 2738 039e 0144     		add	r1, r1, r0
 2739 03a0 01F53061 		add	r1, r1, #2816
 2740              		.loc 1 839 35
 2741 03a4 1343     		orrs	r3, r3, r2
 2742 03a6 0B61     		str	r3, [r1, #16]
 840:STM32Cube_FW_N6/Drivers/STM32N6xx_HAL_Driver/Src/stm32n6xx_ll_usb.c ****       USBx_OUTEP(epnum)->DOEPTSIZ |= (USB_OTG_DOEPTSIZ_PKTCNT & (1U << 19));
 2743              		.loc 1 840 24
 2744 03a8 BB69     		ldr	r3, [r7, #24]
 2745 03aa 5A01     		lsls	r2, r3, #5
 2746 03ac FB69     		ldr	r3, [r7, #28]
 2747 03ae 1344     		add	r3, r3, r2
 2748 03b0 03F53063 		add	r3, r3, #2816
 2749 03b4 1B69     		ldr	r3, [r3, #16]
 2750 03b6 BA69     		ldr	r2, [r7, #24]
 2751 03b8 5101     		lsls	r1, r2, #5
 2752 03ba FA69     		ldr	r2, [r7, #28]
 2753 03bc 0A44     		add	r2, r2, r1
 2754 03be 02F53062 		add	r2, r2, #2816
 2755              		.loc 1 840 35
ARM GAS  /tmp/ccxt1UfV.s 			page 64


 2756 03c2 43F40023 		orr	r3, r3, #524288
 2757 03c6 1361     		str	r3, [r2, #16]
 2758 03c8 62E0     		b	.L123
 2759              	.L130:
 2760 03ca 00BF     		.align	2
 2761              	.L129:
 2762 03cc 0000F81F 		.word	536346624
 2763              	.L121:
 841:STM32Cube_FW_N6/Drivers/STM32N6xx_HAL_Driver/Src/stm32n6xx_ll_usb.c ****     }
 842:STM32Cube_FW_N6/Drivers/STM32N6xx_HAL_Driver/Src/stm32n6xx_ll_usb.c ****     else
 843:STM32Cube_FW_N6/Drivers/STM32N6xx_HAL_Driver/Src/stm32n6xx_ll_usb.c ****     {
 844:STM32Cube_FW_N6/Drivers/STM32N6xx_HAL_Driver/Src/stm32n6xx_ll_usb.c ****       if (ep->xfer_len == 0U)
 2764              		.loc 1 844 13
 2765 03d0 BB68     		ldr	r3, [r7, #8]
 2766 03d2 1B69     		ldr	r3, [r3, #16]
 2767              		.loc 1 844 10
 2768 03d4 002B     		cmp	r3, #0
 2769 03d6 23D1     		bne	.L124
 845:STM32Cube_FW_N6/Drivers/STM32N6xx_HAL_Driver/Src/stm32n6xx_ll_usb.c ****       {
 846:STM32Cube_FW_N6/Drivers/STM32N6xx_HAL_Driver/Src/stm32n6xx_ll_usb.c ****         USBx_OUTEP(epnum)->DOEPTSIZ |= (USB_OTG_DOEPTSIZ_XFRSIZ & ep->maxpacket);
 2770              		.loc 1 846 26
 2771 03d8 BB69     		ldr	r3, [r7, #24]
 2772 03da 5A01     		lsls	r2, r3, #5
 2773 03dc FB69     		ldr	r3, [r7, #28]
 2774 03de 1344     		add	r3, r3, r2
 2775 03e0 03F53063 		add	r3, r3, #2816
 2776 03e4 1A69     		ldr	r2, [r3, #16]
 2777              		.loc 1 846 69
 2778 03e6 BB68     		ldr	r3, [r7, #8]
 2779 03e8 9B68     		ldr	r3, [r3, #8]
 2780              		.loc 1 846 65
 2781 03ea C3F31203 		ubfx	r3, r3, #0, #19
 2782              		.loc 1 846 26
 2783 03ee B969     		ldr	r1, [r7, #24]
 2784 03f0 4801     		lsls	r0, r1, #5
 2785 03f2 F969     		ldr	r1, [r7, #28]
 2786 03f4 0144     		add	r1, r1, r0
 2787 03f6 01F53061 		add	r1, r1, #2816
 2788              		.loc 1 846 37
 2789 03fa 1343     		orrs	r3, r3, r2
 2790 03fc 0B61     		str	r3, [r1, #16]
 847:STM32Cube_FW_N6/Drivers/STM32N6xx_HAL_Driver/Src/stm32n6xx_ll_usb.c ****         USBx_OUTEP(epnum)->DOEPTSIZ |= (USB_OTG_DOEPTSIZ_PKTCNT & (1U << 19));
 2791              		.loc 1 847 26
 2792 03fe BB69     		ldr	r3, [r7, #24]
 2793 0400 5A01     		lsls	r2, r3, #5
 2794 0402 FB69     		ldr	r3, [r7, #28]
 2795 0404 1344     		add	r3, r3, r2
 2796 0406 03F53063 		add	r3, r3, #2816
 2797 040a 1B69     		ldr	r3, [r3, #16]
 2798 040c BA69     		ldr	r2, [r7, #24]
 2799 040e 5101     		lsls	r1, r2, #5
 2800 0410 FA69     		ldr	r2, [r7, #28]
 2801 0412 0A44     		add	r2, r2, r1
 2802 0414 02F53062 		add	r2, r2, #2816
 2803              		.loc 1 847 37
 2804 0418 43F40023 		orr	r3, r3, #524288
 2805 041c 1361     		str	r3, [r2, #16]
ARM GAS  /tmp/ccxt1UfV.s 			page 65


 2806 041e 37E0     		b	.L123
 2807              	.L124:
 848:STM32Cube_FW_N6/Drivers/STM32N6xx_HAL_Driver/Src/stm32n6xx_ll_usb.c ****       }
 849:STM32Cube_FW_N6/Drivers/STM32N6xx_HAL_Driver/Src/stm32n6xx_ll_usb.c ****       else
 850:STM32Cube_FW_N6/Drivers/STM32N6xx_HAL_Driver/Src/stm32n6xx_ll_usb.c ****       {
 851:STM32Cube_FW_N6/Drivers/STM32N6xx_HAL_Driver/Src/stm32n6xx_ll_usb.c ****         pktcnt = (uint16_t)((ep->xfer_len + ep->maxpacket - 1U) / ep->maxpacket);
 2808              		.loc 1 851 32
 2809 0420 BB68     		ldr	r3, [r7, #8]
 2810 0422 1A69     		ldr	r2, [r3, #16]
 2811              		.loc 1 851 47
 2812 0424 BB68     		ldr	r3, [r7, #8]
 2813 0426 9B68     		ldr	r3, [r3, #8]
 2814              		.loc 1 851 43
 2815 0428 1344     		add	r3, r3, r2
 2816              		.loc 1 851 59
 2817 042a 5A1E     		subs	r2, r3, #1
 2818              		.loc 1 851 69
 2819 042c BB68     		ldr	r3, [r7, #8]
 2820 042e 9B68     		ldr	r3, [r3, #8]
 2821              		.loc 1 851 65
 2822 0430 B2FBF3F3 		udiv	r3, r2, r3
 2823              		.loc 1 851 16
 2824 0434 FB82     		strh	r3, [r7, #22]	@ movhi
 852:STM32Cube_FW_N6/Drivers/STM32N6xx_HAL_Driver/Src/stm32n6xx_ll_usb.c ****         ep->xfer_size = ep->maxpacket * pktcnt;
 2825              		.loc 1 852 27
 2826 0436 BB68     		ldr	r3, [r7, #8]
 2827 0438 9B68     		ldr	r3, [r3, #8]
 2828              		.loc 1 852 39
 2829 043a FA8A     		ldrh	r2, [r7, #22]
 2830 043c 03FB02F2 		mul	r2, r3, r2
 2831              		.loc 1 852 23
 2832 0440 BB68     		ldr	r3, [r7, #8]
 2833 0442 1A62     		str	r2, [r3, #32]
 853:STM32Cube_FW_N6/Drivers/STM32N6xx_HAL_Driver/Src/stm32n6xx_ll_usb.c **** 
 854:STM32Cube_FW_N6/Drivers/STM32N6xx_HAL_Driver/Src/stm32n6xx_ll_usb.c ****         USBx_OUTEP(epnum)->DOEPTSIZ |= USB_OTG_DOEPTSIZ_PKTCNT & ((uint32_t)pktcnt << 19);
 2834              		.loc 1 854 26
 2835 0444 BB69     		ldr	r3, [r7, #24]
 2836 0446 5A01     		lsls	r2, r3, #5
 2837 0448 FB69     		ldr	r3, [r7, #28]
 2838 044a 1344     		add	r3, r3, r2
 2839 044c 03F53063 		add	r3, r3, #2816
 2840 0450 1A69     		ldr	r2, [r3, #16]
 2841              		.loc 1 854 67
 2842 0452 FB8A     		ldrh	r3, [r7, #22]
 2843              		.loc 1 854 84
 2844 0454 D904     		lsls	r1, r3, #19
 2845              		.loc 1 854 64
 2846 0456 384B     		ldr	r3, .L131
 2847 0458 0B40     		ands	r3, r3, r1
 2848              		.loc 1 854 26
 2849 045a B969     		ldr	r1, [r7, #24]
 2850 045c 4801     		lsls	r0, r1, #5
 2851 045e F969     		ldr	r1, [r7, #28]
 2852 0460 0144     		add	r1, r1, r0
 2853 0462 01F53061 		add	r1, r1, #2816
 2854              		.loc 1 854 37
 2855 0466 1343     		orrs	r3, r3, r2
ARM GAS  /tmp/ccxt1UfV.s 			page 66


 2856 0468 0B61     		str	r3, [r1, #16]
 855:STM32Cube_FW_N6/Drivers/STM32N6xx_HAL_Driver/Src/stm32n6xx_ll_usb.c ****         USBx_OUTEP(epnum)->DOEPTSIZ |= USB_OTG_DOEPTSIZ_XFRSIZ & ep->xfer_size;
 2857              		.loc 1 855 26
 2858 046a BB69     		ldr	r3, [r7, #24]
 2859 046c 5A01     		lsls	r2, r3, #5
 2860 046e FB69     		ldr	r3, [r7, #28]
 2861 0470 1344     		add	r3, r3, r2
 2862 0472 03F53063 		add	r3, r3, #2816
 2863 0476 1A69     		ldr	r2, [r3, #16]
 2864              		.loc 1 855 68
 2865 0478 BB68     		ldr	r3, [r7, #8]
 2866 047a 1B6A     		ldr	r3, [r3, #32]
 2867              		.loc 1 855 64
 2868 047c C3F31203 		ubfx	r3, r3, #0, #19
 2869              		.loc 1 855 26
 2870 0480 B969     		ldr	r1, [r7, #24]
 2871 0482 4801     		lsls	r0, r1, #5
 2872 0484 F969     		ldr	r1, [r7, #28]
 2873 0486 0144     		add	r1, r1, r0
 2874 0488 01F53061 		add	r1, r1, #2816
 2875              		.loc 1 855 37
 2876 048c 1343     		orrs	r3, r3, r2
 2877 048e 0B61     		str	r3, [r1, #16]
 2878              	.L123:
 856:STM32Cube_FW_N6/Drivers/STM32N6xx_HAL_Driver/Src/stm32n6xx_ll_usb.c ****       }
 857:STM32Cube_FW_N6/Drivers/STM32N6xx_HAL_Driver/Src/stm32n6xx_ll_usb.c ****     }
 858:STM32Cube_FW_N6/Drivers/STM32N6xx_HAL_Driver/Src/stm32n6xx_ll_usb.c **** 
 859:STM32Cube_FW_N6/Drivers/STM32N6xx_HAL_Driver/Src/stm32n6xx_ll_usb.c ****     if (dma == 1U)
 2879              		.loc 1 859 8
 2880 0490 FB79     		ldrb	r3, [r7, #7]	@ zero_extendqisi2
 2881 0492 012B     		cmp	r3, #1
 2882 0494 0DD1     		bne	.L125
 860:STM32Cube_FW_N6/Drivers/STM32N6xx_HAL_Driver/Src/stm32n6xx_ll_usb.c ****     {
 861:STM32Cube_FW_N6/Drivers/STM32N6xx_HAL_Driver/Src/stm32n6xx_ll_usb.c ****       if ((uint32_t)ep->xfer_buff != 0U)
 2883              		.loc 1 861 23
 2884 0496 BB68     		ldr	r3, [r7, #8]
 2885 0498 DB68     		ldr	r3, [r3, #12]
 2886              		.loc 1 861 10
 2887 049a 002B     		cmp	r3, #0
 2888 049c 09D0     		beq	.L125
 862:STM32Cube_FW_N6/Drivers/STM32N6xx_HAL_Driver/Src/stm32n6xx_ll_usb.c ****       {
 863:STM32Cube_FW_N6/Drivers/STM32N6xx_HAL_Driver/Src/stm32n6xx_ll_usb.c ****         USBx_OUTEP(epnum)->DOEPDMA = (uint32_t)(ep->xfer_buff);
 2889              		.loc 1 863 51
 2890 049e BB68     		ldr	r3, [r7, #8]
 2891 04a0 D968     		ldr	r1, [r3, #12]
 2892              		.loc 1 863 9
 2893 04a2 BB69     		ldr	r3, [r7, #24]
 2894 04a4 5A01     		lsls	r2, r3, #5
 2895 04a6 FB69     		ldr	r3, [r7, #28]
 2896 04a8 1344     		add	r3, r3, r2
 2897 04aa 03F53063 		add	r3, r3, #2816
 2898              		.loc 1 863 38
 2899 04ae 0A46     		mov	r2, r1
 2900              		.loc 1 863 36
 2901 04b0 5A61     		str	r2, [r3, #20]
 2902              	.L125:
 864:STM32Cube_FW_N6/Drivers/STM32N6xx_HAL_Driver/Src/stm32n6xx_ll_usb.c ****       }
ARM GAS  /tmp/ccxt1UfV.s 			page 67


 865:STM32Cube_FW_N6/Drivers/STM32N6xx_HAL_Driver/Src/stm32n6xx_ll_usb.c ****     }
 866:STM32Cube_FW_N6/Drivers/STM32N6xx_HAL_Driver/Src/stm32n6xx_ll_usb.c **** 
 867:STM32Cube_FW_N6/Drivers/STM32N6xx_HAL_Driver/Src/stm32n6xx_ll_usb.c ****     if (ep->type == EP_TYPE_ISOC)
 2903              		.loc 1 867 11
 2904 04b2 BB68     		ldr	r3, [r7, #8]
 2905 04b4 1B79     		ldrb	r3, [r3, #4]	@ zero_extendqisi2
 2906              		.loc 1 867 8
 2907 04b6 012B     		cmp	r3, #1
 2908 04b8 28D1     		bne	.L126
 868:STM32Cube_FW_N6/Drivers/STM32N6xx_HAL_Driver/Src/stm32n6xx_ll_usb.c ****     {
 869:STM32Cube_FW_N6/Drivers/STM32N6xx_HAL_Driver/Src/stm32n6xx_ll_usb.c ****       if ((USBx_DEVICE->DSTS & (1U << 8)) == 0U)
 2909              		.loc 1 869 12
 2910 04ba FB69     		ldr	r3, [r7, #28]
 2911 04bc 03F50063 		add	r3, r3, #2048
 2912              		.loc 1 869 23
 2913 04c0 9B68     		ldr	r3, [r3, #8]
 2914              		.loc 1 869 30
 2915 04c2 03F48073 		and	r3, r3, #256
 2916              		.loc 1 869 10
 2917 04c6 002B     		cmp	r3, #0
 2918 04c8 10D1     		bne	.L127
 870:STM32Cube_FW_N6/Drivers/STM32N6xx_HAL_Driver/Src/stm32n6xx_ll_usb.c ****       {
 871:STM32Cube_FW_N6/Drivers/STM32N6xx_HAL_Driver/Src/stm32n6xx_ll_usb.c ****         USBx_OUTEP(epnum)->DOEPCTL |= USB_OTG_DOEPCTL_SODDFRM;
 2919              		.loc 1 871 26
 2920 04ca BB69     		ldr	r3, [r7, #24]
 2921 04cc 5A01     		lsls	r2, r3, #5
 2922 04ce FB69     		ldr	r3, [r7, #28]
 2923 04d0 1344     		add	r3, r3, r2
 2924 04d2 03F53063 		add	r3, r3, #2816
 2925 04d6 1B68     		ldr	r3, [r3]
 2926 04d8 BA69     		ldr	r2, [r7, #24]
 2927 04da 5101     		lsls	r1, r2, #5
 2928 04dc FA69     		ldr	r2, [r7, #28]
 2929 04de 0A44     		add	r2, r2, r1
 2930 04e0 02F53062 		add	r2, r2, #2816
 2931              		.loc 1 871 36
 2932 04e4 43F00053 		orr	r3, r3, #536870912
 2933 04e8 1360     		str	r3, [r2]
 2934 04ea 0FE0     		b	.L126
 2935              	.L127:
 872:STM32Cube_FW_N6/Drivers/STM32N6xx_HAL_Driver/Src/stm32n6xx_ll_usb.c ****       }
 873:STM32Cube_FW_N6/Drivers/STM32N6xx_HAL_Driver/Src/stm32n6xx_ll_usb.c ****       else
 874:STM32Cube_FW_N6/Drivers/STM32N6xx_HAL_Driver/Src/stm32n6xx_ll_usb.c ****       {
 875:STM32Cube_FW_N6/Drivers/STM32N6xx_HAL_Driver/Src/stm32n6xx_ll_usb.c ****         USBx_OUTEP(epnum)->DOEPCTL |= USB_OTG_DOEPCTL_SD0PID_SEVNFRM;
 2936              		.loc 1 875 26
 2937 04ec BB69     		ldr	r3, [r7, #24]
 2938 04ee 5A01     		lsls	r2, r3, #5
 2939 04f0 FB69     		ldr	r3, [r7, #28]
 2940 04f2 1344     		add	r3, r3, r2
 2941 04f4 03F53063 		add	r3, r3, #2816
 2942 04f8 1B68     		ldr	r3, [r3]
 2943 04fa BA69     		ldr	r2, [r7, #24]
 2944 04fc 5101     		lsls	r1, r2, #5
 2945 04fe FA69     		ldr	r2, [r7, #28]
 2946 0500 0A44     		add	r2, r2, r1
 2947 0502 02F53062 		add	r2, r2, #2816
 2948              		.loc 1 875 36
ARM GAS  /tmp/ccxt1UfV.s 			page 68


 2949 0506 43F08053 		orr	r3, r3, #268435456
 2950 050a 1360     		str	r3, [r2]
 2951              	.L126:
 876:STM32Cube_FW_N6/Drivers/STM32N6xx_HAL_Driver/Src/stm32n6xx_ll_usb.c ****       }
 877:STM32Cube_FW_N6/Drivers/STM32N6xx_HAL_Driver/Src/stm32n6xx_ll_usb.c ****     }
 878:STM32Cube_FW_N6/Drivers/STM32N6xx_HAL_Driver/Src/stm32n6xx_ll_usb.c ****     /* EP enable */
 879:STM32Cube_FW_N6/Drivers/STM32N6xx_HAL_Driver/Src/stm32n6xx_ll_usb.c ****     USBx_OUTEP(epnum)->DOEPCTL |= (USB_OTG_DOEPCTL_CNAK | USB_OTG_DOEPCTL_EPENA);
 2952              		.loc 1 879 22
 2953 050c BB69     		ldr	r3, [r7, #24]
 2954 050e 5A01     		lsls	r2, r3, #5
 2955 0510 FB69     		ldr	r3, [r7, #28]
 2956 0512 1344     		add	r3, r3, r2
 2957 0514 03F53063 		add	r3, r3, #2816
 2958 0518 1B68     		ldr	r3, [r3]
 2959 051a BA69     		ldr	r2, [r7, #24]
 2960 051c 5101     		lsls	r1, r2, #5
 2961 051e FA69     		ldr	r2, [r7, #28]
 2962 0520 0A44     		add	r2, r2, r1
 2963 0522 02F53062 		add	r2, r2, #2816
 2964              		.loc 1 879 32
 2965 0526 43F00443 		orr	r3, r3, #-2080374784
 2966 052a 1360     		str	r3, [r2]
 2967              	.L117:
 880:STM32Cube_FW_N6/Drivers/STM32N6xx_HAL_Driver/Src/stm32n6xx_ll_usb.c ****   }
 881:STM32Cube_FW_N6/Drivers/STM32N6xx_HAL_Driver/Src/stm32n6xx_ll_usb.c **** 
 882:STM32Cube_FW_N6/Drivers/STM32N6xx_HAL_Driver/Src/stm32n6xx_ll_usb.c ****   return HAL_OK;
 2968              		.loc 1 882 10
 2969 052c 0023     		movs	r3, #0
 883:STM32Cube_FW_N6/Drivers/STM32N6xx_HAL_Driver/Src/stm32n6xx_ll_usb.c **** }
 2970              		.loc 1 883 1
 2971 052e 1846     		mov	r0, r3
 2972 0530 2037     		adds	r7, r7, #32
 2973              		.cfi_def_cfa_offset 8
 2974 0532 BD46     		mov	sp, r7
 2975              		.cfi_def_cfa_register 13
 2976              		@ sp needed
 2977 0534 80BD     		pop	{r7, pc}
 2978              	.L132:
 2979 0536 00BF     		.align	2
 2980              	.L131:
 2981 0538 0000F81F 		.word	536346624
 2982              		.cfi_endproc
 2983              	.LFE849:
 2985              		.section	.text.USB_EPStopXfer,"ax",%progbits
 2986              		.align	1
 2987              		.global	USB_EPStopXfer
 2988              		.syntax unified
 2989              		.thumb
 2990              		.thumb_func
 2992              	USB_EPStopXfer:
 2993              	.LFB850:
 884:STM32Cube_FW_N6/Drivers/STM32N6xx_HAL_Driver/Src/stm32n6xx_ll_usb.c **** 
 885:STM32Cube_FW_N6/Drivers/STM32N6xx_HAL_Driver/Src/stm32n6xx_ll_usb.c **** 
 886:STM32Cube_FW_N6/Drivers/STM32N6xx_HAL_Driver/Src/stm32n6xx_ll_usb.c **** /**
 887:STM32Cube_FW_N6/Drivers/STM32N6xx_HAL_Driver/Src/stm32n6xx_ll_usb.c ****    * @brief  USB_EPStoptXfer  Stop transfer on an EP
 888:STM32Cube_FW_N6/Drivers/STM32N6xx_HAL_Driver/Src/stm32n6xx_ll_usb.c ****    * @param  USBx  usb device instance
 889:STM32Cube_FW_N6/Drivers/STM32N6xx_HAL_Driver/Src/stm32n6xx_ll_usb.c ****    * @param  ep pointer to endpoint structure
ARM GAS  /tmp/ccxt1UfV.s 			page 69


 890:STM32Cube_FW_N6/Drivers/STM32N6xx_HAL_Driver/Src/stm32n6xx_ll_usb.c ****    * @retval HAL status
 891:STM32Cube_FW_N6/Drivers/STM32N6xx_HAL_Driver/Src/stm32n6xx_ll_usb.c ****    */
 892:STM32Cube_FW_N6/Drivers/STM32N6xx_HAL_Driver/Src/stm32n6xx_ll_usb.c **** HAL_StatusTypeDef USB_EPStopXfer(const USB_OTG_GlobalTypeDef *USBx, USB_OTG_EPTypeDef *ep)
 893:STM32Cube_FW_N6/Drivers/STM32N6xx_HAL_Driver/Src/stm32n6xx_ll_usb.c **** {
 2994              		.loc 1 893 1
 2995              		.cfi_startproc
 2996              		@ args = 0, pretend = 0, frame = 24
 2997              		@ frame_needed = 1, uses_anonymous_args = 0
 2998              		@ link register save eliminated.
 2999 0000 80B4     		push	{r7}
 3000              		.cfi_def_cfa_offset 4
 3001              		.cfi_offset 7, -4
 3002 0002 87B0     		sub	sp, sp, #28
 3003              		.cfi_def_cfa_offset 32
 3004 0004 00AF     		add	r7, sp, #0
 3005              		.cfi_def_cfa_register 7
 3006 0006 7860     		str	r0, [r7, #4]
 3007 0008 3960     		str	r1, [r7]
 894:STM32Cube_FW_N6/Drivers/STM32N6xx_HAL_Driver/Src/stm32n6xx_ll_usb.c ****   __IO uint32_t count = 0U;
 3008              		.loc 1 894 17
 3009 000a 0023     		movs	r3, #0
 3010 000c FB60     		str	r3, [r7, #12]
 895:STM32Cube_FW_N6/Drivers/STM32N6xx_HAL_Driver/Src/stm32n6xx_ll_usb.c ****   HAL_StatusTypeDef ret = HAL_OK;
 3011              		.loc 1 895 21
 3012 000e 0023     		movs	r3, #0
 3013 0010 FB75     		strb	r3, [r7, #23]
 896:STM32Cube_FW_N6/Drivers/STM32N6xx_HAL_Driver/Src/stm32n6xx_ll_usb.c ****   uint32_t USBx_BASE = (uint32_t)USBx;
 3014              		.loc 1 896 12
 3015 0012 7B68     		ldr	r3, [r7, #4]
 3016 0014 3B61     		str	r3, [r7, #16]
 897:STM32Cube_FW_N6/Drivers/STM32N6xx_HAL_Driver/Src/stm32n6xx_ll_usb.c **** 
 898:STM32Cube_FW_N6/Drivers/STM32N6xx_HAL_Driver/Src/stm32n6xx_ll_usb.c ****   /* IN endpoint */
 899:STM32Cube_FW_N6/Drivers/STM32N6xx_HAL_Driver/Src/stm32n6xx_ll_usb.c ****   if (ep->is_in == 1U)
 3017              		.loc 1 899 9
 3018 0016 3B68     		ldr	r3, [r7]
 3019 0018 5B78     		ldrb	r3, [r3, #1]	@ zero_extendqisi2
 3020              		.loc 1 899 6
 3021 001a 012B     		cmp	r3, #1
 3022 001c 4AD1     		bne	.L134
 900:STM32Cube_FW_N6/Drivers/STM32N6xx_HAL_Driver/Src/stm32n6xx_ll_usb.c ****   {
 901:STM32Cube_FW_N6/Drivers/STM32N6xx_HAL_Driver/Src/stm32n6xx_ll_usb.c ****     /* EP enable, IN data in FIFO */
 902:STM32Cube_FW_N6/Drivers/STM32N6xx_HAL_Driver/Src/stm32n6xx_ll_usb.c ****     if (((USBx_INEP(ep->num)->DIEPCTL) & USB_OTG_DIEPCTL_EPENA) == USB_OTG_DIEPCTL_EPENA)
 3023              		.loc 1 902 11
 3024 001e 3B68     		ldr	r3, [r7]
 3025 0020 1B78     		ldrb	r3, [r3]	@ zero_extendqisi2
 3026 0022 5A01     		lsls	r2, r3, #5
 3027 0024 3B69     		ldr	r3, [r7, #16]
 3028 0026 1344     		add	r3, r3, r2
 3029 0028 03F51063 		add	r3, r3, #2304
 3030              		.loc 1 902 29
 3031 002c 1B68     		ldr	r3, [r3]
 3032              		.loc 1 902 40
 3033 002e 03F00043 		and	r3, r3, #-2147483648
 3034              		.loc 1 902 8
 3035 0032 B3F1004F 		cmp	r3, #-2147483648
 3036 0036 40F08680 		bne	.L138
 903:STM32Cube_FW_N6/Drivers/STM32N6xx_HAL_Driver/Src/stm32n6xx_ll_usb.c ****     {
ARM GAS  /tmp/ccxt1UfV.s 			page 70


 904:STM32Cube_FW_N6/Drivers/STM32N6xx_HAL_Driver/Src/stm32n6xx_ll_usb.c ****       USBx_INEP(ep->num)->DIEPCTL |= (USB_OTG_DIEPCTL_SNAK);
 3037              		.loc 1 904 7
 3038 003a 3B68     		ldr	r3, [r7]
 3039 003c 1B78     		ldrb	r3, [r3]	@ zero_extendqisi2
 3040              		.loc 1 904 25
 3041 003e 5A01     		lsls	r2, r3, #5
 3042 0040 3B69     		ldr	r3, [r7, #16]
 3043 0042 1344     		add	r3, r3, r2
 3044 0044 03F51063 		add	r3, r3, #2304
 3045 0048 1B68     		ldr	r3, [r3]
 3046              		.loc 1 904 7
 3047 004a 3A68     		ldr	r2, [r7]
 3048 004c 1278     		ldrb	r2, [r2]	@ zero_extendqisi2
 3049              		.loc 1 904 25
 3050 004e 5101     		lsls	r1, r2, #5
 3051 0050 3A69     		ldr	r2, [r7, #16]
 3052 0052 0A44     		add	r2, r2, r1
 3053 0054 02F51062 		add	r2, r2, #2304
 3054              		.loc 1 904 35
 3055 0058 43F00063 		orr	r3, r3, #134217728
 3056 005c 1360     		str	r3, [r2]
 905:STM32Cube_FW_N6/Drivers/STM32N6xx_HAL_Driver/Src/stm32n6xx_ll_usb.c ****       USBx_INEP(ep->num)->DIEPCTL |= (USB_OTG_DIEPCTL_EPDIS);
 3057              		.loc 1 905 7
 3058 005e 3B68     		ldr	r3, [r7]
 3059 0060 1B78     		ldrb	r3, [r3]	@ zero_extendqisi2
 3060              		.loc 1 905 25
 3061 0062 5A01     		lsls	r2, r3, #5
 3062 0064 3B69     		ldr	r3, [r7, #16]
 3063 0066 1344     		add	r3, r3, r2
 3064 0068 03F51063 		add	r3, r3, #2304
 3065 006c 1B68     		ldr	r3, [r3]
 3066              		.loc 1 905 7
 3067 006e 3A68     		ldr	r2, [r7]
 3068 0070 1278     		ldrb	r2, [r2]	@ zero_extendqisi2
 3069              		.loc 1 905 25
 3070 0072 5101     		lsls	r1, r2, #5
 3071 0074 3A69     		ldr	r2, [r7, #16]
 3072 0076 0A44     		add	r2, r2, r1
 3073 0078 02F51062 		add	r2, r2, #2304
 3074              		.loc 1 905 35
 3075 007c 43F08043 		orr	r3, r3, #1073741824
 3076 0080 1360     		str	r3, [r2]
 3077              	.L137:
 906:STM32Cube_FW_N6/Drivers/STM32N6xx_HAL_Driver/Src/stm32n6xx_ll_usb.c **** 
 907:STM32Cube_FW_N6/Drivers/STM32N6xx_HAL_Driver/Src/stm32n6xx_ll_usb.c ****       do
 908:STM32Cube_FW_N6/Drivers/STM32N6xx_HAL_Driver/Src/stm32n6xx_ll_usb.c ****       {
 909:STM32Cube_FW_N6/Drivers/STM32N6xx_HAL_Driver/Src/stm32n6xx_ll_usb.c ****         count++;
 3078              		.loc 1 909 14
 3079 0082 FB68     		ldr	r3, [r7, #12]
 3080 0084 0133     		adds	r3, r3, #1
 3081 0086 FB60     		str	r3, [r7, #12]
 910:STM32Cube_FW_N6/Drivers/STM32N6xx_HAL_Driver/Src/stm32n6xx_ll_usb.c **** 
 911:STM32Cube_FW_N6/Drivers/STM32N6xx_HAL_Driver/Src/stm32n6xx_ll_usb.c ****         if (count > 10000U)
 3082              		.loc 1 911 19
 3083 0088 FB68     		ldr	r3, [r7, #12]
 3084              		.loc 1 911 12
 3085 008a 42F21072 		movw	r2, #10000
ARM GAS  /tmp/ccxt1UfV.s 			page 71


 3086 008e 9342     		cmp	r3, r2
 3087 0090 02D9     		bls	.L136
 912:STM32Cube_FW_N6/Drivers/STM32N6xx_HAL_Driver/Src/stm32n6xx_ll_usb.c ****         {
 913:STM32Cube_FW_N6/Drivers/STM32N6xx_HAL_Driver/Src/stm32n6xx_ll_usb.c ****           ret = HAL_ERROR;
 3088              		.loc 1 913 15
 3089 0092 0123     		movs	r3, #1
 3090 0094 FB75     		strb	r3, [r7, #23]
 914:STM32Cube_FW_N6/Drivers/STM32N6xx_HAL_Driver/Src/stm32n6xx_ll_usb.c ****           break;
 3091              		.loc 1 914 11
 3092 0096 56E0     		b	.L138
 3093              	.L136:
 915:STM32Cube_FW_N6/Drivers/STM32N6xx_HAL_Driver/Src/stm32n6xx_ll_usb.c ****         }
 916:STM32Cube_FW_N6/Drivers/STM32N6xx_HAL_Driver/Src/stm32n6xx_ll_usb.c ****       } while (((USBx_INEP(ep->num)->DIEPCTL) & USB_OTG_DIEPCTL_EPENA) ==  USB_OTG_DIEPCTL_EPENA);
 3094              		.loc 1 916 18
 3095 0098 3B68     		ldr	r3, [r7]
 3096 009a 1B78     		ldrb	r3, [r3]	@ zero_extendqisi2
 3097 009c 5A01     		lsls	r2, r3, #5
 3098 009e 3B69     		ldr	r3, [r7, #16]
 3099 00a0 1344     		add	r3, r3, r2
 3100 00a2 03F51063 		add	r3, r3, #2304
 3101              		.loc 1 916 36
 3102 00a6 1B68     		ldr	r3, [r3]
 3103              		.loc 1 916 47
 3104 00a8 03F00043 		and	r3, r3, #-2147483648
 3105              		.loc 1 916 72
 3106 00ac B3F1004F 		cmp	r3, #-2147483648
 3107 00b0 E7D0     		beq	.L137
 3108 00b2 48E0     		b	.L138
 3109              	.L134:
 917:STM32Cube_FW_N6/Drivers/STM32N6xx_HAL_Driver/Src/stm32n6xx_ll_usb.c ****     }
 918:STM32Cube_FW_N6/Drivers/STM32N6xx_HAL_Driver/Src/stm32n6xx_ll_usb.c ****   }
 919:STM32Cube_FW_N6/Drivers/STM32N6xx_HAL_Driver/Src/stm32n6xx_ll_usb.c ****   else /* OUT endpoint */
 920:STM32Cube_FW_N6/Drivers/STM32N6xx_HAL_Driver/Src/stm32n6xx_ll_usb.c ****   {
 921:STM32Cube_FW_N6/Drivers/STM32N6xx_HAL_Driver/Src/stm32n6xx_ll_usb.c ****     if (((USBx_OUTEP(ep->num)->DOEPCTL) & USB_OTG_DOEPCTL_EPENA) == USB_OTG_DOEPCTL_EPENA)
 3110              		.loc 1 921 11
 3111 00b4 3B68     		ldr	r3, [r7]
 3112 00b6 1B78     		ldrb	r3, [r3]	@ zero_extendqisi2
 3113 00b8 5A01     		lsls	r2, r3, #5
 3114 00ba 3B69     		ldr	r3, [r7, #16]
 3115 00bc 1344     		add	r3, r3, r2
 3116 00be 03F53063 		add	r3, r3, #2816
 3117              		.loc 1 921 30
 3118 00c2 1B68     		ldr	r3, [r3]
 3119              		.loc 1 921 41
 3120 00c4 03F00043 		and	r3, r3, #-2147483648
 3121              		.loc 1 921 8
 3122 00c8 B3F1004F 		cmp	r3, #-2147483648
 3123 00cc 3BD1     		bne	.L138
 922:STM32Cube_FW_N6/Drivers/STM32N6xx_HAL_Driver/Src/stm32n6xx_ll_usb.c ****     {
 923:STM32Cube_FW_N6/Drivers/STM32N6xx_HAL_Driver/Src/stm32n6xx_ll_usb.c ****       USBx_OUTEP(ep->num)->DOEPCTL |= (USB_OTG_DOEPCTL_SNAK);
 3124              		.loc 1 923 7
 3125 00ce 3B68     		ldr	r3, [r7]
 3126 00d0 1B78     		ldrb	r3, [r3]	@ zero_extendqisi2
 3127              		.loc 1 923 26
 3128 00d2 5A01     		lsls	r2, r3, #5
 3129 00d4 3B69     		ldr	r3, [r7, #16]
 3130 00d6 1344     		add	r3, r3, r2
ARM GAS  /tmp/ccxt1UfV.s 			page 72


 3131 00d8 03F53063 		add	r3, r3, #2816
 3132 00dc 1B68     		ldr	r3, [r3]
 3133              		.loc 1 923 7
 3134 00de 3A68     		ldr	r2, [r7]
 3135 00e0 1278     		ldrb	r2, [r2]	@ zero_extendqisi2
 3136              		.loc 1 923 26
 3137 00e2 5101     		lsls	r1, r2, #5
 3138 00e4 3A69     		ldr	r2, [r7, #16]
 3139 00e6 0A44     		add	r2, r2, r1
 3140 00e8 02F53062 		add	r2, r2, #2816
 3141              		.loc 1 923 36
 3142 00ec 43F00063 		orr	r3, r3, #134217728
 3143 00f0 1360     		str	r3, [r2]
 924:STM32Cube_FW_N6/Drivers/STM32N6xx_HAL_Driver/Src/stm32n6xx_ll_usb.c ****       USBx_OUTEP(ep->num)->DOEPCTL |= (USB_OTG_DOEPCTL_EPDIS);
 3144              		.loc 1 924 7
 3145 00f2 3B68     		ldr	r3, [r7]
 3146 00f4 1B78     		ldrb	r3, [r3]	@ zero_extendqisi2
 3147              		.loc 1 924 26
 3148 00f6 5A01     		lsls	r2, r3, #5
 3149 00f8 3B69     		ldr	r3, [r7, #16]
 3150 00fa 1344     		add	r3, r3, r2
 3151 00fc 03F53063 		add	r3, r3, #2816
 3152 0100 1B68     		ldr	r3, [r3]
 3153              		.loc 1 924 7
 3154 0102 3A68     		ldr	r2, [r7]
 3155 0104 1278     		ldrb	r2, [r2]	@ zero_extendqisi2
 3156              		.loc 1 924 26
 3157 0106 5101     		lsls	r1, r2, #5
 3158 0108 3A69     		ldr	r2, [r7, #16]
 3159 010a 0A44     		add	r2, r2, r1
 3160 010c 02F53062 		add	r2, r2, #2816
 3161              		.loc 1 924 36
 3162 0110 43F08043 		orr	r3, r3, #1073741824
 3163 0114 1360     		str	r3, [r2]
 3164              	.L140:
 925:STM32Cube_FW_N6/Drivers/STM32N6xx_HAL_Driver/Src/stm32n6xx_ll_usb.c **** 
 926:STM32Cube_FW_N6/Drivers/STM32N6xx_HAL_Driver/Src/stm32n6xx_ll_usb.c ****       do
 927:STM32Cube_FW_N6/Drivers/STM32N6xx_HAL_Driver/Src/stm32n6xx_ll_usb.c ****       {
 928:STM32Cube_FW_N6/Drivers/STM32N6xx_HAL_Driver/Src/stm32n6xx_ll_usb.c ****         count++;
 3165              		.loc 1 928 14
 3166 0116 FB68     		ldr	r3, [r7, #12]
 3167 0118 0133     		adds	r3, r3, #1
 3168 011a FB60     		str	r3, [r7, #12]
 929:STM32Cube_FW_N6/Drivers/STM32N6xx_HAL_Driver/Src/stm32n6xx_ll_usb.c **** 
 930:STM32Cube_FW_N6/Drivers/STM32N6xx_HAL_Driver/Src/stm32n6xx_ll_usb.c ****         if (count > 10000U)
 3169              		.loc 1 930 19
 3170 011c FB68     		ldr	r3, [r7, #12]
 3171              		.loc 1 930 12
 3172 011e 42F21072 		movw	r2, #10000
 3173 0122 9342     		cmp	r3, r2
 3174 0124 02D9     		bls	.L139
 931:STM32Cube_FW_N6/Drivers/STM32N6xx_HAL_Driver/Src/stm32n6xx_ll_usb.c ****         {
 932:STM32Cube_FW_N6/Drivers/STM32N6xx_HAL_Driver/Src/stm32n6xx_ll_usb.c ****           ret = HAL_ERROR;
 3175              		.loc 1 932 15
 3176 0126 0123     		movs	r3, #1
 3177 0128 FB75     		strb	r3, [r7, #23]
 933:STM32Cube_FW_N6/Drivers/STM32N6xx_HAL_Driver/Src/stm32n6xx_ll_usb.c ****           break;
ARM GAS  /tmp/ccxt1UfV.s 			page 73


 3178              		.loc 1 933 11
 3179 012a 0CE0     		b	.L138
 3180              	.L139:
 934:STM32Cube_FW_N6/Drivers/STM32N6xx_HAL_Driver/Src/stm32n6xx_ll_usb.c ****         }
 935:STM32Cube_FW_N6/Drivers/STM32N6xx_HAL_Driver/Src/stm32n6xx_ll_usb.c ****       } while (((USBx_OUTEP(ep->num)->DOEPCTL) & USB_OTG_DOEPCTL_EPENA) ==  USB_OTG_DOEPCTL_EPENA);
 3181              		.loc 1 935 18
 3182 012c 3B68     		ldr	r3, [r7]
 3183 012e 1B78     		ldrb	r3, [r3]	@ zero_extendqisi2
 3184 0130 5A01     		lsls	r2, r3, #5
 3185 0132 3B69     		ldr	r3, [r7, #16]
 3186 0134 1344     		add	r3, r3, r2
 3187 0136 03F53063 		add	r3, r3, #2816
 3188              		.loc 1 935 37
 3189 013a 1B68     		ldr	r3, [r3]
 3190              		.loc 1 935 48
 3191 013c 03F00043 		and	r3, r3, #-2147483648
 3192              		.loc 1 935 73
 3193 0140 B3F1004F 		cmp	r3, #-2147483648
 3194 0144 E7D0     		beq	.L140
 3195              	.L138:
 936:STM32Cube_FW_N6/Drivers/STM32N6xx_HAL_Driver/Src/stm32n6xx_ll_usb.c ****     }
 937:STM32Cube_FW_N6/Drivers/STM32N6xx_HAL_Driver/Src/stm32n6xx_ll_usb.c ****   }
 938:STM32Cube_FW_N6/Drivers/STM32N6xx_HAL_Driver/Src/stm32n6xx_ll_usb.c **** 
 939:STM32Cube_FW_N6/Drivers/STM32N6xx_HAL_Driver/Src/stm32n6xx_ll_usb.c ****   return ret;
 3196              		.loc 1 939 10
 3197 0146 FB7D     		ldrb	r3, [r7, #23]	@ zero_extendqisi2
 940:STM32Cube_FW_N6/Drivers/STM32N6xx_HAL_Driver/Src/stm32n6xx_ll_usb.c **** }
 3198              		.loc 1 940 1
 3199 0148 1846     		mov	r0, r3
 3200 014a 1C37     		adds	r7, r7, #28
 3201              		.cfi_def_cfa_offset 4
 3202 014c BD46     		mov	sp, r7
 3203              		.cfi_def_cfa_register 13
 3204              		@ sp needed
 3205 014e 5DF8047B 		ldr	r7, [sp], #4
 3206              		.cfi_restore 7
 3207              		.cfi_def_cfa_offset 0
 3208 0152 7047     		bx	lr
 3209              		.cfi_endproc
 3210              	.LFE850:
 3212              		.section	.text.USB_WritePacket,"ax",%progbits
 3213              		.align	1
 3214              		.global	USB_WritePacket
 3215              		.syntax unified
 3216              		.thumb
 3217              		.thumb_func
 3219              	USB_WritePacket:
 3220              	.LFB851:
 941:STM32Cube_FW_N6/Drivers/STM32N6xx_HAL_Driver/Src/stm32n6xx_ll_usb.c **** 
 942:STM32Cube_FW_N6/Drivers/STM32N6xx_HAL_Driver/Src/stm32n6xx_ll_usb.c **** 
 943:STM32Cube_FW_N6/Drivers/STM32N6xx_HAL_Driver/Src/stm32n6xx_ll_usb.c **** /**
 944:STM32Cube_FW_N6/Drivers/STM32N6xx_HAL_Driver/Src/stm32n6xx_ll_usb.c ****   * @brief  USB_WritePacket : Writes a packet into the Tx FIFO associated
 945:STM32Cube_FW_N6/Drivers/STM32N6xx_HAL_Driver/Src/stm32n6xx_ll_usb.c ****   *         with the EP/channel
 946:STM32Cube_FW_N6/Drivers/STM32N6xx_HAL_Driver/Src/stm32n6xx_ll_usb.c ****   * @param  USBx  Selected device
 947:STM32Cube_FW_N6/Drivers/STM32N6xx_HAL_Driver/Src/stm32n6xx_ll_usb.c ****   * @param  src   pointer to source buffer
 948:STM32Cube_FW_N6/Drivers/STM32N6xx_HAL_Driver/Src/stm32n6xx_ll_usb.c ****   * @param  ch_ep_num  endpoint or host channel number
 949:STM32Cube_FW_N6/Drivers/STM32N6xx_HAL_Driver/Src/stm32n6xx_ll_usb.c ****   * @param  len  Number of bytes to write
ARM GAS  /tmp/ccxt1UfV.s 			page 74


 950:STM32Cube_FW_N6/Drivers/STM32N6xx_HAL_Driver/Src/stm32n6xx_ll_usb.c ****   * @param  dma USB dma enabled or disabled
 951:STM32Cube_FW_N6/Drivers/STM32N6xx_HAL_Driver/Src/stm32n6xx_ll_usb.c ****   *          This parameter can be one of these values:
 952:STM32Cube_FW_N6/Drivers/STM32N6xx_HAL_Driver/Src/stm32n6xx_ll_usb.c ****   *           0 : DMA feature not used
 953:STM32Cube_FW_N6/Drivers/STM32N6xx_HAL_Driver/Src/stm32n6xx_ll_usb.c ****   *           1 : DMA feature used
 954:STM32Cube_FW_N6/Drivers/STM32N6xx_HAL_Driver/Src/stm32n6xx_ll_usb.c ****   * @retval HAL status
 955:STM32Cube_FW_N6/Drivers/STM32N6xx_HAL_Driver/Src/stm32n6xx_ll_usb.c ****   */
 956:STM32Cube_FW_N6/Drivers/STM32N6xx_HAL_Driver/Src/stm32n6xx_ll_usb.c **** HAL_StatusTypeDef USB_WritePacket(const USB_OTG_GlobalTypeDef *USBx, uint8_t *src,
 957:STM32Cube_FW_N6/Drivers/STM32N6xx_HAL_Driver/Src/stm32n6xx_ll_usb.c ****                                   uint8_t ch_ep_num, uint16_t len, uint8_t dma)
 958:STM32Cube_FW_N6/Drivers/STM32N6xx_HAL_Driver/Src/stm32n6xx_ll_usb.c **** {
 3221              		.loc 1 958 1
 3222              		.cfi_startproc
 3223              		@ args = 4, pretend = 0, frame = 32
 3224              		@ frame_needed = 1, uses_anonymous_args = 0
 3225              		@ link register save eliminated.
 3226 0000 80B4     		push	{r7}
 3227              		.cfi_def_cfa_offset 4
 3228              		.cfi_offset 7, -4
 3229 0002 89B0     		sub	sp, sp, #36
 3230              		.cfi_def_cfa_offset 40
 3231 0004 00AF     		add	r7, sp, #0
 3232              		.cfi_def_cfa_register 7
 3233 0006 F860     		str	r0, [r7, #12]
 3234 0008 B960     		str	r1, [r7, #8]
 3235 000a 1146     		mov	r1, r2
 3236 000c 1A46     		mov	r2, r3
 3237 000e 0B46     		mov	r3, r1
 3238 0010 FB71     		strb	r3, [r7, #7]
 3239 0012 1346     		mov	r3, r2	@ movhi
 3240 0014 BB80     		strh	r3, [r7, #4]	@ movhi
 959:STM32Cube_FW_N6/Drivers/STM32N6xx_HAL_Driver/Src/stm32n6xx_ll_usb.c ****   uint32_t USBx_BASE = (uint32_t)USBx;
 3241              		.loc 1 959 12
 3242 0016 FB68     		ldr	r3, [r7, #12]
 3243 0018 7B61     		str	r3, [r7, #20]
 960:STM32Cube_FW_N6/Drivers/STM32N6xx_HAL_Driver/Src/stm32n6xx_ll_usb.c ****   uint8_t *pSrc = src;
 3244              		.loc 1 960 12
 3245 001a BB68     		ldr	r3, [r7, #8]
 3246 001c FB61     		str	r3, [r7, #28]
 961:STM32Cube_FW_N6/Drivers/STM32N6xx_HAL_Driver/Src/stm32n6xx_ll_usb.c ****   uint32_t count32b;
 962:STM32Cube_FW_N6/Drivers/STM32N6xx_HAL_Driver/Src/stm32n6xx_ll_usb.c ****   uint32_t i;
 963:STM32Cube_FW_N6/Drivers/STM32N6xx_HAL_Driver/Src/stm32n6xx_ll_usb.c **** 
 964:STM32Cube_FW_N6/Drivers/STM32N6xx_HAL_Driver/Src/stm32n6xx_ll_usb.c ****   if (dma == 0U)
 3247              		.loc 1 964 6
 3248 001e 97F82830 		ldrb	r3, [r7, #40]	@ zero_extendqisi2
 3249 0022 002B     		cmp	r3, #0
 3250 0024 23D1     		bne	.L143
 965:STM32Cube_FW_N6/Drivers/STM32N6xx_HAL_Driver/Src/stm32n6xx_ll_usb.c ****   {
 966:STM32Cube_FW_N6/Drivers/STM32N6xx_HAL_Driver/Src/stm32n6xx_ll_usb.c ****     count32b = ((uint32_t)len + 3U) / 4U;
 3251              		.loc 1 966 17
 3252 0026 BB88     		ldrh	r3, [r7, #4]
 3253              		.loc 1 966 31
 3254 0028 0333     		adds	r3, r3, #3
 3255              		.loc 1 966 14
 3256 002a 9B08     		lsrs	r3, r3, #2
 3257 002c 3B61     		str	r3, [r7, #16]
 967:STM32Cube_FW_N6/Drivers/STM32N6xx_HAL_Driver/Src/stm32n6xx_ll_usb.c ****     for (i = 0U; i < count32b; i++)
 3258              		.loc 1 967 12
 3259 002e 0023     		movs	r3, #0
ARM GAS  /tmp/ccxt1UfV.s 			page 75


 3260 0030 BB61     		str	r3, [r7, #24]
 3261              		.loc 1 967 5
 3262 0032 18E0     		b	.L144
 3263              	.L145:
 968:STM32Cube_FW_N6/Drivers/STM32N6xx_HAL_Driver/Src/stm32n6xx_ll_usb.c ****     {
 969:STM32Cube_FW_N6/Drivers/STM32N6xx_HAL_Driver/Src/stm32n6xx_ll_usb.c ****       USBx_DFIFO((uint32_t)ch_ep_num) = __UNALIGNED_UINT32_READ(pSrc);
 3264              		.loc 1 969 7
 3265 0034 FB79     		ldrb	r3, [r7, #7]	@ zero_extendqisi2
 3266 0036 1A03     		lsls	r2, r3, #12
 3267 0038 7B69     		ldr	r3, [r7, #20]
 3268 003a 1344     		add	r3, r3, r2
 3269 003c 03F58053 		add	r3, r3, #4096
 3270 0040 1A46     		mov	r2, r3
 3271              		.loc 1 969 41
 3272 0042 FB69     		ldr	r3, [r7, #28]
 3273 0044 1B68     		ldr	r3, [r3]	@ unaligned
 3274              		.loc 1 969 39
 3275 0046 1360     		str	r3, [r2]
 970:STM32Cube_FW_N6/Drivers/STM32N6xx_HAL_Driver/Src/stm32n6xx_ll_usb.c ****       pSrc++;
 3276              		.loc 1 970 11
 3277 0048 FB69     		ldr	r3, [r7, #28]
 3278 004a 0133     		adds	r3, r3, #1
 3279 004c FB61     		str	r3, [r7, #28]
 971:STM32Cube_FW_N6/Drivers/STM32N6xx_HAL_Driver/Src/stm32n6xx_ll_usb.c ****       pSrc++;
 3280              		.loc 1 971 11
 3281 004e FB69     		ldr	r3, [r7, #28]
 3282 0050 0133     		adds	r3, r3, #1
 3283 0052 FB61     		str	r3, [r7, #28]
 972:STM32Cube_FW_N6/Drivers/STM32N6xx_HAL_Driver/Src/stm32n6xx_ll_usb.c ****       pSrc++;
 3284              		.loc 1 972 11
 3285 0054 FB69     		ldr	r3, [r7, #28]
 3286 0056 0133     		adds	r3, r3, #1
 3287 0058 FB61     		str	r3, [r7, #28]
 973:STM32Cube_FW_N6/Drivers/STM32N6xx_HAL_Driver/Src/stm32n6xx_ll_usb.c ****       pSrc++;
 3288              		.loc 1 973 11
 3289 005a FB69     		ldr	r3, [r7, #28]
 3290 005c 0133     		adds	r3, r3, #1
 3291 005e FB61     		str	r3, [r7, #28]
 967:STM32Cube_FW_N6/Drivers/STM32N6xx_HAL_Driver/Src/stm32n6xx_ll_usb.c ****     {
 3292              		.loc 1 967 33 discriminator 3
 3293 0060 BB69     		ldr	r3, [r7, #24]
 3294 0062 0133     		adds	r3, r3, #1
 3295 0064 BB61     		str	r3, [r7, #24]
 3296              	.L144:
 967:STM32Cube_FW_N6/Drivers/STM32N6xx_HAL_Driver/Src/stm32n6xx_ll_usb.c ****     {
 3297              		.loc 1 967 20 discriminator 1
 3298 0066 BA69     		ldr	r2, [r7, #24]
 3299 0068 3B69     		ldr	r3, [r7, #16]
 3300 006a 9A42     		cmp	r2, r3
 3301 006c E2D3     		bcc	.L145
 3302              	.L143:
 974:STM32Cube_FW_N6/Drivers/STM32N6xx_HAL_Driver/Src/stm32n6xx_ll_usb.c ****     }
 975:STM32Cube_FW_N6/Drivers/STM32N6xx_HAL_Driver/Src/stm32n6xx_ll_usb.c ****   }
 976:STM32Cube_FW_N6/Drivers/STM32N6xx_HAL_Driver/Src/stm32n6xx_ll_usb.c **** 
 977:STM32Cube_FW_N6/Drivers/STM32N6xx_HAL_Driver/Src/stm32n6xx_ll_usb.c ****   return HAL_OK;
 3303              		.loc 1 977 10
 3304 006e 0023     		movs	r3, #0
ARM GAS  /tmp/ccxt1UfV.s 			page 76


 978:STM32Cube_FW_N6/Drivers/STM32N6xx_HAL_Driver/Src/stm32n6xx_ll_usb.c **** }
 3305              		.loc 1 978 1
 3306 0070 1846     		mov	r0, r3
 3307 0072 2437     		adds	r7, r7, #36
 3308              		.cfi_def_cfa_offset 4
 3309 0074 BD46     		mov	sp, r7
 3310              		.cfi_def_cfa_register 13
 3311              		@ sp needed
 3312 0076 5DF8047B 		ldr	r7, [sp], #4
 3313              		.cfi_restore 7
 3314              		.cfi_def_cfa_offset 0
 3315 007a 7047     		bx	lr
 3316              		.cfi_endproc
 3317              	.LFE851:
 3319              		.section	.text.USB_ReadPacket,"ax",%progbits
 3320              		.align	1
 3321              		.global	USB_ReadPacket
 3322              		.syntax unified
 3323              		.thumb
 3324              		.thumb_func
 3326              	USB_ReadPacket:
 3327              	.LFB852:
 979:STM32Cube_FW_N6/Drivers/STM32N6xx_HAL_Driver/Src/stm32n6xx_ll_usb.c **** 
 980:STM32Cube_FW_N6/Drivers/STM32N6xx_HAL_Driver/Src/stm32n6xx_ll_usb.c **** /**
 981:STM32Cube_FW_N6/Drivers/STM32N6xx_HAL_Driver/Src/stm32n6xx_ll_usb.c ****   * @brief  USB_ReadPacket : read a packet from the RX FIFO
 982:STM32Cube_FW_N6/Drivers/STM32N6xx_HAL_Driver/Src/stm32n6xx_ll_usb.c ****   * @param  USBx  Selected device
 983:STM32Cube_FW_N6/Drivers/STM32N6xx_HAL_Driver/Src/stm32n6xx_ll_usb.c ****   * @param  dest  source pointer
 984:STM32Cube_FW_N6/Drivers/STM32N6xx_HAL_Driver/Src/stm32n6xx_ll_usb.c ****   * @param  len  Number of bytes to read
 985:STM32Cube_FW_N6/Drivers/STM32N6xx_HAL_Driver/Src/stm32n6xx_ll_usb.c ****   * @retval pointer to destination buffer
 986:STM32Cube_FW_N6/Drivers/STM32N6xx_HAL_Driver/Src/stm32n6xx_ll_usb.c ****   */
 987:STM32Cube_FW_N6/Drivers/STM32N6xx_HAL_Driver/Src/stm32n6xx_ll_usb.c **** void *USB_ReadPacket(const USB_OTG_GlobalTypeDef *USBx, uint8_t *dest, uint16_t len)
 988:STM32Cube_FW_N6/Drivers/STM32N6xx_HAL_Driver/Src/stm32n6xx_ll_usb.c **** {
 3328              		.loc 1 988 1
 3329              		.cfi_startproc
 3330              		@ args = 0, pretend = 0, frame = 40
 3331              		@ frame_needed = 1, uses_anonymous_args = 0
 3332              		@ link register save eliminated.
 3333 0000 80B4     		push	{r7}
 3334              		.cfi_def_cfa_offset 4
 3335              		.cfi_offset 7, -4
 3336 0002 8BB0     		sub	sp, sp, #44
 3337              		.cfi_def_cfa_offset 48
 3338 0004 00AF     		add	r7, sp, #0
 3339              		.cfi_def_cfa_register 7
 3340 0006 F860     		str	r0, [r7, #12]
 3341 0008 B960     		str	r1, [r7, #8]
 3342 000a 1346     		mov	r3, r2
 3343 000c FB80     		strh	r3, [r7, #6]	@ movhi
 989:STM32Cube_FW_N6/Drivers/STM32N6xx_HAL_Driver/Src/stm32n6xx_ll_usb.c ****   uint32_t USBx_BASE = (uint32_t)USBx;
 3344              		.loc 1 989 12
 3345 000e FB68     		ldr	r3, [r7, #12]
 3346 0010 BB61     		str	r3, [r7, #24]
 990:STM32Cube_FW_N6/Drivers/STM32N6xx_HAL_Driver/Src/stm32n6xx_ll_usb.c ****   uint8_t *pDest = dest;
 3347              		.loc 1 990 12
 3348 0012 BB68     		ldr	r3, [r7, #8]
 3349 0014 7B62     		str	r3, [r7, #36]
 991:STM32Cube_FW_N6/Drivers/STM32N6xx_HAL_Driver/Src/stm32n6xx_ll_usb.c ****   uint32_t pData;
ARM GAS  /tmp/ccxt1UfV.s 			page 77


 992:STM32Cube_FW_N6/Drivers/STM32N6xx_HAL_Driver/Src/stm32n6xx_ll_usb.c ****   uint32_t i;
 993:STM32Cube_FW_N6/Drivers/STM32N6xx_HAL_Driver/Src/stm32n6xx_ll_usb.c ****   uint32_t count32b = (uint32_t)len >> 2U;
 3350              		.loc 1 993 37
 3351 0016 FB88     		ldrh	r3, [r7, #6]
 3352 0018 9B08     		lsrs	r3, r3, #2
 3353 001a 9BB2     		uxth	r3, r3
 3354              		.loc 1 993 12
 3355 001c 7B61     		str	r3, [r7, #20]
 994:STM32Cube_FW_N6/Drivers/STM32N6xx_HAL_Driver/Src/stm32n6xx_ll_usb.c ****   uint16_t remaining_bytes = len % 4U;
 3356              		.loc 1 994 12
 3357 001e FB88     		ldrh	r3, [r7, #6]	@ movhi
 3358 0020 03F00303 		and	r3, r3, #3
 3359 0024 FB83     		strh	r3, [r7, #30]	@ movhi
 995:STM32Cube_FW_N6/Drivers/STM32N6xx_HAL_Driver/Src/stm32n6xx_ll_usb.c **** 
 996:STM32Cube_FW_N6/Drivers/STM32N6xx_HAL_Driver/Src/stm32n6xx_ll_usb.c ****   for (i = 0U; i < count32b; i++)
 3360              		.loc 1 996 10
 3361 0026 0023     		movs	r3, #0
 3362 0028 3B62     		str	r3, [r7, #32]
 3363              		.loc 1 996 3
 3364 002a 14E0     		b	.L148
 3365              	.L149:
 997:STM32Cube_FW_N6/Drivers/STM32N6xx_HAL_Driver/Src/stm32n6xx_ll_usb.c ****   {
 998:STM32Cube_FW_N6/Drivers/STM32N6xx_HAL_Driver/Src/stm32n6xx_ll_usb.c ****     __UNALIGNED_UINT32_WRITE(pDest, USBx_DFIFO(0U));
 3366              		.loc 1 998 5
 3367 002c BB69     		ldr	r3, [r7, #24]
 3368 002e 03F58053 		add	r3, r3, #4096
 3369 0032 1A68     		ldr	r2, [r3]
 3370 0034 7B6A     		ldr	r3, [r7, #36]
 3371 0036 1A60     		str	r2, [r3]	@ unaligned
 999:STM32Cube_FW_N6/Drivers/STM32N6xx_HAL_Driver/Src/stm32n6xx_ll_usb.c ****     pDest++;
 3372              		.loc 1 999 10
 3373 0038 7B6A     		ldr	r3, [r7, #36]
 3374 003a 0133     		adds	r3, r3, #1
 3375 003c 7B62     		str	r3, [r7, #36]
1000:STM32Cube_FW_N6/Drivers/STM32N6xx_HAL_Driver/Src/stm32n6xx_ll_usb.c ****     pDest++;
 3376              		.loc 1 1000 10
 3377 003e 7B6A     		ldr	r3, [r7, #36]
 3378 0040 0133     		adds	r3, r3, #1
 3379 0042 7B62     		str	r3, [r7, #36]
1001:STM32Cube_FW_N6/Drivers/STM32N6xx_HAL_Driver/Src/stm32n6xx_ll_usb.c ****     pDest++;
 3380              		.loc 1 1001 10
 3381 0044 7B6A     		ldr	r3, [r7, #36]
 3382 0046 0133     		adds	r3, r3, #1
 3383 0048 7B62     		str	r3, [r7, #36]
1002:STM32Cube_FW_N6/Drivers/STM32N6xx_HAL_Driver/Src/stm32n6xx_ll_usb.c ****     pDest++;
 3384              		.loc 1 1002 10
 3385 004a 7B6A     		ldr	r3, [r7, #36]
 3386 004c 0133     		adds	r3, r3, #1
 3387 004e 7B62     		str	r3, [r7, #36]
 996:STM32Cube_FW_N6/Drivers/STM32N6xx_HAL_Driver/Src/stm32n6xx_ll_usb.c ****   {
 3388              		.loc 1 996 31 discriminator 3
 3389 0050 3B6A     		ldr	r3, [r7, #32]
 3390 0052 0133     		adds	r3, r3, #1
 3391 0054 3B62     		str	r3, [r7, #32]
 3392              	.L148:
 996:STM32Cube_FW_N6/Drivers/STM32N6xx_HAL_Driver/Src/stm32n6xx_ll_usb.c ****   {
 3393              		.loc 1 996 18 discriminator 1
ARM GAS  /tmp/ccxt1UfV.s 			page 78


 3394 0056 3A6A     		ldr	r2, [r7, #32]
 3395 0058 7B69     		ldr	r3, [r7, #20]
 3396 005a 9A42     		cmp	r2, r3
 3397 005c E6D3     		bcc	.L149
1003:STM32Cube_FW_N6/Drivers/STM32N6xx_HAL_Driver/Src/stm32n6xx_ll_usb.c ****   }
1004:STM32Cube_FW_N6/Drivers/STM32N6xx_HAL_Driver/Src/stm32n6xx_ll_usb.c **** 
1005:STM32Cube_FW_N6/Drivers/STM32N6xx_HAL_Driver/Src/stm32n6xx_ll_usb.c ****   /* When Number of data is not word aligned, read the remaining byte */
1006:STM32Cube_FW_N6/Drivers/STM32N6xx_HAL_Driver/Src/stm32n6xx_ll_usb.c ****   if (remaining_bytes != 0U)
 3398              		.loc 1 1006 6
 3399 005e FB8B     		ldrh	r3, [r7, #30]
 3400 0060 002B     		cmp	r3, #0
 3401 0062 1ED0     		beq	.L150
1007:STM32Cube_FW_N6/Drivers/STM32N6xx_HAL_Driver/Src/stm32n6xx_ll_usb.c ****   {
1008:STM32Cube_FW_N6/Drivers/STM32N6xx_HAL_Driver/Src/stm32n6xx_ll_usb.c ****     i = 0U;
 3402              		.loc 1 1008 7
 3403 0064 0023     		movs	r3, #0
 3404 0066 3B62     		str	r3, [r7, #32]
1009:STM32Cube_FW_N6/Drivers/STM32N6xx_HAL_Driver/Src/stm32n6xx_ll_usb.c ****     __UNALIGNED_UINT32_WRITE(&pData, USBx_DFIFO(0U));
 3405              		.loc 1 1009 5
 3406 0068 BB69     		ldr	r3, [r7, #24]
 3407 006a 03F58053 		add	r3, r3, #4096
 3408 006e 1A46     		mov	r2, r3
 3409 0070 07F11003 		add	r3, r7, #16
 3410 0074 1268     		ldr	r2, [r2]
 3411 0076 1A60     		str	r2, [r3]	@ unaligned
 3412              	.L151:
1010:STM32Cube_FW_N6/Drivers/STM32N6xx_HAL_Driver/Src/stm32n6xx_ll_usb.c **** 
1011:STM32Cube_FW_N6/Drivers/STM32N6xx_HAL_Driver/Src/stm32n6xx_ll_usb.c ****     do
1012:STM32Cube_FW_N6/Drivers/STM32N6xx_HAL_Driver/Src/stm32n6xx_ll_usb.c ****     {
1013:STM32Cube_FW_N6/Drivers/STM32N6xx_HAL_Driver/Src/stm32n6xx_ll_usb.c ****       *(uint8_t *)pDest = (uint8_t)(pData >> (8U * (uint8_t)(i)));
 3413              		.loc 1 1013 43
 3414 0078 3A69     		ldr	r2, [r7, #16]
 3415              		.loc 1 1013 52
 3416 007a 3B6A     		ldr	r3, [r7, #32]
 3417 007c DBB2     		uxtb	r3, r3
 3418              		.loc 1 1013 50
 3419 007e DB00     		lsls	r3, r3, #3
 3420              		.loc 1 1013 43
 3421 0080 22FA03F3 		lsr	r3, r2, r3
 3422              		.loc 1 1013 27
 3423 0084 DAB2     		uxtb	r2, r3
 3424              		.loc 1 1013 25
 3425 0086 7B6A     		ldr	r3, [r7, #36]
 3426 0088 1A70     		strb	r2, [r3]
1014:STM32Cube_FW_N6/Drivers/STM32N6xx_HAL_Driver/Src/stm32n6xx_ll_usb.c ****       i++;
 3427              		.loc 1 1014 8
 3428 008a 3B6A     		ldr	r3, [r7, #32]
 3429 008c 0133     		adds	r3, r3, #1
 3430 008e 3B62     		str	r3, [r7, #32]
1015:STM32Cube_FW_N6/Drivers/STM32N6xx_HAL_Driver/Src/stm32n6xx_ll_usb.c ****       pDest++;
 3431              		.loc 1 1015 12
 3432 0090 7B6A     		ldr	r3, [r7, #36]
 3433 0092 0133     		adds	r3, r3, #1
 3434 0094 7B62     		str	r3, [r7, #36]
1016:STM32Cube_FW_N6/Drivers/STM32N6xx_HAL_Driver/Src/stm32n6xx_ll_usb.c ****       remaining_bytes--;
 3435              		.loc 1 1016 22
 3436 0096 FB8B     		ldrh	r3, [r7, #30]
ARM GAS  /tmp/ccxt1UfV.s 			page 79


 3437 0098 013B     		subs	r3, r3, #1
 3438 009a FB83     		strh	r3, [r7, #30]	@ movhi
1017:STM32Cube_FW_N6/Drivers/STM32N6xx_HAL_Driver/Src/stm32n6xx_ll_usb.c ****     } while (remaining_bytes != 0U);
 3439              		.loc 1 1017 30 discriminator 1
 3440 009c FB8B     		ldrh	r3, [r7, #30]
 3441 009e 002B     		cmp	r3, #0
 3442 00a0 EAD1     		bne	.L151
 3443              	.L150:
1018:STM32Cube_FW_N6/Drivers/STM32N6xx_HAL_Driver/Src/stm32n6xx_ll_usb.c ****   }
1019:STM32Cube_FW_N6/Drivers/STM32N6xx_HAL_Driver/Src/stm32n6xx_ll_usb.c **** 
1020:STM32Cube_FW_N6/Drivers/STM32N6xx_HAL_Driver/Src/stm32n6xx_ll_usb.c ****   return ((void *)pDest);
 3444              		.loc 1 1020 11
 3445 00a2 7B6A     		ldr	r3, [r7, #36]
1021:STM32Cube_FW_N6/Drivers/STM32N6xx_HAL_Driver/Src/stm32n6xx_ll_usb.c **** }
 3446              		.loc 1 1021 1
 3447 00a4 1846     		mov	r0, r3
 3448 00a6 2C37     		adds	r7, r7, #44
 3449              		.cfi_def_cfa_offset 4
 3450 00a8 BD46     		mov	sp, r7
 3451              		.cfi_def_cfa_register 13
 3452              		@ sp needed
 3453 00aa 5DF8047B 		ldr	r7, [sp], #4
 3454              		.cfi_restore 7
 3455              		.cfi_def_cfa_offset 0
 3456 00ae 7047     		bx	lr
 3457              		.cfi_endproc
 3458              	.LFE852:
 3460              		.section	.text.USB_EPSetStall,"ax",%progbits
 3461              		.align	1
 3462              		.global	USB_EPSetStall
 3463              		.syntax unified
 3464              		.thumb
 3465              		.thumb_func
 3467              	USB_EPSetStall:
 3468              	.LFB853:
1022:STM32Cube_FW_N6/Drivers/STM32N6xx_HAL_Driver/Src/stm32n6xx_ll_usb.c **** 
1023:STM32Cube_FW_N6/Drivers/STM32N6xx_HAL_Driver/Src/stm32n6xx_ll_usb.c **** /**
1024:STM32Cube_FW_N6/Drivers/STM32N6xx_HAL_Driver/Src/stm32n6xx_ll_usb.c ****   * @brief  USB_EPSetStall : set a stall condition over an EP
1025:STM32Cube_FW_N6/Drivers/STM32N6xx_HAL_Driver/Src/stm32n6xx_ll_usb.c ****   * @param  USBx  Selected device
1026:STM32Cube_FW_N6/Drivers/STM32N6xx_HAL_Driver/Src/stm32n6xx_ll_usb.c ****   * @param  ep pointer to endpoint structure
1027:STM32Cube_FW_N6/Drivers/STM32N6xx_HAL_Driver/Src/stm32n6xx_ll_usb.c ****   * @retval HAL status
1028:STM32Cube_FW_N6/Drivers/STM32N6xx_HAL_Driver/Src/stm32n6xx_ll_usb.c ****   */
1029:STM32Cube_FW_N6/Drivers/STM32N6xx_HAL_Driver/Src/stm32n6xx_ll_usb.c **** HAL_StatusTypeDef USB_EPSetStall(const USB_OTG_GlobalTypeDef *USBx, const USB_OTG_EPTypeDef *ep)
1030:STM32Cube_FW_N6/Drivers/STM32N6xx_HAL_Driver/Src/stm32n6xx_ll_usb.c **** {
 3469              		.loc 1 1030 1
 3470              		.cfi_startproc
 3471              		@ args = 0, pretend = 0, frame = 16
 3472              		@ frame_needed = 1, uses_anonymous_args = 0
 3473              		@ link register save eliminated.
 3474 0000 80B4     		push	{r7}
 3475              		.cfi_def_cfa_offset 4
 3476              		.cfi_offset 7, -4
 3477 0002 85B0     		sub	sp, sp, #20
 3478              		.cfi_def_cfa_offset 24
 3479 0004 00AF     		add	r7, sp, #0
 3480              		.cfi_def_cfa_register 7
 3481 0006 7860     		str	r0, [r7, #4]
ARM GAS  /tmp/ccxt1UfV.s 			page 80


 3482 0008 3960     		str	r1, [r7]
1031:STM32Cube_FW_N6/Drivers/STM32N6xx_HAL_Driver/Src/stm32n6xx_ll_usb.c ****   uint32_t USBx_BASE = (uint32_t)USBx;
 3483              		.loc 1 1031 12
 3484 000a 7B68     		ldr	r3, [r7, #4]
 3485 000c FB60     		str	r3, [r7, #12]
1032:STM32Cube_FW_N6/Drivers/STM32N6xx_HAL_Driver/Src/stm32n6xx_ll_usb.c ****   uint32_t epnum = (uint32_t)ep->num;
 3486              		.loc 1 1032 32
 3487 000e 3B68     		ldr	r3, [r7]
 3488 0010 1B78     		ldrb	r3, [r3]	@ zero_extendqisi2
 3489              		.loc 1 1032 12
 3490 0012 BB60     		str	r3, [r7, #8]
1033:STM32Cube_FW_N6/Drivers/STM32N6xx_HAL_Driver/Src/stm32n6xx_ll_usb.c **** 
1034:STM32Cube_FW_N6/Drivers/STM32N6xx_HAL_Driver/Src/stm32n6xx_ll_usb.c ****   if (ep->is_in == 1U)
 3491              		.loc 1 1034 9
 3492 0014 3B68     		ldr	r3, [r7]
 3493 0016 5B78     		ldrb	r3, [r3, #1]	@ zero_extendqisi2
 3494              		.loc 1 1034 6
 3495 0018 012B     		cmp	r3, #1
 3496 001a 2CD1     		bne	.L154
1035:STM32Cube_FW_N6/Drivers/STM32N6xx_HAL_Driver/Src/stm32n6xx_ll_usb.c ****   {
1036:STM32Cube_FW_N6/Drivers/STM32N6xx_HAL_Driver/Src/stm32n6xx_ll_usb.c ****     if (((USBx_INEP(epnum)->DIEPCTL & USB_OTG_DIEPCTL_EPENA) == 0U) && (epnum != 0U))
 3497              		.loc 1 1036 11
 3498 001c BB68     		ldr	r3, [r7, #8]
 3499 001e 5A01     		lsls	r2, r3, #5
 3500 0020 FB68     		ldr	r3, [r7, #12]
 3501 0022 1344     		add	r3, r3, r2
 3502 0024 03F51063 		add	r3, r3, #2304
 3503              		.loc 1 1036 27
 3504 0028 1B68     		ldr	r3, [r3]
 3505              		.loc 1 1036 8
 3506 002a 002B     		cmp	r3, #0
 3507 002c 12DB     		blt	.L155
 3508              		.loc 1 1036 69 discriminator 1
 3509 002e BB68     		ldr	r3, [r7, #8]
 3510 0030 002B     		cmp	r3, #0
 3511 0032 0FD0     		beq	.L155
1037:STM32Cube_FW_N6/Drivers/STM32N6xx_HAL_Driver/Src/stm32n6xx_ll_usb.c ****     {
1038:STM32Cube_FW_N6/Drivers/STM32N6xx_HAL_Driver/Src/stm32n6xx_ll_usb.c ****       USBx_INEP(epnum)->DIEPCTL &= ~(USB_OTG_DIEPCTL_EPDIS);
 3512              		.loc 1 1038 23
 3513 0034 BB68     		ldr	r3, [r7, #8]
 3514 0036 5A01     		lsls	r2, r3, #5
 3515 0038 FB68     		ldr	r3, [r7, #12]
 3516 003a 1344     		add	r3, r3, r2
 3517 003c 03F51063 		add	r3, r3, #2304
 3518 0040 1B68     		ldr	r3, [r3]
 3519 0042 BA68     		ldr	r2, [r7, #8]
 3520 0044 5101     		lsls	r1, r2, #5
 3521 0046 FA68     		ldr	r2, [r7, #12]
 3522 0048 0A44     		add	r2, r2, r1
 3523 004a 02F51062 		add	r2, r2, #2304
 3524              		.loc 1 1038 33
 3525 004e 23F08043 		bic	r3, r3, #1073741824
 3526 0052 1360     		str	r3, [r2]
 3527              	.L155:
1039:STM32Cube_FW_N6/Drivers/STM32N6xx_HAL_Driver/Src/stm32n6xx_ll_usb.c ****     }
1040:STM32Cube_FW_N6/Drivers/STM32N6xx_HAL_Driver/Src/stm32n6xx_ll_usb.c ****     USBx_INEP(epnum)->DIEPCTL |= USB_OTG_DIEPCTL_STALL;
 3528              		.loc 1 1040 21
ARM GAS  /tmp/ccxt1UfV.s 			page 81


 3529 0054 BB68     		ldr	r3, [r7, #8]
 3530 0056 5A01     		lsls	r2, r3, #5
 3531 0058 FB68     		ldr	r3, [r7, #12]
 3532 005a 1344     		add	r3, r3, r2
 3533 005c 03F51063 		add	r3, r3, #2304
 3534 0060 1B68     		ldr	r3, [r3]
 3535 0062 BA68     		ldr	r2, [r7, #8]
 3536 0064 5101     		lsls	r1, r2, #5
 3537 0066 FA68     		ldr	r2, [r7, #12]
 3538 0068 0A44     		add	r2, r2, r1
 3539 006a 02F51062 		add	r2, r2, #2304
 3540              		.loc 1 1040 31
 3541 006e 43F40013 		orr	r3, r3, #2097152
 3542 0072 1360     		str	r3, [r2]
 3543 0074 2BE0     		b	.L156
 3544              	.L154:
1041:STM32Cube_FW_N6/Drivers/STM32N6xx_HAL_Driver/Src/stm32n6xx_ll_usb.c ****   }
1042:STM32Cube_FW_N6/Drivers/STM32N6xx_HAL_Driver/Src/stm32n6xx_ll_usb.c ****   else
1043:STM32Cube_FW_N6/Drivers/STM32N6xx_HAL_Driver/Src/stm32n6xx_ll_usb.c ****   {
1044:STM32Cube_FW_N6/Drivers/STM32N6xx_HAL_Driver/Src/stm32n6xx_ll_usb.c ****     if (((USBx_OUTEP(epnum)->DOEPCTL & USB_OTG_DOEPCTL_EPENA) == 0U) && (epnum != 0U))
 3545              		.loc 1 1044 11
 3546 0076 BB68     		ldr	r3, [r7, #8]
 3547 0078 5A01     		lsls	r2, r3, #5
 3548 007a FB68     		ldr	r3, [r7, #12]
 3549 007c 1344     		add	r3, r3, r2
 3550 007e 03F53063 		add	r3, r3, #2816
 3551              		.loc 1 1044 28
 3552 0082 1B68     		ldr	r3, [r3]
 3553              		.loc 1 1044 8
 3554 0084 002B     		cmp	r3, #0
 3555 0086 12DB     		blt	.L157
 3556              		.loc 1 1044 70 discriminator 1
 3557 0088 BB68     		ldr	r3, [r7, #8]
 3558 008a 002B     		cmp	r3, #0
 3559 008c 0FD0     		beq	.L157
1045:STM32Cube_FW_N6/Drivers/STM32N6xx_HAL_Driver/Src/stm32n6xx_ll_usb.c ****     {
1046:STM32Cube_FW_N6/Drivers/STM32N6xx_HAL_Driver/Src/stm32n6xx_ll_usb.c ****       USBx_OUTEP(epnum)->DOEPCTL &= ~(USB_OTG_DOEPCTL_EPDIS);
 3560              		.loc 1 1046 24
 3561 008e BB68     		ldr	r3, [r7, #8]
 3562 0090 5A01     		lsls	r2, r3, #5
 3563 0092 FB68     		ldr	r3, [r7, #12]
 3564 0094 1344     		add	r3, r3, r2
 3565 0096 03F53063 		add	r3, r3, #2816
 3566 009a 1B68     		ldr	r3, [r3]
 3567 009c BA68     		ldr	r2, [r7, #8]
 3568 009e 5101     		lsls	r1, r2, #5
 3569 00a0 FA68     		ldr	r2, [r7, #12]
 3570 00a2 0A44     		add	r2, r2, r1
 3571 00a4 02F53062 		add	r2, r2, #2816
