ARM GAS  /tmp/ccC3CVtV.s 			page 1


   1              		.arch armv8.1-m.main
   2              		.fpu fpv5-d16
   3              		.arch_extension dsp
   4              		.arch_extension fp
   5              		.arch_extension fp.dp
   6              		.arch_extension mve
   7              		.arch_extension mve.fp
   8              		.eabi_attribute 5, "cortex-m55"
   9              		.eabi_attribute 28, 1
  10              		.eabi_attribute 20, 1
  11              		.eabi_attribute 21, 1
  12              		.eabi_attribute 23, 3
  13              		.eabi_attribute 24, 1
  14              		.eabi_attribute 25, 1
  15              		.eabi_attribute 26, 1
  16              		.eabi_attribute 30, 6
  17              		.eabi_attribute 34, 1
  18              		.eabi_attribute 38, 1
  19              		.eabi_attribute 18, 4
  20              		.file	"stm32n6xx_hal_pcd_ex.c"
  21              		.text
  22              	.Ltext0:
  23              		.cfi_sections	.debug_frame
  24              		.file 1 "STM32Cube_FW_N6/Drivers/STM32N6xx_HAL_Driver/Src/stm32n6xx_hal_pcd_ex.c"
  25              		.section	.text.HAL_PCDEx_SetTxFiFo,"ax",%progbits
  26              		.align	1
  27              		.global	HAL_PCDEx_SetTxFiFo
  28              		.syntax unified
  29              		.thumb
  30              		.thumb_func
  32              	HAL_PCDEx_SetTxFiFo:
  33              	.LFB835:
   1:STM32Cube_FW_N6/Drivers/STM32N6xx_HAL_Driver/Src/stm32n6xx_hal_pcd_ex.c **** /**
   2:STM32Cube_FW_N6/Drivers/STM32N6xx_HAL_Driver/Src/stm32n6xx_hal_pcd_ex.c ****   ******************************************************************************
   3:STM32Cube_FW_N6/Drivers/STM32N6xx_HAL_Driver/Src/stm32n6xx_hal_pcd_ex.c ****   * @file    stm32n6xx_hal_pcd_ex.c
   4:STM32Cube_FW_N6/Drivers/STM32N6xx_HAL_Driver/Src/stm32n6xx_hal_pcd_ex.c ****   * @author  MCD Application Team
   5:STM32Cube_FW_N6/Drivers/STM32N6xx_HAL_Driver/Src/stm32n6xx_hal_pcd_ex.c ****   * @brief   PCD Extended HAL module driver.
   6:STM32Cube_FW_N6/Drivers/STM32N6xx_HAL_Driver/Src/stm32n6xx_hal_pcd_ex.c ****   *          This file provides firmware functions to manage the following
   7:STM32Cube_FW_N6/Drivers/STM32N6xx_HAL_Driver/Src/stm32n6xx_hal_pcd_ex.c ****   *          functionalities of the USB Peripheral Controller:
   8:STM32Cube_FW_N6/Drivers/STM32N6xx_HAL_Driver/Src/stm32n6xx_hal_pcd_ex.c ****   *           + Extended features functions
   9:STM32Cube_FW_N6/Drivers/STM32N6xx_HAL_Driver/Src/stm32n6xx_hal_pcd_ex.c ****   *
  10:STM32Cube_FW_N6/Drivers/STM32N6xx_HAL_Driver/Src/stm32n6xx_hal_pcd_ex.c ****   ******************************************************************************
  11:STM32Cube_FW_N6/Drivers/STM32N6xx_HAL_Driver/Src/stm32n6xx_hal_pcd_ex.c ****   * @attention
  12:STM32Cube_FW_N6/Drivers/STM32N6xx_HAL_Driver/Src/stm32n6xx_hal_pcd_ex.c ****   *
  13:STM32Cube_FW_N6/Drivers/STM32N6xx_HAL_Driver/Src/stm32n6xx_hal_pcd_ex.c ****   * Copyright (c) 2023 STMicroelectronics.
  14:STM32Cube_FW_N6/Drivers/STM32N6xx_HAL_Driver/Src/stm32n6xx_hal_pcd_ex.c ****   * All rights reserved.
  15:STM32Cube_FW_N6/Drivers/STM32N6xx_HAL_Driver/Src/stm32n6xx_hal_pcd_ex.c ****   *
  16:STM32Cube_FW_N6/Drivers/STM32N6xx_HAL_Driver/Src/stm32n6xx_hal_pcd_ex.c ****   * This software is licensed under terms that can be found in the LICENSE file
  17:STM32Cube_FW_N6/Drivers/STM32N6xx_HAL_Driver/Src/stm32n6xx_hal_pcd_ex.c ****   * in the root directory of this software component.
  18:STM32Cube_FW_N6/Drivers/STM32N6xx_HAL_Driver/Src/stm32n6xx_hal_pcd_ex.c ****   * If no LICENSE file comes with this software, it is provided AS-IS.
  19:STM32Cube_FW_N6/Drivers/STM32N6xx_HAL_Driver/Src/stm32n6xx_hal_pcd_ex.c ****   *
  20:STM32Cube_FW_N6/Drivers/STM32N6xx_HAL_Driver/Src/stm32n6xx_hal_pcd_ex.c ****   ******************************************************************************
  21:STM32Cube_FW_N6/Drivers/STM32N6xx_HAL_Driver/Src/stm32n6xx_hal_pcd_ex.c ****   */
  22:STM32Cube_FW_N6/Drivers/STM32N6xx_HAL_Driver/Src/stm32n6xx_hal_pcd_ex.c **** 
  23:STM32Cube_FW_N6/Drivers/STM32N6xx_HAL_Driver/Src/stm32n6xx_hal_pcd_ex.c **** /* Includes ------------------------------------------------------------------*/
  24:STM32Cube_FW_N6/Drivers/STM32N6xx_HAL_Driver/Src/stm32n6xx_hal_pcd_ex.c **** #include "stm32n6xx_hal.h"
  25:STM32Cube_FW_N6/Drivers/STM32N6xx_HAL_Driver/Src/stm32n6xx_hal_pcd_ex.c **** 
ARM GAS  /tmp/ccC3CVtV.s 			page 2


  26:STM32Cube_FW_N6/Drivers/STM32N6xx_HAL_Driver/Src/stm32n6xx_hal_pcd_ex.c **** /** @addtogroup STM32N6xx_HAL_Driver
  27:STM32Cube_FW_N6/Drivers/STM32N6xx_HAL_Driver/Src/stm32n6xx_hal_pcd_ex.c ****   * @{
  28:STM32Cube_FW_N6/Drivers/STM32N6xx_HAL_Driver/Src/stm32n6xx_hal_pcd_ex.c ****   */
  29:STM32Cube_FW_N6/Drivers/STM32N6xx_HAL_Driver/Src/stm32n6xx_hal_pcd_ex.c **** 
  30:STM32Cube_FW_N6/Drivers/STM32N6xx_HAL_Driver/Src/stm32n6xx_hal_pcd_ex.c **** /** @defgroup PCDEx PCDEx
  31:STM32Cube_FW_N6/Drivers/STM32N6xx_HAL_Driver/Src/stm32n6xx_hal_pcd_ex.c ****   * @brief PCD Extended HAL module driver
  32:STM32Cube_FW_N6/Drivers/STM32N6xx_HAL_Driver/Src/stm32n6xx_hal_pcd_ex.c ****   * @{
  33:STM32Cube_FW_N6/Drivers/STM32N6xx_HAL_Driver/Src/stm32n6xx_hal_pcd_ex.c ****   */
  34:STM32Cube_FW_N6/Drivers/STM32N6xx_HAL_Driver/Src/stm32n6xx_hal_pcd_ex.c **** 
  35:STM32Cube_FW_N6/Drivers/STM32N6xx_HAL_Driver/Src/stm32n6xx_hal_pcd_ex.c **** #ifdef HAL_PCD_MODULE_ENABLED
  36:STM32Cube_FW_N6/Drivers/STM32N6xx_HAL_Driver/Src/stm32n6xx_hal_pcd_ex.c **** 
  37:STM32Cube_FW_N6/Drivers/STM32N6xx_HAL_Driver/Src/stm32n6xx_hal_pcd_ex.c **** #if defined (USB1_OTG_HS) || defined (USB2_OTG_HS)
  38:STM32Cube_FW_N6/Drivers/STM32N6xx_HAL_Driver/Src/stm32n6xx_hal_pcd_ex.c **** /* Private types -------------------------------------------------------------*/
  39:STM32Cube_FW_N6/Drivers/STM32N6xx_HAL_Driver/Src/stm32n6xx_hal_pcd_ex.c **** /* Private variables ---------------------------------------------------------*/
  40:STM32Cube_FW_N6/Drivers/STM32N6xx_HAL_Driver/Src/stm32n6xx_hal_pcd_ex.c **** /* Private constants ---------------------------------------------------------*/
  41:STM32Cube_FW_N6/Drivers/STM32N6xx_HAL_Driver/Src/stm32n6xx_hal_pcd_ex.c **** /* Private macros ------------------------------------------------------------*/
  42:STM32Cube_FW_N6/Drivers/STM32N6xx_HAL_Driver/Src/stm32n6xx_hal_pcd_ex.c **** /* Private functions ---------------------------------------------------------*/
  43:STM32Cube_FW_N6/Drivers/STM32N6xx_HAL_Driver/Src/stm32n6xx_hal_pcd_ex.c **** /* Exported functions --------------------------------------------------------*/
  44:STM32Cube_FW_N6/Drivers/STM32N6xx_HAL_Driver/Src/stm32n6xx_hal_pcd_ex.c **** 
  45:STM32Cube_FW_N6/Drivers/STM32N6xx_HAL_Driver/Src/stm32n6xx_hal_pcd_ex.c **** /** @defgroup PCDEx_Exported_Functions PCDEx Exported Functions
  46:STM32Cube_FW_N6/Drivers/STM32N6xx_HAL_Driver/Src/stm32n6xx_hal_pcd_ex.c ****   * @{
  47:STM32Cube_FW_N6/Drivers/STM32N6xx_HAL_Driver/Src/stm32n6xx_hal_pcd_ex.c ****   */
  48:STM32Cube_FW_N6/Drivers/STM32N6xx_HAL_Driver/Src/stm32n6xx_hal_pcd_ex.c **** 
  49:STM32Cube_FW_N6/Drivers/STM32N6xx_HAL_Driver/Src/stm32n6xx_hal_pcd_ex.c **** /** @defgroup PCDEx_Exported_Functions_Group1 Peripheral Control functions
  50:STM32Cube_FW_N6/Drivers/STM32N6xx_HAL_Driver/Src/stm32n6xx_hal_pcd_ex.c ****   * @brief    PCDEx control functions
  51:STM32Cube_FW_N6/Drivers/STM32N6xx_HAL_Driver/Src/stm32n6xx_hal_pcd_ex.c ****   *
  52:STM32Cube_FW_N6/Drivers/STM32N6xx_HAL_Driver/Src/stm32n6xx_hal_pcd_ex.c **** @verbatim
  53:STM32Cube_FW_N6/Drivers/STM32N6xx_HAL_Driver/Src/stm32n6xx_hal_pcd_ex.c ****  ===============================================================================
  54:STM32Cube_FW_N6/Drivers/STM32N6xx_HAL_Driver/Src/stm32n6xx_hal_pcd_ex.c ****                  ##### Extended features functions #####
  55:STM32Cube_FW_N6/Drivers/STM32N6xx_HAL_Driver/Src/stm32n6xx_hal_pcd_ex.c ****  ===============================================================================
  56:STM32Cube_FW_N6/Drivers/STM32N6xx_HAL_Driver/Src/stm32n6xx_hal_pcd_ex.c ****     [..]  This section provides functions allowing to:
  57:STM32Cube_FW_N6/Drivers/STM32N6xx_HAL_Driver/Src/stm32n6xx_hal_pcd_ex.c ****       (+) Update FIFO configuration
  58:STM32Cube_FW_N6/Drivers/STM32N6xx_HAL_Driver/Src/stm32n6xx_hal_pcd_ex.c **** 
  59:STM32Cube_FW_N6/Drivers/STM32N6xx_HAL_Driver/Src/stm32n6xx_hal_pcd_ex.c **** @endverbatim
  60:STM32Cube_FW_N6/Drivers/STM32N6xx_HAL_Driver/Src/stm32n6xx_hal_pcd_ex.c ****   * @{
  61:STM32Cube_FW_N6/Drivers/STM32N6xx_HAL_Driver/Src/stm32n6xx_hal_pcd_ex.c ****   */
  62:STM32Cube_FW_N6/Drivers/STM32N6xx_HAL_Driver/Src/stm32n6xx_hal_pcd_ex.c **** #if defined (USB1_OTG_HS) || defined (USB2_OTG_HS)
  63:STM32Cube_FW_N6/Drivers/STM32N6xx_HAL_Driver/Src/stm32n6xx_hal_pcd_ex.c **** /**
  64:STM32Cube_FW_N6/Drivers/STM32N6xx_HAL_Driver/Src/stm32n6xx_hal_pcd_ex.c ****   * @brief  Set Tx FIFO
  65:STM32Cube_FW_N6/Drivers/STM32N6xx_HAL_Driver/Src/stm32n6xx_hal_pcd_ex.c ****   * @param  hpcd PCD handle
  66:STM32Cube_FW_N6/Drivers/STM32N6xx_HAL_Driver/Src/stm32n6xx_hal_pcd_ex.c ****   * @param  fifo The number of Tx fifo
  67:STM32Cube_FW_N6/Drivers/STM32N6xx_HAL_Driver/Src/stm32n6xx_hal_pcd_ex.c ****   * @param  size Fifo size
  68:STM32Cube_FW_N6/Drivers/STM32N6xx_HAL_Driver/Src/stm32n6xx_hal_pcd_ex.c ****   * @retval HAL status
  69:STM32Cube_FW_N6/Drivers/STM32N6xx_HAL_Driver/Src/stm32n6xx_hal_pcd_ex.c ****   */
  70:STM32Cube_FW_N6/Drivers/STM32N6xx_HAL_Driver/Src/stm32n6xx_hal_pcd_ex.c **** HAL_StatusTypeDef HAL_PCDEx_SetTxFiFo(PCD_HandleTypeDef *hpcd, uint8_t fifo, uint16_t size)
  71:STM32Cube_FW_N6/Drivers/STM32N6xx_HAL_Driver/Src/stm32n6xx_hal_pcd_ex.c **** {
  34              		.loc 1 71 1
  35              		.cfi_startproc
  36              		@ args = 0, pretend = 0, frame = 16
  37              		@ frame_needed = 1, uses_anonymous_args = 0
  38              		@ link register save eliminated.
  39 0000 80B4     		push	{r7}
  40              		.cfi_def_cfa_offset 4
  41              		.cfi_offset 7, -4
  42 0002 85B0     		sub	sp, sp, #20
  43              		.cfi_def_cfa_offset 24
  44 0004 00AF     		add	r7, sp, #0
ARM GAS  /tmp/ccC3CVtV.s 			page 3


  45              		.cfi_def_cfa_register 7
  46 0006 7860     		str	r0, [r7, #4]
  47 0008 0B46     		mov	r3, r1
  48 000a FB70     		strb	r3, [r7, #3]
  49 000c 1346     		mov	r3, r2	@ movhi
  50 000e 3B80     		strh	r3, [r7]	@ movhi
  72:STM32Cube_FW_N6/Drivers/STM32N6xx_HAL_Driver/Src/stm32n6xx_hal_pcd_ex.c ****   uint8_t i;
  73:STM32Cube_FW_N6/Drivers/STM32N6xx_HAL_Driver/Src/stm32n6xx_hal_pcd_ex.c ****   uint32_t Tx_Offset;
  74:STM32Cube_FW_N6/Drivers/STM32N6xx_HAL_Driver/Src/stm32n6xx_hal_pcd_ex.c **** 
  75:STM32Cube_FW_N6/Drivers/STM32N6xx_HAL_Driver/Src/stm32n6xx_hal_pcd_ex.c ****   /*  TXn min size = 16 words. (n  : Transmit FIFO index)
  76:STM32Cube_FW_N6/Drivers/STM32N6xx_HAL_Driver/Src/stm32n6xx_hal_pcd_ex.c ****       When a TxFIFO is not used, the Configuration should be as follows:
  77:STM32Cube_FW_N6/Drivers/STM32N6xx_HAL_Driver/Src/stm32n6xx_hal_pcd_ex.c ****           case 1 :  n > m    and Txn is not used    (n,m  : Transmit FIFO indexes)
  78:STM32Cube_FW_N6/Drivers/STM32N6xx_HAL_Driver/Src/stm32n6xx_hal_pcd_ex.c ****          --> Txm can use the space allocated for Txn.
  79:STM32Cube_FW_N6/Drivers/STM32N6xx_HAL_Driver/Src/stm32n6xx_hal_pcd_ex.c ****          case2  :  n < m    and Txn is not used    (n,m  : Transmit FIFO indexes)
  80:STM32Cube_FW_N6/Drivers/STM32N6xx_HAL_Driver/Src/stm32n6xx_hal_pcd_ex.c ****          --> Txn should be configured with the minimum space of 16 words
  81:STM32Cube_FW_N6/Drivers/STM32N6xx_HAL_Driver/Src/stm32n6xx_hal_pcd_ex.c ****      The FIFO is used optimally when used TxFIFOs are allocated in the top
  82:STM32Cube_FW_N6/Drivers/STM32N6xx_HAL_Driver/Src/stm32n6xx_hal_pcd_ex.c ****          of the FIFO.Ex: use EP1 and EP2 as IN instead of EP1 and EP3 as IN ones.
  83:STM32Cube_FW_N6/Drivers/STM32N6xx_HAL_Driver/Src/stm32n6xx_hal_pcd_ex.c ****      When DMA is used 3n * FIFO locations should be reserved for internal DMA registers */
  84:STM32Cube_FW_N6/Drivers/STM32N6xx_HAL_Driver/Src/stm32n6xx_hal_pcd_ex.c **** 
  85:STM32Cube_FW_N6/Drivers/STM32N6xx_HAL_Driver/Src/stm32n6xx_hal_pcd_ex.c ****   Tx_Offset = hpcd->Instance->GRXFSIZ;
  51              		.loc 1 85 19
  52 0010 7B68     		ldr	r3, [r7, #4]
  53 0012 1B68     		ldr	r3, [r3]
  54              		.loc 1 85 13
  55 0014 5B6A     		ldr	r3, [r3, #36]
  56 0016 BB60     		str	r3, [r7, #8]
  86:STM32Cube_FW_N6/Drivers/STM32N6xx_HAL_Driver/Src/stm32n6xx_hal_pcd_ex.c **** 
  87:STM32Cube_FW_N6/Drivers/STM32N6xx_HAL_Driver/Src/stm32n6xx_hal_pcd_ex.c ****   if (fifo == 0U)
  57              		.loc 1 87 6
  58 0018 FB78     		ldrb	r3, [r7, #3]	@ zero_extendqisi2
  59 001a 002B     		cmp	r3, #0
  60 001c 07D1     		bne	.L2
  88:STM32Cube_FW_N6/Drivers/STM32N6xx_HAL_Driver/Src/stm32n6xx_hal_pcd_ex.c ****   {
  89:STM32Cube_FW_N6/Drivers/STM32N6xx_HAL_Driver/Src/stm32n6xx_hal_pcd_ex.c ****     hpcd->Instance->DIEPTXF0_HNPTXFSIZ = ((uint32_t)size << 16) | Tx_Offset;
  61              		.loc 1 89 43
  62 001e 3B88     		ldrh	r3, [r7]
  63              		.loc 1 89 58
  64 0020 1904     		lsls	r1, r3, #16
  65              		.loc 1 89 9
  66 0022 7B68     		ldr	r3, [r7, #4]
  67 0024 1B68     		ldr	r3, [r3]
  68              		.loc 1 89 65
  69 0026 BA68     		ldr	r2, [r7, #8]
  70 0028 0A43     		orrs	r2, r2, r1
  71              		.loc 1 89 40
  72 002a 9A62     		str	r2, [r3, #40]
  73 002c 28E0     		b	.L3
  74              	.L2:
  90:STM32Cube_FW_N6/Drivers/STM32N6xx_HAL_Driver/Src/stm32n6xx_hal_pcd_ex.c ****   }
  91:STM32Cube_FW_N6/Drivers/STM32N6xx_HAL_Driver/Src/stm32n6xx_hal_pcd_ex.c ****   else
  92:STM32Cube_FW_N6/Drivers/STM32N6xx_HAL_Driver/Src/stm32n6xx_hal_pcd_ex.c ****   {
  93:STM32Cube_FW_N6/Drivers/STM32N6xx_HAL_Driver/Src/stm32n6xx_hal_pcd_ex.c ****     Tx_Offset += (hpcd->Instance->DIEPTXF0_HNPTXFSIZ) >> 16;
  75              		.loc 1 93 23
  76 002e 7B68     		ldr	r3, [r7, #4]
  77 0030 1B68     		ldr	r3, [r3]
  78              		.loc 1 93 33
  79 0032 9B6A     		ldr	r3, [r3, #40]
ARM GAS  /tmp/ccC3CVtV.s 			page 4


  80              		.loc 1 93 55
  81 0034 1B0C     		lsrs	r3, r3, #16
  82              		.loc 1 93 15
  83 0036 BA68     		ldr	r2, [r7, #8]
  84 0038 1344     		add	r3, r3, r2
  85 003a BB60     		str	r3, [r7, #8]
  94:STM32Cube_FW_N6/Drivers/STM32N6xx_HAL_Driver/Src/stm32n6xx_hal_pcd_ex.c ****     for (i = 0U; i < (fifo - 1U); i++)
  86              		.loc 1 94 12
  87 003c 0023     		movs	r3, #0
  88 003e FB73     		strb	r3, [r7, #15]
  89              		.loc 1 94 5
  90 0040 0DE0     		b	.L4
  91              	.L5:
  95:STM32Cube_FW_N6/Drivers/STM32N6xx_HAL_Driver/Src/stm32n6xx_hal_pcd_ex.c ****     {
  96:STM32Cube_FW_N6/Drivers/STM32N6xx_HAL_Driver/Src/stm32n6xx_hal_pcd_ex.c ****       Tx_Offset += (hpcd->Instance->DIEPTXF[i] >> 16);
  92              		.loc 1 96 25
  93 0042 7B68     		ldr	r3, [r7, #4]
  94 0044 1A68     		ldr	r2, [r3]
  95              		.loc 1 96 44
  96 0046 FB7B     		ldrb	r3, [r7, #15]	@ zero_extendqisi2
  97 0048 4033     		adds	r3, r3, #64
  98 004a 9B00     		lsls	r3, r3, #2
  99 004c 1344     		add	r3, r3, r2
 100 004e 5B68     		ldr	r3, [r3, #4]
 101              		.loc 1 96 48
 102 0050 1B0C     		lsrs	r3, r3, #16
 103              		.loc 1 96 17
 104 0052 BA68     		ldr	r2, [r7, #8]
 105 0054 1344     		add	r3, r3, r2
 106 0056 BB60     		str	r3, [r7, #8]
  94:STM32Cube_FW_N6/Drivers/STM32N6xx_HAL_Driver/Src/stm32n6xx_hal_pcd_ex.c ****     for (i = 0U; i < (fifo - 1U); i++)
 107              		.loc 1 94 36 discriminator 3
 108 0058 FB7B     		ldrb	r3, [r7, #15]	@ zero_extendqisi2
 109 005a 0133     		adds	r3, r3, #1
 110 005c FB73     		strb	r3, [r7, #15]
 111              	.L4:
  94:STM32Cube_FW_N6/Drivers/STM32N6xx_HAL_Driver/Src/stm32n6xx_hal_pcd_ex.c ****     for (i = 0U; i < (fifo - 1U); i++)
 112              		.loc 1 94 20 discriminator 1
 113 005e FA7B     		ldrb	r2, [r7, #15]	@ zero_extendqisi2
  94:STM32Cube_FW_N6/Drivers/STM32N6xx_HAL_Driver/Src/stm32n6xx_hal_pcd_ex.c ****     for (i = 0U; i < (fifo - 1U); i++)
 114              		.loc 1 94 28 discriminator 1
 115 0060 FB78     		ldrb	r3, [r7, #3]	@ zero_extendqisi2
 116 0062 013B     		subs	r3, r3, #1
  94:STM32Cube_FW_N6/Drivers/STM32N6xx_HAL_Driver/Src/stm32n6xx_hal_pcd_ex.c ****     for (i = 0U; i < (fifo - 1U); i++)
 117              		.loc 1 94 20 discriminator 1
 118 0064 9A42     		cmp	r2, r3
 119 0066 ECD3     		bcc	.L5
  97:STM32Cube_FW_N6/Drivers/STM32N6xx_HAL_Driver/Src/stm32n6xx_hal_pcd_ex.c ****     }
  98:STM32Cube_FW_N6/Drivers/STM32N6xx_HAL_Driver/Src/stm32n6xx_hal_pcd_ex.c **** 
  99:STM32Cube_FW_N6/Drivers/STM32N6xx_HAL_Driver/Src/stm32n6xx_hal_pcd_ex.c ****     /* Multiply Tx_Size by 2 to get higher performance */
 100:STM32Cube_FW_N6/Drivers/STM32N6xx_HAL_Driver/Src/stm32n6xx_hal_pcd_ex.c ****     hpcd->Instance->DIEPTXF[fifo - 1U] = ((uint32_t)size << 16) | Tx_Offset;
 120              		.loc 1 100 43
 121 0068 3B88     		ldrh	r3, [r7]
 122              		.loc 1 100 58
 123 006a 1804     		lsls	r0, r3, #16
 124              		.loc 1 100 9
 125 006c 7B68     		ldr	r3, [r7, #4]
ARM GAS  /tmp/ccC3CVtV.s 			page 5


 126 006e 1968     		ldr	r1, [r3]
 127              		.loc 1 100 34
 128 0070 FB78     		ldrb	r3, [r7, #3]	@ zero_extendqisi2
 129 0072 013B     		subs	r3, r3, #1
 130              		.loc 1 100 65
 131 0074 BA68     		ldr	r2, [r7, #8]
 132 0076 0243     		orrs	r2, r2, r0
 133              		.loc 1 100 40
 134 0078 4033     		adds	r3, r3, #64
 135 007a 9B00     		lsls	r3, r3, #2
 136 007c 0B44     		add	r3, r3, r1
 137 007e 5A60     		str	r2, [r3, #4]
 138              	.L3:
 101:STM32Cube_FW_N6/Drivers/STM32N6xx_HAL_Driver/Src/stm32n6xx_hal_pcd_ex.c ****   }
 102:STM32Cube_FW_N6/Drivers/STM32N6xx_HAL_Driver/Src/stm32n6xx_hal_pcd_ex.c **** 
 103:STM32Cube_FW_N6/Drivers/STM32N6xx_HAL_Driver/Src/stm32n6xx_hal_pcd_ex.c ****   return HAL_OK;
 139              		.loc 1 103 10
 140 0080 0023     		movs	r3, #0
 104:STM32Cube_FW_N6/Drivers/STM32N6xx_HAL_Driver/Src/stm32n6xx_hal_pcd_ex.c **** }
 141              		.loc 1 104 1
 142 0082 1846     		mov	r0, r3
 143 0084 1437     		adds	r7, r7, #20
 144              		.cfi_def_cfa_offset 4
 145 0086 BD46     		mov	sp, r7
 146              		.cfi_def_cfa_register 13
 147              		@ sp needed
 148 0088 5DF8047B 		ldr	r7, [sp], #4
 149              		.cfi_restore 7
 150              		.cfi_def_cfa_offset 0
 151 008c 7047     		bx	lr
 152              		.cfi_endproc
 153              	.LFE835:
 155              		.section	.text.HAL_PCDEx_SetRxFiFo,"ax",%progbits
 156              		.align	1
 157              		.global	HAL_PCDEx_SetRxFiFo
 158              		.syntax unified
 159              		.thumb
 160              		.thumb_func
 162              	HAL_PCDEx_SetRxFiFo:
 163              	.LFB836:
 105:STM32Cube_FW_N6/Drivers/STM32N6xx_HAL_Driver/Src/stm32n6xx_hal_pcd_ex.c **** 
 106:STM32Cube_FW_N6/Drivers/STM32N6xx_HAL_Driver/Src/stm32n6xx_hal_pcd_ex.c **** /**
 107:STM32Cube_FW_N6/Drivers/STM32N6xx_HAL_Driver/Src/stm32n6xx_hal_pcd_ex.c ****   * @brief  Set Rx FIFO
 108:STM32Cube_FW_N6/Drivers/STM32N6xx_HAL_Driver/Src/stm32n6xx_hal_pcd_ex.c ****   * @param  hpcd PCD handle
 109:STM32Cube_FW_N6/Drivers/STM32N6xx_HAL_Driver/Src/stm32n6xx_hal_pcd_ex.c ****   * @param  size Size of Rx fifo
 110:STM32Cube_FW_N6/Drivers/STM32N6xx_HAL_Driver/Src/stm32n6xx_hal_pcd_ex.c ****   * @retval HAL status
 111:STM32Cube_FW_N6/Drivers/STM32N6xx_HAL_Driver/Src/stm32n6xx_hal_pcd_ex.c ****   */
 112:STM32Cube_FW_N6/Drivers/STM32N6xx_HAL_Driver/Src/stm32n6xx_hal_pcd_ex.c **** HAL_StatusTypeDef HAL_PCDEx_SetRxFiFo(PCD_HandleTypeDef *hpcd, uint16_t size)
 113:STM32Cube_FW_N6/Drivers/STM32N6xx_HAL_Driver/Src/stm32n6xx_hal_pcd_ex.c **** {
 164              		.loc 1 113 1
 165              		.cfi_startproc
 166              		@ args = 0, pretend = 0, frame = 8
 167              		@ frame_needed = 1, uses_anonymous_args = 0
 168              		@ link register save eliminated.
 169 0000 80B4     		push	{r7}
 170              		.cfi_def_cfa_offset 4
 171              		.cfi_offset 7, -4
ARM GAS  /tmp/ccC3CVtV.s 			page 6


 172 0002 83B0     		sub	sp, sp, #12
 173              		.cfi_def_cfa_offset 16
 174 0004 00AF     		add	r7, sp, #0
 175              		.cfi_def_cfa_register 7
 176 0006 7860     		str	r0, [r7, #4]
 177 0008 0B46     		mov	r3, r1
 178 000a 7B80     		strh	r3, [r7, #2]	@ movhi
 114:STM32Cube_FW_N6/Drivers/STM32N6xx_HAL_Driver/Src/stm32n6xx_hal_pcd_ex.c ****   hpcd->Instance->GRXFSIZ = size;
 179              		.loc 1 114 7
 180 000c 7B68     		ldr	r3, [r7, #4]
 181 000e 1B68     		ldr	r3, [r3]
 182              		.loc 1 114 27
 183 0010 7A88     		ldrh	r2, [r7, #2]
 184 0012 5A62     		str	r2, [r3, #36]
 115:STM32Cube_FW_N6/Drivers/STM32N6xx_HAL_Driver/Src/stm32n6xx_hal_pcd_ex.c **** 
 116:STM32Cube_FW_N6/Drivers/STM32N6xx_HAL_Driver/Src/stm32n6xx_hal_pcd_ex.c ****   return HAL_OK;
 185              		.loc 1 116 10
 186 0014 0023     		movs	r3, #0
 117:STM32Cube_FW_N6/Drivers/STM32N6xx_HAL_Driver/Src/stm32n6xx_hal_pcd_ex.c **** }
 187              		.loc 1 117 1
 188 0016 1846     		mov	r0, r3
 189 0018 0C37     		adds	r7, r7, #12
 190              		.cfi_def_cfa_offset 4
 191 001a BD46     		mov	sp, r7
 192              		.cfi_def_cfa_register 13
 193              		@ sp needed
 194 001c 5DF8047B 		ldr	r7, [sp], #4
 195              		.cfi_restore 7
 196              		.cfi_def_cfa_offset 0
 197 0020 7047     		bx	lr
 198              		.cfi_endproc
 199              	.LFE836:
 201              		.section	.text.HAL_PCDEx_ActivateLPM,"ax",%progbits
 202              		.align	1
 203              		.global	HAL_PCDEx_ActivateLPM
 204              		.syntax unified
 205              		.thumb
 206              		.thumb_func
 208              	HAL_PCDEx_ActivateLPM:
 209              	.LFB837:
 118:STM32Cube_FW_N6/Drivers/STM32N6xx_HAL_Driver/Src/stm32n6xx_hal_pcd_ex.c **** 
 119:STM32Cube_FW_N6/Drivers/STM32N6xx_HAL_Driver/Src/stm32n6xx_hal_pcd_ex.c **** /**
 120:STM32Cube_FW_N6/Drivers/STM32N6xx_HAL_Driver/Src/stm32n6xx_hal_pcd_ex.c ****   * @brief  Activate LPM feature.
 121:STM32Cube_FW_N6/Drivers/STM32N6xx_HAL_Driver/Src/stm32n6xx_hal_pcd_ex.c ****   * @param  hpcd PCD handle
 122:STM32Cube_FW_N6/Drivers/STM32N6xx_HAL_Driver/Src/stm32n6xx_hal_pcd_ex.c ****   * @retval HAL status
 123:STM32Cube_FW_N6/Drivers/STM32N6xx_HAL_Driver/Src/stm32n6xx_hal_pcd_ex.c ****   */
 124:STM32Cube_FW_N6/Drivers/STM32N6xx_HAL_Driver/Src/stm32n6xx_hal_pcd_ex.c **** HAL_StatusTypeDef HAL_PCDEx_ActivateLPM(PCD_HandleTypeDef *hpcd)
 125:STM32Cube_FW_N6/Drivers/STM32N6xx_HAL_Driver/Src/stm32n6xx_hal_pcd_ex.c **** {
 210              		.loc 1 125 1
 211              		.cfi_startproc
 212              		@ args = 0, pretend = 0, frame = 16
 213              		@ frame_needed = 1, uses_anonymous_args = 0
 214              		@ link register save eliminated.
 215 0000 80B4     		push	{r7}
 216              		.cfi_def_cfa_offset 4
 217              		.cfi_offset 7, -4
 218 0002 85B0     		sub	sp, sp, #20
ARM GAS  /tmp/ccC3CVtV.s 			page 7


 219              		.cfi_def_cfa_offset 24
 220 0004 00AF     		add	r7, sp, #0
 221              		.cfi_def_cfa_register 7
 222 0006 7860     		str	r0, [r7, #4]
 126:STM32Cube_FW_N6/Drivers/STM32N6xx_HAL_Driver/Src/stm32n6xx_hal_pcd_ex.c ****   USB_OTG_GlobalTypeDef *USBx = hpcd->Instance;
 223              		.loc 1 126 26
 224 0008 7B68     		ldr	r3, [r7, #4]
 225 000a 1B68     		ldr	r3, [r3]
 226 000c FB60     		str	r3, [r7, #12]
 127:STM32Cube_FW_N6/Drivers/STM32N6xx_HAL_Driver/Src/stm32n6xx_hal_pcd_ex.c **** 
 128:STM32Cube_FW_N6/Drivers/STM32N6xx_HAL_Driver/Src/stm32n6xx_hal_pcd_ex.c ****   hpcd->lpm_active = 1U;
 227              		.loc 1 128 20
 228 000e 7B68     		ldr	r3, [r7, #4]
 229 0010 0122     		movs	r2, #1
 230 0012 C3F8D824 		str	r2, [r3, #1240]
 129:STM32Cube_FW_N6/Drivers/STM32N6xx_HAL_Driver/Src/stm32n6xx_hal_pcd_ex.c ****   hpcd->LPM_State = LPM_L0;
 231              		.loc 1 129 19
 232 0016 7B68     		ldr	r3, [r7, #4]
 233 0018 0022     		movs	r2, #0
 234 001a 83F8CC24 		strb	r2, [r3, #1228]
 130:STM32Cube_FW_N6/Drivers/STM32N6xx_HAL_Driver/Src/stm32n6xx_hal_pcd_ex.c ****   USBx->GINTMSK |= USB_OTG_GINTMSK_LPMINTM;
 235              		.loc 1 130 7
 236 001e FB68     		ldr	r3, [r7, #12]
 237 0020 9B69     		ldr	r3, [r3, #24]
 238              		.loc 1 130 17
 239 0022 43F00062 		orr	r2, r3, #134217728
 240 0026 FB68     		ldr	r3, [r7, #12]
 241 0028 9A61     		str	r2, [r3, #24]
 131:STM32Cube_FW_N6/Drivers/STM32N6xx_HAL_Driver/Src/stm32n6xx_hal_pcd_ex.c ****   USBx->GLPMCFG |= (USB_OTG_GLPMCFG_LPMEN | USB_OTG_GLPMCFG_LPMACK | USB_OTG_GLPMCFG_ENBESL);
 242              		.loc 1 131 7
 243 002a FB68     		ldr	r3, [r7, #12]
 244 002c 5B6D     		ldr	r3, [r3, #84]
 245              		.loc 1 131 17
 246 002e 43F08053 		orr	r3, r3, #268435456
 247 0032 43F00303 		orr	r3, r3, #3
 248 0036 FA68     		ldr	r2, [r7, #12]
 249 0038 5365     		str	r3, [r2, #84]
 132:STM32Cube_FW_N6/Drivers/STM32N6xx_HAL_Driver/Src/stm32n6xx_hal_pcd_ex.c **** 
 133:STM32Cube_FW_N6/Drivers/STM32N6xx_HAL_Driver/Src/stm32n6xx_hal_pcd_ex.c ****   return HAL_OK;
 250              		.loc 1 133 10
 251 003a 0023     		movs	r3, #0
 134:STM32Cube_FW_N6/Drivers/STM32N6xx_HAL_Driver/Src/stm32n6xx_hal_pcd_ex.c **** }
 252              		.loc 1 134 1
 253 003c 1846     		mov	r0, r3
 254 003e 1437     		adds	r7, r7, #20
 255              		.cfi_def_cfa_offset 4
 256 0040 BD46     		mov	sp, r7
 257              		.cfi_def_cfa_register 13
 258              		@ sp needed
 259 0042 5DF8047B 		ldr	r7, [sp], #4
 260              		.cfi_restore 7
 261              		.cfi_def_cfa_offset 0
 262 0046 7047     		bx	lr
 263              		.cfi_endproc
 264              	.LFE837:
 266              		.section	.text.HAL_PCDEx_DeActivateLPM,"ax",%progbits
 267              		.align	1
ARM GAS  /tmp/ccC3CVtV.s 			page 8


 268              		.global	HAL_PCDEx_DeActivateLPM
 269              		.syntax unified
 270              		.thumb
 271              		.thumb_func
 273              	HAL_PCDEx_DeActivateLPM:
 274              	.LFB838:
 135:STM32Cube_FW_N6/Drivers/STM32N6xx_HAL_Driver/Src/stm32n6xx_hal_pcd_ex.c **** 
 136:STM32Cube_FW_N6/Drivers/STM32N6xx_HAL_Driver/Src/stm32n6xx_hal_pcd_ex.c **** /**
 137:STM32Cube_FW_N6/Drivers/STM32N6xx_HAL_Driver/Src/stm32n6xx_hal_pcd_ex.c ****   * @brief  Deactivate LPM feature.
 138:STM32Cube_FW_N6/Drivers/STM32N6xx_HAL_Driver/Src/stm32n6xx_hal_pcd_ex.c ****   * @param  hpcd PCD handle
 139:STM32Cube_FW_N6/Drivers/STM32N6xx_HAL_Driver/Src/stm32n6xx_hal_pcd_ex.c ****   * @retval HAL status
 140:STM32Cube_FW_N6/Drivers/STM32N6xx_HAL_Driver/Src/stm32n6xx_hal_pcd_ex.c ****   */
 141:STM32Cube_FW_N6/Drivers/STM32N6xx_HAL_Driver/Src/stm32n6xx_hal_pcd_ex.c **** HAL_StatusTypeDef HAL_PCDEx_DeActivateLPM(PCD_HandleTypeDef *hpcd)
 142:STM32Cube_FW_N6/Drivers/STM32N6xx_HAL_Driver/Src/stm32n6xx_hal_pcd_ex.c **** {
 275              		.loc 1 142 1
 276              		.cfi_startproc
 277              		@ args = 0, pretend = 0, frame = 16
 278              		@ frame_needed = 1, uses_anonymous_args = 0
 279              		@ link register save eliminated.
 280 0000 80B4     		push	{r7}
 281              		.cfi_def_cfa_offset 4
 282              		.cfi_offset 7, -4
 283 0002 85B0     		sub	sp, sp, #20
 284              		.cfi_def_cfa_offset 24
 285 0004 00AF     		add	r7, sp, #0
 286              		.cfi_def_cfa_register 7
 287 0006 7860     		str	r0, [r7, #4]
 143:STM32Cube_FW_N6/Drivers/STM32N6xx_HAL_Driver/Src/stm32n6xx_hal_pcd_ex.c ****   USB_OTG_GlobalTypeDef *USBx = hpcd->Instance;
 288              		.loc 1 143 26
 289 0008 7B68     		ldr	r3, [r7, #4]
 290 000a 1B68     		ldr	r3, [r3]
 291 000c FB60     		str	r3, [r7, #12]
 144:STM32Cube_FW_N6/Drivers/STM32N6xx_HAL_Driver/Src/stm32n6xx_hal_pcd_ex.c **** 
 145:STM32Cube_FW_N6/Drivers/STM32N6xx_HAL_Driver/Src/stm32n6xx_hal_pcd_ex.c ****   hpcd->lpm_active = 0U;
 292              		.loc 1 145 20
 293 000e 7B68     		ldr	r3, [r7, #4]
 294 0010 0022     		movs	r2, #0
 295 0012 C3F8D824 		str	r2, [r3, #1240]
 146:STM32Cube_FW_N6/Drivers/STM32N6xx_HAL_Driver/Src/stm32n6xx_hal_pcd_ex.c ****   USBx->GINTMSK &= ~USB_OTG_GINTMSK_LPMINTM;
 296              		.loc 1 146 7
 297 0016 FB68     		ldr	r3, [r7, #12]
 298 0018 9B69     		ldr	r3, [r3, #24]
 299              		.loc 1 146 17
 300 001a 23F00062 		bic	r2, r3, #134217728
 301 001e FB68     		ldr	r3, [r7, #12]
 302 0020 9A61     		str	r2, [r3, #24]
 147:STM32Cube_FW_N6/Drivers/STM32N6xx_HAL_Driver/Src/stm32n6xx_hal_pcd_ex.c ****   USBx->GLPMCFG &= ~(USB_OTG_GLPMCFG_LPMEN | USB_OTG_GLPMCFG_LPMACK | USB_OTG_GLPMCFG_ENBESL);
 303              		.loc 1 147 7
 304 0022 FB68     		ldr	r3, [r7, #12]
 305 0024 5B6D     		ldr	r3, [r3, #84]
 306              		.loc 1 147 17
 307 0026 23F08053 		bic	r3, r3, #268435456
 308 002a 23F00303 		bic	r3, r3, #3
 309 002e FA68     		ldr	r2, [r7, #12]
 310 0030 5365     		str	r3, [r2, #84]
 148:STM32Cube_FW_N6/Drivers/STM32N6xx_HAL_Driver/Src/stm32n6xx_hal_pcd_ex.c **** 
 149:STM32Cube_FW_N6/Drivers/STM32N6xx_HAL_Driver/Src/stm32n6xx_hal_pcd_ex.c ****   return HAL_OK;
ARM GAS  /tmp/ccC3CVtV.s 			page 9


 311              		.loc 1 149 10
 312 0032 0023     		movs	r3, #0
 150:STM32Cube_FW_N6/Drivers/STM32N6xx_HAL_Driver/Src/stm32n6xx_hal_pcd_ex.c **** }
 313              		.loc 1 150 1
 314 0034 1846     		mov	r0, r3
 315 0036 1437     		adds	r7, r7, #20
 316              		.cfi_def_cfa_offset 4
 317 0038 BD46     		mov	sp, r7
 318              		.cfi_def_cfa_register 13
 319              		@ sp needed
 320 003a 5DF8047B 		ldr	r7, [sp], #4
 321              		.cfi_restore 7
 322              		.cfi_def_cfa_offset 0
 323 003e 7047     		bx	lr
 324              		.cfi_endproc
 325              	.LFE838:
 327              		.section	.text.HAL_PCDEx_BCD_VBUSDetect,"ax",%progbits
 328              		.align	1
 329              		.global	HAL_PCDEx_BCD_VBUSDetect
 330              		.syntax unified
 331              		.thumb
 332              		.thumb_func
 334              	HAL_PCDEx_BCD_VBUSDetect:
 335              	.LFB839:
 151:STM32Cube_FW_N6/Drivers/STM32N6xx_HAL_Driver/Src/stm32n6xx_hal_pcd_ex.c **** 
 152:STM32Cube_FW_N6/Drivers/STM32N6xx_HAL_Driver/Src/stm32n6xx_hal_pcd_ex.c **** 
 153:STM32Cube_FW_N6/Drivers/STM32N6xx_HAL_Driver/Src/stm32n6xx_hal_pcd_ex.c **** /**
 154:STM32Cube_FW_N6/Drivers/STM32N6xx_HAL_Driver/Src/stm32n6xx_hal_pcd_ex.c ****   * @brief  Handle BatteryCharging Process.
 155:STM32Cube_FW_N6/Drivers/STM32N6xx_HAL_Driver/Src/stm32n6xx_hal_pcd_ex.c ****   * @param  hpcd PCD handle
 156:STM32Cube_FW_N6/Drivers/STM32N6xx_HAL_Driver/Src/stm32n6xx_hal_pcd_ex.c ****   * @retval HAL status
 157:STM32Cube_FW_N6/Drivers/STM32N6xx_HAL_Driver/Src/stm32n6xx_hal_pcd_ex.c ****   */
 158:STM32Cube_FW_N6/Drivers/STM32N6xx_HAL_Driver/Src/stm32n6xx_hal_pcd_ex.c **** void HAL_PCDEx_BCD_VBUSDetect(PCD_HandleTypeDef *hpcd)
 159:STM32Cube_FW_N6/Drivers/STM32N6xx_HAL_Driver/Src/stm32n6xx_hal_pcd_ex.c **** {
 336              		.loc 1 159 1
 337              		.cfi_startproc
 338              		@ args = 0, pretend = 0, frame = 16
 339              		@ frame_needed = 1, uses_anonymous_args = 0
 340 0000 80B5     		push	{r7, lr}
 341              		.cfi_def_cfa_offset 8
 342              		.cfi_offset 7, -8
 343              		.cfi_offset 14, -4
 344 0002 84B0     		sub	sp, sp, #16
 345              		.cfi_def_cfa_offset 24
 346 0004 00AF     		add	r7, sp, #0
 347              		.cfi_def_cfa_register 7
 348 0006 7860     		str	r0, [r7, #4]
 160:STM32Cube_FW_N6/Drivers/STM32N6xx_HAL_Driver/Src/stm32n6xx_hal_pcd_ex.c ****   USB_OTG_GlobalTypeDef *USBx = hpcd->Instance;
 349              		.loc 1 160 26
 350 0008 7B68     		ldr	r3, [r7, #4]
 351 000a 1B68     		ldr	r3, [r3]
 352 000c FB60     		str	r3, [r7, #12]
 161:STM32Cube_FW_N6/Drivers/STM32N6xx_HAL_Driver/Src/stm32n6xx_hal_pcd_ex.c ****   uint32_t tickstart = HAL_GetTick();
 353              		.loc 1 161 24
 354 000e FFF7FEFF 		bl	HAL_GetTick
 355 0012 B860     		str	r0, [r7, #8]
 162:STM32Cube_FW_N6/Drivers/STM32N6xx_HAL_Driver/Src/stm32n6xx_hal_pcd_ex.c **** 
 163:STM32Cube_FW_N6/Drivers/STM32N6xx_HAL_Driver/Src/stm32n6xx_hal_pcd_ex.c ****   /* Enable DCD : Data Contact Detect */
ARM GAS  /tmp/ccC3CVtV.s 			page 10


 164:STM32Cube_FW_N6/Drivers/STM32N6xx_HAL_Driver/Src/stm32n6xx_hal_pcd_ex.c ****   USBx->GCCFG |= USB_OTG_GCCFG_DCDETEN;
 356              		.loc 1 164 7
 357 0014 FB68     		ldr	r3, [r7, #12]
 358 0016 9B6B     		ldr	r3, [r3, #56]
 359              		.loc 1 164 15
 360 0018 43F40022 		orr	r2, r3, #524288
 361 001c FB68     		ldr	r3, [r7, #12]
 362 001e 9A63     		str	r2, [r3, #56]
 165:STM32Cube_FW_N6/Drivers/STM32N6xx_HAL_Driver/Src/stm32n6xx_hal_pcd_ex.c **** 
 166:STM32Cube_FW_N6/Drivers/STM32N6xx_HAL_Driver/Src/stm32n6xx_hal_pcd_ex.c ****   /* Wait for Min DCD Timeout */
 167:STM32Cube_FW_N6/Drivers/STM32N6xx_HAL_Driver/Src/stm32n6xx_hal_pcd_ex.c ****   HAL_Delay(300U);
 363              		.loc 1 167 3
 364 0020 4FF49670 		mov	r0, #300
 365 0024 FFF7FEFF 		bl	HAL_Delay
 168:STM32Cube_FW_N6/Drivers/STM32N6xx_HAL_Driver/Src/stm32n6xx_hal_pcd_ex.c **** 
 169:STM32Cube_FW_N6/Drivers/STM32N6xx_HAL_Driver/Src/stm32n6xx_hal_pcd_ex.c **** 
 170:STM32Cube_FW_N6/Drivers/STM32N6xx_HAL_Driver/Src/stm32n6xx_hal_pcd_ex.c ****   /* Primary detection: checks if connected to Standard Downstream Port
 171:STM32Cube_FW_N6/Drivers/STM32N6xx_HAL_Driver/Src/stm32n6xx_hal_pcd_ex.c ****   (without charging capability) */
 172:STM32Cube_FW_N6/Drivers/STM32N6xx_HAL_Driver/Src/stm32n6xx_hal_pcd_ex.c ****   USBx->GCCFG &= ~USB_OTG_GCCFG_DCDETEN;
 366              		.loc 1 172 7
 367 0028 FB68     		ldr	r3, [r7, #12]
 368 002a 9B6B     		ldr	r3, [r3, #56]
 369              		.loc 1 172 15
 370 002c 23F40022 		bic	r2, r3, #524288
 371 0030 FB68     		ldr	r3, [r7, #12]
 372 0032 9A63     		str	r2, [r3, #56]
 173:STM32Cube_FW_N6/Drivers/STM32N6xx_HAL_Driver/Src/stm32n6xx_hal_pcd_ex.c ****   HAL_Delay(50U);
 373              		.loc 1 173 3
 374 0034 3220     		movs	r0, #50
 375 0036 FFF7FEFF 		bl	HAL_Delay
 174:STM32Cube_FW_N6/Drivers/STM32N6xx_HAL_Driver/Src/stm32n6xx_hal_pcd_ex.c ****   USBx->GCCFG |= USB_OTG_GCCFG_PDETEN;
 376              		.loc 1 174 7
 377 003a FB68     		ldr	r3, [r7, #12]
 378 003c 9B6B     		ldr	r3, [r3, #56]
 379              		.loc 1 174 15
 380 003e 43F48012 		orr	r2, r3, #1048576
 381 0042 FB68     		ldr	r3, [r7, #12]
 382 0044 9A63     		str	r2, [r3, #56]
 175:STM32Cube_FW_N6/Drivers/STM32N6xx_HAL_Driver/Src/stm32n6xx_hal_pcd_ex.c ****   HAL_Delay(50U);
 383              		.loc 1 175 3
 384 0046 3220     		movs	r0, #50
 385 0048 FFF7FEFF 		bl	HAL_Delay
 176:STM32Cube_FW_N6/Drivers/STM32N6xx_HAL_Driver/Src/stm32n6xx_hal_pcd_ex.c **** 
 177:STM32Cube_FW_N6/Drivers/STM32N6xx_HAL_Driver/Src/stm32n6xx_hal_pcd_ex.c ****   if ((USBx->GCCFG & USB_OTG_GCCFG_CHGDET) == 0U)
 386              		.loc 1 177 12
 387 004c FB68     		ldr	r3, [r7, #12]
 388 004e 9B6B     		ldr	r3, [r3, #56]
 389              		.loc 1 177 20
 390 0050 03F00103 		and	r3, r3, #1
 391              		.loc 1 177 6
 392 0054 002B     		cmp	r3, #0
 393 0056 04D1     		bne	.L14
 178:STM32Cube_FW_N6/Drivers/STM32N6xx_HAL_Driver/Src/stm32n6xx_hal_pcd_ex.c ****   {
 179:STM32Cube_FW_N6/Drivers/STM32N6xx_HAL_Driver/Src/stm32n6xx_hal_pcd_ex.c ****     /* Case of Standard Downstream Port */
 180:STM32Cube_FW_N6/Drivers/STM32N6xx_HAL_Driver/Src/stm32n6xx_hal_pcd_ex.c **** #if (USE_HAL_PCD_REGISTER_CALLBACKS == 1U)
 181:STM32Cube_FW_N6/Drivers/STM32N6xx_HAL_Driver/Src/stm32n6xx_hal_pcd_ex.c ****     hpcd->BCDCallback(hpcd, PCD_BCD_STD_DOWNSTREAM_PORT);
 182:STM32Cube_FW_N6/Drivers/STM32N6xx_HAL_Driver/Src/stm32n6xx_hal_pcd_ex.c **** #else
ARM GAS  /tmp/ccC3CVtV.s 			page 11


 183:STM32Cube_FW_N6/Drivers/STM32N6xx_HAL_Driver/Src/stm32n6xx_hal_pcd_ex.c ****     HAL_PCDEx_BCD_Callback(hpcd, PCD_BCD_STD_DOWNSTREAM_PORT);
 394              		.loc 1 183 5
 395 0058 FD21     		movs	r1, #253
 396 005a 7868     		ldr	r0, [r7, #4]
 397 005c FFF7FEFF 		bl	HAL_PCDEx_BCD_Callback
 398 0060 20E0     		b	.L15
 399              	.L14:
 184:STM32Cube_FW_N6/Drivers/STM32N6xx_HAL_Driver/Src/stm32n6xx_hal_pcd_ex.c **** #endif /* USE_HAL_PCD_REGISTER_CALLBACKS */
 185:STM32Cube_FW_N6/Drivers/STM32N6xx_HAL_Driver/Src/stm32n6xx_hal_pcd_ex.c ****   }
 186:STM32Cube_FW_N6/Drivers/STM32N6xx_HAL_Driver/Src/stm32n6xx_hal_pcd_ex.c ****   else
 187:STM32Cube_FW_N6/Drivers/STM32N6xx_HAL_Driver/Src/stm32n6xx_hal_pcd_ex.c ****   {
 188:STM32Cube_FW_N6/Drivers/STM32N6xx_HAL_Driver/Src/stm32n6xx_hal_pcd_ex.c ****     /* start secondary detection to check connection to Charging Downstream
 189:STM32Cube_FW_N6/Drivers/STM32N6xx_HAL_Driver/Src/stm32n6xx_hal_pcd_ex.c ****     Port or Dedicated Charging Port */
 190:STM32Cube_FW_N6/Drivers/STM32N6xx_HAL_Driver/Src/stm32n6xx_hal_pcd_ex.c ****     USBx->GCCFG &= ~(USB_OTG_GCCFG_PDETEN);
 400              		.loc 1 190 9
 401 0062 FB68     		ldr	r3, [r7, #12]
 402 0064 9B6B     		ldr	r3, [r3, #56]
 403              		.loc 1 190 17
 404 0066 23F48012 		bic	r2, r3, #1048576
 405 006a FB68     		ldr	r3, [r7, #12]
 406 006c 9A63     		str	r2, [r3, #56]
 191:STM32Cube_FW_N6/Drivers/STM32N6xx_HAL_Driver/Src/stm32n6xx_hal_pcd_ex.c ****     HAL_Delay(50U);
 407              		.loc 1 191 5
 408 006e 3220     		movs	r0, #50
 409 0070 FFF7FEFF 		bl	HAL_Delay
 192:STM32Cube_FW_N6/Drivers/STM32N6xx_HAL_Driver/Src/stm32n6xx_hal_pcd_ex.c ****     USBx->GCCFG |= USB_OTG_GCCFG_SDETEN;
 410              		.loc 1 192 9
 411 0074 FB68     		ldr	r3, [r7, #12]
 412 0076 9B6B     		ldr	r3, [r3, #56]
 413              		.loc 1 192 17
 414 0078 43F48002 		orr	r2, r3, #4194304
 415 007c FB68     		ldr	r3, [r7, #12]
 416 007e 9A63     		str	r2, [r3, #56]
 193:STM32Cube_FW_N6/Drivers/STM32N6xx_HAL_Driver/Src/stm32n6xx_hal_pcd_ex.c ****     HAL_Delay(50U);
 417              		.loc 1 193 5
 418 0080 3220     		movs	r0, #50
 419 0082 FFF7FEFF 		bl	HAL_Delay
 194:STM32Cube_FW_N6/Drivers/STM32N6xx_HAL_Driver/Src/stm32n6xx_hal_pcd_ex.c **** 
 195:STM32Cube_FW_N6/Drivers/STM32N6xx_HAL_Driver/Src/stm32n6xx_hal_pcd_ex.c ****     if ((USBx->GCCFG & USB_OTG_GCCFG_FSVPLUS) == USB_OTG_GCCFG_FSVPLUS)
 420              		.loc 1 195 14
 421 0086 FB68     		ldr	r3, [r7, #12]
 422 0088 9B6B     		ldr	r3, [r3, #56]
 423              		.loc 1 195 22
 424 008a 03F00203 		and	r3, r3, #2
 425              		.loc 1 195 8
 426 008e 022B     		cmp	r3, #2
 427 0090 04D1     		bne	.L16
 196:STM32Cube_FW_N6/Drivers/STM32N6xx_HAL_Driver/Src/stm32n6xx_hal_pcd_ex.c ****     {
 197:STM32Cube_FW_N6/Drivers/STM32N6xx_HAL_Driver/Src/stm32n6xx_hal_pcd_ex.c ****       /* case Dedicated Charging Port  */
 198:STM32Cube_FW_N6/Drivers/STM32N6xx_HAL_Driver/Src/stm32n6xx_hal_pcd_ex.c **** #if (USE_HAL_PCD_REGISTER_CALLBACKS == 1U)
 199:STM32Cube_FW_N6/Drivers/STM32N6xx_HAL_Driver/Src/stm32n6xx_hal_pcd_ex.c ****       hpcd->BCDCallback(hpcd, PCD_BCD_DEDICATED_CHARGING_PORT);
 200:STM32Cube_FW_N6/Drivers/STM32N6xx_HAL_Driver/Src/stm32n6xx_hal_pcd_ex.c **** #else
 201:STM32Cube_FW_N6/Drivers/STM32N6xx_HAL_Driver/Src/stm32n6xx_hal_pcd_ex.c ****       HAL_PCDEx_BCD_Callback(hpcd, PCD_BCD_DEDICATED_CHARGING_PORT);
 428              		.loc 1 201 7
 429 0092 FB21     		movs	r1, #251
 430 0094 7868     		ldr	r0, [r7, #4]
 431 0096 FFF7FEFF 		bl	HAL_PCDEx_BCD_Callback
ARM GAS  /tmp/ccC3CVtV.s 			page 12


 432 009a 03E0     		b	.L15
 433              	.L16:
 202:STM32Cube_FW_N6/Drivers/STM32N6xx_HAL_Driver/Src/stm32n6xx_hal_pcd_ex.c **** #endif /* USE_HAL_PCD_REGISTER_CALLBACKS */
 203:STM32Cube_FW_N6/Drivers/STM32N6xx_HAL_Driver/Src/stm32n6xx_hal_pcd_ex.c ****     }
 204:STM32Cube_FW_N6/Drivers/STM32N6xx_HAL_Driver/Src/stm32n6xx_hal_pcd_ex.c ****     else
 205:STM32Cube_FW_N6/Drivers/STM32N6xx_HAL_Driver/Src/stm32n6xx_hal_pcd_ex.c ****     {
 206:STM32Cube_FW_N6/Drivers/STM32N6xx_HAL_Driver/Src/stm32n6xx_hal_pcd_ex.c ****       /* case Charging Downstream Port */
 207:STM32Cube_FW_N6/Drivers/STM32N6xx_HAL_Driver/Src/stm32n6xx_hal_pcd_ex.c **** #if (USE_HAL_PCD_REGISTER_CALLBACKS == 1U)
 208:STM32Cube_FW_N6/Drivers/STM32N6xx_HAL_Driver/Src/stm32n6xx_hal_pcd_ex.c ****       hpcd->BCDCallback(hpcd, PCD_BCD_CHARGING_DOWNSTREAM_PORT);
 209:STM32Cube_FW_N6/Drivers/STM32N6xx_HAL_Driver/Src/stm32n6xx_hal_pcd_ex.c **** #else
 210:STM32Cube_FW_N6/Drivers/STM32N6xx_HAL_Driver/Src/stm32n6xx_hal_pcd_ex.c ****       HAL_PCDEx_BCD_Callback(hpcd, PCD_BCD_CHARGING_DOWNSTREAM_PORT);
 434              		.loc 1 210 7
 435 009c FC21     		movs	r1, #252
 436 009e 7868     		ldr	r0, [r7, #4]
 437 00a0 FFF7FEFF 		bl	HAL_PCDEx_BCD_Callback
 438              	.L15:
 211:STM32Cube_FW_N6/Drivers/STM32N6xx_HAL_Driver/Src/stm32n6xx_hal_pcd_ex.c **** #endif /* USE_HAL_PCD_REGISTER_CALLBACKS */
 212:STM32Cube_FW_N6/Drivers/STM32N6xx_HAL_Driver/Src/stm32n6xx_hal_pcd_ex.c ****     }
 213:STM32Cube_FW_N6/Drivers/STM32N6xx_HAL_Driver/Src/stm32n6xx_hal_pcd_ex.c ****   }
 214:STM32Cube_FW_N6/Drivers/STM32N6xx_HAL_Driver/Src/stm32n6xx_hal_pcd_ex.c **** 
 215:STM32Cube_FW_N6/Drivers/STM32N6xx_HAL_Driver/Src/stm32n6xx_hal_pcd_ex.c ****   /* Battery Charging capability discovery finished */
 216:STM32Cube_FW_N6/Drivers/STM32N6xx_HAL_Driver/Src/stm32n6xx_hal_pcd_ex.c ****   (void)HAL_PCDEx_DeActivateBCD(hpcd);
 439              		.loc 1 216 9
 440 00a4 7868     		ldr	r0, [r7, #4]
 441 00a6 FFF7FEFF 		bl	HAL_PCDEx_DeActivateBCD
 217:STM32Cube_FW_N6/Drivers/STM32N6xx_HAL_Driver/Src/stm32n6xx_hal_pcd_ex.c **** 
 218:STM32Cube_FW_N6/Drivers/STM32N6xx_HAL_Driver/Src/stm32n6xx_hal_pcd_ex.c ****   /* Check for the Timeout, else start USB Device */
 219:STM32Cube_FW_N6/Drivers/STM32N6xx_HAL_Driver/Src/stm32n6xx_hal_pcd_ex.c ****   if ((HAL_GetTick() - tickstart) > 1000U)
 442              		.loc 1 219 8
 443 00aa FFF7FEFF 		bl	HAL_GetTick
 444 00ae 0246     		mov	r2, r0
 445              		.loc 1 219 22 discriminator 1
 446 00b0 BB68     		ldr	r3, [r7, #8]
 447 00b2 D31A     		subs	r3, r2, r3
 448              		.loc 1 219 6 discriminator 1
 449 00b4 B3F57A7F 		cmp	r3, #1000
 450 00b8 04D9     		bls	.L17
 220:STM32Cube_FW_N6/Drivers/STM32N6xx_HAL_Driver/Src/stm32n6xx_hal_pcd_ex.c ****   {
 221:STM32Cube_FW_N6/Drivers/STM32N6xx_HAL_Driver/Src/stm32n6xx_hal_pcd_ex.c **** #if (USE_HAL_PCD_REGISTER_CALLBACKS == 1U)
 222:STM32Cube_FW_N6/Drivers/STM32N6xx_HAL_Driver/Src/stm32n6xx_hal_pcd_ex.c ****     hpcd->BCDCallback(hpcd, PCD_BCD_ERROR);
 223:STM32Cube_FW_N6/Drivers/STM32N6xx_HAL_Driver/Src/stm32n6xx_hal_pcd_ex.c **** #else
 224:STM32Cube_FW_N6/Drivers/STM32N6xx_HAL_Driver/Src/stm32n6xx_hal_pcd_ex.c ****     HAL_PCDEx_BCD_Callback(hpcd, PCD_BCD_ERROR);
 451              		.loc 1 224 5
 452 00ba FF21     		movs	r1, #255
 453 00bc 7868     		ldr	r0, [r7, #4]
 454 00be FFF7FEFF 		bl	HAL_PCDEx_BCD_Callback
 225:STM32Cube_FW_N6/Drivers/STM32N6xx_HAL_Driver/Src/stm32n6xx_hal_pcd_ex.c **** #endif /* USE_HAL_PCD_REGISTER_CALLBACKS */
 226:STM32Cube_FW_N6/Drivers/STM32N6xx_HAL_Driver/Src/stm32n6xx_hal_pcd_ex.c ****   }
 227:STM32Cube_FW_N6/Drivers/STM32N6xx_HAL_Driver/Src/stm32n6xx_hal_pcd_ex.c ****   else
 228:STM32Cube_FW_N6/Drivers/STM32N6xx_HAL_Driver/Src/stm32n6xx_hal_pcd_ex.c ****   {
 229:STM32Cube_FW_N6/Drivers/STM32N6xx_HAL_Driver/Src/stm32n6xx_hal_pcd_ex.c **** #if (USE_HAL_PCD_REGISTER_CALLBACKS == 1U)
 230:STM32Cube_FW_N6/Drivers/STM32N6xx_HAL_Driver/Src/stm32n6xx_hal_pcd_ex.c ****     hpcd->BCDCallback(hpcd, PCD_BCD_DISCOVERY_COMPLETED);
 231:STM32Cube_FW_N6/Drivers/STM32N6xx_HAL_Driver/Src/stm32n6xx_hal_pcd_ex.c **** #else
 232:STM32Cube_FW_N6/Drivers/STM32N6xx_HAL_Driver/Src/stm32n6xx_hal_pcd_ex.c ****     HAL_PCDEx_BCD_Callback(hpcd, PCD_BCD_DISCOVERY_COMPLETED);
 233:STM32Cube_FW_N6/Drivers/STM32N6xx_HAL_Driver/Src/stm32n6xx_hal_pcd_ex.c **** #endif /* USE_HAL_PCD_REGISTER_CALLBACKS */
 234:STM32Cube_FW_N6/Drivers/STM32N6xx_HAL_Driver/Src/stm32n6xx_hal_pcd_ex.c ****   }
 235:STM32Cube_FW_N6/Drivers/STM32N6xx_HAL_Driver/Src/stm32n6xx_hal_pcd_ex.c **** }
ARM GAS  /tmp/ccC3CVtV.s 			page 13


 455              		.loc 1 235 1
 456 00c2 03E0     		b	.L19
 457              	.L17:
 232:STM32Cube_FW_N6/Drivers/STM32N6xx_HAL_Driver/Src/stm32n6xx_hal_pcd_ex.c **** #endif /* USE_HAL_PCD_REGISTER_CALLBACKS */
 458              		.loc 1 232 5
 459 00c4 0021     		movs	r1, #0
 460 00c6 7868     		ldr	r0, [r7, #4]
 461 00c8 FFF7FEFF 		bl	HAL_PCDEx_BCD_Callback
 462              	.L19:
 463              		.loc 1 235 1
 464 00cc 00BF     		nop
 465 00ce 1037     		adds	r7, r7, #16
 466              		.cfi_def_cfa_offset 8
 467 00d0 BD46     		mov	sp, r7
 468              		.cfi_def_cfa_register 13
 469              		@ sp needed
 470 00d2 80BD     		pop	{r7, pc}
 471              		.cfi_endproc
 472              	.LFE839:
 474              		.section	.text.HAL_PCDEx_ActivateBCD,"ax",%progbits
 475              		.align	1
 476              		.global	HAL_PCDEx_ActivateBCD
 477              		.syntax unified
 478              		.thumb
 479              		.thumb_func
 481              	HAL_PCDEx_ActivateBCD:
 482              	.LFB840:
 236:STM32Cube_FW_N6/Drivers/STM32N6xx_HAL_Driver/Src/stm32n6xx_hal_pcd_ex.c **** 
 237:STM32Cube_FW_N6/Drivers/STM32N6xx_HAL_Driver/Src/stm32n6xx_hal_pcd_ex.c **** /**
 238:STM32Cube_FW_N6/Drivers/STM32N6xx_HAL_Driver/Src/stm32n6xx_hal_pcd_ex.c ****   * @brief  Activate BatteryCharging feature.
 239:STM32Cube_FW_N6/Drivers/STM32N6xx_HAL_Driver/Src/stm32n6xx_hal_pcd_ex.c ****   * @param  hpcd PCD handle
 240:STM32Cube_FW_N6/Drivers/STM32N6xx_HAL_Driver/Src/stm32n6xx_hal_pcd_ex.c ****   * @retval HAL status
 241:STM32Cube_FW_N6/Drivers/STM32N6xx_HAL_Driver/Src/stm32n6xx_hal_pcd_ex.c ****   */
 242:STM32Cube_FW_N6/Drivers/STM32N6xx_HAL_Driver/Src/stm32n6xx_hal_pcd_ex.c **** HAL_StatusTypeDef HAL_PCDEx_ActivateBCD(PCD_HandleTypeDef *hpcd)
 243:STM32Cube_FW_N6/Drivers/STM32N6xx_HAL_Driver/Src/stm32n6xx_hal_pcd_ex.c **** {
 483              		.loc 1 243 1
 484              		.cfi_startproc
 485              		@ args = 0, pretend = 0, frame = 16
 486              		@ frame_needed = 1, uses_anonymous_args = 0
 487              		@ link register save eliminated.
 488 0000 80B4     		push	{r7}
 489              		.cfi_def_cfa_offset 4
 490              		.cfi_offset 7, -4
 491 0002 85B0     		sub	sp, sp, #20
 492              		.cfi_def_cfa_offset 24
 493 0004 00AF     		add	r7, sp, #0
 494              		.cfi_def_cfa_register 7
 495 0006 7860     		str	r0, [r7, #4]
 244:STM32Cube_FW_N6/Drivers/STM32N6xx_HAL_Driver/Src/stm32n6xx_hal_pcd_ex.c ****   USB_OTG_GlobalTypeDef *USBx = hpcd->Instance;
 496              		.loc 1 244 26
 497 0008 7B68     		ldr	r3, [r7, #4]
 498 000a 1B68     		ldr	r3, [r3]
 499 000c FB60     		str	r3, [r7, #12]
 245:STM32Cube_FW_N6/Drivers/STM32N6xx_HAL_Driver/Src/stm32n6xx_hal_pcd_ex.c **** 
 246:STM32Cube_FW_N6/Drivers/STM32N6xx_HAL_Driver/Src/stm32n6xx_hal_pcd_ex.c ****   USBx->GCCFG &= ~(USB_OTG_GCCFG_PDETEN);
 500              		.loc 1 246 7
 501 000e FB68     		ldr	r3, [r7, #12]
ARM GAS  /tmp/ccC3CVtV.s 			page 14


 502 0010 9B6B     		ldr	r3, [r3, #56]
 503              		.loc 1 246 15
 504 0012 23F48012 		bic	r2, r3, #1048576
 505 0016 FB68     		ldr	r3, [r7, #12]
 506 0018 9A63     		str	r2, [r3, #56]
 247:STM32Cube_FW_N6/Drivers/STM32N6xx_HAL_Driver/Src/stm32n6xx_hal_pcd_ex.c ****   USBx->GCCFG &= ~(USB_OTG_GCCFG_SDETEN);
 507              		.loc 1 247 7
 508 001a FB68     		ldr	r3, [r7, #12]
 509 001c 9B6B     		ldr	r3, [r3, #56]
 510              		.loc 1 247 15
 511 001e 23F48002 		bic	r2, r3, #4194304
 512 0022 FB68     		ldr	r3, [r7, #12]
 513 0024 9A63     		str	r2, [r3, #56]
 248:STM32Cube_FW_N6/Drivers/STM32N6xx_HAL_Driver/Src/stm32n6xx_hal_pcd_ex.c **** 
 249:STM32Cube_FW_N6/Drivers/STM32N6xx_HAL_Driver/Src/stm32n6xx_hal_pcd_ex.c ****   hpcd->battery_charging_active = 1U;
 514              		.loc 1 249 33
 515 0026 7B68     		ldr	r3, [r7, #4]
 516 0028 0122     		movs	r2, #1
 517 002a C3F8DC24 		str	r2, [r3, #1244]
 250:STM32Cube_FW_N6/Drivers/STM32N6xx_HAL_Driver/Src/stm32n6xx_hal_pcd_ex.c **** 
 251:STM32Cube_FW_N6/Drivers/STM32N6xx_HAL_Driver/Src/stm32n6xx_hal_pcd_ex.c ****   return HAL_OK;
 518              		.loc 1 251 10
 519 002e 0023     		movs	r3, #0
 252:STM32Cube_FW_N6/Drivers/STM32N6xx_HAL_Driver/Src/stm32n6xx_hal_pcd_ex.c **** }
 520              		.loc 1 252 1
 521 0030 1846     		mov	r0, r3
 522 0032 1437     		adds	r7, r7, #20
 523              		.cfi_def_cfa_offset 4
 524 0034 BD46     		mov	sp, r7
 525              		.cfi_def_cfa_register 13
 526              		@ sp needed
 527 0036 5DF8047B 		ldr	r7, [sp], #4
 528              		.cfi_restore 7
 529              		.cfi_def_cfa_offset 0
 530 003a 7047     		bx	lr
 531              		.cfi_endproc
 532              	.LFE840:
 534              		.section	.text.HAL_PCDEx_DeActivateBCD,"ax",%progbits
 535              		.align	1
 536              		.global	HAL_PCDEx_DeActivateBCD
 537              		.syntax unified
 538              		.thumb
 539              		.thumb_func
 541              	HAL_PCDEx_DeActivateBCD:
 542              	.LFB841:
 253:STM32Cube_FW_N6/Drivers/STM32N6xx_HAL_Driver/Src/stm32n6xx_hal_pcd_ex.c **** 
 254:STM32Cube_FW_N6/Drivers/STM32N6xx_HAL_Driver/Src/stm32n6xx_hal_pcd_ex.c **** /**
 255:STM32Cube_FW_N6/Drivers/STM32N6xx_HAL_Driver/Src/stm32n6xx_hal_pcd_ex.c ****   * @brief  Deactivate BatteryCharging feature.
 256:STM32Cube_FW_N6/Drivers/STM32N6xx_HAL_Driver/Src/stm32n6xx_hal_pcd_ex.c ****   * @param  hpcd PCD handle
 257:STM32Cube_FW_N6/Drivers/STM32N6xx_HAL_Driver/Src/stm32n6xx_hal_pcd_ex.c ****   * @retval HAL status
 258:STM32Cube_FW_N6/Drivers/STM32N6xx_HAL_Driver/Src/stm32n6xx_hal_pcd_ex.c ****   */
 259:STM32Cube_FW_N6/Drivers/STM32N6xx_HAL_Driver/Src/stm32n6xx_hal_pcd_ex.c **** HAL_StatusTypeDef HAL_PCDEx_DeActivateBCD(PCD_HandleTypeDef *hpcd)
 260:STM32Cube_FW_N6/Drivers/STM32N6xx_HAL_Driver/Src/stm32n6xx_hal_pcd_ex.c **** {
 543              		.loc 1 260 1
 544              		.cfi_startproc
 545              		@ args = 0, pretend = 0, frame = 16
 546              		@ frame_needed = 1, uses_anonymous_args = 0
ARM GAS  /tmp/ccC3CVtV.s 			page 15


 547              		@ link register save eliminated.
 548 0000 80B4     		push	{r7}
 549              		.cfi_def_cfa_offset 4
 550              		.cfi_offset 7, -4
 551 0002 85B0     		sub	sp, sp, #20
 552              		.cfi_def_cfa_offset 24
 553 0004 00AF     		add	r7, sp, #0
 554              		.cfi_def_cfa_register 7
 555 0006 7860     		str	r0, [r7, #4]
 261:STM32Cube_FW_N6/Drivers/STM32N6xx_HAL_Driver/Src/stm32n6xx_hal_pcd_ex.c ****   USB_OTG_GlobalTypeDef *USBx = hpcd->Instance;
 556              		.loc 1 261 26
 557 0008 7B68     		ldr	r3, [r7, #4]
 558 000a 1B68     		ldr	r3, [r3]
 559 000c FB60     		str	r3, [r7, #12]
 262:STM32Cube_FW_N6/Drivers/STM32N6xx_HAL_Driver/Src/stm32n6xx_hal_pcd_ex.c **** 
 263:STM32Cube_FW_N6/Drivers/STM32N6xx_HAL_Driver/Src/stm32n6xx_hal_pcd_ex.c ****   USBx->GCCFG &= ~(USB_OTG_GCCFG_PDETEN);
 560              		.loc 1 263 7
 561 000e FB68     		ldr	r3, [r7, #12]
 562 0010 9B6B     		ldr	r3, [r3, #56]
 563              		.loc 1 263 15
 564 0012 23F48012 		bic	r2, r3, #1048576
 565 0016 FB68     		ldr	r3, [r7, #12]
 566 0018 9A63     		str	r2, [r3, #56]
 264:STM32Cube_FW_N6/Drivers/STM32N6xx_HAL_Driver/Src/stm32n6xx_hal_pcd_ex.c ****   USBx->GCCFG &= ~(USB_OTG_GCCFG_SDETEN);
 567              		.loc 1 264 7
 568 001a FB68     		ldr	r3, [r7, #12]
 569 001c 9B6B     		ldr	r3, [r3, #56]
 570              		.loc 1 264 15
 571 001e 23F48002 		bic	r2, r3, #4194304
 572 0022 FB68     		ldr	r3, [r7, #12]
 573 0024 9A63     		str	r2, [r3, #56]
 265:STM32Cube_FW_N6/Drivers/STM32N6xx_HAL_Driver/Src/stm32n6xx_hal_pcd_ex.c **** 
 266:STM32Cube_FW_N6/Drivers/STM32N6xx_HAL_Driver/Src/stm32n6xx_hal_pcd_ex.c ****   hpcd->battery_charging_active = 0U;
 574              		.loc 1 266 33
 575 0026 7B68     		ldr	r3, [r7, #4]
 576 0028 0022     		movs	r2, #0
 577 002a C3F8DC24 		str	r2, [r3, #1244]
 267:STM32Cube_FW_N6/Drivers/STM32N6xx_HAL_Driver/Src/stm32n6xx_hal_pcd_ex.c **** 
 268:STM32Cube_FW_N6/Drivers/STM32N6xx_HAL_Driver/Src/stm32n6xx_hal_pcd_ex.c ****   return HAL_OK;
 578              		.loc 1 268 10
 579 002e 0023     		movs	r3, #0
 269:STM32Cube_FW_N6/Drivers/STM32N6xx_HAL_Driver/Src/stm32n6xx_hal_pcd_ex.c **** }
 580              		.loc 1 269 1
 581 0030 1846     		mov	r0, r3
 582 0032 1437     		adds	r7, r7, #20
 583              		.cfi_def_cfa_offset 4
 584 0034 BD46     		mov	sp, r7
 585              		.cfi_def_cfa_register 13
 586              		@ sp needed
 587 0036 5DF8047B 		ldr	r7, [sp], #4
 588              		.cfi_restore 7
 589              		.cfi_def_cfa_offset 0
 590 003a 7047     		bx	lr
 591              		.cfi_endproc
 592              	.LFE841:
 594              		.section	.text.HAL_PCDEx_LPM_Callback,"ax",%progbits
 595              		.align	1
ARM GAS  /tmp/ccC3CVtV.s 			page 16


 596              		.weak	HAL_PCDEx_LPM_Callback
 597              		.syntax unified
 598              		.thumb
 599              		.thumb_func
 601              	HAL_PCDEx_LPM_Callback:
 602              	.LFB842:
 270:STM32Cube_FW_N6/Drivers/STM32N6xx_HAL_Driver/Src/stm32n6xx_hal_pcd_ex.c **** 
 271:STM32Cube_FW_N6/Drivers/STM32N6xx_HAL_Driver/Src/stm32n6xx_hal_pcd_ex.c **** #endif /* defined (USB1_OTG_HS) || defined (USB2_OTG_HS) */
 272:STM32Cube_FW_N6/Drivers/STM32N6xx_HAL_Driver/Src/stm32n6xx_hal_pcd_ex.c **** 
 273:STM32Cube_FW_N6/Drivers/STM32N6xx_HAL_Driver/Src/stm32n6xx_hal_pcd_ex.c **** /**
 274:STM32Cube_FW_N6/Drivers/STM32N6xx_HAL_Driver/Src/stm32n6xx_hal_pcd_ex.c ****   * @brief  Send LPM message to user layer callback.
 275:STM32Cube_FW_N6/Drivers/STM32N6xx_HAL_Driver/Src/stm32n6xx_hal_pcd_ex.c ****   * @param  hpcd PCD handle
 276:STM32Cube_FW_N6/Drivers/STM32N6xx_HAL_Driver/Src/stm32n6xx_hal_pcd_ex.c ****   * @param  msg LPM message
 277:STM32Cube_FW_N6/Drivers/STM32N6xx_HAL_Driver/Src/stm32n6xx_hal_pcd_ex.c ****   * @retval HAL status
 278:STM32Cube_FW_N6/Drivers/STM32N6xx_HAL_Driver/Src/stm32n6xx_hal_pcd_ex.c ****   */
 279:STM32Cube_FW_N6/Drivers/STM32N6xx_HAL_Driver/Src/stm32n6xx_hal_pcd_ex.c **** __weak void HAL_PCDEx_LPM_Callback(PCD_HandleTypeDef *hpcd, PCD_LPM_MsgTypeDef msg)
 280:STM32Cube_FW_N6/Drivers/STM32N6xx_HAL_Driver/Src/stm32n6xx_hal_pcd_ex.c **** {
 603              		.loc 1 280 1
 604              		.cfi_startproc
 605              		@ args = 0, pretend = 0, frame = 8
 606              		@ frame_needed = 1, uses_anonymous_args = 0
 607              		@ link register save eliminated.
 608 0000 80B4     		push	{r7}
 609              		.cfi_def_cfa_offset 4
 610              		.cfi_offset 7, -4
 611 0002 83B0     		sub	sp, sp, #12
 612              		.cfi_def_cfa_offset 16
 613 0004 00AF     		add	r7, sp, #0
 614              		.cfi_def_cfa_register 7
 615 0006 7860     		str	r0, [r7, #4]
 616 0008 0B46     		mov	r3, r1
 617 000a FB70     		strb	r3, [r7, #3]
 281:STM32Cube_FW_N6/Drivers/STM32N6xx_HAL_Driver/Src/stm32n6xx_hal_pcd_ex.c ****   /* Prevent unused argument(s) compilation warning */
 282:STM32Cube_FW_N6/Drivers/STM32N6xx_HAL_Driver/Src/stm32n6xx_hal_pcd_ex.c ****   UNUSED(hpcd);
 283:STM32Cube_FW_N6/Drivers/STM32N6xx_HAL_Driver/Src/stm32n6xx_hal_pcd_ex.c ****   UNUSED(msg);
 284:STM32Cube_FW_N6/Drivers/STM32N6xx_HAL_Driver/Src/stm32n6xx_hal_pcd_ex.c **** 
 285:STM32Cube_FW_N6/Drivers/STM32N6xx_HAL_Driver/Src/stm32n6xx_hal_pcd_ex.c ****   /* NOTE : This function should not be modified, when the callback is needed,
 286:STM32Cube_FW_N6/Drivers/STM32N6xx_HAL_Driver/Src/stm32n6xx_hal_pcd_ex.c ****             the HAL_PCDEx_LPM_Callback could be implemented in the user file
 287:STM32Cube_FW_N6/Drivers/STM32N6xx_HAL_Driver/Src/stm32n6xx_hal_pcd_ex.c ****    */
 288:STM32Cube_FW_N6/Drivers/STM32N6xx_HAL_Driver/Src/stm32n6xx_hal_pcd_ex.c **** }
 618              		.loc 1 288 1
 619 000c 00BF     		nop
 620 000e 0C37     		adds	r7, r7, #12
 621              		.cfi_def_cfa_offset 4
 622 0010 BD46     		mov	sp, r7
 623              		.cfi_def_cfa_register 13
 624              		@ sp needed
 625 0012 5DF8047B 		ldr	r7, [sp], #4
 626              		.cfi_restore 7
 627              		.cfi_def_cfa_offset 0
 628 0016 7047     		bx	lr
 629              		.cfi_endproc
 630              	.LFE842:
 632              		.section	.text.HAL_PCDEx_BCD_Callback,"ax",%progbits
 633              		.align	1
 634              		.weak	HAL_PCDEx_BCD_Callback
 635              		.syntax unified
ARM GAS  /tmp/ccC3CVtV.s 			page 17


 636              		.thumb
 637              		.thumb_func
 639              	HAL_PCDEx_BCD_Callback:
 640              	.LFB843:
 289:STM32Cube_FW_N6/Drivers/STM32N6xx_HAL_Driver/Src/stm32n6xx_hal_pcd_ex.c **** 
 290:STM32Cube_FW_N6/Drivers/STM32N6xx_HAL_Driver/Src/stm32n6xx_hal_pcd_ex.c **** /**
 291:STM32Cube_FW_N6/Drivers/STM32N6xx_HAL_Driver/Src/stm32n6xx_hal_pcd_ex.c ****   * @brief  Send BatteryCharging message to user layer callback.
 292:STM32Cube_FW_N6/Drivers/STM32N6xx_HAL_Driver/Src/stm32n6xx_hal_pcd_ex.c ****   * @param  hpcd PCD handle
 293:STM32Cube_FW_N6/Drivers/STM32N6xx_HAL_Driver/Src/stm32n6xx_hal_pcd_ex.c ****   * @param  msg LPM message
 294:STM32Cube_FW_N6/Drivers/STM32N6xx_HAL_Driver/Src/stm32n6xx_hal_pcd_ex.c ****   * @retval HAL status
 295:STM32Cube_FW_N6/Drivers/STM32N6xx_HAL_Driver/Src/stm32n6xx_hal_pcd_ex.c ****   */
 296:STM32Cube_FW_N6/Drivers/STM32N6xx_HAL_Driver/Src/stm32n6xx_hal_pcd_ex.c **** __weak void HAL_PCDEx_BCD_Callback(PCD_HandleTypeDef *hpcd, PCD_BCD_MsgTypeDef msg)
 297:STM32Cube_FW_N6/Drivers/STM32N6xx_HAL_Driver/Src/stm32n6xx_hal_pcd_ex.c **** {
 641              		.loc 1 297 1
 642              		.cfi_startproc
 643              		@ args = 0, pretend = 0, frame = 8
 644              		@ frame_needed = 1, uses_anonymous_args = 0
 645              		@ link register save eliminated.
 646 0000 80B4     		push	{r7}
 647              		.cfi_def_cfa_offset 4
 648              		.cfi_offset 7, -4
 649 0002 83B0     		sub	sp, sp, #12
 650              		.cfi_def_cfa_offset 16
 651 0004 00AF     		add	r7, sp, #0
 652              		.cfi_def_cfa_register 7
 653 0006 7860     		str	r0, [r7, #4]
 654 0008 0B46     		mov	r3, r1
 655 000a FB70     		strb	r3, [r7, #3]
 298:STM32Cube_FW_N6/Drivers/STM32N6xx_HAL_Driver/Src/stm32n6xx_hal_pcd_ex.c ****   /* Prevent unused argument(s) compilation warning */
 299:STM32Cube_FW_N6/Drivers/STM32N6xx_HAL_Driver/Src/stm32n6xx_hal_pcd_ex.c ****   UNUSED(hpcd);
 300:STM32Cube_FW_N6/Drivers/STM32N6xx_HAL_Driver/Src/stm32n6xx_hal_pcd_ex.c ****   UNUSED(msg);
 301:STM32Cube_FW_N6/Drivers/STM32N6xx_HAL_Driver/Src/stm32n6xx_hal_pcd_ex.c **** 
 302:STM32Cube_FW_N6/Drivers/STM32N6xx_HAL_Driver/Src/stm32n6xx_hal_pcd_ex.c ****   /* NOTE : This function should not be modified, when the callback is needed,
 303:STM32Cube_FW_N6/Drivers/STM32N6xx_HAL_Driver/Src/stm32n6xx_hal_pcd_ex.c ****             the HAL_PCDEx_BCD_Callback could be implemented in the user file
 304:STM32Cube_FW_N6/Drivers/STM32N6xx_HAL_Driver/Src/stm32n6xx_hal_pcd_ex.c ****    */
 305:STM32Cube_FW_N6/Drivers/STM32N6xx_HAL_Driver/Src/stm32n6xx_hal_pcd_ex.c **** }
 656              		.loc 1 305 1
 657 000c 00BF     		nop
 658 000e 0C37     		adds	r7, r7, #12
 659              		.cfi_def_cfa_offset 4
 660 0010 BD46     		mov	sp, r7
 661              		.cfi_def_cfa_register 13
 662              		@ sp needed
 663 0012 5DF8047B 		ldr	r7, [sp], #4
 664              		.cfi_restore 7
 665              		.cfi_def_cfa_offset 0
 666 0016 7047     		bx	lr
 667              		.cfi_endproc
 668              	.LFE843:
 670              		.text
 671              	.Letext0:
 672              		.file 2 "/home/tanjiajun2002/renesas/rzv/e2studio_v2025-01_fsp_v3.1.0/toolchains/gcc_arm/arm-gnu-t
 673              		.file 3 "/home/tanjiajun2002/renesas/rzv/e2studio_v2025-01_fsp_v3.1.0/toolchains/gcc_arm/arm-gnu-t
 674              		.file 4 "STM32Cube_FW_N6/Drivers/CMSIS/Device/ST/STM32N6xx/Include/stm32n657xx.h"
 675              		.file 5 "STM32Cube_FW_N6/Drivers/STM32N6xx_HAL_Driver/Inc/stm32n6xx_hal_def.h"
 676              		.file 6 "STM32Cube_FW_N6/Drivers/STM32N6xx_HAL_Driver/Inc/stm32n6xx_ll_usb.h"
 677              		.file 7 "STM32Cube_FW_N6/Drivers/STM32N6xx_HAL_Driver/Inc/stm32n6xx_hal_pcd.h"
ARM GAS  /tmp/ccC3CVtV.s 			page 18


 678              		.file 8 "STM32Cube_FW_N6/Drivers/STM32N6xx_HAL_Driver/Inc/stm32n6xx_hal.h"
ARM GAS  /tmp/ccC3CVtV.s 			page 19

