ARM GAS  /tmp/ccwTXtVb.s 			page 1


   1              		.arch armv8.1-m.main
   2              		.fpu fpv5-d16
   3              		.arch_extension dsp
   4              		.arch_extension fp
   5              		.arch_extension fp.dp
   6              		.arch_extension mve
   7              		.arch_extension mve.fp
   8              		.eabi_attribute 5, "cortex-m55"
   9              		.eabi_attribute 28, 1
  10              		.eabi_attribute 20, 1
  11              		.eabi_attribute 21, 1
  12              		.eabi_attribute 23, 3
  13              		.eabi_attribute 24, 1
  14              		.eabi_attribute 25, 1
  15              		.eabi_attribute 26, 1
  16              		.eabi_attribute 30, 6
  17              		.eabi_attribute 34, 1
  18              		.eabi_attribute 38, 1
  19              		.eabi_attribute 18, 4
  20              		.file	"stm32n6xx_hal_spi.c"
  21              		.text
  22              	.Ltext0:
  23              		.cfi_sections	.debug_frame
  24              		.file 1 "STM32Cube_FW_N6/Drivers/STM32N6xx_HAL_Driver/Src/stm32n6xx_hal_spi.c"
  25              		.section	.rodata
  26              		.align	2
  27              	.LC0:
  28 0000 53544D33 		.ascii	"STM32Cube_FW_N6/Drivers/STM32N6xx_HAL_Driver/Src/st"
  28      32437562 
  28      655F4657 
  28      5F4E362F 
  28      44726976 
  29 0033 6D33326E 		.ascii	"m32n6xx_hal_spi.c\000"
  29      3678785F 
  29      68616C5F 
  29      7370692E 
  29      6300
  30              		.section	.text.HAL_SPI_Init,"ax",%progbits
  31              		.align	1
  32              		.global	HAL_SPI_Init
  33              		.syntax unified
  34              		.thumb
  35              		.thumb_func
  37              	HAL_SPI_Init:
  38              	.LFB835:
   1:STM32Cube_FW_N6/Drivers/STM32N6xx_HAL_Driver/Src/stm32n6xx_hal_spi.c **** /**
   2:STM32Cube_FW_N6/Drivers/STM32N6xx_HAL_Driver/Src/stm32n6xx_hal_spi.c ****   ******************************************************************************
   3:STM32Cube_FW_N6/Drivers/STM32N6xx_HAL_Driver/Src/stm32n6xx_hal_spi.c ****   * @file    stm32n6xx_hal_spi.c
   4:STM32Cube_FW_N6/Drivers/STM32N6xx_HAL_Driver/Src/stm32n6xx_hal_spi.c ****   * @author  MCD Application Team
   5:STM32Cube_FW_N6/Drivers/STM32N6xx_HAL_Driver/Src/stm32n6xx_hal_spi.c ****   * @brief   SPI HAL module driver.
   6:STM32Cube_FW_N6/Drivers/STM32N6xx_HAL_Driver/Src/stm32n6xx_hal_spi.c ****   *          This file provides firmware functions to manage the following
   7:STM32Cube_FW_N6/Drivers/STM32N6xx_HAL_Driver/Src/stm32n6xx_hal_spi.c ****   *          functionalities of the Serial Peripheral Interface (SPI) peripheral:
   8:STM32Cube_FW_N6/Drivers/STM32N6xx_HAL_Driver/Src/stm32n6xx_hal_spi.c ****   *           + Initialization and de-initialization functions
   9:STM32Cube_FW_N6/Drivers/STM32N6xx_HAL_Driver/Src/stm32n6xx_hal_spi.c ****   *           + IO operation functions
  10:STM32Cube_FW_N6/Drivers/STM32N6xx_HAL_Driver/Src/stm32n6xx_hal_spi.c ****   *           + Peripheral Control functions
  11:STM32Cube_FW_N6/Drivers/STM32N6xx_HAL_Driver/Src/stm32n6xx_hal_spi.c ****   *           + Peripheral State functions
  12:STM32Cube_FW_N6/Drivers/STM32N6xx_HAL_Driver/Src/stm32n6xx_hal_spi.c ****   *
ARM GAS  /tmp/ccwTXtVb.s 			page 2


  13:STM32Cube_FW_N6/Drivers/STM32N6xx_HAL_Driver/Src/stm32n6xx_hal_spi.c ****   ******************************************************************************
  14:STM32Cube_FW_N6/Drivers/STM32N6xx_HAL_Driver/Src/stm32n6xx_hal_spi.c ****   * @attention
  15:STM32Cube_FW_N6/Drivers/STM32N6xx_HAL_Driver/Src/stm32n6xx_hal_spi.c ****   *
  16:STM32Cube_FW_N6/Drivers/STM32N6xx_HAL_Driver/Src/stm32n6xx_hal_spi.c ****   * Copyright (c) 2023 STMicroelectronics.
  17:STM32Cube_FW_N6/Drivers/STM32N6xx_HAL_Driver/Src/stm32n6xx_hal_spi.c ****   * All rights reserved.
  18:STM32Cube_FW_N6/Drivers/STM32N6xx_HAL_Driver/Src/stm32n6xx_hal_spi.c ****   *
  19:STM32Cube_FW_N6/Drivers/STM32N6xx_HAL_Driver/Src/stm32n6xx_hal_spi.c ****   * This software is licensed under terms that can be found in the LICENSE file
  20:STM32Cube_FW_N6/Drivers/STM32N6xx_HAL_Driver/Src/stm32n6xx_hal_spi.c ****   * in the root directory of this software component.
  21:STM32Cube_FW_N6/Drivers/STM32N6xx_HAL_Driver/Src/stm32n6xx_hal_spi.c ****   * If no LICENSE file comes with this software, it is provided AS-IS.
  22:STM32Cube_FW_N6/Drivers/STM32N6xx_HAL_Driver/Src/stm32n6xx_hal_spi.c ****   *
  23:STM32Cube_FW_N6/Drivers/STM32N6xx_HAL_Driver/Src/stm32n6xx_hal_spi.c ****   ******************************************************************************
  24:STM32Cube_FW_N6/Drivers/STM32N6xx_HAL_Driver/Src/stm32n6xx_hal_spi.c ****   @verbatim
  25:STM32Cube_FW_N6/Drivers/STM32N6xx_HAL_Driver/Src/stm32n6xx_hal_spi.c ****   ==============================================================================
  26:STM32Cube_FW_N6/Drivers/STM32N6xx_HAL_Driver/Src/stm32n6xx_hal_spi.c ****                         ##### How to use this driver #####
  27:STM32Cube_FW_N6/Drivers/STM32N6xx_HAL_Driver/Src/stm32n6xx_hal_spi.c ****   ==============================================================================
  28:STM32Cube_FW_N6/Drivers/STM32N6xx_HAL_Driver/Src/stm32n6xx_hal_spi.c ****     [..]
  29:STM32Cube_FW_N6/Drivers/STM32N6xx_HAL_Driver/Src/stm32n6xx_hal_spi.c ****       The SPI HAL driver can be used as follows:
  30:STM32Cube_FW_N6/Drivers/STM32N6xx_HAL_Driver/Src/stm32n6xx_hal_spi.c **** 
  31:STM32Cube_FW_N6/Drivers/STM32N6xx_HAL_Driver/Src/stm32n6xx_hal_spi.c ****       (#) Declare a SPI_HandleTypeDef handle structure, for example:
  32:STM32Cube_FW_N6/Drivers/STM32N6xx_HAL_Driver/Src/stm32n6xx_hal_spi.c ****           SPI_HandleTypeDef  hspi;
  33:STM32Cube_FW_N6/Drivers/STM32N6xx_HAL_Driver/Src/stm32n6xx_hal_spi.c **** 
  34:STM32Cube_FW_N6/Drivers/STM32N6xx_HAL_Driver/Src/stm32n6xx_hal_spi.c ****       (#)Initialize the SPI low level resources by implementing the HAL_SPI_MspInit() API:
  35:STM32Cube_FW_N6/Drivers/STM32N6xx_HAL_Driver/Src/stm32n6xx_hal_spi.c ****           (##) Enable the SPIx interface clock
  36:STM32Cube_FW_N6/Drivers/STM32N6xx_HAL_Driver/Src/stm32n6xx_hal_spi.c ****           (##) SPI pins configuration
  37:STM32Cube_FW_N6/Drivers/STM32N6xx_HAL_Driver/Src/stm32n6xx_hal_spi.c ****               (+++) Enable the clock for the SPI GPIOs
  38:STM32Cube_FW_N6/Drivers/STM32N6xx_HAL_Driver/Src/stm32n6xx_hal_spi.c ****               (+++) Configure these SPI pins as alternate function push-pull
  39:STM32Cube_FW_N6/Drivers/STM32N6xx_HAL_Driver/Src/stm32n6xx_hal_spi.c ****           (##) NVIC configuration if you need to use interrupt process or DMA process
  40:STM32Cube_FW_N6/Drivers/STM32N6xx_HAL_Driver/Src/stm32n6xx_hal_spi.c ****               (+++) Configure the SPIx interrupt priority
  41:STM32Cube_FW_N6/Drivers/STM32N6xx_HAL_Driver/Src/stm32n6xx_hal_spi.c ****               (+++) Enable the NVIC SPI IRQ handle
  42:STM32Cube_FW_N6/Drivers/STM32N6xx_HAL_Driver/Src/stm32n6xx_hal_spi.c ****           (##) DMA Configuration if you need to use DMA process
  43:STM32Cube_FW_N6/Drivers/STM32N6xx_HAL_Driver/Src/stm32n6xx_hal_spi.c ****               (+++) Declare a DMA_HandleTypeDef handle structure for the transmit or receive Stream
  44:STM32Cube_FW_N6/Drivers/STM32N6xx_HAL_Driver/Src/stm32n6xx_hal_spi.c ****               (+++) Enable the DMAx clock
  45:STM32Cube_FW_N6/Drivers/STM32N6xx_HAL_Driver/Src/stm32n6xx_hal_spi.c ****               (+++) Configure the DMA handle parameters
  46:STM32Cube_FW_N6/Drivers/STM32N6xx_HAL_Driver/Src/stm32n6xx_hal_spi.c ****               (+++) Configure the DMA Tx or Rx Stream/Channel
  47:STM32Cube_FW_N6/Drivers/STM32N6xx_HAL_Driver/Src/stm32n6xx_hal_spi.c ****               (+++) Associate the initialized hdma_tx handle to the hspi DMA Tx or Rx handle
  48:STM32Cube_FW_N6/Drivers/STM32N6xx_HAL_Driver/Src/stm32n6xx_hal_spi.c ****               (+++) Configure the priority and enable the NVIC for the transfer complete interrupt 
  49:STM32Cube_FW_N6/Drivers/STM32N6xx_HAL_Driver/Src/stm32n6xx_hal_spi.c ****                     or Rx Stream/Channel
  50:STM32Cube_FW_N6/Drivers/STM32N6xx_HAL_Driver/Src/stm32n6xx_hal_spi.c **** 
  51:STM32Cube_FW_N6/Drivers/STM32N6xx_HAL_Driver/Src/stm32n6xx_hal_spi.c ****       (#) Program the Mode, BidirectionalMode , Data size, Baudrate Prescaler, NSS
  52:STM32Cube_FW_N6/Drivers/STM32N6xx_HAL_Driver/Src/stm32n6xx_hal_spi.c ****           management, Clock polarity and phase, FirstBit and CRC configuration in the hspi Init str
  53:STM32Cube_FW_N6/Drivers/STM32N6xx_HAL_Driver/Src/stm32n6xx_hal_spi.c **** 
  54:STM32Cube_FW_N6/Drivers/STM32N6xx_HAL_Driver/Src/stm32n6xx_hal_spi.c ****       (#) Initialize the SPI registers by calling the HAL_SPI_Init() API:
  55:STM32Cube_FW_N6/Drivers/STM32N6xx_HAL_Driver/Src/stm32n6xx_hal_spi.c ****           (++) This API configures also the low level Hardware GPIO, CLOCK, CORTEX...etc)
  56:STM32Cube_FW_N6/Drivers/STM32N6xx_HAL_Driver/Src/stm32n6xx_hal_spi.c ****               by calling the customized HAL_SPI_MspInit() API.
  57:STM32Cube_FW_N6/Drivers/STM32N6xx_HAL_Driver/Src/stm32n6xx_hal_spi.c ****      [..]
  58:STM32Cube_FW_N6/Drivers/STM32N6xx_HAL_Driver/Src/stm32n6xx_hal_spi.c ****        Callback registration:
  59:STM32Cube_FW_N6/Drivers/STM32N6xx_HAL_Driver/Src/stm32n6xx_hal_spi.c **** 
  60:STM32Cube_FW_N6/Drivers/STM32N6xx_HAL_Driver/Src/stm32n6xx_hal_spi.c ****       (#) The compilation flag USE_HAL_SPI_REGISTER_CALLBACKS when set to 1UL
  61:STM32Cube_FW_N6/Drivers/STM32N6xx_HAL_Driver/Src/stm32n6xx_hal_spi.c ****           allows the user to configure dynamically the driver callbacks.
  62:STM32Cube_FW_N6/Drivers/STM32N6xx_HAL_Driver/Src/stm32n6xx_hal_spi.c ****           Use Functions HAL_SPI_RegisterCallback() to register an interrupt callback.
  63:STM32Cube_FW_N6/Drivers/STM32N6xx_HAL_Driver/Src/stm32n6xx_hal_spi.c **** 
  64:STM32Cube_FW_N6/Drivers/STM32N6xx_HAL_Driver/Src/stm32n6xx_hal_spi.c ****           Function HAL_SPI_RegisterCallback() allows to register following callbacks:
  65:STM32Cube_FW_N6/Drivers/STM32N6xx_HAL_Driver/Src/stm32n6xx_hal_spi.c ****             (+) TxCpltCallback        : SPI Tx Completed callback
  66:STM32Cube_FW_N6/Drivers/STM32N6xx_HAL_Driver/Src/stm32n6xx_hal_spi.c ****             (+) RxCpltCallback        : SPI Rx Completed callback
  67:STM32Cube_FW_N6/Drivers/STM32N6xx_HAL_Driver/Src/stm32n6xx_hal_spi.c ****             (+) TxRxCpltCallback      : SPI TxRx Completed callback
  68:STM32Cube_FW_N6/Drivers/STM32N6xx_HAL_Driver/Src/stm32n6xx_hal_spi.c ****             (+) TxHalfCpltCallback    : SPI Tx Half Completed callback
  69:STM32Cube_FW_N6/Drivers/STM32N6xx_HAL_Driver/Src/stm32n6xx_hal_spi.c ****             (+) RxHalfCpltCallback    : SPI Rx Half Completed callback
ARM GAS  /tmp/ccwTXtVb.s 			page 3


  70:STM32Cube_FW_N6/Drivers/STM32N6xx_HAL_Driver/Src/stm32n6xx_hal_spi.c ****             (+) TxRxHalfCpltCallback  : SPI TxRx Half Completed callback
  71:STM32Cube_FW_N6/Drivers/STM32N6xx_HAL_Driver/Src/stm32n6xx_hal_spi.c ****             (+) ErrorCallback         : SPI Error callback
  72:STM32Cube_FW_N6/Drivers/STM32N6xx_HAL_Driver/Src/stm32n6xx_hal_spi.c ****             (+) AbortCpltCallback     : SPI Abort callback
  73:STM32Cube_FW_N6/Drivers/STM32N6xx_HAL_Driver/Src/stm32n6xx_hal_spi.c ****             (+) SuspendCallback       : SPI Suspend callback
  74:STM32Cube_FW_N6/Drivers/STM32N6xx_HAL_Driver/Src/stm32n6xx_hal_spi.c ****             (+) MspInitCallback       : SPI Msp Init callback
  75:STM32Cube_FW_N6/Drivers/STM32N6xx_HAL_Driver/Src/stm32n6xx_hal_spi.c ****             (+) MspDeInitCallback     : SPI Msp DeInit callback
  76:STM32Cube_FW_N6/Drivers/STM32N6xx_HAL_Driver/Src/stm32n6xx_hal_spi.c ****           This function takes as parameters the HAL peripheral handle, the Callback ID
  77:STM32Cube_FW_N6/Drivers/STM32N6xx_HAL_Driver/Src/stm32n6xx_hal_spi.c ****           and a pointer to the user callback function.
  78:STM32Cube_FW_N6/Drivers/STM32N6xx_HAL_Driver/Src/stm32n6xx_hal_spi.c **** 
  79:STM32Cube_FW_N6/Drivers/STM32N6xx_HAL_Driver/Src/stm32n6xx_hal_spi.c **** 
  80:STM32Cube_FW_N6/Drivers/STM32N6xx_HAL_Driver/Src/stm32n6xx_hal_spi.c ****       (#) Use function HAL_SPI_UnRegisterCallback to reset a callback to the default
  81:STM32Cube_FW_N6/Drivers/STM32N6xx_HAL_Driver/Src/stm32n6xx_hal_spi.c ****           weak function.
  82:STM32Cube_FW_N6/Drivers/STM32N6xx_HAL_Driver/Src/stm32n6xx_hal_spi.c ****           HAL_SPI_UnRegisterCallback takes as parameters the HAL peripheral handle,
  83:STM32Cube_FW_N6/Drivers/STM32N6xx_HAL_Driver/Src/stm32n6xx_hal_spi.c ****           and the Callback ID.
  84:STM32Cube_FW_N6/Drivers/STM32N6xx_HAL_Driver/Src/stm32n6xx_hal_spi.c ****           This function allows to reset following callbacks:
  85:STM32Cube_FW_N6/Drivers/STM32N6xx_HAL_Driver/Src/stm32n6xx_hal_spi.c ****             (+) TxCpltCallback        : SPI Tx Completed callback
  86:STM32Cube_FW_N6/Drivers/STM32N6xx_HAL_Driver/Src/stm32n6xx_hal_spi.c ****             (+) RxCpltCallback        : SPI Rx Completed callback
  87:STM32Cube_FW_N6/Drivers/STM32N6xx_HAL_Driver/Src/stm32n6xx_hal_spi.c ****             (+) TxRxCpltCallback      : SPI TxRx Completed callback
  88:STM32Cube_FW_N6/Drivers/STM32N6xx_HAL_Driver/Src/stm32n6xx_hal_spi.c ****             (+) TxHalfCpltCallback    : SPI Tx Half Completed callback
  89:STM32Cube_FW_N6/Drivers/STM32N6xx_HAL_Driver/Src/stm32n6xx_hal_spi.c ****             (+) RxHalfCpltCallback    : SPI Rx Half Completed callback
  90:STM32Cube_FW_N6/Drivers/STM32N6xx_HAL_Driver/Src/stm32n6xx_hal_spi.c ****             (+) TxRxHalfCpltCallback  : SPI TxRx Half Completed callback
  91:STM32Cube_FW_N6/Drivers/STM32N6xx_HAL_Driver/Src/stm32n6xx_hal_spi.c ****             (+) ErrorCallback         : SPI Error callback
  92:STM32Cube_FW_N6/Drivers/STM32N6xx_HAL_Driver/Src/stm32n6xx_hal_spi.c ****             (+) AbortCpltCallback     : SPI Abort callback
  93:STM32Cube_FW_N6/Drivers/STM32N6xx_HAL_Driver/Src/stm32n6xx_hal_spi.c ****             (+) SuspendCallback       : SPI Suspend callback
  94:STM32Cube_FW_N6/Drivers/STM32N6xx_HAL_Driver/Src/stm32n6xx_hal_spi.c ****             (+) MspInitCallback       : SPI Msp Init callback
  95:STM32Cube_FW_N6/Drivers/STM32N6xx_HAL_Driver/Src/stm32n6xx_hal_spi.c ****             (+) MspDeInitCallback     : SPI Msp DeInit callback
  96:STM32Cube_FW_N6/Drivers/STM32N6xx_HAL_Driver/Src/stm32n6xx_hal_spi.c **** 
  97:STM32Cube_FW_N6/Drivers/STM32N6xx_HAL_Driver/Src/stm32n6xx_hal_spi.c ****        By default, after the HAL_SPI_Init() and when the state is HAL_SPI_STATE_RESET
  98:STM32Cube_FW_N6/Drivers/STM32N6xx_HAL_Driver/Src/stm32n6xx_hal_spi.c ****        all callbacks are set to the corresponding weak functions:
  99:STM32Cube_FW_N6/Drivers/STM32N6xx_HAL_Driver/Src/stm32n6xx_hal_spi.c ****        examples HAL_SPI_MasterTxCpltCallback(), HAL_SPI_MasterRxCpltCallback().
 100:STM32Cube_FW_N6/Drivers/STM32N6xx_HAL_Driver/Src/stm32n6xx_hal_spi.c ****        Exception done for MspInit and MspDeInit functions that are
 101:STM32Cube_FW_N6/Drivers/STM32N6xx_HAL_Driver/Src/stm32n6xx_hal_spi.c ****        reset to the legacy weak functions in the HAL_SPI_Init()/ HAL_SPI_DeInit() only when
 102:STM32Cube_FW_N6/Drivers/STM32N6xx_HAL_Driver/Src/stm32n6xx_hal_spi.c ****        these callbacks are null (not registered beforehand).
 103:STM32Cube_FW_N6/Drivers/STM32N6xx_HAL_Driver/Src/stm32n6xx_hal_spi.c ****        If MspInit or MspDeInit are not null, the HAL_SPI_Init()/ HAL_SPI_DeInit()
 104:STM32Cube_FW_N6/Drivers/STM32N6xx_HAL_Driver/Src/stm32n6xx_hal_spi.c ****        keep and use the user MspInit/MspDeInit callbacks (registered beforehand) whatever the state
 105:STM32Cube_FW_N6/Drivers/STM32N6xx_HAL_Driver/Src/stm32n6xx_hal_spi.c **** 
 106:STM32Cube_FW_N6/Drivers/STM32N6xx_HAL_Driver/Src/stm32n6xx_hal_spi.c ****        Callbacks can be registered/unregistered in HAL_SPI_STATE_READY state only.
 107:STM32Cube_FW_N6/Drivers/STM32N6xx_HAL_Driver/Src/stm32n6xx_hal_spi.c ****        Exception done MspInit/MspDeInit functions that can be registered/unregistered
 108:STM32Cube_FW_N6/Drivers/STM32N6xx_HAL_Driver/Src/stm32n6xx_hal_spi.c ****        in HAL_SPI_STATE_READY or HAL_SPI_STATE_RESET state,
 109:STM32Cube_FW_N6/Drivers/STM32N6xx_HAL_Driver/Src/stm32n6xx_hal_spi.c ****        thus registered (user) MspInit/DeInit callbacks can be used during the Init/DeInit.
 110:STM32Cube_FW_N6/Drivers/STM32N6xx_HAL_Driver/Src/stm32n6xx_hal_spi.c ****        Then, the user first registers the MspInit/MspDeInit user callbacks
 111:STM32Cube_FW_N6/Drivers/STM32N6xx_HAL_Driver/Src/stm32n6xx_hal_spi.c ****        using HAL_SPI_RegisterCallback() before calling HAL_SPI_DeInit()
 112:STM32Cube_FW_N6/Drivers/STM32N6xx_HAL_Driver/Src/stm32n6xx_hal_spi.c ****        or HAL_SPI_Init() function.
 113:STM32Cube_FW_N6/Drivers/STM32N6xx_HAL_Driver/Src/stm32n6xx_hal_spi.c **** 
 114:STM32Cube_FW_N6/Drivers/STM32N6xx_HAL_Driver/Src/stm32n6xx_hal_spi.c ****        When The compilation define USE_HAL_PPP_REGISTER_CALLBACKS is set to 0 or not defined,
 115:STM32Cube_FW_N6/Drivers/STM32N6xx_HAL_Driver/Src/stm32n6xx_hal_spi.c ****        the callback registering feature is not available and weak callbacks are used.
 116:STM32Cube_FW_N6/Drivers/STM32N6xx_HAL_Driver/Src/stm32n6xx_hal_spi.c **** 
 117:STM32Cube_FW_N6/Drivers/STM32N6xx_HAL_Driver/Src/stm32n6xx_hal_spi.c ****        SuspendCallback restriction:
 118:STM32Cube_FW_N6/Drivers/STM32N6xx_HAL_Driver/Src/stm32n6xx_hal_spi.c ****            SuspendCallback is called only when MasterReceiverAutoSusp is enabled and
 119:STM32Cube_FW_N6/Drivers/STM32N6xx_HAL_Driver/Src/stm32n6xx_hal_spi.c ****        EOT interrupt is activated. SuspendCallback is used in relation with functions
 120:STM32Cube_FW_N6/Drivers/STM32N6xx_HAL_Driver/Src/stm32n6xx_hal_spi.c ****        HAL_SPI_Transmit_IT, HAL_SPI_Receive_IT and HAL_SPI_TransmitReceive_IT.
 121:STM32Cube_FW_N6/Drivers/STM32N6xx_HAL_Driver/Src/stm32n6xx_hal_spi.c **** 
 122:STM32Cube_FW_N6/Drivers/STM32N6xx_HAL_Driver/Src/stm32n6xx_hal_spi.c ****     [..]
 123:STM32Cube_FW_N6/Drivers/STM32N6xx_HAL_Driver/Src/stm32n6xx_hal_spi.c ****       Circular mode restriction:
 124:STM32Cube_FW_N6/Drivers/STM32N6xx_HAL_Driver/Src/stm32n6xx_hal_spi.c ****       (+) The DMA circular mode cannot be used when the SPI is configured in these modes:
 125:STM32Cube_FW_N6/Drivers/STM32N6xx_HAL_Driver/Src/stm32n6xx_hal_spi.c ****           (++) Master 2Lines RxOnly
 126:STM32Cube_FW_N6/Drivers/STM32N6xx_HAL_Driver/Src/stm32n6xx_hal_spi.c ****           (++) Master 1Line Rx
ARM GAS  /tmp/ccwTXtVb.s 			page 4


 127:STM32Cube_FW_N6/Drivers/STM32N6xx_HAL_Driver/Src/stm32n6xx_hal_spi.c ****       (+) The CRC feature is not managed when the DMA circular mode is enabled
 128:STM32Cube_FW_N6/Drivers/STM32N6xx_HAL_Driver/Src/stm32n6xx_hal_spi.c ****       (+) The functions HAL_SPI_DMAPause()/ HAL_SPI_DMAResume() are not supported. Return always
 129:STM32Cube_FW_N6/Drivers/STM32N6xx_HAL_Driver/Src/stm32n6xx_hal_spi.c ****           HAL_ERROR with ErrorCode set to HAL_SPI_ERROR_NOT_SUPPORTED.
 130:STM32Cube_FW_N6/Drivers/STM32N6xx_HAL_Driver/Src/stm32n6xx_hal_spi.c ****           Those functions are maintained for backward compatibility reasons.
 131:STM32Cube_FW_N6/Drivers/STM32N6xx_HAL_Driver/Src/stm32n6xx_hal_spi.c **** 
 132:STM32Cube_FW_N6/Drivers/STM32N6xx_HAL_Driver/Src/stm32n6xx_hal_spi.c ****   @endverbatim
 133:STM32Cube_FW_N6/Drivers/STM32N6xx_HAL_Driver/Src/stm32n6xx_hal_spi.c ****   */
 134:STM32Cube_FW_N6/Drivers/STM32N6xx_HAL_Driver/Src/stm32n6xx_hal_spi.c **** 
 135:STM32Cube_FW_N6/Drivers/STM32N6xx_HAL_Driver/Src/stm32n6xx_hal_spi.c **** /* Includes ------------------------------------------------------------------*/
 136:STM32Cube_FW_N6/Drivers/STM32N6xx_HAL_Driver/Src/stm32n6xx_hal_spi.c **** #include "stm32n6xx_hal.h"
 137:STM32Cube_FW_N6/Drivers/STM32N6xx_HAL_Driver/Src/stm32n6xx_hal_spi.c **** 
 138:STM32Cube_FW_N6/Drivers/STM32N6xx_HAL_Driver/Src/stm32n6xx_hal_spi.c **** /** @addtogroup STM32N6xx_HAL_Driver
 139:STM32Cube_FW_N6/Drivers/STM32N6xx_HAL_Driver/Src/stm32n6xx_hal_spi.c ****   * @{
 140:STM32Cube_FW_N6/Drivers/STM32N6xx_HAL_Driver/Src/stm32n6xx_hal_spi.c ****   */
 141:STM32Cube_FW_N6/Drivers/STM32N6xx_HAL_Driver/Src/stm32n6xx_hal_spi.c **** 
 142:STM32Cube_FW_N6/Drivers/STM32N6xx_HAL_Driver/Src/stm32n6xx_hal_spi.c **** /** @defgroup SPI SPI
 143:STM32Cube_FW_N6/Drivers/STM32N6xx_HAL_Driver/Src/stm32n6xx_hal_spi.c ****   * @brief SPI HAL module driver
 144:STM32Cube_FW_N6/Drivers/STM32N6xx_HAL_Driver/Src/stm32n6xx_hal_spi.c ****   * @{
 145:STM32Cube_FW_N6/Drivers/STM32N6xx_HAL_Driver/Src/stm32n6xx_hal_spi.c ****   */
 146:STM32Cube_FW_N6/Drivers/STM32N6xx_HAL_Driver/Src/stm32n6xx_hal_spi.c **** #ifdef HAL_SPI_MODULE_ENABLED
 147:STM32Cube_FW_N6/Drivers/STM32N6xx_HAL_Driver/Src/stm32n6xx_hal_spi.c **** 
 148:STM32Cube_FW_N6/Drivers/STM32N6xx_HAL_Driver/Src/stm32n6xx_hal_spi.c **** /* Private typedef -----------------------------------------------------------*/
 149:STM32Cube_FW_N6/Drivers/STM32N6xx_HAL_Driver/Src/stm32n6xx_hal_spi.c **** /* Private defines -----------------------------------------------------------*/
 150:STM32Cube_FW_N6/Drivers/STM32N6xx_HAL_Driver/Src/stm32n6xx_hal_spi.c **** /** @defgroup SPI_Private_Constants SPI Private Constants
 151:STM32Cube_FW_N6/Drivers/STM32N6xx_HAL_Driver/Src/stm32n6xx_hal_spi.c ****   * @{
 152:STM32Cube_FW_N6/Drivers/STM32N6xx_HAL_Driver/Src/stm32n6xx_hal_spi.c ****   */
 153:STM32Cube_FW_N6/Drivers/STM32N6xx_HAL_Driver/Src/stm32n6xx_hal_spi.c **** #define SPI_DEFAULT_TIMEOUT 100UL
 154:STM32Cube_FW_N6/Drivers/STM32N6xx_HAL_Driver/Src/stm32n6xx_hal_spi.c **** /**
 155:STM32Cube_FW_N6/Drivers/STM32N6xx_HAL_Driver/Src/stm32n6xx_hal_spi.c ****   * @}
 156:STM32Cube_FW_N6/Drivers/STM32N6xx_HAL_Driver/Src/stm32n6xx_hal_spi.c ****   */
 157:STM32Cube_FW_N6/Drivers/STM32N6xx_HAL_Driver/Src/stm32n6xx_hal_spi.c **** 
 158:STM32Cube_FW_N6/Drivers/STM32N6xx_HAL_Driver/Src/stm32n6xx_hal_spi.c **** /* Private macros ------------------------------------------------------------*/
 159:STM32Cube_FW_N6/Drivers/STM32N6xx_HAL_Driver/Src/stm32n6xx_hal_spi.c **** /* Private variables ---------------------------------------------------------*/
 160:STM32Cube_FW_N6/Drivers/STM32N6xx_HAL_Driver/Src/stm32n6xx_hal_spi.c **** /* Private function prototypes -----------------------------------------------*/
 161:STM32Cube_FW_N6/Drivers/STM32N6xx_HAL_Driver/Src/stm32n6xx_hal_spi.c **** /** @defgroup SPI_Private_Functions SPI Private Functions
 162:STM32Cube_FW_N6/Drivers/STM32N6xx_HAL_Driver/Src/stm32n6xx_hal_spi.c ****   * @{
 163:STM32Cube_FW_N6/Drivers/STM32N6xx_HAL_Driver/Src/stm32n6xx_hal_spi.c ****   */
 164:STM32Cube_FW_N6/Drivers/STM32N6xx_HAL_Driver/Src/stm32n6xx_hal_spi.c **** static void SPI_DMATransmitCplt(DMA_HandleTypeDef *hdma);
 165:STM32Cube_FW_N6/Drivers/STM32N6xx_HAL_Driver/Src/stm32n6xx_hal_spi.c **** static void SPI_DMAReceiveCplt(DMA_HandleTypeDef *hdma);
 166:STM32Cube_FW_N6/Drivers/STM32N6xx_HAL_Driver/Src/stm32n6xx_hal_spi.c **** static void SPI_DMATransmitReceiveCplt(DMA_HandleTypeDef *hdma);
 167:STM32Cube_FW_N6/Drivers/STM32N6xx_HAL_Driver/Src/stm32n6xx_hal_spi.c **** static void SPI_DMAHalfTransmitCplt(DMA_HandleTypeDef *hdma);
 168:STM32Cube_FW_N6/Drivers/STM32N6xx_HAL_Driver/Src/stm32n6xx_hal_spi.c **** static void SPI_DMAHalfReceiveCplt(DMA_HandleTypeDef *hdma);
 169:STM32Cube_FW_N6/Drivers/STM32N6xx_HAL_Driver/Src/stm32n6xx_hal_spi.c **** static void SPI_DMAHalfTransmitReceiveCplt(DMA_HandleTypeDef *hdma);
 170:STM32Cube_FW_N6/Drivers/STM32N6xx_HAL_Driver/Src/stm32n6xx_hal_spi.c **** static void SPI_DMAError(DMA_HandleTypeDef *hdma);
 171:STM32Cube_FW_N6/Drivers/STM32N6xx_HAL_Driver/Src/stm32n6xx_hal_spi.c **** static void SPI_DMAAbortOnError(DMA_HandleTypeDef *hdma);
 172:STM32Cube_FW_N6/Drivers/STM32N6xx_HAL_Driver/Src/stm32n6xx_hal_spi.c **** static void SPI_DMATxAbortCallback(DMA_HandleTypeDef *hdma);
 173:STM32Cube_FW_N6/Drivers/STM32N6xx_HAL_Driver/Src/stm32n6xx_hal_spi.c **** static void SPI_DMARxAbortCallback(DMA_HandleTypeDef *hdma);
 174:STM32Cube_FW_N6/Drivers/STM32N6xx_HAL_Driver/Src/stm32n6xx_hal_spi.c **** static HAL_StatusTypeDef SPI_WaitOnFlagUntilTimeout(const SPI_HandleTypeDef *hspi, uint32_t Flag,
 175:STM32Cube_FW_N6/Drivers/STM32N6xx_HAL_Driver/Src/stm32n6xx_hal_spi.c ****                                                     FlagStatus FlagStatus, uint32_t Timeout, uint32
 176:STM32Cube_FW_N6/Drivers/STM32N6xx_HAL_Driver/Src/stm32n6xx_hal_spi.c **** static void SPI_TxISR_8BIT(SPI_HandleTypeDef *hspi);
 177:STM32Cube_FW_N6/Drivers/STM32N6xx_HAL_Driver/Src/stm32n6xx_hal_spi.c **** static void SPI_TxISR_16BIT(SPI_HandleTypeDef *hspi);
 178:STM32Cube_FW_N6/Drivers/STM32N6xx_HAL_Driver/Src/stm32n6xx_hal_spi.c **** static void SPI_TxISR_32BIT(SPI_HandleTypeDef *hspi);
 179:STM32Cube_FW_N6/Drivers/STM32N6xx_HAL_Driver/Src/stm32n6xx_hal_spi.c **** static void SPI_RxISR_8BIT(SPI_HandleTypeDef *hspi);
 180:STM32Cube_FW_N6/Drivers/STM32N6xx_HAL_Driver/Src/stm32n6xx_hal_spi.c **** static void SPI_RxISR_16BIT(SPI_HandleTypeDef *hspi);
 181:STM32Cube_FW_N6/Drivers/STM32N6xx_HAL_Driver/Src/stm32n6xx_hal_spi.c **** static void SPI_RxISR_32BIT(SPI_HandleTypeDef *hspi);
 182:STM32Cube_FW_N6/Drivers/STM32N6xx_HAL_Driver/Src/stm32n6xx_hal_spi.c **** static void SPI_AbortTransfer(SPI_HandleTypeDef *hspi);
 183:STM32Cube_FW_N6/Drivers/STM32N6xx_HAL_Driver/Src/stm32n6xx_hal_spi.c **** static void SPI_CloseTransfer(SPI_HandleTypeDef *hspi);
ARM GAS  /tmp/ccwTXtVb.s 			page 5


 184:STM32Cube_FW_N6/Drivers/STM32N6xx_HAL_Driver/Src/stm32n6xx_hal_spi.c **** static uint32_t SPI_GetPacketSize(const SPI_HandleTypeDef *hspi);
 185:STM32Cube_FW_N6/Drivers/STM32N6xx_HAL_Driver/Src/stm32n6xx_hal_spi.c **** 
 186:STM32Cube_FW_N6/Drivers/STM32N6xx_HAL_Driver/Src/stm32n6xx_hal_spi.c **** 
 187:STM32Cube_FW_N6/Drivers/STM32N6xx_HAL_Driver/Src/stm32n6xx_hal_spi.c **** /**
 188:STM32Cube_FW_N6/Drivers/STM32N6xx_HAL_Driver/Src/stm32n6xx_hal_spi.c ****   * @}
 189:STM32Cube_FW_N6/Drivers/STM32N6xx_HAL_Driver/Src/stm32n6xx_hal_spi.c ****   */
 190:STM32Cube_FW_N6/Drivers/STM32N6xx_HAL_Driver/Src/stm32n6xx_hal_spi.c **** 
 191:STM32Cube_FW_N6/Drivers/STM32N6xx_HAL_Driver/Src/stm32n6xx_hal_spi.c **** /* Exported functions --------------------------------------------------------*/
 192:STM32Cube_FW_N6/Drivers/STM32N6xx_HAL_Driver/Src/stm32n6xx_hal_spi.c **** /** @defgroup SPI_Exported_Functions SPI Exported Functions
 193:STM32Cube_FW_N6/Drivers/STM32N6xx_HAL_Driver/Src/stm32n6xx_hal_spi.c ****   * @{
 194:STM32Cube_FW_N6/Drivers/STM32N6xx_HAL_Driver/Src/stm32n6xx_hal_spi.c ****   */
 195:STM32Cube_FW_N6/Drivers/STM32N6xx_HAL_Driver/Src/stm32n6xx_hal_spi.c **** 
 196:STM32Cube_FW_N6/Drivers/STM32N6xx_HAL_Driver/Src/stm32n6xx_hal_spi.c **** /** @defgroup SPI_Exported_Functions_Group1 Initialization and de-initialization functions
 197:STM32Cube_FW_N6/Drivers/STM32N6xx_HAL_Driver/Src/stm32n6xx_hal_spi.c ****   *  @brief    Initialization and Configuration functions
 198:STM32Cube_FW_N6/Drivers/STM32N6xx_HAL_Driver/Src/stm32n6xx_hal_spi.c ****   *
 199:STM32Cube_FW_N6/Drivers/STM32N6xx_HAL_Driver/Src/stm32n6xx_hal_spi.c **** @verbatim
 200:STM32Cube_FW_N6/Drivers/STM32N6xx_HAL_Driver/Src/stm32n6xx_hal_spi.c ****  ===============================================================================
 201:STM32Cube_FW_N6/Drivers/STM32N6xx_HAL_Driver/Src/stm32n6xx_hal_spi.c ****               ##### Initialization and de-initialization functions #####
 202:STM32Cube_FW_N6/Drivers/STM32N6xx_HAL_Driver/Src/stm32n6xx_hal_spi.c ****  ===============================================================================
 203:STM32Cube_FW_N6/Drivers/STM32N6xx_HAL_Driver/Src/stm32n6xx_hal_spi.c ****     [..]  This subsection provides a set of functions allowing to initialize and
 204:STM32Cube_FW_N6/Drivers/STM32N6xx_HAL_Driver/Src/stm32n6xx_hal_spi.c ****           de-initialize the SPIx peripheral:
 205:STM32Cube_FW_N6/Drivers/STM32N6xx_HAL_Driver/Src/stm32n6xx_hal_spi.c **** 
 206:STM32Cube_FW_N6/Drivers/STM32N6xx_HAL_Driver/Src/stm32n6xx_hal_spi.c ****       (+) User must implement HAL_SPI_MspInit() function in which he configures
 207:STM32Cube_FW_N6/Drivers/STM32N6xx_HAL_Driver/Src/stm32n6xx_hal_spi.c ****           all related peripherals resources (CLOCK, GPIO, DMA, IT and NVIC ).
 208:STM32Cube_FW_N6/Drivers/STM32N6xx_HAL_Driver/Src/stm32n6xx_hal_spi.c **** 
 209:STM32Cube_FW_N6/Drivers/STM32N6xx_HAL_Driver/Src/stm32n6xx_hal_spi.c ****       (+) Call the function HAL_SPI_Init() to configure the selected device with
 210:STM32Cube_FW_N6/Drivers/STM32N6xx_HAL_Driver/Src/stm32n6xx_hal_spi.c ****           the selected configuration:
 211:STM32Cube_FW_N6/Drivers/STM32N6xx_HAL_Driver/Src/stm32n6xx_hal_spi.c ****         (++) Mode
 212:STM32Cube_FW_N6/Drivers/STM32N6xx_HAL_Driver/Src/stm32n6xx_hal_spi.c ****         (++) Direction
 213:STM32Cube_FW_N6/Drivers/STM32N6xx_HAL_Driver/Src/stm32n6xx_hal_spi.c ****         (++) Data Size
 214:STM32Cube_FW_N6/Drivers/STM32N6xx_HAL_Driver/Src/stm32n6xx_hal_spi.c ****         (++) Clock Polarity and Phase
 215:STM32Cube_FW_N6/Drivers/STM32N6xx_HAL_Driver/Src/stm32n6xx_hal_spi.c ****         (++) NSS Management
 216:STM32Cube_FW_N6/Drivers/STM32N6xx_HAL_Driver/Src/stm32n6xx_hal_spi.c ****         (++) BaudRate Prescaler
 217:STM32Cube_FW_N6/Drivers/STM32N6xx_HAL_Driver/Src/stm32n6xx_hal_spi.c ****         (++) FirstBit
 218:STM32Cube_FW_N6/Drivers/STM32N6xx_HAL_Driver/Src/stm32n6xx_hal_spi.c ****         (++) TIMode
 219:STM32Cube_FW_N6/Drivers/STM32N6xx_HAL_Driver/Src/stm32n6xx_hal_spi.c ****         (++) CRC Calculation
 220:STM32Cube_FW_N6/Drivers/STM32N6xx_HAL_Driver/Src/stm32n6xx_hal_spi.c ****         (++) CRC Polynomial if CRC enabled
 221:STM32Cube_FW_N6/Drivers/STM32N6xx_HAL_Driver/Src/stm32n6xx_hal_spi.c ****         (++) CRC Length, used only with Data8 and Data16
 222:STM32Cube_FW_N6/Drivers/STM32N6xx_HAL_Driver/Src/stm32n6xx_hal_spi.c ****         (++) FIFO reception threshold
 223:STM32Cube_FW_N6/Drivers/STM32N6xx_HAL_Driver/Src/stm32n6xx_hal_spi.c ****         (++) FIFO transmission threshold
 224:STM32Cube_FW_N6/Drivers/STM32N6xx_HAL_Driver/Src/stm32n6xx_hal_spi.c **** 
 225:STM32Cube_FW_N6/Drivers/STM32N6xx_HAL_Driver/Src/stm32n6xx_hal_spi.c ****       (+) Call the function HAL_SPI_DeInit() to restore the default configuration
 226:STM32Cube_FW_N6/Drivers/STM32N6xx_HAL_Driver/Src/stm32n6xx_hal_spi.c ****           of the selected SPIx peripheral.
 227:STM32Cube_FW_N6/Drivers/STM32N6xx_HAL_Driver/Src/stm32n6xx_hal_spi.c **** 
 228:STM32Cube_FW_N6/Drivers/STM32N6xx_HAL_Driver/Src/stm32n6xx_hal_spi.c **** @endverbatim
 229:STM32Cube_FW_N6/Drivers/STM32N6xx_HAL_Driver/Src/stm32n6xx_hal_spi.c ****   * @{
 230:STM32Cube_FW_N6/Drivers/STM32N6xx_HAL_Driver/Src/stm32n6xx_hal_spi.c ****   */
 231:STM32Cube_FW_N6/Drivers/STM32N6xx_HAL_Driver/Src/stm32n6xx_hal_spi.c **** 
 232:STM32Cube_FW_N6/Drivers/STM32N6xx_HAL_Driver/Src/stm32n6xx_hal_spi.c **** /**
 233:STM32Cube_FW_N6/Drivers/STM32N6xx_HAL_Driver/Src/stm32n6xx_hal_spi.c ****   * @brief  Initialize the SPI according to the specified parameters
 234:STM32Cube_FW_N6/Drivers/STM32N6xx_HAL_Driver/Src/stm32n6xx_hal_spi.c ****   *         in the SPI_InitTypeDef and initialize the associated handle.
 235:STM32Cube_FW_N6/Drivers/STM32N6xx_HAL_Driver/Src/stm32n6xx_hal_spi.c ****   * @param  hspi: pointer to a SPI_HandleTypeDef structure that contains
 236:STM32Cube_FW_N6/Drivers/STM32N6xx_HAL_Driver/Src/stm32n6xx_hal_spi.c ****   *               the configuration information for SPI module.
 237:STM32Cube_FW_N6/Drivers/STM32N6xx_HAL_Driver/Src/stm32n6xx_hal_spi.c ****   * @retval HAL status
 238:STM32Cube_FW_N6/Drivers/STM32N6xx_HAL_Driver/Src/stm32n6xx_hal_spi.c ****   */
 239:STM32Cube_FW_N6/Drivers/STM32N6xx_HAL_Driver/Src/stm32n6xx_hal_spi.c **** HAL_StatusTypeDef HAL_SPI_Init(SPI_HandleTypeDef *hspi)
 240:STM32Cube_FW_N6/Drivers/STM32N6xx_HAL_Driver/Src/stm32n6xx_hal_spi.c **** {
ARM GAS  /tmp/ccwTXtVb.s 			page 6


  39              		.loc 1 240 1
  40              		.cfi_startproc
  41              		@ args = 0, pretend = 0, frame = 24
  42              		@ frame_needed = 1, uses_anonymous_args = 0
  43 0000 80B5     		push	{r7, lr}
  44              		.cfi_def_cfa_offset 8
  45              		.cfi_offset 7, -8
  46              		.cfi_offset 14, -4
  47 0002 86B0     		sub	sp, sp, #24
  48              		.cfi_def_cfa_offset 32
  49 0004 00AF     		add	r7, sp, #0
  50              		.cfi_def_cfa_register 7
  51 0006 7860     		str	r0, [r7, #4]
 241:STM32Cube_FW_N6/Drivers/STM32N6xx_HAL_Driver/Src/stm32n6xx_hal_spi.c ****   uint32_t crc_length;
 242:STM32Cube_FW_N6/Drivers/STM32N6xx_HAL_Driver/Src/stm32n6xx_hal_spi.c ****   uint32_t packet_length;
 243:STM32Cube_FW_N6/Drivers/STM32N6xx_HAL_Driver/Src/stm32n6xx_hal_spi.c **** #if (USE_SPI_CRC != 0UL)
 244:STM32Cube_FW_N6/Drivers/STM32N6xx_HAL_Driver/Src/stm32n6xx_hal_spi.c ****   uint32_t crc_poly_msb_mask;
 245:STM32Cube_FW_N6/Drivers/STM32N6xx_HAL_Driver/Src/stm32n6xx_hal_spi.c **** #endif /* USE_SPI_CRC */
 246:STM32Cube_FW_N6/Drivers/STM32N6xx_HAL_Driver/Src/stm32n6xx_hal_spi.c **** 
 247:STM32Cube_FW_N6/Drivers/STM32N6xx_HAL_Driver/Src/stm32n6xx_hal_spi.c ****   /* Check the SPI handle allocation */
 248:STM32Cube_FW_N6/Drivers/STM32N6xx_HAL_Driver/Src/stm32n6xx_hal_spi.c ****   if (hspi == NULL)
  52              		.loc 1 248 6
  53 0008 7B68     		ldr	r3, [r7, #4]
  54 000a 002B     		cmp	r3, #0
  55 000c 02D1     		bne	.L2
 249:STM32Cube_FW_N6/Drivers/STM32N6xx_HAL_Driver/Src/stm32n6xx_hal_spi.c ****   {
 250:STM32Cube_FW_N6/Drivers/STM32N6xx_HAL_Driver/Src/stm32n6xx_hal_spi.c ****     return HAL_ERROR;
  56              		.loc 1 250 12
  57 000e 0123     		movs	r3, #1
  58 0010 00F072BD 		b	.L3
  59              	.L2:
 251:STM32Cube_FW_N6/Drivers/STM32N6xx_HAL_Driver/Src/stm32n6xx_hal_spi.c ****   }
 252:STM32Cube_FW_N6/Drivers/STM32N6xx_HAL_Driver/Src/stm32n6xx_hal_spi.c **** 
 253:STM32Cube_FW_N6/Drivers/STM32N6xx_HAL_Driver/Src/stm32n6xx_hal_spi.c ****   /* Check the parameters */
 254:STM32Cube_FW_N6/Drivers/STM32N6xx_HAL_Driver/Src/stm32n6xx_hal_spi.c ****   assert_param(IS_SPI_ALL_INSTANCE(hspi->Instance));
  60              		.loc 1 254 3
  61 0014 7B68     		ldr	r3, [r7, #4]
  62 0016 1B68     		ldr	r3, [r3]
  63 0018 584A     		ldr	r2, .L63
  64 001a 9342     		cmp	r3, r2
  65 001c 3AD0     		beq	.L4
  66              		.loc 1 254 3 is_stmt 0 discriminator 1
  67 001e 7B68     		ldr	r3, [r7, #4]
  68 0020 1B68     		ldr	r3, [r3]
  69 0022 574A     		ldr	r2, .L63+4
  70 0024 9342     		cmp	r3, r2
  71 0026 35D0     		beq	.L4
  72              		.loc 1 254 3 discriminator 2
  73 0028 7B68     		ldr	r3, [r7, #4]
  74 002a 1B68     		ldr	r3, [r3]
  75 002c 554A     		ldr	r2, .L63+8
  76 002e 9342     		cmp	r3, r2
  77 0030 30D0     		beq	.L4
  78              		.loc 1 254 3 discriminator 3
  79 0032 7B68     		ldr	r3, [r7, #4]
  80 0034 1B68     		ldr	r3, [r3]
  81 0036 544A     		ldr	r2, .L63+12
ARM GAS  /tmp/ccwTXtVb.s 			page 7


  82 0038 9342     		cmp	r3, r2
  83 003a 2BD0     		beq	.L4
  84              		.loc 1 254 3 discriminator 4
  85 003c 7B68     		ldr	r3, [r7, #4]
  86 003e 1B68     		ldr	r3, [r3]
  87 0040 524A     		ldr	r2, .L63+16
  88 0042 9342     		cmp	r3, r2
  89 0044 26D0     		beq	.L4
  90              		.loc 1 254 3 discriminator 5
  91 0046 7B68     		ldr	r3, [r7, #4]
  92 0048 1B68     		ldr	r3, [r3]
  93 004a 514A     		ldr	r2, .L63+20
  94 004c 9342     		cmp	r3, r2
  95 004e 21D0     		beq	.L4
  96              		.loc 1 254 3 discriminator 6
  97 0050 7B68     		ldr	r3, [r7, #4]
  98 0052 1B68     		ldr	r3, [r3]
  99 0054 4F4A     		ldr	r2, .L63+24
 100 0056 9342     		cmp	r3, r2
 101 0058 1CD0     		beq	.L4
 102              		.loc 1 254 3 discriminator 7
 103 005a 7B68     		ldr	r3, [r7, #4]
 104 005c 1B68     		ldr	r3, [r3]
 105 005e 4E4A     		ldr	r2, .L63+28
 106 0060 9342     		cmp	r3, r2
 107 0062 17D0     		beq	.L4
 108              		.loc 1 254 3 discriminator 8
 109 0064 7B68     		ldr	r3, [r7, #4]
 110 0066 1B68     		ldr	r3, [r3]
 111 0068 4C4A     		ldr	r2, .L63+32
 112 006a 9342     		cmp	r3, r2
 113 006c 12D0     		beq	.L4
 114              		.loc 1 254 3 discriminator 9
 115 006e 7B68     		ldr	r3, [r7, #4]
 116 0070 1B68     		ldr	r3, [r3]
 117 0072 4B4A     		ldr	r2, .L63+36
 118 0074 9342     		cmp	r3, r2
 119 0076 0DD0     		beq	.L4
 120              		.loc 1 254 3 discriminator 10
 121 0078 7B68     		ldr	r3, [r7, #4]
 122 007a 1B68     		ldr	r3, [r3]
 123 007c 494A     		ldr	r2, .L63+40
 124 007e 9342     		cmp	r3, r2
 125 0080 08D0     		beq	.L4
 126              		.loc 1 254 3 discriminator 11
 127 0082 7B68     		ldr	r3, [r7, #4]
 128 0084 1B68     		ldr	r3, [r3]
 129 0086 484A     		ldr	r2, .L63+44
 130 0088 9342     		cmp	r3, r2
 131 008a 03D0     		beq	.L4
 132              		.loc 1 254 3 discriminator 12
 133 008c FE21     		movs	r1, #254
 134 008e 4748     		ldr	r0, .L63+48
 135 0090 FFF7FEFF 		bl	assert_failed
 136              	.L4:
 255:STM32Cube_FW_N6/Drivers/STM32N6xx_HAL_Driver/Src/stm32n6xx_hal_spi.c ****   assert_param(IS_SPI_MODE(hspi->Init.Mode));
 137              		.loc 1 255 3 is_stmt 1
ARM GAS  /tmp/ccwTXtVb.s 			page 8


 138 0094 7B68     		ldr	r3, [r7, #4]
 139 0096 5B68     		ldr	r3, [r3, #4]
 140 0098 002B     		cmp	r3, #0
 141 009a 08D0     		beq	.L5
 142              		.loc 1 255 3 is_stmt 0 discriminator 1
 143 009c 7B68     		ldr	r3, [r7, #4]
 144 009e 5B68     		ldr	r3, [r3, #4]
 145 00a0 B3F5800F 		cmp	r3, #4194304
 146 00a4 03D0     		beq	.L5
 147              		.loc 1 255 3 discriminator 2
 148 00a6 FF21     		movs	r1, #255
 149 00a8 4048     		ldr	r0, .L63+48
 150 00aa FFF7FEFF 		bl	assert_failed
 151              	.L5:
 256:STM32Cube_FW_N6/Drivers/STM32N6xx_HAL_Driver/Src/stm32n6xx_hal_spi.c ****   assert_param(IS_SPI_DIRECTION(hspi->Init.Direction));
 152              		.loc 1 256 3 is_stmt 1
 153 00ae 7B68     		ldr	r3, [r7, #4]
 154 00b0 9B68     		ldr	r3, [r3, #8]
 155 00b2 002B     		cmp	r3, #0
 156 00b4 13D0     		beq	.L6
 157              		.loc 1 256 3 is_stmt 0 discriminator 1
 158 00b6 7B68     		ldr	r3, [r7, #4]
 159 00b8 9B68     		ldr	r3, [r3, #8]
 160 00ba B3F5802F 		cmp	r3, #262144
 161 00be 0ED0     		beq	.L6
 162              		.loc 1 256 3 discriminator 2
 163 00c0 7B68     		ldr	r3, [r7, #4]
 164 00c2 9B68     		ldr	r3, [r3, #8]
 165 00c4 B3F5C02F 		cmp	r3, #393216
 166 00c8 09D0     		beq	.L6
 167              		.loc 1 256 3 discriminator 3
 168 00ca 7B68     		ldr	r3, [r7, #4]
 169 00cc 9B68     		ldr	r3, [r3, #8]
 170 00ce B3F5003F 		cmp	r3, #131072
 171 00d2 04D0     		beq	.L6
 172              		.loc 1 256 3 discriminator 4
 173 00d4 4FF48071 		mov	r1, #256
 174 00d8 3448     		ldr	r0, .L63+48
 175 00da FFF7FEFF 		bl	assert_failed
 176              	.L6:
 257:STM32Cube_FW_N6/Drivers/STM32N6xx_HAL_Driver/Src/stm32n6xx_hal_spi.c ****   if (IS_SPI_LIMITED_INSTANCE(hspi->Instance))
 177              		.loc 1 257 7 is_stmt 1
 178 00de 7B68     		ldr	r3, [r7, #4]
 179 00e0 1B68     		ldr	r3, [r3]
 180              		.loc 1 257 6
 181 00e2 2C4A     		ldr	r2, .L63+24
 182 00e4 9342     		cmp	r3, r2
 183 00e6 0ED0     		beq	.L7
 184              		.loc 1 257 7 discriminator 1
 185 00e8 7B68     		ldr	r3, [r7, #4]
 186 00ea 1B68     		ldr	r3, [r3]
 187 00ec 2A4A     		ldr	r2, .L63+28
 188 00ee 9342     		cmp	r3, r2
 189 00f0 09D0     		beq	.L7
 190              		.loc 1 257 7 is_stmt 0 discriminator 2
 191 00f2 7B68     		ldr	r3, [r7, #4]
 192 00f4 1B68     		ldr	r3, [r3]
ARM GAS  /tmp/ccwTXtVb.s 			page 9


 193 00f6 294A     		ldr	r2, .L63+32
 194 00f8 9342     		cmp	r3, r2
 195 00fa 04D0     		beq	.L7
 196              		.loc 1 257 7 discriminator 3
 197 00fc 7B68     		ldr	r3, [r7, #4]
 198 00fe 1B68     		ldr	r3, [r3]
 199 0100 274A     		ldr	r2, .L63+36
 200 0102 9342     		cmp	r3, r2
 201 0104 54D1     		bne	.L8
 202              	.L7:
 258:STM32Cube_FW_N6/Drivers/STM32N6xx_HAL_Driver/Src/stm32n6xx_hal_spi.c ****   {
 259:STM32Cube_FW_N6/Drivers/STM32N6xx_HAL_Driver/Src/stm32n6xx_hal_spi.c ****     assert_param(IS_SPI_LIMITED_DATASIZE(hspi->Init.DataSize));
 203              		.loc 1 259 5 is_stmt 1
 204 0106 7B68     		ldr	r3, [r7, #4]
 205 0108 DB68     		ldr	r3, [r3, #12]
 206 010a 0F2B     		cmp	r3, #15
 207 010c 08D0     		beq	.L9
 208              		.loc 1 259 5 is_stmt 0 discriminator 1
 209 010e 7B68     		ldr	r3, [r7, #4]
 210 0110 DB68     		ldr	r3, [r3, #12]
 211 0112 072B     		cmp	r3, #7
 212 0114 04D0     		beq	.L9
 213              		.loc 1 259 5 discriminator 2
 214 0116 40F20311 		movw	r1, #259
 215 011a 2448     		ldr	r0, .L63+48
 216 011c FFF7FEFF 		bl	assert_failed
 217              	.L9:
 260:STM32Cube_FW_N6/Drivers/STM32N6xx_HAL_Driver/Src/stm32n6xx_hal_spi.c ****     assert_param(IS_SPI_LIMITED_FIFOTHRESHOLD(hspi->Init.FifoThreshold));
 218              		.loc 1 260 5 is_stmt 1
 219 0120 7B68     		ldr	r3, [r7, #4]
 220 0122 DB6B     		ldr	r3, [r3, #60]
 221 0124 002B     		cmp	r3, #0
 222 0126 00F00D81 		beq	.L11
 223              		.loc 1 260 5 is_stmt 0 discriminator 1
 224 012a 7B68     		ldr	r3, [r7, #4]
 225 012c DB6B     		ldr	r3, [r3, #60]
 226 012e 202B     		cmp	r3, #32
 227 0130 00F00881 		beq	.L11
 228              		.loc 1 260 5 discriminator 2
 229 0134 7B68     		ldr	r3, [r7, #4]
 230 0136 DB6B     		ldr	r3, [r3, #60]
 231 0138 402B     		cmp	r3, #64
 232 013a 00F00381 		beq	.L11
 233              		.loc 1 260 5 discriminator 3
 234 013e 7B68     		ldr	r3, [r7, #4]
 235 0140 DB6B     		ldr	r3, [r3, #60]
 236 0142 602B     		cmp	r3, #96
 237 0144 00F0FE80 		beq	.L11
 238              		.loc 1 260 5 discriminator 4
 239 0148 7B68     		ldr	r3, [r7, #4]
 240 014a DB6B     		ldr	r3, [r3, #60]
 241 014c 802B     		cmp	r3, #128
 242 014e 00F0F980 		beq	.L11
 243              		.loc 1 260 5 discriminator 5
 244 0152 7B68     		ldr	r3, [r7, #4]
 245 0154 DB6B     		ldr	r3, [r3, #60]
 246 0156 A02B     		cmp	r3, #160
ARM GAS  /tmp/ccwTXtVb.s 			page 10


 247 0158 00F0F480 		beq	.L11
 248              		.loc 1 260 5 discriminator 6
 249 015c 7B68     		ldr	r3, [r7, #4]
 250 015e DB6B     		ldr	r3, [r3, #60]
 251 0160 C02B     		cmp	r3, #192
 252 0162 00F0EF80 		beq	.L11
 253              		.loc 1 260 5 discriminator 7
 254 0166 7B68     		ldr	r3, [r7, #4]
 255 0168 DB6B     		ldr	r3, [r3, #60]
 256 016a E02B     		cmp	r3, #224
 257 016c 00F0EA80 		beq	.L11
 258              		.loc 1 260 5 discriminator 8
 259 0170 4FF48271 		mov	r1, #260
 260 0174 0D48     		ldr	r0, .L63+48
 261 0176 FFF7FEFF 		bl	assert_failed
 262              		.loc 1 260 5
 263 017a E3E0     		b	.L11
 264              	.L64:
 265              		.align	2
 266              	.L63:
 267 017c 00300052 		.word	1375744000
 268 0180 00300042 		.word	1107308544
 269 0184 00380050 		.word	1342191616
 270 0188 00380040 		.word	1073756160
 271 018c 003C0050 		.word	1342192640
 272 0190 003C0040 		.word	1073757184
 273 0194 00340052 		.word	1375745024
 274 0198 00340042 		.word	1107309568
 275 019c 00500052 		.word	1375752192
 276 01a0 00500042 		.word	1107316736
 277 01a4 00140056 		.word	1442845696
 278 01a8 00140046 		.word	1174410240
 279 01ac 00000000 		.word	.LC0
 280              	.L8:
 261:STM32Cube_FW_N6/Drivers/STM32N6xx_HAL_Driver/Src/stm32n6xx_hal_spi.c ****   }
 262:STM32Cube_FW_N6/Drivers/STM32N6xx_HAL_Driver/Src/stm32n6xx_hal_spi.c ****   else
 263:STM32Cube_FW_N6/Drivers/STM32N6xx_HAL_Driver/Src/stm32n6xx_hal_spi.c ****   {
 264:STM32Cube_FW_N6/Drivers/STM32N6xx_HAL_Driver/Src/stm32n6xx_hal_spi.c ****     assert_param(IS_SPI_DATASIZE(hspi->Init.DataSize));
 281              		.loc 1 264 5 is_stmt 1
 282 01b0 7B68     		ldr	r3, [r7, #4]
 283 01b2 DB68     		ldr	r3, [r3, #12]
 284 01b4 1F2B     		cmp	r3, #31
 285 01b6 78D0     		beq	.L12
 286              		.loc 1 264 5 is_stmt 0 discriminator 1
 287 01b8 7B68     		ldr	r3, [r7, #4]
 288 01ba DB68     		ldr	r3, [r3, #12]
 289 01bc 1E2B     		cmp	r3, #30
 290 01be 74D0     		beq	.L12
 291              		.loc 1 264 5 discriminator 2
 292 01c0 7B68     		ldr	r3, [r7, #4]
 293 01c2 DB68     		ldr	r3, [r3, #12]
 294 01c4 1D2B     		cmp	r3, #29
 295 01c6 70D0     		beq	.L12
 296              		.loc 1 264 5 discriminator 3
 297 01c8 7B68     		ldr	r3, [r7, #4]
 298 01ca DB68     		ldr	r3, [r3, #12]
 299 01cc 1C2B     		cmp	r3, #28
ARM GAS  /tmp/ccwTXtVb.s 			page 11


 300 01ce 6CD0     		beq	.L12
 301              		.loc 1 264 5 discriminator 4
 302 01d0 7B68     		ldr	r3, [r7, #4]
 303 01d2 DB68     		ldr	r3, [r3, #12]
 304 01d4 1B2B     		cmp	r3, #27
 305 01d6 68D0     		beq	.L12
 306              		.loc 1 264 5 discriminator 5
 307 01d8 7B68     		ldr	r3, [r7, #4]
 308 01da DB68     		ldr	r3, [r3, #12]
 309 01dc 1A2B     		cmp	r3, #26
 310 01de 64D0     		beq	.L12
 311              		.loc 1 264 5 discriminator 6
 312 01e0 7B68     		ldr	r3, [r7, #4]
 313 01e2 DB68     		ldr	r3, [r3, #12]
 314 01e4 192B     		cmp	r3, #25
 315 01e6 60D0     		beq	.L12
 316              		.loc 1 264 5 discriminator 7
 317 01e8 7B68     		ldr	r3, [r7, #4]
 318 01ea DB68     		ldr	r3, [r3, #12]
 319 01ec 182B     		cmp	r3, #24
 320 01ee 5CD0     		beq	.L12
 321              		.loc 1 264 5 discriminator 8
 322 01f0 7B68     		ldr	r3, [r7, #4]
 323 01f2 DB68     		ldr	r3, [r3, #12]
 324 01f4 172B     		cmp	r3, #23
 325 01f6 58D0     		beq	.L12
 326              		.loc 1 264 5 discriminator 9
 327 01f8 7B68     		ldr	r3, [r7, #4]
 328 01fa DB68     		ldr	r3, [r3, #12]
 329 01fc 162B     		cmp	r3, #22
 330 01fe 54D0     		beq	.L12
 331              		.loc 1 264 5 discriminator 10
 332 0200 7B68     		ldr	r3, [r7, #4]
 333 0202 DB68     		ldr	r3, [r3, #12]
 334 0204 152B     		cmp	r3, #21
 335 0206 50D0     		beq	.L12
 336              		.loc 1 264 5 discriminator 11
 337 0208 7B68     		ldr	r3, [r7, #4]
 338 020a DB68     		ldr	r3, [r3, #12]
 339 020c 142B     		cmp	r3, #20
 340 020e 4CD0     		beq	.L12
 341              		.loc 1 264 5 discriminator 12
 342 0210 7B68     		ldr	r3, [r7, #4]
 343 0212 DB68     		ldr	r3, [r3, #12]
 344 0214 132B     		cmp	r3, #19
 345 0216 48D0     		beq	.L12
 346              		.loc 1 264 5 discriminator 13
 347 0218 7B68     		ldr	r3, [r7, #4]
 348 021a DB68     		ldr	r3, [r3, #12]
 349 021c 152B     		cmp	r3, #21
 350 021e 44D0     		beq	.L12
 351              		.loc 1 264 5 discriminator 14
 352 0220 7B68     		ldr	r3, [r7, #4]
 353 0222 DB68     		ldr	r3, [r3, #12]
 354 0224 122B     		cmp	r3, #18
 355 0226 40D0     		beq	.L12
 356              		.loc 1 264 5 discriminator 15
ARM GAS  /tmp/ccwTXtVb.s 			page 12


 357 0228 7B68     		ldr	r3, [r7, #4]
 358 022a DB68     		ldr	r3, [r3, #12]
 359 022c 112B     		cmp	r3, #17
 360 022e 3CD0     		beq	.L12
 361              		.loc 1 264 5 discriminator 16
 362 0230 7B68     		ldr	r3, [r7, #4]
 363 0232 DB68     		ldr	r3, [r3, #12]
 364 0234 102B     		cmp	r3, #16
 365 0236 38D0     		beq	.L12
 366              		.loc 1 264 5 discriminator 17
 367 0238 7B68     		ldr	r3, [r7, #4]
 368 023a DB68     		ldr	r3, [r3, #12]
 369 023c 0F2B     		cmp	r3, #15
 370 023e 34D0     		beq	.L12
 371              		.loc 1 264 5 discriminator 18
 372 0240 7B68     		ldr	r3, [r7, #4]
 373 0242 DB68     		ldr	r3, [r3, #12]
 374 0244 0E2B     		cmp	r3, #14
 375 0246 30D0     		beq	.L12
 376              		.loc 1 264 5 discriminator 19
 377 0248 7B68     		ldr	r3, [r7, #4]
 378 024a DB68     		ldr	r3, [r3, #12]
 379 024c 0D2B     		cmp	r3, #13
 380 024e 2CD0     		beq	.L12
 381              		.loc 1 264 5 discriminator 20
 382 0250 7B68     		ldr	r3, [r7, #4]
 383 0252 DB68     		ldr	r3, [r3, #12]
 384 0254 0C2B     		cmp	r3, #12
 385 0256 28D0     		beq	.L12
 386              		.loc 1 264 5 discriminator 21
 387 0258 7B68     		ldr	r3, [r7, #4]
 388 025a DB68     		ldr	r3, [r3, #12]
 389 025c 0B2B     		cmp	r3, #11
 390 025e 24D0     		beq	.L12
 391              		.loc 1 264 5 discriminator 22
 392 0260 7B68     		ldr	r3, [r7, #4]
 393 0262 DB68     		ldr	r3, [r3, #12]
 394 0264 0A2B     		cmp	r3, #10
 395 0266 20D0     		beq	.L12
 396              		.loc 1 264 5 discriminator 23
 397 0268 7B68     		ldr	r3, [r7, #4]
 398 026a DB68     		ldr	r3, [r3, #12]
 399 026c 092B     		cmp	r3, #9
 400 026e 1CD0     		beq	.L12
 401              		.loc 1 264 5 discriminator 24
 402 0270 7B68     		ldr	r3, [r7, #4]
 403 0272 DB68     		ldr	r3, [r3, #12]
 404 0274 082B     		cmp	r3, #8
 405 0276 18D0     		beq	.L12
 406              		.loc 1 264 5 discriminator 25
 407 0278 7B68     		ldr	r3, [r7, #4]
 408 027a DB68     		ldr	r3, [r3, #12]
 409 027c 072B     		cmp	r3, #7
 410 027e 14D0     		beq	.L12
 411              		.loc 1 264 5 discriminator 26
 412 0280 7B68     		ldr	r3, [r7, #4]
 413 0282 DB68     		ldr	r3, [r3, #12]
ARM GAS  /tmp/ccwTXtVb.s 			page 13


 414 0284 062B     		cmp	r3, #6
 415 0286 10D0     		beq	.L12
 416              		.loc 1 264 5 discriminator 27
 417 0288 7B68     		ldr	r3, [r7, #4]
 418 028a DB68     		ldr	r3, [r3, #12]
 419 028c 052B     		cmp	r3, #5
 420 028e 0CD0     		beq	.L12
 421              		.loc 1 264 5 discriminator 28
 422 0290 7B68     		ldr	r3, [r7, #4]
 423 0292 DB68     		ldr	r3, [r3, #12]
 424 0294 042B     		cmp	r3, #4
 425 0296 08D0     		beq	.L12
 426              		.loc 1 264 5 discriminator 29
 427 0298 7B68     		ldr	r3, [r7, #4]
 428 029a DB68     		ldr	r3, [r3, #12]
 429 029c 032B     		cmp	r3, #3
 430 029e 04D0     		beq	.L12
 431              		.loc 1 264 5 discriminator 30
 432 02a0 4FF48471 		mov	r1, #264
 433 02a4 8B48     		ldr	r0, .L65
 434 02a6 FFF7FEFF 		bl	assert_failed
 435              	.L12:
 265:STM32Cube_FW_N6/Drivers/STM32N6xx_HAL_Driver/Src/stm32n6xx_hal_spi.c ****     assert_param(IS_SPI_FIFOTHRESHOLD(hspi->Init.FifoThreshold));
 436              		.loc 1 265 5 is_stmt 1
 437 02aa 7B68     		ldr	r3, [r7, #4]
 438 02ac DB6B     		ldr	r3, [r3, #60]
 439 02ae 002B     		cmp	r3, #0
 440 02b0 48D0     		beq	.L11
 441              		.loc 1 265 5 is_stmt 0 discriminator 1
 442 02b2 7B68     		ldr	r3, [r7, #4]
 443 02b4 DB6B     		ldr	r3, [r3, #60]
 444 02b6 202B     		cmp	r3, #32
 445 02b8 44D0     		beq	.L11
 446              		.loc 1 265 5 discriminator 2
 447 02ba 7B68     		ldr	r3, [r7, #4]
 448 02bc DB6B     		ldr	r3, [r3, #60]
 449 02be 402B     		cmp	r3, #64
 450 02c0 40D0     		beq	.L11
 451              		.loc 1 265 5 discriminator 3
 452 02c2 7B68     		ldr	r3, [r7, #4]
 453 02c4 DB6B     		ldr	r3, [r3, #60]
 454 02c6 602B     		cmp	r3, #96
 455 02c8 3CD0     		beq	.L11
 456              		.loc 1 265 5 discriminator 4
 457 02ca 7B68     		ldr	r3, [r7, #4]
 458 02cc DB6B     		ldr	r3, [r3, #60]
 459 02ce 802B     		cmp	r3, #128
 460 02d0 38D0     		beq	.L11
 461              		.loc 1 265 5 discriminator 5
 462 02d2 7B68     		ldr	r3, [r7, #4]
 463 02d4 DB6B     		ldr	r3, [r3, #60]
 464 02d6 A02B     		cmp	r3, #160
 465 02d8 34D0     		beq	.L11
 466              		.loc 1 265 5 discriminator 6
 467 02da 7B68     		ldr	r3, [r7, #4]
 468 02dc DB6B     		ldr	r3, [r3, #60]
 469 02de C02B     		cmp	r3, #192
ARM GAS  /tmp/ccwTXtVb.s 			page 14


 470 02e0 30D0     		beq	.L11
 471              		.loc 1 265 5 discriminator 7
 472 02e2 7B68     		ldr	r3, [r7, #4]
 473 02e4 DB6B     		ldr	r3, [r3, #60]
 474 02e6 E02B     		cmp	r3, #224
 475 02e8 2CD0     		beq	.L11
 476              		.loc 1 265 5 discriminator 8
 477 02ea 7B68     		ldr	r3, [r7, #4]
 478 02ec DB6B     		ldr	r3, [r3, #60]
 479 02ee B3F5807F 		cmp	r3, #256
 480 02f2 27D0     		beq	.L11
 481              		.loc 1 265 5 discriminator 9
 482 02f4 7B68     		ldr	r3, [r7, #4]
 483 02f6 DB6B     		ldr	r3, [r3, #60]
 484 02f8 B3F5907F 		cmp	r3, #288
 485 02fc 22D0     		beq	.L11
 486              		.loc 1 265 5 discriminator 10
 487 02fe 7B68     		ldr	r3, [r7, #4]
 488 0300 DB6B     		ldr	r3, [r3, #60]
 489 0302 B3F5A07F 		cmp	r3, #320
 490 0306 1DD0     		beq	.L11
 491              		.loc 1 265 5 discriminator 11
 492 0308 7B68     		ldr	r3, [r7, #4]
 493 030a DB6B     		ldr	r3, [r3, #60]
 494 030c B3F5B07F 		cmp	r3, #352
 495 0310 18D0     		beq	.L11
 496              		.loc 1 265 5 discriminator 12
 497 0312 7B68     		ldr	r3, [r7, #4]
 498 0314 DB6B     		ldr	r3, [r3, #60]
 499 0316 B3F5C07F 		cmp	r3, #384
 500 031a 13D0     		beq	.L11
 501              		.loc 1 265 5 discriminator 13
 502 031c 7B68     		ldr	r3, [r7, #4]
 503 031e DB6B     		ldr	r3, [r3, #60]
 504 0320 B3F5D07F 		cmp	r3, #416
 505 0324 0ED0     		beq	.L11
 506              		.loc 1 265 5 discriminator 14
 507 0326 7B68     		ldr	r3, [r7, #4]
 508 0328 DB6B     		ldr	r3, [r3, #60]
 509 032a B3F5E07F 		cmp	r3, #448
 510 032e 09D0     		beq	.L11
 511              		.loc 1 265 5 discriminator 15
 512 0330 7B68     		ldr	r3, [r7, #4]
 513 0332 DB6B     		ldr	r3, [r3, #60]
 514 0334 B3F5F07F 		cmp	r3, #480
 515 0338 04D0     		beq	.L11
 516              		.loc 1 265 5 discriminator 16
 517 033a 40F20911 		movw	r1, #265
 518 033e 6548     		ldr	r0, .L65
 519 0340 FFF7FEFF 		bl	assert_failed
 520              	.L11:
 266:STM32Cube_FW_N6/Drivers/STM32N6xx_HAL_Driver/Src/stm32n6xx_hal_spi.c ****   }
 267:STM32Cube_FW_N6/Drivers/STM32N6xx_HAL_Driver/Src/stm32n6xx_hal_spi.c ****   assert_param(IS_SPI_NSS(hspi->Init.NSS));
 521              		.loc 1 267 3 is_stmt 1
 522 0344 7B68     		ldr	r3, [r7, #4]
 523 0346 9B69     		ldr	r3, [r3, #24]
 524 0348 B3F1806F 		cmp	r3, #67108864
ARM GAS  /tmp/ccwTXtVb.s 			page 15


 525 034c 0DD0     		beq	.L13
 526              		.loc 1 267 3 is_stmt 0 discriminator 1
 527 034e 7B68     		ldr	r3, [r7, #4]
 528 0350 9B69     		ldr	r3, [r3, #24]
 529 0352 002B     		cmp	r3, #0
 530 0354 09D0     		beq	.L13
 531              		.loc 1 267 3 discriminator 2
 532 0356 7B68     		ldr	r3, [r7, #4]
 533 0358 9B69     		ldr	r3, [r3, #24]
 534 035a B3F1005F 		cmp	r3, #536870912
 535 035e 04D0     		beq	.L13
 536              		.loc 1 267 3 discriminator 3
 537 0360 40F20B11 		movw	r1, #267
 538 0364 5B48     		ldr	r0, .L65
 539 0366 FFF7FEFF 		bl	assert_failed
 540              	.L13:
 268:STM32Cube_FW_N6/Drivers/STM32N6xx_HAL_Driver/Src/stm32n6xx_hal_spi.c ****   assert_param(IS_SPI_NSSP(hspi->Init.NSSPMode));
 541              		.loc 1 268 3 is_stmt 1
 542 036a 7B68     		ldr	r3, [r7, #4]
 543 036c 5B6B     		ldr	r3, [r3, #52]
 544 036e B3F1804F 		cmp	r3, #1073741824
 545 0372 08D0     		beq	.L14
 546              		.loc 1 268 3 is_stmt 0 discriminator 1
 547 0374 7B68     		ldr	r3, [r7, #4]
 548 0376 5B6B     		ldr	r3, [r3, #52]
 549 0378 002B     		cmp	r3, #0
 550 037a 04D0     		beq	.L14
 551              		.loc 1 268 3 discriminator 2
 552 037c 4FF48671 		mov	r1, #268
 553 0380 5448     		ldr	r0, .L65
 554 0382 FFF7FEFF 		bl	assert_failed
 555              	.L14:
 269:STM32Cube_FW_N6/Drivers/STM32N6xx_HAL_Driver/Src/stm32n6xx_hal_spi.c ****   assert_param(IS_SPI_BAUDRATE_PRESCALER(hspi->Init.BaudRatePrescaler));
 556              		.loc 1 269 3 is_stmt 1
 557 0386 7B68     		ldr	r3, [r7, #4]
 558 0388 DB69     		ldr	r3, [r3, #28]
 559 038a B3F1004F 		cmp	r3, #-2147483648
 560 038e 2BD0     		beq	.L15
 561              		.loc 1 269 3 is_stmt 0 discriminator 1
 562 0390 7B68     		ldr	r3, [r7, #4]
 563 0392 DB69     		ldr	r3, [r3, #28]
 564 0394 002B     		cmp	r3, #0
 565 0396 27D0     		beq	.L15
 566              		.loc 1 269 3 discriminator 2
 567 0398 7B68     		ldr	r3, [r7, #4]
 568 039a DB69     		ldr	r3, [r3, #28]
 569 039c B3F1805F 		cmp	r3, #268435456
 570 03a0 22D0     		beq	.L15
 571              		.loc 1 269 3 discriminator 3
 572 03a2 7B68     		ldr	r3, [r7, #4]
 573 03a4 DB69     		ldr	r3, [r3, #28]
 574 03a6 B3F1005F 		cmp	r3, #536870912
 575 03aa 1DD0     		beq	.L15
 576              		.loc 1 269 3 discriminator 4
 577 03ac 7B68     		ldr	r3, [r7, #4]
 578 03ae DB69     		ldr	r3, [r3, #28]
 579 03b0 B3F1405F 		cmp	r3, #805306368
ARM GAS  /tmp/ccwTXtVb.s 			page 16


 580 03b4 18D0     		beq	.L15
 581              		.loc 1 269 3 discriminator 5
 582 03b6 7B68     		ldr	r3, [r7, #4]
 583 03b8 DB69     		ldr	r3, [r3, #28]
 584 03ba B3F1804F 		cmp	r3, #1073741824
 585 03be 13D0     		beq	.L15
 586              		.loc 1 269 3 discriminator 6
 587 03c0 7B68     		ldr	r3, [r7, #4]
 588 03c2 DB69     		ldr	r3, [r3, #28]
 589 03c4 B3F1A04F 		cmp	r3, #1342177280
 590 03c8 0ED0     		beq	.L15
 591              		.loc 1 269 3 discriminator 7
 592 03ca 7B68     		ldr	r3, [r7, #4]
 593 03cc DB69     		ldr	r3, [r3, #28]
 594 03ce B3F1C04F 		cmp	r3, #1610612736
 595 03d2 09D0     		beq	.L15
 596              		.loc 1 269 3 discriminator 8
 597 03d4 7B68     		ldr	r3, [r7, #4]
 598 03d6 DB69     		ldr	r3, [r3, #28]
 599 03d8 B3F1E04F 		cmp	r3, #1879048192
 600 03dc 04D0     		beq	.L15
 601              		.loc 1 269 3 discriminator 9
 602 03de 40F20D11 		movw	r1, #269
 603 03e2 3C48     		ldr	r0, .L65
 604 03e4 FFF7FEFF 		bl	assert_failed
 605              	.L15:
 270:STM32Cube_FW_N6/Drivers/STM32N6xx_HAL_Driver/Src/stm32n6xx_hal_spi.c ****   assert_param(IS_SPI_FIRST_BIT(hspi->Init.FirstBit));
 606              		.loc 1 270 3 is_stmt 1
 607 03e8 7B68     		ldr	r3, [r7, #4]
 608 03ea 1B6A     		ldr	r3, [r3, #32]
 609 03ec 002B     		cmp	r3, #0
 610 03ee 09D0     		beq	.L16
 611              		.loc 1 270 3 is_stmt 0 discriminator 1
 612 03f0 7B68     		ldr	r3, [r7, #4]
 613 03f2 1B6A     		ldr	r3, [r3, #32]
 614 03f4 B3F5000F 		cmp	r3, #8388608
 615 03f8 04D0     		beq	.L16
 616              		.loc 1 270 3 discriminator 2
 617 03fa 4FF48771 		mov	r1, #270
 618 03fe 3548     		ldr	r0, .L65
 619 0400 FFF7FEFF 		bl	assert_failed
 620              	.L16:
 271:STM32Cube_FW_N6/Drivers/STM32N6xx_HAL_Driver/Src/stm32n6xx_hal_spi.c ****   assert_param(IS_SPI_TIMODE(hspi->Init.TIMode));
 621              		.loc 1 271 3 is_stmt 1
 622 0404 7B68     		ldr	r3, [r7, #4]
 623 0406 5B6A     		ldr	r3, [r3, #36]
 624 0408 002B     		cmp	r3, #0
 625 040a 09D0     		beq	.L17
 626              		.loc 1 271 3 is_stmt 0 discriminator 1
 627 040c 7B68     		ldr	r3, [r7, #4]
 628 040e 5B6A     		ldr	r3, [r3, #36]
 629 0410 B3F5002F 		cmp	r3, #524288
 630 0414 04D0     		beq	.L17
 631              		.loc 1 271 3 discriminator 2
 632 0416 40F20F11 		movw	r1, #271
 633 041a 2E48     		ldr	r0, .L65
 634 041c FFF7FEFF 		bl	assert_failed
ARM GAS  /tmp/ccwTXtVb.s 			page 17


 635              	.L17:
 272:STM32Cube_FW_N6/Drivers/STM32N6xx_HAL_Driver/Src/stm32n6xx_hal_spi.c ****   if (hspi->Init.TIMode == SPI_TIMODE_DISABLE)
 636              		.loc 1 272 17 is_stmt 1
 637 0420 7B68     		ldr	r3, [r7, #4]
 638 0422 5B6A     		ldr	r3, [r3, #36]
 639              		.loc 1 272 6
 640 0424 002B     		cmp	r3, #0
 641 0426 1BD1     		bne	.L18
 273:STM32Cube_FW_N6/Drivers/STM32N6xx_HAL_Driver/Src/stm32n6xx_hal_spi.c ****   {
 274:STM32Cube_FW_N6/Drivers/STM32N6xx_HAL_Driver/Src/stm32n6xx_hal_spi.c ****     assert_param(IS_SPI_CPOL(hspi->Init.CLKPolarity));
 642              		.loc 1 274 5
 643 0428 7B68     		ldr	r3, [r7, #4]
 644 042a 1B69     		ldr	r3, [r3, #16]
 645 042c 002B     		cmp	r3, #0
 646 042e 09D0     		beq	.L19
 647              		.loc 1 274 5 is_stmt 0 discriminator 1
 648 0430 7B68     		ldr	r3, [r7, #4]
 649 0432 1B69     		ldr	r3, [r3, #16]
 650 0434 B3F1007F 		cmp	r3, #33554432
 651 0438 04D0     		beq	.L19
 652              		.loc 1 274 5 discriminator 2
 653 043a 4FF48971 		mov	r1, #274
 654 043e 2548     		ldr	r0, .L65
 655 0440 FFF7FEFF 		bl	assert_failed
 656              	.L19:
 275:STM32Cube_FW_N6/Drivers/STM32N6xx_HAL_Driver/Src/stm32n6xx_hal_spi.c ****     assert_param(IS_SPI_CPHA(hspi->Init.CLKPhase));
 657              		.loc 1 275 5 is_stmt 1
 658 0444 7B68     		ldr	r3, [r7, #4]
 659 0446 5B69     		ldr	r3, [r3, #20]
 660 0448 002B     		cmp	r3, #0
 661 044a 09D0     		beq	.L18
 662              		.loc 1 275 5 is_stmt 0 discriminator 1
 663 044c 7B68     		ldr	r3, [r7, #4]
 664 044e 5B69     		ldr	r3, [r3, #20]
 665 0450 B3F1807F 		cmp	r3, #16777216
 666 0454 04D0     		beq	.L18
 667              		.loc 1 275 5 discriminator 2
 668 0456 40F21311 		movw	r1, #275
 669 045a 1E48     		ldr	r0, .L65
 670 045c FFF7FEFF 		bl	assert_failed
 671              	.L18:
 276:STM32Cube_FW_N6/Drivers/STM32N6xx_HAL_Driver/Src/stm32n6xx_hal_spi.c ****   }
 277:STM32Cube_FW_N6/Drivers/STM32N6xx_HAL_Driver/Src/stm32n6xx_hal_spi.c **** #if (USE_SPI_CRC != 0UL)
 278:STM32Cube_FW_N6/Drivers/STM32N6xx_HAL_Driver/Src/stm32n6xx_hal_spi.c ****   assert_param(IS_SPI_CRC_CALCULATION(hspi->Init.CRCCalculation));
 672              		.loc 1 278 3 is_stmt 1
 673 0460 7B68     		ldr	r3, [r7, #4]
 674 0462 9B6A     		ldr	r3, [r3, #40]
 675 0464 002B     		cmp	r3, #0
 676 0466 09D0     		beq	.L20
 677              		.loc 1 278 3 is_stmt 0 discriminator 1
 678 0468 7B68     		ldr	r3, [r7, #4]
 679 046a 9B6A     		ldr	r3, [r3, #40]
 680 046c B3F5800F 		cmp	r3, #4194304
 681 0470 04D0     		beq	.L20
 682              		.loc 1 278 3 discriminator 2
 683 0472 4FF48B71 		mov	r1, #278
 684 0476 1748     		ldr	r0, .L65
ARM GAS  /tmp/ccwTXtVb.s 			page 18


 685 0478 FFF7FEFF 		bl	assert_failed
 686              	.L20:
 279:STM32Cube_FW_N6/Drivers/STM32N6xx_HAL_Driver/Src/stm32n6xx_hal_spi.c ****   if (hspi->Init.CRCCalculation == SPI_CRCCALCULATION_ENABLE)
 687              		.loc 1 279 17 is_stmt 1
 688 047c 7B68     		ldr	r3, [r7, #4]
 689 047e 9B6A     		ldr	r3, [r3, #40]
 690              		.loc 1 279 6
 691 0480 B3F5800F 		cmp	r3, #4194304
 692 0484 40F0F280 		bne	.L21
 280:STM32Cube_FW_N6/Drivers/STM32N6xx_HAL_Driver/Src/stm32n6xx_hal_spi.c ****   {
 281:STM32Cube_FW_N6/Drivers/STM32N6xx_HAL_Driver/Src/stm32n6xx_hal_spi.c ****     if (IS_SPI_LIMITED_INSTANCE(hspi->Instance))
 693              		.loc 1 281 9
 694 0488 7B68     		ldr	r3, [r7, #4]
 695 048a 1B68     		ldr	r3, [r3]
 696              		.loc 1 281 8
 697 048c 124A     		ldr	r2, .L65+4
 698 048e 9342     		cmp	r3, r2
 699 0490 0ED0     		beq	.L22
 700              		.loc 1 281 9 discriminator 1
 701 0492 7B68     		ldr	r3, [r7, #4]
 702 0494 1B68     		ldr	r3, [r3]
 703 0496 114A     		ldr	r2, .L65+8
 704 0498 9342     		cmp	r3, r2
 705 049a 09D0     		beq	.L22
 706              		.loc 1 281 9 is_stmt 0 discriminator 2
 707 049c 7B68     		ldr	r3, [r7, #4]
 708 049e 1B68     		ldr	r3, [r3]
 709 04a0 0F4A     		ldr	r2, .L65+12
 710 04a2 9342     		cmp	r3, r2
 711 04a4 04D0     		beq	.L22
 712              		.loc 1 281 9 discriminator 3
 713 04a6 7B68     		ldr	r3, [r7, #4]
 714 04a8 1B68     		ldr	r3, [r3]
 715 04aa 0E4A     		ldr	r2, .L65+16
 716 04ac 9342     		cmp	r3, r2
 717 04ae 1BD1     		bne	.L23
 718              	.L22:
 282:STM32Cube_FW_N6/Drivers/STM32N6xx_HAL_Driver/Src/stm32n6xx_hal_spi.c ****     {
 283:STM32Cube_FW_N6/Drivers/STM32N6xx_HAL_Driver/Src/stm32n6xx_hal_spi.c ****       assert_param(IS_SPI_LIMITED_CRC_LENGTH(hspi->Init.CRCLength));
 719              		.loc 1 283 7 is_stmt 1
 720 04b0 7B68     		ldr	r3, [r7, #4]
 721 04b2 1B6B     		ldr	r3, [r3, #48]
 722 04b4 B3F5E02F 		cmp	r3, #458752
 723 04b8 00F0B580 		beq	.L25
 724              		.loc 1 283 7 is_stmt 0 discriminator 1
 725 04bc 7B68     		ldr	r3, [r7, #4]
 726 04be 1B6B     		ldr	r3, [r3, #48]
 727 04c0 B3F5702F 		cmp	r3, #983040
 728 04c4 00F0AF80 		beq	.L25
 729              		.loc 1 283 7 discriminator 2
 730 04c8 40F21B11 		movw	r1, #283
 731 04cc 0148     		ldr	r0, .L65
 732 04ce FFF7FEFF 		bl	assert_failed
 733              		.loc 1 283 7
 734 04d2 A8E0     		b	.L25
 735              	.L66:
 736              		.align	2
ARM GAS  /tmp/ccwTXtVb.s 			page 19


 737              	.L65:
 738 04d4 00000000 		.word	.LC0
 739 04d8 00340052 		.word	1375745024
 740 04dc 00340042 		.word	1107309568
 741 04e0 00500052 		.word	1375752192
 742 04e4 00500042 		.word	1107316736
 743              	.L23:
 284:STM32Cube_FW_N6/Drivers/STM32N6xx_HAL_Driver/Src/stm32n6xx_hal_spi.c ****     }
 285:STM32Cube_FW_N6/Drivers/STM32N6xx_HAL_Driver/Src/stm32n6xx_hal_spi.c ****     else
 286:STM32Cube_FW_N6/Drivers/STM32N6xx_HAL_Driver/Src/stm32n6xx_hal_spi.c ****     {
 287:STM32Cube_FW_N6/Drivers/STM32N6xx_HAL_Driver/Src/stm32n6xx_hal_spi.c ****       assert_param(IS_SPI_CRC_LENGTH(hspi->Init.CRCLength));
 744              		.loc 1 287 7 is_stmt 1
 745 04e8 7B68     		ldr	r3, [r7, #4]
 746 04ea 1B6B     		ldr	r3, [r3, #48]
 747 04ec 002B     		cmp	r3, #0
 748 04ee 00F09A80 		beq	.L25
 749              		.loc 1 287 7 is_stmt 0 discriminator 1
 750 04f2 7B68     		ldr	r3, [r7, #4]
 751 04f4 1B6B     		ldr	r3, [r3, #48]
 752 04f6 B3F5F81F 		cmp	r3, #2031616
 753 04fa 00F09480 		beq	.L25
 754              		.loc 1 287 7 discriminator 2
 755 04fe 7B68     		ldr	r3, [r7, #4]
 756 0500 1B6B     		ldr	r3, [r3, #48]
 757 0502 B3F5F01F 		cmp	r3, #1966080
 758 0506 00F08E80 		beq	.L25
 759              		.loc 1 287 7 discriminator 3
 760 050a 7B68     		ldr	r3, [r7, #4]
 761 050c 1B6B     		ldr	r3, [r3, #48]
 762 050e B3F5E81F 		cmp	r3, #1900544
 763 0512 00F08880 		beq	.L25
 764              		.loc 1 287 7 discriminator 4
 765 0516 7B68     		ldr	r3, [r7, #4]
 766 0518 1B6B     		ldr	r3, [r3, #48]
 767 051a B3F5E01F 		cmp	r3, #1835008
 768 051e 00F08280 		beq	.L25
 769              		.loc 1 287 7 discriminator 5
 770 0522 7B68     		ldr	r3, [r7, #4]
 771 0524 1B6B     		ldr	r3, [r3, #48]
 772 0526 B3F5D81F 		cmp	r3, #1769472
 773 052a 7CD0     		beq	.L25
 774              		.loc 1 287 7 discriminator 6
 775 052c 7B68     		ldr	r3, [r7, #4]
 776 052e 1B6B     		ldr	r3, [r3, #48]
 777 0530 B3F5D01F 		cmp	r3, #1703936
 778 0534 77D0     		beq	.L25
 779              		.loc 1 287 7 discriminator 7
 780 0536 7B68     		ldr	r3, [r7, #4]
 781 0538 1B6B     		ldr	r3, [r3, #48]
 782 053a B3F5C81F 		cmp	r3, #1638400
 783 053e 72D0     		beq	.L25
 784              		.loc 1 287 7 discriminator 8
 785 0540 7B68     		ldr	r3, [r7, #4]
 786 0542 1B6B     		ldr	r3, [r3, #48]
 787 0544 B3F5C01F 		cmp	r3, #1572864
 788 0548 6DD0     		beq	.L25
 789              		.loc 1 287 7 discriminator 9
ARM GAS  /tmp/ccwTXtVb.s 			page 20


 790 054a 7B68     		ldr	r3, [r7, #4]
 791 054c 1B6B     		ldr	r3, [r3, #48]
 792 054e B3F5B81F 		cmp	r3, #1507328
 793 0552 68D0     		beq	.L25
 794              		.loc 1 287 7 discriminator 10
 795 0554 7B68     		ldr	r3, [r7, #4]
 796 0556 1B6B     		ldr	r3, [r3, #48]
 797 0558 B3F5B01F 		cmp	r3, #1441792
 798 055c 63D0     		beq	.L25
 799              		.loc 1 287 7 discriminator 11
 800 055e 7B68     		ldr	r3, [r7, #4]
 801 0560 1B6B     		ldr	r3, [r3, #48]
 802 0562 B3F5A81F 		cmp	r3, #1376256
 803 0566 5ED0     		beq	.L25
 804              		.loc 1 287 7 discriminator 12
 805 0568 7B68     		ldr	r3, [r7, #4]
 806 056a 1B6B     		ldr	r3, [r3, #48]
 807 056c B3F5A01F 		cmp	r3, #1310720
 808 0570 59D0     		beq	.L25
 809              		.loc 1 287 7 discriminator 13
 810 0572 7B68     		ldr	r3, [r7, #4]
 811 0574 1B6B     		ldr	r3, [r3, #48]
 812 0576 B3F5981F 		cmp	r3, #1245184
 813 057a 54D0     		beq	.L25
 814              		.loc 1 287 7 discriminator 14
 815 057c 7B68     		ldr	r3, [r7, #4]
 816 057e 1B6B     		ldr	r3, [r3, #48]
 817 0580 B3F5901F 		cmp	r3, #1179648
 818 0584 4FD0     		beq	.L25
 819              		.loc 1 287 7 discriminator 15
 820 0586 7B68     		ldr	r3, [r7, #4]
 821 0588 1B6B     		ldr	r3, [r3, #48]
 822 058a B3F5881F 		cmp	r3, #1114112
 823 058e 4AD0     		beq	.L25
 824              		.loc 1 287 7 discriminator 16
 825 0590 7B68     		ldr	r3, [r7, #4]
 826 0592 1B6B     		ldr	r3, [r3, #48]
 827 0594 B3F5801F 		cmp	r3, #1048576
 828 0598 45D0     		beq	.L25
 829              		.loc 1 287 7 discriminator 17
 830 059a 7B68     		ldr	r3, [r7, #4]
 831 059c 1B6B     		ldr	r3, [r3, #48]
 832 059e B3F5702F 		cmp	r3, #983040
 833 05a2 40D0     		beq	.L25
 834              		.loc 1 287 7 discriminator 18
 835 05a4 7B68     		ldr	r3, [r7, #4]
 836 05a6 1B6B     		ldr	r3, [r3, #48]
 837 05a8 B3F5602F 		cmp	r3, #917504
 838 05ac 3BD0     		beq	.L25
 839              		.loc 1 287 7 discriminator 19
 840 05ae 7B68     		ldr	r3, [r7, #4]
 841 05b0 1B6B     		ldr	r3, [r3, #48]
 842 05b2 B3F5502F 		cmp	r3, #851968
 843 05b6 36D0     		beq	.L25
 844              		.loc 1 287 7 discriminator 20
 845 05b8 7B68     		ldr	r3, [r7, #4]
 846 05ba 1B6B     		ldr	r3, [r3, #48]
ARM GAS  /tmp/ccwTXtVb.s 			page 21


 847 05bc B3F5402F 		cmp	r3, #786432
 848 05c0 31D0     		beq	.L25
 849              		.loc 1 287 7 discriminator 21
 850 05c2 7B68     		ldr	r3, [r7, #4]
 851 05c4 1B6B     		ldr	r3, [r3, #48]
 852 05c6 B3F5302F 		cmp	r3, #720896
 853 05ca 2CD0     		beq	.L25
 854              		.loc 1 287 7 discriminator 22
 855 05cc 7B68     		ldr	r3, [r7, #4]
 856 05ce 1B6B     		ldr	r3, [r3, #48]
 857 05d0 B3F5202F 		cmp	r3, #655360
 858 05d4 27D0     		beq	.L25
 859              		.loc 1 287 7 discriminator 23
 860 05d6 7B68     		ldr	r3, [r7, #4]
 861 05d8 1B6B     		ldr	r3, [r3, #48]
 862 05da B3F5102F 		cmp	r3, #589824
 863 05de 22D0     		beq	.L25
 864              		.loc 1 287 7 discriminator 24
 865 05e0 7B68     		ldr	r3, [r7, #4]
 866 05e2 1B6B     		ldr	r3, [r3, #48]
 867 05e4 B3F5002F 		cmp	r3, #524288
 868 05e8 1DD0     		beq	.L25
 869              		.loc 1 287 7 discriminator 25
 870 05ea 7B68     		ldr	r3, [r7, #4]
 871 05ec 1B6B     		ldr	r3, [r3, #48]
 872 05ee B3F5E02F 		cmp	r3, #458752
 873 05f2 18D0     		beq	.L25
 874              		.loc 1 287 7 discriminator 26
 875 05f4 7B68     		ldr	r3, [r7, #4]
 876 05f6 1B6B     		ldr	r3, [r3, #48]
 877 05f8 B3F5C02F 		cmp	r3, #393216
 878 05fc 13D0     		beq	.L25
 879              		.loc 1 287 7 discriminator 27
 880 05fe 7B68     		ldr	r3, [r7, #4]
 881 0600 1B6B     		ldr	r3, [r3, #48]
 882 0602 B3F5A02F 		cmp	r3, #327680
 883 0606 0ED0     		beq	.L25
 884              		.loc 1 287 7 discriminator 28
 885 0608 7B68     		ldr	r3, [r7, #4]
 886 060a 1B6B     		ldr	r3, [r3, #48]
 887 060c B3F5802F 		cmp	r3, #262144
 888 0610 09D0     		beq	.L25
 889              		.loc 1 287 7 discriminator 29
 890 0612 7B68     		ldr	r3, [r7, #4]
 891 0614 1B6B     		ldr	r3, [r3, #48]
 892 0616 B3F5403F 		cmp	r3, #196608
 893 061a 04D0     		beq	.L25
 894              		.loc 1 287 7 discriminator 30
 895 061c 40F21F11 		movw	r1, #287
 896 0620 7948     		ldr	r0, .L67
 897 0622 FFF7FEFF 		bl	assert_failed
 898              	.L25:
 288:STM32Cube_FW_N6/Drivers/STM32N6xx_HAL_Driver/Src/stm32n6xx_hal_spi.c ****     }
 289:STM32Cube_FW_N6/Drivers/STM32N6xx_HAL_Driver/Src/stm32n6xx_hal_spi.c ****     assert_param(IS_SPI_CRC_POLYNOMIAL(hspi->Init.CRCPolynomial));
 899              		.loc 1 289 5 is_stmt 1
 900 0626 7B68     		ldr	r3, [r7, #4]
 901 0628 DB6A     		ldr	r3, [r3, #44]
ARM GAS  /tmp/ccwTXtVb.s 			page 22


 902 062a 002B     		cmp	r3, #0
 903 062c 04D1     		bne	.L26
 904              		.loc 1 289 5 is_stmt 0 discriminator 1
 905 062e 40F22111 		movw	r1, #289
 906 0632 7548     		ldr	r0, .L67
 907 0634 FFF7FEFF 		bl	assert_failed
 908              	.L26:
 290:STM32Cube_FW_N6/Drivers/STM32N6xx_HAL_Driver/Src/stm32n6xx_hal_spi.c ****     assert_param(IS_SPI_CRC_INITIALIZATION_PATTERN(hspi->Init.TxCRCInitializationPattern));
 909              		.loc 1 290 5 is_stmt 1
 910 0638 7B68     		ldr	r3, [r7, #4]
 911 063a 1B6C     		ldr	r3, [r3, #64]
 912 063c 002B     		cmp	r3, #0
 913 063e 08D0     		beq	.L27
 914              		.loc 1 290 5 is_stmt 0 discriminator 1
 915 0640 7B68     		ldr	r3, [r7, #4]
 916 0642 1B6C     		ldr	r3, [r3, #64]
 917 0644 012B     		cmp	r3, #1
 918 0646 04D0     		beq	.L27
 919              		.loc 1 290 5 discriminator 2
 920 0648 4FF49171 		mov	r1, #290
 921 064c 6E48     		ldr	r0, .L67
 922 064e FFF7FEFF 		bl	assert_failed
 923              	.L27:
 291:STM32Cube_FW_N6/Drivers/STM32N6xx_HAL_Driver/Src/stm32n6xx_hal_spi.c ****     assert_param(IS_SPI_CRC_INITIALIZATION_PATTERN(hspi->Init.RxCRCInitializationPattern));
 924              		.loc 1 291 5 is_stmt 1
 925 0652 7B68     		ldr	r3, [r7, #4]
 926 0654 5B6C     		ldr	r3, [r3, #68]
 927 0656 002B     		cmp	r3, #0
 928 0658 08D0     		beq	.L21
 929              		.loc 1 291 5 is_stmt 0 discriminator 1
 930 065a 7B68     		ldr	r3, [r7, #4]
 931 065c 5B6C     		ldr	r3, [r3, #68]
 932 065e 012B     		cmp	r3, #1
 933 0660 04D0     		beq	.L21
 934              		.loc 1 291 5 discriminator 2
 935 0662 40F22311 		movw	r1, #291
 936 0666 6848     		ldr	r0, .L67
 937 0668 FFF7FEFF 		bl	assert_failed
 938              	.L21:
 292:STM32Cube_FW_N6/Drivers/STM32N6xx_HAL_Driver/Src/stm32n6xx_hal_spi.c ****   }
 293:STM32Cube_FW_N6/Drivers/STM32N6xx_HAL_Driver/Src/stm32n6xx_hal_spi.c **** #else
 294:STM32Cube_FW_N6/Drivers/STM32N6xx_HAL_Driver/Src/stm32n6xx_hal_spi.c ****   hspi->Init.CRCCalculation = SPI_CRCCALCULATION_DISABLE;
 295:STM32Cube_FW_N6/Drivers/STM32N6xx_HAL_Driver/Src/stm32n6xx_hal_spi.c **** #endif /* USE_SPI_CRC */
 296:STM32Cube_FW_N6/Drivers/STM32N6xx_HAL_Driver/Src/stm32n6xx_hal_spi.c **** 
 297:STM32Cube_FW_N6/Drivers/STM32N6xx_HAL_Driver/Src/stm32n6xx_hal_spi.c ****   assert_param(IS_SPI_RDY_MASTER_MANAGEMENT(hspi->Init.ReadyMasterManagement));
 939              		.loc 1 297 3 is_stmt 1
 940 066c 7B68     		ldr	r3, [r7, #4]
 941 066e DB6D     		ldr	r3, [r3, #92]
 942 0670 002B     		cmp	r3, #0
 943 0672 09D0     		beq	.L28
 944              		.loc 1 297 3 is_stmt 0 discriminator 1
 945 0674 7B68     		ldr	r3, [r7, #4]
 946 0676 DB6D     		ldr	r3, [r3, #92]
 947 0678 B3F5005F 		cmp	r3, #8192
 948 067c 04D0     		beq	.L28
 949              		.loc 1 297 3 discriminator 2
 950 067e 40F22911 		movw	r1, #297
ARM GAS  /tmp/ccwTXtVb.s 			page 23


 951 0682 6148     		ldr	r0, .L67
 952 0684 FFF7FEFF 		bl	assert_failed
 953              	.L28:
 298:STM32Cube_FW_N6/Drivers/STM32N6xx_HAL_Driver/Src/stm32n6xx_hal_spi.c ****   assert_param(IS_SPI_RDY_POLARITY(hspi->Init.ReadyPolarity));
 954              		.loc 1 298 3 is_stmt 1
 955 0688 7B68     		ldr	r3, [r7, #4]
 956 068a 1B6E     		ldr	r3, [r3, #96]
 957 068c 002B     		cmp	r3, #0
 958 068e 09D0     		beq	.L29
 959              		.loc 1 298 3 is_stmt 0 discriminator 1
 960 0690 7B68     		ldr	r3, [r7, #4]
 961 0692 1B6E     		ldr	r3, [r3, #96]
 962 0694 B3F5804F 		cmp	r3, #16384
 963 0698 04D0     		beq	.L29
 964              		.loc 1 298 3 discriminator 2
 965 069a 4FF49571 		mov	r1, #298
 966 069e 5A48     		ldr	r0, .L67
 967 06a0 FFF7FEFF 		bl	assert_failed
 968              	.L29:
 299:STM32Cube_FW_N6/Drivers/STM32N6xx_HAL_Driver/Src/stm32n6xx_hal_spi.c ****   assert_param(IS_SPI_MASTER_RX_AUTOSUSP(hspi->Init.MasterReceiverAutoSusp));
 969              		.loc 1 299 3 is_stmt 1
 970 06a4 7B68     		ldr	r3, [r7, #4]
 971 06a6 1B6D     		ldr	r3, [r3, #80]
 972 06a8 002B     		cmp	r3, #0
 973 06aa 09D0     		beq	.L30
 974              		.loc 1 299 3 is_stmt 0 discriminator 1
 975 06ac 7B68     		ldr	r3, [r7, #4]
 976 06ae 1B6D     		ldr	r3, [r3, #80]
 977 06b0 B3F5807F 		cmp	r3, #256
 978 06b4 04D0     		beq	.L30
 979              		.loc 1 299 3 discriminator 2
 980 06b6 40F22B11 		movw	r1, #299
 981 06ba 5348     		ldr	r0, .L67
 982 06bc FFF7FEFF 		bl	assert_failed
 983              	.L30:
 300:STM32Cube_FW_N6/Drivers/STM32N6xx_HAL_Driver/Src/stm32n6xx_hal_spi.c **** 
 301:STM32Cube_FW_N6/Drivers/STM32N6xx_HAL_Driver/Src/stm32n6xx_hal_spi.c ****   /* Verify that the SPI instance supports Data Size higher than 16bits */
 302:STM32Cube_FW_N6/Drivers/STM32N6xx_HAL_Driver/Src/stm32n6xx_hal_spi.c ****   if ((IS_SPI_LIMITED_INSTANCE(hspi->Instance)) && (hspi->Init.DataSize > SPI_DATASIZE_16BIT))
 984              		.loc 1 302 8 is_stmt 1
 985 06c0 7B68     		ldr	r3, [r7, #4]
 986 06c2 1B68     		ldr	r3, [r3]
 987              		.loc 1 302 6
 988 06c4 514A     		ldr	r2, .L67+4
 989 06c6 9342     		cmp	r3, r2
 990 06c8 0ED0     		beq	.L31
 991              		.loc 1 302 8 discriminator 2
 992 06ca 7B68     		ldr	r3, [r7, #4]
 993 06cc 1B68     		ldr	r3, [r3]
 994 06ce 504A     		ldr	r2, .L67+8
 995 06d0 9342     		cmp	r3, r2
 996 06d2 09D0     		beq	.L31
 997              		.loc 1 302 8 is_stmt 0 discriminator 4
 998 06d4 7B68     		ldr	r3, [r7, #4]
 999 06d6 1B68     		ldr	r3, [r3]
 1000 06d8 4E4A     		ldr	r2, .L67+12
 1001 06da 9342     		cmp	r3, r2
 1002 06dc 04D0     		beq	.L31
ARM GAS  /tmp/ccwTXtVb.s 			page 24


 1003              		.loc 1 302 8 discriminator 6
 1004 06de 7B68     		ldr	r3, [r7, #4]
 1005 06e0 1B68     		ldr	r3, [r3]
 1006 06e2 4D4A     		ldr	r2, .L67+16
 1007 06e4 9342     		cmp	r3, r2
 1008 06e6 05D1     		bne	.L32
 1009              	.L31:
 1010              		.loc 1 302 63 is_stmt 1 discriminator 7
 1011 06e8 7B68     		ldr	r3, [r7, #4]
 1012 06ea DB68     		ldr	r3, [r3, #12]
 1013              		.loc 1 302 49 discriminator 7
 1014 06ec 0F2B     		cmp	r3, #15
 1015 06ee 01D9     		bls	.L32
 303:STM32Cube_FW_N6/Drivers/STM32N6xx_HAL_Driver/Src/stm32n6xx_hal_spi.c ****   {
 304:STM32Cube_FW_N6/Drivers/STM32N6xx_HAL_Driver/Src/stm32n6xx_hal_spi.c ****     return HAL_ERROR;
 1016              		.loc 1 304 12
 1017 06f0 0123     		movs	r3, #1
 1018 06f2 01E2     		b	.L3
 1019              	.L32:
 305:STM32Cube_FW_N6/Drivers/STM32N6xx_HAL_Driver/Src/stm32n6xx_hal_spi.c ****   }
 306:STM32Cube_FW_N6/Drivers/STM32N6xx_HAL_Driver/Src/stm32n6xx_hal_spi.c **** 
 307:STM32Cube_FW_N6/Drivers/STM32N6xx_HAL_Driver/Src/stm32n6xx_hal_spi.c ****   /* Verify that the SPI instance supports requested data packing */
 308:STM32Cube_FW_N6/Drivers/STM32N6xx_HAL_Driver/Src/stm32n6xx_hal_spi.c ****   packet_length = SPI_GetPacketSize(hspi);
 1020              		.loc 1 308 19
 1021 06f4 7868     		ldr	r0, [r7, #4]
 1022 06f6 FFF7FEFF 		bl	SPI_GetPacketSize
 1023 06fa 3861     		str	r0, [r7, #16]
 309:STM32Cube_FW_N6/Drivers/STM32N6xx_HAL_Driver/Src/stm32n6xx_hal_spi.c ****   if (((IS_SPI_LIMITED_INSTANCE(hspi->Instance)) && (packet_length > SPI_LOWEND_FIFO_SIZE)) ||
 1024              		.loc 1 309 9
 1025 06fc 7B68     		ldr	r3, [r7, #4]
 1026 06fe 1B68     		ldr	r3, [r3]
 1027              		.loc 1 309 6
 1028 0700 424A     		ldr	r2, .L67+4
 1029 0702 9342     		cmp	r3, r2
 1030 0704 0ED0     		beq	.L33
 1031              		.loc 1 309 9 discriminator 2
 1032 0706 7B68     		ldr	r3, [r7, #4]
 1033 0708 1B68     		ldr	r3, [r3]
 1034 070a 414A     		ldr	r2, .L67+8
 1035 070c 9342     		cmp	r3, r2
 1036 070e 09D0     		beq	.L33
 1037              		.loc 1 309 9 is_stmt 0 discriminator 4
 1038 0710 7B68     		ldr	r3, [r7, #4]
 1039 0712 1B68     		ldr	r3, [r3]
 1040 0714 3F4A     		ldr	r2, .L67+12
 1041 0716 9342     		cmp	r3, r2
 1042 0718 04D0     		beq	.L33
 1043              		.loc 1 309 9 discriminator 6
 1044 071a 7B68     		ldr	r3, [r7, #4]
 1045 071c 1B68     		ldr	r3, [r3]
 1046 071e 3E4A     		ldr	r2, .L67+16
 1047 0720 9342     		cmp	r3, r2
 1048 0722 02D1     		bne	.L34
 1049              	.L33:
 1050              		.loc 1 309 50 is_stmt 1 discriminator 7
 1051 0724 3B69     		ldr	r3, [r7, #16]
 1052 0726 082B     		cmp	r3, #8
ARM GAS  /tmp/ccwTXtVb.s 			page 25


 1053 0728 2AD8     		bhi	.L35
 1054              	.L34:
 310:STM32Cube_FW_N6/Drivers/STM32N6xx_HAL_Driver/Src/stm32n6xx_hal_spi.c ****       ((IS_SPI_FULL_INSTANCE(hspi->Instance)) && (packet_length > SPI_HIGHEND_FIFO_SIZE)))
 1055              		.loc 1 310 9
 1056 072a 7B68     		ldr	r3, [r7, #4]
 1057 072c 1B68     		ldr	r3, [r3]
 309:STM32Cube_FW_N6/Drivers/STM32N6xx_HAL_Driver/Src/stm32n6xx_hal_spi.c ****   if (((IS_SPI_LIMITED_INSTANCE(hspi->Instance)) && (packet_length > SPI_LOWEND_FIFO_SIZE)) ||
 1058              		.loc 1 309 93 discriminator 9
 1059 072e 3B4A     		ldr	r2, .L67+20
 1060 0730 9342     		cmp	r3, r2
 1061 0732 22D0     		beq	.L36
 1062              		.loc 1 310 9
 1063 0734 7B68     		ldr	r3, [r7, #4]
 1064 0736 1B68     		ldr	r3, [r3]
 1065 0738 394A     		ldr	r2, .L67+24
 1066 073a 9342     		cmp	r3, r2
 1067 073c 1DD0     		beq	.L36
 1068              		.loc 1 310 9 is_stmt 0 discriminator 2
 1069 073e 7B68     		ldr	r3, [r7, #4]
 1070 0740 1B68     		ldr	r3, [r3]
 1071 0742 384A     		ldr	r2, .L67+28
 1072 0744 9342     		cmp	r3, r2
 1073 0746 18D0     		beq	.L36
 1074              		.loc 1 310 9 discriminator 4
 1075 0748 7B68     		ldr	r3, [r7, #4]
 1076 074a 1B68     		ldr	r3, [r3]
 1077 074c 364A     		ldr	r2, .L67+32
 1078 074e 9342     		cmp	r3, r2
 1079 0750 13D0     		beq	.L36
 1080              		.loc 1 310 9 discriminator 6
 1081 0752 7B68     		ldr	r3, [r7, #4]
 1082 0754 1B68     		ldr	r3, [r3]
 1083 0756 354A     		ldr	r2, .L67+36
 1084 0758 9342     		cmp	r3, r2
 1085 075a 0ED0     		beq	.L36
 1086              		.loc 1 310 9 discriminator 8
 1087 075c 7B68     		ldr	r3, [r7, #4]
 1088 075e 1B68     		ldr	r3, [r3]
 1089 0760 334A     		ldr	r2, .L67+40
 1090 0762 9342     		cmp	r3, r2
 1091 0764 09D0     		beq	.L36
 1092              		.loc 1 310 9 discriminator 10
 1093 0766 7B68     		ldr	r3, [r7, #4]
 1094 0768 1B68     		ldr	r3, [r3]
 1095 076a 324A     		ldr	r2, .L67+44
 1096 076c 9342     		cmp	r3, r2
 1097 076e 04D0     		beq	.L36
 1098              		.loc 1 310 9 discriminator 12
 1099 0770 7B68     		ldr	r3, [r7, #4]
 1100 0772 1B68     		ldr	r3, [r3]
 1101 0774 304A     		ldr	r2, .L67+48
 1102 0776 9342     		cmp	r3, r2
 1103 0778 04D1     		bne	.L37
 1104              	.L36:
 1105              		.loc 1 310 47 is_stmt 1 discriminator 13
 1106 077a 3B69     		ldr	r3, [r7, #16]
 1107 077c 102B     		cmp	r3, #16
ARM GAS  /tmp/ccwTXtVb.s 			page 26


 1108 077e 01D9     		bls	.L37
 1109              	.L35:
 311:STM32Cube_FW_N6/Drivers/STM32N6xx_HAL_Driver/Src/stm32n6xx_hal_spi.c ****   {
 312:STM32Cube_FW_N6/Drivers/STM32N6xx_HAL_Driver/Src/stm32n6xx_hal_spi.c ****     return HAL_ERROR;
 1110              		.loc 1 312 12
 1111 0780 0123     		movs	r3, #1
 1112 0782 B9E1     		b	.L3
 1113              	.L37:
 313:STM32Cube_FW_N6/Drivers/STM32N6xx_HAL_Driver/Src/stm32n6xx_hal_spi.c ****   }
 314:STM32Cube_FW_N6/Drivers/STM32N6xx_HAL_Driver/Src/stm32n6xx_hal_spi.c **** #if (USE_SPI_CRC != 0UL)
 315:STM32Cube_FW_N6/Drivers/STM32N6xx_HAL_Driver/Src/stm32n6xx_hal_spi.c ****   if (hspi->Init.CRCCalculation == SPI_CRCCALCULATION_ENABLE)
 1114              		.loc 1 315 17
 1115 0784 7B68     		ldr	r3, [r7, #4]
 1116 0786 9B6A     		ldr	r3, [r3, #40]
 1117              		.loc 1 315 6
 1118 0788 B3F5800F 		cmp	r3, #4194304
 1119 078c 56D1     		bne	.L38
 316:STM32Cube_FW_N6/Drivers/STM32N6xx_HAL_Driver/Src/stm32n6xx_hal_spi.c ****   {
 317:STM32Cube_FW_N6/Drivers/STM32N6xx_HAL_Driver/Src/stm32n6xx_hal_spi.c ****     /* Verify that the SPI instance supports CRC Length higher than 16bits */
 318:STM32Cube_FW_N6/Drivers/STM32N6xx_HAL_Driver/Src/stm32n6xx_hal_spi.c ****     if ((IS_SPI_LIMITED_INSTANCE(hspi->Instance)) && (hspi->Init.CRCLength > SPI_CRC_LENGTH_16BIT))
 1120              		.loc 1 318 10
 1121 078e 7B68     		ldr	r3, [r7, #4]
 1122 0790 1B68     		ldr	r3, [r3]
 1123              		.loc 1 318 8
 1124 0792 1E4A     		ldr	r2, .L67+4
 1125 0794 9342     		cmp	r3, r2
 1126 0796 0ED0     		beq	.L39
 1127              		.loc 1 318 10 discriminator 2
 1128 0798 7B68     		ldr	r3, [r7, #4]
 1129 079a 1B68     		ldr	r3, [r3]
 1130 079c 1C4A     		ldr	r2, .L67+8
 1131 079e 9342     		cmp	r3, r2
 1132 07a0 09D0     		beq	.L39
 1133              		.loc 1 318 10 is_stmt 0 discriminator 4
 1134 07a2 7B68     		ldr	r3, [r7, #4]
 1135 07a4 1B68     		ldr	r3, [r3]
 1136 07a6 1B4A     		ldr	r2, .L67+12
 1137 07a8 9342     		cmp	r3, r2
 1138 07aa 04D0     		beq	.L39
 1139              		.loc 1 318 10 discriminator 6
 1140 07ac 7B68     		ldr	r3, [r7, #4]
 1141 07ae 1B68     		ldr	r3, [r3]
 1142 07b0 194A     		ldr	r2, .L67+16
 1143 07b2 9342     		cmp	r3, r2
 1144 07b4 06D1     		bne	.L40
 1145              	.L39:
 1146              		.loc 1 318 65 is_stmt 1 discriminator 7
 1147 07b6 7B68     		ldr	r3, [r7, #4]
 1148 07b8 1B6B     		ldr	r3, [r3, #48]
 1149              		.loc 1 318 51 discriminator 7
 1150 07ba B3F5702F 		cmp	r3, #983040
 1151 07be 01D9     		bls	.L40
 319:STM32Cube_FW_N6/Drivers/STM32N6xx_HAL_Driver/Src/stm32n6xx_hal_spi.c ****     {
 320:STM32Cube_FW_N6/Drivers/STM32N6xx_HAL_Driver/Src/stm32n6xx_hal_spi.c ****       return HAL_ERROR;
 1152              		.loc 1 320 14
 1153 07c0 0123     		movs	r3, #1
 1154 07c2 99E1     		b	.L3
ARM GAS  /tmp/ccwTXtVb.s 			page 27


 1155              	.L40:
 321:STM32Cube_FW_N6/Drivers/STM32N6xx_HAL_Driver/Src/stm32n6xx_hal_spi.c ****     }
 322:STM32Cube_FW_N6/Drivers/STM32N6xx_HAL_Driver/Src/stm32n6xx_hal_spi.c **** 
 323:STM32Cube_FW_N6/Drivers/STM32N6xx_HAL_Driver/Src/stm32n6xx_hal_spi.c ****     /* Align the CRC Length on the data size */
 324:STM32Cube_FW_N6/Drivers/STM32N6xx_HAL_Driver/Src/stm32n6xx_hal_spi.c ****     if (hspi->Init.CRCLength == SPI_CRC_LENGTH_DATASIZE)
 1156              		.loc 1 324 19
 1157 07c4 7B68     		ldr	r3, [r7, #4]
 1158 07c6 1B6B     		ldr	r3, [r3, #48]
 1159              		.loc 1 324 8
 1160 07c8 002B     		cmp	r3, #0
 1161 07ca 04D1     		bne	.L41
 325:STM32Cube_FW_N6/Drivers/STM32N6xx_HAL_Driver/Src/stm32n6xx_hal_spi.c ****     {
 326:STM32Cube_FW_N6/Drivers/STM32N6xx_HAL_Driver/Src/stm32n6xx_hal_spi.c ****       crc_length = (hspi->Init.DataSize >> SPI_CFG1_DSIZE_Pos) << SPI_CFG1_CRCSIZE_Pos;
 1162              		.loc 1 326 41
 1163 07cc 7B68     		ldr	r3, [r7, #4]
 1164 07ce DB68     		ldr	r3, [r3, #12]
 1165              		.loc 1 326 18
 1166 07d0 1B04     		lsls	r3, r3, #16
 1167 07d2 7B61     		str	r3, [r7, #20]
 1168 07d4 02E0     		b	.L42
 1169              	.L41:
 327:STM32Cube_FW_N6/Drivers/STM32N6xx_HAL_Driver/Src/stm32n6xx_hal_spi.c ****     }
 328:STM32Cube_FW_N6/Drivers/STM32N6xx_HAL_Driver/Src/stm32n6xx_hal_spi.c ****     else
 329:STM32Cube_FW_N6/Drivers/STM32N6xx_HAL_Driver/Src/stm32n6xx_hal_spi.c ****     {
 330:STM32Cube_FW_N6/Drivers/STM32N6xx_HAL_Driver/Src/stm32n6xx_hal_spi.c ****       crc_length = hspi->Init.CRCLength;
 1170              		.loc 1 330 18
 1171 07d6 7B68     		ldr	r3, [r7, #4]
 1172 07d8 1B6B     		ldr	r3, [r3, #48]
 1173 07da 7B61     		str	r3, [r7, #20]
 1174              	.L42:
 331:STM32Cube_FW_N6/Drivers/STM32N6xx_HAL_Driver/Src/stm32n6xx_hal_spi.c ****     }
 332:STM32Cube_FW_N6/Drivers/STM32N6xx_HAL_Driver/Src/stm32n6xx_hal_spi.c **** 
 333:STM32Cube_FW_N6/Drivers/STM32N6xx_HAL_Driver/Src/stm32n6xx_hal_spi.c ****     /* Verify the correctness of polynom size */
 334:STM32Cube_FW_N6/Drivers/STM32N6xx_HAL_Driver/Src/stm32n6xx_hal_spi.c ****     assert_param(IS_SPI_CRC_POLYNOMIAL_SIZE(hspi->Init.CRCPolynomial, crc_length));
 1175              		.loc 1 334 5
 1176 07dc 7B68     		ldr	r3, [r7, #4]
 1177 07de DA6A     		ldr	r2, [r3, #44]
 1178 07e0 7B69     		ldr	r3, [r7, #20]
 1179 07e2 1B0C     		lsrs	r3, r3, #16
 1180 07e4 0133     		adds	r3, r3, #1
 1181 07e6 22FA03F3 		lsr	r3, r2, r3
 1182 07ea 002B     		cmp	r3, #0
 1183 07ec 04D0     		beq	.L43
 1184              		.loc 1 334 5 is_stmt 0 discriminator 1
 1185 07ee 4FF4A771 		mov	r1, #334
 1186 07f2 0548     		ldr	r0, .L67
 1187 07f4 FFF7FEFF 		bl	assert_failed
 1188              	.L43:
 335:STM32Cube_FW_N6/Drivers/STM32N6xx_HAL_Driver/Src/stm32n6xx_hal_spi.c **** 
 336:STM32Cube_FW_N6/Drivers/STM32N6xx_HAL_Driver/Src/stm32n6xx_hal_spi.c ****     /* Verify that the CRC Length is higher than DataSize */
 337:STM32Cube_FW_N6/Drivers/STM32N6xx_HAL_Driver/Src/stm32n6xx_hal_spi.c ****     if ((hspi->Init.DataSize >> SPI_CFG1_DSIZE_Pos) > (crc_length >> SPI_CFG1_CRCSIZE_Pos))
 1189              		.loc 1 337 30 is_stmt 1
 1190 07f8 7B68     		ldr	r3, [r7, #4]
 1191 07fa DA68     		ldr	r2, [r3, #12]
 1192              		.loc 1 337 67
 1193 07fc 7B69     		ldr	r3, [r7, #20]
 1194 07fe 1B0C     		lsrs	r3, r3, #16
ARM GAS  /tmp/ccwTXtVb.s 			page 28


 1195              		.loc 1 337 8
 1196 0800 9A42     		cmp	r2, r3
 1197 0802 1FD9     		bls	.L44
 338:STM32Cube_FW_N6/Drivers/STM32N6xx_HAL_Driver/Src/stm32n6xx_hal_spi.c ****     {
 339:STM32Cube_FW_N6/Drivers/STM32N6xx_HAL_Driver/Src/stm32n6xx_hal_spi.c ****       return HAL_ERROR;
 1198              		.loc 1 339 14
 1199 0804 0123     		movs	r3, #1
 1200 0806 77E1     		b	.L3
 1201              	.L68:
 1202              		.align	2
 1203              	.L67:
 1204 0808 00000000 		.word	.LC0
 1205 080c 00340052 		.word	1375745024
 1206 0810 00340042 		.word	1107309568
 1207 0814 00500052 		.word	1375752192
 1208 0818 00500042 		.word	1107316736
 1209 081c 00300052 		.word	1375744000
 1210 0820 00300042 		.word	1107308544
 1211 0824 00380050 		.word	1342191616
 1212 0828 00380040 		.word	1073756160
 1213 082c 003C0050 		.word	1342192640
 1214 0830 003C0040 		.word	1073757184
 1215 0834 00140056 		.word	1442845696
 1216 0838 00140046 		.word	1174410240
 1217              	.L38:
 340:STM32Cube_FW_N6/Drivers/STM32N6xx_HAL_Driver/Src/stm32n6xx_hal_spi.c ****     }
 341:STM32Cube_FW_N6/Drivers/STM32N6xx_HAL_Driver/Src/stm32n6xx_hal_spi.c ****   }
 342:STM32Cube_FW_N6/Drivers/STM32N6xx_HAL_Driver/Src/stm32n6xx_hal_spi.c ****   else
 343:STM32Cube_FW_N6/Drivers/STM32N6xx_HAL_Driver/Src/stm32n6xx_hal_spi.c ****   {
 344:STM32Cube_FW_N6/Drivers/STM32N6xx_HAL_Driver/Src/stm32n6xx_hal_spi.c ****     crc_length = hspi->Init.DataSize << SPI_CFG1_CRCSIZE_Pos;
 1218              		.loc 1 344 28
 1219 083c 7B68     		ldr	r3, [r7, #4]
 1220 083e DB68     		ldr	r3, [r3, #12]
 1221              		.loc 1 344 16
 1222 0840 1B04     		lsls	r3, r3, #16
 1223 0842 7B61     		str	r3, [r7, #20]
 1224              	.L44:
 345:STM32Cube_FW_N6/Drivers/STM32N6xx_HAL_Driver/Src/stm32n6xx_hal_spi.c ****   }
 346:STM32Cube_FW_N6/Drivers/STM32N6xx_HAL_Driver/Src/stm32n6xx_hal_spi.c **** #endif /* USE_SPI_CRC */
 347:STM32Cube_FW_N6/Drivers/STM32N6xx_HAL_Driver/Src/stm32n6xx_hal_spi.c **** 
 348:STM32Cube_FW_N6/Drivers/STM32N6xx_HAL_Driver/Src/stm32n6xx_hal_spi.c ****   if (hspi->State == HAL_SPI_STATE_RESET)
 1225              		.loc 1 348 11
 1226 0844 7B68     		ldr	r3, [r7, #4]
 1227 0846 93F88930 		ldrb	r3, [r3, #137]
 1228 084a DBB2     		uxtb	r3, r3
 1229              		.loc 1 348 6
 1230 084c 002B     		cmp	r3, #0
 1231 084e 06D1     		bne	.L45
 349:STM32Cube_FW_N6/Drivers/STM32N6xx_HAL_Driver/Src/stm32n6xx_hal_spi.c ****   {
 350:STM32Cube_FW_N6/Drivers/STM32N6xx_HAL_Driver/Src/stm32n6xx_hal_spi.c ****     /* Allocate lock resource and initialize it */
 351:STM32Cube_FW_N6/Drivers/STM32N6xx_HAL_Driver/Src/stm32n6xx_hal_spi.c ****     hspi->Lock = HAL_UNLOCKED;
 1232              		.loc 1 351 16
 1233 0850 7B68     		ldr	r3, [r7, #4]
 1234 0852 0022     		movs	r2, #0
 1235 0854 83F88820 		strb	r2, [r3, #136]
 352:STM32Cube_FW_N6/Drivers/STM32N6xx_HAL_Driver/Src/stm32n6xx_hal_spi.c **** 
 353:STM32Cube_FW_N6/Drivers/STM32N6xx_HAL_Driver/Src/stm32n6xx_hal_spi.c **** #if (USE_HAL_SPI_REGISTER_CALLBACKS == 1UL)
ARM GAS  /tmp/ccwTXtVb.s 			page 29


 354:STM32Cube_FW_N6/Drivers/STM32N6xx_HAL_Driver/Src/stm32n6xx_hal_spi.c ****     /* Init the SPI Callback settings */
 355:STM32Cube_FW_N6/Drivers/STM32N6xx_HAL_Driver/Src/stm32n6xx_hal_spi.c ****     hspi->TxCpltCallback       = HAL_SPI_TxCpltCallback;       /* Legacy weak TxCpltCallback       
 356:STM32Cube_FW_N6/Drivers/STM32N6xx_HAL_Driver/Src/stm32n6xx_hal_spi.c ****     hspi->RxCpltCallback       = HAL_SPI_RxCpltCallback;       /* Legacy weak RxCpltCallback       
 357:STM32Cube_FW_N6/Drivers/STM32N6xx_HAL_Driver/Src/stm32n6xx_hal_spi.c ****     hspi->TxRxCpltCallback     = HAL_SPI_TxRxCpltCallback;     /* Legacy weak TxRxCpltCallback     
 358:STM32Cube_FW_N6/Drivers/STM32N6xx_HAL_Driver/Src/stm32n6xx_hal_spi.c ****     hspi->TxHalfCpltCallback   = HAL_SPI_TxHalfCpltCallback;   /* Legacy weak TxHalfCpltCallback   
 359:STM32Cube_FW_N6/Drivers/STM32N6xx_HAL_Driver/Src/stm32n6xx_hal_spi.c ****     hspi->RxHalfCpltCallback   = HAL_SPI_RxHalfCpltCallback;   /* Legacy weak RxHalfCpltCallback   
 360:STM32Cube_FW_N6/Drivers/STM32N6xx_HAL_Driver/Src/stm32n6xx_hal_spi.c ****     hspi->TxRxHalfCpltCallback = HAL_SPI_TxRxHalfCpltCallback; /* Legacy weak TxRxHalfCpltCallback 
 361:STM32Cube_FW_N6/Drivers/STM32N6xx_HAL_Driver/Src/stm32n6xx_hal_spi.c ****     hspi->ErrorCallback        = HAL_SPI_ErrorCallback;        /* Legacy weak ErrorCallback        
 362:STM32Cube_FW_N6/Drivers/STM32N6xx_HAL_Driver/Src/stm32n6xx_hal_spi.c ****     hspi->AbortCpltCallback    = HAL_SPI_AbortCpltCallback;    /* Legacy weak AbortCpltCallback    
 363:STM32Cube_FW_N6/Drivers/STM32N6xx_HAL_Driver/Src/stm32n6xx_hal_spi.c ****     hspi->SuspendCallback      = HAL_SPI_SuspendCallback;      /* Legacy weak SuspendCallback      
 364:STM32Cube_FW_N6/Drivers/STM32N6xx_HAL_Driver/Src/stm32n6xx_hal_spi.c **** 
 365:STM32Cube_FW_N6/Drivers/STM32N6xx_HAL_Driver/Src/stm32n6xx_hal_spi.c ****     if (hspi->MspInitCallback == NULL)
 366:STM32Cube_FW_N6/Drivers/STM32N6xx_HAL_Driver/Src/stm32n6xx_hal_spi.c ****     {
 367:STM32Cube_FW_N6/Drivers/STM32N6xx_HAL_Driver/Src/stm32n6xx_hal_spi.c ****       hspi->MspInitCallback = HAL_SPI_MspInit; /* Legacy weak MspInit  */
 368:STM32Cube_FW_N6/Drivers/STM32N6xx_HAL_Driver/Src/stm32n6xx_hal_spi.c ****     }
 369:STM32Cube_FW_N6/Drivers/STM32N6xx_HAL_Driver/Src/stm32n6xx_hal_spi.c **** 
 370:STM32Cube_FW_N6/Drivers/STM32N6xx_HAL_Driver/Src/stm32n6xx_hal_spi.c ****     /* Init the low level hardware : GPIO, CLOCK, NVIC... */
 371:STM32Cube_FW_N6/Drivers/STM32N6xx_HAL_Driver/Src/stm32n6xx_hal_spi.c ****     hspi->MspInitCallback(hspi);
 372:STM32Cube_FW_N6/Drivers/STM32N6xx_HAL_Driver/Src/stm32n6xx_hal_spi.c **** #else
 373:STM32Cube_FW_N6/Drivers/STM32N6xx_HAL_Driver/Src/stm32n6xx_hal_spi.c ****     /* Init the low level hardware : GPIO, CLOCK, NVIC... */
 374:STM32Cube_FW_N6/Drivers/STM32N6xx_HAL_Driver/Src/stm32n6xx_hal_spi.c ****     HAL_SPI_MspInit(hspi);
 1236              		.loc 1 374 5
 1237 0858 7868     		ldr	r0, [r7, #4]
 1238 085a FFF7FEFF 		bl	HAL_SPI_MspInit
 1239              	.L45:
 375:STM32Cube_FW_N6/Drivers/STM32N6xx_HAL_Driver/Src/stm32n6xx_hal_spi.c **** #endif /* USE_HAL_SPI_REGISTER_CALLBACKS */
 376:STM32Cube_FW_N6/Drivers/STM32N6xx_HAL_Driver/Src/stm32n6xx_hal_spi.c ****   }
 377:STM32Cube_FW_N6/Drivers/STM32N6xx_HAL_Driver/Src/stm32n6xx_hal_spi.c **** 
 378:STM32Cube_FW_N6/Drivers/STM32N6xx_HAL_Driver/Src/stm32n6xx_hal_spi.c ****   hspi->State = HAL_SPI_STATE_BUSY;
 1240              		.loc 1 378 15
 1241 085e 7B68     		ldr	r3, [r7, #4]
 1242 0860 0222     		movs	r2, #2
 1243 0862 83F88920 		strb	r2, [r3, #137]
 379:STM32Cube_FW_N6/Drivers/STM32N6xx_HAL_Driver/Src/stm32n6xx_hal_spi.c **** 
 380:STM32Cube_FW_N6/Drivers/STM32N6xx_HAL_Driver/Src/stm32n6xx_hal_spi.c ****   /* Disable the selected SPI peripheral */
 381:STM32Cube_FW_N6/Drivers/STM32N6xx_HAL_Driver/Src/stm32n6xx_hal_spi.c ****   __HAL_SPI_DISABLE(hspi);
 1244              		.loc 1 381 3
 1245 0866 7B68     		ldr	r3, [r7, #4]
 1246 0868 1B68     		ldr	r3, [r3]
 1247 086a 1A68     		ldr	r2, [r3]
 1248 086c 7B68     		ldr	r3, [r7, #4]
 1249 086e 1B68     		ldr	r3, [r3]
 1250 0870 22F00102 		bic	r2, r2, #1
 1251 0874 1A60     		str	r2, [r3]
 382:STM32Cube_FW_N6/Drivers/STM32N6xx_HAL_Driver/Src/stm32n6xx_hal_spi.c **** 
 383:STM32Cube_FW_N6/Drivers/STM32N6xx_HAL_Driver/Src/stm32n6xx_hal_spi.c **** #if (USE_SPI_CRC == 0)
 384:STM32Cube_FW_N6/Drivers/STM32N6xx_HAL_Driver/Src/stm32n6xx_hal_spi.c ****   /* Keep the default value of CRCSIZE in case of CRC is not used */
 385:STM32Cube_FW_N6/Drivers/STM32N6xx_HAL_Driver/Src/stm32n6xx_hal_spi.c ****   crc_length = hspi->Instance->CFG1 & SPI_CFG1_CRCSIZE;
 386:STM32Cube_FW_N6/Drivers/STM32N6xx_HAL_Driver/Src/stm32n6xx_hal_spi.c **** #endif /* USE_SPI_CRC */
 387:STM32Cube_FW_N6/Drivers/STM32N6xx_HAL_Driver/Src/stm32n6xx_hal_spi.c **** 
 388:STM32Cube_FW_N6/Drivers/STM32N6xx_HAL_Driver/Src/stm32n6xx_hal_spi.c ****   /*----------------------- SPIx CR1 & CR2 Configuration ---------------------*/
 389:STM32Cube_FW_N6/Drivers/STM32N6xx_HAL_Driver/Src/stm32n6xx_hal_spi.c ****   /* Configure : SPI Mode, Communication Mode, Clock polarity and phase, NSS management,
 390:STM32Cube_FW_N6/Drivers/STM32N6xx_HAL_Driver/Src/stm32n6xx_hal_spi.c ****   Communication speed, First bit, CRC calculation state, CRC Length */
 391:STM32Cube_FW_N6/Drivers/STM32N6xx_HAL_Driver/Src/stm32n6xx_hal_spi.c **** 
 392:STM32Cube_FW_N6/Drivers/STM32N6xx_HAL_Driver/Src/stm32n6xx_hal_spi.c ****   /* SPIx NSS Software Management Configuration */
 393:STM32Cube_FW_N6/Drivers/STM32N6xx_HAL_Driver/Src/stm32n6xx_hal_spi.c ****   if ((hspi->Init.NSS == SPI_NSS_SOFT) && (((hspi->Init.Mode == SPI_MODE_MASTER) &&  \
 1252              		.loc 1 393 18
ARM GAS  /tmp/ccwTXtVb.s 			page 30


 1253 0876 7B68     		ldr	r3, [r7, #4]
 1254 0878 9B69     		ldr	r3, [r3, #24]
 1255              		.loc 1 393 6
 1256 087a B3F1806F 		cmp	r3, #67108864
 1257 087e 19D1     		bne	.L46
 1258              		.loc 1 393 56 discriminator 1
 1259 0880 7B68     		ldr	r3, [r7, #4]
 1260 0882 5B68     		ldr	r3, [r3, #4]
 1261              		.loc 1 393 40 discriminator 1
 1262 0884 B3F5800F 		cmp	r3, #4194304
 1263 0888 03D1     		bne	.L47
 394:STM32Cube_FW_N6/Drivers/STM32N6xx_HAL_Driver/Src/stm32n6xx_hal_spi.c ****                                             (hspi->Init.NSSPolarity == SPI_NSS_POLARITY_LOW)) || \
 1264              		.loc 1 394 56
 1265 088a 7B68     		ldr	r3, [r7, #4]
 1266 088c 9B6B     		ldr	r3, [r3, #56]
 393:STM32Cube_FW_N6/Drivers/STM32N6xx_HAL_Driver/Src/stm32n6xx_hal_spi.c ****                                             (hspi->Init.NSSPolarity == SPI_NSS_POLARITY_LOW)) || \
 1267              		.loc 1 393 82 discriminator 2
 1268 088e 002B     		cmp	r3, #0
 1269 0890 08D0     		beq	.L48
 1270              	.L47:
 395:STM32Cube_FW_N6/Drivers/STM32N6xx_HAL_Driver/Src/stm32n6xx_hal_spi.c ****                                            ((hspi->Init.Mode == SPI_MODE_SLAVE) && \
 1271              		.loc 1 395 56
 1272 0892 7B68     		ldr	r3, [r7, #4]
 1273 0894 5B68     		ldr	r3, [r3, #4]
 394:STM32Cube_FW_N6/Drivers/STM32N6xx_HAL_Driver/Src/stm32n6xx_hal_spi.c ****                                             (hspi->Init.NSSPolarity == SPI_NSS_POLARITY_LOW)) || \
 1274              		.loc 1 394 95
 1275 0896 002B     		cmp	r3, #0
 1276 0898 0CD1     		bne	.L46
 396:STM32Cube_FW_N6/Drivers/STM32N6xx_HAL_Driver/Src/stm32n6xx_hal_spi.c ****                                             (hspi->Init.NSSPolarity == SPI_NSS_POLARITY_HIGH))))
 1277              		.loc 1 396 56
 1278 089a 7B68     		ldr	r3, [r7, #4]
 1279 089c 9B6B     		ldr	r3, [r3, #56]
 395:STM32Cube_FW_N6/Drivers/STM32N6xx_HAL_Driver/Src/stm32n6xx_hal_spi.c ****                                            ((hspi->Init.Mode == SPI_MODE_SLAVE) && \
 1280              		.loc 1 395 81
 1281 089e B3F1805F 		cmp	r3, #268435456
 1282 08a2 07D1     		bne	.L46
 1283              	.L48:
 397:STM32Cube_FW_N6/Drivers/STM32N6xx_HAL_Driver/Src/stm32n6xx_hal_spi.c ****   {
 398:STM32Cube_FW_N6/Drivers/STM32N6xx_HAL_Driver/Src/stm32n6xx_hal_spi.c ****     SET_BIT(hspi->Instance->CR1, SPI_CR1_SSI);
 1284              		.loc 1 398 5
 1285 08a4 7B68     		ldr	r3, [r7, #4]
 1286 08a6 1B68     		ldr	r3, [r3]
 1287 08a8 1A68     		ldr	r2, [r3]
 1288 08aa 7B68     		ldr	r3, [r7, #4]
 1289 08ac 1B68     		ldr	r3, [r3]
 1290 08ae 42F48052 		orr	r2, r2, #4096
 1291 08b2 1A60     		str	r2, [r3]
 1292              	.L46:
 399:STM32Cube_FW_N6/Drivers/STM32N6xx_HAL_Driver/Src/stm32n6xx_hal_spi.c ****   }
 400:STM32Cube_FW_N6/Drivers/STM32N6xx_HAL_Driver/Src/stm32n6xx_hal_spi.c **** 
 401:STM32Cube_FW_N6/Drivers/STM32N6xx_HAL_Driver/Src/stm32n6xx_hal_spi.c ****   /* SPIx Master Rx Auto Suspend Configuration */
 402:STM32Cube_FW_N6/Drivers/STM32N6xx_HAL_Driver/Src/stm32n6xx_hal_spi.c ****   if (((hspi->Init.Mode & SPI_MODE_MASTER) == SPI_MODE_MASTER) && (hspi->Init.DataSize >= SPI_DATAS
 1293              		.loc 1 402 19
 1294 08b4 7B68     		ldr	r3, [r7, #4]
 1295 08b6 5B68     		ldr	r3, [r3, #4]
 1296              		.loc 1 402 25
 1297 08b8 03F48003 		and	r3, r3, #4194304
ARM GAS  /tmp/ccwTXtVb.s 			page 31


 1298              		.loc 1 402 6
 1299 08bc 002B     		cmp	r3, #0
 1300 08be 0FD0     		beq	.L49
 1301              		.loc 1 402 78 discriminator 1
 1302 08c0 7B68     		ldr	r3, [r7, #4]
 1303 08c2 DB68     		ldr	r3, [r3, #12]
 1304              		.loc 1 402 64 discriminator 1
 1305 08c4 062B     		cmp	r3, #6
 1306 08c6 0BD9     		bls	.L49
 403:STM32Cube_FW_N6/Drivers/STM32N6xx_HAL_Driver/Src/stm32n6xx_hal_spi.c ****   {
 404:STM32Cube_FW_N6/Drivers/STM32N6xx_HAL_Driver/Src/stm32n6xx_hal_spi.c ****     MODIFY_REG(hspi->Instance->CR1, SPI_CR1_MASRX, hspi->Init.MasterReceiverAutoSusp);
 1307              		.loc 1 404 5
 1308 08c8 7B68     		ldr	r3, [r7, #4]
 1309 08ca 1B68     		ldr	r3, [r3]
 1310 08cc 1B68     		ldr	r3, [r3]
 1311 08ce 23F48071 		bic	r1, r3, #256
 1312 08d2 7B68     		ldr	r3, [r7, #4]
 1313 08d4 1A6D     		ldr	r2, [r3, #80]
 1314 08d6 7B68     		ldr	r3, [r7, #4]
 1315 08d8 1B68     		ldr	r3, [r3]
 1316 08da 0A43     		orrs	r2, r2, r1
 1317 08dc 1A60     		str	r2, [r3]
 1318 08de 07E0     		b	.L50
 1319              	.L49:
 405:STM32Cube_FW_N6/Drivers/STM32N6xx_HAL_Driver/Src/stm32n6xx_hal_spi.c ****   }
 406:STM32Cube_FW_N6/Drivers/STM32N6xx_HAL_Driver/Src/stm32n6xx_hal_spi.c ****   else
 407:STM32Cube_FW_N6/Drivers/STM32N6xx_HAL_Driver/Src/stm32n6xx_hal_spi.c ****   {
 408:STM32Cube_FW_N6/Drivers/STM32N6xx_HAL_Driver/Src/stm32n6xx_hal_spi.c ****     CLEAR_BIT(hspi->Instance->CR1, SPI_CR1_MASRX);
 1320              		.loc 1 408 5
 1321 08e0 7B68     		ldr	r3, [r7, #4]
 1322 08e2 1B68     		ldr	r3, [r3]
 1323 08e4 1A68     		ldr	r2, [r3]
 1324 08e6 7B68     		ldr	r3, [r7, #4]
 1325 08e8 1B68     		ldr	r3, [r3]
 1326 08ea 22F48072 		bic	r2, r2, #256
 1327 08ee 1A60     		str	r2, [r3]
 1328              	.L50:
 409:STM32Cube_FW_N6/Drivers/STM32N6xx_HAL_Driver/Src/stm32n6xx_hal_spi.c ****   }
 410:STM32Cube_FW_N6/Drivers/STM32N6xx_HAL_Driver/Src/stm32n6xx_hal_spi.c **** 
 411:STM32Cube_FW_N6/Drivers/STM32N6xx_HAL_Driver/Src/stm32n6xx_hal_spi.c ****   /* SPIx CFG1 Configuration */
 412:STM32Cube_FW_N6/Drivers/STM32N6xx_HAL_Driver/Src/stm32n6xx_hal_spi.c ****   WRITE_REG(hspi->Instance->CFG1, (hspi->Init.BaudRatePrescaler | hspi->Init.CRCCalculation | crc_l
 1329              		.loc 1 412 3
 1330 08f0 7B68     		ldr	r3, [r7, #4]
 1331 08f2 DA69     		ldr	r2, [r3, #28]
 1332 08f4 7B68     		ldr	r3, [r7, #4]
 1333 08f6 9B6A     		ldr	r3, [r3, #40]
 1334 08f8 1A43     		orrs	r2, r2, r3
 1335 08fa 7B69     		ldr	r3, [r7, #20]
 1336 08fc 1A43     		orrs	r2, r2, r3
 1337 08fe 7B68     		ldr	r3, [r7, #4]
 1338 0900 DB6B     		ldr	r3, [r3, #60]
 1339 0902 42EA0301 		orr	r1, r2, r3
 1340 0906 7B68     		ldr	r3, [r7, #4]
 1341 0908 DA68     		ldr	r2, [r3, #12]
 1342 090a 7B68     		ldr	r3, [r7, #4]
 1343 090c 1B68     		ldr	r3, [r3]
 1344 090e 0A43     		orrs	r2, r2, r1
ARM GAS  /tmp/ccwTXtVb.s 			page 32


 1345 0910 9A60     		str	r2, [r3, #8]
 413:STM32Cube_FW_N6/Drivers/STM32N6xx_HAL_Driver/Src/stm32n6xx_hal_spi.c ****                                    hspi->Init.FifoThreshold     | hspi->Init.DataSize));
 414:STM32Cube_FW_N6/Drivers/STM32N6xx_HAL_Driver/Src/stm32n6xx_hal_spi.c **** 
 415:STM32Cube_FW_N6/Drivers/STM32N6xx_HAL_Driver/Src/stm32n6xx_hal_spi.c ****   /* SPIx CFG2 Configuration */
 416:STM32Cube_FW_N6/Drivers/STM32N6xx_HAL_Driver/Src/stm32n6xx_hal_spi.c ****   WRITE_REG(hspi->Instance->CFG2, (hspi->Init.NSSPMode                | hspi->Init.TIMode    |
 1346              		.loc 1 416 3
 1347 0912 7B68     		ldr	r3, [r7, #4]
 1348 0914 5A6B     		ldr	r2, [r3, #52]
 1349 0916 7B68     		ldr	r3, [r7, #4]
 1350 0918 5B6A     		ldr	r3, [r3, #36]
 1351 091a 1A43     		orrs	r2, r2, r3
 1352 091c 7B68     		ldr	r3, [r7, #4]
 1353 091e 9B6B     		ldr	r3, [r3, #56]
 1354 0920 1A43     		orrs	r2, r2, r3
 1355 0922 7B68     		ldr	r3, [r7, #4]
 1356 0924 9B69     		ldr	r3, [r3, #24]
 1357 0926 1A43     		orrs	r2, r2, r3
 1358 0928 7B68     		ldr	r3, [r7, #4]
 1359 092a 1B69     		ldr	r3, [r3, #16]
 1360 092c 1A43     		orrs	r2, r2, r3
 1361 092e 7B68     		ldr	r3, [r7, #4]
 1362 0930 5B69     		ldr	r3, [r3, #20]
 1363 0932 1A43     		orrs	r2, r2, r3
 1364 0934 7B68     		ldr	r3, [r7, #4]
 1365 0936 1B6A     		ldr	r3, [r3, #32]
 1366 0938 1A43     		orrs	r2, r2, r3
 1367 093a 7B68     		ldr	r3, [r7, #4]
 1368 093c 5B68     		ldr	r3, [r3, #4]
 1369 093e 1A43     		orrs	r2, r2, r3
 1370 0940 7B68     		ldr	r3, [r7, #4]
 1371 0942 DB6C     		ldr	r3, [r3, #76]
 1372 0944 1A43     		orrs	r2, r2, r3
 1373 0946 7B68     		ldr	r3, [r7, #4]
 1374 0948 9B68     		ldr	r3, [r3, #8]
 1375 094a 1A43     		orrs	r2, r2, r3
 1376 094c 7B68     		ldr	r3, [r7, #4]
 1377 094e 9B6C     		ldr	r3, [r3, #72]
 1378 0950 1A43     		orrs	r2, r2, r3
 1379 0952 7B68     		ldr	r3, [r7, #4]
 1380 0954 9B6D     		ldr	r3, [r3, #88]
 1381 0956 1A43     		orrs	r2, r2, r3
 1382 0958 7B68     		ldr	r3, [r7, #4]
 1383 095a DB6D     		ldr	r3, [r3, #92]
 1384 095c 42EA0301 		orr	r1, r2, r3
 1385 0960 7B68     		ldr	r3, [r7, #4]
 1386 0962 1A6E     		ldr	r2, [r3, #96]
 1387 0964 7B68     		ldr	r3, [r7, #4]
 1388 0966 1B68     		ldr	r3, [r3]
 1389 0968 0A43     		orrs	r2, r2, r1
 1390 096a DA60     		str	r2, [r3, #12]
 417:STM32Cube_FW_N6/Drivers/STM32N6xx_HAL_Driver/Src/stm32n6xx_hal_spi.c ****                                    hspi->Init.NSSPolarity             | hspi->Init.NSS       |
 418:STM32Cube_FW_N6/Drivers/STM32N6xx_HAL_Driver/Src/stm32n6xx_hal_spi.c ****                                    hspi->Init.CLKPolarity             | hspi->Init.CLKPhase  |
 419:STM32Cube_FW_N6/Drivers/STM32N6xx_HAL_Driver/Src/stm32n6xx_hal_spi.c ****                                    hspi->Init.FirstBit                | hspi->Init.Mode      |
 420:STM32Cube_FW_N6/Drivers/STM32N6xx_HAL_Driver/Src/stm32n6xx_hal_spi.c ****                                    hspi->Init.MasterInterDataIdleness | hspi->Init.Direction |
 421:STM32Cube_FW_N6/Drivers/STM32N6xx_HAL_Driver/Src/stm32n6xx_hal_spi.c ****                                    hspi->Init.MasterSSIdleness        | hspi->Init.IOSwap    |
 422:STM32Cube_FW_N6/Drivers/STM32N6xx_HAL_Driver/Src/stm32n6xx_hal_spi.c ****                                    hspi->Init.ReadyMasterManagement   | hspi->Init.ReadyPolarity));
 423:STM32Cube_FW_N6/Drivers/STM32N6xx_HAL_Driver/Src/stm32n6xx_hal_spi.c **** 
ARM GAS  /tmp/ccwTXtVb.s 			page 33


 424:STM32Cube_FW_N6/Drivers/STM32N6xx_HAL_Driver/Src/stm32n6xx_hal_spi.c **** #if (USE_SPI_CRC != 0UL)
 425:STM32Cube_FW_N6/Drivers/STM32N6xx_HAL_Driver/Src/stm32n6xx_hal_spi.c ****   /*---------------------------- SPIx CRCPOLY Configuration ------------------*/
 426:STM32Cube_FW_N6/Drivers/STM32N6xx_HAL_Driver/Src/stm32n6xx_hal_spi.c ****   /* Configure : CRC Polynomial */
 427:STM32Cube_FW_N6/Drivers/STM32N6xx_HAL_Driver/Src/stm32n6xx_hal_spi.c ****   if (hspi->Init.CRCCalculation == SPI_CRCCALCULATION_ENABLE)
 1391              		.loc 1 427 17
 1392 096c 7B68     		ldr	r3, [r7, #4]
 1393 096e 9B6A     		ldr	r3, [r3, #40]
 1394              		.loc 1 427 6
 1395 0970 B3F5800F 		cmp	r3, #4194304
 1396 0974 40F09280 		bne	.L51
 428:STM32Cube_FW_N6/Drivers/STM32N6xx_HAL_Driver/Src/stm32n6xx_hal_spi.c ****   {
 429:STM32Cube_FW_N6/Drivers/STM32N6xx_HAL_Driver/Src/stm32n6xx_hal_spi.c ****     /* Initialize TXCRC Pattern Initial Value */
 430:STM32Cube_FW_N6/Drivers/STM32N6xx_HAL_Driver/Src/stm32n6xx_hal_spi.c ****     if (hspi->Init.TxCRCInitializationPattern == SPI_CRC_INITIALIZATION_ALL_ONE_PATTERN)
 1397              		.loc 1 430 19
 1398 0978 7B68     		ldr	r3, [r7, #4]
 1399 097a 1B6C     		ldr	r3, [r3, #64]
 1400              		.loc 1 430 8
 1401 097c 012B     		cmp	r3, #1
 1402 097e 08D1     		bne	.L52
 431:STM32Cube_FW_N6/Drivers/STM32N6xx_HAL_Driver/Src/stm32n6xx_hal_spi.c ****     {
 432:STM32Cube_FW_N6/Drivers/STM32N6xx_HAL_Driver/Src/stm32n6xx_hal_spi.c ****       SET_BIT(hspi->Instance->CR1, SPI_CR1_TCRCINI);
 1403              		.loc 1 432 7
 1404 0980 7B68     		ldr	r3, [r7, #4]
 1405 0982 1B68     		ldr	r3, [r3]
 1406 0984 1A68     		ldr	r2, [r3]
 1407 0986 7B68     		ldr	r3, [r7, #4]
 1408 0988 1B68     		ldr	r3, [r3]
 1409 098a 42F40042 		orr	r2, r2, #32768
 1410 098e 1A60     		str	r2, [r3]
 1411 0990 07E0     		b	.L53
 1412              	.L52:
 433:STM32Cube_FW_N6/Drivers/STM32N6xx_HAL_Driver/Src/stm32n6xx_hal_spi.c ****     }
 434:STM32Cube_FW_N6/Drivers/STM32N6xx_HAL_Driver/Src/stm32n6xx_hal_spi.c ****     else
 435:STM32Cube_FW_N6/Drivers/STM32N6xx_HAL_Driver/Src/stm32n6xx_hal_spi.c ****     {
 436:STM32Cube_FW_N6/Drivers/STM32N6xx_HAL_Driver/Src/stm32n6xx_hal_spi.c ****       CLEAR_BIT(hspi->Instance->CR1, SPI_CR1_TCRCINI);
 1413              		.loc 1 436 7
 1414 0992 7B68     		ldr	r3, [r7, #4]
 1415 0994 1B68     		ldr	r3, [r3]
 1416 0996 1A68     		ldr	r2, [r3]
 1417 0998 7B68     		ldr	r3, [r7, #4]
 1418 099a 1B68     		ldr	r3, [r3]
 1419 099c 22F40042 		bic	r2, r2, #32768
 1420 09a0 1A60     		str	r2, [r3]
 1421              	.L53:
 437:STM32Cube_FW_N6/Drivers/STM32N6xx_HAL_Driver/Src/stm32n6xx_hal_spi.c ****     }
 438:STM32Cube_FW_N6/Drivers/STM32N6xx_HAL_Driver/Src/stm32n6xx_hal_spi.c **** 
 439:STM32Cube_FW_N6/Drivers/STM32N6xx_HAL_Driver/Src/stm32n6xx_hal_spi.c ****     /* Initialize RXCRC Pattern Initial Value */
 440:STM32Cube_FW_N6/Drivers/STM32N6xx_HAL_Driver/Src/stm32n6xx_hal_spi.c ****     if (hspi->Init.RxCRCInitializationPattern == SPI_CRC_INITIALIZATION_ALL_ONE_PATTERN)
 1422              		.loc 1 440 19
 1423 09a2 7B68     		ldr	r3, [r7, #4]
 1424 09a4 5B6C     		ldr	r3, [r3, #68]
 1425              		.loc 1 440 8
 1426 09a6 012B     		cmp	r3, #1
 1427 09a8 08D1     		bne	.L54
 441:STM32Cube_FW_N6/Drivers/STM32N6xx_HAL_Driver/Src/stm32n6xx_hal_spi.c ****     {
 442:STM32Cube_FW_N6/Drivers/STM32N6xx_HAL_Driver/Src/stm32n6xx_hal_spi.c ****       SET_BIT(hspi->Instance->CR1, SPI_CR1_RCRCINI);
 1428              		.loc 1 442 7
ARM GAS  /tmp/ccwTXtVb.s 			page 34


 1429 09aa 7B68     		ldr	r3, [r7, #4]
 1430 09ac 1B68     		ldr	r3, [r3]
 1431 09ae 1A68     		ldr	r2, [r3]
 1432 09b0 7B68     		ldr	r3, [r7, #4]
 1433 09b2 1B68     		ldr	r3, [r3]
 1434 09b4 42F48042 		orr	r2, r2, #16384
 1435 09b8 1A60     		str	r2, [r3]
 1436 09ba 07E0     		b	.L55
 1437              	.L54:
 443:STM32Cube_FW_N6/Drivers/STM32N6xx_HAL_Driver/Src/stm32n6xx_hal_spi.c ****     }
 444:STM32Cube_FW_N6/Drivers/STM32N6xx_HAL_Driver/Src/stm32n6xx_hal_spi.c ****     else
 445:STM32Cube_FW_N6/Drivers/STM32N6xx_HAL_Driver/Src/stm32n6xx_hal_spi.c ****     {
 446:STM32Cube_FW_N6/Drivers/STM32N6xx_HAL_Driver/Src/stm32n6xx_hal_spi.c ****       CLEAR_BIT(hspi->Instance->CR1, SPI_CR1_RCRCINI);
 1438              		.loc 1 446 7
 1439 09bc 7B68     		ldr	r3, [r7, #4]
 1440 09be 1B68     		ldr	r3, [r3]
 1441 09c0 1A68     		ldr	r2, [r3]
 1442 09c2 7B68     		ldr	r3, [r7, #4]
 1443 09c4 1B68     		ldr	r3, [r3]
 1444 09c6 22F48042 		bic	r2, r2, #16384
 1445 09ca 1A60     		str	r2, [r3]
 1446              	.L55:
 447:STM32Cube_FW_N6/Drivers/STM32N6xx_HAL_Driver/Src/stm32n6xx_hal_spi.c ****     }
 448:STM32Cube_FW_N6/Drivers/STM32N6xx_HAL_Driver/Src/stm32n6xx_hal_spi.c **** 
 449:STM32Cube_FW_N6/Drivers/STM32N6xx_HAL_Driver/Src/stm32n6xx_hal_spi.c ****     /* Enable 33/17 bits CRC computation */
 450:STM32Cube_FW_N6/Drivers/STM32N6xx_HAL_Driver/Src/stm32n6xx_hal_spi.c ****     if (((IS_SPI_LIMITED_INSTANCE(hspi->Instance)) && (crc_length == SPI_CRC_LENGTH_16BIT)) ||
 1447              		.loc 1 450 11
 1448 09cc 7B68     		ldr	r3, [r7, #4]
 1449 09ce 1B68     		ldr	r3, [r3]
 1450              		.loc 1 450 8
 1451 09d0 4B4A     		ldr	r2, .L69
 1452 09d2 9342     		cmp	r3, r2
 1453 09d4 0ED0     		beq	.L56
 1454              		.loc 1 450 11 discriminator 2
 1455 09d6 7B68     		ldr	r3, [r7, #4]
 1456 09d8 1B68     		ldr	r3, [r3]
 1457 09da 4A4A     		ldr	r2, .L69+4
 1458 09dc 9342     		cmp	r3, r2
 1459 09de 09D0     		beq	.L56
 1460              		.loc 1 450 11 is_stmt 0 discriminator 4
 1461 09e0 7B68     		ldr	r3, [r7, #4]
 1462 09e2 1B68     		ldr	r3, [r3]
 1463 09e4 484A     		ldr	r2, .L69+8
 1464 09e6 9342     		cmp	r3, r2
 1465 09e8 04D0     		beq	.L56
 1466              		.loc 1 450 11 discriminator 6
 1467 09ea 7B68     		ldr	r3, [r7, #4]
 1468 09ec 1B68     		ldr	r3, [r3]
 1469 09ee 474A     		ldr	r2, .L69+12
 1470 09f0 9342     		cmp	r3, r2
 1471 09f2 03D1     		bne	.L57
 1472              	.L56:
 1473              		.loc 1 450 52 is_stmt 1 discriminator 7
 1474 09f4 7B69     		ldr	r3, [r7, #20]
 1475 09f6 B3F5702F 		cmp	r3, #983040
 1476 09fa 2BD0     		beq	.L58
 1477              	.L57:
ARM GAS  /tmp/ccwTXtVb.s 			page 35


 451:STM32Cube_FW_N6/Drivers/STM32N6xx_HAL_Driver/Src/stm32n6xx_hal_spi.c ****         ((IS_SPI_FULL_INSTANCE(hspi->Instance)) && (crc_length == SPI_CRC_LENGTH_32BIT)))
 1478              		.loc 1 451 11
 1479 09fc 7B68     		ldr	r3, [r7, #4]
 1480 09fe 1B68     		ldr	r3, [r3]
 450:STM32Cube_FW_N6/Drivers/STM32N6xx_HAL_Driver/Src/stm32n6xx_hal_spi.c ****         ((IS_SPI_FULL_INSTANCE(hspi->Instance)) && (crc_length == SPI_CRC_LENGTH_32BIT)))
 1481              		.loc 1 450 93 discriminator 9
 1482 0a00 434A     		ldr	r2, .L69+16
 1483 0a02 9342     		cmp	r3, r2
 1484 0a04 22D0     		beq	.L59
 1485              		.loc 1 451 11
 1486 0a06 7B68     		ldr	r3, [r7, #4]
 1487 0a08 1B68     		ldr	r3, [r3]
 1488 0a0a 424A     		ldr	r2, .L69+20
 1489 0a0c 9342     		cmp	r3, r2
 1490 0a0e 1DD0     		beq	.L59
 1491              		.loc 1 451 11 is_stmt 0 discriminator 2
 1492 0a10 7B68     		ldr	r3, [r7, #4]
 1493 0a12 1B68     		ldr	r3, [r3]
 1494 0a14 404A     		ldr	r2, .L69+24
 1495 0a16 9342     		cmp	r3, r2
 1496 0a18 18D0     		beq	.L59
 1497              		.loc 1 451 11 discriminator 4
 1498 0a1a 7B68     		ldr	r3, [r7, #4]
 1499 0a1c 1B68     		ldr	r3, [r3]
 1500 0a1e 3F4A     		ldr	r2, .L69+28
 1501 0a20 9342     		cmp	r3, r2
 1502 0a22 13D0     		beq	.L59
 1503              		.loc 1 451 11 discriminator 6
 1504 0a24 7B68     		ldr	r3, [r7, #4]
 1505 0a26 1B68     		ldr	r3, [r3]
 1506 0a28 3D4A     		ldr	r2, .L69+32
 1507 0a2a 9342     		cmp	r3, r2
 1508 0a2c 0ED0     		beq	.L59
 1509              		.loc 1 451 11 discriminator 8
 1510 0a2e 7B68     		ldr	r3, [r7, #4]
 1511 0a30 1B68     		ldr	r3, [r3]
 1512 0a32 3C4A     		ldr	r2, .L69+36
 1513 0a34 9342     		cmp	r3, r2
 1514 0a36 09D0     		beq	.L59
 1515              		.loc 1 451 11 discriminator 10
 1516 0a38 7B68     		ldr	r3, [r7, #4]
 1517 0a3a 1B68     		ldr	r3, [r3]
 1518 0a3c 3A4A     		ldr	r2, .L69+40
 1519 0a3e 9342     		cmp	r3, r2
 1520 0a40 04D0     		beq	.L59
 1521              		.loc 1 451 11 discriminator 12
 1522 0a42 7B68     		ldr	r3, [r7, #4]
 1523 0a44 1B68     		ldr	r3, [r3]
 1524 0a46 394A     		ldr	r2, .L69+44
 1525 0a48 9342     		cmp	r3, r2
 1526 0a4a 11D1     		bne	.L60
 1527              	.L59:
 1528              		.loc 1 451 49 is_stmt 1 discriminator 13
 1529 0a4c 7B69     		ldr	r3, [r7, #20]
 1530 0a4e B3F5F81F 		cmp	r3, #2031616
 1531 0a52 0DD1     		bne	.L60
 1532              	.L58:
ARM GAS  /tmp/ccwTXtVb.s 			page 36


 452:STM32Cube_FW_N6/Drivers/STM32N6xx_HAL_Driver/Src/stm32n6xx_hal_spi.c ****     {
 453:STM32Cube_FW_N6/Drivers/STM32N6xx_HAL_Driver/Src/stm32n6xx_hal_spi.c ****       /* Set SPI_CR1_CRC33_17 bit */
 454:STM32Cube_FW_N6/Drivers/STM32N6xx_HAL_Driver/Src/stm32n6xx_hal_spi.c ****       SET_BIT(hspi->Instance->CR1, SPI_CR1_CRC33_17);
 1533              		.loc 1 454 7
 1534 0a54 7B68     		ldr	r3, [r7, #4]
 1535 0a56 1B68     		ldr	r3, [r3]
 1536 0a58 1A68     		ldr	r2, [r3]
 1537 0a5a 7B68     		ldr	r3, [r7, #4]
 1538 0a5c 1B68     		ldr	r3, [r3]
 1539 0a5e 42F40052 		orr	r2, r2, #8192
 1540 0a62 1A60     		str	r2, [r3]
 455:STM32Cube_FW_N6/Drivers/STM32N6xx_HAL_Driver/Src/stm32n6xx_hal_spi.c ****       /* Write CRC polynomial in SPI Register */
 456:STM32Cube_FW_N6/Drivers/STM32N6xx_HAL_Driver/Src/stm32n6xx_hal_spi.c ****       WRITE_REG(hspi->Instance->CRCPOLY, hspi->Init.CRCPolynomial);
 1541              		.loc 1 456 7
 1542 0a64 7B68     		ldr	r3, [r7, #4]
 1543 0a66 1B68     		ldr	r3, [r3]
 1544 0a68 7A68     		ldr	r2, [r7, #4]
 1545 0a6a D26A     		ldr	r2, [r2, #44]
 1546 0a6c 1A64     		str	r2, [r3, #64]
 1547 0a6e 15E0     		b	.L51
 1548              	.L60:
 457:STM32Cube_FW_N6/Drivers/STM32N6xx_HAL_Driver/Src/stm32n6xx_hal_spi.c ****     }
 458:STM32Cube_FW_N6/Drivers/STM32N6xx_HAL_Driver/Src/stm32n6xx_hal_spi.c ****     else
 459:STM32Cube_FW_N6/Drivers/STM32N6xx_HAL_Driver/Src/stm32n6xx_hal_spi.c ****     {
 460:STM32Cube_FW_N6/Drivers/STM32N6xx_HAL_Driver/Src/stm32n6xx_hal_spi.c ****       /* Clear SPI_CR1_CRC33_17 bit */
 461:STM32Cube_FW_N6/Drivers/STM32N6xx_HAL_Driver/Src/stm32n6xx_hal_spi.c ****       CLEAR_BIT(hspi->Instance->CR1, SPI_CR1_CRC33_17);
 1549              		.loc 1 461 7
 1550 0a70 7B68     		ldr	r3, [r7, #4]
 1551 0a72 1B68     		ldr	r3, [r3]
 1552 0a74 1A68     		ldr	r2, [r3]
 1553 0a76 7B68     		ldr	r3, [r7, #4]
 1554 0a78 1B68     		ldr	r3, [r3]
 1555 0a7a 22F40052 		bic	r2, r2, #8192
 1556 0a7e 1A60     		str	r2, [r3]
 462:STM32Cube_FW_N6/Drivers/STM32N6xx_HAL_Driver/Src/stm32n6xx_hal_spi.c **** 
 463:STM32Cube_FW_N6/Drivers/STM32N6xx_HAL_Driver/Src/stm32n6xx_hal_spi.c ****       /* Write CRC polynomial and set MSB bit at 1 in SPI Register */
 464:STM32Cube_FW_N6/Drivers/STM32N6xx_HAL_Driver/Src/stm32n6xx_hal_spi.c ****       /* Set MSB is mandatory for a correct CRC computation        */
 465:STM32Cube_FW_N6/Drivers/STM32N6xx_HAL_Driver/Src/stm32n6xx_hal_spi.c ****       crc_poly_msb_mask = (0x1UL << ((crc_length >> SPI_CFG1_CRCSIZE_Pos) + 0x1U));
 1557              		.loc 1 465 50
 1558 0a80 7B69     		ldr	r3, [r7, #20]
 1559 0a82 1B0C     		lsrs	r3, r3, #16
 1560              		.loc 1 465 75
 1561 0a84 0133     		adds	r3, r3, #1
 1562              		.loc 1 465 25
 1563 0a86 0122     		movs	r2, #1
 1564 0a88 02FA03F3 		lsl	r3, r2, r3
 1565 0a8c FB60     		str	r3, [r7, #12]
 466:STM32Cube_FW_N6/Drivers/STM32N6xx_HAL_Driver/Src/stm32n6xx_hal_spi.c ****       WRITE_REG(hspi->Instance->CRCPOLY, (hspi->Init.CRCPolynomial) | crc_poly_msb_mask);
 1566              		.loc 1 466 7
 1567 0a8e 7B68     		ldr	r3, [r7, #4]
 1568 0a90 D96A     		ldr	r1, [r3, #44]
 1569 0a92 7B68     		ldr	r3, [r7, #4]
 1570 0a94 1B68     		ldr	r3, [r3]
 1571 0a96 FA68     		ldr	r2, [r7, #12]
 1572 0a98 0A43     		orrs	r2, r2, r1
 1573 0a9a 1A64     		str	r2, [r3, #64]
 1574              	.L51:
ARM GAS  /tmp/ccwTXtVb.s 			page 37


 467:STM32Cube_FW_N6/Drivers/STM32N6xx_HAL_Driver/Src/stm32n6xx_hal_spi.c ****     }
 468:STM32Cube_FW_N6/Drivers/STM32N6xx_HAL_Driver/Src/stm32n6xx_hal_spi.c ****   }
 469:STM32Cube_FW_N6/Drivers/STM32N6xx_HAL_Driver/Src/stm32n6xx_hal_spi.c **** #endif /* USE_SPI_CRC */
 470:STM32Cube_FW_N6/Drivers/STM32N6xx_HAL_Driver/Src/stm32n6xx_hal_spi.c **** 
 471:STM32Cube_FW_N6/Drivers/STM32N6xx_HAL_Driver/Src/stm32n6xx_hal_spi.c ****   /* Insure that Underrun configuration is managed only by Salve */
 472:STM32Cube_FW_N6/Drivers/STM32N6xx_HAL_Driver/Src/stm32n6xx_hal_spi.c ****   if (hspi->Init.Mode == SPI_MODE_SLAVE)
 1575              		.loc 1 472 17
 1576 0a9c 7B68     		ldr	r3, [r7, #4]
 1577 0a9e 5B68     		ldr	r3, [r3, #4]
 1578              		.loc 1 472 6
 1579 0aa0 002B     		cmp	r3, #0
 1580 0aa2 07D1     		bne	.L61
 473:STM32Cube_FW_N6/Drivers/STM32N6xx_HAL_Driver/Src/stm32n6xx_hal_spi.c ****   {
 474:STM32Cube_FW_N6/Drivers/STM32N6xx_HAL_Driver/Src/stm32n6xx_hal_spi.c **** #if (USE_SPI_CRC != 0UL)
 475:STM32Cube_FW_N6/Drivers/STM32N6xx_HAL_Driver/Src/stm32n6xx_hal_spi.c ****     MODIFY_REG(hspi->Instance->CFG1, SPI_CFG1_UDRCFG, SPI_CFG1_UDRCFG);
 1581              		.loc 1 475 5
 1582 0aa4 7B68     		ldr	r3, [r7, #4]
 1583 0aa6 1B68     		ldr	r3, [r3]
 1584 0aa8 9A68     		ldr	r2, [r3, #8]
 1585 0aaa 7B68     		ldr	r3, [r7, #4]
 1586 0aac 1B68     		ldr	r3, [r3]
 1587 0aae 42F40072 		orr	r2, r2, #512
 1588 0ab2 9A60     		str	r2, [r3, #8]
 1589              	.L61:
 476:STM32Cube_FW_N6/Drivers/STM32N6xx_HAL_Driver/Src/stm32n6xx_hal_spi.c **** #endif /* USE_SPI_CRC */
 477:STM32Cube_FW_N6/Drivers/STM32N6xx_HAL_Driver/Src/stm32n6xx_hal_spi.c ****   }
 478:STM32Cube_FW_N6/Drivers/STM32N6xx_HAL_Driver/Src/stm32n6xx_hal_spi.c **** 
 479:STM32Cube_FW_N6/Drivers/STM32N6xx_HAL_Driver/Src/stm32n6xx_hal_spi.c **** #if defined(SPI_I2SCFGR_I2SMOD)
 480:STM32Cube_FW_N6/Drivers/STM32N6xx_HAL_Driver/Src/stm32n6xx_hal_spi.c ****   /* Activate the SPI mode (Make sure that I2SMOD bit in I2SCFGR register is reset) */
 481:STM32Cube_FW_N6/Drivers/STM32N6xx_HAL_Driver/Src/stm32n6xx_hal_spi.c ****   CLEAR_BIT(hspi->Instance->I2SCFGR, SPI_I2SCFGR_I2SMOD);
 1590              		.loc 1 481 3
 1591 0ab4 7B68     		ldr	r3, [r7, #4]
 1592 0ab6 1B68     		ldr	r3, [r3]
 1593 0ab8 1A6D     		ldr	r2, [r3, #80]
 1594 0aba 7B68     		ldr	r3, [r7, #4]
 1595 0abc 1B68     		ldr	r3, [r3]
 1596 0abe 22F00102 		bic	r2, r2, #1
 1597 0ac2 1A65     		str	r2, [r3, #80]
 482:STM32Cube_FW_N6/Drivers/STM32N6xx_HAL_Driver/Src/stm32n6xx_hal_spi.c **** #endif /* SPI_I2SCFGR_I2SMOD */
 483:STM32Cube_FW_N6/Drivers/STM32N6xx_HAL_Driver/Src/stm32n6xx_hal_spi.c **** 
 484:STM32Cube_FW_N6/Drivers/STM32N6xx_HAL_Driver/Src/stm32n6xx_hal_spi.c ****   /* Insure that AFCNTR is managed only by Master */
 485:STM32Cube_FW_N6/Drivers/STM32N6xx_HAL_Driver/Src/stm32n6xx_hal_spi.c ****   if ((hspi->Init.Mode & SPI_MODE_MASTER) == SPI_MODE_MASTER)
 1598              		.loc 1 485 18
 1599 0ac4 7B68     		ldr	r3, [r7, #4]
 1600 0ac6 5B68     		ldr	r3, [r3, #4]
 1601              		.loc 1 485 24
 1602 0ac8 03F48003 		and	r3, r3, #4194304
 1603              		.loc 1 485 6
 1604 0acc 002B     		cmp	r3, #0
 1605 0ace 0AD0     		beq	.L62
 486:STM32Cube_FW_N6/Drivers/STM32N6xx_HAL_Driver/Src/stm32n6xx_hal_spi.c ****   {
 487:STM32Cube_FW_N6/Drivers/STM32N6xx_HAL_Driver/Src/stm32n6xx_hal_spi.c ****     /* Alternate function GPIOs control */
 488:STM32Cube_FW_N6/Drivers/STM32N6xx_HAL_Driver/Src/stm32n6xx_hal_spi.c ****     MODIFY_REG(hspi->Instance->CFG2, SPI_CFG2_AFCNTR, (hspi->Init.MasterKeepIOState));
 1606              		.loc 1 488 5
 1607 0ad0 7B68     		ldr	r3, [r7, #4]
 1608 0ad2 1B68     		ldr	r3, [r3]
 1609 0ad4 DB68     		ldr	r3, [r3, #12]
ARM GAS  /tmp/ccwTXtVb.s 			page 38


 1610 0ad6 23F00041 		bic	r1, r3, #-2147483648
 1611 0ada 7B68     		ldr	r3, [r7, #4]
 1612 0adc 5A6D     		ldr	r2, [r3, #84]
 1613 0ade 7B68     		ldr	r3, [r7, #4]
 1614 0ae0 1B68     		ldr	r3, [r3]
 1615 0ae2 0A43     		orrs	r2, r2, r1
 1616 0ae4 DA60     		str	r2, [r3, #12]
 1617              	.L62:
 489:STM32Cube_FW_N6/Drivers/STM32N6xx_HAL_Driver/Src/stm32n6xx_hal_spi.c ****   }
 490:STM32Cube_FW_N6/Drivers/STM32N6xx_HAL_Driver/Src/stm32n6xx_hal_spi.c **** 
 491:STM32Cube_FW_N6/Drivers/STM32N6xx_HAL_Driver/Src/stm32n6xx_hal_spi.c ****   hspi->ErrorCode = HAL_SPI_ERROR_NONE;
 1618              		.loc 1 491 19
 1619 0ae6 7B68     		ldr	r3, [r7, #4]
 1620 0ae8 0022     		movs	r2, #0
 1621 0aea C3F88C20 		str	r2, [r3, #140]
 492:STM32Cube_FW_N6/Drivers/STM32N6xx_HAL_Driver/Src/stm32n6xx_hal_spi.c ****   hspi->State     = HAL_SPI_STATE_READY;
 1622              		.loc 1 492 19
 1623 0aee 7B68     		ldr	r3, [r7, #4]
 1624 0af0 0122     		movs	r2, #1
 1625 0af2 83F88920 		strb	r2, [r3, #137]
 493:STM32Cube_FW_N6/Drivers/STM32N6xx_HAL_Driver/Src/stm32n6xx_hal_spi.c **** 
 494:STM32Cube_FW_N6/Drivers/STM32N6xx_HAL_Driver/Src/stm32n6xx_hal_spi.c ****   return HAL_OK;
 1626              		.loc 1 494 10
 1627 0af6 0023     		movs	r3, #0
 1628              	.L3:
 495:STM32Cube_FW_N6/Drivers/STM32N6xx_HAL_Driver/Src/stm32n6xx_hal_spi.c **** }
 1629              		.loc 1 495 1
 1630 0af8 1846     		mov	r0, r3
 1631 0afa 1837     		adds	r7, r7, #24
 1632              		.cfi_def_cfa_offset 8
 1633 0afc BD46     		mov	sp, r7
 1634              		.cfi_def_cfa_register 13
 1635              		@ sp needed
 1636 0afe 80BD     		pop	{r7, pc}
 1637              	.L70:
 1638              		.align	2
 1639              	.L69:
 1640 0b00 00340052 		.word	1375745024
 1641 0b04 00340042 		.word	1107309568
 1642 0b08 00500052 		.word	1375752192
 1643 0b0c 00500042 		.word	1107316736
 1644 0b10 00300052 		.word	1375744000
 1645 0b14 00300042 		.word	1107308544
 1646 0b18 00380050 		.word	1342191616
 1647 0b1c 00380040 		.word	1073756160
 1648 0b20 003C0050 		.word	1342192640
 1649 0b24 003C0040 		.word	1073757184
 1650 0b28 00140056 		.word	1442845696
 1651 0b2c 00140046 		.word	1174410240
 1652              		.cfi_endproc
 1653              	.LFE835:
 1655              		.section	.text.HAL_SPI_DeInit,"ax",%progbits
 1656              		.align	1
 1657              		.global	HAL_SPI_DeInit
 1658              		.syntax unified
 1659              		.thumb
 1660              		.thumb_func
ARM GAS  /tmp/ccwTXtVb.s 			page 39


 1662              	HAL_SPI_DeInit:
 1663              	.LFB836:
 496:STM32Cube_FW_N6/Drivers/STM32N6xx_HAL_Driver/Src/stm32n6xx_hal_spi.c **** 
 497:STM32Cube_FW_N6/Drivers/STM32N6xx_HAL_Driver/Src/stm32n6xx_hal_spi.c **** /**
 498:STM32Cube_FW_N6/Drivers/STM32N6xx_HAL_Driver/Src/stm32n6xx_hal_spi.c ****   * @brief  De-Initialize the SPI peripheral.
 499:STM32Cube_FW_N6/Drivers/STM32N6xx_HAL_Driver/Src/stm32n6xx_hal_spi.c ****   * @param  hspi: pointer to a SPI_HandleTypeDef structure that contains
 500:STM32Cube_FW_N6/Drivers/STM32N6xx_HAL_Driver/Src/stm32n6xx_hal_spi.c ****   *               the configuration information for SPI module.
 501:STM32Cube_FW_N6/Drivers/STM32N6xx_HAL_Driver/Src/stm32n6xx_hal_spi.c ****   * @retval HAL status
 502:STM32Cube_FW_N6/Drivers/STM32N6xx_HAL_Driver/Src/stm32n6xx_hal_spi.c ****   */
 503:STM32Cube_FW_N6/Drivers/STM32N6xx_HAL_Driver/Src/stm32n6xx_hal_spi.c **** HAL_StatusTypeDef HAL_SPI_DeInit(SPI_HandleTypeDef *hspi)
 504:STM32Cube_FW_N6/Drivers/STM32N6xx_HAL_Driver/Src/stm32n6xx_hal_spi.c **** {
 1664              		.loc 1 504 1
 1665              		.cfi_startproc
 1666              		@ args = 0, pretend = 0, frame = 8
 1667              		@ frame_needed = 1, uses_anonymous_args = 0
 1668 0000 80B5     		push	{r7, lr}
 1669              		.cfi_def_cfa_offset 8
 1670              		.cfi_offset 7, -8
 1671              		.cfi_offset 14, -4
 1672 0002 82B0     		sub	sp, sp, #8
 1673              		.cfi_def_cfa_offset 16
 1674 0004 00AF     		add	r7, sp, #0
 1675              		.cfi_def_cfa_register 7
 1676 0006 7860     		str	r0, [r7, #4]
 505:STM32Cube_FW_N6/Drivers/STM32N6xx_HAL_Driver/Src/stm32n6xx_hal_spi.c ****   /* Check the SPI handle allocation */
 506:STM32Cube_FW_N6/Drivers/STM32N6xx_HAL_Driver/Src/stm32n6xx_hal_spi.c ****   if (hspi == NULL)
 1677              		.loc 1 506 6
 1678 0008 7B68     		ldr	r3, [r7, #4]
 1679 000a 002B     		cmp	r3, #0
 1680 000c 01D1     		bne	.L72
 507:STM32Cube_FW_N6/Drivers/STM32N6xx_HAL_Driver/Src/stm32n6xx_hal_spi.c ****   {
 508:STM32Cube_FW_N6/Drivers/STM32N6xx_HAL_Driver/Src/stm32n6xx_hal_spi.c ****     return HAL_ERROR;
 1681              		.loc 1 508 12
 1682 000e 0123     		movs	r3, #1
 1683 0010 5CE0     		b	.L73
 1684              	.L72:
 509:STM32Cube_FW_N6/Drivers/STM32N6xx_HAL_Driver/Src/stm32n6xx_hal_spi.c ****   }
 510:STM32Cube_FW_N6/Drivers/STM32N6xx_HAL_Driver/Src/stm32n6xx_hal_spi.c **** 
 511:STM32Cube_FW_N6/Drivers/STM32N6xx_HAL_Driver/Src/stm32n6xx_hal_spi.c ****   /* Check SPI Instance parameter */
 512:STM32Cube_FW_N6/Drivers/STM32N6xx_HAL_Driver/Src/stm32n6xx_hal_spi.c ****   assert_param(IS_SPI_ALL_INSTANCE(hspi->Instance));
 1685              		.loc 1 512 3
 1686 0012 7B68     		ldr	r3, [r7, #4]
 1687 0014 1B68     		ldr	r3, [r3]
 1688 0016 2F4A     		ldr	r2, .L75
 1689 0018 9342     		cmp	r3, r2
 1690 001a 3BD0     		beq	.L74
 1691              		.loc 1 512 3 is_stmt 0 discriminator 1
 1692 001c 7B68     		ldr	r3, [r7, #4]
 1693 001e 1B68     		ldr	r3, [r3]
 1694 0020 2D4A     		ldr	r2, .L75+4
 1695 0022 9342     		cmp	r3, r2
 1696 0024 36D0     		beq	.L74
 1697              		.loc 1 512 3 discriminator 2
 1698 0026 7B68     		ldr	r3, [r7, #4]
 1699 0028 1B68     		ldr	r3, [r3]
 1700 002a 2C4A     		ldr	r2, .L75+8
 1701 002c 9342     		cmp	r3, r2
ARM GAS  /tmp/ccwTXtVb.s 			page 40


 1702 002e 31D0     		beq	.L74
 1703              		.loc 1 512 3 discriminator 3
 1704 0030 7B68     		ldr	r3, [r7, #4]
 1705 0032 1B68     		ldr	r3, [r3]
 1706 0034 2A4A     		ldr	r2, .L75+12
 1707 0036 9342     		cmp	r3, r2
 1708 0038 2CD0     		beq	.L74
 1709              		.loc 1 512 3 discriminator 4
 1710 003a 7B68     		ldr	r3, [r7, #4]
 1711 003c 1B68     		ldr	r3, [r3]
 1712 003e 294A     		ldr	r2, .L75+16
 1713 0040 9342     		cmp	r3, r2
 1714 0042 27D0     		beq	.L74
 1715              		.loc 1 512 3 discriminator 5
 1716 0044 7B68     		ldr	r3, [r7, #4]
 1717 0046 1B68     		ldr	r3, [r3]
 1718 0048 274A     		ldr	r2, .L75+20
 1719 004a 9342     		cmp	r3, r2
 1720 004c 22D0     		beq	.L74
 1721              		.loc 1 512 3 discriminator 6
 1722 004e 7B68     		ldr	r3, [r7, #4]
 1723 0050 1B68     		ldr	r3, [r3]
 1724 0052 264A     		ldr	r2, .L75+24
 1725 0054 9342     		cmp	r3, r2
 1726 0056 1DD0     		beq	.L74
 1727              		.loc 1 512 3 discriminator 7
 1728 0058 7B68     		ldr	r3, [r7, #4]
 1729 005a 1B68     		ldr	r3, [r3]
 1730 005c 244A     		ldr	r2, .L75+28
 1731 005e 9342     		cmp	r3, r2
 1732 0060 18D0     		beq	.L74
 1733              		.loc 1 512 3 discriminator 8
 1734 0062 7B68     		ldr	r3, [r7, #4]
 1735 0064 1B68     		ldr	r3, [r3]
 1736 0066 234A     		ldr	r2, .L75+32
 1737 0068 9342     		cmp	r3, r2
 1738 006a 13D0     		beq	.L74
 1739              		.loc 1 512 3 discriminator 9
 1740 006c 7B68     		ldr	r3, [r7, #4]
 1741 006e 1B68     		ldr	r3, [r3]
 1742 0070 214A     		ldr	r2, .L75+36
 1743 0072 9342     		cmp	r3, r2
 1744 0074 0ED0     		beq	.L74
 1745              		.loc 1 512 3 discriminator 10
 1746 0076 7B68     		ldr	r3, [r7, #4]
 1747 0078 1B68     		ldr	r3, [r3]
 1748 007a 204A     		ldr	r2, .L75+40
 1749 007c 9342     		cmp	r3, r2
 1750 007e 09D0     		beq	.L74
 1751              		.loc 1 512 3 discriminator 11
 1752 0080 7B68     		ldr	r3, [r7, #4]
 1753 0082 1B68     		ldr	r3, [r3]
 1754 0084 1E4A     		ldr	r2, .L75+44
 1755 0086 9342     		cmp	r3, r2
 1756 0088 04D0     		beq	.L74
 1757              		.loc 1 512 3 discriminator 12
 1758 008a 4FF40071 		mov	r1, #512
ARM GAS  /tmp/ccwTXtVb.s 			page 41


 1759 008e 1D48     		ldr	r0, .L75+48
 1760 0090 FFF7FEFF 		bl	assert_failed
 1761              	.L74:
 513:STM32Cube_FW_N6/Drivers/STM32N6xx_HAL_Driver/Src/stm32n6xx_hal_spi.c **** 
 514:STM32Cube_FW_N6/Drivers/STM32N6xx_HAL_Driver/Src/stm32n6xx_hal_spi.c ****   hspi->State = HAL_SPI_STATE_BUSY;
 1762              		.loc 1 514 15 is_stmt 1
 1763 0094 7B68     		ldr	r3, [r7, #4]
 1764 0096 0222     		movs	r2, #2
 1765 0098 83F88920 		strb	r2, [r3, #137]
 515:STM32Cube_FW_N6/Drivers/STM32N6xx_HAL_Driver/Src/stm32n6xx_hal_spi.c **** 
 516:STM32Cube_FW_N6/Drivers/STM32N6xx_HAL_Driver/Src/stm32n6xx_hal_spi.c ****   /* Disable the SPI Peripheral Clock */
 517:STM32Cube_FW_N6/Drivers/STM32N6xx_HAL_Driver/Src/stm32n6xx_hal_spi.c ****   __HAL_SPI_DISABLE(hspi);
 1766              		.loc 1 517 3
 1767 009c 7B68     		ldr	r3, [r7, #4]
 1768 009e 1B68     		ldr	r3, [r3]
 1769 00a0 1A68     		ldr	r2, [r3]
 1770 00a2 7B68     		ldr	r3, [r7, #4]
 1771 00a4 1B68     		ldr	r3, [r3]
 1772 00a6 22F00102 		bic	r2, r2, #1
 1773 00aa 1A60     		str	r2, [r3]
 518:STM32Cube_FW_N6/Drivers/STM32N6xx_HAL_Driver/Src/stm32n6xx_hal_spi.c **** 
 519:STM32Cube_FW_N6/Drivers/STM32N6xx_HAL_Driver/Src/stm32n6xx_hal_spi.c **** #if (USE_HAL_SPI_REGISTER_CALLBACKS == 1UL)
 520:STM32Cube_FW_N6/Drivers/STM32N6xx_HAL_Driver/Src/stm32n6xx_hal_spi.c ****   if (hspi->MspDeInitCallback == NULL)
 521:STM32Cube_FW_N6/Drivers/STM32N6xx_HAL_Driver/Src/stm32n6xx_hal_spi.c ****   {
 522:STM32Cube_FW_N6/Drivers/STM32N6xx_HAL_Driver/Src/stm32n6xx_hal_spi.c ****     hspi->MspDeInitCallback = HAL_SPI_MspDeInit; /* Legacy weak MspDeInit  */
 523:STM32Cube_FW_N6/Drivers/STM32N6xx_HAL_Driver/Src/stm32n6xx_hal_spi.c ****   }
 524:STM32Cube_FW_N6/Drivers/STM32N6xx_HAL_Driver/Src/stm32n6xx_hal_spi.c **** 
 525:STM32Cube_FW_N6/Drivers/STM32N6xx_HAL_Driver/Src/stm32n6xx_hal_spi.c ****   /* DeInit the low level hardware: GPIO, CLOCK, NVIC... */
 526:STM32Cube_FW_N6/Drivers/STM32N6xx_HAL_Driver/Src/stm32n6xx_hal_spi.c ****   hspi->MspDeInitCallback(hspi);
 527:STM32Cube_FW_N6/Drivers/STM32N6xx_HAL_Driver/Src/stm32n6xx_hal_spi.c **** #else
 528:STM32Cube_FW_N6/Drivers/STM32N6xx_HAL_Driver/Src/stm32n6xx_hal_spi.c ****   /* DeInit the low level hardware: GPIO, CLOCK, NVIC... */
 529:STM32Cube_FW_N6/Drivers/STM32N6xx_HAL_Driver/Src/stm32n6xx_hal_spi.c ****   HAL_SPI_MspDeInit(hspi);
 1774              		.loc 1 529 3
 1775 00ac 7868     		ldr	r0, [r7, #4]
 1776 00ae FFF7FEFF 		bl	HAL_SPI_MspDeInit
 530:STM32Cube_FW_N6/Drivers/STM32N6xx_HAL_Driver/Src/stm32n6xx_hal_spi.c **** #endif /* USE_HAL_SPI_REGISTER_CALLBACKS */
 531:STM32Cube_FW_N6/Drivers/STM32N6xx_HAL_Driver/Src/stm32n6xx_hal_spi.c **** 
 532:STM32Cube_FW_N6/Drivers/STM32N6xx_HAL_Driver/Src/stm32n6xx_hal_spi.c ****   hspi->ErrorCode = HAL_SPI_ERROR_NONE;
 1777              		.loc 1 532 19
 1778 00b2 7B68     		ldr	r3, [r7, #4]
 1779 00b4 0022     		movs	r2, #0
 1780 00b6 C3F88C20 		str	r2, [r3, #140]
 533:STM32Cube_FW_N6/Drivers/STM32N6xx_HAL_Driver/Src/stm32n6xx_hal_spi.c ****   hspi->State = HAL_SPI_STATE_RESET;
 1781              		.loc 1 533 15
 1782 00ba 7B68     		ldr	r3, [r7, #4]
 1783 00bc 0022     		movs	r2, #0
 1784 00be 83F88920 		strb	r2, [r3, #137]
 534:STM32Cube_FW_N6/Drivers/STM32N6xx_HAL_Driver/Src/stm32n6xx_hal_spi.c **** 
 535:STM32Cube_FW_N6/Drivers/STM32N6xx_HAL_Driver/Src/stm32n6xx_hal_spi.c ****   /* Release Lock */
 536:STM32Cube_FW_N6/Drivers/STM32N6xx_HAL_Driver/Src/stm32n6xx_hal_spi.c ****   __HAL_UNLOCK(hspi);
 1785              		.loc 1 536 3
 1786 00c2 7B68     		ldr	r3, [r7, #4]
 1787 00c4 0022     		movs	r2, #0
 1788 00c6 83F88820 		strb	r2, [r3, #136]
 537:STM32Cube_FW_N6/Drivers/STM32N6xx_HAL_Driver/Src/stm32n6xx_hal_spi.c **** 
 538:STM32Cube_FW_N6/Drivers/STM32N6xx_HAL_Driver/Src/stm32n6xx_hal_spi.c ****   return HAL_OK;
 1789              		.loc 1 538 10
ARM GAS  /tmp/ccwTXtVb.s 			page 42


 1790 00ca 0023     		movs	r3, #0
 1791              	.L73:
 539:STM32Cube_FW_N6/Drivers/STM32N6xx_HAL_Driver/Src/stm32n6xx_hal_spi.c **** }
 1792              		.loc 1 539 1
 1793 00cc 1846     		mov	r0, r3
 1794 00ce 0837     		adds	r7, r7, #8
 1795              		.cfi_def_cfa_offset 8
 1796 00d0 BD46     		mov	sp, r7
 1797              		.cfi_def_cfa_register 13
 1798              		@ sp needed
 1799 00d2 80BD     		pop	{r7, pc}
 1800              	.L76:
 1801              		.align	2
 1802              	.L75:
 1803 00d4 00300052 		.word	1375744000
 1804 00d8 00300042 		.word	1107308544
 1805 00dc 00380050 		.word	1342191616
 1806 00e0 00380040 		.word	1073756160
 1807 00e4 003C0050 		.word	1342192640
 1808 00e8 003C0040 		.word	1073757184
 1809 00ec 00340052 		.word	1375745024
 1810 00f0 00340042 		.word	1107309568
 1811 00f4 00500052 		.word	1375752192
 1812 00f8 00500042 		.word	1107316736
 1813 00fc 00140056 		.word	1442845696
 1814 0100 00140046 		.word	1174410240
 1815 0104 00000000 		.word	.LC0
 1816              		.cfi_endproc
 1817              	.LFE836:
 1819              		.section	.text.HAL_SPI_MspInit,"ax",%progbits
 1820              		.align	1
 1821              		.weak	HAL_SPI_MspInit
 1822              		.syntax unified
 1823              		.thumb
 1824              		.thumb_func
 1826              	HAL_SPI_MspInit:
 1827              	.LFB837:
 540:STM32Cube_FW_N6/Drivers/STM32N6xx_HAL_Driver/Src/stm32n6xx_hal_spi.c **** 
 541:STM32Cube_FW_N6/Drivers/STM32N6xx_HAL_Driver/Src/stm32n6xx_hal_spi.c **** /**
 542:STM32Cube_FW_N6/Drivers/STM32N6xx_HAL_Driver/Src/stm32n6xx_hal_spi.c ****   * @brief  Initialize the SPI MSP.
 543:STM32Cube_FW_N6/Drivers/STM32N6xx_HAL_Driver/Src/stm32n6xx_hal_spi.c ****   * @param  hspi: pointer to a SPI_HandleTypeDef structure that contains
 544:STM32Cube_FW_N6/Drivers/STM32N6xx_HAL_Driver/Src/stm32n6xx_hal_spi.c ****   *               the configuration information for SPI module.
 545:STM32Cube_FW_N6/Drivers/STM32N6xx_HAL_Driver/Src/stm32n6xx_hal_spi.c ****   * @retval None
 546:STM32Cube_FW_N6/Drivers/STM32N6xx_HAL_Driver/Src/stm32n6xx_hal_spi.c ****   */
 547:STM32Cube_FW_N6/Drivers/STM32N6xx_HAL_Driver/Src/stm32n6xx_hal_spi.c **** __weak void HAL_SPI_MspInit(SPI_HandleTypeDef *hspi)
 548:STM32Cube_FW_N6/Drivers/STM32N6xx_HAL_Driver/Src/stm32n6xx_hal_spi.c **** {
 1828              		.loc 1 548 1
 1829              		.cfi_startproc
 1830              		@ args = 0, pretend = 0, frame = 8
 1831              		@ frame_needed = 1, uses_anonymous_args = 0
 1832              		@ link register save eliminated.
 1833 0000 80B4     		push	{r7}
 1834              		.cfi_def_cfa_offset 4
 1835              		.cfi_offset 7, -4
 1836 0002 83B0     		sub	sp, sp, #12
 1837              		.cfi_def_cfa_offset 16
 1838 0004 00AF     		add	r7, sp, #0
ARM GAS  /tmp/ccwTXtVb.s 			page 43


 1839              		.cfi_def_cfa_register 7
 1840 0006 7860     		str	r0, [r7, #4]
 549:STM32Cube_FW_N6/Drivers/STM32N6xx_HAL_Driver/Src/stm32n6xx_hal_spi.c ****   /* Prevent unused argument(s) compilation warning */
 550:STM32Cube_FW_N6/Drivers/STM32N6xx_HAL_Driver/Src/stm32n6xx_hal_spi.c ****   UNUSED(hspi);
 551:STM32Cube_FW_N6/Drivers/STM32N6xx_HAL_Driver/Src/stm32n6xx_hal_spi.c **** 
 552:STM32Cube_FW_N6/Drivers/STM32N6xx_HAL_Driver/Src/stm32n6xx_hal_spi.c ****   /* NOTE : This function should not be modified, when the callback is needed,
 553:STM32Cube_FW_N6/Drivers/STM32N6xx_HAL_Driver/Src/stm32n6xx_hal_spi.c ****             the HAL_SPI_MspInit should be implemented in the user file
 554:STM32Cube_FW_N6/Drivers/STM32N6xx_HAL_Driver/Src/stm32n6xx_hal_spi.c ****    */
 555:STM32Cube_FW_N6/Drivers/STM32N6xx_HAL_Driver/Src/stm32n6xx_hal_spi.c **** }
 1841              		.loc 1 555 1
 1842 0008 00BF     		nop
 1843 000a 0C37     		adds	r7, r7, #12
 1844              		.cfi_def_cfa_offset 4
 1845 000c BD46     		mov	sp, r7
 1846              		.cfi_def_cfa_register 13
 1847              		@ sp needed
 1848 000e 5DF8047B 		ldr	r7, [sp], #4
 1849              		.cfi_restore 7
 1850              		.cfi_def_cfa_offset 0
 1851 0012 7047     		bx	lr
 1852              		.cfi_endproc
 1853              	.LFE837:
 1855              		.section	.text.HAL_SPI_MspDeInit,"ax",%progbits
 1856              		.align	1
 1857              		.weak	HAL_SPI_MspDeInit
 1858              		.syntax unified
 1859              		.thumb
 1860              		.thumb_func
 1862              	HAL_SPI_MspDeInit:
 1863              	.LFB838:
 556:STM32Cube_FW_N6/Drivers/STM32N6xx_HAL_Driver/Src/stm32n6xx_hal_spi.c **** 
 557:STM32Cube_FW_N6/Drivers/STM32N6xx_HAL_Driver/Src/stm32n6xx_hal_spi.c **** /**
 558:STM32Cube_FW_N6/Drivers/STM32N6xx_HAL_Driver/Src/stm32n6xx_hal_spi.c ****   * @brief  De-Initialize the SPI MSP.
 559:STM32Cube_FW_N6/Drivers/STM32N6xx_HAL_Driver/Src/stm32n6xx_hal_spi.c ****   * @param  hspi: pointer to a SPI_HandleTypeDef structure that contains
 560:STM32Cube_FW_N6/Drivers/STM32N6xx_HAL_Driver/Src/stm32n6xx_hal_spi.c ****   *               the configuration information for SPI module.
 561:STM32Cube_FW_N6/Drivers/STM32N6xx_HAL_Driver/Src/stm32n6xx_hal_spi.c ****   * @retval None
 562:STM32Cube_FW_N6/Drivers/STM32N6xx_HAL_Driver/Src/stm32n6xx_hal_spi.c ****   */
 563:STM32Cube_FW_N6/Drivers/STM32N6xx_HAL_Driver/Src/stm32n6xx_hal_spi.c **** __weak void HAL_SPI_MspDeInit(SPI_HandleTypeDef *hspi)
 564:STM32Cube_FW_N6/Drivers/STM32N6xx_HAL_Driver/Src/stm32n6xx_hal_spi.c **** {
 1864              		.loc 1 564 1
 1865              		.cfi_startproc
 1866              		@ args = 0, pretend = 0, frame = 8
 1867              		@ frame_needed = 1, uses_anonymous_args = 0
 1868              		@ link register save eliminated.
 1869 0000 80B4     		push	{r7}
 1870              		.cfi_def_cfa_offset 4
 1871              		.cfi_offset 7, -4
 1872 0002 83B0     		sub	sp, sp, #12
 1873              		.cfi_def_cfa_offset 16
 1874 0004 00AF     		add	r7, sp, #0
 1875              		.cfi_def_cfa_register 7
 1876 0006 7860     		str	r0, [r7, #4]
 565:STM32Cube_FW_N6/Drivers/STM32N6xx_HAL_Driver/Src/stm32n6xx_hal_spi.c ****   /* Prevent unused argument(s) compilation warning */
 566:STM32Cube_FW_N6/Drivers/STM32N6xx_HAL_Driver/Src/stm32n6xx_hal_spi.c ****   UNUSED(hspi);
 567:STM32Cube_FW_N6/Drivers/STM32N6xx_HAL_Driver/Src/stm32n6xx_hal_spi.c **** 
 568:STM32Cube_FW_N6/Drivers/STM32N6xx_HAL_Driver/Src/stm32n6xx_hal_spi.c ****   /* NOTE : This function should not be modified, when the callback is needed,
 569:STM32Cube_FW_N6/Drivers/STM32N6xx_HAL_Driver/Src/stm32n6xx_hal_spi.c ****             the HAL_SPI_MspDeInit should be implemented in the user file
ARM GAS  /tmp/ccwTXtVb.s 			page 44


 570:STM32Cube_FW_N6/Drivers/STM32N6xx_HAL_Driver/Src/stm32n6xx_hal_spi.c ****    */
 571:STM32Cube_FW_N6/Drivers/STM32N6xx_HAL_Driver/Src/stm32n6xx_hal_spi.c **** }
 1877              		.loc 1 571 1
 1878 0008 00BF     		nop
 1879 000a 0C37     		adds	r7, r7, #12
 1880              		.cfi_def_cfa_offset 4
 1881 000c BD46     		mov	sp, r7
 1882              		.cfi_def_cfa_register 13
 1883              		@ sp needed
 1884 000e 5DF8047B 		ldr	r7, [sp], #4
 1885              		.cfi_restore 7
 1886              		.cfi_def_cfa_offset 0
 1887 0012 7047     		bx	lr
 1888              		.cfi_endproc
 1889              	.LFE838:
 1891              		.section	.text.HAL_SPI_Transmit,"ax",%progbits
 1892              		.align	1
 1893              		.global	HAL_SPI_Transmit
 1894              		.syntax unified
 1895              		.thumb
 1896              		.thumb_func
 1898              	HAL_SPI_Transmit:
 1899              	.LFB839:
 572:STM32Cube_FW_N6/Drivers/STM32N6xx_HAL_Driver/Src/stm32n6xx_hal_spi.c **** 
 573:STM32Cube_FW_N6/Drivers/STM32N6xx_HAL_Driver/Src/stm32n6xx_hal_spi.c **** #if (USE_HAL_SPI_REGISTER_CALLBACKS == 1UL)
 574:STM32Cube_FW_N6/Drivers/STM32N6xx_HAL_Driver/Src/stm32n6xx_hal_spi.c **** /**
 575:STM32Cube_FW_N6/Drivers/STM32N6xx_HAL_Driver/Src/stm32n6xx_hal_spi.c ****   * @brief  Register a User SPI Callback
 576:STM32Cube_FW_N6/Drivers/STM32N6xx_HAL_Driver/Src/stm32n6xx_hal_spi.c ****   *         To be used instead of the weak predefined callback
 577:STM32Cube_FW_N6/Drivers/STM32N6xx_HAL_Driver/Src/stm32n6xx_hal_spi.c ****   * @param  hspi Pointer to a SPI_HandleTypeDef structure that contains
 578:STM32Cube_FW_N6/Drivers/STM32N6xx_HAL_Driver/Src/stm32n6xx_hal_spi.c ****   *                the configuration information for the specified SPI.
 579:STM32Cube_FW_N6/Drivers/STM32N6xx_HAL_Driver/Src/stm32n6xx_hal_spi.c ****   * @param  CallbackID ID of the callback to be registered
 580:STM32Cube_FW_N6/Drivers/STM32N6xx_HAL_Driver/Src/stm32n6xx_hal_spi.c ****   * @param  pCallback pointer to the Callback function
 581:STM32Cube_FW_N6/Drivers/STM32N6xx_HAL_Driver/Src/stm32n6xx_hal_spi.c ****   * @note   The HAL_SPI_RegisterCallback() may be called before HAL_SPI_Init() in HAL_SPI_STATE_RES
 582:STM32Cube_FW_N6/Drivers/STM32N6xx_HAL_Driver/Src/stm32n6xx_hal_spi.c ****   *         to register callbacks for HAL_SPI_MSPINIT_CB_ID and HAL_SPI_MSPDEINIT_CB_ID
 583:STM32Cube_FW_N6/Drivers/STM32N6xx_HAL_Driver/Src/stm32n6xx_hal_spi.c ****   * @retval HAL status
 584:STM32Cube_FW_N6/Drivers/STM32N6xx_HAL_Driver/Src/stm32n6xx_hal_spi.c ****   */
 585:STM32Cube_FW_N6/Drivers/STM32N6xx_HAL_Driver/Src/stm32n6xx_hal_spi.c **** HAL_StatusTypeDef HAL_SPI_RegisterCallback(SPI_HandleTypeDef *hspi, HAL_SPI_CallbackIDTypeDef Callb
 586:STM32Cube_FW_N6/Drivers/STM32N6xx_HAL_Driver/Src/stm32n6xx_hal_spi.c ****                                            pSPI_CallbackTypeDef pCallback)
 587:STM32Cube_FW_N6/Drivers/STM32N6xx_HAL_Driver/Src/stm32n6xx_hal_spi.c **** {
 588:STM32Cube_FW_N6/Drivers/STM32N6xx_HAL_Driver/Src/stm32n6xx_hal_spi.c ****   HAL_StatusTypeDef status = HAL_OK;
 589:STM32Cube_FW_N6/Drivers/STM32N6xx_HAL_Driver/Src/stm32n6xx_hal_spi.c **** 
 590:STM32Cube_FW_N6/Drivers/STM32N6xx_HAL_Driver/Src/stm32n6xx_hal_spi.c ****   if (pCallback == NULL)
 591:STM32Cube_FW_N6/Drivers/STM32N6xx_HAL_Driver/Src/stm32n6xx_hal_spi.c ****   {
 592:STM32Cube_FW_N6/Drivers/STM32N6xx_HAL_Driver/Src/stm32n6xx_hal_spi.c ****     /* Update the error code */
 593:STM32Cube_FW_N6/Drivers/STM32N6xx_HAL_Driver/Src/stm32n6xx_hal_spi.c ****     hspi->ErrorCode |= HAL_SPI_ERROR_INVALID_CALLBACK;
 594:STM32Cube_FW_N6/Drivers/STM32N6xx_HAL_Driver/Src/stm32n6xx_hal_spi.c **** 
 595:STM32Cube_FW_N6/Drivers/STM32N6xx_HAL_Driver/Src/stm32n6xx_hal_spi.c ****     return HAL_ERROR;
 596:STM32Cube_FW_N6/Drivers/STM32N6xx_HAL_Driver/Src/stm32n6xx_hal_spi.c ****   }
 597:STM32Cube_FW_N6/Drivers/STM32N6xx_HAL_Driver/Src/stm32n6xx_hal_spi.c **** 
 598:STM32Cube_FW_N6/Drivers/STM32N6xx_HAL_Driver/Src/stm32n6xx_hal_spi.c ****   if (HAL_SPI_STATE_READY == hspi->State)
 599:STM32Cube_FW_N6/Drivers/STM32N6xx_HAL_Driver/Src/stm32n6xx_hal_spi.c ****   {
 600:STM32Cube_FW_N6/Drivers/STM32N6xx_HAL_Driver/Src/stm32n6xx_hal_spi.c ****     switch (CallbackID)
 601:STM32Cube_FW_N6/Drivers/STM32N6xx_HAL_Driver/Src/stm32n6xx_hal_spi.c ****     {
 602:STM32Cube_FW_N6/Drivers/STM32N6xx_HAL_Driver/Src/stm32n6xx_hal_spi.c ****       case HAL_SPI_TX_COMPLETE_CB_ID :
 603:STM32Cube_FW_N6/Drivers/STM32N6xx_HAL_Driver/Src/stm32n6xx_hal_spi.c ****         hspi->TxCpltCallback = pCallback;
 604:STM32Cube_FW_N6/Drivers/STM32N6xx_HAL_Driver/Src/stm32n6xx_hal_spi.c ****         break;
 605:STM32Cube_FW_N6/Drivers/STM32N6xx_HAL_Driver/Src/stm32n6xx_hal_spi.c **** 
ARM GAS  /tmp/ccwTXtVb.s 			page 45


 606:STM32Cube_FW_N6/Drivers/STM32N6xx_HAL_Driver/Src/stm32n6xx_hal_spi.c ****       case HAL_SPI_RX_COMPLETE_CB_ID :
 607:STM32Cube_FW_N6/Drivers/STM32N6xx_HAL_Driver/Src/stm32n6xx_hal_spi.c ****         hspi->RxCpltCallback = pCallback;
 608:STM32Cube_FW_N6/Drivers/STM32N6xx_HAL_Driver/Src/stm32n6xx_hal_spi.c ****         break;
 609:STM32Cube_FW_N6/Drivers/STM32N6xx_HAL_Driver/Src/stm32n6xx_hal_spi.c **** 
 610:STM32Cube_FW_N6/Drivers/STM32N6xx_HAL_Driver/Src/stm32n6xx_hal_spi.c ****       case HAL_SPI_TX_RX_COMPLETE_CB_ID :
 611:STM32Cube_FW_N6/Drivers/STM32N6xx_HAL_Driver/Src/stm32n6xx_hal_spi.c ****         hspi->TxRxCpltCallback = pCallback;
 612:STM32Cube_FW_N6/Drivers/STM32N6xx_HAL_Driver/Src/stm32n6xx_hal_spi.c ****         break;
 613:STM32Cube_FW_N6/Drivers/STM32N6xx_HAL_Driver/Src/stm32n6xx_hal_spi.c **** 
 614:STM32Cube_FW_N6/Drivers/STM32N6xx_HAL_Driver/Src/stm32n6xx_hal_spi.c ****       case HAL_SPI_TX_HALF_COMPLETE_CB_ID :
 615:STM32Cube_FW_N6/Drivers/STM32N6xx_HAL_Driver/Src/stm32n6xx_hal_spi.c ****         hspi->TxHalfCpltCallback = pCallback;
 616:STM32Cube_FW_N6/Drivers/STM32N6xx_HAL_Driver/Src/stm32n6xx_hal_spi.c ****         break;
 617:STM32Cube_FW_N6/Drivers/STM32N6xx_HAL_Driver/Src/stm32n6xx_hal_spi.c **** 
 618:STM32Cube_FW_N6/Drivers/STM32N6xx_HAL_Driver/Src/stm32n6xx_hal_spi.c ****       case HAL_SPI_RX_HALF_COMPLETE_CB_ID :
 619:STM32Cube_FW_N6/Drivers/STM32N6xx_HAL_Driver/Src/stm32n6xx_hal_spi.c ****         hspi->RxHalfCpltCallback = pCallback;
 620:STM32Cube_FW_N6/Drivers/STM32N6xx_HAL_Driver/Src/stm32n6xx_hal_spi.c ****         break;
 621:STM32Cube_FW_N6/Drivers/STM32N6xx_HAL_Driver/Src/stm32n6xx_hal_spi.c **** 
 622:STM32Cube_FW_N6/Drivers/STM32N6xx_HAL_Driver/Src/stm32n6xx_hal_spi.c ****       case HAL_SPI_TX_RX_HALF_COMPLETE_CB_ID :
 623:STM32Cube_FW_N6/Drivers/STM32N6xx_HAL_Driver/Src/stm32n6xx_hal_spi.c ****         hspi->TxRxHalfCpltCallback = pCallback;
 624:STM32Cube_FW_N6/Drivers/STM32N6xx_HAL_Driver/Src/stm32n6xx_hal_spi.c ****         break;
 625:STM32Cube_FW_N6/Drivers/STM32N6xx_HAL_Driver/Src/stm32n6xx_hal_spi.c **** 
 626:STM32Cube_FW_N6/Drivers/STM32N6xx_HAL_Driver/Src/stm32n6xx_hal_spi.c ****       case HAL_SPI_ERROR_CB_ID :
 627:STM32Cube_FW_N6/Drivers/STM32N6xx_HAL_Driver/Src/stm32n6xx_hal_spi.c ****         hspi->ErrorCallback = pCallback;
 628:STM32Cube_FW_N6/Drivers/STM32N6xx_HAL_Driver/Src/stm32n6xx_hal_spi.c ****         break;
 629:STM32Cube_FW_N6/Drivers/STM32N6xx_HAL_Driver/Src/stm32n6xx_hal_spi.c **** 
 630:STM32Cube_FW_N6/Drivers/STM32N6xx_HAL_Driver/Src/stm32n6xx_hal_spi.c ****       case HAL_SPI_ABORT_CB_ID :
 631:STM32Cube_FW_N6/Drivers/STM32N6xx_HAL_Driver/Src/stm32n6xx_hal_spi.c ****         hspi->AbortCpltCallback = pCallback;
 632:STM32Cube_FW_N6/Drivers/STM32N6xx_HAL_Driver/Src/stm32n6xx_hal_spi.c ****         break;
 633:STM32Cube_FW_N6/Drivers/STM32N6xx_HAL_Driver/Src/stm32n6xx_hal_spi.c **** 
 634:STM32Cube_FW_N6/Drivers/STM32N6xx_HAL_Driver/Src/stm32n6xx_hal_spi.c ****       case HAL_SPI_SUSPEND_CB_ID :
 635:STM32Cube_FW_N6/Drivers/STM32N6xx_HAL_Driver/Src/stm32n6xx_hal_spi.c ****         hspi->SuspendCallback = pCallback;
 636:STM32Cube_FW_N6/Drivers/STM32N6xx_HAL_Driver/Src/stm32n6xx_hal_spi.c ****         break;
 637:STM32Cube_FW_N6/Drivers/STM32N6xx_HAL_Driver/Src/stm32n6xx_hal_spi.c **** 
 638:STM32Cube_FW_N6/Drivers/STM32N6xx_HAL_Driver/Src/stm32n6xx_hal_spi.c ****       case HAL_SPI_MSPINIT_CB_ID :
 639:STM32Cube_FW_N6/Drivers/STM32N6xx_HAL_Driver/Src/stm32n6xx_hal_spi.c ****         hspi->MspInitCallback = pCallback;
 640:STM32Cube_FW_N6/Drivers/STM32N6xx_HAL_Driver/Src/stm32n6xx_hal_spi.c ****         break;
 641:STM32Cube_FW_N6/Drivers/STM32N6xx_HAL_Driver/Src/stm32n6xx_hal_spi.c **** 
 642:STM32Cube_FW_N6/Drivers/STM32N6xx_HAL_Driver/Src/stm32n6xx_hal_spi.c ****       case HAL_SPI_MSPDEINIT_CB_ID :
 643:STM32Cube_FW_N6/Drivers/STM32N6xx_HAL_Driver/Src/stm32n6xx_hal_spi.c ****         hspi->MspDeInitCallback = pCallback;
 644:STM32Cube_FW_N6/Drivers/STM32N6xx_HAL_Driver/Src/stm32n6xx_hal_spi.c ****         break;
 645:STM32Cube_FW_N6/Drivers/STM32N6xx_HAL_Driver/Src/stm32n6xx_hal_spi.c **** 
 646:STM32Cube_FW_N6/Drivers/STM32N6xx_HAL_Driver/Src/stm32n6xx_hal_spi.c ****       default :
 647:STM32Cube_FW_N6/Drivers/STM32N6xx_HAL_Driver/Src/stm32n6xx_hal_spi.c ****         /* Update the error code */
 648:STM32Cube_FW_N6/Drivers/STM32N6xx_HAL_Driver/Src/stm32n6xx_hal_spi.c ****         SET_BIT(hspi->ErrorCode, HAL_SPI_ERROR_INVALID_CALLBACK);
 649:STM32Cube_FW_N6/Drivers/STM32N6xx_HAL_Driver/Src/stm32n6xx_hal_spi.c **** 
 650:STM32Cube_FW_N6/Drivers/STM32N6xx_HAL_Driver/Src/stm32n6xx_hal_spi.c ****         /* Return error status */
 651:STM32Cube_FW_N6/Drivers/STM32N6xx_HAL_Driver/Src/stm32n6xx_hal_spi.c ****         status =  HAL_ERROR;
 652:STM32Cube_FW_N6/Drivers/STM32N6xx_HAL_Driver/Src/stm32n6xx_hal_spi.c ****         break;
 653:STM32Cube_FW_N6/Drivers/STM32N6xx_HAL_Driver/Src/stm32n6xx_hal_spi.c ****     }
 654:STM32Cube_FW_N6/Drivers/STM32N6xx_HAL_Driver/Src/stm32n6xx_hal_spi.c ****   }
 655:STM32Cube_FW_N6/Drivers/STM32N6xx_HAL_Driver/Src/stm32n6xx_hal_spi.c ****   else if (HAL_SPI_STATE_RESET == hspi->State)
 656:STM32Cube_FW_N6/Drivers/STM32N6xx_HAL_Driver/Src/stm32n6xx_hal_spi.c ****   {
 657:STM32Cube_FW_N6/Drivers/STM32N6xx_HAL_Driver/Src/stm32n6xx_hal_spi.c ****     switch (CallbackID)
 658:STM32Cube_FW_N6/Drivers/STM32N6xx_HAL_Driver/Src/stm32n6xx_hal_spi.c ****     {
 659:STM32Cube_FW_N6/Drivers/STM32N6xx_HAL_Driver/Src/stm32n6xx_hal_spi.c ****       case HAL_SPI_MSPINIT_CB_ID :
 660:STM32Cube_FW_N6/Drivers/STM32N6xx_HAL_Driver/Src/stm32n6xx_hal_spi.c ****         hspi->MspInitCallback = pCallback;
 661:STM32Cube_FW_N6/Drivers/STM32N6xx_HAL_Driver/Src/stm32n6xx_hal_spi.c ****         break;
 662:STM32Cube_FW_N6/Drivers/STM32N6xx_HAL_Driver/Src/stm32n6xx_hal_spi.c **** 
ARM GAS  /tmp/ccwTXtVb.s 			page 46


 663:STM32Cube_FW_N6/Drivers/STM32N6xx_HAL_Driver/Src/stm32n6xx_hal_spi.c ****       case HAL_SPI_MSPDEINIT_CB_ID :
 664:STM32Cube_FW_N6/Drivers/STM32N6xx_HAL_Driver/Src/stm32n6xx_hal_spi.c ****         hspi->MspDeInitCallback = pCallback;
 665:STM32Cube_FW_N6/Drivers/STM32N6xx_HAL_Driver/Src/stm32n6xx_hal_spi.c ****         break;
 666:STM32Cube_FW_N6/Drivers/STM32N6xx_HAL_Driver/Src/stm32n6xx_hal_spi.c **** 
 667:STM32Cube_FW_N6/Drivers/STM32N6xx_HAL_Driver/Src/stm32n6xx_hal_spi.c ****       default :
 668:STM32Cube_FW_N6/Drivers/STM32N6xx_HAL_Driver/Src/stm32n6xx_hal_spi.c ****         /* Update the error code */
 669:STM32Cube_FW_N6/Drivers/STM32N6xx_HAL_Driver/Src/stm32n6xx_hal_spi.c ****         SET_BIT(hspi->ErrorCode, HAL_SPI_ERROR_INVALID_CALLBACK);
 670:STM32Cube_FW_N6/Drivers/STM32N6xx_HAL_Driver/Src/stm32n6xx_hal_spi.c **** 
 671:STM32Cube_FW_N6/Drivers/STM32N6xx_HAL_Driver/Src/stm32n6xx_hal_spi.c ****         /* Return error status */
 672:STM32Cube_FW_N6/Drivers/STM32N6xx_HAL_Driver/Src/stm32n6xx_hal_spi.c ****         status =  HAL_ERROR;
 673:STM32Cube_FW_N6/Drivers/STM32N6xx_HAL_Driver/Src/stm32n6xx_hal_spi.c ****         break;
 674:STM32Cube_FW_N6/Drivers/STM32N6xx_HAL_Driver/Src/stm32n6xx_hal_spi.c ****     }
 675:STM32Cube_FW_N6/Drivers/STM32N6xx_HAL_Driver/Src/stm32n6xx_hal_spi.c ****   }
 676:STM32Cube_FW_N6/Drivers/STM32N6xx_HAL_Driver/Src/stm32n6xx_hal_spi.c ****   else
 677:STM32Cube_FW_N6/Drivers/STM32N6xx_HAL_Driver/Src/stm32n6xx_hal_spi.c ****   {
 678:STM32Cube_FW_N6/Drivers/STM32N6xx_HAL_Driver/Src/stm32n6xx_hal_spi.c ****     /* Update the error code */
 679:STM32Cube_FW_N6/Drivers/STM32N6xx_HAL_Driver/Src/stm32n6xx_hal_spi.c ****     SET_BIT(hspi->ErrorCode, HAL_SPI_ERROR_INVALID_CALLBACK);
 680:STM32Cube_FW_N6/Drivers/STM32N6xx_HAL_Driver/Src/stm32n6xx_hal_spi.c **** 
 681:STM32Cube_FW_N6/Drivers/STM32N6xx_HAL_Driver/Src/stm32n6xx_hal_spi.c ****     /* Return error status */
 682:STM32Cube_FW_N6/Drivers/STM32N6xx_HAL_Driver/Src/stm32n6xx_hal_spi.c ****     status =  HAL_ERROR;
 683:STM32Cube_FW_N6/Drivers/STM32N6xx_HAL_Driver/Src/stm32n6xx_hal_spi.c ****   }
 684:STM32Cube_FW_N6/Drivers/STM32N6xx_HAL_Driver/Src/stm32n6xx_hal_spi.c **** 
 685:STM32Cube_FW_N6/Drivers/STM32N6xx_HAL_Driver/Src/stm32n6xx_hal_spi.c ****   return status;
 686:STM32Cube_FW_N6/Drivers/STM32N6xx_HAL_Driver/Src/stm32n6xx_hal_spi.c **** }
 687:STM32Cube_FW_N6/Drivers/STM32N6xx_HAL_Driver/Src/stm32n6xx_hal_spi.c **** 
 688:STM32Cube_FW_N6/Drivers/STM32N6xx_HAL_Driver/Src/stm32n6xx_hal_spi.c **** /**
 689:STM32Cube_FW_N6/Drivers/STM32N6xx_HAL_Driver/Src/stm32n6xx_hal_spi.c ****   * @brief  Unregister an SPI Callback
 690:STM32Cube_FW_N6/Drivers/STM32N6xx_HAL_Driver/Src/stm32n6xx_hal_spi.c ****   *         SPI callback is redirected to the weak predefined callback
 691:STM32Cube_FW_N6/Drivers/STM32N6xx_HAL_Driver/Src/stm32n6xx_hal_spi.c ****   * @param  hspi Pointer to a SPI_HandleTypeDef structure that contains
 692:STM32Cube_FW_N6/Drivers/STM32N6xx_HAL_Driver/Src/stm32n6xx_hal_spi.c ****   *                the configuration information for the specified SPI.
 693:STM32Cube_FW_N6/Drivers/STM32N6xx_HAL_Driver/Src/stm32n6xx_hal_spi.c ****   * @param  CallbackID ID of the callback to be unregistered
 694:STM32Cube_FW_N6/Drivers/STM32N6xx_HAL_Driver/Src/stm32n6xx_hal_spi.c ****   * @note   The HAL_SPI_UnRegisterCallback() may be called before HAL_SPI_Init() in HAL_SPI_STATE_R
 695:STM32Cube_FW_N6/Drivers/STM32N6xx_HAL_Driver/Src/stm32n6xx_hal_spi.c ****   *         to un-register callbacks for HAL_SPI_MSPINIT_CB_ID and HAL_SPI_MSPDEINIT_CB_ID
 696:STM32Cube_FW_N6/Drivers/STM32N6xx_HAL_Driver/Src/stm32n6xx_hal_spi.c ****   * @retval HAL status
 697:STM32Cube_FW_N6/Drivers/STM32N6xx_HAL_Driver/Src/stm32n6xx_hal_spi.c ****   */
 698:STM32Cube_FW_N6/Drivers/STM32N6xx_HAL_Driver/Src/stm32n6xx_hal_spi.c **** HAL_StatusTypeDef HAL_SPI_UnRegisterCallback(SPI_HandleTypeDef *hspi, HAL_SPI_CallbackIDTypeDef Cal
 699:STM32Cube_FW_N6/Drivers/STM32N6xx_HAL_Driver/Src/stm32n6xx_hal_spi.c **** {
 700:STM32Cube_FW_N6/Drivers/STM32N6xx_HAL_Driver/Src/stm32n6xx_hal_spi.c ****   HAL_StatusTypeDef status = HAL_OK;
 701:STM32Cube_FW_N6/Drivers/STM32N6xx_HAL_Driver/Src/stm32n6xx_hal_spi.c **** 
 702:STM32Cube_FW_N6/Drivers/STM32N6xx_HAL_Driver/Src/stm32n6xx_hal_spi.c ****   if (HAL_SPI_STATE_READY == hspi->State)
 703:STM32Cube_FW_N6/Drivers/STM32N6xx_HAL_Driver/Src/stm32n6xx_hal_spi.c ****   {
 704:STM32Cube_FW_N6/Drivers/STM32N6xx_HAL_Driver/Src/stm32n6xx_hal_spi.c ****     switch (CallbackID)
 705:STM32Cube_FW_N6/Drivers/STM32N6xx_HAL_Driver/Src/stm32n6xx_hal_spi.c ****     {
 706:STM32Cube_FW_N6/Drivers/STM32N6xx_HAL_Driver/Src/stm32n6xx_hal_spi.c ****       case HAL_SPI_TX_COMPLETE_CB_ID :
 707:STM32Cube_FW_N6/Drivers/STM32N6xx_HAL_Driver/Src/stm32n6xx_hal_spi.c ****         hspi->TxCpltCallback = HAL_SPI_TxCpltCallback;             /* Legacy weak TxCpltCallback   
 708:STM32Cube_FW_N6/Drivers/STM32N6xx_HAL_Driver/Src/stm32n6xx_hal_spi.c ****         break;
 709:STM32Cube_FW_N6/Drivers/STM32N6xx_HAL_Driver/Src/stm32n6xx_hal_spi.c **** 
 710:STM32Cube_FW_N6/Drivers/STM32N6xx_HAL_Driver/Src/stm32n6xx_hal_spi.c ****       case HAL_SPI_RX_COMPLETE_CB_ID :
 711:STM32Cube_FW_N6/Drivers/STM32N6xx_HAL_Driver/Src/stm32n6xx_hal_spi.c ****         hspi->RxCpltCallback = HAL_SPI_RxCpltCallback;             /* Legacy weak RxCpltCallback   
 712:STM32Cube_FW_N6/Drivers/STM32N6xx_HAL_Driver/Src/stm32n6xx_hal_spi.c ****         break;
 713:STM32Cube_FW_N6/Drivers/STM32N6xx_HAL_Driver/Src/stm32n6xx_hal_spi.c **** 
 714:STM32Cube_FW_N6/Drivers/STM32N6xx_HAL_Driver/Src/stm32n6xx_hal_spi.c ****       case HAL_SPI_TX_RX_COMPLETE_CB_ID :
 715:STM32Cube_FW_N6/Drivers/STM32N6xx_HAL_Driver/Src/stm32n6xx_hal_spi.c ****         hspi->TxRxCpltCallback = HAL_SPI_TxRxCpltCallback;         /* Legacy weak TxRxCpltCallback 
 716:STM32Cube_FW_N6/Drivers/STM32N6xx_HAL_Driver/Src/stm32n6xx_hal_spi.c ****         break;
 717:STM32Cube_FW_N6/Drivers/STM32N6xx_HAL_Driver/Src/stm32n6xx_hal_spi.c **** 
 718:STM32Cube_FW_N6/Drivers/STM32N6xx_HAL_Driver/Src/stm32n6xx_hal_spi.c ****       case HAL_SPI_TX_HALF_COMPLETE_CB_ID :
 719:STM32Cube_FW_N6/Drivers/STM32N6xx_HAL_Driver/Src/stm32n6xx_hal_spi.c ****         hspi->TxHalfCpltCallback = HAL_SPI_TxHalfCpltCallback;     /* Legacy weak TxHalfCpltCallbac
ARM GAS  /tmp/ccwTXtVb.s 			page 47


 720:STM32Cube_FW_N6/Drivers/STM32N6xx_HAL_Driver/Src/stm32n6xx_hal_spi.c ****         break;
 721:STM32Cube_FW_N6/Drivers/STM32N6xx_HAL_Driver/Src/stm32n6xx_hal_spi.c **** 
 722:STM32Cube_FW_N6/Drivers/STM32N6xx_HAL_Driver/Src/stm32n6xx_hal_spi.c ****       case HAL_SPI_RX_HALF_COMPLETE_CB_ID :
 723:STM32Cube_FW_N6/Drivers/STM32N6xx_HAL_Driver/Src/stm32n6xx_hal_spi.c ****         hspi->RxHalfCpltCallback = HAL_SPI_RxHalfCpltCallback;     /* Legacy weak RxHalfCpltCallbac
 724:STM32Cube_FW_N6/Drivers/STM32N6xx_HAL_Driver/Src/stm32n6xx_hal_spi.c ****         break;
 725:STM32Cube_FW_N6/Drivers/STM32N6xx_HAL_Driver/Src/stm32n6xx_hal_spi.c **** 
 726:STM32Cube_FW_N6/Drivers/STM32N6xx_HAL_Driver/Src/stm32n6xx_hal_spi.c ****       case HAL_SPI_TX_RX_HALF_COMPLETE_CB_ID :
 727:STM32Cube_FW_N6/Drivers/STM32N6xx_HAL_Driver/Src/stm32n6xx_hal_spi.c ****         hspi->TxRxHalfCpltCallback = HAL_SPI_TxRxHalfCpltCallback; /* Legacy weak TxRxHalfCpltCallb
 728:STM32Cube_FW_N6/Drivers/STM32N6xx_HAL_Driver/Src/stm32n6xx_hal_spi.c ****         break;
 729:STM32Cube_FW_N6/Drivers/STM32N6xx_HAL_Driver/Src/stm32n6xx_hal_spi.c **** 
 730:STM32Cube_FW_N6/Drivers/STM32N6xx_HAL_Driver/Src/stm32n6xx_hal_spi.c ****       case HAL_SPI_ERROR_CB_ID :
 731:STM32Cube_FW_N6/Drivers/STM32N6xx_HAL_Driver/Src/stm32n6xx_hal_spi.c ****         hspi->ErrorCallback = HAL_SPI_ErrorCallback;               /* Legacy weak ErrorCallback    
 732:STM32Cube_FW_N6/Drivers/STM32N6xx_HAL_Driver/Src/stm32n6xx_hal_spi.c ****         break;
 733:STM32Cube_FW_N6/Drivers/STM32N6xx_HAL_Driver/Src/stm32n6xx_hal_spi.c **** 
 734:STM32Cube_FW_N6/Drivers/STM32N6xx_HAL_Driver/Src/stm32n6xx_hal_spi.c ****       case HAL_SPI_ABORT_CB_ID :
 735:STM32Cube_FW_N6/Drivers/STM32N6xx_HAL_Driver/Src/stm32n6xx_hal_spi.c ****         hspi->AbortCpltCallback = HAL_SPI_AbortCpltCallback;       /* Legacy weak AbortCpltCallback
 736:STM32Cube_FW_N6/Drivers/STM32N6xx_HAL_Driver/Src/stm32n6xx_hal_spi.c ****         break;
 737:STM32Cube_FW_N6/Drivers/STM32N6xx_HAL_Driver/Src/stm32n6xx_hal_spi.c **** 
 738:STM32Cube_FW_N6/Drivers/STM32N6xx_HAL_Driver/Src/stm32n6xx_hal_spi.c ****       case HAL_SPI_SUSPEND_CB_ID :
 739:STM32Cube_FW_N6/Drivers/STM32N6xx_HAL_Driver/Src/stm32n6xx_hal_spi.c ****         hspi->SuspendCallback = HAL_SPI_SuspendCallback;           /* Legacy weak SuspendCallback  
 740:STM32Cube_FW_N6/Drivers/STM32N6xx_HAL_Driver/Src/stm32n6xx_hal_spi.c ****         break;
 741:STM32Cube_FW_N6/Drivers/STM32N6xx_HAL_Driver/Src/stm32n6xx_hal_spi.c **** 
 742:STM32Cube_FW_N6/Drivers/STM32N6xx_HAL_Driver/Src/stm32n6xx_hal_spi.c ****       case HAL_SPI_MSPINIT_CB_ID :
 743:STM32Cube_FW_N6/Drivers/STM32N6xx_HAL_Driver/Src/stm32n6xx_hal_spi.c ****         hspi->MspInitCallback = HAL_SPI_MspInit;                   /* Legacy weak MspInit          
 744:STM32Cube_FW_N6/Drivers/STM32N6xx_HAL_Driver/Src/stm32n6xx_hal_spi.c ****         break;
 745:STM32Cube_FW_N6/Drivers/STM32N6xx_HAL_Driver/Src/stm32n6xx_hal_spi.c **** 
 746:STM32Cube_FW_N6/Drivers/STM32N6xx_HAL_Driver/Src/stm32n6xx_hal_spi.c ****       case HAL_SPI_MSPDEINIT_CB_ID :
 747:STM32Cube_FW_N6/Drivers/STM32N6xx_HAL_Driver/Src/stm32n6xx_hal_spi.c ****         hspi->MspDeInitCallback = HAL_SPI_MspDeInit;               /* Legacy weak MspDeInit        
 748:STM32Cube_FW_N6/Drivers/STM32N6xx_HAL_Driver/Src/stm32n6xx_hal_spi.c ****         break;
 749:STM32Cube_FW_N6/Drivers/STM32N6xx_HAL_Driver/Src/stm32n6xx_hal_spi.c **** 
 750:STM32Cube_FW_N6/Drivers/STM32N6xx_HAL_Driver/Src/stm32n6xx_hal_spi.c ****       default :
 751:STM32Cube_FW_N6/Drivers/STM32N6xx_HAL_Driver/Src/stm32n6xx_hal_spi.c ****         /* Update the error code */
 752:STM32Cube_FW_N6/Drivers/STM32N6xx_HAL_Driver/Src/stm32n6xx_hal_spi.c ****         SET_BIT(hspi->ErrorCode, HAL_SPI_ERROR_INVALID_CALLBACK);
 753:STM32Cube_FW_N6/Drivers/STM32N6xx_HAL_Driver/Src/stm32n6xx_hal_spi.c **** 
 754:STM32Cube_FW_N6/Drivers/STM32N6xx_HAL_Driver/Src/stm32n6xx_hal_spi.c ****         /* Return error status */
 755:STM32Cube_FW_N6/Drivers/STM32N6xx_HAL_Driver/Src/stm32n6xx_hal_spi.c ****         status =  HAL_ERROR;
 756:STM32Cube_FW_N6/Drivers/STM32N6xx_HAL_Driver/Src/stm32n6xx_hal_spi.c ****         break;
 757:STM32Cube_FW_N6/Drivers/STM32N6xx_HAL_Driver/Src/stm32n6xx_hal_spi.c ****     }
 758:STM32Cube_FW_N6/Drivers/STM32N6xx_HAL_Driver/Src/stm32n6xx_hal_spi.c ****   }
 759:STM32Cube_FW_N6/Drivers/STM32N6xx_HAL_Driver/Src/stm32n6xx_hal_spi.c ****   else if (HAL_SPI_STATE_RESET == hspi->State)
 760:STM32Cube_FW_N6/Drivers/STM32N6xx_HAL_Driver/Src/stm32n6xx_hal_spi.c ****   {
 761:STM32Cube_FW_N6/Drivers/STM32N6xx_HAL_Driver/Src/stm32n6xx_hal_spi.c ****     switch (CallbackID)
 762:STM32Cube_FW_N6/Drivers/STM32N6xx_HAL_Driver/Src/stm32n6xx_hal_spi.c ****     {
 763:STM32Cube_FW_N6/Drivers/STM32N6xx_HAL_Driver/Src/stm32n6xx_hal_spi.c ****       case HAL_SPI_MSPINIT_CB_ID :
 764:STM32Cube_FW_N6/Drivers/STM32N6xx_HAL_Driver/Src/stm32n6xx_hal_spi.c ****         hspi->MspInitCallback = HAL_SPI_MspInit;                   /* Legacy weak MspInit          
 765:STM32Cube_FW_N6/Drivers/STM32N6xx_HAL_Driver/Src/stm32n6xx_hal_spi.c ****         break;
 766:STM32Cube_FW_N6/Drivers/STM32N6xx_HAL_Driver/Src/stm32n6xx_hal_spi.c **** 
 767:STM32Cube_FW_N6/Drivers/STM32N6xx_HAL_Driver/Src/stm32n6xx_hal_spi.c ****       case HAL_SPI_MSPDEINIT_CB_ID :
 768:STM32Cube_FW_N6/Drivers/STM32N6xx_HAL_Driver/Src/stm32n6xx_hal_spi.c ****         hspi->MspDeInitCallback = HAL_SPI_MspDeInit;               /* Legacy weak MspDeInit        
 769:STM32Cube_FW_N6/Drivers/STM32N6xx_HAL_Driver/Src/stm32n6xx_hal_spi.c ****         break;
 770:STM32Cube_FW_N6/Drivers/STM32N6xx_HAL_Driver/Src/stm32n6xx_hal_spi.c **** 
 771:STM32Cube_FW_N6/Drivers/STM32N6xx_HAL_Driver/Src/stm32n6xx_hal_spi.c ****       default :
 772:STM32Cube_FW_N6/Drivers/STM32N6xx_HAL_Driver/Src/stm32n6xx_hal_spi.c ****         /* Update the error code */
 773:STM32Cube_FW_N6/Drivers/STM32N6xx_HAL_Driver/Src/stm32n6xx_hal_spi.c ****         SET_BIT(hspi->ErrorCode, HAL_SPI_ERROR_INVALID_CALLBACK);
 774:STM32Cube_FW_N6/Drivers/STM32N6xx_HAL_Driver/Src/stm32n6xx_hal_spi.c **** 
 775:STM32Cube_FW_N6/Drivers/STM32N6xx_HAL_Driver/Src/stm32n6xx_hal_spi.c ****         /* Return error status */
 776:STM32Cube_FW_N6/Drivers/STM32N6xx_HAL_Driver/Src/stm32n6xx_hal_spi.c ****         status =  HAL_ERROR;
ARM GAS  /tmp/ccwTXtVb.s 			page 48


 777:STM32Cube_FW_N6/Drivers/STM32N6xx_HAL_Driver/Src/stm32n6xx_hal_spi.c ****         break;
 778:STM32Cube_FW_N6/Drivers/STM32N6xx_HAL_Driver/Src/stm32n6xx_hal_spi.c ****     }
 779:STM32Cube_FW_N6/Drivers/STM32N6xx_HAL_Driver/Src/stm32n6xx_hal_spi.c ****   }
 780:STM32Cube_FW_N6/Drivers/STM32N6xx_HAL_Driver/Src/stm32n6xx_hal_spi.c ****   else
 781:STM32Cube_FW_N6/Drivers/STM32N6xx_HAL_Driver/Src/stm32n6xx_hal_spi.c ****   {
 782:STM32Cube_FW_N6/Drivers/STM32N6xx_HAL_Driver/Src/stm32n6xx_hal_spi.c ****     /* Update the error code */
 783:STM32Cube_FW_N6/Drivers/STM32N6xx_HAL_Driver/Src/stm32n6xx_hal_spi.c ****     SET_BIT(hspi->ErrorCode, HAL_SPI_ERROR_INVALID_CALLBACK);
 784:STM32Cube_FW_N6/Drivers/STM32N6xx_HAL_Driver/Src/stm32n6xx_hal_spi.c **** 
 785:STM32Cube_FW_N6/Drivers/STM32N6xx_HAL_Driver/Src/stm32n6xx_hal_spi.c ****     /* Return error status */
 786:STM32Cube_FW_N6/Drivers/STM32N6xx_HAL_Driver/Src/stm32n6xx_hal_spi.c ****     status =  HAL_ERROR;
 787:STM32Cube_FW_N6/Drivers/STM32N6xx_HAL_Driver/Src/stm32n6xx_hal_spi.c ****   }
 788:STM32Cube_FW_N6/Drivers/STM32N6xx_HAL_Driver/Src/stm32n6xx_hal_spi.c **** 
 789:STM32Cube_FW_N6/Drivers/STM32N6xx_HAL_Driver/Src/stm32n6xx_hal_spi.c ****   return status;
 790:STM32Cube_FW_N6/Drivers/STM32N6xx_HAL_Driver/Src/stm32n6xx_hal_spi.c **** }
 791:STM32Cube_FW_N6/Drivers/STM32N6xx_HAL_Driver/Src/stm32n6xx_hal_spi.c **** #endif /* USE_HAL_SPI_REGISTER_CALLBACKS */
 792:STM32Cube_FW_N6/Drivers/STM32N6xx_HAL_Driver/Src/stm32n6xx_hal_spi.c **** /**
 793:STM32Cube_FW_N6/Drivers/STM32N6xx_HAL_Driver/Src/stm32n6xx_hal_spi.c ****   * @}
 794:STM32Cube_FW_N6/Drivers/STM32N6xx_HAL_Driver/Src/stm32n6xx_hal_spi.c ****   */
 795:STM32Cube_FW_N6/Drivers/STM32N6xx_HAL_Driver/Src/stm32n6xx_hal_spi.c **** 
 796:STM32Cube_FW_N6/Drivers/STM32N6xx_HAL_Driver/Src/stm32n6xx_hal_spi.c **** /** @defgroup SPI_Exported_Functions_Group2 IO operation functions
 797:STM32Cube_FW_N6/Drivers/STM32N6xx_HAL_Driver/Src/stm32n6xx_hal_spi.c ****   *  @brief   Data transfers functions
 798:STM32Cube_FW_N6/Drivers/STM32N6xx_HAL_Driver/Src/stm32n6xx_hal_spi.c ****   *
 799:STM32Cube_FW_N6/Drivers/STM32N6xx_HAL_Driver/Src/stm32n6xx_hal_spi.c **** @verbatim
 800:STM32Cube_FW_N6/Drivers/STM32N6xx_HAL_Driver/Src/stm32n6xx_hal_spi.c ****   ==============================================================================
 801:STM32Cube_FW_N6/Drivers/STM32N6xx_HAL_Driver/Src/stm32n6xx_hal_spi.c ****                       ##### IO operation functions #####
 802:STM32Cube_FW_N6/Drivers/STM32N6xx_HAL_Driver/Src/stm32n6xx_hal_spi.c ****  ===============================================================================
 803:STM32Cube_FW_N6/Drivers/STM32N6xx_HAL_Driver/Src/stm32n6xx_hal_spi.c ****  [..]
 804:STM32Cube_FW_N6/Drivers/STM32N6xx_HAL_Driver/Src/stm32n6xx_hal_spi.c ****     This subsection provides a set of functions allowing to manage the SPI
 805:STM32Cube_FW_N6/Drivers/STM32N6xx_HAL_Driver/Src/stm32n6xx_hal_spi.c ****     data transfers.
 806:STM32Cube_FW_N6/Drivers/STM32N6xx_HAL_Driver/Src/stm32n6xx_hal_spi.c **** 
 807:STM32Cube_FW_N6/Drivers/STM32N6xx_HAL_Driver/Src/stm32n6xx_hal_spi.c ****     [..] The SPI supports master and slave mode :
 808:STM32Cube_FW_N6/Drivers/STM32N6xx_HAL_Driver/Src/stm32n6xx_hal_spi.c **** 
 809:STM32Cube_FW_N6/Drivers/STM32N6xx_HAL_Driver/Src/stm32n6xx_hal_spi.c ****     (#) There are two modes of transfer:
 810:STM32Cube_FW_N6/Drivers/STM32N6xx_HAL_Driver/Src/stm32n6xx_hal_spi.c ****        (##) Blocking mode: The communication is performed in polling mode.
 811:STM32Cube_FW_N6/Drivers/STM32N6xx_HAL_Driver/Src/stm32n6xx_hal_spi.c ****             The HAL status of all data processing is returned by the same function
 812:STM32Cube_FW_N6/Drivers/STM32N6xx_HAL_Driver/Src/stm32n6xx_hal_spi.c ****             after finishing transfer.
 813:STM32Cube_FW_N6/Drivers/STM32N6xx_HAL_Driver/Src/stm32n6xx_hal_spi.c ****        (##) No-Blocking mode: The communication is performed using Interrupts
 814:STM32Cube_FW_N6/Drivers/STM32N6xx_HAL_Driver/Src/stm32n6xx_hal_spi.c ****             or DMA, These APIs return the HAL status.
 815:STM32Cube_FW_N6/Drivers/STM32N6xx_HAL_Driver/Src/stm32n6xx_hal_spi.c ****             The end of the data processing will be indicated through the
 816:STM32Cube_FW_N6/Drivers/STM32N6xx_HAL_Driver/Src/stm32n6xx_hal_spi.c ****             dedicated SPI IRQ when using Interrupt mode or the DMA IRQ when
 817:STM32Cube_FW_N6/Drivers/STM32N6xx_HAL_Driver/Src/stm32n6xx_hal_spi.c ****             using DMA mode.
 818:STM32Cube_FW_N6/Drivers/STM32N6xx_HAL_Driver/Src/stm32n6xx_hal_spi.c ****             The HAL_SPI_TxCpltCallback(), HAL_SPI_RxCpltCallback() and HAL_SPI_TxRxCpltCallback() u
 819:STM32Cube_FW_N6/Drivers/STM32N6xx_HAL_Driver/Src/stm32n6xx_hal_spi.c ****             will be executed respectively at the end of the transmit or Receive process
 820:STM32Cube_FW_N6/Drivers/STM32N6xx_HAL_Driver/Src/stm32n6xx_hal_spi.c ****             The HAL_SPI_ErrorCallback()user callback will be executed when a communication error is
 821:STM32Cube_FW_N6/Drivers/STM32N6xx_HAL_Driver/Src/stm32n6xx_hal_spi.c **** 
 822:STM32Cube_FW_N6/Drivers/STM32N6xx_HAL_Driver/Src/stm32n6xx_hal_spi.c ****     (#) APIs provided for these 2 transfer modes (Blocking mode or Non blocking mode using either I
 823:STM32Cube_FW_N6/Drivers/STM32N6xx_HAL_Driver/Src/stm32n6xx_hal_spi.c ****         exist for 1Line (simplex) and 2Lines (full duplex) modes.
 824:STM32Cube_FW_N6/Drivers/STM32N6xx_HAL_Driver/Src/stm32n6xx_hal_spi.c **** 
 825:STM32Cube_FW_N6/Drivers/STM32N6xx_HAL_Driver/Src/stm32n6xx_hal_spi.c **** @endverbatim
 826:STM32Cube_FW_N6/Drivers/STM32N6xx_HAL_Driver/Src/stm32n6xx_hal_spi.c ****   * @{
 827:STM32Cube_FW_N6/Drivers/STM32N6xx_HAL_Driver/Src/stm32n6xx_hal_spi.c ****   */
 828:STM32Cube_FW_N6/Drivers/STM32N6xx_HAL_Driver/Src/stm32n6xx_hal_spi.c **** 
 829:STM32Cube_FW_N6/Drivers/STM32N6xx_HAL_Driver/Src/stm32n6xx_hal_spi.c **** /**
 830:STM32Cube_FW_N6/Drivers/STM32N6xx_HAL_Driver/Src/stm32n6xx_hal_spi.c ****   * @brief  Transmit an amount of data in blocking mode.
 831:STM32Cube_FW_N6/Drivers/STM32N6xx_HAL_Driver/Src/stm32n6xx_hal_spi.c ****   * @param  hspi   : pointer to a SPI_HandleTypeDef structure that contains
 832:STM32Cube_FW_N6/Drivers/STM32N6xx_HAL_Driver/Src/stm32n6xx_hal_spi.c ****   *                  the configuration information for SPI module.
 833:STM32Cube_FW_N6/Drivers/STM32N6xx_HAL_Driver/Src/stm32n6xx_hal_spi.c ****   * @param  pData  : pointer to data buffer
ARM GAS  /tmp/ccwTXtVb.s 			page 49


 834:STM32Cube_FW_N6/Drivers/STM32N6xx_HAL_Driver/Src/stm32n6xx_hal_spi.c ****   * @param  Size   : amount of data to be sent
 835:STM32Cube_FW_N6/Drivers/STM32N6xx_HAL_Driver/Src/stm32n6xx_hal_spi.c ****   * @param  Timeout: Timeout duration
 836:STM32Cube_FW_N6/Drivers/STM32N6xx_HAL_Driver/Src/stm32n6xx_hal_spi.c ****   * @retval HAL status
 837:STM32Cube_FW_N6/Drivers/STM32N6xx_HAL_Driver/Src/stm32n6xx_hal_spi.c ****   */
 838:STM32Cube_FW_N6/Drivers/STM32N6xx_HAL_Driver/Src/stm32n6xx_hal_spi.c **** HAL_StatusTypeDef HAL_SPI_Transmit(SPI_HandleTypeDef *hspi, const uint8_t *pData, uint16_t Size, ui
 839:STM32Cube_FW_N6/Drivers/STM32N6xx_HAL_Driver/Src/stm32n6xx_hal_spi.c **** {
 1900              		.loc 1 839 1
 1901              		.cfi_startproc
 1902              		@ args = 0, pretend = 0, frame = 24
 1903              		@ frame_needed = 1, uses_anonymous_args = 0
 1904 0000 80B5     		push	{r7, lr}
 1905              		.cfi_def_cfa_offset 8
 1906              		.cfi_offset 7, -8
 1907              		.cfi_offset 14, -4
 1908 0002 88B0     		sub	sp, sp, #32
 1909              		.cfi_def_cfa_offset 40
 1910 0004 02AF     		add	r7, sp, #8
 1911              		.cfi_def_cfa 7, 32
 1912 0006 F860     		str	r0, [r7, #12]
 1913 0008 B960     		str	r1, [r7, #8]
 1914 000a 3B60     		str	r3, [r7]
 1915 000c 1346     		mov	r3, r2	@ movhi
 1916 000e FB80     		strh	r3, [r7, #6]	@ movhi
 840:STM32Cube_FW_N6/Drivers/STM32N6xx_HAL_Driver/Src/stm32n6xx_hal_spi.c **** #if defined (__GNUC__)
 841:STM32Cube_FW_N6/Drivers/STM32N6xx_HAL_Driver/Src/stm32n6xx_hal_spi.c ****   __IO uint16_t *ptxdr_16bits = (__IO uint16_t *)(&(hspi->Instance->TXDR));
 1917              		.loc 1 841 57
 1918 0010 FB68     		ldr	r3, [r7, #12]
 1919 0012 1B68     		ldr	r3, [r3]
 1920              		.loc 1 841 18
 1921 0014 2033     		adds	r3, r3, #32
 1922 0016 7B61     		str	r3, [r7, #20]
 842:STM32Cube_FW_N6/Drivers/STM32N6xx_HAL_Driver/Src/stm32n6xx_hal_spi.c **** #endif /* __GNUC__ */
 843:STM32Cube_FW_N6/Drivers/STM32N6xx_HAL_Driver/Src/stm32n6xx_hal_spi.c **** 
 844:STM32Cube_FW_N6/Drivers/STM32N6xx_HAL_Driver/Src/stm32n6xx_hal_spi.c ****   uint32_t tickstart;
 845:STM32Cube_FW_N6/Drivers/STM32N6xx_HAL_Driver/Src/stm32n6xx_hal_spi.c **** 
 846:STM32Cube_FW_N6/Drivers/STM32N6xx_HAL_Driver/Src/stm32n6xx_hal_spi.c ****   /* Check Direction parameter */
 847:STM32Cube_FW_N6/Drivers/STM32N6xx_HAL_Driver/Src/stm32n6xx_hal_spi.c ****   assert_param(IS_SPI_DIRECTION_2LINES_OR_1LINE_2LINES_TXONLY(hspi->Init.Direction));
 1923              		.loc 1 847 3
 1924 0018 FB68     		ldr	r3, [r7, #12]
 1925 001a 9B68     		ldr	r3, [r3, #8]
 1926 001c 002B     		cmp	r3, #0
 1927 001e 0ED0     		beq	.L80
 1928              		.loc 1 847 3 is_stmt 0 discriminator 1
 1929 0020 FB68     		ldr	r3, [r7, #12]
 1930 0022 9B68     		ldr	r3, [r3, #8]
 1931 0024 B3F5C02F 		cmp	r3, #393216
 1932 0028 09D0     		beq	.L80
 1933              		.loc 1 847 3 discriminator 2
 1934 002a FB68     		ldr	r3, [r7, #12]
 1935 002c 9B68     		ldr	r3, [r3, #8]
 1936 002e B3F5003F 		cmp	r3, #131072
 1937 0032 04D0     		beq	.L80
 1938              		.loc 1 847 3 discriminator 3
 1939 0034 40F24F31 		movw	r1, #847
 1940 0038 8D48     		ldr	r0, .L118
 1941 003a FFF7FEFF 		bl	assert_failed
 1942              	.L80:
ARM GAS  /tmp/ccwTXtVb.s 			page 50


 848:STM32Cube_FW_N6/Drivers/STM32N6xx_HAL_Driver/Src/stm32n6xx_hal_spi.c **** 
 849:STM32Cube_FW_N6/Drivers/STM32N6xx_HAL_Driver/Src/stm32n6xx_hal_spi.c ****   /* Init tickstart for timeout management*/
 850:STM32Cube_FW_N6/Drivers/STM32N6xx_HAL_Driver/Src/stm32n6xx_hal_spi.c ****   tickstart = HAL_GetTick();
 1943              		.loc 1 850 15 is_stmt 1
 1944 003e FFF7FEFF 		bl	HAL_GetTick
 1945 0042 3861     		str	r0, [r7, #16]
 851:STM32Cube_FW_N6/Drivers/STM32N6xx_HAL_Driver/Src/stm32n6xx_hal_spi.c **** 
 852:STM32Cube_FW_N6/Drivers/STM32N6xx_HAL_Driver/Src/stm32n6xx_hal_spi.c ****   if (hspi->State != HAL_SPI_STATE_READY)
 1946              		.loc 1 852 11
 1947 0044 FB68     		ldr	r3, [r7, #12]
 1948 0046 93F88930 		ldrb	r3, [r3, #137]
 1949 004a DBB2     		uxtb	r3, r3
 1950              		.loc 1 852 6
 1951 004c 012B     		cmp	r3, #1
 1952 004e 01D0     		beq	.L81
 853:STM32Cube_FW_N6/Drivers/STM32N6xx_HAL_Driver/Src/stm32n6xx_hal_spi.c ****   {
 854:STM32Cube_FW_N6/Drivers/STM32N6xx_HAL_Driver/Src/stm32n6xx_hal_spi.c ****     return HAL_BUSY;
 1953              		.loc 1 854 12
 1954 0050 0223     		movs	r3, #2
 1955 0052 09E2     		b	.L82
 1956              	.L81:
 855:STM32Cube_FW_N6/Drivers/STM32N6xx_HAL_Driver/Src/stm32n6xx_hal_spi.c ****   }
 856:STM32Cube_FW_N6/Drivers/STM32N6xx_HAL_Driver/Src/stm32n6xx_hal_spi.c **** 
 857:STM32Cube_FW_N6/Drivers/STM32N6xx_HAL_Driver/Src/stm32n6xx_hal_spi.c ****   if ((pData == NULL) || (Size == 0UL))
 1957              		.loc 1 857 6
 1958 0054 BB68     		ldr	r3, [r7, #8]
 1959 0056 002B     		cmp	r3, #0
 1960 0058 02D0     		beq	.L83
 1961              		.loc 1 857 23 discriminator 1
 1962 005a FB88     		ldrh	r3, [r7, #6]
 1963 005c 002B     		cmp	r3, #0
 1964 005e 01D1     		bne	.L84
 1965              	.L83:
 858:STM32Cube_FW_N6/Drivers/STM32N6xx_HAL_Driver/Src/stm32n6xx_hal_spi.c ****   {
 859:STM32Cube_FW_N6/Drivers/STM32N6xx_HAL_Driver/Src/stm32n6xx_hal_spi.c ****     return HAL_ERROR;
 1966              		.loc 1 859 12
 1967 0060 0123     		movs	r3, #1
 1968 0062 01E2     		b	.L82
 1969              	.L84:
 860:STM32Cube_FW_N6/Drivers/STM32N6xx_HAL_Driver/Src/stm32n6xx_hal_spi.c ****   }
 861:STM32Cube_FW_N6/Drivers/STM32N6xx_HAL_Driver/Src/stm32n6xx_hal_spi.c **** 
 862:STM32Cube_FW_N6/Drivers/STM32N6xx_HAL_Driver/Src/stm32n6xx_hal_spi.c ****   /* Lock the process */
 863:STM32Cube_FW_N6/Drivers/STM32N6xx_HAL_Driver/Src/stm32n6xx_hal_spi.c ****   __HAL_LOCK(hspi);
 1970              		.loc 1 863 3
 1971 0064 FB68     		ldr	r3, [r7, #12]
 1972 0066 93F88830 		ldrb	r3, [r3, #136]	@ zero_extendqisi2
 1973 006a 012B     		cmp	r3, #1
 1974 006c 01D1     		bne	.L85
 1975              		.loc 1 863 3 is_stmt 0 discriminator 1
 1976 006e 0223     		movs	r3, #2
 1977              		.loc 1 863 3
 1978 0070 FAE1     		b	.L82
 1979              	.L85:
 1980              		.loc 1 863 3 discriminator 2
 1981 0072 FB68     		ldr	r3, [r7, #12]
 1982 0074 0122     		movs	r2, #1
 1983 0076 83F88820 		strb	r2, [r3, #136]
ARM GAS  /tmp/ccwTXtVb.s 			page 51


 864:STM32Cube_FW_N6/Drivers/STM32N6xx_HAL_Driver/Src/stm32n6xx_hal_spi.c **** 
 865:STM32Cube_FW_N6/Drivers/STM32N6xx_HAL_Driver/Src/stm32n6xx_hal_spi.c ****   /* Set the transaction information */
 866:STM32Cube_FW_N6/Drivers/STM32N6xx_HAL_Driver/Src/stm32n6xx_hal_spi.c ****   hspi->State       = HAL_SPI_STATE_BUSY_TX;
 1984              		.loc 1 866 21 is_stmt 1
 1985 007a FB68     		ldr	r3, [r7, #12]
 1986 007c 0322     		movs	r2, #3
 1987 007e 83F88920 		strb	r2, [r3, #137]
 867:STM32Cube_FW_N6/Drivers/STM32N6xx_HAL_Driver/Src/stm32n6xx_hal_spi.c ****   hspi->ErrorCode   = HAL_SPI_ERROR_NONE;
 1988              		.loc 1 867 21
 1989 0082 FB68     		ldr	r3, [r7, #12]
 1990 0084 0022     		movs	r2, #0
 1991 0086 C3F88C20 		str	r2, [r3, #140]
 868:STM32Cube_FW_N6/Drivers/STM32N6xx_HAL_Driver/Src/stm32n6xx_hal_spi.c ****   hspi->pTxBuffPtr  = (const uint8_t *)pData;
 1992              		.loc 1 868 21
 1993 008a FB68     		ldr	r3, [r7, #12]
 1994 008c BA68     		ldr	r2, [r7, #8]
 1995 008e 5A66     		str	r2, [r3, #100]
 869:STM32Cube_FW_N6/Drivers/STM32N6xx_HAL_Driver/Src/stm32n6xx_hal_spi.c ****   hspi->TxXferSize  = Size;
 1996              		.loc 1 869 21
 1997 0090 FB68     		ldr	r3, [r7, #12]
 1998 0092 FA88     		ldrh	r2, [r7, #6]	@ movhi
 1999 0094 A3F86820 		strh	r2, [r3, #104]	@ movhi
 870:STM32Cube_FW_N6/Drivers/STM32N6xx_HAL_Driver/Src/stm32n6xx_hal_spi.c ****   hspi->TxXferCount = Size;
 2000              		.loc 1 870 21
 2001 0098 FB68     		ldr	r3, [r7, #12]
 2002 009a FA88     		ldrh	r2, [r7, #6]	@ movhi
 2003 009c A3F86A20 		strh	r2, [r3, #106]	@ movhi
 871:STM32Cube_FW_N6/Drivers/STM32N6xx_HAL_Driver/Src/stm32n6xx_hal_spi.c **** 
 872:STM32Cube_FW_N6/Drivers/STM32N6xx_HAL_Driver/Src/stm32n6xx_hal_spi.c ****   /*Init field not used in handle to zero */
 873:STM32Cube_FW_N6/Drivers/STM32N6xx_HAL_Driver/Src/stm32n6xx_hal_spi.c ****   hspi->pRxBuffPtr  = NULL;
 2004              		.loc 1 873 21
 2005 00a0 FB68     		ldr	r3, [r7, #12]
 2006 00a2 0022     		movs	r2, #0
 2007 00a4 DA66     		str	r2, [r3, #108]
 874:STM32Cube_FW_N6/Drivers/STM32N6xx_HAL_Driver/Src/stm32n6xx_hal_spi.c ****   hspi->RxXferSize  = (uint16_t) 0UL;
 2008              		.loc 1 874 21
 2009 00a6 FB68     		ldr	r3, [r7, #12]
 2010 00a8 0022     		movs	r2, #0
 2011 00aa A3F87020 		strh	r2, [r3, #112]	@ movhi
 875:STM32Cube_FW_N6/Drivers/STM32N6xx_HAL_Driver/Src/stm32n6xx_hal_spi.c ****   hspi->RxXferCount = (uint16_t) 0UL;
 2012              		.loc 1 875 21
 2013 00ae FB68     		ldr	r3, [r7, #12]
 2014 00b0 0022     		movs	r2, #0
 2015 00b2 A3F87220 		strh	r2, [r3, #114]	@ movhi
 876:STM32Cube_FW_N6/Drivers/STM32N6xx_HAL_Driver/Src/stm32n6xx_hal_spi.c ****   hspi->TxISR       = NULL;
 2016              		.loc 1 876 21
 2017 00b6 FB68     		ldr	r3, [r7, #12]
 2018 00b8 0022     		movs	r2, #0
 2019 00ba DA67     		str	r2, [r3, #124]
 877:STM32Cube_FW_N6/Drivers/STM32N6xx_HAL_Driver/Src/stm32n6xx_hal_spi.c ****   hspi->RxISR       = NULL;
 2020              		.loc 1 877 21
 2021 00bc FB68     		ldr	r3, [r7, #12]
 2022 00be 0022     		movs	r2, #0
 2023 00c0 9A67     		str	r2, [r3, #120]
 878:STM32Cube_FW_N6/Drivers/STM32N6xx_HAL_Driver/Src/stm32n6xx_hal_spi.c **** 
 879:STM32Cube_FW_N6/Drivers/STM32N6xx_HAL_Driver/Src/stm32n6xx_hal_spi.c ****   /* Configure communication direction : 1Line */
 880:STM32Cube_FW_N6/Drivers/STM32N6xx_HAL_Driver/Src/stm32n6xx_hal_spi.c ****   if (hspi->Init.Direction == SPI_DIRECTION_1LINE)
ARM GAS  /tmp/ccwTXtVb.s 			page 52


 2024              		.loc 1 880 17
 2025 00c2 FB68     		ldr	r3, [r7, #12]
 2026 00c4 9B68     		ldr	r3, [r3, #8]
 2027              		.loc 1 880 6
 2028 00c6 B3F5C02F 		cmp	r3, #393216
 2029 00ca 08D1     		bne	.L86
 881:STM32Cube_FW_N6/Drivers/STM32N6xx_HAL_Driver/Src/stm32n6xx_hal_spi.c ****   {
 882:STM32Cube_FW_N6/Drivers/STM32N6xx_HAL_Driver/Src/stm32n6xx_hal_spi.c ****     SPI_1LINE_TX(hspi);
 2030              		.loc 1 882 5
 2031 00cc FB68     		ldr	r3, [r7, #12]
 2032 00ce 1B68     		ldr	r3, [r3]
 2033 00d0 1A68     		ldr	r2, [r3]
 2034 00d2 FB68     		ldr	r3, [r7, #12]
 2035 00d4 1B68     		ldr	r3, [r3]
 2036 00d6 42F40062 		orr	r2, r2, #2048
 2037 00da 1A60     		str	r2, [r3]
 2038 00dc 09E0     		b	.L87
 2039              	.L86:
 883:STM32Cube_FW_N6/Drivers/STM32N6xx_HAL_Driver/Src/stm32n6xx_hal_spi.c ****   }
 884:STM32Cube_FW_N6/Drivers/STM32N6xx_HAL_Driver/Src/stm32n6xx_hal_spi.c ****   else
 885:STM32Cube_FW_N6/Drivers/STM32N6xx_HAL_Driver/Src/stm32n6xx_hal_spi.c ****   {
 886:STM32Cube_FW_N6/Drivers/STM32N6xx_HAL_Driver/Src/stm32n6xx_hal_spi.c ****     SPI_2LINES_TX(hspi);
 2040              		.loc 1 886 5
 2041 00de FB68     		ldr	r3, [r7, #12]
 2042 00e0 1B68     		ldr	r3, [r3]
 2043 00e2 DB68     		ldr	r3, [r3, #12]
 2044 00e4 23F4C022 		bic	r2, r3, #393216
 2045 00e8 FB68     		ldr	r3, [r7, #12]
 2046 00ea 1B68     		ldr	r3, [r3]
 2047 00ec 42F40032 		orr	r2, r2, #131072
 2048 00f0 DA60     		str	r2, [r3, #12]
 2049              	.L87:
 887:STM32Cube_FW_N6/Drivers/STM32N6xx_HAL_Driver/Src/stm32n6xx_hal_spi.c ****   }
 888:STM32Cube_FW_N6/Drivers/STM32N6xx_HAL_Driver/Src/stm32n6xx_hal_spi.c **** 
 889:STM32Cube_FW_N6/Drivers/STM32N6xx_HAL_Driver/Src/stm32n6xx_hal_spi.c ****   /* Set the number of data at current transfer */
 890:STM32Cube_FW_N6/Drivers/STM32N6xx_HAL_Driver/Src/stm32n6xx_hal_spi.c ****   MODIFY_REG(hspi->Instance->CR2, SPI_CR2_TSIZE, Size);
 2050              		.loc 1 890 3
 2051 00f2 FB68     		ldr	r3, [r7, #12]
 2052 00f4 1B68     		ldr	r3, [r3]
 2053 00f6 5B68     		ldr	r3, [r3, #4]
 2054 00f8 1B0C     		lsrs	r3, r3, #16
 2055 00fa 1B04     		lsls	r3, r3, #16
 2056 00fc F988     		ldrh	r1, [r7, #6]
 2057 00fe FA68     		ldr	r2, [r7, #12]
 2058 0100 1268     		ldr	r2, [r2]
 2059 0102 0B43     		orrs	r3, r3, r1
 2060 0104 5360     		str	r3, [r2, #4]
 891:STM32Cube_FW_N6/Drivers/STM32N6xx_HAL_Driver/Src/stm32n6xx_hal_spi.c **** 
 892:STM32Cube_FW_N6/Drivers/STM32N6xx_HAL_Driver/Src/stm32n6xx_hal_spi.c ****   /* Enable SPI peripheral */
 893:STM32Cube_FW_N6/Drivers/STM32N6xx_HAL_Driver/Src/stm32n6xx_hal_spi.c ****   __HAL_SPI_ENABLE(hspi);
 2061              		.loc 1 893 3
 2062 0106 FB68     		ldr	r3, [r7, #12]
 2063 0108 1B68     		ldr	r3, [r3]
 2064 010a 1A68     		ldr	r2, [r3]
 2065 010c FB68     		ldr	r3, [r7, #12]
 2066 010e 1B68     		ldr	r3, [r3]
 2067 0110 42F00102 		orr	r2, r2, #1
ARM GAS  /tmp/ccwTXtVb.s 			page 53


 2068 0114 1A60     		str	r2, [r3]
 894:STM32Cube_FW_N6/Drivers/STM32N6xx_HAL_Driver/Src/stm32n6xx_hal_spi.c **** 
 895:STM32Cube_FW_N6/Drivers/STM32N6xx_HAL_Driver/Src/stm32n6xx_hal_spi.c ****   if (hspi->Init.Mode == SPI_MODE_MASTER)
 2069              		.loc 1 895 17
 2070 0116 FB68     		ldr	r3, [r7, #12]
 2071 0118 5B68     		ldr	r3, [r3, #4]
 2072              		.loc 1 895 6
 2073 011a B3F5800F 		cmp	r3, #4194304
 2074 011e 07D1     		bne	.L88
 896:STM32Cube_FW_N6/Drivers/STM32N6xx_HAL_Driver/Src/stm32n6xx_hal_spi.c ****   {
 897:STM32Cube_FW_N6/Drivers/STM32N6xx_HAL_Driver/Src/stm32n6xx_hal_spi.c ****     /* Master transfer start */
 898:STM32Cube_FW_N6/Drivers/STM32N6xx_HAL_Driver/Src/stm32n6xx_hal_spi.c ****     SET_BIT(hspi->Instance->CR1, SPI_CR1_CSTART);
 2075              		.loc 1 898 5
 2076 0120 FB68     		ldr	r3, [r7, #12]
 2077 0122 1B68     		ldr	r3, [r3]
 2078 0124 1A68     		ldr	r2, [r3]
 2079 0126 FB68     		ldr	r3, [r7, #12]
 2080 0128 1B68     		ldr	r3, [r3]
 2081 012a 42F40072 		orr	r2, r2, #512
 2082 012e 1A60     		str	r2, [r3]
 2083              	.L88:
 899:STM32Cube_FW_N6/Drivers/STM32N6xx_HAL_Driver/Src/stm32n6xx_hal_spi.c ****   }
 900:STM32Cube_FW_N6/Drivers/STM32N6xx_HAL_Driver/Src/stm32n6xx_hal_spi.c **** 
 901:STM32Cube_FW_N6/Drivers/STM32N6xx_HAL_Driver/Src/stm32n6xx_hal_spi.c ****   /* Transmit data in 32 Bit mode */
 902:STM32Cube_FW_N6/Drivers/STM32N6xx_HAL_Driver/Src/stm32n6xx_hal_spi.c ****   if ((hspi->Init.DataSize > SPI_DATASIZE_16BIT) && (IS_SPI_FULL_INSTANCE(hspi->Instance)))
 2084              		.loc 1 902 18
 2085 0130 FB68     		ldr	r3, [r7, #12]
 2086 0132 DB68     		ldr	r3, [r3, #12]
 2087              		.loc 1 902 6
 2088 0134 0F2B     		cmp	r3, #15
 2089 0136 6FD9     		bls	.L89
 2090              		.loc 1 902 54 discriminator 1
 2091 0138 FB68     		ldr	r3, [r7, #12]
 2092 013a 1B68     		ldr	r3, [r3]
 2093              		.loc 1 902 50 discriminator 1
 2094 013c 4D4A     		ldr	r2, .L118+4
 2095 013e 9342     		cmp	r3, r2
 2096 0140 63D0     		beq	.L91
 2097              		.loc 1 902 54 discriminator 2
 2098 0142 FB68     		ldr	r3, [r7, #12]
 2099 0144 1B68     		ldr	r3, [r3]
 2100 0146 4C4A     		ldr	r2, .L118+8
 2101 0148 9342     		cmp	r3, r2
 2102 014a 5ED0     		beq	.L91
 2103              		.loc 1 902 54 is_stmt 0 discriminator 3
 2104 014c FB68     		ldr	r3, [r7, #12]
 2105 014e 1B68     		ldr	r3, [r3]
 2106 0150 4A4A     		ldr	r2, .L118+12
 2107 0152 9342     		cmp	r3, r2
 2108 0154 59D0     		beq	.L91
 2109              		.loc 1 902 54 discriminator 4
 2110 0156 FB68     		ldr	r3, [r7, #12]
 2111 0158 1B68     		ldr	r3, [r3]
 2112 015a 494A     		ldr	r2, .L118+16
 2113 015c 9342     		cmp	r3, r2
 2114 015e 54D0     		beq	.L91
 2115              		.loc 1 902 54 discriminator 5
ARM GAS  /tmp/ccwTXtVb.s 			page 54


 2116 0160 FB68     		ldr	r3, [r7, #12]
 2117 0162 1B68     		ldr	r3, [r3]
 2118 0164 474A     		ldr	r2, .L118+20
 2119 0166 9342     		cmp	r3, r2
 2120 0168 4FD0     		beq	.L91
 2121              		.loc 1 902 54 discriminator 6
 2122 016a FB68     		ldr	r3, [r7, #12]
 2123 016c 1B68     		ldr	r3, [r3]
 2124 016e 464A     		ldr	r2, .L118+24
 2125 0170 9342     		cmp	r3, r2
 2126 0172 4AD0     		beq	.L91
 2127              		.loc 1 902 54 discriminator 7
 2128 0174 FB68     		ldr	r3, [r7, #12]
 2129 0176 1B68     		ldr	r3, [r3]
 2130 0178 444A     		ldr	r2, .L118+28
 2131 017a 9342     		cmp	r3, r2
 2132 017c 45D0     		beq	.L91
 2133              		.loc 1 902 54 discriminator 8
 2134 017e FB68     		ldr	r3, [r7, #12]
 2135 0180 1B68     		ldr	r3, [r3]
 2136 0182 434A     		ldr	r2, .L118+32
 2137 0184 9342     		cmp	r3, r2
 2138 0186 47D1     		bne	.L89
 903:STM32Cube_FW_N6/Drivers/STM32N6xx_HAL_Driver/Src/stm32n6xx_hal_spi.c ****   {
 904:STM32Cube_FW_N6/Drivers/STM32N6xx_HAL_Driver/Src/stm32n6xx_hal_spi.c ****     /* Transmit data in 32 Bit mode */
 905:STM32Cube_FW_N6/Drivers/STM32N6xx_HAL_Driver/Src/stm32n6xx_hal_spi.c ****     while (hspi->TxXferCount > 0UL)
 2139              		.loc 1 905 11 is_stmt 1
 2140 0188 3FE0     		b	.L91
 2141              	.L96:
 906:STM32Cube_FW_N6/Drivers/STM32N6xx_HAL_Driver/Src/stm32n6xx_hal_spi.c ****     {
 907:STM32Cube_FW_N6/Drivers/STM32N6xx_HAL_Driver/Src/stm32n6xx_hal_spi.c ****       /* Wait until TXP flag is set to send data */
 908:STM32Cube_FW_N6/Drivers/STM32N6xx_HAL_Driver/Src/stm32n6xx_hal_spi.c ****       if (__HAL_SPI_GET_FLAG(hspi, SPI_FLAG_TXP))
 2142              		.loc 1 908 11
 2143 018a FB68     		ldr	r3, [r7, #12]
 2144 018c 1B68     		ldr	r3, [r3]
 2145 018e 5B69     		ldr	r3, [r3, #20]
 2146 0190 03F00203 		and	r3, r3, #2
 2147              		.loc 1 908 10
 2148 0194 022B     		cmp	r3, #2
 2149 0196 14D1     		bne	.L92
 909:STM32Cube_FW_N6/Drivers/STM32N6xx_HAL_Driver/Src/stm32n6xx_hal_spi.c ****       {
 910:STM32Cube_FW_N6/Drivers/STM32N6xx_HAL_Driver/Src/stm32n6xx_hal_spi.c ****         *((__IO uint32_t *)&hspi->Instance->TXDR) = *((const uint32_t *)hspi->pTxBuffPtr);
 2150              		.loc 1 910 77
 2151 0198 FB68     		ldr	r3, [r7, #12]
 2152 019a 5A6E     		ldr	r2, [r3, #100]
 2153              		.loc 1 910 33
 2154 019c FB68     		ldr	r3, [r7, #12]
 2155 019e 1B68     		ldr	r3, [r3]
 2156              		.loc 1 910 53
 2157 01a0 1268     		ldr	r2, [r2]
 2158              		.loc 1 910 51
 2159 01a2 1A62     		str	r2, [r3, #32]
 911:STM32Cube_FW_N6/Drivers/STM32N6xx_HAL_Driver/Src/stm32n6xx_hal_spi.c ****         hspi->pTxBuffPtr += sizeof(uint32_t);
 2160              		.loc 1 911 13
 2161 01a4 FB68     		ldr	r3, [r7, #12]
 2162 01a6 5B6E     		ldr	r3, [r3, #100]
 2163              		.loc 1 911 26
ARM GAS  /tmp/ccwTXtVb.s 			page 55


 2164 01a8 1A1D     		adds	r2, r3, #4
 2165 01aa FB68     		ldr	r3, [r7, #12]
 2166 01ac 5A66     		str	r2, [r3, #100]
 912:STM32Cube_FW_N6/Drivers/STM32N6xx_HAL_Driver/Src/stm32n6xx_hal_spi.c ****         hspi->TxXferCount--;
 2167              		.loc 1 912 13
 2168 01ae FB68     		ldr	r3, [r7, #12]
 2169 01b0 B3F86A30 		ldrh	r3, [r3, #106]	@ movhi
 2170 01b4 9BB2     		uxth	r3, r3
 2171              		.loc 1 912 26
 2172 01b6 013B     		subs	r3, r3, #1
 2173 01b8 9AB2     		uxth	r2, r3
 2174 01ba FB68     		ldr	r3, [r7, #12]
 2175 01bc A3F86A20 		strh	r2, [r3, #106]	@ movhi
 2176 01c0 23E0     		b	.L91
 2177              	.L92:
 913:STM32Cube_FW_N6/Drivers/STM32N6xx_HAL_Driver/Src/stm32n6xx_hal_spi.c ****       }
 914:STM32Cube_FW_N6/Drivers/STM32N6xx_HAL_Driver/Src/stm32n6xx_hal_spi.c ****       else
 915:STM32Cube_FW_N6/Drivers/STM32N6xx_HAL_Driver/Src/stm32n6xx_hal_spi.c ****       {
 916:STM32Cube_FW_N6/Drivers/STM32N6xx_HAL_Driver/Src/stm32n6xx_hal_spi.c ****         /* Timeout management */
 917:STM32Cube_FW_N6/Drivers/STM32N6xx_HAL_Driver/Src/stm32n6xx_hal_spi.c ****         if ((((HAL_GetTick() - tickstart) >=  Timeout) && (Timeout != HAL_MAX_DELAY)) || (Timeout =
 2178              		.loc 1 917 16
 2179 01c2 FFF7FEFF 		bl	HAL_GetTick
 2180 01c6 0246     		mov	r2, r0
 2181              		.loc 1 917 30 discriminator 1
 2182 01c8 3B69     		ldr	r3, [r7, #16]
 2183 01ca D31A     		subs	r3, r2, r3
 2184              		.loc 1 917 12 discriminator 1
 2185 01cc 3A68     		ldr	r2, [r7]
 2186 01ce 9A42     		cmp	r2, r3
 2187 01d0 03D8     		bhi	.L94
 2188              		.loc 1 917 56 discriminator 1
 2189 01d2 3B68     		ldr	r3, [r7]
 2190 01d4 B3F1FF3F 		cmp	r3, #-1
 2191 01d8 02D1     		bne	.L95
 2192              	.L94:
 2193              		.loc 1 917 87 discriminator 3
 2194 01da 3B68     		ldr	r3, [r7]
 2195 01dc 002B     		cmp	r3, #0
 2196 01de 14D1     		bne	.L91
 2197              	.L95:
 918:STM32Cube_FW_N6/Drivers/STM32N6xx_HAL_Driver/Src/stm32n6xx_hal_spi.c ****         {
 919:STM32Cube_FW_N6/Drivers/STM32N6xx_HAL_Driver/Src/stm32n6xx_hal_spi.c ****           /* Call standard close procedure with error check */
 920:STM32Cube_FW_N6/Drivers/STM32N6xx_HAL_Driver/Src/stm32n6xx_hal_spi.c ****           SPI_CloseTransfer(hspi);
 2198              		.loc 1 920 11
 2199 01e0 F868     		ldr	r0, [r7, #12]
 2200 01e2 FFF7FEFF 		bl	SPI_CloseTransfer
 921:STM32Cube_FW_N6/Drivers/STM32N6xx_HAL_Driver/Src/stm32n6xx_hal_spi.c **** 
 922:STM32Cube_FW_N6/Drivers/STM32N6xx_HAL_Driver/Src/stm32n6xx_hal_spi.c ****           SET_BIT(hspi->ErrorCode, HAL_SPI_ERROR_TIMEOUT);
 2201              		.loc 1 922 11
 2202 01e6 FB68     		ldr	r3, [r7, #12]
 2203 01e8 D3F88C30 		ldr	r3, [r3, #140]
 2204 01ec 43F48072 		orr	r2, r3, #256
 2205 01f0 FB68     		ldr	r3, [r7, #12]
 2206 01f2 C3F88C20 		str	r2, [r3, #140]
 923:STM32Cube_FW_N6/Drivers/STM32N6xx_HAL_Driver/Src/stm32n6xx_hal_spi.c ****           hspi->State = HAL_SPI_STATE_READY;
 2207              		.loc 1 923 23
 2208 01f6 FB68     		ldr	r3, [r7, #12]
ARM GAS  /tmp/ccwTXtVb.s 			page 56


 2209 01f8 0122     		movs	r2, #1
 2210 01fa 83F88920 		strb	r2, [r3, #137]
 924:STM32Cube_FW_N6/Drivers/STM32N6xx_HAL_Driver/Src/stm32n6xx_hal_spi.c **** 
 925:STM32Cube_FW_N6/Drivers/STM32N6xx_HAL_Driver/Src/stm32n6xx_hal_spi.c ****           /* Unlock the process */
 926:STM32Cube_FW_N6/Drivers/STM32N6xx_HAL_Driver/Src/stm32n6xx_hal_spi.c ****           __HAL_UNLOCK(hspi);
 2211              		.loc 1 926 11
 2212 01fe FB68     		ldr	r3, [r7, #12]
 2213 0200 0022     		movs	r2, #0
 2214 0202 83F88820 		strb	r2, [r3, #136]
 927:STM32Cube_FW_N6/Drivers/STM32N6xx_HAL_Driver/Src/stm32n6xx_hal_spi.c **** 
 928:STM32Cube_FW_N6/Drivers/STM32N6xx_HAL_Driver/Src/stm32n6xx_hal_spi.c ****           return HAL_TIMEOUT;
 2215              		.loc 1 928 18
 2216 0206 0323     		movs	r3, #3
 2217 0208 2EE1     		b	.L82
 2218              	.L91:
 905:STM32Cube_FW_N6/Drivers/STM32N6xx_HAL_Driver/Src/stm32n6xx_hal_spi.c ****     {
 2219              		.loc 1 905 16
 2220 020a FB68     		ldr	r3, [r7, #12]
 2221 020c B3F86A30 		ldrh	r3, [r3, #106]	@ movhi
 2222 0210 9BB2     		uxth	r3, r3
 905:STM32Cube_FW_N6/Drivers/STM32N6xx_HAL_Driver/Src/stm32n6xx_hal_spi.c ****     {
 2223              		.loc 1 905 30
 2224 0212 002B     		cmp	r3, #0
 2225 0214 B9D1     		bne	.L96
 902:STM32Cube_FW_N6/Drivers/STM32N6xx_HAL_Driver/Src/stm32n6xx_hal_spi.c ****   {
 2226              		.loc 1 902 6
 2227 0216 01E1     		b	.L97
 2228              	.L89:
 929:STM32Cube_FW_N6/Drivers/STM32N6xx_HAL_Driver/Src/stm32n6xx_hal_spi.c ****         }
 930:STM32Cube_FW_N6/Drivers/STM32N6xx_HAL_Driver/Src/stm32n6xx_hal_spi.c ****       }
 931:STM32Cube_FW_N6/Drivers/STM32N6xx_HAL_Driver/Src/stm32n6xx_hal_spi.c ****     }
 932:STM32Cube_FW_N6/Drivers/STM32N6xx_HAL_Driver/Src/stm32n6xx_hal_spi.c ****   }
 933:STM32Cube_FW_N6/Drivers/STM32N6xx_HAL_Driver/Src/stm32n6xx_hal_spi.c ****   /* Transmit data in 16 Bit mode */
 934:STM32Cube_FW_N6/Drivers/STM32N6xx_HAL_Driver/Src/stm32n6xx_hal_spi.c ****   else if (hspi->Init.DataSize > SPI_DATASIZE_8BIT)
 2229              		.loc 1 934 22
 2230 0218 FB68     		ldr	r3, [r7, #12]
 2231 021a DB68     		ldr	r3, [r3, #12]
 2232              		.loc 1 934 11
 2233 021c 072B     		cmp	r3, #7
 2234 021e 40F2F680 		bls	.L107
 935:STM32Cube_FW_N6/Drivers/STM32N6xx_HAL_Driver/Src/stm32n6xx_hal_spi.c ****   {
 936:STM32Cube_FW_N6/Drivers/STM32N6xx_HAL_Driver/Src/stm32n6xx_hal_spi.c ****     /* Transmit data in 16 Bit mode */
 937:STM32Cube_FW_N6/Drivers/STM32N6xx_HAL_Driver/Src/stm32n6xx_hal_spi.c ****     while (hspi->TxXferCount > 0UL)
 2235              		.loc 1 937 11
 2236 0222 6FE0     		b	.L99
 2237              	.L106:
 938:STM32Cube_FW_N6/Drivers/STM32N6xx_HAL_Driver/Src/stm32n6xx_hal_spi.c ****     {
 939:STM32Cube_FW_N6/Drivers/STM32N6xx_HAL_Driver/Src/stm32n6xx_hal_spi.c ****       /* Wait until TXP flag is set to send data */
 940:STM32Cube_FW_N6/Drivers/STM32N6xx_HAL_Driver/Src/stm32n6xx_hal_spi.c ****       if (__HAL_SPI_GET_FLAG(hspi, SPI_FLAG_TXP))
 2238              		.loc 1 940 11
 2239 0224 FB68     		ldr	r3, [r7, #12]
 2240 0226 1B68     		ldr	r3, [r3]
 2241 0228 5B69     		ldr	r3, [r3, #20]
 2242 022a 03F00203 		and	r3, r3, #2
 2243              		.loc 1 940 10
 2244 022e 022B     		cmp	r3, #2
 2245 0230 44D1     		bne	.L100
ARM GAS  /tmp/ccwTXtVb.s 			page 57


 941:STM32Cube_FW_N6/Drivers/STM32N6xx_HAL_Driver/Src/stm32n6xx_hal_spi.c ****       {
 942:STM32Cube_FW_N6/Drivers/STM32N6xx_HAL_Driver/Src/stm32n6xx_hal_spi.c ****         if ((hspi->TxXferCount > 1UL) && (hspi->Init.FifoThreshold > SPI_FIFO_THRESHOLD_01DATA))
 2246              		.loc 1 942 18
 2247 0232 FB68     		ldr	r3, [r7, #12]
 2248 0234 B3F86A30 		ldrh	r3, [r3, #106]	@ movhi
 2249 0238 9BB2     		uxth	r3, r3
 2250              		.loc 1 942 12
 2251 023a 012B     		cmp	r3, #1
 2252 023c 2AD9     		bls	.L101
 2253              		.loc 1 942 53 discriminator 1
 2254 023e FB68     		ldr	r3, [r7, #12]
 2255 0240 DB6B     		ldr	r3, [r3, #60]
 2256              		.loc 1 942 39 discriminator 1
 2257 0242 002B     		cmp	r3, #0
 2258 0244 26D0     		beq	.L101
 943:STM32Cube_FW_N6/Drivers/STM32N6xx_HAL_Driver/Src/stm32n6xx_hal_spi.c ****         {
 944:STM32Cube_FW_N6/Drivers/STM32N6xx_HAL_Driver/Src/stm32n6xx_hal_spi.c ****           *((__IO uint32_t *)&hspi->Instance->TXDR) = *((const uint32_t *)hspi->pTxBuffPtr);
 2259              		.loc 1 944 79
 2260 0246 FB68     		ldr	r3, [r7, #12]
 2261 0248 5A6E     		ldr	r2, [r3, #100]
 2262              		.loc 1 944 35
 2263 024a FB68     		ldr	r3, [r7, #12]
 2264 024c 1B68     		ldr	r3, [r3]
 2265              		.loc 1 944 55
 2266 024e 1268     		ldr	r2, [r2]
 2267              		.loc 1 944 53
 2268 0250 1A62     		str	r2, [r3, #32]
 945:STM32Cube_FW_N6/Drivers/STM32N6xx_HAL_Driver/Src/stm32n6xx_hal_spi.c ****           hspi->pTxBuffPtr += sizeof(uint32_t);
 2269              		.loc 1 945 15
 2270 0252 FB68     		ldr	r3, [r7, #12]
 2271 0254 5B6E     		ldr	r3, [r3, #100]
 2272              		.loc 1 945 28
 2273 0256 1A1D     		adds	r2, r3, #4
 2274 0258 FB68     		ldr	r3, [r7, #12]
 2275 025a 5A66     		str	r2, [r3, #100]
 946:STM32Cube_FW_N6/Drivers/STM32N6xx_HAL_Driver/Src/stm32n6xx_hal_spi.c ****           hspi->TxXferCount -= (uint16_t)2UL;
 2276              		.loc 1 946 15
 2277 025c FB68     		ldr	r3, [r7, #12]
 2278 025e B3F86A30 		ldrh	r3, [r3, #106]	@ movhi
 2279 0262 9BB2     		uxth	r3, r3
 2280              		.loc 1 946 29
 2281 0264 023B     		subs	r3, r3, #2
 2282 0266 9AB2     		uxth	r2, r3
 2283 0268 FB68     		ldr	r3, [r7, #12]
 2284 026a A3F86A20 		strh	r2, [r3, #106]	@ movhi
 2285 026e 49E0     		b	.L99
 2286              	.L119:
 2287              		.align	2
 2288              	.L118:
 2289 0270 00000000 		.word	.LC0
 2290 0274 00300052 		.word	1375744000
 2291 0278 00300042 		.word	1107308544
 2292 027c 00380050 		.word	1342191616
 2293 0280 00380040 		.word	1073756160
 2294 0284 003C0050 		.word	1342192640
 2295 0288 003C0040 		.word	1073757184
 2296 028c 00140056 		.word	1442845696
ARM GAS  /tmp/ccwTXtVb.s 			page 58


 2297 0290 00140046 		.word	1174410240
 2298              	.L101:
 947:STM32Cube_FW_N6/Drivers/STM32N6xx_HAL_Driver/Src/stm32n6xx_hal_spi.c ****         }
 948:STM32Cube_FW_N6/Drivers/STM32N6xx_HAL_Driver/Src/stm32n6xx_hal_spi.c ****         else
 949:STM32Cube_FW_N6/Drivers/STM32N6xx_HAL_Driver/Src/stm32n6xx_hal_spi.c ****         {
 950:STM32Cube_FW_N6/Drivers/STM32N6xx_HAL_Driver/Src/stm32n6xx_hal_spi.c **** #if defined (__GNUC__)
 951:STM32Cube_FW_N6/Drivers/STM32N6xx_HAL_Driver/Src/stm32n6xx_hal_spi.c ****           *ptxdr_16bits = *((const uint16_t *)hspi->pTxBuffPtr);
 2299              		.loc 1 951 51
 2300 0294 FB68     		ldr	r3, [r7, #12]
 2301 0296 5B6E     		ldr	r3, [r3, #100]
 2302              		.loc 1 951 27
 2303 0298 1A88     		ldrh	r2, [r3]
 2304              		.loc 1 951 25
 2305 029a 7B69     		ldr	r3, [r7, #20]
 2306 029c 1A80     		strh	r2, [r3]	@ movhi
 952:STM32Cube_FW_N6/Drivers/STM32N6xx_HAL_Driver/Src/stm32n6xx_hal_spi.c **** #else
 953:STM32Cube_FW_N6/Drivers/STM32N6xx_HAL_Driver/Src/stm32n6xx_hal_spi.c ****           *((__IO uint16_t *)&hspi->Instance->TXDR) = *((const uint16_t *)hspi->pTxBuffPtr);
 954:STM32Cube_FW_N6/Drivers/STM32N6xx_HAL_Driver/Src/stm32n6xx_hal_spi.c **** #endif /* __GNUC__ */
 955:STM32Cube_FW_N6/Drivers/STM32N6xx_HAL_Driver/Src/stm32n6xx_hal_spi.c ****           hspi->pTxBuffPtr += sizeof(uint16_t);
 2307              		.loc 1 955 15
 2308 029e FB68     		ldr	r3, [r7, #12]
 2309 02a0 5B6E     		ldr	r3, [r3, #100]
 2310              		.loc 1 955 28
 2311 02a2 9A1C     		adds	r2, r3, #2
 2312 02a4 FB68     		ldr	r3, [r7, #12]
 2313 02a6 5A66     		str	r2, [r3, #100]
 956:STM32Cube_FW_N6/Drivers/STM32N6xx_HAL_Driver/Src/stm32n6xx_hal_spi.c ****           hspi->TxXferCount--;
 2314              		.loc 1 956 15
 2315 02a8 FB68     		ldr	r3, [r7, #12]
 2316 02aa B3F86A30 		ldrh	r3, [r3, #106]	@ movhi
 2317 02ae 9BB2     		uxth	r3, r3
 2318              		.loc 1 956 28
 2319 02b0 013B     		subs	r3, r3, #1
 2320 02b2 9AB2     		uxth	r2, r3
 2321 02b4 FB68     		ldr	r3, [r7, #12]
 2322 02b6 A3F86A20 		strh	r2, [r3, #106]	@ movhi
 2323 02ba 23E0     		b	.L99
 2324              	.L100:
 957:STM32Cube_FW_N6/Drivers/STM32N6xx_HAL_Driver/Src/stm32n6xx_hal_spi.c ****         }
 958:STM32Cube_FW_N6/Drivers/STM32N6xx_HAL_Driver/Src/stm32n6xx_hal_spi.c ****       }
 959:STM32Cube_FW_N6/Drivers/STM32N6xx_HAL_Driver/Src/stm32n6xx_hal_spi.c ****       else
 960:STM32Cube_FW_N6/Drivers/STM32N6xx_HAL_Driver/Src/stm32n6xx_hal_spi.c ****       {
 961:STM32Cube_FW_N6/Drivers/STM32N6xx_HAL_Driver/Src/stm32n6xx_hal_spi.c ****         /* Timeout management */
 962:STM32Cube_FW_N6/Drivers/STM32N6xx_HAL_Driver/Src/stm32n6xx_hal_spi.c ****         if ((((HAL_GetTick() - tickstart) >=  Timeout) && (Timeout != HAL_MAX_DELAY)) || (Timeout =
 2325              		.loc 1 962 16
 2326 02bc FFF7FEFF 		bl	HAL_GetTick
 2327 02c0 0246     		mov	r2, r0
 2328              		.loc 1 962 30 discriminator 1
 2329 02c2 3B69     		ldr	r3, [r7, #16]
 2330 02c4 D31A     		subs	r3, r2, r3
 2331              		.loc 1 962 12 discriminator 1
 2332 02c6 3A68     		ldr	r2, [r7]
 2333 02c8 9A42     		cmp	r2, r3
 2334 02ca 03D8     		bhi	.L104
 2335              		.loc 1 962 56 discriminator 1
 2336 02cc 3B68     		ldr	r3, [r7]
 2337 02ce B3F1FF3F 		cmp	r3, #-1
ARM GAS  /tmp/ccwTXtVb.s 			page 59


 2338 02d2 02D1     		bne	.L105
 2339              	.L104:
 2340              		.loc 1 962 87 discriminator 3
 2341 02d4 3B68     		ldr	r3, [r7]
 2342 02d6 002B     		cmp	r3, #0
 2343 02d8 14D1     		bne	.L99
 2344              	.L105:
 963:STM32Cube_FW_N6/Drivers/STM32N6xx_HAL_Driver/Src/stm32n6xx_hal_spi.c ****         {
 964:STM32Cube_FW_N6/Drivers/STM32N6xx_HAL_Driver/Src/stm32n6xx_hal_spi.c ****           /* Call standard close procedure with error check */
 965:STM32Cube_FW_N6/Drivers/STM32N6xx_HAL_Driver/Src/stm32n6xx_hal_spi.c ****           SPI_CloseTransfer(hspi);
 2345              		.loc 1 965 11
 2346 02da F868     		ldr	r0, [r7, #12]
 2347 02dc FFF7FEFF 		bl	SPI_CloseTransfer
 966:STM32Cube_FW_N6/Drivers/STM32N6xx_HAL_Driver/Src/stm32n6xx_hal_spi.c **** 
 967:STM32Cube_FW_N6/Drivers/STM32N6xx_HAL_Driver/Src/stm32n6xx_hal_spi.c ****           SET_BIT(hspi->ErrorCode, HAL_SPI_ERROR_TIMEOUT);
 2348              		.loc 1 967 11
 2349 02e0 FB68     		ldr	r3, [r7, #12]
 2350 02e2 D3F88C30 		ldr	r3, [r3, #140]
 2351 02e6 43F48072 		orr	r2, r3, #256
 2352 02ea FB68     		ldr	r3, [r7, #12]
 2353 02ec C3F88C20 		str	r2, [r3, #140]
 968:STM32Cube_FW_N6/Drivers/STM32N6xx_HAL_Driver/Src/stm32n6xx_hal_spi.c ****           hspi->State = HAL_SPI_STATE_READY;
 2354              		.loc 1 968 23
 2355 02f0 FB68     		ldr	r3, [r7, #12]
 2356 02f2 0122     		movs	r2, #1
 2357 02f4 83F88920 		strb	r2, [r3, #137]
 969:STM32Cube_FW_N6/Drivers/STM32N6xx_HAL_Driver/Src/stm32n6xx_hal_spi.c **** 
 970:STM32Cube_FW_N6/Drivers/STM32N6xx_HAL_Driver/Src/stm32n6xx_hal_spi.c ****           /* Unlock the process */
 971:STM32Cube_FW_N6/Drivers/STM32N6xx_HAL_Driver/Src/stm32n6xx_hal_spi.c ****           __HAL_UNLOCK(hspi);
 2358              		.loc 1 971 11
 2359 02f8 FB68     		ldr	r3, [r7, #12]
 2360 02fa 0022     		movs	r2, #0
 2361 02fc 83F88820 		strb	r2, [r3, #136]
 972:STM32Cube_FW_N6/Drivers/STM32N6xx_HAL_Driver/Src/stm32n6xx_hal_spi.c **** 
 973:STM32Cube_FW_N6/Drivers/STM32N6xx_HAL_Driver/Src/stm32n6xx_hal_spi.c ****           return HAL_TIMEOUT;
 2362              		.loc 1 973 18
 2363 0300 0323     		movs	r3, #3
 2364 0302 B1E0     		b	.L82
 2365              	.L99:
 937:STM32Cube_FW_N6/Drivers/STM32N6xx_HAL_Driver/Src/stm32n6xx_hal_spi.c ****     {
 2366              		.loc 1 937 16
 2367 0304 FB68     		ldr	r3, [r7, #12]
 2368 0306 B3F86A30 		ldrh	r3, [r3, #106]	@ movhi
 2369 030a 9BB2     		uxth	r3, r3
 937:STM32Cube_FW_N6/Drivers/STM32N6xx_HAL_Driver/Src/stm32n6xx_hal_spi.c ****     {
 2370              		.loc 1 937 30
 2371 030c 002B     		cmp	r3, #0
 2372 030e 89D1     		bne	.L106
 2373 0310 84E0     		b	.L97
 2374              	.L115:
 974:STM32Cube_FW_N6/Drivers/STM32N6xx_HAL_Driver/Src/stm32n6xx_hal_spi.c ****         }
 975:STM32Cube_FW_N6/Drivers/STM32N6xx_HAL_Driver/Src/stm32n6xx_hal_spi.c ****       }
 976:STM32Cube_FW_N6/Drivers/STM32N6xx_HAL_Driver/Src/stm32n6xx_hal_spi.c ****     }
 977:STM32Cube_FW_N6/Drivers/STM32N6xx_HAL_Driver/Src/stm32n6xx_hal_spi.c ****   }
 978:STM32Cube_FW_N6/Drivers/STM32N6xx_HAL_Driver/Src/stm32n6xx_hal_spi.c ****   /* Transmit data in 8 Bit mode */
 979:STM32Cube_FW_N6/Drivers/STM32N6xx_HAL_Driver/Src/stm32n6xx_hal_spi.c ****   else
 980:STM32Cube_FW_N6/Drivers/STM32N6xx_HAL_Driver/Src/stm32n6xx_hal_spi.c ****   {
ARM GAS  /tmp/ccwTXtVb.s 			page 60


 981:STM32Cube_FW_N6/Drivers/STM32N6xx_HAL_Driver/Src/stm32n6xx_hal_spi.c ****     while (hspi->TxXferCount > 0UL)
 982:STM32Cube_FW_N6/Drivers/STM32N6xx_HAL_Driver/Src/stm32n6xx_hal_spi.c ****     {
 983:STM32Cube_FW_N6/Drivers/STM32N6xx_HAL_Driver/Src/stm32n6xx_hal_spi.c ****       /* Wait until TXP flag is set to send data */
 984:STM32Cube_FW_N6/Drivers/STM32N6xx_HAL_Driver/Src/stm32n6xx_hal_spi.c ****       if (__HAL_SPI_GET_FLAG(hspi, SPI_FLAG_TXP))
 2375              		.loc 1 984 11
 2376 0312 FB68     		ldr	r3, [r7, #12]
 2377 0314 1B68     		ldr	r3, [r3]
 2378 0316 5B69     		ldr	r3, [r3, #20]
 2379 0318 03F00203 		and	r3, r3, #2
 2380              		.loc 1 984 10
 2381 031c 022B     		cmp	r3, #2
 2382 031e 52D1     		bne	.L108
 985:STM32Cube_FW_N6/Drivers/STM32N6xx_HAL_Driver/Src/stm32n6xx_hal_spi.c ****       {
 986:STM32Cube_FW_N6/Drivers/STM32N6xx_HAL_Driver/Src/stm32n6xx_hal_spi.c ****         if ((hspi->TxXferCount > 3UL) && (hspi->Init.FifoThreshold > SPI_FIFO_THRESHOLD_03DATA))
 2383              		.loc 1 986 18
 2384 0320 FB68     		ldr	r3, [r7, #12]
 2385 0322 B3F86A30 		ldrh	r3, [r3, #106]	@ movhi
 2386 0326 9BB2     		uxth	r3, r3
 2387              		.loc 1 986 12
 2388 0328 032B     		cmp	r3, #3
 2389 032a 18D9     		bls	.L109
 2390              		.loc 1 986 53 discriminator 1
 2391 032c FB68     		ldr	r3, [r7, #12]
 2392 032e DB6B     		ldr	r3, [r3, #60]
 2393              		.loc 1 986 39 discriminator 1
 2394 0330 402B     		cmp	r3, #64
 2395 0332 14D9     		bls	.L109
 987:STM32Cube_FW_N6/Drivers/STM32N6xx_HAL_Driver/Src/stm32n6xx_hal_spi.c ****         {
 988:STM32Cube_FW_N6/Drivers/STM32N6xx_HAL_Driver/Src/stm32n6xx_hal_spi.c ****           *((__IO uint32_t *)&hspi->Instance->TXDR) = *((const uint32_t *)hspi->pTxBuffPtr);
 2396              		.loc 1 988 79
 2397 0334 FB68     		ldr	r3, [r7, #12]
 2398 0336 5A6E     		ldr	r2, [r3, #100]
 2399              		.loc 1 988 35
 2400 0338 FB68     		ldr	r3, [r7, #12]
 2401 033a 1B68     		ldr	r3, [r3]
 2402              		.loc 1 988 55
 2403 033c 1268     		ldr	r2, [r2]
 2404              		.loc 1 988 53
 2405 033e 1A62     		str	r2, [r3, #32]
 989:STM32Cube_FW_N6/Drivers/STM32N6xx_HAL_Driver/Src/stm32n6xx_hal_spi.c ****           hspi->pTxBuffPtr += sizeof(uint32_t);
 2406              		.loc 1 989 15
 2407 0340 FB68     		ldr	r3, [r7, #12]
 2408 0342 5B6E     		ldr	r3, [r3, #100]
 2409              		.loc 1 989 28
 2410 0344 1A1D     		adds	r2, r3, #4
 2411 0346 FB68     		ldr	r3, [r7, #12]
 2412 0348 5A66     		str	r2, [r3, #100]
 990:STM32Cube_FW_N6/Drivers/STM32N6xx_HAL_Driver/Src/stm32n6xx_hal_spi.c ****           hspi->TxXferCount -= (uint16_t)4UL;
 2413              		.loc 1 990 15
 2414 034a FB68     		ldr	r3, [r7, #12]
 2415 034c B3F86A30 		ldrh	r3, [r3, #106]	@ movhi
 2416 0350 9BB2     		uxth	r3, r3
 2417              		.loc 1 990 29
 2418 0352 043B     		subs	r3, r3, #4
 2419 0354 9AB2     		uxth	r2, r3
 2420 0356 FB68     		ldr	r3, [r7, #12]
 2421 0358 A3F86A20 		strh	r2, [r3, #106]	@ movhi
ARM GAS  /tmp/ccwTXtVb.s 			page 61


 2422 035c 57E0     		b	.L107
 2423              	.L109:
 991:STM32Cube_FW_N6/Drivers/STM32N6xx_HAL_Driver/Src/stm32n6xx_hal_spi.c ****         }
 992:STM32Cube_FW_N6/Drivers/STM32N6xx_HAL_Driver/Src/stm32n6xx_hal_spi.c ****         else if ((hspi->TxXferCount > 1UL) && (hspi->Init.FifoThreshold > SPI_FIFO_THRESHOLD_01DATA
 2424              		.loc 1 992 23
 2425 035e FB68     		ldr	r3, [r7, #12]
 2426 0360 B3F86A30 		ldrh	r3, [r3, #106]	@ movhi
 2427 0364 9BB2     		uxth	r3, r3
 2428              		.loc 1 992 17
 2429 0366 012B     		cmp	r3, #1
 2430 0368 17D9     		bls	.L111
 2431              		.loc 1 992 58 discriminator 1
 2432 036a FB68     		ldr	r3, [r7, #12]
 2433 036c DB6B     		ldr	r3, [r3, #60]
 2434              		.loc 1 992 44 discriminator 1
 2435 036e 002B     		cmp	r3, #0
 2436 0370 13D0     		beq	.L111
 993:STM32Cube_FW_N6/Drivers/STM32N6xx_HAL_Driver/Src/stm32n6xx_hal_spi.c ****         {
 994:STM32Cube_FW_N6/Drivers/STM32N6xx_HAL_Driver/Src/stm32n6xx_hal_spi.c **** #if defined (__GNUC__)
 995:STM32Cube_FW_N6/Drivers/STM32N6xx_HAL_Driver/Src/stm32n6xx_hal_spi.c ****           *ptxdr_16bits = *((const uint16_t *)hspi->pTxBuffPtr);
 2437              		.loc 1 995 51
 2438 0372 FB68     		ldr	r3, [r7, #12]
 2439 0374 5B6E     		ldr	r3, [r3, #100]
 2440              		.loc 1 995 27
 2441 0376 1A88     		ldrh	r2, [r3]
 2442              		.loc 1 995 25
 2443 0378 7B69     		ldr	r3, [r7, #20]
 2444 037a 1A80     		strh	r2, [r3]	@ movhi
 996:STM32Cube_FW_N6/Drivers/STM32N6xx_HAL_Driver/Src/stm32n6xx_hal_spi.c **** #else
 997:STM32Cube_FW_N6/Drivers/STM32N6xx_HAL_Driver/Src/stm32n6xx_hal_spi.c ****           *((__IO uint16_t *)&hspi->Instance->TXDR) = *((const uint16_t *)hspi->pTxBuffPtr);
 998:STM32Cube_FW_N6/Drivers/STM32N6xx_HAL_Driver/Src/stm32n6xx_hal_spi.c **** #endif /* __GNUC__ */
 999:STM32Cube_FW_N6/Drivers/STM32N6xx_HAL_Driver/Src/stm32n6xx_hal_spi.c ****           hspi->pTxBuffPtr += sizeof(uint16_t);
 2445              		.loc 1 999 15
 2446 037c FB68     		ldr	r3, [r7, #12]
 2447 037e 5B6E     		ldr	r3, [r3, #100]
 2448              		.loc 1 999 28
 2449 0380 9A1C     		adds	r2, r3, #2
 2450 0382 FB68     		ldr	r3, [r7, #12]
 2451 0384 5A66     		str	r2, [r3, #100]
1000:STM32Cube_FW_N6/Drivers/STM32N6xx_HAL_Driver/Src/stm32n6xx_hal_spi.c ****           hspi->TxXferCount -= (uint16_t)2UL;
 2452              		.loc 1 1000 15
 2453 0386 FB68     		ldr	r3, [r7, #12]
 2454 0388 B3F86A30 		ldrh	r3, [r3, #106]	@ movhi
 2455 038c 9BB2     		uxth	r3, r3
 2456              		.loc 1 1000 29
 2457 038e 023B     		subs	r3, r3, #2
 2458 0390 9AB2     		uxth	r2, r3
 2459 0392 FB68     		ldr	r3, [r7, #12]
 2460 0394 A3F86A20 		strh	r2, [r3, #106]	@ movhi
 2461 0398 39E0     		b	.L107
 2462              	.L111:
1001:STM32Cube_FW_N6/Drivers/STM32N6xx_HAL_Driver/Src/stm32n6xx_hal_spi.c ****         }
1002:STM32Cube_FW_N6/Drivers/STM32N6xx_HAL_Driver/Src/stm32n6xx_hal_spi.c ****         else
1003:STM32Cube_FW_N6/Drivers/STM32N6xx_HAL_Driver/Src/stm32n6xx_hal_spi.c ****         {
1004:STM32Cube_FW_N6/Drivers/STM32N6xx_HAL_Driver/Src/stm32n6xx_hal_spi.c ****           *((__IO uint8_t *)&hspi->Instance->TXDR) = *((const uint8_t *)hspi->pTxBuffPtr);
 2463              		.loc 1 1004 77
 2464 039a FB68     		ldr	r3, [r7, #12]
ARM GAS  /tmp/ccwTXtVb.s 			page 62


 2465 039c 5A6E     		ldr	r2, [r3, #100]
 2466              		.loc 1 1004 34
 2467 039e FB68     		ldr	r3, [r7, #12]
 2468 03a0 1B68     		ldr	r3, [r3]
 2469              		.loc 1 1004 29
 2470 03a2 2033     		adds	r3, r3, #32
 2471              		.loc 1 1004 54
 2472 03a4 1278     		ldrb	r2, [r2]	@ zero_extendqisi2
 2473              		.loc 1 1004 52
 2474 03a6 1A70     		strb	r2, [r3]
1005:STM32Cube_FW_N6/Drivers/STM32N6xx_HAL_Driver/Src/stm32n6xx_hal_spi.c ****           hspi->pTxBuffPtr += sizeof(uint8_t);
 2475              		.loc 1 1005 15
 2476 03a8 FB68     		ldr	r3, [r7, #12]
 2477 03aa 5B6E     		ldr	r3, [r3, #100]
 2478              		.loc 1 1005 28
 2479 03ac 5A1C     		adds	r2, r3, #1
 2480 03ae FB68     		ldr	r3, [r7, #12]
 2481 03b0 5A66     		str	r2, [r3, #100]
1006:STM32Cube_FW_N6/Drivers/STM32N6xx_HAL_Driver/Src/stm32n6xx_hal_spi.c ****           hspi->TxXferCount--;
 2482              		.loc 1 1006 15
 2483 03b2 FB68     		ldr	r3, [r7, #12]
 2484 03b4 B3F86A30 		ldrh	r3, [r3, #106]	@ movhi
 2485 03b8 9BB2     		uxth	r3, r3
 2486              		.loc 1 1006 28
 2487 03ba 013B     		subs	r3, r3, #1
 2488 03bc 9AB2     		uxth	r2, r3
 2489 03be FB68     		ldr	r3, [r7, #12]
 2490 03c0 A3F86A20 		strh	r2, [r3, #106]	@ movhi
 2491 03c4 23E0     		b	.L107
 2492              	.L108:
1007:STM32Cube_FW_N6/Drivers/STM32N6xx_HAL_Driver/Src/stm32n6xx_hal_spi.c ****         }
1008:STM32Cube_FW_N6/Drivers/STM32N6xx_HAL_Driver/Src/stm32n6xx_hal_spi.c ****       }
1009:STM32Cube_FW_N6/Drivers/STM32N6xx_HAL_Driver/Src/stm32n6xx_hal_spi.c ****       else
1010:STM32Cube_FW_N6/Drivers/STM32N6xx_HAL_Driver/Src/stm32n6xx_hal_spi.c ****       {
1011:STM32Cube_FW_N6/Drivers/STM32N6xx_HAL_Driver/Src/stm32n6xx_hal_spi.c ****         /* Timeout management */
1012:STM32Cube_FW_N6/Drivers/STM32N6xx_HAL_Driver/Src/stm32n6xx_hal_spi.c ****         if ((((HAL_GetTick() - tickstart) >=  Timeout) && (Timeout != HAL_MAX_DELAY)) || (Timeout =
 2493              		.loc 1 1012 16
 2494 03c6 FFF7FEFF 		bl	HAL_GetTick
 2495 03ca 0246     		mov	r2, r0
 2496              		.loc 1 1012 30 discriminator 1
 2497 03cc 3B69     		ldr	r3, [r7, #16]
 2498 03ce D31A     		subs	r3, r2, r3
 2499              		.loc 1 1012 12 discriminator 1
 2500 03d0 3A68     		ldr	r2, [r7]
 2501 03d2 9A42     		cmp	r2, r3
 2502 03d4 03D8     		bhi	.L113
 2503              		.loc 1 1012 56 discriminator 1
 2504 03d6 3B68     		ldr	r3, [r7]
 2505 03d8 B3F1FF3F 		cmp	r3, #-1
 2506 03dc 02D1     		bne	.L114
 2507              	.L113:
 2508              		.loc 1 1012 87 discriminator 3
 2509 03de 3B68     		ldr	r3, [r7]
 2510 03e0 002B     		cmp	r3, #0
 2511 03e2 14D1     		bne	.L107
 2512              	.L114:
1013:STM32Cube_FW_N6/Drivers/STM32N6xx_HAL_Driver/Src/stm32n6xx_hal_spi.c ****         {
ARM GAS  /tmp/ccwTXtVb.s 			page 63


1014:STM32Cube_FW_N6/Drivers/STM32N6xx_HAL_Driver/Src/stm32n6xx_hal_spi.c ****           /* Call standard close procedure with error check */
1015:STM32Cube_FW_N6/Drivers/STM32N6xx_HAL_Driver/Src/stm32n6xx_hal_spi.c ****           SPI_CloseTransfer(hspi);
 2513              		.loc 1 1015 11
 2514 03e4 F868     		ldr	r0, [r7, #12]
 2515 03e6 FFF7FEFF 		bl	SPI_CloseTransfer
1016:STM32Cube_FW_N6/Drivers/STM32N6xx_HAL_Driver/Src/stm32n6xx_hal_spi.c **** 
1017:STM32Cube_FW_N6/Drivers/STM32N6xx_HAL_Driver/Src/stm32n6xx_hal_spi.c ****           SET_BIT(hspi->ErrorCode, HAL_SPI_ERROR_TIMEOUT);
 2516              		.loc 1 1017 11
 2517 03ea FB68     		ldr	r3, [r7, #12]
 2518 03ec D3F88C30 		ldr	r3, [r3, #140]
 2519 03f0 43F48072 		orr	r2, r3, #256
 2520 03f4 FB68     		ldr	r3, [r7, #12]
 2521 03f6 C3F88C20 		str	r2, [r3, #140]
1018:STM32Cube_FW_N6/Drivers/STM32N6xx_HAL_Driver/Src/stm32n6xx_hal_spi.c ****           hspi->State = HAL_SPI_STATE_READY;
 2522              		.loc 1 1018 23
 2523 03fa FB68     		ldr	r3, [r7, #12]
 2524 03fc 0122     		movs	r2, #1
 2525 03fe 83F88920 		strb	r2, [r3, #137]
1019:STM32Cube_FW_N6/Drivers/STM32N6xx_HAL_Driver/Src/stm32n6xx_hal_spi.c **** 
1020:STM32Cube_FW_N6/Drivers/STM32N6xx_HAL_Driver/Src/stm32n6xx_hal_spi.c ****           /* Unlock the process */
1021:STM32Cube_FW_N6/Drivers/STM32N6xx_HAL_Driver/Src/stm32n6xx_hal_spi.c ****           __HAL_UNLOCK(hspi);
 2526              		.loc 1 1021 11
 2527 0402 FB68     		ldr	r3, [r7, #12]
 2528 0404 0022     		movs	r2, #0
 2529 0406 83F88820 		strb	r2, [r3, #136]
1022:STM32Cube_FW_N6/Drivers/STM32N6xx_HAL_Driver/Src/stm32n6xx_hal_spi.c **** 
1023:STM32Cube_FW_N6/Drivers/STM32N6xx_HAL_Driver/Src/stm32n6xx_hal_spi.c ****           return HAL_TIMEOUT;
 2530              		.loc 1 1023 18
 2531 040a 0323     		movs	r3, #3
 2532 040c 2CE0     		b	.L82
 2533              	.L107:
 981:STM32Cube_FW_N6/Drivers/STM32N6xx_HAL_Driver/Src/stm32n6xx_hal_spi.c ****     {
 2534              		.loc 1 981 16
 2535 040e FB68     		ldr	r3, [r7, #12]
 2536 0410 B3F86A30 		ldrh	r3, [r3, #106]	@ movhi
 2537 0414 9BB2     		uxth	r3, r3
 981:STM32Cube_FW_N6/Drivers/STM32N6xx_HAL_Driver/Src/stm32n6xx_hal_spi.c ****     {
 2538              		.loc 1 981 30
 2539 0416 002B     		cmp	r3, #0
 2540 0418 7FF47BAF 		bne	.L115
 2541              	.L97:
1024:STM32Cube_FW_N6/Drivers/STM32N6xx_HAL_Driver/Src/stm32n6xx_hal_spi.c ****         }
1025:STM32Cube_FW_N6/Drivers/STM32N6xx_HAL_Driver/Src/stm32n6xx_hal_spi.c ****       }
1026:STM32Cube_FW_N6/Drivers/STM32N6xx_HAL_Driver/Src/stm32n6xx_hal_spi.c ****     }
1027:STM32Cube_FW_N6/Drivers/STM32N6xx_HAL_Driver/Src/stm32n6xx_hal_spi.c ****   }
1028:STM32Cube_FW_N6/Drivers/STM32N6xx_HAL_Driver/Src/stm32n6xx_hal_spi.c **** 
1029:STM32Cube_FW_N6/Drivers/STM32N6xx_HAL_Driver/Src/stm32n6xx_hal_spi.c ****   /* Wait for Tx (and CRC) data to be sent */
1030:STM32Cube_FW_N6/Drivers/STM32N6xx_HAL_Driver/Src/stm32n6xx_hal_spi.c ****   if (SPI_WaitOnFlagUntilTimeout(hspi, SPI_FLAG_EOT, RESET, Timeout, tickstart) != HAL_OK)
 2542              		.loc 1 1030 7
 2543 041c 3B69     		ldr	r3, [r7, #16]
 2544 041e 0093     		str	r3, [sp]
 2545 0420 3B68     		ldr	r3, [r7]
 2546 0422 0022     		movs	r2, #0
 2547 0424 0821     		movs	r1, #8
 2548 0426 F868     		ldr	r0, [r7, #12]
 2549 0428 FFF7FEFF 		bl	SPI_WaitOnFlagUntilTimeout
 2550 042c 0346     		mov	r3, r0
ARM GAS  /tmp/ccwTXtVb.s 			page 64


 2551              		.loc 1 1030 6 discriminator 1
 2552 042e 002B     		cmp	r3, #0
 2553 0430 07D0     		beq	.L116
1031:STM32Cube_FW_N6/Drivers/STM32N6xx_HAL_Driver/Src/stm32n6xx_hal_spi.c ****   {
1032:STM32Cube_FW_N6/Drivers/STM32N6xx_HAL_Driver/Src/stm32n6xx_hal_spi.c ****     SET_BIT(hspi->ErrorCode, HAL_SPI_ERROR_FLAG);
 2554              		.loc 1 1032 5
 2555 0432 FB68     		ldr	r3, [r7, #12]
 2556 0434 D3F88C30 		ldr	r3, [r3, #140]
 2557 0438 43F02002 		orr	r2, r3, #32
 2558 043c FB68     		ldr	r3, [r7, #12]
 2559 043e C3F88C20 		str	r2, [r3, #140]
 2560              	.L116:
1033:STM32Cube_FW_N6/Drivers/STM32N6xx_HAL_Driver/Src/stm32n6xx_hal_spi.c ****   }
1034:STM32Cube_FW_N6/Drivers/STM32N6xx_HAL_Driver/Src/stm32n6xx_hal_spi.c **** 
1035:STM32Cube_FW_N6/Drivers/STM32N6xx_HAL_Driver/Src/stm32n6xx_hal_spi.c ****   /* Call standard close procedure with error check */
1036:STM32Cube_FW_N6/Drivers/STM32N6xx_HAL_Driver/Src/stm32n6xx_hal_spi.c ****   SPI_CloseTransfer(hspi);
 2561              		.loc 1 1036 3
 2562 0442 F868     		ldr	r0, [r7, #12]
 2563 0444 FFF7FEFF 		bl	SPI_CloseTransfer
1037:STM32Cube_FW_N6/Drivers/STM32N6xx_HAL_Driver/Src/stm32n6xx_hal_spi.c **** 
1038:STM32Cube_FW_N6/Drivers/STM32N6xx_HAL_Driver/Src/stm32n6xx_hal_spi.c ****   hspi->State = HAL_SPI_STATE_READY;
 2564              		.loc 1 1038 15
 2565 0448 FB68     		ldr	r3, [r7, #12]
 2566 044a 0122     		movs	r2, #1
 2567 044c 83F88920 		strb	r2, [r3, #137]
1039:STM32Cube_FW_N6/Drivers/STM32N6xx_HAL_Driver/Src/stm32n6xx_hal_spi.c **** 
1040:STM32Cube_FW_N6/Drivers/STM32N6xx_HAL_Driver/Src/stm32n6xx_hal_spi.c ****   /* Unlock the process */
1041:STM32Cube_FW_N6/Drivers/STM32N6xx_HAL_Driver/Src/stm32n6xx_hal_spi.c ****   __HAL_UNLOCK(hspi);
 2568              		.loc 1 1041 3
 2569 0450 FB68     		ldr	r3, [r7, #12]
 2570 0452 0022     		movs	r2, #0
 2571 0454 83F88820 		strb	r2, [r3, #136]
1042:STM32Cube_FW_N6/Drivers/STM32N6xx_HAL_Driver/Src/stm32n6xx_hal_spi.c **** 
1043:STM32Cube_FW_N6/Drivers/STM32N6xx_HAL_Driver/Src/stm32n6xx_hal_spi.c ****   if (hspi->ErrorCode != HAL_SPI_ERROR_NONE)
 2572              		.loc 1 1043 11
 2573 0458 FB68     		ldr	r3, [r7, #12]
 2574 045a D3F88C30 		ldr	r3, [r3, #140]
 2575              		.loc 1 1043 6
 2576 045e 002B     		cmp	r3, #0
 2577 0460 01D0     		beq	.L117
1044:STM32Cube_FW_N6/Drivers/STM32N6xx_HAL_Driver/Src/stm32n6xx_hal_spi.c ****   {
1045:STM32Cube_FW_N6/Drivers/STM32N6xx_HAL_Driver/Src/stm32n6xx_hal_spi.c ****     return HAL_ERROR;
 2578              		.loc 1 1045 12
 2579 0462 0123     		movs	r3, #1
 2580 0464 00E0     		b	.L82
 2581              	.L117:
1046:STM32Cube_FW_N6/Drivers/STM32N6xx_HAL_Driver/Src/stm32n6xx_hal_spi.c ****   }
1047:STM32Cube_FW_N6/Drivers/STM32N6xx_HAL_Driver/Src/stm32n6xx_hal_spi.c ****   else
1048:STM32Cube_FW_N6/Drivers/STM32N6xx_HAL_Driver/Src/stm32n6xx_hal_spi.c ****   {
1049:STM32Cube_FW_N6/Drivers/STM32N6xx_HAL_Driver/Src/stm32n6xx_hal_spi.c ****     return HAL_OK;
 2582              		.loc 1 1049 12
 2583 0466 0023     		movs	r3, #0
 2584              	.L82:
1050:STM32Cube_FW_N6/Drivers/STM32N6xx_HAL_Driver/Src/stm32n6xx_hal_spi.c ****   }
1051:STM32Cube_FW_N6/Drivers/STM32N6xx_HAL_Driver/Src/stm32n6xx_hal_spi.c **** }
 2585              		.loc 1 1051 1
 2586 0468 1846     		mov	r0, r3
ARM GAS  /tmp/ccwTXtVb.s 			page 65


 2587 046a 1837     		adds	r7, r7, #24
 2588              		.cfi_def_cfa_offset 8
 2589 046c BD46     		mov	sp, r7
 2590              		.cfi_def_cfa_register 13
 2591              		@ sp needed
 2592 046e 80BD     		pop	{r7, pc}
 2593              		.cfi_endproc
 2594              	.LFE839:
 2596              		.section	.text.HAL_SPI_Receive,"ax",%progbits
 2597              		.align	1
 2598              		.global	HAL_SPI_Receive
 2599              		.syntax unified
 2600              		.thumb
 2601              		.thumb_func
 2603              	HAL_SPI_Receive:
 2604              	.LFB840:
1052:STM32Cube_FW_N6/Drivers/STM32N6xx_HAL_Driver/Src/stm32n6xx_hal_spi.c **** 
1053:STM32Cube_FW_N6/Drivers/STM32N6xx_HAL_Driver/Src/stm32n6xx_hal_spi.c **** /**
1054:STM32Cube_FW_N6/Drivers/STM32N6xx_HAL_Driver/Src/stm32n6xx_hal_spi.c ****   * @brief  Receive an amount of data in blocking mode.
1055:STM32Cube_FW_N6/Drivers/STM32N6xx_HAL_Driver/Src/stm32n6xx_hal_spi.c ****   * @param  hspi   : pointer to a SPI_HandleTypeDef structure that contains
1056:STM32Cube_FW_N6/Drivers/STM32N6xx_HAL_Driver/Src/stm32n6xx_hal_spi.c ****   *                  the configuration information for SPI module.
1057:STM32Cube_FW_N6/Drivers/STM32N6xx_HAL_Driver/Src/stm32n6xx_hal_spi.c ****   * @param  pData  : pointer to data buffer
1058:STM32Cube_FW_N6/Drivers/STM32N6xx_HAL_Driver/Src/stm32n6xx_hal_spi.c ****   * @param  Size   : amount of data to be received
1059:STM32Cube_FW_N6/Drivers/STM32N6xx_HAL_Driver/Src/stm32n6xx_hal_spi.c ****   * @param  Timeout: Timeout duration
1060:STM32Cube_FW_N6/Drivers/STM32N6xx_HAL_Driver/Src/stm32n6xx_hal_spi.c ****   * @retval HAL status
1061:STM32Cube_FW_N6/Drivers/STM32N6xx_HAL_Driver/Src/stm32n6xx_hal_spi.c ****   */
1062:STM32Cube_FW_N6/Drivers/STM32N6xx_HAL_Driver/Src/stm32n6xx_hal_spi.c **** HAL_StatusTypeDef HAL_SPI_Receive(SPI_HandleTypeDef *hspi, uint8_t *pData, uint16_t Size, uint32_t 
1063:STM32Cube_FW_N6/Drivers/STM32N6xx_HAL_Driver/Src/stm32n6xx_hal_spi.c **** {
 2605              		.loc 1 1063 1
 2606              		.cfi_startproc
 2607              		@ args = 0, pretend = 0, frame = 32
 2608              		@ frame_needed = 1, uses_anonymous_args = 0
 2609 0000 80B5     		push	{r7, lr}
 2610              		.cfi_def_cfa_offset 8
 2611              		.cfi_offset 7, -8
 2612              		.cfi_offset 14, -4
 2613 0002 8AB0     		sub	sp, sp, #40
 2614              		.cfi_def_cfa_offset 48
 2615 0004 02AF     		add	r7, sp, #8
 2616              		.cfi_def_cfa 7, 40
 2617 0006 F860     		str	r0, [r7, #12]
 2618 0008 B960     		str	r1, [r7, #8]
 2619 000a 3B60     		str	r3, [r7]
 2620 000c 1346     		mov	r3, r2	@ movhi
 2621 000e FB80     		strh	r3, [r7, #6]	@ movhi
1064:STM32Cube_FW_N6/Drivers/STM32N6xx_HAL_Driver/Src/stm32n6xx_hal_spi.c ****   uint32_t tickstart;
1065:STM32Cube_FW_N6/Drivers/STM32N6xx_HAL_Driver/Src/stm32n6xx_hal_spi.c ****   uint32_t temp_sr_reg;
1066:STM32Cube_FW_N6/Drivers/STM32N6xx_HAL_Driver/Src/stm32n6xx_hal_spi.c ****   uint16_t init_max_data_in_fifo;
1067:STM32Cube_FW_N6/Drivers/STM32N6xx_HAL_Driver/Src/stm32n6xx_hal_spi.c ****   init_max_data_in_fifo = (((uint16_t)(hspi->Init.FifoThreshold >> 5U) + 1U));
 2622              		.loc 1 1067 50
 2623 0010 FB68     		ldr	r3, [r7, #12]
 2624 0012 DB6B     		ldr	r3, [r3, #60]
 2625              		.loc 1 1067 65
 2626 0014 5B09     		lsrs	r3, r3, #5
 2627              		.loc 1 1067 29
 2628 0016 9BB2     		uxth	r3, r3
 2629              		.loc 1 1067 25
ARM GAS  /tmp/ccwTXtVb.s 			page 66


 2630 0018 0133     		adds	r3, r3, #1
 2631 001a FB83     		strh	r3, [r7, #30]	@ movhi
1068:STM32Cube_FW_N6/Drivers/STM32N6xx_HAL_Driver/Src/stm32n6xx_hal_spi.c **** #if defined (__GNUC__)
1069:STM32Cube_FW_N6/Drivers/STM32N6xx_HAL_Driver/Src/stm32n6xx_hal_spi.c ****   __IO uint16_t *prxdr_16bits = (__IO uint16_t *)(&(hspi->Instance->RXDR));
 2632              		.loc 1 1069 57
 2633 001c FB68     		ldr	r3, [r7, #12]
 2634 001e 1B68     		ldr	r3, [r3]
 2635              		.loc 1 1069 18
 2636 0020 3033     		adds	r3, r3, #48
 2637 0022 BB61     		str	r3, [r7, #24]
1070:STM32Cube_FW_N6/Drivers/STM32N6xx_HAL_Driver/Src/stm32n6xx_hal_spi.c **** #endif /* __GNUC__ */
1071:STM32Cube_FW_N6/Drivers/STM32N6xx_HAL_Driver/Src/stm32n6xx_hal_spi.c **** 
1072:STM32Cube_FW_N6/Drivers/STM32N6xx_HAL_Driver/Src/stm32n6xx_hal_spi.c ****   /* Check Direction parameter */
1073:STM32Cube_FW_N6/Drivers/STM32N6xx_HAL_Driver/Src/stm32n6xx_hal_spi.c ****   assert_param(IS_SPI_DIRECTION_2LINES_OR_1LINE_2LINES_RXONLY(hspi->Init.Direction));
 2638              		.loc 1 1073 3
 2639 0024 FB68     		ldr	r3, [r7, #12]
 2640 0026 9B68     		ldr	r3, [r3, #8]
 2641 0028 002B     		cmp	r3, #0
 2642 002a 0ED0     		beq	.L121
 2643              		.loc 1 1073 3 is_stmt 0 discriminator 1
 2644 002c FB68     		ldr	r3, [r7, #12]
 2645 002e 9B68     		ldr	r3, [r3, #8]
 2646 0030 B3F5C02F 		cmp	r3, #393216
 2647 0034 09D0     		beq	.L121
 2648              		.loc 1 1073 3 discriminator 2
 2649 0036 FB68     		ldr	r3, [r7, #12]
 2650 0038 9B68     		ldr	r3, [r3, #8]
 2651 003a B3F5802F 		cmp	r3, #262144
 2652 003e 04D0     		beq	.L121
 2653              		.loc 1 1073 3 discriminator 3
 2654 0040 40F23141 		movw	r1, #1073
 2655 0044 8E48     		ldr	r0, .L159
 2656 0046 FFF7FEFF 		bl	assert_failed
 2657              	.L121:
1074:STM32Cube_FW_N6/Drivers/STM32N6xx_HAL_Driver/Src/stm32n6xx_hal_spi.c **** 
1075:STM32Cube_FW_N6/Drivers/STM32N6xx_HAL_Driver/Src/stm32n6xx_hal_spi.c ****   /* Init tickstart for timeout management*/
1076:STM32Cube_FW_N6/Drivers/STM32N6xx_HAL_Driver/Src/stm32n6xx_hal_spi.c ****   tickstart = HAL_GetTick();
 2658              		.loc 1 1076 15 is_stmt 1
 2659 004a FFF7FEFF 		bl	HAL_GetTick
 2660 004e 7861     		str	r0, [r7, #20]
1077:STM32Cube_FW_N6/Drivers/STM32N6xx_HAL_Driver/Src/stm32n6xx_hal_spi.c **** 
1078:STM32Cube_FW_N6/Drivers/STM32N6xx_HAL_Driver/Src/stm32n6xx_hal_spi.c ****   if (hspi->State != HAL_SPI_STATE_READY)
 2661              		.loc 1 1078 11
 2662 0050 FB68     		ldr	r3, [r7, #12]
 2663 0052 93F88930 		ldrb	r3, [r3, #137]
 2664 0056 DBB2     		uxtb	r3, r3
 2665              		.loc 1 1078 6
 2666 0058 012B     		cmp	r3, #1
 2667 005a 01D0     		beq	.L122
1079:STM32Cube_FW_N6/Drivers/STM32N6xx_HAL_Driver/Src/stm32n6xx_hal_spi.c ****   {
1080:STM32Cube_FW_N6/Drivers/STM32N6xx_HAL_Driver/Src/stm32n6xx_hal_spi.c ****     return HAL_BUSY;
 2668              		.loc 1 1080 12
 2669 005c 0223     		movs	r3, #2
 2670 005e A3E2     		b	.L123
 2671              	.L122:
1081:STM32Cube_FW_N6/Drivers/STM32N6xx_HAL_Driver/Src/stm32n6xx_hal_spi.c ****   }
1082:STM32Cube_FW_N6/Drivers/STM32N6xx_HAL_Driver/Src/stm32n6xx_hal_spi.c **** 
ARM GAS  /tmp/ccwTXtVb.s 			page 67


1083:STM32Cube_FW_N6/Drivers/STM32N6xx_HAL_Driver/Src/stm32n6xx_hal_spi.c ****   if ((pData == NULL) || (Size == 0UL))
 2672              		.loc 1 1083 6
 2673 0060 BB68     		ldr	r3, [r7, #8]
 2674 0062 002B     		cmp	r3, #0
 2675 0064 02D0     		beq	.L124
 2676              		.loc 1 1083 23 discriminator 1
 2677 0066 FB88     		ldrh	r3, [r7, #6]
 2678 0068 002B     		cmp	r3, #0
 2679 006a 01D1     		bne	.L125
 2680              	.L124:
1084:STM32Cube_FW_N6/Drivers/STM32N6xx_HAL_Driver/Src/stm32n6xx_hal_spi.c ****   {
1085:STM32Cube_FW_N6/Drivers/STM32N6xx_HAL_Driver/Src/stm32n6xx_hal_spi.c ****     return HAL_ERROR;
 2681              		.loc 1 1085 12
 2682 006c 0123     		movs	r3, #1
 2683 006e 9BE2     		b	.L123
 2684              	.L125:
1086:STM32Cube_FW_N6/Drivers/STM32N6xx_HAL_Driver/Src/stm32n6xx_hal_spi.c ****   }
1087:STM32Cube_FW_N6/Drivers/STM32N6xx_HAL_Driver/Src/stm32n6xx_hal_spi.c **** 
1088:STM32Cube_FW_N6/Drivers/STM32N6xx_HAL_Driver/Src/stm32n6xx_hal_spi.c ****   /* Lock the process */
1089:STM32Cube_FW_N6/Drivers/STM32N6xx_HAL_Driver/Src/stm32n6xx_hal_spi.c ****   __HAL_LOCK(hspi);
 2685              		.loc 1 1089 3
 2686 0070 FB68     		ldr	r3, [r7, #12]
 2687 0072 93F88830 		ldrb	r3, [r3, #136]	@ zero_extendqisi2
 2688 0076 012B     		cmp	r3, #1
 2689 0078 01D1     		bne	.L126
 2690              		.loc 1 1089 3 is_stmt 0 discriminator 1
 2691 007a 0223     		movs	r3, #2
 2692              		.loc 1 1089 3
 2693 007c 94E2     		b	.L123
 2694              	.L126:
 2695              		.loc 1 1089 3 discriminator 2
 2696 007e FB68     		ldr	r3, [r7, #12]
 2697 0080 0122     		movs	r2, #1
 2698 0082 83F88820 		strb	r2, [r3, #136]
1090:STM32Cube_FW_N6/Drivers/STM32N6xx_HAL_Driver/Src/stm32n6xx_hal_spi.c **** 
1091:STM32Cube_FW_N6/Drivers/STM32N6xx_HAL_Driver/Src/stm32n6xx_hal_spi.c ****   /* Set the transaction information */
1092:STM32Cube_FW_N6/Drivers/STM32N6xx_HAL_Driver/Src/stm32n6xx_hal_spi.c ****   hspi->State       = HAL_SPI_STATE_BUSY_RX;
 2699              		.loc 1 1092 21 is_stmt 1
 2700 0086 FB68     		ldr	r3, [r7, #12]
 2701 0088 0422     		movs	r2, #4
 2702 008a 83F88920 		strb	r2, [r3, #137]
1093:STM32Cube_FW_N6/Drivers/STM32N6xx_HAL_Driver/Src/stm32n6xx_hal_spi.c ****   hspi->ErrorCode   = HAL_SPI_ERROR_NONE;
 2703              		.loc 1 1093 21
 2704 008e FB68     		ldr	r3, [r7, #12]
 2705 0090 0022     		movs	r2, #0
 2706 0092 C3F88C20 		str	r2, [r3, #140]
1094:STM32Cube_FW_N6/Drivers/STM32N6xx_HAL_Driver/Src/stm32n6xx_hal_spi.c ****   hspi->pRxBuffPtr  = (uint8_t *)pData;
 2707              		.loc 1 1094 21
 2708 0096 FB68     		ldr	r3, [r7, #12]
 2709 0098 BA68     		ldr	r2, [r7, #8]
 2710 009a DA66     		str	r2, [r3, #108]
1095:STM32Cube_FW_N6/Drivers/STM32N6xx_HAL_Driver/Src/stm32n6xx_hal_spi.c ****   hspi->RxXferSize  = Size;
 2711              		.loc 1 1095 21
 2712 009c FB68     		ldr	r3, [r7, #12]
 2713 009e FA88     		ldrh	r2, [r7, #6]	@ movhi
 2714 00a0 A3F87020 		strh	r2, [r3, #112]	@ movhi
1096:STM32Cube_FW_N6/Drivers/STM32N6xx_HAL_Driver/Src/stm32n6xx_hal_spi.c ****   hspi->RxXferCount = Size;
ARM GAS  /tmp/ccwTXtVb.s 			page 68


 2715              		.loc 1 1096 21
 2716 00a4 FB68     		ldr	r3, [r7, #12]
 2717 00a6 FA88     		ldrh	r2, [r7, #6]	@ movhi
 2718 00a8 A3F87220 		strh	r2, [r3, #114]	@ movhi
1097:STM32Cube_FW_N6/Drivers/STM32N6xx_HAL_Driver/Src/stm32n6xx_hal_spi.c **** 
1098:STM32Cube_FW_N6/Drivers/STM32N6xx_HAL_Driver/Src/stm32n6xx_hal_spi.c ****   /*Init field not used in handle to zero */
1099:STM32Cube_FW_N6/Drivers/STM32N6xx_HAL_Driver/Src/stm32n6xx_hal_spi.c ****   hspi->pTxBuffPtr  = NULL;
 2719              		.loc 1 1099 21
 2720 00ac FB68     		ldr	r3, [r7, #12]
 2721 00ae 0022     		movs	r2, #0
 2722 00b0 5A66     		str	r2, [r3, #100]
1100:STM32Cube_FW_N6/Drivers/STM32N6xx_HAL_Driver/Src/stm32n6xx_hal_spi.c ****   hspi->TxXferSize  = (uint16_t) 0UL;
 2723              		.loc 1 1100 21
 2724 00b2 FB68     		ldr	r3, [r7, #12]
 2725 00b4 0022     		movs	r2, #0
 2726 00b6 A3F86820 		strh	r2, [r3, #104]	@ movhi
1101:STM32Cube_FW_N6/Drivers/STM32N6xx_HAL_Driver/Src/stm32n6xx_hal_spi.c ****   hspi->TxXferCount = (uint16_t) 0UL;
 2727              		.loc 1 1101 21
 2728 00ba FB68     		ldr	r3, [r7, #12]
 2729 00bc 0022     		movs	r2, #0
 2730 00be A3F86A20 		strh	r2, [r3, #106]	@ movhi
1102:STM32Cube_FW_N6/Drivers/STM32N6xx_HAL_Driver/Src/stm32n6xx_hal_spi.c ****   hspi->RxISR       = NULL;
 2731              		.loc 1 1102 21
 2732 00c2 FB68     		ldr	r3, [r7, #12]
 2733 00c4 0022     		movs	r2, #0
 2734 00c6 9A67     		str	r2, [r3, #120]
1103:STM32Cube_FW_N6/Drivers/STM32N6xx_HAL_Driver/Src/stm32n6xx_hal_spi.c ****   hspi->TxISR       = NULL;
 2735              		.loc 1 1103 21
 2736 00c8 FB68     		ldr	r3, [r7, #12]
 2737 00ca 0022     		movs	r2, #0
 2738 00cc DA67     		str	r2, [r3, #124]
1104:STM32Cube_FW_N6/Drivers/STM32N6xx_HAL_Driver/Src/stm32n6xx_hal_spi.c **** 
1105:STM32Cube_FW_N6/Drivers/STM32N6xx_HAL_Driver/Src/stm32n6xx_hal_spi.c ****   /* Configure communication direction: 1Line */
1106:STM32Cube_FW_N6/Drivers/STM32N6xx_HAL_Driver/Src/stm32n6xx_hal_spi.c ****   if (hspi->Init.Direction == SPI_DIRECTION_1LINE)
 2739              		.loc 1 1106 17
 2740 00ce FB68     		ldr	r3, [r7, #12]
 2741 00d0 9B68     		ldr	r3, [r3, #8]
 2742              		.loc 1 1106 6
 2743 00d2 B3F5C02F 		cmp	r3, #393216
 2744 00d6 08D1     		bne	.L127
1107:STM32Cube_FW_N6/Drivers/STM32N6xx_HAL_Driver/Src/stm32n6xx_hal_spi.c ****   {
1108:STM32Cube_FW_N6/Drivers/STM32N6xx_HAL_Driver/Src/stm32n6xx_hal_spi.c ****     SPI_1LINE_RX(hspi);
 2745              		.loc 1 1108 5
 2746 00d8 FB68     		ldr	r3, [r7, #12]
 2747 00da 1B68     		ldr	r3, [r3]
 2748 00dc 1A68     		ldr	r2, [r3]
 2749 00de FB68     		ldr	r3, [r7, #12]
 2750 00e0 1B68     		ldr	r3, [r3]
 2751 00e2 22F40062 		bic	r2, r2, #2048
 2752 00e6 1A60     		str	r2, [r3]
 2753 00e8 09E0     		b	.L128
 2754              	.L127:
1109:STM32Cube_FW_N6/Drivers/STM32N6xx_HAL_Driver/Src/stm32n6xx_hal_spi.c ****   }
1110:STM32Cube_FW_N6/Drivers/STM32N6xx_HAL_Driver/Src/stm32n6xx_hal_spi.c ****   else
1111:STM32Cube_FW_N6/Drivers/STM32N6xx_HAL_Driver/Src/stm32n6xx_hal_spi.c ****   {
1112:STM32Cube_FW_N6/Drivers/STM32N6xx_HAL_Driver/Src/stm32n6xx_hal_spi.c ****     SPI_2LINES_RX(hspi);
 2755              		.loc 1 1112 5
ARM GAS  /tmp/ccwTXtVb.s 			page 69


 2756 00ea FB68     		ldr	r3, [r7, #12]
 2757 00ec 1B68     		ldr	r3, [r3]
 2758 00ee DB68     		ldr	r3, [r3, #12]
 2759 00f0 23F4C022 		bic	r2, r3, #393216
 2760 00f4 FB68     		ldr	r3, [r7, #12]
 2761 00f6 1B68     		ldr	r3, [r3]
 2762 00f8 42F48022 		orr	r2, r2, #262144
 2763 00fc DA60     		str	r2, [r3, #12]
 2764              	.L128:
1113:STM32Cube_FW_N6/Drivers/STM32N6xx_HAL_Driver/Src/stm32n6xx_hal_spi.c ****   }
1114:STM32Cube_FW_N6/Drivers/STM32N6xx_HAL_Driver/Src/stm32n6xx_hal_spi.c **** 
1115:STM32Cube_FW_N6/Drivers/STM32N6xx_HAL_Driver/Src/stm32n6xx_hal_spi.c ****   /* Set the number of data at current transfer */
1116:STM32Cube_FW_N6/Drivers/STM32N6xx_HAL_Driver/Src/stm32n6xx_hal_spi.c ****   MODIFY_REG(hspi->Instance->CR2, SPI_CR2_TSIZE, Size);
 2765              		.loc 1 1116 3
 2766 00fe FB68     		ldr	r3, [r7, #12]
 2767 0100 1B68     		ldr	r3, [r3]
 2768 0102 5B68     		ldr	r3, [r3, #4]
 2769 0104 1B0C     		lsrs	r3, r3, #16
 2770 0106 1B04     		lsls	r3, r3, #16
 2771 0108 F988     		ldrh	r1, [r7, #6]
 2772 010a FA68     		ldr	r2, [r7, #12]
 2773 010c 1268     		ldr	r2, [r2]
 2774 010e 0B43     		orrs	r3, r3, r1
 2775 0110 5360     		str	r3, [r2, #4]
1117:STM32Cube_FW_N6/Drivers/STM32N6xx_HAL_Driver/Src/stm32n6xx_hal_spi.c **** 
1118:STM32Cube_FW_N6/Drivers/STM32N6xx_HAL_Driver/Src/stm32n6xx_hal_spi.c ****   /* Enable SPI peripheral */
1119:STM32Cube_FW_N6/Drivers/STM32N6xx_HAL_Driver/Src/stm32n6xx_hal_spi.c ****   __HAL_SPI_ENABLE(hspi);
 2776              		.loc 1 1119 3
 2777 0112 FB68     		ldr	r3, [r7, #12]
 2778 0114 1B68     		ldr	r3, [r3]
 2779 0116 1A68     		ldr	r2, [r3]
 2780 0118 FB68     		ldr	r3, [r7, #12]
 2781 011a 1B68     		ldr	r3, [r3]
 2782 011c 42F00102 		orr	r2, r2, #1
 2783 0120 1A60     		str	r2, [r3]
1120:STM32Cube_FW_N6/Drivers/STM32N6xx_HAL_Driver/Src/stm32n6xx_hal_spi.c **** 
1121:STM32Cube_FW_N6/Drivers/STM32N6xx_HAL_Driver/Src/stm32n6xx_hal_spi.c ****   if (hspi->Init.Mode == SPI_MODE_MASTER)
 2784              		.loc 1 1121 17
 2785 0122 FB68     		ldr	r3, [r7, #12]
 2786 0124 5B68     		ldr	r3, [r3, #4]
 2787              		.loc 1 1121 6
 2788 0126 B3F5800F 		cmp	r3, #4194304
 2789 012a 07D1     		bne	.L129
1122:STM32Cube_FW_N6/Drivers/STM32N6xx_HAL_Driver/Src/stm32n6xx_hal_spi.c ****   {
1123:STM32Cube_FW_N6/Drivers/STM32N6xx_HAL_Driver/Src/stm32n6xx_hal_spi.c ****     /* Master transfer start */
1124:STM32Cube_FW_N6/Drivers/STM32N6xx_HAL_Driver/Src/stm32n6xx_hal_spi.c ****     SET_BIT(hspi->Instance->CR1, SPI_CR1_CSTART);
 2790              		.loc 1 1124 5
 2791 012c FB68     		ldr	r3, [r7, #12]
 2792 012e 1B68     		ldr	r3, [r3]
 2793 0130 1A68     		ldr	r2, [r3]
 2794 0132 FB68     		ldr	r3, [r7, #12]
 2795 0134 1B68     		ldr	r3, [r3]
 2796 0136 42F40072 		orr	r2, r2, #512
 2797 013a 1A60     		str	r2, [r3]
 2798              	.L129:
1125:STM32Cube_FW_N6/Drivers/STM32N6xx_HAL_Driver/Src/stm32n6xx_hal_spi.c ****   }
1126:STM32Cube_FW_N6/Drivers/STM32N6xx_HAL_Driver/Src/stm32n6xx_hal_spi.c **** 
ARM GAS  /tmp/ccwTXtVb.s 			page 70


1127:STM32Cube_FW_N6/Drivers/STM32N6xx_HAL_Driver/Src/stm32n6xx_hal_spi.c ****   /* Receive data in 32 Bit mode */
1128:STM32Cube_FW_N6/Drivers/STM32N6xx_HAL_Driver/Src/stm32n6xx_hal_spi.c ****   if ((hspi->Init.DataSize > SPI_DATASIZE_16BIT) && (IS_SPI_FULL_INSTANCE(hspi->Instance)))
 2799              		.loc 1 1128 18
 2800 013c FB68     		ldr	r3, [r7, #12]
 2801 013e DB68     		ldr	r3, [r3, #12]
 2802              		.loc 1 1128 6
 2803 0140 0F2B     		cmp	r3, #15
 2804 0142 40F29780 		bls	.L130
 2805              		.loc 1 1128 54 discriminator 1
 2806 0146 FB68     		ldr	r3, [r7, #12]
 2807 0148 1B68     		ldr	r3, [r3]
 2808              		.loc 1 1128 50 discriminator 1
 2809 014a 4E4A     		ldr	r2, .L159+4
 2810 014c 9342     		cmp	r3, r2
 2811 014e 00F08A80 		beq	.L132
 2812              		.loc 1 1128 54 discriminator 2
 2813 0152 FB68     		ldr	r3, [r7, #12]
 2814 0154 1B68     		ldr	r3, [r3]
 2815 0156 4C4A     		ldr	r2, .L159+8
 2816 0158 9342     		cmp	r3, r2
 2817 015a 00F08480 		beq	.L132
 2818              		.loc 1 1128 54 is_stmt 0 discriminator 3
 2819 015e FB68     		ldr	r3, [r7, #12]
 2820 0160 1B68     		ldr	r3, [r3]
 2821 0162 4A4A     		ldr	r2, .L159+12
 2822 0164 9342     		cmp	r3, r2
 2823 0166 7ED0     		beq	.L132
 2824              		.loc 1 1128 54 discriminator 4
 2825 0168 FB68     		ldr	r3, [r7, #12]
 2826 016a 1B68     		ldr	r3, [r3]
 2827 016c 484A     		ldr	r2, .L159+16
 2828 016e 9342     		cmp	r3, r2
 2829 0170 79D0     		beq	.L132
 2830              		.loc 1 1128 54 discriminator 5
 2831 0172 FB68     		ldr	r3, [r7, #12]
 2832 0174 1B68     		ldr	r3, [r3]
 2833 0176 474A     		ldr	r2, .L159+20
 2834 0178 9342     		cmp	r3, r2
 2835 017a 74D0     		beq	.L132
 2836              		.loc 1 1128 54 discriminator 6
 2837 017c FB68     		ldr	r3, [r7, #12]
 2838 017e 1B68     		ldr	r3, [r3]
 2839 0180 454A     		ldr	r2, .L159+24
 2840 0182 9342     		cmp	r3, r2
 2841 0184 6FD0     		beq	.L132
 2842              		.loc 1 1128 54 discriminator 7
 2843 0186 FB68     		ldr	r3, [r7, #12]
 2844 0188 1B68     		ldr	r3, [r3]
 2845 018a 444A     		ldr	r2, .L159+28
 2846 018c 9342     		cmp	r3, r2
 2847 018e 6AD0     		beq	.L132
 2848              		.loc 1 1128 54 discriminator 8
 2849 0190 FB68     		ldr	r3, [r7, #12]
 2850 0192 1B68     		ldr	r3, [r3]
 2851 0194 424A     		ldr	r2, .L159+32
 2852 0196 9342     		cmp	r3, r2
 2853 0198 6CD1     		bne	.L130
ARM GAS  /tmp/ccwTXtVb.s 			page 71


1129:STM32Cube_FW_N6/Drivers/STM32N6xx_HAL_Driver/Src/stm32n6xx_hal_spi.c ****   {
1130:STM32Cube_FW_N6/Drivers/STM32N6xx_HAL_Driver/Src/stm32n6xx_hal_spi.c ****     /* Transfer loop */
1131:STM32Cube_FW_N6/Drivers/STM32N6xx_HAL_Driver/Src/stm32n6xx_hal_spi.c ****     while (hspi->RxXferCount > 0UL)
 2854              		.loc 1 1131 11 is_stmt 1
 2855 019a 64E0     		b	.L132
 2856              	.L138:
1132:STM32Cube_FW_N6/Drivers/STM32N6xx_HAL_Driver/Src/stm32n6xx_hal_spi.c ****     {
1133:STM32Cube_FW_N6/Drivers/STM32N6xx_HAL_Driver/Src/stm32n6xx_hal_spi.c ****       /* Evaluate state of SR register */
1134:STM32Cube_FW_N6/Drivers/STM32N6xx_HAL_Driver/Src/stm32n6xx_hal_spi.c ****       temp_sr_reg = hspi->Instance->SR;
 2857              		.loc 1 1134 25
 2858 019c FB68     		ldr	r3, [r7, #12]
 2859 019e 1B68     		ldr	r3, [r3]
 2860              		.loc 1 1134 19
 2861 01a0 5B69     		ldr	r3, [r3, #20]
 2862 01a2 3B61     		str	r3, [r7, #16]
1135:STM32Cube_FW_N6/Drivers/STM32N6xx_HAL_Driver/Src/stm32n6xx_hal_spi.c **** 
1136:STM32Cube_FW_N6/Drivers/STM32N6xx_HAL_Driver/Src/stm32n6xx_hal_spi.c ****       /* Check the RXP flag */
1137:STM32Cube_FW_N6/Drivers/STM32N6xx_HAL_Driver/Src/stm32n6xx_hal_spi.c ****       if (__HAL_SPI_GET_FLAG(hspi, SPI_FLAG_RXP))
 2863              		.loc 1 1137 11
 2864 01a4 FB68     		ldr	r3, [r7, #12]
 2865 01a6 1B68     		ldr	r3, [r3]
 2866 01a8 5B69     		ldr	r3, [r3, #20]
 2867 01aa 03F00103 		and	r3, r3, #1
 2868              		.loc 1 1137 10
 2869 01ae 012B     		cmp	r3, #1
 2870 01b0 14D1     		bne	.L133
1138:STM32Cube_FW_N6/Drivers/STM32N6xx_HAL_Driver/Src/stm32n6xx_hal_spi.c ****       {
1139:STM32Cube_FW_N6/Drivers/STM32N6xx_HAL_Driver/Src/stm32n6xx_hal_spi.c ****         *((uint32_t *)hspi->pRxBuffPtr) = *((__IO uint32_t *)&hspi->Instance->RXDR);
 2871              		.loc 1 1139 67
 2872 01b2 FB68     		ldr	r3, [r7, #12]
 2873 01b4 1A68     		ldr	r2, [r3]
 2874              		.loc 1 1139 27
 2875 01b6 FB68     		ldr	r3, [r7, #12]
 2876 01b8 DB6E     		ldr	r3, [r3, #108]
 2877              		.loc 1 1139 43
 2878 01ba 126B     		ldr	r2, [r2, #48]
 2879              		.loc 1 1139 41
 2880 01bc 1A60     		str	r2, [r3]
1140:STM32Cube_FW_N6/Drivers/STM32N6xx_HAL_Driver/Src/stm32n6xx_hal_spi.c ****         hspi->pRxBuffPtr += sizeof(uint32_t);
 2881              		.loc 1 1140 13
 2882 01be FB68     		ldr	r3, [r7, #12]
 2883 01c0 DB6E     		ldr	r3, [r3, #108]
 2884              		.loc 1 1140 26
 2885 01c2 1A1D     		adds	r2, r3, #4
 2886 01c4 FB68     		ldr	r3, [r7, #12]
 2887 01c6 DA66     		str	r2, [r3, #108]
1141:STM32Cube_FW_N6/Drivers/STM32N6xx_HAL_Driver/Src/stm32n6xx_hal_spi.c ****         hspi->RxXferCount--;
 2888              		.loc 1 1141 13
 2889 01c8 FB68     		ldr	r3, [r7, #12]
 2890 01ca B3F87230 		ldrh	r3, [r3, #114]	@ movhi
 2891 01ce 9BB2     		uxth	r3, r3
 2892              		.loc 1 1141 26
 2893 01d0 013B     		subs	r3, r3, #1
 2894 01d2 9AB2     		uxth	r2, r3
 2895 01d4 FB68     		ldr	r3, [r7, #12]
 2896 01d6 A3F87220 		strh	r2, [r3, #114]	@ movhi
 2897 01da 44E0     		b	.L132
ARM GAS  /tmp/ccwTXtVb.s 			page 72


 2898              	.L133:
1142:STM32Cube_FW_N6/Drivers/STM32N6xx_HAL_Driver/Src/stm32n6xx_hal_spi.c ****       }
1143:STM32Cube_FW_N6/Drivers/STM32N6xx_HAL_Driver/Src/stm32n6xx_hal_spi.c ****       /* Check RXWNE flag if RXP cannot be reached */
1144:STM32Cube_FW_N6/Drivers/STM32N6xx_HAL_Driver/Src/stm32n6xx_hal_spi.c ****       else if ((hspi->RxXferCount < init_max_data_in_fifo) && ((temp_sr_reg & SPI_SR_RXWNE_Msk) != 
 2899              		.loc 1 1144 21
 2900 01dc FB68     		ldr	r3, [r7, #12]
 2901 01de B3F87230 		ldrh	r3, [r3, #114]	@ movhi
 2902 01e2 9BB2     		uxth	r3, r3
 2903              		.loc 1 1144 15
 2904 01e4 FA8B     		ldrh	r2, [r7, #30]
 2905 01e6 9A42     		cmp	r2, r3
 2906 01e8 19D9     		bls	.L135
 2907              		.loc 1 1144 77 discriminator 1
 2908 01ea 3B69     		ldr	r3, [r7, #16]
 2909 01ec 03F40043 		and	r3, r3, #32768
 2910              		.loc 1 1144 60 discriminator 1
 2911 01f0 002B     		cmp	r3, #0
 2912 01f2 14D0     		beq	.L135
1145:STM32Cube_FW_N6/Drivers/STM32N6xx_HAL_Driver/Src/stm32n6xx_hal_spi.c ****       {
1146:STM32Cube_FW_N6/Drivers/STM32N6xx_HAL_Driver/Src/stm32n6xx_hal_spi.c ****         *((uint32_t *)hspi->pRxBuffPtr) = *((__IO uint32_t *)&hspi->Instance->RXDR);
 2913              		.loc 1 1146 67
 2914 01f4 FB68     		ldr	r3, [r7, #12]
 2915 01f6 1A68     		ldr	r2, [r3]
 2916              		.loc 1 1146 27
 2917 01f8 FB68     		ldr	r3, [r7, #12]
 2918 01fa DB6E     		ldr	r3, [r3, #108]
 2919              		.loc 1 1146 43
 2920 01fc 126B     		ldr	r2, [r2, #48]
 2921              		.loc 1 1146 41
 2922 01fe 1A60     		str	r2, [r3]
1147:STM32Cube_FW_N6/Drivers/STM32N6xx_HAL_Driver/Src/stm32n6xx_hal_spi.c ****         hspi->pRxBuffPtr += sizeof(uint32_t);
 2923              		.loc 1 1147 13
 2924 0200 FB68     		ldr	r3, [r7, #12]
 2925 0202 DB6E     		ldr	r3, [r3, #108]
 2926              		.loc 1 1147 26
 2927 0204 1A1D     		adds	r2, r3, #4
 2928 0206 FB68     		ldr	r3, [r7, #12]
 2929 0208 DA66     		str	r2, [r3, #108]
1148:STM32Cube_FW_N6/Drivers/STM32N6xx_HAL_Driver/Src/stm32n6xx_hal_spi.c ****         hspi->RxXferCount--;
 2930              		.loc 1 1148 13
 2931 020a FB68     		ldr	r3, [r7, #12]
 2932 020c B3F87230 		ldrh	r3, [r3, #114]	@ movhi
 2933 0210 9BB2     		uxth	r3, r3
 2934              		.loc 1 1148 26
 2935 0212 013B     		subs	r3, r3, #1
 2936 0214 9AB2     		uxth	r2, r3
 2937 0216 FB68     		ldr	r3, [r7, #12]
 2938 0218 A3F87220 		strh	r2, [r3, #114]	@ movhi
 2939 021c 23E0     		b	.L132
 2940              	.L135:
1149:STM32Cube_FW_N6/Drivers/STM32N6xx_HAL_Driver/Src/stm32n6xx_hal_spi.c ****       }
1150:STM32Cube_FW_N6/Drivers/STM32N6xx_HAL_Driver/Src/stm32n6xx_hal_spi.c ****       else
1151:STM32Cube_FW_N6/Drivers/STM32N6xx_HAL_Driver/Src/stm32n6xx_hal_spi.c ****       {
1152:STM32Cube_FW_N6/Drivers/STM32N6xx_HAL_Driver/Src/stm32n6xx_hal_spi.c ****         /* Timeout management */
1153:STM32Cube_FW_N6/Drivers/STM32N6xx_HAL_Driver/Src/stm32n6xx_hal_spi.c ****         if ((((HAL_GetTick() - tickstart) >=  Timeout) && (Timeout != HAL_MAX_DELAY)) || (Timeout =
 2941              		.loc 1 1153 16
 2942 021e FFF7FEFF 		bl	HAL_GetTick
ARM GAS  /tmp/ccwTXtVb.s 			page 73


 2943 0222 0246     		mov	r2, r0
 2944              		.loc 1 1153 30 discriminator 1
 2945 0224 7B69     		ldr	r3, [r7, #20]
 2946 0226 D31A     		subs	r3, r2, r3
 2947              		.loc 1 1153 12 discriminator 1
 2948 0228 3A68     		ldr	r2, [r7]
 2949 022a 9A42     		cmp	r2, r3
 2950 022c 03D8     		bhi	.L136
 2951              		.loc 1 1153 56 discriminator 1
 2952 022e 3B68     		ldr	r3, [r7]
 2953 0230 B3F1FF3F 		cmp	r3, #-1
 2954 0234 02D1     		bne	.L137
 2955              	.L136:
 2956              		.loc 1 1153 87 discriminator 3
 2957 0236 3B68     		ldr	r3, [r7]
 2958 0238 002B     		cmp	r3, #0
 2959 023a 14D1     		bne	.L132
 2960              	.L137:
1154:STM32Cube_FW_N6/Drivers/STM32N6xx_HAL_Driver/Src/stm32n6xx_hal_spi.c ****         {
1155:STM32Cube_FW_N6/Drivers/STM32N6xx_HAL_Driver/Src/stm32n6xx_hal_spi.c ****           /* Call standard close procedure with error check */
1156:STM32Cube_FW_N6/Drivers/STM32N6xx_HAL_Driver/Src/stm32n6xx_hal_spi.c ****           SPI_CloseTransfer(hspi);
 2961              		.loc 1 1156 11
 2962 023c F868     		ldr	r0, [r7, #12]
 2963 023e FFF7FEFF 		bl	SPI_CloseTransfer
1157:STM32Cube_FW_N6/Drivers/STM32N6xx_HAL_Driver/Src/stm32n6xx_hal_spi.c **** 
1158:STM32Cube_FW_N6/Drivers/STM32N6xx_HAL_Driver/Src/stm32n6xx_hal_spi.c ****           SET_BIT(hspi->ErrorCode, HAL_SPI_ERROR_TIMEOUT);
 2964              		.loc 1 1158 11
 2965 0242 FB68     		ldr	r3, [r7, #12]
 2966 0244 D3F88C30 		ldr	r3, [r3, #140]
 2967 0248 43F48072 		orr	r2, r3, #256
 2968 024c FB68     		ldr	r3, [r7, #12]
 2969 024e C3F88C20 		str	r2, [r3, #140]
1159:STM32Cube_FW_N6/Drivers/STM32N6xx_HAL_Driver/Src/stm32n6xx_hal_spi.c ****           hspi->State = HAL_SPI_STATE_READY;
 2970              		.loc 1 1159 23
 2971 0252 FB68     		ldr	r3, [r7, #12]
 2972 0254 0122     		movs	r2, #1
 2973 0256 83F88920 		strb	r2, [r3, #137]
1160:STM32Cube_FW_N6/Drivers/STM32N6xx_HAL_Driver/Src/stm32n6xx_hal_spi.c **** 
1161:STM32Cube_FW_N6/Drivers/STM32N6xx_HAL_Driver/Src/stm32n6xx_hal_spi.c ****           /* Unlock the process */
1162:STM32Cube_FW_N6/Drivers/STM32N6xx_HAL_Driver/Src/stm32n6xx_hal_spi.c ****           __HAL_UNLOCK(hspi);
 2974              		.loc 1 1162 11
 2975 025a FB68     		ldr	r3, [r7, #12]
 2976 025c 0022     		movs	r2, #0
 2977 025e 83F88820 		strb	r2, [r3, #136]
1163:STM32Cube_FW_N6/Drivers/STM32N6xx_HAL_Driver/Src/stm32n6xx_hal_spi.c **** 
1164:STM32Cube_FW_N6/Drivers/STM32N6xx_HAL_Driver/Src/stm32n6xx_hal_spi.c ****           return HAL_TIMEOUT;
 2978              		.loc 1 1164 18
 2979 0262 0323     		movs	r3, #3
 2980 0264 A0E1     		b	.L123
 2981              	.L132:
1131:STM32Cube_FW_N6/Drivers/STM32N6xx_HAL_Driver/Src/stm32n6xx_hal_spi.c ****     {
 2982              		.loc 1 1131 16
 2983 0266 FB68     		ldr	r3, [r7, #12]
 2984 0268 B3F87230 		ldrh	r3, [r3, #114]	@ movhi
 2985 026c 9BB2     		uxth	r3, r3
1131:STM32Cube_FW_N6/Drivers/STM32N6xx_HAL_Driver/Src/stm32n6xx_hal_spi.c ****     {
 2986              		.loc 1 1131 30
ARM GAS  /tmp/ccwTXtVb.s 			page 74


 2987 026e 002B     		cmp	r3, #0
 2988 0270 94D1     		bne	.L138
1128:STM32Cube_FW_N6/Drivers/STM32N6xx_HAL_Driver/Src/stm32n6xx_hal_spi.c ****   {
 2989              		.loc 1 1128 6
 2990 0272 6EE1     		b	.L139
 2991              	.L130:
1165:STM32Cube_FW_N6/Drivers/STM32N6xx_HAL_Driver/Src/stm32n6xx_hal_spi.c ****         }
1166:STM32Cube_FW_N6/Drivers/STM32N6xx_HAL_Driver/Src/stm32n6xx_hal_spi.c ****       }
1167:STM32Cube_FW_N6/Drivers/STM32N6xx_HAL_Driver/Src/stm32n6xx_hal_spi.c ****     }
1168:STM32Cube_FW_N6/Drivers/STM32N6xx_HAL_Driver/Src/stm32n6xx_hal_spi.c ****   }
1169:STM32Cube_FW_N6/Drivers/STM32N6xx_HAL_Driver/Src/stm32n6xx_hal_spi.c ****   /* Receive data in 16 Bit mode */
1170:STM32Cube_FW_N6/Drivers/STM32N6xx_HAL_Driver/Src/stm32n6xx_hal_spi.c ****   else if (hspi->Init.DataSize > SPI_DATASIZE_8BIT)
 2992              		.loc 1 1170 22
 2993 0274 FB68     		ldr	r3, [r7, #12]
 2994 0276 DB68     		ldr	r3, [r3, #12]
 2995              		.loc 1 1170 11
 2996 0278 072B     		cmp	r3, #7
 2997 027a 40F26381 		bls	.L149
1171:STM32Cube_FW_N6/Drivers/STM32N6xx_HAL_Driver/Src/stm32n6xx_hal_spi.c ****   {
1172:STM32Cube_FW_N6/Drivers/STM32N6xx_HAL_Driver/Src/stm32n6xx_hal_spi.c ****     /* Transfer loop */
1173:STM32Cube_FW_N6/Drivers/STM32N6xx_HAL_Driver/Src/stm32n6xx_hal_spi.c ****     while (hspi->RxXferCount > 0UL)
 2998              		.loc 1 1173 11
 2999 027e A1E0     		b	.L141
 3000              	.L160:
 3001              		.align	2
 3002              	.L159:
 3003 0280 00000000 		.word	.LC0
 3004 0284 00300052 		.word	1375744000
 3005 0288 00300042 		.word	1107308544
 3006 028c 00380050 		.word	1342191616
 3007 0290 00380040 		.word	1073756160
 3008 0294 003C0050 		.word	1342192640
 3009 0298 003C0040 		.word	1073757184
 3010 029c 00140056 		.word	1442845696
 3011 02a0 00140046 		.word	1174410240
 3012              	.L148:
1174:STM32Cube_FW_N6/Drivers/STM32N6xx_HAL_Driver/Src/stm32n6xx_hal_spi.c ****     {
1175:STM32Cube_FW_N6/Drivers/STM32N6xx_HAL_Driver/Src/stm32n6xx_hal_spi.c ****       /* Evaluate state of SR register */
1176:STM32Cube_FW_N6/Drivers/STM32N6xx_HAL_Driver/Src/stm32n6xx_hal_spi.c ****       temp_sr_reg = hspi->Instance->SR;
 3013              		.loc 1 1176 25
 3014 02a4 FB68     		ldr	r3, [r7, #12]
 3015 02a6 1B68     		ldr	r3, [r3]
 3016              		.loc 1 1176 19
 3017 02a8 5B69     		ldr	r3, [r3, #20]
 3018 02aa 3B61     		str	r3, [r7, #16]
1177:STM32Cube_FW_N6/Drivers/STM32N6xx_HAL_Driver/Src/stm32n6xx_hal_spi.c **** 
1178:STM32Cube_FW_N6/Drivers/STM32N6xx_HAL_Driver/Src/stm32n6xx_hal_spi.c ****       /* Check the RXP flag */
1179:STM32Cube_FW_N6/Drivers/STM32N6xx_HAL_Driver/Src/stm32n6xx_hal_spi.c ****       if (__HAL_SPI_GET_FLAG(hspi, SPI_FLAG_RXP))
 3019              		.loc 1 1179 11
 3020 02ac FB68     		ldr	r3, [r7, #12]
 3021 02ae 1B68     		ldr	r3, [r3]
 3022 02b0 5B69     		ldr	r3, [r3, #20]
 3023 02b2 03F00103 		and	r3, r3, #1
 3024              		.loc 1 1179 10
 3025 02b6 012B     		cmp	r3, #1
 3026 02b8 14D1     		bne	.L142
1180:STM32Cube_FW_N6/Drivers/STM32N6xx_HAL_Driver/Src/stm32n6xx_hal_spi.c ****       {
ARM GAS  /tmp/ccwTXtVb.s 			page 75


1181:STM32Cube_FW_N6/Drivers/STM32N6xx_HAL_Driver/Src/stm32n6xx_hal_spi.c **** #if defined (__GNUC__)
1182:STM32Cube_FW_N6/Drivers/STM32N6xx_HAL_Driver/Src/stm32n6xx_hal_spi.c ****         *((uint16_t *)hspi->pRxBuffPtr) = *prxdr_16bits;
 3027              		.loc 1 1182 27
 3028 02ba FB68     		ldr	r3, [r7, #12]
 3029 02bc DB6E     		ldr	r3, [r3, #108]
 3030              		.loc 1 1182 43
 3031 02be BA69     		ldr	r2, [r7, #24]
 3032 02c0 1288     		ldrh	r2, [r2]	@ movhi
 3033 02c2 92B2     		uxth	r2, r2
 3034              		.loc 1 1182 41
 3035 02c4 1A80     		strh	r2, [r3]	@ movhi
1183:STM32Cube_FW_N6/Drivers/STM32N6xx_HAL_Driver/Src/stm32n6xx_hal_spi.c **** #else
1184:STM32Cube_FW_N6/Drivers/STM32N6xx_HAL_Driver/Src/stm32n6xx_hal_spi.c ****         *((uint16_t *)hspi->pRxBuffPtr) = *((__IO uint16_t *)&hspi->Instance->RXDR);
1185:STM32Cube_FW_N6/Drivers/STM32N6xx_HAL_Driver/Src/stm32n6xx_hal_spi.c **** #endif /* __GNUC__ */
1186:STM32Cube_FW_N6/Drivers/STM32N6xx_HAL_Driver/Src/stm32n6xx_hal_spi.c ****         hspi->pRxBuffPtr += sizeof(uint16_t);
 3036              		.loc 1 1186 13
 3037 02c6 FB68     		ldr	r3, [r7, #12]
 3038 02c8 DB6E     		ldr	r3, [r3, #108]
 3039              		.loc 1 1186 26
 3040 02ca 9A1C     		adds	r2, r3, #2
 3041 02cc FB68     		ldr	r3, [r7, #12]
 3042 02ce DA66     		str	r2, [r3, #108]
1187:STM32Cube_FW_N6/Drivers/STM32N6xx_HAL_Driver/Src/stm32n6xx_hal_spi.c ****         hspi->RxXferCount--;
 3043              		.loc 1 1187 13
 3044 02d0 FB68     		ldr	r3, [r7, #12]
 3045 02d2 B3F87230 		ldrh	r3, [r3, #114]	@ movhi
 3046 02d6 9BB2     		uxth	r3, r3
 3047              		.loc 1 1187 26
 3048 02d8 013B     		subs	r3, r3, #1
 3049 02da 9AB2     		uxth	r2, r3
 3050 02dc FB68     		ldr	r3, [r7, #12]
 3051 02de A3F87220 		strh	r2, [r3, #114]	@ movhi
 3052 02e2 6FE0     		b	.L141
 3053              	.L142:
1188:STM32Cube_FW_N6/Drivers/STM32N6xx_HAL_Driver/Src/stm32n6xx_hal_spi.c ****       }
1189:STM32Cube_FW_N6/Drivers/STM32N6xx_HAL_Driver/Src/stm32n6xx_hal_spi.c ****       /* Check RXWNE flag if RXP cannot be reached */
1190:STM32Cube_FW_N6/Drivers/STM32N6xx_HAL_Driver/Src/stm32n6xx_hal_spi.c ****       else if ((hspi->RxXferCount < init_max_data_in_fifo) && ((temp_sr_reg & SPI_SR_RXWNE_Msk) != 
 3054              		.loc 1 1190 21
 3055 02e4 FB68     		ldr	r3, [r7, #12]
 3056 02e6 B3F87230 		ldrh	r3, [r3, #114]	@ movhi
 3057 02ea 9BB2     		uxth	r3, r3
 3058              		.loc 1 1190 15
 3059 02ec FA8B     		ldrh	r2, [r7, #30]
 3060 02ee 9A42     		cmp	r2, r3
 3061 02f0 24D9     		bls	.L144
 3062              		.loc 1 1190 77 discriminator 1
 3063 02f2 3B69     		ldr	r3, [r7, #16]
 3064 02f4 03F40043 		and	r3, r3, #32768
 3065              		.loc 1 1190 60 discriminator 1
 3066 02f8 002B     		cmp	r3, #0
 3067 02fa 1FD0     		beq	.L144
1191:STM32Cube_FW_N6/Drivers/STM32N6xx_HAL_Driver/Src/stm32n6xx_hal_spi.c ****       {
1192:STM32Cube_FW_N6/Drivers/STM32N6xx_HAL_Driver/Src/stm32n6xx_hal_spi.c **** #if defined (__GNUC__)
1193:STM32Cube_FW_N6/Drivers/STM32N6xx_HAL_Driver/Src/stm32n6xx_hal_spi.c ****         *((uint16_t *)hspi->pRxBuffPtr) = *prxdr_16bits;
 3068              		.loc 1 1193 27
 3069 02fc FB68     		ldr	r3, [r7, #12]
 3070 02fe DB6E     		ldr	r3, [r3, #108]
ARM GAS  /tmp/ccwTXtVb.s 			page 76


 3071              		.loc 1 1193 43
 3072 0300 BA69     		ldr	r2, [r7, #24]
 3073 0302 1288     		ldrh	r2, [r2]	@ movhi
 3074 0304 92B2     		uxth	r2, r2
 3075              		.loc 1 1193 41
 3076 0306 1A80     		strh	r2, [r3]	@ movhi
1194:STM32Cube_FW_N6/Drivers/STM32N6xx_HAL_Driver/Src/stm32n6xx_hal_spi.c **** #else
1195:STM32Cube_FW_N6/Drivers/STM32N6xx_HAL_Driver/Src/stm32n6xx_hal_spi.c ****         *((uint16_t *)hspi->pRxBuffPtr) = *((__IO uint16_t *)&hspi->Instance->RXDR);
1196:STM32Cube_FW_N6/Drivers/STM32N6xx_HAL_Driver/Src/stm32n6xx_hal_spi.c **** #endif /* __GNUC__ */
1197:STM32Cube_FW_N6/Drivers/STM32N6xx_HAL_Driver/Src/stm32n6xx_hal_spi.c ****         hspi->pRxBuffPtr += sizeof(uint16_t);
 3077              		.loc 1 1197 13
 3078 0308 FB68     		ldr	r3, [r7, #12]
 3079 030a DB6E     		ldr	r3, [r3, #108]
 3080              		.loc 1 1197 26
 3081 030c 9A1C     		adds	r2, r3, #2
 3082 030e FB68     		ldr	r3, [r7, #12]
 3083 0310 DA66     		str	r2, [r3, #108]
1198:STM32Cube_FW_N6/Drivers/STM32N6xx_HAL_Driver/Src/stm32n6xx_hal_spi.c **** #if defined (__GNUC__)
1199:STM32Cube_FW_N6/Drivers/STM32N6xx_HAL_Driver/Src/stm32n6xx_hal_spi.c ****         *((uint16_t *)hspi->pRxBuffPtr) = *prxdr_16bits;
 3084              		.loc 1 1199 27
 3085 0312 FB68     		ldr	r3, [r7, #12]
 3086 0314 DB6E     		ldr	r3, [r3, #108]
 3087              		.loc 1 1199 43
 3088 0316 BA69     		ldr	r2, [r7, #24]
 3089 0318 1288     		ldrh	r2, [r2]	@ movhi
 3090 031a 92B2     		uxth	r2, r2
 3091              		.loc 1 1199 41
 3092 031c 1A80     		strh	r2, [r3]	@ movhi
1200:STM32Cube_FW_N6/Drivers/STM32N6xx_HAL_Driver/Src/stm32n6xx_hal_spi.c **** #else
1201:STM32Cube_FW_N6/Drivers/STM32N6xx_HAL_Driver/Src/stm32n6xx_hal_spi.c ****         *((uint16_t *)hspi->pRxBuffPtr) = *((__IO uint16_t *)&hspi->Instance->RXDR);
1202:STM32Cube_FW_N6/Drivers/STM32N6xx_HAL_Driver/Src/stm32n6xx_hal_spi.c **** #endif /* __GNUC__ */
1203:STM32Cube_FW_N6/Drivers/STM32N6xx_HAL_Driver/Src/stm32n6xx_hal_spi.c ****         hspi->pRxBuffPtr += sizeof(uint16_t);
 3093              		.loc 1 1203 13
 3094 031e FB68     		ldr	r3, [r7, #12]
 3095 0320 DB6E     		ldr	r3, [r3, #108]
 3096              		.loc 1 1203 26
 3097 0322 9A1C     		adds	r2, r3, #2
 3098 0324 FB68     		ldr	r3, [r7, #12]
 3099 0326 DA66     		str	r2, [r3, #108]
1204:STM32Cube_FW_N6/Drivers/STM32N6xx_HAL_Driver/Src/stm32n6xx_hal_spi.c ****         hspi->RxXferCount -= (uint16_t)2UL;
 3100              		.loc 1 1204 13
 3101 0328 FB68     		ldr	r3, [r7, #12]
 3102 032a B3F87230 		ldrh	r3, [r3, #114]	@ movhi
 3103 032e 9BB2     		uxth	r3, r3
 3104              		.loc 1 1204 27
 3105 0330 023B     		subs	r3, r3, #2
 3106 0332 9AB2     		uxth	r2, r3
 3107 0334 FB68     		ldr	r3, [r7, #12]
 3108 0336 A3F87220 		strh	r2, [r3, #114]	@ movhi
 3109 033a 43E0     		b	.L141
 3110              	.L144:
1205:STM32Cube_FW_N6/Drivers/STM32N6xx_HAL_Driver/Src/stm32n6xx_hal_spi.c ****       }
1206:STM32Cube_FW_N6/Drivers/STM32N6xx_HAL_Driver/Src/stm32n6xx_hal_spi.c ****       /* Check RXPLVL flags when RXWNE cannot be reached */
1207:STM32Cube_FW_N6/Drivers/STM32N6xx_HAL_Driver/Src/stm32n6xx_hal_spi.c ****       else if ((hspi->RxXferCount == 1UL) && ((temp_sr_reg & SPI_SR_RXPLVL_0) != 0UL))
 3111              		.loc 1 1207 21
 3112 033c FB68     		ldr	r3, [r7, #12]
 3113 033e B3F87230 		ldrh	r3, [r3, #114]	@ movhi
ARM GAS  /tmp/ccwTXtVb.s 			page 77


 3114 0342 9BB2     		uxth	r3, r3
 3115              		.loc 1 1207 15
 3116 0344 012B     		cmp	r3, #1
 3117 0346 19D1     		bne	.L145
 3118              		.loc 1 1207 60 discriminator 1
 3119 0348 3B69     		ldr	r3, [r7, #16]
 3120 034a 03F40053 		and	r3, r3, #8192
 3121              		.loc 1 1207 43 discriminator 1
 3122 034e 002B     		cmp	r3, #0
 3123 0350 14D0     		beq	.L145
1208:STM32Cube_FW_N6/Drivers/STM32N6xx_HAL_Driver/Src/stm32n6xx_hal_spi.c ****       {
1209:STM32Cube_FW_N6/Drivers/STM32N6xx_HAL_Driver/Src/stm32n6xx_hal_spi.c **** #if defined (__GNUC__)
1210:STM32Cube_FW_N6/Drivers/STM32N6xx_HAL_Driver/Src/stm32n6xx_hal_spi.c ****         *((uint16_t *)hspi->pRxBuffPtr) = *prxdr_16bits;
 3124              		.loc 1 1210 27
 3125 0352 FB68     		ldr	r3, [r7, #12]
 3126 0354 DB6E     		ldr	r3, [r3, #108]
 3127              		.loc 1 1210 43
 3128 0356 BA69     		ldr	r2, [r7, #24]
 3129 0358 1288     		ldrh	r2, [r2]	@ movhi
 3130 035a 92B2     		uxth	r2, r2
 3131              		.loc 1 1210 41
 3132 035c 1A80     		strh	r2, [r3]	@ movhi
1211:STM32Cube_FW_N6/Drivers/STM32N6xx_HAL_Driver/Src/stm32n6xx_hal_spi.c **** #else
1212:STM32Cube_FW_N6/Drivers/STM32N6xx_HAL_Driver/Src/stm32n6xx_hal_spi.c ****         *((uint16_t *)hspi->pRxBuffPtr) = *((__IO uint16_t *)&hspi->Instance->RXDR);
1213:STM32Cube_FW_N6/Drivers/STM32N6xx_HAL_Driver/Src/stm32n6xx_hal_spi.c **** #endif /* __GNUC__ */
1214:STM32Cube_FW_N6/Drivers/STM32N6xx_HAL_Driver/Src/stm32n6xx_hal_spi.c ****         hspi->pRxBuffPtr += sizeof(uint16_t);
 3133              		.loc 1 1214 13
 3134 035e FB68     		ldr	r3, [r7, #12]
 3135 0360 DB6E     		ldr	r3, [r3, #108]
 3136              		.loc 1 1214 26
 3137 0362 9A1C     		adds	r2, r3, #2
 3138 0364 FB68     		ldr	r3, [r7, #12]
 3139 0366 DA66     		str	r2, [r3, #108]
1215:STM32Cube_FW_N6/Drivers/STM32N6xx_HAL_Driver/Src/stm32n6xx_hal_spi.c ****         hspi->RxXferCount--;
 3140              		.loc 1 1215 13
 3141 0368 FB68     		ldr	r3, [r7, #12]
 3142 036a B3F87230 		ldrh	r3, [r3, #114]	@ movhi
 3143 036e 9BB2     		uxth	r3, r3
 3144              		.loc 1 1215 26
 3145 0370 013B     		subs	r3, r3, #1
 3146 0372 9AB2     		uxth	r2, r3
 3147 0374 FB68     		ldr	r3, [r7, #12]
 3148 0376 A3F87220 		strh	r2, [r3, #114]	@ movhi
 3149 037a 23E0     		b	.L141
 3150              	.L145:
1216:STM32Cube_FW_N6/Drivers/STM32N6xx_HAL_Driver/Src/stm32n6xx_hal_spi.c ****       }
1217:STM32Cube_FW_N6/Drivers/STM32N6xx_HAL_Driver/Src/stm32n6xx_hal_spi.c ****       else
1218:STM32Cube_FW_N6/Drivers/STM32N6xx_HAL_Driver/Src/stm32n6xx_hal_spi.c ****       {
1219:STM32Cube_FW_N6/Drivers/STM32N6xx_HAL_Driver/Src/stm32n6xx_hal_spi.c ****         /* Timeout management */
1220:STM32Cube_FW_N6/Drivers/STM32N6xx_HAL_Driver/Src/stm32n6xx_hal_spi.c ****         if ((((HAL_GetTick() - tickstart) >=  Timeout) && (Timeout != HAL_MAX_DELAY)) || (Timeout =
 3151              		.loc 1 1220 16
 3152 037c FFF7FEFF 		bl	HAL_GetTick
 3153 0380 0246     		mov	r2, r0
 3154              		.loc 1 1220 30 discriminator 1
 3155 0382 7B69     		ldr	r3, [r7, #20]
 3156 0384 D31A     		subs	r3, r2, r3
 3157              		.loc 1 1220 12 discriminator 1
ARM GAS  /tmp/ccwTXtVb.s 			page 78


 3158 0386 3A68     		ldr	r2, [r7]
 3159 0388 9A42     		cmp	r2, r3
 3160 038a 03D8     		bhi	.L146
 3161              		.loc 1 1220 56 discriminator 1
 3162 038c 3B68     		ldr	r3, [r7]
 3163 038e B3F1FF3F 		cmp	r3, #-1
 3164 0392 02D1     		bne	.L147
 3165              	.L146:
 3166              		.loc 1 1220 87 discriminator 3
 3167 0394 3B68     		ldr	r3, [r7]
 3168 0396 002B     		cmp	r3, #0
 3169 0398 14D1     		bne	.L141
 3170              	.L147:
1221:STM32Cube_FW_N6/Drivers/STM32N6xx_HAL_Driver/Src/stm32n6xx_hal_spi.c ****         {
1222:STM32Cube_FW_N6/Drivers/STM32N6xx_HAL_Driver/Src/stm32n6xx_hal_spi.c ****           /* Call standard close procedure with error check */
1223:STM32Cube_FW_N6/Drivers/STM32N6xx_HAL_Driver/Src/stm32n6xx_hal_spi.c ****           SPI_CloseTransfer(hspi);
 3171              		.loc 1 1223 11
 3172 039a F868     		ldr	r0, [r7, #12]
 3173 039c FFF7FEFF 		bl	SPI_CloseTransfer
1224:STM32Cube_FW_N6/Drivers/STM32N6xx_HAL_Driver/Src/stm32n6xx_hal_spi.c **** 
1225:STM32Cube_FW_N6/Drivers/STM32N6xx_HAL_Driver/Src/stm32n6xx_hal_spi.c ****           SET_BIT(hspi->ErrorCode, HAL_SPI_ERROR_TIMEOUT);
 3174              		.loc 1 1225 11
 3175 03a0 FB68     		ldr	r3, [r7, #12]
 3176 03a2 D3F88C30 		ldr	r3, [r3, #140]
 3177 03a6 43F48072 		orr	r2, r3, #256
 3178 03aa FB68     		ldr	r3, [r7, #12]
 3179 03ac C3F88C20 		str	r2, [r3, #140]
1226:STM32Cube_FW_N6/Drivers/STM32N6xx_HAL_Driver/Src/stm32n6xx_hal_spi.c ****           hspi->State = HAL_SPI_STATE_READY;
 3180              		.loc 1 1226 23
 3181 03b0 FB68     		ldr	r3, [r7, #12]
 3182 03b2 0122     		movs	r2, #1
 3183 03b4 83F88920 		strb	r2, [r3, #137]
1227:STM32Cube_FW_N6/Drivers/STM32N6xx_HAL_Driver/Src/stm32n6xx_hal_spi.c **** 
1228:STM32Cube_FW_N6/Drivers/STM32N6xx_HAL_Driver/Src/stm32n6xx_hal_spi.c ****           /* Unlock the process */
1229:STM32Cube_FW_N6/Drivers/STM32N6xx_HAL_Driver/Src/stm32n6xx_hal_spi.c ****           __HAL_UNLOCK(hspi);
 3184              		.loc 1 1229 11
 3185 03b8 FB68     		ldr	r3, [r7, #12]
 3186 03ba 0022     		movs	r2, #0
 3187 03bc 83F88820 		strb	r2, [r3, #136]
1230:STM32Cube_FW_N6/Drivers/STM32N6xx_HAL_Driver/Src/stm32n6xx_hal_spi.c **** 
1231:STM32Cube_FW_N6/Drivers/STM32N6xx_HAL_Driver/Src/stm32n6xx_hal_spi.c ****           return HAL_TIMEOUT;
 3188              		.loc 1 1231 18
 3189 03c0 0323     		movs	r3, #3
 3190 03c2 F1E0     		b	.L123
 3191              	.L141:
1173:STM32Cube_FW_N6/Drivers/STM32N6xx_HAL_Driver/Src/stm32n6xx_hal_spi.c ****     {
 3192              		.loc 1 1173 16
 3193 03c4 FB68     		ldr	r3, [r7, #12]
 3194 03c6 B3F87230 		ldrh	r3, [r3, #114]	@ movhi
 3195 03ca 9BB2     		uxth	r3, r3
1173:STM32Cube_FW_N6/Drivers/STM32N6xx_HAL_Driver/Src/stm32n6xx_hal_spi.c ****     {
 3196              		.loc 1 1173 30
 3197 03cc 002B     		cmp	r3, #0
 3198 03ce 7FF469AF 		bne	.L148
 3199 03d2 BEE0     		b	.L139
 3200              	.L156:
1232:STM32Cube_FW_N6/Drivers/STM32N6xx_HAL_Driver/Src/stm32n6xx_hal_spi.c ****         }
ARM GAS  /tmp/ccwTXtVb.s 			page 79


1233:STM32Cube_FW_N6/Drivers/STM32N6xx_HAL_Driver/Src/stm32n6xx_hal_spi.c ****       }
1234:STM32Cube_FW_N6/Drivers/STM32N6xx_HAL_Driver/Src/stm32n6xx_hal_spi.c ****     }
1235:STM32Cube_FW_N6/Drivers/STM32N6xx_HAL_Driver/Src/stm32n6xx_hal_spi.c ****   }
1236:STM32Cube_FW_N6/Drivers/STM32N6xx_HAL_Driver/Src/stm32n6xx_hal_spi.c ****   /* Receive data in 8 Bit mode */
1237:STM32Cube_FW_N6/Drivers/STM32N6xx_HAL_Driver/Src/stm32n6xx_hal_spi.c ****   else
1238:STM32Cube_FW_N6/Drivers/STM32N6xx_HAL_Driver/Src/stm32n6xx_hal_spi.c ****   {
1239:STM32Cube_FW_N6/Drivers/STM32N6xx_HAL_Driver/Src/stm32n6xx_hal_spi.c ****     /* Transfer loop */
1240:STM32Cube_FW_N6/Drivers/STM32N6xx_HAL_Driver/Src/stm32n6xx_hal_spi.c ****     while (hspi->RxXferCount > 0UL)
1241:STM32Cube_FW_N6/Drivers/STM32N6xx_HAL_Driver/Src/stm32n6xx_hal_spi.c ****     {
1242:STM32Cube_FW_N6/Drivers/STM32N6xx_HAL_Driver/Src/stm32n6xx_hal_spi.c ****       /* Evaluate state of SR register */
1243:STM32Cube_FW_N6/Drivers/STM32N6xx_HAL_Driver/Src/stm32n6xx_hal_spi.c ****       temp_sr_reg = hspi->Instance->SR;
 3201              		.loc 1 1243 25
 3202 03d4 FB68     		ldr	r3, [r7, #12]
 3203 03d6 1B68     		ldr	r3, [r3]
 3204              		.loc 1 1243 19
 3205 03d8 5B69     		ldr	r3, [r3, #20]
 3206 03da 3B61     		str	r3, [r7, #16]
1244:STM32Cube_FW_N6/Drivers/STM32N6xx_HAL_Driver/Src/stm32n6xx_hal_spi.c **** 
1245:STM32Cube_FW_N6/Drivers/STM32N6xx_HAL_Driver/Src/stm32n6xx_hal_spi.c ****       /* Check the RXP flag */
1246:STM32Cube_FW_N6/Drivers/STM32N6xx_HAL_Driver/Src/stm32n6xx_hal_spi.c ****       if (__HAL_SPI_GET_FLAG(hspi, SPI_FLAG_RXP))
 3207              		.loc 1 1246 11
 3208 03dc FB68     		ldr	r3, [r7, #12]
 3209 03de 1B68     		ldr	r3, [r3]
 3210 03e0 5B69     		ldr	r3, [r3, #20]
 3211 03e2 03F00103 		and	r3, r3, #1
 3212              		.loc 1 1246 10
 3213 03e6 012B     		cmp	r3, #1
 3214 03e8 17D1     		bne	.L150
1247:STM32Cube_FW_N6/Drivers/STM32N6xx_HAL_Driver/Src/stm32n6xx_hal_spi.c ****       {
1248:STM32Cube_FW_N6/Drivers/STM32N6xx_HAL_Driver/Src/stm32n6xx_hal_spi.c ****         *((uint8_t *)hspi->pRxBuffPtr) = *((__IO uint8_t *)&hspi->Instance->RXDR);
 3215              		.loc 1 1248 65
 3216 03ea FB68     		ldr	r3, [r7, #12]
 3217 03ec 1B68     		ldr	r3, [r3]
 3218              		.loc 1 1248 60
 3219 03ee 03F13002 		add	r2, r3, #48
 3220              		.loc 1 1248 26
 3221 03f2 FB68     		ldr	r3, [r7, #12]
 3222 03f4 DB6E     		ldr	r3, [r3, #108]
 3223              		.loc 1 1248 42
 3224 03f6 1278     		ldrb	r2, [r2]
 3225 03f8 D2B2     		uxtb	r2, r2
 3226              		.loc 1 1248 40
 3227 03fa 1A70     		strb	r2, [r3]
1249:STM32Cube_FW_N6/Drivers/STM32N6xx_HAL_Driver/Src/stm32n6xx_hal_spi.c ****         hspi->pRxBuffPtr += sizeof(uint8_t);
 3228              		.loc 1 1249 13
 3229 03fc FB68     		ldr	r3, [r7, #12]
 3230 03fe DB6E     		ldr	r3, [r3, #108]
 3231              		.loc 1 1249 26
 3232 0400 5A1C     		adds	r2, r3, #1
 3233 0402 FB68     		ldr	r3, [r7, #12]
 3234 0404 DA66     		str	r2, [r3, #108]
1250:STM32Cube_FW_N6/Drivers/STM32N6xx_HAL_Driver/Src/stm32n6xx_hal_spi.c ****         hspi->RxXferCount--;
 3235              		.loc 1 1250 13
 3236 0406 FB68     		ldr	r3, [r7, #12]
 3237 0408 B3F87230 		ldrh	r3, [r3, #114]	@ movhi
 3238 040c 9BB2     		uxth	r3, r3
 3239              		.loc 1 1250 26
ARM GAS  /tmp/ccwTXtVb.s 			page 80


 3240 040e 013B     		subs	r3, r3, #1
 3241 0410 9AB2     		uxth	r2, r3
 3242 0412 FB68     		ldr	r3, [r7, #12]
 3243 0414 A3F87220 		strh	r2, [r3, #114]	@ movhi
 3244 0418 94E0     		b	.L149
 3245              	.L150:
1251:STM32Cube_FW_N6/Drivers/STM32N6xx_HAL_Driver/Src/stm32n6xx_hal_spi.c ****       }
1252:STM32Cube_FW_N6/Drivers/STM32N6xx_HAL_Driver/Src/stm32n6xx_hal_spi.c ****       /* Check RXWNE flag if RXP cannot be reached */
1253:STM32Cube_FW_N6/Drivers/STM32N6xx_HAL_Driver/Src/stm32n6xx_hal_spi.c ****       else if ((hspi->RxXferCount < init_max_data_in_fifo) && ((temp_sr_reg & SPI_SR_RXWNE_Msk) != 
 3246              		.loc 1 1253 21
 3247 041a FB68     		ldr	r3, [r7, #12]
 3248 041c B3F87230 		ldrh	r3, [r3, #114]	@ movhi
 3249 0420 9BB2     		uxth	r3, r3
 3250              		.loc 1 1253 15
 3251 0422 FA8B     		ldrh	r2, [r7, #30]
 3252 0424 9A42     		cmp	r2, r3
 3253 0426 46D9     		bls	.L152
 3254              		.loc 1 1253 77 discriminator 1
 3255 0428 3B69     		ldr	r3, [r7, #16]
 3256 042a 03F40043 		and	r3, r3, #32768
 3257              		.loc 1 1253 60 discriminator 1
 3258 042e 002B     		cmp	r3, #0
 3259 0430 41D0     		beq	.L152
1254:STM32Cube_FW_N6/Drivers/STM32N6xx_HAL_Driver/Src/stm32n6xx_hal_spi.c ****       {
1255:STM32Cube_FW_N6/Drivers/STM32N6xx_HAL_Driver/Src/stm32n6xx_hal_spi.c ****         *((uint8_t *)hspi->pRxBuffPtr) = *((__IO uint8_t *)&hspi->Instance->RXDR);
 3260              		.loc 1 1255 65
 3261 0432 FB68     		ldr	r3, [r7, #12]
 3262 0434 1B68     		ldr	r3, [r3]
 3263              		.loc 1 1255 60
 3264 0436 03F13002 		add	r2, r3, #48
 3265              		.loc 1 1255 26
 3266 043a FB68     		ldr	r3, [r7, #12]
 3267 043c DB6E     		ldr	r3, [r3, #108]
 3268              		.loc 1 1255 42
 3269 043e 1278     		ldrb	r2, [r2]
 3270 0440 D2B2     		uxtb	r2, r2
 3271              		.loc 1 1255 40
 3272 0442 1A70     		strb	r2, [r3]
1256:STM32Cube_FW_N6/Drivers/STM32N6xx_HAL_Driver/Src/stm32n6xx_hal_spi.c ****         hspi->pRxBuffPtr += sizeof(uint8_t);
 3273              		.loc 1 1256 13
 3274 0444 FB68     		ldr	r3, [r7, #12]
 3275 0446 DB6E     		ldr	r3, [r3, #108]
 3276              		.loc 1 1256 26
 3277 0448 5A1C     		adds	r2, r3, #1
 3278 044a FB68     		ldr	r3, [r7, #12]
 3279 044c DA66     		str	r2, [r3, #108]
1257:STM32Cube_FW_N6/Drivers/STM32N6xx_HAL_Driver/Src/stm32n6xx_hal_spi.c ****         *((uint8_t *)hspi->pRxBuffPtr) = *((__IO uint8_t *)&hspi->Instance->RXDR);
 3280              		.loc 1 1257 65
 3281 044e FB68     		ldr	r3, [r7, #12]
 3282 0450 1B68     		ldr	r3, [r3]
 3283              		.loc 1 1257 60
 3284 0452 03F13002 		add	r2, r3, #48
 3285              		.loc 1 1257 26
 3286 0456 FB68     		ldr	r3, [r7, #12]
 3287 0458 DB6E     		ldr	r3, [r3, #108]
 3288              		.loc 1 1257 42
 3289 045a 1278     		ldrb	r2, [r2]
ARM GAS  /tmp/ccwTXtVb.s 			page 81


 3290 045c D2B2     		uxtb	r2, r2
 3291              		.loc 1 1257 40
 3292 045e 1A70     		strb	r2, [r3]
1258:STM32Cube_FW_N6/Drivers/STM32N6xx_HAL_Driver/Src/stm32n6xx_hal_spi.c ****         hspi->pRxBuffPtr += sizeof(uint8_t);
 3293              		.loc 1 1258 13
 3294 0460 FB68     		ldr	r3, [r7, #12]
 3295 0462 DB6E     		ldr	r3, [r3, #108]
 3296              		.loc 1 1258 26
 3297 0464 5A1C     		adds	r2, r3, #1
 3298 0466 FB68     		ldr	r3, [r7, #12]
 3299 0468 DA66     		str	r2, [r3, #108]
1259:STM32Cube_FW_N6/Drivers/STM32N6xx_HAL_Driver/Src/stm32n6xx_hal_spi.c ****         *((uint8_t *)hspi->pRxBuffPtr) = *((__IO uint8_t *)&hspi->Instance->RXDR);
 3300              		.loc 1 1259 65
 3301 046a FB68     		ldr	r3, [r7, #12]
 3302 046c 1B68     		ldr	r3, [r3]
 3303              		.loc 1 1259 60
 3304 046e 03F13002 		add	r2, r3, #48
 3305              		.loc 1 1259 26
 3306 0472 FB68     		ldr	r3, [r7, #12]
 3307 0474 DB6E     		ldr	r3, [r3, #108]
 3308              		.loc 1 1259 42
 3309 0476 1278     		ldrb	r2, [r2]
 3310 0478 D2B2     		uxtb	r2, r2
 3311              		.loc 1 1259 40
 3312 047a 1A70     		strb	r2, [r3]
1260:STM32Cube_FW_N6/Drivers/STM32N6xx_HAL_Driver/Src/stm32n6xx_hal_spi.c ****         hspi->pRxBuffPtr += sizeof(uint8_t);
 3313              		.loc 1 1260 13
 3314 047c FB68     		ldr	r3, [r7, #12]
 3315 047e DB6E     		ldr	r3, [r3, #108]
 3316              		.loc 1 1260 26
 3317 0480 5A1C     		adds	r2, r3, #1
 3318 0482 FB68     		ldr	r3, [r7, #12]
 3319 0484 DA66     		str	r2, [r3, #108]
1261:STM32Cube_FW_N6/Drivers/STM32N6xx_HAL_Driver/Src/stm32n6xx_hal_spi.c ****         *((uint8_t *)hspi->pRxBuffPtr) = *((__IO uint8_t *)&hspi->Instance->RXDR);
 3320              		.loc 1 1261 65
 3321 0486 FB68     		ldr	r3, [r7, #12]
 3322 0488 1B68     		ldr	r3, [r3]
 3323              		.loc 1 1261 60
 3324 048a 03F13002 		add	r2, r3, #48
 3325              		.loc 1 1261 26
 3326 048e FB68     		ldr	r3, [r7, #12]
 3327 0490 DB6E     		ldr	r3, [r3, #108]
 3328              		.loc 1 1261 42
 3329 0492 1278     		ldrb	r2, [r2]
 3330 0494 D2B2     		uxtb	r2, r2
 3331              		.loc 1 1261 40
 3332 0496 1A70     		strb	r2, [r3]
1262:STM32Cube_FW_N6/Drivers/STM32N6xx_HAL_Driver/Src/stm32n6xx_hal_spi.c ****         hspi->pRxBuffPtr += sizeof(uint8_t);
 3333              		.loc 1 1262 13
 3334 0498 FB68     		ldr	r3, [r7, #12]
 3335 049a DB6E     		ldr	r3, [r3, #108]
 3336              		.loc 1 1262 26
 3337 049c 5A1C     		adds	r2, r3, #1
 3338 049e FB68     		ldr	r3, [r7, #12]
 3339 04a0 DA66     		str	r2, [r3, #108]
1263:STM32Cube_FW_N6/Drivers/STM32N6xx_HAL_Driver/Src/stm32n6xx_hal_spi.c ****         hspi->RxXferCount -= (uint16_t)4UL;
 3340              		.loc 1 1263 13
ARM GAS  /tmp/ccwTXtVb.s 			page 82


 3341 04a2 FB68     		ldr	r3, [r7, #12]
 3342 04a4 B3F87230 		ldrh	r3, [r3, #114]	@ movhi
 3343 04a8 9BB2     		uxth	r3, r3
 3344              		.loc 1 1263 27
 3345 04aa 043B     		subs	r3, r3, #4
 3346 04ac 9AB2     		uxth	r2, r3
 3347 04ae FB68     		ldr	r3, [r7, #12]
 3348 04b0 A3F87220 		strh	r2, [r3, #114]	@ movhi
 3349 04b4 46E0     		b	.L149
 3350              	.L152:
1264:STM32Cube_FW_N6/Drivers/STM32N6xx_HAL_Driver/Src/stm32n6xx_hal_spi.c ****       }
1265:STM32Cube_FW_N6/Drivers/STM32N6xx_HAL_Driver/Src/stm32n6xx_hal_spi.c ****       /* Check RXPLVL flags when RXWNE cannot be reached */
1266:STM32Cube_FW_N6/Drivers/STM32N6xx_HAL_Driver/Src/stm32n6xx_hal_spi.c ****       else if ((hspi->RxXferCount < 4UL) && ((temp_sr_reg & SPI_SR_RXPLVL_Msk) != 0UL))
 3351              		.loc 1 1266 21
 3352 04b6 FB68     		ldr	r3, [r7, #12]
 3353 04b8 B3F87230 		ldrh	r3, [r3, #114]	@ movhi
 3354 04bc 9BB2     		uxth	r3, r3
 3355              		.loc 1 1266 15
 3356 04be 032B     		cmp	r3, #3
 3357 04c0 1CD8     		bhi	.L153
 3358              		.loc 1 1266 59 discriminator 1
 3359 04c2 3B69     		ldr	r3, [r7, #16]
 3360 04c4 03F4C043 		and	r3, r3, #24576
 3361              		.loc 1 1266 42 discriminator 1
 3362 04c8 002B     		cmp	r3, #0
 3363 04ca 17D0     		beq	.L153
1267:STM32Cube_FW_N6/Drivers/STM32N6xx_HAL_Driver/Src/stm32n6xx_hal_spi.c ****       {
1268:STM32Cube_FW_N6/Drivers/STM32N6xx_HAL_Driver/Src/stm32n6xx_hal_spi.c ****         *((uint8_t *)hspi->pRxBuffPtr) = *((__IO uint8_t *)&hspi->Instance->RXDR);
 3364              		.loc 1 1268 65
 3365 04cc FB68     		ldr	r3, [r7, #12]
 3366 04ce 1B68     		ldr	r3, [r3]
 3367              		.loc 1 1268 60
 3368 04d0 03F13002 		add	r2, r3, #48
 3369              		.loc 1 1268 26
 3370 04d4 FB68     		ldr	r3, [r7, #12]
 3371 04d6 DB6E     		ldr	r3, [r3, #108]
 3372              		.loc 1 1268 42
 3373 04d8 1278     		ldrb	r2, [r2]
 3374 04da D2B2     		uxtb	r2, r2
 3375              		.loc 1 1268 40
 3376 04dc 1A70     		strb	r2, [r3]
1269:STM32Cube_FW_N6/Drivers/STM32N6xx_HAL_Driver/Src/stm32n6xx_hal_spi.c ****         hspi->pRxBuffPtr += sizeof(uint8_t);
 3377              		.loc 1 1269 13
 3378 04de FB68     		ldr	r3, [r7, #12]
 3379 04e0 DB6E     		ldr	r3, [r3, #108]
 3380              		.loc 1 1269 26
 3381 04e2 5A1C     		adds	r2, r3, #1
 3382 04e4 FB68     		ldr	r3, [r7, #12]
 3383 04e6 DA66     		str	r2, [r3, #108]
1270:STM32Cube_FW_N6/Drivers/STM32N6xx_HAL_Driver/Src/stm32n6xx_hal_spi.c ****         hspi->RxXferCount--;
 3384              		.loc 1 1270 13
 3385 04e8 FB68     		ldr	r3, [r7, #12]
 3386 04ea B3F87230 		ldrh	r3, [r3, #114]	@ movhi
 3387 04ee 9BB2     		uxth	r3, r3
 3388              		.loc 1 1270 26
 3389 04f0 013B     		subs	r3, r3, #1
 3390 04f2 9AB2     		uxth	r2, r3
ARM GAS  /tmp/ccwTXtVb.s 			page 83


 3391 04f4 FB68     		ldr	r3, [r7, #12]
 3392 04f6 A3F87220 		strh	r2, [r3, #114]	@ movhi
 3393 04fa 23E0     		b	.L149
 3394              	.L153:
1271:STM32Cube_FW_N6/Drivers/STM32N6xx_HAL_Driver/Src/stm32n6xx_hal_spi.c ****       }
1272:STM32Cube_FW_N6/Drivers/STM32N6xx_HAL_Driver/Src/stm32n6xx_hal_spi.c ****       else
1273:STM32Cube_FW_N6/Drivers/STM32N6xx_HAL_Driver/Src/stm32n6xx_hal_spi.c ****       {
1274:STM32Cube_FW_N6/Drivers/STM32N6xx_HAL_Driver/Src/stm32n6xx_hal_spi.c ****         /* Timeout management */
1275:STM32Cube_FW_N6/Drivers/STM32N6xx_HAL_Driver/Src/stm32n6xx_hal_spi.c ****         if ((((HAL_GetTick() - tickstart) >=  Timeout) && (Timeout != HAL_MAX_DELAY)) || (Timeout =
 3395              		.loc 1 1275 16
 3396 04fc FFF7FEFF 		bl	HAL_GetTick
 3397 0500 0246     		mov	r2, r0
 3398              		.loc 1 1275 30 discriminator 1
 3399 0502 7B69     		ldr	r3, [r7, #20]
 3400 0504 D31A     		subs	r3, r2, r3
 3401              		.loc 1 1275 12 discriminator 1
 3402 0506 3A68     		ldr	r2, [r7]
 3403 0508 9A42     		cmp	r2, r3
 3404 050a 03D8     		bhi	.L154
 3405              		.loc 1 1275 56 discriminator 1
 3406 050c 3B68     		ldr	r3, [r7]
 3407 050e B3F1FF3F 		cmp	r3, #-1
 3408 0512 02D1     		bne	.L155
 3409              	.L154:
 3410              		.loc 1 1275 87 discriminator 3
 3411 0514 3B68     		ldr	r3, [r7]
 3412 0516 002B     		cmp	r3, #0
 3413 0518 14D1     		bne	.L149
 3414              	.L155:
1276:STM32Cube_FW_N6/Drivers/STM32N6xx_HAL_Driver/Src/stm32n6xx_hal_spi.c ****         {
1277:STM32Cube_FW_N6/Drivers/STM32N6xx_HAL_Driver/Src/stm32n6xx_hal_spi.c ****           /* Call standard close procedure with error check */
1278:STM32Cube_FW_N6/Drivers/STM32N6xx_HAL_Driver/Src/stm32n6xx_hal_spi.c ****           SPI_CloseTransfer(hspi);
 3415              		.loc 1 1278 11
 3416 051a F868     		ldr	r0, [r7, #12]
 3417 051c FFF7FEFF 		bl	SPI_CloseTransfer
1279:STM32Cube_FW_N6/Drivers/STM32N6xx_HAL_Driver/Src/stm32n6xx_hal_spi.c **** 
1280:STM32Cube_FW_N6/Drivers/STM32N6xx_HAL_Driver/Src/stm32n6xx_hal_spi.c ****           SET_BIT(hspi->ErrorCode, HAL_SPI_ERROR_TIMEOUT);
 3418              		.loc 1 1280 11
 3419 0520 FB68     		ldr	r3, [r7, #12]
 3420 0522 D3F88C30 		ldr	r3, [r3, #140]
 3421 0526 43F48072 		orr	r2, r3, #256
 3422 052a FB68     		ldr	r3, [r7, #12]
 3423 052c C3F88C20 		str	r2, [r3, #140]
1281:STM32Cube_FW_N6/Drivers/STM32N6xx_HAL_Driver/Src/stm32n6xx_hal_spi.c ****           hspi->State = HAL_SPI_STATE_READY;
 3424              		.loc 1 1281 23
 3425 0530 FB68     		ldr	r3, [r7, #12]
 3426 0532 0122     		movs	r2, #1
 3427 0534 83F88920 		strb	r2, [r3, #137]
1282:STM32Cube_FW_N6/Drivers/STM32N6xx_HAL_Driver/Src/stm32n6xx_hal_spi.c **** 
1283:STM32Cube_FW_N6/Drivers/STM32N6xx_HAL_Driver/Src/stm32n6xx_hal_spi.c ****           /* Unlock the process */
1284:STM32Cube_FW_N6/Drivers/STM32N6xx_HAL_Driver/Src/stm32n6xx_hal_spi.c ****           __HAL_UNLOCK(hspi);
 3428              		.loc 1 1284 11
 3429 0538 FB68     		ldr	r3, [r7, #12]
 3430 053a 0022     		movs	r2, #0
 3431 053c 83F88820 		strb	r2, [r3, #136]
1285:STM32Cube_FW_N6/Drivers/STM32N6xx_HAL_Driver/Src/stm32n6xx_hal_spi.c **** 
1286:STM32Cube_FW_N6/Drivers/STM32N6xx_HAL_Driver/Src/stm32n6xx_hal_spi.c ****           return HAL_TIMEOUT;
ARM GAS  /tmp/ccwTXtVb.s 			page 84


 3432              		.loc 1 1286 18
 3433 0540 0323     		movs	r3, #3
 3434 0542 31E0     		b	.L123
 3435              	.L149:
1240:STM32Cube_FW_N6/Drivers/STM32N6xx_HAL_Driver/Src/stm32n6xx_hal_spi.c ****     {
 3436              		.loc 1 1240 16
 3437 0544 FB68     		ldr	r3, [r7, #12]
 3438 0546 B3F87230 		ldrh	r3, [r3, #114]	@ movhi
 3439 054a 9BB2     		uxth	r3, r3
1240:STM32Cube_FW_N6/Drivers/STM32N6xx_HAL_Driver/Src/stm32n6xx_hal_spi.c ****     {
 3440              		.loc 1 1240 30
 3441 054c 002B     		cmp	r3, #0
 3442 054e 7FF441AF 		bne	.L156
 3443              	.L139:
1287:STM32Cube_FW_N6/Drivers/STM32N6xx_HAL_Driver/Src/stm32n6xx_hal_spi.c ****         }
1288:STM32Cube_FW_N6/Drivers/STM32N6xx_HAL_Driver/Src/stm32n6xx_hal_spi.c ****       }
1289:STM32Cube_FW_N6/Drivers/STM32N6xx_HAL_Driver/Src/stm32n6xx_hal_spi.c ****     }
1290:STM32Cube_FW_N6/Drivers/STM32N6xx_HAL_Driver/Src/stm32n6xx_hal_spi.c ****   }
1291:STM32Cube_FW_N6/Drivers/STM32N6xx_HAL_Driver/Src/stm32n6xx_hal_spi.c **** 
1292:STM32Cube_FW_N6/Drivers/STM32N6xx_HAL_Driver/Src/stm32n6xx_hal_spi.c **** #if (USE_SPI_CRC != 0UL)
1293:STM32Cube_FW_N6/Drivers/STM32N6xx_HAL_Driver/Src/stm32n6xx_hal_spi.c ****   if (hspi->Init.CRCCalculation == SPI_CRCCALCULATION_ENABLE)
 3444              		.loc 1 1293 17
 3445 0552 FB68     		ldr	r3, [r7, #12]
 3446 0554 9B6A     		ldr	r3, [r3, #40]
 3447              		.loc 1 1293 6
 3448 0556 B3F5800F 		cmp	r3, #4194304
 3449 055a 12D1     		bne	.L157
1294:STM32Cube_FW_N6/Drivers/STM32N6xx_HAL_Driver/Src/stm32n6xx_hal_spi.c ****   {
1295:STM32Cube_FW_N6/Drivers/STM32N6xx_HAL_Driver/Src/stm32n6xx_hal_spi.c ****     /* Wait for crc data to be received */
1296:STM32Cube_FW_N6/Drivers/STM32N6xx_HAL_Driver/Src/stm32n6xx_hal_spi.c ****     if (SPI_WaitOnFlagUntilTimeout(hspi, SPI_FLAG_EOT, RESET, Timeout, tickstart) != HAL_OK)
 3450              		.loc 1 1296 9
 3451 055c 7B69     		ldr	r3, [r7, #20]
 3452 055e 0093     		str	r3, [sp]
 3453 0560 3B68     		ldr	r3, [r7]
 3454 0562 0022     		movs	r2, #0
 3455 0564 0821     		movs	r1, #8
 3456 0566 F868     		ldr	r0, [r7, #12]
 3457 0568 FFF7FEFF 		bl	SPI_WaitOnFlagUntilTimeout
 3458 056c 0346     		mov	r3, r0
 3459              		.loc 1 1296 8 discriminator 1
 3460 056e 002B     		cmp	r3, #0
 3461 0570 07D0     		beq	.L157
1297:STM32Cube_FW_N6/Drivers/STM32N6xx_HAL_Driver/Src/stm32n6xx_hal_spi.c ****     {
1298:STM32Cube_FW_N6/Drivers/STM32N6xx_HAL_Driver/Src/stm32n6xx_hal_spi.c ****       SET_BIT(hspi->ErrorCode, HAL_SPI_ERROR_FLAG);
 3462              		.loc 1 1298 7
 3463 0572 FB68     		ldr	r3, [r7, #12]
 3464 0574 D3F88C30 		ldr	r3, [r3, #140]
 3465 0578 43F02002 		orr	r2, r3, #32
 3466 057c FB68     		ldr	r3, [r7, #12]
 3467 057e C3F88C20 		str	r2, [r3, #140]
 3468              	.L157:
1299:STM32Cube_FW_N6/Drivers/STM32N6xx_HAL_Driver/Src/stm32n6xx_hal_spi.c ****     }
1300:STM32Cube_FW_N6/Drivers/STM32N6xx_HAL_Driver/Src/stm32n6xx_hal_spi.c ****   }
1301:STM32Cube_FW_N6/Drivers/STM32N6xx_HAL_Driver/Src/stm32n6xx_hal_spi.c **** #endif /* USE_SPI_CRC */
1302:STM32Cube_FW_N6/Drivers/STM32N6xx_HAL_Driver/Src/stm32n6xx_hal_spi.c **** 
1303:STM32Cube_FW_N6/Drivers/STM32N6xx_HAL_Driver/Src/stm32n6xx_hal_spi.c ****   /* Call standard close procedure with error check */
1304:STM32Cube_FW_N6/Drivers/STM32N6xx_HAL_Driver/Src/stm32n6xx_hal_spi.c ****   SPI_CloseTransfer(hspi);
ARM GAS  /tmp/ccwTXtVb.s 			page 85


 3469              		.loc 1 1304 3
 3470 0582 F868     		ldr	r0, [r7, #12]
 3471 0584 FFF7FEFF 		bl	SPI_CloseTransfer
1305:STM32Cube_FW_N6/Drivers/STM32N6xx_HAL_Driver/Src/stm32n6xx_hal_spi.c **** 
1306:STM32Cube_FW_N6/Drivers/STM32N6xx_HAL_Driver/Src/stm32n6xx_hal_spi.c ****   hspi->State = HAL_SPI_STATE_READY;
 3472              		.loc 1 1306 15
 3473 0588 FB68     		ldr	r3, [r7, #12]
 3474 058a 0122     		movs	r2, #1
 3475 058c 83F88920 		strb	r2, [r3, #137]
1307:STM32Cube_FW_N6/Drivers/STM32N6xx_HAL_Driver/Src/stm32n6xx_hal_spi.c **** 
1308:STM32Cube_FW_N6/Drivers/STM32N6xx_HAL_Driver/Src/stm32n6xx_hal_spi.c ****   /* Unlock the process */
1309:STM32Cube_FW_N6/Drivers/STM32N6xx_HAL_Driver/Src/stm32n6xx_hal_spi.c ****   __HAL_UNLOCK(hspi);
 3476              		.loc 1 1309 3
 3477 0590 FB68     		ldr	r3, [r7, #12]
 3478 0592 0022     		movs	r2, #0
 3479 0594 83F88820 		strb	r2, [r3, #136]
1310:STM32Cube_FW_N6/Drivers/STM32N6xx_HAL_Driver/Src/stm32n6xx_hal_spi.c **** 
1311:STM32Cube_FW_N6/Drivers/STM32N6xx_HAL_Driver/Src/stm32n6xx_hal_spi.c **** 
1312:STM32Cube_FW_N6/Drivers/STM32N6xx_HAL_Driver/Src/stm32n6xx_hal_spi.c ****   if (hspi->ErrorCode != HAL_SPI_ERROR_NONE)
 3480              		.loc 1 1312 11
 3481 0598 FB68     		ldr	r3, [r7, #12]
 3482 059a D3F88C30 		ldr	r3, [r3, #140]
 3483              		.loc 1 1312 6
 3484 059e 002B     		cmp	r3, #0
 3485 05a0 01D0     		beq	.L158
1313:STM32Cube_FW_N6/Drivers/STM32N6xx_HAL_Driver/Src/stm32n6xx_hal_spi.c ****   {
1314:STM32Cube_FW_N6/Drivers/STM32N6xx_HAL_Driver/Src/stm32n6xx_hal_spi.c ****     return HAL_ERROR;
 3486              		.loc 1 1314 12
 3487 05a2 0123     		movs	r3, #1
 3488 05a4 00E0     		b	.L123
 3489              	.L158:
1315:STM32Cube_FW_N6/Drivers/STM32N6xx_HAL_Driver/Src/stm32n6xx_hal_spi.c ****   }
1316:STM32Cube_FW_N6/Drivers/STM32N6xx_HAL_Driver/Src/stm32n6xx_hal_spi.c ****   else
1317:STM32Cube_FW_N6/Drivers/STM32N6xx_HAL_Driver/Src/stm32n6xx_hal_spi.c ****   {
1318:STM32Cube_FW_N6/Drivers/STM32N6xx_HAL_Driver/Src/stm32n6xx_hal_spi.c ****     return HAL_OK;
 3490              		.loc 1 1318 12
 3491 05a6 0023     		movs	r3, #0
 3492              	.L123:
1319:STM32Cube_FW_N6/Drivers/STM32N6xx_HAL_Driver/Src/stm32n6xx_hal_spi.c ****   }
1320:STM32Cube_FW_N6/Drivers/STM32N6xx_HAL_Driver/Src/stm32n6xx_hal_spi.c **** }
 3493              		.loc 1 1320 1
 3494 05a8 1846     		mov	r0, r3
 3495 05aa 2037     		adds	r7, r7, #32
 3496              		.cfi_def_cfa_offset 8
 3497 05ac BD46     		mov	sp, r7
 3498              		.cfi_def_cfa_register 13
 3499              		@ sp needed
 3500 05ae 80BD     		pop	{r7, pc}
 3501              		.cfi_endproc
 3502              	.LFE840:
 3504              		.section	.text.HAL_SPI_TransmitReceive,"ax",%progbits
 3505              		.align	1
 3506              		.global	HAL_SPI_TransmitReceive
 3507              		.syntax unified
 3508              		.thumb
 3509              		.thumb_func
 3511              	HAL_SPI_TransmitReceive:
ARM GAS  /tmp/ccwTXtVb.s 			page 86


 3512              	.LFB841:
1321:STM32Cube_FW_N6/Drivers/STM32N6xx_HAL_Driver/Src/stm32n6xx_hal_spi.c **** 
1322:STM32Cube_FW_N6/Drivers/STM32N6xx_HAL_Driver/Src/stm32n6xx_hal_spi.c **** /**
1323:STM32Cube_FW_N6/Drivers/STM32N6xx_HAL_Driver/Src/stm32n6xx_hal_spi.c ****   * @brief  Transmit and Receive an amount of data in blocking mode.
1324:STM32Cube_FW_N6/Drivers/STM32N6xx_HAL_Driver/Src/stm32n6xx_hal_spi.c ****   * @param  hspi   : pointer to a SPI_HandleTypeDef structure that contains
1325:STM32Cube_FW_N6/Drivers/STM32N6xx_HAL_Driver/Src/stm32n6xx_hal_spi.c ****   *                  the configuration information for SPI module.
1326:STM32Cube_FW_N6/Drivers/STM32N6xx_HAL_Driver/Src/stm32n6xx_hal_spi.c ****   * @param  pTxData: pointer to transmission data buffer
1327:STM32Cube_FW_N6/Drivers/STM32N6xx_HAL_Driver/Src/stm32n6xx_hal_spi.c ****   * @param  pRxData: pointer to reception data buffer
1328:STM32Cube_FW_N6/Drivers/STM32N6xx_HAL_Driver/Src/stm32n6xx_hal_spi.c ****   * @param  Size   : amount of data to be sent and received
1329:STM32Cube_FW_N6/Drivers/STM32N6xx_HAL_Driver/Src/stm32n6xx_hal_spi.c ****   * @param  Timeout: Timeout duration
1330:STM32Cube_FW_N6/Drivers/STM32N6xx_HAL_Driver/Src/stm32n6xx_hal_spi.c ****   * @retval HAL status
1331:STM32Cube_FW_N6/Drivers/STM32N6xx_HAL_Driver/Src/stm32n6xx_hal_spi.c ****   */
1332:STM32Cube_FW_N6/Drivers/STM32N6xx_HAL_Driver/Src/stm32n6xx_hal_spi.c **** HAL_StatusTypeDef HAL_SPI_TransmitReceive(SPI_HandleTypeDef *hspi, const uint8_t *pTxData, uint8_t 
1333:STM32Cube_FW_N6/Drivers/STM32N6xx_HAL_Driver/Src/stm32n6xx_hal_spi.c ****                                           uint16_t Size, uint32_t Timeout)
1334:STM32Cube_FW_N6/Drivers/STM32N6xx_HAL_Driver/Src/stm32n6xx_hal_spi.c **** {
 3513              		.loc 1 1334 1
 3514              		.cfi_startproc
 3515              		@ args = 4, pretend = 0, frame = 48
 3516              		@ frame_needed = 1, uses_anonymous_args = 0
 3517 0000 80B5     		push	{r7, lr}
 3518              		.cfi_def_cfa_offset 8
 3519              		.cfi_offset 7, -8
 3520              		.cfi_offset 14, -4
 3521 0002 8EB0     		sub	sp, sp, #56
 3522              		.cfi_def_cfa_offset 64
 3523 0004 02AF     		add	r7, sp, #8
 3524              		.cfi_def_cfa 7, 56
 3525 0006 F860     		str	r0, [r7, #12]
 3526 0008 B960     		str	r1, [r7, #8]
 3527 000a 7A60     		str	r2, [r7, #4]
 3528 000c 7B80     		strh	r3, [r7, #2]	@ movhi
1335:STM32Cube_FW_N6/Drivers/STM32N6xx_HAL_Driver/Src/stm32n6xx_hal_spi.c **** #if defined (__GNUC__)
1336:STM32Cube_FW_N6/Drivers/STM32N6xx_HAL_Driver/Src/stm32n6xx_hal_spi.c ****   __IO uint16_t *ptxdr_16bits = (__IO uint16_t *)(&(hspi->Instance->TXDR));
 3529              		.loc 1 1336 57
 3530 000e FB68     		ldr	r3, [r7, #12]
 3531 0010 1B68     		ldr	r3, [r3]
 3532              		.loc 1 1336 18
 3533 0012 2033     		adds	r3, r3, #32
 3534 0014 7B62     		str	r3, [r7, #36]
1337:STM32Cube_FW_N6/Drivers/STM32N6xx_HAL_Driver/Src/stm32n6xx_hal_spi.c ****   __IO uint16_t *prxdr_16bits = (__IO uint16_t *)(&(hspi->Instance->RXDR));
 3535              		.loc 1 1337 57
 3536 0016 FB68     		ldr	r3, [r7, #12]
 3537 0018 1B68     		ldr	r3, [r3]
 3538              		.loc 1 1337 18
 3539 001a 3033     		adds	r3, r3, #48
 3540 001c 3B62     		str	r3, [r7, #32]
1338:STM32Cube_FW_N6/Drivers/STM32N6xx_HAL_Driver/Src/stm32n6xx_hal_spi.c **** #endif /* __GNUC__ */
1339:STM32Cube_FW_N6/Drivers/STM32N6xx_HAL_Driver/Src/stm32n6xx_hal_spi.c **** 
1340:STM32Cube_FW_N6/Drivers/STM32N6xx_HAL_Driver/Src/stm32n6xx_hal_spi.c ****   uint32_t   tickstart;
1341:STM32Cube_FW_N6/Drivers/STM32N6xx_HAL_Driver/Src/stm32n6xx_hal_spi.c ****   uint32_t   fifo_length;
1342:STM32Cube_FW_N6/Drivers/STM32N6xx_HAL_Driver/Src/stm32n6xx_hal_spi.c ****   uint32_t   temp_sr_reg;
1343:STM32Cube_FW_N6/Drivers/STM32N6xx_HAL_Driver/Src/stm32n6xx_hal_spi.c ****   uint16_t   initial_TxXferCount;
1344:STM32Cube_FW_N6/Drivers/STM32N6xx_HAL_Driver/Src/stm32n6xx_hal_spi.c ****   uint16_t   initial_RxXferCount;
1345:STM32Cube_FW_N6/Drivers/STM32N6xx_HAL_Driver/Src/stm32n6xx_hal_spi.c ****   uint16_t   init_max_data_in_fifo;
1346:STM32Cube_FW_N6/Drivers/STM32N6xx_HAL_Driver/Src/stm32n6xx_hal_spi.c ****   init_max_data_in_fifo = (((uint16_t)(hspi->Init.FifoThreshold >> 5U) + 1U));
 3541              		.loc 1 1346 50
 3542 001e FB68     		ldr	r3, [r7, #12]
ARM GAS  /tmp/ccwTXtVb.s 			page 87


 3543 0020 DB6B     		ldr	r3, [r3, #60]
 3544              		.loc 1 1346 65
 3545 0022 5B09     		lsrs	r3, r3, #5
 3546              		.loc 1 1346 29
 3547 0024 9BB2     		uxth	r3, r3
 3548              		.loc 1 1346 25
 3549 0026 0133     		adds	r3, r3, #1
 3550 0028 FB83     		strh	r3, [r7, #30]	@ movhi
1347:STM32Cube_FW_N6/Drivers/STM32N6xx_HAL_Driver/Src/stm32n6xx_hal_spi.c **** 
1348:STM32Cube_FW_N6/Drivers/STM32N6xx_HAL_Driver/Src/stm32n6xx_hal_spi.c ****   /* Check Direction parameter */
1349:STM32Cube_FW_N6/Drivers/STM32N6xx_HAL_Driver/Src/stm32n6xx_hal_spi.c ****   assert_param(IS_SPI_DIRECTION_2LINES(hspi->Init.Direction));
 3551              		.loc 1 1349 3
 3552 002a FB68     		ldr	r3, [r7, #12]
 3553 002c 9B68     		ldr	r3, [r3, #8]
 3554 002e 002B     		cmp	r3, #0
 3555 0030 04D0     		beq	.L162
 3556              		.loc 1 1349 3 is_stmt 0 discriminator 1
 3557 0032 40F24551 		movw	r1, #1349
 3558 0036 6948     		ldr	r0, .L204
 3559 0038 FFF7FEFF 		bl	assert_failed
 3560              	.L162:
1350:STM32Cube_FW_N6/Drivers/STM32N6xx_HAL_Driver/Src/stm32n6xx_hal_spi.c **** 
1351:STM32Cube_FW_N6/Drivers/STM32N6xx_HAL_Driver/Src/stm32n6xx_hal_spi.c ****   /* Init tickstart for timeout management*/
1352:STM32Cube_FW_N6/Drivers/STM32N6xx_HAL_Driver/Src/stm32n6xx_hal_spi.c ****   tickstart = HAL_GetTick();
 3561              		.loc 1 1352 15 is_stmt 1
 3562 003c FFF7FEFF 		bl	HAL_GetTick
 3563 0040 B861     		str	r0, [r7, #24]
1353:STM32Cube_FW_N6/Drivers/STM32N6xx_HAL_Driver/Src/stm32n6xx_hal_spi.c **** 
1354:STM32Cube_FW_N6/Drivers/STM32N6xx_HAL_Driver/Src/stm32n6xx_hal_spi.c ****   initial_TxXferCount = Size;
 3564              		.loc 1 1354 23
 3565 0042 7B88     		ldrh	r3, [r7, #2]	@ movhi
 3566 0044 7B85     		strh	r3, [r7, #42]	@ movhi
1355:STM32Cube_FW_N6/Drivers/STM32N6xx_HAL_Driver/Src/stm32n6xx_hal_spi.c ****   initial_RxXferCount = Size;
 3567              		.loc 1 1355 23
 3568 0046 7B88     		ldrh	r3, [r7, #2]	@ movhi
 3569 0048 3B85     		strh	r3, [r7, #40]	@ movhi
1356:STM32Cube_FW_N6/Drivers/STM32N6xx_HAL_Driver/Src/stm32n6xx_hal_spi.c **** 
1357:STM32Cube_FW_N6/Drivers/STM32N6xx_HAL_Driver/Src/stm32n6xx_hal_spi.c ****   if (hspi->State != HAL_SPI_STATE_READY)
 3570              		.loc 1 1357 11
 3571 004a FB68     		ldr	r3, [r7, #12]
 3572 004c 93F88930 		ldrb	r3, [r3, #137]
 3573 0050 DBB2     		uxtb	r3, r3
 3574              		.loc 1 1357 6
 3575 0052 012B     		cmp	r3, #1
 3576 0054 01D0     		beq	.L163
1358:STM32Cube_FW_N6/Drivers/STM32N6xx_HAL_Driver/Src/stm32n6xx_hal_spi.c ****   {
1359:STM32Cube_FW_N6/Drivers/STM32N6xx_HAL_Driver/Src/stm32n6xx_hal_spi.c ****     return HAL_BUSY;
 3577              		.loc 1 1359 12
 3578 0056 0223     		movs	r3, #2
 3579 0058 5CE3     		b	.L164
 3580              	.L163:
1360:STM32Cube_FW_N6/Drivers/STM32N6xx_HAL_Driver/Src/stm32n6xx_hal_spi.c ****   }
1361:STM32Cube_FW_N6/Drivers/STM32N6xx_HAL_Driver/Src/stm32n6xx_hal_spi.c **** 
1362:STM32Cube_FW_N6/Drivers/STM32N6xx_HAL_Driver/Src/stm32n6xx_hal_spi.c ****   if ((pTxData == NULL) || (pRxData == NULL) || (Size == 0UL))
 3581              		.loc 1 1362 6
 3582 005a BB68     		ldr	r3, [r7, #8]
 3583 005c 002B     		cmp	r3, #0
ARM GAS  /tmp/ccwTXtVb.s 			page 88


 3584 005e 05D0     		beq	.L165
 3585              		.loc 1 1362 25 discriminator 1
 3586 0060 7B68     		ldr	r3, [r7, #4]
 3587 0062 002B     		cmp	r3, #0
 3588 0064 02D0     		beq	.L165
 3589              		.loc 1 1362 46 discriminator 2
 3590 0066 7B88     		ldrh	r3, [r7, #2]
 3591 0068 002B     		cmp	r3, #0
 3592 006a 01D1     		bne	.L166
 3593              	.L165:
1363:STM32Cube_FW_N6/Drivers/STM32N6xx_HAL_Driver/Src/stm32n6xx_hal_spi.c ****   {
1364:STM32Cube_FW_N6/Drivers/STM32N6xx_HAL_Driver/Src/stm32n6xx_hal_spi.c ****     return HAL_ERROR;
 3594              		.loc 1 1364 12
 3595 006c 0123     		movs	r3, #1
 3596 006e 51E3     		b	.L164
 3597              	.L166:
1365:STM32Cube_FW_N6/Drivers/STM32N6xx_HAL_Driver/Src/stm32n6xx_hal_spi.c ****   }
1366:STM32Cube_FW_N6/Drivers/STM32N6xx_HAL_Driver/Src/stm32n6xx_hal_spi.c **** 
1367:STM32Cube_FW_N6/Drivers/STM32N6xx_HAL_Driver/Src/stm32n6xx_hal_spi.c ****   /* Lock the process */
1368:STM32Cube_FW_N6/Drivers/STM32N6xx_HAL_Driver/Src/stm32n6xx_hal_spi.c ****   __HAL_LOCK(hspi);
 3598              		.loc 1 1368 3
 3599 0070 FB68     		ldr	r3, [r7, #12]
 3600 0072 93F88830 		ldrb	r3, [r3, #136]	@ zero_extendqisi2
 3601 0076 012B     		cmp	r3, #1
 3602 0078 01D1     		bne	.L167
 3603              		.loc 1 1368 3 is_stmt 0 discriminator 1
 3604 007a 0223     		movs	r3, #2
 3605              		.loc 1 1368 3
 3606 007c 4AE3     		b	.L164
 3607              	.L167:
 3608              		.loc 1 1368 3 discriminator 2
 3609 007e FB68     		ldr	r3, [r7, #12]
 3610 0080 0122     		movs	r2, #1
 3611 0082 83F88820 		strb	r2, [r3, #136]
1369:STM32Cube_FW_N6/Drivers/STM32N6xx_HAL_Driver/Src/stm32n6xx_hal_spi.c **** 
1370:STM32Cube_FW_N6/Drivers/STM32N6xx_HAL_Driver/Src/stm32n6xx_hal_spi.c ****   /* Set the transaction information */
1371:STM32Cube_FW_N6/Drivers/STM32N6xx_HAL_Driver/Src/stm32n6xx_hal_spi.c ****   hspi->State       = HAL_SPI_STATE_BUSY_TX_RX;
 3612              		.loc 1 1371 21 is_stmt 1
 3613 0086 FB68     		ldr	r3, [r7, #12]
 3614 0088 0522     		movs	r2, #5
 3615 008a 83F88920 		strb	r2, [r3, #137]
1372:STM32Cube_FW_N6/Drivers/STM32N6xx_HAL_Driver/Src/stm32n6xx_hal_spi.c ****   hspi->ErrorCode   = HAL_SPI_ERROR_NONE;
 3616              		.loc 1 1372 21
 3617 008e FB68     		ldr	r3, [r7, #12]
 3618 0090 0022     		movs	r2, #0
 3619 0092 C3F88C20 		str	r2, [r3, #140]
1373:STM32Cube_FW_N6/Drivers/STM32N6xx_HAL_Driver/Src/stm32n6xx_hal_spi.c ****   hspi->pRxBuffPtr  = (uint8_t *)pRxData;
 3620              		.loc 1 1373 21
 3621 0096 FB68     		ldr	r3, [r7, #12]
 3622 0098 7A68     		ldr	r2, [r7, #4]
 3623 009a DA66     		str	r2, [r3, #108]
1374:STM32Cube_FW_N6/Drivers/STM32N6xx_HAL_Driver/Src/stm32n6xx_hal_spi.c ****   hspi->RxXferCount = Size;
 3624              		.loc 1 1374 21
 3625 009c FB68     		ldr	r3, [r7, #12]
 3626 009e 7A88     		ldrh	r2, [r7, #2]	@ movhi
 3627 00a0 A3F87220 		strh	r2, [r3, #114]	@ movhi
1375:STM32Cube_FW_N6/Drivers/STM32N6xx_HAL_Driver/Src/stm32n6xx_hal_spi.c ****   hspi->RxXferSize  = Size;
ARM GAS  /tmp/ccwTXtVb.s 			page 89


 3628              		.loc 1 1375 21
 3629 00a4 FB68     		ldr	r3, [r7, #12]
 3630 00a6 7A88     		ldrh	r2, [r7, #2]	@ movhi
 3631 00a8 A3F87020 		strh	r2, [r3, #112]	@ movhi
1376:STM32Cube_FW_N6/Drivers/STM32N6xx_HAL_Driver/Src/stm32n6xx_hal_spi.c ****   hspi->pTxBuffPtr  = (const uint8_t *)pTxData;
 3632              		.loc 1 1376 21
 3633 00ac FB68     		ldr	r3, [r7, #12]
 3634 00ae BA68     		ldr	r2, [r7, #8]
 3635 00b0 5A66     		str	r2, [r3, #100]
1377:STM32Cube_FW_N6/Drivers/STM32N6xx_HAL_Driver/Src/stm32n6xx_hal_spi.c ****   hspi->TxXferCount = Size;
 3636              		.loc 1 1377 21
 3637 00b2 FB68     		ldr	r3, [r7, #12]
 3638 00b4 7A88     		ldrh	r2, [r7, #2]	@ movhi
 3639 00b6 A3F86A20 		strh	r2, [r3, #106]	@ movhi
1378:STM32Cube_FW_N6/Drivers/STM32N6xx_HAL_Driver/Src/stm32n6xx_hal_spi.c ****   hspi->TxXferSize  = Size;
 3640              		.loc 1 1378 21
 3641 00ba FB68     		ldr	r3, [r7, #12]
 3642 00bc 7A88     		ldrh	r2, [r7, #2]	@ movhi
 3643 00be A3F86820 		strh	r2, [r3, #104]	@ movhi
1379:STM32Cube_FW_N6/Drivers/STM32N6xx_HAL_Driver/Src/stm32n6xx_hal_spi.c **** 
1380:STM32Cube_FW_N6/Drivers/STM32N6xx_HAL_Driver/Src/stm32n6xx_hal_spi.c ****   /*Init field not used in handle to zero */
1381:STM32Cube_FW_N6/Drivers/STM32N6xx_HAL_Driver/Src/stm32n6xx_hal_spi.c ****   hspi->RxISR       = NULL;
 3644              		.loc 1 1381 21
 3645 00c2 FB68     		ldr	r3, [r7, #12]
 3646 00c4 0022     		movs	r2, #0
 3647 00c6 9A67     		str	r2, [r3, #120]
1382:STM32Cube_FW_N6/Drivers/STM32N6xx_HAL_Driver/Src/stm32n6xx_hal_spi.c ****   hspi->TxISR       = NULL;
 3648              		.loc 1 1382 21
 3649 00c8 FB68     		ldr	r3, [r7, #12]
 3650 00ca 0022     		movs	r2, #0
 3651 00cc DA67     		str	r2, [r3, #124]
1383:STM32Cube_FW_N6/Drivers/STM32N6xx_HAL_Driver/Src/stm32n6xx_hal_spi.c **** 
1384:STM32Cube_FW_N6/Drivers/STM32N6xx_HAL_Driver/Src/stm32n6xx_hal_spi.c ****   /* Set Full-Duplex mode */
1385:STM32Cube_FW_N6/Drivers/STM32N6xx_HAL_Driver/Src/stm32n6xx_hal_spi.c ****   SPI_2LINES(hspi);
 3652              		.loc 1 1385 3
 3653 00ce FB68     		ldr	r3, [r7, #12]
 3654 00d0 1B68     		ldr	r3, [r3]
 3655 00d2 DA68     		ldr	r2, [r3, #12]
 3656 00d4 FB68     		ldr	r3, [r7, #12]
 3657 00d6 1B68     		ldr	r3, [r3]
 3658 00d8 22F4C022 		bic	r2, r2, #393216
 3659 00dc DA60     		str	r2, [r3, #12]
1386:STM32Cube_FW_N6/Drivers/STM32N6xx_HAL_Driver/Src/stm32n6xx_hal_spi.c **** 
1387:STM32Cube_FW_N6/Drivers/STM32N6xx_HAL_Driver/Src/stm32n6xx_hal_spi.c ****   /* Initialize FIFO length */
1388:STM32Cube_FW_N6/Drivers/STM32N6xx_HAL_Driver/Src/stm32n6xx_hal_spi.c ****   if (IS_SPI_FULL_INSTANCE(hspi->Instance))
 3660              		.loc 1 1388 7
 3661 00de FB68     		ldr	r3, [r7, #12]
 3662 00e0 1B68     		ldr	r3, [r3]
 3663              		.loc 1 1388 6
 3664 00e2 3F4A     		ldr	r2, .L204+4
 3665 00e4 9342     		cmp	r3, r2
 3666 00e6 22D0     		beq	.L168
 3667              		.loc 1 1388 7 discriminator 1
 3668 00e8 FB68     		ldr	r3, [r7, #12]
 3669 00ea 1B68     		ldr	r3, [r3]
 3670 00ec 3D4A     		ldr	r2, .L204+8
 3671 00ee 9342     		cmp	r3, r2
ARM GAS  /tmp/ccwTXtVb.s 			page 90


 3672 00f0 1DD0     		beq	.L168
 3673              		.loc 1 1388 7 is_stmt 0 discriminator 2
 3674 00f2 FB68     		ldr	r3, [r7, #12]
 3675 00f4 1B68     		ldr	r3, [r3]
 3676 00f6 3C4A     		ldr	r2, .L204+12
 3677 00f8 9342     		cmp	r3, r2
 3678 00fa 18D0     		beq	.L168
 3679              		.loc 1 1388 7 discriminator 3
 3680 00fc FB68     		ldr	r3, [r7, #12]
 3681 00fe 1B68     		ldr	r3, [r3]
 3682 0100 3A4A     		ldr	r2, .L204+16
 3683 0102 9342     		cmp	r3, r2
 3684 0104 13D0     		beq	.L168
 3685              		.loc 1 1388 7 discriminator 4
 3686 0106 FB68     		ldr	r3, [r7, #12]
 3687 0108 1B68     		ldr	r3, [r3]
 3688 010a 394A     		ldr	r2, .L204+20
 3689 010c 9342     		cmp	r3, r2
 3690 010e 0ED0     		beq	.L168
 3691              		.loc 1 1388 7 discriminator 5
 3692 0110 FB68     		ldr	r3, [r7, #12]
 3693 0112 1B68     		ldr	r3, [r3]
 3694 0114 374A     		ldr	r2, .L204+24
 3695 0116 9342     		cmp	r3, r2
 3696 0118 09D0     		beq	.L168
 3697              		.loc 1 1388 7 discriminator 6
 3698 011a FB68     		ldr	r3, [r7, #12]
 3699 011c 1B68     		ldr	r3, [r3]
 3700 011e 364A     		ldr	r2, .L204+28
 3701 0120 9342     		cmp	r3, r2
 3702 0122 04D0     		beq	.L168
 3703              		.loc 1 1388 7 discriminator 7
 3704 0124 FB68     		ldr	r3, [r7, #12]
 3705 0126 1B68     		ldr	r3, [r3]
 3706 0128 344A     		ldr	r2, .L204+32
 3707 012a 9342     		cmp	r3, r2
 3708 012c 02D1     		bne	.L169
 3709              	.L168:
1389:STM32Cube_FW_N6/Drivers/STM32N6xx_HAL_Driver/Src/stm32n6xx_hal_spi.c ****   {
1390:STM32Cube_FW_N6/Drivers/STM32N6xx_HAL_Driver/Src/stm32n6xx_hal_spi.c ****     fifo_length = SPI_HIGHEND_FIFO_SIZE;
 3710              		.loc 1 1390 17 is_stmt 1
 3711 012e 1023     		movs	r3, #16
 3712 0130 FB62     		str	r3, [r7, #44]
 3713 0132 01E0     		b	.L170
 3714              	.L169:
1391:STM32Cube_FW_N6/Drivers/STM32N6xx_HAL_Driver/Src/stm32n6xx_hal_spi.c ****   }
1392:STM32Cube_FW_N6/Drivers/STM32N6xx_HAL_Driver/Src/stm32n6xx_hal_spi.c ****   else
1393:STM32Cube_FW_N6/Drivers/STM32N6xx_HAL_Driver/Src/stm32n6xx_hal_spi.c ****   {
1394:STM32Cube_FW_N6/Drivers/STM32N6xx_HAL_Driver/Src/stm32n6xx_hal_spi.c ****     fifo_length = SPI_LOWEND_FIFO_SIZE;
 3715              		.loc 1 1394 17
 3716 0134 0823     		movs	r3, #8
 3717 0136 FB62     		str	r3, [r7, #44]
 3718              	.L170:
1395:STM32Cube_FW_N6/Drivers/STM32N6xx_HAL_Driver/Src/stm32n6xx_hal_spi.c ****   }
1396:STM32Cube_FW_N6/Drivers/STM32N6xx_HAL_Driver/Src/stm32n6xx_hal_spi.c **** 
1397:STM32Cube_FW_N6/Drivers/STM32N6xx_HAL_Driver/Src/stm32n6xx_hal_spi.c ****   /* Set the number of data at current transfer */
1398:STM32Cube_FW_N6/Drivers/STM32N6xx_HAL_Driver/Src/stm32n6xx_hal_spi.c ****   MODIFY_REG(hspi->Instance->CR2, SPI_CR2_TSIZE, Size);
ARM GAS  /tmp/ccwTXtVb.s 			page 91


 3719              		.loc 1 1398 3
 3720 0138 FB68     		ldr	r3, [r7, #12]
 3721 013a 1B68     		ldr	r3, [r3]
 3722 013c 5B68     		ldr	r3, [r3, #4]
 3723 013e 1B0C     		lsrs	r3, r3, #16
 3724 0140 1B04     		lsls	r3, r3, #16
 3725 0142 7988     		ldrh	r1, [r7, #2]
 3726 0144 FA68     		ldr	r2, [r7, #12]
 3727 0146 1268     		ldr	r2, [r2]
 3728 0148 0B43     		orrs	r3, r3, r1
 3729 014a 5360     		str	r3, [r2, #4]
1399:STM32Cube_FW_N6/Drivers/STM32N6xx_HAL_Driver/Src/stm32n6xx_hal_spi.c **** 
1400:STM32Cube_FW_N6/Drivers/STM32N6xx_HAL_Driver/Src/stm32n6xx_hal_spi.c ****   __HAL_SPI_ENABLE(hspi);
 3730              		.loc 1 1400 3
 3731 014c FB68     		ldr	r3, [r7, #12]
 3732 014e 1B68     		ldr	r3, [r3]
 3733 0150 1A68     		ldr	r2, [r3]
 3734 0152 FB68     		ldr	r3, [r7, #12]
 3735 0154 1B68     		ldr	r3, [r3]
 3736 0156 42F00102 		orr	r2, r2, #1
 3737 015a 1A60     		str	r2, [r3]
1401:STM32Cube_FW_N6/Drivers/STM32N6xx_HAL_Driver/Src/stm32n6xx_hal_spi.c **** 
1402:STM32Cube_FW_N6/Drivers/STM32N6xx_HAL_Driver/Src/stm32n6xx_hal_spi.c ****   if (hspi->Init.Mode == SPI_MODE_MASTER)
 3738              		.loc 1 1402 17
 3739 015c FB68     		ldr	r3, [r7, #12]
 3740 015e 5B68     		ldr	r3, [r3, #4]
 3741              		.loc 1 1402 6
 3742 0160 B3F5800F 		cmp	r3, #4194304
 3743 0164 07D1     		bne	.L171
1403:STM32Cube_FW_N6/Drivers/STM32N6xx_HAL_Driver/Src/stm32n6xx_hal_spi.c ****   {
1404:STM32Cube_FW_N6/Drivers/STM32N6xx_HAL_Driver/Src/stm32n6xx_hal_spi.c ****     /* Master transfer start */
1405:STM32Cube_FW_N6/Drivers/STM32N6xx_HAL_Driver/Src/stm32n6xx_hal_spi.c ****     SET_BIT(hspi->Instance->CR1, SPI_CR1_CSTART);
 3744              		.loc 1 1405 5
 3745 0166 FB68     		ldr	r3, [r7, #12]
 3746 0168 1B68     		ldr	r3, [r3]
 3747 016a 1A68     		ldr	r2, [r3]
 3748 016c FB68     		ldr	r3, [r7, #12]
 3749 016e 1B68     		ldr	r3, [r3]
 3750 0170 42F40072 		orr	r2, r2, #512
 3751 0174 1A60     		str	r2, [r3]
 3752              	.L171:
1406:STM32Cube_FW_N6/Drivers/STM32N6xx_HAL_Driver/Src/stm32n6xx_hal_spi.c ****   }
1407:STM32Cube_FW_N6/Drivers/STM32N6xx_HAL_Driver/Src/stm32n6xx_hal_spi.c **** 
1408:STM32Cube_FW_N6/Drivers/STM32N6xx_HAL_Driver/Src/stm32n6xx_hal_spi.c ****   /* Transmit and Receive data in 32 Bit mode */
1409:STM32Cube_FW_N6/Drivers/STM32N6xx_HAL_Driver/Src/stm32n6xx_hal_spi.c ****   if ((hspi->Init.DataSize > SPI_DATASIZE_16BIT) && (IS_SPI_FULL_INSTANCE(hspi->Instance)))
 3753              		.loc 1 1409 18
 3754 0176 FB68     		ldr	r3, [r7, #12]
 3755 0178 DB68     		ldr	r3, [r3, #12]
 3756              		.loc 1 1409 6
 3757 017a 0F2B     		cmp	r3, #15
 3758 017c 40F2DE80 		bls	.L172
 3759              		.loc 1 1409 54 discriminator 1
 3760 0180 FB68     		ldr	r3, [r7, #12]
 3761 0182 1B68     		ldr	r3, [r3]
 3762              		.loc 1 1409 50 discriminator 1
 3763 0184 164A     		ldr	r2, .L204+4
 3764 0186 9342     		cmp	r3, r2
ARM GAS  /tmp/ccwTXtVb.s 			page 92


 3765 0188 23D0     		beq	.L173
 3766              		.loc 1 1409 54 discriminator 2
 3767 018a FB68     		ldr	r3, [r7, #12]
 3768 018c 1B68     		ldr	r3, [r3]
 3769 018e 154A     		ldr	r2, .L204+8
 3770 0190 9342     		cmp	r3, r2
 3771 0192 1ED0     		beq	.L173
 3772              		.loc 1 1409 54 is_stmt 0 discriminator 3
 3773 0194 FB68     		ldr	r3, [r7, #12]
 3774 0196 1B68     		ldr	r3, [r3]
 3775 0198 134A     		ldr	r2, .L204+12
 3776 019a 9342     		cmp	r3, r2
 3777 019c 19D0     		beq	.L173
 3778              		.loc 1 1409 54 discriminator 4
 3779 019e FB68     		ldr	r3, [r7, #12]
 3780 01a0 1B68     		ldr	r3, [r3]
 3781 01a2 124A     		ldr	r2, .L204+16
 3782 01a4 9342     		cmp	r3, r2
 3783 01a6 14D0     		beq	.L173
 3784              		.loc 1 1409 54 discriminator 5
 3785 01a8 FB68     		ldr	r3, [r7, #12]
 3786 01aa 1B68     		ldr	r3, [r3]
 3787 01ac 104A     		ldr	r2, .L204+20
 3788 01ae 9342     		cmp	r3, r2
 3789 01b0 0FD0     		beq	.L173
 3790              		.loc 1 1409 54 discriminator 6
 3791 01b2 FB68     		ldr	r3, [r7, #12]
 3792 01b4 1B68     		ldr	r3, [r3]
 3793 01b6 0F4A     		ldr	r2, .L204+24
 3794 01b8 9342     		cmp	r3, r2
 3795 01ba 0AD0     		beq	.L173
 3796              		.loc 1 1409 54 discriminator 7
 3797 01bc FB68     		ldr	r3, [r7, #12]
 3798 01be 1B68     		ldr	r3, [r3]
 3799 01c0 0D4A     		ldr	r2, .L204+28
 3800 01c2 9342     		cmp	r3, r2
 3801 01c4 05D0     		beq	.L173
 3802              		.loc 1 1409 54 discriminator 8
 3803 01c6 FB68     		ldr	r3, [r7, #12]
 3804 01c8 1B68     		ldr	r3, [r3]
 3805 01ca 0C4A     		ldr	r2, .L204+32
 3806 01cc 9342     		cmp	r3, r2
 3807 01ce 40F0B580 		bne	.L172
 3808              	.L173:
1410:STM32Cube_FW_N6/Drivers/STM32N6xx_HAL_Driver/Src/stm32n6xx_hal_spi.c ****   {
1411:STM32Cube_FW_N6/Drivers/STM32N6xx_HAL_Driver/Src/stm32n6xx_hal_spi.c ****     /* Adapt fifo length to 32bits data width */
1412:STM32Cube_FW_N6/Drivers/STM32N6xx_HAL_Driver/Src/stm32n6xx_hal_spi.c ****     fifo_length = (fifo_length / 4UL);
 3809              		.loc 1 1412 17 is_stmt 1
 3810 01d2 FB6A     		ldr	r3, [r7, #44]
 3811 01d4 9B08     		lsrs	r3, r3, #2
 3812 01d6 FB62     		str	r3, [r7, #44]
1413:STM32Cube_FW_N6/Drivers/STM32N6xx_HAL_Driver/Src/stm32n6xx_hal_spi.c **** 
1414:STM32Cube_FW_N6/Drivers/STM32N6xx_HAL_Driver/Src/stm32n6xx_hal_spi.c ****     while ((initial_TxXferCount > 0UL) || (initial_RxXferCount > 0UL))
 3813              		.loc 1 1414 11
 3814 01d8 A7E0     		b	.L174
 3815              	.L205:
 3816 01da 00BF     		.align	2
ARM GAS  /tmp/ccwTXtVb.s 			page 93


 3817              	.L204:
 3818 01dc 00000000 		.word	.LC0
 3819 01e0 00300052 		.word	1375744000
 3820 01e4 00300042 		.word	1107308544
 3821 01e8 00380050 		.word	1342191616
 3822 01ec 00380040 		.word	1073756160
 3823 01f0 003C0050 		.word	1342192640
 3824 01f4 003C0040 		.word	1073757184
 3825 01f8 00140056 		.word	1442845696
 3826 01fc 00140046 		.word	1174410240
 3827              	.L181:
1415:STM32Cube_FW_N6/Drivers/STM32N6xx_HAL_Driver/Src/stm32n6xx_hal_spi.c ****     {
1416:STM32Cube_FW_N6/Drivers/STM32N6xx_HAL_Driver/Src/stm32n6xx_hal_spi.c ****       /* Check TXP flag */
1417:STM32Cube_FW_N6/Drivers/STM32N6xx_HAL_Driver/Src/stm32n6xx_hal_spi.c ****       if ((__HAL_SPI_GET_FLAG(hspi, SPI_FLAG_TXP)) && (initial_TxXferCount > 0UL) &&
 3828              		.loc 1 1417 12
 3829 0200 FB68     		ldr	r3, [r7, #12]
 3830 0202 1B68     		ldr	r3, [r3]
 3831 0204 5B69     		ldr	r3, [r3, #20]
 3832 0206 03F00203 		and	r3, r3, #2
 3833              		.loc 1 1417 10
 3834 020a 022B     		cmp	r3, #2
 3835 020c 20D1     		bne	.L175
 3836              		.loc 1 1417 52 discriminator 1
 3837 020e 7B8D     		ldrh	r3, [r7, #42]
 3838 0210 002B     		cmp	r3, #0
 3839 0212 1DD0     		beq	.L175
1418:STM32Cube_FW_N6/Drivers/STM32N6xx_HAL_Driver/Src/stm32n6xx_hal_spi.c ****           (initial_RxXferCount  < (initial_TxXferCount + fifo_length)))
 3840              		.loc 1 1418 33
 3841 0214 3A8D     		ldrh	r2, [r7, #40]
 3842              		.loc 1 1418 56
 3843 0216 798D     		ldrh	r1, [r7, #42]
 3844 0218 FB6A     		ldr	r3, [r7, #44]
 3845 021a 0B44     		add	r3, r3, r1
1417:STM32Cube_FW_N6/Drivers/STM32N6xx_HAL_Driver/Src/stm32n6xx_hal_spi.c ****           (initial_RxXferCount  < (initial_TxXferCount + fifo_length)))
 3846              		.loc 1 1417 83 discriminator 2
 3847 021c 9A42     		cmp	r2, r3
 3848 021e 17D2     		bcs	.L175
1419:STM32Cube_FW_N6/Drivers/STM32N6xx_HAL_Driver/Src/stm32n6xx_hal_spi.c ****       {
1420:STM32Cube_FW_N6/Drivers/STM32N6xx_HAL_Driver/Src/stm32n6xx_hal_spi.c ****         *((__IO uint32_t *)&hspi->Instance->TXDR) = *((const uint32_t *)hspi->pTxBuffPtr);
 3849              		.loc 1 1420 77
 3850 0220 FB68     		ldr	r3, [r7, #12]
 3851 0222 5A6E     		ldr	r2, [r3, #100]
 3852              		.loc 1 1420 33
 3853 0224 FB68     		ldr	r3, [r7, #12]
 3854 0226 1B68     		ldr	r3, [r3]
 3855              		.loc 1 1420 53
 3856 0228 1268     		ldr	r2, [r2]
 3857              		.loc 1 1420 51
 3858 022a 1A62     		str	r2, [r3, #32]
1421:STM32Cube_FW_N6/Drivers/STM32N6xx_HAL_Driver/Src/stm32n6xx_hal_spi.c ****         hspi->pTxBuffPtr += sizeof(uint32_t);
 3859              		.loc 1 1421 13
 3860 022c FB68     		ldr	r3, [r7, #12]
 3861 022e 5B6E     		ldr	r3, [r3, #100]
 3862              		.loc 1 1421 26
 3863 0230 1A1D     		adds	r2, r3, #4
 3864 0232 FB68     		ldr	r3, [r7, #12]
 3865 0234 5A66     		str	r2, [r3, #100]
ARM GAS  /tmp/ccwTXtVb.s 			page 94


1422:STM32Cube_FW_N6/Drivers/STM32N6xx_HAL_Driver/Src/stm32n6xx_hal_spi.c ****         hspi->TxXferCount --;
 3866              		.loc 1 1422 13
 3867 0236 FB68     		ldr	r3, [r7, #12]
 3868 0238 B3F86A30 		ldrh	r3, [r3, #106]	@ movhi
 3869 023c 9BB2     		uxth	r3, r3
 3870              		.loc 1 1422 27
 3871 023e 013B     		subs	r3, r3, #1
 3872 0240 9AB2     		uxth	r2, r3
 3873 0242 FB68     		ldr	r3, [r7, #12]
 3874 0244 A3F86A20 		strh	r2, [r3, #106]	@ movhi
1423:STM32Cube_FW_N6/Drivers/STM32N6xx_HAL_Driver/Src/stm32n6xx_hal_spi.c ****         initial_TxXferCount = hspi->TxXferCount;
 3875              		.loc 1 1423 29
 3876 0248 FB68     		ldr	r3, [r7, #12]
 3877 024a B3F86A30 		ldrh	r3, [r3, #106]	@ movhi
 3878 024e 7B85     		strh	r3, [r7, #42]	@ movhi
 3879              	.L175:
1424:STM32Cube_FW_N6/Drivers/STM32N6xx_HAL_Driver/Src/stm32n6xx_hal_spi.c ****       }
1425:STM32Cube_FW_N6/Drivers/STM32N6xx_HAL_Driver/Src/stm32n6xx_hal_spi.c **** 
1426:STM32Cube_FW_N6/Drivers/STM32N6xx_HAL_Driver/Src/stm32n6xx_hal_spi.c ****       /* Evaluate state of SR register */
1427:STM32Cube_FW_N6/Drivers/STM32N6xx_HAL_Driver/Src/stm32n6xx_hal_spi.c ****       temp_sr_reg = hspi->Instance->SR;
 3880              		.loc 1 1427 25
 3881 0250 FB68     		ldr	r3, [r7, #12]
 3882 0252 1B68     		ldr	r3, [r3]
 3883              		.loc 1 1427 19
 3884 0254 5B69     		ldr	r3, [r3, #20]
 3885 0256 7B61     		str	r3, [r7, #20]
1428:STM32Cube_FW_N6/Drivers/STM32N6xx_HAL_Driver/Src/stm32n6xx_hal_spi.c **** 
1429:STM32Cube_FW_N6/Drivers/STM32N6xx_HAL_Driver/Src/stm32n6xx_hal_spi.c ****       if (initial_RxXferCount > 0UL)
 3886              		.loc 1 1429 10
 3887 0258 3B8D     		ldrh	r3, [r7, #40]
 3888 025a 002B     		cmp	r3, #0
 3889 025c 65D0     		beq	.L174
1430:STM32Cube_FW_N6/Drivers/STM32N6xx_HAL_Driver/Src/stm32n6xx_hal_spi.c ****       {
1431:STM32Cube_FW_N6/Drivers/STM32N6xx_HAL_Driver/Src/stm32n6xx_hal_spi.c ****         /* Check the RXP flag */
1432:STM32Cube_FW_N6/Drivers/STM32N6xx_HAL_Driver/Src/stm32n6xx_hal_spi.c ****         if (__HAL_SPI_GET_FLAG(hspi, SPI_FLAG_RXP))
 3890              		.loc 1 1432 13
 3891 025e FB68     		ldr	r3, [r7, #12]
 3892 0260 1B68     		ldr	r3, [r3]
 3893 0262 5B69     		ldr	r3, [r3, #20]
 3894 0264 03F00103 		and	r3, r3, #1
 3895              		.loc 1 1432 12
 3896 0268 012B     		cmp	r3, #1
 3897 026a 18D1     		bne	.L177
1433:STM32Cube_FW_N6/Drivers/STM32N6xx_HAL_Driver/Src/stm32n6xx_hal_spi.c ****         {
1434:STM32Cube_FW_N6/Drivers/STM32N6xx_HAL_Driver/Src/stm32n6xx_hal_spi.c ****           *((uint32_t *)hspi->pRxBuffPtr) = *((__IO uint32_t *)&hspi->Instance->RXDR);
 3898              		.loc 1 1434 69
 3899 026c FB68     		ldr	r3, [r7, #12]
 3900 026e 1A68     		ldr	r2, [r3]
 3901              		.loc 1 1434 29
 3902 0270 FB68     		ldr	r3, [r7, #12]
 3903 0272 DB6E     		ldr	r3, [r3, #108]
 3904              		.loc 1 1434 45
 3905 0274 126B     		ldr	r2, [r2, #48]
 3906              		.loc 1 1434 43
 3907 0276 1A60     		str	r2, [r3]
1435:STM32Cube_FW_N6/Drivers/STM32N6xx_HAL_Driver/Src/stm32n6xx_hal_spi.c ****           hspi->pRxBuffPtr += sizeof(uint32_t);
 3908              		.loc 1 1435 15
ARM GAS  /tmp/ccwTXtVb.s 			page 95


 3909 0278 FB68     		ldr	r3, [r7, #12]
 3910 027a DB6E     		ldr	r3, [r3, #108]
 3911              		.loc 1 1435 28
 3912 027c 1A1D     		adds	r2, r3, #4
 3913 027e FB68     		ldr	r3, [r7, #12]
 3914 0280 DA66     		str	r2, [r3, #108]
1436:STM32Cube_FW_N6/Drivers/STM32N6xx_HAL_Driver/Src/stm32n6xx_hal_spi.c ****           hspi->RxXferCount--;
 3915              		.loc 1 1436 15
 3916 0282 FB68     		ldr	r3, [r7, #12]
 3917 0284 B3F87230 		ldrh	r3, [r3, #114]	@ movhi
 3918 0288 9BB2     		uxth	r3, r3
 3919              		.loc 1 1436 28
 3920 028a 013B     		subs	r3, r3, #1
 3921 028c 9AB2     		uxth	r2, r3
 3922 028e FB68     		ldr	r3, [r7, #12]
 3923 0290 A3F87220 		strh	r2, [r3, #114]	@ movhi
1437:STM32Cube_FW_N6/Drivers/STM32N6xx_HAL_Driver/Src/stm32n6xx_hal_spi.c ****           initial_RxXferCount = hspi->RxXferCount;
 3924              		.loc 1 1437 31
 3925 0294 FB68     		ldr	r3, [r7, #12]
 3926 0296 B3F87230 		ldrh	r3, [r3, #114]	@ movhi
 3927 029a 3B85     		strh	r3, [r7, #40]	@ movhi
 3928 029c 45E0     		b	.L174
 3929              	.L177:
1438:STM32Cube_FW_N6/Drivers/STM32N6xx_HAL_Driver/Src/stm32n6xx_hal_spi.c ****         }
1439:STM32Cube_FW_N6/Drivers/STM32N6xx_HAL_Driver/Src/stm32n6xx_hal_spi.c ****         /* Check RXWNE flag if RXP cannot be reached */
1440:STM32Cube_FW_N6/Drivers/STM32N6xx_HAL_Driver/Src/stm32n6xx_hal_spi.c ****         else if ((initial_RxXferCount < init_max_data_in_fifo) && ((temp_sr_reg & SPI_SR_RXWNE_Msk)
 3930              		.loc 1 1440 17
 3931 029e 3A8D     		ldrh	r2, [r7, #40]
 3932 02a0 FB8B     		ldrh	r3, [r7, #30]
 3933 02a2 9A42     		cmp	r2, r3
 3934 02a4 1DD2     		bcs	.L178
 3935              		.loc 1 1440 81 discriminator 1
 3936 02a6 7B69     		ldr	r3, [r7, #20]
 3937 02a8 03F40043 		and	r3, r3, #32768
 3938              		.loc 1 1440 64 discriminator 1
 3939 02ac 002B     		cmp	r3, #0
 3940 02ae 18D0     		beq	.L178
1441:STM32Cube_FW_N6/Drivers/STM32N6xx_HAL_Driver/Src/stm32n6xx_hal_spi.c ****         {
1442:STM32Cube_FW_N6/Drivers/STM32N6xx_HAL_Driver/Src/stm32n6xx_hal_spi.c ****           *((uint32_t *)hspi->pRxBuffPtr) = *((__IO uint32_t *)&hspi->Instance->RXDR);
 3941              		.loc 1 1442 69
 3942 02b0 FB68     		ldr	r3, [r7, #12]
 3943 02b2 1A68     		ldr	r2, [r3]
 3944              		.loc 1 1442 29
 3945 02b4 FB68     		ldr	r3, [r7, #12]
 3946 02b6 DB6E     		ldr	r3, [r3, #108]
 3947              		.loc 1 1442 45
 3948 02b8 126B     		ldr	r2, [r2, #48]
 3949              		.loc 1 1442 43
 3950 02ba 1A60     		str	r2, [r3]
1443:STM32Cube_FW_N6/Drivers/STM32N6xx_HAL_Driver/Src/stm32n6xx_hal_spi.c ****           hspi->pRxBuffPtr += sizeof(uint32_t);
 3951              		.loc 1 1443 15
 3952 02bc FB68     		ldr	r3, [r7, #12]
 3953 02be DB6E     		ldr	r3, [r3, #108]
 3954              		.loc 1 1443 28
 3955 02c0 1A1D     		adds	r2, r3, #4
 3956 02c2 FB68     		ldr	r3, [r7, #12]
 3957 02c4 DA66     		str	r2, [r3, #108]
ARM GAS  /tmp/ccwTXtVb.s 			page 96


1444:STM32Cube_FW_N6/Drivers/STM32N6xx_HAL_Driver/Src/stm32n6xx_hal_spi.c ****           hspi->RxXferCount--;
 3958              		.loc 1 1444 15
 3959 02c6 FB68     		ldr	r3, [r7, #12]
 3960 02c8 B3F87230 		ldrh	r3, [r3, #114]	@ movhi
 3961 02cc 9BB2     		uxth	r3, r3
 3962              		.loc 1 1444 28
 3963 02ce 013B     		subs	r3, r3, #1
 3964 02d0 9AB2     		uxth	r2, r3
 3965 02d2 FB68     		ldr	r3, [r7, #12]
 3966 02d4 A3F87220 		strh	r2, [r3, #114]	@ movhi
1445:STM32Cube_FW_N6/Drivers/STM32N6xx_HAL_Driver/Src/stm32n6xx_hal_spi.c ****           initial_RxXferCount = hspi->RxXferCount;
 3967              		.loc 1 1445 31
 3968 02d8 FB68     		ldr	r3, [r7, #12]
 3969 02da B3F87230 		ldrh	r3, [r3, #114]	@ movhi
 3970 02de 3B85     		strh	r3, [r7, #40]	@ movhi
 3971 02e0 23E0     		b	.L174
 3972              	.L178:
1446:STM32Cube_FW_N6/Drivers/STM32N6xx_HAL_Driver/Src/stm32n6xx_hal_spi.c ****         }
1447:STM32Cube_FW_N6/Drivers/STM32N6xx_HAL_Driver/Src/stm32n6xx_hal_spi.c ****         else
1448:STM32Cube_FW_N6/Drivers/STM32N6xx_HAL_Driver/Src/stm32n6xx_hal_spi.c ****         {
1449:STM32Cube_FW_N6/Drivers/STM32N6xx_HAL_Driver/Src/stm32n6xx_hal_spi.c ****           /* Timeout management */
1450:STM32Cube_FW_N6/Drivers/STM32N6xx_HAL_Driver/Src/stm32n6xx_hal_spi.c ****           if ((((HAL_GetTick() - tickstart) >=  Timeout) && (Timeout != HAL_MAX_DELAY)) || (Timeout
 3973              		.loc 1 1450 18
 3974 02e2 FFF7FEFF 		bl	HAL_GetTick
 3975 02e6 0246     		mov	r2, r0
 3976              		.loc 1 1450 32 discriminator 1
 3977 02e8 BB69     		ldr	r3, [r7, #24]
 3978 02ea D31A     		subs	r3, r2, r3
 3979              		.loc 1 1450 14 discriminator 1
 3980 02ec BA6B     		ldr	r2, [r7, #56]
 3981 02ee 9A42     		cmp	r2, r3
 3982 02f0 03D8     		bhi	.L179
 3983              		.loc 1 1450 58 discriminator 1
 3984 02f2 BB6B     		ldr	r3, [r7, #56]
 3985 02f4 B3F1FF3F 		cmp	r3, #-1
 3986 02f8 02D1     		bne	.L180
 3987              	.L179:
 3988              		.loc 1 1450 89 discriminator 3
 3989 02fa BB6B     		ldr	r3, [r7, #56]
 3990 02fc 002B     		cmp	r3, #0
 3991 02fe 14D1     		bne	.L174
 3992              	.L180:
1451:STM32Cube_FW_N6/Drivers/STM32N6xx_HAL_Driver/Src/stm32n6xx_hal_spi.c ****           {
1452:STM32Cube_FW_N6/Drivers/STM32N6xx_HAL_Driver/Src/stm32n6xx_hal_spi.c ****             /* Call standard close procedure with error check */
1453:STM32Cube_FW_N6/Drivers/STM32N6xx_HAL_Driver/Src/stm32n6xx_hal_spi.c ****             SPI_CloseTransfer(hspi);
 3993              		.loc 1 1453 13
 3994 0300 F868     		ldr	r0, [r7, #12]
 3995 0302 FFF7FEFF 		bl	SPI_CloseTransfer
1454:STM32Cube_FW_N6/Drivers/STM32N6xx_HAL_Driver/Src/stm32n6xx_hal_spi.c **** 
1455:STM32Cube_FW_N6/Drivers/STM32N6xx_HAL_Driver/Src/stm32n6xx_hal_spi.c ****             SET_BIT(hspi->ErrorCode, HAL_SPI_ERROR_TIMEOUT);
 3996              		.loc 1 1455 13
 3997 0306 FB68     		ldr	r3, [r7, #12]
 3998 0308 D3F88C30 		ldr	r3, [r3, #140]
 3999 030c 43F48072 		orr	r2, r3, #256
 4000 0310 FB68     		ldr	r3, [r7, #12]
 4001 0312 C3F88C20 		str	r2, [r3, #140]
1456:STM32Cube_FW_N6/Drivers/STM32N6xx_HAL_Driver/Src/stm32n6xx_hal_spi.c ****             hspi->State = HAL_SPI_STATE_READY;
ARM GAS  /tmp/ccwTXtVb.s 			page 97


 4002              		.loc 1 1456 25
 4003 0316 FB68     		ldr	r3, [r7, #12]
 4004 0318 0122     		movs	r2, #1
 4005 031a 83F88920 		strb	r2, [r3, #137]
1457:STM32Cube_FW_N6/Drivers/STM32N6xx_HAL_Driver/Src/stm32n6xx_hal_spi.c **** 
1458:STM32Cube_FW_N6/Drivers/STM32N6xx_HAL_Driver/Src/stm32n6xx_hal_spi.c ****             /* Unlock the process */
1459:STM32Cube_FW_N6/Drivers/STM32N6xx_HAL_Driver/Src/stm32n6xx_hal_spi.c ****             __HAL_UNLOCK(hspi);
 4006              		.loc 1 1459 13
 4007 031e FB68     		ldr	r3, [r7, #12]
 4008 0320 0022     		movs	r2, #0
 4009 0322 83F88820 		strb	r2, [r3, #136]
1460:STM32Cube_FW_N6/Drivers/STM32N6xx_HAL_Driver/Src/stm32n6xx_hal_spi.c **** 
1461:STM32Cube_FW_N6/Drivers/STM32N6xx_HAL_Driver/Src/stm32n6xx_hal_spi.c ****             return HAL_TIMEOUT;
 4010              		.loc 1 1461 20
 4011 0326 0323     		movs	r3, #3
 4012 0328 F4E1     		b	.L164
 4013              	.L174:
1414:STM32Cube_FW_N6/Drivers/STM32N6xx_HAL_Driver/Src/stm32n6xx_hal_spi.c ****     {
 4014              		.loc 1 1414 40
 4015 032a 7B8D     		ldrh	r3, [r7, #42]
 4016 032c 002B     		cmp	r3, #0
 4017 032e 7FF467AF 		bne	.L181
1414:STM32Cube_FW_N6/Drivers/STM32N6xx_HAL_Driver/Src/stm32n6xx_hal_spi.c ****     {
 4018              		.loc 1 1414 40 is_stmt 0 discriminator 1
 4019 0332 3B8D     		ldrh	r3, [r7, #40]
 4020 0334 002B     		cmp	r3, #0
 4021 0336 7FF463AF 		bne	.L181
1409:STM32Cube_FW_N6/Drivers/STM32N6xx_HAL_Driver/Src/stm32n6xx_hal_spi.c ****   {
 4022              		.loc 1 1409 6 is_stmt 1
 4023 033a C5E1     		b	.L182
 4024              	.L172:
1462:STM32Cube_FW_N6/Drivers/STM32N6xx_HAL_Driver/Src/stm32n6xx_hal_spi.c ****           }
1463:STM32Cube_FW_N6/Drivers/STM32N6xx_HAL_Driver/Src/stm32n6xx_hal_spi.c ****         }
1464:STM32Cube_FW_N6/Drivers/STM32N6xx_HAL_Driver/Src/stm32n6xx_hal_spi.c ****       }
1465:STM32Cube_FW_N6/Drivers/STM32N6xx_HAL_Driver/Src/stm32n6xx_hal_spi.c ****     }
1466:STM32Cube_FW_N6/Drivers/STM32N6xx_HAL_Driver/Src/stm32n6xx_hal_spi.c ****   }
1467:STM32Cube_FW_N6/Drivers/STM32N6xx_HAL_Driver/Src/stm32n6xx_hal_spi.c ****   /* Transmit and Receive data in 16 Bit mode */
1468:STM32Cube_FW_N6/Drivers/STM32N6xx_HAL_Driver/Src/stm32n6xx_hal_spi.c ****   else if (hspi->Init.DataSize > SPI_DATASIZE_8BIT)
 4025              		.loc 1 1468 22
 4026 033c FB68     		ldr	r3, [r7, #12]
 4027 033e DB68     		ldr	r3, [r3, #12]
 4028              		.loc 1 1468 11
 4029 0340 072B     		cmp	r3, #7
 4030 0342 40F2B981 		bls	.L193
1469:STM32Cube_FW_N6/Drivers/STM32N6xx_HAL_Driver/Src/stm32n6xx_hal_spi.c ****   {
1470:STM32Cube_FW_N6/Drivers/STM32N6xx_HAL_Driver/Src/stm32n6xx_hal_spi.c ****     /* Adapt fifo length to 16bits data width */
1471:STM32Cube_FW_N6/Drivers/STM32N6xx_HAL_Driver/Src/stm32n6xx_hal_spi.c ****     fifo_length = (fifo_length / 2UL);
 4031              		.loc 1 1471 17
 4032 0346 FB6A     		ldr	r3, [r7, #44]
 4033 0348 5B08     		lsrs	r3, r3, #1
 4034 034a FB62     		str	r3, [r7, #44]
1472:STM32Cube_FW_N6/Drivers/STM32N6xx_HAL_Driver/Src/stm32n6xx_hal_spi.c **** 
1473:STM32Cube_FW_N6/Drivers/STM32N6xx_HAL_Driver/Src/stm32n6xx_hal_spi.c ****     while ((initial_TxXferCount > 0UL) || (initial_RxXferCount > 0UL))
 4035              		.loc 1 1473 11
 4036 034c C0E0     		b	.L184
 4037              	.L192:
1474:STM32Cube_FW_N6/Drivers/STM32N6xx_HAL_Driver/Src/stm32n6xx_hal_spi.c ****     {
ARM GAS  /tmp/ccwTXtVb.s 			page 98


1475:STM32Cube_FW_N6/Drivers/STM32N6xx_HAL_Driver/Src/stm32n6xx_hal_spi.c ****       /* Check the TXP flag */
1476:STM32Cube_FW_N6/Drivers/STM32N6xx_HAL_Driver/Src/stm32n6xx_hal_spi.c ****       if ((__HAL_SPI_GET_FLAG(hspi, SPI_FLAG_TXP)) && (initial_TxXferCount > 0UL) &&
 4038              		.loc 1 1476 12
 4039 034e FB68     		ldr	r3, [r7, #12]
 4040 0350 1B68     		ldr	r3, [r3]
 4041 0352 5B69     		ldr	r3, [r3, #20]
 4042 0354 03F00203 		and	r3, r3, #2
 4043              		.loc 1 1476 10
 4044 0358 022B     		cmp	r3, #2
 4045 035a 1FD1     		bne	.L185
 4046              		.loc 1 1476 52 discriminator 1
 4047 035c 7B8D     		ldrh	r3, [r7, #42]
 4048 035e 002B     		cmp	r3, #0
 4049 0360 1CD0     		beq	.L185
1477:STM32Cube_FW_N6/Drivers/STM32N6xx_HAL_Driver/Src/stm32n6xx_hal_spi.c ****           (initial_RxXferCount  < (initial_TxXferCount + fifo_length)))
 4050              		.loc 1 1477 33
 4051 0362 3A8D     		ldrh	r2, [r7, #40]
 4052              		.loc 1 1477 56
 4053 0364 798D     		ldrh	r1, [r7, #42]
 4054 0366 FB6A     		ldr	r3, [r7, #44]
 4055 0368 0B44     		add	r3, r3, r1
1476:STM32Cube_FW_N6/Drivers/STM32N6xx_HAL_Driver/Src/stm32n6xx_hal_spi.c ****           (initial_RxXferCount  < (initial_TxXferCount + fifo_length)))
 4056              		.loc 1 1476 83 discriminator 2
 4057 036a 9A42     		cmp	r2, r3
 4058 036c 16D2     		bcs	.L185
1478:STM32Cube_FW_N6/Drivers/STM32N6xx_HAL_Driver/Src/stm32n6xx_hal_spi.c ****       {
1479:STM32Cube_FW_N6/Drivers/STM32N6xx_HAL_Driver/Src/stm32n6xx_hal_spi.c **** #if defined (__GNUC__)
1480:STM32Cube_FW_N6/Drivers/STM32N6xx_HAL_Driver/Src/stm32n6xx_hal_spi.c ****         *ptxdr_16bits = *((const uint16_t *)hspi->pTxBuffPtr);
 4059              		.loc 1 1480 49
 4060 036e FB68     		ldr	r3, [r7, #12]
 4061 0370 5B6E     		ldr	r3, [r3, #100]
 4062              		.loc 1 1480 25
 4063 0372 1A88     		ldrh	r2, [r3]
 4064              		.loc 1 1480 23
 4065 0374 7B6A     		ldr	r3, [r7, #36]
 4066 0376 1A80     		strh	r2, [r3]	@ movhi
1481:STM32Cube_FW_N6/Drivers/STM32N6xx_HAL_Driver/Src/stm32n6xx_hal_spi.c **** #else
1482:STM32Cube_FW_N6/Drivers/STM32N6xx_HAL_Driver/Src/stm32n6xx_hal_spi.c ****         *((__IO uint16_t *)&hspi->Instance->TXDR) = *((const uint16_t *)hspi->pTxBuffPtr);
1483:STM32Cube_FW_N6/Drivers/STM32N6xx_HAL_Driver/Src/stm32n6xx_hal_spi.c **** #endif /* __GNUC__ */
1484:STM32Cube_FW_N6/Drivers/STM32N6xx_HAL_Driver/Src/stm32n6xx_hal_spi.c ****         hspi->pTxBuffPtr += sizeof(uint16_t);
 4067              		.loc 1 1484 13
 4068 0378 FB68     		ldr	r3, [r7, #12]
 4069 037a 5B6E     		ldr	r3, [r3, #100]
 4070              		.loc 1 1484 26
 4071 037c 9A1C     		adds	r2, r3, #2
 4072 037e FB68     		ldr	r3, [r7, #12]
 4073 0380 5A66     		str	r2, [r3, #100]
1485:STM32Cube_FW_N6/Drivers/STM32N6xx_HAL_Driver/Src/stm32n6xx_hal_spi.c ****         hspi->TxXferCount--;
 4074              		.loc 1 1485 13
 4075 0382 FB68     		ldr	r3, [r7, #12]
 4076 0384 B3F86A30 		ldrh	r3, [r3, #106]	@ movhi
 4077 0388 9BB2     		uxth	r3, r3
 4078              		.loc 1 1485 26
 4079 038a 013B     		subs	r3, r3, #1
 4080 038c 9AB2     		uxth	r2, r3
 4081 038e FB68     		ldr	r3, [r7, #12]
 4082 0390 A3F86A20 		strh	r2, [r3, #106]	@ movhi
ARM GAS  /tmp/ccwTXtVb.s 			page 99


1486:STM32Cube_FW_N6/Drivers/STM32N6xx_HAL_Driver/Src/stm32n6xx_hal_spi.c ****         initial_TxXferCount = hspi->TxXferCount;
 4083              		.loc 1 1486 29
 4084 0394 FB68     		ldr	r3, [r7, #12]
 4085 0396 B3F86A30 		ldrh	r3, [r3, #106]	@ movhi
 4086 039a 7B85     		strh	r3, [r7, #42]	@ movhi
 4087              	.L185:
1487:STM32Cube_FW_N6/Drivers/STM32N6xx_HAL_Driver/Src/stm32n6xx_hal_spi.c ****       }
1488:STM32Cube_FW_N6/Drivers/STM32N6xx_HAL_Driver/Src/stm32n6xx_hal_spi.c **** 
1489:STM32Cube_FW_N6/Drivers/STM32N6xx_HAL_Driver/Src/stm32n6xx_hal_spi.c ****       /* Evaluate state of SR register */
1490:STM32Cube_FW_N6/Drivers/STM32N6xx_HAL_Driver/Src/stm32n6xx_hal_spi.c ****       temp_sr_reg = hspi->Instance->SR;
 4088              		.loc 1 1490 25
 4089 039c FB68     		ldr	r3, [r7, #12]
 4090 039e 1B68     		ldr	r3, [r3]
 4091              		.loc 1 1490 19
 4092 03a0 5B69     		ldr	r3, [r3, #20]
 4093 03a2 7B61     		str	r3, [r7, #20]
1491:STM32Cube_FW_N6/Drivers/STM32N6xx_HAL_Driver/Src/stm32n6xx_hal_spi.c **** 
1492:STM32Cube_FW_N6/Drivers/STM32N6xx_HAL_Driver/Src/stm32n6xx_hal_spi.c ****       if (initial_RxXferCount > 0UL)
 4094              		.loc 1 1492 10
 4095 03a4 3B8D     		ldrh	r3, [r7, #40]
 4096 03a6 002B     		cmp	r3, #0
 4097 03a8 00F09280 		beq	.L184
1493:STM32Cube_FW_N6/Drivers/STM32N6xx_HAL_Driver/Src/stm32n6xx_hal_spi.c ****       {
1494:STM32Cube_FW_N6/Drivers/STM32N6xx_HAL_Driver/Src/stm32n6xx_hal_spi.c ****         /* Check the RXP flag */
1495:STM32Cube_FW_N6/Drivers/STM32N6xx_HAL_Driver/Src/stm32n6xx_hal_spi.c ****         if (__HAL_SPI_GET_FLAG(hspi, SPI_FLAG_RXP))
 4098              		.loc 1 1495 13
 4099 03ac FB68     		ldr	r3, [r7, #12]
 4100 03ae 1B68     		ldr	r3, [r3]
 4101 03b0 5B69     		ldr	r3, [r3, #20]
 4102 03b2 03F00103 		and	r3, r3, #1
 4103              		.loc 1 1495 12
 4104 03b6 012B     		cmp	r3, #1
 4105 03b8 18D1     		bne	.L187
1496:STM32Cube_FW_N6/Drivers/STM32N6xx_HAL_Driver/Src/stm32n6xx_hal_spi.c ****         {
1497:STM32Cube_FW_N6/Drivers/STM32N6xx_HAL_Driver/Src/stm32n6xx_hal_spi.c **** #if defined (__GNUC__)
1498:STM32Cube_FW_N6/Drivers/STM32N6xx_HAL_Driver/Src/stm32n6xx_hal_spi.c ****           *((uint16_t *)hspi->pRxBuffPtr) = *prxdr_16bits;
 4106              		.loc 1 1498 29
 4107 03ba FB68     		ldr	r3, [r7, #12]
 4108 03bc DB6E     		ldr	r3, [r3, #108]
 4109              		.loc 1 1498 45
 4110 03be 3A6A     		ldr	r2, [r7, #32]
 4111 03c0 1288     		ldrh	r2, [r2]	@ movhi
 4112 03c2 92B2     		uxth	r2, r2
 4113              		.loc 1 1498 43
 4114 03c4 1A80     		strh	r2, [r3]	@ movhi
1499:STM32Cube_FW_N6/Drivers/STM32N6xx_HAL_Driver/Src/stm32n6xx_hal_spi.c **** #else
1500:STM32Cube_FW_N6/Drivers/STM32N6xx_HAL_Driver/Src/stm32n6xx_hal_spi.c ****           *((uint16_t *)hspi->pRxBuffPtr) = *((__IO uint16_t *)&hspi->Instance->RXDR);
1501:STM32Cube_FW_N6/Drivers/STM32N6xx_HAL_Driver/Src/stm32n6xx_hal_spi.c **** #endif /* __GNUC__ */
1502:STM32Cube_FW_N6/Drivers/STM32N6xx_HAL_Driver/Src/stm32n6xx_hal_spi.c ****           hspi->pRxBuffPtr += sizeof(uint16_t);
 4115              		.loc 1 1502 15
 4116 03c6 FB68     		ldr	r3, [r7, #12]
 4117 03c8 DB6E     		ldr	r3, [r3, #108]
 4118              		.loc 1 1502 28
 4119 03ca 9A1C     		adds	r2, r3, #2
 4120 03cc FB68     		ldr	r3, [r7, #12]
 4121 03ce DA66     		str	r2, [r3, #108]
1503:STM32Cube_FW_N6/Drivers/STM32N6xx_HAL_Driver/Src/stm32n6xx_hal_spi.c ****           hspi->RxXferCount--;
ARM GAS  /tmp/ccwTXtVb.s 			page 100


 4122              		.loc 1 1503 15
 4123 03d0 FB68     		ldr	r3, [r7, #12]
 4124 03d2 B3F87230 		ldrh	r3, [r3, #114]	@ movhi
 4125 03d6 9BB2     		uxth	r3, r3
 4126              		.loc 1 1503 28
 4127 03d8 013B     		subs	r3, r3, #1
 4128 03da 9AB2     		uxth	r2, r3
 4129 03dc FB68     		ldr	r3, [r7, #12]
 4130 03de A3F87220 		strh	r2, [r3, #114]	@ movhi
1504:STM32Cube_FW_N6/Drivers/STM32N6xx_HAL_Driver/Src/stm32n6xx_hal_spi.c ****           initial_RxXferCount = hspi->RxXferCount;
 4131              		.loc 1 1504 31
 4132 03e2 FB68     		ldr	r3, [r7, #12]
 4133 03e4 B3F87230 		ldrh	r3, [r3, #114]	@ movhi
 4134 03e8 3B85     		strh	r3, [r7, #40]	@ movhi
 4135 03ea 71E0     		b	.L184
 4136              	.L187:
1505:STM32Cube_FW_N6/Drivers/STM32N6xx_HAL_Driver/Src/stm32n6xx_hal_spi.c ****         }
1506:STM32Cube_FW_N6/Drivers/STM32N6xx_HAL_Driver/Src/stm32n6xx_hal_spi.c ****         /* Check RXWNE flag if RXP cannot be reached */
1507:STM32Cube_FW_N6/Drivers/STM32N6xx_HAL_Driver/Src/stm32n6xx_hal_spi.c ****         else if ((initial_RxXferCount < init_max_data_in_fifo) && ((temp_sr_reg & SPI_SR_RXWNE_Msk)
 4137              		.loc 1 1507 17
 4138 03ec 3A8D     		ldrh	r2, [r7, #40]
 4139 03ee FB8B     		ldrh	r3, [r7, #30]
 4140 03f0 9A42     		cmp	r2, r3
 4141 03f2 28D2     		bcs	.L188
 4142              		.loc 1 1507 81 discriminator 1
 4143 03f4 7B69     		ldr	r3, [r7, #20]
 4144 03f6 03F40043 		and	r3, r3, #32768
 4145              		.loc 1 1507 64 discriminator 1
 4146 03fa 002B     		cmp	r3, #0
 4147 03fc 23D0     		beq	.L188
1508:STM32Cube_FW_N6/Drivers/STM32N6xx_HAL_Driver/Src/stm32n6xx_hal_spi.c ****         {
1509:STM32Cube_FW_N6/Drivers/STM32N6xx_HAL_Driver/Src/stm32n6xx_hal_spi.c **** #if defined (__GNUC__)
1510:STM32Cube_FW_N6/Drivers/STM32N6xx_HAL_Driver/Src/stm32n6xx_hal_spi.c ****           *((uint16_t *)hspi->pRxBuffPtr) = *prxdr_16bits;
 4148              		.loc 1 1510 29
 4149 03fe FB68     		ldr	r3, [r7, #12]
 4150 0400 DB6E     		ldr	r3, [r3, #108]
 4151              		.loc 1 1510 45
 4152 0402 3A6A     		ldr	r2, [r7, #32]
 4153 0404 1288     		ldrh	r2, [r2]	@ movhi
 4154 0406 92B2     		uxth	r2, r2
 4155              		.loc 1 1510 43
 4156 0408 1A80     		strh	r2, [r3]	@ movhi
1511:STM32Cube_FW_N6/Drivers/STM32N6xx_HAL_Driver/Src/stm32n6xx_hal_spi.c **** #else
1512:STM32Cube_FW_N6/Drivers/STM32N6xx_HAL_Driver/Src/stm32n6xx_hal_spi.c ****           *((uint16_t *)hspi->pRxBuffPtr) = *((__IO uint16_t *)&hspi->Instance->RXDR);
1513:STM32Cube_FW_N6/Drivers/STM32N6xx_HAL_Driver/Src/stm32n6xx_hal_spi.c **** #endif /* __GNUC__ */
1514:STM32Cube_FW_N6/Drivers/STM32N6xx_HAL_Driver/Src/stm32n6xx_hal_spi.c ****           hspi->pRxBuffPtr += sizeof(uint16_t);
 4157              		.loc 1 1514 15
 4158 040a FB68     		ldr	r3, [r7, #12]
 4159 040c DB6E     		ldr	r3, [r3, #108]
 4160              		.loc 1 1514 28
 4161 040e 9A1C     		adds	r2, r3, #2
 4162 0410 FB68     		ldr	r3, [r7, #12]
 4163 0412 DA66     		str	r2, [r3, #108]
1515:STM32Cube_FW_N6/Drivers/STM32N6xx_HAL_Driver/Src/stm32n6xx_hal_spi.c **** #if defined (__GNUC__)
1516:STM32Cube_FW_N6/Drivers/STM32N6xx_HAL_Driver/Src/stm32n6xx_hal_spi.c ****           *((uint16_t *)hspi->pRxBuffPtr) = *prxdr_16bits;
 4164              		.loc 1 1516 29
 4165 0414 FB68     		ldr	r3, [r7, #12]
ARM GAS  /tmp/ccwTXtVb.s 			page 101


 4166 0416 DB6E     		ldr	r3, [r3, #108]
 4167              		.loc 1 1516 45
 4168 0418 3A6A     		ldr	r2, [r7, #32]
 4169 041a 1288     		ldrh	r2, [r2]	@ movhi
 4170 041c 92B2     		uxth	r2, r2
 4171              		.loc 1 1516 43
 4172 041e 1A80     		strh	r2, [r3]	@ movhi
1517:STM32Cube_FW_N6/Drivers/STM32N6xx_HAL_Driver/Src/stm32n6xx_hal_spi.c **** #else
1518:STM32Cube_FW_N6/Drivers/STM32N6xx_HAL_Driver/Src/stm32n6xx_hal_spi.c ****           *((uint16_t *)hspi->pRxBuffPtr) = *((__IO uint16_t *)&hspi->Instance->RXDR);
1519:STM32Cube_FW_N6/Drivers/STM32N6xx_HAL_Driver/Src/stm32n6xx_hal_spi.c **** #endif /* __GNUC__ */
1520:STM32Cube_FW_N6/Drivers/STM32N6xx_HAL_Driver/Src/stm32n6xx_hal_spi.c ****           hspi->pRxBuffPtr += sizeof(uint16_t);
 4173              		.loc 1 1520 15
 4174 0420 FB68     		ldr	r3, [r7, #12]
 4175 0422 DB6E     		ldr	r3, [r3, #108]
 4176              		.loc 1 1520 28
 4177 0424 9A1C     		adds	r2, r3, #2
 4178 0426 FB68     		ldr	r3, [r7, #12]
 4179 0428 DA66     		str	r2, [r3, #108]
1521:STM32Cube_FW_N6/Drivers/STM32N6xx_HAL_Driver/Src/stm32n6xx_hal_spi.c ****           hspi->RxXferCount -= (uint16_t)2UL;
 4180              		.loc 1 1521 15
 4181 042a FB68     		ldr	r3, [r7, #12]
 4182 042c B3F87230 		ldrh	r3, [r3, #114]	@ movhi
 4183 0430 9BB2     		uxth	r3, r3
 4184              		.loc 1 1521 29
 4185 0432 023B     		subs	r3, r3, #2
 4186 0434 9AB2     		uxth	r2, r3
 4187 0436 FB68     		ldr	r3, [r7, #12]
 4188 0438 A3F87220 		strh	r2, [r3, #114]	@ movhi
1522:STM32Cube_FW_N6/Drivers/STM32N6xx_HAL_Driver/Src/stm32n6xx_hal_spi.c ****           initial_RxXferCount = hspi->RxXferCount;
 4189              		.loc 1 1522 31
 4190 043c FB68     		ldr	r3, [r7, #12]
 4191 043e B3F87230 		ldrh	r3, [r3, #114]	@ movhi
 4192 0442 3B85     		strh	r3, [r7, #40]	@ movhi
 4193 0444 44E0     		b	.L184
 4194              	.L188:
1523:STM32Cube_FW_N6/Drivers/STM32N6xx_HAL_Driver/Src/stm32n6xx_hal_spi.c ****         }
1524:STM32Cube_FW_N6/Drivers/STM32N6xx_HAL_Driver/Src/stm32n6xx_hal_spi.c ****         /* Check RXPLVL flags when RXWNE cannot be reached */
1525:STM32Cube_FW_N6/Drivers/STM32N6xx_HAL_Driver/Src/stm32n6xx_hal_spi.c ****         else if ((initial_RxXferCount == 1UL) && ((temp_sr_reg & SPI_SR_RXPLVL_0) != 0UL))
 4195              		.loc 1 1525 17
 4196 0446 3B8D     		ldrh	r3, [r7, #40]
 4197 0448 012B     		cmp	r3, #1
 4198 044a 1DD1     		bne	.L189
 4199              		.loc 1 1525 64 discriminator 1
 4200 044c 7B69     		ldr	r3, [r7, #20]
 4201 044e 03F40053 		and	r3, r3, #8192
 4202              		.loc 1 1525 47 discriminator 1
 4203 0452 002B     		cmp	r3, #0
 4204 0454 18D0     		beq	.L189
1526:STM32Cube_FW_N6/Drivers/STM32N6xx_HAL_Driver/Src/stm32n6xx_hal_spi.c ****         {
1527:STM32Cube_FW_N6/Drivers/STM32N6xx_HAL_Driver/Src/stm32n6xx_hal_spi.c **** #if defined (__GNUC__)
1528:STM32Cube_FW_N6/Drivers/STM32N6xx_HAL_Driver/Src/stm32n6xx_hal_spi.c ****           *((uint16_t *)hspi->pRxBuffPtr) = *prxdr_16bits;
 4205              		.loc 1 1528 29
 4206 0456 FB68     		ldr	r3, [r7, #12]
 4207 0458 DB6E     		ldr	r3, [r3, #108]
 4208              		.loc 1 1528 45
 4209 045a 3A6A     		ldr	r2, [r7, #32]
 4210 045c 1288     		ldrh	r2, [r2]	@ movhi
ARM GAS  /tmp/ccwTXtVb.s 			page 102


 4211 045e 92B2     		uxth	r2, r2
 4212              		.loc 1 1528 43
 4213 0460 1A80     		strh	r2, [r3]	@ movhi
1529:STM32Cube_FW_N6/Drivers/STM32N6xx_HAL_Driver/Src/stm32n6xx_hal_spi.c **** #else
1530:STM32Cube_FW_N6/Drivers/STM32N6xx_HAL_Driver/Src/stm32n6xx_hal_spi.c ****           *((uint16_t *)hspi->pRxBuffPtr) = *((__IO uint16_t *)&hspi->Instance->RXDR);
1531:STM32Cube_FW_N6/Drivers/STM32N6xx_HAL_Driver/Src/stm32n6xx_hal_spi.c **** #endif /* __GNUC__ */
1532:STM32Cube_FW_N6/Drivers/STM32N6xx_HAL_Driver/Src/stm32n6xx_hal_spi.c ****           hspi->pRxBuffPtr += sizeof(uint16_t);
 4214              		.loc 1 1532 15
 4215 0462 FB68     		ldr	r3, [r7, #12]
 4216 0464 DB6E     		ldr	r3, [r3, #108]
 4217              		.loc 1 1532 28
 4218 0466 9A1C     		adds	r2, r3, #2
 4219 0468 FB68     		ldr	r3, [r7, #12]
 4220 046a DA66     		str	r2, [r3, #108]
1533:STM32Cube_FW_N6/Drivers/STM32N6xx_HAL_Driver/Src/stm32n6xx_hal_spi.c ****           hspi->RxXferCount--;
 4221              		.loc 1 1533 15
 4222 046c FB68     		ldr	r3, [r7, #12]
 4223 046e B3F87230 		ldrh	r3, [r3, #114]	@ movhi
 4224 0472 9BB2     		uxth	r3, r3
 4225              		.loc 1 1533 28
 4226 0474 013B     		subs	r3, r3, #1
 4227 0476 9AB2     		uxth	r2, r3
 4228 0478 FB68     		ldr	r3, [r7, #12]
 4229 047a A3F87220 		strh	r2, [r3, #114]	@ movhi
1534:STM32Cube_FW_N6/Drivers/STM32N6xx_HAL_Driver/Src/stm32n6xx_hal_spi.c ****           initial_RxXferCount = hspi->RxXferCount;
 4230              		.loc 1 1534 31
 4231 047e FB68     		ldr	r3, [r7, #12]
 4232 0480 B3F87230 		ldrh	r3, [r3, #114]	@ movhi
 4233 0484 3B85     		strh	r3, [r7, #40]	@ movhi
 4234 0486 23E0     		b	.L184
 4235              	.L189:
1535:STM32Cube_FW_N6/Drivers/STM32N6xx_HAL_Driver/Src/stm32n6xx_hal_spi.c ****         }
1536:STM32Cube_FW_N6/Drivers/STM32N6xx_HAL_Driver/Src/stm32n6xx_hal_spi.c ****         else
1537:STM32Cube_FW_N6/Drivers/STM32N6xx_HAL_Driver/Src/stm32n6xx_hal_spi.c ****         {
1538:STM32Cube_FW_N6/Drivers/STM32N6xx_HAL_Driver/Src/stm32n6xx_hal_spi.c ****           /* Timeout management */
1539:STM32Cube_FW_N6/Drivers/STM32N6xx_HAL_Driver/Src/stm32n6xx_hal_spi.c ****           if ((((HAL_GetTick() - tickstart) >=  Timeout) && (Timeout != HAL_MAX_DELAY)) || (Timeout
 4236              		.loc 1 1539 18
 4237 0488 FFF7FEFF 		bl	HAL_GetTick
 4238 048c 0246     		mov	r2, r0
 4239              		.loc 1 1539 32 discriminator 1
 4240 048e BB69     		ldr	r3, [r7, #24]
 4241 0490 D31A     		subs	r3, r2, r3
 4242              		.loc 1 1539 14 discriminator 1
 4243 0492 BA6B     		ldr	r2, [r7, #56]
 4244 0494 9A42     		cmp	r2, r3
 4245 0496 03D8     		bhi	.L190
 4246              		.loc 1 1539 58 discriminator 1
 4247 0498 BB6B     		ldr	r3, [r7, #56]
 4248 049a B3F1FF3F 		cmp	r3, #-1
 4249 049e 02D1     		bne	.L191
 4250              	.L190:
 4251              		.loc 1 1539 89 discriminator 3
 4252 04a0 BB6B     		ldr	r3, [r7, #56]
 4253 04a2 002B     		cmp	r3, #0
 4254 04a4 14D1     		bne	.L184
 4255              	.L191:
1540:STM32Cube_FW_N6/Drivers/STM32N6xx_HAL_Driver/Src/stm32n6xx_hal_spi.c ****           {
ARM GAS  /tmp/ccwTXtVb.s 			page 103


1541:STM32Cube_FW_N6/Drivers/STM32N6xx_HAL_Driver/Src/stm32n6xx_hal_spi.c ****             /* Call standard close procedure with error check */
1542:STM32Cube_FW_N6/Drivers/STM32N6xx_HAL_Driver/Src/stm32n6xx_hal_spi.c ****             SPI_CloseTransfer(hspi);
 4256              		.loc 1 1542 13
 4257 04a6 F868     		ldr	r0, [r7, #12]
 4258 04a8 FFF7FEFF 		bl	SPI_CloseTransfer
1543:STM32Cube_FW_N6/Drivers/STM32N6xx_HAL_Driver/Src/stm32n6xx_hal_spi.c **** 
1544:STM32Cube_FW_N6/Drivers/STM32N6xx_HAL_Driver/Src/stm32n6xx_hal_spi.c ****             SET_BIT(hspi->ErrorCode, HAL_SPI_ERROR_TIMEOUT);
 4259              		.loc 1 1544 13
 4260 04ac FB68     		ldr	r3, [r7, #12]
 4261 04ae D3F88C30 		ldr	r3, [r3, #140]
 4262 04b2 43F48072 		orr	r2, r3, #256
 4263 04b6 FB68     		ldr	r3, [r7, #12]
 4264 04b8 C3F88C20 		str	r2, [r3, #140]
1545:STM32Cube_FW_N6/Drivers/STM32N6xx_HAL_Driver/Src/stm32n6xx_hal_spi.c ****             hspi->State = HAL_SPI_STATE_READY;
 4265              		.loc 1 1545 25
 4266 04bc FB68     		ldr	r3, [r7, #12]
 4267 04be 0122     		movs	r2, #1
 4268 04c0 83F88920 		strb	r2, [r3, #137]
1546:STM32Cube_FW_N6/Drivers/STM32N6xx_HAL_Driver/Src/stm32n6xx_hal_spi.c **** 
1547:STM32Cube_FW_N6/Drivers/STM32N6xx_HAL_Driver/Src/stm32n6xx_hal_spi.c ****             /* Unlock the process */
1548:STM32Cube_FW_N6/Drivers/STM32N6xx_HAL_Driver/Src/stm32n6xx_hal_spi.c ****             __HAL_UNLOCK(hspi);
 4269              		.loc 1 1548 13
 4270 04c4 FB68     		ldr	r3, [r7, #12]
 4271 04c6 0022     		movs	r2, #0
 4272 04c8 83F88820 		strb	r2, [r3, #136]
1549:STM32Cube_FW_N6/Drivers/STM32N6xx_HAL_Driver/Src/stm32n6xx_hal_spi.c **** 
1550:STM32Cube_FW_N6/Drivers/STM32N6xx_HAL_Driver/Src/stm32n6xx_hal_spi.c ****             return HAL_TIMEOUT;
 4273              		.loc 1 1550 20
 4274 04cc 0323     		movs	r3, #3
 4275 04ce 21E1     		b	.L164
 4276              	.L184:
1473:STM32Cube_FW_N6/Drivers/STM32N6xx_HAL_Driver/Src/stm32n6xx_hal_spi.c ****     {
 4277              		.loc 1 1473 40
 4278 04d0 7B8D     		ldrh	r3, [r7, #42]
 4279 04d2 002B     		cmp	r3, #0
 4280 04d4 7FF43BAF 		bne	.L192
1473:STM32Cube_FW_N6/Drivers/STM32N6xx_HAL_Driver/Src/stm32n6xx_hal_spi.c ****     {
 4281              		.loc 1 1473 40 is_stmt 0 discriminator 1
 4282 04d8 3B8D     		ldrh	r3, [r7, #40]
 4283 04da 002B     		cmp	r3, #0
 4284 04dc 7FF437AF 		bne	.L192
 4285 04e0 F2E0     		b	.L182
 4286              	.L201:
1551:STM32Cube_FW_N6/Drivers/STM32N6xx_HAL_Driver/Src/stm32n6xx_hal_spi.c ****           }
1552:STM32Cube_FW_N6/Drivers/STM32N6xx_HAL_Driver/Src/stm32n6xx_hal_spi.c ****         }
1553:STM32Cube_FW_N6/Drivers/STM32N6xx_HAL_Driver/Src/stm32n6xx_hal_spi.c ****       }
1554:STM32Cube_FW_N6/Drivers/STM32N6xx_HAL_Driver/Src/stm32n6xx_hal_spi.c ****     }
1555:STM32Cube_FW_N6/Drivers/STM32N6xx_HAL_Driver/Src/stm32n6xx_hal_spi.c ****   }
1556:STM32Cube_FW_N6/Drivers/STM32N6xx_HAL_Driver/Src/stm32n6xx_hal_spi.c ****   /* Transmit and Receive data in 8 Bit mode */
1557:STM32Cube_FW_N6/Drivers/STM32N6xx_HAL_Driver/Src/stm32n6xx_hal_spi.c ****   else
1558:STM32Cube_FW_N6/Drivers/STM32N6xx_HAL_Driver/Src/stm32n6xx_hal_spi.c ****   {
1559:STM32Cube_FW_N6/Drivers/STM32N6xx_HAL_Driver/Src/stm32n6xx_hal_spi.c ****     while ((initial_TxXferCount > 0UL) || (initial_RxXferCount > 0UL))
1560:STM32Cube_FW_N6/Drivers/STM32N6xx_HAL_Driver/Src/stm32n6xx_hal_spi.c ****     {
1561:STM32Cube_FW_N6/Drivers/STM32N6xx_HAL_Driver/Src/stm32n6xx_hal_spi.c ****       /* Check the TXP flag */
1562:STM32Cube_FW_N6/Drivers/STM32N6xx_HAL_Driver/Src/stm32n6xx_hal_spi.c ****       if ((__HAL_SPI_GET_FLAG(hspi, SPI_FLAG_TXP)) && (initial_TxXferCount > 0UL) &&
 4287              		.loc 1 1562 12 is_stmt 1
 4288 04e2 FB68     		ldr	r3, [r7, #12]
ARM GAS  /tmp/ccwTXtVb.s 			page 104


 4289 04e4 1B68     		ldr	r3, [r3]
 4290 04e6 5B69     		ldr	r3, [r3, #20]
 4291 04e8 03F00203 		and	r3, r3, #2
 4292              		.loc 1 1562 10
 4293 04ec 022B     		cmp	r3, #2
 4294 04ee 21D1     		bne	.L194
 4295              		.loc 1 1562 52 discriminator 1
 4296 04f0 7B8D     		ldrh	r3, [r7, #42]
 4297 04f2 002B     		cmp	r3, #0
 4298 04f4 1ED0     		beq	.L194
1563:STM32Cube_FW_N6/Drivers/STM32N6xx_HAL_Driver/Src/stm32n6xx_hal_spi.c ****           (initial_RxXferCount  < (initial_TxXferCount + fifo_length)))
 4299              		.loc 1 1563 33
 4300 04f6 3A8D     		ldrh	r2, [r7, #40]
 4301              		.loc 1 1563 56
 4302 04f8 798D     		ldrh	r1, [r7, #42]
 4303 04fa FB6A     		ldr	r3, [r7, #44]
 4304 04fc 0B44     		add	r3, r3, r1
1562:STM32Cube_FW_N6/Drivers/STM32N6xx_HAL_Driver/Src/stm32n6xx_hal_spi.c ****           (initial_RxXferCount  < (initial_TxXferCount + fifo_length)))
 4305              		.loc 1 1562 83 discriminator 2
 4306 04fe 9A42     		cmp	r2, r3
 4307 0500 18D2     		bcs	.L194
1564:STM32Cube_FW_N6/Drivers/STM32N6xx_HAL_Driver/Src/stm32n6xx_hal_spi.c ****       {
1565:STM32Cube_FW_N6/Drivers/STM32N6xx_HAL_Driver/Src/stm32n6xx_hal_spi.c ****         *((__IO uint8_t *)&hspi->Instance->TXDR) = *((const uint8_t *)hspi->pTxBuffPtr);
 4308              		.loc 1 1565 75
 4309 0502 FB68     		ldr	r3, [r7, #12]
 4310 0504 5A6E     		ldr	r2, [r3, #100]
 4311              		.loc 1 1565 32
 4312 0506 FB68     		ldr	r3, [r7, #12]
 4313 0508 1B68     		ldr	r3, [r3]
 4314              		.loc 1 1565 27
 4315 050a 2033     		adds	r3, r3, #32
 4316              		.loc 1 1565 52
 4317 050c 1278     		ldrb	r2, [r2]	@ zero_extendqisi2
 4318              		.loc 1 1565 50
 4319 050e 1A70     		strb	r2, [r3]
1566:STM32Cube_FW_N6/Drivers/STM32N6xx_HAL_Driver/Src/stm32n6xx_hal_spi.c ****         hspi->pTxBuffPtr += sizeof(uint8_t);
 4320              		.loc 1 1566 13
 4321 0510 FB68     		ldr	r3, [r7, #12]
 4322 0512 5B6E     		ldr	r3, [r3, #100]
 4323              		.loc 1 1566 26
 4324 0514 5A1C     		adds	r2, r3, #1
 4325 0516 FB68     		ldr	r3, [r7, #12]
 4326 0518 5A66     		str	r2, [r3, #100]
1567:STM32Cube_FW_N6/Drivers/STM32N6xx_HAL_Driver/Src/stm32n6xx_hal_spi.c ****         hspi->TxXferCount--;
 4327              		.loc 1 1567 13
 4328 051a FB68     		ldr	r3, [r7, #12]
 4329 051c B3F86A30 		ldrh	r3, [r3, #106]	@ movhi
 4330 0520 9BB2     		uxth	r3, r3
 4331              		.loc 1 1567 26
 4332 0522 013B     		subs	r3, r3, #1
 4333 0524 9AB2     		uxth	r2, r3
 4334 0526 FB68     		ldr	r3, [r7, #12]
 4335 0528 A3F86A20 		strh	r2, [r3, #106]	@ movhi
1568:STM32Cube_FW_N6/Drivers/STM32N6xx_HAL_Driver/Src/stm32n6xx_hal_spi.c ****         initial_TxXferCount = hspi->TxXferCount;
 4336              		.loc 1 1568 29
 4337 052c FB68     		ldr	r3, [r7, #12]
 4338 052e B3F86A30 		ldrh	r3, [r3, #106]	@ movhi
ARM GAS  /tmp/ccwTXtVb.s 			page 105


 4339 0532 7B85     		strh	r3, [r7, #42]	@ movhi
 4340              	.L194:
1569:STM32Cube_FW_N6/Drivers/STM32N6xx_HAL_Driver/Src/stm32n6xx_hal_spi.c ****       }
1570:STM32Cube_FW_N6/Drivers/STM32N6xx_HAL_Driver/Src/stm32n6xx_hal_spi.c **** 
1571:STM32Cube_FW_N6/Drivers/STM32N6xx_HAL_Driver/Src/stm32n6xx_hal_spi.c ****       /* Evaluate state of SR register */
1572:STM32Cube_FW_N6/Drivers/STM32N6xx_HAL_Driver/Src/stm32n6xx_hal_spi.c ****       temp_sr_reg = hspi->Instance->SR;
 4341              		.loc 1 1572 25
 4342 0534 FB68     		ldr	r3, [r7, #12]
 4343 0536 1B68     		ldr	r3, [r3]
 4344              		.loc 1 1572 19
 4345 0538 5B69     		ldr	r3, [r3, #20]
 4346 053a 7B61     		str	r3, [r7, #20]
1573:STM32Cube_FW_N6/Drivers/STM32N6xx_HAL_Driver/Src/stm32n6xx_hal_spi.c **** 
1574:STM32Cube_FW_N6/Drivers/STM32N6xx_HAL_Driver/Src/stm32n6xx_hal_spi.c ****       if (initial_RxXferCount > 0UL)
 4347              		.loc 1 1574 10
 4348 053c 3B8D     		ldrh	r3, [r7, #40]
 4349 053e 002B     		cmp	r3, #0
 4350 0540 00F0BA80 		beq	.L193
1575:STM32Cube_FW_N6/Drivers/STM32N6xx_HAL_Driver/Src/stm32n6xx_hal_spi.c ****       {
1576:STM32Cube_FW_N6/Drivers/STM32N6xx_HAL_Driver/Src/stm32n6xx_hal_spi.c ****         /* Check the RXP flag */
1577:STM32Cube_FW_N6/Drivers/STM32N6xx_HAL_Driver/Src/stm32n6xx_hal_spi.c ****         if (__HAL_SPI_GET_FLAG(hspi, SPI_FLAG_RXP))
 4351              		.loc 1 1577 13
 4352 0544 FB68     		ldr	r3, [r7, #12]
 4353 0546 1B68     		ldr	r3, [r3]
 4354 0548 5B69     		ldr	r3, [r3, #20]
 4355 054a 03F00103 		and	r3, r3, #1
 4356              		.loc 1 1577 12
 4357 054e 012B     		cmp	r3, #1
 4358 0550 1BD1     		bne	.L196
1578:STM32Cube_FW_N6/Drivers/STM32N6xx_HAL_Driver/Src/stm32n6xx_hal_spi.c ****         {
1579:STM32Cube_FW_N6/Drivers/STM32N6xx_HAL_Driver/Src/stm32n6xx_hal_spi.c ****           *((uint8_t *)hspi->pRxBuffPtr) = *((__IO uint8_t *)&hspi->Instance->RXDR);
 4359              		.loc 1 1579 67
 4360 0552 FB68     		ldr	r3, [r7, #12]
 4361 0554 1B68     		ldr	r3, [r3]
 4362              		.loc 1 1579 62
 4363 0556 03F13002 		add	r2, r3, #48
 4364              		.loc 1 1579 28
 4365 055a FB68     		ldr	r3, [r7, #12]
 4366 055c DB6E     		ldr	r3, [r3, #108]
 4367              		.loc 1 1579 44
 4368 055e 1278     		ldrb	r2, [r2]
 4369 0560 D2B2     		uxtb	r2, r2
 4370              		.loc 1 1579 42
 4371 0562 1A70     		strb	r2, [r3]
1580:STM32Cube_FW_N6/Drivers/STM32N6xx_HAL_Driver/Src/stm32n6xx_hal_spi.c ****           hspi->pRxBuffPtr += sizeof(uint8_t);
 4372              		.loc 1 1580 15
 4373 0564 FB68     		ldr	r3, [r7, #12]
 4374 0566 DB6E     		ldr	r3, [r3, #108]
 4375              		.loc 1 1580 28
 4376 0568 5A1C     		adds	r2, r3, #1
 4377 056a FB68     		ldr	r3, [r7, #12]
 4378 056c DA66     		str	r2, [r3, #108]
1581:STM32Cube_FW_N6/Drivers/STM32N6xx_HAL_Driver/Src/stm32n6xx_hal_spi.c ****           hspi->RxXferCount--;
 4379              		.loc 1 1581 15
 4380 056e FB68     		ldr	r3, [r7, #12]
 4381 0570 B3F87230 		ldrh	r3, [r3, #114]	@ movhi
 4382 0574 9BB2     		uxth	r3, r3
ARM GAS  /tmp/ccwTXtVb.s 			page 106


 4383              		.loc 1 1581 28
 4384 0576 013B     		subs	r3, r3, #1
 4385 0578 9AB2     		uxth	r2, r3
 4386 057a FB68     		ldr	r3, [r7, #12]
 4387 057c A3F87220 		strh	r2, [r3, #114]	@ movhi
1582:STM32Cube_FW_N6/Drivers/STM32N6xx_HAL_Driver/Src/stm32n6xx_hal_spi.c ****           initial_RxXferCount = hspi->RxXferCount;
 4388              		.loc 1 1582 31
 4389 0580 FB68     		ldr	r3, [r7, #12]
 4390 0582 B3F87230 		ldrh	r3, [r3, #114]	@ movhi
 4391 0586 3B85     		strh	r3, [r7, #40]	@ movhi
 4392 0588 96E0     		b	.L193
 4393              	.L196:
1583:STM32Cube_FW_N6/Drivers/STM32N6xx_HAL_Driver/Src/stm32n6xx_hal_spi.c ****         }
1584:STM32Cube_FW_N6/Drivers/STM32N6xx_HAL_Driver/Src/stm32n6xx_hal_spi.c ****         /* Check RXWNE flag if RXP cannot be reached */
1585:STM32Cube_FW_N6/Drivers/STM32N6xx_HAL_Driver/Src/stm32n6xx_hal_spi.c ****         else if ((initial_RxXferCount < init_max_data_in_fifo) && ((temp_sr_reg & SPI_SR_RXWNE_Msk)
 4394              		.loc 1 1585 17
 4395 058a 3A8D     		ldrh	r2, [r7, #40]
 4396 058c FB8B     		ldrh	r3, [r7, #30]
 4397 058e 9A42     		cmp	r2, r3
 4398 0590 4AD2     		bcs	.L197
 4399              		.loc 1 1585 81 discriminator 1
 4400 0592 7B69     		ldr	r3, [r7, #20]
 4401 0594 03F40043 		and	r3, r3, #32768
 4402              		.loc 1 1585 64 discriminator 1
 4403 0598 002B     		cmp	r3, #0
 4404 059a 45D0     		beq	.L197
1586:STM32Cube_FW_N6/Drivers/STM32N6xx_HAL_Driver/Src/stm32n6xx_hal_spi.c ****         {
1587:STM32Cube_FW_N6/Drivers/STM32N6xx_HAL_Driver/Src/stm32n6xx_hal_spi.c ****           *((uint8_t *)hspi->pRxBuffPtr) = *((__IO uint8_t *)&hspi->Instance->RXDR);
 4405              		.loc 1 1587 67
 4406 059c FB68     		ldr	r3, [r7, #12]
 4407 059e 1B68     		ldr	r3, [r3]
 4408              		.loc 1 1587 62
 4409 05a0 03F13002 		add	r2, r3, #48
 4410              		.loc 1 1587 28
 4411 05a4 FB68     		ldr	r3, [r7, #12]
 4412 05a6 DB6E     		ldr	r3, [r3, #108]
 4413              		.loc 1 1587 44
 4414 05a8 1278     		ldrb	r2, [r2]
 4415 05aa D2B2     		uxtb	r2, r2
 4416              		.loc 1 1587 42
 4417 05ac 1A70     		strb	r2, [r3]
1588:STM32Cube_FW_N6/Drivers/STM32N6xx_HAL_Driver/Src/stm32n6xx_hal_spi.c ****           hspi->pRxBuffPtr += sizeof(uint8_t);
 4418              		.loc 1 1588 15
 4419 05ae FB68     		ldr	r3, [r7, #12]
 4420 05b0 DB6E     		ldr	r3, [r3, #108]
 4421              		.loc 1 1588 28
 4422 05b2 5A1C     		adds	r2, r3, #1
 4423 05b4 FB68     		ldr	r3, [r7, #12]
 4424 05b6 DA66     		str	r2, [r3, #108]
1589:STM32Cube_FW_N6/Drivers/STM32N6xx_HAL_Driver/Src/stm32n6xx_hal_spi.c ****           *((uint8_t *)hspi->pRxBuffPtr) = *((__IO uint8_t *)&hspi->Instance->RXDR);
 4425              		.loc 1 1589 67
 4426 05b8 FB68     		ldr	r3, [r7, #12]
 4427 05ba 1B68     		ldr	r3, [r3]
 4428              		.loc 1 1589 62
 4429 05bc 03F13002 		add	r2, r3, #48
 4430              		.loc 1 1589 28
 4431 05c0 FB68     		ldr	r3, [r7, #12]
ARM GAS  /tmp/ccwTXtVb.s 			page 107


 4432 05c2 DB6E     		ldr	r3, [r3, #108]
 4433              		.loc 1 1589 44
 4434 05c4 1278     		ldrb	r2, [r2]
 4435 05c6 D2B2     		uxtb	r2, r2
 4436              		.loc 1 1589 42
 4437 05c8 1A70     		strb	r2, [r3]
1590:STM32Cube_FW_N6/Drivers/STM32N6xx_HAL_Driver/Src/stm32n6xx_hal_spi.c ****           hspi->pRxBuffPtr += sizeof(uint8_t);
 4438              		.loc 1 1590 15
 4439 05ca FB68     		ldr	r3, [r7, #12]
 4440 05cc DB6E     		ldr	r3, [r3, #108]
 4441              		.loc 1 1590 28
 4442 05ce 5A1C     		adds	r2, r3, #1
 4443 05d0 FB68     		ldr	r3, [r7, #12]
 4444 05d2 DA66     		str	r2, [r3, #108]
1591:STM32Cube_FW_N6/Drivers/STM32N6xx_HAL_Driver/Src/stm32n6xx_hal_spi.c ****           *((uint8_t *)hspi->pRxBuffPtr) = *((__IO uint8_t *)&hspi->Instance->RXDR);
 4445              		.loc 1 1591 67
 4446 05d4 FB68     		ldr	r3, [r7, #12]
 4447 05d6 1B68     		ldr	r3, [r3]
 4448              		.loc 1 1591 62
 4449 05d8 03F13002 		add	r2, r3, #48
 4450              		.loc 1 1591 28
 4451 05dc FB68     		ldr	r3, [r7, #12]
 4452 05de DB6E     		ldr	r3, [r3, #108]
 4453              		.loc 1 1591 44
 4454 05e0 1278     		ldrb	r2, [r2]
 4455 05e2 D2B2     		uxtb	r2, r2
 4456              		.loc 1 1591 42
 4457 05e4 1A70     		strb	r2, [r3]
1592:STM32Cube_FW_N6/Drivers/STM32N6xx_HAL_Driver/Src/stm32n6xx_hal_spi.c ****           hspi->pRxBuffPtr += sizeof(uint8_t);
 4458              		.loc 1 1592 15
 4459 05e6 FB68     		ldr	r3, [r7, #12]
 4460 05e8 DB6E     		ldr	r3, [r3, #108]
 4461              		.loc 1 1592 28
 4462 05ea 5A1C     		adds	r2, r3, #1
 4463 05ec FB68     		ldr	r3, [r7, #12]
 4464 05ee DA66     		str	r2, [r3, #108]
1593:STM32Cube_FW_N6/Drivers/STM32N6xx_HAL_Driver/Src/stm32n6xx_hal_spi.c ****           *((uint8_t *)hspi->pRxBuffPtr) = *((__IO uint8_t *)&hspi->Instance->RXDR);
 4465              		.loc 1 1593 67
 4466 05f0 FB68     		ldr	r3, [r7, #12]
 4467 05f2 1B68     		ldr	r3, [r3]
 4468              		.loc 1 1593 62
 4469 05f4 03F13002 		add	r2, r3, #48
 4470              		.loc 1 1593 28
 4471 05f8 FB68     		ldr	r3, [r7, #12]
 4472 05fa DB6E     		ldr	r3, [r3, #108]
 4473              		.loc 1 1593 44
 4474 05fc 1278     		ldrb	r2, [r2]
 4475 05fe D2B2     		uxtb	r2, r2
 4476              		.loc 1 1593 42
 4477 0600 1A70     		strb	r2, [r3]
1594:STM32Cube_FW_N6/Drivers/STM32N6xx_HAL_Driver/Src/stm32n6xx_hal_spi.c ****           hspi->pRxBuffPtr += sizeof(uint8_t);
 4478              		.loc 1 1594 15
 4479 0602 FB68     		ldr	r3, [r7, #12]
 4480 0604 DB6E     		ldr	r3, [r3, #108]
 4481              		.loc 1 1594 28
 4482 0606 5A1C     		adds	r2, r3, #1
 4483 0608 FB68     		ldr	r3, [r7, #12]
ARM GAS  /tmp/ccwTXtVb.s 			page 108


 4484 060a DA66     		str	r2, [r3, #108]
1595:STM32Cube_FW_N6/Drivers/STM32N6xx_HAL_Driver/Src/stm32n6xx_hal_spi.c ****           hspi->RxXferCount -= (uint16_t)4UL;
 4485              		.loc 1 1595 15
 4486 060c FB68     		ldr	r3, [r7, #12]
 4487 060e B3F87230 		ldrh	r3, [r3, #114]	@ movhi
 4488 0612 9BB2     		uxth	r3, r3
 4489              		.loc 1 1595 29
 4490 0614 043B     		subs	r3, r3, #4
 4491 0616 9AB2     		uxth	r2, r3
 4492 0618 FB68     		ldr	r3, [r7, #12]
 4493 061a A3F87220 		strh	r2, [r3, #114]	@ movhi
1596:STM32Cube_FW_N6/Drivers/STM32N6xx_HAL_Driver/Src/stm32n6xx_hal_spi.c ****           initial_RxXferCount = hspi->RxXferCount;
 4494              		.loc 1 1596 31
 4495 061e FB68     		ldr	r3, [r7, #12]
 4496 0620 B3F87230 		ldrh	r3, [r3, #114]	@ movhi
 4497 0624 3B85     		strh	r3, [r7, #40]	@ movhi
 4498 0626 47E0     		b	.L193
 4499              	.L197:
1597:STM32Cube_FW_N6/Drivers/STM32N6xx_HAL_Driver/Src/stm32n6xx_hal_spi.c ****         }
1598:STM32Cube_FW_N6/Drivers/STM32N6xx_HAL_Driver/Src/stm32n6xx_hal_spi.c ****         /* Check RXPLVL flags when RXWNE cannot be reached */
1599:STM32Cube_FW_N6/Drivers/STM32N6xx_HAL_Driver/Src/stm32n6xx_hal_spi.c ****         else if ((initial_RxXferCount < 4UL) && ((temp_sr_reg & SPI_SR_RXPLVL_Msk) != 0UL))
 4500              		.loc 1 1599 17
 4501 0628 3B8D     		ldrh	r3, [r7, #40]
 4502 062a 032B     		cmp	r3, #3
 4503 062c 20D8     		bhi	.L198
 4504              		.loc 1 1599 63 discriminator 1
 4505 062e 7B69     		ldr	r3, [r7, #20]
 4506 0630 03F4C043 		and	r3, r3, #24576
 4507              		.loc 1 1599 46 discriminator 1
 4508 0634 002B     		cmp	r3, #0
 4509 0636 1BD0     		beq	.L198
1600:STM32Cube_FW_N6/Drivers/STM32N6xx_HAL_Driver/Src/stm32n6xx_hal_spi.c ****         {
1601:STM32Cube_FW_N6/Drivers/STM32N6xx_HAL_Driver/Src/stm32n6xx_hal_spi.c ****           *((uint8_t *)hspi->pRxBuffPtr) = *((__IO uint8_t *)&hspi->Instance->RXDR);
 4510              		.loc 1 1601 67
 4511 0638 FB68     		ldr	r3, [r7, #12]
 4512 063a 1B68     		ldr	r3, [r3]
 4513              		.loc 1 1601 62
 4514 063c 03F13002 		add	r2, r3, #48
 4515              		.loc 1 1601 28
 4516 0640 FB68     		ldr	r3, [r7, #12]
 4517 0642 DB6E     		ldr	r3, [r3, #108]
 4518              		.loc 1 1601 44
 4519 0644 1278     		ldrb	r2, [r2]
 4520 0646 D2B2     		uxtb	r2, r2
 4521              		.loc 1 1601 42
 4522 0648 1A70     		strb	r2, [r3]
1602:STM32Cube_FW_N6/Drivers/STM32N6xx_HAL_Driver/Src/stm32n6xx_hal_spi.c ****           hspi->pRxBuffPtr += sizeof(uint8_t);
 4523              		.loc 1 1602 15
 4524 064a FB68     		ldr	r3, [r7, #12]
 4525 064c DB6E     		ldr	r3, [r3, #108]
 4526              		.loc 1 1602 28
 4527 064e 5A1C     		adds	r2, r3, #1
 4528 0650 FB68     		ldr	r3, [r7, #12]
 4529 0652 DA66     		str	r2, [r3, #108]
1603:STM32Cube_FW_N6/Drivers/STM32N6xx_HAL_Driver/Src/stm32n6xx_hal_spi.c ****           hspi->RxXferCount--;
 4530              		.loc 1 1603 15
 4531 0654 FB68     		ldr	r3, [r7, #12]
ARM GAS  /tmp/ccwTXtVb.s 			page 109


 4532 0656 B3F87230 		ldrh	r3, [r3, #114]	@ movhi
 4533 065a 9BB2     		uxth	r3, r3
 4534              		.loc 1 1603 28
 4535 065c 013B     		subs	r3, r3, #1
 4536 065e 9AB2     		uxth	r2, r3
 4537 0660 FB68     		ldr	r3, [r7, #12]
 4538 0662 A3F87220 		strh	r2, [r3, #114]	@ movhi
1604:STM32Cube_FW_N6/Drivers/STM32N6xx_HAL_Driver/Src/stm32n6xx_hal_spi.c ****           initial_RxXferCount = hspi->RxXferCount;
 4539              		.loc 1 1604 31
 4540 0666 FB68     		ldr	r3, [r7, #12]
 4541 0668 B3F87230 		ldrh	r3, [r3, #114]	@ movhi
 4542 066c 3B85     		strh	r3, [r7, #40]	@ movhi
 4543 066e 23E0     		b	.L193
 4544              	.L198:
1605:STM32Cube_FW_N6/Drivers/STM32N6xx_HAL_Driver/Src/stm32n6xx_hal_spi.c ****         }
1606:STM32Cube_FW_N6/Drivers/STM32N6xx_HAL_Driver/Src/stm32n6xx_hal_spi.c ****         else
1607:STM32Cube_FW_N6/Drivers/STM32N6xx_HAL_Driver/Src/stm32n6xx_hal_spi.c ****         {
1608:STM32Cube_FW_N6/Drivers/STM32N6xx_HAL_Driver/Src/stm32n6xx_hal_spi.c ****           /* Timeout management */
1609:STM32Cube_FW_N6/Drivers/STM32N6xx_HAL_Driver/Src/stm32n6xx_hal_spi.c ****           if ((((HAL_GetTick() - tickstart) >=  Timeout) && (Timeout != HAL_MAX_DELAY)) || (Timeout
 4545              		.loc 1 1609 18
 4546 0670 FFF7FEFF 		bl	HAL_GetTick
 4547 0674 0246     		mov	r2, r0
 4548              		.loc 1 1609 32 discriminator 1
 4549 0676 BB69     		ldr	r3, [r7, #24]
 4550 0678 D31A     		subs	r3, r2, r3
 4551              		.loc 1 1609 14 discriminator 1
 4552 067a BA6B     		ldr	r2, [r7, #56]
 4553 067c 9A42     		cmp	r2, r3
 4554 067e 03D8     		bhi	.L199
 4555              		.loc 1 1609 58 discriminator 1
 4556 0680 BB6B     		ldr	r3, [r7, #56]
 4557 0682 B3F1FF3F 		cmp	r3, #-1
 4558 0686 02D1     		bne	.L200
 4559              	.L199:
 4560              		.loc 1 1609 89 discriminator 3
 4561 0688 BB6B     		ldr	r3, [r7, #56]
 4562 068a 002B     		cmp	r3, #0
 4563 068c 14D1     		bne	.L193
 4564              	.L200:
1610:STM32Cube_FW_N6/Drivers/STM32N6xx_HAL_Driver/Src/stm32n6xx_hal_spi.c ****           {
1611:STM32Cube_FW_N6/Drivers/STM32N6xx_HAL_Driver/Src/stm32n6xx_hal_spi.c ****             /* Call standard close procedure with error check */
1612:STM32Cube_FW_N6/Drivers/STM32N6xx_HAL_Driver/Src/stm32n6xx_hal_spi.c ****             SPI_CloseTransfer(hspi);
 4565              		.loc 1 1612 13
 4566 068e F868     		ldr	r0, [r7, #12]
 4567 0690 FFF7FEFF 		bl	SPI_CloseTransfer
1613:STM32Cube_FW_N6/Drivers/STM32N6xx_HAL_Driver/Src/stm32n6xx_hal_spi.c **** 
1614:STM32Cube_FW_N6/Drivers/STM32N6xx_HAL_Driver/Src/stm32n6xx_hal_spi.c ****             SET_BIT(hspi->ErrorCode, HAL_SPI_ERROR_TIMEOUT);
 4568              		.loc 1 1614 13
 4569 0694 FB68     		ldr	r3, [r7, #12]
 4570 0696 D3F88C30 		ldr	r3, [r3, #140]
 4571 069a 43F48072 		orr	r2, r3, #256
 4572 069e FB68     		ldr	r3, [r7, #12]
 4573 06a0 C3F88C20 		str	r2, [r3, #140]
1615:STM32Cube_FW_N6/Drivers/STM32N6xx_HAL_Driver/Src/stm32n6xx_hal_spi.c ****             hspi->State = HAL_SPI_STATE_READY;
 4574              		.loc 1 1615 25
 4575 06a4 FB68     		ldr	r3, [r7, #12]
 4576 06a6 0122     		movs	r2, #1
ARM GAS  /tmp/ccwTXtVb.s 			page 110


 4577 06a8 83F88920 		strb	r2, [r3, #137]
1616:STM32Cube_FW_N6/Drivers/STM32N6xx_HAL_Driver/Src/stm32n6xx_hal_spi.c **** 
1617:STM32Cube_FW_N6/Drivers/STM32N6xx_HAL_Driver/Src/stm32n6xx_hal_spi.c ****             /* Unlock the process */
1618:STM32Cube_FW_N6/Drivers/STM32N6xx_HAL_Driver/Src/stm32n6xx_hal_spi.c ****             __HAL_UNLOCK(hspi);
 4578              		.loc 1 1618 13
 4579 06ac FB68     		ldr	r3, [r7, #12]
 4580 06ae 0022     		movs	r2, #0
 4581 06b0 83F88820 		strb	r2, [r3, #136]
1619:STM32Cube_FW_N6/Drivers/STM32N6xx_HAL_Driver/Src/stm32n6xx_hal_spi.c **** 
1620:STM32Cube_FW_N6/Drivers/STM32N6xx_HAL_Driver/Src/stm32n6xx_hal_spi.c ****             return HAL_TIMEOUT;
 4582              		.loc 1 1620 20
 4583 06b4 0323     		movs	r3, #3
 4584 06b6 2DE0     		b	.L164
 4585              	.L193:
1559:STM32Cube_FW_N6/Drivers/STM32N6xx_HAL_Driver/Src/stm32n6xx_hal_spi.c ****     {
 4586              		.loc 1 1559 40
 4587 06b8 7B8D     		ldrh	r3, [r7, #42]
 4588 06ba 002B     		cmp	r3, #0
 4589 06bc 7FF411AF 		bne	.L201
1559:STM32Cube_FW_N6/Drivers/STM32N6xx_HAL_Driver/Src/stm32n6xx_hal_spi.c ****     {
 4590              		.loc 1 1559 40 is_stmt 0 discriminator 1
 4591 06c0 3B8D     		ldrh	r3, [r7, #40]
 4592 06c2 002B     		cmp	r3, #0
 4593 06c4 7FF40DAF 		bne	.L201
 4594              	.L182:
1621:STM32Cube_FW_N6/Drivers/STM32N6xx_HAL_Driver/Src/stm32n6xx_hal_spi.c ****           }
1622:STM32Cube_FW_N6/Drivers/STM32N6xx_HAL_Driver/Src/stm32n6xx_hal_spi.c ****         }
1623:STM32Cube_FW_N6/Drivers/STM32N6xx_HAL_Driver/Src/stm32n6xx_hal_spi.c ****       }
1624:STM32Cube_FW_N6/Drivers/STM32N6xx_HAL_Driver/Src/stm32n6xx_hal_spi.c ****     }
1625:STM32Cube_FW_N6/Drivers/STM32N6xx_HAL_Driver/Src/stm32n6xx_hal_spi.c ****   }
1626:STM32Cube_FW_N6/Drivers/STM32N6xx_HAL_Driver/Src/stm32n6xx_hal_spi.c **** 
1627:STM32Cube_FW_N6/Drivers/STM32N6xx_HAL_Driver/Src/stm32n6xx_hal_spi.c ****   /* Wait for Tx/Rx (and CRC) data to be sent/received */
1628:STM32Cube_FW_N6/Drivers/STM32N6xx_HAL_Driver/Src/stm32n6xx_hal_spi.c ****   if (SPI_WaitOnFlagUntilTimeout(hspi, SPI_FLAG_EOT, RESET, Timeout, tickstart) != HAL_OK)
 4595              		.loc 1 1628 7 is_stmt 1
 4596 06c8 BB69     		ldr	r3, [r7, #24]
 4597 06ca 0093     		str	r3, [sp]
 4598 06cc BB6B     		ldr	r3, [r7, #56]
 4599 06ce 0022     		movs	r2, #0
 4600 06d0 0821     		movs	r1, #8
 4601 06d2 F868     		ldr	r0, [r7, #12]
 4602 06d4 FFF7FEFF 		bl	SPI_WaitOnFlagUntilTimeout
 4603 06d8 0346     		mov	r3, r0
 4604              		.loc 1 1628 6 discriminator 1
 4605 06da 002B     		cmp	r3, #0
 4606 06dc 07D0     		beq	.L202
1629:STM32Cube_FW_N6/Drivers/STM32N6xx_HAL_Driver/Src/stm32n6xx_hal_spi.c ****   {
1630:STM32Cube_FW_N6/Drivers/STM32N6xx_HAL_Driver/Src/stm32n6xx_hal_spi.c ****     SET_BIT(hspi->ErrorCode, HAL_SPI_ERROR_FLAG);
 4607              		.loc 1 1630 5
 4608 06de FB68     		ldr	r3, [r7, #12]
 4609 06e0 D3F88C30 		ldr	r3, [r3, #140]
 4610 06e4 43F02002 		orr	r2, r3, #32
 4611 06e8 FB68     		ldr	r3, [r7, #12]
 4612 06ea C3F88C20 		str	r2, [r3, #140]
 4613              	.L202:
1631:STM32Cube_FW_N6/Drivers/STM32N6xx_HAL_Driver/Src/stm32n6xx_hal_spi.c ****   }
1632:STM32Cube_FW_N6/Drivers/STM32N6xx_HAL_Driver/Src/stm32n6xx_hal_spi.c **** 
1633:STM32Cube_FW_N6/Drivers/STM32N6xx_HAL_Driver/Src/stm32n6xx_hal_spi.c ****   /* Call standard close procedure with error check */
ARM GAS  /tmp/ccwTXtVb.s 			page 111


1634:STM32Cube_FW_N6/Drivers/STM32N6xx_HAL_Driver/Src/stm32n6xx_hal_spi.c ****   SPI_CloseTransfer(hspi);
 4614              		.loc 1 1634 3
 4615 06ee F868     		ldr	r0, [r7, #12]
 4616 06f0 FFF7FEFF 		bl	SPI_CloseTransfer
1635:STM32Cube_FW_N6/Drivers/STM32N6xx_HAL_Driver/Src/stm32n6xx_hal_spi.c **** 
1636:STM32Cube_FW_N6/Drivers/STM32N6xx_HAL_Driver/Src/stm32n6xx_hal_spi.c ****   hspi->State = HAL_SPI_STATE_READY;
 4617              		.loc 1 1636 15
 4618 06f4 FB68     		ldr	r3, [r7, #12]
 4619 06f6 0122     		movs	r2, #1
 4620 06f8 83F88920 		strb	r2, [r3, #137]
1637:STM32Cube_FW_N6/Drivers/STM32N6xx_HAL_Driver/Src/stm32n6xx_hal_spi.c **** 
1638:STM32Cube_FW_N6/Drivers/STM32N6xx_HAL_Driver/Src/stm32n6xx_hal_spi.c ****   /* Unlock the process */
1639:STM32Cube_FW_N6/Drivers/STM32N6xx_HAL_Driver/Src/stm32n6xx_hal_spi.c ****   __HAL_UNLOCK(hspi);
 4621              		.loc 1 1639 3
 4622 06fc FB68     		ldr	r3, [r7, #12]
 4623 06fe 0022     		movs	r2, #0
 4624 0700 83F88820 		strb	r2, [r3, #136]
1640:STM32Cube_FW_N6/Drivers/STM32N6xx_HAL_Driver/Src/stm32n6xx_hal_spi.c **** 
1641:STM32Cube_FW_N6/Drivers/STM32N6xx_HAL_Driver/Src/stm32n6xx_hal_spi.c ****   if (hspi->ErrorCode != HAL_SPI_ERROR_NONE)
 4625              		.loc 1 1641 11
 4626 0704 FB68     		ldr	r3, [r7, #12]
 4627 0706 D3F88C30 		ldr	r3, [r3, #140]
 4628              		.loc 1 1641 6
 4629 070a 002B     		cmp	r3, #0
 4630 070c 01D0     		beq	.L203
1642:STM32Cube_FW_N6/Drivers/STM32N6xx_HAL_Driver/Src/stm32n6xx_hal_spi.c ****   {
1643:STM32Cube_FW_N6/Drivers/STM32N6xx_HAL_Driver/Src/stm32n6xx_hal_spi.c ****     return HAL_ERROR;
 4631              		.loc 1 1643 12
 4632 070e 0123     		movs	r3, #1
 4633 0710 00E0     		b	.L164
 4634              	.L203:
1644:STM32Cube_FW_N6/Drivers/STM32N6xx_HAL_Driver/Src/stm32n6xx_hal_spi.c ****   }
1645:STM32Cube_FW_N6/Drivers/STM32N6xx_HAL_Driver/Src/stm32n6xx_hal_spi.c ****   else
1646:STM32Cube_FW_N6/Drivers/STM32N6xx_HAL_Driver/Src/stm32n6xx_hal_spi.c ****   {
1647:STM32Cube_FW_N6/Drivers/STM32N6xx_HAL_Driver/Src/stm32n6xx_hal_spi.c ****     return HAL_OK;
 4635              		.loc 1 1647 12
 4636 0712 0023     		movs	r3, #0
 4637              	.L164:
1648:STM32Cube_FW_N6/Drivers/STM32N6xx_HAL_Driver/Src/stm32n6xx_hal_spi.c ****   }
1649:STM32Cube_FW_N6/Drivers/STM32N6xx_HAL_Driver/Src/stm32n6xx_hal_spi.c **** }
 4638              		.loc 1 1649 1
 4639 0714 1846     		mov	r0, r3
 4640 0716 3037     		adds	r7, r7, #48
 4641              		.cfi_def_cfa_offset 8
 4642 0718 BD46     		mov	sp, r7
 4643              		.cfi_def_cfa_register 13
 4644              		@ sp needed
 4645 071a 80BD     		pop	{r7, pc}
 4646              		.cfi_endproc
 4647              	.LFE841:
 4649              		.section	.text.HAL_SPI_Transmit_IT,"ax",%progbits
 4650              		.align	1
 4651              		.global	HAL_SPI_Transmit_IT
 4652              		.syntax unified
 4653              		.thumb
 4654              		.thumb_func
 4656              	HAL_SPI_Transmit_IT:
ARM GAS  /tmp/ccwTXtVb.s 			page 112


 4657              	.LFB842:
1650:STM32Cube_FW_N6/Drivers/STM32N6xx_HAL_Driver/Src/stm32n6xx_hal_spi.c **** 
1651:STM32Cube_FW_N6/Drivers/STM32N6xx_HAL_Driver/Src/stm32n6xx_hal_spi.c **** /**
1652:STM32Cube_FW_N6/Drivers/STM32N6xx_HAL_Driver/Src/stm32n6xx_hal_spi.c ****   * @brief  Transmit an amount of data in non-blocking mode with Interrupt.
1653:STM32Cube_FW_N6/Drivers/STM32N6xx_HAL_Driver/Src/stm32n6xx_hal_spi.c ****   * @param  hspi : pointer to a SPI_HandleTypeDef structure that contains
1654:STM32Cube_FW_N6/Drivers/STM32N6xx_HAL_Driver/Src/stm32n6xx_hal_spi.c ****   *                the configuration information for SPI module.
1655:STM32Cube_FW_N6/Drivers/STM32N6xx_HAL_Driver/Src/stm32n6xx_hal_spi.c ****   * @param  pData: pointer to data buffer
1656:STM32Cube_FW_N6/Drivers/STM32N6xx_HAL_Driver/Src/stm32n6xx_hal_spi.c ****   * @param  Size : amount of data to be sent
1657:STM32Cube_FW_N6/Drivers/STM32N6xx_HAL_Driver/Src/stm32n6xx_hal_spi.c ****   * @retval HAL status
1658:STM32Cube_FW_N6/Drivers/STM32N6xx_HAL_Driver/Src/stm32n6xx_hal_spi.c ****   */
1659:STM32Cube_FW_N6/Drivers/STM32N6xx_HAL_Driver/Src/stm32n6xx_hal_spi.c **** HAL_StatusTypeDef HAL_SPI_Transmit_IT(SPI_HandleTypeDef *hspi, const uint8_t *pData, uint16_t Size)
1660:STM32Cube_FW_N6/Drivers/STM32N6xx_HAL_Driver/Src/stm32n6xx_hal_spi.c **** {
 4658              		.loc 1 1660 1
 4659              		.cfi_startproc
 4660              		@ args = 0, pretend = 0, frame = 16
 4661              		@ frame_needed = 1, uses_anonymous_args = 0
 4662 0000 80B5     		push	{r7, lr}
 4663              		.cfi_def_cfa_offset 8
 4664              		.cfi_offset 7, -8
 4665              		.cfi_offset 14, -4
 4666 0002 84B0     		sub	sp, sp, #16
 4667              		.cfi_def_cfa_offset 24
 4668 0004 00AF     		add	r7, sp, #0
 4669              		.cfi_def_cfa_register 7
 4670 0006 F860     		str	r0, [r7, #12]
 4671 0008 B960     		str	r1, [r7, #8]
 4672 000a 1346     		mov	r3, r2
 4673 000c FB80     		strh	r3, [r7, #6]	@ movhi
1661:STM32Cube_FW_N6/Drivers/STM32N6xx_HAL_Driver/Src/stm32n6xx_hal_spi.c ****   /* Check Direction parameter */
1662:STM32Cube_FW_N6/Drivers/STM32N6xx_HAL_Driver/Src/stm32n6xx_hal_spi.c ****   assert_param(IS_SPI_DIRECTION_2LINES_OR_1LINE_2LINES_TXONLY(hspi->Init.Direction));
 4674              		.loc 1 1662 3
 4675 000e FB68     		ldr	r3, [r7, #12]
 4676 0010 9B68     		ldr	r3, [r3, #8]
 4677 0012 002B     		cmp	r3, #0
 4678 0014 0ED0     		beq	.L207
 4679              		.loc 1 1662 3 is_stmt 0 discriminator 1
 4680 0016 FB68     		ldr	r3, [r7, #12]
 4681 0018 9B68     		ldr	r3, [r3, #8]
 4682 001a B3F5C02F 		cmp	r3, #393216
 4683 001e 09D0     		beq	.L207
 4684              		.loc 1 1662 3 discriminator 2
 4685 0020 FB68     		ldr	r3, [r7, #12]
 4686 0022 9B68     		ldr	r3, [r3, #8]
 4687 0024 B3F5003F 		cmp	r3, #131072
 4688 0028 04D0     		beq	.L207
 4689              		.loc 1 1662 3 discriminator 3
 4690 002a 40F27E61 		movw	r1, #1662
 4691 002e 6248     		ldr	r0, .L220
 4692 0030 FFF7FEFF 		bl	assert_failed
 4693              	.L207:
1663:STM32Cube_FW_N6/Drivers/STM32N6xx_HAL_Driver/Src/stm32n6xx_hal_spi.c **** 
1664:STM32Cube_FW_N6/Drivers/STM32N6xx_HAL_Driver/Src/stm32n6xx_hal_spi.c ****   if ((pData == NULL) || (Size == 0UL))
 4694              		.loc 1 1664 6 is_stmt 1
 4695 0034 BB68     		ldr	r3, [r7, #8]
 4696 0036 002B     		cmp	r3, #0
 4697 0038 02D0     		beq	.L208
 4698              		.loc 1 1664 23 discriminator 1
ARM GAS  /tmp/ccwTXtVb.s 			page 113


 4699 003a FB88     		ldrh	r3, [r7, #6]
 4700 003c 002B     		cmp	r3, #0
 4701 003e 01D1     		bne	.L209
 4702              	.L208:
1665:STM32Cube_FW_N6/Drivers/STM32N6xx_HAL_Driver/Src/stm32n6xx_hal_spi.c ****   {
1666:STM32Cube_FW_N6/Drivers/STM32N6xx_HAL_Driver/Src/stm32n6xx_hal_spi.c ****     return HAL_ERROR;
 4703              		.loc 1 1666 12
 4704 0040 0123     		movs	r3, #1
 4705 0042 B4E0     		b	.L210
 4706              	.L209:
1667:STM32Cube_FW_N6/Drivers/STM32N6xx_HAL_Driver/Src/stm32n6xx_hal_spi.c ****   }
1668:STM32Cube_FW_N6/Drivers/STM32N6xx_HAL_Driver/Src/stm32n6xx_hal_spi.c **** 
1669:STM32Cube_FW_N6/Drivers/STM32N6xx_HAL_Driver/Src/stm32n6xx_hal_spi.c ****   if (hspi->State != HAL_SPI_STATE_READY)
 4707              		.loc 1 1669 11
 4708 0044 FB68     		ldr	r3, [r7, #12]
 4709 0046 93F88930 		ldrb	r3, [r3, #137]
 4710 004a DBB2     		uxtb	r3, r3
 4711              		.loc 1 1669 6
 4712 004c 012B     		cmp	r3, #1
 4713 004e 01D0     		beq	.L211
1670:STM32Cube_FW_N6/Drivers/STM32N6xx_HAL_Driver/Src/stm32n6xx_hal_spi.c ****   {
1671:STM32Cube_FW_N6/Drivers/STM32N6xx_HAL_Driver/Src/stm32n6xx_hal_spi.c ****     return HAL_BUSY;
 4714              		.loc 1 1671 12
 4715 0050 0223     		movs	r3, #2
 4716 0052 ACE0     		b	.L210
 4717              	.L211:
1672:STM32Cube_FW_N6/Drivers/STM32N6xx_HAL_Driver/Src/stm32n6xx_hal_spi.c ****   }
1673:STM32Cube_FW_N6/Drivers/STM32N6xx_HAL_Driver/Src/stm32n6xx_hal_spi.c **** 
1674:STM32Cube_FW_N6/Drivers/STM32N6xx_HAL_Driver/Src/stm32n6xx_hal_spi.c ****   /* Lock the process */
1675:STM32Cube_FW_N6/Drivers/STM32N6xx_HAL_Driver/Src/stm32n6xx_hal_spi.c ****   __HAL_LOCK(hspi);
 4718              		.loc 1 1675 3
 4719 0054 FB68     		ldr	r3, [r7, #12]
 4720 0056 93F88830 		ldrb	r3, [r3, #136]	@ zero_extendqisi2
 4721 005a 012B     		cmp	r3, #1
 4722 005c 01D1     		bne	.L212
 4723              		.loc 1 1675 3 is_stmt 0 discriminator 1
 4724 005e 0223     		movs	r3, #2
 4725              		.loc 1 1675 3
 4726 0060 A5E0     		b	.L210
 4727              	.L212:
 4728              		.loc 1 1675 3 discriminator 2
 4729 0062 FB68     		ldr	r3, [r7, #12]
 4730 0064 0122     		movs	r2, #1
 4731 0066 83F88820 		strb	r2, [r3, #136]
1676:STM32Cube_FW_N6/Drivers/STM32N6xx_HAL_Driver/Src/stm32n6xx_hal_spi.c **** 
1677:STM32Cube_FW_N6/Drivers/STM32N6xx_HAL_Driver/Src/stm32n6xx_hal_spi.c ****   /* Set the transaction information */
1678:STM32Cube_FW_N6/Drivers/STM32N6xx_HAL_Driver/Src/stm32n6xx_hal_spi.c ****   hspi->State       = HAL_SPI_STATE_BUSY_TX;
 4732              		.loc 1 1678 21 is_stmt 1
 4733 006a FB68     		ldr	r3, [r7, #12]
 4734 006c 0322     		movs	r2, #3
 4735 006e 83F88920 		strb	r2, [r3, #137]
1679:STM32Cube_FW_N6/Drivers/STM32N6xx_HAL_Driver/Src/stm32n6xx_hal_spi.c ****   hspi->ErrorCode   = HAL_SPI_ERROR_NONE;
 4736              		.loc 1 1679 21
 4737 0072 FB68     		ldr	r3, [r7, #12]
 4738 0074 0022     		movs	r2, #0
 4739 0076 C3F88C20 		str	r2, [r3, #140]
1680:STM32Cube_FW_N6/Drivers/STM32N6xx_HAL_Driver/Src/stm32n6xx_hal_spi.c ****   hspi->pTxBuffPtr  = (const uint8_t *)pData;
ARM GAS  /tmp/ccwTXtVb.s 			page 114


 4740              		.loc 1 1680 21
 4741 007a FB68     		ldr	r3, [r7, #12]
 4742 007c BA68     		ldr	r2, [r7, #8]
 4743 007e 5A66     		str	r2, [r3, #100]
1681:STM32Cube_FW_N6/Drivers/STM32N6xx_HAL_Driver/Src/stm32n6xx_hal_spi.c ****   hspi->TxXferSize  = Size;
 4744              		.loc 1 1681 21
 4745 0080 FB68     		ldr	r3, [r7, #12]
 4746 0082 FA88     		ldrh	r2, [r7, #6]	@ movhi
 4747 0084 A3F86820 		strh	r2, [r3, #104]	@ movhi
1682:STM32Cube_FW_N6/Drivers/STM32N6xx_HAL_Driver/Src/stm32n6xx_hal_spi.c ****   hspi->TxXferCount = Size;
 4748              		.loc 1 1682 21
 4749 0088 FB68     		ldr	r3, [r7, #12]
 4750 008a FA88     		ldrh	r2, [r7, #6]	@ movhi
 4751 008c A3F86A20 		strh	r2, [r3, #106]	@ movhi
1683:STM32Cube_FW_N6/Drivers/STM32N6xx_HAL_Driver/Src/stm32n6xx_hal_spi.c **** 
1684:STM32Cube_FW_N6/Drivers/STM32N6xx_HAL_Driver/Src/stm32n6xx_hal_spi.c ****   /* Init field not used in handle to zero */
1685:STM32Cube_FW_N6/Drivers/STM32N6xx_HAL_Driver/Src/stm32n6xx_hal_spi.c ****   hspi->pRxBuffPtr  = NULL;
 4752              		.loc 1 1685 21
 4753 0090 FB68     		ldr	r3, [r7, #12]
 4754 0092 0022     		movs	r2, #0
 4755 0094 DA66     		str	r2, [r3, #108]
1686:STM32Cube_FW_N6/Drivers/STM32N6xx_HAL_Driver/Src/stm32n6xx_hal_spi.c ****   hspi->RxXferSize  = (uint16_t) 0UL;
 4756              		.loc 1 1686 21
 4757 0096 FB68     		ldr	r3, [r7, #12]
 4758 0098 0022     		movs	r2, #0
 4759 009a A3F87020 		strh	r2, [r3, #112]	@ movhi
1687:STM32Cube_FW_N6/Drivers/STM32N6xx_HAL_Driver/Src/stm32n6xx_hal_spi.c ****   hspi->RxXferCount = (uint16_t) 0UL;
 4760              		.loc 1 1687 21
 4761 009e FB68     		ldr	r3, [r7, #12]
 4762 00a0 0022     		movs	r2, #0
 4763 00a2 A3F87220 		strh	r2, [r3, #114]	@ movhi
1688:STM32Cube_FW_N6/Drivers/STM32N6xx_HAL_Driver/Src/stm32n6xx_hal_spi.c ****   hspi->RxISR       = NULL;
 4764              		.loc 1 1688 21
 4765 00a6 FB68     		ldr	r3, [r7, #12]
 4766 00a8 0022     		movs	r2, #0
 4767 00aa 9A67     		str	r2, [r3, #120]
1689:STM32Cube_FW_N6/Drivers/STM32N6xx_HAL_Driver/Src/stm32n6xx_hal_spi.c **** 
1690:STM32Cube_FW_N6/Drivers/STM32N6xx_HAL_Driver/Src/stm32n6xx_hal_spi.c ****   /* Set the function for IT treatment */
1691:STM32Cube_FW_N6/Drivers/STM32N6xx_HAL_Driver/Src/stm32n6xx_hal_spi.c ****   if ((hspi->Init.DataSize > SPI_DATASIZE_16BIT) && (IS_SPI_FULL_INSTANCE(hspi->Instance)))
 4768              		.loc 1 1691 18
 4769 00ac FB68     		ldr	r3, [r7, #12]
 4770 00ae DB68     		ldr	r3, [r3, #12]
 4771              		.loc 1 1691 6
 4772 00b0 0F2B     		cmp	r3, #15
 4773 00b2 2BD9     		bls	.L213
 4774              		.loc 1 1691 54 discriminator 1
 4775 00b4 FB68     		ldr	r3, [r7, #12]
 4776 00b6 1B68     		ldr	r3, [r3]
 4777              		.loc 1 1691 50 discriminator 1
 4778 00b8 404A     		ldr	r2, .L220+4
 4779 00ba 9342     		cmp	r3, r2
 4780 00bc 22D0     		beq	.L214
 4781              		.loc 1 1691 54 discriminator 2
 4782 00be FB68     		ldr	r3, [r7, #12]
 4783 00c0 1B68     		ldr	r3, [r3]
 4784 00c2 3F4A     		ldr	r2, .L220+8
 4785 00c4 9342     		cmp	r3, r2
ARM GAS  /tmp/ccwTXtVb.s 			page 115


 4786 00c6 1DD0     		beq	.L214
 4787              		.loc 1 1691 54 is_stmt 0 discriminator 3
 4788 00c8 FB68     		ldr	r3, [r7, #12]
 4789 00ca 1B68     		ldr	r3, [r3]
 4790 00cc 3D4A     		ldr	r2, .L220+12
 4791 00ce 9342     		cmp	r3, r2
 4792 00d0 18D0     		beq	.L214
 4793              		.loc 1 1691 54 discriminator 4
 4794 00d2 FB68     		ldr	r3, [r7, #12]
 4795 00d4 1B68     		ldr	r3, [r3]
 4796 00d6 3C4A     		ldr	r2, .L220+16
 4797 00d8 9342     		cmp	r3, r2
 4798 00da 13D0     		beq	.L214
 4799              		.loc 1 1691 54 discriminator 5
 4800 00dc FB68     		ldr	r3, [r7, #12]
 4801 00de 1B68     		ldr	r3, [r3]
 4802 00e0 3A4A     		ldr	r2, .L220+20
 4803 00e2 9342     		cmp	r3, r2
 4804 00e4 0ED0     		beq	.L214
 4805              		.loc 1 1691 54 discriminator 6
 4806 00e6 FB68     		ldr	r3, [r7, #12]
 4807 00e8 1B68     		ldr	r3, [r3]
 4808 00ea 394A     		ldr	r2, .L220+24
 4809 00ec 9342     		cmp	r3, r2
 4810 00ee 09D0     		beq	.L214
 4811              		.loc 1 1691 54 discriminator 7
 4812 00f0 FB68     		ldr	r3, [r7, #12]
 4813 00f2 1B68     		ldr	r3, [r3]
 4814 00f4 374A     		ldr	r2, .L220+28
 4815 00f6 9342     		cmp	r3, r2
 4816 00f8 04D0     		beq	.L214
 4817              		.loc 1 1691 54 discriminator 8
 4818 00fa FB68     		ldr	r3, [r7, #12]
 4819 00fc 1B68     		ldr	r3, [r3]
 4820 00fe 364A     		ldr	r2, .L220+32
 4821 0100 9342     		cmp	r3, r2
 4822 0102 03D1     		bne	.L213
 4823              	.L214:
1692:STM32Cube_FW_N6/Drivers/STM32N6xx_HAL_Driver/Src/stm32n6xx_hal_spi.c ****   {
1693:STM32Cube_FW_N6/Drivers/STM32N6xx_HAL_Driver/Src/stm32n6xx_hal_spi.c ****     hspi->TxISR = SPI_TxISR_32BIT;
 4824              		.loc 1 1693 17 is_stmt 1
 4825 0104 FB68     		ldr	r3, [r7, #12]
 4826 0106 354A     		ldr	r2, .L220+36
 4827 0108 DA67     		str	r2, [r3, #124]
 4828 010a 0AE0     		b	.L215
 4829              	.L213:
1694:STM32Cube_FW_N6/Drivers/STM32N6xx_HAL_Driver/Src/stm32n6xx_hal_spi.c ****   }
1695:STM32Cube_FW_N6/Drivers/STM32N6xx_HAL_Driver/Src/stm32n6xx_hal_spi.c ****   else if (hspi->Init.DataSize > SPI_DATASIZE_8BIT)
 4830              		.loc 1 1695 22
 4831 010c FB68     		ldr	r3, [r7, #12]
 4832 010e DB68     		ldr	r3, [r3, #12]
 4833              		.loc 1 1695 11
 4834 0110 072B     		cmp	r3, #7
 4835 0112 03D9     		bls	.L216
1696:STM32Cube_FW_N6/Drivers/STM32N6xx_HAL_Driver/Src/stm32n6xx_hal_spi.c ****   {
1697:STM32Cube_FW_N6/Drivers/STM32N6xx_HAL_Driver/Src/stm32n6xx_hal_spi.c ****     hspi->TxISR = SPI_TxISR_16BIT;
 4836              		.loc 1 1697 17
ARM GAS  /tmp/ccwTXtVb.s 			page 116


 4837 0114 FB68     		ldr	r3, [r7, #12]
 4838 0116 324A     		ldr	r2, .L220+40
 4839 0118 DA67     		str	r2, [r3, #124]
 4840 011a 02E0     		b	.L215
 4841              	.L216:
1698:STM32Cube_FW_N6/Drivers/STM32N6xx_HAL_Driver/Src/stm32n6xx_hal_spi.c ****   }
1699:STM32Cube_FW_N6/Drivers/STM32N6xx_HAL_Driver/Src/stm32n6xx_hal_spi.c ****   else
1700:STM32Cube_FW_N6/Drivers/STM32N6xx_HAL_Driver/Src/stm32n6xx_hal_spi.c ****   {
1701:STM32Cube_FW_N6/Drivers/STM32N6xx_HAL_Driver/Src/stm32n6xx_hal_spi.c ****     hspi->TxISR = SPI_TxISR_8BIT;
 4842              		.loc 1 1701 17
 4843 011c FB68     		ldr	r3, [r7, #12]
 4844 011e 314A     		ldr	r2, .L220+44
 4845 0120 DA67     		str	r2, [r3, #124]
 4846              	.L215:
1702:STM32Cube_FW_N6/Drivers/STM32N6xx_HAL_Driver/Src/stm32n6xx_hal_spi.c ****   }
1703:STM32Cube_FW_N6/Drivers/STM32N6xx_HAL_Driver/Src/stm32n6xx_hal_spi.c **** 
1704:STM32Cube_FW_N6/Drivers/STM32N6xx_HAL_Driver/Src/stm32n6xx_hal_spi.c ****   /* Configure communication direction : 1Line */
1705:STM32Cube_FW_N6/Drivers/STM32N6xx_HAL_Driver/Src/stm32n6xx_hal_spi.c ****   if (hspi->Init.Direction == SPI_DIRECTION_1LINE)
 4847              		.loc 1 1705 17
 4848 0122 FB68     		ldr	r3, [r7, #12]
 4849 0124 9B68     		ldr	r3, [r3, #8]
 4850              		.loc 1 1705 6
 4851 0126 B3F5C02F 		cmp	r3, #393216
 4852 012a 08D1     		bne	.L217
1706:STM32Cube_FW_N6/Drivers/STM32N6xx_HAL_Driver/Src/stm32n6xx_hal_spi.c ****   {
1707:STM32Cube_FW_N6/Drivers/STM32N6xx_HAL_Driver/Src/stm32n6xx_hal_spi.c ****     SPI_1LINE_TX(hspi);
 4853              		.loc 1 1707 5
 4854 012c FB68     		ldr	r3, [r7, #12]
 4855 012e 1B68     		ldr	r3, [r3]
 4856 0130 1A68     		ldr	r2, [r3]
 4857 0132 FB68     		ldr	r3, [r7, #12]
 4858 0134 1B68     		ldr	r3, [r3]
 4859 0136 42F40062 		orr	r2, r2, #2048
 4860 013a 1A60     		str	r2, [r3]
 4861 013c 09E0     		b	.L218
 4862              	.L217:
1708:STM32Cube_FW_N6/Drivers/STM32N6xx_HAL_Driver/Src/stm32n6xx_hal_spi.c ****   }
1709:STM32Cube_FW_N6/Drivers/STM32N6xx_HAL_Driver/Src/stm32n6xx_hal_spi.c ****   else
1710:STM32Cube_FW_N6/Drivers/STM32N6xx_HAL_Driver/Src/stm32n6xx_hal_spi.c ****   {
1711:STM32Cube_FW_N6/Drivers/STM32N6xx_HAL_Driver/Src/stm32n6xx_hal_spi.c ****     SPI_2LINES_TX(hspi);
 4863              		.loc 1 1711 5
 4864 013e FB68     		ldr	r3, [r7, #12]
 4865 0140 1B68     		ldr	r3, [r3]
 4866 0142 DB68     		ldr	r3, [r3, #12]
 4867 0144 23F4C022 		bic	r2, r3, #393216
 4868 0148 FB68     		ldr	r3, [r7, #12]
 4869 014a 1B68     		ldr	r3, [r3]
 4870 014c 42F40032 		orr	r2, r2, #131072
 4871 0150 DA60     		str	r2, [r3, #12]
 4872              	.L218:
1712:STM32Cube_FW_N6/Drivers/STM32N6xx_HAL_Driver/Src/stm32n6xx_hal_spi.c ****   }
1713:STM32Cube_FW_N6/Drivers/STM32N6xx_HAL_Driver/Src/stm32n6xx_hal_spi.c **** 
1714:STM32Cube_FW_N6/Drivers/STM32N6xx_HAL_Driver/Src/stm32n6xx_hal_spi.c ****   /* Set the number of data at current transfer */
1715:STM32Cube_FW_N6/Drivers/STM32N6xx_HAL_Driver/Src/stm32n6xx_hal_spi.c ****   MODIFY_REG(hspi->Instance->CR2, SPI_CR2_TSIZE, Size);
 4873              		.loc 1 1715 3
 4874 0152 FB68     		ldr	r3, [r7, #12]
 4875 0154 1B68     		ldr	r3, [r3]
ARM GAS  /tmp/ccwTXtVb.s 			page 117


 4876 0156 5B68     		ldr	r3, [r3, #4]
 4877 0158 1B0C     		lsrs	r3, r3, #16
 4878 015a 1B04     		lsls	r3, r3, #16
 4879 015c F988     		ldrh	r1, [r7, #6]
 4880 015e FA68     		ldr	r2, [r7, #12]
 4881 0160 1268     		ldr	r2, [r2]
 4882 0162 0B43     		orrs	r3, r3, r1
 4883 0164 5360     		str	r3, [r2, #4]
1716:STM32Cube_FW_N6/Drivers/STM32N6xx_HAL_Driver/Src/stm32n6xx_hal_spi.c **** 
1717:STM32Cube_FW_N6/Drivers/STM32N6xx_HAL_Driver/Src/stm32n6xx_hal_spi.c ****   /* Enable SPI peripheral */
1718:STM32Cube_FW_N6/Drivers/STM32N6xx_HAL_Driver/Src/stm32n6xx_hal_spi.c ****   __HAL_SPI_ENABLE(hspi);
 4884              		.loc 1 1718 3
 4885 0166 FB68     		ldr	r3, [r7, #12]
 4886 0168 1B68     		ldr	r3, [r3]
 4887 016a 1A68     		ldr	r2, [r3]
 4888 016c FB68     		ldr	r3, [r7, #12]
 4889 016e 1B68     		ldr	r3, [r3]
 4890 0170 42F00102 		orr	r2, r2, #1
 4891 0174 1A60     		str	r2, [r3]
1719:STM32Cube_FW_N6/Drivers/STM32N6xx_HAL_Driver/Src/stm32n6xx_hal_spi.c **** 
1720:STM32Cube_FW_N6/Drivers/STM32N6xx_HAL_Driver/Src/stm32n6xx_hal_spi.c ****   /* Unlock the process */
1721:STM32Cube_FW_N6/Drivers/STM32N6xx_HAL_Driver/Src/stm32n6xx_hal_spi.c ****   __HAL_UNLOCK(hspi);
 4892              		.loc 1 1721 3
 4893 0176 FB68     		ldr	r3, [r7, #12]
 4894 0178 0022     		movs	r2, #0
 4895 017a 83F88820 		strb	r2, [r3, #136]
1722:STM32Cube_FW_N6/Drivers/STM32N6xx_HAL_Driver/Src/stm32n6xx_hal_spi.c **** 
1723:STM32Cube_FW_N6/Drivers/STM32N6xx_HAL_Driver/Src/stm32n6xx_hal_spi.c ****   /* Enable EOT, TXP, FRE, MODF and UDR interrupts */
1724:STM32Cube_FW_N6/Drivers/STM32N6xx_HAL_Driver/Src/stm32n6xx_hal_spi.c ****   __HAL_SPI_ENABLE_IT(hspi, (SPI_IT_EOT | SPI_IT_TXP | SPI_IT_UDR | SPI_IT_FRE | SPI_IT_MODF));
 4896              		.loc 1 1724 3
 4897 017e FB68     		ldr	r3, [r7, #12]
 4898 0180 1B68     		ldr	r3, [r3]
 4899 0182 1B69     		ldr	r3, [r3, #16]
 4900 0184 FA68     		ldr	r2, [r7, #12]
 4901 0186 1268     		ldr	r2, [r2]
 4902 0188 43F44A73 		orr	r3, r3, #808
 4903 018c 43F00203 		orr	r3, r3, #2
 4904 0190 1361     		str	r3, [r2, #16]
1725:STM32Cube_FW_N6/Drivers/STM32N6xx_HAL_Driver/Src/stm32n6xx_hal_spi.c **** 
1726:STM32Cube_FW_N6/Drivers/STM32N6xx_HAL_Driver/Src/stm32n6xx_hal_spi.c ****   if (hspi->Init.Mode == SPI_MODE_MASTER)
 4905              		.loc 1 1726 17
 4906 0192 FB68     		ldr	r3, [r7, #12]
 4907 0194 5B68     		ldr	r3, [r3, #4]
 4908              		.loc 1 1726 6
 4909 0196 B3F5800F 		cmp	r3, #4194304
 4910 019a 07D1     		bne	.L219
1727:STM32Cube_FW_N6/Drivers/STM32N6xx_HAL_Driver/Src/stm32n6xx_hal_spi.c ****   {
1728:STM32Cube_FW_N6/Drivers/STM32N6xx_HAL_Driver/Src/stm32n6xx_hal_spi.c ****     /* Master transfer start */
1729:STM32Cube_FW_N6/Drivers/STM32N6xx_HAL_Driver/Src/stm32n6xx_hal_spi.c ****     SET_BIT(hspi->Instance->CR1, SPI_CR1_CSTART);
 4911              		.loc 1 1729 5
 4912 019c FB68     		ldr	r3, [r7, #12]
 4913 019e 1B68     		ldr	r3, [r3]
 4914 01a0 1A68     		ldr	r2, [r3]
 4915 01a2 FB68     		ldr	r3, [r7, #12]
 4916 01a4 1B68     		ldr	r3, [r3]
 4917 01a6 42F40072 		orr	r2, r2, #512
 4918 01aa 1A60     		str	r2, [r3]
ARM GAS  /tmp/ccwTXtVb.s 			page 118


 4919              	.L219:
1730:STM32Cube_FW_N6/Drivers/STM32N6xx_HAL_Driver/Src/stm32n6xx_hal_spi.c ****   }
1731:STM32Cube_FW_N6/Drivers/STM32N6xx_HAL_Driver/Src/stm32n6xx_hal_spi.c **** 
1732:STM32Cube_FW_N6/Drivers/STM32N6xx_HAL_Driver/Src/stm32n6xx_hal_spi.c ****   return HAL_OK;
 4920              		.loc 1 1732 10
 4921 01ac 0023     		movs	r3, #0
 4922              	.L210:
1733:STM32Cube_FW_N6/Drivers/STM32N6xx_HAL_Driver/Src/stm32n6xx_hal_spi.c **** }
 4923              		.loc 1 1733 1
 4924 01ae 1846     		mov	r0, r3
 4925 01b0 1037     		adds	r7, r7, #16
 4926              		.cfi_def_cfa_offset 8
 4927 01b2 BD46     		mov	sp, r7
 4928              		.cfi_def_cfa_register 13
 4929              		@ sp needed
 4930 01b4 80BD     		pop	{r7, pc}
 4931              	.L221:
 4932 01b6 00BF     		.align	2
 4933              	.L220:
 4934 01b8 00000000 		.word	.LC0
 4935 01bc 00300052 		.word	1375744000
 4936 01c0 00300042 		.word	1107308544
 4937 01c4 00380050 		.word	1342191616
 4938 01c8 00380040 		.word	1073756160
 4939 01cc 003C0050 		.word	1342192640
 4940 01d0 003C0040 		.word	1073757184
 4941 01d4 00140056 		.word	1442845696
 4942 01d8 00140046 		.word	1174410240
 4943 01dc 00000000 		.word	SPI_TxISR_32BIT
 4944 01e0 00000000 		.word	SPI_TxISR_16BIT
 4945 01e4 00000000 		.word	SPI_TxISR_8BIT
 4946              		.cfi_endproc
 4947              	.LFE842:
 4949              		.section	.text.HAL_SPI_Receive_IT,"ax",%progbits
 4950              		.align	1
 4951              		.global	HAL_SPI_Receive_IT
 4952              		.syntax unified
 4953              		.thumb
 4954              		.thumb_func
 4956              	HAL_SPI_Receive_IT:
 4957              	.LFB843:
1734:STM32Cube_FW_N6/Drivers/STM32N6xx_HAL_Driver/Src/stm32n6xx_hal_spi.c **** 
1735:STM32Cube_FW_N6/Drivers/STM32N6xx_HAL_Driver/Src/stm32n6xx_hal_spi.c **** /**
1736:STM32Cube_FW_N6/Drivers/STM32N6xx_HAL_Driver/Src/stm32n6xx_hal_spi.c ****   * @brief  Receive an amount of data in non-blocking mode with Interrupt.
1737:STM32Cube_FW_N6/Drivers/STM32N6xx_HAL_Driver/Src/stm32n6xx_hal_spi.c ****   * @param  hspi : pointer to a SPI_HandleTypeDef structure that contains
1738:STM32Cube_FW_N6/Drivers/STM32N6xx_HAL_Driver/Src/stm32n6xx_hal_spi.c ****   *                the configuration information for SPI module.
1739:STM32Cube_FW_N6/Drivers/STM32N6xx_HAL_Driver/Src/stm32n6xx_hal_spi.c ****   * @param  pData: pointer to data buffer
1740:STM32Cube_FW_N6/Drivers/STM32N6xx_HAL_Driver/Src/stm32n6xx_hal_spi.c ****   * @param  Size : amount of data to be sent
1741:STM32Cube_FW_N6/Drivers/STM32N6xx_HAL_Driver/Src/stm32n6xx_hal_spi.c ****   * @retval HAL status
1742:STM32Cube_FW_N6/Drivers/STM32N6xx_HAL_Driver/Src/stm32n6xx_hal_spi.c ****   */
1743:STM32Cube_FW_N6/Drivers/STM32N6xx_HAL_Driver/Src/stm32n6xx_hal_spi.c **** HAL_StatusTypeDef HAL_SPI_Receive_IT(SPI_HandleTypeDef *hspi, uint8_t *pData, uint16_t Size)
1744:STM32Cube_FW_N6/Drivers/STM32N6xx_HAL_Driver/Src/stm32n6xx_hal_spi.c **** {
 4958              		.loc 1 1744 1
 4959              		.cfi_startproc
 4960              		@ args = 0, pretend = 0, frame = 16
 4961              		@ frame_needed = 1, uses_anonymous_args = 0
 4962 0000 80B5     		push	{r7, lr}
ARM GAS  /tmp/ccwTXtVb.s 			page 119


 4963              		.cfi_def_cfa_offset 8
 4964              		.cfi_offset 7, -8
 4965              		.cfi_offset 14, -4
 4966 0002 84B0     		sub	sp, sp, #16
 4967              		.cfi_def_cfa_offset 24
 4968 0004 00AF     		add	r7, sp, #0
 4969              		.cfi_def_cfa_register 7
 4970 0006 F860     		str	r0, [r7, #12]
 4971 0008 B960     		str	r1, [r7, #8]
 4972 000a 1346     		mov	r3, r2
 4973 000c FB80     		strh	r3, [r7, #6]	@ movhi
1745:STM32Cube_FW_N6/Drivers/STM32N6xx_HAL_Driver/Src/stm32n6xx_hal_spi.c ****   /* Check Direction parameter */
1746:STM32Cube_FW_N6/Drivers/STM32N6xx_HAL_Driver/Src/stm32n6xx_hal_spi.c ****   assert_param(IS_SPI_DIRECTION_2LINES_OR_1LINE_2LINES_RXONLY(hspi->Init.Direction));
 4974              		.loc 1 1746 3
 4975 000e FB68     		ldr	r3, [r7, #12]
 4976 0010 9B68     		ldr	r3, [r3, #8]
 4977 0012 002B     		cmp	r3, #0
 4978 0014 0ED0     		beq	.L223
 4979              		.loc 1 1746 3 is_stmt 0 discriminator 1
 4980 0016 FB68     		ldr	r3, [r7, #12]
 4981 0018 9B68     		ldr	r3, [r3, #8]
 4982 001a B3F5C02F 		cmp	r3, #393216
 4983 001e 09D0     		beq	.L223
 4984              		.loc 1 1746 3 discriminator 2
 4985 0020 FB68     		ldr	r3, [r7, #12]
 4986 0022 9B68     		ldr	r3, [r3, #8]
 4987 0024 B3F5802F 		cmp	r3, #262144
 4988 0028 04D0     		beq	.L223
 4989              		.loc 1 1746 3 discriminator 3
 4990 002a 40F2D261 		movw	r1, #1746
 4991 002e 6248     		ldr	r0, .L236
 4992 0030 FFF7FEFF 		bl	assert_failed
 4993              	.L223:
1747:STM32Cube_FW_N6/Drivers/STM32N6xx_HAL_Driver/Src/stm32n6xx_hal_spi.c **** 
1748:STM32Cube_FW_N6/Drivers/STM32N6xx_HAL_Driver/Src/stm32n6xx_hal_spi.c ****   if (hspi->State != HAL_SPI_STATE_READY)
 4994              		.loc 1 1748 11 is_stmt 1
 4995 0034 FB68     		ldr	r3, [r7, #12]
 4996 0036 93F88930 		ldrb	r3, [r3, #137]
 4997 003a DBB2     		uxtb	r3, r3
 4998              		.loc 1 1748 6
 4999 003c 012B     		cmp	r3, #1
 5000 003e 01D0     		beq	.L224
1749:STM32Cube_FW_N6/Drivers/STM32N6xx_HAL_Driver/Src/stm32n6xx_hal_spi.c ****   {
1750:STM32Cube_FW_N6/Drivers/STM32N6xx_HAL_Driver/Src/stm32n6xx_hal_spi.c ****     return HAL_BUSY;
 5001              		.loc 1 1750 12
 5002 0040 0223     		movs	r3, #2
 5003 0042 B4E0     		b	.L225
 5004              	.L224:
1751:STM32Cube_FW_N6/Drivers/STM32N6xx_HAL_Driver/Src/stm32n6xx_hal_spi.c ****   }
1752:STM32Cube_FW_N6/Drivers/STM32N6xx_HAL_Driver/Src/stm32n6xx_hal_spi.c **** 
1753:STM32Cube_FW_N6/Drivers/STM32N6xx_HAL_Driver/Src/stm32n6xx_hal_spi.c ****   if ((pData == NULL) || (Size == 0UL))
 5005              		.loc 1 1753 6
 5006 0044 BB68     		ldr	r3, [r7, #8]
 5007 0046 002B     		cmp	r3, #0
 5008 0048 02D0     		beq	.L226
 5009              		.loc 1 1753 23 discriminator 1
 5010 004a FB88     		ldrh	r3, [r7, #6]
ARM GAS  /tmp/ccwTXtVb.s 			page 120


 5011 004c 002B     		cmp	r3, #0
 5012 004e 01D1     		bne	.L227
 5013              	.L226:
1754:STM32Cube_FW_N6/Drivers/STM32N6xx_HAL_Driver/Src/stm32n6xx_hal_spi.c ****   {
1755:STM32Cube_FW_N6/Drivers/STM32N6xx_HAL_Driver/Src/stm32n6xx_hal_spi.c ****     return HAL_ERROR;
 5014              		.loc 1 1755 12
 5015 0050 0123     		movs	r3, #1
 5016 0052 ACE0     		b	.L225
 5017              	.L227:
1756:STM32Cube_FW_N6/Drivers/STM32N6xx_HAL_Driver/Src/stm32n6xx_hal_spi.c ****   }
1757:STM32Cube_FW_N6/Drivers/STM32N6xx_HAL_Driver/Src/stm32n6xx_hal_spi.c **** 
1758:STM32Cube_FW_N6/Drivers/STM32N6xx_HAL_Driver/Src/stm32n6xx_hal_spi.c ****   /* Lock the process */
1759:STM32Cube_FW_N6/Drivers/STM32N6xx_HAL_Driver/Src/stm32n6xx_hal_spi.c ****   __HAL_LOCK(hspi);
 5018              		.loc 1 1759 3
 5019 0054 FB68     		ldr	r3, [r7, #12]
 5020 0056 93F88830 		ldrb	r3, [r3, #136]	@ zero_extendqisi2
 5021 005a 012B     		cmp	r3, #1
 5022 005c 01D1     		bne	.L228
 5023              		.loc 1 1759 3 is_stmt 0 discriminator 1
 5024 005e 0223     		movs	r3, #2
 5025              		.loc 1 1759 3
 5026 0060 A5E0     		b	.L225
 5027              	.L228:
 5028              		.loc 1 1759 3 discriminator 2
 5029 0062 FB68     		ldr	r3, [r7, #12]
 5030 0064 0122     		movs	r2, #1
 5031 0066 83F88820 		strb	r2, [r3, #136]
1760:STM32Cube_FW_N6/Drivers/STM32N6xx_HAL_Driver/Src/stm32n6xx_hal_spi.c **** 
1761:STM32Cube_FW_N6/Drivers/STM32N6xx_HAL_Driver/Src/stm32n6xx_hal_spi.c ****   /* Set the transaction information */
1762:STM32Cube_FW_N6/Drivers/STM32N6xx_HAL_Driver/Src/stm32n6xx_hal_spi.c ****   hspi->State       = HAL_SPI_STATE_BUSY_RX;
 5032              		.loc 1 1762 21 is_stmt 1
 5033 006a FB68     		ldr	r3, [r7, #12]
 5034 006c 0422     		movs	r2, #4
 5035 006e 83F88920 		strb	r2, [r3, #137]
1763:STM32Cube_FW_N6/Drivers/STM32N6xx_HAL_Driver/Src/stm32n6xx_hal_spi.c ****   hspi->ErrorCode   = HAL_SPI_ERROR_NONE;
 5036              		.loc 1 1763 21
 5037 0072 FB68     		ldr	r3, [r7, #12]
 5038 0074 0022     		movs	r2, #0
 5039 0076 C3F88C20 		str	r2, [r3, #140]
1764:STM32Cube_FW_N6/Drivers/STM32N6xx_HAL_Driver/Src/stm32n6xx_hal_spi.c ****   hspi->pRxBuffPtr  = (uint8_t *)pData;
 5040              		.loc 1 1764 21
 5041 007a FB68     		ldr	r3, [r7, #12]
 5042 007c BA68     		ldr	r2, [r7, #8]
 5043 007e DA66     		str	r2, [r3, #108]
1765:STM32Cube_FW_N6/Drivers/STM32N6xx_HAL_Driver/Src/stm32n6xx_hal_spi.c ****   hspi->RxXferSize  = Size;
 5044              		.loc 1 1765 21
 5045 0080 FB68     		ldr	r3, [r7, #12]
 5046 0082 FA88     		ldrh	r2, [r7, #6]	@ movhi
 5047 0084 A3F87020 		strh	r2, [r3, #112]	@ movhi
1766:STM32Cube_FW_N6/Drivers/STM32N6xx_HAL_Driver/Src/stm32n6xx_hal_spi.c ****   hspi->RxXferCount = Size;
 5048              		.loc 1 1766 21
 5049 0088 FB68     		ldr	r3, [r7, #12]
 5050 008a FA88     		ldrh	r2, [r7, #6]	@ movhi
 5051 008c A3F87220 		strh	r2, [r3, #114]	@ movhi
1767:STM32Cube_FW_N6/Drivers/STM32N6xx_HAL_Driver/Src/stm32n6xx_hal_spi.c **** 
1768:STM32Cube_FW_N6/Drivers/STM32N6xx_HAL_Driver/Src/stm32n6xx_hal_spi.c ****   /* Init field not used in handle to zero */
1769:STM32Cube_FW_N6/Drivers/STM32N6xx_HAL_Driver/Src/stm32n6xx_hal_spi.c ****   hspi->pTxBuffPtr  = NULL;
ARM GAS  /tmp/ccwTXtVb.s 			page 121


 5052              		.loc 1 1769 21
 5053 0090 FB68     		ldr	r3, [r7, #12]
 5054 0092 0022     		movs	r2, #0
 5055 0094 5A66     		str	r2, [r3, #100]
1770:STM32Cube_FW_N6/Drivers/STM32N6xx_HAL_Driver/Src/stm32n6xx_hal_spi.c ****   hspi->TxXferSize  = (uint16_t) 0UL;
 5056              		.loc 1 1770 21
 5057 0096 FB68     		ldr	r3, [r7, #12]
 5058 0098 0022     		movs	r2, #0
 5059 009a A3F86820 		strh	r2, [r3, #104]	@ movhi
1771:STM32Cube_FW_N6/Drivers/STM32N6xx_HAL_Driver/Src/stm32n6xx_hal_spi.c ****   hspi->TxXferCount = (uint16_t) 0UL;
 5060              		.loc 1 1771 21
 5061 009e FB68     		ldr	r3, [r7, #12]
 5062 00a0 0022     		movs	r2, #0
 5063 00a2 A3F86A20 		strh	r2, [r3, #106]	@ movhi
1772:STM32Cube_FW_N6/Drivers/STM32N6xx_HAL_Driver/Src/stm32n6xx_hal_spi.c ****   hspi->TxISR       = NULL;
 5064              		.loc 1 1772 21
 5065 00a6 FB68     		ldr	r3, [r7, #12]
 5066 00a8 0022     		movs	r2, #0
 5067 00aa DA67     		str	r2, [r3, #124]
1773:STM32Cube_FW_N6/Drivers/STM32N6xx_HAL_Driver/Src/stm32n6xx_hal_spi.c **** 
1774:STM32Cube_FW_N6/Drivers/STM32N6xx_HAL_Driver/Src/stm32n6xx_hal_spi.c ****   /* Set the function for IT treatment */
1775:STM32Cube_FW_N6/Drivers/STM32N6xx_HAL_Driver/Src/stm32n6xx_hal_spi.c ****   if ((hspi->Init.DataSize > SPI_DATASIZE_16BIT) && (IS_SPI_FULL_INSTANCE(hspi->Instance)))
 5068              		.loc 1 1775 18
 5069 00ac FB68     		ldr	r3, [r7, #12]
 5070 00ae DB68     		ldr	r3, [r3, #12]
 5071              		.loc 1 1775 6
 5072 00b0 0F2B     		cmp	r3, #15
 5073 00b2 2BD9     		bls	.L229
 5074              		.loc 1 1775 54 discriminator 1
 5075 00b4 FB68     		ldr	r3, [r7, #12]
 5076 00b6 1B68     		ldr	r3, [r3]
 5077              		.loc 1 1775 50 discriminator 1
 5078 00b8 404A     		ldr	r2, .L236+4
 5079 00ba 9342     		cmp	r3, r2
 5080 00bc 22D0     		beq	.L230
 5081              		.loc 1 1775 54 discriminator 2
 5082 00be FB68     		ldr	r3, [r7, #12]
 5083 00c0 1B68     		ldr	r3, [r3]
 5084 00c2 3F4A     		ldr	r2, .L236+8
 5085 00c4 9342     		cmp	r3, r2
 5086 00c6 1DD0     		beq	.L230
 5087              		.loc 1 1775 54 is_stmt 0 discriminator 3
 5088 00c8 FB68     		ldr	r3, [r7, #12]
 5089 00ca 1B68     		ldr	r3, [r3]
 5090 00cc 3D4A     		ldr	r2, .L236+12
 5091 00ce 9342     		cmp	r3, r2
 5092 00d0 18D0     		beq	.L230
 5093              		.loc 1 1775 54 discriminator 4
 5094 00d2 FB68     		ldr	r3, [r7, #12]
 5095 00d4 1B68     		ldr	r3, [r3]
 5096 00d6 3C4A     		ldr	r2, .L236+16
 5097 00d8 9342     		cmp	r3, r2
 5098 00da 13D0     		beq	.L230
 5099              		.loc 1 1775 54 discriminator 5
 5100 00dc FB68     		ldr	r3, [r7, #12]
 5101 00de 1B68     		ldr	r3, [r3]
 5102 00e0 3A4A     		ldr	r2, .L236+20
ARM GAS  /tmp/ccwTXtVb.s 			page 122


 5103 00e2 9342     		cmp	r3, r2
 5104 00e4 0ED0     		beq	.L230
 5105              		.loc 1 1775 54 discriminator 6
 5106 00e6 FB68     		ldr	r3, [r7, #12]
 5107 00e8 1B68     		ldr	r3, [r3]
 5108 00ea 394A     		ldr	r2, .L236+24
 5109 00ec 9342     		cmp	r3, r2
 5110 00ee 09D0     		beq	.L230
 5111              		.loc 1 1775 54 discriminator 7
 5112 00f0 FB68     		ldr	r3, [r7, #12]
 5113 00f2 1B68     		ldr	r3, [r3]
 5114 00f4 374A     		ldr	r2, .L236+28
 5115 00f6 9342     		cmp	r3, r2
 5116 00f8 04D0     		beq	.L230
 5117              		.loc 1 1775 54 discriminator 8
 5118 00fa FB68     		ldr	r3, [r7, #12]
 5119 00fc 1B68     		ldr	r3, [r3]
 5120 00fe 364A     		ldr	r2, .L236+32
 5121 0100 9342     		cmp	r3, r2
 5122 0102 03D1     		bne	.L229
 5123              	.L230:
1776:STM32Cube_FW_N6/Drivers/STM32N6xx_HAL_Driver/Src/stm32n6xx_hal_spi.c ****   {
1777:STM32Cube_FW_N6/Drivers/STM32N6xx_HAL_Driver/Src/stm32n6xx_hal_spi.c ****     hspi->RxISR = SPI_RxISR_32BIT;
 5124              		.loc 1 1777 17 is_stmt 1
 5125 0104 FB68     		ldr	r3, [r7, #12]
 5126 0106 354A     		ldr	r2, .L236+36
 5127 0108 9A67     		str	r2, [r3, #120]
 5128 010a 0AE0     		b	.L231
 5129              	.L229:
1778:STM32Cube_FW_N6/Drivers/STM32N6xx_HAL_Driver/Src/stm32n6xx_hal_spi.c ****   }
1779:STM32Cube_FW_N6/Drivers/STM32N6xx_HAL_Driver/Src/stm32n6xx_hal_spi.c ****   else if (hspi->Init.DataSize > SPI_DATASIZE_8BIT)
 5130              		.loc 1 1779 22
 5131 010c FB68     		ldr	r3, [r7, #12]
 5132 010e DB68     		ldr	r3, [r3, #12]
 5133              		.loc 1 1779 11
 5134 0110 072B     		cmp	r3, #7
 5135 0112 03D9     		bls	.L232
1780:STM32Cube_FW_N6/Drivers/STM32N6xx_HAL_Driver/Src/stm32n6xx_hal_spi.c ****   {
1781:STM32Cube_FW_N6/Drivers/STM32N6xx_HAL_Driver/Src/stm32n6xx_hal_spi.c ****     hspi->RxISR = SPI_RxISR_16BIT;
 5136              		.loc 1 1781 17
 5137 0114 FB68     		ldr	r3, [r7, #12]
 5138 0116 324A     		ldr	r2, .L236+40
 5139 0118 9A67     		str	r2, [r3, #120]
 5140 011a 02E0     		b	.L231
 5141              	.L232:
1782:STM32Cube_FW_N6/Drivers/STM32N6xx_HAL_Driver/Src/stm32n6xx_hal_spi.c ****   }
1783:STM32Cube_FW_N6/Drivers/STM32N6xx_HAL_Driver/Src/stm32n6xx_hal_spi.c ****   else
1784:STM32Cube_FW_N6/Drivers/STM32N6xx_HAL_Driver/Src/stm32n6xx_hal_spi.c ****   {
1785:STM32Cube_FW_N6/Drivers/STM32N6xx_HAL_Driver/Src/stm32n6xx_hal_spi.c ****     hspi->RxISR = SPI_RxISR_8BIT;
 5142              		.loc 1 1785 17
 5143 011c FB68     		ldr	r3, [r7, #12]
 5144 011e 314A     		ldr	r2, .L236+44
 5145 0120 9A67     		str	r2, [r3, #120]
 5146              	.L231:
1786:STM32Cube_FW_N6/Drivers/STM32N6xx_HAL_Driver/Src/stm32n6xx_hal_spi.c ****   }
1787:STM32Cube_FW_N6/Drivers/STM32N6xx_HAL_Driver/Src/stm32n6xx_hal_spi.c **** 
1788:STM32Cube_FW_N6/Drivers/STM32N6xx_HAL_Driver/Src/stm32n6xx_hal_spi.c ****   /* Configure communication direction : 1Line */
ARM GAS  /tmp/ccwTXtVb.s 			page 123


1789:STM32Cube_FW_N6/Drivers/STM32N6xx_HAL_Driver/Src/stm32n6xx_hal_spi.c ****   if (hspi->Init.Direction == SPI_DIRECTION_1LINE)
 5147              		.loc 1 1789 17
 5148 0122 FB68     		ldr	r3, [r7, #12]
 5149 0124 9B68     		ldr	r3, [r3, #8]
 5150              		.loc 1 1789 6
 5151 0126 B3F5C02F 		cmp	r3, #393216
 5152 012a 08D1     		bne	.L233
1790:STM32Cube_FW_N6/Drivers/STM32N6xx_HAL_Driver/Src/stm32n6xx_hal_spi.c ****   {
1791:STM32Cube_FW_N6/Drivers/STM32N6xx_HAL_Driver/Src/stm32n6xx_hal_spi.c ****     SPI_1LINE_RX(hspi);
 5153              		.loc 1 1791 5
 5154 012c FB68     		ldr	r3, [r7, #12]
 5155 012e 1B68     		ldr	r3, [r3]
 5156 0130 1A68     		ldr	r2, [r3]
 5157 0132 FB68     		ldr	r3, [r7, #12]
 5158 0134 1B68     		ldr	r3, [r3]
 5159 0136 22F40062 		bic	r2, r2, #2048
 5160 013a 1A60     		str	r2, [r3]
 5161 013c 09E0     		b	.L234
 5162              	.L233:
1792:STM32Cube_FW_N6/Drivers/STM32N6xx_HAL_Driver/Src/stm32n6xx_hal_spi.c ****   }
1793:STM32Cube_FW_N6/Drivers/STM32N6xx_HAL_Driver/Src/stm32n6xx_hal_spi.c ****   else
1794:STM32Cube_FW_N6/Drivers/STM32N6xx_HAL_Driver/Src/stm32n6xx_hal_spi.c ****   {
1795:STM32Cube_FW_N6/Drivers/STM32N6xx_HAL_Driver/Src/stm32n6xx_hal_spi.c ****     SPI_2LINES_RX(hspi);
 5163              		.loc 1 1795 5
 5164 013e FB68     		ldr	r3, [r7, #12]
 5165 0140 1B68     		ldr	r3, [r3]
 5166 0142 DB68     		ldr	r3, [r3, #12]
 5167 0144 23F4C022 		bic	r2, r3, #393216
 5168 0148 FB68     		ldr	r3, [r7, #12]
 5169 014a 1B68     		ldr	r3, [r3]
 5170 014c 42F48022 		orr	r2, r2, #262144
 5171 0150 DA60     		str	r2, [r3, #12]
 5172              	.L234:
1796:STM32Cube_FW_N6/Drivers/STM32N6xx_HAL_Driver/Src/stm32n6xx_hal_spi.c ****   }
1797:STM32Cube_FW_N6/Drivers/STM32N6xx_HAL_Driver/Src/stm32n6xx_hal_spi.c **** 
1798:STM32Cube_FW_N6/Drivers/STM32N6xx_HAL_Driver/Src/stm32n6xx_hal_spi.c ****   /* Note : The SPI must be enabled after unlocking current process
1799:STM32Cube_FW_N6/Drivers/STM32N6xx_HAL_Driver/Src/stm32n6xx_hal_spi.c ****             to avoid the risk of SPI interrupt handle execution before current
1800:STM32Cube_FW_N6/Drivers/STM32N6xx_HAL_Driver/Src/stm32n6xx_hal_spi.c ****             process unlock */
1801:STM32Cube_FW_N6/Drivers/STM32N6xx_HAL_Driver/Src/stm32n6xx_hal_spi.c **** 
1802:STM32Cube_FW_N6/Drivers/STM32N6xx_HAL_Driver/Src/stm32n6xx_hal_spi.c ****   /* Set the number of data at current transfer */
1803:STM32Cube_FW_N6/Drivers/STM32N6xx_HAL_Driver/Src/stm32n6xx_hal_spi.c ****   MODIFY_REG(hspi->Instance->CR2, SPI_CR2_TSIZE, Size);
 5173              		.loc 1 1803 3
 5174 0152 FB68     		ldr	r3, [r7, #12]
 5175 0154 1B68     		ldr	r3, [r3]
 5176 0156 5B68     		ldr	r3, [r3, #4]
 5177 0158 1B0C     		lsrs	r3, r3, #16
 5178 015a 1B04     		lsls	r3, r3, #16
 5179 015c F988     		ldrh	r1, [r7, #6]
 5180 015e FA68     		ldr	r2, [r7, #12]
 5181 0160 1268     		ldr	r2, [r2]
 5182 0162 0B43     		orrs	r3, r3, r1
 5183 0164 5360     		str	r3, [r2, #4]
1804:STM32Cube_FW_N6/Drivers/STM32N6xx_HAL_Driver/Src/stm32n6xx_hal_spi.c **** 
1805:STM32Cube_FW_N6/Drivers/STM32N6xx_HAL_Driver/Src/stm32n6xx_hal_spi.c ****   /* Enable SPI peripheral */
1806:STM32Cube_FW_N6/Drivers/STM32N6xx_HAL_Driver/Src/stm32n6xx_hal_spi.c ****   __HAL_SPI_ENABLE(hspi);
 5184              		.loc 1 1806 3
 5185 0166 FB68     		ldr	r3, [r7, #12]
ARM GAS  /tmp/ccwTXtVb.s 			page 124


 5186 0168 1B68     		ldr	r3, [r3]
 5187 016a 1A68     		ldr	r2, [r3]
 5188 016c FB68     		ldr	r3, [r7, #12]
 5189 016e 1B68     		ldr	r3, [r3]
 5190 0170 42F00102 		orr	r2, r2, #1
 5191 0174 1A60     		str	r2, [r3]
1807:STM32Cube_FW_N6/Drivers/STM32N6xx_HAL_Driver/Src/stm32n6xx_hal_spi.c **** 
1808:STM32Cube_FW_N6/Drivers/STM32N6xx_HAL_Driver/Src/stm32n6xx_hal_spi.c ****   /* Unlock the process */
1809:STM32Cube_FW_N6/Drivers/STM32N6xx_HAL_Driver/Src/stm32n6xx_hal_spi.c ****   __HAL_UNLOCK(hspi);
 5192              		.loc 1 1809 3
 5193 0176 FB68     		ldr	r3, [r7, #12]
 5194 0178 0022     		movs	r2, #0
 5195 017a 83F88820 		strb	r2, [r3, #136]
1810:STM32Cube_FW_N6/Drivers/STM32N6xx_HAL_Driver/Src/stm32n6xx_hal_spi.c **** 
1811:STM32Cube_FW_N6/Drivers/STM32N6xx_HAL_Driver/Src/stm32n6xx_hal_spi.c ****   /* Enable EOT, RXP, OVR, FRE and MODF interrupts */
1812:STM32Cube_FW_N6/Drivers/STM32N6xx_HAL_Driver/Src/stm32n6xx_hal_spi.c ****   __HAL_SPI_ENABLE_IT(hspi, (SPI_IT_EOT | SPI_IT_RXP | SPI_IT_OVR | SPI_IT_FRE | SPI_IT_MODF));
 5196              		.loc 1 1812 3
 5197 017e FB68     		ldr	r3, [r7, #12]
 5198 0180 1B68     		ldr	r3, [r3]
 5199 0182 1B69     		ldr	r3, [r3, #16]
 5200 0184 FA68     		ldr	r2, [r7, #12]
 5201 0186 1268     		ldr	r2, [r2]
 5202 0188 43F45273 		orr	r3, r3, #840
 5203 018c 43F00103 		orr	r3, r3, #1
 5204 0190 1361     		str	r3, [r2, #16]
1813:STM32Cube_FW_N6/Drivers/STM32N6xx_HAL_Driver/Src/stm32n6xx_hal_spi.c **** 
1814:STM32Cube_FW_N6/Drivers/STM32N6xx_HAL_Driver/Src/stm32n6xx_hal_spi.c ****   if (hspi->Init.Mode == SPI_MODE_MASTER)
 5205              		.loc 1 1814 17
 5206 0192 FB68     		ldr	r3, [r7, #12]
 5207 0194 5B68     		ldr	r3, [r3, #4]
 5208              		.loc 1 1814 6
 5209 0196 B3F5800F 		cmp	r3, #4194304
 5210 019a 07D1     		bne	.L235
1815:STM32Cube_FW_N6/Drivers/STM32N6xx_HAL_Driver/Src/stm32n6xx_hal_spi.c ****   {
1816:STM32Cube_FW_N6/Drivers/STM32N6xx_HAL_Driver/Src/stm32n6xx_hal_spi.c ****     /* Master transfer start */
1817:STM32Cube_FW_N6/Drivers/STM32N6xx_HAL_Driver/Src/stm32n6xx_hal_spi.c ****     SET_BIT(hspi->Instance->CR1, SPI_CR1_CSTART);
 5211              		.loc 1 1817 5
 5212 019c FB68     		ldr	r3, [r7, #12]
 5213 019e 1B68     		ldr	r3, [r3]
 5214 01a0 1A68     		ldr	r2, [r3]
 5215 01a2 FB68     		ldr	r3, [r7, #12]
 5216 01a4 1B68     		ldr	r3, [r3]
 5217 01a6 42F40072 		orr	r2, r2, #512
 5218 01aa 1A60     		str	r2, [r3]
 5219              	.L235:
1818:STM32Cube_FW_N6/Drivers/STM32N6xx_HAL_Driver/Src/stm32n6xx_hal_spi.c ****   }
1819:STM32Cube_FW_N6/Drivers/STM32N6xx_HAL_Driver/Src/stm32n6xx_hal_spi.c **** 
1820:STM32Cube_FW_N6/Drivers/STM32N6xx_HAL_Driver/Src/stm32n6xx_hal_spi.c ****   return HAL_OK;
 5220              		.loc 1 1820 10
 5221 01ac 0023     		movs	r3, #0
 5222              	.L225:
1821:STM32Cube_FW_N6/Drivers/STM32N6xx_HAL_Driver/Src/stm32n6xx_hal_spi.c **** }
 5223              		.loc 1 1821 1
 5224 01ae 1846     		mov	r0, r3
 5225 01b0 1037     		adds	r7, r7, #16
 5226              		.cfi_def_cfa_offset 8
 5227 01b2 BD46     		mov	sp, r7
ARM GAS  /tmp/ccwTXtVb.s 			page 125


 5228              		.cfi_def_cfa_register 13
 5229              		@ sp needed
 5230 01b4 80BD     		pop	{r7, pc}
 5231              	.L237:
 5232 01b6 00BF     		.align	2
 5233              	.L236:
 5234 01b8 00000000 		.word	.LC0
 5235 01bc 00300052 		.word	1375744000
 5236 01c0 00300042 		.word	1107308544
 5237 01c4 00380050 		.word	1342191616
 5238 01c8 00380040 		.word	1073756160
 5239 01cc 003C0050 		.word	1342192640
 5240 01d0 003C0040 		.word	1073757184
 5241 01d4 00140056 		.word	1442845696
 5242 01d8 00140046 		.word	1174410240
 5243 01dc 00000000 		.word	SPI_RxISR_32BIT
 5244 01e0 00000000 		.word	SPI_RxISR_16BIT
 5245 01e4 00000000 		.word	SPI_RxISR_8BIT
 5246              		.cfi_endproc
 5247              	.LFE843:
 5249              		.section	.text.HAL_SPI_TransmitReceive_IT,"ax",%progbits
 5250              		.align	1
 5251              		.global	HAL_SPI_TransmitReceive_IT
 5252              		.syntax unified
 5253              		.thumb
 5254              		.thumb_func
 5256              	HAL_SPI_TransmitReceive_IT:
 5257              	.LFB844:
1822:STM32Cube_FW_N6/Drivers/STM32N6xx_HAL_Driver/Src/stm32n6xx_hal_spi.c **** 
1823:STM32Cube_FW_N6/Drivers/STM32N6xx_HAL_Driver/Src/stm32n6xx_hal_spi.c **** /**
1824:STM32Cube_FW_N6/Drivers/STM32N6xx_HAL_Driver/Src/stm32n6xx_hal_spi.c ****   * @brief  Transmit and Receive an amount of data in non-blocking mode with Interrupt.
1825:STM32Cube_FW_N6/Drivers/STM32N6xx_HAL_Driver/Src/stm32n6xx_hal_spi.c ****   * @param  hspi   : pointer to a SPI_HandleTypeDef structure that contains
1826:STM32Cube_FW_N6/Drivers/STM32N6xx_HAL_Driver/Src/stm32n6xx_hal_spi.c ****   *                  the configuration information for SPI module.
1827:STM32Cube_FW_N6/Drivers/STM32N6xx_HAL_Driver/Src/stm32n6xx_hal_spi.c ****   * @param  pTxData: pointer to transmission data buffer
1828:STM32Cube_FW_N6/Drivers/STM32N6xx_HAL_Driver/Src/stm32n6xx_hal_spi.c ****   * @param  pRxData: pointer to reception data buffer
1829:STM32Cube_FW_N6/Drivers/STM32N6xx_HAL_Driver/Src/stm32n6xx_hal_spi.c ****   * @param  Size   : amount of data to be sent and received
1830:STM32Cube_FW_N6/Drivers/STM32N6xx_HAL_Driver/Src/stm32n6xx_hal_spi.c ****   * @retval HAL status
1831:STM32Cube_FW_N6/Drivers/STM32N6xx_HAL_Driver/Src/stm32n6xx_hal_spi.c ****   */
1832:STM32Cube_FW_N6/Drivers/STM32N6xx_HAL_Driver/Src/stm32n6xx_hal_spi.c **** HAL_StatusTypeDef HAL_SPI_TransmitReceive_IT(SPI_HandleTypeDef *hspi, const uint8_t *pTxData, uint8
1833:STM32Cube_FW_N6/Drivers/STM32N6xx_HAL_Driver/Src/stm32n6xx_hal_spi.c ****                                              uint16_t Size)
1834:STM32Cube_FW_N6/Drivers/STM32N6xx_HAL_Driver/Src/stm32n6xx_hal_spi.c **** {
 5258              		.loc 1 1834 1
 5259              		.cfi_startproc
 5260              		@ args = 0, pretend = 0, frame = 24
 5261              		@ frame_needed = 1, uses_anonymous_args = 0
 5262 0000 80B5     		push	{r7, lr}
 5263              		.cfi_def_cfa_offset 8
 5264              		.cfi_offset 7, -8
 5265              		.cfi_offset 14, -4
 5266 0002 86B0     		sub	sp, sp, #24
 5267              		.cfi_def_cfa_offset 32
 5268 0004 00AF     		add	r7, sp, #0
 5269              		.cfi_def_cfa_register 7
 5270 0006 F860     		str	r0, [r7, #12]
 5271 0008 B960     		str	r1, [r7, #8]
 5272 000a 7A60     		str	r2, [r7, #4]
 5273 000c 7B80     		strh	r3, [r7, #2]	@ movhi
ARM GAS  /tmp/ccwTXtVb.s 			page 126


1835:STM32Cube_FW_N6/Drivers/STM32N6xx_HAL_Driver/Src/stm32n6xx_hal_spi.c ****   uint32_t tmp_TxXferCount;
1836:STM32Cube_FW_N6/Drivers/STM32N6xx_HAL_Driver/Src/stm32n6xx_hal_spi.c **** #if defined (__GNUC__)
1837:STM32Cube_FW_N6/Drivers/STM32N6xx_HAL_Driver/Src/stm32n6xx_hal_spi.c ****   __IO uint16_t *ptxdr_16bits = (__IO uint16_t *)(&(hspi->Instance->TXDR));
 5274              		.loc 1 1837 57
 5275 000e FB68     		ldr	r3, [r7, #12]
 5276 0010 1B68     		ldr	r3, [r3]
 5277              		.loc 1 1837 18
 5278 0012 2033     		adds	r3, r3, #32
 5279 0014 3B61     		str	r3, [r7, #16]
1838:STM32Cube_FW_N6/Drivers/STM32N6xx_HAL_Driver/Src/stm32n6xx_hal_spi.c **** #endif /* __GNUC__ */
1839:STM32Cube_FW_N6/Drivers/STM32N6xx_HAL_Driver/Src/stm32n6xx_hal_spi.c **** 
1840:STM32Cube_FW_N6/Drivers/STM32N6xx_HAL_Driver/Src/stm32n6xx_hal_spi.c ****   /* Check Direction parameter */
1841:STM32Cube_FW_N6/Drivers/STM32N6xx_HAL_Driver/Src/stm32n6xx_hal_spi.c ****   assert_param(IS_SPI_DIRECTION_2LINES(hspi->Init.Direction));
 5280              		.loc 1 1841 3
 5281 0016 FB68     		ldr	r3, [r7, #12]
 5282 0018 9B68     		ldr	r3, [r3, #8]
 5283 001a 002B     		cmp	r3, #0
 5284 001c 04D0     		beq	.L239
 5285              		.loc 1 1841 3 is_stmt 0 discriminator 1
 5286 001e 40F23171 		movw	r1, #1841
 5287 0022 9048     		ldr	r0, .L256
 5288 0024 FFF7FEFF 		bl	assert_failed
 5289              	.L239:
1842:STM32Cube_FW_N6/Drivers/STM32N6xx_HAL_Driver/Src/stm32n6xx_hal_spi.c **** 
1843:STM32Cube_FW_N6/Drivers/STM32N6xx_HAL_Driver/Src/stm32n6xx_hal_spi.c ****   if (hspi->State != HAL_SPI_STATE_READY)
 5290              		.loc 1 1843 11 is_stmt 1
 5291 0028 FB68     		ldr	r3, [r7, #12]
 5292 002a 93F88930 		ldrb	r3, [r3, #137]
 5293 002e DBB2     		uxtb	r3, r3
 5294              		.loc 1 1843 6
 5295 0030 012B     		cmp	r3, #1
 5296 0032 01D0     		beq	.L240
1844:STM32Cube_FW_N6/Drivers/STM32N6xx_HAL_Driver/Src/stm32n6xx_hal_spi.c ****   {
1845:STM32Cube_FW_N6/Drivers/STM32N6xx_HAL_Driver/Src/stm32n6xx_hal_spi.c ****     return HAL_BUSY;
 5297              		.loc 1 1845 12
 5298 0034 0223     		movs	r3, #2
 5299 0036 10E1     		b	.L241
 5300              	.L240:
1846:STM32Cube_FW_N6/Drivers/STM32N6xx_HAL_Driver/Src/stm32n6xx_hal_spi.c ****   }
1847:STM32Cube_FW_N6/Drivers/STM32N6xx_HAL_Driver/Src/stm32n6xx_hal_spi.c **** 
1848:STM32Cube_FW_N6/Drivers/STM32N6xx_HAL_Driver/Src/stm32n6xx_hal_spi.c ****   if ((pTxData == NULL) || (pRxData == NULL) || (Size == 0UL))
 5301              		.loc 1 1848 6
 5302 0038 BB68     		ldr	r3, [r7, #8]
 5303 003a 002B     		cmp	r3, #0
 5304 003c 05D0     		beq	.L242
 5305              		.loc 1 1848 25 discriminator 1
 5306 003e 7B68     		ldr	r3, [r7, #4]
 5307 0040 002B     		cmp	r3, #0
 5308 0042 02D0     		beq	.L242
 5309              		.loc 1 1848 46 discriminator 2
 5310 0044 7B88     		ldrh	r3, [r7, #2]
 5311 0046 002B     		cmp	r3, #0
 5312 0048 01D1     		bne	.L243
 5313              	.L242:
1849:STM32Cube_FW_N6/Drivers/STM32N6xx_HAL_Driver/Src/stm32n6xx_hal_spi.c ****   {
1850:STM32Cube_FW_N6/Drivers/STM32N6xx_HAL_Driver/Src/stm32n6xx_hal_spi.c ****     return HAL_ERROR;
 5314              		.loc 1 1850 12
ARM GAS  /tmp/ccwTXtVb.s 			page 127


 5315 004a 0123     		movs	r3, #1
 5316 004c 05E1     		b	.L241
 5317              	.L243:
1851:STM32Cube_FW_N6/Drivers/STM32N6xx_HAL_Driver/Src/stm32n6xx_hal_spi.c ****   }
1852:STM32Cube_FW_N6/Drivers/STM32N6xx_HAL_Driver/Src/stm32n6xx_hal_spi.c **** 
1853:STM32Cube_FW_N6/Drivers/STM32N6xx_HAL_Driver/Src/stm32n6xx_hal_spi.c ****   /* Lock the process */
1854:STM32Cube_FW_N6/Drivers/STM32N6xx_HAL_Driver/Src/stm32n6xx_hal_spi.c ****   __HAL_LOCK(hspi);
 5318              		.loc 1 1854 3
 5319 004e FB68     		ldr	r3, [r7, #12]
 5320 0050 93F88830 		ldrb	r3, [r3, #136]	@ zero_extendqisi2
 5321 0054 012B     		cmp	r3, #1
 5322 0056 01D1     		bne	.L244
 5323              		.loc 1 1854 3 is_stmt 0 discriminator 1
 5324 0058 0223     		movs	r3, #2
 5325              		.loc 1 1854 3
 5326 005a FEE0     		b	.L241
 5327              	.L244:
 5328              		.loc 1 1854 3 discriminator 2
 5329 005c FB68     		ldr	r3, [r7, #12]
 5330 005e 0122     		movs	r2, #1
 5331 0060 83F88820 		strb	r2, [r3, #136]
1855:STM32Cube_FW_N6/Drivers/STM32N6xx_HAL_Driver/Src/stm32n6xx_hal_spi.c **** 
1856:STM32Cube_FW_N6/Drivers/STM32N6xx_HAL_Driver/Src/stm32n6xx_hal_spi.c ****   /* Set the transaction information */
1857:STM32Cube_FW_N6/Drivers/STM32N6xx_HAL_Driver/Src/stm32n6xx_hal_spi.c ****   hspi->State       = HAL_SPI_STATE_BUSY_TX_RX;
 5332              		.loc 1 1857 21 is_stmt 1
 5333 0064 FB68     		ldr	r3, [r7, #12]
 5334 0066 0522     		movs	r2, #5
 5335 0068 83F88920 		strb	r2, [r3, #137]
1858:STM32Cube_FW_N6/Drivers/STM32N6xx_HAL_Driver/Src/stm32n6xx_hal_spi.c ****   hspi->ErrorCode   = HAL_SPI_ERROR_NONE;
 5336              		.loc 1 1858 21
 5337 006c FB68     		ldr	r3, [r7, #12]
 5338 006e 0022     		movs	r2, #0
 5339 0070 C3F88C20 		str	r2, [r3, #140]
1859:STM32Cube_FW_N6/Drivers/STM32N6xx_HAL_Driver/Src/stm32n6xx_hal_spi.c ****   hspi->pTxBuffPtr  = (const uint8_t *)pTxData;
 5340              		.loc 1 1859 21
 5341 0074 FB68     		ldr	r3, [r7, #12]
 5342 0076 BA68     		ldr	r2, [r7, #8]
 5343 0078 5A66     		str	r2, [r3, #100]
1860:STM32Cube_FW_N6/Drivers/STM32N6xx_HAL_Driver/Src/stm32n6xx_hal_spi.c ****   hspi->TxXferSize  = Size;
 5344              		.loc 1 1860 21
 5345 007a FB68     		ldr	r3, [r7, #12]
 5346 007c 7A88     		ldrh	r2, [r7, #2]	@ movhi
 5347 007e A3F86820 		strh	r2, [r3, #104]	@ movhi
1861:STM32Cube_FW_N6/Drivers/STM32N6xx_HAL_Driver/Src/stm32n6xx_hal_spi.c ****   hspi->TxXferCount = Size;
 5348              		.loc 1 1861 21
 5349 0082 FB68     		ldr	r3, [r7, #12]
 5350 0084 7A88     		ldrh	r2, [r7, #2]	@ movhi
 5351 0086 A3F86A20 		strh	r2, [r3, #106]	@ movhi
1862:STM32Cube_FW_N6/Drivers/STM32N6xx_HAL_Driver/Src/stm32n6xx_hal_spi.c ****   hspi->pRxBuffPtr  = (uint8_t *)pRxData;
 5352              		.loc 1 1862 21
 5353 008a FB68     		ldr	r3, [r7, #12]
 5354 008c 7A68     		ldr	r2, [r7, #4]
 5355 008e DA66     		str	r2, [r3, #108]
1863:STM32Cube_FW_N6/Drivers/STM32N6xx_HAL_Driver/Src/stm32n6xx_hal_spi.c ****   hspi->RxXferSize  = Size;
 5356              		.loc 1 1863 21
 5357 0090 FB68     		ldr	r3, [r7, #12]
 5358 0092 7A88     		ldrh	r2, [r7, #2]	@ movhi
ARM GAS  /tmp/ccwTXtVb.s 			page 128


 5359 0094 A3F87020 		strh	r2, [r3, #112]	@ movhi
1864:STM32Cube_FW_N6/Drivers/STM32N6xx_HAL_Driver/Src/stm32n6xx_hal_spi.c ****   hspi->RxXferCount = Size;
 5360              		.loc 1 1864 21
 5361 0098 FB68     		ldr	r3, [r7, #12]
 5362 009a 7A88     		ldrh	r2, [r7, #2]	@ movhi
 5363 009c A3F87220 		strh	r2, [r3, #114]	@ movhi
1865:STM32Cube_FW_N6/Drivers/STM32N6xx_HAL_Driver/Src/stm32n6xx_hal_spi.c ****   tmp_TxXferCount   = hspi->TxXferCount;
 5364              		.loc 1 1865 27
 5365 00a0 FB68     		ldr	r3, [r7, #12]
 5366 00a2 B3F86A30 		ldrh	r3, [r3, #106]	@ movhi
 5367 00a6 9BB2     		uxth	r3, r3
 5368              		.loc 1 1865 21
 5369 00a8 7B61     		str	r3, [r7, #20]
1866:STM32Cube_FW_N6/Drivers/STM32N6xx_HAL_Driver/Src/stm32n6xx_hal_spi.c **** 
1867:STM32Cube_FW_N6/Drivers/STM32N6xx_HAL_Driver/Src/stm32n6xx_hal_spi.c ****   /* Set the function for IT treatment */
1868:STM32Cube_FW_N6/Drivers/STM32N6xx_HAL_Driver/Src/stm32n6xx_hal_spi.c ****   if ((hspi->Init.DataSize > SPI_DATASIZE_16BIT) && (IS_SPI_FULL_INSTANCE(hspi->Instance)))
 5370              		.loc 1 1868 18
 5371 00aa FB68     		ldr	r3, [r7, #12]
 5372 00ac DB68     		ldr	r3, [r3, #12]
 5373              		.loc 1 1868 6
 5374 00ae 0F2B     		cmp	r3, #15
 5375 00b0 2ED9     		bls	.L245
 5376              		.loc 1 1868 54 discriminator 1
 5377 00b2 FB68     		ldr	r3, [r7, #12]
 5378 00b4 1B68     		ldr	r3, [r3]
 5379              		.loc 1 1868 50 discriminator 1
 5380 00b6 6C4A     		ldr	r2, .L256+4
 5381 00b8 9342     		cmp	r3, r2
 5382 00ba 22D0     		beq	.L246
 5383              		.loc 1 1868 54 discriminator 2
 5384 00bc FB68     		ldr	r3, [r7, #12]
 5385 00be 1B68     		ldr	r3, [r3]
 5386 00c0 6A4A     		ldr	r2, .L256+8
 5387 00c2 9342     		cmp	r3, r2
 5388 00c4 1DD0     		beq	.L246
 5389              		.loc 1 1868 54 is_stmt 0 discriminator 3
 5390 00c6 FB68     		ldr	r3, [r7, #12]
 5391 00c8 1B68     		ldr	r3, [r3]
 5392 00ca 694A     		ldr	r2, .L256+12
 5393 00cc 9342     		cmp	r3, r2
 5394 00ce 18D0     		beq	.L246
 5395              		.loc 1 1868 54 discriminator 4
 5396 00d0 FB68     		ldr	r3, [r7, #12]
 5397 00d2 1B68     		ldr	r3, [r3]
 5398 00d4 674A     		ldr	r2, .L256+16
 5399 00d6 9342     		cmp	r3, r2
 5400 00d8 13D0     		beq	.L246
 5401              		.loc 1 1868 54 discriminator 5
 5402 00da FB68     		ldr	r3, [r7, #12]
 5403 00dc 1B68     		ldr	r3, [r3]
 5404 00de 664A     		ldr	r2, .L256+20
 5405 00e0 9342     		cmp	r3, r2
 5406 00e2 0ED0     		beq	.L246
 5407              		.loc 1 1868 54 discriminator 6
 5408 00e4 FB68     		ldr	r3, [r7, #12]
 5409 00e6 1B68     		ldr	r3, [r3]
 5410 00e8 644A     		ldr	r2, .L256+24
ARM GAS  /tmp/ccwTXtVb.s 			page 129


 5411 00ea 9342     		cmp	r3, r2
 5412 00ec 09D0     		beq	.L246
 5413              		.loc 1 1868 54 discriminator 7
 5414 00ee FB68     		ldr	r3, [r7, #12]
 5415 00f0 1B68     		ldr	r3, [r3]
 5416 00f2 634A     		ldr	r2, .L256+28
 5417 00f4 9342     		cmp	r3, r2
 5418 00f6 04D0     		beq	.L246
 5419              		.loc 1 1868 54 discriminator 8
 5420 00f8 FB68     		ldr	r3, [r7, #12]
 5421 00fa 1B68     		ldr	r3, [r3]
 5422 00fc 614A     		ldr	r2, .L256+32
 5423 00fe 9342     		cmp	r3, r2
 5424 0100 06D1     		bne	.L245
 5425              	.L246:
1869:STM32Cube_FW_N6/Drivers/STM32N6xx_HAL_Driver/Src/stm32n6xx_hal_spi.c ****   {
1870:STM32Cube_FW_N6/Drivers/STM32N6xx_HAL_Driver/Src/stm32n6xx_hal_spi.c ****     hspi->TxISR     = SPI_TxISR_32BIT;
 5426              		.loc 1 1870 21 is_stmt 1
 5427 0102 FB68     		ldr	r3, [r7, #12]
 5428 0104 604A     		ldr	r2, .L256+36
 5429 0106 DA67     		str	r2, [r3, #124]
1871:STM32Cube_FW_N6/Drivers/STM32N6xx_HAL_Driver/Src/stm32n6xx_hal_spi.c ****     hspi->RxISR     = SPI_RxISR_32BIT;
 5430              		.loc 1 1871 21
 5431 0108 FB68     		ldr	r3, [r7, #12]
 5432 010a 604A     		ldr	r2, .L256+40
 5433 010c 9A67     		str	r2, [r3, #120]
 5434 010e 10E0     		b	.L247
 5435              	.L245:
1872:STM32Cube_FW_N6/Drivers/STM32N6xx_HAL_Driver/Src/stm32n6xx_hal_spi.c ****   }
1873:STM32Cube_FW_N6/Drivers/STM32N6xx_HAL_Driver/Src/stm32n6xx_hal_spi.c ****   else if (hspi->Init.DataSize > SPI_DATASIZE_8BIT)
 5436              		.loc 1 1873 22
 5437 0110 FB68     		ldr	r3, [r7, #12]
 5438 0112 DB68     		ldr	r3, [r3, #12]
 5439              		.loc 1 1873 11
 5440 0114 072B     		cmp	r3, #7
 5441 0116 06D9     		bls	.L248
1874:STM32Cube_FW_N6/Drivers/STM32N6xx_HAL_Driver/Src/stm32n6xx_hal_spi.c ****   {
1875:STM32Cube_FW_N6/Drivers/STM32N6xx_HAL_Driver/Src/stm32n6xx_hal_spi.c ****     hspi->RxISR     = SPI_RxISR_16BIT;
 5442              		.loc 1 1875 21
 5443 0118 FB68     		ldr	r3, [r7, #12]
 5444 011a 5D4A     		ldr	r2, .L256+44
 5445 011c 9A67     		str	r2, [r3, #120]
1876:STM32Cube_FW_N6/Drivers/STM32N6xx_HAL_Driver/Src/stm32n6xx_hal_spi.c ****     hspi->TxISR     = SPI_TxISR_16BIT;
 5446              		.loc 1 1876 21
 5447 011e FB68     		ldr	r3, [r7, #12]
 5448 0120 5C4A     		ldr	r2, .L256+48
 5449 0122 DA67     		str	r2, [r3, #124]
 5450 0124 05E0     		b	.L247
 5451              	.L248:
1877:STM32Cube_FW_N6/Drivers/STM32N6xx_HAL_Driver/Src/stm32n6xx_hal_spi.c ****   }
1878:STM32Cube_FW_N6/Drivers/STM32N6xx_HAL_Driver/Src/stm32n6xx_hal_spi.c ****   else
1879:STM32Cube_FW_N6/Drivers/STM32N6xx_HAL_Driver/Src/stm32n6xx_hal_spi.c ****   {
1880:STM32Cube_FW_N6/Drivers/STM32N6xx_HAL_Driver/Src/stm32n6xx_hal_spi.c ****     hspi->RxISR     = SPI_RxISR_8BIT;
 5452              		.loc 1 1880 21
 5453 0126 FB68     		ldr	r3, [r7, #12]
 5454 0128 5B4A     		ldr	r2, .L256+52
 5455 012a 9A67     		str	r2, [r3, #120]
ARM GAS  /tmp/ccwTXtVb.s 			page 130


1881:STM32Cube_FW_N6/Drivers/STM32N6xx_HAL_Driver/Src/stm32n6xx_hal_spi.c ****     hspi->TxISR     = SPI_TxISR_8BIT;
 5456              		.loc 1 1881 21
 5457 012c FB68     		ldr	r3, [r7, #12]
 5458 012e 5B4A     		ldr	r2, .L256+56
 5459 0130 DA67     		str	r2, [r3, #124]
 5460              	.L247:
1882:STM32Cube_FW_N6/Drivers/STM32N6xx_HAL_Driver/Src/stm32n6xx_hal_spi.c ****   }
1883:STM32Cube_FW_N6/Drivers/STM32N6xx_HAL_Driver/Src/stm32n6xx_hal_spi.c **** 
1884:STM32Cube_FW_N6/Drivers/STM32N6xx_HAL_Driver/Src/stm32n6xx_hal_spi.c ****   /* Set Full-Duplex mode */
1885:STM32Cube_FW_N6/Drivers/STM32N6xx_HAL_Driver/Src/stm32n6xx_hal_spi.c ****   SPI_2LINES(hspi);
 5461              		.loc 1 1885 3
 5462 0132 FB68     		ldr	r3, [r7, #12]
 5463 0134 1B68     		ldr	r3, [r3]
 5464 0136 DA68     		ldr	r2, [r3, #12]
 5465 0138 FB68     		ldr	r3, [r7, #12]
 5466 013a 1B68     		ldr	r3, [r3]
 5467 013c 22F4C022 		bic	r2, r2, #393216
 5468 0140 DA60     		str	r2, [r3, #12]
1886:STM32Cube_FW_N6/Drivers/STM32N6xx_HAL_Driver/Src/stm32n6xx_hal_spi.c **** 
1887:STM32Cube_FW_N6/Drivers/STM32N6xx_HAL_Driver/Src/stm32n6xx_hal_spi.c ****   /* Set the number of data at current transfer */
1888:STM32Cube_FW_N6/Drivers/STM32N6xx_HAL_Driver/Src/stm32n6xx_hal_spi.c ****   MODIFY_REG(hspi->Instance->CR2, SPI_CR2_TSIZE, Size);
 5469              		.loc 1 1888 3
 5470 0142 FB68     		ldr	r3, [r7, #12]
 5471 0144 1B68     		ldr	r3, [r3]
 5472 0146 5B68     		ldr	r3, [r3, #4]
 5473 0148 1B0C     		lsrs	r3, r3, #16
 5474 014a 1B04     		lsls	r3, r3, #16
 5475 014c 7988     		ldrh	r1, [r7, #2]
 5476 014e FA68     		ldr	r2, [r7, #12]
 5477 0150 1268     		ldr	r2, [r2]
 5478 0152 0B43     		orrs	r3, r3, r1
 5479 0154 5360     		str	r3, [r2, #4]
1889:STM32Cube_FW_N6/Drivers/STM32N6xx_HAL_Driver/Src/stm32n6xx_hal_spi.c **** 
1890:STM32Cube_FW_N6/Drivers/STM32N6xx_HAL_Driver/Src/stm32n6xx_hal_spi.c ****   /* Enable SPI peripheral */
1891:STM32Cube_FW_N6/Drivers/STM32N6xx_HAL_Driver/Src/stm32n6xx_hal_spi.c ****   __HAL_SPI_ENABLE(hspi);
 5480              		.loc 1 1891 3
 5481 0156 FB68     		ldr	r3, [r7, #12]
 5482 0158 1B68     		ldr	r3, [r3]
 5483 015a 1A68     		ldr	r2, [r3]
 5484 015c FB68     		ldr	r3, [r7, #12]
 5485 015e 1B68     		ldr	r3, [r3]
 5486 0160 42F00102 		orr	r2, r2, #1
 5487 0164 1A60     		str	r2, [r3]
1892:STM32Cube_FW_N6/Drivers/STM32N6xx_HAL_Driver/Src/stm32n6xx_hal_spi.c **** 
1893:STM32Cube_FW_N6/Drivers/STM32N6xx_HAL_Driver/Src/stm32n6xx_hal_spi.c ****   /* Fill in the TxFIFO */
1894:STM32Cube_FW_N6/Drivers/STM32N6xx_HAL_Driver/Src/stm32n6xx_hal_spi.c ****   while ((__HAL_SPI_GET_FLAG(hspi, SPI_FLAG_TXP)) && (tmp_TxXferCount != 0UL))
 5488              		.loc 1 1894 9
 5489 0166 54E0     		b	.L249
 5490              	.L254:
1895:STM32Cube_FW_N6/Drivers/STM32N6xx_HAL_Driver/Src/stm32n6xx_hal_spi.c ****   {
1896:STM32Cube_FW_N6/Drivers/STM32N6xx_HAL_Driver/Src/stm32n6xx_hal_spi.c ****     /* Transmit data in 32 Bit mode */
1897:STM32Cube_FW_N6/Drivers/STM32N6xx_HAL_Driver/Src/stm32n6xx_hal_spi.c ****     if (hspi->Init.DataSize > SPI_DATASIZE_16BIT)
 5491              		.loc 1 1897 19
 5492 0168 FB68     		ldr	r3, [r7, #12]
 5493 016a DB68     		ldr	r3, [r3, #12]
 5494              		.loc 1 1897 8
 5495 016c 0F2B     		cmp	r3, #15
ARM GAS  /tmp/ccwTXtVb.s 			page 131


 5496 016e 19D9     		bls	.L250
1898:STM32Cube_FW_N6/Drivers/STM32N6xx_HAL_Driver/Src/stm32n6xx_hal_spi.c ****     {
1899:STM32Cube_FW_N6/Drivers/STM32N6xx_HAL_Driver/Src/stm32n6xx_hal_spi.c ****       *((__IO uint32_t *)&hspi->Instance->TXDR) = *((const uint32_t *)hspi->pTxBuffPtr);
 5497              		.loc 1 1899 75
 5498 0170 FB68     		ldr	r3, [r7, #12]
 5499 0172 5A6E     		ldr	r2, [r3, #100]
 5500              		.loc 1 1899 31
 5501 0174 FB68     		ldr	r3, [r7, #12]
 5502 0176 1B68     		ldr	r3, [r3]
 5503              		.loc 1 1899 51
 5504 0178 1268     		ldr	r2, [r2]
 5505              		.loc 1 1899 49
 5506 017a 1A62     		str	r2, [r3, #32]
1900:STM32Cube_FW_N6/Drivers/STM32N6xx_HAL_Driver/Src/stm32n6xx_hal_spi.c ****       hspi->pTxBuffPtr += sizeof(uint32_t);
 5507              		.loc 1 1900 11
 5508 017c FB68     		ldr	r3, [r7, #12]
 5509 017e 5B6E     		ldr	r3, [r3, #100]
 5510              		.loc 1 1900 24
 5511 0180 1A1D     		adds	r2, r3, #4
 5512 0182 FB68     		ldr	r3, [r7, #12]
 5513 0184 5A66     		str	r2, [r3, #100]
1901:STM32Cube_FW_N6/Drivers/STM32N6xx_HAL_Driver/Src/stm32n6xx_hal_spi.c ****       hspi->TxXferCount--;
 5514              		.loc 1 1901 11
 5515 0186 FB68     		ldr	r3, [r7, #12]
 5516 0188 B3F86A30 		ldrh	r3, [r3, #106]	@ movhi
 5517 018c 9BB2     		uxth	r3, r3
 5518              		.loc 1 1901 24
 5519 018e 013B     		subs	r3, r3, #1
 5520 0190 9AB2     		uxth	r2, r3
 5521 0192 FB68     		ldr	r3, [r7, #12]
 5522 0194 A3F86A20 		strh	r2, [r3, #106]	@ movhi
1902:STM32Cube_FW_N6/Drivers/STM32N6xx_HAL_Driver/Src/stm32n6xx_hal_spi.c ****       tmp_TxXferCount = hspi->TxXferCount;
 5523              		.loc 1 1902 29
 5524 0198 FB68     		ldr	r3, [r7, #12]
 5525 019a B3F86A30 		ldrh	r3, [r3, #106]	@ movhi
 5526 019e 9BB2     		uxth	r3, r3
 5527              		.loc 1 1902 23
 5528 01a0 7B61     		str	r3, [r7, #20]
 5529 01a2 36E0     		b	.L249
 5530              	.L250:
1903:STM32Cube_FW_N6/Drivers/STM32N6xx_HAL_Driver/Src/stm32n6xx_hal_spi.c ****     }
1904:STM32Cube_FW_N6/Drivers/STM32N6xx_HAL_Driver/Src/stm32n6xx_hal_spi.c ****     /* Transmit data in 16 Bit mode */
1905:STM32Cube_FW_N6/Drivers/STM32N6xx_HAL_Driver/Src/stm32n6xx_hal_spi.c ****     else if (hspi->Init.DataSize > SPI_DATASIZE_8BIT)
 5531              		.loc 1 1905 24
 5532 01a4 FB68     		ldr	r3, [r7, #12]
 5533 01a6 DB68     		ldr	r3, [r3, #12]
 5534              		.loc 1 1905 13
 5535 01a8 072B     		cmp	r3, #7
 5536 01aa 18D9     		bls	.L252
1906:STM32Cube_FW_N6/Drivers/STM32N6xx_HAL_Driver/Src/stm32n6xx_hal_spi.c ****     {
1907:STM32Cube_FW_N6/Drivers/STM32N6xx_HAL_Driver/Src/stm32n6xx_hal_spi.c **** #if defined (__GNUC__)
1908:STM32Cube_FW_N6/Drivers/STM32N6xx_HAL_Driver/Src/stm32n6xx_hal_spi.c ****       *ptxdr_16bits = *((const uint16_t *)hspi->pTxBuffPtr);
 5537              		.loc 1 1908 47
 5538 01ac FB68     		ldr	r3, [r7, #12]
 5539 01ae 5B6E     		ldr	r3, [r3, #100]
 5540              		.loc 1 1908 23
 5541 01b0 1A88     		ldrh	r2, [r3]
ARM GAS  /tmp/ccwTXtVb.s 			page 132


 5542              		.loc 1 1908 21
 5543 01b2 3B69     		ldr	r3, [r7, #16]
 5544 01b4 1A80     		strh	r2, [r3]	@ movhi
1909:STM32Cube_FW_N6/Drivers/STM32N6xx_HAL_Driver/Src/stm32n6xx_hal_spi.c **** #else
1910:STM32Cube_FW_N6/Drivers/STM32N6xx_HAL_Driver/Src/stm32n6xx_hal_spi.c ****       *((__IO uint16_t *)&hspi->Instance->TXDR) = *((const uint16_t *)hspi->pTxBuffPtr);
1911:STM32Cube_FW_N6/Drivers/STM32N6xx_HAL_Driver/Src/stm32n6xx_hal_spi.c **** #endif /* __GNUC__ */
1912:STM32Cube_FW_N6/Drivers/STM32N6xx_HAL_Driver/Src/stm32n6xx_hal_spi.c ****       hspi->pTxBuffPtr += sizeof(uint16_t);
 5545              		.loc 1 1912 11
 5546 01b6 FB68     		ldr	r3, [r7, #12]
 5547 01b8 5B6E     		ldr	r3, [r3, #100]
 5548              		.loc 1 1912 24
 5549 01ba 9A1C     		adds	r2, r3, #2
 5550 01bc FB68     		ldr	r3, [r7, #12]
 5551 01be 5A66     		str	r2, [r3, #100]
1913:STM32Cube_FW_N6/Drivers/STM32N6xx_HAL_Driver/Src/stm32n6xx_hal_spi.c ****       hspi->TxXferCount--;
 5552              		.loc 1 1913 11
 5553 01c0 FB68     		ldr	r3, [r7, #12]
 5554 01c2 B3F86A30 		ldrh	r3, [r3, #106]	@ movhi
 5555 01c6 9BB2     		uxth	r3, r3
 5556              		.loc 1 1913 24
 5557 01c8 013B     		subs	r3, r3, #1
 5558 01ca 9AB2     		uxth	r2, r3
 5559 01cc FB68     		ldr	r3, [r7, #12]
 5560 01ce A3F86A20 		strh	r2, [r3, #106]	@ movhi
1914:STM32Cube_FW_N6/Drivers/STM32N6xx_HAL_Driver/Src/stm32n6xx_hal_spi.c ****       tmp_TxXferCount = hspi->TxXferCount;
 5561              		.loc 1 1914 29
 5562 01d2 FB68     		ldr	r3, [r7, #12]
 5563 01d4 B3F86A30 		ldrh	r3, [r3, #106]	@ movhi
 5564 01d8 9BB2     		uxth	r3, r3
 5565              		.loc 1 1914 23
 5566 01da 7B61     		str	r3, [r7, #20]
 5567 01dc 19E0     		b	.L249
 5568              	.L252:
1915:STM32Cube_FW_N6/Drivers/STM32N6xx_HAL_Driver/Src/stm32n6xx_hal_spi.c ****     }
1916:STM32Cube_FW_N6/Drivers/STM32N6xx_HAL_Driver/Src/stm32n6xx_hal_spi.c ****     /* Transmit data in 8 Bit mode */
1917:STM32Cube_FW_N6/Drivers/STM32N6xx_HAL_Driver/Src/stm32n6xx_hal_spi.c ****     else
1918:STM32Cube_FW_N6/Drivers/STM32N6xx_HAL_Driver/Src/stm32n6xx_hal_spi.c ****     {
1919:STM32Cube_FW_N6/Drivers/STM32N6xx_HAL_Driver/Src/stm32n6xx_hal_spi.c ****       *((__IO uint8_t *)&hspi->Instance->TXDR) = *((const uint8_t *)hspi->pTxBuffPtr);
 5569              		.loc 1 1919 73
 5570 01de FB68     		ldr	r3, [r7, #12]
 5571 01e0 5A6E     		ldr	r2, [r3, #100]
 5572              		.loc 1 1919 30
 5573 01e2 FB68     		ldr	r3, [r7, #12]
 5574 01e4 1B68     		ldr	r3, [r3]
 5575              		.loc 1 1919 25
 5576 01e6 2033     		adds	r3, r3, #32
 5577              		.loc 1 1919 50
 5578 01e8 1278     		ldrb	r2, [r2]	@ zero_extendqisi2
 5579              		.loc 1 1919 48
 5580 01ea 1A70     		strb	r2, [r3]
1920:STM32Cube_FW_N6/Drivers/STM32N6xx_HAL_Driver/Src/stm32n6xx_hal_spi.c ****       hspi->pTxBuffPtr += sizeof(uint8_t);
 5581              		.loc 1 1920 11
 5582 01ec FB68     		ldr	r3, [r7, #12]
 5583 01ee 5B6E     		ldr	r3, [r3, #100]
 5584              		.loc 1 1920 24
 5585 01f0 5A1C     		adds	r2, r3, #1
 5586 01f2 FB68     		ldr	r3, [r7, #12]
ARM GAS  /tmp/ccwTXtVb.s 			page 133


 5587 01f4 5A66     		str	r2, [r3, #100]
1921:STM32Cube_FW_N6/Drivers/STM32N6xx_HAL_Driver/Src/stm32n6xx_hal_spi.c ****       hspi->TxXferCount--;
 5588              		.loc 1 1921 11
 5589 01f6 FB68     		ldr	r3, [r7, #12]
 5590 01f8 B3F86A30 		ldrh	r3, [r3, #106]	@ movhi
 5591 01fc 9BB2     		uxth	r3, r3
 5592              		.loc 1 1921 24
 5593 01fe 013B     		subs	r3, r3, #1
 5594 0200 9AB2     		uxth	r2, r3
 5595 0202 FB68     		ldr	r3, [r7, #12]
 5596 0204 A3F86A20 		strh	r2, [r3, #106]	@ movhi
1922:STM32Cube_FW_N6/Drivers/STM32N6xx_HAL_Driver/Src/stm32n6xx_hal_spi.c ****       tmp_TxXferCount = hspi->TxXferCount;
 5597              		.loc 1 1922 29
 5598 0208 FB68     		ldr	r3, [r7, #12]
 5599 020a B3F86A30 		ldrh	r3, [r3, #106]	@ movhi
 5600 020e 9BB2     		uxth	r3, r3
 5601              		.loc 1 1922 23
 5602 0210 7B61     		str	r3, [r7, #20]
 5603              	.L249:
1894:STM32Cube_FW_N6/Drivers/STM32N6xx_HAL_Driver/Src/stm32n6xx_hal_spi.c ****   {
 5604              		.loc 1 1894 11
 5605 0212 FB68     		ldr	r3, [r7, #12]
 5606 0214 1B68     		ldr	r3, [r3]
 5607 0216 5B69     		ldr	r3, [r3, #20]
 5608 0218 03F00203 		and	r3, r3, #2
1894:STM32Cube_FW_N6/Drivers/STM32N6xx_HAL_Driver/Src/stm32n6xx_hal_spi.c ****   {
 5609              		.loc 1 1894 51
 5610 021c 022B     		cmp	r3, #2
 5611 021e 02D1     		bne	.L253
1894:STM32Cube_FW_N6/Drivers/STM32N6xx_HAL_Driver/Src/stm32n6xx_hal_spi.c ****   {
 5612              		.loc 1 1894 51 is_stmt 0 discriminator 1
 5613 0220 7B69     		ldr	r3, [r7, #20]
 5614 0222 002B     		cmp	r3, #0
 5615 0224 A0D1     		bne	.L254
 5616              	.L253:
1923:STM32Cube_FW_N6/Drivers/STM32N6xx_HAL_Driver/Src/stm32n6xx_hal_spi.c ****     }
1924:STM32Cube_FW_N6/Drivers/STM32N6xx_HAL_Driver/Src/stm32n6xx_hal_spi.c ****   }
1925:STM32Cube_FW_N6/Drivers/STM32N6xx_HAL_Driver/Src/stm32n6xx_hal_spi.c **** 
1926:STM32Cube_FW_N6/Drivers/STM32N6xx_HAL_Driver/Src/stm32n6xx_hal_spi.c ****   /* Unlock the process */
1927:STM32Cube_FW_N6/Drivers/STM32N6xx_HAL_Driver/Src/stm32n6xx_hal_spi.c ****   __HAL_UNLOCK(hspi);
 5617              		.loc 1 1927 3 is_stmt 1
 5618 0226 FB68     		ldr	r3, [r7, #12]
 5619 0228 0022     		movs	r2, #0
 5620 022a 83F88820 		strb	r2, [r3, #136]
1928:STM32Cube_FW_N6/Drivers/STM32N6xx_HAL_Driver/Src/stm32n6xx_hal_spi.c **** 
1929:STM32Cube_FW_N6/Drivers/STM32N6xx_HAL_Driver/Src/stm32n6xx_hal_spi.c ****   /* Enable EOT, DXP, UDR, OVR, FRE and MODF interrupts */
1930:STM32Cube_FW_N6/Drivers/STM32N6xx_HAL_Driver/Src/stm32n6xx_hal_spi.c ****   __HAL_SPI_ENABLE_IT(hspi, (SPI_IT_EOT | SPI_IT_DXP | SPI_IT_UDR | SPI_IT_OVR | SPI_IT_FRE | SPI_I
 5621              		.loc 1 1930 3
 5622 022e FB68     		ldr	r3, [r7, #12]
 5623 0230 1B68     		ldr	r3, [r3]
 5624 0232 1A69     		ldr	r2, [r3, #16]
 5625 0234 FB68     		ldr	r3, [r7, #12]
 5626 0236 1B68     		ldr	r3, [r3]
 5627 0238 42F45B72 		orr	r2, r2, #876
 5628 023c 1A61     		str	r2, [r3, #16]
1931:STM32Cube_FW_N6/Drivers/STM32N6xx_HAL_Driver/Src/stm32n6xx_hal_spi.c **** 
1932:STM32Cube_FW_N6/Drivers/STM32N6xx_HAL_Driver/Src/stm32n6xx_hal_spi.c ****   if (hspi->Init.Mode == SPI_MODE_MASTER)
ARM GAS  /tmp/ccwTXtVb.s 			page 134


 5629              		.loc 1 1932 17
 5630 023e FB68     		ldr	r3, [r7, #12]
 5631 0240 5B68     		ldr	r3, [r3, #4]
 5632              		.loc 1 1932 6
 5633 0242 B3F5800F 		cmp	r3, #4194304
 5634 0246 07D1     		bne	.L255
1933:STM32Cube_FW_N6/Drivers/STM32N6xx_HAL_Driver/Src/stm32n6xx_hal_spi.c ****   {
1934:STM32Cube_FW_N6/Drivers/STM32N6xx_HAL_Driver/Src/stm32n6xx_hal_spi.c ****     /* Start Master transfer */
1935:STM32Cube_FW_N6/Drivers/STM32N6xx_HAL_Driver/Src/stm32n6xx_hal_spi.c ****     SET_BIT(hspi->Instance->CR1, SPI_CR1_CSTART);
 5635              		.loc 1 1935 5
 5636 0248 FB68     		ldr	r3, [r7, #12]
 5637 024a 1B68     		ldr	r3, [r3]
 5638 024c 1A68     		ldr	r2, [r3]
 5639 024e FB68     		ldr	r3, [r7, #12]
 5640 0250 1B68     		ldr	r3, [r3]
 5641 0252 42F40072 		orr	r2, r2, #512
 5642 0256 1A60     		str	r2, [r3]
 5643              	.L255:
1936:STM32Cube_FW_N6/Drivers/STM32N6xx_HAL_Driver/Src/stm32n6xx_hal_spi.c ****   }
1937:STM32Cube_FW_N6/Drivers/STM32N6xx_HAL_Driver/Src/stm32n6xx_hal_spi.c **** 
1938:STM32Cube_FW_N6/Drivers/STM32N6xx_HAL_Driver/Src/stm32n6xx_hal_spi.c ****   return HAL_OK;
 5644              		.loc 1 1938 10
 5645 0258 0023     		movs	r3, #0
 5646              	.L241:
1939:STM32Cube_FW_N6/Drivers/STM32N6xx_HAL_Driver/Src/stm32n6xx_hal_spi.c **** }
 5647              		.loc 1 1939 1
 5648 025a 1846     		mov	r0, r3
 5649 025c 1837     		adds	r7, r7, #24
 5650              		.cfi_def_cfa_offset 8
 5651 025e BD46     		mov	sp, r7
 5652              		.cfi_def_cfa_register 13
 5653              		@ sp needed
 5654 0260 80BD     		pop	{r7, pc}
 5655              	.L257:
 5656 0262 00BF     		.align	2
 5657              	.L256:
 5658 0264 00000000 		.word	.LC0
 5659 0268 00300052 		.word	1375744000
 5660 026c 00300042 		.word	1107308544
 5661 0270 00380050 		.word	1342191616
 5662 0274 00380040 		.word	1073756160
 5663 0278 003C0050 		.word	1342192640
 5664 027c 003C0040 		.word	1073757184
 5665 0280 00140056 		.word	1442845696
 5666 0284 00140046 		.word	1174410240
 5667 0288 00000000 		.word	SPI_TxISR_32BIT
 5668 028c 00000000 		.word	SPI_RxISR_32BIT
 5669 0290 00000000 		.word	SPI_RxISR_16BIT
 5670 0294 00000000 		.word	SPI_TxISR_16BIT
 5671 0298 00000000 		.word	SPI_RxISR_8BIT
 5672 029c 00000000 		.word	SPI_TxISR_8BIT
 5673              		.cfi_endproc
 5674              	.LFE844:
 5676              		.section	.text.HAL_SPI_Transmit_DMA,"ax",%progbits
 5677              		.align	1
 5678              		.global	HAL_SPI_Transmit_DMA
 5679              		.syntax unified
ARM GAS  /tmp/ccwTXtVb.s 			page 135


 5680              		.thumb
 5681              		.thumb_func
 5683              	HAL_SPI_Transmit_DMA:
 5684              	.LFB845:
1940:STM32Cube_FW_N6/Drivers/STM32N6xx_HAL_Driver/Src/stm32n6xx_hal_spi.c **** 
1941:STM32Cube_FW_N6/Drivers/STM32N6xx_HAL_Driver/Src/stm32n6xx_hal_spi.c **** 
1942:STM32Cube_FW_N6/Drivers/STM32N6xx_HAL_Driver/Src/stm32n6xx_hal_spi.c **** 
1943:STM32Cube_FW_N6/Drivers/STM32N6xx_HAL_Driver/Src/stm32n6xx_hal_spi.c **** 
1944:STM32Cube_FW_N6/Drivers/STM32N6xx_HAL_Driver/Src/stm32n6xx_hal_spi.c **** /**
1945:STM32Cube_FW_N6/Drivers/STM32N6xx_HAL_Driver/Src/stm32n6xx_hal_spi.c ****   * @brief  Transmit an amount of data in non-blocking mode with DMA.
1946:STM32Cube_FW_N6/Drivers/STM32N6xx_HAL_Driver/Src/stm32n6xx_hal_spi.c ****   * @param  hspi : pointer to a SPI_HandleTypeDef structure that contains
1947:STM32Cube_FW_N6/Drivers/STM32N6xx_HAL_Driver/Src/stm32n6xx_hal_spi.c ****   *                the configuration information for SPI module.
1948:STM32Cube_FW_N6/Drivers/STM32N6xx_HAL_Driver/Src/stm32n6xx_hal_spi.c ****   * @param  pData: pointer to data buffer
1949:STM32Cube_FW_N6/Drivers/STM32N6xx_HAL_Driver/Src/stm32n6xx_hal_spi.c ****   * @param  Size : amount of data to be sent
1950:STM32Cube_FW_N6/Drivers/STM32N6xx_HAL_Driver/Src/stm32n6xx_hal_spi.c ****   * @retval HAL status
1951:STM32Cube_FW_N6/Drivers/STM32N6xx_HAL_Driver/Src/stm32n6xx_hal_spi.c ****   */
1952:STM32Cube_FW_N6/Drivers/STM32N6xx_HAL_Driver/Src/stm32n6xx_hal_spi.c **** HAL_StatusTypeDef HAL_SPI_Transmit_DMA(SPI_HandleTypeDef *hspi, const uint8_t *pData, uint16_t Size
1953:STM32Cube_FW_N6/Drivers/STM32N6xx_HAL_Driver/Src/stm32n6xx_hal_spi.c **** {
 5685              		.loc 1 1953 1
 5686              		.cfi_startproc
 5687              		@ args = 0, pretend = 0, frame = 24
 5688              		@ frame_needed = 1, uses_anonymous_args = 0
 5689 0000 80B5     		push	{r7, lr}
 5690              		.cfi_def_cfa_offset 8
 5691              		.cfi_offset 7, -8
 5692              		.cfi_offset 14, -4
 5693 0002 86B0     		sub	sp, sp, #24
 5694              		.cfi_def_cfa_offset 32
 5695 0004 00AF     		add	r7, sp, #0
 5696              		.cfi_def_cfa_register 7
 5697 0006 F860     		str	r0, [r7, #12]
 5698 0008 B960     		str	r1, [r7, #8]
 5699 000a 1346     		mov	r3, r2
 5700 000c FB80     		strh	r3, [r7, #6]	@ movhi
1954:STM32Cube_FW_N6/Drivers/STM32N6xx_HAL_Driver/Src/stm32n6xx_hal_spi.c ****   HAL_StatusTypeDef status;
1955:STM32Cube_FW_N6/Drivers/STM32N6xx_HAL_Driver/Src/stm32n6xx_hal_spi.c **** 
1956:STM32Cube_FW_N6/Drivers/STM32N6xx_HAL_Driver/Src/stm32n6xx_hal_spi.c ****   /* Check Direction parameter */
1957:STM32Cube_FW_N6/Drivers/STM32N6xx_HAL_Driver/Src/stm32n6xx_hal_spi.c ****   assert_param(IS_SPI_DIRECTION_2LINES_OR_1LINE_2LINES_TXONLY(hspi->Init.Direction));
 5701              		.loc 1 1957 3
 5702 000e FB68     		ldr	r3, [r7, #12]
 5703 0010 9B68     		ldr	r3, [r3, #8]
 5704 0012 002B     		cmp	r3, #0
 5705 0014 0ED0     		beq	.L259
 5706              		.loc 1 1957 3 is_stmt 0 discriminator 1
 5707 0016 FB68     		ldr	r3, [r7, #12]
 5708 0018 9B68     		ldr	r3, [r3, #8]
 5709 001a B3F5C02F 		cmp	r3, #393216
 5710 001e 09D0     		beq	.L259
 5711              		.loc 1 1957 3 discriminator 2
 5712 0020 FB68     		ldr	r3, [r7, #12]
 5713 0022 9B68     		ldr	r3, [r3, #8]
 5714 0024 B3F5003F 		cmp	r3, #131072
 5715 0028 04D0     		beq	.L259
 5716              		.loc 1 1957 3 discriminator 3
 5717 002a 40F2A571 		movw	r1, #1957
 5718 002e 8248     		ldr	r0, .L283
 5719 0030 FFF7FEFF 		bl	assert_failed
ARM GAS  /tmp/ccwTXtVb.s 			page 136


 5720              	.L259:
1958:STM32Cube_FW_N6/Drivers/STM32N6xx_HAL_Driver/Src/stm32n6xx_hal_spi.c **** 
1959:STM32Cube_FW_N6/Drivers/STM32N6xx_HAL_Driver/Src/stm32n6xx_hal_spi.c ****   if (hspi->State != HAL_SPI_STATE_READY)
 5721              		.loc 1 1959 11 is_stmt 1
 5722 0034 FB68     		ldr	r3, [r7, #12]
 5723 0036 93F88930 		ldrb	r3, [r3, #137]
 5724 003a DBB2     		uxtb	r3, r3
 5725              		.loc 1 1959 6
 5726 003c 012B     		cmp	r3, #1
 5727 003e 01D0     		beq	.L260
1960:STM32Cube_FW_N6/Drivers/STM32N6xx_HAL_Driver/Src/stm32n6xx_hal_spi.c ****   {
1961:STM32Cube_FW_N6/Drivers/STM32N6xx_HAL_Driver/Src/stm32n6xx_hal_spi.c ****     return HAL_BUSY;
 5728              		.loc 1 1961 12
 5729 0040 0223     		movs	r3, #2
 5730 0042 B7E1     		b	.L261
 5731              	.L260:
1962:STM32Cube_FW_N6/Drivers/STM32N6xx_HAL_Driver/Src/stm32n6xx_hal_spi.c ****   }
1963:STM32Cube_FW_N6/Drivers/STM32N6xx_HAL_Driver/Src/stm32n6xx_hal_spi.c **** 
1964:STM32Cube_FW_N6/Drivers/STM32N6xx_HAL_Driver/Src/stm32n6xx_hal_spi.c ****   if ((pData == NULL) || (Size == 0UL))
 5732              		.loc 1 1964 6
 5733 0044 BB68     		ldr	r3, [r7, #8]
 5734 0046 002B     		cmp	r3, #0
 5735 0048 02D0     		beq	.L262
 5736              		.loc 1 1964 23 discriminator 1
 5737 004a FB88     		ldrh	r3, [r7, #6]
 5738 004c 002B     		cmp	r3, #0
 5739 004e 01D1     		bne	.L263
 5740              	.L262:
1965:STM32Cube_FW_N6/Drivers/STM32N6xx_HAL_Driver/Src/stm32n6xx_hal_spi.c ****   {
1966:STM32Cube_FW_N6/Drivers/STM32N6xx_HAL_Driver/Src/stm32n6xx_hal_spi.c ****     return HAL_ERROR;
 5741              		.loc 1 1966 12
 5742 0050 0123     		movs	r3, #1
 5743 0052 AFE1     		b	.L261
 5744              	.L263:
1967:STM32Cube_FW_N6/Drivers/STM32N6xx_HAL_Driver/Src/stm32n6xx_hal_spi.c ****   }
1968:STM32Cube_FW_N6/Drivers/STM32N6xx_HAL_Driver/Src/stm32n6xx_hal_spi.c **** 
1969:STM32Cube_FW_N6/Drivers/STM32N6xx_HAL_Driver/Src/stm32n6xx_hal_spi.c ****   /* Lock the process */
1970:STM32Cube_FW_N6/Drivers/STM32N6xx_HAL_Driver/Src/stm32n6xx_hal_spi.c ****   __HAL_LOCK(hspi);
 5745              		.loc 1 1970 3
 5746 0054 FB68     		ldr	r3, [r7, #12]
 5747 0056 93F88830 		ldrb	r3, [r3, #136]	@ zero_extendqisi2
 5748 005a 012B     		cmp	r3, #1
 5749 005c 01D1     		bne	.L264
 5750              		.loc 1 1970 3 is_stmt 0 discriminator 1
 5751 005e 0223     		movs	r3, #2
 5752              		.loc 1 1970 3
 5753 0060 A8E1     		b	.L261
 5754              	.L264:
 5755              		.loc 1 1970 3 discriminator 2
 5756 0062 FB68     		ldr	r3, [r7, #12]
 5757 0064 0122     		movs	r2, #1
 5758 0066 83F88820 		strb	r2, [r3, #136]
1971:STM32Cube_FW_N6/Drivers/STM32N6xx_HAL_Driver/Src/stm32n6xx_hal_spi.c **** 
1972:STM32Cube_FW_N6/Drivers/STM32N6xx_HAL_Driver/Src/stm32n6xx_hal_spi.c ****   /* Set the transaction information */
1973:STM32Cube_FW_N6/Drivers/STM32N6xx_HAL_Driver/Src/stm32n6xx_hal_spi.c ****   hspi->State       = HAL_SPI_STATE_BUSY_TX;
 5759              		.loc 1 1973 21 is_stmt 1
 5760 006a FB68     		ldr	r3, [r7, #12]
ARM GAS  /tmp/ccwTXtVb.s 			page 137


 5761 006c 0322     		movs	r2, #3
 5762 006e 83F88920 		strb	r2, [r3, #137]
1974:STM32Cube_FW_N6/Drivers/STM32N6xx_HAL_Driver/Src/stm32n6xx_hal_spi.c ****   hspi->ErrorCode   = HAL_SPI_ERROR_NONE;
 5763              		.loc 1 1974 21
 5764 0072 FB68     		ldr	r3, [r7, #12]
 5765 0074 0022     		movs	r2, #0
 5766 0076 C3F88C20 		str	r2, [r3, #140]
1975:STM32Cube_FW_N6/Drivers/STM32N6xx_HAL_Driver/Src/stm32n6xx_hal_spi.c ****   hspi->pTxBuffPtr  = (const uint8_t *)pData;
 5767              		.loc 1 1975 21
 5768 007a FB68     		ldr	r3, [r7, #12]
 5769 007c BA68     		ldr	r2, [r7, #8]
 5770 007e 5A66     		str	r2, [r3, #100]
1976:STM32Cube_FW_N6/Drivers/STM32N6xx_HAL_Driver/Src/stm32n6xx_hal_spi.c ****   hspi->TxXferSize  = Size;
 5771              		.loc 1 1976 21
 5772 0080 FB68     		ldr	r3, [r7, #12]
 5773 0082 FA88     		ldrh	r2, [r7, #6]	@ movhi
 5774 0084 A3F86820 		strh	r2, [r3, #104]	@ movhi
1977:STM32Cube_FW_N6/Drivers/STM32N6xx_HAL_Driver/Src/stm32n6xx_hal_spi.c ****   hspi->TxXferCount = Size;
 5775              		.loc 1 1977 21
 5776 0088 FB68     		ldr	r3, [r7, #12]
 5777 008a FA88     		ldrh	r2, [r7, #6]	@ movhi
 5778 008c A3F86A20 		strh	r2, [r3, #106]	@ movhi
1978:STM32Cube_FW_N6/Drivers/STM32N6xx_HAL_Driver/Src/stm32n6xx_hal_spi.c **** 
1979:STM32Cube_FW_N6/Drivers/STM32N6xx_HAL_Driver/Src/stm32n6xx_hal_spi.c ****   /* Init field not used in handle to zero */
1980:STM32Cube_FW_N6/Drivers/STM32N6xx_HAL_Driver/Src/stm32n6xx_hal_spi.c ****   hspi->pRxBuffPtr  = NULL;
 5779              		.loc 1 1980 21
 5780 0090 FB68     		ldr	r3, [r7, #12]
 5781 0092 0022     		movs	r2, #0
 5782 0094 DA66     		str	r2, [r3, #108]
1981:STM32Cube_FW_N6/Drivers/STM32N6xx_HAL_Driver/Src/stm32n6xx_hal_spi.c ****   hspi->TxISR       = NULL;
 5783              		.loc 1 1981 21
 5784 0096 FB68     		ldr	r3, [r7, #12]
 5785 0098 0022     		movs	r2, #0
 5786 009a DA67     		str	r2, [r3, #124]
1982:STM32Cube_FW_N6/Drivers/STM32N6xx_HAL_Driver/Src/stm32n6xx_hal_spi.c ****   hspi->RxISR       = NULL;
 5787              		.loc 1 1982 21
 5788 009c FB68     		ldr	r3, [r7, #12]
 5789 009e 0022     		movs	r2, #0
 5790 00a0 9A67     		str	r2, [r3, #120]
1983:STM32Cube_FW_N6/Drivers/STM32N6xx_HAL_Driver/Src/stm32n6xx_hal_spi.c ****   hspi->RxXferSize  = (uint16_t)0UL;
 5791              		.loc 1 1983 21
 5792 00a2 FB68     		ldr	r3, [r7, #12]
 5793 00a4 0022     		movs	r2, #0
 5794 00a6 A3F87020 		strh	r2, [r3, #112]	@ movhi
1984:STM32Cube_FW_N6/Drivers/STM32N6xx_HAL_Driver/Src/stm32n6xx_hal_spi.c ****   hspi->RxXferCount = (uint16_t)0UL;
 5795              		.loc 1 1984 21
 5796 00aa FB68     		ldr	r3, [r7, #12]
 5797 00ac 0022     		movs	r2, #0
 5798 00ae A3F87220 		strh	r2, [r3, #114]	@ movhi
1985:STM32Cube_FW_N6/Drivers/STM32N6xx_HAL_Driver/Src/stm32n6xx_hal_spi.c **** 
1986:STM32Cube_FW_N6/Drivers/STM32N6xx_HAL_Driver/Src/stm32n6xx_hal_spi.c ****   /* Configure communication direction : 1Line */
1987:STM32Cube_FW_N6/Drivers/STM32N6xx_HAL_Driver/Src/stm32n6xx_hal_spi.c ****   if (hspi->Init.Direction == SPI_DIRECTION_1LINE)
 5799              		.loc 1 1987 17
 5800 00b2 FB68     		ldr	r3, [r7, #12]
 5801 00b4 9B68     		ldr	r3, [r3, #8]
 5802              		.loc 1 1987 6
 5803 00b6 B3F5C02F 		cmp	r3, #393216
ARM GAS  /tmp/ccwTXtVb.s 			page 138


 5804 00ba 08D1     		bne	.L265
1988:STM32Cube_FW_N6/Drivers/STM32N6xx_HAL_Driver/Src/stm32n6xx_hal_spi.c ****   {
1989:STM32Cube_FW_N6/Drivers/STM32N6xx_HAL_Driver/Src/stm32n6xx_hal_spi.c ****     SPI_1LINE_TX(hspi);
 5805              		.loc 1 1989 5
 5806 00bc FB68     		ldr	r3, [r7, #12]
 5807 00be 1B68     		ldr	r3, [r3]
 5808 00c0 1A68     		ldr	r2, [r3]
 5809 00c2 FB68     		ldr	r3, [r7, #12]
 5810 00c4 1B68     		ldr	r3, [r3]
 5811 00c6 42F40062 		orr	r2, r2, #2048
 5812 00ca 1A60     		str	r2, [r3]
 5813 00cc 09E0     		b	.L266
 5814              	.L265:
1990:STM32Cube_FW_N6/Drivers/STM32N6xx_HAL_Driver/Src/stm32n6xx_hal_spi.c ****   }
1991:STM32Cube_FW_N6/Drivers/STM32N6xx_HAL_Driver/Src/stm32n6xx_hal_spi.c ****   else
1992:STM32Cube_FW_N6/Drivers/STM32N6xx_HAL_Driver/Src/stm32n6xx_hal_spi.c ****   {
1993:STM32Cube_FW_N6/Drivers/STM32N6xx_HAL_Driver/Src/stm32n6xx_hal_spi.c ****     SPI_2LINES_TX(hspi);
 5815              		.loc 1 1993 5
 5816 00ce FB68     		ldr	r3, [r7, #12]
 5817 00d0 1B68     		ldr	r3, [r3]
 5818 00d2 DB68     		ldr	r3, [r3, #12]
 5819 00d4 23F4C022 		bic	r2, r3, #393216
 5820 00d8 FB68     		ldr	r3, [r7, #12]
 5821 00da 1B68     		ldr	r3, [r3]
 5822 00dc 42F40032 		orr	r2, r2, #131072
 5823 00e0 DA60     		str	r2, [r3, #12]
 5824              	.L266:
1994:STM32Cube_FW_N6/Drivers/STM32N6xx_HAL_Driver/Src/stm32n6xx_hal_spi.c ****   }
1995:STM32Cube_FW_N6/Drivers/STM32N6xx_HAL_Driver/Src/stm32n6xx_hal_spi.c **** 
1996:STM32Cube_FW_N6/Drivers/STM32N6xx_HAL_Driver/Src/stm32n6xx_hal_spi.c ****   /* Packing mode management is enabled by the DMA settings */
1997:STM32Cube_FW_N6/Drivers/STM32N6xx_HAL_Driver/Src/stm32n6xx_hal_spi.c ****   if (((hspi->Init.DataSize > SPI_DATASIZE_16BIT) && (hspi->hdmatx->Init.SrcDataWidth !=  DMA_SRC_D
 5825              		.loc 1 1997 19
 5826 00e2 FB68     		ldr	r3, [r7, #12]
 5827 00e4 DB68     		ldr	r3, [r3, #12]
 5828              		.loc 1 1997 6
 5829 00e6 0F2B     		cmp	r3, #15
 5830 00e8 2DD9     		bls	.L267
 5831              		.loc 1 1997 59 discriminator 1
 5832 00ea FB68     		ldr	r3, [r7, #12]
 5833 00ec D3F88030 		ldr	r3, [r3, #128]
 5834              		.loc 1 1997 73 discriminator 1
 5835 00f0 9B69     		ldr	r3, [r3, #24]
 5836              		.loc 1 1997 51 discriminator 1
 5837 00f2 022B     		cmp	r3, #2
 5838 00f4 27D0     		beq	.L267
1998:STM32Cube_FW_N6/Drivers/STM32N6xx_HAL_Driver/Src/stm32n6xx_hal_spi.c ****        (IS_SPI_FULL_INSTANCE(hspi->Instance))) || \
 5839              		.loc 1 1998 9
 5840 00f6 FB68     		ldr	r3, [r7, #12]
 5841 00f8 1B68     		ldr	r3, [r3]
1997:STM32Cube_FW_N6/Drivers/STM32N6xx_HAL_Driver/Src/stm32n6xx_hal_spi.c ****        (IS_SPI_FULL_INSTANCE(hspi->Instance))) || \
 5842              		.loc 1 1997 115 discriminator 2
 5843 00fa 504A     		ldr	r2, .L283+4
 5844 00fc 9342     		cmp	r3, r2
 5845 00fe 2CD0     		beq	.L268
 5846              		.loc 1 1998 9
 5847 0100 FB68     		ldr	r3, [r7, #12]
 5848 0102 1B68     		ldr	r3, [r3]
ARM GAS  /tmp/ccwTXtVb.s 			page 139


 5849 0104 4E4A     		ldr	r2, .L283+8
 5850 0106 9342     		cmp	r3, r2
 5851 0108 27D0     		beq	.L268
 5852              		.loc 1 1998 9 is_stmt 0 discriminator 1
 5853 010a FB68     		ldr	r3, [r7, #12]
 5854 010c 1B68     		ldr	r3, [r3]
 5855 010e 4D4A     		ldr	r2, .L283+12
 5856 0110 9342     		cmp	r3, r2
 5857 0112 22D0     		beq	.L268
 5858              		.loc 1 1998 9 discriminator 2
 5859 0114 FB68     		ldr	r3, [r7, #12]
 5860 0116 1B68     		ldr	r3, [r3]
 5861 0118 4B4A     		ldr	r2, .L283+16
 5862 011a 9342     		cmp	r3, r2
 5863 011c 1DD0     		beq	.L268
 5864              		.loc 1 1998 9 discriminator 3
 5865 011e FB68     		ldr	r3, [r7, #12]
 5866 0120 1B68     		ldr	r3, [r3]
 5867 0122 4A4A     		ldr	r2, .L283+20
 5868 0124 9342     		cmp	r3, r2
 5869 0126 18D0     		beq	.L268
 5870              		.loc 1 1998 9 discriminator 4
 5871 0128 FB68     		ldr	r3, [r7, #12]
 5872 012a 1B68     		ldr	r3, [r3]
 5873 012c 484A     		ldr	r2, .L283+24
 5874 012e 9342     		cmp	r3, r2
 5875 0130 13D0     		beq	.L268
 5876              		.loc 1 1998 9 discriminator 5
 5877 0132 FB68     		ldr	r3, [r7, #12]
 5878 0134 1B68     		ldr	r3, [r3]
 5879 0136 474A     		ldr	r2, .L283+28
 5880 0138 9342     		cmp	r3, r2
 5881 013a 0ED0     		beq	.L268
 5882              		.loc 1 1998 9 discriminator 6
 5883 013c FB68     		ldr	r3, [r7, #12]
 5884 013e 1B68     		ldr	r3, [r3]
 5885 0140 454A     		ldr	r2, .L283+32
 5886 0142 9342     		cmp	r3, r2
 5887 0144 09D0     		beq	.L268
 5888              	.L267:
1999:STM32Cube_FW_N6/Drivers/STM32N6xx_HAL_Driver/Src/stm32n6xx_hal_spi.c ****       ((hspi->Init.DataSize > SPI_DATASIZE_8BIT)  && (hspi->hdmatx->Init.SrcDataWidth ==  DMA_SRC_D
 5889              		.loc 1 1999 19 is_stmt 1
 5890 0146 FB68     		ldr	r3, [r7, #12]
 5891 0148 DB68     		ldr	r3, [r3, #12]
1998:STM32Cube_FW_N6/Drivers/STM32N6xx_HAL_Driver/Src/stm32n6xx_hal_spi.c ****        (IS_SPI_FULL_INSTANCE(hspi->Instance))) || \
 5892              		.loc 1 1998 48 discriminator 7
 5893 014a 072B     		cmp	r3, #7
 5894 014c 0BD9     		bls	.L269
 5895              		.loc 1 1999 59
 5896 014e FB68     		ldr	r3, [r7, #12]
 5897 0150 D3F88030 		ldr	r3, [r3, #128]
 5898              		.loc 1 1999 73
 5899 0154 9B69     		ldr	r3, [r3, #24]
 5900              		.loc 1 1999 51
 5901 0156 002B     		cmp	r3, #0
 5902 0158 05D1     		bne	.L269
 5903              	.L268:
ARM GAS  /tmp/ccwTXtVb.s 			page 140


2000:STM32Cube_FW_N6/Drivers/STM32N6xx_HAL_Driver/Src/stm32n6xx_hal_spi.c ****   {
2001:STM32Cube_FW_N6/Drivers/STM32N6xx_HAL_Driver/Src/stm32n6xx_hal_spi.c ****     /* Restriction the DMA data received is not allowed in this mode */
2002:STM32Cube_FW_N6/Drivers/STM32N6xx_HAL_Driver/Src/stm32n6xx_hal_spi.c ****     __HAL_UNLOCK(hspi);
 5904              		.loc 1 2002 5
 5905 015a FB68     		ldr	r3, [r7, #12]
 5906 015c 0022     		movs	r2, #0
 5907 015e 83F88820 		strb	r2, [r3, #136]
2003:STM32Cube_FW_N6/Drivers/STM32N6xx_HAL_Driver/Src/stm32n6xx_hal_spi.c ****     return HAL_ERROR;
 5908              		.loc 1 2003 12
 5909 0162 0123     		movs	r3, #1
 5910 0164 26E1     		b	.L261
 5911              	.L269:
2004:STM32Cube_FW_N6/Drivers/STM32N6xx_HAL_Driver/Src/stm32n6xx_hal_spi.c ****   }
2005:STM32Cube_FW_N6/Drivers/STM32N6xx_HAL_Driver/Src/stm32n6xx_hal_spi.c **** 
2006:STM32Cube_FW_N6/Drivers/STM32N6xx_HAL_Driver/Src/stm32n6xx_hal_spi.c ****   /* Adjust XferCount according to DMA alignment / Data size */
2007:STM32Cube_FW_N6/Drivers/STM32N6xx_HAL_Driver/Src/stm32n6xx_hal_spi.c ****   if (hspi->Init.DataSize <= SPI_DATASIZE_8BIT)
 5912              		.loc 1 2007 17
 5913 0166 FB68     		ldr	r3, [r7, #12]
 5914 0168 DB68     		ldr	r3, [r3, #12]
 5915              		.loc 1 2007 6
 5916 016a 072B     		cmp	r3, #7
 5917 016c 20D8     		bhi	.L270
2008:STM32Cube_FW_N6/Drivers/STM32N6xx_HAL_Driver/Src/stm32n6xx_hal_spi.c ****   {
2009:STM32Cube_FW_N6/Drivers/STM32N6xx_HAL_Driver/Src/stm32n6xx_hal_spi.c ****     if (hspi->hdmatx->Init.SrcDataWidth == DMA_SRC_DATAWIDTH_HALFWORD)
 5918              		.loc 1 2009 13
 5919 016e FB68     		ldr	r3, [r7, #12]
 5920 0170 D3F88030 		ldr	r3, [r3, #128]
 5921              		.loc 1 2009 27
 5922 0174 9B69     		ldr	r3, [r3, #24]
 5923              		.loc 1 2009 8
 5924 0176 012B     		cmp	r3, #1
 5925 0178 09D1     		bne	.L271
2010:STM32Cube_FW_N6/Drivers/STM32N6xx_HAL_Driver/Src/stm32n6xx_hal_spi.c ****     {
2011:STM32Cube_FW_N6/Drivers/STM32N6xx_HAL_Driver/Src/stm32n6xx_hal_spi.c ****       hspi->TxXferCount = (hspi->TxXferCount + (uint16_t) 1UL) >> 1UL;
 5926              		.loc 1 2011 32
 5927 017a FB68     		ldr	r3, [r7, #12]
 5928 017c B3F86A30 		ldrh	r3, [r3, #106]	@ movhi
 5929 0180 9BB2     		uxth	r3, r3
 5930              		.loc 1 2011 46
 5931 0182 0133     		adds	r3, r3, #1
 5932              		.loc 1 2011 64
 5933 0184 5B10     		asrs	r3, r3, #1
 5934              		.loc 1 2011 25
 5935 0186 9AB2     		uxth	r2, r3
 5936 0188 FB68     		ldr	r3, [r7, #12]
 5937 018a A3F86A20 		strh	r2, [r3, #106]	@ movhi
 5938              	.L271:
2012:STM32Cube_FW_N6/Drivers/STM32N6xx_HAL_Driver/Src/stm32n6xx_hal_spi.c ****     }
2013:STM32Cube_FW_N6/Drivers/STM32N6xx_HAL_Driver/Src/stm32n6xx_hal_spi.c ****     if (hspi->hdmatx->Init.SrcDataWidth == DMA_SRC_DATAWIDTH_WORD)
 5939              		.loc 1 2013 13
 5940 018e FB68     		ldr	r3, [r7, #12]
 5941 0190 D3F88030 		ldr	r3, [r3, #128]
 5942              		.loc 1 2013 27
 5943 0194 9B69     		ldr	r3, [r3, #24]
 5944              		.loc 1 2013 8
 5945 0196 022B     		cmp	r3, #2
 5946 0198 1ED1     		bne	.L272
ARM GAS  /tmp/ccwTXtVb.s 			page 141


2014:STM32Cube_FW_N6/Drivers/STM32N6xx_HAL_Driver/Src/stm32n6xx_hal_spi.c ****     {
2015:STM32Cube_FW_N6/Drivers/STM32N6xx_HAL_Driver/Src/stm32n6xx_hal_spi.c ****       hspi->TxXferCount = (hspi->TxXferCount + (uint16_t) 3UL) >> 2UL;
 5947              		.loc 1 2015 32
 5948 019a FB68     		ldr	r3, [r7, #12]
 5949 019c B3F86A30 		ldrh	r3, [r3, #106]	@ movhi
 5950 01a0 9BB2     		uxth	r3, r3
 5951              		.loc 1 2015 46
 5952 01a2 0333     		adds	r3, r3, #3
 5953              		.loc 1 2015 64
 5954 01a4 9B10     		asrs	r3, r3, #2
 5955              		.loc 1 2015 25
 5956 01a6 9AB2     		uxth	r2, r3
 5957 01a8 FB68     		ldr	r3, [r7, #12]
 5958 01aa A3F86A20 		strh	r2, [r3, #106]	@ movhi
 5959 01ae 13E0     		b	.L272
 5960              	.L270:
2016:STM32Cube_FW_N6/Drivers/STM32N6xx_HAL_Driver/Src/stm32n6xx_hal_spi.c ****     }
2017:STM32Cube_FW_N6/Drivers/STM32N6xx_HAL_Driver/Src/stm32n6xx_hal_spi.c ****   }
2018:STM32Cube_FW_N6/Drivers/STM32N6xx_HAL_Driver/Src/stm32n6xx_hal_spi.c ****   else if (hspi->Init.DataSize <= SPI_DATASIZE_16BIT)
 5961              		.loc 1 2018 22
 5962 01b0 FB68     		ldr	r3, [r7, #12]
 5963 01b2 DB68     		ldr	r3, [r3, #12]
 5964              		.loc 1 2018 11
 5965 01b4 0F2B     		cmp	r3, #15
 5966 01b6 0FD8     		bhi	.L272
2019:STM32Cube_FW_N6/Drivers/STM32N6xx_HAL_Driver/Src/stm32n6xx_hal_spi.c ****   {
2020:STM32Cube_FW_N6/Drivers/STM32N6xx_HAL_Driver/Src/stm32n6xx_hal_spi.c ****     if (hspi->hdmatx->Init.SrcDataWidth == DMA_SRC_DATAWIDTH_WORD)
 5967              		.loc 1 2020 13
 5968 01b8 FB68     		ldr	r3, [r7, #12]
 5969 01ba D3F88030 		ldr	r3, [r3, #128]
 5970              		.loc 1 2020 27
 5971 01be 9B69     		ldr	r3, [r3, #24]
 5972              		.loc 1 2020 8
 5973 01c0 022B     		cmp	r3, #2
 5974 01c2 09D1     		bne	.L272
2021:STM32Cube_FW_N6/Drivers/STM32N6xx_HAL_Driver/Src/stm32n6xx_hal_spi.c ****     {
2022:STM32Cube_FW_N6/Drivers/STM32N6xx_HAL_Driver/Src/stm32n6xx_hal_spi.c ****       hspi->TxXferCount = (hspi->TxXferCount + (uint16_t) 1UL) >> 1UL;
 5975              		.loc 1 2022 32
 5976 01c4 FB68     		ldr	r3, [r7, #12]
 5977 01c6 B3F86A30 		ldrh	r3, [r3, #106]	@ movhi
 5978 01ca 9BB2     		uxth	r3, r3
 5979              		.loc 1 2022 46
 5980 01cc 0133     		adds	r3, r3, #1
 5981              		.loc 1 2022 64
 5982 01ce 5B10     		asrs	r3, r3, #1
 5983              		.loc 1 2022 25
 5984 01d0 9AB2     		uxth	r2, r3
 5985 01d2 FB68     		ldr	r3, [r7, #12]
 5986 01d4 A3F86A20 		strh	r2, [r3, #106]	@ movhi
 5987              	.L272:
2023:STM32Cube_FW_N6/Drivers/STM32N6xx_HAL_Driver/Src/stm32n6xx_hal_spi.c ****     }
2024:STM32Cube_FW_N6/Drivers/STM32N6xx_HAL_Driver/Src/stm32n6xx_hal_spi.c ****   }
2025:STM32Cube_FW_N6/Drivers/STM32N6xx_HAL_Driver/Src/stm32n6xx_hal_spi.c ****   else
2026:STM32Cube_FW_N6/Drivers/STM32N6xx_HAL_Driver/Src/stm32n6xx_hal_spi.c ****   {
2027:STM32Cube_FW_N6/Drivers/STM32N6xx_HAL_Driver/Src/stm32n6xx_hal_spi.c ****     /* Adjustment done */
2028:STM32Cube_FW_N6/Drivers/STM32N6xx_HAL_Driver/Src/stm32n6xx_hal_spi.c ****   }
2029:STM32Cube_FW_N6/Drivers/STM32N6xx_HAL_Driver/Src/stm32n6xx_hal_spi.c **** 
ARM GAS  /tmp/ccwTXtVb.s 			page 142


2030:STM32Cube_FW_N6/Drivers/STM32N6xx_HAL_Driver/Src/stm32n6xx_hal_spi.c ****   /* Set the SPI TxDMA Half transfer complete callback */
2031:STM32Cube_FW_N6/Drivers/STM32N6xx_HAL_Driver/Src/stm32n6xx_hal_spi.c ****   hspi->hdmatx->XferHalfCpltCallback = SPI_DMAHalfTransmitCplt;
 5988              		.loc 1 2031 7
 5989 01d8 FB68     		ldr	r3, [r7, #12]
 5990 01da D3F88030 		ldr	r3, [r3, #128]
 5991              		.loc 1 2031 38
 5992 01de 1F4A     		ldr	r2, .L283+36
 5993 01e0 5A66     		str	r2, [r3, #100]
2032:STM32Cube_FW_N6/Drivers/STM32N6xx_HAL_Driver/Src/stm32n6xx_hal_spi.c **** 
2033:STM32Cube_FW_N6/Drivers/STM32N6xx_HAL_Driver/Src/stm32n6xx_hal_spi.c ****   /* Set the SPI TxDMA transfer complete callback */
2034:STM32Cube_FW_N6/Drivers/STM32N6xx_HAL_Driver/Src/stm32n6xx_hal_spi.c ****   hspi->hdmatx->XferCpltCallback = SPI_DMATransmitCplt;
 5994              		.loc 1 2034 7
 5995 01e2 FB68     		ldr	r3, [r7, #12]
 5996 01e4 D3F88030 		ldr	r3, [r3, #128]
 5997              		.loc 1 2034 34
 5998 01e8 1D4A     		ldr	r2, .L283+40
 5999 01ea 1A66     		str	r2, [r3, #96]
2035:STM32Cube_FW_N6/Drivers/STM32N6xx_HAL_Driver/Src/stm32n6xx_hal_spi.c **** 
2036:STM32Cube_FW_N6/Drivers/STM32N6xx_HAL_Driver/Src/stm32n6xx_hal_spi.c ****   /* Set the DMA error callback */
2037:STM32Cube_FW_N6/Drivers/STM32N6xx_HAL_Driver/Src/stm32n6xx_hal_spi.c ****   hspi->hdmatx->XferErrorCallback = SPI_DMAError;
 6000              		.loc 1 2037 7
 6001 01ec FB68     		ldr	r3, [r7, #12]
 6002 01ee D3F88030 		ldr	r3, [r3, #128]
 6003              		.loc 1 2037 35
 6004 01f2 1C4A     		ldr	r2, .L283+44
 6005 01f4 9A66     		str	r2, [r3, #104]
2038:STM32Cube_FW_N6/Drivers/STM32N6xx_HAL_Driver/Src/stm32n6xx_hal_spi.c **** 
2039:STM32Cube_FW_N6/Drivers/STM32N6xx_HAL_Driver/Src/stm32n6xx_hal_spi.c ****   /* Set the DMA AbortCpltCallback */
2040:STM32Cube_FW_N6/Drivers/STM32N6xx_HAL_Driver/Src/stm32n6xx_hal_spi.c ****   hspi->hdmatx->XferAbortCallback = NULL;
 6006              		.loc 1 2040 7
 6007 01f6 FB68     		ldr	r3, [r7, #12]
 6008 01f8 D3F88030 		ldr	r3, [r3, #128]
 6009              		.loc 1 2040 35
 6010 01fc 0022     		movs	r2, #0
 6011 01fe DA66     		str	r2, [r3, #108]
2041:STM32Cube_FW_N6/Drivers/STM32N6xx_HAL_Driver/Src/stm32n6xx_hal_spi.c **** 
2042:STM32Cube_FW_N6/Drivers/STM32N6xx_HAL_Driver/Src/stm32n6xx_hal_spi.c ****   /* Clear TXDMAEN bit*/
2043:STM32Cube_FW_N6/Drivers/STM32N6xx_HAL_Driver/Src/stm32n6xx_hal_spi.c ****   CLEAR_BIT(hspi->Instance->CFG1, SPI_CFG1_TXDMAEN);
 6012              		.loc 1 2043 3
 6013 0200 FB68     		ldr	r3, [r7, #12]
 6014 0202 1B68     		ldr	r3, [r3]
 6015 0204 9A68     		ldr	r2, [r3, #8]
 6016 0206 FB68     		ldr	r3, [r7, #12]
 6017 0208 1B68     		ldr	r3, [r3]
 6018 020a 22F40042 		bic	r2, r2, #32768
 6019 020e 9A60     		str	r2, [r3, #8]
2044:STM32Cube_FW_N6/Drivers/STM32N6xx_HAL_Driver/Src/stm32n6xx_hal_spi.c **** 
2045:STM32Cube_FW_N6/Drivers/STM32N6xx_HAL_Driver/Src/stm32n6xx_hal_spi.c ****   if (hspi->Init.DataSize <= SPI_DATASIZE_8BIT)
 6020              		.loc 1 2045 17
 6021 0210 FB68     		ldr	r3, [r7, #12]
 6022 0212 DB68     		ldr	r3, [r3, #12]
 6023              		.loc 1 2045 6
 6024 0214 072B     		cmp	r3, #7
 6025 0216 04D8     		bhi	.L273
2046:STM32Cube_FW_N6/Drivers/STM32N6xx_HAL_Driver/Src/stm32n6xx_hal_spi.c ****   {
2047:STM32Cube_FW_N6/Drivers/STM32N6xx_HAL_Driver/Src/stm32n6xx_hal_spi.c ****     hspi->TxXferCount = Size;
 6026              		.loc 1 2047 23
ARM GAS  /tmp/ccwTXtVb.s 			page 143


 6027 0218 FB68     		ldr	r3, [r7, #12]
 6028 021a FA88     		ldrh	r2, [r7, #6]	@ movhi
 6029 021c A3F86A20 		strh	r2, [r3, #106]	@ movhi
 6030 0220 28E0     		b	.L274
 6031              	.L273:
2048:STM32Cube_FW_N6/Drivers/STM32N6xx_HAL_Driver/Src/stm32n6xx_hal_spi.c ****   }
2049:STM32Cube_FW_N6/Drivers/STM32N6xx_HAL_Driver/Src/stm32n6xx_hal_spi.c ****   else if (hspi->Init.DataSize <= SPI_DATASIZE_16BIT)
 6032              		.loc 1 2049 22
 6033 0222 FB68     		ldr	r3, [r7, #12]
 6034 0224 DB68     		ldr	r3, [r3, #12]
 6035              		.loc 1 2049 11
 6036 0226 0F2B     		cmp	r3, #15
 6037 0228 1ED8     		bhi	.L275
2050:STM32Cube_FW_N6/Drivers/STM32N6xx_HAL_Driver/Src/stm32n6xx_hal_spi.c ****   {
2051:STM32Cube_FW_N6/Drivers/STM32N6xx_HAL_Driver/Src/stm32n6xx_hal_spi.c ****     hspi->TxXferCount = Size * 2U;
 6038              		.loc 1 2051 30
 6039 022a FB88     		ldrh	r3, [r7, #6]	@ movhi
 6040 022c 5B00     		lsls	r3, r3, #1
 6041 022e 9AB2     		uxth	r2, r3
 6042              		.loc 1 2051 23
 6043 0230 FB68     		ldr	r3, [r7, #12]
 6044 0232 A3F86A20 		strh	r2, [r3, #106]	@ movhi
 6045 0236 1DE0     		b	.L274
 6046              	.L284:
 6047              		.align	2
 6048              	.L283:
 6049 0238 00000000 		.word	.LC0
 6050 023c 00300052 		.word	1375744000
 6051 0240 00300042 		.word	1107308544
 6052 0244 00380050 		.word	1342191616
 6053 0248 00380040 		.word	1073756160
 6054 024c 003C0050 		.word	1342192640
 6055 0250 003C0040 		.word	1073757184
 6056 0254 00140056 		.word	1442845696
 6057 0258 00140046 		.word	1174410240
 6058 025c 00000000 		.word	SPI_DMAHalfTransmitCplt
 6059 0260 00000000 		.word	SPI_DMATransmitCplt
 6060 0264 00000000 		.word	SPI_DMAError
 6061              	.L275:
2052:STM32Cube_FW_N6/Drivers/STM32N6xx_HAL_Driver/Src/stm32n6xx_hal_spi.c ****   }
2053:STM32Cube_FW_N6/Drivers/STM32N6xx_HAL_Driver/Src/stm32n6xx_hal_spi.c ****   else
2054:STM32Cube_FW_N6/Drivers/STM32N6xx_HAL_Driver/Src/stm32n6xx_hal_spi.c ****   {
2055:STM32Cube_FW_N6/Drivers/STM32N6xx_HAL_Driver/Src/stm32n6xx_hal_spi.c ****     hspi->TxXferCount = Size * 4U;
 6062              		.loc 1 2055 30
 6063 0268 FB88     		ldrh	r3, [r7, #6]	@ movhi
 6064 026a 9B00     		lsls	r3, r3, #2
 6065 026c 9AB2     		uxth	r2, r3
 6066              		.loc 1 2055 23
 6067 026e FB68     		ldr	r3, [r7, #12]
 6068 0270 A3F86A20 		strh	r2, [r3, #106]	@ movhi
 6069              	.L274:
2056:STM32Cube_FW_N6/Drivers/STM32N6xx_HAL_Driver/Src/stm32n6xx_hal_spi.c ****   }
2057:STM32Cube_FW_N6/Drivers/STM32N6xx_HAL_Driver/Src/stm32n6xx_hal_spi.c **** 
2058:STM32Cube_FW_N6/Drivers/STM32N6xx_HAL_Driver/Src/stm32n6xx_hal_spi.c ****   /* Enable the Tx DMA Stream/Channel */
2059:STM32Cube_FW_N6/Drivers/STM32N6xx_HAL_Driver/Src/stm32n6xx_hal_spi.c ****   if ((hspi->hdmatx->Mode & DMA_LINKEDLIST) == DMA_LINKEDLIST)
 6070              		.loc 1 2059 12
 6071 0274 FB68     		ldr	r3, [r7, #12]
ARM GAS  /tmp/ccwTXtVb.s 			page 144


 6072 0276 D3F88030 		ldr	r3, [r3, #128]
 6073              		.loc 1 2059 20
 6074 027a 1B6D     		ldr	r3, [r3, #80]
 6075              		.loc 1 2059 27
 6076 027c 03F08003 		and	r3, r3, #128
 6077              		.loc 1 2059 6
 6078 0280 002B     		cmp	r3, #0
 6079 0282 2DD0     		beq	.L276
2060:STM32Cube_FW_N6/Drivers/STM32N6xx_HAL_Driver/Src/stm32n6xx_hal_spi.c ****   {
2061:STM32Cube_FW_N6/Drivers/STM32N6xx_HAL_Driver/Src/stm32n6xx_hal_spi.c ****     if (hspi->hdmatx->LinkedListQueue != NULL)
 6080              		.loc 1 2061 13
 6081 0284 FB68     		ldr	r3, [r7, #12]
 6082 0286 D3F88030 		ldr	r3, [r3, #128]
 6083              		.loc 1 2061 21
 6084 028a 5B6F     		ldr	r3, [r3, #116]
 6085              		.loc 1 2061 8
 6086 028c 002B     		cmp	r3, #0
 6087 028e 24D0     		beq	.L277
2062:STM32Cube_FW_N6/Drivers/STM32N6xx_HAL_Driver/Src/stm32n6xx_hal_spi.c ****     {
2063:STM32Cube_FW_N6/Drivers/STM32N6xx_HAL_Driver/Src/stm32n6xx_hal_spi.c ****       /* Set DMA data size */
2064:STM32Cube_FW_N6/Drivers/STM32N6xx_HAL_Driver/Src/stm32n6xx_hal_spi.c ****       hspi->hdmatx->LinkedListQueue->Head->LinkRegisters[NODE_CBR1_DEFAULT_OFFSET] = hspi->TxXferCo
 6088              		.loc 1 2064 90
 6089 0290 FB68     		ldr	r3, [r7, #12]
 6090 0292 B3F86A30 		ldrh	r3, [r3, #106]	@ movhi
 6091 0296 9AB2     		uxth	r2, r3
 6092              		.loc 1 2064 11
 6093 0298 FB68     		ldr	r3, [r7, #12]
 6094 029a D3F88030 		ldr	r3, [r3, #128]
 6095              		.loc 1 2064 19
 6096 029e 5B6F     		ldr	r3, [r3, #116]
 6097              		.loc 1 2064 36
 6098 02a0 1B68     		ldr	r3, [r3]
 6099              		.loc 1 2064 84
 6100 02a2 9A60     		str	r2, [r3, #8]
2065:STM32Cube_FW_N6/Drivers/STM32N6xx_HAL_Driver/Src/stm32n6xx_hal_spi.c **** 
2066:STM32Cube_FW_N6/Drivers/STM32N6xx_HAL_Driver/Src/stm32n6xx_hal_spi.c ****       /* Set DMA source address */
2067:STM32Cube_FW_N6/Drivers/STM32N6xx_HAL_Driver/Src/stm32n6xx_hal_spi.c ****       hspi->hdmatx->LinkedListQueue->Head->LinkRegisters[NODE_CSAR_DEFAULT_OFFSET] = (uint32_t)hspi
 6101              		.loc 1 2067 100
 6102 02a4 FB68     		ldr	r3, [r7, #12]
 6103 02a6 5A6E     		ldr	r2, [r3, #100]
 6104              		.loc 1 2067 11
 6105 02a8 FB68     		ldr	r3, [r7, #12]
 6106 02aa D3F88030 		ldr	r3, [r3, #128]
 6107              		.loc 1 2067 19
 6108 02ae 5B6F     		ldr	r3, [r3, #116]
 6109              		.loc 1 2067 36
 6110 02b0 1B68     		ldr	r3, [r3]
 6111              		.loc 1 2067 84
 6112 02b2 DA60     		str	r2, [r3, #12]
2068:STM32Cube_FW_N6/Drivers/STM32N6xx_HAL_Driver/Src/stm32n6xx_hal_spi.c **** 
2069:STM32Cube_FW_N6/Drivers/STM32N6xx_HAL_Driver/Src/stm32n6xx_hal_spi.c ****       /* Set DMA destination address */
2070:STM32Cube_FW_N6/Drivers/STM32N6xx_HAL_Driver/Src/stm32n6xx_hal_spi.c ****       hspi->hdmatx->LinkedListQueue->Head->LinkRegisters[NODE_CDAR_DEFAULT_OFFSET] = (uint32_t)&hsp
 6113              		.loc 1 2070 101
 6114 02b4 FB68     		ldr	r3, [r7, #12]
 6115 02b6 1B68     		ldr	r3, [r3]
 6116              		.loc 1 2070 96
 6117 02b8 03F12002 		add	r2, r3, #32
ARM GAS  /tmp/ccwTXtVb.s 			page 145


 6118              		.loc 1 2070 11
 6119 02bc FB68     		ldr	r3, [r7, #12]
 6120 02be D3F88030 		ldr	r3, [r3, #128]
 6121              		.loc 1 2070 19
 6122 02c2 5B6F     		ldr	r3, [r3, #116]
 6123              		.loc 1 2070 36
 6124 02c4 1B68     		ldr	r3, [r3]
 6125              		.loc 1 2070 84
 6126 02c6 1A61     		str	r2, [r3, #16]
2071:STM32Cube_FW_N6/Drivers/STM32N6xx_HAL_Driver/Src/stm32n6xx_hal_spi.c **** 
2072:STM32Cube_FW_N6/Drivers/STM32N6xx_HAL_Driver/Src/stm32n6xx_hal_spi.c ****       status = HAL_DMAEx_List_Start_IT(hspi->hdmatx);
 6127              		.loc 1 2072 16
 6128 02c8 FB68     		ldr	r3, [r7, #12]
 6129 02ca D3F88030 		ldr	r3, [r3, #128]
 6130 02ce 1846     		mov	r0, r3
 6131 02d0 FFF7FEFF 		bl	HAL_DMAEx_List_Start_IT
 6132 02d4 0346     		mov	r3, r0
 6133 02d6 FB75     		strb	r3, [r7, #23]
 6134 02d8 14E0     		b	.L278
 6135              	.L277:
2073:STM32Cube_FW_N6/Drivers/STM32N6xx_HAL_Driver/Src/stm32n6xx_hal_spi.c ****     }
2074:STM32Cube_FW_N6/Drivers/STM32N6xx_HAL_Driver/Src/stm32n6xx_hal_spi.c ****     else
2075:STM32Cube_FW_N6/Drivers/STM32N6xx_HAL_Driver/Src/stm32n6xx_hal_spi.c ****     {
2076:STM32Cube_FW_N6/Drivers/STM32N6xx_HAL_Driver/Src/stm32n6xx_hal_spi.c ****       status = HAL_ERROR;
 6136              		.loc 1 2076 14
 6137 02da 0123     		movs	r3, #1
 6138 02dc FB75     		strb	r3, [r7, #23]
 6139 02de 11E0     		b	.L278
 6140              	.L276:
2077:STM32Cube_FW_N6/Drivers/STM32N6xx_HAL_Driver/Src/stm32n6xx_hal_spi.c ****     }
2078:STM32Cube_FW_N6/Drivers/STM32N6xx_HAL_Driver/Src/stm32n6xx_hal_spi.c ****   }
2079:STM32Cube_FW_N6/Drivers/STM32N6xx_HAL_Driver/Src/stm32n6xx_hal_spi.c ****   else
2080:STM32Cube_FW_N6/Drivers/STM32N6xx_HAL_Driver/Src/stm32n6xx_hal_spi.c ****   {
2081:STM32Cube_FW_N6/Drivers/STM32N6xx_HAL_Driver/Src/stm32n6xx_hal_spi.c ****     status = HAL_DMA_Start_IT(hspi->hdmatx, (uint32_t)hspi->pTxBuffPtr, (uint32_t)&hspi->Instance->
 6141              		.loc 1 2081 14
 6142 02e0 FB68     		ldr	r3, [r7, #12]
 6143 02e2 D3F88000 		ldr	r0, [r3, #128]
 6144              		.loc 1 2081 59
 6145 02e6 FB68     		ldr	r3, [r7, #12]
 6146 02e8 5B6E     		ldr	r3, [r3, #100]
 6147              		.loc 1 2081 14
 6148 02ea 1946     		mov	r1, r3
 6149              		.loc 1 2081 88
 6150 02ec FB68     		ldr	r3, [r7, #12]
 6151 02ee 1B68     		ldr	r3, [r3]
 6152              		.loc 1 2081 83
 6153 02f0 2033     		adds	r3, r3, #32
 6154              		.loc 1 2081 14
 6155 02f2 1A46     		mov	r2, r3
2082:STM32Cube_FW_N6/Drivers/STM32N6xx_HAL_Driver/Src/stm32n6xx_hal_spi.c ****                               hspi->TxXferCount);
 6156              		.loc 1 2082 35
 6157 02f4 FB68     		ldr	r3, [r7, #12]
 6158 02f6 B3F86A30 		ldrh	r3, [r3, #106]	@ movhi
 6159 02fa 9BB2     		uxth	r3, r3
2081:STM32Cube_FW_N6/Drivers/STM32N6xx_HAL_Driver/Src/stm32n6xx_hal_spi.c ****                               hspi->TxXferCount);
 6160              		.loc 1 2081 14
 6161 02fc FFF7FEFF 		bl	HAL_DMA_Start_IT
ARM GAS  /tmp/ccwTXtVb.s 			page 146


 6162 0300 0346     		mov	r3, r0
 6163 0302 FB75     		strb	r3, [r7, #23]
 6164              	.L278:
2083:STM32Cube_FW_N6/Drivers/STM32N6xx_HAL_Driver/Src/stm32n6xx_hal_spi.c ****   }
2084:STM32Cube_FW_N6/Drivers/STM32N6xx_HAL_Driver/Src/stm32n6xx_hal_spi.c **** 
2085:STM32Cube_FW_N6/Drivers/STM32N6xx_HAL_Driver/Src/stm32n6xx_hal_spi.c ****   /* Check status */
2086:STM32Cube_FW_N6/Drivers/STM32N6xx_HAL_Driver/Src/stm32n6xx_hal_spi.c ****   if (status != HAL_OK)
 6165              		.loc 1 2086 6
 6166 0304 FB7D     		ldrb	r3, [r7, #23]	@ zero_extendqisi2
 6167 0306 002B     		cmp	r3, #0
 6168 0308 11D0     		beq	.L279
2087:STM32Cube_FW_N6/Drivers/STM32N6xx_HAL_Driver/Src/stm32n6xx_hal_spi.c ****   {
2088:STM32Cube_FW_N6/Drivers/STM32N6xx_HAL_Driver/Src/stm32n6xx_hal_spi.c ****     /* Update SPI error code */
2089:STM32Cube_FW_N6/Drivers/STM32N6xx_HAL_Driver/Src/stm32n6xx_hal_spi.c ****     SET_BIT(hspi->ErrorCode, HAL_SPI_ERROR_DMA);
 6169              		.loc 1 2089 5
 6170 030a FB68     		ldr	r3, [r7, #12]
 6171 030c D3F88C30 		ldr	r3, [r3, #140]
 6172 0310 43F01002 		orr	r2, r3, #16
 6173 0314 FB68     		ldr	r3, [r7, #12]
 6174 0316 C3F88C20 		str	r2, [r3, #140]
2090:STM32Cube_FW_N6/Drivers/STM32N6xx_HAL_Driver/Src/stm32n6xx_hal_spi.c ****     hspi->State = HAL_SPI_STATE_READY;
 6175              		.loc 1 2090 17
 6176 031a FB68     		ldr	r3, [r7, #12]
 6177 031c 0122     		movs	r2, #1
 6178 031e 83F88920 		strb	r2, [r3, #137]
2091:STM32Cube_FW_N6/Drivers/STM32N6xx_HAL_Driver/Src/stm32n6xx_hal_spi.c **** 
2092:STM32Cube_FW_N6/Drivers/STM32N6xx_HAL_Driver/Src/stm32n6xx_hal_spi.c ****     /* Unlock the process */
2093:STM32Cube_FW_N6/Drivers/STM32N6xx_HAL_Driver/Src/stm32n6xx_hal_spi.c ****     __HAL_UNLOCK(hspi);
 6179              		.loc 1 2093 5
 6180 0322 FB68     		ldr	r3, [r7, #12]
 6181 0324 0022     		movs	r2, #0
 6182 0326 83F88820 		strb	r2, [r3, #136]
2094:STM32Cube_FW_N6/Drivers/STM32N6xx_HAL_Driver/Src/stm32n6xx_hal_spi.c **** 
2095:STM32Cube_FW_N6/Drivers/STM32N6xx_HAL_Driver/Src/stm32n6xx_hal_spi.c ****     return HAL_ERROR;
 6183              		.loc 1 2095 12
 6184 032a 0123     		movs	r3, #1
 6185 032c 42E0     		b	.L261
 6186              	.L279:
2096:STM32Cube_FW_N6/Drivers/STM32N6xx_HAL_Driver/Src/stm32n6xx_hal_spi.c ****   }
2097:STM32Cube_FW_N6/Drivers/STM32N6xx_HAL_Driver/Src/stm32n6xx_hal_spi.c **** 
2098:STM32Cube_FW_N6/Drivers/STM32N6xx_HAL_Driver/Src/stm32n6xx_hal_spi.c ****   /* Set the number of data at current transfer */
2099:STM32Cube_FW_N6/Drivers/STM32N6xx_HAL_Driver/Src/stm32n6xx_hal_spi.c ****   if (hspi->hdmatx->Mode == DMA_LINKEDLIST_CIRCULAR)
 6187              		.loc 1 2099 11
 6188 032e FB68     		ldr	r3, [r7, #12]
 6189 0330 D3F88030 		ldr	r3, [r3, #128]
 6190              		.loc 1 2099 19
 6191 0334 1B6D     		ldr	r3, [r3, #80]
 6192              		.loc 1 2099 6
 6193 0336 812B     		cmp	r3, #129
 6194 0338 08D1     		bne	.L280
2100:STM32Cube_FW_N6/Drivers/STM32N6xx_HAL_Driver/Src/stm32n6xx_hal_spi.c ****   {
2101:STM32Cube_FW_N6/Drivers/STM32N6xx_HAL_Driver/Src/stm32n6xx_hal_spi.c ****     MODIFY_REG(hspi->Instance->CR2, SPI_CR2_TSIZE, 0UL);
 6195              		.loc 1 2101 5
 6196 033a FB68     		ldr	r3, [r7, #12]
 6197 033c 1B68     		ldr	r3, [r3]
 6198 033e 5B68     		ldr	r3, [r3, #4]
 6199 0340 FA68     		ldr	r2, [r7, #12]
ARM GAS  /tmp/ccwTXtVb.s 			page 147


 6200 0342 1268     		ldr	r2, [r2]
 6201 0344 1B0C     		lsrs	r3, r3, #16
 6202 0346 1B04     		lsls	r3, r3, #16
 6203 0348 5360     		str	r3, [r2, #4]
 6204 034a 09E0     		b	.L281
 6205              	.L280:
2102:STM32Cube_FW_N6/Drivers/STM32N6xx_HAL_Driver/Src/stm32n6xx_hal_spi.c ****   }
2103:STM32Cube_FW_N6/Drivers/STM32N6xx_HAL_Driver/Src/stm32n6xx_hal_spi.c ****   else
2104:STM32Cube_FW_N6/Drivers/STM32N6xx_HAL_Driver/Src/stm32n6xx_hal_spi.c ****   {
2105:STM32Cube_FW_N6/Drivers/STM32N6xx_HAL_Driver/Src/stm32n6xx_hal_spi.c ****     MODIFY_REG(hspi->Instance->CR2, SPI_CR2_TSIZE, Size);
 6206              		.loc 1 2105 5
 6207 034c FB68     		ldr	r3, [r7, #12]
 6208 034e 1B68     		ldr	r3, [r3]
 6209 0350 5B68     		ldr	r3, [r3, #4]
 6210 0352 1B0C     		lsrs	r3, r3, #16
 6211 0354 1B04     		lsls	r3, r3, #16
 6212 0356 F988     		ldrh	r1, [r7, #6]
 6213 0358 FA68     		ldr	r2, [r7, #12]
 6214 035a 1268     		ldr	r2, [r2]
 6215 035c 0B43     		orrs	r3, r3, r1
 6216 035e 5360     		str	r3, [r2, #4]
 6217              	.L281:
2106:STM32Cube_FW_N6/Drivers/STM32N6xx_HAL_Driver/Src/stm32n6xx_hal_spi.c ****   }
2107:STM32Cube_FW_N6/Drivers/STM32N6xx_HAL_Driver/Src/stm32n6xx_hal_spi.c **** 
2108:STM32Cube_FW_N6/Drivers/STM32N6xx_HAL_Driver/Src/stm32n6xx_hal_spi.c ****   /* Enable Tx DMA Request */
2109:STM32Cube_FW_N6/Drivers/STM32N6xx_HAL_Driver/Src/stm32n6xx_hal_spi.c ****   SET_BIT(hspi->Instance->CFG1, SPI_CFG1_TXDMAEN);
 6218              		.loc 1 2109 3
 6219 0360 FB68     		ldr	r3, [r7, #12]
 6220 0362 1B68     		ldr	r3, [r3]
 6221 0364 9A68     		ldr	r2, [r3, #8]
 6222 0366 FB68     		ldr	r3, [r7, #12]
 6223 0368 1B68     		ldr	r3, [r3]
 6224 036a 42F40042 		orr	r2, r2, #32768
 6225 036e 9A60     		str	r2, [r3, #8]
2110:STM32Cube_FW_N6/Drivers/STM32N6xx_HAL_Driver/Src/stm32n6xx_hal_spi.c **** 
2111:STM32Cube_FW_N6/Drivers/STM32N6xx_HAL_Driver/Src/stm32n6xx_hal_spi.c ****   /* Enable the SPI Error Interrupt Bit */
2112:STM32Cube_FW_N6/Drivers/STM32N6xx_HAL_Driver/Src/stm32n6xx_hal_spi.c ****   __HAL_SPI_ENABLE_IT(hspi, (SPI_IT_UDR | SPI_IT_FRE | SPI_IT_MODF));
 6226              		.loc 1 2112 3
 6227 0370 FB68     		ldr	r3, [r7, #12]
 6228 0372 1B68     		ldr	r3, [r3]
 6229 0374 1A69     		ldr	r2, [r3, #16]
 6230 0376 FB68     		ldr	r3, [r7, #12]
 6231 0378 1B68     		ldr	r3, [r3]
 6232 037a 42F44872 		orr	r2, r2, #800
 6233 037e 1A61     		str	r2, [r3, #16]
2113:STM32Cube_FW_N6/Drivers/STM32N6xx_HAL_Driver/Src/stm32n6xx_hal_spi.c **** 
2114:STM32Cube_FW_N6/Drivers/STM32N6xx_HAL_Driver/Src/stm32n6xx_hal_spi.c ****   /* Enable SPI peripheral */
2115:STM32Cube_FW_N6/Drivers/STM32N6xx_HAL_Driver/Src/stm32n6xx_hal_spi.c ****   __HAL_SPI_ENABLE(hspi);
 6234              		.loc 1 2115 3
 6235 0380 FB68     		ldr	r3, [r7, #12]
 6236 0382 1B68     		ldr	r3, [r3]
 6237 0384 1A68     		ldr	r2, [r3]
 6238 0386 FB68     		ldr	r3, [r7, #12]
 6239 0388 1B68     		ldr	r3, [r3]
 6240 038a 42F00102 		orr	r2, r2, #1
 6241 038e 1A60     		str	r2, [r3]
2116:STM32Cube_FW_N6/Drivers/STM32N6xx_HAL_Driver/Src/stm32n6xx_hal_spi.c **** 
ARM GAS  /tmp/ccwTXtVb.s 			page 148


2117:STM32Cube_FW_N6/Drivers/STM32N6xx_HAL_Driver/Src/stm32n6xx_hal_spi.c ****   if (hspi->Init.Mode == SPI_MODE_MASTER)
 6242              		.loc 1 2117 17
 6243 0390 FB68     		ldr	r3, [r7, #12]
 6244 0392 5B68     		ldr	r3, [r3, #4]
 6245              		.loc 1 2117 6
 6246 0394 B3F5800F 		cmp	r3, #4194304
 6247 0398 07D1     		bne	.L282
2118:STM32Cube_FW_N6/Drivers/STM32N6xx_HAL_Driver/Src/stm32n6xx_hal_spi.c ****   {
2119:STM32Cube_FW_N6/Drivers/STM32N6xx_HAL_Driver/Src/stm32n6xx_hal_spi.c ****     /* Master transfer start */
2120:STM32Cube_FW_N6/Drivers/STM32N6xx_HAL_Driver/Src/stm32n6xx_hal_spi.c ****     SET_BIT(hspi->Instance->CR1, SPI_CR1_CSTART);
 6248              		.loc 1 2120 5
 6249 039a FB68     		ldr	r3, [r7, #12]
 6250 039c 1B68     		ldr	r3, [r3]
 6251 039e 1A68     		ldr	r2, [r3]
 6252 03a0 FB68     		ldr	r3, [r7, #12]
 6253 03a2 1B68     		ldr	r3, [r3]
 6254 03a4 42F40072 		orr	r2, r2, #512
 6255 03a8 1A60     		str	r2, [r3]
 6256              	.L282:
2121:STM32Cube_FW_N6/Drivers/STM32N6xx_HAL_Driver/Src/stm32n6xx_hal_spi.c ****   }
2122:STM32Cube_FW_N6/Drivers/STM32N6xx_HAL_Driver/Src/stm32n6xx_hal_spi.c **** 
2123:STM32Cube_FW_N6/Drivers/STM32N6xx_HAL_Driver/Src/stm32n6xx_hal_spi.c ****   /* Unlock the process */
2124:STM32Cube_FW_N6/Drivers/STM32N6xx_HAL_Driver/Src/stm32n6xx_hal_spi.c ****   __HAL_UNLOCK(hspi);
 6257              		.loc 1 2124 3
 6258 03aa FB68     		ldr	r3, [r7, #12]
 6259 03ac 0022     		movs	r2, #0
 6260 03ae 83F88820 		strb	r2, [r3, #136]
2125:STM32Cube_FW_N6/Drivers/STM32N6xx_HAL_Driver/Src/stm32n6xx_hal_spi.c **** 
2126:STM32Cube_FW_N6/Drivers/STM32N6xx_HAL_Driver/Src/stm32n6xx_hal_spi.c ****   return HAL_OK;
 6261              		.loc 1 2126 10
 6262 03b2 0023     		movs	r3, #0
 6263              	.L261:
2127:STM32Cube_FW_N6/Drivers/STM32N6xx_HAL_Driver/Src/stm32n6xx_hal_spi.c **** }
 6264              		.loc 1 2127 1
 6265 03b4 1846     		mov	r0, r3
 6266 03b6 1837     		adds	r7, r7, #24
 6267              		.cfi_def_cfa_offset 8
 6268 03b8 BD46     		mov	sp, r7
 6269              		.cfi_def_cfa_register 13
 6270              		@ sp needed
 6271 03ba 80BD     		pop	{r7, pc}
 6272              		.cfi_endproc
 6273              	.LFE845:
 6275              		.section	.text.HAL_SPI_Receive_DMA,"ax",%progbits
 6276              		.align	1
 6277              		.global	HAL_SPI_Receive_DMA
 6278              		.syntax unified
 6279              		.thumb
 6280              		.thumb_func
 6282              	HAL_SPI_Receive_DMA:
 6283              	.LFB846:
2128:STM32Cube_FW_N6/Drivers/STM32N6xx_HAL_Driver/Src/stm32n6xx_hal_spi.c **** 
2129:STM32Cube_FW_N6/Drivers/STM32N6xx_HAL_Driver/Src/stm32n6xx_hal_spi.c **** /**
2130:STM32Cube_FW_N6/Drivers/STM32N6xx_HAL_Driver/Src/stm32n6xx_hal_spi.c ****   * @brief  Receive an amount of data in non-blocking mode with DMA.
2131:STM32Cube_FW_N6/Drivers/STM32N6xx_HAL_Driver/Src/stm32n6xx_hal_spi.c ****   * @param  hspi : pointer to a SPI_HandleTypeDef structure that contains
2132:STM32Cube_FW_N6/Drivers/STM32N6xx_HAL_Driver/Src/stm32n6xx_hal_spi.c ****   *                the configuration information for SPI module.
2133:STM32Cube_FW_N6/Drivers/STM32N6xx_HAL_Driver/Src/stm32n6xx_hal_spi.c ****   * @param  pData: pointer to data buffer
ARM GAS  /tmp/ccwTXtVb.s 			page 149


2134:STM32Cube_FW_N6/Drivers/STM32N6xx_HAL_Driver/Src/stm32n6xx_hal_spi.c ****   * @param  Size : amount of data to be sent
2135:STM32Cube_FW_N6/Drivers/STM32N6xx_HAL_Driver/Src/stm32n6xx_hal_spi.c ****   * @note   When the CRC feature is enabled the pData Length must be Size + 1.
2136:STM32Cube_FW_N6/Drivers/STM32N6xx_HAL_Driver/Src/stm32n6xx_hal_spi.c ****   * @retval HAL status
2137:STM32Cube_FW_N6/Drivers/STM32N6xx_HAL_Driver/Src/stm32n6xx_hal_spi.c ****   */
2138:STM32Cube_FW_N6/Drivers/STM32N6xx_HAL_Driver/Src/stm32n6xx_hal_spi.c **** HAL_StatusTypeDef HAL_SPI_Receive_DMA(SPI_HandleTypeDef *hspi, uint8_t *pData, uint16_t Size)
2139:STM32Cube_FW_N6/Drivers/STM32N6xx_HAL_Driver/Src/stm32n6xx_hal_spi.c **** {
 6284              		.loc 1 2139 1
 6285              		.cfi_startproc
 6286              		@ args = 0, pretend = 0, frame = 24
 6287              		@ frame_needed = 1, uses_anonymous_args = 0
 6288 0000 80B5     		push	{r7, lr}
 6289              		.cfi_def_cfa_offset 8
 6290              		.cfi_offset 7, -8
 6291              		.cfi_offset 14, -4
 6292 0002 86B0     		sub	sp, sp, #24
 6293              		.cfi_def_cfa_offset 32
 6294 0004 00AF     		add	r7, sp, #0
 6295              		.cfi_def_cfa_register 7
 6296 0006 F860     		str	r0, [r7, #12]
 6297 0008 B960     		str	r1, [r7, #8]
 6298 000a 1346     		mov	r3, r2
 6299 000c FB80     		strh	r3, [r7, #6]	@ movhi
2140:STM32Cube_FW_N6/Drivers/STM32N6xx_HAL_Driver/Src/stm32n6xx_hal_spi.c ****   HAL_StatusTypeDef status;
2141:STM32Cube_FW_N6/Drivers/STM32N6xx_HAL_Driver/Src/stm32n6xx_hal_spi.c **** 
2142:STM32Cube_FW_N6/Drivers/STM32N6xx_HAL_Driver/Src/stm32n6xx_hal_spi.c ****   /* Check Direction parameter */
2143:STM32Cube_FW_N6/Drivers/STM32N6xx_HAL_Driver/Src/stm32n6xx_hal_spi.c ****   assert_param(IS_SPI_DIRECTION_2LINES_OR_1LINE_2LINES_RXONLY(hspi->Init.Direction));
 6300              		.loc 1 2143 3
 6301 000e FB68     		ldr	r3, [r7, #12]
 6302 0010 9B68     		ldr	r3, [r3, #8]
 6303 0012 002B     		cmp	r3, #0
 6304 0014 0ED0     		beq	.L286
 6305              		.loc 1 2143 3 is_stmt 0 discriminator 1
 6306 0016 FB68     		ldr	r3, [r7, #12]
 6307 0018 9B68     		ldr	r3, [r3, #8]
 6308 001a B3F5C02F 		cmp	r3, #393216
 6309 001e 09D0     		beq	.L286
 6310              		.loc 1 2143 3 discriminator 2
 6311 0020 FB68     		ldr	r3, [r7, #12]
 6312 0022 9B68     		ldr	r3, [r3, #8]
 6313 0024 B3F5802F 		cmp	r3, #262144
 6314 0028 04D0     		beq	.L286
 6315              		.loc 1 2143 3 discriminator 3
 6316 002a 40F65F01 		movw	r1, #2143
 6317 002e 8748     		ldr	r0, .L310
 6318 0030 FFF7FEFF 		bl	assert_failed
 6319              	.L286:
2144:STM32Cube_FW_N6/Drivers/STM32N6xx_HAL_Driver/Src/stm32n6xx_hal_spi.c **** 
2145:STM32Cube_FW_N6/Drivers/STM32N6xx_HAL_Driver/Src/stm32n6xx_hal_spi.c **** 
2146:STM32Cube_FW_N6/Drivers/STM32N6xx_HAL_Driver/Src/stm32n6xx_hal_spi.c ****   if (hspi->State != HAL_SPI_STATE_READY)
 6320              		.loc 1 2146 11 is_stmt 1
 6321 0034 FB68     		ldr	r3, [r7, #12]
 6322 0036 93F88930 		ldrb	r3, [r3, #137]
 6323 003a DBB2     		uxtb	r3, r3
 6324              		.loc 1 2146 6
 6325 003c 012B     		cmp	r3, #1
 6326 003e 05D0     		beq	.L287
2147:STM32Cube_FW_N6/Drivers/STM32N6xx_HAL_Driver/Src/stm32n6xx_hal_spi.c ****   {
ARM GAS  /tmp/ccwTXtVb.s 			page 150


2148:STM32Cube_FW_N6/Drivers/STM32N6xx_HAL_Driver/Src/stm32n6xx_hal_spi.c ****     __HAL_UNLOCK(hspi);
 6327              		.loc 1 2148 5
 6328 0040 FB68     		ldr	r3, [r7, #12]
 6329 0042 0022     		movs	r2, #0
 6330 0044 83F88820 		strb	r2, [r3, #136]
2149:STM32Cube_FW_N6/Drivers/STM32N6xx_HAL_Driver/Src/stm32n6xx_hal_spi.c ****     return HAL_BUSY;
 6331              		.loc 1 2149 12
 6332 0048 0223     		movs	r3, #2
 6333 004a BDE1     		b	.L288
 6334              	.L287:
2150:STM32Cube_FW_N6/Drivers/STM32N6xx_HAL_Driver/Src/stm32n6xx_hal_spi.c ****   }
2151:STM32Cube_FW_N6/Drivers/STM32N6xx_HAL_Driver/Src/stm32n6xx_hal_spi.c **** 
2152:STM32Cube_FW_N6/Drivers/STM32N6xx_HAL_Driver/Src/stm32n6xx_hal_spi.c ****   if ((pData == NULL) || (Size == 0UL))
 6335              		.loc 1 2152 6
 6336 004c BB68     		ldr	r3, [r7, #8]
 6337 004e 002B     		cmp	r3, #0
 6338 0050 02D0     		beq	.L289
 6339              		.loc 1 2152 23 discriminator 1
 6340 0052 FB88     		ldrh	r3, [r7, #6]
 6341 0054 002B     		cmp	r3, #0
 6342 0056 05D1     		bne	.L290
 6343              	.L289:
2153:STM32Cube_FW_N6/Drivers/STM32N6xx_HAL_Driver/Src/stm32n6xx_hal_spi.c ****   {
2154:STM32Cube_FW_N6/Drivers/STM32N6xx_HAL_Driver/Src/stm32n6xx_hal_spi.c ****     __HAL_UNLOCK(hspi);
 6344              		.loc 1 2154 5
 6345 0058 FB68     		ldr	r3, [r7, #12]
 6346 005a 0022     		movs	r2, #0
 6347 005c 83F88820 		strb	r2, [r3, #136]
2155:STM32Cube_FW_N6/Drivers/STM32N6xx_HAL_Driver/Src/stm32n6xx_hal_spi.c ****     return HAL_ERROR;
 6348              		.loc 1 2155 12
 6349 0060 0123     		movs	r3, #1
 6350 0062 B1E1     		b	.L288
 6351              	.L290:
2156:STM32Cube_FW_N6/Drivers/STM32N6xx_HAL_Driver/Src/stm32n6xx_hal_spi.c ****   }
2157:STM32Cube_FW_N6/Drivers/STM32N6xx_HAL_Driver/Src/stm32n6xx_hal_spi.c **** 
2158:STM32Cube_FW_N6/Drivers/STM32N6xx_HAL_Driver/Src/stm32n6xx_hal_spi.c ****   /* Lock the process */
2159:STM32Cube_FW_N6/Drivers/STM32N6xx_HAL_Driver/Src/stm32n6xx_hal_spi.c ****   __HAL_LOCK(hspi);
 6352              		.loc 1 2159 3
 6353 0064 FB68     		ldr	r3, [r7, #12]
 6354 0066 93F88830 		ldrb	r3, [r3, #136]	@ zero_extendqisi2
 6355 006a 012B     		cmp	r3, #1
 6356 006c 01D1     		bne	.L291
 6357              		.loc 1 2159 3 is_stmt 0 discriminator 1
 6358 006e 0223     		movs	r3, #2
 6359              		.loc 1 2159 3
 6360 0070 AAE1     		b	.L288
 6361              	.L291:
 6362              		.loc 1 2159 3 discriminator 2
 6363 0072 FB68     		ldr	r3, [r7, #12]
 6364 0074 0122     		movs	r2, #1
 6365 0076 83F88820 		strb	r2, [r3, #136]
2160:STM32Cube_FW_N6/Drivers/STM32N6xx_HAL_Driver/Src/stm32n6xx_hal_spi.c **** 
2161:STM32Cube_FW_N6/Drivers/STM32N6xx_HAL_Driver/Src/stm32n6xx_hal_spi.c ****   /* Set the transaction information */
2162:STM32Cube_FW_N6/Drivers/STM32N6xx_HAL_Driver/Src/stm32n6xx_hal_spi.c ****   hspi->State       = HAL_SPI_STATE_BUSY_RX;
 6366              		.loc 1 2162 21 is_stmt 1
 6367 007a FB68     		ldr	r3, [r7, #12]
 6368 007c 0422     		movs	r2, #4
ARM GAS  /tmp/ccwTXtVb.s 			page 151


 6369 007e 83F88920 		strb	r2, [r3, #137]
2163:STM32Cube_FW_N6/Drivers/STM32N6xx_HAL_Driver/Src/stm32n6xx_hal_spi.c ****   hspi->ErrorCode   = HAL_SPI_ERROR_NONE;
 6370              		.loc 1 2163 21
 6371 0082 FB68     		ldr	r3, [r7, #12]
 6372 0084 0022     		movs	r2, #0
 6373 0086 C3F88C20 		str	r2, [r3, #140]
2164:STM32Cube_FW_N6/Drivers/STM32N6xx_HAL_Driver/Src/stm32n6xx_hal_spi.c ****   hspi->pRxBuffPtr  = (uint8_t *)pData;
 6374              		.loc 1 2164 21
 6375 008a FB68     		ldr	r3, [r7, #12]
 6376 008c BA68     		ldr	r2, [r7, #8]
 6377 008e DA66     		str	r2, [r3, #108]
2165:STM32Cube_FW_N6/Drivers/STM32N6xx_HAL_Driver/Src/stm32n6xx_hal_spi.c ****   hspi->RxXferSize  = Size;
 6378              		.loc 1 2165 21
 6379 0090 FB68     		ldr	r3, [r7, #12]
 6380 0092 FA88     		ldrh	r2, [r7, #6]	@ movhi
 6381 0094 A3F87020 		strh	r2, [r3, #112]	@ movhi
2166:STM32Cube_FW_N6/Drivers/STM32N6xx_HAL_Driver/Src/stm32n6xx_hal_spi.c ****   hspi->RxXferCount = Size;
 6382              		.loc 1 2166 21
 6383 0098 FB68     		ldr	r3, [r7, #12]
 6384 009a FA88     		ldrh	r2, [r7, #6]	@ movhi
 6385 009c A3F87220 		strh	r2, [r3, #114]	@ movhi
2167:STM32Cube_FW_N6/Drivers/STM32N6xx_HAL_Driver/Src/stm32n6xx_hal_spi.c **** 
2168:STM32Cube_FW_N6/Drivers/STM32N6xx_HAL_Driver/Src/stm32n6xx_hal_spi.c ****   /*Init field not used in handle to zero */
2169:STM32Cube_FW_N6/Drivers/STM32N6xx_HAL_Driver/Src/stm32n6xx_hal_spi.c ****   hspi->RxISR       = NULL;
 6386              		.loc 1 2169 21
 6387 00a0 FB68     		ldr	r3, [r7, #12]
 6388 00a2 0022     		movs	r2, #0
 6389 00a4 9A67     		str	r2, [r3, #120]
2170:STM32Cube_FW_N6/Drivers/STM32N6xx_HAL_Driver/Src/stm32n6xx_hal_spi.c ****   hspi->TxISR       = NULL;
 6390              		.loc 1 2170 21
 6391 00a6 FB68     		ldr	r3, [r7, #12]
 6392 00a8 0022     		movs	r2, #0
 6393 00aa DA67     		str	r2, [r3, #124]
2171:STM32Cube_FW_N6/Drivers/STM32N6xx_HAL_Driver/Src/stm32n6xx_hal_spi.c ****   hspi->TxXferSize  = (uint16_t) 0UL;
 6394              		.loc 1 2171 21
 6395 00ac FB68     		ldr	r3, [r7, #12]
 6396 00ae 0022     		movs	r2, #0
 6397 00b0 A3F86820 		strh	r2, [r3, #104]	@ movhi
2172:STM32Cube_FW_N6/Drivers/STM32N6xx_HAL_Driver/Src/stm32n6xx_hal_spi.c ****   hspi->TxXferCount = (uint16_t) 0UL;
 6398              		.loc 1 2172 21
 6399 00b4 FB68     		ldr	r3, [r7, #12]
 6400 00b6 0022     		movs	r2, #0
 6401 00b8 A3F86A20 		strh	r2, [r3, #106]	@ movhi
2173:STM32Cube_FW_N6/Drivers/STM32N6xx_HAL_Driver/Src/stm32n6xx_hal_spi.c **** 
2174:STM32Cube_FW_N6/Drivers/STM32N6xx_HAL_Driver/Src/stm32n6xx_hal_spi.c ****   /* Configure communication direction : 1Line */
2175:STM32Cube_FW_N6/Drivers/STM32N6xx_HAL_Driver/Src/stm32n6xx_hal_spi.c ****   if (hspi->Init.Direction == SPI_DIRECTION_1LINE)
 6402              		.loc 1 2175 17
 6403 00bc FB68     		ldr	r3, [r7, #12]
 6404 00be 9B68     		ldr	r3, [r3, #8]
 6405              		.loc 1 2175 6
 6406 00c0 B3F5C02F 		cmp	r3, #393216
 6407 00c4 08D1     		bne	.L292
2176:STM32Cube_FW_N6/Drivers/STM32N6xx_HAL_Driver/Src/stm32n6xx_hal_spi.c ****   {
2177:STM32Cube_FW_N6/Drivers/STM32N6xx_HAL_Driver/Src/stm32n6xx_hal_spi.c ****     SPI_1LINE_RX(hspi);
 6408              		.loc 1 2177 5
 6409 00c6 FB68     		ldr	r3, [r7, #12]
 6410 00c8 1B68     		ldr	r3, [r3]
ARM GAS  /tmp/ccwTXtVb.s 			page 152


 6411 00ca 1A68     		ldr	r2, [r3]
 6412 00cc FB68     		ldr	r3, [r7, #12]
 6413 00ce 1B68     		ldr	r3, [r3]
 6414 00d0 22F40062 		bic	r2, r2, #2048
 6415 00d4 1A60     		str	r2, [r3]
 6416 00d6 09E0     		b	.L293
 6417              	.L292:
2178:STM32Cube_FW_N6/Drivers/STM32N6xx_HAL_Driver/Src/stm32n6xx_hal_spi.c ****   }
2179:STM32Cube_FW_N6/Drivers/STM32N6xx_HAL_Driver/Src/stm32n6xx_hal_spi.c ****   else
2180:STM32Cube_FW_N6/Drivers/STM32N6xx_HAL_Driver/Src/stm32n6xx_hal_spi.c ****   {
2181:STM32Cube_FW_N6/Drivers/STM32N6xx_HAL_Driver/Src/stm32n6xx_hal_spi.c ****     SPI_2LINES_RX(hspi);
 6418              		.loc 1 2181 5
 6419 00d8 FB68     		ldr	r3, [r7, #12]
 6420 00da 1B68     		ldr	r3, [r3]
 6421 00dc DB68     		ldr	r3, [r3, #12]
 6422 00de 23F4C022 		bic	r2, r3, #393216
 6423 00e2 FB68     		ldr	r3, [r7, #12]
 6424 00e4 1B68     		ldr	r3, [r3]
 6425 00e6 42F48022 		orr	r2, r2, #262144
 6426 00ea DA60     		str	r2, [r3, #12]
 6427              	.L293:
2182:STM32Cube_FW_N6/Drivers/STM32N6xx_HAL_Driver/Src/stm32n6xx_hal_spi.c ****   }
2183:STM32Cube_FW_N6/Drivers/STM32N6xx_HAL_Driver/Src/stm32n6xx_hal_spi.c **** 
2184:STM32Cube_FW_N6/Drivers/STM32N6xx_HAL_Driver/Src/stm32n6xx_hal_spi.c ****   /* Packing mode management is enabled by the DMA settings */
2185:STM32Cube_FW_N6/Drivers/STM32N6xx_HAL_Driver/Src/stm32n6xx_hal_spi.c ****   if (((hspi->Init.DataSize > SPI_DATASIZE_16BIT) && (hspi->hdmarx->Init.DestDataWidth != DMA_DEST_
 6428              		.loc 1 2185 19
 6429 00ec FB68     		ldr	r3, [r7, #12]
 6430 00ee DB68     		ldr	r3, [r3, #12]
 6431              		.loc 1 2185 6
 6432 00f0 0F2B     		cmp	r3, #15
 6433 00f2 2ED9     		bls	.L294
 6434              		.loc 1 2185 59 discriminator 1
 6435 00f4 FB68     		ldr	r3, [r7, #12]
 6436 00f6 D3F88430 		ldr	r3, [r3, #132]
 6437              		.loc 1 2185 73 discriminator 1
 6438 00fa DB69     		ldr	r3, [r3, #28]
 6439              		.loc 1 2185 51 discriminator 1
 6440 00fc B3F5003F 		cmp	r3, #131072
 6441 0100 27D0     		beq	.L294
2186:STM32Cube_FW_N6/Drivers/STM32N6xx_HAL_Driver/Src/stm32n6xx_hal_spi.c ****        (IS_SPI_FULL_INSTANCE(hspi->Instance))) || \
 6442              		.loc 1 2186 9
 6443 0102 FB68     		ldr	r3, [r7, #12]
 6444 0104 1B68     		ldr	r3, [r3]
2185:STM32Cube_FW_N6/Drivers/STM32N6xx_HAL_Driver/Src/stm32n6xx_hal_spi.c ****        (IS_SPI_FULL_INSTANCE(hspi->Instance))) || \
 6445              		.loc 1 2185 116 discriminator 2
 6446 0106 524A     		ldr	r2, .L310+4
 6447 0108 9342     		cmp	r3, r2
 6448 010a 2CD0     		beq	.L295
 6449              		.loc 1 2186 9
 6450 010c FB68     		ldr	r3, [r7, #12]
 6451 010e 1B68     		ldr	r3, [r3]
 6452 0110 504A     		ldr	r2, .L310+8
 6453 0112 9342     		cmp	r3, r2
 6454 0114 27D0     		beq	.L295
 6455              		.loc 1 2186 9 is_stmt 0 discriminator 1
 6456 0116 FB68     		ldr	r3, [r7, #12]
 6457 0118 1B68     		ldr	r3, [r3]
ARM GAS  /tmp/ccwTXtVb.s 			page 153


 6458 011a 4F4A     		ldr	r2, .L310+12
 6459 011c 9342     		cmp	r3, r2
 6460 011e 22D0     		beq	.L295
 6461              		.loc 1 2186 9 discriminator 2
 6462 0120 FB68     		ldr	r3, [r7, #12]
 6463 0122 1B68     		ldr	r3, [r3]
 6464 0124 4D4A     		ldr	r2, .L310+16
 6465 0126 9342     		cmp	r3, r2
 6466 0128 1DD0     		beq	.L295
 6467              		.loc 1 2186 9 discriminator 3
 6468 012a FB68     		ldr	r3, [r7, #12]
 6469 012c 1B68     		ldr	r3, [r3]
 6470 012e 4C4A     		ldr	r2, .L310+20
 6471 0130 9342     		cmp	r3, r2
 6472 0132 18D0     		beq	.L295
 6473              		.loc 1 2186 9 discriminator 4
 6474 0134 FB68     		ldr	r3, [r7, #12]
 6475 0136 1B68     		ldr	r3, [r3]
 6476 0138 4A4A     		ldr	r2, .L310+24
 6477 013a 9342     		cmp	r3, r2
 6478 013c 13D0     		beq	.L295
 6479              		.loc 1 2186 9 discriminator 5
 6480 013e FB68     		ldr	r3, [r7, #12]
 6481 0140 1B68     		ldr	r3, [r3]
 6482 0142 494A     		ldr	r2, .L310+28
 6483 0144 9342     		cmp	r3, r2
 6484 0146 0ED0     		beq	.L295
 6485              		.loc 1 2186 9 discriminator 6
 6486 0148 FB68     		ldr	r3, [r7, #12]
 6487 014a 1B68     		ldr	r3, [r3]
 6488 014c 474A     		ldr	r2, .L310+32
 6489 014e 9342     		cmp	r3, r2
 6490 0150 09D0     		beq	.L295
 6491              	.L294:
2187:STM32Cube_FW_N6/Drivers/STM32N6xx_HAL_Driver/Src/stm32n6xx_hal_spi.c ****       ((hspi->Init.DataSize > SPI_DATASIZE_8BIT)  && (hspi->hdmarx->Init.DestDataWidth == DMA_DEST_
 6492              		.loc 1 2187 19 is_stmt 1
 6493 0152 FB68     		ldr	r3, [r7, #12]
 6494 0154 DB68     		ldr	r3, [r3, #12]
2186:STM32Cube_FW_N6/Drivers/STM32N6xx_HAL_Driver/Src/stm32n6xx_hal_spi.c ****        (IS_SPI_FULL_INSTANCE(hspi->Instance))) || \
 6495              		.loc 1 2186 48 discriminator 7
 6496 0156 072B     		cmp	r3, #7
 6497 0158 0BD9     		bls	.L296
 6498              		.loc 1 2187 59
 6499 015a FB68     		ldr	r3, [r7, #12]
 6500 015c D3F88430 		ldr	r3, [r3, #132]
 6501              		.loc 1 2187 73
 6502 0160 DB69     		ldr	r3, [r3, #28]
 6503              		.loc 1 2187 51
 6504 0162 002B     		cmp	r3, #0
 6505 0164 05D1     		bne	.L296
 6506              	.L295:
2188:STM32Cube_FW_N6/Drivers/STM32N6xx_HAL_Driver/Src/stm32n6xx_hal_spi.c ****   {
2189:STM32Cube_FW_N6/Drivers/STM32N6xx_HAL_Driver/Src/stm32n6xx_hal_spi.c ****     /* Restriction the DMA data received is not allowed in this mode */
2190:STM32Cube_FW_N6/Drivers/STM32N6xx_HAL_Driver/Src/stm32n6xx_hal_spi.c ****     __HAL_UNLOCK(hspi);
 6507              		.loc 1 2190 5
 6508 0166 FB68     		ldr	r3, [r7, #12]
 6509 0168 0022     		movs	r2, #0
ARM GAS  /tmp/ccwTXtVb.s 			page 154


 6510 016a 83F88820 		strb	r2, [r3, #136]
2191:STM32Cube_FW_N6/Drivers/STM32N6xx_HAL_Driver/Src/stm32n6xx_hal_spi.c ****     return HAL_ERROR;
 6511              		.loc 1 2191 12
 6512 016e 0123     		movs	r3, #1
 6513 0170 2AE1     		b	.L288
 6514              	.L296:
2192:STM32Cube_FW_N6/Drivers/STM32N6xx_HAL_Driver/Src/stm32n6xx_hal_spi.c ****   }
2193:STM32Cube_FW_N6/Drivers/STM32N6xx_HAL_Driver/Src/stm32n6xx_hal_spi.c **** 
2194:STM32Cube_FW_N6/Drivers/STM32N6xx_HAL_Driver/Src/stm32n6xx_hal_spi.c ****   /* Clear RXDMAEN bit */
2195:STM32Cube_FW_N6/Drivers/STM32N6xx_HAL_Driver/Src/stm32n6xx_hal_spi.c ****   CLEAR_BIT(hspi->Instance->CFG1, SPI_CFG1_RXDMAEN);
 6515              		.loc 1 2195 3
 6516 0172 FB68     		ldr	r3, [r7, #12]
 6517 0174 1B68     		ldr	r3, [r3]
 6518 0176 9A68     		ldr	r2, [r3, #8]
 6519 0178 FB68     		ldr	r3, [r7, #12]
 6520 017a 1B68     		ldr	r3, [r3]
 6521 017c 22F48042 		bic	r2, r2, #16384
 6522 0180 9A60     		str	r2, [r3, #8]
2196:STM32Cube_FW_N6/Drivers/STM32N6xx_HAL_Driver/Src/stm32n6xx_hal_spi.c **** 
2197:STM32Cube_FW_N6/Drivers/STM32N6xx_HAL_Driver/Src/stm32n6xx_hal_spi.c ****   /* Adjust XferCount according to DMA alignment / Data size */
2198:STM32Cube_FW_N6/Drivers/STM32N6xx_HAL_Driver/Src/stm32n6xx_hal_spi.c ****   if (hspi->Init.DataSize <= SPI_DATASIZE_8BIT)
 6523              		.loc 1 2198 17
 6524 0182 FB68     		ldr	r3, [r7, #12]
 6525 0184 DB68     		ldr	r3, [r3, #12]
 6526              		.loc 1 2198 6
 6527 0186 072B     		cmp	r3, #7
 6528 0188 22D8     		bhi	.L297
2199:STM32Cube_FW_N6/Drivers/STM32N6xx_HAL_Driver/Src/stm32n6xx_hal_spi.c ****   {
2200:STM32Cube_FW_N6/Drivers/STM32N6xx_HAL_Driver/Src/stm32n6xx_hal_spi.c ****     if (hspi->hdmarx->Init.DestDataWidth == DMA_DEST_DATAWIDTH_HALFWORD)
 6529              		.loc 1 2200 13
 6530 018a FB68     		ldr	r3, [r7, #12]
 6531 018c D3F88430 		ldr	r3, [r3, #132]
 6532              		.loc 1 2200 27
 6533 0190 DB69     		ldr	r3, [r3, #28]
 6534              		.loc 1 2200 8
 6535 0192 B3F5803F 		cmp	r3, #65536
 6536 0196 09D1     		bne	.L298
2201:STM32Cube_FW_N6/Drivers/STM32N6xx_HAL_Driver/Src/stm32n6xx_hal_spi.c ****     {
2202:STM32Cube_FW_N6/Drivers/STM32N6xx_HAL_Driver/Src/stm32n6xx_hal_spi.c ****       hspi->RxXferCount = (hspi->RxXferCount + (uint16_t) 1UL) >> 1UL;
 6537              		.loc 1 2202 32
 6538 0198 FB68     		ldr	r3, [r7, #12]
 6539 019a B3F87230 		ldrh	r3, [r3, #114]	@ movhi
 6540 019e 9BB2     		uxth	r3, r3
 6541              		.loc 1 2202 46
 6542 01a0 0133     		adds	r3, r3, #1
 6543              		.loc 1 2202 64
 6544 01a2 5B10     		asrs	r3, r3, #1
 6545              		.loc 1 2202 25
 6546 01a4 9AB2     		uxth	r2, r3
 6547 01a6 FB68     		ldr	r3, [r7, #12]
 6548 01a8 A3F87220 		strh	r2, [r3, #114]	@ movhi
 6549              	.L298:
2203:STM32Cube_FW_N6/Drivers/STM32N6xx_HAL_Driver/Src/stm32n6xx_hal_spi.c ****     }
2204:STM32Cube_FW_N6/Drivers/STM32N6xx_HAL_Driver/Src/stm32n6xx_hal_spi.c ****     if (hspi->hdmarx->Init.DestDataWidth == DMA_DEST_DATAWIDTH_WORD)
 6550              		.loc 1 2204 13
 6551 01ac FB68     		ldr	r3, [r7, #12]
 6552 01ae D3F88430 		ldr	r3, [r3, #132]
ARM GAS  /tmp/ccwTXtVb.s 			page 155


 6553              		.loc 1 2204 27
 6554 01b2 DB69     		ldr	r3, [r3, #28]
 6555              		.loc 1 2204 8
 6556 01b4 B3F5003F 		cmp	r3, #131072
 6557 01b8 1FD1     		bne	.L299
2205:STM32Cube_FW_N6/Drivers/STM32N6xx_HAL_Driver/Src/stm32n6xx_hal_spi.c ****     {
2206:STM32Cube_FW_N6/Drivers/STM32N6xx_HAL_Driver/Src/stm32n6xx_hal_spi.c ****       hspi->RxXferCount = (hspi->RxXferCount + (uint16_t) 3UL) >> 2UL;
 6558              		.loc 1 2206 32
 6559 01ba FB68     		ldr	r3, [r7, #12]
 6560 01bc B3F87230 		ldrh	r3, [r3, #114]	@ movhi
 6561 01c0 9BB2     		uxth	r3, r3
 6562              		.loc 1 2206 46
 6563 01c2 0333     		adds	r3, r3, #3
 6564              		.loc 1 2206 64
 6565 01c4 9B10     		asrs	r3, r3, #2
 6566              		.loc 1 2206 25
 6567 01c6 9AB2     		uxth	r2, r3
 6568 01c8 FB68     		ldr	r3, [r7, #12]
 6569 01ca A3F87220 		strh	r2, [r3, #114]	@ movhi
 6570 01ce 14E0     		b	.L299
 6571              	.L297:
2207:STM32Cube_FW_N6/Drivers/STM32N6xx_HAL_Driver/Src/stm32n6xx_hal_spi.c ****     }
2208:STM32Cube_FW_N6/Drivers/STM32N6xx_HAL_Driver/Src/stm32n6xx_hal_spi.c ****   }
2209:STM32Cube_FW_N6/Drivers/STM32N6xx_HAL_Driver/Src/stm32n6xx_hal_spi.c ****   else if (hspi->Init.DataSize <= SPI_DATASIZE_16BIT)
 6572              		.loc 1 2209 22
 6573 01d0 FB68     		ldr	r3, [r7, #12]
 6574 01d2 DB68     		ldr	r3, [r3, #12]
 6575              		.loc 1 2209 11
 6576 01d4 0F2B     		cmp	r3, #15
 6577 01d6 10D8     		bhi	.L299
2210:STM32Cube_FW_N6/Drivers/STM32N6xx_HAL_Driver/Src/stm32n6xx_hal_spi.c ****   {
2211:STM32Cube_FW_N6/Drivers/STM32N6xx_HAL_Driver/Src/stm32n6xx_hal_spi.c ****     if (hspi->hdmarx->Init.DestDataWidth == DMA_DEST_DATAWIDTH_WORD)
 6578              		.loc 1 2211 13
 6579 01d8 FB68     		ldr	r3, [r7, #12]
 6580 01da D3F88430 		ldr	r3, [r3, #132]
 6581              		.loc 1 2211 27
 6582 01de DB69     		ldr	r3, [r3, #28]
 6583              		.loc 1 2211 8
 6584 01e0 B3F5003F 		cmp	r3, #131072
 6585 01e4 09D1     		bne	.L299
2212:STM32Cube_FW_N6/Drivers/STM32N6xx_HAL_Driver/Src/stm32n6xx_hal_spi.c ****     {
2213:STM32Cube_FW_N6/Drivers/STM32N6xx_HAL_Driver/Src/stm32n6xx_hal_spi.c ****       hspi->RxXferCount = (hspi->RxXferCount + (uint16_t) 1UL) >> 1UL;
 6586              		.loc 1 2213 32
 6587 01e6 FB68     		ldr	r3, [r7, #12]
 6588 01e8 B3F87230 		ldrh	r3, [r3, #114]	@ movhi
 6589 01ec 9BB2     		uxth	r3, r3
 6590              		.loc 1 2213 46
 6591 01ee 0133     		adds	r3, r3, #1
 6592              		.loc 1 2213 64
 6593 01f0 5B10     		asrs	r3, r3, #1
 6594              		.loc 1 2213 25
 6595 01f2 9AB2     		uxth	r2, r3
 6596 01f4 FB68     		ldr	r3, [r7, #12]
 6597 01f6 A3F87220 		strh	r2, [r3, #114]	@ movhi
 6598              	.L299:
2214:STM32Cube_FW_N6/Drivers/STM32N6xx_HAL_Driver/Src/stm32n6xx_hal_spi.c ****     }
2215:STM32Cube_FW_N6/Drivers/STM32N6xx_HAL_Driver/Src/stm32n6xx_hal_spi.c ****   }
ARM GAS  /tmp/ccwTXtVb.s 			page 156


2216:STM32Cube_FW_N6/Drivers/STM32N6xx_HAL_Driver/Src/stm32n6xx_hal_spi.c ****   else
2217:STM32Cube_FW_N6/Drivers/STM32N6xx_HAL_Driver/Src/stm32n6xx_hal_spi.c ****   {
2218:STM32Cube_FW_N6/Drivers/STM32N6xx_HAL_Driver/Src/stm32n6xx_hal_spi.c ****     /* Adjustment done */
2219:STM32Cube_FW_N6/Drivers/STM32N6xx_HAL_Driver/Src/stm32n6xx_hal_spi.c ****   }
2220:STM32Cube_FW_N6/Drivers/STM32N6xx_HAL_Driver/Src/stm32n6xx_hal_spi.c **** 
2221:STM32Cube_FW_N6/Drivers/STM32N6xx_HAL_Driver/Src/stm32n6xx_hal_spi.c ****   /* Set the SPI RxDMA Half transfer complete callback */
2222:STM32Cube_FW_N6/Drivers/STM32N6xx_HAL_Driver/Src/stm32n6xx_hal_spi.c ****   hspi->hdmarx->XferHalfCpltCallback = SPI_DMAHalfReceiveCplt;
 6599              		.loc 1 2222 7
 6600 01fa FB68     		ldr	r3, [r7, #12]
 6601 01fc D3F88430 		ldr	r3, [r3, #132]
 6602              		.loc 1 2222 38
 6603 0200 1B4A     		ldr	r2, .L310+36
 6604 0202 5A66     		str	r2, [r3, #100]
2223:STM32Cube_FW_N6/Drivers/STM32N6xx_HAL_Driver/Src/stm32n6xx_hal_spi.c **** 
2224:STM32Cube_FW_N6/Drivers/STM32N6xx_HAL_Driver/Src/stm32n6xx_hal_spi.c ****   /* Set the SPI Rx DMA transfer complete callback */
2225:STM32Cube_FW_N6/Drivers/STM32N6xx_HAL_Driver/Src/stm32n6xx_hal_spi.c ****   hspi->hdmarx->XferCpltCallback = SPI_DMAReceiveCplt;
 6605              		.loc 1 2225 7
 6606 0204 FB68     		ldr	r3, [r7, #12]
 6607 0206 D3F88430 		ldr	r3, [r3, #132]
 6608              		.loc 1 2225 34
 6609 020a 1A4A     		ldr	r2, .L310+40
 6610 020c 1A66     		str	r2, [r3, #96]
2226:STM32Cube_FW_N6/Drivers/STM32N6xx_HAL_Driver/Src/stm32n6xx_hal_spi.c **** 
2227:STM32Cube_FW_N6/Drivers/STM32N6xx_HAL_Driver/Src/stm32n6xx_hal_spi.c ****   /* Set the DMA error callback */
2228:STM32Cube_FW_N6/Drivers/STM32N6xx_HAL_Driver/Src/stm32n6xx_hal_spi.c ****   hspi->hdmarx->XferErrorCallback = SPI_DMAError;
 6611              		.loc 1 2228 7
 6612 020e FB68     		ldr	r3, [r7, #12]
 6613 0210 D3F88430 		ldr	r3, [r3, #132]
 6614              		.loc 1 2228 35
 6615 0214 184A     		ldr	r2, .L310+44
 6616 0216 9A66     		str	r2, [r3, #104]
2229:STM32Cube_FW_N6/Drivers/STM32N6xx_HAL_Driver/Src/stm32n6xx_hal_spi.c **** 
2230:STM32Cube_FW_N6/Drivers/STM32N6xx_HAL_Driver/Src/stm32n6xx_hal_spi.c ****   /* Set the DMA AbortCpltCallback */
2231:STM32Cube_FW_N6/Drivers/STM32N6xx_HAL_Driver/Src/stm32n6xx_hal_spi.c ****   hspi->hdmarx->XferAbortCallback = NULL;
 6617              		.loc 1 2231 7
 6618 0218 FB68     		ldr	r3, [r7, #12]
 6619 021a D3F88430 		ldr	r3, [r3, #132]
 6620              		.loc 1 2231 35
 6621 021e 0022     		movs	r2, #0
 6622 0220 DA66     		str	r2, [r3, #108]
2232:STM32Cube_FW_N6/Drivers/STM32N6xx_HAL_Driver/Src/stm32n6xx_hal_spi.c **** 
2233:STM32Cube_FW_N6/Drivers/STM32N6xx_HAL_Driver/Src/stm32n6xx_hal_spi.c ****   if (hspi->Init.DataSize <= SPI_DATASIZE_8BIT)
 6623              		.loc 1 2233 17
 6624 0222 FB68     		ldr	r3, [r7, #12]
 6625 0224 DB68     		ldr	r3, [r3, #12]
 6626              		.loc 1 2233 6
 6627 0226 072B     		cmp	r3, #7
 6628 0228 04D8     		bhi	.L300
2234:STM32Cube_FW_N6/Drivers/STM32N6xx_HAL_Driver/Src/stm32n6xx_hal_spi.c ****   {
2235:STM32Cube_FW_N6/Drivers/STM32N6xx_HAL_Driver/Src/stm32n6xx_hal_spi.c ****     hspi->RxXferCount = Size;
 6629              		.loc 1 2235 23
 6630 022a FB68     		ldr	r3, [r7, #12]
 6631 022c FA88     		ldrh	r2, [r7, #6]	@ movhi
 6632 022e A3F87220 		strh	r2, [r3, #114]	@ movhi
 6633 0232 29E0     		b	.L301
 6634              	.L300:
2236:STM32Cube_FW_N6/Drivers/STM32N6xx_HAL_Driver/Src/stm32n6xx_hal_spi.c ****   }
ARM GAS  /tmp/ccwTXtVb.s 			page 157


2237:STM32Cube_FW_N6/Drivers/STM32N6xx_HAL_Driver/Src/stm32n6xx_hal_spi.c ****   else if (hspi->Init.DataSize <= SPI_DATASIZE_16BIT)
 6635              		.loc 1 2237 22
 6636 0234 FB68     		ldr	r3, [r7, #12]
 6637 0236 DB68     		ldr	r3, [r3, #12]
 6638              		.loc 1 2237 11
 6639 0238 0F2B     		cmp	r3, #15
 6640 023a 1FD8     		bhi	.L302
2238:STM32Cube_FW_N6/Drivers/STM32N6xx_HAL_Driver/Src/stm32n6xx_hal_spi.c ****   {
2239:STM32Cube_FW_N6/Drivers/STM32N6xx_HAL_Driver/Src/stm32n6xx_hal_spi.c ****     hspi->RxXferCount = Size * 2U;
 6641              		.loc 1 2239 30
 6642 023c FB88     		ldrh	r3, [r7, #6]	@ movhi
 6643 023e 5B00     		lsls	r3, r3, #1
 6644 0240 9AB2     		uxth	r2, r3
 6645              		.loc 1 2239 23
 6646 0242 FB68     		ldr	r3, [r7, #12]
 6647 0244 A3F87220 		strh	r2, [r3, #114]	@ movhi
 6648 0248 1EE0     		b	.L301
 6649              	.L311:
 6650 024a 00BF     		.align	2
 6651              	.L310:
 6652 024c 00000000 		.word	.LC0
 6653 0250 00300052 		.word	1375744000
 6654 0254 00300042 		.word	1107308544
 6655 0258 00380050 		.word	1342191616
 6656 025c 00380040 		.word	1073756160
 6657 0260 003C0050 		.word	1342192640
 6658 0264 003C0040 		.word	1073757184
 6659 0268 00140056 		.word	1442845696
 6660 026c 00140046 		.word	1174410240
 6661 0270 00000000 		.word	SPI_DMAHalfReceiveCplt
 6662 0274 00000000 		.word	SPI_DMAReceiveCplt
 6663 0278 00000000 		.word	SPI_DMAError
 6664              	.L302:
2240:STM32Cube_FW_N6/Drivers/STM32N6xx_HAL_Driver/Src/stm32n6xx_hal_spi.c ****   }
2241:STM32Cube_FW_N6/Drivers/STM32N6xx_HAL_Driver/Src/stm32n6xx_hal_spi.c ****   else
2242:STM32Cube_FW_N6/Drivers/STM32N6xx_HAL_Driver/Src/stm32n6xx_hal_spi.c ****   {
2243:STM32Cube_FW_N6/Drivers/STM32N6xx_HAL_Driver/Src/stm32n6xx_hal_spi.c ****     hspi->RxXferCount = Size * 4U;
 6665              		.loc 1 2243 30
 6666 027c FB88     		ldrh	r3, [r7, #6]	@ movhi
 6667 027e 9B00     		lsls	r3, r3, #2
 6668 0280 9AB2     		uxth	r2, r3
 6669              		.loc 1 2243 23
 6670 0282 FB68     		ldr	r3, [r7, #12]
 6671 0284 A3F87220 		strh	r2, [r3, #114]	@ movhi
 6672              	.L301:
2244:STM32Cube_FW_N6/Drivers/STM32N6xx_HAL_Driver/Src/stm32n6xx_hal_spi.c ****   }
2245:STM32Cube_FW_N6/Drivers/STM32N6xx_HAL_Driver/Src/stm32n6xx_hal_spi.c **** 
2246:STM32Cube_FW_N6/Drivers/STM32N6xx_HAL_Driver/Src/stm32n6xx_hal_spi.c ****   /* Enable the Rx DMA Stream/Channel  */
2247:STM32Cube_FW_N6/Drivers/STM32N6xx_HAL_Driver/Src/stm32n6xx_hal_spi.c ****   if ((hspi->hdmarx->Mode & DMA_LINKEDLIST) == DMA_LINKEDLIST)
 6673              		.loc 1 2247 12
 6674 0288 FB68     		ldr	r3, [r7, #12]
 6675 028a D3F88430 		ldr	r3, [r3, #132]
 6676              		.loc 1 2247 20
 6677 028e 1B6D     		ldr	r3, [r3, #80]
 6678              		.loc 1 2247 27
 6679 0290 03F08003 		and	r3, r3, #128
 6680              		.loc 1 2247 6
ARM GAS  /tmp/ccwTXtVb.s 			page 158


 6681 0294 002B     		cmp	r3, #0
 6682 0296 2DD0     		beq	.L303
2248:STM32Cube_FW_N6/Drivers/STM32N6xx_HAL_Driver/Src/stm32n6xx_hal_spi.c ****   {
2249:STM32Cube_FW_N6/Drivers/STM32N6xx_HAL_Driver/Src/stm32n6xx_hal_spi.c ****     if (hspi->hdmarx->LinkedListQueue != NULL)
 6683              		.loc 1 2249 13
 6684 0298 FB68     		ldr	r3, [r7, #12]
 6685 029a D3F88430 		ldr	r3, [r3, #132]
 6686              		.loc 1 2249 21
 6687 029e 5B6F     		ldr	r3, [r3, #116]
 6688              		.loc 1 2249 8
 6689 02a0 002B     		cmp	r3, #0
 6690 02a2 24D0     		beq	.L304
2250:STM32Cube_FW_N6/Drivers/STM32N6xx_HAL_Driver/Src/stm32n6xx_hal_spi.c ****     {
2251:STM32Cube_FW_N6/Drivers/STM32N6xx_HAL_Driver/Src/stm32n6xx_hal_spi.c ****       /* Set DMA data size */
2252:STM32Cube_FW_N6/Drivers/STM32N6xx_HAL_Driver/Src/stm32n6xx_hal_spi.c ****       hspi->hdmarx->LinkedListQueue->Head->LinkRegisters[NODE_CBR1_DEFAULT_OFFSET] = hspi->RxXferCo
 6691              		.loc 1 2252 90
 6692 02a4 FB68     		ldr	r3, [r7, #12]
 6693 02a6 B3F87230 		ldrh	r3, [r3, #114]	@ movhi
 6694 02aa 9AB2     		uxth	r2, r3
 6695              		.loc 1 2252 11
 6696 02ac FB68     		ldr	r3, [r7, #12]
 6697 02ae D3F88430 		ldr	r3, [r3, #132]
 6698              		.loc 1 2252 19
 6699 02b2 5B6F     		ldr	r3, [r3, #116]
 6700              		.loc 1 2252 36
 6701 02b4 1B68     		ldr	r3, [r3]
 6702              		.loc 1 2252 84
 6703 02b6 9A60     		str	r2, [r3, #8]
2253:STM32Cube_FW_N6/Drivers/STM32N6xx_HAL_Driver/Src/stm32n6xx_hal_spi.c **** 
2254:STM32Cube_FW_N6/Drivers/STM32N6xx_HAL_Driver/Src/stm32n6xx_hal_spi.c ****       /* Set DMA source address */
2255:STM32Cube_FW_N6/Drivers/STM32N6xx_HAL_Driver/Src/stm32n6xx_hal_spi.c ****       hspi->hdmarx->LinkedListQueue->Head->LinkRegisters[NODE_CSAR_DEFAULT_OFFSET] = (uint32_t)&hsp
 6704              		.loc 1 2255 101
 6705 02b8 FB68     		ldr	r3, [r7, #12]
 6706 02ba 1B68     		ldr	r3, [r3]
 6707              		.loc 1 2255 96
 6708 02bc 03F13002 		add	r2, r3, #48
 6709              		.loc 1 2255 11
 6710 02c0 FB68     		ldr	r3, [r7, #12]
 6711 02c2 D3F88430 		ldr	r3, [r3, #132]
 6712              		.loc 1 2255 19
 6713 02c6 5B6F     		ldr	r3, [r3, #116]
 6714              		.loc 1 2255 36
 6715 02c8 1B68     		ldr	r3, [r3]
 6716              		.loc 1 2255 84
 6717 02ca DA60     		str	r2, [r3, #12]
2256:STM32Cube_FW_N6/Drivers/STM32N6xx_HAL_Driver/Src/stm32n6xx_hal_spi.c **** 
2257:STM32Cube_FW_N6/Drivers/STM32N6xx_HAL_Driver/Src/stm32n6xx_hal_spi.c ****       /* Set DMA destination address */
2258:STM32Cube_FW_N6/Drivers/STM32N6xx_HAL_Driver/Src/stm32n6xx_hal_spi.c ****       hspi->hdmarx->LinkedListQueue->Head->LinkRegisters[NODE_CDAR_DEFAULT_OFFSET] = (uint32_t)hspi
 6718              		.loc 1 2258 100
 6719 02cc FB68     		ldr	r3, [r7, #12]
 6720 02ce DA6E     		ldr	r2, [r3, #108]
 6721              		.loc 1 2258 11
 6722 02d0 FB68     		ldr	r3, [r7, #12]
 6723 02d2 D3F88430 		ldr	r3, [r3, #132]
 6724              		.loc 1 2258 19
 6725 02d6 5B6F     		ldr	r3, [r3, #116]
 6726              		.loc 1 2258 36
ARM GAS  /tmp/ccwTXtVb.s 			page 159


 6727 02d8 1B68     		ldr	r3, [r3]
 6728              		.loc 1 2258 84
 6729 02da 1A61     		str	r2, [r3, #16]
2259:STM32Cube_FW_N6/Drivers/STM32N6xx_HAL_Driver/Src/stm32n6xx_hal_spi.c **** 
2260:STM32Cube_FW_N6/Drivers/STM32N6xx_HAL_Driver/Src/stm32n6xx_hal_spi.c ****       status = HAL_DMAEx_List_Start_IT(hspi->hdmarx);
 6730              		.loc 1 2260 16
 6731 02dc FB68     		ldr	r3, [r7, #12]
 6732 02de D3F88430 		ldr	r3, [r3, #132]
 6733 02e2 1846     		mov	r0, r3
 6734 02e4 FFF7FEFF 		bl	HAL_DMAEx_List_Start_IT
 6735 02e8 0346     		mov	r3, r0
 6736 02ea FB75     		strb	r3, [r7, #23]
 6737 02ec 14E0     		b	.L305
 6738              	.L304:
2261:STM32Cube_FW_N6/Drivers/STM32N6xx_HAL_Driver/Src/stm32n6xx_hal_spi.c ****     }
2262:STM32Cube_FW_N6/Drivers/STM32N6xx_HAL_Driver/Src/stm32n6xx_hal_spi.c ****     else
2263:STM32Cube_FW_N6/Drivers/STM32N6xx_HAL_Driver/Src/stm32n6xx_hal_spi.c ****     {
2264:STM32Cube_FW_N6/Drivers/STM32N6xx_HAL_Driver/Src/stm32n6xx_hal_spi.c ****       status = HAL_ERROR;
 6739              		.loc 1 2264 14
 6740 02ee 0123     		movs	r3, #1
 6741 02f0 FB75     		strb	r3, [r7, #23]
 6742 02f2 11E0     		b	.L305
 6743              	.L303:
2265:STM32Cube_FW_N6/Drivers/STM32N6xx_HAL_Driver/Src/stm32n6xx_hal_spi.c ****     }
2266:STM32Cube_FW_N6/Drivers/STM32N6xx_HAL_Driver/Src/stm32n6xx_hal_spi.c ****   }
2267:STM32Cube_FW_N6/Drivers/STM32N6xx_HAL_Driver/Src/stm32n6xx_hal_spi.c ****   else
2268:STM32Cube_FW_N6/Drivers/STM32N6xx_HAL_Driver/Src/stm32n6xx_hal_spi.c ****   {
2269:STM32Cube_FW_N6/Drivers/STM32N6xx_HAL_Driver/Src/stm32n6xx_hal_spi.c ****     status = HAL_DMA_Start_IT(hspi->hdmarx, (uint32_t)&hspi->Instance->RXDR, (uint32_t)hspi->pRxBuf
 6744              		.loc 1 2269 14
 6745 02f4 FB68     		ldr	r3, [r7, #12]
 6746 02f6 D3F88400 		ldr	r0, [r3, #132]
 6747              		.loc 1 2269 60
 6748 02fa FB68     		ldr	r3, [r7, #12]
 6749 02fc 1B68     		ldr	r3, [r3]
 6750              		.loc 1 2269 55
 6751 02fe 3033     		adds	r3, r3, #48
 6752              		.loc 1 2269 14
 6753 0300 1946     		mov	r1, r3
 6754              		.loc 1 2269 92
 6755 0302 FB68     		ldr	r3, [r7, #12]
 6756 0304 DB6E     		ldr	r3, [r3, #108]
 6757              		.loc 1 2269 14
 6758 0306 1A46     		mov	r2, r3
2270:STM32Cube_FW_N6/Drivers/STM32N6xx_HAL_Driver/Src/stm32n6xx_hal_spi.c ****                               hspi->RxXferCount);
 6759              		.loc 1 2270 35
 6760 0308 FB68     		ldr	r3, [r7, #12]
 6761 030a B3F87230 		ldrh	r3, [r3, #114]	@ movhi
 6762 030e 9BB2     		uxth	r3, r3
2269:STM32Cube_FW_N6/Drivers/STM32N6xx_HAL_Driver/Src/stm32n6xx_hal_spi.c ****                               hspi->RxXferCount);
 6763              		.loc 1 2269 14
 6764 0310 FFF7FEFF 		bl	HAL_DMA_Start_IT
 6765 0314 0346     		mov	r3, r0
 6766 0316 FB75     		strb	r3, [r7, #23]
 6767              	.L305:
2271:STM32Cube_FW_N6/Drivers/STM32N6xx_HAL_Driver/Src/stm32n6xx_hal_spi.c ****   }
2272:STM32Cube_FW_N6/Drivers/STM32N6xx_HAL_Driver/Src/stm32n6xx_hal_spi.c **** 
2273:STM32Cube_FW_N6/Drivers/STM32N6xx_HAL_Driver/Src/stm32n6xx_hal_spi.c ****   /* Check status */
ARM GAS  /tmp/ccwTXtVb.s 			page 160


2274:STM32Cube_FW_N6/Drivers/STM32N6xx_HAL_Driver/Src/stm32n6xx_hal_spi.c ****   if (status != HAL_OK)
 6768              		.loc 1 2274 6
 6769 0318 FB7D     		ldrb	r3, [r7, #23]	@ zero_extendqisi2
 6770 031a 002B     		cmp	r3, #0
 6771 031c 11D0     		beq	.L306
2275:STM32Cube_FW_N6/Drivers/STM32N6xx_HAL_Driver/Src/stm32n6xx_hal_spi.c ****   {
2276:STM32Cube_FW_N6/Drivers/STM32N6xx_HAL_Driver/Src/stm32n6xx_hal_spi.c ****     /* Update SPI error code */
2277:STM32Cube_FW_N6/Drivers/STM32N6xx_HAL_Driver/Src/stm32n6xx_hal_spi.c ****     SET_BIT(hspi->ErrorCode, HAL_SPI_ERROR_DMA);
 6772              		.loc 1 2277 5
 6773 031e FB68     		ldr	r3, [r7, #12]
 6774 0320 D3F88C30 		ldr	r3, [r3, #140]
 6775 0324 43F01002 		orr	r2, r3, #16
 6776 0328 FB68     		ldr	r3, [r7, #12]
 6777 032a C3F88C20 		str	r2, [r3, #140]
2278:STM32Cube_FW_N6/Drivers/STM32N6xx_HAL_Driver/Src/stm32n6xx_hal_spi.c ****     hspi->State = HAL_SPI_STATE_READY;
 6778              		.loc 1 2278 17
 6779 032e FB68     		ldr	r3, [r7, #12]
 6780 0330 0122     		movs	r2, #1
 6781 0332 83F88920 		strb	r2, [r3, #137]
2279:STM32Cube_FW_N6/Drivers/STM32N6xx_HAL_Driver/Src/stm32n6xx_hal_spi.c **** 
2280:STM32Cube_FW_N6/Drivers/STM32N6xx_HAL_Driver/Src/stm32n6xx_hal_spi.c ****     /* Unlock the process */
2281:STM32Cube_FW_N6/Drivers/STM32N6xx_HAL_Driver/Src/stm32n6xx_hal_spi.c ****     __HAL_UNLOCK(hspi);
 6782              		.loc 1 2281 5
 6783 0336 FB68     		ldr	r3, [r7, #12]
 6784 0338 0022     		movs	r2, #0
 6785 033a 83F88820 		strb	r2, [r3, #136]
2282:STM32Cube_FW_N6/Drivers/STM32N6xx_HAL_Driver/Src/stm32n6xx_hal_spi.c **** 
2283:STM32Cube_FW_N6/Drivers/STM32N6xx_HAL_Driver/Src/stm32n6xx_hal_spi.c ****     return HAL_ERROR;
 6786              		.loc 1 2283 12
 6787 033e 0123     		movs	r3, #1
 6788 0340 42E0     		b	.L288
 6789              	.L306:
2284:STM32Cube_FW_N6/Drivers/STM32N6xx_HAL_Driver/Src/stm32n6xx_hal_spi.c ****   }
2285:STM32Cube_FW_N6/Drivers/STM32N6xx_HAL_Driver/Src/stm32n6xx_hal_spi.c **** 
2286:STM32Cube_FW_N6/Drivers/STM32N6xx_HAL_Driver/Src/stm32n6xx_hal_spi.c ****   /* Set the number of data at current transfer */
2287:STM32Cube_FW_N6/Drivers/STM32N6xx_HAL_Driver/Src/stm32n6xx_hal_spi.c ****   if (hspi->hdmarx->Mode == DMA_LINKEDLIST_CIRCULAR)
 6790              		.loc 1 2287 11
 6791 0342 FB68     		ldr	r3, [r7, #12]
 6792 0344 D3F88430 		ldr	r3, [r3, #132]
 6793              		.loc 1 2287 19
 6794 0348 1B6D     		ldr	r3, [r3, #80]
 6795              		.loc 1 2287 6
 6796 034a 812B     		cmp	r3, #129
 6797 034c 08D1     		bne	.L307
2288:STM32Cube_FW_N6/Drivers/STM32N6xx_HAL_Driver/Src/stm32n6xx_hal_spi.c ****   {
2289:STM32Cube_FW_N6/Drivers/STM32N6xx_HAL_Driver/Src/stm32n6xx_hal_spi.c ****     MODIFY_REG(hspi->Instance->CR2, SPI_CR2_TSIZE, 0UL);
 6798              		.loc 1 2289 5
 6799 034e FB68     		ldr	r3, [r7, #12]
 6800 0350 1B68     		ldr	r3, [r3]
 6801 0352 5B68     		ldr	r3, [r3, #4]
 6802 0354 FA68     		ldr	r2, [r7, #12]
 6803 0356 1268     		ldr	r2, [r2]
 6804 0358 1B0C     		lsrs	r3, r3, #16
 6805 035a 1B04     		lsls	r3, r3, #16
 6806 035c 5360     		str	r3, [r2, #4]
 6807 035e 09E0     		b	.L308
 6808              	.L307:
ARM GAS  /tmp/ccwTXtVb.s 			page 161


2290:STM32Cube_FW_N6/Drivers/STM32N6xx_HAL_Driver/Src/stm32n6xx_hal_spi.c ****   }
2291:STM32Cube_FW_N6/Drivers/STM32N6xx_HAL_Driver/Src/stm32n6xx_hal_spi.c ****   else
2292:STM32Cube_FW_N6/Drivers/STM32N6xx_HAL_Driver/Src/stm32n6xx_hal_spi.c ****   {
2293:STM32Cube_FW_N6/Drivers/STM32N6xx_HAL_Driver/Src/stm32n6xx_hal_spi.c ****     MODIFY_REG(hspi->Instance->CR2, SPI_CR2_TSIZE, Size);
 6809              		.loc 1 2293 5
 6810 0360 FB68     		ldr	r3, [r7, #12]
 6811 0362 1B68     		ldr	r3, [r3]
 6812 0364 5B68     		ldr	r3, [r3, #4]
 6813 0366 1B0C     		lsrs	r3, r3, #16
 6814 0368 1B04     		lsls	r3, r3, #16
 6815 036a F988     		ldrh	r1, [r7, #6]
 6816 036c FA68     		ldr	r2, [r7, #12]
 6817 036e 1268     		ldr	r2, [r2]
 6818 0370 0B43     		orrs	r3, r3, r1
 6819 0372 5360     		str	r3, [r2, #4]
 6820              	.L308:
2294:STM32Cube_FW_N6/Drivers/STM32N6xx_HAL_Driver/Src/stm32n6xx_hal_spi.c ****   }
2295:STM32Cube_FW_N6/Drivers/STM32N6xx_HAL_Driver/Src/stm32n6xx_hal_spi.c **** 
2296:STM32Cube_FW_N6/Drivers/STM32N6xx_HAL_Driver/Src/stm32n6xx_hal_spi.c ****   /* Enable Rx DMA Request */
2297:STM32Cube_FW_N6/Drivers/STM32N6xx_HAL_Driver/Src/stm32n6xx_hal_spi.c ****   SET_BIT(hspi->Instance->CFG1, SPI_CFG1_RXDMAEN);
 6821              		.loc 1 2297 3
 6822 0374 FB68     		ldr	r3, [r7, #12]
 6823 0376 1B68     		ldr	r3, [r3]
 6824 0378 9A68     		ldr	r2, [r3, #8]
 6825 037a FB68     		ldr	r3, [r7, #12]
 6826 037c 1B68     		ldr	r3, [r3]
 6827 037e 42F48042 		orr	r2, r2, #16384
 6828 0382 9A60     		str	r2, [r3, #8]
2298:STM32Cube_FW_N6/Drivers/STM32N6xx_HAL_Driver/Src/stm32n6xx_hal_spi.c **** 
2299:STM32Cube_FW_N6/Drivers/STM32N6xx_HAL_Driver/Src/stm32n6xx_hal_spi.c ****   /* Enable the SPI Error Interrupt Bit */
2300:STM32Cube_FW_N6/Drivers/STM32N6xx_HAL_Driver/Src/stm32n6xx_hal_spi.c ****   __HAL_SPI_ENABLE_IT(hspi, (SPI_IT_OVR | SPI_IT_FRE | SPI_IT_MODF));
 6829              		.loc 1 2300 3
 6830 0384 FB68     		ldr	r3, [r7, #12]
 6831 0386 1B68     		ldr	r3, [r3]
 6832 0388 1A69     		ldr	r2, [r3, #16]
 6833 038a FB68     		ldr	r3, [r7, #12]
 6834 038c 1B68     		ldr	r3, [r3]
 6835 038e 42F45072 		orr	r2, r2, #832
 6836 0392 1A61     		str	r2, [r3, #16]
2301:STM32Cube_FW_N6/Drivers/STM32N6xx_HAL_Driver/Src/stm32n6xx_hal_spi.c **** 
2302:STM32Cube_FW_N6/Drivers/STM32N6xx_HAL_Driver/Src/stm32n6xx_hal_spi.c ****   /* Enable SPI peripheral */
2303:STM32Cube_FW_N6/Drivers/STM32N6xx_HAL_Driver/Src/stm32n6xx_hal_spi.c ****   __HAL_SPI_ENABLE(hspi);
 6837              		.loc 1 2303 3
 6838 0394 FB68     		ldr	r3, [r7, #12]
 6839 0396 1B68     		ldr	r3, [r3]
 6840 0398 1A68     		ldr	r2, [r3]
 6841 039a FB68     		ldr	r3, [r7, #12]
 6842 039c 1B68     		ldr	r3, [r3]
 6843 039e 42F00102 		orr	r2, r2, #1
 6844 03a2 1A60     		str	r2, [r3]
2304:STM32Cube_FW_N6/Drivers/STM32N6xx_HAL_Driver/Src/stm32n6xx_hal_spi.c **** 
2305:STM32Cube_FW_N6/Drivers/STM32N6xx_HAL_Driver/Src/stm32n6xx_hal_spi.c ****   if (hspi->Init.Mode == SPI_MODE_MASTER)
 6845              		.loc 1 2305 17
 6846 03a4 FB68     		ldr	r3, [r7, #12]
 6847 03a6 5B68     		ldr	r3, [r3, #4]
 6848              		.loc 1 2305 6
 6849 03a8 B3F5800F 		cmp	r3, #4194304
ARM GAS  /tmp/ccwTXtVb.s 			page 162


 6850 03ac 07D1     		bne	.L309
2306:STM32Cube_FW_N6/Drivers/STM32N6xx_HAL_Driver/Src/stm32n6xx_hal_spi.c ****   {
2307:STM32Cube_FW_N6/Drivers/STM32N6xx_HAL_Driver/Src/stm32n6xx_hal_spi.c ****     /* Master transfer start */
2308:STM32Cube_FW_N6/Drivers/STM32N6xx_HAL_Driver/Src/stm32n6xx_hal_spi.c ****     SET_BIT(hspi->Instance->CR1, SPI_CR1_CSTART);
 6851              		.loc 1 2308 5
 6852 03ae FB68     		ldr	r3, [r7, #12]
 6853 03b0 1B68     		ldr	r3, [r3]
 6854 03b2 1A68     		ldr	r2, [r3]
 6855 03b4 FB68     		ldr	r3, [r7, #12]
 6856 03b6 1B68     		ldr	r3, [r3]
 6857 03b8 42F40072 		orr	r2, r2, #512
 6858 03bc 1A60     		str	r2, [r3]
 6859              	.L309:
2309:STM32Cube_FW_N6/Drivers/STM32N6xx_HAL_Driver/Src/stm32n6xx_hal_spi.c ****   }
2310:STM32Cube_FW_N6/Drivers/STM32N6xx_HAL_Driver/Src/stm32n6xx_hal_spi.c **** 
2311:STM32Cube_FW_N6/Drivers/STM32N6xx_HAL_Driver/Src/stm32n6xx_hal_spi.c ****   /* Unlock the process */
2312:STM32Cube_FW_N6/Drivers/STM32N6xx_HAL_Driver/Src/stm32n6xx_hal_spi.c ****   __HAL_UNLOCK(hspi);
 6860              		.loc 1 2312 3
 6861 03be FB68     		ldr	r3, [r7, #12]
 6862 03c0 0022     		movs	r2, #0
 6863 03c2 83F88820 		strb	r2, [r3, #136]
2313:STM32Cube_FW_N6/Drivers/STM32N6xx_HAL_Driver/Src/stm32n6xx_hal_spi.c **** 
2314:STM32Cube_FW_N6/Drivers/STM32N6xx_HAL_Driver/Src/stm32n6xx_hal_spi.c ****   return HAL_OK;
 6864              		.loc 1 2314 10
 6865 03c6 0023     		movs	r3, #0
 6866              	.L288:
2315:STM32Cube_FW_N6/Drivers/STM32N6xx_HAL_Driver/Src/stm32n6xx_hal_spi.c **** }
 6867              		.loc 1 2315 1
 6868 03c8 1846     		mov	r0, r3
 6869 03ca 1837     		adds	r7, r7, #24
 6870              		.cfi_def_cfa_offset 8
 6871 03cc BD46     		mov	sp, r7
 6872              		.cfi_def_cfa_register 13
 6873              		@ sp needed
 6874 03ce 80BD     		pop	{r7, pc}
 6875              		.cfi_endproc
 6876              	.LFE846:
 6878              		.section	.text.HAL_SPI_TransmitReceive_DMA,"ax",%progbits
 6879              		.align	1
 6880              		.global	HAL_SPI_TransmitReceive_DMA
 6881              		.syntax unified
 6882              		.thumb
 6883              		.thumb_func
 6885              	HAL_SPI_TransmitReceive_DMA:
 6886              	.LFB847:
2316:STM32Cube_FW_N6/Drivers/STM32N6xx_HAL_Driver/Src/stm32n6xx_hal_spi.c **** 
2317:STM32Cube_FW_N6/Drivers/STM32N6xx_HAL_Driver/Src/stm32n6xx_hal_spi.c **** /**
2318:STM32Cube_FW_N6/Drivers/STM32N6xx_HAL_Driver/Src/stm32n6xx_hal_spi.c ****   * @brief  Transmit and Receive an amount of data in non-blocking mode with DMA.
2319:STM32Cube_FW_N6/Drivers/STM32N6xx_HAL_Driver/Src/stm32n6xx_hal_spi.c ****   * @param  hspi   : pointer to a SPI_HandleTypeDef structure that contains
2320:STM32Cube_FW_N6/Drivers/STM32N6xx_HAL_Driver/Src/stm32n6xx_hal_spi.c ****   *                  the configuration information for SPI module.
2321:STM32Cube_FW_N6/Drivers/STM32N6xx_HAL_Driver/Src/stm32n6xx_hal_spi.c ****   * @param  pTxData: pointer to transmission data buffer
2322:STM32Cube_FW_N6/Drivers/STM32N6xx_HAL_Driver/Src/stm32n6xx_hal_spi.c ****   * @param  pRxData: pointer to reception data buffer
2323:STM32Cube_FW_N6/Drivers/STM32N6xx_HAL_Driver/Src/stm32n6xx_hal_spi.c ****   * @param  Size   : amount of data to be sent
2324:STM32Cube_FW_N6/Drivers/STM32N6xx_HAL_Driver/Src/stm32n6xx_hal_spi.c ****   * @note   When the CRC feature is enabled the pRxData Length must be Size + 1
2325:STM32Cube_FW_N6/Drivers/STM32N6xx_HAL_Driver/Src/stm32n6xx_hal_spi.c ****   * @retval HAL status
2326:STM32Cube_FW_N6/Drivers/STM32N6xx_HAL_Driver/Src/stm32n6xx_hal_spi.c ****   */
2327:STM32Cube_FW_N6/Drivers/STM32N6xx_HAL_Driver/Src/stm32n6xx_hal_spi.c **** HAL_StatusTypeDef HAL_SPI_TransmitReceive_DMA(SPI_HandleTypeDef *hspi, const uint8_t *pTxData, uint
ARM GAS  /tmp/ccwTXtVb.s 			page 163


2328:STM32Cube_FW_N6/Drivers/STM32N6xx_HAL_Driver/Src/stm32n6xx_hal_spi.c ****                                               uint16_t Size)
2329:STM32Cube_FW_N6/Drivers/STM32N6xx_HAL_Driver/Src/stm32n6xx_hal_spi.c **** {
 6887              		.loc 1 2329 1
 6888              		.cfi_startproc
 6889              		@ args = 0, pretend = 0, frame = 24
 6890              		@ frame_needed = 1, uses_anonymous_args = 0
 6891 0000 80B5     		push	{r7, lr}
 6892              		.cfi_def_cfa_offset 8
 6893              		.cfi_offset 7, -8
 6894              		.cfi_offset 14, -4
 6895 0002 86B0     		sub	sp, sp, #24
 6896              		.cfi_def_cfa_offset 32
 6897 0004 00AF     		add	r7, sp, #0
 6898              		.cfi_def_cfa_register 7
 6899 0006 F860     		str	r0, [r7, #12]
 6900 0008 B960     		str	r1, [r7, #8]
 6901 000a 7A60     		str	r2, [r7, #4]
 6902 000c 7B80     		strh	r3, [r7, #2]	@ movhi
2330:STM32Cube_FW_N6/Drivers/STM32N6xx_HAL_Driver/Src/stm32n6xx_hal_spi.c ****   HAL_StatusTypeDef status;
2331:STM32Cube_FW_N6/Drivers/STM32N6xx_HAL_Driver/Src/stm32n6xx_hal_spi.c **** 
2332:STM32Cube_FW_N6/Drivers/STM32N6xx_HAL_Driver/Src/stm32n6xx_hal_spi.c ****   /* Check Direction parameter */
2333:STM32Cube_FW_N6/Drivers/STM32N6xx_HAL_Driver/Src/stm32n6xx_hal_spi.c ****   assert_param(IS_SPI_DIRECTION_2LINES(hspi->Init.Direction));
 6903              		.loc 1 2333 3
 6904 000e FB68     		ldr	r3, [r7, #12]
 6905 0010 9B68     		ldr	r3, [r3, #8]
 6906 0012 002B     		cmp	r3, #0
 6907 0014 04D0     		beq	.L313
 6908              		.loc 1 2333 3 is_stmt 0 discriminator 1
 6909 0016 40F61D11 		movw	r1, #2333
 6910 001a 9648     		ldr	r0, .L345
 6911 001c FFF7FEFF 		bl	assert_failed
 6912              	.L313:
2334:STM32Cube_FW_N6/Drivers/STM32N6xx_HAL_Driver/Src/stm32n6xx_hal_spi.c **** 
2335:STM32Cube_FW_N6/Drivers/STM32N6xx_HAL_Driver/Src/stm32n6xx_hal_spi.c ****   if (hspi->State != HAL_SPI_STATE_READY)
 6913              		.loc 1 2335 11 is_stmt 1
 6914 0020 FB68     		ldr	r3, [r7, #12]
 6915 0022 93F88930 		ldrb	r3, [r3, #137]
 6916 0026 DBB2     		uxtb	r3, r3
 6917              		.loc 1 2335 6
 6918 0028 012B     		cmp	r3, #1
 6919 002a 01D0     		beq	.L314
2336:STM32Cube_FW_N6/Drivers/STM32N6xx_HAL_Driver/Src/stm32n6xx_hal_spi.c ****   {
2337:STM32Cube_FW_N6/Drivers/STM32N6xx_HAL_Driver/Src/stm32n6xx_hal_spi.c ****     return HAL_BUSY;
 6920              		.loc 1 2337 12
 6921 002c 0223     		movs	r3, #2
 6922 002e 7EE2     		b	.L315
 6923              	.L314:
2338:STM32Cube_FW_N6/Drivers/STM32N6xx_HAL_Driver/Src/stm32n6xx_hal_spi.c ****   }
2339:STM32Cube_FW_N6/Drivers/STM32N6xx_HAL_Driver/Src/stm32n6xx_hal_spi.c **** 
2340:STM32Cube_FW_N6/Drivers/STM32N6xx_HAL_Driver/Src/stm32n6xx_hal_spi.c ****   if ((pTxData == NULL) || (pRxData == NULL) || (Size == 0UL))
 6924              		.loc 1 2340 6
 6925 0030 BB68     		ldr	r3, [r7, #8]
 6926 0032 002B     		cmp	r3, #0
 6927 0034 05D0     		beq	.L316
 6928              		.loc 1 2340 25 discriminator 1
 6929 0036 7B68     		ldr	r3, [r7, #4]
 6930 0038 002B     		cmp	r3, #0
ARM GAS  /tmp/ccwTXtVb.s 			page 164


 6931 003a 02D0     		beq	.L316
 6932              		.loc 1 2340 46 discriminator 2
 6933 003c 7B88     		ldrh	r3, [r7, #2]
 6934 003e 002B     		cmp	r3, #0
 6935 0040 01D1     		bne	.L317
 6936              	.L316:
2341:STM32Cube_FW_N6/Drivers/STM32N6xx_HAL_Driver/Src/stm32n6xx_hal_spi.c ****   {
2342:STM32Cube_FW_N6/Drivers/STM32N6xx_HAL_Driver/Src/stm32n6xx_hal_spi.c ****     return HAL_ERROR;
 6937              		.loc 1 2342 12
 6938 0042 0123     		movs	r3, #1
 6939 0044 73E2     		b	.L315
 6940              	.L317:
2343:STM32Cube_FW_N6/Drivers/STM32N6xx_HAL_Driver/Src/stm32n6xx_hal_spi.c ****   }
2344:STM32Cube_FW_N6/Drivers/STM32N6xx_HAL_Driver/Src/stm32n6xx_hal_spi.c **** 
2345:STM32Cube_FW_N6/Drivers/STM32N6xx_HAL_Driver/Src/stm32n6xx_hal_spi.c ****   /* Lock the process */
2346:STM32Cube_FW_N6/Drivers/STM32N6xx_HAL_Driver/Src/stm32n6xx_hal_spi.c ****   __HAL_LOCK(hspi);
 6941              		.loc 1 2346 3
 6942 0046 FB68     		ldr	r3, [r7, #12]
 6943 0048 93F88830 		ldrb	r3, [r3, #136]	@ zero_extendqisi2
 6944 004c 012B     		cmp	r3, #1
 6945 004e 01D1     		bne	.L318
 6946              		.loc 1 2346 3 is_stmt 0 discriminator 1
 6947 0050 0223     		movs	r3, #2
 6948              		.loc 1 2346 3
 6949 0052 6CE2     		b	.L315
 6950              	.L318:
 6951              		.loc 1 2346 3 discriminator 2
 6952 0054 FB68     		ldr	r3, [r7, #12]
 6953 0056 0122     		movs	r2, #1
 6954 0058 83F88820 		strb	r2, [r3, #136]
2347:STM32Cube_FW_N6/Drivers/STM32N6xx_HAL_Driver/Src/stm32n6xx_hal_spi.c **** 
2348:STM32Cube_FW_N6/Drivers/STM32N6xx_HAL_Driver/Src/stm32n6xx_hal_spi.c ****   /* Set the transaction information */
2349:STM32Cube_FW_N6/Drivers/STM32N6xx_HAL_Driver/Src/stm32n6xx_hal_spi.c ****   hspi->State       = HAL_SPI_STATE_BUSY_TX_RX;
 6955              		.loc 1 2349 21 is_stmt 1
 6956 005c FB68     		ldr	r3, [r7, #12]
 6957 005e 0522     		movs	r2, #5
 6958 0060 83F88920 		strb	r2, [r3, #137]
2350:STM32Cube_FW_N6/Drivers/STM32N6xx_HAL_Driver/Src/stm32n6xx_hal_spi.c ****   hspi->ErrorCode   = HAL_SPI_ERROR_NONE;
 6959              		.loc 1 2350 21
 6960 0064 FB68     		ldr	r3, [r7, #12]
 6961 0066 0022     		movs	r2, #0
 6962 0068 C3F88C20 		str	r2, [r3, #140]
2351:STM32Cube_FW_N6/Drivers/STM32N6xx_HAL_Driver/Src/stm32n6xx_hal_spi.c ****   hspi->pTxBuffPtr  = (const uint8_t *)pTxData;
 6963              		.loc 1 2351 21
 6964 006c FB68     		ldr	r3, [r7, #12]
 6965 006e BA68     		ldr	r2, [r7, #8]
 6966 0070 5A66     		str	r2, [r3, #100]
2352:STM32Cube_FW_N6/Drivers/STM32N6xx_HAL_Driver/Src/stm32n6xx_hal_spi.c ****   hspi->TxXferSize  = Size;
 6967              		.loc 1 2352 21
 6968 0072 FB68     		ldr	r3, [r7, #12]
 6969 0074 7A88     		ldrh	r2, [r7, #2]	@ movhi
 6970 0076 A3F86820 		strh	r2, [r3, #104]	@ movhi
2353:STM32Cube_FW_N6/Drivers/STM32N6xx_HAL_Driver/Src/stm32n6xx_hal_spi.c ****   hspi->TxXferCount = Size;
 6971              		.loc 1 2353 21
 6972 007a FB68     		ldr	r3, [r7, #12]
 6973 007c 7A88     		ldrh	r2, [r7, #2]	@ movhi
 6974 007e A3F86A20 		strh	r2, [r3, #106]	@ movhi
ARM GAS  /tmp/ccwTXtVb.s 			page 165


2354:STM32Cube_FW_N6/Drivers/STM32N6xx_HAL_Driver/Src/stm32n6xx_hal_spi.c ****   hspi->pRxBuffPtr  = (uint8_t *)pRxData;
 6975              		.loc 1 2354 21
 6976 0082 FB68     		ldr	r3, [r7, #12]
 6977 0084 7A68     		ldr	r2, [r7, #4]
 6978 0086 DA66     		str	r2, [r3, #108]
2355:STM32Cube_FW_N6/Drivers/STM32N6xx_HAL_Driver/Src/stm32n6xx_hal_spi.c ****   hspi->RxXferSize  = Size;
 6979              		.loc 1 2355 21
 6980 0088 FB68     		ldr	r3, [r7, #12]
 6981 008a 7A88     		ldrh	r2, [r7, #2]	@ movhi
 6982 008c A3F87020 		strh	r2, [r3, #112]	@ movhi
2356:STM32Cube_FW_N6/Drivers/STM32N6xx_HAL_Driver/Src/stm32n6xx_hal_spi.c ****   hspi->RxXferCount = Size;
 6983              		.loc 1 2356 21
 6984 0090 FB68     		ldr	r3, [r7, #12]
 6985 0092 7A88     		ldrh	r2, [r7, #2]	@ movhi
 6986 0094 A3F87220 		strh	r2, [r3, #114]	@ movhi
2357:STM32Cube_FW_N6/Drivers/STM32N6xx_HAL_Driver/Src/stm32n6xx_hal_spi.c **** 
2358:STM32Cube_FW_N6/Drivers/STM32N6xx_HAL_Driver/Src/stm32n6xx_hal_spi.c ****   /* Init field not used in handle to zero */
2359:STM32Cube_FW_N6/Drivers/STM32N6xx_HAL_Driver/Src/stm32n6xx_hal_spi.c ****   hspi->RxISR       = NULL;
 6987              		.loc 1 2359 21
 6988 0098 FB68     		ldr	r3, [r7, #12]
 6989 009a 0022     		movs	r2, #0
 6990 009c 9A67     		str	r2, [r3, #120]
2360:STM32Cube_FW_N6/Drivers/STM32N6xx_HAL_Driver/Src/stm32n6xx_hal_spi.c ****   hspi->TxISR       = NULL;
 6991              		.loc 1 2360 21
 6992 009e FB68     		ldr	r3, [r7, #12]
 6993 00a0 0022     		movs	r2, #0
 6994 00a2 DA67     		str	r2, [r3, #124]
2361:STM32Cube_FW_N6/Drivers/STM32N6xx_HAL_Driver/Src/stm32n6xx_hal_spi.c **** 
2362:STM32Cube_FW_N6/Drivers/STM32N6xx_HAL_Driver/Src/stm32n6xx_hal_spi.c ****   /* Set Full-Duplex mode */
2363:STM32Cube_FW_N6/Drivers/STM32N6xx_HAL_Driver/Src/stm32n6xx_hal_spi.c ****   SPI_2LINES(hspi);
 6995              		.loc 1 2363 3
 6996 00a4 FB68     		ldr	r3, [r7, #12]
 6997 00a6 1B68     		ldr	r3, [r3]
 6998 00a8 DA68     		ldr	r2, [r3, #12]
 6999 00aa FB68     		ldr	r3, [r7, #12]
 7000 00ac 1B68     		ldr	r3, [r3]
 7001 00ae 22F4C022 		bic	r2, r2, #393216
 7002 00b2 DA60     		str	r2, [r3, #12]
2364:STM32Cube_FW_N6/Drivers/STM32N6xx_HAL_Driver/Src/stm32n6xx_hal_spi.c **** 
2365:STM32Cube_FW_N6/Drivers/STM32N6xx_HAL_Driver/Src/stm32n6xx_hal_spi.c ****   /* Reset the Tx/Rx DMA bits */
2366:STM32Cube_FW_N6/Drivers/STM32N6xx_HAL_Driver/Src/stm32n6xx_hal_spi.c ****   CLEAR_BIT(hspi->Instance->CFG1, SPI_CFG1_TXDMAEN | SPI_CFG1_RXDMAEN);
 7003              		.loc 1 2366 3
 7004 00b4 FB68     		ldr	r3, [r7, #12]
 7005 00b6 1B68     		ldr	r3, [r3]
 7006 00b8 9A68     		ldr	r2, [r3, #8]
 7007 00ba FB68     		ldr	r3, [r7, #12]
 7008 00bc 1B68     		ldr	r3, [r3]
 7009 00be 22F44042 		bic	r2, r2, #49152
 7010 00c2 9A60     		str	r2, [r3, #8]
2367:STM32Cube_FW_N6/Drivers/STM32N6xx_HAL_Driver/Src/stm32n6xx_hal_spi.c **** 
2368:STM32Cube_FW_N6/Drivers/STM32N6xx_HAL_Driver/Src/stm32n6xx_hal_spi.c ****   /* Packing mode management is enabled by the DMA settings */
2369:STM32Cube_FW_N6/Drivers/STM32N6xx_HAL_Driver/Src/stm32n6xx_hal_spi.c ****   if (((hspi->Init.DataSize > SPI_DATASIZE_16BIT) && (hspi->hdmarx->Init.DestDataWidth != DMA_DEST_
 7011              		.loc 1 2369 19
 7012 00c4 FB68     		ldr	r3, [r7, #12]
 7013 00c6 DB68     		ldr	r3, [r3, #12]
 7014              		.loc 1 2369 6
 7015 00c8 0F2B     		cmp	r3, #15
ARM GAS  /tmp/ccwTXtVb.s 			page 166


 7016 00ca 2ED9     		bls	.L319
 7017              		.loc 1 2369 59 discriminator 1
 7018 00cc FB68     		ldr	r3, [r7, #12]
 7019 00ce D3F88430 		ldr	r3, [r3, #132]
 7020              		.loc 1 2369 73 discriminator 1
 7021 00d2 DB69     		ldr	r3, [r3, #28]
 7022              		.loc 1 2369 51 discriminator 1
 7023 00d4 B3F5003F 		cmp	r3, #131072
 7024 00d8 27D0     		beq	.L319
2370:STM32Cube_FW_N6/Drivers/STM32N6xx_HAL_Driver/Src/stm32n6xx_hal_spi.c ****        (IS_SPI_FULL_INSTANCE(hspi->Instance))) || \
 7025              		.loc 1 2370 9
 7026 00da FB68     		ldr	r3, [r7, #12]
 7027 00dc 1B68     		ldr	r3, [r3]
2369:STM32Cube_FW_N6/Drivers/STM32N6xx_HAL_Driver/Src/stm32n6xx_hal_spi.c ****        (IS_SPI_FULL_INSTANCE(hspi->Instance))) || \
 7028              		.loc 1 2369 116 discriminator 2
 7029 00de 664A     		ldr	r2, .L345+4
 7030 00e0 9342     		cmp	r3, r2
 7031 00e2 2CD0     		beq	.L320
 7032              		.loc 1 2370 9
 7033 00e4 FB68     		ldr	r3, [r7, #12]
 7034 00e6 1B68     		ldr	r3, [r3]
 7035 00e8 644A     		ldr	r2, .L345+8
 7036 00ea 9342     		cmp	r3, r2
 7037 00ec 27D0     		beq	.L320
 7038              		.loc 1 2370 9 is_stmt 0 discriminator 1
 7039 00ee FB68     		ldr	r3, [r7, #12]
 7040 00f0 1B68     		ldr	r3, [r3]
 7041 00f2 634A     		ldr	r2, .L345+12
 7042 00f4 9342     		cmp	r3, r2
 7043 00f6 22D0     		beq	.L320
 7044              		.loc 1 2370 9 discriminator 2
 7045 00f8 FB68     		ldr	r3, [r7, #12]
 7046 00fa 1B68     		ldr	r3, [r3]
 7047 00fc 614A     		ldr	r2, .L345+16
 7048 00fe 9342     		cmp	r3, r2
 7049 0100 1DD0     		beq	.L320
 7050              		.loc 1 2370 9 discriminator 3
 7051 0102 FB68     		ldr	r3, [r7, #12]
 7052 0104 1B68     		ldr	r3, [r3]
 7053 0106 604A     		ldr	r2, .L345+20
 7054 0108 9342     		cmp	r3, r2
 7055 010a 18D0     		beq	.L320
 7056              		.loc 1 2370 9 discriminator 4
 7057 010c FB68     		ldr	r3, [r7, #12]
 7058 010e 1B68     		ldr	r3, [r3]
 7059 0110 5E4A     		ldr	r2, .L345+24
 7060 0112 9342     		cmp	r3, r2
 7061 0114 13D0     		beq	.L320
 7062              		.loc 1 2370 9 discriminator 5
 7063 0116 FB68     		ldr	r3, [r7, #12]
 7064 0118 1B68     		ldr	r3, [r3]
 7065 011a 5D4A     		ldr	r2, .L345+28
 7066 011c 9342     		cmp	r3, r2
 7067 011e 0ED0     		beq	.L320
 7068              		.loc 1 2370 9 discriminator 6
 7069 0120 FB68     		ldr	r3, [r7, #12]
 7070 0122 1B68     		ldr	r3, [r3]
ARM GAS  /tmp/ccwTXtVb.s 			page 167


 7071 0124 5B4A     		ldr	r2, .L345+32
 7072 0126 9342     		cmp	r3, r2
 7073 0128 09D0     		beq	.L320
 7074              	.L319:
2371:STM32Cube_FW_N6/Drivers/STM32N6xx_HAL_Driver/Src/stm32n6xx_hal_spi.c ****       ((hspi->Init.DataSize > SPI_DATASIZE_8BIT)  && (hspi->hdmarx->Init.DestDataWidth == DMA_DEST_
 7075              		.loc 1 2371 19 is_stmt 1
 7076 012a FB68     		ldr	r3, [r7, #12]
 7077 012c DB68     		ldr	r3, [r3, #12]
2370:STM32Cube_FW_N6/Drivers/STM32N6xx_HAL_Driver/Src/stm32n6xx_hal_spi.c ****        (IS_SPI_FULL_INSTANCE(hspi->Instance))) || \
 7078              		.loc 1 2370 48 discriminator 7
 7079 012e 072B     		cmp	r3, #7
 7080 0130 0BD9     		bls	.L321
 7081              		.loc 1 2371 59
 7082 0132 FB68     		ldr	r3, [r7, #12]
 7083 0134 D3F88430 		ldr	r3, [r3, #132]
 7084              		.loc 1 2371 73
 7085 0138 DB69     		ldr	r3, [r3, #28]
 7086              		.loc 1 2371 51
 7087 013a 002B     		cmp	r3, #0
 7088 013c 05D1     		bne	.L321
 7089              	.L320:
2372:STM32Cube_FW_N6/Drivers/STM32N6xx_HAL_Driver/Src/stm32n6xx_hal_spi.c ****   {
2373:STM32Cube_FW_N6/Drivers/STM32N6xx_HAL_Driver/Src/stm32n6xx_hal_spi.c ****     /* Restriction the DMA data received is not allowed in this mode */
2374:STM32Cube_FW_N6/Drivers/STM32N6xx_HAL_Driver/Src/stm32n6xx_hal_spi.c ****     /* Unlock the process */
2375:STM32Cube_FW_N6/Drivers/STM32N6xx_HAL_Driver/Src/stm32n6xx_hal_spi.c ****     __HAL_UNLOCK(hspi);
 7090              		.loc 1 2375 5
 7091 013e FB68     		ldr	r3, [r7, #12]
 7092 0140 0022     		movs	r2, #0
 7093 0142 83F88820 		strb	r2, [r3, #136]
2376:STM32Cube_FW_N6/Drivers/STM32N6xx_HAL_Driver/Src/stm32n6xx_hal_spi.c ****     return HAL_ERROR;
 7094              		.loc 1 2376 12
 7095 0146 0123     		movs	r3, #1
 7096 0148 F1E1     		b	.L315
 7097              	.L321:
2377:STM32Cube_FW_N6/Drivers/STM32N6xx_HAL_Driver/Src/stm32n6xx_hal_spi.c ****   }
2378:STM32Cube_FW_N6/Drivers/STM32N6xx_HAL_Driver/Src/stm32n6xx_hal_spi.c **** 
2379:STM32Cube_FW_N6/Drivers/STM32N6xx_HAL_Driver/Src/stm32n6xx_hal_spi.c ****   /* Adjust XferCount according to DMA alignment / Data size */
2380:STM32Cube_FW_N6/Drivers/STM32N6xx_HAL_Driver/Src/stm32n6xx_hal_spi.c ****   if (hspi->Init.DataSize <= SPI_DATASIZE_8BIT)
 7098              		.loc 1 2380 17
 7099 014a FB68     		ldr	r3, [r7, #12]
 7100 014c DB68     		ldr	r3, [r3, #12]
 7101              		.loc 1 2380 6
 7102 014e 072B     		cmp	r3, #7
 7103 0150 42D8     		bhi	.L322
2381:STM32Cube_FW_N6/Drivers/STM32N6xx_HAL_Driver/Src/stm32n6xx_hal_spi.c ****   {
2382:STM32Cube_FW_N6/Drivers/STM32N6xx_HAL_Driver/Src/stm32n6xx_hal_spi.c ****     if (hspi->hdmatx->Init.SrcDataWidth == DMA_SRC_DATAWIDTH_HALFWORD)
 7104              		.loc 1 2382 13
 7105 0152 FB68     		ldr	r3, [r7, #12]
 7106 0154 D3F88030 		ldr	r3, [r3, #128]
 7107              		.loc 1 2382 27
 7108 0158 9B69     		ldr	r3, [r3, #24]
 7109              		.loc 1 2382 8
 7110 015a 012B     		cmp	r3, #1
 7111 015c 09D1     		bne	.L323
2383:STM32Cube_FW_N6/Drivers/STM32N6xx_HAL_Driver/Src/stm32n6xx_hal_spi.c ****     {
2384:STM32Cube_FW_N6/Drivers/STM32N6xx_HAL_Driver/Src/stm32n6xx_hal_spi.c ****       hspi->TxXferCount = (hspi->TxXferCount + (uint16_t) 1UL) >> 1UL;
 7112              		.loc 1 2384 32
ARM GAS  /tmp/ccwTXtVb.s 			page 168


 7113 015e FB68     		ldr	r3, [r7, #12]
 7114 0160 B3F86A30 		ldrh	r3, [r3, #106]	@ movhi
 7115 0164 9BB2     		uxth	r3, r3
 7116              		.loc 1 2384 46
 7117 0166 0133     		adds	r3, r3, #1
 7118              		.loc 1 2384 64
 7119 0168 5B10     		asrs	r3, r3, #1
 7120              		.loc 1 2384 25
 7121 016a 9AB2     		uxth	r2, r3
 7122 016c FB68     		ldr	r3, [r7, #12]
 7123 016e A3F86A20 		strh	r2, [r3, #106]	@ movhi
 7124              	.L323:
2385:STM32Cube_FW_N6/Drivers/STM32N6xx_HAL_Driver/Src/stm32n6xx_hal_spi.c ****     }
2386:STM32Cube_FW_N6/Drivers/STM32N6xx_HAL_Driver/Src/stm32n6xx_hal_spi.c ****     if (hspi->hdmatx->Init.SrcDataWidth == DMA_SRC_DATAWIDTH_WORD)
 7125              		.loc 1 2386 13
 7126 0172 FB68     		ldr	r3, [r7, #12]
 7127 0174 D3F88030 		ldr	r3, [r3, #128]
 7128              		.loc 1 2386 27
 7129 0178 9B69     		ldr	r3, [r3, #24]
 7130              		.loc 1 2386 8
 7131 017a 022B     		cmp	r3, #2
 7132 017c 09D1     		bne	.L324
2387:STM32Cube_FW_N6/Drivers/STM32N6xx_HAL_Driver/Src/stm32n6xx_hal_spi.c ****     {
2388:STM32Cube_FW_N6/Drivers/STM32N6xx_HAL_Driver/Src/stm32n6xx_hal_spi.c ****       hspi->TxXferCount = (hspi->TxXferCount + (uint16_t) 3UL) >> 2UL;
 7133              		.loc 1 2388 32
 7134 017e FB68     		ldr	r3, [r7, #12]
 7135 0180 B3F86A30 		ldrh	r3, [r3, #106]	@ movhi
 7136 0184 9BB2     		uxth	r3, r3
 7137              		.loc 1 2388 46
 7138 0186 0333     		adds	r3, r3, #3
 7139              		.loc 1 2388 64
 7140 0188 9B10     		asrs	r3, r3, #2
 7141              		.loc 1 2388 25
 7142 018a 9AB2     		uxth	r2, r3
 7143 018c FB68     		ldr	r3, [r7, #12]
 7144 018e A3F86A20 		strh	r2, [r3, #106]	@ movhi
 7145              	.L324:
2389:STM32Cube_FW_N6/Drivers/STM32N6xx_HAL_Driver/Src/stm32n6xx_hal_spi.c ****     }
2390:STM32Cube_FW_N6/Drivers/STM32N6xx_HAL_Driver/Src/stm32n6xx_hal_spi.c ****     if (hspi->hdmarx->Init.DestDataWidth == DMA_DEST_DATAWIDTH_HALFWORD)
 7146              		.loc 1 2390 13
 7147 0192 FB68     		ldr	r3, [r7, #12]
 7148 0194 D3F88430 		ldr	r3, [r3, #132]
 7149              		.loc 1 2390 27
 7150 0198 DB69     		ldr	r3, [r3, #28]
 7151              		.loc 1 2390 8
 7152 019a B3F5803F 		cmp	r3, #65536
 7153 019e 09D1     		bne	.L325
2391:STM32Cube_FW_N6/Drivers/STM32N6xx_HAL_Driver/Src/stm32n6xx_hal_spi.c ****     {
2392:STM32Cube_FW_N6/Drivers/STM32N6xx_HAL_Driver/Src/stm32n6xx_hal_spi.c ****       hspi->RxXferCount = (hspi->RxXferCount + (uint16_t) 1UL) >> 1UL;
 7154              		.loc 1 2392 32
 7155 01a0 FB68     		ldr	r3, [r7, #12]
 7156 01a2 B3F87230 		ldrh	r3, [r3, #114]	@ movhi
 7157 01a6 9BB2     		uxth	r3, r3
 7158              		.loc 1 2392 46
 7159 01a8 0133     		adds	r3, r3, #1
 7160              		.loc 1 2392 64
 7161 01aa 5B10     		asrs	r3, r3, #1
ARM GAS  /tmp/ccwTXtVb.s 			page 169


 7162              		.loc 1 2392 25
 7163 01ac 9AB2     		uxth	r2, r3
 7164 01ae FB68     		ldr	r3, [r7, #12]
 7165 01b0 A3F87220 		strh	r2, [r3, #114]	@ movhi
 7166              	.L325:
2393:STM32Cube_FW_N6/Drivers/STM32N6xx_HAL_Driver/Src/stm32n6xx_hal_spi.c ****     }
2394:STM32Cube_FW_N6/Drivers/STM32N6xx_HAL_Driver/Src/stm32n6xx_hal_spi.c ****     if (hspi->hdmarx->Init.DestDataWidth == DMA_DEST_DATAWIDTH_WORD)
 7167              		.loc 1 2394 13
 7168 01b4 FB68     		ldr	r3, [r7, #12]
 7169 01b6 D3F88430 		ldr	r3, [r3, #132]
 7170              		.loc 1 2394 27
 7171 01ba DB69     		ldr	r3, [r3, #28]
 7172              		.loc 1 2394 8
 7173 01bc B3F5003F 		cmp	r3, #131072
 7174 01c0 2FD1     		bne	.L326
2395:STM32Cube_FW_N6/Drivers/STM32N6xx_HAL_Driver/Src/stm32n6xx_hal_spi.c ****     {
2396:STM32Cube_FW_N6/Drivers/STM32N6xx_HAL_Driver/Src/stm32n6xx_hal_spi.c ****       hspi->RxXferCount = (hspi->RxXferCount + (uint16_t) 3UL) >> 2UL;
 7175              		.loc 1 2396 32
 7176 01c2 FB68     		ldr	r3, [r7, #12]
 7177 01c4 B3F87230 		ldrh	r3, [r3, #114]	@ movhi
 7178 01c8 9BB2     		uxth	r3, r3
 7179              		.loc 1 2396 46
 7180 01ca 0333     		adds	r3, r3, #3
 7181              		.loc 1 2396 64
 7182 01cc 9B10     		asrs	r3, r3, #2
 7183              		.loc 1 2396 25
 7184 01ce 9AB2     		uxth	r2, r3
 7185 01d0 FB68     		ldr	r3, [r7, #12]
 7186 01d2 A3F87220 		strh	r2, [r3, #114]	@ movhi
 7187 01d6 24E0     		b	.L326
 7188              	.L322:
2397:STM32Cube_FW_N6/Drivers/STM32N6xx_HAL_Driver/Src/stm32n6xx_hal_spi.c ****     }
2398:STM32Cube_FW_N6/Drivers/STM32N6xx_HAL_Driver/Src/stm32n6xx_hal_spi.c ****   }
2399:STM32Cube_FW_N6/Drivers/STM32N6xx_HAL_Driver/Src/stm32n6xx_hal_spi.c ****   else if (hspi->Init.DataSize <= SPI_DATASIZE_16BIT)
 7189              		.loc 1 2399 22
 7190 01d8 FB68     		ldr	r3, [r7, #12]
 7191 01da DB68     		ldr	r3, [r3, #12]
 7192              		.loc 1 2399 11
 7193 01dc 0F2B     		cmp	r3, #15
 7194 01de 20D8     		bhi	.L326
2400:STM32Cube_FW_N6/Drivers/STM32N6xx_HAL_Driver/Src/stm32n6xx_hal_spi.c ****   {
2401:STM32Cube_FW_N6/Drivers/STM32N6xx_HAL_Driver/Src/stm32n6xx_hal_spi.c ****     if (hspi->hdmatx->Init.SrcDataWidth == DMA_SRC_DATAWIDTH_WORD)
 7195              		.loc 1 2401 13
 7196 01e0 FB68     		ldr	r3, [r7, #12]
 7197 01e2 D3F88030 		ldr	r3, [r3, #128]
 7198              		.loc 1 2401 27
 7199 01e6 9B69     		ldr	r3, [r3, #24]
 7200              		.loc 1 2401 8
 7201 01e8 022B     		cmp	r3, #2
 7202 01ea 09D1     		bne	.L327
2402:STM32Cube_FW_N6/Drivers/STM32N6xx_HAL_Driver/Src/stm32n6xx_hal_spi.c ****     {
2403:STM32Cube_FW_N6/Drivers/STM32N6xx_HAL_Driver/Src/stm32n6xx_hal_spi.c ****       hspi->TxXferCount = (hspi->TxXferCount + (uint16_t) 1UL) >> 1UL;
 7203              		.loc 1 2403 32
 7204 01ec FB68     		ldr	r3, [r7, #12]
 7205 01ee B3F86A30 		ldrh	r3, [r3, #106]	@ movhi
 7206 01f2 9BB2     		uxth	r3, r3
 7207              		.loc 1 2403 46
ARM GAS  /tmp/ccwTXtVb.s 			page 170


 7208 01f4 0133     		adds	r3, r3, #1
 7209              		.loc 1 2403 64
 7210 01f6 5B10     		asrs	r3, r3, #1
 7211              		.loc 1 2403 25
 7212 01f8 9AB2     		uxth	r2, r3
 7213 01fa FB68     		ldr	r3, [r7, #12]
 7214 01fc A3F86A20 		strh	r2, [r3, #106]	@ movhi
 7215              	.L327:
2404:STM32Cube_FW_N6/Drivers/STM32N6xx_HAL_Driver/Src/stm32n6xx_hal_spi.c ****     }
2405:STM32Cube_FW_N6/Drivers/STM32N6xx_HAL_Driver/Src/stm32n6xx_hal_spi.c ****     if (hspi->hdmarx->Init.DestDataWidth == DMA_DEST_DATAWIDTH_WORD)
 7216              		.loc 1 2405 13
 7217 0200 FB68     		ldr	r3, [r7, #12]
 7218 0202 D3F88430 		ldr	r3, [r3, #132]
 7219              		.loc 1 2405 27
 7220 0206 DB69     		ldr	r3, [r3, #28]
 7221              		.loc 1 2405 8
 7222 0208 B3F5003F 		cmp	r3, #131072
 7223 020c 09D1     		bne	.L326
2406:STM32Cube_FW_N6/Drivers/STM32N6xx_HAL_Driver/Src/stm32n6xx_hal_spi.c ****     {
2407:STM32Cube_FW_N6/Drivers/STM32N6xx_HAL_Driver/Src/stm32n6xx_hal_spi.c ****       hspi->RxXferCount = (hspi->RxXferCount + (uint16_t) 1UL) >> 1UL;
 7224              		.loc 1 2407 32
 7225 020e FB68     		ldr	r3, [r7, #12]
 7226 0210 B3F87230 		ldrh	r3, [r3, #114]	@ movhi
 7227 0214 9BB2     		uxth	r3, r3
 7228              		.loc 1 2407 46
 7229 0216 0133     		adds	r3, r3, #1
 7230              		.loc 1 2407 64
 7231 0218 5B10     		asrs	r3, r3, #1
 7232              		.loc 1 2407 25
 7233 021a 9AB2     		uxth	r2, r3
 7234 021c FB68     		ldr	r3, [r7, #12]
 7235 021e A3F87220 		strh	r2, [r3, #114]	@ movhi
 7236              	.L326:
2408:STM32Cube_FW_N6/Drivers/STM32N6xx_HAL_Driver/Src/stm32n6xx_hal_spi.c ****     }
2409:STM32Cube_FW_N6/Drivers/STM32N6xx_HAL_Driver/Src/stm32n6xx_hal_spi.c ****   }
2410:STM32Cube_FW_N6/Drivers/STM32N6xx_HAL_Driver/Src/stm32n6xx_hal_spi.c ****   else
2411:STM32Cube_FW_N6/Drivers/STM32N6xx_HAL_Driver/Src/stm32n6xx_hal_spi.c ****   {
2412:STM32Cube_FW_N6/Drivers/STM32N6xx_HAL_Driver/Src/stm32n6xx_hal_spi.c ****     /* Adjustment done */
2413:STM32Cube_FW_N6/Drivers/STM32N6xx_HAL_Driver/Src/stm32n6xx_hal_spi.c ****   }
2414:STM32Cube_FW_N6/Drivers/STM32N6xx_HAL_Driver/Src/stm32n6xx_hal_spi.c **** 
2415:STM32Cube_FW_N6/Drivers/STM32N6xx_HAL_Driver/Src/stm32n6xx_hal_spi.c ****   /* Set the SPI Tx/Rx DMA Half transfer complete callback */
2416:STM32Cube_FW_N6/Drivers/STM32N6xx_HAL_Driver/Src/stm32n6xx_hal_spi.c ****   hspi->hdmarx->XferHalfCpltCallback = SPI_DMAHalfTransmitReceiveCplt;
 7237              		.loc 1 2416 7
 7238 0222 FB68     		ldr	r3, [r7, #12]
 7239 0224 D3F88430 		ldr	r3, [r3, #132]
 7240              		.loc 1 2416 38
 7241 0228 1B4A     		ldr	r2, .L345+36
 7242 022a 5A66     		str	r2, [r3, #100]
2417:STM32Cube_FW_N6/Drivers/STM32N6xx_HAL_Driver/Src/stm32n6xx_hal_spi.c ****   hspi->hdmarx->XferCpltCallback     = SPI_DMATransmitReceiveCplt;
 7243              		.loc 1 2417 7
 7244 022c FB68     		ldr	r3, [r7, #12]
 7245 022e D3F88430 		ldr	r3, [r3, #132]
 7246              		.loc 1 2417 38
 7247 0232 1A4A     		ldr	r2, .L345+40
 7248 0234 1A66     		str	r2, [r3, #96]
2418:STM32Cube_FW_N6/Drivers/STM32N6xx_HAL_Driver/Src/stm32n6xx_hal_spi.c **** 
2419:STM32Cube_FW_N6/Drivers/STM32N6xx_HAL_Driver/Src/stm32n6xx_hal_spi.c ****   /* Set the DMA error callback */
ARM GAS  /tmp/ccwTXtVb.s 			page 171


2420:STM32Cube_FW_N6/Drivers/STM32N6xx_HAL_Driver/Src/stm32n6xx_hal_spi.c ****   hspi->hdmarx->XferErrorCallback = SPI_DMAError;
 7249              		.loc 1 2420 7
 7250 0236 FB68     		ldr	r3, [r7, #12]
 7251 0238 D3F88430 		ldr	r3, [r3, #132]
 7252              		.loc 1 2420 35
 7253 023c 184A     		ldr	r2, .L345+44
 7254 023e 9A66     		str	r2, [r3, #104]
2421:STM32Cube_FW_N6/Drivers/STM32N6xx_HAL_Driver/Src/stm32n6xx_hal_spi.c **** 
2422:STM32Cube_FW_N6/Drivers/STM32N6xx_HAL_Driver/Src/stm32n6xx_hal_spi.c ****   /* Set the DMA AbortCallback */
2423:STM32Cube_FW_N6/Drivers/STM32N6xx_HAL_Driver/Src/stm32n6xx_hal_spi.c ****   hspi->hdmarx->XferAbortCallback = NULL;
 7255              		.loc 1 2423 7
 7256 0240 FB68     		ldr	r3, [r7, #12]
 7257 0242 D3F88430 		ldr	r3, [r3, #132]
 7258              		.loc 1 2423 35
 7259 0246 0022     		movs	r2, #0
 7260 0248 DA66     		str	r2, [r3, #108]
2424:STM32Cube_FW_N6/Drivers/STM32N6xx_HAL_Driver/Src/stm32n6xx_hal_spi.c **** 
2425:STM32Cube_FW_N6/Drivers/STM32N6xx_HAL_Driver/Src/stm32n6xx_hal_spi.c ****   if (hspi->Init.DataSize <= SPI_DATASIZE_8BIT)
 7261              		.loc 1 2425 17
 7262 024a FB68     		ldr	r3, [r7, #12]
 7263 024c DB68     		ldr	r3, [r3, #12]
 7264              		.loc 1 2425 6
 7265 024e 072B     		cmp	r3, #7
 7266 0250 04D8     		bhi	.L328
2426:STM32Cube_FW_N6/Drivers/STM32N6xx_HAL_Driver/Src/stm32n6xx_hal_spi.c ****   {
2427:STM32Cube_FW_N6/Drivers/STM32N6xx_HAL_Driver/Src/stm32n6xx_hal_spi.c ****     hspi->RxXferCount = Size;
 7267              		.loc 1 2427 23
 7268 0252 FB68     		ldr	r3, [r7, #12]
 7269 0254 7A88     		ldrh	r2, [r7, #2]	@ movhi
 7270 0256 A3F87220 		strh	r2, [r3, #114]	@ movhi
 7271 025a 29E0     		b	.L329
 7272              	.L328:
2428:STM32Cube_FW_N6/Drivers/STM32N6xx_HAL_Driver/Src/stm32n6xx_hal_spi.c ****   }
2429:STM32Cube_FW_N6/Drivers/STM32N6xx_HAL_Driver/Src/stm32n6xx_hal_spi.c ****   else if (hspi->Init.DataSize <= SPI_DATASIZE_16BIT)
 7273              		.loc 1 2429 22
 7274 025c FB68     		ldr	r3, [r7, #12]
 7275 025e DB68     		ldr	r3, [r3, #12]
 7276              		.loc 1 2429 11
 7277 0260 0F2B     		cmp	r3, #15
 7278 0262 1FD8     		bhi	.L330
2430:STM32Cube_FW_N6/Drivers/STM32N6xx_HAL_Driver/Src/stm32n6xx_hal_spi.c ****   {
2431:STM32Cube_FW_N6/Drivers/STM32N6xx_HAL_Driver/Src/stm32n6xx_hal_spi.c ****     hspi->RxXferCount = Size * 2U;
 7279              		.loc 1 2431 30
 7280 0264 7B88     		ldrh	r3, [r7, #2]	@ movhi
 7281 0266 5B00     		lsls	r3, r3, #1
 7282 0268 9AB2     		uxth	r2, r3
 7283              		.loc 1 2431 23
 7284 026a FB68     		ldr	r3, [r7, #12]
 7285 026c A3F87220 		strh	r2, [r3, #114]	@ movhi
 7286 0270 1EE0     		b	.L329
 7287              	.L346:
 7288 0272 00BF     		.align	2
 7289              	.L345:
 7290 0274 00000000 		.word	.LC0
 7291 0278 00300052 		.word	1375744000
 7292 027c 00300042 		.word	1107308544
 7293 0280 00380050 		.word	1342191616
ARM GAS  /tmp/ccwTXtVb.s 			page 172


 7294 0284 00380040 		.word	1073756160
 7295 0288 003C0050 		.word	1342192640
 7296 028c 003C0040 		.word	1073757184
 7297 0290 00140056 		.word	1442845696
 7298 0294 00140046 		.word	1174410240
 7299 0298 00000000 		.word	SPI_DMAHalfTransmitReceiveCplt
 7300 029c 00000000 		.word	SPI_DMATransmitReceiveCplt
 7301 02a0 00000000 		.word	SPI_DMAError
 7302              	.L330:
2432:STM32Cube_FW_N6/Drivers/STM32N6xx_HAL_Driver/Src/stm32n6xx_hal_spi.c ****   }
2433:STM32Cube_FW_N6/Drivers/STM32N6xx_HAL_Driver/Src/stm32n6xx_hal_spi.c ****   else
2434:STM32Cube_FW_N6/Drivers/STM32N6xx_HAL_Driver/Src/stm32n6xx_hal_spi.c ****   {
2435:STM32Cube_FW_N6/Drivers/STM32N6xx_HAL_Driver/Src/stm32n6xx_hal_spi.c ****     hspi->RxXferCount = Size * 4U;
 7303              		.loc 1 2435 30
 7304 02a4 7B88     		ldrh	r3, [r7, #2]	@ movhi
 7305 02a6 9B00     		lsls	r3, r3, #2
 7306 02a8 9AB2     		uxth	r2, r3
 7307              		.loc 1 2435 23
 7308 02aa FB68     		ldr	r3, [r7, #12]
 7309 02ac A3F87220 		strh	r2, [r3, #114]	@ movhi
 7310              	.L329:
2436:STM32Cube_FW_N6/Drivers/STM32N6xx_HAL_Driver/Src/stm32n6xx_hal_spi.c ****   }
2437:STM32Cube_FW_N6/Drivers/STM32N6xx_HAL_Driver/Src/stm32n6xx_hal_spi.c ****   /* Enable the Rx DMA Stream/Channel  */
2438:STM32Cube_FW_N6/Drivers/STM32N6xx_HAL_Driver/Src/stm32n6xx_hal_spi.c ****   if ((hspi->hdmarx->Mode & DMA_LINKEDLIST) == DMA_LINKEDLIST)
 7311              		.loc 1 2438 12
 7312 02b0 FB68     		ldr	r3, [r7, #12]
 7313 02b2 D3F88430 		ldr	r3, [r3, #132]
 7314              		.loc 1 2438 20
 7315 02b6 1B6D     		ldr	r3, [r3, #80]
 7316              		.loc 1 2438 27
 7317 02b8 03F08003 		and	r3, r3, #128
 7318              		.loc 1 2438 6
 7319 02bc 002B     		cmp	r3, #0
 7320 02be 2DD0     		beq	.L331
2439:STM32Cube_FW_N6/Drivers/STM32N6xx_HAL_Driver/Src/stm32n6xx_hal_spi.c ****   {
2440:STM32Cube_FW_N6/Drivers/STM32N6xx_HAL_Driver/Src/stm32n6xx_hal_spi.c ****     if (hspi->hdmarx->LinkedListQueue != NULL)
 7321              		.loc 1 2440 13
 7322 02c0 FB68     		ldr	r3, [r7, #12]
 7323 02c2 D3F88430 		ldr	r3, [r3, #132]
 7324              		.loc 1 2440 21
 7325 02c6 5B6F     		ldr	r3, [r3, #116]
 7326              		.loc 1 2440 8
 7327 02c8 002B     		cmp	r3, #0
 7328 02ca 24D0     		beq	.L332
2441:STM32Cube_FW_N6/Drivers/STM32N6xx_HAL_Driver/Src/stm32n6xx_hal_spi.c ****     {
2442:STM32Cube_FW_N6/Drivers/STM32N6xx_HAL_Driver/Src/stm32n6xx_hal_spi.c ****       /* Set DMA data size */
2443:STM32Cube_FW_N6/Drivers/STM32N6xx_HAL_Driver/Src/stm32n6xx_hal_spi.c ****       hspi->hdmarx->LinkedListQueue->Head->LinkRegisters[NODE_CBR1_DEFAULT_OFFSET] = hspi->RxXferCo
 7329              		.loc 1 2443 90
 7330 02cc FB68     		ldr	r3, [r7, #12]
 7331 02ce B3F87230 		ldrh	r3, [r3, #114]	@ movhi
 7332 02d2 9AB2     		uxth	r2, r3
 7333              		.loc 1 2443 11
 7334 02d4 FB68     		ldr	r3, [r7, #12]
 7335 02d6 D3F88430 		ldr	r3, [r3, #132]
 7336              		.loc 1 2443 19
 7337 02da 5B6F     		ldr	r3, [r3, #116]
 7338              		.loc 1 2443 36
ARM GAS  /tmp/ccwTXtVb.s 			page 173


 7339 02dc 1B68     		ldr	r3, [r3]
 7340              		.loc 1 2443 84
 7341 02de 9A60     		str	r2, [r3, #8]
2444:STM32Cube_FW_N6/Drivers/STM32N6xx_HAL_Driver/Src/stm32n6xx_hal_spi.c **** 
2445:STM32Cube_FW_N6/Drivers/STM32N6xx_HAL_Driver/Src/stm32n6xx_hal_spi.c ****       /* Set DMA source address */
2446:STM32Cube_FW_N6/Drivers/STM32N6xx_HAL_Driver/Src/stm32n6xx_hal_spi.c ****       hspi->hdmarx->LinkedListQueue->Head->LinkRegisters[NODE_CSAR_DEFAULT_OFFSET] = (uint32_t)&hsp
 7342              		.loc 1 2446 101
 7343 02e0 FB68     		ldr	r3, [r7, #12]
 7344 02e2 1B68     		ldr	r3, [r3]
 7345              		.loc 1 2446 96
 7346 02e4 03F13002 		add	r2, r3, #48
 7347              		.loc 1 2446 11
 7348 02e8 FB68     		ldr	r3, [r7, #12]
 7349 02ea D3F88430 		ldr	r3, [r3, #132]
 7350              		.loc 1 2446 19
 7351 02ee 5B6F     		ldr	r3, [r3, #116]
 7352              		.loc 1 2446 36
 7353 02f0 1B68     		ldr	r3, [r3]
 7354              		.loc 1 2446 84
 7355 02f2 DA60     		str	r2, [r3, #12]
2447:STM32Cube_FW_N6/Drivers/STM32N6xx_HAL_Driver/Src/stm32n6xx_hal_spi.c **** 
2448:STM32Cube_FW_N6/Drivers/STM32N6xx_HAL_Driver/Src/stm32n6xx_hal_spi.c ****       /* Set DMA destination address */
2449:STM32Cube_FW_N6/Drivers/STM32N6xx_HAL_Driver/Src/stm32n6xx_hal_spi.c ****       hspi->hdmarx->LinkedListQueue->Head->LinkRegisters[NODE_CDAR_DEFAULT_OFFSET] = (uint32_t)hspi
 7356              		.loc 1 2449 100
 7357 02f4 FB68     		ldr	r3, [r7, #12]
 7358 02f6 DA6E     		ldr	r2, [r3, #108]
 7359              		.loc 1 2449 11
 7360 02f8 FB68     		ldr	r3, [r7, #12]
 7361 02fa D3F88430 		ldr	r3, [r3, #132]
 7362              		.loc 1 2449 19
 7363 02fe 5B6F     		ldr	r3, [r3, #116]
 7364              		.loc 1 2449 36
 7365 0300 1B68     		ldr	r3, [r3]
 7366              		.loc 1 2449 84
 7367 0302 1A61     		str	r2, [r3, #16]
2450:STM32Cube_FW_N6/Drivers/STM32N6xx_HAL_Driver/Src/stm32n6xx_hal_spi.c **** 
2451:STM32Cube_FW_N6/Drivers/STM32N6xx_HAL_Driver/Src/stm32n6xx_hal_spi.c ****       status = HAL_DMAEx_List_Start_IT(hspi->hdmarx);
 7368              		.loc 1 2451 16
 7369 0304 FB68     		ldr	r3, [r7, #12]
 7370 0306 D3F88430 		ldr	r3, [r3, #132]
 7371 030a 1846     		mov	r0, r3
 7372 030c FFF7FEFF 		bl	HAL_DMAEx_List_Start_IT
 7373 0310 0346     		mov	r3, r0
 7374 0312 FB75     		strb	r3, [r7, #23]
 7375 0314 14E0     		b	.L333
 7376              	.L332:
2452:STM32Cube_FW_N6/Drivers/STM32N6xx_HAL_Driver/Src/stm32n6xx_hal_spi.c ****     }
2453:STM32Cube_FW_N6/Drivers/STM32N6xx_HAL_Driver/Src/stm32n6xx_hal_spi.c ****     else
2454:STM32Cube_FW_N6/Drivers/STM32N6xx_HAL_Driver/Src/stm32n6xx_hal_spi.c ****     {
2455:STM32Cube_FW_N6/Drivers/STM32N6xx_HAL_Driver/Src/stm32n6xx_hal_spi.c ****       status = HAL_ERROR;
 7377              		.loc 1 2455 14
 7378 0316 0123     		movs	r3, #1
 7379 0318 FB75     		strb	r3, [r7, #23]
 7380 031a 11E0     		b	.L333
 7381              	.L331:
2456:STM32Cube_FW_N6/Drivers/STM32N6xx_HAL_Driver/Src/stm32n6xx_hal_spi.c ****     }
2457:STM32Cube_FW_N6/Drivers/STM32N6xx_HAL_Driver/Src/stm32n6xx_hal_spi.c ****   }
ARM GAS  /tmp/ccwTXtVb.s 			page 174


2458:STM32Cube_FW_N6/Drivers/STM32N6xx_HAL_Driver/Src/stm32n6xx_hal_spi.c ****   else
2459:STM32Cube_FW_N6/Drivers/STM32N6xx_HAL_Driver/Src/stm32n6xx_hal_spi.c ****   {
2460:STM32Cube_FW_N6/Drivers/STM32N6xx_HAL_Driver/Src/stm32n6xx_hal_spi.c ****     status = HAL_DMA_Start_IT(hspi->hdmarx, (uint32_t)&hspi->Instance->RXDR, (uint32_t)hspi->pRxBuf
 7382              		.loc 1 2460 14
 7383 031c FB68     		ldr	r3, [r7, #12]
 7384 031e D3F88400 		ldr	r0, [r3, #132]
 7385              		.loc 1 2460 60
 7386 0322 FB68     		ldr	r3, [r7, #12]
 7387 0324 1B68     		ldr	r3, [r3]
 7388              		.loc 1 2460 55
 7389 0326 3033     		adds	r3, r3, #48
 7390              		.loc 1 2460 14
 7391 0328 1946     		mov	r1, r3
 7392              		.loc 1 2460 92
 7393 032a FB68     		ldr	r3, [r7, #12]
 7394 032c DB6E     		ldr	r3, [r3, #108]
 7395              		.loc 1 2460 14
 7396 032e 1A46     		mov	r2, r3
2461:STM32Cube_FW_N6/Drivers/STM32N6xx_HAL_Driver/Src/stm32n6xx_hal_spi.c ****                               hspi->RxXferCount);
 7397              		.loc 1 2461 35
 7398 0330 FB68     		ldr	r3, [r7, #12]
 7399 0332 B3F87230 		ldrh	r3, [r3, #114]	@ movhi
 7400 0336 9BB2     		uxth	r3, r3
2460:STM32Cube_FW_N6/Drivers/STM32N6xx_HAL_Driver/Src/stm32n6xx_hal_spi.c ****                               hspi->RxXferCount);
 7401              		.loc 1 2460 14
 7402 0338 FFF7FEFF 		bl	HAL_DMA_Start_IT
 7403 033c 0346     		mov	r3, r0
 7404 033e FB75     		strb	r3, [r7, #23]
 7405              	.L333:
2462:STM32Cube_FW_N6/Drivers/STM32N6xx_HAL_Driver/Src/stm32n6xx_hal_spi.c ****   }
2463:STM32Cube_FW_N6/Drivers/STM32N6xx_HAL_Driver/Src/stm32n6xx_hal_spi.c **** 
2464:STM32Cube_FW_N6/Drivers/STM32N6xx_HAL_Driver/Src/stm32n6xx_hal_spi.c ****   /* Check status */
2465:STM32Cube_FW_N6/Drivers/STM32N6xx_HAL_Driver/Src/stm32n6xx_hal_spi.c ****   if (status != HAL_OK)
 7406              		.loc 1 2465 6
 7407 0340 FB7D     		ldrb	r3, [r7, #23]	@ zero_extendqisi2
 7408 0342 002B     		cmp	r3, #0
 7409 0344 11D0     		beq	.L334
2466:STM32Cube_FW_N6/Drivers/STM32N6xx_HAL_Driver/Src/stm32n6xx_hal_spi.c ****   {
2467:STM32Cube_FW_N6/Drivers/STM32N6xx_HAL_Driver/Src/stm32n6xx_hal_spi.c ****     /* Update SPI error code */
2468:STM32Cube_FW_N6/Drivers/STM32N6xx_HAL_Driver/Src/stm32n6xx_hal_spi.c ****     SET_BIT(hspi->ErrorCode, HAL_SPI_ERROR_DMA);
 7410              		.loc 1 2468 5
 7411 0346 FB68     		ldr	r3, [r7, #12]
 7412 0348 D3F88C30 		ldr	r3, [r3, #140]
 7413 034c 43F01002 		orr	r2, r3, #16
 7414 0350 FB68     		ldr	r3, [r7, #12]
 7415 0352 C3F88C20 		str	r2, [r3, #140]
2469:STM32Cube_FW_N6/Drivers/STM32N6xx_HAL_Driver/Src/stm32n6xx_hal_spi.c ****     hspi->State = HAL_SPI_STATE_READY;
 7416              		.loc 1 2469 17
 7417 0356 FB68     		ldr	r3, [r7, #12]
 7418 0358 0122     		movs	r2, #1
 7419 035a 83F88920 		strb	r2, [r3, #137]
2470:STM32Cube_FW_N6/Drivers/STM32N6xx_HAL_Driver/Src/stm32n6xx_hal_spi.c **** 
2471:STM32Cube_FW_N6/Drivers/STM32N6xx_HAL_Driver/Src/stm32n6xx_hal_spi.c ****     /* Unlock the process */
2472:STM32Cube_FW_N6/Drivers/STM32N6xx_HAL_Driver/Src/stm32n6xx_hal_spi.c ****     __HAL_UNLOCK(hspi);
 7420              		.loc 1 2472 5
 7421 035e FB68     		ldr	r3, [r7, #12]
 7422 0360 0022     		movs	r2, #0
ARM GAS  /tmp/ccwTXtVb.s 			page 175


 7423 0362 83F88820 		strb	r2, [r3, #136]
2473:STM32Cube_FW_N6/Drivers/STM32N6xx_HAL_Driver/Src/stm32n6xx_hal_spi.c **** 
2474:STM32Cube_FW_N6/Drivers/STM32N6xx_HAL_Driver/Src/stm32n6xx_hal_spi.c ****     return HAL_ERROR;
 7424              		.loc 1 2474 12
 7425 0366 0123     		movs	r3, #1
 7426 0368 E1E0     		b	.L315
 7427              	.L334:
2475:STM32Cube_FW_N6/Drivers/STM32N6xx_HAL_Driver/Src/stm32n6xx_hal_spi.c ****   }
2476:STM32Cube_FW_N6/Drivers/STM32N6xx_HAL_Driver/Src/stm32n6xx_hal_spi.c **** 
2477:STM32Cube_FW_N6/Drivers/STM32N6xx_HAL_Driver/Src/stm32n6xx_hal_spi.c ****   /* Enable Rx DMA Request */
2478:STM32Cube_FW_N6/Drivers/STM32N6xx_HAL_Driver/Src/stm32n6xx_hal_spi.c ****   SET_BIT(hspi->Instance->CFG1, SPI_CFG1_RXDMAEN);
 7428              		.loc 1 2478 3
 7429 036a FB68     		ldr	r3, [r7, #12]
 7430 036c 1B68     		ldr	r3, [r3]
 7431 036e 9A68     		ldr	r2, [r3, #8]
 7432 0370 FB68     		ldr	r3, [r7, #12]
 7433 0372 1B68     		ldr	r3, [r3]
 7434 0374 42F48042 		orr	r2, r2, #16384
 7435 0378 9A60     		str	r2, [r3, #8]
2479:STM32Cube_FW_N6/Drivers/STM32N6xx_HAL_Driver/Src/stm32n6xx_hal_spi.c **** 
2480:STM32Cube_FW_N6/Drivers/STM32N6xx_HAL_Driver/Src/stm32n6xx_hal_spi.c ****   /* Set the SPI Tx DMA transfer complete callback as NULL because the communication closing
2481:STM32Cube_FW_N6/Drivers/STM32N6xx_HAL_Driver/Src/stm32n6xx_hal_spi.c ****   is performed in DMA reception complete callback  */
2482:STM32Cube_FW_N6/Drivers/STM32N6xx_HAL_Driver/Src/stm32n6xx_hal_spi.c ****   hspi->hdmatx->XferHalfCpltCallback = NULL;
 7436              		.loc 1 2482 7
 7437 037a FB68     		ldr	r3, [r7, #12]
 7438 037c D3F88030 		ldr	r3, [r3, #128]
 7439              		.loc 1 2482 38
 7440 0380 0022     		movs	r2, #0
 7441 0382 5A66     		str	r2, [r3, #100]
2483:STM32Cube_FW_N6/Drivers/STM32N6xx_HAL_Driver/Src/stm32n6xx_hal_spi.c ****   hspi->hdmatx->XferCpltCallback     = NULL;
 7442              		.loc 1 2483 7
 7443 0384 FB68     		ldr	r3, [r7, #12]
 7444 0386 D3F88030 		ldr	r3, [r3, #128]
 7445              		.loc 1 2483 38
 7446 038a 0022     		movs	r2, #0
 7447 038c 1A66     		str	r2, [r3, #96]
2484:STM32Cube_FW_N6/Drivers/STM32N6xx_HAL_Driver/Src/stm32n6xx_hal_spi.c ****   hspi->hdmatx->XferAbortCallback    = NULL;
 7448              		.loc 1 2484 7
 7449 038e FB68     		ldr	r3, [r7, #12]
 7450 0390 D3F88030 		ldr	r3, [r3, #128]
 7451              		.loc 1 2484 38
 7452 0394 0022     		movs	r2, #0
 7453 0396 DA66     		str	r2, [r3, #108]
2485:STM32Cube_FW_N6/Drivers/STM32N6xx_HAL_Driver/Src/stm32n6xx_hal_spi.c **** 
2486:STM32Cube_FW_N6/Drivers/STM32N6xx_HAL_Driver/Src/stm32n6xx_hal_spi.c ****   /* Set the DMA error callback */
2487:STM32Cube_FW_N6/Drivers/STM32N6xx_HAL_Driver/Src/stm32n6xx_hal_spi.c ****   hspi->hdmatx->XferErrorCallback    = SPI_DMAError;
 7454              		.loc 1 2487 7
 7455 0398 FB68     		ldr	r3, [r7, #12]
 7456 039a D3F88030 		ldr	r3, [r3, #128]
 7457              		.loc 1 2487 38
 7458 039e 664A     		ldr	r2, .L347
 7459 03a0 9A66     		str	r2, [r3, #104]
2488:STM32Cube_FW_N6/Drivers/STM32N6xx_HAL_Driver/Src/stm32n6xx_hal_spi.c **** 
2489:STM32Cube_FW_N6/Drivers/STM32N6xx_HAL_Driver/Src/stm32n6xx_hal_spi.c ****   if (hspi->Init.DataSize <= SPI_DATASIZE_8BIT)
 7460              		.loc 1 2489 17
 7461 03a2 FB68     		ldr	r3, [r7, #12]
 7462 03a4 DB68     		ldr	r3, [r3, #12]
ARM GAS  /tmp/ccwTXtVb.s 			page 176


 7463              		.loc 1 2489 6
 7464 03a6 072B     		cmp	r3, #7
 7465 03a8 04D8     		bhi	.L335
2490:STM32Cube_FW_N6/Drivers/STM32N6xx_HAL_Driver/Src/stm32n6xx_hal_spi.c ****   {
2491:STM32Cube_FW_N6/Drivers/STM32N6xx_HAL_Driver/Src/stm32n6xx_hal_spi.c ****     hspi->TxXferCount = Size;
 7466              		.loc 1 2491 23
 7467 03aa FB68     		ldr	r3, [r7, #12]
 7468 03ac 7A88     		ldrh	r2, [r7, #2]	@ movhi
 7469 03ae A3F86A20 		strh	r2, [r3, #106]	@ movhi
 7470 03b2 10E0     		b	.L336
 7471              	.L335:
2492:STM32Cube_FW_N6/Drivers/STM32N6xx_HAL_Driver/Src/stm32n6xx_hal_spi.c ****   }
2493:STM32Cube_FW_N6/Drivers/STM32N6xx_HAL_Driver/Src/stm32n6xx_hal_spi.c ****   else if (hspi->Init.DataSize <= SPI_DATASIZE_16BIT)
 7472              		.loc 1 2493 22
 7473 03b4 FB68     		ldr	r3, [r7, #12]
 7474 03b6 DB68     		ldr	r3, [r3, #12]
 7475              		.loc 1 2493 11
 7476 03b8 0F2B     		cmp	r3, #15
 7477 03ba 06D8     		bhi	.L337
2494:STM32Cube_FW_N6/Drivers/STM32N6xx_HAL_Driver/Src/stm32n6xx_hal_spi.c ****   {
2495:STM32Cube_FW_N6/Drivers/STM32N6xx_HAL_Driver/Src/stm32n6xx_hal_spi.c ****     hspi->TxXferCount = Size * 2U;
 7478              		.loc 1 2495 30
 7479 03bc 7B88     		ldrh	r3, [r7, #2]	@ movhi
 7480 03be 5B00     		lsls	r3, r3, #1
 7481 03c0 9AB2     		uxth	r2, r3
 7482              		.loc 1 2495 23
 7483 03c2 FB68     		ldr	r3, [r7, #12]
 7484 03c4 A3F86A20 		strh	r2, [r3, #106]	@ movhi
 7485 03c8 05E0     		b	.L336
 7486              	.L337:
2496:STM32Cube_FW_N6/Drivers/STM32N6xx_HAL_Driver/Src/stm32n6xx_hal_spi.c ****   }
2497:STM32Cube_FW_N6/Drivers/STM32N6xx_HAL_Driver/Src/stm32n6xx_hal_spi.c ****   else
2498:STM32Cube_FW_N6/Drivers/STM32N6xx_HAL_Driver/Src/stm32n6xx_hal_spi.c ****   {
2499:STM32Cube_FW_N6/Drivers/STM32N6xx_HAL_Driver/Src/stm32n6xx_hal_spi.c ****     hspi->TxXferCount = Size * 4U;
 7487              		.loc 1 2499 30
 7488 03ca 7B88     		ldrh	r3, [r7, #2]	@ movhi
 7489 03cc 9B00     		lsls	r3, r3, #2
 7490 03ce 9AB2     		uxth	r2, r3
 7491              		.loc 1 2499 23
 7492 03d0 FB68     		ldr	r3, [r7, #12]
 7493 03d2 A3F86A20 		strh	r2, [r3, #106]	@ movhi
 7494              	.L336:
2500:STM32Cube_FW_N6/Drivers/STM32N6xx_HAL_Driver/Src/stm32n6xx_hal_spi.c ****   }
2501:STM32Cube_FW_N6/Drivers/STM32N6xx_HAL_Driver/Src/stm32n6xx_hal_spi.c **** 
2502:STM32Cube_FW_N6/Drivers/STM32N6xx_HAL_Driver/Src/stm32n6xx_hal_spi.c ****   /* Enable the Tx DMA Stream/Channel  */
2503:STM32Cube_FW_N6/Drivers/STM32N6xx_HAL_Driver/Src/stm32n6xx_hal_spi.c ****   if ((hspi->hdmatx->Mode & DMA_LINKEDLIST) == DMA_LINKEDLIST)
 7495              		.loc 1 2503 12
 7496 03d6 FB68     		ldr	r3, [r7, #12]
 7497 03d8 D3F88030 		ldr	r3, [r3, #128]
 7498              		.loc 1 2503 20
 7499 03dc 1B6D     		ldr	r3, [r3, #80]
 7500              		.loc 1 2503 27
 7501 03de 03F08003 		and	r3, r3, #128
 7502              		.loc 1 2503 6
 7503 03e2 002B     		cmp	r3, #0
 7504 03e4 2DD0     		beq	.L338
2504:STM32Cube_FW_N6/Drivers/STM32N6xx_HAL_Driver/Src/stm32n6xx_hal_spi.c ****   {
ARM GAS  /tmp/ccwTXtVb.s 			page 177


2505:STM32Cube_FW_N6/Drivers/STM32N6xx_HAL_Driver/Src/stm32n6xx_hal_spi.c ****     if (hspi->hdmatx->LinkedListQueue != NULL)
 7505              		.loc 1 2505 13
 7506 03e6 FB68     		ldr	r3, [r7, #12]
 7507 03e8 D3F88030 		ldr	r3, [r3, #128]
 7508              		.loc 1 2505 21
 7509 03ec 5B6F     		ldr	r3, [r3, #116]
 7510              		.loc 1 2505 8
 7511 03ee 002B     		cmp	r3, #0
 7512 03f0 24D0     		beq	.L339
2506:STM32Cube_FW_N6/Drivers/STM32N6xx_HAL_Driver/Src/stm32n6xx_hal_spi.c ****     {
2507:STM32Cube_FW_N6/Drivers/STM32N6xx_HAL_Driver/Src/stm32n6xx_hal_spi.c ****       /* Set DMA data size */
2508:STM32Cube_FW_N6/Drivers/STM32N6xx_HAL_Driver/Src/stm32n6xx_hal_spi.c ****       hspi->hdmatx->LinkedListQueue->Head->LinkRegisters[NODE_CBR1_DEFAULT_OFFSET] = hspi->TxXferCo
 7513              		.loc 1 2508 90
 7514 03f2 FB68     		ldr	r3, [r7, #12]
 7515 03f4 B3F86A30 		ldrh	r3, [r3, #106]	@ movhi
 7516 03f8 9AB2     		uxth	r2, r3
 7517              		.loc 1 2508 11
 7518 03fa FB68     		ldr	r3, [r7, #12]
 7519 03fc D3F88030 		ldr	r3, [r3, #128]
 7520              		.loc 1 2508 19
 7521 0400 5B6F     		ldr	r3, [r3, #116]
 7522              		.loc 1 2508 36
 7523 0402 1B68     		ldr	r3, [r3]
 7524              		.loc 1 2508 84
 7525 0404 9A60     		str	r2, [r3, #8]
2509:STM32Cube_FW_N6/Drivers/STM32N6xx_HAL_Driver/Src/stm32n6xx_hal_spi.c **** 
2510:STM32Cube_FW_N6/Drivers/STM32N6xx_HAL_Driver/Src/stm32n6xx_hal_spi.c ****       /* Set DMA source address */
2511:STM32Cube_FW_N6/Drivers/STM32N6xx_HAL_Driver/Src/stm32n6xx_hal_spi.c ****       hspi->hdmatx->LinkedListQueue->Head->LinkRegisters[NODE_CSAR_DEFAULT_OFFSET] = (uint32_t)hspi
 7526              		.loc 1 2511 100
 7527 0406 FB68     		ldr	r3, [r7, #12]
 7528 0408 5A6E     		ldr	r2, [r3, #100]
 7529              		.loc 1 2511 11
 7530 040a FB68     		ldr	r3, [r7, #12]
 7531 040c D3F88030 		ldr	r3, [r3, #128]
 7532              		.loc 1 2511 19
 7533 0410 5B6F     		ldr	r3, [r3, #116]
 7534              		.loc 1 2511 36
 7535 0412 1B68     		ldr	r3, [r3]
 7536              		.loc 1 2511 84
 7537 0414 DA60     		str	r2, [r3, #12]
2512:STM32Cube_FW_N6/Drivers/STM32N6xx_HAL_Driver/Src/stm32n6xx_hal_spi.c **** 
2513:STM32Cube_FW_N6/Drivers/STM32N6xx_HAL_Driver/Src/stm32n6xx_hal_spi.c ****       /* Set DMA destination address */
2514:STM32Cube_FW_N6/Drivers/STM32N6xx_HAL_Driver/Src/stm32n6xx_hal_spi.c ****       hspi->hdmatx->LinkedListQueue->Head->LinkRegisters[NODE_CDAR_DEFAULT_OFFSET] = (uint32_t)&hsp
 7538              		.loc 1 2514 101
 7539 0416 FB68     		ldr	r3, [r7, #12]
 7540 0418 1B68     		ldr	r3, [r3]
 7541              		.loc 1 2514 96
 7542 041a 03F12002 		add	r2, r3, #32
 7543              		.loc 1 2514 11
 7544 041e FB68     		ldr	r3, [r7, #12]
 7545 0420 D3F88030 		ldr	r3, [r3, #128]
 7546              		.loc 1 2514 19
 7547 0424 5B6F     		ldr	r3, [r3, #116]
 7548              		.loc 1 2514 36
 7549 0426 1B68     		ldr	r3, [r3]
 7550              		.loc 1 2514 84
 7551 0428 1A61     		str	r2, [r3, #16]
ARM GAS  /tmp/ccwTXtVb.s 			page 178


2515:STM32Cube_FW_N6/Drivers/STM32N6xx_HAL_Driver/Src/stm32n6xx_hal_spi.c **** 
2516:STM32Cube_FW_N6/Drivers/STM32N6xx_HAL_Driver/Src/stm32n6xx_hal_spi.c ****       status = HAL_DMAEx_List_Start_IT(hspi->hdmatx);
 7552              		.loc 1 2516 16
 7553 042a FB68     		ldr	r3, [r7, #12]
 7554 042c D3F88030 		ldr	r3, [r3, #128]
 7555 0430 1846     		mov	r0, r3
 7556 0432 FFF7FEFF 		bl	HAL_DMAEx_List_Start_IT
 7557 0436 0346     		mov	r3, r0
 7558 0438 FB75     		strb	r3, [r7, #23]
 7559 043a 14E0     		b	.L340
 7560              	.L339:
2517:STM32Cube_FW_N6/Drivers/STM32N6xx_HAL_Driver/Src/stm32n6xx_hal_spi.c ****     }
2518:STM32Cube_FW_N6/Drivers/STM32N6xx_HAL_Driver/Src/stm32n6xx_hal_spi.c ****     else
2519:STM32Cube_FW_N6/Drivers/STM32N6xx_HAL_Driver/Src/stm32n6xx_hal_spi.c ****     {
2520:STM32Cube_FW_N6/Drivers/STM32N6xx_HAL_Driver/Src/stm32n6xx_hal_spi.c ****       status = HAL_ERROR;
 7561              		.loc 1 2520 14
 7562 043c 0123     		movs	r3, #1
 7563 043e FB75     		strb	r3, [r7, #23]
 7564 0440 11E0     		b	.L340
 7565              	.L338:
2521:STM32Cube_FW_N6/Drivers/STM32N6xx_HAL_Driver/Src/stm32n6xx_hal_spi.c ****     }
2522:STM32Cube_FW_N6/Drivers/STM32N6xx_HAL_Driver/Src/stm32n6xx_hal_spi.c ****   }
2523:STM32Cube_FW_N6/Drivers/STM32N6xx_HAL_Driver/Src/stm32n6xx_hal_spi.c ****   else
2524:STM32Cube_FW_N6/Drivers/STM32N6xx_HAL_Driver/Src/stm32n6xx_hal_spi.c ****   {
2525:STM32Cube_FW_N6/Drivers/STM32N6xx_HAL_Driver/Src/stm32n6xx_hal_spi.c ****     status = HAL_DMA_Start_IT(hspi->hdmatx, (uint32_t)hspi->pTxBuffPtr, (uint32_t)&hspi->Instance->
 7566              		.loc 1 2525 14
 7567 0442 FB68     		ldr	r3, [r7, #12]
 7568 0444 D3F88000 		ldr	r0, [r3, #128]
 7569              		.loc 1 2525 59
 7570 0448 FB68     		ldr	r3, [r7, #12]
 7571 044a 5B6E     		ldr	r3, [r3, #100]
 7572              		.loc 1 2525 14
 7573 044c 1946     		mov	r1, r3
 7574              		.loc 1 2525 88
 7575 044e FB68     		ldr	r3, [r7, #12]
 7576 0450 1B68     		ldr	r3, [r3]
 7577              		.loc 1 2525 83
 7578 0452 2033     		adds	r3, r3, #32
 7579              		.loc 1 2525 14
 7580 0454 1A46     		mov	r2, r3
2526:STM32Cube_FW_N6/Drivers/STM32N6xx_HAL_Driver/Src/stm32n6xx_hal_spi.c ****                               hspi->TxXferCount);
 7581              		.loc 1 2526 35
 7582 0456 FB68     		ldr	r3, [r7, #12]
 7583 0458 B3F86A30 		ldrh	r3, [r3, #106]	@ movhi
 7584 045c 9BB2     		uxth	r3, r3
2525:STM32Cube_FW_N6/Drivers/STM32N6xx_HAL_Driver/Src/stm32n6xx_hal_spi.c ****                               hspi->TxXferCount);
 7585              		.loc 1 2525 14
 7586 045e FFF7FEFF 		bl	HAL_DMA_Start_IT
 7587 0462 0346     		mov	r3, r0
 7588 0464 FB75     		strb	r3, [r7, #23]
 7589              	.L340:
2527:STM32Cube_FW_N6/Drivers/STM32N6xx_HAL_Driver/Src/stm32n6xx_hal_spi.c ****   }
2528:STM32Cube_FW_N6/Drivers/STM32N6xx_HAL_Driver/Src/stm32n6xx_hal_spi.c **** 
2529:STM32Cube_FW_N6/Drivers/STM32N6xx_HAL_Driver/Src/stm32n6xx_hal_spi.c ****   /* Check status */
2530:STM32Cube_FW_N6/Drivers/STM32N6xx_HAL_Driver/Src/stm32n6xx_hal_spi.c ****   if (status != HAL_OK)
 7590              		.loc 1 2530 6
 7591 0466 FB7D     		ldrb	r3, [r7, #23]	@ zero_extendqisi2
ARM GAS  /tmp/ccwTXtVb.s 			page 179


 7592 0468 002B     		cmp	r3, #0
 7593 046a 17D0     		beq	.L341
2531:STM32Cube_FW_N6/Drivers/STM32N6xx_HAL_Driver/Src/stm32n6xx_hal_spi.c ****   {
2532:STM32Cube_FW_N6/Drivers/STM32N6xx_HAL_Driver/Src/stm32n6xx_hal_spi.c ****     /* Abort Rx DMA Channel already started */
2533:STM32Cube_FW_N6/Drivers/STM32N6xx_HAL_Driver/Src/stm32n6xx_hal_spi.c ****     (void)HAL_DMA_Abort(hspi->hdmarx);
 7594              		.loc 1 2533 11
 7595 046c FB68     		ldr	r3, [r7, #12]
 7596 046e D3F88430 		ldr	r3, [r3, #132]
 7597 0472 1846     		mov	r0, r3
 7598 0474 FFF7FEFF 		bl	HAL_DMA_Abort
2534:STM32Cube_FW_N6/Drivers/STM32N6xx_HAL_Driver/Src/stm32n6xx_hal_spi.c **** 
2535:STM32Cube_FW_N6/Drivers/STM32N6xx_HAL_Driver/Src/stm32n6xx_hal_spi.c ****     /* Update SPI error code */
2536:STM32Cube_FW_N6/Drivers/STM32N6xx_HAL_Driver/Src/stm32n6xx_hal_spi.c ****     SET_BIT(hspi->ErrorCode, HAL_SPI_ERROR_DMA);
 7599              		.loc 1 2536 5
 7600 0478 FB68     		ldr	r3, [r7, #12]
 7601 047a D3F88C30 		ldr	r3, [r3, #140]
 7602 047e 43F01002 		orr	r2, r3, #16
 7603 0482 FB68     		ldr	r3, [r7, #12]
 7604 0484 C3F88C20 		str	r2, [r3, #140]
2537:STM32Cube_FW_N6/Drivers/STM32N6xx_HAL_Driver/Src/stm32n6xx_hal_spi.c ****     hspi->State = HAL_SPI_STATE_READY;
 7605              		.loc 1 2537 17
 7606 0488 FB68     		ldr	r3, [r7, #12]
 7607 048a 0122     		movs	r2, #1
 7608 048c 83F88920 		strb	r2, [r3, #137]
2538:STM32Cube_FW_N6/Drivers/STM32N6xx_HAL_Driver/Src/stm32n6xx_hal_spi.c **** 
2539:STM32Cube_FW_N6/Drivers/STM32N6xx_HAL_Driver/Src/stm32n6xx_hal_spi.c ****     /* Unlock the process */
2540:STM32Cube_FW_N6/Drivers/STM32N6xx_HAL_Driver/Src/stm32n6xx_hal_spi.c ****     __HAL_UNLOCK(hspi);
 7609              		.loc 1 2540 5
 7610 0490 FB68     		ldr	r3, [r7, #12]
 7611 0492 0022     		movs	r2, #0
 7612 0494 83F88820 		strb	r2, [r3, #136]
2541:STM32Cube_FW_N6/Drivers/STM32N6xx_HAL_Driver/Src/stm32n6xx_hal_spi.c **** 
2542:STM32Cube_FW_N6/Drivers/STM32N6xx_HAL_Driver/Src/stm32n6xx_hal_spi.c ****     return HAL_ERROR;
 7613              		.loc 1 2542 12
 7614 0498 0123     		movs	r3, #1
 7615 049a 48E0     		b	.L315
 7616              	.L341:
2543:STM32Cube_FW_N6/Drivers/STM32N6xx_HAL_Driver/Src/stm32n6xx_hal_spi.c ****   }
2544:STM32Cube_FW_N6/Drivers/STM32N6xx_HAL_Driver/Src/stm32n6xx_hal_spi.c **** 
2545:STM32Cube_FW_N6/Drivers/STM32N6xx_HAL_Driver/Src/stm32n6xx_hal_spi.c ****   if ((hspi->hdmarx->Mode == DMA_LINKEDLIST_CIRCULAR) && (hspi->hdmatx->Mode == DMA_LINKEDLIST_CIRC
 7617              		.loc 1 2545 12
 7618 049c FB68     		ldr	r3, [r7, #12]
 7619 049e D3F88430 		ldr	r3, [r3, #132]
 7620              		.loc 1 2545 20
 7621 04a2 1B6D     		ldr	r3, [r3, #80]
 7622              		.loc 1 2545 6
 7623 04a4 812B     		cmp	r3, #129
 7624 04a6 0ED1     		bne	.L342
 7625              		.loc 1 2545 63 discriminator 1
 7626 04a8 FB68     		ldr	r3, [r7, #12]
 7627 04aa D3F88030 		ldr	r3, [r3, #128]
 7628              		.loc 1 2545 71 discriminator 1
 7629 04ae 1B6D     		ldr	r3, [r3, #80]
 7630              		.loc 1 2545 55 discriminator 1
 7631 04b0 812B     		cmp	r3, #129
 7632 04b2 08D1     		bne	.L342
2546:STM32Cube_FW_N6/Drivers/STM32N6xx_HAL_Driver/Src/stm32n6xx_hal_spi.c ****   {
ARM GAS  /tmp/ccwTXtVb.s 			page 180


2547:STM32Cube_FW_N6/Drivers/STM32N6xx_HAL_Driver/Src/stm32n6xx_hal_spi.c ****     MODIFY_REG(hspi->Instance->CR2, SPI_CR2_TSIZE, 0UL);
 7633              		.loc 1 2547 5
 7634 04b4 FB68     		ldr	r3, [r7, #12]
 7635 04b6 1B68     		ldr	r3, [r3]
 7636 04b8 5B68     		ldr	r3, [r3, #4]
 7637 04ba FA68     		ldr	r2, [r7, #12]
 7638 04bc 1268     		ldr	r2, [r2]
 7639 04be 1B0C     		lsrs	r3, r3, #16
 7640 04c0 1B04     		lsls	r3, r3, #16
 7641 04c2 5360     		str	r3, [r2, #4]
 7642 04c4 09E0     		b	.L343
 7643              	.L342:
2548:STM32Cube_FW_N6/Drivers/STM32N6xx_HAL_Driver/Src/stm32n6xx_hal_spi.c ****   }
2549:STM32Cube_FW_N6/Drivers/STM32N6xx_HAL_Driver/Src/stm32n6xx_hal_spi.c ****   else
2550:STM32Cube_FW_N6/Drivers/STM32N6xx_HAL_Driver/Src/stm32n6xx_hal_spi.c ****   {
2551:STM32Cube_FW_N6/Drivers/STM32N6xx_HAL_Driver/Src/stm32n6xx_hal_spi.c ****     MODIFY_REG(hspi->Instance->CR2, SPI_CR2_TSIZE, Size);
 7644              		.loc 1 2551 5
 7645 04c6 FB68     		ldr	r3, [r7, #12]
 7646 04c8 1B68     		ldr	r3, [r3]
 7647 04ca 5B68     		ldr	r3, [r3, #4]
 7648 04cc 1B0C     		lsrs	r3, r3, #16
 7649 04ce 1B04     		lsls	r3, r3, #16
 7650 04d0 7988     		ldrh	r1, [r7, #2]
 7651 04d2 FA68     		ldr	r2, [r7, #12]
 7652 04d4 1268     		ldr	r2, [r2]
 7653 04d6 0B43     		orrs	r3, r3, r1
 7654 04d8 5360     		str	r3, [r2, #4]
 7655              	.L343:
2552:STM32Cube_FW_N6/Drivers/STM32N6xx_HAL_Driver/Src/stm32n6xx_hal_spi.c ****   }
2553:STM32Cube_FW_N6/Drivers/STM32N6xx_HAL_Driver/Src/stm32n6xx_hal_spi.c **** 
2554:STM32Cube_FW_N6/Drivers/STM32N6xx_HAL_Driver/Src/stm32n6xx_hal_spi.c ****   /* Enable Tx DMA Request */
2555:STM32Cube_FW_N6/Drivers/STM32N6xx_HAL_Driver/Src/stm32n6xx_hal_spi.c ****   SET_BIT(hspi->Instance->CFG1, SPI_CFG1_TXDMAEN);
 7656              		.loc 1 2555 3
 7657 04da FB68     		ldr	r3, [r7, #12]
 7658 04dc 1B68     		ldr	r3, [r3]
 7659 04de 9A68     		ldr	r2, [r3, #8]
 7660 04e0 FB68     		ldr	r3, [r7, #12]
 7661 04e2 1B68     		ldr	r3, [r3]
 7662 04e4 42F40042 		orr	r2, r2, #32768
 7663 04e8 9A60     		str	r2, [r3, #8]
2556:STM32Cube_FW_N6/Drivers/STM32N6xx_HAL_Driver/Src/stm32n6xx_hal_spi.c **** 
2557:STM32Cube_FW_N6/Drivers/STM32N6xx_HAL_Driver/Src/stm32n6xx_hal_spi.c ****   /* Enable the SPI Error Interrupt Bit */
2558:STM32Cube_FW_N6/Drivers/STM32N6xx_HAL_Driver/Src/stm32n6xx_hal_spi.c ****   __HAL_SPI_ENABLE_IT(hspi, (SPI_IT_OVR | SPI_IT_UDR | SPI_IT_FRE | SPI_IT_MODF));
 7664              		.loc 1 2558 3
 7665 04ea FB68     		ldr	r3, [r7, #12]
 7666 04ec 1B68     		ldr	r3, [r3]
 7667 04ee 1A69     		ldr	r2, [r3, #16]
 7668 04f0 FB68     		ldr	r3, [r7, #12]
 7669 04f2 1B68     		ldr	r3, [r3]
 7670 04f4 42F45872 		orr	r2, r2, #864
 7671 04f8 1A61     		str	r2, [r3, #16]
2559:STM32Cube_FW_N6/Drivers/STM32N6xx_HAL_Driver/Src/stm32n6xx_hal_spi.c **** 
2560:STM32Cube_FW_N6/Drivers/STM32N6xx_HAL_Driver/Src/stm32n6xx_hal_spi.c ****   /* Enable SPI peripheral */
2561:STM32Cube_FW_N6/Drivers/STM32N6xx_HAL_Driver/Src/stm32n6xx_hal_spi.c ****   __HAL_SPI_ENABLE(hspi);
 7672              		.loc 1 2561 3
 7673 04fa FB68     		ldr	r3, [r7, #12]
 7674 04fc 1B68     		ldr	r3, [r3]
ARM GAS  /tmp/ccwTXtVb.s 			page 181


 7675 04fe 1A68     		ldr	r2, [r3]
 7676 0500 FB68     		ldr	r3, [r7, #12]
 7677 0502 1B68     		ldr	r3, [r3]
 7678 0504 42F00102 		orr	r2, r2, #1
 7679 0508 1A60     		str	r2, [r3]
2562:STM32Cube_FW_N6/Drivers/STM32N6xx_HAL_Driver/Src/stm32n6xx_hal_spi.c **** 
2563:STM32Cube_FW_N6/Drivers/STM32N6xx_HAL_Driver/Src/stm32n6xx_hal_spi.c ****   if (hspi->Init.Mode == SPI_MODE_MASTER)
 7680              		.loc 1 2563 17
 7681 050a FB68     		ldr	r3, [r7, #12]
 7682 050c 5B68     		ldr	r3, [r3, #4]
 7683              		.loc 1 2563 6
 7684 050e B3F5800F 		cmp	r3, #4194304
 7685 0512 07D1     		bne	.L344
2564:STM32Cube_FW_N6/Drivers/STM32N6xx_HAL_Driver/Src/stm32n6xx_hal_spi.c ****   {
2565:STM32Cube_FW_N6/Drivers/STM32N6xx_HAL_Driver/Src/stm32n6xx_hal_spi.c ****     /* Master transfer start */
2566:STM32Cube_FW_N6/Drivers/STM32N6xx_HAL_Driver/Src/stm32n6xx_hal_spi.c ****     SET_BIT(hspi->Instance->CR1, SPI_CR1_CSTART);
 7686              		.loc 1 2566 5
 7687 0514 FB68     		ldr	r3, [r7, #12]
 7688 0516 1B68     		ldr	r3, [r3]
 7689 0518 1A68     		ldr	r2, [r3]
 7690 051a FB68     		ldr	r3, [r7, #12]
 7691 051c 1B68     		ldr	r3, [r3]
 7692 051e 42F40072 		orr	r2, r2, #512
 7693 0522 1A60     		str	r2, [r3]
 7694              	.L344:
2567:STM32Cube_FW_N6/Drivers/STM32N6xx_HAL_Driver/Src/stm32n6xx_hal_spi.c ****   }
2568:STM32Cube_FW_N6/Drivers/STM32N6xx_HAL_Driver/Src/stm32n6xx_hal_spi.c **** 
2569:STM32Cube_FW_N6/Drivers/STM32N6xx_HAL_Driver/Src/stm32n6xx_hal_spi.c ****   /* Unlock the process */
2570:STM32Cube_FW_N6/Drivers/STM32N6xx_HAL_Driver/Src/stm32n6xx_hal_spi.c ****   __HAL_UNLOCK(hspi);
 7695              		.loc 1 2570 3
 7696 0524 FB68     		ldr	r3, [r7, #12]
 7697 0526 0022     		movs	r2, #0
 7698 0528 83F88820 		strb	r2, [r3, #136]
2571:STM32Cube_FW_N6/Drivers/STM32N6xx_HAL_Driver/Src/stm32n6xx_hal_spi.c **** 
2572:STM32Cube_FW_N6/Drivers/STM32N6xx_HAL_Driver/Src/stm32n6xx_hal_spi.c ****   return HAL_OK;
 7699              		.loc 1 2572 10
 7700 052c 0023     		movs	r3, #0
 7701              	.L315:
2573:STM32Cube_FW_N6/Drivers/STM32N6xx_HAL_Driver/Src/stm32n6xx_hal_spi.c **** }
 7702              		.loc 1 2573 1
 7703 052e 1846     		mov	r0, r3
 7704 0530 1837     		adds	r7, r7, #24
 7705              		.cfi_def_cfa_offset 8
 7706 0532 BD46     		mov	sp, r7
 7707              		.cfi_def_cfa_register 13
 7708              		@ sp needed
 7709 0534 80BD     		pop	{r7, pc}
 7710              	.L348:
 7711 0536 00BF     		.align	2
 7712              	.L347:
 7713 0538 00000000 		.word	SPI_DMAError
 7714              		.cfi_endproc
 7715              	.LFE847:
 7717              		.section	.text.HAL_SPI_Abort,"ax",%progbits
 7718              		.align	1
 7719              		.global	HAL_SPI_Abort
 7720              		.syntax unified
ARM GAS  /tmp/ccwTXtVb.s 			page 182


 7721              		.thumb
 7722              		.thumb_func
 7724              	HAL_SPI_Abort:
 7725              	.LFB848:
2574:STM32Cube_FW_N6/Drivers/STM32N6xx_HAL_Driver/Src/stm32n6xx_hal_spi.c **** 
2575:STM32Cube_FW_N6/Drivers/STM32N6xx_HAL_Driver/Src/stm32n6xx_hal_spi.c **** /**
2576:STM32Cube_FW_N6/Drivers/STM32N6xx_HAL_Driver/Src/stm32n6xx_hal_spi.c ****   * @brief  Abort ongoing transfer (blocking mode).
2577:STM32Cube_FW_N6/Drivers/STM32N6xx_HAL_Driver/Src/stm32n6xx_hal_spi.c ****   * @param  hspi SPI handle.
2578:STM32Cube_FW_N6/Drivers/STM32N6xx_HAL_Driver/Src/stm32n6xx_hal_spi.c ****   * @note   This procedure could be used for aborting any ongoing transfer (Tx and Rx),
2579:STM32Cube_FW_N6/Drivers/STM32N6xx_HAL_Driver/Src/stm32n6xx_hal_spi.c ****   *         started in Interrupt or DMA mode.
2580:STM32Cube_FW_N6/Drivers/STM32N6xx_HAL_Driver/Src/stm32n6xx_hal_spi.c ****   * @note   This procedure performs following operations :
2581:STM32Cube_FW_N6/Drivers/STM32N6xx_HAL_Driver/Src/stm32n6xx_hal_spi.c ****   *          + Disable SPI Interrupts (depending of transfer direction)
2582:STM32Cube_FW_N6/Drivers/STM32N6xx_HAL_Driver/Src/stm32n6xx_hal_spi.c ****   *          + Disable the DMA transfer in the peripheral register (if enabled)
2583:STM32Cube_FW_N6/Drivers/STM32N6xx_HAL_Driver/Src/stm32n6xx_hal_spi.c ****   *          + Abort DMA transfer by calling HAL_DMA_Abort (in case of transfer in DMA mode)
2584:STM32Cube_FW_N6/Drivers/STM32N6xx_HAL_Driver/Src/stm32n6xx_hal_spi.c ****   *          + Set handle State to READY.
2585:STM32Cube_FW_N6/Drivers/STM32N6xx_HAL_Driver/Src/stm32n6xx_hal_spi.c ****   * @note   This procedure is executed in blocking mode : when exiting function, Abort is considere
2586:STM32Cube_FW_N6/Drivers/STM32N6xx_HAL_Driver/Src/stm32n6xx_hal_spi.c ****   * @retval HAL status
2587:STM32Cube_FW_N6/Drivers/STM32N6xx_HAL_Driver/Src/stm32n6xx_hal_spi.c ****   */
2588:STM32Cube_FW_N6/Drivers/STM32N6xx_HAL_Driver/Src/stm32n6xx_hal_spi.c **** HAL_StatusTypeDef HAL_SPI_Abort(SPI_HandleTypeDef *hspi)
2589:STM32Cube_FW_N6/Drivers/STM32N6xx_HAL_Driver/Src/stm32n6xx_hal_spi.c **** {
 7726              		.loc 1 2589 1
 7727              		.cfi_startproc
 7728              		@ args = 0, pretend = 0, frame = 16
 7729              		@ frame_needed = 1, uses_anonymous_args = 0
 7730 0000 80B5     		push	{r7, lr}
 7731              		.cfi_def_cfa_offset 8
 7732              		.cfi_offset 7, -8
 7733              		.cfi_offset 14, -4
 7734 0002 84B0     		sub	sp, sp, #16
 7735              		.cfi_def_cfa_offset 24
 7736 0004 00AF     		add	r7, sp, #0
 7737              		.cfi_def_cfa_register 7
 7738 0006 7860     		str	r0, [r7, #4]
2590:STM32Cube_FW_N6/Drivers/STM32N6xx_HAL_Driver/Src/stm32n6xx_hal_spi.c ****   HAL_StatusTypeDef errorcode;
2591:STM32Cube_FW_N6/Drivers/STM32N6xx_HAL_Driver/Src/stm32n6xx_hal_spi.c **** 
2592:STM32Cube_FW_N6/Drivers/STM32N6xx_HAL_Driver/Src/stm32n6xx_hal_spi.c ****   __IO uint32_t count;
2593:STM32Cube_FW_N6/Drivers/STM32N6xx_HAL_Driver/Src/stm32n6xx_hal_spi.c **** 
2594:STM32Cube_FW_N6/Drivers/STM32N6xx_HAL_Driver/Src/stm32n6xx_hal_spi.c ****   /* Lock the process */
2595:STM32Cube_FW_N6/Drivers/STM32N6xx_HAL_Driver/Src/stm32n6xx_hal_spi.c ****   __HAL_LOCK(hspi);
 7739              		.loc 1 2595 3
 7740 0008 7B68     		ldr	r3, [r7, #4]
 7741 000a 93F88830 		ldrb	r3, [r3, #136]	@ zero_extendqisi2
 7742 000e 012B     		cmp	r3, #1
 7743 0010 01D1     		bne	.L350
 7744              		.loc 1 2595 3 is_stmt 0 discriminator 1
 7745 0012 0223     		movs	r3, #2
 7746              		.loc 1 2595 3
 7747 0014 E1E0     		b	.L351
 7748              	.L350:
 7749              		.loc 1 2595 3 discriminator 2
 7750 0016 7B68     		ldr	r3, [r7, #4]
 7751 0018 0122     		movs	r2, #1
 7752 001a 83F88820 		strb	r2, [r3, #136]
2596:STM32Cube_FW_N6/Drivers/STM32N6xx_HAL_Driver/Src/stm32n6xx_hal_spi.c **** 
2597:STM32Cube_FW_N6/Drivers/STM32N6xx_HAL_Driver/Src/stm32n6xx_hal_spi.c ****   /* Set hspi->state to aborting to avoid any interaction */
2598:STM32Cube_FW_N6/Drivers/STM32N6xx_HAL_Driver/Src/stm32n6xx_hal_spi.c ****   hspi->State = HAL_SPI_STATE_ABORT;
 7753              		.loc 1 2598 15 is_stmt 1
ARM GAS  /tmp/ccwTXtVb.s 			page 183


 7754 001e 7B68     		ldr	r3, [r7, #4]
 7755 0020 0722     		movs	r2, #7
 7756 0022 83F88920 		strb	r2, [r3, #137]
2599:STM32Cube_FW_N6/Drivers/STM32N6xx_HAL_Driver/Src/stm32n6xx_hal_spi.c **** 
2600:STM32Cube_FW_N6/Drivers/STM32N6xx_HAL_Driver/Src/stm32n6xx_hal_spi.c ****   /* Initialized local variable  */
2601:STM32Cube_FW_N6/Drivers/STM32N6xx_HAL_Driver/Src/stm32n6xx_hal_spi.c ****   errorcode = HAL_OK;
 7757              		.loc 1 2601 13
 7758 0026 0023     		movs	r3, #0
 7759 0028 FB73     		strb	r3, [r7, #15]
2602:STM32Cube_FW_N6/Drivers/STM32N6xx_HAL_Driver/Src/stm32n6xx_hal_spi.c ****   count = SPI_DEFAULT_TIMEOUT * (SystemCoreClock / 24UL / 1000UL);
 7760              		.loc 1 2602 57
 7761 002a 6E4B     		ldr	r3, .L365
 7762 002c 1B68     		ldr	r3, [r3]
 7763 002e 6E4A     		ldr	r2, .L365+4
 7764 0030 A2FB0323 		umull	r2, r3, r2, r3
 7765 0034 5B0A     		lsrs	r3, r3, #9
 7766              		.loc 1 2602 31
 7767 0036 6422     		movs	r2, #100
 7768 0038 02FB03F3 		mul	r3, r2, r3
 7769              		.loc 1 2602 9
 7770 003c BB60     		str	r3, [r7, #8]
2603:STM32Cube_FW_N6/Drivers/STM32N6xx_HAL_Driver/Src/stm32n6xx_hal_spi.c **** 
2604:STM32Cube_FW_N6/Drivers/STM32N6xx_HAL_Driver/Src/stm32n6xx_hal_spi.c ****   /* If master communication on going, make sure current frame is done before closing the connectio
2605:STM32Cube_FW_N6/Drivers/STM32N6xx_HAL_Driver/Src/stm32n6xx_hal_spi.c ****   if (HAL_IS_BIT_SET(hspi->Instance->CR1, SPI_CR1_CSTART))
 7771              		.loc 1 2605 7
 7772 003e 7B68     		ldr	r3, [r7, #4]
 7773 0040 1B68     		ldr	r3, [r3]
 7774 0042 1B68     		ldr	r3, [r3]
 7775 0044 03F40073 		and	r3, r3, #512
 7776              		.loc 1 2605 6
 7777 0048 B3F5007F 		cmp	r3, #512
 7778 004c 5BD1     		bne	.L352
2606:STM32Cube_FW_N6/Drivers/STM32N6xx_HAL_Driver/Src/stm32n6xx_hal_spi.c ****   {
2607:STM32Cube_FW_N6/Drivers/STM32N6xx_HAL_Driver/Src/stm32n6xx_hal_spi.c ****     /* Disable EOT interrupt */
2608:STM32Cube_FW_N6/Drivers/STM32N6xx_HAL_Driver/Src/stm32n6xx_hal_spi.c ****     __HAL_SPI_DISABLE_IT(hspi, SPI_IT_EOT);
 7779              		.loc 1 2608 5
 7780 004e 7B68     		ldr	r3, [r7, #4]
 7781 0050 1B68     		ldr	r3, [r3]
 7782 0052 1A69     		ldr	r2, [r3, #16]
 7783 0054 7B68     		ldr	r3, [r7, #4]
 7784 0056 1B68     		ldr	r3, [r3]
 7785 0058 22F00802 		bic	r2, r2, #8
 7786 005c 1A61     		str	r2, [r3, #16]
 7787              	.L355:
2609:STM32Cube_FW_N6/Drivers/STM32N6xx_HAL_Driver/Src/stm32n6xx_hal_spi.c ****     do
2610:STM32Cube_FW_N6/Drivers/STM32N6xx_HAL_Driver/Src/stm32n6xx_hal_spi.c ****     {
2611:STM32Cube_FW_N6/Drivers/STM32N6xx_HAL_Driver/Src/stm32n6xx_hal_spi.c ****       count--;
 7788              		.loc 1 2611 12
 7789 005e BB68     		ldr	r3, [r7, #8]
 7790 0060 013B     		subs	r3, r3, #1
 7791 0062 BB60     		str	r3, [r7, #8]
2612:STM32Cube_FW_N6/Drivers/STM32N6xx_HAL_Driver/Src/stm32n6xx_hal_spi.c ****       if (count == 0UL)
 7792              		.loc 1 2612 17
 7793 0064 BB68     		ldr	r3, [r7, #8]
 7794              		.loc 1 2612 10
 7795 0066 002B     		cmp	r3, #0
 7796 0068 08D1     		bne	.L353
ARM GAS  /tmp/ccwTXtVb.s 			page 184


2613:STM32Cube_FW_N6/Drivers/STM32N6xx_HAL_Driver/Src/stm32n6xx_hal_spi.c ****       {
2614:STM32Cube_FW_N6/Drivers/STM32N6xx_HAL_Driver/Src/stm32n6xx_hal_spi.c ****         SET_BIT(hspi->ErrorCode, HAL_SPI_ERROR_ABORT);
 7797              		.loc 1 2614 9
 7798 006a 7B68     		ldr	r3, [r7, #4]
 7799 006c D3F88C30 		ldr	r3, [r3, #140]
 7800 0070 43F04002 		orr	r2, r3, #64
 7801 0074 7B68     		ldr	r3, [r7, #4]
 7802 0076 C3F88C20 		str	r2, [r3, #140]
2615:STM32Cube_FW_N6/Drivers/STM32N6xx_HAL_Driver/Src/stm32n6xx_hal_spi.c ****         break;
 7803              		.loc 1 2615 9
 7804 007a 06E0     		b	.L354
 7805              	.L353:
2616:STM32Cube_FW_N6/Drivers/STM32N6xx_HAL_Driver/Src/stm32n6xx_hal_spi.c ****       }
2617:STM32Cube_FW_N6/Drivers/STM32N6xx_HAL_Driver/Src/stm32n6xx_hal_spi.c ****     } while (HAL_IS_BIT_SET(hspi->Instance->IER, SPI_IT_EOT));
 7806              		.loc 1 2617 14
 7807 007c 7B68     		ldr	r3, [r7, #4]
 7808 007e 1B68     		ldr	r3, [r3]
 7809 0080 1B69     		ldr	r3, [r3, #16]
 7810 0082 03F00803 		and	r3, r3, #8
 7811 0086 082B     		cmp	r3, #8
 7812 0088 E9D0     		beq	.L355
 7813              	.L354:
2618:STM32Cube_FW_N6/Drivers/STM32N6xx_HAL_Driver/Src/stm32n6xx_hal_spi.c **** 
2619:STM32Cube_FW_N6/Drivers/STM32N6xx_HAL_Driver/Src/stm32n6xx_hal_spi.c ****     /* Request a Suspend transfer */
2620:STM32Cube_FW_N6/Drivers/STM32N6xx_HAL_Driver/Src/stm32n6xx_hal_spi.c ****     SET_BIT(hspi->Instance->CR1, SPI_CR1_CSUSP);
 7814              		.loc 1 2620 5
 7815 008a 7B68     		ldr	r3, [r7, #4]
 7816 008c 1B68     		ldr	r3, [r3]
 7817 008e 1A68     		ldr	r2, [r3]
 7818 0090 7B68     		ldr	r3, [r7, #4]
 7819 0092 1B68     		ldr	r3, [r3]
 7820 0094 42F48062 		orr	r2, r2, #1024
 7821 0098 1A60     		str	r2, [r3]
 7822              	.L358:
2621:STM32Cube_FW_N6/Drivers/STM32N6xx_HAL_Driver/Src/stm32n6xx_hal_spi.c ****     do
2622:STM32Cube_FW_N6/Drivers/STM32N6xx_HAL_Driver/Src/stm32n6xx_hal_spi.c ****     {
2623:STM32Cube_FW_N6/Drivers/STM32N6xx_HAL_Driver/Src/stm32n6xx_hal_spi.c ****       count--;
 7823              		.loc 1 2623 12
 7824 009a BB68     		ldr	r3, [r7, #8]
 7825 009c 013B     		subs	r3, r3, #1
 7826 009e BB60     		str	r3, [r7, #8]
2624:STM32Cube_FW_N6/Drivers/STM32N6xx_HAL_Driver/Src/stm32n6xx_hal_spi.c ****       if (count == 0UL)
 7827              		.loc 1 2624 17
 7828 00a0 BB68     		ldr	r3, [r7, #8]
 7829              		.loc 1 2624 10
 7830 00a2 002B     		cmp	r3, #0
 7831 00a4 08D1     		bne	.L356
2625:STM32Cube_FW_N6/Drivers/STM32N6xx_HAL_Driver/Src/stm32n6xx_hal_spi.c ****       {
2626:STM32Cube_FW_N6/Drivers/STM32N6xx_HAL_Driver/Src/stm32n6xx_hal_spi.c ****         SET_BIT(hspi->ErrorCode, HAL_SPI_ERROR_ABORT);
 7832              		.loc 1 2626 9
 7833 00a6 7B68     		ldr	r3, [r7, #4]
 7834 00a8 D3F88C30 		ldr	r3, [r3, #140]
 7835 00ac 43F04002 		orr	r2, r3, #64
 7836 00b0 7B68     		ldr	r3, [r7, #4]
 7837 00b2 C3F88C20 		str	r2, [r3, #140]
2627:STM32Cube_FW_N6/Drivers/STM32N6xx_HAL_Driver/Src/stm32n6xx_hal_spi.c ****         break;
 7838              		.loc 1 2627 9
ARM GAS  /tmp/ccwTXtVb.s 			page 185


 7839 00b6 07E0     		b	.L357
 7840              	.L356:
2628:STM32Cube_FW_N6/Drivers/STM32N6xx_HAL_Driver/Src/stm32n6xx_hal_spi.c ****       }
2629:STM32Cube_FW_N6/Drivers/STM32N6xx_HAL_Driver/Src/stm32n6xx_hal_spi.c ****     } while (HAL_IS_BIT_SET(hspi->Instance->CR1, SPI_CR1_CSTART));
 7841              		.loc 1 2629 14
 7842 00b8 7B68     		ldr	r3, [r7, #4]
 7843 00ba 1B68     		ldr	r3, [r3]
 7844 00bc 1B68     		ldr	r3, [r3]
 7845 00be 03F40073 		and	r3, r3, #512
 7846 00c2 B3F5007F 		cmp	r3, #512
 7847 00c6 E8D0     		beq	.L358
 7848              	.L357:
2630:STM32Cube_FW_N6/Drivers/STM32N6xx_HAL_Driver/Src/stm32n6xx_hal_spi.c **** 
2631:STM32Cube_FW_N6/Drivers/STM32N6xx_HAL_Driver/Src/stm32n6xx_hal_spi.c ****     /* Clear SUSP flag */
2632:STM32Cube_FW_N6/Drivers/STM32N6xx_HAL_Driver/Src/stm32n6xx_hal_spi.c ****     __HAL_SPI_CLEAR_SUSPFLAG(hspi);
 7849              		.loc 1 2632 5
 7850 00c8 7B68     		ldr	r3, [r7, #4]
 7851 00ca 1B68     		ldr	r3, [r3]
 7852 00cc 9A69     		ldr	r2, [r3, #24]
 7853 00ce 7B68     		ldr	r3, [r7, #4]
 7854 00d0 1B68     		ldr	r3, [r3]
 7855 00d2 42F40062 		orr	r2, r2, #2048
 7856 00d6 9A61     		str	r2, [r3, #24]
 7857              	.L360:
2633:STM32Cube_FW_N6/Drivers/STM32N6xx_HAL_Driver/Src/stm32n6xx_hal_spi.c ****     do
2634:STM32Cube_FW_N6/Drivers/STM32N6xx_HAL_Driver/Src/stm32n6xx_hal_spi.c ****     {
2635:STM32Cube_FW_N6/Drivers/STM32N6xx_HAL_Driver/Src/stm32n6xx_hal_spi.c ****       count--;
 7858              		.loc 1 2635 12
 7859 00d8 BB68     		ldr	r3, [r7, #8]
 7860 00da 013B     		subs	r3, r3, #1
 7861 00dc BB60     		str	r3, [r7, #8]
2636:STM32Cube_FW_N6/Drivers/STM32N6xx_HAL_Driver/Src/stm32n6xx_hal_spi.c ****       if (count == 0UL)
 7862              		.loc 1 2636 17
 7863 00de BB68     		ldr	r3, [r7, #8]
 7864              		.loc 1 2636 10
 7865 00e0 002B     		cmp	r3, #0
 7866 00e2 08D1     		bne	.L359
2637:STM32Cube_FW_N6/Drivers/STM32N6xx_HAL_Driver/Src/stm32n6xx_hal_spi.c ****       {
2638:STM32Cube_FW_N6/Drivers/STM32N6xx_HAL_Driver/Src/stm32n6xx_hal_spi.c ****         SET_BIT(hspi->ErrorCode, HAL_SPI_ERROR_ABORT);
 7867              		.loc 1 2638 9
 7868 00e4 7B68     		ldr	r3, [r7, #4]
 7869 00e6 D3F88C30 		ldr	r3, [r3, #140]
 7870 00ea 43F04002 		orr	r2, r3, #64
 7871 00ee 7B68     		ldr	r3, [r7, #4]
 7872 00f0 C3F88C20 		str	r2, [r3, #140]
2639:STM32Cube_FW_N6/Drivers/STM32N6xx_HAL_Driver/Src/stm32n6xx_hal_spi.c ****         break;
 7873              		.loc 1 2639 9
 7874 00f4 07E0     		b	.L352
 7875              	.L359:
2640:STM32Cube_FW_N6/Drivers/STM32N6xx_HAL_Driver/Src/stm32n6xx_hal_spi.c ****       }
2641:STM32Cube_FW_N6/Drivers/STM32N6xx_HAL_Driver/Src/stm32n6xx_hal_spi.c ****     } while (__HAL_SPI_GET_FLAG(hspi, SPI_FLAG_SUSP));
 7876              		.loc 1 2641 14
 7877 00f6 7B68     		ldr	r3, [r7, #4]
 7878 00f8 1B68     		ldr	r3, [r3]
 7879 00fa 5B69     		ldr	r3, [r3, #20]
 7880 00fc 03F40063 		and	r3, r3, #2048
 7881 0100 B3F5006F 		cmp	r3, #2048
ARM GAS  /tmp/ccwTXtVb.s 			page 186


 7882 0104 E8D0     		beq	.L360
 7883              	.L352:
2642:STM32Cube_FW_N6/Drivers/STM32N6xx_HAL_Driver/Src/stm32n6xx_hal_spi.c ****   }
2643:STM32Cube_FW_N6/Drivers/STM32N6xx_HAL_Driver/Src/stm32n6xx_hal_spi.c **** 
2644:STM32Cube_FW_N6/Drivers/STM32N6xx_HAL_Driver/Src/stm32n6xx_hal_spi.c ****   /* Disable the SPI DMA Tx request if enabled */
2645:STM32Cube_FW_N6/Drivers/STM32N6xx_HAL_Driver/Src/stm32n6xx_hal_spi.c ****   if (HAL_IS_BIT_SET(hspi->Instance->CFG1, SPI_CFG1_TXDMAEN))
 7884              		.loc 1 2645 7
 7885 0106 7B68     		ldr	r3, [r7, #4]
 7886 0108 1B68     		ldr	r3, [r3]
 7887 010a 9B68     		ldr	r3, [r3, #8]
 7888 010c 03F40043 		and	r3, r3, #32768
 7889              		.loc 1 2645 6
 7890 0110 B3F5004F 		cmp	r3, #32768
 7891 0114 1FD1     		bne	.L361
2646:STM32Cube_FW_N6/Drivers/STM32N6xx_HAL_Driver/Src/stm32n6xx_hal_spi.c ****   {
2647:STM32Cube_FW_N6/Drivers/STM32N6xx_HAL_Driver/Src/stm32n6xx_hal_spi.c ****     if (hspi->hdmatx != NULL)
 7892              		.loc 1 2647 13
 7893 0116 7B68     		ldr	r3, [r7, #4]
 7894 0118 D3F88030 		ldr	r3, [r3, #128]
 7895              		.loc 1 2647 8
 7896 011c 002B     		cmp	r3, #0
 7897 011e 1AD0     		beq	.L361
2648:STM32Cube_FW_N6/Drivers/STM32N6xx_HAL_Driver/Src/stm32n6xx_hal_spi.c ****     {
2649:STM32Cube_FW_N6/Drivers/STM32N6xx_HAL_Driver/Src/stm32n6xx_hal_spi.c ****       /* Abort the SPI DMA Tx Stream/Channel : use blocking DMA Abort API (no callback) */
2650:STM32Cube_FW_N6/Drivers/STM32N6xx_HAL_Driver/Src/stm32n6xx_hal_spi.c ****       hspi->hdmatx->XferAbortCallback = NULL;
 7898              		.loc 1 2650 11
 7899 0120 7B68     		ldr	r3, [r7, #4]
 7900 0122 D3F88030 		ldr	r3, [r3, #128]
 7901              		.loc 1 2650 39
 7902 0126 0022     		movs	r2, #0
 7903 0128 DA66     		str	r2, [r3, #108]
2651:STM32Cube_FW_N6/Drivers/STM32N6xx_HAL_Driver/Src/stm32n6xx_hal_spi.c **** 
2652:STM32Cube_FW_N6/Drivers/STM32N6xx_HAL_Driver/Src/stm32n6xx_hal_spi.c ****       /* Abort DMA Tx Handle linked to SPI Peripheral */
2653:STM32Cube_FW_N6/Drivers/STM32N6xx_HAL_Driver/Src/stm32n6xx_hal_spi.c ****       if (HAL_DMA_Abort(hspi->hdmatx) != HAL_OK)
 7904              		.loc 1 2653 11
 7905 012a 7B68     		ldr	r3, [r7, #4]
 7906 012c D3F88030 		ldr	r3, [r3, #128]
 7907 0130 1846     		mov	r0, r3
 7908 0132 FFF7FEFF 		bl	HAL_DMA_Abort
 7909 0136 0346     		mov	r3, r0
 7910              		.loc 1 2653 10 discriminator 1
 7911 0138 002B     		cmp	r3, #0
 7912 013a 0CD0     		beq	.L361
2654:STM32Cube_FW_N6/Drivers/STM32N6xx_HAL_Driver/Src/stm32n6xx_hal_spi.c ****       {
2655:STM32Cube_FW_N6/Drivers/STM32N6xx_HAL_Driver/Src/stm32n6xx_hal_spi.c ****         if (HAL_DMA_GetError(hspi->hdmatx) == HAL_DMA_ERROR_TIMEOUT)
 7913              		.loc 1 2655 34
 7914 013c 7B68     		ldr	r3, [r7, #4]
 7915 013e D3F88030 		ldr	r3, [r3, #128]
 7916              		.loc 1 2655 13
 7917 0142 1846     		mov	r0, r3
 7918 0144 FFF7FEFF 		bl	HAL_DMA_GetError
 7919 0148 0346     		mov	r3, r0
 7920              		.loc 1 2655 12 discriminator 1
 7921 014a 102B     		cmp	r3, #16
 7922 014c 03D1     		bne	.L361
2656:STM32Cube_FW_N6/Drivers/STM32N6xx_HAL_Driver/Src/stm32n6xx_hal_spi.c ****         {
2657:STM32Cube_FW_N6/Drivers/STM32N6xx_HAL_Driver/Src/stm32n6xx_hal_spi.c ****           hspi->ErrorCode = HAL_SPI_ERROR_ABORT;
ARM GAS  /tmp/ccwTXtVb.s 			page 187


 7923              		.loc 1 2657 27
 7924 014e 7B68     		ldr	r3, [r7, #4]
 7925 0150 4022     		movs	r2, #64
 7926 0152 C3F88C20 		str	r2, [r3, #140]
 7927              	.L361:
2658:STM32Cube_FW_N6/Drivers/STM32N6xx_HAL_Driver/Src/stm32n6xx_hal_spi.c ****         }
2659:STM32Cube_FW_N6/Drivers/STM32N6xx_HAL_Driver/Src/stm32n6xx_hal_spi.c ****       }
2660:STM32Cube_FW_N6/Drivers/STM32N6xx_HAL_Driver/Src/stm32n6xx_hal_spi.c ****     }
2661:STM32Cube_FW_N6/Drivers/STM32N6xx_HAL_Driver/Src/stm32n6xx_hal_spi.c ****   }
2662:STM32Cube_FW_N6/Drivers/STM32N6xx_HAL_Driver/Src/stm32n6xx_hal_spi.c **** 
2663:STM32Cube_FW_N6/Drivers/STM32N6xx_HAL_Driver/Src/stm32n6xx_hal_spi.c ****   /* Disable the SPI DMA Rx request if enabled */
2664:STM32Cube_FW_N6/Drivers/STM32N6xx_HAL_Driver/Src/stm32n6xx_hal_spi.c ****   if (HAL_IS_BIT_SET(hspi->Instance->CFG1, SPI_CFG1_RXDMAEN))
 7928              		.loc 1 2664 7
 7929 0156 7B68     		ldr	r3, [r7, #4]
 7930 0158 1B68     		ldr	r3, [r3]
 7931 015a 9B68     		ldr	r3, [r3, #8]
 7932 015c 03F48043 		and	r3, r3, #16384
 7933              		.loc 1 2664 6
 7934 0160 B3F5804F 		cmp	r3, #16384
 7935 0164 1FD1     		bne	.L362
2665:STM32Cube_FW_N6/Drivers/STM32N6xx_HAL_Driver/Src/stm32n6xx_hal_spi.c ****   {
2666:STM32Cube_FW_N6/Drivers/STM32N6xx_HAL_Driver/Src/stm32n6xx_hal_spi.c ****     if (hspi->hdmarx != NULL)
 7936              		.loc 1 2666 13
 7937 0166 7B68     		ldr	r3, [r7, #4]
 7938 0168 D3F88430 		ldr	r3, [r3, #132]
 7939              		.loc 1 2666 8
 7940 016c 002B     		cmp	r3, #0
 7941 016e 1AD0     		beq	.L362
2667:STM32Cube_FW_N6/Drivers/STM32N6xx_HAL_Driver/Src/stm32n6xx_hal_spi.c ****     {
2668:STM32Cube_FW_N6/Drivers/STM32N6xx_HAL_Driver/Src/stm32n6xx_hal_spi.c ****       /* Abort the SPI DMA Rx Stream/Channel : use blocking DMA Abort API (no callback) */
2669:STM32Cube_FW_N6/Drivers/STM32N6xx_HAL_Driver/Src/stm32n6xx_hal_spi.c ****       hspi->hdmarx->XferAbortCallback = NULL;
 7942              		.loc 1 2669 11
 7943 0170 7B68     		ldr	r3, [r7, #4]
 7944 0172 D3F88430 		ldr	r3, [r3, #132]
 7945              		.loc 1 2669 39
 7946 0176 0022     		movs	r2, #0
 7947 0178 DA66     		str	r2, [r3, #108]
2670:STM32Cube_FW_N6/Drivers/STM32N6xx_HAL_Driver/Src/stm32n6xx_hal_spi.c **** 
2671:STM32Cube_FW_N6/Drivers/STM32N6xx_HAL_Driver/Src/stm32n6xx_hal_spi.c ****       /* Abort DMA Rx Handle linked to SPI Peripheral */
2672:STM32Cube_FW_N6/Drivers/STM32N6xx_HAL_Driver/Src/stm32n6xx_hal_spi.c ****       if (HAL_DMA_Abort(hspi->hdmarx) != HAL_OK)
 7948              		.loc 1 2672 11
 7949 017a 7B68     		ldr	r3, [r7, #4]
 7950 017c D3F88430 		ldr	r3, [r3, #132]
 7951 0180 1846     		mov	r0, r3
 7952 0182 FFF7FEFF 		bl	HAL_DMA_Abort
 7953 0186 0346     		mov	r3, r0
 7954              		.loc 1 2672 10 discriminator 1
 7955 0188 002B     		cmp	r3, #0
 7956 018a 0CD0     		beq	.L362
2673:STM32Cube_FW_N6/Drivers/STM32N6xx_HAL_Driver/Src/stm32n6xx_hal_spi.c ****       {
2674:STM32Cube_FW_N6/Drivers/STM32N6xx_HAL_Driver/Src/stm32n6xx_hal_spi.c ****         if (HAL_DMA_GetError(hspi->hdmarx) == HAL_DMA_ERROR_TIMEOUT)
 7957              		.loc 1 2674 34
 7958 018c 7B68     		ldr	r3, [r7, #4]
 7959 018e D3F88430 		ldr	r3, [r3, #132]
 7960              		.loc 1 2674 13
 7961 0192 1846     		mov	r0, r3
 7962 0194 FFF7FEFF 		bl	HAL_DMA_GetError
ARM GAS  /tmp/ccwTXtVb.s 			page 188


 7963 0198 0346     		mov	r3, r0
 7964              		.loc 1 2674 12 discriminator 1
 7965 019a 102B     		cmp	r3, #16
 7966 019c 03D1     		bne	.L362
2675:STM32Cube_FW_N6/Drivers/STM32N6xx_HAL_Driver/Src/stm32n6xx_hal_spi.c ****         {
2676:STM32Cube_FW_N6/Drivers/STM32N6xx_HAL_Driver/Src/stm32n6xx_hal_spi.c ****           hspi->ErrorCode = HAL_SPI_ERROR_ABORT;
 7967              		.loc 1 2676 27
 7968 019e 7B68     		ldr	r3, [r7, #4]
 7969 01a0 4022     		movs	r2, #64
 7970 01a2 C3F88C20 		str	r2, [r3, #140]
 7971              	.L362:
2677:STM32Cube_FW_N6/Drivers/STM32N6xx_HAL_Driver/Src/stm32n6xx_hal_spi.c ****         }
2678:STM32Cube_FW_N6/Drivers/STM32N6xx_HAL_Driver/Src/stm32n6xx_hal_spi.c ****       }
2679:STM32Cube_FW_N6/Drivers/STM32N6xx_HAL_Driver/Src/stm32n6xx_hal_spi.c ****     }
2680:STM32Cube_FW_N6/Drivers/STM32N6xx_HAL_Driver/Src/stm32n6xx_hal_spi.c ****   }
2681:STM32Cube_FW_N6/Drivers/STM32N6xx_HAL_Driver/Src/stm32n6xx_hal_spi.c **** 
2682:STM32Cube_FW_N6/Drivers/STM32N6xx_HAL_Driver/Src/stm32n6xx_hal_spi.c ****   /* Proceed with abort procedure */
2683:STM32Cube_FW_N6/Drivers/STM32N6xx_HAL_Driver/Src/stm32n6xx_hal_spi.c ****   SPI_AbortTransfer(hspi);
 7972              		.loc 1 2683 3
 7973 01a6 7868     		ldr	r0, [r7, #4]
 7974 01a8 FFF7FEFF 		bl	SPI_AbortTransfer
2684:STM32Cube_FW_N6/Drivers/STM32N6xx_HAL_Driver/Src/stm32n6xx_hal_spi.c **** 
2685:STM32Cube_FW_N6/Drivers/STM32N6xx_HAL_Driver/Src/stm32n6xx_hal_spi.c ****   /* Check error during Abort procedure */
2686:STM32Cube_FW_N6/Drivers/STM32N6xx_HAL_Driver/Src/stm32n6xx_hal_spi.c ****   if (HAL_IS_BIT_SET(hspi->ErrorCode, HAL_SPI_ERROR_ABORT))
 7975              		.loc 1 2686 7
 7976 01ac 7B68     		ldr	r3, [r7, #4]
 7977 01ae D3F88C30 		ldr	r3, [r3, #140]
 7978 01b2 03F04003 		and	r3, r3, #64
 7979              		.loc 1 2686 6
 7980 01b6 402B     		cmp	r3, #64
 7981 01b8 02D1     		bne	.L363
2687:STM32Cube_FW_N6/Drivers/STM32N6xx_HAL_Driver/Src/stm32n6xx_hal_spi.c ****   {
2688:STM32Cube_FW_N6/Drivers/STM32N6xx_HAL_Driver/Src/stm32n6xx_hal_spi.c ****     /* return HAL_Error in case of error during Abort procedure */
2689:STM32Cube_FW_N6/Drivers/STM32N6xx_HAL_Driver/Src/stm32n6xx_hal_spi.c ****     errorcode = HAL_ERROR;
 7982              		.loc 1 2689 15
 7983 01ba 0123     		movs	r3, #1
 7984 01bc FB73     		strb	r3, [r7, #15]
 7985 01be 03E0     		b	.L364
 7986              	.L363:
2690:STM32Cube_FW_N6/Drivers/STM32N6xx_HAL_Driver/Src/stm32n6xx_hal_spi.c ****   }
2691:STM32Cube_FW_N6/Drivers/STM32N6xx_HAL_Driver/Src/stm32n6xx_hal_spi.c ****   else
2692:STM32Cube_FW_N6/Drivers/STM32N6xx_HAL_Driver/Src/stm32n6xx_hal_spi.c ****   {
2693:STM32Cube_FW_N6/Drivers/STM32N6xx_HAL_Driver/Src/stm32n6xx_hal_spi.c ****     /* Reset errorCode */
2694:STM32Cube_FW_N6/Drivers/STM32N6xx_HAL_Driver/Src/stm32n6xx_hal_spi.c ****     hspi->ErrorCode = HAL_SPI_ERROR_NONE;
 7987              		.loc 1 2694 21
 7988 01c0 7B68     		ldr	r3, [r7, #4]
 7989 01c2 0022     		movs	r2, #0
 7990 01c4 C3F88C20 		str	r2, [r3, #140]
 7991              	.L364:
2695:STM32Cube_FW_N6/Drivers/STM32N6xx_HAL_Driver/Src/stm32n6xx_hal_spi.c ****   }
2696:STM32Cube_FW_N6/Drivers/STM32N6xx_HAL_Driver/Src/stm32n6xx_hal_spi.c **** 
2697:STM32Cube_FW_N6/Drivers/STM32N6xx_HAL_Driver/Src/stm32n6xx_hal_spi.c ****   /* Restore hspi->state to ready */
2698:STM32Cube_FW_N6/Drivers/STM32N6xx_HAL_Driver/Src/stm32n6xx_hal_spi.c ****   hspi->State = HAL_SPI_STATE_READY;
 7992              		.loc 1 2698 15
 7993 01c8 7B68     		ldr	r3, [r7, #4]
 7994 01ca 0122     		movs	r2, #1
 7995 01cc 83F88920 		strb	r2, [r3, #137]
ARM GAS  /tmp/ccwTXtVb.s 			page 189


2699:STM32Cube_FW_N6/Drivers/STM32N6xx_HAL_Driver/Src/stm32n6xx_hal_spi.c **** 
2700:STM32Cube_FW_N6/Drivers/STM32N6xx_HAL_Driver/Src/stm32n6xx_hal_spi.c ****   /* Unlock the process */
2701:STM32Cube_FW_N6/Drivers/STM32N6xx_HAL_Driver/Src/stm32n6xx_hal_spi.c ****   __HAL_UNLOCK(hspi);
 7996              		.loc 1 2701 3
 7997 01d0 7B68     		ldr	r3, [r7, #4]
 7998 01d2 0022     		movs	r2, #0
 7999 01d4 83F88820 		strb	r2, [r3, #136]
2702:STM32Cube_FW_N6/Drivers/STM32N6xx_HAL_Driver/Src/stm32n6xx_hal_spi.c **** 
2703:STM32Cube_FW_N6/Drivers/STM32N6xx_HAL_Driver/Src/stm32n6xx_hal_spi.c ****   return errorcode;
 8000              		.loc 1 2703 10
 8001 01d8 FB7B     		ldrb	r3, [r7, #15]	@ zero_extendqisi2
 8002              	.L351:
2704:STM32Cube_FW_N6/Drivers/STM32N6xx_HAL_Driver/Src/stm32n6xx_hal_spi.c **** }
 8003              		.loc 1 2704 1
 8004 01da 1846     		mov	r0, r3
 8005 01dc 1037     		adds	r7, r7, #16
 8006              		.cfi_def_cfa_offset 8
 8007 01de BD46     		mov	sp, r7
 8008              		.cfi_def_cfa_register 13
 8009              		@ sp needed
 8010 01e0 80BD     		pop	{r7, pc}
 8011              	.L366:
 8012 01e2 00BF     		.align	2
 8013              	.L365:
 8014 01e4 00000000 		.word	SystemCoreClock
 8015 01e8 F1197605 		.word	91625969
 8016              		.cfi_endproc
 8017              	.LFE848:
 8019              		.section	.text.HAL_SPI_Abort_IT,"ax",%progbits
 8020              		.align	1
 8021              		.global	HAL_SPI_Abort_IT
 8022              		.syntax unified
 8023              		.thumb
 8024              		.thumb_func
 8026              	HAL_SPI_Abort_IT:
 8027              	.LFB849:
2705:STM32Cube_FW_N6/Drivers/STM32N6xx_HAL_Driver/Src/stm32n6xx_hal_spi.c **** 
2706:STM32Cube_FW_N6/Drivers/STM32N6xx_HAL_Driver/Src/stm32n6xx_hal_spi.c **** /**
2707:STM32Cube_FW_N6/Drivers/STM32N6xx_HAL_Driver/Src/stm32n6xx_hal_spi.c ****   * @brief  Abort ongoing transfer (Interrupt mode).
2708:STM32Cube_FW_N6/Drivers/STM32N6xx_HAL_Driver/Src/stm32n6xx_hal_spi.c ****   * @param  hspi SPI handle.
2709:STM32Cube_FW_N6/Drivers/STM32N6xx_HAL_Driver/Src/stm32n6xx_hal_spi.c ****   * @note   This procedure could be used for aborting any ongoing transfer (Tx and Rx),
2710:STM32Cube_FW_N6/Drivers/STM32N6xx_HAL_Driver/Src/stm32n6xx_hal_spi.c ****   *         started in Interrupt or DMA mode.
2711:STM32Cube_FW_N6/Drivers/STM32N6xx_HAL_Driver/Src/stm32n6xx_hal_spi.c ****   * @note   This procedure performs following operations :
2712:STM32Cube_FW_N6/Drivers/STM32N6xx_HAL_Driver/Src/stm32n6xx_hal_spi.c ****   *          + Disable SPI Interrupts (depending of transfer direction)
2713:STM32Cube_FW_N6/Drivers/STM32N6xx_HAL_Driver/Src/stm32n6xx_hal_spi.c ****   *          + Disable the DMA transfer in the peripheral register (if enabled)
2714:STM32Cube_FW_N6/Drivers/STM32N6xx_HAL_Driver/Src/stm32n6xx_hal_spi.c ****   *          + Abort DMA transfer by calling HAL_DMA_Abort_IT (in case of transfer in DMA mode)
2715:STM32Cube_FW_N6/Drivers/STM32N6xx_HAL_Driver/Src/stm32n6xx_hal_spi.c ****   *          + Set handle State to READY
2716:STM32Cube_FW_N6/Drivers/STM32N6xx_HAL_Driver/Src/stm32n6xx_hal_spi.c ****   *          + At abort completion, call user abort complete callback.
2717:STM32Cube_FW_N6/Drivers/STM32N6xx_HAL_Driver/Src/stm32n6xx_hal_spi.c ****   * @note   This procedure is executed in Interrupt mode, meaning that abort procedure could be
2718:STM32Cube_FW_N6/Drivers/STM32N6xx_HAL_Driver/Src/stm32n6xx_hal_spi.c ****   *         considered as completed only when user abort complete callback is executed (not when ex
2719:STM32Cube_FW_N6/Drivers/STM32N6xx_HAL_Driver/Src/stm32n6xx_hal_spi.c ****   * @retval HAL status
2720:STM32Cube_FW_N6/Drivers/STM32N6xx_HAL_Driver/Src/stm32n6xx_hal_spi.c ****   */
2721:STM32Cube_FW_N6/Drivers/STM32N6xx_HAL_Driver/Src/stm32n6xx_hal_spi.c **** HAL_StatusTypeDef HAL_SPI_Abort_IT(SPI_HandleTypeDef *hspi)
2722:STM32Cube_FW_N6/Drivers/STM32N6xx_HAL_Driver/Src/stm32n6xx_hal_spi.c **** {
 8028              		.loc 1 2722 1
 8029              		.cfi_startproc
 8030              		@ args = 0, pretend = 0, frame = 24
ARM GAS  /tmp/ccwTXtVb.s 			page 190


 8031              		@ frame_needed = 1, uses_anonymous_args = 0
 8032 0000 80B5     		push	{r7, lr}
 8033              		.cfi_def_cfa_offset 8
 8034              		.cfi_offset 7, -8
 8035              		.cfi_offset 14, -4
 8036 0002 86B0     		sub	sp, sp, #24
 8037              		.cfi_def_cfa_offset 32
 8038 0004 00AF     		add	r7, sp, #0
 8039              		.cfi_def_cfa_register 7
 8040 0006 7860     		str	r0, [r7, #4]
2723:STM32Cube_FW_N6/Drivers/STM32N6xx_HAL_Driver/Src/stm32n6xx_hal_spi.c ****   HAL_StatusTypeDef errorcode;
2724:STM32Cube_FW_N6/Drivers/STM32N6xx_HAL_Driver/Src/stm32n6xx_hal_spi.c ****   __IO uint32_t count;
2725:STM32Cube_FW_N6/Drivers/STM32N6xx_HAL_Driver/Src/stm32n6xx_hal_spi.c ****   uint32_t dma_tx_abort_done = 1UL;
 8041              		.loc 1 2725 12
 8042 0008 0123     		movs	r3, #1
 8043 000a 3B61     		str	r3, [r7, #16]
2726:STM32Cube_FW_N6/Drivers/STM32N6xx_HAL_Driver/Src/stm32n6xx_hal_spi.c ****   uint32_t dma_rx_abort_done = 1UL;
 8044              		.loc 1 2726 12
 8045 000c 0123     		movs	r3, #1
 8046 000e FB60     		str	r3, [r7, #12]
2727:STM32Cube_FW_N6/Drivers/STM32N6xx_HAL_Driver/Src/stm32n6xx_hal_spi.c **** 
2728:STM32Cube_FW_N6/Drivers/STM32N6xx_HAL_Driver/Src/stm32n6xx_hal_spi.c ****   /* Set hspi->state to aborting to avoid any interaction */
2729:STM32Cube_FW_N6/Drivers/STM32N6xx_HAL_Driver/Src/stm32n6xx_hal_spi.c ****   hspi->State = HAL_SPI_STATE_ABORT;
 8047              		.loc 1 2729 15
 8048 0010 7B68     		ldr	r3, [r7, #4]
 8049 0012 0722     		movs	r2, #7
 8050 0014 83F88920 		strb	r2, [r3, #137]
2730:STM32Cube_FW_N6/Drivers/STM32N6xx_HAL_Driver/Src/stm32n6xx_hal_spi.c **** 
2731:STM32Cube_FW_N6/Drivers/STM32N6xx_HAL_Driver/Src/stm32n6xx_hal_spi.c ****   /* Initialized local variable  */
2732:STM32Cube_FW_N6/Drivers/STM32N6xx_HAL_Driver/Src/stm32n6xx_hal_spi.c ****   errorcode = HAL_OK;
 8051              		.loc 1 2732 13
 8052 0018 0023     		movs	r3, #0
 8053 001a FB75     		strb	r3, [r7, #23]
2733:STM32Cube_FW_N6/Drivers/STM32N6xx_HAL_Driver/Src/stm32n6xx_hal_spi.c ****   count = SPI_DEFAULT_TIMEOUT * (SystemCoreClock / 24UL / 1000UL);
 8054              		.loc 1 2733 57
 8055 001c 7B4B     		ldr	r3, .L385
 8056 001e 1B68     		ldr	r3, [r3]
 8057 0020 7B4A     		ldr	r2, .L385+4
 8058 0022 A2FB0323 		umull	r2, r3, r2, r3
 8059 0026 5B0A     		lsrs	r3, r3, #9
 8060              		.loc 1 2733 31
 8061 0028 6422     		movs	r2, #100
 8062 002a 02FB03F3 		mul	r3, r2, r3
 8063              		.loc 1 2733 9
 8064 002e BB60     		str	r3, [r7, #8]
2734:STM32Cube_FW_N6/Drivers/STM32N6xx_HAL_Driver/Src/stm32n6xx_hal_spi.c **** 
2735:STM32Cube_FW_N6/Drivers/STM32N6xx_HAL_Driver/Src/stm32n6xx_hal_spi.c ****   /* If master communication on going, make sure current frame is done before closing the connectio
2736:STM32Cube_FW_N6/Drivers/STM32N6xx_HAL_Driver/Src/stm32n6xx_hal_spi.c ****   if (HAL_IS_BIT_SET(hspi->Instance->CR1, SPI_CR1_CSTART))
 8065              		.loc 1 2736 7
 8066 0030 7B68     		ldr	r3, [r7, #4]
 8067 0032 1B68     		ldr	r3, [r3]
 8068 0034 1B68     		ldr	r3, [r3]
 8069 0036 03F40073 		and	r3, r3, #512
 8070              		.loc 1 2736 6
 8071 003a B3F5007F 		cmp	r3, #512
 8072 003e 5BD1     		bne	.L368
2737:STM32Cube_FW_N6/Drivers/STM32N6xx_HAL_Driver/Src/stm32n6xx_hal_spi.c ****   {
ARM GAS  /tmp/ccwTXtVb.s 			page 191


2738:STM32Cube_FW_N6/Drivers/STM32N6xx_HAL_Driver/Src/stm32n6xx_hal_spi.c ****     /* Disable EOT interrupt */
2739:STM32Cube_FW_N6/Drivers/STM32N6xx_HAL_Driver/Src/stm32n6xx_hal_spi.c ****     __HAL_SPI_DISABLE_IT(hspi, SPI_IT_EOT);
 8073              		.loc 1 2739 5
 8074 0040 7B68     		ldr	r3, [r7, #4]
 8075 0042 1B68     		ldr	r3, [r3]
 8076 0044 1A69     		ldr	r2, [r3, #16]
 8077 0046 7B68     		ldr	r3, [r7, #4]
 8078 0048 1B68     		ldr	r3, [r3]
 8079 004a 22F00802 		bic	r2, r2, #8
 8080 004e 1A61     		str	r2, [r3, #16]
 8081              	.L371:
2740:STM32Cube_FW_N6/Drivers/STM32N6xx_HAL_Driver/Src/stm32n6xx_hal_spi.c ****     do
2741:STM32Cube_FW_N6/Drivers/STM32N6xx_HAL_Driver/Src/stm32n6xx_hal_spi.c ****     {
2742:STM32Cube_FW_N6/Drivers/STM32N6xx_HAL_Driver/Src/stm32n6xx_hal_spi.c ****       count--;
 8082              		.loc 1 2742 12
 8083 0050 BB68     		ldr	r3, [r7, #8]
 8084 0052 013B     		subs	r3, r3, #1
 8085 0054 BB60     		str	r3, [r7, #8]
2743:STM32Cube_FW_N6/Drivers/STM32N6xx_HAL_Driver/Src/stm32n6xx_hal_spi.c ****       if (count == 0UL)
 8086              		.loc 1 2743 17
 8087 0056 BB68     		ldr	r3, [r7, #8]
 8088              		.loc 1 2743 10
 8089 0058 002B     		cmp	r3, #0
 8090 005a 08D1     		bne	.L369
2744:STM32Cube_FW_N6/Drivers/STM32N6xx_HAL_Driver/Src/stm32n6xx_hal_spi.c ****       {
2745:STM32Cube_FW_N6/Drivers/STM32N6xx_HAL_Driver/Src/stm32n6xx_hal_spi.c ****         SET_BIT(hspi->ErrorCode, HAL_SPI_ERROR_ABORT);
 8091              		.loc 1 2745 9
 8092 005c 7B68     		ldr	r3, [r7, #4]
 8093 005e D3F88C30 		ldr	r3, [r3, #140]
 8094 0062 43F04002 		orr	r2, r3, #64
 8095 0066 7B68     		ldr	r3, [r7, #4]
 8096 0068 C3F88C20 		str	r2, [r3, #140]
2746:STM32Cube_FW_N6/Drivers/STM32N6xx_HAL_Driver/Src/stm32n6xx_hal_spi.c ****         break;
 8097              		.loc 1 2746 9
 8098 006c 06E0     		b	.L370
 8099              	.L369:
2747:STM32Cube_FW_N6/Drivers/STM32N6xx_HAL_Driver/Src/stm32n6xx_hal_spi.c ****       }
2748:STM32Cube_FW_N6/Drivers/STM32N6xx_HAL_Driver/Src/stm32n6xx_hal_spi.c ****     } while (HAL_IS_BIT_SET(hspi->Instance->IER, SPI_IT_EOT));
 8100              		.loc 1 2748 14
 8101 006e 7B68     		ldr	r3, [r7, #4]
 8102 0070 1B68     		ldr	r3, [r3]
 8103 0072 1B69     		ldr	r3, [r3, #16]
 8104 0074 03F00803 		and	r3, r3, #8
 8105 0078 082B     		cmp	r3, #8
 8106 007a E9D0     		beq	.L371
 8107              	.L370:
2749:STM32Cube_FW_N6/Drivers/STM32N6xx_HAL_Driver/Src/stm32n6xx_hal_spi.c **** 
2750:STM32Cube_FW_N6/Drivers/STM32N6xx_HAL_Driver/Src/stm32n6xx_hal_spi.c ****     /* Request a Suspend transfer */
2751:STM32Cube_FW_N6/Drivers/STM32N6xx_HAL_Driver/Src/stm32n6xx_hal_spi.c ****     SET_BIT(hspi->Instance->CR1, SPI_CR1_CSUSP);
 8108              		.loc 1 2751 5
 8109 007c 7B68     		ldr	r3, [r7, #4]
 8110 007e 1B68     		ldr	r3, [r3]
 8111 0080 1A68     		ldr	r2, [r3]
 8112 0082 7B68     		ldr	r3, [r7, #4]
 8113 0084 1B68     		ldr	r3, [r3]
 8114 0086 42F48062 		orr	r2, r2, #1024
 8115 008a 1A60     		str	r2, [r3]
ARM GAS  /tmp/ccwTXtVb.s 			page 192


 8116              	.L374:
2752:STM32Cube_FW_N6/Drivers/STM32N6xx_HAL_Driver/Src/stm32n6xx_hal_spi.c ****     do
2753:STM32Cube_FW_N6/Drivers/STM32N6xx_HAL_Driver/Src/stm32n6xx_hal_spi.c ****     {
2754:STM32Cube_FW_N6/Drivers/STM32N6xx_HAL_Driver/Src/stm32n6xx_hal_spi.c ****       count--;
 8117              		.loc 1 2754 12
 8118 008c BB68     		ldr	r3, [r7, #8]
 8119 008e 013B     		subs	r3, r3, #1
 8120 0090 BB60     		str	r3, [r7, #8]
2755:STM32Cube_FW_N6/Drivers/STM32N6xx_HAL_Driver/Src/stm32n6xx_hal_spi.c ****       if (count == 0UL)
 8121              		.loc 1 2755 17
 8122 0092 BB68     		ldr	r3, [r7, #8]
 8123              		.loc 1 2755 10
 8124 0094 002B     		cmp	r3, #0
 8125 0096 08D1     		bne	.L372
2756:STM32Cube_FW_N6/Drivers/STM32N6xx_HAL_Driver/Src/stm32n6xx_hal_spi.c ****       {
2757:STM32Cube_FW_N6/Drivers/STM32N6xx_HAL_Driver/Src/stm32n6xx_hal_spi.c ****         SET_BIT(hspi->ErrorCode, HAL_SPI_ERROR_ABORT);
 8126              		.loc 1 2757 9
 8127 0098 7B68     		ldr	r3, [r7, #4]
 8128 009a D3F88C30 		ldr	r3, [r3, #140]
 8129 009e 43F04002 		orr	r2, r3, #64
 8130 00a2 7B68     		ldr	r3, [r7, #4]
 8131 00a4 C3F88C20 		str	r2, [r3, #140]
2758:STM32Cube_FW_N6/Drivers/STM32N6xx_HAL_Driver/Src/stm32n6xx_hal_spi.c ****         break;
 8132              		.loc 1 2758 9
 8133 00a8 07E0     		b	.L373
 8134              	.L372:
2759:STM32Cube_FW_N6/Drivers/STM32N6xx_HAL_Driver/Src/stm32n6xx_hal_spi.c ****       }
2760:STM32Cube_FW_N6/Drivers/STM32N6xx_HAL_Driver/Src/stm32n6xx_hal_spi.c ****     } while (HAL_IS_BIT_SET(hspi->Instance->CR1, SPI_CR1_CSTART));
 8135              		.loc 1 2760 14
 8136 00aa 7B68     		ldr	r3, [r7, #4]
 8137 00ac 1B68     		ldr	r3, [r3]
 8138 00ae 1B68     		ldr	r3, [r3]
 8139 00b0 03F40073 		and	r3, r3, #512
 8140 00b4 B3F5007F 		cmp	r3, #512
 8141 00b8 E8D0     		beq	.L374
 8142              	.L373:
2761:STM32Cube_FW_N6/Drivers/STM32N6xx_HAL_Driver/Src/stm32n6xx_hal_spi.c **** 
2762:STM32Cube_FW_N6/Drivers/STM32N6xx_HAL_Driver/Src/stm32n6xx_hal_spi.c ****     /* Clear SUSP flag */
2763:STM32Cube_FW_N6/Drivers/STM32N6xx_HAL_Driver/Src/stm32n6xx_hal_spi.c ****     __HAL_SPI_CLEAR_SUSPFLAG(hspi);
 8143              		.loc 1 2763 5
 8144 00ba 7B68     		ldr	r3, [r7, #4]
 8145 00bc 1B68     		ldr	r3, [r3]
 8146 00be 9A69     		ldr	r2, [r3, #24]
 8147 00c0 7B68     		ldr	r3, [r7, #4]
 8148 00c2 1B68     		ldr	r3, [r3]
 8149 00c4 42F40062 		orr	r2, r2, #2048
 8150 00c8 9A61     		str	r2, [r3, #24]
 8151              	.L376:
2764:STM32Cube_FW_N6/Drivers/STM32N6xx_HAL_Driver/Src/stm32n6xx_hal_spi.c ****     do
2765:STM32Cube_FW_N6/Drivers/STM32N6xx_HAL_Driver/Src/stm32n6xx_hal_spi.c ****     {
2766:STM32Cube_FW_N6/Drivers/STM32N6xx_HAL_Driver/Src/stm32n6xx_hal_spi.c ****       count--;
 8152              		.loc 1 2766 12
 8153 00ca BB68     		ldr	r3, [r7, #8]
 8154 00cc 013B     		subs	r3, r3, #1
 8155 00ce BB60     		str	r3, [r7, #8]
2767:STM32Cube_FW_N6/Drivers/STM32N6xx_HAL_Driver/Src/stm32n6xx_hal_spi.c ****       if (count == 0UL)
 8156              		.loc 1 2767 17
ARM GAS  /tmp/ccwTXtVb.s 			page 193


 8157 00d0 BB68     		ldr	r3, [r7, #8]
 8158              		.loc 1 2767 10
 8159 00d2 002B     		cmp	r3, #0
 8160 00d4 08D1     		bne	.L375
2768:STM32Cube_FW_N6/Drivers/STM32N6xx_HAL_Driver/Src/stm32n6xx_hal_spi.c ****       {
2769:STM32Cube_FW_N6/Drivers/STM32N6xx_HAL_Driver/Src/stm32n6xx_hal_spi.c ****         SET_BIT(hspi->ErrorCode, HAL_SPI_ERROR_ABORT);
 8161              		.loc 1 2769 9
 8162 00d6 7B68     		ldr	r3, [r7, #4]
 8163 00d8 D3F88C30 		ldr	r3, [r3, #140]
 8164 00dc 43F04002 		orr	r2, r3, #64
 8165 00e0 7B68     		ldr	r3, [r7, #4]
 8166 00e2 C3F88C20 		str	r2, [r3, #140]
2770:STM32Cube_FW_N6/Drivers/STM32N6xx_HAL_Driver/Src/stm32n6xx_hal_spi.c ****         break;
 8167              		.loc 1 2770 9
 8168 00e6 07E0     		b	.L368
 8169              	.L375:
2771:STM32Cube_FW_N6/Drivers/STM32N6xx_HAL_Driver/Src/stm32n6xx_hal_spi.c ****       }
2772:STM32Cube_FW_N6/Drivers/STM32N6xx_HAL_Driver/Src/stm32n6xx_hal_spi.c ****     } while (__HAL_SPI_GET_FLAG(hspi, SPI_FLAG_SUSP));
 8170              		.loc 1 2772 14
 8171 00e8 7B68     		ldr	r3, [r7, #4]
 8172 00ea 1B68     		ldr	r3, [r3]
 8173 00ec 5B69     		ldr	r3, [r3, #20]
 8174 00ee 03F40063 		and	r3, r3, #2048
 8175 00f2 B3F5006F 		cmp	r3, #2048
 8176 00f6 E8D0     		beq	.L376
 8177              	.L368:
2773:STM32Cube_FW_N6/Drivers/STM32N6xx_HAL_Driver/Src/stm32n6xx_hal_spi.c ****   }
2774:STM32Cube_FW_N6/Drivers/STM32N6xx_HAL_Driver/Src/stm32n6xx_hal_spi.c **** 
2775:STM32Cube_FW_N6/Drivers/STM32N6xx_HAL_Driver/Src/stm32n6xx_hal_spi.c ****   /* If DMA Tx and/or DMA Rx Handles are associated to SPI Handle, DMA Abort complete callbacks sho
2776:STM32Cube_FW_N6/Drivers/STM32N6xx_HAL_Driver/Src/stm32n6xx_hal_spi.c ****      before any call to DMA Abort functions */
2777:STM32Cube_FW_N6/Drivers/STM32N6xx_HAL_Driver/Src/stm32n6xx_hal_spi.c **** 
2778:STM32Cube_FW_N6/Drivers/STM32N6xx_HAL_Driver/Src/stm32n6xx_hal_spi.c ****   if (hspi->hdmatx != NULL)
 8178              		.loc 1 2778 11
 8179 00f8 7B68     		ldr	r3, [r7, #4]
 8180 00fa D3F88030 		ldr	r3, [r3, #128]
 8181              		.loc 1 2778 6
 8182 00fe 002B     		cmp	r3, #0
 8183 0100 2DD0     		beq	.L377
2779:STM32Cube_FW_N6/Drivers/STM32N6xx_HAL_Driver/Src/stm32n6xx_hal_spi.c ****   {
2780:STM32Cube_FW_N6/Drivers/STM32N6xx_HAL_Driver/Src/stm32n6xx_hal_spi.c ****     if (HAL_IS_BIT_SET(hspi->Instance->CFG1, SPI_CFG1_TXDMAEN))
 8184              		.loc 1 2780 9
 8185 0102 7B68     		ldr	r3, [r7, #4]
 8186 0104 1B68     		ldr	r3, [r3]
 8187 0106 9B68     		ldr	r3, [r3, #8]
 8188 0108 03F40043 		and	r3, r3, #32768
 8189              		.loc 1 2780 8
 8190 010c B3F5004F 		cmp	r3, #32768
 8191 0110 20D1     		bne	.L378
2781:STM32Cube_FW_N6/Drivers/STM32N6xx_HAL_Driver/Src/stm32n6xx_hal_spi.c ****     {
2782:STM32Cube_FW_N6/Drivers/STM32N6xx_HAL_Driver/Src/stm32n6xx_hal_spi.c ****       /* Set DMA Abort Complete callback if SPI DMA Tx request if enabled */
2783:STM32Cube_FW_N6/Drivers/STM32N6xx_HAL_Driver/Src/stm32n6xx_hal_spi.c ****       hspi->hdmatx->XferAbortCallback = SPI_DMATxAbortCallback;
 8192              		.loc 1 2783 11
 8193 0112 7B68     		ldr	r3, [r7, #4]
 8194 0114 D3F88030 		ldr	r3, [r3, #128]
 8195              		.loc 1 2783 39
 8196 0118 3E4A     		ldr	r2, .L385+8
 8197 011a DA66     		str	r2, [r3, #108]
ARM GAS  /tmp/ccwTXtVb.s 			page 194


2784:STM32Cube_FW_N6/Drivers/STM32N6xx_HAL_Driver/Src/stm32n6xx_hal_spi.c **** 
2785:STM32Cube_FW_N6/Drivers/STM32N6xx_HAL_Driver/Src/stm32n6xx_hal_spi.c ****       dma_tx_abort_done = 0UL;
 8198              		.loc 1 2785 25
 8199 011c 0023     		movs	r3, #0
 8200 011e 3B61     		str	r3, [r7, #16]
2786:STM32Cube_FW_N6/Drivers/STM32N6xx_HAL_Driver/Src/stm32n6xx_hal_spi.c **** 
2787:STM32Cube_FW_N6/Drivers/STM32N6xx_HAL_Driver/Src/stm32n6xx_hal_spi.c ****       /* Abort DMA Tx Handle linked to SPI Peripheral */
2788:STM32Cube_FW_N6/Drivers/STM32N6xx_HAL_Driver/Src/stm32n6xx_hal_spi.c ****       if (HAL_DMA_Abort_IT(hspi->hdmatx) != HAL_OK)
 8201              		.loc 1 2788 11
 8202 0120 7B68     		ldr	r3, [r7, #4]
 8203 0122 D3F88030 		ldr	r3, [r3, #128]
 8204 0126 1846     		mov	r0, r3
 8205 0128 FFF7FEFF 		bl	HAL_DMA_Abort_IT
 8206 012c 0346     		mov	r3, r0
 8207              		.loc 1 2788 10 discriminator 1
 8208 012e 002B     		cmp	r3, #0
 8209 0130 15D0     		beq	.L377
2789:STM32Cube_FW_N6/Drivers/STM32N6xx_HAL_Driver/Src/stm32n6xx_hal_spi.c ****       {
2790:STM32Cube_FW_N6/Drivers/STM32N6xx_HAL_Driver/Src/stm32n6xx_hal_spi.c ****         if (HAL_DMA_GetError(hspi->hdmatx) == HAL_DMA_ERROR_NO_XFER)
 8210              		.loc 1 2790 34
 8211 0132 7B68     		ldr	r3, [r7, #4]
 8212 0134 D3F88030 		ldr	r3, [r3, #128]
 8213              		.loc 1 2790 13
 8214 0138 1846     		mov	r0, r3
 8215 013a FFF7FEFF 		bl	HAL_DMA_GetError
 8216 013e 0346     		mov	r3, r0
 8217              		.loc 1 2790 12 discriminator 1
 8218 0140 202B     		cmp	r3, #32
 8219 0142 0CD1     		bne	.L377
2791:STM32Cube_FW_N6/Drivers/STM32N6xx_HAL_Driver/Src/stm32n6xx_hal_spi.c ****         {
2792:STM32Cube_FW_N6/Drivers/STM32N6xx_HAL_Driver/Src/stm32n6xx_hal_spi.c ****           dma_tx_abort_done = 1UL;
 8220              		.loc 1 2792 29
 8221 0144 0123     		movs	r3, #1
 8222 0146 3B61     		str	r3, [r7, #16]
2793:STM32Cube_FW_N6/Drivers/STM32N6xx_HAL_Driver/Src/stm32n6xx_hal_spi.c ****           hspi->hdmatx->XferAbortCallback = NULL;
 8223              		.loc 1 2793 15
 8224 0148 7B68     		ldr	r3, [r7, #4]
 8225 014a D3F88030 		ldr	r3, [r3, #128]
 8226              		.loc 1 2793 43
 8227 014e 0022     		movs	r2, #0
 8228 0150 DA66     		str	r2, [r3, #108]
 8229 0152 04E0     		b	.L377
 8230              	.L378:
2794:STM32Cube_FW_N6/Drivers/STM32N6xx_HAL_Driver/Src/stm32n6xx_hal_spi.c ****         }
2795:STM32Cube_FW_N6/Drivers/STM32N6xx_HAL_Driver/Src/stm32n6xx_hal_spi.c ****       }
2796:STM32Cube_FW_N6/Drivers/STM32N6xx_HAL_Driver/Src/stm32n6xx_hal_spi.c ****     }
2797:STM32Cube_FW_N6/Drivers/STM32N6xx_HAL_Driver/Src/stm32n6xx_hal_spi.c ****     else
2798:STM32Cube_FW_N6/Drivers/STM32N6xx_HAL_Driver/Src/stm32n6xx_hal_spi.c ****     {
2799:STM32Cube_FW_N6/Drivers/STM32N6xx_HAL_Driver/Src/stm32n6xx_hal_spi.c ****       hspi->hdmatx->XferAbortCallback = NULL;
 8231              		.loc 1 2799 11
 8232 0154 7B68     		ldr	r3, [r7, #4]
 8233 0156 D3F88030 		ldr	r3, [r3, #128]
 8234              		.loc 1 2799 39
 8235 015a 0022     		movs	r2, #0
 8236 015c DA66     		str	r2, [r3, #108]
 8237              	.L377:
2800:STM32Cube_FW_N6/Drivers/STM32N6xx_HAL_Driver/Src/stm32n6xx_hal_spi.c ****     }
ARM GAS  /tmp/ccwTXtVb.s 			page 195


2801:STM32Cube_FW_N6/Drivers/STM32N6xx_HAL_Driver/Src/stm32n6xx_hal_spi.c ****   }
2802:STM32Cube_FW_N6/Drivers/STM32N6xx_HAL_Driver/Src/stm32n6xx_hal_spi.c **** 
2803:STM32Cube_FW_N6/Drivers/STM32N6xx_HAL_Driver/Src/stm32n6xx_hal_spi.c ****   if (hspi->hdmarx != NULL)
 8238              		.loc 1 2803 11
 8239 015e 7B68     		ldr	r3, [r7, #4]
 8240 0160 D3F88430 		ldr	r3, [r3, #132]
 8241              		.loc 1 2803 6
 8242 0164 002B     		cmp	r3, #0
 8243 0166 2DD0     		beq	.L379
2804:STM32Cube_FW_N6/Drivers/STM32N6xx_HAL_Driver/Src/stm32n6xx_hal_spi.c ****   {
2805:STM32Cube_FW_N6/Drivers/STM32N6xx_HAL_Driver/Src/stm32n6xx_hal_spi.c ****     if (HAL_IS_BIT_SET(hspi->Instance->CFG1, SPI_CFG1_RXDMAEN))
 8244              		.loc 1 2805 9
 8245 0168 7B68     		ldr	r3, [r7, #4]
 8246 016a 1B68     		ldr	r3, [r3]
 8247 016c 9B68     		ldr	r3, [r3, #8]
 8248 016e 03F48043 		and	r3, r3, #16384
 8249              		.loc 1 2805 8
 8250 0172 B3F5804F 		cmp	r3, #16384
 8251 0176 20D1     		bne	.L380
2806:STM32Cube_FW_N6/Drivers/STM32N6xx_HAL_Driver/Src/stm32n6xx_hal_spi.c ****     {
2807:STM32Cube_FW_N6/Drivers/STM32N6xx_HAL_Driver/Src/stm32n6xx_hal_spi.c ****       /* Set DMA Abort Complete callback if SPI DMA Rx request if enabled */
2808:STM32Cube_FW_N6/Drivers/STM32N6xx_HAL_Driver/Src/stm32n6xx_hal_spi.c ****       hspi->hdmarx->XferAbortCallback = SPI_DMARxAbortCallback;
 8252              		.loc 1 2808 11
 8253 0178 7B68     		ldr	r3, [r7, #4]
 8254 017a D3F88430 		ldr	r3, [r3, #132]
 8255              		.loc 1 2808 39
 8256 017e 264A     		ldr	r2, .L385+12
 8257 0180 DA66     		str	r2, [r3, #108]
2809:STM32Cube_FW_N6/Drivers/STM32N6xx_HAL_Driver/Src/stm32n6xx_hal_spi.c **** 
2810:STM32Cube_FW_N6/Drivers/STM32N6xx_HAL_Driver/Src/stm32n6xx_hal_spi.c ****       dma_rx_abort_done = 0UL;
 8258              		.loc 1 2810 25
 8259 0182 0023     		movs	r3, #0
 8260 0184 FB60     		str	r3, [r7, #12]
2811:STM32Cube_FW_N6/Drivers/STM32N6xx_HAL_Driver/Src/stm32n6xx_hal_spi.c **** 
2812:STM32Cube_FW_N6/Drivers/STM32N6xx_HAL_Driver/Src/stm32n6xx_hal_spi.c ****       /* Abort DMA Rx Handle linked to SPI Peripheral */
2813:STM32Cube_FW_N6/Drivers/STM32N6xx_HAL_Driver/Src/stm32n6xx_hal_spi.c ****       if (HAL_DMA_Abort_IT(hspi->hdmarx) != HAL_OK)
 8261              		.loc 1 2813 11
 8262 0186 7B68     		ldr	r3, [r7, #4]
 8263 0188 D3F88430 		ldr	r3, [r3, #132]
 8264 018c 1846     		mov	r0, r3
 8265 018e FFF7FEFF 		bl	HAL_DMA_Abort_IT
 8266 0192 0346     		mov	r3, r0
 8267              		.loc 1 2813 10 discriminator 1
 8268 0194 002B     		cmp	r3, #0
 8269 0196 15D0     		beq	.L379
2814:STM32Cube_FW_N6/Drivers/STM32N6xx_HAL_Driver/Src/stm32n6xx_hal_spi.c ****       {
2815:STM32Cube_FW_N6/Drivers/STM32N6xx_HAL_Driver/Src/stm32n6xx_hal_spi.c ****         if (HAL_DMA_GetError(hspi->hdmarx) == HAL_DMA_ERROR_NO_XFER)
 8270              		.loc 1 2815 34
 8271 0198 7B68     		ldr	r3, [r7, #4]
 8272 019a D3F88430 		ldr	r3, [r3, #132]
 8273              		.loc 1 2815 13
 8274 019e 1846     		mov	r0, r3
 8275 01a0 FFF7FEFF 		bl	HAL_DMA_GetError
 8276 01a4 0346     		mov	r3, r0
 8277              		.loc 1 2815 12 discriminator 1
 8278 01a6 202B     		cmp	r3, #32
 8279 01a8 0CD1     		bne	.L379
ARM GAS  /tmp/ccwTXtVb.s 			page 196


2816:STM32Cube_FW_N6/Drivers/STM32N6xx_HAL_Driver/Src/stm32n6xx_hal_spi.c ****         {
2817:STM32Cube_FW_N6/Drivers/STM32N6xx_HAL_Driver/Src/stm32n6xx_hal_spi.c ****           dma_rx_abort_done = 1UL;
 8280              		.loc 1 2817 29
 8281 01aa 0123     		movs	r3, #1
 8282 01ac FB60     		str	r3, [r7, #12]
2818:STM32Cube_FW_N6/Drivers/STM32N6xx_HAL_Driver/Src/stm32n6xx_hal_spi.c ****           hspi->hdmarx->XferAbortCallback = NULL;
 8283              		.loc 1 2818 15
 8284 01ae 7B68     		ldr	r3, [r7, #4]
 8285 01b0 D3F88430 		ldr	r3, [r3, #132]
 8286              		.loc 1 2818 43
 8287 01b4 0022     		movs	r2, #0
 8288 01b6 DA66     		str	r2, [r3, #108]
 8289 01b8 04E0     		b	.L379
 8290              	.L380:
2819:STM32Cube_FW_N6/Drivers/STM32N6xx_HAL_Driver/Src/stm32n6xx_hal_spi.c ****         }
2820:STM32Cube_FW_N6/Drivers/STM32N6xx_HAL_Driver/Src/stm32n6xx_hal_spi.c ****       }
2821:STM32Cube_FW_N6/Drivers/STM32N6xx_HAL_Driver/Src/stm32n6xx_hal_spi.c ****     }
2822:STM32Cube_FW_N6/Drivers/STM32N6xx_HAL_Driver/Src/stm32n6xx_hal_spi.c ****     else
2823:STM32Cube_FW_N6/Drivers/STM32N6xx_HAL_Driver/Src/stm32n6xx_hal_spi.c ****     {
2824:STM32Cube_FW_N6/Drivers/STM32N6xx_HAL_Driver/Src/stm32n6xx_hal_spi.c ****       hspi->hdmarx->XferAbortCallback = NULL;
 8291              		.loc 1 2824 11
 8292 01ba 7B68     		ldr	r3, [r7, #4]
 8293 01bc D3F88430 		ldr	r3, [r3, #132]
 8294              		.loc 1 2824 39
 8295 01c0 0022     		movs	r2, #0
 8296 01c2 DA66     		str	r2, [r3, #108]
 8297              	.L379:
2825:STM32Cube_FW_N6/Drivers/STM32N6xx_HAL_Driver/Src/stm32n6xx_hal_spi.c ****     }
2826:STM32Cube_FW_N6/Drivers/STM32N6xx_HAL_Driver/Src/stm32n6xx_hal_spi.c ****   }
2827:STM32Cube_FW_N6/Drivers/STM32N6xx_HAL_Driver/Src/stm32n6xx_hal_spi.c **** 
2828:STM32Cube_FW_N6/Drivers/STM32N6xx_HAL_Driver/Src/stm32n6xx_hal_spi.c ****   /* If no running DMA transfer, finish cleanup and call callbacks */
2829:STM32Cube_FW_N6/Drivers/STM32N6xx_HAL_Driver/Src/stm32n6xx_hal_spi.c ****   if ((dma_tx_abort_done == 1UL) && (dma_rx_abort_done == 1UL))
 8298              		.loc 1 2829 6
 8299 01c4 3B69     		ldr	r3, [r7, #16]
 8300 01c6 012B     		cmp	r3, #1
 8301 01c8 1AD1     		bne	.L381
 8302              		.loc 1 2829 34 discriminator 1
 8303 01ca FB68     		ldr	r3, [r7, #12]
 8304 01cc 012B     		cmp	r3, #1
 8305 01ce 17D1     		bne	.L381
2830:STM32Cube_FW_N6/Drivers/STM32N6xx_HAL_Driver/Src/stm32n6xx_hal_spi.c ****   {
2831:STM32Cube_FW_N6/Drivers/STM32N6xx_HAL_Driver/Src/stm32n6xx_hal_spi.c ****     /* Proceed with abort procedure */
2832:STM32Cube_FW_N6/Drivers/STM32N6xx_HAL_Driver/Src/stm32n6xx_hal_spi.c ****     SPI_AbortTransfer(hspi);
 8306              		.loc 1 2832 5
 8307 01d0 7868     		ldr	r0, [r7, #4]
 8308 01d2 FFF7FEFF 		bl	SPI_AbortTransfer
2833:STM32Cube_FW_N6/Drivers/STM32N6xx_HAL_Driver/Src/stm32n6xx_hal_spi.c **** 
2834:STM32Cube_FW_N6/Drivers/STM32N6xx_HAL_Driver/Src/stm32n6xx_hal_spi.c ****     /* Check error during Abort procedure */
2835:STM32Cube_FW_N6/Drivers/STM32N6xx_HAL_Driver/Src/stm32n6xx_hal_spi.c ****     if (HAL_IS_BIT_SET(hspi->ErrorCode, HAL_SPI_ERROR_ABORT))
 8309              		.loc 1 2835 9
 8310 01d6 7B68     		ldr	r3, [r7, #4]
 8311 01d8 D3F88C30 		ldr	r3, [r3, #140]
 8312 01dc 03F04003 		and	r3, r3, #64
 8313              		.loc 1 2835 8
 8314 01e0 402B     		cmp	r3, #64
 8315 01e2 02D1     		bne	.L382
2836:STM32Cube_FW_N6/Drivers/STM32N6xx_HAL_Driver/Src/stm32n6xx_hal_spi.c ****     {
ARM GAS  /tmp/ccwTXtVb.s 			page 197


2837:STM32Cube_FW_N6/Drivers/STM32N6xx_HAL_Driver/Src/stm32n6xx_hal_spi.c ****       /* return HAL_Error in case of error during Abort procedure */
2838:STM32Cube_FW_N6/Drivers/STM32N6xx_HAL_Driver/Src/stm32n6xx_hal_spi.c ****       errorcode = HAL_ERROR;
 8316              		.loc 1 2838 17
 8317 01e4 0123     		movs	r3, #1
 8318 01e6 FB75     		strb	r3, [r7, #23]
 8319 01e8 03E0     		b	.L383
 8320              	.L382:
2839:STM32Cube_FW_N6/Drivers/STM32N6xx_HAL_Driver/Src/stm32n6xx_hal_spi.c ****     }
2840:STM32Cube_FW_N6/Drivers/STM32N6xx_HAL_Driver/Src/stm32n6xx_hal_spi.c ****     else
2841:STM32Cube_FW_N6/Drivers/STM32N6xx_HAL_Driver/Src/stm32n6xx_hal_spi.c ****     {
2842:STM32Cube_FW_N6/Drivers/STM32N6xx_HAL_Driver/Src/stm32n6xx_hal_spi.c ****       /* Reset errorCode */
2843:STM32Cube_FW_N6/Drivers/STM32N6xx_HAL_Driver/Src/stm32n6xx_hal_spi.c ****       hspi->ErrorCode = HAL_SPI_ERROR_NONE;
 8321              		.loc 1 2843 23
 8322 01ea 7B68     		ldr	r3, [r7, #4]
 8323 01ec 0022     		movs	r2, #0
 8324 01ee C3F88C20 		str	r2, [r3, #140]
 8325              	.L383:
2844:STM32Cube_FW_N6/Drivers/STM32N6xx_HAL_Driver/Src/stm32n6xx_hal_spi.c ****     }
2845:STM32Cube_FW_N6/Drivers/STM32N6xx_HAL_Driver/Src/stm32n6xx_hal_spi.c **** 
2846:STM32Cube_FW_N6/Drivers/STM32N6xx_HAL_Driver/Src/stm32n6xx_hal_spi.c ****     /* Restore hspi->state to ready */
2847:STM32Cube_FW_N6/Drivers/STM32N6xx_HAL_Driver/Src/stm32n6xx_hal_spi.c ****     hspi->State = HAL_SPI_STATE_READY;
 8326              		.loc 1 2847 17
 8327 01f2 7B68     		ldr	r3, [r7, #4]
 8328 01f4 0122     		movs	r2, #1
 8329 01f6 83F88920 		strb	r2, [r3, #137]
2848:STM32Cube_FW_N6/Drivers/STM32N6xx_HAL_Driver/Src/stm32n6xx_hal_spi.c **** 
2849:STM32Cube_FW_N6/Drivers/STM32N6xx_HAL_Driver/Src/stm32n6xx_hal_spi.c ****     /* Call user Abort complete callback */
2850:STM32Cube_FW_N6/Drivers/STM32N6xx_HAL_Driver/Src/stm32n6xx_hal_spi.c **** #if (USE_HAL_SPI_REGISTER_CALLBACKS == 1UL)
2851:STM32Cube_FW_N6/Drivers/STM32N6xx_HAL_Driver/Src/stm32n6xx_hal_spi.c ****     hspi->AbortCpltCallback(hspi);
2852:STM32Cube_FW_N6/Drivers/STM32N6xx_HAL_Driver/Src/stm32n6xx_hal_spi.c **** #else
2853:STM32Cube_FW_N6/Drivers/STM32N6xx_HAL_Driver/Src/stm32n6xx_hal_spi.c ****     HAL_SPI_AbortCpltCallback(hspi);
 8330              		.loc 1 2853 5
 8331 01fa 7868     		ldr	r0, [r7, #4]
 8332 01fc FFF7FEFF 		bl	HAL_SPI_AbortCpltCallback
 8333              	.L381:
2854:STM32Cube_FW_N6/Drivers/STM32N6xx_HAL_Driver/Src/stm32n6xx_hal_spi.c **** #endif /* USE_HAL_SPI_REGISTER_CALLBACKS */
2855:STM32Cube_FW_N6/Drivers/STM32N6xx_HAL_Driver/Src/stm32n6xx_hal_spi.c ****   }
2856:STM32Cube_FW_N6/Drivers/STM32N6xx_HAL_Driver/Src/stm32n6xx_hal_spi.c **** 
2857:STM32Cube_FW_N6/Drivers/STM32N6xx_HAL_Driver/Src/stm32n6xx_hal_spi.c ****   return errorcode;
 8334              		.loc 1 2857 10
 8335 0200 FB7D     		ldrb	r3, [r7, #23]	@ zero_extendqisi2
2858:STM32Cube_FW_N6/Drivers/STM32N6xx_HAL_Driver/Src/stm32n6xx_hal_spi.c **** }
 8336              		.loc 1 2858 1
 8337 0202 1846     		mov	r0, r3
 8338 0204 1837     		adds	r7, r7, #24
 8339              		.cfi_def_cfa_offset 8
 8340 0206 BD46     		mov	sp, r7
 8341              		.cfi_def_cfa_register 13
 8342              		@ sp needed
 8343 0208 80BD     		pop	{r7, pc}
 8344              	.L386:
 8345 020a 00BF     		.align	2
 8346              	.L385:
 8347 020c 00000000 		.word	SystemCoreClock
 8348 0210 F1197605 		.word	91625969
 8349 0214 00000000 		.word	SPI_DMATxAbortCallback
 8350 0218 00000000 		.word	SPI_DMARxAbortCallback
ARM GAS  /tmp/ccwTXtVb.s 			page 198


 8351              		.cfi_endproc
 8352              	.LFE849:
 8354              		.section	.text.HAL_SPI_DMAPause,"ax",%progbits
 8355              		.align	1
 8356              		.global	HAL_SPI_DMAPause
 8357              		.syntax unified
 8358              		.thumb
 8359              		.thumb_func
 8361              	HAL_SPI_DMAPause:
 8362              	.LFB850:
2859:STM32Cube_FW_N6/Drivers/STM32N6xx_HAL_Driver/Src/stm32n6xx_hal_spi.c **** 
2860:STM32Cube_FW_N6/Drivers/STM32N6xx_HAL_Driver/Src/stm32n6xx_hal_spi.c **** /**
2861:STM32Cube_FW_N6/Drivers/STM32N6xx_HAL_Driver/Src/stm32n6xx_hal_spi.c ****   * @brief  Pause the DMA Transfer.
2862:STM32Cube_FW_N6/Drivers/STM32N6xx_HAL_Driver/Src/stm32n6xx_hal_spi.c ****   *         This API is not supported, it is maintained for backward compatibility.
2863:STM32Cube_FW_N6/Drivers/STM32N6xx_HAL_Driver/Src/stm32n6xx_hal_spi.c ****   * @param  hspi: pointer to a SPI_HandleTypeDef structure that contains
2864:STM32Cube_FW_N6/Drivers/STM32N6xx_HAL_Driver/Src/stm32n6xx_hal_spi.c ****   *               the configuration information for the specified SPI module.
2865:STM32Cube_FW_N6/Drivers/STM32N6xx_HAL_Driver/Src/stm32n6xx_hal_spi.c ****   * @retval HAL_ERROR
2866:STM32Cube_FW_N6/Drivers/STM32N6xx_HAL_Driver/Src/stm32n6xx_hal_spi.c ****   */
2867:STM32Cube_FW_N6/Drivers/STM32N6xx_HAL_Driver/Src/stm32n6xx_hal_spi.c **** HAL_StatusTypeDef HAL_SPI_DMAPause(SPI_HandleTypeDef *hspi)
2868:STM32Cube_FW_N6/Drivers/STM32N6xx_HAL_Driver/Src/stm32n6xx_hal_spi.c **** {
 8363              		.loc 1 2868 1
 8364              		.cfi_startproc
 8365              		@ args = 0, pretend = 0, frame = 8
 8366              		@ frame_needed = 1, uses_anonymous_args = 0
 8367              		@ link register save eliminated.
 8368 0000 80B4     		push	{r7}
 8369              		.cfi_def_cfa_offset 4
 8370              		.cfi_offset 7, -4
 8371 0002 83B0     		sub	sp, sp, #12
 8372              		.cfi_def_cfa_offset 16
 8373 0004 00AF     		add	r7, sp, #0
 8374              		.cfi_def_cfa_register 7
 8375 0006 7860     		str	r0, [r7, #4]
2869:STM32Cube_FW_N6/Drivers/STM32N6xx_HAL_Driver/Src/stm32n6xx_hal_spi.c ****   /* Set error code to not supported */
2870:STM32Cube_FW_N6/Drivers/STM32N6xx_HAL_Driver/Src/stm32n6xx_hal_spi.c ****   SET_BIT(hspi->ErrorCode, HAL_SPI_ERROR_NOT_SUPPORTED);
 8376              		.loc 1 2870 3
 8377 0008 7B68     		ldr	r3, [r7, #4]
 8378 000a D3F88C30 		ldr	r3, [r3, #140]
 8379 000e 43F48062 		orr	r2, r3, #1024
 8380 0012 7B68     		ldr	r3, [r7, #4]
 8381 0014 C3F88C20 		str	r2, [r3, #140]
2871:STM32Cube_FW_N6/Drivers/STM32N6xx_HAL_Driver/Src/stm32n6xx_hal_spi.c **** 
2872:STM32Cube_FW_N6/Drivers/STM32N6xx_HAL_Driver/Src/stm32n6xx_hal_spi.c ****   return HAL_ERROR;
 8382              		.loc 1 2872 10
 8383 0018 0123     		movs	r3, #1
2873:STM32Cube_FW_N6/Drivers/STM32N6xx_HAL_Driver/Src/stm32n6xx_hal_spi.c **** }
 8384              		.loc 1 2873 1
 8385 001a 1846     		mov	r0, r3
 8386 001c 0C37     		adds	r7, r7, #12
 8387              		.cfi_def_cfa_offset 4
 8388 001e BD46     		mov	sp, r7
 8389              		.cfi_def_cfa_register 13
 8390              		@ sp needed
 8391 0020 5DF8047B 		ldr	r7, [sp], #4
 8392              		.cfi_restore 7
 8393              		.cfi_def_cfa_offset 0
 8394 0024 7047     		bx	lr
ARM GAS  /tmp/ccwTXtVb.s 			page 199


 8395              		.cfi_endproc
 8396              	.LFE850:
 8398              		.section	.text.HAL_SPI_DMAResume,"ax",%progbits
 8399              		.align	1
 8400              		.global	HAL_SPI_DMAResume
 8401              		.syntax unified
 8402              		.thumb
 8403              		.thumb_func
 8405              	HAL_SPI_DMAResume:
 8406              	.LFB851:
2874:STM32Cube_FW_N6/Drivers/STM32N6xx_HAL_Driver/Src/stm32n6xx_hal_spi.c **** 
2875:STM32Cube_FW_N6/Drivers/STM32N6xx_HAL_Driver/Src/stm32n6xx_hal_spi.c **** /**
2876:STM32Cube_FW_N6/Drivers/STM32N6xx_HAL_Driver/Src/stm32n6xx_hal_spi.c ****   * @brief  Resume the DMA Transfer.
2877:STM32Cube_FW_N6/Drivers/STM32N6xx_HAL_Driver/Src/stm32n6xx_hal_spi.c ****   *         This API is not supported, it is maintained for backward compatibility.
2878:STM32Cube_FW_N6/Drivers/STM32N6xx_HAL_Driver/Src/stm32n6xx_hal_spi.c ****   * @param  hspi: pointer to a SPI_HandleTypeDef structure that contains
2879:STM32Cube_FW_N6/Drivers/STM32N6xx_HAL_Driver/Src/stm32n6xx_hal_spi.c ****   *               the configuration information for the specified SPI module.
2880:STM32Cube_FW_N6/Drivers/STM32N6xx_HAL_Driver/Src/stm32n6xx_hal_spi.c ****   * @retval HAL_ERROR
2881:STM32Cube_FW_N6/Drivers/STM32N6xx_HAL_Driver/Src/stm32n6xx_hal_spi.c ****   */
2882:STM32Cube_FW_N6/Drivers/STM32N6xx_HAL_Driver/Src/stm32n6xx_hal_spi.c **** HAL_StatusTypeDef HAL_SPI_DMAResume(SPI_HandleTypeDef *hspi)
2883:STM32Cube_FW_N6/Drivers/STM32N6xx_HAL_Driver/Src/stm32n6xx_hal_spi.c **** {
 8407              		.loc 1 2883 1
 8408              		.cfi_startproc
 8409              		@ args = 0, pretend = 0, frame = 8
 8410              		@ frame_needed = 1, uses_anonymous_args = 0
 8411              		@ link register save eliminated.
 8412 0000 80B4     		push	{r7}
 8413              		.cfi_def_cfa_offset 4
 8414              		.cfi_offset 7, -4
 8415 0002 83B0     		sub	sp, sp, #12
 8416              		.cfi_def_cfa_offset 16
 8417 0004 00AF     		add	r7, sp, #0
 8418              		.cfi_def_cfa_register 7
 8419 0006 7860     		str	r0, [r7, #4]
2884:STM32Cube_FW_N6/Drivers/STM32N6xx_HAL_Driver/Src/stm32n6xx_hal_spi.c ****   /* Set error code to not supported */
2885:STM32Cube_FW_N6/Drivers/STM32N6xx_HAL_Driver/Src/stm32n6xx_hal_spi.c ****   SET_BIT(hspi->ErrorCode, HAL_SPI_ERROR_NOT_SUPPORTED);
 8420              		.loc 1 2885 3
 8421 0008 7B68     		ldr	r3, [r7, #4]
 8422 000a D3F88C30 		ldr	r3, [r3, #140]
 8423 000e 43F48062 		orr	r2, r3, #1024
 8424 0012 7B68     		ldr	r3, [r7, #4]
 8425 0014 C3F88C20 		str	r2, [r3, #140]
2886:STM32Cube_FW_N6/Drivers/STM32N6xx_HAL_Driver/Src/stm32n6xx_hal_spi.c **** 
2887:STM32Cube_FW_N6/Drivers/STM32N6xx_HAL_Driver/Src/stm32n6xx_hal_spi.c ****   return HAL_ERROR;
 8426              		.loc 1 2887 10
 8427 0018 0123     		movs	r3, #1
2888:STM32Cube_FW_N6/Drivers/STM32N6xx_HAL_Driver/Src/stm32n6xx_hal_spi.c **** }
 8428              		.loc 1 2888 1
 8429 001a 1846     		mov	r0, r3
 8430 001c 0C37     		adds	r7, r7, #12
 8431              		.cfi_def_cfa_offset 4
 8432 001e BD46     		mov	sp, r7
 8433              		.cfi_def_cfa_register 13
 8434              		@ sp needed
 8435 0020 5DF8047B 		ldr	r7, [sp], #4
 8436              		.cfi_restore 7
 8437              		.cfi_def_cfa_offset 0
 8438 0024 7047     		bx	lr
ARM GAS  /tmp/ccwTXtVb.s 			page 200


 8439              		.cfi_endproc
 8440              	.LFE851:
 8442              		.section	.text.HAL_SPI_DMAStop,"ax",%progbits
 8443              		.align	1
 8444              		.global	HAL_SPI_DMAStop
 8445              		.syntax unified
 8446              		.thumb
 8447              		.thumb_func
 8449              	HAL_SPI_DMAStop:
 8450              	.LFB852:
2889:STM32Cube_FW_N6/Drivers/STM32N6xx_HAL_Driver/Src/stm32n6xx_hal_spi.c **** 
2890:STM32Cube_FW_N6/Drivers/STM32N6xx_HAL_Driver/Src/stm32n6xx_hal_spi.c **** /**
2891:STM32Cube_FW_N6/Drivers/STM32N6xx_HAL_Driver/Src/stm32n6xx_hal_spi.c ****   * @brief  Stop the DMA Transfer.
2892:STM32Cube_FW_N6/Drivers/STM32N6xx_HAL_Driver/Src/stm32n6xx_hal_spi.c ****   *         This API is not supported, it is maintained for backward compatibility.
2893:STM32Cube_FW_N6/Drivers/STM32N6xx_HAL_Driver/Src/stm32n6xx_hal_spi.c ****   * @param  hspi: pointer to a SPI_HandleTypeDef structure that contains
2894:STM32Cube_FW_N6/Drivers/STM32N6xx_HAL_Driver/Src/stm32n6xx_hal_spi.c ****   *               the configuration information for the specified SPI module.
2895:STM32Cube_FW_N6/Drivers/STM32N6xx_HAL_Driver/Src/stm32n6xx_hal_spi.c ****   * @retval HAL_ERROR
2896:STM32Cube_FW_N6/Drivers/STM32N6xx_HAL_Driver/Src/stm32n6xx_hal_spi.c ****   */
2897:STM32Cube_FW_N6/Drivers/STM32N6xx_HAL_Driver/Src/stm32n6xx_hal_spi.c **** HAL_StatusTypeDef HAL_SPI_DMAStop(SPI_HandleTypeDef *hspi)
2898:STM32Cube_FW_N6/Drivers/STM32N6xx_HAL_Driver/Src/stm32n6xx_hal_spi.c **** {
 8451              		.loc 1 2898 1
 8452              		.cfi_startproc
 8453              		@ args = 0, pretend = 0, frame = 8
 8454              		@ frame_needed = 1, uses_anonymous_args = 0
 8455              		@ link register save eliminated.
 8456 0000 80B4     		push	{r7}
 8457              		.cfi_def_cfa_offset 4
 8458              		.cfi_offset 7, -4
 8459 0002 83B0     		sub	sp, sp, #12
 8460              		.cfi_def_cfa_offset 16
 8461 0004 00AF     		add	r7, sp, #0
 8462              		.cfi_def_cfa_register 7
 8463 0006 7860     		str	r0, [r7, #4]
2899:STM32Cube_FW_N6/Drivers/STM32N6xx_HAL_Driver/Src/stm32n6xx_hal_spi.c ****   /* Set error code to not supported */
2900:STM32Cube_FW_N6/Drivers/STM32N6xx_HAL_Driver/Src/stm32n6xx_hal_spi.c ****   SET_BIT(hspi->ErrorCode, HAL_SPI_ERROR_NOT_SUPPORTED);
 8464              		.loc 1 2900 3
 8465 0008 7B68     		ldr	r3, [r7, #4]
 8466 000a D3F88C30 		ldr	r3, [r3, #140]
 8467 000e 43F48062 		orr	r2, r3, #1024
 8468 0012 7B68     		ldr	r3, [r7, #4]
 8469 0014 C3F88C20 		str	r2, [r3, #140]
2901:STM32Cube_FW_N6/Drivers/STM32N6xx_HAL_Driver/Src/stm32n6xx_hal_spi.c **** 
2902:STM32Cube_FW_N6/Drivers/STM32N6xx_HAL_Driver/Src/stm32n6xx_hal_spi.c ****   return HAL_ERROR;
 8470              		.loc 1 2902 10
 8471 0018 0123     		movs	r3, #1
2903:STM32Cube_FW_N6/Drivers/STM32N6xx_HAL_Driver/Src/stm32n6xx_hal_spi.c **** }
 8472              		.loc 1 2903 1
 8473 001a 1846     		mov	r0, r3
 8474 001c 0C37     		adds	r7, r7, #12
 8475              		.cfi_def_cfa_offset 4
 8476 001e BD46     		mov	sp, r7
 8477              		.cfi_def_cfa_register 13
 8478              		@ sp needed
 8479 0020 5DF8047B 		ldr	r7, [sp], #4
 8480              		.cfi_restore 7
 8481              		.cfi_def_cfa_offset 0
 8482 0024 7047     		bx	lr
ARM GAS  /tmp/ccwTXtVb.s 			page 201


 8483              		.cfi_endproc
 8484              	.LFE852:
 8486              		.section	.text.HAL_SPI_IRQHandler,"ax",%progbits
 8487              		.align	1
 8488              		.global	HAL_SPI_IRQHandler
 8489              		.syntax unified
 8490              		.thumb
 8491              		.thumb_func
 8493              	HAL_SPI_IRQHandler:
 8494              	.LFB853:
2904:STM32Cube_FW_N6/Drivers/STM32N6xx_HAL_Driver/Src/stm32n6xx_hal_spi.c **** 
2905:STM32Cube_FW_N6/Drivers/STM32N6xx_HAL_Driver/Src/stm32n6xx_hal_spi.c **** /**
2906:STM32Cube_FW_N6/Drivers/STM32N6xx_HAL_Driver/Src/stm32n6xx_hal_spi.c ****   * @brief  Handle SPI interrupt request.
2907:STM32Cube_FW_N6/Drivers/STM32N6xx_HAL_Driver/Src/stm32n6xx_hal_spi.c ****   * @param  hspi: pointer to a SPI_HandleTypeDef structure that contains
2908:STM32Cube_FW_N6/Drivers/STM32N6xx_HAL_Driver/Src/stm32n6xx_hal_spi.c ****   *               the configuration information for the specified SPI module.
2909:STM32Cube_FW_N6/Drivers/STM32N6xx_HAL_Driver/Src/stm32n6xx_hal_spi.c ****   * @retval None
2910:STM32Cube_FW_N6/Drivers/STM32N6xx_HAL_Driver/Src/stm32n6xx_hal_spi.c ****   */
2911:STM32Cube_FW_N6/Drivers/STM32N6xx_HAL_Driver/Src/stm32n6xx_hal_spi.c **** void HAL_SPI_IRQHandler(SPI_HandleTypeDef *hspi)
2912:STM32Cube_FW_N6/Drivers/STM32N6xx_HAL_Driver/Src/stm32n6xx_hal_spi.c **** {
 8495              		.loc 1 2912 1
 8496              		.cfi_startproc
 8497              		@ args = 0, pretend = 0, frame = 40
 8498              		@ frame_needed = 1, uses_anonymous_args = 0
 8499 0000 80B5     		push	{r7, lr}
 8500              		.cfi_def_cfa_offset 8
 8501              		.cfi_offset 7, -8
 8502              		.cfi_offset 14, -4
 8503 0002 8AB0     		sub	sp, sp, #40
 8504              		.cfi_def_cfa_offset 48
 8505 0004 00AF     		add	r7, sp, #0
 8506              		.cfi_def_cfa_register 7
 8507 0006 7860     		str	r0, [r7, #4]
2913:STM32Cube_FW_N6/Drivers/STM32N6xx_HAL_Driver/Src/stm32n6xx_hal_spi.c ****   uint32_t itsource = hspi->Instance->IER;
 8508              		.loc 1 2913 27
 8509 0008 7B68     		ldr	r3, [r7, #4]
 8510 000a 1B68     		ldr	r3, [r3]
 8511              		.loc 1 2913 12
 8512 000c 1B69     		ldr	r3, [r3, #16]
 8513 000e 3B62     		str	r3, [r7, #32]
2914:STM32Cube_FW_N6/Drivers/STM32N6xx_HAL_Driver/Src/stm32n6xx_hal_spi.c ****   uint32_t itflag   = hspi->Instance->SR;
 8514              		.loc 1 2914 27
 8515 0010 7B68     		ldr	r3, [r7, #4]
 8516 0012 1B68     		ldr	r3, [r3]
 8517              		.loc 1 2914 12
 8518 0014 5B69     		ldr	r3, [r3, #20]
 8519 0016 FB61     		str	r3, [r7, #28]
2915:STM32Cube_FW_N6/Drivers/STM32N6xx_HAL_Driver/Src/stm32n6xx_hal_spi.c ****   uint32_t trigger  = itsource & itflag;
 8520              		.loc 1 2915 12
 8521 0018 3A6A     		ldr	r2, [r7, #32]
 8522 001a FB69     		ldr	r3, [r7, #28]
 8523 001c 1340     		ands	r3, r3, r2
 8524 001e BB61     		str	r3, [r7, #24]
2916:STM32Cube_FW_N6/Drivers/STM32N6xx_HAL_Driver/Src/stm32n6xx_hal_spi.c ****   uint32_t cfg1     = hspi->Instance->CFG1;
 8525              		.loc 1 2916 27
 8526 0020 7B68     		ldr	r3, [r7, #4]
 8527 0022 1B68     		ldr	r3, [r3]
 8528              		.loc 1 2916 12
ARM GAS  /tmp/ccwTXtVb.s 			page 202


 8529 0024 9B68     		ldr	r3, [r3, #8]
 8530 0026 7B61     		str	r3, [r7, #20]
2917:STM32Cube_FW_N6/Drivers/STM32N6xx_HAL_Driver/Src/stm32n6xx_hal_spi.c ****   uint32_t handled  = 0UL;
 8531              		.loc 1 2917 12
 8532 0028 0023     		movs	r3, #0
 8533 002a 7B62     		str	r3, [r7, #36]
2918:STM32Cube_FW_N6/Drivers/STM32N6xx_HAL_Driver/Src/stm32n6xx_hal_spi.c **** 
2919:STM32Cube_FW_N6/Drivers/STM32N6xx_HAL_Driver/Src/stm32n6xx_hal_spi.c ****   HAL_SPI_StateTypeDef State = hspi->State;
 8534              		.loc 1 2919 24
 8535 002c 7B68     		ldr	r3, [r7, #4]
 8536 002e 93F88930 		ldrb	r3, [r3, #137]
 8537 0032 FB74     		strb	r3, [r7, #19]
2920:STM32Cube_FW_N6/Drivers/STM32N6xx_HAL_Driver/Src/stm32n6xx_hal_spi.c **** #if defined (__GNUC__)
2921:STM32Cube_FW_N6/Drivers/STM32N6xx_HAL_Driver/Src/stm32n6xx_hal_spi.c ****   __IO uint16_t *prxdr_16bits = (__IO uint16_t *)(&(hspi->Instance->RXDR));
 8538              		.loc 1 2921 57
 8539 0034 7B68     		ldr	r3, [r7, #4]
 8540 0036 1B68     		ldr	r3, [r3]
 8541              		.loc 1 2921 18
 8542 0038 3033     		adds	r3, r3, #48
 8543 003a FB60     		str	r3, [r7, #12]
2922:STM32Cube_FW_N6/Drivers/STM32N6xx_HAL_Driver/Src/stm32n6xx_hal_spi.c **** #endif /* __GNUC__ */
2923:STM32Cube_FW_N6/Drivers/STM32N6xx_HAL_Driver/Src/stm32n6xx_hal_spi.c **** 
2924:STM32Cube_FW_N6/Drivers/STM32N6xx_HAL_Driver/Src/stm32n6xx_hal_spi.c ****   /* SPI in SUSPEND mode  ----------------------------------------------------*/
2925:STM32Cube_FW_N6/Drivers/STM32N6xx_HAL_Driver/Src/stm32n6xx_hal_spi.c ****   if (HAL_IS_BIT_SET(itflag, SPI_FLAG_SUSP) && HAL_IS_BIT_SET(itsource, SPI_FLAG_EOT))
 8544              		.loc 1 2925 7
 8545 003c FB69     		ldr	r3, [r7, #28]
 8546 003e 03F40063 		and	r3, r3, #2048
 8547              		.loc 1 2925 6
 8548 0042 002B     		cmp	r3, #0
 8549 0044 10D0     		beq	.L394
 8550              		.loc 1 2925 48 discriminator 1
 8551 0046 3B6A     		ldr	r3, [r7, #32]
 8552 0048 03F00803 		and	r3, r3, #8
 8553              		.loc 1 2925 45 discriminator 1
 8554 004c 002B     		cmp	r3, #0
 8555 004e 0BD0     		beq	.L394
2926:STM32Cube_FW_N6/Drivers/STM32N6xx_HAL_Driver/Src/stm32n6xx_hal_spi.c ****   {
2927:STM32Cube_FW_N6/Drivers/STM32N6xx_HAL_Driver/Src/stm32n6xx_hal_spi.c ****     /* Clear the Suspend flag */
2928:STM32Cube_FW_N6/Drivers/STM32N6xx_HAL_Driver/Src/stm32n6xx_hal_spi.c ****     __HAL_SPI_CLEAR_SUSPFLAG(hspi);
 8556              		.loc 1 2928 5
 8557 0050 7B68     		ldr	r3, [r7, #4]
 8558 0052 1B68     		ldr	r3, [r3]
 8559 0054 9A69     		ldr	r2, [r3, #24]
 8560 0056 7B68     		ldr	r3, [r7, #4]
 8561 0058 1B68     		ldr	r3, [r3]
 8562 005a 42F40062 		orr	r2, r2, #2048
 8563 005e 9A61     		str	r2, [r3, #24]
2929:STM32Cube_FW_N6/Drivers/STM32N6xx_HAL_Driver/Src/stm32n6xx_hal_spi.c **** 
2930:STM32Cube_FW_N6/Drivers/STM32N6xx_HAL_Driver/Src/stm32n6xx_hal_spi.c ****     /* Suspend on going, Call the Suspend callback */
2931:STM32Cube_FW_N6/Drivers/STM32N6xx_HAL_Driver/Src/stm32n6xx_hal_spi.c **** #if (USE_HAL_SPI_REGISTER_CALLBACKS == 1UL)
2932:STM32Cube_FW_N6/Drivers/STM32N6xx_HAL_Driver/Src/stm32n6xx_hal_spi.c ****     hspi->SuspendCallback(hspi);
2933:STM32Cube_FW_N6/Drivers/STM32N6xx_HAL_Driver/Src/stm32n6xx_hal_spi.c **** #else
2934:STM32Cube_FW_N6/Drivers/STM32N6xx_HAL_Driver/Src/stm32n6xx_hal_spi.c ****     HAL_SPI_SuspendCallback(hspi);
 8564              		.loc 1 2934 5
 8565 0060 7868     		ldr	r0, [r7, #4]
 8566 0062 FFF7FEFF 		bl	HAL_SPI_SuspendCallback
2935:STM32Cube_FW_N6/Drivers/STM32N6xx_HAL_Driver/Src/stm32n6xx_hal_spi.c **** #endif /* USE_HAL_SPI_REGISTER_CALLBACKS */
ARM GAS  /tmp/ccwTXtVb.s 			page 203


2936:STM32Cube_FW_N6/Drivers/STM32N6xx_HAL_Driver/Src/stm32n6xx_hal_spi.c ****     return;
 8567              		.loc 1 2936 5
 8568 0066 9AE1     		b	.L393
 8569              	.L394:
2937:STM32Cube_FW_N6/Drivers/STM32N6xx_HAL_Driver/Src/stm32n6xx_hal_spi.c ****   }
2938:STM32Cube_FW_N6/Drivers/STM32N6xx_HAL_Driver/Src/stm32n6xx_hal_spi.c **** 
2939:STM32Cube_FW_N6/Drivers/STM32N6xx_HAL_Driver/Src/stm32n6xx_hal_spi.c ****   /* SPI in mode Transmitter and Receiver ------------------------------------*/
2940:STM32Cube_FW_N6/Drivers/STM32N6xx_HAL_Driver/Src/stm32n6xx_hal_spi.c ****   if (HAL_IS_BIT_CLR(trigger, SPI_FLAG_OVR) && HAL_IS_BIT_CLR(trigger, SPI_FLAG_UDR) && \
 8570              		.loc 1 2940 7
 8571 0068 BB69     		ldr	r3, [r7, #24]
 8572 006a 03F04003 		and	r3, r3, #64
 8573              		.loc 1 2940 6
 8574 006e 002B     		cmp	r3, #0
 8575 0070 13D1     		bne	.L396
 8576              		.loc 1 2940 48 discriminator 1
 8577 0072 BB69     		ldr	r3, [r7, #24]
 8578 0074 03F02003 		and	r3, r3, #32
 8579              		.loc 1 2940 45 discriminator 1
 8580 0078 002B     		cmp	r3, #0
 8581 007a 0ED1     		bne	.L396
2941:STM32Cube_FW_N6/Drivers/STM32N6xx_HAL_Driver/Src/stm32n6xx_hal_spi.c ****       HAL_IS_BIT_SET(trigger, SPI_FLAG_DXP))
 8582              		.loc 1 2941 7
 8583 007c BB69     		ldr	r3, [r7, #24]
 8584 007e 03F00403 		and	r3, r3, #4
2940:STM32Cube_FW_N6/Drivers/STM32N6xx_HAL_Driver/Src/stm32n6xx_hal_spi.c ****       HAL_IS_BIT_SET(trigger, SPI_FLAG_DXP))
 8585              		.loc 1 2940 86 discriminator 2
 8586 0082 002B     		cmp	r3, #0
 8587 0084 09D0     		beq	.L396
2942:STM32Cube_FW_N6/Drivers/STM32N6xx_HAL_Driver/Src/stm32n6xx_hal_spi.c ****   {
2943:STM32Cube_FW_N6/Drivers/STM32N6xx_HAL_Driver/Src/stm32n6xx_hal_spi.c ****     hspi->TxISR(hspi);
 8588              		.loc 1 2943 9
 8589 0086 7B68     		ldr	r3, [r7, #4]
 8590 0088 DB6F     		ldr	r3, [r3, #124]
 8591              		.loc 1 2943 5
 8592 008a 7868     		ldr	r0, [r7, #4]
 8593 008c 9847     		blx	r3
 8594              	.LVL0:
2944:STM32Cube_FW_N6/Drivers/STM32N6xx_HAL_Driver/Src/stm32n6xx_hal_spi.c ****     hspi->RxISR(hspi);
 8595              		.loc 1 2944 9
 8596 008e 7B68     		ldr	r3, [r7, #4]
 8597 0090 9B6F     		ldr	r3, [r3, #120]
 8598              		.loc 1 2944 5
 8599 0092 7868     		ldr	r0, [r7, #4]
 8600 0094 9847     		blx	r3
 8601              	.LVL1:
2945:STM32Cube_FW_N6/Drivers/STM32N6xx_HAL_Driver/Src/stm32n6xx_hal_spi.c ****     handled = 1UL;
 8602              		.loc 1 2945 13
 8603 0096 0123     		movs	r3, #1
 8604 0098 7B62     		str	r3, [r7, #36]
 8605              	.L396:
2946:STM32Cube_FW_N6/Drivers/STM32N6xx_HAL_Driver/Src/stm32n6xx_hal_spi.c ****   }
2947:STM32Cube_FW_N6/Drivers/STM32N6xx_HAL_Driver/Src/stm32n6xx_hal_spi.c **** 
2948:STM32Cube_FW_N6/Drivers/STM32N6xx_HAL_Driver/Src/stm32n6xx_hal_spi.c ****   /* SPI in mode Receiver ----------------------------------------------------*/
2949:STM32Cube_FW_N6/Drivers/STM32N6xx_HAL_Driver/Src/stm32n6xx_hal_spi.c ****   if (HAL_IS_BIT_CLR(trigger, SPI_FLAG_OVR) && HAL_IS_BIT_SET(trigger, SPI_FLAG_RXP) && \
 8606              		.loc 1 2949 7
 8607 009a BB69     		ldr	r3, [r7, #24]
 8608 009c 03F04003 		and	r3, r3, #64
ARM GAS  /tmp/ccwTXtVb.s 			page 204


 8609              		.loc 1 2949 6
 8610 00a0 002B     		cmp	r3, #0
 8611 00a2 0FD1     		bne	.L397
 8612              		.loc 1 2949 48 discriminator 1
 8613 00a4 BB69     		ldr	r3, [r7, #24]
 8614 00a6 03F00103 		and	r3, r3, #1
 8615              		.loc 1 2949 45 discriminator 1
 8616 00aa 002B     		cmp	r3, #0
 8617 00ac 0AD0     		beq	.L397
2950:STM32Cube_FW_N6/Drivers/STM32N6xx_HAL_Driver/Src/stm32n6xx_hal_spi.c ****       HAL_IS_BIT_CLR(trigger, SPI_FLAG_DXP))
 8618              		.loc 1 2950 7
 8619 00ae BB69     		ldr	r3, [r7, #24]
 8620 00b0 03F00403 		and	r3, r3, #4
2949:STM32Cube_FW_N6/Drivers/STM32N6xx_HAL_Driver/Src/stm32n6xx_hal_spi.c ****       HAL_IS_BIT_CLR(trigger, SPI_FLAG_DXP))
 8621              		.loc 1 2949 86 discriminator 2
 8622 00b4 002B     		cmp	r3, #0
 8623 00b6 05D1     		bne	.L397
2951:STM32Cube_FW_N6/Drivers/STM32N6xx_HAL_Driver/Src/stm32n6xx_hal_spi.c ****   {
2952:STM32Cube_FW_N6/Drivers/STM32N6xx_HAL_Driver/Src/stm32n6xx_hal_spi.c ****     hspi->RxISR(hspi);
 8624              		.loc 1 2952 9
 8625 00b8 7B68     		ldr	r3, [r7, #4]
 8626 00ba 9B6F     		ldr	r3, [r3, #120]
 8627              		.loc 1 2952 5
 8628 00bc 7868     		ldr	r0, [r7, #4]
 8629 00be 9847     		blx	r3
 8630              	.LVL2:
2953:STM32Cube_FW_N6/Drivers/STM32N6xx_HAL_Driver/Src/stm32n6xx_hal_spi.c ****     handled = 1UL;
 8631              		.loc 1 2953 13
 8632 00c0 0123     		movs	r3, #1
 8633 00c2 7B62     		str	r3, [r7, #36]
 8634              	.L397:
2954:STM32Cube_FW_N6/Drivers/STM32N6xx_HAL_Driver/Src/stm32n6xx_hal_spi.c ****   }
2955:STM32Cube_FW_N6/Drivers/STM32N6xx_HAL_Driver/Src/stm32n6xx_hal_spi.c **** 
2956:STM32Cube_FW_N6/Drivers/STM32N6xx_HAL_Driver/Src/stm32n6xx_hal_spi.c ****   /* SPI in mode Transmitter -------------------------------------------------*/
2957:STM32Cube_FW_N6/Drivers/STM32N6xx_HAL_Driver/Src/stm32n6xx_hal_spi.c ****   if (HAL_IS_BIT_CLR(trigger, SPI_FLAG_UDR) && HAL_IS_BIT_SET(trigger, SPI_FLAG_TXP) && \
 8635              		.loc 1 2957 7
 8636 00c4 BB69     		ldr	r3, [r7, #24]
 8637 00c6 03F02003 		and	r3, r3, #32
 8638              		.loc 1 2957 6
 8639 00ca 002B     		cmp	r3, #0
 8640 00cc 0FD1     		bne	.L398
 8641              		.loc 1 2957 48 discriminator 1
 8642 00ce BB69     		ldr	r3, [r7, #24]
 8643 00d0 03F00203 		and	r3, r3, #2
 8644              		.loc 1 2957 45 discriminator 1
 8645 00d4 002B     		cmp	r3, #0
 8646 00d6 0AD0     		beq	.L398
2958:STM32Cube_FW_N6/Drivers/STM32N6xx_HAL_Driver/Src/stm32n6xx_hal_spi.c ****       HAL_IS_BIT_CLR(trigger, SPI_FLAG_DXP))
 8647              		.loc 1 2958 7
 8648 00d8 BB69     		ldr	r3, [r7, #24]
 8649 00da 03F00403 		and	r3, r3, #4
2957:STM32Cube_FW_N6/Drivers/STM32N6xx_HAL_Driver/Src/stm32n6xx_hal_spi.c ****       HAL_IS_BIT_CLR(trigger, SPI_FLAG_DXP))
 8650              		.loc 1 2957 86 discriminator 2
 8651 00de 002B     		cmp	r3, #0
 8652 00e0 05D1     		bne	.L398
2959:STM32Cube_FW_N6/Drivers/STM32N6xx_HAL_Driver/Src/stm32n6xx_hal_spi.c ****   {
2960:STM32Cube_FW_N6/Drivers/STM32N6xx_HAL_Driver/Src/stm32n6xx_hal_spi.c ****     hspi->TxISR(hspi);
ARM GAS  /tmp/ccwTXtVb.s 			page 205


 8653              		.loc 1 2960 9
 8654 00e2 7B68     		ldr	r3, [r7, #4]
 8655 00e4 DB6F     		ldr	r3, [r3, #124]
 8656              		.loc 1 2960 5
 8657 00e6 7868     		ldr	r0, [r7, #4]
 8658 00e8 9847     		blx	r3
 8659              	.LVL3:
2961:STM32Cube_FW_N6/Drivers/STM32N6xx_HAL_Driver/Src/stm32n6xx_hal_spi.c ****     handled = 1UL;
 8660              		.loc 1 2961 13
 8661 00ea 0123     		movs	r3, #1
 8662 00ec 7B62     		str	r3, [r7, #36]
 8663              	.L398:
2962:STM32Cube_FW_N6/Drivers/STM32N6xx_HAL_Driver/Src/stm32n6xx_hal_spi.c ****   }
2963:STM32Cube_FW_N6/Drivers/STM32N6xx_HAL_Driver/Src/stm32n6xx_hal_spi.c **** 
2964:STM32Cube_FW_N6/Drivers/STM32N6xx_HAL_Driver/Src/stm32n6xx_hal_spi.c ****   if (handled != 0UL)
 8664              		.loc 1 2964 6
 8665 00ee 7B6A     		ldr	r3, [r7, #36]
 8666 00f0 002B     		cmp	r3, #0
 8667 00f2 40F04F81 		bne	.L418
2965:STM32Cube_FW_N6/Drivers/STM32N6xx_HAL_Driver/Src/stm32n6xx_hal_spi.c ****   {
2966:STM32Cube_FW_N6/Drivers/STM32N6xx_HAL_Driver/Src/stm32n6xx_hal_spi.c ****     return;
2967:STM32Cube_FW_N6/Drivers/STM32N6xx_HAL_Driver/Src/stm32n6xx_hal_spi.c ****   }
2968:STM32Cube_FW_N6/Drivers/STM32N6xx_HAL_Driver/Src/stm32n6xx_hal_spi.c **** 
2969:STM32Cube_FW_N6/Drivers/STM32N6xx_HAL_Driver/Src/stm32n6xx_hal_spi.c ****   /* SPI End Of Transfer: DMA or IT based transfer */
2970:STM32Cube_FW_N6/Drivers/STM32N6xx_HAL_Driver/Src/stm32n6xx_hal_spi.c ****   if (HAL_IS_BIT_SET(trigger, SPI_FLAG_EOT))
 8668              		.loc 1 2970 7
 8669 00f6 BB69     		ldr	r3, [r7, #24]
 8670 00f8 03F00803 		and	r3, r3, #8
 8671              		.loc 1 2970 6
 8672 00fc 002B     		cmp	r3, #0
 8673 00fe 00F08B80 		beq	.L400
2971:STM32Cube_FW_N6/Drivers/STM32N6xx_HAL_Driver/Src/stm32n6xx_hal_spi.c ****   {
2972:STM32Cube_FW_N6/Drivers/STM32N6xx_HAL_Driver/Src/stm32n6xx_hal_spi.c ****     /* Clear EOT/TXTF/SUSP flag */
2973:STM32Cube_FW_N6/Drivers/STM32N6xx_HAL_Driver/Src/stm32n6xx_hal_spi.c ****     __HAL_SPI_CLEAR_EOTFLAG(hspi);
 8674              		.loc 1 2973 5
 8675 0102 7B68     		ldr	r3, [r7, #4]
 8676 0104 1B68     		ldr	r3, [r3]
 8677 0106 9A69     		ldr	r2, [r3, #24]
 8678 0108 7B68     		ldr	r3, [r7, #4]
 8679 010a 1B68     		ldr	r3, [r3]
 8680 010c 42F00802 		orr	r2, r2, #8
 8681 0110 9A61     		str	r2, [r3, #24]
2974:STM32Cube_FW_N6/Drivers/STM32N6xx_HAL_Driver/Src/stm32n6xx_hal_spi.c ****     __HAL_SPI_CLEAR_TXTFFLAG(hspi);
 8682              		.loc 1 2974 5
 8683 0112 7B68     		ldr	r3, [r7, #4]
 8684 0114 1B68     		ldr	r3, [r3]
 8685 0116 9A69     		ldr	r2, [r3, #24]
 8686 0118 7B68     		ldr	r3, [r7, #4]
 8687 011a 1B68     		ldr	r3, [r3]
 8688 011c 42F01002 		orr	r2, r2, #16
 8689 0120 9A61     		str	r2, [r3, #24]
2975:STM32Cube_FW_N6/Drivers/STM32N6xx_HAL_Driver/Src/stm32n6xx_hal_spi.c ****     __HAL_SPI_CLEAR_SUSPFLAG(hspi);
 8690              		.loc 1 2975 5
 8691 0122 7B68     		ldr	r3, [r7, #4]
 8692 0124 1B68     		ldr	r3, [r3]
 8693 0126 9A69     		ldr	r2, [r3, #24]
 8694 0128 7B68     		ldr	r3, [r7, #4]
ARM GAS  /tmp/ccwTXtVb.s 			page 206


 8695 012a 1B68     		ldr	r3, [r3]
 8696 012c 42F40062 		orr	r2, r2, #2048
 8697 0130 9A61     		str	r2, [r3, #24]
2976:STM32Cube_FW_N6/Drivers/STM32N6xx_HAL_Driver/Src/stm32n6xx_hal_spi.c **** 
2977:STM32Cube_FW_N6/Drivers/STM32N6xx_HAL_Driver/Src/stm32n6xx_hal_spi.c ****     /* Disable EOT interrupt */
2978:STM32Cube_FW_N6/Drivers/STM32N6xx_HAL_Driver/Src/stm32n6xx_hal_spi.c ****     __HAL_SPI_DISABLE_IT(hspi, SPI_IT_EOT);
 8698              		.loc 1 2978 5
 8699 0132 7B68     		ldr	r3, [r7, #4]
 8700 0134 1B68     		ldr	r3, [r3]
 8701 0136 1A69     		ldr	r2, [r3, #16]
 8702 0138 7B68     		ldr	r3, [r7, #4]
 8703 013a 1B68     		ldr	r3, [r3]
 8704 013c 22F00802 		bic	r2, r2, #8
 8705 0140 1A61     		str	r2, [r3, #16]
2979:STM32Cube_FW_N6/Drivers/STM32N6xx_HAL_Driver/Src/stm32n6xx_hal_spi.c **** 
2980:STM32Cube_FW_N6/Drivers/STM32N6xx_HAL_Driver/Src/stm32n6xx_hal_spi.c ****     /* For the IT based receive extra polling maybe required for last packet */
2981:STM32Cube_FW_N6/Drivers/STM32N6xx_HAL_Driver/Src/stm32n6xx_hal_spi.c ****     if (HAL_IS_BIT_CLR(hspi->Instance->CFG1, SPI_CFG1_TXDMAEN | SPI_CFG1_RXDMAEN))
 8706              		.loc 1 2981 9
 8707 0142 7B68     		ldr	r3, [r7, #4]
 8708 0144 1B68     		ldr	r3, [r3]
 8709 0146 9B68     		ldr	r3, [r3, #8]
 8710 0148 03F44043 		and	r3, r3, #49152
 8711              		.loc 1 2981 8
 8712 014c 002B     		cmp	r3, #0
 8713 014e 3DD1     		bne	.L401
2982:STM32Cube_FW_N6/Drivers/STM32N6xx_HAL_Driver/Src/stm32n6xx_hal_spi.c ****     {
2983:STM32Cube_FW_N6/Drivers/STM32N6xx_HAL_Driver/Src/stm32n6xx_hal_spi.c ****       /* Pooling remaining data */
2984:STM32Cube_FW_N6/Drivers/STM32N6xx_HAL_Driver/Src/stm32n6xx_hal_spi.c ****       while (hspi->RxXferCount != 0UL)
 8714              		.loc 1 2984 13
 8715 0150 36E0     		b	.L402
 8716              	.L406:
2985:STM32Cube_FW_N6/Drivers/STM32N6xx_HAL_Driver/Src/stm32n6xx_hal_spi.c ****       {
2986:STM32Cube_FW_N6/Drivers/STM32N6xx_HAL_Driver/Src/stm32n6xx_hal_spi.c ****         /* Receive data in 32 Bit mode */
2987:STM32Cube_FW_N6/Drivers/STM32N6xx_HAL_Driver/Src/stm32n6xx_hal_spi.c ****         if (hspi->Init.DataSize > SPI_DATASIZE_16BIT)
 8717              		.loc 1 2987 23
 8718 0152 7B68     		ldr	r3, [r7, #4]
 8719 0154 DB68     		ldr	r3, [r3, #12]
 8720              		.loc 1 2987 12
 8721 0156 0F2B     		cmp	r3, #15
 8722 0158 0BD9     		bls	.L403
2988:STM32Cube_FW_N6/Drivers/STM32N6xx_HAL_Driver/Src/stm32n6xx_hal_spi.c ****         {
2989:STM32Cube_FW_N6/Drivers/STM32N6xx_HAL_Driver/Src/stm32n6xx_hal_spi.c ****           *((uint32_t *)hspi->pRxBuffPtr) = *((__IO uint32_t *)&hspi->Instance->RXDR);
 8723              		.loc 1 2989 69
 8724 015a 7B68     		ldr	r3, [r7, #4]
 8725 015c 1A68     		ldr	r2, [r3]
 8726              		.loc 1 2989 29
 8727 015e 7B68     		ldr	r3, [r7, #4]
 8728 0160 DB6E     		ldr	r3, [r3, #108]
 8729              		.loc 1 2989 45
 8730 0162 126B     		ldr	r2, [r2, #48]
 8731              		.loc 1 2989 43
 8732 0164 1A60     		str	r2, [r3]
2990:STM32Cube_FW_N6/Drivers/STM32N6xx_HAL_Driver/Src/stm32n6xx_hal_spi.c ****           hspi->pRxBuffPtr += sizeof(uint32_t);
 8733              		.loc 1 2990 15
 8734 0166 7B68     		ldr	r3, [r7, #4]
 8735 0168 DB6E     		ldr	r3, [r3, #108]
 8736              		.loc 1 2990 28
ARM GAS  /tmp/ccwTXtVb.s 			page 207


 8737 016a 1A1D     		adds	r2, r3, #4
 8738 016c 7B68     		ldr	r3, [r7, #4]
 8739 016e DA66     		str	r2, [r3, #108]
 8740 0170 1DE0     		b	.L404
 8741              	.L403:
2991:STM32Cube_FW_N6/Drivers/STM32N6xx_HAL_Driver/Src/stm32n6xx_hal_spi.c ****         }
2992:STM32Cube_FW_N6/Drivers/STM32N6xx_HAL_Driver/Src/stm32n6xx_hal_spi.c ****         /* Receive data in 16 Bit mode */
2993:STM32Cube_FW_N6/Drivers/STM32N6xx_HAL_Driver/Src/stm32n6xx_hal_spi.c ****         else if (hspi->Init.DataSize > SPI_DATASIZE_8BIT)
 8742              		.loc 1 2993 28
 8743 0172 7B68     		ldr	r3, [r7, #4]
 8744 0174 DB68     		ldr	r3, [r3, #12]
 8745              		.loc 1 2993 17
 8746 0176 072B     		cmp	r3, #7
 8747 0178 0BD9     		bls	.L405
2994:STM32Cube_FW_N6/Drivers/STM32N6xx_HAL_Driver/Src/stm32n6xx_hal_spi.c ****         {
2995:STM32Cube_FW_N6/Drivers/STM32N6xx_HAL_Driver/Src/stm32n6xx_hal_spi.c **** #if defined (__GNUC__)
2996:STM32Cube_FW_N6/Drivers/STM32N6xx_HAL_Driver/Src/stm32n6xx_hal_spi.c ****           *((uint16_t *)hspi->pRxBuffPtr) = *prxdr_16bits;
 8748              		.loc 1 2996 29
 8749 017a 7B68     		ldr	r3, [r7, #4]
 8750 017c DB6E     		ldr	r3, [r3, #108]
 8751              		.loc 1 2996 45
 8752 017e FA68     		ldr	r2, [r7, #12]
 8753 0180 1288     		ldrh	r2, [r2]	@ movhi
 8754 0182 92B2     		uxth	r2, r2
 8755              		.loc 1 2996 43
 8756 0184 1A80     		strh	r2, [r3]	@ movhi
2997:STM32Cube_FW_N6/Drivers/STM32N6xx_HAL_Driver/Src/stm32n6xx_hal_spi.c **** #else
2998:STM32Cube_FW_N6/Drivers/STM32N6xx_HAL_Driver/Src/stm32n6xx_hal_spi.c ****           *((uint16_t *)hspi->pRxBuffPtr) = *((__IO uint16_t *)&hspi->Instance->RXDR);
2999:STM32Cube_FW_N6/Drivers/STM32N6xx_HAL_Driver/Src/stm32n6xx_hal_spi.c **** #endif /* __GNUC__ */
3000:STM32Cube_FW_N6/Drivers/STM32N6xx_HAL_Driver/Src/stm32n6xx_hal_spi.c ****           hspi->pRxBuffPtr += sizeof(uint16_t);
 8757              		.loc 1 3000 15
 8758 0186 7B68     		ldr	r3, [r7, #4]
 8759 0188 DB6E     		ldr	r3, [r3, #108]
 8760              		.loc 1 3000 28
 8761 018a 9A1C     		adds	r2, r3, #2
 8762 018c 7B68     		ldr	r3, [r7, #4]
 8763 018e DA66     		str	r2, [r3, #108]
 8764 0190 0DE0     		b	.L404
 8765              	.L405:
3001:STM32Cube_FW_N6/Drivers/STM32N6xx_HAL_Driver/Src/stm32n6xx_hal_spi.c ****         }
3002:STM32Cube_FW_N6/Drivers/STM32N6xx_HAL_Driver/Src/stm32n6xx_hal_spi.c ****         /* Receive data in 8 Bit mode */
3003:STM32Cube_FW_N6/Drivers/STM32N6xx_HAL_Driver/Src/stm32n6xx_hal_spi.c ****         else
3004:STM32Cube_FW_N6/Drivers/STM32N6xx_HAL_Driver/Src/stm32n6xx_hal_spi.c ****         {
3005:STM32Cube_FW_N6/Drivers/STM32N6xx_HAL_Driver/Src/stm32n6xx_hal_spi.c ****           *((uint8_t *)hspi->pRxBuffPtr) = *((__IO uint8_t *)&hspi->Instance->RXDR);
 8766              		.loc 1 3005 67
 8767 0192 7B68     		ldr	r3, [r7, #4]
 8768 0194 1B68     		ldr	r3, [r3]
 8769              		.loc 1 3005 62
 8770 0196 03F13002 		add	r2, r3, #48
 8771              		.loc 1 3005 28
 8772 019a 7B68     		ldr	r3, [r7, #4]
 8773 019c DB6E     		ldr	r3, [r3, #108]
 8774              		.loc 1 3005 44
 8775 019e 1278     		ldrb	r2, [r2]
 8776 01a0 D2B2     		uxtb	r2, r2
 8777              		.loc 1 3005 42
 8778 01a2 1A70     		strb	r2, [r3]
ARM GAS  /tmp/ccwTXtVb.s 			page 208


3006:STM32Cube_FW_N6/Drivers/STM32N6xx_HAL_Driver/Src/stm32n6xx_hal_spi.c ****           hspi->pRxBuffPtr += sizeof(uint8_t);
 8779              		.loc 1 3006 15
 8780 01a4 7B68     		ldr	r3, [r7, #4]
 8781 01a6 DB6E     		ldr	r3, [r3, #108]
 8782              		.loc 1 3006 28
 8783 01a8 5A1C     		adds	r2, r3, #1
 8784 01aa 7B68     		ldr	r3, [r7, #4]
 8785 01ac DA66     		str	r2, [r3, #108]
 8786              	.L404:
3007:STM32Cube_FW_N6/Drivers/STM32N6xx_HAL_Driver/Src/stm32n6xx_hal_spi.c ****         }
3008:STM32Cube_FW_N6/Drivers/STM32N6xx_HAL_Driver/Src/stm32n6xx_hal_spi.c **** 
3009:STM32Cube_FW_N6/Drivers/STM32N6xx_HAL_Driver/Src/stm32n6xx_hal_spi.c ****         hspi->RxXferCount--;
 8787              		.loc 1 3009 13
 8788 01ae 7B68     		ldr	r3, [r7, #4]
 8789 01b0 B3F87230 		ldrh	r3, [r3, #114]	@ movhi
 8790 01b4 9BB2     		uxth	r3, r3
 8791              		.loc 1 3009 26
 8792 01b6 013B     		subs	r3, r3, #1
 8793 01b8 9AB2     		uxth	r2, r3
 8794 01ba 7B68     		ldr	r3, [r7, #4]
 8795 01bc A3F87220 		strh	r2, [r3, #114]	@ movhi
 8796              	.L402:
2984:STM32Cube_FW_N6/Drivers/STM32N6xx_HAL_Driver/Src/stm32n6xx_hal_spi.c ****       {
 8797              		.loc 1 2984 18
 8798 01c0 7B68     		ldr	r3, [r7, #4]
 8799 01c2 B3F87230 		ldrh	r3, [r3, #114]	@ movhi
 8800 01c6 9BB2     		uxth	r3, r3
2984:STM32Cube_FW_N6/Drivers/STM32N6xx_HAL_Driver/Src/stm32n6xx_hal_spi.c ****       {
 8801              		.loc 1 2984 32
 8802 01c8 002B     		cmp	r3, #0
 8803 01ca C2D1     		bne	.L406
 8804              	.L401:
3010:STM32Cube_FW_N6/Drivers/STM32N6xx_HAL_Driver/Src/stm32n6xx_hal_spi.c ****       }
3011:STM32Cube_FW_N6/Drivers/STM32N6xx_HAL_Driver/Src/stm32n6xx_hal_spi.c ****     }
3012:STM32Cube_FW_N6/Drivers/STM32N6xx_HAL_Driver/Src/stm32n6xx_hal_spi.c **** 
3013:STM32Cube_FW_N6/Drivers/STM32N6xx_HAL_Driver/Src/stm32n6xx_hal_spi.c ****     /* Call SPI Standard close procedure */
3014:STM32Cube_FW_N6/Drivers/STM32N6xx_HAL_Driver/Src/stm32n6xx_hal_spi.c ****     SPI_CloseTransfer(hspi);
 8805              		.loc 1 3014 5
 8806 01cc 7868     		ldr	r0, [r7, #4]
 8807 01ce FFF7FEFF 		bl	SPI_CloseTransfer
3015:STM32Cube_FW_N6/Drivers/STM32N6xx_HAL_Driver/Src/stm32n6xx_hal_spi.c **** 
3016:STM32Cube_FW_N6/Drivers/STM32N6xx_HAL_Driver/Src/stm32n6xx_hal_spi.c ****     hspi->State = HAL_SPI_STATE_READY;
 8808              		.loc 1 3016 17
 8809 01d2 7B68     		ldr	r3, [r7, #4]
 8810 01d4 0122     		movs	r2, #1
 8811 01d6 83F88920 		strb	r2, [r3, #137]
3017:STM32Cube_FW_N6/Drivers/STM32N6xx_HAL_Driver/Src/stm32n6xx_hal_spi.c ****     if (hspi->ErrorCode != HAL_SPI_ERROR_NONE)
 8812              		.loc 1 3017 13
 8813 01da 7B68     		ldr	r3, [r7, #4]
 8814 01dc D3F88C30 		ldr	r3, [r3, #140]
 8815              		.loc 1 3017 8
 8816 01e0 002B     		cmp	r3, #0
 8817 01e2 03D0     		beq	.L407
3018:STM32Cube_FW_N6/Drivers/STM32N6xx_HAL_Driver/Src/stm32n6xx_hal_spi.c ****     {
3019:STM32Cube_FW_N6/Drivers/STM32N6xx_HAL_Driver/Src/stm32n6xx_hal_spi.c **** #if (USE_HAL_SPI_REGISTER_CALLBACKS == 1UL)
3020:STM32Cube_FW_N6/Drivers/STM32N6xx_HAL_Driver/Src/stm32n6xx_hal_spi.c ****       hspi->ErrorCallback(hspi);
3021:STM32Cube_FW_N6/Drivers/STM32N6xx_HAL_Driver/Src/stm32n6xx_hal_spi.c **** #else
ARM GAS  /tmp/ccwTXtVb.s 			page 209


3022:STM32Cube_FW_N6/Drivers/STM32N6xx_HAL_Driver/Src/stm32n6xx_hal_spi.c ****       HAL_SPI_ErrorCallback(hspi);
 8818              		.loc 1 3022 7
 8819 01e4 7868     		ldr	r0, [r7, #4]
 8820 01e6 FFF7FEFF 		bl	HAL_SPI_ErrorCallback
3023:STM32Cube_FW_N6/Drivers/STM32N6xx_HAL_Driver/Src/stm32n6xx_hal_spi.c **** #endif /* USE_HAL_SPI_REGISTER_CALLBACKS */
3024:STM32Cube_FW_N6/Drivers/STM32N6xx_HAL_Driver/Src/stm32n6xx_hal_spi.c ****       return;
 8821              		.loc 1 3024 7
 8822 01ea D8E0     		b	.L393
 8823              	.L407:
3025:STM32Cube_FW_N6/Drivers/STM32N6xx_HAL_Driver/Src/stm32n6xx_hal_spi.c ****     }
3026:STM32Cube_FW_N6/Drivers/STM32N6xx_HAL_Driver/Src/stm32n6xx_hal_spi.c **** 
3027:STM32Cube_FW_N6/Drivers/STM32N6xx_HAL_Driver/Src/stm32n6xx_hal_spi.c **** #if (USE_HAL_SPI_REGISTER_CALLBACKS == 1UL)
3028:STM32Cube_FW_N6/Drivers/STM32N6xx_HAL_Driver/Src/stm32n6xx_hal_spi.c ****     /* Call appropriate user callback */
3029:STM32Cube_FW_N6/Drivers/STM32N6xx_HAL_Driver/Src/stm32n6xx_hal_spi.c ****     if (State == HAL_SPI_STATE_BUSY_TX_RX)
3030:STM32Cube_FW_N6/Drivers/STM32N6xx_HAL_Driver/Src/stm32n6xx_hal_spi.c ****     {
3031:STM32Cube_FW_N6/Drivers/STM32N6xx_HAL_Driver/Src/stm32n6xx_hal_spi.c ****       hspi->TxRxCpltCallback(hspi);
3032:STM32Cube_FW_N6/Drivers/STM32N6xx_HAL_Driver/Src/stm32n6xx_hal_spi.c ****     }
3033:STM32Cube_FW_N6/Drivers/STM32N6xx_HAL_Driver/Src/stm32n6xx_hal_spi.c ****     else if (State == HAL_SPI_STATE_BUSY_RX)
3034:STM32Cube_FW_N6/Drivers/STM32N6xx_HAL_Driver/Src/stm32n6xx_hal_spi.c ****     {
3035:STM32Cube_FW_N6/Drivers/STM32N6xx_HAL_Driver/Src/stm32n6xx_hal_spi.c ****       hspi->RxCpltCallback(hspi);
3036:STM32Cube_FW_N6/Drivers/STM32N6xx_HAL_Driver/Src/stm32n6xx_hal_spi.c ****     }
3037:STM32Cube_FW_N6/Drivers/STM32N6xx_HAL_Driver/Src/stm32n6xx_hal_spi.c ****     else if (State == HAL_SPI_STATE_BUSY_TX)
3038:STM32Cube_FW_N6/Drivers/STM32N6xx_HAL_Driver/Src/stm32n6xx_hal_spi.c ****     {
3039:STM32Cube_FW_N6/Drivers/STM32N6xx_HAL_Driver/Src/stm32n6xx_hal_spi.c ****       hspi->TxCpltCallback(hspi);
3040:STM32Cube_FW_N6/Drivers/STM32N6xx_HAL_Driver/Src/stm32n6xx_hal_spi.c ****     }
3041:STM32Cube_FW_N6/Drivers/STM32N6xx_HAL_Driver/Src/stm32n6xx_hal_spi.c **** #else
3042:STM32Cube_FW_N6/Drivers/STM32N6xx_HAL_Driver/Src/stm32n6xx_hal_spi.c ****     /* Call appropriate user callback */
3043:STM32Cube_FW_N6/Drivers/STM32N6xx_HAL_Driver/Src/stm32n6xx_hal_spi.c ****     if (State == HAL_SPI_STATE_BUSY_TX_RX)
 8824              		.loc 1 3043 8
 8825 01ec FB7C     		ldrb	r3, [r7, #19]	@ zero_extendqisi2
 8826 01ee 052B     		cmp	r3, #5
 8827 01f0 03D1     		bne	.L408
3044:STM32Cube_FW_N6/Drivers/STM32N6xx_HAL_Driver/Src/stm32n6xx_hal_spi.c ****     {
3045:STM32Cube_FW_N6/Drivers/STM32N6xx_HAL_Driver/Src/stm32n6xx_hal_spi.c ****       HAL_SPI_TxRxCpltCallback(hspi);
 8828              		.loc 1 3045 7
 8829 01f2 7868     		ldr	r0, [r7, #4]
 8830 01f4 FFF7FEFF 		bl	HAL_SPI_TxRxCpltCallback
3046:STM32Cube_FW_N6/Drivers/STM32N6xx_HAL_Driver/Src/stm32n6xx_hal_spi.c ****     }
3047:STM32Cube_FW_N6/Drivers/STM32N6xx_HAL_Driver/Src/stm32n6xx_hal_spi.c ****     else if (State == HAL_SPI_STATE_BUSY_RX)
3048:STM32Cube_FW_N6/Drivers/STM32N6xx_HAL_Driver/Src/stm32n6xx_hal_spi.c ****     {
3049:STM32Cube_FW_N6/Drivers/STM32N6xx_HAL_Driver/Src/stm32n6xx_hal_spi.c ****       HAL_SPI_RxCpltCallback(hspi);
3050:STM32Cube_FW_N6/Drivers/STM32N6xx_HAL_Driver/Src/stm32n6xx_hal_spi.c ****     }
3051:STM32Cube_FW_N6/Drivers/STM32N6xx_HAL_Driver/Src/stm32n6xx_hal_spi.c ****     else if (State == HAL_SPI_STATE_BUSY_TX)
3052:STM32Cube_FW_N6/Drivers/STM32N6xx_HAL_Driver/Src/stm32n6xx_hal_spi.c ****     {
3053:STM32Cube_FW_N6/Drivers/STM32N6xx_HAL_Driver/Src/stm32n6xx_hal_spi.c ****       HAL_SPI_TxCpltCallback(hspi);
3054:STM32Cube_FW_N6/Drivers/STM32N6xx_HAL_Driver/Src/stm32n6xx_hal_spi.c ****     }
3055:STM32Cube_FW_N6/Drivers/STM32N6xx_HAL_Driver/Src/stm32n6xx_hal_spi.c **** #endif /* USE_HAL_SPI_REGISTER_CALLBACKS */
3056:STM32Cube_FW_N6/Drivers/STM32N6xx_HAL_Driver/Src/stm32n6xx_hal_spi.c ****     else
3057:STM32Cube_FW_N6/Drivers/STM32N6xx_HAL_Driver/Src/stm32n6xx_hal_spi.c ****     {
3058:STM32Cube_FW_N6/Drivers/STM32N6xx_HAL_Driver/Src/stm32n6xx_hal_spi.c ****       /* End of the appropriate call */
3059:STM32Cube_FW_N6/Drivers/STM32N6xx_HAL_Driver/Src/stm32n6xx_hal_spi.c ****     }
3060:STM32Cube_FW_N6/Drivers/STM32N6xx_HAL_Driver/Src/stm32n6xx_hal_spi.c **** 
3061:STM32Cube_FW_N6/Drivers/STM32N6xx_HAL_Driver/Src/stm32n6xx_hal_spi.c ****     return;
 8831              		.loc 1 3061 5
 8832 01f8 CEE0     		b	.L419
 8833              	.L408:
3047:STM32Cube_FW_N6/Drivers/STM32N6xx_HAL_Driver/Src/stm32n6xx_hal_spi.c ****     {
ARM GAS  /tmp/ccwTXtVb.s 			page 210


 8834              		.loc 1 3047 13
 8835 01fa FB7C     		ldrb	r3, [r7, #19]	@ zero_extendqisi2
 8836 01fc 042B     		cmp	r3, #4
 8837 01fe 03D1     		bne	.L410
3049:STM32Cube_FW_N6/Drivers/STM32N6xx_HAL_Driver/Src/stm32n6xx_hal_spi.c ****     }
 8838              		.loc 1 3049 7
 8839 0200 7868     		ldr	r0, [r7, #4]
 8840 0202 FFF7FEFF 		bl	HAL_SPI_RxCpltCallback
 8841              		.loc 1 3061 5
 8842 0206 C7E0     		b	.L419
 8843              	.L410:
3051:STM32Cube_FW_N6/Drivers/STM32N6xx_HAL_Driver/Src/stm32n6xx_hal_spi.c ****     {
 8844              		.loc 1 3051 13
 8845 0208 FB7C     		ldrb	r3, [r7, #19]	@ zero_extendqisi2
 8846 020a 032B     		cmp	r3, #3
 8847 020c 40F0C480 		bne	.L419
3053:STM32Cube_FW_N6/Drivers/STM32N6xx_HAL_Driver/Src/stm32n6xx_hal_spi.c ****     }
 8848              		.loc 1 3053 7
 8849 0210 7868     		ldr	r0, [r7, #4]
 8850 0212 FFF7FEFF 		bl	HAL_SPI_TxCpltCallback
 8851              		.loc 1 3061 5
 8852 0216 BFE0     		b	.L419
 8853              	.L400:
3062:STM32Cube_FW_N6/Drivers/STM32N6xx_HAL_Driver/Src/stm32n6xx_hal_spi.c ****   }
3063:STM32Cube_FW_N6/Drivers/STM32N6xx_HAL_Driver/Src/stm32n6xx_hal_spi.c **** 
3064:STM32Cube_FW_N6/Drivers/STM32N6xx_HAL_Driver/Src/stm32n6xx_hal_spi.c ****   /* SPI in Error Treatment --------------------------------------------------*/
3065:STM32Cube_FW_N6/Drivers/STM32N6xx_HAL_Driver/Src/stm32n6xx_hal_spi.c ****   if ((trigger & (SPI_FLAG_MODF | SPI_FLAG_OVR | SPI_FLAG_FRE | SPI_FLAG_UDR)) != 0UL)
 8854              		.loc 1 3065 16
 8855 0218 BB69     		ldr	r3, [r7, #24]
 8856 021a 03F45873 		and	r3, r3, #864
 8857              		.loc 1 3065 6
 8858 021e 002B     		cmp	r3, #0
 8859 0220 00F0BD80 		beq	.L393
3066:STM32Cube_FW_N6/Drivers/STM32N6xx_HAL_Driver/Src/stm32n6xx_hal_spi.c ****   {
3067:STM32Cube_FW_N6/Drivers/STM32N6xx_HAL_Driver/Src/stm32n6xx_hal_spi.c ****     /* SPI Overrun error interrupt occurred ----------------------------------*/
3068:STM32Cube_FW_N6/Drivers/STM32N6xx_HAL_Driver/Src/stm32n6xx_hal_spi.c ****     if ((trigger & SPI_FLAG_OVR) != 0UL)
 8860              		.loc 1 3068 18
 8861 0224 BB69     		ldr	r3, [r7, #24]
 8862 0226 03F04003 		and	r3, r3, #64
 8863              		.loc 1 3068 8
 8864 022a 002B     		cmp	r3, #0
 8865 022c 0FD0     		beq	.L411
3069:STM32Cube_FW_N6/Drivers/STM32N6xx_HAL_Driver/Src/stm32n6xx_hal_spi.c ****     {
3070:STM32Cube_FW_N6/Drivers/STM32N6xx_HAL_Driver/Src/stm32n6xx_hal_spi.c ****       SET_BIT(hspi->ErrorCode, HAL_SPI_ERROR_OVR);
 8866              		.loc 1 3070 7
 8867 022e 7B68     		ldr	r3, [r7, #4]
 8868 0230 D3F88C30 		ldr	r3, [r3, #140]
 8869 0234 43F00402 		orr	r2, r3, #4
 8870 0238 7B68     		ldr	r3, [r7, #4]
 8871 023a C3F88C20 		str	r2, [r3, #140]
3071:STM32Cube_FW_N6/Drivers/STM32N6xx_HAL_Driver/Src/stm32n6xx_hal_spi.c ****       __HAL_SPI_CLEAR_OVRFLAG(hspi);
 8872              		.loc 1 3071 7
 8873 023e 7B68     		ldr	r3, [r7, #4]
 8874 0240 1B68     		ldr	r3, [r3]
 8875 0242 9A69     		ldr	r2, [r3, #24]
 8876 0244 7B68     		ldr	r3, [r7, #4]
 8877 0246 1B68     		ldr	r3, [r3]
ARM GAS  /tmp/ccwTXtVb.s 			page 211


 8878 0248 42F04002 		orr	r2, r2, #64
 8879 024c 9A61     		str	r2, [r3, #24]
 8880              	.L411:
3072:STM32Cube_FW_N6/Drivers/STM32N6xx_HAL_Driver/Src/stm32n6xx_hal_spi.c ****     }
3073:STM32Cube_FW_N6/Drivers/STM32N6xx_HAL_Driver/Src/stm32n6xx_hal_spi.c **** 
3074:STM32Cube_FW_N6/Drivers/STM32N6xx_HAL_Driver/Src/stm32n6xx_hal_spi.c ****     /* SPI Mode Fault error interrupt occurred -------------------------------*/
3075:STM32Cube_FW_N6/Drivers/STM32N6xx_HAL_Driver/Src/stm32n6xx_hal_spi.c ****     if ((trigger & SPI_FLAG_MODF) != 0UL)
 8881              		.loc 1 3075 18
 8882 024e BB69     		ldr	r3, [r7, #24]
 8883 0250 03F40073 		and	r3, r3, #512
 8884              		.loc 1 3075 8
 8885 0254 002B     		cmp	r3, #0
 8886 0256 0FD0     		beq	.L412
3076:STM32Cube_FW_N6/Drivers/STM32N6xx_HAL_Driver/Src/stm32n6xx_hal_spi.c ****     {
3077:STM32Cube_FW_N6/Drivers/STM32N6xx_HAL_Driver/Src/stm32n6xx_hal_spi.c ****       SET_BIT(hspi->ErrorCode, HAL_SPI_ERROR_MODF);
 8887              		.loc 1 3077 7
 8888 0258 7B68     		ldr	r3, [r7, #4]
 8889 025a D3F88C30 		ldr	r3, [r3, #140]
 8890 025e 43F00102 		orr	r2, r3, #1
 8891 0262 7B68     		ldr	r3, [r7, #4]
 8892 0264 C3F88C20 		str	r2, [r3, #140]
3078:STM32Cube_FW_N6/Drivers/STM32N6xx_HAL_Driver/Src/stm32n6xx_hal_spi.c ****       __HAL_SPI_CLEAR_MODFFLAG(hspi);
 8893              		.loc 1 3078 7
 8894 0268 7B68     		ldr	r3, [r7, #4]
 8895 026a 1B68     		ldr	r3, [r3]
 8896 026c 9A69     		ldr	r2, [r3, #24]
 8897 026e 7B68     		ldr	r3, [r7, #4]
 8898 0270 1B68     		ldr	r3, [r3]
 8899 0272 42F40072 		orr	r2, r2, #512
 8900 0276 9A61     		str	r2, [r3, #24]
 8901              	.L412:
3079:STM32Cube_FW_N6/Drivers/STM32N6xx_HAL_Driver/Src/stm32n6xx_hal_spi.c ****     }
3080:STM32Cube_FW_N6/Drivers/STM32N6xx_HAL_Driver/Src/stm32n6xx_hal_spi.c **** 
3081:STM32Cube_FW_N6/Drivers/STM32N6xx_HAL_Driver/Src/stm32n6xx_hal_spi.c ****     /* SPI Frame error interrupt occurred ------------------------------------*/
3082:STM32Cube_FW_N6/Drivers/STM32N6xx_HAL_Driver/Src/stm32n6xx_hal_spi.c ****     if ((trigger & SPI_FLAG_FRE) != 0UL)
 8902              		.loc 1 3082 18
 8903 0278 BB69     		ldr	r3, [r7, #24]
 8904 027a 03F48073 		and	r3, r3, #256
 8905              		.loc 1 3082 8
 8906 027e 002B     		cmp	r3, #0
 8907 0280 0FD0     		beq	.L413
3083:STM32Cube_FW_N6/Drivers/STM32N6xx_HAL_Driver/Src/stm32n6xx_hal_spi.c ****     {
3084:STM32Cube_FW_N6/Drivers/STM32N6xx_HAL_Driver/Src/stm32n6xx_hal_spi.c ****       SET_BIT(hspi->ErrorCode, HAL_SPI_ERROR_FRE);
 8908              		.loc 1 3084 7
 8909 0282 7B68     		ldr	r3, [r7, #4]
 8910 0284 D3F88C30 		ldr	r3, [r3, #140]
 8911 0288 43F00802 		orr	r2, r3, #8
 8912 028c 7B68     		ldr	r3, [r7, #4]
 8913 028e C3F88C20 		str	r2, [r3, #140]
3085:STM32Cube_FW_N6/Drivers/STM32N6xx_HAL_Driver/Src/stm32n6xx_hal_spi.c ****       __HAL_SPI_CLEAR_FREFLAG(hspi);
 8914              		.loc 1 3085 7
 8915 0292 7B68     		ldr	r3, [r7, #4]
 8916 0294 1B68     		ldr	r3, [r3]
 8917 0296 9A69     		ldr	r2, [r3, #24]
 8918 0298 7B68     		ldr	r3, [r7, #4]
 8919 029a 1B68     		ldr	r3, [r3]
 8920 029c 42F48072 		orr	r2, r2, #256
ARM GAS  /tmp/ccwTXtVb.s 			page 212


 8921 02a0 9A61     		str	r2, [r3, #24]
 8922              	.L413:
3086:STM32Cube_FW_N6/Drivers/STM32N6xx_HAL_Driver/Src/stm32n6xx_hal_spi.c ****     }
3087:STM32Cube_FW_N6/Drivers/STM32N6xx_HAL_Driver/Src/stm32n6xx_hal_spi.c **** 
3088:STM32Cube_FW_N6/Drivers/STM32N6xx_HAL_Driver/Src/stm32n6xx_hal_spi.c ****     /* SPI Underrun error interrupt occurred ------------------------------------*/
3089:STM32Cube_FW_N6/Drivers/STM32N6xx_HAL_Driver/Src/stm32n6xx_hal_spi.c ****     if ((trigger & SPI_FLAG_UDR) != 0UL)
 8923              		.loc 1 3089 18
 8924 02a2 BB69     		ldr	r3, [r7, #24]
 8925 02a4 03F02003 		and	r3, r3, #32
 8926              		.loc 1 3089 8
 8927 02a8 002B     		cmp	r3, #0
 8928 02aa 0FD0     		beq	.L414
3090:STM32Cube_FW_N6/Drivers/STM32N6xx_HAL_Driver/Src/stm32n6xx_hal_spi.c ****     {
3091:STM32Cube_FW_N6/Drivers/STM32N6xx_HAL_Driver/Src/stm32n6xx_hal_spi.c ****       SET_BIT(hspi->ErrorCode, HAL_SPI_ERROR_UDR);
 8929              		.loc 1 3091 7
 8930 02ac 7B68     		ldr	r3, [r7, #4]
 8931 02ae D3F88C30 		ldr	r3, [r3, #140]
 8932 02b2 43F08002 		orr	r2, r3, #128
 8933 02b6 7B68     		ldr	r3, [r7, #4]
 8934 02b8 C3F88C20 		str	r2, [r3, #140]
3092:STM32Cube_FW_N6/Drivers/STM32N6xx_HAL_Driver/Src/stm32n6xx_hal_spi.c ****       __HAL_SPI_CLEAR_UDRFLAG(hspi);
 8935              		.loc 1 3092 7
 8936 02bc 7B68     		ldr	r3, [r7, #4]
 8937 02be 1B68     		ldr	r3, [r3]
 8938 02c0 9A69     		ldr	r2, [r3, #24]
 8939 02c2 7B68     		ldr	r3, [r7, #4]
 8940 02c4 1B68     		ldr	r3, [r3]
 8941 02c6 42F02002 		orr	r2, r2, #32
 8942 02ca 9A61     		str	r2, [r3, #24]
 8943              	.L414:
3093:STM32Cube_FW_N6/Drivers/STM32N6xx_HAL_Driver/Src/stm32n6xx_hal_spi.c ****     }
3094:STM32Cube_FW_N6/Drivers/STM32N6xx_HAL_Driver/Src/stm32n6xx_hal_spi.c **** 
3095:STM32Cube_FW_N6/Drivers/STM32N6xx_HAL_Driver/Src/stm32n6xx_hal_spi.c ****     if (hspi->ErrorCode != HAL_SPI_ERROR_NONE)
 8944              		.loc 1 3095 13
 8945 02cc 7B68     		ldr	r3, [r7, #4]
 8946 02ce D3F88C30 		ldr	r3, [r3, #140]
 8947              		.loc 1 3095 8
 8948 02d2 002B     		cmp	r3, #0
 8949 02d4 62D0     		beq	.L420
3096:STM32Cube_FW_N6/Drivers/STM32N6xx_HAL_Driver/Src/stm32n6xx_hal_spi.c ****     {
3097:STM32Cube_FW_N6/Drivers/STM32N6xx_HAL_Driver/Src/stm32n6xx_hal_spi.c ****       /* Disable SPI peripheral */
3098:STM32Cube_FW_N6/Drivers/STM32N6xx_HAL_Driver/Src/stm32n6xx_hal_spi.c ****       __HAL_SPI_DISABLE(hspi);
 8950              		.loc 1 3098 7
 8951 02d6 7B68     		ldr	r3, [r7, #4]
 8952 02d8 1B68     		ldr	r3, [r3]
 8953 02da 1A68     		ldr	r2, [r3]
 8954 02dc 7B68     		ldr	r3, [r7, #4]
 8955 02de 1B68     		ldr	r3, [r3]
 8956 02e0 22F00102 		bic	r2, r2, #1
 8957 02e4 1A60     		str	r2, [r3]
3099:STM32Cube_FW_N6/Drivers/STM32N6xx_HAL_Driver/Src/stm32n6xx_hal_spi.c **** 
3100:STM32Cube_FW_N6/Drivers/STM32N6xx_HAL_Driver/Src/stm32n6xx_hal_spi.c ****       /* Disable all interrupts */
3101:STM32Cube_FW_N6/Drivers/STM32N6xx_HAL_Driver/Src/stm32n6xx_hal_spi.c ****       __HAL_SPI_DISABLE_IT(hspi, (SPI_IT_EOT | SPI_IT_RXP | SPI_IT_TXP | SPI_IT_MODF |
 8958              		.loc 1 3101 7
 8959 02e6 7B68     		ldr	r3, [r7, #4]
 8960 02e8 1B68     		ldr	r3, [r3]
 8961 02ea 1B69     		ldr	r3, [r3, #16]
ARM GAS  /tmp/ccwTXtVb.s 			page 213


 8962 02ec 7A68     		ldr	r2, [r7, #4]
 8963 02ee 1268     		ldr	r2, [r2]
 8964 02f0 23F45A73 		bic	r3, r3, #872
 8965 02f4 23F00303 		bic	r3, r3, #3
 8966 02f8 1361     		str	r3, [r2, #16]
3102:STM32Cube_FW_N6/Drivers/STM32N6xx_HAL_Driver/Src/stm32n6xx_hal_spi.c ****                                   SPI_IT_OVR | SPI_IT_FRE | SPI_IT_UDR));
3103:STM32Cube_FW_N6/Drivers/STM32N6xx_HAL_Driver/Src/stm32n6xx_hal_spi.c **** 
3104:STM32Cube_FW_N6/Drivers/STM32N6xx_HAL_Driver/Src/stm32n6xx_hal_spi.c ****       /* Disable the SPI DMA requests if enabled */
3105:STM32Cube_FW_N6/Drivers/STM32N6xx_HAL_Driver/Src/stm32n6xx_hal_spi.c ****       if (HAL_IS_BIT_SET(cfg1, SPI_CFG1_TXDMAEN | SPI_CFG1_RXDMAEN))
 8967              		.loc 1 3105 11
 8968 02fa 7B69     		ldr	r3, [r7, #20]
 8969 02fc 03F44043 		and	r3, r3, #49152
 8970              		.loc 1 3105 10
 8971 0300 B3F5404F 		cmp	r3, #49152
 8972 0304 3ED1     		bne	.L416
3106:STM32Cube_FW_N6/Drivers/STM32N6xx_HAL_Driver/Src/stm32n6xx_hal_spi.c ****       {
3107:STM32Cube_FW_N6/Drivers/STM32N6xx_HAL_Driver/Src/stm32n6xx_hal_spi.c ****         /* Disable the SPI DMA requests */
3108:STM32Cube_FW_N6/Drivers/STM32N6xx_HAL_Driver/Src/stm32n6xx_hal_spi.c ****         CLEAR_BIT(hspi->Instance->CFG1, SPI_CFG1_TXDMAEN | SPI_CFG1_RXDMAEN);
 8973              		.loc 1 3108 9
 8974 0306 7B68     		ldr	r3, [r7, #4]
 8975 0308 1B68     		ldr	r3, [r3]
 8976 030a 9A68     		ldr	r2, [r3, #8]
 8977 030c 7B68     		ldr	r3, [r7, #4]
 8978 030e 1B68     		ldr	r3, [r3]
 8979 0310 22F44042 		bic	r2, r2, #49152
 8980 0314 9A60     		str	r2, [r3, #8]
3109:STM32Cube_FW_N6/Drivers/STM32N6xx_HAL_Driver/Src/stm32n6xx_hal_spi.c **** 
3110:STM32Cube_FW_N6/Drivers/STM32N6xx_HAL_Driver/Src/stm32n6xx_hal_spi.c ****         /* Abort the SPI DMA Rx channel */
3111:STM32Cube_FW_N6/Drivers/STM32N6xx_HAL_Driver/Src/stm32n6xx_hal_spi.c ****         if (hspi->hdmarx != NULL)
 8981              		.loc 1 3111 17
 8982 0316 7B68     		ldr	r3, [r7, #4]
 8983 0318 D3F88430 		ldr	r3, [r3, #132]
 8984              		.loc 1 3111 12
 8985 031c 002B     		cmp	r3, #0
 8986 031e 15D0     		beq	.L417
3112:STM32Cube_FW_N6/Drivers/STM32N6xx_HAL_Driver/Src/stm32n6xx_hal_spi.c ****         {
3113:STM32Cube_FW_N6/Drivers/STM32N6xx_HAL_Driver/Src/stm32n6xx_hal_spi.c ****           /* Set the SPI DMA Abort callback :
3114:STM32Cube_FW_N6/Drivers/STM32N6xx_HAL_Driver/Src/stm32n6xx_hal_spi.c ****           will lead to call HAL_SPI_ErrorCallback() at end of DMA abort procedure */
3115:STM32Cube_FW_N6/Drivers/STM32N6xx_HAL_Driver/Src/stm32n6xx_hal_spi.c ****           hspi->hdmarx->XferAbortCallback = SPI_DMAAbortOnError;
 8987              		.loc 1 3115 15
 8988 0320 7B68     		ldr	r3, [r7, #4]
 8989 0322 D3F88430 		ldr	r3, [r3, #132]
 8990              		.loc 1 3115 43
 8991 0326 1F4A     		ldr	r2, .L421
 8992 0328 DA66     		str	r2, [r3, #108]
3116:STM32Cube_FW_N6/Drivers/STM32N6xx_HAL_Driver/Src/stm32n6xx_hal_spi.c ****           if (HAL_OK != HAL_DMA_Abort_IT(hspi->hdmarx))
 8993              		.loc 1 3116 25
 8994 032a 7B68     		ldr	r3, [r7, #4]
 8995 032c D3F88430 		ldr	r3, [r3, #132]
 8996 0330 1846     		mov	r0, r3
 8997 0332 FFF7FEFF 		bl	HAL_DMA_Abort_IT
 8998 0336 0346     		mov	r3, r0
 8999              		.loc 1 3116 14 discriminator 1
 9000 0338 002B     		cmp	r3, #0
 9001 033a 07D0     		beq	.L417
3117:STM32Cube_FW_N6/Drivers/STM32N6xx_HAL_Driver/Src/stm32n6xx_hal_spi.c ****           {
3118:STM32Cube_FW_N6/Drivers/STM32N6xx_HAL_Driver/Src/stm32n6xx_hal_spi.c ****             SET_BIT(hspi->ErrorCode, HAL_SPI_ERROR_ABORT);
ARM GAS  /tmp/ccwTXtVb.s 			page 214


 9002              		.loc 1 3118 13
 9003 033c 7B68     		ldr	r3, [r7, #4]
 9004 033e D3F88C30 		ldr	r3, [r3, #140]
 9005 0342 43F04002 		orr	r2, r3, #64
 9006 0346 7B68     		ldr	r3, [r7, #4]
 9007 0348 C3F88C20 		str	r2, [r3, #140]
 9008              	.L417:
3119:STM32Cube_FW_N6/Drivers/STM32N6xx_HAL_Driver/Src/stm32n6xx_hal_spi.c ****           }
3120:STM32Cube_FW_N6/Drivers/STM32N6xx_HAL_Driver/Src/stm32n6xx_hal_spi.c ****         }
3121:STM32Cube_FW_N6/Drivers/STM32N6xx_HAL_Driver/Src/stm32n6xx_hal_spi.c ****         /* Abort the SPI DMA Tx channel */
3122:STM32Cube_FW_N6/Drivers/STM32N6xx_HAL_Driver/Src/stm32n6xx_hal_spi.c ****         if (hspi->hdmatx != NULL)
 9009              		.loc 1 3122 17
 9010 034c 7B68     		ldr	r3, [r7, #4]
 9011 034e D3F88030 		ldr	r3, [r3, #128]
 9012              		.loc 1 3122 12
 9013 0352 002B     		cmp	r3, #0
 9014 0354 22D0     		beq	.L420
3123:STM32Cube_FW_N6/Drivers/STM32N6xx_HAL_Driver/Src/stm32n6xx_hal_spi.c ****         {
3124:STM32Cube_FW_N6/Drivers/STM32N6xx_HAL_Driver/Src/stm32n6xx_hal_spi.c ****           /* Set the SPI DMA Abort callback :
3125:STM32Cube_FW_N6/Drivers/STM32N6xx_HAL_Driver/Src/stm32n6xx_hal_spi.c ****           will lead to call HAL_SPI_ErrorCallback() at end of DMA abort procedure */
3126:STM32Cube_FW_N6/Drivers/STM32N6xx_HAL_Driver/Src/stm32n6xx_hal_spi.c ****           hspi->hdmatx->XferAbortCallback = SPI_DMAAbortOnError;
 9015              		.loc 1 3126 15
 9016 0356 7B68     		ldr	r3, [r7, #4]
 9017 0358 D3F88030 		ldr	r3, [r3, #128]
 9018              		.loc 1 3126 43
 9019 035c 114A     		ldr	r2, .L421
 9020 035e DA66     		str	r2, [r3, #108]
3127:STM32Cube_FW_N6/Drivers/STM32N6xx_HAL_Driver/Src/stm32n6xx_hal_spi.c ****           if (HAL_OK != HAL_DMA_Abort_IT(hspi->hdmatx))
 9021              		.loc 1 3127 25
 9022 0360 7B68     		ldr	r3, [r7, #4]
 9023 0362 D3F88030 		ldr	r3, [r3, #128]
 9024 0366 1846     		mov	r0, r3
 9025 0368 FFF7FEFF 		bl	HAL_DMA_Abort_IT
 9026 036c 0346     		mov	r3, r0
 9027              		.loc 1 3127 14 discriminator 1
 9028 036e 002B     		cmp	r3, #0
 9029 0370 14D0     		beq	.L420
3128:STM32Cube_FW_N6/Drivers/STM32N6xx_HAL_Driver/Src/stm32n6xx_hal_spi.c ****           {
3129:STM32Cube_FW_N6/Drivers/STM32N6xx_HAL_Driver/Src/stm32n6xx_hal_spi.c ****             SET_BIT(hspi->ErrorCode, HAL_SPI_ERROR_ABORT);
 9030              		.loc 1 3129 13
 9031 0372 7B68     		ldr	r3, [r7, #4]
 9032 0374 D3F88C30 		ldr	r3, [r3, #140]
 9033 0378 43F04002 		orr	r2, r3, #64
 9034 037c 7B68     		ldr	r3, [r7, #4]
 9035 037e C3F88C20 		str	r2, [r3, #140]
3130:STM32Cube_FW_N6/Drivers/STM32N6xx_HAL_Driver/Src/stm32n6xx_hal_spi.c ****           }
3131:STM32Cube_FW_N6/Drivers/STM32N6xx_HAL_Driver/Src/stm32n6xx_hal_spi.c ****         }
3132:STM32Cube_FW_N6/Drivers/STM32N6xx_HAL_Driver/Src/stm32n6xx_hal_spi.c ****       }
3133:STM32Cube_FW_N6/Drivers/STM32N6xx_HAL_Driver/Src/stm32n6xx_hal_spi.c ****       else
3134:STM32Cube_FW_N6/Drivers/STM32N6xx_HAL_Driver/Src/stm32n6xx_hal_spi.c ****       {
3135:STM32Cube_FW_N6/Drivers/STM32N6xx_HAL_Driver/Src/stm32n6xx_hal_spi.c ****         /* Restore hspi->State to Ready */
3136:STM32Cube_FW_N6/Drivers/STM32N6xx_HAL_Driver/Src/stm32n6xx_hal_spi.c ****         hspi->State = HAL_SPI_STATE_READY;
3137:STM32Cube_FW_N6/Drivers/STM32N6xx_HAL_Driver/Src/stm32n6xx_hal_spi.c **** 
3138:STM32Cube_FW_N6/Drivers/STM32N6xx_HAL_Driver/Src/stm32n6xx_hal_spi.c ****         /* Call user error callback */
3139:STM32Cube_FW_N6/Drivers/STM32N6xx_HAL_Driver/Src/stm32n6xx_hal_spi.c **** #if (USE_HAL_SPI_REGISTER_CALLBACKS == 1UL)
3140:STM32Cube_FW_N6/Drivers/STM32N6xx_HAL_Driver/Src/stm32n6xx_hal_spi.c ****         hspi->ErrorCallback(hspi);
3141:STM32Cube_FW_N6/Drivers/STM32N6xx_HAL_Driver/Src/stm32n6xx_hal_spi.c **** #else
ARM GAS  /tmp/ccwTXtVb.s 			page 215


3142:STM32Cube_FW_N6/Drivers/STM32N6xx_HAL_Driver/Src/stm32n6xx_hal_spi.c ****         HAL_SPI_ErrorCallback(hspi);
3143:STM32Cube_FW_N6/Drivers/STM32N6xx_HAL_Driver/Src/stm32n6xx_hal_spi.c **** #endif /* USE_HAL_SPI_REGISTER_CALLBACKS */
3144:STM32Cube_FW_N6/Drivers/STM32N6xx_HAL_Driver/Src/stm32n6xx_hal_spi.c ****       }
3145:STM32Cube_FW_N6/Drivers/STM32N6xx_HAL_Driver/Src/stm32n6xx_hal_spi.c ****     }
3146:STM32Cube_FW_N6/Drivers/STM32N6xx_HAL_Driver/Src/stm32n6xx_hal_spi.c ****     return;
 9036              		.loc 1 3146 5
 9037 0382 0BE0     		b	.L420
 9038              	.L416:
3136:STM32Cube_FW_N6/Drivers/STM32N6xx_HAL_Driver/Src/stm32n6xx_hal_spi.c **** 
 9039              		.loc 1 3136 21
 9040 0384 7B68     		ldr	r3, [r7, #4]
 9041 0386 0122     		movs	r2, #1
 9042 0388 83F88920 		strb	r2, [r3, #137]
3142:STM32Cube_FW_N6/Drivers/STM32N6xx_HAL_Driver/Src/stm32n6xx_hal_spi.c **** #endif /* USE_HAL_SPI_REGISTER_CALLBACKS */
 9043              		.loc 1 3142 9
 9044 038c 7868     		ldr	r0, [r7, #4]
 9045 038e FFF7FEFF 		bl	HAL_SPI_ErrorCallback
 9046              		.loc 1 3146 5
 9047 0392 03E0     		b	.L420
 9048              	.L418:
2966:STM32Cube_FW_N6/Drivers/STM32N6xx_HAL_Driver/Src/stm32n6xx_hal_spi.c ****   }
 9049              		.loc 1 2966 5
 9050 0394 00BF     		nop
 9051 0396 02E0     		b	.L393
 9052              	.L419:
3061:STM32Cube_FW_N6/Drivers/STM32N6xx_HAL_Driver/Src/stm32n6xx_hal_spi.c ****   }
 9053              		.loc 1 3061 5
 9054 0398 00BF     		nop
 9055 039a 00E0     		b	.L393
 9056              	.L420:
 9057              		.loc 1 3146 5
 9058 039c 00BF     		nop
 9059              	.L393:
3147:STM32Cube_FW_N6/Drivers/STM32N6xx_HAL_Driver/Src/stm32n6xx_hal_spi.c ****   }
3148:STM32Cube_FW_N6/Drivers/STM32N6xx_HAL_Driver/Src/stm32n6xx_hal_spi.c **** }
 9060              		.loc 1 3148 1
 9061 039e 2837     		adds	r7, r7, #40
 9062              		.cfi_def_cfa_offset 8
 9063 03a0 BD46     		mov	sp, r7
 9064              		.cfi_def_cfa_register 13
 9065              		@ sp needed
 9066 03a2 80BD     		pop	{r7, pc}
 9067              	.L422:
 9068              		.align	2
 9069              	.L421:
 9070 03a4 00000000 		.word	SPI_DMAAbortOnError
 9071              		.cfi_endproc
 9072              	.LFE853:
 9074              		.section	.text.HAL_SPI_TxCpltCallback,"ax",%progbits
 9075              		.align	1
 9076              		.weak	HAL_SPI_TxCpltCallback
 9077              		.syntax unified
 9078              		.thumb
 9079              		.thumb_func
 9081              	HAL_SPI_TxCpltCallback:
 9082              	.LFB854:
3149:STM32Cube_FW_N6/Drivers/STM32N6xx_HAL_Driver/Src/stm32n6xx_hal_spi.c **** 
ARM GAS  /tmp/ccwTXtVb.s 			page 216


3150:STM32Cube_FW_N6/Drivers/STM32N6xx_HAL_Driver/Src/stm32n6xx_hal_spi.c **** /**
3151:STM32Cube_FW_N6/Drivers/STM32N6xx_HAL_Driver/Src/stm32n6xx_hal_spi.c ****   * @brief Tx Transfer completed callback.
3152:STM32Cube_FW_N6/Drivers/STM32N6xx_HAL_Driver/Src/stm32n6xx_hal_spi.c ****   * @param  hspi: pointer to a SPI_HandleTypeDef structure that contains
3153:STM32Cube_FW_N6/Drivers/STM32N6xx_HAL_Driver/Src/stm32n6xx_hal_spi.c ****   *               the configuration information for SPI module.
3154:STM32Cube_FW_N6/Drivers/STM32N6xx_HAL_Driver/Src/stm32n6xx_hal_spi.c ****   * @retval None
3155:STM32Cube_FW_N6/Drivers/STM32N6xx_HAL_Driver/Src/stm32n6xx_hal_spi.c ****   */
3156:STM32Cube_FW_N6/Drivers/STM32N6xx_HAL_Driver/Src/stm32n6xx_hal_spi.c **** __weak void HAL_SPI_TxCpltCallback(SPI_HandleTypeDef *hspi) /* Derogation MISRAC2012-Rule-8.13 */
3157:STM32Cube_FW_N6/Drivers/STM32N6xx_HAL_Driver/Src/stm32n6xx_hal_spi.c **** {
 9083              		.loc 1 3157 1
 9084              		.cfi_startproc
 9085              		@ args = 0, pretend = 0, frame = 8
 9086              		@ frame_needed = 1, uses_anonymous_args = 0
 9087              		@ link register save eliminated.
 9088 0000 80B4     		push	{r7}
 9089              		.cfi_def_cfa_offset 4
 9090              		.cfi_offset 7, -4
 9091 0002 83B0     		sub	sp, sp, #12
 9092              		.cfi_def_cfa_offset 16
 9093 0004 00AF     		add	r7, sp, #0
 9094              		.cfi_def_cfa_register 7
 9095 0006 7860     		str	r0, [r7, #4]
3158:STM32Cube_FW_N6/Drivers/STM32N6xx_HAL_Driver/Src/stm32n6xx_hal_spi.c ****   /* Prevent unused argument(s) compilation warning */
3159:STM32Cube_FW_N6/Drivers/STM32N6xx_HAL_Driver/Src/stm32n6xx_hal_spi.c ****   UNUSED(hspi);
3160:STM32Cube_FW_N6/Drivers/STM32N6xx_HAL_Driver/Src/stm32n6xx_hal_spi.c **** 
3161:STM32Cube_FW_N6/Drivers/STM32N6xx_HAL_Driver/Src/stm32n6xx_hal_spi.c ****   /* NOTE : This function should not be modified, when the callback is needed,
3162:STM32Cube_FW_N6/Drivers/STM32N6xx_HAL_Driver/Src/stm32n6xx_hal_spi.c ****             the HAL_SPI_TxCpltCallback should be implemented in the user file
3163:STM32Cube_FW_N6/Drivers/STM32N6xx_HAL_Driver/Src/stm32n6xx_hal_spi.c ****    */
3164:STM32Cube_FW_N6/Drivers/STM32N6xx_HAL_Driver/Src/stm32n6xx_hal_spi.c **** }
 9096              		.loc 1 3164 1
 9097 0008 00BF     		nop
 9098 000a 0C37     		adds	r7, r7, #12
 9099              		.cfi_def_cfa_offset 4
 9100 000c BD46     		mov	sp, r7
 9101              		.cfi_def_cfa_register 13
 9102              		@ sp needed
 9103 000e 5DF8047B 		ldr	r7, [sp], #4
 9104              		.cfi_restore 7
 9105              		.cfi_def_cfa_offset 0
 9106 0012 7047     		bx	lr
 9107              		.cfi_endproc
 9108              	.LFE854:
 9110              		.section	.text.HAL_SPI_RxCpltCallback,"ax",%progbits
 9111              		.align	1
 9112              		.weak	HAL_SPI_RxCpltCallback
 9113              		.syntax unified
 9114              		.thumb
 9115              		.thumb_func
 9117              	HAL_SPI_RxCpltCallback:
 9118              	.LFB855:
3165:STM32Cube_FW_N6/Drivers/STM32N6xx_HAL_Driver/Src/stm32n6xx_hal_spi.c **** 
3166:STM32Cube_FW_N6/Drivers/STM32N6xx_HAL_Driver/Src/stm32n6xx_hal_spi.c **** /**
3167:STM32Cube_FW_N6/Drivers/STM32N6xx_HAL_Driver/Src/stm32n6xx_hal_spi.c ****   * @brief Rx Transfer completed callback.
3168:STM32Cube_FW_N6/Drivers/STM32N6xx_HAL_Driver/Src/stm32n6xx_hal_spi.c ****   * @param  hspi: pointer to a SPI_HandleTypeDef structure that contains
3169:STM32Cube_FW_N6/Drivers/STM32N6xx_HAL_Driver/Src/stm32n6xx_hal_spi.c ****   *               the configuration information for SPI module.
3170:STM32Cube_FW_N6/Drivers/STM32N6xx_HAL_Driver/Src/stm32n6xx_hal_spi.c ****   * @retval None
3171:STM32Cube_FW_N6/Drivers/STM32N6xx_HAL_Driver/Src/stm32n6xx_hal_spi.c ****   */
3172:STM32Cube_FW_N6/Drivers/STM32N6xx_HAL_Driver/Src/stm32n6xx_hal_spi.c **** __weak void HAL_SPI_RxCpltCallback(SPI_HandleTypeDef *hspi) /* Derogation MISRAC2012-Rule-8.13 */
ARM GAS  /tmp/ccwTXtVb.s 			page 217


3173:STM32Cube_FW_N6/Drivers/STM32N6xx_HAL_Driver/Src/stm32n6xx_hal_spi.c **** {
 9119              		.loc 1 3173 1
 9120              		.cfi_startproc
 9121              		@ args = 0, pretend = 0, frame = 8
 9122              		@ frame_needed = 1, uses_anonymous_args = 0
 9123              		@ link register save eliminated.
 9124 0000 80B4     		push	{r7}
 9125              		.cfi_def_cfa_offset 4
 9126              		.cfi_offset 7, -4
 9127 0002 83B0     		sub	sp, sp, #12
 9128              		.cfi_def_cfa_offset 16
 9129 0004 00AF     		add	r7, sp, #0
 9130              		.cfi_def_cfa_register 7
 9131 0006 7860     		str	r0, [r7, #4]
3174:STM32Cube_FW_N6/Drivers/STM32N6xx_HAL_Driver/Src/stm32n6xx_hal_spi.c ****   /* Prevent unused argument(s) compilation warning */
3175:STM32Cube_FW_N6/Drivers/STM32N6xx_HAL_Driver/Src/stm32n6xx_hal_spi.c ****   UNUSED(hspi);
3176:STM32Cube_FW_N6/Drivers/STM32N6xx_HAL_Driver/Src/stm32n6xx_hal_spi.c **** 
3177:STM32Cube_FW_N6/Drivers/STM32N6xx_HAL_Driver/Src/stm32n6xx_hal_spi.c ****   /* NOTE : This function should not be modified, when the callback is needed,
3178:STM32Cube_FW_N6/Drivers/STM32N6xx_HAL_Driver/Src/stm32n6xx_hal_spi.c ****             the HAL_SPI_RxCpltCallback should be implemented in the user file
3179:STM32Cube_FW_N6/Drivers/STM32N6xx_HAL_Driver/Src/stm32n6xx_hal_spi.c ****    */
3180:STM32Cube_FW_N6/Drivers/STM32N6xx_HAL_Driver/Src/stm32n6xx_hal_spi.c **** }
 9132              		.loc 1 3180 1
 9133 0008 00BF     		nop
 9134 000a 0C37     		adds	r7, r7, #12
 9135              		.cfi_def_cfa_offset 4
 9136 000c BD46     		mov	sp, r7
 9137              		.cfi_def_cfa_register 13
 9138              		@ sp needed
 9139 000e 5DF8047B 		ldr	r7, [sp], #4
 9140              		.cfi_restore 7
 9141              		.cfi_def_cfa_offset 0
 9142 0012 7047     		bx	lr
 9143              		.cfi_endproc
 9144              	.LFE855:
 9146              		.section	.text.HAL_SPI_TxRxCpltCallback,"ax",%progbits
 9147              		.align	1
 9148              		.weak	HAL_SPI_TxRxCpltCallback
 9149              		.syntax unified
 9150              		.thumb
 9151              		.thumb_func
 9153              	HAL_SPI_TxRxCpltCallback:
 9154              	.LFB856:
3181:STM32Cube_FW_N6/Drivers/STM32N6xx_HAL_Driver/Src/stm32n6xx_hal_spi.c **** 
3182:STM32Cube_FW_N6/Drivers/STM32N6xx_HAL_Driver/Src/stm32n6xx_hal_spi.c **** /**
3183:STM32Cube_FW_N6/Drivers/STM32N6xx_HAL_Driver/Src/stm32n6xx_hal_spi.c ****   * @brief Tx and Rx Transfer completed callback.
3184:STM32Cube_FW_N6/Drivers/STM32N6xx_HAL_Driver/Src/stm32n6xx_hal_spi.c ****   * @param  hspi: pointer to a SPI_HandleTypeDef structure that contains
3185:STM32Cube_FW_N6/Drivers/STM32N6xx_HAL_Driver/Src/stm32n6xx_hal_spi.c ****   *               the configuration information for SPI module.
3186:STM32Cube_FW_N6/Drivers/STM32N6xx_HAL_Driver/Src/stm32n6xx_hal_spi.c ****   * @retval None
3187:STM32Cube_FW_N6/Drivers/STM32N6xx_HAL_Driver/Src/stm32n6xx_hal_spi.c ****   */
3188:STM32Cube_FW_N6/Drivers/STM32N6xx_HAL_Driver/Src/stm32n6xx_hal_spi.c **** __weak void HAL_SPI_TxRxCpltCallback(SPI_HandleTypeDef *hspi) /* Derogation MISRAC2012-Rule-8.13 */
3189:STM32Cube_FW_N6/Drivers/STM32N6xx_HAL_Driver/Src/stm32n6xx_hal_spi.c **** {
 9155              		.loc 1 3189 1
 9156              		.cfi_startproc
 9157              		@ args = 0, pretend = 0, frame = 8
 9158              		@ frame_needed = 1, uses_anonymous_args = 0
 9159              		@ link register save eliminated.
 9160 0000 80B4     		push	{r7}
ARM GAS  /tmp/ccwTXtVb.s 			page 218


 9161              		.cfi_def_cfa_offset 4
 9162              		.cfi_offset 7, -4
 9163 0002 83B0     		sub	sp, sp, #12
 9164              		.cfi_def_cfa_offset 16
 9165 0004 00AF     		add	r7, sp, #0
 9166              		.cfi_def_cfa_register 7
 9167 0006 7860     		str	r0, [r7, #4]
3190:STM32Cube_FW_N6/Drivers/STM32N6xx_HAL_Driver/Src/stm32n6xx_hal_spi.c ****   /* Prevent unused argument(s) compilation warning */
3191:STM32Cube_FW_N6/Drivers/STM32N6xx_HAL_Driver/Src/stm32n6xx_hal_spi.c ****   UNUSED(hspi);
3192:STM32Cube_FW_N6/Drivers/STM32N6xx_HAL_Driver/Src/stm32n6xx_hal_spi.c **** 
3193:STM32Cube_FW_N6/Drivers/STM32N6xx_HAL_Driver/Src/stm32n6xx_hal_spi.c ****   /* NOTE : This function should not be modified, when the callback is needed,
3194:STM32Cube_FW_N6/Drivers/STM32N6xx_HAL_Driver/Src/stm32n6xx_hal_spi.c ****             the HAL_SPI_TxRxCpltCallback should be implemented in the user file
3195:STM32Cube_FW_N6/Drivers/STM32N6xx_HAL_Driver/Src/stm32n6xx_hal_spi.c ****    */
3196:STM32Cube_FW_N6/Drivers/STM32N6xx_HAL_Driver/Src/stm32n6xx_hal_spi.c **** }
 9168              		.loc 1 3196 1
 9169 0008 00BF     		nop
 9170 000a 0C37     		adds	r7, r7, #12
 9171              		.cfi_def_cfa_offset 4
 9172 000c BD46     		mov	sp, r7
 9173              		.cfi_def_cfa_register 13
 9174              		@ sp needed
 9175 000e 5DF8047B 		ldr	r7, [sp], #4
 9176              		.cfi_restore 7
 9177              		.cfi_def_cfa_offset 0
 9178 0012 7047     		bx	lr
 9179              		.cfi_endproc
 9180              	.LFE856:
 9182              		.section	.text.HAL_SPI_TxHalfCpltCallback,"ax",%progbits
 9183              		.align	1
 9184              		.weak	HAL_SPI_TxHalfCpltCallback
 9185              		.syntax unified
 9186              		.thumb
 9187              		.thumb_func
 9189              	HAL_SPI_TxHalfCpltCallback:
 9190              	.LFB857:
3197:STM32Cube_FW_N6/Drivers/STM32N6xx_HAL_Driver/Src/stm32n6xx_hal_spi.c **** 
3198:STM32Cube_FW_N6/Drivers/STM32N6xx_HAL_Driver/Src/stm32n6xx_hal_spi.c **** /**
3199:STM32Cube_FW_N6/Drivers/STM32N6xx_HAL_Driver/Src/stm32n6xx_hal_spi.c ****   * @brief Tx Half Transfer completed callback.
3200:STM32Cube_FW_N6/Drivers/STM32N6xx_HAL_Driver/Src/stm32n6xx_hal_spi.c ****   * @param  hspi: pointer to a SPI_HandleTypeDef structure that contains
3201:STM32Cube_FW_N6/Drivers/STM32N6xx_HAL_Driver/Src/stm32n6xx_hal_spi.c ****   *               the configuration information for SPI module.
3202:STM32Cube_FW_N6/Drivers/STM32N6xx_HAL_Driver/Src/stm32n6xx_hal_spi.c ****   * @retval None
3203:STM32Cube_FW_N6/Drivers/STM32N6xx_HAL_Driver/Src/stm32n6xx_hal_spi.c ****   */
3204:STM32Cube_FW_N6/Drivers/STM32N6xx_HAL_Driver/Src/stm32n6xx_hal_spi.c **** __weak void HAL_SPI_TxHalfCpltCallback(SPI_HandleTypeDef *hspi) /* Derogation MISRAC2012-Rule-8.13 
3205:STM32Cube_FW_N6/Drivers/STM32N6xx_HAL_Driver/Src/stm32n6xx_hal_spi.c **** {
 9191              		.loc 1 3205 1
 9192              		.cfi_startproc
 9193              		@ args = 0, pretend = 0, frame = 8
 9194              		@ frame_needed = 1, uses_anonymous_args = 0
 9195              		@ link register save eliminated.
 9196 0000 80B4     		push	{r7}
 9197              		.cfi_def_cfa_offset 4
 9198              		.cfi_offset 7, -4
 9199 0002 83B0     		sub	sp, sp, #12
 9200              		.cfi_def_cfa_offset 16
 9201 0004 00AF     		add	r7, sp, #0
 9202              		.cfi_def_cfa_register 7
 9203 0006 7860     		str	r0, [r7, #4]
ARM GAS  /tmp/ccwTXtVb.s 			page 219


3206:STM32Cube_FW_N6/Drivers/STM32N6xx_HAL_Driver/Src/stm32n6xx_hal_spi.c ****   /* Prevent unused argument(s) compilation warning */
3207:STM32Cube_FW_N6/Drivers/STM32N6xx_HAL_Driver/Src/stm32n6xx_hal_spi.c ****   UNUSED(hspi);
3208:STM32Cube_FW_N6/Drivers/STM32N6xx_HAL_Driver/Src/stm32n6xx_hal_spi.c **** 
3209:STM32Cube_FW_N6/Drivers/STM32N6xx_HAL_Driver/Src/stm32n6xx_hal_spi.c ****   /* NOTE : This function should not be modified, when the callback is needed,
3210:STM32Cube_FW_N6/Drivers/STM32N6xx_HAL_Driver/Src/stm32n6xx_hal_spi.c ****             the HAL_SPI_TxHalfCpltCallback should be implemented in the user file
3211:STM32Cube_FW_N6/Drivers/STM32N6xx_HAL_Driver/Src/stm32n6xx_hal_spi.c ****    */
3212:STM32Cube_FW_N6/Drivers/STM32N6xx_HAL_Driver/Src/stm32n6xx_hal_spi.c **** }
 9204              		.loc 1 3212 1
 9205 0008 00BF     		nop
 9206 000a 0C37     		adds	r7, r7, #12
 9207              		.cfi_def_cfa_offset 4
 9208 000c BD46     		mov	sp, r7
 9209              		.cfi_def_cfa_register 13
 9210              		@ sp needed
 9211 000e 5DF8047B 		ldr	r7, [sp], #4
 9212              		.cfi_restore 7
 9213              		.cfi_def_cfa_offset 0
 9214 0012 7047     		bx	lr
 9215              		.cfi_endproc
 9216              	.LFE857:
 9218              		.section	.text.HAL_SPI_RxHalfCpltCallback,"ax",%progbits
 9219              		.align	1
 9220              		.weak	HAL_SPI_RxHalfCpltCallback
 9221              		.syntax unified
 9222              		.thumb
 9223              		.thumb_func
 9225              	HAL_SPI_RxHalfCpltCallback:
 9226              	.LFB858:
3213:STM32Cube_FW_N6/Drivers/STM32N6xx_HAL_Driver/Src/stm32n6xx_hal_spi.c **** 
3214:STM32Cube_FW_N6/Drivers/STM32N6xx_HAL_Driver/Src/stm32n6xx_hal_spi.c **** /**
3215:STM32Cube_FW_N6/Drivers/STM32N6xx_HAL_Driver/Src/stm32n6xx_hal_spi.c ****   * @brief Rx Half Transfer completed callback.
3216:STM32Cube_FW_N6/Drivers/STM32N6xx_HAL_Driver/Src/stm32n6xx_hal_spi.c ****   * @param  hspi: pointer to a SPI_HandleTypeDef structure that contains
3217:STM32Cube_FW_N6/Drivers/STM32N6xx_HAL_Driver/Src/stm32n6xx_hal_spi.c ****   *               the configuration information for SPI module.
3218:STM32Cube_FW_N6/Drivers/STM32N6xx_HAL_Driver/Src/stm32n6xx_hal_spi.c ****   * @retval None
3219:STM32Cube_FW_N6/Drivers/STM32N6xx_HAL_Driver/Src/stm32n6xx_hal_spi.c ****   */
3220:STM32Cube_FW_N6/Drivers/STM32N6xx_HAL_Driver/Src/stm32n6xx_hal_spi.c **** __weak void HAL_SPI_RxHalfCpltCallback(SPI_HandleTypeDef *hspi) /* Derogation MISRAC2012-Rule-8.13 
3221:STM32Cube_FW_N6/Drivers/STM32N6xx_HAL_Driver/Src/stm32n6xx_hal_spi.c **** {
 9227              		.loc 1 3221 1
 9228              		.cfi_startproc
 9229              		@ args = 0, pretend = 0, frame = 8
 9230              		@ frame_needed = 1, uses_anonymous_args = 0
 9231              		@ link register save eliminated.
 9232 0000 80B4     		push	{r7}
 9233              		.cfi_def_cfa_offset 4
 9234              		.cfi_offset 7, -4
 9235 0002 83B0     		sub	sp, sp, #12
 9236              		.cfi_def_cfa_offset 16
 9237 0004 00AF     		add	r7, sp, #0
 9238              		.cfi_def_cfa_register 7
 9239 0006 7860     		str	r0, [r7, #4]
3222:STM32Cube_FW_N6/Drivers/STM32N6xx_HAL_Driver/Src/stm32n6xx_hal_spi.c ****   /* Prevent unused argument(s) compilation warning */
3223:STM32Cube_FW_N6/Drivers/STM32N6xx_HAL_Driver/Src/stm32n6xx_hal_spi.c ****   UNUSED(hspi);
3224:STM32Cube_FW_N6/Drivers/STM32N6xx_HAL_Driver/Src/stm32n6xx_hal_spi.c **** 
3225:STM32Cube_FW_N6/Drivers/STM32N6xx_HAL_Driver/Src/stm32n6xx_hal_spi.c ****   /* NOTE : This function should not be modified, when the callback is needed,
3226:STM32Cube_FW_N6/Drivers/STM32N6xx_HAL_Driver/Src/stm32n6xx_hal_spi.c ****             the HAL_SPI_RxHalfCpltCallback() should be implemented in the user file
3227:STM32Cube_FW_N6/Drivers/STM32N6xx_HAL_Driver/Src/stm32n6xx_hal_spi.c ****    */
3228:STM32Cube_FW_N6/Drivers/STM32N6xx_HAL_Driver/Src/stm32n6xx_hal_spi.c **** }
ARM GAS  /tmp/ccwTXtVb.s 			page 220


 9240              		.loc 1 3228 1
 9241 0008 00BF     		nop
 9242 000a 0C37     		adds	r7, r7, #12
 9243              		.cfi_def_cfa_offset 4
 9244 000c BD46     		mov	sp, r7
 9245              		.cfi_def_cfa_register 13
 9246              		@ sp needed
 9247 000e 5DF8047B 		ldr	r7, [sp], #4
 9248              		.cfi_restore 7
 9249              		.cfi_def_cfa_offset 0
 9250 0012 7047     		bx	lr
 9251              		.cfi_endproc
 9252              	.LFE858:
 9254              		.section	.text.HAL_SPI_TxRxHalfCpltCallback,"ax",%progbits
 9255              		.align	1
 9256              		.weak	HAL_SPI_TxRxHalfCpltCallback
 9257              		.syntax unified
 9258              		.thumb
 9259              		.thumb_func
 9261              	HAL_SPI_TxRxHalfCpltCallback:
 9262              	.LFB859:
3229:STM32Cube_FW_N6/Drivers/STM32N6xx_HAL_Driver/Src/stm32n6xx_hal_spi.c **** 
3230:STM32Cube_FW_N6/Drivers/STM32N6xx_HAL_Driver/Src/stm32n6xx_hal_spi.c **** /**
3231:STM32Cube_FW_N6/Drivers/STM32N6xx_HAL_Driver/Src/stm32n6xx_hal_spi.c ****   * @brief Tx and Rx Half Transfer callback.
3232:STM32Cube_FW_N6/Drivers/STM32N6xx_HAL_Driver/Src/stm32n6xx_hal_spi.c ****   * @param  hspi: pointer to a SPI_HandleTypeDef structure that contains
3233:STM32Cube_FW_N6/Drivers/STM32N6xx_HAL_Driver/Src/stm32n6xx_hal_spi.c ****   *               the configuration information for SPI module.
3234:STM32Cube_FW_N6/Drivers/STM32N6xx_HAL_Driver/Src/stm32n6xx_hal_spi.c ****   * @retval None
3235:STM32Cube_FW_N6/Drivers/STM32N6xx_HAL_Driver/Src/stm32n6xx_hal_spi.c ****   */
3236:STM32Cube_FW_N6/Drivers/STM32N6xx_HAL_Driver/Src/stm32n6xx_hal_spi.c **** __weak void HAL_SPI_TxRxHalfCpltCallback(SPI_HandleTypeDef *hspi) /* Derogation MISRAC2012-Rule-8.1
3237:STM32Cube_FW_N6/Drivers/STM32N6xx_HAL_Driver/Src/stm32n6xx_hal_spi.c **** {
 9263              		.loc 1 3237 1
 9264              		.cfi_startproc
 9265              		@ args = 0, pretend = 0, frame = 8
 9266              		@ frame_needed = 1, uses_anonymous_args = 0
 9267              		@ link register save eliminated.
 9268 0000 80B4     		push	{r7}
 9269              		.cfi_def_cfa_offset 4
 9270              		.cfi_offset 7, -4
 9271 0002 83B0     		sub	sp, sp, #12
 9272              		.cfi_def_cfa_offset 16
 9273 0004 00AF     		add	r7, sp, #0
 9274              		.cfi_def_cfa_register 7
 9275 0006 7860     		str	r0, [r7, #4]
3238:STM32Cube_FW_N6/Drivers/STM32N6xx_HAL_Driver/Src/stm32n6xx_hal_spi.c ****   /* Prevent unused argument(s) compilation warning */
3239:STM32Cube_FW_N6/Drivers/STM32N6xx_HAL_Driver/Src/stm32n6xx_hal_spi.c ****   UNUSED(hspi);
3240:STM32Cube_FW_N6/Drivers/STM32N6xx_HAL_Driver/Src/stm32n6xx_hal_spi.c **** 
3241:STM32Cube_FW_N6/Drivers/STM32N6xx_HAL_Driver/Src/stm32n6xx_hal_spi.c ****   /* NOTE : This function should not be modified, when the callback is needed,
3242:STM32Cube_FW_N6/Drivers/STM32N6xx_HAL_Driver/Src/stm32n6xx_hal_spi.c ****             the HAL_SPI_TxRxHalfCpltCallback() should be implemented in the user file
3243:STM32Cube_FW_N6/Drivers/STM32N6xx_HAL_Driver/Src/stm32n6xx_hal_spi.c ****    */
3244:STM32Cube_FW_N6/Drivers/STM32N6xx_HAL_Driver/Src/stm32n6xx_hal_spi.c **** }
 9276              		.loc 1 3244 1
 9277 0008 00BF     		nop
 9278 000a 0C37     		adds	r7, r7, #12
 9279              		.cfi_def_cfa_offset 4
 9280 000c BD46     		mov	sp, r7
 9281              		.cfi_def_cfa_register 13
 9282              		@ sp needed
ARM GAS  /tmp/ccwTXtVb.s 			page 221


 9283 000e 5DF8047B 		ldr	r7, [sp], #4
 9284              		.cfi_restore 7
 9285              		.cfi_def_cfa_offset 0
 9286 0012 7047     		bx	lr
 9287              		.cfi_endproc
 9288              	.LFE859:
 9290              		.section	.text.HAL_SPI_ErrorCallback,"ax",%progbits
 9291              		.align	1
 9292              		.weak	HAL_SPI_ErrorCallback
 9293              		.syntax unified
 9294              		.thumb
 9295              		.thumb_func
 9297              	HAL_SPI_ErrorCallback:
 9298              	.LFB860:
3245:STM32Cube_FW_N6/Drivers/STM32N6xx_HAL_Driver/Src/stm32n6xx_hal_spi.c **** 
3246:STM32Cube_FW_N6/Drivers/STM32N6xx_HAL_Driver/Src/stm32n6xx_hal_spi.c **** /**
3247:STM32Cube_FW_N6/Drivers/STM32N6xx_HAL_Driver/Src/stm32n6xx_hal_spi.c ****   * @brief SPI error callback.
3248:STM32Cube_FW_N6/Drivers/STM32N6xx_HAL_Driver/Src/stm32n6xx_hal_spi.c ****   * @param  hspi: pointer to a SPI_HandleTypeDef structure that contains
3249:STM32Cube_FW_N6/Drivers/STM32N6xx_HAL_Driver/Src/stm32n6xx_hal_spi.c ****   *               the configuration information for SPI module.
3250:STM32Cube_FW_N6/Drivers/STM32N6xx_HAL_Driver/Src/stm32n6xx_hal_spi.c ****   * @retval None
3251:STM32Cube_FW_N6/Drivers/STM32N6xx_HAL_Driver/Src/stm32n6xx_hal_spi.c ****   */
3252:STM32Cube_FW_N6/Drivers/STM32N6xx_HAL_Driver/Src/stm32n6xx_hal_spi.c **** __weak void HAL_SPI_ErrorCallback(SPI_HandleTypeDef *hspi) /* Derogation MISRAC2012-Rule-8.13 */
3253:STM32Cube_FW_N6/Drivers/STM32N6xx_HAL_Driver/Src/stm32n6xx_hal_spi.c **** {
 9299              		.loc 1 3253 1
 9300              		.cfi_startproc
 9301              		@ args = 0, pretend = 0, frame = 8
 9302              		@ frame_needed = 1, uses_anonymous_args = 0
 9303              		@ link register save eliminated.
 9304 0000 80B4     		push	{r7}
 9305              		.cfi_def_cfa_offset 4
 9306              		.cfi_offset 7, -4
 9307 0002 83B0     		sub	sp, sp, #12
 9308              		.cfi_def_cfa_offset 16
 9309 0004 00AF     		add	r7, sp, #0
 9310              		.cfi_def_cfa_register 7
 9311 0006 7860     		str	r0, [r7, #4]
3254:STM32Cube_FW_N6/Drivers/STM32N6xx_HAL_Driver/Src/stm32n6xx_hal_spi.c ****   /* Prevent unused argument(s) compilation warning */
3255:STM32Cube_FW_N6/Drivers/STM32N6xx_HAL_Driver/Src/stm32n6xx_hal_spi.c ****   UNUSED(hspi);
3256:STM32Cube_FW_N6/Drivers/STM32N6xx_HAL_Driver/Src/stm32n6xx_hal_spi.c **** 
3257:STM32Cube_FW_N6/Drivers/STM32N6xx_HAL_Driver/Src/stm32n6xx_hal_spi.c ****   /* NOTE : This function should not be modified, when the callback is needed,
3258:STM32Cube_FW_N6/Drivers/STM32N6xx_HAL_Driver/Src/stm32n6xx_hal_spi.c ****             the HAL_SPI_ErrorCallback should be implemented in the user file
3259:STM32Cube_FW_N6/Drivers/STM32N6xx_HAL_Driver/Src/stm32n6xx_hal_spi.c ****    */
3260:STM32Cube_FW_N6/Drivers/STM32N6xx_HAL_Driver/Src/stm32n6xx_hal_spi.c ****   /* NOTE : The ErrorCode parameter in the hspi handle is updated by the SPI processes
3261:STM32Cube_FW_N6/Drivers/STM32N6xx_HAL_Driver/Src/stm32n6xx_hal_spi.c ****             and user can use HAL_SPI_GetError() API to check the latest error occurred
3262:STM32Cube_FW_N6/Drivers/STM32N6xx_HAL_Driver/Src/stm32n6xx_hal_spi.c ****    */
3263:STM32Cube_FW_N6/Drivers/STM32N6xx_HAL_Driver/Src/stm32n6xx_hal_spi.c **** }
 9312              		.loc 1 3263 1
 9313 0008 00BF     		nop
 9314 000a 0C37     		adds	r7, r7, #12
 9315              		.cfi_def_cfa_offset 4
 9316 000c BD46     		mov	sp, r7
 9317              		.cfi_def_cfa_register 13
 9318              		@ sp needed
 9319 000e 5DF8047B 		ldr	r7, [sp], #4
 9320              		.cfi_restore 7
 9321              		.cfi_def_cfa_offset 0
 9322 0012 7047     		bx	lr
ARM GAS  /tmp/ccwTXtVb.s 			page 222


 9323              		.cfi_endproc
 9324              	.LFE860:
 9326              		.section	.text.HAL_SPI_AbortCpltCallback,"ax",%progbits
 9327              		.align	1
 9328              		.weak	HAL_SPI_AbortCpltCallback
 9329              		.syntax unified
 9330              		.thumb
 9331              		.thumb_func
 9333              	HAL_SPI_AbortCpltCallback:
 9334              	.LFB861:
3264:STM32Cube_FW_N6/Drivers/STM32N6xx_HAL_Driver/Src/stm32n6xx_hal_spi.c **** 
3265:STM32Cube_FW_N6/Drivers/STM32N6xx_HAL_Driver/Src/stm32n6xx_hal_spi.c **** /**
3266:STM32Cube_FW_N6/Drivers/STM32N6xx_HAL_Driver/Src/stm32n6xx_hal_spi.c ****   * @brief  SPI Abort Complete callback.
3267:STM32Cube_FW_N6/Drivers/STM32N6xx_HAL_Driver/Src/stm32n6xx_hal_spi.c ****   * @param  hspi SPI handle.
3268:STM32Cube_FW_N6/Drivers/STM32N6xx_HAL_Driver/Src/stm32n6xx_hal_spi.c ****   * @retval None
3269:STM32Cube_FW_N6/Drivers/STM32N6xx_HAL_Driver/Src/stm32n6xx_hal_spi.c ****   */
3270:STM32Cube_FW_N6/Drivers/STM32N6xx_HAL_Driver/Src/stm32n6xx_hal_spi.c **** __weak void HAL_SPI_AbortCpltCallback(SPI_HandleTypeDef *hspi) /* Derogation MISRAC2012-Rule-8.13 *
3271:STM32Cube_FW_N6/Drivers/STM32N6xx_HAL_Driver/Src/stm32n6xx_hal_spi.c **** {
 9335              		.loc 1 3271 1
 9336              		.cfi_startproc
 9337              		@ args = 0, pretend = 0, frame = 8
 9338              		@ frame_needed = 1, uses_anonymous_args = 0
 9339              		@ link register save eliminated.
 9340 0000 80B4     		push	{r7}
 9341              		.cfi_def_cfa_offset 4
 9342              		.cfi_offset 7, -4
 9343 0002 83B0     		sub	sp, sp, #12
 9344              		.cfi_def_cfa_offset 16
 9345 0004 00AF     		add	r7, sp, #0
 9346              		.cfi_def_cfa_register 7
 9347 0006 7860     		str	r0, [r7, #4]
3272:STM32Cube_FW_N6/Drivers/STM32N6xx_HAL_Driver/Src/stm32n6xx_hal_spi.c ****   /* Prevent unused argument(s) compilation warning */
3273:STM32Cube_FW_N6/Drivers/STM32N6xx_HAL_Driver/Src/stm32n6xx_hal_spi.c ****   UNUSED(hspi);
3274:STM32Cube_FW_N6/Drivers/STM32N6xx_HAL_Driver/Src/stm32n6xx_hal_spi.c **** 
3275:STM32Cube_FW_N6/Drivers/STM32N6xx_HAL_Driver/Src/stm32n6xx_hal_spi.c ****   /* NOTE : This function should not be modified, when the callback is needed,
3276:STM32Cube_FW_N6/Drivers/STM32N6xx_HAL_Driver/Src/stm32n6xx_hal_spi.c ****             the HAL_SPI_AbortCpltCallback can be implemented in the user file.
3277:STM32Cube_FW_N6/Drivers/STM32N6xx_HAL_Driver/Src/stm32n6xx_hal_spi.c ****    */
3278:STM32Cube_FW_N6/Drivers/STM32N6xx_HAL_Driver/Src/stm32n6xx_hal_spi.c **** }
 9348              		.loc 1 3278 1
 9349 0008 00BF     		nop
 9350 000a 0C37     		adds	r7, r7, #12
 9351              		.cfi_def_cfa_offset 4
 9352 000c BD46     		mov	sp, r7
 9353              		.cfi_def_cfa_register 13
 9354              		@ sp needed
 9355 000e 5DF8047B 		ldr	r7, [sp], #4
 9356              		.cfi_restore 7
 9357              		.cfi_def_cfa_offset 0
 9358 0012 7047     		bx	lr
 9359              		.cfi_endproc
 9360              	.LFE861:
 9362              		.section	.text.HAL_SPI_SuspendCallback,"ax",%progbits
 9363              		.align	1
 9364              		.weak	HAL_SPI_SuspendCallback
 9365              		.syntax unified
 9366              		.thumb
 9367              		.thumb_func
ARM GAS  /tmp/ccwTXtVb.s 			page 223


 9369              	HAL_SPI_SuspendCallback:
 9370              	.LFB862:
3279:STM32Cube_FW_N6/Drivers/STM32N6xx_HAL_Driver/Src/stm32n6xx_hal_spi.c **** 
3280:STM32Cube_FW_N6/Drivers/STM32N6xx_HAL_Driver/Src/stm32n6xx_hal_spi.c **** /**
3281:STM32Cube_FW_N6/Drivers/STM32N6xx_HAL_Driver/Src/stm32n6xx_hal_spi.c ****   * @brief  SPI Suspend callback.
3282:STM32Cube_FW_N6/Drivers/STM32N6xx_HAL_Driver/Src/stm32n6xx_hal_spi.c ****   * @param  hspi SPI handle.
3283:STM32Cube_FW_N6/Drivers/STM32N6xx_HAL_Driver/Src/stm32n6xx_hal_spi.c ****   * @retval None
3284:STM32Cube_FW_N6/Drivers/STM32N6xx_HAL_Driver/Src/stm32n6xx_hal_spi.c ****   */
3285:STM32Cube_FW_N6/Drivers/STM32N6xx_HAL_Driver/Src/stm32n6xx_hal_spi.c **** __weak void HAL_SPI_SuspendCallback(SPI_HandleTypeDef *hspi) /* Derogation MISRAC2012-Rule-8.13 */
3286:STM32Cube_FW_N6/Drivers/STM32N6xx_HAL_Driver/Src/stm32n6xx_hal_spi.c **** {
 9371              		.loc 1 3286 1
 9372              		.cfi_startproc
 9373              		@ args = 0, pretend = 0, frame = 8
 9374              		@ frame_needed = 1, uses_anonymous_args = 0
 9375              		@ link register save eliminated.
 9376 0000 80B4     		push	{r7}
 9377              		.cfi_def_cfa_offset 4
 9378              		.cfi_offset 7, -4
 9379 0002 83B0     		sub	sp, sp, #12
 9380              		.cfi_def_cfa_offset 16
 9381 0004 00AF     		add	r7, sp, #0
 9382              		.cfi_def_cfa_register 7
 9383 0006 7860     		str	r0, [r7, #4]
3287:STM32Cube_FW_N6/Drivers/STM32N6xx_HAL_Driver/Src/stm32n6xx_hal_spi.c ****   /* Prevent unused argument(s) compilation warning */
3288:STM32Cube_FW_N6/Drivers/STM32N6xx_HAL_Driver/Src/stm32n6xx_hal_spi.c ****   UNUSED(hspi);
3289:STM32Cube_FW_N6/Drivers/STM32N6xx_HAL_Driver/Src/stm32n6xx_hal_spi.c **** 
3290:STM32Cube_FW_N6/Drivers/STM32N6xx_HAL_Driver/Src/stm32n6xx_hal_spi.c ****   /* NOTE : This function should not be modified, when the callback is needed,
3291:STM32Cube_FW_N6/Drivers/STM32N6xx_HAL_Driver/Src/stm32n6xx_hal_spi.c ****             the HAL_SPI_SuspendCallback can be implemented in the user file.
3292:STM32Cube_FW_N6/Drivers/STM32N6xx_HAL_Driver/Src/stm32n6xx_hal_spi.c ****    */
3293:STM32Cube_FW_N6/Drivers/STM32N6xx_HAL_Driver/Src/stm32n6xx_hal_spi.c **** }
 9384              		.loc 1 3293 1
 9385 0008 00BF     		nop
 9386 000a 0C37     		adds	r7, r7, #12
 9387              		.cfi_def_cfa_offset 4
 9388 000c BD46     		mov	sp, r7
 9389              		.cfi_def_cfa_register 13
 9390              		@ sp needed
 9391 000e 5DF8047B 		ldr	r7, [sp], #4
 9392              		.cfi_restore 7
 9393              		.cfi_def_cfa_offset 0
 9394 0012 7047     		bx	lr
 9395              		.cfi_endproc
 9396              	.LFE862:
 9398              		.section	.text.HAL_SPI_GetState,"ax",%progbits
 9399              		.align	1
 9400              		.global	HAL_SPI_GetState
 9401              		.syntax unified
 9402              		.thumb
 9403              		.thumb_func
 9405              	HAL_SPI_GetState:
 9406              	.LFB863:
3294:STM32Cube_FW_N6/Drivers/STM32N6xx_HAL_Driver/Src/stm32n6xx_hal_spi.c **** 
3295:STM32Cube_FW_N6/Drivers/STM32N6xx_HAL_Driver/Src/stm32n6xx_hal_spi.c **** /**
3296:STM32Cube_FW_N6/Drivers/STM32N6xx_HAL_Driver/Src/stm32n6xx_hal_spi.c ****   * @}
3297:STM32Cube_FW_N6/Drivers/STM32N6xx_HAL_Driver/Src/stm32n6xx_hal_spi.c ****   */
3298:STM32Cube_FW_N6/Drivers/STM32N6xx_HAL_Driver/Src/stm32n6xx_hal_spi.c **** 
3299:STM32Cube_FW_N6/Drivers/STM32N6xx_HAL_Driver/Src/stm32n6xx_hal_spi.c **** /** @defgroup SPI_Exported_Functions_Group3 Peripheral State and Errors functions
ARM GAS  /tmp/ccwTXtVb.s 			page 224


3300:STM32Cube_FW_N6/Drivers/STM32N6xx_HAL_Driver/Src/stm32n6xx_hal_spi.c ****   * @brief   SPI control functions
3301:STM32Cube_FW_N6/Drivers/STM32N6xx_HAL_Driver/Src/stm32n6xx_hal_spi.c ****   *
3302:STM32Cube_FW_N6/Drivers/STM32N6xx_HAL_Driver/Src/stm32n6xx_hal_spi.c **** @verbatim
3303:STM32Cube_FW_N6/Drivers/STM32N6xx_HAL_Driver/Src/stm32n6xx_hal_spi.c ****  ===============================================================================
3304:STM32Cube_FW_N6/Drivers/STM32N6xx_HAL_Driver/Src/stm32n6xx_hal_spi.c ****                       ##### Peripheral State and Errors functions #####
3305:STM32Cube_FW_N6/Drivers/STM32N6xx_HAL_Driver/Src/stm32n6xx_hal_spi.c ****  ===============================================================================
3306:STM32Cube_FW_N6/Drivers/STM32N6xx_HAL_Driver/Src/stm32n6xx_hal_spi.c ****     [..]
3307:STM32Cube_FW_N6/Drivers/STM32N6xx_HAL_Driver/Src/stm32n6xx_hal_spi.c ****     This subsection provides a set of functions allowing to control the SPI.
3308:STM32Cube_FW_N6/Drivers/STM32N6xx_HAL_Driver/Src/stm32n6xx_hal_spi.c ****      (+) HAL_SPI_GetState() API can be helpful to check in run-time the state of the SPI peripheral
3309:STM32Cube_FW_N6/Drivers/STM32N6xx_HAL_Driver/Src/stm32n6xx_hal_spi.c ****      (+) HAL_SPI_GetError() check in run-time Errors occurring during communication
3310:STM32Cube_FW_N6/Drivers/STM32N6xx_HAL_Driver/Src/stm32n6xx_hal_spi.c **** @endverbatim
3311:STM32Cube_FW_N6/Drivers/STM32N6xx_HAL_Driver/Src/stm32n6xx_hal_spi.c ****   * @{
3312:STM32Cube_FW_N6/Drivers/STM32N6xx_HAL_Driver/Src/stm32n6xx_hal_spi.c ****   */
3313:STM32Cube_FW_N6/Drivers/STM32N6xx_HAL_Driver/Src/stm32n6xx_hal_spi.c **** 
3314:STM32Cube_FW_N6/Drivers/STM32N6xx_HAL_Driver/Src/stm32n6xx_hal_spi.c **** /**
3315:STM32Cube_FW_N6/Drivers/STM32N6xx_HAL_Driver/Src/stm32n6xx_hal_spi.c ****   * @brief  Return the SPI handle state.
3316:STM32Cube_FW_N6/Drivers/STM32N6xx_HAL_Driver/Src/stm32n6xx_hal_spi.c ****   * @param  hspi: pointer to a SPI_HandleTypeDef structure that contains
3317:STM32Cube_FW_N6/Drivers/STM32N6xx_HAL_Driver/Src/stm32n6xx_hal_spi.c ****   *               the configuration information for SPI module.
3318:STM32Cube_FW_N6/Drivers/STM32N6xx_HAL_Driver/Src/stm32n6xx_hal_spi.c ****   * @retval SPI state
3319:STM32Cube_FW_N6/Drivers/STM32N6xx_HAL_Driver/Src/stm32n6xx_hal_spi.c ****   */
3320:STM32Cube_FW_N6/Drivers/STM32N6xx_HAL_Driver/Src/stm32n6xx_hal_spi.c **** HAL_SPI_StateTypeDef HAL_SPI_GetState(const SPI_HandleTypeDef *hspi)
3321:STM32Cube_FW_N6/Drivers/STM32N6xx_HAL_Driver/Src/stm32n6xx_hal_spi.c **** {
 9407              		.loc 1 3321 1
 9408              		.cfi_startproc
 9409              		@ args = 0, pretend = 0, frame = 8
 9410              		@ frame_needed = 1, uses_anonymous_args = 0
 9411              		@ link register save eliminated.
 9412 0000 80B4     		push	{r7}
 9413              		.cfi_def_cfa_offset 4
 9414              		.cfi_offset 7, -4
 9415 0002 83B0     		sub	sp, sp, #12
 9416              		.cfi_def_cfa_offset 16
 9417 0004 00AF     		add	r7, sp, #0
 9418              		.cfi_def_cfa_register 7
 9419 0006 7860     		str	r0, [r7, #4]
3322:STM32Cube_FW_N6/Drivers/STM32N6xx_HAL_Driver/Src/stm32n6xx_hal_spi.c ****   /* Return SPI handle state */
3323:STM32Cube_FW_N6/Drivers/STM32N6xx_HAL_Driver/Src/stm32n6xx_hal_spi.c ****   return hspi->State;
 9420              		.loc 1 3323 14
 9421 0008 7B68     		ldr	r3, [r7, #4]
 9422 000a 93F88930 		ldrb	r3, [r3, #137]
 9423 000e DBB2     		uxtb	r3, r3
3324:STM32Cube_FW_N6/Drivers/STM32N6xx_HAL_Driver/Src/stm32n6xx_hal_spi.c **** }
 9424              		.loc 1 3324 1
 9425 0010 1846     		mov	r0, r3
 9426 0012 0C37     		adds	r7, r7, #12
 9427              		.cfi_def_cfa_offset 4
 9428 0014 BD46     		mov	sp, r7
 9429              		.cfi_def_cfa_register 13
 9430              		@ sp needed
 9431 0016 5DF8047B 		ldr	r7, [sp], #4
 9432              		.cfi_restore 7
 9433              		.cfi_def_cfa_offset 0
 9434 001a 7047     		bx	lr
 9435              		.cfi_endproc
 9436              	.LFE863:
 9438              		.section	.text.HAL_SPI_GetError,"ax",%progbits
 9439              		.align	1
ARM GAS  /tmp/ccwTXtVb.s 			page 225


 9440              		.global	HAL_SPI_GetError
 9441              		.syntax unified
 9442              		.thumb
 9443              		.thumb_func
 9445              	HAL_SPI_GetError:
 9446              	.LFB864:
3325:STM32Cube_FW_N6/Drivers/STM32N6xx_HAL_Driver/Src/stm32n6xx_hal_spi.c **** 
3326:STM32Cube_FW_N6/Drivers/STM32N6xx_HAL_Driver/Src/stm32n6xx_hal_spi.c **** /**
3327:STM32Cube_FW_N6/Drivers/STM32N6xx_HAL_Driver/Src/stm32n6xx_hal_spi.c ****   * @brief  Return the SPI error code.
3328:STM32Cube_FW_N6/Drivers/STM32N6xx_HAL_Driver/Src/stm32n6xx_hal_spi.c ****   * @param  hspi: pointer to a SPI_HandleTypeDef structure that contains
3329:STM32Cube_FW_N6/Drivers/STM32N6xx_HAL_Driver/Src/stm32n6xx_hal_spi.c ****   *               the configuration information for SPI module.
3330:STM32Cube_FW_N6/Drivers/STM32N6xx_HAL_Driver/Src/stm32n6xx_hal_spi.c ****   * @retval SPI error code in bitmap format
3331:STM32Cube_FW_N6/Drivers/STM32N6xx_HAL_Driver/Src/stm32n6xx_hal_spi.c ****   */
3332:STM32Cube_FW_N6/Drivers/STM32N6xx_HAL_Driver/Src/stm32n6xx_hal_spi.c **** uint32_t HAL_SPI_GetError(const SPI_HandleTypeDef *hspi)
3333:STM32Cube_FW_N6/Drivers/STM32N6xx_HAL_Driver/Src/stm32n6xx_hal_spi.c **** {
 9447              		.loc 1 3333 1
 9448              		.cfi_startproc
 9449              		@ args = 0, pretend = 0, frame = 8
 9450              		@ frame_needed = 1, uses_anonymous_args = 0
 9451              		@ link register save eliminated.
 9452 0000 80B4     		push	{r7}
 9453              		.cfi_def_cfa_offset 4
 9454              		.cfi_offset 7, -4
 9455 0002 83B0     		sub	sp, sp, #12
 9456              		.cfi_def_cfa_offset 16
 9457 0004 00AF     		add	r7, sp, #0
 9458              		.cfi_def_cfa_register 7
 9459 0006 7860     		str	r0, [r7, #4]
3334:STM32Cube_FW_N6/Drivers/STM32N6xx_HAL_Driver/Src/stm32n6xx_hal_spi.c ****   /* Return SPI ErrorCode */
3335:STM32Cube_FW_N6/Drivers/STM32N6xx_HAL_Driver/Src/stm32n6xx_hal_spi.c ****   return hspi->ErrorCode;
 9460              		.loc 1 3335 14
 9461 0008 7B68     		ldr	r3, [r7, #4]
 9462 000a D3F88C30 		ldr	r3, [r3, #140]
3336:STM32Cube_FW_N6/Drivers/STM32N6xx_HAL_Driver/Src/stm32n6xx_hal_spi.c **** }
 9463              		.loc 1 3336 1
 9464 000e 1846     		mov	r0, r3
 9465 0010 0C37     		adds	r7, r7, #12
 9466              		.cfi_def_cfa_offset 4
 9467 0012 BD46     		mov	sp, r7
 9468              		.cfi_def_cfa_register 13
 9469              		@ sp needed
 9470 0014 5DF8047B 		ldr	r7, [sp], #4
 9471              		.cfi_restore 7
 9472              		.cfi_def_cfa_offset 0
 9473 0018 7047     		bx	lr
 9474              		.cfi_endproc
 9475              	.LFE864:
 9477              		.section	.text.SPI_DMATransmitCplt,"ax",%progbits
 9478              		.align	1
 9479              		.syntax unified
 9480              		.thumb
 9481              		.thumb_func
 9483              	SPI_DMATransmitCplt:
 9484              	.LFB865:
3337:STM32Cube_FW_N6/Drivers/STM32N6xx_HAL_Driver/Src/stm32n6xx_hal_spi.c **** 
3338:STM32Cube_FW_N6/Drivers/STM32N6xx_HAL_Driver/Src/stm32n6xx_hal_spi.c **** /**
3339:STM32Cube_FW_N6/Drivers/STM32N6xx_HAL_Driver/Src/stm32n6xx_hal_spi.c ****   * @}
ARM GAS  /tmp/ccwTXtVb.s 			page 226


3340:STM32Cube_FW_N6/Drivers/STM32N6xx_HAL_Driver/Src/stm32n6xx_hal_spi.c ****   */
3341:STM32Cube_FW_N6/Drivers/STM32N6xx_HAL_Driver/Src/stm32n6xx_hal_spi.c **** 
3342:STM32Cube_FW_N6/Drivers/STM32N6xx_HAL_Driver/Src/stm32n6xx_hal_spi.c **** /**
3343:STM32Cube_FW_N6/Drivers/STM32N6xx_HAL_Driver/Src/stm32n6xx_hal_spi.c ****   * @}
3344:STM32Cube_FW_N6/Drivers/STM32N6xx_HAL_Driver/Src/stm32n6xx_hal_spi.c ****   */
3345:STM32Cube_FW_N6/Drivers/STM32N6xx_HAL_Driver/Src/stm32n6xx_hal_spi.c **** 
3346:STM32Cube_FW_N6/Drivers/STM32N6xx_HAL_Driver/Src/stm32n6xx_hal_spi.c **** /** @addtogroup SPI_Private_Functions
3347:STM32Cube_FW_N6/Drivers/STM32N6xx_HAL_Driver/Src/stm32n6xx_hal_spi.c ****   * @brief   Private functions
3348:STM32Cube_FW_N6/Drivers/STM32N6xx_HAL_Driver/Src/stm32n6xx_hal_spi.c ****   * @{
3349:STM32Cube_FW_N6/Drivers/STM32N6xx_HAL_Driver/Src/stm32n6xx_hal_spi.c ****   */
3350:STM32Cube_FW_N6/Drivers/STM32N6xx_HAL_Driver/Src/stm32n6xx_hal_spi.c **** 
3351:STM32Cube_FW_N6/Drivers/STM32N6xx_HAL_Driver/Src/stm32n6xx_hal_spi.c **** /**
3352:STM32Cube_FW_N6/Drivers/STM32N6xx_HAL_Driver/Src/stm32n6xx_hal_spi.c ****   * @brief DMA SPI transmit process complete callback.
3353:STM32Cube_FW_N6/Drivers/STM32N6xx_HAL_Driver/Src/stm32n6xx_hal_spi.c ****   * @param  hdma: pointer to a DMA_HandleTypeDef structure that contains
3354:STM32Cube_FW_N6/Drivers/STM32N6xx_HAL_Driver/Src/stm32n6xx_hal_spi.c ****   *               the configuration information for the specified DMA module.
3355:STM32Cube_FW_N6/Drivers/STM32N6xx_HAL_Driver/Src/stm32n6xx_hal_spi.c ****   * @retval None
3356:STM32Cube_FW_N6/Drivers/STM32N6xx_HAL_Driver/Src/stm32n6xx_hal_spi.c ****   */
3357:STM32Cube_FW_N6/Drivers/STM32N6xx_HAL_Driver/Src/stm32n6xx_hal_spi.c **** static void SPI_DMATransmitCplt(DMA_HandleTypeDef *hdma)
3358:STM32Cube_FW_N6/Drivers/STM32N6xx_HAL_Driver/Src/stm32n6xx_hal_spi.c **** {
 9485              		.loc 1 3358 1
 9486              		.cfi_startproc
 9487              		@ args = 0, pretend = 0, frame = 16
 9488              		@ frame_needed = 1, uses_anonymous_args = 0
 9489 0000 80B5     		push	{r7, lr}
 9490              		.cfi_def_cfa_offset 8
 9491              		.cfi_offset 7, -8
 9492              		.cfi_offset 14, -4
 9493 0002 84B0     		sub	sp, sp, #16
 9494              		.cfi_def_cfa_offset 24
 9495 0004 00AF     		add	r7, sp, #0
 9496              		.cfi_def_cfa_register 7
 9497 0006 7860     		str	r0, [r7, #4]
3359:STM32Cube_FW_N6/Drivers/STM32N6xx_HAL_Driver/Src/stm32n6xx_hal_spi.c ****   SPI_HandleTypeDef *hspi = (SPI_HandleTypeDef *)((DMA_HandleTypeDef *)hdma)->Parent;
 9498              		.loc 1 3359 22
 9499 0008 7B68     		ldr	r3, [r7, #4]
 9500 000a DB6D     		ldr	r3, [r3, #92]
 9501 000c FB60     		str	r3, [r7, #12]
3360:STM32Cube_FW_N6/Drivers/STM32N6xx_HAL_Driver/Src/stm32n6xx_hal_spi.c **** 
3361:STM32Cube_FW_N6/Drivers/STM32N6xx_HAL_Driver/Src/stm32n6xx_hal_spi.c ****   if (hspi->State != HAL_SPI_STATE_ABORT)
 9502              		.loc 1 3361 11
 9503 000e FB68     		ldr	r3, [r7, #12]
 9504 0010 93F88930 		ldrb	r3, [r3, #137]
 9505 0014 DBB2     		uxtb	r3, r3
 9506              		.loc 1 3361 6
 9507 0016 072B     		cmp	r3, #7
 9508 0018 11D0     		beq	.L439
3362:STM32Cube_FW_N6/Drivers/STM32N6xx_HAL_Driver/Src/stm32n6xx_hal_spi.c ****   {
3363:STM32Cube_FW_N6/Drivers/STM32N6xx_HAL_Driver/Src/stm32n6xx_hal_spi.c ****     if (hspi->hdmatx->Mode == DMA_LINKEDLIST_CIRCULAR)
 9509              		.loc 1 3363 13
 9510 001a FB68     		ldr	r3, [r7, #12]
 9511 001c D3F88030 		ldr	r3, [r3, #128]
 9512              		.loc 1 3363 21
 9513 0020 1B6D     		ldr	r3, [r3, #80]
 9514              		.loc 1 3363 8
 9515 0022 812B     		cmp	r3, #129
 9516 0024 03D1     		bne	.L438
3364:STM32Cube_FW_N6/Drivers/STM32N6xx_HAL_Driver/Src/stm32n6xx_hal_spi.c ****     {
ARM GAS  /tmp/ccwTXtVb.s 			page 227


3365:STM32Cube_FW_N6/Drivers/STM32N6xx_HAL_Driver/Src/stm32n6xx_hal_spi.c **** #if (USE_HAL_SPI_REGISTER_CALLBACKS == 1UL)
3366:STM32Cube_FW_N6/Drivers/STM32N6xx_HAL_Driver/Src/stm32n6xx_hal_spi.c ****       hspi->TxCpltCallback(hspi);
3367:STM32Cube_FW_N6/Drivers/STM32N6xx_HAL_Driver/Src/stm32n6xx_hal_spi.c **** #else
3368:STM32Cube_FW_N6/Drivers/STM32N6xx_HAL_Driver/Src/stm32n6xx_hal_spi.c ****       HAL_SPI_TxCpltCallback(hspi);
 9517              		.loc 1 3368 7
 9518 0026 F868     		ldr	r0, [r7, #12]
 9519 0028 FFF7FEFF 		bl	HAL_SPI_TxCpltCallback
3369:STM32Cube_FW_N6/Drivers/STM32N6xx_HAL_Driver/Src/stm32n6xx_hal_spi.c **** #endif /* USE_HAL_SPI_REGISTER_CALLBACKS */
3370:STM32Cube_FW_N6/Drivers/STM32N6xx_HAL_Driver/Src/stm32n6xx_hal_spi.c ****     }
3371:STM32Cube_FW_N6/Drivers/STM32N6xx_HAL_Driver/Src/stm32n6xx_hal_spi.c ****     else
3372:STM32Cube_FW_N6/Drivers/STM32N6xx_HAL_Driver/Src/stm32n6xx_hal_spi.c ****     {
3373:STM32Cube_FW_N6/Drivers/STM32N6xx_HAL_Driver/Src/stm32n6xx_hal_spi.c ****       /* Enable EOT interrupt */
3374:STM32Cube_FW_N6/Drivers/STM32N6xx_HAL_Driver/Src/stm32n6xx_hal_spi.c ****       __HAL_SPI_ENABLE_IT(hspi, SPI_IT_EOT);
3375:STM32Cube_FW_N6/Drivers/STM32N6xx_HAL_Driver/Src/stm32n6xx_hal_spi.c ****     }
3376:STM32Cube_FW_N6/Drivers/STM32N6xx_HAL_Driver/Src/stm32n6xx_hal_spi.c ****   }
3377:STM32Cube_FW_N6/Drivers/STM32N6xx_HAL_Driver/Src/stm32n6xx_hal_spi.c **** }
 9520              		.loc 1 3377 1
 9521 002c 07E0     		b	.L439
 9522              	.L438:
3374:STM32Cube_FW_N6/Drivers/STM32N6xx_HAL_Driver/Src/stm32n6xx_hal_spi.c ****     }
 9523              		.loc 1 3374 7
 9524 002e FB68     		ldr	r3, [r7, #12]
 9525 0030 1B68     		ldr	r3, [r3]
 9526 0032 1A69     		ldr	r2, [r3, #16]
 9527 0034 FB68     		ldr	r3, [r7, #12]
 9528 0036 1B68     		ldr	r3, [r3]
 9529 0038 42F00802 		orr	r2, r2, #8
 9530 003c 1A61     		str	r2, [r3, #16]
 9531              	.L439:
 9532              		.loc 1 3377 1
 9533 003e 00BF     		nop
 9534 0040 1037     		adds	r7, r7, #16
 9535              		.cfi_def_cfa_offset 8
 9536 0042 BD46     		mov	sp, r7
 9537              		.cfi_def_cfa_register 13
 9538              		@ sp needed
 9539 0044 80BD     		pop	{r7, pc}
 9540              		.cfi_endproc
 9541              	.LFE865:
 9543              		.section	.text.SPI_DMAReceiveCplt,"ax",%progbits
 9544              		.align	1
 9545              		.syntax unified
 9546              		.thumb
 9547              		.thumb_func
 9549              	SPI_DMAReceiveCplt:
 9550              	.LFB866:
3378:STM32Cube_FW_N6/Drivers/STM32N6xx_HAL_Driver/Src/stm32n6xx_hal_spi.c **** 
3379:STM32Cube_FW_N6/Drivers/STM32N6xx_HAL_Driver/Src/stm32n6xx_hal_spi.c **** /**
3380:STM32Cube_FW_N6/Drivers/STM32N6xx_HAL_Driver/Src/stm32n6xx_hal_spi.c ****   * @brief DMA SPI receive process complete callback.
3381:STM32Cube_FW_N6/Drivers/STM32N6xx_HAL_Driver/Src/stm32n6xx_hal_spi.c ****   * @param  hdma: pointer to a DMA_HandleTypeDef structure that contains
3382:STM32Cube_FW_N6/Drivers/STM32N6xx_HAL_Driver/Src/stm32n6xx_hal_spi.c ****   *               the configuration information for the specified DMA module.
3383:STM32Cube_FW_N6/Drivers/STM32N6xx_HAL_Driver/Src/stm32n6xx_hal_spi.c ****   * @retval None
3384:STM32Cube_FW_N6/Drivers/STM32N6xx_HAL_Driver/Src/stm32n6xx_hal_spi.c ****   */
3385:STM32Cube_FW_N6/Drivers/STM32N6xx_HAL_Driver/Src/stm32n6xx_hal_spi.c **** static void SPI_DMAReceiveCplt(DMA_HandleTypeDef *hdma)
3386:STM32Cube_FW_N6/Drivers/STM32N6xx_HAL_Driver/Src/stm32n6xx_hal_spi.c **** {
 9551              		.loc 1 3386 1
 9552              		.cfi_startproc
ARM GAS  /tmp/ccwTXtVb.s 			page 228


 9553              		@ args = 0, pretend = 0, frame = 16
 9554              		@ frame_needed = 1, uses_anonymous_args = 0
 9555 0000 80B5     		push	{r7, lr}
 9556              		.cfi_def_cfa_offset 8
 9557              		.cfi_offset 7, -8
 9558              		.cfi_offset 14, -4
 9559 0002 84B0     		sub	sp, sp, #16
 9560              		.cfi_def_cfa_offset 24
 9561 0004 00AF     		add	r7, sp, #0
 9562              		.cfi_def_cfa_register 7
 9563 0006 7860     		str	r0, [r7, #4]
3387:STM32Cube_FW_N6/Drivers/STM32N6xx_HAL_Driver/Src/stm32n6xx_hal_spi.c ****   SPI_HandleTypeDef *hspi = (SPI_HandleTypeDef *)((DMA_HandleTypeDef *)hdma)->Parent;
 9564              		.loc 1 3387 22
 9565 0008 7B68     		ldr	r3, [r7, #4]
 9566 000a DB6D     		ldr	r3, [r3, #92]
 9567 000c FB60     		str	r3, [r7, #12]
3388:STM32Cube_FW_N6/Drivers/STM32N6xx_HAL_Driver/Src/stm32n6xx_hal_spi.c **** 
3389:STM32Cube_FW_N6/Drivers/STM32N6xx_HAL_Driver/Src/stm32n6xx_hal_spi.c ****   if (hspi->State != HAL_SPI_STATE_ABORT)
 9568              		.loc 1 3389 11
 9569 000e FB68     		ldr	r3, [r7, #12]
 9570 0010 93F88930 		ldrb	r3, [r3, #137]
 9571 0014 DBB2     		uxtb	r3, r3
 9572              		.loc 1 3389 6
 9573 0016 072B     		cmp	r3, #7
 9574 0018 11D0     		beq	.L443
3390:STM32Cube_FW_N6/Drivers/STM32N6xx_HAL_Driver/Src/stm32n6xx_hal_spi.c ****   {
3391:STM32Cube_FW_N6/Drivers/STM32N6xx_HAL_Driver/Src/stm32n6xx_hal_spi.c ****     if (hspi->hdmarx->Mode == DMA_LINKEDLIST_CIRCULAR)
 9575              		.loc 1 3391 13
 9576 001a FB68     		ldr	r3, [r7, #12]
 9577 001c D3F88430 		ldr	r3, [r3, #132]
 9578              		.loc 1 3391 21
 9579 0020 1B6D     		ldr	r3, [r3, #80]
 9580              		.loc 1 3391 8
 9581 0022 812B     		cmp	r3, #129
 9582 0024 03D1     		bne	.L442
3392:STM32Cube_FW_N6/Drivers/STM32N6xx_HAL_Driver/Src/stm32n6xx_hal_spi.c ****     {
3393:STM32Cube_FW_N6/Drivers/STM32N6xx_HAL_Driver/Src/stm32n6xx_hal_spi.c **** #if (USE_HAL_SPI_REGISTER_CALLBACKS == 1UL)
3394:STM32Cube_FW_N6/Drivers/STM32N6xx_HAL_Driver/Src/stm32n6xx_hal_spi.c ****       hspi->RxCpltCallback(hspi);
3395:STM32Cube_FW_N6/Drivers/STM32N6xx_HAL_Driver/Src/stm32n6xx_hal_spi.c **** #else
3396:STM32Cube_FW_N6/Drivers/STM32N6xx_HAL_Driver/Src/stm32n6xx_hal_spi.c ****       HAL_SPI_RxCpltCallback(hspi);
 9583              		.loc 1 3396 7
 9584 0026 F868     		ldr	r0, [r7, #12]
 9585 0028 FFF7FEFF 		bl	HAL_SPI_RxCpltCallback
3397:STM32Cube_FW_N6/Drivers/STM32N6xx_HAL_Driver/Src/stm32n6xx_hal_spi.c **** #endif /* USE_HAL_SPI_REGISTER_CALLBACKS */
3398:STM32Cube_FW_N6/Drivers/STM32N6xx_HAL_Driver/Src/stm32n6xx_hal_spi.c ****     }
3399:STM32Cube_FW_N6/Drivers/STM32N6xx_HAL_Driver/Src/stm32n6xx_hal_spi.c ****     else
3400:STM32Cube_FW_N6/Drivers/STM32N6xx_HAL_Driver/Src/stm32n6xx_hal_spi.c ****     {
3401:STM32Cube_FW_N6/Drivers/STM32N6xx_HAL_Driver/Src/stm32n6xx_hal_spi.c ****       /* Enable EOT interrupt */
3402:STM32Cube_FW_N6/Drivers/STM32N6xx_HAL_Driver/Src/stm32n6xx_hal_spi.c ****       __HAL_SPI_ENABLE_IT(hspi, SPI_IT_EOT);
3403:STM32Cube_FW_N6/Drivers/STM32N6xx_HAL_Driver/Src/stm32n6xx_hal_spi.c ****     }
3404:STM32Cube_FW_N6/Drivers/STM32N6xx_HAL_Driver/Src/stm32n6xx_hal_spi.c ****   }
3405:STM32Cube_FW_N6/Drivers/STM32N6xx_HAL_Driver/Src/stm32n6xx_hal_spi.c **** }
 9586              		.loc 1 3405 1
 9587 002c 07E0     		b	.L443
 9588              	.L442:
3402:STM32Cube_FW_N6/Drivers/STM32N6xx_HAL_Driver/Src/stm32n6xx_hal_spi.c ****     }
 9589              		.loc 1 3402 7
ARM GAS  /tmp/ccwTXtVb.s 			page 229


 9590 002e FB68     		ldr	r3, [r7, #12]
 9591 0030 1B68     		ldr	r3, [r3]
 9592 0032 1A69     		ldr	r2, [r3, #16]
 9593 0034 FB68     		ldr	r3, [r7, #12]
 9594 0036 1B68     		ldr	r3, [r3]
 9595 0038 42F00802 		orr	r2, r2, #8
 9596 003c 1A61     		str	r2, [r3, #16]
 9597              	.L443:
 9598              		.loc 1 3405 1
 9599 003e 00BF     		nop
 9600 0040 1037     		adds	r7, r7, #16
 9601              		.cfi_def_cfa_offset 8
 9602 0042 BD46     		mov	sp, r7
 9603              		.cfi_def_cfa_register 13
 9604              		@ sp needed
 9605 0044 80BD     		pop	{r7, pc}
 9606              		.cfi_endproc
 9607              	.LFE866:
 9609              		.section	.text.SPI_DMATransmitReceiveCplt,"ax",%progbits
 9610              		.align	1
 9611              		.syntax unified
 9612              		.thumb
 9613              		.thumb_func
 9615              	SPI_DMATransmitReceiveCplt:
 9616              	.LFB867:
3406:STM32Cube_FW_N6/Drivers/STM32N6xx_HAL_Driver/Src/stm32n6xx_hal_spi.c **** 
3407:STM32Cube_FW_N6/Drivers/STM32N6xx_HAL_Driver/Src/stm32n6xx_hal_spi.c **** /**
3408:STM32Cube_FW_N6/Drivers/STM32N6xx_HAL_Driver/Src/stm32n6xx_hal_spi.c ****   * @brief  DMA SPI transmit receive process complete callback.
3409:STM32Cube_FW_N6/Drivers/STM32N6xx_HAL_Driver/Src/stm32n6xx_hal_spi.c ****   * @param  hdma: pointer to a DMA_HandleTypeDef structure that contains
3410:STM32Cube_FW_N6/Drivers/STM32N6xx_HAL_Driver/Src/stm32n6xx_hal_spi.c ****   *               the configuration information for the specified DMA module.
3411:STM32Cube_FW_N6/Drivers/STM32N6xx_HAL_Driver/Src/stm32n6xx_hal_spi.c ****   * @retval None
3412:STM32Cube_FW_N6/Drivers/STM32N6xx_HAL_Driver/Src/stm32n6xx_hal_spi.c ****   */
3413:STM32Cube_FW_N6/Drivers/STM32N6xx_HAL_Driver/Src/stm32n6xx_hal_spi.c **** static void SPI_DMATransmitReceiveCplt(DMA_HandleTypeDef *hdma)
3414:STM32Cube_FW_N6/Drivers/STM32N6xx_HAL_Driver/Src/stm32n6xx_hal_spi.c **** {
 9617              		.loc 1 3414 1
 9618              		.cfi_startproc
 9619              		@ args = 0, pretend = 0, frame = 16
 9620              		@ frame_needed = 1, uses_anonymous_args = 0
 9621 0000 80B5     		push	{r7, lr}
 9622              		.cfi_def_cfa_offset 8
 9623              		.cfi_offset 7, -8
 9624              		.cfi_offset 14, -4
 9625 0002 84B0     		sub	sp, sp, #16
 9626              		.cfi_def_cfa_offset 24
 9627 0004 00AF     		add	r7, sp, #0
 9628              		.cfi_def_cfa_register 7
 9629 0006 7860     		str	r0, [r7, #4]
3415:STM32Cube_FW_N6/Drivers/STM32N6xx_HAL_Driver/Src/stm32n6xx_hal_spi.c ****   SPI_HandleTypeDef *hspi = (SPI_HandleTypeDef *)((DMA_HandleTypeDef *)hdma)->Parent;
 9630              		.loc 1 3415 22
 9631 0008 7B68     		ldr	r3, [r7, #4]
 9632 000a DB6D     		ldr	r3, [r3, #92]
 9633 000c FB60     		str	r3, [r7, #12]
3416:STM32Cube_FW_N6/Drivers/STM32N6xx_HAL_Driver/Src/stm32n6xx_hal_spi.c **** 
3417:STM32Cube_FW_N6/Drivers/STM32N6xx_HAL_Driver/Src/stm32n6xx_hal_spi.c ****   if (hspi->State != HAL_SPI_STATE_ABORT)
 9634              		.loc 1 3417 11
 9635 000e FB68     		ldr	r3, [r7, #12]
 9636 0010 93F88930 		ldrb	r3, [r3, #137]
ARM GAS  /tmp/ccwTXtVb.s 			page 230


 9637 0014 DBB2     		uxtb	r3, r3
 9638              		.loc 1 3417 6
 9639 0016 072B     		cmp	r3, #7
 9640 0018 17D0     		beq	.L447
3418:STM32Cube_FW_N6/Drivers/STM32N6xx_HAL_Driver/Src/stm32n6xx_hal_spi.c ****   {
3419:STM32Cube_FW_N6/Drivers/STM32N6xx_HAL_Driver/Src/stm32n6xx_hal_spi.c ****     if ((hspi->hdmarx->Mode == DMA_LINKEDLIST_CIRCULAR) &&
 9641              		.loc 1 3419 14
 9642 001a FB68     		ldr	r3, [r7, #12]
 9643 001c D3F88430 		ldr	r3, [r3, #132]
 9644              		.loc 1 3419 22
 9645 0020 1B6D     		ldr	r3, [r3, #80]
 9646              		.loc 1 3419 8
 9647 0022 812B     		cmp	r3, #129
 9648 0024 09D1     		bne	.L446
3420:STM32Cube_FW_N6/Drivers/STM32N6xx_HAL_Driver/Src/stm32n6xx_hal_spi.c ****         (hspi->hdmatx->Mode == DMA_LINKEDLIST_CIRCULAR))
 9649              		.loc 1 3420 14
 9650 0026 FB68     		ldr	r3, [r7, #12]
 9651 0028 D3F88030 		ldr	r3, [r3, #128]
 9652              		.loc 1 3420 22
 9653 002c 1B6D     		ldr	r3, [r3, #80]
3419:STM32Cube_FW_N6/Drivers/STM32N6xx_HAL_Driver/Src/stm32n6xx_hal_spi.c ****         (hspi->hdmatx->Mode == DMA_LINKEDLIST_CIRCULAR))
 9654              		.loc 1 3419 57 discriminator 1
 9655 002e 812B     		cmp	r3, #129
 9656 0030 03D1     		bne	.L446
3421:STM32Cube_FW_N6/Drivers/STM32N6xx_HAL_Driver/Src/stm32n6xx_hal_spi.c ****     {
3422:STM32Cube_FW_N6/Drivers/STM32N6xx_HAL_Driver/Src/stm32n6xx_hal_spi.c **** #if (USE_HAL_SPI_REGISTER_CALLBACKS == 1UL)
3423:STM32Cube_FW_N6/Drivers/STM32N6xx_HAL_Driver/Src/stm32n6xx_hal_spi.c ****       hspi->TxRxCpltCallback(hspi);
3424:STM32Cube_FW_N6/Drivers/STM32N6xx_HAL_Driver/Src/stm32n6xx_hal_spi.c **** #else
3425:STM32Cube_FW_N6/Drivers/STM32N6xx_HAL_Driver/Src/stm32n6xx_hal_spi.c ****       HAL_SPI_TxRxCpltCallback(hspi);
 9657              		.loc 1 3425 7
 9658 0032 F868     		ldr	r0, [r7, #12]
 9659 0034 FFF7FEFF 		bl	HAL_SPI_TxRxCpltCallback
3426:STM32Cube_FW_N6/Drivers/STM32N6xx_HAL_Driver/Src/stm32n6xx_hal_spi.c **** #endif /* USE_HAL_SPI_REGISTER_CALLBACKS */
3427:STM32Cube_FW_N6/Drivers/STM32N6xx_HAL_Driver/Src/stm32n6xx_hal_spi.c ****     }
3428:STM32Cube_FW_N6/Drivers/STM32N6xx_HAL_Driver/Src/stm32n6xx_hal_spi.c ****     else
3429:STM32Cube_FW_N6/Drivers/STM32N6xx_HAL_Driver/Src/stm32n6xx_hal_spi.c ****     {
3430:STM32Cube_FW_N6/Drivers/STM32N6xx_HAL_Driver/Src/stm32n6xx_hal_spi.c ****       /* Enable EOT interrupt */
3431:STM32Cube_FW_N6/Drivers/STM32N6xx_HAL_Driver/Src/stm32n6xx_hal_spi.c ****       __HAL_SPI_ENABLE_IT(hspi, SPI_IT_EOT);
3432:STM32Cube_FW_N6/Drivers/STM32N6xx_HAL_Driver/Src/stm32n6xx_hal_spi.c ****     }
3433:STM32Cube_FW_N6/Drivers/STM32N6xx_HAL_Driver/Src/stm32n6xx_hal_spi.c ****   }
3434:STM32Cube_FW_N6/Drivers/STM32N6xx_HAL_Driver/Src/stm32n6xx_hal_spi.c **** }
 9660              		.loc 1 3434 1
 9661 0038 07E0     		b	.L447
 9662              	.L446:
3431:STM32Cube_FW_N6/Drivers/STM32N6xx_HAL_Driver/Src/stm32n6xx_hal_spi.c ****     }
 9663              		.loc 1 3431 7
 9664 003a FB68     		ldr	r3, [r7, #12]
 9665 003c 1B68     		ldr	r3, [r3]
 9666 003e 1A69     		ldr	r2, [r3, #16]
 9667 0040 FB68     		ldr	r3, [r7, #12]
 9668 0042 1B68     		ldr	r3, [r3]
 9669 0044 42F00802 		orr	r2, r2, #8
 9670 0048 1A61     		str	r2, [r3, #16]
 9671              	.L447:
 9672              		.loc 1 3434 1
 9673 004a 00BF     		nop
 9674 004c 1037     		adds	r7, r7, #16
ARM GAS  /tmp/ccwTXtVb.s 			page 231


 9675              		.cfi_def_cfa_offset 8
 9676 004e BD46     		mov	sp, r7
 9677              		.cfi_def_cfa_register 13
 9678              		@ sp needed
 9679 0050 80BD     		pop	{r7, pc}
 9680              		.cfi_endproc
 9681              	.LFE867:
 9683              		.section	.text.SPI_DMAHalfTransmitCplt,"ax",%progbits
 9684              		.align	1
 9685              		.syntax unified
 9686              		.thumb
 9687              		.thumb_func
 9689              	SPI_DMAHalfTransmitCplt:
 9690              	.LFB868:
3435:STM32Cube_FW_N6/Drivers/STM32N6xx_HAL_Driver/Src/stm32n6xx_hal_spi.c **** 
3436:STM32Cube_FW_N6/Drivers/STM32N6xx_HAL_Driver/Src/stm32n6xx_hal_spi.c **** /**
3437:STM32Cube_FW_N6/Drivers/STM32N6xx_HAL_Driver/Src/stm32n6xx_hal_spi.c ****   * @brief  DMA SPI half transmit process complete callback.
3438:STM32Cube_FW_N6/Drivers/STM32N6xx_HAL_Driver/Src/stm32n6xx_hal_spi.c ****   * @param  hdma: pointer to a DMA_HandleTypeDef structure that contains
3439:STM32Cube_FW_N6/Drivers/STM32N6xx_HAL_Driver/Src/stm32n6xx_hal_spi.c ****   *               the configuration information for the specified DMA module.
3440:STM32Cube_FW_N6/Drivers/STM32N6xx_HAL_Driver/Src/stm32n6xx_hal_spi.c ****   * @retval None
3441:STM32Cube_FW_N6/Drivers/STM32N6xx_HAL_Driver/Src/stm32n6xx_hal_spi.c ****   */
3442:STM32Cube_FW_N6/Drivers/STM32N6xx_HAL_Driver/Src/stm32n6xx_hal_spi.c **** static void SPI_DMAHalfTransmitCplt(DMA_HandleTypeDef *hdma) /* Derogation MISRAC2012-Rule-8.13 */
3443:STM32Cube_FW_N6/Drivers/STM32N6xx_HAL_Driver/Src/stm32n6xx_hal_spi.c **** {
 9691              		.loc 1 3443 1
 9692              		.cfi_startproc
 9693              		@ args = 0, pretend = 0, frame = 16
 9694              		@ frame_needed = 1, uses_anonymous_args = 0
 9695 0000 80B5     		push	{r7, lr}
 9696              		.cfi_def_cfa_offset 8
 9697              		.cfi_offset 7, -8
 9698              		.cfi_offset 14, -4
 9699 0002 84B0     		sub	sp, sp, #16
 9700              		.cfi_def_cfa_offset 24
 9701 0004 00AF     		add	r7, sp, #0
 9702              		.cfi_def_cfa_register 7
 9703 0006 7860     		str	r0, [r7, #4]
3444:STM32Cube_FW_N6/Drivers/STM32N6xx_HAL_Driver/Src/stm32n6xx_hal_spi.c ****   SPI_HandleTypeDef *hspi = (SPI_HandleTypeDef *)
 9704              		.loc 1 3444 22
 9705 0008 7B68     		ldr	r3, [r7, #4]
 9706 000a DB6D     		ldr	r3, [r3, #92]
 9707 000c FB60     		str	r3, [r7, #12]
3445:STM32Cube_FW_N6/Drivers/STM32N6xx_HAL_Driver/Src/stm32n6xx_hal_spi.c ****                             ((DMA_HandleTypeDef *)hdma)->Parent; /* Derogation MISRAC2012-Rule-8.13
3446:STM32Cube_FW_N6/Drivers/STM32N6xx_HAL_Driver/Src/stm32n6xx_hal_spi.c **** 
3447:STM32Cube_FW_N6/Drivers/STM32N6xx_HAL_Driver/Src/stm32n6xx_hal_spi.c **** #if (USE_HAL_SPI_REGISTER_CALLBACKS == 1UL)
3448:STM32Cube_FW_N6/Drivers/STM32N6xx_HAL_Driver/Src/stm32n6xx_hal_spi.c ****   hspi->TxHalfCpltCallback(hspi);
3449:STM32Cube_FW_N6/Drivers/STM32N6xx_HAL_Driver/Src/stm32n6xx_hal_spi.c **** #else
3450:STM32Cube_FW_N6/Drivers/STM32N6xx_HAL_Driver/Src/stm32n6xx_hal_spi.c ****   HAL_SPI_TxHalfCpltCallback(hspi);
 9708              		.loc 1 3450 3
 9709 000e F868     		ldr	r0, [r7, #12]
 9710 0010 FFF7FEFF 		bl	HAL_SPI_TxHalfCpltCallback
3451:STM32Cube_FW_N6/Drivers/STM32N6xx_HAL_Driver/Src/stm32n6xx_hal_spi.c **** #endif /* USE_HAL_SPI_REGISTER_CALLBACKS */
3452:STM32Cube_FW_N6/Drivers/STM32N6xx_HAL_Driver/Src/stm32n6xx_hal_spi.c **** }
 9711              		.loc 1 3452 1
 9712 0014 00BF     		nop
 9713 0016 1037     		adds	r7, r7, #16
 9714              		.cfi_def_cfa_offset 8
 9715 0018 BD46     		mov	sp, r7
ARM GAS  /tmp/ccwTXtVb.s 			page 232


 9716              		.cfi_def_cfa_register 13
 9717              		@ sp needed
 9718 001a 80BD     		pop	{r7, pc}
 9719              		.cfi_endproc
 9720              	.LFE868:
 9722              		.section	.text.SPI_DMAHalfReceiveCplt,"ax",%progbits
 9723              		.align	1
 9724              		.syntax unified
 9725              		.thumb
 9726              		.thumb_func
 9728              	SPI_DMAHalfReceiveCplt:
 9729              	.LFB869:
3453:STM32Cube_FW_N6/Drivers/STM32N6xx_HAL_Driver/Src/stm32n6xx_hal_spi.c **** 
3454:STM32Cube_FW_N6/Drivers/STM32N6xx_HAL_Driver/Src/stm32n6xx_hal_spi.c **** /**
3455:STM32Cube_FW_N6/Drivers/STM32N6xx_HAL_Driver/Src/stm32n6xx_hal_spi.c ****   * @brief  DMA SPI half receive process complete callback
3456:STM32Cube_FW_N6/Drivers/STM32N6xx_HAL_Driver/Src/stm32n6xx_hal_spi.c ****   * @param  hdma: pointer to a DMA_HandleTypeDef structure that contains
3457:STM32Cube_FW_N6/Drivers/STM32N6xx_HAL_Driver/Src/stm32n6xx_hal_spi.c ****   *               the configuration information for the specified DMA module.
3458:STM32Cube_FW_N6/Drivers/STM32N6xx_HAL_Driver/Src/stm32n6xx_hal_spi.c ****   * @retval None
3459:STM32Cube_FW_N6/Drivers/STM32N6xx_HAL_Driver/Src/stm32n6xx_hal_spi.c ****   */
3460:STM32Cube_FW_N6/Drivers/STM32N6xx_HAL_Driver/Src/stm32n6xx_hal_spi.c **** static void SPI_DMAHalfReceiveCplt(DMA_HandleTypeDef *hdma) /* Derogation MISRAC2012-Rule-8.13 */
3461:STM32Cube_FW_N6/Drivers/STM32N6xx_HAL_Driver/Src/stm32n6xx_hal_spi.c **** {
 9730              		.loc 1 3461 1
 9731              		.cfi_startproc
 9732              		@ args = 0, pretend = 0, frame = 16
 9733              		@ frame_needed = 1, uses_anonymous_args = 0
 9734 0000 80B5     		push	{r7, lr}
 9735              		.cfi_def_cfa_offset 8
 9736              		.cfi_offset 7, -8
 9737              		.cfi_offset 14, -4
 9738 0002 84B0     		sub	sp, sp, #16
 9739              		.cfi_def_cfa_offset 24
 9740 0004 00AF     		add	r7, sp, #0
 9741              		.cfi_def_cfa_register 7
 9742 0006 7860     		str	r0, [r7, #4]
3462:STM32Cube_FW_N6/Drivers/STM32N6xx_HAL_Driver/Src/stm32n6xx_hal_spi.c ****   SPI_HandleTypeDef *hspi = (SPI_HandleTypeDef *)
 9743              		.loc 1 3462 22
 9744 0008 7B68     		ldr	r3, [r7, #4]
 9745 000a DB6D     		ldr	r3, [r3, #92]
 9746 000c FB60     		str	r3, [r7, #12]
3463:STM32Cube_FW_N6/Drivers/STM32N6xx_HAL_Driver/Src/stm32n6xx_hal_spi.c ****                             ((DMA_HandleTypeDef *)hdma)->Parent; /* Derogation MISRAC2012-Rule-8.13
3464:STM32Cube_FW_N6/Drivers/STM32N6xx_HAL_Driver/Src/stm32n6xx_hal_spi.c **** 
3465:STM32Cube_FW_N6/Drivers/STM32N6xx_HAL_Driver/Src/stm32n6xx_hal_spi.c **** #if (USE_HAL_SPI_REGISTER_CALLBACKS == 1UL)
3466:STM32Cube_FW_N6/Drivers/STM32N6xx_HAL_Driver/Src/stm32n6xx_hal_spi.c ****   hspi->RxHalfCpltCallback(hspi);
3467:STM32Cube_FW_N6/Drivers/STM32N6xx_HAL_Driver/Src/stm32n6xx_hal_spi.c **** #else
3468:STM32Cube_FW_N6/Drivers/STM32N6xx_HAL_Driver/Src/stm32n6xx_hal_spi.c ****   HAL_SPI_RxHalfCpltCallback(hspi);
 9747              		.loc 1 3468 3
 9748 000e F868     		ldr	r0, [r7, #12]
 9749 0010 FFF7FEFF 		bl	HAL_SPI_RxHalfCpltCallback
3469:STM32Cube_FW_N6/Drivers/STM32N6xx_HAL_Driver/Src/stm32n6xx_hal_spi.c **** #endif /* USE_HAL_SPI_REGISTER_CALLBACKS */
3470:STM32Cube_FW_N6/Drivers/STM32N6xx_HAL_Driver/Src/stm32n6xx_hal_spi.c **** }
 9750              		.loc 1 3470 1
 9751 0014 00BF     		nop
 9752 0016 1037     		adds	r7, r7, #16
 9753              		.cfi_def_cfa_offset 8
 9754 0018 BD46     		mov	sp, r7
 9755              		.cfi_def_cfa_register 13
 9756              		@ sp needed
ARM GAS  /tmp/ccwTXtVb.s 			page 233


 9757 001a 80BD     		pop	{r7, pc}
 9758              		.cfi_endproc
 9759              	.LFE869:
 9761              		.section	.text.SPI_DMAHalfTransmitReceiveCplt,"ax",%progbits
 9762              		.align	1
 9763              		.syntax unified
 9764              		.thumb
 9765              		.thumb_func
 9767              	SPI_DMAHalfTransmitReceiveCplt:
 9768              	.LFB870:
3471:STM32Cube_FW_N6/Drivers/STM32N6xx_HAL_Driver/Src/stm32n6xx_hal_spi.c **** 
3472:STM32Cube_FW_N6/Drivers/STM32N6xx_HAL_Driver/Src/stm32n6xx_hal_spi.c **** /**
3473:STM32Cube_FW_N6/Drivers/STM32N6xx_HAL_Driver/Src/stm32n6xx_hal_spi.c ****   * @brief  DMA SPI half transmit receive process complete callback.
3474:STM32Cube_FW_N6/Drivers/STM32N6xx_HAL_Driver/Src/stm32n6xx_hal_spi.c ****   * @param  hdma: pointer to a DMA_HandleTypeDef structure that contains
3475:STM32Cube_FW_N6/Drivers/STM32N6xx_HAL_Driver/Src/stm32n6xx_hal_spi.c ****   *               the configuration information for the specified DMA module.
3476:STM32Cube_FW_N6/Drivers/STM32N6xx_HAL_Driver/Src/stm32n6xx_hal_spi.c ****   * @retval None
3477:STM32Cube_FW_N6/Drivers/STM32N6xx_HAL_Driver/Src/stm32n6xx_hal_spi.c ****   */
3478:STM32Cube_FW_N6/Drivers/STM32N6xx_HAL_Driver/Src/stm32n6xx_hal_spi.c **** static void SPI_DMAHalfTransmitReceiveCplt(DMA_HandleTypeDef *hdma) /* Derogation MISRAC2012-Rule-8
3479:STM32Cube_FW_N6/Drivers/STM32N6xx_HAL_Driver/Src/stm32n6xx_hal_spi.c **** {
 9769              		.loc 1 3479 1
 9770              		.cfi_startproc
 9771              		@ args = 0, pretend = 0, frame = 16
 9772              		@ frame_needed = 1, uses_anonymous_args = 0
 9773 0000 80B5     		push	{r7, lr}
 9774              		.cfi_def_cfa_offset 8
 9775              		.cfi_offset 7, -8
 9776              		.cfi_offset 14, -4
 9777 0002 84B0     		sub	sp, sp, #16
 9778              		.cfi_def_cfa_offset 24
 9779 0004 00AF     		add	r7, sp, #0
 9780              		.cfi_def_cfa_register 7
 9781 0006 7860     		str	r0, [r7, #4]
3480:STM32Cube_FW_N6/Drivers/STM32N6xx_HAL_Driver/Src/stm32n6xx_hal_spi.c ****   SPI_HandleTypeDef *hspi = (SPI_HandleTypeDef *)
 9782              		.loc 1 3480 22
 9783 0008 7B68     		ldr	r3, [r7, #4]
 9784 000a DB6D     		ldr	r3, [r3, #92]
 9785 000c FB60     		str	r3, [r7, #12]
3481:STM32Cube_FW_N6/Drivers/STM32N6xx_HAL_Driver/Src/stm32n6xx_hal_spi.c ****                             ((DMA_HandleTypeDef *)hdma)->Parent; /* Derogation MISRAC2012-Rule-8.13
3482:STM32Cube_FW_N6/Drivers/STM32N6xx_HAL_Driver/Src/stm32n6xx_hal_spi.c **** 
3483:STM32Cube_FW_N6/Drivers/STM32N6xx_HAL_Driver/Src/stm32n6xx_hal_spi.c **** #if (USE_HAL_SPI_REGISTER_CALLBACKS == 1UL)
3484:STM32Cube_FW_N6/Drivers/STM32N6xx_HAL_Driver/Src/stm32n6xx_hal_spi.c ****   hspi->TxRxHalfCpltCallback(hspi);
3485:STM32Cube_FW_N6/Drivers/STM32N6xx_HAL_Driver/Src/stm32n6xx_hal_spi.c **** #else
3486:STM32Cube_FW_N6/Drivers/STM32N6xx_HAL_Driver/Src/stm32n6xx_hal_spi.c ****   HAL_SPI_TxRxHalfCpltCallback(hspi);
 9786              		.loc 1 3486 3
 9787 000e F868     		ldr	r0, [r7, #12]
 9788 0010 FFF7FEFF 		bl	HAL_SPI_TxRxHalfCpltCallback
3487:STM32Cube_FW_N6/Drivers/STM32N6xx_HAL_Driver/Src/stm32n6xx_hal_spi.c **** #endif /* USE_HAL_SPI_REGISTER_CALLBACKS */
3488:STM32Cube_FW_N6/Drivers/STM32N6xx_HAL_Driver/Src/stm32n6xx_hal_spi.c **** }
 9789              		.loc 1 3488 1
 9790 0014 00BF     		nop
 9791 0016 1037     		adds	r7, r7, #16
 9792              		.cfi_def_cfa_offset 8
 9793 0018 BD46     		mov	sp, r7
 9794              		.cfi_def_cfa_register 13
 9795              		@ sp needed
 9796 001a 80BD     		pop	{r7, pc}
 9797              		.cfi_endproc
ARM GAS  /tmp/ccwTXtVb.s 			page 234


 9798              	.LFE870:
 9800              		.section	.text.SPI_DMAError,"ax",%progbits
 9801              		.align	1
 9802              		.syntax unified
 9803              		.thumb
 9804              		.thumb_func
 9806              	SPI_DMAError:
 9807              	.LFB871:
3489:STM32Cube_FW_N6/Drivers/STM32N6xx_HAL_Driver/Src/stm32n6xx_hal_spi.c **** 
3490:STM32Cube_FW_N6/Drivers/STM32N6xx_HAL_Driver/Src/stm32n6xx_hal_spi.c **** /**
3491:STM32Cube_FW_N6/Drivers/STM32N6xx_HAL_Driver/Src/stm32n6xx_hal_spi.c ****   * @brief  DMA SPI communication error callback.
3492:STM32Cube_FW_N6/Drivers/STM32N6xx_HAL_Driver/Src/stm32n6xx_hal_spi.c ****   * @param  hdma: pointer to a DMA_HandleTypeDef structure that contains
3493:STM32Cube_FW_N6/Drivers/STM32N6xx_HAL_Driver/Src/stm32n6xx_hal_spi.c ****   *               the configuration information for the specified DMA module.
3494:STM32Cube_FW_N6/Drivers/STM32N6xx_HAL_Driver/Src/stm32n6xx_hal_spi.c ****   * @retval None
3495:STM32Cube_FW_N6/Drivers/STM32N6xx_HAL_Driver/Src/stm32n6xx_hal_spi.c ****   */
3496:STM32Cube_FW_N6/Drivers/STM32N6xx_HAL_Driver/Src/stm32n6xx_hal_spi.c **** static void SPI_DMAError(DMA_HandleTypeDef *hdma)
3497:STM32Cube_FW_N6/Drivers/STM32N6xx_HAL_Driver/Src/stm32n6xx_hal_spi.c **** {
 9808              		.loc 1 3497 1
 9809              		.cfi_startproc
 9810              		@ args = 0, pretend = 0, frame = 16
 9811              		@ frame_needed = 1, uses_anonymous_args = 0
 9812 0000 80B5     		push	{r7, lr}
 9813              		.cfi_def_cfa_offset 8
 9814              		.cfi_offset 7, -8
 9815              		.cfi_offset 14, -4
 9816 0002 84B0     		sub	sp, sp, #16
 9817              		.cfi_def_cfa_offset 24
 9818 0004 00AF     		add	r7, sp, #0
 9819              		.cfi_def_cfa_register 7
 9820 0006 7860     		str	r0, [r7, #4]
3498:STM32Cube_FW_N6/Drivers/STM32N6xx_HAL_Driver/Src/stm32n6xx_hal_spi.c ****   SPI_HandleTypeDef *hspi = (SPI_HandleTypeDef *)((DMA_HandleTypeDef *)hdma)->Parent;
 9821              		.loc 1 3498 22
 9822 0008 7B68     		ldr	r3, [r7, #4]
 9823 000a DB6D     		ldr	r3, [r3, #92]
 9824 000c FB60     		str	r3, [r7, #12]
3499:STM32Cube_FW_N6/Drivers/STM32N6xx_HAL_Driver/Src/stm32n6xx_hal_spi.c **** 
3500:STM32Cube_FW_N6/Drivers/STM32N6xx_HAL_Driver/Src/stm32n6xx_hal_spi.c ****   /* if DMA error is FIFO error ignore it */
3501:STM32Cube_FW_N6/Drivers/STM32N6xx_HAL_Driver/Src/stm32n6xx_hal_spi.c ****   if (HAL_DMA_GetError(hdma) != HAL_DMA_ERROR_NONE)
 9825              		.loc 1 3501 7
 9826 000e 7868     		ldr	r0, [r7, #4]
 9827 0010 FFF7FEFF 		bl	HAL_DMA_GetError
 9828 0014 0346     		mov	r3, r0
 9829              		.loc 1 3501 6 discriminator 1
 9830 0016 002B     		cmp	r3, #0
 9831 0018 11D0     		beq	.L453
3502:STM32Cube_FW_N6/Drivers/STM32N6xx_HAL_Driver/Src/stm32n6xx_hal_spi.c ****   {
3503:STM32Cube_FW_N6/Drivers/STM32N6xx_HAL_Driver/Src/stm32n6xx_hal_spi.c ****     /* Call SPI standard close procedure */
3504:STM32Cube_FW_N6/Drivers/STM32N6xx_HAL_Driver/Src/stm32n6xx_hal_spi.c ****     SPI_CloseTransfer(hspi);
 9832              		.loc 1 3504 5
 9833 001a F868     		ldr	r0, [r7, #12]
 9834 001c FFF7FEFF 		bl	SPI_CloseTransfer
3505:STM32Cube_FW_N6/Drivers/STM32N6xx_HAL_Driver/Src/stm32n6xx_hal_spi.c **** 
3506:STM32Cube_FW_N6/Drivers/STM32N6xx_HAL_Driver/Src/stm32n6xx_hal_spi.c ****     SET_BIT(hspi->ErrorCode, HAL_SPI_ERROR_DMA);
 9835              		.loc 1 3506 5
 9836 0020 FB68     		ldr	r3, [r7, #12]
 9837 0022 D3F88C30 		ldr	r3, [r3, #140]
 9838 0026 43F01002 		orr	r2, r3, #16
ARM GAS  /tmp/ccwTXtVb.s 			page 235


 9839 002a FB68     		ldr	r3, [r7, #12]
 9840 002c C3F88C20 		str	r2, [r3, #140]
3507:STM32Cube_FW_N6/Drivers/STM32N6xx_HAL_Driver/Src/stm32n6xx_hal_spi.c ****     hspi->State = HAL_SPI_STATE_READY;
 9841              		.loc 1 3507 17
 9842 0030 FB68     		ldr	r3, [r7, #12]
 9843 0032 0122     		movs	r2, #1
 9844 0034 83F88920 		strb	r2, [r3, #137]
3508:STM32Cube_FW_N6/Drivers/STM32N6xx_HAL_Driver/Src/stm32n6xx_hal_spi.c **** #if (USE_HAL_SPI_REGISTER_CALLBACKS == 1UL)
3509:STM32Cube_FW_N6/Drivers/STM32N6xx_HAL_Driver/Src/stm32n6xx_hal_spi.c ****     hspi->ErrorCallback(hspi);
3510:STM32Cube_FW_N6/Drivers/STM32N6xx_HAL_Driver/Src/stm32n6xx_hal_spi.c **** #else
3511:STM32Cube_FW_N6/Drivers/STM32N6xx_HAL_Driver/Src/stm32n6xx_hal_spi.c ****     HAL_SPI_ErrorCallback(hspi);
 9845              		.loc 1 3511 5
 9846 0038 F868     		ldr	r0, [r7, #12]
 9847 003a FFF7FEFF 		bl	HAL_SPI_ErrorCallback
 9848              	.L453:
3512:STM32Cube_FW_N6/Drivers/STM32N6xx_HAL_Driver/Src/stm32n6xx_hal_spi.c **** #endif /* USE_HAL_SPI_REGISTER_CALLBACKS */
3513:STM32Cube_FW_N6/Drivers/STM32N6xx_HAL_Driver/Src/stm32n6xx_hal_spi.c ****   }
3514:STM32Cube_FW_N6/Drivers/STM32N6xx_HAL_Driver/Src/stm32n6xx_hal_spi.c **** }
 9849              		.loc 1 3514 1
 9850 003e 00BF     		nop
 9851 0040 1037     		adds	r7, r7, #16
 9852              		.cfi_def_cfa_offset 8
 9853 0042 BD46     		mov	sp, r7
 9854              		.cfi_def_cfa_register 13
 9855              		@ sp needed
 9856 0044 80BD     		pop	{r7, pc}
 9857              		.cfi_endproc
 9858              	.LFE871:
 9860              		.section	.text.SPI_DMAAbortOnError,"ax",%progbits
 9861              		.align	1
 9862              		.syntax unified
 9863              		.thumb
 9864              		.thumb_func
 9866              	SPI_DMAAbortOnError:
 9867              	.LFB872:
3515:STM32Cube_FW_N6/Drivers/STM32N6xx_HAL_Driver/Src/stm32n6xx_hal_spi.c **** 
3516:STM32Cube_FW_N6/Drivers/STM32N6xx_HAL_Driver/Src/stm32n6xx_hal_spi.c **** /**
3517:STM32Cube_FW_N6/Drivers/STM32N6xx_HAL_Driver/Src/stm32n6xx_hal_spi.c ****   * @brief  DMA SPI communication abort callback, when initiated by HAL services on Error
3518:STM32Cube_FW_N6/Drivers/STM32N6xx_HAL_Driver/Src/stm32n6xx_hal_spi.c ****   *         (To be called at end of DMA Abort procedure following error occurrence).
3519:STM32Cube_FW_N6/Drivers/STM32N6xx_HAL_Driver/Src/stm32n6xx_hal_spi.c ****   * @param  hdma DMA handle.
3520:STM32Cube_FW_N6/Drivers/STM32N6xx_HAL_Driver/Src/stm32n6xx_hal_spi.c ****   * @retval None
3521:STM32Cube_FW_N6/Drivers/STM32N6xx_HAL_Driver/Src/stm32n6xx_hal_spi.c ****   */
3522:STM32Cube_FW_N6/Drivers/STM32N6xx_HAL_Driver/Src/stm32n6xx_hal_spi.c **** static void SPI_DMAAbortOnError(DMA_HandleTypeDef *hdma)
3523:STM32Cube_FW_N6/Drivers/STM32N6xx_HAL_Driver/Src/stm32n6xx_hal_spi.c **** {
 9868              		.loc 1 3523 1
 9869              		.cfi_startproc
 9870              		@ args = 0, pretend = 0, frame = 16
 9871              		@ frame_needed = 1, uses_anonymous_args = 0
 9872 0000 80B5     		push	{r7, lr}
 9873              		.cfi_def_cfa_offset 8
 9874              		.cfi_offset 7, -8
 9875              		.cfi_offset 14, -4
 9876 0002 84B0     		sub	sp, sp, #16
 9877              		.cfi_def_cfa_offset 24
 9878 0004 00AF     		add	r7, sp, #0
 9879              		.cfi_def_cfa_register 7
 9880 0006 7860     		str	r0, [r7, #4]
ARM GAS  /tmp/ccwTXtVb.s 			page 236


3524:STM32Cube_FW_N6/Drivers/STM32N6xx_HAL_Driver/Src/stm32n6xx_hal_spi.c ****   SPI_HandleTypeDef *hspi = (SPI_HandleTypeDef *)((DMA_HandleTypeDef *)hdma)->Parent;
 9881              		.loc 1 3524 22
 9882 0008 7B68     		ldr	r3, [r7, #4]
 9883 000a DB6D     		ldr	r3, [r3, #92]
 9884 000c FB60     		str	r3, [r7, #12]
3525:STM32Cube_FW_N6/Drivers/STM32N6xx_HAL_Driver/Src/stm32n6xx_hal_spi.c ****   hspi->RxXferCount = (uint16_t) 0UL;
 9885              		.loc 1 3525 21
 9886 000e FB68     		ldr	r3, [r7, #12]
 9887 0010 0022     		movs	r2, #0
 9888 0012 A3F87220 		strh	r2, [r3, #114]	@ movhi
3526:STM32Cube_FW_N6/Drivers/STM32N6xx_HAL_Driver/Src/stm32n6xx_hal_spi.c ****   hspi->TxXferCount = (uint16_t) 0UL;
 9889              		.loc 1 3526 21
 9890 0016 FB68     		ldr	r3, [r7, #12]
 9891 0018 0022     		movs	r2, #0
 9892 001a A3F86A20 		strh	r2, [r3, #106]	@ movhi
3527:STM32Cube_FW_N6/Drivers/STM32N6xx_HAL_Driver/Src/stm32n6xx_hal_spi.c **** 
3528:STM32Cube_FW_N6/Drivers/STM32N6xx_HAL_Driver/Src/stm32n6xx_hal_spi.c ****   /* Restore hspi->State to Ready */
3529:STM32Cube_FW_N6/Drivers/STM32N6xx_HAL_Driver/Src/stm32n6xx_hal_spi.c ****   hspi->State = HAL_SPI_STATE_READY;
 9893              		.loc 1 3529 15
 9894 001e FB68     		ldr	r3, [r7, #12]
 9895 0020 0122     		movs	r2, #1
 9896 0022 83F88920 		strb	r2, [r3, #137]
3530:STM32Cube_FW_N6/Drivers/STM32N6xx_HAL_Driver/Src/stm32n6xx_hal_spi.c **** 
3531:STM32Cube_FW_N6/Drivers/STM32N6xx_HAL_Driver/Src/stm32n6xx_hal_spi.c **** #if (USE_HAL_SPI_REGISTER_CALLBACKS == 1UL)
3532:STM32Cube_FW_N6/Drivers/STM32N6xx_HAL_Driver/Src/stm32n6xx_hal_spi.c ****   hspi->ErrorCallback(hspi);
3533:STM32Cube_FW_N6/Drivers/STM32N6xx_HAL_Driver/Src/stm32n6xx_hal_spi.c **** #else
3534:STM32Cube_FW_N6/Drivers/STM32N6xx_HAL_Driver/Src/stm32n6xx_hal_spi.c ****   HAL_SPI_ErrorCallback(hspi);
 9897              		.loc 1 3534 3
 9898 0026 F868     		ldr	r0, [r7, #12]
 9899 0028 FFF7FEFF 		bl	HAL_SPI_ErrorCallback
3535:STM32Cube_FW_N6/Drivers/STM32N6xx_HAL_Driver/Src/stm32n6xx_hal_spi.c **** #endif /* USE_HAL_SPI_REGISTER_CALLBACKS */
3536:STM32Cube_FW_N6/Drivers/STM32N6xx_HAL_Driver/Src/stm32n6xx_hal_spi.c **** }
 9900              		.loc 1 3536 1
 9901 002c 00BF     		nop
 9902 002e 1037     		adds	r7, r7, #16
 9903              		.cfi_def_cfa_offset 8
 9904 0030 BD46     		mov	sp, r7
 9905              		.cfi_def_cfa_register 13
 9906              		@ sp needed
 9907 0032 80BD     		pop	{r7, pc}
 9908              		.cfi_endproc
 9909              	.LFE872:
 9911              		.section	.text.SPI_DMATxAbortCallback,"ax",%progbits
 9912              		.align	1
 9913              		.syntax unified
 9914              		.thumb
 9915              		.thumb_func
 9917              	SPI_DMATxAbortCallback:
 9918              	.LFB873:
3537:STM32Cube_FW_N6/Drivers/STM32N6xx_HAL_Driver/Src/stm32n6xx_hal_spi.c **** 
3538:STM32Cube_FW_N6/Drivers/STM32N6xx_HAL_Driver/Src/stm32n6xx_hal_spi.c **** /**
3539:STM32Cube_FW_N6/Drivers/STM32N6xx_HAL_Driver/Src/stm32n6xx_hal_spi.c ****   * @brief  DMA SPI Tx communication abort callback, when initiated by user
3540:STM32Cube_FW_N6/Drivers/STM32N6xx_HAL_Driver/Src/stm32n6xx_hal_spi.c ****   *         (To be called at end of DMA Tx Abort procedure following user abort request).
3541:STM32Cube_FW_N6/Drivers/STM32N6xx_HAL_Driver/Src/stm32n6xx_hal_spi.c ****   * @note   When this callback is executed, User Abort complete call back is called only if no
3542:STM32Cube_FW_N6/Drivers/STM32N6xx_HAL_Driver/Src/stm32n6xx_hal_spi.c ****   *         Abort still ongoing for Rx DMA Handle.
3543:STM32Cube_FW_N6/Drivers/STM32N6xx_HAL_Driver/Src/stm32n6xx_hal_spi.c ****   * @param  hdma DMA handle.
3544:STM32Cube_FW_N6/Drivers/STM32N6xx_HAL_Driver/Src/stm32n6xx_hal_spi.c ****   * @retval None
ARM GAS  /tmp/ccwTXtVb.s 			page 237


3545:STM32Cube_FW_N6/Drivers/STM32N6xx_HAL_Driver/Src/stm32n6xx_hal_spi.c ****   */
3546:STM32Cube_FW_N6/Drivers/STM32N6xx_HAL_Driver/Src/stm32n6xx_hal_spi.c **** static void SPI_DMATxAbortCallback(DMA_HandleTypeDef *hdma)
3547:STM32Cube_FW_N6/Drivers/STM32N6xx_HAL_Driver/Src/stm32n6xx_hal_spi.c **** {
 9919              		.loc 1 3547 1
 9920              		.cfi_startproc
 9921              		@ args = 0, pretend = 0, frame = 16
 9922              		@ frame_needed = 1, uses_anonymous_args = 0
 9923 0000 80B5     		push	{r7, lr}
 9924              		.cfi_def_cfa_offset 8
 9925              		.cfi_offset 7, -8
 9926              		.cfi_offset 14, -4
 9927 0002 84B0     		sub	sp, sp, #16
 9928              		.cfi_def_cfa_offset 24
 9929 0004 00AF     		add	r7, sp, #0
 9930              		.cfi_def_cfa_register 7
 9931 0006 7860     		str	r0, [r7, #4]
3548:STM32Cube_FW_N6/Drivers/STM32N6xx_HAL_Driver/Src/stm32n6xx_hal_spi.c ****   SPI_HandleTypeDef *hspi = (SPI_HandleTypeDef *)((DMA_HandleTypeDef *)hdma)->Parent;
 9932              		.loc 1 3548 22
 9933 0008 7B68     		ldr	r3, [r7, #4]
 9934 000a DB6D     		ldr	r3, [r3, #92]
 9935 000c FB60     		str	r3, [r7, #12]
3549:STM32Cube_FW_N6/Drivers/STM32N6xx_HAL_Driver/Src/stm32n6xx_hal_spi.c **** 
3550:STM32Cube_FW_N6/Drivers/STM32N6xx_HAL_Driver/Src/stm32n6xx_hal_spi.c ****   hspi->hdmatx->XferAbortCallback = NULL;
 9936              		.loc 1 3550 7
 9937 000e FB68     		ldr	r3, [r7, #12]
 9938 0010 D3F88030 		ldr	r3, [r3, #128]
 9939              		.loc 1 3550 35
 9940 0014 0022     		movs	r2, #0
 9941 0016 DA66     		str	r2, [r3, #108]
3551:STM32Cube_FW_N6/Drivers/STM32N6xx_HAL_Driver/Src/stm32n6xx_hal_spi.c **** 
3552:STM32Cube_FW_N6/Drivers/STM32N6xx_HAL_Driver/Src/stm32n6xx_hal_spi.c ****   /* Check if an Abort process is still ongoing */
3553:STM32Cube_FW_N6/Drivers/STM32N6xx_HAL_Driver/Src/stm32n6xx_hal_spi.c ****   if (hspi->hdmarx != NULL)
 9942              		.loc 1 3553 11
 9943 0018 FB68     		ldr	r3, [r7, #12]
 9944 001a D3F88430 		ldr	r3, [r3, #132]
 9945              		.loc 1 3553 6
 9946 001e 002B     		cmp	r3, #0
 9947 0020 05D0     		beq	.L456
3554:STM32Cube_FW_N6/Drivers/STM32N6xx_HAL_Driver/Src/stm32n6xx_hal_spi.c ****   {
3555:STM32Cube_FW_N6/Drivers/STM32N6xx_HAL_Driver/Src/stm32n6xx_hal_spi.c ****     if (hspi->hdmarx->XferAbortCallback != NULL)
 9948              		.loc 1 3555 13
 9949 0022 FB68     		ldr	r3, [r7, #12]
 9950 0024 D3F88430 		ldr	r3, [r3, #132]
 9951              		.loc 1 3555 21
 9952 0028 DB6E     		ldr	r3, [r3, #108]
 9953              		.loc 1 3555 8
 9954 002a 002B     		cmp	r3, #0
 9955 002c 0AD1     		bne	.L458
 9956              	.L456:
3556:STM32Cube_FW_N6/Drivers/STM32N6xx_HAL_Driver/Src/stm32n6xx_hal_spi.c ****     {
3557:STM32Cube_FW_N6/Drivers/STM32N6xx_HAL_Driver/Src/stm32n6xx_hal_spi.c ****       return;
3558:STM32Cube_FW_N6/Drivers/STM32N6xx_HAL_Driver/Src/stm32n6xx_hal_spi.c ****     }
3559:STM32Cube_FW_N6/Drivers/STM32N6xx_HAL_Driver/Src/stm32n6xx_hal_spi.c ****   }
3560:STM32Cube_FW_N6/Drivers/STM32N6xx_HAL_Driver/Src/stm32n6xx_hal_spi.c **** 
3561:STM32Cube_FW_N6/Drivers/STM32N6xx_HAL_Driver/Src/stm32n6xx_hal_spi.c ****   /* Call the Abort procedure */
3562:STM32Cube_FW_N6/Drivers/STM32N6xx_HAL_Driver/Src/stm32n6xx_hal_spi.c ****   SPI_AbortTransfer(hspi);
 9957              		.loc 1 3562 3
ARM GAS  /tmp/ccwTXtVb.s 			page 238


 9958 002e F868     		ldr	r0, [r7, #12]
 9959 0030 FFF7FEFF 		bl	SPI_AbortTransfer
3563:STM32Cube_FW_N6/Drivers/STM32N6xx_HAL_Driver/Src/stm32n6xx_hal_spi.c **** 
3564:STM32Cube_FW_N6/Drivers/STM32N6xx_HAL_Driver/Src/stm32n6xx_hal_spi.c ****   /* Restore hspi->State to Ready */
3565:STM32Cube_FW_N6/Drivers/STM32N6xx_HAL_Driver/Src/stm32n6xx_hal_spi.c ****   hspi->State = HAL_SPI_STATE_READY;
 9960              		.loc 1 3565 15
 9961 0034 FB68     		ldr	r3, [r7, #12]
 9962 0036 0122     		movs	r2, #1
 9963 0038 83F88920 		strb	r2, [r3, #137]
3566:STM32Cube_FW_N6/Drivers/STM32N6xx_HAL_Driver/Src/stm32n6xx_hal_spi.c **** 
3567:STM32Cube_FW_N6/Drivers/STM32N6xx_HAL_Driver/Src/stm32n6xx_hal_spi.c ****   /* Call user Abort complete callback */
3568:STM32Cube_FW_N6/Drivers/STM32N6xx_HAL_Driver/Src/stm32n6xx_hal_spi.c **** #if (USE_HAL_SPI_REGISTER_CALLBACKS == 1UL)
3569:STM32Cube_FW_N6/Drivers/STM32N6xx_HAL_Driver/Src/stm32n6xx_hal_spi.c ****   hspi->AbortCpltCallback(hspi);
3570:STM32Cube_FW_N6/Drivers/STM32N6xx_HAL_Driver/Src/stm32n6xx_hal_spi.c **** #else
3571:STM32Cube_FW_N6/Drivers/STM32N6xx_HAL_Driver/Src/stm32n6xx_hal_spi.c ****   HAL_SPI_AbortCpltCallback(hspi);
 9964              		.loc 1 3571 3
 9965 003c F868     		ldr	r0, [r7, #12]
 9966 003e FFF7FEFF 		bl	HAL_SPI_AbortCpltCallback
 9967 0042 00E0     		b	.L455
 9968              	.L458:
3557:STM32Cube_FW_N6/Drivers/STM32N6xx_HAL_Driver/Src/stm32n6xx_hal_spi.c ****     }
 9969              		.loc 1 3557 7
 9970 0044 00BF     		nop
 9971              	.L455:
3572:STM32Cube_FW_N6/Drivers/STM32N6xx_HAL_Driver/Src/stm32n6xx_hal_spi.c **** #endif /* USE_HAL_SPI_REGISTER_CALLBACKS */
3573:STM32Cube_FW_N6/Drivers/STM32N6xx_HAL_Driver/Src/stm32n6xx_hal_spi.c **** }
 9972              		.loc 1 3573 1
 9973 0046 1037     		adds	r7, r7, #16
 9974              		.cfi_def_cfa_offset 8
 9975 0048 BD46     		mov	sp, r7
 9976              		.cfi_def_cfa_register 13
 9977              		@ sp needed
 9978 004a 80BD     		pop	{r7, pc}
 9979              		.cfi_endproc
 9980              	.LFE873:
 9982              		.section	.text.SPI_DMARxAbortCallback,"ax",%progbits
 9983              		.align	1
 9984              		.syntax unified
 9985              		.thumb
 9986              		.thumb_func
 9988              	SPI_DMARxAbortCallback:
 9989              	.LFB874:
3574:STM32Cube_FW_N6/Drivers/STM32N6xx_HAL_Driver/Src/stm32n6xx_hal_spi.c **** 
3575:STM32Cube_FW_N6/Drivers/STM32N6xx_HAL_Driver/Src/stm32n6xx_hal_spi.c **** /**
3576:STM32Cube_FW_N6/Drivers/STM32N6xx_HAL_Driver/Src/stm32n6xx_hal_spi.c ****   * @brief  DMA SPI Rx communication abort callback, when initiated by user
3577:STM32Cube_FW_N6/Drivers/STM32N6xx_HAL_Driver/Src/stm32n6xx_hal_spi.c ****   *         (To be called at end of DMA Rx Abort procedure following user abort request).
3578:STM32Cube_FW_N6/Drivers/STM32N6xx_HAL_Driver/Src/stm32n6xx_hal_spi.c ****   * @note   When this callback is executed, User Abort complete call back is called only if no
3579:STM32Cube_FW_N6/Drivers/STM32N6xx_HAL_Driver/Src/stm32n6xx_hal_spi.c ****   *         Abort still ongoing for Tx DMA Handle.
3580:STM32Cube_FW_N6/Drivers/STM32N6xx_HAL_Driver/Src/stm32n6xx_hal_spi.c ****   * @param  hdma DMA handle.
3581:STM32Cube_FW_N6/Drivers/STM32N6xx_HAL_Driver/Src/stm32n6xx_hal_spi.c ****   * @retval None
3582:STM32Cube_FW_N6/Drivers/STM32N6xx_HAL_Driver/Src/stm32n6xx_hal_spi.c ****   */
3583:STM32Cube_FW_N6/Drivers/STM32N6xx_HAL_Driver/Src/stm32n6xx_hal_spi.c **** static void SPI_DMARxAbortCallback(DMA_HandleTypeDef *hdma)
3584:STM32Cube_FW_N6/Drivers/STM32N6xx_HAL_Driver/Src/stm32n6xx_hal_spi.c **** {
 9990              		.loc 1 3584 1
 9991              		.cfi_startproc
 9992              		@ args = 0, pretend = 0, frame = 16
 9993              		@ frame_needed = 1, uses_anonymous_args = 0
ARM GAS  /tmp/ccwTXtVb.s 			page 239


 9994 0000 80B5     		push	{r7, lr}
 9995              		.cfi_def_cfa_offset 8
 9996              		.cfi_offset 7, -8
 9997              		.cfi_offset 14, -4
 9998 0002 84B0     		sub	sp, sp, #16
 9999              		.cfi_def_cfa_offset 24
 10000 0004 00AF     		add	r7, sp, #0
 10001              		.cfi_def_cfa_register 7
 10002 0006 7860     		str	r0, [r7, #4]
3585:STM32Cube_FW_N6/Drivers/STM32N6xx_HAL_Driver/Src/stm32n6xx_hal_spi.c ****   SPI_HandleTypeDef *hspi = (SPI_HandleTypeDef *)((DMA_HandleTypeDef *)hdma)->Parent;
 10003              		.loc 1 3585 22
 10004 0008 7B68     		ldr	r3, [r7, #4]
 10005 000a DB6D     		ldr	r3, [r3, #92]
 10006 000c FB60     		str	r3, [r7, #12]
3586:STM32Cube_FW_N6/Drivers/STM32N6xx_HAL_Driver/Src/stm32n6xx_hal_spi.c **** 
3587:STM32Cube_FW_N6/Drivers/STM32N6xx_HAL_Driver/Src/stm32n6xx_hal_spi.c ****   hspi->hdmarx->XferAbortCallback = NULL;
 10007              		.loc 1 3587 7
 10008 000e FB68     		ldr	r3, [r7, #12]
 10009 0010 D3F88430 		ldr	r3, [r3, #132]
 10010              		.loc 1 3587 35
 10011 0014 0022     		movs	r2, #0
 10012 0016 DA66     		str	r2, [r3, #108]
3588:STM32Cube_FW_N6/Drivers/STM32N6xx_HAL_Driver/Src/stm32n6xx_hal_spi.c **** 
3589:STM32Cube_FW_N6/Drivers/STM32N6xx_HAL_Driver/Src/stm32n6xx_hal_spi.c ****   /* Check if an Abort process is still ongoing */
3590:STM32Cube_FW_N6/Drivers/STM32N6xx_HAL_Driver/Src/stm32n6xx_hal_spi.c ****   if (hspi->hdmatx != NULL)
 10013              		.loc 1 3590 11
 10014 0018 FB68     		ldr	r3, [r7, #12]
 10015 001a D3F88030 		ldr	r3, [r3, #128]
 10016              		.loc 1 3590 6
 10017 001e 002B     		cmp	r3, #0
 10018 0020 05D0     		beq	.L460
3591:STM32Cube_FW_N6/Drivers/STM32N6xx_HAL_Driver/Src/stm32n6xx_hal_spi.c ****   {
3592:STM32Cube_FW_N6/Drivers/STM32N6xx_HAL_Driver/Src/stm32n6xx_hal_spi.c ****     if (hspi->hdmatx->XferAbortCallback != NULL)
 10019              		.loc 1 3592 13
 10020 0022 FB68     		ldr	r3, [r7, #12]
 10021 0024 D3F88030 		ldr	r3, [r3, #128]
 10022              		.loc 1 3592 21
 10023 0028 DB6E     		ldr	r3, [r3, #108]
 10024              		.loc 1 3592 8
 10025 002a 002B     		cmp	r3, #0
 10026 002c 0AD1     		bne	.L462
 10027              	.L460:
3593:STM32Cube_FW_N6/Drivers/STM32N6xx_HAL_Driver/Src/stm32n6xx_hal_spi.c ****     {
3594:STM32Cube_FW_N6/Drivers/STM32N6xx_HAL_Driver/Src/stm32n6xx_hal_spi.c ****       return;
3595:STM32Cube_FW_N6/Drivers/STM32N6xx_HAL_Driver/Src/stm32n6xx_hal_spi.c ****     }
3596:STM32Cube_FW_N6/Drivers/STM32N6xx_HAL_Driver/Src/stm32n6xx_hal_spi.c ****   }
3597:STM32Cube_FW_N6/Drivers/STM32N6xx_HAL_Driver/Src/stm32n6xx_hal_spi.c **** 
3598:STM32Cube_FW_N6/Drivers/STM32N6xx_HAL_Driver/Src/stm32n6xx_hal_spi.c ****   /* Call the Abort procedure */
3599:STM32Cube_FW_N6/Drivers/STM32N6xx_HAL_Driver/Src/stm32n6xx_hal_spi.c ****   SPI_AbortTransfer(hspi);
 10028              		.loc 1 3599 3
 10029 002e F868     		ldr	r0, [r7, #12]
 10030 0030 FFF7FEFF 		bl	SPI_AbortTransfer
3600:STM32Cube_FW_N6/Drivers/STM32N6xx_HAL_Driver/Src/stm32n6xx_hal_spi.c **** 
3601:STM32Cube_FW_N6/Drivers/STM32N6xx_HAL_Driver/Src/stm32n6xx_hal_spi.c ****   /* Restore hspi->State to Ready */
3602:STM32Cube_FW_N6/Drivers/STM32N6xx_HAL_Driver/Src/stm32n6xx_hal_spi.c ****   hspi->State = HAL_SPI_STATE_READY;
 10031              		.loc 1 3602 15
 10032 0034 FB68     		ldr	r3, [r7, #12]
ARM GAS  /tmp/ccwTXtVb.s 			page 240


 10033 0036 0122     		movs	r2, #1
 10034 0038 83F88920 		strb	r2, [r3, #137]
3603:STM32Cube_FW_N6/Drivers/STM32N6xx_HAL_Driver/Src/stm32n6xx_hal_spi.c **** 
3604:STM32Cube_FW_N6/Drivers/STM32N6xx_HAL_Driver/Src/stm32n6xx_hal_spi.c ****   /* Call user Abort complete callback */
3605:STM32Cube_FW_N6/Drivers/STM32N6xx_HAL_Driver/Src/stm32n6xx_hal_spi.c **** #if (USE_HAL_SPI_REGISTER_CALLBACKS == 1UL)
3606:STM32Cube_FW_N6/Drivers/STM32N6xx_HAL_Driver/Src/stm32n6xx_hal_spi.c ****   hspi->AbortCpltCallback(hspi);
3607:STM32Cube_FW_N6/Drivers/STM32N6xx_HAL_Driver/Src/stm32n6xx_hal_spi.c **** #else
3608:STM32Cube_FW_N6/Drivers/STM32N6xx_HAL_Driver/Src/stm32n6xx_hal_spi.c ****   HAL_SPI_AbortCpltCallback(hspi);
 10035              		.loc 1 3608 3
 10036 003c F868     		ldr	r0, [r7, #12]
 10037 003e FFF7FEFF 		bl	HAL_SPI_AbortCpltCallback
 10038 0042 00E0     		b	.L459
 10039              	.L462:
3594:STM32Cube_FW_N6/Drivers/STM32N6xx_HAL_Driver/Src/stm32n6xx_hal_spi.c ****     }
 10040              		.loc 1 3594 7
 10041 0044 00BF     		nop
 10042              	.L459:
3609:STM32Cube_FW_N6/Drivers/STM32N6xx_HAL_Driver/Src/stm32n6xx_hal_spi.c **** #endif /* USE_HAL_SPI_REGISTER_CALLBACKS */
3610:STM32Cube_FW_N6/Drivers/STM32N6xx_HAL_Driver/Src/stm32n6xx_hal_spi.c **** }
 10043              		.loc 1 3610 1
 10044 0046 1037     		adds	r7, r7, #16
 10045              		.cfi_def_cfa_offset 8
 10046 0048 BD46     		mov	sp, r7
 10047              		.cfi_def_cfa_register 13
 10048              		@ sp needed
 10049 004a 80BD     		pop	{r7, pc}
 10050              		.cfi_endproc
 10051              	.LFE874:
 10053              		.section	.text.SPI_RxISR_8BIT,"ax",%progbits
 10054              		.align	1
 10055              		.syntax unified
 10056              		.thumb
 10057              		.thumb_func
 10059              	SPI_RxISR_8BIT:
 10060              	.LFB875:
3611:STM32Cube_FW_N6/Drivers/STM32N6xx_HAL_Driver/Src/stm32n6xx_hal_spi.c **** 
3612:STM32Cube_FW_N6/Drivers/STM32N6xx_HAL_Driver/Src/stm32n6xx_hal_spi.c **** /**
3613:STM32Cube_FW_N6/Drivers/STM32N6xx_HAL_Driver/Src/stm32n6xx_hal_spi.c ****   * @brief  Manage the receive 8-bit in Interrupt context.
3614:STM32Cube_FW_N6/Drivers/STM32N6xx_HAL_Driver/Src/stm32n6xx_hal_spi.c ****   * @param  hspi: pointer to a SPI_HandleTypeDef structure that contains
3615:STM32Cube_FW_N6/Drivers/STM32N6xx_HAL_Driver/Src/stm32n6xx_hal_spi.c ****   *               the configuration information for SPI module.
3616:STM32Cube_FW_N6/Drivers/STM32N6xx_HAL_Driver/Src/stm32n6xx_hal_spi.c ****   * @retval None
3617:STM32Cube_FW_N6/Drivers/STM32N6xx_HAL_Driver/Src/stm32n6xx_hal_spi.c ****   */
3618:STM32Cube_FW_N6/Drivers/STM32N6xx_HAL_Driver/Src/stm32n6xx_hal_spi.c **** static void SPI_RxISR_8BIT(SPI_HandleTypeDef *hspi)
3619:STM32Cube_FW_N6/Drivers/STM32N6xx_HAL_Driver/Src/stm32n6xx_hal_spi.c **** {
 10061              		.loc 1 3619 1
 10062              		.cfi_startproc
 10063              		@ args = 0, pretend = 0, frame = 8
 10064              		@ frame_needed = 1, uses_anonymous_args = 0
 10065              		@ link register save eliminated.
 10066 0000 80B4     		push	{r7}
 10067              		.cfi_def_cfa_offset 4
 10068              		.cfi_offset 7, -4
 10069 0002 83B0     		sub	sp, sp, #12
 10070              		.cfi_def_cfa_offset 16
 10071 0004 00AF     		add	r7, sp, #0
 10072              		.cfi_def_cfa_register 7
 10073 0006 7860     		str	r0, [r7, #4]
ARM GAS  /tmp/ccwTXtVb.s 			page 241


3620:STM32Cube_FW_N6/Drivers/STM32N6xx_HAL_Driver/Src/stm32n6xx_hal_spi.c ****   /* Receive data in 8 Bit mode */
3621:STM32Cube_FW_N6/Drivers/STM32N6xx_HAL_Driver/Src/stm32n6xx_hal_spi.c ****   *((uint8_t *)hspi->pRxBuffPtr) = (*(__IO uint8_t *)&hspi->Instance->RXDR);
 10074              		.loc 1 3621 59
 10075 0008 7B68     		ldr	r3, [r7, #4]
 10076 000a 1B68     		ldr	r3, [r3]
 10077              		.loc 1 3621 54
 10078 000c 03F13002 		add	r2, r3, #48
 10079              		.loc 1 3621 20
 10080 0010 7B68     		ldr	r3, [r7, #4]
 10081 0012 DB6E     		ldr	r3, [r3, #108]
 10082              		.loc 1 3621 37
 10083 0014 1278     		ldrb	r2, [r2]
 10084 0016 D2B2     		uxtb	r2, r2
 10085              		.loc 1 3621 34
 10086 0018 1A70     		strb	r2, [r3]
3622:STM32Cube_FW_N6/Drivers/STM32N6xx_HAL_Driver/Src/stm32n6xx_hal_spi.c ****   hspi->pRxBuffPtr += sizeof(uint8_t);
 10087              		.loc 1 3622 7
 10088 001a 7B68     		ldr	r3, [r7, #4]
 10089 001c DB6E     		ldr	r3, [r3, #108]
 10090              		.loc 1 3622 20
 10091 001e 5A1C     		adds	r2, r3, #1
 10092 0020 7B68     		ldr	r3, [r7, #4]
 10093 0022 DA66     		str	r2, [r3, #108]
3623:STM32Cube_FW_N6/Drivers/STM32N6xx_HAL_Driver/Src/stm32n6xx_hal_spi.c ****   hspi->RxXferCount--;
 10094              		.loc 1 3623 7
 10095 0024 7B68     		ldr	r3, [r7, #4]
 10096 0026 B3F87230 		ldrh	r3, [r3, #114]	@ movhi
 10097 002a 9BB2     		uxth	r3, r3
 10098              		.loc 1 3623 20
 10099 002c 013B     		subs	r3, r3, #1
 10100 002e 9AB2     		uxth	r2, r3
 10101 0030 7B68     		ldr	r3, [r7, #4]
 10102 0032 A3F87220 		strh	r2, [r3, #114]	@ movhi
3624:STM32Cube_FW_N6/Drivers/STM32N6xx_HAL_Driver/Src/stm32n6xx_hal_spi.c **** 
3625:STM32Cube_FW_N6/Drivers/STM32N6xx_HAL_Driver/Src/stm32n6xx_hal_spi.c ****   /* Disable IT if no more data excepted */
3626:STM32Cube_FW_N6/Drivers/STM32N6xx_HAL_Driver/Src/stm32n6xx_hal_spi.c ****   if (hspi->RxXferCount == 0UL)
 10103              		.loc 1 3626 11
 10104 0036 7B68     		ldr	r3, [r7, #4]
 10105 0038 B3F87230 		ldrh	r3, [r3, #114]	@ movhi
 10106 003c 9BB2     		uxth	r3, r3
 10107              		.loc 1 3626 6
 10108 003e 002B     		cmp	r3, #0
 10109 0040 07D1     		bne	.L465
3627:STM32Cube_FW_N6/Drivers/STM32N6xx_HAL_Driver/Src/stm32n6xx_hal_spi.c ****   {
3628:STM32Cube_FW_N6/Drivers/STM32N6xx_HAL_Driver/Src/stm32n6xx_hal_spi.c ****     /* Disable RXP interrupts */
3629:STM32Cube_FW_N6/Drivers/STM32N6xx_HAL_Driver/Src/stm32n6xx_hal_spi.c ****     __HAL_SPI_DISABLE_IT(hspi, SPI_IT_RXP);
 10110              		.loc 1 3629 5
 10111 0042 7B68     		ldr	r3, [r7, #4]
 10112 0044 1B68     		ldr	r3, [r3]
 10113 0046 1A69     		ldr	r2, [r3, #16]
 10114 0048 7B68     		ldr	r3, [r7, #4]
 10115 004a 1B68     		ldr	r3, [r3]
 10116 004c 22F00102 		bic	r2, r2, #1
 10117 0050 1A61     		str	r2, [r3, #16]
 10118              	.L465:
3630:STM32Cube_FW_N6/Drivers/STM32N6xx_HAL_Driver/Src/stm32n6xx_hal_spi.c ****   }
3631:STM32Cube_FW_N6/Drivers/STM32N6xx_HAL_Driver/Src/stm32n6xx_hal_spi.c **** }
ARM GAS  /tmp/ccwTXtVb.s 			page 242


 10119              		.loc 1 3631 1
 10120 0052 00BF     		nop
 10121 0054 0C37     		adds	r7, r7, #12
 10122              		.cfi_def_cfa_offset 4
 10123 0056 BD46     		mov	sp, r7
 10124              		.cfi_def_cfa_register 13
 10125              		@ sp needed
 10126 0058 5DF8047B 		ldr	r7, [sp], #4
 10127              		.cfi_restore 7
 10128              		.cfi_def_cfa_offset 0
 10129 005c 7047     		bx	lr
 10130              		.cfi_endproc
 10131              	.LFE875:
 10133              		.section	.text.SPI_RxISR_16BIT,"ax",%progbits
 10134              		.align	1
 10135              		.syntax unified
 10136              		.thumb
 10137              		.thumb_func
 10139              	SPI_RxISR_16BIT:
 10140              	.LFB876:
3632:STM32Cube_FW_N6/Drivers/STM32N6xx_HAL_Driver/Src/stm32n6xx_hal_spi.c **** 
3633:STM32Cube_FW_N6/Drivers/STM32N6xx_HAL_Driver/Src/stm32n6xx_hal_spi.c **** 
3634:STM32Cube_FW_N6/Drivers/STM32N6xx_HAL_Driver/Src/stm32n6xx_hal_spi.c **** /**
3635:STM32Cube_FW_N6/Drivers/STM32N6xx_HAL_Driver/Src/stm32n6xx_hal_spi.c ****   * @brief  Manage the 16-bit receive in Interrupt context.
3636:STM32Cube_FW_N6/Drivers/STM32N6xx_HAL_Driver/Src/stm32n6xx_hal_spi.c ****   * @param  hspi: pointer to a SPI_HandleTypeDef structure that contains
3637:STM32Cube_FW_N6/Drivers/STM32N6xx_HAL_Driver/Src/stm32n6xx_hal_spi.c ****   *               the configuration information for SPI module.
3638:STM32Cube_FW_N6/Drivers/STM32N6xx_HAL_Driver/Src/stm32n6xx_hal_spi.c ****   * @retval None
3639:STM32Cube_FW_N6/Drivers/STM32N6xx_HAL_Driver/Src/stm32n6xx_hal_spi.c ****   */
3640:STM32Cube_FW_N6/Drivers/STM32N6xx_HAL_Driver/Src/stm32n6xx_hal_spi.c **** static void SPI_RxISR_16BIT(SPI_HandleTypeDef *hspi)
3641:STM32Cube_FW_N6/Drivers/STM32N6xx_HAL_Driver/Src/stm32n6xx_hal_spi.c **** {
 10141              		.loc 1 3641 1
 10142              		.cfi_startproc
 10143              		@ args = 0, pretend = 0, frame = 16
 10144              		@ frame_needed = 1, uses_anonymous_args = 0
 10145              		@ link register save eliminated.
 10146 0000 80B4     		push	{r7}
 10147              		.cfi_def_cfa_offset 4
 10148              		.cfi_offset 7, -4
 10149 0002 85B0     		sub	sp, sp, #20
 10150              		.cfi_def_cfa_offset 24
 10151 0004 00AF     		add	r7, sp, #0
 10152              		.cfi_def_cfa_register 7
 10153 0006 7860     		str	r0, [r7, #4]
3642:STM32Cube_FW_N6/Drivers/STM32N6xx_HAL_Driver/Src/stm32n6xx_hal_spi.c ****   /* Receive data in 16 Bit mode */
3643:STM32Cube_FW_N6/Drivers/STM32N6xx_HAL_Driver/Src/stm32n6xx_hal_spi.c **** #if defined (__GNUC__)
3644:STM32Cube_FW_N6/Drivers/STM32N6xx_HAL_Driver/Src/stm32n6xx_hal_spi.c ****   __IO uint16_t *prxdr_16bits = (__IO uint16_t *)(&(hspi->Instance->RXDR));
 10154              		.loc 1 3644 57
 10155 0008 7B68     		ldr	r3, [r7, #4]
 10156 000a 1B68     		ldr	r3, [r3]
 10157              		.loc 1 3644 18
 10158 000c 3033     		adds	r3, r3, #48
 10159 000e FB60     		str	r3, [r7, #12]
3645:STM32Cube_FW_N6/Drivers/STM32N6xx_HAL_Driver/Src/stm32n6xx_hal_spi.c **** 
3646:STM32Cube_FW_N6/Drivers/STM32N6xx_HAL_Driver/Src/stm32n6xx_hal_spi.c ****   *((uint16_t *)hspi->pRxBuffPtr) = *prxdr_16bits;
 10160              		.loc 1 3646 21
 10161 0010 7B68     		ldr	r3, [r7, #4]
 10162 0012 DB6E     		ldr	r3, [r3, #108]
ARM GAS  /tmp/ccwTXtVb.s 			page 243


 10163              		.loc 1 3646 37
 10164 0014 FA68     		ldr	r2, [r7, #12]
 10165 0016 1288     		ldrh	r2, [r2]	@ movhi
 10166 0018 92B2     		uxth	r2, r2
 10167              		.loc 1 3646 35
 10168 001a 1A80     		strh	r2, [r3]	@ movhi
3647:STM32Cube_FW_N6/Drivers/STM32N6xx_HAL_Driver/Src/stm32n6xx_hal_spi.c **** #else
3648:STM32Cube_FW_N6/Drivers/STM32N6xx_HAL_Driver/Src/stm32n6xx_hal_spi.c ****   *((uint16_t *)hspi->pRxBuffPtr) = (*(__IO uint16_t *)&hspi->Instance->RXDR);
3649:STM32Cube_FW_N6/Drivers/STM32N6xx_HAL_Driver/Src/stm32n6xx_hal_spi.c **** #endif /* __GNUC__ */
3650:STM32Cube_FW_N6/Drivers/STM32N6xx_HAL_Driver/Src/stm32n6xx_hal_spi.c ****   hspi->pRxBuffPtr += sizeof(uint16_t);
 10169              		.loc 1 3650 7
 10170 001c 7B68     		ldr	r3, [r7, #4]
 10171 001e DB6E     		ldr	r3, [r3, #108]
 10172              		.loc 1 3650 20
 10173 0020 9A1C     		adds	r2, r3, #2
 10174 0022 7B68     		ldr	r3, [r7, #4]
 10175 0024 DA66     		str	r2, [r3, #108]
3651:STM32Cube_FW_N6/Drivers/STM32N6xx_HAL_Driver/Src/stm32n6xx_hal_spi.c ****   hspi->RxXferCount--;
 10176              		.loc 1 3651 7
 10177 0026 7B68     		ldr	r3, [r7, #4]
 10178 0028 B3F87230 		ldrh	r3, [r3, #114]	@ movhi
 10179 002c 9BB2     		uxth	r3, r3
 10180              		.loc 1 3651 20
 10181 002e 013B     		subs	r3, r3, #1
 10182 0030 9AB2     		uxth	r2, r3
 10183 0032 7B68     		ldr	r3, [r7, #4]
 10184 0034 A3F87220 		strh	r2, [r3, #114]	@ movhi
3652:STM32Cube_FW_N6/Drivers/STM32N6xx_HAL_Driver/Src/stm32n6xx_hal_spi.c **** 
3653:STM32Cube_FW_N6/Drivers/STM32N6xx_HAL_Driver/Src/stm32n6xx_hal_spi.c ****   /* Disable IT if no more data excepted */
3654:STM32Cube_FW_N6/Drivers/STM32N6xx_HAL_Driver/Src/stm32n6xx_hal_spi.c ****   if (hspi->RxXferCount == 0UL)
 10185              		.loc 1 3654 11
 10186 0038 7B68     		ldr	r3, [r7, #4]
 10187 003a B3F87230 		ldrh	r3, [r3, #114]	@ movhi
 10188 003e 9BB2     		uxth	r3, r3
 10189              		.loc 1 3654 6
 10190 0040 002B     		cmp	r3, #0
 10191 0042 07D1     		bne	.L468
3655:STM32Cube_FW_N6/Drivers/STM32N6xx_HAL_Driver/Src/stm32n6xx_hal_spi.c ****   {
3656:STM32Cube_FW_N6/Drivers/STM32N6xx_HAL_Driver/Src/stm32n6xx_hal_spi.c ****     /* Disable RXP interrupts */
3657:STM32Cube_FW_N6/Drivers/STM32N6xx_HAL_Driver/Src/stm32n6xx_hal_spi.c ****     __HAL_SPI_DISABLE_IT(hspi, SPI_IT_RXP);
 10192              		.loc 1 3657 5
 10193 0044 7B68     		ldr	r3, [r7, #4]
 10194 0046 1B68     		ldr	r3, [r3]
 10195 0048 1A69     		ldr	r2, [r3, #16]
 10196 004a 7B68     		ldr	r3, [r7, #4]
 10197 004c 1B68     		ldr	r3, [r3]
 10198 004e 22F00102 		bic	r2, r2, #1
 10199 0052 1A61     		str	r2, [r3, #16]
 10200              	.L468:
3658:STM32Cube_FW_N6/Drivers/STM32N6xx_HAL_Driver/Src/stm32n6xx_hal_spi.c ****   }
3659:STM32Cube_FW_N6/Drivers/STM32N6xx_HAL_Driver/Src/stm32n6xx_hal_spi.c **** }
 10201              		.loc 1 3659 1
 10202 0054 00BF     		nop
 10203 0056 1437     		adds	r7, r7, #20
 10204              		.cfi_def_cfa_offset 4
 10205 0058 BD46     		mov	sp, r7
 10206              		.cfi_def_cfa_register 13
ARM GAS  /tmp/ccwTXtVb.s 			page 244


 10207              		@ sp needed
 10208 005a 5DF8047B 		ldr	r7, [sp], #4
 10209              		.cfi_restore 7
 10210              		.cfi_def_cfa_offset 0
 10211 005e 7047     		bx	lr
 10212              		.cfi_endproc
 10213              	.LFE876:
 10215              		.section	.text.SPI_RxISR_32BIT,"ax",%progbits
 10216              		.align	1
 10217              		.syntax unified
 10218              		.thumb
 10219              		.thumb_func
 10221              	SPI_RxISR_32BIT:
 10222              	.LFB877:
3660:STM32Cube_FW_N6/Drivers/STM32N6xx_HAL_Driver/Src/stm32n6xx_hal_spi.c **** 
3661:STM32Cube_FW_N6/Drivers/STM32N6xx_HAL_Driver/Src/stm32n6xx_hal_spi.c **** 
3662:STM32Cube_FW_N6/Drivers/STM32N6xx_HAL_Driver/Src/stm32n6xx_hal_spi.c **** /**
3663:STM32Cube_FW_N6/Drivers/STM32N6xx_HAL_Driver/Src/stm32n6xx_hal_spi.c ****   * @brief  Manage the 32-bit receive in Interrupt context.
3664:STM32Cube_FW_N6/Drivers/STM32N6xx_HAL_Driver/Src/stm32n6xx_hal_spi.c ****   * @param  hspi: pointer to a SPI_HandleTypeDef structure that contains
3665:STM32Cube_FW_N6/Drivers/STM32N6xx_HAL_Driver/Src/stm32n6xx_hal_spi.c ****   *               the configuration information for SPI module.
3666:STM32Cube_FW_N6/Drivers/STM32N6xx_HAL_Driver/Src/stm32n6xx_hal_spi.c ****   * @retval None
3667:STM32Cube_FW_N6/Drivers/STM32N6xx_HAL_Driver/Src/stm32n6xx_hal_spi.c ****   */
3668:STM32Cube_FW_N6/Drivers/STM32N6xx_HAL_Driver/Src/stm32n6xx_hal_spi.c **** static void SPI_RxISR_32BIT(SPI_HandleTypeDef *hspi)
3669:STM32Cube_FW_N6/Drivers/STM32N6xx_HAL_Driver/Src/stm32n6xx_hal_spi.c **** {
 10223              		.loc 1 3669 1
 10224              		.cfi_startproc
 10225              		@ args = 0, pretend = 0, frame = 8
 10226              		@ frame_needed = 1, uses_anonymous_args = 0
 10227              		@ link register save eliminated.
 10228 0000 80B4     		push	{r7}
 10229              		.cfi_def_cfa_offset 4
 10230              		.cfi_offset 7, -4
 10231 0002 83B0     		sub	sp, sp, #12
 10232              		.cfi_def_cfa_offset 16
 10233 0004 00AF     		add	r7, sp, #0
 10234              		.cfi_def_cfa_register 7
 10235 0006 7860     		str	r0, [r7, #4]
3670:STM32Cube_FW_N6/Drivers/STM32N6xx_HAL_Driver/Src/stm32n6xx_hal_spi.c ****   /* Receive data in 32 Bit mode */
3671:STM32Cube_FW_N6/Drivers/STM32N6xx_HAL_Driver/Src/stm32n6xx_hal_spi.c ****   *((uint32_t *)hspi->pRxBuffPtr) = (*(__IO uint32_t *)&hspi->Instance->RXDR);
 10236              		.loc 1 3671 61
 10237 0008 7B68     		ldr	r3, [r7, #4]
 10238 000a 1A68     		ldr	r2, [r3]
 10239              		.loc 1 3671 21
 10240 000c 7B68     		ldr	r3, [r7, #4]
 10241 000e DB6E     		ldr	r3, [r3, #108]
 10242              		.loc 1 3671 38
 10243 0010 126B     		ldr	r2, [r2, #48]
 10244              		.loc 1 3671 35
 10245 0012 1A60     		str	r2, [r3]
3672:STM32Cube_FW_N6/Drivers/STM32N6xx_HAL_Driver/Src/stm32n6xx_hal_spi.c ****   hspi->pRxBuffPtr += sizeof(uint32_t);
 10246              		.loc 1 3672 7
 10247 0014 7B68     		ldr	r3, [r7, #4]
 10248 0016 DB6E     		ldr	r3, [r3, #108]
 10249              		.loc 1 3672 20
 10250 0018 1A1D     		adds	r2, r3, #4
 10251 001a 7B68     		ldr	r3, [r7, #4]
 10252 001c DA66     		str	r2, [r3, #108]
ARM GAS  /tmp/ccwTXtVb.s 			page 245


3673:STM32Cube_FW_N6/Drivers/STM32N6xx_HAL_Driver/Src/stm32n6xx_hal_spi.c ****   hspi->RxXferCount--;
 10253              		.loc 1 3673 7
 10254 001e 7B68     		ldr	r3, [r7, #4]
 10255 0020 B3F87230 		ldrh	r3, [r3, #114]	@ movhi
 10256 0024 9BB2     		uxth	r3, r3
 10257              		.loc 1 3673 20
 10258 0026 013B     		subs	r3, r3, #1
 10259 0028 9AB2     		uxth	r2, r3
 10260 002a 7B68     		ldr	r3, [r7, #4]
 10261 002c A3F87220 		strh	r2, [r3, #114]	@ movhi
3674:STM32Cube_FW_N6/Drivers/STM32N6xx_HAL_Driver/Src/stm32n6xx_hal_spi.c **** 
3675:STM32Cube_FW_N6/Drivers/STM32N6xx_HAL_Driver/Src/stm32n6xx_hal_spi.c ****   /* Disable IT if no more data excepted */
3676:STM32Cube_FW_N6/Drivers/STM32N6xx_HAL_Driver/Src/stm32n6xx_hal_spi.c ****   if (hspi->RxXferCount == 0UL)
 10262              		.loc 1 3676 11
 10263 0030 7B68     		ldr	r3, [r7, #4]
 10264 0032 B3F87230 		ldrh	r3, [r3, #114]	@ movhi
 10265 0036 9BB2     		uxth	r3, r3
 10266              		.loc 1 3676 6
 10267 0038 002B     		cmp	r3, #0
 10268 003a 07D1     		bne	.L471
3677:STM32Cube_FW_N6/Drivers/STM32N6xx_HAL_Driver/Src/stm32n6xx_hal_spi.c ****   {
3678:STM32Cube_FW_N6/Drivers/STM32N6xx_HAL_Driver/Src/stm32n6xx_hal_spi.c ****     /* Disable RXP interrupts */
3679:STM32Cube_FW_N6/Drivers/STM32N6xx_HAL_Driver/Src/stm32n6xx_hal_spi.c ****     __HAL_SPI_DISABLE_IT(hspi, SPI_IT_RXP);
 10269              		.loc 1 3679 5
 10270 003c 7B68     		ldr	r3, [r7, #4]
 10271 003e 1B68     		ldr	r3, [r3]
 10272 0040 1A69     		ldr	r2, [r3, #16]
 10273 0042 7B68     		ldr	r3, [r7, #4]
 10274 0044 1B68     		ldr	r3, [r3]
 10275 0046 22F00102 		bic	r2, r2, #1
 10276 004a 1A61     		str	r2, [r3, #16]
 10277              	.L471:
3680:STM32Cube_FW_N6/Drivers/STM32N6xx_HAL_Driver/Src/stm32n6xx_hal_spi.c ****   }
3681:STM32Cube_FW_N6/Drivers/STM32N6xx_HAL_Driver/Src/stm32n6xx_hal_spi.c **** }
 10278              		.loc 1 3681 1
 10279 004c 00BF     		nop
 10280 004e 0C37     		adds	r7, r7, #12
 10281              		.cfi_def_cfa_offset 4
 10282 0050 BD46     		mov	sp, r7
 10283              		.cfi_def_cfa_register 13
 10284              		@ sp needed
 10285 0052 5DF8047B 		ldr	r7, [sp], #4
 10286              		.cfi_restore 7
 10287              		.cfi_def_cfa_offset 0
 10288 0056 7047     		bx	lr
 10289              		.cfi_endproc
 10290              	.LFE877:
 10292              		.section	.text.SPI_TxISR_8BIT,"ax",%progbits
 10293              		.align	1
 10294              		.syntax unified
 10295              		.thumb
 10296              		.thumb_func
 10298              	SPI_TxISR_8BIT:
 10299              	.LFB878:
3682:STM32Cube_FW_N6/Drivers/STM32N6xx_HAL_Driver/Src/stm32n6xx_hal_spi.c **** 
3683:STM32Cube_FW_N6/Drivers/STM32N6xx_HAL_Driver/Src/stm32n6xx_hal_spi.c **** 
3684:STM32Cube_FW_N6/Drivers/STM32N6xx_HAL_Driver/Src/stm32n6xx_hal_spi.c **** /**
ARM GAS  /tmp/ccwTXtVb.s 			page 246


3685:STM32Cube_FW_N6/Drivers/STM32N6xx_HAL_Driver/Src/stm32n6xx_hal_spi.c ****   * @brief  Handle the data 8-bit transmit in Interrupt mode.
3686:STM32Cube_FW_N6/Drivers/STM32N6xx_HAL_Driver/Src/stm32n6xx_hal_spi.c ****   * @param  hspi: pointer to a SPI_HandleTypeDef structure that contains
3687:STM32Cube_FW_N6/Drivers/STM32N6xx_HAL_Driver/Src/stm32n6xx_hal_spi.c ****   *               the configuration information for SPI module.
3688:STM32Cube_FW_N6/Drivers/STM32N6xx_HAL_Driver/Src/stm32n6xx_hal_spi.c ****   * @retval None
3689:STM32Cube_FW_N6/Drivers/STM32N6xx_HAL_Driver/Src/stm32n6xx_hal_spi.c ****   */
3690:STM32Cube_FW_N6/Drivers/STM32N6xx_HAL_Driver/Src/stm32n6xx_hal_spi.c **** static void SPI_TxISR_8BIT(SPI_HandleTypeDef *hspi)
3691:STM32Cube_FW_N6/Drivers/STM32N6xx_HAL_Driver/Src/stm32n6xx_hal_spi.c **** {
 10300              		.loc 1 3691 1
 10301              		.cfi_startproc
 10302              		@ args = 0, pretend = 0, frame = 8
 10303              		@ frame_needed = 1, uses_anonymous_args = 0
 10304              		@ link register save eliminated.
 10305 0000 80B4     		push	{r7}
 10306              		.cfi_def_cfa_offset 4
 10307              		.cfi_offset 7, -4
 10308 0002 83B0     		sub	sp, sp, #12
 10309              		.cfi_def_cfa_offset 16
 10310 0004 00AF     		add	r7, sp, #0
 10311              		.cfi_def_cfa_register 7
 10312 0006 7860     		str	r0, [r7, #4]
3692:STM32Cube_FW_N6/Drivers/STM32N6xx_HAL_Driver/Src/stm32n6xx_hal_spi.c ****   /* Transmit data in 8 Bit mode */
3693:STM32Cube_FW_N6/Drivers/STM32N6xx_HAL_Driver/Src/stm32n6xx_hal_spi.c ****   *(__IO uint8_t *)&hspi->Instance->TXDR = *((const uint8_t *)hspi->pTxBuffPtr);
 10313              		.loc 1 3693 67
 10314 0008 7B68     		ldr	r3, [r7, #4]
 10315 000a 5A6E     		ldr	r2, [r3, #100]
 10316              		.loc 1 3693 25
 10317 000c 7B68     		ldr	r3, [r7, #4]
 10318 000e 1B68     		ldr	r3, [r3]
 10319              		.loc 1 3693 20
 10320 0010 2033     		adds	r3, r3, #32
 10321              		.loc 1 3693 44
 10322 0012 1278     		ldrb	r2, [r2]	@ zero_extendqisi2
 10323              		.loc 1 3693 42
 10324 0014 1A70     		strb	r2, [r3]
3694:STM32Cube_FW_N6/Drivers/STM32N6xx_HAL_Driver/Src/stm32n6xx_hal_spi.c ****   hspi->pTxBuffPtr += sizeof(uint8_t);
 10325              		.loc 1 3694 7
 10326 0016 7B68     		ldr	r3, [r7, #4]
 10327 0018 5B6E     		ldr	r3, [r3, #100]
 10328              		.loc 1 3694 20
 10329 001a 5A1C     		adds	r2, r3, #1
 10330 001c 7B68     		ldr	r3, [r7, #4]
 10331 001e 5A66     		str	r2, [r3, #100]
3695:STM32Cube_FW_N6/Drivers/STM32N6xx_HAL_Driver/Src/stm32n6xx_hal_spi.c ****   hspi->TxXferCount--;
 10332              		.loc 1 3695 7
 10333 0020 7B68     		ldr	r3, [r7, #4]
 10334 0022 B3F86A30 		ldrh	r3, [r3, #106]	@ movhi
 10335 0026 9BB2     		uxth	r3, r3
 10336              		.loc 1 3695 20
 10337 0028 013B     		subs	r3, r3, #1
 10338 002a 9AB2     		uxth	r2, r3
 10339 002c 7B68     		ldr	r3, [r7, #4]
 10340 002e A3F86A20 		strh	r2, [r3, #106]	@ movhi
3696:STM32Cube_FW_N6/Drivers/STM32N6xx_HAL_Driver/Src/stm32n6xx_hal_spi.c **** 
3697:STM32Cube_FW_N6/Drivers/STM32N6xx_HAL_Driver/Src/stm32n6xx_hal_spi.c ****   /* Disable IT if no more data excepted */
3698:STM32Cube_FW_N6/Drivers/STM32N6xx_HAL_Driver/Src/stm32n6xx_hal_spi.c ****   if (hspi->TxXferCount == 0UL)
 10341              		.loc 1 3698 11
 10342 0032 7B68     		ldr	r3, [r7, #4]
ARM GAS  /tmp/ccwTXtVb.s 			page 247


 10343 0034 B3F86A30 		ldrh	r3, [r3, #106]	@ movhi
 10344 0038 9BB2     		uxth	r3, r3
 10345              		.loc 1 3698 6
 10346 003a 002B     		cmp	r3, #0
 10347 003c 07D1     		bne	.L474
3699:STM32Cube_FW_N6/Drivers/STM32N6xx_HAL_Driver/Src/stm32n6xx_hal_spi.c ****   {
3700:STM32Cube_FW_N6/Drivers/STM32N6xx_HAL_Driver/Src/stm32n6xx_hal_spi.c ****     /* Disable TXP interrupts */
3701:STM32Cube_FW_N6/Drivers/STM32N6xx_HAL_Driver/Src/stm32n6xx_hal_spi.c ****     __HAL_SPI_DISABLE_IT(hspi, SPI_IT_TXP);
 10348              		.loc 1 3701 5
 10349 003e 7B68     		ldr	r3, [r7, #4]
 10350 0040 1B68     		ldr	r3, [r3]
 10351 0042 1A69     		ldr	r2, [r3, #16]
 10352 0044 7B68     		ldr	r3, [r7, #4]
 10353 0046 1B68     		ldr	r3, [r3]
 10354 0048 22F00202 		bic	r2, r2, #2
 10355 004c 1A61     		str	r2, [r3, #16]
 10356              	.L474:
3702:STM32Cube_FW_N6/Drivers/STM32N6xx_HAL_Driver/Src/stm32n6xx_hal_spi.c ****   }
3703:STM32Cube_FW_N6/Drivers/STM32N6xx_HAL_Driver/Src/stm32n6xx_hal_spi.c **** }
 10357              		.loc 1 3703 1
 10358 004e 00BF     		nop
 10359 0050 0C37     		adds	r7, r7, #12
 10360              		.cfi_def_cfa_offset 4
 10361 0052 BD46     		mov	sp, r7
 10362              		.cfi_def_cfa_register 13
 10363              		@ sp needed
 10364 0054 5DF8047B 		ldr	r7, [sp], #4
 10365              		.cfi_restore 7
 10366              		.cfi_def_cfa_offset 0
 10367 0058 7047     		bx	lr
 10368              		.cfi_endproc
 10369              	.LFE878:
 10371              		.section	.text.SPI_TxISR_16BIT,"ax",%progbits
 10372              		.align	1
 10373              		.syntax unified
 10374              		.thumb
 10375              		.thumb_func
 10377              	SPI_TxISR_16BIT:
 10378              	.LFB879:
3704:STM32Cube_FW_N6/Drivers/STM32N6xx_HAL_Driver/Src/stm32n6xx_hal_spi.c **** 
3705:STM32Cube_FW_N6/Drivers/STM32N6xx_HAL_Driver/Src/stm32n6xx_hal_spi.c **** /**
3706:STM32Cube_FW_N6/Drivers/STM32N6xx_HAL_Driver/Src/stm32n6xx_hal_spi.c ****   * @brief  Handle the data 16-bit transmit in Interrupt mode.
3707:STM32Cube_FW_N6/Drivers/STM32N6xx_HAL_Driver/Src/stm32n6xx_hal_spi.c ****   * @param  hspi: pointer to a SPI_HandleTypeDef structure that contains
3708:STM32Cube_FW_N6/Drivers/STM32N6xx_HAL_Driver/Src/stm32n6xx_hal_spi.c ****   *               the configuration information for SPI module.
3709:STM32Cube_FW_N6/Drivers/STM32N6xx_HAL_Driver/Src/stm32n6xx_hal_spi.c ****   * @retval None
3710:STM32Cube_FW_N6/Drivers/STM32N6xx_HAL_Driver/Src/stm32n6xx_hal_spi.c ****   */
3711:STM32Cube_FW_N6/Drivers/STM32N6xx_HAL_Driver/Src/stm32n6xx_hal_spi.c **** static void SPI_TxISR_16BIT(SPI_HandleTypeDef *hspi)
3712:STM32Cube_FW_N6/Drivers/STM32N6xx_HAL_Driver/Src/stm32n6xx_hal_spi.c **** {
 10379              		.loc 1 3712 1
 10380              		.cfi_startproc
 10381              		@ args = 0, pretend = 0, frame = 16
 10382              		@ frame_needed = 1, uses_anonymous_args = 0
 10383              		@ link register save eliminated.
 10384 0000 80B4     		push	{r7}
 10385              		.cfi_def_cfa_offset 4
 10386              		.cfi_offset 7, -4
 10387 0002 85B0     		sub	sp, sp, #20
ARM GAS  /tmp/ccwTXtVb.s 			page 248


 10388              		.cfi_def_cfa_offset 24
 10389 0004 00AF     		add	r7, sp, #0
 10390              		.cfi_def_cfa_register 7
 10391 0006 7860     		str	r0, [r7, #4]
3713:STM32Cube_FW_N6/Drivers/STM32N6xx_HAL_Driver/Src/stm32n6xx_hal_spi.c ****   /* Transmit data in 16 Bit mode */
3714:STM32Cube_FW_N6/Drivers/STM32N6xx_HAL_Driver/Src/stm32n6xx_hal_spi.c **** #if defined (__GNUC__)
3715:STM32Cube_FW_N6/Drivers/STM32N6xx_HAL_Driver/Src/stm32n6xx_hal_spi.c ****   __IO uint16_t *ptxdr_16bits = (__IO uint16_t *)(&(hspi->Instance->TXDR));
 10392              		.loc 1 3715 57
 10393 0008 7B68     		ldr	r3, [r7, #4]
 10394 000a 1B68     		ldr	r3, [r3]
 10395              		.loc 1 3715 18
 10396 000c 2033     		adds	r3, r3, #32
 10397 000e FB60     		str	r3, [r7, #12]
3716:STM32Cube_FW_N6/Drivers/STM32N6xx_HAL_Driver/Src/stm32n6xx_hal_spi.c **** 
3717:STM32Cube_FW_N6/Drivers/STM32N6xx_HAL_Driver/Src/stm32n6xx_hal_spi.c ****   *ptxdr_16bits = *((const uint16_t *)hspi->pTxBuffPtr);
 10398              		.loc 1 3717 43
 10399 0010 7B68     		ldr	r3, [r7, #4]
 10400 0012 5B6E     		ldr	r3, [r3, #100]
 10401              		.loc 1 3717 19
 10402 0014 1A88     		ldrh	r2, [r3]
 10403              		.loc 1 3717 17
 10404 0016 FB68     		ldr	r3, [r7, #12]
 10405 0018 1A80     		strh	r2, [r3]	@ movhi
3718:STM32Cube_FW_N6/Drivers/STM32N6xx_HAL_Driver/Src/stm32n6xx_hal_spi.c **** #else
3719:STM32Cube_FW_N6/Drivers/STM32N6xx_HAL_Driver/Src/stm32n6xx_hal_spi.c ****   *((__IO uint16_t *)&hspi->Instance->TXDR) = *((const uint16_t *)hspi->pTxBuffPtr);
3720:STM32Cube_FW_N6/Drivers/STM32N6xx_HAL_Driver/Src/stm32n6xx_hal_spi.c **** #endif /* __GNUC__ */
3721:STM32Cube_FW_N6/Drivers/STM32N6xx_HAL_Driver/Src/stm32n6xx_hal_spi.c ****   hspi->pTxBuffPtr += sizeof(uint16_t);
 10406              		.loc 1 3721 7
 10407 001a 7B68     		ldr	r3, [r7, #4]
 10408 001c 5B6E     		ldr	r3, [r3, #100]
 10409              		.loc 1 3721 20
 10410 001e 9A1C     		adds	r2, r3, #2
 10411 0020 7B68     		ldr	r3, [r7, #4]
 10412 0022 5A66     		str	r2, [r3, #100]
3722:STM32Cube_FW_N6/Drivers/STM32N6xx_HAL_Driver/Src/stm32n6xx_hal_spi.c ****   hspi->TxXferCount--;
 10413              		.loc 1 3722 7
 10414 0024 7B68     		ldr	r3, [r7, #4]
 10415 0026 B3F86A30 		ldrh	r3, [r3, #106]	@ movhi
 10416 002a 9BB2     		uxth	r3, r3
 10417              		.loc 1 3722 20
 10418 002c 013B     		subs	r3, r3, #1
 10419 002e 9AB2     		uxth	r2, r3
 10420 0030 7B68     		ldr	r3, [r7, #4]
 10421 0032 A3F86A20 		strh	r2, [r3, #106]	@ movhi
3723:STM32Cube_FW_N6/Drivers/STM32N6xx_HAL_Driver/Src/stm32n6xx_hal_spi.c **** 
3724:STM32Cube_FW_N6/Drivers/STM32N6xx_HAL_Driver/Src/stm32n6xx_hal_spi.c ****   /* Disable IT if no more data excepted */
3725:STM32Cube_FW_N6/Drivers/STM32N6xx_HAL_Driver/Src/stm32n6xx_hal_spi.c ****   if (hspi->TxXferCount == 0UL)
 10422              		.loc 1 3725 11
 10423 0036 7B68     		ldr	r3, [r7, #4]
 10424 0038 B3F86A30 		ldrh	r3, [r3, #106]	@ movhi
 10425 003c 9BB2     		uxth	r3, r3
 10426              		.loc 1 3725 6
 10427 003e 002B     		cmp	r3, #0
 10428 0040 07D1     		bne	.L477
3726:STM32Cube_FW_N6/Drivers/STM32N6xx_HAL_Driver/Src/stm32n6xx_hal_spi.c ****   {
3727:STM32Cube_FW_N6/Drivers/STM32N6xx_HAL_Driver/Src/stm32n6xx_hal_spi.c ****     /* Disable TXP interrupts */
3728:STM32Cube_FW_N6/Drivers/STM32N6xx_HAL_Driver/Src/stm32n6xx_hal_spi.c ****     __HAL_SPI_DISABLE_IT(hspi, SPI_IT_TXP);
ARM GAS  /tmp/ccwTXtVb.s 			page 249


 10429              		.loc 1 3728 5
 10430 0042 7B68     		ldr	r3, [r7, #4]
 10431 0044 1B68     		ldr	r3, [r3]
 10432 0046 1A69     		ldr	r2, [r3, #16]
 10433 0048 7B68     		ldr	r3, [r7, #4]
 10434 004a 1B68     		ldr	r3, [r3]
 10435 004c 22F00202 		bic	r2, r2, #2
 10436 0050 1A61     		str	r2, [r3, #16]
 10437              	.L477:
3729:STM32Cube_FW_N6/Drivers/STM32N6xx_HAL_Driver/Src/stm32n6xx_hal_spi.c ****   }
3730:STM32Cube_FW_N6/Drivers/STM32N6xx_HAL_Driver/Src/stm32n6xx_hal_spi.c **** }
 10438              		.loc 1 3730 1
 10439 0052 00BF     		nop
 10440 0054 1437     		adds	r7, r7, #20
 10441              		.cfi_def_cfa_offset 4
 10442 0056 BD46     		mov	sp, r7
 10443              		.cfi_def_cfa_register 13
 10444              		@ sp needed
 10445 0058 5DF8047B 		ldr	r7, [sp], #4
 10446              		.cfi_restore 7
 10447              		.cfi_def_cfa_offset 0
 10448 005c 7047     		bx	lr
 10449              		.cfi_endproc
 10450              	.LFE879:
 10452              		.section	.text.SPI_TxISR_32BIT,"ax",%progbits
 10453              		.align	1
 10454              		.syntax unified
 10455              		.thumb
 10456              		.thumb_func
 10458              	SPI_TxISR_32BIT:
 10459              	.LFB880:
3731:STM32Cube_FW_N6/Drivers/STM32N6xx_HAL_Driver/Src/stm32n6xx_hal_spi.c **** 
3732:STM32Cube_FW_N6/Drivers/STM32N6xx_HAL_Driver/Src/stm32n6xx_hal_spi.c **** /**
3733:STM32Cube_FW_N6/Drivers/STM32N6xx_HAL_Driver/Src/stm32n6xx_hal_spi.c ****   * @brief  Handle the data 32-bit transmit in Interrupt mode.
3734:STM32Cube_FW_N6/Drivers/STM32N6xx_HAL_Driver/Src/stm32n6xx_hal_spi.c ****   * @param  hspi: pointer to a SPI_HandleTypeDef structure that contains
3735:STM32Cube_FW_N6/Drivers/STM32N6xx_HAL_Driver/Src/stm32n6xx_hal_spi.c ****   *               the configuration information for SPI module.
3736:STM32Cube_FW_N6/Drivers/STM32N6xx_HAL_Driver/Src/stm32n6xx_hal_spi.c ****   * @retval None
3737:STM32Cube_FW_N6/Drivers/STM32N6xx_HAL_Driver/Src/stm32n6xx_hal_spi.c ****   */
3738:STM32Cube_FW_N6/Drivers/STM32N6xx_HAL_Driver/Src/stm32n6xx_hal_spi.c **** static void SPI_TxISR_32BIT(SPI_HandleTypeDef *hspi)
3739:STM32Cube_FW_N6/Drivers/STM32N6xx_HAL_Driver/Src/stm32n6xx_hal_spi.c **** {
 10460              		.loc 1 3739 1
 10461              		.cfi_startproc
 10462              		@ args = 0, pretend = 0, frame = 8
 10463              		@ frame_needed = 1, uses_anonymous_args = 0
 10464              		@ link register save eliminated.
 10465 0000 80B4     		push	{r7}
 10466              		.cfi_def_cfa_offset 4
 10467              		.cfi_offset 7, -4
 10468 0002 83B0     		sub	sp, sp, #12
 10469              		.cfi_def_cfa_offset 16
 10470 0004 00AF     		add	r7, sp, #0
 10471              		.cfi_def_cfa_register 7
 10472 0006 7860     		str	r0, [r7, #4]
3740:STM32Cube_FW_N6/Drivers/STM32N6xx_HAL_Driver/Src/stm32n6xx_hal_spi.c ****   /* Transmit data in 32 Bit mode */
3741:STM32Cube_FW_N6/Drivers/STM32N6xx_HAL_Driver/Src/stm32n6xx_hal_spi.c ****   *((__IO uint32_t *)&hspi->Instance->TXDR) = *((const uint32_t *)hspi->pTxBuffPtr);
 10473              		.loc 1 3741 71
 10474 0008 7B68     		ldr	r3, [r7, #4]
ARM GAS  /tmp/ccwTXtVb.s 			page 250


 10475 000a 5A6E     		ldr	r2, [r3, #100]
 10476              		.loc 1 3741 27
 10477 000c 7B68     		ldr	r3, [r7, #4]
 10478 000e 1B68     		ldr	r3, [r3]
 10479              		.loc 1 3741 47
 10480 0010 1268     		ldr	r2, [r2]
 10481              		.loc 1 3741 45
 10482 0012 1A62     		str	r2, [r3, #32]
3742:STM32Cube_FW_N6/Drivers/STM32N6xx_HAL_Driver/Src/stm32n6xx_hal_spi.c ****   hspi->pTxBuffPtr += sizeof(uint32_t);
 10483              		.loc 1 3742 7
 10484 0014 7B68     		ldr	r3, [r7, #4]
 10485 0016 5B6E     		ldr	r3, [r3, #100]
 10486              		.loc 1 3742 20
 10487 0018 1A1D     		adds	r2, r3, #4
 10488 001a 7B68     		ldr	r3, [r7, #4]
 10489 001c 5A66     		str	r2, [r3, #100]
3743:STM32Cube_FW_N6/Drivers/STM32N6xx_HAL_Driver/Src/stm32n6xx_hal_spi.c ****   hspi->TxXferCount--;
 10490              		.loc 1 3743 7
 10491 001e 7B68     		ldr	r3, [r7, #4]
 10492 0020 B3F86A30 		ldrh	r3, [r3, #106]	@ movhi
 10493 0024 9BB2     		uxth	r3, r3
 10494              		.loc 1 3743 20
 10495 0026 013B     		subs	r3, r3, #1
 10496 0028 9AB2     		uxth	r2, r3
 10497 002a 7B68     		ldr	r3, [r7, #4]
 10498 002c A3F86A20 		strh	r2, [r3, #106]	@ movhi
3744:STM32Cube_FW_N6/Drivers/STM32N6xx_HAL_Driver/Src/stm32n6xx_hal_spi.c **** 
3745:STM32Cube_FW_N6/Drivers/STM32N6xx_HAL_Driver/Src/stm32n6xx_hal_spi.c ****   /* Disable IT if no more data excepted */
3746:STM32Cube_FW_N6/Drivers/STM32N6xx_HAL_Driver/Src/stm32n6xx_hal_spi.c ****   if (hspi->TxXferCount == 0UL)
 10499              		.loc 1 3746 11
 10500 0030 7B68     		ldr	r3, [r7, #4]
 10501 0032 B3F86A30 		ldrh	r3, [r3, #106]	@ movhi
 10502 0036 9BB2     		uxth	r3, r3
 10503              		.loc 1 3746 6
 10504 0038 002B     		cmp	r3, #0
 10505 003a 07D1     		bne	.L480
3747:STM32Cube_FW_N6/Drivers/STM32N6xx_HAL_Driver/Src/stm32n6xx_hal_spi.c ****   {
3748:STM32Cube_FW_N6/Drivers/STM32N6xx_HAL_Driver/Src/stm32n6xx_hal_spi.c ****     /* Disable TXP interrupts */
3749:STM32Cube_FW_N6/Drivers/STM32N6xx_HAL_Driver/Src/stm32n6xx_hal_spi.c ****     __HAL_SPI_DISABLE_IT(hspi, SPI_IT_TXP);
 10506              		.loc 1 3749 5
 10507 003c 7B68     		ldr	r3, [r7, #4]
 10508 003e 1B68     		ldr	r3, [r3]
 10509 0040 1A69     		ldr	r2, [r3, #16]
 10510 0042 7B68     		ldr	r3, [r7, #4]
 10511 0044 1B68     		ldr	r3, [r3]
 10512 0046 22F00202 		bic	r2, r2, #2
 10513 004a 1A61     		str	r2, [r3, #16]
 10514              	.L480:
3750:STM32Cube_FW_N6/Drivers/STM32N6xx_HAL_Driver/Src/stm32n6xx_hal_spi.c ****   }
3751:STM32Cube_FW_N6/Drivers/STM32N6xx_HAL_Driver/Src/stm32n6xx_hal_spi.c **** }
 10515              		.loc 1 3751 1
 10516 004c 00BF     		nop
 10517 004e 0C37     		adds	r7, r7, #12
 10518              		.cfi_def_cfa_offset 4
 10519 0050 BD46     		mov	sp, r7
 10520              		.cfi_def_cfa_register 13
 10521              		@ sp needed
ARM GAS  /tmp/ccwTXtVb.s 			page 251


 10522 0052 5DF8047B 		ldr	r7, [sp], #4
 10523              		.cfi_restore 7
 10524              		.cfi_def_cfa_offset 0
 10525 0056 7047     		bx	lr
 10526              		.cfi_endproc
 10527              	.LFE880:
 10529              		.section	.text.SPI_AbortTransfer,"ax",%progbits
 10530              		.align	1
 10531              		.syntax unified
 10532              		.thumb
 10533              		.thumb_func
 10535              	SPI_AbortTransfer:
 10536              	.LFB881:
3752:STM32Cube_FW_N6/Drivers/STM32N6xx_HAL_Driver/Src/stm32n6xx_hal_spi.c **** 
3753:STM32Cube_FW_N6/Drivers/STM32N6xx_HAL_Driver/Src/stm32n6xx_hal_spi.c **** /**
3754:STM32Cube_FW_N6/Drivers/STM32N6xx_HAL_Driver/Src/stm32n6xx_hal_spi.c ****   * @brief  Abort Transfer and clear flags.
3755:STM32Cube_FW_N6/Drivers/STM32N6xx_HAL_Driver/Src/stm32n6xx_hal_spi.c ****   * @param  hspi: pointer to a SPI_HandleTypeDef structure that contains
3756:STM32Cube_FW_N6/Drivers/STM32N6xx_HAL_Driver/Src/stm32n6xx_hal_spi.c ****   *               the configuration information for SPI module.
3757:STM32Cube_FW_N6/Drivers/STM32N6xx_HAL_Driver/Src/stm32n6xx_hal_spi.c ****   * @retval None
3758:STM32Cube_FW_N6/Drivers/STM32N6xx_HAL_Driver/Src/stm32n6xx_hal_spi.c ****   */
3759:STM32Cube_FW_N6/Drivers/STM32N6xx_HAL_Driver/Src/stm32n6xx_hal_spi.c **** static void SPI_AbortTransfer(SPI_HandleTypeDef *hspi)
3760:STM32Cube_FW_N6/Drivers/STM32N6xx_HAL_Driver/Src/stm32n6xx_hal_spi.c **** {
 10537              		.loc 1 3760 1
 10538              		.cfi_startproc
 10539              		@ args = 0, pretend = 0, frame = 8
 10540              		@ frame_needed = 1, uses_anonymous_args = 0
 10541              		@ link register save eliminated.
 10542 0000 80B4     		push	{r7}
 10543              		.cfi_def_cfa_offset 4
 10544              		.cfi_offset 7, -4
 10545 0002 83B0     		sub	sp, sp, #12
 10546              		.cfi_def_cfa_offset 16
 10547 0004 00AF     		add	r7, sp, #0
 10548              		.cfi_def_cfa_register 7
 10549 0006 7860     		str	r0, [r7, #4]
3761:STM32Cube_FW_N6/Drivers/STM32N6xx_HAL_Driver/Src/stm32n6xx_hal_spi.c ****   /* Disable SPI peripheral */
3762:STM32Cube_FW_N6/Drivers/STM32N6xx_HAL_Driver/Src/stm32n6xx_hal_spi.c ****   __HAL_SPI_DISABLE(hspi);
 10550              		.loc 1 3762 3
 10551 0008 7B68     		ldr	r3, [r7, #4]
 10552 000a 1B68     		ldr	r3, [r3]
 10553 000c 1A68     		ldr	r2, [r3]
 10554 000e 7B68     		ldr	r3, [r7, #4]
 10555 0010 1B68     		ldr	r3, [r3]
 10556 0012 22F00102 		bic	r2, r2, #1
 10557 0016 1A60     		str	r2, [r3]
3763:STM32Cube_FW_N6/Drivers/STM32N6xx_HAL_Driver/Src/stm32n6xx_hal_spi.c **** 
3764:STM32Cube_FW_N6/Drivers/STM32N6xx_HAL_Driver/Src/stm32n6xx_hal_spi.c ****   /* Disable ITs */
3765:STM32Cube_FW_N6/Drivers/STM32N6xx_HAL_Driver/Src/stm32n6xx_hal_spi.c ****   __HAL_SPI_DISABLE_IT(hspi, (SPI_IT_EOT | SPI_IT_TXP | SPI_IT_RXP | SPI_IT_DXP | SPI_IT_UDR | SPI_
 10558              		.loc 1 3765 3
 10559 0018 7B68     		ldr	r3, [r7, #4]
 10560 001a 1B68     		ldr	r3, [r3]
 10561 001c 1B69     		ldr	r3, [r3, #16]
 10562 001e 7A68     		ldr	r2, [r7, #4]
 10563 0020 1268     		ldr	r2, [r2]
 10564 0022 23F45B73 		bic	r3, r3, #876
 10565 0026 23F00303 		bic	r3, r3, #3
 10566 002a 1361     		str	r3, [r2, #16]
ARM GAS  /tmp/ccwTXtVb.s 			page 252


3766:STM32Cube_FW_N6/Drivers/STM32N6xx_HAL_Driver/Src/stm32n6xx_hal_spi.c ****                               SPI_IT_FRE | SPI_IT_MODF));
3767:STM32Cube_FW_N6/Drivers/STM32N6xx_HAL_Driver/Src/stm32n6xx_hal_spi.c **** 
3768:STM32Cube_FW_N6/Drivers/STM32N6xx_HAL_Driver/Src/stm32n6xx_hal_spi.c ****   /* Clear the Status flags in the SR register */
3769:STM32Cube_FW_N6/Drivers/STM32N6xx_HAL_Driver/Src/stm32n6xx_hal_spi.c ****   __HAL_SPI_CLEAR_EOTFLAG(hspi);
 10567              		.loc 1 3769 3
 10568 002c 7B68     		ldr	r3, [r7, #4]
 10569 002e 1B68     		ldr	r3, [r3]
 10570 0030 9A69     		ldr	r2, [r3, #24]
 10571 0032 7B68     		ldr	r3, [r7, #4]
 10572 0034 1B68     		ldr	r3, [r3]
 10573 0036 42F00802 		orr	r2, r2, #8
 10574 003a 9A61     		str	r2, [r3, #24]
3770:STM32Cube_FW_N6/Drivers/STM32N6xx_HAL_Driver/Src/stm32n6xx_hal_spi.c ****   __HAL_SPI_CLEAR_TXTFFLAG(hspi);
 10575              		.loc 1 3770 3
 10576 003c 7B68     		ldr	r3, [r7, #4]
 10577 003e 1B68     		ldr	r3, [r3]
 10578 0040 9A69     		ldr	r2, [r3, #24]
 10579 0042 7B68     		ldr	r3, [r7, #4]
 10580 0044 1B68     		ldr	r3, [r3]
 10581 0046 42F01002 		orr	r2, r2, #16
 10582 004a 9A61     		str	r2, [r3, #24]
3771:STM32Cube_FW_N6/Drivers/STM32N6xx_HAL_Driver/Src/stm32n6xx_hal_spi.c **** 
3772:STM32Cube_FW_N6/Drivers/STM32N6xx_HAL_Driver/Src/stm32n6xx_hal_spi.c ****   /* Disable Tx DMA Request */
3773:STM32Cube_FW_N6/Drivers/STM32N6xx_HAL_Driver/Src/stm32n6xx_hal_spi.c ****   CLEAR_BIT(hspi->Instance->CFG1, SPI_CFG1_TXDMAEN | SPI_CFG1_RXDMAEN);
 10583              		.loc 1 3773 3
 10584 004c 7B68     		ldr	r3, [r7, #4]
 10585 004e 1B68     		ldr	r3, [r3]
 10586 0050 9A68     		ldr	r2, [r3, #8]
 10587 0052 7B68     		ldr	r3, [r7, #4]
 10588 0054 1B68     		ldr	r3, [r3]
 10589 0056 22F44042 		bic	r2, r2, #49152
 10590 005a 9A60     		str	r2, [r3, #8]
3774:STM32Cube_FW_N6/Drivers/STM32N6xx_HAL_Driver/Src/stm32n6xx_hal_spi.c **** 
3775:STM32Cube_FW_N6/Drivers/STM32N6xx_HAL_Driver/Src/stm32n6xx_hal_spi.c ****   /* Clear the Error flags in the SR register */
3776:STM32Cube_FW_N6/Drivers/STM32N6xx_HAL_Driver/Src/stm32n6xx_hal_spi.c ****   __HAL_SPI_CLEAR_OVRFLAG(hspi);
 10591              		.loc 1 3776 3
 10592 005c 7B68     		ldr	r3, [r7, #4]
 10593 005e 1B68     		ldr	r3, [r3]
 10594 0060 9A69     		ldr	r2, [r3, #24]
 10595 0062 7B68     		ldr	r3, [r7, #4]
 10596 0064 1B68     		ldr	r3, [r3]
 10597 0066 42F04002 		orr	r2, r2, #64
 10598 006a 9A61     		str	r2, [r3, #24]
3777:STM32Cube_FW_N6/Drivers/STM32N6xx_HAL_Driver/Src/stm32n6xx_hal_spi.c ****   __HAL_SPI_CLEAR_UDRFLAG(hspi);
 10599              		.loc 1 3777 3
 10600 006c 7B68     		ldr	r3, [r7, #4]
 10601 006e 1B68     		ldr	r3, [r3]
 10602 0070 9A69     		ldr	r2, [r3, #24]
 10603 0072 7B68     		ldr	r3, [r7, #4]
 10604 0074 1B68     		ldr	r3, [r3]
 10605 0076 42F02002 		orr	r2, r2, #32
 10606 007a 9A61     		str	r2, [r3, #24]
3778:STM32Cube_FW_N6/Drivers/STM32N6xx_HAL_Driver/Src/stm32n6xx_hal_spi.c ****   __HAL_SPI_CLEAR_FREFLAG(hspi);
 10607              		.loc 1 3778 3
 10608 007c 7B68     		ldr	r3, [r7, #4]
 10609 007e 1B68     		ldr	r3, [r3]
 10610 0080 9A69     		ldr	r2, [r3, #24]
ARM GAS  /tmp/ccwTXtVb.s 			page 253


 10611 0082 7B68     		ldr	r3, [r7, #4]
 10612 0084 1B68     		ldr	r3, [r3]
 10613 0086 42F48072 		orr	r2, r2, #256
 10614 008a 9A61     		str	r2, [r3, #24]
3779:STM32Cube_FW_N6/Drivers/STM32N6xx_HAL_Driver/Src/stm32n6xx_hal_spi.c ****   __HAL_SPI_CLEAR_MODFFLAG(hspi);
 10615              		.loc 1 3779 3
 10616 008c 7B68     		ldr	r3, [r7, #4]
 10617 008e 1B68     		ldr	r3, [r3]
 10618 0090 9A69     		ldr	r2, [r3, #24]
 10619 0092 7B68     		ldr	r3, [r7, #4]
 10620 0094 1B68     		ldr	r3, [r3]
 10621 0096 42F40072 		orr	r2, r2, #512
 10622 009a 9A61     		str	r2, [r3, #24]
3780:STM32Cube_FW_N6/Drivers/STM32N6xx_HAL_Driver/Src/stm32n6xx_hal_spi.c ****   __HAL_SPI_CLEAR_SUSPFLAG(hspi);
 10623              		.loc 1 3780 3
 10624 009c 7B68     		ldr	r3, [r7, #4]
 10625 009e 1B68     		ldr	r3, [r3]
 10626 00a0 9A69     		ldr	r2, [r3, #24]
 10627 00a2 7B68     		ldr	r3, [r7, #4]
 10628 00a4 1B68     		ldr	r3, [r3]
 10629 00a6 42F40062 		orr	r2, r2, #2048
 10630 00aa 9A61     		str	r2, [r3, #24]
3781:STM32Cube_FW_N6/Drivers/STM32N6xx_HAL_Driver/Src/stm32n6xx_hal_spi.c **** 
3782:STM32Cube_FW_N6/Drivers/STM32N6xx_HAL_Driver/Src/stm32n6xx_hal_spi.c **** #if (USE_SPI_CRC != 0U)
3783:STM32Cube_FW_N6/Drivers/STM32N6xx_HAL_Driver/Src/stm32n6xx_hal_spi.c ****   __HAL_SPI_CLEAR_CRCERRFLAG(hspi);
 10631              		.loc 1 3783 3
 10632 00ac 7B68     		ldr	r3, [r7, #4]
 10633 00ae 1B68     		ldr	r3, [r3]
 10634 00b0 9A69     		ldr	r2, [r3, #24]
 10635 00b2 7B68     		ldr	r3, [r7, #4]
 10636 00b4 1B68     		ldr	r3, [r3]
 10637 00b6 42F08002 		orr	r2, r2, #128
 10638 00ba 9A61     		str	r2, [r3, #24]
3784:STM32Cube_FW_N6/Drivers/STM32N6xx_HAL_Driver/Src/stm32n6xx_hal_spi.c **** #endif /* USE_SPI_CRC */
3785:STM32Cube_FW_N6/Drivers/STM32N6xx_HAL_Driver/Src/stm32n6xx_hal_spi.c **** 
3786:STM32Cube_FW_N6/Drivers/STM32N6xx_HAL_Driver/Src/stm32n6xx_hal_spi.c ****   hspi->TxXferCount = (uint16_t)0UL;
 10639              		.loc 1 3786 21
 10640 00bc 7B68     		ldr	r3, [r7, #4]
 10641 00be 0022     		movs	r2, #0
 10642 00c0 A3F86A20 		strh	r2, [r3, #106]	@ movhi
3787:STM32Cube_FW_N6/Drivers/STM32N6xx_HAL_Driver/Src/stm32n6xx_hal_spi.c ****   hspi->RxXferCount = (uint16_t)0UL;
 10643              		.loc 1 3787 21
 10644 00c4 7B68     		ldr	r3, [r7, #4]
 10645 00c6 0022     		movs	r2, #0
 10646 00c8 A3F87220 		strh	r2, [r3, #114]	@ movhi
3788:STM32Cube_FW_N6/Drivers/STM32N6xx_HAL_Driver/Src/stm32n6xx_hal_spi.c **** }
 10647              		.loc 1 3788 1
 10648 00cc 00BF     		nop
 10649 00ce 0C37     		adds	r7, r7, #12
 10650              		.cfi_def_cfa_offset 4
 10651 00d0 BD46     		mov	sp, r7
 10652              		.cfi_def_cfa_register 13
 10653              		@ sp needed
 10654 00d2 5DF8047B 		ldr	r7, [sp], #4
 10655              		.cfi_restore 7
 10656              		.cfi_def_cfa_offset 0
 10657 00d6 7047     		bx	lr
ARM GAS  /tmp/ccwTXtVb.s 			page 254


 10658              		.cfi_endproc
 10659              	.LFE881:
 10661              		.section	.text.SPI_CloseTransfer,"ax",%progbits
 10662              		.align	1
 10663              		.syntax unified
 10664              		.thumb
 10665              		.thumb_func
 10667              	SPI_CloseTransfer:
 10668              	.LFB882:
3789:STM32Cube_FW_N6/Drivers/STM32N6xx_HAL_Driver/Src/stm32n6xx_hal_spi.c **** 
3790:STM32Cube_FW_N6/Drivers/STM32N6xx_HAL_Driver/Src/stm32n6xx_hal_spi.c **** 
3791:STM32Cube_FW_N6/Drivers/STM32N6xx_HAL_Driver/Src/stm32n6xx_hal_spi.c **** /**
3792:STM32Cube_FW_N6/Drivers/STM32N6xx_HAL_Driver/Src/stm32n6xx_hal_spi.c ****   * @brief  Close Transfer and clear flags.
3793:STM32Cube_FW_N6/Drivers/STM32N6xx_HAL_Driver/Src/stm32n6xx_hal_spi.c ****   * @param  hspi: pointer to a SPI_HandleTypeDef structure that contains
3794:STM32Cube_FW_N6/Drivers/STM32N6xx_HAL_Driver/Src/stm32n6xx_hal_spi.c ****   *               the configuration information for SPI module.
3795:STM32Cube_FW_N6/Drivers/STM32N6xx_HAL_Driver/Src/stm32n6xx_hal_spi.c ****   * @retval HAL_ERROR: if any error detected
3796:STM32Cube_FW_N6/Drivers/STM32N6xx_HAL_Driver/Src/stm32n6xx_hal_spi.c ****   *         HAL_OK: if nothing detected
3797:STM32Cube_FW_N6/Drivers/STM32N6xx_HAL_Driver/Src/stm32n6xx_hal_spi.c ****   */
3798:STM32Cube_FW_N6/Drivers/STM32N6xx_HAL_Driver/Src/stm32n6xx_hal_spi.c **** static void SPI_CloseTransfer(SPI_HandleTypeDef *hspi)
3799:STM32Cube_FW_N6/Drivers/STM32N6xx_HAL_Driver/Src/stm32n6xx_hal_spi.c **** {
 10669              		.loc 1 3799 1
 10670              		.cfi_startproc
 10671              		@ args = 0, pretend = 0, frame = 16
 10672              		@ frame_needed = 1, uses_anonymous_args = 0
 10673              		@ link register save eliminated.
 10674 0000 80B4     		push	{r7}
 10675              		.cfi_def_cfa_offset 4
 10676              		.cfi_offset 7, -4
 10677 0002 85B0     		sub	sp, sp, #20
 10678              		.cfi_def_cfa_offset 24
 10679 0004 00AF     		add	r7, sp, #0
 10680              		.cfi_def_cfa_register 7
 10681 0006 7860     		str	r0, [r7, #4]
3800:STM32Cube_FW_N6/Drivers/STM32N6xx_HAL_Driver/Src/stm32n6xx_hal_spi.c ****   uint32_t itflag = hspi->Instance->SR;
 10682              		.loc 1 3800 25
 10683 0008 7B68     		ldr	r3, [r7, #4]
 10684 000a 1B68     		ldr	r3, [r3]
 10685              		.loc 1 3800 12
 10686 000c 5B69     		ldr	r3, [r3, #20]
 10687 000e FB60     		str	r3, [r7, #12]
3801:STM32Cube_FW_N6/Drivers/STM32N6xx_HAL_Driver/Src/stm32n6xx_hal_spi.c **** 
3802:STM32Cube_FW_N6/Drivers/STM32N6xx_HAL_Driver/Src/stm32n6xx_hal_spi.c ****   __HAL_SPI_CLEAR_EOTFLAG(hspi);
 10688              		.loc 1 3802 3
 10689 0010 7B68     		ldr	r3, [r7, #4]
 10690 0012 1B68     		ldr	r3, [r3]
 10691 0014 9A69     		ldr	r2, [r3, #24]
 10692 0016 7B68     		ldr	r3, [r7, #4]
 10693 0018 1B68     		ldr	r3, [r3]
 10694 001a 42F00802 		orr	r2, r2, #8
 10695 001e 9A61     		str	r2, [r3, #24]
3803:STM32Cube_FW_N6/Drivers/STM32N6xx_HAL_Driver/Src/stm32n6xx_hal_spi.c ****   __HAL_SPI_CLEAR_TXTFFLAG(hspi);
 10696              		.loc 1 3803 3
 10697 0020 7B68     		ldr	r3, [r7, #4]
 10698 0022 1B68     		ldr	r3, [r3]
 10699 0024 9A69     		ldr	r2, [r3, #24]
 10700 0026 7B68     		ldr	r3, [r7, #4]
 10701 0028 1B68     		ldr	r3, [r3]
ARM GAS  /tmp/ccwTXtVb.s 			page 255


 10702 002a 42F01002 		orr	r2, r2, #16
 10703 002e 9A61     		str	r2, [r3, #24]
3804:STM32Cube_FW_N6/Drivers/STM32N6xx_HAL_Driver/Src/stm32n6xx_hal_spi.c **** 
3805:STM32Cube_FW_N6/Drivers/STM32N6xx_HAL_Driver/Src/stm32n6xx_hal_spi.c ****   /* Disable SPI peripheral */
3806:STM32Cube_FW_N6/Drivers/STM32N6xx_HAL_Driver/Src/stm32n6xx_hal_spi.c ****   __HAL_SPI_DISABLE(hspi);
 10704              		.loc 1 3806 3
 10705 0030 7B68     		ldr	r3, [r7, #4]
 10706 0032 1B68     		ldr	r3, [r3]
 10707 0034 1A68     		ldr	r2, [r3]
 10708 0036 7B68     		ldr	r3, [r7, #4]
 10709 0038 1B68     		ldr	r3, [r3]
 10710 003a 22F00102 		bic	r2, r2, #1
 10711 003e 1A60     		str	r2, [r3]
3807:STM32Cube_FW_N6/Drivers/STM32N6xx_HAL_Driver/Src/stm32n6xx_hal_spi.c **** 
3808:STM32Cube_FW_N6/Drivers/STM32N6xx_HAL_Driver/Src/stm32n6xx_hal_spi.c ****   /* Disable ITs */
3809:STM32Cube_FW_N6/Drivers/STM32N6xx_HAL_Driver/Src/stm32n6xx_hal_spi.c ****   __HAL_SPI_DISABLE_IT(hspi, (SPI_IT_EOT | SPI_IT_TXP | SPI_IT_RXP | SPI_IT_DXP | SPI_IT_UDR | SPI_
 10712              		.loc 1 3809 3
 10713 0040 7B68     		ldr	r3, [r7, #4]
 10714 0042 1B68     		ldr	r3, [r3]
 10715 0044 1B69     		ldr	r3, [r3, #16]
 10716 0046 7A68     		ldr	r2, [r7, #4]
 10717 0048 1268     		ldr	r2, [r2]
 10718 004a 23F45B73 		bic	r3, r3, #876
 10719 004e 23F00303 		bic	r3, r3, #3
 10720 0052 1361     		str	r3, [r2, #16]
3810:STM32Cube_FW_N6/Drivers/STM32N6xx_HAL_Driver/Src/stm32n6xx_hal_spi.c ****                               SPI_IT_FRE | SPI_IT_MODF));
3811:STM32Cube_FW_N6/Drivers/STM32N6xx_HAL_Driver/Src/stm32n6xx_hal_spi.c **** 
3812:STM32Cube_FW_N6/Drivers/STM32N6xx_HAL_Driver/Src/stm32n6xx_hal_spi.c ****   /* Disable Tx DMA Request */
3813:STM32Cube_FW_N6/Drivers/STM32N6xx_HAL_Driver/Src/stm32n6xx_hal_spi.c ****   CLEAR_BIT(hspi->Instance->CFG1, SPI_CFG1_TXDMAEN | SPI_CFG1_RXDMAEN);
 10721              		.loc 1 3813 3
 10722 0054 7B68     		ldr	r3, [r7, #4]
 10723 0056 1B68     		ldr	r3, [r3]
 10724 0058 9A68     		ldr	r2, [r3, #8]
 10725 005a 7B68     		ldr	r3, [r7, #4]
 10726 005c 1B68     		ldr	r3, [r3]
 10727 005e 22F44042 		bic	r2, r2, #49152
 10728 0062 9A60     		str	r2, [r3, #8]
3814:STM32Cube_FW_N6/Drivers/STM32N6xx_HAL_Driver/Src/stm32n6xx_hal_spi.c **** 
3815:STM32Cube_FW_N6/Drivers/STM32N6xx_HAL_Driver/Src/stm32n6xx_hal_spi.c ****   /* Report UnderRun error for non RX Only communication */
3816:STM32Cube_FW_N6/Drivers/STM32N6xx_HAL_Driver/Src/stm32n6xx_hal_spi.c ****   if (hspi->State != HAL_SPI_STATE_BUSY_RX)
 10729              		.loc 1 3816 11
 10730 0064 7B68     		ldr	r3, [r7, #4]
 10731 0066 93F88930 		ldrb	r3, [r3, #137]
 10732 006a DBB2     		uxtb	r3, r3
 10733              		.loc 1 3816 6
 10734 006c 042B     		cmp	r3, #4
 10735 006e 14D0     		beq	.L483
3817:STM32Cube_FW_N6/Drivers/STM32N6xx_HAL_Driver/Src/stm32n6xx_hal_spi.c ****   {
3818:STM32Cube_FW_N6/Drivers/STM32N6xx_HAL_Driver/Src/stm32n6xx_hal_spi.c ****     if ((itflag & SPI_FLAG_UDR) != 0UL)
 10736              		.loc 1 3818 17
 10737 0070 FB68     		ldr	r3, [r7, #12]
 10738 0072 03F02003 		and	r3, r3, #32
 10739              		.loc 1 3818 8
 10740 0076 002B     		cmp	r3, #0
 10741 0078 0FD0     		beq	.L483
3819:STM32Cube_FW_N6/Drivers/STM32N6xx_HAL_Driver/Src/stm32n6xx_hal_spi.c ****     {
3820:STM32Cube_FW_N6/Drivers/STM32N6xx_HAL_Driver/Src/stm32n6xx_hal_spi.c ****       SET_BIT(hspi->ErrorCode, HAL_SPI_ERROR_UDR);
ARM GAS  /tmp/ccwTXtVb.s 			page 256


 10742              		.loc 1 3820 7
 10743 007a 7B68     		ldr	r3, [r7, #4]
 10744 007c D3F88C30 		ldr	r3, [r3, #140]
 10745 0080 43F08002 		orr	r2, r3, #128
 10746 0084 7B68     		ldr	r3, [r7, #4]
 10747 0086 C3F88C20 		str	r2, [r3, #140]
3821:STM32Cube_FW_N6/Drivers/STM32N6xx_HAL_Driver/Src/stm32n6xx_hal_spi.c ****       __HAL_SPI_CLEAR_UDRFLAG(hspi);
 10748              		.loc 1 3821 7
 10749 008a 7B68     		ldr	r3, [r7, #4]
 10750 008c 1B68     		ldr	r3, [r3]
 10751 008e 9A69     		ldr	r2, [r3, #24]
 10752 0090 7B68     		ldr	r3, [r7, #4]
 10753 0092 1B68     		ldr	r3, [r3]
 10754 0094 42F02002 		orr	r2, r2, #32
 10755 0098 9A61     		str	r2, [r3, #24]
 10756              	.L483:
3822:STM32Cube_FW_N6/Drivers/STM32N6xx_HAL_Driver/Src/stm32n6xx_hal_spi.c ****     }
3823:STM32Cube_FW_N6/Drivers/STM32N6xx_HAL_Driver/Src/stm32n6xx_hal_spi.c ****   }
3824:STM32Cube_FW_N6/Drivers/STM32N6xx_HAL_Driver/Src/stm32n6xx_hal_spi.c **** 
3825:STM32Cube_FW_N6/Drivers/STM32N6xx_HAL_Driver/Src/stm32n6xx_hal_spi.c ****   /* Report OverRun error for non TX Only communication */
3826:STM32Cube_FW_N6/Drivers/STM32N6xx_HAL_Driver/Src/stm32n6xx_hal_spi.c ****   if (hspi->State != HAL_SPI_STATE_BUSY_TX)
 10757              		.loc 1 3826 11
 10758 009a 7B68     		ldr	r3, [r7, #4]
 10759 009c 93F88930 		ldrb	r3, [r3, #137]
 10760 00a0 DBB2     		uxtb	r3, r3
 10761              		.loc 1 3826 6
 10762 00a2 032B     		cmp	r3, #3
 10763 00a4 2ED0     		beq	.L484
3827:STM32Cube_FW_N6/Drivers/STM32N6xx_HAL_Driver/Src/stm32n6xx_hal_spi.c ****   {
3828:STM32Cube_FW_N6/Drivers/STM32N6xx_HAL_Driver/Src/stm32n6xx_hal_spi.c ****     if ((itflag & SPI_FLAG_OVR) != 0UL)
 10764              		.loc 1 3828 17
 10765 00a6 FB68     		ldr	r3, [r7, #12]
 10766 00a8 03F04003 		and	r3, r3, #64
 10767              		.loc 1 3828 8
 10768 00ac 002B     		cmp	r3, #0
 10769 00ae 0FD0     		beq	.L485
3829:STM32Cube_FW_N6/Drivers/STM32N6xx_HAL_Driver/Src/stm32n6xx_hal_spi.c ****     {
3830:STM32Cube_FW_N6/Drivers/STM32N6xx_HAL_Driver/Src/stm32n6xx_hal_spi.c ****       SET_BIT(hspi->ErrorCode, HAL_SPI_ERROR_OVR);
 10770              		.loc 1 3830 7
 10771 00b0 7B68     		ldr	r3, [r7, #4]
 10772 00b2 D3F88C30 		ldr	r3, [r3, #140]
 10773 00b6 43F00402 		orr	r2, r3, #4
 10774 00ba 7B68     		ldr	r3, [r7, #4]
 10775 00bc C3F88C20 		str	r2, [r3, #140]
3831:STM32Cube_FW_N6/Drivers/STM32N6xx_HAL_Driver/Src/stm32n6xx_hal_spi.c ****       __HAL_SPI_CLEAR_OVRFLAG(hspi);
 10776              		.loc 1 3831 7
 10777 00c0 7B68     		ldr	r3, [r7, #4]
 10778 00c2 1B68     		ldr	r3, [r3]
 10779 00c4 9A69     		ldr	r2, [r3, #24]
 10780 00c6 7B68     		ldr	r3, [r7, #4]
 10781 00c8 1B68     		ldr	r3, [r3]
 10782 00ca 42F04002 		orr	r2, r2, #64
 10783 00ce 9A61     		str	r2, [r3, #24]
 10784              	.L485:
3832:STM32Cube_FW_N6/Drivers/STM32N6xx_HAL_Driver/Src/stm32n6xx_hal_spi.c ****     }
3833:STM32Cube_FW_N6/Drivers/STM32N6xx_HAL_Driver/Src/stm32n6xx_hal_spi.c **** 
3834:STM32Cube_FW_N6/Drivers/STM32N6xx_HAL_Driver/Src/stm32n6xx_hal_spi.c **** #if (USE_SPI_CRC != 0UL)
ARM GAS  /tmp/ccwTXtVb.s 			page 257


3835:STM32Cube_FW_N6/Drivers/STM32N6xx_HAL_Driver/Src/stm32n6xx_hal_spi.c ****     /* Check if CRC error occurred */
3836:STM32Cube_FW_N6/Drivers/STM32N6xx_HAL_Driver/Src/stm32n6xx_hal_spi.c ****     if (hspi->Init.CRCCalculation == SPI_CRCCALCULATION_ENABLE)
 10785              		.loc 1 3836 19
 10786 00d0 7B68     		ldr	r3, [r7, #4]
 10787 00d2 9B6A     		ldr	r3, [r3, #40]
 10788              		.loc 1 3836 8
 10789 00d4 B3F5800F 		cmp	r3, #4194304
 10790 00d8 14D1     		bne	.L484
3837:STM32Cube_FW_N6/Drivers/STM32N6xx_HAL_Driver/Src/stm32n6xx_hal_spi.c ****     {
3838:STM32Cube_FW_N6/Drivers/STM32N6xx_HAL_Driver/Src/stm32n6xx_hal_spi.c ****       if ((itflag & SPI_FLAG_CRCERR) != 0UL)
 10791              		.loc 1 3838 19
 10792 00da FB68     		ldr	r3, [r7, #12]
 10793 00dc 03F08003 		and	r3, r3, #128
 10794              		.loc 1 3838 10
 10795 00e0 002B     		cmp	r3, #0
 10796 00e2 0FD0     		beq	.L484
3839:STM32Cube_FW_N6/Drivers/STM32N6xx_HAL_Driver/Src/stm32n6xx_hal_spi.c ****       {
3840:STM32Cube_FW_N6/Drivers/STM32N6xx_HAL_Driver/Src/stm32n6xx_hal_spi.c ****         SET_BIT(hspi->ErrorCode, HAL_SPI_ERROR_CRC);
 10797              		.loc 1 3840 9
 10798 00e4 7B68     		ldr	r3, [r7, #4]
 10799 00e6 D3F88C30 		ldr	r3, [r3, #140]
 10800 00ea 43F00202 		orr	r2, r3, #2
 10801 00ee 7B68     		ldr	r3, [r7, #4]
 10802 00f0 C3F88C20 		str	r2, [r3, #140]
3841:STM32Cube_FW_N6/Drivers/STM32N6xx_HAL_Driver/Src/stm32n6xx_hal_spi.c ****         __HAL_SPI_CLEAR_CRCERRFLAG(hspi);
 10803              		.loc 1 3841 9
 10804 00f4 7B68     		ldr	r3, [r7, #4]
 10805 00f6 1B68     		ldr	r3, [r3]
 10806 00f8 9A69     		ldr	r2, [r3, #24]
 10807 00fa 7B68     		ldr	r3, [r7, #4]
 10808 00fc 1B68     		ldr	r3, [r3]
 10809 00fe 42F08002 		orr	r2, r2, #128
 10810 0102 9A61     		str	r2, [r3, #24]
 10811              	.L484:
3842:STM32Cube_FW_N6/Drivers/STM32N6xx_HAL_Driver/Src/stm32n6xx_hal_spi.c ****       }
3843:STM32Cube_FW_N6/Drivers/STM32N6xx_HAL_Driver/Src/stm32n6xx_hal_spi.c ****     }
3844:STM32Cube_FW_N6/Drivers/STM32N6xx_HAL_Driver/Src/stm32n6xx_hal_spi.c **** #endif /* USE_SPI_CRC */
3845:STM32Cube_FW_N6/Drivers/STM32N6xx_HAL_Driver/Src/stm32n6xx_hal_spi.c ****   }
3846:STM32Cube_FW_N6/Drivers/STM32N6xx_HAL_Driver/Src/stm32n6xx_hal_spi.c **** 
3847:STM32Cube_FW_N6/Drivers/STM32N6xx_HAL_Driver/Src/stm32n6xx_hal_spi.c ****   /* SPI Mode Fault error interrupt occurred -------------------------------*/
3848:STM32Cube_FW_N6/Drivers/STM32N6xx_HAL_Driver/Src/stm32n6xx_hal_spi.c ****   if ((itflag & SPI_FLAG_MODF) != 0UL)
 10812              		.loc 1 3848 15
 10813 0104 FB68     		ldr	r3, [r7, #12]
 10814 0106 03F40073 		and	r3, r3, #512
 10815              		.loc 1 3848 6
 10816 010a 002B     		cmp	r3, #0
 10817 010c 0FD0     		beq	.L486
3849:STM32Cube_FW_N6/Drivers/STM32N6xx_HAL_Driver/Src/stm32n6xx_hal_spi.c ****   {
3850:STM32Cube_FW_N6/Drivers/STM32N6xx_HAL_Driver/Src/stm32n6xx_hal_spi.c ****     SET_BIT(hspi->ErrorCode, HAL_SPI_ERROR_MODF);
 10818              		.loc 1 3850 5
 10819 010e 7B68     		ldr	r3, [r7, #4]
 10820 0110 D3F88C30 		ldr	r3, [r3, #140]
 10821 0114 43F00102 		orr	r2, r3, #1
 10822 0118 7B68     		ldr	r3, [r7, #4]
 10823 011a C3F88C20 		str	r2, [r3, #140]
3851:STM32Cube_FW_N6/Drivers/STM32N6xx_HAL_Driver/Src/stm32n6xx_hal_spi.c ****     __HAL_SPI_CLEAR_MODFFLAG(hspi);
 10824              		.loc 1 3851 5
ARM GAS  /tmp/ccwTXtVb.s 			page 258


 10825 011e 7B68     		ldr	r3, [r7, #4]
 10826 0120 1B68     		ldr	r3, [r3]
 10827 0122 9A69     		ldr	r2, [r3, #24]
 10828 0124 7B68     		ldr	r3, [r7, #4]
 10829 0126 1B68     		ldr	r3, [r3]
 10830 0128 42F40072 		orr	r2, r2, #512
 10831 012c 9A61     		str	r2, [r3, #24]
 10832              	.L486:
3852:STM32Cube_FW_N6/Drivers/STM32N6xx_HAL_Driver/Src/stm32n6xx_hal_spi.c ****   }
3853:STM32Cube_FW_N6/Drivers/STM32N6xx_HAL_Driver/Src/stm32n6xx_hal_spi.c **** 
3854:STM32Cube_FW_N6/Drivers/STM32N6xx_HAL_Driver/Src/stm32n6xx_hal_spi.c ****   /* SPI Frame error interrupt occurred ------------------------------------*/
3855:STM32Cube_FW_N6/Drivers/STM32N6xx_HAL_Driver/Src/stm32n6xx_hal_spi.c ****   if ((itflag & SPI_FLAG_FRE) != 0UL)
 10833              		.loc 1 3855 15
 10834 012e FB68     		ldr	r3, [r7, #12]
 10835 0130 03F48073 		and	r3, r3, #256
 10836              		.loc 1 3855 6
 10837 0134 002B     		cmp	r3, #0
 10838 0136 0FD0     		beq	.L487
3856:STM32Cube_FW_N6/Drivers/STM32N6xx_HAL_Driver/Src/stm32n6xx_hal_spi.c ****   {
3857:STM32Cube_FW_N6/Drivers/STM32N6xx_HAL_Driver/Src/stm32n6xx_hal_spi.c ****     SET_BIT(hspi->ErrorCode, HAL_SPI_ERROR_FRE);
 10839              		.loc 1 3857 5
 10840 0138 7B68     		ldr	r3, [r7, #4]
 10841 013a D3F88C30 		ldr	r3, [r3, #140]
 10842 013e 43F00802 		orr	r2, r3, #8
 10843 0142 7B68     		ldr	r3, [r7, #4]
 10844 0144 C3F88C20 		str	r2, [r3, #140]
3858:STM32Cube_FW_N6/Drivers/STM32N6xx_HAL_Driver/Src/stm32n6xx_hal_spi.c ****     __HAL_SPI_CLEAR_FREFLAG(hspi);
 10845              		.loc 1 3858 5
 10846 0148 7B68     		ldr	r3, [r7, #4]
 10847 014a 1B68     		ldr	r3, [r3]
 10848 014c 9A69     		ldr	r2, [r3, #24]
 10849 014e 7B68     		ldr	r3, [r7, #4]
 10850 0150 1B68     		ldr	r3, [r3]
 10851 0152 42F48072 		orr	r2, r2, #256
 10852 0156 9A61     		str	r2, [r3, #24]
 10853              	.L487:
3859:STM32Cube_FW_N6/Drivers/STM32N6xx_HAL_Driver/Src/stm32n6xx_hal_spi.c ****   }
3860:STM32Cube_FW_N6/Drivers/STM32N6xx_HAL_Driver/Src/stm32n6xx_hal_spi.c **** 
3861:STM32Cube_FW_N6/Drivers/STM32N6xx_HAL_Driver/Src/stm32n6xx_hal_spi.c ****   hspi->TxXferCount = (uint16_t)0UL;
 10854              		.loc 1 3861 21
 10855 0158 7B68     		ldr	r3, [r7, #4]
 10856 015a 0022     		movs	r2, #0
 10857 015c A3F86A20 		strh	r2, [r3, #106]	@ movhi
3862:STM32Cube_FW_N6/Drivers/STM32N6xx_HAL_Driver/Src/stm32n6xx_hal_spi.c ****   hspi->RxXferCount = (uint16_t)0UL;
 10858              		.loc 1 3862 21
 10859 0160 7B68     		ldr	r3, [r7, #4]
 10860 0162 0022     		movs	r2, #0
 10861 0164 A3F87220 		strh	r2, [r3, #114]	@ movhi
3863:STM32Cube_FW_N6/Drivers/STM32N6xx_HAL_Driver/Src/stm32n6xx_hal_spi.c **** }
 10862              		.loc 1 3863 1
 10863 0168 00BF     		nop
 10864 016a 1437     		adds	r7, r7, #20
 10865              		.cfi_def_cfa_offset 4
 10866 016c BD46     		mov	sp, r7
 10867              		.cfi_def_cfa_register 13
 10868              		@ sp needed
 10869 016e 5DF8047B 		ldr	r7, [sp], #4
ARM GAS  /tmp/ccwTXtVb.s 			page 259


 10870              		.cfi_restore 7
 10871              		.cfi_def_cfa_offset 0
 10872 0172 7047     		bx	lr
 10873              		.cfi_endproc
 10874              	.LFE882:
 10876              		.section	.text.SPI_WaitOnFlagUntilTimeout,"ax",%progbits
 10877              		.align	1
 10878              		.syntax unified
 10879              		.thumb
 10880              		.thumb_func
 10882              	SPI_WaitOnFlagUntilTimeout:
 10883              	.LFB883:
3864:STM32Cube_FW_N6/Drivers/STM32N6xx_HAL_Driver/Src/stm32n6xx_hal_spi.c **** 
3865:STM32Cube_FW_N6/Drivers/STM32N6xx_HAL_Driver/Src/stm32n6xx_hal_spi.c **** /**
3866:STM32Cube_FW_N6/Drivers/STM32N6xx_HAL_Driver/Src/stm32n6xx_hal_spi.c ****   * @brief Handle SPI Communication Timeout.
3867:STM32Cube_FW_N6/Drivers/STM32N6xx_HAL_Driver/Src/stm32n6xx_hal_spi.c ****   * @param hspi: pointer to a SPI_HandleTypeDef structure that contains
3868:STM32Cube_FW_N6/Drivers/STM32N6xx_HAL_Driver/Src/stm32n6xx_hal_spi.c ****   *              the configuration information for SPI module.
3869:STM32Cube_FW_N6/Drivers/STM32N6xx_HAL_Driver/Src/stm32n6xx_hal_spi.c ****   * @param Flag: SPI flag to check
3870:STM32Cube_FW_N6/Drivers/STM32N6xx_HAL_Driver/Src/stm32n6xx_hal_spi.c ****   * @param Status: flag state to check
3871:STM32Cube_FW_N6/Drivers/STM32N6xx_HAL_Driver/Src/stm32n6xx_hal_spi.c ****   * @param Timeout: Timeout duration
3872:STM32Cube_FW_N6/Drivers/STM32N6xx_HAL_Driver/Src/stm32n6xx_hal_spi.c ****   * @param Tickstart: Tick start value
3873:STM32Cube_FW_N6/Drivers/STM32N6xx_HAL_Driver/Src/stm32n6xx_hal_spi.c ****   * @retval HAL status
3874:STM32Cube_FW_N6/Drivers/STM32N6xx_HAL_Driver/Src/stm32n6xx_hal_spi.c ****   */
3875:STM32Cube_FW_N6/Drivers/STM32N6xx_HAL_Driver/Src/stm32n6xx_hal_spi.c **** static HAL_StatusTypeDef SPI_WaitOnFlagUntilTimeout(const SPI_HandleTypeDef *hspi, uint32_t Flag, F
3876:STM32Cube_FW_N6/Drivers/STM32N6xx_HAL_Driver/Src/stm32n6xx_hal_spi.c ****                                                     uint32_t Timeout, uint32_t Tickstart)
3877:STM32Cube_FW_N6/Drivers/STM32N6xx_HAL_Driver/Src/stm32n6xx_hal_spi.c **** {
 10884              		.loc 1 3877 1
 10885              		.cfi_startproc
 10886              		@ args = 4, pretend = 0, frame = 16
 10887              		@ frame_needed = 1, uses_anonymous_args = 0
 10888 0000 80B5     		push	{r7, lr}
 10889              		.cfi_def_cfa_offset 8
 10890              		.cfi_offset 7, -8
 10891              		.cfi_offset 14, -4
 10892 0002 84B0     		sub	sp, sp, #16
 10893              		.cfi_def_cfa_offset 24
 10894 0004 00AF     		add	r7, sp, #0
 10895              		.cfi_def_cfa_register 7
 10896 0006 F860     		str	r0, [r7, #12]
 10897 0008 B960     		str	r1, [r7, #8]
 10898 000a 3B60     		str	r3, [r7]
 10899 000c 1346     		mov	r3, r2
 10900 000e FB71     		strb	r3, [r7, #7]
3878:STM32Cube_FW_N6/Drivers/STM32N6xx_HAL_Driver/Src/stm32n6xx_hal_spi.c ****   /* Wait until flag is set */
3879:STM32Cube_FW_N6/Drivers/STM32N6xx_HAL_Driver/Src/stm32n6xx_hal_spi.c ****   while ((__HAL_SPI_GET_FLAG(hspi, Flag) ? SET : RESET) == Status)
 10901              		.loc 1 3879 9
 10902 0010 10E0     		b	.L489
 10903              	.L493:
3880:STM32Cube_FW_N6/Drivers/STM32N6xx_HAL_Driver/Src/stm32n6xx_hal_spi.c ****   {
3881:STM32Cube_FW_N6/Drivers/STM32N6xx_HAL_Driver/Src/stm32n6xx_hal_spi.c ****     /* Check for the Timeout */
3882:STM32Cube_FW_N6/Drivers/STM32N6xx_HAL_Driver/Src/stm32n6xx_hal_spi.c ****     if ((((HAL_GetTick() - Tickstart) >=  Timeout) && (Timeout != HAL_MAX_DELAY)) || (Timeout == 0U
 10904              		.loc 1 3882 12
 10905 0012 FFF7FEFF 		bl	HAL_GetTick
 10906 0016 0246     		mov	r2, r0
 10907              		.loc 1 3882 26 discriminator 1
 10908 0018 BB69     		ldr	r3, [r7, #24]
 10909 001a D31A     		subs	r3, r2, r3
ARM GAS  /tmp/ccwTXtVb.s 			page 260


 10910              		.loc 1 3882 8 discriminator 1
 10911 001c 3A68     		ldr	r2, [r7]
 10912 001e 9A42     		cmp	r2, r3
 10913 0020 03D8     		bhi	.L490
 10914              		.loc 1 3882 52 discriminator 1
 10915 0022 3B68     		ldr	r3, [r7]
 10916 0024 B3F1FF3F 		cmp	r3, #-1
 10917 0028 02D1     		bne	.L491
 10918              	.L490:
 10919              		.loc 1 3882 83 discriminator 3
 10920 002a 3B68     		ldr	r3, [r7]
 10921 002c 002B     		cmp	r3, #0
 10922 002e 01D1     		bne	.L489
 10923              	.L491:
3883:STM32Cube_FW_N6/Drivers/STM32N6xx_HAL_Driver/Src/stm32n6xx_hal_spi.c ****     {
3884:STM32Cube_FW_N6/Drivers/STM32N6xx_HAL_Driver/Src/stm32n6xx_hal_spi.c ****       return HAL_TIMEOUT;
 10924              		.loc 1 3884 14
 10925 0030 0323     		movs	r3, #3
 10926 0032 0FE0     		b	.L492
 10927              	.L489:
3879:STM32Cube_FW_N6/Drivers/STM32N6xx_HAL_Driver/Src/stm32n6xx_hal_spi.c ****   {
 10928              		.loc 1 3879 11
 10929 0034 FB68     		ldr	r3, [r7, #12]
 10930 0036 1B68     		ldr	r3, [r3]
 10931 0038 5A69     		ldr	r2, [r3, #20]
 10932 003a BB68     		ldr	r3, [r7, #8]
 10933 003c 1340     		ands	r3, r3, r2
3879:STM32Cube_FW_N6/Drivers/STM32N6xx_HAL_Driver/Src/stm32n6xx_hal_spi.c ****   {
 10934              		.loc 1 3879 48
 10935 003e BA68     		ldr	r2, [r7, #8]
 10936 0040 9A42     		cmp	r2, r3
 10937 0042 0CBF     		ite	eq
 10938 0044 0123     		moveq	r3, #1
 10939 0046 0023     		movne	r3, #0
 10940 0048 DBB2     		uxtb	r3, r3
 10941 004a 1A46     		mov	r2, r3
3879:STM32Cube_FW_N6/Drivers/STM32N6xx_HAL_Driver/Src/stm32n6xx_hal_spi.c ****   {
 10942              		.loc 1 3879 57
 10943 004c FB79     		ldrb	r3, [r7, #7]	@ zero_extendqisi2
 10944 004e 9A42     		cmp	r2, r3
 10945 0050 DFD0     		beq	.L493
3885:STM32Cube_FW_N6/Drivers/STM32N6xx_HAL_Driver/Src/stm32n6xx_hal_spi.c ****     }
3886:STM32Cube_FW_N6/Drivers/STM32N6xx_HAL_Driver/Src/stm32n6xx_hal_spi.c ****   }
3887:STM32Cube_FW_N6/Drivers/STM32N6xx_HAL_Driver/Src/stm32n6xx_hal_spi.c ****   return HAL_OK;
 10946              		.loc 1 3887 10
 10947 0052 0023     		movs	r3, #0
 10948              	.L492:
3888:STM32Cube_FW_N6/Drivers/STM32N6xx_HAL_Driver/Src/stm32n6xx_hal_spi.c **** }
 10949              		.loc 1 3888 1
 10950 0054 1846     		mov	r0, r3
 10951 0056 1037     		adds	r7, r7, #16
 10952              		.cfi_def_cfa_offset 8
 10953 0058 BD46     		mov	sp, r7
 10954              		.cfi_def_cfa_register 13
 10955              		@ sp needed
 10956 005a 80BD     		pop	{r7, pc}
 10957              		.cfi_endproc
ARM GAS  /tmp/ccwTXtVb.s 			page 261


 10958              	.LFE883:
 10960              		.section	.text.SPI_GetPacketSize,"ax",%progbits
 10961              		.align	1
 10962              		.syntax unified
 10963              		.thumb
 10964              		.thumb_func
 10966              	SPI_GetPacketSize:
 10967              	.LFB884:
3889:STM32Cube_FW_N6/Drivers/STM32N6xx_HAL_Driver/Src/stm32n6xx_hal_spi.c **** 
3890:STM32Cube_FW_N6/Drivers/STM32N6xx_HAL_Driver/Src/stm32n6xx_hal_spi.c **** /**
3891:STM32Cube_FW_N6/Drivers/STM32N6xx_HAL_Driver/Src/stm32n6xx_hal_spi.c ****   * @brief  Compute configured packet size from fifo perspective.
3892:STM32Cube_FW_N6/Drivers/STM32N6xx_HAL_Driver/Src/stm32n6xx_hal_spi.c ****   * @param  hspi: pointer to a SPI_HandleTypeDef structure that contains
3893:STM32Cube_FW_N6/Drivers/STM32N6xx_HAL_Driver/Src/stm32n6xx_hal_spi.c ****   *               the configuration information for SPI module.
3894:STM32Cube_FW_N6/Drivers/STM32N6xx_HAL_Driver/Src/stm32n6xx_hal_spi.c ****   * @retval Packet size occupied in the fifo
3895:STM32Cube_FW_N6/Drivers/STM32N6xx_HAL_Driver/Src/stm32n6xx_hal_spi.c ****   */
3896:STM32Cube_FW_N6/Drivers/STM32N6xx_HAL_Driver/Src/stm32n6xx_hal_spi.c **** static uint32_t SPI_GetPacketSize(const SPI_HandleTypeDef *hspi)
3897:STM32Cube_FW_N6/Drivers/STM32N6xx_HAL_Driver/Src/stm32n6xx_hal_spi.c **** {
 10968              		.loc 1 3897 1
 10969              		.cfi_startproc
 10970              		@ args = 0, pretend = 0, frame = 16
 10971              		@ frame_needed = 1, uses_anonymous_args = 0
 10972              		@ link register save eliminated.
 10973 0000 80B4     		push	{r7}
 10974              		.cfi_def_cfa_offset 4
 10975              		.cfi_offset 7, -4
 10976 0002 85B0     		sub	sp, sp, #20
 10977              		.cfi_def_cfa_offset 24
 10978 0004 00AF     		add	r7, sp, #0
 10979              		.cfi_def_cfa_register 7
 10980 0006 7860     		str	r0, [r7, #4]
3898:STM32Cube_FW_N6/Drivers/STM32N6xx_HAL_Driver/Src/stm32n6xx_hal_spi.c ****   uint32_t fifo_threashold = (hspi->Init.FifoThreshold >> SPI_CFG1_FTHLV_Pos) + 1UL;
 10981              		.loc 1 3898 41
 10982 0008 7B68     		ldr	r3, [r7, #4]
 10983 000a DB6B     		ldr	r3, [r3, #60]
 10984              		.loc 1 3898 56
 10985 000c 5B09     		lsrs	r3, r3, #5
 10986              		.loc 1 3898 12
 10987 000e 0133     		adds	r3, r3, #1
 10988 0010 FB60     		str	r3, [r7, #12]
3899:STM32Cube_FW_N6/Drivers/STM32N6xx_HAL_Driver/Src/stm32n6xx_hal_spi.c ****   uint32_t data_size       = (hspi->Init.DataSize      >> SPI_CFG1_DSIZE_Pos) + 1UL;
 10989              		.loc 1 3899 41
 10990 0012 7B68     		ldr	r3, [r7, #4]
 10991 0014 DB68     		ldr	r3, [r3, #12]
 10992              		.loc 1 3899 12
 10993 0016 0133     		adds	r3, r3, #1
 10994 0018 BB60     		str	r3, [r7, #8]
3900:STM32Cube_FW_N6/Drivers/STM32N6xx_HAL_Driver/Src/stm32n6xx_hal_spi.c **** 
3901:STM32Cube_FW_N6/Drivers/STM32N6xx_HAL_Driver/Src/stm32n6xx_hal_spi.c ****   /* Convert data size to Byte */
3902:STM32Cube_FW_N6/Drivers/STM32N6xx_HAL_Driver/Src/stm32n6xx_hal_spi.c ****   data_size = (data_size + 7UL) / 8UL;
 10995              		.loc 1 3902 26
 10996 001a BB68     		ldr	r3, [r7, #8]
 10997 001c 0733     		adds	r3, r3, #7
 10998              		.loc 1 3902 13
 10999 001e DB08     		lsrs	r3, r3, #3
 11000 0020 BB60     		str	r3, [r7, #8]
3903:STM32Cube_FW_N6/Drivers/STM32N6xx_HAL_Driver/Src/stm32n6xx_hal_spi.c **** 
3904:STM32Cube_FW_N6/Drivers/STM32N6xx_HAL_Driver/Src/stm32n6xx_hal_spi.c ****   return data_size * fifo_threashold;
ARM GAS  /tmp/ccwTXtVb.s 			page 262


 11001              		.loc 1 3904 20
 11002 0022 BB68     		ldr	r3, [r7, #8]
 11003 0024 FA68     		ldr	r2, [r7, #12]
 11004 0026 02FB03F3 		mul	r3, r2, r3
3905:STM32Cube_FW_N6/Drivers/STM32N6xx_HAL_Driver/Src/stm32n6xx_hal_spi.c **** }
 11005              		.loc 1 3905 1
 11006 002a 1846     		mov	r0, r3
 11007 002c 1437     		adds	r7, r7, #20
 11008              		.cfi_def_cfa_offset 4
 11009 002e BD46     		mov	sp, r7
 11010              		.cfi_def_cfa_register 13
 11011              		@ sp needed
 11012 0030 5DF8047B 		ldr	r7, [sp], #4
 11013              		.cfi_restore 7
 11014              		.cfi_def_cfa_offset 0
 11015 0034 7047     		bx	lr
 11016              		.cfi_endproc
 11017              	.LFE884:
 11019              		.text
 11020              	.Letext0:
 11021              		.file 2 "/home/tanjiajun2002/renesas/rzv/e2studio_v2025-01_fsp_v3.1.0/toolchains/gcc_arm/arm-gnu-t
 11022              		.file 3 "/home/tanjiajun2002/renesas/rzv/e2studio_v2025-01_fsp_v3.1.0/toolchains/gcc_arm/arm-gnu-t
 11023              		.file 4 "STM32Cube_FW_N6/Drivers/CMSIS/Device/ST/STM32N6xx/Include/stm32n657xx.h"
 11024              		.file 5 "STM32Cube_FW_N6/Drivers/CMSIS/Device/ST/STM32N6xx/Include/stm32n6xx.h"
 11025              		.file 6 "STM32Cube_FW_N6/Drivers/STM32N6xx_HAL_Driver/Inc/stm32n6xx_hal_def.h"
 11026              		.file 7 "STM32Cube_FW_N6/Drivers/STM32N6xx_HAL_Driver/Inc/stm32n6xx_hal_dma.h"
 11027              		.file 8 "STM32Cube_FW_N6/Drivers/STM32N6xx_HAL_Driver/Inc/stm32n6xx_hal_dma_ex.h"
 11028              		.file 9 "STM32Cube_FW_N6/Drivers/STM32N6xx_HAL_Driver/Inc/stm32n6xx_hal_spi.h"
 11029              		.file 10 "STM32Cube_FW_N6/Drivers/CMSIS/Device/ST/STM32N6xx/Include/system_stm32n6xx.h"
 11030              		.file 11 "STM32Cube_FW_N6/Drivers/STM32N6xx_HAL_Driver/Inc/stm32n6xx_hal.h"
 11031              		.file 12 "Inc/stm32n6xx_hal_conf.h"
ARM GAS  /tmp/ccwTXtVb.s 			page 263


DEFINED SYMBOLS
                            *ABS*:00000000 stm32n6xx_hal_spi.c
     /tmp/ccwTXtVb.s:26     .rodata:00000000 $d
     /tmp/ccwTXtVb.s:31     .text.HAL_SPI_Init:00000000 $t
     /tmp/ccwTXtVb.s:37     .text.HAL_SPI_Init:00000000 HAL_SPI_Init
     /tmp/ccwTXtVb.s:267    .text.HAL_SPI_Init:0000017c $d
     /tmp/ccwTXtVb.s:282    .text.HAL_SPI_Init:000001b0 $t
     /tmp/ccwTXtVb.s:738    .text.HAL_SPI_Init:000004d4 $d
     /tmp/ccwTXtVb.s:745    .text.HAL_SPI_Init:000004e8 $t
     /tmp/ccwTXtVb.s:10966  .text.SPI_GetPacketSize:00000000 SPI_GetPacketSize
     /tmp/ccwTXtVb.s:1204   .text.HAL_SPI_Init:00000808 $d
     /tmp/ccwTXtVb.s:1219   .text.HAL_SPI_Init:0000083c $t
     /tmp/ccwTXtVb.s:1826   .text.HAL_SPI_MspInit:00000000 HAL_SPI_MspInit
     /tmp/ccwTXtVb.s:1640   .text.HAL_SPI_Init:00000b00 $d
     /tmp/ccwTXtVb.s:1656   .text.HAL_SPI_DeInit:00000000 $t
     /tmp/ccwTXtVb.s:1662   .text.HAL_SPI_DeInit:00000000 HAL_SPI_DeInit
     /tmp/ccwTXtVb.s:1862   .text.HAL_SPI_MspDeInit:00000000 HAL_SPI_MspDeInit
     /tmp/ccwTXtVb.s:1803   .text.HAL_SPI_DeInit:000000d4 $d
     /tmp/ccwTXtVb.s:1820   .text.HAL_SPI_MspInit:00000000 $t
     /tmp/ccwTXtVb.s:1856   .text.HAL_SPI_MspDeInit:00000000 $t
     /tmp/ccwTXtVb.s:1892   .text.HAL_SPI_Transmit:00000000 $t
     /tmp/ccwTXtVb.s:1898   .text.HAL_SPI_Transmit:00000000 HAL_SPI_Transmit
     /tmp/ccwTXtVb.s:10667  .text.SPI_CloseTransfer:00000000 SPI_CloseTransfer
     /tmp/ccwTXtVb.s:2289   .text.HAL_SPI_Transmit:00000270 $d
     /tmp/ccwTXtVb.s:2300   .text.HAL_SPI_Transmit:00000294 $t
     /tmp/ccwTXtVb.s:10882  .text.SPI_WaitOnFlagUntilTimeout:00000000 SPI_WaitOnFlagUntilTimeout
     /tmp/ccwTXtVb.s:2597   .text.HAL_SPI_Receive:00000000 $t
     /tmp/ccwTXtVb.s:2603   .text.HAL_SPI_Receive:00000000 HAL_SPI_Receive
     /tmp/ccwTXtVb.s:3003   .text.HAL_SPI_Receive:00000280 $d
     /tmp/ccwTXtVb.s:3014   .text.HAL_SPI_Receive:000002a4 $t
     /tmp/ccwTXtVb.s:3505   .text.HAL_SPI_TransmitReceive:00000000 $t
     /tmp/ccwTXtVb.s:3511   .text.HAL_SPI_TransmitReceive:00000000 HAL_SPI_TransmitReceive
     /tmp/ccwTXtVb.s:3818   .text.HAL_SPI_TransmitReceive:000001dc $d
     /tmp/ccwTXtVb.s:3829   .text.HAL_SPI_TransmitReceive:00000200 $t
     /tmp/ccwTXtVb.s:4650   .text.HAL_SPI_Transmit_IT:00000000 $t
     /tmp/ccwTXtVb.s:4656   .text.HAL_SPI_Transmit_IT:00000000 HAL_SPI_Transmit_IT
     /tmp/ccwTXtVb.s:4934   .text.HAL_SPI_Transmit_IT:000001b8 $d
     /tmp/ccwTXtVb.s:10458  .text.SPI_TxISR_32BIT:00000000 SPI_TxISR_32BIT
     /tmp/ccwTXtVb.s:10377  .text.SPI_TxISR_16BIT:00000000 SPI_TxISR_16BIT
     /tmp/ccwTXtVb.s:10298  .text.SPI_TxISR_8BIT:00000000 SPI_TxISR_8BIT
     /tmp/ccwTXtVb.s:4950   .text.HAL_SPI_Receive_IT:00000000 $t
     /tmp/ccwTXtVb.s:4956   .text.HAL_SPI_Receive_IT:00000000 HAL_SPI_Receive_IT
     /tmp/ccwTXtVb.s:5234   .text.HAL_SPI_Receive_IT:000001b8 $d
     /tmp/ccwTXtVb.s:10221  .text.SPI_RxISR_32BIT:00000000 SPI_RxISR_32BIT
     /tmp/ccwTXtVb.s:10139  .text.SPI_RxISR_16BIT:00000000 SPI_RxISR_16BIT
     /tmp/ccwTXtVb.s:10059  .text.SPI_RxISR_8BIT:00000000 SPI_RxISR_8BIT
     /tmp/ccwTXtVb.s:5250   .text.HAL_SPI_TransmitReceive_IT:00000000 $t
     /tmp/ccwTXtVb.s:5256   .text.HAL_SPI_TransmitReceive_IT:00000000 HAL_SPI_TransmitReceive_IT
     /tmp/ccwTXtVb.s:5658   .text.HAL_SPI_TransmitReceive_IT:00000264 $d
     /tmp/ccwTXtVb.s:5677   .text.HAL_SPI_Transmit_DMA:00000000 $t
     /tmp/ccwTXtVb.s:5683   .text.HAL_SPI_Transmit_DMA:00000000 HAL_SPI_Transmit_DMA
     /tmp/ccwTXtVb.s:6049   .text.HAL_SPI_Transmit_DMA:00000238 $d
     /tmp/ccwTXtVb.s:9689   .text.SPI_DMAHalfTransmitCplt:00000000 SPI_DMAHalfTransmitCplt
     /tmp/ccwTXtVb.s:9483   .text.SPI_DMATransmitCplt:00000000 SPI_DMATransmitCplt
     /tmp/ccwTXtVb.s:9806   .text.SPI_DMAError:00000000 SPI_DMAError
     /tmp/ccwTXtVb.s:6063   .text.HAL_SPI_Transmit_DMA:00000268 $t
     /tmp/ccwTXtVb.s:6276   .text.HAL_SPI_Receive_DMA:00000000 $t
ARM GAS  /tmp/ccwTXtVb.s 			page 264


     /tmp/ccwTXtVb.s:6282   .text.HAL_SPI_Receive_DMA:00000000 HAL_SPI_Receive_DMA
     /tmp/ccwTXtVb.s:6652   .text.HAL_SPI_Receive_DMA:0000024c $d
     /tmp/ccwTXtVb.s:9728   .text.SPI_DMAHalfReceiveCplt:00000000 SPI_DMAHalfReceiveCplt
     /tmp/ccwTXtVb.s:9549   .text.SPI_DMAReceiveCplt:00000000 SPI_DMAReceiveCplt
     /tmp/ccwTXtVb.s:6666   .text.HAL_SPI_Receive_DMA:0000027c $t
     /tmp/ccwTXtVb.s:6879   .text.HAL_SPI_TransmitReceive_DMA:00000000 $t
     /tmp/ccwTXtVb.s:6885   .text.HAL_SPI_TransmitReceive_DMA:00000000 HAL_SPI_TransmitReceive_DMA
     /tmp/ccwTXtVb.s:7290   .text.HAL_SPI_TransmitReceive_DMA:00000274 $d
     /tmp/ccwTXtVb.s:9767   .text.SPI_DMAHalfTransmitReceiveCplt:00000000 SPI_DMAHalfTransmitReceiveCplt
     /tmp/ccwTXtVb.s:9615   .text.SPI_DMATransmitReceiveCplt:00000000 SPI_DMATransmitReceiveCplt
     /tmp/ccwTXtVb.s:7304   .text.HAL_SPI_TransmitReceive_DMA:000002a4 $t
     /tmp/ccwTXtVb.s:7713   .text.HAL_SPI_TransmitReceive_DMA:00000538 $d
     /tmp/ccwTXtVb.s:7718   .text.HAL_SPI_Abort:00000000 $t
     /tmp/ccwTXtVb.s:7724   .text.HAL_SPI_Abort:00000000 HAL_SPI_Abort
     /tmp/ccwTXtVb.s:10535  .text.SPI_AbortTransfer:00000000 SPI_AbortTransfer
     /tmp/ccwTXtVb.s:8014   .text.HAL_SPI_Abort:000001e4 $d
     /tmp/ccwTXtVb.s:8020   .text.HAL_SPI_Abort_IT:00000000 $t
     /tmp/ccwTXtVb.s:8026   .text.HAL_SPI_Abort_IT:00000000 HAL_SPI_Abort_IT
     /tmp/ccwTXtVb.s:9333   .text.HAL_SPI_AbortCpltCallback:00000000 HAL_SPI_AbortCpltCallback
     /tmp/ccwTXtVb.s:8347   .text.HAL_SPI_Abort_IT:0000020c $d
     /tmp/ccwTXtVb.s:9917   .text.SPI_DMATxAbortCallback:00000000 SPI_DMATxAbortCallback
     /tmp/ccwTXtVb.s:9988   .text.SPI_DMARxAbortCallback:00000000 SPI_DMARxAbortCallback
     /tmp/ccwTXtVb.s:8355   .text.HAL_SPI_DMAPause:00000000 $t
     /tmp/ccwTXtVb.s:8361   .text.HAL_SPI_DMAPause:00000000 HAL_SPI_DMAPause
     /tmp/ccwTXtVb.s:8399   .text.HAL_SPI_DMAResume:00000000 $t
     /tmp/ccwTXtVb.s:8405   .text.HAL_SPI_DMAResume:00000000 HAL_SPI_DMAResume
     /tmp/ccwTXtVb.s:8443   .text.HAL_SPI_DMAStop:00000000 $t
     /tmp/ccwTXtVb.s:8449   .text.HAL_SPI_DMAStop:00000000 HAL_SPI_DMAStop
     /tmp/ccwTXtVb.s:8487   .text.HAL_SPI_IRQHandler:00000000 $t
     /tmp/ccwTXtVb.s:8493   .text.HAL_SPI_IRQHandler:00000000 HAL_SPI_IRQHandler
     /tmp/ccwTXtVb.s:9369   .text.HAL_SPI_SuspendCallback:00000000 HAL_SPI_SuspendCallback
     /tmp/ccwTXtVb.s:9297   .text.HAL_SPI_ErrorCallback:00000000 HAL_SPI_ErrorCallback
     /tmp/ccwTXtVb.s:9153   .text.HAL_SPI_TxRxCpltCallback:00000000 HAL_SPI_TxRxCpltCallback
     /tmp/ccwTXtVb.s:9117   .text.HAL_SPI_RxCpltCallback:00000000 HAL_SPI_RxCpltCallback
     /tmp/ccwTXtVb.s:9081   .text.HAL_SPI_TxCpltCallback:00000000 HAL_SPI_TxCpltCallback
     /tmp/ccwTXtVb.s:9070   .text.HAL_SPI_IRQHandler:000003a4 $d
     /tmp/ccwTXtVb.s:9866   .text.SPI_DMAAbortOnError:00000000 SPI_DMAAbortOnError
     /tmp/ccwTXtVb.s:9075   .text.HAL_SPI_TxCpltCallback:00000000 $t
     /tmp/ccwTXtVb.s:9111   .text.HAL_SPI_RxCpltCallback:00000000 $t
     /tmp/ccwTXtVb.s:9147   .text.HAL_SPI_TxRxCpltCallback:00000000 $t
     /tmp/ccwTXtVb.s:9183   .text.HAL_SPI_TxHalfCpltCallback:00000000 $t
     /tmp/ccwTXtVb.s:9189   .text.HAL_SPI_TxHalfCpltCallback:00000000 HAL_SPI_TxHalfCpltCallback
     /tmp/ccwTXtVb.s:9219   .text.HAL_SPI_RxHalfCpltCallback:00000000 $t
     /tmp/ccwTXtVb.s:9225   .text.HAL_SPI_RxHalfCpltCallback:00000000 HAL_SPI_RxHalfCpltCallback
     /tmp/ccwTXtVb.s:9255   .text.HAL_SPI_TxRxHalfCpltCallback:00000000 $t
     /tmp/ccwTXtVb.s:9261   .text.HAL_SPI_TxRxHalfCpltCallback:00000000 HAL_SPI_TxRxHalfCpltCallback
     /tmp/ccwTXtVb.s:9291   .text.HAL_SPI_ErrorCallback:00000000 $t
     /tmp/ccwTXtVb.s:9327   .text.HAL_SPI_AbortCpltCallback:00000000 $t
     /tmp/ccwTXtVb.s:9363   .text.HAL_SPI_SuspendCallback:00000000 $t
     /tmp/ccwTXtVb.s:9399   .text.HAL_SPI_GetState:00000000 $t
     /tmp/ccwTXtVb.s:9405   .text.HAL_SPI_GetState:00000000 HAL_SPI_GetState
     /tmp/ccwTXtVb.s:9439   .text.HAL_SPI_GetError:00000000 $t
     /tmp/ccwTXtVb.s:9445   .text.HAL_SPI_GetError:00000000 HAL_SPI_GetError
     /tmp/ccwTXtVb.s:9478   .text.SPI_DMATransmitCplt:00000000 $t
     /tmp/ccwTXtVb.s:9544   .text.SPI_DMAReceiveCplt:00000000 $t
     /tmp/ccwTXtVb.s:9610   .text.SPI_DMATransmitReceiveCplt:00000000 $t
     /tmp/ccwTXtVb.s:9684   .text.SPI_DMAHalfTransmitCplt:00000000 $t
ARM GAS  /tmp/ccwTXtVb.s 			page 265


     /tmp/ccwTXtVb.s:9723   .text.SPI_DMAHalfReceiveCplt:00000000 $t
     /tmp/ccwTXtVb.s:9762   .text.SPI_DMAHalfTransmitReceiveCplt:00000000 $t
     /tmp/ccwTXtVb.s:9801   .text.SPI_DMAError:00000000 $t
     /tmp/ccwTXtVb.s:9861   .text.SPI_DMAAbortOnError:00000000 $t
     /tmp/ccwTXtVb.s:9912   .text.SPI_DMATxAbortCallback:00000000 $t
     /tmp/ccwTXtVb.s:9983   .text.SPI_DMARxAbortCallback:00000000 $t
     /tmp/ccwTXtVb.s:10054  .text.SPI_RxISR_8BIT:00000000 $t
     /tmp/ccwTXtVb.s:10134  .text.SPI_RxISR_16BIT:00000000 $t
     /tmp/ccwTXtVb.s:10216  .text.SPI_RxISR_32BIT:00000000 $t
     /tmp/ccwTXtVb.s:10293  .text.SPI_TxISR_8BIT:00000000 $t
     /tmp/ccwTXtVb.s:10372  .text.SPI_TxISR_16BIT:00000000 $t
     /tmp/ccwTXtVb.s:10453  .text.SPI_TxISR_32BIT:00000000 $t
     /tmp/ccwTXtVb.s:10530  .text.SPI_AbortTransfer:00000000 $t
     /tmp/ccwTXtVb.s:10662  .text.SPI_CloseTransfer:00000000 $t
     /tmp/ccwTXtVb.s:10877  .text.SPI_WaitOnFlagUntilTimeout:00000000 $t
     /tmp/ccwTXtVb.s:10961  .text.SPI_GetPacketSize:00000000 $t
                           .group:00000000 wm4.0.2a10773746a5c5ebb5552f50e466f80b
                           .group:00000000 wm4.stm32n6xx_hal_conf.h.21.004a06df6e15ac197e03f723792da58a
                           .group:00000000 wm4.stddef.h.39.0dc9006b34572d4d9cae4c8b422c4971
                           .group:00000000 wm4.arm_cmse.h.103.a0d15a79c4c9a67da8d5831704d7248e
                           .group:00000000 wm4.stm32n6xx.h.34.80585dd08aa426c932f6311fdb7386da
                           .group:00000000 wm4.stm32n657xx.h.26.acd272cb67318cc1a4791ce2f0720ca6
                           .group:00000000 wm4._newlib_version.h.4.411db44ea2338a62eca2f0777f81481b
                           .group:00000000 wm4.features.h.33.e0c9f337c65cb9f22ed5f23d082bc78b
                           .group:00000000 wm4._default_types.h.15.247e5cd201eca3442cbf5404108c4935
                           .group:00000000 wm4._intsup.h.10.48bafbb683905c4daa4565a85aeeb264
                           .group:00000000 wm4._stdint.h.10.c24fa3af3bc1706662bb5593a907e841
                           .group:00000000 wm4.stdint.h.23.d53047a68f4a85177f80b422d52785ed
                           .group:00000000 wm4.cmsis_version.h.32.0ac195c83bb4537824e6ad1c47474b79
                           .group:00000000 wm4.core_cm55.h.68.832d5cf835639cc0d28219c3d2867330
                           .group:00000000 wm4.cmsis_gcc.h.26.7a5fd1a99dbedde687044a4433ab3e15
                           .group:00000000 wm4.core_cm55.h.196.52e437a270752da561676e507b35baeb
                           .group:00000000 wm4.mpu_armv8.h.32.9d72426c8e2b47753456dcb84802c5b3
                           .group:00000000 wm4.pmu_armv8.h.32.eaa95f88a71b29390b135fd81c071b6b
                           .group:00000000 wm4.core_cm55.h.4411.860dad8650880893dd57b815844f7186
                           .group:00000000 wm4.cachel1_armv7.h.32.abd77761a989e008b0c60891114a33c7
                           .group:00000000 wm4.stm32n657xx.h.575.1c2a5e6bedffc6f9083dcc857bc6d09d
                           .group:00000000 wm4.stm32n6xx.h.114.5cf793d8af485e14f110e3e24bde1aa5
                           .group:00000000 wm4.stm32_hal_legacy.h.22.87fb12bf5a1a1e00fc134f22bc9aa8c4
                           .group:00000000 wm4.newlib.h.7.591ac1bd65c1f5b34864757667a05252
                           .group:00000000 wm4.ieeefp.h.77.bd5feb87d9990dd328793ced294f6a87
                           .group:00000000 wm4.config.h.224.10ee1ad185d877c6e334e6581faab44d
                           .group:00000000 wm4._ansi.h.31.de524f58584151836e90d8620a16f8e8
                           .group:00000000 wm4.cdefs.h.49.70fc7af612f78ddcace70fdd90b5623b
                           .group:00000000 wm4._types.h.20.dd0d04dca3800a0d2a6129b87f3adbb2
                           .group:00000000 wm4.stddef.h.158.6f8e08a347b1cff664332fa350bfceb3
                           .group:00000000 wm4._types.h.127.3bdfe3ff8ea2d0985b03d9cbe93480e3
                           .group:00000000 wm4.reent.h.18.25503cdc8b7e55dd0d6ea7b3e5af7a03
                           .group:00000000 wm4.lock.h.2.1461d1fff82dffe8bfddc23307f6484f
                           .group:00000000 wm4.reent.h.78.6b87466b04591b1f1cb88c14fdf2ba9e
                           .group:00000000 wm4.math.h.13.47cfc34cae8a1153323939c4d32cf7c2
                           .group:00000000 wm4.stm32n6xx_hal_def.h.63.3a8f01490e8852464e9fcb69092e9c75
                           .group:00000000 wm4.stm32n6xx_ll_bus.h.38.2366a295ee4cdb04833997d3787fcd2d
                           .group:00000000 wm4.stm32n6xx_ll_rcc.h.21.002e22a16fd7f67dde6dce41e8ba9620
                           .group:00000000 wm4.stm32n6xx_hal_rcc.h.194.1cb1283e40f9bebcd3fba2a9a961838e
                           .group:00000000 wm4.stm32n6xx_hal_rcc_ex.h.21.79aa32178dfef625fbd20d362449acfa
                           .group:00000000 wm4.stm32n6xx_hal_rcc.h.4359.3f0b7ad33826d95438602c9aebc08af9
ARM GAS  /tmp/ccwTXtVb.s 			page 266


                           .group:00000000 wm4.stm32n6xx_hal_gpio.h.21.89d54af663b98eb8fc098192053f7eeb
                           .group:00000000 wm4.stm32n6xx_hal_gpio_ex.h.22.4acb2e3511a98bb48b81cfc8e09fd59e
                           .group:00000000 wm4.stm32n6xx_hal_rif.h.21.424d0bafb874a777dee3742a22e13037
                           .group:00000000 wm4.stm32n6xx_hal_dma.h.21.61e48c5c2e8d25d22177834b232fe45c
                           .group:00000000 wm4.stm32n6xx_hal_dma_ex.h.21.66e597beb090a165329d6ccf665e41bc
                           .group:00000000 wm4.stm32n6xx_hal_dma.h.1020.87e2180c009560b617c1f8208140c950
                           .group:00000000 wm4.stm32n6xx_hal_cortex.h.21.f493623cc58f9454ab4eae41e395c5cc
                           .group:00000000 wm4.stm32n6xx_hal_bsec.h.21.61b309e67dd810e28897a01b1b21a97f
                           .group:00000000 wm4.stm32n6xx_hal_dcmipp.h.21.f538bfd785c6469670251ac9bc7af55d
                           .group:00000000 wm4.stm32n6xx_hal_dma2d.h.21.75c8d46cdbb72970123b3f34ae2043d7
                           .group:00000000 wm4.stm32n6xx_hal_exti.h.21.fda87e715ea6b98239ec30171d1df594
                           .group:00000000 wm4.stm32n6xx_hal_gfxmmu.h.21.9784a9103143d48bd3c37389d0e0b8e6
                           .group:00000000 wm4.stm32n6xx_hal_i2c.h.21.3f483626ff64c5bf027265bb2e1d1331
                           .group:00000000 wm4.stm32n6xx_hal_i2c_ex.h.21.79e9196c22282cdaf6b4047893638c45
                           .group:00000000 wm4.stm32n6xx_hal_i2c.h.741.1084702632703acc669e4282b3043372
                           .group:00000000 wm4.stm32n6xx_hal_icache.h.21.194b4ec6e76f32b14f65c85616854850
                           .group:00000000 wm4.stm32n6xx_hal_ltdc.h.21.ae1eb09930e7e550e48e418ac5849e4d
                           .group:00000000 wm4.stm32n6xx_hal_ltdc.h.1002.b13ede7fc94ed5ad1c6768a157d2149a
                           .group:00000000 wm4.stm32n6xx_ll_usb.h.21.d518a5d97876c2ff49040c20a2c4a120
                           .group:00000000 wm4.stm32n6xx_hal_pcd.h.155.27040aac6844effe2af8c180caf1dd2e
                           .group:00000000 wm4.stm32n6xx_hal_pwr.h.21.cdb73e4869c3fed3fc84f901ec0e5f0a
                           .group:00000000 wm4.stm32n6xx_hal_pwr_ex.h.21.1a673224a58b0c1e5fad8eeda6514208
                           .group:00000000 wm4.stm32n6xx_hal_ramcfg.h.21.a62dfbb4d2c14e9a8c634a215e37bd3d
                           .group:00000000 wm4.stm32n6xx_hal_spi.h.21.9f810303326e2d91749800e9911f8e4d
                           .group:00000000 wm4.stm32n6xx_hal_spi.h.906.93ec0695066db4253cdbcb7d84358a0b
                           .group:00000000 wm4.stm32n6xx_hal_tim.h.21.839dd2b2a70382fb2c44f8f293a84d5f
                           .group:00000000 wm4.stm32n6xx_hal_tim_ex.h.21.e372d5ac63c13441211ea4ecbd353150
                           .group:00000000 wm4.stm32n6xx_hal_uart.h.21.230f549bfa0d5ebfd77bfb311b2aca15
                           .group:00000000 wm4.stm32n6xx_hal_uart_ex.h.21.a0d5511e1d0703b7b5278c8f5472b96d
                           .group:00000000 wm4.stm32n6xx_hal_xspi.h.21.e17898be2073b6b6b19faf30b4e304e9
                           .group:00000000 wm4.stm32n6xx_hal_cacheaxi.h.21.7c3375b7903ec42376e4883320997f74
                           .group:00000000 wm4.stm32n6xx_hal_gpu2d.h.21.48d0249122abad294a630c39cc4ebaed
                           .group:00000000 wm4.stm32n6xx_hal.h.81.5e59143eba07faca3e9aeaa5470826c8

UNDEFINED SYMBOLS
assert_failed
HAL_GetTick
HAL_DMAEx_List_Start_IT
HAL_DMA_Start_IT
HAL_DMA_Abort
HAL_DMA_GetError
SystemCoreClock
HAL_DMA_Abort_IT
