ARM GAS  /tmp/ccwTXtVb.s 			page 1


   1              		.arch armv8.1-m.main
   2              		.fpu fpv5-d16
   3              		.arch_extension dsp
   4              		.arch_extension fp
   5              		.arch_extension fp.dp
   6              		.arch_extension mve
   7              		.arch_extension mve.fp
   8              		.eabi_attribute 5, "cortex-m55"
   9              		.eabi_attribute 28, 1
  10              		.eabi_attribute 20, 1
  11              		.eabi_attribute 21, 1
  12              		.eabi_attribute 23, 3
  13              		.eabi_attribute 24, 1
  14              		.eabi_attribute 25, 1
  15              		.eabi_attribute 26, 1
  16              		.eabi_attribute 30, 6
  17              		.eabi_attribute 34, 1
  18              		.eabi_attribute 38, 1
  19              		.eabi_attribute 18, 4
  20              		.file	"stm32n6xx_hal_spi.c"
  21              		.text
  22              	.Ltext0:
  23              		.cfi_sections	.debug_frame
  24              		.file 1 "STM32Cube_FW_N6/Drivers/STM32N6xx_HAL_Driver/Src/stm32n6xx_hal_spi.c"
  25              		.section	.rodata
  26              		.align	2
  27              	.LC0:
  28 0000 53544D33 		.ascii	"STM32Cube_FW_N6/Drivers/STM32N6xx_HAL_Driver/Src/st"
  28      32437562 
  28      655F4657 
  28      5F4E362F 
  28      44726976 
  29 0033 6D33326E 		.ascii	"m32n6xx_hal_spi.c\000"
  29      3678785F 
  29      68616C5F 
  29      7370692E 
  29      6300
  30              		.section	.text.HAL_SPI_Init,"ax",%progbits
  31              		.align	1
  32              		.global	HAL_SPI_Init
  33              		.syntax unified
  34              		.thumb
  35              		.thumb_func
  37              	HAL_SPI_Init:
  38              	.LFB835:
   1:STM32Cube_FW_N6/Drivers/STM32N6xx_HAL_Driver/Src/stm32n6xx_hal_spi.c **** /**
   2:STM32Cube_FW_N6/Drivers/STM32N6xx_HAL_Driver/Src/stm32n6xx_hal_spi.c ****   ******************************************************************************
   3:STM32Cube_FW_N6/Drivers/STM32N6xx_HAL_Driver/Src/stm32n6xx_hal_spi.c ****   * @file    stm32n6xx_hal_spi.c
   4:STM32Cube_FW_N6/Drivers/STM32N6xx_HAL_Driver/Src/stm32n6xx_hal_spi.c ****   * @author  MCD Application Team
   5:STM32Cube_FW_N6/Drivers/STM32N6xx_HAL_Driver/Src/stm32n6xx_hal_spi.c ****   * @brief   SPI HAL module driver.
   6:STM32Cube_FW_N6/Drivers/STM32N6xx_HAL_Driver/Src/stm32n6xx_hal_spi.c ****   *          This file provides firmware functions to manage the following
   7:STM32Cube_FW_N6/Drivers/STM32N6xx_HAL_Driver/Src/stm32n6xx_hal_spi.c ****   *          functionalities of the Serial Peripheral Interface (SPI) peripheral:
   8:STM32Cube_FW_N6/Drivers/STM32N6xx_HAL_Driver/Src/stm32n6xx_hal_spi.c ****   *           + Initialization and de-initialization functions
   9:STM32Cube_FW_N6/Drivers/STM32N6xx_HAL_Driver/Src/stm32n6xx_hal_spi.c ****   *           + IO operation functions
  10:STM32Cube_FW_N6/Drivers/STM32N6xx_HAL_Driver/Src/stm32n6xx_hal_spi.c ****   *           + Peripheral Control functions
  11:STM32Cube_FW_N6/Drivers/STM32N6xx_HAL_Driver/Src/stm32n6xx_hal_spi.c ****   *           + Peripheral State functions
  12:STM32Cube_FW_N6/Drivers/STM32N6xx_HAL_Driver/Src/stm32n6xx_hal_spi.c ****   *
ARM GAS  /tmp/ccwTXtVb.s 			page 2


  13:STM32Cube_FW_N6/Drivers/STM32N6xx_HAL_Driver/Src/stm32n6xx_hal_spi.c ****   ******************************************************************************
  14:STM32Cube_FW_N6/Drivers/STM32N6xx_HAL_Driver/Src/stm32n6xx_hal_spi.c ****   * @attention
  15:STM32Cube_FW_N6/Drivers/STM32N6xx_HAL_Driver/Src/stm32n6xx_hal_spi.c ****   *
  16:STM32Cube_FW_N6/Drivers/STM32N6xx_HAL_Driver/Src/stm32n6xx_hal_spi.c ****   * Copyright (c) 2023 STMicroelectronics.
  17:STM32Cube_FW_N6/Drivers/STM32N6xx_HAL_Driver/Src/stm32n6xx_hal_spi.c ****   * All rights reserved.
  18:STM32Cube_FW_N6/Drivers/STM32N6xx_HAL_Driver/Src/stm32n6xx_hal_spi.c ****   *
  19:STM32Cube_FW_N6/Drivers/STM32N6xx_HAL_Driver/Src/stm32n6xx_hal_spi.c ****   * This software is licensed under terms that can be found in the LICENSE file
  20:STM32Cube_FW_N6/Drivers/STM32N6xx_HAL_Driver/Src/stm32n6xx_hal_spi.c ****   * in the root directory of this software component.
  21:STM32Cube_FW_N6/Drivers/STM32N6xx_HAL_Driver/Src/stm32n6xx_hal_spi.c ****   * If no LICENSE file comes with this software, it is provided AS-IS.
  22:STM32Cube_FW_N6/Drivers/STM32N6xx_HAL_Driver/Src/stm32n6xx_hal_spi.c ****   *
  23:STM32Cube_FW_N6/Drivers/STM32N6xx_HAL_Driver/Src/stm32n6xx_hal_spi.c ****   ******************************************************************************
  24:STM32Cube_FW_N6/Drivers/STM32N6xx_HAL_Driver/Src/stm32n6xx_hal_spi.c ****   @verbatim
  25:STM32Cube_FW_N6/Drivers/STM32N6xx_HAL_Driver/Src/stm32n6xx_hal_spi.c ****   ==============================================================================
  26:STM32Cube_FW_N6/Drivers/STM32N6xx_HAL_Driver/Src/stm32n6xx_hal_spi.c ****                         ##### How to use this driver #####
  27:STM32Cube_FW_N6/Drivers/STM32N6xx_HAL_Driver/Src/stm32n6xx_hal_spi.c ****   ==============================================================================
  28:STM32Cube_FW_N6/Drivers/STM32N6xx_HAL_Driver/Src/stm32n6xx_hal_spi.c ****     [..]
  29:STM32Cube_FW_N6/Drivers/STM32N6xx_HAL_Driver/Src/stm32n6xx_hal_spi.c ****       The SPI HAL driver can be used as follows:
  30:STM32Cube_FW_N6/Drivers/STM32N6xx_HAL_Driver/Src/stm32n6xx_hal_spi.c **** 
  31:STM32Cube_FW_N6/Drivers/STM32N6xx_HAL_Driver/Src/stm32n6xx_hal_spi.c ****       (#) Declare a SPI_HandleTypeDef handle structure, for example:
  32:STM32Cube_FW_N6/Drivers/STM32N6xx_HAL_Driver/Src/stm32n6xx_hal_spi.c ****           SPI_HandleTypeDef  hspi;
  33:STM32Cube_FW_N6/Drivers/STM32N6xx_HAL_Driver/Src/stm32n6xx_hal_spi.c **** 
  34:STM32Cube_FW_N6/Drivers/STM32N6xx_HAL_Driver/Src/stm32n6xx_hal_spi.c ****       (#)Initialize the SPI low level resources by implementing the HAL_SPI_MspInit() API:
  35:STM32Cube_FW_N6/Drivers/STM32N6xx_HAL_Driver/Src/stm32n6xx_hal_spi.c ****           (##) Enable the SPIx interface clock
  36:STM32Cube_FW_N6/Drivers/STM32N6xx_HAL_Driver/Src/stm32n6xx_hal_spi.c ****           (##) SPI pins configuration
  37:STM32Cube_FW_N6/Drivers/STM32N6xx_HAL_Driver/Src/stm32n6xx_hal_spi.c ****               (+++) Enable the clock for the SPI GPIOs
  38:STM32Cube_FW_N6/Drivers/STM32N6xx_HAL_Driver/Src/stm32n6xx_hal_spi.c ****               (+++) Configure these SPI pins as alternate function push-pull
  39:STM32Cube_FW_N6/Drivers/STM32N6xx_HAL_Driver/Src/stm32n6xx_hal_spi.c ****           (##) NVIC configuration if you need to use interrupt process or DMA process
  40:STM32Cube_FW_N6/Drivers/STM32N6xx_HAL_Driver/Src/stm32n6xx_hal_spi.c ****               (+++) Configure the SPIx interrupt priority
  41:STM32Cube_FW_N6/Drivers/STM32N6xx_HAL_Driver/Src/stm32n6xx_hal_spi.c ****               (+++) Enable the NVIC SPI IRQ handle
  42:STM32Cube_FW_N6/Drivers/STM32N6xx_HAL_Driver/Src/stm32n6xx_hal_spi.c ****           (##) DMA Configuration if you need to use DMA process
  43:STM32Cube_FW_N6/Drivers/STM32N6xx_HAL_Driver/Src/stm32n6xx_hal_spi.c ****               (+++) Declare a DMA_HandleTypeDef handle structure for the transmit or receive Stream
  44:STM32Cube_FW_N6/Drivers/STM32N6xx_HAL_Driver/Src/stm32n6xx_hal_spi.c ****               (+++) Enable the DMAx clock
  45:STM32Cube_FW_N6/Drivers/STM32N6xx_HAL_Driver/Src/stm32n6xx_hal_spi.c ****               (+++) Configure the DMA handle parameters
  46:STM32Cube_FW_N6/Drivers/STM32N6xx_HAL_Driver/Src/stm32n6xx_hal_spi.c ****               (+++) Configure the DMA Tx or Rx Stream/Channel
  47:STM32Cube_FW_N6/Drivers/STM32N6xx_HAL_Driver/Src/stm32n6xx_hal_spi.c ****               (+++) Associate the initialized hdma_tx handle to the hspi DMA Tx or Rx handle
  48:STM32Cube_FW_N6/Drivers/STM32N6xx_HAL_Driver/Src/stm32n6xx_hal_spi.c ****               (+++) Configure the priority and enable the NVIC for the transfer complete interrupt 
  49:STM32Cube_FW_N6/Drivers/STM32N6xx_HAL_Driver/Src/stm32n6xx_hal_spi.c ****                     or Rx Stream/Channel
  50:STM32Cube_FW_N6/Drivers/STM32N6xx_HAL_Driver/Src/stm32n6xx_hal_spi.c **** 
  51:STM32Cube_FW_N6/Drivers/STM32N6xx_HAL_Driver/Src/stm32n6xx_hal_spi.c ****       (#) Program the Mode, BidirectionalMode , Data size, Baudrate Prescaler, NSS
  52:STM32Cube_FW_N6/Drivers/STM32N6xx_HAL_Driver/Src/stm32n6xx_hal_spi.c ****           management, Clock polarity and phase, FirstBit and CRC configuration in the hspi Init str
  53:STM32Cube_FW_N6/Drivers/STM32N6xx_HAL_Driver/Src/stm32n6xx_hal_spi.c **** 
  54:STM32Cube_FW_N6/Drivers/STM32N6xx_HAL_Driver/Src/stm32n6xx_hal_spi.c ****       (#) Initialize the SPI registers by calling the HAL_SPI_Init() API:
  55:STM32Cube_FW_N6/Drivers/STM32N6xx_HAL_Driver/Src/stm32n6xx_hal_spi.c ****           (++) This API configures also the low level Hardware GPIO, CLOCK, CORTEX...etc)
  56:STM32Cube_FW_N6/Drivers/STM32N6xx_HAL_Driver/Src/stm32n6xx_hal_spi.c ****               by calling the customized HAL_SPI_MspInit() API.
  57:STM32Cube_FW_N6/Drivers/STM32N6xx_HAL_Driver/Src/stm32n6xx_hal_spi.c ****      [..]
  58:STM32Cube_FW_N6/Drivers/STM32N6xx_HAL_Driver/Src/stm32n6xx_hal_spi.c ****        Callback registration:
  59:STM32Cube_FW_N6/Drivers/STM32N6xx_HAL_Driver/Src/stm32n6xx_hal_spi.c **** 
  60:STM32Cube_FW_N6/Drivers/STM32N6xx_HAL_Driver/Src/stm32n6xx_hal_spi.c ****       (#) The compilation flag USE_HAL_SPI_REGISTER_CALLBACKS when set to 1UL
  61:STM32Cube_FW_N6/Drivers/STM32N6xx_HAL_Driver/Src/stm32n6xx_hal_spi.c ****           allows the user to configure dynamically the driver callbacks.
  62:STM32Cube_FW_N6/Drivers/STM32N6xx_HAL_Driver/Src/stm32n6xx_hal_spi.c ****           Use Functions HAL_SPI_RegisterCallback() to register an interrupt callback.
  63:STM32Cube_FW_N6/Drivers/STM32N6xx_HAL_Driver/Src/stm32n6xx_hal_spi.c **** 
  64:STM32Cube_FW_N6/Drivers/STM32N6xx_HAL_Driver/Src/stm32n6xx_hal_spi.c ****           Function HAL_SPI_RegisterCallback() allows to register following callbacks:
  65:STM32Cube_FW_N6/Drivers/STM32N6xx_HAL_Driver/Src/stm32n6xx_hal_spi.c ****             (+) TxCpltCallback        : SPI Tx Completed callback
  66:STM32Cube_FW_N6/Drivers/STM32N6xx_HAL_Driver/Src/stm32n6xx_hal_spi.c ****             (+) RxCpltCallback        : SPI Rx Completed callback
  67:STM32Cube_FW_N6/Drivers/STM32N6xx_HAL_Driver/Src/stm32n6xx_hal_spi.c ****             (+) TxRxCpltCallback      : SPI TxRx Completed callback
  68:STM32Cube_FW_N6/Drivers/STM32N6xx_HAL_Driver/Src/stm32n6xx_hal_spi.c ****             (+) TxHalfCpltCallback    : SPI Tx Half Completed callback
  69:STM32Cube_FW_N6/Drivers/STM32N6xx_HAL_Driver/Src/stm32n6xx_hal_spi.c ****             (+) RxHalfCpltCallback    : SPI Rx Half Completed callback
ARM GAS  /tmp/ccwTXtVb.s 			page 3


  70:STM32Cube_FW_N6/Drivers/STM32N6xx_HAL_Driver/Src/stm32n6xx_hal_spi.c ****             (+) TxRxHalfCpltCallback  : SPI TxRx Half Completed callback
  71:STM32Cube_FW_N6/Drivers/STM32N6xx_HAL_Driver/Src/stm32n6xx_hal_spi.c ****             (+) ErrorCallback         : SPI Error callback
  72:STM32Cube_FW_N6/Drivers/STM32N6xx_HAL_Driver/Src/stm32n6xx_hal_spi.c ****             (+) AbortCpltCallback     : SPI Abort callback
  73:STM32Cube_FW_N6/Drivers/STM32N6xx_HAL_Driver/Src/stm32n6xx_hal_spi.c ****             (+) SuspendCallback       : SPI Suspend callback
  74:STM32Cube_FW_N6/Drivers/STM32N6xx_HAL_Driver/Src/stm32n6xx_hal_spi.c ****             (+) MspInitCallback       : SPI Msp Init callback
  75:STM32Cube_FW_N6/Drivers/STM32N6xx_HAL_Driver/Src/stm32n6xx_hal_spi.c ****             (+) MspDeInitCallback     : SPI Msp DeInit callback
  76:STM32Cube_FW_N6/Drivers/STM32N6xx_HAL_Driver/Src/stm32n6xx_hal_spi.c ****           This function takes as parameters the HAL peripheral handle, the Callback ID
  77:STM32Cube_FW_N6/Drivers/STM32N6xx_HAL_Driver/Src/stm32n6xx_hal_spi.c ****           and a pointer to the user callback function.
  78:STM32Cube_FW_N6/Drivers/STM32N6xx_HAL_Driver/Src/stm32n6xx_hal_spi.c **** 
  79:STM32Cube_FW_N6/Drivers/STM32N6xx_HAL_Driver/Src/stm32n6xx_hal_spi.c **** 
  80:STM32Cube_FW_N6/Drivers/STM32N6xx_HAL_Driver/Src/stm32n6xx_hal_spi.c ****       (#) Use function HAL_SPI_UnRegisterCallback to reset a callback to the default
  81:STM32Cube_FW_N6/Drivers/STM32N6xx_HAL_Driver/Src/stm32n6xx_hal_spi.c ****           weak function.
  82:STM32Cube_FW_N6/Drivers/STM32N6xx_HAL_Driver/Src/stm32n6xx_hal_spi.c ****           HAL_SPI_UnRegisterCallback takes as parameters the HAL peripheral handle,
  83:STM32Cube_FW_N6/Drivers/STM32N6xx_HAL_Driver/Src/stm32n6xx_hal_spi.c ****           and the Callback ID.
  84:STM32Cube_FW_N6/Drivers/STM32N6xx_HAL_Driver/Src/stm32n6xx_hal_spi.c ****           This function allows to reset following callbacks:
  85:STM32Cube_FW_N6/Drivers/STM32N6xx_HAL_Driver/Src/stm32n6xx_hal_spi.c ****             (+) TxCpltCallback        : SPI Tx Completed callback
  86:STM32Cube_FW_N6/Drivers/STM32N6xx_HAL_Driver/Src/stm32n6xx_hal_spi.c ****             (+) RxCpltCallback        : SPI Rx Completed callback
  87:STM32Cube_FW_N6/Drivers/STM32N6xx_HAL_Driver/Src/stm32n6xx_hal_spi.c ****             (+) TxRxCpltCallback      : SPI TxRx Completed callback
  88:STM32Cube_FW_N6/Drivers/STM32N6xx_HAL_Driver/Src/stm32n6xx_hal_spi.c ****             (+) TxHalfCpltCallback    : SPI Tx Half Completed callback
  89:STM32Cube_FW_N6/Drivers/STM32N6xx_HAL_Driver/Src/stm32n6xx_hal_spi.c ****             (+) RxHalfCpltCallback    : SPI Rx Half Completed callback
  90:STM32Cube_FW_N6/Drivers/STM32N6xx_HAL_Driver/Src/stm32n6xx_hal_spi.c ****             (+) TxRxHalfCpltCallback  : SPI TxRx Half Completed callback
  91:STM32Cube_FW_N6/Drivers/STM32N6xx_HAL_Driver/Src/stm32n6xx_hal_spi.c ****             (+) ErrorCallback         : SPI Error callback
  92:STM32Cube_FW_N6/Drivers/STM32N6xx_HAL_Driver/Src/stm32n6xx_hal_spi.c ****             (+) AbortCpltCallback     : SPI Abort callback
  93:STM32Cube_FW_N6/Drivers/STM32N6xx_HAL_Driver/Src/stm32n6xx_hal_spi.c ****             (+) SuspendCallback       : SPI Suspend callback
  94:STM32Cube_FW_N6/Drivers/STM32N6xx_HAL_Driver/Src/stm32n6xx_hal_spi.c ****             (+) MspInitCallback       : SPI Msp Init callback
  95:STM32Cube_FW_N6/Drivers/STM32N6xx_HAL_Driver/Src/stm32n6xx_hal_spi.c ****             (+) MspDeInitCallback     : SPI Msp DeInit callback
  96:STM32Cube_FW_N6/Drivers/STM32N6xx_HAL_Driver/Src/stm32n6xx_hal_spi.c **** 
  97:STM32Cube_FW_N6/Drivers/STM32N6xx_HAL_Driver/Src/stm32n6xx_hal_spi.c ****        By default, after the HAL_SPI_Init() and when the state is HAL_SPI_STATE_RESET
  98:STM32Cube_FW_N6/Drivers/STM32N6xx_HAL_Driver/Src/stm32n6xx_hal_spi.c ****        all callbacks are set to the corresponding weak functions:
  99:STM32Cube_FW_N6/Drivers/STM32N6xx_HAL_Driver/Src/stm32n6xx_hal_spi.c ****        examples HAL_SPI_MasterTxCpltCallback(), HAL_SPI_MasterRxCpltCallback().
 100:STM32Cube_FW_N6/Drivers/STM32N6xx_HAL_Driver/Src/stm32n6xx_hal_spi.c ****        Exception done for MspInit and MspDeInit functions that are
 101:STM32Cube_FW_N6/Drivers/STM32N6xx_HAL_Driver/Src/stm32n6xx_hal_spi.c ****        reset to the legacy weak functions in the HAL_SPI_Init()/ HAL_SPI_DeInit() only when
 102:STM32Cube_FW_N6/Drivers/STM32N6xx_HAL_Driver/Src/stm32n6xx_hal_spi.c ****        these callbacks are null (not registered beforehand).
 103:STM32Cube_FW_N6/Drivers/STM32N6xx_HAL_Driver/Src/stm32n6xx_hal_spi.c ****        If MspInit or MspDeInit are not null, the HAL_SPI_Init()/ HAL_SPI_DeInit()
 104:STM32Cube_FW_N6/Drivers/STM32N6xx_HAL_Driver/Src/stm32n6xx_hal_spi.c ****        keep and use the user MspInit/MspDeInit callbacks (registered beforehand) whatever the state
 105:STM32Cube_FW_N6/Drivers/STM32N6xx_HAL_Driver/Src/stm32n6xx_hal_spi.c **** 
 106:STM32Cube_FW_N6/Drivers/STM32N6xx_HAL_Driver/Src/stm32n6xx_hal_spi.c ****        Callbacks can be registered/unregistered in HAL_SPI_STATE_READY state only.
 107:STM32Cube_FW_N6/Drivers/STM32N6xx_HAL_Driver/Src/stm32n6xx_hal_spi.c ****        Exception done MspInit/MspDeInit functions that can be registered/unregistered
 108:STM32Cube_FW_N6/Drivers/STM32N6xx_HAL_Driver/Src/stm32n6xx_hal_spi.c ****        in HAL_SPI_STATE_READY or HAL_SPI_STATE_RESET state,
 109:STM32Cube_FW_N6/Drivers/STM32N6xx_HAL_Driver/Src/stm32n6xx_hal_spi.c ****        thus registered (user) MspInit/DeInit callbacks can be used during the Init/DeInit.
 110:STM32Cube_FW_N6/Drivers/STM32N6xx_HAL_Driver/Src/stm32n6xx_hal_spi.c ****        Then, the user first registers the MspInit/MspDeInit user callbacks
 111:STM32Cube_FW_N6/Drivers/STM32N6xx_HAL_Driver/Src/stm32n6xx_hal_spi.c ****        using HAL_SPI_RegisterCallback() before calling HAL_SPI_DeInit()
 112:STM32Cube_FW_N6/Drivers/STM32N6xx_HAL_Driver/Src/stm32n6xx_hal_spi.c ****        or HAL_SPI_Init() function.
 113:STM32Cube_FW_N6/Drivers/STM32N6xx_HAL_Driver/Src/stm32n6xx_hal_spi.c **** 
 114:STM32Cube_FW_N6/Drivers/STM32N6xx_HAL_Driver/Src/stm32n6xx_hal_spi.c ****        When The compilation define USE_HAL_PPP_REGISTER_CALLBACKS is set to 0 or not defined,
 115:STM32Cube_FW_N6/Drivers/STM32N6xx_HAL_Driver/Src/stm32n6xx_hal_spi.c ****        the callback registering feature is not available and weak callbacks are used.
 116:STM32Cube_FW_N6/Drivers/STM32N6xx_HAL_Driver/Src/stm32n6xx_hal_spi.c **** 
 117:STM32Cube_FW_N6/Drivers/STM32N6xx_HAL_Driver/Src/stm32n6xx_hal_spi.c ****        SuspendCallback restriction:
 118:STM32Cube_FW_N6/Drivers/STM32N6xx_HAL_Driver/Src/stm32n6xx_hal_spi.c ****            SuspendCallback is called only when MasterReceiverAutoSusp is enabled and
 119:STM32Cube_FW_N6/Drivers/STM32N6xx_HAL_Driver/Src/stm32n6xx_hal_spi.c ****        EOT interrupt is activated. SuspendCallback is used in relation with functions
 120:STM32Cube_FW_N6/Drivers/STM32N6xx_HAL_Driver/Src/stm32n6xx_hal_spi.c ****        HAL_SPI_Transmit_IT, HAL_SPI_Receive_IT and HAL_SPI_TransmitReceive_IT.
 121:STM32Cube_FW_N6/Drivers/STM32N6xx_HAL_Driver/Src/stm32n6xx_hal_spi.c **** 
 122:STM32Cube_FW_N6/Drivers/STM32N6xx_HAL_Driver/Src/stm32n6xx_hal_spi.c ****     [..]
 123:STM32Cube_FW_N6/Drivers/STM32N6xx_HAL_Driver/Src/stm32n6xx_hal_spi.c ****       Circular mode restriction:
 124:STM32Cube_FW_N6/Drivers/STM32N6xx_HAL_Driver/Src/stm32n6xx_hal_spi.c ****       (+) The DMA circular mode cannot be used when the SPI is configured in these modes:
 125:STM32Cube_FW_N6/Drivers/STM32N6xx_HAL_Driver/Src/stm32n6xx_hal_spi.c ****           (++) Master 2Lines RxOnly
 126:STM32Cube_FW_N6/Drivers/STM32N6xx_HAL_Driver/Src/stm32n6xx_hal_spi.c ****           (++) Master 1Line Rx
ARM GAS  /tmp/ccwTXtVb.s 			page 4


 127:STM32Cube_FW_N6/Drivers/STM32N6xx_HAL_Driver/Src/stm32n6xx_hal_spi.c ****       (+) The CRC feature is not managed when the DMA circular mode is enabled
 128:STM32Cube_FW_N6/Drivers/STM32N6xx_HAL_Driver/Src/stm32n6xx_hal_spi.c ****       (+) The functions HAL_SPI_DMAPause()/ HAL_SPI_DMAResume() are not supported. Return always
 129:STM32Cube_FW_N6/Drivers/STM32N6xx_HAL_Driver/Src/stm32n6xx_hal_spi.c ****           HAL_ERROR with ErrorCode set to HAL_SPI_ERROR_NOT_SUPPORTED.
 130:STM32Cube_FW_N6/Drivers/STM32N6xx_HAL_Driver/Src/stm32n6xx_hal_spi.c ****           Those functions are maintained for backward compatibility reasons.
 131:STM32Cube_FW_N6/Drivers/STM32N6xx_HAL_Driver/Src/stm32n6xx_hal_spi.c **** 
 132:STM32Cube_FW_N6/Drivers/STM32N6xx_HAL_Driver/Src/stm32n6xx_hal_spi.c ****   @endverbatim
 133:STM32Cube_FW_N6/Drivers/STM32N6xx_HAL_Driver/Src/stm32n6xx_hal_spi.c ****   */
 134:STM32Cube_FW_N6/Drivers/STM32N6xx_HAL_Driver/Src/stm32n6xx_hal_spi.c **** 
 135:STM32Cube_FW_N6/Drivers/STM32N6xx_HAL_Driver/Src/stm32n6xx_hal_spi.c **** /* Includes ------------------------------------------------------------------*/
 136:STM32Cube_FW_N6/Drivers/STM32N6xx_HAL_Driver/Src/stm32n6xx_hal_spi.c **** #include "stm32n6xx_hal.h"
 137:STM32Cube_FW_N6/Drivers/STM32N6xx_HAL_Driver/Src/stm32n6xx_hal_spi.c **** 
 138:STM32Cube_FW_N6/Drivers/STM32N6xx_HAL_Driver/Src/stm32n6xx_hal_spi.c **** /** @addtogroup STM32N6xx_HAL_Driver
 139:STM32Cube_FW_N6/Drivers/STM32N6xx_HAL_Driver/Src/stm32n6xx_hal_spi.c ****   * @{
 140:STM32Cube_FW_N6/Drivers/STM32N6xx_HAL_Driver/Src/stm32n6xx_hal_spi.c ****   */
 141:STM32Cube_FW_N6/Drivers/STM32N6xx_HAL_Driver/Src/stm32n6xx_hal_spi.c **** 
 142:STM32Cube_FW_N6/Drivers/STM32N6xx_HAL_Driver/Src/stm32n6xx_hal_spi.c **** /** @defgroup SPI SPI
 143:STM32Cube_FW_N6/Drivers/STM32N6xx_HAL_Driver/Src/stm32n6xx_hal_spi.c ****   * @brief SPI HAL module driver
 144:STM32Cube_FW_N6/Drivers/STM32N6xx_HAL_Driver/Src/stm32n6xx_hal_spi.c ****   * @{
 145:STM32Cube_FW_N6/Drivers/STM32N6xx_HAL_Driver/Src/stm32n6xx_hal_spi.c ****   */
 146:STM32Cube_FW_N6/Drivers/STM32N6xx_HAL_Driver/Src/stm32n6xx_hal_spi.c **** #ifdef HAL_SPI_MODULE_ENABLED
 147:STM32Cube_FW_N6/Drivers/STM32N6xx_HAL_Driver/Src/stm32n6xx_hal_spi.c **** 
 148:STM32Cube_FW_N6/Drivers/STM32N6xx_HAL_Driver/Src/stm32n6xx_hal_spi.c **** /* Private typedef -----------------------------------------------------------*/
 149:STM32Cube_FW_N6/Drivers/STM32N6xx_HAL_Driver/Src/stm32n6xx_hal_spi.c **** /* Private defines -----------------------------------------------------------*/
 150:STM32Cube_FW_N6/Drivers/STM32N6xx_HAL_Driver/Src/stm32n6xx_hal_spi.c **** /** @defgroup SPI_Private_Constants SPI Private Constants
 151:STM32Cube_FW_N6/Drivers/STM32N6xx_HAL_Driver/Src/stm32n6xx_hal_spi.c ****   * @{
 152:STM32Cube_FW_N6/Drivers/STM32N6xx_HAL_Driver/Src/stm32n6xx_hal_spi.c ****   */
 153:STM32Cube_FW_N6/Drivers/STM32N6xx_HAL_Driver/Src/stm32n6xx_hal_spi.c **** #define SPI_DEFAULT_TIMEOUT 100UL
 154:STM32Cube_FW_N6/Drivers/STM32N6xx_HAL_Driver/Src/stm32n6xx_hal_spi.c **** /**
 155:STM32Cube_FW_N6/Drivers/STM32N6xx_HAL_Driver/Src/stm32n6xx_hal_spi.c ****   * @}
 156:STM32Cube_FW_N6/Drivers/STM32N6xx_HAL_Driver/Src/stm32n6xx_hal_spi.c ****   */
 157:STM32Cube_FW_N6/Drivers/STM32N6xx_HAL_Driver/Src/stm32n6xx_hal_spi.c **** 
 158:STM32Cube_FW_N6/Drivers/STM32N6xx_HAL_Driver/Src/stm32n6xx_hal_spi.c **** /* Private macros ------------------------------------------------------------*/
 159:STM32Cube_FW_N6/Drivers/STM32N6xx_HAL_Driver/Src/stm32n6xx_hal_spi.c **** /* Private variables ---------------------------------------------------------*/
 160:STM32Cube_FW_N6/Drivers/STM32N6xx_HAL_Driver/Src/stm32n6xx_hal_spi.c **** /* Private function prototypes -----------------------------------------------*/
 161:STM32Cube_FW_N6/Drivers/STM32N6xx_HAL_Driver/Src/stm32n6xx_hal_spi.c **** /** @defgroup SPI_Private_Functions SPI Private Functions
 162:STM32Cube_FW_N6/Drivers/STM32N6xx_HAL_Driver/Src/stm32n6xx_hal_spi.c ****   * @{
 163:STM32Cube_FW_N6/Drivers/STM32N6xx_HAL_Driver/Src/stm32n6xx_hal_spi.c ****   */
 164:STM32Cube_FW_N6/Drivers/STM32N6xx_HAL_Driver/Src/stm32n6xx_hal_spi.c **** static void SPI_DMATransmitCplt(DMA_HandleTypeDef *hdma);
 165:STM32Cube_FW_N6/Drivers/STM32N6xx_HAL_Driver/Src/stm32n6xx_hal_spi.c **** static void SPI_DMAReceiveCplt(DMA_HandleTypeDef *hdma);
 166:STM32Cube_FW_N6/Drivers/STM32N6xx_HAL_Driver/Src/stm32n6xx_hal_spi.c **** static void SPI_DMATransmitReceiveCplt(DMA_HandleTypeDef *hdma);
 167:STM32Cube_FW_N6/Drivers/STM32N6xx_HAL_Driver/Src/stm32n6xx_hal_spi.c **** static void SPI_DMAHalfTransmitCplt(DMA_HandleTypeDef *hdma);
 168:STM32Cube_FW_N6/Drivers/STM32N6xx_HAL_Driver/Src/stm32n6xx_hal_spi.c **** static void SPI_DMAHalfReceiveCplt(DMA_HandleTypeDef *hdma);
 169:STM32Cube_FW_N6/Drivers/STM32N6xx_HAL_Driver/Src/stm32n6xx_hal_spi.c **** static void SPI_DMAHalfTransmitReceiveCplt(DMA_HandleTypeDef *hdma);
 170:STM32Cube_FW_N6/Drivers/STM32N6xx_HAL_Driver/Src/stm32n6xx_hal_spi.c **** static void SPI_DMAError(DMA_HandleTypeDef *hdma);
 171:STM32Cube_FW_N6/Drivers/STM32N6xx_HAL_Driver/Src/stm32n6xx_hal_spi.c **** static void SPI_DMAAbortOnError(DMA_HandleTypeDef *hdma);
 172:STM32Cube_FW_N6/Drivers/STM32N6xx_HAL_Driver/Src/stm32n6xx_hal_spi.c **** static void SPI_DMATxAbortCallback(DMA_HandleTypeDef *hdma);
 173:STM32Cube_FW_N6/Drivers/STM32N6xx_HAL_Driver/Src/stm32n6xx_hal_spi.c **** static void SPI_DMARxAbortCallback(DMA_HandleTypeDef *hdma);
 174:STM32Cube_FW_N6/Drivers/STM32N6xx_HAL_Driver/Src/stm32n6xx_hal_spi.c **** static HAL_StatusTypeDef SPI_WaitOnFlagUntilTimeout(const SPI_HandleTypeDef *hspi, uint32_t Flag,
 175:STM32Cube_FW_N6/Drivers/STM32N6xx_HAL_Driver/Src/stm32n6xx_hal_spi.c ****                                                     FlagStatus FlagStatus, uint32_t Timeout, uint32
 176:STM32Cube_FW_N6/Drivers/STM32N6xx_HAL_Driver/Src/stm32n6xx_hal_spi.c **** static void SPI_TxISR_8BIT(SPI_HandleTypeDef *hspi);
 177:STM32Cube_FW_N6/Drivers/STM32N6xx_HAL_Driver/Src/stm32n6xx_hal_spi.c **** static void SPI_TxISR_16BIT(SPI_HandleTypeDef *hspi);
 178:STM32Cube_FW_N6/Drivers/STM32N6xx_HAL_Driver/Src/stm32n6xx_hal_spi.c **** static void SPI_TxISR_32BIT(SPI_HandleTypeDef *hspi);
 179:STM32Cube_FW_N6/Drivers/STM32N6xx_HAL_Driver/Src/stm32n6xx_hal_spi.c **** static void SPI_RxISR_8BIT(SPI_HandleTypeDef *hspi);
 180:STM32Cube_FW_N6/Drivers/STM32N6xx_HAL_Driver/Src/stm32n6xx_hal_spi.c **** static void SPI_RxISR_16BIT(SPI_HandleTypeDef *hspi);
 181:STM32Cube_FW_N6/Drivers/STM32N6xx_HAL_Driver/Src/stm32n6xx_hal_spi.c **** static void SPI_RxISR_32BIT(SPI_HandleTypeDef *hspi);
 182:STM32Cube_FW_N6/Drivers/STM32N6xx_HAL_Driver/Src/stm32n6xx_hal_spi.c **** static void SPI_AbortTransfer(SPI_HandleTypeDef *hspi);
 183:STM32Cube_FW_N6/Drivers/STM32N6xx_HAL_Driver/Src/stm32n6xx_hal_spi.c **** static void SPI_CloseTransfer(SPI_HandleTypeDef *hspi);
ARM GAS  /tmp/ccwTXtVb.s 			page 5


 184:STM32Cube_FW_N6/Drivers/STM32N6xx_HAL_Driver/Src/stm32n6xx_hal_spi.c **** static uint32_t SPI_GetPacketSize(const SPI_HandleTypeDef *hspi);
 185:STM32Cube_FW_N6/Drivers/STM32N6xx_HAL_Driver/Src/stm32n6xx_hal_spi.c **** 
 186:STM32Cube_FW_N6/Drivers/STM32N6xx_HAL_Driver/Src/stm32n6xx_hal_spi.c **** 
 187:STM32Cube_FW_N6/Drivers/STM32N6xx_HAL_Driver/Src/stm32n6xx_hal_spi.c **** /**
 188:STM32Cube_FW_N6/Drivers/STM32N6xx_HAL_Driver/Src/stm32n6xx_hal_spi.c ****   * @}
 189:STM32Cube_FW_N6/Drivers/STM32N6xx_HAL_Driver/Src/stm32n6xx_hal_spi.c ****   */
 190:STM32Cube_FW_N6/Drivers/STM32N6xx_HAL_Driver/Src/stm32n6xx_hal_spi.c **** 
 191:STM32Cube_FW_N6/Drivers/STM32N6xx_HAL_Driver/Src/stm32n6xx_hal_spi.c **** /* Exported functions --------------------------------------------------------*/
 192:STM32Cube_FW_N6/Drivers/STM32N6xx_HAL_Driver/Src/stm32n6xx_hal_spi.c **** /** @defgroup SPI_Exported_Functions SPI Exported Functions
 193:STM32Cube_FW_N6/Drivers/STM32N6xx_HAL_Driver/Src/stm32n6xx_hal_spi.c ****   * @{
 194:STM32Cube_FW_N6/Drivers/STM32N6xx_HAL_Driver/Src/stm32n6xx_hal_spi.c ****   */
 195:STM32Cube_FW_N6/Drivers/STM32N6xx_HAL_Driver/Src/stm32n6xx_hal_spi.c **** 
 196:STM32Cube_FW_N6/Drivers/STM32N6xx_HAL_Driver/Src/stm32n6xx_hal_spi.c **** /** @defgroup SPI_Exported_Functions_Group1 Initialization and de-initialization functions
 197:STM32Cube_FW_N6/Drivers/STM32N6xx_HAL_Driver/Src/stm32n6xx_hal_spi.c ****   *  @brief    Initialization and Configuration functions
 198:STM32Cube_FW_N6/Drivers/STM32N6xx_HAL_Driver/Src/stm32n6xx_hal_spi.c ****   *
 199:STM32Cube_FW_N6/Drivers/STM32N6xx_HAL_Driver/Src/stm32n6xx_hal_spi.c **** @verbatim
 200:STM32Cube_FW_N6/Drivers/STM32N6xx_HAL_Driver/Src/stm32n6xx_hal_spi.c ****  ===============================================================================
 201:STM32Cube_FW_N6/Drivers/STM32N6xx_HAL_Driver/Src/stm32n6xx_hal_spi.c ****               ##### Initialization and de-initialization functions #####
 202:STM32Cube_FW_N6/Drivers/STM32N6xx_HAL_Driver/Src/stm32n6xx_hal_spi.c ****  ===============================================================================
 203:STM32Cube_FW_N6/Drivers/STM32N6xx_HAL_Driver/Src/stm32n6xx_hal_spi.c ****     [..]  This subsection provides a set of functions allowing to initialize and
 204:STM32Cube_FW_N6/Drivers/STM32N6xx_HAL_Driver/Src/stm32n6xx_hal_spi.c ****           de-initialize the SPIx peripheral:
 205:STM32Cube_FW_N6/Drivers/STM32N6xx_HAL_Driver/Src/stm32n6xx_hal_spi.c **** 
 206:STM32Cube_FW_N6/Drivers/STM32N6xx_HAL_Driver/Src/stm32n6xx_hal_spi.c ****       (+) User must implement HAL_SPI_MspInit() function in which he configures
 207:STM32Cube_FW_N6/Drivers/STM32N6xx_HAL_Driver/Src/stm32n6xx_hal_spi.c ****           all related peripherals resources (CLOCK, GPIO, DMA, IT and NVIC ).
 208:STM32Cube_FW_N6/Drivers/STM32N6xx_HAL_Driver/Src/stm32n6xx_hal_spi.c **** 
 209:STM32Cube_FW_N6/Drivers/STM32N6xx_HAL_Driver/Src/stm32n6xx_hal_spi.c ****       (+) Call the function HAL_SPI_Init() to configure the selected device with
 210:STM32Cube_FW_N6/Drivers/STM32N6xx_HAL_Driver/Src/stm32n6xx_hal_spi.c ****           the selected configuration:
 211:STM32Cube_FW_N6/Drivers/STM32N6xx_HAL_Driver/Src/stm32n6xx_hal_spi.c ****         (++) Mode
 212:STM32Cube_FW_N6/Drivers/STM32N6xx_HAL_Driver/Src/stm32n6xx_hal_spi.c ****         (++) Direction
 213:STM32Cube_FW_N6/Drivers/STM32N6xx_HAL_Driver/Src/stm32n6xx_hal_spi.c ****         (++) Data Size
 214:STM32Cube_FW_N6/Drivers/STM32N6xx_HAL_Driver/Src/stm32n6xx_hal_spi.c ****         (++) Clock Polarity and Phase
 215:STM32Cube_FW_N6/Drivers/STM32N6xx_HAL_Driver/Src/stm32n6xx_hal_spi.c ****         (++) NSS Management
 216:STM32Cube_FW_N6/Drivers/STM32N6xx_HAL_Driver/Src/stm32n6xx_hal_spi.c ****         (++) BaudRate Prescaler
 217:STM32Cube_FW_N6/Drivers/STM32N6xx_HAL_Driver/Src/stm32n6xx_hal_spi.c ****         (++) FirstBit
 218:STM32Cube_FW_N6/Drivers/STM32N6xx_HAL_Driver/Src/stm32n6xx_hal_spi.c ****         (++) TIMode
 219:STM32Cube_FW_N6/Drivers/STM32N6xx_HAL_Driver/Src/stm32n6xx_hal_spi.c ****         (++) CRC Calculation
 220:STM32Cube_FW_N6/Drivers/STM32N6xx_HAL_Driver/Src/stm32n6xx_hal_spi.c ****         (++) CRC Polynomial if CRC enabled
 221:STM32Cube_FW_N6/Drivers/STM32N6xx_HAL_Driver/Src/stm32n6xx_hal_spi.c ****         (++) CRC Length, used only with Data8 and Data16
 222:STM32Cube_FW_N6/Drivers/STM32N6xx_HAL_Driver/Src/stm32n6xx_hal_spi.c ****         (++) FIFO reception threshold
 223:STM32Cube_FW_N6/Drivers/STM32N6xx_HAL_Driver/Src/stm32n6xx_hal_spi.c ****         (++) FIFO transmission threshold
 224:STM32Cube_FW_N6/Drivers/STM32N6xx_HAL_Driver/Src/stm32n6xx_hal_spi.c **** 
 225:STM32Cube_FW_N6/Drivers/STM32N6xx_HAL_Driver/Src/stm32n6xx_hal_spi.c ****       (+) Call the function HAL_SPI_DeInit() to restore the default configuration
 226:STM32Cube_FW_N6/Drivers/STM32N6xx_HAL_Driver/Src/stm32n6xx_hal_spi.c ****           of the selected SPIx peripheral.
 227:STM32Cube_FW_N6/Drivers/STM32N6xx_HAL_Driver/Src/stm32n6xx_hal_spi.c **** 
 228:STM32Cube_FW_N6/Drivers/STM32N6xx_HAL_Driver/Src/stm32n6xx_hal_spi.c **** @endverbatim
 229:STM32Cube_FW_N6/Drivers/STM32N6xx_HAL_Driver/Src/stm32n6xx_hal_spi.c ****   * @{
 230:STM32Cube_FW_N6/Drivers/STM32N6xx_HAL_Driver/Src/stm32n6xx_hal_spi.c ****   */
 231:STM32Cube_FW_N6/Drivers/STM32N6xx_HAL_Driver/Src/stm32n6xx_hal_spi.c **** 
 232:STM32Cube_FW_N6/Drivers/STM32N6xx_HAL_Driver/Src/stm32n6xx_hal_spi.c **** /**
 233:STM32Cube_FW_N6/Drivers/STM32N6xx_HAL_Driver/Src/stm32n6xx_hal_spi.c ****   * @brief  Initialize the SPI according to the specified parameters
 234:STM32Cube_FW_N6/Drivers/STM32N6xx_HAL_Driver/Src/stm32n6xx_hal_spi.c ****   *         in the SPI_InitTypeDef and initialize the associated handle.
 235:STM32Cube_FW_N6/Drivers/STM32N6xx_HAL_Driver/Src/stm32n6xx_hal_spi.c ****   * @param  hspi: pointer to a SPI_HandleTypeDef structure that contains
 236:STM32Cube_FW_N6/Drivers/STM32N6xx_HAL_Driver/Src/stm32n6xx_hal_spi.c ****   *               the configuration information for SPI module.
 237:STM32Cube_FW_N6/Drivers/STM32N6xx_HAL_Driver/Src/stm32n6xx_hal_spi.c ****   * @retval HAL status
 238:STM32Cube_FW_N6/Drivers/STM32N6xx_HAL_Driver/Src/stm32n6xx_hal_spi.c ****   */
 239:STM32Cube_FW_N6/Drivers/STM32N6xx_HAL_Driver/Src/stm32n6xx_hal_spi.c **** HAL_StatusTypeDef HAL_SPI_Init(SPI_HandleTypeDef *hspi)
 240:STM32Cube_FW_N6/Drivers/STM32N6xx_HAL_Driver/Src/stm32n6xx_hal_spi.c **** {
ARM GAS  /tmp/ccwTXtVb.s 			page 6


  39              		.loc 1 240 1
  40              		.cfi_startproc
  41              		@ args = 0, pretend = 0, frame = 24
  42              		@ frame_needed = 1, uses_anonymous_args = 0
  43 0000 80B5     		push	{r7, lr}
  44              		.cfi_def_cfa_offset 8
  45              		.cfi_offset 7, -8
  46              		.cfi_offset 14, -4
  47 0002 86B0     		sub	sp, sp, #24
  48              		.cfi_def_cfa_offset 32
  49 0004 00AF     		add	r7, sp, #0
  50              		.cfi_def_cfa_register 7
  51 0006 7860     		str	r0, [r7, #4]
 241:STM32Cube_FW_N6/Drivers/STM32N6xx_HAL_Driver/Src/stm32n6xx_hal_spi.c ****   uint32_t crc_length;
 242:STM32Cube_FW_N6/Drivers/STM32N6xx_HAL_Driver/Src/stm32n6xx_hal_spi.c ****   uint32_t packet_length;
 243:STM32Cube_FW_N6/Drivers/STM32N6xx_HAL_Driver/Src/stm32n6xx_hal_spi.c **** #if (USE_SPI_CRC != 0UL)
 244:STM32Cube_FW_N6/Drivers/STM32N6xx_HAL_Driver/Src/stm32n6xx_hal_spi.c ****   uint32_t crc_poly_msb_mask;
 245:STM32Cube_FW_N6/Drivers/STM32N6xx_HAL_Driver/Src/stm32n6xx_hal_spi.c **** #endif /* USE_SPI_CRC */
 246:STM32Cube_FW_N6/Drivers/STM32N6xx_HAL_Driver/Src/stm32n6xx_hal_spi.c **** 
 247:STM32Cube_FW_N6/Drivers/STM32N6xx_HAL_Driver/Src/stm32n6xx_hal_spi.c ****   /* Check the SPI handle allocation */
 248:STM32Cube_FW_N6/Drivers/STM32N6xx_HAL_Driver/Src/stm32n6xx_hal_spi.c ****   if (hspi == NULL)
  52              		.loc 1 248 6
  53 0008 7B68     		ldr	r3, [r7, #4]
  54 000a 002B     		cmp	r3, #0
  55 000c 02D1     		bne	.L2
 249:STM32Cube_FW_N6/Drivers/STM32N6xx_HAL_Driver/Src/stm32n6xx_hal_spi.c ****   {
 250:STM32Cube_FW_N6/Drivers/STM32N6xx_HAL_Driver/Src/stm32n6xx_hal_spi.c ****     return HAL_ERROR;
  56              		.loc 1 250 12
  57 000e 0123     		movs	r3, #1
  58 0010 00F072BD 		b	.L3
  59              	.L2:
 251:STM32Cube_FW_N6/Drivers/STM32N6xx_HAL_Driver/Src/stm32n6xx_hal_spi.c ****   }
 252:STM32Cube_FW_N6/Drivers/STM32N6xx_HAL_Driver/Src/stm32n6xx_hal_spi.c **** 
 253:STM32Cube_FW_N6/Drivers/STM32N6xx_HAL_Driver/Src/stm32n6xx_hal_spi.c ****   /* Check the parameters */
 254:STM32Cube_FW_N6/Drivers/STM32N6xx_HAL_Driver/Src/stm32n6xx_hal_spi.c ****   assert_param(IS_SPI_ALL_INSTANCE(hspi->Instance));
  60              		.loc 1 254 3
  61 0014 7B68     		ldr	r3, [r7, #4]
  62 0016 1B68     		ldr	r3, [r3]
  63 0018 584A     		ldr	r2, .L63
  64 001a 9342     		cmp	r3, r2
  65 001c 3AD0     		beq	.L4
  66              		.loc 1 254 3 is_stmt 0 discriminator 1
  67 001e 7B68     		ldr	r3, [r7, #4]
  68 0020 1B68     		ldr	r3, [r3]
  69 0022 574A     		ldr	r2, .L63+4
  70 0024 9342     		cmp	r3, r2
  71 0026 35D0     		beq	.L4
  72              		.loc 1 254 3 discriminator 2
  73 0028 7B68     		ldr	r3, [r7, #4]
  74 002a 1B68     		ldr	r3, [r3]
  75 002c 554A     		ldr	r2, .L63+8
  76 002e 9342     		cmp	r3, r2
  77 0030 30D0     		beq	.L4
  78              		.loc 1 254 3 discriminator 3
  79 0032 7B68     		ldr	r3, [r7, #4]
  80 0034 1B68     		ldr	r3, [r3]
  81 0036 544A     		ldr	r2, .L63+12
ARM GAS  /tmp/ccwTXtVb.s 			page 7


  82 0038 9342     		cmp	r3, r2
  83 003a 2BD0     		beq	.L4
  84              		.loc 1 254 3 discriminator 4
  85 003c 7B68     		ldr	r3, [r7, #4]
  86 003e 1B68     		ldr	r3, [r3]
  87 0040 524A     		ldr	r2, .L63+16
  88 0042 9342     		cmp	r3, r2
  89 0044 26D0     		beq	.L4
  90              		.loc 1 254 3 discriminator 5
  91 0046 7B68     		ldr	r3, [r7, #4]
  92 0048 1B68     		ldr	r3, [r3]
  93 004a 514A     		ldr	r2, .L63+20
  94 004c 9342     		cmp	r3, r2
  95 004e 21D0     		beq	.L4
  96              		.loc 1 254 3 discriminator 6
  97 0050 7B68     		ldr	r3, [r7, #4]
  98 0052 1B68     		ldr	r3, [r3]
  99 0054 4F4A     		ldr	r2, .L63+24
 100 0056 9342     		cmp	r3, r2
 101 0058 1CD0     		beq	.L4
 102              		.loc 1 254 3 discriminator 7
 103 005a 7B68     		ldr	r3, [r7, #4]
 104 005c 1B68     		ldr	r3, [r3]
 105 005e 4E4A     		ldr	r2, .L63+28
 106 0060 9342     		cmp	r3, r2
 107 0062 17D0     		beq	.L4
 108              		.loc 1 254 3 discriminator 8
 109 0064 7B68     		ldr	r3, [r7, #4]
 110 0066 1B68     		ldr	r3, [r3]
 111 0068 4C4A     		ldr	r2, .L63+32
 112 006a 9342     		cmp	r3, r2
 113 006c 12D0     		beq	.L4
 114              		.loc 1 254 3 discriminator 9
 115 006e 7B68     		ldr	r3, [r7, #4]
 116 0070 1B68     		ldr	r3, [r3]
 117 0072 4B4A     		ldr	r2, .L63+36
 118 0074 9342     		cmp	r3, r2
 119 0076 0DD0     		beq	.L4
 120              		.loc 1 254 3 discriminator 10
 121 0078 7B68     		ldr	r3, [r7, #4]
 122 007a 1B68     		ldr	r3, [r3]
 123 007c 494A     		ldr	r2, .L63+40
 124 007e 9342     		cmp	r3, r2
 125 0080 08D0     		beq	.L4
 126              		.loc 1 254 3 discriminator 11
 127 0082 7B68     		ldr	r3, [r7, #4]
 128 0084 1B68     		ldr	r3, [r3]
 129 0086 484A     		ldr	r2, .L63+44
 130 0088 9342     		cmp	r3, r2
 131 008a 03D0     		beq	.L4
 132              		.loc 1 254 3 discriminator 12
 133 008c FE21     		movs	r1, #254
 134 008e 4748     		ldr	r0, .L63+48
 135 0090 FFF7FEFF 		bl	assert_failed
 136              	.L4:
 255:STM32Cube_FW_N6/Drivers/STM32N6xx_HAL_Driver/Src/stm32n6xx_hal_spi.c ****   assert_param(IS_SPI_MODE(hspi->Init.Mode));
 137              		.loc 1 255 3 is_stmt 1
ARM GAS  /tmp/ccwTXtVb.s 			page 8


 138 0094 7B68     		ldr	r3, [r7, #4]
 139 0096 5B68     		ldr	r3, [r3, #4]
 140 0098 002B     		cmp	r3, #0
 141 009a 08D0     		beq	.L5
 142              		.loc 1 255 3 is_stmt 0 discriminator 1
 143 009c 7B68     		ldr	r3, [r7, #4]
 144 009e 5B68     		ldr	r3, [r3, #4]
 145 00a0 B3F5800F 		cmp	r3, #4194304
 146 00a4 03D0     		beq	.L5
 147              		.loc 1 255 3 discriminator 2
 148 00a6 FF21     		movs	r1, #255
 149 00a8 4048     		ldr	r0, .L63+48
 150 00aa FFF7FEFF 		bl	assert_failed
 151              	.L5:
 256:STM32Cube_FW_N6/Drivers/STM32N6xx_HAL_Driver/Src/stm32n6xx_hal_spi.c ****   assert_param(IS_SPI_DIRECTION(hspi->Init.Direction));
 152              		.loc 1 256 3 is_stmt 1
 153 00ae 7B68     		ldr	r3, [r7, #4]
 154 00b0 9B68     		ldr	r3, [r3, #8]
 155 00b2 002B     		cmp	r3, #0
 156 00b4 13D0     		beq	.L6
 157              		.loc 1 256 3 is_stmt 0 discriminator 1
 158 00b6 7B68     		ldr	r3, [r7, #4]
 159 00b8 9B68     		ldr	r3, [r3, #8]
 160 00ba B3F5802F 		cmp	r3, #262144
 161 00be 0ED0     		beq	.L6
 162              		.loc 1 256 3 discriminator 2
 163 00c0 7B68     		ldr	r3, [r7, #4]
 164 00c2 9B68     		ldr	r3, [r3, #8]
 165 00c4 B3F5C02F 		cmp	r3, #393216
 166 00c8 09D0     		beq	.L6
 167              		.loc 1 256 3 discriminator 3
 168 00ca 7B68     		ldr	r3, [r7, #4]
 169 00cc 9B68     		ldr	r3, [r3, #8]
 170 00ce B3F5003F 		cmp	r3, #131072
 171 00d2 04D0     		beq	.L6
 172              		.loc 1 256 3 discriminator 4
 173 00d4 4FF48071 		mov	r1, #256
 174 00d8 3448     		ldr	r0, .L63+48
 175 00da FFF7FEFF 		bl	assert_failed
 176              	.L6:
 257:STM32Cube_FW_N6/Drivers/STM32N6xx_HAL_Driver/Src/stm32n6xx_hal_spi.c ****   if (IS_SPI_LIMITED_INSTANCE(hspi->Instance))
 177              		.loc 1 257 7 is_stmt 1
 178 00de 7B68     		ldr	r3, [r7, #4]
 179 00e0 1B68     		ldr	r3, [r3]
 180              		.loc 1 257 6
 181 00e2 2C4A     		ldr	r2, .L63+24
 182 00e4 9342     		cmp	r3, r2
 183 00e6 0ED0     		beq	.L7
 184              		.loc 1 257 7 discriminator 1
 185 00e8 7B68     		ldr	r3, [r7, #4]
 186 00ea 1B68     		ldr	r3, [r3]
 187 00ec 2A4A     		ldr	r2, .L63+28
 188 00ee 9342     		cmp	r3, r2
 189 00f0 09D0     		beq	.L7
 190              		.loc 1 257 7 is_stmt 0 discriminator 2
 191 00f2 7B68     		ldr	r3, [r7, #4]
 192 00f4 1B68     		ldr	r3, [r3]
ARM GAS  /tmp/ccwTXtVb.s 			page 9


 193 00f6 294A     		ldr	r2, .L63+32
 194 00f8 9342     		cmp	r3, r2
 195 00fa 04D0     		beq	.L7
 196              		.loc 1 257 7 discriminator 3
 197 00fc 7B68     		ldr	r3, [r7, #4]
 198 00fe 1B68     		ldr	r3, [r3]
 199 0100 274A     		ldr	r2, .L63+36
 200 0102 9342     		cmp	r3, r2
 201 0104 54D1     		bne	.L8
 202              	.L7:
 258:STM32Cube_FW_N6/Drivers/STM32N6xx_HAL_Driver/Src/stm32n6xx_hal_spi.c ****   {
 259:STM32Cube_FW_N6/Drivers/STM32N6xx_HAL_Driver/Src/stm32n6xx_hal_spi.c ****     assert_param(IS_SPI_LIMITED_DATASIZE(hspi->Init.DataSize));
 203              		.loc 1 259 5 is_stmt 1
 204 0106 7B68     		ldr	r3, [r7, #4]
 205 0108 DB68     		ldr	r3, [r3, #12]
 206 010a 0F2B     		cmp	r3, #15
 207 010c 08D0     		beq	.L9
 208              		.loc 1 259 5 is_stmt 0 discriminator 1
 209 010e 7B68     		ldr	r3, [r7, #4]
 210 0110 DB68     		ldr	r3, [r3, #12]
 211 0112 072B     		cmp	r3, #7
 212 0114 04D0     		beq	.L9
 213              		.loc 1 259 5 discriminator 2
 214 0116 40F20311 		movw	r1, #259
 215 011a 2448     		ldr	r0, .L63+48
 216 011c FFF7FEFF 		bl	assert_failed
 217              	.L9:
 260:STM32Cube_FW_N6/Drivers/STM32N6xx_HAL_Driver/Src/stm32n6xx_hal_spi.c ****     assert_param(IS_SPI_LIMITED_FIFOTHRESHOLD(hspi->Init.FifoThreshold));
 218              		.loc 1 260 5 is_stmt 1
 219 0120 7B68     		ldr	r3, [r7, #4]
 220 0122 DB6B     		ldr	r3, [r3, #60]
 221 0124 002B     		cmp	r3, #0
 222 0126 00F00D81 		beq	.L11
 223              		.loc 1 260 5 is_stmt 0 discriminator 1
 224 012a 7B68     		ldr	r3, [r7, #4]
 225 012c DB6B     		ldr	r3, [r3, #60]
 226 012e 202B     		cmp	r3, #32
 227 0130 00F00881 		beq	.L11
 228              		.loc 1 260 5 discriminator 2
 229 0134 7B68     		ldr	r3, [r7, #4]
 230 0136 DB6B     		ldr	r3, [r3, #60]
 231 0138 402B     		cmp	r3, #64
 232 013a 00F00381 		beq	.L11
 233              		.loc 1 260 5 discriminator 3
 234 013e 7B68     		ldr	r3, [r7, #4]
 235 0140 DB6B     		ldr	r3, [r3, #60]
 236 0142 602B     		cmp	r3, #96
 237 0144 00F0FE80 		beq	.L11
 238              		.loc 1 260 5 discriminator 4
 239 0148 7B68     		ldr	r3, [r7, #4]
 240 014a DB6B     		ldr	r3, [r3, #60]
 241 014c 802B     		cmp	r3, #128
 242 014e 00F0F980 		beq	.L11
 243              		.loc 1 260 5 discriminator 5
 244 0152 7B68     		ldr	r3, [r7, #4]
 245 0154 DB6B     		ldr	r3, [r3, #60]
 246 0156 A02B     		cmp	r3, #160
ARM GAS  /tmp/ccwTXtVb.s 			page 10


 247 0158 00F0F480 		beq	.L11
 248              		.loc 1 260 5 discriminator 6
 249 015c 7B68     		ldr	r3, [r7, #4]
 250 015e DB6B     		ldr	r3, [r3, #60]
 251 0160 C02B     		cmp	r3, #192
 252 0162 00F0EF80 		beq	.L11
 253              		.loc 1 260 5 discriminator 7
 254 0166 7B68     		ldr	r3, [r7, #4]
 255 0168 DB6B     		ldr	r3, [r3, #60]
 256 016a E02B     		cmp	r3, #224
 257 016c 00F0EA80 		beq	.L11
 258              		.loc 1 260 5 discriminator 8
 259 0170 4FF48271 		mov	r1, #260
 260 0174 0D48     		ldr	r0, .L63+48
 261 0176 FFF7FEFF 		bl	assert_failed
 262              		.loc 1 260 5
 263 017a E3E0     		b	.L11
 264              	.L64:
 265              		.align	2
 266              	.L63:
 267 017c 00300052 		.word	1375744000
 268 0180 00300042 		.word	1107308544
 269 0184 00380050 		.word	1342191616
 270 0188 00380040 		.word	1073756160
 271 018c 003C0050 		.word	1342192640
 272 0190 003C0040 		.word	1073757184
 273 0194 00340052 		.word	1375745024
 274 0198 00340042 		.word	1107309568
 275 019c 00500052 		.word	1375752192
 276 01a0 00500042 		.word	1107316736
 277 01a4 00140056 		.word	1442845696
 278 01a8 00140046 		.word	1174410240
 279 01ac 00000000 		.word	.LC0
 280              	.L8:
 261:STM32Cube_FW_N6/Drivers/STM32N6xx_HAL_Driver/Src/stm32n6xx_hal_spi.c ****   }
 262:STM32Cube_FW_N6/Drivers/STM32N6xx_HAL_Driver/Src/stm32n6xx_hal_spi.c ****   else
 263:STM32Cube_FW_N6/Drivers/STM32N6xx_HAL_Driver/Src/stm32n6xx_hal_spi.c ****   {
 264:STM32Cube_FW_N6/Drivers/STM32N6xx_HAL_Driver/Src/stm32n6xx_hal_spi.c ****     assert_param(IS_SPI_DATASIZE(hspi->Init.DataSize));
 281              		.loc 1 264 5 is_stmt 1
 282 01b0 7B68     		ldr	r3, [r7, #4]
 283 01b2 DB68     		ldr	r3, [r3, #12]
 284 01b4 1F2B     		cmp	r3, #31
 285 01b6 78D0     		beq	.L12
 286              		.loc 1 264 5 is_stmt 0 discriminator 1
 287 01b8 7B68     		ldr	r3, [r7, #4]
 288 01ba DB68     		ldr	r3, [r3, #12]
 289 01bc 1E2B     		cmp	r3, #30
 290 01be 74D0     		beq	.L12
 291              		.loc 1 264 5 discriminator 2
 292 01c0 7B68     		ldr	r3, [r7, #4]
 293 01c2 DB68     		ldr	r3, [r3, #12]
 294 01c4 1D2B     		cmp	r3, #29
 295 01c6 70D0     		beq	.L12
 296              		.loc 1 264 5 discriminator 3
 297 01c8 7B68     		ldr	r3, [r7, #4]
 298 01ca DB68     		ldr	r3, [r3, #12]
 299 01cc 1C2B     		cmp	r3, #28
ARM GAS  /tmp/ccwTXtVb.s 			page 11


 300 01ce 6CD0     		beq	.L12
 301              		.loc 1 264 5 discriminator 4
 302 01d0 7B68     		ldr	r3, [r7, #4]
 303 01d2 DB68     		ldr	r3, [r3, #12]
 304 01d4 1B2B     		cmp	r3, #27
 305 01d6 68D0     		beq	.L12
 306              		.loc 1 264 5 discriminator 5
 307 01d8 7B68     		ldr	r3, [r7, #4]
 308 01da DB68     		ldr	r3, [r3, #12]
 309 01dc 1A2B     		cmp	r3, #26
 310 01de 64D0     		beq	.L12
 311              		.loc 1 264 5 discriminator 6
 312 01e0 7B68     		ldr	r3, [r7, #4]
 313 01e2 DB68     		ldr	r3, [r3, #12]
 314 01e4 192B     		cmp	r3, #25
 315 01e6 60D0     		beq	.L12
 316              		.loc 1 264 5 discriminator 7
 317 01e8 7B68     		ldr	r3, [r7, #4]
 318 01ea DB68     		ldr	r3, [r3, #12]
 319 01ec 182B     		cmp	r3, #24
 320 01ee 5CD0     		beq	.L12
 321              		.loc 1 264 5 discriminator 8
 322 01f0 7B68     		ldr	r3, [r7, #4]
 323 01f2 DB68     		ldr	r3, [r3, #12]
 324 01f4 172B     		cmp	r3, #23
 325 01f6 58D0     		beq	.L12
 326              		.loc 1 264 5 discriminator 9
 327 01f8 7B68     		ldr	r3, [r7, #4]
 328 01fa DB68     		ldr	r3, [r3, #12]
 329 01fc 162B     		cmp	r3, #22
 330 01fe 54D0     		beq	.L12
 331              		.loc 1 264 5 discriminator 10
 332 0200 7B68     		ldr	r3, [r7, #4]
 333 0202 DB68     		ldr	r3, [r3, #12]
 334 0204 152B     		cmp	r3, #21
 335 0206 50D0     		beq	.L12
 336              		.loc 1 264 5 discriminator 11
 337 0208 7B68     		ldr	r3, [r7, #4]
 338 020a DB68     		ldr	r3, [r3, #12]
 339 020c 142B     		cmp	r3, #20
 340 020e 4CD0     		beq	.L12
 341              		.loc 1 264 5 discriminator 12
 342 0210 7B68     		ldr	r3, [r7, #4]
 343 0212 DB68     		ldr	r3, [r3, #12]
 344 0214 132B     		cmp	r3, #19
 345 0216 48D0     		beq	.L12
 346              		.loc 1 264 5 discriminator 13
 347 0218 7B68     		ldr	r3, [r7, #4]
 348 021a DB68     		ldr	r3, [r3, #12]
 349 021c 152B     		cmp	r3, #21
 350 021e 44D0     		beq	.L12
 351              		.loc 1 264 5 discriminator 14
 352 0220 7B68     		ldr	r3, [r7, #4]
 353 0222 DB68     		ldr	r3, [r3, #12]
 354 0224 122B     		cmp	r3, #18
 355 0226 40D0     		beq	.L12
 356              		.loc 1 264 5 discriminator 15
ARM GAS  /tmp/ccwTXtVb.s 			page 12


 357 0228 7B68     		ldr	r3, [r7, #4]
 358 022a DB68     		ldr	r3, [r3, #12]
 359 022c 112B     		cmp	r3, #17
 360 022e 3CD0     		beq	.L12
 361              		.loc 1 264 5 discriminator 16
 362 0230 7B68     		ldr	r3, [r7, #4]
 363 0232 DB68     		ldr	r3, [r3, #12]
 364 0234 102B     		cmp	r3, #16
 365 0236 38D0     		beq	.L12
 366              		.loc 1 264 5 discriminator 17
 367 0238 7B68     		ldr	r3, [r7, #4]
 368 023a DB68     		ldr	r3, [r3, #12]
 369 023c 0F2B     		cmp	r3, #15
 370 023e 34D0     		beq	.L12
 371              		.loc 1 264 5 discriminator 18
 372 0240 7B68     		ldr	r3, [r7, #4]
 373 0242 DB68     		ldr	r3, [r3, #12]
 374 0244 0E2B     		cmp	r3, #14
 375 0246 30D0     		beq	.L12
 376              		.loc 1 264 5 discriminator 19
 377 0248 7B68     		ldr	r3, [r7, #4]
 378 024a DB68     		ldr	r3, [r3, #12]
 379 024c 0D2B     		cmp	r3, #13
 380 024e 2CD0     		beq	.L12
 381              		.loc 1 264 5 discriminator 20
 382 0250 7B68     		ldr	r3, [r7, #4]
 383 0252 DB68     		ldr	r3, [r3, #12]
 384 0254 0C2B     		cmp	r3, #12
 385 0256 28D0     		beq	.L12
 386              		.loc 1 264 5 discriminator 21
 387 0258 7B68     		ldr	r3, [r7, #4]
 388 025a DB68     		ldr	r3, [r3, #12]
 389 025c 0B2B     		cmp	r3, #11
 390 025e 24D0     		beq	.L12
 391              		.loc 1 264 5 discriminator 22
 392 0260 7B68     		ldr	r3, [r7, #4]
 393 0262 DB68     		ldr	r3, [r3, #12]
 394 0264 0A2B     		cmp	r3, #10
 395 0266 20D0     		beq	.L12
 396              		.loc 1 264 5 discriminator 23
 397 0268 7B68     		ldr	r3, [r7, #4]
 398 026a DB68     		ldr	r3, [r3, #12]
 399 026c 092B     		cmp	r3, #9
 400 026e 1CD0     		beq	.L12
 401              		.loc 1 264 5 discriminator 24
 402 0270 7B68     		ldr	r3, [r7, #4]
 403 0272 DB68     		ldr	r3, [r3, #12]
 404 0274 082B     		cmp	r3, #8
 405 0276 18D0     		beq	.L12
 406              		.loc 1 264 5 discriminator 25
 407 0278 7B68     		ldr	r3, [r7, #4]
 408 027a DB68     		ldr	r3, [r3, #12]
 409 027c 072B     		cmp	r3, #7
 410 027e 14D0     		beq	.L12
 411              		.loc 1 264 5 discriminator 26
 412 0280 7B68     		ldr	r3, [r7, #4]
 413 0282 DB68     		ldr	r3, [r3, #12]
ARM GAS  /tmp/ccwTXtVb.s 			page 13


 414 0284 062B     		cmp	r3, #6
 415 0286 10D0     		beq	.L12
 416              		.loc 1 264 5 discriminator 27
 417 0288 7B68     		ldr	r3, [r7, #4]
 418 028a DB68     		ldr	r3, [r3, #12]
 419 028c 052B     		cmp	r3, #5
 420 028e 0CD0     		beq	.L12
 421              		.loc 1 264 5 discriminator 28
 422 0290 7B68     		ldr	r3, [r7, #4]
 423 0292 DB68     		ldr	r3, [r3, #12]
 424 0294 042B     		cmp	r3, #4
 425 0296 08D0     		beq	.L12
 426              		.loc 1 264 5 discriminator 29
 427 0298 7B68     		ldr	r3, [r7, #4]
 428 029a DB68     		ldr	r3, [r3, #12]
 429 029c 032B     		cmp	r3, #3
 430 029e 04D0     		beq	.L12
 431              		.loc 1 264 5 discriminator 30
 432 02a0 4FF48471 		mov	r1, #264
 433 02a4 8B48     		ldr	r0, .L65
 434 02a6 FFF7FEFF 		bl	assert_failed
 435              	.L12:
 265:STM32Cube_FW_N6/Drivers/STM32N6xx_HAL_Driver/Src/stm32n6xx_hal_spi.c ****     assert_param(IS_SPI_FIFOTHRESHOLD(hspi->Init.FifoThreshold));
 436              		.loc 1 265 5 is_stmt 1
 437 02aa 7B68     		ldr	r3, [r7, #4]
 438 02ac DB6B     		ldr	r3, [r3, #60]
 439 02ae 002B     		cmp	r3, #0
 440 02b0 48D0     		beq	.L11
 441              		.loc 1 265 5 is_stmt 0 discriminator 1
 442 02b2 7B68     		ldr	r3, [r7, #4]
 443 02b4 DB6B     		ldr	r3, [r3, #60]
 444 02b6 202B     		cmp	r3, #32
 445 02b8 44D0     		beq	.L11
 446              		.loc 1 265 5 discriminator 2
 447 02ba 7B68     		ldr	r3, [r7, #4]
 448 02bc DB6B     		ldr	r3, [r3, #60]
 449 02be 402B     		cmp	r3, #64
 450 02c0 40D0     		beq	.L11
 451              		.loc 1 265 5 discriminator 3
 452 02c2 7B68     		ldr	r3, [r7, #4]
 453 02c4 DB6B     		ldr	r3, [r3, #60]
 454 02c6 602B     		cmp	r3, #96
 455 02c8 3CD0     		beq	.L11
 456              		.loc 1 265 5 discriminator 4
 457 02ca 7B68     		ldr	r3, [r7, #4]
 458 02cc DB6B     		ldr	r3, [r3, #60]
 459 02ce 802B     		cmp	r3, #128
 460 02d0 38D0     		beq	.L11
 461              		.loc 1 265 5 discriminator 5
 462 02d2 7B68     		ldr	r3, [r7, #4]
 463 02d4 DB6B     		ldr	r3, [r3, #60]
 464 02d6 A02B     		cmp	r3, #160
 465 02d8 34D0     		beq	.L11
 466              		.loc 1 265 5 discriminator 6
 467 02da 7B68     		ldr	r3, [r7, #4]
 468 02dc DB6B     		ldr	r3, [r3, #60]
 469 02de C02B     		cmp	r3, #192
ARM GAS  /tmp/ccwTXtVb.s 			page 14


 470 02e0 30D0     		beq	.L11
 471              		.loc 1 265 5 discriminator 7
 472 02e2 7B68     		ldr	r3, [r7, #4]
 473 02e4 DB6B     		ldr	r3, [r3, #60]
 474 02e6 E02B     		cmp	r3, #224
 475 02e8 2CD0     		beq	.L11
 476              		.loc 1 265 5 discriminator 8
 477 02ea 7B68     		ldr	r3, [r7, #4]
 478 02ec DB6B     		ldr	r3, [r3, #60]
 479 02ee B3F5807F 		cmp	r3, #256
 480 02f2 27D0     		beq	.L11
 481              		.loc 1 265 5 discriminator 9
 482 02f4 7B68     		ldr	r3, [r7, #4]
 483 02f6 DB6B     		ldr	r3, [r3, #60]
 484 02f8 B3F5907F 		cmp	r3, #288
 485 02fc 22D0     		beq	.L11
 486              		.loc 1 265 5 discriminator 10
 487 02fe 7B68     		ldr	r3, [r7, #4]
 488 0300 DB6B     		ldr	r3, [r3, #60]
 489 0302 B3F5A07F 		cmp	r3, #320
 490 0306 1DD0     		beq	.L11
 491              		.loc 1 265 5 discriminator 11
 492 0308 7B68     		ldr	r3, [r7, #4]
 493 030a DB6B     		ldr	r3, [r3, #60]
 494 030c B3F5B07F 		cmp	r3, #352
 495 0310 18D0     		beq	.L11
 496              		.loc 1 265 5 discriminator 12
 497 0312 7B68     		ldr	r3, [r7, #4]
 498 0314 DB6B     		ldr	r3, [r3, #60]
 499 0316 B3F5C07F 		cmp	r3, #384
 500 031a 13D0     		beq	.L11
 501              		.loc 1 265 5 discriminator 13
 502 031c 7B68     		ldr	r3, [r7, #4]
 503 031e DB6B     		ldr	r3, [r3, #60]
 504 0320 B3F5D07F 		cmp	r3, #416
 505 0324 0ED0     		beq	.L11
 506              		.loc 1 265 5 discriminator 14
 507 0326 7B68     		ldr	r3, [r7, #4]
 508 0328 DB6B     		ldr	r3, [r3, #60]
 509 032a B3F5E07F 		cmp	r3, #448
 510 032e 09D0     		beq	.L11
 511              		.loc 1 265 5 discriminator 15
 512 0330 7B68     		ldr	r3, [r7, #4]
 513 0332 DB6B     		ldr	r3, [r3, #60]
 514 0334 B3F5F07F 		cmp	r3, #480
 515 0338 04D0     		beq	.L11
 516              		.loc 1 265 5 discriminator 16
 517 033a 40F20911 		movw	r1, #265
 518 033e 6548     		ldr	r0, .L65
 519 0340 FFF7FEFF 		bl	assert_failed
 520              	.L11:
 266:STM32Cube_FW_N6/Drivers/STM32N6xx_HAL_Driver/Src/stm32n6xx_hal_spi.c ****   }
 267:STM32Cube_FW_N6/Drivers/STM32N6xx_HAL_Driver/Src/stm32n6xx_hal_spi.c ****   assert_param(IS_SPI_NSS(hspi->Init.NSS));
 521              		.loc 1 267 3 is_stmt 1
 522 0344 7B68     		ldr	r3, [r7, #4]
 523 0346 9B69     		ldr	r3, [r3, #24]
 524 0348 B3F1806F 		cmp	r3, #67108864
ARM GAS  /tmp/ccwTXtVb.s 			page 15


 525 034c 0DD0     		beq	.L13
 526              		.loc 1 267 3 is_stmt 0 discriminator 1
 527 034e 7B68     		ldr	r3, [r7, #4]
 528 0350 9B69     		ldr	r3, [r3, #24]
 529 0352 002B     		cmp	r3, #0
 530 0354 09D0     		beq	.L13
 531              		.loc 1 267 3 discriminator 2
 532 0356 7B68     		ldr	r3, [r7, #4]
 533 0358 9B69     		ldr	r3, [r3, #24]
 534 035a B3F1005F 		cmp	r3, #536870912
 535 035e 04D0     		beq	.L13
 536              		.loc 1 267 3 discriminator 3
 537 0360 40F20B11 		movw	r1, #267
 538 0364 5B48     		ldr	r0, .L65
 539 0366 FFF7FEFF 		bl	assert_failed
 540              	.L13:
 268:STM32Cube_FW_N6/Drivers/STM32N6xx_HAL_Driver/Src/stm32n6xx_hal_spi.c ****   assert_param(IS_SPI_NSSP(hspi->Init.NSSPMode));
 541              		.loc 1 268 3 is_stmt 1
 542 036a 7B68     		ldr	r3, [r7, #4]
 543 036c 5B6B     		ldr	r3, [r3, #52]
 544 036e B3F1804F 		cmp	r3, #1073741824
 545 0372 08D0     		beq	.L14
 546              		.loc 1 268 3 is_stmt 0 discriminator 1
 547 0374 7B68     		ldr	r3, [r7, #4]
 548 0376 5B6B     		ldr	r3, [r3, #52]
 549 0378 002B     		cmp	r3, #0
 550 037a 04D0     		beq	.L14
 551              		.loc 1 268 3 discriminator 2
 552 037c 4FF48671 		mov	r1, #268
 553 0380 5448     		ldr	r0, .L65
 554 0382 FFF7FEFF 		bl	assert_failed
 555              	.L14:
 269:STM32Cube_FW_N6/Drivers/STM32N6xx_HAL_Driver/Src/stm32n6xx_hal_spi.c ****   assert_param(IS_SPI_BAUDRATE_PRESCALER(hspi->Init.BaudRatePrescaler));
 556              		.loc 1 269 3 is_stmt 1
 557 0386 7B68     		ldr	r3, [r7, #4]
 558 0388 DB69     		ldr	r3, [r3, #28]
 559 038a B3F1004F 		cmp	r3, #-2147483648
 560 038e 2BD0     		beq	.L15
 561              		.loc 1 269 3 is_stmt 0 discriminator 1
 562 0390 7B68     		ldr	r3, [r7, #4]
 563 0392 DB69     		ldr	r3, [r3, #28]
 564 0394 002B     		cmp	r3, #0
 565 0396 27D0     		beq	.L15
 566              		.loc 1 269 3 discriminator 2
 567 0398 7B68     		ldr	r3, [r7, #4]
 568 039a DB69     		ldr	r3, [r3, #28]
 569 039c B3F1805F 		cmp	r3, #268435456
 570 03a0 22D0     		beq	.L15
 571              		.loc 1 269 3 discriminator 3
 572 03a2 7B68     		ldr	r3, [r7, #4]
 573 03a4 DB69     		ldr	r3, [r3, #28]
 574 03a6 B3F1005F 		cmp	r3, #536870912
 575 03aa 1DD0     		beq	.L15
 576              		.loc 1 269 3 discriminator 4
 577 03ac 7B68     		ldr	r3, [r7, #4]
 578 03ae DB69     		ldr	r3, [r3, #28]
 579 03b0 B3F1405F 		cmp	r3, #805306368
ARM GAS  /tmp/ccwTXtVb.s 			page 16


 580 03b4 18D0     		beq	.L15
 581              		.loc 1 269 3 discriminator 5
 582 03b6 7B68     		ldr	r3, [r7, #4]
 583 03b8 DB69     		ldr	r3, [r3, #28]
 584 03ba B3F1804F 		cmp	r3, #1073741824
 585 03be 13D0     		beq	.L15
 586              		.loc 1 269 3 discriminator 6
 587 03c0 7B68     		ldr	r3, [r7, #4]
 588 03c2 DB69     		ldr	r3, [r3, #28]
 589 03c4 B3F1A04F 		cmp	r3, #1342177280
 590 03c8 0ED0     		beq	.L15
 591              		.loc 1 269 3 discriminator 7
 592 03ca 7B68     		ldr	r3, [r7, #4]
 593 03cc DB69     		ldr	r3, [r3, #28]
 594 03ce B3F1C04F 		cmp	r3, #1610612736
 595 03d2 09D0     		beq	.L15
 596              		.loc 1 269 3 discriminator 8
 597 03d4 7B68     		ldr	r3, [r7, #4]
 598 03d6 DB69     		ldr	r3, [r3, #28]
 599 03d8 B3F1E04F 		cmp	r3, #1879048192
 600 03dc 04D0     		beq	.L15
 601              		.loc 1 269 3 discriminator 9
 602 03de 40F20D11 		movw	r1, #269
 603 03e2 3C48     		ldr	r0, .L65
 604 03e4 FFF7FEFF 		bl	assert_failed
 605              	.L15:
 270:STM32Cube_FW_N6/Drivers/STM32N6xx_HAL_Driver/Src/stm32n6xx_hal_spi.c ****   assert_param(IS_SPI_FIRST_BIT(hspi->Init.FirstBit));
 606              		.loc 1 270 3 is_stmt 1
 607 03e8 7B68     		ldr	r3, [r7, #4]
 608 03ea 1B6A     		ldr	r3, [r3, #32]
 609 03ec 002B     		cmp	r3, #0
 610 03ee 09D0     		beq	.L16
 611              		.loc 1 270 3 is_stmt 0 discriminator 1
 612 03f0 7B68     		ldr	r3, [r7, #4]
 613 03f2 1B6A     		ldr	r3, [r3, #32]
 614 03f4 B3F5000F 		cmp	r3, #8388608
 615 03f8 04D0     		beq	.L16
 616              		.loc 1 270 3 discriminator 2
 617 03fa 4FF48771 		mov	r1, #270
 618 03fe 3548     		ldr	r0, .L65
 619 0400 FFF7FEFF 		bl	assert_failed
 620              	.L16:
 271:STM32Cube_FW_N6/Drivers/STM32N6xx_HAL_Driver/Src/stm32n6xx_hal_spi.c ****   assert_param(IS_SPI_TIMODE(hspi->Init.TIMode));
 621              		.loc 1 271 3 is_stmt 1
 622 0404 7B68     		ldr	r3, [r7, #4]
 623 0406 5B6A     		ldr	r3, [r3, #36]
 624 0408 002B     		cmp	r3, #0
 625 040a 09D0     		beq	.L17
 626              		.loc 1 271 3 is_stmt 0 discriminator 1
 627 040c 7B68     		ldr	r3, [r7, #4]
 628 040e 5B6A     		ldr	r3, [r3, #36]
 629 0410 B3F5002F 		cmp	r3, #524288
 630 0414 04D0     		beq	.L17
 631              		.loc 1 271 3 discriminator 2
 632 0416 40F20F11 		movw	r1, #271
 633 041a 2E48     		ldr	r0, .L65
 634 041c FFF7FEFF 		bl	assert_failed
ARM GAS  /tmp/ccwTXtVb.s 			page 17


 635              	.L17:
 272:STM32Cube_FW_N6/Drivers/STM32N6xx_HAL_Driver/Src/stm32n6xx_hal_spi.c ****   if (hspi->Init.TIMode == SPI_TIMODE_DISABLE)
 636              		.loc 1 272 17 is_stmt 1
 637 0420 7B68     		ldr	r3, [r7, #4]
 638 0422 5B6A     		ldr	r3, [r3, #36]
 639              		.loc 1 272 6
 640 0424 002B     		cmp	r3, #0
 641 0426 1BD1     		bne	.L18
 273:STM32Cube_FW_N6/Drivers/STM32N6xx_HAL_Driver/Src/stm32n6xx_hal_spi.c ****   {
 274:STM32Cube_FW_N6/Drivers/STM32N6xx_HAL_Driver/Src/stm32n6xx_hal_spi.c ****     assert_param(IS_SPI_CPOL(hspi->Init.CLKPolarity));
 642              		.loc 1 274 5
 643 0428 7B68     		ldr	r3, [r7, #4]
 644 042a 1B69     		ldr	r3, [r3, #16]
 645 042c 002B     		cmp	r3, #0
 646 042e 09D0     		beq	.L19
 647              		.loc 1 274 5 is_stmt 0 discriminator 1
 648 0430 7B68     		ldr	r3, [r7, #4]
 649 0432 1B69     		ldr	r3, [r3, #16]
 650 0434 B3F1007F 		cmp	r3, #33554432
 651 0438 04D0     		beq	.L19
 652              		.loc 1 274 5 discriminator 2
 653 043a 4FF48971 		mov	r1, #274
 654 043e 2548     		ldr	r0, .L65
 655 0440 FFF7FEFF 		bl	assert_failed
 656              	.L19:
 275:STM32Cube_FW_N6/Drivers/STM32N6xx_HAL_Driver/Src/stm32n6xx_hal_spi.c ****     assert_param(IS_SPI_CPHA(hspi->Init.CLKPhase));
 657              		.loc 1 275 5 is_stmt 1
 658 0444 7B68     		ldr	r3, [r7, #4]
 659 0446 5B69     		ldr	r3, [r3, #20]
 660 0448 002B     		cmp	r3, #0
 661 044a 09D0     		beq	.L18
 662              		.loc 1 275 5 is_stmt 0 discriminator 1
 663 044c 7B68     		ldr	r3, [r7, #4]
 664 044e 5B69     		ldr	r3, [r3, #20]
 665 0450 B3F1807F 		cmp	r3, #16777216
 666 0454 04D0     		beq	.L18
 667              		.loc 1 275 5 discriminator 2
 668 0456 40F21311 		movw	r1, #275
 669 045a 1E48     		ldr	r0, .L65
 670 045c FFF7FEFF 		bl	assert_failed
 671              	.L18:
 276:STM32Cube_FW_N6/Drivers/STM32N6xx_HAL_Driver/Src/stm32n6xx_hal_spi.c ****   }
 277:STM32Cube_FW_N6/Drivers/STM32N6xx_HAL_Driver/Src/stm32n6xx_hal_spi.c **** #if (USE_SPI_CRC != 0UL)
 278:STM32Cube_FW_N6/Drivers/STM32N6xx_HAL_Driver/Src/stm32n6xx_hal_spi.c ****   assert_param(IS_SPI_CRC_CALCULATION(hspi->Init.CRCCalculation));
 672              		.loc 1 278 3 is_stmt 1
 673 0460 7B68     		ldr	r3, [r7, #4]
 674 0462 9B6A     		ldr	r3, [r3, #40]
 675 0464 002B     		cmp	r3, #0
 676 0466 09D0     		beq	.L20
 677              		.loc 1 278 3 is_stmt 0 discriminator 1
 678 0468 7B68     		ldr	r3, [r7, #4]
 679 046a 9B6A     		ldr	r3, [r3, #40]
 680 046c B3F5800F 		cmp	r3, #4194304
 681 0470 04D0     		beq	.L20
 682              		.loc 1 278 3 discriminator 2
 683 0472 4FF48B71 		mov	r1, #278
 684 0476 1748     		ldr	r0, .L65
ARM GAS  /tmp/ccwTXtVb.s 			page 18


 685 0478 FFF7FEFF 		bl	assert_failed
 686              	.L20:
 279:STM32Cube_FW_N6/Drivers/STM32N6xx_HAL_Driver/Src/stm32n6xx_hal_spi.c ****   if (hspi->Init.CRCCalculation == SPI_CRCCALCULATION_ENABLE)
 687              		.loc 1 279 17 is_stmt 1
 688 047c 7B68     		ldr	r3, [r7, #4]
 689 047e 9B6A     		ldr	r3, [r3, #40]
 690              		.loc 1 279 6
 691 0480 B3F5800F 		cmp	r3, #4194304
 692 0484 40F0F280 		bne	.L21
 280:STM32Cube_FW_N6/Drivers/STM32N6xx_HAL_Driver/Src/stm32n6xx_hal_spi.c ****   {
 281:STM32Cube_FW_N6/Drivers/STM32N6xx_HAL_Driver/Src/stm32n6xx_hal_spi.c ****     if (IS_SPI_LIMITED_INSTANCE(hspi->Instance))
 693              		.loc 1 281 9
 694 0488 7B68     		ldr	r3, [r7, #4]
 695 048a 1B68     		ldr	r3, [r3]
 696              		.loc 1 281 8
 697 048c 124A     		ldr	r2, .L65+4
 698 048e 9342     		cmp	r3, r2
 699 0490 0ED0     		beq	.L22
 700              		.loc 1 281 9 discriminator 1
 701 0492 7B68     		ldr	r3, [r7, #4]
 702 0494 1B68     		ldr	r3, [r3]
 703 0496 114A     		ldr	r2, .L65+8
 704 0498 9342     		cmp	r3, r2
 705 049a 09D0     		beq	.L22
 706              		.loc 1 281 9 is_stmt 0 discriminator 2
 707 049c 7B68     		ldr	r3, [r7, #4]
 708 049e 1B68     		ldr	r3, [r3]
 709 04a0 0F4A     		ldr	r2, .L65+12
 710 04a2 9342     		cmp	r3, r2
 711 04a4 04D0     		beq	.L22
 712              		.loc 1 281 9 discriminator 3
 713 04a6 7B68     		ldr	r3, [r7, #4]
 714 04a8 1B68     		ldr	r3, [r3]
 715 04aa 0E4A     		ldr	r2, .L65+16
 716 04ac 9342     		cmp	r3, r2
 717 04ae 1BD1     		bne	.L23
 718              	.L22:
 282:STM32Cube_FW_N6/Drivers/STM32N6xx_HAL_Driver/Src/stm32n6xx_hal_spi.c ****     {
 283:STM32Cube_FW_N6/Drivers/STM32N6xx_HAL_Driver/Src/stm32n6xx_hal_spi.c ****       assert_param(IS_SPI_LIMITED_CRC_LENGTH(hspi->Init.CRCLength));
 719              		.loc 1 283 7 is_stmt 1
 720 04b0 7B68     		ldr	r3, [r7, #4]
 721 04b2 1B6B     		ldr	r3, [r3, #48]
 722 04b4 B3F5E02F 		cmp	r3, #458752
 723 04b8 00F0B580 		beq	.L25
 724              		.loc 1 283 7 is_stmt 0 discriminator 1
 725 04bc 7B68     		ldr	r3, [r7, #4]
 726 04be 1B6B     		ldr	r3, [r3, #48]
 727 04c0 B3F5702F 		cmp	r3, #983040
 728 04c4 00F0AF80 		beq	.L25
 729              		.loc 1 283 7 discriminator 2
 730 04c8 40F21B11 		movw	r1, #283
 731 04cc 0148     		ldr	r0, .L65
 732 04ce FFF7FEFF 		bl	assert_failed
 733              		.loc 1 283 7
 734 04d2 A8E0     		b	.L25
 735              	.L66:
 736              		.align	2
ARM GAS  /tmp/ccwTXtVb.s 			page 19


 737              	.L65:
 738 04d4 00000000 		.word	.LC0
 739 04d8 00340052 		.word	1375745024
 740 04dc 00340042 		.word	1107309568
 741 04e0 00500052 		.word	1375752192
 742 04e4 00500042 		.word	1107316736
 743              	.L23:
 284:STM32Cube_FW_N6/Drivers/STM32N6xx_HAL_Driver/Src/stm32n6xx_hal_spi.c ****     }
 285:STM32Cube_FW_N6/Drivers/STM32N6xx_HAL_Driver/Src/stm32n6xx_hal_spi.c ****     else
 286:STM32Cube_FW_N6/Drivers/STM32N6xx_HAL_Driver/Src/stm32n6xx_hal_spi.c ****     {
 287:STM32Cube_FW_N6/Drivers/STM32N6xx_HAL_Driver/Src/stm32n6xx_hal_spi.c ****       assert_param(IS_SPI_CRC_LENGTH(hspi->Init.CRCLength));
 744              		.loc 1 287 7 is_stmt 1
 745 04e8 7B68     		ldr	r3, [r7, #4]
 746 04ea 1B6B     		ldr	r3, [r3, #48]
 747 04ec 002B     		cmp	r3, #0
 748 04ee 00F09A80 		beq	.L25
 749              		.loc 1 287 7 is_stmt 0 discriminator 1
 750 04f2 7B68     		ldr	r3, [r7, #4]
 751 04f4 1B6B     		ldr	r3, [r3, #48]
 752 04f6 B3F5F81F 		cmp	r3, #2031616
 753 04fa 00F09480 		beq	.L25
 754              		.loc 1 287 7 discriminator 2
 755 04fe 7B68     		ldr	r3, [r7, #4]
 756 0500 1B6B     		ldr	r3, [r3, #48]
 757 0502 B3F5F01F 		cmp	r3, #1966080
 758 0506 00F08E80 		beq	.L25
 759              		.loc 1 287 7 discriminator 3
 760 050a 7B68     		ldr	r3, [r7, #4]
 761 050c 1B6B     		ldr	r3, [r3, #48]
 762 050e B3F5E81F 		cmp	r3, #1900544
 763 0512 00F08880 		beq	.L25
 764              		.loc 1 287 7 discriminator 4
 765 0516 7B68     		ldr	r3, [r7, #4]
 766 0518 1B6B     		ldr	r3, [r3, #48]
 767 051a B3F5E01F 		cmp	r3, #1835008
 768 051e 00F08280 		beq	.L25
 769              		.loc 1 287 7 discriminator 5
 770 0522 7B68     		ldr	r3, [r7, #4]
 771 0524 1B6B     		ldr	r3, [r3, #48]
 772 0526 B3F5D81F 		cmp	r3, #1769472
 773 052a 7CD0     		beq	.L25
 774              		.loc 1 287 7 discriminator 6
 775 052c 7B68     		ldr	r3, [r7, #4]
 776 052e 1B6B     		ldr	r3, [r3, #48]
 777 0530 B3F5D01F 		cmp	r3, #1703936
 778 0534 77D0     		beq	.L25
 779              		.loc 1 287 7 discriminator 7
 780 0536 7B68     		ldr	r3, [r7, #4]
 781 0538 1B6B     		ldr	r3, [r3, #48]
 782 053a B3F5C81F 		cmp	r3, #1638400
 783 053e 72D0     		beq	.L25
 784              		.loc 1 287 7 discriminator 8
 785 0540 7B68     		ldr	r3, [r7, #4]
 786 0542 1B6B     		ldr	r3, [r3, #48]
 787 0544 B3F5C01F 		cmp	r3, #1572864
 788 0548 6DD0     		beq	.L25
 789              		.loc 1 287 7 discriminator 9
ARM GAS  /tmp/ccwTXtVb.s 			page 20


 790 054a 7B68     		ldr	r3, [r7, #4]
 791 054c 1B6B     		ldr	r3, [r3, #48]
 792 054e B3F5B81F 		cmp	r3, #1507328
 793 0552 68D0     		beq	.L25
 794              		.loc 1 287 7 discriminator 10
 795 0554 7B68     		ldr	r3, [r7, #4]
 796 0556 1B6B     		ldr	r3, [r3, #48]
 797 0558 B3F5B01F 		cmp	r3, #1441792
 798 055c 63D0     		beq	.L25
 799              		.loc 1 287 7 discriminator 11
 800 055e 7B68     		ldr	r3, [r7, #4]
 801 0560 1B6B     		ldr	r3, [r3, #48]
 802 0562 B3F5A81F 		cmp	r3, #1376256
 803 0566 5ED0     		beq	.L25
 804              		.loc 1 287 7 discriminator 12
 805 0568 7B68     		ldr	r3, [r7, #4]
 806 056a 1B6B     		ldr	r3, [r3, #48]
 807 056c B3F5A01F 		cmp	r3, #1310720
 808 0570 59D0     		beq	.L25
 809              		.loc 1 287 7 discriminator 13
 810 0572 7B68     		ldr	r3, [r7, #4]
 811 0574 1B6B     		ldr	r3, [r3, #48]
 812 0576 B3F5981F 		cmp	r3, #1245184
 813 057a 54D0     		beq	.L25
 814              		.loc 1 287 7 discriminator 14
 815 057c 7B68     		ldr	r3, [r7, #4]
 816 057e 1B6B     		ldr	r3, [r3, #48]
 817 0580 B3F5901F 		cmp	r3, #1179648
 818 0584 4FD0     		beq	.L25
 819              		.loc 1 287 7 discriminator 15
 820 0586 7B68     		ldr	r3, [r7, #4]
 821 0588 1B6B     		ldr	r3, [r3, #48]
 822 058a B3F5881F 		cmp	r3, #1114112
 823 058e 4AD0     		beq	.L25
 824              		.loc 1 287 7 discriminator 16
 825 0590 7B68     		ldr	r3, [r7, #4]
 826 0592 1B6B     		ldr	r3, [r3, #48]
 827 0594 B3F5801F 		cmp	r3, #1048576
 828 0598 45D0     		beq	.L25
 829              		.loc 1 287 7 discriminator 17
 830 059a 7B68     		ldr	r3, [r7, #4]
 831 059c 1B6B     		ldr	r3, [r3, #48]
 832 059e B3F5702F 		cmp	r3, #983040
 833 05a2 40D0     		beq	.L25
 834              		.loc 1 287 7 discriminator 18
 835 05a4 7B68     		ldr	r3, [r7, #4]
 836 05a6 1B6B     		ldr	r3, [r3, #48]
 837 05a8 B3F5602F 		cmp	r3, #917504
 838 05ac 3BD0     		beq	.L25
 839              		.loc 1 287 7 discriminator 19
 840 05ae 7B68     		ldr	r3, [r7, #4]
 841 05b0 1B6B     		ldr	r3, [r3, #48]
 842 05b2 B3F5502F 		cmp	r3, #851968
 843 05b6 36D0     		beq	.L25
 844              		.loc 1 287 7 discriminator 20
 845 05b8 7B68     		ldr	r3, [r7, #4]
 846 05ba 1B6B     		ldr	r3, [r3, #48]
ARM GAS  /tmp/ccwTXtVb.s 			page 21


 847 05bc B3F5402F 		cmp	r3, #786432
 848 05c0 31D0     		beq	.L25
 849              		.loc 1 287 7 discriminator 21
 850 05c2 7B68     		ldr	r3, [r7, #4]
 851 05c4 1B6B     		ldr	r3, [r3, #48]
 852 05c6 B3F5302F 		cmp	r3, #720896
 853 05ca 2CD0     		beq	.L25
 854              		.loc 1 287 7 discriminator 22
 855 05cc 7B68     		ldr	r3, [r7, #4]
 856 05ce 1B6B     		ldr	r3, [r3, #48]
 857 05d0 B3F5202F 		cmp	r3, #655360
 858 05d4 27D0     		beq	.L25
 859              		.loc 1 287 7 discriminator 23
 860 05d6 7B68     		ldr	r3, [r7, #4]
 861 05d8 1B6B     		ldr	r3, [r3, #48]
 862 05da B3F5102F 		cmp	r3, #589824
 863 05de 22D0     		beq	.L25
 864              		.loc 1 287 7 discriminator 24
 865 05e0 7B68     		ldr	r3, [r7, #4]
 866 05e2 1B6B     		ldr	r3, [r3, #48]
 867 05e4 B3F5002F 		cmp	r3, #524288
 868 05e8 1DD0     		beq	.L25
 869              		.loc 1 287 7 discriminator 25
 870 05ea 7B68     		ldr	r3, [r7, #4]
 871 05ec 1B6B     		ldr	r3, [r3, #48]
 872 05ee B3F5E02F 		cmp	r3, #458752
 873 05f2 18D0     		beq	.L25
 874              		.loc 1 287 7 discriminator 26
 875 05f4 7B68     		ldr	r3, [r7, #4]
 876 05f6 1B6B     		ldr	r3, [r3, #48]
 877 05f8 B3F5C02F 		cmp	r3, #393216
 878 05fc 13D0     		beq	.L25
 879              		.loc 1 287 7 discriminator 27
 880 05fe 7B68     		ldr	r3, [r7, #4]
 881 0600 1B6B     		ldr	r3, [r3, #48]
 882 0602 B3F5A02F 		cmp	r3, #327680
 883 0606 0ED0     		beq	.L25
 884              		.loc 1 287 7 discriminator 28
 885 0608 7B68     		ldr	r3, [r7, #4]
 886 060a 1B6B     		ldr	r3, [r3, #48]
 887 060c B3F5802F 		cmp	r3, #262144
 888 0610 09D0     		beq	.L25
 889              		.loc 1 287 7 discriminator 29
 890 0612 7B68     		ldr	r3, [r7, #4]
 891 0614 1B6B     		ldr	r3, [r3, #48]
 892 0616 B3F5403F 		cmp	r3, #196608
 893 061a 04D0     		beq	.L25
 894              		.loc 1 287 7 discriminator 30
 895 061c 40F21F11 		movw	r1, #287
 896 0620 7948     		ldr	r0, .L67
 897 0622 FFF7FEFF 		bl	assert_failed
 898              	.L25:
 288:STM32Cube_FW_N6/Drivers/STM32N6xx_HAL_Driver/Src/stm32n6xx_hal_spi.c ****     }
 289:STM32Cube_FW_N6/Drivers/STM32N6xx_HAL_Driver/Src/stm32n6xx_hal_spi.c ****     assert_param(IS_SPI_CRC_POLYNOMIAL(hspi->Init.CRCPolynomial));
 899              		.loc 1 289 5 is_stmt 1
 900 0626 7B68     		ldr	r3, [r7, #4]
 901 0628 DB6A     		ldr	r3, [r3, #44]
ARM GAS  /tmp/ccwTXtVb.s 			page 22


 902 062a 002B     		cmp	r3, #0
 903 062c 04D1     		bne	.L26
 904              		.loc 1 289 5 is_stmt 0 discriminator 1
 905 062e 40F22111 		movw	r1, #289
 906 0632 7548     		ldr	r0, .L67
 907 0634 FFF7FEFF 		bl	assert_failed
 908              	.L26:
 290:STM32Cube_FW_N6/Drivers/STM32N6xx_HAL_Driver/Src/stm32n6xx_hal_spi.c ****     assert_param(IS_SPI_CRC_INITIALIZATION_PATTERN(hspi->Init.TxCRCInitializationPattern));
 909              		.loc 1 290 5 is_stmt 1
 910 0638 7B68     		ldr	r3, [r7, #4]
 911 063a 1B6C     		ldr	r3, [r3, #64]
 912 063c 002B     		cmp	r3, #0
 913 063e 08D0     		beq	.L27
 914              		.loc 1 290 5 is_stmt 0 discriminator 1
 915 0640 7B68     		ldr	r3, [r7, #4]
 916 0642 1B6C     		ldr	r3, [r3, #64]
 917 0644 012B     		cmp	r3, #1
 918 0646 04D0     		beq	.L27
 919              		.loc 1 290 5 discriminator 2
 920 0648 4FF49171 		mov	r1, #290
 921 064c 6E48     		ldr	r0, .L67
 922 064e FFF7FEFF 		bl	assert_failed
 923              	.L27:
 291:STM32Cube_FW_N6/Drivers/STM32N6xx_HAL_Driver/Src/stm32n6xx_hal_spi.c ****     assert_param(IS_SPI_CRC_INITIALIZATION_PATTERN(hspi->Init.RxCRCInitializationPattern));
 924              		.loc 1 291 5 is_stmt 1
 925 0652 7B68     		ldr	r3, [r7, #4]
 926 0654 5B6C     		ldr	r3, [r3, #68]
 927 0656 002B     		cmp	r3, #0
 928 0658 08D0     		beq	.L21
 929              		.loc 1 291 5 is_stmt 0 discriminator 1
 930 065a 7B68     		ldr	r3, [r7, #4]
 931 065c 5B6C     		ldr	r3, [r3, #68]
 932 065e 012B     		cmp	r3, #1
 933 0660 04D0     		beq	.L21
 934              		.loc 1 291 5 discriminator 2
 935 0662 40F22311 		movw	r1, #291
 936 0666 6848     		ldr	r0, .L67
 937 0668 FFF7FEFF 		bl	assert_failed
 938              	.L21:
 292:STM32Cube_FW_N6/Drivers/STM32N6xx_HAL_Driver/Src/stm32n6xx_hal_spi.c ****   }
 293:STM32Cube_FW_N6/Drivers/STM32N6xx_HAL_Driver/Src/stm32n6xx_hal_spi.c **** #else
 294:STM32Cube_FW_N6/Drivers/STM32N6xx_HAL_Driver/Src/stm32n6xx_hal_spi.c ****   hspi->Init.CRCCalculation = SPI_CRCCALCULATION_DISABLE;
 295:STM32Cube_FW_N6/Drivers/STM32N6xx_HAL_Driver/Src/stm32n6xx_hal_spi.c **** #endif /* USE_SPI_CRC */
 296:STM32Cube_FW_N6/Drivers/STM32N6xx_HAL_Driver/Src/stm32n6xx_hal_spi.c **** 
 297:STM32Cube_FW_N6/Drivers/STM32N6xx_HAL_Driver/Src/stm32n6xx_hal_spi.c ****   assert_param(IS_SPI_RDY_MASTER_MANAGEMENT(hspi->Init.ReadyMasterManagement));
 939              		.loc 1 297 3 is_stmt 1
 940 066c 7B68     		ldr	r3, [r7, #4]
 941 066e DB6D     		ldr	r3, [r3, #92]
 942 0670 002B     		cmp	r3, #0
 943 0672 09D0     		beq	.L28
 944              		.loc 1 297 3 is_stmt 0 discriminator 1
 945 0674 7B68     		ldr	r3, [r7, #4]
 946 0676 DB6D     		ldr	r3, [r3, #92]
 947 0678 B3F5005F 		cmp	r3, #8192
 948 067c 04D0     		beq	.L28
 949              		.loc 1 297 3 discriminator 2
 950 067e 40F22911 		movw	r1, #297
ARM GAS  /tmp/ccwTXtVb.s 			page 23


 951 0682 6148     		ldr	r0, .L67
 952 0684 FFF7FEFF 		bl	assert_failed
 953              	.L28:
 298:STM32Cube_FW_N6/Drivers/STM32N6xx_HAL_Driver/Src/stm32n6xx_hal_spi.c ****   assert_param(IS_SPI_RDY_POLARITY(hspi->Init.ReadyPolarity));
 954              		.loc 1 298 3 is_stmt 1
 955 0688 7B68     		ldr	r3, [r7, #4]
 956 068a 1B6E     		ldr	r3, [r3, #96]
 957 068c 002B     		cmp	r3, #0
 958 068e 09D0     		beq	.L29
 959              		.loc 1 298 3 is_stmt 0 discriminator 1
 960 0690 7B68     		ldr	r3, [r7, #4]
 961 0692 1B6E     		ldr	r3, [r3, #96]
 962 0694 B3F5804F 		cmp	r3, #16384
 963 0698 04D0     		beq	.L29
 964              		.loc 1 298 3 discriminator 2
 965 069a 4FF49571 		mov	r1, #298
 966 069e 5A48     		ldr	r0, .L67
 967 06a0 FFF7FEFF 		bl	assert_failed
 968              	.L29:
 299:STM32Cube_FW_N6/Drivers/STM32N6xx_HAL_Driver/Src/stm32n6xx_hal_spi.c ****   assert_param(IS_SPI_MASTER_RX_AUTOSUSP(hspi->Init.MasterReceiverAutoSusp));
 969              		.loc 1 299 3 is_stmt 1
 970 06a4 7B68     		ldr	r3, [r7, #4]
 971 06a6 1B6D     		ldr	r3, [r3, #80]
 972 06a8 002B     		cmp	r3, #0
 973 06aa 09D0     		beq	.L30
 974              		.loc 1 299 3 is_stmt 0 discriminator 1
 975 06ac 7B68     		ldr	r3, [r7, #4]
 976 06ae 1B6D     		ldr	r3, [r3, #80]
 977 06b0 B3F5807F 		cmp	r3, #256
 978 06b4 04D0     		beq	.L30
 979              		.loc 1 299 3 discriminator 2
 980 06b6 40F22B11 		movw	r1, #299
 981 06ba 5348     		ldr	r0, .L67
 982 06bc FFF7FEFF 		bl	assert_failed
 983              	.L30:
 300:STM32Cube_FW_N6/Drivers/STM32N6xx_HAL_Driver/Src/stm32n6xx_hal_spi.c **** 
 301:STM32Cube_FW_N6/Drivers/STM32N6xx_HAL_Driver/Src/stm32n6xx_hal_spi.c ****   /* Verify that the SPI instance supports Data Size higher than 16bits */
 302:STM32Cube_FW_N6/Drivers/STM32N6xx_HAL_Driver/Src/stm32n6xx_hal_spi.c ****   if ((IS_SPI_LIMITED_INSTANCE(hspi->Instance)) && (hspi->Init.DataSize > SPI_DATASIZE_16BIT))
 984              		.loc 1 302 8 is_stmt 1
 985 06c0 7B68     		ldr	r3, [r7, #4]
 986 06c2 1B68     		ldr	r3, [r3]
 987              		.loc 1 302 6
 988 06c4 514A     		ldr	r2, .L67+4
 989 06c6 9342     		cmp	r3, r2
 990 06c8 0ED0     		beq	.L31
 991              		.loc 1 302 8 discriminator 2
 992 06ca 7B68     		ldr	r3, [r7, #4]
 993 06cc 1B68     		ldr	r3, [r3]
 994 06ce 504A     		ldr	r2, .L67+8
 995 06d0 9342     		cmp	r3, r2
 996 06d2 09D0     		beq	.L31
 997              		.loc 1 302 8 is_stmt 0 discriminator 4
 998 06d4 7B68     		ldr	r3, [r7, #4]
 999 06d6 1B68     		ldr	r3, [r3]
 1000 06d8 4E4A     		ldr	r2, .L67+12
 1001 06da 9342     		cmp	r3, r2
 1002 06dc 04D0     		beq	.L31
ARM GAS  /tmp/ccwTXtVb.s 			page 24


 1003              		.loc 1 302 8 discriminator 6
 1004 06de 7B68     		ldr	r3, [r7, #4]
 1005 06e0 1B68     		ldr	r3, [r3]
 1006 06e2 4D4A     		ldr	r2, .L67+16
 1007 06e4 9342     		cmp	r3, r2
 1008 06e6 05D1     		bne	.L32
 1009              	.L31:
 1010              		.loc 1 302 63 is_stmt 1 discriminator 7
 1011 06e8 7B68     		ldr	r3, [r7, #4]
 1012 06ea DB68     		ldr	r3, [r3, #12]
 1013              		.loc 1 302 49 discriminator 7
 1014 06ec 0F2B     		cmp	r3, #15
 1015 06ee 01D9     		bls	.L32
 303:STM32Cube_FW_N6/Drivers/STM32N6xx_HAL_Driver/Src/stm32n6xx_hal_spi.c ****   {
 304:STM32Cube_FW_N6/Drivers/STM32N6xx_HAL_Driver/Src/stm32n6xx_hal_spi.c ****     return HAL_ERROR;
 1016              		.loc 1 304 12
 1017 06f0 0123     		movs	r3, #1
 1018 06f2 01E2     		b	.L3
 1019              	.L32:
 305:STM32Cube_FW_N6/Drivers/STM32N6xx_HAL_Driver/Src/stm32n6xx_hal_spi.c ****   }
 306:STM32Cube_FW_N6/Drivers/STM32N6xx_HAL_Driver/Src/stm32n6xx_hal_spi.c **** 
 307:STM32Cube_FW_N6/Drivers/STM32N6xx_HAL_Driver/Src/stm32n6xx_hal_spi.c ****   /* Verify that the SPI instance supports requested data packing */
 308:STM32Cube_FW_N6/Drivers/STM32N6xx_HAL_Driver/Src/stm32n6xx_hal_spi.c ****   packet_length = SPI_GetPacketSize(hspi);
 1020              		.loc 1 308 19
 1021 06f4 7868     		ldr	r0, [r7, #4]
 1022 06f6 FFF7FEFF 		bl	SPI_GetPacketSize
 1023 06fa 3861     		str	r0, [r7, #16]
 309:STM32Cube_FW_N6/Drivers/STM32N6xx_HAL_Driver/Src/stm32n6xx_hal_spi.c ****   if (((IS_SPI_LIMITED_INSTANCE(hspi->Instance)) && (packet_length > SPI_LOWEND_FIFO_SIZE)) ||
 1024              		.loc 1 309 9
 1025 06fc 7B68     		ldr	r3, [r7, #4]
 1026 06fe 1B68     		ldr	r3, [r3]
 1027              		.loc 1 309 6
 1028 0700 424A     		ldr	r2, .L67+4
 1029 0702 9342     		cmp	r3, r2
 1030 0704 0ED0     		beq	.L33
 1031              		.loc 1 309 9 discriminator 2
 1032 0706 7B68     		ldr	r3, [r7, #4]
 1033 0708 1B68     		ldr	r3, [r3]
 1034 070a 414A     		ldr	r2, .L67+8
 1035 070c 9342     		cmp	r3, r2
 1036 070e 09D0     		beq	.L33
 1037              		.loc 1 309 9 is_stmt 0 discriminator 4
 1038 0710 7B68     		ldr	r3, [r7, #4]
 1039 0712 1B68     		ldr	r3, [r3]
 1040 0714 3F4A     		ldr	r2, .L67+12
 1041 0716 9342     		cmp	r3, r2
 1042 0718 04D0     		beq	.L33
 1043              		.loc 1 309 9 discriminator 6
 1044 071a 7B68     		ldr	r3, [r7, #4]
 1045 071c 1B68     		ldr	r3, [r3]
 1046 071e 3E4A     		ldr	r2, .L67+16
 1047 0720 9342     		cmp	r3, r2
 1048 0722 02D1     		bne	.L34
 1049              	.L33:
 1050              		.loc 1 309 50 is_stmt 1 discriminator 7
 1051 0724 3B69     		ldr	r3, [r7, #16]
 1052 0726 082B     		cmp	r3, #8
ARM GAS  /tmp/ccwTXtVb.s 			page 25


 1053 0728 2AD8     		bhi	.L35
 1054              	.L34:
 310:STM32Cube_FW_N6/Drivers/STM32N6xx_HAL_Driver/Src/stm32n6xx_hal_spi.c ****       ((IS_SPI_FULL_INSTANCE(hspi->Instance)) && (packet_length > SPI_HIGHEND_FIFO_SIZE)))
 1055              		.loc 1 310 9
 1056 072a 7B68     		ldr	r3, [r7, #4]
 1057 072c 1B68     		ldr	r3, [r3]
 309:STM32Cube_FW_N6/Drivers/STM32N6xx_HAL_Driver/Src/stm32n6xx_hal_spi.c ****   if (((IS_SPI_LIMITED_INSTANCE(hspi->Instance)) && (packet_length > SPI_LOWEND_FIFO_SIZE)) ||
 1058              		.loc 1 309 93 discriminator 9
 1059 072e 3B4A     		ldr	r2, .L67+20
 1060 0730 9342     		cmp	r3, r2
 1061 0732 22D0     		beq	.L36
 1062              		.loc 1 310 9
 1063 0734 7B68     		ldr	r3, [r7, #4]
 1064 0736 1B68     		ldr	r3, [r3]
 1065 0738 394A     		ldr	r2, .L67+24
 1066 073a 9342     		cmp	r3, r2
 1067 073c 1DD0     		beq	.L36
 1068              		.loc 1 310 9 is_stmt 0 discriminator 2
 1069 073e 7B68     		ldr	r3, [r7, #4]
 1070 0740 1B68     		ldr	r3, [r3]
 1071 0742 384A     		ldr	r2, .L67+28
 1072 0744 9342     		cmp	r3, r2
 1073 0746 18D0     		beq	.L36
 1074              		.loc 1 310 9 discriminator 4
 1075 0748 7B68     		ldr	r3, [r7, #4]
 1076 074a 1B68     		ldr	r3, [r3]
 1077 074c 364A     		ldr	r2, .L67+32
 1078 074e 9342     		cmp	r3, r2
 1079 0750 13D0     		beq	.L36
 1080              		.loc 1 310 9 discriminator 6
 1081 0752 7B68     		ldr	r3, [r7, #4]
 1082 0754 1B68     		ldr	r3, [r3]
 1083 0756 354A     		ldr	r2, .L67+36
 1084 0758 9342     		cmp	r3, r2
 1085 075a 0ED0     		beq	.L36
 1086              		.loc 1 310 9 discriminator 8
 1087 075c 7B68     		ldr	r3, [r7, #4]
 1088 075e 1B68     		ldr	r3, [r3]
 1089 0760 334A     		ldr	r2, .L67+40
 1090 0762 9342     		cmp	r3, r2
 1091 0764 09D0     		beq	.L36
 1092              		.loc 1 310 9 discriminator 10
 1093 0766 7B68     		ldr	r3, [r7, #4]
 1094 0768 1B68     		ldr	r3, [r3]
 1095 076a 324A     		ldr	r2, .L67+44
 1096 076c 9342     		cmp	r3, r2
 1097 076e 04D0     		beq	.L36
 1098              		.loc 1 310 9 discriminator 12
 1099 0770 7B68     		ldr	r3, [r7, #4]
 1100 0772 1B68     		ldr	r3, [r3]
 1101 0774 304A     		ldr	r2, .L67+48
 1102 0776 9342     		cmp	r3, r2
 1103 0778 04D1     		bne	.L37
 1104              	.L36:
 1105              		.loc 1 310 47 is_stmt 1 discriminator 13
 1106 077a 3B69     		ldr	r3, [r7, #16]
 1107 077c 102B     		cmp	r3, #16
ARM GAS  /tmp/ccwTXtVb.s 			page 26


 1108 077e 01D9     		bls	.L37
 1109              	.L35:
 311:STM32Cube_FW_N6/Drivers/STM32N6xx_HAL_Driver/Src/stm32n6xx_hal_spi.c ****   {
 312:STM32Cube_FW_N6/Drivers/STM32N6xx_HAL_Driver/Src/stm32n6xx_hal_spi.c ****     return HAL_ERROR;
 1110              		.loc 1 312 12
 1111 0780 0123     		movs	r3, #1
 1112 0782 B9E1     		b	.L3
 1113              	.L37:
 313:STM32Cube_FW_N6/Drivers/STM32N6xx_HAL_Driver/Src/stm32n6xx_hal_spi.c ****   }
 314:STM32Cube_FW_N6/Drivers/STM32N6xx_HAL_Driver/Src/stm32n6xx_hal_spi.c **** #if (USE_SPI_CRC != 0UL)
 315:STM32Cube_FW_N6/Drivers/STM32N6xx_HAL_Driver/Src/stm32n6xx_hal_spi.c ****   if (hspi->Init.CRCCalculation == SPI_CRCCALCULATION_ENABLE)
 1114              		.loc 1 315 17
 1115 0784 7B68     		ldr	r3, [r7, #4]
 1116 0786 9B6A     		ldr	r3, [r3, #40]
 1117              		.loc 1 315 6
 1118 0788 B3F5800F 		cmp	r3, #4194304
 1119 078c 56D1     		bne	.L38
 316:STM32Cube_FW_N6/Drivers/STM32N6xx_HAL_Driver/Src/stm32n6xx_hal_spi.c ****   {
 317:STM32Cube_FW_N6/Drivers/STM32N6xx_HAL_Driver/Src/stm32n6xx_hal_spi.c ****     /* Verify that the SPI instance supports CRC Length higher than 16bits */
 318:STM32Cube_FW_N6/Drivers/STM32N6xx_HAL_Driver/Src/stm32n6xx_hal_spi.c ****     if ((IS_SPI_LIMITED_INSTANCE(hspi->Instance)) && (hspi->Init.CRCLength > SPI_CRC_LENGTH_16BIT))
 1120              		.loc 1 318 10
 1121 078e 7B68     		ldr	r3, [r7, #4]
 1122 0790 1B68     		ldr	r3, [r3]
 1123              		.loc 1 318 8
 1124 0792 1E4A     		ldr	r2, .L67+4
 1125 0794 9342     		cmp	r3, r2
 1126 0796 0ED0     		beq	.L39
 1127              		.loc 1 318 10 discriminator 2
 1128 0798 7B68     		ldr	r3, [r7, #4]
 1129 079a 1B68     		ldr	r3, [r3]
 1130 079c 1C4A     		ldr	r2, .L67+8
 1131 079e 9342     		cmp	r3, r2
 1132 07a0 09D0     		beq	.L39
 1133              		.loc 1 318 10 is_stmt 0 discriminator 4
 1134 07a2 7B68     		ldr	r3, [r7, #4]
 1135 07a4 1B68     		ldr	r3, [r3]
 1136 07a6 1B4A     		ldr	r2, .L67+12
 1137 07a8 9342     		cmp	r3, r2
 1138 07aa 04D0     		beq	.L39
 1139              		.loc 1 318 10 discriminator 6
 1140 07ac 7B68     		ldr	r3, [r7, #4]
 1141 07ae 1B68     		ldr	r3, [r3]
 1142 07b0 194A     		ldr	r2, .L67+16
 1143 07b2 9342     		cmp	r3, r2
 1144 07b4 06D1     		bne	.L40
 1145              	.L39:
 1146              		.loc 1 318 65 is_stmt 1 discriminator 7
 1147 07b6 7B68     		ldr	r3, [r7, #4]
 1148 07b8 1B6B     		ldr	r3, [r3, #48]
 1149              		.loc 1 318 51 discriminator 7
 1150 07ba B3F5702F 		cmp	r3, #983040
 1151 07be 01D9     		bls	.L40
 319:STM32Cube_FW_N6/Drivers/STM32N6xx_HAL_Driver/Src/stm32n6xx_hal_spi.c ****     {
 320:STM32Cube_FW_N6/Drivers/STM32N6xx_HAL_Driver/Src/stm32n6xx_hal_spi.c ****       return HAL_ERROR;
 1152              		.loc 1 320 14
 1153 07c0 0123     		movs	r3, #1
 1154 07c2 99E1     		b	.L3
ARM GAS  /tmp/ccwTXtVb.s 			page 27


 1155              	.L40:
 321:STM32Cube_FW_N6/Drivers/STM32N6xx_HAL_Driver/Src/stm32n6xx_hal_spi.c ****     }
 322:STM32Cube_FW_N6/Drivers/STM32N6xx_HAL_Driver/Src/stm32n6xx_hal_spi.c **** 
 323:STM32Cube_FW_N6/Drivers/STM32N6xx_HAL_Driver/Src/stm32n6xx_hal_spi.c ****     /* Align the CRC Length on the data size */
 324:STM32Cube_FW_N6/Drivers/STM32N6xx_HAL_Driver/Src/stm32n6xx_hal_spi.c ****     if (hspi->Init.CRCLength == SPI_CRC_LENGTH_DATASIZE)
 1156              		.loc 1 324 19
 1157 07c4 7B68     		ldr	r3, [r7, #4]
 1158 07c6 1B6B     		ldr	r3, [r3, #48]
 1159              		.loc 1 324 8
 1160 07c8 002B     		cmp	r3, #0
 1161 07ca 04D1     		bne	.L41
 325:STM32Cube_FW_N6/Drivers/STM32N6xx_HAL_Driver/Src/stm32n6xx_hal_spi.c ****     {
 326:STM32Cube_FW_N6/Drivers/STM32N6xx_HAL_Driver/Src/stm32n6xx_hal_spi.c ****       crc_length = (hspi->Init.DataSize >> SPI_CFG1_DSIZE_Pos) << SPI_CFG1_CRCSIZE_Pos;
 1162              		.loc 1 326 41
 1163 07cc 7B68     		ldr	r3, [r7, #4]
 1164 07ce DB68     		ldr	r3, [r3, #12]
 1165              		.loc 1 326 18
 1166 07d0 1B04     		lsls	r3, r3, #16
 1167 07d2 7B61     		str	r3, [r7, #20]
 1168 07d4 02E0     		b	.L42
 1169              	.L41:
 327:STM32Cube_FW_N6/Drivers/STM32N6xx_HAL_Driver/Src/stm32n6xx_hal_spi.c ****     }
 328:STM32Cube_FW_N6/Drivers/STM32N6xx_HAL_Driver/Src/stm32n6xx_hal_spi.c ****     else
 329:STM32Cube_FW_N6/Drivers/STM32N6xx_HAL_Driver/Src/stm32n6xx_hal_spi.c ****     {
 330:STM32Cube_FW_N6/Drivers/STM32N6xx_HAL_Driver/Src/stm32n6xx_hal_spi.c ****       crc_length = hspi->Init.CRCLength;
 1170              		.loc 1 330 18
 1171 07d6 7B68     		ldr	r3, [r7, #4]
 1172 07d8 1B6B     		ldr	r3, [r3, #48]
 1173 07da 7B61     		str	r3, [r7, #20]
 1174              	.L42:
 331:STM32Cube_FW_N6/Drivers/STM32N6xx_HAL_Driver/Src/stm32n6xx_hal_spi.c ****     }
 332:STM32Cube_FW_N6/Drivers/STM32N6xx_HAL_Driver/Src/stm32n6xx_hal_spi.c **** 
 333:STM32Cube_FW_N6/Drivers/STM32N6xx_HAL_Driver/Src/stm32n6xx_hal_spi.c ****     /* Verify the correctness of polynom size */
 334:STM32Cube_FW_N6/Drivers/STM32N6xx_HAL_Driver/Src/stm32n6xx_hal_spi.c ****     assert_param(IS_SPI_CRC_POLYNOMIAL_SIZE(hspi->Init.CRCPolynomial, crc_length));
 1175              		.loc 1 334 5
 1176 07dc 7B68     		ldr	r3, [r7, #4]
 1177 07de DA6A     		ldr	r2, [r3, #44]
 1178 07e0 7B69     		ldr	r3, [r7, #20]
 1179 07e2 1B0C     		lsrs	r3, r3, #16
 1180 07e4 0133     		adds	r3, r3, #1
 1181 07e6 22FA03F3 		lsr	r3, r2, r3
 1182 07ea 002B     		cmp	r3, #0
 1183 07ec 04D0     		beq	.L43
 1184              		.loc 1 334 5 is_stmt 0 discriminator 1
 1185 07ee 4FF4A771 		mov	r1, #334
 1186 07f2 0548     		ldr	r0, .L67
 1187 07f4 FFF7FEFF 		bl	assert_failed
 1188              	.L43:
 335:STM32Cube_FW_N6/Drivers/STM32N6xx_HAL_Driver/Src/stm32n6xx_hal_spi.c **** 
 336:STM32Cube_FW_N6/Drivers/STM32N6xx_HAL_Driver/Src/stm32n6xx_hal_spi.c ****     /* Verify that the CRC Length is higher than DataSize */
 337:STM32Cube_FW_N6/Drivers/STM32N6xx_HAL_Driver/Src/stm32n6xx_hal_spi.c ****     if ((hspi->Init.DataSize >> SPI_CFG1_DSIZE_Pos) > (crc_length >> SPI_CFG1_CRCSIZE_Pos))
 1189              		.loc 1 337 30 is_stmt 1
 1190 07f8 7B68     		ldr	r3, [r7, #4]
 1191 07fa DA68     		ldr	r2, [r3, #12]
 1192              		.loc 1 337 67
 1193 07fc 7B69     		ldr	r3, [r7, #20]
 1194 07fe 1B0C     		lsrs	r3, r3, #16
ARM GAS  /tmp/ccwTXtVb.s 			page 28


 1195              		.loc 1 337 8
 1196 0800 9A42     		cmp	r2, r3
 1197 0802 1FD9     		bls	.L44
 338:STM32Cube_FW_N6/Drivers/STM32N6xx_HAL_Driver/Src/stm32n6xx_hal_spi.c ****     {
 339:STM32Cube_FW_N6/Drivers/STM32N6xx_HAL_Driver/Src/stm32n6xx_hal_spi.c ****       return HAL_ERROR;
 1198              		.loc 1 339 14
 1199 0804 0123     		movs	r3, #1
 1200 0806 77E1     		b	.L3
 1201              	.L68:
 1202              		.align	2
 1203              	.L67:
 1204 0808 00000000 		.word	.LC0
 1205 080c 00340052 		.word	1375745024
 1206 0810 00340042 		.word	1107309568
 1207 0814 00500052 		.word	1375752192
 1208 0818 00500042 		.word	1107316736
 1209 081c 00300052 		.word	1375744000
 1210 0820 00300042 		.word	1107308544
 1211 0824 00380050 		.word	1342191616
 1212 0828 00380040 		.word	1073756160
 1213 082c 003C0050 		.word	1342192640
 1214 0830 003C0040 		.word	1073757184
 1215 0834 00140056 		.word	1442845696
 1216 0838 00140046 		.word	1174410240
 1217              	.L38:
 340:STM32Cube_FW_N6/Drivers/STM32N6xx_HAL_Driver/Src/stm32n6xx_hal_spi.c ****     }
 341:STM32Cube_FW_N6/Drivers/STM32N6xx_HAL_Driver/Src/stm32n6xx_hal_spi.c ****   }
 342:STM32Cube_FW_N6/Drivers/STM32N6xx_HAL_Driver/Src/stm32n6xx_hal_spi.c ****   else
 343:STM32Cube_FW_N6/Drivers/STM32N6xx_HAL_Driver/Src/stm32n6xx_hal_spi.c ****   {
 344:STM32Cube_FW_N6/Drivers/STM32N6xx_HAL_Driver/Src/stm32n6xx_hal_spi.c ****     crc_length = hspi->Init.DataSize << SPI_CFG1_CRCSIZE_Pos;
 1218              		.loc 1 344 28
 1219 083c 7B68     		ldr	r3, [r7, #4]
 1220 083e DB68     		ldr	r3, [r3, #12]
 1221              		.loc 1 344 16
 1222 0840 1B04     		lsls	r3, r3, #16
 1223 0842 7B61     		str	r3, [r7, #20]
 1224              	.L44:
 345:STM32Cube_FW_N6/Drivers/STM32N6xx_HAL_Driver/Src/stm32n6xx_hal_spi.c ****   }
 346:STM32Cube_FW_N6/Drivers/STM32N6xx_HAL_Driver/Src/stm32n6xx_hal_spi.c **** #endif /* USE_SPI_CRC */
 347:STM32Cube_FW_N6/Drivers/STM32N6xx_HAL_Driver/Src/stm32n6xx_hal_spi.c **** 
 348:STM32Cube_FW_N6/Drivers/STM32N6xx_HAL_Driver/Src/stm32n6xx_hal_spi.c ****   if (hspi->State == HAL_SPI_STATE_RESET)
 1225              		.loc 1 348 11
 1226 0844 7B68     		ldr	r3, [r7, #4]
 1227 0846 93F88930 		ldrb	r3, [r3, #137]
 1228 084a DBB2     		uxtb	r3, r3
 1229              		.loc 1 348 6
 1230 084c 002B     		cmp	r3, #0
 1231 084e 06D1     		bne	.L45
 349:STM32Cube_FW_N6/Drivers/STM32N6xx_HAL_Driver/Src/stm32n6xx_hal_spi.c ****   {
 350:STM32Cube_FW_N6/Drivers/STM32N6xx_HAL_Driver/Src/stm32n6xx_hal_spi.c ****     /* Allocate lock resource and initialize it */
 351:STM32Cube_FW_N6/Drivers/STM32N6xx_HAL_Driver/Src/stm32n6xx_hal_spi.c ****     hspi->Lock = HAL_UNLOCKED;
 1232              		.loc 1 351 16
 1233 0850 7B68     		ldr	r3, [r7, #4]
 1234 0852 0022     		movs	r2, #0
 1235 0854 83F88820 		strb	r2, [r3, #136]
 352:STM32Cube_FW_N6/Drivers/STM32N6xx_HAL_Driver/Src/stm32n6xx_hal_spi.c **** 
 353:STM32Cube_FW_N6/Drivers/STM32N6xx_HAL_Driver/Src/stm32n6xx_hal_spi.c **** #if (USE_HAL_SPI_REGISTER_CALLBACKS == 1UL)
ARM GAS  /tmp/ccwTXtVb.s 			page 29


 354:STM32Cube_FW_N6/Drivers/STM32N6xx_HAL_Driver/Src/stm32n6xx_hal_spi.c ****     /* Init the SPI Callback settings */
 355:STM32Cube_FW_N6/Drivers/STM32N6xx_HAL_Driver/Src/stm32n6xx_hal_spi.c ****     hspi->TxCpltCallback       = HAL_SPI_TxCpltCallback;       /* Legacy weak TxCpltCallback       
 356:STM32Cube_FW_N6/Drivers/STM32N6xx_HAL_Driver/Src/stm32n6xx_hal_spi.c ****     hspi->RxCpltCallback       = HAL_SPI_RxCpltCallback;       /* Legacy weak RxCpltCallback       
 357:STM32Cube_FW_N6/Drivers/STM32N6xx_HAL_Driver/Src/stm32n6xx_hal_spi.c ****     hspi->TxRxCpltCallback     = HAL_SPI_TxRxCpltCallback;     /* Legacy weak TxRxCpltCallback     
 358:STM32Cube_FW_N6/Drivers/STM32N6xx_HAL_Driver/Src/stm32n6xx_hal_spi.c ****     hspi->TxHalfCpltCallback   = HAL_SPI_TxHalfCpltCallback;   /* Legacy weak TxHalfCpltCallback   
 359:STM32Cube_FW_N6/Drivers/STM32N6xx_HAL_Driver/Src/stm32n6xx_hal_spi.c ****     hspi->RxHalfCpltCallback   = HAL_SPI_RxHalfCpltCallback;   /* Legacy weak RxHalfCpltCallback   
 360:STM32Cube_FW_N6/Drivers/STM32N6xx_HAL_Driver/Src/stm32n6xx_hal_spi.c ****     hspi->TxRxHalfCpltCallback = HAL_SPI_TxRxHalfCpltCallback; /* Legacy weak TxRxHalfCpltCallback 
 361:STM32Cube_FW_N6/Drivers/STM32N6xx_HAL_Driver/Src/stm32n6xx_hal_spi.c ****     hspi->ErrorCallback        = HAL_SPI_ErrorCallback;        /* Legacy weak ErrorCallback        
 362:STM32Cube_FW_N6/Drivers/STM32N6xx_HAL_Driver/Src/stm32n6xx_hal_spi.c ****     hspi->AbortCpltCallback    = HAL_SPI_AbortCpltCallback;    /* Legacy weak AbortCpltCallback    
 363:STM32Cube_FW_N6/Drivers/STM32N6xx_HAL_Driver/Src/stm32n6xx_hal_spi.c ****     hspi->SuspendCallback      = HAL_SPI_SuspendCallback;      /* Legacy weak SuspendCallback      
 364:STM32Cube_FW_N6/Drivers/STM32N6xx_HAL_Driver/Src/stm32n6xx_hal_spi.c **** 
 365:STM32Cube_FW_N6/Drivers/STM32N6xx_HAL_Driver/Src/stm32n6xx_hal_spi.c ****     if (hspi->MspInitCallback == NULL)
 366:STM32Cube_FW_N6/Drivers/STM32N6xx_HAL_Driver/Src/stm32n6xx_hal_spi.c ****     {
 367:STM32Cube_FW_N6/Drivers/STM32N6xx_HAL_Driver/Src/stm32n6xx_hal_spi.c ****       hspi->MspInitCallback = HAL_SPI_MspInit; /* Legacy weak MspInit  */
 368:STM32Cube_FW_N6/Drivers/STM32N6xx_HAL_Driver/Src/stm32n6xx_hal_spi.c ****     }
 369:STM32Cube_FW_N6/Drivers/STM32N6xx_HAL_Driver/Src/stm32n6xx_hal_spi.c **** 
 370:STM32Cube_FW_N6/Drivers/STM32N6xx_HAL_Driver/Src/stm32n6xx_hal_spi.c ****     /* Init the low level hardware : GPIO, CLOCK, NVIC... */
 371:STM32Cube_FW_N6/Drivers/STM32N6xx_HAL_Driver/Src/stm32n6xx_hal_spi.c ****     hspi->MspInitCallback(hspi);
 372:STM32Cube_FW_N6/Drivers/STM32N6xx_HAL_Driver/Src/stm32n6xx_hal_spi.c **** #else
 373:STM32Cube_FW_N6/Drivers/STM32N6xx_HAL_Driver/Src/stm32n6xx_hal_spi.c ****     /* Init the low level hardware : GPIO, CLOCK, NVIC... */
 374:STM32Cube_FW_N6/Drivers/STM32N6xx_HAL_Driver/Src/stm32n6xx_hal_spi.c ****     HAL_SPI_MspInit(hspi);
 1236              		.loc 1 374 5
 1237 0858 7868     		ldr	r0, [r7, #4]
 1238 085a FFF7FEFF 		bl	HAL_SPI_MspInit
 1239              	.L45:
 375:STM32Cube_FW_N6/Drivers/STM32N6xx_HAL_Driver/Src/stm32n6xx_hal_spi.c **** #endif /* USE_HAL_SPI_REGISTER_CALLBACKS */
 376:STM32Cube_FW_N6/Drivers/STM32N6xx_HAL_Driver/Src/stm32n6xx_hal_spi.c ****   }
 377:STM32Cube_FW_N6/Drivers/STM32N6xx_HAL_Driver/Src/stm32n6xx_hal_spi.c **** 
 378:STM32Cube_FW_N6/Drivers/STM32N6xx_HAL_Driver/Src/stm32n6xx_hal_spi.c ****   hspi->State = HAL_SPI_STATE_BUSY;
 1240              		.loc 1 378 15
 1241 085e 7B68     		ldr	r3, [r7, #4]
 1242 0860 0222     		movs	r2, #2
 1243 0862 83F88920 		strb	r2, [r3, #137]
 379:STM32Cube_FW_N6/Drivers/STM32N6xx_HAL_Driver/Src/stm32n6xx_hal_spi.c **** 
 380:STM32Cube_FW_N6/Drivers/STM32N6xx_HAL_Driver/Src/stm32n6xx_hal_spi.c ****   /* Disable the selected SPI peripheral */
 381:STM32Cube_FW_N6/Drivers/STM32N6xx_HAL_Driver/Src/stm32n6xx_hal_spi.c ****   __HAL_SPI_DISABLE(hspi);
 1244              		.loc 1 381 3
 1245 0866 7B68     		ldr	r3, [r7, #4]
 1246 0868 1B68     		ldr	r3, [r3]
 1247 086a 1A68     		ldr	r2, [r3]
 1248 086c 7B68     		ldr	r3, [r7, #4]
 1249 086e 1B68     		ldr	r3, [r3]
 1250 0870 22F00102 		bic	r2, r2, #1
 1251 0874 1A60     		str	r2, [r3]
 382:STM32Cube_FW_N6/Drivers/STM32N6xx_HAL_Driver/Src/stm32n6xx_hal_spi.c **** 
 383:STM32Cube_FW_N6/Drivers/STM32N6xx_HAL_Driver/Src/stm32n6xx_hal_spi.c **** #if (USE_SPI_CRC == 0)
 384:STM32Cube_FW_N6/Drivers/STM32N6xx_HAL_Driver/Src/stm32n6xx_hal_spi.c ****   /* Keep the default value of CRCSIZE in case of CRC is not used */
 385:STM32Cube_FW_N6/Drivers/STM32N6xx_HAL_Driver/Src/stm32n6xx_hal_spi.c ****   crc_length = hspi->Instance->CFG1 & SPI_CFG1_CRCSIZE;
 386:STM32Cube_FW_N6/Drivers/STM32N6xx_HAL_Driver/Src/stm32n6xx_hal_spi.c **** #endif /* USE_SPI_CRC */
 387:STM32Cube_FW_N6/Drivers/STM32N6xx_HAL_Driver/Src/stm32n6xx_hal_spi.c **** 
 388:STM32Cube_FW_N6/Drivers/STM32N6xx_HAL_Driver/Src/stm32n6xx_hal_spi.c ****   /*----------------------- SPIx CR1 & CR2 Configuration ---------------------*/
 389:STM32Cube_FW_N6/Drivers/STM32N6xx_HAL_Driver/Src/stm32n6xx_hal_spi.c ****   /* Configure : SPI Mode, Communication Mode, Clock polarity and phase, NSS management,
 390:STM32Cube_FW_N6/Drivers/STM32N6xx_HAL_Driver/Src/stm32n6xx_hal_spi.c ****   Communication speed, First bit, CRC calculation state, CRC Length */
 391:STM32Cube_FW_N6/Drivers/STM32N6xx_HAL_Driver/Src/stm32n6xx_hal_spi.c **** 
 392:STM32Cube_FW_N6/Drivers/STM32N6xx_HAL_Driver/Src/stm32n6xx_hal_spi.c ****   /* SPIx NSS Software Management Configuration */
 393:STM32Cube_FW_N6/Drivers/STM32N6xx_HAL_Driver/Src/stm32n6xx_hal_spi.c ****   if ((hspi->Init.NSS == SPI_NSS_SOFT) && (((hspi->Init.Mode == SPI_MODE_MASTER) &&  \
 1252              		.loc 1 393 18
ARM GAS  /tmp/ccwTXtVb.s 			page 30


 1253 0876 7B68     		ldr	r3, [r7, #4]
 1254 0878 9B69     		ldr	r3, [r3, #24]
 1255              		.loc 1 393 6
 1256 087a B3F1806F 		cmp	r3, #67108864
 1257 087e 19D1     		bne	.L46
 1258              		.loc 1 393 56 discriminator 1
 1259 0880 7B68     		ldr	r3, [r7, #4]
 1260 0882 5B68     		ldr	r3, [r3, #4]
 1261              		.loc 1 393 40 discriminator 1
 1262 0884 B3F5800F 		cmp	r3, #4194304
 1263 0888 03D1     		bne	.L47
 394:STM32Cube_FW_N6/Drivers/STM32N6xx_HAL_Driver/Src/stm32n6xx_hal_spi.c ****                                             (hspi->Init.NSSPolarity == SPI_NSS_POLARITY_LOW)) || \
 1264              		.loc 1 394 56
 1265 088a 7B68     		ldr	r3, [r7, #4]
 1266 088c 9B6B     		ldr	r3, [r3, #56]
 393:STM32Cube_FW_N6/Drivers/STM32N6xx_HAL_Driver/Src/stm32n6xx_hal_spi.c ****                                             (hspi->Init.NSSPolarity == SPI_NSS_POLARITY_LOW)) || \
 1267              		.loc 1 393 82 discriminator 2
 1268 088e 002B     		cmp	r3, #0
 1269 0890 08D0     		beq	.L48
 1270              	.L47:
 395:STM32Cube_FW_N6/Drivers/STM32N6xx_HAL_Driver/Src/stm32n6xx_hal_spi.c ****                                            ((hspi->Init.Mode == SPI_MODE_SLAVE) && \
 1271              		.loc 1 395 56
 1272 0892 7B68     		ldr	r3, [r7, #4]
 1273 0894 5B68     		ldr	r3, [r3, #4]
 394:STM32Cube_FW_N6/Drivers/STM32N6xx_HAL_Driver/Src/stm32n6xx_hal_spi.c ****                                             (hspi->Init.NSSPolarity == SPI_NSS_POLARITY_LOW)) || \
 1274              		.loc 1 394 95
 1275 0896 002B     		cmp	r3, #0
 1276 0898 0CD1     		bne	.L46
 396:STM32Cube_FW_N6/Drivers/STM32N6xx_HAL_Driver/Src/stm32n6xx_hal_spi.c ****                                             (hspi->Init.NSSPolarity == SPI_NSS_POLARITY_HIGH))))
 1277              		.loc 1 396 56
 1278 089a 7B68     		ldr	r3, [r7, #4]
 1279 089c 9B6B     		ldr	r3, [r3, #56]
 395:STM32Cube_FW_N6/Drivers/STM32N6xx_HAL_Driver/Src/stm32n6xx_hal_spi.c ****                                            ((hspi->Init.Mode == SPI_MODE_SLAVE) && \
 1280              		.loc 1 395 81
 1281 089e B3F1805F 		cmp	r3, #268435456
 1282 08a2 07D1     		bne	.L46
 1283              	.L48:
 397:STM32Cube_FW_N6/Drivers/STM32N6xx_HAL_Driver/Src/stm32n6xx_hal_spi.c ****   {
 398:STM32Cube_FW_N6/Drivers/STM32N6xx_HAL_Driver/Src/stm32n6xx_hal_spi.c ****     SET_BIT(hspi->Instance->CR1, SPI_CR1_SSI);
 1284              		.loc 1 398 5
 1285 08a4 7B68     		ldr	r3, [r7, #4]
 1286 08a6 1B68     		ldr	r3, [r3]
 1287 08a8 1A68     		ldr	r2, [r3]
 1288 08aa 7B68     		ldr	r3, [r7, #4]
 1289 08ac 1B68     		ldr	r3, [r3]
 1290 08ae 42F48052 		orr	r2, r2, #4096
 1291 08b2 1A60     		str	r2, [r3]
 1292              	.L46:
 399:STM32Cube_FW_N6/Drivers/STM32N6xx_HAL_Driver/Src/stm32n6xx_hal_spi.c ****   }
 400:STM32Cube_FW_N6/Drivers/STM32N6xx_HAL_Driver/Src/stm32n6xx_hal_spi.c **** 
 401:STM32Cube_FW_N6/Drivers/STM32N6xx_HAL_Driver/Src/stm32n6xx_hal_spi.c ****   /* SPIx Master Rx Auto Suspend Configuration */
 402:STM32Cube_FW_N6/Drivers/STM32N6xx_HAL_Driver/Src/stm32n6xx_hal_spi.c ****   if (((hspi->Init.Mode & SPI_MODE_MASTER) == SPI_MODE_MASTER) && (hspi->Init.DataSize >= SPI_DATAS
 1293              		.loc 1 402 19
 1294 08b4 7B68     		ldr	r3, [r7, #4]
 1295 08b6 5B68     		ldr	r3, [r3, #4]
 1296              		.loc 1 402 25
 1297 08b8 03F48003 		and	r3, r3, #4194304
ARM GAS  /tmp/ccwTXtVb.s 			page 31


 1298              		.loc 1 402 6
 1299 08bc 002B     		cmp	r3, #0
 1300 08be 0FD0     		beq	.L49
 1301              		.loc 1 402 78 discriminator 1
 1302 08c0 7B68     		ldr	r3, [r7, #4]
 1303 08c2 DB68     		ldr	r3, [r3, #12]
 1304              		.loc 1 402 64 discriminator 1
 1305 08c4 062B     		cmp	r3, #6
 1306 08c6 0BD9     		bls	.L49
 403:STM32Cube_FW_N6/Drivers/STM32N6xx_HAL_Driver/Src/stm32n6xx_hal_spi.c ****   {
 404:STM32Cube_FW_N6/Drivers/STM32N6xx_HAL_Driver/Src/stm32n6xx_hal_spi.c ****     MODIFY_REG(hspi->Instance->CR1, SPI_CR1_MASRX, hspi->Init.MasterReceiverAutoSusp);
 1307              		.loc 1 404 5
 1308 08c8 7B68     		ldr	r3, [r7, #4]
 1309 08ca 1B68     		ldr	r3, [r3]
 1310 08cc 1B68     		ldr	r3, [r3]
 1311 08ce 23F48071 		bic	r1, r3, #256
 1312 08d2 7B68     		ldr	r3, [r7, #4]
 1313 08d4 1A6D     		ldr	r2, [r3, #80]
 1314 08d6 7B68     		ldr	r3, [r7, #4]
 1315 08d8 1B68     		ldr	r3, [r3]
 1316 08da 0A43     		orrs	r2, r2, r1
 1317 08dc 1A60     		str	r2, [r3]
 1318 08de 07E0     		b	.L50
 1319              	.L49:
 405:STM32Cube_FW_N6/Drivers/STM32N6xx_HAL_Driver/Src/stm32n6xx_hal_spi.c ****   }
 406:STM32Cube_FW_N6/Drivers/STM32N6xx_HAL_Driver/Src/stm32n6xx_hal_spi.c ****   else
 407:STM32Cube_FW_N6/Drivers/STM32N6xx_HAL_Driver/Src/stm32n6xx_hal_spi.c ****   {
 408:STM32Cube_FW_N6/Drivers/STM32N6xx_HAL_Driver/Src/stm32n6xx_hal_spi.c ****     CLEAR_BIT(hspi->Instance->CR1, SPI_CR1_MASRX);
 1320              		.loc 1 408 5
 1321 08e0 7B68     		ldr	r3, [r7, #4]
 1322 08e2 1B68     		ldr	r3, [r3]
 1323 08e4 1A68     		ldr	r2, [r3]
 1324 08e6 7B68     		ldr	r3, [r7, #4]
 1325 08e8 1B68     		ldr	r3, [r3]
 1326 08ea 22F48072 		bic	r2, r2, #256
 1327 08ee 1A60     		str	r2, [r3]
 1328              	.L50:
 409:STM32Cube_FW_N6/Drivers/STM32N6xx_HAL_Driver/Src/stm32n6xx_hal_spi.c ****   }
 410:STM32Cube_FW_N6/Drivers/STM32N6xx_HAL_Driver/Src/stm32n6xx_hal_spi.c **** 
 411:STM32Cube_FW_N6/Drivers/STM32N6xx_HAL_Driver/Src/stm32n6xx_hal_spi.c ****   /* SPIx CFG1 Configuration */
 412:STM32Cube_FW_N6/Drivers/STM32N6xx_HAL_Driver/Src/stm32n6xx_hal_spi.c ****   WRITE_REG(hspi->Instance->CFG1, (hspi->Init.BaudRatePrescaler | hspi->Init.CRCCalculation | crc_l
 1329              		.loc 1 412 3
 1330 08f0 7B68     		ldr	r3, [r7, #4]
 1331 08f2 DA69     		ldr	r2, [r3, #28]
 1332 08f4 7B68     		ldr	r3, [r7, #4]
 1333 08f6 9B6A     		ldr	r3, [r3, #40]
 1334 08f8 1A43     		orrs	r2, r2, r3
 1335 08fa 7B69     		ldr	r3, [r7, #20]
 1336 08fc 1A43     		orrs	r2, r2, r3
 1337 08fe 7B68     		ldr	r3, [r7, #4]
 1338 0900 DB6B     		ldr	r3, [r3, #60]
 1339 0902 42EA0301 		orr	r1, r2, r3
 1340 0906 7B68     		ldr	r3, [r7, #4]
 1341 0908 DA68     		ldr	r2, [r3, #12]
 1342 090a 7B68     		ldr	r3, [r7, #4]
 1343 090c 1B68     		ldr	r3, [r3]
 1344 090e 0A43     		orrs	r2, r2, r1
ARM GAS  /tmp/ccwTXtVb.s 			page 32


 1345 0910 9A60     		str	r2, [r3, #8]
 413:STM32Cube_FW_N6/Drivers/STM32N6xx_HAL_Driver/Src/stm32n6xx_hal_spi.c ****                                    hspi->Init.FifoThreshold     | hspi->Init.DataSize));
 414:STM32Cube_FW_N6/Drivers/STM32N6xx_HAL_Driver/Src/stm32n6xx_hal_spi.c **** 
 415:STM32Cube_FW_N6/Drivers/STM32N6xx_HAL_Driver/Src/stm32n6xx_hal_spi.c ****   /* SPIx CFG2 Configuration */
 416:STM32Cube_FW_N6/Drivers/STM32N6xx_HAL_Driver/Src/stm32n6xx_hal_spi.c ****   WRITE_REG(hspi->Instance->CFG2, (hspi->Init.NSSPMode                | hspi->Init.TIMode    |
 1346              		.loc 1 416 3
 1347 0912 7B68     		ldr	r3, [r7, #4]
 1348 0914 5A6B     		ldr	r2, [r3, #52]
 1349 0916 7B68     		ldr	r3, [r7, #4]
 1350 0918 5B6A     		ldr	r3, [r3, #36]
 1351 091a 1A43     		orrs	r2, r2, r3
 1352 091c 7B68     		ldr	r3, [r7, #4]
 1353 091e 9B6B     		ldr	r3, [r3, #56]
 1354 0920 1A43     		orrs	r2, r2, r3
 1355 0922 7B68     		ldr	r3, [r7, #4]
 1356 0924 9B69     		ldr	r3, [r3, #24]
 1357 0926 1A43     		orrs	r2, r2, r3
 1358 0928 7B68     		ldr	r3, [r7, #4]
 1359 092a 1B69     		ldr	r3, [r3, #16]
 1360 092c 1A43     		orrs	r2, r2, r3
 1361 092e 7B68     		ldr	r3, [r7, #4]
 1362 0930 5B69     		ldr	r3, [r3, #20]
 1363 0932 1A43     		orrs	r2, r2, r3
 1364 0934 7B68     		ldr	r3, [r7, #4]
 1365 0936 1B6A     		ldr	r3, [r3, #32]
 1366 0938 1A43     		orrs	r2, r2, r3
 1367 093a 7B68     		ldr	r3, [r7, #4]
 1368 093c 5B68     		ldr	r3, [r3, #4]
 1369 093e 1A43     		orrs	r2, r2, r3
 1370 0940 7B68     		ldr	r3, [r7, #4]
 1371 0942 DB6C     		ldr	r3, [r3, #76]
 1372 0944 1A43     		orrs	r2, r2, r3
 1373 0946 7B68     		ldr	r3, [r7, #4]
 1374 0948 9B68     		ldr	r3, [r3, #8]
 1375 094a 1A43     		orrs	r2, r2, r3
 1376 094c 7B68     		ldr	r3, [r7, #4]
 1377 094e 9B6C     		ldr	r3, [r3, #72]
 1378 0950 1A43     		orrs	r2, r2, r3
 1379 0952 7B68     		ldr	r3, [r7, #4]
 1380 0954 9B6D     		ldr	r3, [r3, #88]
 1381 0956 1A43     		orrs	r2, r2, r3
 1382 0958 7B68     		ldr	r3, [r7, #4]
 1383 095a DB6D     		ldr	r3, [r3, #92]
 1384 095c 42EA0301 		orr	r1, r2, r3
 1385 0960 7B68     		ldr	r3, [r7, #4]
 1386 0962 1A6E     		ldr	r2, [r3, #96]
 1387 0964 7B68     		ldr	r3, [r7, #4]
 1388 0966 1B68     		ldr	r3, [r3]
 1389 0968 0A43     		orrs	r2, r2, r1
 1390 096a DA60     		str	r2, [r3, #12]
 417:STM32Cube_FW_N6/Drivers/STM32N6xx_HAL_Driver/Src/stm32n6xx_hal_spi.c ****                                    hspi->Init.NSSPolarity             | hspi->Init.NSS       |
 418:STM32Cube_FW_N6/Drivers/STM32N6xx_HAL_Driver/Src/stm32n6xx_hal_spi.c ****                                    hspi->Init.CLKPolarity             | hspi->Init.CLKPhase  |
 419:STM32Cube_FW_N6/Drivers/STM32N6xx_HAL_Driver/Src/stm32n6xx_hal_spi.c ****                                    hspi->Init.FirstBit                | hspi->Init.Mode      |
 420:STM32Cube_FW_N6/Drivers/STM32N6xx_HAL_Driver/Src/stm32n6xx_hal_spi.c ****                                    hspi->Init.MasterInterDataIdleness | hspi->Init.Direction |
 421:STM32Cube_FW_N6/Drivers/STM32N6xx_HAL_Driver/Src/stm32n6xx_hal_spi.c ****                                    hspi->Init.MasterSSIdleness        | hspi->Init.IOSwap    |
 422:STM32Cube_FW_N6/Drivers/STM32N6xx_HAL_Driver/Src/stm32n6xx_hal_spi.c ****                                    hspi->Init.ReadyMasterManagement   | hspi->Init.ReadyPolarity));
 423:STM32Cube_FW_N6/Drivers/STM32N6xx_HAL_Driver/Src/stm32n6xx_hal_spi.c **** 
ARM GAS  /tmp/ccwTXtVb.s 			page 33


 424:STM32Cube_FW_N6/Drivers/STM32N6xx_HAL_Driver/Src/stm32n6xx_hal_spi.c **** #if (USE_SPI_CRC != 0UL)
 425:STM32Cube_FW_N6/Drivers/STM32N6xx_HAL_Driver/Src/stm32n6xx_hal_spi.c ****   /*---------------------------- SPIx CRCPOLY Configuration ------------------*/
 426:STM32Cube_FW_N6/Drivers/STM32N6xx_HAL_Driver/Src/stm32n6xx_hal_spi.c ****   /* Configure : CRC Polynomial */
 427:STM32Cube_FW_N6/Drivers/STM32N6xx_HAL_Driver/Src/stm32n6xx_hal_spi.c ****   if (hspi->Init.CRCCalculation == SPI_CRCCALCULATION_ENABLE)
 1391              		.loc 1 427 17
 1392 096c 7B68     		ldr	r3, [r7, #4]
 1393 096e 9B6A     		ldr	r3, [r3, #40]
 1394              		.loc 1 427 6
 1395 0970 B3F5800F 		cmp	r3, #4194304
 1396 0974 40F09280 		bne	.L51
 428:STM32Cube_FW_N6/Drivers/STM32N6xx_HAL_Driver/Src/stm32n6xx_hal_spi.c ****   {
 429:STM32Cube_FW_N6/Drivers/STM32N6xx_HAL_Driver/Src/stm32n6xx_hal_spi.c ****     /* Initialize TXCRC Pattern Initial Value */
 430:STM32Cube_FW_N6/Drivers/STM32N6xx_HAL_Driver/Src/stm32n6xx_hal_spi.c ****     if (hspi->Init.TxCRCInitializationPattern == SPI_CRC_INITIALIZATION_ALL_ONE_PATTERN)
 1397              		.loc 1 430 19
 1398 0978 7B68     		ldr	r3, [r7, #4]
 1399 097a 1B6C     		ldr	r3, [r3, #64]
 1400              		.loc 1 430 8
 1401 097c 012B     		cmp	r3, #1
 1402 097e 08D1     		bne	.L52
 431:STM32Cube_FW_N6/Drivers/STM32N6xx_HAL_Driver/Src/stm32n6xx_hal_spi.c ****     {
 432:STM32Cube_FW_N6/Drivers/STM32N6xx_HAL_Driver/Src/stm32n6xx_hal_spi.c ****       SET_BIT(hspi->Instance->CR1, SPI_CR1_TCRCINI);
 1403              		.loc 1 432 7
 1404 0980 7B68     		ldr	r3, [r7, #4]
 1405 0982 1B68     		ldr	r3, [r3]
 1406 0984 1A68     		ldr	r2, [r3]
 1407 0986 7B68     		ldr	r3, [r7, #4]
 1408 0988 1B68     		ldr	r3, [r3]
 1409 098a 42F40042 		orr	r2, r2, #32768
 1410 098e 1A60     		str	r2, [r3]
 1411 0990 07E0     		b	.L53
 1412              	.L52:
 433:STM32Cube_FW_N6/Drivers/STM32N6xx_HAL_Driver/Src/stm32n6xx_hal_spi.c ****     }
 434:STM32Cube_FW_N6/Drivers/STM32N6xx_HAL_Driver/Src/stm32n6xx_hal_spi.c ****     else
 435:STM32Cube_FW_N6/Drivers/STM32N6xx_HAL_Driver/Src/stm32n6xx_hal_spi.c ****     {
 436:STM32Cube_FW_N6/Drivers/STM32N6xx_HAL_Driver/Src/stm32n6xx_hal_spi.c ****       CLEAR_BIT(hspi->Instance->CR1, SPI_CR1_TCRCINI);
 1413              		.loc 1 436 7
 1414 0992 7B68     		ldr	r3, [r7, #4]
 1415 0994 1B68     		ldr	r3, [r3]
 1416 0996 1A68     		ldr	r2, [r3]
 1417 0998 7B68     		ldr	r3, [r7, #4]
 1418 099a 1B68     		ldr	r3, [r3]
 1419 099c 22F40042 		bic	r2, r2, #32768
 1420 09a0 1A60     		str	r2, [r3]
 1421              	.L53:
 437:STM32Cube_FW_N6/Drivers/STM32N6xx_HAL_Driver/Src/stm32n6xx_hal_spi.c ****     }
 438:STM32Cube_FW_N6/Drivers/STM32N6xx_HAL_Driver/Src/stm32n6xx_hal_spi.c **** 
 439:STM32Cube_FW_N6/Drivers/STM32N6xx_HAL_Driver/Src/stm32n6xx_hal_spi.c ****     /* Initialize RXCRC Pattern Initial Value */
 440:STM32Cube_FW_N6/Drivers/STM32N6xx_HAL_Driver/Src/stm32n6xx_hal_spi.c ****     if (hspi->Init.RxCRCInitializationPattern == SPI_CRC_INITIALIZATION_ALL_ONE_PATTERN)
 1422              		.loc 1 440 19
 1423 09a2 7B68     		ldr	r3, [r7, #4]
 1424 09a4 5B6C     		ldr	r3, [r3, #68]
 1425              		.loc 1 440 8
 1426 09a6 012B     		cmp	r3, #1
 1427 09a8 08D1     		bne	.L54
 441:STM32Cube_FW_N6/Drivers/STM32N6xx_HAL_Driver/Src/stm32n6xx_hal_spi.c ****     {
 442:STM32Cube_FW_N6/Drivers/STM32N6xx_HAL_Driver/Src/stm32n6xx_hal_spi.c ****       SET_BIT(hspi->Instance->CR1, SPI_CR1_RCRCINI);
 1428              		.loc 1 442 7
ARM GAS  /tmp/ccwTXtVb.s 			page 34


 1429 09aa 7B68     		ldr	r3, [r7, #4]
 1430 09ac 1B68     		ldr	r3, [r3]
 1431 09ae 1A68     		ldr	r2, [r3]
 1432 09b0 7B68     		ldr	r3, [r7, #4]
 1433 09b2 1B68     		ldr	r3, [r3]
 1434 09b4 42F48042 		orr	r2, r2, #16384
 1435 09b8 1A60     		str	r2, [r3]
 1436 09ba 07E0     		b	.L55
 1437              	.L54:
 443:STM32Cube_FW_N6/Drivers/STM32N6xx_HAL_Driver/Src/stm32n6xx_hal_spi.c ****     }
 444:STM32Cube_FW_N6/Drivers/STM32N6xx_HAL_Driver/Src/stm32n6xx_hal_spi.c ****     else
 445:STM32Cube_FW_N6/Drivers/STM32N6xx_HAL_Driver/Src/stm32n6xx_hal_spi.c ****     {
 446:STM32Cube_FW_N6/Drivers/STM32N6xx_HAL_Driver/Src/stm32n6xx_hal_spi.c ****       CLEAR_BIT(hspi->Instance->CR1, SPI_CR1_RCRCINI);
 1438              		.loc 1 446 7
 1439 09bc 7B68     		ldr	r3, [r7, #4]
 1440 09be 1B68     		ldr	r3, [r3]
 1441 09c0 1A68     		ldr	r2, [r3]
 1442 09c2 7B68     		ldr	r3, [r7, #4]
 1443 09c4 1B68     		ldr	r3, [r3]
 1444 09c6 22F48042 		bic	r2, r2, #16384
 1445 09ca 1A60     		str	r2, [r3]
 1446              	.L55:
 447:STM32Cube_FW_N6/Drivers/STM32N6xx_HAL_Driver/Src/stm32n6xx_hal_spi.c ****     }
 448:STM32Cube_FW_N6/Drivers/STM32N6xx_HAL_Driver/Src/stm32n6xx_hal_spi.c **** 
 449:STM32Cube_FW_N6/Drivers/STM32N6xx_HAL_Driver/Src/stm32n6xx_hal_spi.c ****     /* Enable 33/17 bits CRC computation */
 450:STM32Cube_FW_N6/Drivers/STM32N6xx_HAL_Driver/Src/stm32n6xx_hal_spi.c ****     if (((IS_SPI_LIMITED_INSTANCE(hspi->Instance)) && (crc_length == SPI_CRC_LENGTH_16BIT)) ||
 1447              		.loc 1 450 11
 1448 09cc 7B68     		ldr	r3, [r7, #4]
 1449 09ce 1B68     		ldr	r3, [r3]
 1450              		.loc 1 450 8
 1451 09d0 4B4A     		ldr	r2, .L69
 1452 09d2 9342     		cmp	r3, r2
 1453 09d4 0ED0     		beq	.L56
 1454              		.loc 1 450 11 discriminator 2
 1455 09d6 7B68     		ldr	r3, [r7, #4]
 1456 09d8 1B68     		ldr	r3, [r3]
 1457 09da 4A4A     		ldr	r2, .L69+4
 1458 09dc 9342     		cmp	r3, r2
 1459 09de 09D0     		beq	.L56
 1460              		.loc 1 450 11 is_stmt 0 discriminator 4
 1461 09e0 7B68     		ldr	r3, [r7, #4]
 1462 09e2 1B68     		ldr	r3, [r3]
 1463 09e4 484A     		ldr	r2, .L69+8
 1464 09e6 9342     		cmp	r3, r2
 1465 09e8 04D0     		beq	.L56
 1466              		.loc 1 450 11 discriminator 6
 1467 09ea 7B68     		ldr	r3, [r7, #4]
 1468 09ec 1B68     		ldr	r3, [r3]
 1469 09ee 474A     		ldr	r2, .L69+12
 1470 09f0 9342     		cmp	r3, r2
 1471 09f2 03D1     		bne	.L57
 1472              	.L56:
 1473              		.loc 1 450 52 is_stmt 1 discriminator 7
 1474 09f4 7B69     		ldr	r3, [r7, #20]
 1475 09f6 B3F5702F 		cmp	r3, #983040
 1476 09fa 2BD0     		beq	.L58
 1477              	.L57:
ARM GAS  /tmp/ccwTXtVb.s 			page 35


 451:STM32Cube_FW_N6/Drivers/STM32N6xx_HAL_Driver/Src/stm32n6xx_hal_spi.c ****         ((IS_SPI_FULL_INSTANCE(hspi->Instance)) && (crc_length == SPI_CRC_LENGTH_32BIT)))
 1478              		.loc 1 451 11
 1479 09fc 7B68     		ldr	r3, [r7, #4]
 1480 09fe 1B68     		ldr	r3, [r3]
 450:STM32Cube_FW_N6/Drivers/STM32N6xx_HAL_Driver/Src/stm32n6xx_hal_spi.c ****         ((IS_SPI_FULL_INSTANCE(hspi->Instance)) && (crc_length == SPI_CRC_LENGTH_32BIT)))
 1481              		.loc 1 450 93 discriminator 9
 1482 0a00 434A     		ldr	r2, .L69+16
 1483 0a02 9342     		cmp	r3, r2
 1484 0a04 22D0     		beq	.L59
 1485              		.loc 1 451 11
 1486 0a06 7B68     		ldr	r3, [r7, #4]
 1487 0a08 1B68     		ldr	r3, [r3]
 1488 0a0a 424A     		ldr	r2, .L69+20
 1489 0a0c 9342     		cmp	r3, r2
 1490 0a0e 1DD0     		beq	.L59
 1491              		.loc 1 451 11 is_stmt 0 discriminator 2
 1492 0a10 7B68     		ldr	r3, [r7, #4]
 1493 0a12 1B68     		ldr	r3, [r3]
 1494 0a14 404A     		ldr	r2, .L69+24
 1495 0a16 9342     		cmp	r3, r2
 1496 0a18 18D0     		beq	.L59
 1497              		.loc 1 451 11 discriminator 4
 1498 0a1a 7B68     		ldr	r3, [r7, #4]
 1499 0a1c 1B68     		ldr	r3, [r3]
 1500 0a1e 3F4A     		ldr	r2, .L69+28
 1501 0a20 9342     		cmp	r3, r2
 1502 0a22 13D0     		beq	.L59
 1503              		.loc 1 451 11 discriminator 6
 1504 0a24 7B68     		ldr	r3, [r7, #4]
 1505 0a26 1B68     		ldr	r3, [r3]
 1506 0a28 3D4A     		ldr	r2, .L69+32
 1507 0a2a 9342     		cmp	r3, r2
 1508 0a2c 0ED0     		beq	.L59
 1509              		.loc 1 451 11 discriminator 8
 1510 0a2e 7B68     		ldr	r3, [r7, #4]
 1511 0a30 1B68     		ldr	r3, [r3]
 1512 0a32 3C4A     		ldr	r2, .L69+36
 1513 0a34 9342     		cmp	r3, r2
 1514 0a36 09D0     		beq	.L59
 1515              		.loc 1 451 11 discriminator 10
 1516 0a38 7B68     		ldr	r3, [r7, #4]
 1517 0a3a 1B68     		ldr	r3, [r3]
 1518 0a3c 3A4A     		ldr	r2, .L69+40
 1519 0a3e 9342     		cmp	r3, r2
 1520 0a40 04D0     		beq	.L59
 1521              		.loc 1 451 11 discriminator 12
 1522 0a42 7B68     		ldr	r3, [r7, #4]
 1523 0a44 1B68     		ldr	r3, [r3]
 1524 0a46 394A     		ldr	r2, .L69+44
 1525 0a48 9342     		cmp	r3, r2
 1526 0a4a 11D1     		bne	.L60
 1527              	.L59:
 1528              		.loc 1 451 49 is_stmt 1 discriminator 13
 1529 0a4c 7B69     		ldr	r3, [r7, #20]
 1530 0a4e B3F5F81F 		cmp	r3, #2031616
 1531 0a52 0DD1     		bne	.L60
 1532              	.L58:
ARM GAS  /tmp/ccwTXtVb.s 			page 36


 452:STM32Cube_FW_N6/Drivers/STM32N6xx_HAL_Driver/Src/stm32n6xx_hal_spi.c ****     {
 453:STM32Cube_FW_N6/Drivers/STM32N6xx_HAL_Driver/Src/stm32n6xx_hal_spi.c ****       /* Set SPI_CR1_CRC33_17 bit */
 454:STM32Cube_FW_N6/Drivers/STM32N6xx_HAL_Driver/Src/stm32n6xx_hal_spi.c ****       SET_BIT(hspi->Instance->CR1, SPI_CR1_CRC33_17);
 1533              		.loc 1 454 7
 1534 0a54 7B68     		ldr	r3, [r7, #4]
 1535 0a56 1B68     		ldr	r3, [r3]
 1536 0a58 1A68     		ldr	r2, [r3]
 1537 0a5a 7B68     		ldr	r3, [r7, #4]
 1538 0a5c 1B68     		ldr	r3, [r3]
 1539 0a5e 42F40052 		orr	r2, r2, #8192
 1540 0a62 1A60     		str	r2, [r3]
 455:STM32Cube_FW_N6/Drivers/STM32N6xx_HAL_Driver/Src/stm32n6xx_hal_spi.c ****       /* Write CRC polynomial in SPI Register */
 456:STM32Cube_FW_N6/Drivers/STM32N6xx_HAL_Driver/Src/stm32n6xx_hal_spi.c ****       WRITE_REG(hspi->Instance->CRCPOLY, hspi->Init.CRCPolynomial);
 1541              		.loc 1 456 7
 1542 0a64 7B68     		ldr	r3, [r7, #4]
 1543 0a66 1B68     		ldr	r3, [r3]
 1544 0a68 7A68     		ldr	r2, [r7, #4]
 1545 0a6a D26A     		ldr	r2, [r2, #44]
 1546 0a6c 1A64     		str	r2, [r3, #64]
 1547 0a6e 15E0     		b	.L51
 1548              	.L60:
 457:STM32Cube_FW_N6/Drivers/STM32N6xx_HAL_Driver/Src/stm32n6xx_hal_spi.c ****     }
 458:STM32Cube_FW_N6/Drivers/STM32N6xx_HAL_Driver/Src/stm32n6xx_hal_spi.c ****     else
 459:STM32Cube_FW_N6/Drivers/STM32N6xx_HAL_Driver/Src/stm32n6xx_hal_spi.c ****     {
 460:STM32Cube_FW_N6/Drivers/STM32N6xx_HAL_Driver/Src/stm32n6xx_hal_spi.c ****       /* Clear SPI_CR1_CRC33_17 bit */
 461:STM32Cube_FW_N6/Drivers/STM32N6xx_HAL_Driver/Src/stm32n6xx_hal_spi.c ****       CLEAR_BIT(hspi->Instance->CR1, SPI_CR1_CRC33_17);
 1549              		.loc 1 461 7
 1550 0a70 7B68     		ldr	r3, [r7, #4]
 1551 0a72 1B68     		ldr	r3, [r3]
 1552 0a74 1A68     		ldr	r2, [r3]
 1553 0a76 7B68     		ldr	r3, [r7, #4]
 1554 0a78 1B68     		ldr	r3, [r3]
 1555 0a7a 22F40052 		bic	r2, r2, #8192
 1556 0a7e 1A60     		str	r2, [r3]
 462:STM32Cube_FW_N6/Drivers/STM32N6xx_HAL_Driver/Src/stm32n6xx_hal_spi.c **** 
 463:STM32Cube_FW_N6/Drivers/STM32N6xx_HAL_Driver/Src/stm32n6xx_hal_spi.c ****       /* Write CRC polynomial and set MSB bit at 1 in SPI Register */
 464:STM32Cube_FW_N6/Drivers/STM32N6xx_HAL_Driver/Src/stm32n6xx_hal_spi.c ****       /* Set MSB is mandatory for a correct CRC computation        */
 465:STM32Cube_FW_N6/Drivers/STM32N6xx_HAL_Driver/Src/stm32n6xx_hal_spi.c ****       crc_poly_msb_mask = (0x1UL << ((crc_length >> SPI_CFG1_CRCSIZE_Pos) + 0x1U));
 1557              		.loc 1 465 50
 1558 0a80 7B69     		ldr	r3, [r7, #20]
 1559 0a82 1B0C     		lsrs	r3, r3, #16
 1560              		.loc 1 465 75
 1561 0a84 0133     		adds	r3, r3, #1
 1562              		.loc 1 465 25
 1563 0a86 0122     		movs	r2, #1
 1564 0a88 02FA03F3 		lsl	r3, r2, r3
 1565 0a8c FB60     		str	r3, [r7, #12]
 466:STM32Cube_FW_N6/Drivers/STM32N6xx_HAL_Driver/Src/stm32n6xx_hal_spi.c ****       WRITE_REG(hspi->Instance->CRCPOLY, (hspi->Init.CRCPolynomial) | crc_poly_msb_mask);
 1566              		.loc 1 466 7
 1567 0a8e 7B68     		ldr	r3, [r7, #4]
 1568 0a90 D96A     		ldr	r1, [r3, #44]
 1569 0a92 7B68     		ldr	r3, [r7, #4]
 1570 0a94 1B68     		ldr	r3, [r3]
 1571 0a96 FA68     		ldr	r2, [r7, #12]
 1572 0a98 0A43     		orrs	r2, r2, r1
 1573 0a9a 1A64     		str	r2, [r3, #64]
 1574              	.L51:
ARM GAS  /tmp/ccwTXtVb.s 			page 37


 467:STM32Cube_FW_N6/Drivers/STM32N6xx_HAL_Driver/Src/stm32n6xx_hal_spi.c ****     }
 468:STM32Cube_FW_N6/Drivers/STM32N6xx_HAL_Driver/Src/stm32n6xx_hal_spi.c ****   }
 469:STM32Cube_FW_N6/Drivers/STM32N6xx_HAL_Driver/Src/stm32n6xx_hal_spi.c **** #endif /* USE_SPI_CRC */
 470:STM32Cube_FW_N6/Drivers/STM32N6xx_HAL_Driver/Src/stm32n6xx_hal_spi.c **** 
 471:STM32Cube_FW_N6/Drivers/STM32N6xx_HAL_Driver/Src/stm32n6xx_hal_spi.c ****   /* Insure that Underrun configuration is managed only by Salve */
 472:STM32Cube_FW_N6/Drivers/STM32N6xx_HAL_Driver/Src/stm32n6xx_hal_spi.c ****   if (hspi->Init.Mode == SPI_MODE_SLAVE)
 1575              		.loc 1 472 17
 1576 0a9c 7B68     		ldr	r3, [r7, #4]
 1577 0a9e 5B68     		ldr	r3, [r3, #4]
 1578              		.loc 1 472 6
 1579 0aa0 002B     		cmp	r3, #0
 1580 0aa2 07D1     		bne	.L61
 473:STM32Cube_FW_N6/Drivers/STM32N6xx_HAL_Driver/Src/stm32n6xx_hal_spi.c ****   {
 474:STM32Cube_FW_N6/Drivers/STM32N6xx_HAL_Driver/Src/stm32n6xx_hal_spi.c **** #if (USE_SPI_CRC != 0UL)
 475:STM32Cube_FW_N6/Drivers/STM32N6xx_HAL_Driver/Src/stm32n6xx_hal_spi.c ****     MODIFY_REG(hspi->Instance->CFG1, SPI_CFG1_UDRCFG, SPI_CFG1_UDRCFG);
 1581              		.loc 1 475 5
 1582 0aa4 7B68     		ldr	r3, [r7, #4]
 1583 0aa6 1B68     		ldr	r3, [r3]
 1584 0aa8 9A68     		ldr	r2, [r3, #8]
 1585 0aaa 7B68     		ldr	r3, [r7, #4]
 1586 0aac 1B68     		ldr	r3, [r3]
 1587 0aae 42F40072 		orr	r2, r2, #512
 1588 0ab2 9A60     		str	r2, [r3, #8]
 1589              	.L61:
 476:STM32Cube_FW_N6/Drivers/STM32N6xx_HAL_Driver/Src/stm32n6xx_hal_spi.c **** #endif /* USE_SPI_CRC */
 477:STM32Cube_FW_N6/Drivers/STM32N6xx_HAL_Driver/Src/stm32n6xx_hal_spi.c ****   }
 478:STM32Cube_FW_N6/Drivers/STM32N6xx_HAL_Driver/Src/stm32n6xx_hal_spi.c **** 
 479:STM32Cube_FW_N6/Drivers/STM32N6xx_HAL_Driver/Src/stm32n6xx_hal_spi.c **** #if defined(SPI_I2SCFGR_I2SMOD)
 480:STM32Cube_FW_N6/Drivers/STM32N6xx_HAL_Driver/Src/stm32n6xx_hal_spi.c ****   /* Activate the SPI mode (Make sure that I2SMOD bit in I2SCFGR register is reset) */
 481:STM32Cube_FW_N6/Drivers/STM32N6xx_HAL_Driver/Src/stm32n6xx_hal_spi.c ****   CLEAR_BIT(hspi->Instance->I2SCFGR, SPI_I2SCFGR_I2SMOD);
 1590              		.loc 1 481 3
 1591 0ab4 7B68     		ldr	r3, [r7, #4]
 1592 0ab6 1B68     		ldr	r3, [r3]
 1593 0ab8 1A6D     		ldr	r2, [r3, #80]
 1594 0aba 7B68     		ldr	r3, [r7, #4]
 1595 0abc 1B68     		ldr	r3, [r3]
 1596 0abe 22F00102 		bic	r2, r2, #1
 1597 0ac2 1A65     		str	r2, [r3, #80]
 482:STM32Cube_FW_N6/Drivers/STM32N6xx_HAL_Driver/Src/stm32n6xx_hal_spi.c **** #endif /* SPI_I2SCFGR_I2SMOD */
 483:STM32Cube_FW_N6/Drivers/STM32N6xx_HAL_Driver/Src/stm32n6xx_hal_spi.c **** 
 484:STM32Cube_FW_N6/Drivers/STM32N6xx_HAL_Driver/Src/stm32n6xx_hal_spi.c ****   /* Insure that AFCNTR is managed only by Master */
 485:STM32Cube_FW_N6/Drivers/STM32N6xx_HAL_Driver/Src/stm32n6xx_hal_spi.c ****   if ((hspi->Init.Mode & SPI_MODE_MASTER) == SPI_MODE_MASTER)
 1598              		.loc 1 485 18
 1599 0ac4 7B68     		ldr	r3, [r7, #4]
 1600 0ac6 5B68     		ldr	r3, [r3, #4]
 1601              		.loc 1 485 24
 1602 0ac8 03F48003 		and	r3, r3, #4194304
 1603              		.loc 1 485 6
 1604 0acc 002B     		cmp	r3, #0
 1605 0ace 0AD0     		beq	.L62
 486:STM32Cube_FW_N6/Drivers/STM32N6xx_HAL_Driver/Src/stm32n6xx_hal_spi.c ****   {
 487:STM32Cube_FW_N6/Drivers/STM32N6xx_HAL_Driver/Src/stm32n6xx_hal_spi.c ****     /* Alternate function GPIOs control */
 488:STM32Cube_FW_N6/Drivers/STM32N6xx_HAL_Driver/Src/stm32n6xx_hal_spi.c ****     MODIFY_REG(hspi->Instance->CFG2, SPI_CFG2_AFCNTR, (hspi->Init.MasterKeepIOState));
 1606              		.loc 1 488 5
 1607 0ad0 7B68     		ldr	r3, [r7, #4]
 1608 0ad2 1B68     		ldr	r3, [r3]
 1609 0ad4 DB68     		ldr	r3, [r3, #12]
ARM GAS  /tmp/ccwTXtVb.s 			page 38


 1610 0ad6 23F00041 		bic	r1, r3, #-2147483648
 1611 0ada 7B68     		ldr	r3, [r7, #4]
 1612 0adc 5A6D     		ldr	r2, [r3, #84]
 1613 0ade 7B68     		ldr	r3, [r7, #4]
 1614 0ae0 1B68     		ldr	r3, [r3]
 1615 0ae2 0A43     		orrs	r2, r2, r1
 1616 0ae4 DA60     		str	r2, [r3, #12]
 1617              	.L62:
 489:STM32Cube_FW_N6/Drivers/STM32N6xx_HAL_Driver/Src/stm32n6xx_hal_spi.c ****   }
 490:STM32Cube_FW_N6/Drivers/STM32N6xx_HAL_Driver/Src/stm32n6xx_hal_spi.c **** 
 491:STM32Cube_FW_N6/Drivers/STM32N6xx_HAL_Driver/Src/stm32n6xx_hal_spi.c ****   hspi->ErrorCode = HAL_SPI_ERROR_NONE;
 1618              		.loc 1 491 19
 1619 0ae6 7B68     		ldr	r3, [r7, #4]
 1620 0ae8 0022     		movs	r2, #0
 1621 0aea C3F88C20 		str	r2, [r3, #140]
 492:STM32Cube_FW_N6/Drivers/STM32N6xx_HAL_Driver/Src/stm32n6xx_hal_spi.c ****   hspi->State     = HAL_SPI_STATE_READY;
 1622              		.loc 1 492 19
 1623 0aee 7B68     		ldr	r3, [r7, #4]
 1624 0af0 0122     		movs	r2, #1
 1625 0af2 83F88920 		strb	r2, [r3, #137]
 493:STM32Cube_FW_N6/Drivers/STM32N6xx_HAL_Driver/Src/stm32n6xx_hal_spi.c **** 
 494:STM32Cube_FW_N6/Drivers/STM32N6xx_HAL_Driver/Src/stm32n6xx_hal_spi.c ****   return HAL_OK;
 1626              		.loc 1 494 10
 1627 0af6 0023     		movs	r3, #0
 1628              	.L3:
 495:STM32Cube_FW_N6/Drivers/STM32N6xx_HAL_Driver/Src/stm32n6xx_hal_spi.c **** }
 1629              		.loc 1 495 1
 1630 0af8 1846     		mov	r0, r3
 1631 0afa 1837     		adds	r7, r7, #24
 1632              		.cfi_def_cfa_offset 8
 1633 0afc BD46     		mov	sp, r7
 1634              		.cfi_def_cfa_register 13
 1635              		@ sp needed
 1636 0afe 80BD     		pop	{r7, pc}
 1637              	.L70:
 1638              		.align	2
 1639              	.L69:
 1640 0b00 00340052 		.word	1375745024
 1641 0b04 00340042 		.word	1107309568
 1642 0b08 00500052 		.word	1375752192
 1643 0b0c 00500042 		.word	1107316736
 1644 0b10 00300052 		.word	1375744000
 1645 0b14 00300042 		.word	1107308544
 1646 0b18 00380050 		.word	1342191616
 1647 0b1c 00380040 		.word	1073756160
 1648 0b20 003C0050 		.word	1342192640
 1649 0b24 003C0040 		.word	1073757184
 1650 0b28 00140056 		.word	1442845696
 1651 0b2c 00140046 		.word	1174410240
 1652              		.cfi_endproc
 1653              	.LFE835:
 1655              		.section	.text.HAL_SPI_DeInit,"ax",%progbits
 1656              		.align	1
 1657              		.global	HAL_SPI_DeInit
 1658              		.syntax unified
 1659              		.thumb
 1660              		.thumb_func
ARM GAS  /tmp/ccwTXtVb.s 			page 39


 1662              	HAL_SPI_DeInit:
 1663              	.LFB836:
 496:STM32Cube_FW_N6/Drivers/STM32N6xx_HAL_Driver/Src/stm32n6xx_hal_spi.c **** 
 497:STM32Cube_FW_N6/Drivers/STM32N6xx_HAL_Driver/Src/stm32n6xx_hal_spi.c **** /**
 498:STM32Cube_FW_N6/Drivers/STM32N6xx_HAL_Driver/Src/stm32n6xx_hal_spi.c ****   * @brief  De-Initialize the SPI peripheral.
 499:STM32Cube_FW_N6/Drivers/STM32N6xx_HAL_Driver/Src/stm32n6xx_hal_spi.c ****   * @param  hspi: pointer to a SPI_HandleTypeDef structure that contains
 500:STM32Cube_FW_N6/Drivers/STM32N6xx_HAL_Driver/Src/stm32n6xx_hal_spi.c ****   *               the configuration information for SPI module.
 501:STM32Cube_FW_N6/Drivers/STM32N6xx_HAL_Driver/Src/stm32n6xx_hal_spi.c ****   * @retval HAL status
 502:STM32Cube_FW_N6/Drivers/STM32N6xx_HAL_Driver/Src/stm32n6xx_hal_spi.c ****   */
 503:STM32Cube_FW_N6/Drivers/STM32N6xx_HAL_Driver/Src/stm32n6xx_hal_spi.c **** HAL_StatusTypeDef HAL_SPI_DeInit(SPI_HandleTypeDef *hspi)
 504:STM32Cube_FW_N6/Drivers/STM32N6xx_HAL_Driver/Src/stm32n6xx_hal_spi.c **** {
 1664              		.loc 1 504 1
 1665              		.cfi_startproc
 1666              		@ args = 0, pretend = 0, frame = 8
 1667              		@ frame_needed = 1, uses_anonymous_args = 0
 1668 0000 80B5     		push	{r7, lr}
 1669              		.cfi_def_cfa_offset 8
 1670              		.cfi_offset 7, -8
 1671              		.cfi_offset 14, -4
 1672 0002 82B0     		sub	sp, sp, #8
 1673              		.cfi_def_cfa_offset 16
 1674 0004 00AF     		add	r7, sp, #0
 1675              		.cfi_def_cfa_register 7
 1676 0006 7860     		str	r0, [r7, #4]
 505:STM32Cube_FW_N6/Drivers/STM32N6xx_HAL_Driver/Src/stm32n6xx_hal_spi.c ****   /* Check the SPI handle allocation */
 506:STM32Cube_FW_N6/Drivers/STM32N6xx_HAL_Driver/Src/stm32n6xx_hal_spi.c ****   if (hspi == NULL)
 1677              		.loc 1 506 6
 1678 0008 7B68     		ldr	r3, [r7, #4]
 1679 000a 002B     		cmp	r3, #0
 1680 000c 01D1     		bne	.L72
 507:STM32Cube_FW_N6/Drivers/STM32N6xx_HAL_Driver/Src/stm32n6xx_hal_spi.c ****   {
 508:STM32Cube_FW_N6/Drivers/STM32N6xx_HAL_Driver/Src/stm32n6xx_hal_spi.c ****     return HAL_ERROR;
 1681              		.loc 1 508 12
 1682 000e 0123     		movs	r3, #1
 1683 0010 5CE0     		b	.L73
 1684              	.L72:
 509:STM32Cube_FW_N6/Drivers/STM32N6xx_HAL_Driver/Src/stm32n6xx_hal_spi.c ****   }
 510:STM32Cube_FW_N6/Drivers/STM32N6xx_HAL_Driver/Src/stm32n6xx_hal_spi.c **** 
 511:STM32Cube_FW_N6/Drivers/STM32N6xx_HAL_Driver/Src/stm32n6xx_hal_spi.c ****   /* Check SPI Instance parameter */
 512:STM32Cube_FW_N6/Drivers/STM32N6xx_HAL_Driver/Src/stm32n6xx_hal_spi.c ****   assert_param(IS_SPI_ALL_INSTANCE(hspi->Instance));
 1685              		.loc 1 512 3
 1686 0012 7B68     		ldr	r3, [r7, #4]
 1687 0014 1B68     		ldr	r3, [r3]
 1688 0016 2F4A     		ldr	r2, .L75
 1689 0018 9342     		cmp	r3, r2
 1690 001a 3BD0     		beq	.L74
 1691              		.loc 1 512 3 is_stmt 0 discriminator 1
 1692 001c 7B68     		ldr	r3, [r7, #4]
 1693 001e 1B68     		ldr	r3, [r3]
 1694 0020 2D4A     		ldr	r2, .L75+4
 1695 0022 9342     		cmp	r3, r2
 1696 0024 36D0     		beq	.L74
 1697              		.loc 1 512 3 discriminator 2
 1698 0026 7B68     		ldr	r3, [r7, #4]
 1699 0028 1B68     		ldr	r3, [r3]
 1700 002a 2C4A     		ldr	r2, .L75+8
 1701 002c 9342     		cmp	r3, r2
ARM GAS  /tmp/ccwTXtVb.s 			page 40


 1702 002e 31D0     		beq	.L74
 1703              		.loc 1 512 3 discriminator 3
 1704 0030 7B68     		ldr	r3, [r7, #4]
 1705 0032 1B68     		ldr	r3, [r3]
 1706 0034 2A4A     		ldr	r2, .L75+12
 1707 0036 9342     		cmp	r3, r2
 1708 0038 2CD0     		beq	.L74
 1709              		.loc 1 512 3 discriminator 4
 1710 003a 7B68     		ldr	r3, [r7, #4]
 1711 003c 1B68     		ldr	r3, [r3]
 1712 003e 294A     		ldr	r2, .L75+16
 1713 0040 9342     		cmp	r3, r2
 1714 0042 27D0     		beq	.L74
 1715              		.loc 1 512 3 discriminator 5
 1716 0044 7B68     		ldr	r3, [r7, #4]
 1717 0046 1B68     		ldr	r3, [r3]
 1718 0048 274A     		ldr	r2, .L75+20
 1719 004a 9342     		cmp	r3, r2
 1720 004c 22D0     		beq	.L74
 1721              		.loc 1 512 3 discriminator 6
 1722 004e 7B68     		ldr	r3, [r7, #4]
 1723 0050 1B68     		ldr	r3, [r3]
 1724 0052 264A     		ldr	r2, .L75+24
 1725 0054 9342     		cmp	r3, r2
 1726 0056 1DD0     		beq	.L74
 1727              		.loc 1 512 3 discriminator 7
 1728 0058 7B68     		ldr	r3, [r7, #4]
 1729 005a 1B68     		ldr	r3, [r3]
 1730 005c 244A     		ldr	r2, .L75+28
 1731 005e 9342     		cmp	r3, r2
 1732 0060 18D0     		beq	.L74
 1733              		.loc 1 512 3 discriminator 8
 1734 0062 7B68     		ldr	r3, [r7, #4]
 1735 0064 1B68     		ldr	r3, [r3]
 1736 0066 234A     		ldr	r2, .L75+32
 1737 0068 9342     		cmp	r3, r2
 1738 006a 13D0     		beq	.L74
 1739              		.loc 1 512 3 discriminator 9
 1740 006c 7B68     		ldr	r3, [r7, #4]
 1741 006e 1B68     		ldr	r3, [r3]
 1742 0070 214A     		ldr	r2, .L75+36
 1743 0072 9342     		cmp	r3, r2
 1744 0074 0ED0     		beq	.L74
 1745              		.loc 1 512 3 discriminator 10
 1746 0076 7B68     		ldr	r3, [r7, #4]
 1747 0078 1B68     		ldr	r3, [r3]
 1748 007a 204A     		ldr	r2, .L75+40
 1749 007c 9342     		cmp	r3, r2
 1750 007e 09D0     		beq	.L74
 1751              		.loc 1 512 3 discriminator 11
 1752 0080 7B68     		ldr	r3, [r7, #4]
 1753 0082 1B68     		ldr	r3, [r3]
 1754 0084 1E4A     		ldr	r2, .L75+44
 1755 0086 9342     		cmp	r3, r2
 1756 0088 04D0     		beq	.L74
 1757              		.loc 1 512 3 discriminator 12
 1758 008a 4FF40071 		mov	r1, #512
ARM GAS  /tmp/ccwTXtVb.s 			page 41


 1759 008e 1D48     		ldr	r0, .L75+48
 1760 0090 FFF7FEFF 		bl	assert_failed
 1761              	.L74:
 513:STM32Cube_FW_N6/Drivers/STM32N6xx_HAL_Driver/Src/stm32n6xx_hal_spi.c **** 
 514:STM32Cube_FW_N6/Drivers/STM32N6xx_HAL_Driver/Src/stm32n6xx_hal_spi.c ****   hspi->State = HAL_SPI_STATE_BUSY;
 1762              		.loc 1 514 15 is_stmt 1
 1763 0094 7B68     		ldr	r3, [r7, #4]
 1764 0096 0222     		movs	r2, #2
 1765 0098 83F88920 		strb	r2, [r3, #137]
 515:STM32Cube_FW_N6/Drivers/STM32N6xx_HAL_Driver/Src/stm32n6xx_hal_spi.c **** 
 516:STM32Cube_FW_N6/Drivers/STM32N6xx_HAL_Driver/Src/stm32n6xx_hal_spi.c ****   /* Disable the SPI Peripheral Clock */
 517:STM32Cube_FW_N6/Drivers/STM32N6xx_HAL_Driver/Src/stm32n6xx_hal_spi.c ****   __HAL_SPI_DISABLE(hspi);
 1766              		.loc 1 517 3
 1767 009c 7B68     		ldr	r3, [r7, #4]
 1768 009e 1B68     		ldr	r3, [r3]
 1769 00a0 1A68     		ldr	r2, [r3]
 1770 00a2 7B68     		ldr	r3, [r7, #4]
 1771 00a4 1B68     		ldr	r3, [r3]
 1772 00a6 22F00102 		bic	r2, r2, #1
 1773 00aa 1A60     		str	r2, [r3]
 518:STM32Cube_FW_N6/Drivers/STM32N6xx_HAL_Driver/Src/stm32n6xx_hal_spi.c **** 
 519:STM32Cube_FW_N6/Drivers/STM32N6xx_HAL_Driver/Src/stm32n6xx_hal_spi.c **** #if (USE_HAL_SPI_REGISTER_CALLBACKS == 1UL)
 520:STM32Cube_FW_N6/Drivers/STM32N6xx_HAL_Driver/Src/stm32n6xx_hal_spi.c ****   if (hspi->MspDeInitCallback == NULL)
 521:STM32Cube_FW_N6/Drivers/STM32N6xx_HAL_Driver/Src/stm32n6xx_hal_spi.c ****   {
 522:STM32Cube_FW_N6/Drivers/STM32N6xx_HAL_Driver/Src/stm32n6xx_hal_spi.c ****     hspi->MspDeInitCallback = HAL_SPI_MspDeInit; /* Legacy weak MspDeInit  */
 523:STM32Cube_FW_N6/Drivers/STM32N6xx_HAL_Driver/Src/stm32n6xx_hal_spi.c ****   }
 524:STM32Cube_FW_N6/Drivers/STM32N6xx_HAL_Driver/Src/stm32n6xx_hal_spi.c **** 
 525:STM32Cube_FW_N6/Drivers/STM32N6xx_HAL_Driver/Src/stm32n6xx_hal_spi.c ****   /* DeInit the low level hardware: GPIO, CLOCK, NVIC... */
 526:STM32Cube_FW_N6/Drivers/STM32N6xx_HAL_Driver/Src/stm32n6xx_hal_spi.c ****   hspi->MspDeInitCallback(hspi);
 527:STM32Cube_FW_N6/Drivers/STM32N6xx_HAL_Driver/Src/stm32n6xx_hal_spi.c **** #else
 528:STM32Cube_FW_N6/Drivers/STM32N6xx_HAL_Driver/Src/stm32n6xx_hal_spi.c ****   /* DeInit the low level hardware: GPIO, CLOCK, NVIC... */
 529:STM32Cube_FW_N6/Drivers/STM32N6xx_HAL_Driver/Src/stm32n6xx_hal_spi.c ****   HAL_SPI_MspDeInit(hspi);
 1774              		.loc 1 529 3
 1775 00ac 7868     		ldr	r0, [r7, #4]
 1776 00ae FFF7FEFF 		bl	HAL_SPI_MspDeInit
 530:STM32Cube_FW_N6/Drivers/STM32N6xx_HAL_Driver/Src/stm32n6xx_hal_spi.c **** #endif /* USE_HAL_SPI_REGISTER_CALLBACKS */
 531:STM32Cube_FW_N6/Drivers/STM32N6xx_HAL_Driver/Src/stm32n6xx_hal_spi.c **** 
 532:STM32Cube_FW_N6/Drivers/STM32N6xx_HAL_Driver/Src/stm32n6xx_hal_spi.c ****   hspi->ErrorCode = HAL_SPI_ERROR_NONE;
 1777              		.loc 1 532 19
 1778 00b2 7B68     		ldr	r3, [r7, #4]
 1779 00b4 0022     		movs	r2, #0
 1780 00b6 C3F88C20 		str	r2, [r3, #140]
 533:STM32Cube_FW_N6/Drivers/STM32N6xx_HAL_Driver/Src/stm32n6xx_hal_spi.c ****   hspi->State = HAL_SPI_STATE_RESET;
 1781              		.loc 1 533 15
 1782 00ba 7B68     		ldr	r3, [r7, #4]
 1783 00bc 0022     		movs	r2, #0
 1784 00be 83F88920 		strb	r2, [r3, #137]
 534:STM32Cube_FW_N6/Drivers/STM32N6xx_HAL_Driver/Src/stm32n6xx_hal_spi.c **** 
 535:STM32Cube_FW_N6/Drivers/STM32N6xx_HAL_Driver/Src/stm32n6xx_hal_spi.c ****   /* Release Lock */
 536:STM32Cube_FW_N6/Drivers/STM32N6xx_HAL_Driver/Src/stm32n6xx_hal_spi.c ****   __HAL_UNLOCK(hspi);
 1785              		.loc 1 536 3
 1786 00c2 7B68     		ldr	r3, [r7, #4]
 1787 00c4 0022     		movs	r2, #0
 1788 00c6 83F88820 		strb	r2, [r3, #136]
 537:STM32Cube_FW_N6/Drivers/STM32N6xx_HAL_Driver/Src/stm32n6xx_hal_spi.c **** 
 538:STM32Cube_FW_N6/Drivers/STM32N6xx_HAL_Driver/Src/stm32n6xx_hal_spi.c ****   return HAL_OK;
 1789              		.loc 1 538 10
ARM GAS  /tmp/ccwTXtVb.s 			page 42


 1790 00ca 0023     		movs	r3, #0
 1791              	.L73:
 539:STM32Cube_FW_N6/Drivers/STM32N6xx_HAL_Driver/Src/stm32n6xx_hal_spi.c **** }
 1792              		.loc 1 539 1
 1793 00cc 1846     		mov	r0, r3
 1794 00ce 0837     		adds	r7, r7, #8
 1795              		.cfi_def_cfa_offset 8
 1796 00d0 BD46     		mov	sp, r7
 1797              		.cfi_def_cfa_register 13
 1798              		@ sp needed
 1799 00d2 80BD     		pop	{r7, pc}
 1800              	.L76:
 1801              		.align	2
 1802              	.L75:
 1803 00d4 00300052 		.word	1375744000
 1804 00d8 00300042 		.word	1107308544
 1805 00dc 00380050 		.word	1342191616
 1806 00e0 00380040 		.word	1073756160
 1807 00e4 003C0050 		.word	1342192640
 1808 00e8 003C0040 		.word	1073757184
 1809 00ec 00340052 		.word	1375745024
 1810 00f0 00340042 		.word	1107309568
 1811 00f4 00500052 		.word	1375752192
 1812 00f8 00500042 		.word	1107316736
 1813 00fc 00140056 		.word	1442845696
 1814 0100 00140046 		.word	1174410240
 1815 0104 00000000 		.word	.LC0
 1816              		.cfi_endproc
 1817              	.LFE836:
 1819              		.section	.text.HAL_SPI_MspInit,"ax",%progbits
 1820              		.align	1
 1821              		.weak	HAL_SPI_MspInit
 1822              		.syntax unified
 1823              		.thumb
 1824              		.thumb_func
 1826              	HAL_SPI_MspInit:
 1827              	.LFB837:
 540:STM32Cube_FW_N6/Drivers/STM32N6xx_HAL_Driver/Src/stm32n6xx_hal_spi.c **** 
 541:STM32Cube_FW_N6/Drivers/STM32N6xx_HAL_Driver/Src/stm32n6xx_hal_spi.c **** /**
 542:STM32Cube_FW_N6/Drivers/STM32N6xx_HAL_Driver/Src/stm32n6xx_hal_spi.c ****   * @brief  Initialize the SPI MSP.
 543:STM32Cube_FW_N6/Drivers/STM32N6xx_HAL_Driver/Src/stm32n6xx_hal_spi.c ****   * @param  hspi: pointer to a SPI_HandleTypeDef structure that contains
 544:STM32Cube_FW_N6/Drivers/STM32N6xx_HAL_Driver/Src/stm32n6xx_hal_spi.c ****   *               the configuration information for SPI module.
 545:STM32Cube_FW_N6/Drivers/STM32N6xx_HAL_Driver/Src/stm32n6xx_hal_spi.c ****   * @retval None
 546:STM32Cube_FW_N6/Drivers/STM32N6xx_HAL_Driver/Src/stm32n6xx_hal_spi.c ****   */
 547:STM32Cube_FW_N6/Drivers/STM32N6xx_HAL_Driver/Src/stm32n6xx_hal_spi.c **** __weak void HAL_SPI_MspInit(SPI_HandleTypeDef *hspi)
 548:STM32Cube_FW_N6/Drivers/STM32N6xx_HAL_Driver/Src/stm32n6xx_hal_spi.c **** {
 1828              		.loc 1 548 1
 1829              		.cfi_startproc
 1830              		@ args = 0, pretend = 0, frame = 8
 1831              		@ frame_needed = 1, uses_anonymous_args = 0
 1832              		@ link register save eliminated.
 1833 0000 80B4     		push	{r7}
 1834              		.cfi_def_cfa_offset 4
 1835              		.cfi_offset 7, -4
 1836 0002 83B0     		sub	sp, sp, #12
 1837              		.cfi_def_cfa_offset 16
 1838 0004 00AF     		add	r7, sp, #0
ARM GAS  /tmp/ccwTXtVb.s 			page 43


 1839              		.cfi_def_cfa_register 7
 1840 0006 7860     		str	r0, [r7, #4]
 549:STM32Cube_FW_N6/Drivers/STM32N6xx_HAL_Driver/Src/stm32n6xx_hal_spi.c ****   /* Prevent unused argument(s) compilation warning */
 550:STM32Cube_FW_N6/Drivers/STM32N6xx_HAL_Driver/Src/stm32n6xx_hal_spi.c ****   UNUSED(hspi);
 551:STM32Cube_FW_N6/Drivers/STM32N6xx_HAL_Driver/Src/stm32n6xx_hal_spi.c **** 
 552:STM32Cube_FW_N6/Drivers/STM32N6xx_HAL_Driver/Src/stm32n6xx_hal_spi.c ****   /* NOTE : This function should not be modified, when the callback is needed,
 553:STM32Cube_FW_N6/Drivers/STM32N6xx_HAL_Driver/Src/stm32n6xx_hal_spi.c ****             the HAL_SPI_MspInit should be implemented in the user file
 554:STM32Cube_FW_N6/Drivers/STM32N6xx_HAL_Driver/Src/stm32n6xx_hal_spi.c ****    */
 555:STM32Cube_FW_N6/Drivers/STM32N6xx_HAL_Driver/Src/stm32n6xx_hal_spi.c **** }
 1841              		.loc 1 555 1
 1842 0008 00BF     		nop
 1843 000a 0C37     		adds	r7, r7, #12
 1844              		.cfi_def_cfa_offset 4
 1845 000c BD46     		mov	sp, r7
 1846              		.cfi_def_cfa_register 13
 1847              		@ sp needed
 1848 000e 5DF8047B 		ldr	r7, [sp], #4
 1849              		.cfi_restore 7
 1850              		.cfi_def_cfa_offset 0
 1851 0012 7047     		bx	lr
 1852              		.cfi_endproc
 1853              	.LFE837:
 1855              		.section	.text.HAL_SPI_MspDeInit,"ax",%progbits
 1856              		.align	1
 1857              		.weak	HAL_SPI_MspDeInit
 1858              		.syntax unified
 1859              		.thumb
 1860              		.thumb_func
 1862              	HAL_SPI_MspDeInit:
 1863              	.LFB838:
 556:STM32Cube_FW_N6/Drivers/STM32N6xx_HAL_Driver/Src/stm32n6xx_hal_spi.c **** 
 557:STM32Cube_FW_N6/Drivers/STM32N6xx_HAL_Driver/Src/stm32n6xx_hal_spi.c **** /**
 558:STM32Cube_FW_N6/Drivers/STM32N6xx_HAL_Driver/Src/stm32n6xx_hal_spi.c ****   * @brief  De-Initialize the SPI MSP.
 559:STM32Cube_FW_N6/Drivers/STM32N6xx_HAL_Driver/Src/stm32n6xx_hal_spi.c ****   * @param  hspi: pointer to a SPI_HandleTypeDef structure that contains
 560:STM32Cube_FW_N6/Drivers/STM32N6xx_HAL_Driver/Src/stm32n6xx_hal_spi.c ****   *               the configuration information for SPI module.
 561:STM32Cube_FW_N6/Drivers/STM32N6xx_HAL_Driver/Src/stm32n6xx_hal_spi.c ****   * @retval None
 562:STM32Cube_FW_N6/Drivers/STM32N6xx_HAL_Driver/Src/stm32n6xx_hal_spi.c ****   */
 563:STM32Cube_FW_N6/Drivers/STM32N6xx_HAL_Driver/Src/stm32n6xx_hal_spi.c **** __weak void HAL_SPI_MspDeInit(SPI_HandleTypeDef *hspi)
 564:STM32Cube_FW_N6/Drivers/STM32N6xx_HAL_Driver/Src/stm32n6xx_hal_spi.c **** {
 1864              		.loc 1 564 1
 1865              		.cfi_startproc
 1866              		@ args = 0, pretend = 0, frame = 8
 1867              		@ frame_needed = 1, uses_anonymous_args = 0
 1868              		@ link register save eliminated.
 1869 0000 80B4     		push	{r7}
 1870              		.cfi_def_cfa_offset 4
 1871              		.cfi_offset 7, -4
 1872 0002 83B0     		sub	sp, sp, #12
 1873              		.cfi_def_cfa_offset 16
 1874 0004 00AF     		add	r7, sp, #0
 1875              		.cfi_def_cfa_register 7
 1876 0006 7860     		str	r0, [r7, #4]
 565:STM32Cube_FW_N6/Drivers/STM32N6xx_HAL_Driver/Src/stm32n6xx_hal_spi.c ****   /* Prevent unused argument(s) compilation warning */
 566:STM32Cube_FW_N6/Drivers/STM32N6xx_HAL_Driver/Src/stm32n6xx_hal_spi.c ****   UNUSED(hspi);
 567:STM32Cube_FW_N6/Drivers/STM32N6xx_HAL_Driver/Src/stm32n6xx_hal_spi.c **** 
 568:STM32Cube_FW_N6/Drivers/STM32N6xx_HAL_Driver/Src/stm32n6xx_hal_spi.c ****   /* NOTE : This function should not be modified, when the callback is needed,
 569:STM32Cube_FW_N6/Drivers/STM32N6xx_HAL_Driver/Src/stm32n6xx_hal_spi.c ****             the HAL_SPI_MspDeInit should be implemented in the user file
ARM GAS  /tmp/ccwTXtVb.s 			page 44


 570:STM32Cube_FW_N6/Drivers/STM32N6xx_HAL_Driver/Src/stm32n6xx_hal_spi.c ****    */
 571:STM32Cube_FW_N6/Drivers/STM32N6xx_HAL_Driver/Src/stm32n6xx_hal_spi.c **** }
 1877              		.loc 1 571 1
 1878 0008 00BF     		nop
 1879 000a 0C37     		adds	r7, r7, #12
 1880              		.cfi_def_cfa_offset 4
 1881 000c BD46     		mov	sp, r7
 1882              		.cfi_def_cfa_register 13
 1883              		@ sp needed
 1884 000e 5DF8047B 		ldr	r7, [sp], #4
 1885              		.cfi_restore 7
 1886              		.cfi_def_cfa_offset 0
 1887 0012 7047     		bx	lr
 1888              		.cfi_endproc
 1889              	.LFE838:
 1891              		.section	.text.HAL_SPI_Transmit,"ax",%progbits
 1892              		.align	1
 1893              		.global	HAL_SPI_Transmit
 1894              		.syntax unified
 1895              		.thumb
 1896              		.thumb_func
 1898              	HAL_SPI_Transmit:
 1899              	.LFB839:
 572:STM32Cube_FW_N6/Drivers/STM32N6xx_HAL_Driver/Src/stm32n6xx_hal_spi.c **** 
 573:STM32Cube_FW_N6/Drivers/STM32N6xx_HAL_Driver/Src/stm32n6xx_hal_spi.c **** #if (USE_HAL_SPI_REGISTER_CALLBACKS == 1UL)
 574:STM32Cube_FW_N6/Drivers/STM32N6xx_HAL_Driver/Src/stm32n6xx_hal_spi.c **** /**
 575:STM32Cube_FW_N6/Drivers/STM32N6xx_HAL_Driver/Src/stm32n6xx_hal_spi.c ****   * @brief  Register a User SPI Callback
 576:STM32Cube_FW_N6/Drivers/STM32N6xx_HAL_Driver/Src/stm32n6xx_hal_spi.c ****   *         To be used instead of the weak predefined callback
 577:STM32Cube_FW_N6/Drivers/STM32N6xx_HAL_Driver/Src/stm32n6xx_hal_spi.c ****   * @param  hspi Pointer to a SPI_HandleTypeDef structure that contains
 578:STM32Cube_FW_N6/Drivers/STM32N6xx_HAL_Driver/Src/stm32n6xx_hal_spi.c ****   *                the configuration information for the specified SPI.
 579:STM32Cube_FW_N6/Drivers/STM32N6xx_HAL_Driver/Src/stm32n6xx_hal_spi.c ****   * @param  CallbackID ID of the callback to be registered
 580:STM32Cube_FW_N6/Drivers/STM32N6xx_HAL_Driver/Src/stm32n6xx_hal_spi.c ****   * @param  pCallback pointer to the Callback function
 581:STM32Cube_FW_N6/Drivers/STM32N6xx_HAL_Driver/Src/stm32n6xx_hal_spi.c ****   * @note   The HAL_SPI_RegisterCallback() may be called before HAL_SPI_Init() in HAL_SPI_STATE_RES
 582:STM32Cube_FW_N6/Drivers/STM32N6xx_HAL_Driver/Src/stm32n6xx_hal_spi.c ****   *         to register callbacks for HAL_SPI_MSPINIT_CB_ID and HAL_SPI_MSPDEINIT_CB_ID
 583:STM32Cube_FW_N6/Drivers/STM32N6xx_HAL_Driver/Src/stm32n6xx_hal_spi.c ****   * @retval HAL status
 584:STM32Cube_FW_N6/Drivers/STM32N6xx_HAL_Driver/Src/stm32n6xx_hal_spi.c ****   */
 585:STM32Cube_FW_N6/Drivers/STM32N6xx_HAL_Driver/Src/stm32n6xx_hal_spi.c **** HAL_StatusTypeDef HAL_SPI_RegisterCallback(SPI_HandleTypeDef *hspi, HAL_SPI_CallbackIDTypeDef Callb
 586:STM32Cube_FW_N6/Drivers/STM32N6xx_HAL_Driver/Src/stm32n6xx_hal_spi.c ****                                            pSPI_CallbackTypeDef pCallback)
 587:STM32Cube_FW_N6/Drivers/STM32N6xx_HAL_Driver/Src/stm32n6xx_hal_spi.c **** {
 588:STM32Cube_FW_N6/Drivers/STM32N6xx_HAL_Driver/Src/stm32n6xx_hal_spi.c ****   HAL_StatusTypeDef status = HAL_OK;
 589:STM32Cube_FW_N6/Drivers/STM32N6xx_HAL_Driver/Src/stm32n6xx_hal_spi.c **** 
 590:STM32Cube_FW_N6/Drivers/STM32N6xx_HAL_Driver/Src/stm32n6xx_hal_spi.c ****   if (pCallback == NULL)
 591:STM32Cube_FW_N6/Drivers/STM32N6xx_HAL_Driver/Src/stm32n6xx_hal_spi.c ****   {
 592:STM32Cube_FW_N6/Drivers/STM32N6xx_HAL_Driver/Src/stm32n6xx_hal_spi.c ****     /* Update the error code */
 593:STM32Cube_FW_N6/Drivers/STM32N6xx_HAL_Driver/Src/stm32n6xx_hal_spi.c ****     hspi->ErrorCode |= HAL_SPI_ERROR_INVALID_CALLBACK;
 594:STM32Cube_FW_N6/Drivers/STM32N6xx_HAL_Driver/Src/stm32n6xx_hal_spi.c **** 
 595:STM32Cube_FW_N6/Drivers/STM32N6xx_HAL_Driver/Src/stm32n6xx_hal_spi.c ****     return HAL_ERROR;
 596:STM32Cube_FW_N6/Drivers/STM32N6xx_HAL_Driver/Src/stm32n6xx_hal_spi.c ****   }
 597:STM32Cube_FW_N6/Drivers/STM32N6xx_HAL_Driver/Src/stm32n6xx_hal_spi.c **** 
 598:STM32Cube_FW_N6/Drivers/STM32N6xx_HAL_Driver/Src/stm32n6xx_hal_spi.c ****   if (HAL_SPI_STATE_READY == hspi->State)
 599:STM32Cube_FW_N6/Drivers/STM32N6xx_HAL_Driver/Src/stm32n6xx_hal_spi.c ****   {
 600:STM32Cube_FW_N6/Drivers/STM32N6xx_HAL_Driver/Src/stm32n6xx_hal_spi.c ****     switch (CallbackID)
 601:STM32Cube_FW_N6/Drivers/STM32N6xx_HAL_Driver/Src/stm32n6xx_hal_spi.c ****     {
 602:STM32Cube_FW_N6/Drivers/STM32N6xx_HAL_Driver/Src/stm32n6xx_hal_spi.c ****       case HAL_SPI_TX_COMPLETE_CB_ID :
 603:STM32Cube_FW_N6/Drivers/STM32N6xx_HAL_Driver/Src/stm32n6xx_hal_spi.c ****         hspi->TxCpltCallback = pCallback;
 604:STM32Cube_FW_N6/Drivers/STM32N6xx_HAL_Driver/Src/stm32n6xx_hal_spi.c ****         break;
 605:STM32Cube_FW_N6/Drivers/STM32N6xx_HAL_Driver/Src/stm32n6xx_hal_spi.c **** 
ARM GAS  /tmp/ccwTXtVb.s 			page 45


 606:STM32Cube_FW_N6/Drivers/STM32N6xx_HAL_Driver/Src/stm32n6xx_hal_spi.c ****       case HAL_SPI_RX_COMPLETE_CB_ID :
 607:STM32Cube_FW_N6/Drivers/STM32N6xx_HAL_Driver/Src/stm32n6xx_hal_spi.c ****         hspi->RxCpltCallback = pCallback;
 608:STM32Cube_FW_N6/Drivers/STM32N6xx_HAL_Driver/Src/stm32n6xx_hal_spi.c ****         break;
 609:STM32Cube_FW_N6/Drivers/STM32N6xx_HAL_Driver/Src/stm32n6xx_hal_spi.c **** 
 610:STM32Cube_FW_N6/Drivers/STM32N6xx_HAL_Driver/Src/stm32n6xx_hal_spi.c ****       case HAL_SPI_TX_RX_COMPLETE_CB_ID :
 611:STM32Cube_FW_N6/Drivers/STM32N6xx_HAL_Driver/Src/stm32n6xx_hal_spi.c ****         hspi->TxRxCpltCallback = pCallback;
 612:STM32Cube_FW_N6/Drivers/STM32N6xx_HAL_Driver/Src/stm32n6xx_hal_spi.c ****         break;
 613:STM32Cube_FW_N6/Drivers/STM32N6xx_HAL_Driver/Src/stm32n6xx_hal_spi.c **** 
 614:STM32Cube_FW_N6/Drivers/STM32N6xx_HAL_Driver/Src/stm32n6xx_hal_spi.c ****       case HAL_SPI_TX_HALF_COMPLETE_CB_ID :
 615:STM32Cube_FW_N6/Drivers/STM32N6xx_HAL_Driver/Src/stm32n6xx_hal_spi.c ****         hspi->TxHalfCpltCallback = pCallback;
 616:STM32Cube_FW_N6/Drivers/STM32N6xx_HAL_Driver/Src/stm32n6xx_hal_spi.c ****         break;
 617:STM32Cube_FW_N6/Drivers/STM32N6xx_HAL_Driver/Src/stm32n6xx_hal_spi.c **** 
 618:STM32Cube_FW_N6/Drivers/STM32N6xx_HAL_Driver/Src/stm32n6xx_hal_spi.c ****       case HAL_SPI_RX_HALF_COMPLETE_CB_ID :
 619:STM32Cube_FW_N6/Drivers/STM32N6xx_HAL_Driver/Src/stm32n6xx_hal_spi.c ****         hspi->RxHalfCpltCallback = pCallback;
 620:STM32Cube_FW_N6/Drivers/STM32N6xx_HAL_Driver/Src/stm32n6xx_hal_spi.c ****         break;
 621:STM32Cube_FW_N6/Drivers/STM32N6xx_HAL_Driver/Src/stm32n6xx_hal_spi.c **** 
 622:STM32Cube_FW_N6/Drivers/STM32N6xx_HAL_Driver/Src/stm32n6xx_hal_spi.c ****       case HAL_SPI_TX_RX_HALF_COMPLETE_CB_ID :
 623:STM32Cube_FW_N6/Drivers/STM32N6xx_HAL_Driver/Src/stm32n6xx_hal_spi.c ****         hspi->TxRxHalfCpltCallback = pCallback;
 624:STM32Cube_FW_N6/Drivers/STM32N6xx_HAL_Driver/Src/stm32n6xx_hal_spi.c ****         break;
 625:STM32Cube_FW_N6/Drivers/STM32N6xx_HAL_Driver/Src/stm32n6xx_hal_spi.c **** 
 626:STM32Cube_FW_N6/Drivers/STM32N6xx_HAL_Driver/Src/stm32n6xx_hal_spi.c ****       case HAL_SPI_ERROR_CB_ID :
 627:STM32Cube_FW_N6/Drivers/STM32N6xx_HAL_Driver/Src/stm32n6xx_hal_spi.c ****         hspi->ErrorCallback = pCallback;
 628:STM32Cube_FW_N6/Drivers/STM32N6xx_HAL_Driver/Src/stm32n6xx_hal_spi.c ****         break;
 629:STM32Cube_FW_N6/Drivers/STM32N6xx_HAL_Driver/Src/stm32n6xx_hal_spi.c **** 
 630:STM32Cube_FW_N6/Drivers/STM32N6xx_HAL_Driver/Src/stm32n6xx_hal_spi.c ****       case HAL_SPI_ABORT_CB_ID :
 631:STM32Cube_FW_N6/Drivers/STM32N6xx_HAL_Driver/Src/stm32n6xx_hal_spi.c ****         hspi->AbortCpltCallback = pCallback;
 632:STM32Cube_FW_N6/Drivers/STM32N6xx_HAL_Driver/Src/stm32n6xx_hal_spi.c ****         break;
 633:STM32Cube_FW_N6/Drivers/STM32N6xx_HAL_Driver/Src/stm32n6xx_hal_spi.c **** 
 634:STM32Cube_FW_N6/Drivers/STM32N6xx_HAL_Driver/Src/stm32n6xx_hal_spi.c ****       case HAL_SPI_SUSPEND_CB_ID :
 635:STM32Cube_FW_N6/Drivers/STM32N6xx_HAL_Driver/Src/stm32n6xx_hal_spi.c ****         hspi->SuspendCallback = pCallback;
 636:STM32Cube_FW_N6/Drivers/STM32N6xx_HAL_Driver/Src/stm32n6xx_hal_spi.c ****         break;
 637:STM32Cube_FW_N6/Drivers/STM32N6xx_HAL_Driver/Src/stm32n6xx_hal_spi.c **** 
 638:STM32Cube_FW_N6/Drivers/STM32N6xx_HAL_Driver/Src/stm32n6xx_hal_spi.c ****       case HAL_SPI_MSPINIT_CB_ID :
 639:STM32Cube_FW_N6/Drivers/STM32N6xx_HAL_Driver/Src/stm32n6xx_hal_spi.c ****         hspi->MspInitCallback = pCallback;
 640:STM32Cube_FW_N6/Drivers/STM32N6xx_HAL_Driver/Src/stm32n6xx_hal_spi.c ****         break;
 641:STM32Cube_FW_N6/Drivers/STM32N6xx_HAL_Driver/Src/stm32n6xx_hal_spi.c **** 
 642:STM32Cube_FW_N6/Drivers/STM32N6xx_HAL_Driver/Src/stm32n6xx_hal_spi.c ****       case HAL_SPI_MSPDEINIT_CB_ID :
 643:STM32Cube_FW_N6/Drivers/STM32N6xx_HAL_Driver/Src/stm32n6xx_hal_spi.c ****         hspi->MspDeInitCallback = pCallback;
 644:STM32Cube_FW_N6/Drivers/STM32N6xx_HAL_Driver/Src/stm32n6xx_hal_spi.c ****         break;
 645:STM32Cube_FW_N6/Drivers/STM32N6xx_HAL_Driver/Src/stm32n6xx_hal_spi.c **** 
 646:STM32Cube_FW_N6/Drivers/STM32N6xx_HAL_Driver/Src/stm32n6xx_hal_spi.c ****       default :
 647:STM32Cube_FW_N6/Drivers/STM32N6xx_HAL_Driver/Src/stm32n6xx_hal_spi.c ****         /* Update the error code */
 648:STM32Cube_FW_N6/Drivers/STM32N6xx_HAL_Driver/Src/stm32n6xx_hal_spi.c ****         SET_BIT(hspi->ErrorCode, HAL_SPI_ERROR_INVALID_CALLBACK);
 649:STM32Cube_FW_N6/Drivers/STM32N6xx_HAL_Driver/Src/stm32n6xx_hal_spi.c **** 
 650:STM32Cube_FW_N6/Drivers/STM32N6xx_HAL_Driver/Src/stm32n6xx_hal_spi.c ****         /* Return error status */
 651:STM32Cube_FW_N6/Drivers/STM32N6xx_HAL_Driver/Src/stm32n6xx_hal_spi.c ****         status =  HAL_ERROR;
 652:STM32Cube_FW_N6/Drivers/STM32N6xx_HAL_Driver/Src/stm32n6xx_hal_spi.c ****         break;
 653:STM32Cube_FW_N6/Drivers/STM32N6xx_HAL_Driver/Src/stm32n6xx_hal_spi.c ****     }
 654:STM32Cube_FW_N6/Drivers/STM32N6xx_HAL_Driver/Src/stm32n6xx_hal_spi.c ****   }
 655:STM32Cube_FW_N6/Drivers/STM32N6xx_HAL_Driver/Src/stm32n6xx_hal_spi.c ****   else if (HAL_SPI_STATE_RESET == hspi->State)
 656:STM32Cube_FW_N6/Drivers/STM32N6xx_HAL_Driver/Src/stm32n6xx_hal_spi.c ****   {
 657:STM32Cube_FW_N6/Drivers/STM32N6xx_HAL_Driver/Src/stm32n6xx_hal_spi.c ****     switch (CallbackID)
 658:STM32Cube_FW_N6/Drivers/STM32N6xx_HAL_Driver/Src/stm32n6xx_hal_spi.c ****     {
 659:STM32Cube_FW_N6/Drivers/STM32N6xx_HAL_Driver/Src/stm32n6xx_hal_spi.c ****       case HAL_SPI_MSPINIT_CB_ID :
 660:STM32Cube_FW_N6/Drivers/STM32N6xx_HAL_Driver/Src/stm32n6xx_hal_spi.c ****         hspi->MspInitCallback = pCallback;
 661:STM32Cube_FW_N6/Drivers/STM32N6xx_HAL_Driver/Src/stm32n6xx_hal_spi.c ****         break;
 662:STM32Cube_FW_N6/Drivers/STM32N6xx_HAL_Driver/Src/stm32n6xx_hal_spi.c **** 
ARM GAS  /tmp/ccwTXtVb.s 			page 46


 663:STM32Cube_FW_N6/Drivers/STM32N6xx_HAL_Driver/Src/stm32n6xx_hal_spi.c ****       case HAL_SPI_MSPDEINIT_CB_ID :
 664:STM32Cube_FW_N6/Drivers/STM32N6xx_HAL_Driver/Src/stm32n6xx_hal_spi.c ****         hspi->MspDeInitCallback = pCallback;
 665:STM32Cube_FW_N6/Drivers/STM32N6xx_HAL_Driver/Src/stm32n6xx_hal_spi.c ****         break;
 666:STM32Cube_FW_N6/Drivers/STM32N6xx_HAL_Driver/Src/stm32n6xx_hal_spi.c **** 
 667:STM32Cube_FW_N6/Drivers/STM32N6xx_HAL_Driver/Src/stm32n6xx_hal_spi.c ****       default :
 668:STM32Cube_FW_N6/Drivers/STM32N6xx_HAL_Driver/Src/stm32n6xx_hal_spi.c ****         /* Update the error code */
 669:STM32Cube_FW_N6/Drivers/STM32N6xx_HAL_Driver/Src/stm32n6xx_hal_spi.c ****         SET_BIT(hspi->ErrorCode, HAL_SPI_ERROR_INVALID_CALLBACK);
 670:STM32Cube_FW_N6/Drivers/STM32N6xx_HAL_Driver/Src/stm32n6xx_hal_spi.c **** 
 671:STM32Cube_FW_N6/Drivers/STM32N6xx_HAL_Driver/Src/stm32n6xx_hal_spi.c ****         /* Return error status */
 672:STM32Cube_FW_N6/Drivers/STM32N6xx_HAL_Driver/Src/stm32n6xx_hal_spi.c ****         status =  HAL_ERROR;
 673:STM32Cube_FW_N6/Drivers/STM32N6xx_HAL_Driver/Src/stm32n6xx_hal_spi.c ****         break;
 674:STM32Cube_FW_N6/Drivers/STM32N6xx_HAL_Driver/Src/stm32n6xx_hal_spi.c ****     }
 675:STM32Cube_FW_N6/Drivers/STM32N6xx_HAL_Driver/Src/stm32n6xx_hal_spi.c ****   }
 676:STM32Cube_FW_N6/Drivers/STM32N6xx_HAL_Driver/Src/stm32n6xx_hal_spi.c ****   else
 677:STM32Cube_FW_N6/Drivers/STM32N6xx_HAL_Driver/Src/stm32n6xx_hal_spi.c ****   {
 678:STM32Cube_FW_N6/Drivers/STM32N6xx_HAL_Driver/Src/stm32n6xx_hal_spi.c ****     /* Update the error code */
 679:STM32Cube_FW_N6/Drivers/STM32N6xx_HAL_Driver/Src/stm32n6xx_hal_spi.c ****     SET_BIT(hspi->ErrorCode, HAL_SPI_ERROR_INVALID_CALLBACK);
 680:STM32Cube_FW_N6/Drivers/STM32N6xx_HAL_Driver/Src/stm32n6xx_hal_spi.c **** 
 681:STM32Cube_FW_N6/Drivers/STM32N6xx_HAL_Driver/Src/stm32n6xx_hal_spi.c ****     /* Return error status */
 682:STM32Cube_FW_N6/Drivers/STM32N6xx_HAL_Driver/Src/stm32n6xx_hal_spi.c ****     status =  HAL_ERROR;
 683:STM32Cube_FW_N6/Drivers/STM32N6xx_HAL_Driver/Src/stm32n6xx_hal_spi.c ****   }
 684:STM32Cube_FW_N6/Drivers/STM32N6xx_HAL_Driver/Src/stm32n6xx_hal_spi.c **** 
 685:STM32Cube_FW_N6/Drivers/STM32N6xx_HAL_Driver/Src/stm32n6xx_hal_spi.c ****   return status;
 686:STM32Cube_FW_N6/Drivers/STM32N6xx_HAL_Driver/Src/stm32n6xx_hal_spi.c **** }
 687:STM32Cube_FW_N6/Drivers/STM32N6xx_HAL_Driver/Src/stm32n6xx_hal_spi.c **** 
 688:STM32Cube_FW_N6/Drivers/STM32N6xx_HAL_Driver/Src/stm32n6xx_hal_spi.c **** /**
 689:STM32Cube_FW_N6/Drivers/STM32N6xx_HAL_Driver/Src/stm32n6xx_hal_spi.c ****   * @brief  Unregister an SPI Callback
 690:STM32Cube_FW_N6/Drivers/STM32N6xx_HAL_Driver/Src/stm32n6xx_hal_spi.c ****   *         SPI callback is redirected to the weak predefined callback
 691:STM32Cube_FW_N6/Drivers/STM32N6xx_HAL_Driver/Src/stm32n6xx_hal_spi.c ****   * @param  hspi Pointer to a SPI_HandleTypeDef structure that contains
 692:STM32Cube_FW_N6/Drivers/STM32N6xx_HAL_Driver/Src/stm32n6xx_hal_spi.c ****   *                the configuration information for the specified SPI.
 693:STM32Cube_FW_N6/Drivers/STM32N6xx_HAL_Driver/Src/stm32n6xx_hal_spi.c ****   * @param  CallbackID ID of the callback to be unregistered
 694:STM32Cube_FW_N6/Drivers/STM32N6xx_HAL_Driver/Src/stm32n6xx_hal_spi.c ****   * @note   The HAL_SPI_UnRegisterCallback() may be called before HAL_SPI_Init() in HAL_SPI_STATE_R
 695:STM32Cube_FW_N6/Drivers/STM32N6xx_HAL_Driver/Src/stm32n6xx_hal_spi.c ****   *         to un-register callbacks for HAL_SPI_MSPINIT_CB_ID and HAL_SPI_MSPDEINIT_CB_ID
 696:STM32Cube_FW_N6/Drivers/STM32N6xx_HAL_Driver/Src/stm32n6xx_hal_spi.c ****   * @retval HAL status
 697:STM32Cube_FW_N6/Drivers/STM32N6xx_HAL_Driver/Src/stm32n6xx_hal_spi.c ****   */
 698:STM32Cube_FW_N6/Drivers/STM32N6xx_HAL_Driver/Src/stm32n6xx_hal_spi.c **** HAL_StatusTypeDef HAL_SPI_UnRegisterCallback(SPI_HandleTypeDef *hspi, HAL_SPI_CallbackIDTypeDef Cal
 699:STM32Cube_FW_N6/Drivers/STM32N6xx_HAL_Driver/Src/stm32n6xx_hal_spi.c **** {
 700:STM32Cube_FW_N6/Drivers/STM32N6xx_HAL_Driver/Src/stm32n6xx_hal_spi.c ****   HAL_StatusTypeDef status = HAL_OK;
 701:STM32Cube_FW_N6/Drivers/STM32N6xx_HAL_Driver/Src/stm32n6xx_hal_spi.c **** 
 702:STM32Cube_FW_N6/Drivers/STM32N6xx_HAL_Driver/Src/stm32n6xx_hal_spi.c ****   if (HAL_SPI_STATE_READY == hspi->State)
 703:STM32Cube_FW_N6/Drivers/STM32N6xx_HAL_Driver/Src/stm32n6xx_hal_spi.c ****   {
 704:STM32Cube_FW_N6/Drivers/STM32N6xx_HAL_Driver/Src/stm32n6xx_hal_spi.c ****     switch (CallbackID)
 705:STM32Cube_FW_N6/Drivers/STM32N6xx_HAL_Driver/Src/stm32n6xx_hal_spi.c ****     {
 706:STM32Cube_FW_N6/Drivers/STM32N6xx_HAL_Driver/Src/stm32n6xx_hal_spi.c ****       case HAL_SPI_TX_COMPLETE_CB_ID :
 707:STM32Cube_FW_N6/Drivers/STM32N6xx_HAL_Driver/Src/stm32n6xx_hal_spi.c ****         hspi->TxCpltCallback = HAL_SPI_TxCpltCallback;             /* Legacy weak TxCpltCallback   
 708:STM32Cube_FW_N6/Drivers/STM32N6xx_HAL_Driver/Src/stm32n6xx_hal_spi.c ****         break;
 709:STM32Cube_FW_N6/Drivers/STM32N6xx_HAL_Driver/Src/stm32n6xx_hal_spi.c **** 
 710:STM32Cube_FW_N6/Drivers/STM32N6xx_HAL_Driver/Src/stm32n6xx_hal_spi.c ****       case HAL_SPI_RX_COMPLETE_CB_ID :
 711:STM32Cube_FW_N6/Drivers/STM32N6xx_HAL_Driver/Src/stm32n6xx_hal_spi.c ****         hspi->RxCpltCallback = HAL_SPI_RxCpltCallback;             /* Legacy weak RxCpltCallback   
 712:STM32Cube_FW_N6/Drivers/STM32N6xx_HAL_Driver/Src/stm32n6xx_hal_spi.c ****         break;
 713:STM32Cube_FW_N6/Drivers/STM32N6xx_HAL_Driver/Src/stm32n6xx_hal_spi.c **** 
 714:STM32Cube_FW_N6/Drivers/STM32N6xx_HAL_Driver/Src/stm32n6xx_hal_spi.c ****       case HAL_SPI_TX_RX_COMPLETE_CB_ID :
 715:STM32Cube_FW_N6/Drivers/STM32N6xx_HAL_Driver/Src/stm32n6xx_hal_spi.c ****         hspi->TxRxCpltCallback = HAL_SPI_TxRxCpltCallback;         /* Legacy weak TxRxCpltCallback 
 716:STM32Cube_FW_N6/Drivers/STM32N6xx_HAL_Driver/Src/stm32n6xx_hal_spi.c ****         break;
 717:STM32Cube_FW_N6/Drivers/STM32N6xx_HAL_Driver/Src/stm32n6xx_hal_spi.c **** 
 718:STM32Cube_FW_N6/Drivers/STM32N6xx_HAL_Driver/Src/stm32n6xx_hal_spi.c ****       case HAL_SPI_TX_HALF_COMPLETE_CB_ID :
 719:STM32Cube_FW_N6/Drivers/STM32N6xx_HAL_Driver/Src/stm32n6xx_hal_spi.c ****         hspi->TxHalfCpltCallback = HAL_SPI_TxHalfCpltCallback;     /* Legacy weak TxHalfCpltCallbac
ARM GAS  /tmp/ccwTXtVb.s 			page 47


 720:STM32Cube_FW_N6/Drivers/STM32N6xx_HAL_Driver/Src/stm32n6xx_hal_spi.c ****         break;
 721:STM32Cube_FW_N6/Drivers/STM32N6xx_HAL_Driver/Src/stm32n6xx_hal_spi.c **** 
 722:STM32Cube_FW_N6/Drivers/STM32N6xx_HAL_Driver/Src/stm32n6xx_hal_spi.c ****       case HAL_SPI_RX_HALF_COMPLETE_CB_ID :
 723:STM32Cube_FW_N6/Drivers/STM32N6xx_HAL_Driver/Src/stm32n6xx_hal_spi.c ****         hspi->RxHalfCpltCallback = HAL_SPI_RxHalfCpltCallback;     /* Legacy weak RxHalfCpltCallbac
 724:STM32Cube_FW_N6/Drivers/STM32N6xx_HAL_Driver/Src/stm32n6xx_hal_spi.c ****         break;
 725:STM32Cube_FW_N6/Drivers/STM32N6xx_HAL_Driver/Src/stm32n6xx_hal_spi.c **** 
 726:STM32Cube_FW_N6/Drivers/STM32N6xx_HAL_Driver/Src/stm32n6xx_hal_spi.c ****       case HAL_SPI_TX_RX_HALF_COMPLETE_CB_ID :
 727:STM32Cube_FW_N6/Drivers/STM32N6xx_HAL_Driver/Src/stm32n6xx_hal_spi.c ****         hspi->TxRxHalfCpltCallback = HAL_SPI_TxRxHalfCpltCallback; /* Legacy weak TxRxHalfCpltCallb
 728:STM32Cube_FW_N6/Drivers/STM32N6xx_HAL_Driver/Src/stm32n6xx_hal_spi.c ****         break;
 729:STM32Cube_FW_N6/Drivers/STM32N6xx_HAL_Driver/Src/stm32n6xx_hal_spi.c **** 
 730:STM32Cube_FW_N6/Drivers/STM32N6xx_HAL_Driver/Src/stm32n6xx_hal_spi.c ****       case HAL_SPI_ERROR_CB_ID :
 731:STM32Cube_FW_N6/Drivers/STM32N6xx_HAL_Driver/Src/stm32n6xx_hal_spi.c ****         hspi->ErrorCallback = HAL_SPI_ErrorCallback;               /* Legacy weak ErrorCallback    
 732:STM32Cube_FW_N6/Drivers/STM32N6xx_HAL_Driver/Src/stm32n6xx_hal_spi.c ****         break;
 733:STM32Cube_FW_N6/Drivers/STM32N6xx_HAL_Driver/Src/stm32n6xx_hal_spi.c **** 
 734:STM32Cube_FW_N6/Drivers/STM32N6xx_HAL_Driver/Src/stm32n6xx_hal_spi.c ****       case HAL_SPI_ABORT_CB_ID :
 735:STM32Cube_FW_N6/Drivers/STM32N6xx_HAL_Driver/Src/stm32n6xx_hal_spi.c ****         hspi->AbortCpltCallback = HAL_SPI_AbortCpltCallback;       /* Legacy weak AbortCpltCallback
 736:STM32Cube_FW_N6/Drivers/STM32N6xx_HAL_Driver/Src/stm32n6xx_hal_spi.c ****         break;
 737:STM32Cube_FW_N6/Drivers/STM32N6xx_HAL_Driver/Src/stm32n6xx_hal_spi.c **** 
 738:STM32Cube_FW_N6/Drivers/STM32N6xx_HAL_Driver/Src/stm32n6xx_hal_spi.c ****       case HAL_SPI_SUSPEND_CB_ID :
 739:STM32Cube_FW_N6/Drivers/STM32N6xx_HAL_Driver/Src/stm32n6xx_hal_spi.c ****         hspi->SuspendCallback = HAL_SPI_SuspendCallback;           /* Legacy weak SuspendCallback  
 740:STM32Cube_FW_N6/Drivers/STM32N6xx_HAL_Driver/Src/stm32n6xx_hal_spi.c ****         break;
 741:STM32Cube_FW_N6/Drivers/STM32N6xx_HAL_Driver/Src/stm32n6xx_hal_spi.c **** 
 742:STM32Cube_FW_N6/Drivers/STM32N6xx_HAL_Driver/Src/stm32n6xx_hal_spi.c ****       case HAL_SPI_MSPINIT_CB_ID :
 743:STM32Cube_FW_N6/Drivers/STM32N6xx_HAL_Driver/Src/stm32n6xx_hal_spi.c ****         hspi->MspInitCallback = HAL_SPI_MspInit;                   /* Legacy weak MspInit          
 744:STM32Cube_FW_N6/Drivers/STM32N6xx_HAL_Driver/Src/stm32n6xx_hal_spi.c ****         break;
 745:STM32Cube_FW_N6/Drivers/STM32N6xx_HAL_Driver/Src/stm32n6xx_hal_spi.c **** 
 746:STM32Cube_FW_N6/Drivers/STM32N6xx_HAL_Driver/Src/stm32n6xx_hal_spi.c ****       case HAL_SPI_MSPDEINIT_CB_ID :
 747:STM32Cube_FW_N6/Drivers/STM32N6xx_HAL_Driver/Src/stm32n6xx_hal_spi.c ****         hspi->MspDeInitCallback = HAL_SPI_MspDeInit;               /* Legacy weak MspDeInit        
 748:STM32Cube_FW_N6/Drivers/STM32N6xx_HAL_Driver/Src/stm32n6xx_hal_spi.c ****         break;
 749:STM32Cube_FW_N6/Drivers/STM32N6xx_HAL_Driver/Src/stm32n6xx_hal_spi.c **** 
 750:STM32Cube_FW_N6/Drivers/STM32N6xx_HAL_Driver/Src/stm32n6xx_hal_spi.c ****       default :
 751:STM32Cube_FW_N6/Drivers/STM32N6xx_HAL_Driver/Src/stm32n6xx_hal_spi.c ****         /* Update the error code */
 752:STM32Cube_FW_N6/Drivers/STM32N6xx_HAL_Driver/Src/stm32n6xx_hal_spi.c ****         SET_BIT(hspi->ErrorCode, HAL_SPI_ERROR_INVALID_CALLBACK);
 753:STM32Cube_FW_N6/Drivers/STM32N6xx_HAL_Driver/Src/stm32n6xx_hal_spi.c **** 
 754:STM32Cube_FW_N6/Drivers/STM32N6xx_HAL_Driver/Src/stm32n6xx_hal_spi.c ****         /* Return error status */
 755:STM32Cube_FW_N6/Drivers/STM32N6xx_HAL_Driver/Src/stm32n6xx_hal_spi.c ****         status =  HAL_ERROR;
 756:STM32Cube_FW_N6/Drivers/STM32N6xx_HAL_Driver/Src/stm32n6xx_hal_spi.c ****         break;
 757:STM32Cube_FW_N6/Drivers/STM32N6xx_HAL_Driver/Src/stm32n6xx_hal_spi.c ****     }
 758:STM32Cube_FW_N6/Drivers/STM32N6xx_HAL_Driver/Src/stm32n6xx_hal_spi.c ****   }
 759:STM32Cube_FW_N6/Drivers/STM32N6xx_HAL_Driver/Src/stm32n6xx_hal_spi.c ****   else if (HAL_SPI_STATE_RESET == hspi->State)
 760:STM32Cube_FW_N6/Drivers/STM32N6xx_HAL_Driver/Src/stm32n6xx_hal_spi.c ****   {
 761:STM32Cube_FW_N6/Drivers/STM32N6xx_HAL_Driver/Src/stm32n6xx_hal_spi.c ****     switch (CallbackID)
 762:STM32Cube_FW_N6/Drivers/STM32N6xx_HAL_Driver/Src/stm32n6xx_hal_spi.c ****     {
 763:STM32Cube_FW_N6/Drivers/STM32N6xx_HAL_Driver/Src/stm32n6xx_hal_spi.c ****       case HAL_SPI_MSPINIT_CB_ID :
 764:STM32Cube_FW_N6/Drivers/STM32N6xx_HAL_Driver/Src/stm32n6xx_hal_spi.c ****         hspi->MspInitCallback = HAL_SPI_MspInit;                   /* Legacy weak MspInit          
 765:STM32Cube_FW_N6/Drivers/STM32N6xx_HAL_Driver/Src/stm32n6xx_hal_spi.c ****         break;
 766:STM32Cube_FW_N6/Drivers/STM32N6xx_HAL_Driver/Src/stm32n6xx_hal_spi.c **** 
 767:STM32Cube_FW_N6/Drivers/STM32N6xx_HAL_Driver/Src/stm32n6xx_hal_spi.c ****       case HAL_SPI_MSPDEINIT_CB_ID :
 768:STM32Cube_FW_N6/Drivers/STM32N6xx_HAL_Driver/Src/stm32n6xx_hal_spi.c ****         hspi->MspDeInitCallback = HAL_SPI_MspDeInit;               /* Legacy weak MspDeInit        
 769:STM32Cube_FW_N6/Drivers/STM32N6xx_HAL_Driver/Src/stm32n6xx_hal_spi.c ****         break;
 770:STM32Cube_FW_N6/Drivers/STM32N6xx_HAL_Driver/Src/stm32n6xx_hal_spi.c **** 
 771:STM32Cube_FW_N6/Drivers/STM32N6xx_HAL_Driver/Src/stm32n6xx_hal_spi.c ****       default :
 772:STM32Cube_FW_N6/Drivers/STM32N6xx_HAL_Driver/Src/stm32n6xx_hal_spi.c ****         /* Update the error code */
 773:STM32Cube_FW_N6/Drivers/STM32N6xx_HAL_Driver/Src/stm32n6xx_hal_spi.c ****         SET_BIT(hspi->ErrorCode, HAL_SPI_ERROR_INVALID_CALLBACK);
 774:STM32Cube_FW_N6/Drivers/STM32N6xx_HAL_Driver/Src/stm32n6xx_hal_spi.c **** 
 775:STM32Cube_FW_N6/Drivers/STM32N6xx_HAL_Driver/Src/stm32n6xx_hal_spi.c ****         /* Return error status */
 776:STM32Cube_FW_N6/Drivers/STM32N6xx_HAL_Driver/Src/stm32n6xx_hal_spi.c ****         status =  HAL_ERROR;
ARM GAS  /tmp/ccwTXtVb.s 			page 48


 777:STM32Cube_FW_N6/Drivers/STM32N6xx_HAL_Driver/Src/stm32n6xx_hal_spi.c ****         break;
 778:STM32Cube_FW_N6/Drivers/STM32N6xx_HAL_Driver/Src/stm32n6xx_hal_spi.c ****     }
 779:STM32Cube_FW_N6/Drivers/STM32N6xx_HAL_Driver/Src/stm32n6xx_hal_spi.c ****   }
 780:STM32Cube_FW_N6/Drivers/STM32N6xx_HAL_Driver/Src/stm32n6xx_hal_spi.c ****   else
 781:STM32Cube_FW_N6/Drivers/STM32N6xx_HAL_Driver/Src/stm32n6xx_hal_spi.c ****   {
 782:STM32Cube_FW_N6/Drivers/STM32N6xx_HAL_Driver/Src/stm32n6xx_hal_spi.c ****     /* Update the error code */
 783:STM32Cube_FW_N6/Drivers/STM32N6xx_HAL_Driver/Src/stm32n6xx_hal_spi.c ****     SET_BIT(hspi->ErrorCode, HAL_SPI_ERROR_INVALID_CALLBACK);
 784:STM32Cube_FW_N6/Drivers/STM32N6xx_HAL_Driver/Src/stm32n6xx_hal_spi.c **** 
 785:STM32Cube_FW_N6/Drivers/STM32N6xx_HAL_Driver/Src/stm32n6xx_hal_spi.c ****     /* Return error status */
 786:STM32Cube_FW_N6/Drivers/STM32N6xx_HAL_Driver/Src/stm32n6xx_hal_spi.c ****     status =  HAL_ERROR;
 787:STM32Cube_FW_N6/Drivers/STM32N6xx_HAL_Driver/Src/stm32n6xx_hal_spi.c ****   }
 788:STM32Cube_FW_N6/Drivers/STM32N6xx_HAL_Driver/Src/stm32n6xx_hal_spi.c **** 
 789:STM32Cube_FW_N6/Drivers/STM32N6xx_HAL_Driver/Src/stm32n6xx_hal_spi.c ****   return status;
 790:STM32Cube_FW_N6/Drivers/STM32N6xx_HAL_Driver/Src/stm32n6xx_hal_spi.c **** }
 791:STM32Cube_FW_N6/Drivers/STM32N6xx_HAL_Driver/Src/stm32n6xx_hal_spi.c **** #endif /* USE_HAL_SPI_REGISTER_CALLBACKS */
 792:STM32Cube_FW_N6/Drivers/STM32N6xx_HAL_Driver/Src/stm32n6xx_hal_spi.c **** /**
 793:STM32Cube_FW_N6/Drivers/STM32N6xx_HAL_Driver/Src/stm32n6xx_hal_spi.c ****   * @}
 794:STM32Cube_FW_N6/Drivers/STM32N6xx_HAL_Driver/Src/stm32n6xx_hal_spi.c ****   */
 795:STM32Cube_FW_N6/Drivers/STM32N6xx_HAL_Driver/Src/stm32n6xx_hal_spi.c **** 
 796:STM32Cube_FW_N6/Drivers/STM32N6xx_HAL_Driver/Src/stm32n6xx_hal_spi.c **** /** @defgroup SPI_Exported_Functions_Group2 IO operation functions
 797:STM32Cube_FW_N6/Drivers/STM32N6xx_HAL_Driver/Src/stm32n6xx_hal_spi.c ****   *  @brief   Data transfers functions
 798:STM32Cube_FW_N6/Drivers/STM32N6xx_HAL_Driver/Src/stm32n6xx_hal_spi.c ****   *
 799:STM32Cube_FW_N6/Drivers/STM32N6xx_HAL_Driver/Src/stm32n6xx_hal_spi.c **** @verbatim
 800:STM32Cube_FW_N6/Drivers/STM32N6xx_HAL_Driver/Src/stm32n6xx_hal_spi.c ****   ==============================================================================
 801:STM32Cube_FW_N6/Drivers/STM32N6xx_HAL_Driver/Src/stm32n6xx_hal_spi.c ****                       ##### IO operation functions #####
 802:STM32Cube_FW_N6/Drivers/STM32N6xx_HAL_Driver/Src/stm32n6xx_hal_spi.c ****  ===============================================================================
 803:STM32Cube_FW_N6/Drivers/STM32N6xx_HAL_Driver/Src/stm32n6xx_hal_spi.c ****  [..]
 804:STM32Cube_FW_N6/Drivers/STM32N6xx_HAL_Driver/Src/stm32n6xx_hal_spi.c ****     This subsection provides a set of functions allowing to manage the SPI
 805:STM32Cube_FW_N6/Drivers/STM32N6xx_HAL_Driver/Src/stm32n6xx_hal_spi.c ****     data transfers.
 806:STM32Cube_FW_N6/Drivers/STM32N6xx_HAL_Driver/Src/stm32n6xx_hal_spi.c **** 
 807:STM32Cube_FW_N6/Drivers/STM32N6xx_HAL_Driver/Src/stm32n6xx_hal_spi.c ****     [..] The SPI supports master and slave mode :
 808:STM32Cube_FW_N6/Drivers/STM32N6xx_HAL_Driver/Src/stm32n6xx_hal_spi.c **** 
 809:STM32Cube_FW_N6/Drivers/STM32N6xx_HAL_Driver/Src/stm32n6xx_hal_spi.c ****     (#) There are two modes of transfer:
 810:STM32Cube_FW_N6/Drivers/STM32N6xx_HAL_Driver/Src/stm32n6xx_hal_spi.c ****        (##) Blocking mode: The communication is performed in polling mode.
 811:STM32Cube_FW_N6/Drivers/STM32N6xx_HAL_Driver/Src/stm32n6xx_hal_spi.c ****             The HAL status of all data processing is returned by the same function
 812:STM32Cube_FW_N6/Drivers/STM32N6xx_HAL_Driver/Src/stm32n6xx_hal_spi.c ****             after finishing transfer.
 813:STM32Cube_FW_N6/Drivers/STM32N6xx_HAL_Driver/Src/stm32n6xx_hal_spi.c ****        (##) No-Blocking mode: The communication is performed using Interrupts
 814:STM32Cube_FW_N6/Drivers/STM32N6xx_HAL_Driver/Src/stm32n6xx_hal_spi.c ****             or DMA, These APIs return the HAL status.
 815:STM32Cube_FW_N6/Drivers/STM32N6xx_HAL_Driver/Src/stm32n6xx_hal_spi.c ****             The end of the data processing will be indicated through the
 816:STM32Cube_FW_N6/Drivers/STM32N6xx_HAL_Driver/Src/stm32n6xx_hal_spi.c ****             dedicated SPI IRQ when using Interrupt mode or the DMA IRQ when
 817:STM32Cube_FW_N6/Drivers/STM32N6xx_HAL_Driver/Src/stm32n6xx_hal_spi.c ****             using DMA mode.
 818:STM32Cube_FW_N6/Drivers/STM32N6xx_HAL_Driver/Src/stm32n6xx_hal_spi.c ****             The HAL_SPI_TxCpltCallback(), HAL_SPI_RxCpltCallback() and HAL_SPI_TxRxCpltCallback() u
 819:STM32Cube_FW_N6/Drivers/STM32N6xx_HAL_Driver/Src/stm32n6xx_hal_spi.c ****             will be executed respectively at the end of the transmit or Receive process
 820:STM32Cube_FW_N6/Drivers/STM32N6xx_HAL_Driver/Src/stm32n6xx_hal_spi.c ****             The HAL_SPI_ErrorCallback()user callback will be executed when a communication error is
 821:STM32Cube_FW_N6/Drivers/STM32N6xx_HAL_Driver/Src/stm32n6xx_hal_spi.c **** 
 822:STM32Cube_FW_N6/Drivers/STM32N6xx_HAL_Driver/Src/stm32n6xx_hal_spi.c ****     (#) APIs provided for these 2 transfer modes (Blocking mode or Non blocking mode using either I
 823:STM32Cube_FW_N6/Drivers/STM32N6xx_HAL_Driver/Src/stm32n6xx_hal_spi.c ****         exist for 1Line (simplex) and 2Lines (full duplex) modes.
 824:STM32Cube_FW_N6/Drivers/STM32N6xx_HAL_Driver/Src/stm32n6xx_hal_spi.c **** 
 825:STM32Cube_FW_N6/Drivers/STM32N6xx_HAL_Driver/Src/stm32n6xx_hal_spi.c **** @endverbatim
 826:STM32Cube_FW_N6/Drivers/STM32N6xx_HAL_Driver/Src/stm32n6xx_hal_spi.c ****   * @{
 827:STM32Cube_FW_N6/Drivers/STM32N6xx_HAL_Driver/Src/stm32n6xx_hal_spi.c ****   */
 828:STM32Cube_FW_N6/Drivers/STM32N6xx_HAL_Driver/Src/stm32n6xx_hal_spi.c **** 
 829:STM32Cube_FW_N6/Drivers/STM32N6xx_HAL_Driver/Src/stm32n6xx_hal_spi.c **** /**
 830:STM32Cube_FW_N6/Drivers/STM32N6xx_HAL_Driver/Src/stm32n6xx_hal_spi.c ****   * @brief  Transmit an amount of data in blocking mode.
 831:STM32Cube_FW_N6/Drivers/STM32N6xx_HAL_Driver/Src/stm32n6xx_hal_spi.c ****   * @param  hspi   : pointer to a SPI_HandleTypeDef structure that contains
 832:STM32Cube_FW_N6/Drivers/STM32N6xx_HAL_Driver/Src/stm32n6xx_hal_spi.c ****   *                  the configuration information for SPI module.
 833:STM32Cube_FW_N6/Drivers/STM32N6xx_HAL_Driver/Src/stm32n6xx_hal_spi.c ****   * @param  pData  : pointer to data buffer
ARM GAS  /tmp/ccwTXtVb.s 			page 49


 834:STM32Cube_FW_N6/Drivers/STM32N6xx_HAL_Driver/Src/stm32n6xx_hal_spi.c ****   * @param  Size   : amount of data to be sent
 835:STM32Cube_FW_N6/Drivers/STM32N6xx_HAL_Driver/Src/stm32n6xx_hal_spi.c ****   * @param  Timeout: Timeout duration
 836:STM32Cube_FW_N6/Drivers/STM32N6xx_HAL_Driver/Src/stm32n6xx_hal_spi.c ****   * @retval HAL status
 837:STM32Cube_FW_N6/Drivers/STM32N6xx_HAL_Driver/Src/stm32n6xx_hal_spi.c ****   */
 838:STM32Cube_FW_N6/Drivers/STM32N6xx_HAL_Driver/Src/stm32n6xx_hal_spi.c **** HAL_StatusTypeDef HAL_SPI_Transmit(SPI_HandleTypeDef *hspi, const uint8_t *pData, uint16_t Size, ui
 839:STM32Cube_FW_N6/Drivers/STM32N6xx_HAL_Driver/Src/stm32n6xx_hal_spi.c **** {
 1900              		.loc 1 839 1
 1901              		.cfi_startproc
 1902              		@ args = 0, pretend = 0, frame = 24
 1903              		@ frame_needed = 1, uses_anonymous_args = 0
 1904 0000 80B5     		push	{r7, lr}
 1905              		.cfi_def_cfa_offset 8
 1906              		.cfi_offset 7, -8
 1907              		.cfi_offset 14, -4
 1908 0002 88B0     		sub	sp, sp, #32
 1909              		.cfi_def_cfa_offset 40
 1910 0004 02AF     		add	r7, sp, #8
 1911              		.cfi_def_cfa 7, 32
 1912 0006 F860     		str	r0, [r7, #12]
 1913 0008 B960     		str	r1, [r7, #8]
 1914 000a 3B60     		str	r3, [r7]
 1915 000c 1346     		mov	r3, r2	@ movhi
 1916 000e FB80     		strh	r3, [r7, #6]	@ movhi
 840:STM32Cube_FW_N6/Drivers/STM32N6xx_HAL_Driver/Src/stm32n6xx_hal_spi.c **** #if defined (__GNUC__)
 841:STM32Cube_FW_N6/Drivers/STM32N6xx_HAL_Driver/Src/stm32n6xx_hal_spi.c ****   __IO uint16_t *ptxdr_16bits = (__IO uint16_t *)(&(hspi->Instance->TXDR));
 1917              		.loc 1 841 57
 1918 0010 FB68     		ldr	r3, [r7, #12]
 1919 0012 1B68     		ldr	r3, [r3]
 1920              		.loc 1 841 18
 1921 0014 2033     		adds	r3, r3, #32
 1922 0016 7B61     		str	r3, [r7, #20]
 842:STM32Cube_FW_N6/Drivers/STM32N6xx_HAL_Driver/Src/stm32n6xx_hal_spi.c **** #endif /* __GNUC__ */
 843:STM32Cube_FW_N6/Drivers/STM32N6xx_HAL_Driver/Src/stm32n6xx_hal_spi.c **** 
 844:STM32Cube_FW_N6/Drivers/STM32N6xx_HAL_Driver/Src/stm32n6xx_hal_spi.c ****   uint32_t tickstart;
 845:STM32Cube_FW_N6/Drivers/STM32N6xx_HAL_Driver/Src/stm32n6xx_hal_spi.c **** 
 846:STM32Cube_FW_N6/Drivers/STM32N6xx_HAL_Driver/Src/stm32n6xx_hal_spi.c ****   /* Check Direction parameter */
 847:STM32Cube_FW_N6/Drivers/STM32N6xx_HAL_Driver/Src/stm32n6xx_hal_spi.c ****   assert_param(IS_SPI_DIRECTION_2LINES_OR_1LINE_2LINES_TXONLY(hspi->Init.Direction));
 1923              		.loc 1 847 3
 1924 0018 FB68     		ldr	r3, [r7, #12]
 1925 001a 9B68     		ldr	r3, [r3, #8]
 1926 001c 002B     		cmp	r3, #0
 1927 001e 0ED0     		beq	.L80
 1928              		.loc 1 847 3 is_stmt 0 discriminator 1
 1929 0020 FB68     		ldr	r3, [r7, #12]
 1930 0022 9B68     		ldr	r3, [r3, #8]
 1931 0024 B3F5C02F 		cmp	r3, #393216
 1932 0028 09D0     		beq	.L80
 1933              		.loc 1 847 3 discriminator 2
 1934 002a FB68     		ldr	r3, [r7, #12]
 1935 002c 9B68     		ldr	r3, [r3, #8]
 1936 002e B3F5003F 		cmp	r3, #131072
 1937 0032 04D0     		beq	.L80
 1938              		.loc 1 847 3 discriminator 3
 1939 0034 40F24F31 		movw	r1, #847
 1940 0038 8D48     		ldr	r0, .L118
 1941 003a FFF7FEFF 		bl	assert_failed
 1942              	.L80:
ARM GAS  /tmp/ccwTXtVb.s 			page 50


 848:STM32Cube_FW_N6/Drivers/STM32N6xx_HAL_Driver/Src/stm32n6xx_hal_spi.c **** 
 849:STM32Cube_FW_N6/Drivers/STM32N6xx_HAL_Driver/Src/stm32n6xx_hal_spi.c ****   /* Init tickstart for timeout management*/
 850:STM32Cube_FW_N6/Drivers/STM32N6xx_HAL_Driver/Src/stm32n6xx_hal_spi.c ****   tickstart = HAL_GetTick();
 1943              		.loc 1 850 15 is_stmt 1
 1944 003e FFF7FEFF 		bl	HAL_GetTick
 1945 0042 3861     		str	r0, [r7, #16]
 851:STM32Cube_FW_N6/Drivers/STM32N6xx_HAL_Driver/Src/stm32n6xx_hal_spi.c **** 
 852:STM32Cube_FW_N6/Drivers/STM32N6xx_HAL_Driver/Src/stm32n6xx_hal_spi.c ****   if (hspi->State != HAL_SPI_STATE_READY)
 1946              		.loc 1 852 11
 1947 0044 FB68     		ldr	r3, [r7, #12]
 1948 0046 93F88930 		ldrb	r3, [r3, #137]
 1949 004a DBB2     		uxtb	r3, r3
 1950              		.loc 1 852 6
 1951 004c 012B     		cmp	r3, #1
 1952 004e 01D0     		beq	.L81
 853:STM32Cube_FW_N6/Drivers/STM32N6xx_HAL_Driver/Src/stm32n6xx_hal_spi.c ****   {
 854:STM32Cube_FW_N6/Drivers/STM32N6xx_HAL_Driver/Src/stm32n6xx_hal_spi.c ****     return HAL_BUSY;
 1953              		.loc 1 854 12
 1954 0050 0223     		movs	r3, #2
 1955 0052 09E2     		b	.L82
 1956              	.L81:
 855:STM32Cube_FW_N6/Drivers/STM32N6xx_HAL_Driver/Src/stm32n6xx_hal_spi.c ****   }
 856:STM32Cube_FW_N6/Drivers/STM32N6xx_HAL_Driver/Src/stm32n6xx_hal_spi.c **** 
 857:STM32Cube_FW_N6/Drivers/STM32N6xx_HAL_Driver/Src/stm32n6xx_hal_spi.c ****   if ((pData == NULL) || (Size == 0UL))
 1957              		.loc 1 857 6
 1958 0054 BB68     		ldr	r3, [r7, #8]
 1959 0056 002B     		cmp	r3, #0
 1960 0058 02D0     		beq	.L83
 1961              		.loc 1 857 23 discriminator 1
 1962 005a FB88     		ldrh	r3, [r7, #6]
 1963 005c 002B     		cmp	r3, #0
 1964 005e 01D1     		bne	.L84
 1965              	.L83:
 858:STM32Cube_FW_N6/Drivers/STM32N6xx_HAL_Driver/Src/stm32n6xx_hal_spi.c ****   {
 859:STM32Cube_FW_N6/Drivers/STM32N6xx_HAL_Driver/Src/stm32n6xx_hal_spi.c ****     return HAL_ERROR;
 1966              		.loc 1 859 12
 1967 0060 0123     		movs	r3, #1
 1968 0062 01E2     		b	.L82
 1969              	.L84:
 860:STM32Cube_FW_N6/Drivers/STM32N6xx_HAL_Driver/Src/stm32n6xx_hal_spi.c ****   }
 861:STM32Cube_FW_N6/Drivers/STM32N6xx_HAL_Driver/Src/stm32n6xx_hal_spi.c **** 
 862:STM32Cube_FW_N6/Drivers/STM32N6xx_HAL_Driver/Src/stm32n6xx_hal_spi.c ****   /* Lock the process */
 863:STM32Cube_FW_N6/Drivers/STM32N6xx_HAL_Driver/Src/stm32n6xx_hal_spi.c ****   __HAL_LOCK(hspi);
 1970              		.loc 1 863 3
 1971 0064 FB68     		ldr	r3, [r7, #12]
 1972 0066 93F88830 		ldrb	r3, [r3, #136]	@ zero_extendqisi2
 1973 006a 012B     		cmp	r3, #1
 1974 006c 01D1     		bne	.L85
 1975              		.loc 1 863 3 is_stmt 0 discriminator 1
 1976 006e 0223     		movs	r3, #2
 1977              		.loc 1 863 3
 1978 0070 FAE1     		b	.L82
 1979              	.L85:
 1980              		.loc 1 863 3 discriminator 2
 1981 0072 FB68     		ldr	r3, [r7, #12]
 1982 0074 0122     		movs	r2, #1
 1983 0076 83F88820 		strb	r2, [r3, #136]
ARM GAS  /tmp/ccwTXtVb.s 			page 51


 864:STM32Cube_FW_N6/Drivers/STM32N6xx_HAL_Driver/Src/stm32n6xx_hal_spi.c **** 
 865:STM32Cube_FW_N6/Drivers/STM32N6xx_HAL_Driver/Src/stm32n6xx_hal_spi.c ****   /* Set the transaction information */
 866:STM32Cube_FW_N6/Drivers/STM32N6xx_HAL_Driver/Src/stm32n6xx_hal_spi.c ****   hspi->State       = HAL_SPI_STATE_BUSY_TX;
 1984              		.loc 1 866 21 is_stmt 1
 1985 007a FB68     		ldr	r3, [r7, #12]
 1986 007c 0322     		movs	r2, #3
 1987 007e 83F88920 		strb	r2, [r3, #137]
 867:STM32Cube_FW_N6/Drivers/STM32N6xx_HAL_Driver/Src/stm32n6xx_hal_spi.c ****   hspi->ErrorCode   = HAL_SPI_ERROR_NONE;
 1988              		.loc 1 867 21
 1989 0082 FB68     		ldr	r3, [r7, #12]
 1990 0084 0022     		movs	r2, #0
 1991 0086 C3F88C20 		str	r2, [r3, #140]
 868:STM32Cube_FW_N6/Drivers/STM32N6xx_HAL_Driver/Src/stm32n6xx_hal_spi.c ****   hspi->pTxBuffPtr  = (const uint8_t *)pData;
 1992              		.loc 1 868 21
 1993 008a FB68     		ldr	r3, [r7, #12]
 1994 008c BA68     		ldr	r2, [r7, #8]
 1995 008e 5A66     		str	r2, [r3, #100]
 869:STM32Cube_FW_N6/Drivers/STM32N6xx_HAL_Driver/Src/stm32n6xx_hal_spi.c ****   hspi->TxXferSize  = Size;
 1996              		.loc 1 869 21
 1997 0090 FB68     		ldr	r3, [r7, #12]
 1998 0092 FA88     		ldrh	r2, [r7, #6]	@ movhi
 1999 0094 A3F86820 		strh	r2, [r3, #104]	@ movhi
 870:STM32Cube_FW_N6/Drivers/STM32N6xx_HAL_Driver/Src/stm32n6xx_hal_spi.c ****   hspi->TxXferCount = Size;
 2000              		.loc 1 870 21
 2001 0098 FB68     		ldr	r3, [r7, #12]
 2002 009a FA88     		ldrh	r2, [r7, #6]	@ movhi
 2003 009c A3F86A20 		strh	r2, [r3, #106]	@ movhi
 871:STM32Cube_FW_N6/Drivers/STM32N6xx_HAL_Driver/Src/stm32n6xx_hal_spi.c **** 
 872:STM32Cube_FW_N6/Drivers/STM32N6xx_HAL_Driver/Src/stm32n6xx_hal_spi.c ****   /*Init field not used in handle to zero */
 873:STM32Cube_FW_N6/Drivers/STM32N6xx_HAL_Driver/Src/stm32n6xx_hal_spi.c ****   hspi->pRxBuffPtr  = NULL;
 2004              		.loc 1 873 21
 2005 00a0 FB68     		ldr	r3, [r7, #12]
 2006 00a2 0022     		movs	r2, #0
 2007 00a4 DA66     		str	r2, [r3, #108]
 874:STM32Cube_FW_N6/Drivers/STM32N6xx_HAL_Driver/Src/stm32n6xx_hal_spi.c ****   hspi->RxXferSize  = (uint16_t) 0UL;
 2008              		.loc 1 874 21
 2009 00a6 FB68     		ldr	r3, [r7, #12]
 2010 00a8 0022     		movs	r2, #0
 2011 00aa A3F87020 		strh	r2, [r3, #112]	@ movhi
 875:STM32Cube_FW_N6/Drivers/STM32N6xx_HAL_Driver/Src/stm32n6xx_hal_spi.c ****   hspi->RxXferCount = (uint16_t) 0UL;
 2012              		.loc 1 875 21
 2013 00ae FB68     		ldr	r3, [r7, #12]
 2014 00b0 0022     		movs	r2, #0
 2015 00b2 A3F87220 		strh	r2, [r3, #114]	@ movhi
 876:STM32Cube_FW_N6/Drivers/STM32N6xx_HAL_Driver/Src/stm32n6xx_hal_spi.c ****   hspi->TxISR       = NULL;
 2016              		.loc 1 876 21
 2017 00b6 FB68     		ldr	r3, [r7, #12]
 2018 00b8 0022     		movs	r2, #0
 2019 00ba DA67     		str	r2, [r3, #124]
 877:STM32Cube_FW_N6/Drivers/STM32N6xx_HAL_Driver/Src/stm32n6xx_hal_spi.c ****   hspi->RxISR       = NULL;
 2020              		.loc 1 877 21
 2021 00bc FB68     		ldr	r3, [r7, #12]
 2022 00be 0022     		movs	r2, #0
 2023 00c0 9A67     		str	r2, [r3, #120]
 878:STM32Cube_FW_N6/Drivers/STM32N6xx_HAL_Driver/Src/stm32n6xx_hal_spi.c **** 
 879:STM32Cube_FW_N6/Drivers/STM32N6xx_HAL_Driver/Src/stm32n6xx_hal_spi.c ****   /* Configure communication direction : 1Line */
 880:STM32Cube_FW_N6/Drivers/STM32N6xx_HAL_Driver/Src/stm32n6xx_hal_spi.c ****   if (hspi->Init.Direction == SPI_DIRECTION_1LINE)
ARM GAS  /tmp/ccwTXtVb.s 			page 52


 2024              		.loc 1 880 17
 2025 00c2 FB68     		ldr	r3, [r7, #12]
 2026 00c4 9B68     		ldr	r3, [r3, #8]
 2027              		.loc 1 880 6
 2028 00c6 B3F5C02F 		cmp	r3, #393216
 2029 00ca 08D1     		bne	.L86
 881:STM32Cube_FW_N6/Drivers/STM32N6xx_HAL_Driver/Src/stm32n6xx_hal_spi.c ****   {
 882:STM32Cube_FW_N6/Drivers/STM32N6xx_HAL_Driver/Src/stm32n6xx_hal_spi.c ****     SPI_1LINE_TX(hspi);
 2030              		.loc 1 882 5
 2031 00cc FB68     		ldr	r3, [r7, #12]
 2032 00ce 1B68     		ldr	r3, [r3]
 2033 00d0 1A68     		ldr	r2, [r3]
 2034 00d2 FB68     		ldr	r3, [r7, #12]
 2035 00d4 1B68     		ldr	r3, [r3]
 2036 00d6 42F40062 		orr	r2, r2, #2048
 2037 00da 1A60     		str	r2, [r3]
 2038 00dc 09E0     		b	.L87
 2039              	.L86:
 883:STM32Cube_FW_N6/Drivers/STM32N6xx_HAL_Driver/Src/stm32n6xx_hal_spi.c ****   }
 884:STM32Cube_FW_N6/Drivers/STM32N6xx_HAL_Driver/Src/stm32n6xx_hal_spi.c ****   else
 885:STM32Cube_FW_N6/Drivers/STM32N6xx_HAL_Driver/Src/stm32n6xx_hal_spi.c ****   {
 886:STM32Cube_FW_N6/Drivers/STM32N6xx_HAL_Driver/Src/stm32n6xx_hal_spi.c ****     SPI_2LINES_TX(hspi);
 2040              		.loc 1 886 5
 2041 00de FB68     		ldr	r3, [r7, #12]
 2042 00e0 1B68     		ldr	r3, [r3]
 2043 00e2 DB68     		ldr	r3, [r3, #12]
 2044 00e4 23F4C022 		bic	r2, r3, #393216
 2045 00e8 FB68     		ldr	r3, [r7, #12]
 2046 00ea 1B68     		ldr	r3, [r3]
 2047 00ec 42F40032 		orr	r2, r2, #131072
 2048 00f0 DA60     		str	r2, [r3, #12]
 2049              	.L87:
 887:STM32Cube_FW_N6/Drivers/STM32N6xx_HAL_Driver/Src/stm32n6xx_hal_spi.c ****   }
 888:STM32Cube_FW_N6/Drivers/STM32N6xx_HAL_Driver/Src/stm32n6xx_hal_spi.c **** 
 889:STM32Cube_FW_N6/Drivers/STM32N6xx_HAL_Driver/Src/stm32n6xx_hal_spi.c ****   /* Set the number of data at current transfer */
 890:STM32Cube_FW_N6/Drivers/STM32N6xx_HAL_Driver/Src/stm32n6xx_hal_spi.c ****   MODIFY_REG(hspi->Instance->CR2, SPI_CR2_TSIZE, Size);
 2050              		.loc 1 890 3
 2051 00f2 FB68     		ldr	r3, [r7, #12]
 2052 00f4 1B68     		ldr	r3, [r3]
 2053 00f6 5B68     		ldr	r3, [r3, #4]
 2054 00f8 1B0C     		lsrs	r3, r3, #16
 2055 00fa 1B04     		lsls	r3, r3, #16
 2056 00fc F988     		ldrh	r1, [r7, #6]
 2057 00fe FA68     		ldr	r2, [r7, #12]
 2058 0100 1268     		ldr	r2, [r2]
 2059 0102 0B43     		orrs	r3, r3, r1
 2060 0104 5360     		str	r3, [r2, #4]
 891:STM32Cube_FW_N6/Drivers/STM32N6xx_HAL_Driver/Src/stm32n6xx_hal_spi.c **** 
 892:STM32Cube_FW_N6/Drivers/STM32N6xx_HAL_Driver/Src/stm32n6xx_hal_spi.c ****   /* Enable SPI peripheral */
 893:STM32Cube_FW_N6/Drivers/STM32N6xx_HAL_Driver/Src/stm32n6xx_hal_spi.c ****   __HAL_SPI_ENABLE(hspi);
 2061              		.loc 1 893 3
 2062 0106 FB68     		ldr	r3, [r7, #12]
 2063 0108 1B68     		ldr	r3, [r3]
 2064 010a 1A68     		ldr	r2, [r3]
 2065 010c FB68     		ldr	r3, [r7, #12]
 2066 010e 1B68     		ldr	r3, [r3]
 2067 0110 42F00102 		orr	r2, r2, #1
ARM GAS  /tmp/ccwTXtVb.s 			page 53


 2068 0114 1A60     		str	r2, [r3]
 894:STM32Cube_FW_N6/Drivers/STM32N6xx_HAL_Driver/Src/stm32n6xx_hal_spi.c **** 
 895:STM32Cube_FW_N6/Drivers/STM32N6xx_HAL_Driver/Src/stm32n6xx_hal_spi.c ****   if (hspi->Init.Mode == SPI_MODE_MASTER)
 2069              		.loc 1 895 17
 2070 0116 FB68     		ldr	r3, [r7, #12]
 2071 0118 5B68     		ldr	r3, [r3, #4]
 2072              		.loc 1 895 6
 2073 011a B3F5800F 		cmp	r3, #4194304
 2074 011e 07D1     		bne	.L88
 896:STM32Cube_FW_N6/Drivers/STM32N6xx_HAL_Driver/Src/stm32n6xx_hal_spi.c ****   {
 897:STM32Cube_FW_N6/Drivers/STM32N6xx_HAL_Driver/Src/stm32n6xx_hal_spi.c ****     /* Master transfer start */
 898:STM32Cube_FW_N6/Drivers/STM32N6xx_HAL_Driver/Src/stm32n6xx_hal_spi.c ****     SET_BIT(hspi->Instance->CR1, SPI_CR1_CSTART);
 2075              		.loc 1 898 5
 2076 0120 FB68     		ldr	r3, [r7, #12]
 2077 0122 1B68     		ldr	r3, [r3]
 2078 0124 1A68     		ldr	r2, [r3]
 2079 0126 FB68     		ldr	r3, [r7, #12]
 2080 0128 1B68     		ldr	r3, [r3]
 2081 012a 42F40072 		orr	r2, r2, #512
 2082 012e 1A60     		str	r2, [r3]
 2083              	.L88:
 899:STM32Cube_FW_N6/Drivers/STM32N6xx_HAL_Driver/Src/stm32n6xx_hal_spi.c ****   }
 900:STM32Cube_FW_N6/Drivers/STM32N6xx_HAL_Driver/Src/stm32n6xx_hal_spi.c **** 
 901:STM32Cube_FW_N6/Drivers/STM32N6xx_HAL_Driver/Src/stm32n6xx_hal_spi.c ****   /* Transmit data in 32 Bit mode */
 902:STM32Cube_FW_N6/Drivers/STM32N6xx_HAL_Driver/Src/stm32n6xx_hal_spi.c ****   if ((hspi->Init.DataSize > SPI_DATASIZE_16BIT) && (IS_SPI_FULL_INSTANCE(hspi->Instance)))
 2084              		.loc 1 902 18
 2085 0130 FB68     		ldr	r3, [r7, #12]
 2086 0132 DB68     		ldr	r3, [r3, #12]
 2087              		.loc 1 902 6
 2088 0134 0F2B     		cmp	r3, #15
 2089 0136 6FD9     		bls	.L89
 2090              		.loc 1 902 54 discriminator 1
 2091 0138 FB68     		ldr	r3, [r7, #12]
 2092 013a 1B68     		ldr	r3, [r3]
 2093              		.loc 1 902 50 discriminator 1
 2094 013c 4D4A     		ldr	r2, .L118+4
 2095 013e 9342     		cmp	r3, r2
 2096 0140 63D0     		beq	.L91
 2097              		.loc 1 902 54 discriminator 2
 2098 0142 FB68     		ldr	r3, [r7, #12]
 2099 0144 1B68     		ldr	r3, [r3]
 2100 0146 4C4A     		ldr	r2, .L118+8
 2101 0148 9342     		cmp	r3, r2
 2102 014a 5ED0     		beq	.L91
 2103              		.loc 1 902 54 is_stmt 0 discriminator 3
 2104 014c FB68     		ldr	r3, [r7, #12]
 2105 014e 1B68     		ldr	r3, [r3]
 2106 0150 4A4A     		ldr	r2, .L118+12
 2107 0152 9342     		cmp	r3, r2
 2108 0154 59D0     		beq	.L91
 2109              		.loc 1 902 54 discriminator 4
 2110 0156 FB68     		ldr	r3, [r7, #12]
 2111 0158 1B68     		ldr	r3, [r3]
 2112 015a 494A     		ldr	r2, .L118+16
 2113 015c 9342     		cmp	r3, r2
 2114 015e 54D0     		beq	.L91
 2115              		.loc 1 902 54 discriminator 5
ARM GAS  /tmp/ccwTXtVb.s 			page 54


 2116 0160 FB68     		ldr	r3, [r7, #12]
 2117 0162 1B68     		ldr	r3, [r3]
 2118 0164 474A     		ldr	r2, .L118+20
 2119 0166 9342     		cmp	r3, r2
 2120 0168 4FD0     		beq	.L91
 2121              		.loc 1 902 54 discriminator 6
 2122 016a FB68     		ldr	r3, [r7, #12]
 2123 016c 1B68     		ldr	r3, [r3]
 2124 016e 464A     		ldr	r2, .L118+24
 2125 0170 9342     		cmp	r3, r2
 2126 0172 4AD0     		beq	.L91
 2127              		.loc 1 902 54 discriminator 7
 2128 0174 FB68     		ldr	r3, [r7, #12]
 2129 0176 1B68     		ldr	r3, [r3]
 2130 0178 444A     		ldr	r2, .L118+28
 2131 017a 9342     		cmp	r3, r2
 2132 017c 45D0     		beq	.L91
 2133              		.loc 1 902 54 discriminator 8
 2134 017e FB68     		ldr	r3, [r7, #12]
 2135 0180 1B68     		ldr	r3, [r3]
 2136 0182 434A     		ldr	r2, .L118+32
 2137 0184 9342     		cmp	r3, r2
 2138 0186 47D1     		bne	.L89
 903:STM32Cube_FW_N6/Drivers/STM32N6xx_HAL_Driver/Src/stm32n6xx_hal_spi.c ****   {
 904:STM32Cube_FW_N6/Drivers/STM32N6xx_HAL_Driver/Src/stm32n6xx_hal_spi.c ****     /* Transmit data in 32 Bit mode */
 905:STM32Cube_FW_N6/Drivers/STM32N6xx_HAL_Driver/Src/stm32n6xx_hal_spi.c ****     while (hspi->TxXferCount > 0UL)
 2139              		.loc 1 905 11 is_stmt 1
 2140 0188 3FE0     		b	.L91
 2141              	.L96:
 906:STM32Cube_FW_N6/Drivers/STM32N6xx_HAL_Driver/Src/stm32n6xx_hal_spi.c ****     {
 907:STM32Cube_FW_N6/Drivers/STM32N6xx_HAL_Driver/Src/stm32n6xx_hal_spi.c ****       /* Wait until TXP flag is set to send data */
 908:STM32Cube_FW_N6/Drivers/STM32N6xx_HAL_Driver/Src/stm32n6xx_hal_spi.c ****       if (__HAL_SPI_GET_FLAG(hspi, SPI_FLAG_TXP))
 2142              		.loc 1 908 11
 2143 018a FB68     		ldr	r3, [r7, #12]
 2144 018c 1B68     		ldr	r3, [r3]
 2145 018e 5B69     		ldr	r3, [r3, #20]
 2146 0190 03F00203 		and	r3, r3, #2
 2147              		.loc 1 908 10
 2148 0194 022B     		cmp	r3, #2
 2149 0196 14D1     		bne	.L92
 909:STM32Cube_FW_N6/Drivers/STM32N6xx_HAL_Driver/Src/stm32n6xx_hal_spi.c ****       {
 910:STM32Cube_FW_N6/Drivers/STM32N6xx_HAL_Driver/Src/stm32n6xx_hal_spi.c ****         *((__IO uint32_t *)&hspi->Instance->TXDR) = *((const uint32_t *)hspi->pTxBuffPtr);
 2150              		.loc 1 910 77
 2151 0198 FB68     		ldr	r3, [r7, #12]
 2152 019a 5A6E     		ldr	r2, [r3, #100]
 2153              		.loc 1 910 33
 2154 019c FB68     		ldr	r3, [r7, #12]
 2155 019e 1B68     		ldr	r3, [r3]
 2156              		.loc 1 910 53
 2157 01a0 1268     		ldr	r2, [r2]
 2158              		.loc 1 910 51
 2159 01a2 1A62     		str	r2, [r3, #32]
 911:STM32Cube_FW_N6/Drivers/STM32N6xx_HAL_Driver/Src/stm32n6xx_hal_spi.c ****         hspi->pTxBuffPtr += sizeof(uint32_t);
 2160              		.loc 1 911 13
 2161 01a4 FB68     		ldr	r3, [r7, #12]
 2162 01a6 5B6E     		ldr	r3, [r3, #100]
 2163              		.loc 1 911 26
ARM GAS  /tmp/ccwTXtVb.s 			page 55


 2164 01a8 1A1D     		adds	r2, r3, #4
 2165 01aa FB68     		ldr	r3, [r7, #12]
 2166 01ac 5A66     		str	r2, [r3, #100]
 912:STM32Cube_FW_N6/Drivers/STM32N6xx_HAL_Driver/Src/stm32n6xx_hal_spi.c ****         hspi->TxXferCount--;
 2167              		.loc 1 912 13
 2168 01ae FB68     		ldr	r3, [r7, #12]
 2169 01b0 B3F86A30 		ldrh	r3, [r3, #106]	@ movhi
 2170 01b4 9BB2     		uxth	r3, r3
 2171              		.loc 1 912 26
 2172 01b6 013B     		subs	r3, r3, #1
 2173 01b8 9AB2     		uxth	r2, r3
 2174 01ba FB68     		ldr	r3, [r7, #12]
 2175 01bc A3F86A20 		strh	r2, [r3, #106]	@ movhi
 2176 01c0 23E0     		b	.L91
 2177              	.L92:
 913:STM32Cube_FW_N6/Drivers/STM32N6xx_HAL_Driver/Src/stm32n6xx_hal_spi.c ****       }
 914:STM32Cube_FW_N6/Drivers/STM32N6xx_HAL_Driver/Src/stm32n6xx_hal_spi.c ****       else
 915:STM32Cube_FW_N6/Drivers/STM32N6xx_HAL_Driver/Src/stm32n6xx_hal_spi.c ****       {
 916:STM32Cube_FW_N6/Drivers/STM32N6xx_HAL_Driver/Src/stm32n6xx_hal_spi.c ****         /* Timeout management */
 917:STM32Cube_FW_N6/Drivers/STM32N6xx_HAL_Driver/Src/stm32n6xx_hal_spi.c ****         if ((((HAL_GetTick() - tickstart) >=  Timeout) && (Timeout != HAL_MAX_DELAY)) || (Timeout =
 2178              		.loc 1 917 16
 2179 01c2 FFF7FEFF 		bl	HAL_GetTick
 2180 01c6 0246     		mov	r2, r0
 2181              		.loc 1 917 30 discriminator 1
 2182 01c8 3B69     		ldr	r3, [r7, #16]
 2183 01ca D31A     		subs	r3, r2, r3
 2184              		.loc 1 917 12 discriminator 1
 2185 01cc 3A68     		ldr	r2, [r7]
 2186 01ce 9A42     		cmp	r2, r3
 2187 01d0 03D8     		bhi	.L94
 2188              		.loc 1 917 56 discriminator 1
 2189 01d2 3B68     		ldr	r3, [r7]
 2190 01d4 B3F1FF3F 		cmp	r3, #-1
 2191 01d8 02D1     		bne	.L95
 2192              	.L94:
 2193              		.loc 1 917 87 discriminator 3
 2194 01da 3B68     		ldr	r3, [r7]
 2195 01dc 002B     		cmp	r3, #0
 2196 01de 14D1     		bne	.L91
 2197              	.L95:
 918:STM32Cube_FW_N6/Drivers/STM32N6xx_HAL_Driver/Src/stm32n6xx_hal_spi.c ****         {
 919:STM32Cube_FW_N6/Drivers/STM32N6xx_HAL_Driver/Src/stm32n6xx_hal_spi.c ****           /* Call standard close procedure with error check */
 920:STM32Cube_FW_N6/Drivers/STM32N6xx_HAL_Driver/Src/stm32n6xx_hal_spi.c ****           SPI_CloseTransfer(hspi);
 2198              		.loc 1 920 11
 2199 01e0 F868     		ldr	r0, [r7, #12]
 2200 01e2 FFF7FEFF 		bl	SPI_CloseTransfer
 921:STM32Cube_FW_N6/Drivers/STM32N6xx_HAL_Driver/Src/stm32n6xx_hal_spi.c **** 
 922:STM32Cube_FW_N6/Drivers/STM32N6xx_HAL_Driver/Src/stm32n6xx_hal_spi.c ****           SET_BIT(hspi->ErrorCode, HAL_SPI_ERROR_TIMEOUT);
 2201              		.loc 1 922 11
 2202 01e6 FB68     		ldr	r3, [r7, #12]
 2203 01e8 D3F88C30 		ldr	r3, [r3, #140]
 2204 01ec 43F48072 		orr	r2, r3, #256
 2205 01f0 FB68     		ldr	r3, [r7, #12]
 2206 01f2 C3F88C20 		str	r2, [r3, #140]
 923:STM32Cube_FW_N6/Drivers/STM32N6xx_HAL_Driver/Src/stm32n6xx_hal_spi.c ****           hspi->State = HAL_SPI_STATE_READY;
 2207              		.loc 1 923 23
 2208 01f6 FB68     		ldr	r3, [r7, #12]
ARM GAS  /tmp/ccwTXtVb.s 			page 56


 2209 01f8 0122     		movs	r2, #1
 2210 01fa 83F88920 		strb	r2, [r3, #137]
 924:STM32Cube_FW_N6/Drivers/STM32N6xx_HAL_Driver/Src/stm32n6xx_hal_spi.c **** 
 925:STM32Cube_FW_N6/Drivers/STM32N6xx_HAL_Driver/Src/stm32n6xx_hal_spi.c ****           /* Unlock the process */
 926:STM32Cube_FW_N6/Drivers/STM32N6xx_HAL_Driver/Src/stm32n6xx_hal_spi.c ****           __HAL_UNLOCK(hspi);
 2211              		.loc 1 926 11
 2212 01fe FB68     		ldr	r3, [r7, #12]
 2213 0200 0022     		movs	r2, #0
 2214 0202 83F88820 		strb	r2, [r3, #136]
 927:STM32Cube_FW_N6/Drivers/STM32N6xx_HAL_Driver/Src/stm32n6xx_hal_spi.c **** 
 928:STM32Cube_FW_N6/Drivers/STM32N6xx_HAL_Driver/Src/stm32n6xx_hal_spi.c ****           return HAL_TIMEOUT;
 2215              		.loc 1 928 18
 2216 0206 0323     		movs	r3, #3
 2217 0208 2EE1     		b	.L82
 2218              	.L91:
 905:STM32Cube_FW_N6/Drivers/STM32N6xx_HAL_Driver/Src/stm32n6xx_hal_spi.c ****     {
 2219              		.loc 1 905 16
 2220 020a FB68     		ldr	r3, [r7, #12]
 2221 020c B3F86A30 		ldrh	r3, [r3, #106]	@ movhi
 2222 0210 9BB2     		uxth	r3, r3
 905:STM32Cube_FW_N6/Drivers/STM32N6xx_HAL_Driver/Src/stm32n6xx_hal_spi.c ****     {
 2223              		.loc 1 905 30
 2224 0212 002B     		cmp	r3, #0
 2225 0214 B9D1     		bne	.L96
 902:STM32Cube_FW_N6/Drivers/STM32N6xx_HAL_Driver/Src/stm32n6xx_hal_spi.c ****   {
 2226              		.loc 1 902 6
 2227 0216 01E1     		b	.L97
 2228              	.L89:
 929:STM32Cube_FW_N6/Drivers/STM32N6xx_HAL_Driver/Src/stm32n6xx_hal_spi.c ****         }
 930:STM32Cube_FW_N6/Drivers/STM32N6xx_HAL_Driver/Src/stm32n6xx_hal_spi.c ****       }
 931:STM32Cube_FW_N6/Drivers/STM32N6xx_HAL_Driver/Src/stm32n6xx_hal_spi.c ****     }
 932:STM32Cube_FW_N6/Drivers/STM32N6xx_HAL_Driver/Src/stm32n6xx_hal_spi.c ****   }
 933:STM32Cube_FW_N6/Drivers/STM32N6xx_HAL_Driver/Src/stm32n6xx_hal_spi.c ****   /* Transmit data in 16 Bit mode */
 934:STM32Cube_FW_N6/Drivers/STM32N6xx_HAL_Driver/Src/stm32n6xx_hal_spi.c ****   else if (hspi->Init.DataSize > SPI_DATASIZE_8BIT)
 2229              		.loc 1 934 22
 2230 0218 FB68     		ldr	r3, [r7, #12]
 2231 021a DB68     		ldr	r3, [r3, #12]
 2232              		.loc 1 934 11
 2233 021c 072B     		cmp	r3, #7
 2234 021e 40F2F680 		bls	.L107
 935:STM32Cube_FW_N6/Drivers/STM32N6xx_HAL_Driver/Src/stm32n6xx_hal_spi.c ****   {
 936:STM32Cube_FW_N6/Drivers/STM32N6xx_HAL_Driver/Src/stm32n6xx_hal_spi.c ****     /* Transmit data in 16 Bit mode */
 937:STM32Cube_FW_N6/Drivers/STM32N6xx_HAL_Driver/Src/stm32n6xx_hal_spi.c ****     while (hspi->TxXferCount > 0UL)
 2235              		.loc 1 937 11
 2236 0222 6FE0     		b	.L99
 2237              	.L106:
 938:STM32Cube_FW_N6/Drivers/STM32N6xx_HAL_Driver/Src/stm32n6xx_hal_spi.c ****     {
 939:STM32Cube_FW_N6/Drivers/STM32N6xx_HAL_Driver/Src/stm32n6xx_hal_spi.c ****       /* Wait until TXP flag is set to send data */
 940:STM32Cube_FW_N6/Drivers/STM32N6xx_HAL_Driver/Src/stm32n6xx_hal_spi.c ****       if (__HAL_SPI_GET_FLAG(hspi, SPI_FLAG_TXP))
 2238              		.loc 1 940 11
 2239 0224 FB68     		ldr	r3, [r7, #12]
 2240 0226 1B68     		ldr	r3, [r3]
 2241 0228 5B69     		ldr	r3, [r3, #20]
 2242 022a 03F00203 		and	r3, r3, #2
 2243              		.loc 1 940 10
 2244 022e 022B     		cmp	r3, #2
 2245 0230 44D1     		bne	.L100
ARM GAS  /tmp/ccwTXtVb.s 			page 57


 941:STM32Cube_FW_N6/Drivers/STM32N6xx_HAL_Driver/Src/stm32n6xx_hal_spi.c ****       {
 942:STM32Cube_FW_N6/Drivers/STM32N6xx_HAL_Driver/Src/stm32n6xx_hal_spi.c ****         if ((hspi->TxXferCount > 1UL) && (hspi->Init.FifoThreshold > SPI_FIFO_THRESHOLD_01DATA))
 2246              		.loc 1 942 18
 2247 0232 FB68     		ldr	r3, [r7, #12]
 2248 0234 B3F86A30 		ldrh	r3, [r3, #106]	@ movhi
 2249 0238 9BB2     		uxth	r3, r3
 2250              		.loc 1 942 12
 2251 023a 012B     		cmp	r3, #1
 2252 023c 2AD9     		bls	.L101
 2253              		.loc 1 942 53 discriminator 1
 2254 023e FB68     		ldr	r3, [r7, #12]
 2255 0240 DB6B     		ldr	r3, [r3, #60]
 2256              		.loc 1 942 39 discriminator 1
 2257 0242 002B     		cmp	r3, #0
 2258 0244 26D0     		beq	.L101
 943:STM32Cube_FW_N6/Drivers/STM32N6xx_HAL_Driver/Src/stm32n6xx_hal_spi.c ****         {
 944:STM32Cube_FW_N6/Drivers/STM32N6xx_HAL_Driver/Src/stm32n6xx_hal_spi.c ****           *((__IO uint32_t *)&hspi->Instance->TXDR) = *((const uint32_t *)hspi->pTxBuffPtr);
 2259              		.loc 1 944 79
 2260 0246 FB68     		ldr	r3, [r7, #12]
 2261 0248 5A6E     		ldr	r2, [r3, #100]
 2262              		.loc 1 944 35
 2263 024a FB68     		ldr	r3, [r7, #12]
 2264 024c 1B68     		ldr	r3, [r3]
 2265              		.loc 1 944 55
 2266 024e 1268     		ldr	r2, [r2]
 2267              		.loc 1 944 53
 2268 0250 1A62     		str	r2, [r3, #32]
 945:STM32Cube_FW_N6/Drivers/STM32N6xx_HAL_Driver/Src/stm32n6xx_hal_spi.c ****           hspi->pTxBuffPtr += sizeof(uint32_t);
 2269              		.loc 1 945 15
 2270 0252 FB68     		ldr	r3, [r7, #12]
 2271 0254 5B6E     		ldr	r3, [r3, #100]
 2272              		.loc 1 945 28
 2273 0256 1A1D     		adds	r2, r3, #4
 2274 0258 FB68     		ldr	r3, [r7, #12]
 2275 025a 5A66     		str	r2, [r3, #100]
 946:STM32Cube_FW_N6/Drivers/STM32N6xx_HAL_Driver/Src/stm32n6xx_hal_spi.c ****           hspi->TxXferCount -= (uint16_t)2UL;
 2276              		.loc 1 946 15
 2277 025c FB68     		ldr	r3, [r7, #12]
 2278 025e B3F86A30 		ldrh	r3, [r3, #106]	@ movhi
 2279 0262 9BB2     		uxth	r3, r3
 2280              		.loc 1 946 29
 2281 0264 023B     		subs	r3, r3, #2
 2282 0266 9AB2     		uxth	r2, r3
 2283 0268 FB68     		ldr	r3, [r7, #12]
 2284 026a A3F86A20 		strh	r2, [r3, #106]	@ movhi
 2285 026e 49E0     		b	.L99
 2286              	.L119:
 2287              		.align	2
 2288              	.L118:
 2289 0270 00000000 		.word	.LC0
 2290 0274 00300052 		.word	1375744000
 2291 0278 00300042 		.word	1107308544
 2292 027c 00380050 		.word	1342191616
 2293 0280 00380040 		.word	1073756160
 2294 0284 003C0050 		.word	1342192640
 2295 0288 003C0040 		.word	1073757184
 2296 028c 00140056 		.word	1442845696
ARM GAS  /tmp/ccwTXtVb.s 			page 58


 2297 0290 00140046 		.word	1174410240
 2298              	.L101:
 947:STM32Cube_FW_N6/Drivers/STM32N6xx_HAL_Driver/Src/stm32n6xx_hal_spi.c ****         }
 948:STM32Cube_FW_N6/Drivers/STM32N6xx_HAL_Driver/Src/stm32n6xx_hal_spi.c ****         else
 949:STM32Cube_FW_N6/Drivers/STM32N6xx_HAL_Driver/Src/stm32n6xx_hal_spi.c ****         {
 950:STM32Cube_FW_N6/Drivers/STM32N6xx_HAL_Driver/Src/stm32n6xx_hal_spi.c **** #if defined (__GNUC__)
 951:STM32Cube_FW_N6/Drivers/STM32N6xx_HAL_Driver/Src/stm32n6xx_hal_spi.c ****           *ptxdr_16bits = *((const uint16_t *)hspi->pTxBuffPtr);
 2299              		.loc 1 951 51
 2300 0294 FB68     		ldr	r3, [r7, #12]
 2301 0296 5B6E     		ldr	r3, [r3, #100]
 2302              		.loc 1 951 27
 2303 0298 1A88     		ldrh	r2, [r3]
 2304              		.loc 1 951 25
 2305 029a 7B69     		ldr	r3, [r7, #20]
 2306 029c 1A80     		strh	r2, [r3]	@ movhi
 952:STM32Cube_FW_N6/Drivers/STM32N6xx_HAL_Driver/Src/stm32n6xx_hal_spi.c **** #else
 953:STM32Cube_FW_N6/Drivers/STM32N6xx_HAL_Driver/Src/stm32n6xx_hal_spi.c ****           *((__IO uint16_t *)&hspi->Instance->TXDR) = *((const uint16_t *)hspi->pTxBuffPtr);
 954:STM32Cube_FW_N6/Drivers/STM32N6xx_HAL_Driver/Src/stm32n6xx_hal_spi.c **** #endif /* __GNUC__ */
 955:STM32Cube_FW_N6/Drivers/STM32N6xx_HAL_Driver/Src/stm32n6xx_hal_spi.c ****           hspi->pTxBuffPtr += sizeof(uint16_t);
 2307              		.loc 1 955 15
 2308 029e FB68     		ldr	r3, [r7, #12]
 2309 02a0 5B6E     		ldr	r3, [r3, #100]
 2310              		.loc 1 955 28
 2311 02a2 9A1C     		adds	r2, r3, #2
 2312 02a4 FB68     		ldr	r3, [r7, #12]
 2313 02a6 5A66     		str	r2, [r3, #100]
 956:STM32Cube_FW_N6/Drivers/STM32N6xx_HAL_Driver/Src/stm32n6xx_hal_spi.c ****           hspi->TxXferCount--;
 2314              		.loc 1 956 15
 2315 02a8 FB68     		ldr	r3, [r7, #12]
 2316 02aa B3F86A30 		ldrh	r3, [r3, #106]	@ movhi
 2317 02ae 9BB2     		uxth	r3, r3
 2318              		.loc 1 956 28
 2319 02b0 013B     		subs	r3, r3, #1
 2320 02b2 9AB2     		uxth	r2, r3
 2321 02b4 FB68     		ldr	r3, [r7, #12]
 2322 02b6 A3F86A20 		strh	r2, [r3, #106]	@ movhi
 2323 02ba 23E0     		b	.L99
 2324              	.L100:
 957:STM32Cube_FW_N6/Drivers/STM32N6xx_HAL_Driver/Src/stm32n6xx_hal_spi.c ****         }
 958:STM32Cube_FW_N6/Drivers/STM32N6xx_HAL_Driver/Src/stm32n6xx_hal_spi.c ****       }
 959:STM32Cube_FW_N6/Drivers/STM32N6xx_HAL_Driver/Src/stm32n6xx_hal_spi.c ****       else
 960:STM32Cube_FW_N6/Drivers/STM32N6xx_HAL_Driver/Src/stm32n6xx_hal_spi.c ****       {
 961:STM32Cube_FW_N6/Drivers/STM32N6xx_HAL_Driver/Src/stm32n6xx_hal_spi.c ****         /* Timeout management */
 962:STM32Cube_FW_N6/Drivers/STM32N6xx_HAL_Driver/Src/stm32n6xx_hal_spi.c ****         if ((((HAL_GetTick() - tickstart) >=  Timeout) && (Timeout != HAL_MAX_DELAY)) || (Timeout =
 2325              		.loc 1 962 16
 2326 02bc FFF7FEFF 		bl	HAL_GetTick
 2327 02c0 0246     		mov	r2, r0
 2328              		.loc 1 962 30 discriminator 1
 2329 02c2 3B69     		ldr	r3, [r7, #16]
 2330 02c4 D31A     		subs	r3, r2, r3
 2331              		.loc 1 962 12 discriminator 1
 2332 02c6 3A68     		ldr	r2, [r7]
 2333 02c8 9A42     		cmp	r2, r3
 2334 02ca 03D8     		bhi	.L104
 2335              		.loc 1 962 56 discriminator 1
 2336 02cc 3B68     		ldr	r3, [r7]
 2337 02ce B3F1FF3F 		cmp	r3, #-1
ARM GAS  /tmp/ccwTXtVb.s 			page 59


 2338 02d2 02D1     		bne	.L105
 2339              	.L104:
 2340              		.loc 1 962 87 discriminator 3
 2341 02d4 3B68     		ldr	r3, [r7]
 2342 02d6 002B     		cmp	r3, #0
 2343 02d8 14D1     		bne	.L99
 2344              	.L105:
 963:STM32Cube_FW_N6/Drivers/STM32N6xx_HAL_Driver/Src/stm32n6xx_hal_spi.c ****         {
 964:STM32Cube_FW_N6/Drivers/STM32N6xx_HAL_Driver/Src/stm32n6xx_hal_spi.c ****           /* Call standard close procedure with error check */
 965:STM32Cube_FW_N6/Drivers/STM32N6xx_HAL_Driver/Src/stm32n6xx_hal_spi.c ****           SPI_CloseTransfer(hspi);
 2345              		.loc 1 965 11
 2346 02da F868     		ldr	r0, [r7, #12]
 2347 02dc FFF7FEFF 		bl	SPI_CloseTransfer
 966:STM32Cube_FW_N6/Drivers/STM32N6xx_HAL_Driver/Src/stm32n6xx_hal_spi.c **** 
 967:STM32Cube_FW_N6/Drivers/STM32N6xx_HAL_Driver/Src/stm32n6xx_hal_spi.c ****           SET_BIT(hspi->ErrorCode, HAL_SPI_ERROR_TIMEOUT);
 2348              		.loc 1 967 11
 2349 02e0 FB68     		ldr	r3, [r7, #12]
 2350 02e2 D3F88C30 		ldr	r3, [r3, #140]
 2351 02e6 43F48072 		orr	r2, r3, #256
 2352 02ea FB68     		ldr	r3, [r7, #12]
 2353 02ec C3F88C20 		str	r2, [r3, #140]
 968:STM32Cube_FW_N6/Drivers/STM32N6xx_HAL_Driver/Src/stm32n6xx_hal_spi.c ****           hspi->State = HAL_SPI_STATE_READY;
 2354              		.loc 1 968 23
 2355 02f0 FB68     		ldr	r3, [r7, #12]
 2356 02f2 0122     		movs	r2, #1
 2357 02f4 83F88920 		strb	r2, [r3, #137]
 969:STM32Cube_FW_N6/Drivers/STM32N6xx_HAL_Driver/Src/stm32n6xx_hal_spi.c **** 
 970:STM32Cube_FW_N6/Drivers/STM32N6xx_HAL_Driver/Src/stm32n6xx_hal_spi.c ****           /* Unlock the process */
 971:STM32Cube_FW_N6/Drivers/STM32N6xx_HAL_Driver/Src/stm32n6xx_hal_spi.c ****           __HAL_UNLOCK(hspi);
 2358              		.loc 1 971 11
 2359 02f8 FB68     		ldr	r3, [r7, #12]
 2360 02fa 0022     		movs	r2, #0
 2361 02fc 83F88820 		strb	r2, [r3, #136]
 972:STM32Cube_FW_N6/Drivers/STM32N6xx_HAL_Driver/Src/stm32n6xx_hal_spi.c **** 
 973:STM32Cube_FW_N6/Drivers/STM32N6xx_HAL_Driver/Src/stm32n6xx_hal_spi.c ****           return HAL_TIMEOUT;
 2362              		.loc 1 973 18
 2363 0300 0323     		movs	r3, #3
 2364 0302 B1E0     		b	.L82
 2365              	.L99:
 937:STM32Cube_FW_N6/Drivers/STM32N6xx_HAL_Driver/Src/stm32n6xx_hal_spi.c ****     {
 2366              		.loc 1 937 16
 2367 0304 FB68     		ldr	r3, [r7, #12]
 2368 0306 B3F86A30 		ldrh	r3, [r3, #106]	@ movhi
 2369 030a 9BB2     		uxth	r3, r3
 937:STM32Cube_FW_N6/Drivers/STM32N6xx_HAL_Driver/Src/stm32n6xx_hal_spi.c ****     {
 2370              		.loc 1 937 30
 2371 030c 002B     		cmp	r3, #0
 2372 030e 89D1     		bne	.L106
 2373 0310 84E0     		b	.L97
 2374              	.L115:
 974:STM32Cube_FW_N6/Drivers/STM32N6xx_HAL_Driver/Src/stm32n6xx_hal_spi.c ****         }
 975:STM32Cube_FW_N6/Drivers/STM32N6xx_HAL_Driver/Src/stm32n6xx_hal_spi.c ****       }
 976:STM32Cube_FW_N6/Drivers/STM32N6xx_HAL_Driver/Src/stm32n6xx_hal_spi.c ****     }
 977:STM32Cube_FW_N6/Drivers/STM32N6xx_HAL_Driver/Src/stm32n6xx_hal_spi.c ****   }
 978:STM32Cube_FW_N6/Drivers/STM32N6xx_HAL_Driver/Src/stm32n6xx_hal_spi.c ****   /* Transmit data in 8 Bit mode */
 979:STM32Cube_FW_N6/Drivers/STM32N6xx_HAL_Driver/Src/stm32n6xx_hal_spi.c ****   else
 980:STM32Cube_FW_N6/Drivers/STM32N6xx_HAL_Driver/Src/stm32n6xx_hal_spi.c ****   {
ARM GAS  /tmp/ccwTXtVb.s 			page 60


 981:STM32Cube_FW_N6/Drivers/STM32N6xx_HAL_Driver/Src/stm32n6xx_hal_spi.c ****     while (hspi->TxXferCount > 0UL)
 982:STM32Cube_FW_N6/Drivers/STM32N6xx_HAL_Driver/Src/stm32n6xx_hal_spi.c ****     {
 983:STM32Cube_FW_N6/Drivers/STM32N6xx_HAL_Driver/Src/stm32n6xx_hal_spi.c ****       /* Wait until TXP flag is set to send data */
 984:STM32Cube_FW_N6/Drivers/STM32N6xx_HAL_Driver/Src/stm32n6xx_hal_spi.c ****       if (__HAL_SPI_GET_FLAG(hspi, SPI_FLAG_TXP))
 2375              		.loc 1 984 11
 2376 0312 FB68     		ldr	r3, [r7, #12]
 2377 0314 1B68     		ldr	r3, [r3]
 2378 0316 5B69     		ldr	r3, [r3, #20]
 2379 0318 03F00203 		and	r3, r3, #2
 2380              		.loc 1 984 10
 2381 031c 022B     		cmp	r3, #2
 2382 031e 52D1     		bne	.L108
 985:STM32Cube_FW_N6/Drivers/STM32N6xx_HAL_Driver/Src/stm32n6xx_hal_spi.c ****       {
 986:STM32Cube_FW_N6/Drivers/STM32N6xx_HAL_Driver/Src/stm32n6xx_hal_spi.c ****         if ((hspi->TxXferCount > 3UL) && (hspi->Init.FifoThreshold > SPI_FIFO_THRESHOLD_03DATA))
 2383              		.loc 1 986 18
 2384 0320 FB68     		ldr	r3, [r7, #12]
 2385 0322 B3F86A30 		ldrh	r3, [r3, #106]	@ movhi
 2386 0326 9BB2     		uxth	r3, r3
 2387              		.loc 1 986 12
 2388 0328 032B     		cmp	r3, #3
 2389 032a 18D9     		bls	.L109
 2390              		.loc 1 986 53 discriminator 1
 2391 032c FB68     		ldr	r3, [r7, #12]
 2392 032e DB6B     		ldr	r3, [r3, #60]
 2393              		.loc 1 986 39 discriminator 1
 2394 0330 402B     		cmp	r3, #64
 2395 0332 14D9     		bls	.L109
 987:STM32Cube_FW_N6/Drivers/STM32N6xx_HAL_Driver/Src/stm32n6xx_hal_spi.c ****         {
 988:STM32Cube_FW_N6/Drivers/STM32N6xx_HAL_Driver/Src/stm32n6xx_hal_spi.c ****           *((__IO uint32_t *)&hspi->Instance->TXDR) = *((const uint32_t *)hspi->pTxBuffPtr);
 2396              		.loc 1 988 79
 2397 0334 FB68     		ldr	r3, [r7, #12]
 2398 0336 5A6E     		ldr	r2, [r3, #100]
 2399              		.loc 1 988 35
 2400 0338 FB68     		ldr	r3, [r7, #12]
 2401 033a 1B68     		ldr	r3, [r3]
 2402              		.loc 1 988 55
 2403 033c 1268     		ldr	r2, [r2]
 2404              		.loc 1 988 53
 2405 033e 1A62     		str	r2, [r3, #32]
 989:STM32Cube_FW_N6/Drivers/STM32N6xx_HAL_Driver/Src/stm32n6xx_hal_spi.c ****           hspi->pTxBuffPtr += sizeof(uint32_t);
 2406              		.loc 1 989 15
 2407 0340 FB68     		ldr	r3, [r7, #12]
 2408 0342 5B6E     		ldr	r3, [r3, #100]
 2409              		.loc 1 989 28
 2410 0344 1A1D     		adds	r2, r3, #4
 2411 0346 FB68     		ldr	r3, [r7, #12]
 2412 0348 5A66     		str	r2, [r3, #100]
 990:STM32Cube_FW_N6/Drivers/STM32N6xx_HAL_Driver/Src/stm32n6xx_hal_spi.c ****           hspi->TxXferCount -= (uint16_t)4UL;
 2413              		.loc 1 990 15
 2414 034a FB68     		ldr	r3, [r7, #12]
 2415 034c B3F86A30 		ldrh	r3, [r3, #106]	@ movhi
 2416 0350 9BB2     		uxth	r3, r3
 2417              		.loc 1 990 29
 2418 0352 043B     		subs	r3, r3, #4
 2419 0354 9AB2     		uxth	r2, r3
 2420 0356 FB68     		ldr	r3, [r7, #12]
 2421 0358 A3F86A20 		strh	r2, [r3, #106]	@ movhi
ARM GAS  /tmp/ccwTXtVb.s 			page 61


 2422 035c 57E0     		b	.L107
 2423              	.L109:
 991:STM32Cube_FW_N6/Drivers/STM32N6xx_HAL_Driver/Src/stm32n6xx_hal_spi.c ****         }
 992:STM32Cube_FW_N6/Drivers/STM32N6xx_HAL_Driver/Src/stm32n6xx_hal_spi.c ****         else if ((hspi->TxXferCount > 1UL) && (hspi->Init.FifoThreshold > SPI_FIFO_THRESHOLD_01DATA
 2424              		.loc 1 992 23
 2425 035e FB68     		ldr	r3, [r7, #12]
 2426 0360 B3F86A30 		ldrh	r3, [r3, #106]	@ movhi
 2427 0364 9BB2     		uxth	r3, r3
 2428              		.loc 1 992 17
 2429 0366 012B     		cmp	r3, #1
 2430 0368 17D9     		bls	.L111
 2431              		.loc 1 992 58 discriminator 1
 2432 036a FB68     		ldr	r3, [r7, #12]
 2433 036c DB6B     		ldr	r3, [r3, #60]
 2434              		.loc 1 992 44 discriminator 1
 2435 036e 002B     		cmp	r3, #0
 2436 0370 13D0     		beq	.L111
 993:STM32Cube_FW_N6/Drivers/STM32N6xx_HAL_Driver/Src/stm32n6xx_hal_spi.c ****         {
 994:STM32Cube_FW_N6/Drivers/STM32N6xx_HAL_Driver/Src/stm32n6xx_hal_spi.c **** #if defined (__GNUC__)
 995:STM32Cube_FW_N6/Drivers/STM32N6xx_HAL_Driver/Src/stm32n6xx_hal_spi.c ****           *ptxdr_16bits = *((const uint16_t *)hspi->pTxBuffPtr);
 2437              		.loc 1 995 51
 2438 0372 FB68     		ldr	r3, [r7, #12]
 2439 0374 5B6E     		ldr	r3, [r3, #100]
 2440              		.loc 1 995 27
 2441 0376 1A88     		ldrh	r2, [r3]
 2442              		.loc 1 995 25
 2443 0378 7B69     		ldr	r3, [r7, #20]
 2444 037a 1A80     		strh	r2, [r3]	@ movhi
 996:STM32Cube_FW_N6/Drivers/STM32N6xx_HAL_Driver/Src/stm32n6xx_hal_spi.c **** #else
 997:STM32Cube_FW_N6/Drivers/STM32N6xx_HAL_Driver/Src/stm32n6xx_hal_spi.c ****           *((__IO uint16_t *)&hspi->Instance->TXDR) = *((const uint16_t *)hspi->pTxBuffPtr);
 998:STM32Cube_FW_N6/Drivers/STM32N6xx_HAL_Driver/Src/stm32n6xx_hal_spi.c **** #endif /* __GNUC__ */
 999:STM32Cube_FW_N6/Drivers/STM32N6xx_HAL_Driver/Src/stm32n6xx_hal_spi.c ****           hspi->pTxBuffPtr += sizeof(uint16_t);
 2445              		.loc 1 999 15
 2446 037c FB68     		ldr	r3, [r7, #12]
 2447 037e 5B6E     		ldr	r3, [r3, #100]
 2448              		.loc 1 999 28
 2449 0380 9A1C     		adds	r2, r3, #2
 2450 0382 FB68     		ldr	r3, [r7, #12]
 2451 0384 5A66     		str	r2, [r3, #100]
1000:STM32Cube_FW_N6/Drivers/STM32N6xx_HAL_Driver/Src/stm32n6xx_hal_spi.c ****           hspi->TxXferCount -= (uint16_t)2UL;
 2452              		.loc 1 1000 15
 2453 0386 FB68     		ldr	r3, [r7, #12]
 2454 0388 B3F86A30 		ldrh	r3, [r3, #106]	@ movhi
 2455 038c 9BB2     		uxth	r3, r3
 2456              		.loc 1 1000 29
 2457 038e 023B     		subs	r3, r3, #2
 2458 0390 9AB2     		uxth	r2, r3
 2459 0392 FB68     		ldr	r3, [r7, #12]
 2460 0394 A3F86A20 		strh	r2, [r3, #106]	@ movhi
 2461 0398 39E0     		b	.L107
 2462              	.L111:
1001:STM32Cube_FW_N6/Drivers/STM32N6xx_HAL_Driver/Src/stm32n6xx_hal_spi.c ****         }
1002:STM32Cube_FW_N6/Drivers/STM32N6xx_HAL_Driver/Src/stm32n6xx_hal_spi.c ****         else
1003:STM32Cube_FW_N6/Drivers/STM32N6xx_HAL_Driver/Src/stm32n6xx_hal_spi.c ****         {
1004:STM32Cube_FW_N6/Drivers/STM32N6xx_HAL_Driver/Src/stm32n6xx_hal_spi.c ****           *((__IO uint8_t *)&hspi->Instance->TXDR) = *((const uint8_t *)hspi->pTxBuffPtr);
 2463              		.loc 1 1004 77
 2464 039a FB68     		ldr	r3, [r7, #12]
ARM GAS  /tmp/ccwTXtVb.s 			page 62


 2465 039c 5A6E     		ldr	r2, [r3, #100]
 2466              		.loc 1 1004 34
 2467 039e FB68     		ldr	r3, [r7, #12]
 2468 03a0 1B68     		ldr	r3, [r3]
 2469              		.loc 1 1004 29
 2470 03a2 2033     		adds	r3, r3, #32
 2471              		.loc 1 1004 54
 2472 03a4 1278     		ldrb	r2, [r2]	@ zero_extendqisi2
 2473              		.loc 1 1004 52
 2474 03a6 1A70     		strb	r2, [r3]
1005:STM32Cube_FW_N6/Drivers/STM32N6xx_HAL_Driver/Src/stm32n6xx_hal_spi.c ****           hspi->pTxBuffPtr += sizeof(uint8_t);
 2475              		.loc 1 1005 15
 2476 03a8 FB68     		ldr	r3, [r7, #12]
 2477 03aa 5B6E     		ldr	r3, [r3, #100]
 2478              		.loc 1 1005 28
 2479 03ac 5A1C     		adds	r2, r3, #1
 2480 03ae FB68     		ldr	r3, [r7, #12]
 2481 03b0 5A66     		str	r2, [r3, #100]
1006:STM32Cube_FW_N6/Drivers/STM32N6xx_HAL_Driver/Src/stm32n6xx_hal_spi.c ****           hspi->TxXferCount--;
 2482              		.loc 1 1006 15
 2483 03b2 FB68     		ldr	r3, [r7, #12]
 2484 03b4 B3F86A30 		ldrh	r3, [r3, #106]	@ movhi
 2485 03b8 9BB2     		uxth	r3, r3
 2486              		.loc 1 1006 28
 2487 03ba 013B     		subs	r3, r3, #1
 2488 03bc 9AB2     		uxth	r2, r3
 2489 03be FB68     		ldr	r3, [r7, #12]
 2490 03c0 A3F86A20 		strh	r2, [r3, #106]	@ movhi
 2491 03c4 23E0     		b	.L107
 2492              	.L108:
1007:STM32Cube_FW_N6/Drivers/STM32N6xx_HAL_Driver/Src/stm32n6xx_hal_spi.c ****         }
1008:STM32Cube_FW_N6/Drivers/STM32N6xx_HAL_Driver/Src/stm32n6xx_hal_spi.c ****       }
1009:STM32Cube_FW_N6/Drivers/STM32N6xx_HAL_Driver/Src/stm32n6xx_hal_spi.c ****       else
1010:STM32Cube_FW_N6/Drivers/STM32N6xx_HAL_Driver/Src/stm32n6xx_hal_spi.c ****       {
1011:STM32Cube_FW_N6/Drivers/STM32N6xx_HAL_Driver/Src/stm32n6xx_hal_spi.c ****         /* Timeout management */
1012:STM32Cube_FW_N6/Drivers/STM32N6xx_HAL_Driver/Src/stm32n6xx_hal_spi.c ****         if ((((HAL_GetTick() - tickstart) >=  Timeout) && (Timeout != HAL_MAX_DELAY)) || (Timeout =
 2493              		.loc 1 1012 16
 2494 03c6 FFF7FEFF 		bl	HAL_GetTick
 2495 03ca 0246     		mov	r2, r0
 2496              		.loc 1 1012 30 discriminator 1
 2497 03cc 3B69     		ldr	r3, [r7, #16]
 2498 03ce D31A     		subs	r3, r2, r3
 2499              		.loc 1 1012 12 discriminator 1
 2500 03d0 3A68     		ldr	r2, [r7]
 2501 03d2 9A42     		cmp	r2, r3
 2502 03d4 03D8     		bhi	.L113
 2503              		.loc 1 1012 56 discriminator 1
 2504 03d6 3B68     		ldr	r3, [r7]
 2505 03d8 B3F1FF3F 		cmp	r3, #-1
 2506 03dc 02D1     		bne	.L114
 2507              	.L113:
 2508              		.loc 1 1012 87 discriminator 3
 2509 03de 3B68     		ldr	r3, [r7]
 2510 03e0 002B     		cmp	r3, #0
 2511 03e2 14D1     		bne	.L107
 2512              	.L114:
1013:STM32Cube_FW_N6/Drivers/STM32N6xx_HAL_Driver/Src/stm32n6xx_hal_spi.c ****         {
ARM GAS  /tmp/ccwTXtVb.s 			page 63


1014:STM32Cube_FW_N6/Drivers/STM32N6xx_HAL_Driver/Src/stm32n6xx_hal_spi.c ****           /* Call standard close procedure with error check */
1015:STM32Cube_FW_N6/Drivers/STM32N6xx_HAL_Driver/Src/stm32n6xx_hal_spi.c ****           SPI_CloseTransfer(hspi);
 2513              		.loc 1 1015 11
 2514 03e4 F868     		ldr	r0, [r7, #12]
 2515 03e6 FFF7FEFF 		bl	SPI_CloseTransfer
1016:STM32Cube_FW_N6/Drivers/STM32N6xx_HAL_Driver/Src/stm32n6xx_hal_spi.c **** 
1017:STM32Cube_FW_N6/Drivers/STM32N6xx_HAL_Driver/Src/stm32n6xx_hal_spi.c ****           SET_BIT(hspi->ErrorCode, HAL_SPI_ERROR_TIMEOUT);
 2516              		.loc 1 1017 11
 2517 03ea FB68     		ldr	r3, [r7, #12]
 2518 03ec D3F88C30 		ldr	r3, [r3, #140]
 2519 03f0 43F48072 		orr	r2, r3, #256
 2520 03f4 FB68     		ldr	r3, [r7, #12]
 2521 03f6 C3F88C20 		str	r2, [r3, #140]
1018:STM32Cube_FW_N6/Drivers/STM32N6xx_HAL_Driver/Src/stm32n6xx_hal_spi.c ****           hspi->State = HAL_SPI_STATE_READY;
 2522              		.loc 1 1018 23
 2523 03fa FB68     		ldr	r3, [r7, #12]
 2524 03fc 0122     		movs	r2, #1
 2525 03fe 83F88920 		strb	r2, [r3, #137]
1019:STM32Cube_FW_N6/Drivers/STM32N6xx_HAL_Driver/Src/stm32n6xx_hal_spi.c **** 
1020:STM32Cube_FW_N6/Drivers/STM32N6xx_HAL_Driver/Src/stm32n6xx_hal_spi.c ****           /* Unlock the process */
1021:STM32Cube_FW_N6/Drivers/STM32N6xx_HAL_Driver/Src/stm32n6xx_hal_spi.c ****           __HAL_UNLOCK(hspi);
 2526              		.loc 1 1021 11
 2527 0402 FB68     		ldr	r3, [r7, #12]
 2528 0404 0022     		movs	r2, #0
 2529 0406 83F88820 		strb	r2, [r3, #136]
1022:STM32Cube_FW_N6/Drivers/STM32N6xx_HAL_Driver/Src/stm32n6xx_hal_spi.c **** 
1023:STM32Cube_FW_N6/Drivers/STM32N6xx_HAL_Driver/Src/stm32n6xx_hal_spi.c ****           return HAL_TIMEOUT;
 2530              		.loc 1 1023 18
 2531 040a 0323     		movs	r3, #3
 2532 040c 2CE0     		b	.L82
 2533              	.L107:
 981:STM32Cube_FW_N6/Drivers/STM32N6xx_HAL_Driver/Src/stm32n6xx_hal_spi.c ****     {
 2534              		.loc 1 981 16
 2535 040e FB68     		ldr	r3, [r7, #12]
 2536 0410 B3F86A30 		ldrh	r3, [r3, #106]	@ movhi
 2537 0414 9BB2     		uxth	r3, r3
 981:STM32Cube_FW_N6/Drivers/STM32N6xx_HAL_Driver/Src/stm32n6xx_hal_spi.c ****     {
 2538              		.loc 1 981 30
 2539 0416 002B     		cmp	r3, #0
 2540 0418 7FF47BAF 		bne	.L115
 2541              	.L97:
1024:STM32Cube_FW_N6/Drivers/STM32N6xx_HAL_Driver/Src/stm32n6xx_hal_spi.c ****         }
1025:STM32Cube_FW_N6/Drivers/STM32N6xx_HAL_Driver/Src/stm32n6xx_hal_spi.c ****       }
1026:STM32Cube_FW_N6/Drivers/STM32N6xx_HAL_Driver/Src/stm32n6xx_hal_spi.c ****     }
1027:STM32Cube_FW_N6/Drivers/STM32N6xx_HAL_Driver/Src/stm32n6xx_hal_spi.c ****   }
1028:STM32Cube_FW_N6/Drivers/STM32N6xx_HAL_Driver/Src/stm32n6xx_hal_spi.c **** 
1029:STM32Cube_FW_N6/Drivers/STM32N6xx_HAL_Driver/Src/stm32n6xx_hal_spi.c ****   /* Wait for Tx (and CRC) data to be sent */
1030:STM32Cube_FW_N6/Drivers/STM32N6xx_HAL_Driver/Src/stm32n6xx_hal_spi.c ****   if (SPI_WaitOnFlagUntilTimeout(hspi, SPI_FLAG_EOT, RESET, Timeout, tickstart) != HAL_OK)
 2542              		.loc 1 1030 7
 2543 041c 3B69     		ldr	r3, [r7, #16]
 2544 041e 0093     		str	r3, [sp]
 2545 0420 3B68     		ldr	r3, [r7]
 2546 0422 0022     		movs	r2, #0
 2547 0424 0821     		movs	r1, #8
 2548 0426 F868     		ldr	r0, [r7, #12]
 2549 0428 FFF7FEFF 		bl	SPI_WaitOnFlagUntilTimeout
 2550 042c 0346     		mov	r3, r0
ARM GAS  /tmp/ccwTXtVb.s 			page 64


 2551              		.loc 1 1030 6 discriminator 1
 2552 042e 002B     		cmp	r3, #0
 2553 0430 07D0     		beq	.L116
1031:STM32Cube_FW_N6/Drivers/STM32N6xx_HAL_Driver/Src/stm32n6xx_hal_spi.c ****   {
1032:STM32Cube_FW_N6/Drivers/STM32N6xx_HAL_Driver/Src/stm32n6xx_hal_spi.c ****     SET_BIT(hspi->ErrorCode, HAL_SPI_ERROR_FLAG);
 2554              		.loc 1 1032 5
 2555 0432 FB68     		ldr	r3, [r7, #12]
 2556 0434 D3F88C30 		ldr	r3, [r3, #140]
 2557 0438 43F02002 		orr	r2, r3, #32
 2558 043c FB68     		ldr	r3, [r7, #12]
 2559 043e C3F88C20 		str	r2, [r3, #140]
 2560              	.L116:
1033:STM32Cube_FW_N6/Drivers/STM32N6xx_HAL_Driver/Src/stm32n6xx_hal_spi.c ****   }
1034:STM32Cube_FW_N6/Drivers/STM32N6xx_HAL_Driver/Src/stm32n6xx_hal_spi.c **** 
1035:STM32Cube_FW_N6/Drivers/STM32N6xx_HAL_Driver/Src/stm32n6xx_hal_spi.c ****   /* Call standard close procedure with error check */
1036:STM32Cube_FW_N6/Drivers/STM32N6xx_HAL_Driver/Src/stm32n6xx_hal_spi.c ****   SPI_CloseTransfer(hspi);
 2561              		.loc 1 1036 3
 2562 0442 F868     		ldr	r0, [r7, #12]
 2563 0444 FFF7FEFF 		bl	SPI_CloseTransfer
1037:STM32Cube_FW_N6/Drivers/STM32N6xx_HAL_Driver/Src/stm32n6xx_hal_spi.c **** 
1038:STM32Cube_FW_N6/Drivers/STM32N6xx_HAL_Driver/Src/stm32n6xx_hal_spi.c ****   hspi->State = HAL_SPI_STATE_READY;
 2564              		.loc 1 1038 15
 2565 0448 FB68     		ldr	r3, [r7, #12]
 2566 044a 0122     		movs	r2, #1
 2567 044c 83F88920 		strb	r2, [r3, #137]
1039:STM32Cube_FW_N6/Drivers/STM32N6xx_HAL_Driver/Src/stm32n6xx_hal_spi.c **** 
1040:STM32Cube_FW_N6/Drivers/STM32N6xx_HAL_Driver/Src/stm32n6xx_hal_spi.c ****   /* Unlock the process */
1041:STM32Cube_FW_N6/Drivers/STM32N6xx_HAL_Driver/Src/stm32n6xx_hal_spi.c ****   __HAL_UNLOCK(hspi);
 2568              		.loc 1 1041 3
 2569 0450 FB68     		ldr	r3, [r7, #12]
 2570 0452 0022     		movs	r2, #0
 2571 0454 83F88820 		strb	r2, [r3, #136]
1042:STM32Cube_FW_N6/Drivers/STM32N6xx_HAL_Driver/Src/stm32n6xx_hal_spi.c **** 
1043:STM32Cube_FW_N6/Drivers/STM32N6xx_HAL_Driver/Src/stm32n6xx_hal_spi.c ****   if (hspi->ErrorCode != HAL_SPI_ERROR_NONE)
 2572              		.loc 1 1043 11
 2573 0458 FB68     		ldr	r3, [r7, #12]
 2574 045a D3F88C30 		ldr	r3, [r3, #140]
 2575              		.loc 1 1043 6
 2576 045e 002B     		cmp	r3, #0
 2577 0460 01D0     		beq	.L117
1044:STM32Cube_FW_N6/Drivers/STM32N6xx_HAL_Driver/Src/stm32n6xx_hal_spi.c ****   {
1045:STM32Cube_FW_N6/Drivers/STM32N6xx_HAL_Driver/Src/stm32n6xx_hal_spi.c ****     return HAL_ERROR;
 2578              		.loc 1 1045 12
 2579 0462 0123     		movs	r3, #1
 2580 0464 00E0     		b	.L82
 2581              	.L117:
1046:STM32Cube_FW_N6/Drivers/STM32N6xx_HAL_Driver/Src/stm32n6xx_hal_spi.c ****   }
1047:STM32Cube_FW_N6/Drivers/STM32N6xx_HAL_Driver/Src/stm32n6xx_hal_spi.c ****   else
1048:STM32Cube_FW_N6/Drivers/STM32N6xx_HAL_Driver/Src/stm32n6xx_hal_spi.c ****   {
1049:STM32Cube_FW_N6/Drivers/STM32N6xx_HAL_Driver/Src/stm32n6xx_hal_spi.c ****     return HAL_OK;
 2582              		.loc 1 1049 12
 2583 0466 0023     		movs	r3, #0
 2584              	.L82:
1050:STM32Cube_FW_N6/Drivers/STM32N6xx_HAL_Driver/Src/stm32n6xx_hal_spi.c ****   }
1051:STM32Cube_FW_N6/Drivers/STM32N6xx_HAL_Driver/Src/stm32n6xx_hal_spi.c **** }
 2585              		.loc 1 1051 1
 2586 0468 1846     		mov	r0, r3
ARM GAS  /tmp/ccwTXtVb.s 			page 65


 2587 046a 1837     		adds	r7, r7, #24
 2588              		.cfi_def_cfa_offset 8
 2589 046c BD46     		mov	sp, r7
 2590              		.cfi_def_cfa_register 13
 2591              		@ sp needed
 2592 046e 80BD     		pop	{r7, pc}
 2593              		.cfi_endproc
 2594              	.LFE839:
 2596              		.section	.text.HAL_SPI_Receive,"ax",%progbits
 2597              		.align	1
 2598              		.global	HAL_SPI_Receive
 2599              		.syntax unified
 2600              		.thumb
 2601              		.thumb_func
 2603              	HAL_SPI_Receive:
 2604              	.LFB840:
1052:STM32Cube_FW_N6/Drivers/STM32N6xx_HAL_Driver/Src/stm32n6xx_hal_spi.c **** 
1053:STM32Cube_FW_N6/Drivers/STM32N6xx_HAL_Driver/Src/stm32n6xx_hal_spi.c **** /**
1054:STM32Cube_FW_N6/Drivers/STM32N6xx_HAL_Driver/Src/stm32n6xx_hal_spi.c ****   * @brief  Receive an amount of data in blocking mode.
1055:STM32Cube_FW_N6/Drivers/STM32N6xx_HAL_Driver/Src/stm32n6xx_hal_spi.c ****   * @param  hspi   : pointer to a SPI_HandleTypeDef structure that contains
1056:STM32Cube_FW_N6/Drivers/STM32N6xx_HAL_Driver/Src/stm32n6xx_hal_spi.c ****   *                  the configuration information for SPI module.
1057:STM32Cube_FW_N6/Drivers/STM32N6xx_HAL_Driver/Src/stm32n6xx_hal_spi.c ****   * @param  pData  : pointer to data buffer
1058:STM32Cube_FW_N6/Drivers/STM32N6xx_HAL_Driver/Src/stm32n6xx_hal_spi.c ****   * @param  Size   : amount of data to be received
1059:STM32Cube_FW_N6/Drivers/STM32N6xx_HAL_Driver/Src/stm32n6xx_hal_spi.c ****   * @param  Timeout: Timeout duration
1060:STM32Cube_FW_N6/Drivers/STM32N6xx_HAL_Driver/Src/stm32n6xx_hal_spi.c ****   * @retval HAL status
1061:STM32Cube_FW_N6/Drivers/STM32N6xx_HAL_Driver/Src/stm32n6xx_hal_spi.c ****   */
1062:STM32Cube_FW_N6/Drivers/STM32N6xx_HAL_Driver/Src/stm32n6xx_hal_spi.c **** HAL_StatusTypeDef HAL_SPI_Receive(SPI_HandleTypeDef *hspi, uint8_t *pData, uint16_t Size, uint32_t 
1063:STM32Cube_FW_N6/Drivers/STM32N6xx_HAL_Driver/Src/stm32n6xx_hal_spi.c **** {
 2605              		.loc 1 1063 1
 2606              		.cfi_startproc
 2607              		@ args = 0, pretend = 0, frame = 32
 2608              		@ frame_needed = 1, uses_anonymous_args = 0
 2609 0000 80B5     		push	{r7, lr}
 2610              		.cfi_def_cfa_offset 8
 2611              		.cfi_offset 7, -8
 2612              		.cfi_offset 14, -4
 2613 0002 8AB0     		sub	sp, sp, #40
 2614              		.cfi_def_cfa_offset 48
 2615 0004 02AF     		add	r7, sp, #8
 2616              		.cfi_def_cfa 7, 40
 2617 0006 F860     		str	r0, [r7, #12]
 2618 0008 B960     		str	r1, [r7, #8]
 2619 000a 3B60     		str	r3, [r7]
 2620 000c 1346     		mov	r3, r2	@ movhi
 2621 000e FB80     		strh	r3, [r7, #6]	@ movhi
1064:STM32Cube_FW_N6/Drivers/STM32N6xx_HAL_Driver/Src/stm32n6xx_hal_spi.c ****   uint32_t tickstart;
1065:STM32Cube_FW_N6/Drivers/STM32N6xx_HAL_Driver/Src/stm32n6xx_hal_spi.c ****   uint32_t temp_sr_reg;
1066:STM32Cube_FW_N6/Drivers/STM32N6xx_HAL_Driver/Src/stm32n6xx_hal_spi.c ****   uint16_t init_max_data_in_fifo;
1067:STM32Cube_FW_N6/Drivers/STM32N6xx_HAL_Driver/Src/stm32n6xx_hal_spi.c ****   init_max_data_in_fifo = (((uint16_t)(hspi->Init.FifoThreshold >> 5U) + 1U));
 2622              		.loc 1 1067 50
 2623 0010 FB68     		ldr	r3, [r7, #12]
 2624 0012 DB6B     		ldr	r3, [r3, #60]
 2625              		.loc 1 1067 65
 2626 0014 5B09     		lsrs	r3, r3, #5
 2627              		.loc 1 1067 29
 2628 0016 9BB2     		uxth	r3, r3
 2629              		.loc 1 1067 25
ARM GAS  /tmp/ccwTXtVb.s 			page 66


 2630 0018 0133     		adds	r3, r3, #1
 2631 001a FB83     		strh	r3, [r7, #30]	@ movhi
1068:STM32Cube_FW_N6/Drivers/STM32N6xx_HAL_Driver/Src/stm32n6xx_hal_spi.c **** #if defined (__GNUC__)
1069:STM32Cube_FW_N6/Drivers/STM32N6xx_HAL_Driver/Src/stm32n6xx_hal_spi.c ****   __IO uint16_t *prxdr_16bits = (__IO uint16_t *)(&(hspi->Instance->RXDR));
 2632              		.loc 1 1069 57
 2633 001c FB68     		ldr	r3, [r7, #12]
 2634 001e 1B68     		ldr	r3, [r3]
 2635              		.loc 1 1069 18
 2636 0020 3033     		adds	r3, r3, #48
 2637 0022 BB61     		str	r3, [r7, #24]
1070:STM32Cube_FW_N6/Drivers/STM32N6xx_HAL_Driver/Src/stm32n6xx_hal_spi.c **** #endif /* __GNUC__ */
1071:STM32Cube_FW_N6/Drivers/STM32N6xx_HAL_Driver/Src/stm32n6xx_hal_spi.c **** 
1072:STM32Cube_FW_N6/Drivers/STM32N6xx_HAL_Driver/Src/stm32n6xx_hal_spi.c ****   /* Check Direction parameter */
1073:STM32Cube_FW_N6/Drivers/STM32N6xx_HAL_Driver/Src/stm32n6xx_hal_spi.c ****   assert_param(IS_SPI_DIRECTION_2LINES_OR_1LINE_2LINES_RXONLY(hspi->Init.Direction));
 2638              		.loc 1 1073 3
 2639 0024 FB68     		ldr	r3, [r7, #12]
 2640 0026 9B68     		ldr	r3, [r3, #8]
 2641 0028 002B     		cmp	r3, #0
 2642 002a 0ED0     		beq	.L121
 2643              		.loc 1 1073 3 is_stmt 0 discriminator 1
 2644 002c FB68     		ldr	r3, [r7, #12]
 2645 002e 9B68     		ldr	r3, [r3, #8]
 2646 0030 B3F5C02F 		cmp	r3, #393216
 2647 0034 09D0     		beq	.L121
 2648              		.loc 1 1073 3 discriminator 2
 2649 0036 FB68     		ldr	r3, [r7, #12]
 2650 0038 9B68     		ldr	r3, [r3, #8]
 2651 003a B3F5802F 		cmp	r3, #262144
 2652 003e 04D0     		beq	.L121
 2653              		.loc 1 1073 3 discriminator 3
 2654 0040 40F23141 		movw	r1, #1073
 2655 0044 8E48     		ldr	r0, .L159
 2656 0046 FFF7FEFF 		bl	assert_failed
 2657              	.L121:
1074:STM32Cube_FW_N6/Drivers/STM32N6xx_HAL_Driver/Src/stm32n6xx_hal_spi.c **** 
1075:STM32Cube_FW_N6/Drivers/STM32N6xx_HAL_Driver/Src/stm32n6xx_hal_spi.c ****   /* Init tickstart for timeout management*/
1076:STM32Cube_FW_N6/Drivers/STM32N6xx_HAL_Driver/Src/stm32n6xx_hal_spi.c ****   tickstart = HAL_GetTick();
 2658              		.loc 1 1076 15 is_stmt 1
 2659 004a FFF7FEFF 		bl	HAL_GetTick
 2660 004e 7861     		str	r0, [r7, #20]
1077:STM32Cube_FW_N6/Drivers/STM32N6xx_HAL_Driver/Src/stm32n6xx_hal_spi.c **** 
1078:STM32Cube_FW_N6/Drivers/STM32N6xx_HAL_Driver/Src/stm32n6xx_hal_spi.c ****   if (hspi->State != HAL_SPI_STATE_READY)
 2661              		.loc 1 1078 11
 2662 0050 FB68     		ldr	r3, [r7, #12]
 2663 0052 93F88930 		ldrb	r3, [r3, #137]
 2664 0056 DBB2     		uxtb	r3, r3
 2665              		.loc 1 1078 6
 2666 0058 012B     		cmp	r3, #1
 2667 005a 01D0     		beq	.L122
1079:STM32Cube_FW_N6/Drivers/STM32N6xx_HAL_Driver/Src/stm32n6xx_hal_spi.c ****   {
1080:STM32Cube_FW_N6/Drivers/STM32N6xx_HAL_Driver/Src/stm32n6xx_hal_spi.c ****     return HAL_BUSY;
 2668              		.loc 1 1080 12
 2669 005c 0223     		movs	r3, #2
 2670 005e A3E2     		b	.L123
 2671              	.L122:
1081:STM32Cube_FW_N6/Drivers/STM32N6xx_HAL_Driver/Src/stm32n6xx_hal_spi.c ****   }
1082:STM32Cube_FW_N6/Drivers/STM32N6xx_HAL_Driver/Src/stm32n6xx_hal_spi.c **** 
ARM GAS  /tmp/ccwTXtVb.s 			page 67


1083:STM32Cube_FW_N6/Drivers/STM32N6xx_HAL_Driver/Src/stm32n6xx_hal_spi.c ****   if ((pData == NULL) || (Size == 0UL))
 2672              		.loc 1 1083 6
 2673 0060 BB68     		ldr	r3, [r7, #8]
 2674 0062 002B     		cmp	r3, #0
 2675 0064 02D0     		beq	.L124
 2676              		.loc 1 1083 23 discriminator 1
 2677 0066 FB88     		ldrh	r3, [r7, #6]
 2678 0068 002B     		cmp	r3, #0
 2679 006a 01D1     		bne	.L125
 2680              	.L124:
1084:STM32Cube_FW_N6/Drivers/STM32N6xx_HAL_Driver/Src/stm32n6xx_hal_spi.c ****   {
1085:STM32Cube_FW_N6/Drivers/STM32N6xx_HAL_Driver/Src/stm32n6xx_hal_spi.c ****     return HAL_ERROR;
 2681              		.loc 1 1085 12
 2682 006c 0123     		movs	r3, #1
 2683 006e 9BE2     		b	.L123
 2684              	.L125:
1086:STM32Cube_FW_N6/Drivers/STM32N6xx_HAL_Driver/Src/stm32n6xx_hal_spi.c ****   }
1087:STM32Cube_FW_N6/Drivers/STM32N6xx_HAL_Driver/Src/stm32n6xx_hal_spi.c **** 
1088:STM32Cube_FW_N6/Drivers/STM32N6xx_HAL_Driver/Src/stm32n6xx_hal_spi.c ****   /* Lock the process */
1089:STM32Cube_FW_N6/Drivers/STM32N6xx_HAL_Driver/Src/stm32n6xx_hal_spi.c ****   __HAL_LOCK(hspi);
 2685              		.loc 1 1089 3
 2686 0070 FB68     		ldr	r3, [r7, #12]
 2687 0072 93F88830 		ldrb	r3, [r3, #136]	@ zero_extendqisi2
 2688 0076 012B     		cmp	r3, #1
 2689 0078 01D1     		bne	.L126
 2690              		.loc 1 1089 3 is_stmt 0 discriminator 1
 2691 007a 0223     		movs	r3, #2
 2692              		.loc 1 1089 3
 2693 007c 94E2     		b	.L123
 2694              	.L126:
 2695              		.loc 1 1089 3 discriminator 2
 2696 007e FB68     		ldr	r3, [r7, #12]
 2697 0080 0122     		movs	r2, #1
 2698 0082 83F88820 		strb	r2, [r3, #136]
1090:STM32Cube_FW_N6/Drivers/STM32N6xx_HAL_Driver/Src/stm32n6xx_hal_spi.c **** 
1091:STM32Cube_FW_N6/Drivers/STM32N6xx_HAL_Driver/Src/stm32n6xx_hal_spi.c ****   /* Set the transaction information */
1092:STM32Cube_FW_N6/Drivers/STM32N6xx_HAL_Driver/Src/stm32n6xx_hal_spi.c ****   hspi->State       = HAL_SPI_STATE_BUSY_RX;
 2699              		.loc 1 1092 21 is_stmt 1
 2700 0086 FB68     		ldr	r3, [r7, #12]
 2701 0088 0422     		movs	r2, #4
 2702 008a 83F88920 		strb	r2, [r3, #137]
1093:STM32Cube_FW_N6/Drivers/STM32N6xx_HAL_Driver/Src/stm32n6xx_hal_spi.c ****   hspi->ErrorCode   = HAL_SPI_ERROR_NONE;
 2703              		.loc 1 1093 21
 2704 008e FB68     		ldr	r3, [r7, #12]
 2705 0090 0022     		movs	r2, #0
 2706 0092 C3F88C20 		str	r2, [r3, #140]
1094:STM32Cube_FW_N6/Drivers/STM32N6xx_HAL_Driver/Src/stm32n6xx_hal_spi.c ****   hspi->pRxBuffPtr  = (uint8_t *)pData;
 2707              		.loc 1 1094 21
 2708 0096 FB68     		ldr	r3, [r7, #12]
 2709 0098 BA68     		ldr	r2, [r7, #8]
 2710 009a DA66     		str	r2, [r3, #108]
1095:STM32Cube_FW_N6/Drivers/STM32N6xx_HAL_Driver/Src/stm32n6xx_hal_spi.c ****   hspi->RxXferSize  = Size;
 2711              		.loc 1 1095 21
 2712 009c FB68     		ldr	r3, [r7, #12]
 2713 009e FA88     		ldrh	r2, [r7, #6]	@ movhi
 2714 00a0 A3F87020 		strh	r2, [r3, #112]	@ movhi
1096:STM32Cube_FW_N6/Drivers/STM32N6xx_HAL_Driver/Src/stm32n6xx_hal_spi.c ****   hspi->RxXferCount = Size;
ARM GAS  /tmp/ccwTXtVb.s 			page 68


 2715              		.loc 1 1096 21
 2716 00a4 FB68     		ldr	r3, [r7, #12]
 2717 00a6 FA88     		ldrh	r2, [r7, #6]	@ movhi
 2718 00a8 A3F87220 		strh	r2, [r3, #114]	@ movhi
1097:STM32Cube_FW_N6/Drivers/STM32N6xx_HAL_Driver/Src/stm32n6xx_hal_spi.c **** 
1098:STM32Cube_FW_N6/Drivers/STM32N6xx_HAL_Driver/Src/stm32n6xx_hal_spi.c ****   /*Init field not used in handle to zero */
1099:STM32Cube_FW_N6/Drivers/STM32N6xx_HAL_Driver/Src/stm32n6xx_hal_spi.c ****   hspi->pTxBuffPtr  = NULL;
 2719              		.loc 1 1099 21
 2720 00ac FB68     		ldr	r3, [r7, #12]
 2721 00ae 0022     		movs	r2, #0
 2722 00b0 5A66     		str	r2, [r3, #100]
1100:STM32Cube_FW_N6/Drivers/STM32N6xx_HAL_Driver/Src/stm32n6xx_hal_spi.c ****   hspi->TxXferSize  = (uint16_t) 0UL;
 2723              		.loc 1 1100 21
 2724 00b2 FB68     		ldr	r3, [r7, #12]
 2725 00b4 0022     		movs	r2, #0
 2726 00b6 A3F86820 		strh	r2, [r3, #104]	@ movhi
1101:STM32Cube_FW_N6/Drivers/STM32N6xx_HAL_Driver/Src/stm32n6xx_hal_spi.c ****   hspi->TxXferCount = (uint16_t) 0UL;
 2727              		.loc 1 1101 21
 2728 00ba FB68     		ldr	r3, [r7, #12]
 2729 00bc 0022     		movs	r2, #0
 2730 00be A3F86A20 		strh	r2, [r3, #106]	@ movhi
1102:STM32Cube_FW_N6/Drivers/STM32N6xx_HAL_Driver/Src/stm32n6xx_hal_spi.c ****   hspi->RxISR       = NULL;
 2731              		.loc 1 1102 21
 2732 00c2 FB68     		ldr	r3, [r7, #12]
 2733 00c4 0022     		movs	r2, #0
 2734 00c6 9A67     		str	r2, [r3, #120]
1103:STM32Cube_FW_N6/Drivers/STM32N6xx_HAL_Driver/Src/stm32n6xx_hal_spi.c ****   hspi->TxISR       = NULL;
 2735              		.loc 1 1103 21
 2736 00c8 FB68     		ldr	r3, [r7, #12]
 2737 00ca 0022     		movs	r2, #0
 2738 00cc DA67     		str	r2, [r3, #124]
1104:STM32Cube_FW_N6/Drivers/STM32N6xx_HAL_Driver/Src/stm32n6xx_hal_spi.c **** 
1105:STM32Cube_FW_N6/Drivers/STM32N6xx_HAL_Driver/Src/stm32n6xx_hal_spi.c ****   /* Configure communication direction: 1Line */
1106:STM32Cube_FW_N6/Drivers/STM32N6xx_HAL_Driver/Src/stm32n6xx_hal_spi.c ****   if (hspi->Init.Direction == SPI_DIRECTION_1LINE)
 2739              		.loc 1 1106 17
 2740 00ce FB68     		ldr	r3, [r7, #12]
 2741 00d0 9B68     		ldr	r3, [r3, #8]
 2742              		.loc 1 1106 6
 2743 00d2 B3F5C02F 		cmp	r3, #393216
 2744 00d6 08D1     		bne	.L127
1107:STM32Cube_FW_N6/Drivers/STM32N6xx_HAL_Driver/Src/stm32n6xx_hal_spi.c ****   {
1108:STM32Cube_FW_N6/Drivers/STM32N6xx_HAL_Driver/Src/stm32n6xx_hal_spi.c ****     SPI_1LINE_RX(hspi);
 2745              		.loc 1 1108 5
 2746 00d8 FB68     		ldr	r3, [r7, #12]
 2747 00da 1B68     		ldr	r3, [r3]
 2748 00dc 1A68     		ldr	r2, [r3]
 2749 00de FB68     		ldr	r3, [r7, #12]
 2750 00e0 1B68     		ldr	r3, [r3]
 2751 00e2 22F40062 		bic	r2, r2, #2048
 2752 00e6 1A60     		str	r2, [r3]
 2753 00e8 09E0     		b	.L128
 2754              	.L127:
1109:STM32Cube_FW_N6/Drivers/STM32N6xx_HAL_Driver/Src/stm32n6xx_hal_spi.c ****   }
1110:STM32Cube_FW_N6/Drivers/STM32N6xx_HAL_Driver/Src/stm32n6xx_hal_spi.c ****   else
1111:STM32Cube_FW_N6/Drivers/STM32N6xx_HAL_Driver/Src/stm32n6xx_hal_spi.c ****   {
1112:STM32Cube_FW_N6/Drivers/STM32N6xx_HAL_Driver/Src/stm32n6xx_hal_spi.c ****     SPI_2LINES_RX(hspi);
 2755              		.loc 1 1112 5
ARM GAS  /tmp/ccwTXtVb.s 			page 69


 2756 00ea FB68     		ldr	r3, [r7, #12]
 2757 00ec 1B68     		ldr	r3, [r3]
 2758 00ee DB68     		ldr	r3, [r3, #12]
 2759 00f0 23F4C022 		bic	r2, r3, #393216
 2760 00f4 FB68     		ldr	r3, [r7, #12]
 2761 00f6 1B68     		ldr	r3, [r3]
 2762 00f8 42F48022 		orr	r2, r2, #262144
 2763 00fc DA60     		str	r2, [r3, #12]
 2764              	.L128:
1113:STM32Cube_FW_N6/Drivers/STM32N6xx_HAL_Driver/Src/stm32n6xx_hal_spi.c ****   }
1114:STM32Cube_FW_N6/Drivers/STM32N6xx_HAL_Driver/Src/stm32n6xx_hal_spi.c **** 
1115:STM32Cube_FW_N6/Drivers/STM32N6xx_HAL_Driver/Src/stm32n6xx_hal_spi.c ****   /* Set the number of data at current transfer */
1116:STM32Cube_FW_N6/Drivers/STM32N6xx_HAL_Driver/Src/stm32n6xx_hal_spi.c ****   MODIFY_REG(hspi->Instance->CR2, SPI_CR2_TSIZE, Size);
 2765              		.loc 1 1116 3
 2766 00fe FB68     		ldr	r3, [r7, #12]
 2767 0100 1B68     		ldr	r3, [r3]
 2768 0102 5B68     		ldr	r3, [r3, #4]
 2769 0104 1B0C     		lsrs	r3, r3, #16
 2770 0106 1B04     		lsls	r3, r3, #16
 2771 0108 F988     		ldrh	r1, [r7, #6]
 2772 010a FA68     		ldr	r2, [r7, #12]
 2773 010c 1268     		ldr	r2, [r2]
 2774 010e 0B43     		orrs	r3, r3, r1
 2775 0110 5360     		str	r3, [r2, #4]
1117:STM32Cube_FW_N6/Drivers/STM32N6xx_HAL_Driver/Src/stm32n6xx_hal_spi.c **** 
1118:STM32Cube_FW_N6/Drivers/STM32N6xx_HAL_Driver/Src/stm32n6xx_hal_spi.c ****   /* Enable SPI peripheral */
1119:STM32Cube_FW_N6/Drivers/STM32N6xx_HAL_Driver/Src/stm32n6xx_hal_spi.c ****   __HAL_SPI_ENABLE(hspi);
 2776              		.loc 1 1119 3
 2777 0112 FB68     		ldr	r3, [r7, #12]
 2778 0114 1B68     		ldr	r3, [r3]
 2779 0116 1A68     		ldr	r2, [r3]
 2780 0118 FB68     		ldr	r3, [r7, #12]
 2781 011a 1B68     		ldr	r3, [r3]
 2782 011c 42F00102 		orr	r2, r2, #1
 2783 0120 1A60     		str	r2, [r3]
1120:STM32Cube_FW_N6/Drivers/STM32N6xx_HAL_Driver/Src/stm32n6xx_hal_spi.c **** 
1121:STM32Cube_FW_N6/Drivers/STM32N6xx_HAL_Driver/Src/stm32n6xx_hal_spi.c ****   if (hspi->Init.Mode == SPI_MODE_MASTER)
 2784              		.loc 1 1121 17
 2785 0122 FB68     		ldr	r3, [r7, #12]
 2786 0124 5B68     		ldr	r3, [r3, #4]
 2787              		.loc 1 1121 6
 2788 0126 B3F5800F 		cmp	r3, #4194304
 2789 012a 07D1     		bne	.L129
1122:STM32Cube_FW_N6/Drivers/STM32N6xx_HAL_Driver/Src/stm32n6xx_hal_spi.c ****   {
1123:STM32Cube_FW_N6/Drivers/STM32N6xx_HAL_Driver/Src/stm32n6xx_hal_spi.c ****     /* Master transfer start */
1124:STM32Cube_FW_N6/Drivers/STM32N6xx_HAL_Driver/Src/stm32n6xx_hal_spi.c ****     SET_BIT(hspi->Instance->CR1, SPI_CR1_CSTART);
 2790              		.loc 1 1124 5
 2791 012c FB68     		ldr	r3, [r7, #12]
 2792 012e 1B68     		ldr	r3, [r3]
 2793 0130 1A68     		ldr	r2, [r3]
 2794 0132 FB68     		ldr	r3, [r7, #12]
 2795 0134 1B68     		ldr	r3, [r3]
 2796 0136 42F40072 		orr	r2, r2, #512
 2797 013a 1A60     		str	r2, [r3]
 2798              	.L129:
1125:STM32Cube_FW_N6/Drivers/STM32N6xx_HAL_Driver/Src/stm32n6xx_hal_spi.c ****   }
1126:STM32Cube_FW_N6/Drivers/STM32N6xx_HAL_Driver/Src/stm32n6xx_hal_spi.c **** 
ARM GAS  /tmp/ccwTXtVb.s 			page 70


1127:STM32Cube_FW_N6/Drivers/STM32N6xx_HAL_Driver/Src/stm32n6xx_hal_spi.c ****   /* Receive data in 32 Bit mode */
1128:STM32Cube_FW_N6/Drivers/STM32N6xx_HAL_Driver/Src/stm32n6xx_hal_spi.c ****   if ((hspi->Init.DataSize > SPI_DATASIZE_16BIT) && (IS_SPI_FULL_INSTANCE(hspi->Instance)))
 2799              		.loc 1 1128 18
 2800 013c FB68     		ldr	r3, [r7, #12]
 2801 013e DB68     		ldr	r3, [r3, #12]
 2802              		.loc 1 1128 6
 2803 0140 0F2B     		cmp	r3, #15
 2804 0142 40F29780 		bls	.L130
 2805              		.loc 1 1128 54 discriminator 1
 2806 0146 FB68     		ldr	r3, [r7, #12]
 2807 0148 1B68     		ldr	r3, [r3]
 2808              		.loc 1 1128 50 discriminator 1
 2809 014a 4E4A     		ldr	r2, .L159+4
 2810 014c 9342     		cmp	r3, r2
 2811 014e 00F08A80 		beq	.L132
 2812              		.loc 1 1128 54 discriminator 2
 2813 0152 FB68     		ldr	r3, [r7, #12]
 2814 0154 1B68     		ldr	r3, [r3]
 2815 0156 4C4A     		ldr	r2, .L159+8
 2816 0158 9342     		cmp	r3, r2
 2817 015a 00F08480 		beq	.L132
 2818              		.loc 1 1128 54 is_stmt 0 discriminator 3
 2819 015e FB68     		ldr	r3, [r7, #12]
 2820 0160 1B68     		ldr	r3, [r3]
 2821 0162 4A4A     		ldr	r2, .L159+12
 2822 0164 9342     		cmp	r3, r2
 2823 0166 7ED0     		beq	.L132
 2824              		.loc 1 1128 54 discriminator 4
 2825 0168 FB68     		ldr	r3, [r7, #12]
 2826 016a 1B68     		ldr	r3, [r3]
 2827 016c 484A     		ldr	r2, .L159+16
 2828 016e 9342     		cmp	r3, r2
 2829 0170 79D0     		beq	.L132
 2830              		.loc 1 1128 54 discriminator 5
 2831 0172 FB68     		ldr	r3, [r7, #12]
 2832 0174 1B68     		ldr	r3, [r3]
 2833 0176 474A     		ldr	r2, .L159+20
 2834 0178 9342     		cmp	r3, r2
 2835 017a 74D0     		beq	.L132
 2836              		.loc 1 1128 54 discriminator 6
 2837 017c FB68     		ldr	r3, [r7, #12]
 2838 017e 1B68     		ldr	r3, [r3]
 2839 0180 454A     		ldr	r2, .L159+24
 2840 0182 9342     		cmp	r3, r2
 2841 0184 6FD0     		beq	.L132
 2842              		.loc 1 1128 54 discriminator 7
 2843 0186 FB68     		ldr	r3, [r7, #12]
 2844 0188 1B68     		ldr	r3, [r3]
 2845 018a 444A     		ldr	r2, .L159+28
 2846 018c 9342     		cmp	r3, r2
 2847 018e 6AD0     		beq	.L132
 2848              		.loc 1 1128 54 discriminator 8
 2849 0190 FB68     		ldr	r3, [r7, #12]
 2850 0192 1B68     		ldr	r3, [r3]
 2851 0194 424A     		ldr	r2, .L159+32
 2852 0196 9342     		cmp	r3, r2
 2853 0198 6CD1     		bne	.L130
ARM GAS  /tmp/ccwTXtVb.s 			page 71


1129:STM32Cube_FW_N6/Drivers/STM32N6xx_HAL_Driver/Src/stm32n6xx_hal_spi.c ****   {
1130:STM32Cube_FW_N6/Drivers/STM32N6xx_HAL_Driver/Src/stm32n6xx_hal_spi.c ****     /* Transfer loop */
1131:STM32Cube_FW_N6/Drivers/STM32N6xx_HAL_Driver/Src/stm32n6xx_hal_spi.c ****     while (hspi->RxXferCount > 0UL)
 2854              		.loc 1 1131 11 is_stmt 1
 2855 019a 64E0     		b	.L132
 2856              	.L138:
1132:STM32Cube_FW_N6/Drivers/STM32N6xx_HAL_Driver/Src/stm32n6xx_hal_spi.c ****     {
1133:STM32Cube_FW_N6/Drivers/STM32N6xx_HAL_Driver/Src/stm32n6xx_hal_spi.c ****       /* Evaluate state of SR register */
1134:STM32Cube_FW_N6/Drivers/STM32N6xx_HAL_Driver/Src/stm32n6xx_hal_spi.c ****       temp_sr_reg = hspi->Instance->SR;
 2857              		.loc 1 1134 25
 2858 019c FB68     		ldr	r3, [r7, #12]
 2859 019e 1B68     		ldr	r3, [r3]
 2860              		.loc 1 1134 19
 2861 01a0 5B69     		ldr	r3, [r3, #20]
 2862 01a2 3B61     		str	r3, [r7, #16]
1135:STM32Cube_FW_N6/Drivers/STM32N6xx_HAL_Driver/Src/stm32n6xx_hal_spi.c **** 
1136:STM32Cube_FW_N6/Drivers/STM32N6xx_HAL_Driver/Src/stm32n6xx_hal_spi.c ****       /* Check the RXP flag */
1137:STM32Cube_FW_N6/Drivers/STM32N6xx_HAL_Driver/Src/stm32n6xx_hal_spi.c ****       if (__HAL_SPI_GET_FLAG(hspi, SPI_FLAG_RXP))
 2863              		.loc 1 1137 11
 2864 01a4 FB68     		ldr	r3, [r7, #12]
 2865 01a6 1B68     		ldr	r3, [r3]
 2866 01a8 5B69     		ldr	r3, [r3, #20]
 2867 01aa 03F00103 		and	r3, r3, #1
 2868              		.loc 1 1137 10
 2869 01ae 012B     		cmp	r3, #1
 2870 01b0 14D1     		bne	.L133
1138:STM32Cube_FW_N6/Drivers/STM32N6xx_HAL_Driver/Src/stm32n6xx_hal_spi.c ****       {
1139:STM32Cube_FW_N6/Drivers/STM32N6xx_HAL_Driver/Src/stm32n6xx_hal_spi.c ****         *((uint32_t *)hspi->pRxBuffPtr) = *((__IO uint32_t *)&hspi->Instance->RXDR);
 2871              		.loc 1 1139 67
 2872 01b2 FB68     		ldr	r3, [r7, #12]
 2873 01b4 1A68     		ldr	r2, [r3]
 2874              		.loc 1 1139 27
 2875 01b6 FB68     		ldr	r3, [r7, #12]
 2876 01b8 DB6E     		ldr	r3, [r3, #108]
 2877              		.loc 1 1139 43
 2878 01ba 126B     		ldr	r2, [r2, #48]
 2879              		.loc 1 1139 41
 2880 01bc 1A60     		str	r2, [r3]
1140:STM32Cube_FW_N6/Drivers/STM32N6xx_HAL_Driver/Src/stm32n6xx_hal_spi.c ****         hspi->pRxBuffPtr += sizeof(uint32_t);
 2881              		.loc 1 1140 13
 2882 01be FB68     		ldr	r3, [r7, #12]
 2883 01c0 DB6E     		ldr	r3, [r3, #108]
 2884              		.loc 1 1140 26
 2885 01c2 1A1D     		adds	r2, r3, #4
 2886 01c4 FB68     		ldr	r3, [r7, #12]
 2887 01c6 DA66     		str	r2, [r3, #108]
1141:STM32Cube_FW_N6/Drivers/STM32N6xx_HAL_Driver/Src/stm32n6xx_hal_spi.c ****         hspi->RxXferCount--;
 2888              		.loc 1 1141 13
 2889 01c8 FB68     		ldr	r3, [r7, #12]
 2890 01ca B3F87230 		ldrh	r3, [r3, #114]	@ movhi
 2891 01ce 9BB2     		uxth	r3, r3
 2892              		.loc 1 1141 26
 2893 01d0 013B     		subs	r3, r3, #1
 2894 01d2 9AB2     		uxth	r2, r3
 2895 01d4 FB68     		ldr	r3, [r7, #12]
 2896 01d6 A3F87220 		strh	r2, [r3, #114]	@ movhi
 2897 01da 44E0     		b	.L132
ARM GAS  /tmp/ccwTXtVb.s 			page 72


 2898              	.L133:
1142:STM32Cube_FW_N6/Drivers/STM32N6xx_HAL_Driver/Src/stm32n6xx_hal_spi.c ****       }
1143:STM32Cube_FW_N6/Drivers/STM32N6xx_HAL_Driver/Src/stm32n6xx_hal_spi.c ****       /* Check RXWNE flag if RXP cannot be reached */
1144:STM32Cube_FW_N6/Drivers/STM32N6xx_HAL_Driver/Src/stm32n6xx_hal_spi.c ****       else if ((hspi->RxXferCount < init_max_data_in_fifo) && ((temp_sr_reg & SPI_SR_RXWNE_Msk) != 
 2899              		.loc 1 1144 21
 2900 01dc FB68     		ldr	r3, [r7, #12]
 2901 01de B3F87230 		ldrh	r3, [r3, #114]	@ movhi
 2902 01e2 9BB2     		uxth	r3, r3
 2903              		.loc 1 1144 15
 2904 01e4 FA8B     		ldrh	r2, [r7, #30]
 2905 01e6 9A42     		cmp	r2, r3
 2906 01e8 19D9     		bls	.L135
 2907              		.loc 1 1144 77 discriminator 1
 2908 01ea 3B69     		ldr	r3, [r7, #16]
 2909 01ec 03F40043 		and	r3, r3, #32768
 2910              		.loc 1 1144 60 discriminator 1
 2911 01f0 002B     		cmp	r3, #0
 2912 01f2 14D0     		beq	.L135
1145:STM32Cube_FW_N6/Drivers/STM32N6xx_HAL_Driver/Src/stm32n6xx_hal_spi.c ****       {
1146:STM32Cube_FW_N6/Drivers/STM32N6xx_HAL_Driver/Src/stm32n6xx_hal_spi.c ****         *((uint32_t *)hspi->pRxBuffPtr) = *((__IO uint32_t *)&hspi->Instance->RXDR);
 2913              		.loc 1 1146 67
 2914 01f4 FB68     		ldr	r3, [r7, #12]
 2915 01f6 1A68     		ldr	r2, [r3]
 2916              		.loc 1 1146 27
 2917 01f8 FB68     		ldr	r3, [r7, #12]
 2918 01fa DB6E     		ldr	r3, [r3, #108]
 2919              		.loc 1 1146 43
 2920 01fc 126B     		ldr	r2, [r2, #48]
 2921              		.loc 1 1146 41
 2922 01fe 1A60     		str	r2, [r3]
1147:STM32Cube_FW_N6/Drivers/STM32N6xx_HAL_Driver/Src/stm32n6xx_hal_spi.c ****         hspi->pRxBuffPtr += sizeof(uint32_t);
 2923              		.loc 1 1147 13
 2924 0200 FB68     		ldr	r3, [r7, #12]
 2925 0202 DB6E     		ldr	r3, [r3, #108]
 2926              		.loc 1 1147 26
 2927 0204 1A1D     		adds	r2, r3, #4
 2928 0206 FB68     		ldr	r3, [r7, #12]
 2929 0208 DA66     		str	r2, [r3, #108]
1148:STM32Cube_FW_N6/Drivers/STM32N6xx_HAL_Driver/Src/stm32n6xx_hal_spi.c ****         hspi->RxXferCount--;
 2930              		.loc 1 1148 13
 2931 020a FB68     		ldr	r3, [r7, #12]
 2932 020c B3F87230 		ldrh	r3, [r3, #114]	@ movhi
 2933 0210 9BB2     		uxth	r3, r3
 2934              		.loc 1 1148 26
 2935 0212 013B     		subs	r3, r3, #1
 2936 0214 9AB2     		uxth	r2, r3
 2937 0216 FB68     		ldr	r3, [r7, #12]
 2938 0218 A3F87220 		strh	r2, [r3, #114]	@ movhi
 2939 021c 23E0     		b	.L132
 2940              	.L135:
1149:STM32Cube_FW_N6/Drivers/STM32N6xx_HAL_Driver/Src/stm32n6xx_hal_spi.c ****       }
1150:STM32Cube_FW_N6/Drivers/STM32N6xx_HAL_Driver/Src/stm32n6xx_hal_spi.c ****       else
1151:STM32Cube_FW_N6/Drivers/STM32N6xx_HAL_Driver/Src/stm32n6xx_hal_spi.c ****       {
1152:STM32Cube_FW_N6/Drivers/STM32N6xx_HAL_Driver/Src/stm32n6xx_hal_spi.c ****         /* Timeout management */
1153:STM32Cube_FW_N6/Drivers/STM32N6xx_HAL_Driver/Src/stm32n6xx_hal_spi.c ****         if ((((HAL_GetTick() - tickstart) >=  Timeout) && (Timeout != HAL_MAX_DELAY)) || (Timeout =
 2941              		.loc 1 1153 16
 2942 021e FFF7FEFF 		bl	HAL_GetTick
ARM GAS  /tmp/ccwTXtVb.s 			page 73


 2943 0222 0246     		mov	r2, r0
 2944              		.loc 1 1153 30 discriminator 1
 2945 0224 7B69     		ldr	r3, [r7, #20]
 2946 0226 D31A     		subs	r3, r2, r3
 2947              		.loc 1 1153 12 discriminator 1
 2948 0228 3A68     		ldr	r2, [r7]
 2949 022a 9A42     		cmp	r2, r3
 2950 022c 03D8     		bhi	.L136
 2951              		.loc 1 1153 56 discriminator 1
 2952 022e 3B68     		ldr	r3, [r7]
 2953 0230 B3F1FF3F 		cmp	r3, #-1
 2954 0234 02D1     		bne	.L137
 2955              	.L136:
 2956              		.loc 1 1153 87 discriminator 3
 2957 0236 3B68     		ldr	r3, [r7]
 2958 0238 002B     		cmp	r3, #0
 2959 023a 14D1     		bne	.L132
 2960              	.L137:
1154:STM32Cube_FW_N6/Drivers/STM32N6xx_HAL_Driver/Src/stm32n6xx_hal_spi.c ****         {
1155:STM32Cube_FW_N6/Drivers/STM32N6xx_HAL_Driver/Src/stm32n6xx_hal_spi.c ****           /* Call standard close procedure with error check */
1156:STM32Cube_FW_N6/Drivers/STM32N6xx_HAL_Driver/Src/stm32n6xx_hal_spi.c ****           SPI_CloseTransfer(hspi);
 2961              		.loc 1 1156 11
 2962 023c F868     		ldr	r0, [r7, #12]
 2963 023e FFF7FEFF 		bl	SPI_CloseTransfer
1157:STM32Cube_FW_N6/Drivers/STM32N6xx_HAL_Driver/Src/stm32n6xx_hal_spi.c **** 
1158:STM32Cube_FW_N6/Drivers/STM32N6xx_HAL_Driver/Src/stm32n6xx_hal_spi.c ****           SET_BIT(hspi->ErrorCode, HAL_SPI_ERROR_TIMEOUT);
 2964              		.loc 1 1158 11
 2965 0242 FB68     		ldr	r3, [r7, #12]
 2966 0244 D3F88C30 		ldr	r3, [r3, #140]
 2967 0248 43F48072 		orr	r2, r3, #256
 2968 024c FB68     		ldr	r3, [r7, #12]
 2969 024e C3F88C20 		str	r2, [r3, #140]
1159:STM32Cube_FW_N6/Drivers/STM32N6xx_HAL_Driver/Src/stm32n6xx_hal_spi.c ****           hspi->State = HAL_SPI_STATE_READY;
 2970              		.loc 1 1159 23
 2971 0252 FB68     		ldr	r3, [r7, #12]
 2972 0254 0122     		movs	r2, #1
 2973 0256 83F88920 		strb	r2, [r3, #137]
1160:STM32Cube_FW_N6/Drivers/STM32N6xx_HAL_Driver/Src/stm32n6xx_hal_spi.c **** 
1161:STM32Cube_FW_N6/Drivers/STM32N6xx_HAL_Driver/Src/stm32n6xx_hal_spi.c ****           /* Unlock the process */
1162:STM32Cube_FW_N6/Drivers/STM32N6xx_HAL_Driver/Src/stm32n6xx_hal_spi.c ****           __HAL_UNLOCK(hspi);
 2974              		.loc 1 1162 11
 2975 025a FB68     		ldr	r3, [r7, #12]
 2976 025c 0022     		movs	r2, #0
 2977 025e 83F88820 		strb	r2, [r3, #136]
1163:STM32Cube_FW_N6/Drivers/STM32N6xx_HAL_Driver/Src/stm32n6xx_hal_spi.c **** 
1164:STM32Cube_FW_N6/Drivers/STM32N6xx_HAL_Driver/Src/stm32n6xx_hal_spi.c ****           return HAL_TIMEOUT;
 2978              		.loc 1 1164 18
 2979 0262 0323     		movs	r3, #3
 2980 0264 A0E1     		b	.L123
 2981              	.L132:
1131:STM32Cube_FW_N6/Drivers/STM32N6xx_HAL_Driver/Src/stm32n6xx_hal_spi.c ****     {
 2982              		.loc 1 1131 16
 2983 0266 FB68     		ldr	r3, [r7, #12]
 2984 0268 B3F87230 		ldrh	r3, [r3, #114]	@ movhi
 2985 026c 9BB2     		uxth	r3, r3
1131:STM32Cube_FW_N6/Drivers/STM32N6xx_HAL_Driver/Src/stm32n6xx_hal_spi.c ****     {
 2986              		.loc 1 1131 30
ARM GAS  /tmp/ccwTXtVb.s 			page 74


 2987 026e 002B     		cmp	r3, #0
 2988 0270 94D1     		bne	.L138
1128:STM32Cube_FW_N6/Drivers/STM32N6xx_HAL_Driver/Src/stm32n6xx_hal_spi.c ****   {
 2989              		.loc 1 1128 6
 2990 0272 6EE1     		b	.L139
 2991              	.L130:
1165:STM32Cube_FW_N6/Drivers/STM32N6xx_HAL_Driver/Src/stm32n6xx_hal_spi.c ****         }
1166:STM32Cube_FW_N6/Drivers/STM32N6xx_HAL_Driver/Src/stm32n6xx_hal_spi.c ****       }
1167:STM32Cube_FW_N6/Drivers/STM32N6xx_HAL_Driver/Src/stm32n6xx_hal_spi.c ****     }
1168:STM32Cube_FW_N6/Drivers/STM32N6xx_HAL_Driver/Src/stm32n6xx_hal_spi.c ****   }
