ARM GAS  /tmp/ccRD6zT9.s 			page 1


   1              		.arch armv8.1-m.main
   2              		.fpu fpv5-d16
   3              		.arch_extension dsp
   4              		.arch_extension fp
   5              		.arch_extension fp.dp
   6              		.arch_extension mve
   7              		.arch_extension mve.fp
   8              		.eabi_attribute 5, "cortex-m55"
   9              		.eabi_attribute 28, 1
  10              		.eabi_attribute 20, 1
  11              		.eabi_attribute 21, 1
  12              		.eabi_attribute 23, 3
  13              		.eabi_attribute 24, 1
  14              		.eabi_attribute 25, 1
  15              		.eabi_attribute 26, 1
  16              		.eabi_attribute 30, 6
  17              		.eabi_attribute 34, 1
  18              		.eabi_attribute 38, 1
  19              		.eabi_attribute 18, 4
  20              		.file	"stm32n6xx_hal_exti.c"
  21              		.text
  22              	.Ltext0:
  23              		.cfi_sections	.debug_frame
  24              		.file 1 "STM32Cube_FW_N6/Drivers/STM32N6xx_HAL_Driver/Src/stm32n6xx_hal_exti.c"
  25              		.section	.rodata
  26              		.align	2
  27              	.LC0:
  28 0000 53544D33 		.ascii	"STM32Cube_FW_N6/Drivers/STM32N6xx_HAL_Driver/Src/st"
  28      32437562 
  28      655F4657 
  28      5F4E362F 
  28      44726976 
  29 0033 6D33326E 		.ascii	"m32n6xx_hal_exti.c\000"
  29      3678785F 
  29      68616C5F 
  29      65787469 
  29      2E6300
  30              		.section	.text.HAL_EXTI_SetConfigLine,"ax",%progbits
  31              		.align	1
  32              		.global	HAL_EXTI_SetConfigLine
  33              		.syntax unified
  34              		.thumb
  35              		.thumb_func
  37              	HAL_EXTI_SetConfigLine:
  38              	.LFB835:
   1:STM32Cube_FW_N6/Drivers/STM32N6xx_HAL_Driver/Src/stm32n6xx_hal_exti.c **** /**
   2:STM32Cube_FW_N6/Drivers/STM32N6xx_HAL_Driver/Src/stm32n6xx_hal_exti.c ****   ******************************************************************************
   3:STM32Cube_FW_N6/Drivers/STM32N6xx_HAL_Driver/Src/stm32n6xx_hal_exti.c ****   * @file    stm32n6xx_hal_exti.c
   4:STM32Cube_FW_N6/Drivers/STM32N6xx_HAL_Driver/Src/stm32n6xx_hal_exti.c ****   * @author  GPM Application Team
   5:STM32Cube_FW_N6/Drivers/STM32N6xx_HAL_Driver/Src/stm32n6xx_hal_exti.c ****   * @brief   EXTI HAL module driver.
   6:STM32Cube_FW_N6/Drivers/STM32N6xx_HAL_Driver/Src/stm32n6xx_hal_exti.c ****   *          This file provides firmware functions to manage the following
   7:STM32Cube_FW_N6/Drivers/STM32N6xx_HAL_Driver/Src/stm32n6xx_hal_exti.c ****   *          functionalities of the General Purpose Input/Output (EXTI) peripheral:
   8:STM32Cube_FW_N6/Drivers/STM32N6xx_HAL_Driver/Src/stm32n6xx_hal_exti.c ****   *           + Initialization and de-initialization functions
   9:STM32Cube_FW_N6/Drivers/STM32N6xx_HAL_Driver/Src/stm32n6xx_hal_exti.c ****   *           + IO operation functions
  10:STM32Cube_FW_N6/Drivers/STM32N6xx_HAL_Driver/Src/stm32n6xx_hal_exti.c ****   *
  11:STM32Cube_FW_N6/Drivers/STM32N6xx_HAL_Driver/Src/stm32n6xx_hal_exti.c ****   ******************************************************************************
  12:STM32Cube_FW_N6/Drivers/STM32N6xx_HAL_Driver/Src/stm32n6xx_hal_exti.c ****   * @attention
ARM GAS  /tmp/ccRD6zT9.s 			page 2


  13:STM32Cube_FW_N6/Drivers/STM32N6xx_HAL_Driver/Src/stm32n6xx_hal_exti.c ****   *
  14:STM32Cube_FW_N6/Drivers/STM32N6xx_HAL_Driver/Src/stm32n6xx_hal_exti.c ****   * Copyright (c) 2023 STMicroelectronics.
  15:STM32Cube_FW_N6/Drivers/STM32N6xx_HAL_Driver/Src/stm32n6xx_hal_exti.c ****   * All rights reserved.
  16:STM32Cube_FW_N6/Drivers/STM32N6xx_HAL_Driver/Src/stm32n6xx_hal_exti.c ****   *
  17:STM32Cube_FW_N6/Drivers/STM32N6xx_HAL_Driver/Src/stm32n6xx_hal_exti.c ****   * This software is licensed under terms that can be found in the LICENSE file
  18:STM32Cube_FW_N6/Drivers/STM32N6xx_HAL_Driver/Src/stm32n6xx_hal_exti.c ****   * in the root directory of this software component.
  19:STM32Cube_FW_N6/Drivers/STM32N6xx_HAL_Driver/Src/stm32n6xx_hal_exti.c ****   * If no LICENSE file comes with this software, it is provided AS-IS.
  20:STM32Cube_FW_N6/Drivers/STM32N6xx_HAL_Driver/Src/stm32n6xx_hal_exti.c ****   *
  21:STM32Cube_FW_N6/Drivers/STM32N6xx_HAL_Driver/Src/stm32n6xx_hal_exti.c ****   ******************************************************************************
  22:STM32Cube_FW_N6/Drivers/STM32N6xx_HAL_Driver/Src/stm32n6xx_hal_exti.c ****   @verbatim
  23:STM32Cube_FW_N6/Drivers/STM32N6xx_HAL_Driver/Src/stm32n6xx_hal_exti.c ****   ==============================================================================
  24:STM32Cube_FW_N6/Drivers/STM32N6xx_HAL_Driver/Src/stm32n6xx_hal_exti.c ****                     ##### EXTI Peripheral features #####
  25:STM32Cube_FW_N6/Drivers/STM32N6xx_HAL_Driver/Src/stm32n6xx_hal_exti.c ****   ==============================================================================
  26:STM32Cube_FW_N6/Drivers/STM32N6xx_HAL_Driver/Src/stm32n6xx_hal_exti.c ****   [..]
  27:STM32Cube_FW_N6/Drivers/STM32N6xx_HAL_Driver/Src/stm32n6xx_hal_exti.c ****     (+) Each Exti line can be configured within this driver.
  28:STM32Cube_FW_N6/Drivers/STM32N6xx_HAL_Driver/Src/stm32n6xx_hal_exti.c **** 
  29:STM32Cube_FW_N6/Drivers/STM32N6xx_HAL_Driver/Src/stm32n6xx_hal_exti.c ****     (+) Exti line can be configured in 3 different modes
  30:STM32Cube_FW_N6/Drivers/STM32N6xx_HAL_Driver/Src/stm32n6xx_hal_exti.c ****         (++) Interrupt
  31:STM32Cube_FW_N6/Drivers/STM32N6xx_HAL_Driver/Src/stm32n6xx_hal_exti.c ****         (++) Event
  32:STM32Cube_FW_N6/Drivers/STM32N6xx_HAL_Driver/Src/stm32n6xx_hal_exti.c ****         (++) Both of them
  33:STM32Cube_FW_N6/Drivers/STM32N6xx_HAL_Driver/Src/stm32n6xx_hal_exti.c **** 
  34:STM32Cube_FW_N6/Drivers/STM32N6xx_HAL_Driver/Src/stm32n6xx_hal_exti.c ****     (+) Configurable Exti lines can be configured with 3 different triggers
  35:STM32Cube_FW_N6/Drivers/STM32N6xx_HAL_Driver/Src/stm32n6xx_hal_exti.c ****         (++) Rising
  36:STM32Cube_FW_N6/Drivers/STM32N6xx_HAL_Driver/Src/stm32n6xx_hal_exti.c ****         (++) Falling
  37:STM32Cube_FW_N6/Drivers/STM32N6xx_HAL_Driver/Src/stm32n6xx_hal_exti.c ****         (++) Both of them
  38:STM32Cube_FW_N6/Drivers/STM32N6xx_HAL_Driver/Src/stm32n6xx_hal_exti.c **** 
  39:STM32Cube_FW_N6/Drivers/STM32N6xx_HAL_Driver/Src/stm32n6xx_hal_exti.c ****     (+) When set in interrupt mode, configurable Exti lines have two different
  40:STM32Cube_FW_N6/Drivers/STM32N6xx_HAL_Driver/Src/stm32n6xx_hal_exti.c ****         interrupt pending registers which allow to distinguish which transition
  41:STM32Cube_FW_N6/Drivers/STM32N6xx_HAL_Driver/Src/stm32n6xx_hal_exti.c ****         occurs:
  42:STM32Cube_FW_N6/Drivers/STM32N6xx_HAL_Driver/Src/stm32n6xx_hal_exti.c ****         (++) Rising edge pending interrupt
  43:STM32Cube_FW_N6/Drivers/STM32N6xx_HAL_Driver/Src/stm32n6xx_hal_exti.c ****         (++) Falling
  44:STM32Cube_FW_N6/Drivers/STM32N6xx_HAL_Driver/Src/stm32n6xx_hal_exti.c **** 
  45:STM32Cube_FW_N6/Drivers/STM32N6xx_HAL_Driver/Src/stm32n6xx_hal_exti.c ****     (+) Exti lines 0 to 15 are linked to gpio pin number 0 to 15. Gpio port can
  46:STM32Cube_FW_N6/Drivers/STM32N6xx_HAL_Driver/Src/stm32n6xx_hal_exti.c ****         be selected through multiplexer.
  47:STM32Cube_FW_N6/Drivers/STM32N6xx_HAL_Driver/Src/stm32n6xx_hal_exti.c **** 
  48:STM32Cube_FW_N6/Drivers/STM32N6xx_HAL_Driver/Src/stm32n6xx_hal_exti.c ****                      ##### How to use this driver #####
  49:STM32Cube_FW_N6/Drivers/STM32N6xx_HAL_Driver/Src/stm32n6xx_hal_exti.c ****   ==============================================================================
  50:STM32Cube_FW_N6/Drivers/STM32N6xx_HAL_Driver/Src/stm32n6xx_hal_exti.c ****   [..]
  51:STM32Cube_FW_N6/Drivers/STM32N6xx_HAL_Driver/Src/stm32n6xx_hal_exti.c **** 
  52:STM32Cube_FW_N6/Drivers/STM32N6xx_HAL_Driver/Src/stm32n6xx_hal_exti.c ****     (#) Configure the EXTI line using HAL_EXTI_SetConfigLine().
  53:STM32Cube_FW_N6/Drivers/STM32N6xx_HAL_Driver/Src/stm32n6xx_hal_exti.c ****         (++) Choose the interrupt line number by setting "Line" member from
  54:STM32Cube_FW_N6/Drivers/STM32N6xx_HAL_Driver/Src/stm32n6xx_hal_exti.c ****              EXTI_ConfigTypeDef structure.
  55:STM32Cube_FW_N6/Drivers/STM32N6xx_HAL_Driver/Src/stm32n6xx_hal_exti.c ****         (++) Configure the interrupt and/or event mode using "Mode" member from
  56:STM32Cube_FW_N6/Drivers/STM32N6xx_HAL_Driver/Src/stm32n6xx_hal_exti.c ****              EXTI_ConfigTypeDef structure.
  57:STM32Cube_FW_N6/Drivers/STM32N6xx_HAL_Driver/Src/stm32n6xx_hal_exti.c ****         (++) For configurable lines, configure rising and/or falling trigger
  58:STM32Cube_FW_N6/Drivers/STM32N6xx_HAL_Driver/Src/stm32n6xx_hal_exti.c ****              "Trigger" member from EXTI_ConfigTypeDef structure.
  59:STM32Cube_FW_N6/Drivers/STM32N6xx_HAL_Driver/Src/stm32n6xx_hal_exti.c ****         (++) For Exti lines linked to gpio, choose gpio port using "GPIOSel"
  60:STM32Cube_FW_N6/Drivers/STM32N6xx_HAL_Driver/Src/stm32n6xx_hal_exti.c ****              member from GPIO_InitTypeDef structure.
  61:STM32Cube_FW_N6/Drivers/STM32N6xx_HAL_Driver/Src/stm32n6xx_hal_exti.c **** 
  62:STM32Cube_FW_N6/Drivers/STM32N6xx_HAL_Driver/Src/stm32n6xx_hal_exti.c ****     (#) Get current Exti configuration of a dedicated line using
  63:STM32Cube_FW_N6/Drivers/STM32N6xx_HAL_Driver/Src/stm32n6xx_hal_exti.c ****         HAL_EXTI_GetConfigLine().
  64:STM32Cube_FW_N6/Drivers/STM32N6xx_HAL_Driver/Src/stm32n6xx_hal_exti.c ****         (++) Provide exiting handle as parameter.
  65:STM32Cube_FW_N6/Drivers/STM32N6xx_HAL_Driver/Src/stm32n6xx_hal_exti.c ****         (++) Provide pointer on EXTI_ConfigTypeDef structure as second parameter.
  66:STM32Cube_FW_N6/Drivers/STM32N6xx_HAL_Driver/Src/stm32n6xx_hal_exti.c **** 
  67:STM32Cube_FW_N6/Drivers/STM32N6xx_HAL_Driver/Src/stm32n6xx_hal_exti.c ****     (#) Clear Exti configuration of a dedicated line using HAL_EXTI_ClearConfigLine().
  68:STM32Cube_FW_N6/Drivers/STM32N6xx_HAL_Driver/Src/stm32n6xx_hal_exti.c ****         (++) Provide exiting handle as parameter.
  69:STM32Cube_FW_N6/Drivers/STM32N6xx_HAL_Driver/Src/stm32n6xx_hal_exti.c **** 
ARM GAS  /tmp/ccRD6zT9.s 			page 3


  70:STM32Cube_FW_N6/Drivers/STM32N6xx_HAL_Driver/Src/stm32n6xx_hal_exti.c ****     (#) Register callback to treat Exti interrupts using HAL_EXTI_RegisterCallback().
  71:STM32Cube_FW_N6/Drivers/STM32N6xx_HAL_Driver/Src/stm32n6xx_hal_exti.c ****         (++) Provide exiting handle as first parameter.
  72:STM32Cube_FW_N6/Drivers/STM32N6xx_HAL_Driver/Src/stm32n6xx_hal_exti.c ****         (++) Provide which callback will be registered using one value from
  73:STM32Cube_FW_N6/Drivers/STM32N6xx_HAL_Driver/Src/stm32n6xx_hal_exti.c ****              EXTI_CallbackIDTypeDef.
  74:STM32Cube_FW_N6/Drivers/STM32N6xx_HAL_Driver/Src/stm32n6xx_hal_exti.c ****         (++) Provide callback function pointer.
  75:STM32Cube_FW_N6/Drivers/STM32N6xx_HAL_Driver/Src/stm32n6xx_hal_exti.c **** 
  76:STM32Cube_FW_N6/Drivers/STM32N6xx_HAL_Driver/Src/stm32n6xx_hal_exti.c ****     (#) Get interrupt pending bit using HAL_EXTI_GetPending().
  77:STM32Cube_FW_N6/Drivers/STM32N6xx_HAL_Driver/Src/stm32n6xx_hal_exti.c **** 
  78:STM32Cube_FW_N6/Drivers/STM32N6xx_HAL_Driver/Src/stm32n6xx_hal_exti.c ****     (#) Clear interrupt pending bit using HAL_EXTI_ClearPending().
  79:STM32Cube_FW_N6/Drivers/STM32N6xx_HAL_Driver/Src/stm32n6xx_hal_exti.c **** 
  80:STM32Cube_FW_N6/Drivers/STM32N6xx_HAL_Driver/Src/stm32n6xx_hal_exti.c ****     (#) Generate software interrupt using HAL_EXTI_GenerateSWI().
  81:STM32Cube_FW_N6/Drivers/STM32N6xx_HAL_Driver/Src/stm32n6xx_hal_exti.c **** 
  82:STM32Cube_FW_N6/Drivers/STM32N6xx_HAL_Driver/Src/stm32n6xx_hal_exti.c ****   @endverbatim
  83:STM32Cube_FW_N6/Drivers/STM32N6xx_HAL_Driver/Src/stm32n6xx_hal_exti.c ****   ******************************************************************************
  84:STM32Cube_FW_N6/Drivers/STM32N6xx_HAL_Driver/Src/stm32n6xx_hal_exti.c ****   */
  85:STM32Cube_FW_N6/Drivers/STM32N6xx_HAL_Driver/Src/stm32n6xx_hal_exti.c **** 
  86:STM32Cube_FW_N6/Drivers/STM32N6xx_HAL_Driver/Src/stm32n6xx_hal_exti.c **** /* Includes ------------------------------------------------------------------*/
  87:STM32Cube_FW_N6/Drivers/STM32N6xx_HAL_Driver/Src/stm32n6xx_hal_exti.c **** #include "stm32n6xx_hal.h"
  88:STM32Cube_FW_N6/Drivers/STM32N6xx_HAL_Driver/Src/stm32n6xx_hal_exti.c **** 
  89:STM32Cube_FW_N6/Drivers/STM32N6xx_HAL_Driver/Src/stm32n6xx_hal_exti.c **** /** @addtogroup STM32N6xx_HAL_Driver
  90:STM32Cube_FW_N6/Drivers/STM32N6xx_HAL_Driver/Src/stm32n6xx_hal_exti.c ****   * @{
  91:STM32Cube_FW_N6/Drivers/STM32N6xx_HAL_Driver/Src/stm32n6xx_hal_exti.c ****   */
  92:STM32Cube_FW_N6/Drivers/STM32N6xx_HAL_Driver/Src/stm32n6xx_hal_exti.c **** 
  93:STM32Cube_FW_N6/Drivers/STM32N6xx_HAL_Driver/Src/stm32n6xx_hal_exti.c **** /** @addtogroup EXTI
  94:STM32Cube_FW_N6/Drivers/STM32N6xx_HAL_Driver/Src/stm32n6xx_hal_exti.c ****   * @{
  95:STM32Cube_FW_N6/Drivers/STM32N6xx_HAL_Driver/Src/stm32n6xx_hal_exti.c ****   */
  96:STM32Cube_FW_N6/Drivers/STM32N6xx_HAL_Driver/Src/stm32n6xx_hal_exti.c **** 
  97:STM32Cube_FW_N6/Drivers/STM32N6xx_HAL_Driver/Src/stm32n6xx_hal_exti.c **** #ifdef HAL_EXTI_MODULE_ENABLED
  98:STM32Cube_FW_N6/Drivers/STM32N6xx_HAL_Driver/Src/stm32n6xx_hal_exti.c **** 
  99:STM32Cube_FW_N6/Drivers/STM32N6xx_HAL_Driver/Src/stm32n6xx_hal_exti.c **** /* Private typedef -----------------------------------------------------------*/
 100:STM32Cube_FW_N6/Drivers/STM32N6xx_HAL_Driver/Src/stm32n6xx_hal_exti.c **** /* Private defines ------------------------------------------------------------*/
 101:STM32Cube_FW_N6/Drivers/STM32N6xx_HAL_Driver/Src/stm32n6xx_hal_exti.c **** /** @defgroup EXTI_Private_Constants EXTI Private Constants
 102:STM32Cube_FW_N6/Drivers/STM32N6xx_HAL_Driver/Src/stm32n6xx_hal_exti.c ****   * @{
 103:STM32Cube_FW_N6/Drivers/STM32N6xx_HAL_Driver/Src/stm32n6xx_hal_exti.c ****   */
 104:STM32Cube_FW_N6/Drivers/STM32N6xx_HAL_Driver/Src/stm32n6xx_hal_exti.c **** #define EXTI_MODE_OFFSET                    0x04U   /* byte offset between IMRx/EMRx registers */
 105:STM32Cube_FW_N6/Drivers/STM32N6xx_HAL_Driver/Src/stm32n6xx_hal_exti.c **** #define EXTI_CONFIG_OFFSET                  0x08U   /* byte offset between Rising/Falling configura
 106:STM32Cube_FW_N6/Drivers/STM32N6xx_HAL_Driver/Src/stm32n6xx_hal_exti.c **** #define EXTI_PRIVCFGR_OFFSET                0x08U   /* byte offset between PRIVCFGRx/PRIVCFGRx regi
 107:STM32Cube_FW_N6/Drivers/STM32N6xx_HAL_Driver/Src/stm32n6xx_hal_exti.c **** #define EXTI_SECCFGR_OFFSET                 0x08U   /* byte offset between SECCFGRx/SECCFGRx regist
 108:STM32Cube_FW_N6/Drivers/STM32N6xx_HAL_Driver/Src/stm32n6xx_hal_exti.c **** /**
 109:STM32Cube_FW_N6/Drivers/STM32N6xx_HAL_Driver/Src/stm32n6xx_hal_exti.c ****   * @}
 110:STM32Cube_FW_N6/Drivers/STM32N6xx_HAL_Driver/Src/stm32n6xx_hal_exti.c ****   */
 111:STM32Cube_FW_N6/Drivers/STM32N6xx_HAL_Driver/Src/stm32n6xx_hal_exti.c **** 
 112:STM32Cube_FW_N6/Drivers/STM32N6xx_HAL_Driver/Src/stm32n6xx_hal_exti.c **** /* Private macros ------------------------------------------------------------*/
 113:STM32Cube_FW_N6/Drivers/STM32N6xx_HAL_Driver/Src/stm32n6xx_hal_exti.c **** /* Private variables ---------------------------------------------------------*/
 114:STM32Cube_FW_N6/Drivers/STM32N6xx_HAL_Driver/Src/stm32n6xx_hal_exti.c **** /* Private function prototypes -----------------------------------------------*/
 115:STM32Cube_FW_N6/Drivers/STM32N6xx_HAL_Driver/Src/stm32n6xx_hal_exti.c **** /* Exported functions --------------------------------------------------------*/
 116:STM32Cube_FW_N6/Drivers/STM32N6xx_HAL_Driver/Src/stm32n6xx_hal_exti.c **** 
 117:STM32Cube_FW_N6/Drivers/STM32N6xx_HAL_Driver/Src/stm32n6xx_hal_exti.c **** /** @addtogroup EXTI_Exported_Functions
 118:STM32Cube_FW_N6/Drivers/STM32N6xx_HAL_Driver/Src/stm32n6xx_hal_exti.c ****   * @{
 119:STM32Cube_FW_N6/Drivers/STM32N6xx_HAL_Driver/Src/stm32n6xx_hal_exti.c ****   */
 120:STM32Cube_FW_N6/Drivers/STM32N6xx_HAL_Driver/Src/stm32n6xx_hal_exti.c **** 
 121:STM32Cube_FW_N6/Drivers/STM32N6xx_HAL_Driver/Src/stm32n6xx_hal_exti.c **** /** @addtogroup EXTI_Exported_Functions_Group1
 122:STM32Cube_FW_N6/Drivers/STM32N6xx_HAL_Driver/Src/stm32n6xx_hal_exti.c ****   *  @brief    Configuration functions
 123:STM32Cube_FW_N6/Drivers/STM32N6xx_HAL_Driver/Src/stm32n6xx_hal_exti.c ****   *
 124:STM32Cube_FW_N6/Drivers/STM32N6xx_HAL_Driver/Src/stm32n6xx_hal_exti.c **** @verbatim
 125:STM32Cube_FW_N6/Drivers/STM32N6xx_HAL_Driver/Src/stm32n6xx_hal_exti.c ****  ===============================================================================
 126:STM32Cube_FW_N6/Drivers/STM32N6xx_HAL_Driver/Src/stm32n6xx_hal_exti.c ****               ##### Configuration functions #####
ARM GAS  /tmp/ccRD6zT9.s 			page 4


 127:STM32Cube_FW_N6/Drivers/STM32N6xx_HAL_Driver/Src/stm32n6xx_hal_exti.c ****  ===============================================================================
 128:STM32Cube_FW_N6/Drivers/STM32N6xx_HAL_Driver/Src/stm32n6xx_hal_exti.c **** 
 129:STM32Cube_FW_N6/Drivers/STM32N6xx_HAL_Driver/Src/stm32n6xx_hal_exti.c **** @endverbatim
 130:STM32Cube_FW_N6/Drivers/STM32N6xx_HAL_Driver/Src/stm32n6xx_hal_exti.c ****   * @{
 131:STM32Cube_FW_N6/Drivers/STM32N6xx_HAL_Driver/Src/stm32n6xx_hal_exti.c ****   */
 132:STM32Cube_FW_N6/Drivers/STM32N6xx_HAL_Driver/Src/stm32n6xx_hal_exti.c **** 
 133:STM32Cube_FW_N6/Drivers/STM32N6xx_HAL_Driver/Src/stm32n6xx_hal_exti.c **** /**
 134:STM32Cube_FW_N6/Drivers/STM32N6xx_HAL_Driver/Src/stm32n6xx_hal_exti.c ****   * @brief  Set configuration of a dedicated Exti line.
 135:STM32Cube_FW_N6/Drivers/STM32N6xx_HAL_Driver/Src/stm32n6xx_hal_exti.c ****   * @param  hexti Exti handle.
 136:STM32Cube_FW_N6/Drivers/STM32N6xx_HAL_Driver/Src/stm32n6xx_hal_exti.c ****   * @param  pExtiConfig Pointer on EXTI configuration to be set.
 137:STM32Cube_FW_N6/Drivers/STM32N6xx_HAL_Driver/Src/stm32n6xx_hal_exti.c ****   * @retval HAL Status.
 138:STM32Cube_FW_N6/Drivers/STM32N6xx_HAL_Driver/Src/stm32n6xx_hal_exti.c ****   */
 139:STM32Cube_FW_N6/Drivers/STM32N6xx_HAL_Driver/Src/stm32n6xx_hal_exti.c **** HAL_StatusTypeDef HAL_EXTI_SetConfigLine(EXTI_HandleTypeDef *hexti, const EXTI_ConfigTypeDef *pExti
 140:STM32Cube_FW_N6/Drivers/STM32N6xx_HAL_Driver/Src/stm32n6xx_hal_exti.c **** {
  39              		.loc 1 140 1
  40              		.cfi_startproc
  41              		@ args = 0, pretend = 0, frame = 32
  42              		@ frame_needed = 1, uses_anonymous_args = 0
  43 0000 80B5     		push	{r7, lr}
  44              		.cfi_def_cfa_offset 8
  45              		.cfi_offset 7, -8
  46              		.cfi_offset 14, -4
  47 0002 88B0     		sub	sp, sp, #32
  48              		.cfi_def_cfa_offset 40
  49 0004 00AF     		add	r7, sp, #0
  50              		.cfi_def_cfa_register 7
  51 0006 7860     		str	r0, [r7, #4]
  52 0008 3960     		str	r1, [r7]
 141:STM32Cube_FW_N6/Drivers/STM32N6xx_HAL_Driver/Src/stm32n6xx_hal_exti.c ****   __IO uint32_t *regaddr;
 142:STM32Cube_FW_N6/Drivers/STM32N6xx_HAL_Driver/Src/stm32n6xx_hal_exti.c ****   uint32_t regval;
 143:STM32Cube_FW_N6/Drivers/STM32N6xx_HAL_Driver/Src/stm32n6xx_hal_exti.c ****   uint32_t linepos;
 144:STM32Cube_FW_N6/Drivers/STM32N6xx_HAL_Driver/Src/stm32n6xx_hal_exti.c ****   uint32_t maskline;
 145:STM32Cube_FW_N6/Drivers/STM32N6xx_HAL_Driver/Src/stm32n6xx_hal_exti.c ****   uint32_t offset;
 146:STM32Cube_FW_N6/Drivers/STM32N6xx_HAL_Driver/Src/stm32n6xx_hal_exti.c **** 
 147:STM32Cube_FW_N6/Drivers/STM32N6xx_HAL_Driver/Src/stm32n6xx_hal_exti.c ****   /* Check null pointer */
 148:STM32Cube_FW_N6/Drivers/STM32N6xx_HAL_Driver/Src/stm32n6xx_hal_exti.c ****   if ((hexti == NULL) || (pExtiConfig == NULL))
  53              		.loc 1 148 6
  54 000a 7B68     		ldr	r3, [r7, #4]
  55 000c 002B     		cmp	r3, #0
  56 000e 02D0     		beq	.L2
  57              		.loc 1 148 23 discriminator 1
  58 0010 3B68     		ldr	r3, [r7]
  59 0012 002B     		cmp	r3, #0
  60 0014 01D1     		bne	.L3
  61              	.L2:
 149:STM32Cube_FW_N6/Drivers/STM32N6xx_HAL_Driver/Src/stm32n6xx_hal_exti.c ****   {
 150:STM32Cube_FW_N6/Drivers/STM32N6xx_HAL_Driver/Src/stm32n6xx_hal_exti.c ****     return HAL_ERROR;
  62              		.loc 1 150 12
  63 0016 0123     		movs	r3, #1
  64 0018 47E1     		b	.L4
  65              	.L3:
 151:STM32Cube_FW_N6/Drivers/STM32N6xx_HAL_Driver/Src/stm32n6xx_hal_exti.c ****   }
 152:STM32Cube_FW_N6/Drivers/STM32N6xx_HAL_Driver/Src/stm32n6xx_hal_exti.c **** 
 153:STM32Cube_FW_N6/Drivers/STM32N6xx_HAL_Driver/Src/stm32n6xx_hal_exti.c ****   /* Check the parameters */
 154:STM32Cube_FW_N6/Drivers/STM32N6xx_HAL_Driver/Src/stm32n6xx_hal_exti.c ****   assert_param(IS_EXTI_LINE(pExtiConfig->Line));
  66              		.loc 1 154 3
  67 001a 3B68     		ldr	r3, [r7]
ARM GAS  /tmp/ccRD6zT9.s 			page 5


  68 001c 1A68     		ldr	r2, [r3]
  69 001e 964B     		ldr	r3, .L22
  70 0020 1340     		ands	r3, r3, r2
  71 0022 002B     		cmp	r3, #0
  72 0024 22D1     		bne	.L5
  73              		.loc 1 154 3 is_stmt 0 discriminator 2
  74 0026 3B68     		ldr	r3, [r7]
  75 0028 1B68     		ldr	r3, [r3]
  76 002a 03F0E063 		and	r3, r3, #117440512
  77 002e B3F1807F 		cmp	r3, #16777216
  78 0032 0DD0     		beq	.L6
  79              		.loc 1 154 3 discriminator 3
  80 0034 3B68     		ldr	r3, [r7]
  81 0036 1B68     		ldr	r3, [r3]
  82 0038 03F0E063 		and	r3, r3, #117440512
  83 003c B3F1007F 		cmp	r3, #33554432
  84 0040 06D0     		beq	.L6
  85              		.loc 1 154 3 discriminator 5
  86 0042 3B68     		ldr	r3, [r7]
  87 0044 1B68     		ldr	r3, [r3]
  88 0046 03F0E063 		and	r3, r3, #117440512
  89 004a B3F1C06F 		cmp	r3, #100663296
  90 004e 0DD1     		bne	.L5
  91              	.L6:
  92              		.loc 1 154 3 discriminator 8
  93 0050 3B68     		ldr	r3, [r7]
  94 0052 1A68     		ldr	r2, [r3]
  95 0054 894B     		ldr	r3, .L22+4
  96 0056 1340     		ands	r3, r3, r2
  97 0058 894A     		ldr	r2, .L22+8
  98 005a 9342     		cmp	r3, r2
  99 005c 0AD9     		bls	.L7
 100              		.loc 1 154 3 discriminator 9
 101 005e 3B68     		ldr	r3, [r7]
 102 0060 1A68     		ldr	r2, [r3]
 103 0062 864B     		ldr	r3, .L22+4
 104 0064 1340     		ands	r3, r3, r2
 105 0066 864A     		ldr	r2, .L22+8
 106 0068 9342     		cmp	r3, r2
 107 006a 03D0     		beq	.L7
 108              	.L5:
 109              		.loc 1 154 3 discriminator 10
 110 006c 9A21     		movs	r1, #154
 111 006e 8548     		ldr	r0, .L22+12
 112 0070 FFF7FEFF 		bl	assert_failed
 113              	.L7:
 155:STM32Cube_FW_N6/Drivers/STM32N6xx_HAL_Driver/Src/stm32n6xx_hal_exti.c ****   assert_param(IS_EXTI_MODE(pExtiConfig->Mode));
 114              		.loc 1 155 3 is_stmt 1
 115 0074 3B68     		ldr	r3, [r7]
 116 0076 5B68     		ldr	r3, [r3, #4]
 117 0078 03F00303 		and	r3, r3, #3
 118 007c 002B     		cmp	r3, #0
 119 007e 03D0     		beq	.L8
 120              		.loc 1 155 3 is_stmt 0 discriminator 2
 121 0080 3B68     		ldr	r3, [r7]
 122 0082 5B68     		ldr	r3, [r3, #4]
 123 0084 032B     		cmp	r3, #3
ARM GAS  /tmp/ccRD6zT9.s 			page 6


 124 0086 03D9     		bls	.L9
 125              	.L8:
 126              		.loc 1 155 3 discriminator 3
 127 0088 9B21     		movs	r1, #155
 128 008a 7E48     		ldr	r0, .L22+12
 129 008c FFF7FEFF 		bl	assert_failed
 130              	.L9:
 156:STM32Cube_FW_N6/Drivers/STM32N6xx_HAL_Driver/Src/stm32n6xx_hal_exti.c **** 
 157:STM32Cube_FW_N6/Drivers/STM32N6xx_HAL_Driver/Src/stm32n6xx_hal_exti.c ****   /* Assign line number to handle */
 158:STM32Cube_FW_N6/Drivers/STM32N6xx_HAL_Driver/Src/stm32n6xx_hal_exti.c ****   hexti->Line = pExtiConfig->Line;
 131              		.loc 1 158 28 is_stmt 1
 132 0090 3B68     		ldr	r3, [r7]
 133 0092 1A68     		ldr	r2, [r3]
 134              		.loc 1 158 15
 135 0094 7B68     		ldr	r3, [r7, #4]
 136 0096 1A60     		str	r2, [r3]
 159:STM32Cube_FW_N6/Drivers/STM32N6xx_HAL_Driver/Src/stm32n6xx_hal_exti.c **** 
 160:STM32Cube_FW_N6/Drivers/STM32N6xx_HAL_Driver/Src/stm32n6xx_hal_exti.c ****   /* compute line register offset and line mask */
 161:STM32Cube_FW_N6/Drivers/STM32N6xx_HAL_Driver/Src/stm32n6xx_hal_exti.c ****   offset = ((pExtiConfig->Line & EXTI_REG_MASK) >> EXTI_REG_SHIFT);
 137              		.loc 1 161 25
 138 0098 3B68     		ldr	r3, [r7]
 139 009a 1B68     		ldr	r3, [r3]
 140              		.loc 1 161 49
 141 009c 1B0C     		lsrs	r3, r3, #16
 142              		.loc 1 161 10
 143 009e 03F00303 		and	r3, r3, #3
 144 00a2 BB61     		str	r3, [r7, #24]
 162:STM32Cube_FW_N6/Drivers/STM32N6xx_HAL_Driver/Src/stm32n6xx_hal_exti.c ****   linepos = (pExtiConfig->Line & EXTI_PIN_MASK);
 145              		.loc 1 162 25
 146 00a4 3B68     		ldr	r3, [r7]
 147 00a6 1B68     		ldr	r3, [r3]
 148              		.loc 1 162 11
 149 00a8 03F01F03 		and	r3, r3, #31
 150 00ac 7B61     		str	r3, [r7, #20]
 163:STM32Cube_FW_N6/Drivers/STM32N6xx_HAL_Driver/Src/stm32n6xx_hal_exti.c ****   maskline = (1UL << linepos);
 151              		.loc 1 163 12
 152 00ae 0122     		movs	r2, #1
 153 00b0 7B69     		ldr	r3, [r7, #20]
 154 00b2 02FA03F3 		lsl	r3, r2, r3
 155 00b6 3B61     		str	r3, [r7, #16]
 164:STM32Cube_FW_N6/Drivers/STM32N6xx_HAL_Driver/Src/stm32n6xx_hal_exti.c **** 
 165:STM32Cube_FW_N6/Drivers/STM32N6xx_HAL_Driver/Src/stm32n6xx_hal_exti.c ****   /* Configure triggers for configurable lines */
 166:STM32Cube_FW_N6/Drivers/STM32N6xx_HAL_Driver/Src/stm32n6xx_hal_exti.c ****   if ((pExtiConfig->Line & EXTI_CONFIG) != 0U)
 156              		.loc 1 166 19
 157 00b8 3B68     		ldr	r3, [r7]
 158 00ba 1B68     		ldr	r3, [r3]
 159              		.loc 1 166 26
 160 00bc 03F00073 		and	r3, r3, #33554432
 161              		.loc 1 166 6
 162 00c0 002B     		cmp	r3, #0
 163 00c2 00F0AA80 		beq	.L10
 167:STM32Cube_FW_N6/Drivers/STM32N6xx_HAL_Driver/Src/stm32n6xx_hal_exti.c ****   {
 168:STM32Cube_FW_N6/Drivers/STM32N6xx_HAL_Driver/Src/stm32n6xx_hal_exti.c ****     assert_param(IS_EXTI_TRIGGER(pExtiConfig->Trigger));
 164              		.loc 1 168 5
 165 00c6 3B68     		ldr	r3, [r7]
 166 00c8 9B68     		ldr	r3, [r3, #8]
 167 00ca 032B     		cmp	r3, #3
ARM GAS  /tmp/ccRD6zT9.s 			page 7


 168 00cc 03D9     		bls	.L11
 169              		.loc 1 168 5 is_stmt 0 discriminator 1
 170 00ce A821     		movs	r1, #168
 171 00d0 6C48     		ldr	r0, .L22+12
 172 00d2 FFF7FEFF 		bl	assert_failed
 173              	.L11:
 169:STM32Cube_FW_N6/Drivers/STM32N6xx_HAL_Driver/Src/stm32n6xx_hal_exti.c **** 
 170:STM32Cube_FW_N6/Drivers/STM32N6xx_HAL_Driver/Src/stm32n6xx_hal_exti.c ****     /* Configure rising trigger */
 171:STM32Cube_FW_N6/Drivers/STM32N6xx_HAL_Driver/Src/stm32n6xx_hal_exti.c ****     regaddr = (__IO uint32_t *)(&EXTI->RTSR1 + (EXTI_CONFIG_OFFSET * offset));
 174              		.loc 1 171 15 is_stmt 1
 175 00d6 BB69     		ldr	r3, [r7, #24]
 176 00d8 5B01     		lsls	r3, r3, #5
 177              		.loc 1 171 13
 178 00da 03F1AC43 		add	r3, r3, #1442840576
 179 00de 03F51433 		add	r3, r3, #151552
 180 00e2 FB60     		str	r3, [r7, #12]
 172:STM32Cube_FW_N6/Drivers/STM32N6xx_HAL_Driver/Src/stm32n6xx_hal_exti.c ****     regval = *regaddr;
 181              		.loc 1 172 12
 182 00e4 FB68     		ldr	r3, [r7, #12]
 183 00e6 1B68     		ldr	r3, [r3]
 184 00e8 FB61     		str	r3, [r7, #28]
 173:STM32Cube_FW_N6/Drivers/STM32N6xx_HAL_Driver/Src/stm32n6xx_hal_exti.c **** 
 174:STM32Cube_FW_N6/Drivers/STM32N6xx_HAL_Driver/Src/stm32n6xx_hal_exti.c ****     /* Mask or set line */
 175:STM32Cube_FW_N6/Drivers/STM32N6xx_HAL_Driver/Src/stm32n6xx_hal_exti.c ****     if ((pExtiConfig->Trigger & EXTI_TRIGGER_RISING) != 0U)
 185              		.loc 1 175 21
 186 00ea 3B68     		ldr	r3, [r7]
 187 00ec 9B68     		ldr	r3, [r3, #8]
 188              		.loc 1 175 31
 189 00ee 03F00103 		and	r3, r3, #1
 190              		.loc 1 175 8
 191 00f2 002B     		cmp	r3, #0
 192 00f4 04D0     		beq	.L12
 176:STM32Cube_FW_N6/Drivers/STM32N6xx_HAL_Driver/Src/stm32n6xx_hal_exti.c ****     {
 177:STM32Cube_FW_N6/Drivers/STM32N6xx_HAL_Driver/Src/stm32n6xx_hal_exti.c ****       regval |= maskline;
 193              		.loc 1 177 14
 194 00f6 FA69     		ldr	r2, [r7, #28]
 195 00f8 3B69     		ldr	r3, [r7, #16]
 196 00fa 1343     		orrs	r3, r3, r2
 197 00fc FB61     		str	r3, [r7, #28]
 198 00fe 04E0     		b	.L13
 199              	.L12:
 178:STM32Cube_FW_N6/Drivers/STM32N6xx_HAL_Driver/Src/stm32n6xx_hal_exti.c ****     }
 179:STM32Cube_FW_N6/Drivers/STM32N6xx_HAL_Driver/Src/stm32n6xx_hal_exti.c ****     else
 180:STM32Cube_FW_N6/Drivers/STM32N6xx_HAL_Driver/Src/stm32n6xx_hal_exti.c ****     {
 181:STM32Cube_FW_N6/Drivers/STM32N6xx_HAL_Driver/Src/stm32n6xx_hal_exti.c ****       regval &= ~maskline;
 200              		.loc 1 181 17
 201 0100 3B69     		ldr	r3, [r7, #16]
 202 0102 DB43     		mvns	r3, r3
 203              		.loc 1 181 14
 204 0104 FA69     		ldr	r2, [r7, #28]
 205 0106 1340     		ands	r3, r3, r2
 206 0108 FB61     		str	r3, [r7, #28]
 207              	.L13:
 182:STM32Cube_FW_N6/Drivers/STM32N6xx_HAL_Driver/Src/stm32n6xx_hal_exti.c ****     }
 183:STM32Cube_FW_N6/Drivers/STM32N6xx_HAL_Driver/Src/stm32n6xx_hal_exti.c **** 
 184:STM32Cube_FW_N6/Drivers/STM32N6xx_HAL_Driver/Src/stm32n6xx_hal_exti.c ****     /* Store rising trigger mode */
 185:STM32Cube_FW_N6/Drivers/STM32N6xx_HAL_Driver/Src/stm32n6xx_hal_exti.c ****     *regaddr = regval;
ARM GAS  /tmp/ccRD6zT9.s 			page 8


 208              		.loc 1 185 14
 209 010a FB68     		ldr	r3, [r7, #12]
 210 010c FA69     		ldr	r2, [r7, #28]
 211 010e 1A60     		str	r2, [r3]
 186:STM32Cube_FW_N6/Drivers/STM32N6xx_HAL_Driver/Src/stm32n6xx_hal_exti.c **** 
 187:STM32Cube_FW_N6/Drivers/STM32N6xx_HAL_Driver/Src/stm32n6xx_hal_exti.c ****     /* Configure falling trigger */
 188:STM32Cube_FW_N6/Drivers/STM32N6xx_HAL_Driver/Src/stm32n6xx_hal_exti.c ****     regaddr = (__IO uint32_t *)(&EXTI->FTSR1 + (EXTI_CONFIG_OFFSET * offset));
 212              		.loc 1 188 15
 213 0110 BB69     		ldr	r3, [r7, #24]
 214 0112 5A01     		lsls	r2, r3, #5
 215              		.loc 1 188 13
 216 0114 5C4B     		ldr	r3, .L22+16
 217 0116 1344     		add	r3, r3, r2
 218 0118 FB60     		str	r3, [r7, #12]
 189:STM32Cube_FW_N6/Drivers/STM32N6xx_HAL_Driver/Src/stm32n6xx_hal_exti.c ****     regval = *regaddr;
 219              		.loc 1 189 12
 220 011a FB68     		ldr	r3, [r7, #12]
 221 011c 1B68     		ldr	r3, [r3]
 222 011e FB61     		str	r3, [r7, #28]
 190:STM32Cube_FW_N6/Drivers/STM32N6xx_HAL_Driver/Src/stm32n6xx_hal_exti.c **** 
 191:STM32Cube_FW_N6/Drivers/STM32N6xx_HAL_Driver/Src/stm32n6xx_hal_exti.c ****     /* Mask or set line */
 192:STM32Cube_FW_N6/Drivers/STM32N6xx_HAL_Driver/Src/stm32n6xx_hal_exti.c ****     if ((pExtiConfig->Trigger & EXTI_TRIGGER_FALLING) != 0U)
 223              		.loc 1 192 21
 224 0120 3B68     		ldr	r3, [r7]
 225 0122 9B68     		ldr	r3, [r3, #8]
 226              		.loc 1 192 31
 227 0124 03F00203 		and	r3, r3, #2
 228              		.loc 1 192 8
 229 0128 002B     		cmp	r3, #0
 230 012a 04D0     		beq	.L14
 193:STM32Cube_FW_N6/Drivers/STM32N6xx_HAL_Driver/Src/stm32n6xx_hal_exti.c ****     {
 194:STM32Cube_FW_N6/Drivers/STM32N6xx_HAL_Driver/Src/stm32n6xx_hal_exti.c ****       regval |= maskline;
 231              		.loc 1 194 14
 232 012c FA69     		ldr	r2, [r7, #28]
 233 012e 3B69     		ldr	r3, [r7, #16]
 234 0130 1343     		orrs	r3, r3, r2
 235 0132 FB61     		str	r3, [r7, #28]
 236 0134 04E0     		b	.L15
 237              	.L14:
 195:STM32Cube_FW_N6/Drivers/STM32N6xx_HAL_Driver/Src/stm32n6xx_hal_exti.c ****     }
 196:STM32Cube_FW_N6/Drivers/STM32N6xx_HAL_Driver/Src/stm32n6xx_hal_exti.c ****     else
 197:STM32Cube_FW_N6/Drivers/STM32N6xx_HAL_Driver/Src/stm32n6xx_hal_exti.c ****     {
 198:STM32Cube_FW_N6/Drivers/STM32N6xx_HAL_Driver/Src/stm32n6xx_hal_exti.c ****       regval &= ~maskline;
 238              		.loc 1 198 17
 239 0136 3B69     		ldr	r3, [r7, #16]
 240 0138 DB43     		mvns	r3, r3
 241              		.loc 1 198 14
 242 013a FA69     		ldr	r2, [r7, #28]
 243 013c 1340     		ands	r3, r3, r2
 244 013e FB61     		str	r3, [r7, #28]
 245              	.L15:
 199:STM32Cube_FW_N6/Drivers/STM32N6xx_HAL_Driver/Src/stm32n6xx_hal_exti.c ****     }
 200:STM32Cube_FW_N6/Drivers/STM32N6xx_HAL_Driver/Src/stm32n6xx_hal_exti.c **** 
 201:STM32Cube_FW_N6/Drivers/STM32N6xx_HAL_Driver/Src/stm32n6xx_hal_exti.c ****     /* Store falling trigger mode */
 202:STM32Cube_FW_N6/Drivers/STM32N6xx_HAL_Driver/Src/stm32n6xx_hal_exti.c ****     *regaddr = regval;
 246              		.loc 1 202 14
 247 0140 FB68     		ldr	r3, [r7, #12]
ARM GAS  /tmp/ccRD6zT9.s 			page 9


 248 0142 FA69     		ldr	r2, [r7, #28]
 249 0144 1A60     		str	r2, [r3]
 203:STM32Cube_FW_N6/Drivers/STM32N6xx_HAL_Driver/Src/stm32n6xx_hal_exti.c **** 
 204:STM32Cube_FW_N6/Drivers/STM32N6xx_HAL_Driver/Src/stm32n6xx_hal_exti.c ****     /* Configure gpio port selection in case of gpio exti line */
 205:STM32Cube_FW_N6/Drivers/STM32N6xx_HAL_Driver/Src/stm32n6xx_hal_exti.c ****     if ((pExtiConfig->Line & EXTI_GPIO) == EXTI_GPIO)
 250              		.loc 1 205 21
 251 0146 3B68     		ldr	r3, [r7]
 252 0148 1B68     		ldr	r3, [r3]
 253              		.loc 1 205 28
 254 014a 03F0C063 		and	r3, r3, #100663296
 255              		.loc 1 205 8
 256 014e B3F1C06F 		cmp	r3, #100663296
 257 0152 62D1     		bne	.L10
 206:STM32Cube_FW_N6/Drivers/STM32N6xx_HAL_Driver/Src/stm32n6xx_hal_exti.c ****     {
 207:STM32Cube_FW_N6/Drivers/STM32N6xx_HAL_Driver/Src/stm32n6xx_hal_exti.c ****       assert_param(IS_EXTI_GPIO_PORT(pExtiConfig->GPIOSel));
 258              		.loc 1 207 7
 259 0154 3B68     		ldr	r3, [r7]
 260 0156 DB68     		ldr	r3, [r3, #12]
 261 0158 002B     		cmp	r3, #0
 262 015a 2FD0     		beq	.L16
 263              		.loc 1 207 7 is_stmt 0 discriminator 1
 264 015c 3B68     		ldr	r3, [r7]
 265 015e DB68     		ldr	r3, [r3, #12]
 266 0160 012B     		cmp	r3, #1
 267 0162 2BD0     		beq	.L16
 268              		.loc 1 207 7 discriminator 2
 269 0164 3B68     		ldr	r3, [r7]
 270 0166 DB68     		ldr	r3, [r3, #12]
 271 0168 022B     		cmp	r3, #2
 272 016a 27D0     		beq	.L16
 273              		.loc 1 207 7 discriminator 3
 274 016c 3B68     		ldr	r3, [r7]
 275 016e DB68     		ldr	r3, [r3, #12]
 276 0170 032B     		cmp	r3, #3
 277 0172 23D0     		beq	.L16
 278              		.loc 1 207 7 discriminator 4
 279 0174 3B68     		ldr	r3, [r7]
 280 0176 DB68     		ldr	r3, [r3, #12]
 281 0178 042B     		cmp	r3, #4
 282 017a 1FD0     		beq	.L16
 283              		.loc 1 207 7 discriminator 5
 284 017c 3B68     		ldr	r3, [r7]
 285 017e DB68     		ldr	r3, [r3, #12]
 286 0180 052B     		cmp	r3, #5
 287 0182 1BD0     		beq	.L16
 288              		.loc 1 207 7 discriminator 6
 289 0184 3B68     		ldr	r3, [r7]
 290 0186 DB68     		ldr	r3, [r3, #12]
 291 0188 062B     		cmp	r3, #6
 292 018a 17D0     		beq	.L16
 293              		.loc 1 207 7 discriminator 7
 294 018c 3B68     		ldr	r3, [r7]
 295 018e DB68     		ldr	r3, [r3, #12]
 296 0190 072B     		cmp	r3, #7
 297 0192 13D0     		beq	.L16
 298              		.loc 1 207 7 discriminator 8
 299 0194 3B68     		ldr	r3, [r7]
ARM GAS  /tmp/ccRD6zT9.s 			page 10


 300 0196 DB68     		ldr	r3, [r3, #12]
 301 0198 082B     		cmp	r3, #8
 302 019a 0FD0     		beq	.L16
 303              		.loc 1 207 7 discriminator 9
 304 019c 3B68     		ldr	r3, [r7]
 305 019e DB68     		ldr	r3, [r3, #12]
 306 01a0 092B     		cmp	r3, #9
 307 01a2 0BD0     		beq	.L16
 308              		.loc 1 207 7 discriminator 10
 309 01a4 3B68     		ldr	r3, [r7]
 310 01a6 DB68     		ldr	r3, [r3, #12]
 311 01a8 0A2B     		cmp	r3, #10
 312 01aa 07D0     		beq	.L16
 313              		.loc 1 207 7 discriminator 11
 314 01ac 3B68     		ldr	r3, [r7]
 315 01ae DB68     		ldr	r3, [r3, #12]
 316 01b0 0B2B     		cmp	r3, #11
 317 01b2 03D0     		beq	.L16
 318              		.loc 1 207 7 discriminator 12
 319 01b4 CF21     		movs	r1, #207
 320 01b6 3348     		ldr	r0, .L22+12
 321 01b8 FFF7FEFF 		bl	assert_failed
 322              	.L16:
 208:STM32Cube_FW_N6/Drivers/STM32N6xx_HAL_Driver/Src/stm32n6xx_hal_exti.c ****       assert_param(IS_EXTI_GPIO_PIN(linepos));
 323              		.loc 1 208 7 is_stmt 1
 324 01bc 7B69     		ldr	r3, [r7, #20]
 325 01be 0F2B     		cmp	r3, #15
 326 01c0 03D9     		bls	.L17
 327              		.loc 1 208 7 is_stmt 0 discriminator 1
 328 01c2 D021     		movs	r1, #208
 329 01c4 2F48     		ldr	r0, .L22+12
 330 01c6 FFF7FEFF 		bl	assert_failed
 331              	.L17:
 209:STM32Cube_FW_N6/Drivers/STM32N6xx_HAL_Driver/Src/stm32n6xx_hal_exti.c **** 
 210:STM32Cube_FW_N6/Drivers/STM32N6xx_HAL_Driver/Src/stm32n6xx_hal_exti.c ****       regval = EXTI->EXTICR[(linepos >> 2U) & 0x03UL];
 332              		.loc 1 210 20 is_stmt 1
 333 01ca 304A     		ldr	r2, .L22+20
 334              		.loc 1 210 38
 335 01cc 7B69     		ldr	r3, [r7, #20]
 336 01ce 9B08     		lsrs	r3, r3, #2
 337              		.loc 1 210 45
 338 01d0 03F00303 		and	r3, r3, #3
 339              		.loc 1 210 14
 340 01d4 1833     		adds	r3, r3, #24
 341 01d6 52F82330 		ldr	r3, [r2, r3, lsl #2]
 342 01da FB61     		str	r3, [r7, #28]
 211:STM32Cube_FW_N6/Drivers/STM32N6xx_HAL_Driver/Src/stm32n6xx_hal_exti.c ****       regval &= ~(EXTI_EXTICR1_EXTI0 << (EXTI_EXTICR1_EXTI1_Pos * (linepos & 0x03U)));
 343              		.loc 1 211 76
 344 01dc 7B69     		ldr	r3, [r7, #20]
 345 01de 03F00303 		and	r3, r3, #3
 346              		.loc 1 211 65
 347 01e2 DB00     		lsls	r3, r3, #3
 348              		.loc 1 211 38
 349 01e4 FF22     		movs	r2, #255
 350 01e6 02FA03F3 		lsl	r3, r2, r3
 351              		.loc 1 211 17
 352 01ea DB43     		mvns	r3, r3
ARM GAS  /tmp/ccRD6zT9.s 			page 11


 353              		.loc 1 211 14
 354 01ec FA69     		ldr	r2, [r7, #28]
 355 01ee 1340     		ands	r3, r3, r2
 356 01f0 FB61     		str	r3, [r7, #28]
 212:STM32Cube_FW_N6/Drivers/STM32N6xx_HAL_Driver/Src/stm32n6xx_hal_exti.c ****       regval |= (pExtiConfig->GPIOSel << (EXTI_EXTICR1_EXTI1_Pos * (linepos & 0x03U)));
 357              		.loc 1 212 29
 358 01f2 3B68     		ldr	r3, [r7]
 359 01f4 DA68     		ldr	r2, [r3, #12]
 360              		.loc 1 212 77
 361 01f6 7B69     		ldr	r3, [r7, #20]
 362 01f8 03F00303 		and	r3, r3, #3
 363              		.loc 1 212 66
 364 01fc DB00     		lsls	r3, r3, #3
 365              		.loc 1 212 39
 366 01fe 02FA03F3 		lsl	r3, r2, r3
 367              		.loc 1 212 14
 368 0202 FA69     		ldr	r2, [r7, #28]
 369 0204 1343     		orrs	r3, r3, r2
 370 0206 FB61     		str	r3, [r7, #28]
 213:STM32Cube_FW_N6/Drivers/STM32N6xx_HAL_Driver/Src/stm32n6xx_hal_exti.c ****       EXTI->EXTICR[(linepos >> 2U) & 0x03UL] = regval;
 371              		.loc 1 213 11
 372 0208 2049     		ldr	r1, .L22+20
 373              		.loc 1 213 29
 374 020a 7B69     		ldr	r3, [r7, #20]
 375 020c 9B08     		lsrs	r3, r3, #2
 376              		.loc 1 213 36
 377 020e 03F00303 		and	r3, r3, #3
 378              		.loc 1 213 46
 379 0212 1833     		adds	r3, r3, #24
 380 0214 FA69     		ldr	r2, [r7, #28]
 381 0216 41F82320 		str	r2, [r1, r3, lsl #2]
 382              	.L10:
 214:STM32Cube_FW_N6/Drivers/STM32N6xx_HAL_Driver/Src/stm32n6xx_hal_exti.c ****     }
 215:STM32Cube_FW_N6/Drivers/STM32N6xx_HAL_Driver/Src/stm32n6xx_hal_exti.c ****   }
 216:STM32Cube_FW_N6/Drivers/STM32N6xx_HAL_Driver/Src/stm32n6xx_hal_exti.c **** 
 217:STM32Cube_FW_N6/Drivers/STM32N6xx_HAL_Driver/Src/stm32n6xx_hal_exti.c ****   /* Configure interrupt mode : read current mode */
 218:STM32Cube_FW_N6/Drivers/STM32N6xx_HAL_Driver/Src/stm32n6xx_hal_exti.c ****   regaddr = (__IO uint32_t *)(&EXTI->IMR1 + (EXTI_MODE_OFFSET * offset));
 383              		.loc 1 218 13
 384 021a BB69     		ldr	r3, [r7, #24]
 385 021c 1A01     		lsls	r2, r3, #4
 386              		.loc 1 218 11
 387 021e 1C4B     		ldr	r3, .L22+24
 388 0220 1344     		add	r3, r3, r2
 389 0222 FB60     		str	r3, [r7, #12]
 219:STM32Cube_FW_N6/Drivers/STM32N6xx_HAL_Driver/Src/stm32n6xx_hal_exti.c ****   regval = *regaddr;
 390              		.loc 1 219 10
 391 0224 FB68     		ldr	r3, [r7, #12]
 392 0226 1B68     		ldr	r3, [r3]
 393 0228 FB61     		str	r3, [r7, #28]
 220:STM32Cube_FW_N6/Drivers/STM32N6xx_HAL_Driver/Src/stm32n6xx_hal_exti.c **** 
 221:STM32Cube_FW_N6/Drivers/STM32N6xx_HAL_Driver/Src/stm32n6xx_hal_exti.c ****   /* Mask or set line */
 222:STM32Cube_FW_N6/Drivers/STM32N6xx_HAL_Driver/Src/stm32n6xx_hal_exti.c ****   if ((pExtiConfig->Mode & EXTI_MODE_INTERRUPT) != 0U)
 394              		.loc 1 222 19
 395 022a 3B68     		ldr	r3, [r7]
 396 022c 5B68     		ldr	r3, [r3, #4]
 397              		.loc 1 222 26
 398 022e 03F00103 		and	r3, r3, #1
ARM GAS  /tmp/ccRD6zT9.s 			page 12


 399              		.loc 1 222 6
 400 0232 002B     		cmp	r3, #0
 401 0234 04D0     		beq	.L18
 223:STM32Cube_FW_N6/Drivers/STM32N6xx_HAL_Driver/Src/stm32n6xx_hal_exti.c ****   {
 224:STM32Cube_FW_N6/Drivers/STM32N6xx_HAL_Driver/Src/stm32n6xx_hal_exti.c ****     regval |= maskline;
 402              		.loc 1 224 12
 403 0236 FA69     		ldr	r2, [r7, #28]
 404 0238 3B69     		ldr	r3, [r7, #16]
 405 023a 1343     		orrs	r3, r3, r2
 406 023c FB61     		str	r3, [r7, #28]
 407 023e 04E0     		b	.L19
 408              	.L18:
 225:STM32Cube_FW_N6/Drivers/STM32N6xx_HAL_Driver/Src/stm32n6xx_hal_exti.c ****   }
 226:STM32Cube_FW_N6/Drivers/STM32N6xx_HAL_Driver/Src/stm32n6xx_hal_exti.c ****   else
 227:STM32Cube_FW_N6/Drivers/STM32N6xx_HAL_Driver/Src/stm32n6xx_hal_exti.c ****   {
 228:STM32Cube_FW_N6/Drivers/STM32N6xx_HAL_Driver/Src/stm32n6xx_hal_exti.c ****     regval &= ~maskline;
 409              		.loc 1 228 15
 410 0240 3B69     		ldr	r3, [r7, #16]
 411 0242 DB43     		mvns	r3, r3
 412              		.loc 1 228 12
 413 0244 FA69     		ldr	r2, [r7, #28]
 414 0246 1340     		ands	r3, r3, r2
 415 0248 FB61     		str	r3, [r7, #28]
 416              	.L19:
 229:STM32Cube_FW_N6/Drivers/STM32N6xx_HAL_Driver/Src/stm32n6xx_hal_exti.c ****   }
 230:STM32Cube_FW_N6/Drivers/STM32N6xx_HAL_Driver/Src/stm32n6xx_hal_exti.c **** 
 231:STM32Cube_FW_N6/Drivers/STM32N6xx_HAL_Driver/Src/stm32n6xx_hal_exti.c ****   /* Store interrupt mode */
 232:STM32Cube_FW_N6/Drivers/STM32N6xx_HAL_Driver/Src/stm32n6xx_hal_exti.c ****   *regaddr = regval;
 417              		.loc 1 232 12
 418 024a FB68     		ldr	r3, [r7, #12]
 419 024c FA69     		ldr	r2, [r7, #28]
 420 024e 1A60     		str	r2, [r3]
 233:STM32Cube_FW_N6/Drivers/STM32N6xx_HAL_Driver/Src/stm32n6xx_hal_exti.c **** 
 234:STM32Cube_FW_N6/Drivers/STM32N6xx_HAL_Driver/Src/stm32n6xx_hal_exti.c ****   /* Configure event mode : read current mode */
 235:STM32Cube_FW_N6/Drivers/STM32N6xx_HAL_Driver/Src/stm32n6xx_hal_exti.c ****   regaddr = (__IO uint32_t *)(&EXTI->EMR1 + (EXTI_MODE_OFFSET * offset));
 421              		.loc 1 235 13
 422 0250 BB69     		ldr	r3, [r7, #24]
 423 0252 1A01     		lsls	r2, r3, #4
 424              		.loc 1 235 11
 425 0254 0F4B     		ldr	r3, .L22+28
 426 0256 1344     		add	r3, r3, r2
 427 0258 FB60     		str	r3, [r7, #12]
 236:STM32Cube_FW_N6/Drivers/STM32N6xx_HAL_Driver/Src/stm32n6xx_hal_exti.c ****   regval = *regaddr;
 428              		.loc 1 236 10
 429 025a FB68     		ldr	r3, [r7, #12]
 430 025c 1B68     		ldr	r3, [r3]
 431 025e FB61     		str	r3, [r7, #28]
 237:STM32Cube_FW_N6/Drivers/STM32N6xx_HAL_Driver/Src/stm32n6xx_hal_exti.c **** 
 238:STM32Cube_FW_N6/Drivers/STM32N6xx_HAL_Driver/Src/stm32n6xx_hal_exti.c ****   /* Mask or set line */
 239:STM32Cube_FW_N6/Drivers/STM32N6xx_HAL_Driver/Src/stm32n6xx_hal_exti.c ****   if ((pExtiConfig->Mode & EXTI_MODE_EVENT) != 0U)
 432              		.loc 1 239 19
 433 0260 3B68     		ldr	r3, [r7]
 434 0262 5B68     		ldr	r3, [r3, #4]
 435              		.loc 1 239 26
 436 0264 03F00203 		and	r3, r3, #2
 437              		.loc 1 239 6
 438 0268 002B     		cmp	r3, #0
ARM GAS  /tmp/ccRD6zT9.s 			page 13


 439 026a 15D0     		beq	.L20
 240:STM32Cube_FW_N6/Drivers/STM32N6xx_HAL_Driver/Src/stm32n6xx_hal_exti.c ****   {
 241:STM32Cube_FW_N6/Drivers/STM32N6xx_HAL_Driver/Src/stm32n6xx_hal_exti.c ****     regval |= maskline;
 440              		.loc 1 241 12
 441 026c FA69     		ldr	r2, [r7, #28]
 442 026e 3B69     		ldr	r3, [r7, #16]
 443 0270 1343     		orrs	r3, r3, r2
 444 0272 FB61     		str	r3, [r7, #28]
 445 0274 15E0     		b	.L21
 446              	.L23:
 447 0276 00BF     		.align	2
 448              	.L22:
 449 0278 E0FFFCE8 		.word	-386072608
 450 027c 1F000300 		.word	196639
 451 0280 0D000200 		.word	131085
 452 0284 00000000 		.word	.LC0
 453 0288 04500256 		.word	1442992132
 454 028c 00500256 		.word	1442992128
 455 0290 80500256 		.word	1442992256
 456 0294 84500256 		.word	1442992260
 457              	.L20:
 242:STM32Cube_FW_N6/Drivers/STM32N6xx_HAL_Driver/Src/stm32n6xx_hal_exti.c ****   }
 243:STM32Cube_FW_N6/Drivers/STM32N6xx_HAL_Driver/Src/stm32n6xx_hal_exti.c ****   else
 244:STM32Cube_FW_N6/Drivers/STM32N6xx_HAL_Driver/Src/stm32n6xx_hal_exti.c ****   {
 245:STM32Cube_FW_N6/Drivers/STM32N6xx_HAL_Driver/Src/stm32n6xx_hal_exti.c ****     regval &= ~maskline;
 458              		.loc 1 245 15
 459 0298 3B69     		ldr	r3, [r7, #16]
 460 029a DB43     		mvns	r3, r3
 461              		.loc 1 245 12
 462 029c FA69     		ldr	r2, [r7, #28]
 463 029e 1340     		ands	r3, r3, r2
 464 02a0 FB61     		str	r3, [r7, #28]
 465              	.L21:
 246:STM32Cube_FW_N6/Drivers/STM32N6xx_HAL_Driver/Src/stm32n6xx_hal_exti.c ****   }
 247:STM32Cube_FW_N6/Drivers/STM32N6xx_HAL_Driver/Src/stm32n6xx_hal_exti.c **** 
 248:STM32Cube_FW_N6/Drivers/STM32N6xx_HAL_Driver/Src/stm32n6xx_hal_exti.c ****   /* Store event mode */
 249:STM32Cube_FW_N6/Drivers/STM32N6xx_HAL_Driver/Src/stm32n6xx_hal_exti.c ****   *regaddr = regval;
 466              		.loc 1 249 12
 467 02a2 FB68     		ldr	r3, [r7, #12]
 468 02a4 FA69     		ldr	r2, [r7, #28]
 469 02a6 1A60     		str	r2, [r3]
 250:STM32Cube_FW_N6/Drivers/STM32N6xx_HAL_Driver/Src/stm32n6xx_hal_exti.c **** 
 251:STM32Cube_FW_N6/Drivers/STM32N6xx_HAL_Driver/Src/stm32n6xx_hal_exti.c ****   return HAL_OK;
 470              		.loc 1 251 10
 471 02a8 0023     		movs	r3, #0
 472              	.L4:
 252:STM32Cube_FW_N6/Drivers/STM32N6xx_HAL_Driver/Src/stm32n6xx_hal_exti.c **** }
 473              		.loc 1 252 1
 474 02aa 1846     		mov	r0, r3
 475 02ac 2037     		adds	r7, r7, #32
 476              		.cfi_def_cfa_offset 8
 477 02ae BD46     		mov	sp, r7
 478              		.cfi_def_cfa_register 13
 479              		@ sp needed
 480 02b0 80BD     		pop	{r7, pc}
 481              		.cfi_endproc
 482              	.LFE835:
ARM GAS  /tmp/ccRD6zT9.s 			page 14


 484 02b2 00BF     		.section	.text.HAL_EXTI_GetConfigLine,"ax",%progbits
 485              		.align	1
 486              		.global	HAL_EXTI_GetConfigLine
 487              		.syntax unified
 488              		.thumb
 489              		.thumb_func
 491              	HAL_EXTI_GetConfigLine:
 492              	.LFB836:
 253:STM32Cube_FW_N6/Drivers/STM32N6xx_HAL_Driver/Src/stm32n6xx_hal_exti.c **** 
 254:STM32Cube_FW_N6/Drivers/STM32N6xx_HAL_Driver/Src/stm32n6xx_hal_exti.c **** 
 255:STM32Cube_FW_N6/Drivers/STM32N6xx_HAL_Driver/Src/stm32n6xx_hal_exti.c **** /**
 256:STM32Cube_FW_N6/Drivers/STM32N6xx_HAL_Driver/Src/stm32n6xx_hal_exti.c ****   * @brief  Get configuration of a dedicated Exti line.
 257:STM32Cube_FW_N6/Drivers/STM32N6xx_HAL_Driver/Src/stm32n6xx_hal_exti.c ****   * @param  hexti Exti handle.
 258:STM32Cube_FW_N6/Drivers/STM32N6xx_HAL_Driver/Src/stm32n6xx_hal_exti.c ****   * @param  pExtiConfig Pointer on structure to store Exti configuration.
 259:STM32Cube_FW_N6/Drivers/STM32N6xx_HAL_Driver/Src/stm32n6xx_hal_exti.c ****   * @retval HAL Status.
 260:STM32Cube_FW_N6/Drivers/STM32N6xx_HAL_Driver/Src/stm32n6xx_hal_exti.c ****   */
 261:STM32Cube_FW_N6/Drivers/STM32N6xx_HAL_Driver/Src/stm32n6xx_hal_exti.c **** HAL_StatusTypeDef HAL_EXTI_GetConfigLine(const EXTI_HandleTypeDef *hexti, EXTI_ConfigTypeDef *pExti
 262:STM32Cube_FW_N6/Drivers/STM32N6xx_HAL_Driver/Src/stm32n6xx_hal_exti.c **** {
 493              		.loc 1 262 1
 494              		.cfi_startproc
 495              		@ args = 0, pretend = 0, frame = 32
 496              		@ frame_needed = 1, uses_anonymous_args = 0
 497 0000 80B5     		push	{r7, lr}
 498              		.cfi_def_cfa_offset 8
 499              		.cfi_offset 7, -8
 500              		.cfi_offset 14, -4
 501 0002 88B0     		sub	sp, sp, #32
 502              		.cfi_def_cfa_offset 40
 503 0004 00AF     		add	r7, sp, #0
 504              		.cfi_def_cfa_register 7
 505 0006 7860     		str	r0, [r7, #4]
 506 0008 3960     		str	r1, [r7]
 263:STM32Cube_FW_N6/Drivers/STM32N6xx_HAL_Driver/Src/stm32n6xx_hal_exti.c ****   const __IO uint32_t *regaddr;
 264:STM32Cube_FW_N6/Drivers/STM32N6xx_HAL_Driver/Src/stm32n6xx_hal_exti.c ****   uint32_t regval;
 265:STM32Cube_FW_N6/Drivers/STM32N6xx_HAL_Driver/Src/stm32n6xx_hal_exti.c ****   uint32_t linepos;
 266:STM32Cube_FW_N6/Drivers/STM32N6xx_HAL_Driver/Src/stm32n6xx_hal_exti.c ****   uint32_t maskline;
 267:STM32Cube_FW_N6/Drivers/STM32N6xx_HAL_Driver/Src/stm32n6xx_hal_exti.c ****   uint32_t offset;
 268:STM32Cube_FW_N6/Drivers/STM32N6xx_HAL_Driver/Src/stm32n6xx_hal_exti.c **** 
 269:STM32Cube_FW_N6/Drivers/STM32N6xx_HAL_Driver/Src/stm32n6xx_hal_exti.c ****   /* Check null pointer */
 270:STM32Cube_FW_N6/Drivers/STM32N6xx_HAL_Driver/Src/stm32n6xx_hal_exti.c ****   if ((hexti == NULL) || (pExtiConfig == NULL))
 507              		.loc 1 270 6
 508 000a 7B68     		ldr	r3, [r7, #4]
 509 000c 002B     		cmp	r3, #0
 510 000e 02D0     		beq	.L25
 511              		.loc 1 270 23 discriminator 1
 512 0010 3B68     		ldr	r3, [r7]
 513 0012 002B     		cmp	r3, #0
 514 0014 01D1     		bne	.L26
 515              	.L25:
 271:STM32Cube_FW_N6/Drivers/STM32N6xx_HAL_Driver/Src/stm32n6xx_hal_exti.c ****   {
 272:STM32Cube_FW_N6/Drivers/STM32N6xx_HAL_Driver/Src/stm32n6xx_hal_exti.c ****     return HAL_ERROR;
 516              		.loc 1 272 12
 517 0016 0123     		movs	r3, #1
 518 0018 C5E0     		b	.L27
 519              	.L26:
 273:STM32Cube_FW_N6/Drivers/STM32N6xx_HAL_Driver/Src/stm32n6xx_hal_exti.c ****   }
 274:STM32Cube_FW_N6/Drivers/STM32N6xx_HAL_Driver/Src/stm32n6xx_hal_exti.c **** 
ARM GAS  /tmp/ccRD6zT9.s 			page 15


 275:STM32Cube_FW_N6/Drivers/STM32N6xx_HAL_Driver/Src/stm32n6xx_hal_exti.c ****   /* Check the parameter */
 276:STM32Cube_FW_N6/Drivers/STM32N6xx_HAL_Driver/Src/stm32n6xx_hal_exti.c ****   assert_param(IS_EXTI_LINE(hexti->Line));
 520              		.loc 1 276 3
 521 001a 7B68     		ldr	r3, [r7, #4]
 522 001c 1A68     		ldr	r2, [r3]
 523 001e 644B     		ldr	r3, .L41
 524 0020 1340     		ands	r3, r3, r2
 525 0022 002B     		cmp	r3, #0
 526 0024 22D1     		bne	.L28
 527              		.loc 1 276 3 is_stmt 0 discriminator 2
 528 0026 7B68     		ldr	r3, [r7, #4]
 529 0028 1B68     		ldr	r3, [r3]
 530 002a 03F0E063 		and	r3, r3, #117440512
 531 002e B3F1807F 		cmp	r3, #16777216
 532 0032 0DD0     		beq	.L29
 533              		.loc 1 276 3 discriminator 3
 534 0034 7B68     		ldr	r3, [r7, #4]
 535 0036 1B68     		ldr	r3, [r3]
 536 0038 03F0E063 		and	r3, r3, #117440512
 537 003c B3F1007F 		cmp	r3, #33554432
 538 0040 06D0     		beq	.L29
 539              		.loc 1 276 3 discriminator 5
 540 0042 7B68     		ldr	r3, [r7, #4]
 541 0044 1B68     		ldr	r3, [r3]
 542 0046 03F0E063 		and	r3, r3, #117440512
 543 004a B3F1C06F 		cmp	r3, #100663296
 544 004e 0DD1     		bne	.L28
 545              	.L29:
 546              		.loc 1 276 3 discriminator 8
 547 0050 7B68     		ldr	r3, [r7, #4]
 548 0052 1A68     		ldr	r2, [r3]
 549 0054 574B     		ldr	r3, .L41+4
 550 0056 1340     		ands	r3, r3, r2
 551 0058 574A     		ldr	r2, .L41+8
 552 005a 9342     		cmp	r3, r2
 553 005c 0BD9     		bls	.L30
 554              		.loc 1 276 3 discriminator 9
 555 005e 7B68     		ldr	r3, [r7, #4]
 556 0060 1A68     		ldr	r2, [r3]
 557 0062 544B     		ldr	r3, .L41+4
 558 0064 1340     		ands	r3, r3, r2
 559 0066 544A     		ldr	r2, .L41+8
 560 0068 9342     		cmp	r3, r2
 561 006a 04D0     		beq	.L30
 562              	.L28:
 563              		.loc 1 276 3 discriminator 10
 564 006c 4FF48A71 		mov	r1, #276
 565 0070 5248     		ldr	r0, .L41+12
 566 0072 FFF7FEFF 		bl	assert_failed
 567              	.L30:
 277:STM32Cube_FW_N6/Drivers/STM32N6xx_HAL_Driver/Src/stm32n6xx_hal_exti.c **** 
 278:STM32Cube_FW_N6/Drivers/STM32N6xx_HAL_Driver/Src/stm32n6xx_hal_exti.c ****   /* Store handle line number to configuration structure */
 279:STM32Cube_FW_N6/Drivers/STM32N6xx_HAL_Driver/Src/stm32n6xx_hal_exti.c ****   pExtiConfig->Line = hexti->Line;
 568              		.loc 1 279 28 is_stmt 1
 569 0076 7B68     		ldr	r3, [r7, #4]
 570 0078 1A68     		ldr	r2, [r3]
 571              		.loc 1 279 21
ARM GAS  /tmp/ccRD6zT9.s 			page 16


 572 007a 3B68     		ldr	r3, [r7]
 573 007c 1A60     		str	r2, [r3]
 280:STM32Cube_FW_N6/Drivers/STM32N6xx_HAL_Driver/Src/stm32n6xx_hal_exti.c **** 
 281:STM32Cube_FW_N6/Drivers/STM32N6xx_HAL_Driver/Src/stm32n6xx_hal_exti.c ****   /* compute line register offset and line mask */
 282:STM32Cube_FW_N6/Drivers/STM32N6xx_HAL_Driver/Src/stm32n6xx_hal_exti.c ****   offset = ((pExtiConfig->Line & EXTI_REG_MASK) >> EXTI_REG_SHIFT);
 574              		.loc 1 282 25
 575 007e 3B68     		ldr	r3, [r7]
 576 0080 1B68     		ldr	r3, [r3]
 577              		.loc 1 282 49
 578 0082 1B0C     		lsrs	r3, r3, #16
 579              		.loc 1 282 10
 580 0084 03F00303 		and	r3, r3, #3
 581 0088 FB61     		str	r3, [r7, #28]
 283:STM32Cube_FW_N6/Drivers/STM32N6xx_HAL_Driver/Src/stm32n6xx_hal_exti.c ****   linepos = (pExtiConfig->Line & EXTI_PIN_MASK);
 582              		.loc 1 283 25
 583 008a 3B68     		ldr	r3, [r7]
 584 008c 1B68     		ldr	r3, [r3]
 585              		.loc 1 283 11
 586 008e 03F01F03 		and	r3, r3, #31
 587 0092 BB61     		str	r3, [r7, #24]
 284:STM32Cube_FW_N6/Drivers/STM32N6xx_HAL_Driver/Src/stm32n6xx_hal_exti.c ****   maskline = (1UL << linepos);
 588              		.loc 1 284 12
 589 0094 0122     		movs	r2, #1
 590 0096 BB69     		ldr	r3, [r7, #24]
 591 0098 02FA03F3 		lsl	r3, r2, r3
 592 009c 7B61     		str	r3, [r7, #20]
 285:STM32Cube_FW_N6/Drivers/STM32N6xx_HAL_Driver/Src/stm32n6xx_hal_exti.c **** 
 286:STM32Cube_FW_N6/Drivers/STM32N6xx_HAL_Driver/Src/stm32n6xx_hal_exti.c ****   /* 1] Get core mode : interrupt */
 287:STM32Cube_FW_N6/Drivers/STM32N6xx_HAL_Driver/Src/stm32n6xx_hal_exti.c ****   regaddr = (__IO uint32_t *)(&EXTI->IMR1 + (EXTI_MODE_OFFSET * offset));
 593              		.loc 1 287 13
 594 009e FB69     		ldr	r3, [r7, #28]
 595 00a0 1A01     		lsls	r2, r3, #4
 596              		.loc 1 287 11
 597 00a2 474B     		ldr	r3, .L41+16
 598 00a4 1344     		add	r3, r3, r2
 599 00a6 3B61     		str	r3, [r7, #16]
 288:STM32Cube_FW_N6/Drivers/STM32N6xx_HAL_Driver/Src/stm32n6xx_hal_exti.c ****   regval = *regaddr;
 600              		.loc 1 288 10
 601 00a8 3B69     		ldr	r3, [r7, #16]
 602 00aa 1B68     		ldr	r3, [r3]
 603 00ac FB60     		str	r3, [r7, #12]
 289:STM32Cube_FW_N6/Drivers/STM32N6xx_HAL_Driver/Src/stm32n6xx_hal_exti.c **** 
 290:STM32Cube_FW_N6/Drivers/STM32N6xx_HAL_Driver/Src/stm32n6xx_hal_exti.c ****   /* Check if selected line is enable */
 291:STM32Cube_FW_N6/Drivers/STM32N6xx_HAL_Driver/Src/stm32n6xx_hal_exti.c ****   if ((regval & maskline) != 0U)
 604              		.loc 1 291 15
 605 00ae FA68     		ldr	r2, [r7, #12]
 606 00b0 7B69     		ldr	r3, [r7, #20]
 607 00b2 1340     		ands	r3, r3, r2
 608              		.loc 1 291 6
 609 00b4 002B     		cmp	r3, #0
 610 00b6 03D0     		beq	.L31
 292:STM32Cube_FW_N6/Drivers/STM32N6xx_HAL_Driver/Src/stm32n6xx_hal_exti.c ****   {
 293:STM32Cube_FW_N6/Drivers/STM32N6xx_HAL_Driver/Src/stm32n6xx_hal_exti.c ****     pExtiConfig->Mode = EXTI_MODE_INTERRUPT;
 611              		.loc 1 293 23
 612 00b8 3B68     		ldr	r3, [r7]
 613 00ba 0122     		movs	r2, #1
 614 00bc 5A60     		str	r2, [r3, #4]
ARM GAS  /tmp/ccRD6zT9.s 			page 17


 615 00be 02E0     		b	.L32
 616              	.L31:
 294:STM32Cube_FW_N6/Drivers/STM32N6xx_HAL_Driver/Src/stm32n6xx_hal_exti.c ****   }
 295:STM32Cube_FW_N6/Drivers/STM32N6xx_HAL_Driver/Src/stm32n6xx_hal_exti.c ****   else
 296:STM32Cube_FW_N6/Drivers/STM32N6xx_HAL_Driver/Src/stm32n6xx_hal_exti.c ****   {
 297:STM32Cube_FW_N6/Drivers/STM32N6xx_HAL_Driver/Src/stm32n6xx_hal_exti.c ****     pExtiConfig->Mode = EXTI_MODE_NONE;
 617              		.loc 1 297 23
 618 00c0 3B68     		ldr	r3, [r7]
 619 00c2 0022     		movs	r2, #0
 620 00c4 5A60     		str	r2, [r3, #4]
 621              	.L32:
 298:STM32Cube_FW_N6/Drivers/STM32N6xx_HAL_Driver/Src/stm32n6xx_hal_exti.c ****   }
 299:STM32Cube_FW_N6/Drivers/STM32N6xx_HAL_Driver/Src/stm32n6xx_hal_exti.c **** 
 300:STM32Cube_FW_N6/Drivers/STM32N6xx_HAL_Driver/Src/stm32n6xx_hal_exti.c ****   /* Get event mode */
 301:STM32Cube_FW_N6/Drivers/STM32N6xx_HAL_Driver/Src/stm32n6xx_hal_exti.c ****   regaddr = (__IO uint32_t *)(&EXTI->EMR1 + (EXTI_MODE_OFFSET * offset));
 622              		.loc 1 301 13
 623 00c6 FB69     		ldr	r3, [r7, #28]
 624 00c8 1A01     		lsls	r2, r3, #4
 625              		.loc 1 301 11
 626 00ca 3E4B     		ldr	r3, .L41+20
 627 00cc 1344     		add	r3, r3, r2
 628 00ce 3B61     		str	r3, [r7, #16]
 302:STM32Cube_FW_N6/Drivers/STM32N6xx_HAL_Driver/Src/stm32n6xx_hal_exti.c ****   regval = *regaddr;
 629              		.loc 1 302 10
 630 00d0 3B69     		ldr	r3, [r7, #16]
 631 00d2 1B68     		ldr	r3, [r3]
 632 00d4 FB60     		str	r3, [r7, #12]
 303:STM32Cube_FW_N6/Drivers/STM32N6xx_HAL_Driver/Src/stm32n6xx_hal_exti.c **** 
 304:STM32Cube_FW_N6/Drivers/STM32N6xx_HAL_Driver/Src/stm32n6xx_hal_exti.c ****   /* Check if selected line is enable */
 305:STM32Cube_FW_N6/Drivers/STM32N6xx_HAL_Driver/Src/stm32n6xx_hal_exti.c ****   if ((regval & maskline) != 0U)
 633              		.loc 1 305 15
 634 00d6 FA68     		ldr	r2, [r7, #12]
 635 00d8 7B69     		ldr	r3, [r7, #20]
 636 00da 1340     		ands	r3, r3, r2
 637              		.loc 1 305 6
 638 00dc 002B     		cmp	r3, #0
 639 00de 05D0     		beq	.L33
 306:STM32Cube_FW_N6/Drivers/STM32N6xx_HAL_Driver/Src/stm32n6xx_hal_exti.c ****   {
 307:STM32Cube_FW_N6/Drivers/STM32N6xx_HAL_Driver/Src/stm32n6xx_hal_exti.c ****     pExtiConfig->Mode |= EXTI_MODE_EVENT;
 640              		.loc 1 307 16
 641 00e0 3B68     		ldr	r3, [r7]
 642 00e2 5B68     		ldr	r3, [r3, #4]
 643              		.loc 1 307 23
 644 00e4 43F00202 		orr	r2, r3, #2
 645 00e8 3B68     		ldr	r3, [r7]
 646 00ea 5A60     		str	r2, [r3, #4]
 647              	.L33:
 308:STM32Cube_FW_N6/Drivers/STM32N6xx_HAL_Driver/Src/stm32n6xx_hal_exti.c ****   }
 309:STM32Cube_FW_N6/Drivers/STM32N6xx_HAL_Driver/Src/stm32n6xx_hal_exti.c **** 
 310:STM32Cube_FW_N6/Drivers/STM32N6xx_HAL_Driver/Src/stm32n6xx_hal_exti.c ****   /* 2] Get trigger for configurable lines : rising */
 311:STM32Cube_FW_N6/Drivers/STM32N6xx_HAL_Driver/Src/stm32n6xx_hal_exti.c ****   if ((pExtiConfig->Line & EXTI_CONFIG) != 0U)
 648              		.loc 1 311 19
 649 00ec 3B68     		ldr	r3, [r7]
 650 00ee 1B68     		ldr	r3, [r3]
 651              		.loc 1 311 26
 652 00f0 03F00073 		and	r3, r3, #33554432
 653              		.loc 1 311 6
ARM GAS  /tmp/ccRD6zT9.s 			page 18


 654 00f4 002B     		cmp	r3, #0
 655 00f6 4FD0     		beq	.L34
 312:STM32Cube_FW_N6/Drivers/STM32N6xx_HAL_Driver/Src/stm32n6xx_hal_exti.c ****   {
 313:STM32Cube_FW_N6/Drivers/STM32N6xx_HAL_Driver/Src/stm32n6xx_hal_exti.c ****     regaddr = (__IO uint32_t *)(&EXTI->RTSR1 + (EXTI_CONFIG_OFFSET * offset));
 656              		.loc 1 313 15
 657 00f8 FB69     		ldr	r3, [r7, #28]
 658 00fa 5B01     		lsls	r3, r3, #5
 659              		.loc 1 313 13
 660 00fc 03F1AC43 		add	r3, r3, #1442840576
 661 0100 03F51433 		add	r3, r3, #151552
 662 0104 3B61     		str	r3, [r7, #16]
 314:STM32Cube_FW_N6/Drivers/STM32N6xx_HAL_Driver/Src/stm32n6xx_hal_exti.c ****     regval = *regaddr;
 663              		.loc 1 314 12
 664 0106 3B69     		ldr	r3, [r7, #16]
 665 0108 1B68     		ldr	r3, [r3]
 666 010a FB60     		str	r3, [r7, #12]
 315:STM32Cube_FW_N6/Drivers/STM32N6xx_HAL_Driver/Src/stm32n6xx_hal_exti.c **** 
 316:STM32Cube_FW_N6/Drivers/STM32N6xx_HAL_Driver/Src/stm32n6xx_hal_exti.c ****     /* Check if configuration of selected line is enable */
 317:STM32Cube_FW_N6/Drivers/STM32N6xx_HAL_Driver/Src/stm32n6xx_hal_exti.c ****     if ((regval & maskline) != 0U)
 667              		.loc 1 317 17
 668 010c FA68     		ldr	r2, [r7, #12]
 669 010e 7B69     		ldr	r3, [r7, #20]
 670 0110 1340     		ands	r3, r3, r2
 671              		.loc 1 317 8
 672 0112 002B     		cmp	r3, #0
 673 0114 03D0     		beq	.L35
 318:STM32Cube_FW_N6/Drivers/STM32N6xx_HAL_Driver/Src/stm32n6xx_hal_exti.c ****     {
 319:STM32Cube_FW_N6/Drivers/STM32N6xx_HAL_Driver/Src/stm32n6xx_hal_exti.c ****       pExtiConfig->Trigger = EXTI_TRIGGER_RISING;
 674              		.loc 1 319 28
 675 0116 3B68     		ldr	r3, [r7]
 676 0118 0122     		movs	r2, #1
 677 011a 9A60     		str	r2, [r3, #8]
 678 011c 02E0     		b	.L36
 679              	.L35:
 320:STM32Cube_FW_N6/Drivers/STM32N6xx_HAL_Driver/Src/stm32n6xx_hal_exti.c ****     }
 321:STM32Cube_FW_N6/Drivers/STM32N6xx_HAL_Driver/Src/stm32n6xx_hal_exti.c ****     else
 322:STM32Cube_FW_N6/Drivers/STM32N6xx_HAL_Driver/Src/stm32n6xx_hal_exti.c ****     {
 323:STM32Cube_FW_N6/Drivers/STM32N6xx_HAL_Driver/Src/stm32n6xx_hal_exti.c ****       pExtiConfig->Trigger = EXTI_TRIGGER_NONE;
 680              		.loc 1 323 28
 681 011e 3B68     		ldr	r3, [r7]
 682 0120 0022     		movs	r2, #0
 683 0122 9A60     		str	r2, [r3, #8]
 684              	.L36:
 324:STM32Cube_FW_N6/Drivers/STM32N6xx_HAL_Driver/Src/stm32n6xx_hal_exti.c ****     }
 325:STM32Cube_FW_N6/Drivers/STM32N6xx_HAL_Driver/Src/stm32n6xx_hal_exti.c **** 
 326:STM32Cube_FW_N6/Drivers/STM32N6xx_HAL_Driver/Src/stm32n6xx_hal_exti.c ****     /* Get falling configuration */
 327:STM32Cube_FW_N6/Drivers/STM32N6xx_HAL_Driver/Src/stm32n6xx_hal_exti.c ****     regaddr = (__IO uint32_t *)(&EXTI->FTSR1 + (EXTI_CONFIG_OFFSET * offset));
 685              		.loc 1 327 15
 686 0124 FB69     		ldr	r3, [r7, #28]
 687 0126 5A01     		lsls	r2, r3, #5
 688              		.loc 1 327 13
 689 0128 274B     		ldr	r3, .L41+24
 690 012a 1344     		add	r3, r3, r2
 691 012c 3B61     		str	r3, [r7, #16]
 328:STM32Cube_FW_N6/Drivers/STM32N6xx_HAL_Driver/Src/stm32n6xx_hal_exti.c ****     regval = *regaddr;
 692              		.loc 1 328 12
 693 012e 3B69     		ldr	r3, [r7, #16]
ARM GAS  /tmp/ccRD6zT9.s 			page 19


 694 0130 1B68     		ldr	r3, [r3]
 695 0132 FB60     		str	r3, [r7, #12]
 329:STM32Cube_FW_N6/Drivers/STM32N6xx_HAL_Driver/Src/stm32n6xx_hal_exti.c **** 
 330:STM32Cube_FW_N6/Drivers/STM32N6xx_HAL_Driver/Src/stm32n6xx_hal_exti.c ****     /* Check if configuration of selected line is enable */
 331:STM32Cube_FW_N6/Drivers/STM32N6xx_HAL_Driver/Src/stm32n6xx_hal_exti.c ****     if ((regval & maskline) != 0U)
 696              		.loc 1 331 17
 697 0134 FA68     		ldr	r2, [r7, #12]
 698 0136 7B69     		ldr	r3, [r7, #20]
 699 0138 1340     		ands	r3, r3, r2
 700              		.loc 1 331 8
 701 013a 002B     		cmp	r3, #0
 702 013c 05D0     		beq	.L37
 332:STM32Cube_FW_N6/Drivers/STM32N6xx_HAL_Driver/Src/stm32n6xx_hal_exti.c ****     {
 333:STM32Cube_FW_N6/Drivers/STM32N6xx_HAL_Driver/Src/stm32n6xx_hal_exti.c ****       pExtiConfig->Trigger |= EXTI_TRIGGER_FALLING;
 703              		.loc 1 333 18
 704 013e 3B68     		ldr	r3, [r7]
 705 0140 9B68     		ldr	r3, [r3, #8]
 706              		.loc 1 333 28
 707 0142 43F00202 		orr	r2, r3, #2
 708 0146 3B68     		ldr	r3, [r7]
 709 0148 9A60     		str	r2, [r3, #8]
 710              	.L37:
 334:STM32Cube_FW_N6/Drivers/STM32N6xx_HAL_Driver/Src/stm32n6xx_hal_exti.c ****     }
 335:STM32Cube_FW_N6/Drivers/STM32N6xx_HAL_Driver/Src/stm32n6xx_hal_exti.c **** 
 336:STM32Cube_FW_N6/Drivers/STM32N6xx_HAL_Driver/Src/stm32n6xx_hal_exti.c ****     /* Get Gpio port selection for gpio lines */
 337:STM32Cube_FW_N6/Drivers/STM32N6xx_HAL_Driver/Src/stm32n6xx_hal_exti.c ****     if ((pExtiConfig->Line & EXTI_GPIO) == EXTI_GPIO)
 711              		.loc 1 337 21
 712 014a 3B68     		ldr	r3, [r7]
 713 014c 1B68     		ldr	r3, [r3]
 714              		.loc 1 337 28
 715 014e 03F0C063 		and	r3, r3, #100663296
 716              		.loc 1 337 8
 717 0152 B3F1C06F 		cmp	r3, #100663296
 718 0156 1BD1     		bne	.L38
 338:STM32Cube_FW_N6/Drivers/STM32N6xx_HAL_Driver/Src/stm32n6xx_hal_exti.c ****     {
 339:STM32Cube_FW_N6/Drivers/STM32N6xx_HAL_Driver/Src/stm32n6xx_hal_exti.c ****       assert_param(IS_EXTI_GPIO_PIN(linepos));
 719              		.loc 1 339 7
 720 0158 BB69     		ldr	r3, [r7, #24]
 721 015a 0F2B     		cmp	r3, #15
 722 015c 04D9     		bls	.L39
 723              		.loc 1 339 7 is_stmt 0 discriminator 1
 724 015e 40F25311 		movw	r1, #339
 725 0162 1648     		ldr	r0, .L41+12
 726 0164 FFF7FEFF 		bl	assert_failed
 727              	.L39:
 340:STM32Cube_FW_N6/Drivers/STM32N6xx_HAL_Driver/Src/stm32n6xx_hal_exti.c **** 
 341:STM32Cube_FW_N6/Drivers/STM32N6xx_HAL_Driver/Src/stm32n6xx_hal_exti.c ****       regval = EXTI->EXTICR[(linepos >> 2U) & 0x03UL];
 728              		.loc 1 341 20 is_stmt 1
 729 0168 184A     		ldr	r2, .L41+28
 730              		.loc 1 341 38
 731 016a BB69     		ldr	r3, [r7, #24]
 732 016c 9B08     		lsrs	r3, r3, #2
 733              		.loc 1 341 45
 734 016e 03F00303 		and	r3, r3, #3
 735              		.loc 1 341 14
 736 0172 1833     		adds	r3, r3, #24
 737 0174 52F82330 		ldr	r3, [r2, r3, lsl #2]
ARM GAS  /tmp/ccRD6zT9.s 			page 20


 738 0178 FB60     		str	r3, [r7, #12]
 342:STM32Cube_FW_N6/Drivers/STM32N6xx_HAL_Driver/Src/stm32n6xx_hal_exti.c ****       pExtiConfig->GPIOSel = (regval >> (EXTI_EXTICR1_EXTI1_Pos * (linepos & 0x03u))) & EXTI_EXTICR
 739              		.loc 1 342 76
 740 017a BB69     		ldr	r3, [r7, #24]
 741 017c 03F00303 		and	r3, r3, #3
 742              		.loc 1 342 65
 743 0180 DB00     		lsls	r3, r3, #3
 744              		.loc 1 342 38
 745 0182 FA68     		ldr	r2, [r7, #12]
 746 0184 22FA03F3 		lsr	r3, r2, r3
 747              		.loc 1 342 87
 748 0188 DAB2     		uxtb	r2, r3
 749              		.loc 1 342 28
 750 018a 3B68     		ldr	r3, [r7]
 751 018c DA60     		str	r2, [r3, #12]
 752 018e 09E0     		b	.L40
 753              	.L38:
 343:STM32Cube_FW_N6/Drivers/STM32N6xx_HAL_Driver/Src/stm32n6xx_hal_exti.c ****     }
 344:STM32Cube_FW_N6/Drivers/STM32N6xx_HAL_Driver/Src/stm32n6xx_hal_exti.c ****     else
 345:STM32Cube_FW_N6/Drivers/STM32N6xx_HAL_Driver/Src/stm32n6xx_hal_exti.c ****     {
 346:STM32Cube_FW_N6/Drivers/STM32N6xx_HAL_Driver/Src/stm32n6xx_hal_exti.c ****       pExtiConfig->GPIOSel = 0U;
 754              		.loc 1 346 28
 755 0190 3B68     		ldr	r3, [r7]
 756 0192 0022     		movs	r2, #0
 757 0194 DA60     		str	r2, [r3, #12]
 758 0196 05E0     		b	.L40
 759              	.L34:
 347:STM32Cube_FW_N6/Drivers/STM32N6xx_HAL_Driver/Src/stm32n6xx_hal_exti.c ****     }
 348:STM32Cube_FW_N6/Drivers/STM32N6xx_HAL_Driver/Src/stm32n6xx_hal_exti.c ****   }
 349:STM32Cube_FW_N6/Drivers/STM32N6xx_HAL_Driver/Src/stm32n6xx_hal_exti.c ****   else
 350:STM32Cube_FW_N6/Drivers/STM32N6xx_HAL_Driver/Src/stm32n6xx_hal_exti.c ****   {
 351:STM32Cube_FW_N6/Drivers/STM32N6xx_HAL_Driver/Src/stm32n6xx_hal_exti.c ****     pExtiConfig->Trigger = EXTI_TRIGGER_NONE;
 760              		.loc 1 351 26
 761 0198 3B68     		ldr	r3, [r7]
 762 019a 0022     		movs	r2, #0
 763 019c 9A60     		str	r2, [r3, #8]
 352:STM32Cube_FW_N6/Drivers/STM32N6xx_HAL_Driver/Src/stm32n6xx_hal_exti.c ****     pExtiConfig->GPIOSel = 0U;
 764              		.loc 1 352 26
 765 019e 3B68     		ldr	r3, [r7]
 766 01a0 0022     		movs	r2, #0
 767 01a2 DA60     		str	r2, [r3, #12]
 768              	.L40:
 353:STM32Cube_FW_N6/Drivers/STM32N6xx_HAL_Driver/Src/stm32n6xx_hal_exti.c ****   }
 354:STM32Cube_FW_N6/Drivers/STM32N6xx_HAL_Driver/Src/stm32n6xx_hal_exti.c **** 
 355:STM32Cube_FW_N6/Drivers/STM32N6xx_HAL_Driver/Src/stm32n6xx_hal_exti.c ****   return HAL_OK;
 769              		.loc 1 355 10
 770 01a4 0023     		movs	r3, #0
 771              	.L27:
 356:STM32Cube_FW_N6/Drivers/STM32N6xx_HAL_Driver/Src/stm32n6xx_hal_exti.c **** }
 772              		.loc 1 356 1
 773 01a6 1846     		mov	r0, r3
 774 01a8 2037     		adds	r7, r7, #32
 775              		.cfi_def_cfa_offset 8
 776 01aa BD46     		mov	sp, r7
 777              		.cfi_def_cfa_register 13
 778              		@ sp needed
 779 01ac 80BD     		pop	{r7, pc}
ARM GAS  /tmp/ccRD6zT9.s 			page 21


 780              	.L42:
 781 01ae 00BF     		.align	2
 782              	.L41:
 783 01b0 E0FFFCE8 		.word	-386072608
 784 01b4 1F000300 		.word	196639
 785 01b8 0D000200 		.word	131085
 786 01bc 00000000 		.word	.LC0
 787 01c0 80500256 		.word	1442992256
 788 01c4 84500256 		.word	1442992260
 789 01c8 04500256 		.word	1442992132
 790 01cc 00500256 		.word	1442992128
 791              		.cfi_endproc
 792              	.LFE836:
 794              		.section	.text.HAL_EXTI_ClearConfigLine,"ax",%progbits
 795              		.align	1
 796              		.global	HAL_EXTI_ClearConfigLine
 797              		.syntax unified
 798              		.thumb
 799              		.thumb_func
 801              	HAL_EXTI_ClearConfigLine:
 802              	.LFB837:
 357:STM32Cube_FW_N6/Drivers/STM32N6xx_HAL_Driver/Src/stm32n6xx_hal_exti.c **** 
 358:STM32Cube_FW_N6/Drivers/STM32N6xx_HAL_Driver/Src/stm32n6xx_hal_exti.c **** 
 359:STM32Cube_FW_N6/Drivers/STM32N6xx_HAL_Driver/Src/stm32n6xx_hal_exti.c **** /**
 360:STM32Cube_FW_N6/Drivers/STM32N6xx_HAL_Driver/Src/stm32n6xx_hal_exti.c ****   * @brief  Clear whole configuration of a dedicated Exti line.
 361:STM32Cube_FW_N6/Drivers/STM32N6xx_HAL_Driver/Src/stm32n6xx_hal_exti.c ****   * @param  hexti Exti handle.
 362:STM32Cube_FW_N6/Drivers/STM32N6xx_HAL_Driver/Src/stm32n6xx_hal_exti.c ****   * @retval HAL Status.
 363:STM32Cube_FW_N6/Drivers/STM32N6xx_HAL_Driver/Src/stm32n6xx_hal_exti.c ****   */
 364:STM32Cube_FW_N6/Drivers/STM32N6xx_HAL_Driver/Src/stm32n6xx_hal_exti.c **** HAL_StatusTypeDef HAL_EXTI_ClearConfigLine(const EXTI_HandleTypeDef *hexti)
 365:STM32Cube_FW_N6/Drivers/STM32N6xx_HAL_Driver/Src/stm32n6xx_hal_exti.c **** {
 803              		.loc 1 365 1
 804              		.cfi_startproc
 805              		@ args = 0, pretend = 0, frame = 32
 806              		@ frame_needed = 1, uses_anonymous_args = 0
 807 0000 80B5     		push	{r7, lr}
 808              		.cfi_def_cfa_offset 8
 809              		.cfi_offset 7, -8
 810              		.cfi_offset 14, -4
 811 0002 88B0     		sub	sp, sp, #32
 812              		.cfi_def_cfa_offset 40
 813 0004 00AF     		add	r7, sp, #0
 814              		.cfi_def_cfa_register 7
 815 0006 7860     		str	r0, [r7, #4]
 366:STM32Cube_FW_N6/Drivers/STM32N6xx_HAL_Driver/Src/stm32n6xx_hal_exti.c ****   __IO uint32_t *regaddr;
 367:STM32Cube_FW_N6/Drivers/STM32N6xx_HAL_Driver/Src/stm32n6xx_hal_exti.c ****   uint32_t regval;
 368:STM32Cube_FW_N6/Drivers/STM32N6xx_HAL_Driver/Src/stm32n6xx_hal_exti.c ****   uint32_t linepos;
 369:STM32Cube_FW_N6/Drivers/STM32N6xx_HAL_Driver/Src/stm32n6xx_hal_exti.c ****   uint32_t maskline;
 370:STM32Cube_FW_N6/Drivers/STM32N6xx_HAL_Driver/Src/stm32n6xx_hal_exti.c ****   uint32_t offset;
 371:STM32Cube_FW_N6/Drivers/STM32N6xx_HAL_Driver/Src/stm32n6xx_hal_exti.c **** 
 372:STM32Cube_FW_N6/Drivers/STM32N6xx_HAL_Driver/Src/stm32n6xx_hal_exti.c ****   /* Check null pointer */
 373:STM32Cube_FW_N6/Drivers/STM32N6xx_HAL_Driver/Src/stm32n6xx_hal_exti.c ****   if (hexti == NULL)
 816              		.loc 1 373 6
 817 0008 7B68     		ldr	r3, [r7, #4]
 818 000a 002B     		cmp	r3, #0
 819 000c 01D1     		bne	.L44
 374:STM32Cube_FW_N6/Drivers/STM32N6xx_HAL_Driver/Src/stm32n6xx_hal_exti.c ****   {
 375:STM32Cube_FW_N6/Drivers/STM32N6xx_HAL_Driver/Src/stm32n6xx_hal_exti.c ****     return HAL_ERROR;
ARM GAS  /tmp/ccRD6zT9.s 			page 22


 820              		.loc 1 375 12
 821 000e 0123     		movs	r3, #1
 822 0010 AAE0     		b	.L45
 823              	.L44:
 376:STM32Cube_FW_N6/Drivers/STM32N6xx_HAL_Driver/Src/stm32n6xx_hal_exti.c ****   }
 377:STM32Cube_FW_N6/Drivers/STM32N6xx_HAL_Driver/Src/stm32n6xx_hal_exti.c **** 
 378:STM32Cube_FW_N6/Drivers/STM32N6xx_HAL_Driver/Src/stm32n6xx_hal_exti.c ****   /* Check the parameter */
 379:STM32Cube_FW_N6/Drivers/STM32N6xx_HAL_Driver/Src/stm32n6xx_hal_exti.c ****   assert_param(IS_EXTI_LINE(hexti->Line));
 824              		.loc 1 379 3
 825 0012 7B68     		ldr	r3, [r7, #4]
 826 0014 1A68     		ldr	r2, [r3]
 827 0016 564B     		ldr	r3, .L51
 828 0018 1340     		ands	r3, r3, r2
 829 001a 002B     		cmp	r3, #0
 830 001c 22D1     		bne	.L46
 831              		.loc 1 379 3 is_stmt 0 discriminator 2
 832 001e 7B68     		ldr	r3, [r7, #4]
 833 0020 1B68     		ldr	r3, [r3]
 834 0022 03F0E063 		and	r3, r3, #117440512
 835 0026 B3F1807F 		cmp	r3, #16777216
 836 002a 0DD0     		beq	.L47
 837              		.loc 1 379 3 discriminator 3
 838 002c 7B68     		ldr	r3, [r7, #4]
 839 002e 1B68     		ldr	r3, [r3]
 840 0030 03F0E063 		and	r3, r3, #117440512
 841 0034 B3F1007F 		cmp	r3, #33554432
 842 0038 06D0     		beq	.L47
 843              		.loc 1 379 3 discriminator 5
 844 003a 7B68     		ldr	r3, [r7, #4]
 845 003c 1B68     		ldr	r3, [r3]
 846 003e 03F0E063 		and	r3, r3, #117440512
 847 0042 B3F1C06F 		cmp	r3, #100663296
 848 0046 0DD1     		bne	.L46
 849              	.L47:
 850              		.loc 1 379 3 discriminator 8
 851 0048 7B68     		ldr	r3, [r7, #4]
 852 004a 1A68     		ldr	r2, [r3]
 853 004c 494B     		ldr	r3, .L51+4
 854 004e 1340     		ands	r3, r3, r2
 855 0050 494A     		ldr	r2, .L51+8
 856 0052 9342     		cmp	r3, r2
 857 0054 0BD9     		bls	.L48
 858              		.loc 1 379 3 discriminator 9
 859 0056 7B68     		ldr	r3, [r7, #4]
 860 0058 1A68     		ldr	r2, [r3]
 861 005a 464B     		ldr	r3, .L51+4
 862 005c 1340     		ands	r3, r3, r2
 863 005e 464A     		ldr	r2, .L51+8
 864 0060 9342     		cmp	r3, r2
 865 0062 04D0     		beq	.L48
 866              	.L46:
 867              		.loc 1 379 3 discriminator 10
 868 0064 40F27B11 		movw	r1, #379
 869 0068 4448     		ldr	r0, .L51+12
 870 006a FFF7FEFF 		bl	assert_failed
 871              	.L48:
 380:STM32Cube_FW_N6/Drivers/STM32N6xx_HAL_Driver/Src/stm32n6xx_hal_exti.c **** 
ARM GAS  /tmp/ccRD6zT9.s 			page 23


 381:STM32Cube_FW_N6/Drivers/STM32N6xx_HAL_Driver/Src/stm32n6xx_hal_exti.c ****   /* compute line register offset and line mask */
 382:STM32Cube_FW_N6/Drivers/STM32N6xx_HAL_Driver/Src/stm32n6xx_hal_exti.c ****   offset = ((hexti->Line & EXTI_REG_MASK) >> EXTI_REG_SHIFT);
 872              		.loc 1 382 19 is_stmt 1
 873 006e 7B68     		ldr	r3, [r7, #4]
 874 0070 1B68     		ldr	r3, [r3]
 875              		.loc 1 382 43
 876 0072 1B0C     		lsrs	r3, r3, #16
 877              		.loc 1 382 10
 878 0074 03F00303 		and	r3, r3, #3
 879 0078 FB61     		str	r3, [r7, #28]
 383:STM32Cube_FW_N6/Drivers/STM32N6xx_HAL_Driver/Src/stm32n6xx_hal_exti.c ****   linepos = (hexti->Line & EXTI_PIN_MASK);
 880              		.loc 1 383 19
 881 007a 7B68     		ldr	r3, [r7, #4]
 882 007c 1B68     		ldr	r3, [r3]
 883              		.loc 1 383 11
 884 007e 03F01F03 		and	r3, r3, #31
 885 0082 BB61     		str	r3, [r7, #24]
 384:STM32Cube_FW_N6/Drivers/STM32N6xx_HAL_Driver/Src/stm32n6xx_hal_exti.c ****   maskline = (1UL << linepos);
 886              		.loc 1 384 12
 887 0084 0122     		movs	r2, #1
 888 0086 BB69     		ldr	r3, [r7, #24]
 889 0088 02FA03F3 		lsl	r3, r2, r3
 890 008c 7B61     		str	r3, [r7, #20]
 385:STM32Cube_FW_N6/Drivers/STM32N6xx_HAL_Driver/Src/stm32n6xx_hal_exti.c **** 
 386:STM32Cube_FW_N6/Drivers/STM32N6xx_HAL_Driver/Src/stm32n6xx_hal_exti.c ****   /* 1] Clear interrupt mode */
 387:STM32Cube_FW_N6/Drivers/STM32N6xx_HAL_Driver/Src/stm32n6xx_hal_exti.c ****   regaddr = (__IO uint32_t *)(&EXTI->IMR1 + (EXTI_MODE_OFFSET * offset));
 891              		.loc 1 387 13
 892 008e FB69     		ldr	r3, [r7, #28]
 893 0090 1A01     		lsls	r2, r3, #4
 894              		.loc 1 387 11
 895 0092 3B4B     		ldr	r3, .L51+16
 896 0094 1344     		add	r3, r3, r2
 897 0096 3B61     		str	r3, [r7, #16]
 388:STM32Cube_FW_N6/Drivers/STM32N6xx_HAL_Driver/Src/stm32n6xx_hal_exti.c ****   regval = (*regaddr & ~maskline);
 898              		.loc 1 388 13
 899 0098 3B69     		ldr	r3, [r7, #16]
 900 009a 1A68     		ldr	r2, [r3]
 901              		.loc 1 388 24
 902 009c 7B69     		ldr	r3, [r7, #20]
 903 009e DB43     		mvns	r3, r3
 904              		.loc 1 388 10
 905 00a0 1340     		ands	r3, r3, r2
 906 00a2 FB60     		str	r3, [r7, #12]
 389:STM32Cube_FW_N6/Drivers/STM32N6xx_HAL_Driver/Src/stm32n6xx_hal_exti.c ****   *regaddr = regval;
 907              		.loc 1 389 12
 908 00a4 3B69     		ldr	r3, [r7, #16]
 909 00a6 FA68     		ldr	r2, [r7, #12]
 910 00a8 1A60     		str	r2, [r3]
 390:STM32Cube_FW_N6/Drivers/STM32N6xx_HAL_Driver/Src/stm32n6xx_hal_exti.c **** 
 391:STM32Cube_FW_N6/Drivers/STM32N6xx_HAL_Driver/Src/stm32n6xx_hal_exti.c ****   /* 2] Clear event mode */
 392:STM32Cube_FW_N6/Drivers/STM32N6xx_HAL_Driver/Src/stm32n6xx_hal_exti.c ****   regaddr = (__IO uint32_t *)(&EXTI->EMR1 + (EXTI_MODE_OFFSET * offset));
 911              		.loc 1 392 13
 912 00aa FB69     		ldr	r3, [r7, #28]
 913 00ac 1A01     		lsls	r2, r3, #4
 914              		.loc 1 392 11
 915 00ae 354B     		ldr	r3, .L51+20
 916 00b0 1344     		add	r3, r3, r2
ARM GAS  /tmp/ccRD6zT9.s 			page 24


 917 00b2 3B61     		str	r3, [r7, #16]
 393:STM32Cube_FW_N6/Drivers/STM32N6xx_HAL_Driver/Src/stm32n6xx_hal_exti.c ****   regval = (*regaddr & ~maskline);
 918              		.loc 1 393 13
 919 00b4 3B69     		ldr	r3, [r7, #16]
 920 00b6 1A68     		ldr	r2, [r3]
 921              		.loc 1 393 24
 922 00b8 7B69     		ldr	r3, [r7, #20]
 923 00ba DB43     		mvns	r3, r3
 924              		.loc 1 393 10
 925 00bc 1340     		ands	r3, r3, r2
 926 00be FB60     		str	r3, [r7, #12]
 394:STM32Cube_FW_N6/Drivers/STM32N6xx_HAL_Driver/Src/stm32n6xx_hal_exti.c ****   *regaddr = regval;
 927              		.loc 1 394 12
 928 00c0 3B69     		ldr	r3, [r7, #16]
 929 00c2 FA68     		ldr	r2, [r7, #12]
 930 00c4 1A60     		str	r2, [r3]
 395:STM32Cube_FW_N6/Drivers/STM32N6xx_HAL_Driver/Src/stm32n6xx_hal_exti.c **** 
 396:STM32Cube_FW_N6/Drivers/STM32N6xx_HAL_Driver/Src/stm32n6xx_hal_exti.c ****   /* 3] Clear triggers in case of configurable lines */
 397:STM32Cube_FW_N6/Drivers/STM32N6xx_HAL_Driver/Src/stm32n6xx_hal_exti.c ****   if ((hexti->Line & EXTI_CONFIG) != 0U)
 931              		.loc 1 397 13
 932 00c6 7B68     		ldr	r3, [r7, #4]
 933 00c8 1B68     		ldr	r3, [r3]
 934              		.loc 1 397 20
 935 00ca 03F00073 		and	r3, r3, #33554432
 936              		.loc 1 397 6
 937 00ce 002B     		cmp	r3, #0
 938 00d0 49D0     		beq	.L49
 398:STM32Cube_FW_N6/Drivers/STM32N6xx_HAL_Driver/Src/stm32n6xx_hal_exti.c ****   {
 399:STM32Cube_FW_N6/Drivers/STM32N6xx_HAL_Driver/Src/stm32n6xx_hal_exti.c ****     regaddr = (__IO uint32_t *)(&EXTI->RTSR1 + (EXTI_CONFIG_OFFSET * offset));
 939              		.loc 1 399 15
 940 00d2 FB69     		ldr	r3, [r7, #28]
 941 00d4 5B01     		lsls	r3, r3, #5
 942              		.loc 1 399 13
 943 00d6 03F1AC43 		add	r3, r3, #1442840576
 944 00da 03F51433 		add	r3, r3, #151552
 945 00de 3B61     		str	r3, [r7, #16]
 400:STM32Cube_FW_N6/Drivers/STM32N6xx_HAL_Driver/Src/stm32n6xx_hal_exti.c ****     regval = (*regaddr & ~maskline);
 946              		.loc 1 400 15
 947 00e0 3B69     		ldr	r3, [r7, #16]
 948 00e2 1A68     		ldr	r2, [r3]
 949              		.loc 1 400 26
 950 00e4 7B69     		ldr	r3, [r7, #20]
 951 00e6 DB43     		mvns	r3, r3
 952              		.loc 1 400 12
 953 00e8 1340     		ands	r3, r3, r2
 954 00ea FB60     		str	r3, [r7, #12]
 401:STM32Cube_FW_N6/Drivers/STM32N6xx_HAL_Driver/Src/stm32n6xx_hal_exti.c ****     *regaddr = regval;
 955              		.loc 1 401 14
 956 00ec 3B69     		ldr	r3, [r7, #16]
 957 00ee FA68     		ldr	r2, [r7, #12]
 958 00f0 1A60     		str	r2, [r3]
 402:STM32Cube_FW_N6/Drivers/STM32N6xx_HAL_Driver/Src/stm32n6xx_hal_exti.c **** 
 403:STM32Cube_FW_N6/Drivers/STM32N6xx_HAL_Driver/Src/stm32n6xx_hal_exti.c ****     regaddr = (__IO uint32_t *)(&EXTI->FTSR1 + (EXTI_CONFIG_OFFSET * offset));
 959              		.loc 1 403 15
 960 00f2 FB69     		ldr	r3, [r7, #28]
 961 00f4 5A01     		lsls	r2, r3, #5
 962              		.loc 1 403 13
ARM GAS  /tmp/ccRD6zT9.s 			page 25


 963 00f6 244B     		ldr	r3, .L51+24
 964 00f8 1344     		add	r3, r3, r2
 965 00fa 3B61     		str	r3, [r7, #16]
 404:STM32Cube_FW_N6/Drivers/STM32N6xx_HAL_Driver/Src/stm32n6xx_hal_exti.c ****     regval = (*regaddr & ~maskline);
 966              		.loc 1 404 15
 967 00fc 3B69     		ldr	r3, [r7, #16]
 968 00fe 1A68     		ldr	r2, [r3]
 969              		.loc 1 404 26
 970 0100 7B69     		ldr	r3, [r7, #20]
 971 0102 DB43     		mvns	r3, r3
 972              		.loc 1 404 12
 973 0104 1340     		ands	r3, r3, r2
 974 0106 FB60     		str	r3, [r7, #12]
 405:STM32Cube_FW_N6/Drivers/STM32N6xx_HAL_Driver/Src/stm32n6xx_hal_exti.c ****     *regaddr = regval;
 975              		.loc 1 405 14
 976 0108 3B69     		ldr	r3, [r7, #16]
 977 010a FA68     		ldr	r2, [r7, #12]
 978 010c 1A60     		str	r2, [r3]
 406:STM32Cube_FW_N6/Drivers/STM32N6xx_HAL_Driver/Src/stm32n6xx_hal_exti.c **** 
 407:STM32Cube_FW_N6/Drivers/STM32N6xx_HAL_Driver/Src/stm32n6xx_hal_exti.c ****     /* Get Gpio port selection for gpio lines */
 408:STM32Cube_FW_N6/Drivers/STM32N6xx_HAL_Driver/Src/stm32n6xx_hal_exti.c ****     if ((hexti->Line & EXTI_GPIO) == EXTI_GPIO)
 979              		.loc 1 408 15
 980 010e 7B68     		ldr	r3, [r7, #4]
 981 0110 1B68     		ldr	r3, [r3]
 982              		.loc 1 408 22
 983 0112 03F0C063 		and	r3, r3, #100663296
 984              		.loc 1 408 8
 985 0116 B3F1C06F 		cmp	r3, #100663296
 986 011a 24D1     		bne	.L49
 409:STM32Cube_FW_N6/Drivers/STM32N6xx_HAL_Driver/Src/stm32n6xx_hal_exti.c ****     {
 410:STM32Cube_FW_N6/Drivers/STM32N6xx_HAL_Driver/Src/stm32n6xx_hal_exti.c ****       assert_param(IS_EXTI_GPIO_PIN(linepos));
 987              		.loc 1 410 7
 988 011c BB69     		ldr	r3, [r7, #24]
 989 011e 0F2B     		cmp	r3, #15
 990 0120 04D9     		bls	.L50
 991              		.loc 1 410 7 is_stmt 0 discriminator 1
 992 0122 4FF4CD71 		mov	r1, #410
 993 0126 1548     		ldr	r0, .L51+12
 994 0128 FFF7FEFF 		bl	assert_failed
 995              	.L50:
 411:STM32Cube_FW_N6/Drivers/STM32N6xx_HAL_Driver/Src/stm32n6xx_hal_exti.c **** 
 412:STM32Cube_FW_N6/Drivers/STM32N6xx_HAL_Driver/Src/stm32n6xx_hal_exti.c ****       regval = EXTI->EXTICR[(linepos >> 2U) & 0x03UL];
 996              		.loc 1 412 20 is_stmt 1
 997 012c 174A     		ldr	r2, .L51+28
 998              		.loc 1 412 38
 999 012e BB69     		ldr	r3, [r7, #24]
 1000 0130 9B08     		lsrs	r3, r3, #2
 1001              		.loc 1 412 45
 1002 0132 03F00303 		and	r3, r3, #3
 1003              		.loc 1 412 14
 1004 0136 1833     		adds	r3, r3, #24
 1005 0138 52F82330 		ldr	r3, [r2, r3, lsl #2]
 1006 013c FB60     		str	r3, [r7, #12]
 413:STM32Cube_FW_N6/Drivers/STM32N6xx_HAL_Driver/Src/stm32n6xx_hal_exti.c ****       regval &= ~(EXTI_EXTICR1_EXTI0 << (EXTI_EXTICR1_EXTI1_Pos * (linepos & 0x03U)));
 1007              		.loc 1 413 76
 1008 013e BB69     		ldr	r3, [r7, #24]
 1009 0140 03F00303 		and	r3, r3, #3
ARM GAS  /tmp/ccRD6zT9.s 			page 26


 1010              		.loc 1 413 65
 1011 0144 DB00     		lsls	r3, r3, #3
 1012              		.loc 1 413 38
 1013 0146 FF22     		movs	r2, #255
 1014 0148 02FA03F3 		lsl	r3, r2, r3
 1015              		.loc 1 413 17
 1016 014c DB43     		mvns	r3, r3
 1017              		.loc 1 413 14
 1018 014e FA68     		ldr	r2, [r7, #12]
 1019 0150 1340     		ands	r3, r3, r2
 1020 0152 FB60     		str	r3, [r7, #12]
 414:STM32Cube_FW_N6/Drivers/STM32N6xx_HAL_Driver/Src/stm32n6xx_hal_exti.c ****       EXTI->EXTICR[(linepos >> 2U) & 0x03UL] = regval;
 1021              		.loc 1 414 11
 1022 0154 0D49     		ldr	r1, .L51+28
 1023              		.loc 1 414 29
 1024 0156 BB69     		ldr	r3, [r7, #24]
 1025 0158 9B08     		lsrs	r3, r3, #2
 1026              		.loc 1 414 36
 1027 015a 03F00303 		and	r3, r3, #3
 1028              		.loc 1 414 46
 1029 015e 1833     		adds	r3, r3, #24
 1030 0160 FA68     		ldr	r2, [r7, #12]
 1031 0162 41F82320 		str	r2, [r1, r3, lsl #2]
 1032              	.L49:
 415:STM32Cube_FW_N6/Drivers/STM32N6xx_HAL_Driver/Src/stm32n6xx_hal_exti.c ****     }
 416:STM32Cube_FW_N6/Drivers/STM32N6xx_HAL_Driver/Src/stm32n6xx_hal_exti.c ****   }
 417:STM32Cube_FW_N6/Drivers/STM32N6xx_HAL_Driver/Src/stm32n6xx_hal_exti.c **** 
 418:STM32Cube_FW_N6/Drivers/STM32N6xx_HAL_Driver/Src/stm32n6xx_hal_exti.c ****   return HAL_OK;
 1033              		.loc 1 418 10
 1034 0166 0023     		movs	r3, #0
 1035              	.L45:
 419:STM32Cube_FW_N6/Drivers/STM32N6xx_HAL_Driver/Src/stm32n6xx_hal_exti.c **** }
 1036              		.loc 1 419 1
 1037 0168 1846     		mov	r0, r3
 1038 016a 2037     		adds	r7, r7, #32
 1039              		.cfi_def_cfa_offset 8
 1040 016c BD46     		mov	sp, r7
 1041              		.cfi_def_cfa_register 13
 1042              		@ sp needed
 1043 016e 80BD     		pop	{r7, pc}
 1044              	.L52:
 1045              		.align	2
 1046              	.L51:
 1047 0170 E0FFFCE8 		.word	-386072608
 1048 0174 1F000300 		.word	196639
 1049 0178 0D000200 		.word	131085
 1050 017c 00000000 		.word	.LC0
 1051 0180 80500256 		.word	1442992256
 1052 0184 84500256 		.word	1442992260
 1053 0188 04500256 		.word	1442992132
 1054 018c 00500256 		.word	1442992128
 1055              		.cfi_endproc
 1056              	.LFE837:
 1058              		.section	.text.HAL_EXTI_RegisterCallback,"ax",%progbits
 1059              		.align	1
 1060              		.global	HAL_EXTI_RegisterCallback
 1061              		.syntax unified
ARM GAS  /tmp/ccRD6zT9.s 			page 27


 1062              		.thumb
 1063              		.thumb_func
 1065              	HAL_EXTI_RegisterCallback:
 1066              	.LFB838:
 420:STM32Cube_FW_N6/Drivers/STM32N6xx_HAL_Driver/Src/stm32n6xx_hal_exti.c **** 
 421:STM32Cube_FW_N6/Drivers/STM32N6xx_HAL_Driver/Src/stm32n6xx_hal_exti.c **** 
 422:STM32Cube_FW_N6/Drivers/STM32N6xx_HAL_Driver/Src/stm32n6xx_hal_exti.c **** /**
 423:STM32Cube_FW_N6/Drivers/STM32N6xx_HAL_Driver/Src/stm32n6xx_hal_exti.c ****   * @brief  Register callback for a dedicated Exti line.
 424:STM32Cube_FW_N6/Drivers/STM32N6xx_HAL_Driver/Src/stm32n6xx_hal_exti.c ****   * @param  hexti Exti handle.
 425:STM32Cube_FW_N6/Drivers/STM32N6xx_HAL_Driver/Src/stm32n6xx_hal_exti.c ****   * @param  CallbackID User callback identifier.
 426:STM32Cube_FW_N6/Drivers/STM32N6xx_HAL_Driver/Src/stm32n6xx_hal_exti.c ****   *         This parameter can be one of @arg @ref EXTI_CallbackIDTypeDef values.
 427:STM32Cube_FW_N6/Drivers/STM32N6xx_HAL_Driver/Src/stm32n6xx_hal_exti.c ****   * @param  pPendingCbfn function pointer to be stored as callback.
 428:STM32Cube_FW_N6/Drivers/STM32N6xx_HAL_Driver/Src/stm32n6xx_hal_exti.c ****   * @retval HAL Status.
 429:STM32Cube_FW_N6/Drivers/STM32N6xx_HAL_Driver/Src/stm32n6xx_hal_exti.c ****   */
 430:STM32Cube_FW_N6/Drivers/STM32N6xx_HAL_Driver/Src/stm32n6xx_hal_exti.c **** HAL_StatusTypeDef HAL_EXTI_RegisterCallback(EXTI_HandleTypeDef *hexti, EXTI_CallbackIDTypeDef Callb
 431:STM32Cube_FW_N6/Drivers/STM32N6xx_HAL_Driver/Src/stm32n6xx_hal_exti.c ****                                             void (*pPendingCbfn)(void))
 432:STM32Cube_FW_N6/Drivers/STM32N6xx_HAL_Driver/Src/stm32n6xx_hal_exti.c **** {
 1067              		.loc 1 432 1
 1068              		.cfi_startproc
 1069              		@ args = 0, pretend = 0, frame = 24
 1070              		@ frame_needed = 1, uses_anonymous_args = 0
 1071              		@ link register save eliminated.
 1072 0000 80B4     		push	{r7}
 1073              		.cfi_def_cfa_offset 4
 1074              		.cfi_offset 7, -4
 1075 0002 87B0     		sub	sp, sp, #28
 1076              		.cfi_def_cfa_offset 32
 1077 0004 00AF     		add	r7, sp, #0
 1078              		.cfi_def_cfa_register 7
 1079 0006 F860     		str	r0, [r7, #12]
 1080 0008 0B46     		mov	r3, r1
 1081 000a 7A60     		str	r2, [r7, #4]
 1082 000c FB72     		strb	r3, [r7, #11]
 433:STM32Cube_FW_N6/Drivers/STM32N6xx_HAL_Driver/Src/stm32n6xx_hal_exti.c ****   HAL_StatusTypeDef status = HAL_OK;
 1083              		.loc 1 433 21
 1084 000e 0023     		movs	r3, #0
 1085 0010 FB75     		strb	r3, [r7, #23]
 434:STM32Cube_FW_N6/Drivers/STM32N6xx_HAL_Driver/Src/stm32n6xx_hal_exti.c **** 
 435:STM32Cube_FW_N6/Drivers/STM32N6xx_HAL_Driver/Src/stm32n6xx_hal_exti.c ****   switch (CallbackID)
 1086              		.loc 1 435 3
 1087 0012 FB7A     		ldrb	r3, [r7, #11]	@ zero_extendqisi2
 1088 0014 022B     		cmp	r3, #2
 1089 0016 11D0     		beq	.L54
 1090 0018 022B     		cmp	r3, #2
 1091 001a 13DC     		bgt	.L55
 1092 001c 002B     		cmp	r3, #0
 1093 001e 02D0     		beq	.L56
 1094 0020 012B     		cmp	r3, #1
 1095 0022 07D0     		beq	.L57
 1096 0024 0EE0     		b	.L55
 1097              	.L56:
 436:STM32Cube_FW_N6/Drivers/STM32N6xx_HAL_Driver/Src/stm32n6xx_hal_exti.c ****   {
 437:STM32Cube_FW_N6/Drivers/STM32N6xx_HAL_Driver/Src/stm32n6xx_hal_exti.c ****     case  HAL_EXTI_COMMON_CB_ID:
 438:STM32Cube_FW_N6/Drivers/STM32N6xx_HAL_Driver/Src/stm32n6xx_hal_exti.c ****       hexti->RisingCallback = pPendingCbfn;
 1098              		.loc 1 438 29
 1099 0026 FB68     		ldr	r3, [r7, #12]
 1100 0028 7A68     		ldr	r2, [r7, #4]
ARM GAS  /tmp/ccRD6zT9.s 			page 28


 1101 002a 5A60     		str	r2, [r3, #4]
 439:STM32Cube_FW_N6/Drivers/STM32N6xx_HAL_Driver/Src/stm32n6xx_hal_exti.c ****       hexti->FallingCallback = pPendingCbfn;
 1102              		.loc 1 439 30
 1103 002c FB68     		ldr	r3, [r7, #12]
 1104 002e 7A68     		ldr	r2, [r7, #4]
 1105 0030 9A60     		str	r2, [r3, #8]
 440:STM32Cube_FW_N6/Drivers/STM32N6xx_HAL_Driver/Src/stm32n6xx_hal_exti.c ****       break;
 1106              		.loc 1 440 7
 1107 0032 0AE0     		b	.L58
 1108              	.L57:
 441:STM32Cube_FW_N6/Drivers/STM32N6xx_HAL_Driver/Src/stm32n6xx_hal_exti.c **** 
 442:STM32Cube_FW_N6/Drivers/STM32N6xx_HAL_Driver/Src/stm32n6xx_hal_exti.c ****     case  HAL_EXTI_RISING_CB_ID:
 443:STM32Cube_FW_N6/Drivers/STM32N6xx_HAL_Driver/Src/stm32n6xx_hal_exti.c ****       hexti->RisingCallback = pPendingCbfn;
 1109              		.loc 1 443 29
 1110 0034 FB68     		ldr	r3, [r7, #12]
 1111 0036 7A68     		ldr	r2, [r7, #4]
 1112 0038 5A60     		str	r2, [r3, #4]
 444:STM32Cube_FW_N6/Drivers/STM32N6xx_HAL_Driver/Src/stm32n6xx_hal_exti.c ****       break;
 1113              		.loc 1 444 7
 1114 003a 06E0     		b	.L58
 1115              	.L54:
 445:STM32Cube_FW_N6/Drivers/STM32N6xx_HAL_Driver/Src/stm32n6xx_hal_exti.c **** 
 446:STM32Cube_FW_N6/Drivers/STM32N6xx_HAL_Driver/Src/stm32n6xx_hal_exti.c ****     case  HAL_EXTI_FALLING_CB_ID:
 447:STM32Cube_FW_N6/Drivers/STM32N6xx_HAL_Driver/Src/stm32n6xx_hal_exti.c ****       hexti->FallingCallback = pPendingCbfn;
 1116              		.loc 1 447 30
 1117 003c FB68     		ldr	r3, [r7, #12]
 1118 003e 7A68     		ldr	r2, [r7, #4]
 1119 0040 9A60     		str	r2, [r3, #8]
 448:STM32Cube_FW_N6/Drivers/STM32N6xx_HAL_Driver/Src/stm32n6xx_hal_exti.c ****       break;
 1120              		.loc 1 448 7
 1121 0042 02E0     		b	.L58
 1122              	.L55:
 449:STM32Cube_FW_N6/Drivers/STM32N6xx_HAL_Driver/Src/stm32n6xx_hal_exti.c **** 
 450:STM32Cube_FW_N6/Drivers/STM32N6xx_HAL_Driver/Src/stm32n6xx_hal_exti.c ****     default:
 451:STM32Cube_FW_N6/Drivers/STM32N6xx_HAL_Driver/Src/stm32n6xx_hal_exti.c ****       status = HAL_ERROR;
 1123              		.loc 1 451 14
 1124 0044 0123     		movs	r3, #1
 1125 0046 FB75     		strb	r3, [r7, #23]
 452:STM32Cube_FW_N6/Drivers/STM32N6xx_HAL_Driver/Src/stm32n6xx_hal_exti.c ****       break;
 1126              		.loc 1 452 7
 1127 0048 00BF     		nop
 1128              	.L58:
 453:STM32Cube_FW_N6/Drivers/STM32N6xx_HAL_Driver/Src/stm32n6xx_hal_exti.c ****   }
 454:STM32Cube_FW_N6/Drivers/STM32N6xx_HAL_Driver/Src/stm32n6xx_hal_exti.c **** 
 455:STM32Cube_FW_N6/Drivers/STM32N6xx_HAL_Driver/Src/stm32n6xx_hal_exti.c ****   return status;
 1129              		.loc 1 455 10
 1130 004a FB7D     		ldrb	r3, [r7, #23]	@ zero_extendqisi2
 456:STM32Cube_FW_N6/Drivers/STM32N6xx_HAL_Driver/Src/stm32n6xx_hal_exti.c **** }
 1131              		.loc 1 456 1
 1132 004c 1846     		mov	r0, r3
 1133 004e 1C37     		adds	r7, r7, #28
 1134              		.cfi_def_cfa_offset 4
 1135 0050 BD46     		mov	sp, r7
 1136              		.cfi_def_cfa_register 13
 1137              		@ sp needed
 1138 0052 5DF8047B 		ldr	r7, [sp], #4
 1139              		.cfi_restore 7
ARM GAS  /tmp/ccRD6zT9.s 			page 29


 1140              		.cfi_def_cfa_offset 0
 1141 0056 7047     		bx	lr
 1142              		.cfi_endproc
 1143              	.LFE838:
 1145              		.section	.text.HAL_EXTI_GetHandle,"ax",%progbits
 1146              		.align	1
 1147              		.global	HAL_EXTI_GetHandle
 1148              		.syntax unified
 1149              		.thumb
 1150              		.thumb_func
 1152              	HAL_EXTI_GetHandle:
 1153              	.LFB839:
 457:STM32Cube_FW_N6/Drivers/STM32N6xx_HAL_Driver/Src/stm32n6xx_hal_exti.c **** 
 458:STM32Cube_FW_N6/Drivers/STM32N6xx_HAL_Driver/Src/stm32n6xx_hal_exti.c **** 
 459:STM32Cube_FW_N6/Drivers/STM32N6xx_HAL_Driver/Src/stm32n6xx_hal_exti.c **** /**
 460:STM32Cube_FW_N6/Drivers/STM32N6xx_HAL_Driver/Src/stm32n6xx_hal_exti.c ****   * @brief  Store line number as handle private field.
 461:STM32Cube_FW_N6/Drivers/STM32N6xx_HAL_Driver/Src/stm32n6xx_hal_exti.c ****   * @param  hexti Exti handle.
 462:STM32Cube_FW_N6/Drivers/STM32N6xx_HAL_Driver/Src/stm32n6xx_hal_exti.c ****   * @param  ExtiLine Exti line number.
 463:STM32Cube_FW_N6/Drivers/STM32N6xx_HAL_Driver/Src/stm32n6xx_hal_exti.c ****   *         This parameter can be from 0 to @ref EXTI_LINE_NB.
 464:STM32Cube_FW_N6/Drivers/STM32N6xx_HAL_Driver/Src/stm32n6xx_hal_exti.c ****   * @retval HAL Status.
 465:STM32Cube_FW_N6/Drivers/STM32N6xx_HAL_Driver/Src/stm32n6xx_hal_exti.c ****   */
 466:STM32Cube_FW_N6/Drivers/STM32N6xx_HAL_Driver/Src/stm32n6xx_hal_exti.c **** HAL_StatusTypeDef HAL_EXTI_GetHandle(EXTI_HandleTypeDef *hexti, uint32_t ExtiLine)
 467:STM32Cube_FW_N6/Drivers/STM32N6xx_HAL_Driver/Src/stm32n6xx_hal_exti.c **** {
 1154              		.loc 1 467 1
 1155              		.cfi_startproc
 1156              		@ args = 0, pretend = 0, frame = 8
 1157              		@ frame_needed = 1, uses_anonymous_args = 0
 1158 0000 80B5     		push	{r7, lr}
 1159              		.cfi_def_cfa_offset 8
 1160              		.cfi_offset 7, -8
 1161              		.cfi_offset 14, -4
 1162 0002 82B0     		sub	sp, sp, #8
 1163              		.cfi_def_cfa_offset 16
 1164 0004 00AF     		add	r7, sp, #0
 1165              		.cfi_def_cfa_register 7
 1166 0006 7860     		str	r0, [r7, #4]
 1167 0008 3960     		str	r1, [r7]
 468:STM32Cube_FW_N6/Drivers/STM32N6xx_HAL_Driver/Src/stm32n6xx_hal_exti.c ****   /* Check the parameters */
 469:STM32Cube_FW_N6/Drivers/STM32N6xx_HAL_Driver/Src/stm32n6xx_hal_exti.c ****   assert_param(IS_EXTI_LINE(ExtiLine));
 1168              		.loc 1 469 3
 1169 000a 3A68     		ldr	r2, [r7]
 1170 000c 194B     		ldr	r3, .L66
 1171 000e 1340     		ands	r3, r3, r2
 1172 0010 002B     		cmp	r3, #0
 1173 0012 1DD1     		bne	.L61
 1174              		.loc 1 469 3 is_stmt 0 discriminator 2
 1175 0014 3B68     		ldr	r3, [r7]
 1176 0016 03F0E063 		and	r3, r3, #117440512
 1177 001a B3F1807F 		cmp	r3, #16777216
 1178 001e 0BD0     		beq	.L62
 1179              		.loc 1 469 3 discriminator 3
 1180 0020 3B68     		ldr	r3, [r7]
 1181 0022 03F0E063 		and	r3, r3, #117440512
 1182 0026 B3F1007F 		cmp	r3, #33554432
 1183 002a 05D0     		beq	.L62
 1184              		.loc 1 469 3 discriminator 5
 1185 002c 3B68     		ldr	r3, [r7]
ARM GAS  /tmp/ccRD6zT9.s 			page 30


 1186 002e 03F0E063 		and	r3, r3, #117440512
 1187 0032 B3F1C06F 		cmp	r3, #100663296
 1188 0036 0BD1     		bne	.L61
 1189              	.L62:
 1190              		.loc 1 469 3 discriminator 8
 1191 0038 3A68     		ldr	r2, [r7]
 1192 003a 0F4B     		ldr	r3, .L66+4
 1193 003c 1340     		ands	r3, r3, r2
 1194 003e 0F4A     		ldr	r2, .L66+8
 1195 0040 9342     		cmp	r3, r2
 1196 0042 0AD9     		bls	.L63
 1197              		.loc 1 469 3 discriminator 9
 1198 0044 3A68     		ldr	r2, [r7]
 1199 0046 0C4B     		ldr	r3, .L66+4
 1200 0048 1340     		ands	r3, r3, r2
 1201 004a 0C4A     		ldr	r2, .L66+8
 1202 004c 9342     		cmp	r3, r2
 1203 004e 04D0     		beq	.L63
 1204              	.L61:
 1205              		.loc 1 469 3 discriminator 10
 1206 0050 40F2D511 		movw	r1, #469
 1207 0054 0A48     		ldr	r0, .L66+12
 1208 0056 FFF7FEFF 		bl	assert_failed
 1209              	.L63:
 470:STM32Cube_FW_N6/Drivers/STM32N6xx_HAL_Driver/Src/stm32n6xx_hal_exti.c **** 
 471:STM32Cube_FW_N6/Drivers/STM32N6xx_HAL_Driver/Src/stm32n6xx_hal_exti.c ****   /* Check null pointer */
 472:STM32Cube_FW_N6/Drivers/STM32N6xx_HAL_Driver/Src/stm32n6xx_hal_exti.c ****   if (hexti == NULL)
 1210              		.loc 1 472 6 is_stmt 1
 1211 005a 7B68     		ldr	r3, [r7, #4]
 1212 005c 002B     		cmp	r3, #0
 1213 005e 01D1     		bne	.L64
 473:STM32Cube_FW_N6/Drivers/STM32N6xx_HAL_Driver/Src/stm32n6xx_hal_exti.c ****   {
 474:STM32Cube_FW_N6/Drivers/STM32N6xx_HAL_Driver/Src/stm32n6xx_hal_exti.c ****     return HAL_ERROR;
 1214              		.loc 1 474 12
 1215 0060 0123     		movs	r3, #1
 1216 0062 03E0     		b	.L65
 1217              	.L64:
 475:STM32Cube_FW_N6/Drivers/STM32N6xx_HAL_Driver/Src/stm32n6xx_hal_exti.c ****   }
 476:STM32Cube_FW_N6/Drivers/STM32N6xx_HAL_Driver/Src/stm32n6xx_hal_exti.c ****   else
 477:STM32Cube_FW_N6/Drivers/STM32N6xx_HAL_Driver/Src/stm32n6xx_hal_exti.c ****   {
 478:STM32Cube_FW_N6/Drivers/STM32N6xx_HAL_Driver/Src/stm32n6xx_hal_exti.c ****     /* Store line number as handle private field */
 479:STM32Cube_FW_N6/Drivers/STM32N6xx_HAL_Driver/Src/stm32n6xx_hal_exti.c ****     hexti->Line = ExtiLine;
 1218              		.loc 1 479 17
 1219 0064 7B68     		ldr	r3, [r7, #4]
 1220 0066 3A68     		ldr	r2, [r7]
 1221 0068 1A60     		str	r2, [r3]
 480:STM32Cube_FW_N6/Drivers/STM32N6xx_HAL_Driver/Src/stm32n6xx_hal_exti.c **** 
 481:STM32Cube_FW_N6/Drivers/STM32N6xx_HAL_Driver/Src/stm32n6xx_hal_exti.c ****     return HAL_OK;
 1222              		.loc 1 481 12
 1223 006a 0023     		movs	r3, #0
 1224              	.L65:
 482:STM32Cube_FW_N6/Drivers/STM32N6xx_HAL_Driver/Src/stm32n6xx_hal_exti.c ****   }
 483:STM32Cube_FW_N6/Drivers/STM32N6xx_HAL_Driver/Src/stm32n6xx_hal_exti.c **** }
 1225              		.loc 1 483 1
 1226 006c 1846     		mov	r0, r3
 1227 006e 0837     		adds	r7, r7, #8
 1228              		.cfi_def_cfa_offset 8
ARM GAS  /tmp/ccRD6zT9.s 			page 31


 1229 0070 BD46     		mov	sp, r7
 1230              		.cfi_def_cfa_register 13
 1231              		@ sp needed
 1232 0072 80BD     		pop	{r7, pc}
 1233              	.L67:
 1234              		.align	2
 1235              	.L66:
 1236 0074 E0FFFCE8 		.word	-386072608
 1237 0078 1F000300 		.word	196639
 1238 007c 0D000200 		.word	131085
 1239 0080 00000000 		.word	.LC0
 1240              		.cfi_endproc
 1241              	.LFE839:
 1243              		.section	.text.HAL_EXTI_IRQHandler,"ax",%progbits
 1244              		.align	1
 1245              		.global	HAL_EXTI_IRQHandler
 1246              		.syntax unified
 1247              		.thumb
 1248              		.thumb_func
 1250              	HAL_EXTI_IRQHandler:
 1251              	.LFB840:
 484:STM32Cube_FW_N6/Drivers/STM32N6xx_HAL_Driver/Src/stm32n6xx_hal_exti.c **** 
 485:STM32Cube_FW_N6/Drivers/STM32N6xx_HAL_Driver/Src/stm32n6xx_hal_exti.c **** 
 486:STM32Cube_FW_N6/Drivers/STM32N6xx_HAL_Driver/Src/stm32n6xx_hal_exti.c **** /**
 487:STM32Cube_FW_N6/Drivers/STM32N6xx_HAL_Driver/Src/stm32n6xx_hal_exti.c ****   * @}
 488:STM32Cube_FW_N6/Drivers/STM32N6xx_HAL_Driver/Src/stm32n6xx_hal_exti.c ****   */
 489:STM32Cube_FW_N6/Drivers/STM32N6xx_HAL_Driver/Src/stm32n6xx_hal_exti.c **** 
 490:STM32Cube_FW_N6/Drivers/STM32N6xx_HAL_Driver/Src/stm32n6xx_hal_exti.c **** /** @addtogroup EXTI_Exported_Functions_Group2
 491:STM32Cube_FW_N6/Drivers/STM32N6xx_HAL_Driver/Src/stm32n6xx_hal_exti.c ****   *  @brief EXTI IO functions.
 492:STM32Cube_FW_N6/Drivers/STM32N6xx_HAL_Driver/Src/stm32n6xx_hal_exti.c ****   *
 493:STM32Cube_FW_N6/Drivers/STM32N6xx_HAL_Driver/Src/stm32n6xx_hal_exti.c **** @verbatim
 494:STM32Cube_FW_N6/Drivers/STM32N6xx_HAL_Driver/Src/stm32n6xx_hal_exti.c ****  ===============================================================================
 495:STM32Cube_FW_N6/Drivers/STM32N6xx_HAL_Driver/Src/stm32n6xx_hal_exti.c ****                        ##### IO operation functions #####
 496:STM32Cube_FW_N6/Drivers/STM32N6xx_HAL_Driver/Src/stm32n6xx_hal_exti.c ****  ===============================================================================
 497:STM32Cube_FW_N6/Drivers/STM32N6xx_HAL_Driver/Src/stm32n6xx_hal_exti.c **** 
 498:STM32Cube_FW_N6/Drivers/STM32N6xx_HAL_Driver/Src/stm32n6xx_hal_exti.c **** @endverbatim
 499:STM32Cube_FW_N6/Drivers/STM32N6xx_HAL_Driver/Src/stm32n6xx_hal_exti.c ****   * @{
 500:STM32Cube_FW_N6/Drivers/STM32N6xx_HAL_Driver/Src/stm32n6xx_hal_exti.c ****   */
 501:STM32Cube_FW_N6/Drivers/STM32N6xx_HAL_Driver/Src/stm32n6xx_hal_exti.c **** 
 502:STM32Cube_FW_N6/Drivers/STM32N6xx_HAL_Driver/Src/stm32n6xx_hal_exti.c **** /**
 503:STM32Cube_FW_N6/Drivers/STM32N6xx_HAL_Driver/Src/stm32n6xx_hal_exti.c ****   * @brief  Handle EXTI interrupt request.
 504:STM32Cube_FW_N6/Drivers/STM32N6xx_HAL_Driver/Src/stm32n6xx_hal_exti.c ****   * @param  hexti Exti handle.
 505:STM32Cube_FW_N6/Drivers/STM32N6xx_HAL_Driver/Src/stm32n6xx_hal_exti.c ****   * @retval none.
 506:STM32Cube_FW_N6/Drivers/STM32N6xx_HAL_Driver/Src/stm32n6xx_hal_exti.c ****   */
 507:STM32Cube_FW_N6/Drivers/STM32N6xx_HAL_Driver/Src/stm32n6xx_hal_exti.c **** void HAL_EXTI_IRQHandler(const EXTI_HandleTypeDef *hexti)
 508:STM32Cube_FW_N6/Drivers/STM32N6xx_HAL_Driver/Src/stm32n6xx_hal_exti.c **** {
 1252              		.loc 1 508 1
 1253              		.cfi_startproc
 1254              		@ args = 0, pretend = 0, frame = 24
 1255              		@ frame_needed = 1, uses_anonymous_args = 0
 1256 0000 80B5     		push	{r7, lr}
 1257              		.cfi_def_cfa_offset 8
 1258              		.cfi_offset 7, -8
 1259              		.cfi_offset 14, -4
 1260 0002 86B0     		sub	sp, sp, #24
 1261              		.cfi_def_cfa_offset 32
 1262 0004 00AF     		add	r7, sp, #0
ARM GAS  /tmp/ccRD6zT9.s 			page 32


 1263              		.cfi_def_cfa_register 7
 1264 0006 7860     		str	r0, [r7, #4]
 509:STM32Cube_FW_N6/Drivers/STM32N6xx_HAL_Driver/Src/stm32n6xx_hal_exti.c ****   __IO uint32_t *regaddr;
 510:STM32Cube_FW_N6/Drivers/STM32N6xx_HAL_Driver/Src/stm32n6xx_hal_exti.c ****   uint32_t regval;
 511:STM32Cube_FW_N6/Drivers/STM32N6xx_HAL_Driver/Src/stm32n6xx_hal_exti.c ****   uint32_t maskline;
 512:STM32Cube_FW_N6/Drivers/STM32N6xx_HAL_Driver/Src/stm32n6xx_hal_exti.c ****   uint32_t offset;
 513:STM32Cube_FW_N6/Drivers/STM32N6xx_HAL_Driver/Src/stm32n6xx_hal_exti.c **** 
 514:STM32Cube_FW_N6/Drivers/STM32N6xx_HAL_Driver/Src/stm32n6xx_hal_exti.c ****   /* Compute line register offset and line mask */
 515:STM32Cube_FW_N6/Drivers/STM32N6xx_HAL_Driver/Src/stm32n6xx_hal_exti.c ****   offset = ((hexti->Line & EXTI_REG_MASK) >> EXTI_REG_SHIFT);
 1265              		.loc 1 515 19
 1266 0008 7B68     		ldr	r3, [r7, #4]
 1267 000a 1B68     		ldr	r3, [r3]
 1268              		.loc 1 515 43
 1269 000c 1B0C     		lsrs	r3, r3, #16
 1270              		.loc 1 515 10
 1271 000e 03F00303 		and	r3, r3, #3
 1272 0012 7B61     		str	r3, [r7, #20]
 516:STM32Cube_FW_N6/Drivers/STM32N6xx_HAL_Driver/Src/stm32n6xx_hal_exti.c ****   maskline = (1UL << (hexti->Line & EXTI_PIN_MASK));
 1273              		.loc 1 516 28
 1274 0014 7B68     		ldr	r3, [r7, #4]
 1275 0016 1B68     		ldr	r3, [r3]
 1276              		.loc 1 516 35
 1277 0018 03F01F03 		and	r3, r3, #31
 1278              		.loc 1 516 12
 1279 001c 0122     		movs	r2, #1
 1280 001e 02FA03F3 		lsl	r3, r2, r3
 1281 0022 3B61     		str	r3, [r7, #16]
 517:STM32Cube_FW_N6/Drivers/STM32N6xx_HAL_Driver/Src/stm32n6xx_hal_exti.c **** 
 518:STM32Cube_FW_N6/Drivers/STM32N6xx_HAL_Driver/Src/stm32n6xx_hal_exti.c ****   /* Get rising edge pending bit  */
 519:STM32Cube_FW_N6/Drivers/STM32N6xx_HAL_Driver/Src/stm32n6xx_hal_exti.c ****   regaddr = (__IO uint32_t *)(&EXTI->RPR1 + (EXTI_CONFIG_OFFSET * offset));
 1282              		.loc 1 519 13
 1283 0024 7B69     		ldr	r3, [r7, #20]
 1284 0026 5A01     		lsls	r2, r3, #5
 1285              		.loc 1 519 11
 1286 0028 174B     		ldr	r3, .L72
 1287 002a 1344     		add	r3, r3, r2
 1288 002c FB60     		str	r3, [r7, #12]
 520:STM32Cube_FW_N6/Drivers/STM32N6xx_HAL_Driver/Src/stm32n6xx_hal_exti.c ****   regval = (*regaddr & maskline);
 1289              		.loc 1 520 13
 1290 002e FB68     		ldr	r3, [r7, #12]
 1291 0030 1B68     		ldr	r3, [r3]
 1292              		.loc 1 520 10
 1293 0032 3A69     		ldr	r2, [r7, #16]
 1294 0034 1340     		ands	r3, r3, r2
 1295 0036 BB60     		str	r3, [r7, #8]
 521:STM32Cube_FW_N6/Drivers/STM32N6xx_HAL_Driver/Src/stm32n6xx_hal_exti.c **** 
 522:STM32Cube_FW_N6/Drivers/STM32N6xx_HAL_Driver/Src/stm32n6xx_hal_exti.c ****   if (regval != 0U)
 1296              		.loc 1 522 6
 1297 0038 BB68     		ldr	r3, [r7, #8]
 1298 003a 002B     		cmp	r3, #0
 1299 003c 09D0     		beq	.L69
 523:STM32Cube_FW_N6/Drivers/STM32N6xx_HAL_Driver/Src/stm32n6xx_hal_exti.c ****   {
 524:STM32Cube_FW_N6/Drivers/STM32N6xx_HAL_Driver/Src/stm32n6xx_hal_exti.c ****     /* Clear pending bit */
 525:STM32Cube_FW_N6/Drivers/STM32N6xx_HAL_Driver/Src/stm32n6xx_hal_exti.c ****     *regaddr = maskline;
 1300              		.loc 1 525 14
 1301 003e FB68     		ldr	r3, [r7, #12]
 1302 0040 3A69     		ldr	r2, [r7, #16]
ARM GAS  /tmp/ccRD6zT9.s 			page 33


 1303 0042 1A60     		str	r2, [r3]
 526:STM32Cube_FW_N6/Drivers/STM32N6xx_HAL_Driver/Src/stm32n6xx_hal_exti.c **** 
 527:STM32Cube_FW_N6/Drivers/STM32N6xx_HAL_Driver/Src/stm32n6xx_hal_exti.c ****     /* Call rising callback */
 528:STM32Cube_FW_N6/Drivers/STM32N6xx_HAL_Driver/Src/stm32n6xx_hal_exti.c ****     if (hexti->RisingCallback != NULL)
 1304              		.loc 1 528 14
 1305 0044 7B68     		ldr	r3, [r7, #4]
 1306 0046 5B68     		ldr	r3, [r3, #4]
 1307              		.loc 1 528 8
 1308 0048 002B     		cmp	r3, #0
 1309 004a 02D0     		beq	.L69
 529:STM32Cube_FW_N6/Drivers/STM32N6xx_HAL_Driver/Src/stm32n6xx_hal_exti.c ****     {
 530:STM32Cube_FW_N6/Drivers/STM32N6xx_HAL_Driver/Src/stm32n6xx_hal_exti.c ****       hexti->RisingCallback();
 1310              		.loc 1 530 12
 1311 004c 7B68     		ldr	r3, [r7, #4]
 1312 004e 5B68     		ldr	r3, [r3, #4]
 1313              		.loc 1 530 7
 1314 0050 9847     		blx	r3
 1315              	.LVL0:
 1316              	.L69:
 531:STM32Cube_FW_N6/Drivers/STM32N6xx_HAL_Driver/Src/stm32n6xx_hal_exti.c ****     }
 532:STM32Cube_FW_N6/Drivers/STM32N6xx_HAL_Driver/Src/stm32n6xx_hal_exti.c ****   }
 533:STM32Cube_FW_N6/Drivers/STM32N6xx_HAL_Driver/Src/stm32n6xx_hal_exti.c **** 
 534:STM32Cube_FW_N6/Drivers/STM32N6xx_HAL_Driver/Src/stm32n6xx_hal_exti.c ****   /* Get falling edge pending bit  */
 535:STM32Cube_FW_N6/Drivers/STM32N6xx_HAL_Driver/Src/stm32n6xx_hal_exti.c ****   regaddr = (__IO uint32_t *)(&EXTI->FPR1 + (EXTI_CONFIG_OFFSET * offset));
 1317              		.loc 1 535 13
 1318 0052 7B69     		ldr	r3, [r7, #20]
 1319 0054 5A01     		lsls	r2, r3, #5
 1320              		.loc 1 535 11
 1321 0056 0D4B     		ldr	r3, .L72+4
 1322 0058 1344     		add	r3, r3, r2
 1323 005a FB60     		str	r3, [r7, #12]
 536:STM32Cube_FW_N6/Drivers/STM32N6xx_HAL_Driver/Src/stm32n6xx_hal_exti.c ****   regval = (*regaddr & maskline);
 1324              		.loc 1 536 13
 1325 005c FB68     		ldr	r3, [r7, #12]
 1326 005e 1B68     		ldr	r3, [r3]
 1327              		.loc 1 536 10
 1328 0060 3A69     		ldr	r2, [r7, #16]
 1329 0062 1340     		ands	r3, r3, r2
 1330 0064 BB60     		str	r3, [r7, #8]
 537:STM32Cube_FW_N6/Drivers/STM32N6xx_HAL_Driver/Src/stm32n6xx_hal_exti.c **** 
 538:STM32Cube_FW_N6/Drivers/STM32N6xx_HAL_Driver/Src/stm32n6xx_hal_exti.c ****   if (regval != 0U)
 1331              		.loc 1 538 6
 1332 0066 BB68     		ldr	r3, [r7, #8]
 1333 0068 002B     		cmp	r3, #0
 1334 006a 09D0     		beq	.L71
 539:STM32Cube_FW_N6/Drivers/STM32N6xx_HAL_Driver/Src/stm32n6xx_hal_exti.c ****   {
 540:STM32Cube_FW_N6/Drivers/STM32N6xx_HAL_Driver/Src/stm32n6xx_hal_exti.c ****     /* Clear pending bit */
 541:STM32Cube_FW_N6/Drivers/STM32N6xx_HAL_Driver/Src/stm32n6xx_hal_exti.c ****     *regaddr = maskline;
 1335              		.loc 1 541 14
 1336 006c FB68     		ldr	r3, [r7, #12]
 1337 006e 3A69     		ldr	r2, [r7, #16]
 1338 0070 1A60     		str	r2, [r3]
 542:STM32Cube_FW_N6/Drivers/STM32N6xx_HAL_Driver/Src/stm32n6xx_hal_exti.c **** 
 543:STM32Cube_FW_N6/Drivers/STM32N6xx_HAL_Driver/Src/stm32n6xx_hal_exti.c ****     /* Call falling callback */
 544:STM32Cube_FW_N6/Drivers/STM32N6xx_HAL_Driver/Src/stm32n6xx_hal_exti.c ****     if (hexti->FallingCallback != NULL)
 1339              		.loc 1 544 14
 1340 0072 7B68     		ldr	r3, [r7, #4]
ARM GAS  /tmp/ccRD6zT9.s 			page 34


 1341 0074 9B68     		ldr	r3, [r3, #8]
 1342              		.loc 1 544 8
 1343 0076 002B     		cmp	r3, #0
 1344 0078 02D0     		beq	.L71
 545:STM32Cube_FW_N6/Drivers/STM32N6xx_HAL_Driver/Src/stm32n6xx_hal_exti.c ****     {
 546:STM32Cube_FW_N6/Drivers/STM32N6xx_HAL_Driver/Src/stm32n6xx_hal_exti.c ****       hexti->FallingCallback();
 1345              		.loc 1 546 12
 1346 007a 7B68     		ldr	r3, [r7, #4]
 1347 007c 9B68     		ldr	r3, [r3, #8]
 1348              		.loc 1 546 7
 1349 007e 9847     		blx	r3
 1350              	.LVL1:
 1351              	.L71:
 547:STM32Cube_FW_N6/Drivers/STM32N6xx_HAL_Driver/Src/stm32n6xx_hal_exti.c ****     }
 548:STM32Cube_FW_N6/Drivers/STM32N6xx_HAL_Driver/Src/stm32n6xx_hal_exti.c ****   }
 549:STM32Cube_FW_N6/Drivers/STM32N6xx_HAL_Driver/Src/stm32n6xx_hal_exti.c **** }
 1352              		.loc 1 549 1
 1353 0080 00BF     		nop
 1354 0082 1837     		adds	r7, r7, #24
 1355              		.cfi_def_cfa_offset 8
 1356 0084 BD46     		mov	sp, r7
 1357              		.cfi_def_cfa_register 13
 1358              		@ sp needed
 1359 0086 80BD     		pop	{r7, pc}
 1360              	.L73:
 1361              		.align	2
 1362              	.L72:
 1363 0088 0C500256 		.word	1442992140
 1364 008c 10500256 		.word	1442992144
 1365              		.cfi_endproc
 1366              	.LFE840:
 1368              		.section	.text.HAL_EXTI_GetPending,"ax",%progbits
 1369              		.align	1
 1370              		.global	HAL_EXTI_GetPending
 1371              		.syntax unified
 1372              		.thumb
 1373              		.thumb_func
 1375              	HAL_EXTI_GetPending:
 1376              	.LFB841:
 550:STM32Cube_FW_N6/Drivers/STM32N6xx_HAL_Driver/Src/stm32n6xx_hal_exti.c **** 
 551:STM32Cube_FW_N6/Drivers/STM32N6xx_HAL_Driver/Src/stm32n6xx_hal_exti.c **** 
 552:STM32Cube_FW_N6/Drivers/STM32N6xx_HAL_Driver/Src/stm32n6xx_hal_exti.c **** /**
 553:STM32Cube_FW_N6/Drivers/STM32N6xx_HAL_Driver/Src/stm32n6xx_hal_exti.c ****   * @brief  Get interrupt pending bit of a dedicated line.
 554:STM32Cube_FW_N6/Drivers/STM32N6xx_HAL_Driver/Src/stm32n6xx_hal_exti.c ****   * @param  hexti Exti handle.
 555:STM32Cube_FW_N6/Drivers/STM32N6xx_HAL_Driver/Src/stm32n6xx_hal_exti.c ****   * @param  Edge Specify which pending edge as to be checked.
 556:STM32Cube_FW_N6/Drivers/STM32N6xx_HAL_Driver/Src/stm32n6xx_hal_exti.c ****   *         This parameter can be one of the following values:
 557:STM32Cube_FW_N6/Drivers/STM32N6xx_HAL_Driver/Src/stm32n6xx_hal_exti.c ****   *           @arg @ref EXTI_TRIGGER_RISING
 558:STM32Cube_FW_N6/Drivers/STM32N6xx_HAL_Driver/Src/stm32n6xx_hal_exti.c ****   *           @arg @ref EXTI_TRIGGER_FALLING
 559:STM32Cube_FW_N6/Drivers/STM32N6xx_HAL_Driver/Src/stm32n6xx_hal_exti.c ****   * @retval 1 if interrupt is pending else 0.
 560:STM32Cube_FW_N6/Drivers/STM32N6xx_HAL_Driver/Src/stm32n6xx_hal_exti.c ****   */
 561:STM32Cube_FW_N6/Drivers/STM32N6xx_HAL_Driver/Src/stm32n6xx_hal_exti.c **** uint32_t HAL_EXTI_GetPending(const EXTI_HandleTypeDef *hexti, uint32_t Edge)
 562:STM32Cube_FW_N6/Drivers/STM32N6xx_HAL_Driver/Src/stm32n6xx_hal_exti.c **** {
 1377              		.loc 1 562 1
 1378              		.cfi_startproc
 1379              		@ args = 0, pretend = 0, frame = 32
 1380              		@ frame_needed = 1, uses_anonymous_args = 0
 1381 0000 80B5     		push	{r7, lr}
ARM GAS  /tmp/ccRD6zT9.s 			page 35


 1382              		.cfi_def_cfa_offset 8
 1383              		.cfi_offset 7, -8
 1384              		.cfi_offset 14, -4
 1385 0002 88B0     		sub	sp, sp, #32
 1386              		.cfi_def_cfa_offset 40
 1387 0004 00AF     		add	r7, sp, #0
 1388              		.cfi_def_cfa_register 7
 1389 0006 7860     		str	r0, [r7, #4]
 1390 0008 3960     		str	r1, [r7]
 563:STM32Cube_FW_N6/Drivers/STM32N6xx_HAL_Driver/Src/stm32n6xx_hal_exti.c ****   const __IO uint32_t *regaddr;
 564:STM32Cube_FW_N6/Drivers/STM32N6xx_HAL_Driver/Src/stm32n6xx_hal_exti.c ****   uint32_t regval;
 565:STM32Cube_FW_N6/Drivers/STM32N6xx_HAL_Driver/Src/stm32n6xx_hal_exti.c ****   uint32_t linepos;
 566:STM32Cube_FW_N6/Drivers/STM32N6xx_HAL_Driver/Src/stm32n6xx_hal_exti.c ****   uint32_t maskline;
 567:STM32Cube_FW_N6/Drivers/STM32N6xx_HAL_Driver/Src/stm32n6xx_hal_exti.c ****   uint32_t offset;
 568:STM32Cube_FW_N6/Drivers/STM32N6xx_HAL_Driver/Src/stm32n6xx_hal_exti.c **** 
 569:STM32Cube_FW_N6/Drivers/STM32N6xx_HAL_Driver/Src/stm32n6xx_hal_exti.c ****   /* Check the parameters */
 570:STM32Cube_FW_N6/Drivers/STM32N6xx_HAL_Driver/Src/stm32n6xx_hal_exti.c ****   assert_param(IS_EXTI_LINE(hexti->Line));
 1391              		.loc 1 570 3
 1392 000a 7B68     		ldr	r3, [r7, #4]
 1393 000c 1A68     		ldr	r2, [r3]
 1394 000e 364B     		ldr	r3, .L83
 1395 0010 1340     		ands	r3, r3, r2
 1396 0012 002B     		cmp	r3, #0
 1397 0014 22D1     		bne	.L75
 1398              		.loc 1 570 3 is_stmt 0 discriminator 2
 1399 0016 7B68     		ldr	r3, [r7, #4]
 1400 0018 1B68     		ldr	r3, [r3]
 1401 001a 03F0E063 		and	r3, r3, #117440512
 1402 001e B3F1807F 		cmp	r3, #16777216
 1403 0022 0DD0     		beq	.L76
 1404              		.loc 1 570 3 discriminator 3
 1405 0024 7B68     		ldr	r3, [r7, #4]
 1406 0026 1B68     		ldr	r3, [r3]
 1407 0028 03F0E063 		and	r3, r3, #117440512
 1408 002c B3F1007F 		cmp	r3, #33554432
 1409 0030 06D0     		beq	.L76
 1410              		.loc 1 570 3 discriminator 5
 1411 0032 7B68     		ldr	r3, [r7, #4]
 1412 0034 1B68     		ldr	r3, [r3]
 1413 0036 03F0E063 		and	r3, r3, #117440512
 1414 003a B3F1C06F 		cmp	r3, #100663296
 1415 003e 0DD1     		bne	.L75
 1416              	.L76:
 1417              		.loc 1 570 3 discriminator 8
 1418 0040 7B68     		ldr	r3, [r7, #4]
 1419 0042 1A68     		ldr	r2, [r3]
 1420 0044 294B     		ldr	r3, .L83+4
 1421 0046 1340     		ands	r3, r3, r2
 1422 0048 294A     		ldr	r2, .L83+8
 1423 004a 9342     		cmp	r3, r2
 1424 004c 0BD9     		bls	.L77
 1425              		.loc 1 570 3 discriminator 9
 1426 004e 7B68     		ldr	r3, [r7, #4]
 1427 0050 1A68     		ldr	r2, [r3]
 1428 0052 264B     		ldr	r3, .L83+4
 1429 0054 1340     		ands	r3, r3, r2
 1430 0056 264A     		ldr	r2, .L83+8
ARM GAS  /tmp/ccRD6zT9.s 			page 36


 1431 0058 9342     		cmp	r3, r2
 1432 005a 04D0     		beq	.L77
 1433              	.L75:
 1434              		.loc 1 570 3 discriminator 10
 1435 005c 40F23A21 		movw	r1, #570
 1436 0060 2448     		ldr	r0, .L83+12
 1437 0062 FFF7FEFF 		bl	assert_failed
 1438              	.L77:
 571:STM32Cube_FW_N6/Drivers/STM32N6xx_HAL_Driver/Src/stm32n6xx_hal_exti.c ****   assert_param(IS_EXTI_CONFIG_LINE(hexti->Line));
 1439              		.loc 1 571 3 is_stmt 1
 1440 0066 7B68     		ldr	r3, [r7, #4]
 1441 0068 1B68     		ldr	r3, [r3]
 1442 006a 03F00073 		and	r3, r3, #33554432
 1443 006e 002B     		cmp	r3, #0
 1444 0070 04D1     		bne	.L78
 1445              		.loc 1 571 3 is_stmt 0 discriminator 1
 1446 0072 40F23B21 		movw	r1, #571
 1447 0076 1F48     		ldr	r0, .L83+12
 1448 0078 FFF7FEFF 		bl	assert_failed
 1449              	.L78:
 572:STM32Cube_FW_N6/Drivers/STM32N6xx_HAL_Driver/Src/stm32n6xx_hal_exti.c ****   assert_param(IS_EXTI_PENDING_EDGE(Edge));
 1450              		.loc 1 572 3 is_stmt 1
 1451 007c 3B68     		ldr	r3, [r7]
 1452 007e 012B     		cmp	r3, #1
 1453 0080 07D0     		beq	.L79
 1454              		.loc 1 572 3 is_stmt 0 discriminator 1
 1455 0082 3B68     		ldr	r3, [r7]
 1456 0084 022B     		cmp	r3, #2
 1457 0086 04D0     		beq	.L79
 1458              		.loc 1 572 3 discriminator 2
 1459 0088 4FF40F71 		mov	r1, #572
 1460 008c 1948     		ldr	r0, .L83+12
 1461 008e FFF7FEFF 		bl	assert_failed
 1462              	.L79:
 573:STM32Cube_FW_N6/Drivers/STM32N6xx_HAL_Driver/Src/stm32n6xx_hal_exti.c **** 
 574:STM32Cube_FW_N6/Drivers/STM32N6xx_HAL_Driver/Src/stm32n6xx_hal_exti.c ****   /* compute line register offset and line mask */
 575:STM32Cube_FW_N6/Drivers/STM32N6xx_HAL_Driver/Src/stm32n6xx_hal_exti.c ****   offset = ((hexti->Line & EXTI_REG_MASK) >> EXTI_REG_SHIFT);
 1463              		.loc 1 575 19 is_stmt 1
 1464 0092 7B68     		ldr	r3, [r7, #4]
 1465 0094 1B68     		ldr	r3, [r3]
 1466              		.loc 1 575 43
 1467 0096 1B0C     		lsrs	r3, r3, #16
 1468              		.loc 1 575 10
 1469 0098 03F00303 		and	r3, r3, #3
 1470 009c BB61     		str	r3, [r7, #24]
 576:STM32Cube_FW_N6/Drivers/STM32N6xx_HAL_Driver/Src/stm32n6xx_hal_exti.c ****   linepos = (hexti->Line & EXTI_PIN_MASK);
 1471              		.loc 1 576 19
 1472 009e 7B68     		ldr	r3, [r7, #4]
 1473 00a0 1B68     		ldr	r3, [r3]
 1474              		.loc 1 576 11
 1475 00a2 03F01F03 		and	r3, r3, #31
 1476 00a6 7B61     		str	r3, [r7, #20]
 577:STM32Cube_FW_N6/Drivers/STM32N6xx_HAL_Driver/Src/stm32n6xx_hal_exti.c ****   maskline = (1UL << linepos);
 1477              		.loc 1 577 12
 1478 00a8 0122     		movs	r2, #1
 1479 00aa 7B69     		ldr	r3, [r7, #20]
 1480 00ac 02FA03F3 		lsl	r3, r2, r3
ARM GAS  /tmp/ccRD6zT9.s 			page 37


 1481 00b0 3B61     		str	r3, [r7, #16]
 578:STM32Cube_FW_N6/Drivers/STM32N6xx_HAL_Driver/Src/stm32n6xx_hal_exti.c **** 
 579:STM32Cube_FW_N6/Drivers/STM32N6xx_HAL_Driver/Src/stm32n6xx_hal_exti.c ****   if (Edge != EXTI_TRIGGER_RISING)
 1482              		.loc 1 579 6
 1483 00b2 3B68     		ldr	r3, [r7]
 1484 00b4 012B     		cmp	r3, #1
 1485 00b6 05D0     		beq	.L80
 580:STM32Cube_FW_N6/Drivers/STM32N6xx_HAL_Driver/Src/stm32n6xx_hal_exti.c ****   {
 581:STM32Cube_FW_N6/Drivers/STM32N6xx_HAL_Driver/Src/stm32n6xx_hal_exti.c ****     /* Get falling edge pending bit */
 582:STM32Cube_FW_N6/Drivers/STM32N6xx_HAL_Driver/Src/stm32n6xx_hal_exti.c ****     regaddr = (__IO uint32_t *)(&EXTI->FPR1 + (EXTI_CONFIG_OFFSET * offset));
 1486              		.loc 1 582 15
 1487 00b8 BB69     		ldr	r3, [r7, #24]
 1488 00ba 5A01     		lsls	r2, r3, #5
 1489              		.loc 1 582 13
 1490 00bc 0E4B     		ldr	r3, .L83+16
 1491 00be 1344     		add	r3, r3, r2
 1492 00c0 FB61     		str	r3, [r7, #28]
 1493 00c2 04E0     		b	.L81
 1494              	.L80:
 583:STM32Cube_FW_N6/Drivers/STM32N6xx_HAL_Driver/Src/stm32n6xx_hal_exti.c ****   }
 584:STM32Cube_FW_N6/Drivers/STM32N6xx_HAL_Driver/Src/stm32n6xx_hal_exti.c ****   else
 585:STM32Cube_FW_N6/Drivers/STM32N6xx_HAL_Driver/Src/stm32n6xx_hal_exti.c ****   {
 586:STM32Cube_FW_N6/Drivers/STM32N6xx_HAL_Driver/Src/stm32n6xx_hal_exti.c ****     /* Get rising edge pending bit */
 587:STM32Cube_FW_N6/Drivers/STM32N6xx_HAL_Driver/Src/stm32n6xx_hal_exti.c ****     regaddr = (__IO uint32_t *)(&EXTI->RPR1 + (EXTI_CONFIG_OFFSET * offset));
 1495              		.loc 1 587 15
 1496 00c4 BB69     		ldr	r3, [r7, #24]
 1497 00c6 5A01     		lsls	r2, r3, #5
 1498              		.loc 1 587 13
 1499 00c8 0C4B     		ldr	r3, .L83+20
 1500 00ca 1344     		add	r3, r3, r2
 1501 00cc FB61     		str	r3, [r7, #28]
 1502              	.L81:
 588:STM32Cube_FW_N6/Drivers/STM32N6xx_HAL_Driver/Src/stm32n6xx_hal_exti.c ****   }
 589:STM32Cube_FW_N6/Drivers/STM32N6xx_HAL_Driver/Src/stm32n6xx_hal_exti.c **** 
 590:STM32Cube_FW_N6/Drivers/STM32N6xx_HAL_Driver/Src/stm32n6xx_hal_exti.c ****   /* return 1 if bit is set else 0 */
 591:STM32Cube_FW_N6/Drivers/STM32N6xx_HAL_Driver/Src/stm32n6xx_hal_exti.c ****   regval = ((*regaddr & maskline) >> linepos);
 1503              		.loc 1 591 14
 1504 00ce FB69     		ldr	r3, [r7, #28]
 1505 00d0 1A68     		ldr	r2, [r3]
 1506              		.loc 1 591 23
 1507 00d2 3B69     		ldr	r3, [r7, #16]
 1508 00d4 1A40     		ands	r2, r2, r3
 1509              		.loc 1 591 10
 1510 00d6 7B69     		ldr	r3, [r7, #20]
 1511 00d8 22FA03F3 		lsr	r3, r2, r3
 1512 00dc FB60     		str	r3, [r7, #12]
 592:STM32Cube_FW_N6/Drivers/STM32N6xx_HAL_Driver/Src/stm32n6xx_hal_exti.c ****   return regval;
 1513              		.loc 1 592 10
 1514 00de FB68     		ldr	r3, [r7, #12]
 593:STM32Cube_FW_N6/Drivers/STM32N6xx_HAL_Driver/Src/stm32n6xx_hal_exti.c **** }
 1515              		.loc 1 593 1
 1516 00e0 1846     		mov	r0, r3
 1517 00e2 2037     		adds	r7, r7, #32
 1518              		.cfi_def_cfa_offset 8
 1519 00e4 BD46     		mov	sp, r7
 1520              		.cfi_def_cfa_register 13
 1521              		@ sp needed
ARM GAS  /tmp/ccRD6zT9.s 			page 38


 1522 00e6 80BD     		pop	{r7, pc}
 1523              	.L84:
 1524              		.align	2
 1525              	.L83:
 1526 00e8 E0FFFCE8 		.word	-386072608
 1527 00ec 1F000300 		.word	196639
 1528 00f0 0D000200 		.word	131085
 1529 00f4 00000000 		.word	.LC0
 1530 00f8 10500256 		.word	1442992144
 1531 00fc 0C500256 		.word	1442992140
 1532              		.cfi_endproc
 1533              	.LFE841:
 1535              		.section	.text.HAL_EXTI_ClearPending,"ax",%progbits
 1536              		.align	1
 1537              		.global	HAL_EXTI_ClearPending
 1538              		.syntax unified
 1539              		.thumb
 1540              		.thumb_func
 1542              	HAL_EXTI_ClearPending:
 1543              	.LFB842:
 594:STM32Cube_FW_N6/Drivers/STM32N6xx_HAL_Driver/Src/stm32n6xx_hal_exti.c **** 
 595:STM32Cube_FW_N6/Drivers/STM32N6xx_HAL_Driver/Src/stm32n6xx_hal_exti.c **** 
 596:STM32Cube_FW_N6/Drivers/STM32N6xx_HAL_Driver/Src/stm32n6xx_hal_exti.c **** /**
 597:STM32Cube_FW_N6/Drivers/STM32N6xx_HAL_Driver/Src/stm32n6xx_hal_exti.c ****   * @brief  Clear interrupt pending bit of a dedicated line.
 598:STM32Cube_FW_N6/Drivers/STM32N6xx_HAL_Driver/Src/stm32n6xx_hal_exti.c ****   * @param  hexti Exti handle.
 599:STM32Cube_FW_N6/Drivers/STM32N6xx_HAL_Driver/Src/stm32n6xx_hal_exti.c ****   * @param  Edge Specify which pending edge as to be clear.
 600:STM32Cube_FW_N6/Drivers/STM32N6xx_HAL_Driver/Src/stm32n6xx_hal_exti.c ****   *         This parameter can be one of the following values:
 601:STM32Cube_FW_N6/Drivers/STM32N6xx_HAL_Driver/Src/stm32n6xx_hal_exti.c ****   *           @arg @ref EXTI_TRIGGER_RISING
 602:STM32Cube_FW_N6/Drivers/STM32N6xx_HAL_Driver/Src/stm32n6xx_hal_exti.c ****   *           @arg @ref EXTI_TRIGGER_FALLING
 603:STM32Cube_FW_N6/Drivers/STM32N6xx_HAL_Driver/Src/stm32n6xx_hal_exti.c ****   * @retval None.
 604:STM32Cube_FW_N6/Drivers/STM32N6xx_HAL_Driver/Src/stm32n6xx_hal_exti.c ****   */
 605:STM32Cube_FW_N6/Drivers/STM32N6xx_HAL_Driver/Src/stm32n6xx_hal_exti.c **** void HAL_EXTI_ClearPending(const EXTI_HandleTypeDef *hexti, uint32_t Edge)
 606:STM32Cube_FW_N6/Drivers/STM32N6xx_HAL_Driver/Src/stm32n6xx_hal_exti.c **** {
 1544              		.loc 1 606 1
 1545              		.cfi_startproc
 1546              		@ args = 0, pretend = 0, frame = 24
 1547              		@ frame_needed = 1, uses_anonymous_args = 0
 1548 0000 80B5     		push	{r7, lr}
 1549              		.cfi_def_cfa_offset 8
 1550              		.cfi_offset 7, -8
 1551              		.cfi_offset 14, -4
 1552 0002 86B0     		sub	sp, sp, #24
 1553              		.cfi_def_cfa_offset 32
 1554 0004 00AF     		add	r7, sp, #0
 1555              		.cfi_def_cfa_register 7
 1556 0006 7860     		str	r0, [r7, #4]
 1557 0008 3960     		str	r1, [r7]
 607:STM32Cube_FW_N6/Drivers/STM32N6xx_HAL_Driver/Src/stm32n6xx_hal_exti.c ****   __IO uint32_t *regaddr;
 608:STM32Cube_FW_N6/Drivers/STM32N6xx_HAL_Driver/Src/stm32n6xx_hal_exti.c ****   uint32_t maskline;
 609:STM32Cube_FW_N6/Drivers/STM32N6xx_HAL_Driver/Src/stm32n6xx_hal_exti.c ****   uint32_t offset;
 610:STM32Cube_FW_N6/Drivers/STM32N6xx_HAL_Driver/Src/stm32n6xx_hal_exti.c **** 
 611:STM32Cube_FW_N6/Drivers/STM32N6xx_HAL_Driver/Src/stm32n6xx_hal_exti.c ****   /* Check the parameters */
 612:STM32Cube_FW_N6/Drivers/STM32N6xx_HAL_Driver/Src/stm32n6xx_hal_exti.c ****   assert_param(IS_EXTI_LINE(hexti->Line));
 1558              		.loc 1 612 3
 1559 000a 7B68     		ldr	r3, [r7, #4]
 1560 000c 1A68     		ldr	r2, [r3]
 1561 000e 324B     		ldr	r3, .L93
ARM GAS  /tmp/ccRD6zT9.s 			page 39


 1562 0010 1340     		ands	r3, r3, r2
 1563 0012 002B     		cmp	r3, #0
 1564 0014 22D1     		bne	.L86
 1565              		.loc 1 612 3 is_stmt 0 discriminator 2
 1566 0016 7B68     		ldr	r3, [r7, #4]
 1567 0018 1B68     		ldr	r3, [r3]
 1568 001a 03F0E063 		and	r3, r3, #117440512
 1569 001e B3F1807F 		cmp	r3, #16777216
 1570 0022 0DD0     		beq	.L87
 1571              		.loc 1 612 3 discriminator 3
 1572 0024 7B68     		ldr	r3, [r7, #4]
 1573 0026 1B68     		ldr	r3, [r3]
 1574 0028 03F0E063 		and	r3, r3, #117440512
 1575 002c B3F1007F 		cmp	r3, #33554432
 1576 0030 06D0     		beq	.L87
 1577              		.loc 1 612 3 discriminator 5
 1578 0032 7B68     		ldr	r3, [r7, #4]
 1579 0034 1B68     		ldr	r3, [r3]
 1580 0036 03F0E063 		and	r3, r3, #117440512
 1581 003a B3F1C06F 		cmp	r3, #100663296
 1582 003e 0DD1     		bne	.L86
 1583              	.L87:
 1584              		.loc 1 612 3 discriminator 8
 1585 0040 7B68     		ldr	r3, [r7, #4]
 1586 0042 1A68     		ldr	r2, [r3]
 1587 0044 254B     		ldr	r3, .L93+4
 1588 0046 1340     		ands	r3, r3, r2
 1589 0048 254A     		ldr	r2, .L93+8
 1590 004a 9342     		cmp	r3, r2
 1591 004c 0BD9     		bls	.L88
 1592              		.loc 1 612 3 discriminator 9
 1593 004e 7B68     		ldr	r3, [r7, #4]
 1594 0050 1A68     		ldr	r2, [r3]
 1595 0052 224B     		ldr	r3, .L93+4
 1596 0054 1340     		ands	r3, r3, r2
 1597 0056 224A     		ldr	r2, .L93+8
 1598 0058 9342     		cmp	r3, r2
 1599 005a 04D0     		beq	.L88
 1600              	.L86:
 1601              		.loc 1 612 3 discriminator 10
 1602 005c 4FF41971 		mov	r1, #612
 1603 0060 2048     		ldr	r0, .L93+12
 1604 0062 FFF7FEFF 		bl	assert_failed
 1605              	.L88:
 613:STM32Cube_FW_N6/Drivers/STM32N6xx_HAL_Driver/Src/stm32n6xx_hal_exti.c ****   assert_param(IS_EXTI_CONFIG_LINE(hexti->Line));
 1606              		.loc 1 613 3 is_stmt 1
 1607 0066 7B68     		ldr	r3, [r7, #4]
 1608 0068 1B68     		ldr	r3, [r3]
 1609 006a 03F00073 		and	r3, r3, #33554432
 1610 006e 002B     		cmp	r3, #0
 1611 0070 04D1     		bne	.L89
 1612              		.loc 1 613 3 is_stmt 0 discriminator 1
 1613 0072 40F26521 		movw	r1, #613
 1614 0076 1B48     		ldr	r0, .L93+12
 1615 0078 FFF7FEFF 		bl	assert_failed
 1616              	.L89:
 614:STM32Cube_FW_N6/Drivers/STM32N6xx_HAL_Driver/Src/stm32n6xx_hal_exti.c ****   assert_param(IS_EXTI_PENDING_EDGE(Edge));
ARM GAS  /tmp/ccRD6zT9.s 			page 40


 1617              		.loc 1 614 3 is_stmt 1
 1618 007c 3B68     		ldr	r3, [r7]
 1619 007e 012B     		cmp	r3, #1
 1620 0080 07D0     		beq	.L90
 1621              		.loc 1 614 3 is_stmt 0 discriminator 1
 1622 0082 3B68     		ldr	r3, [r7]
 1623 0084 022B     		cmp	r3, #2
 1624 0086 04D0     		beq	.L90
 1625              		.loc 1 614 3 discriminator 2
 1626 0088 40F26621 		movw	r1, #614
 1627 008c 1548     		ldr	r0, .L93+12
 1628 008e FFF7FEFF 		bl	assert_failed
 1629              	.L90:
 615:STM32Cube_FW_N6/Drivers/STM32N6xx_HAL_Driver/Src/stm32n6xx_hal_exti.c **** 
 616:STM32Cube_FW_N6/Drivers/STM32N6xx_HAL_Driver/Src/stm32n6xx_hal_exti.c ****   /* compute line register offset and line mask */
 617:STM32Cube_FW_N6/Drivers/STM32N6xx_HAL_Driver/Src/stm32n6xx_hal_exti.c ****   offset = ((hexti->Line & EXTI_REG_MASK) >> EXTI_REG_SHIFT);
 1630              		.loc 1 617 19 is_stmt 1
 1631 0092 7B68     		ldr	r3, [r7, #4]
 1632 0094 1B68     		ldr	r3, [r3]
 1633              		.loc 1 617 43
 1634 0096 1B0C     		lsrs	r3, r3, #16
 1635              		.loc 1 617 10
 1636 0098 03F00303 		and	r3, r3, #3
 1637 009c 3B61     		str	r3, [r7, #16]
 618:STM32Cube_FW_N6/Drivers/STM32N6xx_HAL_Driver/Src/stm32n6xx_hal_exti.c ****   maskline = (1UL << (hexti->Line & EXTI_PIN_MASK));
 1638              		.loc 1 618 28
 1639 009e 7B68     		ldr	r3, [r7, #4]
 1640 00a0 1B68     		ldr	r3, [r3]
 1641              		.loc 1 618 35
 1642 00a2 03F01F03 		and	r3, r3, #31
 1643              		.loc 1 618 12
 1644 00a6 0122     		movs	r2, #1
 1645 00a8 02FA03F3 		lsl	r3, r2, r3
 1646 00ac FB60     		str	r3, [r7, #12]
 619:STM32Cube_FW_N6/Drivers/STM32N6xx_HAL_Driver/Src/stm32n6xx_hal_exti.c **** 
 620:STM32Cube_FW_N6/Drivers/STM32N6xx_HAL_Driver/Src/stm32n6xx_hal_exti.c ****   if (Edge != EXTI_TRIGGER_RISING)
 1647              		.loc 1 620 6
 1648 00ae 3B68     		ldr	r3, [r7]
 1649 00b0 012B     		cmp	r3, #1
 1650 00b2 05D0     		beq	.L91
 621:STM32Cube_FW_N6/Drivers/STM32N6xx_HAL_Driver/Src/stm32n6xx_hal_exti.c ****   {
 622:STM32Cube_FW_N6/Drivers/STM32N6xx_HAL_Driver/Src/stm32n6xx_hal_exti.c ****     /* Get falling edge pending register address */
 623:STM32Cube_FW_N6/Drivers/STM32N6xx_HAL_Driver/Src/stm32n6xx_hal_exti.c ****     regaddr = (__IO uint32_t *)(&EXTI->FPR1 + (EXTI_CONFIG_OFFSET * offset));
 1651              		.loc 1 623 15
 1652 00b4 3B69     		ldr	r3, [r7, #16]
 1653 00b6 5A01     		lsls	r2, r3, #5
 1654              		.loc 1 623 13
 1655 00b8 0B4B     		ldr	r3, .L93+16
 1656 00ba 1344     		add	r3, r3, r2
 1657 00bc 7B61     		str	r3, [r7, #20]
 1658 00be 04E0     		b	.L92
 1659              	.L91:
 624:STM32Cube_FW_N6/Drivers/STM32N6xx_HAL_Driver/Src/stm32n6xx_hal_exti.c ****   }
 625:STM32Cube_FW_N6/Drivers/STM32N6xx_HAL_Driver/Src/stm32n6xx_hal_exti.c ****   else
 626:STM32Cube_FW_N6/Drivers/STM32N6xx_HAL_Driver/Src/stm32n6xx_hal_exti.c ****   {
 627:STM32Cube_FW_N6/Drivers/STM32N6xx_HAL_Driver/Src/stm32n6xx_hal_exti.c ****     /* Get rising edge pending register address */
 628:STM32Cube_FW_N6/Drivers/STM32N6xx_HAL_Driver/Src/stm32n6xx_hal_exti.c ****     regaddr = (__IO uint32_t *)(&EXTI->RPR1 + (EXTI_CONFIG_OFFSET * offset));
ARM GAS  /tmp/ccRD6zT9.s 			page 41


 1660              		.loc 1 628 15
 1661 00c0 3B69     		ldr	r3, [r7, #16]
 1662 00c2 5A01     		lsls	r2, r3, #5
 1663              		.loc 1 628 13
 1664 00c4 094B     		ldr	r3, .L93+20
 1665 00c6 1344     		add	r3, r3, r2
 1666 00c8 7B61     		str	r3, [r7, #20]
 1667              	.L92:
 629:STM32Cube_FW_N6/Drivers/STM32N6xx_HAL_Driver/Src/stm32n6xx_hal_exti.c ****   }
 630:STM32Cube_FW_N6/Drivers/STM32N6xx_HAL_Driver/Src/stm32n6xx_hal_exti.c **** 
 631:STM32Cube_FW_N6/Drivers/STM32N6xx_HAL_Driver/Src/stm32n6xx_hal_exti.c ****   /* Clear Pending bit */
 632:STM32Cube_FW_N6/Drivers/STM32N6xx_HAL_Driver/Src/stm32n6xx_hal_exti.c ****   *regaddr =  maskline;
 1668              		.loc 1 632 12
 1669 00ca 7B69     		ldr	r3, [r7, #20]
 1670 00cc FA68     		ldr	r2, [r7, #12]
 1671 00ce 1A60     		str	r2, [r3]
 633:STM32Cube_FW_N6/Drivers/STM32N6xx_HAL_Driver/Src/stm32n6xx_hal_exti.c **** }
 1672              		.loc 1 633 1
 1673 00d0 00BF     		nop
 1674 00d2 1837     		adds	r7, r7, #24
 1675              		.cfi_def_cfa_offset 8
 1676 00d4 BD46     		mov	sp, r7
 1677              		.cfi_def_cfa_register 13
 1678              		@ sp needed
 1679 00d6 80BD     		pop	{r7, pc}
 1680              	.L94:
 1681              		.align	2
 1682              	.L93:
 1683 00d8 E0FFFCE8 		.word	-386072608
 1684 00dc 1F000300 		.word	196639
 1685 00e0 0D000200 		.word	131085
 1686 00e4 00000000 		.word	.LC0
 1687 00e8 10500256 		.word	1442992144
 1688 00ec 0C500256 		.word	1442992140
 1689              		.cfi_endproc
 1690              	.LFE842:
 1692              		.section	.text.HAL_EXTI_GenerateSWI,"ax",%progbits
 1693              		.align	1
 1694              		.global	HAL_EXTI_GenerateSWI
 1695              		.syntax unified
 1696              		.thumb
 1697              		.thumb_func
 1699              	HAL_EXTI_GenerateSWI:
 1700              	.LFB843:
 634:STM32Cube_FW_N6/Drivers/STM32N6xx_HAL_Driver/Src/stm32n6xx_hal_exti.c **** 
 635:STM32Cube_FW_N6/Drivers/STM32N6xx_HAL_Driver/Src/stm32n6xx_hal_exti.c **** 
 636:STM32Cube_FW_N6/Drivers/STM32N6xx_HAL_Driver/Src/stm32n6xx_hal_exti.c **** /**
 637:STM32Cube_FW_N6/Drivers/STM32N6xx_HAL_Driver/Src/stm32n6xx_hal_exti.c ****   * @brief  Generate a software interrupt for a dedicated line.
 638:STM32Cube_FW_N6/Drivers/STM32N6xx_HAL_Driver/Src/stm32n6xx_hal_exti.c ****   * @param  hexti Exti handle.
 639:STM32Cube_FW_N6/Drivers/STM32N6xx_HAL_Driver/Src/stm32n6xx_hal_exti.c ****   * @retval None.
 640:STM32Cube_FW_N6/Drivers/STM32N6xx_HAL_Driver/Src/stm32n6xx_hal_exti.c ****   */
 641:STM32Cube_FW_N6/Drivers/STM32N6xx_HAL_Driver/Src/stm32n6xx_hal_exti.c **** void HAL_EXTI_GenerateSWI(const EXTI_HandleTypeDef *hexti)
 642:STM32Cube_FW_N6/Drivers/STM32N6xx_HAL_Driver/Src/stm32n6xx_hal_exti.c **** {
 1701              		.loc 1 642 1
 1702              		.cfi_startproc
 1703              		@ args = 0, pretend = 0, frame = 24
 1704              		@ frame_needed = 1, uses_anonymous_args = 0
ARM GAS  /tmp/ccRD6zT9.s 			page 42


 1705 0000 80B5     		push	{r7, lr}
 1706              		.cfi_def_cfa_offset 8
 1707              		.cfi_offset 7, -8
 1708              		.cfi_offset 14, -4
 1709 0002 86B0     		sub	sp, sp, #24
 1710              		.cfi_def_cfa_offset 32
 1711 0004 00AF     		add	r7, sp, #0
 1712              		.cfi_def_cfa_register 7
 1713 0006 7860     		str	r0, [r7, #4]
 643:STM32Cube_FW_N6/Drivers/STM32N6xx_HAL_Driver/Src/stm32n6xx_hal_exti.c ****   __IO uint32_t *regaddr;
 644:STM32Cube_FW_N6/Drivers/STM32N6xx_HAL_Driver/Src/stm32n6xx_hal_exti.c ****   uint32_t maskline;
 645:STM32Cube_FW_N6/Drivers/STM32N6xx_HAL_Driver/Src/stm32n6xx_hal_exti.c ****   uint32_t offset;
 646:STM32Cube_FW_N6/Drivers/STM32N6xx_HAL_Driver/Src/stm32n6xx_hal_exti.c **** 
 647:STM32Cube_FW_N6/Drivers/STM32N6xx_HAL_Driver/Src/stm32n6xx_hal_exti.c ****   /* Check the parameters */
 648:STM32Cube_FW_N6/Drivers/STM32N6xx_HAL_Driver/Src/stm32n6xx_hal_exti.c ****   assert_param(IS_EXTI_LINE(hexti->Line));
 1714              		.loc 1 648 3
 1715 0008 7B68     		ldr	r3, [r7, #4]
 1716 000a 1A68     		ldr	r2, [r3]
 1717 000c 284B     		ldr	r3, .L100
 1718 000e 1340     		ands	r3, r3, r2
 1719 0010 002B     		cmp	r3, #0
 1720 0012 22D1     		bne	.L96
 1721              		.loc 1 648 3 is_stmt 0 discriminator 2
 1722 0014 7B68     		ldr	r3, [r7, #4]
 1723 0016 1B68     		ldr	r3, [r3]
 1724 0018 03F0E063 		and	r3, r3, #117440512
 1725 001c B3F1807F 		cmp	r3, #16777216
 1726 0020 0DD0     		beq	.L97
 1727              		.loc 1 648 3 discriminator 3
 1728 0022 7B68     		ldr	r3, [r7, #4]
 1729 0024 1B68     		ldr	r3, [r3]
 1730 0026 03F0E063 		and	r3, r3, #117440512
 1731 002a B3F1007F 		cmp	r3, #33554432
 1732 002e 06D0     		beq	.L97
 1733              		.loc 1 648 3 discriminator 5
 1734 0030 7B68     		ldr	r3, [r7, #4]
 1735 0032 1B68     		ldr	r3, [r3]
 1736 0034 03F0E063 		and	r3, r3, #117440512
 1737 0038 B3F1C06F 		cmp	r3, #100663296
 1738 003c 0DD1     		bne	.L96
 1739              	.L97:
 1740              		.loc 1 648 3 discriminator 8
 1741 003e 7B68     		ldr	r3, [r7, #4]
 1742 0040 1A68     		ldr	r2, [r3]
 1743 0042 1C4B     		ldr	r3, .L100+4
 1744 0044 1340     		ands	r3, r3, r2
 1745 0046 1C4A     		ldr	r2, .L100+8
 1746 0048 9342     		cmp	r3, r2
 1747 004a 0BD9     		bls	.L98
 1748              		.loc 1 648 3 discriminator 9
 1749 004c 7B68     		ldr	r3, [r7, #4]
 1750 004e 1A68     		ldr	r2, [r3]
 1751 0050 184B     		ldr	r3, .L100+4
 1752 0052 1340     		ands	r3, r3, r2
 1753 0054 184A     		ldr	r2, .L100+8
 1754 0056 9342     		cmp	r3, r2
 1755 0058 04D0     		beq	.L98
ARM GAS  /tmp/ccRD6zT9.s 			page 43


 1756              	.L96:
 1757              		.loc 1 648 3 discriminator 10
 1758 005a 4FF42271 		mov	r1, #648
 1759 005e 1748     		ldr	r0, .L100+12
 1760 0060 FFF7FEFF 		bl	assert_failed
 1761              	.L98:
 649:STM32Cube_FW_N6/Drivers/STM32N6xx_HAL_Driver/Src/stm32n6xx_hal_exti.c ****   assert_param(IS_EXTI_CONFIG_LINE(hexti->Line));
 1762              		.loc 1 649 3 is_stmt 1
 1763 0064 7B68     		ldr	r3, [r7, #4]
 1764 0066 1B68     		ldr	r3, [r3]
 1765 0068 03F00073 		and	r3, r3, #33554432
 1766 006c 002B     		cmp	r3, #0
 1767 006e 04D1     		bne	.L99
 1768              		.loc 1 649 3 is_stmt 0 discriminator 1
 1769 0070 40F28921 		movw	r1, #649
 1770 0074 1148     		ldr	r0, .L100+12
 1771 0076 FFF7FEFF 		bl	assert_failed
 1772              	.L99:
 650:STM32Cube_FW_N6/Drivers/STM32N6xx_HAL_Driver/Src/stm32n6xx_hal_exti.c **** 
 651:STM32Cube_FW_N6/Drivers/STM32N6xx_HAL_Driver/Src/stm32n6xx_hal_exti.c ****   /* compute line register offset and line mask */
 652:STM32Cube_FW_N6/Drivers/STM32N6xx_HAL_Driver/Src/stm32n6xx_hal_exti.c ****   offset = ((hexti->Line & EXTI_REG_MASK) >> EXTI_REG_SHIFT);
 1773              		.loc 1 652 19 is_stmt 1
 1774 007a 7B68     		ldr	r3, [r7, #4]
 1775 007c 1B68     		ldr	r3, [r3]
 1776              		.loc 1 652 43
 1777 007e 1B0C     		lsrs	r3, r3, #16
 1778              		.loc 1 652 10
 1779 0080 03F00303 		and	r3, r3, #3
 1780 0084 7B61     		str	r3, [r7, #20]
 653:STM32Cube_FW_N6/Drivers/STM32N6xx_HAL_Driver/Src/stm32n6xx_hal_exti.c ****   maskline = (1UL << (hexti->Line & EXTI_PIN_MASK));
 1781              		.loc 1 653 28
 1782 0086 7B68     		ldr	r3, [r7, #4]
 1783 0088 1B68     		ldr	r3, [r3]
 1784              		.loc 1 653 35
 1785 008a 03F01F03 		and	r3, r3, #31
 1786              		.loc 1 653 12
 1787 008e 0122     		movs	r2, #1
 1788 0090 02FA03F3 		lsl	r3, r2, r3
 1789 0094 3B61     		str	r3, [r7, #16]
 654:STM32Cube_FW_N6/Drivers/STM32N6xx_HAL_Driver/Src/stm32n6xx_hal_exti.c **** 
 655:STM32Cube_FW_N6/Drivers/STM32N6xx_HAL_Driver/Src/stm32n6xx_hal_exti.c ****   regaddr = (__IO uint32_t *)(&EXTI->SWIER1 + (EXTI_CONFIG_OFFSET * offset));
 1790              		.loc 1 655 13
 1791 0096 7B69     		ldr	r3, [r7, #20]
 1792 0098 5A01     		lsls	r2, r3, #5
 1793              		.loc 1 655 11
 1794 009a 094B     		ldr	r3, .L100+16
 1795 009c 1344     		add	r3, r3, r2
 1796 009e FB60     		str	r3, [r7, #12]
 656:STM32Cube_FW_N6/Drivers/STM32N6xx_HAL_Driver/Src/stm32n6xx_hal_exti.c ****   *regaddr = maskline;
 1797              		.loc 1 656 12
 1798 00a0 FB68     		ldr	r3, [r7, #12]
 1799 00a2 3A69     		ldr	r2, [r7, #16]
 1800 00a4 1A60     		str	r2, [r3]
 657:STM32Cube_FW_N6/Drivers/STM32N6xx_HAL_Driver/Src/stm32n6xx_hal_exti.c **** }
 1801              		.loc 1 657 1
 1802 00a6 00BF     		nop
 1803 00a8 1837     		adds	r7, r7, #24
ARM GAS  /tmp/ccRD6zT9.s 			page 44


 1804              		.cfi_def_cfa_offset 8
 1805 00aa BD46     		mov	sp, r7
 1806              		.cfi_def_cfa_register 13
 1807              		@ sp needed
 1808 00ac 80BD     		pop	{r7, pc}
 1809              	.L101:
 1810 00ae 00BF     		.align	2
 1811              	.L100:
 1812 00b0 E0FFFCE8 		.word	-386072608
 1813 00b4 1F000300 		.word	196639
 1814 00b8 0D000200 		.word	131085
 1815 00bc 00000000 		.word	.LC0
 1816 00c0 08500256 		.word	1442992136
 1817              		.cfi_endproc
 1818              	.LFE843:
 1820              		.section	.text.HAL_EXTI_ConfigLineAttributes,"ax",%progbits
 1821              		.align	1
 1822              		.global	HAL_EXTI_ConfigLineAttributes
 1823              		.syntax unified
 1824              		.thumb
 1825              		.thumb_func
 1827              	HAL_EXTI_ConfigLineAttributes:
 1828              	.LFB844:
 658:STM32Cube_FW_N6/Drivers/STM32N6xx_HAL_Driver/Src/stm32n6xx_hal_exti.c **** 
 659:STM32Cube_FW_N6/Drivers/STM32N6xx_HAL_Driver/Src/stm32n6xx_hal_exti.c **** /**
 660:STM32Cube_FW_N6/Drivers/STM32N6xx_HAL_Driver/Src/stm32n6xx_hal_exti.c ****   * @}
 661:STM32Cube_FW_N6/Drivers/STM32N6xx_HAL_Driver/Src/stm32n6xx_hal_exti.c ****   */
 662:STM32Cube_FW_N6/Drivers/STM32N6xx_HAL_Driver/Src/stm32n6xx_hal_exti.c **** 
 663:STM32Cube_FW_N6/Drivers/STM32N6xx_HAL_Driver/Src/stm32n6xx_hal_exti.c **** /** @defgroup EXTI_Exported_Functions_Group3 EXTI line attributes management functions
 664:STM32Cube_FW_N6/Drivers/STM32N6xx_HAL_Driver/Src/stm32n6xx_hal_exti.c ****   *  @brief EXTI attributes management functions.
 665:STM32Cube_FW_N6/Drivers/STM32N6xx_HAL_Driver/Src/stm32n6xx_hal_exti.c ****   *
 666:STM32Cube_FW_N6/Drivers/STM32N6xx_HAL_Driver/Src/stm32n6xx_hal_exti.c **** @verbatim
 667:STM32Cube_FW_N6/Drivers/STM32N6xx_HAL_Driver/Src/stm32n6xx_hal_exti.c ****  ===============================================================================
 668:STM32Cube_FW_N6/Drivers/STM32N6xx_HAL_Driver/Src/stm32n6xx_hal_exti.c ****                        ##### EXTI attributes functions #####
 669:STM32Cube_FW_N6/Drivers/STM32N6xx_HAL_Driver/Src/stm32n6xx_hal_exti.c ****  ===============================================================================
 670:STM32Cube_FW_N6/Drivers/STM32N6xx_HAL_Driver/Src/stm32n6xx_hal_exti.c **** 
 671:STM32Cube_FW_N6/Drivers/STM32N6xx_HAL_Driver/Src/stm32n6xx_hal_exti.c **** @endverbatim
 672:STM32Cube_FW_N6/Drivers/STM32N6xx_HAL_Driver/Src/stm32n6xx_hal_exti.c ****   * @{
 673:STM32Cube_FW_N6/Drivers/STM32N6xx_HAL_Driver/Src/stm32n6xx_hal_exti.c ****   */
 674:STM32Cube_FW_N6/Drivers/STM32N6xx_HAL_Driver/Src/stm32n6xx_hal_exti.c **** 
 675:STM32Cube_FW_N6/Drivers/STM32N6xx_HAL_Driver/Src/stm32n6xx_hal_exti.c **** /**
 676:STM32Cube_FW_N6/Drivers/STM32N6xx_HAL_Driver/Src/stm32n6xx_hal_exti.c ****   * @brief  Configure the EXTI line attribute(s).
 677:STM32Cube_FW_N6/Drivers/STM32N6xx_HAL_Driver/Src/stm32n6xx_hal_exti.c ****   * @note   Available attributes are to secure EXTI line and set EXTI line as privileged.
 678:STM32Cube_FW_N6/Drivers/STM32N6xx_HAL_Driver/Src/stm32n6xx_hal_exti.c ****   *         Default state is not secure and unprivileged access allowed.
 679:STM32Cube_FW_N6/Drivers/STM32N6xx_HAL_Driver/Src/stm32n6xx_hal_exti.c ****   * @note   Set an EXTI line to secure is only available in secure and privilege
 680:STM32Cube_FW_N6/Drivers/STM32N6xx_HAL_Driver/Src/stm32n6xx_hal_exti.c ****   *         Set an EXTI line to privilege is only available in privilege
 681:STM32Cube_FW_N6/Drivers/STM32N6xx_HAL_Driver/Src/stm32n6xx_hal_exti.c ****   * @note   Security and privilege attributes can be set independently.
 682:STM32Cube_FW_N6/Drivers/STM32N6xx_HAL_Driver/Src/stm32n6xx_hal_exti.c ****   * @param  ExtiLine Exti line number.
 683:STM32Cube_FW_N6/Drivers/STM32N6xx_HAL_Driver/Src/stm32n6xx_hal_exti.c ****   *         This parameter can be from 0 to @ref EXTI_LINE_NB.
 684:STM32Cube_FW_N6/Drivers/STM32N6xx_HAL_Driver/Src/stm32n6xx_hal_exti.c ****   * @param  LineAttributes can be one or a combination of the following values:
 685:STM32Cube_FW_N6/Drivers/STM32N6xx_HAL_Driver/Src/stm32n6xx_hal_exti.c ****   *            @arg @ref EXTI_LINE_PRIV         Privileged-only access
 686:STM32Cube_FW_N6/Drivers/STM32N6xx_HAL_Driver/Src/stm32n6xx_hal_exti.c ****   *            @arg @ref EXTI_LINE_NPRIV        Privileged/Non-privileged access
 687:STM32Cube_FW_N6/Drivers/STM32N6xx_HAL_Driver/Src/stm32n6xx_hal_exti.c ****   *            @arg @ref EXTI_LINE_SEC          Secure-only access
 688:STM32Cube_FW_N6/Drivers/STM32N6xx_HAL_Driver/Src/stm32n6xx_hal_exti.c ****   *            @arg @ref EXTI_LINE_NSEC         Secure/Non-secure access
 689:STM32Cube_FW_N6/Drivers/STM32N6xx_HAL_Driver/Src/stm32n6xx_hal_exti.c ****   * @retval None
 690:STM32Cube_FW_N6/Drivers/STM32N6xx_HAL_Driver/Src/stm32n6xx_hal_exti.c ****   */
 691:STM32Cube_FW_N6/Drivers/STM32N6xx_HAL_Driver/Src/stm32n6xx_hal_exti.c **** void HAL_EXTI_ConfigLineAttributes(uint32_t ExtiLine, uint32_t LineAttributes)
ARM GAS  /tmp/ccRD6zT9.s 			page 45


 692:STM32Cube_FW_N6/Drivers/STM32N6xx_HAL_Driver/Src/stm32n6xx_hal_exti.c **** {
 1829              		.loc 1 692 1
 1830              		.cfi_startproc
 1831              		@ args = 0, pretend = 0, frame = 32
 1832              		@ frame_needed = 1, uses_anonymous_args = 0
 1833 0000 80B5     		push	{r7, lr}
 1834              		.cfi_def_cfa_offset 8
 1835              		.cfi_offset 7, -8
 1836              		.cfi_offset 14, -4
 1837 0002 88B0     		sub	sp, sp, #32
 1838              		.cfi_def_cfa_offset 40
 1839 0004 00AF     		add	r7, sp, #0
 1840              		.cfi_def_cfa_register 7
 1841 0006 7860     		str	r0, [r7, #4]
 1842 0008 3960     		str	r1, [r7]
 693:STM32Cube_FW_N6/Drivers/STM32N6xx_HAL_Driver/Src/stm32n6xx_hal_exti.c ****   __IO uint32_t *regaddr;
 694:STM32Cube_FW_N6/Drivers/STM32N6xx_HAL_Driver/Src/stm32n6xx_hal_exti.c ****   uint32_t regval;
 695:STM32Cube_FW_N6/Drivers/STM32N6xx_HAL_Driver/Src/stm32n6xx_hal_exti.c ****   uint32_t linepos;
 696:STM32Cube_FW_N6/Drivers/STM32N6xx_HAL_Driver/Src/stm32n6xx_hal_exti.c ****   uint32_t maskline;
 697:STM32Cube_FW_N6/Drivers/STM32N6xx_HAL_Driver/Src/stm32n6xx_hal_exti.c ****   uint32_t offset;
 698:STM32Cube_FW_N6/Drivers/STM32N6xx_HAL_Driver/Src/stm32n6xx_hal_exti.c **** 
 699:STM32Cube_FW_N6/Drivers/STM32N6xx_HAL_Driver/Src/stm32n6xx_hal_exti.c ****   /* Check the parameters */
 700:STM32Cube_FW_N6/Drivers/STM32N6xx_HAL_Driver/Src/stm32n6xx_hal_exti.c ****   assert_param(IS_EXTI_LINE(ExtiLine));
 1843              		.loc 1 700 3
 1844 000a 7A68     		ldr	r2, [r7, #4]
 1845 000c 514B     		ldr	r3, .L113
 1846 000e 1340     		ands	r3, r3, r2
 1847 0010 002B     		cmp	r3, #0
 1848 0012 1DD1     		bne	.L103
 1849              		.loc 1 700 3 is_stmt 0 discriminator 2
 1850 0014 7B68     		ldr	r3, [r7, #4]
 1851 0016 03F0E063 		and	r3, r3, #117440512
 1852 001a B3F1807F 		cmp	r3, #16777216
 1853 001e 0BD0     		beq	.L104
 1854              		.loc 1 700 3 discriminator 3
 1855 0020 7B68     		ldr	r3, [r7, #4]
 1856 0022 03F0E063 		and	r3, r3, #117440512
 1857 0026 B3F1007F 		cmp	r3, #33554432
 1858 002a 05D0     		beq	.L104
 1859              		.loc 1 700 3 discriminator 5
 1860 002c 7B68     		ldr	r3, [r7, #4]
 1861 002e 03F0E063 		and	r3, r3, #117440512
 1862 0032 B3F1C06F 		cmp	r3, #100663296
 1863 0036 0BD1     		bne	.L103
 1864              	.L104:
 1865              		.loc 1 700 3 discriminator 8
 1866 0038 7A68     		ldr	r2, [r7, #4]
 1867 003a 474B     		ldr	r3, .L113+4
 1868 003c 1340     		ands	r3, r3, r2
 1869 003e 474A     		ldr	r2, .L113+8
 1870 0040 9342     		cmp	r3, r2
 1871 0042 0AD9     		bls	.L105
 1872              		.loc 1 700 3 discriminator 9
 1873 0044 7A68     		ldr	r2, [r7, #4]
 1874 0046 444B     		ldr	r3, .L113+4
 1875 0048 1340     		ands	r3, r3, r2
 1876 004a 444A     		ldr	r2, .L113+8
ARM GAS  /tmp/ccRD6zT9.s 			page 46


 1877 004c 9342     		cmp	r3, r2
 1878 004e 04D0     		beq	.L105
 1879              	.L103:
 1880              		.loc 1 700 3 discriminator 10
 1881 0050 4FF42F71 		mov	r1, #700
 1882 0054 4248     		ldr	r0, .L113+12
 1883 0056 FFF7FEFF 		bl	assert_failed
 1884              	.L105:
 701:STM32Cube_FW_N6/Drivers/STM32N6xx_HAL_Driver/Src/stm32n6xx_hal_exti.c ****   assert_param(IS_EXTI_LINE_ATTRIBUTES(LineAttributes));
 1885              		.loc 1 701 3 is_stmt 1
 1886 005a 3A68     		ldr	r2, [r7]
 1887 005c 40F20113 		movw	r3, #257
 1888 0060 1340     		ands	r3, r3, r2
 1889 0062 40F20112 		movw	r2, #257
 1890 0066 9342     		cmp	r3, r2
 1891 0068 11D0     		beq	.L106
 1892              		.loc 1 701 3 is_stmt 0 discriminator 1
 1893 006a 3B68     		ldr	r3, [r7]
 1894 006c 03F48073 		and	r3, r3, #256
 1895 0070 002B     		cmp	r3, #0
 1896 0072 0CD1     		bne	.L106
 1897              		.loc 1 701 3 discriminator 3
 1898 0074 3A68     		ldr	r2, [r7]
 1899 0076 40F20223 		movw	r3, #514
 1900 007a 1340     		ands	r3, r3, r2
 1901 007c 40F20222 		movw	r2, #514
 1902 0080 9342     		cmp	r3, r2
 1903 0082 04D0     		beq	.L106
 1904              		.loc 1 701 3 discriminator 5
 1905 0084 3B68     		ldr	r3, [r7]
 1906 0086 03F40073 		and	r3, r3, #512
 1907 008a 002B     		cmp	r3, #0
 1908 008c 06D0     		beq	.L107
 1909              	.L106:
 1910              		.loc 1 701 3 discriminator 8
 1911 008e 3B68     		ldr	r3, [r7]
 1912 0090 23F44073 		bic	r3, r3, #768
 1913 0094 23F00303 		bic	r3, r3, #3
 1914 0098 002B     		cmp	r3, #0
 1915 009a 04D0     		beq	.L108
 1916              	.L107:
 1917              		.loc 1 701 3 discriminator 9
 1918 009c 40F2BD21 		movw	r1, #701
 1919 00a0 2F48     		ldr	r0, .L113+12
 1920 00a2 FFF7FEFF 		bl	assert_failed
 1921              	.L108:
 702:STM32Cube_FW_N6/Drivers/STM32N6xx_HAL_Driver/Src/stm32n6xx_hal_exti.c **** 
 703:STM32Cube_FW_N6/Drivers/STM32N6xx_HAL_Driver/Src/stm32n6xx_hal_exti.c ****   /* compute line register offset and line mask */
 704:STM32Cube_FW_N6/Drivers/STM32N6xx_HAL_Driver/Src/stm32n6xx_hal_exti.c ****   offset = ((ExtiLine & EXTI_REG_MASK) >> EXTI_REG_SHIFT);
 1922              		.loc 1 704 40 is_stmt 1
 1923 00a6 7B68     		ldr	r3, [r7, #4]
 1924 00a8 1B0C     		lsrs	r3, r3, #16
 1925              		.loc 1 704 10
 1926 00aa 03F00303 		and	r3, r3, #3
 1927 00ae BB61     		str	r3, [r7, #24]
 705:STM32Cube_FW_N6/Drivers/STM32N6xx_HAL_Driver/Src/stm32n6xx_hal_exti.c ****   linepos = (ExtiLine & EXTI_PIN_MASK);
 1928              		.loc 1 705 11
ARM GAS  /tmp/ccRD6zT9.s 			page 47


 1929 00b0 7B68     		ldr	r3, [r7, #4]
 1930 00b2 03F01F03 		and	r3, r3, #31
 1931 00b6 7B61     		str	r3, [r7, #20]
 706:STM32Cube_FW_N6/Drivers/STM32N6xx_HAL_Driver/Src/stm32n6xx_hal_exti.c ****   maskline = (1UL << linepos);
 1932              		.loc 1 706 12
 1933 00b8 0122     		movs	r2, #1
 1934 00ba 7B69     		ldr	r3, [r7, #20]
 1935 00bc 02FA03F3 		lsl	r3, r2, r3
 1936 00c0 3B61     		str	r3, [r7, #16]
 707:STM32Cube_FW_N6/Drivers/STM32N6xx_HAL_Driver/Src/stm32n6xx_hal_exti.c **** 
 708:STM32Cube_FW_N6/Drivers/STM32N6xx_HAL_Driver/Src/stm32n6xx_hal_exti.c ****   /* Configure privilege or non-privilege attributes */
 709:STM32Cube_FW_N6/Drivers/STM32N6xx_HAL_Driver/Src/stm32n6xx_hal_exti.c ****   regaddr = (__IO uint32_t *)(&EXTI->PRIVCFGR1 + (EXTI_PRIVCFGR_OFFSET * offset));
 1937              		.loc 1 709 13
 1938 00c2 BB69     		ldr	r3, [r7, #24]
 1939 00c4 5A01     		lsls	r2, r3, #5
 1940              		.loc 1 709 11
 1941 00c6 274B     		ldr	r3, .L113+16
 1942 00c8 1344     		add	r3, r3, r2
 1943 00ca FB60     		str	r3, [r7, #12]
 710:STM32Cube_FW_N6/Drivers/STM32N6xx_HAL_Driver/Src/stm32n6xx_hal_exti.c ****   regval = *regaddr;
 1944              		.loc 1 710 10
 1945 00cc FB68     		ldr	r3, [r7, #12]
 1946 00ce 1B68     		ldr	r3, [r3]
 1947 00d0 FB61     		str	r3, [r7, #28]
 711:STM32Cube_FW_N6/Drivers/STM32N6xx_HAL_Driver/Src/stm32n6xx_hal_exti.c **** 
 712:STM32Cube_FW_N6/Drivers/STM32N6xx_HAL_Driver/Src/stm32n6xx_hal_exti.c ****   /* Mask or set line */
 713:STM32Cube_FW_N6/Drivers/STM32N6xx_HAL_Driver/Src/stm32n6xx_hal_exti.c ****   if ((LineAttributes & EXTI_LINE_PRIV) == EXTI_LINE_PRIV)
 1948              		.loc 1 713 23
 1949 00d2 3A68     		ldr	r2, [r7]
 1950 00d4 40F20223 		movw	r3, #514
 1951 00d8 1340     		ands	r3, r3, r2
 1952              		.loc 1 713 6
 1953 00da 40F20222 		movw	r2, #514
 1954 00de 9342     		cmp	r3, r2
 1955 00e0 04D1     		bne	.L109
 714:STM32Cube_FW_N6/Drivers/STM32N6xx_HAL_Driver/Src/stm32n6xx_hal_exti.c ****   {
 715:STM32Cube_FW_N6/Drivers/STM32N6xx_HAL_Driver/Src/stm32n6xx_hal_exti.c ****     regval |= maskline;
 1956              		.loc 1 715 12
 1957 00e2 FA69     		ldr	r2, [r7, #28]
 1958 00e4 3B69     		ldr	r3, [r7, #16]
 1959 00e6 1343     		orrs	r3, r3, r2
 1960 00e8 FB61     		str	r3, [r7, #28]
 1961 00ea 09E0     		b	.L110
 1962              	.L109:
 716:STM32Cube_FW_N6/Drivers/STM32N6xx_HAL_Driver/Src/stm32n6xx_hal_exti.c ****   }
 717:STM32Cube_FW_N6/Drivers/STM32N6xx_HAL_Driver/Src/stm32n6xx_hal_exti.c ****   else if ((LineAttributes & EXTI_LINE_NPRIV) == EXTI_LINE_NPRIV)
 1963              		.loc 1 717 28
 1964 00ec 3B68     		ldr	r3, [r7]
 1965 00ee 03F40073 		and	r3, r3, #512
 1966              		.loc 1 717 11
 1967 00f2 002B     		cmp	r3, #0
 1968 00f4 04D0     		beq	.L110
 718:STM32Cube_FW_N6/Drivers/STM32N6xx_HAL_Driver/Src/stm32n6xx_hal_exti.c ****   {
 719:STM32Cube_FW_N6/Drivers/STM32N6xx_HAL_Driver/Src/stm32n6xx_hal_exti.c ****     regval &= ~maskline;
 1969              		.loc 1 719 15
 1970 00f6 3B69     		ldr	r3, [r7, #16]
 1971 00f8 DB43     		mvns	r3, r3
ARM GAS  /tmp/ccRD6zT9.s 			page 48


 1972              		.loc 1 719 12
 1973 00fa FA69     		ldr	r2, [r7, #28]
 1974 00fc 1340     		ands	r3, r3, r2
 1975 00fe FB61     		str	r3, [r7, #28]
 1976              	.L110:
 720:STM32Cube_FW_N6/Drivers/STM32N6xx_HAL_Driver/Src/stm32n6xx_hal_exti.c ****   }
 721:STM32Cube_FW_N6/Drivers/STM32N6xx_HAL_Driver/Src/stm32n6xx_hal_exti.c ****   else
 722:STM32Cube_FW_N6/Drivers/STM32N6xx_HAL_Driver/Src/stm32n6xx_hal_exti.c ****   {
 723:STM32Cube_FW_N6/Drivers/STM32N6xx_HAL_Driver/Src/stm32n6xx_hal_exti.c ****     /* do nothing */
 724:STM32Cube_FW_N6/Drivers/STM32N6xx_HAL_Driver/Src/stm32n6xx_hal_exti.c ****   }
 725:STM32Cube_FW_N6/Drivers/STM32N6xx_HAL_Driver/Src/stm32n6xx_hal_exti.c **** 
 726:STM32Cube_FW_N6/Drivers/STM32N6xx_HAL_Driver/Src/stm32n6xx_hal_exti.c ****   /* Store privilege or non-privilege attribute */
 727:STM32Cube_FW_N6/Drivers/STM32N6xx_HAL_Driver/Src/stm32n6xx_hal_exti.c ****   *regaddr = regval;
 1977              		.loc 1 727 12
 1978 0100 FB68     		ldr	r3, [r7, #12]
 1979 0102 FA69     		ldr	r2, [r7, #28]
 1980 0104 1A60     		str	r2, [r3]
 728:STM32Cube_FW_N6/Drivers/STM32N6xx_HAL_Driver/Src/stm32n6xx_hal_exti.c **** 
 729:STM32Cube_FW_N6/Drivers/STM32N6xx_HAL_Driver/Src/stm32n6xx_hal_exti.c **** #if defined CPU_IN_SECURE_STATE
 730:STM32Cube_FW_N6/Drivers/STM32N6xx_HAL_Driver/Src/stm32n6xx_hal_exti.c ****   /* Configure secure or non-secure attributes */
 731:STM32Cube_FW_N6/Drivers/STM32N6xx_HAL_Driver/Src/stm32n6xx_hal_exti.c ****   regaddr = (__IO uint32_t *)(&EXTI->SECCFGR1 + (EXTI_SECCFGR_OFFSET * offset));
 1981              		.loc 1 731 13
 1982 0106 BB69     		ldr	r3, [r7, #24]
 1983 0108 5A01     		lsls	r2, r3, #5
 1984              		.loc 1 731 11
 1985 010a 174B     		ldr	r3, .L113+20
 1986 010c 1344     		add	r3, r3, r2
 1987 010e FB60     		str	r3, [r7, #12]
 732:STM32Cube_FW_N6/Drivers/STM32N6xx_HAL_Driver/Src/stm32n6xx_hal_exti.c ****   regval = *regaddr;
 1988              		.loc 1 732 10
 1989 0110 FB68     		ldr	r3, [r7, #12]
 1990 0112 1B68     		ldr	r3, [r3]
 1991 0114 FB61     		str	r3, [r7, #28]
 733:STM32Cube_FW_N6/Drivers/STM32N6xx_HAL_Driver/Src/stm32n6xx_hal_exti.c **** 
 734:STM32Cube_FW_N6/Drivers/STM32N6xx_HAL_Driver/Src/stm32n6xx_hal_exti.c ****   /* Mask or set line */
 735:STM32Cube_FW_N6/Drivers/STM32N6xx_HAL_Driver/Src/stm32n6xx_hal_exti.c ****   if ((LineAttributes & EXTI_LINE_SEC) == EXTI_LINE_SEC)
 1992              		.loc 1 735 23
 1993 0116 3A68     		ldr	r2, [r7]
 1994 0118 40F20113 		movw	r3, #257
 1995 011c 1340     		ands	r3, r3, r2
 1996              		.loc 1 735 6
 1997 011e 40F20112 		movw	r2, #257
 1998 0122 9342     		cmp	r3, r2
 1999 0124 04D1     		bne	.L111
 736:STM32Cube_FW_N6/Drivers/STM32N6xx_HAL_Driver/Src/stm32n6xx_hal_exti.c ****   {
 737:STM32Cube_FW_N6/Drivers/STM32N6xx_HAL_Driver/Src/stm32n6xx_hal_exti.c ****     regval |= maskline;
 2000              		.loc 1 737 12
 2001 0126 FA69     		ldr	r2, [r7, #28]
 2002 0128 3B69     		ldr	r3, [r7, #16]
 2003 012a 1343     		orrs	r3, r3, r2
 2004 012c FB61     		str	r3, [r7, #28]
 2005 012e 09E0     		b	.L112
 2006              	.L111:
 738:STM32Cube_FW_N6/Drivers/STM32N6xx_HAL_Driver/Src/stm32n6xx_hal_exti.c ****   }
 739:STM32Cube_FW_N6/Drivers/STM32N6xx_HAL_Driver/Src/stm32n6xx_hal_exti.c ****   else if ((LineAttributes & EXTI_LINE_NSEC) == EXTI_LINE_NSEC)
 2007              		.loc 1 739 28
 2008 0130 3B68     		ldr	r3, [r7]
ARM GAS  /tmp/ccRD6zT9.s 			page 49


 2009 0132 03F48073 		and	r3, r3, #256
 2010              		.loc 1 739 11
 2011 0136 002B     		cmp	r3, #0
 2012 0138 04D0     		beq	.L112
 740:STM32Cube_FW_N6/Drivers/STM32N6xx_HAL_Driver/Src/stm32n6xx_hal_exti.c ****   {
 741:STM32Cube_FW_N6/Drivers/STM32N6xx_HAL_Driver/Src/stm32n6xx_hal_exti.c ****     regval &= ~maskline;
 2013              		.loc 1 741 15
 2014 013a 3B69     		ldr	r3, [r7, #16]
 2015 013c DB43     		mvns	r3, r3
 2016              		.loc 1 741 12
 2017 013e FA69     		ldr	r2, [r7, #28]
 2018 0140 1340     		ands	r3, r3, r2
 2019 0142 FB61     		str	r3, [r7, #28]
 2020              	.L112:
 742:STM32Cube_FW_N6/Drivers/STM32N6xx_HAL_Driver/Src/stm32n6xx_hal_exti.c ****   }
 743:STM32Cube_FW_N6/Drivers/STM32N6xx_HAL_Driver/Src/stm32n6xx_hal_exti.c ****   else
 744:STM32Cube_FW_N6/Drivers/STM32N6xx_HAL_Driver/Src/stm32n6xx_hal_exti.c ****   {
 745:STM32Cube_FW_N6/Drivers/STM32N6xx_HAL_Driver/Src/stm32n6xx_hal_exti.c ****     /* do nothing */
 746:STM32Cube_FW_N6/Drivers/STM32N6xx_HAL_Driver/Src/stm32n6xx_hal_exti.c ****   }
 747:STM32Cube_FW_N6/Drivers/STM32N6xx_HAL_Driver/Src/stm32n6xx_hal_exti.c **** 
 748:STM32Cube_FW_N6/Drivers/STM32N6xx_HAL_Driver/Src/stm32n6xx_hal_exti.c ****   /* Store secure or non-secure attribute */
 749:STM32Cube_FW_N6/Drivers/STM32N6xx_HAL_Driver/Src/stm32n6xx_hal_exti.c ****   *regaddr = regval;
 2021              		.loc 1 749 12
 2022 0144 FB68     		ldr	r3, [r7, #12]
 2023 0146 FA69     		ldr	r2, [r7, #28]
 2024 0148 1A60     		str	r2, [r3]
 750:STM32Cube_FW_N6/Drivers/STM32N6xx_HAL_Driver/Src/stm32n6xx_hal_exti.c **** #endif /* CPU_IN_SECURE_STATE */
 751:STM32Cube_FW_N6/Drivers/STM32N6xx_HAL_Driver/Src/stm32n6xx_hal_exti.c **** 
 752:STM32Cube_FW_N6/Drivers/STM32N6xx_HAL_Driver/Src/stm32n6xx_hal_exti.c **** }
 2025              		.loc 1 752 1
 2026 014a 00BF     		nop
 2027 014c 2037     		adds	r7, r7, #32
 2028              		.cfi_def_cfa_offset 8
 2029 014e BD46     		mov	sp, r7
 2030              		.cfi_def_cfa_register 13
 2031              		@ sp needed
 2032 0150 80BD     		pop	{r7, pc}
 2033              	.L114:
 2034 0152 00BF     		.align	2
 2035              	.L113:
 2036 0154 E0FFFCE8 		.word	-386072608
 2037 0158 1F000300 		.word	196639
 2038 015c 0D000200 		.word	131085
 2039 0160 00000000 		.word	.LC0
 2040 0164 18500256 		.word	1442992152
 2041 0168 14500256 		.word	1442992148
 2042              		.cfi_endproc
 2043              	.LFE844:
 2045              		.section	.text.HAL_EXTI_GetConfigLineAttributes,"ax",%progbits
 2046              		.align	1
 2047              		.global	HAL_EXTI_GetConfigLineAttributes
 2048              		.syntax unified
 2049              		.thumb
 2050              		.thumb_func
 2052              	HAL_EXTI_GetConfigLineAttributes:
 2053              	.LFB845:
 753:STM32Cube_FW_N6/Drivers/STM32N6xx_HAL_Driver/Src/stm32n6xx_hal_exti.c **** 
ARM GAS  /tmp/ccRD6zT9.s 			page 50


 754:STM32Cube_FW_N6/Drivers/STM32N6xx_HAL_Driver/Src/stm32n6xx_hal_exti.c **** /**
 755:STM32Cube_FW_N6/Drivers/STM32N6xx_HAL_Driver/Src/stm32n6xx_hal_exti.c ****   * @brief  Get the EXTI line attribute(s).
 756:STM32Cube_FW_N6/Drivers/STM32N6xx_HAL_Driver/Src/stm32n6xx_hal_exti.c ****   * @param  ExtiLine Exti line number.
 757:STM32Cube_FW_N6/Drivers/STM32N6xx_HAL_Driver/Src/stm32n6xx_hal_exti.c ****   *         This parameter can be from 0 to @ref EXTI_LINE_NB.
 758:STM32Cube_FW_N6/Drivers/STM32N6xx_HAL_Driver/Src/stm32n6xx_hal_exti.c ****   * @param  pLineAttributes: pointer to return line attributes.
 759:STM32Cube_FW_N6/Drivers/STM32N6xx_HAL_Driver/Src/stm32n6xx_hal_exti.c ****   * @retval HAL Status.
 760:STM32Cube_FW_N6/Drivers/STM32N6xx_HAL_Driver/Src/stm32n6xx_hal_exti.c ****   */
 761:STM32Cube_FW_N6/Drivers/STM32N6xx_HAL_Driver/Src/stm32n6xx_hal_exti.c **** HAL_StatusTypeDef HAL_EXTI_GetConfigLineAttributes(uint32_t ExtiLine, uint32_t *pLineAttributes)
 762:STM32Cube_FW_N6/Drivers/STM32N6xx_HAL_Driver/Src/stm32n6xx_hal_exti.c **** {
 2054              		.loc 1 762 1
 2055              		.cfi_startproc
 2056              		@ args = 0, pretend = 0, frame = 32
 2057              		@ frame_needed = 1, uses_anonymous_args = 0
 2058 0000 80B5     		push	{r7, lr}
 2059              		.cfi_def_cfa_offset 8
 2060              		.cfi_offset 7, -8
 2061              		.cfi_offset 14, -4
 2062 0002 88B0     		sub	sp, sp, #32
 2063              		.cfi_def_cfa_offset 40
 2064 0004 00AF     		add	r7, sp, #0
 2065              		.cfi_def_cfa_register 7
 2066 0006 7860     		str	r0, [r7, #4]
 2067 0008 3960     		str	r1, [r7]
 763:STM32Cube_FW_N6/Drivers/STM32N6xx_HAL_Driver/Src/stm32n6xx_hal_exti.c ****   const __IO uint32_t *regaddr;
 764:STM32Cube_FW_N6/Drivers/STM32N6xx_HAL_Driver/Src/stm32n6xx_hal_exti.c ****   uint32_t linepos;
 765:STM32Cube_FW_N6/Drivers/STM32N6xx_HAL_Driver/Src/stm32n6xx_hal_exti.c ****   uint32_t maskline;
 766:STM32Cube_FW_N6/Drivers/STM32N6xx_HAL_Driver/Src/stm32n6xx_hal_exti.c ****   uint32_t offset;
 767:STM32Cube_FW_N6/Drivers/STM32N6xx_HAL_Driver/Src/stm32n6xx_hal_exti.c ****   uint32_t attributes;
 768:STM32Cube_FW_N6/Drivers/STM32N6xx_HAL_Driver/Src/stm32n6xx_hal_exti.c **** 
 769:STM32Cube_FW_N6/Drivers/STM32N6xx_HAL_Driver/Src/stm32n6xx_hal_exti.c ****   /* Check null pointer */
 770:STM32Cube_FW_N6/Drivers/STM32N6xx_HAL_Driver/Src/stm32n6xx_hal_exti.c ****   if (pLineAttributes == NULL)
 2068              		.loc 1 770 6
 2069 000a 3B68     		ldr	r3, [r7]
 2070 000c 002B     		cmp	r3, #0
 2071 000e 01D1     		bne	.L116
 771:STM32Cube_FW_N6/Drivers/STM32N6xx_HAL_Driver/Src/stm32n6xx_hal_exti.c ****   {
 772:STM32Cube_FW_N6/Drivers/STM32N6xx_HAL_Driver/Src/stm32n6xx_hal_exti.c ****     return HAL_ERROR;
 2072              		.loc 1 772 12
 2073 0010 0123     		movs	r3, #1
 2074 0012 61E0     		b	.L117
 2075              	.L116:
 773:STM32Cube_FW_N6/Drivers/STM32N6xx_HAL_Driver/Src/stm32n6xx_hal_exti.c ****   }
 774:STM32Cube_FW_N6/Drivers/STM32N6xx_HAL_Driver/Src/stm32n6xx_hal_exti.c **** 
 775:STM32Cube_FW_N6/Drivers/STM32N6xx_HAL_Driver/Src/stm32n6xx_hal_exti.c ****   /* Check the parameters */
 776:STM32Cube_FW_N6/Drivers/STM32N6xx_HAL_Driver/Src/stm32n6xx_hal_exti.c ****   assert_param(IS_EXTI_LINE(ExtiLine));
 2076              		.loc 1 776 3
 2077 0014 7A68     		ldr	r2, [r7, #4]
 2078 0016 324B     		ldr	r3, .L125
 2079 0018 1340     		ands	r3, r3, r2
 2080 001a 002B     		cmp	r3, #0
 2081 001c 1DD1     		bne	.L118
 2082              		.loc 1 776 3 is_stmt 0 discriminator 2
 2083 001e 7B68     		ldr	r3, [r7, #4]
 2084 0020 03F0E063 		and	r3, r3, #117440512
 2085 0024 B3F1807F 		cmp	r3, #16777216
 2086 0028 0BD0     		beq	.L119
 2087              		.loc 1 776 3 discriminator 3
ARM GAS  /tmp/ccRD6zT9.s 			page 51


 2088 002a 7B68     		ldr	r3, [r7, #4]
 2089 002c 03F0E063 		and	r3, r3, #117440512
 2090 0030 B3F1007F 		cmp	r3, #33554432
 2091 0034 05D0     		beq	.L119
 2092              		.loc 1 776 3 discriminator 5
 2093 0036 7B68     		ldr	r3, [r7, #4]
 2094 0038 03F0E063 		and	r3, r3, #117440512
 2095 003c B3F1C06F 		cmp	r3, #100663296
 2096 0040 0BD1     		bne	.L118
 2097              	.L119:
 2098              		.loc 1 776 3 discriminator 8
 2099 0042 7A68     		ldr	r2, [r7, #4]
 2100 0044 274B     		ldr	r3, .L125+4
 2101 0046 1340     		ands	r3, r3, r2
 2102 0048 274A     		ldr	r2, .L125+8
 2103 004a 9342     		cmp	r3, r2
 2104 004c 0AD9     		bls	.L120
 2105              		.loc 1 776 3 discriminator 9
 2106 004e 7A68     		ldr	r2, [r7, #4]
 2107 0050 244B     		ldr	r3, .L125+4
 2108 0052 1340     		ands	r3, r3, r2
 2109 0054 244A     		ldr	r2, .L125+8
 2110 0056 9342     		cmp	r3, r2
 2111 0058 04D0     		beq	.L120
 2112              	.L118:
 2113              		.loc 1 776 3 discriminator 10
 2114 005a 4FF44271 		mov	r1, #776
 2115 005e 2348     		ldr	r0, .L125+12
 2116 0060 FFF7FEFF 		bl	assert_failed
 2117              	.L120:
 777:STM32Cube_FW_N6/Drivers/STM32N6xx_HAL_Driver/Src/stm32n6xx_hal_exti.c **** 
 778:STM32Cube_FW_N6/Drivers/STM32N6xx_HAL_Driver/Src/stm32n6xx_hal_exti.c ****   /* Compute line register offset and line mask */
 779:STM32Cube_FW_N6/Drivers/STM32N6xx_HAL_Driver/Src/stm32n6xx_hal_exti.c ****   offset = ((ExtiLine & EXTI_REG_MASK) >> EXTI_REG_SHIFT);
 2118              		.loc 1 779 40 is_stmt 1
 2119 0064 7B68     		ldr	r3, [r7, #4]
 2120 0066 1B0C     		lsrs	r3, r3, #16
 2121              		.loc 1 779 10
 2122 0068 03F00303 		and	r3, r3, #3
 2123 006c BB61     		str	r3, [r7, #24]
 780:STM32Cube_FW_N6/Drivers/STM32N6xx_HAL_Driver/Src/stm32n6xx_hal_exti.c ****   linepos = (ExtiLine & EXTI_PIN_MASK);
 2124              		.loc 1 780 11
 2125 006e 7B68     		ldr	r3, [r7, #4]
 2126 0070 03F01F03 		and	r3, r3, #31
 2127 0074 7B61     		str	r3, [r7, #20]
 781:STM32Cube_FW_N6/Drivers/STM32N6xx_HAL_Driver/Src/stm32n6xx_hal_exti.c ****   maskline = (1UL << linepos);
 2128              		.loc 1 781 12
 2129 0076 0122     		movs	r2, #1
 2130 0078 7B69     		ldr	r3, [r7, #20]
 2131 007a 02FA03F3 		lsl	r3, r2, r3
 2132 007e 3B61     		str	r3, [r7, #16]
 782:STM32Cube_FW_N6/Drivers/STM32N6xx_HAL_Driver/Src/stm32n6xx_hal_exti.c **** 
 783:STM32Cube_FW_N6/Drivers/STM32N6xx_HAL_Driver/Src/stm32n6xx_hal_exti.c ****   /* Get privilege or non-privilege attribute */
 784:STM32Cube_FW_N6/Drivers/STM32N6xx_HAL_Driver/Src/stm32n6xx_hal_exti.c ****   regaddr = (__IO uint32_t *)(&EXTI->PRIVCFGR1 + (EXTI_PRIVCFGR_OFFSET * offset));
 2133              		.loc 1 784 13
 2134 0080 BB69     		ldr	r3, [r7, #24]
 2135 0082 5A01     		lsls	r2, r3, #5
 2136              		.loc 1 784 11
ARM GAS  /tmp/ccRD6zT9.s 			page 52


 2137 0084 1A4B     		ldr	r3, .L125+16
 2138 0086 1344     		add	r3, r3, r2
 2139 0088 FB60     		str	r3, [r7, #12]
 785:STM32Cube_FW_N6/Drivers/STM32N6xx_HAL_Driver/Src/stm32n6xx_hal_exti.c **** 
 786:STM32Cube_FW_N6/Drivers/STM32N6xx_HAL_Driver/Src/stm32n6xx_hal_exti.c ****   if ((*regaddr & maskline) != 0U)
 2140              		.loc 1 786 8
 2141 008a FB68     		ldr	r3, [r7, #12]
 2142 008c 1A68     		ldr	r2, [r3]
 2143              		.loc 1 786 17
 2144 008e 3B69     		ldr	r3, [r7, #16]
 2145 0090 1340     		ands	r3, r3, r2
 2146              		.loc 1 786 6
 2147 0092 002B     		cmp	r3, #0
 2148 0094 03D0     		beq	.L121
 787:STM32Cube_FW_N6/Drivers/STM32N6xx_HAL_Driver/Src/stm32n6xx_hal_exti.c ****   {
 788:STM32Cube_FW_N6/Drivers/STM32N6xx_HAL_Driver/Src/stm32n6xx_hal_exti.c ****     attributes = EXTI_LINE_PRIV;
 2149              		.loc 1 788 16
 2150 0096 40F20223 		movw	r3, #514
 2151 009a FB61     		str	r3, [r7, #28]
 2152 009c 02E0     		b	.L122
 2153              	.L121:
 789:STM32Cube_FW_N6/Drivers/STM32N6xx_HAL_Driver/Src/stm32n6xx_hal_exti.c ****   }
 790:STM32Cube_FW_N6/Drivers/STM32N6xx_HAL_Driver/Src/stm32n6xx_hal_exti.c ****   else
 791:STM32Cube_FW_N6/Drivers/STM32N6xx_HAL_Driver/Src/stm32n6xx_hal_exti.c ****   {
 792:STM32Cube_FW_N6/Drivers/STM32N6xx_HAL_Driver/Src/stm32n6xx_hal_exti.c ****     attributes = EXTI_LINE_NPRIV;
 2154              		.loc 1 792 16
 2155 009e 4FF40073 		mov	r3, #512
 2156 00a2 FB61     		str	r3, [r7, #28]
 2157              	.L122:
 793:STM32Cube_FW_N6/Drivers/STM32N6xx_HAL_Driver/Src/stm32n6xx_hal_exti.c ****   }
 794:STM32Cube_FW_N6/Drivers/STM32N6xx_HAL_Driver/Src/stm32n6xx_hal_exti.c **** 
 795:STM32Cube_FW_N6/Drivers/STM32N6xx_HAL_Driver/Src/stm32n6xx_hal_exti.c ****   /* Get secure or non-secure attribute */
 796:STM32Cube_FW_N6/Drivers/STM32N6xx_HAL_Driver/Src/stm32n6xx_hal_exti.c ****   regaddr = (__IO uint32_t *)(&EXTI->SECCFGR1 + (EXTI_SECCFGR_OFFSET * offset));
 2158              		.loc 1 796 13
 2159 00a4 BB69     		ldr	r3, [r7, #24]
 2160 00a6 5A01     		lsls	r2, r3, #5
 2161              		.loc 1 796 11
 2162 00a8 124B     		ldr	r3, .L125+20
 2163 00aa 1344     		add	r3, r3, r2
 2164 00ac FB60     		str	r3, [r7, #12]
 797:STM32Cube_FW_N6/Drivers/STM32N6xx_HAL_Driver/Src/stm32n6xx_hal_exti.c **** 
 798:STM32Cube_FW_N6/Drivers/STM32N6xx_HAL_Driver/Src/stm32n6xx_hal_exti.c ****   if ((*regaddr & maskline) != 0U)
 2165              		.loc 1 798 8
 2166 00ae FB68     		ldr	r3, [r7, #12]
 2167 00b0 1A68     		ldr	r2, [r3]
 2168              		.loc 1 798 17
 2169 00b2 3B69     		ldr	r3, [r7, #16]
 2170 00b4 1340     		ands	r3, r3, r2
 2171              		.loc 1 798 6
 2172 00b6 002B     		cmp	r3, #0
 2173 00b8 06D0     		beq	.L123
 799:STM32Cube_FW_N6/Drivers/STM32N6xx_HAL_Driver/Src/stm32n6xx_hal_exti.c ****   {
 800:STM32Cube_FW_N6/Drivers/STM32N6xx_HAL_Driver/Src/stm32n6xx_hal_exti.c ****     attributes |= EXTI_LINE_SEC;
 2174              		.loc 1 800 16
 2175 00ba FB69     		ldr	r3, [r7, #28]
 2176 00bc 43F48073 		orr	r3, r3, #256
 2177 00c0 43F00103 		orr	r3, r3, #1
ARM GAS  /tmp/ccRD6zT9.s 			page 53


 2178 00c4 FB61     		str	r3, [r7, #28]
 2179 00c6 03E0     		b	.L124
 2180              	.L123:
 801:STM32Cube_FW_N6/Drivers/STM32N6xx_HAL_Driver/Src/stm32n6xx_hal_exti.c ****   }
 802:STM32Cube_FW_N6/Drivers/STM32N6xx_HAL_Driver/Src/stm32n6xx_hal_exti.c ****   else
 803:STM32Cube_FW_N6/Drivers/STM32N6xx_HAL_Driver/Src/stm32n6xx_hal_exti.c ****   {
 804:STM32Cube_FW_N6/Drivers/STM32N6xx_HAL_Driver/Src/stm32n6xx_hal_exti.c ****     attributes |= EXTI_LINE_NSEC;
 2181              		.loc 1 804 16
 2182 00c8 FB69     		ldr	r3, [r7, #28]
 2183 00ca 43F48073 		orr	r3, r3, #256
 2184 00ce FB61     		str	r3, [r7, #28]
 2185              	.L124:
 805:STM32Cube_FW_N6/Drivers/STM32N6xx_HAL_Driver/Src/stm32n6xx_hal_exti.c ****   }
 806:STM32Cube_FW_N6/Drivers/STM32N6xx_HAL_Driver/Src/stm32n6xx_hal_exti.c **** 
 807:STM32Cube_FW_N6/Drivers/STM32N6xx_HAL_Driver/Src/stm32n6xx_hal_exti.c ****   /* return value */
 808:STM32Cube_FW_N6/Drivers/STM32N6xx_HAL_Driver/Src/stm32n6xx_hal_exti.c ****   *pLineAttributes = attributes;
 2186              		.loc 1 808 20
 2187 00d0 3B68     		ldr	r3, [r7]
 2188 00d2 FA69     		ldr	r2, [r7, #28]
 2189 00d4 1A60     		str	r2, [r3]
 809:STM32Cube_FW_N6/Drivers/STM32N6xx_HAL_Driver/Src/stm32n6xx_hal_exti.c **** 
 810:STM32Cube_FW_N6/Drivers/STM32N6xx_HAL_Driver/Src/stm32n6xx_hal_exti.c ****   return HAL_OK;
 2190              		.loc 1 810 10
 2191 00d6 0023     		movs	r3, #0
 2192              	.L117:
 811:STM32Cube_FW_N6/Drivers/STM32N6xx_HAL_Driver/Src/stm32n6xx_hal_exti.c **** }
 2193              		.loc 1 811 1
 2194 00d8 1846     		mov	r0, r3
 2195 00da 2037     		adds	r7, r7, #32
 2196              		.cfi_def_cfa_offset 8
 2197 00dc BD46     		mov	sp, r7
 2198              		.cfi_def_cfa_register 13
 2199              		@ sp needed
 2200 00de 80BD     		pop	{r7, pc}
 2201              	.L126:
 2202              		.align	2
 2203              	.L125:
 2204 00e0 E0FFFCE8 		.word	-386072608
 2205 00e4 1F000300 		.word	196639
 2206 00e8 0D000200 		.word	131085
 2207 00ec 00000000 		.word	.LC0
 2208 00f0 18500256 		.word	1442992152
 2209 00f4 14500256 		.word	1442992148
 2210              		.cfi_endproc
 2211              	.LFE845:
 2213              		.section	.text.HAL_EXTI_LockAttributes,"ax",%progbits
 2214              		.align	1
 2215              		.global	HAL_EXTI_LockAttributes
 2216              		.syntax unified
 2217              		.thumb
 2218              		.thumb_func
 2220              	HAL_EXTI_LockAttributes:
 2221              	.LFB846:
 812:STM32Cube_FW_N6/Drivers/STM32N6xx_HAL_Driver/Src/stm32n6xx_hal_exti.c **** 
 813:STM32Cube_FW_N6/Drivers/STM32N6xx_HAL_Driver/Src/stm32n6xx_hal_exti.c **** #if defined(CPU_IN_SECURE_STATE)
 814:STM32Cube_FW_N6/Drivers/STM32N6xx_HAL_Driver/Src/stm32n6xx_hal_exti.c **** /**
 815:STM32Cube_FW_N6/Drivers/STM32N6xx_HAL_Driver/Src/stm32n6xx_hal_exti.c ****   * @brief  Lock the secure and privilege configuration registers.
ARM GAS  /tmp/ccRD6zT9.s 			page 54


 816:STM32Cube_FW_N6/Drivers/STM32N6xx_HAL_Driver/Src/stm32n6xx_hal_exti.c ****   * @retval None
 817:STM32Cube_FW_N6/Drivers/STM32N6xx_HAL_Driver/Src/stm32n6xx_hal_exti.c ****   */
 818:STM32Cube_FW_N6/Drivers/STM32N6xx_HAL_Driver/Src/stm32n6xx_hal_exti.c **** void HAL_EXTI_LockAttributes(void)
 819:STM32Cube_FW_N6/Drivers/STM32N6xx_HAL_Driver/Src/stm32n6xx_hal_exti.c **** {
 2222              		.loc 1 819 1
 2223              		.cfi_startproc
 2224              		@ args = 0, pretend = 0, frame = 0
 2225              		@ frame_needed = 1, uses_anonymous_args = 0
 2226              		@ link register save eliminated.
 2227 0000 80B4     		push	{r7}
 2228              		.cfi_def_cfa_offset 4
 2229              		.cfi_offset 7, -4
 2230 0002 00AF     		add	r7, sp, #0
 2231              		.cfi_def_cfa_register 7
 820:STM32Cube_FW_N6/Drivers/STM32N6xx_HAL_Driver/Src/stm32n6xx_hal_exti.c ****   SET_BIT(EXTI->LOCKR, EXTI_LOCKR_LOCK);
 2232              		.loc 1 820 3
 2233 0004 054B     		ldr	r3, .L128
 2234 0006 1B6F     		ldr	r3, [r3, #112]
 2235 0008 044A     		ldr	r2, .L128
 2236 000a 43F00103 		orr	r3, r3, #1
 2237 000e 1367     		str	r3, [r2, #112]
 821:STM32Cube_FW_N6/Drivers/STM32N6xx_HAL_Driver/Src/stm32n6xx_hal_exti.c **** }
 2238              		.loc 1 821 1
 2239 0010 00BF     		nop
 2240 0012 BD46     		mov	sp, r7
 2241              		.cfi_def_cfa_register 13
 2242              		@ sp needed
 2243 0014 5DF8047B 		ldr	r7, [sp], #4
 2244              		.cfi_restore 7
 2245              		.cfi_def_cfa_offset 0
 2246 0018 7047     		bx	lr
 2247              	.L129:
 2248 001a 00BF     		.align	2
 2249              	.L128:
 2250 001c 00500256 		.word	1442992128
 2251              		.cfi_endproc
 2252              	.LFE846:
 2254              		.section	.text.HAL_EXTI_GetLockAttributes,"ax",%progbits
 2255              		.align	1
 2256              		.global	HAL_EXTI_GetLockAttributes
 2257              		.syntax unified
 2258              		.thumb
 2259              		.thumb_func
 2261              	HAL_EXTI_GetLockAttributes:
 2262              	.LFB847:
 822:STM32Cube_FW_N6/Drivers/STM32N6xx_HAL_Driver/Src/stm32n6xx_hal_exti.c **** 
 823:STM32Cube_FW_N6/Drivers/STM32N6xx_HAL_Driver/Src/stm32n6xx_hal_exti.c **** /**
 824:STM32Cube_FW_N6/Drivers/STM32N6xx_HAL_Driver/Src/stm32n6xx_hal_exti.c ****   * @brief  Return the secure and privilege configuration registers LOCK status
 825:STM32Cube_FW_N6/Drivers/STM32N6xx_HAL_Driver/Src/stm32n6xx_hal_exti.c ****   * @retval 1 if the secure and privilege configuration registers have been locked else 0.
 826:STM32Cube_FW_N6/Drivers/STM32N6xx_HAL_Driver/Src/stm32n6xx_hal_exti.c ****   */
 827:STM32Cube_FW_N6/Drivers/STM32N6xx_HAL_Driver/Src/stm32n6xx_hal_exti.c **** uint32_t HAL_EXTI_GetLockAttributes(void)
 828:STM32Cube_FW_N6/Drivers/STM32N6xx_HAL_Driver/Src/stm32n6xx_hal_exti.c **** {
 2263              		.loc 1 828 1
 2264              		.cfi_startproc
 2265              		@ args = 0, pretend = 0, frame = 0
 2266              		@ frame_needed = 1, uses_anonymous_args = 0
 2267              		@ link register save eliminated.
ARM GAS  /tmp/ccRD6zT9.s 			page 55


 2268 0000 80B4     		push	{r7}
 2269              		.cfi_def_cfa_offset 4
 2270              		.cfi_offset 7, -4
 2271 0002 00AF     		add	r7, sp, #0
 2272              		.cfi_def_cfa_register 7
 829:STM32Cube_FW_N6/Drivers/STM32N6xx_HAL_Driver/Src/stm32n6xx_hal_exti.c ****   return READ_BIT(EXTI->LOCKR, EXTI_LOCKR_LOCK);
 2273              		.loc 1 829 10
 2274 0004 044B     		ldr	r3, .L132
 2275 0006 1B6F     		ldr	r3, [r3, #112]
 2276 0008 03F00103 		and	r3, r3, #1
 830:STM32Cube_FW_N6/Drivers/STM32N6xx_HAL_Driver/Src/stm32n6xx_hal_exti.c **** }
 2277              		.loc 1 830 1
 2278 000c 1846     		mov	r0, r3
 2279 000e BD46     		mov	sp, r7
 2280              		.cfi_def_cfa_register 13
 2281              		@ sp needed
 2282 0010 5DF8047B 		ldr	r7, [sp], #4
 2283              		.cfi_restore 7
 2284              		.cfi_def_cfa_offset 0
 2285 0014 7047     		bx	lr
 2286              	.L133:
 2287 0016 00BF     		.align	2
 2288              	.L132:
 2289 0018 00500256 		.word	1442992128
 2290              		.cfi_endproc
 2291              	.LFE847:
 2293              		.text
 2294              	.Letext0:
 2295              		.file 2 "/home/tanjiajun2002/renesas/rzv/e2studio_v2025-01_fsp_v3.1.0/toolchains/gcc_arm/arm-gnu-t
 2296              		.file 3 "/home/tanjiajun2002/renesas/rzv/e2studio_v2025-01_fsp_v3.1.0/toolchains/gcc_arm/arm-gnu-t
 2297              		.file 4 "STM32Cube_FW_N6/Drivers/CMSIS/Device/ST/STM32N6xx/Include/stm32n657xx.h"
 2298              		.file 5 "STM32Cube_FW_N6/Drivers/STM32N6xx_HAL_Driver/Inc/stm32n6xx_hal_def.h"
 2299              		.file 6 "STM32Cube_FW_N6/Drivers/STM32N6xx_HAL_Driver/Inc/stm32n6xx_hal_exti.h"
 2300              		.file 7 "Inc/stm32n6xx_hal_conf.h"
ARM GAS  /tmp/ccRD6zT9.s 			page 56

