ARM GAS  /tmp/ccJAVlht.s 			page 1


   1              		.arch armv8.1-m.main
   2              		.fpu fpv5-d16
   3              		.arch_extension dsp
   4              		.arch_extension fp
   5              		.arch_extension fp.dp
   6              		.arch_extension mve
   7              		.arch_extension mve.fp
   8              		.eabi_attribute 5, "cortex-m55"
   9              		.eabi_attribute 28, 1
  10              		.eabi_attribute 20, 1
  11              		.eabi_attribute 21, 1
  12              		.eabi_attribute 23, 3
  13              		.eabi_attribute 24, 1
  14              		.eabi_attribute 25, 1
  15              		.eabi_attribute 26, 1
  16              		.eabi_attribute 30, 6
  17              		.eabi_attribute 34, 1
  18              		.eabi_attribute 38, 1
  19              		.eabi_attribute 18, 4
  20              		.file	"stm32n6xx_hal_ramcfg.c"
  21              		.text
  22              	.Ltext0:
  23              		.cfi_sections	.debug_frame
  24              		.file 1 "STM32Cube_FW_N6/Drivers/STM32N6xx_HAL_Driver/Src/stm32n6xx_hal_ramcfg.c"
  25              		.section	.rodata
  26              		.align	2
  27              	.LC0:
  28 0000 53544D33 		.ascii	"STM32Cube_FW_N6/Drivers/STM32N6xx_HAL_Driver/Src/st"
  28      32437562 
  28      655F4657 
  28      5F4E362F 
  28      44726976 
  29 0033 6D33326E 		.ascii	"m32n6xx_hal_ramcfg.c\000"
  29      3678785F 
  29      68616C5F 
  29      72616D63 
  29      66672E63 
  30              		.section	.text.HAL_RAMCFG_Init,"ax",%progbits
  31              		.align	1
  32              		.global	HAL_RAMCFG_Init
  33              		.syntax unified
  34              		.thumb
  35              		.thumb_func
  37              	HAL_RAMCFG_Init:
  38              	.LFB835:
   1:STM32Cube_FW_N6/Drivers/STM32N6xx_HAL_Driver/Src/stm32n6xx_hal_ramcfg.c **** /**
   2:STM32Cube_FW_N6/Drivers/STM32N6xx_HAL_Driver/Src/stm32n6xx_hal_ramcfg.c ****   ******************************************************************************
   3:STM32Cube_FW_N6/Drivers/STM32N6xx_HAL_Driver/Src/stm32n6xx_hal_ramcfg.c ****   * @file    stm32n6xx_hal_ramcfg.c
   4:STM32Cube_FW_N6/Drivers/STM32N6xx_HAL_Driver/Src/stm32n6xx_hal_ramcfg.c ****   * @author  GPM Application Team
   5:STM32Cube_FW_N6/Drivers/STM32N6xx_HAL_Driver/Src/stm32n6xx_hal_ramcfg.c ****   * @brief   RAMCFG HAL module driver.
   6:STM32Cube_FW_N6/Drivers/STM32N6xx_HAL_Driver/Src/stm32n6xx_hal_ramcfg.c ****   *          This file provides firmware functions to manage the following
   7:STM32Cube_FW_N6/Drivers/STM32N6xx_HAL_Driver/Src/stm32n6xx_hal_ramcfg.c ****   *          functionalities of the RAMs configuration controller peripheral:
   8:STM32Cube_FW_N6/Drivers/STM32N6xx_HAL_Driver/Src/stm32n6xx_hal_ramcfg.c ****   *           + RAMCFG Initialization and De-initialization Functions.
   9:STM32Cube_FW_N6/Drivers/STM32N6xx_HAL_Driver/Src/stm32n6xx_hal_ramcfg.c ****   *           + RAMCFG ECC Operation Functions.
  10:STM32Cube_FW_N6/Drivers/STM32N6xx_HAL_Driver/Src/stm32n6xx_hal_ramcfg.c ****   *           + RAMCFG Erase Operation Functions.
  11:STM32Cube_FW_N6/Drivers/STM32N6xx_HAL_Driver/Src/stm32n6xx_hal_ramcfg.c ****   *           + RAMCFG Handle Interrupt and Callbacks Functions.
  12:STM32Cube_FW_N6/Drivers/STM32N6xx_HAL_Driver/Src/stm32n6xx_hal_ramcfg.c ****   *           + RAMCFG State and Error Functions.
ARM GAS  /tmp/ccJAVlht.s 			page 2


  13:STM32Cube_FW_N6/Drivers/STM32N6xx_HAL_Driver/Src/stm32n6xx_hal_ramcfg.c ****   ******************************************************************************
  14:STM32Cube_FW_N6/Drivers/STM32N6xx_HAL_Driver/Src/stm32n6xx_hal_ramcfg.c ****   * @attention
  15:STM32Cube_FW_N6/Drivers/STM32N6xx_HAL_Driver/Src/stm32n6xx_hal_ramcfg.c ****   *
  16:STM32Cube_FW_N6/Drivers/STM32N6xx_HAL_Driver/Src/stm32n6xx_hal_ramcfg.c ****   * Copyright (c) 2023 STMicroelectronics.
  17:STM32Cube_FW_N6/Drivers/STM32N6xx_HAL_Driver/Src/stm32n6xx_hal_ramcfg.c ****   * All rights reserved.
  18:STM32Cube_FW_N6/Drivers/STM32N6xx_HAL_Driver/Src/stm32n6xx_hal_ramcfg.c ****   *
  19:STM32Cube_FW_N6/Drivers/STM32N6xx_HAL_Driver/Src/stm32n6xx_hal_ramcfg.c ****   * This software is licensed under terms that can be found in the LICENSE file
  20:STM32Cube_FW_N6/Drivers/STM32N6xx_HAL_Driver/Src/stm32n6xx_hal_ramcfg.c ****   * in the root directory of this software component.
  21:STM32Cube_FW_N6/Drivers/STM32N6xx_HAL_Driver/Src/stm32n6xx_hal_ramcfg.c ****   * If no LICENSE file comes with this software, it is provided AS-IS.
  22:STM32Cube_FW_N6/Drivers/STM32N6xx_HAL_Driver/Src/stm32n6xx_hal_ramcfg.c ****   *
  23:STM32Cube_FW_N6/Drivers/STM32N6xx_HAL_Driver/Src/stm32n6xx_hal_ramcfg.c ****   ******************************************************************************
  24:STM32Cube_FW_N6/Drivers/STM32N6xx_HAL_Driver/Src/stm32n6xx_hal_ramcfg.c ****   @verbatim
  25:STM32Cube_FW_N6/Drivers/STM32N6xx_HAL_Driver/Src/stm32n6xx_hal_ramcfg.c ****   ==============================================================================
  26:STM32Cube_FW_N6/Drivers/STM32N6xx_HAL_Driver/Src/stm32n6xx_hal_ramcfg.c ****                     ##### RAMCFG Peripheral features #####
  27:STM32Cube_FW_N6/Drivers/STM32N6xx_HAL_Driver/Src/stm32n6xx_hal_ramcfg.c ****   ==============================================================================
  28:STM32Cube_FW_N6/Drivers/STM32N6xx_HAL_Driver/Src/stm32n6xx_hal_ramcfg.c ****   [..]
  29:STM32Cube_FW_N6/Drivers/STM32N6xx_HAL_Driver/Src/stm32n6xx_hal_ramcfg.c ****     (+) Each SRAM is managed by a RAMCFG instance (AHBSRAM1/2, AXISRAM1 to 6,
  30:STM32Cube_FW_N6/Drivers/STM32N6xx_HAL_Driver/Src/stm32n6xx_hal_ramcfg.c ****         BKPSRAM, FLEXRAM, and VENCRAM).
  31:STM32Cube_FW_N6/Drivers/STM32N6xx_HAL_Driver/Src/stm32n6xx_hal_ramcfg.c **** 
  32:STM32Cube_FW_N6/Drivers/STM32N6xx_HAL_Driver/Src/stm32n6xx_hal_ramcfg.c ****     (+) Each SRAM can be erased independently through its RAMCFG instance.
  33:STM32Cube_FW_N6/Drivers/STM32N6xx_HAL_Driver/Src/stm32n6xx_hal_ramcfg.c **** 
  34:STM32Cube_FW_N6/Drivers/STM32N6xx_HAL_Driver/Src/stm32n6xx_hal_ramcfg.c ****     (+) AXISRAM 1 to 6 are the main SRAMs. AHBSRAM1/2 are preferably for DMA-controlled
  35:STM32Cube_FW_N6/Drivers/STM32N6xx_HAL_Driver/Src/stm32n6xx_hal_ramcfg.c ****         peripheral-to-memory data flow.
  36:STM32Cube_FW_N6/Drivers/STM32N6xx_HAL_Driver/Src/stm32n6xx_hal_ramcfg.c ****         AXISRAM 2 to 6 can be shut down when the application is in Run mode.
  37:STM32Cube_FW_N6/Drivers/STM32N6xx_HAL_Driver/Src/stm32n6xx_hal_ramcfg.c **** 
  38:STM32Cube_FW_N6/Drivers/STM32N6xx_HAL_Driver/Src/stm32n6xx_hal_ramcfg.c ****     (+) FLEXMEM can be either allocated as Cortex-M55 TCM, or as system RAM
  39:STM32Cube_FW_N6/Drivers/STM32N6xx_HAL_Driver/Src/stm32n6xx_hal_ramcfg.c ****         (FLEXRAM).
  40:STM32Cube_FW_N6/Drivers/STM32N6xx_HAL_Driver/Src/stm32n6xx_hal_ramcfg.c ****         80 Kbytes of the FLEXMEM are retained in Standby mode, either allocated as
  41:STM32Cube_FW_N6/Drivers/STM32N6xx_HAL_Driver/Src/stm32n6xx_hal_ramcfg.c ****         extended ITCM (64 +16-Kbyte ECC), or allocated as FLEXRAM.
  42:STM32Cube_FW_N6/Drivers/STM32N6xx_HAL_Driver/Src/stm32n6xx_hal_ramcfg.c **** 
  43:STM32Cube_FW_N6/Drivers/STM32N6xx_HAL_Driver/Src/stm32n6xx_hal_ramcfg.c ****     (+) The BKPSRAM content is retained in low-power modes, even when VDD is off
  44:STM32Cube_FW_N6/Drivers/STM32N6xx_HAL_Driver/Src/stm32n6xx_hal_ramcfg.c ****         in VBAT mode. On a tamper event detection, the BKPSRAM content is erased.
  45:STM32Cube_FW_N6/Drivers/STM32N6xx_HAL_Driver/Src/stm32n6xx_hal_ramcfg.c **** 
  46:STM32Cube_FW_N6/Drivers/STM32N6xx_HAL_Driver/Src/stm32n6xx_hal_ramcfg.c ****     (+) The VENCRAM implements hardware and software erases.
  47:STM32Cube_FW_N6/Drivers/STM32N6xx_HAL_Driver/Src/stm32n6xx_hal_ramcfg.c **** 
  48:STM32Cube_FW_N6/Drivers/STM32N6xx_HAL_Driver/Src/stm32n6xx_hal_ramcfg.c ****     (+) FLEXRAM and BKPRAM support ECC correction feature:
  49:STM32Cube_FW_N6/Drivers/STM32N6xx_HAL_Driver/Src/stm32n6xx_hal_ramcfg.c ****              (++) Single error detection and correction with interrupt generation.
  50:STM32Cube_FW_N6/Drivers/STM32N6xx_HAL_Driver/Src/stm32n6xx_hal_ramcfg.c ****              (++) Double error detection with interrupt generation.
  51:STM32Cube_FW_N6/Drivers/STM32N6xx_HAL_Driver/Src/stm32n6xx_hal_ramcfg.c ****              (++) Status with failing address
  52:STM32Cube_FW_N6/Drivers/STM32N6xx_HAL_Driver/Src/stm32n6xx_hal_ramcfg.c ****   ==============================================================================
  53:STM32Cube_FW_N6/Drivers/STM32N6xx_HAL_Driver/Src/stm32n6xx_hal_ramcfg.c ****                         ##### How to use this driver #####
  54:STM32Cube_FW_N6/Drivers/STM32N6xx_HAL_Driver/Src/stm32n6xx_hal_ramcfg.c ****   ==============================================================================
  55:STM32Cube_FW_N6/Drivers/STM32N6xx_HAL_Driver/Src/stm32n6xx_hal_ramcfg.c ****   [..]
  56:STM32Cube_FW_N6/Drivers/STM32N6xx_HAL_Driver/Src/stm32n6xx_hal_ramcfg.c ****     (#) Call HAL_RAMCFG_Init() to initialize the RAMCFG peripheral before using
  57:STM32Cube_FW_N6/Drivers/STM32N6xx_HAL_Driver/Src/stm32n6xx_hal_ramcfg.c ****        any feature. Call HAL_RAMCFG_DeInit() to de-initialize the RAMCFG when
  58:STM32Cube_FW_N6/Drivers/STM32N6xx_HAL_Driver/Src/stm32n6xx_hal_ramcfg.c ****        using this peripheral is no more needed or a hardware issue has occurred.
  59:STM32Cube_FW_N6/Drivers/STM32N6xx_HAL_Driver/Src/stm32n6xx_hal_ramcfg.c ****           (+) HAL_RAMCFG_Init() and HAL_RAMCFG_DeInit() APIs do not change the
  60:STM32Cube_FW_N6/Drivers/STM32N6xx_HAL_Driver/Src/stm32n6xx_hal_ramcfg.c ****               activation status of ECC feature. It is managed by
  61:STM32Cube_FW_N6/Drivers/STM32N6xx_HAL_Driver/Src/stm32n6xx_hal_ramcfg.c ****               HAL_RAMCFG_StartECC(), HAL_RAMCFG_StopECC() or option bytes (When
  62:STM32Cube_FW_N6/Drivers/STM32N6xx_HAL_Driver/Src/stm32n6xx_hal_ramcfg.c ****               available on the device).
  63:STM32Cube_FW_N6/Drivers/STM32N6xx_HAL_Driver/Src/stm32n6xx_hal_ramcfg.c **** 
  64:STM32Cube_FW_N6/Drivers/STM32N6xx_HAL_Driver/Src/stm32n6xx_hal_ramcfg.c ****      *** ECC feature ***
  65:STM32Cube_FW_N6/Drivers/STM32N6xx_HAL_Driver/Src/stm32n6xx_hal_ramcfg.c ****      ===================
  66:STM32Cube_FW_N6/Drivers/STM32N6xx_HAL_Driver/Src/stm32n6xx_hal_ramcfg.c ****     [..]
  67:STM32Cube_FW_N6/Drivers/STM32N6xx_HAL_Driver/Src/stm32n6xx_hal_ramcfg.c ****           (+) Call HAL_RAMCFG_StartECC() and HAL_RAMCFG_StopECC() to enable and
  68:STM32Cube_FW_N6/Drivers/STM32N6xx_HAL_Driver/Src/stm32n6xx_hal_ramcfg.c ****               disable ECC hardware mechanism.
  69:STM32Cube_FW_N6/Drivers/STM32N6xx_HAL_Driver/Src/stm32n6xx_hal_ramcfg.c ****                     (++) When ECC feature is previously enabled (case of option
ARM GAS  /tmp/ccJAVlht.s 			page 3


  70:STM32Cube_FW_N6/Drivers/STM32N6xx_HAL_Driver/Src/stm32n6xx_hal_ramcfg.c ****                          byte activation), calling HAL_RAMCFG_StartECC() is
  71:STM32Cube_FW_N6/Drivers/STM32N6xx_HAL_Driver/Src/stm32n6xx_hal_ramcfg.c ****                          recommended to enable the ECC address latching feature.
  72:STM32Cube_FW_N6/Drivers/STM32N6xx_HAL_Driver/Src/stm32n6xx_hal_ramcfg.c **** 
  73:STM32Cube_FW_N6/Drivers/STM32N6xx_HAL_Driver/Src/stm32n6xx_hal_ramcfg.c ****           (+) Call HAL_RAMCFG_EnableNotification() and HAL_RAMCFG_DisableNotification()
  74:STM32Cube_FW_N6/Drivers/STM32N6xx_HAL_Driver/Src/stm32n6xx_hal_ramcfg.c ****               to enable and disable ECC interrupts. Interrupts can be:
  75:STM32Cube_FW_N6/Drivers/STM32N6xx_HAL_Driver/Src/stm32n6xx_hal_ramcfg.c ****                     (++) Single error interrupt.
  76:STM32Cube_FW_N6/Drivers/STM32N6xx_HAL_Driver/Src/stm32n6xx_hal_ramcfg.c ****                     (++) Double error interrupt.
  77:STM32Cube_FW_N6/Drivers/STM32N6xx_HAL_Driver/Src/stm32n6xx_hal_ramcfg.c ****                     (++) Double error interrupt redirected to Non maskable
  78:STM32Cube_FW_N6/Drivers/STM32N6xx_HAL_Driver/Src/stm32n6xx_hal_ramcfg.c ****                           interrupt (NMI).
  79:STM32Cube_FW_N6/Drivers/STM32N6xx_HAL_Driver/Src/stm32n6xx_hal_ramcfg.c **** 
  80:STM32Cube_FW_N6/Drivers/STM32N6xx_HAL_Driver/Src/stm32n6xx_hal_ramcfg.c ****           (+) Call HAL_RAMCFG_GetSingleErrorAddress() to get the address of the
  81:STM32Cube_FW_N6/Drivers/STM32N6xx_HAL_Driver/Src/stm32n6xx_hal_ramcfg.c ****               last fail RAM word detected (only for single error) and
  82:STM32Cube_FW_N6/Drivers/STM32N6xx_HAL_Driver/Src/stm32n6xx_hal_ramcfg.c ****               call HAL_RAMCFG_GetDoubleErrorAddress() to get the address of the
  83:STM32Cube_FW_N6/Drivers/STM32N6xx_HAL_Driver/Src/stm32n6xx_hal_ramcfg.c ****               last fail RAM word detected (only for double error).
  84:STM32Cube_FW_N6/Drivers/STM32N6xx_HAL_Driver/Src/stm32n6xx_hal_ramcfg.c **** 
  85:STM32Cube_FW_N6/Drivers/STM32N6xx_HAL_Driver/Src/stm32n6xx_hal_ramcfg.c ****           (+) Call HAL_RAMCFG_IsECCSingleErrorDetected() to check if an ECC single
  86:STM32Cube_FW_N6/Drivers/STM32N6xx_HAL_Driver/Src/stm32n6xx_hal_ramcfg.c ****               error was detected.
  87:STM32Cube_FW_N6/Drivers/STM32N6xx_HAL_Driver/Src/stm32n6xx_hal_ramcfg.c ****               Call HAL_RAMCFG_IsECCDoubleErrorDetected() to check if an ECC double
  88:STM32Cube_FW_N6/Drivers/STM32N6xx_HAL_Driver/Src/stm32n6xx_hal_ramcfg.c ****               error was detected.
  89:STM32Cube_FW_N6/Drivers/STM32N6xx_HAL_Driver/Src/stm32n6xx_hal_ramcfg.c ****               These APIs are used in silent mode (No ECC interrupt
  90:STM32Cube_FW_N6/Drivers/STM32N6xx_HAL_Driver/Src/stm32n6xx_hal_ramcfg.c ****               is enabled).
  91:STM32Cube_FW_N6/Drivers/STM32N6xx_HAL_Driver/Src/stm32n6xx_hal_ramcfg.c **** 
  92:STM32Cube_FW_N6/Drivers/STM32N6xx_HAL_Driver/Src/stm32n6xx_hal_ramcfg.c ****      *** Erase feature ***
  93:STM32Cube_FW_N6/Drivers/STM32N6xx_HAL_Driver/Src/stm32n6xx_hal_ramcfg.c ****      =====================
  94:STM32Cube_FW_N6/Drivers/STM32N6xx_HAL_Driver/Src/stm32n6xx_hal_ramcfg.c ****     [..]
  95:STM32Cube_FW_N6/Drivers/STM32N6xx_HAL_Driver/Src/stm32n6xx_hal_ramcfg.c ****           (+) Call HAL_RAMCFG_Erase() to launch a hardware erase for the given
  96:STM32Cube_FW_N6/Drivers/STM32N6xx_HAL_Driver/Src/stm32n6xx_hal_ramcfg.c ****               SRAM.
  97:STM32Cube_FW_N6/Drivers/STM32N6xx_HAL_Driver/Src/stm32n6xx_hal_ramcfg.c **** 
  98:STM32Cube_FW_N6/Drivers/STM32N6xx_HAL_Driver/Src/stm32n6xx_hal_ramcfg.c ****           (+) The erase value is equal to 0 when launching erase hardware through
  99:STM32Cube_FW_N6/Drivers/STM32N6xx_HAL_Driver/Src/stm32n6xx_hal_ramcfg.c ****               RAMCFG.
 100:STM32Cube_FW_N6/Drivers/STM32N6xx_HAL_Driver/Src/stm32n6xx_hal_ramcfg.c **** 
 101:STM32Cube_FW_N6/Drivers/STM32N6xx_HAL_Driver/Src/stm32n6xx_hal_ramcfg.c ****           (+) SRAM2 write protected pages are erased when performing an erase
 102:STM32Cube_FW_N6/Drivers/STM32N6xx_HAL_Driver/Src/stm32n6xx_hal_ramcfg.c ****               through RAMCFG.
 103:STM32Cube_FW_N6/Drivers/STM32N6xx_HAL_Driver/Src/stm32n6xx_hal_ramcfg.c **** 
 104:STM32Cube_FW_N6/Drivers/STM32N6xx_HAL_Driver/Src/stm32n6xx_hal_ramcfg.c ****      *** RAMCFG HAL driver macros list ***
 105:STM32Cube_FW_N6/Drivers/STM32N6xx_HAL_Driver/Src/stm32n6xx_hal_ramcfg.c ****      =====================================
 106:STM32Cube_FW_N6/Drivers/STM32N6xx_HAL_Driver/Src/stm32n6xx_hal_ramcfg.c ****      [..]
 107:STM32Cube_FW_N6/Drivers/STM32N6xx_HAL_Driver/Src/stm32n6xx_hal_ramcfg.c ****        Below the list of used macros in RAMCFG HAL driver.
 108:STM32Cube_FW_N6/Drivers/STM32N6xx_HAL_Driver/Src/stm32n6xx_hal_ramcfg.c **** 
 109:STM32Cube_FW_N6/Drivers/STM32N6xx_HAL_Driver/Src/stm32n6xx_hal_ramcfg.c ****       (+) __HAL_RAMCFG_ENABLE_IT     : Enable the specified RAMCFG interrupts.
 110:STM32Cube_FW_N6/Drivers/STM32N6xx_HAL_Driver/Src/stm32n6xx_hal_ramcfg.c ****       (+) __HAL_RAMCFG_DISABLE_IT    : Disable the specified RAMCFG interrupts.
 111:STM32Cube_FW_N6/Drivers/STM32N6xx_HAL_Driver/Src/stm32n6xx_hal_ramcfg.c ****       (+) __HAL_RAMCFG_GET_FLAG      : Get the RAMCFG pending flags.
 112:STM32Cube_FW_N6/Drivers/STM32N6xx_HAL_Driver/Src/stm32n6xx_hal_ramcfg.c ****       (+) __HAL_RAMCFG_CLEAR_FLAG    : Clear the RAMCFG pending flags.
 113:STM32Cube_FW_N6/Drivers/STM32N6xx_HAL_Driver/Src/stm32n6xx_hal_ramcfg.c ****       (+) __HAL_RAMCFG_GET_IT_SOURCE : Check whether the specified RAMCFG
 114:STM32Cube_FW_N6/Drivers/STM32N6xx_HAL_Driver/Src/stm32n6xx_hal_ramcfg.c ****                                        interrupt source is enabled or not.
 115:STM32Cube_FW_N6/Drivers/STM32N6xx_HAL_Driver/Src/stm32n6xx_hal_ramcfg.c ****   @endverbatim
 116:STM32Cube_FW_N6/Drivers/STM32N6xx_HAL_Driver/Src/stm32n6xx_hal_ramcfg.c ****   */
 117:STM32Cube_FW_N6/Drivers/STM32N6xx_HAL_Driver/Src/stm32n6xx_hal_ramcfg.c **** 
 118:STM32Cube_FW_N6/Drivers/STM32N6xx_HAL_Driver/Src/stm32n6xx_hal_ramcfg.c **** /* Includes ------------------------------------------------------------------*/
 119:STM32Cube_FW_N6/Drivers/STM32N6xx_HAL_Driver/Src/stm32n6xx_hal_ramcfg.c **** #include "stm32n6xx_hal.h"
 120:STM32Cube_FW_N6/Drivers/STM32N6xx_HAL_Driver/Src/stm32n6xx_hal_ramcfg.c **** 
 121:STM32Cube_FW_N6/Drivers/STM32N6xx_HAL_Driver/Src/stm32n6xx_hal_ramcfg.c **** /** @addtogroup STM32N6xx_HAL_Driver
 122:STM32Cube_FW_N6/Drivers/STM32N6xx_HAL_Driver/Src/stm32n6xx_hal_ramcfg.c ****   * @{
 123:STM32Cube_FW_N6/Drivers/STM32N6xx_HAL_Driver/Src/stm32n6xx_hal_ramcfg.c ****   */
 124:STM32Cube_FW_N6/Drivers/STM32N6xx_HAL_Driver/Src/stm32n6xx_hal_ramcfg.c **** 
 125:STM32Cube_FW_N6/Drivers/STM32N6xx_HAL_Driver/Src/stm32n6xx_hal_ramcfg.c **** /** @defgroup RAMCFG RAMCFG
 126:STM32Cube_FW_N6/Drivers/STM32N6xx_HAL_Driver/Src/stm32n6xx_hal_ramcfg.c ****   * @brief RAMCFG HAL module driver
ARM GAS  /tmp/ccJAVlht.s 			page 4


 127:STM32Cube_FW_N6/Drivers/STM32N6xx_HAL_Driver/Src/stm32n6xx_hal_ramcfg.c ****   * @{
 128:STM32Cube_FW_N6/Drivers/STM32N6xx_HAL_Driver/Src/stm32n6xx_hal_ramcfg.c ****   */
 129:STM32Cube_FW_N6/Drivers/STM32N6xx_HAL_Driver/Src/stm32n6xx_hal_ramcfg.c **** 
 130:STM32Cube_FW_N6/Drivers/STM32N6xx_HAL_Driver/Src/stm32n6xx_hal_ramcfg.c **** #ifdef HAL_RAMCFG_MODULE_ENABLED
 131:STM32Cube_FW_N6/Drivers/STM32N6xx_HAL_Driver/Src/stm32n6xx_hal_ramcfg.c **** 
 132:STM32Cube_FW_N6/Drivers/STM32N6xx_HAL_Driver/Src/stm32n6xx_hal_ramcfg.c **** /* Private types -------------------------------------------------------------*/
 133:STM32Cube_FW_N6/Drivers/STM32N6xx_HAL_Driver/Src/stm32n6xx_hal_ramcfg.c **** /* Private variables ---------------------------------------------------------*/
 134:STM32Cube_FW_N6/Drivers/STM32N6xx_HAL_Driver/Src/stm32n6xx_hal_ramcfg.c **** /* Private constants ---------------------------------------------------------*/
 135:STM32Cube_FW_N6/Drivers/STM32N6xx_HAL_Driver/Src/stm32n6xx_hal_ramcfg.c **** 
 136:STM32Cube_FW_N6/Drivers/STM32N6xx_HAL_Driver/Src/stm32n6xx_hal_ramcfg.c **** /** @addtogroup RAMCFG_Private_Constants
 137:STM32Cube_FW_N6/Drivers/STM32N6xx_HAL_Driver/Src/stm32n6xx_hal_ramcfg.c ****   * @{
 138:STM32Cube_FW_N6/Drivers/STM32N6xx_HAL_Driver/Src/stm32n6xx_hal_ramcfg.c ****   */
 139:STM32Cube_FW_N6/Drivers/STM32N6xx_HAL_Driver/Src/stm32n6xx_hal_ramcfg.c **** #define RAMCFG_TIMEOUT_VALUE 50000U
 140:STM32Cube_FW_N6/Drivers/STM32N6xx_HAL_Driver/Src/stm32n6xx_hal_ramcfg.c **** /**
 141:STM32Cube_FW_N6/Drivers/STM32N6xx_HAL_Driver/Src/stm32n6xx_hal_ramcfg.c ****   * @}
 142:STM32Cube_FW_N6/Drivers/STM32N6xx_HAL_Driver/Src/stm32n6xx_hal_ramcfg.c ****   */
 143:STM32Cube_FW_N6/Drivers/STM32N6xx_HAL_Driver/Src/stm32n6xx_hal_ramcfg.c **** 
 144:STM32Cube_FW_N6/Drivers/STM32N6xx_HAL_Driver/Src/stm32n6xx_hal_ramcfg.c **** /* Private macros ------------------------------------------------------------*/
 145:STM32Cube_FW_N6/Drivers/STM32N6xx_HAL_Driver/Src/stm32n6xx_hal_ramcfg.c **** /* Private functions ---------------------------------------------------------*/
 146:STM32Cube_FW_N6/Drivers/STM32N6xx_HAL_Driver/Src/stm32n6xx_hal_ramcfg.c **** /* Exported functions --------------------------------------------------------*/
 147:STM32Cube_FW_N6/Drivers/STM32N6xx_HAL_Driver/Src/stm32n6xx_hal_ramcfg.c **** 
 148:STM32Cube_FW_N6/Drivers/STM32N6xx_HAL_Driver/Src/stm32n6xx_hal_ramcfg.c **** /** @addtogroup RAMCFG_Exported_Functions
 149:STM32Cube_FW_N6/Drivers/STM32N6xx_HAL_Driver/Src/stm32n6xx_hal_ramcfg.c ****   * @{
 150:STM32Cube_FW_N6/Drivers/STM32N6xx_HAL_Driver/Src/stm32n6xx_hal_ramcfg.c ****   */
 151:STM32Cube_FW_N6/Drivers/STM32N6xx_HAL_Driver/Src/stm32n6xx_hal_ramcfg.c **** 
 152:STM32Cube_FW_N6/Drivers/STM32N6xx_HAL_Driver/Src/stm32n6xx_hal_ramcfg.c **** /** @addtogroup RAMCFG_Exported_Functions_Group1
 153:STM32Cube_FW_N6/Drivers/STM32N6xx_HAL_Driver/Src/stm32n6xx_hal_ramcfg.c ****   *
 154:STM32Cube_FW_N6/Drivers/STM32N6xx_HAL_Driver/Src/stm32n6xx_hal_ramcfg.c **** @verbatim
 155:STM32Cube_FW_N6/Drivers/STM32N6xx_HAL_Driver/Src/stm32n6xx_hal_ramcfg.c ****  ===============================================================================
 156:STM32Cube_FW_N6/Drivers/STM32N6xx_HAL_Driver/Src/stm32n6xx_hal_ramcfg.c ****              ##### Initialization and de-initialization Functions  #####
 157:STM32Cube_FW_N6/Drivers/STM32N6xx_HAL_Driver/Src/stm32n6xx_hal_ramcfg.c ****  ===============================================================================
 158:STM32Cube_FW_N6/Drivers/STM32N6xx_HAL_Driver/Src/stm32n6xx_hal_ramcfg.c ****     [..]
 159:STM32Cube_FW_N6/Drivers/STM32N6xx_HAL_Driver/Src/stm32n6xx_hal_ramcfg.c ****       This section provides functions allowing to initialize and de-initialize the
 160:STM32Cube_FW_N6/Drivers/STM32N6xx_HAL_Driver/Src/stm32n6xx_hal_ramcfg.c ****       RAMCFG instance.
 161:STM32Cube_FW_N6/Drivers/STM32N6xx_HAL_Driver/Src/stm32n6xx_hal_ramcfg.c ****     [..]
 162:STM32Cube_FW_N6/Drivers/STM32N6xx_HAL_Driver/Src/stm32n6xx_hal_ramcfg.c ****       The HAL_RAMCFG_Init() function follows the RAMCFG instance configuration
 163:STM32Cube_FW_N6/Drivers/STM32N6xx_HAL_Driver/Src/stm32n6xx_hal_ramcfg.c ****       procedures as described in the reference manual.
 164:STM32Cube_FW_N6/Drivers/STM32N6xx_HAL_Driver/Src/stm32n6xx_hal_ramcfg.c ****       The HAL_RAMCFG_DeInit() function allows to deinitialize the RAMCFG instance.
 165:STM32Cube_FW_N6/Drivers/STM32N6xx_HAL_Driver/Src/stm32n6xx_hal_ramcfg.c ****       HAL_RAMCFG_Init() and HAL_RAMCFG_DeInit() APIs do not change the activation
 166:STM32Cube_FW_N6/Drivers/STM32N6xx_HAL_Driver/Src/stm32n6xx_hal_ramcfg.c ****       status of ECC feature. It is managed by HAL_RAMCFG_StartECC(),
 167:STM32Cube_FW_N6/Drivers/STM32N6xx_HAL_Driver/Src/stm32n6xx_hal_ramcfg.c ****       HAL_RAMCFG_StopECC() or option bytes (When available on the device).
 168:STM32Cube_FW_N6/Drivers/STM32N6xx_HAL_Driver/Src/stm32n6xx_hal_ramcfg.c **** 
 169:STM32Cube_FW_N6/Drivers/STM32N6xx_HAL_Driver/Src/stm32n6xx_hal_ramcfg.c **** @endverbatim
 170:STM32Cube_FW_N6/Drivers/STM32N6xx_HAL_Driver/Src/stm32n6xx_hal_ramcfg.c ****   * @{
 171:STM32Cube_FW_N6/Drivers/STM32N6xx_HAL_Driver/Src/stm32n6xx_hal_ramcfg.c ****   */
 172:STM32Cube_FW_N6/Drivers/STM32N6xx_HAL_Driver/Src/stm32n6xx_hal_ramcfg.c **** 
 173:STM32Cube_FW_N6/Drivers/STM32N6xx_HAL_Driver/Src/stm32n6xx_hal_ramcfg.c **** /**
 174:STM32Cube_FW_N6/Drivers/STM32N6xx_HAL_Driver/Src/stm32n6xx_hal_ramcfg.c ****   * @brief  Initialize the RAMCFG by clearing flags and disabling interrupts.
 175:STM32Cube_FW_N6/Drivers/STM32N6xx_HAL_Driver/Src/stm32n6xx_hal_ramcfg.c ****   * @param  hramcfg : Pointer to a RAMCFG_HandleTypeDef structure that contains
 176:STM32Cube_FW_N6/Drivers/STM32N6xx_HAL_Driver/Src/stm32n6xx_hal_ramcfg.c ****   *                   the configuration information for the specified RAMCFG
 177:STM32Cube_FW_N6/Drivers/STM32N6xx_HAL_Driver/Src/stm32n6xx_hal_ramcfg.c ****   *                   instance.
 178:STM32Cube_FW_N6/Drivers/STM32N6xx_HAL_Driver/Src/stm32n6xx_hal_ramcfg.c ****   * @retval HAL status.
 179:STM32Cube_FW_N6/Drivers/STM32N6xx_HAL_Driver/Src/stm32n6xx_hal_ramcfg.c ****   */
 180:STM32Cube_FW_N6/Drivers/STM32N6xx_HAL_Driver/Src/stm32n6xx_hal_ramcfg.c **** HAL_StatusTypeDef HAL_RAMCFG_Init(RAMCFG_HandleTypeDef *hramcfg)
 181:STM32Cube_FW_N6/Drivers/STM32N6xx_HAL_Driver/Src/stm32n6xx_hal_ramcfg.c **** {
  39              		.loc 1 181 1
  40              		.cfi_startproc
ARM GAS  /tmp/ccJAVlht.s 			page 5


  41              		@ args = 0, pretend = 0, frame = 8
  42              		@ frame_needed = 1, uses_anonymous_args = 0
  43 0000 80B5     		push	{r7, lr}
  44              		.cfi_def_cfa_offset 8
  45              		.cfi_offset 7, -8
  46              		.cfi_offset 14, -4
  47 0002 82B0     		sub	sp, sp, #8
  48              		.cfi_def_cfa_offset 16
  49 0004 00AF     		add	r7, sp, #0
  50              		.cfi_def_cfa_register 7
  51 0006 7860     		str	r0, [r7, #4]
 182:STM32Cube_FW_N6/Drivers/STM32N6xx_HAL_Driver/Src/stm32n6xx_hal_ramcfg.c ****   /* Check the RAMCFG peripheral handle */
 183:STM32Cube_FW_N6/Drivers/STM32N6xx_HAL_Driver/Src/stm32n6xx_hal_ramcfg.c ****   if (hramcfg == NULL)
  52              		.loc 1 183 6
  53 0008 7B68     		ldr	r3, [r7, #4]
  54 000a 002B     		cmp	r3, #0
  55 000c 01D1     		bne	.L2
 184:STM32Cube_FW_N6/Drivers/STM32N6xx_HAL_Driver/Src/stm32n6xx_hal_ramcfg.c ****   {
 185:STM32Cube_FW_N6/Drivers/STM32N6xx_HAL_Driver/Src/stm32n6xx_hal_ramcfg.c ****     return HAL_ERROR;
  56              		.loc 1 185 12
  57 000e 0123     		movs	r3, #1
  58 0010 98E0     		b	.L3
  59              	.L2:
 186:STM32Cube_FW_N6/Drivers/STM32N6xx_HAL_Driver/Src/stm32n6xx_hal_ramcfg.c ****   }
 187:STM32Cube_FW_N6/Drivers/STM32N6xx_HAL_Driver/Src/stm32n6xx_hal_ramcfg.c **** 
 188:STM32Cube_FW_N6/Drivers/STM32N6xx_HAL_Driver/Src/stm32n6xx_hal_ramcfg.c ****   /* Check the parameters */
 189:STM32Cube_FW_N6/Drivers/STM32N6xx_HAL_Driver/Src/stm32n6xx_hal_ramcfg.c ****   assert_param(IS_RAMCFG_ALL_INSTANCE(hramcfg->Instance));
  60              		.loc 1 189 3
  61 0012 7B68     		ldr	r3, [r7, #4]
  62 0014 1B68     		ldr	r3, [r3]
  63 0016 4D4A     		ldr	r2, .L5
  64 0018 9342     		cmp	r3, r2
  65 001a 6CD0     		beq	.L4
  66              		.loc 1 189 3 is_stmt 0 discriminator 1
  67 001c 7B68     		ldr	r3, [r7, #4]
  68 001e 1B68     		ldr	r3, [r3]
  69 0020 4B4A     		ldr	r2, .L5+4
  70 0022 9342     		cmp	r3, r2
  71 0024 67D0     		beq	.L4
  72              		.loc 1 189 3 discriminator 2
  73 0026 7B68     		ldr	r3, [r7, #4]
  74 0028 1B68     		ldr	r3, [r3]
  75 002a 4A4A     		ldr	r2, .L5+8
  76 002c 9342     		cmp	r3, r2
  77 002e 62D0     		beq	.L4
  78              		.loc 1 189 3 discriminator 3
  79 0030 7B68     		ldr	r3, [r7, #4]
  80 0032 1B68     		ldr	r3, [r3]
  81 0034 484A     		ldr	r2, .L5+12
  82 0036 9342     		cmp	r3, r2
  83 0038 5DD0     		beq	.L4
  84              		.loc 1 189 3 discriminator 4
  85 003a 7B68     		ldr	r3, [r7, #4]
  86 003c 1B68     		ldr	r3, [r3]
  87 003e 474A     		ldr	r2, .L5+16
  88 0040 9342     		cmp	r3, r2
  89 0042 58D0     		beq	.L4
ARM GAS  /tmp/ccJAVlht.s 			page 6


  90              		.loc 1 189 3 discriminator 5
  91 0044 7B68     		ldr	r3, [r7, #4]
  92 0046 1B68     		ldr	r3, [r3]
  93 0048 454A     		ldr	r2, .L5+20
  94 004a 9342     		cmp	r3, r2
  95 004c 53D0     		beq	.L4
  96              		.loc 1 189 3 discriminator 6
  97 004e 7B68     		ldr	r3, [r7, #4]
  98 0050 1B68     		ldr	r3, [r3]
  99 0052 444A     		ldr	r2, .L5+24
 100 0054 9342     		cmp	r3, r2
 101 0056 4ED0     		beq	.L4
 102              		.loc 1 189 3 discriminator 7
 103 0058 7B68     		ldr	r3, [r7, #4]
 104 005a 1B68     		ldr	r3, [r3]
 105 005c 424A     		ldr	r2, .L5+28
 106 005e 9342     		cmp	r3, r2
 107 0060 49D0     		beq	.L4
 108              		.loc 1 189 3 discriminator 8
 109 0062 7B68     		ldr	r3, [r7, #4]
 110 0064 1B68     		ldr	r3, [r3]
 111 0066 414A     		ldr	r2, .L5+32
 112 0068 9342     		cmp	r3, r2
 113 006a 44D0     		beq	.L4
 114              		.loc 1 189 3 discriminator 9
 115 006c 7B68     		ldr	r3, [r7, #4]
 116 006e 1B68     		ldr	r3, [r3]
 117 0070 3F4A     		ldr	r2, .L5+36
 118 0072 9342     		cmp	r3, r2
 119 0074 3FD0     		beq	.L4
 120              		.loc 1 189 3 discriminator 10
 121 0076 7B68     		ldr	r3, [r7, #4]
 122 0078 1B68     		ldr	r3, [r3]
 123 007a 3E4A     		ldr	r2, .L5+40
 124 007c 9342     		cmp	r3, r2
 125 007e 3AD0     		beq	.L4
 126              		.loc 1 189 3 discriminator 11
 127 0080 7B68     		ldr	r3, [r7, #4]
 128 0082 1B68     		ldr	r3, [r3]
 129 0084 3C4A     		ldr	r2, .L5+44
 130 0086 9342     		cmp	r3, r2
 131 0088 35D0     		beq	.L4
 132              		.loc 1 189 3 discriminator 12
 133 008a 7B68     		ldr	r3, [r7, #4]
 134 008c 1B68     		ldr	r3, [r3]
 135 008e 3B4A     		ldr	r2, .L5+48
 136 0090 9342     		cmp	r3, r2
 137 0092 30D0     		beq	.L4
 138              		.loc 1 189 3 discriminator 13
 139 0094 7B68     		ldr	r3, [r7, #4]
 140 0096 1B68     		ldr	r3, [r3]
 141 0098 394A     		ldr	r2, .L5+52
 142 009a 9342     		cmp	r3, r2
 143 009c 2BD0     		beq	.L4
 144              		.loc 1 189 3 discriminator 14
 145 009e 7B68     		ldr	r3, [r7, #4]
 146 00a0 1B68     		ldr	r3, [r3]
ARM GAS  /tmp/ccJAVlht.s 			page 7


 147 00a2 384A     		ldr	r2, .L5+56
 148 00a4 9342     		cmp	r3, r2
 149 00a6 26D0     		beq	.L4
 150              		.loc 1 189 3 discriminator 15
 151 00a8 7B68     		ldr	r3, [r7, #4]
 152 00aa 1B68     		ldr	r3, [r3]
 153 00ac 364A     		ldr	r2, .L5+60
 154 00ae 9342     		cmp	r3, r2
 155 00b0 21D0     		beq	.L4
 156              		.loc 1 189 3 discriminator 16
 157 00b2 7B68     		ldr	r3, [r7, #4]
 158 00b4 1B68     		ldr	r3, [r3]
 159 00b6 354A     		ldr	r2, .L5+64
 160 00b8 9342     		cmp	r3, r2
 161 00ba 1CD0     		beq	.L4
 162              		.loc 1 189 3 discriminator 17
 163 00bc 7B68     		ldr	r3, [r7, #4]
 164 00be 1B68     		ldr	r3, [r3]
 165 00c0 334A     		ldr	r2, .L5+68
 166 00c2 9342     		cmp	r3, r2
 167 00c4 17D0     		beq	.L4
 168              		.loc 1 189 3 discriminator 18
 169 00c6 7B68     		ldr	r3, [r7, #4]
 170 00c8 1B68     		ldr	r3, [r3]
 171 00ca 324A     		ldr	r2, .L5+72
 172 00cc 9342     		cmp	r3, r2
 173 00ce 12D0     		beq	.L4
 174              		.loc 1 189 3 discriminator 19
 175 00d0 7B68     		ldr	r3, [r7, #4]
 176 00d2 1B68     		ldr	r3, [r3]
 177 00d4 304A     		ldr	r2, .L5+76
 178 00d6 9342     		cmp	r3, r2
 179 00d8 0DD0     		beq	.L4
 180              		.loc 1 189 3 discriminator 20
 181 00da 7B68     		ldr	r3, [r7, #4]
 182 00dc 1B68     		ldr	r3, [r3]
 183 00de 2F4A     		ldr	r2, .L5+80
 184 00e0 9342     		cmp	r3, r2
 185 00e2 08D0     		beq	.L4
 186              		.loc 1 189 3 discriminator 21
 187 00e4 7B68     		ldr	r3, [r7, #4]
 188 00e6 1B68     		ldr	r3, [r3]
 189 00e8 2C4A     		ldr	r2, .L5+80
 190 00ea 9342     		cmp	r3, r2
 191 00ec 03D0     		beq	.L4
 192              		.loc 1 189 3 discriminator 22
 193 00ee BD21     		movs	r1, #189
 194 00f0 2B48     		ldr	r0, .L5+84
 195 00f2 FFF7FEFF 		bl	assert_failed
 196              	.L4:
 190:STM32Cube_FW_N6/Drivers/STM32N6xx_HAL_Driver/Src/stm32n6xx_hal_ramcfg.c **** 
 191:STM32Cube_FW_N6/Drivers/STM32N6xx_HAL_Driver/Src/stm32n6xx_hal_ramcfg.c ****   /* Update RAMCFG peripheral state */
 192:STM32Cube_FW_N6/Drivers/STM32N6xx_HAL_Driver/Src/stm32n6xx_hal_ramcfg.c ****   hramcfg->State = HAL_RAMCFG_STATE_BUSY;
 197              		.loc 1 192 18 is_stmt 1
 198 00f6 7B68     		ldr	r3, [r7, #4]
 199 00f8 0222     		movs	r2, #2
 200 00fa 1A71     		strb	r2, [r3, #4]
ARM GAS  /tmp/ccJAVlht.s 			page 8


 193:STM32Cube_FW_N6/Drivers/STM32N6xx_HAL_Driver/Src/stm32n6xx_hal_ramcfg.c **** 
 194:STM32Cube_FW_N6/Drivers/STM32N6xx_HAL_Driver/Src/stm32n6xx_hal_ramcfg.c **** #if (USE_HAL_RAMCFG_REGISTER_CALLBACKS == 1)
 195:STM32Cube_FW_N6/Drivers/STM32N6xx_HAL_Driver/Src/stm32n6xx_hal_ramcfg.c ****   /* Check if a valid MSP API was registered */
 196:STM32Cube_FW_N6/Drivers/STM32N6xx_HAL_Driver/Src/stm32n6xx_hal_ramcfg.c ****   if (hramcfg->MspInitCallback == NULL)
 197:STM32Cube_FW_N6/Drivers/STM32N6xx_HAL_Driver/Src/stm32n6xx_hal_ramcfg.c ****   {
 198:STM32Cube_FW_N6/Drivers/STM32N6xx_HAL_Driver/Src/stm32n6xx_hal_ramcfg.c ****     /* Init the low level hardware */
 199:STM32Cube_FW_N6/Drivers/STM32N6xx_HAL_Driver/Src/stm32n6xx_hal_ramcfg.c ****     hramcfg->MspInitCallback = HAL_RAMCFG_MspInit;
 200:STM32Cube_FW_N6/Drivers/STM32N6xx_HAL_Driver/Src/stm32n6xx_hal_ramcfg.c ****   }
 201:STM32Cube_FW_N6/Drivers/STM32N6xx_HAL_Driver/Src/stm32n6xx_hal_ramcfg.c **** 
 202:STM32Cube_FW_N6/Drivers/STM32N6xx_HAL_Driver/Src/stm32n6xx_hal_ramcfg.c ****   /* Init the low level hardware */
 203:STM32Cube_FW_N6/Drivers/STM32N6xx_HAL_Driver/Src/stm32n6xx_hal_ramcfg.c ****   hramcfg->MspInitCallback(hramcfg);
 204:STM32Cube_FW_N6/Drivers/STM32N6xx_HAL_Driver/Src/stm32n6xx_hal_ramcfg.c **** #else
 205:STM32Cube_FW_N6/Drivers/STM32N6xx_HAL_Driver/Src/stm32n6xx_hal_ramcfg.c ****   HAL_RAMCFG_MspInit(hramcfg);
 201              		.loc 1 205 3
 202 00fc 7868     		ldr	r0, [r7, #4]
 203 00fe FFF7FEFF 		bl	HAL_RAMCFG_MspInit
 206:STM32Cube_FW_N6/Drivers/STM32N6xx_HAL_Driver/Src/stm32n6xx_hal_ramcfg.c **** #endif /* USE_HAL_RAMCFG_REGISTER_CALLBACKS */
 207:STM32Cube_FW_N6/Drivers/STM32N6xx_HAL_Driver/Src/stm32n6xx_hal_ramcfg.c **** 
 208:STM32Cube_FW_N6/Drivers/STM32N6xx_HAL_Driver/Src/stm32n6xx_hal_ramcfg.c ****   /* Disable the ECC Address latch */
 209:STM32Cube_FW_N6/Drivers/STM32N6xx_HAL_Driver/Src/stm32n6xx_hal_ramcfg.c ****   hramcfg->Instance->CR &= ~(RAMCFG_CR_ALE);
 204              		.loc 1 209 10
 205 0102 7B68     		ldr	r3, [r7, #4]
 206 0104 1B68     		ldr	r3, [r3]
 207              		.loc 1 209 20
 208 0106 1A68     		ldr	r2, [r3]
 209              		.loc 1 209 10
 210 0108 7B68     		ldr	r3, [r7, #4]
 211 010a 1B68     		ldr	r3, [r3]
 212              		.loc 1 209 25
 213 010c 22F01002 		bic	r2, r2, #16
 214 0110 1A60     		str	r2, [r3]
 210:STM32Cube_FW_N6/Drivers/STM32N6xx_HAL_Driver/Src/stm32n6xx_hal_ramcfg.c **** 
 211:STM32Cube_FW_N6/Drivers/STM32N6xx_HAL_Driver/Src/stm32n6xx_hal_ramcfg.c ****   /* Disable all RAMCFG interrupts */
 212:STM32Cube_FW_N6/Drivers/STM32N6xx_HAL_Driver/Src/stm32n6xx_hal_ramcfg.c ****   __HAL_RAMCFG_DISABLE_IT(hramcfg, RAMCFG_IT_ALL);
 215              		.loc 1 212 3
 216 0112 7B68     		ldr	r3, [r7, #4]
 217 0114 1B68     		ldr	r3, [r3]
 218 0116 5A68     		ldr	r2, [r3, #4]
 219 0118 7B68     		ldr	r3, [r7, #4]
 220 011a 1B68     		ldr	r3, [r3]
 221 011c 22F00302 		bic	r2, r2, #3
 222 0120 5A60     		str	r2, [r3, #4]
 213:STM32Cube_FW_N6/Drivers/STM32N6xx_HAL_Driver/Src/stm32n6xx_hal_ramcfg.c **** 
 214:STM32Cube_FW_N6/Drivers/STM32N6xx_HAL_Driver/Src/stm32n6xx_hal_ramcfg.c ****   /* Clear RAMCFG monitor flags */
 215:STM32Cube_FW_N6/Drivers/STM32N6xx_HAL_Driver/Src/stm32n6xx_hal_ramcfg.c ****   __HAL_RAMCFG_CLEAR_FLAG(hramcfg, RAMCFG_FLAGS_ALL);
 223              		.loc 1 215 3
 224 0122 7B68     		ldr	r3, [r7, #4]
 225 0124 1B68     		ldr	r3, [r3]
 226 0126 5B69     		ldr	r3, [r3, #20]
 227 0128 7A68     		ldr	r2, [r7, #4]
 228 012a 1268     		ldr	r2, [r2]
 229 012c 43F48173 		orr	r3, r3, #258
 230 0130 43F00103 		orr	r3, r3, #1
 231 0134 5361     		str	r3, [r2, #20]
 216:STM32Cube_FW_N6/Drivers/STM32N6xx_HAL_Driver/Src/stm32n6xx_hal_ramcfg.c **** 
 217:STM32Cube_FW_N6/Drivers/STM32N6xx_HAL_Driver/Src/stm32n6xx_hal_ramcfg.c ****   /* Initialize the RAMCFG error code */
 218:STM32Cube_FW_N6/Drivers/STM32N6xx_HAL_Driver/Src/stm32n6xx_hal_ramcfg.c ****   hramcfg->ErrorCode = HAL_RAMCFG_ERROR_NONE;
ARM GAS  /tmp/ccJAVlht.s 			page 9


 232              		.loc 1 218 22
 233 0136 7B68     		ldr	r3, [r7, #4]
 234 0138 0022     		movs	r2, #0
 235 013a 9A60     		str	r2, [r3, #8]
 219:STM32Cube_FW_N6/Drivers/STM32N6xx_HAL_Driver/Src/stm32n6xx_hal_ramcfg.c **** 
 220:STM32Cube_FW_N6/Drivers/STM32N6xx_HAL_Driver/Src/stm32n6xx_hal_ramcfg.c ****   /* Initialize the RAMCFG state */
 221:STM32Cube_FW_N6/Drivers/STM32N6xx_HAL_Driver/Src/stm32n6xx_hal_ramcfg.c ****   hramcfg->State = HAL_RAMCFG_STATE_READY;
 236              		.loc 1 221 18
 237 013c 7B68     		ldr	r3, [r7, #4]
 238 013e 0122     		movs	r2, #1
 239 0140 1A71     		strb	r2, [r3, #4]
 222:STM32Cube_FW_N6/Drivers/STM32N6xx_HAL_Driver/Src/stm32n6xx_hal_ramcfg.c **** 
 223:STM32Cube_FW_N6/Drivers/STM32N6xx_HAL_Driver/Src/stm32n6xx_hal_ramcfg.c ****   return HAL_OK;
 240              		.loc 1 223 10
 241 0142 0023     		movs	r3, #0
 242              	.L3:
 224:STM32Cube_FW_N6/Drivers/STM32N6xx_HAL_Driver/Src/stm32n6xx_hal_ramcfg.c **** }
 243              		.loc 1 224 1
 244 0144 1846     		mov	r0, r3
 245 0146 0837     		adds	r7, r7, #8
 246              		.cfi_def_cfa_offset 8
 247 0148 BD46     		mov	sp, r7
 248              		.cfi_def_cfa_register 13
 249              		@ sp needed
 250 014a 80BD     		pop	{r7, pc}
 251              	.L6:
 252              		.align	2
 253              	.L5:
 254 014c 00330252 		.word	1375875840
 255 0150 00330242 		.word	1107440384
 256 0154 80330252 		.word	1375875968
 257 0158 80330242 		.word	1107440512
 258 015c 00300252 		.word	1375875072
 259 0160 00300242 		.word	1107439616
 260 0164 80300252 		.word	1375875200
 261 0168 80300242 		.word	1107439744
 262 016c 00310252 		.word	1375875328
 263 0170 00310242 		.word	1107439872
 264 0174 80310252 		.word	1375875456
 265 0178 80310242 		.word	1107440000
 266 017c 00320252 		.word	1375875584
 267 0180 00320242 		.word	1107440128
 268 0184 80320252 		.word	1375875712
 269 0188 80320242 		.word	1107440256
 270 018c 80340252 		.word	1375876224
 271 0190 80340242 		.word	1107440768
 272 0194 00350252 		.word	1375876352
 273 0198 00350242 		.word	1107440896
 274 019c 00340242 		.word	1107440640
 275 01a0 00000000 		.word	.LC0
 276              		.cfi_endproc
 277              	.LFE835:
 279              		.section	.text.HAL_RAMCFG_DeInit,"ax",%progbits
 280              		.align	1
 281              		.global	HAL_RAMCFG_DeInit
 282              		.syntax unified
 283              		.thumb
ARM GAS  /tmp/ccJAVlht.s 			page 10


 284              		.thumb_func
 286              	HAL_RAMCFG_DeInit:
 287              	.LFB836:
 225:STM32Cube_FW_N6/Drivers/STM32N6xx_HAL_Driver/Src/stm32n6xx_hal_ramcfg.c **** 
 226:STM32Cube_FW_N6/Drivers/STM32N6xx_HAL_Driver/Src/stm32n6xx_hal_ramcfg.c **** /**
 227:STM32Cube_FW_N6/Drivers/STM32N6xx_HAL_Driver/Src/stm32n6xx_hal_ramcfg.c ****   * @brief  DeInitialize the RAMCFG peripheral.
 228:STM32Cube_FW_N6/Drivers/STM32N6xx_HAL_Driver/Src/stm32n6xx_hal_ramcfg.c ****   * @param  hramcfg : Pointer to a RAMCFG_HandleTypeDef structure that contains
 229:STM32Cube_FW_N6/Drivers/STM32N6xx_HAL_Driver/Src/stm32n6xx_hal_ramcfg.c ****   *                   the configuration information for the specified RAMCFG
 230:STM32Cube_FW_N6/Drivers/STM32N6xx_HAL_Driver/Src/stm32n6xx_hal_ramcfg.c ****   *                   instance.
 231:STM32Cube_FW_N6/Drivers/STM32N6xx_HAL_Driver/Src/stm32n6xx_hal_ramcfg.c ****   * @retval HAL status.
 232:STM32Cube_FW_N6/Drivers/STM32N6xx_HAL_Driver/Src/stm32n6xx_hal_ramcfg.c ****   */
 233:STM32Cube_FW_N6/Drivers/STM32N6xx_HAL_Driver/Src/stm32n6xx_hal_ramcfg.c **** HAL_StatusTypeDef HAL_RAMCFG_DeInit(RAMCFG_HandleTypeDef *hramcfg)
 234:STM32Cube_FW_N6/Drivers/STM32N6xx_HAL_Driver/Src/stm32n6xx_hal_ramcfg.c **** {
 288              		.loc 1 234 1
 289              		.cfi_startproc
 290              		@ args = 0, pretend = 0, frame = 8
 291              		@ frame_needed = 1, uses_anonymous_args = 0
 292 0000 80B5     		push	{r7, lr}
 293              		.cfi_def_cfa_offset 8
 294              		.cfi_offset 7, -8
 295              		.cfi_offset 14, -4
 296 0002 82B0     		sub	sp, sp, #8
 297              		.cfi_def_cfa_offset 16
 298 0004 00AF     		add	r7, sp, #0
 299              		.cfi_def_cfa_register 7
 300 0006 7860     		str	r0, [r7, #4]
 235:STM32Cube_FW_N6/Drivers/STM32N6xx_HAL_Driver/Src/stm32n6xx_hal_ramcfg.c ****   /* Check the RAMCFG peripheral handle */
 236:STM32Cube_FW_N6/Drivers/STM32N6xx_HAL_Driver/Src/stm32n6xx_hal_ramcfg.c ****   if (hramcfg == NULL)
 301              		.loc 1 236 6
 302 0008 7B68     		ldr	r3, [r7, #4]
 303 000a 002B     		cmp	r3, #0
 304 000c 01D1     		bne	.L8
 237:STM32Cube_FW_N6/Drivers/STM32N6xx_HAL_Driver/Src/stm32n6xx_hal_ramcfg.c ****   {
 238:STM32Cube_FW_N6/Drivers/STM32N6xx_HAL_Driver/Src/stm32n6xx_hal_ramcfg.c ****     return HAL_ERROR;
 305              		.loc 1 238 12
 306 000e 0123     		movs	r3, #1
 307 0010 95E0     		b	.L9
 308              	.L8:
 239:STM32Cube_FW_N6/Drivers/STM32N6xx_HAL_Driver/Src/stm32n6xx_hal_ramcfg.c ****   }
 240:STM32Cube_FW_N6/Drivers/STM32N6xx_HAL_Driver/Src/stm32n6xx_hal_ramcfg.c **** 
 241:STM32Cube_FW_N6/Drivers/STM32N6xx_HAL_Driver/Src/stm32n6xx_hal_ramcfg.c ****   /* Check the parameters */
 242:STM32Cube_FW_N6/Drivers/STM32N6xx_HAL_Driver/Src/stm32n6xx_hal_ramcfg.c ****   assert_param(IS_RAMCFG_ALL_INSTANCE(hramcfg->Instance));
 309              		.loc 1 242 3
 310 0012 7B68     		ldr	r3, [r7, #4]
 311 0014 1B68     		ldr	r3, [r3]
 312 0016 4C4A     		ldr	r2, .L11
 313 0018 9342     		cmp	r3, r2
 314 001a 6CD0     		beq	.L10
 315              		.loc 1 242 3 is_stmt 0 discriminator 1
 316 001c 7B68     		ldr	r3, [r7, #4]
 317 001e 1B68     		ldr	r3, [r3]
 318 0020 4A4A     		ldr	r2, .L11+4
 319 0022 9342     		cmp	r3, r2
 320 0024 67D0     		beq	.L10
 321              		.loc 1 242 3 discriminator 2
 322 0026 7B68     		ldr	r3, [r7, #4]
 323 0028 1B68     		ldr	r3, [r3]
ARM GAS  /tmp/ccJAVlht.s 			page 11


 324 002a 494A     		ldr	r2, .L11+8
 325 002c 9342     		cmp	r3, r2
 326 002e 62D0     		beq	.L10
 327              		.loc 1 242 3 discriminator 3
 328 0030 7B68     		ldr	r3, [r7, #4]
 329 0032 1B68     		ldr	r3, [r3]
 330 0034 474A     		ldr	r2, .L11+12
 331 0036 9342     		cmp	r3, r2
 332 0038 5DD0     		beq	.L10
 333              		.loc 1 242 3 discriminator 4
 334 003a 7B68     		ldr	r3, [r7, #4]
 335 003c 1B68     		ldr	r3, [r3]
 336 003e 464A     		ldr	r2, .L11+16
 337 0040 9342     		cmp	r3, r2
 338 0042 58D0     		beq	.L10
 339              		.loc 1 242 3 discriminator 5
 340 0044 7B68     		ldr	r3, [r7, #4]
 341 0046 1B68     		ldr	r3, [r3]
 342 0048 444A     		ldr	r2, .L11+20
 343 004a 9342     		cmp	r3, r2
 344 004c 53D0     		beq	.L10
 345              		.loc 1 242 3 discriminator 6
 346 004e 7B68     		ldr	r3, [r7, #4]
 347 0050 1B68     		ldr	r3, [r3]
 348 0052 434A     		ldr	r2, .L11+24
 349 0054 9342     		cmp	r3, r2
 350 0056 4ED0     		beq	.L10
 351              		.loc 1 242 3 discriminator 7
 352 0058 7B68     		ldr	r3, [r7, #4]
 353 005a 1B68     		ldr	r3, [r3]
 354 005c 414A     		ldr	r2, .L11+28
 355 005e 9342     		cmp	r3, r2
 356 0060 49D0     		beq	.L10
 357              		.loc 1 242 3 discriminator 8
 358 0062 7B68     		ldr	r3, [r7, #4]
 359 0064 1B68     		ldr	r3, [r3]
 360 0066 404A     		ldr	r2, .L11+32
 361 0068 9342     		cmp	r3, r2
 362 006a 44D0     		beq	.L10
 363              		.loc 1 242 3 discriminator 9
 364 006c 7B68     		ldr	r3, [r7, #4]
 365 006e 1B68     		ldr	r3, [r3]
 366 0070 3E4A     		ldr	r2, .L11+36
 367 0072 9342     		cmp	r3, r2
 368 0074 3FD0     		beq	.L10
 369              		.loc 1 242 3 discriminator 10
 370 0076 7B68     		ldr	r3, [r7, #4]
 371 0078 1B68     		ldr	r3, [r3]
 372 007a 3D4A     		ldr	r2, .L11+40
 373 007c 9342     		cmp	r3, r2
 374 007e 3AD0     		beq	.L10
 375              		.loc 1 242 3 discriminator 11
 376 0080 7B68     		ldr	r3, [r7, #4]
 377 0082 1B68     		ldr	r3, [r3]
 378 0084 3B4A     		ldr	r2, .L11+44
 379 0086 9342     		cmp	r3, r2
 380 0088 35D0     		beq	.L10
ARM GAS  /tmp/ccJAVlht.s 			page 12


 381              		.loc 1 242 3 discriminator 12
 382 008a 7B68     		ldr	r3, [r7, #4]
 383 008c 1B68     		ldr	r3, [r3]
 384 008e 3A4A     		ldr	r2, .L11+48
 385 0090 9342     		cmp	r3, r2
 386 0092 30D0     		beq	.L10
 387              		.loc 1 242 3 discriminator 13
 388 0094 7B68     		ldr	r3, [r7, #4]
 389 0096 1B68     		ldr	r3, [r3]
 390 0098 384A     		ldr	r2, .L11+52
 391 009a 9342     		cmp	r3, r2
 392 009c 2BD0     		beq	.L10
 393              		.loc 1 242 3 discriminator 14
 394 009e 7B68     		ldr	r3, [r7, #4]
 395 00a0 1B68     		ldr	r3, [r3]
 396 00a2 374A     		ldr	r2, .L11+56
 397 00a4 9342     		cmp	r3, r2
 398 00a6 26D0     		beq	.L10
 399              		.loc 1 242 3 discriminator 15
 400 00a8 7B68     		ldr	r3, [r7, #4]
 401 00aa 1B68     		ldr	r3, [r3]
 402 00ac 354A     		ldr	r2, .L11+60
 403 00ae 9342     		cmp	r3, r2
 404 00b0 21D0     		beq	.L10
 405              		.loc 1 242 3 discriminator 16
 406 00b2 7B68     		ldr	r3, [r7, #4]
 407 00b4 1B68     		ldr	r3, [r3]
 408 00b6 344A     		ldr	r2, .L11+64
 409 00b8 9342     		cmp	r3, r2
 410 00ba 1CD0     		beq	.L10
 411              		.loc 1 242 3 discriminator 17
 412 00bc 7B68     		ldr	r3, [r7, #4]
 413 00be 1B68     		ldr	r3, [r3]
 414 00c0 324A     		ldr	r2, .L11+68
 415 00c2 9342     		cmp	r3, r2
 416 00c4 17D0     		beq	.L10
 417              		.loc 1 242 3 discriminator 18
 418 00c6 7B68     		ldr	r3, [r7, #4]
 419 00c8 1B68     		ldr	r3, [r3]
 420 00ca 314A     		ldr	r2, .L11+72
 421 00cc 9342     		cmp	r3, r2
 422 00ce 12D0     		beq	.L10
 423              		.loc 1 242 3 discriminator 19
 424 00d0 7B68     		ldr	r3, [r7, #4]
 425 00d2 1B68     		ldr	r3, [r3]
 426 00d4 2F4A     		ldr	r2, .L11+76
 427 00d6 9342     		cmp	r3, r2
 428 00d8 0DD0     		beq	.L10
 429              		.loc 1 242 3 discriminator 20
 430 00da 7B68     		ldr	r3, [r7, #4]
 431 00dc 1B68     		ldr	r3, [r3]
 432 00de 2E4A     		ldr	r2, .L11+80
 433 00e0 9342     		cmp	r3, r2
 434 00e2 08D0     		beq	.L10
 435              		.loc 1 242 3 discriminator 21
 436 00e4 7B68     		ldr	r3, [r7, #4]
 437 00e6 1B68     		ldr	r3, [r3]
ARM GAS  /tmp/ccJAVlht.s 			page 13


 438 00e8 2B4A     		ldr	r2, .L11+80
 439 00ea 9342     		cmp	r3, r2
 440 00ec 03D0     		beq	.L10
 441              		.loc 1 242 3 discriminator 22
 442 00ee F221     		movs	r1, #242
 443 00f0 2A48     		ldr	r0, .L11+84
 444 00f2 FFF7FEFF 		bl	assert_failed
 445              	.L10:
 243:STM32Cube_FW_N6/Drivers/STM32N6xx_HAL_Driver/Src/stm32n6xx_hal_ramcfg.c **** 
 244:STM32Cube_FW_N6/Drivers/STM32N6xx_HAL_Driver/Src/stm32n6xx_hal_ramcfg.c ****   /* Disable the ECC Address latch */
 245:STM32Cube_FW_N6/Drivers/STM32N6xx_HAL_Driver/Src/stm32n6xx_hal_ramcfg.c ****   hramcfg->Instance->CR &= ~(RAMCFG_CR_ALE);
 446              		.loc 1 245 10 is_stmt 1
 447 00f6 7B68     		ldr	r3, [r7, #4]
 448 00f8 1B68     		ldr	r3, [r3]
 449              		.loc 1 245 20
 450 00fa 1A68     		ldr	r2, [r3]
 451              		.loc 1 245 10
 452 00fc 7B68     		ldr	r3, [r7, #4]
 453 00fe 1B68     		ldr	r3, [r3]
 454              		.loc 1 245 25
 455 0100 22F01002 		bic	r2, r2, #16
 456 0104 1A60     		str	r2, [r3]
 246:STM32Cube_FW_N6/Drivers/STM32N6xx_HAL_Driver/Src/stm32n6xx_hal_ramcfg.c **** 
 247:STM32Cube_FW_N6/Drivers/STM32N6xx_HAL_Driver/Src/stm32n6xx_hal_ramcfg.c ****   /* Disable all RAMCFG interrupts */
 248:STM32Cube_FW_N6/Drivers/STM32N6xx_HAL_Driver/Src/stm32n6xx_hal_ramcfg.c ****   __HAL_RAMCFG_DISABLE_IT(hramcfg, RAMCFG_IT_ALL);
 457              		.loc 1 248 3
 458 0106 7B68     		ldr	r3, [r7, #4]
 459 0108 1B68     		ldr	r3, [r3]
 460 010a 5A68     		ldr	r2, [r3, #4]
 461 010c 7B68     		ldr	r3, [r7, #4]
 462 010e 1B68     		ldr	r3, [r3]
 463 0110 22F00302 		bic	r2, r2, #3
 464 0114 5A60     		str	r2, [r3, #4]
 249:STM32Cube_FW_N6/Drivers/STM32N6xx_HAL_Driver/Src/stm32n6xx_hal_ramcfg.c **** 
 250:STM32Cube_FW_N6/Drivers/STM32N6xx_HAL_Driver/Src/stm32n6xx_hal_ramcfg.c ****   /* Clear RAMCFG monitor flags */
 251:STM32Cube_FW_N6/Drivers/STM32N6xx_HAL_Driver/Src/stm32n6xx_hal_ramcfg.c ****   __HAL_RAMCFG_CLEAR_FLAG(hramcfg, RAMCFG_FLAGS_ALL);
 465              		.loc 1 251 3
 466 0116 7B68     		ldr	r3, [r7, #4]
 467 0118 1B68     		ldr	r3, [r3]
 468 011a 5B69     		ldr	r3, [r3, #20]
 469 011c 7A68     		ldr	r2, [r7, #4]
 470 011e 1268     		ldr	r2, [r2]
 471 0120 43F48173 		orr	r3, r3, #258
 472 0124 43F00103 		orr	r3, r3, #1
 473 0128 5361     		str	r3, [r2, #20]
 252:STM32Cube_FW_N6/Drivers/STM32N6xx_HAL_Driver/Src/stm32n6xx_hal_ramcfg.c **** 
 253:STM32Cube_FW_N6/Drivers/STM32N6xx_HAL_Driver/Src/stm32n6xx_hal_ramcfg.c **** #if (USE_HAL_RAMCFG_REGISTER_CALLBACKS == 1)
 254:STM32Cube_FW_N6/Drivers/STM32N6xx_HAL_Driver/Src/stm32n6xx_hal_ramcfg.c ****   /* Check if a valid MSP API was registered */
 255:STM32Cube_FW_N6/Drivers/STM32N6xx_HAL_Driver/Src/stm32n6xx_hal_ramcfg.c ****   if (hramcfg->MspDeInitCallback != NULL)
 256:STM32Cube_FW_N6/Drivers/STM32N6xx_HAL_Driver/Src/stm32n6xx_hal_ramcfg.c ****   {
 257:STM32Cube_FW_N6/Drivers/STM32N6xx_HAL_Driver/Src/stm32n6xx_hal_ramcfg.c ****     /* Init the low level hardware */
 258:STM32Cube_FW_N6/Drivers/STM32N6xx_HAL_Driver/Src/stm32n6xx_hal_ramcfg.c ****     hramcfg->MspDeInitCallback(hramcfg);
 259:STM32Cube_FW_N6/Drivers/STM32N6xx_HAL_Driver/Src/stm32n6xx_hal_ramcfg.c ****   }
 260:STM32Cube_FW_N6/Drivers/STM32N6xx_HAL_Driver/Src/stm32n6xx_hal_ramcfg.c **** 
 261:STM32Cube_FW_N6/Drivers/STM32N6xx_HAL_Driver/Src/stm32n6xx_hal_ramcfg.c ****   /* Clean callbacks */
 262:STM32Cube_FW_N6/Drivers/STM32N6xx_HAL_Driver/Src/stm32n6xx_hal_ramcfg.c ****   hramcfg->DetectSingleErrorCallback = NULL;
 263:STM32Cube_FW_N6/Drivers/STM32N6xx_HAL_Driver/Src/stm32n6xx_hal_ramcfg.c ****   hramcfg->DetectDoubleErrorCallback = NULL;
ARM GAS  /tmp/ccJAVlht.s 			page 14


 264:STM32Cube_FW_N6/Drivers/STM32N6xx_HAL_Driver/Src/stm32n6xx_hal_ramcfg.c **** #else
 265:STM32Cube_FW_N6/Drivers/STM32N6xx_HAL_Driver/Src/stm32n6xx_hal_ramcfg.c ****   HAL_RAMCFG_MspDeInit(hramcfg);
 474              		.loc 1 265 3
 475 012a 7868     		ldr	r0, [r7, #4]
 476 012c FFF7FEFF 		bl	HAL_RAMCFG_MspDeInit
 266:STM32Cube_FW_N6/Drivers/STM32N6xx_HAL_Driver/Src/stm32n6xx_hal_ramcfg.c **** #endif /* USE_HAL_RAMCFG_REGISTER_CALLBACKS */
 267:STM32Cube_FW_N6/Drivers/STM32N6xx_HAL_Driver/Src/stm32n6xx_hal_ramcfg.c **** 
 268:STM32Cube_FW_N6/Drivers/STM32N6xx_HAL_Driver/Src/stm32n6xx_hal_ramcfg.c ****   /* Reset the RAMCFG error code */
 269:STM32Cube_FW_N6/Drivers/STM32N6xx_HAL_Driver/Src/stm32n6xx_hal_ramcfg.c ****   hramcfg->ErrorCode = HAL_RAMCFG_ERROR_NONE;
 477              		.loc 1 269 22
 478 0130 7B68     		ldr	r3, [r7, #4]
 479 0132 0022     		movs	r2, #0
 480 0134 9A60     		str	r2, [r3, #8]
 270:STM32Cube_FW_N6/Drivers/STM32N6xx_HAL_Driver/Src/stm32n6xx_hal_ramcfg.c **** 
 271:STM32Cube_FW_N6/Drivers/STM32N6xx_HAL_Driver/Src/stm32n6xx_hal_ramcfg.c ****   /* Reset the RAMCFG state */
 272:STM32Cube_FW_N6/Drivers/STM32N6xx_HAL_Driver/Src/stm32n6xx_hal_ramcfg.c ****   hramcfg->State = HAL_RAMCFG_STATE_RESET;
 481              		.loc 1 272 18
 482 0136 7B68     		ldr	r3, [r7, #4]
 483 0138 0022     		movs	r2, #0
 484 013a 1A71     		strb	r2, [r3, #4]
 273:STM32Cube_FW_N6/Drivers/STM32N6xx_HAL_Driver/Src/stm32n6xx_hal_ramcfg.c **** 
 274:STM32Cube_FW_N6/Drivers/STM32N6xx_HAL_Driver/Src/stm32n6xx_hal_ramcfg.c ****   return HAL_OK;
 485              		.loc 1 274 10
 486 013c 0023     		movs	r3, #0
 487              	.L9:
 275:STM32Cube_FW_N6/Drivers/STM32N6xx_HAL_Driver/Src/stm32n6xx_hal_ramcfg.c **** }
 488              		.loc 1 275 1
 489 013e 1846     		mov	r0, r3
 490 0140 0837     		adds	r7, r7, #8
 491              		.cfi_def_cfa_offset 8
 492 0142 BD46     		mov	sp, r7
 493              		.cfi_def_cfa_register 13
 494              		@ sp needed
 495 0144 80BD     		pop	{r7, pc}
 496              	.L12:
 497 0146 00BF     		.align	2
 498              	.L11:
 499 0148 00330252 		.word	1375875840
 500 014c 00330242 		.word	1107440384
 501 0150 80330252 		.word	1375875968
 502 0154 80330242 		.word	1107440512
 503 0158 00300252 		.word	1375875072
 504 015c 00300242 		.word	1107439616
 505 0160 80300252 		.word	1375875200
 506 0164 80300242 		.word	1107439744
 507 0168 00310252 		.word	1375875328
 508 016c 00310242 		.word	1107439872
 509 0170 80310252 		.word	1375875456
 510 0174 80310242 		.word	1107440000
 511 0178 00320252 		.word	1375875584
 512 017c 00320242 		.word	1107440128
 513 0180 80320252 		.word	1375875712
 514 0184 80320242 		.word	1107440256
 515 0188 80340252 		.word	1375876224
 516 018c 80340242 		.word	1107440768
 517 0190 00350252 		.word	1375876352
 518 0194 00350242 		.word	1107440896
ARM GAS  /tmp/ccJAVlht.s 			page 15


 519 0198 00340242 		.word	1107440640
 520 019c 00000000 		.word	.LC0
 521              		.cfi_endproc
 522              	.LFE836:
 524              		.section	.text.HAL_RAMCFG_MspInit,"ax",%progbits
 525              		.align	1
 526              		.weak	HAL_RAMCFG_MspInit
 527              		.syntax unified
 528              		.thumb
 529              		.thumb_func
 531              	HAL_RAMCFG_MspInit:
 532              	.LFB837:
 276:STM32Cube_FW_N6/Drivers/STM32N6xx_HAL_Driver/Src/stm32n6xx_hal_ramcfg.c **** 
 277:STM32Cube_FW_N6/Drivers/STM32N6xx_HAL_Driver/Src/stm32n6xx_hal_ramcfg.c **** /**
 278:STM32Cube_FW_N6/Drivers/STM32N6xx_HAL_Driver/Src/stm32n6xx_hal_ramcfg.c ****   * @brief Initialize the RAMCFG MSP.
 279:STM32Cube_FW_N6/Drivers/STM32N6xx_HAL_Driver/Src/stm32n6xx_hal_ramcfg.c ****   * @param hramcfg : Pointer to a RAMCFG_HandleTypeDef structure that contains
 280:STM32Cube_FW_N6/Drivers/STM32N6xx_HAL_Driver/Src/stm32n6xx_hal_ramcfg.c ****   *                  the configuration information for the specified RAMCFG.
 281:STM32Cube_FW_N6/Drivers/STM32N6xx_HAL_Driver/Src/stm32n6xx_hal_ramcfg.c ****   * @retval None.
 282:STM32Cube_FW_N6/Drivers/STM32N6xx_HAL_Driver/Src/stm32n6xx_hal_ramcfg.c ****   */
 283:STM32Cube_FW_N6/Drivers/STM32N6xx_HAL_Driver/Src/stm32n6xx_hal_ramcfg.c **** __weak void HAL_RAMCFG_MspInit(RAMCFG_HandleTypeDef *hramcfg)
 284:STM32Cube_FW_N6/Drivers/STM32N6xx_HAL_Driver/Src/stm32n6xx_hal_ramcfg.c **** {
 533              		.loc 1 284 1
 534              		.cfi_startproc
 535              		@ args = 0, pretend = 0, frame = 8
 536              		@ frame_needed = 1, uses_anonymous_args = 0
 537              		@ link register save eliminated.
 538 0000 80B4     		push	{r7}
 539              		.cfi_def_cfa_offset 4
 540              		.cfi_offset 7, -4
 541 0002 83B0     		sub	sp, sp, #12
 542              		.cfi_def_cfa_offset 16
 543 0004 00AF     		add	r7, sp, #0
 544              		.cfi_def_cfa_register 7
 545 0006 7860     		str	r0, [r7, #4]
 285:STM32Cube_FW_N6/Drivers/STM32N6xx_HAL_Driver/Src/stm32n6xx_hal_ramcfg.c ****   /* Prevent unused argument(s) compilation warning */
 286:STM32Cube_FW_N6/Drivers/STM32N6xx_HAL_Driver/Src/stm32n6xx_hal_ramcfg.c ****   UNUSED(hramcfg);
 287:STM32Cube_FW_N6/Drivers/STM32N6xx_HAL_Driver/Src/stm32n6xx_hal_ramcfg.c **** 
 288:STM32Cube_FW_N6/Drivers/STM32N6xx_HAL_Driver/Src/stm32n6xx_hal_ramcfg.c ****   /* NOTE : This function should not be modified, when the callback is needed,
 289:STM32Cube_FW_N6/Drivers/STM32N6xx_HAL_Driver/Src/stm32n6xx_hal_ramcfg.c ****             the HAL_RAMCFG_MspInit can be implemented in the user file      */
 290:STM32Cube_FW_N6/Drivers/STM32N6xx_HAL_Driver/Src/stm32n6xx_hal_ramcfg.c **** }
 546              		.loc 1 290 1
 547 0008 00BF     		nop
 548 000a 0C37     		adds	r7, r7, #12
 549              		.cfi_def_cfa_offset 4
 550 000c BD46     		mov	sp, r7
 551              		.cfi_def_cfa_register 13
 552              		@ sp needed
 553 000e 5DF8047B 		ldr	r7, [sp], #4
 554              		.cfi_restore 7
 555              		.cfi_def_cfa_offset 0
 556 0012 7047     		bx	lr
 557              		.cfi_endproc
 558              	.LFE837:
 560              		.section	.text.HAL_RAMCFG_MspDeInit,"ax",%progbits
 561              		.align	1
 562              		.weak	HAL_RAMCFG_MspDeInit
 563              		.syntax unified
ARM GAS  /tmp/ccJAVlht.s 			page 16


 564              		.thumb
 565              		.thumb_func
 567              	HAL_RAMCFG_MspDeInit:
 568              	.LFB838:
 291:STM32Cube_FW_N6/Drivers/STM32N6xx_HAL_Driver/Src/stm32n6xx_hal_ramcfg.c **** 
 292:STM32Cube_FW_N6/Drivers/STM32N6xx_HAL_Driver/Src/stm32n6xx_hal_ramcfg.c **** /**
 293:STM32Cube_FW_N6/Drivers/STM32N6xx_HAL_Driver/Src/stm32n6xx_hal_ramcfg.c ****   * @brief DeInitialize the RAMCFG MSP.
 294:STM32Cube_FW_N6/Drivers/STM32N6xx_HAL_Driver/Src/stm32n6xx_hal_ramcfg.c ****   * @param hramcfg : Pointer to a RAMCFG_HandleTypeDef structure that contains
 295:STM32Cube_FW_N6/Drivers/STM32N6xx_HAL_Driver/Src/stm32n6xx_hal_ramcfg.c ****   *                  the configuration information for the specified RAMCFG.
 296:STM32Cube_FW_N6/Drivers/STM32N6xx_HAL_Driver/Src/stm32n6xx_hal_ramcfg.c ****   * @retval None.
 297:STM32Cube_FW_N6/Drivers/STM32N6xx_HAL_Driver/Src/stm32n6xx_hal_ramcfg.c ****   */
 298:STM32Cube_FW_N6/Drivers/STM32N6xx_HAL_Driver/Src/stm32n6xx_hal_ramcfg.c **** __weak void HAL_RAMCFG_MspDeInit(RAMCFG_HandleTypeDef *hramcfg)
 299:STM32Cube_FW_N6/Drivers/STM32N6xx_HAL_Driver/Src/stm32n6xx_hal_ramcfg.c **** {
 569              		.loc 1 299 1
 570              		.cfi_startproc
 571              		@ args = 0, pretend = 0, frame = 8
 572              		@ frame_needed = 1, uses_anonymous_args = 0
 573              		@ link register save eliminated.
 574 0000 80B4     		push	{r7}
 575              		.cfi_def_cfa_offset 4
 576              		.cfi_offset 7, -4
 577 0002 83B0     		sub	sp, sp, #12
 578              		.cfi_def_cfa_offset 16
 579 0004 00AF     		add	r7, sp, #0
 580              		.cfi_def_cfa_register 7
 581 0006 7860     		str	r0, [r7, #4]
 300:STM32Cube_FW_N6/Drivers/STM32N6xx_HAL_Driver/Src/stm32n6xx_hal_ramcfg.c ****   /* Prevent unused argument(s) compilation warning */
 301:STM32Cube_FW_N6/Drivers/STM32N6xx_HAL_Driver/Src/stm32n6xx_hal_ramcfg.c ****   UNUSED(hramcfg);
 302:STM32Cube_FW_N6/Drivers/STM32N6xx_HAL_Driver/Src/stm32n6xx_hal_ramcfg.c **** 
 303:STM32Cube_FW_N6/Drivers/STM32N6xx_HAL_Driver/Src/stm32n6xx_hal_ramcfg.c ****   /* NOTE : This function should not be modified, when the callback is needed,
 304:STM32Cube_FW_N6/Drivers/STM32N6xx_HAL_Driver/Src/stm32n6xx_hal_ramcfg.c ****             the HAL_RAMCFG_MspDeInit can be implemented in the user file    */
 305:STM32Cube_FW_N6/Drivers/STM32N6xx_HAL_Driver/Src/stm32n6xx_hal_ramcfg.c **** }
 582              		.loc 1 305 1
 583 0008 00BF     		nop
 584 000a 0C37     		adds	r7, r7, #12
 585              		.cfi_def_cfa_offset 4
 586 000c BD46     		mov	sp, r7
 587              		.cfi_def_cfa_register 13
 588              		@ sp needed
 589 000e 5DF8047B 		ldr	r7, [sp], #4
 590              		.cfi_restore 7
 591              		.cfi_def_cfa_offset 0
 592 0012 7047     		bx	lr
 593              		.cfi_endproc
 594              	.LFE838:
 596              		.section	.text.HAL_RAMCFG_StartECC,"ax",%progbits
 597              		.align	1
 598              		.global	HAL_RAMCFG_StartECC
 599              		.syntax unified
 600              		.thumb
 601              		.thumb_func
 603              	HAL_RAMCFG_StartECC:
 604              	.LFB839:
 306:STM32Cube_FW_N6/Drivers/STM32N6xx_HAL_Driver/Src/stm32n6xx_hal_ramcfg.c **** /**
 307:STM32Cube_FW_N6/Drivers/STM32N6xx_HAL_Driver/Src/stm32n6xx_hal_ramcfg.c ****   * @}
 308:STM32Cube_FW_N6/Drivers/STM32N6xx_HAL_Driver/Src/stm32n6xx_hal_ramcfg.c ****   */
 309:STM32Cube_FW_N6/Drivers/STM32N6xx_HAL_Driver/Src/stm32n6xx_hal_ramcfg.c **** 
ARM GAS  /tmp/ccJAVlht.s 			page 17


 310:STM32Cube_FW_N6/Drivers/STM32N6xx_HAL_Driver/Src/stm32n6xx_hal_ramcfg.c **** /** @addtogroup RAMCFG_Exported_Functions_Group2
 311:STM32Cube_FW_N6/Drivers/STM32N6xx_HAL_Driver/Src/stm32n6xx_hal_ramcfg.c ****   *
 312:STM32Cube_FW_N6/Drivers/STM32N6xx_HAL_Driver/Src/stm32n6xx_hal_ramcfg.c **** @verbatim
 313:STM32Cube_FW_N6/Drivers/STM32N6xx_HAL_Driver/Src/stm32n6xx_hal_ramcfg.c ****  ===============================================================================
 314:STM32Cube_FW_N6/Drivers/STM32N6xx_HAL_Driver/Src/stm32n6xx_hal_ramcfg.c ****                       ##### ECC Operations Functions  #####
 315:STM32Cube_FW_N6/Drivers/STM32N6xx_HAL_Driver/Src/stm32n6xx_hal_ramcfg.c ****  ===============================================================================
 316:STM32Cube_FW_N6/Drivers/STM32N6xx_HAL_Driver/Src/stm32n6xx_hal_ramcfg.c ****     [..]
 317:STM32Cube_FW_N6/Drivers/STM32N6xx_HAL_Driver/Src/stm32n6xx_hal_ramcfg.c ****       This section provides functions allowing to manage ECC feature provided by
 318:STM32Cube_FW_N6/Drivers/STM32N6xx_HAL_Driver/Src/stm32n6xx_hal_ramcfg.c ****       the RAMCFG peripheral.
 319:STM32Cube_FW_N6/Drivers/STM32N6xx_HAL_Driver/Src/stm32n6xx_hal_ramcfg.c ****     [..]
 320:STM32Cube_FW_N6/Drivers/STM32N6xx_HAL_Driver/Src/stm32n6xx_hal_ramcfg.c ****       The HAL_RAMCFG_StartECC() function allows starting the ECC mechanism and
 321:STM32Cube_FW_N6/Drivers/STM32N6xx_HAL_Driver/Src/stm32n6xx_hal_ramcfg.c ****       enabling ECC address latching for the selected RAMCFG instance.
 322:STM32Cube_FW_N6/Drivers/STM32N6xx_HAL_Driver/Src/stm32n6xx_hal_ramcfg.c ****       The HAL_RAMCFG_StopECC() function allows stopping the ECC mechanism and
 323:STM32Cube_FW_N6/Drivers/STM32N6xx_HAL_Driver/Src/stm32n6xx_hal_ramcfg.c ****       disabling ECC address latching for the selected RAMCFG instance.
 324:STM32Cube_FW_N6/Drivers/STM32N6xx_HAL_Driver/Src/stm32n6xx_hal_ramcfg.c ****       The HAL_RAMCFG_EnableNotification() function allows enabling interrupts
 325:STM32Cube_FW_N6/Drivers/STM32N6xx_HAL_Driver/Src/stm32n6xx_hal_ramcfg.c ****       for single ECC error, double ECC error and NMI error.
 326:STM32Cube_FW_N6/Drivers/STM32N6xx_HAL_Driver/Src/stm32n6xx_hal_ramcfg.c ****       The HAL_RAMCFG_DisableNotification() function allows disabling interrupts
 327:STM32Cube_FW_N6/Drivers/STM32N6xx_HAL_Driver/Src/stm32n6xx_hal_ramcfg.c ****       for single ECC error, double ECC error. When NMI interrupt is enabled it
 328:STM32Cube_FW_N6/Drivers/STM32N6xx_HAL_Driver/Src/stm32n6xx_hal_ramcfg.c ****       can only be disabled by a global peripheral reset or by a system reset.
 329:STM32Cube_FW_N6/Drivers/STM32N6xx_HAL_Driver/Src/stm32n6xx_hal_ramcfg.c ****       The HAL_RAMCFG_IsECCSingleErrorDetected() function allows to check if an
 330:STM32Cube_FW_N6/Drivers/STM32N6xx_HAL_Driver/Src/stm32n6xx_hal_ramcfg.c ****       single ECC error has occurred.
 331:STM32Cube_FW_N6/Drivers/STM32N6xx_HAL_Driver/Src/stm32n6xx_hal_ramcfg.c ****       The HAL_RAMCFG_IsECCDoubleErrorDetected() function allows to check if an
 332:STM32Cube_FW_N6/Drivers/STM32N6xx_HAL_Driver/Src/stm32n6xx_hal_ramcfg.c ****       double ECC error has occurred.
 333:STM32Cube_FW_N6/Drivers/STM32N6xx_HAL_Driver/Src/stm32n6xx_hal_ramcfg.c ****       The HAL_RAMCFG_GetSingleErrorAddress() function allows to get the address of
 334:STM32Cube_FW_N6/Drivers/STM32N6xx_HAL_Driver/Src/stm32n6xx_hal_ramcfg.c ****       the last single ECC error detected.
 335:STM32Cube_FW_N6/Drivers/STM32N6xx_HAL_Driver/Src/stm32n6xx_hal_ramcfg.c ****       The HAL_RAMCFG_GetDoubleErrorAddress() function allows to get the address of
 336:STM32Cube_FW_N6/Drivers/STM32N6xx_HAL_Driver/Src/stm32n6xx_hal_ramcfg.c ****       the last double ECC error detected.
 337:STM32Cube_FW_N6/Drivers/STM32N6xx_HAL_Driver/Src/stm32n6xx_hal_ramcfg.c **** 
 338:STM32Cube_FW_N6/Drivers/STM32N6xx_HAL_Driver/Src/stm32n6xx_hal_ramcfg.c **** @endverbatim
 339:STM32Cube_FW_N6/Drivers/STM32N6xx_HAL_Driver/Src/stm32n6xx_hal_ramcfg.c ****   * @{
 340:STM32Cube_FW_N6/Drivers/STM32N6xx_HAL_Driver/Src/stm32n6xx_hal_ramcfg.c ****   */
 341:STM32Cube_FW_N6/Drivers/STM32N6xx_HAL_Driver/Src/stm32n6xx_hal_ramcfg.c **** 
 342:STM32Cube_FW_N6/Drivers/STM32N6xx_HAL_Driver/Src/stm32n6xx_hal_ramcfg.c **** /**
 343:STM32Cube_FW_N6/Drivers/STM32N6xx_HAL_Driver/Src/stm32n6xx_hal_ramcfg.c ****   * @brief  Start ECC mechanism for the given SRAM.
 344:STM32Cube_FW_N6/Drivers/STM32N6xx_HAL_Driver/Src/stm32n6xx_hal_ramcfg.c ****   * @param  hramcfg : Pointer to a RAMCFG_HandleTypeDef structure that contains
 345:STM32Cube_FW_N6/Drivers/STM32N6xx_HAL_Driver/Src/stm32n6xx_hal_ramcfg.c ****   *                   the configuration information for the specified RAMCFG
 346:STM32Cube_FW_N6/Drivers/STM32N6xx_HAL_Driver/Src/stm32n6xx_hal_ramcfg.c ****   *                   instance.
 347:STM32Cube_FW_N6/Drivers/STM32N6xx_HAL_Driver/Src/stm32n6xx_hal_ramcfg.c ****   * @retval HAL status.
 348:STM32Cube_FW_N6/Drivers/STM32N6xx_HAL_Driver/Src/stm32n6xx_hal_ramcfg.c ****   */
 349:STM32Cube_FW_N6/Drivers/STM32N6xx_HAL_Driver/Src/stm32n6xx_hal_ramcfg.c **** HAL_StatusTypeDef HAL_RAMCFG_StartECC(RAMCFG_HandleTypeDef *hramcfg)
 350:STM32Cube_FW_N6/Drivers/STM32N6xx_HAL_Driver/Src/stm32n6xx_hal_ramcfg.c **** {
 605              		.loc 1 350 1
 606              		.cfi_startproc
 607              		@ args = 0, pretend = 0, frame = 16
 608              		@ frame_needed = 1, uses_anonymous_args = 0
 609 0000 80B5     		push	{r7, lr}
 610              		.cfi_def_cfa_offset 8
 611              		.cfi_offset 7, -8
 612              		.cfi_offset 14, -4
 613 0002 84B0     		sub	sp, sp, #16
 614              		.cfi_def_cfa_offset 24
 615 0004 00AF     		add	r7, sp, #0
 616              		.cfi_def_cfa_register 7
 617 0006 7860     		str	r0, [r7, #4]
 351:STM32Cube_FW_N6/Drivers/STM32N6xx_HAL_Driver/Src/stm32n6xx_hal_ramcfg.c ****   HAL_StatusTypeDef status = HAL_OK;
 618              		.loc 1 351 21
 619 0008 0023     		movs	r3, #0
ARM GAS  /tmp/ccJAVlht.s 			page 18


 620 000a FB73     		strb	r3, [r7, #15]
 352:STM32Cube_FW_N6/Drivers/STM32N6xx_HAL_Driver/Src/stm32n6xx_hal_ramcfg.c ****   /* Check the parameters */
 353:STM32Cube_FW_N6/Drivers/STM32N6xx_HAL_Driver/Src/stm32n6xx_hal_ramcfg.c ****   assert_param(IS_RAMCFG_ECC_INSTANCE(hramcfg->Instance));
 621              		.loc 1 353 3
 622 000c 7B68     		ldr	r3, [r7, #4]
 623 000e 1B68     		ldr	r3, [r3]
 624 0010 224A     		ldr	r2, .L22
 625 0012 9342     		cmp	r3, r2
 626 0014 13D0     		beq	.L16
 627              		.loc 1 353 3 is_stmt 0 discriminator 1
 628 0016 7B68     		ldr	r3, [r7, #4]
 629 0018 1B68     		ldr	r3, [r3]
 630 001a 214A     		ldr	r2, .L22+4
 631 001c 9342     		cmp	r3, r2
 632 001e 0ED0     		beq	.L16
 633              		.loc 1 353 3 discriminator 2
 634 0020 7B68     		ldr	r3, [r7, #4]
 635 0022 1B68     		ldr	r3, [r3]
 636 0024 1F4A     		ldr	r2, .L22+8
 637 0026 9342     		cmp	r3, r2
 638 0028 09D0     		beq	.L16
 639              		.loc 1 353 3 discriminator 3
 640 002a 7B68     		ldr	r3, [r7, #4]
 641 002c 1B68     		ldr	r3, [r3]
 642 002e 1E4A     		ldr	r2, .L22+12
 643 0030 9342     		cmp	r3, r2
 644 0032 04D0     		beq	.L16
 645              		.loc 1 353 3 discriminator 4
 646 0034 40F26111 		movw	r1, #353
 647 0038 1C48     		ldr	r0, .L22+16
 648 003a FFF7FEFF 		bl	assert_failed
 649              	.L16:
 354:STM32Cube_FW_N6/Drivers/STM32N6xx_HAL_Driver/Src/stm32n6xx_hal_ramcfg.c **** 
 355:STM32Cube_FW_N6/Drivers/STM32N6xx_HAL_Driver/Src/stm32n6xx_hal_ramcfg.c ****   /* Check RAMCFG state */
 356:STM32Cube_FW_N6/Drivers/STM32N6xx_HAL_Driver/Src/stm32n6xx_hal_ramcfg.c ****   if (hramcfg->State == HAL_RAMCFG_STATE_READY)
 650              		.loc 1 356 14 is_stmt 1
 651 003e 7B68     		ldr	r3, [r7, #4]
 652 0040 1B79     		ldrb	r3, [r3, #4]
 653 0042 DBB2     		uxtb	r3, r3
 654              		.loc 1 356 6
 655 0044 012B     		cmp	r3, #1
 656 0046 1ED1     		bne	.L17
 357:STM32Cube_FW_N6/Drivers/STM32N6xx_HAL_Driver/Src/stm32n6xx_hal_ramcfg.c ****   {
 358:STM32Cube_FW_N6/Drivers/STM32N6xx_HAL_Driver/Src/stm32n6xx_hal_ramcfg.c ****     /* Update RAMCFG peripheral state */
 359:STM32Cube_FW_N6/Drivers/STM32N6xx_HAL_Driver/Src/stm32n6xx_hal_ramcfg.c ****     hramcfg->State = HAL_RAMCFG_STATE_BUSY;
 657              		.loc 1 359 20
 658 0048 7B68     		ldr	r3, [r7, #4]
 659 004a 0222     		movs	r2, #2
 660 004c 1A71     		strb	r2, [r3, #4]
 360:STM32Cube_FW_N6/Drivers/STM32N6xx_HAL_Driver/Src/stm32n6xx_hal_ramcfg.c **** 
 361:STM32Cube_FW_N6/Drivers/STM32N6xx_HAL_Driver/Src/stm32n6xx_hal_ramcfg.c ****     /* Check if ECC mechanism is non active */
 362:STM32Cube_FW_N6/Drivers/STM32N6xx_HAL_Driver/Src/stm32n6xx_hal_ramcfg.c ****     if ((hramcfg->Instance->CR & RAMCFG_CR_ECCE) != RAMCFG_CR_ECCE)
 661              		.loc 1 362 17
 662 004e 7B68     		ldr	r3, [r7, #4]
 663 0050 1B68     		ldr	r3, [r3]
 664              		.loc 1 362 27
 665 0052 1B68     		ldr	r3, [r3]
ARM GAS  /tmp/ccJAVlht.s 			page 19


 666              		.loc 1 362 32
 667 0054 03F00103 		and	r3, r3, #1
 668              		.loc 1 362 8
 669 0058 012B     		cmp	r3, #1
 670 005a 08D0     		beq	.L18
 363:STM32Cube_FW_N6/Drivers/STM32N6xx_HAL_Driver/Src/stm32n6xx_hal_ramcfg.c ****     {
 364:STM32Cube_FW_N6/Drivers/STM32N6xx_HAL_Driver/Src/stm32n6xx_hal_ramcfg.c ****       /* Start the SRAM ECC mechanism and latching the error address */
 365:STM32Cube_FW_N6/Drivers/STM32N6xx_HAL_Driver/Src/stm32n6xx_hal_ramcfg.c ****       hramcfg->Instance->CR |= (RAMCFG_CR_ECCE | RAMCFG_CR_ALE);
 671              		.loc 1 365 14
 672 005c 7B68     		ldr	r3, [r7, #4]
 673 005e 1B68     		ldr	r3, [r3]
 674              		.loc 1 365 24
 675 0060 1A68     		ldr	r2, [r3]
 676              		.loc 1 365 14
 677 0062 7B68     		ldr	r3, [r7, #4]
 678 0064 1B68     		ldr	r3, [r3]
 679              		.loc 1 365 29
 680 0066 42F01102 		orr	r2, r2, #17
 681 006a 1A60     		str	r2, [r3]
 682 006c 07E0     		b	.L19
 683              	.L18:
 366:STM32Cube_FW_N6/Drivers/STM32N6xx_HAL_Driver/Src/stm32n6xx_hal_ramcfg.c ****     }
 367:STM32Cube_FW_N6/Drivers/STM32N6xx_HAL_Driver/Src/stm32n6xx_hal_ramcfg.c ****     else
 368:STM32Cube_FW_N6/Drivers/STM32N6xx_HAL_Driver/Src/stm32n6xx_hal_ramcfg.c ****     {
 369:STM32Cube_FW_N6/Drivers/STM32N6xx_HAL_Driver/Src/stm32n6xx_hal_ramcfg.c ****       /* Start latching the error address */
 370:STM32Cube_FW_N6/Drivers/STM32N6xx_HAL_Driver/Src/stm32n6xx_hal_ramcfg.c ****       hramcfg->Instance->CR |= RAMCFG_CR_ALE;
 684              		.loc 1 370 14
 685 006e 7B68     		ldr	r3, [r7, #4]
 686 0070 1B68     		ldr	r3, [r3]
 687              		.loc 1 370 24
 688 0072 1A68     		ldr	r2, [r3]
 689              		.loc 1 370 14
 690 0074 7B68     		ldr	r3, [r7, #4]
 691 0076 1B68     		ldr	r3, [r3]
 692              		.loc 1 370 29
 693 0078 42F01002 		orr	r2, r2, #16
 694 007c 1A60     		str	r2, [r3]
 695              	.L19:
 371:STM32Cube_FW_N6/Drivers/STM32N6xx_HAL_Driver/Src/stm32n6xx_hal_ramcfg.c ****     }
 372:STM32Cube_FW_N6/Drivers/STM32N6xx_HAL_Driver/Src/stm32n6xx_hal_ramcfg.c **** 
 373:STM32Cube_FW_N6/Drivers/STM32N6xx_HAL_Driver/Src/stm32n6xx_hal_ramcfg.c ****     /* Update the RAMCFG state */
 374:STM32Cube_FW_N6/Drivers/STM32N6xx_HAL_Driver/Src/stm32n6xx_hal_ramcfg.c ****     hramcfg->State = HAL_RAMCFG_STATE_READY;
 696              		.loc 1 374 20
 697 007e 7B68     		ldr	r3, [r7, #4]
 698 0080 0122     		movs	r2, #1
 699 0082 1A71     		strb	r2, [r3, #4]
 700 0084 04E0     		b	.L20
 701              	.L17:
 375:STM32Cube_FW_N6/Drivers/STM32N6xx_HAL_Driver/Src/stm32n6xx_hal_ramcfg.c ****   }
 376:STM32Cube_FW_N6/Drivers/STM32N6xx_HAL_Driver/Src/stm32n6xx_hal_ramcfg.c ****   else
 377:STM32Cube_FW_N6/Drivers/STM32N6xx_HAL_Driver/Src/stm32n6xx_hal_ramcfg.c ****   {
 378:STM32Cube_FW_N6/Drivers/STM32N6xx_HAL_Driver/Src/stm32n6xx_hal_ramcfg.c ****     /* Update the RAMCFG error code and return error  */
 379:STM32Cube_FW_N6/Drivers/STM32N6xx_HAL_Driver/Src/stm32n6xx_hal_ramcfg.c ****     hramcfg->ErrorCode = HAL_RAMCFG_ERROR_BUSY;
 702              		.loc 1 379 24
 703 0086 7B68     		ldr	r3, [r7, #4]
 704 0088 0222     		movs	r2, #2
 705 008a 9A60     		str	r2, [r3, #8]
ARM GAS  /tmp/ccJAVlht.s 			page 20


 380:STM32Cube_FW_N6/Drivers/STM32N6xx_HAL_Driver/Src/stm32n6xx_hal_ramcfg.c ****     status = HAL_ERROR;
 706              		.loc 1 380 12
 707 008c 0123     		movs	r3, #1
 708 008e FB73     		strb	r3, [r7, #15]
 709              	.L20:
 381:STM32Cube_FW_N6/Drivers/STM32N6xx_HAL_Driver/Src/stm32n6xx_hal_ramcfg.c ****   }
 382:STM32Cube_FW_N6/Drivers/STM32N6xx_HAL_Driver/Src/stm32n6xx_hal_ramcfg.c **** 
 383:STM32Cube_FW_N6/Drivers/STM32N6xx_HAL_Driver/Src/stm32n6xx_hal_ramcfg.c ****   return status;
 710              		.loc 1 383 10
 711 0090 FB7B     		ldrb	r3, [r7, #15]	@ zero_extendqisi2
 384:STM32Cube_FW_N6/Drivers/STM32N6xx_HAL_Driver/Src/stm32n6xx_hal_ramcfg.c **** }
 712              		.loc 1 384 1
 713 0092 1846     		mov	r0, r3
 714 0094 1037     		adds	r7, r7, #16
 715              		.cfi_def_cfa_offset 8
 716 0096 BD46     		mov	sp, r7
 717              		.cfi_def_cfa_register 13
 718              		@ sp needed
 719 0098 80BD     		pop	{r7, pc}
 720              	.L23:
 721 009a 00BF     		.align	2
 722              	.L22:
 723 009c 80340252 		.word	1375876224
 724 00a0 80340242 		.word	1107440768
 725 00a4 00350252 		.word	1375876352
 726 00a8 00350242 		.word	1107440896
 727 00ac 00000000 		.word	.LC0
 728              		.cfi_endproc
 729              	.LFE839:
 731              		.section	.text.HAL_RAMCFG_StopECC,"ax",%progbits
 732              		.align	1
 733              		.global	HAL_RAMCFG_StopECC
 734              		.syntax unified
 735              		.thumb
 736              		.thumb_func
 738              	HAL_RAMCFG_StopECC:
 739              	.LFB840:
 385:STM32Cube_FW_N6/Drivers/STM32N6xx_HAL_Driver/Src/stm32n6xx_hal_ramcfg.c **** 
 386:STM32Cube_FW_N6/Drivers/STM32N6xx_HAL_Driver/Src/stm32n6xx_hal_ramcfg.c **** /**
 387:STM32Cube_FW_N6/Drivers/STM32N6xx_HAL_Driver/Src/stm32n6xx_hal_ramcfg.c ****   * @brief  Stop ECC mechanism for the given SRAM.
 388:STM32Cube_FW_N6/Drivers/STM32N6xx_HAL_Driver/Src/stm32n6xx_hal_ramcfg.c ****   * @param  hramcfg : Pointer to a RAMCFG_HandleTypeDef structure that contains
 389:STM32Cube_FW_N6/Drivers/STM32N6xx_HAL_Driver/Src/stm32n6xx_hal_ramcfg.c ****   *                   the configuration information for the specified RAMCFG
 390:STM32Cube_FW_N6/Drivers/STM32N6xx_HAL_Driver/Src/stm32n6xx_hal_ramcfg.c ****   *                   instance.
 391:STM32Cube_FW_N6/Drivers/STM32N6xx_HAL_Driver/Src/stm32n6xx_hal_ramcfg.c ****   * @retval HAL status.
 392:STM32Cube_FW_N6/Drivers/STM32N6xx_HAL_Driver/Src/stm32n6xx_hal_ramcfg.c ****   */
 393:STM32Cube_FW_N6/Drivers/STM32N6xx_HAL_Driver/Src/stm32n6xx_hal_ramcfg.c **** HAL_StatusTypeDef HAL_RAMCFG_StopECC(RAMCFG_HandleTypeDef *hramcfg)
 394:STM32Cube_FW_N6/Drivers/STM32N6xx_HAL_Driver/Src/stm32n6xx_hal_ramcfg.c **** {
 740              		.loc 1 394 1
 741              		.cfi_startproc
 742              		@ args = 0, pretend = 0, frame = 16
 743              		@ frame_needed = 1, uses_anonymous_args = 0
 744 0000 80B5     		push	{r7, lr}
 745              		.cfi_def_cfa_offset 8
 746              		.cfi_offset 7, -8
 747              		.cfi_offset 14, -4
 748 0002 84B0     		sub	sp, sp, #16
 749              		.cfi_def_cfa_offset 24
ARM GAS  /tmp/ccJAVlht.s 			page 21


 750 0004 00AF     		add	r7, sp, #0
 751              		.cfi_def_cfa_register 7
 752 0006 7860     		str	r0, [r7, #4]
 395:STM32Cube_FW_N6/Drivers/STM32N6xx_HAL_Driver/Src/stm32n6xx_hal_ramcfg.c ****   HAL_StatusTypeDef status = HAL_OK;
 753              		.loc 1 395 21
 754 0008 0023     		movs	r3, #0
 755 000a FB73     		strb	r3, [r7, #15]
 396:STM32Cube_FW_N6/Drivers/STM32N6xx_HAL_Driver/Src/stm32n6xx_hal_ramcfg.c ****   /* Check the parameters */
 397:STM32Cube_FW_N6/Drivers/STM32N6xx_HAL_Driver/Src/stm32n6xx_hal_ramcfg.c ****   assert_param(IS_RAMCFG_ECC_INSTANCE(hramcfg->Instance));
 756              		.loc 1 397 3
 757 000c 7B68     		ldr	r3, [r7, #4]
 758 000e 1B68     		ldr	r3, [r3]
 759 0010 214A     		ldr	r2, .L30
 760 0012 9342     		cmp	r3, r2
 761 0014 13D0     		beq	.L25
 762              		.loc 1 397 3 is_stmt 0 discriminator 1
 763 0016 7B68     		ldr	r3, [r7, #4]
 764 0018 1B68     		ldr	r3, [r3]
 765 001a 204A     		ldr	r2, .L30+4
 766 001c 9342     		cmp	r3, r2
 767 001e 0ED0     		beq	.L25
 768              		.loc 1 397 3 discriminator 2
 769 0020 7B68     		ldr	r3, [r7, #4]
 770 0022 1B68     		ldr	r3, [r3]
 771 0024 1E4A     		ldr	r2, .L30+8
 772 0026 9342     		cmp	r3, r2
 773 0028 09D0     		beq	.L25
 774              		.loc 1 397 3 discriminator 3
 775 002a 7B68     		ldr	r3, [r7, #4]
 776 002c 1B68     		ldr	r3, [r3]
 777 002e 1D4A     		ldr	r2, .L30+12
 778 0030 9342     		cmp	r3, r2
 779 0032 04D0     		beq	.L25
 780              		.loc 1 397 3 discriminator 4
 781 0034 40F28D11 		movw	r1, #397
 782 0038 1B48     		ldr	r0, .L30+16
 783 003a FFF7FEFF 		bl	assert_failed
 784              	.L25:
 398:STM32Cube_FW_N6/Drivers/STM32N6xx_HAL_Driver/Src/stm32n6xx_hal_ramcfg.c **** 
 399:STM32Cube_FW_N6/Drivers/STM32N6xx_HAL_Driver/Src/stm32n6xx_hal_ramcfg.c ****   /* Check RAMCFG state */
 400:STM32Cube_FW_N6/Drivers/STM32N6xx_HAL_Driver/Src/stm32n6xx_hal_ramcfg.c ****   if (hramcfg->State == HAL_RAMCFG_STATE_READY)
 785              		.loc 1 400 14 is_stmt 1
 786 003e 7B68     		ldr	r3, [r7, #4]
 787 0040 1B79     		ldrb	r3, [r3, #4]
 788 0042 DBB2     		uxtb	r3, r3
 789              		.loc 1 400 6
 790 0044 012B     		cmp	r3, #1
 791 0046 1DD1     		bne	.L26
 401:STM32Cube_FW_N6/Drivers/STM32N6xx_HAL_Driver/Src/stm32n6xx_hal_ramcfg.c ****   {
 402:STM32Cube_FW_N6/Drivers/STM32N6xx_HAL_Driver/Src/stm32n6xx_hal_ramcfg.c ****     /* Update RAMCFG peripheral state */
 403:STM32Cube_FW_N6/Drivers/STM32N6xx_HAL_Driver/Src/stm32n6xx_hal_ramcfg.c ****     hramcfg->State = HAL_RAMCFG_STATE_BUSY;
 792              		.loc 1 403 20
 793 0048 7B68     		ldr	r3, [r7, #4]
 794 004a 0222     		movs	r2, #2
 795 004c 1A71     		strb	r2, [r3, #4]
 404:STM32Cube_FW_N6/Drivers/STM32N6xx_HAL_Driver/Src/stm32n6xx_hal_ramcfg.c **** 
 405:STM32Cube_FW_N6/Drivers/STM32N6xx_HAL_Driver/Src/stm32n6xx_hal_ramcfg.c ****     /* Check if ECC mechanism is active */
ARM GAS  /tmp/ccJAVlht.s 			page 22


 406:STM32Cube_FW_N6/Drivers/STM32N6xx_HAL_Driver/Src/stm32n6xx_hal_ramcfg.c ****     if ((hramcfg->Instance->CR & RAMCFG_CR_ECCE) == RAMCFG_CR_ECCE)
 796              		.loc 1 406 17
 797 004e 7B68     		ldr	r3, [r7, #4]
 798 0050 1B68     		ldr	r3, [r3]
 799              		.loc 1 406 27
 800 0052 1B68     		ldr	r3, [r3]
 801              		.loc 1 406 32
 802 0054 03F00103 		and	r3, r3, #1
 803              		.loc 1 406 8
 804 0058 012B     		cmp	r3, #1
 805 005a 0FD1     		bne	.L27
 407:STM32Cube_FW_N6/Drivers/STM32N6xx_HAL_Driver/Src/stm32n6xx_hal_ramcfg.c ****     {
 408:STM32Cube_FW_N6/Drivers/STM32N6xx_HAL_Driver/Src/stm32n6xx_hal_ramcfg.c ****       /* Unlock the SRAM ECC bit */
 409:STM32Cube_FW_N6/Drivers/STM32N6xx_HAL_Driver/Src/stm32n6xx_hal_ramcfg.c ****       WRITE_REG(hramcfg->Instance->ECCKEYR, RAMCFG_ECC_KEY1);
 806              		.loc 1 409 7
 807 005c 7B68     		ldr	r3, [r7, #4]
 808 005e 1B68     		ldr	r3, [r3]
 809 0060 AE22     		movs	r2, #174
 810 0062 5A62     		str	r2, [r3, #36]
 410:STM32Cube_FW_N6/Drivers/STM32N6xx_HAL_Driver/Src/stm32n6xx_hal_ramcfg.c ****       WRITE_REG(hramcfg->Instance->ECCKEYR, RAMCFG_ECC_KEY2);
 811              		.loc 1 410 7
 812 0064 7B68     		ldr	r3, [r7, #4]
 813 0066 1B68     		ldr	r3, [r3]
 814 0068 7522     		movs	r2, #117
 815 006a 5A62     		str	r2, [r3, #36]
 411:STM32Cube_FW_N6/Drivers/STM32N6xx_HAL_Driver/Src/stm32n6xx_hal_ramcfg.c **** 
 412:STM32Cube_FW_N6/Drivers/STM32N6xx_HAL_Driver/Src/stm32n6xx_hal_ramcfg.c ****       /* Stop the SRAM ECC mechanism and latching the error address */
 413:STM32Cube_FW_N6/Drivers/STM32N6xx_HAL_Driver/Src/stm32n6xx_hal_ramcfg.c ****       hramcfg->Instance->CR &= ~(RAMCFG_CR_ECCE | RAMCFG_CR_ALE);
 816              		.loc 1 413 14
 817 006c 7B68     		ldr	r3, [r7, #4]
 818 006e 1B68     		ldr	r3, [r3]
 819              		.loc 1 413 24
 820 0070 1A68     		ldr	r2, [r3]
 821              		.loc 1 413 14
 822 0072 7B68     		ldr	r3, [r7, #4]
 823 0074 1B68     		ldr	r3, [r3]
 824              		.loc 1 413 29
 825 0076 22F01102 		bic	r2, r2, #17
 826 007a 1A60     		str	r2, [r3]
 827              	.L27:
 414:STM32Cube_FW_N6/Drivers/STM32N6xx_HAL_Driver/Src/stm32n6xx_hal_ramcfg.c ****     }
 415:STM32Cube_FW_N6/Drivers/STM32N6xx_HAL_Driver/Src/stm32n6xx_hal_ramcfg.c ****     /* Update the RAMCFG state */
 416:STM32Cube_FW_N6/Drivers/STM32N6xx_HAL_Driver/Src/stm32n6xx_hal_ramcfg.c ****     hramcfg->State = HAL_RAMCFG_STATE_READY;
 828              		.loc 1 416 20
 829 007c 7B68     		ldr	r3, [r7, #4]
 830 007e 0122     		movs	r2, #1
 831 0080 1A71     		strb	r2, [r3, #4]
 832 0082 04E0     		b	.L28
 833              	.L26:
 417:STM32Cube_FW_N6/Drivers/STM32N6xx_HAL_Driver/Src/stm32n6xx_hal_ramcfg.c ****   }
 418:STM32Cube_FW_N6/Drivers/STM32N6xx_HAL_Driver/Src/stm32n6xx_hal_ramcfg.c ****   else
 419:STM32Cube_FW_N6/Drivers/STM32N6xx_HAL_Driver/Src/stm32n6xx_hal_ramcfg.c ****   {
 420:STM32Cube_FW_N6/Drivers/STM32N6xx_HAL_Driver/Src/stm32n6xx_hal_ramcfg.c ****     /* Update the RAMCFG error code and return error  */
 421:STM32Cube_FW_N6/Drivers/STM32N6xx_HAL_Driver/Src/stm32n6xx_hal_ramcfg.c ****     hramcfg->ErrorCode = HAL_RAMCFG_ERROR_BUSY;
 834              		.loc 1 421 24
 835 0084 7B68     		ldr	r3, [r7, #4]
 836 0086 0222     		movs	r2, #2
ARM GAS  /tmp/ccJAVlht.s 			page 23


 837 0088 9A60     		str	r2, [r3, #8]
 422:STM32Cube_FW_N6/Drivers/STM32N6xx_HAL_Driver/Src/stm32n6xx_hal_ramcfg.c ****     status = HAL_ERROR;
 838              		.loc 1 422 12
 839 008a 0123     		movs	r3, #1
 840 008c FB73     		strb	r3, [r7, #15]
 841              	.L28:
 423:STM32Cube_FW_N6/Drivers/STM32N6xx_HAL_Driver/Src/stm32n6xx_hal_ramcfg.c ****   }
 424:STM32Cube_FW_N6/Drivers/STM32N6xx_HAL_Driver/Src/stm32n6xx_hal_ramcfg.c **** 
 425:STM32Cube_FW_N6/Drivers/STM32N6xx_HAL_Driver/Src/stm32n6xx_hal_ramcfg.c ****   return status;
 842              		.loc 1 425 10
 843 008e FB7B     		ldrb	r3, [r7, #15]	@ zero_extendqisi2
 426:STM32Cube_FW_N6/Drivers/STM32N6xx_HAL_Driver/Src/stm32n6xx_hal_ramcfg.c **** }
 844              		.loc 1 426 1
 845 0090 1846     		mov	r0, r3
 846 0092 1037     		adds	r7, r7, #16
 847              		.cfi_def_cfa_offset 8
 848 0094 BD46     		mov	sp, r7
 849              		.cfi_def_cfa_register 13
 850              		@ sp needed
 851 0096 80BD     		pop	{r7, pc}
 852              	.L31:
 853              		.align	2
 854              	.L30:
 855 0098 80340252 		.word	1375876224
 856 009c 80340242 		.word	1107440768
 857 00a0 00350252 		.word	1375876352
 858 00a4 00350242 		.word	1107440896
 859 00a8 00000000 		.word	.LC0
 860              		.cfi_endproc
 861              	.LFE840:
 863              		.section	.text.HAL_RAMCFG_EnableNotification,"ax",%progbits
 864              		.align	1
 865              		.global	HAL_RAMCFG_EnableNotification
 866              		.syntax unified
 867              		.thumb
 868              		.thumb_func
 870              	HAL_RAMCFG_EnableNotification:
 871              	.LFB841:
 427:STM32Cube_FW_N6/Drivers/STM32N6xx_HAL_Driver/Src/stm32n6xx_hal_ramcfg.c **** 
 428:STM32Cube_FW_N6/Drivers/STM32N6xx_HAL_Driver/Src/stm32n6xx_hal_ramcfg.c **** /**
 429:STM32Cube_FW_N6/Drivers/STM32N6xx_HAL_Driver/Src/stm32n6xx_hal_ramcfg.c ****   * @brief  Enable the RAMCFG error interrupts.
 430:STM32Cube_FW_N6/Drivers/STM32N6xx_HAL_Driver/Src/stm32n6xx_hal_ramcfg.c ****   * @param  hramcfg       : Pointer to a RAMCFG_HandleTypeDef structure that
 431:STM32Cube_FW_N6/Drivers/STM32N6xx_HAL_Driver/Src/stm32n6xx_hal_ramcfg.c ****   *                         contains the configuration information for the
 432:STM32Cube_FW_N6/Drivers/STM32N6xx_HAL_Driver/Src/stm32n6xx_hal_ramcfg.c ****   *                         specified RAMCFG instance.
 433:STM32Cube_FW_N6/Drivers/STM32N6xx_HAL_Driver/Src/stm32n6xx_hal_ramcfg.c ****   * @param  Notifications : Select the notification to be enabled.
 434:STM32Cube_FW_N6/Drivers/STM32N6xx_HAL_Driver/Src/stm32n6xx_hal_ramcfg.c ****   *                         This parameter can be any value of @ref
 435:STM32Cube_FW_N6/Drivers/STM32N6xx_HAL_Driver/Src/stm32n6xx_hal_ramcfg.c ****   *                         RAMCFG_Interrupt group.
 436:STM32Cube_FW_N6/Drivers/STM32N6xx_HAL_Driver/Src/stm32n6xx_hal_ramcfg.c ****   * @retval HAL status.
 437:STM32Cube_FW_N6/Drivers/STM32N6xx_HAL_Driver/Src/stm32n6xx_hal_ramcfg.c ****   */
 438:STM32Cube_FW_N6/Drivers/STM32N6xx_HAL_Driver/Src/stm32n6xx_hal_ramcfg.c **** HAL_StatusTypeDef HAL_RAMCFG_EnableNotification(RAMCFG_HandleTypeDef *hramcfg, uint32_t Notificatio
 439:STM32Cube_FW_N6/Drivers/STM32N6xx_HAL_Driver/Src/stm32n6xx_hal_ramcfg.c **** {
 872              		.loc 1 439 1
 873              		.cfi_startproc
 874              		@ args = 0, pretend = 0, frame = 16
 875              		@ frame_needed = 1, uses_anonymous_args = 0
 876 0000 80B5     		push	{r7, lr}
 877              		.cfi_def_cfa_offset 8
ARM GAS  /tmp/ccJAVlht.s 			page 24


 878              		.cfi_offset 7, -8
 879              		.cfi_offset 14, -4
 880 0002 84B0     		sub	sp, sp, #16
 881              		.cfi_def_cfa_offset 24
 882 0004 00AF     		add	r7, sp, #0
 883              		.cfi_def_cfa_register 7
 884 0006 7860     		str	r0, [r7, #4]
 885 0008 3960     		str	r1, [r7]
 440:STM32Cube_FW_N6/Drivers/STM32N6xx_HAL_Driver/Src/stm32n6xx_hal_ramcfg.c ****   HAL_StatusTypeDef status = HAL_OK;
 886              		.loc 1 440 21
 887 000a 0023     		movs	r3, #0
 888 000c FB73     		strb	r3, [r7, #15]
 441:STM32Cube_FW_N6/Drivers/STM32N6xx_HAL_Driver/Src/stm32n6xx_hal_ramcfg.c ****   /* Check the parameters */
 442:STM32Cube_FW_N6/Drivers/STM32N6xx_HAL_Driver/Src/stm32n6xx_hal_ramcfg.c ****   assert_param(IS_RAMCFG_ECC_INSTANCE(hramcfg->Instance));
 889              		.loc 1 442 3
 890 000e 7B68     		ldr	r3, [r7, #4]
 891 0010 1B68     		ldr	r3, [r3]
 892 0012 204A     		ldr	r2, .L39
 893 0014 9342     		cmp	r3, r2
 894 0016 13D0     		beq	.L33
 895              		.loc 1 442 3 is_stmt 0 discriminator 1
 896 0018 7B68     		ldr	r3, [r7, #4]
 897 001a 1B68     		ldr	r3, [r3]
 898 001c 1E4A     		ldr	r2, .L39+4
 899 001e 9342     		cmp	r3, r2
 900 0020 0ED0     		beq	.L33
 901              		.loc 1 442 3 discriminator 2
 902 0022 7B68     		ldr	r3, [r7, #4]
 903 0024 1B68     		ldr	r3, [r3]
 904 0026 1D4A     		ldr	r2, .L39+8
 905 0028 9342     		cmp	r3, r2
 906 002a 09D0     		beq	.L33
 907              		.loc 1 442 3 discriminator 3
 908 002c 7B68     		ldr	r3, [r7, #4]
 909 002e 1B68     		ldr	r3, [r3]
 910 0030 1B4A     		ldr	r2, .L39+12
 911 0032 9342     		cmp	r3, r2
 912 0034 04D0     		beq	.L33
 913              		.loc 1 442 3 discriminator 4
 914 0036 4FF4DD71 		mov	r1, #442
 915 003a 1A48     		ldr	r0, .L39+16
 916 003c FFF7FEFF 		bl	assert_failed
 917              	.L33:
 443:STM32Cube_FW_N6/Drivers/STM32N6xx_HAL_Driver/Src/stm32n6xx_hal_ramcfg.c ****   assert_param(IS_RAMCFG_INTERRUPT(Notifications));
 918              		.loc 1 443 3 is_stmt 1
 919 0040 3B68     		ldr	r3, [r7]
 920 0042 002B     		cmp	r3, #0
 921 0044 02D0     		beq	.L34
 922              		.loc 1 443 3 is_stmt 0 discriminator 2
 923 0046 3B68     		ldr	r3, [r7]
 924 0048 032B     		cmp	r3, #3
 925 004a 04D9     		bls	.L35
 926              	.L34:
 927              		.loc 1 443 3 discriminator 3
 928 004c 40F2BB11 		movw	r1, #443
 929 0050 1448     		ldr	r0, .L39+16
 930 0052 FFF7FEFF 		bl	assert_failed
ARM GAS  /tmp/ccJAVlht.s 			page 25


 931              	.L35:
 444:STM32Cube_FW_N6/Drivers/STM32N6xx_HAL_Driver/Src/stm32n6xx_hal_ramcfg.c **** 
 445:STM32Cube_FW_N6/Drivers/STM32N6xx_HAL_Driver/Src/stm32n6xx_hal_ramcfg.c ****   /* Check RAMCFG state */
 446:STM32Cube_FW_N6/Drivers/STM32N6xx_HAL_Driver/Src/stm32n6xx_hal_ramcfg.c ****   if (hramcfg->State == HAL_RAMCFG_STATE_READY)
 932              		.loc 1 446 14 is_stmt 1
 933 0056 7B68     		ldr	r3, [r7, #4]
 934 0058 1B79     		ldrb	r3, [r3, #4]
 935 005a DBB2     		uxtb	r3, r3
 936              		.loc 1 446 6
 937 005c 012B     		cmp	r3, #1
 938 005e 0ED1     		bne	.L36
 447:STM32Cube_FW_N6/Drivers/STM32N6xx_HAL_Driver/Src/stm32n6xx_hal_ramcfg.c ****   {
 448:STM32Cube_FW_N6/Drivers/STM32N6xx_HAL_Driver/Src/stm32n6xx_hal_ramcfg.c ****     /* Update RAMCFG peripheral state */
 449:STM32Cube_FW_N6/Drivers/STM32N6xx_HAL_Driver/Src/stm32n6xx_hal_ramcfg.c ****     hramcfg->State = HAL_RAMCFG_STATE_BUSY;
 939              		.loc 1 449 20
 940 0060 7B68     		ldr	r3, [r7, #4]
 941 0062 0222     		movs	r2, #2
 942 0064 1A71     		strb	r2, [r3, #4]
 450:STM32Cube_FW_N6/Drivers/STM32N6xx_HAL_Driver/Src/stm32n6xx_hal_ramcfg.c **** 
 451:STM32Cube_FW_N6/Drivers/STM32N6xx_HAL_Driver/Src/stm32n6xx_hal_ramcfg.c ****     /* Enable RAMCFG interrupts */
 452:STM32Cube_FW_N6/Drivers/STM32N6xx_HAL_Driver/Src/stm32n6xx_hal_ramcfg.c ****     __HAL_RAMCFG_ENABLE_IT(hramcfg, Notifications);
 943              		.loc 1 452 5
 944 0066 7B68     		ldr	r3, [r7, #4]
 945 0068 1B68     		ldr	r3, [r3]
 946 006a 5968     		ldr	r1, [r3, #4]
 947 006c 7B68     		ldr	r3, [r7, #4]
 948 006e 1B68     		ldr	r3, [r3]
 949 0070 3A68     		ldr	r2, [r7]
 950 0072 0A43     		orrs	r2, r2, r1
 951 0074 5A60     		str	r2, [r3, #4]
 453:STM32Cube_FW_N6/Drivers/STM32N6xx_HAL_Driver/Src/stm32n6xx_hal_ramcfg.c **** 
 454:STM32Cube_FW_N6/Drivers/STM32N6xx_HAL_Driver/Src/stm32n6xx_hal_ramcfg.c ****     /* Update the RAMCFG state */
 455:STM32Cube_FW_N6/Drivers/STM32N6xx_HAL_Driver/Src/stm32n6xx_hal_ramcfg.c ****     hramcfg->State = HAL_RAMCFG_STATE_READY;
 952              		.loc 1 455 20
 953 0076 7B68     		ldr	r3, [r7, #4]
 954 0078 0122     		movs	r2, #1
 955 007a 1A71     		strb	r2, [r3, #4]
 956 007c 04E0     		b	.L37
 957              	.L36:
 456:STM32Cube_FW_N6/Drivers/STM32N6xx_HAL_Driver/Src/stm32n6xx_hal_ramcfg.c **** 
 457:STM32Cube_FW_N6/Drivers/STM32N6xx_HAL_Driver/Src/stm32n6xx_hal_ramcfg.c ****   }
 458:STM32Cube_FW_N6/Drivers/STM32N6xx_HAL_Driver/Src/stm32n6xx_hal_ramcfg.c ****   else
 459:STM32Cube_FW_N6/Drivers/STM32N6xx_HAL_Driver/Src/stm32n6xx_hal_ramcfg.c ****   {
 460:STM32Cube_FW_N6/Drivers/STM32N6xx_HAL_Driver/Src/stm32n6xx_hal_ramcfg.c ****     /* Update the RAMCFG error code and return error */
 461:STM32Cube_FW_N6/Drivers/STM32N6xx_HAL_Driver/Src/stm32n6xx_hal_ramcfg.c ****     hramcfg->ErrorCode = HAL_RAMCFG_ERROR_BUSY;
 958              		.loc 1 461 24
 959 007e 7B68     		ldr	r3, [r7, #4]
 960 0080 0222     		movs	r2, #2
 961 0082 9A60     		str	r2, [r3, #8]
 462:STM32Cube_FW_N6/Drivers/STM32N6xx_HAL_Driver/Src/stm32n6xx_hal_ramcfg.c ****     status = HAL_ERROR;
 962              		.loc 1 462 12
 963 0084 0123     		movs	r3, #1
 964 0086 FB73     		strb	r3, [r7, #15]
 965              	.L37:
 463:STM32Cube_FW_N6/Drivers/STM32N6xx_HAL_Driver/Src/stm32n6xx_hal_ramcfg.c ****   }
 464:STM32Cube_FW_N6/Drivers/STM32N6xx_HAL_Driver/Src/stm32n6xx_hal_ramcfg.c **** 
 465:STM32Cube_FW_N6/Drivers/STM32N6xx_HAL_Driver/Src/stm32n6xx_hal_ramcfg.c ****   return status;
ARM GAS  /tmp/ccJAVlht.s 			page 26


 966              		.loc 1 465 10
 967 0088 FB7B     		ldrb	r3, [r7, #15]	@ zero_extendqisi2
 466:STM32Cube_FW_N6/Drivers/STM32N6xx_HAL_Driver/Src/stm32n6xx_hal_ramcfg.c **** }
 968              		.loc 1 466 1
 969 008a 1846     		mov	r0, r3
 970 008c 1037     		adds	r7, r7, #16
 971              		.cfi_def_cfa_offset 8
 972 008e BD46     		mov	sp, r7
 973              		.cfi_def_cfa_register 13
 974              		@ sp needed
 975 0090 80BD     		pop	{r7, pc}
 976              	.L40:
 977 0092 00BF     		.align	2
 978              	.L39:
 979 0094 80340252 		.word	1375876224
 980 0098 80340242 		.word	1107440768
 981 009c 00350252 		.word	1375876352
 982 00a0 00350242 		.word	1107440896
 983 00a4 00000000 		.word	.LC0
 984              		.cfi_endproc
 985              	.LFE841:
 987              		.section	.text.HAL_RAMCFG_DisableNotification,"ax",%progbits
 988              		.align	1
 989              		.global	HAL_RAMCFG_DisableNotification
 990              		.syntax unified
 991              		.thumb
 992              		.thumb_func
 994              	HAL_RAMCFG_DisableNotification:
 995              	.LFB842:
 467:STM32Cube_FW_N6/Drivers/STM32N6xx_HAL_Driver/Src/stm32n6xx_hal_ramcfg.c **** 
 468:STM32Cube_FW_N6/Drivers/STM32N6xx_HAL_Driver/Src/stm32n6xx_hal_ramcfg.c **** /**
 469:STM32Cube_FW_N6/Drivers/STM32N6xx_HAL_Driver/Src/stm32n6xx_hal_ramcfg.c ****   * @brief  Disable the RAMCFG error interrupts.
 470:STM32Cube_FW_N6/Drivers/STM32N6xx_HAL_Driver/Src/stm32n6xx_hal_ramcfg.c ****   * @param  hramcfg       : Pointer to a RAMCFG_HandleTypeDef structure that
 471:STM32Cube_FW_N6/Drivers/STM32N6xx_HAL_Driver/Src/stm32n6xx_hal_ramcfg.c ****   *                         contains the configuration information for the
 472:STM32Cube_FW_N6/Drivers/STM32N6xx_HAL_Driver/Src/stm32n6xx_hal_ramcfg.c ****   *                         specified RAMCFG instance.
 473:STM32Cube_FW_N6/Drivers/STM32N6xx_HAL_Driver/Src/stm32n6xx_hal_ramcfg.c ****   * @param  Notifications : Select the notification to be disabled.
 474:STM32Cube_FW_N6/Drivers/STM32N6xx_HAL_Driver/Src/stm32n6xx_hal_ramcfg.c ****   *                         This parameter can be :
 475:STM32Cube_FW_N6/Drivers/STM32N6xx_HAL_Driver/Src/stm32n6xx_hal_ramcfg.c ****   *                         RAMCFG_IT_SINGLEERR : Single Error Interrupt.
 476:STM32Cube_FW_N6/Drivers/STM32N6xx_HAL_Driver/Src/stm32n6xx_hal_ramcfg.c ****   *                         RAMCFG_IT_DOUBLEERR : Double Error Interrupt.
 477:STM32Cube_FW_N6/Drivers/STM32N6xx_HAL_Driver/Src/stm32n6xx_hal_ramcfg.c ****   * @retval HAL status.
 478:STM32Cube_FW_N6/Drivers/STM32N6xx_HAL_Driver/Src/stm32n6xx_hal_ramcfg.c ****   */
 479:STM32Cube_FW_N6/Drivers/STM32N6xx_HAL_Driver/Src/stm32n6xx_hal_ramcfg.c **** HAL_StatusTypeDef HAL_RAMCFG_DisableNotification(RAMCFG_HandleTypeDef *hramcfg, uint32_t Notificati
 480:STM32Cube_FW_N6/Drivers/STM32N6xx_HAL_Driver/Src/stm32n6xx_hal_ramcfg.c **** {
 996              		.loc 1 480 1
 997              		.cfi_startproc
 998              		@ args = 0, pretend = 0, frame = 16
 999              		@ frame_needed = 1, uses_anonymous_args = 0
 1000 0000 80B5     		push	{r7, lr}
 1001              		.cfi_def_cfa_offset 8
 1002              		.cfi_offset 7, -8
 1003              		.cfi_offset 14, -4
 1004 0002 84B0     		sub	sp, sp, #16
 1005              		.cfi_def_cfa_offset 24
 1006 0004 00AF     		add	r7, sp, #0
 1007              		.cfi_def_cfa_register 7
 1008 0006 7860     		str	r0, [r7, #4]
 1009 0008 3960     		str	r1, [r7]
ARM GAS  /tmp/ccJAVlht.s 			page 27


 481:STM32Cube_FW_N6/Drivers/STM32N6xx_HAL_Driver/Src/stm32n6xx_hal_ramcfg.c ****   HAL_StatusTypeDef status = HAL_OK;
 1010              		.loc 1 481 21
 1011 000a 0023     		movs	r3, #0
 1012 000c FB73     		strb	r3, [r7, #15]
 482:STM32Cube_FW_N6/Drivers/STM32N6xx_HAL_Driver/Src/stm32n6xx_hal_ramcfg.c ****   /* Check the parameters */
 483:STM32Cube_FW_N6/Drivers/STM32N6xx_HAL_Driver/Src/stm32n6xx_hal_ramcfg.c ****   assert_param(IS_RAMCFG_ECC_INSTANCE(hramcfg->Instance));
 1013              		.loc 1 483 3
 1014 000e 7B68     		ldr	r3, [r7, #4]
 1015 0010 1B68     		ldr	r3, [r3]
 1016 0012 204A     		ldr	r2, .L48
 1017 0014 9342     		cmp	r3, r2
 1018 0016 13D0     		beq	.L42
 1019              		.loc 1 483 3 is_stmt 0 discriminator 1
 1020 0018 7B68     		ldr	r3, [r7, #4]
 1021 001a 1B68     		ldr	r3, [r3]
 1022 001c 1E4A     		ldr	r2, .L48+4
 1023 001e 9342     		cmp	r3, r2
 1024 0020 0ED0     		beq	.L42
 1025              		.loc 1 483 3 discriminator 2
 1026 0022 7B68     		ldr	r3, [r7, #4]
 1027 0024 1B68     		ldr	r3, [r3]
 1028 0026 1D4A     		ldr	r2, .L48+8
 1029 0028 9342     		cmp	r3, r2
 1030 002a 09D0     		beq	.L42
 1031              		.loc 1 483 3 discriminator 3
 1032 002c 7B68     		ldr	r3, [r7, #4]
 1033 002e 1B68     		ldr	r3, [r3]
 1034 0030 1B4A     		ldr	r2, .L48+12
 1035 0032 9342     		cmp	r3, r2
 1036 0034 04D0     		beq	.L42
 1037              		.loc 1 483 3 discriminator 4
 1038 0036 40F2E311 		movw	r1, #483
 1039 003a 1A48     		ldr	r0, .L48+16
 1040 003c FFF7FEFF 		bl	assert_failed
 1041              	.L42:
 484:STM32Cube_FW_N6/Drivers/STM32N6xx_HAL_Driver/Src/stm32n6xx_hal_ramcfg.c ****   assert_param(IS_RAMCFG_INTERRUPT(Notifications));
 1042              		.loc 1 484 3 is_stmt 1
 1043 0040 3B68     		ldr	r3, [r7]
 1044 0042 002B     		cmp	r3, #0
 1045 0044 02D0     		beq	.L43
 1046              		.loc 1 484 3 is_stmt 0 discriminator 2
 1047 0046 3B68     		ldr	r3, [r7]
 1048 0048 032B     		cmp	r3, #3
 1049 004a 04D9     		bls	.L44
 1050              	.L43:
 1051              		.loc 1 484 3 discriminator 3
 1052 004c 4FF4F271 		mov	r1, #484
 1053 0050 1448     		ldr	r0, .L48+16
 1054 0052 FFF7FEFF 		bl	assert_failed
 1055              	.L44:
 485:STM32Cube_FW_N6/Drivers/STM32N6xx_HAL_Driver/Src/stm32n6xx_hal_ramcfg.c **** 
 486:STM32Cube_FW_N6/Drivers/STM32N6xx_HAL_Driver/Src/stm32n6xx_hal_ramcfg.c ****   /* Check RAMCFG state */
 487:STM32Cube_FW_N6/Drivers/STM32N6xx_HAL_Driver/Src/stm32n6xx_hal_ramcfg.c ****   if (hramcfg->State == HAL_RAMCFG_STATE_READY)
 1056              		.loc 1 487 14 is_stmt 1
 1057 0056 7B68     		ldr	r3, [r7, #4]
 1058 0058 1B79     		ldrb	r3, [r3, #4]
 1059 005a DBB2     		uxtb	r3, r3
ARM GAS  /tmp/ccJAVlht.s 			page 28


 1060              		.loc 1 487 6
 1061 005c 012B     		cmp	r3, #1
 1062 005e 0FD1     		bne	.L45
 488:STM32Cube_FW_N6/Drivers/STM32N6xx_HAL_Driver/Src/stm32n6xx_hal_ramcfg.c ****   {
 489:STM32Cube_FW_N6/Drivers/STM32N6xx_HAL_Driver/Src/stm32n6xx_hal_ramcfg.c ****     /* Update RAMCFG peripheral state */
 490:STM32Cube_FW_N6/Drivers/STM32N6xx_HAL_Driver/Src/stm32n6xx_hal_ramcfg.c ****     hramcfg->State = HAL_RAMCFG_STATE_BUSY;
 1063              		.loc 1 490 20
 1064 0060 7B68     		ldr	r3, [r7, #4]
 1065 0062 0222     		movs	r2, #2
 1066 0064 1A71     		strb	r2, [r3, #4]
 491:STM32Cube_FW_N6/Drivers/STM32N6xx_HAL_Driver/Src/stm32n6xx_hal_ramcfg.c **** 
 492:STM32Cube_FW_N6/Drivers/STM32N6xx_HAL_Driver/Src/stm32n6xx_hal_ramcfg.c ****     /* Disable RAMCFG interrupts */
 493:STM32Cube_FW_N6/Drivers/STM32N6xx_HAL_Driver/Src/stm32n6xx_hal_ramcfg.c ****     __HAL_RAMCFG_DISABLE_IT(hramcfg, Notifications);
 1067              		.loc 1 493 5
 1068 0066 7B68     		ldr	r3, [r7, #4]
 1069 0068 1B68     		ldr	r3, [r3]
 1070 006a 5968     		ldr	r1, [r3, #4]
 1071 006c 3B68     		ldr	r3, [r7]
 1072 006e DA43     		mvns	r2, r3
 1073 0070 7B68     		ldr	r3, [r7, #4]
 1074 0072 1B68     		ldr	r3, [r3]
 1075 0074 0A40     		ands	r2, r2, r1
 1076 0076 5A60     		str	r2, [r3, #4]
 494:STM32Cube_FW_N6/Drivers/STM32N6xx_HAL_Driver/Src/stm32n6xx_hal_ramcfg.c **** 
 495:STM32Cube_FW_N6/Drivers/STM32N6xx_HAL_Driver/Src/stm32n6xx_hal_ramcfg.c ****     /* Update the RAMCFG state */
 496:STM32Cube_FW_N6/Drivers/STM32N6xx_HAL_Driver/Src/stm32n6xx_hal_ramcfg.c ****     hramcfg->State = HAL_RAMCFG_STATE_READY;
 1077              		.loc 1 496 20
 1078 0078 7B68     		ldr	r3, [r7, #4]
 1079 007a 0122     		movs	r2, #1
 1080 007c 1A71     		strb	r2, [r3, #4]
 1081 007e 04E0     		b	.L46
 1082              	.L45:
 497:STM32Cube_FW_N6/Drivers/STM32N6xx_HAL_Driver/Src/stm32n6xx_hal_ramcfg.c ****   }
 498:STM32Cube_FW_N6/Drivers/STM32N6xx_HAL_Driver/Src/stm32n6xx_hal_ramcfg.c ****   else
 499:STM32Cube_FW_N6/Drivers/STM32N6xx_HAL_Driver/Src/stm32n6xx_hal_ramcfg.c ****   {
 500:STM32Cube_FW_N6/Drivers/STM32N6xx_HAL_Driver/Src/stm32n6xx_hal_ramcfg.c ****     /* Update the RAMCFG error code and return error */
 501:STM32Cube_FW_N6/Drivers/STM32N6xx_HAL_Driver/Src/stm32n6xx_hal_ramcfg.c ****     hramcfg->ErrorCode = HAL_RAMCFG_ERROR_BUSY;
 1083              		.loc 1 501 24
 1084 0080 7B68     		ldr	r3, [r7, #4]
 1085 0082 0222     		movs	r2, #2
 1086 0084 9A60     		str	r2, [r3, #8]
 502:STM32Cube_FW_N6/Drivers/STM32N6xx_HAL_Driver/Src/stm32n6xx_hal_ramcfg.c ****     status = HAL_ERROR;
 1087              		.loc 1 502 12
 1088 0086 0123     		movs	r3, #1
 1089 0088 FB73     		strb	r3, [r7, #15]
 1090              	.L46:
 503:STM32Cube_FW_N6/Drivers/STM32N6xx_HAL_Driver/Src/stm32n6xx_hal_ramcfg.c ****   }
 504:STM32Cube_FW_N6/Drivers/STM32N6xx_HAL_Driver/Src/stm32n6xx_hal_ramcfg.c **** 
 505:STM32Cube_FW_N6/Drivers/STM32N6xx_HAL_Driver/Src/stm32n6xx_hal_ramcfg.c ****   return status;
 1091              		.loc 1 505 10
 1092 008a FB7B     		ldrb	r3, [r7, #15]	@ zero_extendqisi2
 506:STM32Cube_FW_N6/Drivers/STM32N6xx_HAL_Driver/Src/stm32n6xx_hal_ramcfg.c **** }
 1093              		.loc 1 506 1
 1094 008c 1846     		mov	r0, r3
 1095 008e 1037     		adds	r7, r7, #16
 1096              		.cfi_def_cfa_offset 8
 1097 0090 BD46     		mov	sp, r7
ARM GAS  /tmp/ccJAVlht.s 			page 29


 1098              		.cfi_def_cfa_register 13
 1099              		@ sp needed
 1100 0092 80BD     		pop	{r7, pc}
 1101              	.L49:
 1102              		.align	2
 1103              	.L48:
 1104 0094 80340252 		.word	1375876224
 1105 0098 80340242 		.word	1107440768
 1106 009c 00350252 		.word	1375876352
 1107 00a0 00350242 		.word	1107440896
 1108 00a4 00000000 		.word	.LC0
 1109              		.cfi_endproc
 1110              	.LFE842:
 1112              		.section	.text.HAL_RAMCFG_IsECCSingleErrorDetected,"ax",%progbits
 1113              		.align	1
 1114              		.global	HAL_RAMCFG_IsECCSingleErrorDetected
 1115              		.syntax unified
 1116              		.thumb
 1117              		.thumb_func
 1119              	HAL_RAMCFG_IsECCSingleErrorDetected:
 1120              	.LFB843:
 507:STM32Cube_FW_N6/Drivers/STM32N6xx_HAL_Driver/Src/stm32n6xx_hal_ramcfg.c **** 
 508:STM32Cube_FW_N6/Drivers/STM32N6xx_HAL_Driver/Src/stm32n6xx_hal_ramcfg.c **** /**
 509:STM32Cube_FW_N6/Drivers/STM32N6xx_HAL_Driver/Src/stm32n6xx_hal_ramcfg.c ****   * @brief  Check if an ECC single error has occurred.
 510:STM32Cube_FW_N6/Drivers/STM32N6xx_HAL_Driver/Src/stm32n6xx_hal_ramcfg.c ****   * @param  hramcfg       : Pointer to a RAMCFG_HandleTypeDef structure that
 511:STM32Cube_FW_N6/Drivers/STM32N6xx_HAL_Driver/Src/stm32n6xx_hal_ramcfg.c ****   *                         contains the configuration information for the
 512:STM32Cube_FW_N6/Drivers/STM32N6xx_HAL_Driver/Src/stm32n6xx_hal_ramcfg.c ****   *                         specified RAMCFG instance.
 513:STM32Cube_FW_N6/Drivers/STM32N6xx_HAL_Driver/Src/stm32n6xx_hal_ramcfg.c ****   * @retval State of bit (1 or 0).
 514:STM32Cube_FW_N6/Drivers/STM32N6xx_HAL_Driver/Src/stm32n6xx_hal_ramcfg.c ****   */
 515:STM32Cube_FW_N6/Drivers/STM32N6xx_HAL_Driver/Src/stm32n6xx_hal_ramcfg.c **** uint32_t HAL_RAMCFG_IsECCSingleErrorDetected(const RAMCFG_HandleTypeDef *hramcfg)
 516:STM32Cube_FW_N6/Drivers/STM32N6xx_HAL_Driver/Src/stm32n6xx_hal_ramcfg.c **** {
 1121              		.loc 1 516 1
 1122              		.cfi_startproc
 1123              		@ args = 0, pretend = 0, frame = 8
 1124              		@ frame_needed = 1, uses_anonymous_args = 0
 1125 0000 80B5     		push	{r7, lr}
 1126              		.cfi_def_cfa_offset 8
 1127              		.cfi_offset 7, -8
 1128              		.cfi_offset 14, -4
 1129 0002 82B0     		sub	sp, sp, #8
 1130              		.cfi_def_cfa_offset 16
 1131 0004 00AF     		add	r7, sp, #0
 1132              		.cfi_def_cfa_register 7
 1133 0006 7860     		str	r0, [r7, #4]
 517:STM32Cube_FW_N6/Drivers/STM32N6xx_HAL_Driver/Src/stm32n6xx_hal_ramcfg.c ****   /* Check the parameters */
 518:STM32Cube_FW_N6/Drivers/STM32N6xx_HAL_Driver/Src/stm32n6xx_hal_ramcfg.c ****   assert_param(IS_RAMCFG_ECC_INSTANCE(hramcfg->Instance));
 1134              		.loc 1 518 3
 1135 0008 7B68     		ldr	r3, [r7, #4]
 1136 000a 1B68     		ldr	r3, [r3]
 1137 000c 124A     		ldr	r2, .L55
 1138 000e 9342     		cmp	r3, r2
 1139 0010 13D0     		beq	.L51
 1140              		.loc 1 518 3 is_stmt 0 discriminator 1
 1141 0012 7B68     		ldr	r3, [r7, #4]
 1142 0014 1B68     		ldr	r3, [r3]
 1143 0016 114A     		ldr	r2, .L55+4
 1144 0018 9342     		cmp	r3, r2
ARM GAS  /tmp/ccJAVlht.s 			page 30


 1145 001a 0ED0     		beq	.L51
 1146              		.loc 1 518 3 discriminator 2
 1147 001c 7B68     		ldr	r3, [r7, #4]
 1148 001e 1B68     		ldr	r3, [r3]
 1149 0020 0F4A     		ldr	r2, .L55+8
 1150 0022 9342     		cmp	r3, r2
 1151 0024 09D0     		beq	.L51
 1152              		.loc 1 518 3 discriminator 3
 1153 0026 7B68     		ldr	r3, [r7, #4]
 1154 0028 1B68     		ldr	r3, [r3]
 1155 002a 0E4A     		ldr	r2, .L55+12
 1156 002c 9342     		cmp	r3, r2
 1157 002e 04D0     		beq	.L51
 1158              		.loc 1 518 3 discriminator 4
 1159 0030 40F20621 		movw	r1, #518
 1160 0034 0C48     		ldr	r0, .L55+16
 1161 0036 FFF7FEFF 		bl	assert_failed
 1162              	.L51:
 519:STM32Cube_FW_N6/Drivers/STM32N6xx_HAL_Driver/Src/stm32n6xx_hal_ramcfg.c **** 
 520:STM32Cube_FW_N6/Drivers/STM32N6xx_HAL_Driver/Src/stm32n6xx_hal_ramcfg.c ****   /* Return the state of SEDC flag */
 521:STM32Cube_FW_N6/Drivers/STM32N6xx_HAL_Driver/Src/stm32n6xx_hal_ramcfg.c ****   return ((READ_BIT(hramcfg->Instance->ISR, RAMCFG_FLAG_SINGLEERR) == (RAMCFG_FLAG_SINGLEERR)) ? 1U
 1163              		.loc 1 521 12 is_stmt 1
 1164 003a 7B68     		ldr	r3, [r7, #4]
 1165 003c 1B68     		ldr	r3, [r3]
 1166 003e 9B68     		ldr	r3, [r3, #8]
 1167 0040 03F00103 		and	r3, r3, #1
 1168              		.loc 1 521 102
 1169 0044 012B     		cmp	r3, #1
 1170 0046 01D1     		bne	.L52
 1171              		.loc 1 521 102 is_stmt 0 discriminator 1
 1172 0048 0123     		movs	r3, #1
 1173              		.loc 1 521 102
 1174 004a 00E0     		b	.L54
 1175              	.L52:
 1176              		.loc 1 521 102 discriminator 2
 1177 004c 0023     		movs	r3, #0
 1178              	.L54:
 522:STM32Cube_FW_N6/Drivers/STM32N6xx_HAL_Driver/Src/stm32n6xx_hal_ramcfg.c **** }
 1179              		.loc 1 522 1 is_stmt 1
 1180 004e 1846     		mov	r0, r3
 1181 0050 0837     		adds	r7, r7, #8
 1182              		.cfi_def_cfa_offset 8
 1183 0052 BD46     		mov	sp, r7
 1184              		.cfi_def_cfa_register 13
 1185              		@ sp needed
 1186 0054 80BD     		pop	{r7, pc}
 1187              	.L56:
 1188 0056 00BF     		.align	2
 1189              	.L55:
 1190 0058 80340252 		.word	1375876224
 1191 005c 80340242 		.word	1107440768
 1192 0060 00350252 		.word	1375876352
 1193 0064 00350242 		.word	1107440896
 1194 0068 00000000 		.word	.LC0
 1195              		.cfi_endproc
 1196              	.LFE843:
 1198              		.section	.text.HAL_RAMCFG_IsECCDoubleErrorDetected,"ax",%progbits
ARM GAS  /tmp/ccJAVlht.s 			page 31


 1199              		.align	1
 1200              		.global	HAL_RAMCFG_IsECCDoubleErrorDetected
 1201              		.syntax unified
 1202              		.thumb
 1203              		.thumb_func
 1205              	HAL_RAMCFG_IsECCDoubleErrorDetected:
 1206              	.LFB844:
 523:STM32Cube_FW_N6/Drivers/STM32N6xx_HAL_Driver/Src/stm32n6xx_hal_ramcfg.c **** 
 524:STM32Cube_FW_N6/Drivers/STM32N6xx_HAL_Driver/Src/stm32n6xx_hal_ramcfg.c **** /**
 525:STM32Cube_FW_N6/Drivers/STM32N6xx_HAL_Driver/Src/stm32n6xx_hal_ramcfg.c ****   * @brief  Check if an ECC double error was occurred.
 526:STM32Cube_FW_N6/Drivers/STM32N6xx_HAL_Driver/Src/stm32n6xx_hal_ramcfg.c ****   * @param  hramcfg       : Pointer to a RAMCFG_HandleTypeDef structure that
 527:STM32Cube_FW_N6/Drivers/STM32N6xx_HAL_Driver/Src/stm32n6xx_hal_ramcfg.c ****   *                         contains the configuration information for the
 528:STM32Cube_FW_N6/Drivers/STM32N6xx_HAL_Driver/Src/stm32n6xx_hal_ramcfg.c ****   *                         specified RAMCFG instance.
 529:STM32Cube_FW_N6/Drivers/STM32N6xx_HAL_Driver/Src/stm32n6xx_hal_ramcfg.c ****   * @retval State of bit (1 or 0).
 530:STM32Cube_FW_N6/Drivers/STM32N6xx_HAL_Driver/Src/stm32n6xx_hal_ramcfg.c ****   */
 531:STM32Cube_FW_N6/Drivers/STM32N6xx_HAL_Driver/Src/stm32n6xx_hal_ramcfg.c **** uint32_t HAL_RAMCFG_IsECCDoubleErrorDetected(const RAMCFG_HandleTypeDef *hramcfg)
 532:STM32Cube_FW_N6/Drivers/STM32N6xx_HAL_Driver/Src/stm32n6xx_hal_ramcfg.c **** {
 1207              		.loc 1 532 1
 1208              		.cfi_startproc
 1209              		@ args = 0, pretend = 0, frame = 8
 1210              		@ frame_needed = 1, uses_anonymous_args = 0
 1211 0000 80B5     		push	{r7, lr}
 1212              		.cfi_def_cfa_offset 8
 1213              		.cfi_offset 7, -8
 1214              		.cfi_offset 14, -4
 1215 0002 82B0     		sub	sp, sp, #8
 1216              		.cfi_def_cfa_offset 16
 1217 0004 00AF     		add	r7, sp, #0
 1218              		.cfi_def_cfa_register 7
 1219 0006 7860     		str	r0, [r7, #4]
 533:STM32Cube_FW_N6/Drivers/STM32N6xx_HAL_Driver/Src/stm32n6xx_hal_ramcfg.c ****   /* Check the parameters */
 534:STM32Cube_FW_N6/Drivers/STM32N6xx_HAL_Driver/Src/stm32n6xx_hal_ramcfg.c ****   assert_param(IS_RAMCFG_ECC_INSTANCE(hramcfg->Instance));
 1220              		.loc 1 534 3
 1221 0008 7B68     		ldr	r3, [r7, #4]
 1222 000a 1B68     		ldr	r3, [r3]
 1223 000c 124A     		ldr	r2, .L62
 1224 000e 9342     		cmp	r3, r2
 1225 0010 13D0     		beq	.L58
 1226              		.loc 1 534 3 is_stmt 0 discriminator 1
 1227 0012 7B68     		ldr	r3, [r7, #4]
 1228 0014 1B68     		ldr	r3, [r3]
 1229 0016 114A     		ldr	r2, .L62+4
 1230 0018 9342     		cmp	r3, r2
 1231 001a 0ED0     		beq	.L58
 1232              		.loc 1 534 3 discriminator 2
 1233 001c 7B68     		ldr	r3, [r7, #4]
 1234 001e 1B68     		ldr	r3, [r3]
 1235 0020 0F4A     		ldr	r2, .L62+8
 1236 0022 9342     		cmp	r3, r2
 1237 0024 09D0     		beq	.L58
 1238              		.loc 1 534 3 discriminator 3
 1239 0026 7B68     		ldr	r3, [r7, #4]
 1240 0028 1B68     		ldr	r3, [r3]
 1241 002a 0E4A     		ldr	r2, .L62+12
 1242 002c 9342     		cmp	r3, r2
 1243 002e 04D0     		beq	.L58
 1244              		.loc 1 534 3 discriminator 4
ARM GAS  /tmp/ccJAVlht.s 			page 32


 1245 0030 40F21621 		movw	r1, #534
 1246 0034 0C48     		ldr	r0, .L62+16
 1247 0036 FFF7FEFF 		bl	assert_failed
 1248              	.L58:
 535:STM32Cube_FW_N6/Drivers/STM32N6xx_HAL_Driver/Src/stm32n6xx_hal_ramcfg.c **** 
 536:STM32Cube_FW_N6/Drivers/STM32N6xx_HAL_Driver/Src/stm32n6xx_hal_ramcfg.c ****   /* Return the state of DED flag */
 537:STM32Cube_FW_N6/Drivers/STM32N6xx_HAL_Driver/Src/stm32n6xx_hal_ramcfg.c ****   return ((READ_BIT(hramcfg->Instance->ISR, RAMCFG_FLAG_DOUBLEERR) == (RAMCFG_FLAG_DOUBLEERR)) ? 1U
 1249              		.loc 1 537 12 is_stmt 1
 1250 003a 7B68     		ldr	r3, [r7, #4]
 1251 003c 1B68     		ldr	r3, [r3]
 1252 003e 9B68     		ldr	r3, [r3, #8]
 1253 0040 03F00203 		and	r3, r3, #2
 1254              		.loc 1 537 102
 1255 0044 022B     		cmp	r3, #2
 1256 0046 01D1     		bne	.L59
 1257              		.loc 1 537 102 is_stmt 0 discriminator 1
 1258 0048 0123     		movs	r3, #1
 1259              		.loc 1 537 102
 1260 004a 00E0     		b	.L61
 1261              	.L59:
 1262              		.loc 1 537 102 discriminator 2
 1263 004c 0023     		movs	r3, #0
 1264              	.L61:
 538:STM32Cube_FW_N6/Drivers/STM32N6xx_HAL_Driver/Src/stm32n6xx_hal_ramcfg.c **** }
 1265              		.loc 1 538 1 is_stmt 1
 1266 004e 1846     		mov	r0, r3
 1267 0050 0837     		adds	r7, r7, #8
 1268              		.cfi_def_cfa_offset 8
 1269 0052 BD46     		mov	sp, r7
 1270              		.cfi_def_cfa_register 13
 1271              		@ sp needed
 1272 0054 80BD     		pop	{r7, pc}
 1273              	.L63:
 1274 0056 00BF     		.align	2
 1275              	.L62:
 1276 0058 80340252 		.word	1375876224
 1277 005c 80340242 		.word	1107440768
 1278 0060 00350252 		.word	1375876352
 1279 0064 00350242 		.word	1107440896
 1280 0068 00000000 		.word	.LC0
 1281              		.cfi_endproc
 1282              	.LFE844:
 1284              		.section	.text.HAL_RAMCFG_GetSingleErrorAddress,"ax",%progbits
 1285              		.align	1
 1286              		.global	HAL_RAMCFG_GetSingleErrorAddress
 1287              		.syntax unified
 1288              		.thumb
 1289              		.thumb_func
 1291              	HAL_RAMCFG_GetSingleErrorAddress:
 1292              	.LFB845:
 539:STM32Cube_FW_N6/Drivers/STM32N6xx_HAL_Driver/Src/stm32n6xx_hal_ramcfg.c **** 
 540:STM32Cube_FW_N6/Drivers/STM32N6xx_HAL_Driver/Src/stm32n6xx_hal_ramcfg.c **** /**
 541:STM32Cube_FW_N6/Drivers/STM32N6xx_HAL_Driver/Src/stm32n6xx_hal_ramcfg.c ****   * @brief  Get the RAMCFG single error address.
 542:STM32Cube_FW_N6/Drivers/STM32N6xx_HAL_Driver/Src/stm32n6xx_hal_ramcfg.c ****   * @param  hramcfg       : Pointer to a RAMCFG_HandleTypeDef structure that
 543:STM32Cube_FW_N6/Drivers/STM32N6xx_HAL_Driver/Src/stm32n6xx_hal_ramcfg.c ****   *                         contains the configuration information for the
 544:STM32Cube_FW_N6/Drivers/STM32N6xx_HAL_Driver/Src/stm32n6xx_hal_ramcfg.c ****   *                         specified RAMCFG instance.
 545:STM32Cube_FW_N6/Drivers/STM32N6xx_HAL_Driver/Src/stm32n6xx_hal_ramcfg.c ****   * @retval Single error address offset.
ARM GAS  /tmp/ccJAVlht.s 			page 33


 546:STM32Cube_FW_N6/Drivers/STM32N6xx_HAL_Driver/Src/stm32n6xx_hal_ramcfg.c ****   */
 547:STM32Cube_FW_N6/Drivers/STM32N6xx_HAL_Driver/Src/stm32n6xx_hal_ramcfg.c **** uint32_t HAL_RAMCFG_GetSingleErrorAddress(const RAMCFG_HandleTypeDef *hramcfg)
 548:STM32Cube_FW_N6/Drivers/STM32N6xx_HAL_Driver/Src/stm32n6xx_hal_ramcfg.c **** {
 1293              		.loc 1 548 1
 1294              		.cfi_startproc
 1295              		@ args = 0, pretend = 0, frame = 8
 1296              		@ frame_needed = 1, uses_anonymous_args = 0
 1297 0000 80B5     		push	{r7, lr}
 1298              		.cfi_def_cfa_offset 8
 1299              		.cfi_offset 7, -8
 1300              		.cfi_offset 14, -4
 1301 0002 82B0     		sub	sp, sp, #8
 1302              		.cfi_def_cfa_offset 16
 1303 0004 00AF     		add	r7, sp, #0
 1304              		.cfi_def_cfa_register 7
 1305 0006 7860     		str	r0, [r7, #4]
 549:STM32Cube_FW_N6/Drivers/STM32N6xx_HAL_Driver/Src/stm32n6xx_hal_ramcfg.c ****   /* Check the parameters */
 550:STM32Cube_FW_N6/Drivers/STM32N6xx_HAL_Driver/Src/stm32n6xx_hal_ramcfg.c ****   assert_param(IS_RAMCFG_ECC_INSTANCE(hramcfg->Instance));
 1306              		.loc 1 550 3
 1307 0008 7B68     		ldr	r3, [r7, #4]
 1308 000a 1B68     		ldr	r3, [r3]
 1309 000c 0E4A     		ldr	r2, .L67
 1310 000e 9342     		cmp	r3, r2
 1311 0010 13D0     		beq	.L65
 1312              		.loc 1 550 3 is_stmt 0 discriminator 1
 1313 0012 7B68     		ldr	r3, [r7, #4]
 1314 0014 1B68     		ldr	r3, [r3]
 1315 0016 0D4A     		ldr	r2, .L67+4
 1316 0018 9342     		cmp	r3, r2
 1317 001a 0ED0     		beq	.L65
 1318              		.loc 1 550 3 discriminator 2
 1319 001c 7B68     		ldr	r3, [r7, #4]
 1320 001e 1B68     		ldr	r3, [r3]
 1321 0020 0B4A     		ldr	r2, .L67+8
 1322 0022 9342     		cmp	r3, r2
 1323 0024 09D0     		beq	.L65
 1324              		.loc 1 550 3 discriminator 3
 1325 0026 7B68     		ldr	r3, [r7, #4]
 1326 0028 1B68     		ldr	r3, [r3]
 1327 002a 0A4A     		ldr	r2, .L67+12
 1328 002c 9342     		cmp	r3, r2
 1329 002e 04D0     		beq	.L65
 1330              		.loc 1 550 3 discriminator 4
 1331 0030 40F22621 		movw	r1, #550
 1332 0034 0848     		ldr	r0, .L67+16
 1333 0036 FFF7FEFF 		bl	assert_failed
 1334              	.L65:
 551:STM32Cube_FW_N6/Drivers/STM32N6xx_HAL_Driver/Src/stm32n6xx_hal_ramcfg.c **** 
 552:STM32Cube_FW_N6/Drivers/STM32N6xx_HAL_Driver/Src/stm32n6xx_hal_ramcfg.c ****   return hramcfg->Instance->ESEAR;
 1335              		.loc 1 552 17 is_stmt 1
 1336 003a 7B68     		ldr	r3, [r7, #4]
 1337 003c 1B68     		ldr	r3, [r3]
 1338              		.loc 1 552 27
 1339 003e DB68     		ldr	r3, [r3, #12]
 553:STM32Cube_FW_N6/Drivers/STM32N6xx_HAL_Driver/Src/stm32n6xx_hal_ramcfg.c **** }
 1340              		.loc 1 553 1
 1341 0040 1846     		mov	r0, r3
ARM GAS  /tmp/ccJAVlht.s 			page 34


 1342 0042 0837     		adds	r7, r7, #8
 1343              		.cfi_def_cfa_offset 8
 1344 0044 BD46     		mov	sp, r7
 1345              		.cfi_def_cfa_register 13
 1346              		@ sp needed
 1347 0046 80BD     		pop	{r7, pc}
 1348              	.L68:
 1349              		.align	2
 1350              	.L67:
 1351 0048 80340252 		.word	1375876224
 1352 004c 80340242 		.word	1107440768
 1353 0050 00350252 		.word	1375876352
 1354 0054 00350242 		.word	1107440896
 1355 0058 00000000 		.word	.LC0
 1356              		.cfi_endproc
 1357              	.LFE845:
 1359              		.section	.text.HAL_RAMCFG_GetDoubleErrorAddress,"ax",%progbits
 1360              		.align	1
 1361              		.global	HAL_RAMCFG_GetDoubleErrorAddress
 1362              		.syntax unified
 1363              		.thumb
 1364              		.thumb_func
 1366              	HAL_RAMCFG_GetDoubleErrorAddress:
 1367              	.LFB846:
 554:STM32Cube_FW_N6/Drivers/STM32N6xx_HAL_Driver/Src/stm32n6xx_hal_ramcfg.c **** 
 555:STM32Cube_FW_N6/Drivers/STM32N6xx_HAL_Driver/Src/stm32n6xx_hal_ramcfg.c **** /**
 556:STM32Cube_FW_N6/Drivers/STM32N6xx_HAL_Driver/Src/stm32n6xx_hal_ramcfg.c ****   * @brief  Get the RAMCFG double error address.
 557:STM32Cube_FW_N6/Drivers/STM32N6xx_HAL_Driver/Src/stm32n6xx_hal_ramcfg.c ****   * @param  hramcfg       : Pointer to a RAMCFG_HandleTypeDef structure that
 558:STM32Cube_FW_N6/Drivers/STM32N6xx_HAL_Driver/Src/stm32n6xx_hal_ramcfg.c ****   *                         contains the configuration information for the
 559:STM32Cube_FW_N6/Drivers/STM32N6xx_HAL_Driver/Src/stm32n6xx_hal_ramcfg.c ****   *                         specified RAMCFG instance.
 560:STM32Cube_FW_N6/Drivers/STM32N6xx_HAL_Driver/Src/stm32n6xx_hal_ramcfg.c ****   * @retval Double error address offset.
 561:STM32Cube_FW_N6/Drivers/STM32N6xx_HAL_Driver/Src/stm32n6xx_hal_ramcfg.c ****   */
 562:STM32Cube_FW_N6/Drivers/STM32N6xx_HAL_Driver/Src/stm32n6xx_hal_ramcfg.c **** uint32_t HAL_RAMCFG_GetDoubleErrorAddress(const RAMCFG_HandleTypeDef *hramcfg)
 563:STM32Cube_FW_N6/Drivers/STM32N6xx_HAL_Driver/Src/stm32n6xx_hal_ramcfg.c **** {
 1368              		.loc 1 563 1
 1369              		.cfi_startproc
 1370              		@ args = 0, pretend = 0, frame = 8
 1371              		@ frame_needed = 1, uses_anonymous_args = 0
 1372 0000 80B5     		push	{r7, lr}
 1373              		.cfi_def_cfa_offset 8
 1374              		.cfi_offset 7, -8
 1375              		.cfi_offset 14, -4
 1376 0002 82B0     		sub	sp, sp, #8
 1377              		.cfi_def_cfa_offset 16
 1378 0004 00AF     		add	r7, sp, #0
 1379              		.cfi_def_cfa_register 7
 1380 0006 7860     		str	r0, [r7, #4]
 564:STM32Cube_FW_N6/Drivers/STM32N6xx_HAL_Driver/Src/stm32n6xx_hal_ramcfg.c ****   /* Check the parameters */
 565:STM32Cube_FW_N6/Drivers/STM32N6xx_HAL_Driver/Src/stm32n6xx_hal_ramcfg.c ****   assert_param(IS_RAMCFG_ECC_INSTANCE(hramcfg->Instance));
 1381              		.loc 1 565 3
 1382 0008 7B68     		ldr	r3, [r7, #4]
 1383 000a 1B68     		ldr	r3, [r3]
 1384 000c 0E4A     		ldr	r2, .L72
 1385 000e 9342     		cmp	r3, r2
 1386 0010 13D0     		beq	.L70
 1387              		.loc 1 565 3 is_stmt 0 discriminator 1
 1388 0012 7B68     		ldr	r3, [r7, #4]
ARM GAS  /tmp/ccJAVlht.s 			page 35


 1389 0014 1B68     		ldr	r3, [r3]
 1390 0016 0D4A     		ldr	r2, .L72+4
 1391 0018 9342     		cmp	r3, r2
 1392 001a 0ED0     		beq	.L70
 1393              		.loc 1 565 3 discriminator 2
 1394 001c 7B68     		ldr	r3, [r7, #4]
 1395 001e 1B68     		ldr	r3, [r3]
 1396 0020 0B4A     		ldr	r2, .L72+8
 1397 0022 9342     		cmp	r3, r2
 1398 0024 09D0     		beq	.L70
 1399              		.loc 1 565 3 discriminator 3
 1400 0026 7B68     		ldr	r3, [r7, #4]
 1401 0028 1B68     		ldr	r3, [r3]
 1402 002a 0A4A     		ldr	r2, .L72+12
 1403 002c 9342     		cmp	r3, r2
 1404 002e 04D0     		beq	.L70
 1405              		.loc 1 565 3 discriminator 4
 1406 0030 40F23521 		movw	r1, #565
 1407 0034 0848     		ldr	r0, .L72+16
 1408 0036 FFF7FEFF 		bl	assert_failed
 1409              	.L70:
 566:STM32Cube_FW_N6/Drivers/STM32N6xx_HAL_Driver/Src/stm32n6xx_hal_ramcfg.c **** 
 567:STM32Cube_FW_N6/Drivers/STM32N6xx_HAL_Driver/Src/stm32n6xx_hal_ramcfg.c ****   return hramcfg->Instance->EDEAR;
 1410              		.loc 1 567 17 is_stmt 1
 1411 003a 7B68     		ldr	r3, [r7, #4]
 1412 003c 1B68     		ldr	r3, [r3]
 1413              		.loc 1 567 27
 1414 003e 1B69     		ldr	r3, [r3, #16]
 568:STM32Cube_FW_N6/Drivers/STM32N6xx_HAL_Driver/Src/stm32n6xx_hal_ramcfg.c **** }
 1415              		.loc 1 568 1
 1416 0040 1846     		mov	r0, r3
 1417 0042 0837     		adds	r7, r7, #8
 1418              		.cfi_def_cfa_offset 8
 1419 0044 BD46     		mov	sp, r7
 1420              		.cfi_def_cfa_register 13
 1421              		@ sp needed
 1422 0046 80BD     		pop	{r7, pc}
 1423              	.L73:
 1424              		.align	2
 1425              	.L72:
 1426 0048 80340252 		.word	1375876224
 1427 004c 80340242 		.word	1107440768
 1428 0050 00350252 		.word	1375876352
 1429 0054 00350242 		.word	1107440896
 1430 0058 00000000 		.word	.LC0
 1431              		.cfi_endproc
 1432              	.LFE846:
 1434              		.section	.text.HAL_RAMCFG_Erase,"ax",%progbits
 1435              		.align	1
 1436              		.global	HAL_RAMCFG_Erase
 1437              		.syntax unified
 1438              		.thumb
 1439              		.thumb_func
 1441              	HAL_RAMCFG_Erase:
 1442              	.LFB847:
 569:STM32Cube_FW_N6/Drivers/STM32N6xx_HAL_Driver/Src/stm32n6xx_hal_ramcfg.c **** 
 570:STM32Cube_FW_N6/Drivers/STM32N6xx_HAL_Driver/Src/stm32n6xx_hal_ramcfg.c **** /**
ARM GAS  /tmp/ccJAVlht.s 			page 36


 571:STM32Cube_FW_N6/Drivers/STM32N6xx_HAL_Driver/Src/stm32n6xx_hal_ramcfg.c ****   * @}
 572:STM32Cube_FW_N6/Drivers/STM32N6xx_HAL_Driver/Src/stm32n6xx_hal_ramcfg.c ****   */
 573:STM32Cube_FW_N6/Drivers/STM32N6xx_HAL_Driver/Src/stm32n6xx_hal_ramcfg.c **** 
 574:STM32Cube_FW_N6/Drivers/STM32N6xx_HAL_Driver/Src/stm32n6xx_hal_ramcfg.c **** /** @addtogroup RAMCFG_Exported_Functions_Group5
 575:STM32Cube_FW_N6/Drivers/STM32N6xx_HAL_Driver/Src/stm32n6xx_hal_ramcfg.c ****   *
 576:STM32Cube_FW_N6/Drivers/STM32N6xx_HAL_Driver/Src/stm32n6xx_hal_ramcfg.c **** @verbatim
 577:STM32Cube_FW_N6/Drivers/STM32N6xx_HAL_Driver/Src/stm32n6xx_hal_ramcfg.c ****  ===============================================================================
 578:STM32Cube_FW_N6/Drivers/STM32N6xx_HAL_Driver/Src/stm32n6xx_hal_ramcfg.c ****                       ##### Erase Operation Functions  #####
 579:STM32Cube_FW_N6/Drivers/STM32N6xx_HAL_Driver/Src/stm32n6xx_hal_ramcfg.c ****  ===============================================================================
 580:STM32Cube_FW_N6/Drivers/STM32N6xx_HAL_Driver/Src/stm32n6xx_hal_ramcfg.c ****     [..]
 581:STM32Cube_FW_N6/Drivers/STM32N6xx_HAL_Driver/Src/stm32n6xx_hal_ramcfg.c ****       This section provides functions allowing a hardware erase for the given SRAM.
 582:STM32Cube_FW_N6/Drivers/STM32N6xx_HAL_Driver/Src/stm32n6xx_hal_ramcfg.c ****     [..]
 583:STM32Cube_FW_N6/Drivers/STM32N6xx_HAL_Driver/Src/stm32n6xx_hal_ramcfg.c ****       The HAL_RAMCFG_Erase() function allows a hardware mass erase for the given
 584:STM32Cube_FW_N6/Drivers/STM32N6xx_HAL_Driver/Src/stm32n6xx_hal_ramcfg.c ****       SRAM. The erase value for all SRAMs is 0.
 585:STM32Cube_FW_N6/Drivers/STM32N6xx_HAL_Driver/Src/stm32n6xx_hal_ramcfg.c **** 
 586:STM32Cube_FW_N6/Drivers/STM32N6xx_HAL_Driver/Src/stm32n6xx_hal_ramcfg.c **** @endverbatim
 587:STM32Cube_FW_N6/Drivers/STM32N6xx_HAL_Driver/Src/stm32n6xx_hal_ramcfg.c ****   * @{
 588:STM32Cube_FW_N6/Drivers/STM32N6xx_HAL_Driver/Src/stm32n6xx_hal_ramcfg.c ****   */
 589:STM32Cube_FW_N6/Drivers/STM32N6xx_HAL_Driver/Src/stm32n6xx_hal_ramcfg.c **** 
 590:STM32Cube_FW_N6/Drivers/STM32N6xx_HAL_Driver/Src/stm32n6xx_hal_ramcfg.c **** /**
 591:STM32Cube_FW_N6/Drivers/STM32N6xx_HAL_Driver/Src/stm32n6xx_hal_ramcfg.c ****   * @brief  Launch a Mass Erase for the given SRAM.
 592:STM32Cube_FW_N6/Drivers/STM32N6xx_HAL_Driver/Src/stm32n6xx_hal_ramcfg.c ****   * @param  hramcfg       : Pointer to a RAMCFG_HandleTypeDef structure that
 593:STM32Cube_FW_N6/Drivers/STM32N6xx_HAL_Driver/Src/stm32n6xx_hal_ramcfg.c ****   *                         contains the configuration information for the
 594:STM32Cube_FW_N6/Drivers/STM32N6xx_HAL_Driver/Src/stm32n6xx_hal_ramcfg.c ****   *                         specified RAMCFG instance.
 595:STM32Cube_FW_N6/Drivers/STM32N6xx_HAL_Driver/Src/stm32n6xx_hal_ramcfg.c **** 
 596:STM32Cube_FW_N6/Drivers/STM32N6xx_HAL_Driver/Src/stm32n6xx_hal_ramcfg.c ****   * @retval HAL status.
 597:STM32Cube_FW_N6/Drivers/STM32N6xx_HAL_Driver/Src/stm32n6xx_hal_ramcfg.c ****   */
 598:STM32Cube_FW_N6/Drivers/STM32N6xx_HAL_Driver/Src/stm32n6xx_hal_ramcfg.c **** HAL_StatusTypeDef HAL_RAMCFG_Erase(RAMCFG_HandleTypeDef *hramcfg)
 599:STM32Cube_FW_N6/Drivers/STM32N6xx_HAL_Driver/Src/stm32n6xx_hal_ramcfg.c **** {
 1443              		.loc 1 599 1
 1444              		.cfi_startproc
 1445              		@ args = 0, pretend = 0, frame = 16
 1446              		@ frame_needed = 1, uses_anonymous_args = 0
 1447 0000 80B5     		push	{r7, lr}
 1448              		.cfi_def_cfa_offset 8
 1449              		.cfi_offset 7, -8
 1450              		.cfi_offset 14, -4
 1451 0002 84B0     		sub	sp, sp, #16
 1452              		.cfi_def_cfa_offset 24
 1453 0004 00AF     		add	r7, sp, #0
 1454              		.cfi_def_cfa_register 7
 1455 0006 7860     		str	r0, [r7, #4]
 600:STM32Cube_FW_N6/Drivers/STM32N6xx_HAL_Driver/Src/stm32n6xx_hal_ramcfg.c ****   uint32_t tickstart = HAL_GetTick();
 1456              		.loc 1 600 24
 1457 0008 FFF7FEFF 		bl	HAL_GetTick
 1458 000c F860     		str	r0, [r7, #12]
 601:STM32Cube_FW_N6/Drivers/STM32N6xx_HAL_Driver/Src/stm32n6xx_hal_ramcfg.c **** 
 602:STM32Cube_FW_N6/Drivers/STM32N6xx_HAL_Driver/Src/stm32n6xx_hal_ramcfg.c ****   /* Check the parameters */
 603:STM32Cube_FW_N6/Drivers/STM32N6xx_HAL_Driver/Src/stm32n6xx_hal_ramcfg.c ****   assert_param(IS_RAMCFG_ALL_INSTANCE(hramcfg->Instance));
 1459              		.loc 1 603 3
 1460 000e 7B68     		ldr	r3, [r7, #4]
 1461 0010 1B68     		ldr	r3, [r3]
 1462 0012 5B4A     		ldr	r2, .L84
 1463 0014 9342     		cmp	r3, r2
 1464 0016 6DD0     		beq	.L75
 1465              		.loc 1 603 3 is_stmt 0 discriminator 1
 1466 0018 7B68     		ldr	r3, [r7, #4]
ARM GAS  /tmp/ccJAVlht.s 			page 37


 1467 001a 1B68     		ldr	r3, [r3]
 1468 001c 594A     		ldr	r2, .L84+4
 1469 001e 9342     		cmp	r3, r2
 1470 0020 68D0     		beq	.L75
 1471              		.loc 1 603 3 discriminator 2
 1472 0022 7B68     		ldr	r3, [r7, #4]
 1473 0024 1B68     		ldr	r3, [r3]
 1474 0026 584A     		ldr	r2, .L84+8
 1475 0028 9342     		cmp	r3, r2
 1476 002a 63D0     		beq	.L75
 1477              		.loc 1 603 3 discriminator 3
 1478 002c 7B68     		ldr	r3, [r7, #4]
 1479 002e 1B68     		ldr	r3, [r3]
 1480 0030 564A     		ldr	r2, .L84+12
 1481 0032 9342     		cmp	r3, r2
 1482 0034 5ED0     		beq	.L75
 1483              		.loc 1 603 3 discriminator 4
 1484 0036 7B68     		ldr	r3, [r7, #4]
 1485 0038 1B68     		ldr	r3, [r3]
 1486 003a 554A     		ldr	r2, .L84+16
 1487 003c 9342     		cmp	r3, r2
 1488 003e 59D0     		beq	.L75
 1489              		.loc 1 603 3 discriminator 5
 1490 0040 7B68     		ldr	r3, [r7, #4]
 1491 0042 1B68     		ldr	r3, [r3]
 1492 0044 534A     		ldr	r2, .L84+20
 1493 0046 9342     		cmp	r3, r2
 1494 0048 54D0     		beq	.L75
 1495              		.loc 1 603 3 discriminator 6
 1496 004a 7B68     		ldr	r3, [r7, #4]
 1497 004c 1B68     		ldr	r3, [r3]
 1498 004e 524A     		ldr	r2, .L84+24
 1499 0050 9342     		cmp	r3, r2
 1500 0052 4FD0     		beq	.L75
 1501              		.loc 1 603 3 discriminator 7
 1502 0054 7B68     		ldr	r3, [r7, #4]
 1503 0056 1B68     		ldr	r3, [r3]
 1504 0058 504A     		ldr	r2, .L84+28
 1505 005a 9342     		cmp	r3, r2
 1506 005c 4AD0     		beq	.L75
 1507              		.loc 1 603 3 discriminator 8
 1508 005e 7B68     		ldr	r3, [r7, #4]
 1509 0060 1B68     		ldr	r3, [r3]
 1510 0062 4F4A     		ldr	r2, .L84+32
 1511 0064 9342     		cmp	r3, r2
 1512 0066 45D0     		beq	.L75
 1513              		.loc 1 603 3 discriminator 9
 1514 0068 7B68     		ldr	r3, [r7, #4]
 1515 006a 1B68     		ldr	r3, [r3]
 1516 006c 4D4A     		ldr	r2, .L84+36
 1517 006e 9342     		cmp	r3, r2
 1518 0070 40D0     		beq	.L75
 1519              		.loc 1 603 3 discriminator 10
 1520 0072 7B68     		ldr	r3, [r7, #4]
 1521 0074 1B68     		ldr	r3, [r3]
 1522 0076 4C4A     		ldr	r2, .L84+40
 1523 0078 9342     		cmp	r3, r2
ARM GAS  /tmp/ccJAVlht.s 			page 38


 1524 007a 3BD0     		beq	.L75
 1525              		.loc 1 603 3 discriminator 11
 1526 007c 7B68     		ldr	r3, [r7, #4]
 1527 007e 1B68     		ldr	r3, [r3]
 1528 0080 4A4A     		ldr	r2, .L84+44
 1529 0082 9342     		cmp	r3, r2
 1530 0084 36D0     		beq	.L75
 1531              		.loc 1 603 3 discriminator 12
 1532 0086 7B68     		ldr	r3, [r7, #4]
 1533 0088 1B68     		ldr	r3, [r3]
 1534 008a 494A     		ldr	r2, .L84+48
 1535 008c 9342     		cmp	r3, r2
 1536 008e 31D0     		beq	.L75
 1537              		.loc 1 603 3 discriminator 13
 1538 0090 7B68     		ldr	r3, [r7, #4]
 1539 0092 1B68     		ldr	r3, [r3]
 1540 0094 474A     		ldr	r2, .L84+52
 1541 0096 9342     		cmp	r3, r2
 1542 0098 2CD0     		beq	.L75
 1543              		.loc 1 603 3 discriminator 14
 1544 009a 7B68     		ldr	r3, [r7, #4]
 1545 009c 1B68     		ldr	r3, [r3]
 1546 009e 464A     		ldr	r2, .L84+56
 1547 00a0 9342     		cmp	r3, r2
 1548 00a2 27D0     		beq	.L75
 1549              		.loc 1 603 3 discriminator 15
 1550 00a4 7B68     		ldr	r3, [r7, #4]
 1551 00a6 1B68     		ldr	r3, [r3]
 1552 00a8 444A     		ldr	r2, .L84+60
 1553 00aa 9342     		cmp	r3, r2
 1554 00ac 22D0     		beq	.L75
 1555              		.loc 1 603 3 discriminator 16
 1556 00ae 7B68     		ldr	r3, [r7, #4]
 1557 00b0 1B68     		ldr	r3, [r3]
 1558 00b2 434A     		ldr	r2, .L84+64
 1559 00b4 9342     		cmp	r3, r2
 1560 00b6 1DD0     		beq	.L75
 1561              		.loc 1 603 3 discriminator 17
 1562 00b8 7B68     		ldr	r3, [r7, #4]
 1563 00ba 1B68     		ldr	r3, [r3]
 1564 00bc 414A     		ldr	r2, .L84+68
 1565 00be 9342     		cmp	r3, r2
 1566 00c0 18D0     		beq	.L75
 1567              		.loc 1 603 3 discriminator 18
 1568 00c2 7B68     		ldr	r3, [r7, #4]
 1569 00c4 1B68     		ldr	r3, [r3]
 1570 00c6 404A     		ldr	r2, .L84+72
 1571 00c8 9342     		cmp	r3, r2
 1572 00ca 13D0     		beq	.L75
 1573              		.loc 1 603 3 discriminator 19
 1574 00cc 7B68     		ldr	r3, [r7, #4]
 1575 00ce 1B68     		ldr	r3, [r3]
 1576 00d0 3E4A     		ldr	r2, .L84+76
 1577 00d2 9342     		cmp	r3, r2
 1578 00d4 0ED0     		beq	.L75
 1579              		.loc 1 603 3 discriminator 20
 1580 00d6 7B68     		ldr	r3, [r7, #4]
ARM GAS  /tmp/ccJAVlht.s 			page 39


 1581 00d8 1B68     		ldr	r3, [r3]
 1582 00da 3D4A     		ldr	r2, .L84+80
 1583 00dc 9342     		cmp	r3, r2
 1584 00de 09D0     		beq	.L75
 1585              		.loc 1 603 3 discriminator 21
 1586 00e0 7B68     		ldr	r3, [r7, #4]
 1587 00e2 1B68     		ldr	r3, [r3]
 1588 00e4 3A4A     		ldr	r2, .L84+80
 1589 00e6 9342     		cmp	r3, r2
 1590 00e8 04D0     		beq	.L75
 1591              		.loc 1 603 3 discriminator 22
 1592 00ea 40F25B21 		movw	r1, #603
 1593 00ee 3948     		ldr	r0, .L84+84
 1594 00f0 FFF7FEFF 		bl	assert_failed
 1595              	.L75:
 604:STM32Cube_FW_N6/Drivers/STM32N6xx_HAL_Driver/Src/stm32n6xx_hal_ramcfg.c **** 
 605:STM32Cube_FW_N6/Drivers/STM32N6xx_HAL_Driver/Src/stm32n6xx_hal_ramcfg.c ****   /* Check RAMCFG state */
 606:STM32Cube_FW_N6/Drivers/STM32N6xx_HAL_Driver/Src/stm32n6xx_hal_ramcfg.c ****   if (hramcfg->State == HAL_RAMCFG_STATE_READY)
 1596              		.loc 1 606 14 is_stmt 1
 1597 00f4 7B68     		ldr	r3, [r7, #4]
 1598 00f6 1B79     		ldrb	r3, [r3, #4]
 1599 00f8 DBB2     		uxtb	r3, r3
 1600              		.loc 1 606 6
 1601 00fa 012B     		cmp	r3, #1
 1602 00fc 32D1     		bne	.L76
 607:STM32Cube_FW_N6/Drivers/STM32N6xx_HAL_Driver/Src/stm32n6xx_hal_ramcfg.c ****   {
 608:STM32Cube_FW_N6/Drivers/STM32N6xx_HAL_Driver/Src/stm32n6xx_hal_ramcfg.c ****     /* Update RAMCFG peripheral state */
 609:STM32Cube_FW_N6/Drivers/STM32N6xx_HAL_Driver/Src/stm32n6xx_hal_ramcfg.c ****     hramcfg->State = HAL_RAMCFG_STATE_BUSY;
 1603              		.loc 1 609 20
 1604 00fe 7B68     		ldr	r3, [r7, #4]
 1605 0100 0222     		movs	r2, #2
 1606 0102 1A71     		strb	r2, [r3, #4]
 610:STM32Cube_FW_N6/Drivers/STM32N6xx_HAL_Driver/Src/stm32n6xx_hal_ramcfg.c **** 
 611:STM32Cube_FW_N6/Drivers/STM32N6xx_HAL_Driver/Src/stm32n6xx_hal_ramcfg.c ****     /* Unlock the RAMCFG erase bit */
 612:STM32Cube_FW_N6/Drivers/STM32N6xx_HAL_Driver/Src/stm32n6xx_hal_ramcfg.c ****     WRITE_REG(hramcfg->Instance->ERKEYR, RAMCFG_ERASE_KEY1);
 1607              		.loc 1 612 5
 1608 0104 7B68     		ldr	r3, [r7, #4]
 1609 0106 1B68     		ldr	r3, [r3]
 1610 0108 CA22     		movs	r2, #202
 1611 010a 9A62     		str	r2, [r3, #40]
 613:STM32Cube_FW_N6/Drivers/STM32N6xx_HAL_Driver/Src/stm32n6xx_hal_ramcfg.c ****     WRITE_REG(hramcfg->Instance->ERKEYR, RAMCFG_ERASE_KEY2);
 1612              		.loc 1 613 5
 1613 010c 7B68     		ldr	r3, [r7, #4]
 1614 010e 1B68     		ldr	r3, [r3]
 1615 0110 5322     		movs	r2, #83
 1616 0112 9A62     		str	r2, [r3, #40]
 614:STM32Cube_FW_N6/Drivers/STM32N6xx_HAL_Driver/Src/stm32n6xx_hal_ramcfg.c **** 
 615:STM32Cube_FW_N6/Drivers/STM32N6xx_HAL_Driver/Src/stm32n6xx_hal_ramcfg.c ****     /* Start the SRAM erase operation */
 616:STM32Cube_FW_N6/Drivers/STM32N6xx_HAL_Driver/Src/stm32n6xx_hal_ramcfg.c ****     hramcfg->Instance->CR |= RAMCFG_CR_SRAMER;
 1617              		.loc 1 616 12
 1618 0114 7B68     		ldr	r3, [r7, #4]
 1619 0116 1B68     		ldr	r3, [r3]
 1620              		.loc 1 616 22
 1621 0118 1A68     		ldr	r2, [r3]
 1622              		.loc 1 616 12
 1623 011a 7B68     		ldr	r3, [r7, #4]
 1624 011c 1B68     		ldr	r3, [r3]
ARM GAS  /tmp/ccJAVlht.s 			page 40


 1625              		.loc 1 616 27
 1626 011e 42F48072 		orr	r2, r2, #256
 1627 0122 1A60     		str	r2, [r3]
 617:STM32Cube_FW_N6/Drivers/STM32N6xx_HAL_Driver/Src/stm32n6xx_hal_ramcfg.c **** 
 618:STM32Cube_FW_N6/Drivers/STM32N6xx_HAL_Driver/Src/stm32n6xx_hal_ramcfg.c ****     /*
 619:STM32Cube_FW_N6/Drivers/STM32N6xx_HAL_Driver/Src/stm32n6xx_hal_ramcfg.c ****        Wait for the SRAM hardware erase operation to complete by polling on
 620:STM32Cube_FW_N6/Drivers/STM32N6xx_HAL_Driver/Src/stm32n6xx_hal_ramcfg.c ****        SRAMBUSY flag to be reset.
 621:STM32Cube_FW_N6/Drivers/STM32N6xx_HAL_Driver/Src/stm32n6xx_hal_ramcfg.c ****     */
 622:STM32Cube_FW_N6/Drivers/STM32N6xx_HAL_Driver/Src/stm32n6xx_hal_ramcfg.c ****     while (__HAL_RAMCFG_GET_FLAG(hramcfg, RAMCFG_FLAG_SRAMBUSY) != 0U)
 1628              		.loc 1 622 11
 1629 0124 10E0     		b	.L77
 1630              	.L81:
 623:STM32Cube_FW_N6/Drivers/STM32N6xx_HAL_Driver/Src/stm32n6xx_hal_ramcfg.c ****     {
 624:STM32Cube_FW_N6/Drivers/STM32N6xx_HAL_Driver/Src/stm32n6xx_hal_ramcfg.c ****       if ((HAL_GetTick() - tickstart) > RAMCFG_TIMEOUT_VALUE)
 1631              		.loc 1 624 12
 1632 0126 FFF7FEFF 		bl	HAL_GetTick
 1633 012a 0246     		mov	r2, r0
 1634              		.loc 1 624 26 discriminator 1
 1635 012c FB68     		ldr	r3, [r7, #12]
 1636 012e D31A     		subs	r3, r2, r3
 1637              		.loc 1 624 10 discriminator 1
 1638 0130 4CF25032 		movw	r2, #50000
 1639 0134 9342     		cmp	r3, r2
 1640 0136 07D9     		bls	.L77
 625:STM32Cube_FW_N6/Drivers/STM32N6xx_HAL_Driver/Src/stm32n6xx_hal_ramcfg.c ****       {
 626:STM32Cube_FW_N6/Drivers/STM32N6xx_HAL_Driver/Src/stm32n6xx_hal_ramcfg.c ****         /* Update the RAMCFG error code */
 627:STM32Cube_FW_N6/Drivers/STM32N6xx_HAL_Driver/Src/stm32n6xx_hal_ramcfg.c ****         hramcfg->ErrorCode = HAL_RAMCFG_ERROR_TIMEOUT;
 1641              		.loc 1 627 28
 1642 0138 7B68     		ldr	r3, [r7, #4]
 1643 013a 0122     		movs	r2, #1
 1644 013c 9A60     		str	r2, [r3, #8]
 628:STM32Cube_FW_N6/Drivers/STM32N6xx_HAL_Driver/Src/stm32n6xx_hal_ramcfg.c **** 
 629:STM32Cube_FW_N6/Drivers/STM32N6xx_HAL_Driver/Src/stm32n6xx_hal_ramcfg.c ****         /* Update the RAMCFG state and return error status */
 630:STM32Cube_FW_N6/Drivers/STM32N6xx_HAL_Driver/Src/stm32n6xx_hal_ramcfg.c ****         hramcfg->State = HAL_RAMCFG_STATE_ERROR;
 1645              		.loc 1 630 24
 1646 013e 7B68     		ldr	r3, [r7, #4]
 1647 0140 0322     		movs	r2, #3
 1648 0142 1A71     		strb	r2, [r3, #4]
 631:STM32Cube_FW_N6/Drivers/STM32N6xx_HAL_Driver/Src/stm32n6xx_hal_ramcfg.c ****         return HAL_ERROR;
 1649              		.loc 1 631 16
 1650 0144 0123     		movs	r3, #1
 1651 0146 16E0     		b	.L78
 1652              	.L77:
 622:STM32Cube_FW_N6/Drivers/STM32N6xx_HAL_Driver/Src/stm32n6xx_hal_ramcfg.c ****     {
 1653              		.loc 1 622 12
 1654 0148 7B68     		ldr	r3, [r7, #4]
 1655 014a 1B68     		ldr	r3, [r3]
 1656 014c 9B68     		ldr	r3, [r3, #8]
 1657 014e 03F48073 		and	r3, r3, #256
 622:STM32Cube_FW_N6/Drivers/STM32N6xx_HAL_Driver/Src/stm32n6xx_hal_ramcfg.c ****     {
 1658              		.loc 1 622 65
 1659 0152 B3F5807F 		cmp	r3, #256
 1660 0156 01D1     		bne	.L79
 622:STM32Cube_FW_N6/Drivers/STM32N6xx_HAL_Driver/Src/stm32n6xx_hal_ramcfg.c ****     {
 1661              		.loc 1 622 65 is_stmt 0 discriminator 1
 1662 0158 0123     		movs	r3, #1
 1663 015a 00E0     		b	.L80
ARM GAS  /tmp/ccJAVlht.s 			page 41


 1664              	.L79:
 622:STM32Cube_FW_N6/Drivers/STM32N6xx_HAL_Driver/Src/stm32n6xx_hal_ramcfg.c ****     {
 1665              		.loc 1 622 65 discriminator 2
 1666 015c 0023     		movs	r3, #0
 1667              	.L80:
 622:STM32Cube_FW_N6/Drivers/STM32N6xx_HAL_Driver/Src/stm32n6xx_hal_ramcfg.c ****     {
 1668              		.loc 1 622 65 discriminator 4
 1669 015e 002B     		cmp	r3, #0
 1670 0160 E1D1     		bne	.L81
 1671 0162 04E0     		b	.L83
 1672              	.L76:
 632:STM32Cube_FW_N6/Drivers/STM32N6xx_HAL_Driver/Src/stm32n6xx_hal_ramcfg.c ****       }
 633:STM32Cube_FW_N6/Drivers/STM32N6xx_HAL_Driver/Src/stm32n6xx_hal_ramcfg.c ****     }
 634:STM32Cube_FW_N6/Drivers/STM32N6xx_HAL_Driver/Src/stm32n6xx_hal_ramcfg.c ****   }
 635:STM32Cube_FW_N6/Drivers/STM32N6xx_HAL_Driver/Src/stm32n6xx_hal_ramcfg.c ****   else
 636:STM32Cube_FW_N6/Drivers/STM32N6xx_HAL_Driver/Src/stm32n6xx_hal_ramcfg.c ****   {
 637:STM32Cube_FW_N6/Drivers/STM32N6xx_HAL_Driver/Src/stm32n6xx_hal_ramcfg.c ****     /* Update the error code and return error status */
 638:STM32Cube_FW_N6/Drivers/STM32N6xx_HAL_Driver/Src/stm32n6xx_hal_ramcfg.c ****     hramcfg->ErrorCode = HAL_RAMCFG_ERROR_BUSY;
 1673              		.loc 1 638 24 is_stmt 1
 1674 0164 7B68     		ldr	r3, [r7, #4]
 1675 0166 0222     		movs	r2, #2
 1676 0168 9A60     		str	r2, [r3, #8]
 639:STM32Cube_FW_N6/Drivers/STM32N6xx_HAL_Driver/Src/stm32n6xx_hal_ramcfg.c ****     return HAL_ERROR;
 1677              		.loc 1 639 12
 1678 016a 0123     		movs	r3, #1
 1679 016c 03E0     		b	.L78
 1680              	.L83:
 640:STM32Cube_FW_N6/Drivers/STM32N6xx_HAL_Driver/Src/stm32n6xx_hal_ramcfg.c ****   }
 641:STM32Cube_FW_N6/Drivers/STM32N6xx_HAL_Driver/Src/stm32n6xx_hal_ramcfg.c **** 
 642:STM32Cube_FW_N6/Drivers/STM32N6xx_HAL_Driver/Src/stm32n6xx_hal_ramcfg.c ****   /* Update the RAMCFG state */
 643:STM32Cube_FW_N6/Drivers/STM32N6xx_HAL_Driver/Src/stm32n6xx_hal_ramcfg.c ****   hramcfg->State = HAL_RAMCFG_STATE_READY;
 1681              		.loc 1 643 18
 1682 016e 7B68     		ldr	r3, [r7, #4]
 1683 0170 0122     		movs	r2, #1
 1684 0172 1A71     		strb	r2, [r3, #4]
 644:STM32Cube_FW_N6/Drivers/STM32N6xx_HAL_Driver/Src/stm32n6xx_hal_ramcfg.c **** 
 645:STM32Cube_FW_N6/Drivers/STM32N6xx_HAL_Driver/Src/stm32n6xx_hal_ramcfg.c ****   return HAL_OK;
 1685              		.loc 1 645 10
 1686 0174 0023     		movs	r3, #0
 1687              	.L78:
 646:STM32Cube_FW_N6/Drivers/STM32N6xx_HAL_Driver/Src/stm32n6xx_hal_ramcfg.c **** }
 1688              		.loc 1 646 1
 1689 0176 1846     		mov	r0, r3
 1690 0178 1037     		adds	r7, r7, #16
 1691              		.cfi_def_cfa_offset 8
 1692 017a BD46     		mov	sp, r7
 1693              		.cfi_def_cfa_register 13
 1694              		@ sp needed
 1695 017c 80BD     		pop	{r7, pc}
 1696              	.L85:
 1697 017e 00BF     		.align	2
 1698              	.L84:
 1699 0180 00330252 		.word	1375875840
 1700 0184 00330242 		.word	1107440384
 1701 0188 80330252 		.word	1375875968
 1702 018c 80330242 		.word	1107440512
 1703 0190 00300252 		.word	1375875072
ARM GAS  /tmp/ccJAVlht.s 			page 42


 1704 0194 00300242 		.word	1107439616
 1705 0198 80300252 		.word	1375875200
 1706 019c 80300242 		.word	1107439744
 1707 01a0 00310252 		.word	1375875328
 1708 01a4 00310242 		.word	1107439872
 1709 01a8 80310252 		.word	1375875456
 1710 01ac 80310242 		.word	1107440000
 1711 01b0 00320252 		.word	1375875584
 1712 01b4 00320242 		.word	1107440128
 1713 01b8 80320252 		.word	1375875712
 1714 01bc 80320242 		.word	1107440256
 1715 01c0 80340252 		.word	1375876224
 1716 01c4 80340242 		.word	1107440768
 1717 01c8 00350252 		.word	1375876352
 1718 01cc 00350242 		.word	1107440896
 1719 01d0 00340242 		.word	1107440640
 1720 01d4 00000000 		.word	.LC0
 1721              		.cfi_endproc
 1722              	.LFE847:
 1724              		.section	.text.HAL_RAMCFG_IRQHandler,"ax",%progbits
 1725              		.align	1
 1726              		.global	HAL_RAMCFG_IRQHandler
 1727              		.syntax unified
 1728              		.thumb
 1729              		.thumb_func
 1731              	HAL_RAMCFG_IRQHandler:
 1732              	.LFB848:
 647:STM32Cube_FW_N6/Drivers/STM32N6xx_HAL_Driver/Src/stm32n6xx_hal_ramcfg.c **** 
 648:STM32Cube_FW_N6/Drivers/STM32N6xx_HAL_Driver/Src/stm32n6xx_hal_ramcfg.c **** /**
 649:STM32Cube_FW_N6/Drivers/STM32N6xx_HAL_Driver/Src/stm32n6xx_hal_ramcfg.c ****   * @}
 650:STM32Cube_FW_N6/Drivers/STM32N6xx_HAL_Driver/Src/stm32n6xx_hal_ramcfg.c ****   */
 651:STM32Cube_FW_N6/Drivers/STM32N6xx_HAL_Driver/Src/stm32n6xx_hal_ramcfg.c **** 
 652:STM32Cube_FW_N6/Drivers/STM32N6xx_HAL_Driver/Src/stm32n6xx_hal_ramcfg.c **** /** @addtogroup RAMCFG_Exported_Functions_Group6
 653:STM32Cube_FW_N6/Drivers/STM32N6xx_HAL_Driver/Src/stm32n6xx_hal_ramcfg.c ****   *
 654:STM32Cube_FW_N6/Drivers/STM32N6xx_HAL_Driver/Src/stm32n6xx_hal_ramcfg.c **** @verbatim
 655:STM32Cube_FW_N6/Drivers/STM32N6xx_HAL_Driver/Src/stm32n6xx_hal_ramcfg.c ****  ===============================================================================
 656:STM32Cube_FW_N6/Drivers/STM32N6xx_HAL_Driver/Src/stm32n6xx_hal_ramcfg.c ****                ##### Handle Interrupt and Callbacks Functions  #####
 657:STM32Cube_FW_N6/Drivers/STM32N6xx_HAL_Driver/Src/stm32n6xx_hal_ramcfg.c ****  ===============================================================================
 658:STM32Cube_FW_N6/Drivers/STM32N6xx_HAL_Driver/Src/stm32n6xx_hal_ramcfg.c ****     [..]
 659:STM32Cube_FW_N6/Drivers/STM32N6xx_HAL_Driver/Src/stm32n6xx_hal_ramcfg.c ****       This section provides functions to handle RAMCFG interrupts and
 660:STM32Cube_FW_N6/Drivers/STM32N6xx_HAL_Driver/Src/stm32n6xx_hal_ramcfg.c ****       Register / UnRegister the different callbacks.
 661:STM32Cube_FW_N6/Drivers/STM32N6xx_HAL_Driver/Src/stm32n6xx_hal_ramcfg.c ****     [..]
 662:STM32Cube_FW_N6/Drivers/STM32N6xx_HAL_Driver/Src/stm32n6xx_hal_ramcfg.c ****       The HAL_RAMCFG_IRQHandler() function allows the user to handle the active RAMCFG
 663:STM32Cube_FW_N6/Drivers/STM32N6xx_HAL_Driver/Src/stm32n6xx_hal_ramcfg.c ****       interrupt request.
 664:STM32Cube_FW_N6/Drivers/STM32N6xx_HAL_Driver/Src/stm32n6xx_hal_ramcfg.c ****       The HAL_RAMCFG_RegisterCallback() function allows the user to register the selected
 665:STM32Cube_FW_N6/Drivers/STM32N6xx_HAL_Driver/Src/stm32n6xx_hal_ramcfg.c ****       RAMCFG callbacks.
 666:STM32Cube_FW_N6/Drivers/STM32N6xx_HAL_Driver/Src/stm32n6xx_hal_ramcfg.c ****       The HAL_RAMCFG_UnRegisterCallback() function allows the user to unregister the
 667:STM32Cube_FW_N6/Drivers/STM32N6xx_HAL_Driver/Src/stm32n6xx_hal_ramcfg.c ****       selected RAMCFG callbacks.
 668:STM32Cube_FW_N6/Drivers/STM32N6xx_HAL_Driver/Src/stm32n6xx_hal_ramcfg.c **** @endverbatim
 669:STM32Cube_FW_N6/Drivers/STM32N6xx_HAL_Driver/Src/stm32n6xx_hal_ramcfg.c ****   * @{
 670:STM32Cube_FW_N6/Drivers/STM32N6xx_HAL_Driver/Src/stm32n6xx_hal_ramcfg.c ****   */
 671:STM32Cube_FW_N6/Drivers/STM32N6xx_HAL_Driver/Src/stm32n6xx_hal_ramcfg.c **** 
 672:STM32Cube_FW_N6/Drivers/STM32N6xx_HAL_Driver/Src/stm32n6xx_hal_ramcfg.c **** /**
 673:STM32Cube_FW_N6/Drivers/STM32N6xx_HAL_Driver/Src/stm32n6xx_hal_ramcfg.c ****   * @brief  Handles RAMCFG interrupt request.
 674:STM32Cube_FW_N6/Drivers/STM32N6xx_HAL_Driver/Src/stm32n6xx_hal_ramcfg.c ****   * @param  hramcfg       : Pointer to a RAMCFG_HandleTypeDef structure that
 675:STM32Cube_FW_N6/Drivers/STM32N6xx_HAL_Driver/Src/stm32n6xx_hal_ramcfg.c ****   *                         contains the configuration information for the
 676:STM32Cube_FW_N6/Drivers/STM32N6xx_HAL_Driver/Src/stm32n6xx_hal_ramcfg.c ****   *                         specified RAMCFG instance.
ARM GAS  /tmp/ccJAVlht.s 			page 43


 677:STM32Cube_FW_N6/Drivers/STM32N6xx_HAL_Driver/Src/stm32n6xx_hal_ramcfg.c ****   * @retval None.
 678:STM32Cube_FW_N6/Drivers/STM32N6xx_HAL_Driver/Src/stm32n6xx_hal_ramcfg.c ****   */
 679:STM32Cube_FW_N6/Drivers/STM32N6xx_HAL_Driver/Src/stm32n6xx_hal_ramcfg.c **** void HAL_RAMCFG_IRQHandler(RAMCFG_HandleTypeDef *hramcfg)
 680:STM32Cube_FW_N6/Drivers/STM32N6xx_HAL_Driver/Src/stm32n6xx_hal_ramcfg.c **** {
 1733              		.loc 1 680 1
 1734              		.cfi_startproc
 1735              		@ args = 0, pretend = 0, frame = 8
 1736              		@ frame_needed = 1, uses_anonymous_args = 0
 1737 0000 80B5     		push	{r7, lr}
 1738              		.cfi_def_cfa_offset 8
 1739              		.cfi_offset 7, -8
 1740              		.cfi_offset 14, -4
 1741 0002 82B0     		sub	sp, sp, #8
 1742              		.cfi_def_cfa_offset 16
 1743 0004 00AF     		add	r7, sp, #0
 1744              		.cfi_def_cfa_register 7
 1745 0006 7860     		str	r0, [r7, #4]
 681:STM32Cube_FW_N6/Drivers/STM32N6xx_HAL_Driver/Src/stm32n6xx_hal_ramcfg.c ****   /* Single Error Interrupt Management ****************************************/
 682:STM32Cube_FW_N6/Drivers/STM32N6xx_HAL_Driver/Src/stm32n6xx_hal_ramcfg.c ****   if (__HAL_RAMCFG_GET_IT_SOURCE(hramcfg, RAMCFG_IT_SINGLEERR) != 0U)
 1746              		.loc 1 682 7
 1747 0008 7B68     		ldr	r3, [r7, #4]
 1748 000a 1B68     		ldr	r3, [r3]
 1749 000c 5B68     		ldr	r3, [r3, #4]
 1750 000e 03F00103 		and	r3, r3, #1
 1751              		.loc 1 682 6
 1752 0012 012B     		cmp	r3, #1
 1753 0014 16D1     		bne	.L87
 683:STM32Cube_FW_N6/Drivers/STM32N6xx_HAL_Driver/Src/stm32n6xx_hal_ramcfg.c ****   {
 684:STM32Cube_FW_N6/Drivers/STM32N6xx_HAL_Driver/Src/stm32n6xx_hal_ramcfg.c ****     if (__HAL_RAMCFG_GET_FLAG(hramcfg, RAMCFG_FLAG_SINGLEERR) != 0U)
 1754              		.loc 1 684 9
 1755 0016 7B68     		ldr	r3, [r7, #4]
 1756 0018 1B68     		ldr	r3, [r3]
 1757 001a 9B68     		ldr	r3, [r3, #8]
 1758 001c 03F00103 		and	r3, r3, #1
 1759              		.loc 1 684 63
 1760 0020 012B     		cmp	r3, #1
 1761 0022 01D1     		bne	.L88
 1762              		.loc 1 684 63 is_stmt 0 discriminator 1
 1763 0024 0123     		movs	r3, #1
 1764 0026 00E0     		b	.L89
 1765              	.L88:
 1766              		.loc 1 684 63 discriminator 2
 1767 0028 0023     		movs	r3, #0
 1768              	.L89:
 1769              		.loc 1 684 8 is_stmt 1 discriminator 4
 1770 002a 002B     		cmp	r3, #0
 1771 002c 0AD0     		beq	.L87
 685:STM32Cube_FW_N6/Drivers/STM32N6xx_HAL_Driver/Src/stm32n6xx_hal_ramcfg.c ****     {
 686:STM32Cube_FW_N6/Drivers/STM32N6xx_HAL_Driver/Src/stm32n6xx_hal_ramcfg.c ****       /* Clear active flags */
 687:STM32Cube_FW_N6/Drivers/STM32N6xx_HAL_Driver/Src/stm32n6xx_hal_ramcfg.c ****       __HAL_RAMCFG_CLEAR_FLAG(hramcfg, RAMCFG_FLAG_SINGLEERR);
 1772              		.loc 1 687 7
 1773 002e 7B68     		ldr	r3, [r7, #4]
 1774 0030 1B68     		ldr	r3, [r3]
 1775 0032 5A69     		ldr	r2, [r3, #20]
 1776 0034 7B68     		ldr	r3, [r7, #4]
 1777 0036 1B68     		ldr	r3, [r3]
 1778 0038 42F00102 		orr	r2, r2, #1
ARM GAS  /tmp/ccJAVlht.s 			page 44


 1779 003c 5A61     		str	r2, [r3, #20]
 688:STM32Cube_FW_N6/Drivers/STM32N6xx_HAL_Driver/Src/stm32n6xx_hal_ramcfg.c **** 
 689:STM32Cube_FW_N6/Drivers/STM32N6xx_HAL_Driver/Src/stm32n6xx_hal_ramcfg.c **** #if (USE_HAL_RAMCFG_REGISTER_CALLBACKS == 1)
 690:STM32Cube_FW_N6/Drivers/STM32N6xx_HAL_Driver/Src/stm32n6xx_hal_ramcfg.c ****       /* Check if a valid single error callback is registered */
 691:STM32Cube_FW_N6/Drivers/STM32N6xx_HAL_Driver/Src/stm32n6xx_hal_ramcfg.c ****       if (hramcfg->DetectSingleErrorCallback != NULL)
 692:STM32Cube_FW_N6/Drivers/STM32N6xx_HAL_Driver/Src/stm32n6xx_hal_ramcfg.c ****       {
 693:STM32Cube_FW_N6/Drivers/STM32N6xx_HAL_Driver/Src/stm32n6xx_hal_ramcfg.c ****         /* Single error detection callback */
 694:STM32Cube_FW_N6/Drivers/STM32N6xx_HAL_Driver/Src/stm32n6xx_hal_ramcfg.c ****         hramcfg->DetectSingleErrorCallback(hramcfg);
 695:STM32Cube_FW_N6/Drivers/STM32N6xx_HAL_Driver/Src/stm32n6xx_hal_ramcfg.c ****       }
 696:STM32Cube_FW_N6/Drivers/STM32N6xx_HAL_Driver/Src/stm32n6xx_hal_ramcfg.c **** #else
 697:STM32Cube_FW_N6/Drivers/STM32N6xx_HAL_Driver/Src/stm32n6xx_hal_ramcfg.c ****       HAL_RAMCFG_DetectSingleErrorCallback(hramcfg);
 1780              		.loc 1 697 7
 1781 003e 7868     		ldr	r0, [r7, #4]
 1782 0040 FFF7FEFF 		bl	HAL_RAMCFG_DetectSingleErrorCallback
 1783              	.L87:
 698:STM32Cube_FW_N6/Drivers/STM32N6xx_HAL_Driver/Src/stm32n6xx_hal_ramcfg.c **** #endif /* USE_HAL_RAMCFG_REGISTER_CALLBACKS */
 699:STM32Cube_FW_N6/Drivers/STM32N6xx_HAL_Driver/Src/stm32n6xx_hal_ramcfg.c ****     }
 700:STM32Cube_FW_N6/Drivers/STM32N6xx_HAL_Driver/Src/stm32n6xx_hal_ramcfg.c ****   }
 701:STM32Cube_FW_N6/Drivers/STM32N6xx_HAL_Driver/Src/stm32n6xx_hal_ramcfg.c **** 
 702:STM32Cube_FW_N6/Drivers/STM32N6xx_HAL_Driver/Src/stm32n6xx_hal_ramcfg.c ****   /* Double Error Interrupt Management ****************************************/
 703:STM32Cube_FW_N6/Drivers/STM32N6xx_HAL_Driver/Src/stm32n6xx_hal_ramcfg.c ****   if (__HAL_RAMCFG_GET_IT_SOURCE(hramcfg, RAMCFG_IT_DOUBLEERR) != 0U)
 1784              		.loc 1 703 7
 1785 0044 7B68     		ldr	r3, [r7, #4]
 1786 0046 1B68     		ldr	r3, [r3]
 1787 0048 5B68     		ldr	r3, [r3, #4]
 1788 004a 03F00203 		and	r3, r3, #2
 1789              		.loc 1 703 6
 1790 004e 022B     		cmp	r3, #2
 1791 0050 16D1     		bne	.L93
 704:STM32Cube_FW_N6/Drivers/STM32N6xx_HAL_Driver/Src/stm32n6xx_hal_ramcfg.c ****   {
 705:STM32Cube_FW_N6/Drivers/STM32N6xx_HAL_Driver/Src/stm32n6xx_hal_ramcfg.c ****     if (__HAL_RAMCFG_GET_FLAG(hramcfg, RAMCFG_FLAG_DOUBLEERR) != 0U)
 1792              		.loc 1 705 9
 1793 0052 7B68     		ldr	r3, [r7, #4]
 1794 0054 1B68     		ldr	r3, [r3]
 1795 0056 9B68     		ldr	r3, [r3, #8]
 1796 0058 03F00203 		and	r3, r3, #2
 1797              		.loc 1 705 63
 1798 005c 022B     		cmp	r3, #2
 1799 005e 01D1     		bne	.L91
 1800              		.loc 1 705 63 is_stmt 0 discriminator 1
 1801 0060 0123     		movs	r3, #1
 1802 0062 00E0     		b	.L92
 1803              	.L91:
 1804              		.loc 1 705 63 discriminator 2
 1805 0064 0023     		movs	r3, #0
 1806              	.L92:
 1807              		.loc 1 705 8 is_stmt 1 discriminator 4
 1808 0066 002B     		cmp	r3, #0
 1809 0068 0AD0     		beq	.L93
 706:STM32Cube_FW_N6/Drivers/STM32N6xx_HAL_Driver/Src/stm32n6xx_hal_ramcfg.c ****     {
 707:STM32Cube_FW_N6/Drivers/STM32N6xx_HAL_Driver/Src/stm32n6xx_hal_ramcfg.c ****       /* Clear active flags */
 708:STM32Cube_FW_N6/Drivers/STM32N6xx_HAL_Driver/Src/stm32n6xx_hal_ramcfg.c ****       __HAL_RAMCFG_CLEAR_FLAG(hramcfg, RAMCFG_FLAG_DOUBLEERR);
 1810              		.loc 1 708 7
 1811 006a 7B68     		ldr	r3, [r7, #4]
 1812 006c 1B68     		ldr	r3, [r3]
 1813 006e 5A69     		ldr	r2, [r3, #20]
 1814 0070 7B68     		ldr	r3, [r7, #4]
ARM GAS  /tmp/ccJAVlht.s 			page 45


 1815 0072 1B68     		ldr	r3, [r3]
 1816 0074 42F00202 		orr	r2, r2, #2
 1817 0078 5A61     		str	r2, [r3, #20]
 709:STM32Cube_FW_N6/Drivers/STM32N6xx_HAL_Driver/Src/stm32n6xx_hal_ramcfg.c **** 
 710:STM32Cube_FW_N6/Drivers/STM32N6xx_HAL_Driver/Src/stm32n6xx_hal_ramcfg.c **** #if (USE_HAL_RAMCFG_REGISTER_CALLBACKS == 1)
 711:STM32Cube_FW_N6/Drivers/STM32N6xx_HAL_Driver/Src/stm32n6xx_hal_ramcfg.c ****       /* Check if a valid double error callback is registered */
 712:STM32Cube_FW_N6/Drivers/STM32N6xx_HAL_Driver/Src/stm32n6xx_hal_ramcfg.c ****       if (hramcfg->DetectDoubleErrorCallback != NULL)
 713:STM32Cube_FW_N6/Drivers/STM32N6xx_HAL_Driver/Src/stm32n6xx_hal_ramcfg.c ****       {
 714:STM32Cube_FW_N6/Drivers/STM32N6xx_HAL_Driver/Src/stm32n6xx_hal_ramcfg.c ****         /* Double error detection callback */
 715:STM32Cube_FW_N6/Drivers/STM32N6xx_HAL_Driver/Src/stm32n6xx_hal_ramcfg.c ****         hramcfg->DetectDoubleErrorCallback(hramcfg);
 716:STM32Cube_FW_N6/Drivers/STM32N6xx_HAL_Driver/Src/stm32n6xx_hal_ramcfg.c ****       }
 717:STM32Cube_FW_N6/Drivers/STM32N6xx_HAL_Driver/Src/stm32n6xx_hal_ramcfg.c **** #else
 718:STM32Cube_FW_N6/Drivers/STM32N6xx_HAL_Driver/Src/stm32n6xx_hal_ramcfg.c ****       HAL_RAMCFG_DetectDoubleErrorCallback(hramcfg);
 1818              		.loc 1 718 7
 1819 007a 7868     		ldr	r0, [r7, #4]
 1820 007c FFF7FEFF 		bl	HAL_RAMCFG_DetectDoubleErrorCallback
 1821              	.L93:
 719:STM32Cube_FW_N6/Drivers/STM32N6xx_HAL_Driver/Src/stm32n6xx_hal_ramcfg.c **** #endif /* USE_HAL_RAMCFG_REGISTER_CALLBACKS */
 720:STM32Cube_FW_N6/Drivers/STM32N6xx_HAL_Driver/Src/stm32n6xx_hal_ramcfg.c ****     }
 721:STM32Cube_FW_N6/Drivers/STM32N6xx_HAL_Driver/Src/stm32n6xx_hal_ramcfg.c ****   }
 722:STM32Cube_FW_N6/Drivers/STM32N6xx_HAL_Driver/Src/stm32n6xx_hal_ramcfg.c **** }
 1822              		.loc 1 722 1
 1823 0080 00BF     		nop
 1824 0082 0837     		adds	r7, r7, #8
 1825              		.cfi_def_cfa_offset 8
 1826 0084 BD46     		mov	sp, r7
 1827              		.cfi_def_cfa_register 13
 1828              		@ sp needed
 1829 0086 80BD     		pop	{r7, pc}
 1830              		.cfi_endproc
 1831              	.LFE848:
 1833              		.section	.text.HAL_RAMCFG_DetectSingleErrorCallback,"ax",%progbits
 1834              		.align	1
 1835              		.weak	HAL_RAMCFG_DetectSingleErrorCallback
 1836              		.syntax unified
 1837              		.thumb
 1838              		.thumb_func
 1840              	HAL_RAMCFG_DetectSingleErrorCallback:
 1841              	.LFB849:
 723:STM32Cube_FW_N6/Drivers/STM32N6xx_HAL_Driver/Src/stm32n6xx_hal_ramcfg.c **** 
 724:STM32Cube_FW_N6/Drivers/STM32N6xx_HAL_Driver/Src/stm32n6xx_hal_ramcfg.c **** /**
 725:STM32Cube_FW_N6/Drivers/STM32N6xx_HAL_Driver/Src/stm32n6xx_hal_ramcfg.c ****   * @brief  RAMCFG single error detection callback.
 726:STM32Cube_FW_N6/Drivers/STM32N6xx_HAL_Driver/Src/stm32n6xx_hal_ramcfg.c ****   * @param  hramcfg : Pointer to a RAMCFG_HandleTypeDef structure that contains
 727:STM32Cube_FW_N6/Drivers/STM32N6xx_HAL_Driver/Src/stm32n6xx_hal_ramcfg.c ****   *                   the configuration information for the specified RAMCFG.
 728:STM32Cube_FW_N6/Drivers/STM32N6xx_HAL_Driver/Src/stm32n6xx_hal_ramcfg.c ****   * @retval None.
 729:STM32Cube_FW_N6/Drivers/STM32N6xx_HAL_Driver/Src/stm32n6xx_hal_ramcfg.c ****   */
 730:STM32Cube_FW_N6/Drivers/STM32N6xx_HAL_Driver/Src/stm32n6xx_hal_ramcfg.c **** __weak void HAL_RAMCFG_DetectSingleErrorCallback(RAMCFG_HandleTypeDef *hramcfg)
 731:STM32Cube_FW_N6/Drivers/STM32N6xx_HAL_Driver/Src/stm32n6xx_hal_ramcfg.c **** {
 1842              		.loc 1 731 1
 1843              		.cfi_startproc
 1844              		@ args = 0, pretend = 0, frame = 8
 1845              		@ frame_needed = 1, uses_anonymous_args = 0
 1846              		@ link register save eliminated.
 1847 0000 80B4     		push	{r7}
 1848              		.cfi_def_cfa_offset 4
 1849              		.cfi_offset 7, -4
 1850 0002 83B0     		sub	sp, sp, #12
ARM GAS  /tmp/ccJAVlht.s 			page 46


 1851              		.cfi_def_cfa_offset 16
 1852 0004 00AF     		add	r7, sp, #0
 1853              		.cfi_def_cfa_register 7
 1854 0006 7860     		str	r0, [r7, #4]
 732:STM32Cube_FW_N6/Drivers/STM32N6xx_HAL_Driver/Src/stm32n6xx_hal_ramcfg.c ****   /* Prevent unused argument(s) compilation warning */
 733:STM32Cube_FW_N6/Drivers/STM32N6xx_HAL_Driver/Src/stm32n6xx_hal_ramcfg.c ****   UNUSED(hramcfg);
 734:STM32Cube_FW_N6/Drivers/STM32N6xx_HAL_Driver/Src/stm32n6xx_hal_ramcfg.c **** 
 735:STM32Cube_FW_N6/Drivers/STM32N6xx_HAL_Driver/Src/stm32n6xx_hal_ramcfg.c ****   /* NOTE : This function should not be modified, when the callback is needed,
 736:STM32Cube_FW_N6/Drivers/STM32N6xx_HAL_Driver/Src/stm32n6xx_hal_ramcfg.c ****             the HAL_RAMCFG_DetectSingleErrorCallback can be implemented in
 737:STM32Cube_FW_N6/Drivers/STM32N6xx_HAL_Driver/Src/stm32n6xx_hal_ramcfg.c ****             the user file.                                                    */
 738:STM32Cube_FW_N6/Drivers/STM32N6xx_HAL_Driver/Src/stm32n6xx_hal_ramcfg.c **** }
 1855              		.loc 1 738 1
 1856 0008 00BF     		nop
 1857 000a 0C37     		adds	r7, r7, #12
 1858              		.cfi_def_cfa_offset 4
 1859 000c BD46     		mov	sp, r7
 1860              		.cfi_def_cfa_register 13
 1861              		@ sp needed
 1862 000e 5DF8047B 		ldr	r7, [sp], #4
 1863              		.cfi_restore 7
 1864              		.cfi_def_cfa_offset 0
 1865 0012 7047     		bx	lr
 1866              		.cfi_endproc
 1867              	.LFE849:
 1869              		.section	.text.HAL_RAMCFG_DetectDoubleErrorCallback,"ax",%progbits
 1870              		.align	1
 1871              		.weak	HAL_RAMCFG_DetectDoubleErrorCallback
 1872              		.syntax unified
 1873              		.thumb
 1874              		.thumb_func
 1876              	HAL_RAMCFG_DetectDoubleErrorCallback:
 1877              	.LFB850:
 739:STM32Cube_FW_N6/Drivers/STM32N6xx_HAL_Driver/Src/stm32n6xx_hal_ramcfg.c **** 
 740:STM32Cube_FW_N6/Drivers/STM32N6xx_HAL_Driver/Src/stm32n6xx_hal_ramcfg.c **** /**
 741:STM32Cube_FW_N6/Drivers/STM32N6xx_HAL_Driver/Src/stm32n6xx_hal_ramcfg.c ****   * @brief  RAMCFG double error detection callback.
 742:STM32Cube_FW_N6/Drivers/STM32N6xx_HAL_Driver/Src/stm32n6xx_hal_ramcfg.c ****   * @param  hramcfg : Pointer to a RAMCFG_HandleTypeDef structure that contains
 743:STM32Cube_FW_N6/Drivers/STM32N6xx_HAL_Driver/Src/stm32n6xx_hal_ramcfg.c ****   *                   the configuration information for the specified RAMCFG.
 744:STM32Cube_FW_N6/Drivers/STM32N6xx_HAL_Driver/Src/stm32n6xx_hal_ramcfg.c ****   * @retval None.
 745:STM32Cube_FW_N6/Drivers/STM32N6xx_HAL_Driver/Src/stm32n6xx_hal_ramcfg.c ****   */
 746:STM32Cube_FW_N6/Drivers/STM32N6xx_HAL_Driver/Src/stm32n6xx_hal_ramcfg.c **** __weak void HAL_RAMCFG_DetectDoubleErrorCallback(RAMCFG_HandleTypeDef *hramcfg)
 747:STM32Cube_FW_N6/Drivers/STM32N6xx_HAL_Driver/Src/stm32n6xx_hal_ramcfg.c **** {
 1878              		.loc 1 747 1
 1879              		.cfi_startproc
 1880              		@ args = 0, pretend = 0, frame = 8
 1881              		@ frame_needed = 1, uses_anonymous_args = 0
 1882              		@ link register save eliminated.
 1883 0000 80B4     		push	{r7}
 1884              		.cfi_def_cfa_offset 4
 1885              		.cfi_offset 7, -4
 1886 0002 83B0     		sub	sp, sp, #12
 1887              		.cfi_def_cfa_offset 16
 1888 0004 00AF     		add	r7, sp, #0
 1889              		.cfi_def_cfa_register 7
 1890 0006 7860     		str	r0, [r7, #4]
 748:STM32Cube_FW_N6/Drivers/STM32N6xx_HAL_Driver/Src/stm32n6xx_hal_ramcfg.c ****   /* Prevent unused argument(s) compilation warning */
 749:STM32Cube_FW_N6/Drivers/STM32N6xx_HAL_Driver/Src/stm32n6xx_hal_ramcfg.c ****   UNUSED(hramcfg);
 750:STM32Cube_FW_N6/Drivers/STM32N6xx_HAL_Driver/Src/stm32n6xx_hal_ramcfg.c **** 
ARM GAS  /tmp/ccJAVlht.s 			page 47


 751:STM32Cube_FW_N6/Drivers/STM32N6xx_HAL_Driver/Src/stm32n6xx_hal_ramcfg.c ****   /* NOTE : This function should not be modified, when the callback is needed,
 752:STM32Cube_FW_N6/Drivers/STM32N6xx_HAL_Driver/Src/stm32n6xx_hal_ramcfg.c ****             the HAL_RAMCFG_DetectDoubleErrorCallback can be implemented in
 753:STM32Cube_FW_N6/Drivers/STM32N6xx_HAL_Driver/Src/stm32n6xx_hal_ramcfg.c ****             the user file.                                                    */
 754:STM32Cube_FW_N6/Drivers/STM32N6xx_HAL_Driver/Src/stm32n6xx_hal_ramcfg.c **** }
 1891              		.loc 1 754 1
 1892 0008 00BF     		nop
 1893 000a 0C37     		adds	r7, r7, #12
 1894              		.cfi_def_cfa_offset 4
 1895 000c BD46     		mov	sp, r7
 1896              		.cfi_def_cfa_register 13
 1897              		@ sp needed
 1898 000e 5DF8047B 		ldr	r7, [sp], #4
 1899              		.cfi_restore 7
 1900              		.cfi_def_cfa_offset 0
 1901 0012 7047     		bx	lr
 1902              		.cfi_endproc
 1903              	.LFE850:
 1905              		.section	.text.HAL_RAMCFG_GetState,"ax",%progbits
 1906              		.align	1
 1907              		.global	HAL_RAMCFG_GetState
 1908              		.syntax unified
 1909              		.thumb
 1910              		.thumb_func
 1912              	HAL_RAMCFG_GetState:
 1913              	.LFB851:
 755:STM32Cube_FW_N6/Drivers/STM32N6xx_HAL_Driver/Src/stm32n6xx_hal_ramcfg.c **** 
 756:STM32Cube_FW_N6/Drivers/STM32N6xx_HAL_Driver/Src/stm32n6xx_hal_ramcfg.c **** #if (USE_HAL_RAMCFG_REGISTER_CALLBACKS == 1)
 757:STM32Cube_FW_N6/Drivers/STM32N6xx_HAL_Driver/Src/stm32n6xx_hal_ramcfg.c **** /**
 758:STM32Cube_FW_N6/Drivers/STM32N6xx_HAL_Driver/Src/stm32n6xx_hal_ramcfg.c ****   * @brief  Register RAMCFG callbacks.
 759:STM32Cube_FW_N6/Drivers/STM32N6xx_HAL_Driver/Src/stm32n6xx_hal_ramcfg.c ****   * @param  hramcfg       : Pointer to a RAMCFG_HandleTypeDef structure that
 760:STM32Cube_FW_N6/Drivers/STM32N6xx_HAL_Driver/Src/stm32n6xx_hal_ramcfg.c ****   *                         contains the configuration information for the
 761:STM32Cube_FW_N6/Drivers/STM32N6xx_HAL_Driver/Src/stm32n6xx_hal_ramcfg.c ****   *                         specified RAMCFG instance.
 762:STM32Cube_FW_N6/Drivers/STM32N6xx_HAL_Driver/Src/stm32n6xx_hal_ramcfg.c ****   * @param  CallbackID    : User Callback identifier a HAL_RAMCFG_CallbackIDTypeDef
 763:STM32Cube_FW_N6/Drivers/STM32N6xx_HAL_Driver/Src/stm32n6xx_hal_ramcfg.c ****   *                         ENUM as parameter.
 764:STM32Cube_FW_N6/Drivers/STM32N6xx_HAL_Driver/Src/stm32n6xx_hal_ramcfg.c ****   * @param  pCallback     : Pointer to private callback function.
 765:STM32Cube_FW_N6/Drivers/STM32N6xx_HAL_Driver/Src/stm32n6xx_hal_ramcfg.c ****   * @retval HAL status.
 766:STM32Cube_FW_N6/Drivers/STM32N6xx_HAL_Driver/Src/stm32n6xx_hal_ramcfg.c ****   */
 767:STM32Cube_FW_N6/Drivers/STM32N6xx_HAL_Driver/Src/stm32n6xx_hal_ramcfg.c **** HAL_StatusTypeDef HAL_RAMCFG_RegisterCallback(RAMCFG_HandleTypeDef *hramcfg,
 768:STM32Cube_FW_N6/Drivers/STM32N6xx_HAL_Driver/Src/stm32n6xx_hal_ramcfg.c ****                                               HAL_RAMCFG_CallbackIDTypeDef CallbackID,
 769:STM32Cube_FW_N6/Drivers/STM32N6xx_HAL_Driver/Src/stm32n6xx_hal_ramcfg.c ****                                               void (* pCallback)(RAMCFG_HandleTypeDef *_hramcfg))
 770:STM32Cube_FW_N6/Drivers/STM32N6xx_HAL_Driver/Src/stm32n6xx_hal_ramcfg.c **** {
 771:STM32Cube_FW_N6/Drivers/STM32N6xx_HAL_Driver/Src/stm32n6xx_hal_ramcfg.c ****   HAL_StatusTypeDef status = HAL_OK;
 772:STM32Cube_FW_N6/Drivers/STM32N6xx_HAL_Driver/Src/stm32n6xx_hal_ramcfg.c **** 
 773:STM32Cube_FW_N6/Drivers/STM32N6xx_HAL_Driver/Src/stm32n6xx_hal_ramcfg.c ****   /* Check the parameters */
 774:STM32Cube_FW_N6/Drivers/STM32N6xx_HAL_Driver/Src/stm32n6xx_hal_ramcfg.c ****   assert_param(IS_RAMCFG_ALL_INSTANCE(hramcfg->Instance));
 775:STM32Cube_FW_N6/Drivers/STM32N6xx_HAL_Driver/Src/stm32n6xx_hal_ramcfg.c **** 
 776:STM32Cube_FW_N6/Drivers/STM32N6xx_HAL_Driver/Src/stm32n6xx_hal_ramcfg.c ****   if (pCallback == NULL)
 777:STM32Cube_FW_N6/Drivers/STM32N6xx_HAL_Driver/Src/stm32n6xx_hal_ramcfg.c ****   {
 778:STM32Cube_FW_N6/Drivers/STM32N6xx_HAL_Driver/Src/stm32n6xx_hal_ramcfg.c ****     /* Update the error code and return error */
 779:STM32Cube_FW_N6/Drivers/STM32N6xx_HAL_Driver/Src/stm32n6xx_hal_ramcfg.c ****     hramcfg->ErrorCode |= HAL_RAMCFG_ERROR_INVALID_CALLBACK;
 780:STM32Cube_FW_N6/Drivers/STM32N6xx_HAL_Driver/Src/stm32n6xx_hal_ramcfg.c ****     return HAL_ERROR;
 781:STM32Cube_FW_N6/Drivers/STM32N6xx_HAL_Driver/Src/stm32n6xx_hal_ramcfg.c ****   }
 782:STM32Cube_FW_N6/Drivers/STM32N6xx_HAL_Driver/Src/stm32n6xx_hal_ramcfg.c **** 
 783:STM32Cube_FW_N6/Drivers/STM32N6xx_HAL_Driver/Src/stm32n6xx_hal_ramcfg.c ****   /* Check RAMCFG state */
 784:STM32Cube_FW_N6/Drivers/STM32N6xx_HAL_Driver/Src/stm32n6xx_hal_ramcfg.c ****   if (hramcfg->State == HAL_RAMCFG_STATE_READY)
 785:STM32Cube_FW_N6/Drivers/STM32N6xx_HAL_Driver/Src/stm32n6xx_hal_ramcfg.c ****   {
 786:STM32Cube_FW_N6/Drivers/STM32N6xx_HAL_Driver/Src/stm32n6xx_hal_ramcfg.c ****     switch (CallbackID)
ARM GAS  /tmp/ccJAVlht.s 			page 48


 787:STM32Cube_FW_N6/Drivers/STM32N6xx_HAL_Driver/Src/stm32n6xx_hal_ramcfg.c ****     {
 788:STM32Cube_FW_N6/Drivers/STM32N6xx_HAL_Driver/Src/stm32n6xx_hal_ramcfg.c ****       case  HAL_RAMCFG_SE_DETECT_CB_ID:
 789:STM32Cube_FW_N6/Drivers/STM32N6xx_HAL_Driver/Src/stm32n6xx_hal_ramcfg.c ****         /* Register single error callback */
 790:STM32Cube_FW_N6/Drivers/STM32N6xx_HAL_Driver/Src/stm32n6xx_hal_ramcfg.c ****         hramcfg->DetectSingleErrorCallback = pCallback;
 791:STM32Cube_FW_N6/Drivers/STM32N6xx_HAL_Driver/Src/stm32n6xx_hal_ramcfg.c ****         break;
 792:STM32Cube_FW_N6/Drivers/STM32N6xx_HAL_Driver/Src/stm32n6xx_hal_ramcfg.c **** 
 793:STM32Cube_FW_N6/Drivers/STM32N6xx_HAL_Driver/Src/stm32n6xx_hal_ramcfg.c ****       case  HAL_RAMCFG_DE_DETECT_CB_ID:
 794:STM32Cube_FW_N6/Drivers/STM32N6xx_HAL_Driver/Src/stm32n6xx_hal_ramcfg.c ****         /* Register double error callback */
 795:STM32Cube_FW_N6/Drivers/STM32N6xx_HAL_Driver/Src/stm32n6xx_hal_ramcfg.c ****         hramcfg->DetectDoubleErrorCallback = pCallback;
 796:STM32Cube_FW_N6/Drivers/STM32N6xx_HAL_Driver/Src/stm32n6xx_hal_ramcfg.c ****         break;
 797:STM32Cube_FW_N6/Drivers/STM32N6xx_HAL_Driver/Src/stm32n6xx_hal_ramcfg.c **** 
 798:STM32Cube_FW_N6/Drivers/STM32N6xx_HAL_Driver/Src/stm32n6xx_hal_ramcfg.c ****       case HAL_RAMCFG_MSPINIT_CB_ID :
 799:STM32Cube_FW_N6/Drivers/STM32N6xx_HAL_Driver/Src/stm32n6xx_hal_ramcfg.c ****         /* Register msp init callback */
 800:STM32Cube_FW_N6/Drivers/STM32N6xx_HAL_Driver/Src/stm32n6xx_hal_ramcfg.c ****         hramcfg->MspInitCallback = pCallback;
 801:STM32Cube_FW_N6/Drivers/STM32N6xx_HAL_Driver/Src/stm32n6xx_hal_ramcfg.c ****         break;
 802:STM32Cube_FW_N6/Drivers/STM32N6xx_HAL_Driver/Src/stm32n6xx_hal_ramcfg.c **** 
 803:STM32Cube_FW_N6/Drivers/STM32N6xx_HAL_Driver/Src/stm32n6xx_hal_ramcfg.c ****       case HAL_RAMCFG_MSPDEINIT_CB_ID :
 804:STM32Cube_FW_N6/Drivers/STM32N6xx_HAL_Driver/Src/stm32n6xx_hal_ramcfg.c ****         /* Register msp de-init callback */
 805:STM32Cube_FW_N6/Drivers/STM32N6xx_HAL_Driver/Src/stm32n6xx_hal_ramcfg.c ****         hramcfg->MspDeInitCallback = pCallback;
 806:STM32Cube_FW_N6/Drivers/STM32N6xx_HAL_Driver/Src/stm32n6xx_hal_ramcfg.c ****         break;
 807:STM32Cube_FW_N6/Drivers/STM32N6xx_HAL_Driver/Src/stm32n6xx_hal_ramcfg.c **** 
 808:STM32Cube_FW_N6/Drivers/STM32N6xx_HAL_Driver/Src/stm32n6xx_hal_ramcfg.c ****       default:
 809:STM32Cube_FW_N6/Drivers/STM32N6xx_HAL_Driver/Src/stm32n6xx_hal_ramcfg.c ****         /* Update the error code and return error */
 810:STM32Cube_FW_N6/Drivers/STM32N6xx_HAL_Driver/Src/stm32n6xx_hal_ramcfg.c ****         hramcfg->ErrorCode |= HAL_RAMCFG_ERROR_INVALID_CALLBACK;
 811:STM32Cube_FW_N6/Drivers/STM32N6xx_HAL_Driver/Src/stm32n6xx_hal_ramcfg.c ****         status = HAL_ERROR;
 812:STM32Cube_FW_N6/Drivers/STM32N6xx_HAL_Driver/Src/stm32n6xx_hal_ramcfg.c ****         break;
 813:STM32Cube_FW_N6/Drivers/STM32N6xx_HAL_Driver/Src/stm32n6xx_hal_ramcfg.c ****     }
 814:STM32Cube_FW_N6/Drivers/STM32N6xx_HAL_Driver/Src/stm32n6xx_hal_ramcfg.c ****   }
 815:STM32Cube_FW_N6/Drivers/STM32N6xx_HAL_Driver/Src/stm32n6xx_hal_ramcfg.c ****   else if (hramcfg->State == HAL_RAMCFG_STATE_RESET)
 816:STM32Cube_FW_N6/Drivers/STM32N6xx_HAL_Driver/Src/stm32n6xx_hal_ramcfg.c ****   {
 817:STM32Cube_FW_N6/Drivers/STM32N6xx_HAL_Driver/Src/stm32n6xx_hal_ramcfg.c ****     switch (CallbackID)
 818:STM32Cube_FW_N6/Drivers/STM32N6xx_HAL_Driver/Src/stm32n6xx_hal_ramcfg.c ****     {
 819:STM32Cube_FW_N6/Drivers/STM32N6xx_HAL_Driver/Src/stm32n6xx_hal_ramcfg.c ****       case HAL_RAMCFG_MSPINIT_CB_ID :
 820:STM32Cube_FW_N6/Drivers/STM32N6xx_HAL_Driver/Src/stm32n6xx_hal_ramcfg.c ****         /* Register msp init callback */
 821:STM32Cube_FW_N6/Drivers/STM32N6xx_HAL_Driver/Src/stm32n6xx_hal_ramcfg.c ****         hramcfg->MspInitCallback = pCallback;
 822:STM32Cube_FW_N6/Drivers/STM32N6xx_HAL_Driver/Src/stm32n6xx_hal_ramcfg.c ****         break;
 823:STM32Cube_FW_N6/Drivers/STM32N6xx_HAL_Driver/Src/stm32n6xx_hal_ramcfg.c **** 
 824:STM32Cube_FW_N6/Drivers/STM32N6xx_HAL_Driver/Src/stm32n6xx_hal_ramcfg.c ****       case HAL_RAMCFG_MSPDEINIT_CB_ID :
 825:STM32Cube_FW_N6/Drivers/STM32N6xx_HAL_Driver/Src/stm32n6xx_hal_ramcfg.c ****         /* Register msp de-init callback */
 826:STM32Cube_FW_N6/Drivers/STM32N6xx_HAL_Driver/Src/stm32n6xx_hal_ramcfg.c ****         hramcfg->MspDeInitCallback = pCallback;
 827:STM32Cube_FW_N6/Drivers/STM32N6xx_HAL_Driver/Src/stm32n6xx_hal_ramcfg.c ****         break;
 828:STM32Cube_FW_N6/Drivers/STM32N6xx_HAL_Driver/Src/stm32n6xx_hal_ramcfg.c **** 
 829:STM32Cube_FW_N6/Drivers/STM32N6xx_HAL_Driver/Src/stm32n6xx_hal_ramcfg.c ****       default :
 830:STM32Cube_FW_N6/Drivers/STM32N6xx_HAL_Driver/Src/stm32n6xx_hal_ramcfg.c ****         /* Update the error code and return error */
 831:STM32Cube_FW_N6/Drivers/STM32N6xx_HAL_Driver/Src/stm32n6xx_hal_ramcfg.c ****         hramcfg->ErrorCode |= HAL_RAMCFG_ERROR_INVALID_CALLBACK;
 832:STM32Cube_FW_N6/Drivers/STM32N6xx_HAL_Driver/Src/stm32n6xx_hal_ramcfg.c ****         status =  HAL_ERROR;
 833:STM32Cube_FW_N6/Drivers/STM32N6xx_HAL_Driver/Src/stm32n6xx_hal_ramcfg.c ****         break;
 834:STM32Cube_FW_N6/Drivers/STM32N6xx_HAL_Driver/Src/stm32n6xx_hal_ramcfg.c ****     }
 835:STM32Cube_FW_N6/Drivers/STM32N6xx_HAL_Driver/Src/stm32n6xx_hal_ramcfg.c ****   }
 836:STM32Cube_FW_N6/Drivers/STM32N6xx_HAL_Driver/Src/stm32n6xx_hal_ramcfg.c ****   else
 837:STM32Cube_FW_N6/Drivers/STM32N6xx_HAL_Driver/Src/stm32n6xx_hal_ramcfg.c ****   {
 838:STM32Cube_FW_N6/Drivers/STM32N6xx_HAL_Driver/Src/stm32n6xx_hal_ramcfg.c ****     /* Update the error code and return error  */
 839:STM32Cube_FW_N6/Drivers/STM32N6xx_HAL_Driver/Src/stm32n6xx_hal_ramcfg.c ****     hramcfg->ErrorCode = HAL_RAMCFG_ERROR_INVALID_CALLBACK;
 840:STM32Cube_FW_N6/Drivers/STM32N6xx_HAL_Driver/Src/stm32n6xx_hal_ramcfg.c ****     status = HAL_ERROR;
 841:STM32Cube_FW_N6/Drivers/STM32N6xx_HAL_Driver/Src/stm32n6xx_hal_ramcfg.c ****   }
 842:STM32Cube_FW_N6/Drivers/STM32N6xx_HAL_Driver/Src/stm32n6xx_hal_ramcfg.c **** 
 843:STM32Cube_FW_N6/Drivers/STM32N6xx_HAL_Driver/Src/stm32n6xx_hal_ramcfg.c ****   return status;
ARM GAS  /tmp/ccJAVlht.s 			page 49


 844:STM32Cube_FW_N6/Drivers/STM32N6xx_HAL_Driver/Src/stm32n6xx_hal_ramcfg.c **** }
 845:STM32Cube_FW_N6/Drivers/STM32N6xx_HAL_Driver/Src/stm32n6xx_hal_ramcfg.c **** 
 846:STM32Cube_FW_N6/Drivers/STM32N6xx_HAL_Driver/Src/stm32n6xx_hal_ramcfg.c **** /**
 847:STM32Cube_FW_N6/Drivers/STM32N6xx_HAL_Driver/Src/stm32n6xx_hal_ramcfg.c ****   * @brief  UnRegister RAMCFG callbacks.
 848:STM32Cube_FW_N6/Drivers/STM32N6xx_HAL_Driver/Src/stm32n6xx_hal_ramcfg.c ****   * @param  hramcfg       : Pointer to a RAMCFG_HandleTypeDef structure that
 849:STM32Cube_FW_N6/Drivers/STM32N6xx_HAL_Driver/Src/stm32n6xx_hal_ramcfg.c ****   *                         contains the configuration information for the
 850:STM32Cube_FW_N6/Drivers/STM32N6xx_HAL_Driver/Src/stm32n6xx_hal_ramcfg.c ****   *                         specified RAMCFG instance.
 851:STM32Cube_FW_N6/Drivers/STM32N6xx_HAL_Driver/Src/stm32n6xx_hal_ramcfg.c ****   * @param  CallbackID    : User Callback identifier a HAL_RAMCFG_CallbackIDTypeDef
 852:STM32Cube_FW_N6/Drivers/STM32N6xx_HAL_Driver/Src/stm32n6xx_hal_ramcfg.c ****   *                         ENUM as parameter.
 853:STM32Cube_FW_N6/Drivers/STM32N6xx_HAL_Driver/Src/stm32n6xx_hal_ramcfg.c ****   * @retval HAL status.
 854:STM32Cube_FW_N6/Drivers/STM32N6xx_HAL_Driver/Src/stm32n6xx_hal_ramcfg.c ****   */
 855:STM32Cube_FW_N6/Drivers/STM32N6xx_HAL_Driver/Src/stm32n6xx_hal_ramcfg.c **** HAL_StatusTypeDef HAL_RAMCFG_UnRegisterCallback(RAMCFG_HandleTypeDef *hramcfg, HAL_RAMCFG_CallbackI
 856:STM32Cube_FW_N6/Drivers/STM32N6xx_HAL_Driver/Src/stm32n6xx_hal_ramcfg.c **** {
 857:STM32Cube_FW_N6/Drivers/STM32N6xx_HAL_Driver/Src/stm32n6xx_hal_ramcfg.c ****   HAL_StatusTypeDef status = HAL_OK;
 858:STM32Cube_FW_N6/Drivers/STM32N6xx_HAL_Driver/Src/stm32n6xx_hal_ramcfg.c **** 
 859:STM32Cube_FW_N6/Drivers/STM32N6xx_HAL_Driver/Src/stm32n6xx_hal_ramcfg.c ****   /* Check the parameters */
 860:STM32Cube_FW_N6/Drivers/STM32N6xx_HAL_Driver/Src/stm32n6xx_hal_ramcfg.c ****   assert_param(IS_RAMCFG_ALL_INSTANCE(hramcfg->Instance));
 861:STM32Cube_FW_N6/Drivers/STM32N6xx_HAL_Driver/Src/stm32n6xx_hal_ramcfg.c **** 
 862:STM32Cube_FW_N6/Drivers/STM32N6xx_HAL_Driver/Src/stm32n6xx_hal_ramcfg.c ****   /* Check RAMCFG state */
 863:STM32Cube_FW_N6/Drivers/STM32N6xx_HAL_Driver/Src/stm32n6xx_hal_ramcfg.c ****   if (hramcfg->State == HAL_RAMCFG_STATE_READY)
 864:STM32Cube_FW_N6/Drivers/STM32N6xx_HAL_Driver/Src/stm32n6xx_hal_ramcfg.c ****   {
 865:STM32Cube_FW_N6/Drivers/STM32N6xx_HAL_Driver/Src/stm32n6xx_hal_ramcfg.c ****     switch (CallbackID)
 866:STM32Cube_FW_N6/Drivers/STM32N6xx_HAL_Driver/Src/stm32n6xx_hal_ramcfg.c ****     {
 867:STM32Cube_FW_N6/Drivers/STM32N6xx_HAL_Driver/Src/stm32n6xx_hal_ramcfg.c ****       case  HAL_RAMCFG_SE_DETECT_CB_ID:
 868:STM32Cube_FW_N6/Drivers/STM32N6xx_HAL_Driver/Src/stm32n6xx_hal_ramcfg.c ****         /* UnRegister single error callback */
 869:STM32Cube_FW_N6/Drivers/STM32N6xx_HAL_Driver/Src/stm32n6xx_hal_ramcfg.c ****         hramcfg->DetectSingleErrorCallback = NULL;
 870:STM32Cube_FW_N6/Drivers/STM32N6xx_HAL_Driver/Src/stm32n6xx_hal_ramcfg.c ****         break;
 871:STM32Cube_FW_N6/Drivers/STM32N6xx_HAL_Driver/Src/stm32n6xx_hal_ramcfg.c **** 
 872:STM32Cube_FW_N6/Drivers/STM32N6xx_HAL_Driver/Src/stm32n6xx_hal_ramcfg.c ****       case  HAL_RAMCFG_DE_DETECT_CB_ID:
 873:STM32Cube_FW_N6/Drivers/STM32N6xx_HAL_Driver/Src/stm32n6xx_hal_ramcfg.c ****         /* UnRegister double error callback */
 874:STM32Cube_FW_N6/Drivers/STM32N6xx_HAL_Driver/Src/stm32n6xx_hal_ramcfg.c ****         hramcfg->DetectDoubleErrorCallback = NULL;
 875:STM32Cube_FW_N6/Drivers/STM32N6xx_HAL_Driver/Src/stm32n6xx_hal_ramcfg.c ****         break;
 876:STM32Cube_FW_N6/Drivers/STM32N6xx_HAL_Driver/Src/stm32n6xx_hal_ramcfg.c **** 
 877:STM32Cube_FW_N6/Drivers/STM32N6xx_HAL_Driver/Src/stm32n6xx_hal_ramcfg.c ****       case HAL_RAMCFG_MSPINIT_CB_ID :
 878:STM32Cube_FW_N6/Drivers/STM32N6xx_HAL_Driver/Src/stm32n6xx_hal_ramcfg.c ****         /* UnRegister msp init callback */
 879:STM32Cube_FW_N6/Drivers/STM32N6xx_HAL_Driver/Src/stm32n6xx_hal_ramcfg.c ****         hramcfg->MspInitCallback = NULL;
 880:STM32Cube_FW_N6/Drivers/STM32N6xx_HAL_Driver/Src/stm32n6xx_hal_ramcfg.c ****         break;
 881:STM32Cube_FW_N6/Drivers/STM32N6xx_HAL_Driver/Src/stm32n6xx_hal_ramcfg.c **** 
 882:STM32Cube_FW_N6/Drivers/STM32N6xx_HAL_Driver/Src/stm32n6xx_hal_ramcfg.c ****       case HAL_RAMCFG_MSPDEINIT_CB_ID :
 883:STM32Cube_FW_N6/Drivers/STM32N6xx_HAL_Driver/Src/stm32n6xx_hal_ramcfg.c ****         /* UnRegister msp de-init callback */
 884:STM32Cube_FW_N6/Drivers/STM32N6xx_HAL_Driver/Src/stm32n6xx_hal_ramcfg.c ****         hramcfg->MspDeInitCallback = NULL;
 885:STM32Cube_FW_N6/Drivers/STM32N6xx_HAL_Driver/Src/stm32n6xx_hal_ramcfg.c ****         break;
 886:STM32Cube_FW_N6/Drivers/STM32N6xx_HAL_Driver/Src/stm32n6xx_hal_ramcfg.c **** 
 887:STM32Cube_FW_N6/Drivers/STM32N6xx_HAL_Driver/Src/stm32n6xx_hal_ramcfg.c ****       case  HAL_RAMCFG_ALL_CB_ID:
 888:STM32Cube_FW_N6/Drivers/STM32N6xx_HAL_Driver/Src/stm32n6xx_hal_ramcfg.c ****         /* UnRegister all available callbacks */
 889:STM32Cube_FW_N6/Drivers/STM32N6xx_HAL_Driver/Src/stm32n6xx_hal_ramcfg.c ****         hramcfg->DetectSingleErrorCallback = NULL;
 890:STM32Cube_FW_N6/Drivers/STM32N6xx_HAL_Driver/Src/stm32n6xx_hal_ramcfg.c ****         hramcfg->DetectDoubleErrorCallback = NULL;
 891:STM32Cube_FW_N6/Drivers/STM32N6xx_HAL_Driver/Src/stm32n6xx_hal_ramcfg.c ****         hramcfg->MspDeInitCallback         = NULL;
 892:STM32Cube_FW_N6/Drivers/STM32N6xx_HAL_Driver/Src/stm32n6xx_hal_ramcfg.c ****         hramcfg->MspInitCallback           = NULL;
 893:STM32Cube_FW_N6/Drivers/STM32N6xx_HAL_Driver/Src/stm32n6xx_hal_ramcfg.c ****         break;
 894:STM32Cube_FW_N6/Drivers/STM32N6xx_HAL_Driver/Src/stm32n6xx_hal_ramcfg.c **** 
 895:STM32Cube_FW_N6/Drivers/STM32N6xx_HAL_Driver/Src/stm32n6xx_hal_ramcfg.c ****       default:
 896:STM32Cube_FW_N6/Drivers/STM32N6xx_HAL_Driver/Src/stm32n6xx_hal_ramcfg.c ****         /* Return error status */
 897:STM32Cube_FW_N6/Drivers/STM32N6xx_HAL_Driver/Src/stm32n6xx_hal_ramcfg.c ****         status = HAL_ERROR;
 898:STM32Cube_FW_N6/Drivers/STM32N6xx_HAL_Driver/Src/stm32n6xx_hal_ramcfg.c ****         break;
 899:STM32Cube_FW_N6/Drivers/STM32N6xx_HAL_Driver/Src/stm32n6xx_hal_ramcfg.c ****     }
 900:STM32Cube_FW_N6/Drivers/STM32N6xx_HAL_Driver/Src/stm32n6xx_hal_ramcfg.c ****   }
ARM GAS  /tmp/ccJAVlht.s 			page 50


 901:STM32Cube_FW_N6/Drivers/STM32N6xx_HAL_Driver/Src/stm32n6xx_hal_ramcfg.c ****   else if (hramcfg->State == HAL_RAMCFG_STATE_RESET)
 902:STM32Cube_FW_N6/Drivers/STM32N6xx_HAL_Driver/Src/stm32n6xx_hal_ramcfg.c ****   {
 903:STM32Cube_FW_N6/Drivers/STM32N6xx_HAL_Driver/Src/stm32n6xx_hal_ramcfg.c ****     switch (CallbackID)
 904:STM32Cube_FW_N6/Drivers/STM32N6xx_HAL_Driver/Src/stm32n6xx_hal_ramcfg.c ****     {
 905:STM32Cube_FW_N6/Drivers/STM32N6xx_HAL_Driver/Src/stm32n6xx_hal_ramcfg.c ****       case HAL_RAMCFG_MSPINIT_CB_ID :
 906:STM32Cube_FW_N6/Drivers/STM32N6xx_HAL_Driver/Src/stm32n6xx_hal_ramcfg.c ****         /* UnRegister msp init callback */
 907:STM32Cube_FW_N6/Drivers/STM32N6xx_HAL_Driver/Src/stm32n6xx_hal_ramcfg.c ****         hramcfg->MspInitCallback = NULL;
 908:STM32Cube_FW_N6/Drivers/STM32N6xx_HAL_Driver/Src/stm32n6xx_hal_ramcfg.c ****         break;
 909:STM32Cube_FW_N6/Drivers/STM32N6xx_HAL_Driver/Src/stm32n6xx_hal_ramcfg.c **** 
 910:STM32Cube_FW_N6/Drivers/STM32N6xx_HAL_Driver/Src/stm32n6xx_hal_ramcfg.c ****       case HAL_RAMCFG_MSPDEINIT_CB_ID :
 911:STM32Cube_FW_N6/Drivers/STM32N6xx_HAL_Driver/Src/stm32n6xx_hal_ramcfg.c ****         /* UnRegister msp de-init callback */
 912:STM32Cube_FW_N6/Drivers/STM32N6xx_HAL_Driver/Src/stm32n6xx_hal_ramcfg.c ****         hramcfg->MspDeInitCallback = NULL;
 913:STM32Cube_FW_N6/Drivers/STM32N6xx_HAL_Driver/Src/stm32n6xx_hal_ramcfg.c ****         break;
 914:STM32Cube_FW_N6/Drivers/STM32N6xx_HAL_Driver/Src/stm32n6xx_hal_ramcfg.c **** 
 915:STM32Cube_FW_N6/Drivers/STM32N6xx_HAL_Driver/Src/stm32n6xx_hal_ramcfg.c ****       case  HAL_RAMCFG_ALL_CB_ID:
 916:STM32Cube_FW_N6/Drivers/STM32N6xx_HAL_Driver/Src/stm32n6xx_hal_ramcfg.c ****         /* UnRegister all available callbacks */
 917:STM32Cube_FW_N6/Drivers/STM32N6xx_HAL_Driver/Src/stm32n6xx_hal_ramcfg.c ****         hramcfg->MspDeInitCallback = NULL;
 918:STM32Cube_FW_N6/Drivers/STM32N6xx_HAL_Driver/Src/stm32n6xx_hal_ramcfg.c ****         hramcfg->MspInitCallback   = NULL;
 919:STM32Cube_FW_N6/Drivers/STM32N6xx_HAL_Driver/Src/stm32n6xx_hal_ramcfg.c ****         break;
 920:STM32Cube_FW_N6/Drivers/STM32N6xx_HAL_Driver/Src/stm32n6xx_hal_ramcfg.c **** 
 921:STM32Cube_FW_N6/Drivers/STM32N6xx_HAL_Driver/Src/stm32n6xx_hal_ramcfg.c ****       default :
 922:STM32Cube_FW_N6/Drivers/STM32N6xx_HAL_Driver/Src/stm32n6xx_hal_ramcfg.c ****         /* Update the error code */
 923:STM32Cube_FW_N6/Drivers/STM32N6xx_HAL_Driver/Src/stm32n6xx_hal_ramcfg.c ****         hramcfg->ErrorCode |= HAL_RAMCFG_ERROR_INVALID_CALLBACK;
 924:STM32Cube_FW_N6/Drivers/STM32N6xx_HAL_Driver/Src/stm32n6xx_hal_ramcfg.c **** 
 925:STM32Cube_FW_N6/Drivers/STM32N6xx_HAL_Driver/Src/stm32n6xx_hal_ramcfg.c ****         /* Update return status */
 926:STM32Cube_FW_N6/Drivers/STM32N6xx_HAL_Driver/Src/stm32n6xx_hal_ramcfg.c ****         status =  HAL_ERROR;
 927:STM32Cube_FW_N6/Drivers/STM32N6xx_HAL_Driver/Src/stm32n6xx_hal_ramcfg.c ****         break;
 928:STM32Cube_FW_N6/Drivers/STM32N6xx_HAL_Driver/Src/stm32n6xx_hal_ramcfg.c ****     }
 929:STM32Cube_FW_N6/Drivers/STM32N6xx_HAL_Driver/Src/stm32n6xx_hal_ramcfg.c ****   }
 930:STM32Cube_FW_N6/Drivers/STM32N6xx_HAL_Driver/Src/stm32n6xx_hal_ramcfg.c ****   else
 931:STM32Cube_FW_N6/Drivers/STM32N6xx_HAL_Driver/Src/stm32n6xx_hal_ramcfg.c ****   {
 932:STM32Cube_FW_N6/Drivers/STM32N6xx_HAL_Driver/Src/stm32n6xx_hal_ramcfg.c ****     /* Update the error code and return error */
 933:STM32Cube_FW_N6/Drivers/STM32N6xx_HAL_Driver/Src/stm32n6xx_hal_ramcfg.c ****     hramcfg->ErrorCode = HAL_RAMCFG_ERROR_INVALID_CALLBACK;
 934:STM32Cube_FW_N6/Drivers/STM32N6xx_HAL_Driver/Src/stm32n6xx_hal_ramcfg.c ****     status = HAL_ERROR;
 935:STM32Cube_FW_N6/Drivers/STM32N6xx_HAL_Driver/Src/stm32n6xx_hal_ramcfg.c ****   }
 936:STM32Cube_FW_N6/Drivers/STM32N6xx_HAL_Driver/Src/stm32n6xx_hal_ramcfg.c **** 
 937:STM32Cube_FW_N6/Drivers/STM32N6xx_HAL_Driver/Src/stm32n6xx_hal_ramcfg.c ****   return status;
 938:STM32Cube_FW_N6/Drivers/STM32N6xx_HAL_Driver/Src/stm32n6xx_hal_ramcfg.c **** }
 939:STM32Cube_FW_N6/Drivers/STM32N6xx_HAL_Driver/Src/stm32n6xx_hal_ramcfg.c **** 
 940:STM32Cube_FW_N6/Drivers/STM32N6xx_HAL_Driver/Src/stm32n6xx_hal_ramcfg.c **** /**
 941:STM32Cube_FW_N6/Drivers/STM32N6xx_HAL_Driver/Src/stm32n6xx_hal_ramcfg.c ****   * @}
 942:STM32Cube_FW_N6/Drivers/STM32N6xx_HAL_Driver/Src/stm32n6xx_hal_ramcfg.c ****   */
 943:STM32Cube_FW_N6/Drivers/STM32N6xx_HAL_Driver/Src/stm32n6xx_hal_ramcfg.c **** #endif /* USE_HAL_RAMCFG_REGISTER_CALLBACKS */
 944:STM32Cube_FW_N6/Drivers/STM32N6xx_HAL_Driver/Src/stm32n6xx_hal_ramcfg.c **** 
 945:STM32Cube_FW_N6/Drivers/STM32N6xx_HAL_Driver/Src/stm32n6xx_hal_ramcfg.c **** /** @addtogroup RAMCFG_Exported_Functions_Group7
 946:STM32Cube_FW_N6/Drivers/STM32N6xx_HAL_Driver/Src/stm32n6xx_hal_ramcfg.c ****   *
 947:STM32Cube_FW_N6/Drivers/STM32N6xx_HAL_Driver/Src/stm32n6xx_hal_ramcfg.c **** @verbatim
 948:STM32Cube_FW_N6/Drivers/STM32N6xx_HAL_Driver/Src/stm32n6xx_hal_ramcfg.c ****  ===============================================================================
 949:STM32Cube_FW_N6/Drivers/STM32N6xx_HAL_Driver/Src/stm32n6xx_hal_ramcfg.c ****                     ##### State and Error Functions  #####
 950:STM32Cube_FW_N6/Drivers/STM32N6xx_HAL_Driver/Src/stm32n6xx_hal_ramcfg.c ****  ===============================================================================
 951:STM32Cube_FW_N6/Drivers/STM32N6xx_HAL_Driver/Src/stm32n6xx_hal_ramcfg.c ****     [..]
 952:STM32Cube_FW_N6/Drivers/STM32N6xx_HAL_Driver/Src/stm32n6xx_hal_ramcfg.c ****       This section provides functions to check and get the RAMCFG state
 953:STM32Cube_FW_N6/Drivers/STM32N6xx_HAL_Driver/Src/stm32n6xx_hal_ramcfg.c ****       and the error code.
 954:STM32Cube_FW_N6/Drivers/STM32N6xx_HAL_Driver/Src/stm32n6xx_hal_ramcfg.c ****     [..]
 955:STM32Cube_FW_N6/Drivers/STM32N6xx_HAL_Driver/Src/stm32n6xx_hal_ramcfg.c ****       The HAL_RAMCFG_GetState() function allows the user to get the RAMCFG peripheral
 956:STM32Cube_FW_N6/Drivers/STM32N6xx_HAL_Driver/Src/stm32n6xx_hal_ramcfg.c ****       state.
 957:STM32Cube_FW_N6/Drivers/STM32N6xx_HAL_Driver/Src/stm32n6xx_hal_ramcfg.c ****       The HAL_RAMCFG_GetError() function allows the user to get the RAMCFG peripheral error
ARM GAS  /tmp/ccJAVlht.s 			page 51


 958:STM32Cube_FW_N6/Drivers/STM32N6xx_HAL_Driver/Src/stm32n6xx_hal_ramcfg.c ****       code.
 959:STM32Cube_FW_N6/Drivers/STM32N6xx_HAL_Driver/Src/stm32n6xx_hal_ramcfg.c **** 
 960:STM32Cube_FW_N6/Drivers/STM32N6xx_HAL_Driver/Src/stm32n6xx_hal_ramcfg.c **** @endverbatim
 961:STM32Cube_FW_N6/Drivers/STM32N6xx_HAL_Driver/Src/stm32n6xx_hal_ramcfg.c ****   * @{
 962:STM32Cube_FW_N6/Drivers/STM32N6xx_HAL_Driver/Src/stm32n6xx_hal_ramcfg.c ****   */
 963:STM32Cube_FW_N6/Drivers/STM32N6xx_HAL_Driver/Src/stm32n6xx_hal_ramcfg.c **** 
 964:STM32Cube_FW_N6/Drivers/STM32N6xx_HAL_Driver/Src/stm32n6xx_hal_ramcfg.c **** /**
 965:STM32Cube_FW_N6/Drivers/STM32N6xx_HAL_Driver/Src/stm32n6xx_hal_ramcfg.c ****   * @brief  Get the RAMCFG peripheral state.
 966:STM32Cube_FW_N6/Drivers/STM32N6xx_HAL_Driver/Src/stm32n6xx_hal_ramcfg.c ****   * @param  hramcfg       : Pointer to a RAMCFG_HandleTypeDef structure that
 967:STM32Cube_FW_N6/Drivers/STM32N6xx_HAL_Driver/Src/stm32n6xx_hal_ramcfg.c ****   *                         contains the configuration information for the
 968:STM32Cube_FW_N6/Drivers/STM32N6xx_HAL_Driver/Src/stm32n6xx_hal_ramcfg.c ****   *                         specified RAMCFG instance.
 969:STM32Cube_FW_N6/Drivers/STM32N6xx_HAL_Driver/Src/stm32n6xx_hal_ramcfg.c ****   * @retval RAMCFG state.
 970:STM32Cube_FW_N6/Drivers/STM32N6xx_HAL_Driver/Src/stm32n6xx_hal_ramcfg.c ****   */
 971:STM32Cube_FW_N6/Drivers/STM32N6xx_HAL_Driver/Src/stm32n6xx_hal_ramcfg.c **** HAL_RAMCFG_StateTypeDef HAL_RAMCFG_GetState(const RAMCFG_HandleTypeDef *hramcfg)
 972:STM32Cube_FW_N6/Drivers/STM32N6xx_HAL_Driver/Src/stm32n6xx_hal_ramcfg.c **** {
 1914              		.loc 1 972 1
 1915              		.cfi_startproc
 1916              		@ args = 0, pretend = 0, frame = 8
 1917              		@ frame_needed = 1, uses_anonymous_args = 0
 1918 0000 80B5     		push	{r7, lr}
 1919              		.cfi_def_cfa_offset 8
 1920              		.cfi_offset 7, -8
 1921              		.cfi_offset 14, -4
 1922 0002 82B0     		sub	sp, sp, #8
 1923              		.cfi_def_cfa_offset 16
 1924 0004 00AF     		add	r7, sp, #0
 1925              		.cfi_def_cfa_register 7
 1926 0006 7860     		str	r0, [r7, #4]
 973:STM32Cube_FW_N6/Drivers/STM32N6xx_HAL_Driver/Src/stm32n6xx_hal_ramcfg.c ****   /* Check the parameters */
 974:STM32Cube_FW_N6/Drivers/STM32N6xx_HAL_Driver/Src/stm32n6xx_hal_ramcfg.c ****   assert_param(IS_RAMCFG_ALL_INSTANCE(hramcfg->Instance));
 1927              		.loc 1 974 3
 1928 0008 7B68     		ldr	r3, [r7, #4]
 1929 000a 1B68     		ldr	r3, [r3]
 1930 000c 3B4A     		ldr	r2, .L99
 1931 000e 9342     		cmp	r3, r2
 1932 0010 6DD0     		beq	.L97
 1933              		.loc 1 974 3 is_stmt 0 discriminator 1
 1934 0012 7B68     		ldr	r3, [r7, #4]
 1935 0014 1B68     		ldr	r3, [r3]
 1936 0016 3A4A     		ldr	r2, .L99+4
 1937 0018 9342     		cmp	r3, r2
 1938 001a 68D0     		beq	.L97
 1939              		.loc 1 974 3 discriminator 2
 1940 001c 7B68     		ldr	r3, [r7, #4]
 1941 001e 1B68     		ldr	r3, [r3]
 1942 0020 384A     		ldr	r2, .L99+8
 1943 0022 9342     		cmp	r3, r2
 1944 0024 63D0     		beq	.L97
 1945              		.loc 1 974 3 discriminator 3
 1946 0026 7B68     		ldr	r3, [r7, #4]
 1947 0028 1B68     		ldr	r3, [r3]
 1948 002a 374A     		ldr	r2, .L99+12
 1949 002c 9342     		cmp	r3, r2
 1950 002e 5ED0     		beq	.L97
 1951              		.loc 1 974 3 discriminator 4
 1952 0030 7B68     		ldr	r3, [r7, #4]
 1953 0032 1B68     		ldr	r3, [r3]
ARM GAS  /tmp/ccJAVlht.s 			page 52


 1954 0034 354A     		ldr	r2, .L99+16
 1955 0036 9342     		cmp	r3, r2
 1956 0038 59D0     		beq	.L97
 1957              		.loc 1 974 3 discriminator 5
 1958 003a 7B68     		ldr	r3, [r7, #4]
 1959 003c 1B68     		ldr	r3, [r3]
 1960 003e 344A     		ldr	r2, .L99+20
 1961 0040 9342     		cmp	r3, r2
 1962 0042 54D0     		beq	.L97
 1963              		.loc 1 974 3 discriminator 6
 1964 0044 7B68     		ldr	r3, [r7, #4]
 1965 0046 1B68     		ldr	r3, [r3]
 1966 0048 324A     		ldr	r2, .L99+24
 1967 004a 9342     		cmp	r3, r2
 1968 004c 4FD0     		beq	.L97
 1969              		.loc 1 974 3 discriminator 7
 1970 004e 7B68     		ldr	r3, [r7, #4]
 1971 0050 1B68     		ldr	r3, [r3]
 1972 0052 314A     		ldr	r2, .L99+28
 1973 0054 9342     		cmp	r3, r2
 1974 0056 4AD0     		beq	.L97
 1975              		.loc 1 974 3 discriminator 8
 1976 0058 7B68     		ldr	r3, [r7, #4]
 1977 005a 1B68     		ldr	r3, [r3]
 1978 005c 2F4A     		ldr	r2, .L99+32
 1979 005e 9342     		cmp	r3, r2
 1980 0060 45D0     		beq	.L97
 1981              		.loc 1 974 3 discriminator 9
 1982 0062 7B68     		ldr	r3, [r7, #4]
 1983 0064 1B68     		ldr	r3, [r3]
 1984 0066 2E4A     		ldr	r2, .L99+36
 1985 0068 9342     		cmp	r3, r2
 1986 006a 40D0     		beq	.L97
 1987              		.loc 1 974 3 discriminator 10
 1988 006c 7B68     		ldr	r3, [r7, #4]
 1989 006e 1B68     		ldr	r3, [r3]
 1990 0070 2C4A     		ldr	r2, .L99+40
 1991 0072 9342     		cmp	r3, r2
 1992 0074 3BD0     		beq	.L97
 1993              		.loc 1 974 3 discriminator 11
 1994 0076 7B68     		ldr	r3, [r7, #4]
 1995 0078 1B68     		ldr	r3, [r3]
 1996 007a 2B4A     		ldr	r2, .L99+44
 1997 007c 9342     		cmp	r3, r2
 1998 007e 36D0     		beq	.L97
 1999              		.loc 1 974 3 discriminator 12
 2000 0080 7B68     		ldr	r3, [r7, #4]
 2001 0082 1B68     		ldr	r3, [r3]
 2002 0084 294A     		ldr	r2, .L99+48
 2003 0086 9342     		cmp	r3, r2
 2004 0088 31D0     		beq	.L97
 2005              		.loc 1 974 3 discriminator 13
 2006 008a 7B68     		ldr	r3, [r7, #4]
 2007 008c 1B68     		ldr	r3, [r3]
 2008 008e 284A     		ldr	r2, .L99+52
 2009 0090 9342     		cmp	r3, r2
 2010 0092 2CD0     		beq	.L97
ARM GAS  /tmp/ccJAVlht.s 			page 53


 2011              		.loc 1 974 3 discriminator 14
 2012 0094 7B68     		ldr	r3, [r7, #4]
 2013 0096 1B68     		ldr	r3, [r3]
 2014 0098 264A     		ldr	r2, .L99+56
 2015 009a 9342     		cmp	r3, r2
 2016 009c 27D0     		beq	.L97
 2017              		.loc 1 974 3 discriminator 15
 2018 009e 7B68     		ldr	r3, [r7, #4]
 2019 00a0 1B68     		ldr	r3, [r3]
 2020 00a2 254A     		ldr	r2, .L99+60
 2021 00a4 9342     		cmp	r3, r2
 2022 00a6 22D0     		beq	.L97
 2023              		.loc 1 974 3 discriminator 16
 2024 00a8 7B68     		ldr	r3, [r7, #4]
 2025 00aa 1B68     		ldr	r3, [r3]
 2026 00ac 234A     		ldr	r2, .L99+64
 2027 00ae 9342     		cmp	r3, r2
 2028 00b0 1DD0     		beq	.L97
 2029              		.loc 1 974 3 discriminator 17
 2030 00b2 7B68     		ldr	r3, [r7, #4]
 2031 00b4 1B68     		ldr	r3, [r3]
 2032 00b6 224A     		ldr	r2, .L99+68
 2033 00b8 9342     		cmp	r3, r2
 2034 00ba 18D0     		beq	.L97
 2035              		.loc 1 974 3 discriminator 18
 2036 00bc 7B68     		ldr	r3, [r7, #4]
 2037 00be 1B68     		ldr	r3, [r3]
 2038 00c0 204A     		ldr	r2, .L99+72
 2039 00c2 9342     		cmp	r3, r2
 2040 00c4 13D0     		beq	.L97
 2041              		.loc 1 974 3 discriminator 19
 2042 00c6 7B68     		ldr	r3, [r7, #4]
 2043 00c8 1B68     		ldr	r3, [r3]
 2044 00ca 1F4A     		ldr	r2, .L99+76
 2045 00cc 9342     		cmp	r3, r2
 2046 00ce 0ED0     		beq	.L97
 2047              		.loc 1 974 3 discriminator 20
 2048 00d0 7B68     		ldr	r3, [r7, #4]
 2049 00d2 1B68     		ldr	r3, [r3]
 2050 00d4 1D4A     		ldr	r2, .L99+80
 2051 00d6 9342     		cmp	r3, r2
 2052 00d8 09D0     		beq	.L97
 2053              		.loc 1 974 3 discriminator 21
 2054 00da 7B68     		ldr	r3, [r7, #4]
 2055 00dc 1B68     		ldr	r3, [r3]
 2056 00de 1B4A     		ldr	r2, .L99+80
 2057 00e0 9342     		cmp	r3, r2
 2058 00e2 04D0     		beq	.L97
 2059              		.loc 1 974 3 discriminator 22
 2060 00e4 40F2CE31 		movw	r1, #974
 2061 00e8 1948     		ldr	r0, .L99+84
 2062 00ea FFF7FEFF 		bl	assert_failed
 2063              	.L97:
 975:STM32Cube_FW_N6/Drivers/STM32N6xx_HAL_Driver/Src/stm32n6xx_hal_ramcfg.c **** 
 976:STM32Cube_FW_N6/Drivers/STM32N6xx_HAL_Driver/Src/stm32n6xx_hal_ramcfg.c ****   /* Return the RAMCFG state */
 977:STM32Cube_FW_N6/Drivers/STM32N6xx_HAL_Driver/Src/stm32n6xx_hal_ramcfg.c ****   return hramcfg->State;
 2064              		.loc 1 977 17 is_stmt 1
ARM GAS  /tmp/ccJAVlht.s 			page 54


 2065 00ee 7B68     		ldr	r3, [r7, #4]
 2066 00f0 1B79     		ldrb	r3, [r3, #4]
 2067 00f2 DBB2     		uxtb	r3, r3
 978:STM32Cube_FW_N6/Drivers/STM32N6xx_HAL_Driver/Src/stm32n6xx_hal_ramcfg.c **** }
 2068              		.loc 1 978 1
 2069 00f4 1846     		mov	r0, r3
 2070 00f6 0837     		adds	r7, r7, #8
 2071              		.cfi_def_cfa_offset 8
 2072 00f8 BD46     		mov	sp, r7
 2073              		.cfi_def_cfa_register 13
 2074              		@ sp needed
 2075 00fa 80BD     		pop	{r7, pc}
 2076              	.L100:
 2077              		.align	2
 2078              	.L99:
 2079 00fc 00330252 		.word	1375875840
 2080 0100 00330242 		.word	1107440384
 2081 0104 80330252 		.word	1375875968
 2082 0108 80330242 		.word	1107440512
 2083 010c 00300252 		.word	1375875072
 2084 0110 00300242 		.word	1107439616
 2085 0114 80300252 		.word	1375875200
 2086 0118 80300242 		.word	1107439744
 2087 011c 00310252 		.word	1375875328
 2088 0120 00310242 		.word	1107439872
 2089 0124 80310252 		.word	1375875456
 2090 0128 80310242 		.word	1107440000
 2091 012c 00320252 		.word	1375875584
 2092 0130 00320242 		.word	1107440128
 2093 0134 80320252 		.word	1375875712
 2094 0138 80320242 		.word	1107440256
 2095 013c 80340252 		.word	1375876224
 2096 0140 80340242 		.word	1107440768
 2097 0144 00350252 		.word	1375876352
 2098 0148 00350242 		.word	1107440896
 2099 014c 00340242 		.word	1107440640
 2100 0150 00000000 		.word	.LC0
 2101              		.cfi_endproc
 2102              	.LFE851:
 2104              		.section	.text.HAL_RAMCFG_GetError,"ax",%progbits
 2105              		.align	1
 2106              		.global	HAL_RAMCFG_GetError
 2107              		.syntax unified
 2108              		.thumb
 2109              		.thumb_func
 2111              	HAL_RAMCFG_GetError:
 2112              	.LFB852:
 979:STM32Cube_FW_N6/Drivers/STM32N6xx_HAL_Driver/Src/stm32n6xx_hal_ramcfg.c **** 
 980:STM32Cube_FW_N6/Drivers/STM32N6xx_HAL_Driver/Src/stm32n6xx_hal_ramcfg.c **** /**
 981:STM32Cube_FW_N6/Drivers/STM32N6xx_HAL_Driver/Src/stm32n6xx_hal_ramcfg.c ****   * @brief  Get the RAMCFG peripheral error code.
 982:STM32Cube_FW_N6/Drivers/STM32N6xx_HAL_Driver/Src/stm32n6xx_hal_ramcfg.c ****   * @param  hramcfg       : Pointer to a RAMCFG_HandleTypeDef structure that
 983:STM32Cube_FW_N6/Drivers/STM32N6xx_HAL_Driver/Src/stm32n6xx_hal_ramcfg.c ****   *                         contains the configuration information for the
 984:STM32Cube_FW_N6/Drivers/STM32N6xx_HAL_Driver/Src/stm32n6xx_hal_ramcfg.c ****   *                         specified RAMCFG instance.
 985:STM32Cube_FW_N6/Drivers/STM32N6xx_HAL_Driver/Src/stm32n6xx_hal_ramcfg.c ****   * @retval RAMCFG error code.
 986:STM32Cube_FW_N6/Drivers/STM32N6xx_HAL_Driver/Src/stm32n6xx_hal_ramcfg.c ****   */
 987:STM32Cube_FW_N6/Drivers/STM32N6xx_HAL_Driver/Src/stm32n6xx_hal_ramcfg.c **** uint32_t HAL_RAMCFG_GetError(const RAMCFG_HandleTypeDef *hramcfg)
 988:STM32Cube_FW_N6/Drivers/STM32N6xx_HAL_Driver/Src/stm32n6xx_hal_ramcfg.c **** {
ARM GAS  /tmp/ccJAVlht.s 			page 55


 2113              		.loc 1 988 1
 2114              		.cfi_startproc
 2115              		@ args = 0, pretend = 0, frame = 8
 2116              		@ frame_needed = 1, uses_anonymous_args = 0
 2117 0000 80B5     		push	{r7, lr}
 2118              		.cfi_def_cfa_offset 8
 2119              		.cfi_offset 7, -8
 2120              		.cfi_offset 14, -4
 2121 0002 82B0     		sub	sp, sp, #8
 2122              		.cfi_def_cfa_offset 16
 2123 0004 00AF     		add	r7, sp, #0
 2124              		.cfi_def_cfa_register 7
 2125 0006 7860     		str	r0, [r7, #4]
 989:STM32Cube_FW_N6/Drivers/STM32N6xx_HAL_Driver/Src/stm32n6xx_hal_ramcfg.c ****   /* Check the parameters */
 990:STM32Cube_FW_N6/Drivers/STM32N6xx_HAL_Driver/Src/stm32n6xx_hal_ramcfg.c ****   assert_param(IS_RAMCFG_ALL_INSTANCE(hramcfg->Instance));
 2126              		.loc 1 990 3
 2127 0008 7B68     		ldr	r3, [r7, #4]
 2128 000a 1B68     		ldr	r3, [r3]
 2129 000c 3B4A     		ldr	r2, .L104
 2130 000e 9342     		cmp	r3, r2
 2131 0010 6DD0     		beq	.L102
 2132              		.loc 1 990 3 is_stmt 0 discriminator 1
 2133 0012 7B68     		ldr	r3, [r7, #4]
 2134 0014 1B68     		ldr	r3, [r3]
 2135 0016 3A4A     		ldr	r2, .L104+4
 2136 0018 9342     		cmp	r3, r2
 2137 001a 68D0     		beq	.L102
 2138              		.loc 1 990 3 discriminator 2
 2139 001c 7B68     		ldr	r3, [r7, #4]
 2140 001e 1B68     		ldr	r3, [r3]
 2141 0020 384A     		ldr	r2, .L104+8
 2142 0022 9342     		cmp	r3, r2
 2143 0024 63D0     		beq	.L102
 2144              		.loc 1 990 3 discriminator 3
 2145 0026 7B68     		ldr	r3, [r7, #4]
 2146 0028 1B68     		ldr	r3, [r3]
 2147 002a 374A     		ldr	r2, .L104+12
 2148 002c 9342     		cmp	r3, r2
 2149 002e 5ED0     		beq	.L102
 2150              		.loc 1 990 3 discriminator 4
 2151 0030 7B68     		ldr	r3, [r7, #4]
 2152 0032 1B68     		ldr	r3, [r3]
 2153 0034 354A     		ldr	r2, .L104+16
 2154 0036 9342     		cmp	r3, r2
 2155 0038 59D0     		beq	.L102
 2156              		.loc 1 990 3 discriminator 5
 2157 003a 7B68     		ldr	r3, [r7, #4]
 2158 003c 1B68     		ldr	r3, [r3]
 2159 003e 344A     		ldr	r2, .L104+20
 2160 0040 9342     		cmp	r3, r2
 2161 0042 54D0     		beq	.L102
 2162              		.loc 1 990 3 discriminator 6
 2163 0044 7B68     		ldr	r3, [r7, #4]
 2164 0046 1B68     		ldr	r3, [r3]
 2165 0048 324A     		ldr	r2, .L104+24
 2166 004a 9342     		cmp	r3, r2
 2167 004c 4FD0     		beq	.L102
ARM GAS  /tmp/ccJAVlht.s 			page 56


 2168              		.loc 1 990 3 discriminator 7
 2169 004e 7B68     		ldr	r3, [r7, #4]
 2170 0050 1B68     		ldr	r3, [r3]
 2171 0052 314A     		ldr	r2, .L104+28
 2172 0054 9342     		cmp	r3, r2
 2173 0056 4AD0     		beq	.L102
 2174              		.loc 1 990 3 discriminator 8
 2175 0058 7B68     		ldr	r3, [r7, #4]
 2176 005a 1B68     		ldr	r3, [r3]
 2177 005c 2F4A     		ldr	r2, .L104+32
 2178 005e 9342     		cmp	r3, r2
 2179 0060 45D0     		beq	.L102
 2180              		.loc 1 990 3 discriminator 9
 2181 0062 7B68     		ldr	r3, [r7, #4]
 2182 0064 1B68     		ldr	r3, [r3]
 2183 0066 2E4A     		ldr	r2, .L104+36
 2184 0068 9342     		cmp	r3, r2
 2185 006a 40D0     		beq	.L102
 2186              		.loc 1 990 3 discriminator 10
 2187 006c 7B68     		ldr	r3, [r7, #4]
 2188 006e 1B68     		ldr	r3, [r3]
 2189 0070 2C4A     		ldr	r2, .L104+40
 2190 0072 9342     		cmp	r3, r2
 2191 0074 3BD0     		beq	.L102
 2192              		.loc 1 990 3 discriminator 11
 2193 0076 7B68     		ldr	r3, [r7, #4]
 2194 0078 1B68     		ldr	r3, [r3]
 2195 007a 2B4A     		ldr	r2, .L104+44
 2196 007c 9342     		cmp	r3, r2
 2197 007e 36D0     		beq	.L102
 2198              		.loc 1 990 3 discriminator 12
 2199 0080 7B68     		ldr	r3, [r7, #4]
 2200 0082 1B68     		ldr	r3, [r3]
 2201 0084 294A     		ldr	r2, .L104+48
 2202 0086 9342     		cmp	r3, r2
 2203 0088 31D0     		beq	.L102
 2204              		.loc 1 990 3 discriminator 13
 2205 008a 7B68     		ldr	r3, [r7, #4]
 2206 008c 1B68     		ldr	r3, [r3]
 2207 008e 284A     		ldr	r2, .L104+52
 2208 0090 9342     		cmp	r3, r2
 2209 0092 2CD0     		beq	.L102
 2210              		.loc 1 990 3 discriminator 14
 2211 0094 7B68     		ldr	r3, [r7, #4]
 2212 0096 1B68     		ldr	r3, [r3]
 2213 0098 264A     		ldr	r2, .L104+56
 2214 009a 9342     		cmp	r3, r2
 2215 009c 27D0     		beq	.L102
 2216              		.loc 1 990 3 discriminator 15
 2217 009e 7B68     		ldr	r3, [r7, #4]
 2218 00a0 1B68     		ldr	r3, [r3]
 2219 00a2 254A     		ldr	r2, .L104+60
 2220 00a4 9342     		cmp	r3, r2
 2221 00a6 22D0     		beq	.L102
 2222              		.loc 1 990 3 discriminator 16
 2223 00a8 7B68     		ldr	r3, [r7, #4]
 2224 00aa 1B68     		ldr	r3, [r3]
ARM GAS  /tmp/ccJAVlht.s 			page 57


 2225 00ac 234A     		ldr	r2, .L104+64
 2226 00ae 9342     		cmp	r3, r2
 2227 00b0 1DD0     		beq	.L102
 2228              		.loc 1 990 3 discriminator 17
 2229 00b2 7B68     		ldr	r3, [r7, #4]
 2230 00b4 1B68     		ldr	r3, [r3]
 2231 00b6 224A     		ldr	r2, .L104+68
 2232 00b8 9342     		cmp	r3, r2
 2233 00ba 18D0     		beq	.L102
 2234              		.loc 1 990 3 discriminator 18
 2235 00bc 7B68     		ldr	r3, [r7, #4]
 2236 00be 1B68     		ldr	r3, [r3]
 2237 00c0 204A     		ldr	r2, .L104+72
 2238 00c2 9342     		cmp	r3, r2
 2239 00c4 13D0     		beq	.L102
 2240              		.loc 1 990 3 discriminator 19
 2241 00c6 7B68     		ldr	r3, [r7, #4]
 2242 00c8 1B68     		ldr	r3, [r3]
 2243 00ca 1F4A     		ldr	r2, .L104+76
 2244 00cc 9342     		cmp	r3, r2
 2245 00ce 0ED0     		beq	.L102
 2246              		.loc 1 990 3 discriminator 20
 2247 00d0 7B68     		ldr	r3, [r7, #4]
 2248 00d2 1B68     		ldr	r3, [r3]
 2249 00d4 1D4A     		ldr	r2, .L104+80
 2250 00d6 9342     		cmp	r3, r2
 2251 00d8 09D0     		beq	.L102
 2252              		.loc 1 990 3 discriminator 21
 2253 00da 7B68     		ldr	r3, [r7, #4]
 2254 00dc 1B68     		ldr	r3, [r3]
 2255 00de 1B4A     		ldr	r2, .L104+80
 2256 00e0 9342     		cmp	r3, r2
 2257 00e2 04D0     		beq	.L102
 2258              		.loc 1 990 3 discriminator 22
 2259 00e4 40F2DE31 		movw	r1, #990
 2260 00e8 1948     		ldr	r0, .L104+84
 2261 00ea FFF7FEFF 		bl	assert_failed
 2262              	.L102:
 991:STM32Cube_FW_N6/Drivers/STM32N6xx_HAL_Driver/Src/stm32n6xx_hal_ramcfg.c **** 
 992:STM32Cube_FW_N6/Drivers/STM32N6xx_HAL_Driver/Src/stm32n6xx_hal_ramcfg.c ****   /* Return the RAMCFG error code */
 993:STM32Cube_FW_N6/Drivers/STM32N6xx_HAL_Driver/Src/stm32n6xx_hal_ramcfg.c ****   return hramcfg->ErrorCode;
 2263              		.loc 1 993 17 is_stmt 1
 2264 00ee 7B68     		ldr	r3, [r7, #4]
 2265 00f0 9B68     		ldr	r3, [r3, #8]
 994:STM32Cube_FW_N6/Drivers/STM32N6xx_HAL_Driver/Src/stm32n6xx_hal_ramcfg.c **** }
 2266              		.loc 1 994 1
 2267 00f2 1846     		mov	r0, r3
 2268 00f4 0837     		adds	r7, r7, #8
 2269              		.cfi_def_cfa_offset 8
 2270 00f6 BD46     		mov	sp, r7
 2271              		.cfi_def_cfa_register 13
 2272              		@ sp needed
 2273 00f8 80BD     		pop	{r7, pc}
 2274              	.L105:
 2275 00fa 00BF     		.align	2
 2276              	.L104:
 2277 00fc 00330252 		.word	1375875840
ARM GAS  /tmp/ccJAVlht.s 			page 58


 2278 0100 00330242 		.word	1107440384
 2279 0104 80330252 		.word	1375875968
 2280 0108 80330242 		.word	1107440512
 2281 010c 00300252 		.word	1375875072
 2282 0110 00300242 		.word	1107439616
 2283 0114 80300252 		.word	1375875200
 2284 0118 80300242 		.word	1107439744
 2285 011c 00310252 		.word	1375875328
 2286 0120 00310242 		.word	1107439872
 2287 0124 80310252 		.word	1375875456
 2288 0128 80310242 		.word	1107440000
 2289 012c 00320252 		.word	1375875584
 2290 0130 00320242 		.word	1107440128
 2291 0134 80320252 		.word	1375875712
 2292 0138 80320242 		.word	1107440256
 2293 013c 80340252 		.word	1375876224
 2294 0140 80340242 		.word	1107440768
 2295 0144 00350252 		.word	1375876352
 2296 0148 00350242 		.word	1107440896
 2297 014c 00340242 		.word	1107440640
 2298 0150 00000000 		.word	.LC0
 2299              		.cfi_endproc
 2300              	.LFE852:
 2302              		.section	.text.HAL_RAMCFG_EnableAXISRAM,"ax",%progbits
 2303              		.align	1
 2304              		.global	HAL_RAMCFG_EnableAXISRAM
 2305              		.syntax unified
 2306              		.thumb
 2307              		.thumb_func
 2309              	HAL_RAMCFG_EnableAXISRAM:
 2310              	.LFB853:
 995:STM32Cube_FW_N6/Drivers/STM32N6xx_HAL_Driver/Src/stm32n6xx_hal_ramcfg.c **** 
 996:STM32Cube_FW_N6/Drivers/STM32N6xx_HAL_Driver/Src/stm32n6xx_hal_ramcfg.c **** /**
 997:STM32Cube_FW_N6/Drivers/STM32N6xx_HAL_Driver/Src/stm32n6xx_hal_ramcfg.c ****   * @}
 998:STM32Cube_FW_N6/Drivers/STM32N6xx_HAL_Driver/Src/stm32n6xx_hal_ramcfg.c ****   */
 999:STM32Cube_FW_N6/Drivers/STM32N6xx_HAL_Driver/Src/stm32n6xx_hal_ramcfg.c **** 
1000:STM32Cube_FW_N6/Drivers/STM32N6xx_HAL_Driver/Src/stm32n6xx_hal_ramcfg.c **** 
1001:STM32Cube_FW_N6/Drivers/STM32N6xx_HAL_Driver/Src/stm32n6xx_hal_ramcfg.c **** 
1002:STM32Cube_FW_N6/Drivers/STM32N6xx_HAL_Driver/Src/stm32n6xx_hal_ramcfg.c **** /** @addtogroup RAMCFG_Exported_Functions_Group9
1003:STM32Cube_FW_N6/Drivers/STM32N6xx_HAL_Driver/Src/stm32n6xx_hal_ramcfg.c ****   *
1004:STM32Cube_FW_N6/Drivers/STM32N6xx_HAL_Driver/Src/stm32n6xx_hal_ramcfg.c **** @verbatim
1005:STM32Cube_FW_N6/Drivers/STM32N6xx_HAL_Driver/Src/stm32n6xx_hal_ramcfg.c ****  ===============================================================================
1006:STM32Cube_FW_N6/Drivers/STM32N6xx_HAL_Driver/Src/stm32n6xx_hal_ramcfg.c ****                       ##### AXISRAM Powerdown Functions  #####
1007:STM32Cube_FW_N6/Drivers/STM32N6xx_HAL_Driver/Src/stm32n6xx_hal_ramcfg.c ****  ===============================================================================
1008:STM32Cube_FW_N6/Drivers/STM32N6xx_HAL_Driver/Src/stm32n6xx_hal_ramcfg.c ****     [..]
1009:STM32Cube_FW_N6/Drivers/STM32N6xx_HAL_Driver/Src/stm32n6xx_hal_ramcfg.c ****       This section provides functions allowing to shutdown some AXISRAM memories
1010:STM32Cube_FW_N6/Drivers/STM32N6xx_HAL_Driver/Src/stm32n6xx_hal_ramcfg.c ****       reduce the consumption.
1011:STM32Cube_FW_N6/Drivers/STM32N6xx_HAL_Driver/Src/stm32n6xx_hal_ramcfg.c ****     [..]
1012:STM32Cube_FW_N6/Drivers/STM32N6xx_HAL_Driver/Src/stm32n6xx_hal_ramcfg.c ****       The HAL_RAMCFG_EnableAXISRAM() function allows to power on the selected AXISRAM.
1013:STM32Cube_FW_N6/Drivers/STM32N6xx_HAL_Driver/Src/stm32n6xx_hal_ramcfg.c ****     [..]
1014:STM32Cube_FW_N6/Drivers/STM32N6xx_HAL_Driver/Src/stm32n6xx_hal_ramcfg.c ****       The HAL_RAMCFG_DisableAXISRAM() function allows to power off the selected AXISRAM.
1015:STM32Cube_FW_N6/Drivers/STM32N6xx_HAL_Driver/Src/stm32n6xx_hal_ramcfg.c ****       AXISRAMi memory is in shutdown, and its content is not retained.
1016:STM32Cube_FW_N6/Drivers/STM32N6xx_HAL_Driver/Src/stm32n6xx_hal_ramcfg.c **** @endverbatim
1017:STM32Cube_FW_N6/Drivers/STM32N6xx_HAL_Driver/Src/stm32n6xx_hal_ramcfg.c ****   * @{
1018:STM32Cube_FW_N6/Drivers/STM32N6xx_HAL_Driver/Src/stm32n6xx_hal_ramcfg.c ****   */
1019:STM32Cube_FW_N6/Drivers/STM32N6xx_HAL_Driver/Src/stm32n6xx_hal_ramcfg.c **** 
1020:STM32Cube_FW_N6/Drivers/STM32N6xx_HAL_Driver/Src/stm32n6xx_hal_ramcfg.c **** /**
ARM GAS  /tmp/ccJAVlht.s 			page 59


1021:STM32Cube_FW_N6/Drivers/STM32N6xx_HAL_Driver/Src/stm32n6xx_hal_ramcfg.c ****   * @brief  Enable AXISRAM power on.
1022:STM32Cube_FW_N6/Drivers/STM32N6xx_HAL_Driver/Src/stm32n6xx_hal_ramcfg.c ****   * @note   Only AXISRAM2 to AXISRAM6 are available for this feature.
1023:STM32Cube_FW_N6/Drivers/STM32N6xx_HAL_Driver/Src/stm32n6xx_hal_ramcfg.c ****   * @param  hramcfg : Pointer to a RAMCFG_HandleTypeDef structure that
1024:STM32Cube_FW_N6/Drivers/STM32N6xx_HAL_Driver/Src/stm32n6xx_hal_ramcfg.c ****   *                   contains the configuration information for the
1025:STM32Cube_FW_N6/Drivers/STM32N6xx_HAL_Driver/Src/stm32n6xx_hal_ramcfg.c ****   *                   specified RAMCFG instance.
1026:STM32Cube_FW_N6/Drivers/STM32N6xx_HAL_Driver/Src/stm32n6xx_hal_ramcfg.c ****   * @retval None.
1027:STM32Cube_FW_N6/Drivers/STM32N6xx_HAL_Driver/Src/stm32n6xx_hal_ramcfg.c ****   */
1028:STM32Cube_FW_N6/Drivers/STM32N6xx_HAL_Driver/Src/stm32n6xx_hal_ramcfg.c **** void HAL_RAMCFG_EnableAXISRAM(const RAMCFG_HandleTypeDef *hramcfg)
1029:STM32Cube_FW_N6/Drivers/STM32N6xx_HAL_Driver/Src/stm32n6xx_hal_ramcfg.c **** {
 2311              		.loc 1 1029 1
 2312              		.cfi_startproc
 2313              		@ args = 0, pretend = 0, frame = 8
 2314              		@ frame_needed = 1, uses_anonymous_args = 0
 2315 0000 80B5     		push	{r7, lr}
 2316              		.cfi_def_cfa_offset 8
 2317              		.cfi_offset 7, -8
 2318              		.cfi_offset 14, -4
 2319 0002 82B0     		sub	sp, sp, #8
 2320              		.cfi_def_cfa_offset 16
 2321 0004 00AF     		add	r7, sp, #0
 2322              		.cfi_def_cfa_register 7
 2323 0006 7860     		str	r0, [r7, #4]
1030:STM32Cube_FW_N6/Drivers/STM32N6xx_HAL_Driver/Src/stm32n6xx_hal_ramcfg.c ****   /* Check the parameters */
1031:STM32Cube_FW_N6/Drivers/STM32N6xx_HAL_Driver/Src/stm32n6xx_hal_ramcfg.c ****   assert_param(IS_RAMCFG_AXISRAM_POWERDOWN_INSTANCE(hramcfg->Instance));
 2324              		.loc 1 1031 3
 2325 0008 7B68     		ldr	r3, [r7, #4]
 2326 000a 1B68     		ldr	r3, [r3]
 2327 000c 204A     		ldr	r2, .L108
 2328 000e 9342     		cmp	r3, r2
 2329 0010 31D0     		beq	.L107
 2330              		.loc 1 1031 3 is_stmt 0 discriminator 1
 2331 0012 7B68     		ldr	r3, [r7, #4]
 2332 0014 1B68     		ldr	r3, [r3]
 2333 0016 1F4A     		ldr	r2, .L108+4
 2334 0018 9342     		cmp	r3, r2
 2335 001a 2CD0     		beq	.L107
 2336              		.loc 1 1031 3 discriminator 2
 2337 001c 7B68     		ldr	r3, [r7, #4]
 2338 001e 1B68     		ldr	r3, [r3]
 2339 0020 1D4A     		ldr	r2, .L108+8
 2340 0022 9342     		cmp	r3, r2
 2341 0024 27D0     		beq	.L107
 2342              		.loc 1 1031 3 discriminator 3
 2343 0026 7B68     		ldr	r3, [r7, #4]
 2344 0028 1B68     		ldr	r3, [r3]
 2345 002a 1C4A     		ldr	r2, .L108+12
 2346 002c 9342     		cmp	r3, r2
 2347 002e 22D0     		beq	.L107
 2348              		.loc 1 1031 3 discriminator 4
 2349 0030 7B68     		ldr	r3, [r7, #4]
 2350 0032 1B68     		ldr	r3, [r3]
 2351 0034 1A4A     		ldr	r2, .L108+16
 2352 0036 9342     		cmp	r3, r2
 2353 0038 1DD0     		beq	.L107
 2354              		.loc 1 1031 3 discriminator 5
 2355 003a 7B68     		ldr	r3, [r7, #4]
 2356 003c 1B68     		ldr	r3, [r3]
ARM GAS  /tmp/ccJAVlht.s 			page 60


 2357 003e 194A     		ldr	r2, .L108+20
 2358 0040 9342     		cmp	r3, r2
 2359 0042 18D0     		beq	.L107
 2360              		.loc 1 1031 3 discriminator 6
 2361 0044 7B68     		ldr	r3, [r7, #4]
 2362 0046 1B68     		ldr	r3, [r3]
 2363 0048 174A     		ldr	r2, .L108+24
 2364 004a 9342     		cmp	r3, r2
 2365 004c 13D0     		beq	.L107
 2366              		.loc 1 1031 3 discriminator 7
 2367 004e 7B68     		ldr	r3, [r7, #4]
 2368 0050 1B68     		ldr	r3, [r3]
 2369 0052 164A     		ldr	r2, .L108+28
 2370 0054 9342     		cmp	r3, r2
 2371 0056 0ED0     		beq	.L107
 2372              		.loc 1 1031 3 discriminator 8
 2373 0058 7B68     		ldr	r3, [r7, #4]
 2374 005a 1B68     		ldr	r3, [r3]
 2375 005c 144A     		ldr	r2, .L108+32
 2376 005e 9342     		cmp	r3, r2
 2377 0060 09D0     		beq	.L107
 2378              		.loc 1 1031 3 discriminator 9
 2379 0062 7B68     		ldr	r3, [r7, #4]
 2380 0064 1B68     		ldr	r3, [r3]
 2381 0066 134A     		ldr	r2, .L108+36
 2382 0068 9342     		cmp	r3, r2
 2383 006a 04D0     		beq	.L107
 2384              		.loc 1 1031 3 discriminator 10
 2385 006c 40F20741 		movw	r1, #1031
 2386 0070 1148     		ldr	r0, .L108+40
 2387 0072 FFF7FEFF 		bl	assert_failed
 2388              	.L107:
1032:STM32Cube_FW_N6/Drivers/STM32N6xx_HAL_Driver/Src/stm32n6xx_hal_ramcfg.c **** 
1033:STM32Cube_FW_N6/Drivers/STM32N6xx_HAL_Driver/Src/stm32n6xx_hal_ramcfg.c ****   /* AXISRAMi power on */
1034:STM32Cube_FW_N6/Drivers/STM32N6xx_HAL_Driver/Src/stm32n6xx_hal_ramcfg.c ****   CLEAR_BIT(hramcfg->Instance->CR, RAMCFG_AXISRAM_POWERDOWN);
 2389              		.loc 1 1034 3 is_stmt 1
 2390 0076 7B68     		ldr	r3, [r7, #4]
 2391 0078 1B68     		ldr	r3, [r3]
 2392 007a 1A68     		ldr	r2, [r3]
 2393 007c 7B68     		ldr	r3, [r7, #4]
 2394 007e 1B68     		ldr	r3, [r3]
 2395 0080 22F48012 		bic	r2, r2, #1048576
 2396 0084 1A60     		str	r2, [r3]
1035:STM32Cube_FW_N6/Drivers/STM32N6xx_HAL_Driver/Src/stm32n6xx_hal_ramcfg.c **** }
 2397              		.loc 1 1035 1
 2398 0086 00BF     		nop
 2399 0088 0837     		adds	r7, r7, #8
 2400              		.cfi_def_cfa_offset 8
 2401 008a BD46     		mov	sp, r7
 2402              		.cfi_def_cfa_register 13
 2403              		@ sp needed
 2404 008c 80BD     		pop	{r7, pc}
 2405              	.L109:
 2406 008e 00BF     		.align	2
 2407              	.L108:
 2408 0090 80300252 		.word	1375875200
 2409 0094 80300242 		.word	1107439744
ARM GAS  /tmp/ccJAVlht.s 			page 61


 2410 0098 00310252 		.word	1375875328
 2411 009c 00310242 		.word	1107439872
 2412 00a0 80310252 		.word	1375875456
 2413 00a4 80310242 		.word	1107440000
 2414 00a8 00320252 		.word	1375875584
 2415 00ac 00320242 		.word	1107440128
 2416 00b0 80320252 		.word	1375875712
 2417 00b4 80320242 		.word	1107440256
 2418 00b8 00000000 		.word	.LC0
 2419              		.cfi_endproc
 2420              	.LFE853:
 2422              		.section	.text.HAL_RAMCFG_DisableAXISRAM,"ax",%progbits
 2423              		.align	1
 2424              		.global	HAL_RAMCFG_DisableAXISRAM
 2425              		.syntax unified
 2426              		.thumb
 2427              		.thumb_func
 2429              	HAL_RAMCFG_DisableAXISRAM:
 2430              	.LFB854:
1036:STM32Cube_FW_N6/Drivers/STM32N6xx_HAL_Driver/Src/stm32n6xx_hal_ramcfg.c **** 
1037:STM32Cube_FW_N6/Drivers/STM32N6xx_HAL_Driver/Src/stm32n6xx_hal_ramcfg.c **** /**
1038:STM32Cube_FW_N6/Drivers/STM32N6xx_HAL_Driver/Src/stm32n6xx_hal_ramcfg.c ****   * @brief  Disable AXISRAM power on.
1039:STM32Cube_FW_N6/Drivers/STM32N6xx_HAL_Driver/Src/stm32n6xx_hal_ramcfg.c ****   * @note   Only AXISRAM2 to AXISRAM6 are available for this feature.
1040:STM32Cube_FW_N6/Drivers/STM32N6xx_HAL_Driver/Src/stm32n6xx_hal_ramcfg.c ****   * @note   AXISRAMi memory is in shutdown, and its content is not retained.
1041:STM32Cube_FW_N6/Drivers/STM32N6xx_HAL_Driver/Src/stm32n6xx_hal_ramcfg.c ****   * @note   This bit is used to reduce the consumption by powering off the AXISRAMi.
1042:STM32Cube_FW_N6/Drivers/STM32N6xx_HAL_Driver/Src/stm32n6xx_hal_ramcfg.c ****   * @param  hramcfg : Pointer to a RAMCFG_HandleTypeDef structure that
1043:STM32Cube_FW_N6/Drivers/STM32N6xx_HAL_Driver/Src/stm32n6xx_hal_ramcfg.c ****   *                   contains the configuration information for the
1044:STM32Cube_FW_N6/Drivers/STM32N6xx_HAL_Driver/Src/stm32n6xx_hal_ramcfg.c ****   *                   specified RAMCFG instance.
1045:STM32Cube_FW_N6/Drivers/STM32N6xx_HAL_Driver/Src/stm32n6xx_hal_ramcfg.c ****   * @retval None.
1046:STM32Cube_FW_N6/Drivers/STM32N6xx_HAL_Driver/Src/stm32n6xx_hal_ramcfg.c ****   */
1047:STM32Cube_FW_N6/Drivers/STM32N6xx_HAL_Driver/Src/stm32n6xx_hal_ramcfg.c **** void HAL_RAMCFG_DisableAXISRAM(const RAMCFG_HandleTypeDef *hramcfg)
1048:STM32Cube_FW_N6/Drivers/STM32N6xx_HAL_Driver/Src/stm32n6xx_hal_ramcfg.c **** {
 2431              		.loc 1 1048 1
 2432              		.cfi_startproc
 2433              		@ args = 0, pretend = 0, frame = 8
 2434              		@ frame_needed = 1, uses_anonymous_args = 0
 2435 0000 80B5     		push	{r7, lr}
 2436              		.cfi_def_cfa_offset 8
 2437              		.cfi_offset 7, -8
 2438              		.cfi_offset 14, -4
 2439 0002 82B0     		sub	sp, sp, #8
 2440              		.cfi_def_cfa_offset 16
 2441 0004 00AF     		add	r7, sp, #0
 2442              		.cfi_def_cfa_register 7
 2443 0006 7860     		str	r0, [r7, #4]
1049:STM32Cube_FW_N6/Drivers/STM32N6xx_HAL_Driver/Src/stm32n6xx_hal_ramcfg.c ****   /* Check the parameters */
1050:STM32Cube_FW_N6/Drivers/STM32N6xx_HAL_Driver/Src/stm32n6xx_hal_ramcfg.c ****   assert_param(IS_RAMCFG_AXISRAM_POWERDOWN_INSTANCE(hramcfg->Instance));
 2444              		.loc 1 1050 3
 2445 0008 7B68     		ldr	r3, [r7, #4]
 2446 000a 1B68     		ldr	r3, [r3]
 2447 000c 204A     		ldr	r2, .L112
 2448 000e 9342     		cmp	r3, r2
 2449 0010 31D0     		beq	.L111
 2450              		.loc 1 1050 3 is_stmt 0 discriminator 1
 2451 0012 7B68     		ldr	r3, [r7, #4]
 2452 0014 1B68     		ldr	r3, [r3]
 2453 0016 1F4A     		ldr	r2, .L112+4
ARM GAS  /tmp/ccJAVlht.s 			page 62


 2454 0018 9342     		cmp	r3, r2
 2455 001a 2CD0     		beq	.L111
 2456              		.loc 1 1050 3 discriminator 2
 2457 001c 7B68     		ldr	r3, [r7, #4]
 2458 001e 1B68     		ldr	r3, [r3]
 2459 0020 1D4A     		ldr	r2, .L112+8
 2460 0022 9342     		cmp	r3, r2
 2461 0024 27D0     		beq	.L111
 2462              		.loc 1 1050 3 discriminator 3
 2463 0026 7B68     		ldr	r3, [r7, #4]
 2464 0028 1B68     		ldr	r3, [r3]
 2465 002a 1C4A     		ldr	r2, .L112+12
 2466 002c 9342     		cmp	r3, r2
 2467 002e 22D0     		beq	.L111
 2468              		.loc 1 1050 3 discriminator 4
 2469 0030 7B68     		ldr	r3, [r7, #4]
 2470 0032 1B68     		ldr	r3, [r3]
 2471 0034 1A4A     		ldr	r2, .L112+16
 2472 0036 9342     		cmp	r3, r2
 2473 0038 1DD0     		beq	.L111
 2474              		.loc 1 1050 3 discriminator 5
 2475 003a 7B68     		ldr	r3, [r7, #4]
 2476 003c 1B68     		ldr	r3, [r3]
 2477 003e 194A     		ldr	r2, .L112+20
 2478 0040 9342     		cmp	r3, r2
 2479 0042 18D0     		beq	.L111
 2480              		.loc 1 1050 3 discriminator 6
 2481 0044 7B68     		ldr	r3, [r7, #4]
 2482 0046 1B68     		ldr	r3, [r3]
 2483 0048 174A     		ldr	r2, .L112+24
 2484 004a 9342     		cmp	r3, r2
 2485 004c 13D0     		beq	.L111
 2486              		.loc 1 1050 3 discriminator 7
 2487 004e 7B68     		ldr	r3, [r7, #4]
 2488 0050 1B68     		ldr	r3, [r3]
 2489 0052 164A     		ldr	r2, .L112+28
 2490 0054 9342     		cmp	r3, r2
 2491 0056 0ED0     		beq	.L111
 2492              		.loc 1 1050 3 discriminator 8
 2493 0058 7B68     		ldr	r3, [r7, #4]
 2494 005a 1B68     		ldr	r3, [r3]
 2495 005c 144A     		ldr	r2, .L112+32
 2496 005e 9342     		cmp	r3, r2
 2497 0060 09D0     		beq	.L111
 2498              		.loc 1 1050 3 discriminator 9
 2499 0062 7B68     		ldr	r3, [r7, #4]
 2500 0064 1B68     		ldr	r3, [r3]
 2501 0066 134A     		ldr	r2, .L112+36
 2502 0068 9342     		cmp	r3, r2
 2503 006a 04D0     		beq	.L111
 2504              		.loc 1 1050 3 discriminator 10
 2505 006c 40F21A41 		movw	r1, #1050
 2506 0070 1148     		ldr	r0, .L112+40
 2507 0072 FFF7FEFF 		bl	assert_failed
 2508              	.L111:
1051:STM32Cube_FW_N6/Drivers/STM32N6xx_HAL_Driver/Src/stm32n6xx_hal_ramcfg.c **** 
1052:STM32Cube_FW_N6/Drivers/STM32N6xx_HAL_Driver/Src/stm32n6xx_hal_ramcfg.c ****   /* AXISRAMi powered off */
ARM GAS  /tmp/ccJAVlht.s 			page 63


1053:STM32Cube_FW_N6/Drivers/STM32N6xx_HAL_Driver/Src/stm32n6xx_hal_ramcfg.c ****   SET_BIT(hramcfg->Instance->CR, RAMCFG_AXISRAM_POWERDOWN);
 2509              		.loc 1 1053 3 is_stmt 1
 2510 0076 7B68     		ldr	r3, [r7, #4]
 2511 0078 1B68     		ldr	r3, [r3]
 2512 007a 1A68     		ldr	r2, [r3]
 2513 007c 7B68     		ldr	r3, [r7, #4]
 2514 007e 1B68     		ldr	r3, [r3]
 2515 0080 42F48012 		orr	r2, r2, #1048576
 2516 0084 1A60     		str	r2, [r3]
1054:STM32Cube_FW_N6/Drivers/STM32N6xx_HAL_Driver/Src/stm32n6xx_hal_ramcfg.c **** }
 2517              		.loc 1 1054 1
 2518 0086 00BF     		nop
 2519 0088 0837     		adds	r7, r7, #8
 2520              		.cfi_def_cfa_offset 8
 2521 008a BD46     		mov	sp, r7
 2522              		.cfi_def_cfa_register 13
 2523              		@ sp needed
 2524 008c 80BD     		pop	{r7, pc}
 2525              	.L113:
 2526 008e 00BF     		.align	2
 2527              	.L112:
 2528 0090 80300252 		.word	1375875200
 2529 0094 80300242 		.word	1107439744
 2530 0098 00310252 		.word	1375875328
 2531 009c 00310242 		.word	1107439872
 2532 00a0 80310252 		.word	1375875456
 2533 00a4 80310242 		.word	1107440000
 2534 00a8 00320252 		.word	1375875584
 2535 00ac 00320242 		.word	1107440128
 2536 00b0 80320252 		.word	1375875712
 2537 00b4 80320242 		.word	1107440256
 2538 00b8 00000000 		.word	.LC0
 2539              		.cfi_endproc
 2540              	.LFE854:
 2542              		.text
 2543              	.Letext0:
 2544              		.file 2 "/home/tanjiajun2002/renesas/rzv/e2studio_v2025-01_fsp_v3.1.0/toolchains/gcc_arm/arm-gnu-t
 2545              		.file 3 "/home/tanjiajun2002/renesas/rzv/e2studio_v2025-01_fsp_v3.1.0/toolchains/gcc_arm/arm-gnu-t
 2546              		.file 4 "STM32Cube_FW_N6/Drivers/CMSIS/Device/ST/STM32N6xx/Include/stm32n657xx.h"
 2547              		.file 5 "STM32Cube_FW_N6/Drivers/STM32N6xx_HAL_Driver/Inc/stm32n6xx_hal_def.h"
 2548              		.file 6 "STM32Cube_FW_N6/Drivers/STM32N6xx_HAL_Driver/Inc/stm32n6xx_hal_ramcfg.h"
 2549              		.file 7 "STM32Cube_FW_N6/Drivers/STM32N6xx_HAL_Driver/Inc/stm32n6xx_hal.h"
 2550              		.file 8 "Inc/stm32n6xx_hal_conf.h"
ARM GAS  /tmp/ccJAVlht.s 			page 64

