ARM GAS  /tmp/cc4w16ub.s 			page 1


   1              		.arch armv8.1-m.main
   2              		.fpu fpv5-d16
   3              		.arch_extension dsp
   4              		.arch_extension fp
   5              		.arch_extension fp.dp
   6              		.arch_extension mve
   7              		.arch_extension mve.fp
   8              		.eabi_attribute 5, "cortex-m55"
   9              		.eabi_attribute 28, 1
  10              		.eabi_attribute 20, 1
  11              		.eabi_attribute 21, 1
  12              		.eabi_attribute 23, 3
  13              		.eabi_attribute 24, 1
  14              		.eabi_attribute 25, 1
  15              		.eabi_attribute 26, 1
  16              		.eabi_attribute 30, 6
  17              		.eabi_attribute 34, 1
  18              		.eabi_attribute 38, 1
  19              		.eabi_attribute 18, 4
  20              		.file	"stm32n6xx_hal_cacheaxi.c"
  21              		.text
  22              	.Ltext0:
  23              		.cfi_sections	.debug_frame
  24              		.file 1 "STM32Cube_FW_N6/Drivers/STM32N6xx_HAL_Driver/Src/stm32n6xx_hal_cacheaxi.c"
  25              		.section	.rodata
  26              		.align	2
  27              	.LC0:
  28 0000 53544D33 		.ascii	"STM32Cube_FW_N6/Drivers/STM32N6xx_HAL_Driver/Src/st"
  28      32437562 
  28      655F4657 
  28      5F4E362F 
  28      44726976 
  29 0033 6D33326E 		.ascii	"m32n6xx_hal_cacheaxi.c\000"
  29      3678785F 
  29      68616C5F 
  29      63616368 
  29      65617869 
  30              		.section	.text.HAL_CACHEAXI_Init,"ax",%progbits
  31              		.align	1
  32              		.global	HAL_CACHEAXI_Init
  33              		.syntax unified
  34              		.thumb
  35              		.thumb_func
  37              	HAL_CACHEAXI_Init:
  38              	.LFB835:
   1:STM32Cube_FW_N6/Drivers/STM32N6xx_HAL_Driver/Src/stm32n6xx_hal_cacheaxi.c **** /**
   2:STM32Cube_FW_N6/Drivers/STM32N6xx_HAL_Driver/Src/stm32n6xx_hal_cacheaxi.c ****   ******************************************************************************
   3:STM32Cube_FW_N6/Drivers/STM32N6xx_HAL_Driver/Src/stm32n6xx_hal_cacheaxi.c ****   * @file    stm32n6xx_hal_cacheaxi.c
   4:STM32Cube_FW_N6/Drivers/STM32N6xx_HAL_Driver/Src/stm32n6xx_hal_cacheaxi.c ****   * @author  MCD Application Team
   5:STM32Cube_FW_N6/Drivers/STM32N6xx_HAL_Driver/Src/stm32n6xx_hal_cacheaxi.c ****   * @brief   CACHEAXI HAL module driver.
   6:STM32Cube_FW_N6/Drivers/STM32N6xx_HAL_Driver/Src/stm32n6xx_hal_cacheaxi.c ****   *          This file provides firmware functions to manage the following
   7:STM32Cube_FW_N6/Drivers/STM32N6xx_HAL_Driver/Src/stm32n6xx_hal_cacheaxi.c ****   *          functionalities of the CACHEAXI.
   8:STM32Cube_FW_N6/Drivers/STM32N6xx_HAL_Driver/Src/stm32n6xx_hal_cacheaxi.c ****   *           + Initialization and Configuration
   9:STM32Cube_FW_N6/Drivers/STM32N6xx_HAL_Driver/Src/stm32n6xx_hal_cacheaxi.c ****   *           + Cache coherency command
  10:STM32Cube_FW_N6/Drivers/STM32N6xx_HAL_Driver/Src/stm32n6xx_hal_cacheaxi.c ****   *           + Monitoring management
  11:STM32Cube_FW_N6/Drivers/STM32N6xx_HAL_Driver/Src/stm32n6xx_hal_cacheaxi.c ****   ******************************************************************************
  12:STM32Cube_FW_N6/Drivers/STM32N6xx_HAL_Driver/Src/stm32n6xx_hal_cacheaxi.c ****     * @attention
ARM GAS  /tmp/cc4w16ub.s 			page 2


  13:STM32Cube_FW_N6/Drivers/STM32N6xx_HAL_Driver/Src/stm32n6xx_hal_cacheaxi.c ****   *
  14:STM32Cube_FW_N6/Drivers/STM32N6xx_HAL_Driver/Src/stm32n6xx_hal_cacheaxi.c ****   * Copyright (c) 2023 STMicroelectronics.
  15:STM32Cube_FW_N6/Drivers/STM32N6xx_HAL_Driver/Src/stm32n6xx_hal_cacheaxi.c ****   * All rights reserved.
  16:STM32Cube_FW_N6/Drivers/STM32N6xx_HAL_Driver/Src/stm32n6xx_hal_cacheaxi.c ****   *
  17:STM32Cube_FW_N6/Drivers/STM32N6xx_HAL_Driver/Src/stm32n6xx_hal_cacheaxi.c ****   * This software is licensed under terms that can be found in the LICENSE file
  18:STM32Cube_FW_N6/Drivers/STM32N6xx_HAL_Driver/Src/stm32n6xx_hal_cacheaxi.c ****   * in the root directory of this software component.
  19:STM32Cube_FW_N6/Drivers/STM32N6xx_HAL_Driver/Src/stm32n6xx_hal_cacheaxi.c ****   * If no LICENSE file comes with this software, it is provided AS-IS.
  20:STM32Cube_FW_N6/Drivers/STM32N6xx_HAL_Driver/Src/stm32n6xx_hal_cacheaxi.c ****   *
  21:STM32Cube_FW_N6/Drivers/STM32N6xx_HAL_Driver/Src/stm32n6xx_hal_cacheaxi.c ****   ******************************************************************************
  22:STM32Cube_FW_N6/Drivers/STM32N6xx_HAL_Driver/Src/stm32n6xx_hal_cacheaxi.c ****   @verbatim
  23:STM32Cube_FW_N6/Drivers/STM32N6xx_HAL_Driver/Src/stm32n6xx_hal_cacheaxi.c ****  ===============================================================================
  24:STM32Cube_FW_N6/Drivers/STM32N6xx_HAL_Driver/Src/stm32n6xx_hal_cacheaxi.c ****                         ##### How to use this driver #####
  25:STM32Cube_FW_N6/Drivers/STM32N6xx_HAL_Driver/Src/stm32n6xx_hal_cacheaxi.c ****  ===============================================================================
  26:STM32Cube_FW_N6/Drivers/STM32N6xx_HAL_Driver/Src/stm32n6xx_hal_cacheaxi.c ****   [..]
  27:STM32Cube_FW_N6/Drivers/STM32N6xx_HAL_Driver/Src/stm32n6xx_hal_cacheaxi.c ****    (#) Configure and enable the MPU to override default config if needed, please refers to
  28:STM32Cube_FW_N6/Drivers/STM32N6xx_HAL_Driver/Src/stm32n6xx_hal_cacheaxi.c ****        ARM manual for default memory attribute. Then enable CACHEAXI with HAL_CACHEAXI_Init()
  29:STM32Cube_FW_N6/Drivers/STM32N6xx_HAL_Driver/Src/stm32n6xx_hal_cacheaxi.c ****        to cache memories data when accessed by a master peripheral through an AXI interconnect.
  30:STM32Cube_FW_N6/Drivers/STM32N6xx_HAL_Driver/Src/stm32n6xx_hal_cacheaxi.c **** 
  31:STM32Cube_FW_N6/Drivers/STM32N6xx_HAL_Driver/Src/stm32n6xx_hal_cacheaxi.c ****     [..]
  32:STM32Cube_FW_N6/Drivers/STM32N6xx_HAL_Driver/Src/stm32n6xx_hal_cacheaxi.c ****         (+) Use HAL_CACHEAXI_Invalidate() to invalidate the full cache content:
  33:STM32Cube_FW_N6/Drivers/STM32N6xx_HAL_Driver/Src/stm32n6xx_hal_cacheaxi.c ****             (++) Cache content is lost, and reloaded when needed.
  34:STM32Cube_FW_N6/Drivers/STM32N6xx_HAL_Driver/Src/stm32n6xx_hal_cacheaxi.c ****             (++) Blocking call until operation is done.
  35:STM32Cube_FW_N6/Drivers/STM32N6xx_HAL_Driver/Src/stm32n6xx_hal_cacheaxi.c ****         (+) Use HAL_CACHEAXI_CleanByAddr() to clean cache content for a specific memory range:
  36:STM32Cube_FW_N6/Drivers/STM32N6xx_HAL_Driver/Src/stm32n6xx_hal_cacheaxi.c ****             (++) Cache content for specific range is written back to specific memory range.
  37:STM32Cube_FW_N6/Drivers/STM32N6xx_HAL_Driver/Src/stm32n6xx_hal_cacheaxi.c ****             (++) Used when buffer is updated by CPU before usage by a peripheral (typically DMA tra
  38:STM32Cube_FW_N6/Drivers/STM32N6xx_HAL_Driver/Src/stm32n6xx_hal_cacheaxi.c ****             (++) Blocking call until operation is done.
  39:STM32Cube_FW_N6/Drivers/STM32N6xx_HAL_Driver/Src/stm32n6xx_hal_cacheaxi.c ****         (+) Use HAL_CACHEAXI_CleanInvalidateByAddr() to clean and invalidate cache content for a sp
  40:STM32Cube_FW_N6/Drivers/STM32N6xx_HAL_Driver/Src/stm32n6xx_hal_cacheaxi.c ****             (++) Cache content for specific range is written back to specific memory range, and rel
  41:STM32Cube_FW_N6/Drivers/STM32N6xx_HAL_Driver/Src/stm32n6xx_hal_cacheaxi.c ****             (++) Recommended to use for MPU reprogramming.
  42:STM32Cube_FW_N6/Drivers/STM32N6xx_HAL_Driver/Src/stm32n6xx_hal_cacheaxi.c ****             (++) Blocking call until operation is done.
  43:STM32Cube_FW_N6/Drivers/STM32N6xx_HAL_Driver/Src/stm32n6xx_hal_cacheaxi.c **** 
  44:STM32Cube_FW_N6/Drivers/STM32N6xx_HAL_Driver/Src/stm32n6xx_hal_cacheaxi.c ****      *** Interrupt mode IO operation ***
  45:STM32Cube_FW_N6/Drivers/STM32N6xx_HAL_Driver/Src/stm32n6xx_hal_cacheaxi.c ****      ===================================
  46:STM32Cube_FW_N6/Drivers/STM32N6xx_HAL_Driver/Src/stm32n6xx_hal_cacheaxi.c ****     [..]
  47:STM32Cube_FW_N6/Drivers/STM32N6xx_HAL_Driver/Src/stm32n6xx_hal_cacheaxi.c ****         (+) Configure the CACHEAXI interrupt priority using HAL_NVIC_SetPriority()
  48:STM32Cube_FW_N6/Drivers/STM32N6xx_HAL_Driver/Src/stm32n6xx_hal_cacheaxi.c ****         (+) Enable the CACHEAXI IRQ handler using HAL_NVIC_EnableIRQ()
  49:STM32Cube_FW_N6/Drivers/STM32N6xx_HAL_Driver/Src/stm32n6xx_hal_cacheaxi.c ****         (+) Override weak definition for following callbacks (if needed):
  50:STM32Cube_FW_N6/Drivers/STM32N6xx_HAL_Driver/Src/stm32n6xx_hal_cacheaxi.c ****             (++)HAL_CACHEAXI_CleanAndInvalidateByAddrCallback()
  51:STM32Cube_FW_N6/Drivers/STM32N6xx_HAL_Driver/Src/stm32n6xx_hal_cacheaxi.c ****             (++)HAL_CACHEAXI_InvalidateCompleteCallback()
  52:STM32Cube_FW_N6/Drivers/STM32N6xx_HAL_Driver/Src/stm32n6xx_hal_cacheaxi.c ****             (++)HAL_CACHEAXI_CleanByAddrCallback()
  53:STM32Cube_FW_N6/Drivers/STM32N6xx_HAL_Driver/Src/stm32n6xx_hal_cacheaxi.c ****             (++)HAL_CACHEAXI_ErrorCallback()
  54:STM32Cube_FW_N6/Drivers/STM32N6xx_HAL_Driver/Src/stm32n6xx_hal_cacheaxi.c ****         (+) Use HAL_CACHEAXI_<COMMAND>_IT() to start a CACHEAXI operation with IT enabled.
  55:STM32Cube_FW_N6/Drivers/STM32N6xx_HAL_Driver/Src/stm32n6xx_hal_cacheaxi.c ****         (+) Use HAL_CACHEAXI_IRQHandler() called under CACHEAXIx_IRQHandler() Interrupt subroutine
  56:STM32Cube_FW_N6/Drivers/STM32N6xx_HAL_Driver/Src/stm32n6xx_hal_cacheaxi.c **** 
  57:STM32Cube_FW_N6/Drivers/STM32N6xx_HAL_Driver/Src/stm32n6xx_hal_cacheaxi.c ****     [..]  Use HAL_CACHEAXI_GetState() function to return the CACHEAXI state and HAL_CACHEAXI_GetErr
  58:STM32Cube_FW_N6/Drivers/STM32N6xx_HAL_Driver/Src/stm32n6xx_hal_cacheaxi.c ****           in case of error detection.
  59:STM32Cube_FW_N6/Drivers/STM32N6xx_HAL_Driver/Src/stm32n6xx_hal_cacheaxi.c **** 
  60:STM32Cube_FW_N6/Drivers/STM32N6xx_HAL_Driver/Src/stm32n6xx_hal_cacheaxi.c ****      *** CACHEAXI HAL driver macros list ***
  61:STM32Cube_FW_N6/Drivers/STM32N6xx_HAL_Driver/Src/stm32n6xx_hal_cacheaxi.c ****      =============================================
  62:STM32Cube_FW_N6/Drivers/STM32N6xx_HAL_Driver/Src/stm32n6xx_hal_cacheaxi.c ****      [..]
  63:STM32Cube_FW_N6/Drivers/STM32N6xx_HAL_Driver/Src/stm32n6xx_hal_cacheaxi.c ****        Below the list of macros defined in the CACHEAXI HAL driver.
  64:STM32Cube_FW_N6/Drivers/STM32N6xx_HAL_Driver/Src/stm32n6xx_hal_cacheaxi.c **** 
  65:STM32Cube_FW_N6/Drivers/STM32N6xx_HAL_Driver/Src/stm32n6xx_hal_cacheaxi.c ****       (+) __HAL_CACHEAXI_ENABLE_IT    : Enable CACHEAXI interrupts.
  66:STM32Cube_FW_N6/Drivers/STM32N6xx_HAL_Driver/Src/stm32n6xx_hal_cacheaxi.c ****       (+) __HAL_CACHEAXI_DISABLE_IT   : Disable CACHEAXI interrupts.
  67:STM32Cube_FW_N6/Drivers/STM32N6xx_HAL_Driver/Src/stm32n6xx_hal_cacheaxi.c ****       (+) __HAL_CACHEAXI_GET_IT_SOURCE: Check whether the specified CACHEAXI interrupt source is en
  68:STM32Cube_FW_N6/Drivers/STM32N6xx_HAL_Driver/Src/stm32n6xx_hal_cacheaxi.c ****       (+) __HAL_CACHEAXI_GET_FLAG     : Check whether the selected CACHEAXI flag is set or not.
  69:STM32Cube_FW_N6/Drivers/STM32N6xx_HAL_Driver/Src/stm32n6xx_hal_cacheaxi.c ****       (+) __HAL_CACHEAXI_CLEAR_FLAG   : Clear the selected CACHEAXI flags.
ARM GAS  /tmp/cc4w16ub.s 			page 3


  70:STM32Cube_FW_N6/Drivers/STM32N6xx_HAL_Driver/Src/stm32n6xx_hal_cacheaxi.c **** 
  71:STM32Cube_FW_N6/Drivers/STM32N6xx_HAL_Driver/Src/stm32n6xx_hal_cacheaxi.c ****      [..]
  72:STM32Cube_FW_N6/Drivers/STM32N6xx_HAL_Driver/Src/stm32n6xx_hal_cacheaxi.c ****       (@) You can refer to the header file of the CACHEAXI HAL driver for more useful macros.
  73:STM32Cube_FW_N6/Drivers/STM32N6xx_HAL_Driver/Src/stm32n6xx_hal_cacheaxi.c **** 
  74:STM32Cube_FW_N6/Drivers/STM32N6xx_HAL_Driver/Src/stm32n6xx_hal_cacheaxi.c ****     [..]
  75:STM32Cube_FW_N6/Drivers/STM32N6xx_HAL_Driver/Src/stm32n6xx_hal_cacheaxi.c **** 
  76:STM32Cube_FW_N6/Drivers/STM32N6xx_HAL_Driver/Src/stm32n6xx_hal_cacheaxi.c ****   @endverbatim
  77:STM32Cube_FW_N6/Drivers/STM32N6xx_HAL_Driver/Src/stm32n6xx_hal_cacheaxi.c ****   ******************************************************************************
  78:STM32Cube_FW_N6/Drivers/STM32N6xx_HAL_Driver/Src/stm32n6xx_hal_cacheaxi.c ****   */
  79:STM32Cube_FW_N6/Drivers/STM32N6xx_HAL_Driver/Src/stm32n6xx_hal_cacheaxi.c **** 
  80:STM32Cube_FW_N6/Drivers/STM32N6xx_HAL_Driver/Src/stm32n6xx_hal_cacheaxi.c **** /* Includes ------------------------------------------------------------------*/
  81:STM32Cube_FW_N6/Drivers/STM32N6xx_HAL_Driver/Src/stm32n6xx_hal_cacheaxi.c **** #include "stm32n6xx_hal.h"
  82:STM32Cube_FW_N6/Drivers/STM32N6xx_HAL_Driver/Src/stm32n6xx_hal_cacheaxi.c **** 
  83:STM32Cube_FW_N6/Drivers/STM32N6xx_HAL_Driver/Src/stm32n6xx_hal_cacheaxi.c **** /** @addtogroup STM32N6xx_HAL_Driver
  84:STM32Cube_FW_N6/Drivers/STM32N6xx_HAL_Driver/Src/stm32n6xx_hal_cacheaxi.c ****   * @{
  85:STM32Cube_FW_N6/Drivers/STM32N6xx_HAL_Driver/Src/stm32n6xx_hal_cacheaxi.c ****   */
  86:STM32Cube_FW_N6/Drivers/STM32N6xx_HAL_Driver/Src/stm32n6xx_hal_cacheaxi.c **** 
  87:STM32Cube_FW_N6/Drivers/STM32N6xx_HAL_Driver/Src/stm32n6xx_hal_cacheaxi.c **** #if defined (CACHEAXI)
  88:STM32Cube_FW_N6/Drivers/STM32N6xx_HAL_Driver/Src/stm32n6xx_hal_cacheaxi.c **** /** @defgroup CACHEAXI CACHEAXI
  89:STM32Cube_FW_N6/Drivers/STM32N6xx_HAL_Driver/Src/stm32n6xx_hal_cacheaxi.c ****   * @brief HAL CACHEAXI module driver
  90:STM32Cube_FW_N6/Drivers/STM32N6xx_HAL_Driver/Src/stm32n6xx_hal_cacheaxi.c ****   * @{
  91:STM32Cube_FW_N6/Drivers/STM32N6xx_HAL_Driver/Src/stm32n6xx_hal_cacheaxi.c ****   */
  92:STM32Cube_FW_N6/Drivers/STM32N6xx_HAL_Driver/Src/stm32n6xx_hal_cacheaxi.c **** 
  93:STM32Cube_FW_N6/Drivers/STM32N6xx_HAL_Driver/Src/stm32n6xx_hal_cacheaxi.c **** #ifdef HAL_CACHEAXI_MODULE_ENABLED
  94:STM32Cube_FW_N6/Drivers/STM32N6xx_HAL_Driver/Src/stm32n6xx_hal_cacheaxi.c **** 
  95:STM32Cube_FW_N6/Drivers/STM32N6xx_HAL_Driver/Src/stm32n6xx_hal_cacheaxi.c **** /* Private define ------------------------------------------------------------*/
  96:STM32Cube_FW_N6/Drivers/STM32N6xx_HAL_Driver/Src/stm32n6xx_hal_cacheaxi.c **** /* Private macro -------------------------------------------------------------*/
  97:STM32Cube_FW_N6/Drivers/STM32N6xx_HAL_Driver/Src/stm32n6xx_hal_cacheaxi.c **** /** @defgroup CACHEAXI_Private_Macros CACHEAXI Private Macros
  98:STM32Cube_FW_N6/Drivers/STM32N6xx_HAL_Driver/Src/stm32n6xx_hal_cacheaxi.c ****   * @{
  99:STM32Cube_FW_N6/Drivers/STM32N6xx_HAL_Driver/Src/stm32n6xx_hal_cacheaxi.c ****   */
 100:STM32Cube_FW_N6/Drivers/STM32N6xx_HAL_Driver/Src/stm32n6xx_hal_cacheaxi.c **** #define IS_CACHEAXI_REGION_SIZE(__SIZE__)                ((__SIZE__) > 0U)
 101:STM32Cube_FW_N6/Drivers/STM32N6xx_HAL_Driver/Src/stm32n6xx_hal_cacheaxi.c **** 
 102:STM32Cube_FW_N6/Drivers/STM32N6xx_HAL_Driver/Src/stm32n6xx_hal_cacheaxi.c **** #define IS_CACHEAXI_MONITOR_TYPE(__TYPE__)               (((__TYPE__) & ~CACHEAXI_MONITOR_ALL) == 0
 103:STM32Cube_FW_N6/Drivers/STM32N6xx_HAL_Driver/Src/stm32n6xx_hal_cacheaxi.c **** 
 104:STM32Cube_FW_N6/Drivers/STM32N6xx_HAL_Driver/Src/stm32n6xx_hal_cacheaxi.c **** #define IS_CACHEAXI_SINGLE_MONITOR_TYPE(__TYPE__)      (((__TYPE__) == CACHEAXI_MONITOR_READ_HIT)  
 105:STM32Cube_FW_N6/Drivers/STM32N6xx_HAL_Driver/Src/stm32n6xx_hal_cacheaxi.c ****                                                         ((__TYPE__) == CACHEAXI_MONITOR_READ_MISS) 
 106:STM32Cube_FW_N6/Drivers/STM32N6xx_HAL_Driver/Src/stm32n6xx_hal_cacheaxi.c ****                                                         ((__TYPE__) == CACHEAXI_MONITOR_WRITE_HIT) 
 107:STM32Cube_FW_N6/Drivers/STM32N6xx_HAL_Driver/Src/stm32n6xx_hal_cacheaxi.c ****                                                         ((__TYPE__) == CACHEAXI_MONITOR_WRITE_MISS)
 108:STM32Cube_FW_N6/Drivers/STM32N6xx_HAL_Driver/Src/stm32n6xx_hal_cacheaxi.c ****                                                         ((__TYPE__) == CACHEAXI_MONITOR_READALLOC_M
 109:STM32Cube_FW_N6/Drivers/STM32N6xx_HAL_Driver/Src/stm32n6xx_hal_cacheaxi.c ****                                                         ((__TYPE__) == CACHEAXI_MONITOR_WRITEALLOC_
 110:STM32Cube_FW_N6/Drivers/STM32N6xx_HAL_Driver/Src/stm32n6xx_hal_cacheaxi.c ****                                                         ((__TYPE__) == CACHEAXI_MONITOR_WRITETHROUG
 111:STM32Cube_FW_N6/Drivers/STM32N6xx_HAL_Driver/Src/stm32n6xx_hal_cacheaxi.c ****                                                         ((__TYPE__) == CACHEAXI_MONITOR_EVICTION))
 112:STM32Cube_FW_N6/Drivers/STM32N6xx_HAL_Driver/Src/stm32n6xx_hal_cacheaxi.c **** 
 113:STM32Cube_FW_N6/Drivers/STM32N6xx_HAL_Driver/Src/stm32n6xx_hal_cacheaxi.c **** /**
 114:STM32Cube_FW_N6/Drivers/STM32N6xx_HAL_Driver/Src/stm32n6xx_hal_cacheaxi.c ****   * @}
 115:STM32Cube_FW_N6/Drivers/STM32N6xx_HAL_Driver/Src/stm32n6xx_hal_cacheaxi.c ****   */
 116:STM32Cube_FW_N6/Drivers/STM32N6xx_HAL_Driver/Src/stm32n6xx_hal_cacheaxi.c **** 
 117:STM32Cube_FW_N6/Drivers/STM32N6xx_HAL_Driver/Src/stm32n6xx_hal_cacheaxi.c **** /* Private typedef -----------------------------------------------------------*/
 118:STM32Cube_FW_N6/Drivers/STM32N6xx_HAL_Driver/Src/stm32n6xx_hal_cacheaxi.c **** /* Private constants ---------------------------------------------------------*/
 119:STM32Cube_FW_N6/Drivers/STM32N6xx_HAL_Driver/Src/stm32n6xx_hal_cacheaxi.c **** /** @addtogroup CACHEAXI_Private_Constants CACHEAXI Private Constants
 120:STM32Cube_FW_N6/Drivers/STM32N6xx_HAL_Driver/Src/stm32n6xx_hal_cacheaxi.c ****   * @{
 121:STM32Cube_FW_N6/Drivers/STM32N6xx_HAL_Driver/Src/stm32n6xx_hal_cacheaxi.c ****   */
 122:STM32Cube_FW_N6/Drivers/STM32N6xx_HAL_Driver/Src/stm32n6xx_hal_cacheaxi.c **** #define CACHEAXI_COMMAND_TIMEOUT_VALUE           200U    /* 200ms*/
 123:STM32Cube_FW_N6/Drivers/STM32N6xx_HAL_Driver/Src/stm32n6xx_hal_cacheaxi.c **** #define CACHEAXI_ENABLE_TIMEOUT_VALUE            1U      /* 1ms  */
 124:STM32Cube_FW_N6/Drivers/STM32N6xx_HAL_Driver/Src/stm32n6xx_hal_cacheaxi.c **** #define CACHEAXI_DISABLE_TIMEOUT_VALUE           1U      /* 1ms  */
 125:STM32Cube_FW_N6/Drivers/STM32N6xx_HAL_Driver/Src/stm32n6xx_hal_cacheaxi.c **** 
 126:STM32Cube_FW_N6/Drivers/STM32N6xx_HAL_Driver/Src/stm32n6xx_hal_cacheaxi.c **** #define CACHEAXI_COMMAND_CLEAN                   CACHEAXI_CR2_CACHECMD_0
ARM GAS  /tmp/cc4w16ub.s 			page 4


 127:STM32Cube_FW_N6/Drivers/STM32N6xx_HAL_Driver/Src/stm32n6xx_hal_cacheaxi.c **** #define CACHEAXI_COMMAND_CLEAN_INVALIDATE        (CACHEAXI_CR2_CACHECMD_0|CACHEAXI_CR2_CACHECMD_1)
 128:STM32Cube_FW_N6/Drivers/STM32N6xx_HAL_Driver/Src/stm32n6xx_hal_cacheaxi.c **** 
 129:STM32Cube_FW_N6/Drivers/STM32N6xx_HAL_Driver/Src/stm32n6xx_hal_cacheaxi.c **** #define CACHEAXI_POLLING_MODE                    0U
 130:STM32Cube_FW_N6/Drivers/STM32N6xx_HAL_Driver/Src/stm32n6xx_hal_cacheaxi.c **** #define CACHEAXI_IT_MODE                         1U
 131:STM32Cube_FW_N6/Drivers/STM32N6xx_HAL_Driver/Src/stm32n6xx_hal_cacheaxi.c **** 
 132:STM32Cube_FW_N6/Drivers/STM32N6xx_HAL_Driver/Src/stm32n6xx_hal_cacheaxi.c **** /**
 133:STM32Cube_FW_N6/Drivers/STM32N6xx_HAL_Driver/Src/stm32n6xx_hal_cacheaxi.c ****   * @}
 134:STM32Cube_FW_N6/Drivers/STM32N6xx_HAL_Driver/Src/stm32n6xx_hal_cacheaxi.c ****   */
 135:STM32Cube_FW_N6/Drivers/STM32N6xx_HAL_Driver/Src/stm32n6xx_hal_cacheaxi.c **** 
 136:STM32Cube_FW_N6/Drivers/STM32N6xx_HAL_Driver/Src/stm32n6xx_hal_cacheaxi.c **** /* Private variables ---------------------------------------------------------*/
 137:STM32Cube_FW_N6/Drivers/STM32N6xx_HAL_Driver/Src/stm32n6xx_hal_cacheaxi.c **** /* Private function prototypes -----------------------------------------------*/
 138:STM32Cube_FW_N6/Drivers/STM32N6xx_HAL_Driver/Src/stm32n6xx_hal_cacheaxi.c **** static HAL_StatusTypeDef CACHEAXI_CommandByAddr(CACHEAXI_HandleTypeDef *hcacheaxi, uint32_t Command
 139:STM32Cube_FW_N6/Drivers/STM32N6xx_HAL_Driver/Src/stm32n6xx_hal_cacheaxi.c ****                                                 const uint32_t *pAddr, uint32_t dSize, uint32_t mod
 140:STM32Cube_FW_N6/Drivers/STM32N6xx_HAL_Driver/Src/stm32n6xx_hal_cacheaxi.c **** 
 141:STM32Cube_FW_N6/Drivers/STM32N6xx_HAL_Driver/Src/stm32n6xx_hal_cacheaxi.c **** /* Exported functions --------------------------------------------------------*/
 142:STM32Cube_FW_N6/Drivers/STM32N6xx_HAL_Driver/Src/stm32n6xx_hal_cacheaxi.c **** /** @addtogroup CACHEAXI_Exported_Functions CACHEAXI Exported Functions
 143:STM32Cube_FW_N6/Drivers/STM32N6xx_HAL_Driver/Src/stm32n6xx_hal_cacheaxi.c ****   * @{
 144:STM32Cube_FW_N6/Drivers/STM32N6xx_HAL_Driver/Src/stm32n6xx_hal_cacheaxi.c ****   */
 145:STM32Cube_FW_N6/Drivers/STM32N6xx_HAL_Driver/Src/stm32n6xx_hal_cacheaxi.c **** 
 146:STM32Cube_FW_N6/Drivers/STM32N6xx_HAL_Driver/Src/stm32n6xx_hal_cacheaxi.c **** /** @addtogroup CACHEAXI_Exported_Functions_Group1
 147:STM32Cube_FW_N6/Drivers/STM32N6xx_HAL_Driver/Src/stm32n6xx_hal_cacheaxi.c ****   *
 148:STM32Cube_FW_N6/Drivers/STM32N6xx_HAL_Driver/Src/stm32n6xx_hal_cacheaxi.c **** @verbatim
 149:STM32Cube_FW_N6/Drivers/STM32N6xx_HAL_Driver/Src/stm32n6xx_hal_cacheaxi.c ****  ===============================================================================
 150:STM32Cube_FW_N6/Drivers/STM32N6xx_HAL_Driver/Src/stm32n6xx_hal_cacheaxi.c ****               ##### Initialization and de-initialization functions #####
 151:STM32Cube_FW_N6/Drivers/STM32N6xx_HAL_Driver/Src/stm32n6xx_hal_cacheaxi.c ****  ===============================================================================
 152:STM32Cube_FW_N6/Drivers/STM32N6xx_HAL_Driver/Src/stm32n6xx_hal_cacheaxi.c ****     [..]  This subsection provides a set of functions allowing to initialize and
 153:STM32Cube_FW_N6/Drivers/STM32N6xx_HAL_Driver/Src/stm32n6xx_hal_cacheaxi.c ****           deinitialize the CACHEAXIx peripheral:
 154:STM32Cube_FW_N6/Drivers/STM32N6xx_HAL_Driver/Src/stm32n6xx_hal_cacheaxi.c **** 
 155:STM32Cube_FW_N6/Drivers/STM32N6xx_HAL_Driver/Src/stm32n6xx_hal_cacheaxi.c ****       (+) User must implement HAL_CACHEAXI_MspInit() function in which he configures
 156:STM32Cube_FW_N6/Drivers/STM32N6xx_HAL_Driver/Src/stm32n6xx_hal_cacheaxi.c ****           all related peripherals resources (CLOCK, MPU, IT and NVIC ).
 157:STM32Cube_FW_N6/Drivers/STM32N6xx_HAL_Driver/Src/stm32n6xx_hal_cacheaxi.c **** 
 158:STM32Cube_FW_N6/Drivers/STM32N6xx_HAL_Driver/Src/stm32n6xx_hal_cacheaxi.c ****       (+) Call the function HAL_CACHEAXI_Init() to initialize the CACHEAXIx handle and
 159:STM32Cube_FW_N6/Drivers/STM32N6xx_HAL_Driver/Src/stm32n6xx_hal_cacheaxi.c ****           enable the CACHEAXI
 160:STM32Cube_FW_N6/Drivers/STM32N6xx_HAL_Driver/Src/stm32n6xx_hal_cacheaxi.c **** 
 161:STM32Cube_FW_N6/Drivers/STM32N6xx_HAL_Driver/Src/stm32n6xx_hal_cacheaxi.c ****       (+) Call the function HAL_CACHEAXI_DeInit() to restore the reset configuration
 162:STM32Cube_FW_N6/Drivers/STM32N6xx_HAL_Driver/Src/stm32n6xx_hal_cacheaxi.c ****           of the selected CACHEAXIx peripheral.
 163:STM32Cube_FW_N6/Drivers/STM32N6xx_HAL_Driver/Src/stm32n6xx_hal_cacheaxi.c **** 
 164:STM32Cube_FW_N6/Drivers/STM32N6xx_HAL_Driver/Src/stm32n6xx_hal_cacheaxi.c **** @endverbatim
 165:STM32Cube_FW_N6/Drivers/STM32N6xx_HAL_Driver/Src/stm32n6xx_hal_cacheaxi.c ****   * @{
 166:STM32Cube_FW_N6/Drivers/STM32N6xx_HAL_Driver/Src/stm32n6xx_hal_cacheaxi.c ****   */
 167:STM32Cube_FW_N6/Drivers/STM32N6xx_HAL_Driver/Src/stm32n6xx_hal_cacheaxi.c **** 
 168:STM32Cube_FW_N6/Drivers/STM32N6xx_HAL_Driver/Src/stm32n6xx_hal_cacheaxi.c **** /**
 169:STM32Cube_FW_N6/Drivers/STM32N6xx_HAL_Driver/Src/stm32n6xx_hal_cacheaxi.c ****   * @brief  Initializes the CACHEAXI handle and enables the CACHEAXI.
 170:STM32Cube_FW_N6/Drivers/STM32N6xx_HAL_Driver/Src/stm32n6xx_hal_cacheaxi.c ****   * @param  hcacheaxi Pointer to a CACHEAXI_HandleTypeDef structure that contains
 171:STM32Cube_FW_N6/Drivers/STM32N6xx_HAL_Driver/Src/stm32n6xx_hal_cacheaxi.c ****   *                   the configuration information for the specified CACHEAXI.
 172:STM32Cube_FW_N6/Drivers/STM32N6xx_HAL_Driver/Src/stm32n6xx_hal_cacheaxi.c ****   * @retval HAL status
 173:STM32Cube_FW_N6/Drivers/STM32N6xx_HAL_Driver/Src/stm32n6xx_hal_cacheaxi.c ****   * @note   In case HAL_CACHEAXI_Init() returns HAL_BUSY because an invalidation
 174:STM32Cube_FW_N6/Drivers/STM32N6xx_HAL_Driver/Src/stm32n6xx_hal_cacheaxi.c ****   *         procedure is ongoing, the application should call again HAL_CACHEAXI_Init()
 175:STM32Cube_FW_N6/Drivers/STM32N6xx_HAL_Driver/Src/stm32n6xx_hal_cacheaxi.c ****   *         until it returns HAL_OK to have the CACHEAXI enabled
 176:STM32Cube_FW_N6/Drivers/STM32N6xx_HAL_Driver/Src/stm32n6xx_hal_cacheaxi.c ****   */
 177:STM32Cube_FW_N6/Drivers/STM32N6xx_HAL_Driver/Src/stm32n6xx_hal_cacheaxi.c **** HAL_StatusTypeDef  HAL_CACHEAXI_Init(CACHEAXI_HandleTypeDef *hcacheaxi)
 178:STM32Cube_FW_N6/Drivers/STM32N6xx_HAL_Driver/Src/stm32n6xx_hal_cacheaxi.c **** {
  39              		.loc 1 178 1
  40              		.cfi_startproc
  41              		@ args = 0, pretend = 0, frame = 16
  42              		@ frame_needed = 1, uses_anonymous_args = 0
  43 0000 80B5     		push	{r7, lr}
ARM GAS  /tmp/cc4w16ub.s 			page 5


  44              		.cfi_def_cfa_offset 8
  45              		.cfi_offset 7, -8
  46              		.cfi_offset 14, -4
  47 0002 84B0     		sub	sp, sp, #16
  48              		.cfi_def_cfa_offset 24
  49 0004 00AF     		add	r7, sp, #0
  50              		.cfi_def_cfa_register 7
  51 0006 7860     		str	r0, [r7, #4]
 179:STM32Cube_FW_N6/Drivers/STM32N6xx_HAL_Driver/Src/stm32n6xx_hal_cacheaxi.c ****   HAL_StatusTypeDef status;
 180:STM32Cube_FW_N6/Drivers/STM32N6xx_HAL_Driver/Src/stm32n6xx_hal_cacheaxi.c **** 
 181:STM32Cube_FW_N6/Drivers/STM32N6xx_HAL_Driver/Src/stm32n6xx_hal_cacheaxi.c ****   /* Check the CACHEAXI handle allocation */
 182:STM32Cube_FW_N6/Drivers/STM32N6xx_HAL_Driver/Src/stm32n6xx_hal_cacheaxi.c ****   if (hcacheaxi == NULL)
  52              		.loc 1 182 6
  53 0008 7B68     		ldr	r3, [r7, #4]
  54 000a 002B     		cmp	r3, #0
  55 000c 01D1     		bne	.L2
 183:STM32Cube_FW_N6/Drivers/STM32N6xx_HAL_Driver/Src/stm32n6xx_hal_cacheaxi.c ****   {
 184:STM32Cube_FW_N6/Drivers/STM32N6xx_HAL_Driver/Src/stm32n6xx_hal_cacheaxi.c ****     return HAL_ERROR;
  56              		.loc 1 184 12
  57 000e 0123     		movs	r3, #1
  58 0010 21E0     		b	.L3
  59              	.L2:
 185:STM32Cube_FW_N6/Drivers/STM32N6xx_HAL_Driver/Src/stm32n6xx_hal_cacheaxi.c ****   }
 186:STM32Cube_FW_N6/Drivers/STM32N6xx_HAL_Driver/Src/stm32n6xx_hal_cacheaxi.c **** 
 187:STM32Cube_FW_N6/Drivers/STM32N6xx_HAL_Driver/Src/stm32n6xx_hal_cacheaxi.c ****   /* Check the parameters */
 188:STM32Cube_FW_N6/Drivers/STM32N6xx_HAL_Driver/Src/stm32n6xx_hal_cacheaxi.c ****   assert_param(IS_CACHEAXI_ALL_INSTANCE(hcacheaxi->Instance));
  60              		.loc 1 188 3
  61 0012 7B68     		ldr	r3, [r7, #4]
  62 0014 1B68     		ldr	r3, [r3]
  63 0016 124A     		ldr	r2, .L6
  64 0018 9342     		cmp	r3, r2
  65 001a 08D0     		beq	.L4
  66              		.loc 1 188 3 is_stmt 0 discriminator 1
  67 001c 7B68     		ldr	r3, [r7, #4]
  68 001e 1B68     		ldr	r3, [r3]
  69 0020 104A     		ldr	r2, .L6+4
  70 0022 9342     		cmp	r3, r2
  71 0024 03D0     		beq	.L4
  72              		.loc 1 188 3 discriminator 2
  73 0026 BC21     		movs	r1, #188
  74 0028 0F48     		ldr	r0, .L6+8
  75 002a FFF7FEFF 		bl	assert_failed
  76              	.L4:
 189:STM32Cube_FW_N6/Drivers/STM32N6xx_HAL_Driver/Src/stm32n6xx_hal_cacheaxi.c **** 
 190:STM32Cube_FW_N6/Drivers/STM32N6xx_HAL_Driver/Src/stm32n6xx_hal_cacheaxi.c ****   if (hcacheaxi->State == HAL_CACHEAXI_STATE_RESET)
  77              		.loc 1 190 16 is_stmt 1
  78 002e 7B68     		ldr	r3, [r7, #4]
  79 0030 1B79     		ldrb	r3, [r3, #4]
  80 0032 DBB2     		uxtb	r3, r3
  81              		.loc 1 190 6
  82 0034 002B     		cmp	r3, #0
  83 0036 02D1     		bne	.L5
 191:STM32Cube_FW_N6/Drivers/STM32N6xx_HAL_Driver/Src/stm32n6xx_hal_cacheaxi.c ****   {
 192:STM32Cube_FW_N6/Drivers/STM32N6xx_HAL_Driver/Src/stm32n6xx_hal_cacheaxi.c **** #if (USE_HAL_CACHEAXI_REGISTER_CALLBACKS == 1)
 193:STM32Cube_FW_N6/Drivers/STM32N6xx_HAL_Driver/Src/stm32n6xx_hal_cacheaxi.c ****     /* Init the CACHEAXI Callback settings with legacy weak */
 194:STM32Cube_FW_N6/Drivers/STM32N6xx_HAL_Driver/Src/stm32n6xx_hal_cacheaxi.c ****     hcacheaxi->ErrorCallback                      = HAL_CACHEAXI_ErrorCallback;
 195:STM32Cube_FW_N6/Drivers/STM32N6xx_HAL_Driver/Src/stm32n6xx_hal_cacheaxi.c ****     hcacheaxi->CleanByAddrCallback                = HAL_CACHEAXI_CleanByAddrCallback;
ARM GAS  /tmp/cc4w16ub.s 			page 6


 196:STM32Cube_FW_N6/Drivers/STM32N6xx_HAL_Driver/Src/stm32n6xx_hal_cacheaxi.c ****     hcacheaxi->InvalidateCompleteCallback         = HAL_CACHEAXI_InvalidateCompleteCallback;
 197:STM32Cube_FW_N6/Drivers/STM32N6xx_HAL_Driver/Src/stm32n6xx_hal_cacheaxi.c ****     hcacheaxi->CleanAndInvalidateByAddrCallback   = HAL_CACHEAXI_CleanAndInvalidateByAddrCallback;
 198:STM32Cube_FW_N6/Drivers/STM32N6xx_HAL_Driver/Src/stm32n6xx_hal_cacheaxi.c **** 
 199:STM32Cube_FW_N6/Drivers/STM32N6xx_HAL_Driver/Src/stm32n6xx_hal_cacheaxi.c ****     if (hcacheaxi->MspInitCallback == NULL)
 200:STM32Cube_FW_N6/Drivers/STM32N6xx_HAL_Driver/Src/stm32n6xx_hal_cacheaxi.c ****     {
 201:STM32Cube_FW_N6/Drivers/STM32N6xx_HAL_Driver/Src/stm32n6xx_hal_cacheaxi.c ****       hcacheaxi->MspInitCallback = HAL_CACHEAXI_MspInit;
 202:STM32Cube_FW_N6/Drivers/STM32N6xx_HAL_Driver/Src/stm32n6xx_hal_cacheaxi.c ****     }
 203:STM32Cube_FW_N6/Drivers/STM32N6xx_HAL_Driver/Src/stm32n6xx_hal_cacheaxi.c **** 
 204:STM32Cube_FW_N6/Drivers/STM32N6xx_HAL_Driver/Src/stm32n6xx_hal_cacheaxi.c ****     /* Init the low level hardware */
 205:STM32Cube_FW_N6/Drivers/STM32N6xx_HAL_Driver/Src/stm32n6xx_hal_cacheaxi.c ****     hcacheaxi->MspInitCallback(hcacheaxi);
 206:STM32Cube_FW_N6/Drivers/STM32N6xx_HAL_Driver/Src/stm32n6xx_hal_cacheaxi.c **** #else
 207:STM32Cube_FW_N6/Drivers/STM32N6xx_HAL_Driver/Src/stm32n6xx_hal_cacheaxi.c ****     /* Init the low level hardware */
 208:STM32Cube_FW_N6/Drivers/STM32N6xx_HAL_Driver/Src/stm32n6xx_hal_cacheaxi.c ****     HAL_CACHEAXI_MspInit(hcacheaxi);
  84              		.loc 1 208 5
  85 0038 7868     		ldr	r0, [r7, #4]
  86 003a FFF7FEFF 		bl	HAL_CACHEAXI_MspInit
  87              	.L5:
 209:STM32Cube_FW_N6/Drivers/STM32N6xx_HAL_Driver/Src/stm32n6xx_hal_cacheaxi.c **** #endif /* USE_HAL_CACHEAXI_REGISTER_CALLBACKS */
 210:STM32Cube_FW_N6/Drivers/STM32N6xx_HAL_Driver/Src/stm32n6xx_hal_cacheaxi.c ****   }
 211:STM32Cube_FW_N6/Drivers/STM32N6xx_HAL_Driver/Src/stm32n6xx_hal_cacheaxi.c **** 
 212:STM32Cube_FW_N6/Drivers/STM32N6xx_HAL_Driver/Src/stm32n6xx_hal_cacheaxi.c ****   /* Init the error code */
 213:STM32Cube_FW_N6/Drivers/STM32N6xx_HAL_Driver/Src/stm32n6xx_hal_cacheaxi.c ****   hcacheaxi->ErrorCode = HAL_CACHEAXI_ERROR_NONE;
  88              		.loc 1 213 24
  89 003e 7B68     		ldr	r3, [r7, #4]
  90 0040 0022     		movs	r2, #0
  91 0042 9A60     		str	r2, [r3, #8]
 214:STM32Cube_FW_N6/Drivers/STM32N6xx_HAL_Driver/Src/stm32n6xx_hal_cacheaxi.c **** 
 215:STM32Cube_FW_N6/Drivers/STM32N6xx_HAL_Driver/Src/stm32n6xx_hal_cacheaxi.c ****   /* Init the CACHEAXI handle state */
 216:STM32Cube_FW_N6/Drivers/STM32N6xx_HAL_Driver/Src/stm32n6xx_hal_cacheaxi.c ****   hcacheaxi->State = HAL_CACHEAXI_STATE_READY;
  92              		.loc 1 216 20
  93 0044 7B68     		ldr	r3, [r7, #4]
  94 0046 0122     		movs	r2, #1
  95 0048 1A71     		strb	r2, [r3, #4]
 217:STM32Cube_FW_N6/Drivers/STM32N6xx_HAL_Driver/Src/stm32n6xx_hal_cacheaxi.c **** 
 218:STM32Cube_FW_N6/Drivers/STM32N6xx_HAL_Driver/Src/stm32n6xx_hal_cacheaxi.c ****   /* Enable the selected CACHEAXI peripheral */
 219:STM32Cube_FW_N6/Drivers/STM32N6xx_HAL_Driver/Src/stm32n6xx_hal_cacheaxi.c ****   status = HAL_CACHEAXI_Enable(hcacheaxi);
  96              		.loc 1 219 12
  97 004a 7868     		ldr	r0, [r7, #4]
  98 004c FFF7FEFF 		bl	HAL_CACHEAXI_Enable
  99 0050 0346     		mov	r3, r0
 100 0052 FB73     		strb	r3, [r7, #15]
 220:STM32Cube_FW_N6/Drivers/STM32N6xx_HAL_Driver/Src/stm32n6xx_hal_cacheaxi.c **** 
 221:STM32Cube_FW_N6/Drivers/STM32N6xx_HAL_Driver/Src/stm32n6xx_hal_cacheaxi.c ****   return status;
 101              		.loc 1 221 10
 102 0054 FB7B     		ldrb	r3, [r7, #15]	@ zero_extendqisi2
 103              	.L3:
 222:STM32Cube_FW_N6/Drivers/STM32N6xx_HAL_Driver/Src/stm32n6xx_hal_cacheaxi.c **** }
 104              		.loc 1 222 1
 105 0056 1846     		mov	r0, r3
 106 0058 1037     		adds	r7, r7, #16
 107              		.cfi_def_cfa_offset 8
 108 005a BD46     		mov	sp, r7
 109              		.cfi_def_cfa_register 13
 110              		@ sp needed
 111 005c 80BD     		pop	{r7, pc}
 112              	.L7:
 113 005e 00BF     		.align	2
ARM GAS  /tmp/cc4w16ub.s 			page 7


 114              	.L6:
 115 0060 00FC0D58 		.word	1477311488
 116 0064 00FC0D48 		.word	1208876032
 117 0068 00000000 		.word	.LC0
 118              		.cfi_endproc
 119              	.LFE835:
 121              		.section	.text.HAL_CACHEAXI_DeInit,"ax",%progbits
 122              		.align	1
 123              		.global	HAL_CACHEAXI_DeInit
 124              		.syntax unified
 125              		.thumb
 126              		.thumb_func
 128              	HAL_CACHEAXI_DeInit:
 129              	.LFB836:
 223:STM32Cube_FW_N6/Drivers/STM32N6xx_HAL_Driver/Src/stm32n6xx_hal_cacheaxi.c **** 
 224:STM32Cube_FW_N6/Drivers/STM32N6xx_HAL_Driver/Src/stm32n6xx_hal_cacheaxi.c **** /**
 225:STM32Cube_FW_N6/Drivers/STM32N6xx_HAL_Driver/Src/stm32n6xx_hal_cacheaxi.c ****   * @brief  DeInitialize the Data cache.
 226:STM32Cube_FW_N6/Drivers/STM32N6xx_HAL_Driver/Src/stm32n6xx_hal_cacheaxi.c ****   * @param  hcacheaxi Pointer to a CACHEAXI_HandleTypeDef structure that contains
 227:STM32Cube_FW_N6/Drivers/STM32N6xx_HAL_Driver/Src/stm32n6xx_hal_cacheaxi.c ****   *                   the configuration information for the specified CACHEAXIx peripheral.
 228:STM32Cube_FW_N6/Drivers/STM32N6xx_HAL_Driver/Src/stm32n6xx_hal_cacheaxi.c ****   * @retval HAL status
 229:STM32Cube_FW_N6/Drivers/STM32N6xx_HAL_Driver/Src/stm32n6xx_hal_cacheaxi.c ****   */
 230:STM32Cube_FW_N6/Drivers/STM32N6xx_HAL_Driver/Src/stm32n6xx_hal_cacheaxi.c **** HAL_StatusTypeDef HAL_CACHEAXI_DeInit(CACHEAXI_HandleTypeDef *hcacheaxi)
 231:STM32Cube_FW_N6/Drivers/STM32N6xx_HAL_Driver/Src/stm32n6xx_hal_cacheaxi.c **** {
 130              		.loc 1 231 1
 131              		.cfi_startproc
 132              		@ args = 0, pretend = 0, frame = 16
 133              		@ frame_needed = 1, uses_anonymous_args = 0
 134 0000 80B5     		push	{r7, lr}
 135              		.cfi_def_cfa_offset 8
 136              		.cfi_offset 7, -8
 137              		.cfi_offset 14, -4
 138 0002 84B0     		sub	sp, sp, #16
 139              		.cfi_def_cfa_offset 24
 140 0004 00AF     		add	r7, sp, #0
 141              		.cfi_def_cfa_register 7
 142 0006 7860     		str	r0, [r7, #4]
 232:STM32Cube_FW_N6/Drivers/STM32N6xx_HAL_Driver/Src/stm32n6xx_hal_cacheaxi.c ****   HAL_StatusTypeDef status;
 233:STM32Cube_FW_N6/Drivers/STM32N6xx_HAL_Driver/Src/stm32n6xx_hal_cacheaxi.c **** 
 234:STM32Cube_FW_N6/Drivers/STM32N6xx_HAL_Driver/Src/stm32n6xx_hal_cacheaxi.c ****   /* Check the cacheaxi handle allocation */
 235:STM32Cube_FW_N6/Drivers/STM32N6xx_HAL_Driver/Src/stm32n6xx_hal_cacheaxi.c ****   if (hcacheaxi == NULL)
 143              		.loc 1 235 6
 144 0008 7B68     		ldr	r3, [r7, #4]
 145 000a 002B     		cmp	r3, #0
 146 000c 01D1     		bne	.L9
 236:STM32Cube_FW_N6/Drivers/STM32N6xx_HAL_Driver/Src/stm32n6xx_hal_cacheaxi.c ****   {
 237:STM32Cube_FW_N6/Drivers/STM32N6xx_HAL_Driver/Src/stm32n6xx_hal_cacheaxi.c ****     return HAL_ERROR;
 147              		.loc 1 237 12
 148 000e 0123     		movs	r3, #1
 149 0010 3BE0     		b	.L10
 150              	.L9:
 238:STM32Cube_FW_N6/Drivers/STM32N6xx_HAL_Driver/Src/stm32n6xx_hal_cacheaxi.c ****   }
 239:STM32Cube_FW_N6/Drivers/STM32N6xx_HAL_Driver/Src/stm32n6xx_hal_cacheaxi.c **** 
 240:STM32Cube_FW_N6/Drivers/STM32N6xx_HAL_Driver/Src/stm32n6xx_hal_cacheaxi.c ****   /* Check the parameters */
 241:STM32Cube_FW_N6/Drivers/STM32N6xx_HAL_Driver/Src/stm32n6xx_hal_cacheaxi.c ****   assert_param(IS_CACHEAXI_ALL_INSTANCE(hcacheaxi->Instance));
 151              		.loc 1 241 3
 152 0012 7B68     		ldr	r3, [r7, #4]
 153 0014 1B68     		ldr	r3, [r3]
ARM GAS  /tmp/cc4w16ub.s 			page 8


 154 0016 1F4A     		ldr	r2, .L12
 155 0018 9342     		cmp	r3, r2
 156 001a 08D0     		beq	.L11
 157              		.loc 1 241 3 is_stmt 0 discriminator 1
 158 001c 7B68     		ldr	r3, [r7, #4]
 159 001e 1B68     		ldr	r3, [r3]
 160 0020 1D4A     		ldr	r2, .L12+4
 161 0022 9342     		cmp	r3, r2
 162 0024 03D0     		beq	.L11
 163              		.loc 1 241 3 discriminator 2
 164 0026 F121     		movs	r1, #241
 165 0028 1C48     		ldr	r0, .L12+8
 166 002a FFF7FEFF 		bl	assert_failed
 167              	.L11:
 242:STM32Cube_FW_N6/Drivers/STM32N6xx_HAL_Driver/Src/stm32n6xx_hal_cacheaxi.c **** 
 243:STM32Cube_FW_N6/Drivers/STM32N6xx_HAL_Driver/Src/stm32n6xx_hal_cacheaxi.c ****   /* Update the error code */
 244:STM32Cube_FW_N6/Drivers/STM32N6xx_HAL_Driver/Src/stm32n6xx_hal_cacheaxi.c ****   hcacheaxi->ErrorCode = HAL_CACHEAXI_ERROR_NONE;
 168              		.loc 1 244 24 is_stmt 1
 169 002e 7B68     		ldr	r3, [r7, #4]
 170 0030 0022     		movs	r2, #0
 171 0032 9A60     		str	r2, [r3, #8]
 245:STM32Cube_FW_N6/Drivers/STM32N6xx_HAL_Driver/Src/stm32n6xx_hal_cacheaxi.c **** 
 246:STM32Cube_FW_N6/Drivers/STM32N6xx_HAL_Driver/Src/stm32n6xx_hal_cacheaxi.c ****   /* Return to the reset state */
 247:STM32Cube_FW_N6/Drivers/STM32N6xx_HAL_Driver/Src/stm32n6xx_hal_cacheaxi.c ****   hcacheaxi->State = HAL_CACHEAXI_STATE_RESET;
 172              		.loc 1 247 20
 173 0034 7B68     		ldr	r3, [r7, #4]
 174 0036 0022     		movs	r2, #0
 175 0038 1A71     		strb	r2, [r3, #4]
 248:STM32Cube_FW_N6/Drivers/STM32N6xx_HAL_Driver/Src/stm32n6xx_hal_cacheaxi.c **** 
 249:STM32Cube_FW_N6/Drivers/STM32N6xx_HAL_Driver/Src/stm32n6xx_hal_cacheaxi.c ****   /* Disable cache */
 250:STM32Cube_FW_N6/Drivers/STM32N6xx_HAL_Driver/Src/stm32n6xx_hal_cacheaxi.c ****   status = HAL_CACHEAXI_Disable(hcacheaxi);
 176              		.loc 1 250 12
 177 003a 7868     		ldr	r0, [r7, #4]
 178 003c FFF7FEFF 		bl	HAL_CACHEAXI_Disable
 179 0040 0346     		mov	r3, r0
 180 0042 FB73     		strb	r3, [r7, #15]
 251:STM32Cube_FW_N6/Drivers/STM32N6xx_HAL_Driver/Src/stm32n6xx_hal_cacheaxi.c **** 
 252:STM32Cube_FW_N6/Drivers/STM32N6xx_HAL_Driver/Src/stm32n6xx_hal_cacheaxi.c ****   /* reset monitor values */
 253:STM32Cube_FW_N6/Drivers/STM32N6xx_HAL_Driver/Src/stm32n6xx_hal_cacheaxi.c ****   (void)HAL_CACHEAXI_Monitor_Reset(hcacheaxi, CACHEAXI_MONITOR_ALL);
 181              		.loc 1 253 9
 182 0044 1649     		ldr	r1, .L12+12
 183 0046 7868     		ldr	r0, [r7, #4]
 184 0048 FFF7FEFF 		bl	HAL_CACHEAXI_Monitor_Reset
 254:STM32Cube_FW_N6/Drivers/STM32N6xx_HAL_Driver/Src/stm32n6xx_hal_cacheaxi.c **** 
 255:STM32Cube_FW_N6/Drivers/STM32N6xx_HAL_Driver/Src/stm32n6xx_hal_cacheaxi.c ****   /* Reset all remaining bit */
 256:STM32Cube_FW_N6/Drivers/STM32N6xx_HAL_Driver/Src/stm32n6xx_hal_cacheaxi.c ****   WRITE_REG(hcacheaxi->Instance->CR1, 0U);
 185              		.loc 1 256 3
 186 004c 7B68     		ldr	r3, [r7, #4]
 187 004e 1B68     		ldr	r3, [r3]
 188 0050 0022     		movs	r2, #0
 189 0052 1A60     		str	r2, [r3]
 257:STM32Cube_FW_N6/Drivers/STM32N6xx_HAL_Driver/Src/stm32n6xx_hal_cacheaxi.c ****   WRITE_REG(hcacheaxi->Instance->CR2, 0U);
 190              		.loc 1 257 3
 191 0054 7B68     		ldr	r3, [r7, #4]
 192 0056 1B68     		ldr	r3, [r3]
 193 0058 0022     		movs	r2, #0
 194 005a C3F80021 		str	r2, [r3, #256]
ARM GAS  /tmp/cc4w16ub.s 			page 9


 258:STM32Cube_FW_N6/Drivers/STM32N6xx_HAL_Driver/Src/stm32n6xx_hal_cacheaxi.c ****   WRITE_REG(hcacheaxi->Instance->CMDRSADDRR, 0U);
 195              		.loc 1 258 3
 196 005e 7B68     		ldr	r3, [r7, #4]
 197 0060 1B68     		ldr	r3, [r3]
 198 0062 0022     		movs	r2, #0
 199 0064 C3F80421 		str	r2, [r3, #260]
 259:STM32Cube_FW_N6/Drivers/STM32N6xx_HAL_Driver/Src/stm32n6xx_hal_cacheaxi.c ****   WRITE_REG(hcacheaxi->Instance->CMDREADDRR, 0U);
 200              		.loc 1 259 3
 201 0068 7B68     		ldr	r3, [r7, #4]
 202 006a 1B68     		ldr	r3, [r3]
 203 006c 0022     		movs	r2, #0
 204 006e C3F80821 		str	r2, [r3, #264]
 260:STM32Cube_FW_N6/Drivers/STM32N6xx_HAL_Driver/Src/stm32n6xx_hal_cacheaxi.c ****   WRITE_REG(hcacheaxi->Instance->FCR, 0U);
 205              		.loc 1 260 3
 206 0072 7B68     		ldr	r3, [r7, #4]
 207 0074 1B68     		ldr	r3, [r3]
 208 0076 0022     		movs	r2, #0
 209 0078 DA60     		str	r2, [r3, #12]
 261:STM32Cube_FW_N6/Drivers/STM32N6xx_HAL_Driver/Src/stm32n6xx_hal_cacheaxi.c ****   WRITE_REG(hcacheaxi->Instance->IER, 0U);
 210              		.loc 1 261 3
 211 007a 7B68     		ldr	r3, [r7, #4]
 212 007c 1B68     		ldr	r3, [r3]
 213 007e 0022     		movs	r2, #0
 214 0080 9A60     		str	r2, [r3, #8]
 262:STM32Cube_FW_N6/Drivers/STM32N6xx_HAL_Driver/Src/stm32n6xx_hal_cacheaxi.c **** 
 263:STM32Cube_FW_N6/Drivers/STM32N6xx_HAL_Driver/Src/stm32n6xx_hal_cacheaxi.c **** #if (USE_HAL_CACHEAXI_REGISTER_CALLBACKS == 1)
 264:STM32Cube_FW_N6/Drivers/STM32N6xx_HAL_Driver/Src/stm32n6xx_hal_cacheaxi.c ****   if (hcacheaxi->MspDeInitCallback == NULL)
 265:STM32Cube_FW_N6/Drivers/STM32N6xx_HAL_Driver/Src/stm32n6xx_hal_cacheaxi.c ****   {
 266:STM32Cube_FW_N6/Drivers/STM32N6xx_HAL_Driver/Src/stm32n6xx_hal_cacheaxi.c ****     hcacheaxi->MspDeInitCallback = HAL_CACHEAXI_MspDeInit;
 267:STM32Cube_FW_N6/Drivers/STM32N6xx_HAL_Driver/Src/stm32n6xx_hal_cacheaxi.c ****   }
 268:STM32Cube_FW_N6/Drivers/STM32N6xx_HAL_Driver/Src/stm32n6xx_hal_cacheaxi.c **** 
 269:STM32Cube_FW_N6/Drivers/STM32N6xx_HAL_Driver/Src/stm32n6xx_hal_cacheaxi.c ****   /* DeInitialize the low level hardware */
 270:STM32Cube_FW_N6/Drivers/STM32N6xx_HAL_Driver/Src/stm32n6xx_hal_cacheaxi.c ****   hcacheaxi->MspDeInitCallback(hcacheaxi);
 271:STM32Cube_FW_N6/Drivers/STM32N6xx_HAL_Driver/Src/stm32n6xx_hal_cacheaxi.c **** #else
 272:STM32Cube_FW_N6/Drivers/STM32N6xx_HAL_Driver/Src/stm32n6xx_hal_cacheaxi.c ****   /* DeInitialize the low level hardware */
 273:STM32Cube_FW_N6/Drivers/STM32N6xx_HAL_Driver/Src/stm32n6xx_hal_cacheaxi.c ****   HAL_CACHEAXI_MspDeInit(hcacheaxi);
 215              		.loc 1 273 3
 216 0082 7868     		ldr	r0, [r7, #4]
 217 0084 FFF7FEFF 		bl	HAL_CACHEAXI_MspDeInit
 274:STM32Cube_FW_N6/Drivers/STM32N6xx_HAL_Driver/Src/stm32n6xx_hal_cacheaxi.c **** #endif /* USE_HAL_CACHEAXI_REGISTER_CALLBACKS */
 275:STM32Cube_FW_N6/Drivers/STM32N6xx_HAL_Driver/Src/stm32n6xx_hal_cacheaxi.c **** 
 276:STM32Cube_FW_N6/Drivers/STM32N6xx_HAL_Driver/Src/stm32n6xx_hal_cacheaxi.c ****   return status;
 218              		.loc 1 276 10
 219 0088 FB7B     		ldrb	r3, [r7, #15]	@ zero_extendqisi2
 220              	.L10:
 277:STM32Cube_FW_N6/Drivers/STM32N6xx_HAL_Driver/Src/stm32n6xx_hal_cacheaxi.c **** }
 221              		.loc 1 277 1
 222 008a 1846     		mov	r0, r3
 223 008c 1037     		adds	r7, r7, #16
 224              		.cfi_def_cfa_offset 8
 225 008e BD46     		mov	sp, r7
 226              		.cfi_def_cfa_register 13
 227              		@ sp needed
 228 0090 80BD     		pop	{r7, pc}
 229              	.L13:
 230 0092 00BF     		.align	2
 231              	.L12:
ARM GAS  /tmp/cc4w16ub.s 			page 10


 232 0094 00FC0D58 		.word	1477311488
 233 0098 00FC0D48 		.word	1208876032
 234 009c 00000000 		.word	.LC0
 235 00a0 00003333 		.word	858980352
 236              		.cfi_endproc
 237              	.LFE836:
 239              		.section	.text.HAL_CACHEAXI_MspInit,"ax",%progbits
 240              		.align	1
 241              		.weak	HAL_CACHEAXI_MspInit
 242              		.syntax unified
 243              		.thumb
 244              		.thumb_func
 246              	HAL_CACHEAXI_MspInit:
 247              	.LFB837:
 278:STM32Cube_FW_N6/Drivers/STM32N6xx_HAL_Driver/Src/stm32n6xx_hal_cacheaxi.c **** 
 279:STM32Cube_FW_N6/Drivers/STM32N6xx_HAL_Driver/Src/stm32n6xx_hal_cacheaxi.c **** /**
 280:STM32Cube_FW_N6/Drivers/STM32N6xx_HAL_Driver/Src/stm32n6xx_hal_cacheaxi.c ****   * @brief Initialize the CACHEAXI MSP.
 281:STM32Cube_FW_N6/Drivers/STM32N6xx_HAL_Driver/Src/stm32n6xx_hal_cacheaxi.c ****   * @param  hcacheaxi Pointer to a CACHEAXI_HandleTypeDef structure that contains
 282:STM32Cube_FW_N6/Drivers/STM32N6xx_HAL_Driver/Src/stm32n6xx_hal_cacheaxi.c ****   *                   the configuration information for the specified CACHEAXIx peripheral.
 283:STM32Cube_FW_N6/Drivers/STM32N6xx_HAL_Driver/Src/stm32n6xx_hal_cacheaxi.c ****   * @retval None
 284:STM32Cube_FW_N6/Drivers/STM32N6xx_HAL_Driver/Src/stm32n6xx_hal_cacheaxi.c ****   */
 285:STM32Cube_FW_N6/Drivers/STM32N6xx_HAL_Driver/Src/stm32n6xx_hal_cacheaxi.c **** __weak void HAL_CACHEAXI_MspInit(CACHEAXI_HandleTypeDef *hcacheaxi)
 286:STM32Cube_FW_N6/Drivers/STM32N6xx_HAL_Driver/Src/stm32n6xx_hal_cacheaxi.c **** {
 248              		.loc 1 286 1
 249              		.cfi_startproc
 250              		@ args = 0, pretend = 0, frame = 8
 251              		@ frame_needed = 1, uses_anonymous_args = 0
 252              		@ link register save eliminated.
 253 0000 80B4     		push	{r7}
 254              		.cfi_def_cfa_offset 4
 255              		.cfi_offset 7, -4
 256 0002 83B0     		sub	sp, sp, #12
 257              		.cfi_def_cfa_offset 16
 258 0004 00AF     		add	r7, sp, #0
 259              		.cfi_def_cfa_register 7
 260 0006 7860     		str	r0, [r7, #4]
 287:STM32Cube_FW_N6/Drivers/STM32N6xx_HAL_Driver/Src/stm32n6xx_hal_cacheaxi.c ****   /* Prevent unused argument(s) compilation warning */
 288:STM32Cube_FW_N6/Drivers/STM32N6xx_HAL_Driver/Src/stm32n6xx_hal_cacheaxi.c ****   UNUSED(hcacheaxi);
 289:STM32Cube_FW_N6/Drivers/STM32N6xx_HAL_Driver/Src/stm32n6xx_hal_cacheaxi.c **** 
 290:STM32Cube_FW_N6/Drivers/STM32N6xx_HAL_Driver/Src/stm32n6xx_hal_cacheaxi.c ****   /* NOTE : This function should not be modified, when the callback is needed,
 291:STM32Cube_FW_N6/Drivers/STM32N6xx_HAL_Driver/Src/stm32n6xx_hal_cacheaxi.c ****             the HAL_CACHEAXI_MspInit can be implemented in the user file
 292:STM32Cube_FW_N6/Drivers/STM32N6xx_HAL_Driver/Src/stm32n6xx_hal_cacheaxi.c ****    */
 293:STM32Cube_FW_N6/Drivers/STM32N6xx_HAL_Driver/Src/stm32n6xx_hal_cacheaxi.c **** }
 261              		.loc 1 293 1
 262 0008 00BF     		nop
 263 000a 0C37     		adds	r7, r7, #12
 264              		.cfi_def_cfa_offset 4
 265 000c BD46     		mov	sp, r7
 266              		.cfi_def_cfa_register 13
 267              		@ sp needed
 268 000e 5DF8047B 		ldr	r7, [sp], #4
 269              		.cfi_restore 7
 270              		.cfi_def_cfa_offset 0
 271 0012 7047     		bx	lr
 272              		.cfi_endproc
 273              	.LFE837:
 275              		.section	.text.HAL_CACHEAXI_MspDeInit,"ax",%progbits
ARM GAS  /tmp/cc4w16ub.s 			page 11


 276              		.align	1
 277              		.weak	HAL_CACHEAXI_MspDeInit
 278              		.syntax unified
 279              		.thumb
 280              		.thumb_func
 282              	HAL_CACHEAXI_MspDeInit:
 283              	.LFB838:
 294:STM32Cube_FW_N6/Drivers/STM32N6xx_HAL_Driver/Src/stm32n6xx_hal_cacheaxi.c **** 
 295:STM32Cube_FW_N6/Drivers/STM32N6xx_HAL_Driver/Src/stm32n6xx_hal_cacheaxi.c **** /**
 296:STM32Cube_FW_N6/Drivers/STM32N6xx_HAL_Driver/Src/stm32n6xx_hal_cacheaxi.c ****   * @brief DeInitialize the CACHEAXI MSP.
 297:STM32Cube_FW_N6/Drivers/STM32N6xx_HAL_Driver/Src/stm32n6xx_hal_cacheaxi.c ****   * @param  hcacheaxi Pointer to a CACHEAXI_HandleTypeDef structure that contains
 298:STM32Cube_FW_N6/Drivers/STM32N6xx_HAL_Driver/Src/stm32n6xx_hal_cacheaxi.c ****   *                 the configuration information for the specified CACHEAXIx peripheral.
 299:STM32Cube_FW_N6/Drivers/STM32N6xx_HAL_Driver/Src/stm32n6xx_hal_cacheaxi.c ****   * @retval None
 300:STM32Cube_FW_N6/Drivers/STM32N6xx_HAL_Driver/Src/stm32n6xx_hal_cacheaxi.c ****   */
 301:STM32Cube_FW_N6/Drivers/STM32N6xx_HAL_Driver/Src/stm32n6xx_hal_cacheaxi.c **** __weak void HAL_CACHEAXI_MspDeInit(CACHEAXI_HandleTypeDef *hcacheaxi)
 302:STM32Cube_FW_N6/Drivers/STM32N6xx_HAL_Driver/Src/stm32n6xx_hal_cacheaxi.c **** {
 284              		.loc 1 302 1
 285              		.cfi_startproc
 286              		@ args = 0, pretend = 0, frame = 8
 287              		@ frame_needed = 1, uses_anonymous_args = 0
 288              		@ link register save eliminated.
 289 0000 80B4     		push	{r7}
 290              		.cfi_def_cfa_offset 4
 291              		.cfi_offset 7, -4
 292 0002 83B0     		sub	sp, sp, #12
 293              		.cfi_def_cfa_offset 16
 294 0004 00AF     		add	r7, sp, #0
 295              		.cfi_def_cfa_register 7
 296 0006 7860     		str	r0, [r7, #4]
 303:STM32Cube_FW_N6/Drivers/STM32N6xx_HAL_Driver/Src/stm32n6xx_hal_cacheaxi.c ****   /* Prevent unused argument(s) compilation warning */
 304:STM32Cube_FW_N6/Drivers/STM32N6xx_HAL_Driver/Src/stm32n6xx_hal_cacheaxi.c ****   UNUSED(hcacheaxi);
 305:STM32Cube_FW_N6/Drivers/STM32N6xx_HAL_Driver/Src/stm32n6xx_hal_cacheaxi.c **** 
 306:STM32Cube_FW_N6/Drivers/STM32N6xx_HAL_Driver/Src/stm32n6xx_hal_cacheaxi.c ****   /* NOTE : This function should not be modified, when the callback is needed,
 307:STM32Cube_FW_N6/Drivers/STM32N6xx_HAL_Driver/Src/stm32n6xx_hal_cacheaxi.c ****             the HAL_CACHEAXI_MspDeInit can be implemented in the user file
 308:STM32Cube_FW_N6/Drivers/STM32N6xx_HAL_Driver/Src/stm32n6xx_hal_cacheaxi.c ****    */
 309:STM32Cube_FW_N6/Drivers/STM32N6xx_HAL_Driver/Src/stm32n6xx_hal_cacheaxi.c **** }
 297              		.loc 1 309 1
 298 0008 00BF     		nop
 299 000a 0C37     		adds	r7, r7, #12
 300              		.cfi_def_cfa_offset 4
 301 000c BD46     		mov	sp, r7
 302              		.cfi_def_cfa_register 13
 303              		@ sp needed
 304 000e 5DF8047B 		ldr	r7, [sp], #4
 305              		.cfi_restore 7
 306              		.cfi_def_cfa_offset 0
 307 0012 7047     		bx	lr
 308              		.cfi_endproc
 309              	.LFE838:
 311              		.section	.text.HAL_CACHEAXI_Enable,"ax",%progbits
 312              		.align	1
 313              		.global	HAL_CACHEAXI_Enable
 314              		.syntax unified
 315              		.thumb
 316              		.thumb_func
 318              	HAL_CACHEAXI_Enable:
 319              	.LFB839:
ARM GAS  /tmp/cc4w16ub.s 			page 12


 310:STM32Cube_FW_N6/Drivers/STM32N6xx_HAL_Driver/Src/stm32n6xx_hal_cacheaxi.c **** /**
 311:STM32Cube_FW_N6/Drivers/STM32N6xx_HAL_Driver/Src/stm32n6xx_hal_cacheaxi.c ****   * @}
 312:STM32Cube_FW_N6/Drivers/STM32N6xx_HAL_Driver/Src/stm32n6xx_hal_cacheaxi.c ****   */
 313:STM32Cube_FW_N6/Drivers/STM32N6xx_HAL_Driver/Src/stm32n6xx_hal_cacheaxi.c **** 
 314:STM32Cube_FW_N6/Drivers/STM32N6xx_HAL_Driver/Src/stm32n6xx_hal_cacheaxi.c **** /** @addtogroup CACHEAXI_Exported_Functions_Group2
 315:STM32Cube_FW_N6/Drivers/STM32N6xx_HAL_Driver/Src/stm32n6xx_hal_cacheaxi.c ****   *
 316:STM32Cube_FW_N6/Drivers/STM32N6xx_HAL_Driver/Src/stm32n6xx_hal_cacheaxi.c **** @verbatim
 317:STM32Cube_FW_N6/Drivers/STM32N6xx_HAL_Driver/Src/stm32n6xx_hal_cacheaxi.c ****   ==============================================================================
 318:STM32Cube_FW_N6/Drivers/STM32N6xx_HAL_Driver/Src/stm32n6xx_hal_cacheaxi.c ****              ##### IO operation functions #####
 319:STM32Cube_FW_N6/Drivers/STM32N6xx_HAL_Driver/Src/stm32n6xx_hal_cacheaxi.c ****   ==============================================================================
 320:STM32Cube_FW_N6/Drivers/STM32N6xx_HAL_Driver/Src/stm32n6xx_hal_cacheaxi.c ****     [..]  This section provides functions allowing to:
 321:STM32Cube_FW_N6/Drivers/STM32N6xx_HAL_Driver/Src/stm32n6xx_hal_cacheaxi.c ****       (+) Enable CACHEAXI.
 322:STM32Cube_FW_N6/Drivers/STM32N6xx_HAL_Driver/Src/stm32n6xx_hal_cacheaxi.c ****       (+) Disable CACHEAXI.
 323:STM32Cube_FW_N6/Drivers/STM32N6xx_HAL_Driver/Src/stm32n6xx_hal_cacheaxi.c ****       (+) Invalidate the CACHEAXI.
 324:STM32Cube_FW_N6/Drivers/STM32N6xx_HAL_Driver/Src/stm32n6xx_hal_cacheaxi.c ****       (+) Invalidate the CACHEAXI with interrupt.
 325:STM32Cube_FW_N6/Drivers/STM32N6xx_HAL_Driver/Src/stm32n6xx_hal_cacheaxi.c ****       (+) Clean the CACHEAXI by Addr.
 326:STM32Cube_FW_N6/Drivers/STM32N6xx_HAL_Driver/Src/stm32n6xx_hal_cacheaxi.c ****       (+) Clean and Invalidate the CACHEAXI by Addr.
 327:STM32Cube_FW_N6/Drivers/STM32N6xx_HAL_Driver/Src/stm32n6xx_hal_cacheaxi.c ****       (+) Clean the CACHEAXI by Addr with interrupt.
 328:STM32Cube_FW_N6/Drivers/STM32N6xx_HAL_Driver/Src/stm32n6xx_hal_cacheaxi.c ****       (+) Clean and Invalidate the CACHEAXI by Addr with interrupt.
 329:STM32Cube_FW_N6/Drivers/STM32N6xx_HAL_Driver/Src/stm32n6xx_hal_cacheaxi.c ****       (+) Start the CACHEAXI performance monitoring.
 330:STM32Cube_FW_N6/Drivers/STM32N6xx_HAL_Driver/Src/stm32n6xx_hal_cacheaxi.c ****       (+) Stop the CACHEAXI performance monitoring.
 331:STM32Cube_FW_N6/Drivers/STM32N6xx_HAL_Driver/Src/stm32n6xx_hal_cacheaxi.c ****       (+) Reset the CACHEAXI performance monitoring values.
 332:STM32Cube_FW_N6/Drivers/STM32N6xx_HAL_Driver/Src/stm32n6xx_hal_cacheaxi.c ****       (+) Get the CACHEAXI performance Read Hit monitoring value.
 333:STM32Cube_FW_N6/Drivers/STM32N6xx_HAL_Driver/Src/stm32n6xx_hal_cacheaxi.c ****       (+) Get the CACHEAXI performance Read Miss monitoring value.
 334:STM32Cube_FW_N6/Drivers/STM32N6xx_HAL_Driver/Src/stm32n6xx_hal_cacheaxi.c ****       (+) Get the CACHEAXI performance Write Hit monitoring value.
 335:STM32Cube_FW_N6/Drivers/STM32N6xx_HAL_Driver/Src/stm32n6xx_hal_cacheaxi.c ****       (+) Get the CACHEAXI performance Write Miss monitoring value.
 336:STM32Cube_FW_N6/Drivers/STM32N6xx_HAL_Driver/Src/stm32n6xx_hal_cacheaxi.c ****       (+) Get the CACHEAXI performance Read Allocation Miss monitoring value.
 337:STM32Cube_FW_N6/Drivers/STM32N6xx_HAL_Driver/Src/stm32n6xx_hal_cacheaxi.c ****       (+) Get the CACHEAXI performance Write Allocation Miss monitoring value.
 338:STM32Cube_FW_N6/Drivers/STM32N6xx_HAL_Driver/Src/stm32n6xx_hal_cacheaxi.c ****       (+) Get the CACHEAXI performance Write Through monitoring value.
 339:STM32Cube_FW_N6/Drivers/STM32N6xx_HAL_Driver/Src/stm32n6xx_hal_cacheaxi.c ****       (+) Get the CACHEAXI performance Eviction monitoring value.
 340:STM32Cube_FW_N6/Drivers/STM32N6xx_HAL_Driver/Src/stm32n6xx_hal_cacheaxi.c **** @endverbatim
 341:STM32Cube_FW_N6/Drivers/STM32N6xx_HAL_Driver/Src/stm32n6xx_hal_cacheaxi.c ****   * @{
 342:STM32Cube_FW_N6/Drivers/STM32N6xx_HAL_Driver/Src/stm32n6xx_hal_cacheaxi.c ****   */
 343:STM32Cube_FW_N6/Drivers/STM32N6xx_HAL_Driver/Src/stm32n6xx_hal_cacheaxi.c **** 
 344:STM32Cube_FW_N6/Drivers/STM32N6xx_HAL_Driver/Src/stm32n6xx_hal_cacheaxi.c **** /**
 345:STM32Cube_FW_N6/Drivers/STM32N6xx_HAL_Driver/Src/stm32n6xx_hal_cacheaxi.c ****   * @brief  Enable the Data cache.
 346:STM32Cube_FW_N6/Drivers/STM32N6xx_HAL_Driver/Src/stm32n6xx_hal_cacheaxi.c ****   * @param  hcacheaxi Pointer to a CACHEAXI_HandleTypeDef structure that contains
 347:STM32Cube_FW_N6/Drivers/STM32N6xx_HAL_Driver/Src/stm32n6xx_hal_cacheaxi.c ****   *                   the configuration information for the specified CACHEAXIx peripheral.
 348:STM32Cube_FW_N6/Drivers/STM32N6xx_HAL_Driver/Src/stm32n6xx_hal_cacheaxi.c ****   * @retval HAL status
 349:STM32Cube_FW_N6/Drivers/STM32N6xx_HAL_Driver/Src/stm32n6xx_hal_cacheaxi.c ****   */
 350:STM32Cube_FW_N6/Drivers/STM32N6xx_HAL_Driver/Src/stm32n6xx_hal_cacheaxi.c **** HAL_StatusTypeDef HAL_CACHEAXI_Enable(CACHEAXI_HandleTypeDef *hcacheaxi)
 351:STM32Cube_FW_N6/Drivers/STM32N6xx_HAL_Driver/Src/stm32n6xx_hal_cacheaxi.c **** {
 320              		.loc 1 351 1
 321              		.cfi_startproc
 322              		@ args = 0, pretend = 0, frame = 16
 323              		@ frame_needed = 1, uses_anonymous_args = 0
 324 0000 80B5     		push	{r7, lr}
 325              		.cfi_def_cfa_offset 8
 326              		.cfi_offset 7, -8
 327              		.cfi_offset 14, -4
 328 0002 84B0     		sub	sp, sp, #16
 329              		.cfi_def_cfa_offset 24
 330 0004 00AF     		add	r7, sp, #0
 331              		.cfi_def_cfa_register 7
 332 0006 7860     		str	r0, [r7, #4]
 352:STM32Cube_FW_N6/Drivers/STM32N6xx_HAL_Driver/Src/stm32n6xx_hal_cacheaxi.c ****   HAL_StatusTypeDef status = HAL_OK;
 333              		.loc 1 352 21
ARM GAS  /tmp/cc4w16ub.s 			page 13


 334 0008 0023     		movs	r3, #0
 335 000a FB73     		strb	r3, [r7, #15]
 353:STM32Cube_FW_N6/Drivers/STM32N6xx_HAL_Driver/Src/stm32n6xx_hal_cacheaxi.c ****   uint32_t tickstart;
 354:STM32Cube_FW_N6/Drivers/STM32N6xx_HAL_Driver/Src/stm32n6xx_hal_cacheaxi.c **** 
 355:STM32Cube_FW_N6/Drivers/STM32N6xx_HAL_Driver/Src/stm32n6xx_hal_cacheaxi.c ****   /* Check the cacheaxi handle allocation */
 356:STM32Cube_FW_N6/Drivers/STM32N6xx_HAL_Driver/Src/stm32n6xx_hal_cacheaxi.c ****   if (hcacheaxi == NULL)
 336              		.loc 1 356 6
 337 000c 7B68     		ldr	r3, [r7, #4]
 338 000e 002B     		cmp	r3, #0
 339 0010 01D1     		bne	.L17
 357:STM32Cube_FW_N6/Drivers/STM32N6xx_HAL_Driver/Src/stm32n6xx_hal_cacheaxi.c ****   {
 358:STM32Cube_FW_N6/Drivers/STM32N6xx_HAL_Driver/Src/stm32n6xx_hal_cacheaxi.c ****     return HAL_ERROR;
 340              		.loc 1 358 12
 341 0012 0123     		movs	r3, #1
 342 0014 43E0     		b	.L18
 343              	.L17:
 359:STM32Cube_FW_N6/Drivers/STM32N6xx_HAL_Driver/Src/stm32n6xx_hal_cacheaxi.c ****   }
 360:STM32Cube_FW_N6/Drivers/STM32N6xx_HAL_Driver/Src/stm32n6xx_hal_cacheaxi.c **** 
 361:STM32Cube_FW_N6/Drivers/STM32N6xx_HAL_Driver/Src/stm32n6xx_hal_cacheaxi.c ****   /* Check the parameters */
 362:STM32Cube_FW_N6/Drivers/STM32N6xx_HAL_Driver/Src/stm32n6xx_hal_cacheaxi.c ****   assert_param(IS_CACHEAXI_ALL_INSTANCE(hcacheaxi->Instance));
 344              		.loc 1 362 3
 345 0016 7B68     		ldr	r3, [r7, #4]
 346 0018 1B68     		ldr	r3, [r3]
 347 001a 234A     		ldr	r2, .L25
 348 001c 9342     		cmp	r3, r2
 349 001e 09D0     		beq	.L19
 350              		.loc 1 362 3 is_stmt 0 discriminator 1
 351 0020 7B68     		ldr	r3, [r7, #4]
 352 0022 1B68     		ldr	r3, [r3]
 353 0024 214A     		ldr	r2, .L25+4
 354 0026 9342     		cmp	r3, r2
 355 0028 04D0     		beq	.L19
 356              		.loc 1 362 3 discriminator 2
 357 002a 4FF4B571 		mov	r1, #362
 358 002e 2048     		ldr	r0, .L25+8
 359 0030 FFF7FEFF 		bl	assert_failed
 360              	.L19:
 363:STM32Cube_FW_N6/Drivers/STM32N6xx_HAL_Driver/Src/stm32n6xx_hal_cacheaxi.c **** 
 364:STM32Cube_FW_N6/Drivers/STM32N6xx_HAL_Driver/Src/stm32n6xx_hal_cacheaxi.c ****   /* Check if ongoing full invalidation operation */
 365:STM32Cube_FW_N6/Drivers/STM32N6xx_HAL_Driver/Src/stm32n6xx_hal_cacheaxi.c ****   if (READ_BIT(hcacheaxi->Instance->SR, CACHEAXI_SR_BUSYF) != 0U)
 361              		.loc 1 365 7 is_stmt 1
 362 0034 7B68     		ldr	r3, [r7, #4]
 363 0036 1B68     		ldr	r3, [r3]
 364 0038 5B68     		ldr	r3, [r3, #4]
 365 003a 03F00103 		and	r3, r3, #1
 366              		.loc 1 365 6
 367 003e 002B     		cmp	r3, #0
 368 0040 1ED0     		beq	.L20
 366:STM32Cube_FW_N6/Drivers/STM32N6xx_HAL_Driver/Src/stm32n6xx_hal_cacheaxi.c ****   {
 367:STM32Cube_FW_N6/Drivers/STM32N6xx_HAL_Driver/Src/stm32n6xx_hal_cacheaxi.c ****     /* Get tick */
 368:STM32Cube_FW_N6/Drivers/STM32N6xx_HAL_Driver/Src/stm32n6xx_hal_cacheaxi.c ****     tickstart = HAL_GetTick();
 369              		.loc 1 368 17
 370 0042 FFF7FEFF 		bl	HAL_GetTick
 371 0046 B860     		str	r0, [r7, #8]
 369:STM32Cube_FW_N6/Drivers/STM32N6xx_HAL_Driver/Src/stm32n6xx_hal_cacheaxi.c **** 
 370:STM32Cube_FW_N6/Drivers/STM32N6xx_HAL_Driver/Src/stm32n6xx_hal_cacheaxi.c ****     while (READ_BIT(hcacheaxi->Instance->SR, CACHEAXI_SR_BUSYF) != 0U)
 372              		.loc 1 370 11
ARM GAS  /tmp/cc4w16ub.s 			page 14


 373 0048 13E0     		b	.L21
 374              	.L23:
 371:STM32Cube_FW_N6/Drivers/STM32N6xx_HAL_Driver/Src/stm32n6xx_hal_cacheaxi.c ****     {
 372:STM32Cube_FW_N6/Drivers/STM32N6xx_HAL_Driver/Src/stm32n6xx_hal_cacheaxi.c ****       if ((HAL_GetTick() - tickstart) > CACHEAXI_ENABLE_TIMEOUT_VALUE)
 375              		.loc 1 372 12
 376 004a FFF7FEFF 		bl	HAL_GetTick
 377 004e 0246     		mov	r2, r0
 378              		.loc 1 372 26 discriminator 1
 379 0050 BB68     		ldr	r3, [r7, #8]
 380 0052 D31A     		subs	r3, r2, r3
 381              		.loc 1 372 10 discriminator 1
 382 0054 012B     		cmp	r3, #1
 383 0056 0CD9     		bls	.L21
 373:STM32Cube_FW_N6/Drivers/STM32N6xx_HAL_Driver/Src/stm32n6xx_hal_cacheaxi.c ****       {
 374:STM32Cube_FW_N6/Drivers/STM32N6xx_HAL_Driver/Src/stm32n6xx_hal_cacheaxi.c ****         /* New check to avoid false timeout detection in case of preemption */
 375:STM32Cube_FW_N6/Drivers/STM32N6xx_HAL_Driver/Src/stm32n6xx_hal_cacheaxi.c ****         if (READ_BIT(hcacheaxi->Instance->SR, CACHEAXI_SR_BUSYF) == 0U)
 384              		.loc 1 375 13
 385 0058 7B68     		ldr	r3, [r7, #4]
 386 005a 1B68     		ldr	r3, [r3]
 387 005c 5B68     		ldr	r3, [r3, #4]
 388 005e 03F00103 		and	r3, r3, #1
 389              		.loc 1 375 12
 390 0062 002B     		cmp	r3, #0
 391 0064 05D1     		bne	.L21
 376:STM32Cube_FW_N6/Drivers/STM32N6xx_HAL_Driver/Src/stm32n6xx_hal_cacheaxi.c ****         {
 377:STM32Cube_FW_N6/Drivers/STM32N6xx_HAL_Driver/Src/stm32n6xx_hal_cacheaxi.c ****           /* Update error code */
 378:STM32Cube_FW_N6/Drivers/STM32N6xx_HAL_Driver/Src/stm32n6xx_hal_cacheaxi.c ****           hcacheaxi->ErrorCode = HAL_CACHEAXI_ERROR_TIMEOUT;
 392              		.loc 1 378 32
 393 0066 7B68     		ldr	r3, [r7, #4]
 394 0068 1022     		movs	r2, #16
 395 006a 9A60     		str	r2, [r3, #8]
 379:STM32Cube_FW_N6/Drivers/STM32N6xx_HAL_Driver/Src/stm32n6xx_hal_cacheaxi.c ****           /* Return error status */
 380:STM32Cube_FW_N6/Drivers/STM32N6xx_HAL_Driver/Src/stm32n6xx_hal_cacheaxi.c ****           status =  HAL_ERROR;
 396              		.loc 1 380 18
 397 006c 0123     		movs	r3, #1
 398 006e FB73     		strb	r3, [r7, #15]
 381:STM32Cube_FW_N6/Drivers/STM32N6xx_HAL_Driver/Src/stm32n6xx_hal_cacheaxi.c ****           break;
 399              		.loc 1 381 11
 400 0070 06E0     		b	.L20
 401              	.L21:
 370:STM32Cube_FW_N6/Drivers/STM32N6xx_HAL_Driver/Src/stm32n6xx_hal_cacheaxi.c ****     {
 402              		.loc 1 370 12
 403 0072 7B68     		ldr	r3, [r7, #4]
 404 0074 1B68     		ldr	r3, [r3]
 405 0076 5B68     		ldr	r3, [r3, #4]
 406 0078 03F00103 		and	r3, r3, #1
 370:STM32Cube_FW_N6/Drivers/STM32N6xx_HAL_Driver/Src/stm32n6xx_hal_cacheaxi.c ****     {
 407              		.loc 1 370 65
 408 007c 002B     		cmp	r3, #0
 409 007e E4D1     		bne	.L23
 410              	.L20:
 382:STM32Cube_FW_N6/Drivers/STM32N6xx_HAL_Driver/Src/stm32n6xx_hal_cacheaxi.c ****         }
 383:STM32Cube_FW_N6/Drivers/STM32N6xx_HAL_Driver/Src/stm32n6xx_hal_cacheaxi.c ****       }
 384:STM32Cube_FW_N6/Drivers/STM32N6xx_HAL_Driver/Src/stm32n6xx_hal_cacheaxi.c ****     }
 385:STM32Cube_FW_N6/Drivers/STM32N6xx_HAL_Driver/Src/stm32n6xx_hal_cacheaxi.c ****   }
 386:STM32Cube_FW_N6/Drivers/STM32N6xx_HAL_Driver/Src/stm32n6xx_hal_cacheaxi.c **** 
 387:STM32Cube_FW_N6/Drivers/STM32N6xx_HAL_Driver/Src/stm32n6xx_hal_cacheaxi.c ****   if (status == HAL_OK)
ARM GAS  /tmp/cc4w16ub.s 			page 15


 411              		.loc 1 387 6
 412 0080 FB7B     		ldrb	r3, [r7, #15]	@ zero_extendqisi2
 413 0082 002B     		cmp	r3, #0
 414 0084 0AD1     		bne	.L24
 388:STM32Cube_FW_N6/Drivers/STM32N6xx_HAL_Driver/Src/stm32n6xx_hal_cacheaxi.c ****   {
 389:STM32Cube_FW_N6/Drivers/STM32N6xx_HAL_Driver/Src/stm32n6xx_hal_cacheaxi.c ****     /* Update the error code */
 390:STM32Cube_FW_N6/Drivers/STM32N6xx_HAL_Driver/Src/stm32n6xx_hal_cacheaxi.c ****     hcacheaxi->ErrorCode = HAL_CACHEAXI_ERROR_NONE;
 415              		.loc 1 390 26
 416 0086 7B68     		ldr	r3, [r7, #4]
 417 0088 0022     		movs	r2, #0
 418 008a 9A60     		str	r2, [r3, #8]
 391:STM32Cube_FW_N6/Drivers/STM32N6xx_HAL_Driver/Src/stm32n6xx_hal_cacheaxi.c ****     /* Enable the selected CACHEAXI peripheral */
 392:STM32Cube_FW_N6/Drivers/STM32N6xx_HAL_Driver/Src/stm32n6xx_hal_cacheaxi.c ****     SET_BIT(hcacheaxi->Instance->CR1, CACHEAXI_CR1_EN);
 419              		.loc 1 392 5
 420 008c 7B68     		ldr	r3, [r7, #4]
 421 008e 1B68     		ldr	r3, [r3]
 422 0090 1A68     		ldr	r2, [r3]
 423 0092 7B68     		ldr	r3, [r7, #4]
 424 0094 1B68     		ldr	r3, [r3]
 425 0096 42F00102 		orr	r2, r2, #1
 426 009a 1A60     		str	r2, [r3]
 427              	.L24:
 393:STM32Cube_FW_N6/Drivers/STM32N6xx_HAL_Driver/Src/stm32n6xx_hal_cacheaxi.c ****   }
 394:STM32Cube_FW_N6/Drivers/STM32N6xx_HAL_Driver/Src/stm32n6xx_hal_cacheaxi.c **** 
 395:STM32Cube_FW_N6/Drivers/STM32N6xx_HAL_Driver/Src/stm32n6xx_hal_cacheaxi.c ****   return status;
 428              		.loc 1 395 10
 429 009c FB7B     		ldrb	r3, [r7, #15]	@ zero_extendqisi2
 430              	.L18:
 396:STM32Cube_FW_N6/Drivers/STM32N6xx_HAL_Driver/Src/stm32n6xx_hal_cacheaxi.c **** }
 431              		.loc 1 396 1
 432 009e 1846     		mov	r0, r3
 433 00a0 1037     		adds	r7, r7, #16
 434              		.cfi_def_cfa_offset 8
 435 00a2 BD46     		mov	sp, r7
 436              		.cfi_def_cfa_register 13
 437              		@ sp needed
 438 00a4 80BD     		pop	{r7, pc}
 439              	.L26:
 440 00a6 00BF     		.align	2
 441              	.L25:
 442 00a8 00FC0D58 		.word	1477311488
 443 00ac 00FC0D48 		.word	1208876032
 444 00b0 00000000 		.word	.LC0
 445              		.cfi_endproc
 446              	.LFE839:
 448              		.section	.text.HAL_CACHEAXI_Disable,"ax",%progbits
 449              		.align	1
 450              		.global	HAL_CACHEAXI_Disable
 451              		.syntax unified
 452              		.thumb
 453              		.thumb_func
 455              	HAL_CACHEAXI_Disable:
 456              	.LFB840:
 397:STM32Cube_FW_N6/Drivers/STM32N6xx_HAL_Driver/Src/stm32n6xx_hal_cacheaxi.c **** 
 398:STM32Cube_FW_N6/Drivers/STM32N6xx_HAL_Driver/Src/stm32n6xx_hal_cacheaxi.c **** /**
 399:STM32Cube_FW_N6/Drivers/STM32N6xx_HAL_Driver/Src/stm32n6xx_hal_cacheaxi.c ****   * @brief  Disable the Data cache.
 400:STM32Cube_FW_N6/Drivers/STM32N6xx_HAL_Driver/Src/stm32n6xx_hal_cacheaxi.c ****   * @param  hcacheaxi Pointer to a CACHEAXI_HandleTypeDef structure that contains
ARM GAS  /tmp/cc4w16ub.s 			page 16


 401:STM32Cube_FW_N6/Drivers/STM32N6xx_HAL_Driver/Src/stm32n6xx_hal_cacheaxi.c ****   *                   the configuration information for the specified CACHEAXIx peripheral.
 402:STM32Cube_FW_N6/Drivers/STM32N6xx_HAL_Driver/Src/stm32n6xx_hal_cacheaxi.c ****   * @retval HAL status
 403:STM32Cube_FW_N6/Drivers/STM32N6xx_HAL_Driver/Src/stm32n6xx_hal_cacheaxi.c ****   */
 404:STM32Cube_FW_N6/Drivers/STM32N6xx_HAL_Driver/Src/stm32n6xx_hal_cacheaxi.c **** HAL_StatusTypeDef HAL_CACHEAXI_Disable(CACHEAXI_HandleTypeDef *hcacheaxi)
 405:STM32Cube_FW_N6/Drivers/STM32N6xx_HAL_Driver/Src/stm32n6xx_hal_cacheaxi.c **** {
 457              		.loc 1 405 1
 458              		.cfi_startproc
 459              		@ args = 0, pretend = 0, frame = 16
 460              		@ frame_needed = 1, uses_anonymous_args = 0
 461 0000 80B5     		push	{r7, lr}
 462              		.cfi_def_cfa_offset 8
 463              		.cfi_offset 7, -8
 464              		.cfi_offset 14, -4
 465 0002 84B0     		sub	sp, sp, #16
 466              		.cfi_def_cfa_offset 24
 467 0004 00AF     		add	r7, sp, #0
 468              		.cfi_def_cfa_register 7
 469 0006 7860     		str	r0, [r7, #4]
 406:STM32Cube_FW_N6/Drivers/STM32N6xx_HAL_Driver/Src/stm32n6xx_hal_cacheaxi.c ****   HAL_StatusTypeDef status = HAL_OK;
 470              		.loc 1 406 21
 471 0008 0023     		movs	r3, #0
 472 000a FB73     		strb	r3, [r7, #15]
 407:STM32Cube_FW_N6/Drivers/STM32N6xx_HAL_Driver/Src/stm32n6xx_hal_cacheaxi.c **** 
 408:STM32Cube_FW_N6/Drivers/STM32N6xx_HAL_Driver/Src/stm32n6xx_hal_cacheaxi.c ****   uint32_t tickstart;
 409:STM32Cube_FW_N6/Drivers/STM32N6xx_HAL_Driver/Src/stm32n6xx_hal_cacheaxi.c **** 
 410:STM32Cube_FW_N6/Drivers/STM32N6xx_HAL_Driver/Src/stm32n6xx_hal_cacheaxi.c ****   /* Check the cacheaxi handle allocation */
 411:STM32Cube_FW_N6/Drivers/STM32N6xx_HAL_Driver/Src/stm32n6xx_hal_cacheaxi.c ****   if (hcacheaxi == NULL)
 473              		.loc 1 411 6
 474 000c 7B68     		ldr	r3, [r7, #4]
 475 000e 002B     		cmp	r3, #0
 476 0010 01D1     		bne	.L28
 412:STM32Cube_FW_N6/Drivers/STM32N6xx_HAL_Driver/Src/stm32n6xx_hal_cacheaxi.c ****   {
 413:STM32Cube_FW_N6/Drivers/STM32N6xx_HAL_Driver/Src/stm32n6xx_hal_cacheaxi.c ****     return HAL_ERROR;
 477              		.loc 1 413 12
 478 0012 0123     		movs	r3, #1
 479 0014 45E0     		b	.L29
 480              	.L28:
 414:STM32Cube_FW_N6/Drivers/STM32N6xx_HAL_Driver/Src/stm32n6xx_hal_cacheaxi.c ****   }
 415:STM32Cube_FW_N6/Drivers/STM32N6xx_HAL_Driver/Src/stm32n6xx_hal_cacheaxi.c **** 
 416:STM32Cube_FW_N6/Drivers/STM32N6xx_HAL_Driver/Src/stm32n6xx_hal_cacheaxi.c ****   /* Check the parameters */
 417:STM32Cube_FW_N6/Drivers/STM32N6xx_HAL_Driver/Src/stm32n6xx_hal_cacheaxi.c ****   assert_param(IS_CACHEAXI_ALL_INSTANCE(hcacheaxi->Instance));
 481              		.loc 1 417 3
 482 0016 7B68     		ldr	r3, [r7, #4]
 483 0018 1B68     		ldr	r3, [r3]
 484 001a 244A     		ldr	r2, .L35
 485 001c 9342     		cmp	r3, r2
 486 001e 09D0     		beq	.L30
 487              		.loc 1 417 3 is_stmt 0 discriminator 1
 488 0020 7B68     		ldr	r3, [r7, #4]
 489 0022 1B68     		ldr	r3, [r3]
 490 0024 224A     		ldr	r2, .L35+4
 491 0026 9342     		cmp	r3, r2
 492 0028 04D0     		beq	.L30
 493              		.loc 1 417 3 discriminator 2
 494 002a 40F2A111 		movw	r1, #417
 495 002e 2148     		ldr	r0, .L35+8
 496 0030 FFF7FEFF 		bl	assert_failed
ARM GAS  /tmp/cc4w16ub.s 			page 17


 497              	.L30:
 418:STM32Cube_FW_N6/Drivers/STM32N6xx_HAL_Driver/Src/stm32n6xx_hal_cacheaxi.c **** 
 419:STM32Cube_FW_N6/Drivers/STM32N6xx_HAL_Driver/Src/stm32n6xx_hal_cacheaxi.c ****   /* Check CACHEAXI handle status */
 420:STM32Cube_FW_N6/Drivers/STM32N6xx_HAL_Driver/Src/stm32n6xx_hal_cacheaxi.c ****   if (HAL_CACHEAXI_IsEnabled(hcacheaxi) != 0U)
 498              		.loc 1 420 7 is_stmt 1
 499 0034 7868     		ldr	r0, [r7, #4]
 500 0036 FFF7FEFF 		bl	HAL_CACHEAXI_IsEnabled
 501 003a 0346     		mov	r3, r0
 502              		.loc 1 420 6 discriminator 1
 503 003c 002B     		cmp	r3, #0
 504 003e 2FD0     		beq	.L31
 421:STM32Cube_FW_N6/Drivers/STM32N6xx_HAL_Driver/Src/stm32n6xx_hal_cacheaxi.c ****   {
 422:STM32Cube_FW_N6/Drivers/STM32N6xx_HAL_Driver/Src/stm32n6xx_hal_cacheaxi.c ****     /* Update the error code */
 423:STM32Cube_FW_N6/Drivers/STM32N6xx_HAL_Driver/Src/stm32n6xx_hal_cacheaxi.c ****     hcacheaxi->ErrorCode = HAL_CACHEAXI_ERROR_NONE;
 505              		.loc 1 423 26
 506 0040 7B68     		ldr	r3, [r7, #4]
 507 0042 0022     		movs	r2, #0
 508 0044 9A60     		str	r2, [r3, #8]
 424:STM32Cube_FW_N6/Drivers/STM32N6xx_HAL_Driver/Src/stm32n6xx_hal_cacheaxi.c **** 
 425:STM32Cube_FW_N6/Drivers/STM32N6xx_HAL_Driver/Src/stm32n6xx_hal_cacheaxi.c ****     /* Change CACHEAXI handle state */
 426:STM32Cube_FW_N6/Drivers/STM32N6xx_HAL_Driver/Src/stm32n6xx_hal_cacheaxi.c ****     hcacheaxi->State = HAL_CACHEAXI_STATE_READY;
 509              		.loc 1 426 22
 510 0046 7B68     		ldr	r3, [r7, #4]
 511 0048 0122     		movs	r2, #1
 512 004a 1A71     		strb	r2, [r3, #4]
 427:STM32Cube_FW_N6/Drivers/STM32N6xx_HAL_Driver/Src/stm32n6xx_hal_cacheaxi.c **** 
 428:STM32Cube_FW_N6/Drivers/STM32N6xx_HAL_Driver/Src/stm32n6xx_hal_cacheaxi.c ****     /* Disable the selected CACHEAXI peripheral */
 429:STM32Cube_FW_N6/Drivers/STM32N6xx_HAL_Driver/Src/stm32n6xx_hal_cacheaxi.c ****     CLEAR_BIT(hcacheaxi->Instance->CR1, CACHEAXI_CR1_EN);
 513              		.loc 1 429 5
 514 004c 7B68     		ldr	r3, [r7, #4]
 515 004e 1B68     		ldr	r3, [r3]
 516 0050 1A68     		ldr	r2, [r3]
 517 0052 7B68     		ldr	r3, [r7, #4]
 518 0054 1B68     		ldr	r3, [r3]
 519 0056 22F00102 		bic	r2, r2, #1
 520 005a 1A60     		str	r2, [r3]
 430:STM32Cube_FW_N6/Drivers/STM32N6xx_HAL_Driver/Src/stm32n6xx_hal_cacheaxi.c **** 
 431:STM32Cube_FW_N6/Drivers/STM32N6xx_HAL_Driver/Src/stm32n6xx_hal_cacheaxi.c ****     /* Get timeout */
 432:STM32Cube_FW_N6/Drivers/STM32N6xx_HAL_Driver/Src/stm32n6xx_hal_cacheaxi.c ****     tickstart = HAL_GetTick();
 521              		.loc 1 432 17
 522 005c FFF7FEFF 		bl	HAL_GetTick
 523 0060 B860     		str	r0, [r7, #8]
 433:STM32Cube_FW_N6/Drivers/STM32N6xx_HAL_Driver/Src/stm32n6xx_hal_cacheaxi.c **** 
 434:STM32Cube_FW_N6/Drivers/STM32N6xx_HAL_Driver/Src/stm32n6xx_hal_cacheaxi.c ****     /* Wait for end of data cache disabling */
 435:STM32Cube_FW_N6/Drivers/STM32N6xx_HAL_Driver/Src/stm32n6xx_hal_cacheaxi.c ****     while (READ_BIT(hcacheaxi->Instance->SR, (CACHEAXI_SR_BUSYF | CACHEAXI_SR_BUSYCMDF)) != 0U)
 524              		.loc 1 435 11
 525 0062 16E0     		b	.L32
 526              	.L34:
 436:STM32Cube_FW_N6/Drivers/STM32N6xx_HAL_Driver/Src/stm32n6xx_hal_cacheaxi.c ****     {
 437:STM32Cube_FW_N6/Drivers/STM32N6xx_HAL_Driver/Src/stm32n6xx_hal_cacheaxi.c ****       if ((HAL_GetTick() - tickstart) > CACHEAXI_DISABLE_TIMEOUT_VALUE)
 527              		.loc 1 437 12
 528 0064 FFF7FEFF 		bl	HAL_GetTick
 529 0068 0246     		mov	r2, r0
 530              		.loc 1 437 26 discriminator 1
 531 006a BB68     		ldr	r3, [r7, #8]
 532 006c D31A     		subs	r3, r2, r3
 533              		.loc 1 437 10 discriminator 1
ARM GAS  /tmp/cc4w16ub.s 			page 18


 534 006e 012B     		cmp	r3, #1
 535 0070 0FD9     		bls	.L32
 438:STM32Cube_FW_N6/Drivers/STM32N6xx_HAL_Driver/Src/stm32n6xx_hal_cacheaxi.c ****       {
 439:STM32Cube_FW_N6/Drivers/STM32N6xx_HAL_Driver/Src/stm32n6xx_hal_cacheaxi.c ****         if (READ_BIT(hcacheaxi->Instance->SR, (CACHEAXI_SR_BUSYF | CACHEAXI_SR_BUSYCMDF)) != 0U)
 536              		.loc 1 439 13
 537 0072 7B68     		ldr	r3, [r7, #4]
 538 0074 1B68     		ldr	r3, [r3]
 539 0076 5B68     		ldr	r3, [r3, #4]
 540 0078 03F00903 		and	r3, r3, #9
 541              		.loc 1 439 12
 542 007c 002B     		cmp	r3, #0
 543 007e 08D0     		beq	.L32
 440:STM32Cube_FW_N6/Drivers/STM32N6xx_HAL_Driver/Src/stm32n6xx_hal_cacheaxi.c ****         {
 441:STM32Cube_FW_N6/Drivers/STM32N6xx_HAL_Driver/Src/stm32n6xx_hal_cacheaxi.c ****           /* Update error code */
 442:STM32Cube_FW_N6/Drivers/STM32N6xx_HAL_Driver/Src/stm32n6xx_hal_cacheaxi.c ****           hcacheaxi->ErrorCode = HAL_CACHEAXI_ERROR_TIMEOUT;
 544              		.loc 1 442 32
 545 0080 7B68     		ldr	r3, [r7, #4]
 546 0082 1022     		movs	r2, #16
 547 0084 9A60     		str	r2, [r3, #8]
 443:STM32Cube_FW_N6/Drivers/STM32N6xx_HAL_Driver/Src/stm32n6xx_hal_cacheaxi.c **** 
 444:STM32Cube_FW_N6/Drivers/STM32N6xx_HAL_Driver/Src/stm32n6xx_hal_cacheaxi.c ****           /* Change the CACHEAXI handle state */
 445:STM32Cube_FW_N6/Drivers/STM32N6xx_HAL_Driver/Src/stm32n6xx_hal_cacheaxi.c ****           hcacheaxi->State = HAL_CACHEAXI_STATE_READY;
 548              		.loc 1 445 28
 549 0086 7B68     		ldr	r3, [r7, #4]
 550 0088 0122     		movs	r2, #1
 551 008a 1A71     		strb	r2, [r3, #4]
 446:STM32Cube_FW_N6/Drivers/STM32N6xx_HAL_Driver/Src/stm32n6xx_hal_cacheaxi.c **** 
 447:STM32Cube_FW_N6/Drivers/STM32N6xx_HAL_Driver/Src/stm32n6xx_hal_cacheaxi.c ****           /* Return error status */
 448:STM32Cube_FW_N6/Drivers/STM32N6xx_HAL_Driver/Src/stm32n6xx_hal_cacheaxi.c ****           status =  HAL_ERROR;
 552              		.loc 1 448 18
 553 008c 0123     		movs	r3, #1
 554 008e FB73     		strb	r3, [r7, #15]
 449:STM32Cube_FW_N6/Drivers/STM32N6xx_HAL_Driver/Src/stm32n6xx_hal_cacheaxi.c ****           break;
 555              		.loc 1 449 11
 556 0090 06E0     		b	.L31
 557              	.L32:
 435:STM32Cube_FW_N6/Drivers/STM32N6xx_HAL_Driver/Src/stm32n6xx_hal_cacheaxi.c ****     {
 558              		.loc 1 435 12
 559 0092 7B68     		ldr	r3, [r7, #4]
 560 0094 1B68     		ldr	r3, [r3]
 561 0096 5B68     		ldr	r3, [r3, #4]
 562 0098 03F00903 		and	r3, r3, #9
 435:STM32Cube_FW_N6/Drivers/STM32N6xx_HAL_Driver/Src/stm32n6xx_hal_cacheaxi.c ****     {
 563              		.loc 1 435 90
 564 009c 002B     		cmp	r3, #0
 565 009e E1D1     		bne	.L34
 566              	.L31:
 450:STM32Cube_FW_N6/Drivers/STM32N6xx_HAL_Driver/Src/stm32n6xx_hal_cacheaxi.c ****         }
 451:STM32Cube_FW_N6/Drivers/STM32N6xx_HAL_Driver/Src/stm32n6xx_hal_cacheaxi.c ****       }
 452:STM32Cube_FW_N6/Drivers/STM32N6xx_HAL_Driver/Src/stm32n6xx_hal_cacheaxi.c ****     }
 453:STM32Cube_FW_N6/Drivers/STM32N6xx_HAL_Driver/Src/stm32n6xx_hal_cacheaxi.c ****   }
 454:STM32Cube_FW_N6/Drivers/STM32N6xx_HAL_Driver/Src/stm32n6xx_hal_cacheaxi.c **** 
 455:STM32Cube_FW_N6/Drivers/STM32N6xx_HAL_Driver/Src/stm32n6xx_hal_cacheaxi.c ****   return status;
 567              		.loc 1 455 10
 568 00a0 FB7B     		ldrb	r3, [r7, #15]	@ zero_extendqisi2
 569              	.L29:
 456:STM32Cube_FW_N6/Drivers/STM32N6xx_HAL_Driver/Src/stm32n6xx_hal_cacheaxi.c **** }
ARM GAS  /tmp/cc4w16ub.s 			page 19


 570              		.loc 1 456 1
 571 00a2 1846     		mov	r0, r3
 572 00a4 1037     		adds	r7, r7, #16
 573              		.cfi_def_cfa_offset 8
 574 00a6 BD46     		mov	sp, r7
 575              		.cfi_def_cfa_register 13
 576              		@ sp needed
 577 00a8 80BD     		pop	{r7, pc}
 578              	.L36:
 579 00aa 00BF     		.align	2
 580              	.L35:
 581 00ac 00FC0D58 		.word	1477311488
 582 00b0 00FC0D48 		.word	1208876032
 583 00b4 00000000 		.word	.LC0
 584              		.cfi_endproc
 585              	.LFE840:
 587              		.section	.text.HAL_CACHEAXI_IsEnabled,"ax",%progbits
 588              		.align	1
 589              		.global	HAL_CACHEAXI_IsEnabled
 590              		.syntax unified
 591              		.thumb
 592              		.thumb_func
 594              	HAL_CACHEAXI_IsEnabled:
 595              	.LFB841:
 457:STM32Cube_FW_N6/Drivers/STM32N6xx_HAL_Driver/Src/stm32n6xx_hal_cacheaxi.c **** /**
 458:STM32Cube_FW_N6/Drivers/STM32N6xx_HAL_Driver/Src/stm32n6xx_hal_cacheaxi.c ****   * @brief  Check whether the CACHEAXI is enabled or not.
 459:STM32Cube_FW_N6/Drivers/STM32N6xx_HAL_Driver/Src/stm32n6xx_hal_cacheaxi.c ****   * @param  hcacheaxi Pointer to a CACHEAXI_HandleTypeDef structure that contains
 460:STM32Cube_FW_N6/Drivers/STM32N6xx_HAL_Driver/Src/stm32n6xx_hal_cacheaxi.c ****   *                   the configuration information for the specified CACHEAXIx peripheral.
 461:STM32Cube_FW_N6/Drivers/STM32N6xx_HAL_Driver/Src/stm32n6xx_hal_cacheaxi.c ****   * @retval Status (0: disabled, 1: enabled)
 462:STM32Cube_FW_N6/Drivers/STM32N6xx_HAL_Driver/Src/stm32n6xx_hal_cacheaxi.c ****   */
 463:STM32Cube_FW_N6/Drivers/STM32N6xx_HAL_Driver/Src/stm32n6xx_hal_cacheaxi.c **** uint32_t HAL_CACHEAXI_IsEnabled(const CACHEAXI_HandleTypeDef *hcacheaxi)
 464:STM32Cube_FW_N6/Drivers/STM32N6xx_HAL_Driver/Src/stm32n6xx_hal_cacheaxi.c **** {
 596              		.loc 1 464 1
 597              		.cfi_startproc
 598              		@ args = 0, pretend = 0, frame = 8
 599              		@ frame_needed = 1, uses_anonymous_args = 0
 600              		@ link register save eliminated.
 601 0000 80B4     		push	{r7}
 602              		.cfi_def_cfa_offset 4
 603              		.cfi_offset 7, -4
 604 0002 83B0     		sub	sp, sp, #12
 605              		.cfi_def_cfa_offset 16
 606 0004 00AF     		add	r7, sp, #0
 607              		.cfi_def_cfa_register 7
 608 0006 7860     		str	r0, [r7, #4]
 465:STM32Cube_FW_N6/Drivers/STM32N6xx_HAL_Driver/Src/stm32n6xx_hal_cacheaxi.c ****   return ((READ_BIT(hcacheaxi->Instance->CR1, CACHEAXI_CR1_EN) != 0U) ? 1UL : 0UL);
 609              		.loc 1 465 12
 610 0008 7B68     		ldr	r3, [r7, #4]
 611 000a 1B68     		ldr	r3, [r3]
 612 000c 1B68     		ldr	r3, [r3]
 613              		.loc 1 465 77
 614 000e 03F00103 		and	r3, r3, #1
 466:STM32Cube_FW_N6/Drivers/STM32N6xx_HAL_Driver/Src/stm32n6xx_hal_cacheaxi.c **** }
 615              		.loc 1 466 1
 616 0012 1846     		mov	r0, r3
 617 0014 0C37     		adds	r7, r7, #12
 618              		.cfi_def_cfa_offset 4
ARM GAS  /tmp/cc4w16ub.s 			page 20


 619 0016 BD46     		mov	sp, r7
 620              		.cfi_def_cfa_register 13
 621              		@ sp needed
 622 0018 5DF8047B 		ldr	r7, [sp], #4
 623              		.cfi_restore 7
 624              		.cfi_def_cfa_offset 0
 625 001c 7047     		bx	lr
 626              		.cfi_endproc
 627              	.LFE841:
 629              		.section	.text.HAL_CACHEAXI_Invalidate,"ax",%progbits
 630              		.align	1
 631              		.global	HAL_CACHEAXI_Invalidate
 632              		.syntax unified
 633              		.thumb
 634              		.thumb_func
 636              	HAL_CACHEAXI_Invalidate:
 637              	.LFB842:
 467:STM32Cube_FW_N6/Drivers/STM32N6xx_HAL_Driver/Src/stm32n6xx_hal_cacheaxi.c **** 
 468:STM32Cube_FW_N6/Drivers/STM32N6xx_HAL_Driver/Src/stm32n6xx_hal_cacheaxi.c **** /**
 469:STM32Cube_FW_N6/Drivers/STM32N6xx_HAL_Driver/Src/stm32n6xx_hal_cacheaxi.c ****   * @brief  Invalidate the Data cache.
 470:STM32Cube_FW_N6/Drivers/STM32N6xx_HAL_Driver/Src/stm32n6xx_hal_cacheaxi.c ****   * @param  hcacheaxi Pointer to a CACHEAXI_HandleTypeDef structure that contains
 471:STM32Cube_FW_N6/Drivers/STM32N6xx_HAL_Driver/Src/stm32n6xx_hal_cacheaxi.c ****   *                 the configuration information for the specified CACHEAXIx peripheral.
 472:STM32Cube_FW_N6/Drivers/STM32N6xx_HAL_Driver/Src/stm32n6xx_hal_cacheaxi.c ****   * @note   This function waits for end of full cache invalidation
 473:STM32Cube_FW_N6/Drivers/STM32N6xx_HAL_Driver/Src/stm32n6xx_hal_cacheaxi.c ****   * @retval HAL status
 474:STM32Cube_FW_N6/Drivers/STM32N6xx_HAL_Driver/Src/stm32n6xx_hal_cacheaxi.c ****   */
 475:STM32Cube_FW_N6/Drivers/STM32N6xx_HAL_Driver/Src/stm32n6xx_hal_cacheaxi.c **** HAL_StatusTypeDef HAL_CACHEAXI_Invalidate(CACHEAXI_HandleTypeDef *hcacheaxi)
 476:STM32Cube_FW_N6/Drivers/STM32N6xx_HAL_Driver/Src/stm32n6xx_hal_cacheaxi.c **** {
 638              		.loc 1 476 1
 639              		.cfi_startproc
 640              		@ args = 0, pretend = 0, frame = 16
 641              		@ frame_needed = 1, uses_anonymous_args = 0
 642 0000 80B5     		push	{r7, lr}
 643              		.cfi_def_cfa_offset 8
 644              		.cfi_offset 7, -8
 645              		.cfi_offset 14, -4
 646 0002 84B0     		sub	sp, sp, #16
 647              		.cfi_def_cfa_offset 24
 648 0004 00AF     		add	r7, sp, #0
 649              		.cfi_def_cfa_register 7
 650 0006 7860     		str	r0, [r7, #4]
 477:STM32Cube_FW_N6/Drivers/STM32N6xx_HAL_Driver/Src/stm32n6xx_hal_cacheaxi.c ****   HAL_StatusTypeDef status = HAL_OK;
 651              		.loc 1 477 21
 652 0008 0023     		movs	r3, #0
 653 000a FB73     		strb	r3, [r7, #15]
 478:STM32Cube_FW_N6/Drivers/STM32N6xx_HAL_Driver/Src/stm32n6xx_hal_cacheaxi.c ****   uint32_t tickstart;
 479:STM32Cube_FW_N6/Drivers/STM32N6xx_HAL_Driver/Src/stm32n6xx_hal_cacheaxi.c **** 
 480:STM32Cube_FW_N6/Drivers/STM32N6xx_HAL_Driver/Src/stm32n6xx_hal_cacheaxi.c ****   /* Check the cacheaxi handle allocation */
 481:STM32Cube_FW_N6/Drivers/STM32N6xx_HAL_Driver/Src/stm32n6xx_hal_cacheaxi.c ****   if (hcacheaxi == NULL)
 654              		.loc 1 481 6
 655 000c 7B68     		ldr	r3, [r7, #4]
 656 000e 002B     		cmp	r3, #0
 657 0010 01D1     		bne	.L40
 482:STM32Cube_FW_N6/Drivers/STM32N6xx_HAL_Driver/Src/stm32n6xx_hal_cacheaxi.c ****   {
 483:STM32Cube_FW_N6/Drivers/STM32N6xx_HAL_Driver/Src/stm32n6xx_hal_cacheaxi.c ****     return HAL_ERROR;
 658              		.loc 1 483 12
 659 0012 0123     		movs	r3, #1
 660 0014 57E0     		b	.L41
ARM GAS  /tmp/cc4w16ub.s 			page 21


 661              	.L40:
 484:STM32Cube_FW_N6/Drivers/STM32N6xx_HAL_Driver/Src/stm32n6xx_hal_cacheaxi.c ****   }
 485:STM32Cube_FW_N6/Drivers/STM32N6xx_HAL_Driver/Src/stm32n6xx_hal_cacheaxi.c **** 
 486:STM32Cube_FW_N6/Drivers/STM32N6xx_HAL_Driver/Src/stm32n6xx_hal_cacheaxi.c ****   /* Check the parameters */
 487:STM32Cube_FW_N6/Drivers/STM32N6xx_HAL_Driver/Src/stm32n6xx_hal_cacheaxi.c ****   assert_param(IS_CACHEAXI_ALL_INSTANCE(hcacheaxi->Instance));
 662              		.loc 1 487 3
 663 0016 7B68     		ldr	r3, [r7, #4]
 664 0018 1B68     		ldr	r3, [r3]
 665 001a 2D4A     		ldr	r2, .L48
 666 001c 9342     		cmp	r3, r2
 667 001e 09D0     		beq	.L42
 668              		.loc 1 487 3 is_stmt 0 discriminator 1
 669 0020 7B68     		ldr	r3, [r7, #4]
 670 0022 1B68     		ldr	r3, [r3]
 671 0024 2B4A     		ldr	r2, .L48+4
 672 0026 9342     		cmp	r3, r2
 673 0028 04D0     		beq	.L42
 674              		.loc 1 487 3 discriminator 2
 675 002a 40F2E711 		movw	r1, #487
 676 002e 2A48     		ldr	r0, .L48+8
 677 0030 FFF7FEFF 		bl	assert_failed
 678              	.L42:
 488:STM32Cube_FW_N6/Drivers/STM32N6xx_HAL_Driver/Src/stm32n6xx_hal_cacheaxi.c **** 
 489:STM32Cube_FW_N6/Drivers/STM32N6xx_HAL_Driver/Src/stm32n6xx_hal_cacheaxi.c ****   /* Check no ongoing operation */
 490:STM32Cube_FW_N6/Drivers/STM32N6xx_HAL_Driver/Src/stm32n6xx_hal_cacheaxi.c ****   if (READ_BIT(hcacheaxi->Instance->SR, (CACHEAXI_SR_BUSYF | CACHEAXI_SR_BUSYCMDF)) != 0U)
 679              		.loc 1 490 7 is_stmt 1
 680 0034 7B68     		ldr	r3, [r7, #4]
 681 0036 1B68     		ldr	r3, [r3]
 682 0038 5B68     		ldr	r3, [r3, #4]
 683 003a 03F00903 		and	r3, r3, #9
 684              		.loc 1 490 6
 685 003e 002B     		cmp	r3, #0
 686 0040 02D0     		beq	.L43
 491:STM32Cube_FW_N6/Drivers/STM32N6xx_HAL_Driver/Src/stm32n6xx_hal_cacheaxi.c ****   {
 492:STM32Cube_FW_N6/Drivers/STM32N6xx_HAL_Driver/Src/stm32n6xx_hal_cacheaxi.c ****     /* Return busy status */
 493:STM32Cube_FW_N6/Drivers/STM32N6xx_HAL_Driver/Src/stm32n6xx_hal_cacheaxi.c ****     status =  HAL_BUSY;
 687              		.loc 1 493 12
 688 0042 0223     		movs	r3, #2
 689 0044 FB73     		strb	r3, [r7, #15]
 690 0046 3DE0     		b	.L44
 691              	.L43:
 494:STM32Cube_FW_N6/Drivers/STM32N6xx_HAL_Driver/Src/stm32n6xx_hal_cacheaxi.c ****   }
 495:STM32Cube_FW_N6/Drivers/STM32N6xx_HAL_Driver/Src/stm32n6xx_hal_cacheaxi.c ****   else
 496:STM32Cube_FW_N6/Drivers/STM32N6xx_HAL_Driver/Src/stm32n6xx_hal_cacheaxi.c ****   {
 497:STM32Cube_FW_N6/Drivers/STM32N6xx_HAL_Driver/Src/stm32n6xx_hal_cacheaxi.c ****     /* Update the error code */
 498:STM32Cube_FW_N6/Drivers/STM32N6xx_HAL_Driver/Src/stm32n6xx_hal_cacheaxi.c ****     hcacheaxi->ErrorCode = HAL_CACHEAXI_ERROR_NONE;
 692              		.loc 1 498 26
 693 0048 7B68     		ldr	r3, [r7, #4]
 694 004a 0022     		movs	r2, #0
 695 004c 9A60     		str	r2, [r3, #8]
 499:STM32Cube_FW_N6/Drivers/STM32N6xx_HAL_Driver/Src/stm32n6xx_hal_cacheaxi.c **** 
 500:STM32Cube_FW_N6/Drivers/STM32N6xx_HAL_Driver/Src/stm32n6xx_hal_cacheaxi.c ****     /* Change CACHEAXI Handle state */
 501:STM32Cube_FW_N6/Drivers/STM32N6xx_HAL_Driver/Src/stm32n6xx_hal_cacheaxi.c ****     hcacheaxi->State = HAL_CACHEAXI_STATE_READY;
 696              		.loc 1 501 22
 697 004e 7B68     		ldr	r3, [r7, #4]
 698 0050 0122     		movs	r2, #1
 699 0052 1A71     		strb	r2, [r3, #4]
ARM GAS  /tmp/cc4w16ub.s 			page 22


 502:STM32Cube_FW_N6/Drivers/STM32N6xx_HAL_Driver/Src/stm32n6xx_hal_cacheaxi.c **** 
 503:STM32Cube_FW_N6/Drivers/STM32N6xx_HAL_Driver/Src/stm32n6xx_hal_cacheaxi.c ****     /* Make sure flags are reset */
 504:STM32Cube_FW_N6/Drivers/STM32N6xx_HAL_Driver/Src/stm32n6xx_hal_cacheaxi.c ****     WRITE_REG(hcacheaxi->Instance->FCR, (CACHEAXI_FCR_CBSYENDF | CACHEAXI_FCR_CCMDENDF));
 700              		.loc 1 504 5
 701 0054 7B68     		ldr	r3, [r7, #4]
 702 0056 1B68     		ldr	r3, [r3]
 703 0058 1222     		movs	r2, #18
 704 005a DA60     		str	r2, [r3, #12]
 505:STM32Cube_FW_N6/Drivers/STM32N6xx_HAL_Driver/Src/stm32n6xx_hal_cacheaxi.c **** 
 506:STM32Cube_FW_N6/Drivers/STM32N6xx_HAL_Driver/Src/stm32n6xx_hal_cacheaxi.c ****     /* Set no operation on address range */
 507:STM32Cube_FW_N6/Drivers/STM32N6xx_HAL_Driver/Src/stm32n6xx_hal_cacheaxi.c ****     MODIFY_REG(hcacheaxi->Instance->CR2, CACHEAXI_CR2_CACHECMD, 0U);
 705              		.loc 1 507 5
 706 005c 7B68     		ldr	r3, [r7, #4]
 707 005e 1B68     		ldr	r3, [r3]
 708 0060 D3F80021 		ldr	r2, [r3, #256]
 709 0064 7B68     		ldr	r3, [r7, #4]
 710 0066 1B68     		ldr	r3, [r3]
 711 0068 22F00602 		bic	r2, r2, #6
 712 006c C3F80021 		str	r2, [r3, #256]
 508:STM32Cube_FW_N6/Drivers/STM32N6xx_HAL_Driver/Src/stm32n6xx_hal_cacheaxi.c **** 
 509:STM32Cube_FW_N6/Drivers/STM32N6xx_HAL_Driver/Src/stm32n6xx_hal_cacheaxi.c ****     /* Launch cache invalidation */
 510:STM32Cube_FW_N6/Drivers/STM32N6xx_HAL_Driver/Src/stm32n6xx_hal_cacheaxi.c ****     SET_BIT(hcacheaxi->Instance->CR1, CACHEAXI_CR1_CACHEINV);
 713              		.loc 1 510 5
 714 0070 7B68     		ldr	r3, [r7, #4]
 715 0072 1B68     		ldr	r3, [r3]
 716 0074 1A68     		ldr	r2, [r3]
 717 0076 7B68     		ldr	r3, [r7, #4]
 718 0078 1B68     		ldr	r3, [r3]
 719 007a 42F00202 		orr	r2, r2, #2
 720 007e 1A60     		str	r2, [r3]
 511:STM32Cube_FW_N6/Drivers/STM32N6xx_HAL_Driver/Src/stm32n6xx_hal_cacheaxi.c **** 
 512:STM32Cube_FW_N6/Drivers/STM32N6xx_HAL_Driver/Src/stm32n6xx_hal_cacheaxi.c ****     /* Get timeout */
 513:STM32Cube_FW_N6/Drivers/STM32N6xx_HAL_Driver/Src/stm32n6xx_hal_cacheaxi.c ****     tickstart = HAL_GetTick();
 721              		.loc 1 513 17
 722 0080 FFF7FEFF 		bl	HAL_GetTick
 723 0084 B860     		str	r0, [r7, #8]
 514:STM32Cube_FW_N6/Drivers/STM32N6xx_HAL_Driver/Src/stm32n6xx_hal_cacheaxi.c **** 
 515:STM32Cube_FW_N6/Drivers/STM32N6xx_HAL_Driver/Src/stm32n6xx_hal_cacheaxi.c ****     /* Wait for end of cache invalidation */
 516:STM32Cube_FW_N6/Drivers/STM32N6xx_HAL_Driver/Src/stm32n6xx_hal_cacheaxi.c ****     while (READ_BIT(hcacheaxi->Instance->SR, CACHEAXI_SR_BUSYF) != 0U)
 724              		.loc 1 516 11
 725 0086 16E0     		b	.L45
 726              	.L47:
 517:STM32Cube_FW_N6/Drivers/STM32N6xx_HAL_Driver/Src/stm32n6xx_hal_cacheaxi.c ****     {
 518:STM32Cube_FW_N6/Drivers/STM32N6xx_HAL_Driver/Src/stm32n6xx_hal_cacheaxi.c ****       if ((HAL_GetTick() - tickstart) > CACHEAXI_COMMAND_TIMEOUT_VALUE)
 727              		.loc 1 518 12
 728 0088 FFF7FEFF 		bl	HAL_GetTick
 729 008c 0246     		mov	r2, r0
 730              		.loc 1 518 26 discriminator 1
 731 008e BB68     		ldr	r3, [r7, #8]
 732 0090 D31A     		subs	r3, r2, r3
 733              		.loc 1 518 10 discriminator 1
 734 0092 C82B     		cmp	r3, #200
 735 0094 0FD9     		bls	.L45
 519:STM32Cube_FW_N6/Drivers/STM32N6xx_HAL_Driver/Src/stm32n6xx_hal_cacheaxi.c ****       {
 520:STM32Cube_FW_N6/Drivers/STM32N6xx_HAL_Driver/Src/stm32n6xx_hal_cacheaxi.c ****         if (READ_BIT(hcacheaxi->Instance->SR, CACHEAXI_SR_BUSYF) != 0U)
 736              		.loc 1 520 13
 737 0096 7B68     		ldr	r3, [r7, #4]
ARM GAS  /tmp/cc4w16ub.s 			page 23


 738 0098 1B68     		ldr	r3, [r3]
 739 009a 5B68     		ldr	r3, [r3, #4]
 740 009c 03F00103 		and	r3, r3, #1
 741              		.loc 1 520 12
 742 00a0 002B     		cmp	r3, #0
 743 00a2 08D0     		beq	.L45
 521:STM32Cube_FW_N6/Drivers/STM32N6xx_HAL_Driver/Src/stm32n6xx_hal_cacheaxi.c ****         {
 522:STM32Cube_FW_N6/Drivers/STM32N6xx_HAL_Driver/Src/stm32n6xx_hal_cacheaxi.c ****           /* Update error code */
 523:STM32Cube_FW_N6/Drivers/STM32N6xx_HAL_Driver/Src/stm32n6xx_hal_cacheaxi.c ****           hcacheaxi->ErrorCode = HAL_CACHEAXI_ERROR_TIMEOUT;
 744              		.loc 1 523 32
 745 00a4 7B68     		ldr	r3, [r7, #4]
 746 00a6 1022     		movs	r2, #16
 747 00a8 9A60     		str	r2, [r3, #8]
 524:STM32Cube_FW_N6/Drivers/STM32N6xx_HAL_Driver/Src/stm32n6xx_hal_cacheaxi.c **** 
 525:STM32Cube_FW_N6/Drivers/STM32N6xx_HAL_Driver/Src/stm32n6xx_hal_cacheaxi.c ****           /* Change the CACHEAXI state */
 526:STM32Cube_FW_N6/Drivers/STM32N6xx_HAL_Driver/Src/stm32n6xx_hal_cacheaxi.c ****           hcacheaxi->State = HAL_CACHEAXI_STATE_ERROR;
 748              		.loc 1 526 28
 749 00aa 7B68     		ldr	r3, [r7, #4]
 750 00ac 0622     		movs	r2, #6
 751 00ae 1A71     		strb	r2, [r3, #4]
 527:STM32Cube_FW_N6/Drivers/STM32N6xx_HAL_Driver/Src/stm32n6xx_hal_cacheaxi.c **** 
 528:STM32Cube_FW_N6/Drivers/STM32N6xx_HAL_Driver/Src/stm32n6xx_hal_cacheaxi.c ****           /* Return error status */
 529:STM32Cube_FW_N6/Drivers/STM32N6xx_HAL_Driver/Src/stm32n6xx_hal_cacheaxi.c ****           status =  HAL_ERROR;
 752              		.loc 1 529 18
 753 00b0 0123     		movs	r3, #1
 754 00b2 FB73     		strb	r3, [r7, #15]
 530:STM32Cube_FW_N6/Drivers/STM32N6xx_HAL_Driver/Src/stm32n6xx_hal_cacheaxi.c ****           break;
 755              		.loc 1 530 11
 756 00b4 06E0     		b	.L44
 757              	.L45:
 516:STM32Cube_FW_N6/Drivers/STM32N6xx_HAL_Driver/Src/stm32n6xx_hal_cacheaxi.c ****     {
 758              		.loc 1 516 12
 759 00b6 7B68     		ldr	r3, [r7, #4]
 760 00b8 1B68     		ldr	r3, [r3]
 761 00ba 5B68     		ldr	r3, [r3, #4]
 762 00bc 03F00103 		and	r3, r3, #1
 516:STM32Cube_FW_N6/Drivers/STM32N6xx_HAL_Driver/Src/stm32n6xx_hal_cacheaxi.c ****     {
 763              		.loc 1 516 65
 764 00c0 002B     		cmp	r3, #0
 765 00c2 E1D1     		bne	.L47
 766              	.L44:
 531:STM32Cube_FW_N6/Drivers/STM32N6xx_HAL_Driver/Src/stm32n6xx_hal_cacheaxi.c ****         }
 532:STM32Cube_FW_N6/Drivers/STM32N6xx_HAL_Driver/Src/stm32n6xx_hal_cacheaxi.c ****       }
 533:STM32Cube_FW_N6/Drivers/STM32N6xx_HAL_Driver/Src/stm32n6xx_hal_cacheaxi.c ****     }
 534:STM32Cube_FW_N6/Drivers/STM32N6xx_HAL_Driver/Src/stm32n6xx_hal_cacheaxi.c ****   }
 535:STM32Cube_FW_N6/Drivers/STM32N6xx_HAL_Driver/Src/stm32n6xx_hal_cacheaxi.c **** 
 536:STM32Cube_FW_N6/Drivers/STM32N6xx_HAL_Driver/Src/stm32n6xx_hal_cacheaxi.c ****   return status;
 767              		.loc 1 536 10
 768 00c4 FB7B     		ldrb	r3, [r7, #15]	@ zero_extendqisi2
 769              	.L41:
 537:STM32Cube_FW_N6/Drivers/STM32N6xx_HAL_Driver/Src/stm32n6xx_hal_cacheaxi.c **** }
 770              		.loc 1 537 1
 771 00c6 1846     		mov	r0, r3
 772 00c8 1037     		adds	r7, r7, #16
 773              		.cfi_def_cfa_offset 8
 774 00ca BD46     		mov	sp, r7
 775              		.cfi_def_cfa_register 13
ARM GAS  /tmp/cc4w16ub.s 			page 24


 776              		@ sp needed
 777 00cc 80BD     		pop	{r7, pc}
 778              	.L49:
 779 00ce 00BF     		.align	2
 780              	.L48:
 781 00d0 00FC0D58 		.word	1477311488
 782 00d4 00FC0D48 		.word	1208876032
 783 00d8 00000000 		.word	.LC0
 784              		.cfi_endproc
 785              	.LFE842:
 787              		.section	.text.HAL_CACHEAXI_CleanByAddr,"ax",%progbits
 788              		.align	1
 789              		.global	HAL_CACHEAXI_CleanByAddr
 790              		.syntax unified
 791              		.thumb
 792              		.thumb_func
 794              	HAL_CACHEAXI_CleanByAddr:
 795              	.LFB843:
 538:STM32Cube_FW_N6/Drivers/STM32N6xx_HAL_Driver/Src/stm32n6xx_hal_cacheaxi.c **** 
 539:STM32Cube_FW_N6/Drivers/STM32N6xx_HAL_Driver/Src/stm32n6xx_hal_cacheaxi.c **** /**
 540:STM32Cube_FW_N6/Drivers/STM32N6xx_HAL_Driver/Src/stm32n6xx_hal_cacheaxi.c ****   * @brief  Clean the Data cache by Addr.
 541:STM32Cube_FW_N6/Drivers/STM32N6xx_HAL_Driver/Src/stm32n6xx_hal_cacheaxi.c ****   * @param  hcacheaxi Pointer to a CACHEAXI_HandleTypeDef structure that contains
 542:STM32Cube_FW_N6/Drivers/STM32N6xx_HAL_Driver/Src/stm32n6xx_hal_cacheaxi.c ****   *                   the configuration information for the specified CACHEAXIx peripheral.
 543:STM32Cube_FW_N6/Drivers/STM32N6xx_HAL_Driver/Src/stm32n6xx_hal_cacheaxi.c ****   * @param  pAddr Start address of the region to be Cleaned
 544:STM32Cube_FW_N6/Drivers/STM32N6xx_HAL_Driver/Src/stm32n6xx_hal_cacheaxi.c ****   * @param  dSize Size of the region to be Cleaned (in bytes)
 545:STM32Cube_FW_N6/Drivers/STM32N6xx_HAL_Driver/Src/stm32n6xx_hal_cacheaxi.c ****   * @note   This function waits for end of cache Clean
 546:STM32Cube_FW_N6/Drivers/STM32N6xx_HAL_Driver/Src/stm32n6xx_hal_cacheaxi.c ****   * @retval HAL status
 547:STM32Cube_FW_N6/Drivers/STM32N6xx_HAL_Driver/Src/stm32n6xx_hal_cacheaxi.c ****   */
 548:STM32Cube_FW_N6/Drivers/STM32N6xx_HAL_Driver/Src/stm32n6xx_hal_cacheaxi.c **** HAL_StatusTypeDef HAL_CACHEAXI_CleanByAddr(CACHEAXI_HandleTypeDef *hcacheaxi, const uint32_t *const
 549:STM32Cube_FW_N6/Drivers/STM32N6xx_HAL_Driver/Src/stm32n6xx_hal_cacheaxi.c ****                                            uint32_t dSize)
 550:STM32Cube_FW_N6/Drivers/STM32N6xx_HAL_Driver/Src/stm32n6xx_hal_cacheaxi.c **** {
 796              		.loc 1 550 1
 797              		.cfi_startproc
 798              		@ args = 0, pretend = 0, frame = 24
 799              		@ frame_needed = 1, uses_anonymous_args = 0
 800 0000 80B5     		push	{r7, lr}
 801              		.cfi_def_cfa_offset 8
 802              		.cfi_offset 7, -8
 803              		.cfi_offset 14, -4
 804 0002 88B0     		sub	sp, sp, #32
 805              		.cfi_def_cfa_offset 40
 806 0004 02AF     		add	r7, sp, #8
 807              		.cfi_def_cfa 7, 32
 808 0006 F860     		str	r0, [r7, #12]
 809 0008 B960     		str	r1, [r7, #8]
 810 000a 7A60     		str	r2, [r7, #4]
 551:STM32Cube_FW_N6/Drivers/STM32N6xx_HAL_Driver/Src/stm32n6xx_hal_cacheaxi.c ****   HAL_StatusTypeDef status;
 552:STM32Cube_FW_N6/Drivers/STM32N6xx_HAL_Driver/Src/stm32n6xx_hal_cacheaxi.c **** 
 553:STM32Cube_FW_N6/Drivers/STM32N6xx_HAL_Driver/Src/stm32n6xx_hal_cacheaxi.c ****   /* Check the cacheaxi handle allocation */
 554:STM32Cube_FW_N6/Drivers/STM32N6xx_HAL_Driver/Src/stm32n6xx_hal_cacheaxi.c ****   if (hcacheaxi == NULL)
 811              		.loc 1 554 6
 812 000c FB68     		ldr	r3, [r7, #12]
 813 000e 002B     		cmp	r3, #0
 814 0010 01D1     		bne	.L51
 555:STM32Cube_FW_N6/Drivers/STM32N6xx_HAL_Driver/Src/stm32n6xx_hal_cacheaxi.c ****   {
 556:STM32Cube_FW_N6/Drivers/STM32N6xx_HAL_Driver/Src/stm32n6xx_hal_cacheaxi.c ****     return HAL_ERROR;
 815              		.loc 1 556 12
ARM GAS  /tmp/cc4w16ub.s 			page 25


 816 0012 0123     		movs	r3, #1
 817 0014 21E0     		b	.L52
 818              	.L51:
 557:STM32Cube_FW_N6/Drivers/STM32N6xx_HAL_Driver/Src/stm32n6xx_hal_cacheaxi.c ****   }
 558:STM32Cube_FW_N6/Drivers/STM32N6xx_HAL_Driver/Src/stm32n6xx_hal_cacheaxi.c **** 
 559:STM32Cube_FW_N6/Drivers/STM32N6xx_HAL_Driver/Src/stm32n6xx_hal_cacheaxi.c ****   /* Check the parameters */
 560:STM32Cube_FW_N6/Drivers/STM32N6xx_HAL_Driver/Src/stm32n6xx_hal_cacheaxi.c ****   assert_param(IS_CACHEAXI_ALL_INSTANCE(hcacheaxi->Instance));
 819              		.loc 1 560 3
 820 0016 FB68     		ldr	r3, [r7, #12]
 821 0018 1B68     		ldr	r3, [r3]
 822 001a 124A     		ldr	r2, .L55
 823 001c 9342     		cmp	r3, r2
 824 001e 09D0     		beq	.L53
 825              		.loc 1 560 3 is_stmt 0 discriminator 1
 826 0020 FB68     		ldr	r3, [r7, #12]
 827 0022 1B68     		ldr	r3, [r3]
 828 0024 104A     		ldr	r2, .L55+4
 829 0026 9342     		cmp	r3, r2
 830 0028 04D0     		beq	.L53
 831              		.loc 1 560 3 discriminator 2
 832 002a 4FF40C71 		mov	r1, #560
 833 002e 0F48     		ldr	r0, .L55+8
 834 0030 FFF7FEFF 		bl	assert_failed
 835              	.L53:
 561:STM32Cube_FW_N6/Drivers/STM32N6xx_HAL_Driver/Src/stm32n6xx_hal_cacheaxi.c ****   assert_param(IS_CACHEAXI_REGION_SIZE(dSize));
 836              		.loc 1 561 3 is_stmt 1
 837 0034 7B68     		ldr	r3, [r7, #4]
 838 0036 002B     		cmp	r3, #0
 839 0038 04D1     		bne	.L54
 840              		.loc 1 561 3 is_stmt 0 discriminator 1
 841 003a 40F23121 		movw	r1, #561
 842 003e 0B48     		ldr	r0, .L55+8
 843 0040 FFF7FEFF 		bl	assert_failed
 844              	.L54:
 562:STM32Cube_FW_N6/Drivers/STM32N6xx_HAL_Driver/Src/stm32n6xx_hal_cacheaxi.c **** 
 563:STM32Cube_FW_N6/Drivers/STM32N6xx_HAL_Driver/Src/stm32n6xx_hal_cacheaxi.c ****   status = CACHEAXI_CommandByAddr(hcacheaxi, CACHEAXI_COMMAND_CLEAN, pAddr, dSize, CACHEAXI_POLLING
 845              		.loc 1 563 12 is_stmt 1
 846 0044 0023     		movs	r3, #0
 847 0046 0093     		str	r3, [sp]
 848 0048 7B68     		ldr	r3, [r7, #4]
 849 004a BA68     		ldr	r2, [r7, #8]
 850 004c 0221     		movs	r1, #2
 851 004e F868     		ldr	r0, [r7, #12]
 852 0050 FFF7FEFF 		bl	CACHEAXI_CommandByAddr
 853 0054 0346     		mov	r3, r0
 854 0056 FB75     		strb	r3, [r7, #23]
 564:STM32Cube_FW_N6/Drivers/STM32N6xx_HAL_Driver/Src/stm32n6xx_hal_cacheaxi.c **** 
 565:STM32Cube_FW_N6/Drivers/STM32N6xx_HAL_Driver/Src/stm32n6xx_hal_cacheaxi.c ****   return status;
 855              		.loc 1 565 10
 856 0058 FB7D     		ldrb	r3, [r7, #23]	@ zero_extendqisi2
 857              	.L52:
 566:STM32Cube_FW_N6/Drivers/STM32N6xx_HAL_Driver/Src/stm32n6xx_hal_cacheaxi.c **** }
 858              		.loc 1 566 1
 859 005a 1846     		mov	r0, r3
 860 005c 1837     		adds	r7, r7, #24
 861              		.cfi_def_cfa_offset 8
 862 005e BD46     		mov	sp, r7
ARM GAS  /tmp/cc4w16ub.s 			page 26


 863              		.cfi_def_cfa_register 13
 864              		@ sp needed
 865 0060 80BD     		pop	{r7, pc}
 866              	.L56:
 867 0062 00BF     		.align	2
 868              	.L55:
 869 0064 00FC0D58 		.word	1477311488
 870 0068 00FC0D48 		.word	1208876032
 871 006c 00000000 		.word	.LC0
 872              		.cfi_endproc
 873              	.LFE843:
 875              		.section	.text.HAL_CACHEAXI_CleanInvalidByAddr,"ax",%progbits
 876              		.align	1
 877              		.global	HAL_CACHEAXI_CleanInvalidByAddr
 878              		.syntax unified
 879              		.thumb
 880              		.thumb_func
 882              	HAL_CACHEAXI_CleanInvalidByAddr:
 883              	.LFB844:
 567:STM32Cube_FW_N6/Drivers/STM32N6xx_HAL_Driver/Src/stm32n6xx_hal_cacheaxi.c **** 
 568:STM32Cube_FW_N6/Drivers/STM32N6xx_HAL_Driver/Src/stm32n6xx_hal_cacheaxi.c **** /**
 569:STM32Cube_FW_N6/Drivers/STM32N6xx_HAL_Driver/Src/stm32n6xx_hal_cacheaxi.c ****   * @brief  Clean and Invalidate the Data cache by Addr.
 570:STM32Cube_FW_N6/Drivers/STM32N6xx_HAL_Driver/Src/stm32n6xx_hal_cacheaxi.c ****   * @param  hcacheaxi Pointer to a CACHEAXI_HandleTypeDef structure that contains
 571:STM32Cube_FW_N6/Drivers/STM32N6xx_HAL_Driver/Src/stm32n6xx_hal_cacheaxi.c ****   *                   the configuration information for the specified CACHEAXIx peripheral.
 572:STM32Cube_FW_N6/Drivers/STM32N6xx_HAL_Driver/Src/stm32n6xx_hal_cacheaxi.c ****   * @param  pAddr Start address of the region to be Cleaned and Invalidated
 573:STM32Cube_FW_N6/Drivers/STM32N6xx_HAL_Driver/Src/stm32n6xx_hal_cacheaxi.c ****   * @param  dSize Size of the region to be Cleaned and Invalidated (in bytes)
 574:STM32Cube_FW_N6/Drivers/STM32N6xx_HAL_Driver/Src/stm32n6xx_hal_cacheaxi.c ****   * @note   This function waits for end of cache Clean and Invalidation
 575:STM32Cube_FW_N6/Drivers/STM32N6xx_HAL_Driver/Src/stm32n6xx_hal_cacheaxi.c ****   * @retval HAL status
 576:STM32Cube_FW_N6/Drivers/STM32N6xx_HAL_Driver/Src/stm32n6xx_hal_cacheaxi.c ****   */
 577:STM32Cube_FW_N6/Drivers/STM32N6xx_HAL_Driver/Src/stm32n6xx_hal_cacheaxi.c **** HAL_StatusTypeDef HAL_CACHEAXI_CleanInvalidByAddr(CACHEAXI_HandleTypeDef *hcacheaxi, const uint32_t
 578:STM32Cube_FW_N6/Drivers/STM32N6xx_HAL_Driver/Src/stm32n6xx_hal_cacheaxi.c ****                                                   uint32_t dSize)
 579:STM32Cube_FW_N6/Drivers/STM32N6xx_HAL_Driver/Src/stm32n6xx_hal_cacheaxi.c **** {
 884              		.loc 1 579 1
 885              		.cfi_startproc
 886              		@ args = 0, pretend = 0, frame = 24
 887              		@ frame_needed = 1, uses_anonymous_args = 0
 888 0000 80B5     		push	{r7, lr}
 889              		.cfi_def_cfa_offset 8
 890              		.cfi_offset 7, -8
 891              		.cfi_offset 14, -4
 892 0002 88B0     		sub	sp, sp, #32
 893              		.cfi_def_cfa_offset 40
 894 0004 02AF     		add	r7, sp, #8
 895              		.cfi_def_cfa 7, 32
 896 0006 F860     		str	r0, [r7, #12]
 897 0008 B960     		str	r1, [r7, #8]
 898 000a 7A60     		str	r2, [r7, #4]
 580:STM32Cube_FW_N6/Drivers/STM32N6xx_HAL_Driver/Src/stm32n6xx_hal_cacheaxi.c ****   HAL_StatusTypeDef status;
 581:STM32Cube_FW_N6/Drivers/STM32N6xx_HAL_Driver/Src/stm32n6xx_hal_cacheaxi.c **** 
 582:STM32Cube_FW_N6/Drivers/STM32N6xx_HAL_Driver/Src/stm32n6xx_hal_cacheaxi.c ****   /* Check the cacheaxi handle allocation */
 583:STM32Cube_FW_N6/Drivers/STM32N6xx_HAL_Driver/Src/stm32n6xx_hal_cacheaxi.c ****   if (hcacheaxi == NULL)
 899              		.loc 1 583 6
 900 000c FB68     		ldr	r3, [r7, #12]
 901 000e 002B     		cmp	r3, #0
 902 0010 01D1     		bne	.L58
 584:STM32Cube_FW_N6/Drivers/STM32N6xx_HAL_Driver/Src/stm32n6xx_hal_cacheaxi.c ****   {
 585:STM32Cube_FW_N6/Drivers/STM32N6xx_HAL_Driver/Src/stm32n6xx_hal_cacheaxi.c ****     return HAL_ERROR;
ARM GAS  /tmp/cc4w16ub.s 			page 27


 903              		.loc 1 585 12
 904 0012 0123     		movs	r3, #1
 905 0014 21E0     		b	.L59
 906              	.L58:
 586:STM32Cube_FW_N6/Drivers/STM32N6xx_HAL_Driver/Src/stm32n6xx_hal_cacheaxi.c ****   }
 587:STM32Cube_FW_N6/Drivers/STM32N6xx_HAL_Driver/Src/stm32n6xx_hal_cacheaxi.c **** 
 588:STM32Cube_FW_N6/Drivers/STM32N6xx_HAL_Driver/Src/stm32n6xx_hal_cacheaxi.c ****   /* Check the parameters */
 589:STM32Cube_FW_N6/Drivers/STM32N6xx_HAL_Driver/Src/stm32n6xx_hal_cacheaxi.c ****   assert_param(IS_CACHEAXI_ALL_INSTANCE(hcacheaxi->Instance));
 907              		.loc 1 589 3
 908 0016 FB68     		ldr	r3, [r7, #12]
 909 0018 1B68     		ldr	r3, [r3]
 910 001a 124A     		ldr	r2, .L62
 911 001c 9342     		cmp	r3, r2
 912 001e 09D0     		beq	.L60
 913              		.loc 1 589 3 is_stmt 0 discriminator 1
 914 0020 FB68     		ldr	r3, [r7, #12]
 915 0022 1B68     		ldr	r3, [r3]
 916 0024 104A     		ldr	r2, .L62+4
 917 0026 9342     		cmp	r3, r2
 918 0028 04D0     		beq	.L60
 919              		.loc 1 589 3 discriminator 2
 920 002a 40F24D21 		movw	r1, #589
 921 002e 0F48     		ldr	r0, .L62+8
 922 0030 FFF7FEFF 		bl	assert_failed
 923              	.L60:
 590:STM32Cube_FW_N6/Drivers/STM32N6xx_HAL_Driver/Src/stm32n6xx_hal_cacheaxi.c ****   assert_param(IS_CACHEAXI_REGION_SIZE(dSize));
 924              		.loc 1 590 3 is_stmt 1
 925 0034 7B68     		ldr	r3, [r7, #4]
 926 0036 002B     		cmp	r3, #0
 927 0038 04D1     		bne	.L61
 928              		.loc 1 590 3 is_stmt 0 discriminator 1
 929 003a 40F24E21 		movw	r1, #590
 930 003e 0B48     		ldr	r0, .L62+8
 931 0040 FFF7FEFF 		bl	assert_failed
 932              	.L61:
 591:STM32Cube_FW_N6/Drivers/STM32N6xx_HAL_Driver/Src/stm32n6xx_hal_cacheaxi.c **** 
 592:STM32Cube_FW_N6/Drivers/STM32N6xx_HAL_Driver/Src/stm32n6xx_hal_cacheaxi.c ****   status = CACHEAXI_CommandByAddr(hcacheaxi, CACHEAXI_COMMAND_CLEAN_INVALIDATE, pAddr, dSize, CACHE
 933              		.loc 1 592 12 is_stmt 1
 934 0044 0023     		movs	r3, #0
 935 0046 0093     		str	r3, [sp]
 936 0048 7B68     		ldr	r3, [r7, #4]
 937 004a BA68     		ldr	r2, [r7, #8]
 938 004c 0621     		movs	r1, #6
 939 004e F868     		ldr	r0, [r7, #12]
 940 0050 FFF7FEFF 		bl	CACHEAXI_CommandByAddr
 941 0054 0346     		mov	r3, r0
 942 0056 FB75     		strb	r3, [r7, #23]
 593:STM32Cube_FW_N6/Drivers/STM32N6xx_HAL_Driver/Src/stm32n6xx_hal_cacheaxi.c **** 
 594:STM32Cube_FW_N6/Drivers/STM32N6xx_HAL_Driver/Src/stm32n6xx_hal_cacheaxi.c ****   return status;
 943              		.loc 1 594 10
 944 0058 FB7D     		ldrb	r3, [r7, #23]	@ zero_extendqisi2
 945              	.L59:
 595:STM32Cube_FW_N6/Drivers/STM32N6xx_HAL_Driver/Src/stm32n6xx_hal_cacheaxi.c **** }
 946              		.loc 1 595 1
 947 005a 1846     		mov	r0, r3
 948 005c 1837     		adds	r7, r7, #24
 949              		.cfi_def_cfa_offset 8
ARM GAS  /tmp/cc4w16ub.s 			page 28


 950 005e BD46     		mov	sp, r7
 951              		.cfi_def_cfa_register 13
 952              		@ sp needed
 953 0060 80BD     		pop	{r7, pc}
 954              	.L63:
 955 0062 00BF     		.align	2
 956              	.L62:
 957 0064 00FC0D58 		.word	1477311488
 958 0068 00FC0D48 		.word	1208876032
 959 006c 00000000 		.word	.LC0
 960              		.cfi_endproc
 961              	.LFE844:
 963              		.section	.text.HAL_CACHEAXI_Invalidate_IT,"ax",%progbits
 964              		.align	1
 965              		.global	HAL_CACHEAXI_Invalidate_IT
 966              		.syntax unified
 967              		.thumb
 968              		.thumb_func
 970              	HAL_CACHEAXI_Invalidate_IT:
 971              	.LFB845:
 596:STM32Cube_FW_N6/Drivers/STM32N6xx_HAL_Driver/Src/stm32n6xx_hal_cacheaxi.c **** 
 597:STM32Cube_FW_N6/Drivers/STM32N6xx_HAL_Driver/Src/stm32n6xx_hal_cacheaxi.c **** /**
 598:STM32Cube_FW_N6/Drivers/STM32N6xx_HAL_Driver/Src/stm32n6xx_hal_cacheaxi.c ****   * @brief  Invalidate the Data cache with interrupt.
 599:STM32Cube_FW_N6/Drivers/STM32N6xx_HAL_Driver/Src/stm32n6xx_hal_cacheaxi.c ****   * @param  hcacheaxi Pointer to a CACHEAXI_HandleTypeDef structure that contains
 600:STM32Cube_FW_N6/Drivers/STM32N6xx_HAL_Driver/Src/stm32n6xx_hal_cacheaxi.c ****   *                   the configuration information for the specified CACHEAXIx peripheral.
 601:STM32Cube_FW_N6/Drivers/STM32N6xx_HAL_Driver/Src/stm32n6xx_hal_cacheaxi.c ****   * @note   This function launches maintenance operation and returns immediately.
 602:STM32Cube_FW_N6/Drivers/STM32N6xx_HAL_Driver/Src/stm32n6xx_hal_cacheaxi.c ****   *         User application shall resort to interrupt generation to check
 603:STM32Cube_FW_N6/Drivers/STM32N6xx_HAL_Driver/Src/stm32n6xx_hal_cacheaxi.c ****   *         the end of operation.
 604:STM32Cube_FW_N6/Drivers/STM32N6xx_HAL_Driver/Src/stm32n6xx_hal_cacheaxi.c ****   * @retval HAL status
 605:STM32Cube_FW_N6/Drivers/STM32N6xx_HAL_Driver/Src/stm32n6xx_hal_cacheaxi.c ****   */
 606:STM32Cube_FW_N6/Drivers/STM32N6xx_HAL_Driver/Src/stm32n6xx_hal_cacheaxi.c **** HAL_StatusTypeDef HAL_CACHEAXI_Invalidate_IT(CACHEAXI_HandleTypeDef *hcacheaxi)
 607:STM32Cube_FW_N6/Drivers/STM32N6xx_HAL_Driver/Src/stm32n6xx_hal_cacheaxi.c **** {
 972              		.loc 1 607 1
 973              		.cfi_startproc
 974              		@ args = 0, pretend = 0, frame = 16
 975              		@ frame_needed = 1, uses_anonymous_args = 0
 976 0000 80B5     		push	{r7, lr}
 977              		.cfi_def_cfa_offset 8
 978              		.cfi_offset 7, -8
 979              		.cfi_offset 14, -4
 980 0002 84B0     		sub	sp, sp, #16
 981              		.cfi_def_cfa_offset 24
 982 0004 00AF     		add	r7, sp, #0
 983              		.cfi_def_cfa_register 7
 984 0006 7860     		str	r0, [r7, #4]
 608:STM32Cube_FW_N6/Drivers/STM32N6xx_HAL_Driver/Src/stm32n6xx_hal_cacheaxi.c ****   HAL_StatusTypeDef status = HAL_OK;
 985              		.loc 1 608 21
 986 0008 0023     		movs	r3, #0
 987 000a FB73     		strb	r3, [r7, #15]
 609:STM32Cube_FW_N6/Drivers/STM32N6xx_HAL_Driver/Src/stm32n6xx_hal_cacheaxi.c **** 
 610:STM32Cube_FW_N6/Drivers/STM32N6xx_HAL_Driver/Src/stm32n6xx_hal_cacheaxi.c ****   /* Check the cacheaxi handle allocation */
 611:STM32Cube_FW_N6/Drivers/STM32N6xx_HAL_Driver/Src/stm32n6xx_hal_cacheaxi.c ****   if (hcacheaxi == NULL)
 988              		.loc 1 611 6
 989 000c 7B68     		ldr	r3, [r7, #4]
 990 000e 002B     		cmp	r3, #0
 991 0010 01D1     		bne	.L65
 612:STM32Cube_FW_N6/Drivers/STM32N6xx_HAL_Driver/Src/stm32n6xx_hal_cacheaxi.c ****   {
ARM GAS  /tmp/cc4w16ub.s 			page 29


 613:STM32Cube_FW_N6/Drivers/STM32N6xx_HAL_Driver/Src/stm32n6xx_hal_cacheaxi.c ****     return HAL_ERROR;
 992              		.loc 1 613 12
 993 0012 0123     		movs	r3, #1
 994 0014 3DE0     		b	.L66
 995              	.L65:
 614:STM32Cube_FW_N6/Drivers/STM32N6xx_HAL_Driver/Src/stm32n6xx_hal_cacheaxi.c ****   }
 615:STM32Cube_FW_N6/Drivers/STM32N6xx_HAL_Driver/Src/stm32n6xx_hal_cacheaxi.c **** 
 616:STM32Cube_FW_N6/Drivers/STM32N6xx_HAL_Driver/Src/stm32n6xx_hal_cacheaxi.c ****   /* Check the parameters */
 617:STM32Cube_FW_N6/Drivers/STM32N6xx_HAL_Driver/Src/stm32n6xx_hal_cacheaxi.c ****   assert_param(IS_CACHEAXI_ALL_INSTANCE(hcacheaxi->Instance));
 996              		.loc 1 617 3
 997 0016 7B68     		ldr	r3, [r7, #4]
 998 0018 1B68     		ldr	r3, [r3]
 999 001a 204A     		ldr	r2, .L70
 1000 001c 9342     		cmp	r3, r2
 1001 001e 09D0     		beq	.L67
 1002              		.loc 1 617 3 is_stmt 0 discriminator 1
 1003 0020 7B68     		ldr	r3, [r7, #4]
 1004 0022 1B68     		ldr	r3, [r3]
 1005 0024 1E4A     		ldr	r2, .L70+4
 1006 0026 9342     		cmp	r3, r2
 1007 0028 04D0     		beq	.L67
 1008              		.loc 1 617 3 discriminator 2
 1009 002a 40F26921 		movw	r1, #617
 1010 002e 1D48     		ldr	r0, .L70+8
 1011 0030 FFF7FEFF 		bl	assert_failed
 1012              	.L67:
 618:STM32Cube_FW_N6/Drivers/STM32N6xx_HAL_Driver/Src/stm32n6xx_hal_cacheaxi.c **** 
 619:STM32Cube_FW_N6/Drivers/STM32N6xx_HAL_Driver/Src/stm32n6xx_hal_cacheaxi.c ****   /* Check no ongoing operation */
 620:STM32Cube_FW_N6/Drivers/STM32N6xx_HAL_Driver/Src/stm32n6xx_hal_cacheaxi.c ****   if (READ_BIT(hcacheaxi->Instance->SR, (CACHEAXI_SR_BUSYF | CACHEAXI_SR_BUSYCMDF)) != 0U)
 1013              		.loc 1 620 7 is_stmt 1
 1014 0034 7B68     		ldr	r3, [r7, #4]
 1015 0036 1B68     		ldr	r3, [r3]
 1016 0038 5B68     		ldr	r3, [r3, #4]
 1017 003a 03F00903 		and	r3, r3, #9
 1018              		.loc 1 620 6
 1019 003e 002B     		cmp	r3, #0
 1020 0040 02D0     		beq	.L68
 621:STM32Cube_FW_N6/Drivers/STM32N6xx_HAL_Driver/Src/stm32n6xx_hal_cacheaxi.c ****   {
 622:STM32Cube_FW_N6/Drivers/STM32N6xx_HAL_Driver/Src/stm32n6xx_hal_cacheaxi.c ****     /* Return busy status */
 623:STM32Cube_FW_N6/Drivers/STM32N6xx_HAL_Driver/Src/stm32n6xx_hal_cacheaxi.c ****     status =  HAL_BUSY;
 1021              		.loc 1 623 12
 1022 0042 0223     		movs	r3, #2
 1023 0044 FB73     		strb	r3, [r7, #15]
 1024 0046 23E0     		b	.L69
 1025              	.L68:
 624:STM32Cube_FW_N6/Drivers/STM32N6xx_HAL_Driver/Src/stm32n6xx_hal_cacheaxi.c ****   }
 625:STM32Cube_FW_N6/Drivers/STM32N6xx_HAL_Driver/Src/stm32n6xx_hal_cacheaxi.c ****   else
 626:STM32Cube_FW_N6/Drivers/STM32N6xx_HAL_Driver/Src/stm32n6xx_hal_cacheaxi.c ****   {
 627:STM32Cube_FW_N6/Drivers/STM32N6xx_HAL_Driver/Src/stm32n6xx_hal_cacheaxi.c ****     /* Update the error code */
 628:STM32Cube_FW_N6/Drivers/STM32N6xx_HAL_Driver/Src/stm32n6xx_hal_cacheaxi.c ****     hcacheaxi->ErrorCode = HAL_CACHEAXI_ERROR_NONE;
 1026              		.loc 1 628 26
 1027 0048 7B68     		ldr	r3, [r7, #4]
 1028 004a 0022     		movs	r2, #0
 1029 004c 9A60     		str	r2, [r3, #8]
 629:STM32Cube_FW_N6/Drivers/STM32N6xx_HAL_Driver/Src/stm32n6xx_hal_cacheaxi.c **** 
 630:STM32Cube_FW_N6/Drivers/STM32N6xx_HAL_Driver/Src/stm32n6xx_hal_cacheaxi.c ****     /* Change CACHEAXI Handle state */
 631:STM32Cube_FW_N6/Drivers/STM32N6xx_HAL_Driver/Src/stm32n6xx_hal_cacheaxi.c ****     hcacheaxi->State = HAL_CACHEAXI_STATE_READY;
ARM GAS  /tmp/cc4w16ub.s 			page 30


 1030              		.loc 1 631 22
 1031 004e 7B68     		ldr	r3, [r7, #4]
 1032 0050 0122     		movs	r2, #1
 1033 0052 1A71     		strb	r2, [r3, #4]
 632:STM32Cube_FW_N6/Drivers/STM32N6xx_HAL_Driver/Src/stm32n6xx_hal_cacheaxi.c **** 
 633:STM32Cube_FW_N6/Drivers/STM32N6xx_HAL_Driver/Src/stm32n6xx_hal_cacheaxi.c ****     /* Make sure BSYENDF is reset */
 634:STM32Cube_FW_N6/Drivers/STM32N6xx_HAL_Driver/Src/stm32n6xx_hal_cacheaxi.c ****     WRITE_REG(hcacheaxi->Instance->FCR, (CACHEAXI_FCR_CBSYENDF | CACHEAXI_FCR_CCMDENDF));
 1034              		.loc 1 634 5
 1035 0054 7B68     		ldr	r3, [r7, #4]
 1036 0056 1B68     		ldr	r3, [r3]
 1037 0058 1222     		movs	r2, #18
 1038 005a DA60     		str	r2, [r3, #12]
 635:STM32Cube_FW_N6/Drivers/STM32N6xx_HAL_Driver/Src/stm32n6xx_hal_cacheaxi.c **** 
 636:STM32Cube_FW_N6/Drivers/STM32N6xx_HAL_Driver/Src/stm32n6xx_hal_cacheaxi.c ****     /* Set no operation on address range for callback under interrupt */
 637:STM32Cube_FW_N6/Drivers/STM32N6xx_HAL_Driver/Src/stm32n6xx_hal_cacheaxi.c ****     MODIFY_REG(hcacheaxi->Instance->CR2, CACHEAXI_CR2_CACHECMD, 0U);
 1039              		.loc 1 637 5
 1040 005c 7B68     		ldr	r3, [r7, #4]
 1041 005e 1B68     		ldr	r3, [r3]
 1042 0060 D3F80021 		ldr	r2, [r3, #256]
 1043 0064 7B68     		ldr	r3, [r7, #4]
 1044 0066 1B68     		ldr	r3, [r3]
 1045 0068 22F00602 		bic	r2, r2, #6
 1046 006c C3F80021 		str	r2, [r3, #256]
 638:STM32Cube_FW_N6/Drivers/STM32N6xx_HAL_Driver/Src/stm32n6xx_hal_cacheaxi.c **** 
 639:STM32Cube_FW_N6/Drivers/STM32N6xx_HAL_Driver/Src/stm32n6xx_hal_cacheaxi.c ****     /* Enable end of cache invalidation interrupt */
 640:STM32Cube_FW_N6/Drivers/STM32N6xx_HAL_Driver/Src/stm32n6xx_hal_cacheaxi.c ****     SET_BIT(hcacheaxi->Instance->IER, CACHEAXI_IER_BSYENDIE);
 1047              		.loc 1 640 5
 1048 0070 7B68     		ldr	r3, [r7, #4]
 1049 0072 1B68     		ldr	r3, [r3]
 1050 0074 9A68     		ldr	r2, [r3, #8]
 1051 0076 7B68     		ldr	r3, [r7, #4]
 1052 0078 1B68     		ldr	r3, [r3]
 1053 007a 42F00202 		orr	r2, r2, #2
 1054 007e 9A60     		str	r2, [r3, #8]
 641:STM32Cube_FW_N6/Drivers/STM32N6xx_HAL_Driver/Src/stm32n6xx_hal_cacheaxi.c **** 
 642:STM32Cube_FW_N6/Drivers/STM32N6xx_HAL_Driver/Src/stm32n6xx_hal_cacheaxi.c ****     /* Launch cache invalidation */
 643:STM32Cube_FW_N6/Drivers/STM32N6xx_HAL_Driver/Src/stm32n6xx_hal_cacheaxi.c ****     SET_BIT(hcacheaxi->Instance->CR1, CACHEAXI_CR1_CACHEINV);
 1055              		.loc 1 643 5
 1056 0080 7B68     		ldr	r3, [r7, #4]
 1057 0082 1B68     		ldr	r3, [r3]
 1058 0084 1A68     		ldr	r2, [r3]
 1059 0086 7B68     		ldr	r3, [r7, #4]
 1060 0088 1B68     		ldr	r3, [r3]
 1061 008a 42F00202 		orr	r2, r2, #2
 1062 008e 1A60     		str	r2, [r3]
 1063              	.L69:
 644:STM32Cube_FW_N6/Drivers/STM32N6xx_HAL_Driver/Src/stm32n6xx_hal_cacheaxi.c ****   }
 645:STM32Cube_FW_N6/Drivers/STM32N6xx_HAL_Driver/Src/stm32n6xx_hal_cacheaxi.c **** 
 646:STM32Cube_FW_N6/Drivers/STM32N6xx_HAL_Driver/Src/stm32n6xx_hal_cacheaxi.c ****   return status;
 1064              		.loc 1 646 10
 1065 0090 FB7B     		ldrb	r3, [r7, #15]	@ zero_extendqisi2
 1066              	.L66:
 647:STM32Cube_FW_N6/Drivers/STM32N6xx_HAL_Driver/Src/stm32n6xx_hal_cacheaxi.c **** }
 1067              		.loc 1 647 1
 1068 0092 1846     		mov	r0, r3
 1069 0094 1037     		adds	r7, r7, #16
 1070              		.cfi_def_cfa_offset 8
ARM GAS  /tmp/cc4w16ub.s 			page 31


 1071 0096 BD46     		mov	sp, r7
 1072              		.cfi_def_cfa_register 13
 1073              		@ sp needed
 1074 0098 80BD     		pop	{r7, pc}
 1075              	.L71:
 1076 009a 00BF     		.align	2
 1077              	.L70:
 1078 009c 00FC0D58 		.word	1477311488
 1079 00a0 00FC0D48 		.word	1208876032
 1080 00a4 00000000 		.word	.LC0
 1081              		.cfi_endproc
 1082              	.LFE845:
 1084              		.section	.text.HAL_CACHEAXI_CleanByAddr_IT,"ax",%progbits
 1085              		.align	1
 1086              		.global	HAL_CACHEAXI_CleanByAddr_IT
 1087              		.syntax unified
 1088              		.thumb
 1089              		.thumb_func
 1091              	HAL_CACHEAXI_CleanByAddr_IT:
 1092              	.LFB846:
 648:STM32Cube_FW_N6/Drivers/STM32N6xx_HAL_Driver/Src/stm32n6xx_hal_cacheaxi.c **** 
 649:STM32Cube_FW_N6/Drivers/STM32N6xx_HAL_Driver/Src/stm32n6xx_hal_cacheaxi.c **** /**
 650:STM32Cube_FW_N6/Drivers/STM32N6xx_HAL_Driver/Src/stm32n6xx_hal_cacheaxi.c ****   * @brief  Clean the Data cache by Addr with interrupt.
 651:STM32Cube_FW_N6/Drivers/STM32N6xx_HAL_Driver/Src/stm32n6xx_hal_cacheaxi.c ****   * @param  hcacheaxi Pointer to a CACHEAXI_HandleTypeDef structure that contains
 652:STM32Cube_FW_N6/Drivers/STM32N6xx_HAL_Driver/Src/stm32n6xx_hal_cacheaxi.c ****   *                   the configuration information for the specified CACHEAXIx peripheral.
 653:STM32Cube_FW_N6/Drivers/STM32N6xx_HAL_Driver/Src/stm32n6xx_hal_cacheaxi.c ****   * @param  pAddr Start address of the region to be Cleaned
 654:STM32Cube_FW_N6/Drivers/STM32N6xx_HAL_Driver/Src/stm32n6xx_hal_cacheaxi.c ****   * @param  dSize Size of the region to be Cleaned
 655:STM32Cube_FW_N6/Drivers/STM32N6xx_HAL_Driver/Src/stm32n6xx_hal_cacheaxi.c ****   * @note   This function launches maintenance operation and returns immediately.
 656:STM32Cube_FW_N6/Drivers/STM32N6xx_HAL_Driver/Src/stm32n6xx_hal_cacheaxi.c ****   *         User application shall resort to interrupt generation to check
 657:STM32Cube_FW_N6/Drivers/STM32N6xx_HAL_Driver/Src/stm32n6xx_hal_cacheaxi.c ****   *         the end of operation.
 658:STM32Cube_FW_N6/Drivers/STM32N6xx_HAL_Driver/Src/stm32n6xx_hal_cacheaxi.c ****   * @retval HAL status
 659:STM32Cube_FW_N6/Drivers/STM32N6xx_HAL_Driver/Src/stm32n6xx_hal_cacheaxi.c ****   */
 660:STM32Cube_FW_N6/Drivers/STM32N6xx_HAL_Driver/Src/stm32n6xx_hal_cacheaxi.c **** HAL_StatusTypeDef HAL_CACHEAXI_CleanByAddr_IT(CACHEAXI_HandleTypeDef *hcacheaxi, const uint32_t *co
 661:STM32Cube_FW_N6/Drivers/STM32N6xx_HAL_Driver/Src/stm32n6xx_hal_cacheaxi.c ****                                               uint32_t dSize)
 662:STM32Cube_FW_N6/Drivers/STM32N6xx_HAL_Driver/Src/stm32n6xx_hal_cacheaxi.c **** {
 1093              		.loc 1 662 1
 1094              		.cfi_startproc
 1095              		@ args = 0, pretend = 0, frame = 24
 1096              		@ frame_needed = 1, uses_anonymous_args = 0
 1097 0000 80B5     		push	{r7, lr}
 1098              		.cfi_def_cfa_offset 8
 1099              		.cfi_offset 7, -8
 1100              		.cfi_offset 14, -4
 1101 0002 88B0     		sub	sp, sp, #32
 1102              		.cfi_def_cfa_offset 40
 1103 0004 02AF     		add	r7, sp, #8
 1104              		.cfi_def_cfa 7, 32
 1105 0006 F860     		str	r0, [r7, #12]
 1106 0008 B960     		str	r1, [r7, #8]
 1107 000a 7A60     		str	r2, [r7, #4]
 663:STM32Cube_FW_N6/Drivers/STM32N6xx_HAL_Driver/Src/stm32n6xx_hal_cacheaxi.c ****   HAL_StatusTypeDef status;
 664:STM32Cube_FW_N6/Drivers/STM32N6xx_HAL_Driver/Src/stm32n6xx_hal_cacheaxi.c **** 
 665:STM32Cube_FW_N6/Drivers/STM32N6xx_HAL_Driver/Src/stm32n6xx_hal_cacheaxi.c ****   /* Check the cacheaxi handle allocation */
 666:STM32Cube_FW_N6/Drivers/STM32N6xx_HAL_Driver/Src/stm32n6xx_hal_cacheaxi.c ****   if (hcacheaxi == NULL)
 1108              		.loc 1 666 6
 1109 000c FB68     		ldr	r3, [r7, #12]
 1110 000e 002B     		cmp	r3, #0
ARM GAS  /tmp/cc4w16ub.s 			page 32


 1111 0010 01D1     		bne	.L73
 667:STM32Cube_FW_N6/Drivers/STM32N6xx_HAL_Driver/Src/stm32n6xx_hal_cacheaxi.c ****   {
 668:STM32Cube_FW_N6/Drivers/STM32N6xx_HAL_Driver/Src/stm32n6xx_hal_cacheaxi.c ****     return HAL_ERROR;
 1112              		.loc 1 668 12
 1113 0012 0123     		movs	r3, #1
 1114 0014 21E0     		b	.L74
 1115              	.L73:
 669:STM32Cube_FW_N6/Drivers/STM32N6xx_HAL_Driver/Src/stm32n6xx_hal_cacheaxi.c ****   }
 670:STM32Cube_FW_N6/Drivers/STM32N6xx_HAL_Driver/Src/stm32n6xx_hal_cacheaxi.c **** 
 671:STM32Cube_FW_N6/Drivers/STM32N6xx_HAL_Driver/Src/stm32n6xx_hal_cacheaxi.c ****   /* Check the parameters */
 672:STM32Cube_FW_N6/Drivers/STM32N6xx_HAL_Driver/Src/stm32n6xx_hal_cacheaxi.c ****   assert_param(IS_CACHEAXI_ALL_INSTANCE(hcacheaxi->Instance));
 1116              		.loc 1 672 3
 1117 0016 FB68     		ldr	r3, [r7, #12]
 1118 0018 1B68     		ldr	r3, [r3]
 1119 001a 124A     		ldr	r2, .L77
 1120 001c 9342     		cmp	r3, r2
 1121 001e 09D0     		beq	.L75
 1122              		.loc 1 672 3 is_stmt 0 discriminator 1
 1123 0020 FB68     		ldr	r3, [r7, #12]
 1124 0022 1B68     		ldr	r3, [r3]
 1125 0024 104A     		ldr	r2, .L77+4
 1126 0026 9342     		cmp	r3, r2
 1127 0028 04D0     		beq	.L75
 1128              		.loc 1 672 3 discriminator 2
 1129 002a 4FF42871 		mov	r1, #672
 1130 002e 0F48     		ldr	r0, .L77+8
 1131 0030 FFF7FEFF 		bl	assert_failed
 1132              	.L75:
 673:STM32Cube_FW_N6/Drivers/STM32N6xx_HAL_Driver/Src/stm32n6xx_hal_cacheaxi.c ****   assert_param(IS_CACHEAXI_REGION_SIZE(dSize));
 1133              		.loc 1 673 3 is_stmt 1
 1134 0034 7B68     		ldr	r3, [r7, #4]
 1135 0036 002B     		cmp	r3, #0
 1136 0038 04D1     		bne	.L76
 1137              		.loc 1 673 3 is_stmt 0 discriminator 1
 1138 003a 40F2A121 		movw	r1, #673
 1139 003e 0B48     		ldr	r0, .L77+8
 1140 0040 FFF7FEFF 		bl	assert_failed
 1141              	.L76:
 674:STM32Cube_FW_N6/Drivers/STM32N6xx_HAL_Driver/Src/stm32n6xx_hal_cacheaxi.c **** 
 675:STM32Cube_FW_N6/Drivers/STM32N6xx_HAL_Driver/Src/stm32n6xx_hal_cacheaxi.c ****   status = CACHEAXI_CommandByAddr(hcacheaxi, CACHEAXI_COMMAND_CLEAN, pAddr, dSize, CACHEAXI_IT_MODE
 1142              		.loc 1 675 12 is_stmt 1
 1143 0044 0123     		movs	r3, #1
 1144 0046 0093     		str	r3, [sp]
 1145 0048 7B68     		ldr	r3, [r7, #4]
 1146 004a BA68     		ldr	r2, [r7, #8]
 1147 004c 0221     		movs	r1, #2
 1148 004e F868     		ldr	r0, [r7, #12]
 1149 0050 FFF7FEFF 		bl	CACHEAXI_CommandByAddr
 1150 0054 0346     		mov	r3, r0
 1151 0056 FB75     		strb	r3, [r7, #23]
 676:STM32Cube_FW_N6/Drivers/STM32N6xx_HAL_Driver/Src/stm32n6xx_hal_cacheaxi.c **** 
 677:STM32Cube_FW_N6/Drivers/STM32N6xx_HAL_Driver/Src/stm32n6xx_hal_cacheaxi.c ****   return status;
 1152              		.loc 1 677 10
 1153 0058 FB7D     		ldrb	r3, [r7, #23]	@ zero_extendqisi2
 1154              	.L74:
 678:STM32Cube_FW_N6/Drivers/STM32N6xx_HAL_Driver/Src/stm32n6xx_hal_cacheaxi.c **** }
 1155              		.loc 1 678 1
ARM GAS  /tmp/cc4w16ub.s 			page 33


 1156 005a 1846     		mov	r0, r3
 1157 005c 1837     		adds	r7, r7, #24
 1158              		.cfi_def_cfa_offset 8
 1159 005e BD46     		mov	sp, r7
 1160              		.cfi_def_cfa_register 13
 1161              		@ sp needed
 1162 0060 80BD     		pop	{r7, pc}
 1163              	.L78:
 1164 0062 00BF     		.align	2
 1165              	.L77:
 1166 0064 00FC0D58 		.word	1477311488
 1167 0068 00FC0D48 		.word	1208876032
 1168 006c 00000000 		.word	.LC0
 1169              		.cfi_endproc
 1170              	.LFE846:
 1172              		.section	.text.HAL_CACHEAXI_CleanInvalidByAddr_IT,"ax",%progbits
 1173              		.align	1
 1174              		.global	HAL_CACHEAXI_CleanInvalidByAddr_IT
 1175              		.syntax unified
 1176              		.thumb
 1177              		.thumb_func
 1179              	HAL_CACHEAXI_CleanInvalidByAddr_IT:
 1180              	.LFB847:
 679:STM32Cube_FW_N6/Drivers/STM32N6xx_HAL_Driver/Src/stm32n6xx_hal_cacheaxi.c **** 
 680:STM32Cube_FW_N6/Drivers/STM32N6xx_HAL_Driver/Src/stm32n6xx_hal_cacheaxi.c **** /**
 681:STM32Cube_FW_N6/Drivers/STM32N6xx_HAL_Driver/Src/stm32n6xx_hal_cacheaxi.c ****   * @brief  Clean and Invalidate the Data cache by Addr with interrupt.
 682:STM32Cube_FW_N6/Drivers/STM32N6xx_HAL_Driver/Src/stm32n6xx_hal_cacheaxi.c ****   * @param  hcacheaxi Pointer to a CACHEAXI_HandleTypeDef structure that contains
 683:STM32Cube_FW_N6/Drivers/STM32N6xx_HAL_Driver/Src/stm32n6xx_hal_cacheaxi.c ****   *                   the configuration information for the specified CACHEAXIx peripheral.
 684:STM32Cube_FW_N6/Drivers/STM32N6xx_HAL_Driver/Src/stm32n6xx_hal_cacheaxi.c ****   * @param  pAddr Start address of the region to be Cleaned and Invalidated
 685:STM32Cube_FW_N6/Drivers/STM32N6xx_HAL_Driver/Src/stm32n6xx_hal_cacheaxi.c ****   * @param  dSize Size of the region to be Cleaned and Invalidated
 686:STM32Cube_FW_N6/Drivers/STM32N6xx_HAL_Driver/Src/stm32n6xx_hal_cacheaxi.c ****   * @note   This function launches maintenance operation and returns immediately.
 687:STM32Cube_FW_N6/Drivers/STM32N6xx_HAL_Driver/Src/stm32n6xx_hal_cacheaxi.c ****   *         User application shall resort to interrupt generation to check
 688:STM32Cube_FW_N6/Drivers/STM32N6xx_HAL_Driver/Src/stm32n6xx_hal_cacheaxi.c ****   *         the end of operation.
 689:STM32Cube_FW_N6/Drivers/STM32N6xx_HAL_Driver/Src/stm32n6xx_hal_cacheaxi.c ****   * @retval HAL status
 690:STM32Cube_FW_N6/Drivers/STM32N6xx_HAL_Driver/Src/stm32n6xx_hal_cacheaxi.c ****   */
 691:STM32Cube_FW_N6/Drivers/STM32N6xx_HAL_Driver/Src/stm32n6xx_hal_cacheaxi.c **** HAL_StatusTypeDef HAL_CACHEAXI_CleanInvalidByAddr_IT(CACHEAXI_HandleTypeDef *hcacheaxi, const uint3
 692:STM32Cube_FW_N6/Drivers/STM32N6xx_HAL_Driver/Src/stm32n6xx_hal_cacheaxi.c ****                                                      uint32_t dSize)
 693:STM32Cube_FW_N6/Drivers/STM32N6xx_HAL_Driver/Src/stm32n6xx_hal_cacheaxi.c **** {
 1181              		.loc 1 693 1
 1182              		.cfi_startproc
 1183              		@ args = 0, pretend = 0, frame = 24
 1184              		@ frame_needed = 1, uses_anonymous_args = 0
 1185 0000 80B5     		push	{r7, lr}
 1186              		.cfi_def_cfa_offset 8
 1187              		.cfi_offset 7, -8
 1188              		.cfi_offset 14, -4
 1189 0002 88B0     		sub	sp, sp, #32
 1190              		.cfi_def_cfa_offset 40
 1191 0004 02AF     		add	r7, sp, #8
 1192              		.cfi_def_cfa 7, 32
 1193 0006 F860     		str	r0, [r7, #12]
 1194 0008 B960     		str	r1, [r7, #8]
 1195 000a 7A60     		str	r2, [r7, #4]
 694:STM32Cube_FW_N6/Drivers/STM32N6xx_HAL_Driver/Src/stm32n6xx_hal_cacheaxi.c ****   HAL_StatusTypeDef status;
 695:STM32Cube_FW_N6/Drivers/STM32N6xx_HAL_Driver/Src/stm32n6xx_hal_cacheaxi.c **** 
 696:STM32Cube_FW_N6/Drivers/STM32N6xx_HAL_Driver/Src/stm32n6xx_hal_cacheaxi.c ****   /* Check the cacheaxi handle allocation */
 697:STM32Cube_FW_N6/Drivers/STM32N6xx_HAL_Driver/Src/stm32n6xx_hal_cacheaxi.c ****   if (hcacheaxi == NULL)
ARM GAS  /tmp/cc4w16ub.s 			page 34


 1196              		.loc 1 697 6
 1197 000c FB68     		ldr	r3, [r7, #12]
 1198 000e 002B     		cmp	r3, #0
 1199 0010 01D1     		bne	.L80
 698:STM32Cube_FW_N6/Drivers/STM32N6xx_HAL_Driver/Src/stm32n6xx_hal_cacheaxi.c ****   {
 699:STM32Cube_FW_N6/Drivers/STM32N6xx_HAL_Driver/Src/stm32n6xx_hal_cacheaxi.c ****     return HAL_ERROR;
 1200              		.loc 1 699 12
 1201 0012 0123     		movs	r3, #1
 1202 0014 21E0     		b	.L81
 1203              	.L80:
 700:STM32Cube_FW_N6/Drivers/STM32N6xx_HAL_Driver/Src/stm32n6xx_hal_cacheaxi.c ****   }
 701:STM32Cube_FW_N6/Drivers/STM32N6xx_HAL_Driver/Src/stm32n6xx_hal_cacheaxi.c **** 
 702:STM32Cube_FW_N6/Drivers/STM32N6xx_HAL_Driver/Src/stm32n6xx_hal_cacheaxi.c ****   /* Check the parameters */
 703:STM32Cube_FW_N6/Drivers/STM32N6xx_HAL_Driver/Src/stm32n6xx_hal_cacheaxi.c ****   assert_param(IS_CACHEAXI_ALL_INSTANCE(hcacheaxi->Instance));
 1204              		.loc 1 703 3
 1205 0016 FB68     		ldr	r3, [r7, #12]
 1206 0018 1B68     		ldr	r3, [r3]
 1207 001a 124A     		ldr	r2, .L84
 1208 001c 9342     		cmp	r3, r2
 1209 001e 09D0     		beq	.L82
 1210              		.loc 1 703 3 is_stmt 0 discriminator 1
 1211 0020 FB68     		ldr	r3, [r7, #12]
 1212 0022 1B68     		ldr	r3, [r3]
 1213 0024 104A     		ldr	r2, .L84+4
 1214 0026 9342     		cmp	r3, r2
 1215 0028 04D0     		beq	.L82
 1216              		.loc 1 703 3 discriminator 2
 1217 002a 40F2BF21 		movw	r1, #703
 1218 002e 0F48     		ldr	r0, .L84+8
 1219 0030 FFF7FEFF 		bl	assert_failed
 1220              	.L82:
 704:STM32Cube_FW_N6/Drivers/STM32N6xx_HAL_Driver/Src/stm32n6xx_hal_cacheaxi.c ****   assert_param(IS_CACHEAXI_REGION_SIZE(dSize));
 1221              		.loc 1 704 3 is_stmt 1
 1222 0034 7B68     		ldr	r3, [r7, #4]
 1223 0036 002B     		cmp	r3, #0
 1224 0038 04D1     		bne	.L83
 1225              		.loc 1 704 3 is_stmt 0 discriminator 1
 1226 003a 4FF43071 		mov	r1, #704
 1227 003e 0B48     		ldr	r0, .L84+8
 1228 0040 FFF7FEFF 		bl	assert_failed
 1229              	.L83:
 705:STM32Cube_FW_N6/Drivers/STM32N6xx_HAL_Driver/Src/stm32n6xx_hal_cacheaxi.c **** 
 706:STM32Cube_FW_N6/Drivers/STM32N6xx_HAL_Driver/Src/stm32n6xx_hal_cacheaxi.c ****   status = CACHEAXI_CommandByAddr(hcacheaxi, CACHEAXI_COMMAND_CLEAN_INVALIDATE, pAddr, dSize, CACHE
 1230              		.loc 1 706 12 is_stmt 1
 1231 0044 0123     		movs	r3, #1
 1232 0046 0093     		str	r3, [sp]
 1233 0048 7B68     		ldr	r3, [r7, #4]
 1234 004a BA68     		ldr	r2, [r7, #8]
 1235 004c 0621     		movs	r1, #6
 1236 004e F868     		ldr	r0, [r7, #12]
 1237 0050 FFF7FEFF 		bl	CACHEAXI_CommandByAddr
 1238 0054 0346     		mov	r3, r0
 1239 0056 FB75     		strb	r3, [r7, #23]
 707:STM32Cube_FW_N6/Drivers/STM32N6xx_HAL_Driver/Src/stm32n6xx_hal_cacheaxi.c **** 
 708:STM32Cube_FW_N6/Drivers/STM32N6xx_HAL_Driver/Src/stm32n6xx_hal_cacheaxi.c ****   return status;
 1240              		.loc 1 708 10
 1241 0058 FB7D     		ldrb	r3, [r7, #23]	@ zero_extendqisi2
ARM GAS  /tmp/cc4w16ub.s 			page 35


 1242              	.L81:
 709:STM32Cube_FW_N6/Drivers/STM32N6xx_HAL_Driver/Src/stm32n6xx_hal_cacheaxi.c **** }
 1243              		.loc 1 709 1
 1244 005a 1846     		mov	r0, r3
 1245 005c 1837     		adds	r7, r7, #24
 1246              		.cfi_def_cfa_offset 8
 1247 005e BD46     		mov	sp, r7
 1248              		.cfi_def_cfa_register 13
 1249              		@ sp needed
 1250 0060 80BD     		pop	{r7, pc}
 1251              	.L85:
 1252 0062 00BF     		.align	2
 1253              	.L84:
 1254 0064 00FC0D58 		.word	1477311488
 1255 0068 00FC0D48 		.word	1208876032
 1256 006c 00000000 		.word	.LC0
 1257              		.cfi_endproc
 1258              	.LFE847:
 1260              		.section	.text.HAL_CACHEAXI_Monitor_Start,"ax",%progbits
 1261              		.align	1
 1262              		.global	HAL_CACHEAXI_Monitor_Start
 1263              		.syntax unified
 1264              		.thumb
 1265              		.thumb_func
 1267              	HAL_CACHEAXI_Monitor_Start:
 1268              	.LFB848:
 710:STM32Cube_FW_N6/Drivers/STM32N6xx_HAL_Driver/Src/stm32n6xx_hal_cacheaxi.c **** 
 711:STM32Cube_FW_N6/Drivers/STM32N6xx_HAL_Driver/Src/stm32n6xx_hal_cacheaxi.c **** /**
 712:STM32Cube_FW_N6/Drivers/STM32N6xx_HAL_Driver/Src/stm32n6xx_hal_cacheaxi.c ****   * @brief  Start the CACHEAXI performance monitoring.
 713:STM32Cube_FW_N6/Drivers/STM32N6xx_HAL_Driver/Src/stm32n6xx_hal_cacheaxi.c ****   * @param  hcacheaxi Pointer to a CACHEAXI_HandleTypeDef structure that contains
 714:STM32Cube_FW_N6/Drivers/STM32N6xx_HAL_Driver/Src/stm32n6xx_hal_cacheaxi.c ****   *                   the configuration information for the specified CACHEAXIx peripheral.
 715:STM32Cube_FW_N6/Drivers/STM32N6xx_HAL_Driver/Src/stm32n6xx_hal_cacheaxi.c ****   * @param  MonitorType Monitoring type
 716:STM32Cube_FW_N6/Drivers/STM32N6xx_HAL_Driver/Src/stm32n6xx_hal_cacheaxi.c ****   *         This parameter can be a combination of the following values:
 717:STM32Cube_FW_N6/Drivers/STM32N6xx_HAL_Driver/Src/stm32n6xx_hal_cacheaxi.c ****   *            @arg CACHEAXI_MONITOR_READ_HIT
 718:STM32Cube_FW_N6/Drivers/STM32N6xx_HAL_Driver/Src/stm32n6xx_hal_cacheaxi.c ****   *            @arg CACHEAXI_MONITOR_READ_MISS
 719:STM32Cube_FW_N6/Drivers/STM32N6xx_HAL_Driver/Src/stm32n6xx_hal_cacheaxi.c ****   *            @arg CACHEAXI_MONITOR_WRITE_HIT
 720:STM32Cube_FW_N6/Drivers/STM32N6xx_HAL_Driver/Src/stm32n6xx_hal_cacheaxi.c ****   *            @arg CACHEAXI_MONITOR_WRITE_MISS
 721:STM32Cube_FW_N6/Drivers/STM32N6xx_HAL_Driver/Src/stm32n6xx_hal_cacheaxi.c ****   *            @arg CACHEAXI_MONITOR_READALLOC_MISS
 722:STM32Cube_FW_N6/Drivers/STM32N6xx_HAL_Driver/Src/stm32n6xx_hal_cacheaxi.c ****   *            @arg CACHEAXI_MONITOR_WRITEALLOC_MISS
 723:STM32Cube_FW_N6/Drivers/STM32N6xx_HAL_Driver/Src/stm32n6xx_hal_cacheaxi.c ****   *            @arg CACHEAXI_MONITOR_WRITETHROUGH
 724:STM32Cube_FW_N6/Drivers/STM32N6xx_HAL_Driver/Src/stm32n6xx_hal_cacheaxi.c ****   *            @arg CACHEAXI_MONITOR_EVICTION
 725:STM32Cube_FW_N6/Drivers/STM32N6xx_HAL_Driver/Src/stm32n6xx_hal_cacheaxi.c ****   *            @arg CACHEAXI_MONITOR_ALL
 726:STM32Cube_FW_N6/Drivers/STM32N6xx_HAL_Driver/Src/stm32n6xx_hal_cacheaxi.c ****   * @retval HAL status
 727:STM32Cube_FW_N6/Drivers/STM32N6xx_HAL_Driver/Src/stm32n6xx_hal_cacheaxi.c ****   */
 728:STM32Cube_FW_N6/Drivers/STM32N6xx_HAL_Driver/Src/stm32n6xx_hal_cacheaxi.c **** HAL_StatusTypeDef HAL_CACHEAXI_Monitor_Start(CACHEAXI_HandleTypeDef *hcacheaxi, uint32_t MonitorTyp
 729:STM32Cube_FW_N6/Drivers/STM32N6xx_HAL_Driver/Src/stm32n6xx_hal_cacheaxi.c **** {
 1269              		.loc 1 729 1
 1270              		.cfi_startproc
 1271              		@ args = 0, pretend = 0, frame = 8
 1272              		@ frame_needed = 1, uses_anonymous_args = 0
 1273 0000 80B5     		push	{r7, lr}
 1274              		.cfi_def_cfa_offset 8
 1275              		.cfi_offset 7, -8
 1276              		.cfi_offset 14, -4
 1277 0002 82B0     		sub	sp, sp, #8
 1278              		.cfi_def_cfa_offset 16
 1279 0004 00AF     		add	r7, sp, #0
ARM GAS  /tmp/cc4w16ub.s 			page 36


 1280              		.cfi_def_cfa_register 7
 1281 0006 7860     		str	r0, [r7, #4]
 1282 0008 3960     		str	r1, [r7]
 730:STM32Cube_FW_N6/Drivers/STM32N6xx_HAL_Driver/Src/stm32n6xx_hal_cacheaxi.c ****   /* Check the cacheaxi handle allocation */
 731:STM32Cube_FW_N6/Drivers/STM32N6xx_HAL_Driver/Src/stm32n6xx_hal_cacheaxi.c ****   if (hcacheaxi == NULL)
 1283              		.loc 1 731 6
 1284 000a 7B68     		ldr	r3, [r7, #4]
 1285 000c 002B     		cmp	r3, #0
 1286 000e 01D1     		bne	.L87
 732:STM32Cube_FW_N6/Drivers/STM32N6xx_HAL_Driver/Src/stm32n6xx_hal_cacheaxi.c ****   {
 733:STM32Cube_FW_N6/Drivers/STM32N6xx_HAL_Driver/Src/stm32n6xx_hal_cacheaxi.c ****     return HAL_ERROR;
 1287              		.loc 1 733 12
 1288 0010 0123     		movs	r3, #1
 1289 0012 23E0     		b	.L88
 1290              	.L87:
 734:STM32Cube_FW_N6/Drivers/STM32N6xx_HAL_Driver/Src/stm32n6xx_hal_cacheaxi.c ****   }
 735:STM32Cube_FW_N6/Drivers/STM32N6xx_HAL_Driver/Src/stm32n6xx_hal_cacheaxi.c **** 
 736:STM32Cube_FW_N6/Drivers/STM32N6xx_HAL_Driver/Src/stm32n6xx_hal_cacheaxi.c ****   /* Check the parameters */
 737:STM32Cube_FW_N6/Drivers/STM32N6xx_HAL_Driver/Src/stm32n6xx_hal_cacheaxi.c ****   assert_param(IS_CACHEAXI_ALL_INSTANCE(hcacheaxi->Instance));
 1291              		.loc 1 737 3
 1292 0014 7B68     		ldr	r3, [r7, #4]
 1293 0016 1B68     		ldr	r3, [r3]
 1294 0018 124A     		ldr	r2, .L91
 1295 001a 9342     		cmp	r3, r2
 1296 001c 09D0     		beq	.L89
 1297              		.loc 1 737 3 is_stmt 0 discriminator 1
 1298 001e 7B68     		ldr	r3, [r7, #4]
 1299 0020 1B68     		ldr	r3, [r3]
 1300 0022 114A     		ldr	r2, .L91+4
 1301 0024 9342     		cmp	r3, r2
 1302 0026 04D0     		beq	.L89
 1303              		.loc 1 737 3 discriminator 2
 1304 0028 40F2E121 		movw	r1, #737
 1305 002c 0F48     		ldr	r0, .L91+8
 1306 002e FFF7FEFF 		bl	assert_failed
 1307              	.L89:
 738:STM32Cube_FW_N6/Drivers/STM32N6xx_HAL_Driver/Src/stm32n6xx_hal_cacheaxi.c ****   assert_param(IS_CACHEAXI_MONITOR_TYPE(MonitorType));
 1308              		.loc 1 738 3 is_stmt 1
 1309 0032 3B68     		ldr	r3, [r7]
 1310 0034 23F04C53 		bic	r3, r3, #855638016
 1311 0038 23F44C13 		bic	r3, r3, #3342336
 1312 003c 002B     		cmp	r3, #0
 1313 003e 04D0     		beq	.L90
 1314              		.loc 1 738 3 is_stmt 0 discriminator 1
 1315 0040 40F2E221 		movw	r1, #738
 1316 0044 0948     		ldr	r0, .L91+8
 1317 0046 FFF7FEFF 		bl	assert_failed
 1318              	.L90:
 739:STM32Cube_FW_N6/Drivers/STM32N6xx_HAL_Driver/Src/stm32n6xx_hal_cacheaxi.c **** 
 740:STM32Cube_FW_N6/Drivers/STM32N6xx_HAL_Driver/Src/stm32n6xx_hal_cacheaxi.c ****   SET_BIT(hcacheaxi->Instance->CR1, MonitorType);
 1319              		.loc 1 740 3 is_stmt 1
 1320 004a 7B68     		ldr	r3, [r7, #4]
 1321 004c 1B68     		ldr	r3, [r3]
 1322 004e 1968     		ldr	r1, [r3]
 1323 0050 7B68     		ldr	r3, [r7, #4]
 1324 0052 1B68     		ldr	r3, [r3]
 1325 0054 3A68     		ldr	r2, [r7]
ARM GAS  /tmp/cc4w16ub.s 			page 37


 1326 0056 0A43     		orrs	r2, r2, r1
 1327 0058 1A60     		str	r2, [r3]
 741:STM32Cube_FW_N6/Drivers/STM32N6xx_HAL_Driver/Src/stm32n6xx_hal_cacheaxi.c **** 
 742:STM32Cube_FW_N6/Drivers/STM32N6xx_HAL_Driver/Src/stm32n6xx_hal_cacheaxi.c ****   return HAL_OK;
 1328              		.loc 1 742 10
 1329 005a 0023     		movs	r3, #0
 1330              	.L88:
 743:STM32Cube_FW_N6/Drivers/STM32N6xx_HAL_Driver/Src/stm32n6xx_hal_cacheaxi.c **** }
 1331              		.loc 1 743 1
 1332 005c 1846     		mov	r0, r3
 1333 005e 0837     		adds	r7, r7, #8
 1334              		.cfi_def_cfa_offset 8
 1335 0060 BD46     		mov	sp, r7
 1336              		.cfi_def_cfa_register 13
 1337              		@ sp needed
 1338 0062 80BD     		pop	{r7, pc}
 1339              	.L92:
 1340              		.align	2
 1341              	.L91:
 1342 0064 00FC0D58 		.word	1477311488
 1343 0068 00FC0D48 		.word	1208876032
 1344 006c 00000000 		.word	.LC0
 1345              		.cfi_endproc
 1346              	.LFE848:
 1348              		.section	.text.HAL_CACHEAXI_Monitor_Stop,"ax",%progbits
 1349              		.align	1
 1350              		.global	HAL_CACHEAXI_Monitor_Stop
 1351              		.syntax unified
 1352              		.thumb
 1353              		.thumb_func
 1355              	HAL_CACHEAXI_Monitor_Stop:
 1356              	.LFB849:
 744:STM32Cube_FW_N6/Drivers/STM32N6xx_HAL_Driver/Src/stm32n6xx_hal_cacheaxi.c **** 
 745:STM32Cube_FW_N6/Drivers/STM32N6xx_HAL_Driver/Src/stm32n6xx_hal_cacheaxi.c **** /**
 746:STM32Cube_FW_N6/Drivers/STM32N6xx_HAL_Driver/Src/stm32n6xx_hal_cacheaxi.c ****   * @brief  Stop the CACHEAXI performance monitoring.
 747:STM32Cube_FW_N6/Drivers/STM32N6xx_HAL_Driver/Src/stm32n6xx_hal_cacheaxi.c ****   * @param  hcacheaxi Pointer to a CACHEAXI_HandleTypeDef structure that contains
 748:STM32Cube_FW_N6/Drivers/STM32N6xx_HAL_Driver/Src/stm32n6xx_hal_cacheaxi.c ****   *                   the configuration information for the specified CACHEAXIx peripheral.
 749:STM32Cube_FW_N6/Drivers/STM32N6xx_HAL_Driver/Src/stm32n6xx_hal_cacheaxi.c ****   * @note   Stopping the monitoring does not reset the values.
 750:STM32Cube_FW_N6/Drivers/STM32N6xx_HAL_Driver/Src/stm32n6xx_hal_cacheaxi.c ****   * @param  MonitorType Monitoring type
 751:STM32Cube_FW_N6/Drivers/STM32N6xx_HAL_Driver/Src/stm32n6xx_hal_cacheaxi.c ****   *         This parameter can be a combination of the following values:
 752:STM32Cube_FW_N6/Drivers/STM32N6xx_HAL_Driver/Src/stm32n6xx_hal_cacheaxi.c ****   *            @arg CACHEAXI_MONITOR_READ_HIT
 753:STM32Cube_FW_N6/Drivers/STM32N6xx_HAL_Driver/Src/stm32n6xx_hal_cacheaxi.c ****   *            @arg CACHEAXI_MONITOR_READ_MISS
 754:STM32Cube_FW_N6/Drivers/STM32N6xx_HAL_Driver/Src/stm32n6xx_hal_cacheaxi.c ****   *            @arg CACHEAXI_MONITOR_WRITE_HIT
 755:STM32Cube_FW_N6/Drivers/STM32N6xx_HAL_Driver/Src/stm32n6xx_hal_cacheaxi.c ****   *            @arg CACHEAXI_MONITOR_WRITE_MISS
 756:STM32Cube_FW_N6/Drivers/STM32N6xx_HAL_Driver/Src/stm32n6xx_hal_cacheaxi.c ****   *            @arg CACHEAXI_MONITOR_READALLOC_MISS
 757:STM32Cube_FW_N6/Drivers/STM32N6xx_HAL_Driver/Src/stm32n6xx_hal_cacheaxi.c ****   *            @arg CACHEAXI_MONITOR_WRITEALLOC_MISS
 758:STM32Cube_FW_N6/Drivers/STM32N6xx_HAL_Driver/Src/stm32n6xx_hal_cacheaxi.c ****   *            @arg CACHEAXI_MONITOR_WRITETHROUGH
 759:STM32Cube_FW_N6/Drivers/STM32N6xx_HAL_Driver/Src/stm32n6xx_hal_cacheaxi.c ****   *            @arg CACHEAXI_MONITOR_EVICTION
 760:STM32Cube_FW_N6/Drivers/STM32N6xx_HAL_Driver/Src/stm32n6xx_hal_cacheaxi.c ****   *            @arg CACHEAXI_MONITOR_ALL
 761:STM32Cube_FW_N6/Drivers/STM32N6xx_HAL_Driver/Src/stm32n6xx_hal_cacheaxi.c ****   * @retval HAL status
 762:STM32Cube_FW_N6/Drivers/STM32N6xx_HAL_Driver/Src/stm32n6xx_hal_cacheaxi.c ****   */
 763:STM32Cube_FW_N6/Drivers/STM32N6xx_HAL_Driver/Src/stm32n6xx_hal_cacheaxi.c **** HAL_StatusTypeDef HAL_CACHEAXI_Monitor_Stop(CACHEAXI_HandleTypeDef *hcacheaxi, uint32_t MonitorType
 764:STM32Cube_FW_N6/Drivers/STM32N6xx_HAL_Driver/Src/stm32n6xx_hal_cacheaxi.c **** {
 1357              		.loc 1 764 1
 1358              		.cfi_startproc
 1359              		@ args = 0, pretend = 0, frame = 8
 1360              		@ frame_needed = 1, uses_anonymous_args = 0
ARM GAS  /tmp/cc4w16ub.s 			page 38


 1361 0000 80B5     		push	{r7, lr}
 1362              		.cfi_def_cfa_offset 8
 1363              		.cfi_offset 7, -8
 1364              		.cfi_offset 14, -4
 1365 0002 82B0     		sub	sp, sp, #8
 1366              		.cfi_def_cfa_offset 16
 1367 0004 00AF     		add	r7, sp, #0
 1368              		.cfi_def_cfa_register 7
 1369 0006 7860     		str	r0, [r7, #4]
 1370 0008 3960     		str	r1, [r7]
 765:STM32Cube_FW_N6/Drivers/STM32N6xx_HAL_Driver/Src/stm32n6xx_hal_cacheaxi.c ****   /* Check the cacheaxi handle allocation */
 766:STM32Cube_FW_N6/Drivers/STM32N6xx_HAL_Driver/Src/stm32n6xx_hal_cacheaxi.c ****   if (hcacheaxi == NULL)
 1371              		.loc 1 766 6
 1372 000a 7B68     		ldr	r3, [r7, #4]
 1373 000c 002B     		cmp	r3, #0
 1374 000e 01D1     		bne	.L94
 767:STM32Cube_FW_N6/Drivers/STM32N6xx_HAL_Driver/Src/stm32n6xx_hal_cacheaxi.c ****   {
 768:STM32Cube_FW_N6/Drivers/STM32N6xx_HAL_Driver/Src/stm32n6xx_hal_cacheaxi.c ****     return HAL_ERROR;
 1375              		.loc 1 768 12
 1376 0010 0123     		movs	r3, #1
 1377 0012 24E0     		b	.L95
 1378              	.L94:
 769:STM32Cube_FW_N6/Drivers/STM32N6xx_HAL_Driver/Src/stm32n6xx_hal_cacheaxi.c ****   }
 770:STM32Cube_FW_N6/Drivers/STM32N6xx_HAL_Driver/Src/stm32n6xx_hal_cacheaxi.c **** 
 771:STM32Cube_FW_N6/Drivers/STM32N6xx_HAL_Driver/Src/stm32n6xx_hal_cacheaxi.c ****   /* Check the parameters */
 772:STM32Cube_FW_N6/Drivers/STM32N6xx_HAL_Driver/Src/stm32n6xx_hal_cacheaxi.c ****   assert_param(IS_CACHEAXI_ALL_INSTANCE(hcacheaxi->Instance));
 1379              		.loc 1 772 3
 1380 0014 7B68     		ldr	r3, [r7, #4]
 1381 0016 1B68     		ldr	r3, [r3]
 1382 0018 134A     		ldr	r2, .L98
 1383 001a 9342     		cmp	r3, r2
 1384 001c 09D0     		beq	.L96
 1385              		.loc 1 772 3 is_stmt 0 discriminator 1
 1386 001e 7B68     		ldr	r3, [r7, #4]
 1387 0020 1B68     		ldr	r3, [r3]
 1388 0022 124A     		ldr	r2, .L98+4
 1389 0024 9342     		cmp	r3, r2
 1390 0026 04D0     		beq	.L96
 1391              		.loc 1 772 3 discriminator 2
 1392 0028 4FF44171 		mov	r1, #772
 1393 002c 1048     		ldr	r0, .L98+8
 1394 002e FFF7FEFF 		bl	assert_failed
 1395              	.L96:
 773:STM32Cube_FW_N6/Drivers/STM32N6xx_HAL_Driver/Src/stm32n6xx_hal_cacheaxi.c ****   assert_param(IS_CACHEAXI_MONITOR_TYPE(MonitorType));
 1396              		.loc 1 773 3 is_stmt 1
 1397 0032 3B68     		ldr	r3, [r7]
 1398 0034 23F04C53 		bic	r3, r3, #855638016
 1399 0038 23F44C13 		bic	r3, r3, #3342336
 1400 003c 002B     		cmp	r3, #0
 1401 003e 04D0     		beq	.L97
 1402              		.loc 1 773 3 is_stmt 0 discriminator 1
 1403 0040 40F20531 		movw	r1, #773
 1404 0044 0A48     		ldr	r0, .L98+8
 1405 0046 FFF7FEFF 		bl	assert_failed
 1406              	.L97:
 774:STM32Cube_FW_N6/Drivers/STM32N6xx_HAL_Driver/Src/stm32n6xx_hal_cacheaxi.c **** 
 775:STM32Cube_FW_N6/Drivers/STM32N6xx_HAL_Driver/Src/stm32n6xx_hal_cacheaxi.c ****   CLEAR_BIT(hcacheaxi->Instance->CR1, MonitorType);
ARM GAS  /tmp/cc4w16ub.s 			page 39


 1407              		.loc 1 775 3 is_stmt 1
 1408 004a 7B68     		ldr	r3, [r7, #4]
 1409 004c 1B68     		ldr	r3, [r3]
 1410 004e 1968     		ldr	r1, [r3]
 1411 0050 3B68     		ldr	r3, [r7]
 1412 0052 DA43     		mvns	r2, r3
 1413 0054 7B68     		ldr	r3, [r7, #4]
 1414 0056 1B68     		ldr	r3, [r3]
 1415 0058 0A40     		ands	r2, r2, r1
 1416 005a 1A60     		str	r2, [r3]
 776:STM32Cube_FW_N6/Drivers/STM32N6xx_HAL_Driver/Src/stm32n6xx_hal_cacheaxi.c **** 
 777:STM32Cube_FW_N6/Drivers/STM32N6xx_HAL_Driver/Src/stm32n6xx_hal_cacheaxi.c ****   return HAL_OK;
 1417              		.loc 1 777 10
 1418 005c 0023     		movs	r3, #0
 1419              	.L95:
 778:STM32Cube_FW_N6/Drivers/STM32N6xx_HAL_Driver/Src/stm32n6xx_hal_cacheaxi.c **** }
 1420              		.loc 1 778 1
 1421 005e 1846     		mov	r0, r3
 1422 0060 0837     		adds	r7, r7, #8
 1423              		.cfi_def_cfa_offset 8
 1424 0062 BD46     		mov	sp, r7
 1425              		.cfi_def_cfa_register 13
 1426              		@ sp needed
 1427 0064 80BD     		pop	{r7, pc}
 1428              	.L99:
 1429 0066 00BF     		.align	2
 1430              	.L98:
 1431 0068 00FC0D58 		.word	1477311488
 1432 006c 00FC0D48 		.word	1208876032
 1433 0070 00000000 		.word	.LC0
 1434              		.cfi_endproc
 1435              	.LFE849:
 1437              		.section	.text.HAL_CACHEAXI_Monitor_Reset,"ax",%progbits
 1438              		.align	1
 1439              		.global	HAL_CACHEAXI_Monitor_Reset
 1440              		.syntax unified
 1441              		.thumb
 1442              		.thumb_func
 1444              	HAL_CACHEAXI_Monitor_Reset:
 1445              	.LFB850:
 779:STM32Cube_FW_N6/Drivers/STM32N6xx_HAL_Driver/Src/stm32n6xx_hal_cacheaxi.c **** 
 780:STM32Cube_FW_N6/Drivers/STM32N6xx_HAL_Driver/Src/stm32n6xx_hal_cacheaxi.c **** /**
 781:STM32Cube_FW_N6/Drivers/STM32N6xx_HAL_Driver/Src/stm32n6xx_hal_cacheaxi.c ****   * @brief  Reset the CACHEAXI performance monitoring values.
 782:STM32Cube_FW_N6/Drivers/STM32N6xx_HAL_Driver/Src/stm32n6xx_hal_cacheaxi.c ****   * @param  hcacheaxi Pointer to a CACHEAXI_HandleTypeDef structure that contains
 783:STM32Cube_FW_N6/Drivers/STM32N6xx_HAL_Driver/Src/stm32n6xx_hal_cacheaxi.c ****   *                   the configuration information for the specified CACHEAXIx peripheral.
 784:STM32Cube_FW_N6/Drivers/STM32N6xx_HAL_Driver/Src/stm32n6xx_hal_cacheaxi.c ****   * @param  MonitorType Monitoring type
 785:STM32Cube_FW_N6/Drivers/STM32N6xx_HAL_Driver/Src/stm32n6xx_hal_cacheaxi.c ****   *         This parameter can be a combination of the following values:
 786:STM32Cube_FW_N6/Drivers/STM32N6xx_HAL_Driver/Src/stm32n6xx_hal_cacheaxi.c ****   *            @arg CACHEAXI_MONITOR_READ_HIT
 787:STM32Cube_FW_N6/Drivers/STM32N6xx_HAL_Driver/Src/stm32n6xx_hal_cacheaxi.c ****   *            @arg CACHEAXI_MONITOR_READ_MISS
 788:STM32Cube_FW_N6/Drivers/STM32N6xx_HAL_Driver/Src/stm32n6xx_hal_cacheaxi.c ****   *            @arg CACHEAXI_MONITOR_WRITE_HIT
 789:STM32Cube_FW_N6/Drivers/STM32N6xx_HAL_Driver/Src/stm32n6xx_hal_cacheaxi.c ****   *            @arg CACHEAXI_MONITOR_WRITE_MISS
 790:STM32Cube_FW_N6/Drivers/STM32N6xx_HAL_Driver/Src/stm32n6xx_hal_cacheaxi.c ****   *            @arg CACHEAXI_MONITOR_READALLOC_MISS
 791:STM32Cube_FW_N6/Drivers/STM32N6xx_HAL_Driver/Src/stm32n6xx_hal_cacheaxi.c ****   *            @arg CACHEAXI_MONITOR_WRITEALLOC_MISS
 792:STM32Cube_FW_N6/Drivers/STM32N6xx_HAL_Driver/Src/stm32n6xx_hal_cacheaxi.c ****   *            @arg CACHEAXI_MONITOR_WRITETHROUGH
 793:STM32Cube_FW_N6/Drivers/STM32N6xx_HAL_Driver/Src/stm32n6xx_hal_cacheaxi.c ****   *            @arg CACHEAXI_MONITOR_EVICTION
 794:STM32Cube_FW_N6/Drivers/STM32N6xx_HAL_Driver/Src/stm32n6xx_hal_cacheaxi.c ****   *            @arg CACHEAXI_MONITOR_ALL
 795:STM32Cube_FW_N6/Drivers/STM32N6xx_HAL_Driver/Src/stm32n6xx_hal_cacheaxi.c ****   * @retval HAL status
ARM GAS  /tmp/cc4w16ub.s 			page 40


 796:STM32Cube_FW_N6/Drivers/STM32N6xx_HAL_Driver/Src/stm32n6xx_hal_cacheaxi.c ****   */
 797:STM32Cube_FW_N6/Drivers/STM32N6xx_HAL_Driver/Src/stm32n6xx_hal_cacheaxi.c **** HAL_StatusTypeDef HAL_CACHEAXI_Monitor_Reset(CACHEAXI_HandleTypeDef *hcacheaxi, uint32_t MonitorTyp
 798:STM32Cube_FW_N6/Drivers/STM32N6xx_HAL_Driver/Src/stm32n6xx_hal_cacheaxi.c **** {
 1446              		.loc 1 798 1
 1447              		.cfi_startproc
 1448              		@ args = 0, pretend = 0, frame = 8
 1449              		@ frame_needed = 1, uses_anonymous_args = 0
 1450 0000 80B5     		push	{r7, lr}
 1451              		.cfi_def_cfa_offset 8
 1452              		.cfi_offset 7, -8
 1453              		.cfi_offset 14, -4
 1454 0002 82B0     		sub	sp, sp, #8
 1455              		.cfi_def_cfa_offset 16
 1456 0004 00AF     		add	r7, sp, #0
 1457              		.cfi_def_cfa_register 7
 1458 0006 7860     		str	r0, [r7, #4]
 1459 0008 3960     		str	r1, [r7]
 799:STM32Cube_FW_N6/Drivers/STM32N6xx_HAL_Driver/Src/stm32n6xx_hal_cacheaxi.c ****   /* Check the cacheaxi handle allocation */
 800:STM32Cube_FW_N6/Drivers/STM32N6xx_HAL_Driver/Src/stm32n6xx_hal_cacheaxi.c ****   if (hcacheaxi == NULL)
 1460              		.loc 1 800 6
 1461 000a 7B68     		ldr	r3, [r7, #4]
 1462 000c 002B     		cmp	r3, #0
 1463 000e 01D1     		bne	.L101
 801:STM32Cube_FW_N6/Drivers/STM32N6xx_HAL_Driver/Src/stm32n6xx_hal_cacheaxi.c ****   {
 802:STM32Cube_FW_N6/Drivers/STM32N6xx_HAL_Driver/Src/stm32n6xx_hal_cacheaxi.c ****     return HAL_ERROR;
 1464              		.loc 1 802 12
 1465 0010 0123     		movs	r3, #1
 1466 0012 2EE0     		b	.L102
 1467              	.L101:
 803:STM32Cube_FW_N6/Drivers/STM32N6xx_HAL_Driver/Src/stm32n6xx_hal_cacheaxi.c ****   }
 804:STM32Cube_FW_N6/Drivers/STM32N6xx_HAL_Driver/Src/stm32n6xx_hal_cacheaxi.c **** 
 805:STM32Cube_FW_N6/Drivers/STM32N6xx_HAL_Driver/Src/stm32n6xx_hal_cacheaxi.c ****   /* Check the parameters */
 806:STM32Cube_FW_N6/Drivers/STM32N6xx_HAL_Driver/Src/stm32n6xx_hal_cacheaxi.c ****   assert_param(IS_CACHEAXI_ALL_INSTANCE(hcacheaxi->Instance));
 1468              		.loc 1 806 3
 1469 0014 7B68     		ldr	r3, [r7, #4]
 1470 0016 1B68     		ldr	r3, [r3]
 1471 0018 184A     		ldr	r2, .L105
 1472 001a 9342     		cmp	r3, r2
 1473 001c 09D0     		beq	.L103
 1474              		.loc 1 806 3 is_stmt 0 discriminator 1
 1475 001e 7B68     		ldr	r3, [r7, #4]
 1476 0020 1B68     		ldr	r3, [r3]
 1477 0022 174A     		ldr	r2, .L105+4
 1478 0024 9342     		cmp	r3, r2
 1479 0026 04D0     		beq	.L103
 1480              		.loc 1 806 3 discriminator 2
 1481 0028 40F22631 		movw	r1, #806
 1482 002c 1548     		ldr	r0, .L105+8
 1483 002e FFF7FEFF 		bl	assert_failed
 1484              	.L103:
 807:STM32Cube_FW_N6/Drivers/STM32N6xx_HAL_Driver/Src/stm32n6xx_hal_cacheaxi.c ****   assert_param(IS_CACHEAXI_MONITOR_TYPE(MonitorType));
 1485              		.loc 1 807 3 is_stmt 1
 1486 0032 3B68     		ldr	r3, [r7]
 1487 0034 23F04C53 		bic	r3, r3, #855638016
 1488 0038 23F44C13 		bic	r3, r3, #3342336
 1489 003c 002B     		cmp	r3, #0
 1490 003e 04D0     		beq	.L104
ARM GAS  /tmp/cc4w16ub.s 			page 41


 1491              		.loc 1 807 3 is_stmt 0 discriminator 1
 1492 0040 40F22731 		movw	r1, #807
 1493 0044 0F48     		ldr	r0, .L105+8
 1494 0046 FFF7FEFF 		bl	assert_failed
 1495              	.L104:
 808:STM32Cube_FW_N6/Drivers/STM32N6xx_HAL_Driver/Src/stm32n6xx_hal_cacheaxi.c **** 
 809:STM32Cube_FW_N6/Drivers/STM32N6xx_HAL_Driver/Src/stm32n6xx_hal_cacheaxi.c ****   /* Force/Release reset */
 810:STM32Cube_FW_N6/Drivers/STM32N6xx_HAL_Driver/Src/stm32n6xx_hal_cacheaxi.c ****   SET_BIT(hcacheaxi->Instance->CR1, (MonitorType << 2U));
 1496              		.loc 1 810 3 is_stmt 1
 1497 004a 7B68     		ldr	r3, [r7, #4]
 1498 004c 1B68     		ldr	r3, [r3]
 1499 004e 1968     		ldr	r1, [r3]
 1500 0050 3B68     		ldr	r3, [r7]
 1501 0052 9A00     		lsls	r2, r3, #2
 1502 0054 7B68     		ldr	r3, [r7, #4]
 1503 0056 1B68     		ldr	r3, [r3]
 1504 0058 0A43     		orrs	r2, r2, r1
 1505 005a 1A60     		str	r2, [r3]
 811:STM32Cube_FW_N6/Drivers/STM32N6xx_HAL_Driver/Src/stm32n6xx_hal_cacheaxi.c ****   CLEAR_BIT(hcacheaxi->Instance->CR1, (MonitorType << 2U));
 1506              		.loc 1 811 3
 1507 005c 7B68     		ldr	r3, [r7, #4]
 1508 005e 1B68     		ldr	r3, [r3]
 1509 0060 1968     		ldr	r1, [r3]
 1510 0062 3B68     		ldr	r3, [r7]
 1511 0064 9B00     		lsls	r3, r3, #2
 1512 0066 DA43     		mvns	r2, r3
 1513 0068 7B68     		ldr	r3, [r7, #4]
 1514 006a 1B68     		ldr	r3, [r3]
 1515 006c 0A40     		ands	r2, r2, r1
 1516 006e 1A60     		str	r2, [r3]
 812:STM32Cube_FW_N6/Drivers/STM32N6xx_HAL_Driver/Src/stm32n6xx_hal_cacheaxi.c **** 
 813:STM32Cube_FW_N6/Drivers/STM32N6xx_HAL_Driver/Src/stm32n6xx_hal_cacheaxi.c ****   return HAL_OK;
 1517              		.loc 1 813 10
 1518 0070 0023     		movs	r3, #0
 1519              	.L102:
 814:STM32Cube_FW_N6/Drivers/STM32N6xx_HAL_Driver/Src/stm32n6xx_hal_cacheaxi.c **** }
 1520              		.loc 1 814 1
 1521 0072 1846     		mov	r0, r3
 1522 0074 0837     		adds	r7, r7, #8
 1523              		.cfi_def_cfa_offset 8
 1524 0076 BD46     		mov	sp, r7
 1525              		.cfi_def_cfa_register 13
 1526              		@ sp needed
 1527 0078 80BD     		pop	{r7, pc}
 1528              	.L106:
 1529 007a 00BF     		.align	2
 1530              	.L105:
 1531 007c 00FC0D58 		.word	1477311488
 1532 0080 00FC0D48 		.word	1208876032
 1533 0084 00000000 		.word	.LC0
 1534              		.cfi_endproc
 1535              	.LFE850:
 1537              		.section	.text.HAL_CACHEAXI_Monitor_GetReadHitValue,"ax",%progbits
 1538              		.align	1
 1539              		.global	HAL_CACHEAXI_Monitor_GetReadHitValue
 1540              		.syntax unified
 1541              		.thumb
ARM GAS  /tmp/cc4w16ub.s 			page 42


 1542              		.thumb_func
 1544              	HAL_CACHEAXI_Monitor_GetReadHitValue:
 1545              	.LFB851:
 815:STM32Cube_FW_N6/Drivers/STM32N6xx_HAL_Driver/Src/stm32n6xx_hal_cacheaxi.c **** 
 816:STM32Cube_FW_N6/Drivers/STM32N6xx_HAL_Driver/Src/stm32n6xx_hal_cacheaxi.c **** /**
 817:STM32Cube_FW_N6/Drivers/STM32N6xx_HAL_Driver/Src/stm32n6xx_hal_cacheaxi.c ****   * @brief  Get the CACHEAXI performance Read Hit monitoring value.
 818:STM32Cube_FW_N6/Drivers/STM32N6xx_HAL_Driver/Src/stm32n6xx_hal_cacheaxi.c ****   * @param  hcacheaxi Pointer to a CACHEAXI_HandleTypeDef structure that contains
 819:STM32Cube_FW_N6/Drivers/STM32N6xx_HAL_Driver/Src/stm32n6xx_hal_cacheaxi.c ****   *                   the configuration information for the specified CACHEAXIx peripheral.
 820:STM32Cube_FW_N6/Drivers/STM32N6xx_HAL_Driver/Src/stm32n6xx_hal_cacheaxi.c ****   * @note   Upon reaching the 32-bit maximum value, monitor does not wrap.
 821:STM32Cube_FW_N6/Drivers/STM32N6xx_HAL_Driver/Src/stm32n6xx_hal_cacheaxi.c ****   * @retval Read Hit monitoring value
 822:STM32Cube_FW_N6/Drivers/STM32N6xx_HAL_Driver/Src/stm32n6xx_hal_cacheaxi.c ****   */
 823:STM32Cube_FW_N6/Drivers/STM32N6xx_HAL_Driver/Src/stm32n6xx_hal_cacheaxi.c **** uint32_t HAL_CACHEAXI_Monitor_GetReadHitValue(const CACHEAXI_HandleTypeDef *hcacheaxi)
 824:STM32Cube_FW_N6/Drivers/STM32N6xx_HAL_Driver/Src/stm32n6xx_hal_cacheaxi.c **** {
 1546              		.loc 1 824 1
 1547              		.cfi_startproc
 1548              		@ args = 0, pretend = 0, frame = 8
 1549              		@ frame_needed = 1, uses_anonymous_args = 0
 1550 0000 80B5     		push	{r7, lr}
 1551              		.cfi_def_cfa_offset 8
 1552              		.cfi_offset 7, -8
 1553              		.cfi_offset 14, -4
 1554 0002 82B0     		sub	sp, sp, #8
 1555              		.cfi_def_cfa_offset 16
 1556 0004 00AF     		add	r7, sp, #0
 1557              		.cfi_def_cfa_register 7
 1558 0006 7860     		str	r0, [r7, #4]
 825:STM32Cube_FW_N6/Drivers/STM32N6xx_HAL_Driver/Src/stm32n6xx_hal_cacheaxi.c ****   /* Check the parameters */
 826:STM32Cube_FW_N6/Drivers/STM32N6xx_HAL_Driver/Src/stm32n6xx_hal_cacheaxi.c ****   assert_param(IS_CACHEAXI_ALL_INSTANCE(hcacheaxi->Instance));
 1559              		.loc 1 826 3
 1560 0008 7B68     		ldr	r3, [r7, #4]
 1561 000a 1B68     		ldr	r3, [r3]
 1562 000c 094A     		ldr	r2, .L110
 1563 000e 9342     		cmp	r3, r2
 1564 0010 09D0     		beq	.L108
 1565              		.loc 1 826 3 is_stmt 0 discriminator 1
 1566 0012 7B68     		ldr	r3, [r7, #4]
 1567 0014 1B68     		ldr	r3, [r3]
 1568 0016 084A     		ldr	r2, .L110+4
 1569 0018 9342     		cmp	r3, r2
 1570 001a 04D0     		beq	.L108
 1571              		.loc 1 826 3 discriminator 2
 1572 001c 40F23A31 		movw	r1, #826
 1573 0020 0648     		ldr	r0, .L110+8
 1574 0022 FFF7FEFF 		bl	assert_failed
 1575              	.L108:
 827:STM32Cube_FW_N6/Drivers/STM32N6xx_HAL_Driver/Src/stm32n6xx_hal_cacheaxi.c **** 
 828:STM32Cube_FW_N6/Drivers/STM32N6xx_HAL_Driver/Src/stm32n6xx_hal_cacheaxi.c ****   /*return the Read Hit monitor value*/
 829:STM32Cube_FW_N6/Drivers/STM32N6xx_HAL_Driver/Src/stm32n6xx_hal_cacheaxi.c ****   return hcacheaxi->Instance->RHMONR;
 1576              		.loc 1 829 19 is_stmt 1
 1577 0026 7B68     		ldr	r3, [r7, #4]
 1578 0028 1B68     		ldr	r3, [r3]
 1579              		.loc 1 829 29
 1580 002a 1B69     		ldr	r3, [r3, #16]
 830:STM32Cube_FW_N6/Drivers/STM32N6xx_HAL_Driver/Src/stm32n6xx_hal_cacheaxi.c **** }
 1581              		.loc 1 830 1
 1582 002c 1846     		mov	r0, r3
 1583 002e 0837     		adds	r7, r7, #8
ARM GAS  /tmp/cc4w16ub.s 			page 43


 1584              		.cfi_def_cfa_offset 8
 1585 0030 BD46     		mov	sp, r7
 1586              		.cfi_def_cfa_register 13
 1587              		@ sp needed
 1588 0032 80BD     		pop	{r7, pc}
 1589              	.L111:
 1590              		.align	2
 1591              	.L110:
 1592 0034 00FC0D58 		.word	1477311488
 1593 0038 00FC0D48 		.word	1208876032
 1594 003c 00000000 		.word	.LC0
 1595              		.cfi_endproc
 1596              	.LFE851:
 1598              		.section	.text.HAL_CACHEAXI_Monitor_GetReadMissValue,"ax",%progbits
 1599              		.align	1
 1600              		.global	HAL_CACHEAXI_Monitor_GetReadMissValue
 1601              		.syntax unified
 1602              		.thumb
 1603              		.thumb_func
 1605              	HAL_CACHEAXI_Monitor_GetReadMissValue:
 1606              	.LFB852:
 831:STM32Cube_FW_N6/Drivers/STM32N6xx_HAL_Driver/Src/stm32n6xx_hal_cacheaxi.c **** 
 832:STM32Cube_FW_N6/Drivers/STM32N6xx_HAL_Driver/Src/stm32n6xx_hal_cacheaxi.c **** /**
 833:STM32Cube_FW_N6/Drivers/STM32N6xx_HAL_Driver/Src/stm32n6xx_hal_cacheaxi.c ****   * @brief  Get the CACHEAXI performance Read Miss monitoring value.
 834:STM32Cube_FW_N6/Drivers/STM32N6xx_HAL_Driver/Src/stm32n6xx_hal_cacheaxi.c ****   * @param  hcacheaxi Pointer to a CACHEAXI_HandleTypeDef structure that contains
 835:STM32Cube_FW_N6/Drivers/STM32N6xx_HAL_Driver/Src/stm32n6xx_hal_cacheaxi.c ****   *                   the configuration information for the specified CACHEAXIx peripheral.
 836:STM32Cube_FW_N6/Drivers/STM32N6xx_HAL_Driver/Src/stm32n6xx_hal_cacheaxi.c ****   * @note   Upon reaching the 16-bit maximum value, monitor does not wrap.
 837:STM32Cube_FW_N6/Drivers/STM32N6xx_HAL_Driver/Src/stm32n6xx_hal_cacheaxi.c ****   * @retval Read Miss monitoring value
 838:STM32Cube_FW_N6/Drivers/STM32N6xx_HAL_Driver/Src/stm32n6xx_hal_cacheaxi.c ****   */
 839:STM32Cube_FW_N6/Drivers/STM32N6xx_HAL_Driver/Src/stm32n6xx_hal_cacheaxi.c **** uint32_t HAL_CACHEAXI_Monitor_GetReadMissValue(const CACHEAXI_HandleTypeDef *hcacheaxi)
 840:STM32Cube_FW_N6/Drivers/STM32N6xx_HAL_Driver/Src/stm32n6xx_hal_cacheaxi.c **** {
 1607              		.loc 1 840 1
 1608              		.cfi_startproc
 1609              		@ args = 0, pretend = 0, frame = 8
 1610              		@ frame_needed = 1, uses_anonymous_args = 0
 1611 0000 80B5     		push	{r7, lr}
 1612              		.cfi_def_cfa_offset 8
 1613              		.cfi_offset 7, -8
 1614              		.cfi_offset 14, -4
 1615 0002 82B0     		sub	sp, sp, #8
 1616              		.cfi_def_cfa_offset 16
 1617 0004 00AF     		add	r7, sp, #0
 1618              		.cfi_def_cfa_register 7
 1619 0006 7860     		str	r0, [r7, #4]
 841:STM32Cube_FW_N6/Drivers/STM32N6xx_HAL_Driver/Src/stm32n6xx_hal_cacheaxi.c ****   /* Check the parameters */
 842:STM32Cube_FW_N6/Drivers/STM32N6xx_HAL_Driver/Src/stm32n6xx_hal_cacheaxi.c ****   assert_param(IS_CACHEAXI_ALL_INSTANCE(hcacheaxi->Instance));
 1620              		.loc 1 842 3
 1621 0008 7B68     		ldr	r3, [r7, #4]
 1622 000a 1B68     		ldr	r3, [r3]
 1623 000c 094A     		ldr	r2, .L115
 1624 000e 9342     		cmp	r3, r2
 1625 0010 09D0     		beq	.L113
 1626              		.loc 1 842 3 is_stmt 0 discriminator 1
 1627 0012 7B68     		ldr	r3, [r7, #4]
 1628 0014 1B68     		ldr	r3, [r3]
 1629 0016 084A     		ldr	r2, .L115+4
 1630 0018 9342     		cmp	r3, r2
ARM GAS  /tmp/cc4w16ub.s 			page 44


 1631 001a 04D0     		beq	.L113
 1632              		.loc 1 842 3 discriminator 2
 1633 001c 40F24A31 		movw	r1, #842
 1634 0020 0648     		ldr	r0, .L115+8
 1635 0022 FFF7FEFF 		bl	assert_failed
 1636              	.L113:
 843:STM32Cube_FW_N6/Drivers/STM32N6xx_HAL_Driver/Src/stm32n6xx_hal_cacheaxi.c **** 
 844:STM32Cube_FW_N6/Drivers/STM32N6xx_HAL_Driver/Src/stm32n6xx_hal_cacheaxi.c ****   /*return the Read Miss monitor value*/
 845:STM32Cube_FW_N6/Drivers/STM32N6xx_HAL_Driver/Src/stm32n6xx_hal_cacheaxi.c ****   return hcacheaxi->Instance->RMMONR;
 1637              		.loc 1 845 19 is_stmt 1
 1638 0026 7B68     		ldr	r3, [r7, #4]
 1639 0028 1B68     		ldr	r3, [r3]
 1640              		.loc 1 845 29
 1641 002a 5B69     		ldr	r3, [r3, #20]
 846:STM32Cube_FW_N6/Drivers/STM32N6xx_HAL_Driver/Src/stm32n6xx_hal_cacheaxi.c **** }
 1642              		.loc 1 846 1
 1643 002c 1846     		mov	r0, r3
 1644 002e 0837     		adds	r7, r7, #8
 1645              		.cfi_def_cfa_offset 8
 1646 0030 BD46     		mov	sp, r7
 1647              		.cfi_def_cfa_register 13
 1648              		@ sp needed
 1649 0032 80BD     		pop	{r7, pc}
 1650              	.L116:
 1651              		.align	2
 1652              	.L115:
 1653 0034 00FC0D58 		.word	1477311488
 1654 0038 00FC0D48 		.word	1208876032
 1655 003c 00000000 		.word	.LC0
 1656              		.cfi_endproc
 1657              	.LFE852:
 1659              		.section	.text.HAL_CACHEAXI_Monitor_GetWriteHitValue,"ax",%progbits
 1660              		.align	1
 1661              		.global	HAL_CACHEAXI_Monitor_GetWriteHitValue
 1662              		.syntax unified
 1663              		.thumb
 1664              		.thumb_func
 1666              	HAL_CACHEAXI_Monitor_GetWriteHitValue:
 1667              	.LFB853:
 847:STM32Cube_FW_N6/Drivers/STM32N6xx_HAL_Driver/Src/stm32n6xx_hal_cacheaxi.c **** 
 848:STM32Cube_FW_N6/Drivers/STM32N6xx_HAL_Driver/Src/stm32n6xx_hal_cacheaxi.c **** /**
 849:STM32Cube_FW_N6/Drivers/STM32N6xx_HAL_Driver/Src/stm32n6xx_hal_cacheaxi.c ****   * @brief  Get the CACHEAXI performance Write Hit monitoring value.
 850:STM32Cube_FW_N6/Drivers/STM32N6xx_HAL_Driver/Src/stm32n6xx_hal_cacheaxi.c ****   * @param  hcacheaxi Pointer to a CACHEAXI_HandleTypeDef structure that contains
 851:STM32Cube_FW_N6/Drivers/STM32N6xx_HAL_Driver/Src/stm32n6xx_hal_cacheaxi.c ****   *                   the configuration information for the specified CACHEAXIx peripheral.
 852:STM32Cube_FW_N6/Drivers/STM32N6xx_HAL_Driver/Src/stm32n6xx_hal_cacheaxi.c ****   * @note   Upon reaching the 32-bit maximum value, monitor does not wrap.
 853:STM32Cube_FW_N6/Drivers/STM32N6xx_HAL_Driver/Src/stm32n6xx_hal_cacheaxi.c ****   * @retval Write Hit monitoring value
 854:STM32Cube_FW_N6/Drivers/STM32N6xx_HAL_Driver/Src/stm32n6xx_hal_cacheaxi.c ****   */
 855:STM32Cube_FW_N6/Drivers/STM32N6xx_HAL_Driver/Src/stm32n6xx_hal_cacheaxi.c **** uint32_t HAL_CACHEAXI_Monitor_GetWriteHitValue(const CACHEAXI_HandleTypeDef *hcacheaxi)
 856:STM32Cube_FW_N6/Drivers/STM32N6xx_HAL_Driver/Src/stm32n6xx_hal_cacheaxi.c **** {
 1668              		.loc 1 856 1
 1669              		.cfi_startproc
 1670              		@ args = 0, pretend = 0, frame = 8
 1671              		@ frame_needed = 1, uses_anonymous_args = 0
 1672 0000 80B5     		push	{r7, lr}
 1673              		.cfi_def_cfa_offset 8
 1674              		.cfi_offset 7, -8
 1675              		.cfi_offset 14, -4
ARM GAS  /tmp/cc4w16ub.s 			page 45


 1676 0002 82B0     		sub	sp, sp, #8
 1677              		.cfi_def_cfa_offset 16
 1678 0004 00AF     		add	r7, sp, #0
 1679              		.cfi_def_cfa_register 7
 1680 0006 7860     		str	r0, [r7, #4]
 857:STM32Cube_FW_N6/Drivers/STM32N6xx_HAL_Driver/Src/stm32n6xx_hal_cacheaxi.c ****   /* Check the parameters */
 858:STM32Cube_FW_N6/Drivers/STM32N6xx_HAL_Driver/Src/stm32n6xx_hal_cacheaxi.c ****   assert_param(IS_CACHEAXI_ALL_INSTANCE(hcacheaxi->Instance));
 1681              		.loc 1 858 3
 1682 0008 7B68     		ldr	r3, [r7, #4]
 1683 000a 1B68     		ldr	r3, [r3]
 1684 000c 094A     		ldr	r2, .L120
 1685 000e 9342     		cmp	r3, r2
 1686 0010 09D0     		beq	.L118
 1687              		.loc 1 858 3 is_stmt 0 discriminator 1
 1688 0012 7B68     		ldr	r3, [r7, #4]
 1689 0014 1B68     		ldr	r3, [r3]
 1690 0016 084A     		ldr	r2, .L120+4
 1691 0018 9342     		cmp	r3, r2
 1692 001a 04D0     		beq	.L118
 1693              		.loc 1 858 3 discriminator 2
 1694 001c 40F25A31 		movw	r1, #858
 1695 0020 0648     		ldr	r0, .L120+8
 1696 0022 FFF7FEFF 		bl	assert_failed
 1697              	.L118:
 859:STM32Cube_FW_N6/Drivers/STM32N6xx_HAL_Driver/Src/stm32n6xx_hal_cacheaxi.c **** 
 860:STM32Cube_FW_N6/Drivers/STM32N6xx_HAL_Driver/Src/stm32n6xx_hal_cacheaxi.c ****   /*return the Write Hit monitor value*/
 861:STM32Cube_FW_N6/Drivers/STM32N6xx_HAL_Driver/Src/stm32n6xx_hal_cacheaxi.c ****   return hcacheaxi->Instance->WHMONR;
 1698              		.loc 1 861 19 is_stmt 1
 1699 0026 7B68     		ldr	r3, [r7, #4]
 1700 0028 1B68     		ldr	r3, [r3]
 1701              		.loc 1 861 29
 1702 002a 1B6A     		ldr	r3, [r3, #32]
 862:STM32Cube_FW_N6/Drivers/STM32N6xx_HAL_Driver/Src/stm32n6xx_hal_cacheaxi.c **** }
 1703              		.loc 1 862 1
 1704 002c 1846     		mov	r0, r3
 1705 002e 0837     		adds	r7, r7, #8
 1706              		.cfi_def_cfa_offset 8
 1707 0030 BD46     		mov	sp, r7
 1708              		.cfi_def_cfa_register 13
 1709              		@ sp needed
 1710 0032 80BD     		pop	{r7, pc}
 1711              	.L121:
 1712              		.align	2
 1713              	.L120:
 1714 0034 00FC0D58 		.word	1477311488
 1715 0038 00FC0D48 		.word	1208876032
 1716 003c 00000000 		.word	.LC0
 1717              		.cfi_endproc
 1718              	.LFE853:
 1720              		.section	.text.HAL_CACHEAXI_Monitor_GetWriteMissValue,"ax",%progbits
 1721              		.align	1
 1722              		.global	HAL_CACHEAXI_Monitor_GetWriteMissValue
 1723              		.syntax unified
 1724              		.thumb
 1725              		.thumb_func
 1727              	HAL_CACHEAXI_Monitor_GetWriteMissValue:
 1728              	.LFB854:
ARM GAS  /tmp/cc4w16ub.s 			page 46


 863:STM32Cube_FW_N6/Drivers/STM32N6xx_HAL_Driver/Src/stm32n6xx_hal_cacheaxi.c **** 
 864:STM32Cube_FW_N6/Drivers/STM32N6xx_HAL_Driver/Src/stm32n6xx_hal_cacheaxi.c **** /**
 865:STM32Cube_FW_N6/Drivers/STM32N6xx_HAL_Driver/Src/stm32n6xx_hal_cacheaxi.c ****   * @brief  Get the CACHEAXI performance Write Miss monitoring value.
 866:STM32Cube_FW_N6/Drivers/STM32N6xx_HAL_Driver/Src/stm32n6xx_hal_cacheaxi.c ****   * @param  hcacheaxi Pointer to a CACHEAXI_HandleTypeDef structure that contains
 867:STM32Cube_FW_N6/Drivers/STM32N6xx_HAL_Driver/Src/stm32n6xx_hal_cacheaxi.c ****   *                   the configuration information for the specified CACHEAXIx peripheral.
 868:STM32Cube_FW_N6/Drivers/STM32N6xx_HAL_Driver/Src/stm32n6xx_hal_cacheaxi.c ****   * @note   Upon reaching the 16-bit maximum value, monitor does not wrap.
 869:STM32Cube_FW_N6/Drivers/STM32N6xx_HAL_Driver/Src/stm32n6xx_hal_cacheaxi.c ****   * @retval Write Miss monitoring value
 870:STM32Cube_FW_N6/Drivers/STM32N6xx_HAL_Driver/Src/stm32n6xx_hal_cacheaxi.c ****   */
 871:STM32Cube_FW_N6/Drivers/STM32N6xx_HAL_Driver/Src/stm32n6xx_hal_cacheaxi.c **** uint32_t HAL_CACHEAXI_Monitor_GetWriteMissValue(const CACHEAXI_HandleTypeDef *hcacheaxi)
 872:STM32Cube_FW_N6/Drivers/STM32N6xx_HAL_Driver/Src/stm32n6xx_hal_cacheaxi.c **** {
 1729              		.loc 1 872 1
 1730              		.cfi_startproc
 1731              		@ args = 0, pretend = 0, frame = 8
 1732              		@ frame_needed = 1, uses_anonymous_args = 0
 1733 0000 80B5     		push	{r7, lr}
 1734              		.cfi_def_cfa_offset 8
 1735              		.cfi_offset 7, -8
 1736              		.cfi_offset 14, -4
 1737 0002 82B0     		sub	sp, sp, #8
 1738              		.cfi_def_cfa_offset 16
 1739 0004 00AF     		add	r7, sp, #0
 1740              		.cfi_def_cfa_register 7
 1741 0006 7860     		str	r0, [r7, #4]
 873:STM32Cube_FW_N6/Drivers/STM32N6xx_HAL_Driver/Src/stm32n6xx_hal_cacheaxi.c ****   /* Check the parameters */
 874:STM32Cube_FW_N6/Drivers/STM32N6xx_HAL_Driver/Src/stm32n6xx_hal_cacheaxi.c ****   assert_param(IS_CACHEAXI_ALL_INSTANCE(hcacheaxi->Instance));
 1742              		.loc 1 874 3
 1743 0008 7B68     		ldr	r3, [r7, #4]
 1744 000a 1B68     		ldr	r3, [r3]
 1745 000c 094A     		ldr	r2, .L125
 1746 000e 9342     		cmp	r3, r2
 1747 0010 09D0     		beq	.L123
 1748              		.loc 1 874 3 is_stmt 0 discriminator 1
 1749 0012 7B68     		ldr	r3, [r7, #4]
 1750 0014 1B68     		ldr	r3, [r3]
 1751 0016 084A     		ldr	r2, .L125+4
 1752 0018 9342     		cmp	r3, r2
 1753 001a 04D0     		beq	.L123
 1754              		.loc 1 874 3 discriminator 2
 1755 001c 40F26A31 		movw	r1, #874
 1756 0020 0648     		ldr	r0, .L125+8
 1757 0022 FFF7FEFF 		bl	assert_failed
 1758              	.L123:
 875:STM32Cube_FW_N6/Drivers/STM32N6xx_HAL_Driver/Src/stm32n6xx_hal_cacheaxi.c **** 
 876:STM32Cube_FW_N6/Drivers/STM32N6xx_HAL_Driver/Src/stm32n6xx_hal_cacheaxi.c ****   /*return the Write Miss monitor value*/
 877:STM32Cube_FW_N6/Drivers/STM32N6xx_HAL_Driver/Src/stm32n6xx_hal_cacheaxi.c ****   return hcacheaxi->Instance->WMMONR;
 1759              		.loc 1 877 19 is_stmt 1
 1760 0026 7B68     		ldr	r3, [r7, #4]
 1761 0028 1B68     		ldr	r3, [r3]
 1762              		.loc 1 877 29
 1763 002a 5B6A     		ldr	r3, [r3, #36]
 878:STM32Cube_FW_N6/Drivers/STM32N6xx_HAL_Driver/Src/stm32n6xx_hal_cacheaxi.c **** }
 1764              		.loc 1 878 1
 1765 002c 1846     		mov	r0, r3
 1766 002e 0837     		adds	r7, r7, #8
 1767              		.cfi_def_cfa_offset 8
 1768 0030 BD46     		mov	sp, r7
 1769              		.cfi_def_cfa_register 13
ARM GAS  /tmp/cc4w16ub.s 			page 47


 1770              		@ sp needed
 1771 0032 80BD     		pop	{r7, pc}
 1772              	.L126:
 1773              		.align	2
 1774              	.L125:
 1775 0034 00FC0D58 		.word	1477311488
 1776 0038 00FC0D48 		.word	1208876032
 1777 003c 00000000 		.word	.LC0
 1778              		.cfi_endproc
 1779              	.LFE854:
 1781              		.section	.text.HAL_CACHEAXI_Monitor_GetReadAllocMissValue,"ax",%progbits
 1782              		.align	1
 1783              		.global	HAL_CACHEAXI_Monitor_GetReadAllocMissValue
 1784              		.syntax unified
 1785              		.thumb
 1786              		.thumb_func
 1788              	HAL_CACHEAXI_Monitor_GetReadAllocMissValue:
 1789              	.LFB855:
 879:STM32Cube_FW_N6/Drivers/STM32N6xx_HAL_Driver/Src/stm32n6xx_hal_cacheaxi.c **** 
 880:STM32Cube_FW_N6/Drivers/STM32N6xx_HAL_Driver/Src/stm32n6xx_hal_cacheaxi.c **** /**
 881:STM32Cube_FW_N6/Drivers/STM32N6xx_HAL_Driver/Src/stm32n6xx_hal_cacheaxi.c ****   * @brief  Get the CACHEAXI performance Read-allocate Miss monitoring value.
 882:STM32Cube_FW_N6/Drivers/STM32N6xx_HAL_Driver/Src/stm32n6xx_hal_cacheaxi.c ****   * @param  hcacheaxi Pointer to a CACHEAXI_HandleTypeDef structure that contains
 883:STM32Cube_FW_N6/Drivers/STM32N6xx_HAL_Driver/Src/stm32n6xx_hal_cacheaxi.c ****   *                   the configuration information for the specified CACHEAXIx peripheral.
 884:STM32Cube_FW_N6/Drivers/STM32N6xx_HAL_Driver/Src/stm32n6xx_hal_cacheaxi.c ****   * @note   Upon reaching the 16-bit maximum value, monitor does not wrap.
 885:STM32Cube_FW_N6/Drivers/STM32N6xx_HAL_Driver/Src/stm32n6xx_hal_cacheaxi.c ****   * @retval Read-allocate Miss monitoring value
 886:STM32Cube_FW_N6/Drivers/STM32N6xx_HAL_Driver/Src/stm32n6xx_hal_cacheaxi.c ****   */
 887:STM32Cube_FW_N6/Drivers/STM32N6xx_HAL_Driver/Src/stm32n6xx_hal_cacheaxi.c **** uint32_t HAL_CACHEAXI_Monitor_GetReadAllocMissValue(const CACHEAXI_HandleTypeDef *hcacheaxi)
 888:STM32Cube_FW_N6/Drivers/STM32N6xx_HAL_Driver/Src/stm32n6xx_hal_cacheaxi.c **** {
 1790              		.loc 1 888 1
 1791              		.cfi_startproc
 1792              		@ args = 0, pretend = 0, frame = 8
 1793              		@ frame_needed = 1, uses_anonymous_args = 0
 1794 0000 80B5     		push	{r7, lr}
 1795              		.cfi_def_cfa_offset 8
 1796              		.cfi_offset 7, -8
 1797              		.cfi_offset 14, -4
 1798 0002 82B0     		sub	sp, sp, #8
 1799              		.cfi_def_cfa_offset 16
 1800 0004 00AF     		add	r7, sp, #0
 1801              		.cfi_def_cfa_register 7
 1802 0006 7860     		str	r0, [r7, #4]
 889:STM32Cube_FW_N6/Drivers/STM32N6xx_HAL_Driver/Src/stm32n6xx_hal_cacheaxi.c ****   /* Check the parameters */
 890:STM32Cube_FW_N6/Drivers/STM32N6xx_HAL_Driver/Src/stm32n6xx_hal_cacheaxi.c ****   assert_param(IS_CACHEAXI_ALL_INSTANCE(hcacheaxi->Instance));
 1803              		.loc 1 890 3
 1804 0008 7B68     		ldr	r3, [r7, #4]
 1805 000a 1B68     		ldr	r3, [r3]
 1806 000c 094A     		ldr	r2, .L130
 1807 000e 9342     		cmp	r3, r2
 1808 0010 09D0     		beq	.L128
 1809              		.loc 1 890 3 is_stmt 0 discriminator 1
 1810 0012 7B68     		ldr	r3, [r7, #4]
 1811 0014 1B68     		ldr	r3, [r3]
 1812 0016 084A     		ldr	r2, .L130+4
 1813 0018 9342     		cmp	r3, r2
 1814 001a 04D0     		beq	.L128
 1815              		.loc 1 890 3 discriminator 2
 1816 001c 40F27A31 		movw	r1, #890
ARM GAS  /tmp/cc4w16ub.s 			page 48


 1817 0020 0648     		ldr	r0, .L130+8
 1818 0022 FFF7FEFF 		bl	assert_failed
 1819              	.L128:
 891:STM32Cube_FW_N6/Drivers/STM32N6xx_HAL_Driver/Src/stm32n6xx_hal_cacheaxi.c **** 
 892:STM32Cube_FW_N6/Drivers/STM32N6xx_HAL_Driver/Src/stm32n6xx_hal_cacheaxi.c ****   /*return the read-allocate Miss monitor value*/
 893:STM32Cube_FW_N6/Drivers/STM32N6xx_HAL_Driver/Src/stm32n6xx_hal_cacheaxi.c ****   return hcacheaxi->Instance->RAMMONR;
 1820              		.loc 1 893 19 is_stmt 1
 1821 0026 7B68     		ldr	r3, [r7, #4]
 1822 0028 1B68     		ldr	r3, [r3]
 1823              		.loc 1 893 29
 1824 002a 9B69     		ldr	r3, [r3, #24]
 894:STM32Cube_FW_N6/Drivers/STM32N6xx_HAL_Driver/Src/stm32n6xx_hal_cacheaxi.c **** }
 1825              		.loc 1 894 1
 1826 002c 1846     		mov	r0, r3
 1827 002e 0837     		adds	r7, r7, #8
 1828              		.cfi_def_cfa_offset 8
 1829 0030 BD46     		mov	sp, r7
 1830              		.cfi_def_cfa_register 13
 1831              		@ sp needed
 1832 0032 80BD     		pop	{r7, pc}
 1833              	.L131:
 1834              		.align	2
 1835              	.L130:
 1836 0034 00FC0D58 		.word	1477311488
 1837 0038 00FC0D48 		.word	1208876032
 1838 003c 00000000 		.word	.LC0
 1839              		.cfi_endproc
 1840              	.LFE855:
 1842              		.section	.text.HAL_CACHEAXI_Monitor_GetWriteAllocMissValue,"ax",%progbits
 1843              		.align	1
 1844              		.global	HAL_CACHEAXI_Monitor_GetWriteAllocMissValue
 1845              		.syntax unified
 1846              		.thumb
 1847              		.thumb_func
 1849              	HAL_CACHEAXI_Monitor_GetWriteAllocMissValue:
 1850              	.LFB856:
 895:STM32Cube_FW_N6/Drivers/STM32N6xx_HAL_Driver/Src/stm32n6xx_hal_cacheaxi.c **** 
 896:STM32Cube_FW_N6/Drivers/STM32N6xx_HAL_Driver/Src/stm32n6xx_hal_cacheaxi.c **** /**
 897:STM32Cube_FW_N6/Drivers/STM32N6xx_HAL_Driver/Src/stm32n6xx_hal_cacheaxi.c ****   * @brief  Get the CACHEAXI performance Write-allocate Miss monitoring value.
 898:STM32Cube_FW_N6/Drivers/STM32N6xx_HAL_Driver/Src/stm32n6xx_hal_cacheaxi.c ****   * @param  hcacheaxi Pointer to a CACHEAXI_HandleTypeDef structure that contains
 899:STM32Cube_FW_N6/Drivers/STM32N6xx_HAL_Driver/Src/stm32n6xx_hal_cacheaxi.c ****   *                   the configuration information for the specified CACHEAXIx peripheral.
 900:STM32Cube_FW_N6/Drivers/STM32N6xx_HAL_Driver/Src/stm32n6xx_hal_cacheaxi.c ****   * @note   Upon reaching the 16-bit maximum value, monitor does not wrap.
 901:STM32Cube_FW_N6/Drivers/STM32N6xx_HAL_Driver/Src/stm32n6xx_hal_cacheaxi.c ****   * @retval Write-allocate Miss monitoring value
 902:STM32Cube_FW_N6/Drivers/STM32N6xx_HAL_Driver/Src/stm32n6xx_hal_cacheaxi.c ****   */
 903:STM32Cube_FW_N6/Drivers/STM32N6xx_HAL_Driver/Src/stm32n6xx_hal_cacheaxi.c **** uint32_t HAL_CACHEAXI_Monitor_GetWriteAllocMissValue(const CACHEAXI_HandleTypeDef *hcacheaxi)
 904:STM32Cube_FW_N6/Drivers/STM32N6xx_HAL_Driver/Src/stm32n6xx_hal_cacheaxi.c **** {
 1851              		.loc 1 904 1
 1852              		.cfi_startproc
 1853              		@ args = 0, pretend = 0, frame = 8
 1854              		@ frame_needed = 1, uses_anonymous_args = 0
 1855 0000 80B5     		push	{r7, lr}
 1856              		.cfi_def_cfa_offset 8
 1857              		.cfi_offset 7, -8
 1858              		.cfi_offset 14, -4
 1859 0002 82B0     		sub	sp, sp, #8
 1860              		.cfi_def_cfa_offset 16
 1861 0004 00AF     		add	r7, sp, #0
ARM GAS  /tmp/cc4w16ub.s 			page 49


 1862              		.cfi_def_cfa_register 7
 1863 0006 7860     		str	r0, [r7, #4]
 905:STM32Cube_FW_N6/Drivers/STM32N6xx_HAL_Driver/Src/stm32n6xx_hal_cacheaxi.c ****   /* Check the parameters */
 906:STM32Cube_FW_N6/Drivers/STM32N6xx_HAL_Driver/Src/stm32n6xx_hal_cacheaxi.c ****   assert_param(IS_CACHEAXI_ALL_INSTANCE(hcacheaxi->Instance));
 1864              		.loc 1 906 3
 1865 0008 7B68     		ldr	r3, [r7, #4]
 1866 000a 1B68     		ldr	r3, [r3]
 1867 000c 094A     		ldr	r2, .L135
 1868 000e 9342     		cmp	r3, r2
 1869 0010 09D0     		beq	.L133
 1870              		.loc 1 906 3 is_stmt 0 discriminator 1
 1871 0012 7B68     		ldr	r3, [r7, #4]
 1872 0014 1B68     		ldr	r3, [r3]
 1873 0016 084A     		ldr	r2, .L135+4
 1874 0018 9342     		cmp	r3, r2
 1875 001a 04D0     		beq	.L133
 1876              		.loc 1 906 3 discriminator 2
 1877 001c 40F28A31 		movw	r1, #906
 1878 0020 0648     		ldr	r0, .L135+8
 1879 0022 FFF7FEFF 		bl	assert_failed
 1880              	.L133:
 907:STM32Cube_FW_N6/Drivers/STM32N6xx_HAL_Driver/Src/stm32n6xx_hal_cacheaxi.c **** 
 908:STM32Cube_FW_N6/Drivers/STM32N6xx_HAL_Driver/Src/stm32n6xx_hal_cacheaxi.c ****   /*return the write-allocate Miss monitor value*/
 909:STM32Cube_FW_N6/Drivers/STM32N6xx_HAL_Driver/Src/stm32n6xx_hal_cacheaxi.c ****   return hcacheaxi->Instance->WAMMONR;
 1881              		.loc 1 909 19 is_stmt 1
 1882 0026 7B68     		ldr	r3, [r7, #4]
 1883 0028 1B68     		ldr	r3, [r3]
 1884              		.loc 1 909 29
 1885 002a 9B6A     		ldr	r3, [r3, #40]
 910:STM32Cube_FW_N6/Drivers/STM32N6xx_HAL_Driver/Src/stm32n6xx_hal_cacheaxi.c **** }
 1886              		.loc 1 910 1
 1887 002c 1846     		mov	r0, r3
 1888 002e 0837     		adds	r7, r7, #8
 1889              		.cfi_def_cfa_offset 8
 1890 0030 BD46     		mov	sp, r7
 1891              		.cfi_def_cfa_register 13
 1892              		@ sp needed
 1893 0032 80BD     		pop	{r7, pc}
 1894              	.L136:
 1895              		.align	2
 1896              	.L135:
 1897 0034 00FC0D58 		.word	1477311488
 1898 0038 00FC0D48 		.word	1208876032
 1899 003c 00000000 		.word	.LC0
 1900              		.cfi_endproc
 1901              	.LFE856:
 1903              		.section	.text.HAL_CACHEAXI_Monitor_GetWriteThroughValue,"ax",%progbits
 1904              		.align	1
 1905              		.global	HAL_CACHEAXI_Monitor_GetWriteThroughValue
 1906              		.syntax unified
 1907              		.thumb
 1908              		.thumb_func
 1910              	HAL_CACHEAXI_Monitor_GetWriteThroughValue:
 1911              	.LFB857:
 911:STM32Cube_FW_N6/Drivers/STM32N6xx_HAL_Driver/Src/stm32n6xx_hal_cacheaxi.c **** 
 912:STM32Cube_FW_N6/Drivers/STM32N6xx_HAL_Driver/Src/stm32n6xx_hal_cacheaxi.c **** /**
 913:STM32Cube_FW_N6/Drivers/STM32N6xx_HAL_Driver/Src/stm32n6xx_hal_cacheaxi.c ****   * @brief  Get the CACHEAXI performance Write-through monitoring value.
ARM GAS  /tmp/cc4w16ub.s 			page 50


 914:STM32Cube_FW_N6/Drivers/STM32N6xx_HAL_Driver/Src/stm32n6xx_hal_cacheaxi.c ****   * @param  hcacheaxi Pointer to a CACHEAXI_HandleTypeDef structure that contains
 915:STM32Cube_FW_N6/Drivers/STM32N6xx_HAL_Driver/Src/stm32n6xx_hal_cacheaxi.c ****   *                   the configuration information for the specified CACHEAXIx peripheral.
 916:STM32Cube_FW_N6/Drivers/STM32N6xx_HAL_Driver/Src/stm32n6xx_hal_cacheaxi.c ****   * @note   Upon reaching the 16-bit maximum value, monitor does not wrap.
 917:STM32Cube_FW_N6/Drivers/STM32N6xx_HAL_Driver/Src/stm32n6xx_hal_cacheaxi.c ****   * @retval Write-through monitoring value
 918:STM32Cube_FW_N6/Drivers/STM32N6xx_HAL_Driver/Src/stm32n6xx_hal_cacheaxi.c ****   */
 919:STM32Cube_FW_N6/Drivers/STM32N6xx_HAL_Driver/Src/stm32n6xx_hal_cacheaxi.c **** uint32_t HAL_CACHEAXI_Monitor_GetWriteThroughValue(const CACHEAXI_HandleTypeDef *hcacheaxi)
 920:STM32Cube_FW_N6/Drivers/STM32N6xx_HAL_Driver/Src/stm32n6xx_hal_cacheaxi.c **** {
 1912              		.loc 1 920 1
 1913              		.cfi_startproc
 1914              		@ args = 0, pretend = 0, frame = 8
 1915              		@ frame_needed = 1, uses_anonymous_args = 0
 1916 0000 80B5     		push	{r7, lr}
 1917              		.cfi_def_cfa_offset 8
 1918              		.cfi_offset 7, -8
 1919              		.cfi_offset 14, -4
 1920 0002 82B0     		sub	sp, sp, #8
 1921              		.cfi_def_cfa_offset 16
 1922 0004 00AF     		add	r7, sp, #0
 1923              		.cfi_def_cfa_register 7
 1924 0006 7860     		str	r0, [r7, #4]
 921:STM32Cube_FW_N6/Drivers/STM32N6xx_HAL_Driver/Src/stm32n6xx_hal_cacheaxi.c ****   /* Check the parameters */
 922:STM32Cube_FW_N6/Drivers/STM32N6xx_HAL_Driver/Src/stm32n6xx_hal_cacheaxi.c ****   assert_param(IS_CACHEAXI_ALL_INSTANCE(hcacheaxi->Instance));
 1925              		.loc 1 922 3
 1926 0008 7B68     		ldr	r3, [r7, #4]
 1927 000a 1B68     		ldr	r3, [r3]
 1928 000c 094A     		ldr	r2, .L140
 1929 000e 9342     		cmp	r3, r2
 1930 0010 09D0     		beq	.L138
 1931              		.loc 1 922 3 is_stmt 0 discriminator 1
 1932 0012 7B68     		ldr	r3, [r7, #4]
 1933 0014 1B68     		ldr	r3, [r3]
 1934 0016 084A     		ldr	r2, .L140+4
 1935 0018 9342     		cmp	r3, r2
 1936 001a 04D0     		beq	.L138
 1937              		.loc 1 922 3 discriminator 2
 1938 001c 40F29A31 		movw	r1, #922
 1939 0020 0648     		ldr	r0, .L140+8
 1940 0022 FFF7FEFF 		bl	assert_failed
 1941              	.L138:
 923:STM32Cube_FW_N6/Drivers/STM32N6xx_HAL_Driver/Src/stm32n6xx_hal_cacheaxi.c **** 
 924:STM32Cube_FW_N6/Drivers/STM32N6xx_HAL_Driver/Src/stm32n6xx_hal_cacheaxi.c ****   /*return the Write-through monitor value*/
 925:STM32Cube_FW_N6/Drivers/STM32N6xx_HAL_Driver/Src/stm32n6xx_hal_cacheaxi.c ****   return hcacheaxi->Instance->WTMONR;
 1942              		.loc 1 925 19 is_stmt 1
 1943 0026 7B68     		ldr	r3, [r7, #4]
 1944 0028 1B68     		ldr	r3, [r3]
 1945              		.loc 1 925 29
 1946 002a DB6A     		ldr	r3, [r3, #44]
 926:STM32Cube_FW_N6/Drivers/STM32N6xx_HAL_Driver/Src/stm32n6xx_hal_cacheaxi.c **** }
 1947              		.loc 1 926 1
 1948 002c 1846     		mov	r0, r3
 1949 002e 0837     		adds	r7, r7, #8
 1950              		.cfi_def_cfa_offset 8
 1951 0030 BD46     		mov	sp, r7
 1952              		.cfi_def_cfa_register 13
 1953              		@ sp needed
 1954 0032 80BD     		pop	{r7, pc}
 1955              	.L141:
ARM GAS  /tmp/cc4w16ub.s 			page 51


 1956              		.align	2
 1957              	.L140:
 1958 0034 00FC0D58 		.word	1477311488
 1959 0038 00FC0D48 		.word	1208876032
 1960 003c 00000000 		.word	.LC0
 1961              		.cfi_endproc
 1962              	.LFE857:
 1964              		.section	.text.HAL_CACHEAXI_Monitor_GetEvictionValue,"ax",%progbits
 1965              		.align	1
 1966              		.global	HAL_CACHEAXI_Monitor_GetEvictionValue
 1967              		.syntax unified
 1968              		.thumb
 1969              		.thumb_func
 1971              	HAL_CACHEAXI_Monitor_GetEvictionValue:
 1972              	.LFB858:
 927:STM32Cube_FW_N6/Drivers/STM32N6xx_HAL_Driver/Src/stm32n6xx_hal_cacheaxi.c **** 
 928:STM32Cube_FW_N6/Drivers/STM32N6xx_HAL_Driver/Src/stm32n6xx_hal_cacheaxi.c **** /**
 929:STM32Cube_FW_N6/Drivers/STM32N6xx_HAL_Driver/Src/stm32n6xx_hal_cacheaxi.c ****   * @brief  Get the CACHEAXI performance Eviction Miss monitoring value.
 930:STM32Cube_FW_N6/Drivers/STM32N6xx_HAL_Driver/Src/stm32n6xx_hal_cacheaxi.c ****   * @param  hcacheaxi Pointer to a CACHEAXI_HandleTypeDef structure that contains
 931:STM32Cube_FW_N6/Drivers/STM32N6xx_HAL_Driver/Src/stm32n6xx_hal_cacheaxi.c ****   *                   the configuration information for the specified CACHEAXIx peripheral.
 932:STM32Cube_FW_N6/Drivers/STM32N6xx_HAL_Driver/Src/stm32n6xx_hal_cacheaxi.c ****   * @note   Upon reaching the 16-bit maximum value, monitor does not wrap.
 933:STM32Cube_FW_N6/Drivers/STM32N6xx_HAL_Driver/Src/stm32n6xx_hal_cacheaxi.c ****   * @retval Eviction monitoring value
 934:STM32Cube_FW_N6/Drivers/STM32N6xx_HAL_Driver/Src/stm32n6xx_hal_cacheaxi.c ****   */
 935:STM32Cube_FW_N6/Drivers/STM32N6xx_HAL_Driver/Src/stm32n6xx_hal_cacheaxi.c **** uint32_t HAL_CACHEAXI_Monitor_GetEvictionValue(const CACHEAXI_HandleTypeDef *hcacheaxi)
 936:STM32Cube_FW_N6/Drivers/STM32N6xx_HAL_Driver/Src/stm32n6xx_hal_cacheaxi.c **** {
 1973              		.loc 1 936 1
 1974              		.cfi_startproc
 1975              		@ args = 0, pretend = 0, frame = 8
 1976              		@ frame_needed = 1, uses_anonymous_args = 0
 1977 0000 80B5     		push	{r7, lr}
 1978              		.cfi_def_cfa_offset 8
 1979              		.cfi_offset 7, -8
 1980              		.cfi_offset 14, -4
 1981 0002 82B0     		sub	sp, sp, #8
 1982              		.cfi_def_cfa_offset 16
 1983 0004 00AF     		add	r7, sp, #0
 1984              		.cfi_def_cfa_register 7
 1985 0006 7860     		str	r0, [r7, #4]
 937:STM32Cube_FW_N6/Drivers/STM32N6xx_HAL_Driver/Src/stm32n6xx_hal_cacheaxi.c ****   /* Check the parameters */
 938:STM32Cube_FW_N6/Drivers/STM32N6xx_HAL_Driver/Src/stm32n6xx_hal_cacheaxi.c ****   assert_param(IS_CACHEAXI_ALL_INSTANCE(hcacheaxi->Instance));
 1986              		.loc 1 938 3
 1987 0008 7B68     		ldr	r3, [r7, #4]
 1988 000a 1B68     		ldr	r3, [r3]
 1989 000c 094A     		ldr	r2, .L145
 1990 000e 9342     		cmp	r3, r2
 1991 0010 09D0     		beq	.L143
 1992              		.loc 1 938 3 is_stmt 0 discriminator 1
 1993 0012 7B68     		ldr	r3, [r7, #4]
 1994 0014 1B68     		ldr	r3, [r3]
 1995 0016 084A     		ldr	r2, .L145+4
 1996 0018 9342     		cmp	r3, r2
 1997 001a 04D0     		beq	.L143
 1998              		.loc 1 938 3 discriminator 2
 1999 001c 40F2AA31 		movw	r1, #938
 2000 0020 0648     		ldr	r0, .L145+8
 2001 0022 FFF7FEFF 		bl	assert_failed
 2002              	.L143:
ARM GAS  /tmp/cc4w16ub.s 			page 52


 939:STM32Cube_FW_N6/Drivers/STM32N6xx_HAL_Driver/Src/stm32n6xx_hal_cacheaxi.c **** 
 940:STM32Cube_FW_N6/Drivers/STM32N6xx_HAL_Driver/Src/stm32n6xx_hal_cacheaxi.c ****   /*return the Eviction  monitor value*/
 941:STM32Cube_FW_N6/Drivers/STM32N6xx_HAL_Driver/Src/stm32n6xx_hal_cacheaxi.c ****   return hcacheaxi->Instance->EVIMONR;
 2003              		.loc 1 941 19 is_stmt 1
 2004 0026 7B68     		ldr	r3, [r7, #4]
 2005 0028 1B68     		ldr	r3, [r3]
 2006              		.loc 1 941 29
 2007 002a DB69     		ldr	r3, [r3, #28]
 942:STM32Cube_FW_N6/Drivers/STM32N6xx_HAL_Driver/Src/stm32n6xx_hal_cacheaxi.c **** }
 2008              		.loc 1 942 1
 2009 002c 1846     		mov	r0, r3
 2010 002e 0837     		adds	r7, r7, #8
 2011              		.cfi_def_cfa_offset 8
 2012 0030 BD46     		mov	sp, r7
 2013              		.cfi_def_cfa_register 13
 2014              		@ sp needed
 2015 0032 80BD     		pop	{r7, pc}
 2016              	.L146:
 2017              		.align	2
 2018              	.L145:
 2019 0034 00FC0D58 		.word	1477311488
 2020 0038 00FC0D48 		.word	1208876032
 2021 003c 00000000 		.word	.LC0
 2022              		.cfi_endproc
 2023              	.LFE858:
 2025              		.section	.text.HAL_CACHEAXI_IRQHandler,"ax",%progbits
 2026              		.align	1
 2027              		.global	HAL_CACHEAXI_IRQHandler
 2028              		.syntax unified
 2029              		.thumb
 2030              		.thumb_func
 2032              	HAL_CACHEAXI_IRQHandler:
 2033              	.LFB859:
 943:STM32Cube_FW_N6/Drivers/STM32N6xx_HAL_Driver/Src/stm32n6xx_hal_cacheaxi.c **** 
 944:STM32Cube_FW_N6/Drivers/STM32N6xx_HAL_Driver/Src/stm32n6xx_hal_cacheaxi.c **** /**
 945:STM32Cube_FW_N6/Drivers/STM32N6xx_HAL_Driver/Src/stm32n6xx_hal_cacheaxi.c ****   * @brief Handle the CACHEAXI interrupt request.
 946:STM32Cube_FW_N6/Drivers/STM32N6xx_HAL_Driver/Src/stm32n6xx_hal_cacheaxi.c ****   * @param  hcacheaxi Pointer to a CACHEAXI_HandleTypeDef structure that contains
 947:STM32Cube_FW_N6/Drivers/STM32N6xx_HAL_Driver/Src/stm32n6xx_hal_cacheaxi.c ****   *                   the configuration information for the specified CACHEAXIx peripheral.
 948:STM32Cube_FW_N6/Drivers/STM32N6xx_HAL_Driver/Src/stm32n6xx_hal_cacheaxi.c ****   * @note  This API should be called under the CACHEAXIx_IRQHandler().
 949:STM32Cube_FW_N6/Drivers/STM32N6xx_HAL_Driver/Src/stm32n6xx_hal_cacheaxi.c ****   * @retval None
 950:STM32Cube_FW_N6/Drivers/STM32N6xx_HAL_Driver/Src/stm32n6xx_hal_cacheaxi.c ****   */
 951:STM32Cube_FW_N6/Drivers/STM32N6xx_HAL_Driver/Src/stm32n6xx_hal_cacheaxi.c **** void HAL_CACHEAXI_IRQHandler(CACHEAXI_HandleTypeDef *hcacheaxi)
 952:STM32Cube_FW_N6/Drivers/STM32N6xx_HAL_Driver/Src/stm32n6xx_hal_cacheaxi.c **** {
 2034              		.loc 1 952 1
 2035              		.cfi_startproc
 2036              		@ args = 0, pretend = 0, frame = 16
 2037              		@ frame_needed = 1, uses_anonymous_args = 0
 2038 0000 80B5     		push	{r7, lr}
 2039              		.cfi_def_cfa_offset 8
 2040              		.cfi_offset 7, -8
 2041              		.cfi_offset 14, -4
 2042 0002 84B0     		sub	sp, sp, #16
 2043              		.cfi_def_cfa_offset 24
 2044 0004 00AF     		add	r7, sp, #0
 2045              		.cfi_def_cfa_register 7
 2046 0006 7860     		str	r0, [r7, #4]
 953:STM32Cube_FW_N6/Drivers/STM32N6xx_HAL_Driver/Src/stm32n6xx_hal_cacheaxi.c ****   uint32_t itflags;
ARM GAS  /tmp/cc4w16ub.s 			page 53


 954:STM32Cube_FW_N6/Drivers/STM32N6xx_HAL_Driver/Src/stm32n6xx_hal_cacheaxi.c ****   uint32_t itsources;
 955:STM32Cube_FW_N6/Drivers/STM32N6xx_HAL_Driver/Src/stm32n6xx_hal_cacheaxi.c **** 
 956:STM32Cube_FW_N6/Drivers/STM32N6xx_HAL_Driver/Src/stm32n6xx_hal_cacheaxi.c ****   /* Check the parameters */
 957:STM32Cube_FW_N6/Drivers/STM32N6xx_HAL_Driver/Src/stm32n6xx_hal_cacheaxi.c ****   assert_param(IS_CACHEAXI_ALL_INSTANCE(hcacheaxi->Instance));
 2047              		.loc 1 957 3
 2048 0008 7B68     		ldr	r3, [r7, #4]
 2049 000a 1B68     		ldr	r3, [r3]
 2050 000c 274A     		ldr	r2, .L154
 2051 000e 9342     		cmp	r3, r2
 2052 0010 09D0     		beq	.L148
 2053              		.loc 1 957 3 is_stmt 0 discriminator 1
 2054 0012 7B68     		ldr	r3, [r7, #4]
 2055 0014 1B68     		ldr	r3, [r3]
 2056 0016 264A     		ldr	r2, .L154+4
 2057 0018 9342     		cmp	r3, r2
 2058 001a 04D0     		beq	.L148
 2059              		.loc 1 957 3 discriminator 2
 2060 001c 40F2BD31 		movw	r1, #957
 2061 0020 2448     		ldr	r0, .L154+8
 2062 0022 FFF7FEFF 		bl	assert_failed
 2063              	.L148:
 958:STM32Cube_FW_N6/Drivers/STM32N6xx_HAL_Driver/Src/stm32n6xx_hal_cacheaxi.c **** 
 959:STM32Cube_FW_N6/Drivers/STM32N6xx_HAL_Driver/Src/stm32n6xx_hal_cacheaxi.c ****   /* Get current interrupt flags and interrupt sources value */
 960:STM32Cube_FW_N6/Drivers/STM32N6xx_HAL_Driver/Src/stm32n6xx_hal_cacheaxi.c ****   itflags   = READ_REG(hcacheaxi->Instance->SR);
 2064              		.loc 1 960 15 is_stmt 1
 2065 0026 7B68     		ldr	r3, [r7, #4]
 2066 0028 1B68     		ldr	r3, [r3]
 2067              		.loc 1 960 13
 2068 002a 5B68     		ldr	r3, [r3, #4]
 2069 002c FB60     		str	r3, [r7, #12]
 961:STM32Cube_FW_N6/Drivers/STM32N6xx_HAL_Driver/Src/stm32n6xx_hal_cacheaxi.c ****   itsources = READ_REG(hcacheaxi->Instance->IER);
 2070              		.loc 1 961 15
 2071 002e 7B68     		ldr	r3, [r7, #4]
 2072 0030 1B68     		ldr	r3, [r3]
 2073              		.loc 1 961 13
 2074 0032 9B68     		ldr	r3, [r3, #8]
 2075 0034 BB60     		str	r3, [r7, #8]
 962:STM32Cube_FW_N6/Drivers/STM32N6xx_HAL_Driver/Src/stm32n6xx_hal_cacheaxi.c **** 
 963:STM32Cube_FW_N6/Drivers/STM32N6xx_HAL_Driver/Src/stm32n6xx_hal_cacheaxi.c ****   /* Check Data cache Error interrupt flag  */
 964:STM32Cube_FW_N6/Drivers/STM32N6xx_HAL_Driver/Src/stm32n6xx_hal_cacheaxi.c ****   if (((itflags & itsources) & CACHEAXI_FLAG_ERROR) != 0U)
 2076              		.loc 1 964 17
 2077 0036 FA68     		ldr	r2, [r7, #12]
 2078 0038 BB68     		ldr	r3, [r7, #8]
 2079 003a 1340     		ands	r3, r3, r2
 2080              		.loc 1 964 30
 2081 003c 03F00403 		and	r3, r3, #4
 2082              		.loc 1 964 6
 2083 0040 002B     		cmp	r3, #0
 2084 0042 09D0     		beq	.L149
 965:STM32Cube_FW_N6/Drivers/STM32N6xx_HAL_Driver/Src/stm32n6xx_hal_cacheaxi.c ****   {
 966:STM32Cube_FW_N6/Drivers/STM32N6xx_HAL_Driver/Src/stm32n6xx_hal_cacheaxi.c ****     /* Clear CACHEAXI error pending flag */
 967:STM32Cube_FW_N6/Drivers/STM32N6xx_HAL_Driver/Src/stm32n6xx_hal_cacheaxi.c ****     __HAL_CACHEAXI_CLEAR_FLAG(hcacheaxi, CACHEAXI_FLAG_ERROR);
 2085              		.loc 1 967 5
 2086 0044 7B68     		ldr	r3, [r7, #4]
 2087 0046 1B68     		ldr	r3, [r3]
 2088 0048 0422     		movs	r2, #4
 2089 004a DA60     		str	r2, [r3, #12]
ARM GAS  /tmp/cc4w16ub.s 			page 54


 968:STM32Cube_FW_N6/Drivers/STM32N6xx_HAL_Driver/Src/stm32n6xx_hal_cacheaxi.c **** 
 969:STM32Cube_FW_N6/Drivers/STM32N6xx_HAL_Driver/Src/stm32n6xx_hal_cacheaxi.c ****     /* Update data cache error code */
 970:STM32Cube_FW_N6/Drivers/STM32N6xx_HAL_Driver/Src/stm32n6xx_hal_cacheaxi.c ****     hcacheaxi->ErrorCode = HAL_CACHEAXI_ERROR_EVICTION_CLEAN;
 2090              		.loc 1 970 26
 2091 004c 7B68     		ldr	r3, [r7, #4]
 2092 004e 2022     		movs	r2, #32
 2093 0050 9A60     		str	r2, [r3, #8]
 971:STM32Cube_FW_N6/Drivers/STM32N6xx_HAL_Driver/Src/stm32n6xx_hal_cacheaxi.c **** 
 972:STM32Cube_FW_N6/Drivers/STM32N6xx_HAL_Driver/Src/stm32n6xx_hal_cacheaxi.c **** #if (USE_HAL_CACHEAXI_REGISTER_CALLBACKS == 1)
 973:STM32Cube_FW_N6/Drivers/STM32N6xx_HAL_Driver/Src/stm32n6xx_hal_cacheaxi.c ****     /* Data cache error interrupt user callback */
 974:STM32Cube_FW_N6/Drivers/STM32N6xx_HAL_Driver/Src/stm32n6xx_hal_cacheaxi.c ****     hcacheaxi->ErrorCallback(hcacheaxi);
 975:STM32Cube_FW_N6/Drivers/STM32N6xx_HAL_Driver/Src/stm32n6xx_hal_cacheaxi.c **** #else
 976:STM32Cube_FW_N6/Drivers/STM32N6xx_HAL_Driver/Src/stm32n6xx_hal_cacheaxi.c ****     /* Data cache error interrupt user callback */
 977:STM32Cube_FW_N6/Drivers/STM32N6xx_HAL_Driver/Src/stm32n6xx_hal_cacheaxi.c ****     HAL_CACHEAXI_ErrorCallback(hcacheaxi);
 2094              		.loc 1 977 5
 2095 0052 7868     		ldr	r0, [r7, #4]
 2096 0054 FFF7FEFF 		bl	HAL_CACHEAXI_ErrorCallback
 2097              	.L149:
 978:STM32Cube_FW_N6/Drivers/STM32N6xx_HAL_Driver/Src/stm32n6xx_hal_cacheaxi.c **** #endif /* USE_HAL_CACHEAXI_REGISTER_CALLBACKS */
 979:STM32Cube_FW_N6/Drivers/STM32N6xx_HAL_Driver/Src/stm32n6xx_hal_cacheaxi.c ****   }
 980:STM32Cube_FW_N6/Drivers/STM32N6xx_HAL_Driver/Src/stm32n6xx_hal_cacheaxi.c ****   /* Check for end of full invalidate operation */
 981:STM32Cube_FW_N6/Drivers/STM32N6xx_HAL_Driver/Src/stm32n6xx_hal_cacheaxi.c ****   if (READ_BIT(hcacheaxi->Instance->CR2, CACHEAXI_CR2_CACHECMD) == 0U)
 2098              		.loc 1 981 7
 2099 0058 7B68     		ldr	r3, [r7, #4]
 2100 005a 1B68     		ldr	r3, [r3]
 2101 005c D3F80031 		ldr	r3, [r3, #256]
 2102 0060 03F00603 		and	r3, r3, #6
 2103              		.loc 1 981 6
 2104 0064 002B     		cmp	r3, #0
 2105 0066 07D1     		bne	.L150
 982:STM32Cube_FW_N6/Drivers/STM32N6xx_HAL_Driver/Src/stm32n6xx_hal_cacheaxi.c ****   {
 983:STM32Cube_FW_N6/Drivers/STM32N6xx_HAL_Driver/Src/stm32n6xx_hal_cacheaxi.c ****     /* Clear CACHEAXI busyend pending flag */
 984:STM32Cube_FW_N6/Drivers/STM32N6xx_HAL_Driver/Src/stm32n6xx_hal_cacheaxi.c ****     __HAL_CACHEAXI_CLEAR_FLAG(hcacheaxi, CACHEAXI_FLAG_BUSYEND);
 2106              		.loc 1 984 5
 2107 0068 7B68     		ldr	r3, [r7, #4]
 2108 006a 1B68     		ldr	r3, [r3]
 2109 006c 0222     		movs	r2, #2
 2110 006e DA60     		str	r2, [r3, #12]
 985:STM32Cube_FW_N6/Drivers/STM32N6xx_HAL_Driver/Src/stm32n6xx_hal_cacheaxi.c **** 
 986:STM32Cube_FW_N6/Drivers/STM32N6xx_HAL_Driver/Src/stm32n6xx_hal_cacheaxi.c **** #if (USE_HAL_CACHEAXI_REGISTER_CALLBACKS == 1)
 987:STM32Cube_FW_N6/Drivers/STM32N6xx_HAL_Driver/Src/stm32n6xx_hal_cacheaxi.c ****     /* Data cache invalidate complete interrupt user callback */
 988:STM32Cube_FW_N6/Drivers/STM32N6xx_HAL_Driver/Src/stm32n6xx_hal_cacheaxi.c ****     hcacheaxi->InvalidateCompleteCallback(hcacheaxi);
 989:STM32Cube_FW_N6/Drivers/STM32N6xx_HAL_Driver/Src/stm32n6xx_hal_cacheaxi.c **** #else
 990:STM32Cube_FW_N6/Drivers/STM32N6xx_HAL_Driver/Src/stm32n6xx_hal_cacheaxi.c ****     /* Data cache invalidate complete interrupt user callback */
 991:STM32Cube_FW_N6/Drivers/STM32N6xx_HAL_Driver/Src/stm32n6xx_hal_cacheaxi.c ****     HAL_CACHEAXI_InvalidateCompleteCallback(hcacheaxi);
 2111              		.loc 1 991 5
 2112 0070 7868     		ldr	r0, [r7, #4]
 2113 0072 FFF7FEFF 		bl	HAL_CACHEAXI_InvalidateCompleteCallback
 992:STM32Cube_FW_N6/Drivers/STM32N6xx_HAL_Driver/Src/stm32n6xx_hal_cacheaxi.c **** #endif /* USE_HAL_CACHEAXI_REGISTER_CALLBACKS */
 993:STM32Cube_FW_N6/Drivers/STM32N6xx_HAL_Driver/Src/stm32n6xx_hal_cacheaxi.c ****   }
 994:STM32Cube_FW_N6/Drivers/STM32N6xx_HAL_Driver/Src/stm32n6xx_hal_cacheaxi.c **** 
 995:STM32Cube_FW_N6/Drivers/STM32N6xx_HAL_Driver/Src/stm32n6xx_hal_cacheaxi.c ****   /* Check for end of clean and invalidate by address operation */
 996:STM32Cube_FW_N6/Drivers/STM32N6xx_HAL_Driver/Src/stm32n6xx_hal_cacheaxi.c ****   else if (READ_BIT(hcacheaxi->Instance->CR1, CACHEAXI_COMMAND_CLEAN_INVALIDATE) == \
 997:STM32Cube_FW_N6/Drivers/STM32N6xx_HAL_Driver/Src/stm32n6xx_hal_cacheaxi.c ****            (CACHEAXI_COMMAND_CLEAN_INVALIDATE))
 998:STM32Cube_FW_N6/Drivers/STM32N6xx_HAL_Driver/Src/stm32n6xx_hal_cacheaxi.c ****   {
 999:STM32Cube_FW_N6/Drivers/STM32N6xx_HAL_Driver/Src/stm32n6xx_hal_cacheaxi.c ****     /* Clear CACHEAXI cmdend pending flag */
1000:STM32Cube_FW_N6/Drivers/STM32N6xx_HAL_Driver/Src/stm32n6xx_hal_cacheaxi.c ****     __HAL_CACHEAXI_CLEAR_FLAG(hcacheaxi, CACHEAXI_FLAG_CMDEND);
ARM GAS  /tmp/cc4w16ub.s 			page 55


1001:STM32Cube_FW_N6/Drivers/STM32N6xx_HAL_Driver/Src/stm32n6xx_hal_cacheaxi.c **** 
1002:STM32Cube_FW_N6/Drivers/STM32N6xx_HAL_Driver/Src/stm32n6xx_hal_cacheaxi.c **** #if (USE_HAL_CACHEAXI_REGISTER_CALLBACKS == 1)
1003:STM32Cube_FW_N6/Drivers/STM32N6xx_HAL_Driver/Src/stm32n6xx_hal_cacheaxi.c ****     /* Data cache clean and invalidate range cmdend interrupt user callback */
1004:STM32Cube_FW_N6/Drivers/STM32N6xx_HAL_Driver/Src/stm32n6xx_hal_cacheaxi.c ****     hcacheaxi->CleanAndInvalidateByAddrCallback(hcacheaxi);
1005:STM32Cube_FW_N6/Drivers/STM32N6xx_HAL_Driver/Src/stm32n6xx_hal_cacheaxi.c **** #else
1006:STM32Cube_FW_N6/Drivers/STM32N6xx_HAL_Driver/Src/stm32n6xx_hal_cacheaxi.c ****     /* Data cache clean and invalidate range cmdend interrupt user callback */
1007:STM32Cube_FW_N6/Drivers/STM32N6xx_HAL_Driver/Src/stm32n6xx_hal_cacheaxi.c ****     HAL_CACHEAXI_CleanAndInvalidateByAddrCallback(hcacheaxi);
1008:STM32Cube_FW_N6/Drivers/STM32N6xx_HAL_Driver/Src/stm32n6xx_hal_cacheaxi.c **** #endif /* USE_HAL_CACHEAXI_REGISTER_CALLBACKS */
1009:STM32Cube_FW_N6/Drivers/STM32N6xx_HAL_Driver/Src/stm32n6xx_hal_cacheaxi.c ****   }
1010:STM32Cube_FW_N6/Drivers/STM32N6xx_HAL_Driver/Src/stm32n6xx_hal_cacheaxi.c **** 
1011:STM32Cube_FW_N6/Drivers/STM32N6xx_HAL_Driver/Src/stm32n6xx_hal_cacheaxi.c ****   /* Check for end of clean by address operation */
1012:STM32Cube_FW_N6/Drivers/STM32N6xx_HAL_Driver/Src/stm32n6xx_hal_cacheaxi.c ****   else
1013:STM32Cube_FW_N6/Drivers/STM32N6xx_HAL_Driver/Src/stm32n6xx_hal_cacheaxi.c ****   {
1014:STM32Cube_FW_N6/Drivers/STM32N6xx_HAL_Driver/Src/stm32n6xx_hal_cacheaxi.c ****     /* Clear CACHEAXI cmdend pending flag */
1015:STM32Cube_FW_N6/Drivers/STM32N6xx_HAL_Driver/Src/stm32n6xx_hal_cacheaxi.c ****     __HAL_CACHEAXI_CLEAR_FLAG(hcacheaxi, CACHEAXI_FLAG_CMDEND);
1016:STM32Cube_FW_N6/Drivers/STM32N6xx_HAL_Driver/Src/stm32n6xx_hal_cacheaxi.c **** 
1017:STM32Cube_FW_N6/Drivers/STM32N6xx_HAL_Driver/Src/stm32n6xx_hal_cacheaxi.c **** #if (USE_HAL_CACHEAXI_REGISTER_CALLBACKS == 1)
1018:STM32Cube_FW_N6/Drivers/STM32N6xx_HAL_Driver/Src/stm32n6xx_hal_cacheaxi.c ****     /* Data cache clean range cmdend interrupt user callback */
1019:STM32Cube_FW_N6/Drivers/STM32N6xx_HAL_Driver/Src/stm32n6xx_hal_cacheaxi.c ****     hcacheaxi->CleanByAddrCallback(hcacheaxi);
1020:STM32Cube_FW_N6/Drivers/STM32N6xx_HAL_Driver/Src/stm32n6xx_hal_cacheaxi.c **** #else
1021:STM32Cube_FW_N6/Drivers/STM32N6xx_HAL_Driver/Src/stm32n6xx_hal_cacheaxi.c ****     /* Data cache clean range cmdend interrupt user callback */
1022:STM32Cube_FW_N6/Drivers/STM32N6xx_HAL_Driver/Src/stm32n6xx_hal_cacheaxi.c ****     HAL_CACHEAXI_CleanByAddrCallback(hcacheaxi);
1023:STM32Cube_FW_N6/Drivers/STM32N6xx_HAL_Driver/Src/stm32n6xx_hal_cacheaxi.c **** #endif /* USE_HAL_CACHEAXI_REGISTER_CALLBACKS */
1024:STM32Cube_FW_N6/Drivers/STM32N6xx_HAL_Driver/Src/stm32n6xx_hal_cacheaxi.c ****   }
1025:STM32Cube_FW_N6/Drivers/STM32N6xx_HAL_Driver/Src/stm32n6xx_hal_cacheaxi.c **** }
 2114              		.loc 1 1025 1
 2115 0076 15E0     		b	.L153
 2116              	.L150:
 996:STM32Cube_FW_N6/Drivers/STM32N6xx_HAL_Driver/Src/stm32n6xx_hal_cacheaxi.c ****            (CACHEAXI_COMMAND_CLEAN_INVALIDATE))
 2117              		.loc 1 996 12
 2118 0078 7B68     		ldr	r3, [r7, #4]
 2119 007a 1B68     		ldr	r3, [r3]
 2120 007c 1B68     		ldr	r3, [r3]
 2121 007e 03F00603 		and	r3, r3, #6
 996:STM32Cube_FW_N6/Drivers/STM32N6xx_HAL_Driver/Src/stm32n6xx_hal_cacheaxi.c ****            (CACHEAXI_COMMAND_CLEAN_INVALIDATE))
 2122              		.loc 1 996 11
 2123 0082 062B     		cmp	r3, #6
 2124 0084 07D1     		bne	.L152
1000:STM32Cube_FW_N6/Drivers/STM32N6xx_HAL_Driver/Src/stm32n6xx_hal_cacheaxi.c **** 
 2125              		.loc 1 1000 5
 2126 0086 7B68     		ldr	r3, [r7, #4]
 2127 0088 1B68     		ldr	r3, [r3]
 2128 008a 1022     		movs	r2, #16
 2129 008c DA60     		str	r2, [r3, #12]
1007:STM32Cube_FW_N6/Drivers/STM32N6xx_HAL_Driver/Src/stm32n6xx_hal_cacheaxi.c **** #endif /* USE_HAL_CACHEAXI_REGISTER_CALLBACKS */
 2130              		.loc 1 1007 5
 2131 008e 7868     		ldr	r0, [r7, #4]
 2132 0090 FFF7FEFF 		bl	HAL_CACHEAXI_CleanAndInvalidateByAddrCallback
 2133              		.loc 1 1025 1
 2134 0094 06E0     		b	.L153
 2135              	.L152:
1015:STM32Cube_FW_N6/Drivers/STM32N6xx_HAL_Driver/Src/stm32n6xx_hal_cacheaxi.c **** 
 2136              		.loc 1 1015 5
 2137 0096 7B68     		ldr	r3, [r7, #4]
 2138 0098 1B68     		ldr	r3, [r3]
 2139 009a 1022     		movs	r2, #16
 2140 009c DA60     		str	r2, [r3, #12]
ARM GAS  /tmp/cc4w16ub.s 			page 56


1022:STM32Cube_FW_N6/Drivers/STM32N6xx_HAL_Driver/Src/stm32n6xx_hal_cacheaxi.c **** #endif /* USE_HAL_CACHEAXI_REGISTER_CALLBACKS */
 2141              		.loc 1 1022 5
 2142 009e 7868     		ldr	r0, [r7, #4]
 2143 00a0 FFF7FEFF 		bl	HAL_CACHEAXI_CleanByAddrCallback
 2144              	.L153:
 2145              		.loc 1 1025 1
 2146 00a4 00BF     		nop
 2147 00a6 1037     		adds	r7, r7, #16
 2148              		.cfi_def_cfa_offset 8
 2149 00a8 BD46     		mov	sp, r7
 2150              		.cfi_def_cfa_register 13
 2151              		@ sp needed
 2152 00aa 80BD     		pop	{r7, pc}
 2153              	.L155:
 2154              		.align	2
 2155              	.L154:
 2156 00ac 00FC0D58 		.word	1477311488
 2157 00b0 00FC0D48 		.word	1208876032
 2158 00b4 00000000 		.word	.LC0
 2159              		.cfi_endproc
 2160              	.LFE859:
 2162              		.section	.text.HAL_CACHEAXI_CleanByAddrCallback,"ax",%progbits
 2163              		.align	1
 2164              		.weak	HAL_CACHEAXI_CleanByAddrCallback
 2165              		.syntax unified
 2166              		.thumb
 2167              		.thumb_func
 2169              	HAL_CACHEAXI_CleanByAddrCallback:
 2170              	.LFB860:
1026:STM32Cube_FW_N6/Drivers/STM32N6xx_HAL_Driver/Src/stm32n6xx_hal_cacheaxi.c **** 
1027:STM32Cube_FW_N6/Drivers/STM32N6xx_HAL_Driver/Src/stm32n6xx_hal_cacheaxi.c **** #if (USE_HAL_CACHEAXI_REGISTER_CALLBACKS == 1)
1028:STM32Cube_FW_N6/Drivers/STM32N6xx_HAL_Driver/Src/stm32n6xx_hal_cacheaxi.c **** /**
1029:STM32Cube_FW_N6/Drivers/STM32N6xx_HAL_Driver/Src/stm32n6xx_hal_cacheaxi.c ****   * @brief  Register a User CACHEAXI Callback
1030:STM32Cube_FW_N6/Drivers/STM32N6xx_HAL_Driver/Src/stm32n6xx_hal_cacheaxi.c ****   *         To be used instead of the weak predefined callback
1031:STM32Cube_FW_N6/Drivers/STM32N6xx_HAL_Driver/Src/stm32n6xx_hal_cacheaxi.c ****   * @param  hcacheaxi Pointer to a CACHEAXI_HandleTypeDef structure that contains
1032:STM32Cube_FW_N6/Drivers/STM32N6xx_HAL_Driver/Src/stm32n6xx_hal_cacheaxi.c ****   *                   the configuration information for the specified CACHEAXIx peripheral.
1033:STM32Cube_FW_N6/Drivers/STM32N6xx_HAL_Driver/Src/stm32n6xx_hal_cacheaxi.c ****   * @param  CallbackID ID of the callback to be registered
1034:STM32Cube_FW_N6/Drivers/STM32N6xx_HAL_Driver/Src/stm32n6xx_hal_cacheaxi.c ****   *         This parameter can be one of the following values:
1035:STM32Cube_FW_N6/Drivers/STM32N6xx_HAL_Driver/Src/stm32n6xx_hal_cacheaxi.c ****   *          @arg @ref HAL_CACHEAXI_CLEAN_BY_ADDRESS_CB_ID Clean By Addr callback ID
1036:STM32Cube_FW_N6/Drivers/STM32N6xx_HAL_Driver/Src/stm32n6xx_hal_cacheaxi.c ****   *          @arg @ref HAL_CACHEAXI_INVALIDATE_BY_ADDRESS_CB_ID Invalidate By Addr callback ID
1037:STM32Cube_FW_N6/Drivers/STM32N6xx_HAL_Driver/Src/stm32n6xx_hal_cacheaxi.c ****   *          @arg @ref HAL_CACHEAXI_CLEAN_AND_INVALIDATE_BY_ADDRESS_CB_ID Clean and Invalidate By A
1038:STM32Cube_FW_N6/Drivers/STM32N6xx_HAL_Driver/Src/stm32n6xx_hal_cacheaxi.c ****   *          @arg @ref HAL_CACHEAXI_INVALIDATE_COMPLETE_CB_ID Invalidate Complete ID
1039:STM32Cube_FW_N6/Drivers/STM32N6xx_HAL_Driver/Src/stm32n6xx_hal_cacheaxi.c ****   *          @arg @ref HAL_CACHEAXI_ERROR_CB_ID  Error callback ID
1040:STM32Cube_FW_N6/Drivers/STM32N6xx_HAL_Driver/Src/stm32n6xx_hal_cacheaxi.c ****   *          @arg @ref HAL_CACHEAXI_MSPINIT_CB_ID MspInit callback ID
1041:STM32Cube_FW_N6/Drivers/STM32N6xx_HAL_Driver/Src/stm32n6xx_hal_cacheaxi.c ****   *          @arg @ref HAL_CACHEAXI_MSPDEINIT_CB_ID MspDeInit callback ID
1042:STM32Cube_FW_N6/Drivers/STM32N6xx_HAL_Driver/Src/stm32n6xx_hal_cacheaxi.c ****   * @param  pCallback pointer to the Callback function
1043:STM32Cube_FW_N6/Drivers/STM32N6xx_HAL_Driver/Src/stm32n6xx_hal_cacheaxi.c ****   * @retval HAL status
1044:STM32Cube_FW_N6/Drivers/STM32N6xx_HAL_Driver/Src/stm32n6xx_hal_cacheaxi.c ****   */
1045:STM32Cube_FW_N6/Drivers/STM32N6xx_HAL_Driver/Src/stm32n6xx_hal_cacheaxi.c **** HAL_StatusTypeDef HAL_CACHEAXI_RegisterCallback(CACHEAXI_HandleTypeDef *hcacheaxi,
1046:STM32Cube_FW_N6/Drivers/STM32N6xx_HAL_Driver/Src/stm32n6xx_hal_cacheaxi.c ****                                                 HAL_CACHEAXI_CallbackIDTypeDef CallbackID,
1047:STM32Cube_FW_N6/Drivers/STM32N6xx_HAL_Driver/Src/stm32n6xx_hal_cacheaxi.c ****                                                 pCACHEAXI_CallbackTypeDef pCallback)
1048:STM32Cube_FW_N6/Drivers/STM32N6xx_HAL_Driver/Src/stm32n6xx_hal_cacheaxi.c **** {
1049:STM32Cube_FW_N6/Drivers/STM32N6xx_HAL_Driver/Src/stm32n6xx_hal_cacheaxi.c ****   HAL_StatusTypeDef status = HAL_OK;
1050:STM32Cube_FW_N6/Drivers/STM32N6xx_HAL_Driver/Src/stm32n6xx_hal_cacheaxi.c **** 
1051:STM32Cube_FW_N6/Drivers/STM32N6xx_HAL_Driver/Src/stm32n6xx_hal_cacheaxi.c ****   /* Check the cacheaxi handle allocation */
1052:STM32Cube_FW_N6/Drivers/STM32N6xx_HAL_Driver/Src/stm32n6xx_hal_cacheaxi.c ****   if (hcacheaxi == NULL)
1053:STM32Cube_FW_N6/Drivers/STM32N6xx_HAL_Driver/Src/stm32n6xx_hal_cacheaxi.c ****   {
ARM GAS  /tmp/cc4w16ub.s 			page 57


1054:STM32Cube_FW_N6/Drivers/STM32N6xx_HAL_Driver/Src/stm32n6xx_hal_cacheaxi.c ****     return HAL_ERROR;
1055:STM32Cube_FW_N6/Drivers/STM32N6xx_HAL_Driver/Src/stm32n6xx_hal_cacheaxi.c ****   }
1056:STM32Cube_FW_N6/Drivers/STM32N6xx_HAL_Driver/Src/stm32n6xx_hal_cacheaxi.c **** 
1057:STM32Cube_FW_N6/Drivers/STM32N6xx_HAL_Driver/Src/stm32n6xx_hal_cacheaxi.c ****   if (pCallback == NULL)
1058:STM32Cube_FW_N6/Drivers/STM32N6xx_HAL_Driver/Src/stm32n6xx_hal_cacheaxi.c ****   {
1059:STM32Cube_FW_N6/Drivers/STM32N6xx_HAL_Driver/Src/stm32n6xx_hal_cacheaxi.c ****     /* Update the error code */
1060:STM32Cube_FW_N6/Drivers/STM32N6xx_HAL_Driver/Src/stm32n6xx_hal_cacheaxi.c ****     hcacheaxi->ErrorCode |= HAL_CACHEAXI_ERROR_INVALID_CALLBACK;
1061:STM32Cube_FW_N6/Drivers/STM32N6xx_HAL_Driver/Src/stm32n6xx_hal_cacheaxi.c **** 
1062:STM32Cube_FW_N6/Drivers/STM32N6xx_HAL_Driver/Src/stm32n6xx_hal_cacheaxi.c ****     /* Return error status */
1063:STM32Cube_FW_N6/Drivers/STM32N6xx_HAL_Driver/Src/stm32n6xx_hal_cacheaxi.c ****     return HAL_ERROR;
1064:STM32Cube_FW_N6/Drivers/STM32N6xx_HAL_Driver/Src/stm32n6xx_hal_cacheaxi.c ****   }
1065:STM32Cube_FW_N6/Drivers/STM32N6xx_HAL_Driver/Src/stm32n6xx_hal_cacheaxi.c **** 
1066:STM32Cube_FW_N6/Drivers/STM32N6xx_HAL_Driver/Src/stm32n6xx_hal_cacheaxi.c ****   if (hcacheaxi->State == HAL_CACHEAXI_STATE_READY)
1067:STM32Cube_FW_N6/Drivers/STM32N6xx_HAL_Driver/Src/stm32n6xx_hal_cacheaxi.c ****   {
1068:STM32Cube_FW_N6/Drivers/STM32N6xx_HAL_Driver/Src/stm32n6xx_hal_cacheaxi.c ****     switch (CallbackID)
1069:STM32Cube_FW_N6/Drivers/STM32N6xx_HAL_Driver/Src/stm32n6xx_hal_cacheaxi.c ****     {
1070:STM32Cube_FW_N6/Drivers/STM32N6xx_HAL_Driver/Src/stm32n6xx_hal_cacheaxi.c ****       case HAL_CACHEAXI_CLEAN_BY_ADDRESS_CB_ID :
1071:STM32Cube_FW_N6/Drivers/STM32N6xx_HAL_Driver/Src/stm32n6xx_hal_cacheaxi.c ****         hcacheaxi->CleanByAddrCallback = pCallback;
1072:STM32Cube_FW_N6/Drivers/STM32N6xx_HAL_Driver/Src/stm32n6xx_hal_cacheaxi.c ****         break;
1073:STM32Cube_FW_N6/Drivers/STM32N6xx_HAL_Driver/Src/stm32n6xx_hal_cacheaxi.c **** 
1074:STM32Cube_FW_N6/Drivers/STM32N6xx_HAL_Driver/Src/stm32n6xx_hal_cacheaxi.c ****       case HAL_CACHEAXI_CLEAN_AND_INVALIDATE_BY_ADDRESS_CB_ID :
1075:STM32Cube_FW_N6/Drivers/STM32N6xx_HAL_Driver/Src/stm32n6xx_hal_cacheaxi.c ****         hcacheaxi->CleanAndInvalidateByAddrCallback = pCallback;
1076:STM32Cube_FW_N6/Drivers/STM32N6xx_HAL_Driver/Src/stm32n6xx_hal_cacheaxi.c ****         break;
1077:STM32Cube_FW_N6/Drivers/STM32N6xx_HAL_Driver/Src/stm32n6xx_hal_cacheaxi.c **** 
1078:STM32Cube_FW_N6/Drivers/STM32N6xx_HAL_Driver/Src/stm32n6xx_hal_cacheaxi.c ****       case HAL_CACHEAXI_INVALIDATE_COMPLETE_CB_ID :
1079:STM32Cube_FW_N6/Drivers/STM32N6xx_HAL_Driver/Src/stm32n6xx_hal_cacheaxi.c ****         hcacheaxi->InvalidateCompleteCallback = pCallback;
1080:STM32Cube_FW_N6/Drivers/STM32N6xx_HAL_Driver/Src/stm32n6xx_hal_cacheaxi.c ****         break;
1081:STM32Cube_FW_N6/Drivers/STM32N6xx_HAL_Driver/Src/stm32n6xx_hal_cacheaxi.c **** 
1082:STM32Cube_FW_N6/Drivers/STM32N6xx_HAL_Driver/Src/stm32n6xx_hal_cacheaxi.c ****       case HAL_CACHEAXI_ERROR_CB_ID :
1083:STM32Cube_FW_N6/Drivers/STM32N6xx_HAL_Driver/Src/stm32n6xx_hal_cacheaxi.c ****         hcacheaxi->ErrorCallback = pCallback;
1084:STM32Cube_FW_N6/Drivers/STM32N6xx_HAL_Driver/Src/stm32n6xx_hal_cacheaxi.c ****         break;
1085:STM32Cube_FW_N6/Drivers/STM32N6xx_HAL_Driver/Src/stm32n6xx_hal_cacheaxi.c **** 
1086:STM32Cube_FW_N6/Drivers/STM32N6xx_HAL_Driver/Src/stm32n6xx_hal_cacheaxi.c ****       case HAL_CACHEAXI_MSPINIT_CB_ID :
1087:STM32Cube_FW_N6/Drivers/STM32N6xx_HAL_Driver/Src/stm32n6xx_hal_cacheaxi.c ****         hcacheaxi->MspInitCallback = pCallback;
1088:STM32Cube_FW_N6/Drivers/STM32N6xx_HAL_Driver/Src/stm32n6xx_hal_cacheaxi.c ****         break;
1089:STM32Cube_FW_N6/Drivers/STM32N6xx_HAL_Driver/Src/stm32n6xx_hal_cacheaxi.c **** 
1090:STM32Cube_FW_N6/Drivers/STM32N6xx_HAL_Driver/Src/stm32n6xx_hal_cacheaxi.c ****       case HAL_CACHEAXI_MSPDEINIT_CB_ID :
1091:STM32Cube_FW_N6/Drivers/STM32N6xx_HAL_Driver/Src/stm32n6xx_hal_cacheaxi.c ****         hcacheaxi->MspDeInitCallback = pCallback;
1092:STM32Cube_FW_N6/Drivers/STM32N6xx_HAL_Driver/Src/stm32n6xx_hal_cacheaxi.c ****         break;
1093:STM32Cube_FW_N6/Drivers/STM32N6xx_HAL_Driver/Src/stm32n6xx_hal_cacheaxi.c **** 
1094:STM32Cube_FW_N6/Drivers/STM32N6xx_HAL_Driver/Src/stm32n6xx_hal_cacheaxi.c ****       default :
1095:STM32Cube_FW_N6/Drivers/STM32N6xx_HAL_Driver/Src/stm32n6xx_hal_cacheaxi.c ****         /* Update the error code */
1096:STM32Cube_FW_N6/Drivers/STM32N6xx_HAL_Driver/Src/stm32n6xx_hal_cacheaxi.c ****         hcacheaxi->ErrorCode |= HAL_CACHEAXI_ERROR_INVALID_CALLBACK;
1097:STM32Cube_FW_N6/Drivers/STM32N6xx_HAL_Driver/Src/stm32n6xx_hal_cacheaxi.c **** 
1098:STM32Cube_FW_N6/Drivers/STM32N6xx_HAL_Driver/Src/stm32n6xx_hal_cacheaxi.c ****         /* Return error status */
1099:STM32Cube_FW_N6/Drivers/STM32N6xx_HAL_Driver/Src/stm32n6xx_hal_cacheaxi.c ****         status =  HAL_ERROR;
1100:STM32Cube_FW_N6/Drivers/STM32N6xx_HAL_Driver/Src/stm32n6xx_hal_cacheaxi.c ****         break;
1101:STM32Cube_FW_N6/Drivers/STM32N6xx_HAL_Driver/Src/stm32n6xx_hal_cacheaxi.c ****     }
1102:STM32Cube_FW_N6/Drivers/STM32N6xx_HAL_Driver/Src/stm32n6xx_hal_cacheaxi.c ****   }
1103:STM32Cube_FW_N6/Drivers/STM32N6xx_HAL_Driver/Src/stm32n6xx_hal_cacheaxi.c ****   else if (hcacheaxi->State == HAL_CACHEAXI_STATE_RESET)
1104:STM32Cube_FW_N6/Drivers/STM32N6xx_HAL_Driver/Src/stm32n6xx_hal_cacheaxi.c ****   {
1105:STM32Cube_FW_N6/Drivers/STM32N6xx_HAL_Driver/Src/stm32n6xx_hal_cacheaxi.c ****     switch (CallbackID)
1106:STM32Cube_FW_N6/Drivers/STM32N6xx_HAL_Driver/Src/stm32n6xx_hal_cacheaxi.c ****     {
1107:STM32Cube_FW_N6/Drivers/STM32N6xx_HAL_Driver/Src/stm32n6xx_hal_cacheaxi.c ****       case HAL_CACHEAXI_MSPINIT_CB_ID :
1108:STM32Cube_FW_N6/Drivers/STM32N6xx_HAL_Driver/Src/stm32n6xx_hal_cacheaxi.c ****         hcacheaxi->MspInitCallback = pCallback;
1109:STM32Cube_FW_N6/Drivers/STM32N6xx_HAL_Driver/Src/stm32n6xx_hal_cacheaxi.c ****         break;
1110:STM32Cube_FW_N6/Drivers/STM32N6xx_HAL_Driver/Src/stm32n6xx_hal_cacheaxi.c **** 
ARM GAS  /tmp/cc4w16ub.s 			page 58


1111:STM32Cube_FW_N6/Drivers/STM32N6xx_HAL_Driver/Src/stm32n6xx_hal_cacheaxi.c ****       case HAL_CACHEAXI_MSPDEINIT_CB_ID :
1112:STM32Cube_FW_N6/Drivers/STM32N6xx_HAL_Driver/Src/stm32n6xx_hal_cacheaxi.c ****         hcacheaxi->MspDeInitCallback = pCallback;
1113:STM32Cube_FW_N6/Drivers/STM32N6xx_HAL_Driver/Src/stm32n6xx_hal_cacheaxi.c ****         break;
1114:STM32Cube_FW_N6/Drivers/STM32N6xx_HAL_Driver/Src/stm32n6xx_hal_cacheaxi.c **** 
1115:STM32Cube_FW_N6/Drivers/STM32N6xx_HAL_Driver/Src/stm32n6xx_hal_cacheaxi.c ****       default :
1116:STM32Cube_FW_N6/Drivers/STM32N6xx_HAL_Driver/Src/stm32n6xx_hal_cacheaxi.c ****         /* Update the error code */
1117:STM32Cube_FW_N6/Drivers/STM32N6xx_HAL_Driver/Src/stm32n6xx_hal_cacheaxi.c ****         hcacheaxi->ErrorCode |= HAL_CACHEAXI_ERROR_INVALID_CALLBACK;
1118:STM32Cube_FW_N6/Drivers/STM32N6xx_HAL_Driver/Src/stm32n6xx_hal_cacheaxi.c **** 
1119:STM32Cube_FW_N6/Drivers/STM32N6xx_HAL_Driver/Src/stm32n6xx_hal_cacheaxi.c ****         /* Return error status */
1120:STM32Cube_FW_N6/Drivers/STM32N6xx_HAL_Driver/Src/stm32n6xx_hal_cacheaxi.c ****         status =  HAL_ERROR;
1121:STM32Cube_FW_N6/Drivers/STM32N6xx_HAL_Driver/Src/stm32n6xx_hal_cacheaxi.c ****         break;
1122:STM32Cube_FW_N6/Drivers/STM32N6xx_HAL_Driver/Src/stm32n6xx_hal_cacheaxi.c ****     }
1123:STM32Cube_FW_N6/Drivers/STM32N6xx_HAL_Driver/Src/stm32n6xx_hal_cacheaxi.c ****   }
1124:STM32Cube_FW_N6/Drivers/STM32N6xx_HAL_Driver/Src/stm32n6xx_hal_cacheaxi.c ****   else
1125:STM32Cube_FW_N6/Drivers/STM32N6xx_HAL_Driver/Src/stm32n6xx_hal_cacheaxi.c ****   {
1126:STM32Cube_FW_N6/Drivers/STM32N6xx_HAL_Driver/Src/stm32n6xx_hal_cacheaxi.c ****     /* Update the error code */
1127:STM32Cube_FW_N6/Drivers/STM32N6xx_HAL_Driver/Src/stm32n6xx_hal_cacheaxi.c ****     hcacheaxi->ErrorCode |= HAL_CACHEAXI_ERROR_INVALID_CALLBACK;
1128:STM32Cube_FW_N6/Drivers/STM32N6xx_HAL_Driver/Src/stm32n6xx_hal_cacheaxi.c **** 
1129:STM32Cube_FW_N6/Drivers/STM32N6xx_HAL_Driver/Src/stm32n6xx_hal_cacheaxi.c ****     /* Return error status */
1130:STM32Cube_FW_N6/Drivers/STM32N6xx_HAL_Driver/Src/stm32n6xx_hal_cacheaxi.c ****     status =  HAL_ERROR;
1131:STM32Cube_FW_N6/Drivers/STM32N6xx_HAL_Driver/Src/stm32n6xx_hal_cacheaxi.c ****   }
1132:STM32Cube_FW_N6/Drivers/STM32N6xx_HAL_Driver/Src/stm32n6xx_hal_cacheaxi.c **** 
1133:STM32Cube_FW_N6/Drivers/STM32N6xx_HAL_Driver/Src/stm32n6xx_hal_cacheaxi.c ****   return status;
1134:STM32Cube_FW_N6/Drivers/STM32N6xx_HAL_Driver/Src/stm32n6xx_hal_cacheaxi.c **** }
1135:STM32Cube_FW_N6/Drivers/STM32N6xx_HAL_Driver/Src/stm32n6xx_hal_cacheaxi.c **** 
1136:STM32Cube_FW_N6/Drivers/STM32N6xx_HAL_Driver/Src/stm32n6xx_hal_cacheaxi.c **** /**
1137:STM32Cube_FW_N6/Drivers/STM32N6xx_HAL_Driver/Src/stm32n6xx_hal_cacheaxi.c ****   * @brief  Unregister an CACHEAXI Callback
1138:STM32Cube_FW_N6/Drivers/STM32N6xx_HAL_Driver/Src/stm32n6xx_hal_cacheaxi.c ****   *         CACHEAXI callback is redirected to the weak predefined callback
1139:STM32Cube_FW_N6/Drivers/STM32N6xx_HAL_Driver/Src/stm32n6xx_hal_cacheaxi.c ****   * @param  hcacheaxi Pointer to a CACHEAXI_HandleTypeDef structure that contains
1140:STM32Cube_FW_N6/Drivers/STM32N6xx_HAL_Driver/Src/stm32n6xx_hal_cacheaxi.c ****   *                   the configuration information for the specified CACHEAXIx peripheral.
1141:STM32Cube_FW_N6/Drivers/STM32N6xx_HAL_Driver/Src/stm32n6xx_hal_cacheaxi.c ****   * @param  CallbackID ID of the callback to be unregistered
1142:STM32Cube_FW_N6/Drivers/STM32N6xx_HAL_Driver/Src/stm32n6xx_hal_cacheaxi.c ****   *         This parameter can be one of the following values:
1143:STM32Cube_FW_N6/Drivers/STM32N6xx_HAL_Driver/Src/stm32n6xx_hal_cacheaxi.c ****   *          @arg @ref HAL_CACHEAXI_CLEAN_BY_ADDRESS_CB_ID Clean By Addr callback ID
1144:STM32Cube_FW_N6/Drivers/STM32N6xx_HAL_Driver/Src/stm32n6xx_hal_cacheaxi.c ****   *          @arg @ref HAL_CACHEAXI_CLEAN_AND_INVALIDATE_BY_ADDRESS_CB_ID Clean and Invalidate By A
1145:STM32Cube_FW_N6/Drivers/STM32N6xx_HAL_Driver/Src/stm32n6xx_hal_cacheaxi.c ****   *          @arg @ref HAL_CACHEAXI_INVALIDATE_COMPLETE_CB_ID Invalidate Complete callback ID
1146:STM32Cube_FW_N6/Drivers/STM32N6xx_HAL_Driver/Src/stm32n6xx_hal_cacheaxi.c ****   *          @arg @ref HAL_CACHEAXI_ERROR_CB_ID  Error callback ID
1147:STM32Cube_FW_N6/Drivers/STM32N6xx_HAL_Driver/Src/stm32n6xx_hal_cacheaxi.c ****   *          @arg @ref HAL_CACHEAXI_MSPINIT_CB_ID MspInit callback ID
1148:STM32Cube_FW_N6/Drivers/STM32N6xx_HAL_Driver/Src/stm32n6xx_hal_cacheaxi.c ****   *          @arg @ref HAL_CACHEAXI_MSPDEINIT_CB_ID MspDeInit callback ID
1149:STM32Cube_FW_N6/Drivers/STM32N6xx_HAL_Driver/Src/stm32n6xx_hal_cacheaxi.c ****   * @retval HAL status
1150:STM32Cube_FW_N6/Drivers/STM32N6xx_HAL_Driver/Src/stm32n6xx_hal_cacheaxi.c ****   */
1151:STM32Cube_FW_N6/Drivers/STM32N6xx_HAL_Driver/Src/stm32n6xx_hal_cacheaxi.c **** HAL_StatusTypeDef HAL_CACHEAXI_UnRegisterCallback(CACHEAXI_HandleTypeDef *hcacheaxi,
1152:STM32Cube_FW_N6/Drivers/STM32N6xx_HAL_Driver/Src/stm32n6xx_hal_cacheaxi.c ****                                                   HAL_CACHEAXI_CallbackIDTypeDef CallbackID)
1153:STM32Cube_FW_N6/Drivers/STM32N6xx_HAL_Driver/Src/stm32n6xx_hal_cacheaxi.c **** {
1154:STM32Cube_FW_N6/Drivers/STM32N6xx_HAL_Driver/Src/stm32n6xx_hal_cacheaxi.c ****   HAL_StatusTypeDef status = HAL_OK;
1155:STM32Cube_FW_N6/Drivers/STM32N6xx_HAL_Driver/Src/stm32n6xx_hal_cacheaxi.c **** 
1156:STM32Cube_FW_N6/Drivers/STM32N6xx_HAL_Driver/Src/stm32n6xx_hal_cacheaxi.c ****   /* Check the cacheaxi handle allocation */
1157:STM32Cube_FW_N6/Drivers/STM32N6xx_HAL_Driver/Src/stm32n6xx_hal_cacheaxi.c ****   if (hcacheaxi == NULL)
1158:STM32Cube_FW_N6/Drivers/STM32N6xx_HAL_Driver/Src/stm32n6xx_hal_cacheaxi.c ****   {
1159:STM32Cube_FW_N6/Drivers/STM32N6xx_HAL_Driver/Src/stm32n6xx_hal_cacheaxi.c ****     return HAL_ERROR;
1160:STM32Cube_FW_N6/Drivers/STM32N6xx_HAL_Driver/Src/stm32n6xx_hal_cacheaxi.c ****   }
1161:STM32Cube_FW_N6/Drivers/STM32N6xx_HAL_Driver/Src/stm32n6xx_hal_cacheaxi.c **** 
1162:STM32Cube_FW_N6/Drivers/STM32N6xx_HAL_Driver/Src/stm32n6xx_hal_cacheaxi.c ****   if (hcacheaxi->State == HAL_CACHEAXI_STATE_READY)
1163:STM32Cube_FW_N6/Drivers/STM32N6xx_HAL_Driver/Src/stm32n6xx_hal_cacheaxi.c ****   {
1164:STM32Cube_FW_N6/Drivers/STM32N6xx_HAL_Driver/Src/stm32n6xx_hal_cacheaxi.c ****     switch (CallbackID)
1165:STM32Cube_FW_N6/Drivers/STM32N6xx_HAL_Driver/Src/stm32n6xx_hal_cacheaxi.c ****     {
1166:STM32Cube_FW_N6/Drivers/STM32N6xx_HAL_Driver/Src/stm32n6xx_hal_cacheaxi.c ****       case HAL_CACHEAXI_CLEAN_BY_ADDRESS_CB_ID :
1167:STM32Cube_FW_N6/Drivers/STM32N6xx_HAL_Driver/Src/stm32n6xx_hal_cacheaxi.c ****         /* Legacy weak Clean By Addr Callback */
ARM GAS  /tmp/cc4w16ub.s 			page 59


1168:STM32Cube_FW_N6/Drivers/STM32N6xx_HAL_Driver/Src/stm32n6xx_hal_cacheaxi.c ****         hcacheaxi->CleanByAddrCallback = HAL_CACHEAXI_CleanByAddrCallback;
1169:STM32Cube_FW_N6/Drivers/STM32N6xx_HAL_Driver/Src/stm32n6xx_hal_cacheaxi.c ****         break;
1170:STM32Cube_FW_N6/Drivers/STM32N6xx_HAL_Driver/Src/stm32n6xx_hal_cacheaxi.c **** 
1171:STM32Cube_FW_N6/Drivers/STM32N6xx_HAL_Driver/Src/stm32n6xx_hal_cacheaxi.c ****       case HAL_CACHEAXI_CLEAN_AND_INVALIDATE_BY_ADDRESS_CB_ID :
1172:STM32Cube_FW_N6/Drivers/STM32N6xx_HAL_Driver/Src/stm32n6xx_hal_cacheaxi.c ****         /* Legacy weak Clean and Invalidate By Addr Callback */
1173:STM32Cube_FW_N6/Drivers/STM32N6xx_HAL_Driver/Src/stm32n6xx_hal_cacheaxi.c ****         hcacheaxi->CleanAndInvalidateByAddrCallback = HAL_CACHEAXI_CleanAndInvalidateByAddrCallback
1174:STM32Cube_FW_N6/Drivers/STM32N6xx_HAL_Driver/Src/stm32n6xx_hal_cacheaxi.c ****         break;
1175:STM32Cube_FW_N6/Drivers/STM32N6xx_HAL_Driver/Src/stm32n6xx_hal_cacheaxi.c **** 
1176:STM32Cube_FW_N6/Drivers/STM32N6xx_HAL_Driver/Src/stm32n6xx_hal_cacheaxi.c ****       case HAL_CACHEAXI_INVALIDATE_COMPLETE_CB_ID :
1177:STM32Cube_FW_N6/Drivers/STM32N6xx_HAL_Driver/Src/stm32n6xx_hal_cacheaxi.c ****         /* Legacy weak Invalidate Complete Callback */
1178:STM32Cube_FW_N6/Drivers/STM32N6xx_HAL_Driver/Src/stm32n6xx_hal_cacheaxi.c ****         hcacheaxi->InvalidateCompleteCallback = HAL_CACHEAXI_InvalidateCompleteCallback;
1179:STM32Cube_FW_N6/Drivers/STM32N6xx_HAL_Driver/Src/stm32n6xx_hal_cacheaxi.c ****         break;
1180:STM32Cube_FW_N6/Drivers/STM32N6xx_HAL_Driver/Src/stm32n6xx_hal_cacheaxi.c **** 
1181:STM32Cube_FW_N6/Drivers/STM32N6xx_HAL_Driver/Src/stm32n6xx_hal_cacheaxi.c ****       case HAL_CACHEAXI_ERROR_CB_ID :
1182:STM32Cube_FW_N6/Drivers/STM32N6xx_HAL_Driver/Src/stm32n6xx_hal_cacheaxi.c ****         /* Legacy weak ErrorCallback */
1183:STM32Cube_FW_N6/Drivers/STM32N6xx_HAL_Driver/Src/stm32n6xx_hal_cacheaxi.c ****         hcacheaxi->ErrorCallback = HAL_CACHEAXI_ErrorCallback;
1184:STM32Cube_FW_N6/Drivers/STM32N6xx_HAL_Driver/Src/stm32n6xx_hal_cacheaxi.c ****         break;
1185:STM32Cube_FW_N6/Drivers/STM32N6xx_HAL_Driver/Src/stm32n6xx_hal_cacheaxi.c **** 
1186:STM32Cube_FW_N6/Drivers/STM32N6xx_HAL_Driver/Src/stm32n6xx_hal_cacheaxi.c ****       case HAL_CACHEAXI_MSPINIT_CB_ID :
1187:STM32Cube_FW_N6/Drivers/STM32N6xx_HAL_Driver/Src/stm32n6xx_hal_cacheaxi.c ****         /* Legacy weak MspInit */
1188:STM32Cube_FW_N6/Drivers/STM32N6xx_HAL_Driver/Src/stm32n6xx_hal_cacheaxi.c ****         hcacheaxi->MspInitCallback = HAL_CACHEAXI_MspInit;
1189:STM32Cube_FW_N6/Drivers/STM32N6xx_HAL_Driver/Src/stm32n6xx_hal_cacheaxi.c ****         break;
1190:STM32Cube_FW_N6/Drivers/STM32N6xx_HAL_Driver/Src/stm32n6xx_hal_cacheaxi.c **** 
1191:STM32Cube_FW_N6/Drivers/STM32N6xx_HAL_Driver/Src/stm32n6xx_hal_cacheaxi.c ****       case HAL_CACHEAXI_MSPDEINIT_CB_ID :
1192:STM32Cube_FW_N6/Drivers/STM32N6xx_HAL_Driver/Src/stm32n6xx_hal_cacheaxi.c ****         /* Legacy weak MspDeInit */
1193:STM32Cube_FW_N6/Drivers/STM32N6xx_HAL_Driver/Src/stm32n6xx_hal_cacheaxi.c ****         hcacheaxi->MspDeInitCallback = HAL_CACHEAXI_MspDeInit;
1194:STM32Cube_FW_N6/Drivers/STM32N6xx_HAL_Driver/Src/stm32n6xx_hal_cacheaxi.c ****         break;
1195:STM32Cube_FW_N6/Drivers/STM32N6xx_HAL_Driver/Src/stm32n6xx_hal_cacheaxi.c **** 
1196:STM32Cube_FW_N6/Drivers/STM32N6xx_HAL_Driver/Src/stm32n6xx_hal_cacheaxi.c ****       default :
1197:STM32Cube_FW_N6/Drivers/STM32N6xx_HAL_Driver/Src/stm32n6xx_hal_cacheaxi.c ****         /* Update the error code */
1198:STM32Cube_FW_N6/Drivers/STM32N6xx_HAL_Driver/Src/stm32n6xx_hal_cacheaxi.c ****         hcacheaxi->ErrorCode |= HAL_CACHEAXI_ERROR_INVALID_CALLBACK;
1199:STM32Cube_FW_N6/Drivers/STM32N6xx_HAL_Driver/Src/stm32n6xx_hal_cacheaxi.c **** 
1200:STM32Cube_FW_N6/Drivers/STM32N6xx_HAL_Driver/Src/stm32n6xx_hal_cacheaxi.c ****         /* Return error status */
1201:STM32Cube_FW_N6/Drivers/STM32N6xx_HAL_Driver/Src/stm32n6xx_hal_cacheaxi.c ****         status =  HAL_ERROR;
1202:STM32Cube_FW_N6/Drivers/STM32N6xx_HAL_Driver/Src/stm32n6xx_hal_cacheaxi.c ****         break;
1203:STM32Cube_FW_N6/Drivers/STM32N6xx_HAL_Driver/Src/stm32n6xx_hal_cacheaxi.c ****     }
1204:STM32Cube_FW_N6/Drivers/STM32N6xx_HAL_Driver/Src/stm32n6xx_hal_cacheaxi.c ****   }
1205:STM32Cube_FW_N6/Drivers/STM32N6xx_HAL_Driver/Src/stm32n6xx_hal_cacheaxi.c ****   else if (HAL_CACHEAXI_STATE_RESET == hcacheaxi->State)
1206:STM32Cube_FW_N6/Drivers/STM32N6xx_HAL_Driver/Src/stm32n6xx_hal_cacheaxi.c ****   {
1207:STM32Cube_FW_N6/Drivers/STM32N6xx_HAL_Driver/Src/stm32n6xx_hal_cacheaxi.c ****     switch (CallbackID)
1208:STM32Cube_FW_N6/Drivers/STM32N6xx_HAL_Driver/Src/stm32n6xx_hal_cacheaxi.c ****     {
1209:STM32Cube_FW_N6/Drivers/STM32N6xx_HAL_Driver/Src/stm32n6xx_hal_cacheaxi.c ****       case HAL_CACHEAXI_MSPINIT_CB_ID :
1210:STM32Cube_FW_N6/Drivers/STM32N6xx_HAL_Driver/Src/stm32n6xx_hal_cacheaxi.c ****         /* Legacy weak MspInit */
1211:STM32Cube_FW_N6/Drivers/STM32N6xx_HAL_Driver/Src/stm32n6xx_hal_cacheaxi.c ****         hcacheaxi->MspInitCallback = HAL_CACHEAXI_MspInit;
1212:STM32Cube_FW_N6/Drivers/STM32N6xx_HAL_Driver/Src/stm32n6xx_hal_cacheaxi.c ****         break;
1213:STM32Cube_FW_N6/Drivers/STM32N6xx_HAL_Driver/Src/stm32n6xx_hal_cacheaxi.c **** 
1214:STM32Cube_FW_N6/Drivers/STM32N6xx_HAL_Driver/Src/stm32n6xx_hal_cacheaxi.c ****       case HAL_CACHEAXI_MSPDEINIT_CB_ID :
1215:STM32Cube_FW_N6/Drivers/STM32N6xx_HAL_Driver/Src/stm32n6xx_hal_cacheaxi.c ****         /* Legacy weak MspDeInit */
1216:STM32Cube_FW_N6/Drivers/STM32N6xx_HAL_Driver/Src/stm32n6xx_hal_cacheaxi.c ****         hcacheaxi->MspDeInitCallback = HAL_CACHEAXI_MspDeInit;
1217:STM32Cube_FW_N6/Drivers/STM32N6xx_HAL_Driver/Src/stm32n6xx_hal_cacheaxi.c ****         break;
1218:STM32Cube_FW_N6/Drivers/STM32N6xx_HAL_Driver/Src/stm32n6xx_hal_cacheaxi.c **** 
1219:STM32Cube_FW_N6/Drivers/STM32N6xx_HAL_Driver/Src/stm32n6xx_hal_cacheaxi.c ****       default :
1220:STM32Cube_FW_N6/Drivers/STM32N6xx_HAL_Driver/Src/stm32n6xx_hal_cacheaxi.c ****         /* Update the error code */
1221:STM32Cube_FW_N6/Drivers/STM32N6xx_HAL_Driver/Src/stm32n6xx_hal_cacheaxi.c ****         hcacheaxi->ErrorCode |= HAL_CACHEAXI_ERROR_INVALID_CALLBACK;
1222:STM32Cube_FW_N6/Drivers/STM32N6xx_HAL_Driver/Src/stm32n6xx_hal_cacheaxi.c **** 
1223:STM32Cube_FW_N6/Drivers/STM32N6xx_HAL_Driver/Src/stm32n6xx_hal_cacheaxi.c ****         /* Return error status */
1224:STM32Cube_FW_N6/Drivers/STM32N6xx_HAL_Driver/Src/stm32n6xx_hal_cacheaxi.c ****         status =  HAL_ERROR;
ARM GAS  /tmp/cc4w16ub.s 			page 60


1225:STM32Cube_FW_N6/Drivers/STM32N6xx_HAL_Driver/Src/stm32n6xx_hal_cacheaxi.c ****         break;
1226:STM32Cube_FW_N6/Drivers/STM32N6xx_HAL_Driver/Src/stm32n6xx_hal_cacheaxi.c ****     }
1227:STM32Cube_FW_N6/Drivers/STM32N6xx_HAL_Driver/Src/stm32n6xx_hal_cacheaxi.c ****   }
1228:STM32Cube_FW_N6/Drivers/STM32N6xx_HAL_Driver/Src/stm32n6xx_hal_cacheaxi.c ****   else
1229:STM32Cube_FW_N6/Drivers/STM32N6xx_HAL_Driver/Src/stm32n6xx_hal_cacheaxi.c ****   {
1230:STM32Cube_FW_N6/Drivers/STM32N6xx_HAL_Driver/Src/stm32n6xx_hal_cacheaxi.c ****     /* Update the error code */
1231:STM32Cube_FW_N6/Drivers/STM32N6xx_HAL_Driver/Src/stm32n6xx_hal_cacheaxi.c ****     hcacheaxi->ErrorCode |= HAL_CACHEAXI_ERROR_INVALID_CALLBACK;
1232:STM32Cube_FW_N6/Drivers/STM32N6xx_HAL_Driver/Src/stm32n6xx_hal_cacheaxi.c **** 
1233:STM32Cube_FW_N6/Drivers/STM32N6xx_HAL_Driver/Src/stm32n6xx_hal_cacheaxi.c ****     /* Return error status */
1234:STM32Cube_FW_N6/Drivers/STM32N6xx_HAL_Driver/Src/stm32n6xx_hal_cacheaxi.c ****     status =  HAL_ERROR;
1235:STM32Cube_FW_N6/Drivers/STM32N6xx_HAL_Driver/Src/stm32n6xx_hal_cacheaxi.c ****   }
1236:STM32Cube_FW_N6/Drivers/STM32N6xx_HAL_Driver/Src/stm32n6xx_hal_cacheaxi.c **** 
1237:STM32Cube_FW_N6/Drivers/STM32N6xx_HAL_Driver/Src/stm32n6xx_hal_cacheaxi.c ****   return status;
1238:STM32Cube_FW_N6/Drivers/STM32N6xx_HAL_Driver/Src/stm32n6xx_hal_cacheaxi.c **** }
1239:STM32Cube_FW_N6/Drivers/STM32N6xx_HAL_Driver/Src/stm32n6xx_hal_cacheaxi.c **** 
1240:STM32Cube_FW_N6/Drivers/STM32N6xx_HAL_Driver/Src/stm32n6xx_hal_cacheaxi.c **** #endif  /* USE_HAL_CACHEAXI_REGISTER_CALLBACKS */
1241:STM32Cube_FW_N6/Drivers/STM32N6xx_HAL_Driver/Src/stm32n6xx_hal_cacheaxi.c **** 
1242:STM32Cube_FW_N6/Drivers/STM32N6xx_HAL_Driver/Src/stm32n6xx_hal_cacheaxi.c **** /**
1243:STM32Cube_FW_N6/Drivers/STM32N6xx_HAL_Driver/Src/stm32n6xx_hal_cacheaxi.c ****   * @brief  Cache clean  command  by address callback.
1244:STM32Cube_FW_N6/Drivers/STM32N6xx_HAL_Driver/Src/stm32n6xx_hal_cacheaxi.c ****   * @param  hcacheaxi Pointer to a CACHEAXI_HandleTypeDef structure that contains
1245:STM32Cube_FW_N6/Drivers/STM32N6xx_HAL_Driver/Src/stm32n6xx_hal_cacheaxi.c ****   *                   the configuration information for the specified CACHEAXIx peripheral.
1246:STM32Cube_FW_N6/Drivers/STM32N6xx_HAL_Driver/Src/stm32n6xx_hal_cacheaxi.c ****   * @retval None
1247:STM32Cube_FW_N6/Drivers/STM32N6xx_HAL_Driver/Src/stm32n6xx_hal_cacheaxi.c ****   */
1248:STM32Cube_FW_N6/Drivers/STM32N6xx_HAL_Driver/Src/stm32n6xx_hal_cacheaxi.c **** __weak void HAL_CACHEAXI_CleanByAddrCallback(CACHEAXI_HandleTypeDef *hcacheaxi)
1249:STM32Cube_FW_N6/Drivers/STM32N6xx_HAL_Driver/Src/stm32n6xx_hal_cacheaxi.c **** {
 2171              		.loc 1 1249 1
 2172              		.cfi_startproc
 2173              		@ args = 0, pretend = 0, frame = 8
 2174              		@ frame_needed = 1, uses_anonymous_args = 0
 2175              		@ link register save eliminated.
 2176 0000 80B4     		push	{r7}
 2177              		.cfi_def_cfa_offset 4
 2178              		.cfi_offset 7, -4
 2179 0002 83B0     		sub	sp, sp, #12
 2180              		.cfi_def_cfa_offset 16
 2181 0004 00AF     		add	r7, sp, #0
 2182              		.cfi_def_cfa_register 7
 2183 0006 7860     		str	r0, [r7, #4]
1250:STM32Cube_FW_N6/Drivers/STM32N6xx_HAL_Driver/Src/stm32n6xx_hal_cacheaxi.c ****   /* Prevent unused argument(s) compilation warning */
1251:STM32Cube_FW_N6/Drivers/STM32N6xx_HAL_Driver/Src/stm32n6xx_hal_cacheaxi.c ****   UNUSED(hcacheaxi);
1252:STM32Cube_FW_N6/Drivers/STM32N6xx_HAL_Driver/Src/stm32n6xx_hal_cacheaxi.c **** 
1253:STM32Cube_FW_N6/Drivers/STM32N6xx_HAL_Driver/Src/stm32n6xx_hal_cacheaxi.c ****   /* NOTE : This function should not be modified, when the callback is needed,
1254:STM32Cube_FW_N6/Drivers/STM32N6xx_HAL_Driver/Src/stm32n6xx_hal_cacheaxi.c ****             the HAL_CACHEAXI_CleanByAddrCallback() should be implemented in the user file
1255:STM32Cube_FW_N6/Drivers/STM32N6xx_HAL_Driver/Src/stm32n6xx_hal_cacheaxi.c ****    */
1256:STM32Cube_FW_N6/Drivers/STM32N6xx_HAL_Driver/Src/stm32n6xx_hal_cacheaxi.c **** }
 2184              		.loc 1 1256 1
 2185 0008 00BF     		nop
 2186 000a 0C37     		adds	r7, r7, #12
 2187              		.cfi_def_cfa_offset 4
 2188 000c BD46     		mov	sp, r7
 2189              		.cfi_def_cfa_register 13
 2190              		@ sp needed
 2191 000e 5DF8047B 		ldr	r7, [sp], #4
 2192              		.cfi_restore 7
 2193              		.cfi_def_cfa_offset 0
 2194 0012 7047     		bx	lr
 2195              		.cfi_endproc
ARM GAS  /tmp/cc4w16ub.s 			page 61


 2196              	.LFE860:
 2198              		.section	.text.HAL_CACHEAXI_CleanAndInvalidateByAddrCallback,"ax",%progbits
 2199              		.align	1
 2200              		.weak	HAL_CACHEAXI_CleanAndInvalidateByAddrCallback
 2201              		.syntax unified
 2202              		.thumb
 2203              		.thumb_func
 2205              	HAL_CACHEAXI_CleanAndInvalidateByAddrCallback:
 2206              	.LFB861:
1257:STM32Cube_FW_N6/Drivers/STM32N6xx_HAL_Driver/Src/stm32n6xx_hal_cacheaxi.c **** 
1258:STM32Cube_FW_N6/Drivers/STM32N6xx_HAL_Driver/Src/stm32n6xx_hal_cacheaxi.c **** /**
1259:STM32Cube_FW_N6/Drivers/STM32N6xx_HAL_Driver/Src/stm32n6xx_hal_cacheaxi.c ****   * @brief  Cache clean and Invalidate command  by address callback.
1260:STM32Cube_FW_N6/Drivers/STM32N6xx_HAL_Driver/Src/stm32n6xx_hal_cacheaxi.c ****   * @param  hcacheaxi Pointer to a CACHEAXI_HandleTypeDef structure that contains
1261:STM32Cube_FW_N6/Drivers/STM32N6xx_HAL_Driver/Src/stm32n6xx_hal_cacheaxi.c ****   *                   the configuration information for the specified CACHEAXIx peripheral.
1262:STM32Cube_FW_N6/Drivers/STM32N6xx_HAL_Driver/Src/stm32n6xx_hal_cacheaxi.c ****   * @retval None
1263:STM32Cube_FW_N6/Drivers/STM32N6xx_HAL_Driver/Src/stm32n6xx_hal_cacheaxi.c ****   */
1264:STM32Cube_FW_N6/Drivers/STM32N6xx_HAL_Driver/Src/stm32n6xx_hal_cacheaxi.c **** __weak void HAL_CACHEAXI_CleanAndInvalidateByAddrCallback(CACHEAXI_HandleTypeDef *hcacheaxi)
1265:STM32Cube_FW_N6/Drivers/STM32N6xx_HAL_Driver/Src/stm32n6xx_hal_cacheaxi.c **** {
 2207              		.loc 1 1265 1
 2208              		.cfi_startproc
 2209              		@ args = 0, pretend = 0, frame = 8
 2210              		@ frame_needed = 1, uses_anonymous_args = 0
 2211              		@ link register save eliminated.
 2212 0000 80B4     		push	{r7}
 2213              		.cfi_def_cfa_offset 4
 2214              		.cfi_offset 7, -4
 2215 0002 83B0     		sub	sp, sp, #12
 2216              		.cfi_def_cfa_offset 16
 2217 0004 00AF     		add	r7, sp, #0
 2218              		.cfi_def_cfa_register 7
 2219 0006 7860     		str	r0, [r7, #4]
1266:STM32Cube_FW_N6/Drivers/STM32N6xx_HAL_Driver/Src/stm32n6xx_hal_cacheaxi.c ****   /* Prevent unused argument(s) compilation warning */
1267:STM32Cube_FW_N6/Drivers/STM32N6xx_HAL_Driver/Src/stm32n6xx_hal_cacheaxi.c ****   UNUSED(hcacheaxi);
1268:STM32Cube_FW_N6/Drivers/STM32N6xx_HAL_Driver/Src/stm32n6xx_hal_cacheaxi.c **** 
1269:STM32Cube_FW_N6/Drivers/STM32N6xx_HAL_Driver/Src/stm32n6xx_hal_cacheaxi.c ****   /* NOTE : This function should not be modified, when the callback is needed,
1270:STM32Cube_FW_N6/Drivers/STM32N6xx_HAL_Driver/Src/stm32n6xx_hal_cacheaxi.c ****             the HAL_CACHEAXI_CleanAndInvalidateByAddrCallback() should be implemented in the user f
1271:STM32Cube_FW_N6/Drivers/STM32N6xx_HAL_Driver/Src/stm32n6xx_hal_cacheaxi.c ****    */
1272:STM32Cube_FW_N6/Drivers/STM32N6xx_HAL_Driver/Src/stm32n6xx_hal_cacheaxi.c **** }
 2220              		.loc 1 1272 1
 2221 0008 00BF     		nop
 2222 000a 0C37     		adds	r7, r7, #12
 2223              		.cfi_def_cfa_offset 4
 2224 000c BD46     		mov	sp, r7
 2225              		.cfi_def_cfa_register 13
 2226              		@ sp needed
 2227 000e 5DF8047B 		ldr	r7, [sp], #4
 2228              		.cfi_restore 7
 2229              		.cfi_def_cfa_offset 0
 2230 0012 7047     		bx	lr
 2231              		.cfi_endproc
 2232              	.LFE861:
 2234              		.section	.text.HAL_CACHEAXI_InvalidateCompleteCallback,"ax",%progbits
 2235              		.align	1
 2236              		.weak	HAL_CACHEAXI_InvalidateCompleteCallback
 2237              		.syntax unified
 2238              		.thumb
 2239              		.thumb_func
ARM GAS  /tmp/cc4w16ub.s 			page 62


 2241              	HAL_CACHEAXI_InvalidateCompleteCallback:
 2242              	.LFB862:
1273:STM32Cube_FW_N6/Drivers/STM32N6xx_HAL_Driver/Src/stm32n6xx_hal_cacheaxi.c **** 
1274:STM32Cube_FW_N6/Drivers/STM32N6xx_HAL_Driver/Src/stm32n6xx_hal_cacheaxi.c **** /**
1275:STM32Cube_FW_N6/Drivers/STM32N6xx_HAL_Driver/Src/stm32n6xx_hal_cacheaxi.c ****   * @brief  Cache full invalidation complete callback.
1276:STM32Cube_FW_N6/Drivers/STM32N6xx_HAL_Driver/Src/stm32n6xx_hal_cacheaxi.c ****   * @param  hcacheaxi Pointer to a CACHEAXI_HandleTypeDef structure that contains
1277:STM32Cube_FW_N6/Drivers/STM32N6xx_HAL_Driver/Src/stm32n6xx_hal_cacheaxi.c ****   *                   the configuration information for the specified CACHEAXIx peripheral.
1278:STM32Cube_FW_N6/Drivers/STM32N6xx_HAL_Driver/Src/stm32n6xx_hal_cacheaxi.c ****   * @retval None
1279:STM32Cube_FW_N6/Drivers/STM32N6xx_HAL_Driver/Src/stm32n6xx_hal_cacheaxi.c ****   */
1280:STM32Cube_FW_N6/Drivers/STM32N6xx_HAL_Driver/Src/stm32n6xx_hal_cacheaxi.c **** __weak void HAL_CACHEAXI_InvalidateCompleteCallback(CACHEAXI_HandleTypeDef *hcacheaxi)
1281:STM32Cube_FW_N6/Drivers/STM32N6xx_HAL_Driver/Src/stm32n6xx_hal_cacheaxi.c **** {
 2243              		.loc 1 1281 1
 2244              		.cfi_startproc
 2245              		@ args = 0, pretend = 0, frame = 8
 2246              		@ frame_needed = 1, uses_anonymous_args = 0
 2247              		@ link register save eliminated.
 2248 0000 80B4     		push	{r7}
 2249              		.cfi_def_cfa_offset 4
 2250              		.cfi_offset 7, -4
 2251 0002 83B0     		sub	sp, sp, #12
 2252              		.cfi_def_cfa_offset 16
 2253 0004 00AF     		add	r7, sp, #0
 2254              		.cfi_def_cfa_register 7
 2255 0006 7860     		str	r0, [r7, #4]
1282:STM32Cube_FW_N6/Drivers/STM32N6xx_HAL_Driver/Src/stm32n6xx_hal_cacheaxi.c ****   /* Prevent unused argument(s) compilation warning */
1283:STM32Cube_FW_N6/Drivers/STM32N6xx_HAL_Driver/Src/stm32n6xx_hal_cacheaxi.c ****   UNUSED(hcacheaxi);
1284:STM32Cube_FW_N6/Drivers/STM32N6xx_HAL_Driver/Src/stm32n6xx_hal_cacheaxi.c **** 
1285:STM32Cube_FW_N6/Drivers/STM32N6xx_HAL_Driver/Src/stm32n6xx_hal_cacheaxi.c ****   /* NOTE : This function should not be modified, when the callback is needed,
1286:STM32Cube_FW_N6/Drivers/STM32N6xx_HAL_Driver/Src/stm32n6xx_hal_cacheaxi.c ****             the HAL_CACHEAXI_InvalidateCompleteCallback() should be implemented in the user file
1287:STM32Cube_FW_N6/Drivers/STM32N6xx_HAL_Driver/Src/stm32n6xx_hal_cacheaxi.c ****    */
1288:STM32Cube_FW_N6/Drivers/STM32N6xx_HAL_Driver/Src/stm32n6xx_hal_cacheaxi.c **** }
 2256              		.loc 1 1288 1
 2257 0008 00BF     		nop
 2258 000a 0C37     		adds	r7, r7, #12
 2259              		.cfi_def_cfa_offset 4
 2260 000c BD46     		mov	sp, r7
 2261              		.cfi_def_cfa_register 13
 2262              		@ sp needed
 2263 000e 5DF8047B 		ldr	r7, [sp], #4
 2264              		.cfi_restore 7
 2265              		.cfi_def_cfa_offset 0
 2266 0012 7047     		bx	lr
 2267              		.cfi_endproc
 2268              	.LFE862:
 2270              		.section	.text.HAL_CACHEAXI_ErrorCallback,"ax",%progbits
 2271              		.align	1
 2272              		.weak	HAL_CACHEAXI_ErrorCallback
 2273              		.syntax unified
 2274              		.thumb
 2275              		.thumb_func
 2277              	HAL_CACHEAXI_ErrorCallback:
 2278              	.LFB863:
1289:STM32Cube_FW_N6/Drivers/STM32N6xx_HAL_Driver/Src/stm32n6xx_hal_cacheaxi.c **** 
1290:STM32Cube_FW_N6/Drivers/STM32N6xx_HAL_Driver/Src/stm32n6xx_hal_cacheaxi.c **** /**
1291:STM32Cube_FW_N6/Drivers/STM32N6xx_HAL_Driver/Src/stm32n6xx_hal_cacheaxi.c ****   * @brief  Error callback.
1292:STM32Cube_FW_N6/Drivers/STM32N6xx_HAL_Driver/Src/stm32n6xx_hal_cacheaxi.c ****   * @param  hcacheaxi Pointer to a CACHEAXI_HandleTypeDef structure that contains
1293:STM32Cube_FW_N6/Drivers/STM32N6xx_HAL_Driver/Src/stm32n6xx_hal_cacheaxi.c ****   *                   the configuration information for the specified CACHEAXIx peripheral.
ARM GAS  /tmp/cc4w16ub.s 			page 63


1294:STM32Cube_FW_N6/Drivers/STM32N6xx_HAL_Driver/Src/stm32n6xx_hal_cacheaxi.c ****   * @retval None
1295:STM32Cube_FW_N6/Drivers/STM32N6xx_HAL_Driver/Src/stm32n6xx_hal_cacheaxi.c ****   */
1296:STM32Cube_FW_N6/Drivers/STM32N6xx_HAL_Driver/Src/stm32n6xx_hal_cacheaxi.c **** __weak void HAL_CACHEAXI_ErrorCallback(CACHEAXI_HandleTypeDef *hcacheaxi)
1297:STM32Cube_FW_N6/Drivers/STM32N6xx_HAL_Driver/Src/stm32n6xx_hal_cacheaxi.c **** {
 2279              		.loc 1 1297 1
 2280              		.cfi_startproc
 2281              		@ args = 0, pretend = 0, frame = 8
 2282              		@ frame_needed = 1, uses_anonymous_args = 0
 2283              		@ link register save eliminated.
 2284 0000 80B4     		push	{r7}
 2285              		.cfi_def_cfa_offset 4
 2286              		.cfi_offset 7, -4
 2287 0002 83B0     		sub	sp, sp, #12
 2288              		.cfi_def_cfa_offset 16
 2289 0004 00AF     		add	r7, sp, #0
 2290              		.cfi_def_cfa_register 7
 2291 0006 7860     		str	r0, [r7, #4]
1298:STM32Cube_FW_N6/Drivers/STM32N6xx_HAL_Driver/Src/stm32n6xx_hal_cacheaxi.c ****   /* Prevent unused argument(s) compilation warning */
1299:STM32Cube_FW_N6/Drivers/STM32N6xx_HAL_Driver/Src/stm32n6xx_hal_cacheaxi.c ****   UNUSED(hcacheaxi);
1300:STM32Cube_FW_N6/Drivers/STM32N6xx_HAL_Driver/Src/stm32n6xx_hal_cacheaxi.c **** 
1301:STM32Cube_FW_N6/Drivers/STM32N6xx_HAL_Driver/Src/stm32n6xx_hal_cacheaxi.c ****   /* NOTE : This function should not be modified, when the callback is needed,
1302:STM32Cube_FW_N6/Drivers/STM32N6xx_HAL_Driver/Src/stm32n6xx_hal_cacheaxi.c ****             the HAL_CACHEAXI_ErrorCallback() should be implemented in the user file
1303:STM32Cube_FW_N6/Drivers/STM32N6xx_HAL_Driver/Src/stm32n6xx_hal_cacheaxi.c ****    */
1304:STM32Cube_FW_N6/Drivers/STM32N6xx_HAL_Driver/Src/stm32n6xx_hal_cacheaxi.c **** }
 2292              		.loc 1 1304 1
 2293 0008 00BF     		nop
 2294 000a 0C37     		adds	r7, r7, #12
 2295              		.cfi_def_cfa_offset 4
 2296 000c BD46     		mov	sp, r7
 2297              		.cfi_def_cfa_register 13
 2298              		@ sp needed
 2299 000e 5DF8047B 		ldr	r7, [sp], #4
 2300              		.cfi_restore 7
 2301              		.cfi_def_cfa_offset 0
 2302 0012 7047     		bx	lr
 2303              		.cfi_endproc
 2304              	.LFE863:
 2306              		.section	.text.HAL_CACHEAXI_GetState,"ax",%progbits
 2307              		.align	1
 2308              		.global	HAL_CACHEAXI_GetState
 2309              		.syntax unified
 2310              		.thumb
 2311              		.thumb_func
 2313              	HAL_CACHEAXI_GetState:
 2314              	.LFB864:
1305:STM32Cube_FW_N6/Drivers/STM32N6xx_HAL_Driver/Src/stm32n6xx_hal_cacheaxi.c **** 
1306:STM32Cube_FW_N6/Drivers/STM32N6xx_HAL_Driver/Src/stm32n6xx_hal_cacheaxi.c **** /**
1307:STM32Cube_FW_N6/Drivers/STM32N6xx_HAL_Driver/Src/stm32n6xx_hal_cacheaxi.c ****   * @}
1308:STM32Cube_FW_N6/Drivers/STM32N6xx_HAL_Driver/Src/stm32n6xx_hal_cacheaxi.c ****   */
1309:STM32Cube_FW_N6/Drivers/STM32N6xx_HAL_Driver/Src/stm32n6xx_hal_cacheaxi.c **** 
1310:STM32Cube_FW_N6/Drivers/STM32N6xx_HAL_Driver/Src/stm32n6xx_hal_cacheaxi.c **** /** @addtogroup CACHEAXI_Exported_Functions_Group3
1311:STM32Cube_FW_N6/Drivers/STM32N6xx_HAL_Driver/Src/stm32n6xx_hal_cacheaxi.c ****   *
1312:STM32Cube_FW_N6/Drivers/STM32N6xx_HAL_Driver/Src/stm32n6xx_hal_cacheaxi.c **** @verbatim
1313:STM32Cube_FW_N6/Drivers/STM32N6xx_HAL_Driver/Src/stm32n6xx_hal_cacheaxi.c ****  ===============================================================================
1314:STM32Cube_FW_N6/Drivers/STM32N6xx_HAL_Driver/Src/stm32n6xx_hal_cacheaxi.c ****             #####          Peripheral State          #####
1315:STM32Cube_FW_N6/Drivers/STM32N6xx_HAL_Driver/Src/stm32n6xx_hal_cacheaxi.c ****  ===============================================================================
1316:STM32Cube_FW_N6/Drivers/STM32N6xx_HAL_Driver/Src/stm32n6xx_hal_cacheaxi.c ****     [..]
ARM GAS  /tmp/cc4w16ub.s 			page 64


1317:STM32Cube_FW_N6/Drivers/STM32N6xx_HAL_Driver/Src/stm32n6xx_hal_cacheaxi.c ****     This subsection permit to get in run-time the status of the peripheral
1318:STM32Cube_FW_N6/Drivers/STM32N6xx_HAL_Driver/Src/stm32n6xx_hal_cacheaxi.c ****     and the data flow.
1319:STM32Cube_FW_N6/Drivers/STM32N6xx_HAL_Driver/Src/stm32n6xx_hal_cacheaxi.c **** 
1320:STM32Cube_FW_N6/Drivers/STM32N6xx_HAL_Driver/Src/stm32n6xx_hal_cacheaxi.c **** @endverbatim
1321:STM32Cube_FW_N6/Drivers/STM32N6xx_HAL_Driver/Src/stm32n6xx_hal_cacheaxi.c ****   * @{
1322:STM32Cube_FW_N6/Drivers/STM32N6xx_HAL_Driver/Src/stm32n6xx_hal_cacheaxi.c ****   */
1323:STM32Cube_FW_N6/Drivers/STM32N6xx_HAL_Driver/Src/stm32n6xx_hal_cacheaxi.c **** 
1324:STM32Cube_FW_N6/Drivers/STM32N6xx_HAL_Driver/Src/stm32n6xx_hal_cacheaxi.c **** /**
1325:STM32Cube_FW_N6/Drivers/STM32N6xx_HAL_Driver/Src/stm32n6xx_hal_cacheaxi.c ****   * @brief  Return the CACHEAXI handle state.
1326:STM32Cube_FW_N6/Drivers/STM32N6xx_HAL_Driver/Src/stm32n6xx_hal_cacheaxi.c ****   * @param  hcacheaxi Pointer to a CACHEAXI_HandleTypeDef structure that contains
1327:STM32Cube_FW_N6/Drivers/STM32N6xx_HAL_Driver/Src/stm32n6xx_hal_cacheaxi.c ****   *                   the configuration information for the specified CACHEAXIx peripheral.
1328:STM32Cube_FW_N6/Drivers/STM32N6xx_HAL_Driver/Src/stm32n6xx_hal_cacheaxi.c ****   * @retval HAL state
1329:STM32Cube_FW_N6/Drivers/STM32N6xx_HAL_Driver/Src/stm32n6xx_hal_cacheaxi.c ****   */
1330:STM32Cube_FW_N6/Drivers/STM32N6xx_HAL_Driver/Src/stm32n6xx_hal_cacheaxi.c **** HAL_CACHEAXI_StateTypeDef HAL_CACHEAXI_GetState(const CACHEAXI_HandleTypeDef *hcacheaxi)
1331:STM32Cube_FW_N6/Drivers/STM32N6xx_HAL_Driver/Src/stm32n6xx_hal_cacheaxi.c **** {
 2315              		.loc 1 1331 1
 2316              		.cfi_startproc
 2317              		@ args = 0, pretend = 0, frame = 8
 2318              		@ frame_needed = 1, uses_anonymous_args = 0
 2319              		@ link register save eliminated.
 2320 0000 80B4     		push	{r7}
 2321              		.cfi_def_cfa_offset 4
 2322              		.cfi_offset 7, -4
 2323 0002 83B0     		sub	sp, sp, #12
 2324              		.cfi_def_cfa_offset 16
 2325 0004 00AF     		add	r7, sp, #0
 2326              		.cfi_def_cfa_register 7
 2327 0006 7860     		str	r0, [r7, #4]
1332:STM32Cube_FW_N6/Drivers/STM32N6xx_HAL_Driver/Src/stm32n6xx_hal_cacheaxi.c ****   /* Return CACHEAXI handle state */
1333:STM32Cube_FW_N6/Drivers/STM32N6xx_HAL_Driver/Src/stm32n6xx_hal_cacheaxi.c ****   return hcacheaxi->State;
 2328              		.loc 1 1333 19
 2329 0008 7B68     		ldr	r3, [r7, #4]
 2330 000a 1B79     		ldrb	r3, [r3, #4]
 2331 000c DBB2     		uxtb	r3, r3
1334:STM32Cube_FW_N6/Drivers/STM32N6xx_HAL_Driver/Src/stm32n6xx_hal_cacheaxi.c **** }
 2332              		.loc 1 1334 1
 2333 000e 1846     		mov	r0, r3
 2334 0010 0C37     		adds	r7, r7, #12
 2335              		.cfi_def_cfa_offset 4
 2336 0012 BD46     		mov	sp, r7
 2337              		.cfi_def_cfa_register 13
 2338              		@ sp needed
 2339 0014 5DF8047B 		ldr	r7, [sp], #4
 2340              		.cfi_restore 7
 2341              		.cfi_def_cfa_offset 0
 2342 0018 7047     		bx	lr
 2343              		.cfi_endproc
 2344              	.LFE864:
 2346              		.section	.text.HAL_CACHEAXI_GetError,"ax",%progbits
 2347              		.align	1
 2348              		.global	HAL_CACHEAXI_GetError
 2349              		.syntax unified
 2350              		.thumb
