ARM GAS  /tmp/ccrxElPM.s 			page 1


   1              		.arch armv8.1-m.main
   2              		.fpu fpv5-d16
   3              		.arch_extension dsp
   4              		.arch_extension fp
   5              		.arch_extension fp.dp
   6              		.arch_extension mve
   7              		.arch_extension mve.fp
   8              		.eabi_attribute 5, "cortex-m55"
   9              		.eabi_attribute 28, 1
  10              		.eabi_attribute 20, 1
  11              		.eabi_attribute 21, 1
  12              		.eabi_attribute 23, 3
  13              		.eabi_attribute 24, 1
  14              		.eabi_attribute 25, 1
  15              		.eabi_attribute 26, 1
  16              		.eabi_attribute 30, 6
  17              		.eabi_attribute 34, 1
  18              		.eabi_attribute 38, 1
  19              		.eabi_attribute 18, 4
  20              		.file	"stm32n6xx_hal_i2c.c"
  21              		.text
  22              	.Ltext0:
  23              		.cfi_sections	.debug_frame
  24              		.file 1 "STM32Cube_FW_N6/Drivers/STM32N6xx_HAL_Driver/Src/stm32n6xx_hal_i2c.c"
  25              		.section	.rodata
  26              		.align	2
  27              	.LC0:
  28 0000 53544D33 		.ascii	"STM32Cube_FW_N6/Drivers/STM32N6xx_HAL_Driver/Src/st"
  28      32437562 
  28      655F4657 
  28      5F4E362F 
  28      44726976 
  29 0033 6D33326E 		.ascii	"m32n6xx_hal_i2c.c\000"
  29      3678785F 
  29      68616C5F 
  29      6932632E 
  29      6300
  30              		.section	.text.HAL_I2C_Init,"ax",%progbits
  31              		.align	1
  32              		.global	HAL_I2C_Init
  33              		.syntax unified
  34              		.thumb
  35              		.thumb_func
  37              	HAL_I2C_Init:
  38              	.LFB835:
   1:STM32Cube_FW_N6/Drivers/STM32N6xx_HAL_Driver/Src/stm32n6xx_hal_i2c.c **** /**
   2:STM32Cube_FW_N6/Drivers/STM32N6xx_HAL_Driver/Src/stm32n6xx_hal_i2c.c ****   ******************************************************************************
   3:STM32Cube_FW_N6/Drivers/STM32N6xx_HAL_Driver/Src/stm32n6xx_hal_i2c.c ****   * @file    stm32n6xx_hal_i2c.c
   4:STM32Cube_FW_N6/Drivers/STM32N6xx_HAL_Driver/Src/stm32n6xx_hal_i2c.c ****   * @author  MCD Application Team
   5:STM32Cube_FW_N6/Drivers/STM32N6xx_HAL_Driver/Src/stm32n6xx_hal_i2c.c ****   * @brief   I2C HAL module driver.
   6:STM32Cube_FW_N6/Drivers/STM32N6xx_HAL_Driver/Src/stm32n6xx_hal_i2c.c ****   *          This file provides firmware functions to manage the following
   7:STM32Cube_FW_N6/Drivers/STM32N6xx_HAL_Driver/Src/stm32n6xx_hal_i2c.c ****   *          functionalities of the Inter Integrated Circuit (I2C) peripheral:
   8:STM32Cube_FW_N6/Drivers/STM32N6xx_HAL_Driver/Src/stm32n6xx_hal_i2c.c ****   *           + Initialization and de-initialization functions
   9:STM32Cube_FW_N6/Drivers/STM32N6xx_HAL_Driver/Src/stm32n6xx_hal_i2c.c ****   *           + IO operation functions
  10:STM32Cube_FW_N6/Drivers/STM32N6xx_HAL_Driver/Src/stm32n6xx_hal_i2c.c ****   *           + Peripheral State and Errors functions
  11:STM32Cube_FW_N6/Drivers/STM32N6xx_HAL_Driver/Src/stm32n6xx_hal_i2c.c ****   *
  12:STM32Cube_FW_N6/Drivers/STM32N6xx_HAL_Driver/Src/stm32n6xx_hal_i2c.c ****   ******************************************************************************
ARM GAS  /tmp/ccrxElPM.s 			page 2


  13:STM32Cube_FW_N6/Drivers/STM32N6xx_HAL_Driver/Src/stm32n6xx_hal_i2c.c ****   * @attention
  14:STM32Cube_FW_N6/Drivers/STM32N6xx_HAL_Driver/Src/stm32n6xx_hal_i2c.c ****   *
  15:STM32Cube_FW_N6/Drivers/STM32N6xx_HAL_Driver/Src/stm32n6xx_hal_i2c.c ****   * Copyright (c) 2023 STMicroelectronics.
  16:STM32Cube_FW_N6/Drivers/STM32N6xx_HAL_Driver/Src/stm32n6xx_hal_i2c.c ****   * All rights reserved.
  17:STM32Cube_FW_N6/Drivers/STM32N6xx_HAL_Driver/Src/stm32n6xx_hal_i2c.c ****   *
  18:STM32Cube_FW_N6/Drivers/STM32N6xx_HAL_Driver/Src/stm32n6xx_hal_i2c.c ****   * This software is licensed under terms that can be found in the LICENSE file
  19:STM32Cube_FW_N6/Drivers/STM32N6xx_HAL_Driver/Src/stm32n6xx_hal_i2c.c ****   * in the root directory of this software component.
  20:STM32Cube_FW_N6/Drivers/STM32N6xx_HAL_Driver/Src/stm32n6xx_hal_i2c.c ****   * If no LICENSE file comes with this software, it is provided AS-IS.
  21:STM32Cube_FW_N6/Drivers/STM32N6xx_HAL_Driver/Src/stm32n6xx_hal_i2c.c ****   *
  22:STM32Cube_FW_N6/Drivers/STM32N6xx_HAL_Driver/Src/stm32n6xx_hal_i2c.c ****   ******************************************************************************
  23:STM32Cube_FW_N6/Drivers/STM32N6xx_HAL_Driver/Src/stm32n6xx_hal_i2c.c ****   @verbatim
  24:STM32Cube_FW_N6/Drivers/STM32N6xx_HAL_Driver/Src/stm32n6xx_hal_i2c.c ****   ==============================================================================
  25:STM32Cube_FW_N6/Drivers/STM32N6xx_HAL_Driver/Src/stm32n6xx_hal_i2c.c ****                         ##### How to use this driver #####
  26:STM32Cube_FW_N6/Drivers/STM32N6xx_HAL_Driver/Src/stm32n6xx_hal_i2c.c ****   ==============================================================================
  27:STM32Cube_FW_N6/Drivers/STM32N6xx_HAL_Driver/Src/stm32n6xx_hal_i2c.c ****     [..]
  28:STM32Cube_FW_N6/Drivers/STM32N6xx_HAL_Driver/Src/stm32n6xx_hal_i2c.c ****     The I2C HAL driver can be used as follows:
  29:STM32Cube_FW_N6/Drivers/STM32N6xx_HAL_Driver/Src/stm32n6xx_hal_i2c.c **** 
  30:STM32Cube_FW_N6/Drivers/STM32N6xx_HAL_Driver/Src/stm32n6xx_hal_i2c.c ****     (#) Declare a I2C_HandleTypeDef handle structure, for example:
  31:STM32Cube_FW_N6/Drivers/STM32N6xx_HAL_Driver/Src/stm32n6xx_hal_i2c.c ****         I2C_HandleTypeDef  hi2c;
  32:STM32Cube_FW_N6/Drivers/STM32N6xx_HAL_Driver/Src/stm32n6xx_hal_i2c.c **** 
  33:STM32Cube_FW_N6/Drivers/STM32N6xx_HAL_Driver/Src/stm32n6xx_hal_i2c.c ****     (#)Initialize the I2C low level resources by implementing the HAL_I2C_MspInit() API:
  34:STM32Cube_FW_N6/Drivers/STM32N6xx_HAL_Driver/Src/stm32n6xx_hal_i2c.c ****         (##) Enable the I2Cx interface clock
  35:STM32Cube_FW_N6/Drivers/STM32N6xx_HAL_Driver/Src/stm32n6xx_hal_i2c.c ****         (##) I2C pins configuration
  36:STM32Cube_FW_N6/Drivers/STM32N6xx_HAL_Driver/Src/stm32n6xx_hal_i2c.c ****             (+++) Enable the clock for the I2C GPIOs
  37:STM32Cube_FW_N6/Drivers/STM32N6xx_HAL_Driver/Src/stm32n6xx_hal_i2c.c ****             (+++) Configure I2C pins as alternate function open-drain
  38:STM32Cube_FW_N6/Drivers/STM32N6xx_HAL_Driver/Src/stm32n6xx_hal_i2c.c ****         (##) NVIC configuration if you need to use interrupt process
  39:STM32Cube_FW_N6/Drivers/STM32N6xx_HAL_Driver/Src/stm32n6xx_hal_i2c.c ****             (+++) Configure the I2Cx interrupt priority
  40:STM32Cube_FW_N6/Drivers/STM32N6xx_HAL_Driver/Src/stm32n6xx_hal_i2c.c ****             (+++) Enable the NVIC I2C IRQ Channel
  41:STM32Cube_FW_N6/Drivers/STM32N6xx_HAL_Driver/Src/stm32n6xx_hal_i2c.c ****         (##) DMA Configuration if you need to use DMA process
  42:STM32Cube_FW_N6/Drivers/STM32N6xx_HAL_Driver/Src/stm32n6xx_hal_i2c.c ****             (+++) Declare a DMA_HandleTypeDef handle structure for
  43:STM32Cube_FW_N6/Drivers/STM32N6xx_HAL_Driver/Src/stm32n6xx_hal_i2c.c ****                   the transmit or receive channel
  44:STM32Cube_FW_N6/Drivers/STM32N6xx_HAL_Driver/Src/stm32n6xx_hal_i2c.c ****             (+++) Enable the DMAx interface clock using
  45:STM32Cube_FW_N6/Drivers/STM32N6xx_HAL_Driver/Src/stm32n6xx_hal_i2c.c ****             (+++) Configure the DMA handle parameters
  46:STM32Cube_FW_N6/Drivers/STM32N6xx_HAL_Driver/Src/stm32n6xx_hal_i2c.c ****             (+++) Configure the DMA Tx or Rx channel
  47:STM32Cube_FW_N6/Drivers/STM32N6xx_HAL_Driver/Src/stm32n6xx_hal_i2c.c ****             (+++) Associate the initialized DMA handle to the hi2c DMA Tx or Rx handle
  48:STM32Cube_FW_N6/Drivers/STM32N6xx_HAL_Driver/Src/stm32n6xx_hal_i2c.c ****             (+++) Configure the priority and enable the NVIC for the transfer complete interrupt on
  49:STM32Cube_FW_N6/Drivers/STM32N6xx_HAL_Driver/Src/stm32n6xx_hal_i2c.c ****                   the DMA Tx or Rx channel
  50:STM32Cube_FW_N6/Drivers/STM32N6xx_HAL_Driver/Src/stm32n6xx_hal_i2c.c **** 
  51:STM32Cube_FW_N6/Drivers/STM32N6xx_HAL_Driver/Src/stm32n6xx_hal_i2c.c ****     (#) Configure the Communication Clock Timing, Own Address1, Master Addressing mode, Dual Addres
  52:STM32Cube_FW_N6/Drivers/STM32N6xx_HAL_Driver/Src/stm32n6xx_hal_i2c.c ****         Own Address2, Own Address2 Mask, General call and Nostretch mode in the hi2c Init structure
  53:STM32Cube_FW_N6/Drivers/STM32N6xx_HAL_Driver/Src/stm32n6xx_hal_i2c.c **** 
  54:STM32Cube_FW_N6/Drivers/STM32N6xx_HAL_Driver/Src/stm32n6xx_hal_i2c.c ****     (#) Initialize the I2C registers by calling the HAL_I2C_Init(), configures also the low level H
  55:STM32Cube_FW_N6/Drivers/STM32N6xx_HAL_Driver/Src/stm32n6xx_hal_i2c.c ****         (GPIO, CLOCK, NVIC...etc) by calling the customized HAL_I2C_MspInit(&hi2c) API.
  56:STM32Cube_FW_N6/Drivers/STM32N6xx_HAL_Driver/Src/stm32n6xx_hal_i2c.c **** 
  57:STM32Cube_FW_N6/Drivers/STM32N6xx_HAL_Driver/Src/stm32n6xx_hal_i2c.c ****     (#) To check if target device is ready for communication, use the function HAL_I2C_IsDeviceRead
  58:STM32Cube_FW_N6/Drivers/STM32N6xx_HAL_Driver/Src/stm32n6xx_hal_i2c.c **** 
  59:STM32Cube_FW_N6/Drivers/STM32N6xx_HAL_Driver/Src/stm32n6xx_hal_i2c.c ****     (#) For I2C IO and IO MEM operations, three operation modes are available within this driver :
  60:STM32Cube_FW_N6/Drivers/STM32N6xx_HAL_Driver/Src/stm32n6xx_hal_i2c.c **** 
  61:STM32Cube_FW_N6/Drivers/STM32N6xx_HAL_Driver/Src/stm32n6xx_hal_i2c.c ****     *** Polling mode IO operation ***
  62:STM32Cube_FW_N6/Drivers/STM32N6xx_HAL_Driver/Src/stm32n6xx_hal_i2c.c ****     =================================
  63:STM32Cube_FW_N6/Drivers/STM32N6xx_HAL_Driver/Src/stm32n6xx_hal_i2c.c ****     [..]
  64:STM32Cube_FW_N6/Drivers/STM32N6xx_HAL_Driver/Src/stm32n6xx_hal_i2c.c ****       (+) Transmit in master mode an amount of data in blocking mode using HAL_I2C_Master_Transmit(
  65:STM32Cube_FW_N6/Drivers/STM32N6xx_HAL_Driver/Src/stm32n6xx_hal_i2c.c ****       (+) Receive in master mode an amount of data in blocking mode using HAL_I2C_Master_Receive()
  66:STM32Cube_FW_N6/Drivers/STM32N6xx_HAL_Driver/Src/stm32n6xx_hal_i2c.c ****       (+) Transmit in slave mode an amount of data in blocking mode using HAL_I2C_Slave_Transmit()
  67:STM32Cube_FW_N6/Drivers/STM32N6xx_HAL_Driver/Src/stm32n6xx_hal_i2c.c ****       (+) Receive in slave mode an amount of data in blocking mode using HAL_I2C_Slave_Receive()
  68:STM32Cube_FW_N6/Drivers/STM32N6xx_HAL_Driver/Src/stm32n6xx_hal_i2c.c **** 
  69:STM32Cube_FW_N6/Drivers/STM32N6xx_HAL_Driver/Src/stm32n6xx_hal_i2c.c ****     *** Polling mode IO MEM operation ***
ARM GAS  /tmp/ccrxElPM.s 			page 3


  70:STM32Cube_FW_N6/Drivers/STM32N6xx_HAL_Driver/Src/stm32n6xx_hal_i2c.c ****     =====================================
  71:STM32Cube_FW_N6/Drivers/STM32N6xx_HAL_Driver/Src/stm32n6xx_hal_i2c.c ****     [..]
  72:STM32Cube_FW_N6/Drivers/STM32N6xx_HAL_Driver/Src/stm32n6xx_hal_i2c.c ****       (+) Write an amount of data in blocking mode to a specific memory address using HAL_I2C_Mem_W
  73:STM32Cube_FW_N6/Drivers/STM32N6xx_HAL_Driver/Src/stm32n6xx_hal_i2c.c ****       (+) Read an amount of data in blocking mode from a specific memory address using HAL_I2C_Mem_
  74:STM32Cube_FW_N6/Drivers/STM32N6xx_HAL_Driver/Src/stm32n6xx_hal_i2c.c **** 
  75:STM32Cube_FW_N6/Drivers/STM32N6xx_HAL_Driver/Src/stm32n6xx_hal_i2c.c **** 
  76:STM32Cube_FW_N6/Drivers/STM32N6xx_HAL_Driver/Src/stm32n6xx_hal_i2c.c ****     *** Interrupt mode IO operation ***
  77:STM32Cube_FW_N6/Drivers/STM32N6xx_HAL_Driver/Src/stm32n6xx_hal_i2c.c ****     ===================================
  78:STM32Cube_FW_N6/Drivers/STM32N6xx_HAL_Driver/Src/stm32n6xx_hal_i2c.c ****     [..]
  79:STM32Cube_FW_N6/Drivers/STM32N6xx_HAL_Driver/Src/stm32n6xx_hal_i2c.c ****       (+) Transmit in master mode an amount of data in non-blocking mode using HAL_I2C_Master_Trans
  80:STM32Cube_FW_N6/Drivers/STM32N6xx_HAL_Driver/Src/stm32n6xx_hal_i2c.c ****       (+) At transmission end of transfer, HAL_I2C_MasterTxCpltCallback() is executed and users can
  81:STM32Cube_FW_N6/Drivers/STM32N6xx_HAL_Driver/Src/stm32n6xx_hal_i2c.c ****            add their own code by customization of function pointer HAL_I2C_MasterTxCpltCallback()
  82:STM32Cube_FW_N6/Drivers/STM32N6xx_HAL_Driver/Src/stm32n6xx_hal_i2c.c ****       (+) Receive in master mode an amount of data in non-blocking mode using HAL_I2C_Master_Receiv
  83:STM32Cube_FW_N6/Drivers/STM32N6xx_HAL_Driver/Src/stm32n6xx_hal_i2c.c ****       (+) At reception end of transfer, HAL_I2C_MasterRxCpltCallback() is executed and users can
  84:STM32Cube_FW_N6/Drivers/STM32N6xx_HAL_Driver/Src/stm32n6xx_hal_i2c.c ****            add their own code by customization of function pointer HAL_I2C_MasterRxCpltCallback()
  85:STM32Cube_FW_N6/Drivers/STM32N6xx_HAL_Driver/Src/stm32n6xx_hal_i2c.c ****       (+) Transmit in slave mode an amount of data in non-blocking mode using HAL_I2C_Slave_Transmi
  86:STM32Cube_FW_N6/Drivers/STM32N6xx_HAL_Driver/Src/stm32n6xx_hal_i2c.c ****       (+) At transmission end of transfer, HAL_I2C_SlaveTxCpltCallback() is executed and users can
  87:STM32Cube_FW_N6/Drivers/STM32N6xx_HAL_Driver/Src/stm32n6xx_hal_i2c.c ****            add their own code by customization of function pointer HAL_I2C_SlaveTxCpltCallback()
  88:STM32Cube_FW_N6/Drivers/STM32N6xx_HAL_Driver/Src/stm32n6xx_hal_i2c.c ****       (+) Receive in slave mode an amount of data in non-blocking mode using HAL_I2C_Slave_Receive_
  89:STM32Cube_FW_N6/Drivers/STM32N6xx_HAL_Driver/Src/stm32n6xx_hal_i2c.c ****       (+) At reception end of transfer, HAL_I2C_SlaveRxCpltCallback() is executed and users can
  90:STM32Cube_FW_N6/Drivers/STM32N6xx_HAL_Driver/Src/stm32n6xx_hal_i2c.c ****            add their own code by customization of function pointer HAL_I2C_SlaveRxCpltCallback()
  91:STM32Cube_FW_N6/Drivers/STM32N6xx_HAL_Driver/Src/stm32n6xx_hal_i2c.c ****       (+) In case of transfer Error, HAL_I2C_ErrorCallback() function is executed and users can
  92:STM32Cube_FW_N6/Drivers/STM32N6xx_HAL_Driver/Src/stm32n6xx_hal_i2c.c ****            add their own code by customization of function pointer HAL_I2C_ErrorCallback()
  93:STM32Cube_FW_N6/Drivers/STM32N6xx_HAL_Driver/Src/stm32n6xx_hal_i2c.c ****       (+) Abort a master or memory I2C process communication with Interrupt using HAL_I2C_Master_Ab
  94:STM32Cube_FW_N6/Drivers/STM32N6xx_HAL_Driver/Src/stm32n6xx_hal_i2c.c ****       (+) End of abort process, HAL_I2C_AbortCpltCallback() is executed and users can
  95:STM32Cube_FW_N6/Drivers/STM32N6xx_HAL_Driver/Src/stm32n6xx_hal_i2c.c ****            add their own code by customization of function pointer HAL_I2C_AbortCpltCallback()
  96:STM32Cube_FW_N6/Drivers/STM32N6xx_HAL_Driver/Src/stm32n6xx_hal_i2c.c ****       (+) Discard a slave I2C process communication using __HAL_I2C_GENERATE_NACK() macro.
  97:STM32Cube_FW_N6/Drivers/STM32N6xx_HAL_Driver/Src/stm32n6xx_hal_i2c.c ****            This action will inform Master to generate a Stop condition to discard the communication
  98:STM32Cube_FW_N6/Drivers/STM32N6xx_HAL_Driver/Src/stm32n6xx_hal_i2c.c **** 
  99:STM32Cube_FW_N6/Drivers/STM32N6xx_HAL_Driver/Src/stm32n6xx_hal_i2c.c **** 
 100:STM32Cube_FW_N6/Drivers/STM32N6xx_HAL_Driver/Src/stm32n6xx_hal_i2c.c ****     *** Interrupt mode or DMA mode IO sequential operation ***
 101:STM32Cube_FW_N6/Drivers/STM32N6xx_HAL_Driver/Src/stm32n6xx_hal_i2c.c ****     ==========================================================
 102:STM32Cube_FW_N6/Drivers/STM32N6xx_HAL_Driver/Src/stm32n6xx_hal_i2c.c ****     [..]
 103:STM32Cube_FW_N6/Drivers/STM32N6xx_HAL_Driver/Src/stm32n6xx_hal_i2c.c ****       (@) These interfaces allow to manage a sequential transfer with a repeated start condition
 104:STM32Cube_FW_N6/Drivers/STM32N6xx_HAL_Driver/Src/stm32n6xx_hal_i2c.c ****           when a direction change during transfer
 105:STM32Cube_FW_N6/Drivers/STM32N6xx_HAL_Driver/Src/stm32n6xx_hal_i2c.c ****     [..]
 106:STM32Cube_FW_N6/Drivers/STM32N6xx_HAL_Driver/Src/stm32n6xx_hal_i2c.c ****       (+) A specific option field manage the different steps of a sequential transfer
 107:STM32Cube_FW_N6/Drivers/STM32N6xx_HAL_Driver/Src/stm32n6xx_hal_i2c.c ****       (+) Option field values are defined through I2C_XFEROPTIONS and are listed below:
 108:STM32Cube_FW_N6/Drivers/STM32N6xx_HAL_Driver/Src/stm32n6xx_hal_i2c.c ****       (++) I2C_FIRST_AND_LAST_FRAME: No sequential usage, functional is same as associated interfac
 109:STM32Cube_FW_N6/Drivers/STM32N6xx_HAL_Driver/Src/stm32n6xx_hal_i2c.c ****            no sequential mode
 110:STM32Cube_FW_N6/Drivers/STM32N6xx_HAL_Driver/Src/stm32n6xx_hal_i2c.c ****       (++) I2C_FIRST_FRAME: Sequential usage, this option allow to manage a sequence with start con
 111:STM32Cube_FW_N6/Drivers/STM32N6xx_HAL_Driver/Src/stm32n6xx_hal_i2c.c ****                             and data to transfer without a final stop condition
 112:STM32Cube_FW_N6/Drivers/STM32N6xx_HAL_Driver/Src/stm32n6xx_hal_i2c.c ****       (++) I2C_FIRST_AND_NEXT_FRAME: Sequential usage (Master only), this option allow to manage a 
 113:STM32Cube_FW_N6/Drivers/STM32N6xx_HAL_Driver/Src/stm32n6xx_hal_i2c.c ****                             start condition, address and data to transfer without a final stop cond
 114:STM32Cube_FW_N6/Drivers/STM32N6xx_HAL_Driver/Src/stm32n6xx_hal_i2c.c ****                             an then permit a call the same master sequential interface several time
 115:STM32Cube_FW_N6/Drivers/STM32N6xx_HAL_Driver/Src/stm32n6xx_hal_i2c.c ****                             (like HAL_I2C_Master_Seq_Transmit_IT() then HAL_I2C_Master_Seq_Transmit
 116:STM32Cube_FW_N6/Drivers/STM32N6xx_HAL_Driver/Src/stm32n6xx_hal_i2c.c ****                             or HAL_I2C_Master_Seq_Transmit_DMA() then HAL_I2C_Master_Seq_Transmit_D
 117:STM32Cube_FW_N6/Drivers/STM32N6xx_HAL_Driver/Src/stm32n6xx_hal_i2c.c ****       (++) I2C_NEXT_FRAME: Sequential usage, this option allow to manage a sequence with a restart 
 118:STM32Cube_FW_N6/Drivers/STM32N6xx_HAL_Driver/Src/stm32n6xx_hal_i2c.c ****                             and with new data to transfer if the direction change or manage only th
 119:STM32Cube_FW_N6/Drivers/STM32N6xx_HAL_Driver/Src/stm32n6xx_hal_i2c.c ****                             transfer
 120:STM32Cube_FW_N6/Drivers/STM32N6xx_HAL_Driver/Src/stm32n6xx_hal_i2c.c ****                             if no direction change and without a final stop condition in both cases
 121:STM32Cube_FW_N6/Drivers/STM32N6xx_HAL_Driver/Src/stm32n6xx_hal_i2c.c ****       (++) I2C_LAST_FRAME: Sequential usage, this option allow to manage a sequance with a restart 
 122:STM32Cube_FW_N6/Drivers/STM32N6xx_HAL_Driver/Src/stm32n6xx_hal_i2c.c ****                             and with new data to transfer if the direction change or manage only th
 123:STM32Cube_FW_N6/Drivers/STM32N6xx_HAL_Driver/Src/stm32n6xx_hal_i2c.c ****                             transfer
 124:STM32Cube_FW_N6/Drivers/STM32N6xx_HAL_Driver/Src/stm32n6xx_hal_i2c.c ****                             if no direction change and with a final stop condition in both cases
 125:STM32Cube_FW_N6/Drivers/STM32N6xx_HAL_Driver/Src/stm32n6xx_hal_i2c.c ****       (++) I2C_LAST_FRAME_NO_STOP: Sequential usage (Master only), this option allow to manage a re
 126:STM32Cube_FW_N6/Drivers/STM32N6xx_HAL_Driver/Src/stm32n6xx_hal_i2c.c ****                             after several call of the same master sequential interface several time
ARM GAS  /tmp/ccrxElPM.s 			page 4


 127:STM32Cube_FW_N6/Drivers/STM32N6xx_HAL_Driver/Src/stm32n6xx_hal_i2c.c ****                             (link with option I2C_FIRST_AND_NEXT_FRAME).
 128:STM32Cube_FW_N6/Drivers/STM32N6xx_HAL_Driver/Src/stm32n6xx_hal_i2c.c ****                             Usage can, transfer several bytes one by one using
 129:STM32Cube_FW_N6/Drivers/STM32N6xx_HAL_Driver/Src/stm32n6xx_hal_i2c.c ****                               HAL_I2C_Master_Seq_Transmit_IT
 130:STM32Cube_FW_N6/Drivers/STM32N6xx_HAL_Driver/Src/stm32n6xx_hal_i2c.c ****                               or HAL_I2C_Master_Seq_Receive_IT
 131:STM32Cube_FW_N6/Drivers/STM32N6xx_HAL_Driver/Src/stm32n6xx_hal_i2c.c ****                               or HAL_I2C_Master_Seq_Transmit_DMA
 132:STM32Cube_FW_N6/Drivers/STM32N6xx_HAL_Driver/Src/stm32n6xx_hal_i2c.c ****                               or HAL_I2C_Master_Seq_Receive_DMA
 133:STM32Cube_FW_N6/Drivers/STM32N6xx_HAL_Driver/Src/stm32n6xx_hal_i2c.c ****                               with option I2C_FIRST_AND_NEXT_FRAME then I2C_NEXT_FRAME.
 134:STM32Cube_FW_N6/Drivers/STM32N6xx_HAL_Driver/Src/stm32n6xx_hal_i2c.c ****                              Then usage of this option I2C_LAST_FRAME_NO_STOP at the last Transmit 
 135:STM32Cube_FW_N6/Drivers/STM32N6xx_HAL_Driver/Src/stm32n6xx_hal_i2c.c ****                               Receive sequence permit to call the opposite interface Receive or Tra
 136:STM32Cube_FW_N6/Drivers/STM32N6xx_HAL_Driver/Src/stm32n6xx_hal_i2c.c ****                               without stopping the communication and so generate a restart conditio
 137:STM32Cube_FW_N6/Drivers/STM32N6xx_HAL_Driver/Src/stm32n6xx_hal_i2c.c ****       (++) I2C_OTHER_FRAME: Sequential usage (Master only), this option allow to manage a restart c
 138:STM32Cube_FW_N6/Drivers/STM32N6xx_HAL_Driver/Src/stm32n6xx_hal_i2c.c ****                             each call of the same master sequential
 139:STM32Cube_FW_N6/Drivers/STM32N6xx_HAL_Driver/Src/stm32n6xx_hal_i2c.c ****                             interface.
 140:STM32Cube_FW_N6/Drivers/STM32N6xx_HAL_Driver/Src/stm32n6xx_hal_i2c.c ****                             Usage can, transfer several bytes one by one with a restart with slave 
 141:STM32Cube_FW_N6/Drivers/STM32N6xx_HAL_Driver/Src/stm32n6xx_hal_i2c.c ****                             each bytes using
 142:STM32Cube_FW_N6/Drivers/STM32N6xx_HAL_Driver/Src/stm32n6xx_hal_i2c.c ****                               HAL_I2C_Master_Seq_Transmit_IT
 143:STM32Cube_FW_N6/Drivers/STM32N6xx_HAL_Driver/Src/stm32n6xx_hal_i2c.c ****                               or HAL_I2C_Master_Seq_Receive_IT
 144:STM32Cube_FW_N6/Drivers/STM32N6xx_HAL_Driver/Src/stm32n6xx_hal_i2c.c ****                               or HAL_I2C_Master_Seq_Transmit_DMA
 145:STM32Cube_FW_N6/Drivers/STM32N6xx_HAL_Driver/Src/stm32n6xx_hal_i2c.c ****                               or HAL_I2C_Master_Seq_Receive_DMA
 146:STM32Cube_FW_N6/Drivers/STM32N6xx_HAL_Driver/Src/stm32n6xx_hal_i2c.c ****                               with option I2C_FIRST_FRAME then I2C_OTHER_FRAME.
 147:STM32Cube_FW_N6/Drivers/STM32N6xx_HAL_Driver/Src/stm32n6xx_hal_i2c.c ****                             Then usage of this option I2C_OTHER_AND_LAST_FRAME at the last frame to
 148:STM32Cube_FW_N6/Drivers/STM32N6xx_HAL_Driver/Src/stm32n6xx_hal_i2c.c ****                             generation of STOP condition.
 149:STM32Cube_FW_N6/Drivers/STM32N6xx_HAL_Driver/Src/stm32n6xx_hal_i2c.c **** 
 150:STM32Cube_FW_N6/Drivers/STM32N6xx_HAL_Driver/Src/stm32n6xx_hal_i2c.c ****       (+) Different sequential I2C interfaces are listed below:
 151:STM32Cube_FW_N6/Drivers/STM32N6xx_HAL_Driver/Src/stm32n6xx_hal_i2c.c ****       (++) Sequential transmit in master I2C mode an amount of data in non-blocking mode using
 152:STM32Cube_FW_N6/Drivers/STM32N6xx_HAL_Driver/Src/stm32n6xx_hal_i2c.c ****             HAL_I2C_Master_Seq_Transmit_IT() or using HAL_I2C_Master_Seq_Transmit_DMA()
 153:STM32Cube_FW_N6/Drivers/STM32N6xx_HAL_Driver/Src/stm32n6xx_hal_i2c.c ****       (+++) At transmission end of current frame transfer, HAL_I2C_MasterTxCpltCallback() is execut
 154:STM32Cube_FW_N6/Drivers/STM32N6xx_HAL_Driver/Src/stm32n6xx_hal_i2c.c ****             users can add their own code by customization of function pointer HAL_I2C_MasterTxCpltC
 155:STM32Cube_FW_N6/Drivers/STM32N6xx_HAL_Driver/Src/stm32n6xx_hal_i2c.c ****       (++) Sequential receive in master I2C mode an amount of data in non-blocking mode using
 156:STM32Cube_FW_N6/Drivers/STM32N6xx_HAL_Driver/Src/stm32n6xx_hal_i2c.c ****             HAL_I2C_Master_Seq_Receive_IT() or using HAL_I2C_Master_Seq_Receive_DMA()
 157:STM32Cube_FW_N6/Drivers/STM32N6xx_HAL_Driver/Src/stm32n6xx_hal_i2c.c ****       (+++) At reception end of current frame transfer, HAL_I2C_MasterRxCpltCallback() is executed 
 158:STM32Cube_FW_N6/Drivers/STM32N6xx_HAL_Driver/Src/stm32n6xx_hal_i2c.c ****            add their own code by customization of function pointer HAL_I2C_MasterRxCpltCallback()
 159:STM32Cube_FW_N6/Drivers/STM32N6xx_HAL_Driver/Src/stm32n6xx_hal_i2c.c ****       (++) Abort a master or memory IT or DMA I2C process communication with Interrupt using HAL_I2
 160:STM32Cube_FW_N6/Drivers/STM32N6xx_HAL_Driver/Src/stm32n6xx_hal_i2c.c ****       (+++) End of abort process, HAL_I2C_AbortCpltCallback() is executed and users can
 161:STM32Cube_FW_N6/Drivers/STM32N6xx_HAL_Driver/Src/stm32n6xx_hal_i2c.c ****            add their own code by customization of function pointer HAL_I2C_AbortCpltCallback()
 162:STM32Cube_FW_N6/Drivers/STM32N6xx_HAL_Driver/Src/stm32n6xx_hal_i2c.c ****       (++) Enable/disable the Address listen mode in slave I2C mode using HAL_I2C_EnableListen_IT()
 163:STM32Cube_FW_N6/Drivers/STM32N6xx_HAL_Driver/Src/stm32n6xx_hal_i2c.c ****             HAL_I2C_DisableListen_IT()
 164:STM32Cube_FW_N6/Drivers/STM32N6xx_HAL_Driver/Src/stm32n6xx_hal_i2c.c ****       (+++) When address slave I2C match, HAL_I2C_AddrCallback() is executed and users can
 165:STM32Cube_FW_N6/Drivers/STM32N6xx_HAL_Driver/Src/stm32n6xx_hal_i2c.c ****            add their own code to check the Address Match Code and the transmission direction reques
 166:STM32Cube_FW_N6/Drivers/STM32N6xx_HAL_Driver/Src/stm32n6xx_hal_i2c.c ****            (Write/Read).
 167:STM32Cube_FW_N6/Drivers/STM32N6xx_HAL_Driver/Src/stm32n6xx_hal_i2c.c ****       (+++) At Listen mode end HAL_I2C_ListenCpltCallback() is executed and users can
 168:STM32Cube_FW_N6/Drivers/STM32N6xx_HAL_Driver/Src/stm32n6xx_hal_i2c.c ****           add their own code by customization of function pointer HAL_I2C_ListenCpltCallback()
 169:STM32Cube_FW_N6/Drivers/STM32N6xx_HAL_Driver/Src/stm32n6xx_hal_i2c.c ****       (++) Sequential transmit in slave I2C mode an amount of data in non-blocking mode using
 170:STM32Cube_FW_N6/Drivers/STM32N6xx_HAL_Driver/Src/stm32n6xx_hal_i2c.c ****             HAL_I2C_Slave_Seq_Transmit_IT() or using HAL_I2C_Slave_Seq_Transmit_DMA()
 171:STM32Cube_FW_N6/Drivers/STM32N6xx_HAL_Driver/Src/stm32n6xx_hal_i2c.c ****       (+++) At transmission end of current frame transfer, HAL_I2C_SlaveTxCpltCallback() is execute
 172:STM32Cube_FW_N6/Drivers/STM32N6xx_HAL_Driver/Src/stm32n6xx_hal_i2c.c ****             users can add their own code by customization of function pointer HAL_I2C_SlaveTxCpltCa
 173:STM32Cube_FW_N6/Drivers/STM32N6xx_HAL_Driver/Src/stm32n6xx_hal_i2c.c ****       (++) Sequential receive in slave I2C mode an amount of data in non-blocking mode using
 174:STM32Cube_FW_N6/Drivers/STM32N6xx_HAL_Driver/Src/stm32n6xx_hal_i2c.c ****             HAL_I2C_Slave_Seq_Receive_IT() or using HAL_I2C_Slave_Seq_Receive_DMA()
 175:STM32Cube_FW_N6/Drivers/STM32N6xx_HAL_Driver/Src/stm32n6xx_hal_i2c.c ****       (+++) At reception end of current frame transfer, HAL_I2C_SlaveRxCpltCallback() is executed a
 176:STM32Cube_FW_N6/Drivers/STM32N6xx_HAL_Driver/Src/stm32n6xx_hal_i2c.c ****            add their own code by customization of function pointer HAL_I2C_SlaveRxCpltCallback()
 177:STM32Cube_FW_N6/Drivers/STM32N6xx_HAL_Driver/Src/stm32n6xx_hal_i2c.c ****       (++) In case of transfer Error, HAL_I2C_ErrorCallback() function is executed and users can
 178:STM32Cube_FW_N6/Drivers/STM32N6xx_HAL_Driver/Src/stm32n6xx_hal_i2c.c ****            add their own code by customization of function pointer HAL_I2C_ErrorCallback()
 179:STM32Cube_FW_N6/Drivers/STM32N6xx_HAL_Driver/Src/stm32n6xx_hal_i2c.c ****       (++) Discard a slave I2C process communication using __HAL_I2C_GENERATE_NACK() macro.
 180:STM32Cube_FW_N6/Drivers/STM32N6xx_HAL_Driver/Src/stm32n6xx_hal_i2c.c ****            This action will inform Master to generate a Stop condition to discard the communication
 181:STM32Cube_FW_N6/Drivers/STM32N6xx_HAL_Driver/Src/stm32n6xx_hal_i2c.c **** 
 182:STM32Cube_FW_N6/Drivers/STM32N6xx_HAL_Driver/Src/stm32n6xx_hal_i2c.c ****     *** Interrupt mode IO MEM operation ***
 183:STM32Cube_FW_N6/Drivers/STM32N6xx_HAL_Driver/Src/stm32n6xx_hal_i2c.c ****     =======================================
ARM GAS  /tmp/ccrxElPM.s 			page 5


 184:STM32Cube_FW_N6/Drivers/STM32N6xx_HAL_Driver/Src/stm32n6xx_hal_i2c.c ****     [..]
 185:STM32Cube_FW_N6/Drivers/STM32N6xx_HAL_Driver/Src/stm32n6xx_hal_i2c.c ****       (+) Write an amount of data in non-blocking mode with Interrupt to a specific memory address 
 186:STM32Cube_FW_N6/Drivers/STM32N6xx_HAL_Driver/Src/stm32n6xx_hal_i2c.c ****           HAL_I2C_Mem_Write_IT()
 187:STM32Cube_FW_N6/Drivers/STM32N6xx_HAL_Driver/Src/stm32n6xx_hal_i2c.c ****       (+) At Memory end of write transfer, HAL_I2C_MemTxCpltCallback() is executed and users can
 188:STM32Cube_FW_N6/Drivers/STM32N6xx_HAL_Driver/Src/stm32n6xx_hal_i2c.c ****            add their own code by customization of function pointer HAL_I2C_MemTxCpltCallback()
 189:STM32Cube_FW_N6/Drivers/STM32N6xx_HAL_Driver/Src/stm32n6xx_hal_i2c.c ****       (+) Read an amount of data in non-blocking mode with Interrupt from a specific memory address
 190:STM32Cube_FW_N6/Drivers/STM32N6xx_HAL_Driver/Src/stm32n6xx_hal_i2c.c ****           HAL_I2C_Mem_Read_IT()
 191:STM32Cube_FW_N6/Drivers/STM32N6xx_HAL_Driver/Src/stm32n6xx_hal_i2c.c ****       (+) At Memory end of read transfer, HAL_I2C_MemRxCpltCallback() is executed and users can
 192:STM32Cube_FW_N6/Drivers/STM32N6xx_HAL_Driver/Src/stm32n6xx_hal_i2c.c ****            add their own code by customization of function pointer HAL_I2C_MemRxCpltCallback()
 193:STM32Cube_FW_N6/Drivers/STM32N6xx_HAL_Driver/Src/stm32n6xx_hal_i2c.c ****       (+) In case of transfer Error, HAL_I2C_ErrorCallback() function is executed and users can
 194:STM32Cube_FW_N6/Drivers/STM32N6xx_HAL_Driver/Src/stm32n6xx_hal_i2c.c ****            add their own code by customization of function pointer HAL_I2C_ErrorCallback()
 195:STM32Cube_FW_N6/Drivers/STM32N6xx_HAL_Driver/Src/stm32n6xx_hal_i2c.c **** 
 196:STM32Cube_FW_N6/Drivers/STM32N6xx_HAL_Driver/Src/stm32n6xx_hal_i2c.c ****     *** DMA mode IO operation ***
 197:STM32Cube_FW_N6/Drivers/STM32N6xx_HAL_Driver/Src/stm32n6xx_hal_i2c.c ****     ==============================
 198:STM32Cube_FW_N6/Drivers/STM32N6xx_HAL_Driver/Src/stm32n6xx_hal_i2c.c ****     [..]
 199:STM32Cube_FW_N6/Drivers/STM32N6xx_HAL_Driver/Src/stm32n6xx_hal_i2c.c ****       (+) Transmit in master mode an amount of data in non-blocking mode (DMA) using
 200:STM32Cube_FW_N6/Drivers/STM32N6xx_HAL_Driver/Src/stm32n6xx_hal_i2c.c ****           HAL_I2C_Master_Transmit_DMA()
 201:STM32Cube_FW_N6/Drivers/STM32N6xx_HAL_Driver/Src/stm32n6xx_hal_i2c.c ****       (+) At transmission end of transfer, HAL_I2C_MasterTxCpltCallback() is executed and users can
 202:STM32Cube_FW_N6/Drivers/STM32N6xx_HAL_Driver/Src/stm32n6xx_hal_i2c.c ****            add their own code by customization of function pointer HAL_I2C_MasterTxCpltCallback()
 203:STM32Cube_FW_N6/Drivers/STM32N6xx_HAL_Driver/Src/stm32n6xx_hal_i2c.c ****       (+) Receive in master mode an amount of data in non-blocking mode (DMA) using
 204:STM32Cube_FW_N6/Drivers/STM32N6xx_HAL_Driver/Src/stm32n6xx_hal_i2c.c ****           HAL_I2C_Master_Receive_DMA()
 205:STM32Cube_FW_N6/Drivers/STM32N6xx_HAL_Driver/Src/stm32n6xx_hal_i2c.c ****       (+) At reception end of transfer, HAL_I2C_MasterRxCpltCallback() is executed and users can
 206:STM32Cube_FW_N6/Drivers/STM32N6xx_HAL_Driver/Src/stm32n6xx_hal_i2c.c ****            add their own code by customization of function pointer HAL_I2C_MasterRxCpltCallback()
 207:STM32Cube_FW_N6/Drivers/STM32N6xx_HAL_Driver/Src/stm32n6xx_hal_i2c.c ****       (+) Transmit in slave mode an amount of data in non-blocking mode (DMA) using
 208:STM32Cube_FW_N6/Drivers/STM32N6xx_HAL_Driver/Src/stm32n6xx_hal_i2c.c ****           HAL_I2C_Slave_Transmit_DMA()
 209:STM32Cube_FW_N6/Drivers/STM32N6xx_HAL_Driver/Src/stm32n6xx_hal_i2c.c ****       (+) At transmission end of transfer, HAL_I2C_SlaveTxCpltCallback() is executed and users can
 210:STM32Cube_FW_N6/Drivers/STM32N6xx_HAL_Driver/Src/stm32n6xx_hal_i2c.c ****            add their own code by customization of function pointer HAL_I2C_SlaveTxCpltCallback()
 211:STM32Cube_FW_N6/Drivers/STM32N6xx_HAL_Driver/Src/stm32n6xx_hal_i2c.c ****       (+) Receive in slave mode an amount of data in non-blocking mode (DMA) using
 212:STM32Cube_FW_N6/Drivers/STM32N6xx_HAL_Driver/Src/stm32n6xx_hal_i2c.c ****           HAL_I2C_Slave_Receive_DMA()
 213:STM32Cube_FW_N6/Drivers/STM32N6xx_HAL_Driver/Src/stm32n6xx_hal_i2c.c ****       (+) At reception end of transfer, HAL_I2C_SlaveRxCpltCallback() is executed and users can
 214:STM32Cube_FW_N6/Drivers/STM32N6xx_HAL_Driver/Src/stm32n6xx_hal_i2c.c ****            add their own code by customization of function pointer HAL_I2C_SlaveRxCpltCallback()
 215:STM32Cube_FW_N6/Drivers/STM32N6xx_HAL_Driver/Src/stm32n6xx_hal_i2c.c ****       (+) In case of transfer Error, HAL_I2C_ErrorCallback() function is executed and users can
 216:STM32Cube_FW_N6/Drivers/STM32N6xx_HAL_Driver/Src/stm32n6xx_hal_i2c.c ****            add their own code by customization of function pointer HAL_I2C_ErrorCallback()
 217:STM32Cube_FW_N6/Drivers/STM32N6xx_HAL_Driver/Src/stm32n6xx_hal_i2c.c ****       (+) Abort a master or memory I2C process communication with Interrupt using HAL_I2C_Master_Ab
 218:STM32Cube_FW_N6/Drivers/STM32N6xx_HAL_Driver/Src/stm32n6xx_hal_i2c.c ****       (+) End of abort process, HAL_I2C_AbortCpltCallback() is executed and users can
 219:STM32Cube_FW_N6/Drivers/STM32N6xx_HAL_Driver/Src/stm32n6xx_hal_i2c.c ****            add their own code by customization of function pointer HAL_I2C_AbortCpltCallback()
 220:STM32Cube_FW_N6/Drivers/STM32N6xx_HAL_Driver/Src/stm32n6xx_hal_i2c.c ****       (+) Discard a slave I2C process communication using __HAL_I2C_GENERATE_NACK() macro.
 221:STM32Cube_FW_N6/Drivers/STM32N6xx_HAL_Driver/Src/stm32n6xx_hal_i2c.c ****            This action will inform Master to generate a Stop condition to discard the communication
 222:STM32Cube_FW_N6/Drivers/STM32N6xx_HAL_Driver/Src/stm32n6xx_hal_i2c.c **** 
 223:STM32Cube_FW_N6/Drivers/STM32N6xx_HAL_Driver/Src/stm32n6xx_hal_i2c.c ****     *** DMA mode IO MEM operation ***
 224:STM32Cube_FW_N6/Drivers/STM32N6xx_HAL_Driver/Src/stm32n6xx_hal_i2c.c ****     =================================
 225:STM32Cube_FW_N6/Drivers/STM32N6xx_HAL_Driver/Src/stm32n6xx_hal_i2c.c ****     [..]
 226:STM32Cube_FW_N6/Drivers/STM32N6xx_HAL_Driver/Src/stm32n6xx_hal_i2c.c ****       (+) Write an amount of data in non-blocking mode with DMA to a specific memory address using
 227:STM32Cube_FW_N6/Drivers/STM32N6xx_HAL_Driver/Src/stm32n6xx_hal_i2c.c ****           HAL_I2C_Mem_Write_DMA()
 228:STM32Cube_FW_N6/Drivers/STM32N6xx_HAL_Driver/Src/stm32n6xx_hal_i2c.c ****       (+) At Memory end of write transfer, HAL_I2C_MemTxCpltCallback() is executed and users can
 229:STM32Cube_FW_N6/Drivers/STM32N6xx_HAL_Driver/Src/stm32n6xx_hal_i2c.c ****            add their own code by customization of function pointer HAL_I2C_MemTxCpltCallback()
 230:STM32Cube_FW_N6/Drivers/STM32N6xx_HAL_Driver/Src/stm32n6xx_hal_i2c.c ****       (+) Read an amount of data in non-blocking mode with DMA from a specific memory address using
 231:STM32Cube_FW_N6/Drivers/STM32N6xx_HAL_Driver/Src/stm32n6xx_hal_i2c.c ****           HAL_I2C_Mem_Read_DMA()
 232:STM32Cube_FW_N6/Drivers/STM32N6xx_HAL_Driver/Src/stm32n6xx_hal_i2c.c ****       (+) At Memory end of read transfer, HAL_I2C_MemRxCpltCallback() is executed and users can
 233:STM32Cube_FW_N6/Drivers/STM32N6xx_HAL_Driver/Src/stm32n6xx_hal_i2c.c ****            add their own code by customization of function pointer HAL_I2C_MemRxCpltCallback()
 234:STM32Cube_FW_N6/Drivers/STM32N6xx_HAL_Driver/Src/stm32n6xx_hal_i2c.c ****       (+) In case of transfer Error, HAL_I2C_ErrorCallback() function is executed and users can
 235:STM32Cube_FW_N6/Drivers/STM32N6xx_HAL_Driver/Src/stm32n6xx_hal_i2c.c ****            add their own code by customization of function pointer HAL_I2C_ErrorCallback()
 236:STM32Cube_FW_N6/Drivers/STM32N6xx_HAL_Driver/Src/stm32n6xx_hal_i2c.c **** 
 237:STM32Cube_FW_N6/Drivers/STM32N6xx_HAL_Driver/Src/stm32n6xx_hal_i2c.c **** 
 238:STM32Cube_FW_N6/Drivers/STM32N6xx_HAL_Driver/Src/stm32n6xx_hal_i2c.c ****      *** I2C HAL driver macros list ***
 239:STM32Cube_FW_N6/Drivers/STM32N6xx_HAL_Driver/Src/stm32n6xx_hal_i2c.c ****      ==================================
 240:STM32Cube_FW_N6/Drivers/STM32N6xx_HAL_Driver/Src/stm32n6xx_hal_i2c.c ****      [..]
ARM GAS  /tmp/ccrxElPM.s 			page 6


 241:STM32Cube_FW_N6/Drivers/STM32N6xx_HAL_Driver/Src/stm32n6xx_hal_i2c.c ****        Below the list of most used macros in I2C HAL driver.
 242:STM32Cube_FW_N6/Drivers/STM32N6xx_HAL_Driver/Src/stm32n6xx_hal_i2c.c **** 
 243:STM32Cube_FW_N6/Drivers/STM32N6xx_HAL_Driver/Src/stm32n6xx_hal_i2c.c ****       (+) __HAL_I2C_ENABLE: Enable the I2C peripheral
 244:STM32Cube_FW_N6/Drivers/STM32N6xx_HAL_Driver/Src/stm32n6xx_hal_i2c.c ****       (+) __HAL_I2C_DISABLE: Disable the I2C peripheral
 245:STM32Cube_FW_N6/Drivers/STM32N6xx_HAL_Driver/Src/stm32n6xx_hal_i2c.c ****       (+) __HAL_I2C_GENERATE_NACK: Generate a Non-Acknowledge I2C peripheral in Slave mode
 246:STM32Cube_FW_N6/Drivers/STM32N6xx_HAL_Driver/Src/stm32n6xx_hal_i2c.c ****       (+) __HAL_I2C_GET_FLAG: Check whether the specified I2C flag is set or not
 247:STM32Cube_FW_N6/Drivers/STM32N6xx_HAL_Driver/Src/stm32n6xx_hal_i2c.c ****       (+) __HAL_I2C_CLEAR_FLAG: Clear the specified I2C pending flag
 248:STM32Cube_FW_N6/Drivers/STM32N6xx_HAL_Driver/Src/stm32n6xx_hal_i2c.c ****       (+) __HAL_I2C_ENABLE_IT: Enable the specified I2C interrupt
 249:STM32Cube_FW_N6/Drivers/STM32N6xx_HAL_Driver/Src/stm32n6xx_hal_i2c.c ****       (+) __HAL_I2C_DISABLE_IT: Disable the specified I2C interrupt
 250:STM32Cube_FW_N6/Drivers/STM32N6xx_HAL_Driver/Src/stm32n6xx_hal_i2c.c **** 
 251:STM32Cube_FW_N6/Drivers/STM32N6xx_HAL_Driver/Src/stm32n6xx_hal_i2c.c ****      *** Callback registration ***
 252:STM32Cube_FW_N6/Drivers/STM32N6xx_HAL_Driver/Src/stm32n6xx_hal_i2c.c ****      =============================================
 253:STM32Cube_FW_N6/Drivers/STM32N6xx_HAL_Driver/Src/stm32n6xx_hal_i2c.c ****     [..]
 254:STM32Cube_FW_N6/Drivers/STM32N6xx_HAL_Driver/Src/stm32n6xx_hal_i2c.c ****      The compilation flag USE_HAL_I2C_REGISTER_CALLBACKS when set to 1
 255:STM32Cube_FW_N6/Drivers/STM32N6xx_HAL_Driver/Src/stm32n6xx_hal_i2c.c ****      allows the user to configure dynamically the driver callbacks.
 256:STM32Cube_FW_N6/Drivers/STM32N6xx_HAL_Driver/Src/stm32n6xx_hal_i2c.c ****      Use Functions HAL_I2C_RegisterCallback() or HAL_I2C_RegisterAddrCallback()
 257:STM32Cube_FW_N6/Drivers/STM32N6xx_HAL_Driver/Src/stm32n6xx_hal_i2c.c ****      to register an interrupt callback.
 258:STM32Cube_FW_N6/Drivers/STM32N6xx_HAL_Driver/Src/stm32n6xx_hal_i2c.c ****     [..]
 259:STM32Cube_FW_N6/Drivers/STM32N6xx_HAL_Driver/Src/stm32n6xx_hal_i2c.c ****      Function HAL_I2C_RegisterCallback() allows to register following callbacks:
 260:STM32Cube_FW_N6/Drivers/STM32N6xx_HAL_Driver/Src/stm32n6xx_hal_i2c.c ****        (+) MasterTxCpltCallback : callback for Master transmission end of transfer.
 261:STM32Cube_FW_N6/Drivers/STM32N6xx_HAL_Driver/Src/stm32n6xx_hal_i2c.c ****        (+) MasterRxCpltCallback : callback for Master reception end of transfer.
 262:STM32Cube_FW_N6/Drivers/STM32N6xx_HAL_Driver/Src/stm32n6xx_hal_i2c.c ****        (+) SlaveTxCpltCallback  : callback for Slave transmission end of transfer.
 263:STM32Cube_FW_N6/Drivers/STM32N6xx_HAL_Driver/Src/stm32n6xx_hal_i2c.c ****        (+) SlaveRxCpltCallback  : callback for Slave reception end of transfer.
 264:STM32Cube_FW_N6/Drivers/STM32N6xx_HAL_Driver/Src/stm32n6xx_hal_i2c.c ****        (+) ListenCpltCallback   : callback for end of listen mode.
 265:STM32Cube_FW_N6/Drivers/STM32N6xx_HAL_Driver/Src/stm32n6xx_hal_i2c.c ****        (+) MemTxCpltCallback    : callback for Memory transmission end of transfer.
 266:STM32Cube_FW_N6/Drivers/STM32N6xx_HAL_Driver/Src/stm32n6xx_hal_i2c.c ****        (+) MemRxCpltCallback    : callback for Memory reception end of transfer.
 267:STM32Cube_FW_N6/Drivers/STM32N6xx_HAL_Driver/Src/stm32n6xx_hal_i2c.c ****        (+) ErrorCallback        : callback for error detection.
 268:STM32Cube_FW_N6/Drivers/STM32N6xx_HAL_Driver/Src/stm32n6xx_hal_i2c.c ****        (+) AbortCpltCallback    : callback for abort completion process.
 269:STM32Cube_FW_N6/Drivers/STM32N6xx_HAL_Driver/Src/stm32n6xx_hal_i2c.c ****        (+) MspInitCallback      : callback for Msp Init.
 270:STM32Cube_FW_N6/Drivers/STM32N6xx_HAL_Driver/Src/stm32n6xx_hal_i2c.c ****        (+) MspDeInitCallback    : callback for Msp DeInit.
 271:STM32Cube_FW_N6/Drivers/STM32N6xx_HAL_Driver/Src/stm32n6xx_hal_i2c.c ****      This function takes as parameters the HAL peripheral handle, the Callback ID
 272:STM32Cube_FW_N6/Drivers/STM32N6xx_HAL_Driver/Src/stm32n6xx_hal_i2c.c ****      and a pointer to the user callback function.
 273:STM32Cube_FW_N6/Drivers/STM32N6xx_HAL_Driver/Src/stm32n6xx_hal_i2c.c ****     [..]
 274:STM32Cube_FW_N6/Drivers/STM32N6xx_HAL_Driver/Src/stm32n6xx_hal_i2c.c ****      For specific callback AddrCallback use dedicated register callbacks : HAL_I2C_RegisterAddrCall
 275:STM32Cube_FW_N6/Drivers/STM32N6xx_HAL_Driver/Src/stm32n6xx_hal_i2c.c ****     [..]
 276:STM32Cube_FW_N6/Drivers/STM32N6xx_HAL_Driver/Src/stm32n6xx_hal_i2c.c ****      Use function HAL_I2C_UnRegisterCallback to reset a callback to the default
 277:STM32Cube_FW_N6/Drivers/STM32N6xx_HAL_Driver/Src/stm32n6xx_hal_i2c.c ****      weak function.
 278:STM32Cube_FW_N6/Drivers/STM32N6xx_HAL_Driver/Src/stm32n6xx_hal_i2c.c ****      HAL_I2C_UnRegisterCallback takes as parameters the HAL peripheral handle,
 279:STM32Cube_FW_N6/Drivers/STM32N6xx_HAL_Driver/Src/stm32n6xx_hal_i2c.c ****      and the Callback ID.
 280:STM32Cube_FW_N6/Drivers/STM32N6xx_HAL_Driver/Src/stm32n6xx_hal_i2c.c ****      This function allows to reset following callbacks:
 281:STM32Cube_FW_N6/Drivers/STM32N6xx_HAL_Driver/Src/stm32n6xx_hal_i2c.c ****        (+) MasterTxCpltCallback : callback for Master transmission end of transfer.
 282:STM32Cube_FW_N6/Drivers/STM32N6xx_HAL_Driver/Src/stm32n6xx_hal_i2c.c ****        (+) MasterRxCpltCallback : callback for Master reception end of transfer.
 283:STM32Cube_FW_N6/Drivers/STM32N6xx_HAL_Driver/Src/stm32n6xx_hal_i2c.c ****        (+) SlaveTxCpltCallback  : callback for Slave transmission end of transfer.
 284:STM32Cube_FW_N6/Drivers/STM32N6xx_HAL_Driver/Src/stm32n6xx_hal_i2c.c ****        (+) SlaveRxCpltCallback  : callback for Slave reception end of transfer.
 285:STM32Cube_FW_N6/Drivers/STM32N6xx_HAL_Driver/Src/stm32n6xx_hal_i2c.c ****        (+) ListenCpltCallback   : callback for end of listen mode.
 286:STM32Cube_FW_N6/Drivers/STM32N6xx_HAL_Driver/Src/stm32n6xx_hal_i2c.c ****        (+) MemTxCpltCallback    : callback for Memory transmission end of transfer.
 287:STM32Cube_FW_N6/Drivers/STM32N6xx_HAL_Driver/Src/stm32n6xx_hal_i2c.c ****        (+) MemRxCpltCallback    : callback for Memory reception end of transfer.
 288:STM32Cube_FW_N6/Drivers/STM32N6xx_HAL_Driver/Src/stm32n6xx_hal_i2c.c ****        (+) ErrorCallback        : callback for error detection.
 289:STM32Cube_FW_N6/Drivers/STM32N6xx_HAL_Driver/Src/stm32n6xx_hal_i2c.c ****        (+) AbortCpltCallback    : callback for abort completion process.
 290:STM32Cube_FW_N6/Drivers/STM32N6xx_HAL_Driver/Src/stm32n6xx_hal_i2c.c ****        (+) MspInitCallback      : callback for Msp Init.
 291:STM32Cube_FW_N6/Drivers/STM32N6xx_HAL_Driver/Src/stm32n6xx_hal_i2c.c ****        (+) MspDeInitCallback    : callback for Msp DeInit.
 292:STM32Cube_FW_N6/Drivers/STM32N6xx_HAL_Driver/Src/stm32n6xx_hal_i2c.c ****     [..]
 293:STM32Cube_FW_N6/Drivers/STM32N6xx_HAL_Driver/Src/stm32n6xx_hal_i2c.c ****      For callback AddrCallback use dedicated register callbacks : HAL_I2C_UnRegisterAddrCallback().
 294:STM32Cube_FW_N6/Drivers/STM32N6xx_HAL_Driver/Src/stm32n6xx_hal_i2c.c ****     [..]
 295:STM32Cube_FW_N6/Drivers/STM32N6xx_HAL_Driver/Src/stm32n6xx_hal_i2c.c ****      By default, after the HAL_I2C_Init() and when the state is HAL_I2C_STATE_RESET
 296:STM32Cube_FW_N6/Drivers/STM32N6xx_HAL_Driver/Src/stm32n6xx_hal_i2c.c ****      all callbacks are set to the corresponding weak functions:
 297:STM32Cube_FW_N6/Drivers/STM32N6xx_HAL_Driver/Src/stm32n6xx_hal_i2c.c ****      examples HAL_I2C_MasterTxCpltCallback(), HAL_I2C_MasterRxCpltCallback().
ARM GAS  /tmp/ccrxElPM.s 			page 7


 298:STM32Cube_FW_N6/Drivers/STM32N6xx_HAL_Driver/Src/stm32n6xx_hal_i2c.c ****      Exception done for MspInit and MspDeInit functions that are
 299:STM32Cube_FW_N6/Drivers/STM32N6xx_HAL_Driver/Src/stm32n6xx_hal_i2c.c ****      reset to the legacy weak functions in the HAL_I2C_Init()/ HAL_I2C_DeInit() only when
 300:STM32Cube_FW_N6/Drivers/STM32N6xx_HAL_Driver/Src/stm32n6xx_hal_i2c.c ****      these callbacks are null (not registered beforehand).
 301:STM32Cube_FW_N6/Drivers/STM32N6xx_HAL_Driver/Src/stm32n6xx_hal_i2c.c ****      If MspInit or MspDeInit are not null, the HAL_I2C_Init()/ HAL_I2C_DeInit()
 302:STM32Cube_FW_N6/Drivers/STM32N6xx_HAL_Driver/Src/stm32n6xx_hal_i2c.c ****      keep and use the user MspInit/MspDeInit callbacks (registered beforehand) whatever the state.
 303:STM32Cube_FW_N6/Drivers/STM32N6xx_HAL_Driver/Src/stm32n6xx_hal_i2c.c ****     [..]
 304:STM32Cube_FW_N6/Drivers/STM32N6xx_HAL_Driver/Src/stm32n6xx_hal_i2c.c ****      Callbacks can be registered/unregistered in HAL_I2C_STATE_READY state only.
 305:STM32Cube_FW_N6/Drivers/STM32N6xx_HAL_Driver/Src/stm32n6xx_hal_i2c.c ****      Exception done MspInit/MspDeInit functions that can be registered/unregistered
 306:STM32Cube_FW_N6/Drivers/STM32N6xx_HAL_Driver/Src/stm32n6xx_hal_i2c.c ****      in HAL_I2C_STATE_READY or HAL_I2C_STATE_RESET state,
 307:STM32Cube_FW_N6/Drivers/STM32N6xx_HAL_Driver/Src/stm32n6xx_hal_i2c.c ****      thus registered (user) MspInit/DeInit callbacks can be used during the Init/DeInit.
 308:STM32Cube_FW_N6/Drivers/STM32N6xx_HAL_Driver/Src/stm32n6xx_hal_i2c.c ****      Then, the user first registers the MspInit/MspDeInit user callbacks
 309:STM32Cube_FW_N6/Drivers/STM32N6xx_HAL_Driver/Src/stm32n6xx_hal_i2c.c ****      using HAL_I2C_RegisterCallback() before calling HAL_I2C_DeInit()
 310:STM32Cube_FW_N6/Drivers/STM32N6xx_HAL_Driver/Src/stm32n6xx_hal_i2c.c ****      or HAL_I2C_Init() function.
 311:STM32Cube_FW_N6/Drivers/STM32N6xx_HAL_Driver/Src/stm32n6xx_hal_i2c.c ****     [..]
 312:STM32Cube_FW_N6/Drivers/STM32N6xx_HAL_Driver/Src/stm32n6xx_hal_i2c.c ****      When the compilation flag USE_HAL_I2C_REGISTER_CALLBACKS is set to 0 or
 313:STM32Cube_FW_N6/Drivers/STM32N6xx_HAL_Driver/Src/stm32n6xx_hal_i2c.c ****      not defined, the callback registration feature is not available and all callbacks
 314:STM32Cube_FW_N6/Drivers/STM32N6xx_HAL_Driver/Src/stm32n6xx_hal_i2c.c ****      are set to the corresponding weak functions.
 315:STM32Cube_FW_N6/Drivers/STM32N6xx_HAL_Driver/Src/stm32n6xx_hal_i2c.c **** 
 316:STM32Cube_FW_N6/Drivers/STM32N6xx_HAL_Driver/Src/stm32n6xx_hal_i2c.c ****      [..]
 317:STM32Cube_FW_N6/Drivers/STM32N6xx_HAL_Driver/Src/stm32n6xx_hal_i2c.c ****        (@) You can refer to the I2C HAL driver header file for more useful macros
 318:STM32Cube_FW_N6/Drivers/STM32N6xx_HAL_Driver/Src/stm32n6xx_hal_i2c.c **** 
 319:STM32Cube_FW_N6/Drivers/STM32N6xx_HAL_Driver/Src/stm32n6xx_hal_i2c.c ****   @endverbatim
 320:STM32Cube_FW_N6/Drivers/STM32N6xx_HAL_Driver/Src/stm32n6xx_hal_i2c.c ****   */
 321:STM32Cube_FW_N6/Drivers/STM32N6xx_HAL_Driver/Src/stm32n6xx_hal_i2c.c **** 
 322:STM32Cube_FW_N6/Drivers/STM32N6xx_HAL_Driver/Src/stm32n6xx_hal_i2c.c **** /* Includes ------------------------------------------------------------------*/
 323:STM32Cube_FW_N6/Drivers/STM32N6xx_HAL_Driver/Src/stm32n6xx_hal_i2c.c **** #include "stm32n6xx_hal.h"
 324:STM32Cube_FW_N6/Drivers/STM32N6xx_HAL_Driver/Src/stm32n6xx_hal_i2c.c **** 
 325:STM32Cube_FW_N6/Drivers/STM32N6xx_HAL_Driver/Src/stm32n6xx_hal_i2c.c **** /** @addtogroup STM32N6xx_HAL_Driver
 326:STM32Cube_FW_N6/Drivers/STM32N6xx_HAL_Driver/Src/stm32n6xx_hal_i2c.c ****   * @{
 327:STM32Cube_FW_N6/Drivers/STM32N6xx_HAL_Driver/Src/stm32n6xx_hal_i2c.c ****   */
 328:STM32Cube_FW_N6/Drivers/STM32N6xx_HAL_Driver/Src/stm32n6xx_hal_i2c.c **** 
 329:STM32Cube_FW_N6/Drivers/STM32N6xx_HAL_Driver/Src/stm32n6xx_hal_i2c.c **** /** @defgroup I2C I2C
 330:STM32Cube_FW_N6/Drivers/STM32N6xx_HAL_Driver/Src/stm32n6xx_hal_i2c.c ****   * @brief I2C HAL module driver
 331:STM32Cube_FW_N6/Drivers/STM32N6xx_HAL_Driver/Src/stm32n6xx_hal_i2c.c ****   * @{
 332:STM32Cube_FW_N6/Drivers/STM32N6xx_HAL_Driver/Src/stm32n6xx_hal_i2c.c ****   */
 333:STM32Cube_FW_N6/Drivers/STM32N6xx_HAL_Driver/Src/stm32n6xx_hal_i2c.c **** 
 334:STM32Cube_FW_N6/Drivers/STM32N6xx_HAL_Driver/Src/stm32n6xx_hal_i2c.c **** #ifdef HAL_I2C_MODULE_ENABLED
 335:STM32Cube_FW_N6/Drivers/STM32N6xx_HAL_Driver/Src/stm32n6xx_hal_i2c.c **** 
 336:STM32Cube_FW_N6/Drivers/STM32N6xx_HAL_Driver/Src/stm32n6xx_hal_i2c.c **** /* Private typedef -----------------------------------------------------------*/
 337:STM32Cube_FW_N6/Drivers/STM32N6xx_HAL_Driver/Src/stm32n6xx_hal_i2c.c **** /* Private define ------------------------------------------------------------*/
 338:STM32Cube_FW_N6/Drivers/STM32N6xx_HAL_Driver/Src/stm32n6xx_hal_i2c.c **** 
 339:STM32Cube_FW_N6/Drivers/STM32N6xx_HAL_Driver/Src/stm32n6xx_hal_i2c.c **** /** @defgroup I2C_Private_Define I2C Private Define
 340:STM32Cube_FW_N6/Drivers/STM32N6xx_HAL_Driver/Src/stm32n6xx_hal_i2c.c ****   * @{
 341:STM32Cube_FW_N6/Drivers/STM32N6xx_HAL_Driver/Src/stm32n6xx_hal_i2c.c ****   */
 342:STM32Cube_FW_N6/Drivers/STM32N6xx_HAL_Driver/Src/stm32n6xx_hal_i2c.c **** #define TIMING_CLEAR_MASK   (0xF0FFFFFFU)  /*!< I2C TIMING clear register Mask */
 343:STM32Cube_FW_N6/Drivers/STM32N6xx_HAL_Driver/Src/stm32n6xx_hal_i2c.c **** #define I2C_TIMEOUT_ADDR    (10000U)       /*!< 10 s  */
 344:STM32Cube_FW_N6/Drivers/STM32N6xx_HAL_Driver/Src/stm32n6xx_hal_i2c.c **** #define I2C_TIMEOUT_BUSY    (25U)          /*!< 25 ms */
 345:STM32Cube_FW_N6/Drivers/STM32N6xx_HAL_Driver/Src/stm32n6xx_hal_i2c.c **** #define I2C_TIMEOUT_DIR     (25U)          /*!< 25 ms */
 346:STM32Cube_FW_N6/Drivers/STM32N6xx_HAL_Driver/Src/stm32n6xx_hal_i2c.c **** #define I2C_TIMEOUT_RXNE    (25U)          /*!< 25 ms */
 347:STM32Cube_FW_N6/Drivers/STM32N6xx_HAL_Driver/Src/stm32n6xx_hal_i2c.c **** #define I2C_TIMEOUT_STOPF   (25U)          /*!< 25 ms */
 348:STM32Cube_FW_N6/Drivers/STM32N6xx_HAL_Driver/Src/stm32n6xx_hal_i2c.c **** #define I2C_TIMEOUT_TC      (25U)          /*!< 25 ms */
 349:STM32Cube_FW_N6/Drivers/STM32N6xx_HAL_Driver/Src/stm32n6xx_hal_i2c.c **** #define I2C_TIMEOUT_TCR     (25U)          /*!< 25 ms */
 350:STM32Cube_FW_N6/Drivers/STM32N6xx_HAL_Driver/Src/stm32n6xx_hal_i2c.c **** #define I2C_TIMEOUT_TXIS    (25U)          /*!< 25 ms */
 351:STM32Cube_FW_N6/Drivers/STM32N6xx_HAL_Driver/Src/stm32n6xx_hal_i2c.c **** #define I2C_TIMEOUT_FLAG    (25U)          /*!< 25 ms */
 352:STM32Cube_FW_N6/Drivers/STM32N6xx_HAL_Driver/Src/stm32n6xx_hal_i2c.c **** 
 353:STM32Cube_FW_N6/Drivers/STM32N6xx_HAL_Driver/Src/stm32n6xx_hal_i2c.c **** #define MAX_NBYTE_SIZE      255U
 354:STM32Cube_FW_N6/Drivers/STM32N6xx_HAL_Driver/Src/stm32n6xx_hal_i2c.c **** #define SLAVE_ADDR_SHIFT     7U
ARM GAS  /tmp/ccrxElPM.s 			page 8


 355:STM32Cube_FW_N6/Drivers/STM32N6xx_HAL_Driver/Src/stm32n6xx_hal_i2c.c **** #define SLAVE_ADDR_MSK       0x06U
 356:STM32Cube_FW_N6/Drivers/STM32N6xx_HAL_Driver/Src/stm32n6xx_hal_i2c.c **** 
 357:STM32Cube_FW_N6/Drivers/STM32N6xx_HAL_Driver/Src/stm32n6xx_hal_i2c.c **** /* Private define for @ref PreviousState usage */
 358:STM32Cube_FW_N6/Drivers/STM32N6xx_HAL_Driver/Src/stm32n6xx_hal_i2c.c **** #define I2C_STATE_MSK             ((uint32_t)((uint32_t)((uint32_t)HAL_I2C_STATE_BUSY_TX | \
 359:STM32Cube_FW_N6/Drivers/STM32N6xx_HAL_Driver/Src/stm32n6xx_hal_i2c.c ****                                                          (uint32_t)HAL_I2C_STATE_BUSY_RX) & \
 360:STM32Cube_FW_N6/Drivers/STM32N6xx_HAL_Driver/Src/stm32n6xx_hal_i2c.c ****                                               (uint32_t)(~((uint32_t)HAL_I2C_STATE_READY))))
 361:STM32Cube_FW_N6/Drivers/STM32N6xx_HAL_Driver/Src/stm32n6xx_hal_i2c.c **** /*!< Mask State define, keep only RX and TX bits */
 362:STM32Cube_FW_N6/Drivers/STM32N6xx_HAL_Driver/Src/stm32n6xx_hal_i2c.c **** #define I2C_STATE_NONE            ((uint32_t)(HAL_I2C_MODE_NONE))
 363:STM32Cube_FW_N6/Drivers/STM32N6xx_HAL_Driver/Src/stm32n6xx_hal_i2c.c **** /*!< Default Value */
 364:STM32Cube_FW_N6/Drivers/STM32N6xx_HAL_Driver/Src/stm32n6xx_hal_i2c.c **** #define I2C_STATE_MASTER_BUSY_TX  ((uint32_t)(((uint32_t)HAL_I2C_STATE_BUSY_TX & I2C_STATE_MSK) | \
 365:STM32Cube_FW_N6/Drivers/STM32N6xx_HAL_Driver/Src/stm32n6xx_hal_i2c.c ****                                               (uint32_t)HAL_I2C_MODE_MASTER))
 366:STM32Cube_FW_N6/Drivers/STM32N6xx_HAL_Driver/Src/stm32n6xx_hal_i2c.c **** /*!< Master Busy TX, combinaison of State LSB and Mode enum */
 367:STM32Cube_FW_N6/Drivers/STM32N6xx_HAL_Driver/Src/stm32n6xx_hal_i2c.c **** #define I2C_STATE_MASTER_BUSY_RX  ((uint32_t)(((uint32_t)HAL_I2C_STATE_BUSY_RX & I2C_STATE_MSK) | \
 368:STM32Cube_FW_N6/Drivers/STM32N6xx_HAL_Driver/Src/stm32n6xx_hal_i2c.c ****                                               (uint32_t)HAL_I2C_MODE_MASTER))
 369:STM32Cube_FW_N6/Drivers/STM32N6xx_HAL_Driver/Src/stm32n6xx_hal_i2c.c **** /*!< Master Busy RX, combinaison of State LSB and Mode enum */
 370:STM32Cube_FW_N6/Drivers/STM32N6xx_HAL_Driver/Src/stm32n6xx_hal_i2c.c **** #define I2C_STATE_SLAVE_BUSY_TX   ((uint32_t)(((uint32_t)HAL_I2C_STATE_BUSY_TX & I2C_STATE_MSK) | \
 371:STM32Cube_FW_N6/Drivers/STM32N6xx_HAL_Driver/Src/stm32n6xx_hal_i2c.c ****                                               (uint32_t)HAL_I2C_MODE_SLAVE))
 372:STM32Cube_FW_N6/Drivers/STM32N6xx_HAL_Driver/Src/stm32n6xx_hal_i2c.c **** /*!< Slave Busy TX, combinaison of State LSB and Mode enum */
 373:STM32Cube_FW_N6/Drivers/STM32N6xx_HAL_Driver/Src/stm32n6xx_hal_i2c.c **** #define I2C_STATE_SLAVE_BUSY_RX   ((uint32_t)(((uint32_t)HAL_I2C_STATE_BUSY_RX & I2C_STATE_MSK) | \
 374:STM32Cube_FW_N6/Drivers/STM32N6xx_HAL_Driver/Src/stm32n6xx_hal_i2c.c ****                                               (uint32_t)HAL_I2C_MODE_SLAVE))
 375:STM32Cube_FW_N6/Drivers/STM32N6xx_HAL_Driver/Src/stm32n6xx_hal_i2c.c **** /*!< Slave Busy RX, combinaison of State LSB and Mode enum  */
 376:STM32Cube_FW_N6/Drivers/STM32N6xx_HAL_Driver/Src/stm32n6xx_hal_i2c.c **** #define I2C_STATE_MEM_BUSY_TX     ((uint32_t)(((uint32_t)HAL_I2C_STATE_BUSY_TX & I2C_STATE_MSK) | \
 377:STM32Cube_FW_N6/Drivers/STM32N6xx_HAL_Driver/Src/stm32n6xx_hal_i2c.c ****                                               (uint32_t)HAL_I2C_MODE_MEM))
 378:STM32Cube_FW_N6/Drivers/STM32N6xx_HAL_Driver/Src/stm32n6xx_hal_i2c.c **** /*!< Memory Busy TX, combinaison of State LSB and Mode enum */
 379:STM32Cube_FW_N6/Drivers/STM32N6xx_HAL_Driver/Src/stm32n6xx_hal_i2c.c **** #define I2C_STATE_MEM_BUSY_RX     ((uint32_t)(((uint32_t)HAL_I2C_STATE_BUSY_RX & I2C_STATE_MSK) | \
 380:STM32Cube_FW_N6/Drivers/STM32N6xx_HAL_Driver/Src/stm32n6xx_hal_i2c.c ****                                               (uint32_t)HAL_I2C_MODE_MEM))
 381:STM32Cube_FW_N6/Drivers/STM32N6xx_HAL_Driver/Src/stm32n6xx_hal_i2c.c **** /*!< Memory Busy RX, combinaison of State LSB and Mode enum */
 382:STM32Cube_FW_N6/Drivers/STM32N6xx_HAL_Driver/Src/stm32n6xx_hal_i2c.c **** 
 383:STM32Cube_FW_N6/Drivers/STM32N6xx_HAL_Driver/Src/stm32n6xx_hal_i2c.c **** 
 384:STM32Cube_FW_N6/Drivers/STM32N6xx_HAL_Driver/Src/stm32n6xx_hal_i2c.c **** /* Private define to centralize the enable/disable of Interrupts */
 385:STM32Cube_FW_N6/Drivers/STM32N6xx_HAL_Driver/Src/stm32n6xx_hal_i2c.c **** #define I2C_XFER_TX_IT          (uint16_t)(0x0001U)   /*!< Bit field can be combinated with
 386:STM32Cube_FW_N6/Drivers/STM32N6xx_HAL_Driver/Src/stm32n6xx_hal_i2c.c ****                                                          @ref I2C_XFER_LISTEN_IT */
 387:STM32Cube_FW_N6/Drivers/STM32N6xx_HAL_Driver/Src/stm32n6xx_hal_i2c.c **** #define I2C_XFER_RX_IT          (uint16_t)(0x0002U)   /*!< Bit field can be combinated with
 388:STM32Cube_FW_N6/Drivers/STM32N6xx_HAL_Driver/Src/stm32n6xx_hal_i2c.c ****                                                          @ref I2C_XFER_LISTEN_IT */
 389:STM32Cube_FW_N6/Drivers/STM32N6xx_HAL_Driver/Src/stm32n6xx_hal_i2c.c **** #define I2C_XFER_LISTEN_IT      (uint16_t)(0x8000U)   /*!< Bit field can be combinated with @ref I2
 390:STM32Cube_FW_N6/Drivers/STM32N6xx_HAL_Driver/Src/stm32n6xx_hal_i2c.c ****                                                          and @ref I2C_XFER_RX_IT */
 391:STM32Cube_FW_N6/Drivers/STM32N6xx_HAL_Driver/Src/stm32n6xx_hal_i2c.c **** 
 392:STM32Cube_FW_N6/Drivers/STM32N6xx_HAL_Driver/Src/stm32n6xx_hal_i2c.c **** #define I2C_XFER_ERROR_IT       (uint16_t)(0x0010U)   /*!< Bit definition to manage addition of glo
 393:STM32Cube_FW_N6/Drivers/STM32N6xx_HAL_Driver/Src/stm32n6xx_hal_i2c.c ****                                                          and NACK treatment */
 394:STM32Cube_FW_N6/Drivers/STM32N6xx_HAL_Driver/Src/stm32n6xx_hal_i2c.c **** #define I2C_XFER_CPLT_IT        (uint16_t)(0x0020U)   /*!< Bit definition to manage only STOP evene
 395:STM32Cube_FW_N6/Drivers/STM32N6xx_HAL_Driver/Src/stm32n6xx_hal_i2c.c **** #define I2C_XFER_RELOAD_IT      (uint16_t)(0x0040U)   /*!< Bit definition to manage only Reload of 
 396:STM32Cube_FW_N6/Drivers/STM32N6xx_HAL_Driver/Src/stm32n6xx_hal_i2c.c **** 
 397:STM32Cube_FW_N6/Drivers/STM32N6xx_HAL_Driver/Src/stm32n6xx_hal_i2c.c **** /* Private define Sequential Transfer Options default/reset value */
 398:STM32Cube_FW_N6/Drivers/STM32N6xx_HAL_Driver/Src/stm32n6xx_hal_i2c.c **** #define I2C_NO_OPTION_FRAME     (0xFFFF0000U)
 399:STM32Cube_FW_N6/Drivers/STM32N6xx_HAL_Driver/Src/stm32n6xx_hal_i2c.c **** /**
 400:STM32Cube_FW_N6/Drivers/STM32N6xx_HAL_Driver/Src/stm32n6xx_hal_i2c.c ****   * @}
 401:STM32Cube_FW_N6/Drivers/STM32N6xx_HAL_Driver/Src/stm32n6xx_hal_i2c.c ****   */
 402:STM32Cube_FW_N6/Drivers/STM32N6xx_HAL_Driver/Src/stm32n6xx_hal_i2c.c **** 
 403:STM32Cube_FW_N6/Drivers/STM32N6xx_HAL_Driver/Src/stm32n6xx_hal_i2c.c **** /* Private macros ------------------------------------------------------------*/
 404:STM32Cube_FW_N6/Drivers/STM32N6xx_HAL_Driver/Src/stm32n6xx_hal_i2c.c **** /** @addtogroup I2C_Private_Macro
 405:STM32Cube_FW_N6/Drivers/STM32N6xx_HAL_Driver/Src/stm32n6xx_hal_i2c.c ****   * @{
 406:STM32Cube_FW_N6/Drivers/STM32N6xx_HAL_Driver/Src/stm32n6xx_hal_i2c.c ****   */
 407:STM32Cube_FW_N6/Drivers/STM32N6xx_HAL_Driver/Src/stm32n6xx_hal_i2c.c **** #if defined(HAL_DMA_MODULE_ENABLED)
 408:STM32Cube_FW_N6/Drivers/STM32N6xx_HAL_Driver/Src/stm32n6xx_hal_i2c.c **** /* Macro to get remaining data to transfer on DMA side */
 409:STM32Cube_FW_N6/Drivers/STM32N6xx_HAL_Driver/Src/stm32n6xx_hal_i2c.c **** #define I2C_GET_DMA_REMAIN_DATA(__HANDLE__)     (__HAL_DMA_GET_COUNTER(__HANDLE__) + HAL_DMAEx_GetF
 410:STM32Cube_FW_N6/Drivers/STM32N6xx_HAL_Driver/Src/stm32n6xx_hal_i2c.c **** #endif /* HAL_DMA_MODULE_ENABLED */
 411:STM32Cube_FW_N6/Drivers/STM32N6xx_HAL_Driver/Src/stm32n6xx_hal_i2c.c **** /**
ARM GAS  /tmp/ccrxElPM.s 			page 9


 412:STM32Cube_FW_N6/Drivers/STM32N6xx_HAL_Driver/Src/stm32n6xx_hal_i2c.c ****   * @}
 413:STM32Cube_FW_N6/Drivers/STM32N6xx_HAL_Driver/Src/stm32n6xx_hal_i2c.c ****   */
 414:STM32Cube_FW_N6/Drivers/STM32N6xx_HAL_Driver/Src/stm32n6xx_hal_i2c.c **** 
 415:STM32Cube_FW_N6/Drivers/STM32N6xx_HAL_Driver/Src/stm32n6xx_hal_i2c.c **** /* Private variables ---------------------------------------------------------*/
 416:STM32Cube_FW_N6/Drivers/STM32N6xx_HAL_Driver/Src/stm32n6xx_hal_i2c.c **** /* Private function prototypes -----------------------------------------------*/
 417:STM32Cube_FW_N6/Drivers/STM32N6xx_HAL_Driver/Src/stm32n6xx_hal_i2c.c **** 
 418:STM32Cube_FW_N6/Drivers/STM32N6xx_HAL_Driver/Src/stm32n6xx_hal_i2c.c **** /** @defgroup I2C_Private_Functions I2C Private Functions
 419:STM32Cube_FW_N6/Drivers/STM32N6xx_HAL_Driver/Src/stm32n6xx_hal_i2c.c ****   * @{
 420:STM32Cube_FW_N6/Drivers/STM32N6xx_HAL_Driver/Src/stm32n6xx_hal_i2c.c ****   */
 421:STM32Cube_FW_N6/Drivers/STM32N6xx_HAL_Driver/Src/stm32n6xx_hal_i2c.c **** #if defined(HAL_DMA_MODULE_ENABLED)
 422:STM32Cube_FW_N6/Drivers/STM32N6xx_HAL_Driver/Src/stm32n6xx_hal_i2c.c **** /* Private functions to handle DMA transfer */
 423:STM32Cube_FW_N6/Drivers/STM32N6xx_HAL_Driver/Src/stm32n6xx_hal_i2c.c **** static void I2C_DMAMasterTransmitCplt(DMA_HandleTypeDef *hdma);
 424:STM32Cube_FW_N6/Drivers/STM32N6xx_HAL_Driver/Src/stm32n6xx_hal_i2c.c **** static void I2C_DMAMasterReceiveCplt(DMA_HandleTypeDef *hdma);
 425:STM32Cube_FW_N6/Drivers/STM32N6xx_HAL_Driver/Src/stm32n6xx_hal_i2c.c **** static void I2C_DMASlaveTransmitCplt(DMA_HandleTypeDef *hdma);
 426:STM32Cube_FW_N6/Drivers/STM32N6xx_HAL_Driver/Src/stm32n6xx_hal_i2c.c **** static void I2C_DMASlaveReceiveCplt(DMA_HandleTypeDef *hdma);
 427:STM32Cube_FW_N6/Drivers/STM32N6xx_HAL_Driver/Src/stm32n6xx_hal_i2c.c **** static void I2C_DMAError(DMA_HandleTypeDef *hdma);
 428:STM32Cube_FW_N6/Drivers/STM32N6xx_HAL_Driver/Src/stm32n6xx_hal_i2c.c **** static void I2C_DMAAbort(DMA_HandleTypeDef *hdma);
 429:STM32Cube_FW_N6/Drivers/STM32N6xx_HAL_Driver/Src/stm32n6xx_hal_i2c.c **** 
 430:STM32Cube_FW_N6/Drivers/STM32N6xx_HAL_Driver/Src/stm32n6xx_hal_i2c.c **** #endif /* HAL_DMA_MODULE_ENABLED */
 431:STM32Cube_FW_N6/Drivers/STM32N6xx_HAL_Driver/Src/stm32n6xx_hal_i2c.c **** 
 432:STM32Cube_FW_N6/Drivers/STM32N6xx_HAL_Driver/Src/stm32n6xx_hal_i2c.c **** /* Private functions to handle IT transfer */
 433:STM32Cube_FW_N6/Drivers/STM32N6xx_HAL_Driver/Src/stm32n6xx_hal_i2c.c **** static void I2C_ITAddrCplt(I2C_HandleTypeDef *hi2c, uint32_t ITFlags);
 434:STM32Cube_FW_N6/Drivers/STM32N6xx_HAL_Driver/Src/stm32n6xx_hal_i2c.c **** static void I2C_ITMasterSeqCplt(I2C_HandleTypeDef *hi2c);
 435:STM32Cube_FW_N6/Drivers/STM32N6xx_HAL_Driver/Src/stm32n6xx_hal_i2c.c **** static void I2C_ITSlaveSeqCplt(I2C_HandleTypeDef *hi2c);
 436:STM32Cube_FW_N6/Drivers/STM32N6xx_HAL_Driver/Src/stm32n6xx_hal_i2c.c **** static void I2C_ITMasterCplt(I2C_HandleTypeDef *hi2c, uint32_t ITFlags);
 437:STM32Cube_FW_N6/Drivers/STM32N6xx_HAL_Driver/Src/stm32n6xx_hal_i2c.c **** static void I2C_ITSlaveCplt(I2C_HandleTypeDef *hi2c, uint32_t ITFlags);
 438:STM32Cube_FW_N6/Drivers/STM32N6xx_HAL_Driver/Src/stm32n6xx_hal_i2c.c **** static void I2C_ITListenCplt(I2C_HandleTypeDef *hi2c, uint32_t ITFlags);
 439:STM32Cube_FW_N6/Drivers/STM32N6xx_HAL_Driver/Src/stm32n6xx_hal_i2c.c **** static void I2C_ITError(I2C_HandleTypeDef *hi2c, uint32_t ErrorCode);
 440:STM32Cube_FW_N6/Drivers/STM32N6xx_HAL_Driver/Src/stm32n6xx_hal_i2c.c **** 
 441:STM32Cube_FW_N6/Drivers/STM32N6xx_HAL_Driver/Src/stm32n6xx_hal_i2c.c **** /* Private functions to handle IT transfer */
 442:STM32Cube_FW_N6/Drivers/STM32N6xx_HAL_Driver/Src/stm32n6xx_hal_i2c.c **** static HAL_StatusTypeDef I2C_RequestMemoryWrite(I2C_HandleTypeDef *hi2c, uint16_t DevAddress,
 443:STM32Cube_FW_N6/Drivers/STM32N6xx_HAL_Driver/Src/stm32n6xx_hal_i2c.c ****                                                 uint16_t MemAddress, uint16_t MemAddSize, uint32_t 
 444:STM32Cube_FW_N6/Drivers/STM32N6xx_HAL_Driver/Src/stm32n6xx_hal_i2c.c ****                                                 uint32_t Tickstart);
 445:STM32Cube_FW_N6/Drivers/STM32N6xx_HAL_Driver/Src/stm32n6xx_hal_i2c.c **** static HAL_StatusTypeDef I2C_RequestMemoryRead(I2C_HandleTypeDef *hi2c, uint16_t DevAddress,
 446:STM32Cube_FW_N6/Drivers/STM32N6xx_HAL_Driver/Src/stm32n6xx_hal_i2c.c ****                                                uint16_t MemAddress, uint16_t MemAddSize, uint32_t T
 447:STM32Cube_FW_N6/Drivers/STM32N6xx_HAL_Driver/Src/stm32n6xx_hal_i2c.c ****                                                uint32_t Tickstart);
 448:STM32Cube_FW_N6/Drivers/STM32N6xx_HAL_Driver/Src/stm32n6xx_hal_i2c.c **** 
 449:STM32Cube_FW_N6/Drivers/STM32N6xx_HAL_Driver/Src/stm32n6xx_hal_i2c.c **** /* Private functions for I2C transfer IRQ handler */
 450:STM32Cube_FW_N6/Drivers/STM32N6xx_HAL_Driver/Src/stm32n6xx_hal_i2c.c **** static HAL_StatusTypeDef I2C_Master_ISR_IT(struct __I2C_HandleTypeDef *hi2c, uint32_t ITFlags,
 451:STM32Cube_FW_N6/Drivers/STM32N6xx_HAL_Driver/Src/stm32n6xx_hal_i2c.c ****                                            uint32_t ITSources);
 452:STM32Cube_FW_N6/Drivers/STM32N6xx_HAL_Driver/Src/stm32n6xx_hal_i2c.c **** static HAL_StatusTypeDef I2C_Mem_ISR_IT(struct __I2C_HandleTypeDef *hi2c, uint32_t ITFlags,
 453:STM32Cube_FW_N6/Drivers/STM32N6xx_HAL_Driver/Src/stm32n6xx_hal_i2c.c ****                                         uint32_t ITSources);
 454:STM32Cube_FW_N6/Drivers/STM32N6xx_HAL_Driver/Src/stm32n6xx_hal_i2c.c **** static HAL_StatusTypeDef I2C_Slave_ISR_IT(struct __I2C_HandleTypeDef *hi2c, uint32_t ITFlags,
 455:STM32Cube_FW_N6/Drivers/STM32N6xx_HAL_Driver/Src/stm32n6xx_hal_i2c.c ****                                           uint32_t ITSources);
 456:STM32Cube_FW_N6/Drivers/STM32N6xx_HAL_Driver/Src/stm32n6xx_hal_i2c.c **** #if defined(HAL_DMA_MODULE_ENABLED)
 457:STM32Cube_FW_N6/Drivers/STM32N6xx_HAL_Driver/Src/stm32n6xx_hal_i2c.c **** static HAL_StatusTypeDef I2C_Master_ISR_DMA(struct __I2C_HandleTypeDef *hi2c, uint32_t ITFlags,
 458:STM32Cube_FW_N6/Drivers/STM32N6xx_HAL_Driver/Src/stm32n6xx_hal_i2c.c ****                                             uint32_t ITSources);
 459:STM32Cube_FW_N6/Drivers/STM32N6xx_HAL_Driver/Src/stm32n6xx_hal_i2c.c **** static HAL_StatusTypeDef I2C_Mem_ISR_DMA(struct __I2C_HandleTypeDef *hi2c, uint32_t ITFlags,
 460:STM32Cube_FW_N6/Drivers/STM32N6xx_HAL_Driver/Src/stm32n6xx_hal_i2c.c ****                                          uint32_t ITSources);
 461:STM32Cube_FW_N6/Drivers/STM32N6xx_HAL_Driver/Src/stm32n6xx_hal_i2c.c **** static HAL_StatusTypeDef I2C_Slave_ISR_DMA(struct __I2C_HandleTypeDef *hi2c, uint32_t ITFlags,
 462:STM32Cube_FW_N6/Drivers/STM32N6xx_HAL_Driver/Src/stm32n6xx_hal_i2c.c ****                                            uint32_t ITSources);
 463:STM32Cube_FW_N6/Drivers/STM32N6xx_HAL_Driver/Src/stm32n6xx_hal_i2c.c **** #endif /* HAL_DMA_MODULE_ENABLED */
 464:STM32Cube_FW_N6/Drivers/STM32N6xx_HAL_Driver/Src/stm32n6xx_hal_i2c.c **** 
 465:STM32Cube_FW_N6/Drivers/STM32N6xx_HAL_Driver/Src/stm32n6xx_hal_i2c.c **** /* Private functions to handle flags during polling transfer */
 466:STM32Cube_FW_N6/Drivers/STM32N6xx_HAL_Driver/Src/stm32n6xx_hal_i2c.c **** static HAL_StatusTypeDef I2C_WaitOnFlagUntilTimeout(I2C_HandleTypeDef *hi2c, uint32_t Flag, FlagSta
 467:STM32Cube_FW_N6/Drivers/STM32N6xx_HAL_Driver/Src/stm32n6xx_hal_i2c.c ****                                                     uint32_t Timeout, uint32_t Tickstart);
 468:STM32Cube_FW_N6/Drivers/STM32N6xx_HAL_Driver/Src/stm32n6xx_hal_i2c.c **** static HAL_StatusTypeDef I2C_WaitOnTXISFlagUntilTimeout(I2C_HandleTypeDef *hi2c, uint32_t Timeout,
ARM GAS  /tmp/ccrxElPM.s 			page 10


 469:STM32Cube_FW_N6/Drivers/STM32N6xx_HAL_Driver/Src/stm32n6xx_hal_i2c.c ****                                                         uint32_t Tickstart);
 470:STM32Cube_FW_N6/Drivers/STM32N6xx_HAL_Driver/Src/stm32n6xx_hal_i2c.c **** static HAL_StatusTypeDef I2C_WaitOnRXNEFlagUntilTimeout(I2C_HandleTypeDef *hi2c, uint32_t Timeout,
 471:STM32Cube_FW_N6/Drivers/STM32N6xx_HAL_Driver/Src/stm32n6xx_hal_i2c.c ****                                                         uint32_t Tickstart);
 472:STM32Cube_FW_N6/Drivers/STM32N6xx_HAL_Driver/Src/stm32n6xx_hal_i2c.c **** static HAL_StatusTypeDef I2C_WaitOnSTOPFlagUntilTimeout(I2C_HandleTypeDef *hi2c, uint32_t Timeout,
 473:STM32Cube_FW_N6/Drivers/STM32N6xx_HAL_Driver/Src/stm32n6xx_hal_i2c.c ****                                                         uint32_t Tickstart);
 474:STM32Cube_FW_N6/Drivers/STM32N6xx_HAL_Driver/Src/stm32n6xx_hal_i2c.c **** static HAL_StatusTypeDef I2C_IsErrorOccurred(I2C_HandleTypeDef *hi2c, uint32_t Timeout,
 475:STM32Cube_FW_N6/Drivers/STM32N6xx_HAL_Driver/Src/stm32n6xx_hal_i2c.c ****                                              uint32_t Tickstart);
 476:STM32Cube_FW_N6/Drivers/STM32N6xx_HAL_Driver/Src/stm32n6xx_hal_i2c.c **** 
 477:STM32Cube_FW_N6/Drivers/STM32N6xx_HAL_Driver/Src/stm32n6xx_hal_i2c.c **** /* Private functions to centralize the enable/disable of Interrupts */
 478:STM32Cube_FW_N6/Drivers/STM32N6xx_HAL_Driver/Src/stm32n6xx_hal_i2c.c **** static void I2C_Enable_IRQ(I2C_HandleTypeDef *hi2c, uint16_t InterruptRequest);
 479:STM32Cube_FW_N6/Drivers/STM32N6xx_HAL_Driver/Src/stm32n6xx_hal_i2c.c **** static void I2C_Disable_IRQ(I2C_HandleTypeDef *hi2c, uint16_t InterruptRequest);
 480:STM32Cube_FW_N6/Drivers/STM32N6xx_HAL_Driver/Src/stm32n6xx_hal_i2c.c **** 
 481:STM32Cube_FW_N6/Drivers/STM32N6xx_HAL_Driver/Src/stm32n6xx_hal_i2c.c **** /* Private function to treat different error callback */
 482:STM32Cube_FW_N6/Drivers/STM32N6xx_HAL_Driver/Src/stm32n6xx_hal_i2c.c **** static void I2C_TreatErrorCallback(I2C_HandleTypeDef *hi2c);
 483:STM32Cube_FW_N6/Drivers/STM32N6xx_HAL_Driver/Src/stm32n6xx_hal_i2c.c **** 
 484:STM32Cube_FW_N6/Drivers/STM32N6xx_HAL_Driver/Src/stm32n6xx_hal_i2c.c **** /* Private function to flush TXDR register */
 485:STM32Cube_FW_N6/Drivers/STM32N6xx_HAL_Driver/Src/stm32n6xx_hal_i2c.c **** static void I2C_Flush_TXDR(I2C_HandleTypeDef *hi2c);
 486:STM32Cube_FW_N6/Drivers/STM32N6xx_HAL_Driver/Src/stm32n6xx_hal_i2c.c **** 
 487:STM32Cube_FW_N6/Drivers/STM32N6xx_HAL_Driver/Src/stm32n6xx_hal_i2c.c **** /* Private function to handle  start, restart or stop a transfer */
 488:STM32Cube_FW_N6/Drivers/STM32N6xx_HAL_Driver/Src/stm32n6xx_hal_i2c.c **** static void I2C_TransferConfig(I2C_HandleTypeDef *hi2c, uint16_t DevAddress, uint8_t Size, uint32_t
 489:STM32Cube_FW_N6/Drivers/STM32N6xx_HAL_Driver/Src/stm32n6xx_hal_i2c.c ****                                uint32_t Request);
 490:STM32Cube_FW_N6/Drivers/STM32N6xx_HAL_Driver/Src/stm32n6xx_hal_i2c.c **** 
 491:STM32Cube_FW_N6/Drivers/STM32N6xx_HAL_Driver/Src/stm32n6xx_hal_i2c.c **** /* Private function to Convert Specific options */
 492:STM32Cube_FW_N6/Drivers/STM32N6xx_HAL_Driver/Src/stm32n6xx_hal_i2c.c **** static void I2C_ConvertOtherXferOptions(I2C_HandleTypeDef *hi2c);
 493:STM32Cube_FW_N6/Drivers/STM32N6xx_HAL_Driver/Src/stm32n6xx_hal_i2c.c **** /**
 494:STM32Cube_FW_N6/Drivers/STM32N6xx_HAL_Driver/Src/stm32n6xx_hal_i2c.c ****   * @}
 495:STM32Cube_FW_N6/Drivers/STM32N6xx_HAL_Driver/Src/stm32n6xx_hal_i2c.c ****   */
 496:STM32Cube_FW_N6/Drivers/STM32N6xx_HAL_Driver/Src/stm32n6xx_hal_i2c.c **** 
 497:STM32Cube_FW_N6/Drivers/STM32N6xx_HAL_Driver/Src/stm32n6xx_hal_i2c.c **** /* Exported functions --------------------------------------------------------*/
 498:STM32Cube_FW_N6/Drivers/STM32N6xx_HAL_Driver/Src/stm32n6xx_hal_i2c.c **** 
 499:STM32Cube_FW_N6/Drivers/STM32N6xx_HAL_Driver/Src/stm32n6xx_hal_i2c.c **** /** @defgroup I2C_Exported_Functions I2C Exported Functions
 500:STM32Cube_FW_N6/Drivers/STM32N6xx_HAL_Driver/Src/stm32n6xx_hal_i2c.c ****   * @{
 501:STM32Cube_FW_N6/Drivers/STM32N6xx_HAL_Driver/Src/stm32n6xx_hal_i2c.c ****   */
 502:STM32Cube_FW_N6/Drivers/STM32N6xx_HAL_Driver/Src/stm32n6xx_hal_i2c.c **** 
 503:STM32Cube_FW_N6/Drivers/STM32N6xx_HAL_Driver/Src/stm32n6xx_hal_i2c.c **** /** @defgroup I2C_Exported_Functions_Group1 Initialization and de-initialization functions
 504:STM32Cube_FW_N6/Drivers/STM32N6xx_HAL_Driver/Src/stm32n6xx_hal_i2c.c ****   *  @brief    Initialization and Configuration functions
 505:STM32Cube_FW_N6/Drivers/STM32N6xx_HAL_Driver/Src/stm32n6xx_hal_i2c.c ****   *
 506:STM32Cube_FW_N6/Drivers/STM32N6xx_HAL_Driver/Src/stm32n6xx_hal_i2c.c **** @verbatim
 507:STM32Cube_FW_N6/Drivers/STM32N6xx_HAL_Driver/Src/stm32n6xx_hal_i2c.c ****  ===============================================================================
 508:STM32Cube_FW_N6/Drivers/STM32N6xx_HAL_Driver/Src/stm32n6xx_hal_i2c.c ****               ##### Initialization and de-initialization functions #####
 509:STM32Cube_FW_N6/Drivers/STM32N6xx_HAL_Driver/Src/stm32n6xx_hal_i2c.c ****  ===============================================================================
 510:STM32Cube_FW_N6/Drivers/STM32N6xx_HAL_Driver/Src/stm32n6xx_hal_i2c.c ****     [..]  This subsection provides a set of functions allowing to initialize and
 511:STM32Cube_FW_N6/Drivers/STM32N6xx_HAL_Driver/Src/stm32n6xx_hal_i2c.c ****           deinitialize the I2Cx peripheral:
 512:STM32Cube_FW_N6/Drivers/STM32N6xx_HAL_Driver/Src/stm32n6xx_hal_i2c.c **** 
 513:STM32Cube_FW_N6/Drivers/STM32N6xx_HAL_Driver/Src/stm32n6xx_hal_i2c.c ****       (+) User must Implement HAL_I2C_MspInit() function in which he configures
 514:STM32Cube_FW_N6/Drivers/STM32N6xx_HAL_Driver/Src/stm32n6xx_hal_i2c.c ****           all related peripherals resources (CLOCK, GPIO, DMA, IT and NVIC ).
 515:STM32Cube_FW_N6/Drivers/STM32N6xx_HAL_Driver/Src/stm32n6xx_hal_i2c.c **** 
 516:STM32Cube_FW_N6/Drivers/STM32N6xx_HAL_Driver/Src/stm32n6xx_hal_i2c.c ****       (+) Call the function HAL_I2C_Init() to configure the selected device with
 517:STM32Cube_FW_N6/Drivers/STM32N6xx_HAL_Driver/Src/stm32n6xx_hal_i2c.c ****           the selected configuration:
 518:STM32Cube_FW_N6/Drivers/STM32N6xx_HAL_Driver/Src/stm32n6xx_hal_i2c.c ****         (++) Clock Timing
 519:STM32Cube_FW_N6/Drivers/STM32N6xx_HAL_Driver/Src/stm32n6xx_hal_i2c.c ****         (++) Own Address 1
 520:STM32Cube_FW_N6/Drivers/STM32N6xx_HAL_Driver/Src/stm32n6xx_hal_i2c.c ****         (++) Addressing mode (Master, Slave)
 521:STM32Cube_FW_N6/Drivers/STM32N6xx_HAL_Driver/Src/stm32n6xx_hal_i2c.c ****         (++) Dual Addressing mode
 522:STM32Cube_FW_N6/Drivers/STM32N6xx_HAL_Driver/Src/stm32n6xx_hal_i2c.c ****         (++) Own Address 2
 523:STM32Cube_FW_N6/Drivers/STM32N6xx_HAL_Driver/Src/stm32n6xx_hal_i2c.c ****         (++) Own Address 2 Mask
 524:STM32Cube_FW_N6/Drivers/STM32N6xx_HAL_Driver/Src/stm32n6xx_hal_i2c.c ****         (++) General call mode
 525:STM32Cube_FW_N6/Drivers/STM32N6xx_HAL_Driver/Src/stm32n6xx_hal_i2c.c ****         (++) Nostretch mode
ARM GAS  /tmp/ccrxElPM.s 			page 11


 526:STM32Cube_FW_N6/Drivers/STM32N6xx_HAL_Driver/Src/stm32n6xx_hal_i2c.c **** 
 527:STM32Cube_FW_N6/Drivers/STM32N6xx_HAL_Driver/Src/stm32n6xx_hal_i2c.c ****       (+) Call the function HAL_I2C_DeInit() to restore the default configuration
 528:STM32Cube_FW_N6/Drivers/STM32N6xx_HAL_Driver/Src/stm32n6xx_hal_i2c.c ****           of the selected I2Cx peripheral.
 529:STM32Cube_FW_N6/Drivers/STM32N6xx_HAL_Driver/Src/stm32n6xx_hal_i2c.c **** 
 530:STM32Cube_FW_N6/Drivers/STM32N6xx_HAL_Driver/Src/stm32n6xx_hal_i2c.c **** @endverbatim
 531:STM32Cube_FW_N6/Drivers/STM32N6xx_HAL_Driver/Src/stm32n6xx_hal_i2c.c ****   * @{
 532:STM32Cube_FW_N6/Drivers/STM32N6xx_HAL_Driver/Src/stm32n6xx_hal_i2c.c ****   */
 533:STM32Cube_FW_N6/Drivers/STM32N6xx_HAL_Driver/Src/stm32n6xx_hal_i2c.c **** 
 534:STM32Cube_FW_N6/Drivers/STM32N6xx_HAL_Driver/Src/stm32n6xx_hal_i2c.c **** /**
 535:STM32Cube_FW_N6/Drivers/STM32N6xx_HAL_Driver/Src/stm32n6xx_hal_i2c.c ****   * @brief  Initializes the I2C according to the specified parameters
 536:STM32Cube_FW_N6/Drivers/STM32N6xx_HAL_Driver/Src/stm32n6xx_hal_i2c.c ****   *         in the I2C_InitTypeDef and initialize the associated handle.
 537:STM32Cube_FW_N6/Drivers/STM32N6xx_HAL_Driver/Src/stm32n6xx_hal_i2c.c ****   * @param  hi2c Pointer to a I2C_HandleTypeDef structure that contains
 538:STM32Cube_FW_N6/Drivers/STM32N6xx_HAL_Driver/Src/stm32n6xx_hal_i2c.c ****   *                the configuration information for the specified I2C.
 539:STM32Cube_FW_N6/Drivers/STM32N6xx_HAL_Driver/Src/stm32n6xx_hal_i2c.c ****   * @retval HAL status
 540:STM32Cube_FW_N6/Drivers/STM32N6xx_HAL_Driver/Src/stm32n6xx_hal_i2c.c ****   */
 541:STM32Cube_FW_N6/Drivers/STM32N6xx_HAL_Driver/Src/stm32n6xx_hal_i2c.c **** HAL_StatusTypeDef HAL_I2C_Init(I2C_HandleTypeDef *hi2c)
 542:STM32Cube_FW_N6/Drivers/STM32N6xx_HAL_Driver/Src/stm32n6xx_hal_i2c.c **** {
  39              		.loc 1 542 1
  40              		.cfi_startproc
  41              		@ args = 0, pretend = 0, frame = 8
  42              		@ frame_needed = 1, uses_anonymous_args = 0
  43 0000 80B5     		push	{r7, lr}
  44              		.cfi_def_cfa_offset 8
  45              		.cfi_offset 7, -8
  46              		.cfi_offset 14, -4
  47 0002 82B0     		sub	sp, sp, #8
  48              		.cfi_def_cfa_offset 16
  49 0004 00AF     		add	r7, sp, #0
  50              		.cfi_def_cfa_register 7
  51 0006 7860     		str	r0, [r7, #4]
 543:STM32Cube_FW_N6/Drivers/STM32N6xx_HAL_Driver/Src/stm32n6xx_hal_i2c.c ****   /* Check the I2C handle allocation */
 544:STM32Cube_FW_N6/Drivers/STM32N6xx_HAL_Driver/Src/stm32n6xx_hal_i2c.c ****   if (hi2c == NULL)
  52              		.loc 1 544 6
  53 0008 7B68     		ldr	r3, [r7, #4]
  54 000a 002B     		cmp	r3, #0
  55 000c 01D1     		bne	.L2
 545:STM32Cube_FW_N6/Drivers/STM32N6xx_HAL_Driver/Src/stm32n6xx_hal_i2c.c ****   {
 546:STM32Cube_FW_N6/Drivers/STM32N6xx_HAL_Driver/Src/stm32n6xx_hal_i2c.c ****     return HAL_ERROR;
  56              		.loc 1 546 12
  57 000e 0123     		movs	r3, #1
  58 0010 3CE1     		b	.L3
  59              	.L2:
 547:STM32Cube_FW_N6/Drivers/STM32N6xx_HAL_Driver/Src/stm32n6xx_hal_i2c.c ****   }
 548:STM32Cube_FW_N6/Drivers/STM32N6xx_HAL_Driver/Src/stm32n6xx_hal_i2c.c **** 
 549:STM32Cube_FW_N6/Drivers/STM32N6xx_HAL_Driver/Src/stm32n6xx_hal_i2c.c ****   /* Check the parameters */
 550:STM32Cube_FW_N6/Drivers/STM32N6xx_HAL_Driver/Src/stm32n6xx_hal_i2c.c ****   assert_param(IS_I2C_ALL_INSTANCE(hi2c->Instance));
  60              		.loc 1 550 3
  61 0012 7B68     		ldr	r3, [r7, #4]
  62 0014 1B68     		ldr	r3, [r3]
  63 0016 714A     		ldr	r2, .L17
  64 0018 9342     		cmp	r3, r2
  65 001a 27D0     		beq	.L4
  66              		.loc 1 550 3 is_stmt 0 discriminator 1
  67 001c 7B68     		ldr	r3, [r7, #4]
  68 001e 1B68     		ldr	r3, [r3]
  69 0020 6F4A     		ldr	r2, .L17+4
  70 0022 9342     		cmp	r3, r2
ARM GAS  /tmp/ccrxElPM.s 			page 12


  71 0024 22D0     		beq	.L4
  72              		.loc 1 550 3 discriminator 2
  73 0026 7B68     		ldr	r3, [r7, #4]
  74 0028 1B68     		ldr	r3, [r3]
  75 002a 6E4A     		ldr	r2, .L17+8
  76 002c 9342     		cmp	r3, r2
  77 002e 1DD0     		beq	.L4
  78              		.loc 1 550 3 discriminator 3
  79 0030 7B68     		ldr	r3, [r7, #4]
  80 0032 1B68     		ldr	r3, [r3]
  81 0034 6C4A     		ldr	r2, .L17+12
  82 0036 9342     		cmp	r3, r2
  83 0038 18D0     		beq	.L4
  84              		.loc 1 550 3 discriminator 4
  85 003a 7B68     		ldr	r3, [r7, #4]
  86 003c 1B68     		ldr	r3, [r3]
  87 003e 6B4A     		ldr	r2, .L17+16
  88 0040 9342     		cmp	r3, r2
  89 0042 13D0     		beq	.L4
  90              		.loc 1 550 3 discriminator 5
  91 0044 7B68     		ldr	r3, [r7, #4]
  92 0046 1B68     		ldr	r3, [r3]
  93 0048 694A     		ldr	r2, .L17+20
  94 004a 9342     		cmp	r3, r2
  95 004c 0ED0     		beq	.L4
  96              		.loc 1 550 3 discriminator 6
  97 004e 7B68     		ldr	r3, [r7, #4]
  98 0050 1B68     		ldr	r3, [r3]
  99 0052 684A     		ldr	r2, .L17+24
 100 0054 9342     		cmp	r3, r2
 101 0056 09D0     		beq	.L4
 102              		.loc 1 550 3 discriminator 7
 103 0058 7B68     		ldr	r3, [r7, #4]
 104 005a 1B68     		ldr	r3, [r3]
 105 005c 664A     		ldr	r2, .L17+28
 106 005e 9342     		cmp	r3, r2
 107 0060 04D0     		beq	.L4
 108              		.loc 1 550 3 discriminator 8
 109 0062 40F22621 		movw	r1, #550
 110 0066 6548     		ldr	r0, .L17+32
 111 0068 FFF7FEFF 		bl	assert_failed
 112              	.L4:
 551:STM32Cube_FW_N6/Drivers/STM32N6xx_HAL_Driver/Src/stm32n6xx_hal_i2c.c ****   assert_param(IS_I2C_OWN_ADDRESS1(hi2c->Init.OwnAddress1));
 113              		.loc 1 551 3 is_stmt 1
 114 006c 7B68     		ldr	r3, [r7, #4]
 115 006e 9B68     		ldr	r3, [r3, #8]
 116 0070 B3F5806F 		cmp	r3, #1024
 117 0074 04D3     		bcc	.L5
 118              		.loc 1 551 3 is_stmt 0 discriminator 1
 119 0076 40F22721 		movw	r1, #551
 120 007a 6048     		ldr	r0, .L17+32
 121 007c FFF7FEFF 		bl	assert_failed
 122              	.L5:
 552:STM32Cube_FW_N6/Drivers/STM32N6xx_HAL_Driver/Src/stm32n6xx_hal_i2c.c ****   assert_param(IS_I2C_ADDRESSING_MODE(hi2c->Init.AddressingMode));
 123              		.loc 1 552 3 is_stmt 1
 124 0080 7B68     		ldr	r3, [r7, #4]
 125 0082 DB68     		ldr	r3, [r3, #12]
ARM GAS  /tmp/ccrxElPM.s 			page 13


 126 0084 012B     		cmp	r3, #1
 127 0086 08D0     		beq	.L6
 128              		.loc 1 552 3 is_stmt 0 discriminator 1
 129 0088 7B68     		ldr	r3, [r7, #4]
 130 008a DB68     		ldr	r3, [r3, #12]
 131 008c 022B     		cmp	r3, #2
 132 008e 04D0     		beq	.L6
 133              		.loc 1 552 3 discriminator 2
 134 0090 4FF40A71 		mov	r1, #552
 135 0094 5948     		ldr	r0, .L17+32
 136 0096 FFF7FEFF 		bl	assert_failed
 137              	.L6:
 553:STM32Cube_FW_N6/Drivers/STM32N6xx_HAL_Driver/Src/stm32n6xx_hal_i2c.c ****   assert_param(IS_I2C_DUAL_ADDRESS(hi2c->Init.DualAddressMode));
 138              		.loc 1 553 3 is_stmt 1
 139 009a 7B68     		ldr	r3, [r7, #4]
 140 009c 1B69     		ldr	r3, [r3, #16]
 141 009e 002B     		cmp	r3, #0
 142 00a0 09D0     		beq	.L7
 143              		.loc 1 553 3 is_stmt 0 discriminator 1
 144 00a2 7B68     		ldr	r3, [r7, #4]
 145 00a4 1B69     		ldr	r3, [r3, #16]
 146 00a6 B3F5004F 		cmp	r3, #32768
 147 00aa 04D0     		beq	.L7
 148              		.loc 1 553 3 discriminator 2
 149 00ac 40F22921 		movw	r1, #553
 150 00b0 5248     		ldr	r0, .L17+32
 151 00b2 FFF7FEFF 		bl	assert_failed
 152              	.L7:
 554:STM32Cube_FW_N6/Drivers/STM32N6xx_HAL_Driver/Src/stm32n6xx_hal_i2c.c ****   assert_param(IS_I2C_OWN_ADDRESS2(hi2c->Init.OwnAddress2));
 153              		.loc 1 554 3 is_stmt 1
 154 00b6 7B68     		ldr	r3, [r7, #4]
 155 00b8 5B69     		ldr	r3, [r3, #20]
 156 00ba FF2B     		cmp	r3, #255
 157 00bc 04D9     		bls	.L8
 158              		.loc 1 554 3 is_stmt 0 discriminator 1
 159 00be 40F22A21 		movw	r1, #554
 160 00c2 4E48     		ldr	r0, .L17+32
 161 00c4 FFF7FEFF 		bl	assert_failed
 162              	.L8:
 555:STM32Cube_FW_N6/Drivers/STM32N6xx_HAL_Driver/Src/stm32n6xx_hal_i2c.c ****   assert_param(IS_I2C_OWN_ADDRESS2_MASK(hi2c->Init.OwnAddress2Masks));
 163              		.loc 1 555 3 is_stmt 1
 164 00c8 7B68     		ldr	r3, [r7, #4]
 165 00ca 9B69     		ldr	r3, [r3, #24]
 166 00cc 002B     		cmp	r3, #0
 167 00ce 20D0     		beq	.L9
 168              		.loc 1 555 3 is_stmt 0 discriminator 1
 169 00d0 7B68     		ldr	r3, [r7, #4]
 170 00d2 9B69     		ldr	r3, [r3, #24]
 171 00d4 012B     		cmp	r3, #1
 172 00d6 1CD0     		beq	.L9
 173              		.loc 1 555 3 discriminator 2
 174 00d8 7B68     		ldr	r3, [r7, #4]
 175 00da 9B69     		ldr	r3, [r3, #24]
 176 00dc 022B     		cmp	r3, #2
 177 00de 18D0     		beq	.L9
 178              		.loc 1 555 3 discriminator 3
 179 00e0 7B68     		ldr	r3, [r7, #4]
ARM GAS  /tmp/ccrxElPM.s 			page 14


 180 00e2 9B69     		ldr	r3, [r3, #24]
 181 00e4 032B     		cmp	r3, #3
 182 00e6 14D0     		beq	.L9
 183              		.loc 1 555 3 discriminator 4
 184 00e8 7B68     		ldr	r3, [r7, #4]
 185 00ea 9B69     		ldr	r3, [r3, #24]
 186 00ec 042B     		cmp	r3, #4
 187 00ee 10D0     		beq	.L9
 188              		.loc 1 555 3 discriminator 5
 189 00f0 7B68     		ldr	r3, [r7, #4]
 190 00f2 9B69     		ldr	r3, [r3, #24]
 191 00f4 052B     		cmp	r3, #5
 192 00f6 0CD0     		beq	.L9
 193              		.loc 1 555 3 discriminator 6
 194 00f8 7B68     		ldr	r3, [r7, #4]
 195 00fa 9B69     		ldr	r3, [r3, #24]
 196 00fc 062B     		cmp	r3, #6
 197 00fe 08D0     		beq	.L9
 198              		.loc 1 555 3 discriminator 7
 199 0100 7B68     		ldr	r3, [r7, #4]
 200 0102 9B69     		ldr	r3, [r3, #24]
 201 0104 072B     		cmp	r3, #7
 202 0106 04D0     		beq	.L9
 203              		.loc 1 555 3 discriminator 8
 204 0108 40F22B21 		movw	r1, #555
 205 010c 3B48     		ldr	r0, .L17+32
 206 010e FFF7FEFF 		bl	assert_failed
 207              	.L9:
 556:STM32Cube_FW_N6/Drivers/STM32N6xx_HAL_Driver/Src/stm32n6xx_hal_i2c.c ****   assert_param(IS_I2C_GENERAL_CALL(hi2c->Init.GeneralCallMode));
 208              		.loc 1 556 3 is_stmt 1
 209 0112 7B68     		ldr	r3, [r7, #4]
 210 0114 DB69     		ldr	r3, [r3, #28]
 211 0116 002B     		cmp	r3, #0
 212 0118 09D0     		beq	.L10
 213              		.loc 1 556 3 is_stmt 0 discriminator 1
 214 011a 7B68     		ldr	r3, [r7, #4]
 215 011c DB69     		ldr	r3, [r3, #28]
 216 011e B3F5002F 		cmp	r3, #524288
 217 0122 04D0     		beq	.L10
 218              		.loc 1 556 3 discriminator 2
 219 0124 4FF40B71 		mov	r1, #556
 220 0128 3448     		ldr	r0, .L17+32
 221 012a FFF7FEFF 		bl	assert_failed
 222              	.L10:
 557:STM32Cube_FW_N6/Drivers/STM32N6xx_HAL_Driver/Src/stm32n6xx_hal_i2c.c ****   assert_param(IS_I2C_NO_STRETCH(hi2c->Init.NoStretchMode));
 223              		.loc 1 557 3 is_stmt 1
 224 012e 7B68     		ldr	r3, [r7, #4]
 225 0130 1B6A     		ldr	r3, [r3, #32]
 226 0132 002B     		cmp	r3, #0
 227 0134 09D0     		beq	.L11
 228              		.loc 1 557 3 is_stmt 0 discriminator 1
 229 0136 7B68     		ldr	r3, [r7, #4]
 230 0138 1B6A     		ldr	r3, [r3, #32]
 231 013a B3F5003F 		cmp	r3, #131072
 232 013e 04D0     		beq	.L11
 233              		.loc 1 557 3 discriminator 2
 234 0140 40F22D21 		movw	r1, #557
ARM GAS  /tmp/ccrxElPM.s 			page 15


 235 0144 2D48     		ldr	r0, .L17+32
 236 0146 FFF7FEFF 		bl	assert_failed
 237              	.L11:
 558:STM32Cube_FW_N6/Drivers/STM32N6xx_HAL_Driver/Src/stm32n6xx_hal_i2c.c **** 
 559:STM32Cube_FW_N6/Drivers/STM32N6xx_HAL_Driver/Src/stm32n6xx_hal_i2c.c ****   if (hi2c->State == HAL_I2C_STATE_RESET)
 238              		.loc 1 559 11 is_stmt 1
 239 014a 7B68     		ldr	r3, [r7, #4]
 240 014c 93F84130 		ldrb	r3, [r3, #65]
 241 0150 DBB2     		uxtb	r3, r3
 242              		.loc 1 559 6
 243 0152 002B     		cmp	r3, #0
 244 0154 06D1     		bne	.L12
 560:STM32Cube_FW_N6/Drivers/STM32N6xx_HAL_Driver/Src/stm32n6xx_hal_i2c.c ****   {
 561:STM32Cube_FW_N6/Drivers/STM32N6xx_HAL_Driver/Src/stm32n6xx_hal_i2c.c ****     /* Allocate lock resource and initialize it */
 562:STM32Cube_FW_N6/Drivers/STM32N6xx_HAL_Driver/Src/stm32n6xx_hal_i2c.c ****     hi2c->Lock = HAL_UNLOCKED;
 245              		.loc 1 562 16
 246 0156 7B68     		ldr	r3, [r7, #4]
 247 0158 0022     		movs	r2, #0
 248 015a 83F84020 		strb	r2, [r3, #64]
 563:STM32Cube_FW_N6/Drivers/STM32N6xx_HAL_Driver/Src/stm32n6xx_hal_i2c.c **** 
 564:STM32Cube_FW_N6/Drivers/STM32N6xx_HAL_Driver/Src/stm32n6xx_hal_i2c.c **** #if (USE_HAL_I2C_REGISTER_CALLBACKS == 1)
 565:STM32Cube_FW_N6/Drivers/STM32N6xx_HAL_Driver/Src/stm32n6xx_hal_i2c.c ****     /* Init the I2C Callback settings */
 566:STM32Cube_FW_N6/Drivers/STM32N6xx_HAL_Driver/Src/stm32n6xx_hal_i2c.c ****     hi2c->MasterTxCpltCallback = HAL_I2C_MasterTxCpltCallback; /* Legacy weak MasterTxCpltCallback 
 567:STM32Cube_FW_N6/Drivers/STM32N6xx_HAL_Driver/Src/stm32n6xx_hal_i2c.c ****     hi2c->MasterRxCpltCallback = HAL_I2C_MasterRxCpltCallback; /* Legacy weak MasterRxCpltCallback 
 568:STM32Cube_FW_N6/Drivers/STM32N6xx_HAL_Driver/Src/stm32n6xx_hal_i2c.c ****     hi2c->SlaveTxCpltCallback  = HAL_I2C_SlaveTxCpltCallback;  /* Legacy weak SlaveTxCpltCallback  
 569:STM32Cube_FW_N6/Drivers/STM32N6xx_HAL_Driver/Src/stm32n6xx_hal_i2c.c ****     hi2c->SlaveRxCpltCallback  = HAL_I2C_SlaveRxCpltCallback;  /* Legacy weak SlaveRxCpltCallback  
 570:STM32Cube_FW_N6/Drivers/STM32N6xx_HAL_Driver/Src/stm32n6xx_hal_i2c.c ****     hi2c->ListenCpltCallback   = HAL_I2C_ListenCpltCallback;   /* Legacy weak ListenCpltCallback   
 571:STM32Cube_FW_N6/Drivers/STM32N6xx_HAL_Driver/Src/stm32n6xx_hal_i2c.c ****     hi2c->MemTxCpltCallback    = HAL_I2C_MemTxCpltCallback;    /* Legacy weak MemTxCpltCallback    
 572:STM32Cube_FW_N6/Drivers/STM32N6xx_HAL_Driver/Src/stm32n6xx_hal_i2c.c ****     hi2c->MemRxCpltCallback    = HAL_I2C_MemRxCpltCallback;    /* Legacy weak MemRxCpltCallback    
 573:STM32Cube_FW_N6/Drivers/STM32N6xx_HAL_Driver/Src/stm32n6xx_hal_i2c.c ****     hi2c->ErrorCallback        = HAL_I2C_ErrorCallback;        /* Legacy weak ErrorCallback        
 574:STM32Cube_FW_N6/Drivers/STM32N6xx_HAL_Driver/Src/stm32n6xx_hal_i2c.c ****     hi2c->AbortCpltCallback    = HAL_I2C_AbortCpltCallback;    /* Legacy weak AbortCpltCallback    
 575:STM32Cube_FW_N6/Drivers/STM32N6xx_HAL_Driver/Src/stm32n6xx_hal_i2c.c ****     hi2c->AddrCallback         = HAL_I2C_AddrCallback;         /* Legacy weak AddrCallback         
 576:STM32Cube_FW_N6/Drivers/STM32N6xx_HAL_Driver/Src/stm32n6xx_hal_i2c.c **** 
 577:STM32Cube_FW_N6/Drivers/STM32N6xx_HAL_Driver/Src/stm32n6xx_hal_i2c.c ****     if (hi2c->MspInitCallback == NULL)
 578:STM32Cube_FW_N6/Drivers/STM32N6xx_HAL_Driver/Src/stm32n6xx_hal_i2c.c ****     {
 579:STM32Cube_FW_N6/Drivers/STM32N6xx_HAL_Driver/Src/stm32n6xx_hal_i2c.c ****       hi2c->MspInitCallback = HAL_I2C_MspInit; /* Legacy weak MspInit  */
 580:STM32Cube_FW_N6/Drivers/STM32N6xx_HAL_Driver/Src/stm32n6xx_hal_i2c.c ****     }
 581:STM32Cube_FW_N6/Drivers/STM32N6xx_HAL_Driver/Src/stm32n6xx_hal_i2c.c **** 
 582:STM32Cube_FW_N6/Drivers/STM32N6xx_HAL_Driver/Src/stm32n6xx_hal_i2c.c ****     /* Init the low level hardware : GPIO, CLOCK, CORTEX...etc */
 583:STM32Cube_FW_N6/Drivers/STM32N6xx_HAL_Driver/Src/stm32n6xx_hal_i2c.c ****     hi2c->MspInitCallback(hi2c);
 584:STM32Cube_FW_N6/Drivers/STM32N6xx_HAL_Driver/Src/stm32n6xx_hal_i2c.c **** #else
 585:STM32Cube_FW_N6/Drivers/STM32N6xx_HAL_Driver/Src/stm32n6xx_hal_i2c.c ****     /* Init the low level hardware : GPIO, CLOCK, CORTEX...etc */
 586:STM32Cube_FW_N6/Drivers/STM32N6xx_HAL_Driver/Src/stm32n6xx_hal_i2c.c ****     HAL_I2C_MspInit(hi2c);
 249              		.loc 1 586 5
 250 015e 7868     		ldr	r0, [r7, #4]
 251 0160 FFF7FEFF 		bl	HAL_I2C_MspInit
 252              	.L12:
 587:STM32Cube_FW_N6/Drivers/STM32N6xx_HAL_Driver/Src/stm32n6xx_hal_i2c.c **** #endif /* USE_HAL_I2C_REGISTER_CALLBACKS */
 588:STM32Cube_FW_N6/Drivers/STM32N6xx_HAL_Driver/Src/stm32n6xx_hal_i2c.c ****   }
 589:STM32Cube_FW_N6/Drivers/STM32N6xx_HAL_Driver/Src/stm32n6xx_hal_i2c.c **** 
 590:STM32Cube_FW_N6/Drivers/STM32N6xx_HAL_Driver/Src/stm32n6xx_hal_i2c.c ****   hi2c->State = HAL_I2C_STATE_BUSY;
 253              		.loc 1 590 15
 254 0164 7B68     		ldr	r3, [r7, #4]
 255 0166 2422     		movs	r2, #36
 256 0168 83F84120 		strb	r2, [r3, #65]
 591:STM32Cube_FW_N6/Drivers/STM32N6xx_HAL_Driver/Src/stm32n6xx_hal_i2c.c **** 
 592:STM32Cube_FW_N6/Drivers/STM32N6xx_HAL_Driver/Src/stm32n6xx_hal_i2c.c ****   /* Disable the selected I2C peripheral */
ARM GAS  /tmp/ccrxElPM.s 			page 16


 593:STM32Cube_FW_N6/Drivers/STM32N6xx_HAL_Driver/Src/stm32n6xx_hal_i2c.c ****   __HAL_I2C_DISABLE(hi2c);
 257              		.loc 1 593 3
 258 016c 7B68     		ldr	r3, [r7, #4]
 259 016e 1B68     		ldr	r3, [r3]
 260 0170 1A68     		ldr	r2, [r3]
 261 0172 7B68     		ldr	r3, [r7, #4]
 262 0174 1B68     		ldr	r3, [r3]
 263 0176 22F00102 		bic	r2, r2, #1
 264 017a 1A60     		str	r2, [r3]
 594:STM32Cube_FW_N6/Drivers/STM32N6xx_HAL_Driver/Src/stm32n6xx_hal_i2c.c **** 
 595:STM32Cube_FW_N6/Drivers/STM32N6xx_HAL_Driver/Src/stm32n6xx_hal_i2c.c ****   /*---------------------------- I2Cx TIMINGR Configuration ------------------*/
 596:STM32Cube_FW_N6/Drivers/STM32N6xx_HAL_Driver/Src/stm32n6xx_hal_i2c.c ****   /* Configure I2Cx: Frequency range */
 597:STM32Cube_FW_N6/Drivers/STM32N6xx_HAL_Driver/Src/stm32n6xx_hal_i2c.c ****   hi2c->Instance->TIMINGR = hi2c->Init.Timing & TIMING_CLEAR_MASK;
 265              		.loc 1 597 39
 266 017c 7B68     		ldr	r3, [r7, #4]
 267 017e 5A68     		ldr	r2, [r3, #4]
 268              		.loc 1 597 7
 269 0180 7B68     		ldr	r3, [r7, #4]
 270 0182 1B68     		ldr	r3, [r3]
 271              		.loc 1 597 47
 272 0184 22F07062 		bic	r2, r2, #251658240
 273              		.loc 1 597 27
 274 0188 1A61     		str	r2, [r3, #16]
 598:STM32Cube_FW_N6/Drivers/STM32N6xx_HAL_Driver/Src/stm32n6xx_hal_i2c.c **** 
 599:STM32Cube_FW_N6/Drivers/STM32N6xx_HAL_Driver/Src/stm32n6xx_hal_i2c.c ****   /*---------------------------- I2Cx OAR1 Configuration ---------------------*/
 600:STM32Cube_FW_N6/Drivers/STM32N6xx_HAL_Driver/Src/stm32n6xx_hal_i2c.c ****   /* Disable Own Address1 before set the Own Address1 configuration */
 601:STM32Cube_FW_N6/Drivers/STM32N6xx_HAL_Driver/Src/stm32n6xx_hal_i2c.c ****   hi2c->Instance->OAR1 &= ~I2C_OAR1_OA1EN;
 275              		.loc 1 601 7
 276 018a 7B68     		ldr	r3, [r7, #4]
 277 018c 1B68     		ldr	r3, [r3]
 278              		.loc 1 601 17
 279 018e 9A68     		ldr	r2, [r3, #8]
 280              		.loc 1 601 7
 281 0190 7B68     		ldr	r3, [r7, #4]
 282 0192 1B68     		ldr	r3, [r3]
 283              		.loc 1 601 24
 284 0194 22F40042 		bic	r2, r2, #32768
 285 0198 9A60     		str	r2, [r3, #8]
 602:STM32Cube_FW_N6/Drivers/STM32N6xx_HAL_Driver/Src/stm32n6xx_hal_i2c.c **** 
 603:STM32Cube_FW_N6/Drivers/STM32N6xx_HAL_Driver/Src/stm32n6xx_hal_i2c.c ****   /* Configure I2Cx: Own Address1 and ack own address1 mode */
 604:STM32Cube_FW_N6/Drivers/STM32N6xx_HAL_Driver/Src/stm32n6xx_hal_i2c.c ****   if (hi2c->Init.AddressingMode == I2C_ADDRESSINGMODE_7BIT)
 286              		.loc 1 604 17
 287 019a 7B68     		ldr	r3, [r7, #4]
 288 019c DB68     		ldr	r3, [r3, #12]
 289              		.loc 1 604 6
 290 019e 012B     		cmp	r3, #1
 291 01a0 07D1     		bne	.L13
 605:STM32Cube_FW_N6/Drivers/STM32N6xx_HAL_Driver/Src/stm32n6xx_hal_i2c.c ****   {
 606:STM32Cube_FW_N6/Drivers/STM32N6xx_HAL_Driver/Src/stm32n6xx_hal_i2c.c ****     hi2c->Instance->OAR1 = (I2C_OAR1_OA1EN | hi2c->Init.OwnAddress1);
 292              		.loc 1 606 56
 293 01a2 7B68     		ldr	r3, [r7, #4]
 294 01a4 9A68     		ldr	r2, [r3, #8]
 295              		.loc 1 606 9
 296 01a6 7B68     		ldr	r3, [r7, #4]
 297 01a8 1B68     		ldr	r3, [r3]
 298              		.loc 1 606 44
 299 01aa 42F40042 		orr	r2, r2, #32768
ARM GAS  /tmp/ccrxElPM.s 			page 17


 300              		.loc 1 606 26
 301 01ae 9A60     		str	r2, [r3, #8]
 302 01b0 06E0     		b	.L14
 303              	.L13:
 607:STM32Cube_FW_N6/Drivers/STM32N6xx_HAL_Driver/Src/stm32n6xx_hal_i2c.c ****   }
 608:STM32Cube_FW_N6/Drivers/STM32N6xx_HAL_Driver/Src/stm32n6xx_hal_i2c.c ****   else /* I2C_ADDRESSINGMODE_10BIT */
 609:STM32Cube_FW_N6/Drivers/STM32N6xx_HAL_Driver/Src/stm32n6xx_hal_i2c.c ****   {
 610:STM32Cube_FW_N6/Drivers/STM32N6xx_HAL_Driver/Src/stm32n6xx_hal_i2c.c ****     hi2c->Instance->OAR1 = (I2C_OAR1_OA1EN | I2C_OAR1_OA1MODE | hi2c->Init.OwnAddress1);
 304              		.loc 1 610 75
 305 01b2 7B68     		ldr	r3, [r7, #4]
 306 01b4 9A68     		ldr	r2, [r3, #8]
 307              		.loc 1 610 9
 308 01b6 7B68     		ldr	r3, [r7, #4]
 309 01b8 1B68     		ldr	r3, [r3]
 310              		.loc 1 610 63
 311 01ba 42F40442 		orr	r2, r2, #33792
 312              		.loc 1 610 26
 313 01be 9A60     		str	r2, [r3, #8]
 314              	.L14:
 611:STM32Cube_FW_N6/Drivers/STM32N6xx_HAL_Driver/Src/stm32n6xx_hal_i2c.c ****   }
 612:STM32Cube_FW_N6/Drivers/STM32N6xx_HAL_Driver/Src/stm32n6xx_hal_i2c.c **** 
 613:STM32Cube_FW_N6/Drivers/STM32N6xx_HAL_Driver/Src/stm32n6xx_hal_i2c.c ****   /*---------------------------- I2Cx CR2 Configuration ----------------------*/
 614:STM32Cube_FW_N6/Drivers/STM32N6xx_HAL_Driver/Src/stm32n6xx_hal_i2c.c ****   /* Configure I2Cx: Addressing Master mode */
 615:STM32Cube_FW_N6/Drivers/STM32N6xx_HAL_Driver/Src/stm32n6xx_hal_i2c.c ****   if (hi2c->Init.AddressingMode == I2C_ADDRESSINGMODE_10BIT)
 315              		.loc 1 615 17
 316 01c0 7B68     		ldr	r3, [r7, #4]
 317 01c2 DB68     		ldr	r3, [r3, #12]
 318              		.loc 1 615 6
 319 01c4 022B     		cmp	r3, #2
 320 01c6 1BD1     		bne	.L15
 616:STM32Cube_FW_N6/Drivers/STM32N6xx_HAL_Driver/Src/stm32n6xx_hal_i2c.c ****   {
 617:STM32Cube_FW_N6/Drivers/STM32N6xx_HAL_Driver/Src/stm32n6xx_hal_i2c.c ****     SET_BIT(hi2c->Instance->CR2, I2C_CR2_ADD10);
 321              		.loc 1 617 5
 322 01c8 7B68     		ldr	r3, [r7, #4]
 323 01ca 1B68     		ldr	r3, [r3]
 324 01cc 5A68     		ldr	r2, [r3, #4]
 325 01ce 7B68     		ldr	r3, [r7, #4]
 326 01d0 1B68     		ldr	r3, [r3]
 327 01d2 42F40062 		orr	r2, r2, #2048
 328 01d6 5A60     		str	r2, [r3, #4]
 329 01d8 1AE0     		b	.L16
 330              	.L18:
 331 01da 00BF     		.align	2
 332              	.L17:
 333 01dc 00540050 		.word	1342198784
 334 01e0 00540040 		.word	1073763328
 335 01e4 00580050 		.word	1342199808
 336 01e8 00580040 		.word	1073764352
 337 01ec 005C0050 		.word	1342200832
 338 01f0 005C0040 		.word	1073765376
 339 01f4 001C0056 		.word	1442847744
 340 01f8 001C0046 		.word	1174412288
 341 01fc 00000000 		.word	.LC0
 342              	.L15:
 618:STM32Cube_FW_N6/Drivers/STM32N6xx_HAL_Driver/Src/stm32n6xx_hal_i2c.c ****   }
 619:STM32Cube_FW_N6/Drivers/STM32N6xx_HAL_Driver/Src/stm32n6xx_hal_i2c.c ****   else
 620:STM32Cube_FW_N6/Drivers/STM32N6xx_HAL_Driver/Src/stm32n6xx_hal_i2c.c ****   {
ARM GAS  /tmp/ccrxElPM.s 			page 18


 621:STM32Cube_FW_N6/Drivers/STM32N6xx_HAL_Driver/Src/stm32n6xx_hal_i2c.c ****     /* Clear the I2C ADD10 bit */
 622:STM32Cube_FW_N6/Drivers/STM32N6xx_HAL_Driver/Src/stm32n6xx_hal_i2c.c ****     CLEAR_BIT(hi2c->Instance->CR2, I2C_CR2_ADD10);
 343              		.loc 1 622 5
 344 0200 7B68     		ldr	r3, [r7, #4]
 345 0202 1B68     		ldr	r3, [r3]
 346 0204 5A68     		ldr	r2, [r3, #4]
 347 0206 7B68     		ldr	r3, [r7, #4]
 348 0208 1B68     		ldr	r3, [r3]
 349 020a 22F40062 		bic	r2, r2, #2048
 350 020e 5A60     		str	r2, [r3, #4]
 351              	.L16:
 623:STM32Cube_FW_N6/Drivers/STM32N6xx_HAL_Driver/Src/stm32n6xx_hal_i2c.c ****   }
 624:STM32Cube_FW_N6/Drivers/STM32N6xx_HAL_Driver/Src/stm32n6xx_hal_i2c.c ****   /* Enable the AUTOEND by default, and enable NACK (should be disable only during Slave process */
 625:STM32Cube_FW_N6/Drivers/STM32N6xx_HAL_Driver/Src/stm32n6xx_hal_i2c.c ****   hi2c->Instance->CR2 |= (I2C_CR2_AUTOEND | I2C_CR2_NACK);
 352              		.loc 1 625 7
 353 0210 7B68     		ldr	r3, [r7, #4]
 354 0212 1B68     		ldr	r3, [r3]
 355              		.loc 1 625 17
 356 0214 5B68     		ldr	r3, [r3, #4]
 357              		.loc 1 625 7
 358 0216 7A68     		ldr	r2, [r7, #4]
 359 0218 1268     		ldr	r2, [r2]
 360              		.loc 1 625 23
 361 021a 43F00073 		orr	r3, r3, #33554432
 362 021e 43F40043 		orr	r3, r3, #32768
 363 0222 5360     		str	r3, [r2, #4]
 626:STM32Cube_FW_N6/Drivers/STM32N6xx_HAL_Driver/Src/stm32n6xx_hal_i2c.c **** 
 627:STM32Cube_FW_N6/Drivers/STM32N6xx_HAL_Driver/Src/stm32n6xx_hal_i2c.c ****   /*---------------------------- I2Cx OAR2 Configuration ---------------------*/
 628:STM32Cube_FW_N6/Drivers/STM32N6xx_HAL_Driver/Src/stm32n6xx_hal_i2c.c ****   /* Disable Own Address2 before set the Own Address2 configuration */
 629:STM32Cube_FW_N6/Drivers/STM32N6xx_HAL_Driver/Src/stm32n6xx_hal_i2c.c ****   hi2c->Instance->OAR2 &= ~I2C_DUALADDRESS_ENABLE;
 364              		.loc 1 629 7
 365 0224 7B68     		ldr	r3, [r7, #4]
 366 0226 1B68     		ldr	r3, [r3]
 367              		.loc 1 629 17
 368 0228 DA68     		ldr	r2, [r3, #12]
 369              		.loc 1 629 7
 370 022a 7B68     		ldr	r3, [r7, #4]
 371 022c 1B68     		ldr	r3, [r3]
 372              		.loc 1 629 24
 373 022e 22F40042 		bic	r2, r2, #32768
 374 0232 DA60     		str	r2, [r3, #12]
 630:STM32Cube_FW_N6/Drivers/STM32N6xx_HAL_Driver/Src/stm32n6xx_hal_i2c.c **** 
 631:STM32Cube_FW_N6/Drivers/STM32N6xx_HAL_Driver/Src/stm32n6xx_hal_i2c.c ****   /* Configure I2Cx: Dual mode and Own Address2 */
 632:STM32Cube_FW_N6/Drivers/STM32N6xx_HAL_Driver/Src/stm32n6xx_hal_i2c.c ****   hi2c->Instance->OAR2 = (hi2c->Init.DualAddressMode | hi2c->Init.OwnAddress2 | \
 375              		.loc 1 632 37
 376 0234 7B68     		ldr	r3, [r7, #4]
 377 0236 1A69     		ldr	r2, [r3, #16]
 378              		.loc 1 632 66
 379 0238 7B68     		ldr	r3, [r7, #4]
 380 023a 5B69     		ldr	r3, [r3, #20]
 381              		.loc 1 632 54
 382 023c 42EA0301 		orr	r1, r2, r3
 633:STM32Cube_FW_N6/Drivers/STM32N6xx_HAL_Driver/Src/stm32n6xx_hal_i2c.c ****                           (hi2c->Init.OwnAddress2Masks << 8));
 383              		.loc 1 633 38
 384 0240 7B68     		ldr	r3, [r7, #4]
 385 0242 9B69     		ldr	r3, [r3, #24]
 386              		.loc 1 633 56
ARM GAS  /tmp/ccrxElPM.s 			page 19


 387 0244 1A02     		lsls	r2, r3, #8
 632:STM32Cube_FW_N6/Drivers/STM32N6xx_HAL_Driver/Src/stm32n6xx_hal_i2c.c ****                           (hi2c->Init.OwnAddress2Masks << 8));
 388              		.loc 1 632 7
 389 0246 7B68     		ldr	r3, [r7, #4]
 390 0248 1B68     		ldr	r3, [r3]
 632:STM32Cube_FW_N6/Drivers/STM32N6xx_HAL_Driver/Src/stm32n6xx_hal_i2c.c ****                           (hi2c->Init.OwnAddress2Masks << 8));
 391              		.loc 1 632 79
 392 024a 0A43     		orrs	r2, r2, r1
 632:STM32Cube_FW_N6/Drivers/STM32N6xx_HAL_Driver/Src/stm32n6xx_hal_i2c.c ****                           (hi2c->Init.OwnAddress2Masks << 8));
 393              		.loc 1 632 24
 394 024c DA60     		str	r2, [r3, #12]
 634:STM32Cube_FW_N6/Drivers/STM32N6xx_HAL_Driver/Src/stm32n6xx_hal_i2c.c **** 
 635:STM32Cube_FW_N6/Drivers/STM32N6xx_HAL_Driver/Src/stm32n6xx_hal_i2c.c ****   /*---------------------------- I2Cx CR1 Configuration ----------------------*/
 636:STM32Cube_FW_N6/Drivers/STM32N6xx_HAL_Driver/Src/stm32n6xx_hal_i2c.c ****   /* Configure I2Cx: Generalcall and NoStretch mode */
 637:STM32Cube_FW_N6/Drivers/STM32N6xx_HAL_Driver/Src/stm32n6xx_hal_i2c.c ****   hi2c->Instance->CR1 = (hi2c->Init.GeneralCallMode | hi2c->Init.NoStretchMode);
 395              		.loc 1 637 36
 396 024e 7B68     		ldr	r3, [r7, #4]
 397 0250 D969     		ldr	r1, [r3, #28]
 398              		.loc 1 637 65
 399 0252 7B68     		ldr	r3, [r7, #4]
 400 0254 1A6A     		ldr	r2, [r3, #32]
 401              		.loc 1 637 7
 402 0256 7B68     		ldr	r3, [r7, #4]
 403 0258 1B68     		ldr	r3, [r3]
 404              		.loc 1 637 53
 405 025a 0A43     		orrs	r2, r2, r1
 406              		.loc 1 637 23
 407 025c 1A60     		str	r2, [r3]
 638:STM32Cube_FW_N6/Drivers/STM32N6xx_HAL_Driver/Src/stm32n6xx_hal_i2c.c **** 
 639:STM32Cube_FW_N6/Drivers/STM32N6xx_HAL_Driver/Src/stm32n6xx_hal_i2c.c ****   /* Enable the selected I2C peripheral */
 640:STM32Cube_FW_N6/Drivers/STM32N6xx_HAL_Driver/Src/stm32n6xx_hal_i2c.c ****   __HAL_I2C_ENABLE(hi2c);
 408              		.loc 1 640 3
 409 025e 7B68     		ldr	r3, [r7, #4]
 410 0260 1B68     		ldr	r3, [r3]
 411 0262 1A68     		ldr	r2, [r3]
 412 0264 7B68     		ldr	r3, [r7, #4]
 413 0266 1B68     		ldr	r3, [r3]
 414 0268 42F00102 		orr	r2, r2, #1
 415 026c 1A60     		str	r2, [r3]
 641:STM32Cube_FW_N6/Drivers/STM32N6xx_HAL_Driver/Src/stm32n6xx_hal_i2c.c **** 
 642:STM32Cube_FW_N6/Drivers/STM32N6xx_HAL_Driver/Src/stm32n6xx_hal_i2c.c ****   hi2c->ErrorCode = HAL_I2C_ERROR_NONE;
 416              		.loc 1 642 19
 417 026e 7B68     		ldr	r3, [r7, #4]
 418 0270 0022     		movs	r2, #0
 419 0272 5A64     		str	r2, [r3, #68]
 643:STM32Cube_FW_N6/Drivers/STM32N6xx_HAL_Driver/Src/stm32n6xx_hal_i2c.c ****   hi2c->State = HAL_I2C_STATE_READY;
 420              		.loc 1 643 15
 421 0274 7B68     		ldr	r3, [r7, #4]
 422 0276 2022     		movs	r2, #32
 423 0278 83F84120 		strb	r2, [r3, #65]
 644:STM32Cube_FW_N6/Drivers/STM32N6xx_HAL_Driver/Src/stm32n6xx_hal_i2c.c ****   hi2c->PreviousState = I2C_STATE_NONE;
 424              		.loc 1 644 23
 425 027c 7B68     		ldr	r3, [r7, #4]
 426 027e 0022     		movs	r2, #0
 427 0280 1A63     		str	r2, [r3, #48]
 645:STM32Cube_FW_N6/Drivers/STM32N6xx_HAL_Driver/Src/stm32n6xx_hal_i2c.c ****   hi2c->Mode = HAL_I2C_MODE_NONE;
 428              		.loc 1 645 14
ARM GAS  /tmp/ccrxElPM.s 			page 20


 429 0282 7B68     		ldr	r3, [r7, #4]
 430 0284 0022     		movs	r2, #0
 431 0286 83F84220 		strb	r2, [r3, #66]
 646:STM32Cube_FW_N6/Drivers/STM32N6xx_HAL_Driver/Src/stm32n6xx_hal_i2c.c **** 
 647:STM32Cube_FW_N6/Drivers/STM32N6xx_HAL_Driver/Src/stm32n6xx_hal_i2c.c ****   return HAL_OK;
 432              		.loc 1 647 10
 433 028a 0023     		movs	r3, #0
 434              	.L3:
 648:STM32Cube_FW_N6/Drivers/STM32N6xx_HAL_Driver/Src/stm32n6xx_hal_i2c.c **** }
 435              		.loc 1 648 1
 436 028c 1846     		mov	r0, r3
 437 028e 0837     		adds	r7, r7, #8
 438              		.cfi_def_cfa_offset 8
 439 0290 BD46     		mov	sp, r7
 440              		.cfi_def_cfa_register 13
 441              		@ sp needed
 442 0292 80BD     		pop	{r7, pc}
 443              		.cfi_endproc
 444              	.LFE835:
 446              		.section	.text.HAL_I2C_DeInit,"ax",%progbits
 447              		.align	1
 448              		.global	HAL_I2C_DeInit
 449              		.syntax unified
 450              		.thumb
 451              		.thumb_func
 453              	HAL_I2C_DeInit:
 454              	.LFB836:
 649:STM32Cube_FW_N6/Drivers/STM32N6xx_HAL_Driver/Src/stm32n6xx_hal_i2c.c **** 
 650:STM32Cube_FW_N6/Drivers/STM32N6xx_HAL_Driver/Src/stm32n6xx_hal_i2c.c **** /**
 651:STM32Cube_FW_N6/Drivers/STM32N6xx_HAL_Driver/Src/stm32n6xx_hal_i2c.c ****   * @brief  DeInitialize the I2C peripheral.
 652:STM32Cube_FW_N6/Drivers/STM32N6xx_HAL_Driver/Src/stm32n6xx_hal_i2c.c ****   * @param  hi2c Pointer to a I2C_HandleTypeDef structure that contains
 653:STM32Cube_FW_N6/Drivers/STM32N6xx_HAL_Driver/Src/stm32n6xx_hal_i2c.c ****   *                the configuration information for the specified I2C.
 654:STM32Cube_FW_N6/Drivers/STM32N6xx_HAL_Driver/Src/stm32n6xx_hal_i2c.c ****   * @retval HAL status
 655:STM32Cube_FW_N6/Drivers/STM32N6xx_HAL_Driver/Src/stm32n6xx_hal_i2c.c ****   */
 656:STM32Cube_FW_N6/Drivers/STM32N6xx_HAL_Driver/Src/stm32n6xx_hal_i2c.c **** HAL_StatusTypeDef HAL_I2C_DeInit(I2C_HandleTypeDef *hi2c)
 657:STM32Cube_FW_N6/Drivers/STM32N6xx_HAL_Driver/Src/stm32n6xx_hal_i2c.c **** {
 455              		.loc 1 657 1
 456              		.cfi_startproc
 457              		@ args = 0, pretend = 0, frame = 8
 458              		@ frame_needed = 1, uses_anonymous_args = 0
 459 0000 80B5     		push	{r7, lr}
 460              		.cfi_def_cfa_offset 8
 461              		.cfi_offset 7, -8
 462              		.cfi_offset 14, -4
 463 0002 82B0     		sub	sp, sp, #8
 464              		.cfi_def_cfa_offset 16
 465 0004 00AF     		add	r7, sp, #0
 466              		.cfi_def_cfa_register 7
 467 0006 7860     		str	r0, [r7, #4]
 658:STM32Cube_FW_N6/Drivers/STM32N6xx_HAL_Driver/Src/stm32n6xx_hal_i2c.c ****   /* Check the I2C handle allocation */
 659:STM32Cube_FW_N6/Drivers/STM32N6xx_HAL_Driver/Src/stm32n6xx_hal_i2c.c ****   if (hi2c == NULL)
 468              		.loc 1 659 6
 469 0008 7B68     		ldr	r3, [r7, #4]
 470 000a 002B     		cmp	r3, #0
 471 000c 01D1     		bne	.L20
 660:STM32Cube_FW_N6/Drivers/STM32N6xx_HAL_Driver/Src/stm32n6xx_hal_i2c.c ****   {
 661:STM32Cube_FW_N6/Drivers/STM32N6xx_HAL_Driver/Src/stm32n6xx_hal_i2c.c ****     return HAL_ERROR;
ARM GAS  /tmp/ccrxElPM.s 			page 21


 472              		.loc 1 661 12
 473 000e 0123     		movs	r3, #1
 474 0010 4EE0     		b	.L21
 475              	.L20:
 662:STM32Cube_FW_N6/Drivers/STM32N6xx_HAL_Driver/Src/stm32n6xx_hal_i2c.c ****   }
 663:STM32Cube_FW_N6/Drivers/STM32N6xx_HAL_Driver/Src/stm32n6xx_hal_i2c.c **** 
 664:STM32Cube_FW_N6/Drivers/STM32N6xx_HAL_Driver/Src/stm32n6xx_hal_i2c.c ****   /* Check the parameters */
 665:STM32Cube_FW_N6/Drivers/STM32N6xx_HAL_Driver/Src/stm32n6xx_hal_i2c.c ****   assert_param(IS_I2C_ALL_INSTANCE(hi2c->Instance));
 476              		.loc 1 665 3
 477 0012 7B68     		ldr	r3, [r7, #4]
 478 0014 1B68     		ldr	r3, [r3]
 479 0016 284A     		ldr	r2, .L23
 480 0018 9342     		cmp	r3, r2
 481 001a 27D0     		beq	.L22
 482              		.loc 1 665 3 is_stmt 0 discriminator 1
 483 001c 7B68     		ldr	r3, [r7, #4]
 484 001e 1B68     		ldr	r3, [r3]
 485 0020 264A     		ldr	r2, .L23+4
 486 0022 9342     		cmp	r3, r2
 487 0024 22D0     		beq	.L22
 488              		.loc 1 665 3 discriminator 2
 489 0026 7B68     		ldr	r3, [r7, #4]
 490 0028 1B68     		ldr	r3, [r3]
 491 002a 254A     		ldr	r2, .L23+8
 492 002c 9342     		cmp	r3, r2
 493 002e 1DD0     		beq	.L22
 494              		.loc 1 665 3 discriminator 3
 495 0030 7B68     		ldr	r3, [r7, #4]
 496 0032 1B68     		ldr	r3, [r3]
 497 0034 234A     		ldr	r2, .L23+12
 498 0036 9342     		cmp	r3, r2
 499 0038 18D0     		beq	.L22
 500              		.loc 1 665 3 discriminator 4
 501 003a 7B68     		ldr	r3, [r7, #4]
 502 003c 1B68     		ldr	r3, [r3]
 503 003e 224A     		ldr	r2, .L23+16
 504 0040 9342     		cmp	r3, r2
 505 0042 13D0     		beq	.L22
 506              		.loc 1 665 3 discriminator 5
 507 0044 7B68     		ldr	r3, [r7, #4]
 508 0046 1B68     		ldr	r3, [r3]
 509 0048 204A     		ldr	r2, .L23+20
 510 004a 9342     		cmp	r3, r2
 511 004c 0ED0     		beq	.L22
 512              		.loc 1 665 3 discriminator 6
 513 004e 7B68     		ldr	r3, [r7, #4]
 514 0050 1B68     		ldr	r3, [r3]
 515 0052 1F4A     		ldr	r2, .L23+24
 516 0054 9342     		cmp	r3, r2
 517 0056 09D0     		beq	.L22
 518              		.loc 1 665 3 discriminator 7
 519 0058 7B68     		ldr	r3, [r7, #4]
 520 005a 1B68     		ldr	r3, [r3]
 521 005c 1D4A     		ldr	r2, .L23+28
 522 005e 9342     		cmp	r3, r2
 523 0060 04D0     		beq	.L22
 524              		.loc 1 665 3 discriminator 8
ARM GAS  /tmp/ccrxElPM.s 			page 22


 525 0062 40F29921 		movw	r1, #665
 526 0066 1C48     		ldr	r0, .L23+32
 527 0068 FFF7FEFF 		bl	assert_failed
 528              	.L22:
 666:STM32Cube_FW_N6/Drivers/STM32N6xx_HAL_Driver/Src/stm32n6xx_hal_i2c.c **** 
 667:STM32Cube_FW_N6/Drivers/STM32N6xx_HAL_Driver/Src/stm32n6xx_hal_i2c.c ****   hi2c->State = HAL_I2C_STATE_BUSY;
 529              		.loc 1 667 15 is_stmt 1
 530 006c 7B68     		ldr	r3, [r7, #4]
 531 006e 2422     		movs	r2, #36
 532 0070 83F84120 		strb	r2, [r3, #65]
 668:STM32Cube_FW_N6/Drivers/STM32N6xx_HAL_Driver/Src/stm32n6xx_hal_i2c.c **** 
 669:STM32Cube_FW_N6/Drivers/STM32N6xx_HAL_Driver/Src/stm32n6xx_hal_i2c.c ****   /* Disable the I2C Peripheral Clock */
 670:STM32Cube_FW_N6/Drivers/STM32N6xx_HAL_Driver/Src/stm32n6xx_hal_i2c.c ****   __HAL_I2C_DISABLE(hi2c);
 533              		.loc 1 670 3
 534 0074 7B68     		ldr	r3, [r7, #4]
 535 0076 1B68     		ldr	r3, [r3]
 536 0078 1A68     		ldr	r2, [r3]
 537 007a 7B68     		ldr	r3, [r7, #4]
 538 007c 1B68     		ldr	r3, [r3]
 539 007e 22F00102 		bic	r2, r2, #1
 540 0082 1A60     		str	r2, [r3]
 671:STM32Cube_FW_N6/Drivers/STM32N6xx_HAL_Driver/Src/stm32n6xx_hal_i2c.c **** 
 672:STM32Cube_FW_N6/Drivers/STM32N6xx_HAL_Driver/Src/stm32n6xx_hal_i2c.c **** #if (USE_HAL_I2C_REGISTER_CALLBACKS == 1)
 673:STM32Cube_FW_N6/Drivers/STM32N6xx_HAL_Driver/Src/stm32n6xx_hal_i2c.c ****   if (hi2c->MspDeInitCallback == NULL)
 674:STM32Cube_FW_N6/Drivers/STM32N6xx_HAL_Driver/Src/stm32n6xx_hal_i2c.c ****   {
 675:STM32Cube_FW_N6/Drivers/STM32N6xx_HAL_Driver/Src/stm32n6xx_hal_i2c.c ****     hi2c->MspDeInitCallback = HAL_I2C_MspDeInit; /* Legacy weak MspDeInit  */
 676:STM32Cube_FW_N6/Drivers/STM32N6xx_HAL_Driver/Src/stm32n6xx_hal_i2c.c ****   }
 677:STM32Cube_FW_N6/Drivers/STM32N6xx_HAL_Driver/Src/stm32n6xx_hal_i2c.c **** 
 678:STM32Cube_FW_N6/Drivers/STM32N6xx_HAL_Driver/Src/stm32n6xx_hal_i2c.c ****   /* DeInit the low level hardware: GPIO, CLOCK, NVIC */
 679:STM32Cube_FW_N6/Drivers/STM32N6xx_HAL_Driver/Src/stm32n6xx_hal_i2c.c ****   hi2c->MspDeInitCallback(hi2c);
 680:STM32Cube_FW_N6/Drivers/STM32N6xx_HAL_Driver/Src/stm32n6xx_hal_i2c.c **** #else
 681:STM32Cube_FW_N6/Drivers/STM32N6xx_HAL_Driver/Src/stm32n6xx_hal_i2c.c ****   /* DeInit the low level hardware: GPIO, CLOCK, NVIC */
 682:STM32Cube_FW_N6/Drivers/STM32N6xx_HAL_Driver/Src/stm32n6xx_hal_i2c.c ****   HAL_I2C_MspDeInit(hi2c);
 541              		.loc 1 682 3
 542 0084 7868     		ldr	r0, [r7, #4]
 543 0086 FFF7FEFF 		bl	HAL_I2C_MspDeInit
 683:STM32Cube_FW_N6/Drivers/STM32N6xx_HAL_Driver/Src/stm32n6xx_hal_i2c.c **** #endif /* USE_HAL_I2C_REGISTER_CALLBACKS */
 684:STM32Cube_FW_N6/Drivers/STM32N6xx_HAL_Driver/Src/stm32n6xx_hal_i2c.c **** 
 685:STM32Cube_FW_N6/Drivers/STM32N6xx_HAL_Driver/Src/stm32n6xx_hal_i2c.c ****   hi2c->ErrorCode = HAL_I2C_ERROR_NONE;
 544              		.loc 1 685 19
 545 008a 7B68     		ldr	r3, [r7, #4]
 546 008c 0022     		movs	r2, #0
 547 008e 5A64     		str	r2, [r3, #68]
 686:STM32Cube_FW_N6/Drivers/STM32N6xx_HAL_Driver/Src/stm32n6xx_hal_i2c.c ****   hi2c->State = HAL_I2C_STATE_RESET;
 548              		.loc 1 686 15
 549 0090 7B68     		ldr	r3, [r7, #4]
 550 0092 0022     		movs	r2, #0
 551 0094 83F84120 		strb	r2, [r3, #65]
 687:STM32Cube_FW_N6/Drivers/STM32N6xx_HAL_Driver/Src/stm32n6xx_hal_i2c.c ****   hi2c->PreviousState = I2C_STATE_NONE;
 552              		.loc 1 687 23
 553 0098 7B68     		ldr	r3, [r7, #4]
 554 009a 0022     		movs	r2, #0
 555 009c 1A63     		str	r2, [r3, #48]
 688:STM32Cube_FW_N6/Drivers/STM32N6xx_HAL_Driver/Src/stm32n6xx_hal_i2c.c ****   hi2c->Mode = HAL_I2C_MODE_NONE;
 556              		.loc 1 688 14
 557 009e 7B68     		ldr	r3, [r7, #4]
 558 00a0 0022     		movs	r2, #0
ARM GAS  /tmp/ccrxElPM.s 			page 23


 559 00a2 83F84220 		strb	r2, [r3, #66]
 689:STM32Cube_FW_N6/Drivers/STM32N6xx_HAL_Driver/Src/stm32n6xx_hal_i2c.c **** 
 690:STM32Cube_FW_N6/Drivers/STM32N6xx_HAL_Driver/Src/stm32n6xx_hal_i2c.c ****   /* Release Lock */
 691:STM32Cube_FW_N6/Drivers/STM32N6xx_HAL_Driver/Src/stm32n6xx_hal_i2c.c ****   __HAL_UNLOCK(hi2c);
 560              		.loc 1 691 3
 561 00a6 7B68     		ldr	r3, [r7, #4]
 562 00a8 0022     		movs	r2, #0
 563 00aa 83F84020 		strb	r2, [r3, #64]
 692:STM32Cube_FW_N6/Drivers/STM32N6xx_HAL_Driver/Src/stm32n6xx_hal_i2c.c **** 
 693:STM32Cube_FW_N6/Drivers/STM32N6xx_HAL_Driver/Src/stm32n6xx_hal_i2c.c ****   return HAL_OK;
 564              		.loc 1 693 10
 565 00ae 0023     		movs	r3, #0
 566              	.L21:
 694:STM32Cube_FW_N6/Drivers/STM32N6xx_HAL_Driver/Src/stm32n6xx_hal_i2c.c **** }
 567              		.loc 1 694 1
 568 00b0 1846     		mov	r0, r3
 569 00b2 0837     		adds	r7, r7, #8
 570              		.cfi_def_cfa_offset 8
 571 00b4 BD46     		mov	sp, r7
 572              		.cfi_def_cfa_register 13
 573              		@ sp needed
 574 00b6 80BD     		pop	{r7, pc}
 575              	.L24:
 576              		.align	2
 577              	.L23:
 578 00b8 00540050 		.word	1342198784
 579 00bc 00540040 		.word	1073763328
 580 00c0 00580050 		.word	1342199808
 581 00c4 00580040 		.word	1073764352
 582 00c8 005C0050 		.word	1342200832
 583 00cc 005C0040 		.word	1073765376
 584 00d0 001C0056 		.word	1442847744
 585 00d4 001C0046 		.word	1174412288
 586 00d8 00000000 		.word	.LC0
 587              		.cfi_endproc
 588              	.LFE836:
 590              		.section	.text.HAL_I2C_MspInit,"ax",%progbits
 591              		.align	1
 592              		.weak	HAL_I2C_MspInit
 593              		.syntax unified
 594              		.thumb
 595              		.thumb_func
 597              	HAL_I2C_MspInit:
 598              	.LFB837:
 695:STM32Cube_FW_N6/Drivers/STM32N6xx_HAL_Driver/Src/stm32n6xx_hal_i2c.c **** 
 696:STM32Cube_FW_N6/Drivers/STM32N6xx_HAL_Driver/Src/stm32n6xx_hal_i2c.c **** /**
 697:STM32Cube_FW_N6/Drivers/STM32N6xx_HAL_Driver/Src/stm32n6xx_hal_i2c.c ****   * @brief Initialize the I2C MSP.
 698:STM32Cube_FW_N6/Drivers/STM32N6xx_HAL_Driver/Src/stm32n6xx_hal_i2c.c ****   * @param  hi2c Pointer to a I2C_HandleTypeDef structure that contains
 699:STM32Cube_FW_N6/Drivers/STM32N6xx_HAL_Driver/Src/stm32n6xx_hal_i2c.c ****   *                the configuration information for the specified I2C.
 700:STM32Cube_FW_N6/Drivers/STM32N6xx_HAL_Driver/Src/stm32n6xx_hal_i2c.c ****   * @retval None
 701:STM32Cube_FW_N6/Drivers/STM32N6xx_HAL_Driver/Src/stm32n6xx_hal_i2c.c ****   */
 702:STM32Cube_FW_N6/Drivers/STM32N6xx_HAL_Driver/Src/stm32n6xx_hal_i2c.c **** __weak void HAL_I2C_MspInit(I2C_HandleTypeDef *hi2c)
 703:STM32Cube_FW_N6/Drivers/STM32N6xx_HAL_Driver/Src/stm32n6xx_hal_i2c.c **** {
 599              		.loc 1 703 1
 600              		.cfi_startproc
 601              		@ args = 0, pretend = 0, frame = 8
 602              		@ frame_needed = 1, uses_anonymous_args = 0
ARM GAS  /tmp/ccrxElPM.s 			page 24


 603              		@ link register save eliminated.
 604 0000 80B4     		push	{r7}
 605              		.cfi_def_cfa_offset 4
 606              		.cfi_offset 7, -4
 607 0002 83B0     		sub	sp, sp, #12
 608              		.cfi_def_cfa_offset 16
 609 0004 00AF     		add	r7, sp, #0
 610              		.cfi_def_cfa_register 7
 611 0006 7860     		str	r0, [r7, #4]
 704:STM32Cube_FW_N6/Drivers/STM32N6xx_HAL_Driver/Src/stm32n6xx_hal_i2c.c ****   /* Prevent unused argument(s) compilation warning */
 705:STM32Cube_FW_N6/Drivers/STM32N6xx_HAL_Driver/Src/stm32n6xx_hal_i2c.c ****   UNUSED(hi2c);
 706:STM32Cube_FW_N6/Drivers/STM32N6xx_HAL_Driver/Src/stm32n6xx_hal_i2c.c **** 
 707:STM32Cube_FW_N6/Drivers/STM32N6xx_HAL_Driver/Src/stm32n6xx_hal_i2c.c ****   /* NOTE : This function should not be modified, when the callback is needed,
 708:STM32Cube_FW_N6/Drivers/STM32N6xx_HAL_Driver/Src/stm32n6xx_hal_i2c.c ****             the HAL_I2C_MspInit could be implemented in the user file
 709:STM32Cube_FW_N6/Drivers/STM32N6xx_HAL_Driver/Src/stm32n6xx_hal_i2c.c ****    */
 710:STM32Cube_FW_N6/Drivers/STM32N6xx_HAL_Driver/Src/stm32n6xx_hal_i2c.c **** }
 612              		.loc 1 710 1
 613 0008 00BF     		nop
 614 000a 0C37     		adds	r7, r7, #12
 615              		.cfi_def_cfa_offset 4
 616 000c BD46     		mov	sp, r7
 617              		.cfi_def_cfa_register 13
 618              		@ sp needed
 619 000e 5DF8047B 		ldr	r7, [sp], #4
 620              		.cfi_restore 7
 621              		.cfi_def_cfa_offset 0
 622 0012 7047     		bx	lr
 623              		.cfi_endproc
 624              	.LFE837:
 626              		.section	.text.HAL_I2C_MspDeInit,"ax",%progbits
 627              		.align	1
 628              		.weak	HAL_I2C_MspDeInit
 629              		.syntax unified
 630              		.thumb
 631              		.thumb_func
 633              	HAL_I2C_MspDeInit:
 634              	.LFB838:
 711:STM32Cube_FW_N6/Drivers/STM32N6xx_HAL_Driver/Src/stm32n6xx_hal_i2c.c **** 
 712:STM32Cube_FW_N6/Drivers/STM32N6xx_HAL_Driver/Src/stm32n6xx_hal_i2c.c **** /**
 713:STM32Cube_FW_N6/Drivers/STM32N6xx_HAL_Driver/Src/stm32n6xx_hal_i2c.c ****   * @brief DeInitialize the I2C MSP.
 714:STM32Cube_FW_N6/Drivers/STM32N6xx_HAL_Driver/Src/stm32n6xx_hal_i2c.c ****   * @param  hi2c Pointer to a I2C_HandleTypeDef structure that contains
 715:STM32Cube_FW_N6/Drivers/STM32N6xx_HAL_Driver/Src/stm32n6xx_hal_i2c.c ****   *                the configuration information for the specified I2C.
 716:STM32Cube_FW_N6/Drivers/STM32N6xx_HAL_Driver/Src/stm32n6xx_hal_i2c.c ****   * @retval None
 717:STM32Cube_FW_N6/Drivers/STM32N6xx_HAL_Driver/Src/stm32n6xx_hal_i2c.c ****   */
 718:STM32Cube_FW_N6/Drivers/STM32N6xx_HAL_Driver/Src/stm32n6xx_hal_i2c.c **** __weak void HAL_I2C_MspDeInit(I2C_HandleTypeDef *hi2c)
 719:STM32Cube_FW_N6/Drivers/STM32N6xx_HAL_Driver/Src/stm32n6xx_hal_i2c.c **** {
 635              		.loc 1 719 1
 636              		.cfi_startproc
 637              		@ args = 0, pretend = 0, frame = 8
 638              		@ frame_needed = 1, uses_anonymous_args = 0
 639              		@ link register save eliminated.
 640 0000 80B4     		push	{r7}
 641              		.cfi_def_cfa_offset 4
 642              		.cfi_offset 7, -4
 643 0002 83B0     		sub	sp, sp, #12
 644              		.cfi_def_cfa_offset 16
 645 0004 00AF     		add	r7, sp, #0
ARM GAS  /tmp/ccrxElPM.s 			page 25


 646              		.cfi_def_cfa_register 7
 647 0006 7860     		str	r0, [r7, #4]
 720:STM32Cube_FW_N6/Drivers/STM32N6xx_HAL_Driver/Src/stm32n6xx_hal_i2c.c ****   /* Prevent unused argument(s) compilation warning */
 721:STM32Cube_FW_N6/Drivers/STM32N6xx_HAL_Driver/Src/stm32n6xx_hal_i2c.c ****   UNUSED(hi2c);
 722:STM32Cube_FW_N6/Drivers/STM32N6xx_HAL_Driver/Src/stm32n6xx_hal_i2c.c **** 
 723:STM32Cube_FW_N6/Drivers/STM32N6xx_HAL_Driver/Src/stm32n6xx_hal_i2c.c ****   /* NOTE : This function should not be modified, when the callback is needed,
 724:STM32Cube_FW_N6/Drivers/STM32N6xx_HAL_Driver/Src/stm32n6xx_hal_i2c.c ****             the HAL_I2C_MspDeInit could be implemented in the user file
 725:STM32Cube_FW_N6/Drivers/STM32N6xx_HAL_Driver/Src/stm32n6xx_hal_i2c.c ****    */
 726:STM32Cube_FW_N6/Drivers/STM32N6xx_HAL_Driver/Src/stm32n6xx_hal_i2c.c **** }
 648              		.loc 1 726 1
 649 0008 00BF     		nop
 650 000a 0C37     		adds	r7, r7, #12
 651              		.cfi_def_cfa_offset 4
 652 000c BD46     		mov	sp, r7
 653              		.cfi_def_cfa_register 13
 654              		@ sp needed
 655 000e 5DF8047B 		ldr	r7, [sp], #4
 656              		.cfi_restore 7
 657              		.cfi_def_cfa_offset 0
 658 0012 7047     		bx	lr
 659              		.cfi_endproc
 660              	.LFE838:
 662              		.section	.text.HAL_I2C_Master_Transmit,"ax",%progbits
 663              		.align	1
 664              		.global	HAL_I2C_Master_Transmit
 665              		.syntax unified
 666              		.thumb
 667              		.thumb_func
 669              	HAL_I2C_Master_Transmit:
 670              	.LFB839:
 727:STM32Cube_FW_N6/Drivers/STM32N6xx_HAL_Driver/Src/stm32n6xx_hal_i2c.c **** 
 728:STM32Cube_FW_N6/Drivers/STM32N6xx_HAL_Driver/Src/stm32n6xx_hal_i2c.c **** #if (USE_HAL_I2C_REGISTER_CALLBACKS == 1)
 729:STM32Cube_FW_N6/Drivers/STM32N6xx_HAL_Driver/Src/stm32n6xx_hal_i2c.c **** /**
 730:STM32Cube_FW_N6/Drivers/STM32N6xx_HAL_Driver/Src/stm32n6xx_hal_i2c.c ****   * @brief  Register a User I2C Callback
 731:STM32Cube_FW_N6/Drivers/STM32N6xx_HAL_Driver/Src/stm32n6xx_hal_i2c.c ****   *         To be used instead of the weak predefined callback
 732:STM32Cube_FW_N6/Drivers/STM32N6xx_HAL_Driver/Src/stm32n6xx_hal_i2c.c ****   * @note   The HAL_I2C_RegisterCallback() may be called before HAL_I2C_Init() in HAL_I2C_STATE_RES
 733:STM32Cube_FW_N6/Drivers/STM32N6xx_HAL_Driver/Src/stm32n6xx_hal_i2c.c ****   *         to register callbacks for HAL_I2C_MSPINIT_CB_ID and HAL_I2C_MSPDEINIT_CB_ID.
 734:STM32Cube_FW_N6/Drivers/STM32N6xx_HAL_Driver/Src/stm32n6xx_hal_i2c.c ****   * @param  hi2c Pointer to a I2C_HandleTypeDef structure that contains
 735:STM32Cube_FW_N6/Drivers/STM32N6xx_HAL_Driver/Src/stm32n6xx_hal_i2c.c ****   *                the configuration information for the specified I2C.
 736:STM32Cube_FW_N6/Drivers/STM32N6xx_HAL_Driver/Src/stm32n6xx_hal_i2c.c ****   * @param  CallbackID ID of the callback to be registered
 737:STM32Cube_FW_N6/Drivers/STM32N6xx_HAL_Driver/Src/stm32n6xx_hal_i2c.c ****   *         This parameter can be one of the following values:
 738:STM32Cube_FW_N6/Drivers/STM32N6xx_HAL_Driver/Src/stm32n6xx_hal_i2c.c ****   *          @arg @ref HAL_I2C_MASTER_TX_COMPLETE_CB_ID Master Tx Transfer completed callback ID
 739:STM32Cube_FW_N6/Drivers/STM32N6xx_HAL_Driver/Src/stm32n6xx_hal_i2c.c ****   *          @arg @ref HAL_I2C_MASTER_RX_COMPLETE_CB_ID Master Rx Transfer completed callback ID
 740:STM32Cube_FW_N6/Drivers/STM32N6xx_HAL_Driver/Src/stm32n6xx_hal_i2c.c ****   *          @arg @ref HAL_I2C_SLAVE_TX_COMPLETE_CB_ID Slave Tx Transfer completed callback ID
 741:STM32Cube_FW_N6/Drivers/STM32N6xx_HAL_Driver/Src/stm32n6xx_hal_i2c.c ****   *          @arg @ref HAL_I2C_SLAVE_RX_COMPLETE_CB_ID Slave Rx Transfer completed callback ID
 742:STM32Cube_FW_N6/Drivers/STM32N6xx_HAL_Driver/Src/stm32n6xx_hal_i2c.c ****   *          @arg @ref HAL_I2C_LISTEN_COMPLETE_CB_ID Listen Complete callback ID
 743:STM32Cube_FW_N6/Drivers/STM32N6xx_HAL_Driver/Src/stm32n6xx_hal_i2c.c ****   *          @arg @ref HAL_I2C_MEM_TX_COMPLETE_CB_ID Memory Tx Transfer callback ID
 744:STM32Cube_FW_N6/Drivers/STM32N6xx_HAL_Driver/Src/stm32n6xx_hal_i2c.c ****   *          @arg @ref HAL_I2C_MEM_RX_COMPLETE_CB_ID Memory Rx Transfer completed callback ID
 745:STM32Cube_FW_N6/Drivers/STM32N6xx_HAL_Driver/Src/stm32n6xx_hal_i2c.c ****   *          @arg @ref HAL_I2C_ERROR_CB_ID Error callback ID
 746:STM32Cube_FW_N6/Drivers/STM32N6xx_HAL_Driver/Src/stm32n6xx_hal_i2c.c ****   *          @arg @ref HAL_I2C_ABORT_CB_ID Abort callback ID
 747:STM32Cube_FW_N6/Drivers/STM32N6xx_HAL_Driver/Src/stm32n6xx_hal_i2c.c ****   *          @arg @ref HAL_I2C_MSPINIT_CB_ID MspInit callback ID
 748:STM32Cube_FW_N6/Drivers/STM32N6xx_HAL_Driver/Src/stm32n6xx_hal_i2c.c ****   *          @arg @ref HAL_I2C_MSPDEINIT_CB_ID MspDeInit callback ID
 749:STM32Cube_FW_N6/Drivers/STM32N6xx_HAL_Driver/Src/stm32n6xx_hal_i2c.c ****   * @param  pCallback pointer to the Callback function
 750:STM32Cube_FW_N6/Drivers/STM32N6xx_HAL_Driver/Src/stm32n6xx_hal_i2c.c ****   * @retval HAL status
 751:STM32Cube_FW_N6/Drivers/STM32N6xx_HAL_Driver/Src/stm32n6xx_hal_i2c.c ****   */
 752:STM32Cube_FW_N6/Drivers/STM32N6xx_HAL_Driver/Src/stm32n6xx_hal_i2c.c **** HAL_StatusTypeDef HAL_I2C_RegisterCallback(I2C_HandleTypeDef *hi2c, HAL_I2C_CallbackIDTypeDef Callb
 753:STM32Cube_FW_N6/Drivers/STM32N6xx_HAL_Driver/Src/stm32n6xx_hal_i2c.c ****                                            pI2C_CallbackTypeDef pCallback)
ARM GAS  /tmp/ccrxElPM.s 			page 26


 754:STM32Cube_FW_N6/Drivers/STM32N6xx_HAL_Driver/Src/stm32n6xx_hal_i2c.c **** {
 755:STM32Cube_FW_N6/Drivers/STM32N6xx_HAL_Driver/Src/stm32n6xx_hal_i2c.c ****   HAL_StatusTypeDef status = HAL_OK;
 756:STM32Cube_FW_N6/Drivers/STM32N6xx_HAL_Driver/Src/stm32n6xx_hal_i2c.c **** 
 757:STM32Cube_FW_N6/Drivers/STM32N6xx_HAL_Driver/Src/stm32n6xx_hal_i2c.c ****   if (pCallback == NULL)
 758:STM32Cube_FW_N6/Drivers/STM32N6xx_HAL_Driver/Src/stm32n6xx_hal_i2c.c ****   {
 759:STM32Cube_FW_N6/Drivers/STM32N6xx_HAL_Driver/Src/stm32n6xx_hal_i2c.c ****     /* Update the error code */
 760:STM32Cube_FW_N6/Drivers/STM32N6xx_HAL_Driver/Src/stm32n6xx_hal_i2c.c ****     hi2c->ErrorCode |= HAL_I2C_ERROR_INVALID_CALLBACK;
 761:STM32Cube_FW_N6/Drivers/STM32N6xx_HAL_Driver/Src/stm32n6xx_hal_i2c.c **** 
 762:STM32Cube_FW_N6/Drivers/STM32N6xx_HAL_Driver/Src/stm32n6xx_hal_i2c.c ****     return HAL_ERROR;
 763:STM32Cube_FW_N6/Drivers/STM32N6xx_HAL_Driver/Src/stm32n6xx_hal_i2c.c ****   }
 764:STM32Cube_FW_N6/Drivers/STM32N6xx_HAL_Driver/Src/stm32n6xx_hal_i2c.c **** 
 765:STM32Cube_FW_N6/Drivers/STM32N6xx_HAL_Driver/Src/stm32n6xx_hal_i2c.c ****   if (HAL_I2C_STATE_READY == hi2c->State)
 766:STM32Cube_FW_N6/Drivers/STM32N6xx_HAL_Driver/Src/stm32n6xx_hal_i2c.c ****   {
 767:STM32Cube_FW_N6/Drivers/STM32N6xx_HAL_Driver/Src/stm32n6xx_hal_i2c.c ****     switch (CallbackID)
 768:STM32Cube_FW_N6/Drivers/STM32N6xx_HAL_Driver/Src/stm32n6xx_hal_i2c.c ****     {
 769:STM32Cube_FW_N6/Drivers/STM32N6xx_HAL_Driver/Src/stm32n6xx_hal_i2c.c ****       case HAL_I2C_MASTER_TX_COMPLETE_CB_ID :
 770:STM32Cube_FW_N6/Drivers/STM32N6xx_HAL_Driver/Src/stm32n6xx_hal_i2c.c ****         hi2c->MasterTxCpltCallback = pCallback;
 771:STM32Cube_FW_N6/Drivers/STM32N6xx_HAL_Driver/Src/stm32n6xx_hal_i2c.c ****         break;
 772:STM32Cube_FW_N6/Drivers/STM32N6xx_HAL_Driver/Src/stm32n6xx_hal_i2c.c **** 
 773:STM32Cube_FW_N6/Drivers/STM32N6xx_HAL_Driver/Src/stm32n6xx_hal_i2c.c ****       case HAL_I2C_MASTER_RX_COMPLETE_CB_ID :
 774:STM32Cube_FW_N6/Drivers/STM32N6xx_HAL_Driver/Src/stm32n6xx_hal_i2c.c ****         hi2c->MasterRxCpltCallback = pCallback;
 775:STM32Cube_FW_N6/Drivers/STM32N6xx_HAL_Driver/Src/stm32n6xx_hal_i2c.c ****         break;
 776:STM32Cube_FW_N6/Drivers/STM32N6xx_HAL_Driver/Src/stm32n6xx_hal_i2c.c **** 
 777:STM32Cube_FW_N6/Drivers/STM32N6xx_HAL_Driver/Src/stm32n6xx_hal_i2c.c ****       case HAL_I2C_SLAVE_TX_COMPLETE_CB_ID :
 778:STM32Cube_FW_N6/Drivers/STM32N6xx_HAL_Driver/Src/stm32n6xx_hal_i2c.c ****         hi2c->SlaveTxCpltCallback = pCallback;
 779:STM32Cube_FW_N6/Drivers/STM32N6xx_HAL_Driver/Src/stm32n6xx_hal_i2c.c ****         break;
 780:STM32Cube_FW_N6/Drivers/STM32N6xx_HAL_Driver/Src/stm32n6xx_hal_i2c.c **** 
 781:STM32Cube_FW_N6/Drivers/STM32N6xx_HAL_Driver/Src/stm32n6xx_hal_i2c.c ****       case HAL_I2C_SLAVE_RX_COMPLETE_CB_ID :
 782:STM32Cube_FW_N6/Drivers/STM32N6xx_HAL_Driver/Src/stm32n6xx_hal_i2c.c ****         hi2c->SlaveRxCpltCallback = pCallback;
 783:STM32Cube_FW_N6/Drivers/STM32N6xx_HAL_Driver/Src/stm32n6xx_hal_i2c.c ****         break;
 784:STM32Cube_FW_N6/Drivers/STM32N6xx_HAL_Driver/Src/stm32n6xx_hal_i2c.c **** 
 785:STM32Cube_FW_N6/Drivers/STM32N6xx_HAL_Driver/Src/stm32n6xx_hal_i2c.c ****       case HAL_I2C_LISTEN_COMPLETE_CB_ID :
 786:STM32Cube_FW_N6/Drivers/STM32N6xx_HAL_Driver/Src/stm32n6xx_hal_i2c.c ****         hi2c->ListenCpltCallback = pCallback;
 787:STM32Cube_FW_N6/Drivers/STM32N6xx_HAL_Driver/Src/stm32n6xx_hal_i2c.c ****         break;
 788:STM32Cube_FW_N6/Drivers/STM32N6xx_HAL_Driver/Src/stm32n6xx_hal_i2c.c **** 
 789:STM32Cube_FW_N6/Drivers/STM32N6xx_HAL_Driver/Src/stm32n6xx_hal_i2c.c ****       case HAL_I2C_MEM_TX_COMPLETE_CB_ID :
 790:STM32Cube_FW_N6/Drivers/STM32N6xx_HAL_Driver/Src/stm32n6xx_hal_i2c.c ****         hi2c->MemTxCpltCallback = pCallback;
 791:STM32Cube_FW_N6/Drivers/STM32N6xx_HAL_Driver/Src/stm32n6xx_hal_i2c.c ****         break;
 792:STM32Cube_FW_N6/Drivers/STM32N6xx_HAL_Driver/Src/stm32n6xx_hal_i2c.c **** 
 793:STM32Cube_FW_N6/Drivers/STM32N6xx_HAL_Driver/Src/stm32n6xx_hal_i2c.c ****       case HAL_I2C_MEM_RX_COMPLETE_CB_ID :
 794:STM32Cube_FW_N6/Drivers/STM32N6xx_HAL_Driver/Src/stm32n6xx_hal_i2c.c ****         hi2c->MemRxCpltCallback = pCallback;
 795:STM32Cube_FW_N6/Drivers/STM32N6xx_HAL_Driver/Src/stm32n6xx_hal_i2c.c ****         break;
 796:STM32Cube_FW_N6/Drivers/STM32N6xx_HAL_Driver/Src/stm32n6xx_hal_i2c.c **** 
 797:STM32Cube_FW_N6/Drivers/STM32N6xx_HAL_Driver/Src/stm32n6xx_hal_i2c.c ****       case HAL_I2C_ERROR_CB_ID :
 798:STM32Cube_FW_N6/Drivers/STM32N6xx_HAL_Driver/Src/stm32n6xx_hal_i2c.c ****         hi2c->ErrorCallback = pCallback;
 799:STM32Cube_FW_N6/Drivers/STM32N6xx_HAL_Driver/Src/stm32n6xx_hal_i2c.c ****         break;
 800:STM32Cube_FW_N6/Drivers/STM32N6xx_HAL_Driver/Src/stm32n6xx_hal_i2c.c **** 
 801:STM32Cube_FW_N6/Drivers/STM32N6xx_HAL_Driver/Src/stm32n6xx_hal_i2c.c ****       case HAL_I2C_ABORT_CB_ID :
 802:STM32Cube_FW_N6/Drivers/STM32N6xx_HAL_Driver/Src/stm32n6xx_hal_i2c.c ****         hi2c->AbortCpltCallback = pCallback;
 803:STM32Cube_FW_N6/Drivers/STM32N6xx_HAL_Driver/Src/stm32n6xx_hal_i2c.c ****         break;
 804:STM32Cube_FW_N6/Drivers/STM32N6xx_HAL_Driver/Src/stm32n6xx_hal_i2c.c **** 
 805:STM32Cube_FW_N6/Drivers/STM32N6xx_HAL_Driver/Src/stm32n6xx_hal_i2c.c ****       case HAL_I2C_MSPINIT_CB_ID :
 806:STM32Cube_FW_N6/Drivers/STM32N6xx_HAL_Driver/Src/stm32n6xx_hal_i2c.c ****         hi2c->MspInitCallback = pCallback;
 807:STM32Cube_FW_N6/Drivers/STM32N6xx_HAL_Driver/Src/stm32n6xx_hal_i2c.c ****         break;
 808:STM32Cube_FW_N6/Drivers/STM32N6xx_HAL_Driver/Src/stm32n6xx_hal_i2c.c **** 
 809:STM32Cube_FW_N6/Drivers/STM32N6xx_HAL_Driver/Src/stm32n6xx_hal_i2c.c ****       case HAL_I2C_MSPDEINIT_CB_ID :
 810:STM32Cube_FW_N6/Drivers/STM32N6xx_HAL_Driver/Src/stm32n6xx_hal_i2c.c ****         hi2c->MspDeInitCallback = pCallback;
ARM GAS  /tmp/ccrxElPM.s 			page 27


 811:STM32Cube_FW_N6/Drivers/STM32N6xx_HAL_Driver/Src/stm32n6xx_hal_i2c.c ****         break;
 812:STM32Cube_FW_N6/Drivers/STM32N6xx_HAL_Driver/Src/stm32n6xx_hal_i2c.c **** 
 813:STM32Cube_FW_N6/Drivers/STM32N6xx_HAL_Driver/Src/stm32n6xx_hal_i2c.c ****       default :
 814:STM32Cube_FW_N6/Drivers/STM32N6xx_HAL_Driver/Src/stm32n6xx_hal_i2c.c ****         /* Update the error code */
 815:STM32Cube_FW_N6/Drivers/STM32N6xx_HAL_Driver/Src/stm32n6xx_hal_i2c.c ****         hi2c->ErrorCode |= HAL_I2C_ERROR_INVALID_CALLBACK;
 816:STM32Cube_FW_N6/Drivers/STM32N6xx_HAL_Driver/Src/stm32n6xx_hal_i2c.c **** 
 817:STM32Cube_FW_N6/Drivers/STM32N6xx_HAL_Driver/Src/stm32n6xx_hal_i2c.c ****         /* Return error status */
 818:STM32Cube_FW_N6/Drivers/STM32N6xx_HAL_Driver/Src/stm32n6xx_hal_i2c.c ****         status =  HAL_ERROR;
 819:STM32Cube_FW_N6/Drivers/STM32N6xx_HAL_Driver/Src/stm32n6xx_hal_i2c.c ****         break;
 820:STM32Cube_FW_N6/Drivers/STM32N6xx_HAL_Driver/Src/stm32n6xx_hal_i2c.c ****     }
 821:STM32Cube_FW_N6/Drivers/STM32N6xx_HAL_Driver/Src/stm32n6xx_hal_i2c.c ****   }
 822:STM32Cube_FW_N6/Drivers/STM32N6xx_HAL_Driver/Src/stm32n6xx_hal_i2c.c ****   else if (HAL_I2C_STATE_RESET == hi2c->State)
 823:STM32Cube_FW_N6/Drivers/STM32N6xx_HAL_Driver/Src/stm32n6xx_hal_i2c.c ****   {
 824:STM32Cube_FW_N6/Drivers/STM32N6xx_HAL_Driver/Src/stm32n6xx_hal_i2c.c ****     switch (CallbackID)
 825:STM32Cube_FW_N6/Drivers/STM32N6xx_HAL_Driver/Src/stm32n6xx_hal_i2c.c ****     {
 826:STM32Cube_FW_N6/Drivers/STM32N6xx_HAL_Driver/Src/stm32n6xx_hal_i2c.c ****       case HAL_I2C_MSPINIT_CB_ID :
 827:STM32Cube_FW_N6/Drivers/STM32N6xx_HAL_Driver/Src/stm32n6xx_hal_i2c.c ****         hi2c->MspInitCallback = pCallback;
 828:STM32Cube_FW_N6/Drivers/STM32N6xx_HAL_Driver/Src/stm32n6xx_hal_i2c.c ****         break;
 829:STM32Cube_FW_N6/Drivers/STM32N6xx_HAL_Driver/Src/stm32n6xx_hal_i2c.c **** 
 830:STM32Cube_FW_N6/Drivers/STM32N6xx_HAL_Driver/Src/stm32n6xx_hal_i2c.c ****       case HAL_I2C_MSPDEINIT_CB_ID :
 831:STM32Cube_FW_N6/Drivers/STM32N6xx_HAL_Driver/Src/stm32n6xx_hal_i2c.c ****         hi2c->MspDeInitCallback = pCallback;
 832:STM32Cube_FW_N6/Drivers/STM32N6xx_HAL_Driver/Src/stm32n6xx_hal_i2c.c ****         break;
 833:STM32Cube_FW_N6/Drivers/STM32N6xx_HAL_Driver/Src/stm32n6xx_hal_i2c.c **** 
 834:STM32Cube_FW_N6/Drivers/STM32N6xx_HAL_Driver/Src/stm32n6xx_hal_i2c.c ****       default :
 835:STM32Cube_FW_N6/Drivers/STM32N6xx_HAL_Driver/Src/stm32n6xx_hal_i2c.c ****         /* Update the error code */
 836:STM32Cube_FW_N6/Drivers/STM32N6xx_HAL_Driver/Src/stm32n6xx_hal_i2c.c ****         hi2c->ErrorCode |= HAL_I2C_ERROR_INVALID_CALLBACK;
 837:STM32Cube_FW_N6/Drivers/STM32N6xx_HAL_Driver/Src/stm32n6xx_hal_i2c.c **** 
 838:STM32Cube_FW_N6/Drivers/STM32N6xx_HAL_Driver/Src/stm32n6xx_hal_i2c.c ****         /* Return error status */
 839:STM32Cube_FW_N6/Drivers/STM32N6xx_HAL_Driver/Src/stm32n6xx_hal_i2c.c ****         status =  HAL_ERROR;
 840:STM32Cube_FW_N6/Drivers/STM32N6xx_HAL_Driver/Src/stm32n6xx_hal_i2c.c ****         break;
 841:STM32Cube_FW_N6/Drivers/STM32N6xx_HAL_Driver/Src/stm32n6xx_hal_i2c.c ****     }
 842:STM32Cube_FW_N6/Drivers/STM32N6xx_HAL_Driver/Src/stm32n6xx_hal_i2c.c ****   }
 843:STM32Cube_FW_N6/Drivers/STM32N6xx_HAL_Driver/Src/stm32n6xx_hal_i2c.c ****   else
 844:STM32Cube_FW_N6/Drivers/STM32N6xx_HAL_Driver/Src/stm32n6xx_hal_i2c.c ****   {
 845:STM32Cube_FW_N6/Drivers/STM32N6xx_HAL_Driver/Src/stm32n6xx_hal_i2c.c ****     /* Update the error code */
 846:STM32Cube_FW_N6/Drivers/STM32N6xx_HAL_Driver/Src/stm32n6xx_hal_i2c.c ****     hi2c->ErrorCode |= HAL_I2C_ERROR_INVALID_CALLBACK;
 847:STM32Cube_FW_N6/Drivers/STM32N6xx_HAL_Driver/Src/stm32n6xx_hal_i2c.c **** 
 848:STM32Cube_FW_N6/Drivers/STM32N6xx_HAL_Driver/Src/stm32n6xx_hal_i2c.c ****     /* Return error status */
 849:STM32Cube_FW_N6/Drivers/STM32N6xx_HAL_Driver/Src/stm32n6xx_hal_i2c.c ****     status =  HAL_ERROR;
 850:STM32Cube_FW_N6/Drivers/STM32N6xx_HAL_Driver/Src/stm32n6xx_hal_i2c.c ****   }
 851:STM32Cube_FW_N6/Drivers/STM32N6xx_HAL_Driver/Src/stm32n6xx_hal_i2c.c **** 
 852:STM32Cube_FW_N6/Drivers/STM32N6xx_HAL_Driver/Src/stm32n6xx_hal_i2c.c ****   return status;
 853:STM32Cube_FW_N6/Drivers/STM32N6xx_HAL_Driver/Src/stm32n6xx_hal_i2c.c **** }
 854:STM32Cube_FW_N6/Drivers/STM32N6xx_HAL_Driver/Src/stm32n6xx_hal_i2c.c **** 
 855:STM32Cube_FW_N6/Drivers/STM32N6xx_HAL_Driver/Src/stm32n6xx_hal_i2c.c **** /**
 856:STM32Cube_FW_N6/Drivers/STM32N6xx_HAL_Driver/Src/stm32n6xx_hal_i2c.c ****   * @brief  Unregister an I2C Callback
 857:STM32Cube_FW_N6/Drivers/STM32N6xx_HAL_Driver/Src/stm32n6xx_hal_i2c.c ****   *         I2C callback is redirected to the weak predefined callback
 858:STM32Cube_FW_N6/Drivers/STM32N6xx_HAL_Driver/Src/stm32n6xx_hal_i2c.c ****   * @note   The HAL_I2C_UnRegisterCallback() may be called before HAL_I2C_Init() in HAL_I2C_STATE_R
 859:STM32Cube_FW_N6/Drivers/STM32N6xx_HAL_Driver/Src/stm32n6xx_hal_i2c.c ****   *         to un-register callbacks for HAL_I2C_MSPINIT_CB_ID and HAL_I2C_MSPDEINIT_CB_ID.
 860:STM32Cube_FW_N6/Drivers/STM32N6xx_HAL_Driver/Src/stm32n6xx_hal_i2c.c ****   * @param  hi2c Pointer to a I2C_HandleTypeDef structure that contains
 861:STM32Cube_FW_N6/Drivers/STM32N6xx_HAL_Driver/Src/stm32n6xx_hal_i2c.c ****   *                the configuration information for the specified I2C.
 862:STM32Cube_FW_N6/Drivers/STM32N6xx_HAL_Driver/Src/stm32n6xx_hal_i2c.c ****   * @param  CallbackID ID of the callback to be unregistered
 863:STM32Cube_FW_N6/Drivers/STM32N6xx_HAL_Driver/Src/stm32n6xx_hal_i2c.c ****   *         This parameter can be one of the following values:
 864:STM32Cube_FW_N6/Drivers/STM32N6xx_HAL_Driver/Src/stm32n6xx_hal_i2c.c ****   *         This parameter can be one of the following values:
 865:STM32Cube_FW_N6/Drivers/STM32N6xx_HAL_Driver/Src/stm32n6xx_hal_i2c.c ****   *          @arg @ref HAL_I2C_MASTER_TX_COMPLETE_CB_ID Master Tx Transfer completed callback ID
 866:STM32Cube_FW_N6/Drivers/STM32N6xx_HAL_Driver/Src/stm32n6xx_hal_i2c.c ****   *          @arg @ref HAL_I2C_MASTER_RX_COMPLETE_CB_ID Master Rx Transfer completed callback ID
 867:STM32Cube_FW_N6/Drivers/STM32N6xx_HAL_Driver/Src/stm32n6xx_hal_i2c.c ****   *          @arg @ref HAL_I2C_SLAVE_TX_COMPLETE_CB_ID Slave Tx Transfer completed callback ID
ARM GAS  /tmp/ccrxElPM.s 			page 28


 868:STM32Cube_FW_N6/Drivers/STM32N6xx_HAL_Driver/Src/stm32n6xx_hal_i2c.c ****   *          @arg @ref HAL_I2C_SLAVE_RX_COMPLETE_CB_ID Slave Rx Transfer completed callback ID
 869:STM32Cube_FW_N6/Drivers/STM32N6xx_HAL_Driver/Src/stm32n6xx_hal_i2c.c ****   *          @arg @ref HAL_I2C_LISTEN_COMPLETE_CB_ID Listen Complete callback ID
 870:STM32Cube_FW_N6/Drivers/STM32N6xx_HAL_Driver/Src/stm32n6xx_hal_i2c.c ****   *          @arg @ref HAL_I2C_MEM_TX_COMPLETE_CB_ID Memory Tx Transfer callback ID
 871:STM32Cube_FW_N6/Drivers/STM32N6xx_HAL_Driver/Src/stm32n6xx_hal_i2c.c ****   *          @arg @ref HAL_I2C_MEM_RX_COMPLETE_CB_ID Memory Rx Transfer completed callback ID
 872:STM32Cube_FW_N6/Drivers/STM32N6xx_HAL_Driver/Src/stm32n6xx_hal_i2c.c ****   *          @arg @ref HAL_I2C_ERROR_CB_ID Error callback ID
 873:STM32Cube_FW_N6/Drivers/STM32N6xx_HAL_Driver/Src/stm32n6xx_hal_i2c.c ****   *          @arg @ref HAL_I2C_ABORT_CB_ID Abort callback ID
 874:STM32Cube_FW_N6/Drivers/STM32N6xx_HAL_Driver/Src/stm32n6xx_hal_i2c.c ****   *          @arg @ref HAL_I2C_MSPINIT_CB_ID MspInit callback ID
 875:STM32Cube_FW_N6/Drivers/STM32N6xx_HAL_Driver/Src/stm32n6xx_hal_i2c.c ****   *          @arg @ref HAL_I2C_MSPDEINIT_CB_ID MspDeInit callback ID
 876:STM32Cube_FW_N6/Drivers/STM32N6xx_HAL_Driver/Src/stm32n6xx_hal_i2c.c ****   * @retval HAL status
 877:STM32Cube_FW_N6/Drivers/STM32N6xx_HAL_Driver/Src/stm32n6xx_hal_i2c.c ****   */
 878:STM32Cube_FW_N6/Drivers/STM32N6xx_HAL_Driver/Src/stm32n6xx_hal_i2c.c **** HAL_StatusTypeDef HAL_I2C_UnRegisterCallback(I2C_HandleTypeDef *hi2c, HAL_I2C_CallbackIDTypeDef Cal
 879:STM32Cube_FW_N6/Drivers/STM32N6xx_HAL_Driver/Src/stm32n6xx_hal_i2c.c **** {
 880:STM32Cube_FW_N6/Drivers/STM32N6xx_HAL_Driver/Src/stm32n6xx_hal_i2c.c ****   HAL_StatusTypeDef status = HAL_OK;
 881:STM32Cube_FW_N6/Drivers/STM32N6xx_HAL_Driver/Src/stm32n6xx_hal_i2c.c **** 
 882:STM32Cube_FW_N6/Drivers/STM32N6xx_HAL_Driver/Src/stm32n6xx_hal_i2c.c ****   if (HAL_I2C_STATE_READY == hi2c->State)
 883:STM32Cube_FW_N6/Drivers/STM32N6xx_HAL_Driver/Src/stm32n6xx_hal_i2c.c ****   {
 884:STM32Cube_FW_N6/Drivers/STM32N6xx_HAL_Driver/Src/stm32n6xx_hal_i2c.c ****     switch (CallbackID)
 885:STM32Cube_FW_N6/Drivers/STM32N6xx_HAL_Driver/Src/stm32n6xx_hal_i2c.c ****     {
 886:STM32Cube_FW_N6/Drivers/STM32N6xx_HAL_Driver/Src/stm32n6xx_hal_i2c.c ****       case HAL_I2C_MASTER_TX_COMPLETE_CB_ID :
 887:STM32Cube_FW_N6/Drivers/STM32N6xx_HAL_Driver/Src/stm32n6xx_hal_i2c.c ****         hi2c->MasterTxCpltCallback = HAL_I2C_MasterTxCpltCallback; /* Legacy weak MasterTxCpltCallb
 888:STM32Cube_FW_N6/Drivers/STM32N6xx_HAL_Driver/Src/stm32n6xx_hal_i2c.c ****         break;
 889:STM32Cube_FW_N6/Drivers/STM32N6xx_HAL_Driver/Src/stm32n6xx_hal_i2c.c **** 
 890:STM32Cube_FW_N6/Drivers/STM32N6xx_HAL_Driver/Src/stm32n6xx_hal_i2c.c ****       case HAL_I2C_MASTER_RX_COMPLETE_CB_ID :
 891:STM32Cube_FW_N6/Drivers/STM32N6xx_HAL_Driver/Src/stm32n6xx_hal_i2c.c ****         hi2c->MasterRxCpltCallback = HAL_I2C_MasterRxCpltCallback; /* Legacy weak MasterRxCpltCallb
 892:STM32Cube_FW_N6/Drivers/STM32N6xx_HAL_Driver/Src/stm32n6xx_hal_i2c.c ****         break;
 893:STM32Cube_FW_N6/Drivers/STM32N6xx_HAL_Driver/Src/stm32n6xx_hal_i2c.c **** 
 894:STM32Cube_FW_N6/Drivers/STM32N6xx_HAL_Driver/Src/stm32n6xx_hal_i2c.c ****       case HAL_I2C_SLAVE_TX_COMPLETE_CB_ID :
 895:STM32Cube_FW_N6/Drivers/STM32N6xx_HAL_Driver/Src/stm32n6xx_hal_i2c.c ****         hi2c->SlaveTxCpltCallback = HAL_I2C_SlaveTxCpltCallback;   /* Legacy weak SlaveTxCpltCallba
 896:STM32Cube_FW_N6/Drivers/STM32N6xx_HAL_Driver/Src/stm32n6xx_hal_i2c.c ****         break;
 897:STM32Cube_FW_N6/Drivers/STM32N6xx_HAL_Driver/Src/stm32n6xx_hal_i2c.c **** 
 898:STM32Cube_FW_N6/Drivers/STM32N6xx_HAL_Driver/Src/stm32n6xx_hal_i2c.c ****       case HAL_I2C_SLAVE_RX_COMPLETE_CB_ID :
 899:STM32Cube_FW_N6/Drivers/STM32N6xx_HAL_Driver/Src/stm32n6xx_hal_i2c.c ****         hi2c->SlaveRxCpltCallback = HAL_I2C_SlaveRxCpltCallback;   /* Legacy weak SlaveRxCpltCallba
 900:STM32Cube_FW_N6/Drivers/STM32N6xx_HAL_Driver/Src/stm32n6xx_hal_i2c.c ****         break;
 901:STM32Cube_FW_N6/Drivers/STM32N6xx_HAL_Driver/Src/stm32n6xx_hal_i2c.c **** 
 902:STM32Cube_FW_N6/Drivers/STM32N6xx_HAL_Driver/Src/stm32n6xx_hal_i2c.c ****       case HAL_I2C_LISTEN_COMPLETE_CB_ID :
 903:STM32Cube_FW_N6/Drivers/STM32N6xx_HAL_Driver/Src/stm32n6xx_hal_i2c.c ****         hi2c->ListenCpltCallback = HAL_I2C_ListenCpltCallback;     /* Legacy weak ListenCpltCallbac
 904:STM32Cube_FW_N6/Drivers/STM32N6xx_HAL_Driver/Src/stm32n6xx_hal_i2c.c ****         break;
 905:STM32Cube_FW_N6/Drivers/STM32N6xx_HAL_Driver/Src/stm32n6xx_hal_i2c.c **** 
 906:STM32Cube_FW_N6/Drivers/STM32N6xx_HAL_Driver/Src/stm32n6xx_hal_i2c.c ****       case HAL_I2C_MEM_TX_COMPLETE_CB_ID :
 907:STM32Cube_FW_N6/Drivers/STM32N6xx_HAL_Driver/Src/stm32n6xx_hal_i2c.c ****         hi2c->MemTxCpltCallback = HAL_I2C_MemTxCpltCallback;       /* Legacy weak MemTxCpltCallback
 908:STM32Cube_FW_N6/Drivers/STM32N6xx_HAL_Driver/Src/stm32n6xx_hal_i2c.c ****         break;
 909:STM32Cube_FW_N6/Drivers/STM32N6xx_HAL_Driver/Src/stm32n6xx_hal_i2c.c **** 
 910:STM32Cube_FW_N6/Drivers/STM32N6xx_HAL_Driver/Src/stm32n6xx_hal_i2c.c ****       case HAL_I2C_MEM_RX_COMPLETE_CB_ID :
 911:STM32Cube_FW_N6/Drivers/STM32N6xx_HAL_Driver/Src/stm32n6xx_hal_i2c.c ****         hi2c->MemRxCpltCallback = HAL_I2C_MemRxCpltCallback;       /* Legacy weak MemRxCpltCallback
 912:STM32Cube_FW_N6/Drivers/STM32N6xx_HAL_Driver/Src/stm32n6xx_hal_i2c.c ****         break;
 913:STM32Cube_FW_N6/Drivers/STM32N6xx_HAL_Driver/Src/stm32n6xx_hal_i2c.c **** 
 914:STM32Cube_FW_N6/Drivers/STM32N6xx_HAL_Driver/Src/stm32n6xx_hal_i2c.c ****       case HAL_I2C_ERROR_CB_ID :
 915:STM32Cube_FW_N6/Drivers/STM32N6xx_HAL_Driver/Src/stm32n6xx_hal_i2c.c ****         hi2c->ErrorCallback = HAL_I2C_ErrorCallback;               /* Legacy weak ErrorCallback    
 916:STM32Cube_FW_N6/Drivers/STM32N6xx_HAL_Driver/Src/stm32n6xx_hal_i2c.c ****         break;
 917:STM32Cube_FW_N6/Drivers/STM32N6xx_HAL_Driver/Src/stm32n6xx_hal_i2c.c **** 
 918:STM32Cube_FW_N6/Drivers/STM32N6xx_HAL_Driver/Src/stm32n6xx_hal_i2c.c ****       case HAL_I2C_ABORT_CB_ID :
 919:STM32Cube_FW_N6/Drivers/STM32N6xx_HAL_Driver/Src/stm32n6xx_hal_i2c.c ****         hi2c->AbortCpltCallback = HAL_I2C_AbortCpltCallback;       /* Legacy weak AbortCpltCallback
 920:STM32Cube_FW_N6/Drivers/STM32N6xx_HAL_Driver/Src/stm32n6xx_hal_i2c.c ****         break;
 921:STM32Cube_FW_N6/Drivers/STM32N6xx_HAL_Driver/Src/stm32n6xx_hal_i2c.c **** 
 922:STM32Cube_FW_N6/Drivers/STM32N6xx_HAL_Driver/Src/stm32n6xx_hal_i2c.c ****       case HAL_I2C_MSPINIT_CB_ID :
 923:STM32Cube_FW_N6/Drivers/STM32N6xx_HAL_Driver/Src/stm32n6xx_hal_i2c.c ****         hi2c->MspInitCallback = HAL_I2C_MspInit;                   /* Legacy weak MspInit          
 924:STM32Cube_FW_N6/Drivers/STM32N6xx_HAL_Driver/Src/stm32n6xx_hal_i2c.c ****         break;
ARM GAS  /tmp/ccrxElPM.s 			page 29


 925:STM32Cube_FW_N6/Drivers/STM32N6xx_HAL_Driver/Src/stm32n6xx_hal_i2c.c **** 
 926:STM32Cube_FW_N6/Drivers/STM32N6xx_HAL_Driver/Src/stm32n6xx_hal_i2c.c ****       case HAL_I2C_MSPDEINIT_CB_ID :
 927:STM32Cube_FW_N6/Drivers/STM32N6xx_HAL_Driver/Src/stm32n6xx_hal_i2c.c ****         hi2c->MspDeInitCallback = HAL_I2C_MspDeInit;               /* Legacy weak MspDeInit        
 928:STM32Cube_FW_N6/Drivers/STM32N6xx_HAL_Driver/Src/stm32n6xx_hal_i2c.c ****         break;
 929:STM32Cube_FW_N6/Drivers/STM32N6xx_HAL_Driver/Src/stm32n6xx_hal_i2c.c **** 
 930:STM32Cube_FW_N6/Drivers/STM32N6xx_HAL_Driver/Src/stm32n6xx_hal_i2c.c ****       default :
 931:STM32Cube_FW_N6/Drivers/STM32N6xx_HAL_Driver/Src/stm32n6xx_hal_i2c.c ****         /* Update the error code */
 932:STM32Cube_FW_N6/Drivers/STM32N6xx_HAL_Driver/Src/stm32n6xx_hal_i2c.c ****         hi2c->ErrorCode |= HAL_I2C_ERROR_INVALID_CALLBACK;
 933:STM32Cube_FW_N6/Drivers/STM32N6xx_HAL_Driver/Src/stm32n6xx_hal_i2c.c **** 
 934:STM32Cube_FW_N6/Drivers/STM32N6xx_HAL_Driver/Src/stm32n6xx_hal_i2c.c ****         /* Return error status */
 935:STM32Cube_FW_N6/Drivers/STM32N6xx_HAL_Driver/Src/stm32n6xx_hal_i2c.c ****         status =  HAL_ERROR;
 936:STM32Cube_FW_N6/Drivers/STM32N6xx_HAL_Driver/Src/stm32n6xx_hal_i2c.c ****         break;
 937:STM32Cube_FW_N6/Drivers/STM32N6xx_HAL_Driver/Src/stm32n6xx_hal_i2c.c ****     }
 938:STM32Cube_FW_N6/Drivers/STM32N6xx_HAL_Driver/Src/stm32n6xx_hal_i2c.c ****   }
 939:STM32Cube_FW_N6/Drivers/STM32N6xx_HAL_Driver/Src/stm32n6xx_hal_i2c.c ****   else if (HAL_I2C_STATE_RESET == hi2c->State)
 940:STM32Cube_FW_N6/Drivers/STM32N6xx_HAL_Driver/Src/stm32n6xx_hal_i2c.c ****   {
 941:STM32Cube_FW_N6/Drivers/STM32N6xx_HAL_Driver/Src/stm32n6xx_hal_i2c.c ****     switch (CallbackID)
 942:STM32Cube_FW_N6/Drivers/STM32N6xx_HAL_Driver/Src/stm32n6xx_hal_i2c.c ****     {
 943:STM32Cube_FW_N6/Drivers/STM32N6xx_HAL_Driver/Src/stm32n6xx_hal_i2c.c ****       case HAL_I2C_MSPINIT_CB_ID :
 944:STM32Cube_FW_N6/Drivers/STM32N6xx_HAL_Driver/Src/stm32n6xx_hal_i2c.c ****         hi2c->MspInitCallback = HAL_I2C_MspInit;                   /* Legacy weak MspInit          
 945:STM32Cube_FW_N6/Drivers/STM32N6xx_HAL_Driver/Src/stm32n6xx_hal_i2c.c ****         break;
 946:STM32Cube_FW_N6/Drivers/STM32N6xx_HAL_Driver/Src/stm32n6xx_hal_i2c.c **** 
 947:STM32Cube_FW_N6/Drivers/STM32N6xx_HAL_Driver/Src/stm32n6xx_hal_i2c.c ****       case HAL_I2C_MSPDEINIT_CB_ID :
 948:STM32Cube_FW_N6/Drivers/STM32N6xx_HAL_Driver/Src/stm32n6xx_hal_i2c.c ****         hi2c->MspDeInitCallback = HAL_I2C_MspDeInit;               /* Legacy weak MspDeInit        
 949:STM32Cube_FW_N6/Drivers/STM32N6xx_HAL_Driver/Src/stm32n6xx_hal_i2c.c ****         break;
 950:STM32Cube_FW_N6/Drivers/STM32N6xx_HAL_Driver/Src/stm32n6xx_hal_i2c.c **** 
 951:STM32Cube_FW_N6/Drivers/STM32N6xx_HAL_Driver/Src/stm32n6xx_hal_i2c.c ****       default :
 952:STM32Cube_FW_N6/Drivers/STM32N6xx_HAL_Driver/Src/stm32n6xx_hal_i2c.c ****         /* Update the error code */
 953:STM32Cube_FW_N6/Drivers/STM32N6xx_HAL_Driver/Src/stm32n6xx_hal_i2c.c ****         hi2c->ErrorCode |= HAL_I2C_ERROR_INVALID_CALLBACK;
 954:STM32Cube_FW_N6/Drivers/STM32N6xx_HAL_Driver/Src/stm32n6xx_hal_i2c.c **** 
 955:STM32Cube_FW_N6/Drivers/STM32N6xx_HAL_Driver/Src/stm32n6xx_hal_i2c.c ****         /* Return error status */
 956:STM32Cube_FW_N6/Drivers/STM32N6xx_HAL_Driver/Src/stm32n6xx_hal_i2c.c ****         status =  HAL_ERROR;
 957:STM32Cube_FW_N6/Drivers/STM32N6xx_HAL_Driver/Src/stm32n6xx_hal_i2c.c ****         break;
 958:STM32Cube_FW_N6/Drivers/STM32N6xx_HAL_Driver/Src/stm32n6xx_hal_i2c.c ****     }
 959:STM32Cube_FW_N6/Drivers/STM32N6xx_HAL_Driver/Src/stm32n6xx_hal_i2c.c ****   }
 960:STM32Cube_FW_N6/Drivers/STM32N6xx_HAL_Driver/Src/stm32n6xx_hal_i2c.c ****   else
 961:STM32Cube_FW_N6/Drivers/STM32N6xx_HAL_Driver/Src/stm32n6xx_hal_i2c.c ****   {
 962:STM32Cube_FW_N6/Drivers/STM32N6xx_HAL_Driver/Src/stm32n6xx_hal_i2c.c ****     /* Update the error code */
 963:STM32Cube_FW_N6/Drivers/STM32N6xx_HAL_Driver/Src/stm32n6xx_hal_i2c.c ****     hi2c->ErrorCode |= HAL_I2C_ERROR_INVALID_CALLBACK;
 964:STM32Cube_FW_N6/Drivers/STM32N6xx_HAL_Driver/Src/stm32n6xx_hal_i2c.c **** 
 965:STM32Cube_FW_N6/Drivers/STM32N6xx_HAL_Driver/Src/stm32n6xx_hal_i2c.c ****     /* Return error status */
 966:STM32Cube_FW_N6/Drivers/STM32N6xx_HAL_Driver/Src/stm32n6xx_hal_i2c.c ****     status =  HAL_ERROR;
 967:STM32Cube_FW_N6/Drivers/STM32N6xx_HAL_Driver/Src/stm32n6xx_hal_i2c.c ****   }
 968:STM32Cube_FW_N6/Drivers/STM32N6xx_HAL_Driver/Src/stm32n6xx_hal_i2c.c **** 
 969:STM32Cube_FW_N6/Drivers/STM32N6xx_HAL_Driver/Src/stm32n6xx_hal_i2c.c ****   return status;
 970:STM32Cube_FW_N6/Drivers/STM32N6xx_HAL_Driver/Src/stm32n6xx_hal_i2c.c **** }
 971:STM32Cube_FW_N6/Drivers/STM32N6xx_HAL_Driver/Src/stm32n6xx_hal_i2c.c **** 
 972:STM32Cube_FW_N6/Drivers/STM32N6xx_HAL_Driver/Src/stm32n6xx_hal_i2c.c **** /**
 973:STM32Cube_FW_N6/Drivers/STM32N6xx_HAL_Driver/Src/stm32n6xx_hal_i2c.c ****   * @brief  Register the Slave Address Match I2C Callback
 974:STM32Cube_FW_N6/Drivers/STM32N6xx_HAL_Driver/Src/stm32n6xx_hal_i2c.c ****   *         To be used instead of the weak HAL_I2C_AddrCallback() predefined callback
 975:STM32Cube_FW_N6/Drivers/STM32N6xx_HAL_Driver/Src/stm32n6xx_hal_i2c.c ****   * @param  hi2c Pointer to a I2C_HandleTypeDef structure that contains
 976:STM32Cube_FW_N6/Drivers/STM32N6xx_HAL_Driver/Src/stm32n6xx_hal_i2c.c ****   *                the configuration information for the specified I2C.
 977:STM32Cube_FW_N6/Drivers/STM32N6xx_HAL_Driver/Src/stm32n6xx_hal_i2c.c ****   * @param  pCallback pointer to the Address Match Callback function
 978:STM32Cube_FW_N6/Drivers/STM32N6xx_HAL_Driver/Src/stm32n6xx_hal_i2c.c ****   * @retval HAL status
 979:STM32Cube_FW_N6/Drivers/STM32N6xx_HAL_Driver/Src/stm32n6xx_hal_i2c.c ****   */
 980:STM32Cube_FW_N6/Drivers/STM32N6xx_HAL_Driver/Src/stm32n6xx_hal_i2c.c **** HAL_StatusTypeDef HAL_I2C_RegisterAddrCallback(I2C_HandleTypeDef *hi2c, pI2C_AddrCallbackTypeDef pC
 981:STM32Cube_FW_N6/Drivers/STM32N6xx_HAL_Driver/Src/stm32n6xx_hal_i2c.c **** {
ARM GAS  /tmp/ccrxElPM.s 			page 30


 982:STM32Cube_FW_N6/Drivers/STM32N6xx_HAL_Driver/Src/stm32n6xx_hal_i2c.c ****   HAL_StatusTypeDef status = HAL_OK;
 983:STM32Cube_FW_N6/Drivers/STM32N6xx_HAL_Driver/Src/stm32n6xx_hal_i2c.c **** 
 984:STM32Cube_FW_N6/Drivers/STM32N6xx_HAL_Driver/Src/stm32n6xx_hal_i2c.c ****   if (pCallback == NULL)
 985:STM32Cube_FW_N6/Drivers/STM32N6xx_HAL_Driver/Src/stm32n6xx_hal_i2c.c ****   {
 986:STM32Cube_FW_N6/Drivers/STM32N6xx_HAL_Driver/Src/stm32n6xx_hal_i2c.c ****     /* Update the error code */
 987:STM32Cube_FW_N6/Drivers/STM32N6xx_HAL_Driver/Src/stm32n6xx_hal_i2c.c ****     hi2c->ErrorCode |= HAL_I2C_ERROR_INVALID_CALLBACK;
 988:STM32Cube_FW_N6/Drivers/STM32N6xx_HAL_Driver/Src/stm32n6xx_hal_i2c.c **** 
 989:STM32Cube_FW_N6/Drivers/STM32N6xx_HAL_Driver/Src/stm32n6xx_hal_i2c.c ****     return HAL_ERROR;
 990:STM32Cube_FW_N6/Drivers/STM32N6xx_HAL_Driver/Src/stm32n6xx_hal_i2c.c ****   }
 991:STM32Cube_FW_N6/Drivers/STM32N6xx_HAL_Driver/Src/stm32n6xx_hal_i2c.c **** 
 992:STM32Cube_FW_N6/Drivers/STM32N6xx_HAL_Driver/Src/stm32n6xx_hal_i2c.c ****   if (HAL_I2C_STATE_READY == hi2c->State)
 993:STM32Cube_FW_N6/Drivers/STM32N6xx_HAL_Driver/Src/stm32n6xx_hal_i2c.c ****   {
 994:STM32Cube_FW_N6/Drivers/STM32N6xx_HAL_Driver/Src/stm32n6xx_hal_i2c.c ****     hi2c->AddrCallback = pCallback;
 995:STM32Cube_FW_N6/Drivers/STM32N6xx_HAL_Driver/Src/stm32n6xx_hal_i2c.c ****   }
 996:STM32Cube_FW_N6/Drivers/STM32N6xx_HAL_Driver/Src/stm32n6xx_hal_i2c.c ****   else
 997:STM32Cube_FW_N6/Drivers/STM32N6xx_HAL_Driver/Src/stm32n6xx_hal_i2c.c ****   {
 998:STM32Cube_FW_N6/Drivers/STM32N6xx_HAL_Driver/Src/stm32n6xx_hal_i2c.c ****     /* Update the error code */
 999:STM32Cube_FW_N6/Drivers/STM32N6xx_HAL_Driver/Src/stm32n6xx_hal_i2c.c ****     hi2c->ErrorCode |= HAL_I2C_ERROR_INVALID_CALLBACK;
1000:STM32Cube_FW_N6/Drivers/STM32N6xx_HAL_Driver/Src/stm32n6xx_hal_i2c.c **** 
1001:STM32Cube_FW_N6/Drivers/STM32N6xx_HAL_Driver/Src/stm32n6xx_hal_i2c.c ****     /* Return error status */
1002:STM32Cube_FW_N6/Drivers/STM32N6xx_HAL_Driver/Src/stm32n6xx_hal_i2c.c ****     status =  HAL_ERROR;
1003:STM32Cube_FW_N6/Drivers/STM32N6xx_HAL_Driver/Src/stm32n6xx_hal_i2c.c ****   }
1004:STM32Cube_FW_N6/Drivers/STM32N6xx_HAL_Driver/Src/stm32n6xx_hal_i2c.c **** 
1005:STM32Cube_FW_N6/Drivers/STM32N6xx_HAL_Driver/Src/stm32n6xx_hal_i2c.c ****   return status;
1006:STM32Cube_FW_N6/Drivers/STM32N6xx_HAL_Driver/Src/stm32n6xx_hal_i2c.c **** }
1007:STM32Cube_FW_N6/Drivers/STM32N6xx_HAL_Driver/Src/stm32n6xx_hal_i2c.c **** 
1008:STM32Cube_FW_N6/Drivers/STM32N6xx_HAL_Driver/Src/stm32n6xx_hal_i2c.c **** /**
1009:STM32Cube_FW_N6/Drivers/STM32N6xx_HAL_Driver/Src/stm32n6xx_hal_i2c.c ****   * @brief  UnRegister the Slave Address Match I2C Callback
1010:STM32Cube_FW_N6/Drivers/STM32N6xx_HAL_Driver/Src/stm32n6xx_hal_i2c.c ****   *         Info Ready I2C Callback is redirected to the weak HAL_I2C_AddrCallback() predefined cal
1011:STM32Cube_FW_N6/Drivers/STM32N6xx_HAL_Driver/Src/stm32n6xx_hal_i2c.c ****   * @param  hi2c Pointer to a I2C_HandleTypeDef structure that contains
1012:STM32Cube_FW_N6/Drivers/STM32N6xx_HAL_Driver/Src/stm32n6xx_hal_i2c.c ****   *                the configuration information for the specified I2C.
1013:STM32Cube_FW_N6/Drivers/STM32N6xx_HAL_Driver/Src/stm32n6xx_hal_i2c.c ****   * @retval HAL status
1014:STM32Cube_FW_N6/Drivers/STM32N6xx_HAL_Driver/Src/stm32n6xx_hal_i2c.c ****   */
1015:STM32Cube_FW_N6/Drivers/STM32N6xx_HAL_Driver/Src/stm32n6xx_hal_i2c.c **** HAL_StatusTypeDef HAL_I2C_UnRegisterAddrCallback(I2C_HandleTypeDef *hi2c)
1016:STM32Cube_FW_N6/Drivers/STM32N6xx_HAL_Driver/Src/stm32n6xx_hal_i2c.c **** {
1017:STM32Cube_FW_N6/Drivers/STM32N6xx_HAL_Driver/Src/stm32n6xx_hal_i2c.c ****   HAL_StatusTypeDef status = HAL_OK;
1018:STM32Cube_FW_N6/Drivers/STM32N6xx_HAL_Driver/Src/stm32n6xx_hal_i2c.c **** 
1019:STM32Cube_FW_N6/Drivers/STM32N6xx_HAL_Driver/Src/stm32n6xx_hal_i2c.c ****   if (HAL_I2C_STATE_READY == hi2c->State)
1020:STM32Cube_FW_N6/Drivers/STM32N6xx_HAL_Driver/Src/stm32n6xx_hal_i2c.c ****   {
1021:STM32Cube_FW_N6/Drivers/STM32N6xx_HAL_Driver/Src/stm32n6xx_hal_i2c.c ****     hi2c->AddrCallback = HAL_I2C_AddrCallback; /* Legacy weak AddrCallback  */
1022:STM32Cube_FW_N6/Drivers/STM32N6xx_HAL_Driver/Src/stm32n6xx_hal_i2c.c ****   }
1023:STM32Cube_FW_N6/Drivers/STM32N6xx_HAL_Driver/Src/stm32n6xx_hal_i2c.c ****   else
1024:STM32Cube_FW_N6/Drivers/STM32N6xx_HAL_Driver/Src/stm32n6xx_hal_i2c.c ****   {
1025:STM32Cube_FW_N6/Drivers/STM32N6xx_HAL_Driver/Src/stm32n6xx_hal_i2c.c ****     /* Update the error code */
1026:STM32Cube_FW_N6/Drivers/STM32N6xx_HAL_Driver/Src/stm32n6xx_hal_i2c.c ****     hi2c->ErrorCode |= HAL_I2C_ERROR_INVALID_CALLBACK;
1027:STM32Cube_FW_N6/Drivers/STM32N6xx_HAL_Driver/Src/stm32n6xx_hal_i2c.c **** 
1028:STM32Cube_FW_N6/Drivers/STM32N6xx_HAL_Driver/Src/stm32n6xx_hal_i2c.c ****     /* Return error status */
1029:STM32Cube_FW_N6/Drivers/STM32N6xx_HAL_Driver/Src/stm32n6xx_hal_i2c.c ****     status =  HAL_ERROR;
1030:STM32Cube_FW_N6/Drivers/STM32N6xx_HAL_Driver/Src/stm32n6xx_hal_i2c.c ****   }
1031:STM32Cube_FW_N6/Drivers/STM32N6xx_HAL_Driver/Src/stm32n6xx_hal_i2c.c **** 
1032:STM32Cube_FW_N6/Drivers/STM32N6xx_HAL_Driver/Src/stm32n6xx_hal_i2c.c ****   return status;
1033:STM32Cube_FW_N6/Drivers/STM32N6xx_HAL_Driver/Src/stm32n6xx_hal_i2c.c **** }
1034:STM32Cube_FW_N6/Drivers/STM32N6xx_HAL_Driver/Src/stm32n6xx_hal_i2c.c **** 
1035:STM32Cube_FW_N6/Drivers/STM32N6xx_HAL_Driver/Src/stm32n6xx_hal_i2c.c **** #endif /* USE_HAL_I2C_REGISTER_CALLBACKS */
1036:STM32Cube_FW_N6/Drivers/STM32N6xx_HAL_Driver/Src/stm32n6xx_hal_i2c.c **** 
1037:STM32Cube_FW_N6/Drivers/STM32N6xx_HAL_Driver/Src/stm32n6xx_hal_i2c.c **** /**
1038:STM32Cube_FW_N6/Drivers/STM32N6xx_HAL_Driver/Src/stm32n6xx_hal_i2c.c ****   * @}
ARM GAS  /tmp/ccrxElPM.s 			page 31


1039:STM32Cube_FW_N6/Drivers/STM32N6xx_HAL_Driver/Src/stm32n6xx_hal_i2c.c ****   */
1040:STM32Cube_FW_N6/Drivers/STM32N6xx_HAL_Driver/Src/stm32n6xx_hal_i2c.c **** 
1041:STM32Cube_FW_N6/Drivers/STM32N6xx_HAL_Driver/Src/stm32n6xx_hal_i2c.c **** /** @defgroup I2C_Exported_Functions_Group2 Input and Output operation functions
1042:STM32Cube_FW_N6/Drivers/STM32N6xx_HAL_Driver/Src/stm32n6xx_hal_i2c.c ****   *  @brief   Data transfers functions
1043:STM32Cube_FW_N6/Drivers/STM32N6xx_HAL_Driver/Src/stm32n6xx_hal_i2c.c ****   *
1044:STM32Cube_FW_N6/Drivers/STM32N6xx_HAL_Driver/Src/stm32n6xx_hal_i2c.c **** @verbatim
1045:STM32Cube_FW_N6/Drivers/STM32N6xx_HAL_Driver/Src/stm32n6xx_hal_i2c.c ****  ===============================================================================
1046:STM32Cube_FW_N6/Drivers/STM32N6xx_HAL_Driver/Src/stm32n6xx_hal_i2c.c ****                       ##### IO operation functions #####
1047:STM32Cube_FW_N6/Drivers/STM32N6xx_HAL_Driver/Src/stm32n6xx_hal_i2c.c ****  ===============================================================================
1048:STM32Cube_FW_N6/Drivers/STM32N6xx_HAL_Driver/Src/stm32n6xx_hal_i2c.c ****     [..]
1049:STM32Cube_FW_N6/Drivers/STM32N6xx_HAL_Driver/Src/stm32n6xx_hal_i2c.c ****     This subsection provides a set of functions allowing to manage the I2C data
1050:STM32Cube_FW_N6/Drivers/STM32N6xx_HAL_Driver/Src/stm32n6xx_hal_i2c.c ****     transfers.
1051:STM32Cube_FW_N6/Drivers/STM32N6xx_HAL_Driver/Src/stm32n6xx_hal_i2c.c **** 
1052:STM32Cube_FW_N6/Drivers/STM32N6xx_HAL_Driver/Src/stm32n6xx_hal_i2c.c ****     (#) There are two modes of transfer:
1053:STM32Cube_FW_N6/Drivers/STM32N6xx_HAL_Driver/Src/stm32n6xx_hal_i2c.c ****        (++) Blocking mode : The communication is performed in the polling mode.
1054:STM32Cube_FW_N6/Drivers/STM32N6xx_HAL_Driver/Src/stm32n6xx_hal_i2c.c ****             The status of all data processing is returned by the same function
1055:STM32Cube_FW_N6/Drivers/STM32N6xx_HAL_Driver/Src/stm32n6xx_hal_i2c.c ****             after finishing transfer.
1056:STM32Cube_FW_N6/Drivers/STM32N6xx_HAL_Driver/Src/stm32n6xx_hal_i2c.c ****        (++) No-Blocking mode : The communication is performed using Interrupts
1057:STM32Cube_FW_N6/Drivers/STM32N6xx_HAL_Driver/Src/stm32n6xx_hal_i2c.c ****             or DMA. These functions return the status of the transfer startup.
1058:STM32Cube_FW_N6/Drivers/STM32N6xx_HAL_Driver/Src/stm32n6xx_hal_i2c.c ****             The end of the data processing will be indicated through the
1059:STM32Cube_FW_N6/Drivers/STM32N6xx_HAL_Driver/Src/stm32n6xx_hal_i2c.c ****             dedicated I2C IRQ when using Interrupt mode or the DMA IRQ when
1060:STM32Cube_FW_N6/Drivers/STM32N6xx_HAL_Driver/Src/stm32n6xx_hal_i2c.c ****             using DMA mode.
1061:STM32Cube_FW_N6/Drivers/STM32N6xx_HAL_Driver/Src/stm32n6xx_hal_i2c.c **** 
1062:STM32Cube_FW_N6/Drivers/STM32N6xx_HAL_Driver/Src/stm32n6xx_hal_i2c.c ****     (#) Blocking mode functions are :
1063:STM32Cube_FW_N6/Drivers/STM32N6xx_HAL_Driver/Src/stm32n6xx_hal_i2c.c ****         (++) HAL_I2C_Master_Transmit()
1064:STM32Cube_FW_N6/Drivers/STM32N6xx_HAL_Driver/Src/stm32n6xx_hal_i2c.c ****         (++) HAL_I2C_Master_Receive()
1065:STM32Cube_FW_N6/Drivers/STM32N6xx_HAL_Driver/Src/stm32n6xx_hal_i2c.c ****         (++) HAL_I2C_Slave_Transmit()
1066:STM32Cube_FW_N6/Drivers/STM32N6xx_HAL_Driver/Src/stm32n6xx_hal_i2c.c ****         (++) HAL_I2C_Slave_Receive()
1067:STM32Cube_FW_N6/Drivers/STM32N6xx_HAL_Driver/Src/stm32n6xx_hal_i2c.c ****         (++) HAL_I2C_Mem_Write()
1068:STM32Cube_FW_N6/Drivers/STM32N6xx_HAL_Driver/Src/stm32n6xx_hal_i2c.c ****         (++) HAL_I2C_Mem_Read()
1069:STM32Cube_FW_N6/Drivers/STM32N6xx_HAL_Driver/Src/stm32n6xx_hal_i2c.c ****         (++) HAL_I2C_IsDeviceReady()
1070:STM32Cube_FW_N6/Drivers/STM32N6xx_HAL_Driver/Src/stm32n6xx_hal_i2c.c **** 
1071:STM32Cube_FW_N6/Drivers/STM32N6xx_HAL_Driver/Src/stm32n6xx_hal_i2c.c ****     (#) No-Blocking mode functions with Interrupt are :
1072:STM32Cube_FW_N6/Drivers/STM32N6xx_HAL_Driver/Src/stm32n6xx_hal_i2c.c ****         (++) HAL_I2C_Master_Transmit_IT()
1073:STM32Cube_FW_N6/Drivers/STM32N6xx_HAL_Driver/Src/stm32n6xx_hal_i2c.c ****         (++) HAL_I2C_Master_Receive_IT()
1074:STM32Cube_FW_N6/Drivers/STM32N6xx_HAL_Driver/Src/stm32n6xx_hal_i2c.c ****         (++) HAL_I2C_Slave_Transmit_IT()
1075:STM32Cube_FW_N6/Drivers/STM32N6xx_HAL_Driver/Src/stm32n6xx_hal_i2c.c ****         (++) HAL_I2C_Slave_Receive_IT()
1076:STM32Cube_FW_N6/Drivers/STM32N6xx_HAL_Driver/Src/stm32n6xx_hal_i2c.c ****         (++) HAL_I2C_Mem_Write_IT()
1077:STM32Cube_FW_N6/Drivers/STM32N6xx_HAL_Driver/Src/stm32n6xx_hal_i2c.c ****         (++) HAL_I2C_Mem_Read_IT()
1078:STM32Cube_FW_N6/Drivers/STM32N6xx_HAL_Driver/Src/stm32n6xx_hal_i2c.c ****         (++) HAL_I2C_Master_Seq_Transmit_IT()
1079:STM32Cube_FW_N6/Drivers/STM32N6xx_HAL_Driver/Src/stm32n6xx_hal_i2c.c ****         (++) HAL_I2C_Master_Seq_Receive_IT()
1080:STM32Cube_FW_N6/Drivers/STM32N6xx_HAL_Driver/Src/stm32n6xx_hal_i2c.c ****         (++) HAL_I2C_Slave_Seq_Transmit_IT()
1081:STM32Cube_FW_N6/Drivers/STM32N6xx_HAL_Driver/Src/stm32n6xx_hal_i2c.c ****         (++) HAL_I2C_Slave_Seq_Receive_IT()
1082:STM32Cube_FW_N6/Drivers/STM32N6xx_HAL_Driver/Src/stm32n6xx_hal_i2c.c ****         (++) HAL_I2C_EnableListen_IT()
1083:STM32Cube_FW_N6/Drivers/STM32N6xx_HAL_Driver/Src/stm32n6xx_hal_i2c.c ****         (++) HAL_I2C_DisableListen_IT()
1084:STM32Cube_FW_N6/Drivers/STM32N6xx_HAL_Driver/Src/stm32n6xx_hal_i2c.c ****         (++) HAL_I2C_Master_Abort_IT()
1085:STM32Cube_FW_N6/Drivers/STM32N6xx_HAL_Driver/Src/stm32n6xx_hal_i2c.c **** 
1086:STM32Cube_FW_N6/Drivers/STM32N6xx_HAL_Driver/Src/stm32n6xx_hal_i2c.c ****     (#) No-Blocking mode functions with DMA are :
1087:STM32Cube_FW_N6/Drivers/STM32N6xx_HAL_Driver/Src/stm32n6xx_hal_i2c.c ****         (++) HAL_I2C_Master_Transmit_DMA()
1088:STM32Cube_FW_N6/Drivers/STM32N6xx_HAL_Driver/Src/stm32n6xx_hal_i2c.c ****         (++) HAL_I2C_Master_Receive_DMA()
1089:STM32Cube_FW_N6/Drivers/STM32N6xx_HAL_Driver/Src/stm32n6xx_hal_i2c.c ****         (++) HAL_I2C_Slave_Transmit_DMA()
1090:STM32Cube_FW_N6/Drivers/STM32N6xx_HAL_Driver/Src/stm32n6xx_hal_i2c.c ****         (++) HAL_I2C_Slave_Receive_DMA()
1091:STM32Cube_FW_N6/Drivers/STM32N6xx_HAL_Driver/Src/stm32n6xx_hal_i2c.c ****         (++) HAL_I2C_Mem_Write_DMA()
1092:STM32Cube_FW_N6/Drivers/STM32N6xx_HAL_Driver/Src/stm32n6xx_hal_i2c.c ****         (++) HAL_I2C_Mem_Read_DMA()
1093:STM32Cube_FW_N6/Drivers/STM32N6xx_HAL_Driver/Src/stm32n6xx_hal_i2c.c ****         (++) HAL_I2C_Master_Seq_Transmit_DMA()
1094:STM32Cube_FW_N6/Drivers/STM32N6xx_HAL_Driver/Src/stm32n6xx_hal_i2c.c ****         (++) HAL_I2C_Master_Seq_Receive_DMA()
1095:STM32Cube_FW_N6/Drivers/STM32N6xx_HAL_Driver/Src/stm32n6xx_hal_i2c.c ****         (++) HAL_I2C_Slave_Seq_Transmit_DMA()
ARM GAS  /tmp/ccrxElPM.s 			page 32


1096:STM32Cube_FW_N6/Drivers/STM32N6xx_HAL_Driver/Src/stm32n6xx_hal_i2c.c ****         (++) HAL_I2C_Slave_Seq_Receive_DMA()
1097:STM32Cube_FW_N6/Drivers/STM32N6xx_HAL_Driver/Src/stm32n6xx_hal_i2c.c **** 
1098:STM32Cube_FW_N6/Drivers/STM32N6xx_HAL_Driver/Src/stm32n6xx_hal_i2c.c ****     (#) A set of Transfer Complete Callbacks are provided in non Blocking mode:
1099:STM32Cube_FW_N6/Drivers/STM32N6xx_HAL_Driver/Src/stm32n6xx_hal_i2c.c ****         (++) HAL_I2C_MasterTxCpltCallback()
1100:STM32Cube_FW_N6/Drivers/STM32N6xx_HAL_Driver/Src/stm32n6xx_hal_i2c.c ****         (++) HAL_I2C_MasterRxCpltCallback()
1101:STM32Cube_FW_N6/Drivers/STM32N6xx_HAL_Driver/Src/stm32n6xx_hal_i2c.c ****         (++) HAL_I2C_SlaveTxCpltCallback()
1102:STM32Cube_FW_N6/Drivers/STM32N6xx_HAL_Driver/Src/stm32n6xx_hal_i2c.c ****         (++) HAL_I2C_SlaveRxCpltCallback()
1103:STM32Cube_FW_N6/Drivers/STM32N6xx_HAL_Driver/Src/stm32n6xx_hal_i2c.c ****         (++) HAL_I2C_MemTxCpltCallback()
1104:STM32Cube_FW_N6/Drivers/STM32N6xx_HAL_Driver/Src/stm32n6xx_hal_i2c.c ****         (++) HAL_I2C_MemRxCpltCallback()
1105:STM32Cube_FW_N6/Drivers/STM32N6xx_HAL_Driver/Src/stm32n6xx_hal_i2c.c ****         (++) HAL_I2C_AddrCallback()
1106:STM32Cube_FW_N6/Drivers/STM32N6xx_HAL_Driver/Src/stm32n6xx_hal_i2c.c ****         (++) HAL_I2C_ListenCpltCallback()
1107:STM32Cube_FW_N6/Drivers/STM32N6xx_HAL_Driver/Src/stm32n6xx_hal_i2c.c ****         (++) HAL_I2C_ErrorCallback()
1108:STM32Cube_FW_N6/Drivers/STM32N6xx_HAL_Driver/Src/stm32n6xx_hal_i2c.c ****         (++) HAL_I2C_AbortCpltCallback()
1109:STM32Cube_FW_N6/Drivers/STM32N6xx_HAL_Driver/Src/stm32n6xx_hal_i2c.c **** 
1110:STM32Cube_FW_N6/Drivers/STM32N6xx_HAL_Driver/Src/stm32n6xx_hal_i2c.c **** @endverbatim
1111:STM32Cube_FW_N6/Drivers/STM32N6xx_HAL_Driver/Src/stm32n6xx_hal_i2c.c ****   * @{
1112:STM32Cube_FW_N6/Drivers/STM32N6xx_HAL_Driver/Src/stm32n6xx_hal_i2c.c ****   */
1113:STM32Cube_FW_N6/Drivers/STM32N6xx_HAL_Driver/Src/stm32n6xx_hal_i2c.c **** 
1114:STM32Cube_FW_N6/Drivers/STM32N6xx_HAL_Driver/Src/stm32n6xx_hal_i2c.c **** /**
1115:STM32Cube_FW_N6/Drivers/STM32N6xx_HAL_Driver/Src/stm32n6xx_hal_i2c.c ****   * @brief  Transmits in master mode an amount of data in blocking mode.
1116:STM32Cube_FW_N6/Drivers/STM32N6xx_HAL_Driver/Src/stm32n6xx_hal_i2c.c ****   * @param  hi2c Pointer to a I2C_HandleTypeDef structure that contains
1117:STM32Cube_FW_N6/Drivers/STM32N6xx_HAL_Driver/Src/stm32n6xx_hal_i2c.c ****   *                the configuration information for the specified I2C.
1118:STM32Cube_FW_N6/Drivers/STM32N6xx_HAL_Driver/Src/stm32n6xx_hal_i2c.c ****   * @param  DevAddress Target device address: The device 7 bits address value
1119:STM32Cube_FW_N6/Drivers/STM32N6xx_HAL_Driver/Src/stm32n6xx_hal_i2c.c ****   *         in datasheet must be shifted to the left before calling the interface
1120:STM32Cube_FW_N6/Drivers/STM32N6xx_HAL_Driver/Src/stm32n6xx_hal_i2c.c ****   * @param  pData Pointer to data buffer
1121:STM32Cube_FW_N6/Drivers/STM32N6xx_HAL_Driver/Src/stm32n6xx_hal_i2c.c ****   * @param  Size Amount of data to be sent
1122:STM32Cube_FW_N6/Drivers/STM32N6xx_HAL_Driver/Src/stm32n6xx_hal_i2c.c ****   * @param  Timeout Timeout duration
1123:STM32Cube_FW_N6/Drivers/STM32N6xx_HAL_Driver/Src/stm32n6xx_hal_i2c.c ****   * @retval HAL status
1124:STM32Cube_FW_N6/Drivers/STM32N6xx_HAL_Driver/Src/stm32n6xx_hal_i2c.c ****   */
1125:STM32Cube_FW_N6/Drivers/STM32N6xx_HAL_Driver/Src/stm32n6xx_hal_i2c.c **** HAL_StatusTypeDef HAL_I2C_Master_Transmit(I2C_HandleTypeDef *hi2c, uint16_t DevAddress, uint8_t *pD
1126:STM32Cube_FW_N6/Drivers/STM32N6xx_HAL_Driver/Src/stm32n6xx_hal_i2c.c ****                                           uint16_t Size, uint32_t Timeout)
1127:STM32Cube_FW_N6/Drivers/STM32N6xx_HAL_Driver/Src/stm32n6xx_hal_i2c.c **** {
 671              		.loc 1 1127 1
 672              		.cfi_startproc
 673              		@ args = 4, pretend = 0, frame = 24
 674              		@ frame_needed = 1, uses_anonymous_args = 0
 675 0000 80B5     		push	{r7, lr}
 676              		.cfi_def_cfa_offset 8
 677              		.cfi_offset 7, -8
 678              		.cfi_offset 14, -4
 679 0002 88B0     		sub	sp, sp, #32
 680              		.cfi_def_cfa_offset 40
 681 0004 02AF     		add	r7, sp, #8
 682              		.cfi_def_cfa 7, 32
 683 0006 F860     		str	r0, [r7, #12]
 684 0008 7A60     		str	r2, [r7, #4]
 685 000a 1A46     		mov	r2, r3
 686 000c 0B46     		mov	r3, r1	@ movhi
 687 000e 7B81     		strh	r3, [r7, #10]	@ movhi
 688 0010 1346     		mov	r3, r2	@ movhi
 689 0012 3B81     		strh	r3, [r7, #8]	@ movhi
1128:STM32Cube_FW_N6/Drivers/STM32N6xx_HAL_Driver/Src/stm32n6xx_hal_i2c.c ****   uint32_t tickstart;
1129:STM32Cube_FW_N6/Drivers/STM32N6xx_HAL_Driver/Src/stm32n6xx_hal_i2c.c **** 
1130:STM32Cube_FW_N6/Drivers/STM32N6xx_HAL_Driver/Src/stm32n6xx_hal_i2c.c ****   if (hi2c->State == HAL_I2C_STATE_READY)
 690              		.loc 1 1130 11
 691 0014 FB68     		ldr	r3, [r7, #12]
 692 0016 93F84130 		ldrb	r3, [r3, #65]
ARM GAS  /tmp/ccrxElPM.s 			page 33


 693 001a DBB2     		uxtb	r3, r3
 694              		.loc 1 1130 6
 695 001c 202B     		cmp	r3, #32
 696 001e 40F0DA80 		bne	.L28
1131:STM32Cube_FW_N6/Drivers/STM32N6xx_HAL_Driver/Src/stm32n6xx_hal_i2c.c ****   {
1132:STM32Cube_FW_N6/Drivers/STM32N6xx_HAL_Driver/Src/stm32n6xx_hal_i2c.c ****     /* Process Locked */
1133:STM32Cube_FW_N6/Drivers/STM32N6xx_HAL_Driver/Src/stm32n6xx_hal_i2c.c ****     __HAL_LOCK(hi2c);
 697              		.loc 1 1133 5
 698 0022 FB68     		ldr	r3, [r7, #12]
 699 0024 93F84030 		ldrb	r3, [r3, #64]	@ zero_extendqisi2
 700 0028 012B     		cmp	r3, #1
 701 002a 01D1     		bne	.L29
 702              		.loc 1 1133 5 is_stmt 0 discriminator 1
 703 002c 0223     		movs	r3, #2
 704              		.loc 1 1133 5
 705 002e D3E0     		b	.L30
 706              	.L29:
 707              		.loc 1 1133 5 discriminator 2
 708 0030 FB68     		ldr	r3, [r7, #12]
 709 0032 0122     		movs	r2, #1
 710 0034 83F84020 		strb	r2, [r3, #64]
1134:STM32Cube_FW_N6/Drivers/STM32N6xx_HAL_Driver/Src/stm32n6xx_hal_i2c.c **** 
1135:STM32Cube_FW_N6/Drivers/STM32N6xx_HAL_Driver/Src/stm32n6xx_hal_i2c.c ****     /* Init tickstart for timeout management*/
1136:STM32Cube_FW_N6/Drivers/STM32N6xx_HAL_Driver/Src/stm32n6xx_hal_i2c.c ****     tickstart = HAL_GetTick();
 711              		.loc 1 1136 17 is_stmt 1
 712 0038 FFF7FEFF 		bl	HAL_GetTick
 713 003c 7861     		str	r0, [r7, #20]
1137:STM32Cube_FW_N6/Drivers/STM32N6xx_HAL_Driver/Src/stm32n6xx_hal_i2c.c **** 
1138:STM32Cube_FW_N6/Drivers/STM32N6xx_HAL_Driver/Src/stm32n6xx_hal_i2c.c ****     if (I2C_WaitOnFlagUntilTimeout(hi2c, I2C_FLAG_BUSY, SET, I2C_TIMEOUT_BUSY, tickstart) != HAL_OK
 714              		.loc 1 1138 9
 715 003e 7B69     		ldr	r3, [r7, #20]
 716 0040 0093     		str	r3, [sp]
 717 0042 1923     		movs	r3, #25
 718 0044 0122     		movs	r2, #1
 719 0046 4FF40041 		mov	r1, #32768
 720 004a F868     		ldr	r0, [r7, #12]
 721 004c FFF7FEFF 		bl	I2C_WaitOnFlagUntilTimeout
 722 0050 0346     		mov	r3, r0
 723              		.loc 1 1138 8 discriminator 1
 724 0052 002B     		cmp	r3, #0
 725 0054 01D0     		beq	.L31
1139:STM32Cube_FW_N6/Drivers/STM32N6xx_HAL_Driver/Src/stm32n6xx_hal_i2c.c ****     {
1140:STM32Cube_FW_N6/Drivers/STM32N6xx_HAL_Driver/Src/stm32n6xx_hal_i2c.c ****       return HAL_ERROR;
 726              		.loc 1 1140 14
 727 0056 0123     		movs	r3, #1
 728 0058 BEE0     		b	.L30
 729              	.L31:
1141:STM32Cube_FW_N6/Drivers/STM32N6xx_HAL_Driver/Src/stm32n6xx_hal_i2c.c ****     }
1142:STM32Cube_FW_N6/Drivers/STM32N6xx_HAL_Driver/Src/stm32n6xx_hal_i2c.c **** 
1143:STM32Cube_FW_N6/Drivers/STM32N6xx_HAL_Driver/Src/stm32n6xx_hal_i2c.c ****     hi2c->State     = HAL_I2C_STATE_BUSY_TX;
 730              		.loc 1 1143 21
 731 005a FB68     		ldr	r3, [r7, #12]
 732 005c 2122     		movs	r2, #33
 733 005e 83F84120 		strb	r2, [r3, #65]
1144:STM32Cube_FW_N6/Drivers/STM32N6xx_HAL_Driver/Src/stm32n6xx_hal_i2c.c ****     hi2c->Mode      = HAL_I2C_MODE_MASTER;
 734              		.loc 1 1144 21
 735 0062 FB68     		ldr	r3, [r7, #12]
ARM GAS  /tmp/ccrxElPM.s 			page 34


 736 0064 1022     		movs	r2, #16
 737 0066 83F84220 		strb	r2, [r3, #66]
1145:STM32Cube_FW_N6/Drivers/STM32N6xx_HAL_Driver/Src/stm32n6xx_hal_i2c.c ****     hi2c->ErrorCode = HAL_I2C_ERROR_NONE;
 738              		.loc 1 1145 21
 739 006a FB68     		ldr	r3, [r7, #12]
 740 006c 0022     		movs	r2, #0
 741 006e 5A64     		str	r2, [r3, #68]
1146:STM32Cube_FW_N6/Drivers/STM32N6xx_HAL_Driver/Src/stm32n6xx_hal_i2c.c **** 
1147:STM32Cube_FW_N6/Drivers/STM32N6xx_HAL_Driver/Src/stm32n6xx_hal_i2c.c ****     /* Prepare transfer parameters */
1148:STM32Cube_FW_N6/Drivers/STM32N6xx_HAL_Driver/Src/stm32n6xx_hal_i2c.c ****     hi2c->pBuffPtr  = pData;
 742              		.loc 1 1148 21
 743 0070 FB68     		ldr	r3, [r7, #12]
 744 0072 7A68     		ldr	r2, [r7, #4]
 745 0074 5A62     		str	r2, [r3, #36]
1149:STM32Cube_FW_N6/Drivers/STM32N6xx_HAL_Driver/Src/stm32n6xx_hal_i2c.c ****     hi2c->XferCount = Size;
 746              		.loc 1 1149 21
 747 0076 FB68     		ldr	r3, [r7, #12]
 748 0078 3A89     		ldrh	r2, [r7, #8]	@ movhi
 749 007a 5A85     		strh	r2, [r3, #42]	@ movhi
1150:STM32Cube_FW_N6/Drivers/STM32N6xx_HAL_Driver/Src/stm32n6xx_hal_i2c.c ****     hi2c->XferISR   = NULL;
 750              		.loc 1 1150 21
 751 007c FB68     		ldr	r3, [r7, #12]
 752 007e 0022     		movs	r2, #0
 753 0080 5A63     		str	r2, [r3, #52]
1151:STM32Cube_FW_N6/Drivers/STM32N6xx_HAL_Driver/Src/stm32n6xx_hal_i2c.c **** 
1152:STM32Cube_FW_N6/Drivers/STM32N6xx_HAL_Driver/Src/stm32n6xx_hal_i2c.c ****     /* Send Slave Address */
1153:STM32Cube_FW_N6/Drivers/STM32N6xx_HAL_Driver/Src/stm32n6xx_hal_i2c.c ****     /* Set NBYTES to write and reload if hi2c->XferCount > MAX_NBYTE_SIZE and generate RESTART */
1154:STM32Cube_FW_N6/Drivers/STM32N6xx_HAL_Driver/Src/stm32n6xx_hal_i2c.c ****     if (hi2c->XferCount > MAX_NBYTE_SIZE)
 754              		.loc 1 1154 13
 755 0082 FB68     		ldr	r3, [r7, #12]
 756 0084 5B8D     		ldrh	r3, [r3, #42]	@ movhi
 757 0086 9BB2     		uxth	r3, r3
 758              		.loc 1 1154 8
 759 0088 FF2B     		cmp	r3, #255
 760 008a 0ED9     		bls	.L32
1155:STM32Cube_FW_N6/Drivers/STM32N6xx_HAL_Driver/Src/stm32n6xx_hal_i2c.c ****     {
1156:STM32Cube_FW_N6/Drivers/STM32N6xx_HAL_Driver/Src/stm32n6xx_hal_i2c.c ****       hi2c->XferSize = MAX_NBYTE_SIZE;
 761              		.loc 1 1156 22
 762 008c FB68     		ldr	r3, [r7, #12]
 763 008e FF22     		movs	r2, #255
 764 0090 1A85     		strh	r2, [r3, #40]	@ movhi
1157:STM32Cube_FW_N6/Drivers/STM32N6xx_HAL_Driver/Src/stm32n6xx_hal_i2c.c ****       I2C_TransferConfig(hi2c, DevAddress, (uint8_t)hi2c->XferSize, I2C_RELOAD_MODE,
 765              		.loc 1 1157 57
 766 0092 FB68     		ldr	r3, [r7, #12]
 767 0094 1B8D     		ldrh	r3, [r3, #40]
 768              		.loc 1 1157 7
 769 0096 DAB2     		uxtb	r2, r3
 770 0098 7989     		ldrh	r1, [r7, #10]
 771 009a 514B     		ldr	r3, .L41
 772 009c 0093     		str	r3, [sp]
 773 009e 4FF08073 		mov	r3, #16777216
 774 00a2 F868     		ldr	r0, [r7, #12]
 775 00a4 FFF7FEFF 		bl	I2C_TransferConfig
 776 00a8 6CE0     		b	.L34
 777              	.L32:
1158:STM32Cube_FW_N6/Drivers/STM32N6xx_HAL_Driver/Src/stm32n6xx_hal_i2c.c ****                          I2C_GENERATE_START_WRITE);
1159:STM32Cube_FW_N6/Drivers/STM32N6xx_HAL_Driver/Src/stm32n6xx_hal_i2c.c ****     }
ARM GAS  /tmp/ccrxElPM.s 			page 35


1160:STM32Cube_FW_N6/Drivers/STM32N6xx_HAL_Driver/Src/stm32n6xx_hal_i2c.c ****     else
1161:STM32Cube_FW_N6/Drivers/STM32N6xx_HAL_Driver/Src/stm32n6xx_hal_i2c.c ****     {
1162:STM32Cube_FW_N6/Drivers/STM32N6xx_HAL_Driver/Src/stm32n6xx_hal_i2c.c ****       hi2c->XferSize = hi2c->XferCount;
 778              		.loc 1 1162 28
 779 00aa FB68     		ldr	r3, [r7, #12]
 780 00ac 5B8D     		ldrh	r3, [r3, #42]	@ movhi
 781 00ae 9AB2     		uxth	r2, r3
 782              		.loc 1 1162 22
 783 00b0 FB68     		ldr	r3, [r7, #12]
 784 00b2 1A85     		strh	r2, [r3, #40]	@ movhi
1163:STM32Cube_FW_N6/Drivers/STM32N6xx_HAL_Driver/Src/stm32n6xx_hal_i2c.c ****       I2C_TransferConfig(hi2c, DevAddress, (uint8_t)hi2c->XferSize, I2C_AUTOEND_MODE,
 785              		.loc 1 1163 57
 786 00b4 FB68     		ldr	r3, [r7, #12]
 787 00b6 1B8D     		ldrh	r3, [r3, #40]
 788              		.loc 1 1163 7
 789 00b8 DAB2     		uxtb	r2, r3
 790 00ba 7989     		ldrh	r1, [r7, #10]
 791 00bc 484B     		ldr	r3, .L41
 792 00be 0093     		str	r3, [sp]
 793 00c0 4FF00073 		mov	r3, #33554432
 794 00c4 F868     		ldr	r0, [r7, #12]
 795 00c6 FFF7FEFF 		bl	I2C_TransferConfig
1164:STM32Cube_FW_N6/Drivers/STM32N6xx_HAL_Driver/Src/stm32n6xx_hal_i2c.c ****                          I2C_GENERATE_START_WRITE);
1165:STM32Cube_FW_N6/Drivers/STM32N6xx_HAL_Driver/Src/stm32n6xx_hal_i2c.c ****     }
1166:STM32Cube_FW_N6/Drivers/STM32N6xx_HAL_Driver/Src/stm32n6xx_hal_i2c.c **** 
1167:STM32Cube_FW_N6/Drivers/STM32N6xx_HAL_Driver/Src/stm32n6xx_hal_i2c.c ****     while (hi2c->XferCount > 0U)
 796              		.loc 1 1167 11
 797 00ca 5BE0     		b	.L34
 798              	.L39:
1168:STM32Cube_FW_N6/Drivers/STM32N6xx_HAL_Driver/Src/stm32n6xx_hal_i2c.c ****     {
1169:STM32Cube_FW_N6/Drivers/STM32N6xx_HAL_Driver/Src/stm32n6xx_hal_i2c.c ****       /* Wait until TXIS flag is set */
1170:STM32Cube_FW_N6/Drivers/STM32N6xx_HAL_Driver/Src/stm32n6xx_hal_i2c.c ****       if (I2C_WaitOnTXISFlagUntilTimeout(hi2c, Timeout, tickstart) != HAL_OK)
 799              		.loc 1 1170 11
 800 00cc 7A69     		ldr	r2, [r7, #20]
 801 00ce 396A     		ldr	r1, [r7, #32]
 802 00d0 F868     		ldr	r0, [r7, #12]
 803 00d2 FFF7FEFF 		bl	I2C_WaitOnTXISFlagUntilTimeout
 804 00d6 0346     		mov	r3, r0
 805              		.loc 1 1170 10 discriminator 1
 806 00d8 002B     		cmp	r3, #0
 807 00da 01D0     		beq	.L35
1171:STM32Cube_FW_N6/Drivers/STM32N6xx_HAL_Driver/Src/stm32n6xx_hal_i2c.c ****       {
1172:STM32Cube_FW_N6/Drivers/STM32N6xx_HAL_Driver/Src/stm32n6xx_hal_i2c.c ****         return HAL_ERROR;
 808              		.loc 1 1172 16
 809 00dc 0123     		movs	r3, #1
 810 00de 7BE0     		b	.L30
 811              	.L35:
1173:STM32Cube_FW_N6/Drivers/STM32N6xx_HAL_Driver/Src/stm32n6xx_hal_i2c.c ****       }
1174:STM32Cube_FW_N6/Drivers/STM32N6xx_HAL_Driver/Src/stm32n6xx_hal_i2c.c ****       /* Write data to TXDR */
1175:STM32Cube_FW_N6/Drivers/STM32N6xx_HAL_Driver/Src/stm32n6xx_hal_i2c.c ****       hi2c->Instance->TXDR = *hi2c->pBuffPtr;
 812              		.loc 1 1175 35
 813 00e0 FB68     		ldr	r3, [r7, #12]
 814 00e2 5B6A     		ldr	r3, [r3, #36]
 815              		.loc 1 1175 30
 816 00e4 1A78     		ldrb	r2, [r3]	@ zero_extendqisi2
 817              		.loc 1 1175 11
 818 00e6 FB68     		ldr	r3, [r7, #12]
ARM GAS  /tmp/ccrxElPM.s 			page 36


 819 00e8 1B68     		ldr	r3, [r3]
 820              		.loc 1 1175 28
 821 00ea 9A62     		str	r2, [r3, #40]
1176:STM32Cube_FW_N6/Drivers/STM32N6xx_HAL_Driver/Src/stm32n6xx_hal_i2c.c **** 
1177:STM32Cube_FW_N6/Drivers/STM32N6xx_HAL_Driver/Src/stm32n6xx_hal_i2c.c ****       /* Increment Buffer pointer */
1178:STM32Cube_FW_N6/Drivers/STM32N6xx_HAL_Driver/Src/stm32n6xx_hal_i2c.c ****       hi2c->pBuffPtr++;
 822              		.loc 1 1178 11
 823 00ec FB68     		ldr	r3, [r7, #12]
 824 00ee 5B6A     		ldr	r3, [r3, #36]
 825              		.loc 1 1178 21
 826 00f0 5A1C     		adds	r2, r3, #1
 827 00f2 FB68     		ldr	r3, [r7, #12]
 828 00f4 5A62     		str	r2, [r3, #36]
1179:STM32Cube_FW_N6/Drivers/STM32N6xx_HAL_Driver/Src/stm32n6xx_hal_i2c.c **** 
1180:STM32Cube_FW_N6/Drivers/STM32N6xx_HAL_Driver/Src/stm32n6xx_hal_i2c.c ****       hi2c->XferCount--;
 829              		.loc 1 1180 11
 830 00f6 FB68     		ldr	r3, [r7, #12]
 831 00f8 5B8D     		ldrh	r3, [r3, #42]	@ movhi
 832 00fa 9BB2     		uxth	r3, r3
 833              		.loc 1 1180 22
 834 00fc 013B     		subs	r3, r3, #1
 835 00fe 9AB2     		uxth	r2, r3
 836 0100 FB68     		ldr	r3, [r7, #12]
 837 0102 5A85     		strh	r2, [r3, #42]	@ movhi
1181:STM32Cube_FW_N6/Drivers/STM32N6xx_HAL_Driver/Src/stm32n6xx_hal_i2c.c ****       hi2c->XferSize--;
 838              		.loc 1 1181 11
 839 0104 FB68     		ldr	r3, [r7, #12]
 840 0106 1B8D     		ldrh	r3, [r3, #40]
 841              		.loc 1 1181 21
 842 0108 013B     		subs	r3, r3, #1
 843 010a 9AB2     		uxth	r2, r3
 844 010c FB68     		ldr	r3, [r7, #12]
 845 010e 1A85     		strh	r2, [r3, #40]	@ movhi
1182:STM32Cube_FW_N6/Drivers/STM32N6xx_HAL_Driver/Src/stm32n6xx_hal_i2c.c **** 
1183:STM32Cube_FW_N6/Drivers/STM32N6xx_HAL_Driver/Src/stm32n6xx_hal_i2c.c ****       if ((hi2c->XferCount != 0U) && (hi2c->XferSize == 0U))
 846              		.loc 1 1183 16
 847 0110 FB68     		ldr	r3, [r7, #12]
 848 0112 5B8D     		ldrh	r3, [r3, #42]	@ movhi
 849 0114 9BB2     		uxth	r3, r3
 850              		.loc 1 1183 10
 851 0116 002B     		cmp	r3, #0
 852 0118 34D0     		beq	.L34
 853              		.loc 1 1183 43 discriminator 1
 854 011a FB68     		ldr	r3, [r7, #12]
 855 011c 1B8D     		ldrh	r3, [r3, #40]
 856              		.loc 1 1183 35 discriminator 1
 857 011e 002B     		cmp	r3, #0
 858 0120 30D1     		bne	.L34
1184:STM32Cube_FW_N6/Drivers/STM32N6xx_HAL_Driver/Src/stm32n6xx_hal_i2c.c ****       {
1185:STM32Cube_FW_N6/Drivers/STM32N6xx_HAL_Driver/Src/stm32n6xx_hal_i2c.c ****         /* Wait until TCR flag is set */
1186:STM32Cube_FW_N6/Drivers/STM32N6xx_HAL_Driver/Src/stm32n6xx_hal_i2c.c ****         if (I2C_WaitOnFlagUntilTimeout(hi2c, I2C_FLAG_TCR, RESET, Timeout, tickstart) != HAL_OK)
 859              		.loc 1 1186 13
 860 0122 7B69     		ldr	r3, [r7, #20]
 861 0124 0093     		str	r3, [sp]
 862 0126 3B6A     		ldr	r3, [r7, #32]
 863 0128 0022     		movs	r2, #0
 864 012a 8021     		movs	r1, #128
ARM GAS  /tmp/ccrxElPM.s 			page 37


 865 012c F868     		ldr	r0, [r7, #12]
 866 012e FFF7FEFF 		bl	I2C_WaitOnFlagUntilTimeout
 867 0132 0346     		mov	r3, r0
 868              		.loc 1 1186 12 discriminator 1
 869 0134 002B     		cmp	r3, #0
 870 0136 01D0     		beq	.L37
1187:STM32Cube_FW_N6/Drivers/STM32N6xx_HAL_Driver/Src/stm32n6xx_hal_i2c.c ****         {
1188:STM32Cube_FW_N6/Drivers/STM32N6xx_HAL_Driver/Src/stm32n6xx_hal_i2c.c ****           return HAL_ERROR;
 871              		.loc 1 1188 18
 872 0138 0123     		movs	r3, #1
 873 013a 4DE0     		b	.L30
 874              	.L37:
1189:STM32Cube_FW_N6/Drivers/STM32N6xx_HAL_Driver/Src/stm32n6xx_hal_i2c.c ****         }
1190:STM32Cube_FW_N6/Drivers/STM32N6xx_HAL_Driver/Src/stm32n6xx_hal_i2c.c **** 
1191:STM32Cube_FW_N6/Drivers/STM32N6xx_HAL_Driver/Src/stm32n6xx_hal_i2c.c ****         if (hi2c->XferCount > MAX_NBYTE_SIZE)
 875              		.loc 1 1191 17
 876 013c FB68     		ldr	r3, [r7, #12]
 877 013e 5B8D     		ldrh	r3, [r3, #42]	@ movhi
 878 0140 9BB2     		uxth	r3, r3
 879              		.loc 1 1191 12
 880 0142 FF2B     		cmp	r3, #255
 881 0144 0ED9     		bls	.L38
1192:STM32Cube_FW_N6/Drivers/STM32N6xx_HAL_Driver/Src/stm32n6xx_hal_i2c.c ****         {
1193:STM32Cube_FW_N6/Drivers/STM32N6xx_HAL_Driver/Src/stm32n6xx_hal_i2c.c ****           hi2c->XferSize = MAX_NBYTE_SIZE;
 882              		.loc 1 1193 26
 883 0146 FB68     		ldr	r3, [r7, #12]
 884 0148 FF22     		movs	r2, #255
 885 014a 1A85     		strh	r2, [r3, #40]	@ movhi
1194:STM32Cube_FW_N6/Drivers/STM32N6xx_HAL_Driver/Src/stm32n6xx_hal_i2c.c ****           I2C_TransferConfig(hi2c, DevAddress, (uint8_t)hi2c->XferSize, I2C_RELOAD_MODE,
 886              		.loc 1 1194 61
 887 014c FB68     		ldr	r3, [r7, #12]
 888 014e 1B8D     		ldrh	r3, [r3, #40]
 889              		.loc 1 1194 11
 890 0150 DAB2     		uxtb	r2, r3
 891 0152 7989     		ldrh	r1, [r7, #10]
 892 0154 0023     		movs	r3, #0
 893 0156 0093     		str	r3, [sp]
 894 0158 4FF08073 		mov	r3, #16777216
 895 015c F868     		ldr	r0, [r7, #12]
 896 015e FFF7FEFF 		bl	I2C_TransferConfig
 897 0162 0FE0     		b	.L34
 898              	.L38:
1195:STM32Cube_FW_N6/Drivers/STM32N6xx_HAL_Driver/Src/stm32n6xx_hal_i2c.c ****                              I2C_NO_STARTSTOP);
1196:STM32Cube_FW_N6/Drivers/STM32N6xx_HAL_Driver/Src/stm32n6xx_hal_i2c.c ****         }
1197:STM32Cube_FW_N6/Drivers/STM32N6xx_HAL_Driver/Src/stm32n6xx_hal_i2c.c ****         else
1198:STM32Cube_FW_N6/Drivers/STM32N6xx_HAL_Driver/Src/stm32n6xx_hal_i2c.c ****         {
1199:STM32Cube_FW_N6/Drivers/STM32N6xx_HAL_Driver/Src/stm32n6xx_hal_i2c.c ****           hi2c->XferSize = hi2c->XferCount;
 899              		.loc 1 1199 32
 900 0164 FB68     		ldr	r3, [r7, #12]
 901 0166 5B8D     		ldrh	r3, [r3, #42]	@ movhi
 902 0168 9AB2     		uxth	r2, r3
 903              		.loc 1 1199 26
 904 016a FB68     		ldr	r3, [r7, #12]
 905 016c 1A85     		strh	r2, [r3, #40]	@ movhi
1200:STM32Cube_FW_N6/Drivers/STM32N6xx_HAL_Driver/Src/stm32n6xx_hal_i2c.c ****           I2C_TransferConfig(hi2c, DevAddress, (uint8_t)hi2c->XferSize, I2C_AUTOEND_MODE,
 906              		.loc 1 1200 61
 907 016e FB68     		ldr	r3, [r7, #12]
ARM GAS  /tmp/ccrxElPM.s 			page 38


 908 0170 1B8D     		ldrh	r3, [r3, #40]
 909              		.loc 1 1200 11
 910 0172 DAB2     		uxtb	r2, r3
 911 0174 7989     		ldrh	r1, [r7, #10]
 912 0176 0023     		movs	r3, #0
 913 0178 0093     		str	r3, [sp]
 914 017a 4FF00073 		mov	r3, #33554432
 915 017e F868     		ldr	r0, [r7, #12]
 916 0180 FFF7FEFF 		bl	I2C_TransferConfig
 917              	.L34:
1167:STM32Cube_FW_N6/Drivers/STM32N6xx_HAL_Driver/Src/stm32n6xx_hal_i2c.c ****     {
 918              		.loc 1 1167 16
 919 0184 FB68     		ldr	r3, [r7, #12]
 920 0186 5B8D     		ldrh	r3, [r3, #42]	@ movhi
 921 0188 9BB2     		uxth	r3, r3
1167:STM32Cube_FW_N6/Drivers/STM32N6xx_HAL_Driver/Src/stm32n6xx_hal_i2c.c ****     {
 922              		.loc 1 1167 28
 923 018a 002B     		cmp	r3, #0
 924 018c 9ED1     		bne	.L39
1201:STM32Cube_FW_N6/Drivers/STM32N6xx_HAL_Driver/Src/stm32n6xx_hal_i2c.c ****                              I2C_NO_STARTSTOP);
1202:STM32Cube_FW_N6/Drivers/STM32N6xx_HAL_Driver/Src/stm32n6xx_hal_i2c.c ****         }
1203:STM32Cube_FW_N6/Drivers/STM32N6xx_HAL_Driver/Src/stm32n6xx_hal_i2c.c ****       }
1204:STM32Cube_FW_N6/Drivers/STM32N6xx_HAL_Driver/Src/stm32n6xx_hal_i2c.c ****     }
1205:STM32Cube_FW_N6/Drivers/STM32N6xx_HAL_Driver/Src/stm32n6xx_hal_i2c.c **** 
1206:STM32Cube_FW_N6/Drivers/STM32N6xx_HAL_Driver/Src/stm32n6xx_hal_i2c.c ****     /* No need to Check TC flag, with AUTOEND mode the stop is automatically generated */
1207:STM32Cube_FW_N6/Drivers/STM32N6xx_HAL_Driver/Src/stm32n6xx_hal_i2c.c ****     /* Wait until STOPF flag is set */
1208:STM32Cube_FW_N6/Drivers/STM32N6xx_HAL_Driver/Src/stm32n6xx_hal_i2c.c ****     if (I2C_WaitOnSTOPFlagUntilTimeout(hi2c, Timeout, tickstart) != HAL_OK)
 925              		.loc 1 1208 9
 926 018e 7A69     		ldr	r2, [r7, #20]
 927 0190 396A     		ldr	r1, [r7, #32]
 928 0192 F868     		ldr	r0, [r7, #12]
 929 0194 FFF7FEFF 		bl	I2C_WaitOnSTOPFlagUntilTimeout
 930 0198 0346     		mov	r3, r0
 931              		.loc 1 1208 8 discriminator 1
 932 019a 002B     		cmp	r3, #0
 933 019c 01D0     		beq	.L40
1209:STM32Cube_FW_N6/Drivers/STM32N6xx_HAL_Driver/Src/stm32n6xx_hal_i2c.c ****     {
1210:STM32Cube_FW_N6/Drivers/STM32N6xx_HAL_Driver/Src/stm32n6xx_hal_i2c.c ****       return HAL_ERROR;
 934              		.loc 1 1210 14
 935 019e 0123     		movs	r3, #1
 936 01a0 1AE0     		b	.L30
 937              	.L40:
1211:STM32Cube_FW_N6/Drivers/STM32N6xx_HAL_Driver/Src/stm32n6xx_hal_i2c.c ****     }
1212:STM32Cube_FW_N6/Drivers/STM32N6xx_HAL_Driver/Src/stm32n6xx_hal_i2c.c **** 
1213:STM32Cube_FW_N6/Drivers/STM32N6xx_HAL_Driver/Src/stm32n6xx_hal_i2c.c ****     /* Clear STOP Flag */
1214:STM32Cube_FW_N6/Drivers/STM32N6xx_HAL_Driver/Src/stm32n6xx_hal_i2c.c ****     __HAL_I2C_CLEAR_FLAG(hi2c, I2C_FLAG_STOPF);
 938              		.loc 1 1214 5
 939 01a2 FB68     		ldr	r3, [r7, #12]
 940 01a4 1B68     		ldr	r3, [r3]
 941 01a6 2022     		movs	r2, #32
 942 01a8 DA61     		str	r2, [r3, #28]
1215:STM32Cube_FW_N6/Drivers/STM32N6xx_HAL_Driver/Src/stm32n6xx_hal_i2c.c **** 
1216:STM32Cube_FW_N6/Drivers/STM32N6xx_HAL_Driver/Src/stm32n6xx_hal_i2c.c ****     /* Clear Configuration Register 2 */
1217:STM32Cube_FW_N6/Drivers/STM32N6xx_HAL_Driver/Src/stm32n6xx_hal_i2c.c ****     I2C_RESET_CR2(hi2c);
 943              		.loc 1 1217 5
 944 01aa FB68     		ldr	r3, [r7, #12]
 945 01ac 1B68     		ldr	r3, [r3]
ARM GAS  /tmp/ccrxElPM.s 			page 39


 946 01ae 5968     		ldr	r1, [r3, #4]
 947 01b0 FB68     		ldr	r3, [r7, #12]
 948 01b2 1A68     		ldr	r2, [r3]
 949 01b4 0B4B     		ldr	r3, .L41+4
 950 01b6 0B40     		ands	r3, r3, r1
 951 01b8 5360     		str	r3, [r2, #4]
1218:STM32Cube_FW_N6/Drivers/STM32N6xx_HAL_Driver/Src/stm32n6xx_hal_i2c.c **** 
1219:STM32Cube_FW_N6/Drivers/STM32N6xx_HAL_Driver/Src/stm32n6xx_hal_i2c.c ****     hi2c->State = HAL_I2C_STATE_READY;
 952              		.loc 1 1219 17
 953 01ba FB68     		ldr	r3, [r7, #12]
 954 01bc 2022     		movs	r2, #32
 955 01be 83F84120 		strb	r2, [r3, #65]
1220:STM32Cube_FW_N6/Drivers/STM32N6xx_HAL_Driver/Src/stm32n6xx_hal_i2c.c ****     hi2c->Mode  = HAL_I2C_MODE_NONE;
 956              		.loc 1 1220 17
 957 01c2 FB68     		ldr	r3, [r7, #12]
 958 01c4 0022     		movs	r2, #0
 959 01c6 83F84220 		strb	r2, [r3, #66]
1221:STM32Cube_FW_N6/Drivers/STM32N6xx_HAL_Driver/Src/stm32n6xx_hal_i2c.c **** 
1222:STM32Cube_FW_N6/Drivers/STM32N6xx_HAL_Driver/Src/stm32n6xx_hal_i2c.c ****     /* Process Unlocked */
1223:STM32Cube_FW_N6/Drivers/STM32N6xx_HAL_Driver/Src/stm32n6xx_hal_i2c.c ****     __HAL_UNLOCK(hi2c);
 960              		.loc 1 1223 5
 961 01ca FB68     		ldr	r3, [r7, #12]
 962 01cc 0022     		movs	r2, #0
 963 01ce 83F84020 		strb	r2, [r3, #64]
1224:STM32Cube_FW_N6/Drivers/STM32N6xx_HAL_Driver/Src/stm32n6xx_hal_i2c.c **** 
1225:STM32Cube_FW_N6/Drivers/STM32N6xx_HAL_Driver/Src/stm32n6xx_hal_i2c.c ****     return HAL_OK;
 964              		.loc 1 1225 12
 965 01d2 0023     		movs	r3, #0
 966 01d4 00E0     		b	.L30
 967              	.L28:
1226:STM32Cube_FW_N6/Drivers/STM32N6xx_HAL_Driver/Src/stm32n6xx_hal_i2c.c ****   }
1227:STM32Cube_FW_N6/Drivers/STM32N6xx_HAL_Driver/Src/stm32n6xx_hal_i2c.c ****   else
1228:STM32Cube_FW_N6/Drivers/STM32N6xx_HAL_Driver/Src/stm32n6xx_hal_i2c.c ****   {
1229:STM32Cube_FW_N6/Drivers/STM32N6xx_HAL_Driver/Src/stm32n6xx_hal_i2c.c ****     return HAL_BUSY;
 968              		.loc 1 1229 12
 969 01d6 0223     		movs	r3, #2
 970              	.L30:
1230:STM32Cube_FW_N6/Drivers/STM32N6xx_HAL_Driver/Src/stm32n6xx_hal_i2c.c ****   }
1231:STM32Cube_FW_N6/Drivers/STM32N6xx_HAL_Driver/Src/stm32n6xx_hal_i2c.c **** }
 971              		.loc 1 1231 1
 972 01d8 1846     		mov	r0, r3
 973 01da 1837     		adds	r7, r7, #24
 974              		.cfi_def_cfa_offset 8
 975 01dc BD46     		mov	sp, r7
 976              		.cfi_def_cfa_register 13
 977              		@ sp needed
 978 01de 80BD     		pop	{r7, pc}
 979              	.L42:
 980              		.align	2
 981              	.L41:
 982 01e0 00200080 		.word	-2147475456
 983 01e4 00E800FE 		.word	-33495040
 984              		.cfi_endproc
 985              	.LFE839:
 987              		.section	.text.HAL_I2C_Master_Receive,"ax",%progbits
 988              		.align	1
 989              		.global	HAL_I2C_Master_Receive
ARM GAS  /tmp/ccrxElPM.s 			page 40


 990              		.syntax unified
 991              		.thumb
 992              		.thumb_func
 994              	HAL_I2C_Master_Receive:
 995              	.LFB840:
1232:STM32Cube_FW_N6/Drivers/STM32N6xx_HAL_Driver/Src/stm32n6xx_hal_i2c.c **** 
1233:STM32Cube_FW_N6/Drivers/STM32N6xx_HAL_Driver/Src/stm32n6xx_hal_i2c.c **** /**
1234:STM32Cube_FW_N6/Drivers/STM32N6xx_HAL_Driver/Src/stm32n6xx_hal_i2c.c ****   * @brief  Receives in master mode an amount of data in blocking mode.
1235:STM32Cube_FW_N6/Drivers/STM32N6xx_HAL_Driver/Src/stm32n6xx_hal_i2c.c ****   * @param  hi2c Pointer to a I2C_HandleTypeDef structure that contains
1236:STM32Cube_FW_N6/Drivers/STM32N6xx_HAL_Driver/Src/stm32n6xx_hal_i2c.c ****   *                the configuration information for the specified I2C.
1237:STM32Cube_FW_N6/Drivers/STM32N6xx_HAL_Driver/Src/stm32n6xx_hal_i2c.c ****   * @param  DevAddress Target device address: The device 7 bits address value
1238:STM32Cube_FW_N6/Drivers/STM32N6xx_HAL_Driver/Src/stm32n6xx_hal_i2c.c ****   *         in datasheet must be shifted to the left before calling the interface
1239:STM32Cube_FW_N6/Drivers/STM32N6xx_HAL_Driver/Src/stm32n6xx_hal_i2c.c ****   * @param  pData Pointer to data buffer
1240:STM32Cube_FW_N6/Drivers/STM32N6xx_HAL_Driver/Src/stm32n6xx_hal_i2c.c ****   * @param  Size Amount of data to be sent
1241:STM32Cube_FW_N6/Drivers/STM32N6xx_HAL_Driver/Src/stm32n6xx_hal_i2c.c ****   * @param  Timeout Timeout duration
1242:STM32Cube_FW_N6/Drivers/STM32N6xx_HAL_Driver/Src/stm32n6xx_hal_i2c.c ****   * @retval HAL status
1243:STM32Cube_FW_N6/Drivers/STM32N6xx_HAL_Driver/Src/stm32n6xx_hal_i2c.c ****   */
1244:STM32Cube_FW_N6/Drivers/STM32N6xx_HAL_Driver/Src/stm32n6xx_hal_i2c.c **** HAL_StatusTypeDef HAL_I2C_Master_Receive(I2C_HandleTypeDef *hi2c, uint16_t DevAddress, uint8_t *pDa
1245:STM32Cube_FW_N6/Drivers/STM32N6xx_HAL_Driver/Src/stm32n6xx_hal_i2c.c ****                                          uint16_t Size, uint32_t Timeout)
1246:STM32Cube_FW_N6/Drivers/STM32N6xx_HAL_Driver/Src/stm32n6xx_hal_i2c.c **** {
 996              		.loc 1 1246 1
 997              		.cfi_startproc
 998              		@ args = 4, pretend = 0, frame = 24
 999              		@ frame_needed = 1, uses_anonymous_args = 0
 1000 0000 80B5     		push	{r7, lr}
 1001              		.cfi_def_cfa_offset 8
 1002              		.cfi_offset 7, -8
 1003              		.cfi_offset 14, -4
 1004 0002 88B0     		sub	sp, sp, #32
 1005              		.cfi_def_cfa_offset 40
 1006 0004 02AF     		add	r7, sp, #8
 1007              		.cfi_def_cfa 7, 32
 1008 0006 F860     		str	r0, [r7, #12]
 1009 0008 7A60     		str	r2, [r7, #4]
 1010 000a 1A46     		mov	r2, r3
 1011 000c 0B46     		mov	r3, r1	@ movhi
 1012 000e 7B81     		strh	r3, [r7, #10]	@ movhi
 1013 0010 1346     		mov	r3, r2	@ movhi
 1014 0012 3B81     		strh	r3, [r7, #8]	@ movhi
1247:STM32Cube_FW_N6/Drivers/STM32N6xx_HAL_Driver/Src/stm32n6xx_hal_i2c.c ****   uint32_t tickstart;
1248:STM32Cube_FW_N6/Drivers/STM32N6xx_HAL_Driver/Src/stm32n6xx_hal_i2c.c **** 
1249:STM32Cube_FW_N6/Drivers/STM32N6xx_HAL_Driver/Src/stm32n6xx_hal_i2c.c ****   if (hi2c->State == HAL_I2C_STATE_READY)
 1015              		.loc 1 1249 11
 1016 0014 FB68     		ldr	r3, [r7, #12]
 1017 0016 93F84130 		ldrb	r3, [r3, #65]
 1018 001a DBB2     		uxtb	r3, r3
 1019              		.loc 1 1249 6
 1020 001c 202B     		cmp	r3, #32
 1021 001e 40F0DB80 		bne	.L44
1250:STM32Cube_FW_N6/Drivers/STM32N6xx_HAL_Driver/Src/stm32n6xx_hal_i2c.c ****   {
1251:STM32Cube_FW_N6/Drivers/STM32N6xx_HAL_Driver/Src/stm32n6xx_hal_i2c.c ****     /* Process Locked */
1252:STM32Cube_FW_N6/Drivers/STM32N6xx_HAL_Driver/Src/stm32n6xx_hal_i2c.c ****     __HAL_LOCK(hi2c);
 1022              		.loc 1 1252 5
 1023 0022 FB68     		ldr	r3, [r7, #12]
 1024 0024 93F84030 		ldrb	r3, [r3, #64]	@ zero_extendqisi2
 1025 0028 012B     		cmp	r3, #1
 1026 002a 01D1     		bne	.L45
ARM GAS  /tmp/ccrxElPM.s 			page 41


 1027              		.loc 1 1252 5 is_stmt 0 discriminator 1
 1028 002c 0223     		movs	r3, #2
 1029              		.loc 1 1252 5
 1030 002e D4E0     		b	.L46
 1031              	.L45:
 1032              		.loc 1 1252 5 discriminator 2
 1033 0030 FB68     		ldr	r3, [r7, #12]
 1034 0032 0122     		movs	r2, #1
 1035 0034 83F84020 		strb	r2, [r3, #64]
1253:STM32Cube_FW_N6/Drivers/STM32N6xx_HAL_Driver/Src/stm32n6xx_hal_i2c.c **** 
1254:STM32Cube_FW_N6/Drivers/STM32N6xx_HAL_Driver/Src/stm32n6xx_hal_i2c.c ****     /* Init tickstart for timeout management*/
1255:STM32Cube_FW_N6/Drivers/STM32N6xx_HAL_Driver/Src/stm32n6xx_hal_i2c.c ****     tickstart = HAL_GetTick();
 1036              		.loc 1 1255 17 is_stmt 1
 1037 0038 FFF7FEFF 		bl	HAL_GetTick
 1038 003c 7861     		str	r0, [r7, #20]
1256:STM32Cube_FW_N6/Drivers/STM32N6xx_HAL_Driver/Src/stm32n6xx_hal_i2c.c **** 
1257:STM32Cube_FW_N6/Drivers/STM32N6xx_HAL_Driver/Src/stm32n6xx_hal_i2c.c ****     if (I2C_WaitOnFlagUntilTimeout(hi2c, I2C_FLAG_BUSY, SET, I2C_TIMEOUT_BUSY, tickstart) != HAL_OK
 1039              		.loc 1 1257 9
 1040 003e 7B69     		ldr	r3, [r7, #20]
 1041 0040 0093     		str	r3, [sp]
 1042 0042 1923     		movs	r3, #25
 1043 0044 0122     		movs	r2, #1
 1044 0046 4FF40041 		mov	r1, #32768
 1045 004a F868     		ldr	r0, [r7, #12]
 1046 004c FFF7FEFF 		bl	I2C_WaitOnFlagUntilTimeout
 1047 0050 0346     		mov	r3, r0
 1048              		.loc 1 1257 8 discriminator 1
 1049 0052 002B     		cmp	r3, #0
 1050 0054 01D0     		beq	.L47
1258:STM32Cube_FW_N6/Drivers/STM32N6xx_HAL_Driver/Src/stm32n6xx_hal_i2c.c ****     {
1259:STM32Cube_FW_N6/Drivers/STM32N6xx_HAL_Driver/Src/stm32n6xx_hal_i2c.c ****       return HAL_ERROR;
 1051              		.loc 1 1259 14
 1052 0056 0123     		movs	r3, #1
 1053 0058 BFE0     		b	.L46
 1054              	.L47:
1260:STM32Cube_FW_N6/Drivers/STM32N6xx_HAL_Driver/Src/stm32n6xx_hal_i2c.c ****     }
1261:STM32Cube_FW_N6/Drivers/STM32N6xx_HAL_Driver/Src/stm32n6xx_hal_i2c.c **** 
1262:STM32Cube_FW_N6/Drivers/STM32N6xx_HAL_Driver/Src/stm32n6xx_hal_i2c.c ****     hi2c->State     = HAL_I2C_STATE_BUSY_RX;
 1055              		.loc 1 1262 21
 1056 005a FB68     		ldr	r3, [r7, #12]
 1057 005c 2222     		movs	r2, #34
 1058 005e 83F84120 		strb	r2, [r3, #65]
1263:STM32Cube_FW_N6/Drivers/STM32N6xx_HAL_Driver/Src/stm32n6xx_hal_i2c.c ****     hi2c->Mode      = HAL_I2C_MODE_MASTER;
 1059              		.loc 1 1263 21
 1060 0062 FB68     		ldr	r3, [r7, #12]
 1061 0064 1022     		movs	r2, #16
 1062 0066 83F84220 		strb	r2, [r3, #66]
1264:STM32Cube_FW_N6/Drivers/STM32N6xx_HAL_Driver/Src/stm32n6xx_hal_i2c.c ****     hi2c->ErrorCode = HAL_I2C_ERROR_NONE;
 1063              		.loc 1 1264 21
 1064 006a FB68     		ldr	r3, [r7, #12]
 1065 006c 0022     		movs	r2, #0
 1066 006e 5A64     		str	r2, [r3, #68]
1265:STM32Cube_FW_N6/Drivers/STM32N6xx_HAL_Driver/Src/stm32n6xx_hal_i2c.c **** 
1266:STM32Cube_FW_N6/Drivers/STM32N6xx_HAL_Driver/Src/stm32n6xx_hal_i2c.c ****     /* Prepare transfer parameters */
1267:STM32Cube_FW_N6/Drivers/STM32N6xx_HAL_Driver/Src/stm32n6xx_hal_i2c.c ****     hi2c->pBuffPtr  = pData;
 1067              		.loc 1 1267 21
 1068 0070 FB68     		ldr	r3, [r7, #12]
ARM GAS  /tmp/ccrxElPM.s 			page 42


 1069 0072 7A68     		ldr	r2, [r7, #4]
 1070 0074 5A62     		str	r2, [r3, #36]
1268:STM32Cube_FW_N6/Drivers/STM32N6xx_HAL_Driver/Src/stm32n6xx_hal_i2c.c ****     hi2c->XferCount = Size;
 1071              		.loc 1 1268 21
 1072 0076 FB68     		ldr	r3, [r7, #12]
 1073 0078 3A89     		ldrh	r2, [r7, #8]	@ movhi
 1074 007a 5A85     		strh	r2, [r3, #42]	@ movhi
1269:STM32Cube_FW_N6/Drivers/STM32N6xx_HAL_Driver/Src/stm32n6xx_hal_i2c.c ****     hi2c->XferISR   = NULL;
 1075              		.loc 1 1269 21
 1076 007c FB68     		ldr	r3, [r7, #12]
 1077 007e 0022     		movs	r2, #0
 1078 0080 5A63     		str	r2, [r3, #52]
1270:STM32Cube_FW_N6/Drivers/STM32N6xx_HAL_Driver/Src/stm32n6xx_hal_i2c.c **** 
1271:STM32Cube_FW_N6/Drivers/STM32N6xx_HAL_Driver/Src/stm32n6xx_hal_i2c.c ****     /* Send Slave Address */
1272:STM32Cube_FW_N6/Drivers/STM32N6xx_HAL_Driver/Src/stm32n6xx_hal_i2c.c ****     /* Set NBYTES to write and reload if hi2c->XferCount > MAX_NBYTE_SIZE and generate RESTART */
1273:STM32Cube_FW_N6/Drivers/STM32N6xx_HAL_Driver/Src/stm32n6xx_hal_i2c.c ****     if (hi2c->XferCount > MAX_NBYTE_SIZE)
 1079              		.loc 1 1273 13
 1080 0082 FB68     		ldr	r3, [r7, #12]
 1081 0084 5B8D     		ldrh	r3, [r3, #42]	@ movhi
 1082 0086 9BB2     		uxth	r3, r3
 1083              		.loc 1 1273 8
 1084 0088 FF2B     		cmp	r3, #255
 1085 008a 0ED9     		bls	.L48
1274:STM32Cube_FW_N6/Drivers/STM32N6xx_HAL_Driver/Src/stm32n6xx_hal_i2c.c ****     {
1275:STM32Cube_FW_N6/Drivers/STM32N6xx_HAL_Driver/Src/stm32n6xx_hal_i2c.c ****       hi2c->XferSize = MAX_NBYTE_SIZE;
 1086              		.loc 1 1275 22
 1087 008c FB68     		ldr	r3, [r7, #12]
 1088 008e FF22     		movs	r2, #255
 1089 0090 1A85     		strh	r2, [r3, #40]	@ movhi
1276:STM32Cube_FW_N6/Drivers/STM32N6xx_HAL_Driver/Src/stm32n6xx_hal_i2c.c ****       I2C_TransferConfig(hi2c, DevAddress, (uint8_t)hi2c->XferSize, I2C_RELOAD_MODE,
 1090              		.loc 1 1276 57
 1091 0092 FB68     		ldr	r3, [r7, #12]
 1092 0094 1B8D     		ldrh	r3, [r3, #40]
 1093              		.loc 1 1276 7
 1094 0096 DAB2     		uxtb	r2, r3
 1095 0098 7989     		ldrh	r1, [r7, #10]
 1096 009a 524B     		ldr	r3, .L57
 1097 009c 0093     		str	r3, [sp]
 1098 009e 4FF08073 		mov	r3, #16777216
 1099 00a2 F868     		ldr	r0, [r7, #12]
 1100 00a4 FFF7FEFF 		bl	I2C_TransferConfig
 1101 00a8 6DE0     		b	.L50
 1102              	.L48:
1277:STM32Cube_FW_N6/Drivers/STM32N6xx_HAL_Driver/Src/stm32n6xx_hal_i2c.c ****                          I2C_GENERATE_START_READ);
1278:STM32Cube_FW_N6/Drivers/STM32N6xx_HAL_Driver/Src/stm32n6xx_hal_i2c.c ****     }
1279:STM32Cube_FW_N6/Drivers/STM32N6xx_HAL_Driver/Src/stm32n6xx_hal_i2c.c ****     else
1280:STM32Cube_FW_N6/Drivers/STM32N6xx_HAL_Driver/Src/stm32n6xx_hal_i2c.c ****     {
1281:STM32Cube_FW_N6/Drivers/STM32N6xx_HAL_Driver/Src/stm32n6xx_hal_i2c.c ****       hi2c->XferSize = hi2c->XferCount;
 1103              		.loc 1 1281 28
 1104 00aa FB68     		ldr	r3, [r7, #12]
 1105 00ac 5B8D     		ldrh	r3, [r3, #42]	@ movhi
 1106 00ae 9AB2     		uxth	r2, r3
 1107              		.loc 1 1281 22
 1108 00b0 FB68     		ldr	r3, [r7, #12]
 1109 00b2 1A85     		strh	r2, [r3, #40]	@ movhi
1282:STM32Cube_FW_N6/Drivers/STM32N6xx_HAL_Driver/Src/stm32n6xx_hal_i2c.c ****       I2C_TransferConfig(hi2c, DevAddress, (uint8_t)hi2c->XferSize, I2C_AUTOEND_MODE,
 1110              		.loc 1 1282 57
ARM GAS  /tmp/ccrxElPM.s 			page 43


 1111 00b4 FB68     		ldr	r3, [r7, #12]
 1112 00b6 1B8D     		ldrh	r3, [r3, #40]
 1113              		.loc 1 1282 7
 1114 00b8 DAB2     		uxtb	r2, r3
 1115 00ba 7989     		ldrh	r1, [r7, #10]
 1116 00bc 494B     		ldr	r3, .L57
 1117 00be 0093     		str	r3, [sp]
 1118 00c0 4FF00073 		mov	r3, #33554432
 1119 00c4 F868     		ldr	r0, [r7, #12]
 1120 00c6 FFF7FEFF 		bl	I2C_TransferConfig
1283:STM32Cube_FW_N6/Drivers/STM32N6xx_HAL_Driver/Src/stm32n6xx_hal_i2c.c ****                          I2C_GENERATE_START_READ);
1284:STM32Cube_FW_N6/Drivers/STM32N6xx_HAL_Driver/Src/stm32n6xx_hal_i2c.c ****     }
1285:STM32Cube_FW_N6/Drivers/STM32N6xx_HAL_Driver/Src/stm32n6xx_hal_i2c.c **** 
1286:STM32Cube_FW_N6/Drivers/STM32N6xx_HAL_Driver/Src/stm32n6xx_hal_i2c.c ****     while (hi2c->XferCount > 0U)
 1121              		.loc 1 1286 11
 1122 00ca 5CE0     		b	.L50
 1123              	.L55:
1287:STM32Cube_FW_N6/Drivers/STM32N6xx_HAL_Driver/Src/stm32n6xx_hal_i2c.c ****     {
1288:STM32Cube_FW_N6/Drivers/STM32N6xx_HAL_Driver/Src/stm32n6xx_hal_i2c.c ****       /* Wait until RXNE flag is set */
1289:STM32Cube_FW_N6/Drivers/STM32N6xx_HAL_Driver/Src/stm32n6xx_hal_i2c.c ****       if (I2C_WaitOnRXNEFlagUntilTimeout(hi2c, Timeout, tickstart) != HAL_OK)
 1124              		.loc 1 1289 11
 1125 00cc 7A69     		ldr	r2, [r7, #20]
 1126 00ce 396A     		ldr	r1, [r7, #32]
 1127 00d0 F868     		ldr	r0, [r7, #12]
 1128 00d2 FFF7FEFF 		bl	I2C_WaitOnRXNEFlagUntilTimeout
 1129 00d6 0346     		mov	r3, r0
 1130              		.loc 1 1289 10 discriminator 1
 1131 00d8 002B     		cmp	r3, #0
 1132 00da 01D0     		beq	.L51
1290:STM32Cube_FW_N6/Drivers/STM32N6xx_HAL_Driver/Src/stm32n6xx_hal_i2c.c ****       {
1291:STM32Cube_FW_N6/Drivers/STM32N6xx_HAL_Driver/Src/stm32n6xx_hal_i2c.c ****         return HAL_ERROR;
 1133              		.loc 1 1291 16
 1134 00dc 0123     		movs	r3, #1
 1135 00de 7CE0     		b	.L46
 1136              	.L51:
1292:STM32Cube_FW_N6/Drivers/STM32N6xx_HAL_Driver/Src/stm32n6xx_hal_i2c.c ****       }
1293:STM32Cube_FW_N6/Drivers/STM32N6xx_HAL_Driver/Src/stm32n6xx_hal_i2c.c **** 
1294:STM32Cube_FW_N6/Drivers/STM32N6xx_HAL_Driver/Src/stm32n6xx_hal_i2c.c ****       /* Read data from RXDR */
1295:STM32Cube_FW_N6/Drivers/STM32N6xx_HAL_Driver/Src/stm32n6xx_hal_i2c.c ****       *hi2c->pBuffPtr = (uint8_t)hi2c->Instance->RXDR;
 1137              		.loc 1 1295 38
 1138 00e0 FB68     		ldr	r3, [r7, #12]
 1139 00e2 1B68     		ldr	r3, [r3]
 1140              		.loc 1 1295 48
 1141 00e4 5A6A     		ldr	r2, [r3, #36]
 1142              		.loc 1 1295 12
 1143 00e6 FB68     		ldr	r3, [r7, #12]
 1144 00e8 5B6A     		ldr	r3, [r3, #36]
 1145              		.loc 1 1295 25
 1146 00ea D2B2     		uxtb	r2, r2
 1147              		.loc 1 1295 23
 1148 00ec 1A70     		strb	r2, [r3]
1296:STM32Cube_FW_N6/Drivers/STM32N6xx_HAL_Driver/Src/stm32n6xx_hal_i2c.c **** 
1297:STM32Cube_FW_N6/Drivers/STM32N6xx_HAL_Driver/Src/stm32n6xx_hal_i2c.c ****       /* Increment Buffer pointer */
1298:STM32Cube_FW_N6/Drivers/STM32N6xx_HAL_Driver/Src/stm32n6xx_hal_i2c.c ****       hi2c->pBuffPtr++;
 1149              		.loc 1 1298 11
 1150 00ee FB68     		ldr	r3, [r7, #12]
 1151 00f0 5B6A     		ldr	r3, [r3, #36]
ARM GAS  /tmp/ccrxElPM.s 			page 44


 1152              		.loc 1 1298 21
 1153 00f2 5A1C     		adds	r2, r3, #1
 1154 00f4 FB68     		ldr	r3, [r7, #12]
 1155 00f6 5A62     		str	r2, [r3, #36]
1299:STM32Cube_FW_N6/Drivers/STM32N6xx_HAL_Driver/Src/stm32n6xx_hal_i2c.c **** 
1300:STM32Cube_FW_N6/Drivers/STM32N6xx_HAL_Driver/Src/stm32n6xx_hal_i2c.c ****       hi2c->XferSize--;
 1156              		.loc 1 1300 11
 1157 00f8 FB68     		ldr	r3, [r7, #12]
 1158 00fa 1B8D     		ldrh	r3, [r3, #40]
 1159              		.loc 1 1300 21
 1160 00fc 013B     		subs	r3, r3, #1
 1161 00fe 9AB2     		uxth	r2, r3
 1162 0100 FB68     		ldr	r3, [r7, #12]
 1163 0102 1A85     		strh	r2, [r3, #40]	@ movhi
1301:STM32Cube_FW_N6/Drivers/STM32N6xx_HAL_Driver/Src/stm32n6xx_hal_i2c.c ****       hi2c->XferCount--;
 1164              		.loc 1 1301 11
 1165 0104 FB68     		ldr	r3, [r7, #12]
 1166 0106 5B8D     		ldrh	r3, [r3, #42]	@ movhi
 1167 0108 9BB2     		uxth	r3, r3
 1168              		.loc 1 1301 22
 1169 010a 013B     		subs	r3, r3, #1
 1170 010c 9AB2     		uxth	r2, r3
 1171 010e FB68     		ldr	r3, [r7, #12]
 1172 0110 5A85     		strh	r2, [r3, #42]	@ movhi
1302:STM32Cube_FW_N6/Drivers/STM32N6xx_HAL_Driver/Src/stm32n6xx_hal_i2c.c **** 
1303:STM32Cube_FW_N6/Drivers/STM32N6xx_HAL_Driver/Src/stm32n6xx_hal_i2c.c ****       if ((hi2c->XferCount != 0U) && (hi2c->XferSize == 0U))
 1173              		.loc 1 1303 16
 1174 0112 FB68     		ldr	r3, [r7, #12]
 1175 0114 5B8D     		ldrh	r3, [r3, #42]	@ movhi
 1176 0116 9BB2     		uxth	r3, r3
 1177              		.loc 1 1303 10
 1178 0118 002B     		cmp	r3, #0
 1179 011a 34D0     		beq	.L50
 1180              		.loc 1 1303 43 discriminator 1
 1181 011c FB68     		ldr	r3, [r7, #12]
 1182 011e 1B8D     		ldrh	r3, [r3, #40]
 1183              		.loc 1 1303 35 discriminator 1
 1184 0120 002B     		cmp	r3, #0
 1185 0122 30D1     		bne	.L50
1304:STM32Cube_FW_N6/Drivers/STM32N6xx_HAL_Driver/Src/stm32n6xx_hal_i2c.c ****       {
1305:STM32Cube_FW_N6/Drivers/STM32N6xx_HAL_Driver/Src/stm32n6xx_hal_i2c.c ****         /* Wait until TCR flag is set */
1306:STM32Cube_FW_N6/Drivers/STM32N6xx_HAL_Driver/Src/stm32n6xx_hal_i2c.c ****         if (I2C_WaitOnFlagUntilTimeout(hi2c, I2C_FLAG_TCR, RESET, Timeout, tickstart) != HAL_OK)
 1186              		.loc 1 1306 13
 1187 0124 7B69     		ldr	r3, [r7, #20]
 1188 0126 0093     		str	r3, [sp]
 1189 0128 3B6A     		ldr	r3, [r7, #32]
 1190 012a 0022     		movs	r2, #0
 1191 012c 8021     		movs	r1, #128
 1192 012e F868     		ldr	r0, [r7, #12]
 1193 0130 FFF7FEFF 		bl	I2C_WaitOnFlagUntilTimeout
 1194 0134 0346     		mov	r3, r0
 1195              		.loc 1 1306 12 discriminator 1
 1196 0136 002B     		cmp	r3, #0
 1197 0138 01D0     		beq	.L53
1307:STM32Cube_FW_N6/Drivers/STM32N6xx_HAL_Driver/Src/stm32n6xx_hal_i2c.c ****         {
1308:STM32Cube_FW_N6/Drivers/STM32N6xx_HAL_Driver/Src/stm32n6xx_hal_i2c.c ****           return HAL_ERROR;
 1198              		.loc 1 1308 18
ARM GAS  /tmp/ccrxElPM.s 			page 45


 1199 013a 0123     		movs	r3, #1
 1200 013c 4DE0     		b	.L46
 1201              	.L53:
1309:STM32Cube_FW_N6/Drivers/STM32N6xx_HAL_Driver/Src/stm32n6xx_hal_i2c.c ****         }
1310:STM32Cube_FW_N6/Drivers/STM32N6xx_HAL_Driver/Src/stm32n6xx_hal_i2c.c **** 
1311:STM32Cube_FW_N6/Drivers/STM32N6xx_HAL_Driver/Src/stm32n6xx_hal_i2c.c ****         if (hi2c->XferCount > MAX_NBYTE_SIZE)
 1202              		.loc 1 1311 17
 1203 013e FB68     		ldr	r3, [r7, #12]
 1204 0140 5B8D     		ldrh	r3, [r3, #42]	@ movhi
 1205 0142 9BB2     		uxth	r3, r3
 1206              		.loc 1 1311 12
 1207 0144 FF2B     		cmp	r3, #255
 1208 0146 0ED9     		bls	.L54
1312:STM32Cube_FW_N6/Drivers/STM32N6xx_HAL_Driver/Src/stm32n6xx_hal_i2c.c ****         {
1313:STM32Cube_FW_N6/Drivers/STM32N6xx_HAL_Driver/Src/stm32n6xx_hal_i2c.c ****           hi2c->XferSize = MAX_NBYTE_SIZE;
 1209              		.loc 1 1313 26
 1210 0148 FB68     		ldr	r3, [r7, #12]
 1211 014a FF22     		movs	r2, #255
 1212 014c 1A85     		strh	r2, [r3, #40]	@ movhi
1314:STM32Cube_FW_N6/Drivers/STM32N6xx_HAL_Driver/Src/stm32n6xx_hal_i2c.c ****           I2C_TransferConfig(hi2c, DevAddress, (uint8_t)hi2c->XferSize, I2C_RELOAD_MODE,
 1213              		.loc 1 1314 61
 1214 014e FB68     		ldr	r3, [r7, #12]
 1215 0150 1B8D     		ldrh	r3, [r3, #40]
 1216              		.loc 1 1314 11
 1217 0152 DAB2     		uxtb	r2, r3
 1218 0154 7989     		ldrh	r1, [r7, #10]
 1219 0156 0023     		movs	r3, #0
 1220 0158 0093     		str	r3, [sp]
 1221 015a 4FF08073 		mov	r3, #16777216
 1222 015e F868     		ldr	r0, [r7, #12]
 1223 0160 FFF7FEFF 		bl	I2C_TransferConfig
 1224 0164 0FE0     		b	.L50
 1225              	.L54:
1315:STM32Cube_FW_N6/Drivers/STM32N6xx_HAL_Driver/Src/stm32n6xx_hal_i2c.c ****                              I2C_NO_STARTSTOP);
1316:STM32Cube_FW_N6/Drivers/STM32N6xx_HAL_Driver/Src/stm32n6xx_hal_i2c.c ****         }
1317:STM32Cube_FW_N6/Drivers/STM32N6xx_HAL_Driver/Src/stm32n6xx_hal_i2c.c ****         else
1318:STM32Cube_FW_N6/Drivers/STM32N6xx_HAL_Driver/Src/stm32n6xx_hal_i2c.c ****         {
1319:STM32Cube_FW_N6/Drivers/STM32N6xx_HAL_Driver/Src/stm32n6xx_hal_i2c.c ****           hi2c->XferSize = hi2c->XferCount;
 1226              		.loc 1 1319 32
 1227 0166 FB68     		ldr	r3, [r7, #12]
 1228 0168 5B8D     		ldrh	r3, [r3, #42]	@ movhi
 1229 016a 9AB2     		uxth	r2, r3
 1230              		.loc 1 1319 26
 1231 016c FB68     		ldr	r3, [r7, #12]
 1232 016e 1A85     		strh	r2, [r3, #40]	@ movhi
1320:STM32Cube_FW_N6/Drivers/STM32N6xx_HAL_Driver/Src/stm32n6xx_hal_i2c.c ****           I2C_TransferConfig(hi2c, DevAddress, (uint8_t)hi2c->XferSize, I2C_AUTOEND_MODE,
 1233              		.loc 1 1320 61
 1234 0170 FB68     		ldr	r3, [r7, #12]
 1235 0172 1B8D     		ldrh	r3, [r3, #40]
 1236              		.loc 1 1320 11
 1237 0174 DAB2     		uxtb	r2, r3
 1238 0176 7989     		ldrh	r1, [r7, #10]
 1239 0178 0023     		movs	r3, #0
 1240 017a 0093     		str	r3, [sp]
 1241 017c 4FF00073 		mov	r3, #33554432
 1242 0180 F868     		ldr	r0, [r7, #12]
 1243 0182 FFF7FEFF 		bl	I2C_TransferConfig
ARM GAS  /tmp/ccrxElPM.s 			page 46


 1244              	.L50:
1286:STM32Cube_FW_N6/Drivers/STM32N6xx_HAL_Driver/Src/stm32n6xx_hal_i2c.c ****     {
 1245              		.loc 1 1286 16
 1246 0186 FB68     		ldr	r3, [r7, #12]
 1247 0188 5B8D     		ldrh	r3, [r3, #42]	@ movhi
 1248 018a 9BB2     		uxth	r3, r3
1286:STM32Cube_FW_N6/Drivers/STM32N6xx_HAL_Driver/Src/stm32n6xx_hal_i2c.c ****     {
 1249              		.loc 1 1286 28
 1250 018c 002B     		cmp	r3, #0
 1251 018e 9DD1     		bne	.L55
1321:STM32Cube_FW_N6/Drivers/STM32N6xx_HAL_Driver/Src/stm32n6xx_hal_i2c.c ****                              I2C_NO_STARTSTOP);
1322:STM32Cube_FW_N6/Drivers/STM32N6xx_HAL_Driver/Src/stm32n6xx_hal_i2c.c ****         }
1323:STM32Cube_FW_N6/Drivers/STM32N6xx_HAL_Driver/Src/stm32n6xx_hal_i2c.c ****       }
1324:STM32Cube_FW_N6/Drivers/STM32N6xx_HAL_Driver/Src/stm32n6xx_hal_i2c.c ****     }
1325:STM32Cube_FW_N6/Drivers/STM32N6xx_HAL_Driver/Src/stm32n6xx_hal_i2c.c **** 
1326:STM32Cube_FW_N6/Drivers/STM32N6xx_HAL_Driver/Src/stm32n6xx_hal_i2c.c ****     /* No need to Check TC flag, with AUTOEND mode the stop is automatically generated */
1327:STM32Cube_FW_N6/Drivers/STM32N6xx_HAL_Driver/Src/stm32n6xx_hal_i2c.c ****     /* Wait until STOPF flag is set */
1328:STM32Cube_FW_N6/Drivers/STM32N6xx_HAL_Driver/Src/stm32n6xx_hal_i2c.c ****     if (I2C_WaitOnSTOPFlagUntilTimeout(hi2c, Timeout, tickstart) != HAL_OK)
 1252              		.loc 1 1328 9
 1253 0190 7A69     		ldr	r2, [r7, #20]
 1254 0192 396A     		ldr	r1, [r7, #32]
 1255 0194 F868     		ldr	r0, [r7, #12]
 1256 0196 FFF7FEFF 		bl	I2C_WaitOnSTOPFlagUntilTimeout
 1257 019a 0346     		mov	r3, r0
 1258              		.loc 1 1328 8 discriminator 1
 1259 019c 002B     		cmp	r3, #0
 1260 019e 01D0     		beq	.L56
1329:STM32Cube_FW_N6/Drivers/STM32N6xx_HAL_Driver/Src/stm32n6xx_hal_i2c.c ****     {
1330:STM32Cube_FW_N6/Drivers/STM32N6xx_HAL_Driver/Src/stm32n6xx_hal_i2c.c ****       return HAL_ERROR;
 1261              		.loc 1 1330 14
 1262 01a0 0123     		movs	r3, #1
 1263 01a2 1AE0     		b	.L46
 1264              	.L56:
1331:STM32Cube_FW_N6/Drivers/STM32N6xx_HAL_Driver/Src/stm32n6xx_hal_i2c.c ****     }
1332:STM32Cube_FW_N6/Drivers/STM32N6xx_HAL_Driver/Src/stm32n6xx_hal_i2c.c **** 
1333:STM32Cube_FW_N6/Drivers/STM32N6xx_HAL_Driver/Src/stm32n6xx_hal_i2c.c ****     /* Clear STOP Flag */
1334:STM32Cube_FW_N6/Drivers/STM32N6xx_HAL_Driver/Src/stm32n6xx_hal_i2c.c ****     __HAL_I2C_CLEAR_FLAG(hi2c, I2C_FLAG_STOPF);
 1265              		.loc 1 1334 5
 1266 01a4 FB68     		ldr	r3, [r7, #12]
 1267 01a6 1B68     		ldr	r3, [r3]
 1268 01a8 2022     		movs	r2, #32
 1269 01aa DA61     		str	r2, [r3, #28]
1335:STM32Cube_FW_N6/Drivers/STM32N6xx_HAL_Driver/Src/stm32n6xx_hal_i2c.c **** 
1336:STM32Cube_FW_N6/Drivers/STM32N6xx_HAL_Driver/Src/stm32n6xx_hal_i2c.c ****     /* Clear Configuration Register 2 */
1337:STM32Cube_FW_N6/Drivers/STM32N6xx_HAL_Driver/Src/stm32n6xx_hal_i2c.c ****     I2C_RESET_CR2(hi2c);
 1270              		.loc 1 1337 5
 1271 01ac FB68     		ldr	r3, [r7, #12]
 1272 01ae 1B68     		ldr	r3, [r3]
 1273 01b0 5968     		ldr	r1, [r3, #4]
 1274 01b2 FB68     		ldr	r3, [r7, #12]
 1275 01b4 1A68     		ldr	r2, [r3]
 1276 01b6 0C4B     		ldr	r3, .L57+4
 1277 01b8 0B40     		ands	r3, r3, r1
 1278 01ba 5360     		str	r3, [r2, #4]
1338:STM32Cube_FW_N6/Drivers/STM32N6xx_HAL_Driver/Src/stm32n6xx_hal_i2c.c **** 
1339:STM32Cube_FW_N6/Drivers/STM32N6xx_HAL_Driver/Src/stm32n6xx_hal_i2c.c ****     hi2c->State = HAL_I2C_STATE_READY;
 1279              		.loc 1 1339 17
ARM GAS  /tmp/ccrxElPM.s 			page 47


 1280 01bc FB68     		ldr	r3, [r7, #12]
 1281 01be 2022     		movs	r2, #32
 1282 01c0 83F84120 		strb	r2, [r3, #65]
1340:STM32Cube_FW_N6/Drivers/STM32N6xx_HAL_Driver/Src/stm32n6xx_hal_i2c.c ****     hi2c->Mode  = HAL_I2C_MODE_NONE;
 1283              		.loc 1 1340 17
 1284 01c4 FB68     		ldr	r3, [r7, #12]
 1285 01c6 0022     		movs	r2, #0
 1286 01c8 83F84220 		strb	r2, [r3, #66]
1341:STM32Cube_FW_N6/Drivers/STM32N6xx_HAL_Driver/Src/stm32n6xx_hal_i2c.c **** 
1342:STM32Cube_FW_N6/Drivers/STM32N6xx_HAL_Driver/Src/stm32n6xx_hal_i2c.c ****     /* Process Unlocked */
1343:STM32Cube_FW_N6/Drivers/STM32N6xx_HAL_Driver/Src/stm32n6xx_hal_i2c.c ****     __HAL_UNLOCK(hi2c);
 1287              		.loc 1 1343 5
 1288 01cc FB68     		ldr	r3, [r7, #12]
 1289 01ce 0022     		movs	r2, #0
 1290 01d0 83F84020 		strb	r2, [r3, #64]
1344:STM32Cube_FW_N6/Drivers/STM32N6xx_HAL_Driver/Src/stm32n6xx_hal_i2c.c **** 
1345:STM32Cube_FW_N6/Drivers/STM32N6xx_HAL_Driver/Src/stm32n6xx_hal_i2c.c ****     return HAL_OK;
 1291              		.loc 1 1345 12
 1292 01d4 0023     		movs	r3, #0
 1293 01d6 00E0     		b	.L46
 1294              	.L44:
1346:STM32Cube_FW_N6/Drivers/STM32N6xx_HAL_Driver/Src/stm32n6xx_hal_i2c.c ****   }
1347:STM32Cube_FW_N6/Drivers/STM32N6xx_HAL_Driver/Src/stm32n6xx_hal_i2c.c ****   else
1348:STM32Cube_FW_N6/Drivers/STM32N6xx_HAL_Driver/Src/stm32n6xx_hal_i2c.c ****   {
1349:STM32Cube_FW_N6/Drivers/STM32N6xx_HAL_Driver/Src/stm32n6xx_hal_i2c.c ****     return HAL_BUSY;
 1295              		.loc 1 1349 12
 1296 01d8 0223     		movs	r3, #2
 1297              	.L46:
1350:STM32Cube_FW_N6/Drivers/STM32N6xx_HAL_Driver/Src/stm32n6xx_hal_i2c.c ****   }
1351:STM32Cube_FW_N6/Drivers/STM32N6xx_HAL_Driver/Src/stm32n6xx_hal_i2c.c **** }
 1298              		.loc 1 1351 1
 1299 01da 1846     		mov	r0, r3
 1300 01dc 1837     		adds	r7, r7, #24
 1301              		.cfi_def_cfa_offset 8
 1302 01de BD46     		mov	sp, r7
 1303              		.cfi_def_cfa_register 13
 1304              		@ sp needed
 1305 01e0 80BD     		pop	{r7, pc}
 1306              	.L58:
 1307 01e2 00BF     		.align	2
 1308              	.L57:
 1309 01e4 00240080 		.word	-2147474432
 1310 01e8 00E800FE 		.word	-33495040
 1311              		.cfi_endproc
 1312              	.LFE840:
 1314              		.section	.text.HAL_I2C_Slave_Transmit,"ax",%progbits
 1315              		.align	1
 1316              		.global	HAL_I2C_Slave_Transmit
 1317              		.syntax unified
 1318              		.thumb
 1319              		.thumb_func
 1321              	HAL_I2C_Slave_Transmit:
 1322              	.LFB841:
1352:STM32Cube_FW_N6/Drivers/STM32N6xx_HAL_Driver/Src/stm32n6xx_hal_i2c.c **** 
1353:STM32Cube_FW_N6/Drivers/STM32N6xx_HAL_Driver/Src/stm32n6xx_hal_i2c.c **** /**
1354:STM32Cube_FW_N6/Drivers/STM32N6xx_HAL_Driver/Src/stm32n6xx_hal_i2c.c ****   * @brief  Transmits in slave mode an amount of data in blocking mode.
1355:STM32Cube_FW_N6/Drivers/STM32N6xx_HAL_Driver/Src/stm32n6xx_hal_i2c.c ****   * @param  hi2c Pointer to a I2C_HandleTypeDef structure that contains
ARM GAS  /tmp/ccrxElPM.s 			page 48


1356:STM32Cube_FW_N6/Drivers/STM32N6xx_HAL_Driver/Src/stm32n6xx_hal_i2c.c ****   *                the configuration information for the specified I2C.
1357:STM32Cube_FW_N6/Drivers/STM32N6xx_HAL_Driver/Src/stm32n6xx_hal_i2c.c ****   * @param  pData Pointer to data buffer
1358:STM32Cube_FW_N6/Drivers/STM32N6xx_HAL_Driver/Src/stm32n6xx_hal_i2c.c ****   * @param  Size Amount of data to be sent
1359:STM32Cube_FW_N6/Drivers/STM32N6xx_HAL_Driver/Src/stm32n6xx_hal_i2c.c ****   * @param  Timeout Timeout duration
1360:STM32Cube_FW_N6/Drivers/STM32N6xx_HAL_Driver/Src/stm32n6xx_hal_i2c.c ****   * @retval HAL status
1361:STM32Cube_FW_N6/Drivers/STM32N6xx_HAL_Driver/Src/stm32n6xx_hal_i2c.c ****   */
1362:STM32Cube_FW_N6/Drivers/STM32N6xx_HAL_Driver/Src/stm32n6xx_hal_i2c.c **** HAL_StatusTypeDef HAL_I2C_Slave_Transmit(I2C_HandleTypeDef *hi2c, uint8_t *pData, uint16_t Size,
1363:STM32Cube_FW_N6/Drivers/STM32N6xx_HAL_Driver/Src/stm32n6xx_hal_i2c.c ****                                          uint32_t Timeout)
1364:STM32Cube_FW_N6/Drivers/STM32N6xx_HAL_Driver/Src/stm32n6xx_hal_i2c.c **** {
 1323              		.loc 1 1364 1
 1324              		.cfi_startproc
 1325              		@ args = 0, pretend = 0, frame = 24
 1326              		@ frame_needed = 1, uses_anonymous_args = 0
 1327 0000 80B5     		push	{r7, lr}
 1328              		.cfi_def_cfa_offset 8
 1329              		.cfi_offset 7, -8
 1330              		.cfi_offset 14, -4
 1331 0002 88B0     		sub	sp, sp, #32
 1332              		.cfi_def_cfa_offset 40
 1333 0004 02AF     		add	r7, sp, #8
 1334              		.cfi_def_cfa 7, 32
 1335 0006 F860     		str	r0, [r7, #12]
 1336 0008 B960     		str	r1, [r7, #8]
 1337 000a 3B60     		str	r3, [r7]
 1338 000c 1346     		mov	r3, r2	@ movhi
 1339 000e FB80     		strh	r3, [r7, #6]	@ movhi
1365:STM32Cube_FW_N6/Drivers/STM32N6xx_HAL_Driver/Src/stm32n6xx_hal_i2c.c ****   uint32_t tickstart;
1366:STM32Cube_FW_N6/Drivers/STM32N6xx_HAL_Driver/Src/stm32n6xx_hal_i2c.c ****   uint16_t tmpXferCount;
1367:STM32Cube_FW_N6/Drivers/STM32N6xx_HAL_Driver/Src/stm32n6xx_hal_i2c.c ****   HAL_StatusTypeDef error;
1368:STM32Cube_FW_N6/Drivers/STM32N6xx_HAL_Driver/Src/stm32n6xx_hal_i2c.c **** 
1369:STM32Cube_FW_N6/Drivers/STM32N6xx_HAL_Driver/Src/stm32n6xx_hal_i2c.c ****   if (hi2c->State == HAL_I2C_STATE_READY)
 1340              		.loc 1 1369 11
 1341 0010 FB68     		ldr	r3, [r7, #12]
 1342 0012 93F84130 		ldrb	r3, [r3, #65]
 1343 0016 DBB2     		uxtb	r3, r3
 1344              		.loc 1 1369 6
 1345 0018 202B     		cmp	r3, #32
 1346 001a 40F03981 		bne	.L60
1370:STM32Cube_FW_N6/Drivers/STM32N6xx_HAL_Driver/Src/stm32n6xx_hal_i2c.c ****   {
1371:STM32Cube_FW_N6/Drivers/STM32N6xx_HAL_Driver/Src/stm32n6xx_hal_i2c.c ****     if ((pData == NULL) || (Size == 0U))
 1347              		.loc 1 1371 8
 1348 001e BB68     		ldr	r3, [r7, #8]
 1349 0020 002B     		cmp	r3, #0
 1350 0022 02D0     		beq	.L61
 1351              		.loc 1 1371 25 discriminator 1
 1352 0024 FB88     		ldrh	r3, [r7, #6]
 1353 0026 002B     		cmp	r3, #0
 1354 0028 05D1     		bne	.L62
 1355              	.L61:
1372:STM32Cube_FW_N6/Drivers/STM32N6xx_HAL_Driver/Src/stm32n6xx_hal_i2c.c ****     {
1373:STM32Cube_FW_N6/Drivers/STM32N6xx_HAL_Driver/Src/stm32n6xx_hal_i2c.c ****       hi2c->ErrorCode = HAL_I2C_ERROR_INVALID_PARAM;
 1356              		.loc 1 1373 23
 1357 002a FB68     		ldr	r3, [r7, #12]
 1358 002c 4FF40072 		mov	r2, #512
 1359 0030 5A64     		str	r2, [r3, #68]
1374:STM32Cube_FW_N6/Drivers/STM32N6xx_HAL_Driver/Src/stm32n6xx_hal_i2c.c ****       return  HAL_ERROR;
 1360              		.loc 1 1374 15
ARM GAS  /tmp/ccrxElPM.s 			page 49


 1361 0032 0123     		movs	r3, #1
 1362 0034 2DE1     		b	.L63
 1363              	.L62:
1375:STM32Cube_FW_N6/Drivers/STM32N6xx_HAL_Driver/Src/stm32n6xx_hal_i2c.c ****     }
1376:STM32Cube_FW_N6/Drivers/STM32N6xx_HAL_Driver/Src/stm32n6xx_hal_i2c.c ****     /* Process Locked */
1377:STM32Cube_FW_N6/Drivers/STM32N6xx_HAL_Driver/Src/stm32n6xx_hal_i2c.c ****     __HAL_LOCK(hi2c);
 1364              		.loc 1 1377 5
 1365 0036 FB68     		ldr	r3, [r7, #12]
 1366 0038 93F84030 		ldrb	r3, [r3, #64]	@ zero_extendqisi2
 1367 003c 012B     		cmp	r3, #1
 1368 003e 01D1     		bne	.L64
 1369              		.loc 1 1377 5 is_stmt 0 discriminator 1
 1370 0040 0223     		movs	r3, #2
 1371              		.loc 1 1377 5
 1372 0042 26E1     		b	.L63
 1373              	.L64:
 1374              		.loc 1 1377 5 discriminator 2
 1375 0044 FB68     		ldr	r3, [r7, #12]
 1376 0046 0122     		movs	r2, #1
 1377 0048 83F84020 		strb	r2, [r3, #64]
1378:STM32Cube_FW_N6/Drivers/STM32N6xx_HAL_Driver/Src/stm32n6xx_hal_i2c.c **** 
1379:STM32Cube_FW_N6/Drivers/STM32N6xx_HAL_Driver/Src/stm32n6xx_hal_i2c.c ****     /* Init tickstart for timeout management*/
1380:STM32Cube_FW_N6/Drivers/STM32N6xx_HAL_Driver/Src/stm32n6xx_hal_i2c.c ****     tickstart = HAL_GetTick();
 1378              		.loc 1 1380 17 is_stmt 1
 1379 004c FFF7FEFF 		bl	HAL_GetTick
 1380 0050 7861     		str	r0, [r7, #20]
1381:STM32Cube_FW_N6/Drivers/STM32N6xx_HAL_Driver/Src/stm32n6xx_hal_i2c.c **** 
1382:STM32Cube_FW_N6/Drivers/STM32N6xx_HAL_Driver/Src/stm32n6xx_hal_i2c.c ****     hi2c->State     = HAL_I2C_STATE_BUSY_TX;
 1381              		.loc 1 1382 21
 1382 0052 FB68     		ldr	r3, [r7, #12]
 1383 0054 2122     		movs	r2, #33
 1384 0056 83F84120 		strb	r2, [r3, #65]
1383:STM32Cube_FW_N6/Drivers/STM32N6xx_HAL_Driver/Src/stm32n6xx_hal_i2c.c ****     hi2c->Mode      = HAL_I2C_MODE_SLAVE;
 1385              		.loc 1 1383 21
 1386 005a FB68     		ldr	r3, [r7, #12]
 1387 005c 2022     		movs	r2, #32
 1388 005e 83F84220 		strb	r2, [r3, #66]
1384:STM32Cube_FW_N6/Drivers/STM32N6xx_HAL_Driver/Src/stm32n6xx_hal_i2c.c ****     hi2c->ErrorCode = HAL_I2C_ERROR_NONE;
 1389              		.loc 1 1384 21
 1390 0062 FB68     		ldr	r3, [r7, #12]
 1391 0064 0022     		movs	r2, #0
 1392 0066 5A64     		str	r2, [r3, #68]
1385:STM32Cube_FW_N6/Drivers/STM32N6xx_HAL_Driver/Src/stm32n6xx_hal_i2c.c **** 
1386:STM32Cube_FW_N6/Drivers/STM32N6xx_HAL_Driver/Src/stm32n6xx_hal_i2c.c ****     /* Prepare transfer parameters */
1387:STM32Cube_FW_N6/Drivers/STM32N6xx_HAL_Driver/Src/stm32n6xx_hal_i2c.c ****     hi2c->pBuffPtr  = pData;
 1393              		.loc 1 1387 21
 1394 0068 FB68     		ldr	r3, [r7, #12]
 1395 006a BA68     		ldr	r2, [r7, #8]
 1396 006c 5A62     		str	r2, [r3, #36]
1388:STM32Cube_FW_N6/Drivers/STM32N6xx_HAL_Driver/Src/stm32n6xx_hal_i2c.c ****     hi2c->XferCount = Size;
 1397              		.loc 1 1388 21
 1398 006e FB68     		ldr	r3, [r7, #12]
 1399 0070 FA88     		ldrh	r2, [r7, #6]	@ movhi
 1400 0072 5A85     		strh	r2, [r3, #42]	@ movhi
1389:STM32Cube_FW_N6/Drivers/STM32N6xx_HAL_Driver/Src/stm32n6xx_hal_i2c.c ****     hi2c->XferISR   = NULL;
 1401              		.loc 1 1389 21
 1402 0074 FB68     		ldr	r3, [r7, #12]
ARM GAS  /tmp/ccrxElPM.s 			page 50


 1403 0076 0022     		movs	r2, #0
 1404 0078 5A63     		str	r2, [r3, #52]
1390:STM32Cube_FW_N6/Drivers/STM32N6xx_HAL_Driver/Src/stm32n6xx_hal_i2c.c **** 
1391:STM32Cube_FW_N6/Drivers/STM32N6xx_HAL_Driver/Src/stm32n6xx_hal_i2c.c ****     /* Enable Address Acknowledge */
1392:STM32Cube_FW_N6/Drivers/STM32N6xx_HAL_Driver/Src/stm32n6xx_hal_i2c.c ****     hi2c->Instance->CR2 &= ~I2C_CR2_NACK;
 1405              		.loc 1 1392 9
 1406 007a FB68     		ldr	r3, [r7, #12]
 1407 007c 1B68     		ldr	r3, [r3]
 1408              		.loc 1 1392 19
 1409 007e 5A68     		ldr	r2, [r3, #4]
 1410              		.loc 1 1392 9
 1411 0080 FB68     		ldr	r3, [r7, #12]
 1412 0082 1B68     		ldr	r3, [r3]
 1413              		.loc 1 1392 25
 1414 0084 22F40042 		bic	r2, r2, #32768
 1415 0088 5A60     		str	r2, [r3, #4]
1393:STM32Cube_FW_N6/Drivers/STM32N6xx_HAL_Driver/Src/stm32n6xx_hal_i2c.c **** 
1394:STM32Cube_FW_N6/Drivers/STM32N6xx_HAL_Driver/Src/stm32n6xx_hal_i2c.c ****     /* Preload TX data if no stretch enable */
1395:STM32Cube_FW_N6/Drivers/STM32N6xx_HAL_Driver/Src/stm32n6xx_hal_i2c.c ****     if (hi2c->Init.NoStretchMode == I2C_NOSTRETCH_ENABLE)
 1416              		.loc 1 1395 19
 1417 008a FB68     		ldr	r3, [r7, #12]
 1418 008c 1B6A     		ldr	r3, [r3, #32]
 1419              		.loc 1 1395 8
 1420 008e B3F5003F 		cmp	r3, #131072
 1421 0092 11D1     		bne	.L65
1396:STM32Cube_FW_N6/Drivers/STM32N6xx_HAL_Driver/Src/stm32n6xx_hal_i2c.c ****     {
1397:STM32Cube_FW_N6/Drivers/STM32N6xx_HAL_Driver/Src/stm32n6xx_hal_i2c.c ****       /* Preload TX register */
1398:STM32Cube_FW_N6/Drivers/STM32N6xx_HAL_Driver/Src/stm32n6xx_hal_i2c.c ****       /* Write data to TXDR */
1399:STM32Cube_FW_N6/Drivers/STM32N6xx_HAL_Driver/Src/stm32n6xx_hal_i2c.c ****       hi2c->Instance->TXDR = *hi2c->pBuffPtr;
 1422              		.loc 1 1399 35
 1423 0094 FB68     		ldr	r3, [r7, #12]
 1424 0096 5B6A     		ldr	r3, [r3, #36]
 1425              		.loc 1 1399 30
 1426 0098 1A78     		ldrb	r2, [r3]	@ zero_extendqisi2
 1427              		.loc 1 1399 11
 1428 009a FB68     		ldr	r3, [r7, #12]
 1429 009c 1B68     		ldr	r3, [r3]
 1430              		.loc 1 1399 28
 1431 009e 9A62     		str	r2, [r3, #40]
1400:STM32Cube_FW_N6/Drivers/STM32N6xx_HAL_Driver/Src/stm32n6xx_hal_i2c.c **** 
1401:STM32Cube_FW_N6/Drivers/STM32N6xx_HAL_Driver/Src/stm32n6xx_hal_i2c.c ****       /* Increment Buffer pointer */
1402:STM32Cube_FW_N6/Drivers/STM32N6xx_HAL_Driver/Src/stm32n6xx_hal_i2c.c ****       hi2c->pBuffPtr++;
 1432              		.loc 1 1402 11
 1433 00a0 FB68     		ldr	r3, [r7, #12]
 1434 00a2 5B6A     		ldr	r3, [r3, #36]
 1435              		.loc 1 1402 21
 1436 00a4 5A1C     		adds	r2, r3, #1
 1437 00a6 FB68     		ldr	r3, [r7, #12]
 1438 00a8 5A62     		str	r2, [r3, #36]
1403:STM32Cube_FW_N6/Drivers/STM32N6xx_HAL_Driver/Src/stm32n6xx_hal_i2c.c **** 
1404:STM32Cube_FW_N6/Drivers/STM32N6xx_HAL_Driver/Src/stm32n6xx_hal_i2c.c ****       hi2c->XferCount--;
 1439              		.loc 1 1404 11
 1440 00aa FB68     		ldr	r3, [r7, #12]
 1441 00ac 5B8D     		ldrh	r3, [r3, #42]	@ movhi
 1442 00ae 9BB2     		uxth	r3, r3
 1443              		.loc 1 1404 22
 1444 00b0 013B     		subs	r3, r3, #1
ARM GAS  /tmp/ccrxElPM.s 			page 51


 1445 00b2 9AB2     		uxth	r2, r3
 1446 00b4 FB68     		ldr	r3, [r7, #12]
 1447 00b6 5A85     		strh	r2, [r3, #42]	@ movhi
 1448              	.L65:
1405:STM32Cube_FW_N6/Drivers/STM32N6xx_HAL_Driver/Src/stm32n6xx_hal_i2c.c ****     }
1406:STM32Cube_FW_N6/Drivers/STM32N6xx_HAL_Driver/Src/stm32n6xx_hal_i2c.c **** 
1407:STM32Cube_FW_N6/Drivers/STM32N6xx_HAL_Driver/Src/stm32n6xx_hal_i2c.c ****     /* Wait until ADDR flag is set */
1408:STM32Cube_FW_N6/Drivers/STM32N6xx_HAL_Driver/Src/stm32n6xx_hal_i2c.c ****     if (I2C_WaitOnFlagUntilTimeout(hi2c, I2C_FLAG_ADDR, RESET, Timeout, tickstart) != HAL_OK)
 1449              		.loc 1 1408 9
 1450 00b8 7B69     		ldr	r3, [r7, #20]
 1451 00ba 0093     		str	r3, [sp]
 1452 00bc 3B68     		ldr	r3, [r7]
 1453 00be 0022     		movs	r2, #0
 1454 00c0 0821     		movs	r1, #8
 1455 00c2 F868     		ldr	r0, [r7, #12]
 1456 00c4 FFF7FEFF 		bl	I2C_WaitOnFlagUntilTimeout
 1457 00c8 0346     		mov	r3, r0
 1458              		.loc 1 1408 8 discriminator 1
 1459 00ca 002B     		cmp	r3, #0
 1460 00cc 0CD0     		beq	.L66
1409:STM32Cube_FW_N6/Drivers/STM32N6xx_HAL_Driver/Src/stm32n6xx_hal_i2c.c ****     {
1410:STM32Cube_FW_N6/Drivers/STM32N6xx_HAL_Driver/Src/stm32n6xx_hal_i2c.c ****       /* Disable Address Acknowledge */
1411:STM32Cube_FW_N6/Drivers/STM32N6xx_HAL_Driver/Src/stm32n6xx_hal_i2c.c ****       hi2c->Instance->CR2 |= I2C_CR2_NACK;
 1461              		.loc 1 1411 11
 1462 00ce FB68     		ldr	r3, [r7, #12]
 1463 00d0 1B68     		ldr	r3, [r3]
 1464              		.loc 1 1411 21
 1465 00d2 5A68     		ldr	r2, [r3, #4]
 1466              		.loc 1 1411 11
 1467 00d4 FB68     		ldr	r3, [r7, #12]
 1468 00d6 1B68     		ldr	r3, [r3]
 1469              		.loc 1 1411 27
 1470 00d8 42F40042 		orr	r2, r2, #32768
 1471 00dc 5A60     		str	r2, [r3, #4]
1412:STM32Cube_FW_N6/Drivers/STM32N6xx_HAL_Driver/Src/stm32n6xx_hal_i2c.c **** 
1413:STM32Cube_FW_N6/Drivers/STM32N6xx_HAL_Driver/Src/stm32n6xx_hal_i2c.c ****       /* Flush TX register */
1414:STM32Cube_FW_N6/Drivers/STM32N6xx_HAL_Driver/Src/stm32n6xx_hal_i2c.c ****       I2C_Flush_TXDR(hi2c);
 1472              		.loc 1 1414 7
 1473 00de F868     		ldr	r0, [r7, #12]
 1474 00e0 FFF7FEFF 		bl	I2C_Flush_TXDR
1415:STM32Cube_FW_N6/Drivers/STM32N6xx_HAL_Driver/Src/stm32n6xx_hal_i2c.c **** 
1416:STM32Cube_FW_N6/Drivers/STM32N6xx_HAL_Driver/Src/stm32n6xx_hal_i2c.c ****       return HAL_ERROR;
 1475              		.loc 1 1416 14
 1476 00e4 0123     		movs	r3, #1
 1477 00e6 D4E0     		b	.L63
 1478              	.L66:
1417:STM32Cube_FW_N6/Drivers/STM32N6xx_HAL_Driver/Src/stm32n6xx_hal_i2c.c ****     }
1418:STM32Cube_FW_N6/Drivers/STM32N6xx_HAL_Driver/Src/stm32n6xx_hal_i2c.c **** 
1419:STM32Cube_FW_N6/Drivers/STM32N6xx_HAL_Driver/Src/stm32n6xx_hal_i2c.c ****     /* Clear ADDR flag */
1420:STM32Cube_FW_N6/Drivers/STM32N6xx_HAL_Driver/Src/stm32n6xx_hal_i2c.c ****     __HAL_I2C_CLEAR_FLAG(hi2c, I2C_FLAG_ADDR);
 1479              		.loc 1 1420 5
 1480 00e8 FB68     		ldr	r3, [r7, #12]
 1481 00ea 1B68     		ldr	r3, [r3]
 1482 00ec 0822     		movs	r2, #8
 1483 00ee DA61     		str	r2, [r3, #28]
1421:STM32Cube_FW_N6/Drivers/STM32N6xx_HAL_Driver/Src/stm32n6xx_hal_i2c.c **** 
1422:STM32Cube_FW_N6/Drivers/STM32N6xx_HAL_Driver/Src/stm32n6xx_hal_i2c.c ****     /* If 10bit addressing mode is selected */
ARM GAS  /tmp/ccrxElPM.s 			page 52


1423:STM32Cube_FW_N6/Drivers/STM32N6xx_HAL_Driver/Src/stm32n6xx_hal_i2c.c ****     if (hi2c->Init.AddressingMode == I2C_ADDRESSINGMODE_10BIT)
 1484              		.loc 1 1423 19
 1485 00f0 FB68     		ldr	r3, [r7, #12]
 1486 00f2 DB68     		ldr	r3, [r3, #12]
 1487              		.loc 1 1423 8
 1488 00f4 022B     		cmp	r3, #2
 1489 00f6 1BD1     		bne	.L67
1424:STM32Cube_FW_N6/Drivers/STM32N6xx_HAL_Driver/Src/stm32n6xx_hal_i2c.c ****     {
1425:STM32Cube_FW_N6/Drivers/STM32N6xx_HAL_Driver/Src/stm32n6xx_hal_i2c.c ****       /* Wait until ADDR flag is set */
1426:STM32Cube_FW_N6/Drivers/STM32N6xx_HAL_Driver/Src/stm32n6xx_hal_i2c.c ****       if (I2C_WaitOnFlagUntilTimeout(hi2c, I2C_FLAG_ADDR, RESET, Timeout, tickstart) != HAL_OK)
 1490              		.loc 1 1426 11
 1491 00f8 7B69     		ldr	r3, [r7, #20]
 1492 00fa 0093     		str	r3, [sp]
 1493 00fc 3B68     		ldr	r3, [r7]
 1494 00fe 0022     		movs	r2, #0
 1495 0100 0821     		movs	r1, #8
 1496 0102 F868     		ldr	r0, [r7, #12]
 1497 0104 FFF7FEFF 		bl	I2C_WaitOnFlagUntilTimeout
 1498 0108 0346     		mov	r3, r0
 1499              		.loc 1 1426 10 discriminator 1
 1500 010a 002B     		cmp	r3, #0
 1501 010c 0CD0     		beq	.L68
1427:STM32Cube_FW_N6/Drivers/STM32N6xx_HAL_Driver/Src/stm32n6xx_hal_i2c.c ****       {
1428:STM32Cube_FW_N6/Drivers/STM32N6xx_HAL_Driver/Src/stm32n6xx_hal_i2c.c ****         /* Disable Address Acknowledge */
1429:STM32Cube_FW_N6/Drivers/STM32N6xx_HAL_Driver/Src/stm32n6xx_hal_i2c.c ****         hi2c->Instance->CR2 |= I2C_CR2_NACK;
 1502              		.loc 1 1429 13
 1503 010e FB68     		ldr	r3, [r7, #12]
 1504 0110 1B68     		ldr	r3, [r3]
 1505              		.loc 1 1429 23
 1506 0112 5A68     		ldr	r2, [r3, #4]
 1507              		.loc 1 1429 13
 1508 0114 FB68     		ldr	r3, [r7, #12]
 1509 0116 1B68     		ldr	r3, [r3]
 1510              		.loc 1 1429 29
 1511 0118 42F40042 		orr	r2, r2, #32768
 1512 011c 5A60     		str	r2, [r3, #4]
1430:STM32Cube_FW_N6/Drivers/STM32N6xx_HAL_Driver/Src/stm32n6xx_hal_i2c.c **** 
1431:STM32Cube_FW_N6/Drivers/STM32N6xx_HAL_Driver/Src/stm32n6xx_hal_i2c.c ****         /* Flush TX register */
1432:STM32Cube_FW_N6/Drivers/STM32N6xx_HAL_Driver/Src/stm32n6xx_hal_i2c.c ****         I2C_Flush_TXDR(hi2c);
 1513              		.loc 1 1432 9
 1514 011e F868     		ldr	r0, [r7, #12]
 1515 0120 FFF7FEFF 		bl	I2C_Flush_TXDR
1433:STM32Cube_FW_N6/Drivers/STM32N6xx_HAL_Driver/Src/stm32n6xx_hal_i2c.c **** 
1434:STM32Cube_FW_N6/Drivers/STM32N6xx_HAL_Driver/Src/stm32n6xx_hal_i2c.c ****         return HAL_ERROR;
 1516              		.loc 1 1434 16
 1517 0124 0123     		movs	r3, #1
 1518 0126 B4E0     		b	.L63
 1519              	.L68:
1435:STM32Cube_FW_N6/Drivers/STM32N6xx_HAL_Driver/Src/stm32n6xx_hal_i2c.c ****       }
1436:STM32Cube_FW_N6/Drivers/STM32N6xx_HAL_Driver/Src/stm32n6xx_hal_i2c.c **** 
1437:STM32Cube_FW_N6/Drivers/STM32N6xx_HAL_Driver/Src/stm32n6xx_hal_i2c.c ****       /* Clear ADDR flag */
1438:STM32Cube_FW_N6/Drivers/STM32N6xx_HAL_Driver/Src/stm32n6xx_hal_i2c.c ****       __HAL_I2C_CLEAR_FLAG(hi2c, I2C_FLAG_ADDR);
 1520              		.loc 1 1438 7
 1521 0128 FB68     		ldr	r3, [r7, #12]
 1522 012a 1B68     		ldr	r3, [r3]
 1523 012c 0822     		movs	r2, #8
 1524 012e DA61     		str	r2, [r3, #28]
ARM GAS  /tmp/ccrxElPM.s 			page 53


 1525              	.L67:
1439:STM32Cube_FW_N6/Drivers/STM32N6xx_HAL_Driver/Src/stm32n6xx_hal_i2c.c ****     }
1440:STM32Cube_FW_N6/Drivers/STM32N6xx_HAL_Driver/Src/stm32n6xx_hal_i2c.c **** 
1441:STM32Cube_FW_N6/Drivers/STM32N6xx_HAL_Driver/Src/stm32n6xx_hal_i2c.c ****     /* Wait until DIR flag is set Transmitter mode */
1442:STM32Cube_FW_N6/Drivers/STM32N6xx_HAL_Driver/Src/stm32n6xx_hal_i2c.c ****     if (I2C_WaitOnFlagUntilTimeout(hi2c, I2C_FLAG_DIR, RESET, Timeout, tickstart) != HAL_OK)
 1526              		.loc 1 1442 9
 1527 0130 7B69     		ldr	r3, [r7, #20]
 1528 0132 0093     		str	r3, [sp]
 1529 0134 3B68     		ldr	r3, [r7]
 1530 0136 0022     		movs	r2, #0
 1531 0138 4FF48031 		mov	r1, #65536
 1532 013c F868     		ldr	r0, [r7, #12]
 1533 013e FFF7FEFF 		bl	I2C_WaitOnFlagUntilTimeout
 1534 0142 0346     		mov	r3, r0
 1535              		.loc 1 1442 8 discriminator 1
 1536 0144 002B     		cmp	r3, #0
 1537 0146 30D0     		beq	.L70
1443:STM32Cube_FW_N6/Drivers/STM32N6xx_HAL_Driver/Src/stm32n6xx_hal_i2c.c ****     {
1444:STM32Cube_FW_N6/Drivers/STM32N6xx_HAL_Driver/Src/stm32n6xx_hal_i2c.c ****       /* Disable Address Acknowledge */
1445:STM32Cube_FW_N6/Drivers/STM32N6xx_HAL_Driver/Src/stm32n6xx_hal_i2c.c ****       hi2c->Instance->CR2 |= I2C_CR2_NACK;
 1538              		.loc 1 1445 11
 1539 0148 FB68     		ldr	r3, [r7, #12]
 1540 014a 1B68     		ldr	r3, [r3]
 1541              		.loc 1 1445 21
 1542 014c 5A68     		ldr	r2, [r3, #4]
 1543              		.loc 1 1445 11
 1544 014e FB68     		ldr	r3, [r7, #12]
 1545 0150 1B68     		ldr	r3, [r3]
 1546              		.loc 1 1445 27
 1547 0152 42F40042 		orr	r2, r2, #32768
 1548 0156 5A60     		str	r2, [r3, #4]
1446:STM32Cube_FW_N6/Drivers/STM32N6xx_HAL_Driver/Src/stm32n6xx_hal_i2c.c **** 
1447:STM32Cube_FW_N6/Drivers/STM32N6xx_HAL_Driver/Src/stm32n6xx_hal_i2c.c ****       /* Flush TX register */
1448:STM32Cube_FW_N6/Drivers/STM32N6xx_HAL_Driver/Src/stm32n6xx_hal_i2c.c ****       I2C_Flush_TXDR(hi2c);
 1549              		.loc 1 1448 7
 1550 0158 F868     		ldr	r0, [r7, #12]
 1551 015a FFF7FEFF 		bl	I2C_Flush_TXDR
1449:STM32Cube_FW_N6/Drivers/STM32N6xx_HAL_Driver/Src/stm32n6xx_hal_i2c.c **** 
1450:STM32Cube_FW_N6/Drivers/STM32N6xx_HAL_Driver/Src/stm32n6xx_hal_i2c.c ****       return HAL_ERROR;
 1552              		.loc 1 1450 14
 1553 015e 0123     		movs	r3, #1
 1554 0160 97E0     		b	.L63
 1555              	.L72:
1451:STM32Cube_FW_N6/Drivers/STM32N6xx_HAL_Driver/Src/stm32n6xx_hal_i2c.c ****     }
1452:STM32Cube_FW_N6/Drivers/STM32N6xx_HAL_Driver/Src/stm32n6xx_hal_i2c.c **** 
1453:STM32Cube_FW_N6/Drivers/STM32N6xx_HAL_Driver/Src/stm32n6xx_hal_i2c.c ****     while (hi2c->XferCount > 0U)
1454:STM32Cube_FW_N6/Drivers/STM32N6xx_HAL_Driver/Src/stm32n6xx_hal_i2c.c ****     {
1455:STM32Cube_FW_N6/Drivers/STM32N6xx_HAL_Driver/Src/stm32n6xx_hal_i2c.c ****       /* Wait until TXIS flag is set */
1456:STM32Cube_FW_N6/Drivers/STM32N6xx_HAL_Driver/Src/stm32n6xx_hal_i2c.c ****       if (I2C_WaitOnTXISFlagUntilTimeout(hi2c, Timeout, tickstart) != HAL_OK)
 1556              		.loc 1 1456 11
 1557 0162 7A69     		ldr	r2, [r7, #20]
 1558 0164 3968     		ldr	r1, [r7]
 1559 0166 F868     		ldr	r0, [r7, #12]
 1560 0168 FFF7FEFF 		bl	I2C_WaitOnTXISFlagUntilTimeout
 1561 016c 0346     		mov	r3, r0
 1562              		.loc 1 1456 10 discriminator 1
 1563 016e 002B     		cmp	r3, #0
ARM GAS  /tmp/ccrxElPM.s 			page 54


 1564 0170 09D0     		beq	.L71
1457:STM32Cube_FW_N6/Drivers/STM32N6xx_HAL_Driver/Src/stm32n6xx_hal_i2c.c ****       {
1458:STM32Cube_FW_N6/Drivers/STM32N6xx_HAL_Driver/Src/stm32n6xx_hal_i2c.c ****         /* Disable Address Acknowledge */
1459:STM32Cube_FW_N6/Drivers/STM32N6xx_HAL_Driver/Src/stm32n6xx_hal_i2c.c ****         hi2c->Instance->CR2 |= I2C_CR2_NACK;
 1565              		.loc 1 1459 13
 1566 0172 FB68     		ldr	r3, [r7, #12]
 1567 0174 1B68     		ldr	r3, [r3]
 1568              		.loc 1 1459 23
 1569 0176 5A68     		ldr	r2, [r3, #4]
 1570              		.loc 1 1459 13
 1571 0178 FB68     		ldr	r3, [r7, #12]
 1572 017a 1B68     		ldr	r3, [r3]
 1573              		.loc 1 1459 29
 1574 017c 42F40042 		orr	r2, r2, #32768
 1575 0180 5A60     		str	r2, [r3, #4]
1460:STM32Cube_FW_N6/Drivers/STM32N6xx_HAL_Driver/Src/stm32n6xx_hal_i2c.c ****         return HAL_ERROR;
 1576              		.loc 1 1460 16
 1577 0182 0123     		movs	r3, #1
 1578 0184 85E0     		b	.L63
 1579              	.L71:
1461:STM32Cube_FW_N6/Drivers/STM32N6xx_HAL_Driver/Src/stm32n6xx_hal_i2c.c ****       }
1462:STM32Cube_FW_N6/Drivers/STM32N6xx_HAL_Driver/Src/stm32n6xx_hal_i2c.c **** 
1463:STM32Cube_FW_N6/Drivers/STM32N6xx_HAL_Driver/Src/stm32n6xx_hal_i2c.c ****       /* Write data to TXDR */
1464:STM32Cube_FW_N6/Drivers/STM32N6xx_HAL_Driver/Src/stm32n6xx_hal_i2c.c ****       hi2c->Instance->TXDR = *hi2c->pBuffPtr;
 1580              		.loc 1 1464 35
 1581 0186 FB68     		ldr	r3, [r7, #12]
 1582 0188 5B6A     		ldr	r3, [r3, #36]
 1583              		.loc 1 1464 30
 1584 018a 1A78     		ldrb	r2, [r3]	@ zero_extendqisi2
 1585              		.loc 1 1464 11
 1586 018c FB68     		ldr	r3, [r7, #12]
 1587 018e 1B68     		ldr	r3, [r3]
 1588              		.loc 1 1464 28
 1589 0190 9A62     		str	r2, [r3, #40]
1465:STM32Cube_FW_N6/Drivers/STM32N6xx_HAL_Driver/Src/stm32n6xx_hal_i2c.c **** 
1466:STM32Cube_FW_N6/Drivers/STM32N6xx_HAL_Driver/Src/stm32n6xx_hal_i2c.c ****       /* Increment Buffer pointer */
1467:STM32Cube_FW_N6/Drivers/STM32N6xx_HAL_Driver/Src/stm32n6xx_hal_i2c.c ****       hi2c->pBuffPtr++;
 1590              		.loc 1 1467 11
 1591 0192 FB68     		ldr	r3, [r7, #12]
 1592 0194 5B6A     		ldr	r3, [r3, #36]
 1593              		.loc 1 1467 21
 1594 0196 5A1C     		adds	r2, r3, #1
 1595 0198 FB68     		ldr	r3, [r7, #12]
 1596 019a 5A62     		str	r2, [r3, #36]
1468:STM32Cube_FW_N6/Drivers/STM32N6xx_HAL_Driver/Src/stm32n6xx_hal_i2c.c **** 
1469:STM32Cube_FW_N6/Drivers/STM32N6xx_HAL_Driver/Src/stm32n6xx_hal_i2c.c ****       hi2c->XferCount--;
 1597              		.loc 1 1469 11
 1598 019c FB68     		ldr	r3, [r7, #12]
 1599 019e 5B8D     		ldrh	r3, [r3, #42]	@ movhi
 1600 01a0 9BB2     		uxth	r3, r3
 1601              		.loc 1 1469 22
 1602 01a2 013B     		subs	r3, r3, #1
 1603 01a4 9AB2     		uxth	r2, r3
 1604 01a6 FB68     		ldr	r3, [r7, #12]
 1605 01a8 5A85     		strh	r2, [r3, #42]	@ movhi
 1606              	.L70:
1453:STM32Cube_FW_N6/Drivers/STM32N6xx_HAL_Driver/Src/stm32n6xx_hal_i2c.c ****     {
ARM GAS  /tmp/ccrxElPM.s 			page 55


 1607              		.loc 1 1453 16
 1608 01aa FB68     		ldr	r3, [r7, #12]
 1609 01ac 5B8D     		ldrh	r3, [r3, #42]	@ movhi
 1610 01ae 9BB2     		uxth	r3, r3
1453:STM32Cube_FW_N6/Drivers/STM32N6xx_HAL_Driver/Src/stm32n6xx_hal_i2c.c ****     {
 1611              		.loc 1 1453 28
 1612 01b0 002B     		cmp	r3, #0
 1613 01b2 D6D1     		bne	.L72
1470:STM32Cube_FW_N6/Drivers/STM32N6xx_HAL_Driver/Src/stm32n6xx_hal_i2c.c ****     }
1471:STM32Cube_FW_N6/Drivers/STM32N6xx_HAL_Driver/Src/stm32n6xx_hal_i2c.c **** 
1472:STM32Cube_FW_N6/Drivers/STM32N6xx_HAL_Driver/Src/stm32n6xx_hal_i2c.c ****     /* Wait until AF flag is set */
1473:STM32Cube_FW_N6/Drivers/STM32N6xx_HAL_Driver/Src/stm32n6xx_hal_i2c.c ****     error = I2C_WaitOnFlagUntilTimeout(hi2c, I2C_FLAG_AF, RESET, Timeout, tickstart);
 1614              		.loc 1 1473 13
 1615 01b4 7B69     		ldr	r3, [r7, #20]
 1616 01b6 0093     		str	r3, [sp]
 1617 01b8 3B68     		ldr	r3, [r7]
 1618 01ba 0022     		movs	r2, #0
 1619 01bc 1021     		movs	r1, #16
 1620 01be F868     		ldr	r0, [r7, #12]
 1621 01c0 FFF7FEFF 		bl	I2C_WaitOnFlagUntilTimeout
 1622 01c4 0346     		mov	r3, r0
 1623 01c6 FB74     		strb	r3, [r7, #19]
1474:STM32Cube_FW_N6/Drivers/STM32N6xx_HAL_Driver/Src/stm32n6xx_hal_i2c.c **** 
1475:STM32Cube_FW_N6/Drivers/STM32N6xx_HAL_Driver/Src/stm32n6xx_hal_i2c.c ****     if (error != HAL_OK)
 1624              		.loc 1 1475 8
 1625 01c8 FB7C     		ldrb	r3, [r7, #19]	@ zero_extendqisi2
 1626 01ca 002B     		cmp	r3, #0
 1627 01cc 17D0     		beq	.L73
1476:STM32Cube_FW_N6/Drivers/STM32N6xx_HAL_Driver/Src/stm32n6xx_hal_i2c.c ****     {
1477:STM32Cube_FW_N6/Drivers/STM32N6xx_HAL_Driver/Src/stm32n6xx_hal_i2c.c ****       /* Check that I2C transfer finished */
1478:STM32Cube_FW_N6/Drivers/STM32N6xx_HAL_Driver/Src/stm32n6xx_hal_i2c.c ****       /* if yes, normal use case, a NACK is sent by the MASTER when Transfer is finished */
1479:STM32Cube_FW_N6/Drivers/STM32N6xx_HAL_Driver/Src/stm32n6xx_hal_i2c.c ****       /* Mean XferCount == 0 */
1480:STM32Cube_FW_N6/Drivers/STM32N6xx_HAL_Driver/Src/stm32n6xx_hal_i2c.c **** 
1481:STM32Cube_FW_N6/Drivers/STM32N6xx_HAL_Driver/Src/stm32n6xx_hal_i2c.c ****       tmpXferCount = hi2c->XferCount;
 1628              		.loc 1 1481 20
 1629 01ce FB68     		ldr	r3, [r7, #12]
 1630 01d0 5B8D     		ldrh	r3, [r3, #42]	@ movhi
 1631 01d2 3B82     		strh	r3, [r7, #16]	@ movhi
1482:STM32Cube_FW_N6/Drivers/STM32N6xx_HAL_Driver/Src/stm32n6xx_hal_i2c.c ****       if ((hi2c->ErrorCode == HAL_I2C_ERROR_AF) && (tmpXferCount == 0U))
 1632              		.loc 1 1482 16
 1633 01d4 FB68     		ldr	r3, [r7, #12]
 1634 01d6 5B6C     		ldr	r3, [r3, #68]
 1635              		.loc 1 1482 10
 1636 01d8 042B     		cmp	r3, #4
 1637 01da 06D1     		bne	.L74
 1638              		.loc 1 1482 49 discriminator 1
 1639 01dc 3B8A     		ldrh	r3, [r7, #16]
 1640 01de 002B     		cmp	r3, #0
 1641 01e0 03D1     		bne	.L74
1483:STM32Cube_FW_N6/Drivers/STM32N6xx_HAL_Driver/Src/stm32n6xx_hal_i2c.c ****       {
1484:STM32Cube_FW_N6/Drivers/STM32N6xx_HAL_Driver/Src/stm32n6xx_hal_i2c.c ****         /* Reset ErrorCode to NONE */
1485:STM32Cube_FW_N6/Drivers/STM32N6xx_HAL_Driver/Src/stm32n6xx_hal_i2c.c ****         hi2c->ErrorCode = HAL_I2C_ERROR_NONE;
 1642              		.loc 1 1485 25
 1643 01e2 FB68     		ldr	r3, [r7, #12]
 1644 01e4 0022     		movs	r2, #0
 1645 01e6 5A64     		str	r2, [r3, #68]
 1646 01e8 26E0     		b	.L75
ARM GAS  /tmp/ccrxElPM.s 			page 56


 1647              	.L74:
1486:STM32Cube_FW_N6/Drivers/STM32N6xx_HAL_Driver/Src/stm32n6xx_hal_i2c.c ****       }
1487:STM32Cube_FW_N6/Drivers/STM32N6xx_HAL_Driver/Src/stm32n6xx_hal_i2c.c ****       else
1488:STM32Cube_FW_N6/Drivers/STM32N6xx_HAL_Driver/Src/stm32n6xx_hal_i2c.c ****       {
1489:STM32Cube_FW_N6/Drivers/STM32N6xx_HAL_Driver/Src/stm32n6xx_hal_i2c.c ****         /* Disable Address Acknowledge */
1490:STM32Cube_FW_N6/Drivers/STM32N6xx_HAL_Driver/Src/stm32n6xx_hal_i2c.c ****         hi2c->Instance->CR2 |= I2C_CR2_NACK;
 1648              		.loc 1 1490 13
 1649 01ea FB68     		ldr	r3, [r7, #12]
 1650 01ec 1B68     		ldr	r3, [r3]
 1651              		.loc 1 1490 23
 1652 01ee 5A68     		ldr	r2, [r3, #4]
 1653              		.loc 1 1490 13
 1654 01f0 FB68     		ldr	r3, [r7, #12]
 1655 01f2 1B68     		ldr	r3, [r3]
 1656              		.loc 1 1490 29
 1657 01f4 42F40042 		orr	r2, r2, #32768
 1658 01f8 5A60     		str	r2, [r3, #4]
1491:STM32Cube_FW_N6/Drivers/STM32N6xx_HAL_Driver/Src/stm32n6xx_hal_i2c.c ****         return HAL_ERROR;
 1659              		.loc 1 1491 16
 1660 01fa 0123     		movs	r3, #1
 1661 01fc 49E0     		b	.L63
 1662              	.L73:
1492:STM32Cube_FW_N6/Drivers/STM32N6xx_HAL_Driver/Src/stm32n6xx_hal_i2c.c ****       }
1493:STM32Cube_FW_N6/Drivers/STM32N6xx_HAL_Driver/Src/stm32n6xx_hal_i2c.c ****     }
1494:STM32Cube_FW_N6/Drivers/STM32N6xx_HAL_Driver/Src/stm32n6xx_hal_i2c.c ****     else
1495:STM32Cube_FW_N6/Drivers/STM32N6xx_HAL_Driver/Src/stm32n6xx_hal_i2c.c ****     {
1496:STM32Cube_FW_N6/Drivers/STM32N6xx_HAL_Driver/Src/stm32n6xx_hal_i2c.c ****       /* Flush TX register */
1497:STM32Cube_FW_N6/Drivers/STM32N6xx_HAL_Driver/Src/stm32n6xx_hal_i2c.c ****       I2C_Flush_TXDR(hi2c);
 1663              		.loc 1 1497 7
 1664 01fe F868     		ldr	r0, [r7, #12]
 1665 0200 FFF7FEFF 		bl	I2C_Flush_TXDR
1498:STM32Cube_FW_N6/Drivers/STM32N6xx_HAL_Driver/Src/stm32n6xx_hal_i2c.c **** 
1499:STM32Cube_FW_N6/Drivers/STM32N6xx_HAL_Driver/Src/stm32n6xx_hal_i2c.c ****       /* Clear AF flag */
1500:STM32Cube_FW_N6/Drivers/STM32N6xx_HAL_Driver/Src/stm32n6xx_hal_i2c.c ****       __HAL_I2C_CLEAR_FLAG(hi2c, I2C_FLAG_AF);
 1666              		.loc 1 1500 7
 1667 0204 FB68     		ldr	r3, [r7, #12]
 1668 0206 1B68     		ldr	r3, [r3]
 1669 0208 1022     		movs	r2, #16
 1670 020a DA61     		str	r2, [r3, #28]
1501:STM32Cube_FW_N6/Drivers/STM32N6xx_HAL_Driver/Src/stm32n6xx_hal_i2c.c **** 
1502:STM32Cube_FW_N6/Drivers/STM32N6xx_HAL_Driver/Src/stm32n6xx_hal_i2c.c ****       /* Wait until STOP flag is set */
1503:STM32Cube_FW_N6/Drivers/STM32N6xx_HAL_Driver/Src/stm32n6xx_hal_i2c.c ****       if (I2C_WaitOnSTOPFlagUntilTimeout(hi2c, Timeout, tickstart) != HAL_OK)
 1671              		.loc 1 1503 11
 1672 020c 7A69     		ldr	r2, [r7, #20]
 1673 020e 3968     		ldr	r1, [r7]
 1674 0210 F868     		ldr	r0, [r7, #12]
 1675 0212 FFF7FEFF 		bl	I2C_WaitOnSTOPFlagUntilTimeout
 1676 0216 0346     		mov	r3, r0
 1677              		.loc 1 1503 10 discriminator 1
 1678 0218 002B     		cmp	r3, #0
 1679 021a 09D0     		beq	.L76
1504:STM32Cube_FW_N6/Drivers/STM32N6xx_HAL_Driver/Src/stm32n6xx_hal_i2c.c ****       {
1505:STM32Cube_FW_N6/Drivers/STM32N6xx_HAL_Driver/Src/stm32n6xx_hal_i2c.c ****         /* Disable Address Acknowledge */
1506:STM32Cube_FW_N6/Drivers/STM32N6xx_HAL_Driver/Src/stm32n6xx_hal_i2c.c ****         hi2c->Instance->CR2 |= I2C_CR2_NACK;
 1680              		.loc 1 1506 13
 1681 021c FB68     		ldr	r3, [r7, #12]
 1682 021e 1B68     		ldr	r3, [r3]
ARM GAS  /tmp/ccrxElPM.s 			page 57


 1683              		.loc 1 1506 23
 1684 0220 5A68     		ldr	r2, [r3, #4]
 1685              		.loc 1 1506 13
 1686 0222 FB68     		ldr	r3, [r7, #12]
 1687 0224 1B68     		ldr	r3, [r3]
 1688              		.loc 1 1506 29
 1689 0226 42F40042 		orr	r2, r2, #32768
 1690 022a 5A60     		str	r2, [r3, #4]
1507:STM32Cube_FW_N6/Drivers/STM32N6xx_HAL_Driver/Src/stm32n6xx_hal_i2c.c **** 
1508:STM32Cube_FW_N6/Drivers/STM32N6xx_HAL_Driver/Src/stm32n6xx_hal_i2c.c ****         return HAL_ERROR;
 1691              		.loc 1 1508 16
 1692 022c 0123     		movs	r3, #1
 1693 022e 30E0     		b	.L63
 1694              	.L76:
1509:STM32Cube_FW_N6/Drivers/STM32N6xx_HAL_Driver/Src/stm32n6xx_hal_i2c.c ****       }
1510:STM32Cube_FW_N6/Drivers/STM32N6xx_HAL_Driver/Src/stm32n6xx_hal_i2c.c **** 
1511:STM32Cube_FW_N6/Drivers/STM32N6xx_HAL_Driver/Src/stm32n6xx_hal_i2c.c ****       /* Clear STOP flag */
1512:STM32Cube_FW_N6/Drivers/STM32N6xx_HAL_Driver/Src/stm32n6xx_hal_i2c.c ****       __HAL_I2C_CLEAR_FLAG(hi2c, I2C_FLAG_STOPF);
 1695              		.loc 1 1512 7
 1696 0230 FB68     		ldr	r3, [r7, #12]
 1697 0232 1B68     		ldr	r3, [r3]
 1698 0234 2022     		movs	r2, #32
 1699 0236 DA61     		str	r2, [r3, #28]
 1700              	.L75:
1513:STM32Cube_FW_N6/Drivers/STM32N6xx_HAL_Driver/Src/stm32n6xx_hal_i2c.c ****     }
1514:STM32Cube_FW_N6/Drivers/STM32N6xx_HAL_Driver/Src/stm32n6xx_hal_i2c.c **** 
1515:STM32Cube_FW_N6/Drivers/STM32N6xx_HAL_Driver/Src/stm32n6xx_hal_i2c.c ****     /* Wait until BUSY flag is reset */
1516:STM32Cube_FW_N6/Drivers/STM32N6xx_HAL_Driver/Src/stm32n6xx_hal_i2c.c ****     if (I2C_WaitOnFlagUntilTimeout(hi2c, I2C_FLAG_BUSY, SET, Timeout, tickstart) != HAL_OK)
 1701              		.loc 1 1516 9
 1702 0238 7B69     		ldr	r3, [r7, #20]
 1703 023a 0093     		str	r3, [sp]
 1704 023c 3B68     		ldr	r3, [r7]
 1705 023e 0122     		movs	r2, #1
 1706 0240 4FF40041 		mov	r1, #32768
 1707 0244 F868     		ldr	r0, [r7, #12]
 1708 0246 FFF7FEFF 		bl	I2C_WaitOnFlagUntilTimeout
 1709 024a 0346     		mov	r3, r0
 1710              		.loc 1 1516 8 discriminator 1
 1711 024c 002B     		cmp	r3, #0
 1712 024e 09D0     		beq	.L77
1517:STM32Cube_FW_N6/Drivers/STM32N6xx_HAL_Driver/Src/stm32n6xx_hal_i2c.c ****     {
1518:STM32Cube_FW_N6/Drivers/STM32N6xx_HAL_Driver/Src/stm32n6xx_hal_i2c.c ****       /* Disable Address Acknowledge */
1519:STM32Cube_FW_N6/Drivers/STM32N6xx_HAL_Driver/Src/stm32n6xx_hal_i2c.c ****       hi2c->Instance->CR2 |= I2C_CR2_NACK;
 1713              		.loc 1 1519 11
 1714 0250 FB68     		ldr	r3, [r7, #12]
 1715 0252 1B68     		ldr	r3, [r3]
