ARM GAS  /tmp/ccRTEIeG.s 			page 1


   1              		.arch armv8.1-m.main
   2              		.fpu fpv5-d16
   3              		.arch_extension dsp
   4              		.arch_extension fp
   5              		.arch_extension fp.dp
   6              		.arch_extension mve
   7              		.arch_extension mve.fp
   8              		.eabi_attribute 5, "cortex-m55"
   9              		.eabi_attribute 28, 1
  10              		.eabi_attribute 20, 1
  11              		.eabi_attribute 21, 1
  12              		.eabi_attribute 23, 3
  13              		.eabi_attribute 24, 1
  14              		.eabi_attribute 25, 1
  15              		.eabi_attribute 26, 1
  16              		.eabi_attribute 30, 6
  17              		.eabi_attribute 34, 1
  18              		.eabi_attribute 38, 1
  19              		.eabi_attribute 18, 4
  20              		.file	"stm32n6xx_hal_rif.c"
  21              		.text
  22              	.Ltext0:
  23              		.cfi_sections	.debug_frame
  24              		.file 1 "STM32Cube_FW_N6/Drivers/STM32N6xx_HAL_Driver/Src/stm32n6xx_hal_rif.c"
  25              		.section	.text.HAL_RIF_RIMC_Lock,"ax",%progbits
  26              		.align	1
  27              		.global	HAL_RIF_RIMC_Lock
  28              		.syntax unified
  29              		.thumb
  30              		.thumb_func
  32              	HAL_RIF_RIMC_Lock:
  33              	.LFB835:
   1:STM32Cube_FW_N6/Drivers/STM32N6xx_HAL_Driver/Src/stm32n6xx_hal_rif.c **** /**
   2:STM32Cube_FW_N6/Drivers/STM32N6xx_HAL_Driver/Src/stm32n6xx_hal_rif.c ****   ******************************************************************************
   3:STM32Cube_FW_N6/Drivers/STM32N6xx_HAL_Driver/Src/stm32n6xx_hal_rif.c ****   * @file    stm32n6xx_hal_rif.c
   4:STM32Cube_FW_N6/Drivers/STM32N6xx_HAL_Driver/Src/stm32n6xx_hal_rif.c ****   * @author  MCD Application Team
   5:STM32Cube_FW_N6/Drivers/STM32N6xx_HAL_Driver/Src/stm32n6xx_hal_rif.c ****   * @brief   RIF HAL module driver.
   6:STM32Cube_FW_N6/Drivers/STM32N6xx_HAL_Driver/Src/stm32n6xx_hal_rif.c ****   *          This file provides firmware functions to manage the following
   7:STM32Cube_FW_N6/Drivers/STM32N6xx_HAL_Driver/Src/stm32n6xx_hal_rif.c ****   *          functionalities of the Resource Isolation Framework (RIF) peripheral:
   8:STM32Cube_FW_N6/Drivers/STM32N6xx_HAL_Driver/Src/stm32n6xx_hal_rif.c ****   *           + Initialization and de-initialization functions
   9:STM32Cube_FW_N6/Drivers/STM32N6xx_HAL_Driver/Src/stm32n6xx_hal_rif.c ****   *           + Peripheral Control functions
  10:STM32Cube_FW_N6/Drivers/STM32N6xx_HAL_Driver/Src/stm32n6xx_hal_rif.c ****   *
  11:STM32Cube_FW_N6/Drivers/STM32N6xx_HAL_Driver/Src/stm32n6xx_hal_rif.c ****   ******************************************************************************
  12:STM32Cube_FW_N6/Drivers/STM32N6xx_HAL_Driver/Src/stm32n6xx_hal_rif.c ****   * @attention
  13:STM32Cube_FW_N6/Drivers/STM32N6xx_HAL_Driver/Src/stm32n6xx_hal_rif.c ****   *
  14:STM32Cube_FW_N6/Drivers/STM32N6xx_HAL_Driver/Src/stm32n6xx_hal_rif.c ****   * Copyright (c) 2023 STMicroelectronics.
  15:STM32Cube_FW_N6/Drivers/STM32N6xx_HAL_Driver/Src/stm32n6xx_hal_rif.c ****   * All rights reserved.
  16:STM32Cube_FW_N6/Drivers/STM32N6xx_HAL_Driver/Src/stm32n6xx_hal_rif.c ****   *
  17:STM32Cube_FW_N6/Drivers/STM32N6xx_HAL_Driver/Src/stm32n6xx_hal_rif.c ****   * This software is licensed under terms that can be found in the LICENSE file
  18:STM32Cube_FW_N6/Drivers/STM32N6xx_HAL_Driver/Src/stm32n6xx_hal_rif.c ****   * in the root directory of this software component.
  19:STM32Cube_FW_N6/Drivers/STM32N6xx_HAL_Driver/Src/stm32n6xx_hal_rif.c ****   * If no LICENSE file comes with this software, it is provided AS-IS.
  20:STM32Cube_FW_N6/Drivers/STM32N6xx_HAL_Driver/Src/stm32n6xx_hal_rif.c ****   *
  21:STM32Cube_FW_N6/Drivers/STM32N6xx_HAL_Driver/Src/stm32n6xx_hal_rif.c ****   ******************************************************************************
  22:STM32Cube_FW_N6/Drivers/STM32N6xx_HAL_Driver/Src/stm32n6xx_hal_rif.c ****   @verbatim
  23:STM32Cube_FW_N6/Drivers/STM32N6xx_HAL_Driver/Src/stm32n6xx_hal_rif.c ****   ==============================================================================
  24:STM32Cube_FW_N6/Drivers/STM32N6xx_HAL_Driver/Src/stm32n6xx_hal_rif.c ****                 ##### RIF main features #####
  25:STM32Cube_FW_N6/Drivers/STM32N6xx_HAL_Driver/Src/stm32n6xx_hal_rif.c ****   ==============================================================================
ARM GAS  /tmp/ccRTEIeG.s 			page 2


  26:STM32Cube_FW_N6/Drivers/STM32N6xx_HAL_Driver/Src/stm32n6xx_hal_rif.c ****   [..]
  27:STM32Cube_FW_N6/Drivers/STM32N6xx_HAL_Driver/Src/stm32n6xx_hal_rif.c ****     (+) Resource Isolation framework (RIF) is a comprehensive set of hardware
  28:STM32Cube_FW_N6/Drivers/STM32N6xx_HAL_Driver/Src/stm32n6xx_hal_rif.c ****     blocks designed to enforce and manage isolation of STM32 hardware resources
  29:STM32Cube_FW_N6/Drivers/STM32N6xx_HAL_Driver/Src/stm32n6xx_hal_rif.c ****     like memory and peripherals.
  30:STM32Cube_FW_N6/Drivers/STM32N6xx_HAL_Driver/Src/stm32n6xx_hal_rif.c **** 
  31:STM32Cube_FW_N6/Drivers/STM32N6xx_HAL_Driver/Src/stm32n6xx_hal_rif.c ****     (+) Resource Isolation Framework (RIF) composed of the following sub-blocks:
  32:STM32Cube_FW_N6/Drivers/STM32N6xx_HAL_Driver/Src/stm32n6xx_hal_rif.c ****       (++) RIMC:  Resource Isolation Master Controller
  33:STM32Cube_FW_N6/Drivers/STM32N6xx_HAL_Driver/Src/stm32n6xx_hal_rif.c ****                   This sub-block assigns all non RIF-aware bus master to one
  34:STM32Cube_FW_N6/Drivers/STM32N6xx_HAL_Driver/Src/stm32n6xx_hal_rif.c ****                   security domain by setting secure, privileged and compartment
  35:STM32Cube_FW_N6/Drivers/STM32N6xx_HAL_Driver/Src/stm32n6xx_hal_rif.c ****                   information on the system bus.
  36:STM32Cube_FW_N6/Drivers/STM32N6xx_HAL_Driver/Src/stm32n6xx_hal_rif.c ****                   Note that if non-secure software is permitted to configure one of
  37:STM32Cube_FW_N6/Drivers/STM32N6xx_HAL_Driver/Src/stm32n6xx_hal_rif.c ****                   these peripherals, then this setting is ignored and all accesses
  38:STM32Cube_FW_N6/Drivers/STM32N6xx_HAL_Driver/Src/stm32n6xx_hal_rif.c ****                   initiated by the peripheral are forced to be non-secure.
  39:STM32Cube_FW_N6/Drivers/STM32N6xx_HAL_Driver/Src/stm32n6xx_hal_rif.c ****       (++) RISC:  Resource Isolation Slave Controller
  40:STM32Cube_FW_N6/Drivers/STM32N6xx_HAL_Driver/Src/stm32n6xx_hal_rif.c ****                   This sub-block assigns all non-RIF aware peripherals to zero,
  41:STM32Cube_FW_N6/Drivers/STM32N6xx_HAL_Driver/Src/stm32n6xx_hal_rif.c ****                   one or any security domains (secure, privilege, compartment).
  42:STM32Cube_FW_N6/Drivers/STM32N6xx_HAL_Driver/Src/stm32n6xx_hal_rif.c ****       (++) RISAF: Resource Isolation Slave unit for Address space (Full version)
  43:STM32Cube_FW_N6/Drivers/STM32N6xx_HAL_Driver/Src/stm32n6xx_hal_rif.c ****                   This sub-block assigns memory regions and subregions to one or
  44:STM32Cube_FW_N6/Drivers/STM32N6xx_HAL_Driver/Src/stm32n6xx_hal_rif.c ****                   more security domains (secure, privilege, compartment).
  45:STM32Cube_FW_N6/Drivers/STM32N6xx_HAL_Driver/Src/stm32n6xx_hal_rif.c ****       (++) IAC:   Illegal Access Controller
  46:STM32Cube_FW_N6/Drivers/STM32N6xx_HAL_Driver/Src/stm32n6xx_hal_rif.c ****                   This sub-block centralizes detection of RIF-related accesses,
  47:STM32Cube_FW_N6/Drivers/STM32N6xx_HAL_Driver/Src/stm32n6xx_hal_rif.c ****                   managed by a secure application. Supported illegal accesses are:
  48:STM32Cube_FW_N6/Drivers/STM32N6xx_HAL_Driver/Src/stm32n6xx_hal_rif.c ****                   secure, privileged.
  49:STM32Cube_FW_N6/Drivers/STM32N6xx_HAL_Driver/Src/stm32n6xx_hal_rif.c **** 
  50:STM32Cube_FW_N6/Drivers/STM32N6xx_HAL_Driver/Src/stm32n6xx_hal_rif.c ****   [..]
  51:STM32Cube_FW_N6/Drivers/STM32N6xx_HAL_Driver/Src/stm32n6xx_hal_rif.c ****     (+) All the setter functions are protected under the CPU_AS_TRUSTED_DOMAIN
  52:STM32Cube_FW_N6/Drivers/STM32N6xx_HAL_Driver/Src/stm32n6xx_hal_rif.c ****         directive.
  53:STM32Cube_FW_N6/Drivers/STM32N6xx_HAL_Driver/Src/stm32n6xx_hal_rif.c ****         It ensures that only the trusted domain can manage the critical
  54:STM32Cube_FW_N6/Drivers/STM32N6xx_HAL_Driver/Src/stm32n6xx_hal_rif.c ****         configurations of the RIF.
  55:STM32Cube_FW_N6/Drivers/STM32N6xx_HAL_Driver/Src/stm32n6xx_hal_rif.c ****         This directive is defined in the CMSIS file.
  56:STM32Cube_FW_N6/Drivers/STM32N6xx_HAL_Driver/Src/stm32n6xx_hal_rif.c **** 
  57:STM32Cube_FW_N6/Drivers/STM32N6xx_HAL_Driver/Src/stm32n6xx_hal_rif.c ****  ===============================================================================
  58:STM32Cube_FW_N6/Drivers/STM32N6xx_HAL_Driver/Src/stm32n6xx_hal_rif.c ****                      ##### How to use this driver #####
  59:STM32Cube_FW_N6/Drivers/STM32N6xx_HAL_Driver/Src/stm32n6xx_hal_rif.c ****  ===============================================================================
  60:STM32Cube_FW_N6/Drivers/STM32N6xx_HAL_Driver/Src/stm32n6xx_hal_rif.c ****   [..]
  61:STM32Cube_FW_N6/Drivers/STM32N6xx_HAL_Driver/Src/stm32n6xx_hal_rif.c ****     *** Locking RIF components configuration ***
  62:STM32Cube_FW_N6/Drivers/STM32N6xx_HAL_Driver/Src/stm32n6xx_hal_rif.c ****     ============================================================
  63:STM32Cube_FW_N6/Drivers/STM32N6xx_HAL_Driver/Src/stm32n6xx_hal_rif.c ****     [..]
  64:STM32Cube_FW_N6/Drivers/STM32N6xx_HAL_Driver/Src/stm32n6xx_hal_rif.c ****     (#) Lock and get the lock configuration of RIMC registers until next reset
  65:STM32Cube_FW_N6/Drivers/STM32N6xx_HAL_Driver/Src/stm32n6xx_hal_rif.c ****         with HAL_RIF_RIMC_Lock / HAL_RIF_RIMC_GetLock.
  66:STM32Cube_FW_N6/Drivers/STM32N6xx_HAL_Driver/Src/stm32n6xx_hal_rif.c ****     (#) Lock and get the lock configuration of RISC registers until next reset
  67:STM32Cube_FW_N6/Drivers/STM32N6xx_HAL_Driver/Src/stm32n6xx_hal_rif.c ****         with HAL_RIF_RISC_Lock / HAL_RIF_RISC_GetLock.
  68:STM32Cube_FW_N6/Drivers/STM32N6xx_HAL_Driver/Src/stm32n6xx_hal_rif.c ****     (#) Lock and get the lock configuration of slave resources registers until
  69:STM32Cube_FW_N6/Drivers/STM32N6xx_HAL_Driver/Src/stm32n6xx_hal_rif.c ****         next reset with HAL_RIF_RISC_SlaveConfigLock / HAL_RIF_RISC_GetSlaveConfigLock.
  70:STM32Cube_FW_N6/Drivers/STM32N6xx_HAL_Driver/Src/stm32n6xx_hal_rif.c ****     (#) Lock and get the lock configuration of RISAF registers until next reset
  71:STM32Cube_FW_N6/Drivers/STM32N6xx_HAL_Driver/Src/stm32n6xx_hal_rif.c ****         with HAL_RIF_RISAF_Lock / HAL_RIF_RISAF_GetLock.
  72:STM32Cube_FW_N6/Drivers/STM32N6xx_HAL_Driver/Src/stm32n6xx_hal_rif.c **** 
  73:STM32Cube_FW_N6/Drivers/STM32N6xx_HAL_Driver/Src/stm32n6xx_hal_rif.c ****     *** Context-related functions ***
  74:STM32Cube_FW_N6/Drivers/STM32N6xx_HAL_Driver/Src/stm32n6xx_hal_rif.c ****     ============================================================
  75:STM32Cube_FW_N6/Drivers/STM32N6xx_HAL_Driver/Src/stm32n6xx_hal_rif.c ****     [..]
  76:STM32Cube_FW_N6/Drivers/STM32N6xx_HAL_Driver/Src/stm32n6xx_hal_rif.c ****     (#) Set or get Debugger Access Port Compartment ID with HAL_RIF_RIMC_SetDebugAccessPortCID /
  77:STM32Cube_FW_N6/Drivers/STM32N6xx_HAL_Driver/Src/stm32n6xx_hal_rif.c ****         HAL_RIF_RIMC_GetDebugAccessPortCID functions.
  78:STM32Cube_FW_N6/Drivers/STM32N6xx_HAL_Driver/Src/stm32n6xx_hal_rif.c ****     (#) Check the Debug Domain and Global Debug Domain status with
  79:STM32Cube_FW_N6/Drivers/STM32N6xx_HAL_Driver/Src/stm32n6xx_hal_rif.c ****         HAL_RIF_RIMC_GetDebugStatus.
  80:STM32Cube_FW_N6/Drivers/STM32N6xx_HAL_Driver/Src/stm32n6xx_hal_rif.c **** 
  81:STM32Cube_FW_N6/Drivers/STM32N6xx_HAL_Driver/Src/stm32n6xx_hal_rif.c **** #if defined(GENERATOR_RIF_FEATURE_ENCRYPTION_IMPLEMENTED)
  82:STM32Cube_FW_N6/Drivers/STM32N6xx_HAL_Driver/Src/stm32n6xx_hal_rif.c ****     *** Encryption-related functions ***
ARM GAS  /tmp/ccRTEIeG.s 			page 3


  83:STM32Cube_FW_N6/Drivers/STM32N6xx_HAL_Driver/Src/stm32n6xx_hal_rif.c ****     ============================================================
  84:STM32Cube_FW_N6/Drivers/STM32N6xx_HAL_Driver/Src/stm32n6xx_hal_rif.c ****     [..]
  85:STM32Cube_FW_N6/Drivers/STM32N6xx_HAL_Driver/Src/stm32n6xx_hal_rif.c ****     (#) Read of write RISAF encryption keys and related flags.
  86:STM32Cube_FW_N6/Drivers/STM32N6xx_HAL_Driver/Src/stm32n6xx_hal_rif.c **** 
  87:STM32Cube_FW_N6/Drivers/STM32N6xx_HAL_Driver/Src/stm32n6xx_hal_rif.c **** #endif
  88:STM32Cube_FW_N6/Drivers/STM32N6xx_HAL_Driver/Src/stm32n6xx_hal_rif.c ****      *** Configuration of master-related attributes ***
  89:STM32Cube_FW_N6/Drivers/STM32N6xx_HAL_Driver/Src/stm32n6xx_hal_rif.c ****     ============================================================
  90:STM32Cube_FW_N6/Drivers/STM32N6xx_HAL_Driver/Src/stm32n6xx_hal_rif.c ****     [..]
  91:STM32Cube_FW_N6/Drivers/STM32N6xx_HAL_Driver/Src/stm32n6xx_hal_rif.c ****     (#) Set or get the secure, privilege and compartment configuration of a
  92:STM32Cube_FW_N6/Drivers/STM32N6xx_HAL_Driver/Src/stm32n6xx_hal_rif.c ****         bus master thanks to the HAL_RIF_RIMC_ConfigMasterAttributes /
  93:STM32Cube_FW_N6/Drivers/STM32N6xx_HAL_Driver/Src/stm32n6xx_hal_rif.c ****         HAL_RIF_RIMC_GetConfigMasterAttributes functions.
  94:STM32Cube_FW_N6/Drivers/STM32N6xx_HAL_Driver/Src/stm32n6xx_hal_rif.c ****     (#) Lock and get lock status the bus master attributes configuration until
  95:STM32Cube_FW_N6/Drivers/STM32N6xx_HAL_Driver/Src/stm32n6xx_hal_rif.c ****         next system reset using HAL_RIF_RIMC_Lock.
  96:STM32Cube_FW_N6/Drivers/STM32N6xx_HAL_Driver/Src/stm32n6xx_hal_rif.c **** 
  97:STM32Cube_FW_N6/Drivers/STM32N6xx_HAL_Driver/Src/stm32n6xx_hal_rif.c ****      *** Configuration of slave-related attributes ***
  98:STM32Cube_FW_N6/Drivers/STM32N6xx_HAL_Driver/Src/stm32n6xx_hal_rif.c ****     ============================================================
  99:STM32Cube_FW_N6/Drivers/STM32N6xx_HAL_Driver/Src/stm32n6xx_hal_rif.c ****     [..]
 100:STM32Cube_FW_N6/Drivers/STM32N6xx_HAL_Driver/Src/stm32n6xx_hal_rif.c ****     (#) Set or get the secure and privilege configuration of a bus slave
 101:STM32Cube_FW_N6/Drivers/STM32N6xx_HAL_Driver/Src/stm32n6xx_hal_rif.c ****         thanks to the HAL_RIF_RISC_SetSlaveSecureAttributes /
 102:STM32Cube_FW_N6/Drivers/STM32N6xx_HAL_Driver/Src/stm32n6xx_hal_rif.c ****         HAL_RIF_RISC_GetSlaveSecureAttributes functions.
 103:STM32Cube_FW_N6/Drivers/STM32N6xx_HAL_Driver/Src/stm32n6xx_hal_rif.c ****     (#) Lock and get lock status each bus slave attributes configuration using
 104:STM32Cube_FW_N6/Drivers/STM32N6xx_HAL_Driver/Src/stm32n6xx_hal_rif.c ****         HAL_RIF_RISC_SlaveConfigLock or lock the whole RISC configuration with
 105:STM32Cube_FW_N6/Drivers/STM32N6xx_HAL_Driver/Src/stm32n6xx_hal_rif.c ****         HAL_RIF_RISC_Lock until next system reset.
 106:STM32Cube_FW_N6/Drivers/STM32N6xx_HAL_Driver/Src/stm32n6xx_hal_rif.c **** 
 107:STM32Cube_FW_N6/Drivers/STM32N6xx_HAL_Driver/Src/stm32n6xx_hal_rif.c ****      *** Configuration of RISAF attributes ***
 108:STM32Cube_FW_N6/Drivers/STM32N6xx_HAL_Driver/Src/stm32n6xx_hal_rif.c ****     ============================================================
 109:STM32Cube_FW_N6/Drivers/STM32N6xx_HAL_Driver/Src/stm32n6xx_hal_rif.c ****     [..]
 110:STM32Cube_FW_N6/Drivers/STM32N6xx_HAL_Driver/Src/stm32n6xx_hal_rif.c ****     (#) Set or get a base region configuration with HAL_RIF_RISAF_ConfigBaseRegion /
 111:STM32Cube_FW_N6/Drivers/STM32N6xx_HAL_Driver/Src/stm32n6xx_hal_rif.c ****         HAL_RIF_RISAF_GetConfigBaseRegion.
 112:STM32Cube_FW_N6/Drivers/STM32N6xx_HAL_Driver/Src/stm32n6xx_hal_rif.c ****     (#) Set or get a subregion configuration with HAL_RIF_RISAF_ConfigSubRegion /
 113:STM32Cube_FW_N6/Drivers/STM32N6xx_HAL_Driver/Src/stm32n6xx_hal_rif.c ****         HAL_RIF_RISAF_GetConfigSubRegion.
 114:STM32Cube_FW_N6/Drivers/STM32N6xx_HAL_Driver/Src/stm32n6xx_hal_rif.c ****     (#) Delegate a subregion configuration to another CID with HAL_RIF_RISAF_ConfigSubRegionDelegat
 115:STM32Cube_FW_N6/Drivers/STM32N6xx_HAL_Driver/Src/stm32n6xx_hal_rif.c ****     (#) Get the data from an illegal access to a protected memory region with
 116:STM32Cube_FW_N6/Drivers/STM32N6xx_HAL_Driver/Src/stm32n6xx_hal_rif.c ****         HAL_RIF_RISAF_GetIllegalAccess.
 117:STM32Cube_FW_N6/Drivers/STM32N6xx_HAL_Driver/Src/stm32n6xx_hal_rif.c **** 
 118:STM32Cube_FW_N6/Drivers/STM32N6xx_HAL_Driver/Src/stm32n6xx_hal_rif.c ****      *** IAC related functions ***
 119:STM32Cube_FW_N6/Drivers/STM32N6xx_HAL_Driver/Src/stm32n6xx_hal_rif.c ****     ============================================================
 120:STM32Cube_FW_N6/Drivers/STM32N6xx_HAL_Driver/Src/stm32n6xx_hal_rif.c ****     [..]
 121:STM32Cube_FW_N6/Drivers/STM32N6xx_HAL_Driver/Src/stm32n6xx_hal_rif.c ****     (#) Enable or disable peripheral illegal access detection with HAL_RIF_IAC_EnableIT /
 122:STM32Cube_FW_N6/Drivers/STM32N6xx_HAL_Driver/Src/stm32n6xx_hal_rif.c ****         HAL_RIF_IAC_DisableIT.
 123:STM32Cube_FW_N6/Drivers/STM32N6xx_HAL_Driver/Src/stm32n6xx_hal_rif.c ****     (#) Retrieve an illegal access flag from a designated peripheral with HAL_RIF_IAC_GetFlag
 124:STM32Cube_FW_N6/Drivers/STM32N6xx_HAL_Driver/Src/stm32n6xx_hal_rif.c ****         or clear it with HAL_RIF_IAC_ClearFlag.
 125:STM32Cube_FW_N6/Drivers/STM32N6xx_HAL_Driver/Src/stm32n6xx_hal_rif.c ****     (#) Illegal access interrupt service routines are served by HAL_RIF_IRQHandler()
 126:STM32Cube_FW_N6/Drivers/STM32N6xx_HAL_Driver/Src/stm32n6xx_hal_rif.c ****         and user can add his own code using HAL_RIF_ILA_Callback().
 127:STM32Cube_FW_N6/Drivers/STM32N6xx_HAL_Driver/Src/stm32n6xx_hal_rif.c **** 
 128:STM32Cube_FW_N6/Drivers/STM32N6xx_HAL_Driver/Src/stm32n6xx_hal_rif.c ****   @endverbatim
 129:STM32Cube_FW_N6/Drivers/STM32N6xx_HAL_Driver/Src/stm32n6xx_hal_rif.c ****   ******************************************************************************
 130:STM32Cube_FW_N6/Drivers/STM32N6xx_HAL_Driver/Src/stm32n6xx_hal_rif.c ****   */
 131:STM32Cube_FW_N6/Drivers/STM32N6xx_HAL_Driver/Src/stm32n6xx_hal_rif.c **** 
 132:STM32Cube_FW_N6/Drivers/STM32N6xx_HAL_Driver/Src/stm32n6xx_hal_rif.c **** /* Includes ------------------------------------------------------------------*/
 133:STM32Cube_FW_N6/Drivers/STM32N6xx_HAL_Driver/Src/stm32n6xx_hal_rif.c **** #include "stm32n6xx_hal.h"
 134:STM32Cube_FW_N6/Drivers/STM32N6xx_HAL_Driver/Src/stm32n6xx_hal_rif.c **** 
 135:STM32Cube_FW_N6/Drivers/STM32N6xx_HAL_Driver/Src/stm32n6xx_hal_rif.c **** /** @addtogroup STM32N6xx_HAL_Driver
 136:STM32Cube_FW_N6/Drivers/STM32N6xx_HAL_Driver/Src/stm32n6xx_hal_rif.c ****   * @{
 137:STM32Cube_FW_N6/Drivers/STM32N6xx_HAL_Driver/Src/stm32n6xx_hal_rif.c ****   */
 138:STM32Cube_FW_N6/Drivers/STM32N6xx_HAL_Driver/Src/stm32n6xx_hal_rif.c **** 
 139:STM32Cube_FW_N6/Drivers/STM32N6xx_HAL_Driver/Src/stm32n6xx_hal_rif.c **** /** @defgroup RIF RIF
ARM GAS  /tmp/ccRTEIeG.s 			page 4


 140:STM32Cube_FW_N6/Drivers/STM32N6xx_HAL_Driver/Src/stm32n6xx_hal_rif.c ****   * @brief RIF HAL module driver.
 141:STM32Cube_FW_N6/Drivers/STM32N6xx_HAL_Driver/Src/stm32n6xx_hal_rif.c ****   * @{
 142:STM32Cube_FW_N6/Drivers/STM32N6xx_HAL_Driver/Src/stm32n6xx_hal_rif.c ****   */
 143:STM32Cube_FW_N6/Drivers/STM32N6xx_HAL_Driver/Src/stm32n6xx_hal_rif.c **** 
 144:STM32Cube_FW_N6/Drivers/STM32N6xx_HAL_Driver/Src/stm32n6xx_hal_rif.c **** #ifdef HAL_RIF_MODULE_ENABLED
 145:STM32Cube_FW_N6/Drivers/STM32N6xx_HAL_Driver/Src/stm32n6xx_hal_rif.c **** 
 146:STM32Cube_FW_N6/Drivers/STM32N6xx_HAL_Driver/Src/stm32n6xx_hal_rif.c **** /* Private typedef -----------------------------------------------------------*/
 147:STM32Cube_FW_N6/Drivers/STM32N6xx_HAL_Driver/Src/stm32n6xx_hal_rif.c **** /* Private defines ------------------------------------------------------------*/
 148:STM32Cube_FW_N6/Drivers/STM32N6xx_HAL_Driver/Src/stm32n6xx_hal_rif.c **** /** @addtogroup RIF_Private_Defines RIF Private Defines
 149:STM32Cube_FW_N6/Drivers/STM32N6xx_HAL_Driver/Src/stm32n6xx_hal_rif.c ****   * @{
 150:STM32Cube_FW_N6/Drivers/STM32N6xx_HAL_Driver/Src/stm32n6xx_hal_rif.c ****   */
 151:STM32Cube_FW_N6/Drivers/STM32N6xx_HAL_Driver/Src/stm32n6xx_hal_rif.c **** #define RIF_PERIPH_IAC_REG_MAX             4U
 152:STM32Cube_FW_N6/Drivers/STM32N6xx_HAL_Driver/Src/stm32n6xx_hal_rif.c **** /**
 153:STM32Cube_FW_N6/Drivers/STM32N6xx_HAL_Driver/Src/stm32n6xx_hal_rif.c ****   * @}
 154:STM32Cube_FW_N6/Drivers/STM32N6xx_HAL_Driver/Src/stm32n6xx_hal_rif.c ****   */
 155:STM32Cube_FW_N6/Drivers/STM32N6xx_HAL_Driver/Src/stm32n6xx_hal_rif.c **** 
 156:STM32Cube_FW_N6/Drivers/STM32N6xx_HAL_Driver/Src/stm32n6xx_hal_rif.c **** /* Private macro -------------------------------------------------------------*/
 157:STM32Cube_FW_N6/Drivers/STM32N6xx_HAL_Driver/Src/stm32n6xx_hal_rif.c **** /* Private variables ---------------------------------------------------------*/
 158:STM32Cube_FW_N6/Drivers/STM32N6xx_HAL_Driver/Src/stm32n6xx_hal_rif.c **** /* Private function prototypes -----------------------------------------------*/
 159:STM32Cube_FW_N6/Drivers/STM32N6xx_HAL_Driver/Src/stm32n6xx_hal_rif.c **** /* Exported functions --------------------------------------------------------*/
 160:STM32Cube_FW_N6/Drivers/STM32N6xx_HAL_Driver/Src/stm32n6xx_hal_rif.c **** 
 161:STM32Cube_FW_N6/Drivers/STM32N6xx_HAL_Driver/Src/stm32n6xx_hal_rif.c **** /** @defgroup RIF_Exported_Functions RIF Exported Functions
 162:STM32Cube_FW_N6/Drivers/STM32N6xx_HAL_Driver/Src/stm32n6xx_hal_rif.c ****   *  @{
 163:STM32Cube_FW_N6/Drivers/STM32N6xx_HAL_Driver/Src/stm32n6xx_hal_rif.c ****   */
 164:STM32Cube_FW_N6/Drivers/STM32N6xx_HAL_Driver/Src/stm32n6xx_hal_rif.c **** 
 165:STM32Cube_FW_N6/Drivers/STM32N6xx_HAL_Driver/Src/stm32n6xx_hal_rif.c **** /** @defgroup RIF_Exported_Functions_Group1  RIMC Configuration functions
 166:STM32Cube_FW_N6/Drivers/STM32N6xx_HAL_Driver/Src/stm32n6xx_hal_rif.c ****   *  @brief    RIMC Configuration functions
 167:STM32Cube_FW_N6/Drivers/STM32N6xx_HAL_Driver/Src/stm32n6xx_hal_rif.c ****   *
 168:STM32Cube_FW_N6/Drivers/STM32N6xx_HAL_Driver/Src/stm32n6xx_hal_rif.c **** @verbatim
 169:STM32Cube_FW_N6/Drivers/STM32N6xx_HAL_Driver/Src/stm32n6xx_hal_rif.c ****   ==============================================================================
 170:STM32Cube_FW_N6/Drivers/STM32N6xx_HAL_Driver/Src/stm32n6xx_hal_rif.c ****             ##### RIMC Configuration functions #####
 171:STM32Cube_FW_N6/Drivers/STM32N6xx_HAL_Driver/Src/stm32n6xx_hal_rif.c ****   ==============================================================================
 172:STM32Cube_FW_N6/Drivers/STM32N6xx_HAL_Driver/Src/stm32n6xx_hal_rif.c ****   [..]
 173:STM32Cube_FW_N6/Drivers/STM32N6xx_HAL_Driver/Src/stm32n6xx_hal_rif.c ****     This section provides functions allowing to configure RIMC
 174:STM32Cube_FW_N6/Drivers/STM32N6xx_HAL_Driver/Src/stm32n6xx_hal_rif.c ****     RIMC is Resource Isolation Master Controller
 175:STM32Cube_FW_N6/Drivers/STM32N6xx_HAL_Driver/Src/stm32n6xx_hal_rif.c **** @endverbatim
 176:STM32Cube_FW_N6/Drivers/STM32N6xx_HAL_Driver/Src/stm32n6xx_hal_rif.c ****   * @{
 177:STM32Cube_FW_N6/Drivers/STM32N6xx_HAL_Driver/Src/stm32n6xx_hal_rif.c ****   */
 178:STM32Cube_FW_N6/Drivers/STM32N6xx_HAL_Driver/Src/stm32n6xx_hal_rif.c **** #if defined(CPU_AS_TRUSTED_DOMAIN) && defined(CPU_IN_SECURE_STATE)
 179:STM32Cube_FW_N6/Drivers/STM32N6xx_HAL_Driver/Src/stm32n6xx_hal_rif.c **** /**
 180:STM32Cube_FW_N6/Drivers/STM32N6xx_HAL_Driver/Src/stm32n6xx_hal_rif.c ****   * @brief  Lock overall configuration of RIMC.
 181:STM32Cube_FW_N6/Drivers/STM32N6xx_HAL_Driver/Src/stm32n6xx_hal_rif.c ****   * @note   Once set, the overall configuration of RIMC cannot be modified
 182:STM32Cube_FW_N6/Drivers/STM32N6xx_HAL_Driver/Src/stm32n6xx_hal_rif.c ****   *         upon next system reset.
 183:STM32Cube_FW_N6/Drivers/STM32N6xx_HAL_Driver/Src/stm32n6xx_hal_rif.c ****   * @note   This API is protected by the Trusted Domain compilation directive.
 184:STM32Cube_FW_N6/Drivers/STM32N6xx_HAL_Driver/Src/stm32n6xx_hal_rif.c ****   * @note   This API is protected by the TrustZone Enabled compilation directive.
 185:STM32Cube_FW_N6/Drivers/STM32N6xx_HAL_Driver/Src/stm32n6xx_hal_rif.c ****   * @retval None
 186:STM32Cube_FW_N6/Drivers/STM32N6xx_HAL_Driver/Src/stm32n6xx_hal_rif.c ****   */
 187:STM32Cube_FW_N6/Drivers/STM32N6xx_HAL_Driver/Src/stm32n6xx_hal_rif.c **** void HAL_RIF_RIMC_Lock(void)
 188:STM32Cube_FW_N6/Drivers/STM32N6xx_HAL_Driver/Src/stm32n6xx_hal_rif.c **** {
  34              		.loc 1 188 1
  35              		.cfi_startproc
  36              		@ args = 0, pretend = 0, frame = 0
  37              		@ frame_needed = 1, uses_anonymous_args = 0
  38              		@ link register save eliminated.
  39 0000 80B4     		push	{r7}
  40              		.cfi_def_cfa_offset 4
  41              		.cfi_offset 7, -4
ARM GAS  /tmp/ccRTEIeG.s 			page 5


  42 0002 00AF     		add	r7, sp, #0
  43              		.cfi_def_cfa_register 7
 189:STM32Cube_FW_N6/Drivers/STM32N6xx_HAL_Driver/Src/stm32n6xx_hal_rif.c ****   /* Set RIMC Lock bit */
 190:STM32Cube_FW_N6/Drivers/STM32N6xx_HAL_Driver/Src/stm32n6xx_hal_rif.c ****   RIFSC->RIMC_CR |= RIFSC_RIMC_CR_GLOCK;
  44              		.loc 1 190 8
  45 0004 064B     		ldr	r3, .L2
  46 0006 D3F8003C 		ldr	r3, [r3, #3072]
  47 000a 054A     		ldr	r2, .L2
  48              		.loc 1 190 18
  49 000c 43F00103 		orr	r3, r3, #1
  50 0010 C2F8003C 		str	r3, [r2, #3072]
 191:STM32Cube_FW_N6/Drivers/STM32N6xx_HAL_Driver/Src/stm32n6xx_hal_rif.c **** }
  51              		.loc 1 191 1
  52 0014 00BF     		nop
  53 0016 BD46     		mov	sp, r7
  54              		.cfi_def_cfa_register 13
  55              		@ sp needed
  56 0018 5DF8047B 		ldr	r7, [sp], #4
  57              		.cfi_restore 7
  58              		.cfi_def_cfa_offset 0
  59 001c 7047     		bx	lr
  60              	.L3:
  61 001e 00BF     		.align	2
  62              	.L2:
  63 0020 00400254 		.word	1409433600
  64              		.cfi_endproc
  65              	.LFE835:
  67              		.section	.text.HAL_RIF_RIMC_GetLock,"ax",%progbits
  68              		.align	1
  69              		.global	HAL_RIF_RIMC_GetLock
  70              		.syntax unified
  71              		.thumb
  72              		.thumb_func
  74              	HAL_RIF_RIMC_GetLock:
  75              	.LFB836:
 192:STM32Cube_FW_N6/Drivers/STM32N6xx_HAL_Driver/Src/stm32n6xx_hal_rif.c **** #endif /* defined(CPU_AS_TRUSTED_DOMAIN) && defined(CPU_IN_SECURE_STATE) */
 193:STM32Cube_FW_N6/Drivers/STM32N6xx_HAL_Driver/Src/stm32n6xx_hal_rif.c **** 
 194:STM32Cube_FW_N6/Drivers/STM32N6xx_HAL_Driver/Src/stm32n6xx_hal_rif.c **** /**
 195:STM32Cube_FW_N6/Drivers/STM32N6xx_HAL_Driver/Src/stm32n6xx_hal_rif.c ****   * @brief  Get RIMC global lock status.
 196:STM32Cube_FW_N6/Drivers/STM32N6xx_HAL_Driver/Src/stm32n6xx_hal_rif.c ****   * @retval RIF_LOCK_ENABLE if RIMC configuration is locked, else RIF_LOCK_DISABLE
 197:STM32Cube_FW_N6/Drivers/STM32N6xx_HAL_Driver/Src/stm32n6xx_hal_rif.c ****   */
 198:STM32Cube_FW_N6/Drivers/STM32N6xx_HAL_Driver/Src/stm32n6xx_hal_rif.c **** uint32_t HAL_RIF_RIMC_GetLock(void)
 199:STM32Cube_FW_N6/Drivers/STM32N6xx_HAL_Driver/Src/stm32n6xx_hal_rif.c **** {
  76              		.loc 1 199 1
  77              		.cfi_startproc
  78              		@ args = 0, pretend = 0, frame = 8
  79              		@ frame_needed = 1, uses_anonymous_args = 0
  80              		@ link register save eliminated.
  81 0000 80B4     		push	{r7}
  82              		.cfi_def_cfa_offset 4
  83              		.cfi_offset 7, -4
  84 0002 83B0     		sub	sp, sp, #12
  85              		.cfi_def_cfa_offset 16
  86 0004 00AF     		add	r7, sp, #0
  87              		.cfi_def_cfa_register 7
 200:STM32Cube_FW_N6/Drivers/STM32N6xx_HAL_Driver/Src/stm32n6xx_hal_rif.c ****   uint32_t lock_status;
 201:STM32Cube_FW_N6/Drivers/STM32N6xx_HAL_Driver/Src/stm32n6xx_hal_rif.c **** 
ARM GAS  /tmp/ccRTEIeG.s 			page 6


 202:STM32Cube_FW_N6/Drivers/STM32N6xx_HAL_Driver/Src/stm32n6xx_hal_rif.c ****   /* Read RIMC lock bit */
 203:STM32Cube_FW_N6/Drivers/STM32N6xx_HAL_Driver/Src/stm32n6xx_hal_rif.c ****   lock_status = (RIFSC->RIMC_CR & RIF_LOCK_ENABLE);
  88              		.loc 1 203 23
  89 0006 064B     		ldr	r3, .L6
  90 0008 D3F8003C 		ldr	r3, [r3, #3072]
  91              		.loc 1 203 15
  92 000c 03F00103 		and	r3, r3, #1
  93 0010 7B60     		str	r3, [r7, #4]
 204:STM32Cube_FW_N6/Drivers/STM32N6xx_HAL_Driver/Src/stm32n6xx_hal_rif.c **** 
 205:STM32Cube_FW_N6/Drivers/STM32N6xx_HAL_Driver/Src/stm32n6xx_hal_rif.c ****   return lock_status;
  94              		.loc 1 205 10
  95 0012 7B68     		ldr	r3, [r7, #4]
 206:STM32Cube_FW_N6/Drivers/STM32N6xx_HAL_Driver/Src/stm32n6xx_hal_rif.c **** }
  96              		.loc 1 206 1
  97 0014 1846     		mov	r0, r3
  98 0016 0C37     		adds	r7, r7, #12
  99              		.cfi_def_cfa_offset 4
 100 0018 BD46     		mov	sp, r7
 101              		.cfi_def_cfa_register 13
 102              		@ sp needed
 103 001a 5DF8047B 		ldr	r7, [sp], #4
 104              		.cfi_restore 7
 105              		.cfi_def_cfa_offset 0
 106 001e 7047     		bx	lr
 107              	.L7:
 108              		.align	2
 109              	.L6:
 110 0020 00400254 		.word	1409433600
 111              		.cfi_endproc
 112              	.LFE836:
 114              		.section	.rodata
 115              		.align	2
 116              	.LC0:
 117 0000 53544D33 		.ascii	"STM32Cube_FW_N6/Drivers/STM32N6xx_HAL_Driver/Src/st"
 117      32437562 
 117      655F4657 
 117      5F4E362F 
 117      44726976 
 118 0033 6D33326E 		.ascii	"m32n6xx_hal_rif.c\000"
 118      3678785F 
 118      68616C5F 
 118      7269662E 
 118      6300
 119              		.section	.text.HAL_RIF_RIMC_SetDebugAccessPortCID,"ax",%progbits
 120              		.align	1
 121              		.global	HAL_RIF_RIMC_SetDebugAccessPortCID
 122              		.syntax unified
 123              		.thumb
 124              		.thumb_func
 126              	HAL_RIF_RIMC_SetDebugAccessPortCID:
 127              	.LFB837:
 207:STM32Cube_FW_N6/Drivers/STM32N6xx_HAL_Driver/Src/stm32n6xx_hal_rif.c **** 
 208:STM32Cube_FW_N6/Drivers/STM32N6xx_HAL_Driver/Src/stm32n6xx_hal_rif.c **** #if defined(CPU_AS_TRUSTED_DOMAIN) && defined(CPU_IN_SECURE_STATE)
 209:STM32Cube_FW_N6/Drivers/STM32N6xx_HAL_Driver/Src/stm32n6xx_hal_rif.c **** /**
 210:STM32Cube_FW_N6/Drivers/STM32N6xx_HAL_Driver/Src/stm32n6xx_hal_rif.c ****   * @brief  Change the Debugger Access Port ID
 211:STM32Cube_FW_N6/Drivers/STM32N6xx_HAL_Driver/Src/stm32n6xx_hal_rif.c ****   * @note   This API is protected by the Trusted Domain compilation directive.
 212:STM32Cube_FW_N6/Drivers/STM32N6xx_HAL_Driver/Src/stm32n6xx_hal_rif.c ****   * @note   This API is protected by the TrustZone Enabled compilation directive.
ARM GAS  /tmp/ccRTEIeG.s 			page 7


 213:STM32Cube_FW_N6/Drivers/STM32N6xx_HAL_Driver/Src/stm32n6xx_hal_rif.c ****   * @param  CID  specifies the Debugger Access Port CID
 214:STM32Cube_FW_N6/Drivers/STM32N6xx_HAL_Driver/Src/stm32n6xx_hal_rif.c ****   *         This parameter can be a combination of following values:
 215:STM32Cube_FW_N6/Drivers/STM32N6xx_HAL_Driver/Src/stm32n6xx_hal_rif.c ****   *           @arg @ref RIF_CID_0    Compartment 0 ID selected as Debug access port ID
 216:STM32Cube_FW_N6/Drivers/STM32N6xx_HAL_Driver/Src/stm32n6xx_hal_rif.c ****   *           @arg @ref RIF_CID_1    Compartment 1 ID selected as Debug access port ID
 217:STM32Cube_FW_N6/Drivers/STM32N6xx_HAL_Driver/Src/stm32n6xx_hal_rif.c ****   *           @arg @ref RIF_CID_2    Compartment 2 ID selected as Debug access port ID
 218:STM32Cube_FW_N6/Drivers/STM32N6xx_HAL_Driver/Src/stm32n6xx_hal_rif.c ****   *           @arg @ref RIF_CID_3    Compartment 3 ID selected as Debug access port ID
 219:STM32Cube_FW_N6/Drivers/STM32N6xx_HAL_Driver/Src/stm32n6xx_hal_rif.c ****   *           @arg @ref RIF_CID_4    Compartment 4 ID selected as Debug access port ID
 220:STM32Cube_FW_N6/Drivers/STM32N6xx_HAL_Driver/Src/stm32n6xx_hal_rif.c ****   *           @arg @ref RIF_CID_5    Compartment 5 ID selected as Debug access port ID
 221:STM32Cube_FW_N6/Drivers/STM32N6xx_HAL_Driver/Src/stm32n6xx_hal_rif.c ****   *           @arg @ref RIF_CID_6    Compartment 6 ID selected as Debug access port ID
 222:STM32Cube_FW_N6/Drivers/STM32N6xx_HAL_Driver/Src/stm32n6xx_hal_rif.c ****   *           @arg @ref RIF_CID_7    Compartment 7 ID selected as Debug access port ID
 223:STM32Cube_FW_N6/Drivers/STM32N6xx_HAL_Driver/Src/stm32n6xx_hal_rif.c ****   * @retval None
 224:STM32Cube_FW_N6/Drivers/STM32N6xx_HAL_Driver/Src/stm32n6xx_hal_rif.c ****   */
 225:STM32Cube_FW_N6/Drivers/STM32N6xx_HAL_Driver/Src/stm32n6xx_hal_rif.c **** void HAL_RIF_RIMC_SetDebugAccessPortCID(uint32_t CID)
 226:STM32Cube_FW_N6/Drivers/STM32N6xx_HAL_Driver/Src/stm32n6xx_hal_rif.c **** {
 128              		.loc 1 226 1
 129              		.cfi_startproc
 130              		@ args = 0, pretend = 0, frame = 32
 131              		@ frame_needed = 1, uses_anonymous_args = 0
 132 0000 80B5     		push	{r7, lr}
 133              		.cfi_def_cfa_offset 8
 134              		.cfi_offset 7, -8
 135              		.cfi_offset 14, -4
 136 0002 88B0     		sub	sp, sp, #32
 137              		.cfi_def_cfa_offset 40
 138 0004 00AF     		add	r7, sp, #0
 139              		.cfi_def_cfa_register 7
 140 0006 7860     		str	r0, [r7, #4]
 227:STM32Cube_FW_N6/Drivers/STM32N6xx_HAL_Driver/Src/stm32n6xx_hal_rif.c ****   uint32_t dap_cid;
 228:STM32Cube_FW_N6/Drivers/STM32N6xx_HAL_Driver/Src/stm32n6xx_hal_rif.c ****   uint32_t rimc_cr_reg;
 229:STM32Cube_FW_N6/Drivers/STM32N6xx_HAL_Driver/Src/stm32n6xx_hal_rif.c **** 
 230:STM32Cube_FW_N6/Drivers/STM32N6xx_HAL_Driver/Src/stm32n6xx_hal_rif.c ****   /* Check the parameter */
 231:STM32Cube_FW_N6/Drivers/STM32N6xx_HAL_Driver/Src/stm32n6xx_hal_rif.c ****   assert_param(IS_RIF_SINGLE_CID(CID));
 141              		.loc 1 231 3
 142 0008 7B68     		ldr	r3, [r7, #4]
 143 000a 012B     		cmp	r3, #1
 144 000c 18D0     		beq	.L9
 145              		.loc 1 231 3 is_stmt 0 discriminator 1
 146 000e 7B68     		ldr	r3, [r7, #4]
 147 0010 022B     		cmp	r3, #2
 148 0012 15D0     		beq	.L9
 149              		.loc 1 231 3 discriminator 2
 150 0014 7B68     		ldr	r3, [r7, #4]
 151 0016 042B     		cmp	r3, #4
 152 0018 12D0     		beq	.L9
 153              		.loc 1 231 3 discriminator 3
 154 001a 7B68     		ldr	r3, [r7, #4]
 155 001c 082B     		cmp	r3, #8
 156 001e 0FD0     		beq	.L9
 157              		.loc 1 231 3 discriminator 4
 158 0020 7B68     		ldr	r3, [r7, #4]
 159 0022 102B     		cmp	r3, #16
 160 0024 0CD0     		beq	.L9
 161              		.loc 1 231 3 discriminator 5
 162 0026 7B68     		ldr	r3, [r7, #4]
 163 0028 202B     		cmp	r3, #32
 164 002a 09D0     		beq	.L9
 165              		.loc 1 231 3 discriminator 6
ARM GAS  /tmp/ccRTEIeG.s 			page 8


 166 002c 7B68     		ldr	r3, [r7, #4]
 167 002e 402B     		cmp	r3, #64
 168 0030 06D0     		beq	.L9
 169              		.loc 1 231 3 discriminator 7
 170 0032 7B68     		ldr	r3, [r7, #4]
 171 0034 802B     		cmp	r3, #128
 172 0036 03D0     		beq	.L9
 173              		.loc 1 231 3 discriminator 8
 174 0038 E721     		movs	r1, #231
 175 003a 1548     		ldr	r0, .L13
 176 003c FFF7FEFF 		bl	assert_failed
 177              	.L9:
 178 0040 7B68     		ldr	r3, [r7, #4]
 179 0042 3B61     		str	r3, [r7, #16]
 180              	.LBB18:
 181              	.LBB19:
 182              		.file 2 "STM32Cube_FW_N6/Drivers/CMSIS/Include/cmsis_gcc.h"
   1:STM32Cube_FW_N6/Drivers/CMSIS/Include/cmsis_gcc.h **** /**************************************************************************//**
   2:STM32Cube_FW_N6/Drivers/CMSIS/Include/cmsis_gcc.h ****  * @file     cmsis_gcc.h
   3:STM32Cube_FW_N6/Drivers/CMSIS/Include/cmsis_gcc.h ****  * @brief    CMSIS compiler GCC header file
   4:STM32Cube_FW_N6/Drivers/CMSIS/Include/cmsis_gcc.h ****  * @version  V5.4.1
   5:STM32Cube_FW_N6/Drivers/CMSIS/Include/cmsis_gcc.h ****  * @date     27. May 2021
   6:STM32Cube_FW_N6/Drivers/CMSIS/Include/cmsis_gcc.h ****  ******************************************************************************/
   7:STM32Cube_FW_N6/Drivers/CMSIS/Include/cmsis_gcc.h **** /*
   8:STM32Cube_FW_N6/Drivers/CMSIS/Include/cmsis_gcc.h ****  * Copyright (c) 2009-2021 Arm Limited. All rights reserved.
   9:STM32Cube_FW_N6/Drivers/CMSIS/Include/cmsis_gcc.h ****  *
  10:STM32Cube_FW_N6/Drivers/CMSIS/Include/cmsis_gcc.h ****  * SPDX-License-Identifier: Apache-2.0
  11:STM32Cube_FW_N6/Drivers/CMSIS/Include/cmsis_gcc.h ****  *
  12:STM32Cube_FW_N6/Drivers/CMSIS/Include/cmsis_gcc.h ****  * Licensed under the Apache License, Version 2.0 (the License); you may
  13:STM32Cube_FW_N6/Drivers/CMSIS/Include/cmsis_gcc.h ****  * not use this file except in compliance with the License.
  14:STM32Cube_FW_N6/Drivers/CMSIS/Include/cmsis_gcc.h ****  * You may obtain a copy of the License at
  15:STM32Cube_FW_N6/Drivers/CMSIS/Include/cmsis_gcc.h ****  *
  16:STM32Cube_FW_N6/Drivers/CMSIS/Include/cmsis_gcc.h ****  * www.apache.org/licenses/LICENSE-2.0
  17:STM32Cube_FW_N6/Drivers/CMSIS/Include/cmsis_gcc.h ****  *
  18:STM32Cube_FW_N6/Drivers/CMSIS/Include/cmsis_gcc.h ****  * Unless required by applicable law or agreed to in writing, software
  19:STM32Cube_FW_N6/Drivers/CMSIS/Include/cmsis_gcc.h ****  * distributed under the License is distributed on an AS IS BASIS, WITHOUT
  20:STM32Cube_FW_N6/Drivers/CMSIS/Include/cmsis_gcc.h ****  * WARRANTIES OR CONDITIONS OF ANY KIND, either express or implied.
  21:STM32Cube_FW_N6/Drivers/CMSIS/Include/cmsis_gcc.h ****  * See the License for the specific language governing permissions and
  22:STM32Cube_FW_N6/Drivers/CMSIS/Include/cmsis_gcc.h ****  * limitations under the License.
  23:STM32Cube_FW_N6/Drivers/CMSIS/Include/cmsis_gcc.h ****  */
  24:STM32Cube_FW_N6/Drivers/CMSIS/Include/cmsis_gcc.h **** 
  25:STM32Cube_FW_N6/Drivers/CMSIS/Include/cmsis_gcc.h **** #ifndef __CMSIS_GCC_H
  26:STM32Cube_FW_N6/Drivers/CMSIS/Include/cmsis_gcc.h **** #define __CMSIS_GCC_H
  27:STM32Cube_FW_N6/Drivers/CMSIS/Include/cmsis_gcc.h **** 
  28:STM32Cube_FW_N6/Drivers/CMSIS/Include/cmsis_gcc.h **** /* ignore some GCC warnings */
  29:STM32Cube_FW_N6/Drivers/CMSIS/Include/cmsis_gcc.h **** #pragma GCC diagnostic push
  30:STM32Cube_FW_N6/Drivers/CMSIS/Include/cmsis_gcc.h **** #pragma GCC diagnostic ignored "-Wsign-conversion"
  31:STM32Cube_FW_N6/Drivers/CMSIS/Include/cmsis_gcc.h **** #pragma GCC diagnostic ignored "-Wconversion"
  32:STM32Cube_FW_N6/Drivers/CMSIS/Include/cmsis_gcc.h **** #pragma GCC diagnostic ignored "-Wunused-parameter"
  33:STM32Cube_FW_N6/Drivers/CMSIS/Include/cmsis_gcc.h **** 
  34:STM32Cube_FW_N6/Drivers/CMSIS/Include/cmsis_gcc.h **** /* Fallback for __has_builtin */
  35:STM32Cube_FW_N6/Drivers/CMSIS/Include/cmsis_gcc.h **** #ifndef __has_builtin
  36:STM32Cube_FW_N6/Drivers/CMSIS/Include/cmsis_gcc.h ****   #define __has_builtin(x) (0)
  37:STM32Cube_FW_N6/Drivers/CMSIS/Include/cmsis_gcc.h **** #endif
  38:STM32Cube_FW_N6/Drivers/CMSIS/Include/cmsis_gcc.h **** 
  39:STM32Cube_FW_N6/Drivers/CMSIS/Include/cmsis_gcc.h **** /* CMSIS compiler specific defines */
  40:STM32Cube_FW_N6/Drivers/CMSIS/Include/cmsis_gcc.h **** #ifndef   __ASM
ARM GAS  /tmp/ccRTEIeG.s 			page 9


  41:STM32Cube_FW_N6/Drivers/CMSIS/Include/cmsis_gcc.h ****   #define __ASM                                  __asm
  42:STM32Cube_FW_N6/Drivers/CMSIS/Include/cmsis_gcc.h **** #endif
  43:STM32Cube_FW_N6/Drivers/CMSIS/Include/cmsis_gcc.h **** #ifndef   __INLINE
  44:STM32Cube_FW_N6/Drivers/CMSIS/Include/cmsis_gcc.h ****   #define __INLINE                               inline
  45:STM32Cube_FW_N6/Drivers/CMSIS/Include/cmsis_gcc.h **** #endif
  46:STM32Cube_FW_N6/Drivers/CMSIS/Include/cmsis_gcc.h **** #ifndef   __STATIC_INLINE
  47:STM32Cube_FW_N6/Drivers/CMSIS/Include/cmsis_gcc.h ****   #define __STATIC_INLINE                        static inline
  48:STM32Cube_FW_N6/Drivers/CMSIS/Include/cmsis_gcc.h **** #endif
  49:STM32Cube_FW_N6/Drivers/CMSIS/Include/cmsis_gcc.h **** #ifndef   __STATIC_FORCEINLINE
  50:STM32Cube_FW_N6/Drivers/CMSIS/Include/cmsis_gcc.h ****   #define __STATIC_FORCEINLINE                   __attribute__((always_inline)) static inline
  51:STM32Cube_FW_N6/Drivers/CMSIS/Include/cmsis_gcc.h **** #endif
  52:STM32Cube_FW_N6/Drivers/CMSIS/Include/cmsis_gcc.h **** #ifndef   __NO_RETURN
  53:STM32Cube_FW_N6/Drivers/CMSIS/Include/cmsis_gcc.h ****   #define __NO_RETURN                            __attribute__((__noreturn__))
  54:STM32Cube_FW_N6/Drivers/CMSIS/Include/cmsis_gcc.h **** #endif
  55:STM32Cube_FW_N6/Drivers/CMSIS/Include/cmsis_gcc.h **** #ifndef   __USED
  56:STM32Cube_FW_N6/Drivers/CMSIS/Include/cmsis_gcc.h ****   #define __USED                                 __attribute__((used))
  57:STM32Cube_FW_N6/Drivers/CMSIS/Include/cmsis_gcc.h **** #endif
  58:STM32Cube_FW_N6/Drivers/CMSIS/Include/cmsis_gcc.h **** #ifndef   __WEAK
  59:STM32Cube_FW_N6/Drivers/CMSIS/Include/cmsis_gcc.h ****   #define __WEAK                                 __attribute__((weak))
  60:STM32Cube_FW_N6/Drivers/CMSIS/Include/cmsis_gcc.h **** #endif
  61:STM32Cube_FW_N6/Drivers/CMSIS/Include/cmsis_gcc.h **** #ifndef   __PACKED
  62:STM32Cube_FW_N6/Drivers/CMSIS/Include/cmsis_gcc.h ****   #define __PACKED                               __attribute__((packed, aligned(1)))
  63:STM32Cube_FW_N6/Drivers/CMSIS/Include/cmsis_gcc.h **** #endif
  64:STM32Cube_FW_N6/Drivers/CMSIS/Include/cmsis_gcc.h **** #ifndef   __PACKED_STRUCT
  65:STM32Cube_FW_N6/Drivers/CMSIS/Include/cmsis_gcc.h ****   #define __PACKED_STRUCT                        struct __attribute__((packed, aligned(1)))
  66:STM32Cube_FW_N6/Drivers/CMSIS/Include/cmsis_gcc.h **** #endif
  67:STM32Cube_FW_N6/Drivers/CMSIS/Include/cmsis_gcc.h **** #ifndef   __PACKED_UNION
  68:STM32Cube_FW_N6/Drivers/CMSIS/Include/cmsis_gcc.h ****   #define __PACKED_UNION                         union __attribute__((packed, aligned(1)))
  69:STM32Cube_FW_N6/Drivers/CMSIS/Include/cmsis_gcc.h **** #endif
  70:STM32Cube_FW_N6/Drivers/CMSIS/Include/cmsis_gcc.h **** #ifndef   __UNALIGNED_UINT32        /* deprecated */
  71:STM32Cube_FW_N6/Drivers/CMSIS/Include/cmsis_gcc.h ****   #pragma GCC diagnostic push
  72:STM32Cube_FW_N6/Drivers/CMSIS/Include/cmsis_gcc.h ****   #pragma GCC diagnostic ignored "-Wpacked"
  73:STM32Cube_FW_N6/Drivers/CMSIS/Include/cmsis_gcc.h ****   #pragma GCC diagnostic ignored "-Wattributes"
  74:STM32Cube_FW_N6/Drivers/CMSIS/Include/cmsis_gcc.h ****   struct __attribute__((packed)) T_UINT32 { uint32_t v; };
  75:STM32Cube_FW_N6/Drivers/CMSIS/Include/cmsis_gcc.h ****   #pragma GCC diagnostic pop
  76:STM32Cube_FW_N6/Drivers/CMSIS/Include/cmsis_gcc.h ****   #define __UNALIGNED_UINT32(x)                  (((struct T_UINT32 *)(x))->v)
  77:STM32Cube_FW_N6/Drivers/CMSIS/Include/cmsis_gcc.h **** #endif
  78:STM32Cube_FW_N6/Drivers/CMSIS/Include/cmsis_gcc.h **** #ifndef   __UNALIGNED_UINT16_WRITE
  79:STM32Cube_FW_N6/Drivers/CMSIS/Include/cmsis_gcc.h ****   #pragma GCC diagnostic push
  80:STM32Cube_FW_N6/Drivers/CMSIS/Include/cmsis_gcc.h ****   #pragma GCC diagnostic ignored "-Wpacked"
  81:STM32Cube_FW_N6/Drivers/CMSIS/Include/cmsis_gcc.h ****   #pragma GCC diagnostic ignored "-Wattributes"
  82:STM32Cube_FW_N6/Drivers/CMSIS/Include/cmsis_gcc.h ****   __PACKED_STRUCT T_UINT16_WRITE { uint16_t v; };
  83:STM32Cube_FW_N6/Drivers/CMSIS/Include/cmsis_gcc.h ****   #pragma GCC diagnostic pop
  84:STM32Cube_FW_N6/Drivers/CMSIS/Include/cmsis_gcc.h ****   #define __UNALIGNED_UINT16_WRITE(addr, val)    (void)((((struct T_UINT16_WRITE *)(void *)(addr))-
  85:STM32Cube_FW_N6/Drivers/CMSIS/Include/cmsis_gcc.h **** #endif
  86:STM32Cube_FW_N6/Drivers/CMSIS/Include/cmsis_gcc.h **** #ifndef   __UNALIGNED_UINT16_READ
  87:STM32Cube_FW_N6/Drivers/CMSIS/Include/cmsis_gcc.h ****   #pragma GCC diagnostic push
  88:STM32Cube_FW_N6/Drivers/CMSIS/Include/cmsis_gcc.h ****   #pragma GCC diagnostic ignored "-Wpacked"
  89:STM32Cube_FW_N6/Drivers/CMSIS/Include/cmsis_gcc.h ****   #pragma GCC diagnostic ignored "-Wattributes"
  90:STM32Cube_FW_N6/Drivers/CMSIS/Include/cmsis_gcc.h ****   __PACKED_STRUCT T_UINT16_READ { uint16_t v; };
  91:STM32Cube_FW_N6/Drivers/CMSIS/Include/cmsis_gcc.h ****   #pragma GCC diagnostic pop
  92:STM32Cube_FW_N6/Drivers/CMSIS/Include/cmsis_gcc.h ****   #define __UNALIGNED_UINT16_READ(addr)          (((const struct T_UINT16_READ *)(const void *)(add
  93:STM32Cube_FW_N6/Drivers/CMSIS/Include/cmsis_gcc.h **** #endif
  94:STM32Cube_FW_N6/Drivers/CMSIS/Include/cmsis_gcc.h **** #ifndef   __UNALIGNED_UINT32_WRITE
  95:STM32Cube_FW_N6/Drivers/CMSIS/Include/cmsis_gcc.h ****   #pragma GCC diagnostic push
  96:STM32Cube_FW_N6/Drivers/CMSIS/Include/cmsis_gcc.h ****   #pragma GCC diagnostic ignored "-Wpacked"
  97:STM32Cube_FW_N6/Drivers/CMSIS/Include/cmsis_gcc.h ****   #pragma GCC diagnostic ignored "-Wattributes"
ARM GAS  /tmp/ccRTEIeG.s 			page 10


  98:STM32Cube_FW_N6/Drivers/CMSIS/Include/cmsis_gcc.h ****   __PACKED_STRUCT T_UINT32_WRITE { uint32_t v; };
  99:STM32Cube_FW_N6/Drivers/CMSIS/Include/cmsis_gcc.h ****   #pragma GCC diagnostic pop
 100:STM32Cube_FW_N6/Drivers/CMSIS/Include/cmsis_gcc.h ****   #define __UNALIGNED_UINT32_WRITE(addr, val)    (void)((((struct T_UINT32_WRITE *)(void *)(addr))-
 101:STM32Cube_FW_N6/Drivers/CMSIS/Include/cmsis_gcc.h **** #endif
 102:STM32Cube_FW_N6/Drivers/CMSIS/Include/cmsis_gcc.h **** #ifndef   __UNALIGNED_UINT32_READ
 103:STM32Cube_FW_N6/Drivers/CMSIS/Include/cmsis_gcc.h ****   #pragma GCC diagnostic push
 104:STM32Cube_FW_N6/Drivers/CMSIS/Include/cmsis_gcc.h ****   #pragma GCC diagnostic ignored "-Wpacked"
 105:STM32Cube_FW_N6/Drivers/CMSIS/Include/cmsis_gcc.h ****   #pragma GCC diagnostic ignored "-Wattributes"
 106:STM32Cube_FW_N6/Drivers/CMSIS/Include/cmsis_gcc.h ****   __PACKED_STRUCT T_UINT32_READ { uint32_t v; };
 107:STM32Cube_FW_N6/Drivers/CMSIS/Include/cmsis_gcc.h ****   #pragma GCC diagnostic pop
 108:STM32Cube_FW_N6/Drivers/CMSIS/Include/cmsis_gcc.h ****   #define __UNALIGNED_UINT32_READ(addr)          (((const struct T_UINT32_READ *)(const void *)(add
 109:STM32Cube_FW_N6/Drivers/CMSIS/Include/cmsis_gcc.h **** #endif
 110:STM32Cube_FW_N6/Drivers/CMSIS/Include/cmsis_gcc.h **** #ifndef   __ALIGNED
 111:STM32Cube_FW_N6/Drivers/CMSIS/Include/cmsis_gcc.h ****   #define __ALIGNED(x)                           __attribute__((aligned(x)))
 112:STM32Cube_FW_N6/Drivers/CMSIS/Include/cmsis_gcc.h **** #endif
 113:STM32Cube_FW_N6/Drivers/CMSIS/Include/cmsis_gcc.h **** #ifndef   __RESTRICT
 114:STM32Cube_FW_N6/Drivers/CMSIS/Include/cmsis_gcc.h ****   #define __RESTRICT                             __restrict
 115:STM32Cube_FW_N6/Drivers/CMSIS/Include/cmsis_gcc.h **** #endif
 116:STM32Cube_FW_N6/Drivers/CMSIS/Include/cmsis_gcc.h **** #ifndef   __COMPILER_BARRIER
 117:STM32Cube_FW_N6/Drivers/CMSIS/Include/cmsis_gcc.h ****   #define __COMPILER_BARRIER()                   __ASM volatile("":::"memory")
 118:STM32Cube_FW_N6/Drivers/CMSIS/Include/cmsis_gcc.h **** #endif
 119:STM32Cube_FW_N6/Drivers/CMSIS/Include/cmsis_gcc.h **** 
 120:STM32Cube_FW_N6/Drivers/CMSIS/Include/cmsis_gcc.h **** /* #########################  Startup and Lowlevel Init  ######################## */
 121:STM32Cube_FW_N6/Drivers/CMSIS/Include/cmsis_gcc.h **** 
 122:STM32Cube_FW_N6/Drivers/CMSIS/Include/cmsis_gcc.h **** #ifndef __PROGRAM_START
 123:STM32Cube_FW_N6/Drivers/CMSIS/Include/cmsis_gcc.h **** 
 124:STM32Cube_FW_N6/Drivers/CMSIS/Include/cmsis_gcc.h **** /**
 125:STM32Cube_FW_N6/Drivers/CMSIS/Include/cmsis_gcc.h ****   \brief   Initializes data and bss sections
 126:STM32Cube_FW_N6/Drivers/CMSIS/Include/cmsis_gcc.h ****   \details This default implementations initialized all data and additional bss
 127:STM32Cube_FW_N6/Drivers/CMSIS/Include/cmsis_gcc.h ****            sections relying on .copy.table and .zero.table specified properly
 128:STM32Cube_FW_N6/Drivers/CMSIS/Include/cmsis_gcc.h ****            in the used linker script.
 129:STM32Cube_FW_N6/Drivers/CMSIS/Include/cmsis_gcc.h **** 
 130:STM32Cube_FW_N6/Drivers/CMSIS/Include/cmsis_gcc.h ****  */
 131:STM32Cube_FW_N6/Drivers/CMSIS/Include/cmsis_gcc.h **** __STATIC_FORCEINLINE __NO_RETURN void __cmsis_start(void)
 132:STM32Cube_FW_N6/Drivers/CMSIS/Include/cmsis_gcc.h **** {
 133:STM32Cube_FW_N6/Drivers/CMSIS/Include/cmsis_gcc.h ****   extern void _start(void) __NO_RETURN;
 134:STM32Cube_FW_N6/Drivers/CMSIS/Include/cmsis_gcc.h **** 
 135:STM32Cube_FW_N6/Drivers/CMSIS/Include/cmsis_gcc.h ****   typedef struct {
 136:STM32Cube_FW_N6/Drivers/CMSIS/Include/cmsis_gcc.h ****     uint32_t const* src;
 137:STM32Cube_FW_N6/Drivers/CMSIS/Include/cmsis_gcc.h ****     uint32_t* dest;
 138:STM32Cube_FW_N6/Drivers/CMSIS/Include/cmsis_gcc.h ****     uint32_t  wlen;
 139:STM32Cube_FW_N6/Drivers/CMSIS/Include/cmsis_gcc.h ****   } __copy_table_t;
 140:STM32Cube_FW_N6/Drivers/CMSIS/Include/cmsis_gcc.h **** 
 141:STM32Cube_FW_N6/Drivers/CMSIS/Include/cmsis_gcc.h ****   typedef struct {
 142:STM32Cube_FW_N6/Drivers/CMSIS/Include/cmsis_gcc.h ****     uint32_t* dest;
 143:STM32Cube_FW_N6/Drivers/CMSIS/Include/cmsis_gcc.h ****     uint32_t  wlen;
 144:STM32Cube_FW_N6/Drivers/CMSIS/Include/cmsis_gcc.h ****   } __zero_table_t;
 145:STM32Cube_FW_N6/Drivers/CMSIS/Include/cmsis_gcc.h **** 
 146:STM32Cube_FW_N6/Drivers/CMSIS/Include/cmsis_gcc.h ****   extern const __copy_table_t __copy_table_start__;
 147:STM32Cube_FW_N6/Drivers/CMSIS/Include/cmsis_gcc.h ****   extern const __copy_table_t __copy_table_end__;
 148:STM32Cube_FW_N6/Drivers/CMSIS/Include/cmsis_gcc.h ****   extern const __zero_table_t __zero_table_start__;
 149:STM32Cube_FW_N6/Drivers/CMSIS/Include/cmsis_gcc.h ****   extern const __zero_table_t __zero_table_end__;
 150:STM32Cube_FW_N6/Drivers/CMSIS/Include/cmsis_gcc.h **** 
 151:STM32Cube_FW_N6/Drivers/CMSIS/Include/cmsis_gcc.h ****   for (__copy_table_t const* pTable = &__copy_table_start__; pTable < &__copy_table_end__; ++pTable
 152:STM32Cube_FW_N6/Drivers/CMSIS/Include/cmsis_gcc.h ****     for(uint32_t i=0u; i<pTable->wlen; ++i) {
 153:STM32Cube_FW_N6/Drivers/CMSIS/Include/cmsis_gcc.h ****       pTable->dest[i] = pTable->src[i];
 154:STM32Cube_FW_N6/Drivers/CMSIS/Include/cmsis_gcc.h ****     }
ARM GAS  /tmp/ccRTEIeG.s 			page 11


 155:STM32Cube_FW_N6/Drivers/CMSIS/Include/cmsis_gcc.h ****   }
 156:STM32Cube_FW_N6/Drivers/CMSIS/Include/cmsis_gcc.h **** 
 157:STM32Cube_FW_N6/Drivers/CMSIS/Include/cmsis_gcc.h ****   for (__zero_table_t const* pTable = &__zero_table_start__; pTable < &__zero_table_end__; ++pTable
 158:STM32Cube_FW_N6/Drivers/CMSIS/Include/cmsis_gcc.h ****     for(uint32_t i=0u; i<pTable->wlen; ++i) {
 159:STM32Cube_FW_N6/Drivers/CMSIS/Include/cmsis_gcc.h ****       pTable->dest[i] = 0u;
 160:STM32Cube_FW_N6/Drivers/CMSIS/Include/cmsis_gcc.h ****     }
 161:STM32Cube_FW_N6/Drivers/CMSIS/Include/cmsis_gcc.h ****   }
 162:STM32Cube_FW_N6/Drivers/CMSIS/Include/cmsis_gcc.h **** 
 163:STM32Cube_FW_N6/Drivers/CMSIS/Include/cmsis_gcc.h ****   _start();
 164:STM32Cube_FW_N6/Drivers/CMSIS/Include/cmsis_gcc.h **** }
 165:STM32Cube_FW_N6/Drivers/CMSIS/Include/cmsis_gcc.h **** 
 166:STM32Cube_FW_N6/Drivers/CMSIS/Include/cmsis_gcc.h **** #define __PROGRAM_START           __cmsis_start
 167:STM32Cube_FW_N6/Drivers/CMSIS/Include/cmsis_gcc.h **** #endif
 168:STM32Cube_FW_N6/Drivers/CMSIS/Include/cmsis_gcc.h **** 
 169:STM32Cube_FW_N6/Drivers/CMSIS/Include/cmsis_gcc.h **** #ifndef __INITIAL_SP
 170:STM32Cube_FW_N6/Drivers/CMSIS/Include/cmsis_gcc.h **** #define __INITIAL_SP              __StackTop
 171:STM32Cube_FW_N6/Drivers/CMSIS/Include/cmsis_gcc.h **** #endif
 172:STM32Cube_FW_N6/Drivers/CMSIS/Include/cmsis_gcc.h **** 
 173:STM32Cube_FW_N6/Drivers/CMSIS/Include/cmsis_gcc.h **** #ifndef __STACK_LIMIT
 174:STM32Cube_FW_N6/Drivers/CMSIS/Include/cmsis_gcc.h **** #define __STACK_LIMIT             __StackLimit
 175:STM32Cube_FW_N6/Drivers/CMSIS/Include/cmsis_gcc.h **** #endif
 176:STM32Cube_FW_N6/Drivers/CMSIS/Include/cmsis_gcc.h **** 
 177:STM32Cube_FW_N6/Drivers/CMSIS/Include/cmsis_gcc.h **** #ifndef __VECTOR_TABLE
 178:STM32Cube_FW_N6/Drivers/CMSIS/Include/cmsis_gcc.h **** #define __VECTOR_TABLE            __Vectors
 179:STM32Cube_FW_N6/Drivers/CMSIS/Include/cmsis_gcc.h **** #endif
 180:STM32Cube_FW_N6/Drivers/CMSIS/Include/cmsis_gcc.h **** 
 181:STM32Cube_FW_N6/Drivers/CMSIS/Include/cmsis_gcc.h **** #ifndef __VECTOR_TABLE_ATTRIBUTE
 182:STM32Cube_FW_N6/Drivers/CMSIS/Include/cmsis_gcc.h **** #define __VECTOR_TABLE_ATTRIBUTE  __attribute__((used, section(".vectors")))
 183:STM32Cube_FW_N6/Drivers/CMSIS/Include/cmsis_gcc.h **** #endif
 184:STM32Cube_FW_N6/Drivers/CMSIS/Include/cmsis_gcc.h **** 
 185:STM32Cube_FW_N6/Drivers/CMSIS/Include/cmsis_gcc.h **** #if defined (__ARM_FEATURE_CMSE) && (__ARM_FEATURE_CMSE == 3U)
 186:STM32Cube_FW_N6/Drivers/CMSIS/Include/cmsis_gcc.h **** #ifndef __STACK_SEAL
 187:STM32Cube_FW_N6/Drivers/CMSIS/Include/cmsis_gcc.h **** #define __STACK_SEAL              __StackSeal
 188:STM32Cube_FW_N6/Drivers/CMSIS/Include/cmsis_gcc.h **** #endif
 189:STM32Cube_FW_N6/Drivers/CMSIS/Include/cmsis_gcc.h **** 
 190:STM32Cube_FW_N6/Drivers/CMSIS/Include/cmsis_gcc.h **** #ifndef __TZ_STACK_SEAL_SIZE
 191:STM32Cube_FW_N6/Drivers/CMSIS/Include/cmsis_gcc.h **** #define __TZ_STACK_SEAL_SIZE      8U
 192:STM32Cube_FW_N6/Drivers/CMSIS/Include/cmsis_gcc.h **** #endif
 193:STM32Cube_FW_N6/Drivers/CMSIS/Include/cmsis_gcc.h **** 
 194:STM32Cube_FW_N6/Drivers/CMSIS/Include/cmsis_gcc.h **** #ifndef __TZ_STACK_SEAL_VALUE
 195:STM32Cube_FW_N6/Drivers/CMSIS/Include/cmsis_gcc.h **** #define __TZ_STACK_SEAL_VALUE     0xFEF5EDA5FEF5EDA5ULL
 196:STM32Cube_FW_N6/Drivers/CMSIS/Include/cmsis_gcc.h **** #endif
 197:STM32Cube_FW_N6/Drivers/CMSIS/Include/cmsis_gcc.h **** 
 198:STM32Cube_FW_N6/Drivers/CMSIS/Include/cmsis_gcc.h **** 
 199:STM32Cube_FW_N6/Drivers/CMSIS/Include/cmsis_gcc.h **** __STATIC_FORCEINLINE void __TZ_set_STACKSEAL_S (uint32_t* stackTop) {
 200:STM32Cube_FW_N6/Drivers/CMSIS/Include/cmsis_gcc.h ****   *((uint64_t *)stackTop) = __TZ_STACK_SEAL_VALUE;
 201:STM32Cube_FW_N6/Drivers/CMSIS/Include/cmsis_gcc.h **** }
 202:STM32Cube_FW_N6/Drivers/CMSIS/Include/cmsis_gcc.h **** #endif
 203:STM32Cube_FW_N6/Drivers/CMSIS/Include/cmsis_gcc.h **** 
 204:STM32Cube_FW_N6/Drivers/CMSIS/Include/cmsis_gcc.h **** 
 205:STM32Cube_FW_N6/Drivers/CMSIS/Include/cmsis_gcc.h **** /* ##########################  Core Instruction Access  ######################### */
 206:STM32Cube_FW_N6/Drivers/CMSIS/Include/cmsis_gcc.h **** /** \defgroup CMSIS_Core_InstructionInterface CMSIS Core Instruction Interface
 207:STM32Cube_FW_N6/Drivers/CMSIS/Include/cmsis_gcc.h ****   Access to dedicated instructions
 208:STM32Cube_FW_N6/Drivers/CMSIS/Include/cmsis_gcc.h ****   @{
 209:STM32Cube_FW_N6/Drivers/CMSIS/Include/cmsis_gcc.h **** */
 210:STM32Cube_FW_N6/Drivers/CMSIS/Include/cmsis_gcc.h **** 
 211:STM32Cube_FW_N6/Drivers/CMSIS/Include/cmsis_gcc.h **** /* Define macros for porting to both thumb1 and thumb2.
ARM GAS  /tmp/ccRTEIeG.s 			page 12


 212:STM32Cube_FW_N6/Drivers/CMSIS/Include/cmsis_gcc.h ****  * For thumb1, use low register (r0-r7), specified by constraint "l"
 213:STM32Cube_FW_N6/Drivers/CMSIS/Include/cmsis_gcc.h ****  * Otherwise, use general registers, specified by constraint "r" */
 214:STM32Cube_FW_N6/Drivers/CMSIS/Include/cmsis_gcc.h **** #if defined (__thumb__) && !defined (__thumb2__)
 215:STM32Cube_FW_N6/Drivers/CMSIS/Include/cmsis_gcc.h **** #define __CMSIS_GCC_OUT_REG(r) "=l" (r)
 216:STM32Cube_FW_N6/Drivers/CMSIS/Include/cmsis_gcc.h **** #define __CMSIS_GCC_RW_REG(r) "+l" (r)
 217:STM32Cube_FW_N6/Drivers/CMSIS/Include/cmsis_gcc.h **** #define __CMSIS_GCC_USE_REG(r) "l" (r)
 218:STM32Cube_FW_N6/Drivers/CMSIS/Include/cmsis_gcc.h **** #else
 219:STM32Cube_FW_N6/Drivers/CMSIS/Include/cmsis_gcc.h **** #define __CMSIS_GCC_OUT_REG(r) "=r" (r)
 220:STM32Cube_FW_N6/Drivers/CMSIS/Include/cmsis_gcc.h **** #define __CMSIS_GCC_RW_REG(r) "+r" (r)
 221:STM32Cube_FW_N6/Drivers/CMSIS/Include/cmsis_gcc.h **** #define __CMSIS_GCC_USE_REG(r) "r" (r)
 222:STM32Cube_FW_N6/Drivers/CMSIS/Include/cmsis_gcc.h **** #endif
 223:STM32Cube_FW_N6/Drivers/CMSIS/Include/cmsis_gcc.h **** 
 224:STM32Cube_FW_N6/Drivers/CMSIS/Include/cmsis_gcc.h **** /**
 225:STM32Cube_FW_N6/Drivers/CMSIS/Include/cmsis_gcc.h ****   \brief   No Operation
 226:STM32Cube_FW_N6/Drivers/CMSIS/Include/cmsis_gcc.h ****   \details No Operation does nothing. This instruction can be used for code alignment purposes.
 227:STM32Cube_FW_N6/Drivers/CMSIS/Include/cmsis_gcc.h ****  */
 228:STM32Cube_FW_N6/Drivers/CMSIS/Include/cmsis_gcc.h **** #define __NOP()                             __ASM volatile ("nop")
 229:STM32Cube_FW_N6/Drivers/CMSIS/Include/cmsis_gcc.h **** 
 230:STM32Cube_FW_N6/Drivers/CMSIS/Include/cmsis_gcc.h **** /**
 231:STM32Cube_FW_N6/Drivers/CMSIS/Include/cmsis_gcc.h ****   \brief   Wait For Interrupt
 232:STM32Cube_FW_N6/Drivers/CMSIS/Include/cmsis_gcc.h ****   \details Wait For Interrupt is a hint instruction that suspends execution until one of a number o
 233:STM32Cube_FW_N6/Drivers/CMSIS/Include/cmsis_gcc.h ****  */
 234:STM32Cube_FW_N6/Drivers/CMSIS/Include/cmsis_gcc.h **** #define __WFI()                             __ASM volatile ("wfi":::"memory")
 235:STM32Cube_FW_N6/Drivers/CMSIS/Include/cmsis_gcc.h **** 
 236:STM32Cube_FW_N6/Drivers/CMSIS/Include/cmsis_gcc.h **** 
 237:STM32Cube_FW_N6/Drivers/CMSIS/Include/cmsis_gcc.h **** /**
 238:STM32Cube_FW_N6/Drivers/CMSIS/Include/cmsis_gcc.h ****   \brief   Wait For Event
 239:STM32Cube_FW_N6/Drivers/CMSIS/Include/cmsis_gcc.h ****   \details Wait For Event is a hint instruction that permits the processor to enter
 240:STM32Cube_FW_N6/Drivers/CMSIS/Include/cmsis_gcc.h ****            a low-power state until one of a number of events occurs.
 241:STM32Cube_FW_N6/Drivers/CMSIS/Include/cmsis_gcc.h ****  */
 242:STM32Cube_FW_N6/Drivers/CMSIS/Include/cmsis_gcc.h **** #define __WFE()                             __ASM volatile ("wfe":::"memory")
 243:STM32Cube_FW_N6/Drivers/CMSIS/Include/cmsis_gcc.h **** 
 244:STM32Cube_FW_N6/Drivers/CMSIS/Include/cmsis_gcc.h **** 
 245:STM32Cube_FW_N6/Drivers/CMSIS/Include/cmsis_gcc.h **** /**
 246:STM32Cube_FW_N6/Drivers/CMSIS/Include/cmsis_gcc.h ****   \brief   Send Event
 247:STM32Cube_FW_N6/Drivers/CMSIS/Include/cmsis_gcc.h ****   \details Send Event is a hint instruction. It causes an event to be signaled to the CPU.
 248:STM32Cube_FW_N6/Drivers/CMSIS/Include/cmsis_gcc.h ****  */
 249:STM32Cube_FW_N6/Drivers/CMSIS/Include/cmsis_gcc.h **** #define __SEV()                             __ASM volatile ("sev")
 250:STM32Cube_FW_N6/Drivers/CMSIS/Include/cmsis_gcc.h **** 
 251:STM32Cube_FW_N6/Drivers/CMSIS/Include/cmsis_gcc.h **** 
 252:STM32Cube_FW_N6/Drivers/CMSIS/Include/cmsis_gcc.h **** /**
 253:STM32Cube_FW_N6/Drivers/CMSIS/Include/cmsis_gcc.h ****   \brief   Instruction Synchronization Barrier
 254:STM32Cube_FW_N6/Drivers/CMSIS/Include/cmsis_gcc.h ****   \details Instruction Synchronization Barrier flushes the pipeline in the processor,
 255:STM32Cube_FW_N6/Drivers/CMSIS/Include/cmsis_gcc.h ****            so that all instructions following the ISB are fetched from cache or memory,
 256:STM32Cube_FW_N6/Drivers/CMSIS/Include/cmsis_gcc.h ****            after the instruction has been completed.
 257:STM32Cube_FW_N6/Drivers/CMSIS/Include/cmsis_gcc.h ****  */
 258:STM32Cube_FW_N6/Drivers/CMSIS/Include/cmsis_gcc.h **** __STATIC_FORCEINLINE void __ISB(void)
 259:STM32Cube_FW_N6/Drivers/CMSIS/Include/cmsis_gcc.h **** {
 260:STM32Cube_FW_N6/Drivers/CMSIS/Include/cmsis_gcc.h ****   __ASM volatile ("isb 0xF":::"memory");
 261:STM32Cube_FW_N6/Drivers/CMSIS/Include/cmsis_gcc.h **** }
 262:STM32Cube_FW_N6/Drivers/CMSIS/Include/cmsis_gcc.h **** 
 263:STM32Cube_FW_N6/Drivers/CMSIS/Include/cmsis_gcc.h **** 
 264:STM32Cube_FW_N6/Drivers/CMSIS/Include/cmsis_gcc.h **** /**
 265:STM32Cube_FW_N6/Drivers/CMSIS/Include/cmsis_gcc.h ****   \brief   Data Synchronization Barrier
 266:STM32Cube_FW_N6/Drivers/CMSIS/Include/cmsis_gcc.h ****   \details Acts as a special kind of Data Memory Barrier.
 267:STM32Cube_FW_N6/Drivers/CMSIS/Include/cmsis_gcc.h ****            It completes when all explicit memory accesses before this instruction complete.
 268:STM32Cube_FW_N6/Drivers/CMSIS/Include/cmsis_gcc.h ****  */
ARM GAS  /tmp/ccRTEIeG.s 			page 13


 269:STM32Cube_FW_N6/Drivers/CMSIS/Include/cmsis_gcc.h **** __STATIC_FORCEINLINE void __DSB(void)
 270:STM32Cube_FW_N6/Drivers/CMSIS/Include/cmsis_gcc.h **** {
 271:STM32Cube_FW_N6/Drivers/CMSIS/Include/cmsis_gcc.h ****   __ASM volatile ("dsb 0xF":::"memory");
 272:STM32Cube_FW_N6/Drivers/CMSIS/Include/cmsis_gcc.h **** }
 273:STM32Cube_FW_N6/Drivers/CMSIS/Include/cmsis_gcc.h **** 
 274:STM32Cube_FW_N6/Drivers/CMSIS/Include/cmsis_gcc.h **** 
 275:STM32Cube_FW_N6/Drivers/CMSIS/Include/cmsis_gcc.h **** /**
 276:STM32Cube_FW_N6/Drivers/CMSIS/Include/cmsis_gcc.h ****   \brief   Data Memory Barrier
 277:STM32Cube_FW_N6/Drivers/CMSIS/Include/cmsis_gcc.h ****   \details Ensures the apparent order of the explicit memory operations before
 278:STM32Cube_FW_N6/Drivers/CMSIS/Include/cmsis_gcc.h ****            and after the instruction, without ensuring their completion.
 279:STM32Cube_FW_N6/Drivers/CMSIS/Include/cmsis_gcc.h ****  */
 280:STM32Cube_FW_N6/Drivers/CMSIS/Include/cmsis_gcc.h **** __STATIC_FORCEINLINE void __DMB(void)
 281:STM32Cube_FW_N6/Drivers/CMSIS/Include/cmsis_gcc.h **** {
 282:STM32Cube_FW_N6/Drivers/CMSIS/Include/cmsis_gcc.h ****   __ASM volatile ("dmb 0xF":::"memory");
 283:STM32Cube_FW_N6/Drivers/CMSIS/Include/cmsis_gcc.h **** }
 284:STM32Cube_FW_N6/Drivers/CMSIS/Include/cmsis_gcc.h **** 
 285:STM32Cube_FW_N6/Drivers/CMSIS/Include/cmsis_gcc.h **** 
 286:STM32Cube_FW_N6/Drivers/CMSIS/Include/cmsis_gcc.h **** /**
 287:STM32Cube_FW_N6/Drivers/CMSIS/Include/cmsis_gcc.h ****   \brief   Reverse byte order (32 bit)
 288:STM32Cube_FW_N6/Drivers/CMSIS/Include/cmsis_gcc.h ****   \details Reverses the byte order in unsigned integer value. For example, 0x12345678 becomes 0x785
 289:STM32Cube_FW_N6/Drivers/CMSIS/Include/cmsis_gcc.h ****   \param [in]    value  Value to reverse
 290:STM32Cube_FW_N6/Drivers/CMSIS/Include/cmsis_gcc.h ****   \return               Reversed value
 291:STM32Cube_FW_N6/Drivers/CMSIS/Include/cmsis_gcc.h ****  */
 292:STM32Cube_FW_N6/Drivers/CMSIS/Include/cmsis_gcc.h **** __STATIC_FORCEINLINE uint32_t __REV(uint32_t value)
 293:STM32Cube_FW_N6/Drivers/CMSIS/Include/cmsis_gcc.h **** {
 294:STM32Cube_FW_N6/Drivers/CMSIS/Include/cmsis_gcc.h **** #if (__GNUC__ > 4) || (__GNUC__ == 4 && __GNUC_MINOR__ >= 5)
 295:STM32Cube_FW_N6/Drivers/CMSIS/Include/cmsis_gcc.h ****   return __builtin_bswap32(value);
 296:STM32Cube_FW_N6/Drivers/CMSIS/Include/cmsis_gcc.h **** #else
 297:STM32Cube_FW_N6/Drivers/CMSIS/Include/cmsis_gcc.h ****   uint32_t result;
 298:STM32Cube_FW_N6/Drivers/CMSIS/Include/cmsis_gcc.h **** 
 299:STM32Cube_FW_N6/Drivers/CMSIS/Include/cmsis_gcc.h ****   __ASM ("rev %0, %1" : __CMSIS_GCC_OUT_REG (result) : __CMSIS_GCC_USE_REG (value) );
 300:STM32Cube_FW_N6/Drivers/CMSIS/Include/cmsis_gcc.h ****   return result;
 301:STM32Cube_FW_N6/Drivers/CMSIS/Include/cmsis_gcc.h **** #endif
 302:STM32Cube_FW_N6/Drivers/CMSIS/Include/cmsis_gcc.h **** }
 303:STM32Cube_FW_N6/Drivers/CMSIS/Include/cmsis_gcc.h **** 
 304:STM32Cube_FW_N6/Drivers/CMSIS/Include/cmsis_gcc.h **** 
 305:STM32Cube_FW_N6/Drivers/CMSIS/Include/cmsis_gcc.h **** /**
 306:STM32Cube_FW_N6/Drivers/CMSIS/Include/cmsis_gcc.h ****   \brief   Reverse byte order (16 bit)
 307:STM32Cube_FW_N6/Drivers/CMSIS/Include/cmsis_gcc.h ****   \details Reverses the byte order within each halfword of a word. For example, 0x12345678 becomes 
 308:STM32Cube_FW_N6/Drivers/CMSIS/Include/cmsis_gcc.h ****   \param [in]    value  Value to reverse
 309:STM32Cube_FW_N6/Drivers/CMSIS/Include/cmsis_gcc.h ****   \return               Reversed value
 310:STM32Cube_FW_N6/Drivers/CMSIS/Include/cmsis_gcc.h ****  */
 311:STM32Cube_FW_N6/Drivers/CMSIS/Include/cmsis_gcc.h **** __STATIC_FORCEINLINE uint32_t __REV16(uint32_t value)
 312:STM32Cube_FW_N6/Drivers/CMSIS/Include/cmsis_gcc.h **** {
 313:STM32Cube_FW_N6/Drivers/CMSIS/Include/cmsis_gcc.h ****   uint32_t result;
 314:STM32Cube_FW_N6/Drivers/CMSIS/Include/cmsis_gcc.h **** 
 315:STM32Cube_FW_N6/Drivers/CMSIS/Include/cmsis_gcc.h ****   __ASM ("rev16 %0, %1" : __CMSIS_GCC_OUT_REG (result) : __CMSIS_GCC_USE_REG (value) );
 316:STM32Cube_FW_N6/Drivers/CMSIS/Include/cmsis_gcc.h ****   return result;
 317:STM32Cube_FW_N6/Drivers/CMSIS/Include/cmsis_gcc.h **** }
 318:STM32Cube_FW_N6/Drivers/CMSIS/Include/cmsis_gcc.h **** 
 319:STM32Cube_FW_N6/Drivers/CMSIS/Include/cmsis_gcc.h **** 
 320:STM32Cube_FW_N6/Drivers/CMSIS/Include/cmsis_gcc.h **** /**
 321:STM32Cube_FW_N6/Drivers/CMSIS/Include/cmsis_gcc.h ****   \brief   Reverse byte order (16 bit)
 322:STM32Cube_FW_N6/Drivers/CMSIS/Include/cmsis_gcc.h ****   \details Reverses the byte order in a 16-bit value and returns the signed 16-bit result. For exam
 323:STM32Cube_FW_N6/Drivers/CMSIS/Include/cmsis_gcc.h ****   \param [in]    value  Value to reverse
 324:STM32Cube_FW_N6/Drivers/CMSIS/Include/cmsis_gcc.h ****   \return               Reversed value
 325:STM32Cube_FW_N6/Drivers/CMSIS/Include/cmsis_gcc.h ****  */
ARM GAS  /tmp/ccRTEIeG.s 			page 14


 326:STM32Cube_FW_N6/Drivers/CMSIS/Include/cmsis_gcc.h **** __STATIC_FORCEINLINE int16_t __REVSH(int16_t value)
 327:STM32Cube_FW_N6/Drivers/CMSIS/Include/cmsis_gcc.h **** {
 328:STM32Cube_FW_N6/Drivers/CMSIS/Include/cmsis_gcc.h **** #if (__GNUC__ > 4) || (__GNUC__ == 4 && __GNUC_MINOR__ >= 8)
 329:STM32Cube_FW_N6/Drivers/CMSIS/Include/cmsis_gcc.h ****   return (int16_t)__builtin_bswap16(value);
 330:STM32Cube_FW_N6/Drivers/CMSIS/Include/cmsis_gcc.h **** #else
 331:STM32Cube_FW_N6/Drivers/CMSIS/Include/cmsis_gcc.h ****   int16_t result;
 332:STM32Cube_FW_N6/Drivers/CMSIS/Include/cmsis_gcc.h **** 
 333:STM32Cube_FW_N6/Drivers/CMSIS/Include/cmsis_gcc.h ****   __ASM ("revsh %0, %1" : __CMSIS_GCC_OUT_REG (result) : __CMSIS_GCC_USE_REG (value) );
 334:STM32Cube_FW_N6/Drivers/CMSIS/Include/cmsis_gcc.h ****   return result;
 335:STM32Cube_FW_N6/Drivers/CMSIS/Include/cmsis_gcc.h **** #endif
 336:STM32Cube_FW_N6/Drivers/CMSIS/Include/cmsis_gcc.h **** }
 337:STM32Cube_FW_N6/Drivers/CMSIS/Include/cmsis_gcc.h **** 
 338:STM32Cube_FW_N6/Drivers/CMSIS/Include/cmsis_gcc.h **** 
 339:STM32Cube_FW_N6/Drivers/CMSIS/Include/cmsis_gcc.h **** /**
 340:STM32Cube_FW_N6/Drivers/CMSIS/Include/cmsis_gcc.h ****   \brief   Rotate Right in unsigned value (32 bit)
 341:STM32Cube_FW_N6/Drivers/CMSIS/Include/cmsis_gcc.h ****   \details Rotate Right (immediate) provides the value of the contents of a register rotated by a v
 342:STM32Cube_FW_N6/Drivers/CMSIS/Include/cmsis_gcc.h ****   \param [in]    op1  Value to rotate
 343:STM32Cube_FW_N6/Drivers/CMSIS/Include/cmsis_gcc.h ****   \param [in]    op2  Number of Bits to rotate
 344:STM32Cube_FW_N6/Drivers/CMSIS/Include/cmsis_gcc.h ****   \return               Rotated value
 345:STM32Cube_FW_N6/Drivers/CMSIS/Include/cmsis_gcc.h ****  */
 346:STM32Cube_FW_N6/Drivers/CMSIS/Include/cmsis_gcc.h **** __STATIC_FORCEINLINE uint32_t __ROR(uint32_t op1, uint32_t op2)
 347:STM32Cube_FW_N6/Drivers/CMSIS/Include/cmsis_gcc.h **** {
 348:STM32Cube_FW_N6/Drivers/CMSIS/Include/cmsis_gcc.h ****   op2 %= 32U;
 349:STM32Cube_FW_N6/Drivers/CMSIS/Include/cmsis_gcc.h ****   if (op2 == 0U)
 350:STM32Cube_FW_N6/Drivers/CMSIS/Include/cmsis_gcc.h ****   {
 351:STM32Cube_FW_N6/Drivers/CMSIS/Include/cmsis_gcc.h ****     return op1;
 352:STM32Cube_FW_N6/Drivers/CMSIS/Include/cmsis_gcc.h ****   }
 353:STM32Cube_FW_N6/Drivers/CMSIS/Include/cmsis_gcc.h ****   return (op1 >> op2) | (op1 << (32U - op2));
 354:STM32Cube_FW_N6/Drivers/CMSIS/Include/cmsis_gcc.h **** }
 355:STM32Cube_FW_N6/Drivers/CMSIS/Include/cmsis_gcc.h **** 
 356:STM32Cube_FW_N6/Drivers/CMSIS/Include/cmsis_gcc.h **** 
 357:STM32Cube_FW_N6/Drivers/CMSIS/Include/cmsis_gcc.h **** /**
 358:STM32Cube_FW_N6/Drivers/CMSIS/Include/cmsis_gcc.h ****   \brief   Breakpoint
 359:STM32Cube_FW_N6/Drivers/CMSIS/Include/cmsis_gcc.h ****   \details Causes the processor to enter Debug state.
 360:STM32Cube_FW_N6/Drivers/CMSIS/Include/cmsis_gcc.h ****            Debug tools can use this to investigate system state when the instruction at a particula
 361:STM32Cube_FW_N6/Drivers/CMSIS/Include/cmsis_gcc.h ****   \param [in]    value  is ignored by the processor.
 362:STM32Cube_FW_N6/Drivers/CMSIS/Include/cmsis_gcc.h ****                  If required, a debugger can use it to store additional information about the break
 363:STM32Cube_FW_N6/Drivers/CMSIS/Include/cmsis_gcc.h ****  */
 364:STM32Cube_FW_N6/Drivers/CMSIS/Include/cmsis_gcc.h **** #define __BKPT(value)                       __ASM volatile ("bkpt "#value)
 365:STM32Cube_FW_N6/Drivers/CMSIS/Include/cmsis_gcc.h **** 
 366:STM32Cube_FW_N6/Drivers/CMSIS/Include/cmsis_gcc.h **** 
 367:STM32Cube_FW_N6/Drivers/CMSIS/Include/cmsis_gcc.h **** /**
 368:STM32Cube_FW_N6/Drivers/CMSIS/Include/cmsis_gcc.h ****   \brief   Reverse bit order of value
 369:STM32Cube_FW_N6/Drivers/CMSIS/Include/cmsis_gcc.h ****   \details Reverses the bit order of the given value.
 370:STM32Cube_FW_N6/Drivers/CMSIS/Include/cmsis_gcc.h ****   \param [in]    value  Value to reverse
 371:STM32Cube_FW_N6/Drivers/CMSIS/Include/cmsis_gcc.h ****   \return               Reversed value
 372:STM32Cube_FW_N6/Drivers/CMSIS/Include/cmsis_gcc.h ****  */
 373:STM32Cube_FW_N6/Drivers/CMSIS/Include/cmsis_gcc.h **** __STATIC_FORCEINLINE uint32_t __RBIT(uint32_t value)
 374:STM32Cube_FW_N6/Drivers/CMSIS/Include/cmsis_gcc.h **** {
 375:STM32Cube_FW_N6/Drivers/CMSIS/Include/cmsis_gcc.h ****   uint32_t result;
 376:STM32Cube_FW_N6/Drivers/CMSIS/Include/cmsis_gcc.h **** 
 377:STM32Cube_FW_N6/Drivers/CMSIS/Include/cmsis_gcc.h **** #if ((defined (__ARM_ARCH_7M__      ) && (__ARM_ARCH_7M__      == 1)) || \
 378:STM32Cube_FW_N6/Drivers/CMSIS/Include/cmsis_gcc.h ****      (defined (__ARM_ARCH_7EM__     ) && (__ARM_ARCH_7EM__     == 1)) || \
 379:STM32Cube_FW_N6/Drivers/CMSIS/Include/cmsis_gcc.h ****      (defined (__ARM_ARCH_8M_MAIN__ ) && (__ARM_ARCH_8M_MAIN__ == 1))    )
 380:STM32Cube_FW_N6/Drivers/CMSIS/Include/cmsis_gcc.h ****    __ASM ("rbit %0, %1" : "=r" (result) : "r" (value) );
 183              		.loc 2 380 4 is_stmt 1
 184 0044 3B69     		ldr	r3, [r7, #16]
ARM GAS  /tmp/ccRTEIeG.s 			page 15


 185              		.syntax unified
 186              	@ 380 "STM32Cube_FW_N6/Drivers/CMSIS/Include/cmsis_gcc.h" 1
 187 0046 93FAA3F3 		rbit r3, r3
 188              	@ 0 "" 2
 189              		.thumb
 190              		.syntax unified
 191 004a FB60     		str	r3, [r7, #12]
 381:STM32Cube_FW_N6/Drivers/CMSIS/Include/cmsis_gcc.h **** #else
 382:STM32Cube_FW_N6/Drivers/CMSIS/Include/cmsis_gcc.h ****   uint32_t s = (4U /*sizeof(v)*/ * 8U) - 1U; /* extra shift needed at end */
 383:STM32Cube_FW_N6/Drivers/CMSIS/Include/cmsis_gcc.h **** 
 384:STM32Cube_FW_N6/Drivers/CMSIS/Include/cmsis_gcc.h ****   result = value;                      /* r will be reversed bits of v; first get LSB of v */
 385:STM32Cube_FW_N6/Drivers/CMSIS/Include/cmsis_gcc.h ****   for (value >>= 1U; value != 0U; value >>= 1U)
 386:STM32Cube_FW_N6/Drivers/CMSIS/Include/cmsis_gcc.h ****   {
 387:STM32Cube_FW_N6/Drivers/CMSIS/Include/cmsis_gcc.h ****     result <<= 1U;
 388:STM32Cube_FW_N6/Drivers/CMSIS/Include/cmsis_gcc.h ****     result |= value & 1U;
 389:STM32Cube_FW_N6/Drivers/CMSIS/Include/cmsis_gcc.h ****     s--;
 390:STM32Cube_FW_N6/Drivers/CMSIS/Include/cmsis_gcc.h ****   }
 391:STM32Cube_FW_N6/Drivers/CMSIS/Include/cmsis_gcc.h ****   result <<= s;                        /* shift when v's highest bits are zero */
 392:STM32Cube_FW_N6/Drivers/CMSIS/Include/cmsis_gcc.h **** #endif
 393:STM32Cube_FW_N6/Drivers/CMSIS/Include/cmsis_gcc.h ****   return result;
 192              		.loc 2 393 10
 193 004c FB68     		ldr	r3, [r7, #12]
 194 004e 7B61     		str	r3, [r7, #20]
 195              	.LBE19:
 196              	.LBE18:
 197              	.LBB20:
 198              	.LBB21:
 394:STM32Cube_FW_N6/Drivers/CMSIS/Include/cmsis_gcc.h **** }
 395:STM32Cube_FW_N6/Drivers/CMSIS/Include/cmsis_gcc.h **** 
 396:STM32Cube_FW_N6/Drivers/CMSIS/Include/cmsis_gcc.h **** 
 397:STM32Cube_FW_N6/Drivers/CMSIS/Include/cmsis_gcc.h **** /**
 398:STM32Cube_FW_N6/Drivers/CMSIS/Include/cmsis_gcc.h ****   \brief   Count leading zeros
 399:STM32Cube_FW_N6/Drivers/CMSIS/Include/cmsis_gcc.h ****   \details Counts the number of leading zeros of a data value.
 400:STM32Cube_FW_N6/Drivers/CMSIS/Include/cmsis_gcc.h ****   \param [in]  value  Value to count the leading zeros
 401:STM32Cube_FW_N6/Drivers/CMSIS/Include/cmsis_gcc.h ****   \return             number of leading zeros in value
 402:STM32Cube_FW_N6/Drivers/CMSIS/Include/cmsis_gcc.h ****  */
 403:STM32Cube_FW_N6/Drivers/CMSIS/Include/cmsis_gcc.h **** __STATIC_FORCEINLINE uint8_t __CLZ(uint32_t value)
 404:STM32Cube_FW_N6/Drivers/CMSIS/Include/cmsis_gcc.h **** {
 405:STM32Cube_FW_N6/Drivers/CMSIS/Include/cmsis_gcc.h ****   /* Even though __builtin_clz produces a CLZ instruction on ARM, formally
 406:STM32Cube_FW_N6/Drivers/CMSIS/Include/cmsis_gcc.h ****      __builtin_clz(0) is undefined behaviour, so handle this case specially.
 407:STM32Cube_FW_N6/Drivers/CMSIS/Include/cmsis_gcc.h ****      This guarantees ARM-compatible results if happening to compile on a non-ARM
 408:STM32Cube_FW_N6/Drivers/CMSIS/Include/cmsis_gcc.h ****      target, and ensures the compiler doesn't decide to activate any
 409:STM32Cube_FW_N6/Drivers/CMSIS/Include/cmsis_gcc.h ****      optimisations using the logic "value was passed to __builtin_clz, so it
 410:STM32Cube_FW_N6/Drivers/CMSIS/Include/cmsis_gcc.h ****      is non-zero".
 411:STM32Cube_FW_N6/Drivers/CMSIS/Include/cmsis_gcc.h ****      ARM GCC 7.3 and possibly earlier will optimise this test away, leaving a
 412:STM32Cube_FW_N6/Drivers/CMSIS/Include/cmsis_gcc.h ****      single CLZ instruction.
 413:STM32Cube_FW_N6/Drivers/CMSIS/Include/cmsis_gcc.h ****    */
 414:STM32Cube_FW_N6/Drivers/CMSIS/Include/cmsis_gcc.h ****   if (value == 0U)
 199              		.loc 2 414 6
 200 0050 7B69     		ldr	r3, [r7, #20]
 201 0052 002B     		cmp	r3, #0
 202 0054 01D1     		bne	.L11
 415:STM32Cube_FW_N6/Drivers/CMSIS/Include/cmsis_gcc.h ****   {
 416:STM32Cube_FW_N6/Drivers/CMSIS/Include/cmsis_gcc.h ****     return 32U;
 203              		.loc 2 416 12
 204 0056 2023     		movs	r3, #32
 205 0058 03E0     		b	.L12
ARM GAS  /tmp/ccRTEIeG.s 			page 16


 206              	.L11:
 417:STM32Cube_FW_N6/Drivers/CMSIS/Include/cmsis_gcc.h ****   }
 418:STM32Cube_FW_N6/Drivers/CMSIS/Include/cmsis_gcc.h ****   return __builtin_clz(value);
 207              		.loc 2 418 10
 208 005a 7B69     		ldr	r3, [r7, #20]
 209 005c B3FA83F3 		clz	r3, r3
 210              		.loc 2 418 10 is_stmt 0 discriminator 1
 211 0060 DBB2     		uxtb	r3, r3
 212              	.L12:
 213              	.LBE21:
 214              	.LBE20:
 232:STM32Cube_FW_N6/Drivers/STM32N6xx_HAL_Driver/Src/stm32n6xx_hal_rif.c **** 
 233:STM32Cube_FW_N6/Drivers/STM32N6xx_HAL_Driver/Src/stm32n6xx_hal_rif.c ****   /* Set Debug Access Port CID bits */
 234:STM32Cube_FW_N6/Drivers/STM32N6xx_HAL_Driver/Src/stm32n6xx_hal_rif.c ****   dap_cid = POSITION_VAL(CID);
 215              		.loc 1 234 11 is_stmt 1 discriminator 2
 216 0062 FB61     		str	r3, [r7, #28]
 235:STM32Cube_FW_N6/Drivers/STM32N6xx_HAL_Driver/Src/stm32n6xx_hal_rif.c ****   rimc_cr_reg = RIFSC->RIMC_CR;
 217              		.loc 1 235 22
 218 0064 0B4B     		ldr	r3, .L13+4
 219              		.loc 1 235 15
 220 0066 D3F8003C 		ldr	r3, [r3, #3072]
 221 006a BB61     		str	r3, [r7, #24]
 236:STM32Cube_FW_N6/Drivers/STM32N6xx_HAL_Driver/Src/stm32n6xx_hal_rif.c ****   rimc_cr_reg &= (~RIFSC_RIMC_CR_DAPCID);
 222              		.loc 1 236 15
 223 006c BB69     		ldr	r3, [r7, #24]
 224 006e 23F4E063 		bic	r3, r3, #1792
 225 0072 BB61     		str	r3, [r7, #24]
 237:STM32Cube_FW_N6/Drivers/STM32N6xx_HAL_Driver/Src/stm32n6xx_hal_rif.c ****   rimc_cr_reg |= (dap_cid << RIFSC_RIMC_CR_DAPCID_Pos);
 226              		.loc 1 237 27
 227 0074 FB69     		ldr	r3, [r7, #28]
 228 0076 1B02     		lsls	r3, r3, #8
 229              		.loc 1 237 15
 230 0078 BA69     		ldr	r2, [r7, #24]
 231 007a 1343     		orrs	r3, r3, r2
 232 007c BB61     		str	r3, [r7, #24]
 238:STM32Cube_FW_N6/Drivers/STM32N6xx_HAL_Driver/Src/stm32n6xx_hal_rif.c ****   RIFSC->RIMC_CR = rimc_cr_reg;
 233              		.loc 1 238 8
 234 007e 054A     		ldr	r2, .L13+4
 235              		.loc 1 238 18
 236 0080 BB69     		ldr	r3, [r7, #24]
 237 0082 C2F8003C 		str	r3, [r2, #3072]
 239:STM32Cube_FW_N6/Drivers/STM32N6xx_HAL_Driver/Src/stm32n6xx_hal_rif.c **** }
 238              		.loc 1 239 1
 239 0086 00BF     		nop
 240 0088 2037     		adds	r7, r7, #32
 241              		.cfi_def_cfa_offset 8
 242 008a BD46     		mov	sp, r7
 243              		.cfi_def_cfa_register 13
 244              		@ sp needed
 245 008c 80BD     		pop	{r7, pc}
 246              	.L14:
 247 008e 00BF     		.align	2
 248              	.L13:
 249 0090 00000000 		.word	.LC0
 250 0094 00400254 		.word	1409433600
 251              		.cfi_endproc
 252              	.LFE837:
ARM GAS  /tmp/ccRTEIeG.s 			page 17


 254              		.section	.text.HAL_RIF_RIMC_GetDebugAccessPortCID,"ax",%progbits
 255              		.align	1
 256              		.global	HAL_RIF_RIMC_GetDebugAccessPortCID
 257              		.syntax unified
 258              		.thumb
 259              		.thumb_func
 261              	HAL_RIF_RIMC_GetDebugAccessPortCID:
 262              	.LFB838:
 240:STM32Cube_FW_N6/Drivers/STM32N6xx_HAL_Driver/Src/stm32n6xx_hal_rif.c **** #endif /* defined(CPU_AS_TRUSTED_DOMAIN) && defined(CPU_IN_SECURE_STATE) */
 241:STM32Cube_FW_N6/Drivers/STM32N6xx_HAL_Driver/Src/stm32n6xx_hal_rif.c **** 
 242:STM32Cube_FW_N6/Drivers/STM32N6xx_HAL_Driver/Src/stm32n6xx_hal_rif.c **** /**
 243:STM32Cube_FW_N6/Drivers/STM32N6xx_HAL_Driver/Src/stm32n6xx_hal_rif.c ****   * @brief  Get the Debugger Access Port ID
 244:STM32Cube_FW_N6/Drivers/STM32N6xx_HAL_Driver/Src/stm32n6xx_hal_rif.c ****   * @retval Debugger Access Port ID
 245:STM32Cube_FW_N6/Drivers/STM32N6xx_HAL_Driver/Src/stm32n6xx_hal_rif.c ****   */
 246:STM32Cube_FW_N6/Drivers/STM32N6xx_HAL_Driver/Src/stm32n6xx_hal_rif.c **** uint32_t HAL_RIF_RIMC_GetDebugAccessPortCID(void)
 247:STM32Cube_FW_N6/Drivers/STM32N6xx_HAL_Driver/Src/stm32n6xx_hal_rif.c **** {
 263              		.loc 1 247 1
 264              		.cfi_startproc
 265              		@ args = 0, pretend = 0, frame = 8
 266              		@ frame_needed = 1, uses_anonymous_args = 0
 267              		@ link register save eliminated.
 268 0000 80B4     		push	{r7}
 269              		.cfi_def_cfa_offset 4
 270              		.cfi_offset 7, -4
 271 0002 83B0     		sub	sp, sp, #12
 272              		.cfi_def_cfa_offset 16
 273 0004 00AF     		add	r7, sp, #0
 274              		.cfi_def_cfa_register 7
 248:STM32Cube_FW_N6/Drivers/STM32N6xx_HAL_Driver/Src/stm32n6xx_hal_rif.c ****   uint32_t dap_cid;
 249:STM32Cube_FW_N6/Drivers/STM32N6xx_HAL_Driver/Src/stm32n6xx_hal_rif.c **** 
 250:STM32Cube_FW_N6/Drivers/STM32N6xx_HAL_Driver/Src/stm32n6xx_hal_rif.c ****   /* Read Debug Access Port CID bits */
 251:STM32Cube_FW_N6/Drivers/STM32N6xx_HAL_Driver/Src/stm32n6xx_hal_rif.c ****   dap_cid = (RIFSC->RIMC_CR & RIFSC_RIMC_CR_DAPCID) >> RIFSC_RIMC_CR_DAPCID_Pos;
 275              		.loc 1 251 19
 276 0006 094B     		ldr	r3, .L17
 277 0008 D3F8003C 		ldr	r3, [r3, #3072]
 278              		.loc 1 251 53
 279 000c 1B0A     		lsrs	r3, r3, #8
 280              		.loc 1 251 11
 281 000e 03F00703 		and	r3, r3, #7
 282 0012 7B60     		str	r3, [r7, #4]
 252:STM32Cube_FW_N6/Drivers/STM32N6xx_HAL_Driver/Src/stm32n6xx_hal_rif.c ****   dap_cid = (1UL << dap_cid);
 283              		.loc 1 252 11
 284 0014 0122     		movs	r2, #1
 285 0016 7B68     		ldr	r3, [r7, #4]
 286 0018 02FA03F3 		lsl	r3, r2, r3
 287 001c 7B60     		str	r3, [r7, #4]
 253:STM32Cube_FW_N6/Drivers/STM32N6xx_HAL_Driver/Src/stm32n6xx_hal_rif.c ****   return dap_cid;
 288              		.loc 1 253 10
 289 001e 7B68     		ldr	r3, [r7, #4]
 254:STM32Cube_FW_N6/Drivers/STM32N6xx_HAL_Driver/Src/stm32n6xx_hal_rif.c **** }
 290              		.loc 1 254 1
 291 0020 1846     		mov	r0, r3
 292 0022 0C37     		adds	r7, r7, #12
 293              		.cfi_def_cfa_offset 4
 294 0024 BD46     		mov	sp, r7
 295              		.cfi_def_cfa_register 13
 296              		@ sp needed
ARM GAS  /tmp/ccRTEIeG.s 			page 18


 297 0026 5DF8047B 		ldr	r7, [sp], #4
 298              		.cfi_restore 7
 299              		.cfi_def_cfa_offset 0
 300 002a 7047     		bx	lr
 301              	.L18:
 302              		.align	2
 303              	.L17:
 304 002c 00400254 		.word	1409433600
 305              		.cfi_endproc
 306              	.LFE838:
 308              		.section	.text.HAL_RIF_RIMC_ConfigMasterAttributes,"ax",%progbits
 309              		.align	1
 310              		.global	HAL_RIF_RIMC_ConfigMasterAttributes
 311              		.syntax unified
 312              		.thumb
 313              		.thumb_func
 315              	HAL_RIF_RIMC_ConfigMasterAttributes:
 316              	.LFB839:
 255:STM32Cube_FW_N6/Drivers/STM32N6xx_HAL_Driver/Src/stm32n6xx_hal_rif.c **** 
 256:STM32Cube_FW_N6/Drivers/STM32N6xx_HAL_Driver/Src/stm32n6xx_hal_rif.c **** #if defined(CPU_AS_TRUSTED_DOMAIN) && defined(CPU_IN_SECURE_STATE)
 257:STM32Cube_FW_N6/Drivers/STM32N6xx_HAL_Driver/Src/stm32n6xx_hal_rif.c **** /**
 258:STM32Cube_FW_N6/Drivers/STM32N6xx_HAL_Driver/Src/stm32n6xx_hal_rif.c ****   * @brief  Configure CID, Secure and Privilege attributes for the designated master.
 259:STM32Cube_FW_N6/Drivers/STM32N6xx_HAL_Driver/Src/stm32n6xx_hal_rif.c ****   * @note   RIF_CID_7 is not an authorized value for the MasterCID field.
 260:STM32Cube_FW_N6/Drivers/STM32N6xx_HAL_Driver/Src/stm32n6xx_hal_rif.c ****   * @note   This API is protected by the Trusted Domain compilation directive.
 261:STM32Cube_FW_N6/Drivers/STM32N6xx_HAL_Driver/Src/stm32n6xx_hal_rif.c ****   * @note   This API is protected by the TrustZone Enabled compilation directive.
 262:STM32Cube_FW_N6/Drivers/STM32N6xx_HAL_Driver/Src/stm32n6xx_hal_rif.c ****   * @param  MasterId specifies the index of the bus master.
 263:STM32Cube_FW_N6/Drivers/STM32N6xx_HAL_Driver/Src/stm32n6xx_hal_rif.c ****   *         This parameter can be one of @ref RIF_MASTER_INDEX
 264:STM32Cube_FW_N6/Drivers/STM32N6xx_HAL_Driver/Src/stm32n6xx_hal_rif.c ****   * @param  pConfig Pointer on Master Isolation configuration structure
 265:STM32Cube_FW_N6/Drivers/STM32N6xx_HAL_Driver/Src/stm32n6xx_hal_rif.c ****   * @retval None
 266:STM32Cube_FW_N6/Drivers/STM32N6xx_HAL_Driver/Src/stm32n6xx_hal_rif.c ****   */
 267:STM32Cube_FW_N6/Drivers/STM32N6xx_HAL_Driver/Src/stm32n6xx_hal_rif.c **** void HAL_RIF_RIMC_ConfigMasterAttributes(uint32_t MasterId, const RIMC_MasterConfig_t *pConfig)
 268:STM32Cube_FW_N6/Drivers/STM32N6xx_HAL_Driver/Src/stm32n6xx_hal_rif.c **** {
 317              		.loc 1 268 1
 318              		.cfi_startproc
 319              		@ args = 0, pretend = 0, frame = 32
 320              		@ frame_needed = 1, uses_anonymous_args = 0
 321 0000 80B5     		push	{r7, lr}
 322              		.cfi_def_cfa_offset 8
 323              		.cfi_offset 7, -8
 324              		.cfi_offset 14, -4
 325 0002 88B0     		sub	sp, sp, #32
 326              		.cfi_def_cfa_offset 40
 327 0004 00AF     		add	r7, sp, #0
 328              		.cfi_def_cfa_register 7
 329 0006 7860     		str	r0, [r7, #4]
 330 0008 3960     		str	r1, [r7]
 269:STM32Cube_FW_N6/Drivers/STM32N6xx_HAL_Driver/Src/stm32n6xx_hal_rif.c ****   uint32_t master_cid;
 270:STM32Cube_FW_N6/Drivers/STM32N6xx_HAL_Driver/Src/stm32n6xx_hal_rif.c ****   uint32_t rimc_attr_val;
 271:STM32Cube_FW_N6/Drivers/STM32N6xx_HAL_Driver/Src/stm32n6xx_hal_rif.c **** 
 272:STM32Cube_FW_N6/Drivers/STM32N6xx_HAL_Driver/Src/stm32n6xx_hal_rif.c ****   /* Check the parameter */
 273:STM32Cube_FW_N6/Drivers/STM32N6xx_HAL_Driver/Src/stm32n6xx_hal_rif.c ****   assert_param(pConfig != (void *)NULL);
 331              		.loc 1 273 3
 332 000a 3B68     		ldr	r3, [r7]
 333 000c 002B     		cmp	r3, #0
 334 000e 04D1     		bne	.L20
 335              		.loc 1 273 3 is_stmt 0 discriminator 1
 336 0010 40F21111 		movw	r1, #273
ARM GAS  /tmp/ccRTEIeG.s 			page 19


 337 0014 4D48     		ldr	r0, .L29
 338 0016 FFF7FEFF 		bl	assert_failed
 339              	.L20:
 274:STM32Cube_FW_N6/Drivers/STM32N6xx_HAL_Driver/Src/stm32n6xx_hal_rif.c ****   assert_param(IS_RIF_MASTER_INDEX(MasterId));
 340              		.loc 1 274 3 is_stmt 1
 341 001a 7B68     		ldr	r3, [r7, #4]
 342 001c 002B     		cmp	r3, #0
 343 001e 28D0     		beq	.L21
 344              		.loc 1 274 3 is_stmt 0 discriminator 1
 345 0020 7B68     		ldr	r3, [r7, #4]
 346 0022 012B     		cmp	r3, #1
 347 0024 25D0     		beq	.L21
 348              		.loc 1 274 3 discriminator 2
 349 0026 7B68     		ldr	r3, [r7, #4]
 350 0028 022B     		cmp	r3, #2
 351 002a 22D0     		beq	.L21
 352              		.loc 1 274 3 discriminator 3
 353 002c 7B68     		ldr	r3, [r7, #4]
 354 002e 032B     		cmp	r3, #3
 355 0030 1FD0     		beq	.L21
 356              		.loc 1 274 3 discriminator 4
 357 0032 7B68     		ldr	r3, [r7, #4]
 358 0034 042B     		cmp	r3, #4
 359 0036 1CD0     		beq	.L21
 360              		.loc 1 274 3 discriminator 5
 361 0038 7B68     		ldr	r3, [r7, #4]
 362 003a 052B     		cmp	r3, #5
 363 003c 19D0     		beq	.L21
 364              		.loc 1 274 3 discriminator 6
 365 003e 7B68     		ldr	r3, [r7, #4]
 366 0040 062B     		cmp	r3, #6
 367 0042 16D0     		beq	.L21
 368              		.loc 1 274 3 discriminator 7
 369 0044 7B68     		ldr	r3, [r7, #4]
 370 0046 072B     		cmp	r3, #7
 371 0048 13D0     		beq	.L21
 372              		.loc 1 274 3 discriminator 8
 373 004a 7B68     		ldr	r3, [r7, #4]
 374 004c 082B     		cmp	r3, #8
 375 004e 10D0     		beq	.L21
 376              		.loc 1 274 3 discriminator 9
 377 0050 7B68     		ldr	r3, [r7, #4]
 378 0052 092B     		cmp	r3, #9
 379 0054 0DD0     		beq	.L21
 380              		.loc 1 274 3 discriminator 10
 381 0056 7B68     		ldr	r3, [r7, #4]
 382 0058 0A2B     		cmp	r3, #10
 383 005a 0AD0     		beq	.L21
 384              		.loc 1 274 3 discriminator 11
 385 005c 7B68     		ldr	r3, [r7, #4]
 386 005e 0B2B     		cmp	r3, #11
 387 0060 07D0     		beq	.L21
 388              		.loc 1 274 3 discriminator 12
 389 0062 7B68     		ldr	r3, [r7, #4]
 390 0064 0C2B     		cmp	r3, #12
 391 0066 04D0     		beq	.L21
 392              		.loc 1 274 3 discriminator 13
ARM GAS  /tmp/ccRTEIeG.s 			page 20


 393 0068 4FF48971 		mov	r1, #274
 394 006c 3748     		ldr	r0, .L29
 395 006e FFF7FEFF 		bl	assert_failed
 396              	.L21:
 275:STM32Cube_FW_N6/Drivers/STM32N6xx_HAL_Driver/Src/stm32n6xx_hal_rif.c ****   assert_param(IS_RIF_SINGLE_CID(pConfig->MasterCID));
 397              		.loc 1 275 3 is_stmt 1
 398 0072 3B68     		ldr	r3, [r7]
 399 0074 1B68     		ldr	r3, [r3]
 400 0076 012B     		cmp	r3, #1
 401 0078 20D0     		beq	.L22
 402              		.loc 1 275 3 is_stmt 0 discriminator 1
 403 007a 3B68     		ldr	r3, [r7]
 404 007c 1B68     		ldr	r3, [r3]
 405 007e 022B     		cmp	r3, #2
 406 0080 1CD0     		beq	.L22
 407              		.loc 1 275 3 discriminator 2
 408 0082 3B68     		ldr	r3, [r7]
 409 0084 1B68     		ldr	r3, [r3]
 410 0086 042B     		cmp	r3, #4
 411 0088 18D0     		beq	.L22
 412              		.loc 1 275 3 discriminator 3
 413 008a 3B68     		ldr	r3, [r7]
 414 008c 1B68     		ldr	r3, [r3]
 415 008e 082B     		cmp	r3, #8
 416 0090 14D0     		beq	.L22
 417              		.loc 1 275 3 discriminator 4
 418 0092 3B68     		ldr	r3, [r7]
 419 0094 1B68     		ldr	r3, [r3]
 420 0096 102B     		cmp	r3, #16
 421 0098 10D0     		beq	.L22
 422              		.loc 1 275 3 discriminator 5
 423 009a 3B68     		ldr	r3, [r7]
 424 009c 1B68     		ldr	r3, [r3]
 425 009e 202B     		cmp	r3, #32
 426 00a0 0CD0     		beq	.L22
 427              		.loc 1 275 3 discriminator 6
 428 00a2 3B68     		ldr	r3, [r7]
 429 00a4 1B68     		ldr	r3, [r3]
 430 00a6 402B     		cmp	r3, #64
 431 00a8 08D0     		beq	.L22
 432              		.loc 1 275 3 discriminator 7
 433 00aa 3B68     		ldr	r3, [r7]
 434 00ac 1B68     		ldr	r3, [r3]
 435 00ae 802B     		cmp	r3, #128
 436 00b0 04D0     		beq	.L22
 437              		.loc 1 275 3 discriminator 8
 438 00b2 40F21311 		movw	r1, #275
 439 00b6 2548     		ldr	r0, .L29
 440 00b8 FFF7FEFF 		bl	assert_failed
 441              	.L22:
 276:STM32Cube_FW_N6/Drivers/STM32N6xx_HAL_Driver/Src/stm32n6xx_hal_rif.c ****   assert_param(IS_RIF_MASTER_CID(pConfig->MasterCID));
 442              		.loc 1 276 3 is_stmt 1
 443 00bc 3B68     		ldr	r3, [r7]
 444 00be 1B68     		ldr	r3, [r3]
 445 00c0 802B     		cmp	r3, #128
 446 00c2 03D0     		beq	.L23
 447              		.loc 1 276 3 is_stmt 0 discriminator 2
ARM GAS  /tmp/ccRTEIeG.s 			page 21


 448 00c4 3B68     		ldr	r3, [r7]
 449 00c6 1B68     		ldr	r3, [r3]
 450 00c8 FF2B     		cmp	r3, #255
 451 00ca 04D9     		bls	.L24
 452              	.L23:
 453              		.loc 1 276 3 discriminator 3
 454 00cc 4FF48A71 		mov	r1, #276
 455 00d0 1E48     		ldr	r0, .L29
 456 00d2 FFF7FEFF 		bl	assert_failed
 457              	.L24:
 277:STM32Cube_FW_N6/Drivers/STM32N6xx_HAL_Driver/Src/stm32n6xx_hal_rif.c ****   assert_param(IS_RIF_SEC_PRIV_ATTRIBUTE(pConfig->SecPriv));
 458              		.loc 1 277 3 is_stmt 1
 459 00d6 3B68     		ldr	r3, [r7]
 460 00d8 5B68     		ldr	r3, [r3, #4]
 461 00da 032B     		cmp	r3, #3
 462 00dc 04D9     		bls	.L25
 463              		.loc 1 277 3 is_stmt 0 discriminator 1
 464 00de 40F21511 		movw	r1, #277
 465 00e2 1A48     		ldr	r0, .L29
 466 00e4 FFF7FEFF 		bl	assert_failed
 467              	.L25:
 278:STM32Cube_FW_N6/Drivers/STM32N6xx_HAL_Driver/Src/stm32n6xx_hal_rif.c **** 
 279:STM32Cube_FW_N6/Drivers/STM32N6xx_HAL_Driver/Src/stm32n6xx_hal_rif.c ****   master_cid = POSITION_VAL(pConfig->MasterCID);
 468              		.loc 1 279 16 is_stmt 1
 469 00e8 3B68     		ldr	r3, [r7]
 470 00ea 1B68     		ldr	r3, [r3]
 471 00ec 3B61     		str	r3, [r7, #16]
 472              	.LBB22:
 473              	.LBB23:
 380:STM32Cube_FW_N6/Drivers/CMSIS/Include/cmsis_gcc.h **** #else
 474              		.loc 2 380 4
 475 00ee 3B69     		ldr	r3, [r7, #16]
 476              		.syntax unified
 477              	@ 380 "STM32Cube_FW_N6/Drivers/CMSIS/Include/cmsis_gcc.h" 1
 478 00f0 93FAA3F3 		rbit r3, r3
 479              	@ 0 "" 2
 480              		.thumb
 481              		.syntax unified
 482 00f4 FB60     		str	r3, [r7, #12]
 393:STM32Cube_FW_N6/Drivers/CMSIS/Include/cmsis_gcc.h **** }
 483              		.loc 2 393 10
 484 00f6 FB68     		ldr	r3, [r7, #12]
 485 00f8 7B61     		str	r3, [r7, #20]
 486              	.LBE23:
 487              	.LBE22:
 488              	.LBB24:
 489              	.LBB25:
 414:STM32Cube_FW_N6/Drivers/CMSIS/Include/cmsis_gcc.h ****   {
 490              		.loc 2 414 6
 491 00fa 7B69     		ldr	r3, [r7, #20]
 492 00fc 002B     		cmp	r3, #0
 493 00fe 01D1     		bne	.L27
 416:STM32Cube_FW_N6/Drivers/CMSIS/Include/cmsis_gcc.h ****   }
 494              		.loc 2 416 12
 495 0100 2023     		movs	r3, #32
 496 0102 03E0     		b	.L28
 497              	.L27:
ARM GAS  /tmp/ccRTEIeG.s 			page 22


 498              		.loc 2 418 10
 499 0104 7B69     		ldr	r3, [r7, #20]
 500 0106 B3FA83F3 		clz	r3, r3
 501              		.loc 2 418 10 is_stmt 0 discriminator 1
 502 010a DBB2     		uxtb	r3, r3
 503              	.L28:
 504              	.LBE25:
 505              	.LBE24:
 506              		.loc 1 279 14 is_stmt 1 discriminator 2
 507 010c FB61     		str	r3, [r7, #28]
 280:STM32Cube_FW_N6/Drivers/STM32N6xx_HAL_Driver/Src/stm32n6xx_hal_rif.c ****   rimc_attr_val = RIFSC->RIMC_ATTRx[MasterId];
 508              		.loc 1 280 24
 509 010e 104A     		ldr	r2, .L29+4
 510              		.loc 1 280 17
 511 0110 7B68     		ldr	r3, [r7, #4]
 512 0112 03F54173 		add	r3, r3, #772
 513 0116 52F82330 		ldr	r3, [r2, r3, lsl #2]
 514 011a BB61     		str	r3, [r7, #24]
 281:STM32Cube_FW_N6/Drivers/STM32N6xx_HAL_Driver/Src/stm32n6xx_hal_rif.c ****   rimc_attr_val &= (~(RIFSC_RIMC_ATTRx_MCID | RIFSC_RIMC_ATTRx_MPRIV | RIFSC_RIMC_ATTRx_MSEC));
 515              		.loc 1 281 17
 516 011c BB69     		ldr	r3, [r7, #24]
 517 011e 23F45C73 		bic	r3, r3, #880
 518 0122 BB61     		str	r3, [r7, #24]
 282:STM32Cube_FW_N6/Drivers/STM32N6xx_HAL_Driver/Src/stm32n6xx_hal_rif.c ****   rimc_attr_val |= ((master_cid << RIFSC_RIMC_ATTRx_MCID_Pos) | (pConfig->SecPriv << RIFSC_RIMC_ATT
 519              		.loc 1 282 33
 520 0124 FB69     		ldr	r3, [r7, #28]
 521 0126 1A01     		lsls	r2, r3, #4
 522              		.loc 1 282 73
 523 0128 3B68     		ldr	r3, [r7]
 524 012a 5B68     		ldr	r3, [r3, #4]
 525              		.loc 1 282 83
 526 012c 1B02     		lsls	r3, r3, #8
 527              		.loc 1 282 63
 528 012e 1343     		orrs	r3, r3, r2
 529              		.loc 1 282 17
 530 0130 BA69     		ldr	r2, [r7, #24]
 531 0132 1343     		orrs	r3, r3, r2
 532 0134 BB61     		str	r3, [r7, #24]
 283:STM32Cube_FW_N6/Drivers/STM32N6xx_HAL_Driver/Src/stm32n6xx_hal_rif.c ****   RIFSC->RIMC_ATTRx[MasterId] = rimc_attr_val;
 533              		.loc 1 283 8
 534 0136 0649     		ldr	r1, .L29+4
 535              		.loc 1 283 31
 536 0138 7B68     		ldr	r3, [r7, #4]
 537 013a 03F54173 		add	r3, r3, #772
 538 013e BA69     		ldr	r2, [r7, #24]
 539 0140 41F82320 		str	r2, [r1, r3, lsl #2]
 284:STM32Cube_FW_N6/Drivers/STM32N6xx_HAL_Driver/Src/stm32n6xx_hal_rif.c **** }
 540              		.loc 1 284 1
 541 0144 00BF     		nop
 542 0146 2037     		adds	r7, r7, #32
 543              		.cfi_def_cfa_offset 8
 544 0148 BD46     		mov	sp, r7
 545              		.cfi_def_cfa_register 13
 546              		@ sp needed
 547 014a 80BD     		pop	{r7, pc}
 548              	.L30:
 549              		.align	2
ARM GAS  /tmp/ccRTEIeG.s 			page 23


 550              	.L29:
 551 014c 00000000 		.word	.LC0
 552 0150 00400254 		.word	1409433600
 553              		.cfi_endproc
 554              	.LFE839:
 556              		.section	.text.HAL_RIF_RIMC_GetConfigMasterAttributes,"ax",%progbits
 557              		.align	1
 558              		.global	HAL_RIF_RIMC_GetConfigMasterAttributes
 559              		.syntax unified
 560              		.thumb
 561              		.thumb_func
 563              	HAL_RIF_RIMC_GetConfigMasterAttributes:
 564              	.LFB840:
 285:STM32Cube_FW_N6/Drivers/STM32N6xx_HAL_Driver/Src/stm32n6xx_hal_rif.c **** #endif /* defined(CPU_AS_TRUSTED_DOMAIN) && defined(CPU_IN_SECURE_STATE) */
 286:STM32Cube_FW_N6/Drivers/STM32N6xx_HAL_Driver/Src/stm32n6xx_hal_rif.c **** 
 287:STM32Cube_FW_N6/Drivers/STM32N6xx_HAL_Driver/Src/stm32n6xx_hal_rif.c **** /**
 288:STM32Cube_FW_N6/Drivers/STM32N6xx_HAL_Driver/Src/stm32n6xx_hal_rif.c ****   * @brief  Get the CID, Secure and Privilege attributes for the designated master.
 289:STM32Cube_FW_N6/Drivers/STM32N6xx_HAL_Driver/Src/stm32n6xx_hal_rif.c ****   * @note   This API is protected by the Trusted Domain compilation directive.
 290:STM32Cube_FW_N6/Drivers/STM32N6xx_HAL_Driver/Src/stm32n6xx_hal_rif.c ****   * @param  MasterId specifies the index of the bus master.
 291:STM32Cube_FW_N6/Drivers/STM32N6xx_HAL_Driver/Src/stm32n6xx_hal_rif.c ****   *         This parameter can be one of @ref RIF_MASTER_INDEX
 292:STM32Cube_FW_N6/Drivers/STM32N6xx_HAL_Driver/Src/stm32n6xx_hal_rif.c ****   * @param  pConfig Pointer on Master Isolation configuration structure
 293:STM32Cube_FW_N6/Drivers/STM32N6xx_HAL_Driver/Src/stm32n6xx_hal_rif.c ****   * @retval None
 294:STM32Cube_FW_N6/Drivers/STM32N6xx_HAL_Driver/Src/stm32n6xx_hal_rif.c ****   */
 295:STM32Cube_FW_N6/Drivers/STM32N6xx_HAL_Driver/Src/stm32n6xx_hal_rif.c **** void HAL_RIF_RIMC_GetConfigMasterAttributes(uint32_t MasterId, RIMC_MasterConfig_t *pConfig)
 296:STM32Cube_FW_N6/Drivers/STM32N6xx_HAL_Driver/Src/stm32n6xx_hal_rif.c **** {
 565              		.loc 1 296 1
 566              		.cfi_startproc
 567              		@ args = 0, pretend = 0, frame = 16
 568              		@ frame_needed = 1, uses_anonymous_args = 0
 569 0000 80B5     		push	{r7, lr}
 570              		.cfi_def_cfa_offset 8
 571              		.cfi_offset 7, -8
 572              		.cfi_offset 14, -4
 573 0002 84B0     		sub	sp, sp, #16
 574              		.cfi_def_cfa_offset 24
 575 0004 00AF     		add	r7, sp, #0
 576              		.cfi_def_cfa_register 7
 577 0006 7860     		str	r0, [r7, #4]
 578 0008 3960     		str	r1, [r7]
 297:STM32Cube_FW_N6/Drivers/STM32N6xx_HAL_Driver/Src/stm32n6xx_hal_rif.c ****   uint32_t master_cid;
 298:STM32Cube_FW_N6/Drivers/STM32N6xx_HAL_Driver/Src/stm32n6xx_hal_rif.c ****   uint32_t rimc_attr_val;
 299:STM32Cube_FW_N6/Drivers/STM32N6xx_HAL_Driver/Src/stm32n6xx_hal_rif.c **** 
 300:STM32Cube_FW_N6/Drivers/STM32N6xx_HAL_Driver/Src/stm32n6xx_hal_rif.c ****   /* Check the parameter */
 301:STM32Cube_FW_N6/Drivers/STM32N6xx_HAL_Driver/Src/stm32n6xx_hal_rif.c ****   assert_param(pConfig != (void *)NULL);
 579              		.loc 1 301 3
 580 000a 3B68     		ldr	r3, [r7]
 581 000c 002B     		cmp	r3, #0
 582 000e 04D1     		bne	.L32
 583              		.loc 1 301 3 is_stmt 0 discriminator 1
 584 0010 40F22D11 		movw	r1, #301
 585 0014 2448     		ldr	r0, .L34
 586 0016 FFF7FEFF 		bl	assert_failed
 587              	.L32:
 302:STM32Cube_FW_N6/Drivers/STM32N6xx_HAL_Driver/Src/stm32n6xx_hal_rif.c ****   assert_param(IS_RIF_MASTER_INDEX(MasterId));
 588              		.loc 1 302 3 is_stmt 1
 589 001a 7B68     		ldr	r3, [r7, #4]
 590 001c 002B     		cmp	r3, #0
ARM GAS  /tmp/ccRTEIeG.s 			page 24


 591 001e 28D0     		beq	.L33
 592              		.loc 1 302 3 is_stmt 0 discriminator 1
 593 0020 7B68     		ldr	r3, [r7, #4]
 594 0022 012B     		cmp	r3, #1
 595 0024 25D0     		beq	.L33
 596              		.loc 1 302 3 discriminator 2
 597 0026 7B68     		ldr	r3, [r7, #4]
 598 0028 022B     		cmp	r3, #2
 599 002a 22D0     		beq	.L33
 600              		.loc 1 302 3 discriminator 3
 601 002c 7B68     		ldr	r3, [r7, #4]
 602 002e 032B     		cmp	r3, #3
 603 0030 1FD0     		beq	.L33
 604              		.loc 1 302 3 discriminator 4
 605 0032 7B68     		ldr	r3, [r7, #4]
 606 0034 042B     		cmp	r3, #4
 607 0036 1CD0     		beq	.L33
 608              		.loc 1 302 3 discriminator 5
 609 0038 7B68     		ldr	r3, [r7, #4]
 610 003a 052B     		cmp	r3, #5
 611 003c 19D0     		beq	.L33
 612              		.loc 1 302 3 discriminator 6
 613 003e 7B68     		ldr	r3, [r7, #4]
 614 0040 062B     		cmp	r3, #6
 615 0042 16D0     		beq	.L33
 616              		.loc 1 302 3 discriminator 7
 617 0044 7B68     		ldr	r3, [r7, #4]
 618 0046 072B     		cmp	r3, #7
 619 0048 13D0     		beq	.L33
 620              		.loc 1 302 3 discriminator 8
 621 004a 7B68     		ldr	r3, [r7, #4]
 622 004c 082B     		cmp	r3, #8
 623 004e 10D0     		beq	.L33
 624              		.loc 1 302 3 discriminator 9
 625 0050 7B68     		ldr	r3, [r7, #4]
 626 0052 092B     		cmp	r3, #9
 627 0054 0DD0     		beq	.L33
 628              		.loc 1 302 3 discriminator 10
 629 0056 7B68     		ldr	r3, [r7, #4]
 630 0058 0A2B     		cmp	r3, #10
 631 005a 0AD0     		beq	.L33
 632              		.loc 1 302 3 discriminator 11
 633 005c 7B68     		ldr	r3, [r7, #4]
 634 005e 0B2B     		cmp	r3, #11
 635 0060 07D0     		beq	.L33
 636              		.loc 1 302 3 discriminator 12
 637 0062 7B68     		ldr	r3, [r7, #4]
 638 0064 0C2B     		cmp	r3, #12
 639 0066 04D0     		beq	.L33
 640              		.loc 1 302 3 discriminator 13
 641 0068 4FF49771 		mov	r1, #302
 642 006c 0E48     		ldr	r0, .L34
 643 006e FFF7FEFF 		bl	assert_failed
 644              	.L33:
 303:STM32Cube_FW_N6/Drivers/STM32N6xx_HAL_Driver/Src/stm32n6xx_hal_rif.c **** 
 304:STM32Cube_FW_N6/Drivers/STM32N6xx_HAL_Driver/Src/stm32n6xx_hal_rif.c ****   rimc_attr_val = RIFSC->RIMC_ATTRx[MasterId];
 645              		.loc 1 304 24 is_stmt 1
ARM GAS  /tmp/ccRTEIeG.s 			page 25


 646 0072 0E4A     		ldr	r2, .L34+4
 647              		.loc 1 304 17
 648 0074 7B68     		ldr	r3, [r7, #4]
 649 0076 03F54173 		add	r3, r3, #772
 650 007a 52F82330 		ldr	r3, [r2, r3, lsl #2]
 651 007e FB60     		str	r3, [r7, #12]
 305:STM32Cube_FW_N6/Drivers/STM32N6xx_HAL_Driver/Src/stm32n6xx_hal_rif.c ****   pConfig->SecPriv = ((rimc_attr_val & (RIFSC_RIMC_ATTRx_MPRIV | RIFSC_RIMC_ATTRx_MSEC))
 306:STM32Cube_FW_N6/Drivers/STM32N6xx_HAL_Driver/Src/stm32n6xx_hal_rif.c ****                       >> RIFSC_RIMC_ATTRx_MSEC_Pos);
 652              		.loc 1 306 23
 653 0080 FB68     		ldr	r3, [r7, #12]
 654 0082 1B0A     		lsrs	r3, r3, #8
 655 0084 03F00302 		and	r2, r3, #3
 305:STM32Cube_FW_N6/Drivers/STM32N6xx_HAL_Driver/Src/stm32n6xx_hal_rif.c ****   pConfig->SecPriv = ((rimc_attr_val & (RIFSC_RIMC_ATTRx_MPRIV | RIFSC_RIMC_ATTRx_MSEC))
 656              		.loc 1 305 20
 657 0088 3B68     		ldr	r3, [r7]
 658 008a 5A60     		str	r2, [r3, #4]
 307:STM32Cube_FW_N6/Drivers/STM32N6xx_HAL_Driver/Src/stm32n6xx_hal_rif.c ****   master_cid = ((rimc_attr_val & RIFSC_RIMC_ATTRx_MCID) >> RIFSC_RIMC_ATTRx_MCID_Pos);
 659              		.loc 1 307 57
 660 008c FB68     		ldr	r3, [r7, #12]
 661 008e 1B09     		lsrs	r3, r3, #4
 662              		.loc 1 307 14
 663 0090 03F00703 		and	r3, r3, #7
 664 0094 BB60     		str	r3, [r7, #8]
 308:STM32Cube_FW_N6/Drivers/STM32N6xx_HAL_Driver/Src/stm32n6xx_hal_rif.c ****   pConfig->MasterCID = (1UL << master_cid);
 665              		.loc 1 308 29
 666 0096 0122     		movs	r2, #1
 667 0098 BB68     		ldr	r3, [r7, #8]
 668 009a 9A40     		lsls	r2, r2, r3
 669              		.loc 1 308 22
 670 009c 3B68     		ldr	r3, [r7]
 671 009e 1A60     		str	r2, [r3]
 309:STM32Cube_FW_N6/Drivers/STM32N6xx_HAL_Driver/Src/stm32n6xx_hal_rif.c **** }
 672              		.loc 1 309 1
 673 00a0 00BF     		nop
 674 00a2 1037     		adds	r7, r7, #16
 675              		.cfi_def_cfa_offset 8
 676 00a4 BD46     		mov	sp, r7
 677              		.cfi_def_cfa_register 13
 678              		@ sp needed
 679 00a6 80BD     		pop	{r7, pc}
 680              	.L35:
 681              		.align	2
 682              	.L34:
 683 00a8 00000000 		.word	.LC0
 684 00ac 00400254 		.word	1409433600
 685              		.cfi_endproc
 686              	.LFE840:
 688              		.section	.text.HAL_RIF_RISC_Lock,"ax",%progbits
 689              		.align	1
 690              		.global	HAL_RIF_RISC_Lock
 691              		.syntax unified
 692              		.thumb
 693              		.thumb_func
 695              	HAL_RIF_RISC_Lock:
 696              	.LFB841:
 310:STM32Cube_FW_N6/Drivers/STM32N6xx_HAL_Driver/Src/stm32n6xx_hal_rif.c **** /**
 311:STM32Cube_FW_N6/Drivers/STM32N6xx_HAL_Driver/Src/stm32n6xx_hal_rif.c ****   * @}
ARM GAS  /tmp/ccRTEIeG.s 			page 26


 312:STM32Cube_FW_N6/Drivers/STM32N6xx_HAL_Driver/Src/stm32n6xx_hal_rif.c ****   */
 313:STM32Cube_FW_N6/Drivers/STM32N6xx_HAL_Driver/Src/stm32n6xx_hal_rif.c **** 
 314:STM32Cube_FW_N6/Drivers/STM32N6xx_HAL_Driver/Src/stm32n6xx_hal_rif.c **** /** @defgroup RIF_Exported_Functions_Group2  RIFSC Configuration functions
 315:STM32Cube_FW_N6/Drivers/STM32N6xx_HAL_Driver/Src/stm32n6xx_hal_rif.c ****   *  @brief    RIFSC Configuration functions
 316:STM32Cube_FW_N6/Drivers/STM32N6xx_HAL_Driver/Src/stm32n6xx_hal_rif.c ****   *
 317:STM32Cube_FW_N6/Drivers/STM32N6xx_HAL_Driver/Src/stm32n6xx_hal_rif.c **** @verbatim
 318:STM32Cube_FW_N6/Drivers/STM32N6xx_HAL_Driver/Src/stm32n6xx_hal_rif.c ****   ==============================================================================
 319:STM32Cube_FW_N6/Drivers/STM32N6xx_HAL_Driver/Src/stm32n6xx_hal_rif.c ****             ##### RIFSC Configuration functions #####
 320:STM32Cube_FW_N6/Drivers/STM32N6xx_HAL_Driver/Src/stm32n6xx_hal_rif.c ****   ==============================================================================
 321:STM32Cube_FW_N6/Drivers/STM32N6xx_HAL_Driver/Src/stm32n6xx_hal_rif.c ****   [..]
 322:STM32Cube_FW_N6/Drivers/STM32N6xx_HAL_Driver/Src/stm32n6xx_hal_rif.c ****     This section provides functions allowing to configure RIFSC
 323:STM32Cube_FW_N6/Drivers/STM32N6xx_HAL_Driver/Src/stm32n6xx_hal_rif.c ****     RIFSC is Resource Isolation Framework Secure Controller
 324:STM32Cube_FW_N6/Drivers/STM32N6xx_HAL_Driver/Src/stm32n6xx_hal_rif.c **** @endverbatim
 325:STM32Cube_FW_N6/Drivers/STM32N6xx_HAL_Driver/Src/stm32n6xx_hal_rif.c ****   * @{
 326:STM32Cube_FW_N6/Drivers/STM32N6xx_HAL_Driver/Src/stm32n6xx_hal_rif.c ****   */
 327:STM32Cube_FW_N6/Drivers/STM32N6xx_HAL_Driver/Src/stm32n6xx_hal_rif.c **** #if defined(CPU_AS_TRUSTED_DOMAIN) && defined(CPU_IN_SECURE_STATE)
 328:STM32Cube_FW_N6/Drivers/STM32N6xx_HAL_Driver/Src/stm32n6xx_hal_rif.c **** /**
 329:STM32Cube_FW_N6/Drivers/STM32N6xx_HAL_Driver/Src/stm32n6xx_hal_rif.c ****   * @brief  Lock overall configuration of RISC.
 330:STM32Cube_FW_N6/Drivers/STM32N6xx_HAL_Driver/Src/stm32n6xx_hal_rif.c ****   * @note   Once set, the overall configuration of RIFSC cannot be modified
 331:STM32Cube_FW_N6/Drivers/STM32N6xx_HAL_Driver/Src/stm32n6xx_hal_rif.c ****   *         upon next system reset.
 332:STM32Cube_FW_N6/Drivers/STM32N6xx_HAL_Driver/Src/stm32n6xx_hal_rif.c ****   * @note   This API is protected by the Trusted Domain compilation directive.
 333:STM32Cube_FW_N6/Drivers/STM32N6xx_HAL_Driver/Src/stm32n6xx_hal_rif.c ****   * @note   This API is protected by the TrustZone Enabled compilation directive.
 334:STM32Cube_FW_N6/Drivers/STM32N6xx_HAL_Driver/Src/stm32n6xx_hal_rif.c ****   * @retval None
 335:STM32Cube_FW_N6/Drivers/STM32N6xx_HAL_Driver/Src/stm32n6xx_hal_rif.c ****   */
 336:STM32Cube_FW_N6/Drivers/STM32N6xx_HAL_Driver/Src/stm32n6xx_hal_rif.c **** void HAL_RIF_RISC_Lock(void)
 337:STM32Cube_FW_N6/Drivers/STM32N6xx_HAL_Driver/Src/stm32n6xx_hal_rif.c **** {
 697              		.loc 1 337 1
 698              		.cfi_startproc
 699              		@ args = 0, pretend = 0, frame = 0
 700              		@ frame_needed = 1, uses_anonymous_args = 0
 701              		@ link register save eliminated.
 702 0000 80B4     		push	{r7}
 703              		.cfi_def_cfa_offset 4
 704              		.cfi_offset 7, -4
 705 0002 00AF     		add	r7, sp, #0
 706              		.cfi_def_cfa_register 7
 338:STM32Cube_FW_N6/Drivers/STM32N6xx_HAL_Driver/Src/stm32n6xx_hal_rif.c ****   /* Set RISC Lock bit */
 339:STM32Cube_FW_N6/Drivers/STM32N6xx_HAL_Driver/Src/stm32n6xx_hal_rif.c ****   RIFSC->RISC_CR |= RIFSC_RISC_CR_GLOCK;
 707              		.loc 1 339 8
 708 0004 054B     		ldr	r3, .L37
 709 0006 1B68     		ldr	r3, [r3]
 710 0008 044A     		ldr	r2, .L37
 711              		.loc 1 339 18
 712 000a 43F00103 		orr	r3, r3, #1
 713 000e 1360     		str	r3, [r2]
 340:STM32Cube_FW_N6/Drivers/STM32N6xx_HAL_Driver/Src/stm32n6xx_hal_rif.c **** }
 714              		.loc 1 340 1
 715 0010 00BF     		nop
 716 0012 BD46     		mov	sp, r7
 717              		.cfi_def_cfa_register 13
 718              		@ sp needed
 719 0014 5DF8047B 		ldr	r7, [sp], #4
 720              		.cfi_restore 7
 721              		.cfi_def_cfa_offset 0
 722 0018 7047     		bx	lr
 723              	.L38:
 724 001a 00BF     		.align	2
ARM GAS  /tmp/ccRTEIeG.s 			page 27


 725              	.L37:
 726 001c 00400254 		.word	1409433600
 727              		.cfi_endproc
 728              	.LFE841:
 730              		.section	.text.HAL_RIF_RISC_GetLock,"ax",%progbits
 731              		.align	1
 732              		.global	HAL_RIF_RISC_GetLock
 733              		.syntax unified
 734              		.thumb
 735              		.thumb_func
 737              	HAL_RIF_RISC_GetLock:
 738              	.LFB842:
 341:STM32Cube_FW_N6/Drivers/STM32N6xx_HAL_Driver/Src/stm32n6xx_hal_rif.c **** #endif /* defined(CPU_AS_TRUSTED_DOMAIN) && defined(CPU_IN_SECURE_STATE) */
 342:STM32Cube_FW_N6/Drivers/STM32N6xx_HAL_Driver/Src/stm32n6xx_hal_rif.c **** 
 343:STM32Cube_FW_N6/Drivers/STM32N6xx_HAL_Driver/Src/stm32n6xx_hal_rif.c **** /**
 344:STM32Cube_FW_N6/Drivers/STM32N6xx_HAL_Driver/Src/stm32n6xx_hal_rif.c ****   * @brief  Get the RIFSC global lock status.
 345:STM32Cube_FW_N6/Drivers/STM32N6xx_HAL_Driver/Src/stm32n6xx_hal_rif.c ****   * @retval 1 if RISC configuration is locked, else 0
 346:STM32Cube_FW_N6/Drivers/STM32N6xx_HAL_Driver/Src/stm32n6xx_hal_rif.c ****   */
 347:STM32Cube_FW_N6/Drivers/STM32N6xx_HAL_Driver/Src/stm32n6xx_hal_rif.c **** uint32_t HAL_RIF_RISC_GetLock(void)
 348:STM32Cube_FW_N6/Drivers/STM32N6xx_HAL_Driver/Src/stm32n6xx_hal_rif.c **** {
 739              		.loc 1 348 1
 740              		.cfi_startproc
 741              		@ args = 0, pretend = 0, frame = 8
 742              		@ frame_needed = 1, uses_anonymous_args = 0
 743              		@ link register save eliminated.
 744 0000 80B4     		push	{r7}
 745              		.cfi_def_cfa_offset 4
 746              		.cfi_offset 7, -4
 747 0002 83B0     		sub	sp, sp, #12
 748              		.cfi_def_cfa_offset 16
 749 0004 00AF     		add	r7, sp, #0
 750              		.cfi_def_cfa_register 7
 349:STM32Cube_FW_N6/Drivers/STM32N6xx_HAL_Driver/Src/stm32n6xx_hal_rif.c ****   uint32_t lock_status;
 350:STM32Cube_FW_N6/Drivers/STM32N6xx_HAL_Driver/Src/stm32n6xx_hal_rif.c **** 
 351:STM32Cube_FW_N6/Drivers/STM32N6xx_HAL_Driver/Src/stm32n6xx_hal_rif.c ****   /* Read RISC lock bit */
 352:STM32Cube_FW_N6/Drivers/STM32N6xx_HAL_Driver/Src/stm32n6xx_hal_rif.c ****   lock_status = (RIFSC->RISC_CR & RIF_LOCK_ENABLE);
 751              		.loc 1 352 23
 752 0006 064B     		ldr	r3, .L41
 753 0008 1B68     		ldr	r3, [r3]
 754              		.loc 1 352 15
 755 000a 03F00103 		and	r3, r3, #1
 756 000e 7B60     		str	r3, [r7, #4]
 353:STM32Cube_FW_N6/Drivers/STM32N6xx_HAL_Driver/Src/stm32n6xx_hal_rif.c **** 
 354:STM32Cube_FW_N6/Drivers/STM32N6xx_HAL_Driver/Src/stm32n6xx_hal_rif.c ****   return lock_status;
 757              		.loc 1 354 10
 758 0010 7B68     		ldr	r3, [r7, #4]
 355:STM32Cube_FW_N6/Drivers/STM32N6xx_HAL_Driver/Src/stm32n6xx_hal_rif.c **** }
 759              		.loc 1 355 1
 760 0012 1846     		mov	r0, r3
 761 0014 0C37     		adds	r7, r7, #12
 762              		.cfi_def_cfa_offset 4
 763 0016 BD46     		mov	sp, r7
 764              		.cfi_def_cfa_register 13
 765              		@ sp needed
 766 0018 5DF8047B 		ldr	r7, [sp], #4
 767              		.cfi_restore 7
 768              		.cfi_def_cfa_offset 0
ARM GAS  /tmp/ccRTEIeG.s 			page 28


 769 001c 7047     		bx	lr
 770              	.L42:
 771 001e 00BF     		.align	2
 772              	.L41:
 773 0020 00400254 		.word	1409433600
 774              		.cfi_endproc
 775              	.LFE842:
 777              		.section	.text.HAL_RIF_RISC_SetSlaveSecureAttributes,"ax",%progbits
 778              		.align	1
 779              		.global	HAL_RIF_RISC_SetSlaveSecureAttributes
 780              		.syntax unified
 781              		.thumb
 782              		.thumb_func
 784              	HAL_RIF_RISC_SetSlaveSecureAttributes:
 785              	.LFB843:
 356:STM32Cube_FW_N6/Drivers/STM32N6xx_HAL_Driver/Src/stm32n6xx_hal_rif.c **** 
 357:STM32Cube_FW_N6/Drivers/STM32N6xx_HAL_Driver/Src/stm32n6xx_hal_rif.c **** /**
 358:STM32Cube_FW_N6/Drivers/STM32N6xx_HAL_Driver/Src/stm32n6xx_hal_rif.c ****   * @brief  Configure the Security and Privilege of a designated slave peripheral.
 359:STM32Cube_FW_N6/Drivers/STM32N6xx_HAL_Driver/Src/stm32n6xx_hal_rif.c ****   * @param  PeriphId specifies the index of the bus slave.
 360:STM32Cube_FW_N6/Drivers/STM32N6xx_HAL_Driver/Src/stm32n6xx_hal_rif.c ****   *         This parameter can be one of @ref RIF_PERIPHERAL_INDEX
 361:STM32Cube_FW_N6/Drivers/STM32N6xx_HAL_Driver/Src/stm32n6xx_hal_rif.c ****   *         bits[31:28] define the register index a peripheral belongs to, value from 0 to 5
 362:STM32Cube_FW_N6/Drivers/STM32N6xx_HAL_Driver/Src/stm32n6xx_hal_rif.c ****   *         bits[4:0]   define the bit position within the register, value from 0 to 31
 363:STM32Cube_FW_N6/Drivers/STM32N6xx_HAL_Driver/Src/stm32n6xx_hal_rif.c ****   * @param  SecPriv specifies the security and privilege attributes of the peripheral.
 364:STM32Cube_FW_N6/Drivers/STM32N6xx_HAL_Driver/Src/stm32n6xx_hal_rif.c ****   *         This parameter can be one or a combination of @ref RIF_SEC_PRIV
 365:STM32Cube_FW_N6/Drivers/STM32N6xx_HAL_Driver/Src/stm32n6xx_hal_rif.c ****   * @retval None
 366:STM32Cube_FW_N6/Drivers/STM32N6xx_HAL_Driver/Src/stm32n6xx_hal_rif.c ****   */
 367:STM32Cube_FW_N6/Drivers/STM32N6xx_HAL_Driver/Src/stm32n6xx_hal_rif.c **** void HAL_RIF_RISC_SetSlaveSecureAttributes(uint32_t PeriphId, uint32_t SecPriv)
 368:STM32Cube_FW_N6/Drivers/STM32N6xx_HAL_Driver/Src/stm32n6xx_hal_rif.c **** {
 786              		.loc 1 368 1
 787              		.cfi_startproc
 788              		@ args = 0, pretend = 0, frame = 16
 789              		@ frame_needed = 1, uses_anonymous_args = 0
 790 0000 80B5     		push	{r7, lr}
 791              		.cfi_def_cfa_offset 8
 792              		.cfi_offset 7, -8
 793              		.cfi_offset 14, -4
 794 0002 84B0     		sub	sp, sp, #16
 795              		.cfi_def_cfa_offset 24
 796 0004 00AF     		add	r7, sp, #0
 797              		.cfi_def_cfa_register 7
 798 0006 7860     		str	r0, [r7, #4]
 799 0008 3960     		str	r1, [r7]
 369:STM32Cube_FW_N6/Drivers/STM32N6xx_HAL_Driver/Src/stm32n6xx_hal_rif.c ****   __IO uint32_t sec_reg_val;
 370:STM32Cube_FW_N6/Drivers/STM32N6xx_HAL_Driver/Src/stm32n6xx_hal_rif.c **** 
 371:STM32Cube_FW_N6/Drivers/STM32N6xx_HAL_Driver/Src/stm32n6xx_hal_rif.c ****   assert_param(IS_RIF_RISC_PERIPH_INDEX(PeriphId) || IS_RIF_RCC_PERIPH_INDEX(PeriphId));
 800              		.loc 1 371 3
 801 000a 7B68     		ldr	r3, [r7, #4]
 802 000c 002B     		cmp	r3, #0
 803 000e 00F0C682 		beq	.L44
 804              		.loc 1 371 3 is_stmt 0 discriminator 1
 805 0012 7B68     		ldr	r3, [r7, #4]
 806 0014 012B     		cmp	r3, #1
 807 0016 00F0C282 		beq	.L44
 808              		.loc 1 371 3 discriminator 2
 809 001a 7B68     		ldr	r3, [r7, #4]
 810 001c 022B     		cmp	r3, #2
 811 001e 00F0BE82 		beq	.L44
ARM GAS  /tmp/ccRTEIeG.s 			page 29


 812              		.loc 1 371 3 discriminator 3
 813 0022 7B68     		ldr	r3, [r7, #4]
 814 0024 032B     		cmp	r3, #3
 815 0026 00F0BA82 		beq	.L44
 816              		.loc 1 371 3 discriminator 4
 817 002a 7B68     		ldr	r3, [r7, #4]
 818 002c 042B     		cmp	r3, #4
 819 002e 00F0B682 		beq	.L44
 820              		.loc 1 371 3 discriminator 5
 821 0032 7B68     		ldr	r3, [r7, #4]
 822 0034 052B     		cmp	r3, #5
 823 0036 00F0B282 		beq	.L44
 824              		.loc 1 371 3 discriminator 6
 825 003a 7B68     		ldr	r3, [r7, #4]
 826 003c 062B     		cmp	r3, #6
 827 003e 00F0AE82 		beq	.L44
 828              		.loc 1 371 3 discriminator 7
 829 0042 7B68     		ldr	r3, [r7, #4]
 830 0044 082B     		cmp	r3, #8
 831 0046 00F0AA82 		beq	.L44
 832              		.loc 1 371 3 discriminator 8
 833 004a 7B68     		ldr	r3, [r7, #4]
 834 004c 092B     		cmp	r3, #9
 835 004e 00F0A682 		beq	.L44
 836              		.loc 1 371 3 discriminator 9
 837 0052 7B68     		ldr	r3, [r7, #4]
 838 0054 0A2B     		cmp	r3, #10
 839 0056 00F0A282 		beq	.L44
 840              		.loc 1 371 3 discriminator 10
 841 005a 7B68     		ldr	r3, [r7, #4]
 842 005c 0B2B     		cmp	r3, #11
 843 005e 00F09E82 		beq	.L44
 844              		.loc 1 371 3 discriminator 11
 845 0062 7B68     		ldr	r3, [r7, #4]
 846 0064 0C2B     		cmp	r3, #12
 847 0066 00F09A82 		beq	.L44
 848              		.loc 1 371 3 discriminator 12
 849 006a 7B68     		ldr	r3, [r7, #4]
 850 006c 0D2B     		cmp	r3, #13
 851 006e 00F09682 		beq	.L44
 852              		.loc 1 371 3 discriminator 13
 853 0072 7B68     		ldr	r3, [r7, #4]
 854 0074 0E2B     		cmp	r3, #14
 855 0076 00F09282 		beq	.L44
 856              		.loc 1 371 3 discriminator 14
 857 007a 7B68     		ldr	r3, [r7, #4]
 858 007c 0F2B     		cmp	r3, #15
 859 007e 00F08E82 		beq	.L44
 860              		.loc 1 371 3 discriminator 15
 861 0082 7B68     		ldr	r3, [r7, #4]
 862 0084 102B     		cmp	r3, #16
 863 0086 00F08A82 		beq	.L44
 864              		.loc 1 371 3 discriminator 16
 865 008a 7B68     		ldr	r3, [r7, #4]
 866 008c 112B     		cmp	r3, #17
 867 008e 00F08682 		beq	.L44
 868              		.loc 1 371 3 discriminator 17
ARM GAS  /tmp/ccRTEIeG.s 			page 30


 869 0092 7B68     		ldr	r3, [r7, #4]
 870 0094 122B     		cmp	r3, #18
 871 0096 00F08282 		beq	.L44
 872              		.loc 1 371 3 discriminator 18
 873 009a 7B68     		ldr	r3, [r7, #4]
 874 009c 132B     		cmp	r3, #19
 875 009e 00F07E82 		beq	.L44
 876              		.loc 1 371 3 discriminator 19
 877 00a2 7B68     		ldr	r3, [r7, #4]
 878 00a4 142B     		cmp	r3, #20
 879 00a6 00F07A82 		beq	.L44
 880              		.loc 1 371 3 discriminator 20
 881 00aa 7B68     		ldr	r3, [r7, #4]
 882 00ac 152B     		cmp	r3, #21
 883 00ae 00F07682 		beq	.L44
 884              		.loc 1 371 3 discriminator 21
 885 00b2 7B68     		ldr	r3, [r7, #4]
 886 00b4 162B     		cmp	r3, #22
 887 00b6 00F07282 		beq	.L44
 888              		.loc 1 371 3 discriminator 22
 889 00ba 7B68     		ldr	r3, [r7, #4]
 890 00bc 172B     		cmp	r3, #23
 891 00be 00F06E82 		beq	.L44
 892              		.loc 1 371 3 discriminator 23
 893 00c2 7B68     		ldr	r3, [r7, #4]
 894 00c4 182B     		cmp	r3, #24
 895 00c6 00F06A82 		beq	.L44
 896              		.loc 1 371 3 discriminator 24
 897 00ca 7B68     		ldr	r3, [r7, #4]
 898 00cc 192B     		cmp	r3, #25
 899 00ce 00F06682 		beq	.L44
 900              		.loc 1 371 3 discriminator 25
 901 00d2 7B68     		ldr	r3, [r7, #4]
 902 00d4 1A2B     		cmp	r3, #26
 903 00d6 00F06282 		beq	.L44
 904              		.loc 1 371 3 discriminator 26
 905 00da 7B68     		ldr	r3, [r7, #4]
 906 00dc 1B2B     		cmp	r3, #27
 907 00de 00F05E82 		beq	.L44
 908              		.loc 1 371 3 discriminator 27
 909 00e2 7B68     		ldr	r3, [r7, #4]
 910 00e4 1C2B     		cmp	r3, #28
 911 00e6 00F05A82 		beq	.L44
 912              		.loc 1 371 3 discriminator 28
 913 00ea 7B68     		ldr	r3, [r7, #4]
 914 00ec 1D2B     		cmp	r3, #29
 915 00ee 00F05682 		beq	.L44
 916              		.loc 1 371 3 discriminator 29
 917 00f2 7B68     		ldr	r3, [r7, #4]
 918 00f4 1E2B     		cmp	r3, #30
 919 00f6 00F05282 		beq	.L44
 920              		.loc 1 371 3 discriminator 30
 921 00fa 7B68     		ldr	r3, [r7, #4]
 922 00fc 1F2B     		cmp	r3, #31
 923 00fe 00F04E82 		beq	.L44
 924              		.loc 1 371 3 discriminator 31
 925 0102 7B68     		ldr	r3, [r7, #4]
ARM GAS  /tmp/ccRTEIeG.s 			page 31


 926 0104 B3F1805F 		cmp	r3, #268435456
 927 0108 00F04982 		beq	.L44
 928              		.loc 1 371 3 discriminator 32
 929 010c 7B68     		ldr	r3, [r7, #4]
 930 010e A04A     		ldr	r2, .L46
 931 0110 9342     		cmp	r3, r2
 932 0112 00F04482 		beq	.L44
 933              		.loc 1 371 3 discriminator 33
 934 0116 7B68     		ldr	r3, [r7, #4]
 935 0118 9E4A     		ldr	r2, .L46+4
 936 011a 9342     		cmp	r3, r2
 937 011c 00F03F82 		beq	.L44
 938              		.loc 1 371 3 discriminator 34
 939 0120 7B68     		ldr	r3, [r7, #4]
 940 0122 9D4A     		ldr	r2, .L46+8
 941 0124 9342     		cmp	r3, r2
 942 0126 00F03A82 		beq	.L44
 943              		.loc 1 371 3 discriminator 35
 944 012a 7B68     		ldr	r3, [r7, #4]
 945 012c 9B4A     		ldr	r2, .L46+12
 946 012e 9342     		cmp	r3, r2
 947 0130 00F03582 		beq	.L44
 948              		.loc 1 371 3 discriminator 36
 949 0134 7B68     		ldr	r3, [r7, #4]
 950 0136 9A4A     		ldr	r2, .L46+16
 951 0138 9342     		cmp	r3, r2
 952 013a 00F03082 		beq	.L44
 953              		.loc 1 371 3 discriminator 37
 954 013e 7B68     		ldr	r3, [r7, #4]
 955 0140 984A     		ldr	r2, .L46+20
 956 0142 9342     		cmp	r3, r2
 957 0144 00F02B82 		beq	.L44
 958              		.loc 1 371 3 discriminator 38
 959 0148 7B68     		ldr	r3, [r7, #4]
 960 014a 974A     		ldr	r2, .L46+24
 961 014c 9342     		cmp	r3, r2
 962 014e 00F02682 		beq	.L44
 963              		.loc 1 371 3 discriminator 39
 964 0152 7B68     		ldr	r3, [r7, #4]
 965 0154 954A     		ldr	r2, .L46+28
 966 0156 9342     		cmp	r3, r2
 967 0158 00F02182 		beq	.L44
 968              		.loc 1 371 3 discriminator 40
 969 015c 7B68     		ldr	r3, [r7, #4]
 970 015e 944A     		ldr	r2, .L46+32
 971 0160 9342     		cmp	r3, r2
 972 0162 00F01C82 		beq	.L44
 973              		.loc 1 371 3 discriminator 41
 974 0166 7B68     		ldr	r3, [r7, #4]
 975 0168 924A     		ldr	r2, .L46+36
 976 016a 9342     		cmp	r3, r2
 977 016c 00F01782 		beq	.L44
 978              		.loc 1 371 3 discriminator 42
 979 0170 7B68     		ldr	r3, [r7, #4]
 980 0172 914A     		ldr	r2, .L46+40
 981 0174 9342     		cmp	r3, r2
 982 0176 00F01282 		beq	.L44
ARM GAS  /tmp/ccRTEIeG.s 			page 32


 983              		.loc 1 371 3 discriminator 43
 984 017a 7B68     		ldr	r3, [r7, #4]
 985 017c 8F4A     		ldr	r2, .L46+44
 986 017e 9342     		cmp	r3, r2
 987 0180 00F00D82 		beq	.L44
 988              		.loc 1 371 3 discriminator 44
 989 0184 7B68     		ldr	r3, [r7, #4]
 990 0186 8E4A     		ldr	r2, .L46+48
 991 0188 9342     		cmp	r3, r2
 992 018a 00F00882 		beq	.L44
 993              		.loc 1 371 3 discriminator 45
 994 018e 7B68     		ldr	r3, [r7, #4]
 995 0190 8C4A     		ldr	r2, .L46+52
 996 0192 9342     		cmp	r3, r2
 997 0194 00F00382 		beq	.L44
 998              		.loc 1 371 3 discriminator 46
 999 0198 7B68     		ldr	r3, [r7, #4]
 1000 019a 8B4A     		ldr	r2, .L46+56
 1001 019c 9342     		cmp	r3, r2
 1002 019e 00F0FE81 		beq	.L44
 1003              		.loc 1 371 3 discriminator 47
 1004 01a2 7B68     		ldr	r3, [r7, #4]
 1005 01a4 894A     		ldr	r2, .L46+60
 1006 01a6 9342     		cmp	r3, r2
 1007 01a8 00F0F981 		beq	.L44
 1008              		.loc 1 371 3 discriminator 48
 1009 01ac 7B68     		ldr	r3, [r7, #4]
 1010 01ae 884A     		ldr	r2, .L46+64
 1011 01b0 9342     		cmp	r3, r2
 1012 01b2 00F0F481 		beq	.L44
 1013              		.loc 1 371 3 discriminator 49
 1014 01b6 7B68     		ldr	r3, [r7, #4]
 1015 01b8 864A     		ldr	r2, .L46+68
 1016 01ba 9342     		cmp	r3, r2
 1017 01bc 00F0EF81 		beq	.L44
 1018              		.loc 1 371 3 discriminator 50
 1019 01c0 7B68     		ldr	r3, [r7, #4]
 1020 01c2 854A     		ldr	r2, .L46+72
 1021 01c4 9342     		cmp	r3, r2
 1022 01c6 00F0EA81 		beq	.L44
 1023              		.loc 1 371 3 discriminator 51
 1024 01ca 7B68     		ldr	r3, [r7, #4]
 1025 01cc 834A     		ldr	r2, .L46+76
 1026 01ce 9342     		cmp	r3, r2
 1027 01d0 00F0E581 		beq	.L44
 1028              		.loc 1 371 3 discriminator 52
 1029 01d4 7B68     		ldr	r3, [r7, #4]
 1030 01d6 824A     		ldr	r2, .L46+80
 1031 01d8 9342     		cmp	r3, r2
 1032 01da 00F0E081 		beq	.L44
 1033              		.loc 1 371 3 discriminator 53
 1034 01de 7B68     		ldr	r3, [r7, #4]
 1035 01e0 804A     		ldr	r2, .L46+84
 1036 01e2 9342     		cmp	r3, r2
 1037 01e4 00F0DB81 		beq	.L44
 1038              		.loc 1 371 3 discriminator 54
 1039 01e8 7B68     		ldr	r3, [r7, #4]
ARM GAS  /tmp/ccRTEIeG.s 			page 33


 1040 01ea 7F4A     		ldr	r2, .L46+88
 1041 01ec 9342     		cmp	r3, r2
 1042 01ee 00F0D681 		beq	.L44
 1043              		.loc 1 371 3 discriminator 55
 1044 01f2 7B68     		ldr	r3, [r7, #4]
 1045 01f4 7D4A     		ldr	r2, .L46+92
 1046 01f6 9342     		cmp	r3, r2
 1047 01f8 00F0D181 		beq	.L44
 1048              		.loc 1 371 3 discriminator 56
 1049 01fc 7B68     		ldr	r3, [r7, #4]
 1050 01fe 7C4A     		ldr	r2, .L46+96
 1051 0200 9342     		cmp	r3, r2
 1052 0202 00F0CC81 		beq	.L44
 1053              		.loc 1 371 3 discriminator 57
 1054 0206 7B68     		ldr	r3, [r7, #4]
 1055 0208 7A4A     		ldr	r2, .L46+100
 1056 020a 9342     		cmp	r3, r2
 1057 020c 00F0C781 		beq	.L44
 1058              		.loc 1 371 3 discriminator 58
 1059 0210 7B68     		ldr	r3, [r7, #4]
 1060 0212 794A     		ldr	r2, .L46+104
 1061 0214 9342     		cmp	r3, r2
 1062 0216 00F0C281 		beq	.L44
 1063              		.loc 1 371 3 discriminator 59
 1064 021a 7B68     		ldr	r3, [r7, #4]
 1065 021c 774A     		ldr	r2, .L46+108
 1066 021e 9342     		cmp	r3, r2
 1067 0220 00F0BD81 		beq	.L44
 1068              		.loc 1 371 3 discriminator 60
 1069 0224 7B68     		ldr	r3, [r7, #4]
 1070 0226 764A     		ldr	r2, .L46+112
 1071 0228 9342     		cmp	r3, r2
 1072 022a 00F0B881 		beq	.L44
 1073              		.loc 1 371 3 discriminator 61
 1074 022e 7B68     		ldr	r3, [r7, #4]
 1075 0230 B3F1005F 		cmp	r3, #536870912
 1076 0234 00F0B381 		beq	.L44
 1077              		.loc 1 371 3 discriminator 62
 1078 0238 7B68     		ldr	r3, [r7, #4]
 1079 023a 724A     		ldr	r2, .L46+116
 1080 023c 9342     		cmp	r3, r2
 1081 023e 00F0AE81 		beq	.L44
 1082              		.loc 1 371 3 discriminator 63
 1083 0242 7B68     		ldr	r3, [r7, #4]
 1084 0244 704A     		ldr	r2, .L46+120
 1085 0246 9342     		cmp	r3, r2
 1086 0248 00F0A981 		beq	.L44
 1087              		.loc 1 371 3 discriminator 64
 1088 024c 7B68     		ldr	r3, [r7, #4]
 1089 024e 6F4A     		ldr	r2, .L46+124
 1090 0250 9342     		cmp	r3, r2
 1091 0252 00F0A481 		beq	.L44
 1092              		.loc 1 371 3 discriminator 65
 1093 0256 7B68     		ldr	r3, [r7, #4]
 1094 0258 6D4A     		ldr	r2, .L46+128
 1095 025a 9342     		cmp	r3, r2
 1096 025c 00F09F81 		beq	.L44
ARM GAS  /tmp/ccRTEIeG.s 			page 34


 1097              		.loc 1 371 3 discriminator 66
 1098 0260 7B68     		ldr	r3, [r7, #4]
 1099 0262 6C4A     		ldr	r2, .L46+132
 1100 0264 9342     		cmp	r3, r2
 1101 0266 00F09A81 		beq	.L44
 1102              		.loc 1 371 3 discriminator 67
 1103 026a 7B68     		ldr	r3, [r7, #4]
 1104 026c 6A4A     		ldr	r2, .L46+136
 1105 026e 9342     		cmp	r3, r2
 1106 0270 00F09581 		beq	.L44
 1107              		.loc 1 371 3 discriminator 68
 1108 0274 7B68     		ldr	r3, [r7, #4]
 1109 0276 694A     		ldr	r2, .L46+140
 1110 0278 9342     		cmp	r3, r2
 1111 027a 00F09081 		beq	.L44
 1112              		.loc 1 371 3 discriminator 69
 1113 027e 7B68     		ldr	r3, [r7, #4]
 1114 0280 674A     		ldr	r2, .L46+144
 1115 0282 9342     		cmp	r3, r2
 1116 0284 00F08B81 		beq	.L44
 1117              		.loc 1 371 3 discriminator 70
 1118 0288 7B68     		ldr	r3, [r7, #4]
 1119 028a 664A     		ldr	r2, .L46+148
 1120 028c 9342     		cmp	r3, r2
 1121 028e 00F08681 		beq	.L44
 1122              		.loc 1 371 3 discriminator 71
 1123 0292 7B68     		ldr	r3, [r7, #4]
 1124 0294 644A     		ldr	r2, .L46+152
 1125 0296 9342     		cmp	r3, r2
 1126 0298 00F08181 		beq	.L44
 1127              		.loc 1 371 3 discriminator 72
 1128 029c 7B68     		ldr	r3, [r7, #4]
 1129 029e 634A     		ldr	r2, .L46+156
 1130 02a0 9342     		cmp	r3, r2
 1131 02a2 00F07C81 		beq	.L44
 1132              		.loc 1 371 3 discriminator 73
 1133 02a6 7B68     		ldr	r3, [r7, #4]
 1134 02a8 614A     		ldr	r2, .L46+160
 1135 02aa 9342     		cmp	r3, r2
 1136 02ac 00F07781 		beq	.L44
 1137              		.loc 1 371 3 discriminator 74
 1138 02b0 7B68     		ldr	r3, [r7, #4]
 1139 02b2 604A     		ldr	r2, .L46+164
 1140 02b4 9342     		cmp	r3, r2
 1141 02b6 00F07281 		beq	.L44
 1142              		.loc 1 371 3 discriminator 75
 1143 02ba 7B68     		ldr	r3, [r7, #4]
 1144 02bc 5E4A     		ldr	r2, .L46+168
 1145 02be 9342     		cmp	r3, r2
 1146 02c0 00F06D81 		beq	.L44
 1147              		.loc 1 371 3 discriminator 76
 1148 02c4 7B68     		ldr	r3, [r7, #4]
 1149 02c6 5D4A     		ldr	r2, .L46+172
 1150 02c8 9342     		cmp	r3, r2
 1151 02ca 00F06881 		beq	.L44
 1152              		.loc 1 371 3 discriminator 77
 1153 02ce 7B68     		ldr	r3, [r7, #4]
ARM GAS  /tmp/ccRTEIeG.s 			page 35


 1154 02d0 5B4A     		ldr	r2, .L46+176
 1155 02d2 9342     		cmp	r3, r2
 1156 02d4 00F06381 		beq	.L44
 1157              		.loc 1 371 3 discriminator 78
 1158 02d8 7B68     		ldr	r3, [r7, #4]
 1159 02da 5A4A     		ldr	r2, .L46+180
 1160 02dc 9342     		cmp	r3, r2
 1161 02de 00F05E81 		beq	.L44
 1162              		.loc 1 371 3 discriminator 79
 1163 02e2 7B68     		ldr	r3, [r7, #4]
 1164 02e4 584A     		ldr	r2, .L46+184
 1165 02e6 9342     		cmp	r3, r2
 1166 02e8 00F05981 		beq	.L44
 1167              		.loc 1 371 3 discriminator 80
 1168 02ec 7B68     		ldr	r3, [r7, #4]
 1169 02ee 574A     		ldr	r2, .L46+188
 1170 02f0 9342     		cmp	r3, r2
 1171 02f2 00F05481 		beq	.L44
 1172              		.loc 1 371 3 discriminator 81
 1173 02f6 7B68     		ldr	r3, [r7, #4]
 1174 02f8 554A     		ldr	r2, .L46+192
 1175 02fa 9342     		cmp	r3, r2
 1176 02fc 00F04F81 		beq	.L44
 1177              		.loc 1 371 3 discriminator 82
 1178 0300 7B68     		ldr	r3, [r7, #4]
 1179 0302 544A     		ldr	r2, .L46+196
 1180 0304 9342     		cmp	r3, r2
 1181 0306 00F04A81 		beq	.L44
 1182              		.loc 1 371 3 discriminator 83
 1183 030a 7B68     		ldr	r3, [r7, #4]
 1184 030c B3F1405F 		cmp	r3, #805306368
 1185 0310 00F04581 		beq	.L44
 1186              		.loc 1 371 3 discriminator 84
 1187 0314 7B68     		ldr	r3, [r7, #4]
 1188 0316 504A     		ldr	r2, .L46+200
 1189 0318 9342     		cmp	r3, r2
 1190 031a 00F04081 		beq	.L44
 1191              		.loc 1 371 3 discriminator 85
 1192 031e 7B68     		ldr	r3, [r7, #4]
 1193 0320 4E4A     		ldr	r2, .L46+204
 1194 0322 9342     		cmp	r3, r2
 1195 0324 00F03B81 		beq	.L44
 1196              		.loc 1 371 3 discriminator 86
 1197 0328 7B68     		ldr	r3, [r7, #4]
 1198 032a 4D4A     		ldr	r2, .L46+208
 1199 032c 9342     		cmp	r3, r2
 1200 032e 00F03681 		beq	.L44
 1201              		.loc 1 371 3 discriminator 87
 1202 0332 7B68     		ldr	r3, [r7, #4]
 1203 0334 4B4A     		ldr	r2, .L46+212
 1204 0336 9342     		cmp	r3, r2
 1205 0338 00F03181 		beq	.L44
 1206              		.loc 1 371 3 discriminator 88
 1207 033c 7B68     		ldr	r3, [r7, #4]
 1208 033e 4A4A     		ldr	r2, .L46+216
 1209 0340 9342     		cmp	r3, r2
 1210 0342 00F02C81 		beq	.L44
ARM GAS  /tmp/ccRTEIeG.s 			page 36


 1211              		.loc 1 371 3 discriminator 89
 1212 0346 7B68     		ldr	r3, [r7, #4]
 1213 0348 484A     		ldr	r2, .L46+220
 1214 034a 9342     		cmp	r3, r2
 1215 034c 00F02781 		beq	.L44
 1216              		.loc 1 371 3 discriminator 90
 1217 0350 7B68     		ldr	r3, [r7, #4]
 1218 0352 474A     		ldr	r2, .L46+224
 1219 0354 9342     		cmp	r3, r2
 1220 0356 00F02281 		beq	.L44
 1221              		.loc 1 371 3 discriminator 91
 1222 035a 7B68     		ldr	r3, [r7, #4]
 1223 035c 454A     		ldr	r2, .L46+228
 1224 035e 9342     		cmp	r3, r2
 1225 0360 00F01D81 		beq	.L44
 1226              		.loc 1 371 3 discriminator 92
 1227 0364 7B68     		ldr	r3, [r7, #4]
 1228 0366 444A     		ldr	r2, .L46+232
 1229 0368 9342     		cmp	r3, r2
 1230 036a 00F01881 		beq	.L44
 1231              		.loc 1 371 3 discriminator 93
 1232 036e 7B68     		ldr	r3, [r7, #4]
 1233 0370 424A     		ldr	r2, .L46+236
 1234 0372 9342     		cmp	r3, r2
 1235 0374 00F01381 		beq	.L44
 1236              		.loc 1 371 3 discriminator 94
 1237 0378 7B68     		ldr	r3, [r7, #4]
 1238 037a 414A     		ldr	r2, .L46+240
 1239 037c 9342     		cmp	r3, r2
 1240 037e 00F00E81 		beq	.L44
 1241              		.loc 1 371 3 discriminator 95
 1242 0382 7B68     		ldr	r3, [r7, #4]
 1243 0384 3F4A     		ldr	r2, .L46+244
 1244 0386 9342     		cmp	r3, r2
 1245 0388 00F00981 		beq	.L44
 1246 038c 7CE0     		b	.L47
 1247              	.L48:
 1248 038e 00BF     		.align	2
 1249              	.L46:
 1250 0390 01000010 		.word	268435457
 1251 0394 02000010 		.word	268435458
 1252 0398 03000010 		.word	268435459
 1253 039c 04000010 		.word	268435460
 1254 03a0 05000010 		.word	268435461
 1255 03a4 06000010 		.word	268435462
 1256 03a8 07000010 		.word	268435463
 1257 03ac 08000010 		.word	268435464
 1258 03b0 09000010 		.word	268435465
 1259 03b4 0A000010 		.word	268435466
 1260 03b8 0B000010 		.word	268435467
 1261 03bc 0C000010 		.word	268435468
 1262 03c0 0D000010 		.word	268435469
 1263 03c4 0E000010 		.word	268435470
 1264 03c8 0F000010 		.word	268435471
 1265 03cc 10000010 		.word	268435472
 1266 03d0 11000010 		.word	268435473
 1267 03d4 12000010 		.word	268435474
ARM GAS  /tmp/ccRTEIeG.s 			page 37


 1268 03d8 13000010 		.word	268435475
 1269 03dc 14000010 		.word	268435476
 1270 03e0 15000010 		.word	268435477
 1271 03e4 16000010 		.word	268435478
 1272 03e8 17000010 		.word	268435479
 1273 03ec 18000010 		.word	268435480
 1274 03f0 19000010 		.word	268435481
 1275 03f4 1A000010 		.word	268435482
 1276 03f8 1C000010 		.word	268435484
 1277 03fc 1D000010 		.word	268435485
 1278 0400 1E000010 		.word	268435486
 1279 0404 01000020 		.word	536870913
 1280 0408 03000020 		.word	536870915
 1281 040c 04000020 		.word	536870916
 1282 0410 05000020 		.word	536870917
 1283 0414 0C000020 		.word	536870924
 1284 0418 0D000020 		.word	536870925
 1285 041c 0E000020 		.word	536870926
 1286 0420 0F000020 		.word	536870927
 1287 0424 10000020 		.word	536870928
 1288 0428 11000020 		.word	536870929
 1289 042c 12000020 		.word	536870930
 1290 0430 13000020 		.word	536870931
 1291 0434 14000020 		.word	536870932
 1292 0438 16000020 		.word	536870934
 1293 043c 17000020 		.word	536870935
 1294 0440 18000020 		.word	536870936
 1295 0444 19000020 		.word	536870937
 1296 0448 1A000020 		.word	536870938
 1297 044c 1C000020 		.word	536870940
 1298 0450 1D000020 		.word	536870941
 1299 0454 1E000020 		.word	536870942
 1300 0458 01000030 		.word	805306369
 1301 045c 02000030 		.word	805306370
 1302 0460 03000030 		.word	805306371
 1303 0464 04000030 		.word	805306372
 1304 0468 05000030 		.word	805306373
 1305 046c 06000030 		.word	805306374
 1306 0470 07000030 		.word	805306375
 1307 0474 08000030 		.word	805306376
 1308 0478 0A000030 		.word	805306378
 1309 047c 02000040 		.word	1073741826
 1310 0480 03000040 		.word	1073741827
 1311 0484 05000040 		.word	1073741829
 1312              	.L47:
 1313              		.loc 1 371 3 discriminator 96
 1314 0488 7B68     		ldr	r3, [r7, #4]
 1315 048a 6D4A     		ldr	r2, .L49
 1316 048c 9342     		cmp	r3, r2
 1317 048e 00F08680 		beq	.L44
 1318              		.loc 1 371 3 discriminator 97
 1319 0492 7B68     		ldr	r3, [r7, #4]
 1320 0494 6B4A     		ldr	r2, .L49+4
 1321 0496 9342     		cmp	r3, r2
 1322 0498 00F08180 		beq	.L44
 1323              		.loc 1 371 3 discriminator 98
 1324 049c 7B68     		ldr	r3, [r7, #4]
ARM GAS  /tmp/ccRTEIeG.s 			page 38


 1325 049e 6A4A     		ldr	r2, .L49+8
 1326 04a0 9342     		cmp	r3, r2
 1327 04a2 7CD0     		beq	.L44
 1328              		.loc 1 371 3 discriminator 99
 1329 04a4 7B68     		ldr	r3, [r7, #4]
 1330 04a6 694A     		ldr	r2, .L49+12
 1331 04a8 9342     		cmp	r3, r2
 1332 04aa 78D0     		beq	.L44
 1333              		.loc 1 371 3 discriminator 100
 1334 04ac 7B68     		ldr	r3, [r7, #4]
 1335 04ae 684A     		ldr	r2, .L49+16
 1336 04b0 9342     		cmp	r3, r2
 1337 04b2 74D0     		beq	.L44
 1338              		.loc 1 371 3 discriminator 101
 1339 04b4 7B68     		ldr	r3, [r7, #4]
 1340 04b6 674A     		ldr	r2, .L49+20
 1341 04b8 9342     		cmp	r3, r2
 1342 04ba 70D0     		beq	.L44
 1343              		.loc 1 371 3 discriminator 102
 1344 04bc 7B68     		ldr	r3, [r7, #4]
 1345 04be 664A     		ldr	r2, .L49+24
 1346 04c0 9342     		cmp	r3, r2
 1347 04c2 6CD0     		beq	.L44
 1348              		.loc 1 371 3 discriminator 103
 1349 04c4 7B68     		ldr	r3, [r7, #4]
 1350 04c6 654A     		ldr	r2, .L49+28
 1351 04c8 9342     		cmp	r3, r2
 1352 04ca 68D0     		beq	.L44
 1353              		.loc 1 371 3 discriminator 104
 1354 04cc 7B68     		ldr	r3, [r7, #4]
 1355 04ce 644A     		ldr	r2, .L49+32
 1356 04d0 9342     		cmp	r3, r2
 1357 04d2 64D0     		beq	.L44
 1358              		.loc 1 371 3 discriminator 105
 1359 04d4 7B68     		ldr	r3, [r7, #4]
 1360 04d6 634A     		ldr	r2, .L49+36
 1361 04d8 9342     		cmp	r3, r2
 1362 04da 60D0     		beq	.L44
 1363              		.loc 1 371 3 discriminator 106
 1364 04dc 7B68     		ldr	r3, [r7, #4]
 1365 04de B3F1A04F 		cmp	r3, #1342177280
 1366 04e2 5CD0     		beq	.L44
 1367              		.loc 1 371 3 discriminator 107
 1368 04e4 7B68     		ldr	r3, [r7, #4]
 1369 04e6 604A     		ldr	r2, .L49+40
 1370 04e8 9342     		cmp	r3, r2
 1371 04ea 58D0     		beq	.L44
 1372              		.loc 1 371 3 discriminator 108
 1373 04ec 7B68     		ldr	r3, [r7, #4]
 1374 04ee 5F4A     		ldr	r2, .L49+44
 1375 04f0 9342     		cmp	r3, r2
 1376 04f2 54D0     		beq	.L44
 1377              		.loc 1 371 3 discriminator 109
 1378 04f4 7B68     		ldr	r3, [r7, #4]
 1379 04f6 5E4A     		ldr	r2, .L49+48
 1380 04f8 9342     		cmp	r3, r2
 1381 04fa 50D0     		beq	.L44
ARM GAS  /tmp/ccRTEIeG.s 			page 39


 1382              		.loc 1 371 3 discriminator 110
 1383 04fc 7B68     		ldr	r3, [r7, #4]
 1384 04fe 5D4A     		ldr	r2, .L49+52
 1385 0500 9342     		cmp	r3, r2
 1386 0502 4CD0     		beq	.L44
 1387              		.loc 1 371 3 discriminator 111
 1388 0504 7B68     		ldr	r3, [r7, #4]
 1389 0506 5C4A     		ldr	r2, .L49+56
 1390 0508 9342     		cmp	r3, r2
 1391 050a 48D0     		beq	.L44
 1392              		.loc 1 371 3 discriminator 112
 1393 050c 7B68     		ldr	r3, [r7, #4]
 1394 050e 5B4A     		ldr	r2, .L49+60
 1395 0510 9342     		cmp	r3, r2
 1396 0512 44D0     		beq	.L44
 1397              		.loc 1 371 3 discriminator 113
 1398 0514 7B68     		ldr	r3, [r7, #4]
 1399 0516 5A4A     		ldr	r2, .L49+64
 1400 0518 9342     		cmp	r3, r2
 1401 051a 40D0     		beq	.L44
 1402              		.loc 1 371 3 discriminator 114
 1403 051c 7B68     		ldr	r3, [r7, #4]
 1404 051e 594A     		ldr	r2, .L49+68
 1405 0520 9342     		cmp	r3, r2
 1406 0522 3CD0     		beq	.L44
 1407              		.loc 1 371 3 discriminator 115
 1408 0524 7B68     		ldr	r3, [r7, #4]
 1409 0526 584A     		ldr	r2, .L49+72
 1410 0528 9342     		cmp	r3, r2
 1411 052a 38D0     		beq	.L44
 1412              		.loc 1 371 3 discriminator 116
 1413 052c 7B68     		ldr	r3, [r7, #4]
 1414 052e 574A     		ldr	r2, .L49+76
 1415 0530 9342     		cmp	r3, r2
 1416 0532 34D0     		beq	.L44
 1417              		.loc 1 371 3 discriminator 117
 1418 0534 7B68     		ldr	r3, [r7, #4]
 1419 0536 564A     		ldr	r2, .L49+80
 1420 0538 9342     		cmp	r3, r2
 1421 053a 30D0     		beq	.L44
 1422              		.loc 1 371 3 discriminator 118
 1423 053c 7B68     		ldr	r3, [r7, #4]
 1424 053e 554A     		ldr	r2, .L49+84
 1425 0540 9342     		cmp	r3, r2
 1426 0542 2CD0     		beq	.L44
 1427              		.loc 1 371 3 discriminator 119
 1428 0544 7B68     		ldr	r3, [r7, #4]
 1429 0546 544A     		ldr	r2, .L49+88
 1430 0548 9342     		cmp	r3, r2
 1431 054a 28D0     		beq	.L44
 1432              		.loc 1 371 3 discriminator 120
 1433 054c 7B68     		ldr	r3, [r7, #4]
 1434 054e 534A     		ldr	r2, .L49+92
 1435 0550 9342     		cmp	r3, r2
 1436 0552 24D0     		beq	.L44
 1437              		.loc 1 371 3 discriminator 121
 1438 0554 7B68     		ldr	r3, [r7, #4]
ARM GAS  /tmp/ccRTEIeG.s 			page 40


 1439 0556 524A     		ldr	r2, .L49+96
 1440 0558 9342     		cmp	r3, r2
 1441 055a 20D0     		beq	.L44
 1442              		.loc 1 371 3 discriminator 122
 1443 055c 7B68     		ldr	r3, [r7, #4]
 1444 055e 514A     		ldr	r2, .L49+100
 1445 0560 9342     		cmp	r3, r2
 1446 0562 1CD0     		beq	.L44
 1447              		.loc 1 371 3 discriminator 123
 1448 0564 7B68     		ldr	r3, [r7, #4]
 1449 0566 504A     		ldr	r2, .L49+104
 1450 0568 9342     		cmp	r3, r2
 1451 056a 18D0     		beq	.L44
 1452              		.loc 1 371 3 discriminator 124
 1453 056c 7B68     		ldr	r3, [r7, #4]
 1454 056e 4F4A     		ldr	r2, .L49+108
 1455 0570 9342     		cmp	r3, r2
 1456 0572 14D0     		beq	.L44
 1457              		.loc 1 371 3 discriminator 125
 1458 0574 7B68     		ldr	r3, [r7, #4]
 1459 0576 4E4A     		ldr	r2, .L49+112
 1460 0578 9342     		cmp	r3, r2
 1461 057a 10D0     		beq	.L44
 1462              		.loc 1 371 3 discriminator 126
 1463 057c 7B68     		ldr	r3, [r7, #4]
 1464 057e 4D4A     		ldr	r2, .L49+116
 1465 0580 9342     		cmp	r3, r2
 1466 0582 0CD0     		beq	.L44
 1467              		.loc 1 371 3 discriminator 127
 1468 0584 7B68     		ldr	r3, [r7, #4]
 1469 0586 4C4A     		ldr	r2, .L49+120
 1470 0588 9342     		cmp	r3, r2
 1471 058a 08D0     		beq	.L44
 1472              		.loc 1 371 3 discriminator 128
 1473 058c 7B68     		ldr	r3, [r7, #4]
 1474 058e 4B4A     		ldr	r2, .L49+124
 1475 0590 9342     		cmp	r3, r2
 1476 0592 04D0     		beq	.L44
 1477              		.loc 1 371 3 discriminator 129
 1478 0594 40F27311 		movw	r1, #371
 1479 0598 4948     		ldr	r0, .L49+128
 1480 059a FFF7FEFF 		bl	assert_failed
 1481              	.L44:
 372:STM32Cube_FW_N6/Drivers/STM32N6xx_HAL_Driver/Src/stm32n6xx_hal_rif.c ****   assert_param(IS_RIF_SEC_PRIV_ATTRIBUTE(SecPriv));
 1482              		.loc 1 372 3 is_stmt 1
 1483 059e 3B68     		ldr	r3, [r7]
 1484 05a0 032B     		cmp	r3, #3
 1485 05a2 04D9     		bls	.L45
 1486              		.loc 1 372 3 is_stmt 0 discriminator 1
 1487 05a4 4FF4BA71 		mov	r1, #372
 1488 05a8 4548     		ldr	r0, .L49+128
 1489 05aa FFF7FEFF 		bl	assert_failed
 1490              	.L45:
 373:STM32Cube_FW_N6/Drivers/STM32N6xx_HAL_Driver/Src/stm32n6xx_hal_rif.c **** 
 374:STM32Cube_FW_N6/Drivers/STM32N6xx_HAL_Driver/Src/stm32n6xx_hal_rif.c ****   sec_reg_val = RIFSC->RISC_SECCFGRx[PeriphId >> RIF_PERIPH_REG_SHIFT];
 1491              		.loc 1 374 22 is_stmt 1
 1492 05ae 454A     		ldr	r2, .L49+132
ARM GAS  /tmp/ccRTEIeG.s 			page 41


 1493              		.loc 1 374 47
 1494 05b0 7B68     		ldr	r3, [r7, #4]
 1495 05b2 1B0F     		lsrs	r3, r3, #28
 1496              		.loc 1 374 37
 1497 05b4 0433     		adds	r3, r3, #4
 1498 05b6 52F82330 		ldr	r3, [r2, r3, lsl #2]
 1499              		.loc 1 374 15
 1500 05ba FB60     		str	r3, [r7, #12]
 375:STM32Cube_FW_N6/Drivers/STM32N6xx_HAL_Driver/Src/stm32n6xx_hal_rif.c ****   sec_reg_val &= (~(1U << (PeriphId & RIF_PERIPH_BIT_POSITION)));
 1501              		.loc 1 375 37
 1502 05bc 7B68     		ldr	r3, [r7, #4]
 1503 05be 03F01F03 		and	r3, r3, #31
 1504              		.loc 1 375 24
 1505 05c2 0122     		movs	r2, #1
 1506 05c4 02FA03F3 		lsl	r3, r2, r3
 1507              		.loc 1 375 19
 1508 05c8 DA43     		mvns	r2, r3
 1509              		.loc 1 375 15
 1510 05ca FB68     		ldr	r3, [r7, #12]
 1511 05cc 1340     		ands	r3, r3, r2
 1512 05ce FB60     		str	r3, [r7, #12]
 376:STM32Cube_FW_N6/Drivers/STM32N6xx_HAL_Driver/Src/stm32n6xx_hal_rif.c ****   sec_reg_val |= ((SecPriv & RIF_ATTRIBUTE_SEC) << (PeriphId & RIF_PERIPH_BIT_POSITION));
 1513              		.loc 1 376 28
 1514 05d0 3B68     		ldr	r3, [r7]
 1515 05d2 03F00102 		and	r2, r3, #1
 1516              		.loc 1 376 62
 1517 05d6 7B68     		ldr	r3, [r7, #4]
 1518 05d8 03F01F03 		and	r3, r3, #31
 1519              		.loc 1 376 49
 1520 05dc 9A40     		lsls	r2, r2, r3
 1521              		.loc 1 376 15
 1522 05de FB68     		ldr	r3, [r7, #12]
 1523 05e0 1343     		orrs	r3, r3, r2
 1524 05e2 FB60     		str	r3, [r7, #12]
 377:STM32Cube_FW_N6/Drivers/STM32N6xx_HAL_Driver/Src/stm32n6xx_hal_rif.c ****   RIFSC->RISC_SECCFGRx[PeriphId >> RIF_PERIPH_REG_SHIFT] = sec_reg_val;
 1525              		.loc 1 377 8
 1526 05e4 3749     		ldr	r1, .L49+132
 1527              		.loc 1 377 33
 1528 05e6 7B68     		ldr	r3, [r7, #4]
 1529 05e8 1B0F     		lsrs	r3, r3, #28
 1530              		.loc 1 377 58
 1531 05ea FA68     		ldr	r2, [r7, #12]
 1532 05ec 0433     		adds	r3, r3, #4
 1533 05ee 41F82320 		str	r2, [r1, r3, lsl #2]
 378:STM32Cube_FW_N6/Drivers/STM32N6xx_HAL_Driver/Src/stm32n6xx_hal_rif.c **** 
 379:STM32Cube_FW_N6/Drivers/STM32N6xx_HAL_Driver/Src/stm32n6xx_hal_rif.c ****   sec_reg_val = RIFSC->RISC_PRIVCFGRx[PeriphId >> RIF_PERIPH_REG_SHIFT];
 1534              		.loc 1 379 22
 1535 05f2 344A     		ldr	r2, .L49+132
 1536              		.loc 1 379 48
 1537 05f4 7B68     		ldr	r3, [r7, #4]
 1538 05f6 1B0F     		lsrs	r3, r3, #28
 1539              		.loc 1 379 38
 1540 05f8 0C33     		adds	r3, r3, #12
 1541 05fa 52F82330 		ldr	r3, [r2, r3, lsl #2]
 1542              		.loc 1 379 15
 1543 05fe FB60     		str	r3, [r7, #12]
 380:STM32Cube_FW_N6/Drivers/STM32N6xx_HAL_Driver/Src/stm32n6xx_hal_rif.c ****   sec_reg_val &= (~(1U << (PeriphId & RIF_PERIPH_BIT_POSITION)));
ARM GAS  /tmp/ccRTEIeG.s 			page 42


 1544              		.loc 1 380 37
 1545 0600 7B68     		ldr	r3, [r7, #4]
 1546 0602 03F01F03 		and	r3, r3, #31
 1547              		.loc 1 380 24
 1548 0606 0122     		movs	r2, #1
 1549 0608 02FA03F3 		lsl	r3, r2, r3
 1550              		.loc 1 380 19
 1551 060c DA43     		mvns	r2, r3
 1552              		.loc 1 380 15
 1553 060e FB68     		ldr	r3, [r7, #12]
 1554 0610 1340     		ands	r3, r3, r2
 1555 0612 FB60     		str	r3, [r7, #12]
 381:STM32Cube_FW_N6/Drivers/STM32N6xx_HAL_Driver/Src/stm32n6xx_hal_rif.c ****   sec_reg_val |= (((SecPriv & RIF_ATTRIBUTE_PRIV) >> 1U) << (PeriphId & RIF_PERIPH_BIT_POSITION));
 1556              		.loc 1 381 51
 1557 0614 3B68     		ldr	r3, [r7]
 1558 0616 5B08     		lsrs	r3, r3, #1
 1559 0618 03F00102 		and	r2, r3, #1
 1560              		.loc 1 381 71
 1561 061c 7B68     		ldr	r3, [r7, #4]
 1562 061e 03F01F03 		and	r3, r3, #31
 1563              		.loc 1 381 58
 1564 0622 9A40     		lsls	r2, r2, r3
 1565              		.loc 1 381 15
 1566 0624 FB68     		ldr	r3, [r7, #12]
 1567 0626 1343     		orrs	r3, r3, r2
 1568 0628 FB60     		str	r3, [r7, #12]
 382:STM32Cube_FW_N6/Drivers/STM32N6xx_HAL_Driver/Src/stm32n6xx_hal_rif.c ****   RIFSC->RISC_PRIVCFGRx[PeriphId >> RIF_PERIPH_REG_SHIFT] = sec_reg_val;
 1569              		.loc 1 382 8
 1570 062a 2649     		ldr	r1, .L49+132
 1571              		.loc 1 382 34
 1572 062c 7B68     		ldr	r3, [r7, #4]
 1573 062e 1B0F     		lsrs	r3, r3, #28
 1574              		.loc 1 382 59
 1575 0630 FA68     		ldr	r2, [r7, #12]
 1576 0632 0C33     		adds	r3, r3, #12
 1577 0634 41F82320 		str	r2, [r1, r3, lsl #2]
 383:STM32Cube_FW_N6/Drivers/STM32N6xx_HAL_Driver/Src/stm32n6xx_hal_rif.c **** }
 1578              		.loc 1 383 1
 1579 0638 00BF     		nop
 1580 063a 1037     		adds	r7, r7, #16
 1581              		.cfi_def_cfa_offset 8
 1582 063c BD46     		mov	sp, r7
 1583              		.cfi_def_cfa_register 13
 1584              		@ sp needed
 1585 063e 80BD     		pop	{r7, pc}
 1586              	.L50:
 1587              		.align	2
 1588              	.L49:
 1589 0640 0C000040 		.word	1073741836
 1590 0644 0D000040 		.word	1073741837
 1591 0648 11000040 		.word	1073741841
 1592 064c 12000040 		.word	1073741842
 1593 0650 13000040 		.word	1073741843
 1594 0654 19000040 		.word	1073741849
 1595 0658 1B000040 		.word	1073741851
 1596 065c 1C000040 		.word	1073741852
 1597 0660 1D000040 		.word	1073741853
ARM GAS  /tmp/ccRTEIeG.s 			page 43


 1598 0664 1F000040 		.word	1073741855
 1599 0668 01000050 		.word	1342177281
 1600 066c 02000050 		.word	1342177282
 1601 0670 03000050 		.word	1342177283
 1602 0674 04000050 		.word	1342177284
 1603 0678 05000050 		.word	1342177285
 1604 067c 06000050 		.word	1342177286
 1605 0680 08000050 		.word	1342177288
 1606 0684 09000050 		.word	1342177289
 1607 0688 0A000050 		.word	1342177290
 1608 068c 0B000050 		.word	1342177291
 1609 0690 0D000050 		.word	1342177293
 1610 0694 0E000050 		.word	1342177294
 1611 0698 0F000050 		.word	1342177295
 1612 069c 11000050 		.word	1342177297
 1613 06a0 12000050 		.word	1342177298
 1614 06a4 13000050 		.word	1342177299
 1615 06a8 14000050 		.word	1342177300
 1616 06ac 16000050 		.word	1342177302
 1617 06b0 17000050 		.word	1342177303
 1618 06b4 18000050 		.word	1342177304
 1619 06b8 1B000050 		.word	1342177307
 1620 06bc 1E000050 		.word	1342177310
 1621 06c0 00000000 		.word	.LC0
 1622 06c4 00400254 		.word	1409433600
 1623              		.cfi_endproc
 1624              	.LFE843:
 1626              		.section	.text.HAL_RIF_RISC_GetSlaveSecureAttributes,"ax",%progbits
 1627              		.align	1
 1628              		.global	HAL_RIF_RISC_GetSlaveSecureAttributes
 1629              		.syntax unified
 1630              		.thumb
 1631              		.thumb_func
 1633              	HAL_RIF_RISC_GetSlaveSecureAttributes:
 1634              	.LFB844:
 384:STM32Cube_FW_N6/Drivers/STM32N6xx_HAL_Driver/Src/stm32n6xx_hal_rif.c **** 
 385:STM32Cube_FW_N6/Drivers/STM32N6xx_HAL_Driver/Src/stm32n6xx_hal_rif.c **** /**
 386:STM32Cube_FW_N6/Drivers/STM32N6xx_HAL_Driver/Src/stm32n6xx_hal_rif.c ****   * @brief  Get the Security and Privilege configuration of a designated slave peripheral.
 387:STM32Cube_FW_N6/Drivers/STM32N6xx_HAL_Driver/Src/stm32n6xx_hal_rif.c ****   * @param  PeriphId specifies the index of the bus slave.
 388:STM32Cube_FW_N6/Drivers/STM32N6xx_HAL_Driver/Src/stm32n6xx_hal_rif.c ****   *         This parameter can be one of @ref RIF_PERIPHERAL_INDEX
 389:STM32Cube_FW_N6/Drivers/STM32N6xx_HAL_Driver/Src/stm32n6xx_hal_rif.c ****   *         bits[31:28] define the register index a peripheral belongs to, value from 0 to 5
 390:STM32Cube_FW_N6/Drivers/STM32N6xx_HAL_Driver/Src/stm32n6xx_hal_rif.c ****   *         bits[4:0]   define the bit position within the register, value from 0 to 31
 391:STM32Cube_FW_N6/Drivers/STM32N6xx_HAL_Driver/Src/stm32n6xx_hal_rif.c ****   * @retval can be a combination of @ref RIF_SEC_PRIV
 392:STM32Cube_FW_N6/Drivers/STM32N6xx_HAL_Driver/Src/stm32n6xx_hal_rif.c ****   */
 393:STM32Cube_FW_N6/Drivers/STM32N6xx_HAL_Driver/Src/stm32n6xx_hal_rif.c **** uint32_t HAL_RIF_RISC_GetSlaveSecureAttributes(uint32_t PeriphId)
 394:STM32Cube_FW_N6/Drivers/STM32N6xx_HAL_Driver/Src/stm32n6xx_hal_rif.c **** {
 1635              		.loc 1 394 1
 1636              		.cfi_startproc
 1637              		@ args = 0, pretend = 0, frame = 16
 1638              		@ frame_needed = 1, uses_anonymous_args = 0
 1639 0000 80B5     		push	{r7, lr}
 1640              		.cfi_def_cfa_offset 8
 1641              		.cfi_offset 7, -8
 1642              		.cfi_offset 14, -4
 1643 0002 84B0     		sub	sp, sp, #16
 1644              		.cfi_def_cfa_offset 24
 1645 0004 00AF     		add	r7, sp, #0
ARM GAS  /tmp/ccRTEIeG.s 			page 44


 1646              		.cfi_def_cfa_register 7
 1647 0006 7860     		str	r0, [r7, #4]
 395:STM32Cube_FW_N6/Drivers/STM32N6xx_HAL_Driver/Src/stm32n6xx_hal_rif.c ****   uint32_t sec_attr;
 396:STM32Cube_FW_N6/Drivers/STM32N6xx_HAL_Driver/Src/stm32n6xx_hal_rif.c ****   const __IO uint32_t *p_sec_reg;
 397:STM32Cube_FW_N6/Drivers/STM32N6xx_HAL_Driver/Src/stm32n6xx_hal_rif.c **** 
 398:STM32Cube_FW_N6/Drivers/STM32N6xx_HAL_Driver/Src/stm32n6xx_hal_rif.c ****   assert_param(IS_RIF_RISC_PERIPH_INDEX(PeriphId) || IS_RIF_RCC_PERIPH_INDEX(PeriphId));
 1648              		.loc 1 398 3
 1649 0008 7B68     		ldr	r3, [r7, #4]
 1650 000a 002B     		cmp	r3, #0
 1651 000c 00F0C582 		beq	.L52
 1652              		.loc 1 398 3 is_stmt 0 discriminator 1
 1653 0010 7B68     		ldr	r3, [r7, #4]
 1654 0012 012B     		cmp	r3, #1
 1655 0014 00F0C182 		beq	.L52
 1656              		.loc 1 398 3 discriminator 2
 1657 0018 7B68     		ldr	r3, [r7, #4]
 1658 001a 022B     		cmp	r3, #2
 1659 001c 00F0BD82 		beq	.L52
 1660              		.loc 1 398 3 discriminator 3
 1661 0020 7B68     		ldr	r3, [r7, #4]
 1662 0022 032B     		cmp	r3, #3
 1663 0024 00F0B982 		beq	.L52
 1664              		.loc 1 398 3 discriminator 4
 1665 0028 7B68     		ldr	r3, [r7, #4]
 1666 002a 042B     		cmp	r3, #4
 1667 002c 00F0B582 		beq	.L52
 1668              		.loc 1 398 3 discriminator 5
 1669 0030 7B68     		ldr	r3, [r7, #4]
 1670 0032 052B     		cmp	r3, #5
 1671 0034 00F0B182 		beq	.L52
 1672              		.loc 1 398 3 discriminator 6
 1673 0038 7B68     		ldr	r3, [r7, #4]
 1674 003a 062B     		cmp	r3, #6
 1675 003c 00F0AD82 		beq	.L52
 1676              		.loc 1 398 3 discriminator 7
 1677 0040 7B68     		ldr	r3, [r7, #4]
 1678 0042 082B     		cmp	r3, #8
 1679 0044 00F0A982 		beq	.L52
 1680              		.loc 1 398 3 discriminator 8
 1681 0048 7B68     		ldr	r3, [r7, #4]
 1682 004a 092B     		cmp	r3, #9
 1683 004c 00F0A582 		beq	.L52
 1684              		.loc 1 398 3 discriminator 9
 1685 0050 7B68     		ldr	r3, [r7, #4]
 1686 0052 0A2B     		cmp	r3, #10
 1687 0054 00F0A182 		beq	.L52
 1688              		.loc 1 398 3 discriminator 10
 1689 0058 7B68     		ldr	r3, [r7, #4]
 1690 005a 0B2B     		cmp	r3, #11
 1691 005c 00F09D82 		beq	.L52
 1692              		.loc 1 398 3 discriminator 11
 1693 0060 7B68     		ldr	r3, [r7, #4]
 1694 0062 0C2B     		cmp	r3, #12
 1695 0064 00F09982 		beq	.L52
 1696              		.loc 1 398 3 discriminator 12
 1697 0068 7B68     		ldr	r3, [r7, #4]
 1698 006a 0D2B     		cmp	r3, #13
ARM GAS  /tmp/ccRTEIeG.s 			page 45


 1699 006c 00F09582 		beq	.L52
 1700              		.loc 1 398 3 discriminator 13
 1701 0070 7B68     		ldr	r3, [r7, #4]
 1702 0072 0E2B     		cmp	r3, #14
 1703 0074 00F09182 		beq	.L52
 1704              		.loc 1 398 3 discriminator 14
 1705 0078 7B68     		ldr	r3, [r7, #4]
 1706 007a 0F2B     		cmp	r3, #15
 1707 007c 00F08D82 		beq	.L52
 1708              		.loc 1 398 3 discriminator 15
 1709 0080 7B68     		ldr	r3, [r7, #4]
 1710 0082 102B     		cmp	r3, #16
 1711 0084 00F08982 		beq	.L52
 1712              		.loc 1 398 3 discriminator 16
 1713 0088 7B68     		ldr	r3, [r7, #4]
 1714 008a 112B     		cmp	r3, #17
 1715 008c 00F08582 		beq	.L52
 1716              		.loc 1 398 3 discriminator 17
 1717 0090 7B68     		ldr	r3, [r7, #4]
 1718 0092 122B     		cmp	r3, #18
 1719 0094 00F08182 		beq	.L52
 1720              		.loc 1 398 3 discriminator 18
 1721 0098 7B68     		ldr	r3, [r7, #4]
 1722 009a 132B     		cmp	r3, #19
 1723 009c 00F07D82 		beq	.L52
 1724              		.loc 1 398 3 discriminator 19
 1725 00a0 7B68     		ldr	r3, [r7, #4]
 1726 00a2 142B     		cmp	r3, #20
 1727 00a4 00F07982 		beq	.L52
 1728              		.loc 1 398 3 discriminator 20
 1729 00a8 7B68     		ldr	r3, [r7, #4]
 1730 00aa 152B     		cmp	r3, #21
 1731 00ac 00F07582 		beq	.L52
 1732              		.loc 1 398 3 discriminator 21
 1733 00b0 7B68     		ldr	r3, [r7, #4]
 1734 00b2 162B     		cmp	r3, #22
 1735 00b4 00F07182 		beq	.L52
 1736              		.loc 1 398 3 discriminator 22
 1737 00b8 7B68     		ldr	r3, [r7, #4]
 1738 00ba 172B     		cmp	r3, #23
 1739 00bc 00F06D82 		beq	.L52
 1740              		.loc 1 398 3 discriminator 23
 1741 00c0 7B68     		ldr	r3, [r7, #4]
 1742 00c2 182B     		cmp	r3, #24
 1743 00c4 00F06982 		beq	.L52
 1744              		.loc 1 398 3 discriminator 24
 1745 00c8 7B68     		ldr	r3, [r7, #4]
 1746 00ca 192B     		cmp	r3, #25
 1747 00cc 00F06582 		beq	.L52
 1748              		.loc 1 398 3 discriminator 25
 1749 00d0 7B68     		ldr	r3, [r7, #4]
 1750 00d2 1A2B     		cmp	r3, #26
 1751 00d4 00F06182 		beq	.L52
 1752              		.loc 1 398 3 discriminator 26
 1753 00d8 7B68     		ldr	r3, [r7, #4]
 1754 00da 1B2B     		cmp	r3, #27
 1755 00dc 00F05D82 		beq	.L52
ARM GAS  /tmp/ccRTEIeG.s 			page 46


 1756              		.loc 1 398 3 discriminator 27
 1757 00e0 7B68     		ldr	r3, [r7, #4]
 1758 00e2 1C2B     		cmp	r3, #28
 1759 00e4 00F05982 		beq	.L52
 1760              		.loc 1 398 3 discriminator 28
 1761 00e8 7B68     		ldr	r3, [r7, #4]
 1762 00ea 1D2B     		cmp	r3, #29
 1763 00ec 00F05582 		beq	.L52
 1764              		.loc 1 398 3 discriminator 29
 1765 00f0 7B68     		ldr	r3, [r7, #4]
 1766 00f2 1E2B     		cmp	r3, #30
 1767 00f4 00F05182 		beq	.L52
 1768              		.loc 1 398 3 discriminator 30
 1769 00f8 7B68     		ldr	r3, [r7, #4]
 1770 00fa 1F2B     		cmp	r3, #31
 1771 00fc 00F04D82 		beq	.L52
 1772              		.loc 1 398 3 discriminator 31
 1773 0100 7B68     		ldr	r3, [r7, #4]
 1774 0102 B3F1805F 		cmp	r3, #268435456
 1775 0106 00F04882 		beq	.L52
 1776              		.loc 1 398 3 discriminator 32
 1777 010a 7B68     		ldr	r3, [r7, #4]
 1778 010c 9F4A     		ldr	r2, .L54
 1779 010e 9342     		cmp	r3, r2
 1780 0110 00F04382 		beq	.L52
 1781              		.loc 1 398 3 discriminator 33
 1782 0114 7B68     		ldr	r3, [r7, #4]
 1783 0116 9E4A     		ldr	r2, .L54+4
 1784 0118 9342     		cmp	r3, r2
 1785 011a 00F03E82 		beq	.L52
 1786              		.loc 1 398 3 discriminator 34
 1787 011e 7B68     		ldr	r3, [r7, #4]
 1788 0120 9C4A     		ldr	r2, .L54+8
 1789 0122 9342     		cmp	r3, r2
 1790 0124 00F03982 		beq	.L52
 1791              		.loc 1 398 3 discriminator 35
 1792 0128 7B68     		ldr	r3, [r7, #4]
 1793 012a 9B4A     		ldr	r2, .L54+12
 1794 012c 9342     		cmp	r3, r2
 1795 012e 00F03482 		beq	.L52
 1796              		.loc 1 398 3 discriminator 36
 1797 0132 7B68     		ldr	r3, [r7, #4]
 1798 0134 994A     		ldr	r2, .L54+16
 1799 0136 9342     		cmp	r3, r2
 1800 0138 00F02F82 		beq	.L52
 1801              		.loc 1 398 3 discriminator 37
 1802 013c 7B68     		ldr	r3, [r7, #4]
 1803 013e 984A     		ldr	r2, .L54+20
 1804 0140 9342     		cmp	r3, r2
 1805 0142 00F02A82 		beq	.L52
 1806              		.loc 1 398 3 discriminator 38
 1807 0146 7B68     		ldr	r3, [r7, #4]
 1808 0148 964A     		ldr	r2, .L54+24
 1809 014a 9342     		cmp	r3, r2
 1810 014c 00F02582 		beq	.L52
 1811              		.loc 1 398 3 discriminator 39
 1812 0150 7B68     		ldr	r3, [r7, #4]
ARM GAS  /tmp/ccRTEIeG.s 			page 47


 1813 0152 954A     		ldr	r2, .L54+28
 1814 0154 9342     		cmp	r3, r2
 1815 0156 00F02082 		beq	.L52
 1816              		.loc 1 398 3 discriminator 40
 1817 015a 7B68     		ldr	r3, [r7, #4]
 1818 015c 934A     		ldr	r2, .L54+32
 1819 015e 9342     		cmp	r3, r2
 1820 0160 00F01B82 		beq	.L52
 1821              		.loc 1 398 3 discriminator 41
 1822 0164 7B68     		ldr	r3, [r7, #4]
 1823 0166 924A     		ldr	r2, .L54+36
 1824 0168 9342     		cmp	r3, r2
 1825 016a 00F01682 		beq	.L52
 1826              		.loc 1 398 3 discriminator 42
 1827 016e 7B68     		ldr	r3, [r7, #4]
 1828 0170 904A     		ldr	r2, .L54+40
 1829 0172 9342     		cmp	r3, r2
 1830 0174 00F01182 		beq	.L52
 1831              		.loc 1 398 3 discriminator 43
 1832 0178 7B68     		ldr	r3, [r7, #4]
 1833 017a 8F4A     		ldr	r2, .L54+44
 1834 017c 9342     		cmp	r3, r2
 1835 017e 00F00C82 		beq	.L52
 1836              		.loc 1 398 3 discriminator 44
 1837 0182 7B68     		ldr	r3, [r7, #4]
 1838 0184 8D4A     		ldr	r2, .L54+48
 1839 0186 9342     		cmp	r3, r2
 1840 0188 00F00782 		beq	.L52
 1841              		.loc 1 398 3 discriminator 45
 1842 018c 7B68     		ldr	r3, [r7, #4]
 1843 018e 8C4A     		ldr	r2, .L54+52
 1844 0190 9342     		cmp	r3, r2
 1845 0192 00F00282 		beq	.L52
 1846              		.loc 1 398 3 discriminator 46
 1847 0196 7B68     		ldr	r3, [r7, #4]
 1848 0198 8A4A     		ldr	r2, .L54+56
 1849 019a 9342     		cmp	r3, r2
 1850 019c 00F0FD81 		beq	.L52
 1851              		.loc 1 398 3 discriminator 47
 1852 01a0 7B68     		ldr	r3, [r7, #4]
 1853 01a2 894A     		ldr	r2, .L54+60
 1854 01a4 9342     		cmp	r3, r2
 1855 01a6 00F0F881 		beq	.L52
 1856              		.loc 1 398 3 discriminator 48
 1857 01aa 7B68     		ldr	r3, [r7, #4]
 1858 01ac 874A     		ldr	r2, .L54+64
 1859 01ae 9342     		cmp	r3, r2
 1860 01b0 00F0F381 		beq	.L52
 1861              		.loc 1 398 3 discriminator 49
 1862 01b4 7B68     		ldr	r3, [r7, #4]
 1863 01b6 864A     		ldr	r2, .L54+68
 1864 01b8 9342     		cmp	r3, r2
 1865 01ba 00F0EE81 		beq	.L52
 1866              		.loc 1 398 3 discriminator 50
 1867 01be 7B68     		ldr	r3, [r7, #4]
 1868 01c0 844A     		ldr	r2, .L54+72
 1869 01c2 9342     		cmp	r3, r2
ARM GAS  /tmp/ccRTEIeG.s 			page 48


 1870 01c4 00F0E981 		beq	.L52
 1871              		.loc 1 398 3 discriminator 51
 1872 01c8 7B68     		ldr	r3, [r7, #4]
 1873 01ca 834A     		ldr	r2, .L54+76
 1874 01cc 9342     		cmp	r3, r2
 1875 01ce 00F0E481 		beq	.L52
 1876              		.loc 1 398 3 discriminator 52
 1877 01d2 7B68     		ldr	r3, [r7, #4]
 1878 01d4 814A     		ldr	r2, .L54+80
 1879 01d6 9342     		cmp	r3, r2
 1880 01d8 00F0DF81 		beq	.L52
 1881              		.loc 1 398 3 discriminator 53
 1882 01dc 7B68     		ldr	r3, [r7, #4]
 1883 01de 804A     		ldr	r2, .L54+84
 1884 01e0 9342     		cmp	r3, r2
 1885 01e2 00F0DA81 		beq	.L52
 1886              		.loc 1 398 3 discriminator 54
 1887 01e6 7B68     		ldr	r3, [r7, #4]
 1888 01e8 7E4A     		ldr	r2, .L54+88
 1889 01ea 9342     		cmp	r3, r2
 1890 01ec 00F0D581 		beq	.L52
 1891              		.loc 1 398 3 discriminator 55
 1892 01f0 7B68     		ldr	r3, [r7, #4]
 1893 01f2 7D4A     		ldr	r2, .L54+92
 1894 01f4 9342     		cmp	r3, r2
 1895 01f6 00F0D081 		beq	.L52
 1896              		.loc 1 398 3 discriminator 56
 1897 01fa 7B68     		ldr	r3, [r7, #4]
 1898 01fc 7B4A     		ldr	r2, .L54+96
 1899 01fe 9342     		cmp	r3, r2
 1900 0200 00F0CB81 		beq	.L52
 1901              		.loc 1 398 3 discriminator 57
 1902 0204 7B68     		ldr	r3, [r7, #4]
 1903 0206 7A4A     		ldr	r2, .L54+100
 1904 0208 9342     		cmp	r3, r2
 1905 020a 00F0C681 		beq	.L52
 1906              		.loc 1 398 3 discriminator 58
 1907 020e 7B68     		ldr	r3, [r7, #4]
 1908 0210 784A     		ldr	r2, .L54+104
 1909 0212 9342     		cmp	r3, r2
 1910 0214 00F0C181 		beq	.L52
 1911              		.loc 1 398 3 discriminator 59
 1912 0218 7B68     		ldr	r3, [r7, #4]
 1913 021a 774A     		ldr	r2, .L54+108
 1914 021c 9342     		cmp	r3, r2
 1915 021e 00F0BC81 		beq	.L52
 1916              		.loc 1 398 3 discriminator 60
 1917 0222 7B68     		ldr	r3, [r7, #4]
 1918 0224 754A     		ldr	r2, .L54+112
 1919 0226 9342     		cmp	r3, r2
 1920 0228 00F0B781 		beq	.L52
 1921              		.loc 1 398 3 discriminator 61
 1922 022c 7B68     		ldr	r3, [r7, #4]
 1923 022e B3F1005F 		cmp	r3, #536870912
 1924 0232 00F0B281 		beq	.L52
 1925              		.loc 1 398 3 discriminator 62
 1926 0236 7B68     		ldr	r3, [r7, #4]
ARM GAS  /tmp/ccRTEIeG.s 			page 49


 1927 0238 714A     		ldr	r2, .L54+116
 1928 023a 9342     		cmp	r3, r2
 1929 023c 00F0AD81 		beq	.L52
 1930              		.loc 1 398 3 discriminator 63
 1931 0240 7B68     		ldr	r3, [r7, #4]
 1932 0242 704A     		ldr	r2, .L54+120
 1933 0244 9342     		cmp	r3, r2
 1934 0246 00F0A881 		beq	.L52
 1935              		.loc 1 398 3 discriminator 64
 1936 024a 7B68     		ldr	r3, [r7, #4]
 1937 024c 6E4A     		ldr	r2, .L54+124
 1938 024e 9342     		cmp	r3, r2
 1939 0250 00F0A381 		beq	.L52
 1940              		.loc 1 398 3 discriminator 65
 1941 0254 7B68     		ldr	r3, [r7, #4]
 1942 0256 6D4A     		ldr	r2, .L54+128
 1943 0258 9342     		cmp	r3, r2
 1944 025a 00F09E81 		beq	.L52
 1945              		.loc 1 398 3 discriminator 66
 1946 025e 7B68     		ldr	r3, [r7, #4]
 1947 0260 6B4A     		ldr	r2, .L54+132
 1948 0262 9342     		cmp	r3, r2
 1949 0264 00F09981 		beq	.L52
 1950              		.loc 1 398 3 discriminator 67
 1951 0268 7B68     		ldr	r3, [r7, #4]
 1952 026a 6A4A     		ldr	r2, .L54+136
 1953 026c 9342     		cmp	r3, r2
 1954 026e 00F09481 		beq	.L52
 1955              		.loc 1 398 3 discriminator 68
 1956 0272 7B68     		ldr	r3, [r7, #4]
 1957 0274 684A     		ldr	r2, .L54+140
 1958 0276 9342     		cmp	r3, r2
 1959 0278 00F08F81 		beq	.L52
 1960              		.loc 1 398 3 discriminator 69
 1961 027c 7B68     		ldr	r3, [r7, #4]
 1962 027e 674A     		ldr	r2, .L54+144
 1963 0280 9342     		cmp	r3, r2
 1964 0282 00F08A81 		beq	.L52
 1965              		.loc 1 398 3 discriminator 70
 1966 0286 7B68     		ldr	r3, [r7, #4]
 1967 0288 654A     		ldr	r2, .L54+148
 1968 028a 9342     		cmp	r3, r2
 1969 028c 00F08581 		beq	.L52
 1970              		.loc 1 398 3 discriminator 71
 1971 0290 7B68     		ldr	r3, [r7, #4]
 1972 0292 644A     		ldr	r2, .L54+152
 1973 0294 9342     		cmp	r3, r2
 1974 0296 00F08081 		beq	.L52
 1975              		.loc 1 398 3 discriminator 72
 1976 029a 7B68     		ldr	r3, [r7, #4]
 1977 029c 624A     		ldr	r2, .L54+156
 1978 029e 9342     		cmp	r3, r2
 1979 02a0 00F07B81 		beq	.L52
 1980              		.loc 1 398 3 discriminator 73
 1981 02a4 7B68     		ldr	r3, [r7, #4]
 1982 02a6 614A     		ldr	r2, .L54+160
 1983 02a8 9342     		cmp	r3, r2
ARM GAS  /tmp/ccRTEIeG.s 			page 50


 1984 02aa 00F07681 		beq	.L52
 1985              		.loc 1 398 3 discriminator 74
 1986 02ae 7B68     		ldr	r3, [r7, #4]
 1987 02b0 5F4A     		ldr	r2, .L54+164
 1988 02b2 9342     		cmp	r3, r2
 1989 02b4 00F07181 		beq	.L52
 1990              		.loc 1 398 3 discriminator 75
 1991 02b8 7B68     		ldr	r3, [r7, #4]
 1992 02ba 5E4A     		ldr	r2, .L54+168
 1993 02bc 9342     		cmp	r3, r2
 1994 02be 00F06C81 		beq	.L52
 1995              		.loc 1 398 3 discriminator 76
 1996 02c2 7B68     		ldr	r3, [r7, #4]
 1997 02c4 5C4A     		ldr	r2, .L54+172
 1998 02c6 9342     		cmp	r3, r2
 1999 02c8 00F06781 		beq	.L52
 2000              		.loc 1 398 3 discriminator 77
 2001 02cc 7B68     		ldr	r3, [r7, #4]
 2002 02ce 5B4A     		ldr	r2, .L54+176
 2003 02d0 9342     		cmp	r3, r2
 2004 02d2 00F06281 		beq	.L52
 2005              		.loc 1 398 3 discriminator 78
 2006 02d6 7B68     		ldr	r3, [r7, #4]
 2007 02d8 594A     		ldr	r2, .L54+180
 2008 02da 9342     		cmp	r3, r2
 2009 02dc 00F05D81 		beq	.L52
 2010              		.loc 1 398 3 discriminator 79
 2011 02e0 7B68     		ldr	r3, [r7, #4]
 2012 02e2 584A     		ldr	r2, .L54+184
 2013 02e4 9342     		cmp	r3, r2
 2014 02e6 00F05881 		beq	.L52
 2015              		.loc 1 398 3 discriminator 80
 2016 02ea 7B68     		ldr	r3, [r7, #4]
 2017 02ec 564A     		ldr	r2, .L54+188
 2018 02ee 9342     		cmp	r3, r2
 2019 02f0 00F05381 		beq	.L52
 2020              		.loc 1 398 3 discriminator 81
 2021 02f4 7B68     		ldr	r3, [r7, #4]
 2022 02f6 554A     		ldr	r2, .L54+192
 2023 02f8 9342     		cmp	r3, r2
 2024 02fa 00F04E81 		beq	.L52
 2025              		.loc 1 398 3 discriminator 82
 2026 02fe 7B68     		ldr	r3, [r7, #4]
 2027 0300 534A     		ldr	r2, .L54+196
 2028 0302 9342     		cmp	r3, r2
 2029 0304 00F04981 		beq	.L52
 2030              		.loc 1 398 3 discriminator 83
 2031 0308 7B68     		ldr	r3, [r7, #4]
 2032 030a B3F1405F 		cmp	r3, #805306368
 2033 030e 00F04481 		beq	.L52
 2034              		.loc 1 398 3 discriminator 84
 2035 0312 7B68     		ldr	r3, [r7, #4]
 2036 0314 4F4A     		ldr	r2, .L54+200
 2037 0316 9342     		cmp	r3, r2
 2038 0318 00F03F81 		beq	.L52
 2039              		.loc 1 398 3 discriminator 85
 2040 031c 7B68     		ldr	r3, [r7, #4]
ARM GAS  /tmp/ccRTEIeG.s 			page 51


 2041 031e 4E4A     		ldr	r2, .L54+204
 2042 0320 9342     		cmp	r3, r2
 2043 0322 00F03A81 		beq	.L52
 2044              		.loc 1 398 3 discriminator 86
 2045 0326 7B68     		ldr	r3, [r7, #4]
 2046 0328 4C4A     		ldr	r2, .L54+208
 2047 032a 9342     		cmp	r3, r2
 2048 032c 00F03581 		beq	.L52
 2049              		.loc 1 398 3 discriminator 87
 2050 0330 7B68     		ldr	r3, [r7, #4]
 2051 0332 4B4A     		ldr	r2, .L54+212
 2052 0334 9342     		cmp	r3, r2
 2053 0336 00F03081 		beq	.L52
 2054              		.loc 1 398 3 discriminator 88
 2055 033a 7B68     		ldr	r3, [r7, #4]
 2056 033c 494A     		ldr	r2, .L54+216
 2057 033e 9342     		cmp	r3, r2
 2058 0340 00F02B81 		beq	.L52
 2059              		.loc 1 398 3 discriminator 89
 2060 0344 7B68     		ldr	r3, [r7, #4]
 2061 0346 484A     		ldr	r2, .L54+220
 2062 0348 9342     		cmp	r3, r2
 2063 034a 00F02681 		beq	.L52
 2064              		.loc 1 398 3 discriminator 90
 2065 034e 7B68     		ldr	r3, [r7, #4]
 2066 0350 464A     		ldr	r2, .L54+224
 2067 0352 9342     		cmp	r3, r2
 2068 0354 00F02181 		beq	.L52
 2069              		.loc 1 398 3 discriminator 91
 2070 0358 7B68     		ldr	r3, [r7, #4]
 2071 035a 454A     		ldr	r2, .L54+228
 2072 035c 9342     		cmp	r3, r2
 2073 035e 00F01C81 		beq	.L52
 2074              		.loc 1 398 3 discriminator 92
 2075 0362 7B68     		ldr	r3, [r7, #4]
 2076 0364 434A     		ldr	r2, .L54+232
 2077 0366 9342     		cmp	r3, r2
 2078 0368 00F01781 		beq	.L52
 2079              		.loc 1 398 3 discriminator 93
 2080 036c 7B68     		ldr	r3, [r7, #4]
 2081 036e 424A     		ldr	r2, .L54+236
 2082 0370 9342     		cmp	r3, r2
 2083 0372 00F01281 		beq	.L52
 2084              		.loc 1 398 3 discriminator 94
 2085 0376 7B68     		ldr	r3, [r7, #4]
 2086 0378 404A     		ldr	r2, .L54+240
 2087 037a 9342     		cmp	r3, r2
 2088 037c 00F00D81 		beq	.L52
 2089              		.loc 1 398 3 discriminator 95
 2090 0380 7B68     		ldr	r3, [r7, #4]
 2091 0382 3F4A     		ldr	r2, .L54+244
 2092 0384 9342     		cmp	r3, r2
 2093 0386 00F00881 		beq	.L52
 2094 038a 7BE0     		b	.L55
 2095              	.L56:
 2096              		.align	2
 2097              	.L54:
ARM GAS  /tmp/ccRTEIeG.s 			page 52


 2098 038c 01000010 		.word	268435457
 2099 0390 02000010 		.word	268435458
 2100 0394 03000010 		.word	268435459
 2101 0398 04000010 		.word	268435460
 2102 039c 05000010 		.word	268435461
 2103 03a0 06000010 		.word	268435462
 2104 03a4 07000010 		.word	268435463
 2105 03a8 08000010 		.word	268435464
 2106 03ac 09000010 		.word	268435465
 2107 03b0 0A000010 		.word	268435466
 2108 03b4 0B000010 		.word	268435467
 2109 03b8 0C000010 		.word	268435468
 2110 03bc 0D000010 		.word	268435469
 2111 03c0 0E000010 		.word	268435470
 2112 03c4 0F000010 		.word	268435471
 2113 03c8 10000010 		.word	268435472
 2114 03cc 11000010 		.word	268435473
 2115 03d0 12000010 		.word	268435474
 2116 03d4 13000010 		.word	268435475
 2117 03d8 14000010 		.word	268435476
 2118 03dc 15000010 		.word	268435477
 2119 03e0 16000010 		.word	268435478
 2120 03e4 17000010 		.word	268435479
 2121 03e8 18000010 		.word	268435480
 2122 03ec 19000010 		.word	268435481
 2123 03f0 1A000010 		.word	268435482
 2124 03f4 1C000010 		.word	268435484
 2125 03f8 1D000010 		.word	268435485
 2126 03fc 1E000010 		.word	268435486
 2127 0400 01000020 		.word	536870913
 2128 0404 03000020 		.word	536870915
 2129 0408 04000020 		.word	536870916
 2130 040c 05000020 		.word	536870917
 2131 0410 0C000020 		.word	536870924
 2132 0414 0D000020 		.word	536870925
 2133 0418 0E000020 		.word	536870926
 2134 041c 0F000020 		.word	536870927
 2135 0420 10000020 		.word	536870928
 2136 0424 11000020 		.word	536870929
 2137 0428 12000020 		.word	536870930
 2138 042c 13000020 		.word	536870931
 2139 0430 14000020 		.word	536870932
 2140 0434 16000020 		.word	536870934
 2141 0438 17000020 		.word	536870935
 2142 043c 18000020 		.word	536870936
 2143 0440 19000020 		.word	536870937
 2144 0444 1A000020 		.word	536870938
 2145 0448 1C000020 		.word	536870940
 2146 044c 1D000020 		.word	536870941
 2147 0450 1E000020 		.word	536870942
 2148 0454 01000030 		.word	805306369
 2149 0458 02000030 		.word	805306370
 2150 045c 03000030 		.word	805306371
 2151 0460 04000030 		.word	805306372
 2152 0464 05000030 		.word	805306373
 2153 0468 06000030 		.word	805306374
 2154 046c 07000030 		.word	805306375
ARM GAS  /tmp/ccRTEIeG.s 			page 53


 2155 0470 08000030 		.word	805306376
 2156 0474 0A000030 		.word	805306378
 2157 0478 02000040 		.word	1073741826
 2158 047c 03000040 		.word	1073741827
 2159 0480 05000040 		.word	1073741829
 2160              	.L55:
 2161              		.loc 1 398 3 discriminator 96
 2162 0484 7B68     		ldr	r3, [r7, #4]
 2163 0486 5E4A     		ldr	r2, .L57
 2164 0488 9342     		cmp	r3, r2
 2165 048a 00F08680 		beq	.L52
 2166              		.loc 1 398 3 discriminator 97
 2167 048e 7B68     		ldr	r3, [r7, #4]
 2168 0490 5C4A     		ldr	r2, .L57+4
 2169 0492 9342     		cmp	r3, r2
 2170 0494 00F08180 		beq	.L52
 2171              		.loc 1 398 3 discriminator 98
 2172 0498 7B68     		ldr	r3, [r7, #4]
 2173 049a 5B4A     		ldr	r2, .L57+8
 2174 049c 9342     		cmp	r3, r2
 2175 049e 7CD0     		beq	.L52
 2176              		.loc 1 398 3 discriminator 99
 2177 04a0 7B68     		ldr	r3, [r7, #4]
 2178 04a2 5A4A     		ldr	r2, .L57+12
 2179 04a4 9342     		cmp	r3, r2
 2180 04a6 78D0     		beq	.L52
 2181              		.loc 1 398 3 discriminator 100
 2182 04a8 7B68     		ldr	r3, [r7, #4]
 2183 04aa 594A     		ldr	r2, .L57+16
 2184 04ac 9342     		cmp	r3, r2
 2185 04ae 74D0     		beq	.L52
 2186              		.loc 1 398 3 discriminator 101
 2187 04b0 7B68     		ldr	r3, [r7, #4]
 2188 04b2 584A     		ldr	r2, .L57+20
 2189 04b4 9342     		cmp	r3, r2
 2190 04b6 70D0     		beq	.L52
 2191              		.loc 1 398 3 discriminator 102
 2192 04b8 7B68     		ldr	r3, [r7, #4]
 2193 04ba 574A     		ldr	r2, .L57+24
 2194 04bc 9342     		cmp	r3, r2
 2195 04be 6CD0     		beq	.L52
 2196              		.loc 1 398 3 discriminator 103
 2197 04c0 7B68     		ldr	r3, [r7, #4]
 2198 04c2 564A     		ldr	r2, .L57+28
 2199 04c4 9342     		cmp	r3, r2
 2200 04c6 68D0     		beq	.L52
 2201              		.loc 1 398 3 discriminator 104
 2202 04c8 7B68     		ldr	r3, [r7, #4]
 2203 04ca 554A     		ldr	r2, .L57+32
 2204 04cc 9342     		cmp	r3, r2
 2205 04ce 64D0     		beq	.L52
 2206              		.loc 1 398 3 discriminator 105
 2207 04d0 7B68     		ldr	r3, [r7, #4]
 2208 04d2 544A     		ldr	r2, .L57+36
 2209 04d4 9342     		cmp	r3, r2
 2210 04d6 60D0     		beq	.L52
 2211              		.loc 1 398 3 discriminator 106
ARM GAS  /tmp/ccRTEIeG.s 			page 54


 2212 04d8 7B68     		ldr	r3, [r7, #4]
 2213 04da B3F1A04F 		cmp	r3, #1342177280
 2214 04de 5CD0     		beq	.L52
 2215              		.loc 1 398 3 discriminator 107
 2216 04e0 7B68     		ldr	r3, [r7, #4]
 2217 04e2 514A     		ldr	r2, .L57+40
 2218 04e4 9342     		cmp	r3, r2
 2219 04e6 58D0     		beq	.L52
 2220              		.loc 1 398 3 discriminator 108
 2221 04e8 7B68     		ldr	r3, [r7, #4]
 2222 04ea 504A     		ldr	r2, .L57+44
 2223 04ec 9342     		cmp	r3, r2
 2224 04ee 54D0     		beq	.L52
 2225              		.loc 1 398 3 discriminator 109
 2226 04f0 7B68     		ldr	r3, [r7, #4]
 2227 04f2 4F4A     		ldr	r2, .L57+48
 2228 04f4 9342     		cmp	r3, r2
 2229 04f6 50D0     		beq	.L52
 2230              		.loc 1 398 3 discriminator 110
 2231 04f8 7B68     		ldr	r3, [r7, #4]
 2232 04fa 4E4A     		ldr	r2, .L57+52
 2233 04fc 9342     		cmp	r3, r2
 2234 04fe 4CD0     		beq	.L52
 2235              		.loc 1 398 3 discriminator 111
 2236 0500 7B68     		ldr	r3, [r7, #4]
 2237 0502 4D4A     		ldr	r2, .L57+56
 2238 0504 9342     		cmp	r3, r2
 2239 0506 48D0     		beq	.L52
 2240              		.loc 1 398 3 discriminator 112
 2241 0508 7B68     		ldr	r3, [r7, #4]
 2242 050a 4C4A     		ldr	r2, .L57+60
 2243 050c 9342     		cmp	r3, r2
 2244 050e 44D0     		beq	.L52
 2245              		.loc 1 398 3 discriminator 113
 2246 0510 7B68     		ldr	r3, [r7, #4]
 2247 0512 4B4A     		ldr	r2, .L57+64
 2248 0514 9342     		cmp	r3, r2
 2249 0516 40D0     		beq	.L52
 2250              		.loc 1 398 3 discriminator 114
 2251 0518 7B68     		ldr	r3, [r7, #4]
 2252 051a 4A4A     		ldr	r2, .L57+68
 2253 051c 9342     		cmp	r3, r2
 2254 051e 3CD0     		beq	.L52
 2255              		.loc 1 398 3 discriminator 115
 2256 0520 7B68     		ldr	r3, [r7, #4]
 2257 0522 494A     		ldr	r2, .L57+72
 2258 0524 9342     		cmp	r3, r2
 2259 0526 38D0     		beq	.L52
 2260              		.loc 1 398 3 discriminator 116
 2261 0528 7B68     		ldr	r3, [r7, #4]
 2262 052a 484A     		ldr	r2, .L57+76
 2263 052c 9342     		cmp	r3, r2
 2264 052e 34D0     		beq	.L52
 2265              		.loc 1 398 3 discriminator 117
 2266 0530 7B68     		ldr	r3, [r7, #4]
 2267 0532 474A     		ldr	r2, .L57+80
 2268 0534 9342     		cmp	r3, r2
ARM GAS  /tmp/ccRTEIeG.s 			page 55


 2269 0536 30D0     		beq	.L52
 2270              		.loc 1 398 3 discriminator 118
 2271 0538 7B68     		ldr	r3, [r7, #4]
 2272 053a 464A     		ldr	r2, .L57+84
 2273 053c 9342     		cmp	r3, r2
 2274 053e 2CD0     		beq	.L52
 2275              		.loc 1 398 3 discriminator 119
 2276 0540 7B68     		ldr	r3, [r7, #4]
 2277 0542 454A     		ldr	r2, .L57+88
 2278 0544 9342     		cmp	r3, r2
 2279 0546 28D0     		beq	.L52
 2280              		.loc 1 398 3 discriminator 120
 2281 0548 7B68     		ldr	r3, [r7, #4]
 2282 054a 444A     		ldr	r2, .L57+92
 2283 054c 9342     		cmp	r3, r2
 2284 054e 24D0     		beq	.L52
 2285              		.loc 1 398 3 discriminator 121
 2286 0550 7B68     		ldr	r3, [r7, #4]
 2287 0552 434A     		ldr	r2, .L57+96
 2288 0554 9342     		cmp	r3, r2
 2289 0556 20D0     		beq	.L52
 2290              		.loc 1 398 3 discriminator 122
 2291 0558 7B68     		ldr	r3, [r7, #4]
 2292 055a 424A     		ldr	r2, .L57+100
 2293 055c 9342     		cmp	r3, r2
 2294 055e 1CD0     		beq	.L52
 2295              		.loc 1 398 3 discriminator 123
 2296 0560 7B68     		ldr	r3, [r7, #4]
 2297 0562 414A     		ldr	r2, .L57+104
 2298 0564 9342     		cmp	r3, r2
 2299 0566 18D0     		beq	.L52
 2300              		.loc 1 398 3 discriminator 124
 2301 0568 7B68     		ldr	r3, [r7, #4]
 2302 056a 404A     		ldr	r2, .L57+108
 2303 056c 9342     		cmp	r3, r2
 2304 056e 14D0     		beq	.L52
 2305              		.loc 1 398 3 discriminator 125
 2306 0570 7B68     		ldr	r3, [r7, #4]
 2307 0572 3F4A     		ldr	r2, .L57+112
 2308 0574 9342     		cmp	r3, r2
 2309 0576 10D0     		beq	.L52
 2310              		.loc 1 398 3 discriminator 126
 2311 0578 7B68     		ldr	r3, [r7, #4]
 2312 057a 3E4A     		ldr	r2, .L57+116
 2313 057c 9342     		cmp	r3, r2
 2314 057e 0CD0     		beq	.L52
 2315              		.loc 1 398 3 discriminator 127
 2316 0580 7B68     		ldr	r3, [r7, #4]
 2317 0582 3D4A     		ldr	r2, .L57+120
 2318 0584 9342     		cmp	r3, r2
 2319 0586 08D0     		beq	.L52
 2320              		.loc 1 398 3 discriminator 128
 2321 0588 7B68     		ldr	r3, [r7, #4]
 2322 058a 3C4A     		ldr	r2, .L57+124
 2323 058c 9342     		cmp	r3, r2
 2324 058e 04D0     		beq	.L52
 2325              		.loc 1 398 3 discriminator 129
ARM GAS  /tmp/ccRTEIeG.s 			page 56


 2326 0590 4FF4C771 		mov	r1, #398
 2327 0594 3A48     		ldr	r0, .L57+128
 2328 0596 FFF7FEFF 		bl	assert_failed
 2329              	.L52:
 399:STM32Cube_FW_N6/Drivers/STM32N6xx_HAL_Driver/Src/stm32n6xx_hal_rif.c **** 
 400:STM32Cube_FW_N6/Drivers/STM32N6xx_HAL_Driver/Src/stm32n6xx_hal_rif.c ****   p_sec_reg = &(RIFSC->RISC_SECCFGRx[PeriphId >> RIF_PERIPH_REG_SHIFT]);
 2330              		.loc 1 400 47 is_stmt 1
 2331 059a 7B68     		ldr	r3, [r7, #4]
 2332 059c 1B0F     		lsrs	r3, r3, #28
 2333              		.loc 1 400 15
 2334 059e 9A00     		lsls	r2, r3, #2
 2335              		.loc 1 400 13
 2336 05a0 384B     		ldr	r3, .L57+132
 2337 05a2 1344     		add	r3, r3, r2
 2338 05a4 FB60     		str	r3, [r7, #12]
 401:STM32Cube_FW_N6/Drivers/STM32N6xx_HAL_Driver/Src/stm32n6xx_hal_rif.c ****   sec_attr = ((*p_sec_reg & ((uint32_t)RIF_ATTRIBUTE_SEC << (PeriphId & RIF_PERIPH_BIT_POSITION))) 
 2339              		.loc 1 401 16
 2340 05a6 FB68     		ldr	r3, [r7, #12]
 2341 05a8 1A68     		ldr	r2, [r3]
 2342              		.loc 1 401 71
 2343 05aa 7B68     		ldr	r3, [r7, #4]
 2344 05ac 03F01F03 		and	r3, r3, #31
 2345              		.loc 1 401 58
 2346 05b0 0121     		movs	r1, #1
 2347 05b2 01FA03F3 		lsl	r3, r1, r3
 2348              		.loc 1 401 27
 2349 05b6 1A40     		ands	r2, r2, r3
 2350              		.loc 1 401 113
 2351 05b8 7B68     		ldr	r3, [r7, #4]
 2352 05ba 03F01F03 		and	r3, r3, #31
 2353              		.loc 1 401 12
 2354 05be 22FA03F3 		lsr	r3, r2, r3
 2355 05c2 BB60     		str	r3, [r7, #8]
 402:STM32Cube_FW_N6/Drivers/STM32N6xx_HAL_Driver/Src/stm32n6xx_hal_rif.c **** 
 403:STM32Cube_FW_N6/Drivers/STM32N6xx_HAL_Driver/Src/stm32n6xx_hal_rif.c ****   p_sec_reg = &(RIFSC->RISC_PRIVCFGRx[PeriphId >> RIF_PERIPH_REG_SHIFT]);
 2356              		.loc 1 403 48
 2357 05c4 7B68     		ldr	r3, [r7, #4]
 2358 05c6 1B0F     		lsrs	r3, r3, #28
 2359              		.loc 1 403 15
 2360 05c8 9A00     		lsls	r2, r3, #2
 2361              		.loc 1 403 13
 2362 05ca 2F4B     		ldr	r3, .L57+136
 2363 05cc 1344     		add	r3, r3, r2
 2364 05ce FB60     		str	r3, [r7, #12]
 404:STM32Cube_FW_N6/Drivers/STM32N6xx_HAL_Driver/Src/stm32n6xx_hal_rif.c ****   sec_attr |= (((*p_sec_reg & ((uint32_t)RIF_ATTRIBUTE_SEC << (PeriphId & RIF_PERIPH_BIT_POSITION))
 2365              		.loc 1 404 18
 2366 05d0 FB68     		ldr	r3, [r7, #12]
 2367 05d2 1A68     		ldr	r2, [r3]
 2368              		.loc 1 404 73
 2369 05d4 7B68     		ldr	r3, [r7, #4]
 2370 05d6 03F01F03 		and	r3, r3, #31
 2371              		.loc 1 404 60
 2372 05da 0121     		movs	r1, #1
 2373 05dc 01FA03F3 		lsl	r3, r1, r3
 2374              		.loc 1 404 29
 2375 05e0 1A40     		ands	r2, r2, r3
 2376              		.loc 1 404 115
ARM GAS  /tmp/ccRTEIeG.s 			page 57


 2377 05e2 7B68     		ldr	r3, [r7, #4]
 2378 05e4 03F01F03 		and	r3, r3, #31
 2379              		.loc 1 404 102
 2380 05e8 22FA03F3 		lsr	r3, r2, r3
 2381              		.loc 1 404 143
 2382 05ec 5B00     		lsls	r3, r3, #1
 2383              		.loc 1 404 12
 2384 05ee BA68     		ldr	r2, [r7, #8]
 2385 05f0 1343     		orrs	r3, r3, r2
 2386 05f2 BB60     		str	r3, [r7, #8]
 405:STM32Cube_FW_N6/Drivers/STM32N6xx_HAL_Driver/Src/stm32n6xx_hal_rif.c **** 
 406:STM32Cube_FW_N6/Drivers/STM32N6xx_HAL_Driver/Src/stm32n6xx_hal_rif.c ****   return sec_attr;
 2387              		.loc 1 406 10
 2388 05f4 BB68     		ldr	r3, [r7, #8]
 407:STM32Cube_FW_N6/Drivers/STM32N6xx_HAL_Driver/Src/stm32n6xx_hal_rif.c **** }
 2389              		.loc 1 407 1
 2390 05f6 1846     		mov	r0, r3
 2391 05f8 1037     		adds	r7, r7, #16
 2392              		.cfi_def_cfa_offset 8
 2393 05fa BD46     		mov	sp, r7
 2394              		.cfi_def_cfa_register 13
 2395              		@ sp needed
 2396 05fc 80BD     		pop	{r7, pc}
 2397              	.L58:
 2398 05fe 00BF     		.align	2
 2399              	.L57:
 2400 0600 0C000040 		.word	1073741836
 2401 0604 0D000040 		.word	1073741837
 2402 0608 11000040 		.word	1073741841
 2403 060c 12000040 		.word	1073741842
 2404 0610 13000040 		.word	1073741843
 2405 0614 19000040 		.word	1073741849
 2406 0618 1B000040 		.word	1073741851
 2407 061c 1C000040 		.word	1073741852
 2408 0620 1D000040 		.word	1073741853
 2409 0624 1F000040 		.word	1073741855
 2410 0628 01000050 		.word	1342177281
 2411 062c 02000050 		.word	1342177282
 2412 0630 03000050 		.word	1342177283
 2413 0634 04000050 		.word	1342177284
 2414 0638 05000050 		.word	1342177285
 2415 063c 06000050 		.word	1342177286
 2416 0640 08000050 		.word	1342177288
 2417 0644 09000050 		.word	1342177289
 2418 0648 0A000050 		.word	1342177290
 2419 064c 0B000050 		.word	1342177291
 2420 0650 0D000050 		.word	1342177293
 2421 0654 0E000050 		.word	1342177294
 2422 0658 0F000050 		.word	1342177295
 2423 065c 11000050 		.word	1342177297
 2424 0660 12000050 		.word	1342177298
 2425 0664 13000050 		.word	1342177299
 2426 0668 14000050 		.word	1342177300
 2427 066c 16000050 		.word	1342177302
 2428 0670 17000050 		.word	1342177303
 2429 0674 18000050 		.word	1342177304
 2430 0678 1B000050 		.word	1342177307
ARM GAS  /tmp/ccRTEIeG.s 			page 58


 2431 067c 1E000050 		.word	1342177310
 2432 0680 00000000 		.word	.LC0
 2433 0684 10400254 		.word	1409433616
 2434 0688 30400254 		.word	1409433648
 2435              		.cfi_endproc
 2436              	.LFE844:
 2438              		.section	.text.HAL_RIF_RISC_SlaveConfigLock,"ax",%progbits
 2439              		.align	1
 2440              		.global	HAL_RIF_RISC_SlaveConfigLock
 2441              		.syntax unified
 2442              		.thumb
 2443              		.thumb_func
 2445              	HAL_RIF_RISC_SlaveConfigLock:
 2446              	.LFB845:
 408:STM32Cube_FW_N6/Drivers/STM32N6xx_HAL_Driver/Src/stm32n6xx_hal_rif.c **** 
 409:STM32Cube_FW_N6/Drivers/STM32N6xx_HAL_Driver/Src/stm32n6xx_hal_rif.c **** #if defined(CPU_AS_TRUSTED_DOMAIN)
 410:STM32Cube_FW_N6/Drivers/STM32N6xx_HAL_Driver/Src/stm32n6xx_hal_rif.c **** /**
 411:STM32Cube_FW_N6/Drivers/STM32N6xx_HAL_Driver/Src/stm32n6xx_hal_rif.c ****   * @brief  Lock the Isolation and Security configuration of the designated slave peripheral.
 412:STM32Cube_FW_N6/Drivers/STM32N6xx_HAL_Driver/Src/stm32n6xx_hal_rif.c ****   * @note   This API is protected by the Trusted Domain compilation directive.
 413:STM32Cube_FW_N6/Drivers/STM32N6xx_HAL_Driver/Src/stm32n6xx_hal_rif.c ****   * @param  PeriphId specifies the index of the bus slave.
 414:STM32Cube_FW_N6/Drivers/STM32N6xx_HAL_Driver/Src/stm32n6xx_hal_rif.c ****   *         This parameter can be one of @ref RIF_PERIPHERAL_INDEX
 415:STM32Cube_FW_N6/Drivers/STM32N6xx_HAL_Driver/Src/stm32n6xx_hal_rif.c ****   *         bits[31:28] define the register index a peripheral belongs to, value from 0 to 5
 416:STM32Cube_FW_N6/Drivers/STM32N6xx_HAL_Driver/Src/stm32n6xx_hal_rif.c ****   *         bits[4:0]   define the bit position within the register, value from 0 to 31
 417:STM32Cube_FW_N6/Drivers/STM32N6xx_HAL_Driver/Src/stm32n6xx_hal_rif.c ****   * @retval None
 418:STM32Cube_FW_N6/Drivers/STM32N6xx_HAL_Driver/Src/stm32n6xx_hal_rif.c ****   */
 419:STM32Cube_FW_N6/Drivers/STM32N6xx_HAL_Driver/Src/stm32n6xx_hal_rif.c **** void HAL_RIF_RISC_SlaveConfigLock(uint32_t PeriphId)
 420:STM32Cube_FW_N6/Drivers/STM32N6xx_HAL_Driver/Src/stm32n6xx_hal_rif.c **** {
 2447              		.loc 1 420 1
 2448              		.cfi_startproc
 2449              		@ args = 0, pretend = 0, frame = 16
 2450              		@ frame_needed = 1, uses_anonymous_args = 0
 2451 0000 80B5     		push	{r7, lr}
 2452              		.cfi_def_cfa_offset 8
 2453              		.cfi_offset 7, -8
 2454              		.cfi_offset 14, -4
 2455 0002 84B0     		sub	sp, sp, #16
 2456              		.cfi_def_cfa_offset 24
 2457 0004 00AF     		add	r7, sp, #0
 2458              		.cfi_def_cfa_register 7
 2459 0006 7860     		str	r0, [r7, #4]
 421:STM32Cube_FW_N6/Drivers/STM32N6xx_HAL_Driver/Src/stm32n6xx_hal_rif.c ****   __IO uint32_t *p_lock_reg;
 422:STM32Cube_FW_N6/Drivers/STM32N6xx_HAL_Driver/Src/stm32n6xx_hal_rif.c **** 
 423:STM32Cube_FW_N6/Drivers/STM32N6xx_HAL_Driver/Src/stm32n6xx_hal_rif.c ****   assert_param(IS_RIF_RISC_PERIPH_INDEX(PeriphId) || IS_RIF_RCC_PERIPH_INDEX(PeriphId));
 2460              		.loc 1 423 3
 2461 0008 7B68     		ldr	r3, [r7, #4]
 2462 000a 002B     		cmp	r3, #0
 2463 000c 00F0C582 		beq	.L60
 2464              		.loc 1 423 3 is_stmt 0 discriminator 1
 2465 0010 7B68     		ldr	r3, [r7, #4]
 2466 0012 012B     		cmp	r3, #1
 2467 0014 00F0C182 		beq	.L60
 2468              		.loc 1 423 3 discriminator 2
 2469 0018 7B68     		ldr	r3, [r7, #4]
 2470 001a 022B     		cmp	r3, #2
 2471 001c 00F0BD82 		beq	.L60
 2472              		.loc 1 423 3 discriminator 3
 2473 0020 7B68     		ldr	r3, [r7, #4]
ARM GAS  /tmp/ccRTEIeG.s 			page 59


 2474 0022 032B     		cmp	r3, #3
 2475 0024 00F0B982 		beq	.L60
 2476              		.loc 1 423 3 discriminator 4
 2477 0028 7B68     		ldr	r3, [r7, #4]
 2478 002a 042B     		cmp	r3, #4
 2479 002c 00F0B582 		beq	.L60
 2480              		.loc 1 423 3 discriminator 5
 2481 0030 7B68     		ldr	r3, [r7, #4]
 2482 0032 052B     		cmp	r3, #5
 2483 0034 00F0B182 		beq	.L60
 2484              		.loc 1 423 3 discriminator 6
 2485 0038 7B68     		ldr	r3, [r7, #4]
 2486 003a 062B     		cmp	r3, #6
 2487 003c 00F0AD82 		beq	.L60
 2488              		.loc 1 423 3 discriminator 7
 2489 0040 7B68     		ldr	r3, [r7, #4]
 2490 0042 082B     		cmp	r3, #8
 2491 0044 00F0A982 		beq	.L60
 2492              		.loc 1 423 3 discriminator 8
 2493 0048 7B68     		ldr	r3, [r7, #4]
 2494 004a 092B     		cmp	r3, #9
 2495 004c 00F0A582 		beq	.L60
 2496              		.loc 1 423 3 discriminator 9
 2497 0050 7B68     		ldr	r3, [r7, #4]
 2498 0052 0A2B     		cmp	r3, #10
 2499 0054 00F0A182 		beq	.L60
 2500              		.loc 1 423 3 discriminator 10
 2501 0058 7B68     		ldr	r3, [r7, #4]
 2502 005a 0B2B     		cmp	r3, #11
 2503 005c 00F09D82 		beq	.L60
 2504              		.loc 1 423 3 discriminator 11
 2505 0060 7B68     		ldr	r3, [r7, #4]
 2506 0062 0C2B     		cmp	r3, #12
 2507 0064 00F09982 		beq	.L60
 2508              		.loc 1 423 3 discriminator 12
 2509 0068 7B68     		ldr	r3, [r7, #4]
 2510 006a 0D2B     		cmp	r3, #13
 2511 006c 00F09582 		beq	.L60
 2512              		.loc 1 423 3 discriminator 13
 2513 0070 7B68     		ldr	r3, [r7, #4]
 2514 0072 0E2B     		cmp	r3, #14
 2515 0074 00F09182 		beq	.L60
 2516              		.loc 1 423 3 discriminator 14
 2517 0078 7B68     		ldr	r3, [r7, #4]
 2518 007a 0F2B     		cmp	r3, #15
 2519 007c 00F08D82 		beq	.L60
 2520              		.loc 1 423 3 discriminator 15
 2521 0080 7B68     		ldr	r3, [r7, #4]
 2522 0082 102B     		cmp	r3, #16
 2523 0084 00F08982 		beq	.L60
 2524              		.loc 1 423 3 discriminator 16
 2525 0088 7B68     		ldr	r3, [r7, #4]
 2526 008a 112B     		cmp	r3, #17
 2527 008c 00F08582 		beq	.L60
 2528              		.loc 1 423 3 discriminator 17
 2529 0090 7B68     		ldr	r3, [r7, #4]
 2530 0092 122B     		cmp	r3, #18
ARM GAS  /tmp/ccRTEIeG.s 			page 60


 2531 0094 00F08182 		beq	.L60
 2532              		.loc 1 423 3 discriminator 18
 2533 0098 7B68     		ldr	r3, [r7, #4]
 2534 009a 132B     		cmp	r3, #19
 2535 009c 00F07D82 		beq	.L60
 2536              		.loc 1 423 3 discriminator 19
 2537 00a0 7B68     		ldr	r3, [r7, #4]
 2538 00a2 142B     		cmp	r3, #20
 2539 00a4 00F07982 		beq	.L60
 2540              		.loc 1 423 3 discriminator 20
 2541 00a8 7B68     		ldr	r3, [r7, #4]
 2542 00aa 152B     		cmp	r3, #21
 2543 00ac 00F07582 		beq	.L60
 2544              		.loc 1 423 3 discriminator 21
 2545 00b0 7B68     		ldr	r3, [r7, #4]
 2546 00b2 162B     		cmp	r3, #22
 2547 00b4 00F07182 		beq	.L60
 2548              		.loc 1 423 3 discriminator 22
 2549 00b8 7B68     		ldr	r3, [r7, #4]
 2550 00ba 172B     		cmp	r3, #23
 2551 00bc 00F06D82 		beq	.L60
 2552              		.loc 1 423 3 discriminator 23
 2553 00c0 7B68     		ldr	r3, [r7, #4]
 2554 00c2 182B     		cmp	r3, #24
 2555 00c4 00F06982 		beq	.L60
 2556              		.loc 1 423 3 discriminator 24
 2557 00c8 7B68     		ldr	r3, [r7, #4]
 2558 00ca 192B     		cmp	r3, #25
 2559 00cc 00F06582 		beq	.L60
 2560              		.loc 1 423 3 discriminator 25
 2561 00d0 7B68     		ldr	r3, [r7, #4]
 2562 00d2 1A2B     		cmp	r3, #26
 2563 00d4 00F06182 		beq	.L60
 2564              		.loc 1 423 3 discriminator 26
 2565 00d8 7B68     		ldr	r3, [r7, #4]
 2566 00da 1B2B     		cmp	r3, #27
 2567 00dc 00F05D82 		beq	.L60
 2568              		.loc 1 423 3 discriminator 27
 2569 00e0 7B68     		ldr	r3, [r7, #4]
 2570 00e2 1C2B     		cmp	r3, #28
 2571 00e4 00F05982 		beq	.L60
 2572              		.loc 1 423 3 discriminator 28
 2573 00e8 7B68     		ldr	r3, [r7, #4]
 2574 00ea 1D2B     		cmp	r3, #29
 2575 00ec 00F05582 		beq	.L60
 2576              		.loc 1 423 3 discriminator 29
 2577 00f0 7B68     		ldr	r3, [r7, #4]
 2578 00f2 1E2B     		cmp	r3, #30
 2579 00f4 00F05182 		beq	.L60
 2580              		.loc 1 423 3 discriminator 30
 2581 00f8 7B68     		ldr	r3, [r7, #4]
 2582 00fa 1F2B     		cmp	r3, #31
 2583 00fc 00F04D82 		beq	.L60
 2584              		.loc 1 423 3 discriminator 31
 2585 0100 7B68     		ldr	r3, [r7, #4]
 2586 0102 B3F1805F 		cmp	r3, #268435456
 2587 0106 00F04882 		beq	.L60
ARM GAS  /tmp/ccRTEIeG.s 			page 61


 2588              		.loc 1 423 3 discriminator 32
 2589 010a 7B68     		ldr	r3, [r7, #4]
 2590 010c 9F4A     		ldr	r2, .L61
 2591 010e 9342     		cmp	r3, r2
 2592 0110 00F04382 		beq	.L60
 2593              		.loc 1 423 3 discriminator 33
 2594 0114 7B68     		ldr	r3, [r7, #4]
 2595 0116 9E4A     		ldr	r2, .L61+4
 2596 0118 9342     		cmp	r3, r2
 2597 011a 00F03E82 		beq	.L60
 2598              		.loc 1 423 3 discriminator 34
 2599 011e 7B68     		ldr	r3, [r7, #4]
 2600 0120 9C4A     		ldr	r2, .L61+8
 2601 0122 9342     		cmp	r3, r2
 2602 0124 00F03982 		beq	.L60
 2603              		.loc 1 423 3 discriminator 35
 2604 0128 7B68     		ldr	r3, [r7, #4]
 2605 012a 9B4A     		ldr	r2, .L61+12
 2606 012c 9342     		cmp	r3, r2
 2607 012e 00F03482 		beq	.L60
 2608              		.loc 1 423 3 discriminator 36
 2609 0132 7B68     		ldr	r3, [r7, #4]
 2610 0134 994A     		ldr	r2, .L61+16
 2611 0136 9342     		cmp	r3, r2
 2612 0138 00F02F82 		beq	.L60
 2613              		.loc 1 423 3 discriminator 37
 2614 013c 7B68     		ldr	r3, [r7, #4]
 2615 013e 984A     		ldr	r2, .L61+20
 2616 0140 9342     		cmp	r3, r2
 2617 0142 00F02A82 		beq	.L60
 2618              		.loc 1 423 3 discriminator 38
 2619 0146 7B68     		ldr	r3, [r7, #4]
 2620 0148 964A     		ldr	r2, .L61+24
 2621 014a 9342     		cmp	r3, r2
 2622 014c 00F02582 		beq	.L60
 2623              		.loc 1 423 3 discriminator 39
 2624 0150 7B68     		ldr	r3, [r7, #4]
 2625 0152 954A     		ldr	r2, .L61+28
 2626 0154 9342     		cmp	r3, r2
 2627 0156 00F02082 		beq	.L60
 2628              		.loc 1 423 3 discriminator 40
 2629 015a 7B68     		ldr	r3, [r7, #4]
 2630 015c 934A     		ldr	r2, .L61+32
 2631 015e 9342     		cmp	r3, r2
 2632 0160 00F01B82 		beq	.L60
 2633              		.loc 1 423 3 discriminator 41
 2634 0164 7B68     		ldr	r3, [r7, #4]
 2635 0166 924A     		ldr	r2, .L61+36
 2636 0168 9342     		cmp	r3, r2
 2637 016a 00F01682 		beq	.L60
 2638              		.loc 1 423 3 discriminator 42
 2639 016e 7B68     		ldr	r3, [r7, #4]
 2640 0170 904A     		ldr	r2, .L61+40
 2641 0172 9342     		cmp	r3, r2
 2642 0174 00F01182 		beq	.L60
 2643              		.loc 1 423 3 discriminator 43
 2644 0178 7B68     		ldr	r3, [r7, #4]
ARM GAS  /tmp/ccRTEIeG.s 			page 62


 2645 017a 8F4A     		ldr	r2, .L61+44
 2646 017c 9342     		cmp	r3, r2
 2647 017e 00F00C82 		beq	.L60
 2648              		.loc 1 423 3 discriminator 44
 2649 0182 7B68     		ldr	r3, [r7, #4]
 2650 0184 8D4A     		ldr	r2, .L61+48
 2651 0186 9342     		cmp	r3, r2
 2652 0188 00F00782 		beq	.L60
 2653              		.loc 1 423 3 discriminator 45
 2654 018c 7B68     		ldr	r3, [r7, #4]
 2655 018e 8C4A     		ldr	r2, .L61+52
 2656 0190 9342     		cmp	r3, r2
 2657 0192 00F00282 		beq	.L60
 2658              		.loc 1 423 3 discriminator 46
 2659 0196 7B68     		ldr	r3, [r7, #4]
 2660 0198 8A4A     		ldr	r2, .L61+56
 2661 019a 9342     		cmp	r3, r2
 2662 019c 00F0FD81 		beq	.L60
 2663              		.loc 1 423 3 discriminator 47
 2664 01a0 7B68     		ldr	r3, [r7, #4]
 2665 01a2 894A     		ldr	r2, .L61+60
 2666 01a4 9342     		cmp	r3, r2
 2667 01a6 00F0F881 		beq	.L60
 2668              		.loc 1 423 3 discriminator 48
 2669 01aa 7B68     		ldr	r3, [r7, #4]
 2670 01ac 874A     		ldr	r2, .L61+64
 2671 01ae 9342     		cmp	r3, r2
 2672 01b0 00F0F381 		beq	.L60
 2673              		.loc 1 423 3 discriminator 49
 2674 01b4 7B68     		ldr	r3, [r7, #4]
 2675 01b6 864A     		ldr	r2, .L61+68
 2676 01b8 9342     		cmp	r3, r2
 2677 01ba 00F0EE81 		beq	.L60
 2678              		.loc 1 423 3 discriminator 50
 2679 01be 7B68     		ldr	r3, [r7, #4]
 2680 01c0 844A     		ldr	r2, .L61+72
 2681 01c2 9342     		cmp	r3, r2
 2682 01c4 00F0E981 		beq	.L60
 2683              		.loc 1 423 3 discriminator 51
 2684 01c8 7B68     		ldr	r3, [r7, #4]
 2685 01ca 834A     		ldr	r2, .L61+76
 2686 01cc 9342     		cmp	r3, r2
 2687 01ce 00F0E481 		beq	.L60
 2688              		.loc 1 423 3 discriminator 52
 2689 01d2 7B68     		ldr	r3, [r7, #4]
 2690 01d4 814A     		ldr	r2, .L61+80
 2691 01d6 9342     		cmp	r3, r2
 2692 01d8 00F0DF81 		beq	.L60
 2693              		.loc 1 423 3 discriminator 53
 2694 01dc 7B68     		ldr	r3, [r7, #4]
 2695 01de 804A     		ldr	r2, .L61+84
 2696 01e0 9342     		cmp	r3, r2
 2697 01e2 00F0DA81 		beq	.L60
 2698              		.loc 1 423 3 discriminator 54
 2699 01e6 7B68     		ldr	r3, [r7, #4]
 2700 01e8 7E4A     		ldr	r2, .L61+88
 2701 01ea 9342     		cmp	r3, r2
ARM GAS  /tmp/ccRTEIeG.s 			page 63


 2702 01ec 00F0D581 		beq	.L60
 2703              		.loc 1 423 3 discriminator 55
 2704 01f0 7B68     		ldr	r3, [r7, #4]
 2705 01f2 7D4A     		ldr	r2, .L61+92
 2706 01f4 9342     		cmp	r3, r2
 2707 01f6 00F0D081 		beq	.L60
 2708              		.loc 1 423 3 discriminator 56
 2709 01fa 7B68     		ldr	r3, [r7, #4]
 2710 01fc 7B4A     		ldr	r2, .L61+96
 2711 01fe 9342     		cmp	r3, r2
 2712 0200 00F0CB81 		beq	.L60
 2713              		.loc 1 423 3 discriminator 57
 2714 0204 7B68     		ldr	r3, [r7, #4]
 2715 0206 7A4A     		ldr	r2, .L61+100
 2716 0208 9342     		cmp	r3, r2
 2717 020a 00F0C681 		beq	.L60
 2718              		.loc 1 423 3 discriminator 58
 2719 020e 7B68     		ldr	r3, [r7, #4]
 2720 0210 784A     		ldr	r2, .L61+104
 2721 0212 9342     		cmp	r3, r2
 2722 0214 00F0C181 		beq	.L60
 2723              		.loc 1 423 3 discriminator 59
 2724 0218 7B68     		ldr	r3, [r7, #4]
 2725 021a 774A     		ldr	r2, .L61+108
 2726 021c 9342     		cmp	r3, r2
 2727 021e 00F0BC81 		beq	.L60
 2728              		.loc 1 423 3 discriminator 60
 2729 0222 7B68     		ldr	r3, [r7, #4]
 2730 0224 754A     		ldr	r2, .L61+112
 2731 0226 9342     		cmp	r3, r2
 2732 0228 00F0B781 		beq	.L60
 2733              		.loc 1 423 3 discriminator 61
 2734 022c 7B68     		ldr	r3, [r7, #4]
 2735 022e B3F1005F 		cmp	r3, #536870912
 2736 0232 00F0B281 		beq	.L60
 2737              		.loc 1 423 3 discriminator 62
 2738 0236 7B68     		ldr	r3, [r7, #4]
 2739 0238 714A     		ldr	r2, .L61+116
 2740 023a 9342     		cmp	r3, r2
 2741 023c 00F0AD81 		beq	.L60
 2742              		.loc 1 423 3 discriminator 63
 2743 0240 7B68     		ldr	r3, [r7, #4]
 2744 0242 704A     		ldr	r2, .L61+120
 2745 0244 9342     		cmp	r3, r2
 2746 0246 00F0A881 		beq	.L60
 2747              		.loc 1 423 3 discriminator 64
 2748 024a 7B68     		ldr	r3, [r7, #4]
 2749 024c 6E4A     		ldr	r2, .L61+124
 2750 024e 9342     		cmp	r3, r2
 2751 0250 00F0A381 		beq	.L60
 2752              		.loc 1 423 3 discriminator 65
 2753 0254 7B68     		ldr	r3, [r7, #4]
 2754 0256 6D4A     		ldr	r2, .L61+128
 2755 0258 9342     		cmp	r3, r2
 2756 025a 00F09E81 		beq	.L60
 2757              		.loc 1 423 3 discriminator 66
 2758 025e 7B68     		ldr	r3, [r7, #4]
ARM GAS  /tmp/ccRTEIeG.s 			page 64


 2759 0260 6B4A     		ldr	r2, .L61+132
 2760 0262 9342     		cmp	r3, r2
 2761 0264 00F09981 		beq	.L60
 2762              		.loc 1 423 3 discriminator 67
 2763 0268 7B68     		ldr	r3, [r7, #4]
 2764 026a 6A4A     		ldr	r2, .L61+136
 2765 026c 9342     		cmp	r3, r2
 2766 026e 00F09481 		beq	.L60
 2767              		.loc 1 423 3 discriminator 68
 2768 0272 7B68     		ldr	r3, [r7, #4]
 2769 0274 684A     		ldr	r2, .L61+140
 2770 0276 9342     		cmp	r3, r2
 2771 0278 00F08F81 		beq	.L60
 2772              		.loc 1 423 3 discriminator 69
 2773 027c 7B68     		ldr	r3, [r7, #4]
 2774 027e 674A     		ldr	r2, .L61+144
 2775 0280 9342     		cmp	r3, r2
 2776 0282 00F08A81 		beq	.L60
 2777              		.loc 1 423 3 discriminator 70
 2778 0286 7B68     		ldr	r3, [r7, #4]
 2779 0288 654A     		ldr	r2, .L61+148
 2780 028a 9342     		cmp	r3, r2
 2781 028c 00F08581 		beq	.L60
 2782              		.loc 1 423 3 discriminator 71
 2783 0290 7B68     		ldr	r3, [r7, #4]
 2784 0292 644A     		ldr	r2, .L61+152
 2785 0294 9342     		cmp	r3, r2
 2786 0296 00F08081 		beq	.L60
 2787              		.loc 1 423 3 discriminator 72
 2788 029a 7B68     		ldr	r3, [r7, #4]
 2789 029c 624A     		ldr	r2, .L61+156
 2790 029e 9342     		cmp	r3, r2
 2791 02a0 00F07B81 		beq	.L60
 2792              		.loc 1 423 3 discriminator 73
 2793 02a4 7B68     		ldr	r3, [r7, #4]
 2794 02a6 614A     		ldr	r2, .L61+160
 2795 02a8 9342     		cmp	r3, r2
 2796 02aa 00F07681 		beq	.L60
 2797              		.loc 1 423 3 discriminator 74
 2798 02ae 7B68     		ldr	r3, [r7, #4]
 2799 02b0 5F4A     		ldr	r2, .L61+164
 2800 02b2 9342     		cmp	r3, r2
 2801 02b4 00F07181 		beq	.L60
 2802              		.loc 1 423 3 discriminator 75
 2803 02b8 7B68     		ldr	r3, [r7, #4]
 2804 02ba 5E4A     		ldr	r2, .L61+168
 2805 02bc 9342     		cmp	r3, r2
 2806 02be 00F06C81 		beq	.L60
 2807              		.loc 1 423 3 discriminator 76
 2808 02c2 7B68     		ldr	r3, [r7, #4]
 2809 02c4 5C4A     		ldr	r2, .L61+172
 2810 02c6 9342     		cmp	r3, r2
 2811 02c8 00F06781 		beq	.L60
 2812              		.loc 1 423 3 discriminator 77
 2813 02cc 7B68     		ldr	r3, [r7, #4]
 2814 02ce 5B4A     		ldr	r2, .L61+176
 2815 02d0 9342     		cmp	r3, r2
ARM GAS  /tmp/ccRTEIeG.s 			page 65


 2816 02d2 00F06281 		beq	.L60
 2817              		.loc 1 423 3 discriminator 78
 2818 02d6 7B68     		ldr	r3, [r7, #4]
 2819 02d8 594A     		ldr	r2, .L61+180
 2820 02da 9342     		cmp	r3, r2
 2821 02dc 00F05D81 		beq	.L60
 2822              		.loc 1 423 3 discriminator 79
 2823 02e0 7B68     		ldr	r3, [r7, #4]
 2824 02e2 584A     		ldr	r2, .L61+184
 2825 02e4 9342     		cmp	r3, r2
 2826 02e6 00F05881 		beq	.L60
 2827              		.loc 1 423 3 discriminator 80
 2828 02ea 7B68     		ldr	r3, [r7, #4]
 2829 02ec 564A     		ldr	r2, .L61+188
 2830 02ee 9342     		cmp	r3, r2
 2831 02f0 00F05381 		beq	.L60
 2832              		.loc 1 423 3 discriminator 81
 2833 02f4 7B68     		ldr	r3, [r7, #4]
 2834 02f6 554A     		ldr	r2, .L61+192
 2835 02f8 9342     		cmp	r3, r2
 2836 02fa 00F04E81 		beq	.L60
 2837              		.loc 1 423 3 discriminator 82
 2838 02fe 7B68     		ldr	r3, [r7, #4]
 2839 0300 534A     		ldr	r2, .L61+196
 2840 0302 9342     		cmp	r3, r2
 2841 0304 00F04981 		beq	.L60
 2842              		.loc 1 423 3 discriminator 83
 2843 0308 7B68     		ldr	r3, [r7, #4]
 2844 030a B3F1405F 		cmp	r3, #805306368
 2845 030e 00F04481 		beq	.L60
 2846              		.loc 1 423 3 discriminator 84
 2847 0312 7B68     		ldr	r3, [r7, #4]
 2848 0314 4F4A     		ldr	r2, .L61+200
 2849 0316 9342     		cmp	r3, r2
 2850 0318 00F03F81 		beq	.L60
 2851              		.loc 1 423 3 discriminator 85
 2852 031c 7B68     		ldr	r3, [r7, #4]
 2853 031e 4E4A     		ldr	r2, .L61+204
 2854 0320 9342     		cmp	r3, r2
 2855 0322 00F03A81 		beq	.L60
 2856              		.loc 1 423 3 discriminator 86
 2857 0326 7B68     		ldr	r3, [r7, #4]
 2858 0328 4C4A     		ldr	r2, .L61+208
 2859 032a 9342     		cmp	r3, r2
 2860 032c 00F03581 		beq	.L60
 2861              		.loc 1 423 3 discriminator 87
 2862 0330 7B68     		ldr	r3, [r7, #4]
 2863 0332 4B4A     		ldr	r2, .L61+212
 2864 0334 9342     		cmp	r3, r2
 2865 0336 00F03081 		beq	.L60
 2866              		.loc 1 423 3 discriminator 88
 2867 033a 7B68     		ldr	r3, [r7, #4]
 2868 033c 494A     		ldr	r2, .L61+216
 2869 033e 9342     		cmp	r3, r2
 2870 0340 00F02B81 		beq	.L60
 2871              		.loc 1 423 3 discriminator 89
 2872 0344 7B68     		ldr	r3, [r7, #4]
ARM GAS  /tmp/ccRTEIeG.s 			page 66


 2873 0346 484A     		ldr	r2, .L61+220
 2874 0348 9342     		cmp	r3, r2
 2875 034a 00F02681 		beq	.L60
 2876              		.loc 1 423 3 discriminator 90
 2877 034e 7B68     		ldr	r3, [r7, #4]
 2878 0350 464A     		ldr	r2, .L61+224
 2879 0352 9342     		cmp	r3, r2
 2880 0354 00F02181 		beq	.L60
 2881              		.loc 1 423 3 discriminator 91
 2882 0358 7B68     		ldr	r3, [r7, #4]
 2883 035a 454A     		ldr	r2, .L61+228
 2884 035c 9342     		cmp	r3, r2
 2885 035e 00F01C81 		beq	.L60
 2886              		.loc 1 423 3 discriminator 92
 2887 0362 7B68     		ldr	r3, [r7, #4]
 2888 0364 434A     		ldr	r2, .L61+232
 2889 0366 9342     		cmp	r3, r2
 2890 0368 00F01781 		beq	.L60
 2891              		.loc 1 423 3 discriminator 93
 2892 036c 7B68     		ldr	r3, [r7, #4]
 2893 036e 424A     		ldr	r2, .L61+236
 2894 0370 9342     		cmp	r3, r2
 2895 0372 00F01281 		beq	.L60
 2896              		.loc 1 423 3 discriminator 94
 2897 0376 7B68     		ldr	r3, [r7, #4]
 2898 0378 404A     		ldr	r2, .L61+240
 2899 037a 9342     		cmp	r3, r2
 2900 037c 00F00D81 		beq	.L60
 2901              		.loc 1 423 3 discriminator 95
 2902 0380 7B68     		ldr	r3, [r7, #4]
 2903 0382 3F4A     		ldr	r2, .L61+244
 2904 0384 9342     		cmp	r3, r2
 2905 0386 00F00881 		beq	.L60
 2906 038a 7BE0     		b	.L62
 2907              	.L63:
 2908              		.align	2
 2909              	.L61:
 2910 038c 01000010 		.word	268435457
 2911 0390 02000010 		.word	268435458
 2912 0394 03000010 		.word	268435459
 2913 0398 04000010 		.word	268435460
 2914 039c 05000010 		.word	268435461
 2915 03a0 06000010 		.word	268435462
 2916 03a4 07000010 		.word	268435463
 2917 03a8 08000010 		.word	268435464
 2918 03ac 09000010 		.word	268435465
 2919 03b0 0A000010 		.word	268435466
 2920 03b4 0B000010 		.word	268435467
 2921 03b8 0C000010 		.word	268435468
 2922 03bc 0D000010 		.word	268435469
 2923 03c0 0E000010 		.word	268435470
 2924 03c4 0F000010 		.word	268435471
 2925 03c8 10000010 		.word	268435472
 2926 03cc 11000010 		.word	268435473
 2927 03d0 12000010 		.word	268435474
 2928 03d4 13000010 		.word	268435475
 2929 03d8 14000010 		.word	268435476
ARM GAS  /tmp/ccRTEIeG.s 			page 67


 2930 03dc 15000010 		.word	268435477
 2931 03e0 16000010 		.word	268435478
 2932 03e4 17000010 		.word	268435479
 2933 03e8 18000010 		.word	268435480
 2934 03ec 19000010 		.word	268435481
 2935 03f0 1A000010 		.word	268435482
 2936 03f4 1C000010 		.word	268435484
 2937 03f8 1D000010 		.word	268435485
 2938 03fc 1E000010 		.word	268435486
 2939 0400 01000020 		.word	536870913
 2940 0404 03000020 		.word	536870915
 2941 0408 04000020 		.word	536870916
 2942 040c 05000020 		.word	536870917
 2943 0410 0C000020 		.word	536870924
 2944 0414 0D000020 		.word	536870925
 2945 0418 0E000020 		.word	536870926
 2946 041c 0F000020 		.word	536870927
 2947 0420 10000020 		.word	536870928
 2948 0424 11000020 		.word	536870929
 2949 0428 12000020 		.word	536870930
 2950 042c 13000020 		.word	536870931
 2951 0430 14000020 		.word	536870932
 2952 0434 16000020 		.word	536870934
 2953 0438 17000020 		.word	536870935
 2954 043c 18000020 		.word	536870936
 2955 0440 19000020 		.word	536870937
 2956 0444 1A000020 		.word	536870938
 2957 0448 1C000020 		.word	536870940
 2958 044c 1D000020 		.word	536870941
 2959 0450 1E000020 		.word	536870942
 2960 0454 01000030 		.word	805306369
 2961 0458 02000030 		.word	805306370
 2962 045c 03000030 		.word	805306371
 2963 0460 04000030 		.word	805306372
 2964 0464 05000030 		.word	805306373
 2965 0468 06000030 		.word	805306374
 2966 046c 07000030 		.word	805306375
 2967 0470 08000030 		.word	805306376
 2968 0474 0A000030 		.word	805306378
 2969 0478 02000040 		.word	1073741826
 2970 047c 03000040 		.word	1073741827
 2971 0480 05000040 		.word	1073741829
 2972              	.L62:
 2973              		.loc 1 423 3 discriminator 96
 2974 0484 7B68     		ldr	r3, [r7, #4]
 2975 0486 4F4A     		ldr	r2, .L64
 2976 0488 9342     		cmp	r3, r2
 2977 048a 00F08680 		beq	.L60
 2978              		.loc 1 423 3 discriminator 97
 2979 048e 7B68     		ldr	r3, [r7, #4]
 2980 0490 4D4A     		ldr	r2, .L64+4
 2981 0492 9342     		cmp	r3, r2
 2982 0494 00F08180 		beq	.L60
 2983              		.loc 1 423 3 discriminator 98
 2984 0498 7B68     		ldr	r3, [r7, #4]
 2985 049a 4C4A     		ldr	r2, .L64+8
 2986 049c 9342     		cmp	r3, r2
ARM GAS  /tmp/ccRTEIeG.s 			page 68


 2987 049e 7CD0     		beq	.L60
 2988              		.loc 1 423 3 discriminator 99
 2989 04a0 7B68     		ldr	r3, [r7, #4]
 2990 04a2 4B4A     		ldr	r2, .L64+12
 2991 04a4 9342     		cmp	r3, r2
 2992 04a6 78D0     		beq	.L60
 2993              		.loc 1 423 3 discriminator 100
 2994 04a8 7B68     		ldr	r3, [r7, #4]
 2995 04aa 4A4A     		ldr	r2, .L64+16
 2996 04ac 9342     		cmp	r3, r2
 2997 04ae 74D0     		beq	.L60
 2998              		.loc 1 423 3 discriminator 101
 2999 04b0 7B68     		ldr	r3, [r7, #4]
 3000 04b2 494A     		ldr	r2, .L64+20
 3001 04b4 9342     		cmp	r3, r2
 3002 04b6 70D0     		beq	.L60
 3003              		.loc 1 423 3 discriminator 102
 3004 04b8 7B68     		ldr	r3, [r7, #4]
 3005 04ba 484A     		ldr	r2, .L64+24
 3006 04bc 9342     		cmp	r3, r2
 3007 04be 6CD0     		beq	.L60
 3008              		.loc 1 423 3 discriminator 103
 3009 04c0 7B68     		ldr	r3, [r7, #4]
 3010 04c2 474A     		ldr	r2, .L64+28
 3011 04c4 9342     		cmp	r3, r2
 3012 04c6 68D0     		beq	.L60
 3013              		.loc 1 423 3 discriminator 104
 3014 04c8 7B68     		ldr	r3, [r7, #4]
 3015 04ca 464A     		ldr	r2, .L64+32
 3016 04cc 9342     		cmp	r3, r2
 3017 04ce 64D0     		beq	.L60
 3018              		.loc 1 423 3 discriminator 105
 3019 04d0 7B68     		ldr	r3, [r7, #4]
 3020 04d2 454A     		ldr	r2, .L64+36
 3021 04d4 9342     		cmp	r3, r2
 3022 04d6 60D0     		beq	.L60
 3023              		.loc 1 423 3 discriminator 106
 3024 04d8 7B68     		ldr	r3, [r7, #4]
 3025 04da B3F1A04F 		cmp	r3, #1342177280
 3026 04de 5CD0     		beq	.L60
 3027              		.loc 1 423 3 discriminator 107
 3028 04e0 7B68     		ldr	r3, [r7, #4]
 3029 04e2 424A     		ldr	r2, .L64+40
 3030 04e4 9342     		cmp	r3, r2
 3031 04e6 58D0     		beq	.L60
 3032              		.loc 1 423 3 discriminator 108
 3033 04e8 7B68     		ldr	r3, [r7, #4]
 3034 04ea 414A     		ldr	r2, .L64+44
 3035 04ec 9342     		cmp	r3, r2
 3036 04ee 54D0     		beq	.L60
 3037              		.loc 1 423 3 discriminator 109
 3038 04f0 7B68     		ldr	r3, [r7, #4]
 3039 04f2 404A     		ldr	r2, .L64+48
 3040 04f4 9342     		cmp	r3, r2
 3041 04f6 50D0     		beq	.L60
 3042              		.loc 1 423 3 discriminator 110
 3043 04f8 7B68     		ldr	r3, [r7, #4]
ARM GAS  /tmp/ccRTEIeG.s 			page 69


 3044 04fa 3F4A     		ldr	r2, .L64+52
 3045 04fc 9342     		cmp	r3, r2
 3046 04fe 4CD0     		beq	.L60
 3047              		.loc 1 423 3 discriminator 111
 3048 0500 7B68     		ldr	r3, [r7, #4]
 3049 0502 3E4A     		ldr	r2, .L64+56
 3050 0504 9342     		cmp	r3, r2
 3051 0506 48D0     		beq	.L60
 3052              		.loc 1 423 3 discriminator 112
 3053 0508 7B68     		ldr	r3, [r7, #4]
 3054 050a 3D4A     		ldr	r2, .L64+60
 3055 050c 9342     		cmp	r3, r2
 3056 050e 44D0     		beq	.L60
 3057              		.loc 1 423 3 discriminator 113
 3058 0510 7B68     		ldr	r3, [r7, #4]
 3059 0512 3C4A     		ldr	r2, .L64+64
 3060 0514 9342     		cmp	r3, r2
 3061 0516 40D0     		beq	.L60
 3062              		.loc 1 423 3 discriminator 114
 3063 0518 7B68     		ldr	r3, [r7, #4]
 3064 051a 3B4A     		ldr	r2, .L64+68
 3065 051c 9342     		cmp	r3, r2
 3066 051e 3CD0     		beq	.L60
 3067              		.loc 1 423 3 discriminator 115
 3068 0520 7B68     		ldr	r3, [r7, #4]
 3069 0522 3A4A     		ldr	r2, .L64+72
 3070 0524 9342     		cmp	r3, r2
 3071 0526 38D0     		beq	.L60
 3072              		.loc 1 423 3 discriminator 116
 3073 0528 7B68     		ldr	r3, [r7, #4]
 3074 052a 394A     		ldr	r2, .L64+76
 3075 052c 9342     		cmp	r3, r2
 3076 052e 34D0     		beq	.L60
 3077              		.loc 1 423 3 discriminator 117
 3078 0530 7B68     		ldr	r3, [r7, #4]
 3079 0532 384A     		ldr	r2, .L64+80
 3080 0534 9342     		cmp	r3, r2
 3081 0536 30D0     		beq	.L60
 3082              		.loc 1 423 3 discriminator 118
 3083 0538 7B68     		ldr	r3, [r7, #4]
 3084 053a 374A     		ldr	r2, .L64+84
 3085 053c 9342     		cmp	r3, r2
 3086 053e 2CD0     		beq	.L60
 3087              		.loc 1 423 3 discriminator 119
 3088 0540 7B68     		ldr	r3, [r7, #4]
 3089 0542 364A     		ldr	r2, .L64+88
 3090 0544 9342     		cmp	r3, r2
 3091 0546 28D0     		beq	.L60
 3092              		.loc 1 423 3 discriminator 120
 3093 0548 7B68     		ldr	r3, [r7, #4]
 3094 054a 354A     		ldr	r2, .L64+92
 3095 054c 9342     		cmp	r3, r2
 3096 054e 24D0     		beq	.L60
 3097              		.loc 1 423 3 discriminator 121
 3098 0550 7B68     		ldr	r3, [r7, #4]
 3099 0552 344A     		ldr	r2, .L64+96
 3100 0554 9342     		cmp	r3, r2
ARM GAS  /tmp/ccRTEIeG.s 			page 70


 3101 0556 20D0     		beq	.L60
 3102              		.loc 1 423 3 discriminator 122
 3103 0558 7B68     		ldr	r3, [r7, #4]
 3104 055a 334A     		ldr	r2, .L64+100
 3105 055c 9342     		cmp	r3, r2
 3106 055e 1CD0     		beq	.L60
 3107              		.loc 1 423 3 discriminator 123
 3108 0560 7B68     		ldr	r3, [r7, #4]
 3109 0562 324A     		ldr	r2, .L64+104
 3110 0564 9342     		cmp	r3, r2
 3111 0566 18D0     		beq	.L60
 3112              		.loc 1 423 3 discriminator 124
 3113 0568 7B68     		ldr	r3, [r7, #4]
 3114 056a 314A     		ldr	r2, .L64+108
 3115 056c 9342     		cmp	r3, r2
 3116 056e 14D0     		beq	.L60
 3117              		.loc 1 423 3 discriminator 125
 3118 0570 7B68     		ldr	r3, [r7, #4]
 3119 0572 304A     		ldr	r2, .L64+112
 3120 0574 9342     		cmp	r3, r2
 3121 0576 10D0     		beq	.L60
 3122              		.loc 1 423 3 discriminator 126
 3123 0578 7B68     		ldr	r3, [r7, #4]
 3124 057a 2F4A     		ldr	r2, .L64+116
 3125 057c 9342     		cmp	r3, r2
 3126 057e 0CD0     		beq	.L60
 3127              		.loc 1 423 3 discriminator 127
 3128 0580 7B68     		ldr	r3, [r7, #4]
 3129 0582 2E4A     		ldr	r2, .L64+120
 3130 0584 9342     		cmp	r3, r2
 3131 0586 08D0     		beq	.L60
 3132              		.loc 1 423 3 discriminator 128
 3133 0588 7B68     		ldr	r3, [r7, #4]
 3134 058a 2D4A     		ldr	r2, .L64+124
 3135 058c 9342     		cmp	r3, r2
 3136 058e 04D0     		beq	.L60
 3137              		.loc 1 423 3 discriminator 129
 3138 0590 40F2A711 		movw	r1, #423
 3139 0594 2B48     		ldr	r0, .L64+128
 3140 0596 FFF7FEFF 		bl	assert_failed
 3141              	.L60:
 424:STM32Cube_FW_N6/Drivers/STM32N6xx_HAL_Driver/Src/stm32n6xx_hal_rif.c **** 
 425:STM32Cube_FW_N6/Drivers/STM32N6xx_HAL_Driver/Src/stm32n6xx_hal_rif.c ****   /* Set RISC Peripheral Lock bit */
 426:STM32Cube_FW_N6/Drivers/STM32N6xx_HAL_Driver/Src/stm32n6xx_hal_rif.c ****   p_lock_reg = &(RIFSC->RISC_RCFGLOCKRx[PeriphId >> RIF_PERIPH_REG_SHIFT]);
 3142              		.loc 1 426 50 is_stmt 1
 3143 059a 7B68     		ldr	r3, [r7, #4]
 3144 059c 1B0F     		lsrs	r3, r3, #28
 3145              		.loc 1 426 16
 3146 059e 9A00     		lsls	r2, r3, #2
 3147              		.loc 1 426 14
 3148 05a0 294B     		ldr	r3, .L64+132
 3149 05a2 1344     		add	r3, r3, r2
 3150 05a4 FB60     		str	r3, [r7, #12]
 427:STM32Cube_FW_N6/Drivers/STM32N6xx_HAL_Driver/Src/stm32n6xx_hal_rif.c ****   *p_lock_reg |= (RIF_LOCK_ENABLE << (PeriphId & RIF_PERIPH_BIT_POSITION));
 3151              		.loc 1 427 3
 3152 05a6 FB68     		ldr	r3, [r7, #12]
 3153 05a8 1A68     		ldr	r2, [r3]
ARM GAS  /tmp/ccRTEIeG.s 			page 71


 3154              		.loc 1 427 48
 3155 05aa 7B68     		ldr	r3, [r7, #4]
 3156 05ac 03F01F03 		and	r3, r3, #31
 3157              		.loc 1 427 35
 3158 05b0 0121     		movs	r1, #1
 3159 05b2 01FA03F3 		lsl	r3, r1, r3
 3160              		.loc 1 427 15
 3161 05b6 1A43     		orrs	r2, r2, r3
 3162 05b8 FB68     		ldr	r3, [r7, #12]
 3163 05ba 1A60     		str	r2, [r3]
 428:STM32Cube_FW_N6/Drivers/STM32N6xx_HAL_Driver/Src/stm32n6xx_hal_rif.c **** }
 3164              		.loc 1 428 1
 3165 05bc 00BF     		nop
 3166 05be 1037     		adds	r7, r7, #16
 3167              		.cfi_def_cfa_offset 8
 3168 05c0 BD46     		mov	sp, r7
 3169              		.cfi_def_cfa_register 13
 3170              		@ sp needed
 3171 05c2 80BD     		pop	{r7, pc}
 3172              	.L65:
 3173              		.align	2
 3174              	.L64:
 3175 05c4 0C000040 		.word	1073741836
 3176 05c8 0D000040 		.word	1073741837
 3177 05cc 11000040 		.word	1073741841
 3178 05d0 12000040 		.word	1073741842
 3179 05d4 13000040 		.word	1073741843
 3180 05d8 19000040 		.word	1073741849
 3181 05dc 1B000040 		.word	1073741851
 3182 05e0 1C000040 		.word	1073741852
 3183 05e4 1D000040 		.word	1073741853
 3184 05e8 1F000040 		.word	1073741855
 3185 05ec 01000050 		.word	1342177281
 3186 05f0 02000050 		.word	1342177282
 3187 05f4 03000050 		.word	1342177283
 3188 05f8 04000050 		.word	1342177284
 3189 05fc 05000050 		.word	1342177285
 3190 0600 06000050 		.word	1342177286
 3191 0604 08000050 		.word	1342177288
 3192 0608 09000050 		.word	1342177289
 3193 060c 0A000050 		.word	1342177290
 3194 0610 0B000050 		.word	1342177291
 3195 0614 0D000050 		.word	1342177293
 3196 0618 0E000050 		.word	1342177294
 3197 061c 0F000050 		.word	1342177295
 3198 0620 11000050 		.word	1342177297
 3199 0624 12000050 		.word	1342177298
 3200 0628 13000050 		.word	1342177299
 3201 062c 14000050 		.word	1342177300
 3202 0630 16000050 		.word	1342177302
 3203 0634 17000050 		.word	1342177303
 3204 0638 18000050 		.word	1342177304
 3205 063c 1B000050 		.word	1342177307
 3206 0640 1E000050 		.word	1342177310
 3207 0644 00000000 		.word	.LC0
 3208 0648 50400254 		.word	1409433680
 3209              		.cfi_endproc
ARM GAS  /tmp/ccRTEIeG.s 			page 72


 3210              	.LFE845:
 3212              		.section	.text.HAL_RIF_RISC_GetSlaveConfigLock,"ax",%progbits
 3213              		.align	1
 3214              		.global	HAL_RIF_RISC_GetSlaveConfigLock
 3215              		.syntax unified
 3216              		.thumb
 3217              		.thumb_func
 3219              	HAL_RIF_RISC_GetSlaveConfigLock:
 3220              	.LFB846:
 429:STM32Cube_FW_N6/Drivers/STM32N6xx_HAL_Driver/Src/stm32n6xx_hal_rif.c **** #endif /* defined(CPU_AS_TRUSTED_DOMAIN) */
 430:STM32Cube_FW_N6/Drivers/STM32N6xx_HAL_Driver/Src/stm32n6xx_hal_rif.c **** 
 431:STM32Cube_FW_N6/Drivers/STM32N6xx_HAL_Driver/Src/stm32n6xx_hal_rif.c **** /**
 432:STM32Cube_FW_N6/Drivers/STM32N6xx_HAL_Driver/Src/stm32n6xx_hal_rif.c ****   * @brief  Get the Isolation and Security configuration lock status.
 433:STM32Cube_FW_N6/Drivers/STM32N6xx_HAL_Driver/Src/stm32n6xx_hal_rif.c ****   * @param  PeriphId specifies the index of the bus slave.
 434:STM32Cube_FW_N6/Drivers/STM32N6xx_HAL_Driver/Src/stm32n6xx_hal_rif.c ****   *         This parameter can be one of @ref RIF_PERIPHERAL_INDEX
 435:STM32Cube_FW_N6/Drivers/STM32N6xx_HAL_Driver/Src/stm32n6xx_hal_rif.c ****   *         bits[31:28] define the register index a peripheral belongs to, value from 0 to 5
 436:STM32Cube_FW_N6/Drivers/STM32N6xx_HAL_Driver/Src/stm32n6xx_hal_rif.c ****   *         bits[4:0]   define the bit position within the register, value from 0 to 31
 437:STM32Cube_FW_N6/Drivers/STM32N6xx_HAL_Driver/Src/stm32n6xx_hal_rif.c ****   * @retval 1 if the Isolation and Security configuration is locked, else 0
 438:STM32Cube_FW_N6/Drivers/STM32N6xx_HAL_Driver/Src/stm32n6xx_hal_rif.c ****   */
 439:STM32Cube_FW_N6/Drivers/STM32N6xx_HAL_Driver/Src/stm32n6xx_hal_rif.c **** uint32_t HAL_RIF_RISC_GetSlaveConfigLock(uint32_t PeriphId)
 440:STM32Cube_FW_N6/Drivers/STM32N6xx_HAL_Driver/Src/stm32n6xx_hal_rif.c **** {
 3221              		.loc 1 440 1
 3222              		.cfi_startproc
 3223              		@ args = 0, pretend = 0, frame = 16
 3224              		@ frame_needed = 1, uses_anonymous_args = 0
 3225 0000 80B5     		push	{r7, lr}
 3226              		.cfi_def_cfa_offset 8
 3227              		.cfi_offset 7, -8
 3228              		.cfi_offset 14, -4
 3229 0002 84B0     		sub	sp, sp, #16
 3230              		.cfi_def_cfa_offset 24
 3231 0004 00AF     		add	r7, sp, #0
 3232              		.cfi_def_cfa_register 7
 3233 0006 7860     		str	r0, [r7, #4]
 441:STM32Cube_FW_N6/Drivers/STM32N6xx_HAL_Driver/Src/stm32n6xx_hal_rif.c ****   uint32_t lock_status;
 442:STM32Cube_FW_N6/Drivers/STM32N6xx_HAL_Driver/Src/stm32n6xx_hal_rif.c ****   const __IO uint32_t *p_lock_reg;
 443:STM32Cube_FW_N6/Drivers/STM32N6xx_HAL_Driver/Src/stm32n6xx_hal_rif.c **** 
 444:STM32Cube_FW_N6/Drivers/STM32N6xx_HAL_Driver/Src/stm32n6xx_hal_rif.c ****   assert_param(IS_RIF_RISC_PERIPH_INDEX(PeriphId) || IS_RIF_RCC_PERIPH_INDEX(PeriphId));
 3234              		.loc 1 444 3
 3235 0008 7B68     		ldr	r3, [r7, #4]
 3236 000a 002B     		cmp	r3, #0
 3237 000c 00F0C582 		beq	.L67
 3238              		.loc 1 444 3 is_stmt 0 discriminator 1
 3239 0010 7B68     		ldr	r3, [r7, #4]
 3240 0012 012B     		cmp	r3, #1
 3241 0014 00F0C182 		beq	.L67
 3242              		.loc 1 444 3 discriminator 2
 3243 0018 7B68     		ldr	r3, [r7, #4]
 3244 001a 022B     		cmp	r3, #2
 3245 001c 00F0BD82 		beq	.L67
 3246              		.loc 1 444 3 discriminator 3
 3247 0020 7B68     		ldr	r3, [r7, #4]
 3248 0022 032B     		cmp	r3, #3
 3249 0024 00F0B982 		beq	.L67
 3250              		.loc 1 444 3 discriminator 4
 3251 0028 7B68     		ldr	r3, [r7, #4]
 3252 002a 042B     		cmp	r3, #4
ARM GAS  /tmp/ccRTEIeG.s 			page 73


 3253 002c 00F0B582 		beq	.L67
 3254              		.loc 1 444 3 discriminator 5
 3255 0030 7B68     		ldr	r3, [r7, #4]
 3256 0032 052B     		cmp	r3, #5
 3257 0034 00F0B182 		beq	.L67
 3258              		.loc 1 444 3 discriminator 6
 3259 0038 7B68     		ldr	r3, [r7, #4]
 3260 003a 062B     		cmp	r3, #6
 3261 003c 00F0AD82 		beq	.L67
 3262              		.loc 1 444 3 discriminator 7
 3263 0040 7B68     		ldr	r3, [r7, #4]
 3264 0042 082B     		cmp	r3, #8
 3265 0044 00F0A982 		beq	.L67
 3266              		.loc 1 444 3 discriminator 8
 3267 0048 7B68     		ldr	r3, [r7, #4]
 3268 004a 092B     		cmp	r3, #9
 3269 004c 00F0A582 		beq	.L67
 3270              		.loc 1 444 3 discriminator 9
 3271 0050 7B68     		ldr	r3, [r7, #4]
 3272 0052 0A2B     		cmp	r3, #10
 3273 0054 00F0A182 		beq	.L67
 3274              		.loc 1 444 3 discriminator 10
 3275 0058 7B68     		ldr	r3, [r7, #4]
 3276 005a 0B2B     		cmp	r3, #11
 3277 005c 00F09D82 		beq	.L67
 3278              		.loc 1 444 3 discriminator 11
 3279 0060 7B68     		ldr	r3, [r7, #4]
 3280 0062 0C2B     		cmp	r3, #12
 3281 0064 00F09982 		beq	.L67
 3282              		.loc 1 444 3 discriminator 12
 3283 0068 7B68     		ldr	r3, [r7, #4]
 3284 006a 0D2B     		cmp	r3, #13
 3285 006c 00F09582 		beq	.L67
 3286              		.loc 1 444 3 discriminator 13
 3287 0070 7B68     		ldr	r3, [r7, #4]
 3288 0072 0E2B     		cmp	r3, #14
 3289 0074 00F09182 		beq	.L67
 3290              		.loc 1 444 3 discriminator 14
 3291 0078 7B68     		ldr	r3, [r7, #4]
 3292 007a 0F2B     		cmp	r3, #15
 3293 007c 00F08D82 		beq	.L67
 3294              		.loc 1 444 3 discriminator 15
 3295 0080 7B68     		ldr	r3, [r7, #4]
 3296 0082 102B     		cmp	r3, #16
 3297 0084 00F08982 		beq	.L67
 3298              		.loc 1 444 3 discriminator 16
 3299 0088 7B68     		ldr	r3, [r7, #4]
 3300 008a 112B     		cmp	r3, #17
 3301 008c 00F08582 		beq	.L67
 3302              		.loc 1 444 3 discriminator 17
 3303 0090 7B68     		ldr	r3, [r7, #4]
 3304 0092 122B     		cmp	r3, #18
 3305 0094 00F08182 		beq	.L67
 3306              		.loc 1 444 3 discriminator 18
 3307 0098 7B68     		ldr	r3, [r7, #4]
 3308 009a 132B     		cmp	r3, #19
 3309 009c 00F07D82 		beq	.L67
ARM GAS  /tmp/ccRTEIeG.s 			page 74


 3310              		.loc 1 444 3 discriminator 19
 3311 00a0 7B68     		ldr	r3, [r7, #4]
 3312 00a2 142B     		cmp	r3, #20
 3313 00a4 00F07982 		beq	.L67
 3314              		.loc 1 444 3 discriminator 20
 3315 00a8 7B68     		ldr	r3, [r7, #4]
 3316 00aa 152B     		cmp	r3, #21
 3317 00ac 00F07582 		beq	.L67
 3318              		.loc 1 444 3 discriminator 21
 3319 00b0 7B68     		ldr	r3, [r7, #4]
 3320 00b2 162B     		cmp	r3, #22
 3321 00b4 00F07182 		beq	.L67
 3322              		.loc 1 444 3 discriminator 22
 3323 00b8 7B68     		ldr	r3, [r7, #4]
 3324 00ba 172B     		cmp	r3, #23
 3325 00bc 00F06D82 		beq	.L67
 3326              		.loc 1 444 3 discriminator 23
 3327 00c0 7B68     		ldr	r3, [r7, #4]
 3328 00c2 182B     		cmp	r3, #24
 3329 00c4 00F06982 		beq	.L67
 3330              		.loc 1 444 3 discriminator 24
 3331 00c8 7B68     		ldr	r3, [r7, #4]
 3332 00ca 192B     		cmp	r3, #25
 3333 00cc 00F06582 		beq	.L67
 3334              		.loc 1 444 3 discriminator 25
 3335 00d0 7B68     		ldr	r3, [r7, #4]
 3336 00d2 1A2B     		cmp	r3, #26
 3337 00d4 00F06182 		beq	.L67
 3338              		.loc 1 444 3 discriminator 26
 3339 00d8 7B68     		ldr	r3, [r7, #4]
 3340 00da 1B2B     		cmp	r3, #27
 3341 00dc 00F05D82 		beq	.L67
 3342              		.loc 1 444 3 discriminator 27
 3343 00e0 7B68     		ldr	r3, [r7, #4]
 3344 00e2 1C2B     		cmp	r3, #28
 3345 00e4 00F05982 		beq	.L67
 3346              		.loc 1 444 3 discriminator 28
 3347 00e8 7B68     		ldr	r3, [r7, #4]
 3348 00ea 1D2B     		cmp	r3, #29
 3349 00ec 00F05582 		beq	.L67
 3350              		.loc 1 444 3 discriminator 29
 3351 00f0 7B68     		ldr	r3, [r7, #4]
 3352 00f2 1E2B     		cmp	r3, #30
 3353 00f4 00F05182 		beq	.L67
 3354              		.loc 1 444 3 discriminator 30
 3355 00f8 7B68     		ldr	r3, [r7, #4]
 3356 00fa 1F2B     		cmp	r3, #31
 3357 00fc 00F04D82 		beq	.L67
 3358              		.loc 1 444 3 discriminator 31
 3359 0100 7B68     		ldr	r3, [r7, #4]
 3360 0102 B3F1805F 		cmp	r3, #268435456
 3361 0106 00F04882 		beq	.L67
 3362              		.loc 1 444 3 discriminator 32
 3363 010a 7B68     		ldr	r3, [r7, #4]
 3364 010c 9F4A     		ldr	r2, .L69
 3365 010e 9342     		cmp	r3, r2
 3366 0110 00F04382 		beq	.L67
ARM GAS  /tmp/ccRTEIeG.s 			page 75


 3367              		.loc 1 444 3 discriminator 33
 3368 0114 7B68     		ldr	r3, [r7, #4]
 3369 0116 9E4A     		ldr	r2, .L69+4
 3370 0118 9342     		cmp	r3, r2
 3371 011a 00F03E82 		beq	.L67
 3372              		.loc 1 444 3 discriminator 34
 3373 011e 7B68     		ldr	r3, [r7, #4]
 3374 0120 9C4A     		ldr	r2, .L69+8
 3375 0122 9342     		cmp	r3, r2
 3376 0124 00F03982 		beq	.L67
 3377              		.loc 1 444 3 discriminator 35
 3378 0128 7B68     		ldr	r3, [r7, #4]
 3379 012a 9B4A     		ldr	r2, .L69+12
 3380 012c 9342     		cmp	r3, r2
 3381 012e 00F03482 		beq	.L67
 3382              		.loc 1 444 3 discriminator 36
 3383 0132 7B68     		ldr	r3, [r7, #4]
 3384 0134 994A     		ldr	r2, .L69+16
 3385 0136 9342     		cmp	r3, r2
 3386 0138 00F02F82 		beq	.L67
 3387              		.loc 1 444 3 discriminator 37
 3388 013c 7B68     		ldr	r3, [r7, #4]
 3389 013e 984A     		ldr	r2, .L69+20
 3390 0140 9342     		cmp	r3, r2
 3391 0142 00F02A82 		beq	.L67
 3392              		.loc 1 444 3 discriminator 38
 3393 0146 7B68     		ldr	r3, [r7, #4]
 3394 0148 964A     		ldr	r2, .L69+24
 3395 014a 9342     		cmp	r3, r2
 3396 014c 00F02582 		beq	.L67
 3397              		.loc 1 444 3 discriminator 39
 3398 0150 7B68     		ldr	r3, [r7, #4]
 3399 0152 954A     		ldr	r2, .L69+28
 3400 0154 9342     		cmp	r3, r2
 3401 0156 00F02082 		beq	.L67
 3402              		.loc 1 444 3 discriminator 40
 3403 015a 7B68     		ldr	r3, [r7, #4]
 3404 015c 934A     		ldr	r2, .L69+32
 3405 015e 9342     		cmp	r3, r2
 3406 0160 00F01B82 		beq	.L67
 3407              		.loc 1 444 3 discriminator 41
 3408 0164 7B68     		ldr	r3, [r7, #4]
 3409 0166 924A     		ldr	r2, .L69+36
 3410 0168 9342     		cmp	r3, r2
 3411 016a 00F01682 		beq	.L67
 3412              		.loc 1 444 3 discriminator 42
 3413 016e 7B68     		ldr	r3, [r7, #4]
 3414 0170 904A     		ldr	r2, .L69+40
 3415 0172 9342     		cmp	r3, r2
 3416 0174 00F01182 		beq	.L67
 3417              		.loc 1 444 3 discriminator 43
 3418 0178 7B68     		ldr	r3, [r7, #4]
 3419 017a 8F4A     		ldr	r2, .L69+44
 3420 017c 9342     		cmp	r3, r2
 3421 017e 00F00C82 		beq	.L67
 3422              		.loc 1 444 3 discriminator 44
 3423 0182 7B68     		ldr	r3, [r7, #4]
ARM GAS  /tmp/ccRTEIeG.s 			page 76


 3424 0184 8D4A     		ldr	r2, .L69+48
 3425 0186 9342     		cmp	r3, r2
 3426 0188 00F00782 		beq	.L67
 3427              		.loc 1 444 3 discriminator 45
 3428 018c 7B68     		ldr	r3, [r7, #4]
 3429 018e 8C4A     		ldr	r2, .L69+52
 3430 0190 9342     		cmp	r3, r2
 3431 0192 00F00282 		beq	.L67
 3432              		.loc 1 444 3 discriminator 46
 3433 0196 7B68     		ldr	r3, [r7, #4]
 3434 0198 8A4A     		ldr	r2, .L69+56
 3435 019a 9342     		cmp	r3, r2
 3436 019c 00F0FD81 		beq	.L67
 3437              		.loc 1 444 3 discriminator 47
 3438 01a0 7B68     		ldr	r3, [r7, #4]
 3439 01a2 894A     		ldr	r2, .L69+60
 3440 01a4 9342     		cmp	r3, r2
 3441 01a6 00F0F881 		beq	.L67
 3442              		.loc 1 444 3 discriminator 48
 3443 01aa 7B68     		ldr	r3, [r7, #4]
 3444 01ac 874A     		ldr	r2, .L69+64
 3445 01ae 9342     		cmp	r3, r2
 3446 01b0 00F0F381 		beq	.L67
 3447              		.loc 1 444 3 discriminator 49
 3448 01b4 7B68     		ldr	r3, [r7, #4]
 3449 01b6 864A     		ldr	r2, .L69+68
 3450 01b8 9342     		cmp	r3, r2
 3451 01ba 00F0EE81 		beq	.L67
 3452              		.loc 1 444 3 discriminator 50
 3453 01be 7B68     		ldr	r3, [r7, #4]
 3454 01c0 844A     		ldr	r2, .L69+72
 3455 01c2 9342     		cmp	r3, r2
 3456 01c4 00F0E981 		beq	.L67
 3457              		.loc 1 444 3 discriminator 51
 3458 01c8 7B68     		ldr	r3, [r7, #4]
 3459 01ca 834A     		ldr	r2, .L69+76
 3460 01cc 9342     		cmp	r3, r2
 3461 01ce 00F0E481 		beq	.L67
 3462              		.loc 1 444 3 discriminator 52
 3463 01d2 7B68     		ldr	r3, [r7, #4]
 3464 01d4 814A     		ldr	r2, .L69+80
 3465 01d6 9342     		cmp	r3, r2
 3466 01d8 00F0DF81 		beq	.L67
 3467              		.loc 1 444 3 discriminator 53
 3468 01dc 7B68     		ldr	r3, [r7, #4]
 3469 01de 804A     		ldr	r2, .L69+84
 3470 01e0 9342     		cmp	r3, r2
 3471 01e2 00F0DA81 		beq	.L67
 3472              		.loc 1 444 3 discriminator 54
 3473 01e6 7B68     		ldr	r3, [r7, #4]
 3474 01e8 7E4A     		ldr	r2, .L69+88
 3475 01ea 9342     		cmp	r3, r2
 3476 01ec 00F0D581 		beq	.L67
 3477              		.loc 1 444 3 discriminator 55
 3478 01f0 7B68     		ldr	r3, [r7, #4]
 3479 01f2 7D4A     		ldr	r2, .L69+92
 3480 01f4 9342     		cmp	r3, r2
ARM GAS  /tmp/ccRTEIeG.s 			page 77


 3481 01f6 00F0D081 		beq	.L67
 3482              		.loc 1 444 3 discriminator 56
 3483 01fa 7B68     		ldr	r3, [r7, #4]
 3484 01fc 7B4A     		ldr	r2, .L69+96
 3485 01fe 9342     		cmp	r3, r2
 3486 0200 00F0CB81 		beq	.L67
 3487              		.loc 1 444 3 discriminator 57
 3488 0204 7B68     		ldr	r3, [r7, #4]
 3489 0206 7A4A     		ldr	r2, .L69+100
 3490 0208 9342     		cmp	r3, r2
 3491 020a 00F0C681 		beq	.L67
 3492              		.loc 1 444 3 discriminator 58
 3493 020e 7B68     		ldr	r3, [r7, #4]
 3494 0210 784A     		ldr	r2, .L69+104
 3495 0212 9342     		cmp	r3, r2
 3496 0214 00F0C181 		beq	.L67
 3497              		.loc 1 444 3 discriminator 59
 3498 0218 7B68     		ldr	r3, [r7, #4]
 3499 021a 774A     		ldr	r2, .L69+108
 3500 021c 9342     		cmp	r3, r2
 3501 021e 00F0BC81 		beq	.L67
 3502              		.loc 1 444 3 discriminator 60
 3503 0222 7B68     		ldr	r3, [r7, #4]
 3504 0224 754A     		ldr	r2, .L69+112
 3505 0226 9342     		cmp	r3, r2
 3506 0228 00F0B781 		beq	.L67
 3507              		.loc 1 444 3 discriminator 61
 3508 022c 7B68     		ldr	r3, [r7, #4]
 3509 022e B3F1005F 		cmp	r3, #536870912
 3510 0232 00F0B281 		beq	.L67
 3511              		.loc 1 444 3 discriminator 62
 3512 0236 7B68     		ldr	r3, [r7, #4]
 3513 0238 714A     		ldr	r2, .L69+116
 3514 023a 9342     		cmp	r3, r2
 3515 023c 00F0AD81 		beq	.L67
 3516              		.loc 1 444 3 discriminator 63
 3517 0240 7B68     		ldr	r3, [r7, #4]
 3518 0242 704A     		ldr	r2, .L69+120
 3519 0244 9342     		cmp	r3, r2
 3520 0246 00F0A881 		beq	.L67
 3521              		.loc 1 444 3 discriminator 64
 3522 024a 7B68     		ldr	r3, [r7, #4]
 3523 024c 6E4A     		ldr	r2, .L69+124
 3524 024e 9342     		cmp	r3, r2
 3525 0250 00F0A381 		beq	.L67
 3526              		.loc 1 444 3 discriminator 65
 3527 0254 7B68     		ldr	r3, [r7, #4]
 3528 0256 6D4A     		ldr	r2, .L69+128
 3529 0258 9342     		cmp	r3, r2
 3530 025a 00F09E81 		beq	.L67
 3531              		.loc 1 444 3 discriminator 66
 3532 025e 7B68     		ldr	r3, [r7, #4]
 3533 0260 6B4A     		ldr	r2, .L69+132
 3534 0262 9342     		cmp	r3, r2
 3535 0264 00F09981 		beq	.L67
 3536              		.loc 1 444 3 discriminator 67
 3537 0268 7B68     		ldr	r3, [r7, #4]
ARM GAS  /tmp/ccRTEIeG.s 			page 78


 3538 026a 6A4A     		ldr	r2, .L69+136
 3539 026c 9342     		cmp	r3, r2
 3540 026e 00F09481 		beq	.L67
 3541              		.loc 1 444 3 discriminator 68
 3542 0272 7B68     		ldr	r3, [r7, #4]
 3543 0274 684A     		ldr	r2, .L69+140
 3544 0276 9342     		cmp	r3, r2
 3545 0278 00F08F81 		beq	.L67
 3546              		.loc 1 444 3 discriminator 69
 3547 027c 7B68     		ldr	r3, [r7, #4]
 3548 027e 674A     		ldr	r2, .L69+144
 3549 0280 9342     		cmp	r3, r2
 3550 0282 00F08A81 		beq	.L67
 3551              		.loc 1 444 3 discriminator 70
 3552 0286 7B68     		ldr	r3, [r7, #4]
 3553 0288 654A     		ldr	r2, .L69+148
 3554 028a 9342     		cmp	r3, r2
 3555 028c 00F08581 		beq	.L67
 3556              		.loc 1 444 3 discriminator 71
 3557 0290 7B68     		ldr	r3, [r7, #4]
 3558 0292 644A     		ldr	r2, .L69+152
 3559 0294 9342     		cmp	r3, r2
 3560 0296 00F08081 		beq	.L67
 3561              		.loc 1 444 3 discriminator 72
 3562 029a 7B68     		ldr	r3, [r7, #4]
 3563 029c 624A     		ldr	r2, .L69+156
 3564 029e 9342     		cmp	r3, r2
 3565 02a0 00F07B81 		beq	.L67
 3566              		.loc 1 444 3 discriminator 73
 3567 02a4 7B68     		ldr	r3, [r7, #4]
 3568 02a6 614A     		ldr	r2, .L69+160
 3569 02a8 9342     		cmp	r3, r2
 3570 02aa 00F07681 		beq	.L67
 3571              		.loc 1 444 3 discriminator 74
 3572 02ae 7B68     		ldr	r3, [r7, #4]
 3573 02b0 5F4A     		ldr	r2, .L69+164
 3574 02b2 9342     		cmp	r3, r2
 3575 02b4 00F07181 		beq	.L67
 3576              		.loc 1 444 3 discriminator 75
 3577 02b8 7B68     		ldr	r3, [r7, #4]
 3578 02ba 5E4A     		ldr	r2, .L69+168
 3579 02bc 9342     		cmp	r3, r2
 3580 02be 00F06C81 		beq	.L67
 3581              		.loc 1 444 3 discriminator 76
 3582 02c2 7B68     		ldr	r3, [r7, #4]
 3583 02c4 5C4A     		ldr	r2, .L69+172
 3584 02c6 9342     		cmp	r3, r2
 3585 02c8 00F06781 		beq	.L67
 3586              		.loc 1 444 3 discriminator 77
 3587 02cc 7B68     		ldr	r3, [r7, #4]
 3588 02ce 5B4A     		ldr	r2, .L69+176
 3589 02d0 9342     		cmp	r3, r2
 3590 02d2 00F06281 		beq	.L67
 3591              		.loc 1 444 3 discriminator 78
 3592 02d6 7B68     		ldr	r3, [r7, #4]
 3593 02d8 594A     		ldr	r2, .L69+180
 3594 02da 9342     		cmp	r3, r2
ARM GAS  /tmp/ccRTEIeG.s 			page 79


 3595 02dc 00F05D81 		beq	.L67
 3596              		.loc 1 444 3 discriminator 79
 3597 02e0 7B68     		ldr	r3, [r7, #4]
 3598 02e2 584A     		ldr	r2, .L69+184
 3599 02e4 9342     		cmp	r3, r2
 3600 02e6 00F05881 		beq	.L67
 3601              		.loc 1 444 3 discriminator 80
 3602 02ea 7B68     		ldr	r3, [r7, #4]
 3603 02ec 564A     		ldr	r2, .L69+188
 3604 02ee 9342     		cmp	r3, r2
 3605 02f0 00F05381 		beq	.L67
 3606              		.loc 1 444 3 discriminator 81
 3607 02f4 7B68     		ldr	r3, [r7, #4]
 3608 02f6 554A     		ldr	r2, .L69+192
 3609 02f8 9342     		cmp	r3, r2
 3610 02fa 00F04E81 		beq	.L67
 3611              		.loc 1 444 3 discriminator 82
 3612 02fe 7B68     		ldr	r3, [r7, #4]
 3613 0300 534A     		ldr	r2, .L69+196
 3614 0302 9342     		cmp	r3, r2
 3615 0304 00F04981 		beq	.L67
 3616              		.loc 1 444 3 discriminator 83
 3617 0308 7B68     		ldr	r3, [r7, #4]
 3618 030a B3F1405F 		cmp	r3, #805306368
 3619 030e 00F04481 		beq	.L67
 3620              		.loc 1 444 3 discriminator 84
 3621 0312 7B68     		ldr	r3, [r7, #4]
 3622 0314 4F4A     		ldr	r2, .L69+200
 3623 0316 9342     		cmp	r3, r2
 3624 0318 00F03F81 		beq	.L67
 3625              		.loc 1 444 3 discriminator 85
 3626 031c 7B68     		ldr	r3, [r7, #4]
 3627 031e 4E4A     		ldr	r2, .L69+204
 3628 0320 9342     		cmp	r3, r2
 3629 0322 00F03A81 		beq	.L67
 3630              		.loc 1 444 3 discriminator 86
 3631 0326 7B68     		ldr	r3, [r7, #4]
 3632 0328 4C4A     		ldr	r2, .L69+208
 3633 032a 9342     		cmp	r3, r2
 3634 032c 00F03581 		beq	.L67
 3635              		.loc 1 444 3 discriminator 87
 3636 0330 7B68     		ldr	r3, [r7, #4]
 3637 0332 4B4A     		ldr	r2, .L69+212
 3638 0334 9342     		cmp	r3, r2
 3639 0336 00F03081 		beq	.L67
 3640              		.loc 1 444 3 discriminator 88
 3641 033a 7B68     		ldr	r3, [r7, #4]
 3642 033c 494A     		ldr	r2, .L69+216
 3643 033e 9342     		cmp	r3, r2
 3644 0340 00F02B81 		beq	.L67
 3645              		.loc 1 444 3 discriminator 89
 3646 0344 7B68     		ldr	r3, [r7, #4]
 3647 0346 484A     		ldr	r2, .L69+220
 3648 0348 9342     		cmp	r3, r2
 3649 034a 00F02681 		beq	.L67
 3650              		.loc 1 444 3 discriminator 90
 3651 034e 7B68     		ldr	r3, [r7, #4]
ARM GAS  /tmp/ccRTEIeG.s 			page 80


 3652 0350 464A     		ldr	r2, .L69+224
 3653 0352 9342     		cmp	r3, r2
 3654 0354 00F02181 		beq	.L67
 3655              		.loc 1 444 3 discriminator 91
 3656 0358 7B68     		ldr	r3, [r7, #4]
 3657 035a 454A     		ldr	r2, .L69+228
 3658 035c 9342     		cmp	r3, r2
 3659 035e 00F01C81 		beq	.L67
 3660              		.loc 1 444 3 discriminator 92
 3661 0362 7B68     		ldr	r3, [r7, #4]
 3662 0364 434A     		ldr	r2, .L69+232
 3663 0366 9342     		cmp	r3, r2
 3664 0368 00F01781 		beq	.L67
 3665              		.loc 1 444 3 discriminator 93
 3666 036c 7B68     		ldr	r3, [r7, #4]
 3667 036e 424A     		ldr	r2, .L69+236
 3668 0370 9342     		cmp	r3, r2
 3669 0372 00F01281 		beq	.L67
 3670              		.loc 1 444 3 discriminator 94
 3671 0376 7B68     		ldr	r3, [r7, #4]
 3672 0378 404A     		ldr	r2, .L69+240
 3673 037a 9342     		cmp	r3, r2
 3674 037c 00F00D81 		beq	.L67
 3675              		.loc 1 444 3 discriminator 95
 3676 0380 7B68     		ldr	r3, [r7, #4]
 3677 0382 3F4A     		ldr	r2, .L69+244
 3678 0384 9342     		cmp	r3, r2
 3679 0386 00F00881 		beq	.L67
 3680 038a 7BE0     		b	.L70
 3681              	.L71:
 3682              		.align	2
 3683              	.L69:
 3684 038c 01000010 		.word	268435457
 3685 0390 02000010 		.word	268435458
 3686 0394 03000010 		.word	268435459
 3687 0398 04000010 		.word	268435460
 3688 039c 05000010 		.word	268435461
 3689 03a0 06000010 		.word	268435462
 3690 03a4 07000010 		.word	268435463
 3691 03a8 08000010 		.word	268435464
 3692 03ac 09000010 		.word	268435465
 3693 03b0 0A000010 		.word	268435466
 3694 03b4 0B000010 		.word	268435467
 3695 03b8 0C000010 		.word	268435468
 3696 03bc 0D000010 		.word	268435469
 3697 03c0 0E000010 		.word	268435470
 3698 03c4 0F000010 		.word	268435471
 3699 03c8 10000010 		.word	268435472
 3700 03cc 11000010 		.word	268435473
 3701 03d0 12000010 		.word	268435474
 3702 03d4 13000010 		.word	268435475
 3703 03d8 14000010 		.word	268435476
 3704 03dc 15000010 		.word	268435477
 3705 03e0 16000010 		.word	268435478
 3706 03e4 17000010 		.word	268435479
 3707 03e8 18000010 		.word	268435480
 3708 03ec 19000010 		.word	268435481
ARM GAS  /tmp/ccRTEIeG.s 			page 81


 3709 03f0 1A000010 		.word	268435482
 3710 03f4 1C000010 		.word	268435484
 3711 03f8 1D000010 		.word	268435485
 3712 03fc 1E000010 		.word	268435486
 3713 0400 01000020 		.word	536870913
 3714 0404 03000020 		.word	536870915
 3715 0408 04000020 		.word	536870916
 3716 040c 05000020 		.word	536870917
 3717 0410 0C000020 		.word	536870924
 3718 0414 0D000020 		.word	536870925
 3719 0418 0E000020 		.word	536870926
 3720 041c 0F000020 		.word	536870927
 3721 0420 10000020 		.word	536870928
 3722 0424 11000020 		.word	536870929
 3723 0428 12000020 		.word	536870930
 3724 042c 13000020 		.word	536870931
 3725 0430 14000020 		.word	536870932
 3726 0434 16000020 		.word	536870934
 3727 0438 17000020 		.word	536870935
 3728 043c 18000020 		.word	536870936
 3729 0440 19000020 		.word	536870937
 3730 0444 1A000020 		.word	536870938
 3731 0448 1C000020 		.word	536870940
 3732 044c 1D000020 		.word	536870941
 3733 0450 1E000020 		.word	536870942
 3734 0454 01000030 		.word	805306369
 3735 0458 02000030 		.word	805306370
 3736 045c 03000030 		.word	805306371
 3737 0460 04000030 		.word	805306372
 3738 0464 05000030 		.word	805306373
 3739 0468 06000030 		.word	805306374
 3740 046c 07000030 		.word	805306375
 3741 0470 08000030 		.word	805306376
 3742 0474 0A000030 		.word	805306378
 3743 0478 02000040 		.word	1073741826
 3744 047c 03000040 		.word	1073741827
 3745 0480 05000040 		.word	1073741829
 3746              	.L70:
 3747              		.loc 1 444 3 discriminator 96
 3748 0484 7B68     		ldr	r3, [r7, #4]
 3749 0486 524A     		ldr	r2, .L72
 3750 0488 9342     		cmp	r3, r2
 3751 048a 00F08680 		beq	.L67
 3752              		.loc 1 444 3 discriminator 97
 3753 048e 7B68     		ldr	r3, [r7, #4]
 3754 0490 504A     		ldr	r2, .L72+4
 3755 0492 9342     		cmp	r3, r2
 3756 0494 00F08180 		beq	.L67
 3757              		.loc 1 444 3 discriminator 98
 3758 0498 7B68     		ldr	r3, [r7, #4]
 3759 049a 4F4A     		ldr	r2, .L72+8
 3760 049c 9342     		cmp	r3, r2
 3761 049e 7CD0     		beq	.L67
 3762              		.loc 1 444 3 discriminator 99
 3763 04a0 7B68     		ldr	r3, [r7, #4]
 3764 04a2 4E4A     		ldr	r2, .L72+12
 3765 04a4 9342     		cmp	r3, r2
ARM GAS  /tmp/ccRTEIeG.s 			page 82


 3766 04a6 78D0     		beq	.L67
 3767              		.loc 1 444 3 discriminator 100
 3768 04a8 7B68     		ldr	r3, [r7, #4]
 3769 04aa 4D4A     		ldr	r2, .L72+16
 3770 04ac 9342     		cmp	r3, r2
 3771 04ae 74D0     		beq	.L67
 3772              		.loc 1 444 3 discriminator 101
 3773 04b0 7B68     		ldr	r3, [r7, #4]
 3774 04b2 4C4A     		ldr	r2, .L72+20
 3775 04b4 9342     		cmp	r3, r2
 3776 04b6 70D0     		beq	.L67
 3777              		.loc 1 444 3 discriminator 102
 3778 04b8 7B68     		ldr	r3, [r7, #4]
 3779 04ba 4B4A     		ldr	r2, .L72+24
 3780 04bc 9342     		cmp	r3, r2
 3781 04be 6CD0     		beq	.L67
 3782              		.loc 1 444 3 discriminator 103
 3783 04c0 7B68     		ldr	r3, [r7, #4]
 3784 04c2 4A4A     		ldr	r2, .L72+28
 3785 04c4 9342     		cmp	r3, r2
 3786 04c6 68D0     		beq	.L67
 3787              		.loc 1 444 3 discriminator 104
 3788 04c8 7B68     		ldr	r3, [r7, #4]
 3789 04ca 494A     		ldr	r2, .L72+32
 3790 04cc 9342     		cmp	r3, r2
 3791 04ce 64D0     		beq	.L67
 3792              		.loc 1 444 3 discriminator 105
 3793 04d0 7B68     		ldr	r3, [r7, #4]
 3794 04d2 484A     		ldr	r2, .L72+36
 3795 04d4 9342     		cmp	r3, r2
 3796 04d6 60D0     		beq	.L67
 3797              		.loc 1 444 3 discriminator 106
 3798 04d8 7B68     		ldr	r3, [r7, #4]
 3799 04da B3F1A04F 		cmp	r3, #1342177280
 3800 04de 5CD0     		beq	.L67
 3801              		.loc 1 444 3 discriminator 107
 3802 04e0 7B68     		ldr	r3, [r7, #4]
 3803 04e2 454A     		ldr	r2, .L72+40
 3804 04e4 9342     		cmp	r3, r2
 3805 04e6 58D0     		beq	.L67
 3806              		.loc 1 444 3 discriminator 108
 3807 04e8 7B68     		ldr	r3, [r7, #4]
 3808 04ea 444A     		ldr	r2, .L72+44
 3809 04ec 9342     		cmp	r3, r2
 3810 04ee 54D0     		beq	.L67
 3811              		.loc 1 444 3 discriminator 109
 3812 04f0 7B68     		ldr	r3, [r7, #4]
 3813 04f2 434A     		ldr	r2, .L72+48
 3814 04f4 9342     		cmp	r3, r2
 3815 04f6 50D0     		beq	.L67
 3816              		.loc 1 444 3 discriminator 110
 3817 04f8 7B68     		ldr	r3, [r7, #4]
 3818 04fa 424A     		ldr	r2, .L72+52
 3819 04fc 9342     		cmp	r3, r2
 3820 04fe 4CD0     		beq	.L67
 3821              		.loc 1 444 3 discriminator 111
 3822 0500 7B68     		ldr	r3, [r7, #4]
ARM GAS  /tmp/ccRTEIeG.s 			page 83


 3823 0502 414A     		ldr	r2, .L72+56
 3824 0504 9342     		cmp	r3, r2
 3825 0506 48D0     		beq	.L67
 3826              		.loc 1 444 3 discriminator 112
 3827 0508 7B68     		ldr	r3, [r7, #4]
 3828 050a 404A     		ldr	r2, .L72+60
 3829 050c 9342     		cmp	r3, r2
 3830 050e 44D0     		beq	.L67
 3831              		.loc 1 444 3 discriminator 113
 3832 0510 7B68     		ldr	r3, [r7, #4]
 3833 0512 3F4A     		ldr	r2, .L72+64
 3834 0514 9342     		cmp	r3, r2
 3835 0516 40D0     		beq	.L67
 3836              		.loc 1 444 3 discriminator 114
 3837 0518 7B68     		ldr	r3, [r7, #4]
 3838 051a 3E4A     		ldr	r2, .L72+68
 3839 051c 9342     		cmp	r3, r2
 3840 051e 3CD0     		beq	.L67
 3841              		.loc 1 444 3 discriminator 115
 3842 0520 7B68     		ldr	r3, [r7, #4]
 3843 0522 3D4A     		ldr	r2, .L72+72
 3844 0524 9342     		cmp	r3, r2
 3845 0526 38D0     		beq	.L67
 3846              		.loc 1 444 3 discriminator 116
 3847 0528 7B68     		ldr	r3, [r7, #4]
 3848 052a 3C4A     		ldr	r2, .L72+76
 3849 052c 9342     		cmp	r3, r2
 3850 052e 34D0     		beq	.L67
 3851              		.loc 1 444 3 discriminator 117
 3852 0530 7B68     		ldr	r3, [r7, #4]
 3853 0532 3B4A     		ldr	r2, .L72+80
 3854 0534 9342     		cmp	r3, r2
 3855 0536 30D0     		beq	.L67
 3856              		.loc 1 444 3 discriminator 118
 3857 0538 7B68     		ldr	r3, [r7, #4]
 3858 053a 3A4A     		ldr	r2, .L72+84
 3859 053c 9342     		cmp	r3, r2
 3860 053e 2CD0     		beq	.L67
 3861              		.loc 1 444 3 discriminator 119
 3862 0540 7B68     		ldr	r3, [r7, #4]
 3863 0542 394A     		ldr	r2, .L72+88
 3864 0544 9342     		cmp	r3, r2
 3865 0546 28D0     		beq	.L67
 3866              		.loc 1 444 3 discriminator 120
 3867 0548 7B68     		ldr	r3, [r7, #4]
 3868 054a 384A     		ldr	r2, .L72+92
 3869 054c 9342     		cmp	r3, r2
 3870 054e 24D0     		beq	.L67
 3871              		.loc 1 444 3 discriminator 121
 3872 0550 7B68     		ldr	r3, [r7, #4]
 3873 0552 374A     		ldr	r2, .L72+96
 3874 0554 9342     		cmp	r3, r2
 3875 0556 20D0     		beq	.L67
 3876              		.loc 1 444 3 discriminator 122
 3877 0558 7B68     		ldr	r3, [r7, #4]
 3878 055a 364A     		ldr	r2, .L72+100
 3879 055c 9342     		cmp	r3, r2
ARM GAS  /tmp/ccRTEIeG.s 			page 84


 3880 055e 1CD0     		beq	.L67
 3881              		.loc 1 444 3 discriminator 123
 3882 0560 7B68     		ldr	r3, [r7, #4]
 3883 0562 354A     		ldr	r2, .L72+104
 3884 0564 9342     		cmp	r3, r2
 3885 0566 18D0     		beq	.L67
 3886              		.loc 1 444 3 discriminator 124
 3887 0568 7B68     		ldr	r3, [r7, #4]
 3888 056a 344A     		ldr	r2, .L72+108
 3889 056c 9342     		cmp	r3, r2
 3890 056e 14D0     		beq	.L67
 3891              		.loc 1 444 3 discriminator 125
 3892 0570 7B68     		ldr	r3, [r7, #4]
 3893 0572 334A     		ldr	r2, .L72+112
 3894 0574 9342     		cmp	r3, r2
 3895 0576 10D0     		beq	.L67
 3896              		.loc 1 444 3 discriminator 126
 3897 0578 7B68     		ldr	r3, [r7, #4]
 3898 057a 324A     		ldr	r2, .L72+116
 3899 057c 9342     		cmp	r3, r2
 3900 057e 0CD0     		beq	.L67
 3901              		.loc 1 444 3 discriminator 127
 3902 0580 7B68     		ldr	r3, [r7, #4]
 3903 0582 314A     		ldr	r2, .L72+120
 3904 0584 9342     		cmp	r3, r2
 3905 0586 08D0     		beq	.L67
 3906              		.loc 1 444 3 discriminator 128
 3907 0588 7B68     		ldr	r3, [r7, #4]
 3908 058a 304A     		ldr	r2, .L72+124
 3909 058c 9342     		cmp	r3, r2
 3910 058e 04D0     		beq	.L67
 3911              		.loc 1 444 3 discriminator 129
 3912 0590 4FF4DE71 		mov	r1, #444
 3913 0594 2E48     		ldr	r0, .L72+128
 3914 0596 FFF7FEFF 		bl	assert_failed
 3915              	.L67:
 445:STM32Cube_FW_N6/Drivers/STM32N6xx_HAL_Driver/Src/stm32n6xx_hal_rif.c **** 
 446:STM32Cube_FW_N6/Drivers/STM32N6xx_HAL_Driver/Src/stm32n6xx_hal_rif.c ****   p_lock_reg = &(RIFSC->RISC_RCFGLOCKRx[PeriphId >> RIF_PERIPH_REG_SHIFT]);
 3916              		.loc 1 446 50 is_stmt 1
 3917 059a 7B68     		ldr	r3, [r7, #4]
 3918 059c 1B0F     		lsrs	r3, r3, #28
 3919              		.loc 1 446 16
 3920 059e 9A00     		lsls	r2, r3, #2
 3921              		.loc 1 446 14
 3922 05a0 2C4B     		ldr	r3, .L72+132
 3923 05a2 1344     		add	r3, r3, r2
 3924 05a4 FB60     		str	r3, [r7, #12]
 447:STM32Cube_FW_N6/Drivers/STM32N6xx_HAL_Driver/Src/stm32n6xx_hal_rif.c ****   lock_status = ((*p_lock_reg & (RIF_LOCK_ENABLE << (PeriphId & RIF_PERIPH_BIT_POSITION))) >> (Peri
 3925              		.loc 1 447 19
 3926 05a6 FB68     		ldr	r3, [r7, #12]
 3927 05a8 1A68     		ldr	r2, [r3]
 3928              		.loc 1 447 63
 3929 05aa 7B68     		ldr	r3, [r7, #4]
 3930 05ac 03F01F03 		and	r3, r3, #31
 3931              		.loc 1 447 50
 3932 05b0 0121     		movs	r1, #1
 3933 05b2 01FA03F3 		lsl	r3, r1, r3
ARM GAS  /tmp/ccRTEIeG.s 			page 85


 3934              		.loc 1 447 31
 3935 05b6 1A40     		ands	r2, r2, r3
 3936              		.loc 1 447 105
 3937 05b8 7B68     		ldr	r3, [r7, #4]
 3938 05ba 03F01F03 		and	r3, r3, #31
 3939              		.loc 1 447 15
 3940 05be 22FA03F3 		lsr	r3, r2, r3
 3941 05c2 BB60     		str	r3, [r7, #8]
 448:STM32Cube_FW_N6/Drivers/STM32N6xx_HAL_Driver/Src/stm32n6xx_hal_rif.c **** 
 449:STM32Cube_FW_N6/Drivers/STM32N6xx_HAL_Driver/Src/stm32n6xx_hal_rif.c ****   return lock_status;
 3942              		.loc 1 449 10
 3943 05c4 BB68     		ldr	r3, [r7, #8]
 450:STM32Cube_FW_N6/Drivers/STM32N6xx_HAL_Driver/Src/stm32n6xx_hal_rif.c **** }
 3944              		.loc 1 450 1
 3945 05c6 1846     		mov	r0, r3
 3946 05c8 1037     		adds	r7, r7, #16
 3947              		.cfi_def_cfa_offset 8
 3948 05ca BD46     		mov	sp, r7
 3949              		.cfi_def_cfa_register 13
 3950              		@ sp needed
 3951 05cc 80BD     		pop	{r7, pc}
 3952              	.L73:
 3953 05ce 00BF     		.align	2
 3954              	.L72:
 3955 05d0 0C000040 		.word	1073741836
 3956 05d4 0D000040 		.word	1073741837
 3957 05d8 11000040 		.word	1073741841
 3958 05dc 12000040 		.word	1073741842
 3959 05e0 13000040 		.word	1073741843
 3960 05e4 19000040 		.word	1073741849
 3961 05e8 1B000040 		.word	1073741851
 3962 05ec 1C000040 		.word	1073741852
 3963 05f0 1D000040 		.word	1073741853
 3964 05f4 1F000040 		.word	1073741855
 3965 05f8 01000050 		.word	1342177281
 3966 05fc 02000050 		.word	1342177282
 3967 0600 03000050 		.word	1342177283
 3968 0604 04000050 		.word	1342177284
 3969 0608 05000050 		.word	1342177285
 3970 060c 06000050 		.word	1342177286
 3971 0610 08000050 		.word	1342177288
 3972 0614 09000050 		.word	1342177289
 3973 0618 0A000050 		.word	1342177290
 3974 061c 0B000050 		.word	1342177291
 3975 0620 0D000050 		.word	1342177293
 3976 0624 0E000050 		.word	1342177294
 3977 0628 0F000050 		.word	1342177295
 3978 062c 11000050 		.word	1342177297
 3979 0630 12000050 		.word	1342177298
 3980 0634 13000050 		.word	1342177299
 3981 0638 14000050 		.word	1342177300
 3982 063c 16000050 		.word	1342177302
 3983 0640 17000050 		.word	1342177303
 3984 0644 18000050 		.word	1342177304
 3985 0648 1B000050 		.word	1342177307
 3986 064c 1E000050 		.word	1342177310
 3987 0650 00000000 		.word	.LC0
ARM GAS  /tmp/ccRTEIeG.s 			page 86


 3988 0654 50400254 		.word	1409433680
 3989              		.cfi_endproc
 3990              	.LFE846:
 3992              		.section	.text.HAL_RIF_RISAF_Lock,"ax",%progbits
 3993              		.align	1
 3994              		.global	HAL_RIF_RISAF_Lock
 3995              		.syntax unified
 3996              		.thumb
 3997              		.thumb_func
 3999              	HAL_RIF_RISAF_Lock:
 4000              	.LFB847:
 451:STM32Cube_FW_N6/Drivers/STM32N6xx_HAL_Driver/Src/stm32n6xx_hal_rif.c **** 
 452:STM32Cube_FW_N6/Drivers/STM32N6xx_HAL_Driver/Src/stm32n6xx_hal_rif.c **** /**
 453:STM32Cube_FW_N6/Drivers/STM32N6xx_HAL_Driver/Src/stm32n6xx_hal_rif.c ****   * @}
 454:STM32Cube_FW_N6/Drivers/STM32N6xx_HAL_Driver/Src/stm32n6xx_hal_rif.c ****   */
 455:STM32Cube_FW_N6/Drivers/STM32N6xx_HAL_Driver/Src/stm32n6xx_hal_rif.c **** 
 456:STM32Cube_FW_N6/Drivers/STM32N6xx_HAL_Driver/Src/stm32n6xx_hal_rif.c **** /** @defgroup RIF_Exported_Functions_Group4  RISAF Configuration functions
 457:STM32Cube_FW_N6/Drivers/STM32N6xx_HAL_Driver/Src/stm32n6xx_hal_rif.c ****   *  @brief    RISAF Configuration functions
 458:STM32Cube_FW_N6/Drivers/STM32N6xx_HAL_Driver/Src/stm32n6xx_hal_rif.c ****   *
 459:STM32Cube_FW_N6/Drivers/STM32N6xx_HAL_Driver/Src/stm32n6xx_hal_rif.c **** @verbatim
 460:STM32Cube_FW_N6/Drivers/STM32N6xx_HAL_Driver/Src/stm32n6xx_hal_rif.c ****   ==============================================================================
 461:STM32Cube_FW_N6/Drivers/STM32N6xx_HAL_Driver/Src/stm32n6xx_hal_rif.c ****             ##### RISAF Configuration functions #####
 462:STM32Cube_FW_N6/Drivers/STM32N6xx_HAL_Driver/Src/stm32n6xx_hal_rif.c ****   ==============================================================================
 463:STM32Cube_FW_N6/Drivers/STM32N6xx_HAL_Driver/Src/stm32n6xx_hal_rif.c ****   [..]
 464:STM32Cube_FW_N6/Drivers/STM32N6xx_HAL_Driver/Src/stm32n6xx_hal_rif.c ****     This section provides functions allowing to configure RISAF
 465:STM32Cube_FW_N6/Drivers/STM32N6xx_HAL_Driver/Src/stm32n6xx_hal_rif.c ****     RISAL is Resource Isolation Slave unit for Address space protection (Full version)
 466:STM32Cube_FW_N6/Drivers/STM32N6xx_HAL_Driver/Src/stm32n6xx_hal_rif.c **** @endverbatim
 467:STM32Cube_FW_N6/Drivers/STM32N6xx_HAL_Driver/Src/stm32n6xx_hal_rif.c ****   * @{
 468:STM32Cube_FW_N6/Drivers/STM32N6xx_HAL_Driver/Src/stm32n6xx_hal_rif.c ****   */
 469:STM32Cube_FW_N6/Drivers/STM32N6xx_HAL_Driver/Src/stm32n6xx_hal_rif.c **** #if defined(CPU_AS_TRUSTED_DOMAIN)
 470:STM32Cube_FW_N6/Drivers/STM32N6xx_HAL_Driver/Src/stm32n6xx_hal_rif.c **** /**
 471:STM32Cube_FW_N6/Drivers/STM32N6xx_HAL_Driver/Src/stm32n6xx_hal_rif.c ****   * @brief  Lock overall configuration of RISAF.
 472:STM32Cube_FW_N6/Drivers/STM32N6xx_HAL_Driver/Src/stm32n6xx_hal_rif.c ****   * @note   Once set, the overall configuration of RISAF cannot be modified
 473:STM32Cube_FW_N6/Drivers/STM32N6xx_HAL_Driver/Src/stm32n6xx_hal_rif.c ****   *         upon next system reset.
 474:STM32Cube_FW_N6/Drivers/STM32N6xx_HAL_Driver/Src/stm32n6xx_hal_rif.c ****   * @note   This API is protected by the Trusted Domain compilation directive.
 475:STM32Cube_FW_N6/Drivers/STM32N6xx_HAL_Driver/Src/stm32n6xx_hal_rif.c ****   * @param  RISAFx specifies the RISAF instance.
 476:STM32Cube_FW_N6/Drivers/STM32N6xx_HAL_Driver/Src/stm32n6xx_hal_rif.c ****   *         This parameter is one of the RISAF instances defined in the CMSIS.
 477:STM32Cube_FW_N6/Drivers/STM32N6xx_HAL_Driver/Src/stm32n6xx_hal_rif.c ****   * @retval None
 478:STM32Cube_FW_N6/Drivers/STM32N6xx_HAL_Driver/Src/stm32n6xx_hal_rif.c ****   */
 479:STM32Cube_FW_N6/Drivers/STM32N6xx_HAL_Driver/Src/stm32n6xx_hal_rif.c **** void HAL_RIF_RISAF_Lock(RISAF_TypeDef *RISAFx)
 480:STM32Cube_FW_N6/Drivers/STM32N6xx_HAL_Driver/Src/stm32n6xx_hal_rif.c **** {
 4001              		.loc 1 480 1
 4002              		.cfi_startproc
 4003              		@ args = 0, pretend = 0, frame = 8
 4004              		@ frame_needed = 1, uses_anonymous_args = 0
 4005 0000 80B5     		push	{r7, lr}
 4006              		.cfi_def_cfa_offset 8
 4007              		.cfi_offset 7, -8
 4008              		.cfi_offset 14, -4
 4009 0002 82B0     		sub	sp, sp, #8
 4010              		.cfi_def_cfa_offset 16
 4011 0004 00AF     		add	r7, sp, #0
 4012              		.cfi_def_cfa_register 7
 4013 0006 7860     		str	r0, [r7, #4]
 481:STM32Cube_FW_N6/Drivers/STM32N6xx_HAL_Driver/Src/stm32n6xx_hal_rif.c ****   /* Check the parameters */
 482:STM32Cube_FW_N6/Drivers/STM32N6xx_HAL_Driver/Src/stm32n6xx_hal_rif.c ****   assert_param(IS_RISAF_INSTANCE(RISAFx));
 4014              		.loc 1 482 3
ARM GAS  /tmp/ccRTEIeG.s 			page 87


 4015 0008 7B68     		ldr	r3, [r7, #4]
 4016 000a 294A     		ldr	r2, .L76
 4017 000c 9342     		cmp	r3, r2
 4018 000e 44D0     		beq	.L75
 4019              		.loc 1 482 3 is_stmt 0 discriminator 1
 4020 0010 7B68     		ldr	r3, [r7, #4]
 4021 0012 284A     		ldr	r2, .L76+4
 4022 0014 9342     		cmp	r3, r2
 4023 0016 40D0     		beq	.L75
 4024              		.loc 1 482 3 discriminator 2
 4025 0018 7B68     		ldr	r3, [r7, #4]
 4026 001a 274A     		ldr	r2, .L76+8
 4027 001c 9342     		cmp	r3, r2
 4028 001e 3CD0     		beq	.L75
 4029              		.loc 1 482 3 discriminator 3
 4030 0020 7B68     		ldr	r3, [r7, #4]
 4031 0022 264A     		ldr	r2, .L76+12
 4032 0024 9342     		cmp	r3, r2
 4033 0026 38D0     		beq	.L75
 4034              		.loc 1 482 3 discriminator 4
 4035 0028 7B68     		ldr	r3, [r7, #4]
 4036 002a 254A     		ldr	r2, .L76+16
 4037 002c 9342     		cmp	r3, r2
 4038 002e 34D0     		beq	.L75
 4039              		.loc 1 482 3 discriminator 5
 4040 0030 7B68     		ldr	r3, [r7, #4]
 4041 0032 244A     		ldr	r2, .L76+20
 4042 0034 9342     		cmp	r3, r2
 4043 0036 30D0     		beq	.L75
 4044              		.loc 1 482 3 discriminator 6
 4045 0038 7B68     		ldr	r3, [r7, #4]
 4046 003a 234A     		ldr	r2, .L76+24
 4047 003c 9342     		cmp	r3, r2
 4048 003e 2CD0     		beq	.L75
 4049              		.loc 1 482 3 discriminator 7
 4050 0040 7B68     		ldr	r3, [r7, #4]
 4051 0042 224A     		ldr	r2, .L76+28
 4052 0044 9342     		cmp	r3, r2
 4053 0046 28D0     		beq	.L75
 4054              		.loc 1 482 3 discriminator 8
 4055 0048 7B68     		ldr	r3, [r7, #4]
 4056 004a 214A     		ldr	r2, .L76+32
 4057 004c 9342     		cmp	r3, r2
 4058 004e 24D0     		beq	.L75
 4059              		.loc 1 482 3 discriminator 9
 4060 0050 7B68     		ldr	r3, [r7, #4]
 4061 0052 204A     		ldr	r2, .L76+36
 4062 0054 9342     		cmp	r3, r2
 4063 0056 20D0     		beq	.L75
 4064              		.loc 1 482 3 discriminator 10
 4065 0058 7B68     		ldr	r3, [r7, #4]
 4066 005a 1F4A     		ldr	r2, .L76+40
 4067 005c 9342     		cmp	r3, r2
 4068 005e 1CD0     		beq	.L75
 4069              		.loc 1 482 3 discriminator 11
 4070 0060 7B68     		ldr	r3, [r7, #4]
 4071 0062 1E4A     		ldr	r2, .L76+44
ARM GAS  /tmp/ccRTEIeG.s 			page 88


 4072 0064 9342     		cmp	r3, r2
 4073 0066 18D0     		beq	.L75
 4074              		.loc 1 482 3 discriminator 12
 4075 0068 7B68     		ldr	r3, [r7, #4]
 4076 006a 1D4A     		ldr	r2, .L76+48
 4077 006c 9342     		cmp	r3, r2
 4078 006e 14D0     		beq	.L75
 4079              		.loc 1 482 3 discriminator 13
 4080 0070 7B68     		ldr	r3, [r7, #4]
 4081 0072 1C4A     		ldr	r2, .L76+52
 4082 0074 9342     		cmp	r3, r2
 4083 0076 10D0     		beq	.L75
 4084              		.loc 1 482 3 discriminator 14
 4085 0078 7B68     		ldr	r3, [r7, #4]
 4086 007a 1B4A     		ldr	r2, .L76+56
 4087 007c 9342     		cmp	r3, r2
 4088 007e 0CD0     		beq	.L75
 4089              		.loc 1 482 3 discriminator 15
 4090 0080 7B68     		ldr	r3, [r7, #4]
 4091 0082 1A4A     		ldr	r2, .L76+60
 4092 0084 9342     		cmp	r3, r2
 4093 0086 08D0     		beq	.L75
 4094              		.loc 1 482 3 discriminator 16
 4095 0088 7B68     		ldr	r3, [r7, #4]
 4096 008a 194A     		ldr	r2, .L76+64
 4097 008c 9342     		cmp	r3, r2
 4098 008e 04D0     		beq	.L75
 4099              		.loc 1 482 3 discriminator 17
 4100 0090 4FF4F171 		mov	r1, #482
 4101 0094 1748     		ldr	r0, .L76+68
 4102 0096 FFF7FEFF 		bl	assert_failed
 4103              	.L75:
 483:STM32Cube_FW_N6/Drivers/STM32N6xx_HAL_Driver/Src/stm32n6xx_hal_rif.c **** 
 484:STM32Cube_FW_N6/Drivers/STM32N6xx_HAL_Driver/Src/stm32n6xx_hal_rif.c ****   /* Set RISAF Lock bit */
 485:STM32Cube_FW_N6/Drivers/STM32N6xx_HAL_Driver/Src/stm32n6xx_hal_rif.c ****   RISAFx->CR |= RISAF_CR_GLOCK;
 4104              		.loc 1 485 9 is_stmt 1
 4105 009a 7B68     		ldr	r3, [r7, #4]
 4106 009c 1B68     		ldr	r3, [r3]
 4107              		.loc 1 485 14
 4108 009e 43F00102 		orr	r2, r3, #1
 4109 00a2 7B68     		ldr	r3, [r7, #4]
 4110 00a4 1A60     		str	r2, [r3]
 486:STM32Cube_FW_N6/Drivers/STM32N6xx_HAL_Driver/Src/stm32n6xx_hal_rif.c **** }
 4111              		.loc 1 486 1
 4112 00a6 00BF     		nop
 4113 00a8 0837     		adds	r7, r7, #8
 4114              		.cfi_def_cfa_offset 8
 4115 00aa BD46     		mov	sp, r7
 4116              		.cfi_def_cfa_register 13
 4117              		@ sp needed
 4118 00ac 80BD     		pop	{r7, pc}
 4119              	.L77:
 4120 00ae 00BF     		.align	2
 4121              	.L76:
 4122 00b0 00600254 		.word	1409441792
 4123 00b4 00700254 		.word	1409445888
 4124 00b8 00800254 		.word	1409449984
ARM GAS  /tmp/ccRTEIeG.s 			page 89


 4125 00bc 00900254 		.word	1409454080
 4126 00c0 00A00254 		.word	1409458176
 4127 00c4 00B00254 		.word	1409462272
 4128 00c8 00C00254 		.word	1409466368
 4129 00cc 00D00254 		.word	1409470464
 4130 00d0 00E00254 		.word	1409474560
 4131 00d4 00000354 		.word	1409482752
 4132 00d8 00100354 		.word	1409486848
 4133 00dc 00200354 		.word	1409490944
 4134 00e0 00300354 		.word	1409495040
 4135 00e4 00400354 		.word	1409499136
 4136 00e8 00500354 		.word	1409503232
 4137 00ec 00600354 		.word	1409507328
 4138 00f0 00700354 		.word	1409511424
 4139 00f4 00000000 		.word	.LC0
 4140              		.cfi_endproc
 4141              	.LFE847:
 4143              		.section	.text.HAL_RIF_RISAF_GetLock,"ax",%progbits
 4144              		.align	1
 4145              		.global	HAL_RIF_RISAF_GetLock
 4146              		.syntax unified
 4147              		.thumb
 4148              		.thumb_func
 4150              	HAL_RIF_RISAF_GetLock:
 4151              	.LFB848:
 487:STM32Cube_FW_N6/Drivers/STM32N6xx_HAL_Driver/Src/stm32n6xx_hal_rif.c **** #endif /* defined(CPU_AS_TRUSTED_DOMAIN) */
 488:STM32Cube_FW_N6/Drivers/STM32N6xx_HAL_Driver/Src/stm32n6xx_hal_rif.c **** 
 489:STM32Cube_FW_N6/Drivers/STM32N6xx_HAL_Driver/Src/stm32n6xx_hal_rif.c **** /**
 490:STM32Cube_FW_N6/Drivers/STM32N6xx_HAL_Driver/Src/stm32n6xx_hal_rif.c ****   * @brief  Get RISAF global lock status.
 491:STM32Cube_FW_N6/Drivers/STM32N6xx_HAL_Driver/Src/stm32n6xx_hal_rif.c ****   * @param  RISAFx specifies the RISAF instance.
 492:STM32Cube_FW_N6/Drivers/STM32N6xx_HAL_Driver/Src/stm32n6xx_hal_rif.c ****   *         This parameter is one of the RISAF instances defined in the CMSIS.
 493:STM32Cube_FW_N6/Drivers/STM32N6xx_HAL_Driver/Src/stm32n6xx_hal_rif.c ****   * @retval 1 if RISAF configuration is locked, else 0
 494:STM32Cube_FW_N6/Drivers/STM32N6xx_HAL_Driver/Src/stm32n6xx_hal_rif.c ****   */
 495:STM32Cube_FW_N6/Drivers/STM32N6xx_HAL_Driver/Src/stm32n6xx_hal_rif.c **** uint32_t HAL_RIF_RISAF_GetLock(const RISAF_TypeDef *RISAFx)
 496:STM32Cube_FW_N6/Drivers/STM32N6xx_HAL_Driver/Src/stm32n6xx_hal_rif.c **** {
 4152              		.loc 1 496 1
 4153              		.cfi_startproc
 4154              		@ args = 0, pretend = 0, frame = 16
 4155              		@ frame_needed = 1, uses_anonymous_args = 0
 4156              		@ link register save eliminated.
 4157 0000 80B4     		push	{r7}
 4158              		.cfi_def_cfa_offset 4
 4159              		.cfi_offset 7, -4
 4160 0002 85B0     		sub	sp, sp, #20
 4161              		.cfi_def_cfa_offset 24
 4162 0004 00AF     		add	r7, sp, #0
 4163              		.cfi_def_cfa_register 7
 4164 0006 7860     		str	r0, [r7, #4]
 497:STM32Cube_FW_N6/Drivers/STM32N6xx_HAL_Driver/Src/stm32n6xx_hal_rif.c ****   uint32_t lock_status;
 498:STM32Cube_FW_N6/Drivers/STM32N6xx_HAL_Driver/Src/stm32n6xx_hal_rif.c **** 
 499:STM32Cube_FW_N6/Drivers/STM32N6xx_HAL_Driver/Src/stm32n6xx_hal_rif.c ****   /* Read RIMC lock bit */
 500:STM32Cube_FW_N6/Drivers/STM32N6xx_HAL_Driver/Src/stm32n6xx_hal_rif.c ****   lock_status = (RISAFx->CR & RIF_LOCK_ENABLE);
 4165              		.loc 1 500 24
 4166 0008 7B68     		ldr	r3, [r7, #4]
 4167 000a 1B68     		ldr	r3, [r3]
 4168              		.loc 1 500 15
 4169 000c 03F00103 		and	r3, r3, #1
ARM GAS  /tmp/ccRTEIeG.s 			page 90


 4170 0010 FB60     		str	r3, [r7, #12]
 501:STM32Cube_FW_N6/Drivers/STM32N6xx_HAL_Driver/Src/stm32n6xx_hal_rif.c **** 
 502:STM32Cube_FW_N6/Drivers/STM32N6xx_HAL_Driver/Src/stm32n6xx_hal_rif.c ****   return lock_status;
 4171              		.loc 1 502 10
 4172 0012 FB68     		ldr	r3, [r7, #12]
 503:STM32Cube_FW_N6/Drivers/STM32N6xx_HAL_Driver/Src/stm32n6xx_hal_rif.c **** }
 4173              		.loc 1 503 1
 4174 0014 1846     		mov	r0, r3
 4175 0016 1437     		adds	r7, r7, #20
 4176              		.cfi_def_cfa_offset 4
 4177 0018 BD46     		mov	sp, r7
 4178              		.cfi_def_cfa_register 13
 4179              		@ sp needed
 4180 001a 5DF8047B 		ldr	r7, [sp], #4
 4181              		.cfi_restore 7
 4182              		.cfi_def_cfa_offset 0
 4183 001e 7047     		bx	lr
 4184              		.cfi_endproc
 4185              	.LFE848:
 4187              		.section	.text.HAL_RIF_RISAF_ConfigBaseRegion,"ax",%progbits
 4188              		.align	1
 4189              		.global	HAL_RIF_RISAF_ConfigBaseRegion
 4190              		.syntax unified
 4191              		.thumb
 4192              		.thumb_func
 4194              	HAL_RIF_RISAF_ConfigBaseRegion:
 4195              	.LFB849:
 504:STM32Cube_FW_N6/Drivers/STM32N6xx_HAL_Driver/Src/stm32n6xx_hal_rif.c **** 
 505:STM32Cube_FW_N6/Drivers/STM32N6xx_HAL_Driver/Src/stm32n6xx_hal_rif.c **** #if defined(GENERATOR_RIF_FEATURE_ENCRYPTION_IMPLEMENTED)
 506:STM32Cube_FW_N6/Drivers/STM32N6xx_HAL_Driver/Src/stm32n6xx_hal_rif.c **** /**
 507:STM32Cube_FW_N6/Drivers/STM32N6xx_HAL_Driver/Src/stm32n6xx_hal_rif.c ****   * @brief  Get encryption and key related flags.
 508:STM32Cube_FW_N6/Drivers/STM32N6xx_HAL_Driver/Src/stm32n6xx_hal_rif.c ****   * @param  RISAFx specifies the RISAF instance.
 509:STM32Cube_FW_N6/Drivers/STM32N6xx_HAL_Driver/Src/stm32n6xx_hal_rif.c ****   *         This parameter is one of the RISAF instances defined in the CMSIS.
 510:STM32Cube_FW_N6/Drivers/STM32N6xx_HAL_Driver/Src/stm32n6xx_hal_rif.c ****   * @retval A combination of the three encryption related flags
 511:STM32Cube_FW_N6/Drivers/STM32N6xx_HAL_Driver/Src/stm32n6xx_hal_rif.c ****   */
 512:STM32Cube_FW_N6/Drivers/STM32N6xx_HAL_Driver/Src/stm32n6xx_hal_rif.c **** uint32_t HAL_RIF_RISAF_GetEncryptionStatus(RISAF_TypeDef *RISAFx)
 513:STM32Cube_FW_N6/Drivers/STM32N6xx_HAL_Driver/Src/stm32n6xx_hal_rif.c **** {
 514:STM32Cube_FW_N6/Drivers/STM32N6xx_HAL_Driver/Src/stm32n6xx_hal_rif.c ****   uint32_t tmp = 0;
 515:STM32Cube_FW_N6/Drivers/STM32N6xx_HAL_Driver/Src/stm32n6xx_hal_rif.c **** 
 516:STM32Cube_FW_N6/Drivers/STM32N6xx_HAL_Driver/Src/stm32n6xx_hal_rif.c ****   return tmp;
 517:STM32Cube_FW_N6/Drivers/STM32N6xx_HAL_Driver/Src/stm32n6xx_hal_rif.c **** }
 518:STM32Cube_FW_N6/Drivers/STM32N6xx_HAL_Driver/Src/stm32n6xx_hal_rif.c **** 
 519:STM32Cube_FW_N6/Drivers/STM32N6xx_HAL_Driver/Src/stm32n6xx_hal_rif.c **** #if defined(CPU_AS_TRUSTED_DOMAIN)
 520:STM32Cube_FW_N6/Drivers/STM32N6xx_HAL_Driver/Src/stm32n6xx_hal_rif.c **** /**
 521:STM32Cube_FW_N6/Drivers/STM32N6xx_HAL_Driver/Src/stm32n6xx_hal_rif.c ****   * @brief  Write the encryption keys used by the DDRMCE.
 522:STM32Cube_FW_N6/Drivers/STM32N6xx_HAL_Driver/Src/stm32n6xx_hal_rif.c ****   * @note   This API is protected by the Trusted Domain compilation directive.
 523:STM32Cube_FW_N6/Drivers/STM32N6xx_HAL_Driver/Src/stm32n6xx_hal_rif.c ****   * @param  RISAFx specifies the RISAF instance.
 524:STM32Cube_FW_N6/Drivers/STM32N6xx_HAL_Driver/Src/stm32n6xx_hal_rif.c ****   *         This parameter is one of the RISAF instances defined in the CMSIS.
 525:STM32Cube_FW_N6/Drivers/STM32N6xx_HAL_Driver/Src/stm32n6xx_hal_rif.c ****   * @param  Keys Pointer on the Encryption keys structure
 526:STM32Cube_FW_N6/Drivers/STM32N6xx_HAL_Driver/Src/stm32n6xx_hal_rif.c ****   * @retval None
 527:STM32Cube_FW_N6/Drivers/STM32N6xx_HAL_Driver/Src/stm32n6xx_hal_rif.c ****   */
 528:STM32Cube_FW_N6/Drivers/STM32N6xx_HAL_Driver/Src/stm32n6xx_hal_rif.c **** void HAL_RIF_RISAF_WriteEncryptionKeys(RISAF_TypeDef *RISAFx, RISAF_EncryptionKeys_t *Keys)
 529:STM32Cube_FW_N6/Drivers/STM32N6xx_HAL_Driver/Src/stm32n6xx_hal_rif.c **** {
 530:STM32Cube_FW_N6/Drivers/STM32N6xx_HAL_Driver/Src/stm32n6xx_hal_rif.c **** }
 531:STM32Cube_FW_N6/Drivers/STM32N6xx_HAL_Driver/Src/stm32n6xx_hal_rif.c **** #endif /* defined(CPU_AS_TRUSTED_DOMAIN) */
 532:STM32Cube_FW_N6/Drivers/STM32N6xx_HAL_Driver/Src/stm32n6xx_hal_rif.c **** 
 533:STM32Cube_FW_N6/Drivers/STM32N6xx_HAL_Driver/Src/stm32n6xx_hal_rif.c **** #endif /* defined(GENERATOR_RIF_FEATURE_ENCRYPTION_IMPLEMENTED) */
ARM GAS  /tmp/ccRTEIeG.s 			page 91


 534:STM32Cube_FW_N6/Drivers/STM32N6xx_HAL_Driver/Src/stm32n6xx_hal_rif.c **** #if defined(CPU_AS_TRUSTED_DOMAIN)
 535:STM32Cube_FW_N6/Drivers/STM32N6xx_HAL_Driver/Src/stm32n6xx_hal_rif.c **** /**
 536:STM32Cube_FW_N6/Drivers/STM32N6xx_HAL_Driver/Src/stm32n6xx_hal_rif.c ****   * @brief  Configure a RISAF Base region.
 537:STM32Cube_FW_N6/Drivers/STM32N6xx_HAL_Driver/Src/stm32n6xx_hal_rif.c ****   * @note   If pConfig->Filtering is equal to RISAF_FILTER_DISABLE, this API only disable the filte
 538:STM32Cube_FW_N6/Drivers/STM32N6xx_HAL_Driver/Src/stm32n6xx_hal_rif.c ****   *         its configuration.
 539:STM32Cube_FW_N6/Drivers/STM32N6xx_HAL_Driver/Src/stm32n6xx_hal_rif.c ****   * @note   It is not possible to modify the start and end address of the region if the filtering i
 540:STM32Cube_FW_N6/Drivers/STM32N6xx_HAL_Driver/Src/stm32n6xx_hal_rif.c ****   * @note   This API is protected by the Trusted Domain compilation directive.
 541:STM32Cube_FW_N6/Drivers/STM32N6xx_HAL_Driver/Src/stm32n6xx_hal_rif.c ****   * @param  RISAFx specifies the RISAF instance.
 542:STM32Cube_FW_N6/Drivers/STM32N6xx_HAL_Driver/Src/stm32n6xx_hal_rif.c ****   *         This parameter is one of the RISAF instances defined in the CMSIS.
 543:STM32Cube_FW_N6/Drivers/STM32N6xx_HAL_Driver/Src/stm32n6xx_hal_rif.c ****   * @param  Region specifies the RISAF region index
 544:STM32Cube_FW_N6/Drivers/STM32N6xx_HAL_Driver/Src/stm32n6xx_hal_rif.c ****   *         This parameter can be one one of the following values:
 545:STM32Cube_FW_N6/Drivers/STM32N6xx_HAL_Driver/Src/stm32n6xx_hal_rif.c ****   *           @arg @ref RISAF_REGION_1
 546:STM32Cube_FW_N6/Drivers/STM32N6xx_HAL_Driver/Src/stm32n6xx_hal_rif.c ****   *           @arg @ref RISAF_REGION_2
 547:STM32Cube_FW_N6/Drivers/STM32N6xx_HAL_Driver/Src/stm32n6xx_hal_rif.c ****   *           @arg @ref RISAF_REGION_3
 548:STM32Cube_FW_N6/Drivers/STM32N6xx_HAL_Driver/Src/stm32n6xx_hal_rif.c ****   *           @arg @ref RISAF_REGION_4
 549:STM32Cube_FW_N6/Drivers/STM32N6xx_HAL_Driver/Src/stm32n6xx_hal_rif.c ****   *           @arg @ref RISAF_REGION_5
 550:STM32Cube_FW_N6/Drivers/STM32N6xx_HAL_Driver/Src/stm32n6xx_hal_rif.c ****   *           @arg @ref RISAF_REGION_6
 551:STM32Cube_FW_N6/Drivers/STM32N6xx_HAL_Driver/Src/stm32n6xx_hal_rif.c ****   *           @arg @ref RISAF_REGION_7
 552:STM32Cube_FW_N6/Drivers/STM32N6xx_HAL_Driver/Src/stm32n6xx_hal_rif.c ****   *           @arg @ref RISAF_REGION_8
 553:STM32Cube_FW_N6/Drivers/STM32N6xx_HAL_Driver/Src/stm32n6xx_hal_rif.c ****   *           @arg @ref RISAF_REGION_9
 554:STM32Cube_FW_N6/Drivers/STM32N6xx_HAL_Driver/Src/stm32n6xx_hal_rif.c ****   *           @arg @ref RISAF_REGION_10
 555:STM32Cube_FW_N6/Drivers/STM32N6xx_HAL_Driver/Src/stm32n6xx_hal_rif.c ****   *           @arg @ref RISAF_REGION_11
 556:STM32Cube_FW_N6/Drivers/STM32N6xx_HAL_Driver/Src/stm32n6xx_hal_rif.c ****   *           @arg @ref RISAF_REGION_12
 557:STM32Cube_FW_N6/Drivers/STM32N6xx_HAL_Driver/Src/stm32n6xx_hal_rif.c ****   *           @arg @ref RISAF_REGION_13
 558:STM32Cube_FW_N6/Drivers/STM32N6xx_HAL_Driver/Src/stm32n6xx_hal_rif.c ****   *           @arg @ref RISAF_REGION_14
 559:STM32Cube_FW_N6/Drivers/STM32N6xx_HAL_Driver/Src/stm32n6xx_hal_rif.c ****   *           @arg @ref RISAF_REGION_15
 560:STM32Cube_FW_N6/Drivers/STM32N6xx_HAL_Driver/Src/stm32n6xx_hal_rif.c ****   * @param  pConfig Pointer on RISAF Base Region configuration structure
 561:STM32Cube_FW_N6/Drivers/STM32N6xx_HAL_Driver/Src/stm32n6xx_hal_rif.c ****   * @retval None
 562:STM32Cube_FW_N6/Drivers/STM32N6xx_HAL_Driver/Src/stm32n6xx_hal_rif.c ****   */
 563:STM32Cube_FW_N6/Drivers/STM32N6xx_HAL_Driver/Src/stm32n6xx_hal_rif.c **** void HAL_RIF_RISAF_ConfigBaseRegion(RISAF_TypeDef *RISAFx, uint32_t Region, const RISAF_BaseRegionC
 564:STM32Cube_FW_N6/Drivers/STM32N6xx_HAL_Driver/Src/stm32n6xx_hal_rif.c **** {
 4196              		.loc 1 564 1
 4197              		.cfi_startproc
 4198              		@ args = 0, pretend = 0, frame = 16
 4199              		@ frame_needed = 1, uses_anonymous_args = 0
 4200 0000 80B5     		push	{r7, lr}
 4201              		.cfi_def_cfa_offset 8
 4202              		.cfi_offset 7, -8
 4203              		.cfi_offset 14, -4
 4204 0002 84B0     		sub	sp, sp, #16
 4205              		.cfi_def_cfa_offset 24
 4206 0004 00AF     		add	r7, sp, #0
 4207              		.cfi_def_cfa_register 7
 4208 0006 F860     		str	r0, [r7, #12]
 4209 0008 B960     		str	r1, [r7, #8]
 4210 000a 7A60     		str	r2, [r7, #4]
 565:STM32Cube_FW_N6/Drivers/STM32N6xx_HAL_Driver/Src/stm32n6xx_hal_rif.c ****   /* Check the parameters */
 566:STM32Cube_FW_N6/Drivers/STM32N6xx_HAL_Driver/Src/stm32n6xx_hal_rif.c ****   assert_param(pConfig != (void *)NULL);
 4211              		.loc 1 566 3
 4212 000c 7B68     		ldr	r3, [r7, #4]
 4213 000e 002B     		cmp	r3, #0
 4214 0010 04D1     		bne	.L81
 4215              		.loc 1 566 3 is_stmt 0 discriminator 1
 4216 0012 40F23621 		movw	r1, #566
 4217 0016 8148     		ldr	r0, .L214
 4218 0018 FFF7FEFF 		bl	assert_failed
 4219              	.L81:
ARM GAS  /tmp/ccRTEIeG.s 			page 92


 567:STM32Cube_FW_N6/Drivers/STM32N6xx_HAL_Driver/Src/stm32n6xx_hal_rif.c ****   assert_param(IS_RISAF_INSTANCE(RISAFx));
 4220              		.loc 1 567 3 is_stmt 1
 4221 001c FB68     		ldr	r3, [r7, #12]
 4222 001e 804A     		ldr	r2, .L214+4
 4223 0020 9342     		cmp	r3, r2
 4224 0022 44D0     		beq	.L82
 4225              		.loc 1 567 3 is_stmt 0 discriminator 1
 4226 0024 FB68     		ldr	r3, [r7, #12]
 4227 0026 7F4A     		ldr	r2, .L214+8
 4228 0028 9342     		cmp	r3, r2
 4229 002a 40D0     		beq	.L82
 4230              		.loc 1 567 3 discriminator 2
 4231 002c FB68     		ldr	r3, [r7, #12]
 4232 002e 7E4A     		ldr	r2, .L214+12
 4233 0030 9342     		cmp	r3, r2
 4234 0032 3CD0     		beq	.L82
 4235              		.loc 1 567 3 discriminator 3
 4236 0034 FB68     		ldr	r3, [r7, #12]
 4237 0036 7D4A     		ldr	r2, .L214+16
 4238 0038 9342     		cmp	r3, r2
 4239 003a 38D0     		beq	.L82
 4240              		.loc 1 567 3 discriminator 4
 4241 003c FB68     		ldr	r3, [r7, #12]
 4242 003e 7C4A     		ldr	r2, .L214+20
 4243 0040 9342     		cmp	r3, r2
 4244 0042 34D0     		beq	.L82
 4245              		.loc 1 567 3 discriminator 5
 4246 0044 FB68     		ldr	r3, [r7, #12]
 4247 0046 7B4A     		ldr	r2, .L214+24
 4248 0048 9342     		cmp	r3, r2
 4249 004a 30D0     		beq	.L82
 4250              		.loc 1 567 3 discriminator 6
 4251 004c FB68     		ldr	r3, [r7, #12]
 4252 004e 7A4A     		ldr	r2, .L214+28
 4253 0050 9342     		cmp	r3, r2
 4254 0052 2CD0     		beq	.L82
 4255              		.loc 1 567 3 discriminator 7
 4256 0054 FB68     		ldr	r3, [r7, #12]
 4257 0056 794A     		ldr	r2, .L214+32
 4258 0058 9342     		cmp	r3, r2
 4259 005a 28D0     		beq	.L82
 4260              		.loc 1 567 3 discriminator 8
 4261 005c FB68     		ldr	r3, [r7, #12]
 4262 005e 784A     		ldr	r2, .L214+36
 4263 0060 9342     		cmp	r3, r2
 4264 0062 24D0     		beq	.L82
 4265              		.loc 1 567 3 discriminator 9
 4266 0064 FB68     		ldr	r3, [r7, #12]
 4267 0066 774A     		ldr	r2, .L214+40
 4268 0068 9342     		cmp	r3, r2
 4269 006a 20D0     		beq	.L82
 4270              		.loc 1 567 3 discriminator 10
 4271 006c FB68     		ldr	r3, [r7, #12]
 4272 006e 764A     		ldr	r2, .L214+44
 4273 0070 9342     		cmp	r3, r2
 4274 0072 1CD0     		beq	.L82
 4275              		.loc 1 567 3 discriminator 11
ARM GAS  /tmp/ccRTEIeG.s 			page 93


 4276 0074 FB68     		ldr	r3, [r7, #12]
 4277 0076 754A     		ldr	r2, .L214+48
 4278 0078 9342     		cmp	r3, r2
 4279 007a 18D0     		beq	.L82
 4280              		.loc 1 567 3 discriminator 12
 4281 007c FB68     		ldr	r3, [r7, #12]
 4282 007e 744A     		ldr	r2, .L214+52
 4283 0080 9342     		cmp	r3, r2
 4284 0082 14D0     		beq	.L82
 4285              		.loc 1 567 3 discriminator 13
 4286 0084 FB68     		ldr	r3, [r7, #12]
 4287 0086 734A     		ldr	r2, .L214+56
 4288 0088 9342     		cmp	r3, r2
 4289 008a 10D0     		beq	.L82
 4290              		.loc 1 567 3 discriminator 14
 4291 008c FB68     		ldr	r3, [r7, #12]
 4292 008e 724A     		ldr	r2, .L214+60
 4293 0090 9342     		cmp	r3, r2
 4294 0092 0CD0     		beq	.L82
 4295              		.loc 1 567 3 discriminator 15
 4296 0094 FB68     		ldr	r3, [r7, #12]
 4297 0096 714A     		ldr	r2, .L214+64
 4298 0098 9342     		cmp	r3, r2
 4299 009a 08D0     		beq	.L82
 4300              		.loc 1 567 3 discriminator 16
 4301 009c FB68     		ldr	r3, [r7, #12]
 4302 009e 704A     		ldr	r2, .L214+68
 4303 00a0 9342     		cmp	r3, r2
 4304 00a2 04D0     		beq	.L82
 4305              		.loc 1 567 3 discriminator 17
 4306 00a4 40F23721 		movw	r1, #567
 4307 00a8 5C48     		ldr	r0, .L214
 4308 00aa FFF7FEFF 		bl	assert_failed
 4309              	.L82:
 568:STM32Cube_FW_N6/Drivers/STM32N6xx_HAL_Driver/Src/stm32n6xx_hal_rif.c ****   assert_param(IS_RISAF_REGION(Region));
 4310              		.loc 1 568 3 is_stmt 1
 4311 00ae BB68     		ldr	r3, [r7, #8]
 4312 00b0 002B     		cmp	r3, #0
 4313 00b2 2ED0     		beq	.L83
 4314              		.loc 1 568 3 is_stmt 0 discriminator 1
 4315 00b4 BB68     		ldr	r3, [r7, #8]
 4316 00b6 012B     		cmp	r3, #1
 4317 00b8 2BD0     		beq	.L83
 4318              		.loc 1 568 3 discriminator 2
 4319 00ba BB68     		ldr	r3, [r7, #8]
 4320 00bc 022B     		cmp	r3, #2
 4321 00be 28D0     		beq	.L83
 4322              		.loc 1 568 3 discriminator 3
 4323 00c0 BB68     		ldr	r3, [r7, #8]
 4324 00c2 032B     		cmp	r3, #3
 4325 00c4 25D0     		beq	.L83
 4326              		.loc 1 568 3 discriminator 4
 4327 00c6 BB68     		ldr	r3, [r7, #8]
 4328 00c8 042B     		cmp	r3, #4
 4329 00ca 22D0     		beq	.L83
 4330              		.loc 1 568 3 discriminator 5
 4331 00cc BB68     		ldr	r3, [r7, #8]
ARM GAS  /tmp/ccRTEIeG.s 			page 94


 4332 00ce 052B     		cmp	r3, #5
 4333 00d0 1FD0     		beq	.L83
 4334              		.loc 1 568 3 discriminator 6
 4335 00d2 BB68     		ldr	r3, [r7, #8]
 4336 00d4 062B     		cmp	r3, #6
 4337 00d6 1CD0     		beq	.L83
 4338              		.loc 1 568 3 discriminator 7
 4339 00d8 BB68     		ldr	r3, [r7, #8]
 4340 00da 072B     		cmp	r3, #7
 4341 00dc 19D0     		beq	.L83
 4342              		.loc 1 568 3 discriminator 8
 4343 00de BB68     		ldr	r3, [r7, #8]
 4344 00e0 082B     		cmp	r3, #8
 4345 00e2 16D0     		beq	.L83
 4346              		.loc 1 568 3 discriminator 9
 4347 00e4 BB68     		ldr	r3, [r7, #8]
 4348 00e6 092B     		cmp	r3, #9
 4349 00e8 13D0     		beq	.L83
 4350              		.loc 1 568 3 discriminator 10
 4351 00ea BB68     		ldr	r3, [r7, #8]
 4352 00ec 0A2B     		cmp	r3, #10
 4353 00ee 10D0     		beq	.L83
 4354              		.loc 1 568 3 discriminator 11
 4355 00f0 BB68     		ldr	r3, [r7, #8]
 4356 00f2 0B2B     		cmp	r3, #11
 4357 00f4 0DD0     		beq	.L83
 4358              		.loc 1 568 3 discriminator 12
 4359 00f6 BB68     		ldr	r3, [r7, #8]
 4360 00f8 0C2B     		cmp	r3, #12
 4361 00fa 0AD0     		beq	.L83
 4362              		.loc 1 568 3 discriminator 13
 4363 00fc BB68     		ldr	r3, [r7, #8]
 4364 00fe 0D2B     		cmp	r3, #13
 4365 0100 07D0     		beq	.L83
 4366              		.loc 1 568 3 discriminator 14
 4367 0102 BB68     		ldr	r3, [r7, #8]
 4368 0104 0E2B     		cmp	r3, #14
 4369 0106 04D0     		beq	.L83
 4370              		.loc 1 568 3 discriminator 15
 4371 0108 4FF40E71 		mov	r1, #568
 4372 010c 4348     		ldr	r0, .L214
 4373 010e FFF7FEFF 		bl	assert_failed
 4374              	.L83:
 569:STM32Cube_FW_N6/Drivers/STM32N6xx_HAL_Driver/Src/stm32n6xx_hal_rif.c ****   assert_param(IS_RISAF_MAX_REGION(RISAFx, Region));
 4375              		.loc 1 569 3 is_stmt 1
 4376 0112 FB68     		ldr	r3, [r7, #12]
 4377 0114 424A     		ldr	r2, .L214+4
 4378 0116 9342     		cmp	r3, r2
 4379 0118 06D1     		bne	.L84
 4380              		.loc 1 569 3 is_stmt 0 discriminator 1
 4381 011a BB68     		ldr	r3, [r7, #8]
 4382 011c 062B     		cmp	r3, #6
 4383 011e 94BF     		ite	ls
 4384 0120 0123     		movls	r3, #1
 4385 0122 0023     		movhi	r3, #0
 4386 0124 DBB2     		uxtb	r3, r3
 4387 0126 CFE0     		b	.L85
ARM GAS  /tmp/ccRTEIeG.s 			page 95


 4388              	.L84:
 4389              		.loc 1 569 3 discriminator 2
 4390 0128 FB68     		ldr	r3, [r7, #12]
 4391 012a 3E4A     		ldr	r2, .L214+8
 4392 012c 9342     		cmp	r3, r2
 4393 012e 06D1     		bne	.L86
 4394              		.loc 1 569 3 discriminator 4
 4395 0130 BB68     		ldr	r3, [r7, #8]
 4396 0132 062B     		cmp	r3, #6
 4397 0134 94BF     		ite	ls
 4398 0136 0123     		movls	r3, #1
 4399 0138 0023     		movhi	r3, #0
 4400 013a DBB2     		uxtb	r3, r3
 4401 013c C4E0     		b	.L85
 4402              	.L86:
 4403              		.loc 1 569 3 discriminator 5
 4404 013e FB68     		ldr	r3, [r7, #12]
 4405 0140 394A     		ldr	r2, .L214+12
 4406 0142 9342     		cmp	r3, r2
 4407 0144 06D1     		bne	.L88
 4408              		.loc 1 569 3 discriminator 7
 4409 0146 BB68     		ldr	r3, [r7, #8]
 4410 0148 062B     		cmp	r3, #6
 4411 014a 94BF     		ite	ls
 4412 014c 0123     		movls	r3, #1
 4413 014e 0023     		movhi	r3, #0
 4414 0150 DBB2     		uxtb	r3, r3
 4415 0152 B9E0     		b	.L85
 4416              	.L88:
 4417              		.loc 1 569 3 discriminator 8
 4418 0154 FB68     		ldr	r3, [r7, #12]
 4419 0156 354A     		ldr	r2, .L214+16
 4420 0158 9342     		cmp	r3, r2
 4421 015a 06D1     		bne	.L90
 4422              		.loc 1 569 3 discriminator 10
 4423 015c BB68     		ldr	r3, [r7, #8]
 4424 015e 0A2B     		cmp	r3, #10
 4425 0160 94BF     		ite	ls
 4426 0162 0123     		movls	r3, #1
 4427 0164 0023     		movhi	r3, #0
 4428 0166 DBB2     		uxtb	r3, r3
 4429 0168 AEE0     		b	.L85
 4430              	.L90:
 4431              		.loc 1 569 3 discriminator 11
 4432 016a FB68     		ldr	r3, [r7, #12]
 4433 016c 304A     		ldr	r2, .L214+20
 4434 016e 9342     		cmp	r3, r2
 4435 0170 06D1     		bne	.L92
 4436              		.loc 1 569 3 discriminator 13
 4437 0172 BB68     		ldr	r3, [r7, #8]
 4438 0174 0A2B     		cmp	r3, #10
 4439 0176 94BF     		ite	ls
 4440 0178 0123     		movls	r3, #1
 4441 017a 0023     		movhi	r3, #0
 4442 017c DBB2     		uxtb	r3, r3
 4443 017e A3E0     		b	.L85
 4444              	.L92:
ARM GAS  /tmp/ccRTEIeG.s 			page 96


 4445              		.loc 1 569 3 discriminator 14
 4446 0180 FB68     		ldr	r3, [r7, #12]
 4447 0182 2C4A     		ldr	r2, .L214+24
 4448 0184 9342     		cmp	r3, r2
 4449 0186 06D1     		bne	.L94
 4450              		.loc 1 569 3 discriminator 16
 4451 0188 BB68     		ldr	r3, [r7, #8]
 4452 018a 0A2B     		cmp	r3, #10
 4453 018c 94BF     		ite	ls
 4454 018e 0123     		movls	r3, #1
 4455 0190 0023     		movhi	r3, #0
 4456 0192 DBB2     		uxtb	r3, r3
 4457 0194 98E0     		b	.L85
 4458              	.L94:
 4459              		.loc 1 569 3 discriminator 17
 4460 0196 FB68     		ldr	r3, [r7, #12]
 4461 0198 274A     		ldr	r2, .L214+28
 4462 019a 9342     		cmp	r3, r2
 4463 019c 06D1     		bne	.L96
 4464              		.loc 1 569 3 discriminator 19
 4465 019e BB68     		ldr	r3, [r7, #8]
 4466 01a0 062B     		cmp	r3, #6
 4467 01a2 94BF     		ite	ls
 4468 01a4 0123     		movls	r3, #1
 4469 01a6 0023     		movhi	r3, #0
 4470 01a8 DBB2     		uxtb	r3, r3
 4471 01aa 8DE0     		b	.L85
 4472              	.L96:
 4473              		.loc 1 569 3 discriminator 20
 4474 01ac FB68     		ldr	r3, [r7, #12]
 4475 01ae 234A     		ldr	r2, .L214+32
 4476 01b0 9342     		cmp	r3, r2
 4477 01b2 06D1     		bne	.L98
 4478              		.loc 1 569 3 discriminator 22
 4479 01b4 BB68     		ldr	r3, [r7, #8]
 4480 01b6 062B     		cmp	r3, #6
 4481 01b8 94BF     		ite	ls
 4482 01ba 0123     		movls	r3, #1
 4483 01bc 0023     		movhi	r3, #0
 4484 01be DBB2     		uxtb	r3, r3
 4485 01c0 82E0     		b	.L85
 4486              	.L98:
 4487              		.loc 1 569 3 discriminator 23
 4488 01c2 FB68     		ldr	r3, [r7, #12]
 4489 01c4 1E4A     		ldr	r2, .L214+36
 4490 01c6 9342     		cmp	r3, r2
 4491 01c8 06D1     		bne	.L100
 4492              		.loc 1 569 3 discriminator 25
 4493 01ca BB68     		ldr	r3, [r7, #8]
 4494 01cc 062B     		cmp	r3, #6
 4495 01ce 94BF     		ite	ls
 4496 01d0 0123     		movls	r3, #1
 4497 01d2 0023     		movhi	r3, #0
 4498 01d4 DBB2     		uxtb	r3, r3
 4499 01d6 77E0     		b	.L85
 4500              	.L100:
 4501              		.loc 1 569 3 discriminator 26
ARM GAS  /tmp/ccRTEIeG.s 			page 97


 4502 01d8 FB68     		ldr	r3, [r7, #12]
 4503 01da 1A4A     		ldr	r2, .L214+40
 4504 01dc 9342     		cmp	r3, r2
 4505 01de 06D1     		bne	.L102
 4506              		.loc 1 569 3 discriminator 28
 4507 01e0 BB68     		ldr	r3, [r7, #8]
 4508 01e2 062B     		cmp	r3, #6
 4509 01e4 94BF     		ite	ls
 4510 01e6 0123     		movls	r3, #1
 4511 01e8 0023     		movhi	r3, #0
 4512 01ea DBB2     		uxtb	r3, r3
 4513 01ec 6CE0     		b	.L85
 4514              	.L102:
 4515              		.loc 1 569 3 discriminator 29
 4516 01ee FB68     		ldr	r3, [r7, #12]
 4517 01f0 154A     		ldr	r2, .L214+44
 4518 01f2 9342     		cmp	r3, r2
 4519 01f4 06D1     		bne	.L104
 4520              		.loc 1 569 3 discriminator 31
 4521 01f6 BB68     		ldr	r3, [r7, #8]
 4522 01f8 062B     		cmp	r3, #6
 4523 01fa 94BF     		ite	ls
 4524 01fc 0123     		movls	r3, #1
 4525 01fe 0023     		movhi	r3, #0
 4526 0200 DBB2     		uxtb	r3, r3
 4527 0202 61E0     		b	.L85
 4528              	.L104:
 4529              		.loc 1 569 3 discriminator 32
 4530 0204 FB68     		ldr	r3, [r7, #12]
 4531 0206 114A     		ldr	r2, .L214+48
 4532 0208 9342     		cmp	r3, r2
 4533 020a 2BD1     		bne	.L106
 4534              		.loc 1 569 3 discriminator 34
 4535 020c BB68     		ldr	r3, [r7, #8]
 4536 020e 062B     		cmp	r3, #6
 4537 0210 94BF     		ite	ls
 4538 0212 0123     		movls	r3, #1
 4539 0214 0023     		movhi	r3, #0
 4540 0216 DBB2     		uxtb	r3, r3
 4541 0218 56E0     		b	.L85
 4542              	.L215:
 4543 021a 00BF     		.align	2
 4544              	.L214:
 4545 021c 00000000 		.word	.LC0
 4546 0220 00600254 		.word	1409441792
 4547 0224 00700254 		.word	1409445888
 4548 0228 00800254 		.word	1409449984
 4549 022c 00900254 		.word	1409454080
 4550 0230 00A00254 		.word	1409458176
 4551 0234 00B00254 		.word	1409462272
 4552 0238 00C00254 		.word	1409466368
 4553 023c 00D00254 		.word	1409470464
 4554 0240 00E00254 		.word	1409474560
 4555 0244 00000354 		.word	1409482752
 4556 0248 00100354 		.word	1409486848
 4557 024c 00200354 		.word	1409490944
 4558 0250 00300354 		.word	1409495040
ARM GAS  /tmp/ccRTEIeG.s 			page 98


 4559 0254 00400354 		.word	1409499136
 4560 0258 00500354 		.word	1409503232
 4561 025c 00600354 		.word	1409507328
 4562 0260 00700354 		.word	1409511424
 4563              	.L106:
 4564              		.loc 1 569 3 discriminator 35
 4565 0264 FB68     		ldr	r3, [r7, #12]
 4566 0266 8B4A     		ldr	r2, .L216
 4567 0268 9342     		cmp	r3, r2
 4568 026a 06D1     		bne	.L108
 4569              		.loc 1 569 3 discriminator 37
 4570 026c BB68     		ldr	r3, [r7, #8]
 4571 026e 062B     		cmp	r3, #6
 4572 0270 94BF     		ite	ls
 4573 0272 0123     		movls	r3, #1
 4574 0274 0023     		movhi	r3, #0
 4575 0276 DBB2     		uxtb	r3, r3
 4576 0278 26E0     		b	.L85
 4577              	.L108:
 4578              		.loc 1 569 3 discriminator 38
 4579 027a FB68     		ldr	r3, [r7, #12]
 4580 027c 864A     		ldr	r2, .L216+4
 4581 027e 9342     		cmp	r3, r2
 4582 0280 06D1     		bne	.L110
 4583              		.loc 1 569 3 discriminator 40
 4584 0282 BB68     		ldr	r3, [r7, #8]
 4585 0284 012B     		cmp	r3, #1
 4586 0286 94BF     		ite	ls
 4587 0288 0123     		movls	r3, #1
 4588 028a 0023     		movhi	r3, #0
 4589 028c DBB2     		uxtb	r3, r3
 4590 028e 1BE0     		b	.L85
 4591              	.L110:
 4592              		.loc 1 569 3 discriminator 41
 4593 0290 FB68     		ldr	r3, [r7, #12]
 4594 0292 824A     		ldr	r2, .L216+8
 4595 0294 9342     		cmp	r3, r2
 4596 0296 06D1     		bne	.L112
 4597              		.loc 1 569 3 discriminator 43
 4598 0298 BB68     		ldr	r3, [r7, #8]
 4599 029a 062B     		cmp	r3, #6
 4600 029c 94BF     		ite	ls
 4601 029e 0123     		movls	r3, #1
 4602 02a0 0023     		movhi	r3, #0
 4603 02a2 DBB2     		uxtb	r3, r3
 4604 02a4 10E0     		b	.L85
 4605              	.L112:
 4606              		.loc 1 569 3 discriminator 44
 4607 02a6 FB68     		ldr	r3, [r7, #12]
 4608 02a8 7D4A     		ldr	r2, .L216+12
 4609 02aa 9342     		cmp	r3, r2
 4610 02ac 06D1     		bne	.L114
 4611              		.loc 1 569 3 discriminator 46
 4612 02ae BB68     		ldr	r3, [r7, #8]
 4613 02b0 062B     		cmp	r3, #6
 4614 02b2 94BF     		ite	ls
 4615 02b4 0123     		movls	r3, #1
ARM GAS  /tmp/ccRTEIeG.s 			page 99


 4616 02b6 0023     		movhi	r3, #0
 4617 02b8 DBB2     		uxtb	r3, r3
 4618 02ba 05E0     		b	.L85
 4619              	.L114:
 4620              		.loc 1 569 3 discriminator 47
 4621 02bc BB68     		ldr	r3, [r7, #8]
 4622 02be 022B     		cmp	r3, #2
 4623 02c0 94BF     		ite	ls
 4624 02c2 0123     		movls	r3, #1
 4625 02c4 0023     		movhi	r3, #0
 4626 02c6 DBB2     		uxtb	r3, r3
 4627              	.L85:
 4628              		.loc 1 569 3 discriminator 64
 4629 02c8 002B     		cmp	r3, #0
 4630 02ca 04D1     		bne	.L116
 4631              		.loc 1 569 3 discriminator 65
 4632 02cc 40F23921 		movw	r1, #569
 4633 02d0 7448     		ldr	r0, .L216+16
 4634 02d2 FFF7FEFF 		bl	assert_failed
 4635              	.L116:
 570:STM32Cube_FW_N6/Drivers/STM32N6xx_HAL_Driver/Src/stm32n6xx_hal_rif.c **** 
 571:STM32Cube_FW_N6/Drivers/STM32N6xx_HAL_Driver/Src/stm32n6xx_hal_rif.c ****   /* Only disable the section */
 572:STM32Cube_FW_N6/Drivers/STM32N6xx_HAL_Driver/Src/stm32n6xx_hal_rif.c ****   if (pConfig->Filtering == RISAF_FILTER_DISABLE)
 4636              		.loc 1 572 14 is_stmt 1
 4637 02d6 7B68     		ldr	r3, [r7, #4]
 4638 02d8 1B68     		ldr	r3, [r3]
 4639              		.loc 1 572 6
 4640 02da 002B     		cmp	r3, #0
 4641 02dc 0ED1     		bne	.L117
 573:STM32Cube_FW_N6/Drivers/STM32N6xx_HAL_Driver/Src/stm32n6xx_hal_rif.c ****   {
 574:STM32Cube_FW_N6/Drivers/STM32N6xx_HAL_Driver/Src/stm32n6xx_hal_rif.c ****     RISAFx->REG[Region].CFGR &= (~(RISAF_FILTER_ENABLE));
 4642              		.loc 1 574 24
 4643 02de FA68     		ldr	r2, [r7, #12]
 4644 02e0 BB68     		ldr	r3, [r7, #8]
 4645 02e2 0133     		adds	r3, r3, #1
 4646 02e4 9B01     		lsls	r3, r3, #6
 4647 02e6 1344     		add	r3, r3, r2
 4648 02e8 1B68     		ldr	r3, [r3]
 4649              		.loc 1 574 30
 4650 02ea 23F00102 		bic	r2, r3, #1
 4651 02ee F968     		ldr	r1, [r7, #12]
 4652 02f0 BB68     		ldr	r3, [r7, #8]
 4653 02f2 0133     		adds	r3, r3, #1
 4654 02f4 9B01     		lsls	r3, r3, #6
 4655 02f6 0B44     		add	r3, r3, r1
 4656 02f8 1A60     		str	r2, [r3]
 575:STM32Cube_FW_N6/Drivers/STM32N6xx_HAL_Driver/Src/stm32n6xx_hal_rif.c ****   }
 576:STM32Cube_FW_N6/Drivers/STM32N6xx_HAL_Driver/Src/stm32n6xx_hal_rif.c ****   else
 577:STM32Cube_FW_N6/Drivers/STM32N6xx_HAL_Driver/Src/stm32n6xx_hal_rif.c ****   {
 578:STM32Cube_FW_N6/Drivers/STM32N6xx_HAL_Driver/Src/stm32n6xx_hal_rif.c ****     /* Check the parameters */
 579:STM32Cube_FW_N6/Drivers/STM32N6xx_HAL_Driver/Src/stm32n6xx_hal_rif.c ****     assert_param(IS_RISAF_FILTERING(pConfig->Filtering));
 580:STM32Cube_FW_N6/Drivers/STM32N6xx_HAL_Driver/Src/stm32n6xx_hal_rif.c ****     assert_param(IS_RIF_CID(pConfig->PrivWhitelist));
 581:STM32Cube_FW_N6/Drivers/STM32N6xx_HAL_Driver/Src/stm32n6xx_hal_rif.c ****     assert_param(IS_RIF_CID(pConfig->ReadWhitelist));
 582:STM32Cube_FW_N6/Drivers/STM32N6xx_HAL_Driver/Src/stm32n6xx_hal_rif.c ****     assert_param(IS_RIF_CID(pConfig->WriteWhitelist));
 583:STM32Cube_FW_N6/Drivers/STM32N6xx_HAL_Driver/Src/stm32n6xx_hal_rif.c ****     assert_param(IS_RIF_SEC_PRIV_ATTRIBUTE(pConfig->Secure));
 584:STM32Cube_FW_N6/Drivers/STM32N6xx_HAL_Driver/Src/stm32n6xx_hal_rif.c ****     assert_param(IS_RISAF_GRANULARITY(RISAFx, pConfig->StartAddress));
 585:STM32Cube_FW_N6/Drivers/STM32N6xx_HAL_Driver/Src/stm32n6xx_hal_rif.c ****     assert_param(IS_RISAF_LIMIT_ADDRESS_SPACE_SIZE(RISAFx, pConfig->StartAddress));
ARM GAS  /tmp/ccRTEIeG.s 			page 100


 586:STM32Cube_FW_N6/Drivers/STM32N6xx_HAL_Driver/Src/stm32n6xx_hal_rif.c ****     assert_param(IS_RISAF_GRANULARITY(RISAFx, (pConfig->EndAddress + 1U)));
 587:STM32Cube_FW_N6/Drivers/STM32N6xx_HAL_Driver/Src/stm32n6xx_hal_rif.c ****     assert_param(IS_RISAF_LIMIT_ADDRESS_SPACE_SIZE(RISAFx, pConfig->EndAddress));
 588:STM32Cube_FW_N6/Drivers/STM32N6xx_HAL_Driver/Src/stm32n6xx_hal_rif.c ****     assert_param(pConfig->StartAddress < pConfig->EndAddress);
 589:STM32Cube_FW_N6/Drivers/STM32N6xx_HAL_Driver/Src/stm32n6xx_hal_rif.c **** 
 590:STM32Cube_FW_N6/Drivers/STM32N6xx_HAL_Driver/Src/stm32n6xx_hal_rif.c ****     /* Update region start and end addresses */
 591:STM32Cube_FW_N6/Drivers/STM32N6xx_HAL_Driver/Src/stm32n6xx_hal_rif.c ****     RISAFx->REG[Region].STARTR = pConfig->StartAddress;
 592:STM32Cube_FW_N6/Drivers/STM32N6xx_HAL_Driver/Src/stm32n6xx_hal_rif.c ****     RISAFx->REG[Region].ENDR = pConfig->EndAddress;
 593:STM32Cube_FW_N6/Drivers/STM32N6xx_HAL_Driver/Src/stm32n6xx_hal_rif.c **** 
 594:STM32Cube_FW_N6/Drivers/STM32N6xx_HAL_Driver/Src/stm32n6xx_hal_rif.c ****     /* Update filtering mode, security and privilege attributes and whitelists */
 595:STM32Cube_FW_N6/Drivers/STM32N6xx_HAL_Driver/Src/stm32n6xx_hal_rif.c ****     RISAFx->REG[Region].CIDCFGR = (pConfig->ReadWhitelist | (pConfig->WriteWhitelist << RISAF_REGx_
 596:STM32Cube_FW_N6/Drivers/STM32N6xx_HAL_Driver/Src/stm32n6xx_hal_rif.c ****     RISAFx->REG[Region].CFGR = (pConfig->Filtering | (pConfig->Secure << RISAF_REGx_CFGR_SEC_Pos)
 597:STM32Cube_FW_N6/Drivers/STM32N6xx_HAL_Driver/Src/stm32n6xx_hal_rif.c ****                                 | (pConfig->PrivWhitelist << RISAF_REGx_CFGR_PRIVC0_Pos));
 598:STM32Cube_FW_N6/Drivers/STM32N6xx_HAL_Driver/Src/stm32n6xx_hal_rif.c ****   }
 599:STM32Cube_FW_N6/Drivers/STM32N6xx_HAL_Driver/Src/stm32n6xx_hal_rif.c **** }
 4657              		.loc 1 599 1
 4658 02fa 98E3     		b	.L213
 4659              	.L117:
 579:STM32Cube_FW_N6/Drivers/STM32N6xx_HAL_Driver/Src/stm32n6xx_hal_rif.c ****     assert_param(IS_RIF_CID(pConfig->PrivWhitelist));
 4660              		.loc 1 579 5
 4661 02fc 7B68     		ldr	r3, [r7, #4]
 4662 02fe 1B68     		ldr	r3, [r3]
 4663 0300 002B     		cmp	r3, #0
 4664 0302 08D0     		beq	.L119
 579:STM32Cube_FW_N6/Drivers/STM32N6xx_HAL_Driver/Src/stm32n6xx_hal_rif.c ****     assert_param(IS_RIF_CID(pConfig->PrivWhitelist));
 4665              		.loc 1 579 5 is_stmt 0 discriminator 1
 4666 0304 7B68     		ldr	r3, [r7, #4]
 4667 0306 1B68     		ldr	r3, [r3]
 4668 0308 012B     		cmp	r3, #1
 4669 030a 04D0     		beq	.L119
 579:STM32Cube_FW_N6/Drivers/STM32N6xx_HAL_Driver/Src/stm32n6xx_hal_rif.c ****     assert_param(IS_RIF_CID(pConfig->PrivWhitelist));
 4670              		.loc 1 579 5 discriminator 2
 4671 030c 40F24321 		movw	r1, #579
 4672 0310 6448     		ldr	r0, .L216+16
 4673 0312 FFF7FEFF 		bl	assert_failed
 4674              	.L119:
 580:STM32Cube_FW_N6/Drivers/STM32N6xx_HAL_Driver/Src/stm32n6xx_hal_rif.c ****     assert_param(IS_RIF_CID(pConfig->ReadWhitelist));
 4675              		.loc 1 580 5 is_stmt 1
 4676 0316 7B68     		ldr	r3, [r7, #4]
 4677 0318 9B68     		ldr	r3, [r3, #8]
 4678 031a FF2B     		cmp	r3, #255
 4679 031c 04D9     		bls	.L120
 580:STM32Cube_FW_N6/Drivers/STM32N6xx_HAL_Driver/Src/stm32n6xx_hal_rif.c ****     assert_param(IS_RIF_CID(pConfig->ReadWhitelist));
 4680              		.loc 1 580 5 is_stmt 0 discriminator 1
 4681 031e 4FF41171 		mov	r1, #580
 4682 0322 6048     		ldr	r0, .L216+16
 4683 0324 FFF7FEFF 		bl	assert_failed
 4684              	.L120:
 581:STM32Cube_FW_N6/Drivers/STM32N6xx_HAL_Driver/Src/stm32n6xx_hal_rif.c ****     assert_param(IS_RIF_CID(pConfig->WriteWhitelist));
 4685              		.loc 1 581 5 is_stmt 1
 4686 0328 7B68     		ldr	r3, [r7, #4]
 4687 032a DB68     		ldr	r3, [r3, #12]
 4688 032c FF2B     		cmp	r3, #255
 4689 032e 04D9     		bls	.L121
 581:STM32Cube_FW_N6/Drivers/STM32N6xx_HAL_Driver/Src/stm32n6xx_hal_rif.c ****     assert_param(IS_RIF_CID(pConfig->WriteWhitelist));
 4690              		.loc 1 581 5 is_stmt 0 discriminator 1
 4691 0330 40F24521 		movw	r1, #581
 4692 0334 5B48     		ldr	r0, .L216+16
ARM GAS  /tmp/ccRTEIeG.s 			page 101


 4693 0336 FFF7FEFF 		bl	assert_failed
 4694              	.L121:
 582:STM32Cube_FW_N6/Drivers/STM32N6xx_HAL_Driver/Src/stm32n6xx_hal_rif.c ****     assert_param(IS_RIF_SEC_PRIV_ATTRIBUTE(pConfig->Secure));
 4695              		.loc 1 582 5 is_stmt 1
 4696 033a 7B68     		ldr	r3, [r7, #4]
 4697 033c 1B69     		ldr	r3, [r3, #16]
 4698 033e FF2B     		cmp	r3, #255
 4699 0340 04D9     		bls	.L122
 582:STM32Cube_FW_N6/Drivers/STM32N6xx_HAL_Driver/Src/stm32n6xx_hal_rif.c ****     assert_param(IS_RIF_SEC_PRIV_ATTRIBUTE(pConfig->Secure));
 4700              		.loc 1 582 5 is_stmt 0 discriminator 1
 4701 0342 40F24621 		movw	r1, #582
 4702 0346 5748     		ldr	r0, .L216+16
 4703 0348 FFF7FEFF 		bl	assert_failed
 4704              	.L122:
 583:STM32Cube_FW_N6/Drivers/STM32N6xx_HAL_Driver/Src/stm32n6xx_hal_rif.c ****     assert_param(IS_RISAF_GRANULARITY(RISAFx, pConfig->StartAddress));
 4705              		.loc 1 583 5 is_stmt 1
 4706 034c 7B68     		ldr	r3, [r7, #4]
 4707 034e 5B68     		ldr	r3, [r3, #4]
 4708 0350 032B     		cmp	r3, #3
 4709 0352 04D9     		bls	.L123
 583:STM32Cube_FW_N6/Drivers/STM32N6xx_HAL_Driver/Src/stm32n6xx_hal_rif.c ****     assert_param(IS_RISAF_GRANULARITY(RISAFx, pConfig->StartAddress));
 4710              		.loc 1 583 5 is_stmt 0 discriminator 1
 4711 0354 40F24721 		movw	r1, #583
 4712 0358 5248     		ldr	r0, .L216+16
 4713 035a FFF7FEFF 		bl	assert_failed
 4714              	.L123:
 584:STM32Cube_FW_N6/Drivers/STM32N6xx_HAL_Driver/Src/stm32n6xx_hal_rif.c ****     assert_param(IS_RISAF_LIMIT_ADDRESS_SPACE_SIZE(RISAFx, pConfig->StartAddress));
 4715              		.loc 1 584 5 is_stmt 1
 4716 035e FB68     		ldr	r3, [r7, #12]
 4717 0360 514A     		ldr	r2, .L216+20
 4718 0362 9342     		cmp	r3, r2
 4719 0364 09D1     		bne	.L124
 584:STM32Cube_FW_N6/Drivers/STM32N6xx_HAL_Driver/Src/stm32n6xx_hal_rif.c ****     assert_param(IS_RISAF_LIMIT_ADDRESS_SPACE_SIZE(RISAFx, pConfig->StartAddress));
 4720              		.loc 1 584 5 is_stmt 0 discriminator 1
 4721 0366 7B68     		ldr	r3, [r7, #4]
 4722 0368 5B69     		ldr	r3, [r3, #20]
 4723 036a C3F30B03 		ubfx	r3, r3, #0, #12
 4724 036e 002B     		cmp	r3, #0
 4725 0370 0CBF     		ite	eq
 4726 0372 0123     		moveq	r3, #1
 4727 0374 0023     		movne	r3, #0
 4728 0376 DBB2     		uxtb	r3, r3
 4729 0378 DFE0     		b	.L125
 4730              	.L124:
 584:STM32Cube_FW_N6/Drivers/STM32N6xx_HAL_Driver/Src/stm32n6xx_hal_rif.c ****     assert_param(IS_RISAF_LIMIT_ADDRESS_SPACE_SIZE(RISAFx, pConfig->StartAddress));
 4731              		.loc 1 584 5 discriminator 2
 4732 037a FB68     		ldr	r3, [r7, #12]
 4733 037c 4B4A     		ldr	r2, .L216+24
 4734 037e 9342     		cmp	r3, r2
 4735 0380 09D1     		bne	.L126
 584:STM32Cube_FW_N6/Drivers/STM32N6xx_HAL_Driver/Src/stm32n6xx_hal_rif.c ****     assert_param(IS_RISAF_LIMIT_ADDRESS_SPACE_SIZE(RISAFx, pConfig->StartAddress));
 4736              		.loc 1 584 5 discriminator 4
 4737 0382 7B68     		ldr	r3, [r7, #4]
 4738 0384 5B69     		ldr	r3, [r3, #20]
 4739 0386 C3F30B03 		ubfx	r3, r3, #0, #12
 4740 038a 002B     		cmp	r3, #0
 4741 038c 0CBF     		ite	eq
ARM GAS  /tmp/ccRTEIeG.s 			page 102


 4742 038e 0123     		moveq	r3, #1
 4743 0390 0023     		movne	r3, #0
 4744 0392 DBB2     		uxtb	r3, r3
 4745 0394 D1E0     		b	.L125
 4746              	.L126:
 584:STM32Cube_FW_N6/Drivers/STM32N6xx_HAL_Driver/Src/stm32n6xx_hal_rif.c ****     assert_param(IS_RISAF_LIMIT_ADDRESS_SPACE_SIZE(RISAFx, pConfig->StartAddress));
 4747              		.loc 1 584 5 discriminator 5
 4748 0396 FB68     		ldr	r3, [r7, #12]
 4749 0398 454A     		ldr	r2, .L216+28
 4750 039a 9342     		cmp	r3, r2
 4751 039c 09D1     		bne	.L128
 584:STM32Cube_FW_N6/Drivers/STM32N6xx_HAL_Driver/Src/stm32n6xx_hal_rif.c ****     assert_param(IS_RISAF_LIMIT_ADDRESS_SPACE_SIZE(RISAFx, pConfig->StartAddress));
 4752              		.loc 1 584 5 discriminator 7
 4753 039e 7B68     		ldr	r3, [r7, #4]
 4754 03a0 5B69     		ldr	r3, [r3, #20]
 4755 03a2 C3F30B03 		ubfx	r3, r3, #0, #12
 4756 03a6 002B     		cmp	r3, #0
 4757 03a8 0CBF     		ite	eq
 4758 03aa 0123     		moveq	r3, #1
 4759 03ac 0023     		movne	r3, #0
 4760 03ae DBB2     		uxtb	r3, r3
 4761 03b0 C3E0     		b	.L125
 4762              	.L128:
 584:STM32Cube_FW_N6/Drivers/STM32N6xx_HAL_Driver/Src/stm32n6xx_hal_rif.c ****     assert_param(IS_RISAF_LIMIT_ADDRESS_SPACE_SIZE(RISAFx, pConfig->StartAddress));
 4763              		.loc 1 584 5 discriminator 8
 4764 03b2 FB68     		ldr	r3, [r7, #12]
 4765 03b4 3F4A     		ldr	r2, .L216+32
 4766 03b6 9342     		cmp	r3, r2
 4767 03b8 09D1     		bne	.L130
 584:STM32Cube_FW_N6/Drivers/STM32N6xx_HAL_Driver/Src/stm32n6xx_hal_rif.c ****     assert_param(IS_RISAF_LIMIT_ADDRESS_SPACE_SIZE(RISAFx, pConfig->StartAddress));
 4768              		.loc 1 584 5 discriminator 10
 4769 03ba 7B68     		ldr	r3, [r7, #4]
 4770 03bc 5B69     		ldr	r3, [r3, #20]
 4771 03be C3F30B03 		ubfx	r3, r3, #0, #12
 4772 03c2 002B     		cmp	r3, #0
 4773 03c4 0CBF     		ite	eq
 4774 03c6 0123     		moveq	r3, #1
 4775 03c8 0023     		movne	r3, #0
 4776 03ca DBB2     		uxtb	r3, r3
 4777 03cc B5E0     		b	.L125
 4778              	.L130:
 584:STM32Cube_FW_N6/Drivers/STM32N6xx_HAL_Driver/Src/stm32n6xx_hal_rif.c ****     assert_param(IS_RISAF_LIMIT_ADDRESS_SPACE_SIZE(RISAFx, pConfig->StartAddress));
 4779              		.loc 1 584 5 discriminator 11
 4780 03ce FB68     		ldr	r3, [r7, #12]
 4781 03d0 394A     		ldr	r2, .L216+36
 4782 03d2 9342     		cmp	r3, r2
 4783 03d4 09D1     		bne	.L132
 584:STM32Cube_FW_N6/Drivers/STM32N6xx_HAL_Driver/Src/stm32n6xx_hal_rif.c ****     assert_param(IS_RISAF_LIMIT_ADDRESS_SPACE_SIZE(RISAFx, pConfig->StartAddress));
 4784              		.loc 1 584 5 discriminator 13
 4785 03d6 7B68     		ldr	r3, [r7, #4]
 4786 03d8 5B69     		ldr	r3, [r3, #20]
 4787 03da C3F30B03 		ubfx	r3, r3, #0, #12
 4788 03de 002B     		cmp	r3, #0
 4789 03e0 0CBF     		ite	eq
 4790 03e2 0123     		moveq	r3, #1
 4791 03e4 0023     		movne	r3, #0
 4792 03e6 DBB2     		uxtb	r3, r3
ARM GAS  /tmp/ccRTEIeG.s 			page 103


 4793 03e8 A7E0     		b	.L125
 4794              	.L132:
 584:STM32Cube_FW_N6/Drivers/STM32N6xx_HAL_Driver/Src/stm32n6xx_hal_rif.c ****     assert_param(IS_RISAF_LIMIT_ADDRESS_SPACE_SIZE(RISAFx, pConfig->StartAddress));
 4795              		.loc 1 584 5 discriminator 14
 4796 03ea FB68     		ldr	r3, [r7, #12]
 4797 03ec 334A     		ldr	r2, .L216+40
 4798 03ee 9342     		cmp	r3, r2
 4799 03f0 09D1     		bne	.L134
 584:STM32Cube_FW_N6/Drivers/STM32N6xx_HAL_Driver/Src/stm32n6xx_hal_rif.c ****     assert_param(IS_RISAF_LIMIT_ADDRESS_SPACE_SIZE(RISAFx, pConfig->StartAddress));
 4800              		.loc 1 584 5 discriminator 16
 4801 03f2 7B68     		ldr	r3, [r7, #4]
 4802 03f4 5B69     		ldr	r3, [r3, #20]
 4803 03f6 C3F30B03 		ubfx	r3, r3, #0, #12
 4804 03fa 002B     		cmp	r3, #0
 4805 03fc 0CBF     		ite	eq
 4806 03fe 0123     		moveq	r3, #1
 4807 0400 0023     		movne	r3, #0
 4808 0402 DBB2     		uxtb	r3, r3
 4809 0404 99E0     		b	.L125
 4810              	.L134:
 584:STM32Cube_FW_N6/Drivers/STM32N6xx_HAL_Driver/Src/stm32n6xx_hal_rif.c ****     assert_param(IS_RISAF_LIMIT_ADDRESS_SPACE_SIZE(RISAFx, pConfig->StartAddress));
 4811              		.loc 1 584 5 discriminator 17
 4812 0406 FB68     		ldr	r3, [r7, #12]
 4813 0408 2D4A     		ldr	r2, .L216+44
 4814 040a 9342     		cmp	r3, r2
 4815 040c 09D1     		bne	.L136
 584:STM32Cube_FW_N6/Drivers/STM32N6xx_HAL_Driver/Src/stm32n6xx_hal_rif.c ****     assert_param(IS_RISAF_LIMIT_ADDRESS_SPACE_SIZE(RISAFx, pConfig->StartAddress));
 4816              		.loc 1 584 5 discriminator 19
 4817 040e 7B68     		ldr	r3, [r7, #4]
 4818 0410 5B69     		ldr	r3, [r3, #20]
 4819 0412 C3F30B03 		ubfx	r3, r3, #0, #12
 4820 0416 002B     		cmp	r3, #0
 4821 0418 0CBF     		ite	eq
 4822 041a 0123     		moveq	r3, #1
 4823 041c 0023     		movne	r3, #0
 4824 041e DBB2     		uxtb	r3, r3
 4825 0420 8BE0     		b	.L125
 4826              	.L136:
 584:STM32Cube_FW_N6/Drivers/STM32N6xx_HAL_Driver/Src/stm32n6xx_hal_rif.c ****     assert_param(IS_RISAF_LIMIT_ADDRESS_SPACE_SIZE(RISAFx, pConfig->StartAddress));
 4827              		.loc 1 584 5 discriminator 20
 4828 0422 FB68     		ldr	r3, [r7, #12]
 4829 0424 274A     		ldr	r2, .L216+48
 4830 0426 9342     		cmp	r3, r2
 4831 0428 09D1     		bne	.L138
 584:STM32Cube_FW_N6/Drivers/STM32N6xx_HAL_Driver/Src/stm32n6xx_hal_rif.c ****     assert_param(IS_RISAF_LIMIT_ADDRESS_SPACE_SIZE(RISAFx, pConfig->StartAddress));
 4832              		.loc 1 584 5 discriminator 22
 4833 042a 7B68     		ldr	r3, [r7, #4]
 4834 042c 5B69     		ldr	r3, [r3, #20]
 4835 042e C3F30B03 		ubfx	r3, r3, #0, #12
 4836 0432 002B     		cmp	r3, #0
 4837 0434 0CBF     		ite	eq
 4838 0436 0123     		moveq	r3, #1
 4839 0438 0023     		movne	r3, #0
 4840 043a DBB2     		uxtb	r3, r3
 4841 043c 7DE0     		b	.L125
 4842              	.L138:
 584:STM32Cube_FW_N6/Drivers/STM32N6xx_HAL_Driver/Src/stm32n6xx_hal_rif.c ****     assert_param(IS_RISAF_LIMIT_ADDRESS_SPACE_SIZE(RISAFx, pConfig->StartAddress));
ARM GAS  /tmp/ccRTEIeG.s 			page 104


 4843              		.loc 1 584 5 discriminator 23
 4844 043e FB68     		ldr	r3, [r7, #12]
 4845 0440 214A     		ldr	r2, .L216+52
 4846 0442 9342     		cmp	r3, r2
 4847 0444 09D1     		bne	.L140
 584:STM32Cube_FW_N6/Drivers/STM32N6xx_HAL_Driver/Src/stm32n6xx_hal_rif.c ****     assert_param(IS_RISAF_LIMIT_ADDRESS_SPACE_SIZE(RISAFx, pConfig->StartAddress));
 4848              		.loc 1 584 5 discriminator 25
 4849 0446 7B68     		ldr	r3, [r7, #4]
 4850 0448 5B69     		ldr	r3, [r3, #20]
 4851 044a C3F30B03 		ubfx	r3, r3, #0, #12
 4852 044e 002B     		cmp	r3, #0
 4853 0450 0CBF     		ite	eq
 4854 0452 0123     		moveq	r3, #1
 4855 0454 0023     		movne	r3, #0
 4856 0456 DBB2     		uxtb	r3, r3
 4857 0458 6FE0     		b	.L125
 4858              	.L140:
 584:STM32Cube_FW_N6/Drivers/STM32N6xx_HAL_Driver/Src/stm32n6xx_hal_rif.c ****     assert_param(IS_RISAF_LIMIT_ADDRESS_SPACE_SIZE(RISAFx, pConfig->StartAddress));
 4859              		.loc 1 584 5 discriminator 26
 4860 045a FB68     		ldr	r3, [r7, #12]
 4861 045c 1B4A     		ldr	r2, .L216+56
 4862 045e 9342     		cmp	r3, r2
 4863 0460 09D1     		bne	.L142
 584:STM32Cube_FW_N6/Drivers/STM32N6xx_HAL_Driver/Src/stm32n6xx_hal_rif.c ****     assert_param(IS_RISAF_LIMIT_ADDRESS_SPACE_SIZE(RISAFx, pConfig->StartAddress));
 4864              		.loc 1 584 5 discriminator 28
 4865 0462 7B68     		ldr	r3, [r7, #4]
 4866 0464 5B69     		ldr	r3, [r3, #20]
 4867 0466 C3F30B03 		ubfx	r3, r3, #0, #12
 4868 046a 002B     		cmp	r3, #0
 4869 046c 0CBF     		ite	eq
 4870 046e 0123     		moveq	r3, #1
 4871 0470 0023     		movne	r3, #0
 4872 0472 DBB2     		uxtb	r3, r3
 4873 0474 61E0     		b	.L125
 4874              	.L142:
 584:STM32Cube_FW_N6/Drivers/STM32N6xx_HAL_Driver/Src/stm32n6xx_hal_rif.c ****     assert_param(IS_RISAF_LIMIT_ADDRESS_SPACE_SIZE(RISAFx, pConfig->StartAddress));
 4875              		.loc 1 584 5 discriminator 29
 4876 0476 FB68     		ldr	r3, [r7, #12]
 4877 0478 154A     		ldr	r2, .L216+60
 4878 047a 9342     		cmp	r3, r2
 4879 047c 2AD1     		bne	.L144
 584:STM32Cube_FW_N6/Drivers/STM32N6xx_HAL_Driver/Src/stm32n6xx_hal_rif.c ****     assert_param(IS_RISAF_LIMIT_ADDRESS_SPACE_SIZE(RISAFx, pConfig->StartAddress));
 4880              		.loc 1 584 5 discriminator 31
 4881 047e 7B68     		ldr	r3, [r7, #4]
 4882 0480 5B69     		ldr	r3, [r3, #20]
 4883 0482 C3F30B03 		ubfx	r3, r3, #0, #12
 4884 0486 002B     		cmp	r3, #0
 4885 0488 0CBF     		ite	eq
 4886 048a 0123     		moveq	r3, #1
 4887 048c 0023     		movne	r3, #0
 4888 048e DBB2     		uxtb	r3, r3
 4889 0490 53E0     		b	.L125
 4890              	.L217:
 4891 0492 00BF     		.align	2
 4892              	.L216:
 4893 0494 00300354 		.word	1409495040
 4894 0498 00400354 		.word	1409499136
ARM GAS  /tmp/ccRTEIeG.s 			page 105


 4895 049c 00500354 		.word	1409503232
 4896 04a0 00600354 		.word	1409507328
 4897 04a4 00000000 		.word	.LC0
 4898 04a8 00600254 		.word	1409441792
 4899 04ac 00700254 		.word	1409445888
 4900 04b0 00800254 		.word	1409449984
 4901 04b4 00900254 		.word	1409454080
 4902 04b8 00A00254 		.word	1409458176
 4903 04bc 00B00254 		.word	1409462272
 4904 04c0 00C00254 		.word	1409466368
 4905 04c4 00D00254 		.word	1409470464
 4906 04c8 00E00254 		.word	1409474560
 4907 04cc 00000354 		.word	1409482752
 4908 04d0 00100354 		.word	1409486848
 4909              	.L144:
 584:STM32Cube_FW_N6/Drivers/STM32N6xx_HAL_Driver/Src/stm32n6xx_hal_rif.c ****     assert_param(IS_RISAF_LIMIT_ADDRESS_SPACE_SIZE(RISAFx, pConfig->StartAddress));
 4910              		.loc 1 584 5 discriminator 32
 4911 04d4 FB68     		ldr	r3, [r7, #12]
 4912 04d6 8A4A     		ldr	r2, .L218
 4913 04d8 9342     		cmp	r3, r2
 4914 04da 09D1     		bne	.L146
 584:STM32Cube_FW_N6/Drivers/STM32N6xx_HAL_Driver/Src/stm32n6xx_hal_rif.c ****     assert_param(IS_RISAF_LIMIT_ADDRESS_SPACE_SIZE(RISAFx, pConfig->StartAddress));
 4915              		.loc 1 584 5 discriminator 34
 4916 04dc 7B68     		ldr	r3, [r7, #4]
 4917 04de 5B69     		ldr	r3, [r3, #20]
 4918 04e0 C3F30B03 		ubfx	r3, r3, #0, #12
 4919 04e4 002B     		cmp	r3, #0
 4920 04e6 0CBF     		ite	eq
 4921 04e8 0123     		moveq	r3, #1
 4922 04ea 0023     		movne	r3, #0
 4923 04ec DBB2     		uxtb	r3, r3
 4924 04ee 24E0     		b	.L125
 4925              	.L146:
 584:STM32Cube_FW_N6/Drivers/STM32N6xx_HAL_Driver/Src/stm32n6xx_hal_rif.c ****     assert_param(IS_RISAF_LIMIT_ADDRESS_SPACE_SIZE(RISAFx, pConfig->StartAddress));
 4926              		.loc 1 584 5 discriminator 35
 4927 04f0 FB68     		ldr	r3, [r7, #12]
 4928 04f2 844A     		ldr	r2, .L218+4
 4929 04f4 9342     		cmp	r3, r2
 4930 04f6 09D1     		bne	.L148
 584:STM32Cube_FW_N6/Drivers/STM32N6xx_HAL_Driver/Src/stm32n6xx_hal_rif.c ****     assert_param(IS_RISAF_LIMIT_ADDRESS_SPACE_SIZE(RISAFx, pConfig->StartAddress));
 4931              		.loc 1 584 5 discriminator 37
 4932 04f8 7B68     		ldr	r3, [r7, #4]
 4933 04fa 5B69     		ldr	r3, [r3, #20]
 4934 04fc C3F30B03 		ubfx	r3, r3, #0, #12
 4935 0500 002B     		cmp	r3, #0
 4936 0502 0CBF     		ite	eq
 4937 0504 0123     		moveq	r3, #1
 4938 0506 0023     		movne	r3, #0
 4939 0508 DBB2     		uxtb	r3, r3
 4940 050a 16E0     		b	.L125
 4941              	.L148:
 584:STM32Cube_FW_N6/Drivers/STM32N6xx_HAL_Driver/Src/stm32n6xx_hal_rif.c ****     assert_param(IS_RISAF_LIMIT_ADDRESS_SPACE_SIZE(RISAFx, pConfig->StartAddress));
 4942              		.loc 1 584 5 discriminator 38
 4943 050c FB68     		ldr	r3, [r7, #12]
 4944 050e 7E4A     		ldr	r2, .L218+8
 4945 0510 9342     		cmp	r3, r2
 4946 0512 09D1     		bne	.L150
ARM GAS  /tmp/ccRTEIeG.s 			page 106


 584:STM32Cube_FW_N6/Drivers/STM32N6xx_HAL_Driver/Src/stm32n6xx_hal_rif.c ****     assert_param(IS_RISAF_LIMIT_ADDRESS_SPACE_SIZE(RISAFx, pConfig->StartAddress));
 4947              		.loc 1 584 5 discriminator 40
 4948 0514 7B68     		ldr	r3, [r7, #4]
 4949 0516 5B69     		ldr	r3, [r3, #20]
 4950 0518 03F00303 		and	r3, r3, #3
 4951 051c 002B     		cmp	r3, #0
 4952 051e 0CBF     		ite	eq
 4953 0520 0123     		moveq	r3, #1
 4954 0522 0023     		movne	r3, #0
 4955 0524 DBB2     		uxtb	r3, r3
 4956 0526 08E0     		b	.L125
 4957              	.L150:
 584:STM32Cube_FW_N6/Drivers/STM32N6xx_HAL_Driver/Src/stm32n6xx_hal_rif.c ****     assert_param(IS_RISAF_LIMIT_ADDRESS_SPACE_SIZE(RISAFx, pConfig->StartAddress));
 4958              		.loc 1 584 5 discriminator 41
 4959 0528 7B68     		ldr	r3, [r7, #4]
 4960 052a 5B69     		ldr	r3, [r3, #20]
 4961 052c C3F30803 		ubfx	r3, r3, #0, #9
 4962 0530 002B     		cmp	r3, #0
 4963 0532 0CBF     		ite	eq
 4964 0534 0123     		moveq	r3, #1
 4965 0536 0023     		movne	r3, #0
 4966 0538 DBB2     		uxtb	r3, r3
 4967              	.L125:
 584:STM32Cube_FW_N6/Drivers/STM32N6xx_HAL_Driver/Src/stm32n6xx_hal_rif.c ****     assert_param(IS_RISAF_LIMIT_ADDRESS_SPACE_SIZE(RISAFx, pConfig->StartAddress));
 4968              		.loc 1 584 5 discriminator 56
 4969 053a 002B     		cmp	r3, #0
 4970 053c 04D1     		bne	.L152
 584:STM32Cube_FW_N6/Drivers/STM32N6xx_HAL_Driver/Src/stm32n6xx_hal_rif.c ****     assert_param(IS_RISAF_LIMIT_ADDRESS_SPACE_SIZE(RISAFx, pConfig->StartAddress));
 4971              		.loc 1 584 5 discriminator 57
 4972 053e 4FF41271 		mov	r1, #584
 4973 0542 7248     		ldr	r0, .L218+12
 4974 0544 FFF7FEFF 		bl	assert_failed
 4975              	.L152:
 585:STM32Cube_FW_N6/Drivers/STM32N6xx_HAL_Driver/Src/stm32n6xx_hal_rif.c ****     assert_param(IS_RISAF_GRANULARITY(RISAFx, (pConfig->EndAddress + 1U)));
 4976              		.loc 1 585 5 is_stmt 1
 4977 0548 FB68     		ldr	r3, [r7, #12]
 4978 054a 714A     		ldr	r2, .L218+16
 4979 054c 9342     		cmp	r3, r2
 4980 054e 05D1     		bne	.L153
 585:STM32Cube_FW_N6/Drivers/STM32N6xx_HAL_Driver/Src/stm32n6xx_hal_rif.c ****     assert_param(IS_RISAF_GRANULARITY(RISAFx, (pConfig->EndAddress + 1U)));
 4981              		.loc 1 585 5 is_stmt 0 discriminator 2
 4982 0550 7B68     		ldr	r3, [r7, #4]
 4983 0552 5B69     		ldr	r3, [r3, #20]
 4984 0554 B3F1804F 		cmp	r3, #1073741824
 4985 0558 C0F08680 		bcc	.L154
 4986              	.L153:
 585:STM32Cube_FW_N6/Drivers/STM32N6xx_HAL_Driver/Src/stm32n6xx_hal_rif.c ****     assert_param(IS_RISAF_GRANULARITY(RISAFx, (pConfig->EndAddress + 1U)));
 4987              		.loc 1 585 5 discriminator 3
 4988 055c FB68     		ldr	r3, [r7, #12]
 4989 055e 6D4A     		ldr	r2, .L218+20
 4990 0560 9342     		cmp	r3, r2
 4991 0562 04D1     		bne	.L155
 585:STM32Cube_FW_N6/Drivers/STM32N6xx_HAL_Driver/Src/stm32n6xx_hal_rif.c ****     assert_param(IS_RISAF_GRANULARITY(RISAFx, (pConfig->EndAddress + 1U)));
 4992              		.loc 1 585 5 discriminator 5
 4993 0564 7B68     		ldr	r3, [r7, #4]
 4994 0566 5B69     		ldr	r3, [r3, #20]
 4995 0568 B3F5801F 		cmp	r3, #1048576
ARM GAS  /tmp/ccRTEIeG.s 			page 107


 4996 056c 7CD3     		bcc	.L154
 4997              	.L155:
 585:STM32Cube_FW_N6/Drivers/STM32N6xx_HAL_Driver/Src/stm32n6xx_hal_rif.c ****     assert_param(IS_RISAF_GRANULARITY(RISAFx, (pConfig->EndAddress + 1U)));
 4998              		.loc 1 585 5 discriminator 6
 4999 056e FB68     		ldr	r3, [r7, #12]
 5000 0570 694A     		ldr	r2, .L218+24
 5001 0572 9342     		cmp	r3, r2
 5002 0574 04D1     		bne	.L156
 585:STM32Cube_FW_N6/Drivers/STM32N6xx_HAL_Driver/Src/stm32n6xx_hal_rif.c ****     assert_param(IS_RISAF_GRANULARITY(RISAFx, (pConfig->EndAddress + 1U)));
 5003              		.loc 1 585 5 discriminator 8
 5004 0576 7B68     		ldr	r3, [r7, #4]
 5005 0578 5B69     		ldr	r3, [r3, #20]
 5006 057a B3F5801F 		cmp	r3, #1048576
 5007 057e 73D3     		bcc	.L154
 5008              	.L156:
 585:STM32Cube_FW_N6/Drivers/STM32N6xx_HAL_Driver/Src/stm32n6xx_hal_rif.c ****     assert_param(IS_RISAF_GRANULARITY(RISAFx, (pConfig->EndAddress + 1U)));
 5009              		.loc 1 585 5 discriminator 9
 5010 0580 FB68     		ldr	r3, [r7, #12]
 5011 0582 664A     		ldr	r2, .L218+28
 5012 0584 9342     		cmp	r3, r2
 5013 0586 6FD0     		beq	.L154
 585:STM32Cube_FW_N6/Drivers/STM32N6xx_HAL_Driver/Src/stm32n6xx_hal_rif.c ****     assert_param(IS_RISAF_GRANULARITY(RISAFx, (pConfig->EndAddress + 1U)));
 5014              		.loc 1 585 5 discriminator 10
 5015 0588 FB68     		ldr	r3, [r7, #12]
 5016 058a 654A     		ldr	r2, .L218+32
 5017 058c 9342     		cmp	r3, r2
 5018 058e 6BD0     		beq	.L154
 585:STM32Cube_FW_N6/Drivers/STM32N6xx_HAL_Driver/Src/stm32n6xx_hal_rif.c ****     assert_param(IS_RISAF_GRANULARITY(RISAFx, (pConfig->EndAddress + 1U)));
 5019              		.loc 1 585 5 discriminator 11
 5020 0590 FB68     		ldr	r3, [r7, #12]
 5021 0592 644A     		ldr	r2, .L218+36
 5022 0594 9342     		cmp	r3, r2
 5023 0596 67D0     		beq	.L154
 585:STM32Cube_FW_N6/Drivers/STM32N6xx_HAL_Driver/Src/stm32n6xx_hal_rif.c ****     assert_param(IS_RISAF_GRANULARITY(RISAFx, (pConfig->EndAddress + 1U)));
 5024              		.loc 1 585 5 discriminator 12
 5025 0598 FB68     		ldr	r3, [r7, #12]
 5026 059a 634A     		ldr	r2, .L218+40
 5027 059c 9342     		cmp	r3, r2
 5028 059e 04D1     		bne	.L157
 585:STM32Cube_FW_N6/Drivers/STM32N6xx_HAL_Driver/Src/stm32n6xx_hal_rif.c ****     assert_param(IS_RISAF_GRANULARITY(RISAFx, (pConfig->EndAddress + 1U)));
 5029              		.loc 1 585 5 discriminator 14
 5030 05a0 7B68     		ldr	r3, [r7, #4]
 5031 05a2 5B69     		ldr	r3, [r3, #20]
 5032 05a4 B3F5002F 		cmp	r3, #524288
 5033 05a8 5ED3     		bcc	.L154
 5034              	.L157:
 585:STM32Cube_FW_N6/Drivers/STM32N6xx_HAL_Driver/Src/stm32n6xx_hal_rif.c ****     assert_param(IS_RISAF_GRANULARITY(RISAFx, (pConfig->EndAddress + 1U)));
 5035              		.loc 1 585 5 discriminator 15
 5036 05aa FB68     		ldr	r3, [r7, #12]
 5037 05ac 5F4A     		ldr	r2, .L218+44
 5038 05ae 9342     		cmp	r3, r2
 5039 05b0 04D1     		bne	.L158
 585:STM32Cube_FW_N6/Drivers/STM32N6xx_HAL_Driver/Src/stm32n6xx_hal_rif.c ****     assert_param(IS_RISAF_GRANULARITY(RISAFx, (pConfig->EndAddress + 1U)));
 5040              		.loc 1 585 5 discriminator 17
 5041 05b2 7B68     		ldr	r3, [r7, #4]
 5042 05b4 5B69     		ldr	r3, [r3, #20]
 5043 05b6 B3F5802F 		cmp	r3, #262144
ARM GAS  /tmp/ccRTEIeG.s 			page 108


 5044 05ba 55D3     		bcc	.L154
 5045              	.L158:
 585:STM32Cube_FW_N6/Drivers/STM32N6xx_HAL_Driver/Src/stm32n6xx_hal_rif.c ****     assert_param(IS_RISAF_GRANULARITY(RISAFx, (pConfig->EndAddress + 1U)));
 5046              		.loc 1 585 5 discriminator 18
 5047 05bc FB68     		ldr	r3, [r7, #12]
 5048 05be 5C4A     		ldr	r2, .L218+48
 5049 05c0 9342     		cmp	r3, r2
 5050 05c2 04D1     		bne	.L159
 585:STM32Cube_FW_N6/Drivers/STM32N6xx_HAL_Driver/Src/stm32n6xx_hal_rif.c ****     assert_param(IS_RISAF_GRANULARITY(RISAFx, (pConfig->EndAddress + 1U)));
 5051              		.loc 1 585 5 discriminator 20
 5052 05c4 7B68     		ldr	r3, [r7, #4]
 5053 05c6 5B69     		ldr	r3, [r3, #20]
 5054 05c8 B3F5003F 		cmp	r3, #131072
 5055 05cc 4CD3     		bcc	.L154
 5056              	.L159:
 585:STM32Cube_FW_N6/Drivers/STM32N6xx_HAL_Driver/Src/stm32n6xx_hal_rif.c ****     assert_param(IS_RISAF_GRANULARITY(RISAFx, (pConfig->EndAddress + 1U)));
 5057              		.loc 1 585 5 discriminator 21
 5058 05ce FB68     		ldr	r3, [r7, #12]
 5059 05d0 584A     		ldr	r2, .L218+52
 5060 05d2 9342     		cmp	r3, r2
 5061 05d4 04D1     		bne	.L160
 585:STM32Cube_FW_N6/Drivers/STM32N6xx_HAL_Driver/Src/stm32n6xx_hal_rif.c ****     assert_param(IS_RISAF_GRANULARITY(RISAFx, (pConfig->EndAddress + 1U)));
 5062              		.loc 1 585 5 discriminator 23
 5063 05d6 7B68     		ldr	r3, [r7, #4]
 5064 05d8 5B69     		ldr	r3, [r3, #20]
 5065 05da B3F1805F 		cmp	r3, #268435456
 5066 05de 43D3     		bcc	.L154
 5067              	.L160:
 585:STM32Cube_FW_N6/Drivers/STM32N6xx_HAL_Driver/Src/stm32n6xx_hal_rif.c ****     assert_param(IS_RISAF_GRANULARITY(RISAFx, (pConfig->EndAddress + 1U)));
 5068              		.loc 1 585 5 discriminator 24
 5069 05e0 FB68     		ldr	r3, [r7, #12]
 5070 05e2 554A     		ldr	r2, .L218+56
 5071 05e4 9342     		cmp	r3, r2
 5072 05e6 04D1     		bne	.L161
 585:STM32Cube_FW_N6/Drivers/STM32N6xx_HAL_Driver/Src/stm32n6xx_hal_rif.c ****     assert_param(IS_RISAF_GRANULARITY(RISAFx, (pConfig->EndAddress + 1U)));
 5073              		.loc 1 585 5 discriminator 26
 5074 05e8 7B68     		ldr	r3, [r7, #4]
 5075 05ea 5B69     		ldr	r3, [r3, #20]
 5076 05ec B3F1805F 		cmp	r3, #268435456
 5077 05f0 3AD3     		bcc	.L154
 5078              	.L161:
 585:STM32Cube_FW_N6/Drivers/STM32N6xx_HAL_Driver/Src/stm32n6xx_hal_rif.c ****     assert_param(IS_RISAF_GRANULARITY(RISAFx, (pConfig->EndAddress + 1U)));
 5079              		.loc 1 585 5 discriminator 27
 5080 05f2 FB68     		ldr	r3, [r7, #12]
 5081 05f4 424A     		ldr	r2, .L218
 5082 05f6 9342     		cmp	r3, r2
 5083 05f8 04D1     		bne	.L162
 585:STM32Cube_FW_N6/Drivers/STM32N6xx_HAL_Driver/Src/stm32n6xx_hal_rif.c ****     assert_param(IS_RISAF_GRANULARITY(RISAFx, (pConfig->EndAddress + 1U)));
 5084              		.loc 1 585 5 discriminator 29
 5085 05fa 7B68     		ldr	r3, [r7, #4]
 5086 05fc 5B69     		ldr	r3, [r3, #20]
 5087 05fe B3F1805F 		cmp	r3, #268435456
 5088 0602 31D3     		bcc	.L154
 5089              	.L162:
 585:STM32Cube_FW_N6/Drivers/STM32N6xx_HAL_Driver/Src/stm32n6xx_hal_rif.c ****     assert_param(IS_RISAF_GRANULARITY(RISAFx, (pConfig->EndAddress + 1U)));
 5090              		.loc 1 585 5 discriminator 30
 5091 0604 FB68     		ldr	r3, [r7, #12]
ARM GAS  /tmp/ccRTEIeG.s 			page 109


 5092 0606 3F4A     		ldr	r2, .L218+4
 5093 0608 9342     		cmp	r3, r2
 5094 060a 04D1     		bne	.L163
 585:STM32Cube_FW_N6/Drivers/STM32N6xx_HAL_Driver/Src/stm32n6xx_hal_rif.c ****     assert_param(IS_RISAF_GRANULARITY(RISAFx, (pConfig->EndAddress + 1U)));
 5095              		.loc 1 585 5 discriminator 32
 5096 060c 7B68     		ldr	r3, [r7, #4]
 5097 060e 5B69     		ldr	r3, [r3, #20]
 5098 0610 B3F1805F 		cmp	r3, #268435456
 5099 0614 28D3     		bcc	.L154
 5100              	.L163:
 585:STM32Cube_FW_N6/Drivers/STM32N6xx_HAL_Driver/Src/stm32n6xx_hal_rif.c ****     assert_param(IS_RISAF_GRANULARITY(RISAFx, (pConfig->EndAddress + 1U)));
 5101              		.loc 1 585 5 discriminator 33
 5102 0616 FB68     		ldr	r3, [r7, #12]
 5103 0618 3B4A     		ldr	r2, .L218+8
 5104 061a 9342     		cmp	r3, r2
 5105 061c 04D1     		bne	.L164
 585:STM32Cube_FW_N6/Drivers/STM32N6xx_HAL_Driver/Src/stm32n6xx_hal_rif.c ****     assert_param(IS_RISAF_GRANULARITY(RISAFx, (pConfig->EndAddress + 1U)));
 5106              		.loc 1 585 5 discriminator 35
 5107 061e 7B68     		ldr	r3, [r7, #4]
 5108 0620 5B69     		ldr	r3, [r3, #20]
 5109 0622 B3F5805F 		cmp	r3, #4096
 5110 0626 1FD3     		bcc	.L154
 5111              	.L164:
 585:STM32Cube_FW_N6/Drivers/STM32N6xx_HAL_Driver/Src/stm32n6xx_hal_rif.c ****     assert_param(IS_RISAF_GRANULARITY(RISAFx, (pConfig->EndAddress + 1U)));
 5112              		.loc 1 585 5 discriminator 36
 5113 0628 FB68     		ldr	r3, [r7, #12]
 5114 062a 444A     		ldr	r2, .L218+60
 5115 062c 9342     		cmp	r3, r2
 5116 062e 04D1     		bne	.L165
 585:STM32Cube_FW_N6/Drivers/STM32N6xx_HAL_Driver/Src/stm32n6xx_hal_rif.c ****     assert_param(IS_RISAF_GRANULARITY(RISAFx, (pConfig->EndAddress + 1U)));
 5117              		.loc 1 585 5 discriminator 38
 5118 0630 7B68     		ldr	r3, [r7, #4]
 5119 0632 5B69     		ldr	r3, [r3, #20]
 5120 0634 B3F5005F 		cmp	r3, #8192
 5121 0638 16D3     		bcc	.L154
 5122              	.L165:
 585:STM32Cube_FW_N6/Drivers/STM32N6xx_HAL_Driver/Src/stm32n6xx_hal_rif.c ****     assert_param(IS_RISAF_GRANULARITY(RISAFx, (pConfig->EndAddress + 1U)));
 5123              		.loc 1 585 5 discriminator 39
 5124 063a FB68     		ldr	r3, [r7, #12]
 5125 063c 404A     		ldr	r2, .L218+64
 5126 063e 9342     		cmp	r3, r2
 5127 0640 04D1     		bne	.L166
 585:STM32Cube_FW_N6/Drivers/STM32N6xx_HAL_Driver/Src/stm32n6xx_hal_rif.c ****     assert_param(IS_RISAF_GRANULARITY(RISAFx, (pConfig->EndAddress + 1U)));
 5128              		.loc 1 585 5 discriminator 41
 5129 0642 7B68     		ldr	r3, [r7, #4]
 5130 0644 5B69     		ldr	r3, [r3, #20]
 5131 0646 B3F5005F 		cmp	r3, #8192
 5132 064a 0DD3     		bcc	.L154
 5133              	.L166:
 585:STM32Cube_FW_N6/Drivers/STM32N6xx_HAL_Driver/Src/stm32n6xx_hal_rif.c ****     assert_param(IS_RISAF_GRANULARITY(RISAFx, (pConfig->EndAddress + 1U)));
 5134              		.loc 1 585 5 discriminator 42
 5135 064c FB68     		ldr	r3, [r7, #12]
 5136 064e 3D4A     		ldr	r2, .L218+68
 5137 0650 9342     		cmp	r3, r2
 5138 0652 04D1     		bne	.L167
 585:STM32Cube_FW_N6/Drivers/STM32N6xx_HAL_Driver/Src/stm32n6xx_hal_rif.c ****     assert_param(IS_RISAF_GRANULARITY(RISAFx, (pConfig->EndAddress + 1U)));
 5139              		.loc 1 585 5 discriminator 44
ARM GAS  /tmp/ccRTEIeG.s 			page 110


 5140 0654 7B68     		ldr	r3, [r7, #4]
 5141 0656 5B69     		ldr	r3, [r3, #20]
 5142 0658 B3F5805F 		cmp	r3, #4096
 5143 065c 04D3     		bcc	.L154
 5144              	.L167:
 585:STM32Cube_FW_N6/Drivers/STM32N6xx_HAL_Driver/Src/stm32n6xx_hal_rif.c ****     assert_param(IS_RISAF_GRANULARITY(RISAFx, (pConfig->EndAddress + 1U)));
 5145              		.loc 1 585 5 discriminator 45
 5146 065e 40F24921 		movw	r1, #585
 5147 0662 2A48     		ldr	r0, .L218+12
 5148 0664 FFF7FEFF 		bl	assert_failed
 5149              	.L154:
 586:STM32Cube_FW_N6/Drivers/STM32N6xx_HAL_Driver/Src/stm32n6xx_hal_rif.c ****     assert_param(IS_RISAF_LIMIT_ADDRESS_SPACE_SIZE(RISAFx, pConfig->EndAddress));
 5150              		.loc 1 586 5 is_stmt 1
 5151 0668 FB68     		ldr	r3, [r7, #12]
 5152 066a 294A     		ldr	r2, .L218+16
 5153 066c 9342     		cmp	r3, r2
 5154 066e 0AD1     		bne	.L168
 586:STM32Cube_FW_N6/Drivers/STM32N6xx_HAL_Driver/Src/stm32n6xx_hal_rif.c ****     assert_param(IS_RISAF_LIMIT_ADDRESS_SPACE_SIZE(RISAFx, pConfig->EndAddress));
 5155              		.loc 1 586 5 is_stmt 0 discriminator 1
 5156 0670 7B68     		ldr	r3, [r7, #4]
 5157 0672 9B69     		ldr	r3, [r3, #24]
 5158 0674 0133     		adds	r3, r3, #1
 5159 0676 C3F30B03 		ubfx	r3, r3, #0, #12
 5160 067a 002B     		cmp	r3, #0
 5161 067c 0CBF     		ite	eq
 5162 067e 0123     		moveq	r3, #1
 5163 0680 0023     		movne	r3, #0
 5164 0682 DBB2     		uxtb	r3, r3
 5165 0684 04E1     		b	.L169
 5166              	.L168:
 586:STM32Cube_FW_N6/Drivers/STM32N6xx_HAL_Driver/Src/stm32n6xx_hal_rif.c ****     assert_param(IS_RISAF_LIMIT_ADDRESS_SPACE_SIZE(RISAFx, pConfig->EndAddress));
 5167              		.loc 1 586 5 discriminator 2
 5168 0686 FB68     		ldr	r3, [r7, #12]
 5169 0688 224A     		ldr	r2, .L218+20
 5170 068a 9342     		cmp	r3, r2
 5171 068c 0AD1     		bne	.L170
 586:STM32Cube_FW_N6/Drivers/STM32N6xx_HAL_Driver/Src/stm32n6xx_hal_rif.c ****     assert_param(IS_RISAF_LIMIT_ADDRESS_SPACE_SIZE(RISAFx, pConfig->EndAddress));
 5172              		.loc 1 586 5 discriminator 4
 5173 068e 7B68     		ldr	r3, [r7, #4]
 5174 0690 9B69     		ldr	r3, [r3, #24]
 5175 0692 0133     		adds	r3, r3, #1
 5176 0694 C3F30B03 		ubfx	r3, r3, #0, #12
 5177 0698 002B     		cmp	r3, #0
 5178 069a 0CBF     		ite	eq
 5179 069c 0123     		moveq	r3, #1
 5180 069e 0023     		movne	r3, #0
 5181 06a0 DBB2     		uxtb	r3, r3
 5182 06a2 F5E0     		b	.L169
 5183              	.L170:
 586:STM32Cube_FW_N6/Drivers/STM32N6xx_HAL_Driver/Src/stm32n6xx_hal_rif.c ****     assert_param(IS_RISAF_LIMIT_ADDRESS_SPACE_SIZE(RISAFx, pConfig->EndAddress));
 5184              		.loc 1 586 5 discriminator 5
 5185 06a4 FB68     		ldr	r3, [r7, #12]
 5186 06a6 1C4A     		ldr	r2, .L218+24
 5187 06a8 9342     		cmp	r3, r2
 5188 06aa 0AD1     		bne	.L172
 586:STM32Cube_FW_N6/Drivers/STM32N6xx_HAL_Driver/Src/stm32n6xx_hal_rif.c ****     assert_param(IS_RISAF_LIMIT_ADDRESS_SPACE_SIZE(RISAFx, pConfig->EndAddress));
 5189              		.loc 1 586 5 discriminator 7
ARM GAS  /tmp/ccRTEIeG.s 			page 111


 5190 06ac 7B68     		ldr	r3, [r7, #4]
 5191 06ae 9B69     		ldr	r3, [r3, #24]
 5192 06b0 0133     		adds	r3, r3, #1
 5193 06b2 C3F30B03 		ubfx	r3, r3, #0, #12
 5194 06b6 002B     		cmp	r3, #0
 5195 06b8 0CBF     		ite	eq
 5196 06ba 0123     		moveq	r3, #1
 5197 06bc 0023     		movne	r3, #0
 5198 06be DBB2     		uxtb	r3, r3
 5199 06c0 E6E0     		b	.L169
 5200              	.L172:
 586:STM32Cube_FW_N6/Drivers/STM32N6xx_HAL_Driver/Src/stm32n6xx_hal_rif.c ****     assert_param(IS_RISAF_LIMIT_ADDRESS_SPACE_SIZE(RISAFx, pConfig->EndAddress));
 5201              		.loc 1 586 5 discriminator 8
 5202 06c2 FB68     		ldr	r3, [r7, #12]
 5203 06c4 154A     		ldr	r2, .L218+28
 5204 06c6 9342     		cmp	r3, r2
 5205 06c8 0AD1     		bne	.L174
 586:STM32Cube_FW_N6/Drivers/STM32N6xx_HAL_Driver/Src/stm32n6xx_hal_rif.c ****     assert_param(IS_RISAF_LIMIT_ADDRESS_SPACE_SIZE(RISAFx, pConfig->EndAddress));
 5206              		.loc 1 586 5 discriminator 10
 5207 06ca 7B68     		ldr	r3, [r7, #4]
 5208 06cc 9B69     		ldr	r3, [r3, #24]
 5209 06ce 0133     		adds	r3, r3, #1
 5210 06d0 C3F30B03 		ubfx	r3, r3, #0, #12
 5211 06d4 002B     		cmp	r3, #0
 5212 06d6 0CBF     		ite	eq
 5213 06d8 0123     		moveq	r3, #1
 5214 06da 0023     		movne	r3, #0
 5215 06dc DBB2     		uxtb	r3, r3
 5216 06de D7E0     		b	.L169
 5217              	.L174:
 586:STM32Cube_FW_N6/Drivers/STM32N6xx_HAL_Driver/Src/stm32n6xx_hal_rif.c ****     assert_param(IS_RISAF_LIMIT_ADDRESS_SPACE_SIZE(RISAFx, pConfig->EndAddress));
 5218              		.loc 1 586 5 discriminator 11
 5219 06e0 FB68     		ldr	r3, [r7, #12]
 5220 06e2 0F4A     		ldr	r2, .L218+32
 5221 06e4 9342     		cmp	r3, r2
 5222 06e6 2FD1     		bne	.L176
 586:STM32Cube_FW_N6/Drivers/STM32N6xx_HAL_Driver/Src/stm32n6xx_hal_rif.c ****     assert_param(IS_RISAF_LIMIT_ADDRESS_SPACE_SIZE(RISAFx, pConfig->EndAddress));
 5223              		.loc 1 586 5 discriminator 13
 5224 06e8 7B68     		ldr	r3, [r7, #4]
 5225 06ea 9B69     		ldr	r3, [r3, #24]
 5226 06ec 0133     		adds	r3, r3, #1
 5227 06ee C3F30B03 		ubfx	r3, r3, #0, #12
 5228 06f2 002B     		cmp	r3, #0
 5229 06f4 0CBF     		ite	eq
 5230 06f6 0123     		moveq	r3, #1
 5231 06f8 0023     		movne	r3, #0
 5232 06fa DBB2     		uxtb	r3, r3
 5233 06fc C8E0     		b	.L169
 5234              	.L219:
 5235 06fe 00BF     		.align	2
 5236              	.L218:
 5237 0700 00200354 		.word	1409490944
 5238 0704 00300354 		.word	1409495040
 5239 0708 00400354 		.word	1409499136
 5240 070c 00000000 		.word	.LC0
 5241 0710 00600254 		.word	1409441792
 5242 0714 00700254 		.word	1409445888
ARM GAS  /tmp/ccRTEIeG.s 			page 112


 5243 0718 00800254 		.word	1409449984
 5244 071c 00900254 		.word	1409454080
 5245 0720 00A00254 		.word	1409458176
 5246 0724 00B00254 		.word	1409462272
 5247 0728 00C00254 		.word	1409466368
 5248 072c 00D00254 		.word	1409470464
 5249 0730 00E00254 		.word	1409474560
 5250 0734 00000354 		.word	1409482752
 5251 0738 00100354 		.word	1409486848
 5252 073c 00500354 		.word	1409503232
 5253 0740 00600354 		.word	1409507328
 5254 0744 00700354 		.word	1409511424
 5255              	.L176:
 586:STM32Cube_FW_N6/Drivers/STM32N6xx_HAL_Driver/Src/stm32n6xx_hal_rif.c ****     assert_param(IS_RISAF_LIMIT_ADDRESS_SPACE_SIZE(RISAFx, pConfig->EndAddress));
 5256              		.loc 1 586 5 discriminator 14
 5257 0748 FB68     		ldr	r3, [r7, #12]
 5258 074a 434A     		ldr	r2, .L220
 5259 074c 9342     		cmp	r3, r2
 5260 074e 0AD1     		bne	.L178
 586:STM32Cube_FW_N6/Drivers/STM32N6xx_HAL_Driver/Src/stm32n6xx_hal_rif.c ****     assert_param(IS_RISAF_LIMIT_ADDRESS_SPACE_SIZE(RISAFx, pConfig->EndAddress));
 5261              		.loc 1 586 5 discriminator 16
 5262 0750 7B68     		ldr	r3, [r7, #4]
 5263 0752 9B69     		ldr	r3, [r3, #24]
 5264 0754 0133     		adds	r3, r3, #1
 5265 0756 C3F30B03 		ubfx	r3, r3, #0, #12
 5266 075a 002B     		cmp	r3, #0
 5267 075c 0CBF     		ite	eq
 5268 075e 0123     		moveq	r3, #1
 5269 0760 0023     		movne	r3, #0
 5270 0762 DBB2     		uxtb	r3, r3
 5271 0764 94E0     		b	.L169
 5272              	.L178:
 586:STM32Cube_FW_N6/Drivers/STM32N6xx_HAL_Driver/Src/stm32n6xx_hal_rif.c ****     assert_param(IS_RISAF_LIMIT_ADDRESS_SPACE_SIZE(RISAFx, pConfig->EndAddress));
 5273              		.loc 1 586 5 discriminator 17
 5274 0766 FB68     		ldr	r3, [r7, #12]
 5275 0768 3C4A     		ldr	r2, .L220+4
 5276 076a 9342     		cmp	r3, r2
 5277 076c 0AD1     		bne	.L180
 586:STM32Cube_FW_N6/Drivers/STM32N6xx_HAL_Driver/Src/stm32n6xx_hal_rif.c ****     assert_param(IS_RISAF_LIMIT_ADDRESS_SPACE_SIZE(RISAFx, pConfig->EndAddress));
 5278              		.loc 1 586 5 discriminator 19
 5279 076e 7B68     		ldr	r3, [r7, #4]
 5280 0770 9B69     		ldr	r3, [r3, #24]
 5281 0772 0133     		adds	r3, r3, #1
 5282 0774 C3F30B03 		ubfx	r3, r3, #0, #12
 5283 0778 002B     		cmp	r3, #0
 5284 077a 0CBF     		ite	eq
 5285 077c 0123     		moveq	r3, #1
 5286 077e 0023     		movne	r3, #0
 5287 0780 DBB2     		uxtb	r3, r3
 5288 0782 85E0     		b	.L169
 5289              	.L180:
 586:STM32Cube_FW_N6/Drivers/STM32N6xx_HAL_Driver/Src/stm32n6xx_hal_rif.c ****     assert_param(IS_RISAF_LIMIT_ADDRESS_SPACE_SIZE(RISAFx, pConfig->EndAddress));
 5290              		.loc 1 586 5 discriminator 20
 5291 0784 FB68     		ldr	r3, [r7, #12]
 5292 0786 364A     		ldr	r2, .L220+8
 5293 0788 9342     		cmp	r3, r2
 5294 078a 0AD1     		bne	.L182
ARM GAS  /tmp/ccRTEIeG.s 			page 113


 586:STM32Cube_FW_N6/Drivers/STM32N6xx_HAL_Driver/Src/stm32n6xx_hal_rif.c ****     assert_param(IS_RISAF_LIMIT_ADDRESS_SPACE_SIZE(RISAFx, pConfig->EndAddress));
 5295              		.loc 1 586 5 discriminator 22
 5296 078c 7B68     		ldr	r3, [r7, #4]
 5297 078e 9B69     		ldr	r3, [r3, #24]
 5298 0790 0133     		adds	r3, r3, #1
 5299 0792 C3F30B03 		ubfx	r3, r3, #0, #12
 5300 0796 002B     		cmp	r3, #0
 5301 0798 0CBF     		ite	eq
 5302 079a 0123     		moveq	r3, #1
 5303 079c 0023     		movne	r3, #0
 5304 079e DBB2     		uxtb	r3, r3
 5305 07a0 76E0     		b	.L169
 5306              	.L182:
 586:STM32Cube_FW_N6/Drivers/STM32N6xx_HAL_Driver/Src/stm32n6xx_hal_rif.c ****     assert_param(IS_RISAF_LIMIT_ADDRESS_SPACE_SIZE(RISAFx, pConfig->EndAddress));
 5307              		.loc 1 586 5 discriminator 23
 5308 07a2 FB68     		ldr	r3, [r7, #12]
 5309 07a4 2F4A     		ldr	r2, .L220+12
 5310 07a6 9342     		cmp	r3, r2
 5311 07a8 0AD1     		bne	.L184
 586:STM32Cube_FW_N6/Drivers/STM32N6xx_HAL_Driver/Src/stm32n6xx_hal_rif.c ****     assert_param(IS_RISAF_LIMIT_ADDRESS_SPACE_SIZE(RISAFx, pConfig->EndAddress));
 5312              		.loc 1 586 5 discriminator 25
 5313 07aa 7B68     		ldr	r3, [r7, #4]
 5314 07ac 9B69     		ldr	r3, [r3, #24]
 5315 07ae 0133     		adds	r3, r3, #1
 5316 07b0 C3F30B03 		ubfx	r3, r3, #0, #12
 5317 07b4 002B     		cmp	r3, #0
 5318 07b6 0CBF     		ite	eq
 5319 07b8 0123     		moveq	r3, #1
 5320 07ba 0023     		movne	r3, #0
 5321 07bc DBB2     		uxtb	r3, r3
 5322 07be 67E0     		b	.L169
 5323              	.L184:
 586:STM32Cube_FW_N6/Drivers/STM32N6xx_HAL_Driver/Src/stm32n6xx_hal_rif.c ****     assert_param(IS_RISAF_LIMIT_ADDRESS_SPACE_SIZE(RISAFx, pConfig->EndAddress));
 5324              		.loc 1 586 5 discriminator 26
 5325 07c0 FB68     		ldr	r3, [r7, #12]
 5326 07c2 294A     		ldr	r2, .L220+16
 5327 07c4 9342     		cmp	r3, r2
 5328 07c6 0AD1     		bne	.L186
 586:STM32Cube_FW_N6/Drivers/STM32N6xx_HAL_Driver/Src/stm32n6xx_hal_rif.c ****     assert_param(IS_RISAF_LIMIT_ADDRESS_SPACE_SIZE(RISAFx, pConfig->EndAddress));
 5329              		.loc 1 586 5 discriminator 28
 5330 07c8 7B68     		ldr	r3, [r7, #4]
 5331 07ca 9B69     		ldr	r3, [r3, #24]
 5332 07cc 0133     		adds	r3, r3, #1
 5333 07ce C3F30B03 		ubfx	r3, r3, #0, #12
 5334 07d2 002B     		cmp	r3, #0
 5335 07d4 0CBF     		ite	eq
 5336 07d6 0123     		moveq	r3, #1
 5337 07d8 0023     		movne	r3, #0
 5338 07da DBB2     		uxtb	r3, r3
 5339 07dc 58E0     		b	.L169
 5340              	.L186:
 586:STM32Cube_FW_N6/Drivers/STM32N6xx_HAL_Driver/Src/stm32n6xx_hal_rif.c ****     assert_param(IS_RISAF_LIMIT_ADDRESS_SPACE_SIZE(RISAFx, pConfig->EndAddress));
 5341              		.loc 1 586 5 discriminator 29
 5342 07de FB68     		ldr	r3, [r7, #12]
 5343 07e0 224A     		ldr	r2, .L220+20
 5344 07e2 9342     		cmp	r3, r2
 5345 07e4 0AD1     		bne	.L188
ARM GAS  /tmp/ccRTEIeG.s 			page 114


 586:STM32Cube_FW_N6/Drivers/STM32N6xx_HAL_Driver/Src/stm32n6xx_hal_rif.c ****     assert_param(IS_RISAF_LIMIT_ADDRESS_SPACE_SIZE(RISAFx, pConfig->EndAddress));
 5346              		.loc 1 586 5 discriminator 31
 5347 07e6 7B68     		ldr	r3, [r7, #4]
 5348 07e8 9B69     		ldr	r3, [r3, #24]
 5349 07ea 0133     		adds	r3, r3, #1
 5350 07ec C3F30B03 		ubfx	r3, r3, #0, #12
 5351 07f0 002B     		cmp	r3, #0
 5352 07f2 0CBF     		ite	eq
 5353 07f4 0123     		moveq	r3, #1
 5354 07f6 0023     		movne	r3, #0
 5355 07f8 DBB2     		uxtb	r3, r3
 5356 07fa 49E0     		b	.L169
 5357              	.L188:
 586:STM32Cube_FW_N6/Drivers/STM32N6xx_HAL_Driver/Src/stm32n6xx_hal_rif.c ****     assert_param(IS_RISAF_LIMIT_ADDRESS_SPACE_SIZE(RISAFx, pConfig->EndAddress));
 5358              		.loc 1 586 5 discriminator 32
 5359 07fc FB68     		ldr	r3, [r7, #12]
 5360 07fe 1C4A     		ldr	r2, .L220+24
 5361 0800 9342     		cmp	r3, r2
 5362 0802 0AD1     		bne	.L190
 586:STM32Cube_FW_N6/Drivers/STM32N6xx_HAL_Driver/Src/stm32n6xx_hal_rif.c ****     assert_param(IS_RISAF_LIMIT_ADDRESS_SPACE_SIZE(RISAFx, pConfig->EndAddress));
 5363              		.loc 1 586 5 discriminator 34
 5364 0804 7B68     		ldr	r3, [r7, #4]
 5365 0806 9B69     		ldr	r3, [r3, #24]
 5366 0808 0133     		adds	r3, r3, #1
 5367 080a C3F30B03 		ubfx	r3, r3, #0, #12
 5368 080e 002B     		cmp	r3, #0
 5369 0810 0CBF     		ite	eq
 5370 0812 0123     		moveq	r3, #1
 5371 0814 0023     		movne	r3, #0
 5372 0816 DBB2     		uxtb	r3, r3
 5373 0818 3AE0     		b	.L169
 5374              	.L190:
 586:STM32Cube_FW_N6/Drivers/STM32N6xx_HAL_Driver/Src/stm32n6xx_hal_rif.c ****     assert_param(IS_RISAF_LIMIT_ADDRESS_SPACE_SIZE(RISAFx, pConfig->EndAddress));
 5375              		.loc 1 586 5 discriminator 35
 5376 081a FB68     		ldr	r3, [r7, #12]
 5377 081c 154A     		ldr	r2, .L220+28
 5378 081e 9342     		cmp	r3, r2
 5379 0820 0AD1     		bne	.L192
 586:STM32Cube_FW_N6/Drivers/STM32N6xx_HAL_Driver/Src/stm32n6xx_hal_rif.c ****     assert_param(IS_RISAF_LIMIT_ADDRESS_SPACE_SIZE(RISAFx, pConfig->EndAddress));
 5380              		.loc 1 586 5 discriminator 37
 5381 0822 7B68     		ldr	r3, [r7, #4]
 5382 0824 9B69     		ldr	r3, [r3, #24]
 5383 0826 0133     		adds	r3, r3, #1
 5384 0828 C3F30B03 		ubfx	r3, r3, #0, #12
 5385 082c 002B     		cmp	r3, #0
 5386 082e 0CBF     		ite	eq
 5387 0830 0123     		moveq	r3, #1
 5388 0832 0023     		movne	r3, #0
 5389 0834 DBB2     		uxtb	r3, r3
 5390 0836 2BE0     		b	.L169
 5391              	.L192:
 586:STM32Cube_FW_N6/Drivers/STM32N6xx_HAL_Driver/Src/stm32n6xx_hal_rif.c ****     assert_param(IS_RISAF_LIMIT_ADDRESS_SPACE_SIZE(RISAFx, pConfig->EndAddress));
 5392              		.loc 1 586 5 discriminator 38
 5393 0838 FB68     		ldr	r3, [r7, #12]
 5394 083a 0F4A     		ldr	r2, .L220+32
 5395 083c 9342     		cmp	r3, r2
 5396 083e 1DD1     		bne	.L194
ARM GAS  /tmp/ccRTEIeG.s 			page 115


 586:STM32Cube_FW_N6/Drivers/STM32N6xx_HAL_Driver/Src/stm32n6xx_hal_rif.c ****     assert_param(IS_RISAF_LIMIT_ADDRESS_SPACE_SIZE(RISAFx, pConfig->EndAddress));
 5397              		.loc 1 586 5 discriminator 40
 5398 0840 7B68     		ldr	r3, [r7, #4]
 5399 0842 9B69     		ldr	r3, [r3, #24]
 5400 0844 0133     		adds	r3, r3, #1
 5401 0846 03F00303 		and	r3, r3, #3
 5402 084a 002B     		cmp	r3, #0
 5403 084c 0CBF     		ite	eq
 5404 084e 0123     		moveq	r3, #1
 5405 0850 0023     		movne	r3, #0
 5406 0852 DBB2     		uxtb	r3, r3
 5407 0854 1CE0     		b	.L169
 5408              	.L221:
 5409 0856 00BF     		.align	2
 5410              	.L220:
 5411 0858 00B00254 		.word	1409462272
 5412 085c 00C00254 		.word	1409466368
 5413 0860 00D00254 		.word	1409470464
 5414 0864 00E00254 		.word	1409474560
 5415 0868 00000354 		.word	1409482752
 5416 086c 00100354 		.word	1409486848
 5417 0870 00200354 		.word	1409490944
 5418 0874 00300354 		.word	1409495040
 5419 0878 00400354 		.word	1409499136
 5420              	.L194:
 586:STM32Cube_FW_N6/Drivers/STM32N6xx_HAL_Driver/Src/stm32n6xx_hal_rif.c ****     assert_param(IS_RISAF_LIMIT_ADDRESS_SPACE_SIZE(RISAFx, pConfig->EndAddress));
 5421              		.loc 1 586 5 discriminator 41
 5422 087c 7B68     		ldr	r3, [r7, #4]
 5423 087e 9B69     		ldr	r3, [r3, #24]
 5424 0880 0133     		adds	r3, r3, #1
 5425 0882 C3F30803 		ubfx	r3, r3, #0, #9
 5426 0886 002B     		cmp	r3, #0
 5427 0888 0CBF     		ite	eq
 5428 088a 0123     		moveq	r3, #1
 5429 088c 0023     		movne	r3, #0
 5430 088e DBB2     		uxtb	r3, r3
 5431              	.L169:
 586:STM32Cube_FW_N6/Drivers/STM32N6xx_HAL_Driver/Src/stm32n6xx_hal_rif.c ****     assert_param(IS_RISAF_LIMIT_ADDRESS_SPACE_SIZE(RISAFx, pConfig->EndAddress));
 5432              		.loc 1 586 5 discriminator 56
 5433 0890 002B     		cmp	r3, #0
 5434 0892 04D1     		bne	.L196
 586:STM32Cube_FW_N6/Drivers/STM32N6xx_HAL_Driver/Src/stm32n6xx_hal_rif.c ****     assert_param(IS_RISAF_LIMIT_ADDRESS_SPACE_SIZE(RISAFx, pConfig->EndAddress));
 5435              		.loc 1 586 5 discriminator 57
 5436 0894 40F24A21 		movw	r1, #586
 5437 0898 6748     		ldr	r0, .L222
 5438 089a FFF7FEFF 		bl	assert_failed
 5439              	.L196:
 587:STM32Cube_FW_N6/Drivers/STM32N6xx_HAL_Driver/Src/stm32n6xx_hal_rif.c ****     assert_param(pConfig->StartAddress < pConfig->EndAddress);
 5440              		.loc 1 587 5 is_stmt 1
 5441 089e FB68     		ldr	r3, [r7, #12]
 5442 08a0 664A     		ldr	r2, .L222+4
 5443 08a2 9342     		cmp	r3, r2
 5444 08a4 05D1     		bne	.L197
 587:STM32Cube_FW_N6/Drivers/STM32N6xx_HAL_Driver/Src/stm32n6xx_hal_rif.c ****     assert_param(pConfig->StartAddress < pConfig->EndAddress);
 5445              		.loc 1 587 5 is_stmt 0 discriminator 2
 5446 08a6 7B68     		ldr	r3, [r7, #4]
 5447 08a8 9B69     		ldr	r3, [r3, #24]
ARM GAS  /tmp/ccRTEIeG.s 			page 116


 5448 08aa B3F1804F 		cmp	r3, #1073741824
 5449 08ae C0F08680 		bcc	.L198
 5450              	.L197:
 587:STM32Cube_FW_N6/Drivers/STM32N6xx_HAL_Driver/Src/stm32n6xx_hal_rif.c ****     assert_param(pConfig->StartAddress < pConfig->EndAddress);
 5451              		.loc 1 587 5 discriminator 3
 5452 08b2 FB68     		ldr	r3, [r7, #12]
 5453 08b4 624A     		ldr	r2, .L222+8
 5454 08b6 9342     		cmp	r3, r2
 5455 08b8 04D1     		bne	.L199
 587:STM32Cube_FW_N6/Drivers/STM32N6xx_HAL_Driver/Src/stm32n6xx_hal_rif.c ****     assert_param(pConfig->StartAddress < pConfig->EndAddress);
 5456              		.loc 1 587 5 discriminator 5
 5457 08ba 7B68     		ldr	r3, [r7, #4]
 5458 08bc 9B69     		ldr	r3, [r3, #24]
 5459 08be B3F5801F 		cmp	r3, #1048576
 5460 08c2 7CD3     		bcc	.L198
 5461              	.L199:
 587:STM32Cube_FW_N6/Drivers/STM32N6xx_HAL_Driver/Src/stm32n6xx_hal_rif.c ****     assert_param(pConfig->StartAddress < pConfig->EndAddress);
 5462              		.loc 1 587 5 discriminator 6
 5463 08c4 FB68     		ldr	r3, [r7, #12]
 5464 08c6 5F4A     		ldr	r2, .L222+12
 5465 08c8 9342     		cmp	r3, r2
 5466 08ca 04D1     		bne	.L200
 587:STM32Cube_FW_N6/Drivers/STM32N6xx_HAL_Driver/Src/stm32n6xx_hal_rif.c ****     assert_param(pConfig->StartAddress < pConfig->EndAddress);
 5467              		.loc 1 587 5 discriminator 8
 5468 08cc 7B68     		ldr	r3, [r7, #4]
 5469 08ce 9B69     		ldr	r3, [r3, #24]
 5470 08d0 B3F5801F 		cmp	r3, #1048576
 5471 08d4 73D3     		bcc	.L198
 5472              	.L200:
 587:STM32Cube_FW_N6/Drivers/STM32N6xx_HAL_Driver/Src/stm32n6xx_hal_rif.c ****     assert_param(pConfig->StartAddress < pConfig->EndAddress);
 5473              		.loc 1 587 5 discriminator 9
 5474 08d6 FB68     		ldr	r3, [r7, #12]
 5475 08d8 5B4A     		ldr	r2, .L222+16
 5476 08da 9342     		cmp	r3, r2
 5477 08dc 6FD0     		beq	.L198
 587:STM32Cube_FW_N6/Drivers/STM32N6xx_HAL_Driver/Src/stm32n6xx_hal_rif.c ****     assert_param(pConfig->StartAddress < pConfig->EndAddress);
 5478              		.loc 1 587 5 discriminator 10
 5479 08de FB68     		ldr	r3, [r7, #12]
 5480 08e0 5A4A     		ldr	r2, .L222+20
 5481 08e2 9342     		cmp	r3, r2
 5482 08e4 6BD0     		beq	.L198
 587:STM32Cube_FW_N6/Drivers/STM32N6xx_HAL_Driver/Src/stm32n6xx_hal_rif.c ****     assert_param(pConfig->StartAddress < pConfig->EndAddress);
 5483              		.loc 1 587 5 discriminator 11
 5484 08e6 FB68     		ldr	r3, [r7, #12]
 5485 08e8 594A     		ldr	r2, .L222+24
 5486 08ea 9342     		cmp	r3, r2
 5487 08ec 67D0     		beq	.L198
 587:STM32Cube_FW_N6/Drivers/STM32N6xx_HAL_Driver/Src/stm32n6xx_hal_rif.c ****     assert_param(pConfig->StartAddress < pConfig->EndAddress);
 5488              		.loc 1 587 5 discriminator 12
 5489 08ee FB68     		ldr	r3, [r7, #12]
 5490 08f0 584A     		ldr	r2, .L222+28
 5491 08f2 9342     		cmp	r3, r2
 5492 08f4 04D1     		bne	.L201
 587:STM32Cube_FW_N6/Drivers/STM32N6xx_HAL_Driver/Src/stm32n6xx_hal_rif.c ****     assert_param(pConfig->StartAddress < pConfig->EndAddress);
 5493              		.loc 1 587 5 discriminator 14
 5494 08f6 7B68     		ldr	r3, [r7, #4]
 5495 08f8 9B69     		ldr	r3, [r3, #24]
ARM GAS  /tmp/ccRTEIeG.s 			page 117


 5496 08fa B3F5002F 		cmp	r3, #524288
 5497 08fe 5ED3     		bcc	.L198
 5498              	.L201:
 587:STM32Cube_FW_N6/Drivers/STM32N6xx_HAL_Driver/Src/stm32n6xx_hal_rif.c ****     assert_param(pConfig->StartAddress < pConfig->EndAddress);
 5499              		.loc 1 587 5 discriminator 15
 5500 0900 FB68     		ldr	r3, [r7, #12]
 5501 0902 554A     		ldr	r2, .L222+32
 5502 0904 9342     		cmp	r3, r2
 5503 0906 04D1     		bne	.L202
 587:STM32Cube_FW_N6/Drivers/STM32N6xx_HAL_Driver/Src/stm32n6xx_hal_rif.c ****     assert_param(pConfig->StartAddress < pConfig->EndAddress);
 5504              		.loc 1 587 5 discriminator 17
 5505 0908 7B68     		ldr	r3, [r7, #4]
 5506 090a 9B69     		ldr	r3, [r3, #24]
 5507 090c B3F5802F 		cmp	r3, #262144
 5508 0910 55D3     		bcc	.L198
 5509              	.L202:
 587:STM32Cube_FW_N6/Drivers/STM32N6xx_HAL_Driver/Src/stm32n6xx_hal_rif.c ****     assert_param(pConfig->StartAddress < pConfig->EndAddress);
 5510              		.loc 1 587 5 discriminator 18
 5511 0912 FB68     		ldr	r3, [r7, #12]
 5512 0914 514A     		ldr	r2, .L222+36
 5513 0916 9342     		cmp	r3, r2
 5514 0918 04D1     		bne	.L203
 587:STM32Cube_FW_N6/Drivers/STM32N6xx_HAL_Driver/Src/stm32n6xx_hal_rif.c ****     assert_param(pConfig->StartAddress < pConfig->EndAddress);
 5515              		.loc 1 587 5 discriminator 20
 5516 091a 7B68     		ldr	r3, [r7, #4]
 5517 091c 9B69     		ldr	r3, [r3, #24]
 5518 091e B3F5003F 		cmp	r3, #131072
 5519 0922 4CD3     		bcc	.L198
 5520              	.L203:
 587:STM32Cube_FW_N6/Drivers/STM32N6xx_HAL_Driver/Src/stm32n6xx_hal_rif.c ****     assert_param(pConfig->StartAddress < pConfig->EndAddress);
 5521              		.loc 1 587 5 discriminator 21
 5522 0924 FB68     		ldr	r3, [r7, #12]
 5523 0926 4E4A     		ldr	r2, .L222+40
 5524 0928 9342     		cmp	r3, r2
 5525 092a 04D1     		bne	.L204
 587:STM32Cube_FW_N6/Drivers/STM32N6xx_HAL_Driver/Src/stm32n6xx_hal_rif.c ****     assert_param(pConfig->StartAddress < pConfig->EndAddress);
 5526              		.loc 1 587 5 discriminator 23
 5527 092c 7B68     		ldr	r3, [r7, #4]
 5528 092e 9B69     		ldr	r3, [r3, #24]
 5529 0930 B3F1805F 		cmp	r3, #268435456
 5530 0934 43D3     		bcc	.L198
 5531              	.L204:
 587:STM32Cube_FW_N6/Drivers/STM32N6xx_HAL_Driver/Src/stm32n6xx_hal_rif.c ****     assert_param(pConfig->StartAddress < pConfig->EndAddress);
 5532              		.loc 1 587 5 discriminator 24
 5533 0936 FB68     		ldr	r3, [r7, #12]
 5534 0938 4A4A     		ldr	r2, .L222+44
 5535 093a 9342     		cmp	r3, r2
 5536 093c 04D1     		bne	.L205
 587:STM32Cube_FW_N6/Drivers/STM32N6xx_HAL_Driver/Src/stm32n6xx_hal_rif.c ****     assert_param(pConfig->StartAddress < pConfig->EndAddress);
 5537              		.loc 1 587 5 discriminator 26
 5538 093e 7B68     		ldr	r3, [r7, #4]
 5539 0940 9B69     		ldr	r3, [r3, #24]
 5540 0942 B3F1805F 		cmp	r3, #268435456
 5541 0946 3AD3     		bcc	.L198
 5542              	.L205:
 587:STM32Cube_FW_N6/Drivers/STM32N6xx_HAL_Driver/Src/stm32n6xx_hal_rif.c ****     assert_param(pConfig->StartAddress < pConfig->EndAddress);
 5543              		.loc 1 587 5 discriminator 27
ARM GAS  /tmp/ccRTEIeG.s 			page 118


 5544 0948 FB68     		ldr	r3, [r7, #12]
 5545 094a 474A     		ldr	r2, .L222+48
 5546 094c 9342     		cmp	r3, r2
 5547 094e 04D1     		bne	.L206
 587:STM32Cube_FW_N6/Drivers/STM32N6xx_HAL_Driver/Src/stm32n6xx_hal_rif.c ****     assert_param(pConfig->StartAddress < pConfig->EndAddress);
 5548              		.loc 1 587 5 discriminator 29
 5549 0950 7B68     		ldr	r3, [r7, #4]
 5550 0952 9B69     		ldr	r3, [r3, #24]
 5551 0954 B3F1805F 		cmp	r3, #268435456
 5552 0958 31D3     		bcc	.L198
 5553              	.L206:
 587:STM32Cube_FW_N6/Drivers/STM32N6xx_HAL_Driver/Src/stm32n6xx_hal_rif.c ****     assert_param(pConfig->StartAddress < pConfig->EndAddress);
 5554              		.loc 1 587 5 discriminator 30
 5555 095a FB68     		ldr	r3, [r7, #12]
 5556 095c 434A     		ldr	r2, .L222+52
 5557 095e 9342     		cmp	r3, r2
 5558 0960 04D1     		bne	.L207
 587:STM32Cube_FW_N6/Drivers/STM32N6xx_HAL_Driver/Src/stm32n6xx_hal_rif.c ****     assert_param(pConfig->StartAddress < pConfig->EndAddress);
 5559              		.loc 1 587 5 discriminator 32
 5560 0962 7B68     		ldr	r3, [r7, #4]
 5561 0964 9B69     		ldr	r3, [r3, #24]
 5562 0966 B3F1805F 		cmp	r3, #268435456
 5563 096a 28D3     		bcc	.L198
 5564              	.L207:
 587:STM32Cube_FW_N6/Drivers/STM32N6xx_HAL_Driver/Src/stm32n6xx_hal_rif.c ****     assert_param(pConfig->StartAddress < pConfig->EndAddress);
 5565              		.loc 1 587 5 discriminator 33
 5566 096c FB68     		ldr	r3, [r7, #12]
 5567 096e 404A     		ldr	r2, .L222+56
 5568 0970 9342     		cmp	r3, r2
 5569 0972 04D1     		bne	.L208
 587:STM32Cube_FW_N6/Drivers/STM32N6xx_HAL_Driver/Src/stm32n6xx_hal_rif.c ****     assert_param(pConfig->StartAddress < pConfig->EndAddress);
 5570              		.loc 1 587 5 discriminator 35
 5571 0974 7B68     		ldr	r3, [r7, #4]
 5572 0976 9B69     		ldr	r3, [r3, #24]
 5573 0978 B3F5805F 		cmp	r3, #4096
 5574 097c 1FD3     		bcc	.L198
 5575              	.L208:
 587:STM32Cube_FW_N6/Drivers/STM32N6xx_HAL_Driver/Src/stm32n6xx_hal_rif.c ****     assert_param(pConfig->StartAddress < pConfig->EndAddress);
 5576              		.loc 1 587 5 discriminator 36
 5577 097e FB68     		ldr	r3, [r7, #12]
 5578 0980 3C4A     		ldr	r2, .L222+60
 5579 0982 9342     		cmp	r3, r2
 5580 0984 04D1     		bne	.L209
 587:STM32Cube_FW_N6/Drivers/STM32N6xx_HAL_Driver/Src/stm32n6xx_hal_rif.c ****     assert_param(pConfig->StartAddress < pConfig->EndAddress);
 5581              		.loc 1 587 5 discriminator 38
 5582 0986 7B68     		ldr	r3, [r7, #4]
 5583 0988 9B69     		ldr	r3, [r3, #24]
 5584 098a B3F5005F 		cmp	r3, #8192
 5585 098e 16D3     		bcc	.L198
 5586              	.L209:
 587:STM32Cube_FW_N6/Drivers/STM32N6xx_HAL_Driver/Src/stm32n6xx_hal_rif.c ****     assert_param(pConfig->StartAddress < pConfig->EndAddress);
 5587              		.loc 1 587 5 discriminator 39
 5588 0990 FB68     		ldr	r3, [r7, #12]
 5589 0992 394A     		ldr	r2, .L222+64
 5590 0994 9342     		cmp	r3, r2
 5591 0996 04D1     		bne	.L210
 587:STM32Cube_FW_N6/Drivers/STM32N6xx_HAL_Driver/Src/stm32n6xx_hal_rif.c ****     assert_param(pConfig->StartAddress < pConfig->EndAddress);
ARM GAS  /tmp/ccRTEIeG.s 			page 119


 5592              		.loc 1 587 5 discriminator 41
 5593 0998 7B68     		ldr	r3, [r7, #4]
 5594 099a 9B69     		ldr	r3, [r3, #24]
 5595 099c B3F5005F 		cmp	r3, #8192
 5596 09a0 0DD3     		bcc	.L198
 5597              	.L210:
 587:STM32Cube_FW_N6/Drivers/STM32N6xx_HAL_Driver/Src/stm32n6xx_hal_rif.c ****     assert_param(pConfig->StartAddress < pConfig->EndAddress);
 5598              		.loc 1 587 5 discriminator 42
 5599 09a2 FB68     		ldr	r3, [r7, #12]
 5600 09a4 354A     		ldr	r2, .L222+68
 5601 09a6 9342     		cmp	r3, r2
 5602 09a8 04D1     		bne	.L211
 587:STM32Cube_FW_N6/Drivers/STM32N6xx_HAL_Driver/Src/stm32n6xx_hal_rif.c ****     assert_param(pConfig->StartAddress < pConfig->EndAddress);
 5603              		.loc 1 587 5 discriminator 44
 5604 09aa 7B68     		ldr	r3, [r7, #4]
 5605 09ac 9B69     		ldr	r3, [r3, #24]
 5606 09ae B3F5805F 		cmp	r3, #4096
 5607 09b2 04D3     		bcc	.L198
 5608              	.L211:
 587:STM32Cube_FW_N6/Drivers/STM32N6xx_HAL_Driver/Src/stm32n6xx_hal_rif.c ****     assert_param(pConfig->StartAddress < pConfig->EndAddress);
 5609              		.loc 1 587 5 discriminator 45
 5610 09b4 40F24B21 		movw	r1, #587
 5611 09b8 1F48     		ldr	r0, .L222
 5612 09ba FFF7FEFF 		bl	assert_failed
 5613              	.L198:
 588:STM32Cube_FW_N6/Drivers/STM32N6xx_HAL_Driver/Src/stm32n6xx_hal_rif.c **** 
 5614              		.loc 1 588 5 is_stmt 1
 5615 09be 7B68     		ldr	r3, [r7, #4]
 5616 09c0 5A69     		ldr	r2, [r3, #20]
 5617 09c2 7B68     		ldr	r3, [r7, #4]
 5618 09c4 9B69     		ldr	r3, [r3, #24]
 5619 09c6 9A42     		cmp	r2, r3
 5620 09c8 04D3     		bcc	.L212
 588:STM32Cube_FW_N6/Drivers/STM32N6xx_HAL_Driver/Src/stm32n6xx_hal_rif.c **** 
 5621              		.loc 1 588 5 is_stmt 0 discriminator 1
 5622 09ca 4FF41371 		mov	r1, #588
 5623 09ce 1A48     		ldr	r0, .L222
 5624 09d0 FFF7FEFF 		bl	assert_failed
 5625              	.L212:
 591:STM32Cube_FW_N6/Drivers/STM32N6xx_HAL_Driver/Src/stm32n6xx_hal_rif.c ****     RISAFx->REG[Region].ENDR = pConfig->EndAddress;
 5626              		.loc 1 591 41 is_stmt 1
 5627 09d4 7B68     		ldr	r3, [r7, #4]
 5628 09d6 5A69     		ldr	r2, [r3, #20]
 591:STM32Cube_FW_N6/Drivers/STM32N6xx_HAL_Driver/Src/stm32n6xx_hal_rif.c ****     RISAFx->REG[Region].ENDR = pConfig->EndAddress;
 5629              		.loc 1 591 32
 5630 09d8 F968     		ldr	r1, [r7, #12]
 5631 09da BB68     		ldr	r3, [r7, #8]
 5632 09dc 0133     		adds	r3, r3, #1
 5633 09de 9B01     		lsls	r3, r3, #6
 5634 09e0 0B44     		add	r3, r3, r1
 5635 09e2 0433     		adds	r3, r3, #4
 5636 09e4 1A60     		str	r2, [r3]
 592:STM32Cube_FW_N6/Drivers/STM32N6xx_HAL_Driver/Src/stm32n6xx_hal_rif.c **** 
 5637              		.loc 1 592 39
 5638 09e6 7B68     		ldr	r3, [r7, #4]
 5639 09e8 9A69     		ldr	r2, [r3, #24]
 592:STM32Cube_FW_N6/Drivers/STM32N6xx_HAL_Driver/Src/stm32n6xx_hal_rif.c **** 
ARM GAS  /tmp/ccRTEIeG.s 			page 120


 5640              		.loc 1 592 30
 5641 09ea F968     		ldr	r1, [r7, #12]
 5642 09ec BB68     		ldr	r3, [r7, #8]
 5643 09ee 9B01     		lsls	r3, r3, #6
 5644 09f0 0B44     		add	r3, r3, r1
 5645 09f2 4833     		adds	r3, r3, #72
 5646 09f4 1A60     		str	r2, [r3]
 595:STM32Cube_FW_N6/Drivers/STM32N6xx_HAL_Driver/Src/stm32n6xx_hal_rif.c ****     RISAFx->REG[Region].CFGR = (pConfig->Filtering | (pConfig->Secure << RISAF_REGx_CFGR_SEC_Pos)
 5647              		.loc 1 595 43
 5648 09f6 7B68     		ldr	r3, [r7, #4]
 5649 09f8 DA68     		ldr	r2, [r3, #12]
 595:STM32Cube_FW_N6/Drivers/STM32N6xx_HAL_Driver/Src/stm32n6xx_hal_rif.c ****     RISAFx->REG[Region].CFGR = (pConfig->Filtering | (pConfig->Secure << RISAF_REGx_CFGR_SEC_Pos)
 5650              		.loc 1 595 69
 5651 09fa 7B68     		ldr	r3, [r7, #4]
 5652 09fc 1B69     		ldr	r3, [r3, #16]
 595:STM32Cube_FW_N6/Drivers/STM32N6xx_HAL_Driver/Src/stm32n6xx_hal_rif.c ****     RISAFx->REG[Region].CFGR = (pConfig->Filtering | (pConfig->Secure << RISAF_REGx_CFGR_SEC_Pos)
 5653              		.loc 1 595 86
 5654 09fe 1B04     		lsls	r3, r3, #16
 595:STM32Cube_FW_N6/Drivers/STM32N6xx_HAL_Driver/Src/stm32n6xx_hal_rif.c ****     RISAFx->REG[Region].CFGR = (pConfig->Filtering | (pConfig->Secure << RISAF_REGx_CFGR_SEC_Pos)
 5655              		.loc 1 595 59
 5656 0a00 1A43     		orrs	r2, r2, r3
 595:STM32Cube_FW_N6/Drivers/STM32N6xx_HAL_Driver/Src/stm32n6xx_hal_rif.c ****     RISAFx->REG[Region].CFGR = (pConfig->Filtering | (pConfig->Secure << RISAF_REGx_CFGR_SEC_Pos)
 5657              		.loc 1 595 33
 5658 0a02 F968     		ldr	r1, [r7, #12]
 5659 0a04 BB68     		ldr	r3, [r7, #8]
 5660 0a06 9B01     		lsls	r3, r3, #6
 5661 0a08 0B44     		add	r3, r3, r1
 5662 0a0a 4C33     		adds	r3, r3, #76
 5663 0a0c 1A60     		str	r2, [r3]
 596:STM32Cube_FW_N6/Drivers/STM32N6xx_HAL_Driver/Src/stm32n6xx_hal_rif.c ****                                 | (pConfig->PrivWhitelist << RISAF_REGx_CFGR_PRIVC0_Pos));
 5664              		.loc 1 596 40
 5665 0a0e 7B68     		ldr	r3, [r7, #4]
 5666 0a10 1A68     		ldr	r2, [r3]
 596:STM32Cube_FW_N6/Drivers/STM32N6xx_HAL_Driver/Src/stm32n6xx_hal_rif.c ****                                 | (pConfig->PrivWhitelist << RISAF_REGx_CFGR_PRIVC0_Pos));
 5667              		.loc 1 596 62
 5668 0a12 7B68     		ldr	r3, [r7, #4]
 5669 0a14 5B68     		ldr	r3, [r3, #4]
 596:STM32Cube_FW_N6/Drivers/STM32N6xx_HAL_Driver/Src/stm32n6xx_hal_rif.c ****                                 | (pConfig->PrivWhitelist << RISAF_REGx_CFGR_PRIVC0_Pos));
 5670              		.loc 1 596 71
 5671 0a16 1B02     		lsls	r3, r3, #8
 596:STM32Cube_FW_N6/Drivers/STM32N6xx_HAL_Driver/Src/stm32n6xx_hal_rif.c ****                                 | (pConfig->PrivWhitelist << RISAF_REGx_CFGR_PRIVC0_Pos));
 5672              		.loc 1 596 52
 5673 0a18 1A43     		orrs	r2, r2, r3
 597:STM32Cube_FW_N6/Drivers/STM32N6xx_HAL_Driver/Src/stm32n6xx_hal_rif.c ****   }
 5674              		.loc 1 597 43
 5675 0a1a 7B68     		ldr	r3, [r7, #4]
 5676 0a1c 9B68     		ldr	r3, [r3, #8]
 597:STM32Cube_FW_N6/Drivers/STM32N6xx_HAL_Driver/Src/stm32n6xx_hal_rif.c ****   }
 5677              		.loc 1 597 59
 5678 0a1e 1B04     		lsls	r3, r3, #16
 597:STM32Cube_FW_N6/Drivers/STM32N6xx_HAL_Driver/Src/stm32n6xx_hal_rif.c ****   }
 5679              		.loc 1 597 33
 5680 0a20 1A43     		orrs	r2, r2, r3
 596:STM32Cube_FW_N6/Drivers/STM32N6xx_HAL_Driver/Src/stm32n6xx_hal_rif.c ****                                 | (pConfig->PrivWhitelist << RISAF_REGx_CFGR_PRIVC0_Pos));
 5681              		.loc 1 596 30
 5682 0a22 F968     		ldr	r1, [r7, #12]
 5683 0a24 BB68     		ldr	r3, [r7, #8]
ARM GAS  /tmp/ccRTEIeG.s 			page 121


 5684 0a26 0133     		adds	r3, r3, #1
 5685 0a28 9B01     		lsls	r3, r3, #6
 5686 0a2a 0B44     		add	r3, r3, r1
 5687 0a2c 1A60     		str	r2, [r3]
 5688              	.L213:
 5689              		.loc 1 599 1
 5690 0a2e 00BF     		nop
 5691 0a30 1037     		adds	r7, r7, #16
 5692              		.cfi_def_cfa_offset 8
 5693 0a32 BD46     		mov	sp, r7
 5694              		.cfi_def_cfa_register 13
 5695              		@ sp needed
 5696 0a34 80BD     		pop	{r7, pc}
 5697              	.L223:
 5698 0a36 00BF     		.align	2
 5699              	.L222:
 5700 0a38 00000000 		.word	.LC0
 5701 0a3c 00600254 		.word	1409441792
 5702 0a40 00700254 		.word	1409445888
 5703 0a44 00800254 		.word	1409449984
 5704 0a48 00900254 		.word	1409454080
 5705 0a4c 00A00254 		.word	1409458176
 5706 0a50 00B00254 		.word	1409462272
 5707 0a54 00C00254 		.word	1409466368
 5708 0a58 00D00254 		.word	1409470464
 5709 0a5c 00E00254 		.word	1409474560
 5710 0a60 00000354 		.word	1409482752
 5711 0a64 00100354 		.word	1409486848
 5712 0a68 00200354 		.word	1409490944
 5713 0a6c 00300354 		.word	1409495040
 5714 0a70 00400354 		.word	1409499136
 5715 0a74 00500354 		.word	1409503232
 5716 0a78 00600354 		.word	1409507328
 5717 0a7c 00700354 		.word	1409511424
 5718              		.cfi_endproc
 5719              	.LFE849:
 5721              		.section	.text.HAL_RIF_RISAF_GetConfigBaseRegion,"ax",%progbits
 5722              		.align	1
 5723              		.global	HAL_RIF_RISAF_GetConfigBaseRegion
 5724              		.syntax unified
 5725              		.thumb
 5726              		.thumb_func
 5728              	HAL_RIF_RISAF_GetConfigBaseRegion:
 5729              	.LFB850:
 600:STM32Cube_FW_N6/Drivers/STM32N6xx_HAL_Driver/Src/stm32n6xx_hal_rif.c **** #endif /* defined(CPU_AS_TRUSTED_DOMAIN) */
 601:STM32Cube_FW_N6/Drivers/STM32N6xx_HAL_Driver/Src/stm32n6xx_hal_rif.c **** 
 602:STM32Cube_FW_N6/Drivers/STM32N6xx_HAL_Driver/Src/stm32n6xx_hal_rif.c **** /**
 603:STM32Cube_FW_N6/Drivers/STM32N6xx_HAL_Driver/Src/stm32n6xx_hal_rif.c ****   * @brief  Get the configuration of a RISAF Base region.
 604:STM32Cube_FW_N6/Drivers/STM32N6xx_HAL_Driver/Src/stm32n6xx_hal_rif.c ****   * @param  RISAFx specifies the RISAF instance.
 605:STM32Cube_FW_N6/Drivers/STM32N6xx_HAL_Driver/Src/stm32n6xx_hal_rif.c ****   *         This parameter is one of the RISAF instances defined in the CMSIS.
 606:STM32Cube_FW_N6/Drivers/STM32N6xx_HAL_Driver/Src/stm32n6xx_hal_rif.c ****   * @param  Region specifies the RISAF region index
 607:STM32Cube_FW_N6/Drivers/STM32N6xx_HAL_Driver/Src/stm32n6xx_hal_rif.c ****   *         This parameter can be one one of the following values:
 608:STM32Cube_FW_N6/Drivers/STM32N6xx_HAL_Driver/Src/stm32n6xx_hal_rif.c ****   *           @arg @ref RISAF_REGION_1
 609:STM32Cube_FW_N6/Drivers/STM32N6xx_HAL_Driver/Src/stm32n6xx_hal_rif.c ****   *           @arg @ref RISAF_REGION_2
 610:STM32Cube_FW_N6/Drivers/STM32N6xx_HAL_Driver/Src/stm32n6xx_hal_rif.c ****   *           @arg @ref RISAF_REGION_3
 611:STM32Cube_FW_N6/Drivers/STM32N6xx_HAL_Driver/Src/stm32n6xx_hal_rif.c ****   *           @arg @ref RISAF_REGION_4
 612:STM32Cube_FW_N6/Drivers/STM32N6xx_HAL_Driver/Src/stm32n6xx_hal_rif.c ****   *           @arg @ref RISAF_REGION_5
ARM GAS  /tmp/ccRTEIeG.s 			page 122


 613:STM32Cube_FW_N6/Drivers/STM32N6xx_HAL_Driver/Src/stm32n6xx_hal_rif.c ****   *           @arg @ref RISAF_REGION_6
 614:STM32Cube_FW_N6/Drivers/STM32N6xx_HAL_Driver/Src/stm32n6xx_hal_rif.c ****   *           @arg @ref RISAF_REGION_7
 615:STM32Cube_FW_N6/Drivers/STM32N6xx_HAL_Driver/Src/stm32n6xx_hal_rif.c ****   *           @arg @ref RISAF_REGION_8
 616:STM32Cube_FW_N6/Drivers/STM32N6xx_HAL_Driver/Src/stm32n6xx_hal_rif.c ****   *           @arg @ref RISAF_REGION_9
 617:STM32Cube_FW_N6/Drivers/STM32N6xx_HAL_Driver/Src/stm32n6xx_hal_rif.c ****   *           @arg @ref RISAF_REGION_10
 618:STM32Cube_FW_N6/Drivers/STM32N6xx_HAL_Driver/Src/stm32n6xx_hal_rif.c ****   *           @arg @ref RISAF_REGION_11
 619:STM32Cube_FW_N6/Drivers/STM32N6xx_HAL_Driver/Src/stm32n6xx_hal_rif.c ****   *           @arg @ref RISAF_REGION_12
 620:STM32Cube_FW_N6/Drivers/STM32N6xx_HAL_Driver/Src/stm32n6xx_hal_rif.c ****   *           @arg @ref RISAF_REGION_13
 621:STM32Cube_FW_N6/Drivers/STM32N6xx_HAL_Driver/Src/stm32n6xx_hal_rif.c ****   *           @arg @ref RISAF_REGION_14
 622:STM32Cube_FW_N6/Drivers/STM32N6xx_HAL_Driver/Src/stm32n6xx_hal_rif.c ****   *           @arg @ref RISAF_REGION_15
 623:STM32Cube_FW_N6/Drivers/STM32N6xx_HAL_Driver/Src/stm32n6xx_hal_rif.c ****   * @param  pConfig Pointer on RISAF Base Region configuration structure
 624:STM32Cube_FW_N6/Drivers/STM32N6xx_HAL_Driver/Src/stm32n6xx_hal_rif.c ****   * @retval None
 625:STM32Cube_FW_N6/Drivers/STM32N6xx_HAL_Driver/Src/stm32n6xx_hal_rif.c ****   */
 626:STM32Cube_FW_N6/Drivers/STM32N6xx_HAL_Driver/Src/stm32n6xx_hal_rif.c **** void HAL_RIF_RISAF_GetConfigBaseRegion(const RISAF_TypeDef *RISAFx, uint32_t Region, RISAF_BaseRegi
 627:STM32Cube_FW_N6/Drivers/STM32N6xx_HAL_Driver/Src/stm32n6xx_hal_rif.c **** {
 5730              		.loc 1 627 1
 5731              		.cfi_startproc
 5732              		@ args = 0, pretend = 0, frame = 24
 5733              		@ frame_needed = 1, uses_anonymous_args = 0
 5734 0000 80B5     		push	{r7, lr}
 5735              		.cfi_def_cfa_offset 8
 5736              		.cfi_offset 7, -8
 5737              		.cfi_offset 14, -4
 5738 0002 86B0     		sub	sp, sp, #24
 5739              		.cfi_def_cfa_offset 32
 5740 0004 00AF     		add	r7, sp, #0
 5741              		.cfi_def_cfa_register 7
 5742 0006 F860     		str	r0, [r7, #12]
 5743 0008 B960     		str	r1, [r7, #8]
 5744 000a 7A60     		str	r2, [r7, #4]
 628:STM32Cube_FW_N6/Drivers/STM32N6xx_HAL_Driver/Src/stm32n6xx_hal_rif.c ****   uint32_t cfgr_reg;
 629:STM32Cube_FW_N6/Drivers/STM32N6xx_HAL_Driver/Src/stm32n6xx_hal_rif.c ****   uint32_t cidcfgr_reg;
 630:STM32Cube_FW_N6/Drivers/STM32N6xx_HAL_Driver/Src/stm32n6xx_hal_rif.c **** 
 631:STM32Cube_FW_N6/Drivers/STM32N6xx_HAL_Driver/Src/stm32n6xx_hal_rif.c ****   /* Check the parameters */
 632:STM32Cube_FW_N6/Drivers/STM32N6xx_HAL_Driver/Src/stm32n6xx_hal_rif.c ****   assert_param(IS_RISAF_INSTANCE(RISAFx));
 5745              		.loc 1 632 3
 5746 000c FB68     		ldr	r3, [r7, #12]
 5747 000e 7F4A     		ldr	r2, .L261
 5748 0010 9342     		cmp	r3, r2
 5749 0012 44D0     		beq	.L225
 5750              		.loc 1 632 3 is_stmt 0 discriminator 1
 5751 0014 FB68     		ldr	r3, [r7, #12]
 5752 0016 7E4A     		ldr	r2, .L261+4
 5753 0018 9342     		cmp	r3, r2
 5754 001a 40D0     		beq	.L225
 5755              		.loc 1 632 3 discriminator 2
 5756 001c FB68     		ldr	r3, [r7, #12]
 5757 001e 7D4A     		ldr	r2, .L261+8
 5758 0020 9342     		cmp	r3, r2
 5759 0022 3CD0     		beq	.L225
 5760              		.loc 1 632 3 discriminator 3
 5761 0024 FB68     		ldr	r3, [r7, #12]
 5762 0026 7C4A     		ldr	r2, .L261+12
 5763 0028 9342     		cmp	r3, r2
 5764 002a 38D0     		beq	.L225
 5765              		.loc 1 632 3 discriminator 4
 5766 002c FB68     		ldr	r3, [r7, #12]
ARM GAS  /tmp/ccRTEIeG.s 			page 123


 5767 002e 7B4A     		ldr	r2, .L261+16
 5768 0030 9342     		cmp	r3, r2
 5769 0032 34D0     		beq	.L225
 5770              		.loc 1 632 3 discriminator 5
 5771 0034 FB68     		ldr	r3, [r7, #12]
 5772 0036 7A4A     		ldr	r2, .L261+20
 5773 0038 9342     		cmp	r3, r2
 5774 003a 30D0     		beq	.L225
 5775              		.loc 1 632 3 discriminator 6
 5776 003c FB68     		ldr	r3, [r7, #12]
 5777 003e 794A     		ldr	r2, .L261+24
 5778 0040 9342     		cmp	r3, r2
 5779 0042 2CD0     		beq	.L225
 5780              		.loc 1 632 3 discriminator 7
 5781 0044 FB68     		ldr	r3, [r7, #12]
 5782 0046 784A     		ldr	r2, .L261+28
 5783 0048 9342     		cmp	r3, r2
 5784 004a 28D0     		beq	.L225
 5785              		.loc 1 632 3 discriminator 8
 5786 004c FB68     		ldr	r3, [r7, #12]
 5787 004e 774A     		ldr	r2, .L261+32
 5788 0050 9342     		cmp	r3, r2
 5789 0052 24D0     		beq	.L225
 5790              		.loc 1 632 3 discriminator 9
 5791 0054 FB68     		ldr	r3, [r7, #12]
 5792 0056 764A     		ldr	r2, .L261+36
 5793 0058 9342     		cmp	r3, r2
 5794 005a 20D0     		beq	.L225
 5795              		.loc 1 632 3 discriminator 10
 5796 005c FB68     		ldr	r3, [r7, #12]
 5797 005e 754A     		ldr	r2, .L261+40
 5798 0060 9342     		cmp	r3, r2
 5799 0062 1CD0     		beq	.L225
 5800              		.loc 1 632 3 discriminator 11
 5801 0064 FB68     		ldr	r3, [r7, #12]
 5802 0066 744A     		ldr	r2, .L261+44
 5803 0068 9342     		cmp	r3, r2
 5804 006a 18D0     		beq	.L225
 5805              		.loc 1 632 3 discriminator 12
 5806 006c FB68     		ldr	r3, [r7, #12]
 5807 006e 734A     		ldr	r2, .L261+48
 5808 0070 9342     		cmp	r3, r2
 5809 0072 14D0     		beq	.L225
 5810              		.loc 1 632 3 discriminator 13
 5811 0074 FB68     		ldr	r3, [r7, #12]
 5812 0076 724A     		ldr	r2, .L261+52
 5813 0078 9342     		cmp	r3, r2
 5814 007a 10D0     		beq	.L225
 5815              		.loc 1 632 3 discriminator 14
 5816 007c FB68     		ldr	r3, [r7, #12]
 5817 007e 714A     		ldr	r2, .L261+56
 5818 0080 9342     		cmp	r3, r2
 5819 0082 0CD0     		beq	.L225
 5820              		.loc 1 632 3 discriminator 15
 5821 0084 FB68     		ldr	r3, [r7, #12]
 5822 0086 704A     		ldr	r2, .L261+60
 5823 0088 9342     		cmp	r3, r2
ARM GAS  /tmp/ccRTEIeG.s 			page 124


 5824 008a 08D0     		beq	.L225
 5825              		.loc 1 632 3 discriminator 16
 5826 008c FB68     		ldr	r3, [r7, #12]
 5827 008e 6F4A     		ldr	r2, .L261+64
 5828 0090 9342     		cmp	r3, r2
 5829 0092 04D0     		beq	.L225
 5830              		.loc 1 632 3 discriminator 17
 5831 0094 4FF41E71 		mov	r1, #632
 5832 0098 6D48     		ldr	r0, .L261+68
 5833 009a FFF7FEFF 		bl	assert_failed
 5834              	.L225:
 633:STM32Cube_FW_N6/Drivers/STM32N6xx_HAL_Driver/Src/stm32n6xx_hal_rif.c ****   assert_param(IS_RISAF_REGION(Region));
 5835              		.loc 1 633 3 is_stmt 1
 5836 009e BB68     		ldr	r3, [r7, #8]
 5837 00a0 002B     		cmp	r3, #0
 5838 00a2 2ED0     		beq	.L226
 5839              		.loc 1 633 3 is_stmt 0 discriminator 1
 5840 00a4 BB68     		ldr	r3, [r7, #8]
 5841 00a6 012B     		cmp	r3, #1
 5842 00a8 2BD0     		beq	.L226
 5843              		.loc 1 633 3 discriminator 2
 5844 00aa BB68     		ldr	r3, [r7, #8]
 5845 00ac 022B     		cmp	r3, #2
 5846 00ae 28D0     		beq	.L226
 5847              		.loc 1 633 3 discriminator 3
 5848 00b0 BB68     		ldr	r3, [r7, #8]
 5849 00b2 032B     		cmp	r3, #3
 5850 00b4 25D0     		beq	.L226
 5851              		.loc 1 633 3 discriminator 4
 5852 00b6 BB68     		ldr	r3, [r7, #8]
 5853 00b8 042B     		cmp	r3, #4
 5854 00ba 22D0     		beq	.L226
 5855              		.loc 1 633 3 discriminator 5
 5856 00bc BB68     		ldr	r3, [r7, #8]
 5857 00be 052B     		cmp	r3, #5
 5858 00c0 1FD0     		beq	.L226
 5859              		.loc 1 633 3 discriminator 6
 5860 00c2 BB68     		ldr	r3, [r7, #8]
 5861 00c4 062B     		cmp	r3, #6
 5862 00c6 1CD0     		beq	.L226
 5863              		.loc 1 633 3 discriminator 7
 5864 00c8 BB68     		ldr	r3, [r7, #8]
 5865 00ca 072B     		cmp	r3, #7
 5866 00cc 19D0     		beq	.L226
 5867              		.loc 1 633 3 discriminator 8
 5868 00ce BB68     		ldr	r3, [r7, #8]
 5869 00d0 082B     		cmp	r3, #8
 5870 00d2 16D0     		beq	.L226
 5871              		.loc 1 633 3 discriminator 9
 5872 00d4 BB68     		ldr	r3, [r7, #8]
 5873 00d6 092B     		cmp	r3, #9
 5874 00d8 13D0     		beq	.L226
 5875              		.loc 1 633 3 discriminator 10
 5876 00da BB68     		ldr	r3, [r7, #8]
 5877 00dc 0A2B     		cmp	r3, #10
 5878 00de 10D0     		beq	.L226
 5879              		.loc 1 633 3 discriminator 11
ARM GAS  /tmp/ccRTEIeG.s 			page 125


 5880 00e0 BB68     		ldr	r3, [r7, #8]
 5881 00e2 0B2B     		cmp	r3, #11
 5882 00e4 0DD0     		beq	.L226
 5883              		.loc 1 633 3 discriminator 12
 5884 00e6 BB68     		ldr	r3, [r7, #8]
 5885 00e8 0C2B     		cmp	r3, #12
 5886 00ea 0AD0     		beq	.L226
 5887              		.loc 1 633 3 discriminator 13
 5888 00ec BB68     		ldr	r3, [r7, #8]
 5889 00ee 0D2B     		cmp	r3, #13
 5890 00f0 07D0     		beq	.L226
 5891              		.loc 1 633 3 discriminator 14
 5892 00f2 BB68     		ldr	r3, [r7, #8]
 5893 00f4 0E2B     		cmp	r3, #14
 5894 00f6 04D0     		beq	.L226
 5895              		.loc 1 633 3 discriminator 15
 5896 00f8 40F27921 		movw	r1, #633
 5897 00fc 5448     		ldr	r0, .L261+68
 5898 00fe FFF7FEFF 		bl	assert_failed
 5899              	.L226:
 634:STM32Cube_FW_N6/Drivers/STM32N6xx_HAL_Driver/Src/stm32n6xx_hal_rif.c ****   assert_param(IS_RISAF_MAX_REGION(RISAFx, Region));
 5900              		.loc 1 634 3 is_stmt 1
 5901 0102 FB68     		ldr	r3, [r7, #12]
 5902 0104 414A     		ldr	r2, .L261
 5903 0106 9342     		cmp	r3, r2
 5904 0108 06D1     		bne	.L227
 5905              		.loc 1 634 3 is_stmt 0 discriminator 1
 5906 010a BB68     		ldr	r3, [r7, #8]
 5907 010c 062B     		cmp	r3, #6
 5908 010e 94BF     		ite	ls
 5909 0110 0123     		movls	r3, #1
 5910 0112 0023     		movhi	r3, #0
 5911 0114 DBB2     		uxtb	r3, r3
 5912 0116 CFE0     		b	.L228
 5913              	.L227:
 5914              		.loc 1 634 3 discriminator 2
 5915 0118 FB68     		ldr	r3, [r7, #12]
 5916 011a 3D4A     		ldr	r2, .L261+4
 5917 011c 9342     		cmp	r3, r2
 5918 011e 06D1     		bne	.L229
 5919              		.loc 1 634 3 discriminator 4
 5920 0120 BB68     		ldr	r3, [r7, #8]
 5921 0122 062B     		cmp	r3, #6
 5922 0124 94BF     		ite	ls
 5923 0126 0123     		movls	r3, #1
 5924 0128 0023     		movhi	r3, #0
 5925 012a DBB2     		uxtb	r3, r3
 5926 012c C4E0     		b	.L228
 5927              	.L229:
 5928              		.loc 1 634 3 discriminator 5
 5929 012e FB68     		ldr	r3, [r7, #12]
 5930 0130 384A     		ldr	r2, .L261+8
 5931 0132 9342     		cmp	r3, r2
 5932 0134 06D1     		bne	.L231
 5933              		.loc 1 634 3 discriminator 7
 5934 0136 BB68     		ldr	r3, [r7, #8]
 5935 0138 062B     		cmp	r3, #6
ARM GAS  /tmp/ccRTEIeG.s 			page 126


 5936 013a 94BF     		ite	ls
 5937 013c 0123     		movls	r3, #1
 5938 013e 0023     		movhi	r3, #0
 5939 0140 DBB2     		uxtb	r3, r3
 5940 0142 B9E0     		b	.L228
 5941              	.L231:
 5942              		.loc 1 634 3 discriminator 8
 5943 0144 FB68     		ldr	r3, [r7, #12]
 5944 0146 344A     		ldr	r2, .L261+12
 5945 0148 9342     		cmp	r3, r2
 5946 014a 06D1     		bne	.L233
 5947              		.loc 1 634 3 discriminator 10
 5948 014c BB68     		ldr	r3, [r7, #8]
 5949 014e 0A2B     		cmp	r3, #10
 5950 0150 94BF     		ite	ls
 5951 0152 0123     		movls	r3, #1
 5952 0154 0023     		movhi	r3, #0
 5953 0156 DBB2     		uxtb	r3, r3
 5954 0158 AEE0     		b	.L228
 5955              	.L233:
 5956              		.loc 1 634 3 discriminator 11
 5957 015a FB68     		ldr	r3, [r7, #12]
 5958 015c 2F4A     		ldr	r2, .L261+16
 5959 015e 9342     		cmp	r3, r2
 5960 0160 06D1     		bne	.L235
 5961              		.loc 1 634 3 discriminator 13
 5962 0162 BB68     		ldr	r3, [r7, #8]
 5963 0164 0A2B     		cmp	r3, #10
 5964 0166 94BF     		ite	ls
 5965 0168 0123     		movls	r3, #1
 5966 016a 0023     		movhi	r3, #0
 5967 016c DBB2     		uxtb	r3, r3
 5968 016e A3E0     		b	.L228
 5969              	.L235:
 5970              		.loc 1 634 3 discriminator 14
 5971 0170 FB68     		ldr	r3, [r7, #12]
 5972 0172 2B4A     		ldr	r2, .L261+20
 5973 0174 9342     		cmp	r3, r2
 5974 0176 06D1     		bne	.L237
 5975              		.loc 1 634 3 discriminator 16
 5976 0178 BB68     		ldr	r3, [r7, #8]
 5977 017a 0A2B     		cmp	r3, #10
 5978 017c 94BF     		ite	ls
 5979 017e 0123     		movls	r3, #1
 5980 0180 0023     		movhi	r3, #0
 5981 0182 DBB2     		uxtb	r3, r3
 5982 0184 98E0     		b	.L228
 5983              	.L237:
 5984              		.loc 1 634 3 discriminator 17
 5985 0186 FB68     		ldr	r3, [r7, #12]
 5986 0188 264A     		ldr	r2, .L261+24
 5987 018a 9342     		cmp	r3, r2
 5988 018c 06D1     		bne	.L239
 5989              		.loc 1 634 3 discriminator 19
 5990 018e BB68     		ldr	r3, [r7, #8]
 5991 0190 062B     		cmp	r3, #6
 5992 0192 94BF     		ite	ls
ARM GAS  /tmp/ccRTEIeG.s 			page 127


 5993 0194 0123     		movls	r3, #1
 5994 0196 0023     		movhi	r3, #0
 5995 0198 DBB2     		uxtb	r3, r3
 5996 019a 8DE0     		b	.L228
 5997              	.L239:
 5998              		.loc 1 634 3 discriminator 20
 5999 019c FB68     		ldr	r3, [r7, #12]
 6000 019e 224A     		ldr	r2, .L261+28
 6001 01a0 9342     		cmp	r3, r2
 6002 01a2 06D1     		bne	.L241
 6003              		.loc 1 634 3 discriminator 22
 6004 01a4 BB68     		ldr	r3, [r7, #8]
 6005 01a6 062B     		cmp	r3, #6
 6006 01a8 94BF     		ite	ls
 6007 01aa 0123     		movls	r3, #1
 6008 01ac 0023     		movhi	r3, #0
 6009 01ae DBB2     		uxtb	r3, r3
 6010 01b0 82E0     		b	.L228
 6011              	.L241:
 6012              		.loc 1 634 3 discriminator 23
 6013 01b2 FB68     		ldr	r3, [r7, #12]
 6014 01b4 1D4A     		ldr	r2, .L261+32
 6015 01b6 9342     		cmp	r3, r2
 6016 01b8 06D1     		bne	.L243
 6017              		.loc 1 634 3 discriminator 25
 6018 01ba BB68     		ldr	r3, [r7, #8]
 6019 01bc 062B     		cmp	r3, #6
 6020 01be 94BF     		ite	ls
 6021 01c0 0123     		movls	r3, #1
 6022 01c2 0023     		movhi	r3, #0
 6023 01c4 DBB2     		uxtb	r3, r3
 6024 01c6 77E0     		b	.L228
 6025              	.L243:
 6026              		.loc 1 634 3 discriminator 26
 6027 01c8 FB68     		ldr	r3, [r7, #12]
 6028 01ca 194A     		ldr	r2, .L261+36
 6029 01cc 9342     		cmp	r3, r2
 6030 01ce 06D1     		bne	.L245
 6031              		.loc 1 634 3 discriminator 28
 6032 01d0 BB68     		ldr	r3, [r7, #8]
 6033 01d2 062B     		cmp	r3, #6
 6034 01d4 94BF     		ite	ls
 6035 01d6 0123     		movls	r3, #1
 6036 01d8 0023     		movhi	r3, #0
 6037 01da DBB2     		uxtb	r3, r3
 6038 01dc 6CE0     		b	.L228
 6039              	.L245:
 6040              		.loc 1 634 3 discriminator 29
 6041 01de FB68     		ldr	r3, [r7, #12]
 6042 01e0 144A     		ldr	r2, .L261+40
 6043 01e2 9342     		cmp	r3, r2
 6044 01e4 06D1     		bne	.L247
 6045              		.loc 1 634 3 discriminator 31
 6046 01e6 BB68     		ldr	r3, [r7, #8]
 6047 01e8 062B     		cmp	r3, #6
 6048 01ea 94BF     		ite	ls
 6049 01ec 0123     		movls	r3, #1
ARM GAS  /tmp/ccRTEIeG.s 			page 128


 6050 01ee 0023     		movhi	r3, #0
 6051 01f0 DBB2     		uxtb	r3, r3
 6052 01f2 61E0     		b	.L228
 6053              	.L247:
 6054              		.loc 1 634 3 discriminator 32
 6055 01f4 FB68     		ldr	r3, [r7, #12]
 6056 01f6 104A     		ldr	r2, .L261+44
 6057 01f8 9342     		cmp	r3, r2
 6058 01fa 2BD1     		bne	.L249
 6059              		.loc 1 634 3 discriminator 34
 6060 01fc BB68     		ldr	r3, [r7, #8]
 6061 01fe 062B     		cmp	r3, #6
 6062 0200 94BF     		ite	ls
 6063 0202 0123     		movls	r3, #1
 6064 0204 0023     		movhi	r3, #0
 6065 0206 DBB2     		uxtb	r3, r3
 6066 0208 56E0     		b	.L228
 6067              	.L262:
 6068 020a 00BF     		.align	2
 6069              	.L261:
 6070 020c 00600254 		.word	1409441792
 6071 0210 00700254 		.word	1409445888
 6072 0214 00800254 		.word	1409449984
 6073 0218 00900254 		.word	1409454080
 6074 021c 00A00254 		.word	1409458176
 6075 0220 00B00254 		.word	1409462272
 6076 0224 00C00254 		.word	1409466368
 6077 0228 00D00254 		.word	1409470464
 6078 022c 00E00254 		.word	1409474560
 6079 0230 00000354 		.word	1409482752
 6080 0234 00100354 		.word	1409486848
 6081 0238 00200354 		.word	1409490944
 6082 023c 00300354 		.word	1409495040
 6083 0240 00400354 		.word	1409499136
 6084 0244 00500354 		.word	1409503232
 6085 0248 00600354 		.word	1409507328
 6086 024c 00700354 		.word	1409511424
 6087 0250 00000000 		.word	.LC0
 6088              	.L249:
 6089              		.loc 1 634 3 discriminator 35
 6090 0254 FB68     		ldr	r3, [r7, #12]
 6091 0256 3E4A     		ldr	r2, .L263
 6092 0258 9342     		cmp	r3, r2
 6093 025a 06D1     		bne	.L251
 6094              		.loc 1 634 3 discriminator 37
 6095 025c BB68     		ldr	r3, [r7, #8]
 6096 025e 062B     		cmp	r3, #6
 6097 0260 94BF     		ite	ls
 6098 0262 0123     		movls	r3, #1
 6099 0264 0023     		movhi	r3, #0
 6100 0266 DBB2     		uxtb	r3, r3
 6101 0268 26E0     		b	.L228
 6102              	.L251:
 6103              		.loc 1 634 3 discriminator 38
 6104 026a FB68     		ldr	r3, [r7, #12]
 6105 026c 394A     		ldr	r2, .L263+4
 6106 026e 9342     		cmp	r3, r2
ARM GAS  /tmp/ccRTEIeG.s 			page 129


 6107 0270 06D1     		bne	.L253
 6108              		.loc 1 634 3 discriminator 40
 6109 0272 BB68     		ldr	r3, [r7, #8]
 6110 0274 012B     		cmp	r3, #1
 6111 0276 94BF     		ite	ls
 6112 0278 0123     		movls	r3, #1
 6113 027a 0023     		movhi	r3, #0
 6114 027c DBB2     		uxtb	r3, r3
 6115 027e 1BE0     		b	.L228
 6116              	.L253:
 6117              		.loc 1 634 3 discriminator 41
 6118 0280 FB68     		ldr	r3, [r7, #12]
 6119 0282 354A     		ldr	r2, .L263+8
 6120 0284 9342     		cmp	r3, r2
 6121 0286 06D1     		bne	.L255
 6122              		.loc 1 634 3 discriminator 43
 6123 0288 BB68     		ldr	r3, [r7, #8]
 6124 028a 062B     		cmp	r3, #6
 6125 028c 94BF     		ite	ls
 6126 028e 0123     		movls	r3, #1
 6127 0290 0023     		movhi	r3, #0
 6128 0292 DBB2     		uxtb	r3, r3
 6129 0294 10E0     		b	.L228
 6130              	.L255:
 6131              		.loc 1 634 3 discriminator 44
 6132 0296 FB68     		ldr	r3, [r7, #12]
 6133 0298 304A     		ldr	r2, .L263+12
 6134 029a 9342     		cmp	r3, r2
 6135 029c 06D1     		bne	.L257
 6136              		.loc 1 634 3 discriminator 46
 6137 029e BB68     		ldr	r3, [r7, #8]
 6138 02a0 062B     		cmp	r3, #6
 6139 02a2 94BF     		ite	ls
 6140 02a4 0123     		movls	r3, #1
 6141 02a6 0023     		movhi	r3, #0
 6142 02a8 DBB2     		uxtb	r3, r3
 6143 02aa 05E0     		b	.L228
 6144              	.L257:
 6145              		.loc 1 634 3 discriminator 47
 6146 02ac BB68     		ldr	r3, [r7, #8]
 6147 02ae 022B     		cmp	r3, #2
 6148 02b0 94BF     		ite	ls
 6149 02b2 0123     		movls	r3, #1
 6150 02b4 0023     		movhi	r3, #0
 6151 02b6 DBB2     		uxtb	r3, r3
 6152              	.L228:
 6153              		.loc 1 634 3 discriminator 64
 6154 02b8 002B     		cmp	r3, #0
 6155 02ba 04D1     		bne	.L259
 6156              		.loc 1 634 3 discriminator 65
 6157 02bc 40F27A21 		movw	r1, #634
 6158 02c0 2748     		ldr	r0, .L263+16
 6159 02c2 FFF7FEFF 		bl	assert_failed
 6160              	.L259:
 635:STM32Cube_FW_N6/Drivers/STM32N6xx_HAL_Driver/Src/stm32n6xx_hal_rif.c ****   assert_param(pConfig != (void *)NULL);
 6161              		.loc 1 635 3 is_stmt 1
 6162 02c6 7B68     		ldr	r3, [r7, #4]
ARM GAS  /tmp/ccRTEIeG.s 			page 130


 6163 02c8 002B     		cmp	r3, #0
 6164 02ca 04D1     		bne	.L260
 6165              		.loc 1 635 3 is_stmt 0 discriminator 1
 6166 02cc 40F27B21 		movw	r1, #635
 6167 02d0 2348     		ldr	r0, .L263+16
 6168 02d2 FFF7FEFF 		bl	assert_failed
 6169              	.L260:
 636:STM32Cube_FW_N6/Drivers/STM32N6xx_HAL_Driver/Src/stm32n6xx_hal_rif.c **** 
 637:STM32Cube_FW_N6/Drivers/STM32N6xx_HAL_Driver/Src/stm32n6xx_hal_rif.c ****   cfgr_reg = RISAFx->REG[Region].CFGR;
 6170              		.loc 1 637 12 is_stmt 1
 6171 02d6 FA68     		ldr	r2, [r7, #12]
 6172 02d8 BB68     		ldr	r3, [r7, #8]
 6173 02da 0133     		adds	r3, r3, #1
 6174 02dc 9B01     		lsls	r3, r3, #6
 6175 02de 1344     		add	r3, r3, r2
 6176 02e0 1B68     		ldr	r3, [r3]
 6177 02e2 7B61     		str	r3, [r7, #20]
 638:STM32Cube_FW_N6/Drivers/STM32N6xx_HAL_Driver/Src/stm32n6xx_hal_rif.c ****   cidcfgr_reg = RISAFx->REG[Region].CIDCFGR;
 6178              		.loc 1 638 15
 6179 02e4 FA68     		ldr	r2, [r7, #12]
 6180 02e6 BB68     		ldr	r3, [r7, #8]
 6181 02e8 9B01     		lsls	r3, r3, #6
 6182 02ea 1344     		add	r3, r3, r2
 6183 02ec 4C33     		adds	r3, r3, #76
 6184 02ee 1B68     		ldr	r3, [r3]
 6185 02f0 3B61     		str	r3, [r7, #16]
 639:STM32Cube_FW_N6/Drivers/STM32N6xx_HAL_Driver/Src/stm32n6xx_hal_rif.c **** 
 640:STM32Cube_FW_N6/Drivers/STM32N6xx_HAL_Driver/Src/stm32n6xx_hal_rif.c ****   pConfig->Filtering = (cfgr_reg & RISAF_REGx_CFGR_BREN);
 6186              		.loc 1 640 34
 6187 02f2 7B69     		ldr	r3, [r7, #20]
 6188 02f4 03F00102 		and	r2, r3, #1
 6189              		.loc 1 640 22
 6190 02f8 7B68     		ldr	r3, [r7, #4]
 6191 02fa 1A60     		str	r2, [r3]
 641:STM32Cube_FW_N6/Drivers/STM32N6xx_HAL_Driver/Src/stm32n6xx_hal_rif.c ****   pConfig->Secure = ((cfgr_reg & RISAF_REGx_CFGR_SEC) >> RISAF_REGx_CFGR_SEC_Pos);
 6192              		.loc 1 641 55
 6193 02fc 7B69     		ldr	r3, [r7, #20]
 6194 02fe 1B0A     		lsrs	r3, r3, #8
 6195 0300 03F00102 		and	r2, r3, #1
 6196              		.loc 1 641 19
 6197 0304 7B68     		ldr	r3, [r7, #4]
 6198 0306 5A60     		str	r2, [r3, #4]
 642:STM32Cube_FW_N6/Drivers/STM32N6xx_HAL_Driver/Src/stm32n6xx_hal_rif.c ****   pConfig->PrivWhitelist = ((cfgr_reg & (RIF_CID_MASK << RISAF_REGx_CFGR_PRIVC0_Pos)) >> RISAF_REGx
 6199              		.loc 1 642 87
 6200 0308 7B69     		ldr	r3, [r7, #20]
 6201 030a 1B0C     		lsrs	r3, r3, #16
 6202 030c DAB2     		uxtb	r2, r3
 6203              		.loc 1 642 26
 6204 030e 7B68     		ldr	r3, [r7, #4]
 6205 0310 9A60     		str	r2, [r3, #8]
 643:STM32Cube_FW_N6/Drivers/STM32N6xx_HAL_Driver/Src/stm32n6xx_hal_rif.c ****   pConfig->ReadWhitelist = (cidcfgr_reg & RIF_CID_MASK);
 6206              		.loc 1 643 41
 6207 0312 3B69     		ldr	r3, [r7, #16]
 6208 0314 DAB2     		uxtb	r2, r3
 6209              		.loc 1 643 26
 6210 0316 7B68     		ldr	r3, [r7, #4]
 6211 0318 DA60     		str	r2, [r3, #12]
ARM GAS  /tmp/ccRTEIeG.s 			page 131


 644:STM32Cube_FW_N6/Drivers/STM32N6xx_HAL_Driver/Src/stm32n6xx_hal_rif.c ****   pConfig->WriteWhitelist = ((cidcfgr_reg & (RIF_CID_MASK << RISAF_REGx_CIDCFGR_WRENC0_Pos)) >> RIS
 6212              		.loc 1 644 94
 6213 031a 3B69     		ldr	r3, [r7, #16]
 6214 031c 1B0C     		lsrs	r3, r3, #16
 6215 031e DAB2     		uxtb	r2, r3
 6216              		.loc 1 644 27
 6217 0320 7B68     		ldr	r3, [r7, #4]
 6218 0322 1A61     		str	r2, [r3, #16]
 645:STM32Cube_FW_N6/Drivers/STM32N6xx_HAL_Driver/Src/stm32n6xx_hal_rif.c ****   pConfig->StartAddress = RISAFx->REG[Region].STARTR;
 6219              		.loc 1 645 46
 6220 0324 FA68     		ldr	r2, [r7, #12]
 6221 0326 BB68     		ldr	r3, [r7, #8]
 6222 0328 0133     		adds	r3, r3, #1
 6223 032a 9B01     		lsls	r3, r3, #6
 6224 032c 1344     		add	r3, r3, r2
 6225 032e 0433     		adds	r3, r3, #4
 6226 0330 1A68     		ldr	r2, [r3]
 6227              		.loc 1 645 25
 6228 0332 7B68     		ldr	r3, [r7, #4]
 6229 0334 5A61     		str	r2, [r3, #20]
 646:STM32Cube_FW_N6/Drivers/STM32N6xx_HAL_Driver/Src/stm32n6xx_hal_rif.c ****   pConfig->EndAddress = RISAFx->REG[Region].ENDR;
 6230              		.loc 1 646 44
 6231 0336 FA68     		ldr	r2, [r7, #12]
 6232 0338 BB68     		ldr	r3, [r7, #8]
 6233 033a 9B01     		lsls	r3, r3, #6
 6234 033c 1344     		add	r3, r3, r2
 6235 033e 4833     		adds	r3, r3, #72
 6236 0340 1A68     		ldr	r2, [r3]
 6237              		.loc 1 646 23
 6238 0342 7B68     		ldr	r3, [r7, #4]
 6239 0344 9A61     		str	r2, [r3, #24]
 647:STM32Cube_FW_N6/Drivers/STM32N6xx_HAL_Driver/Src/stm32n6xx_hal_rif.c **** }
 6240              		.loc 1 647 1
 6241 0346 00BF     		nop
 6242 0348 1837     		adds	r7, r7, #24
 6243              		.cfi_def_cfa_offset 8
 6244 034a BD46     		mov	sp, r7
 6245              		.cfi_def_cfa_register 13
 6246              		@ sp needed
 6247 034c 80BD     		pop	{r7, pc}
 6248              	.L264:
 6249 034e 00BF     		.align	2
 6250              	.L263:
 6251 0350 00300354 		.word	1409495040
 6252 0354 00400354 		.word	1409499136
 6253 0358 00500354 		.word	1409503232
 6254 035c 00600354 		.word	1409507328
 6255 0360 00000000 		.word	.LC0
 6256              		.cfi_endproc
 6257              	.LFE850:
 6259              		.section	.text.HAL_RIF_RISAF_ConfigSubRegionDelegation,"ax",%progbits
 6260              		.align	1
 6261              		.global	HAL_RIF_RISAF_ConfigSubRegionDelegation
 6262              		.syntax unified
 6263              		.thumb
 6264              		.thumb_func
 6266              	HAL_RIF_RISAF_ConfigSubRegionDelegation:
ARM GAS  /tmp/ccRTEIeG.s 			page 132


 6267              	.LFB851:
 648:STM32Cube_FW_N6/Drivers/STM32N6xx_HAL_Driver/Src/stm32n6xx_hal_rif.c **** 
 649:STM32Cube_FW_N6/Drivers/STM32N6xx_HAL_Driver/Src/stm32n6xx_hal_rif.c **** #if defined(CPU_AS_TRUSTED_DOMAIN)
 650:STM32Cube_FW_N6/Drivers/STM32N6xx_HAL_Driver/Src/stm32n6xx_hal_rif.c **** /**
 651:STM32Cube_FW_N6/Drivers/STM32N6xx_HAL_Driver/Src/stm32n6xx_hal_rif.c ****   * @brief  Delegate a Subregion configuration to another CID.
 652:STM32Cube_FW_N6/Drivers/STM32N6xx_HAL_Driver/Src/stm32n6xx_hal_rif.c ****   * @note   This API is protected by the Trusted Domain compilation directive.
 653:STM32Cube_FW_N6/Drivers/STM32N6xx_HAL_Driver/Src/stm32n6xx_hal_rif.c ****   * @param  RISAFx specifies the RISAF instance.
 654:STM32Cube_FW_N6/Drivers/STM32N6xx_HAL_Driver/Src/stm32n6xx_hal_rif.c ****   *         This parameter is one of the RISAF instances defined in the CMSIS.
 655:STM32Cube_FW_N6/Drivers/STM32N6xx_HAL_Driver/Src/stm32n6xx_hal_rif.c ****   * @param  Region specifies the RISAF region index
 656:STM32Cube_FW_N6/Drivers/STM32N6xx_HAL_Driver/Src/stm32n6xx_hal_rif.c ****   *         This parameter can be one one of the following values:
 657:STM32Cube_FW_N6/Drivers/STM32N6xx_HAL_Driver/Src/stm32n6xx_hal_rif.c ****   *           @arg @ref RISAF_REGION_1
 658:STM32Cube_FW_N6/Drivers/STM32N6xx_HAL_Driver/Src/stm32n6xx_hal_rif.c ****   *           @arg @ref RISAF_REGION_2
 659:STM32Cube_FW_N6/Drivers/STM32N6xx_HAL_Driver/Src/stm32n6xx_hal_rif.c ****   *           @arg @ref RISAF_REGION_3
 660:STM32Cube_FW_N6/Drivers/STM32N6xx_HAL_Driver/Src/stm32n6xx_hal_rif.c ****   *           @arg @ref RISAF_REGION_4
 661:STM32Cube_FW_N6/Drivers/STM32N6xx_HAL_Driver/Src/stm32n6xx_hal_rif.c ****   *           @arg @ref RISAF_REGION_5
 662:STM32Cube_FW_N6/Drivers/STM32N6xx_HAL_Driver/Src/stm32n6xx_hal_rif.c ****   *           @arg @ref RISAF_REGION_6
 663:STM32Cube_FW_N6/Drivers/STM32N6xx_HAL_Driver/Src/stm32n6xx_hal_rif.c ****   *           @arg @ref RISAF_REGION_7
 664:STM32Cube_FW_N6/Drivers/STM32N6xx_HAL_Driver/Src/stm32n6xx_hal_rif.c ****   *           @arg @ref RISAF_REGION_8
 665:STM32Cube_FW_N6/Drivers/STM32N6xx_HAL_Driver/Src/stm32n6xx_hal_rif.c ****   *           @arg @ref RISAF_REGION_9
 666:STM32Cube_FW_N6/Drivers/STM32N6xx_HAL_Driver/Src/stm32n6xx_hal_rif.c ****   *           @arg @ref RISAF_REGION_10
 667:STM32Cube_FW_N6/Drivers/STM32N6xx_HAL_Driver/Src/stm32n6xx_hal_rif.c ****   *           @arg @ref RISAF_REGION_11
 668:STM32Cube_FW_N6/Drivers/STM32N6xx_HAL_Driver/Src/stm32n6xx_hal_rif.c ****   *           @arg @ref RISAF_REGION_12
 669:STM32Cube_FW_N6/Drivers/STM32N6xx_HAL_Driver/Src/stm32n6xx_hal_rif.c ****   *           @arg @ref RISAF_REGION_13
 670:STM32Cube_FW_N6/Drivers/STM32N6xx_HAL_Driver/Src/stm32n6xx_hal_rif.c ****   *           @arg @ref RISAF_REGION_14
 671:STM32Cube_FW_N6/Drivers/STM32N6xx_HAL_Driver/Src/stm32n6xx_hal_rif.c ****   *           @arg @ref RISAF_REGION_15
 672:STM32Cube_FW_N6/Drivers/STM32N6xx_HAL_Driver/Src/stm32n6xx_hal_rif.c ****   * @param  SubRegion specifies the RISAB Subregion index
 673:STM32Cube_FW_N6/Drivers/STM32N6xx_HAL_Driver/Src/stm32n6xx_hal_rif.c ****   *         This parameter can be one of the following values:
 674:STM32Cube_FW_N6/Drivers/STM32N6xx_HAL_Driver/Src/stm32n6xx_hal_rif.c ****   *           @arg @ref RISAF_SUBREGION_A
 675:STM32Cube_FW_N6/Drivers/STM32N6xx_HAL_Driver/Src/stm32n6xx_hal_rif.c ****   *           @arg @ref RISAF_SUBREGION_B
 676:STM32Cube_FW_N6/Drivers/STM32N6xx_HAL_Driver/Src/stm32n6xx_hal_rif.c ****   * @param  pConfig Pointer on RISAF Subregion configuration structure
 677:STM32Cube_FW_N6/Drivers/STM32N6xx_HAL_Driver/Src/stm32n6xx_hal_rif.c ****   * @retval None
 678:STM32Cube_FW_N6/Drivers/STM32N6xx_HAL_Driver/Src/stm32n6xx_hal_rif.c ****   */
 679:STM32Cube_FW_N6/Drivers/STM32N6xx_HAL_Driver/Src/stm32n6xx_hal_rif.c **** void HAL_RIF_RISAF_ConfigSubRegionDelegation(RISAF_TypeDef *RISAFx, uint32_t Region, uint32_t SubRe
 680:STM32Cube_FW_N6/Drivers/STM32N6xx_HAL_Driver/Src/stm32n6xx_hal_rif.c ****                                              const RISAF_DelegationConfig_t *pConfig)
 681:STM32Cube_FW_N6/Drivers/STM32N6xx_HAL_Driver/Src/stm32n6xx_hal_rif.c **** {
 6268              		.loc 1 681 1
 6269              		.cfi_startproc
 6270              		@ args = 0, pretend = 0, frame = 40
 6271              		@ frame_needed = 1, uses_anonymous_args = 0
 6272 0000 80B5     		push	{r7, lr}
 6273              		.cfi_def_cfa_offset 8
 6274              		.cfi_offset 7, -8
 6275              		.cfi_offset 14, -4
 6276 0002 8AB0     		sub	sp, sp, #40
 6277              		.cfi_def_cfa_offset 48
 6278 0004 00AF     		add	r7, sp, #0
 6279              		.cfi_def_cfa_register 7
 6280 0006 F860     		str	r0, [r7, #12]
 6281 0008 B960     		str	r1, [r7, #8]
 6282 000a 7A60     		str	r2, [r7, #4]
 6283 000c 3B60     		str	r3, [r7]
 682:STM32Cube_FW_N6/Drivers/STM32N6xx_HAL_Driver/Src/stm32n6xx_hal_rif.c ****   uint32_t cid;
 683:STM32Cube_FW_N6/Drivers/STM32N6xx_HAL_Driver/Src/stm32n6xx_hal_rif.c ****   uint32_t nestr_reg;
 684:STM32Cube_FW_N6/Drivers/STM32N6xx_HAL_Driver/Src/stm32n6xx_hal_rif.c **** 
 685:STM32Cube_FW_N6/Drivers/STM32N6xx_HAL_Driver/Src/stm32n6xx_hal_rif.c ****   /* Check the parameters */
 686:STM32Cube_FW_N6/Drivers/STM32N6xx_HAL_Driver/Src/stm32n6xx_hal_rif.c ****   assert_param(pConfig != (void *)NULL);
 6284              		.loc 1 686 3
ARM GAS  /tmp/ccRTEIeG.s 			page 133


 6285 000e 3B68     		ldr	r3, [r7]
 6286 0010 002B     		cmp	r3, #0
 6287 0012 04D1     		bne	.L266
 6288              		.loc 1 686 3 is_stmt 0 discriminator 1
 6289 0014 40F2AE21 		movw	r1, #686
 6290 0018 8048     		ldr	r0, .L311
 6291 001a FFF7FEFF 		bl	assert_failed
 6292              	.L266:
 687:STM32Cube_FW_N6/Drivers/STM32N6xx_HAL_Driver/Src/stm32n6xx_hal_rif.c ****   assert_param(IS_RISAF_INSTANCE(RISAFx));
 6293              		.loc 1 687 3 is_stmt 1
 6294 001e FB68     		ldr	r3, [r7, #12]
 6295 0020 7F4A     		ldr	r2, .L311+4
 6296 0022 9342     		cmp	r3, r2
 6297 0024 44D0     		beq	.L267
 6298              		.loc 1 687 3 is_stmt 0 discriminator 1
 6299 0026 FB68     		ldr	r3, [r7, #12]
 6300 0028 7E4A     		ldr	r2, .L311+8
 6301 002a 9342     		cmp	r3, r2
 6302 002c 40D0     		beq	.L267
 6303              		.loc 1 687 3 discriminator 2
 6304 002e FB68     		ldr	r3, [r7, #12]
 6305 0030 7D4A     		ldr	r2, .L311+12
 6306 0032 9342     		cmp	r3, r2
 6307 0034 3CD0     		beq	.L267
 6308              		.loc 1 687 3 discriminator 3
 6309 0036 FB68     		ldr	r3, [r7, #12]
 6310 0038 7C4A     		ldr	r2, .L311+16
 6311 003a 9342     		cmp	r3, r2
 6312 003c 38D0     		beq	.L267
 6313              		.loc 1 687 3 discriminator 4
 6314 003e FB68     		ldr	r3, [r7, #12]
 6315 0040 7B4A     		ldr	r2, .L311+20
 6316 0042 9342     		cmp	r3, r2
 6317 0044 34D0     		beq	.L267
 6318              		.loc 1 687 3 discriminator 5
 6319 0046 FB68     		ldr	r3, [r7, #12]
 6320 0048 7A4A     		ldr	r2, .L311+24
 6321 004a 9342     		cmp	r3, r2
 6322 004c 30D0     		beq	.L267
 6323              		.loc 1 687 3 discriminator 6
 6324 004e FB68     		ldr	r3, [r7, #12]
 6325 0050 794A     		ldr	r2, .L311+28
 6326 0052 9342     		cmp	r3, r2
 6327 0054 2CD0     		beq	.L267
 6328              		.loc 1 687 3 discriminator 7
 6329 0056 FB68     		ldr	r3, [r7, #12]
 6330 0058 784A     		ldr	r2, .L311+32
 6331 005a 9342     		cmp	r3, r2
 6332 005c 28D0     		beq	.L267
 6333              		.loc 1 687 3 discriminator 8
 6334 005e FB68     		ldr	r3, [r7, #12]
 6335 0060 774A     		ldr	r2, .L311+36
 6336 0062 9342     		cmp	r3, r2
 6337 0064 24D0     		beq	.L267
 6338              		.loc 1 687 3 discriminator 9
 6339 0066 FB68     		ldr	r3, [r7, #12]
 6340 0068 764A     		ldr	r2, .L311+40
ARM GAS  /tmp/ccRTEIeG.s 			page 134


 6341 006a 9342     		cmp	r3, r2
 6342 006c 20D0     		beq	.L267
 6343              		.loc 1 687 3 discriminator 10
 6344 006e FB68     		ldr	r3, [r7, #12]
 6345 0070 754A     		ldr	r2, .L311+44
 6346 0072 9342     		cmp	r3, r2
 6347 0074 1CD0     		beq	.L267
 6348              		.loc 1 687 3 discriminator 11
 6349 0076 FB68     		ldr	r3, [r7, #12]
 6350 0078 744A     		ldr	r2, .L311+48
 6351 007a 9342     		cmp	r3, r2
 6352 007c 18D0     		beq	.L267
 6353              		.loc 1 687 3 discriminator 12
 6354 007e FB68     		ldr	r3, [r7, #12]
 6355 0080 734A     		ldr	r2, .L311+52
 6356 0082 9342     		cmp	r3, r2
 6357 0084 14D0     		beq	.L267
 6358              		.loc 1 687 3 discriminator 13
 6359 0086 FB68     		ldr	r3, [r7, #12]
 6360 0088 724A     		ldr	r2, .L311+56
 6361 008a 9342     		cmp	r3, r2
 6362 008c 10D0     		beq	.L267
 6363              		.loc 1 687 3 discriminator 14
 6364 008e FB68     		ldr	r3, [r7, #12]
 6365 0090 714A     		ldr	r2, .L311+60
 6366 0092 9342     		cmp	r3, r2
 6367 0094 0CD0     		beq	.L267
 6368              		.loc 1 687 3 discriminator 15
 6369 0096 FB68     		ldr	r3, [r7, #12]
 6370 0098 704A     		ldr	r2, .L311+64
 6371 009a 9342     		cmp	r3, r2
 6372 009c 08D0     		beq	.L267
 6373              		.loc 1 687 3 discriminator 16
 6374 009e FB68     		ldr	r3, [r7, #12]
 6375 00a0 6F4A     		ldr	r2, .L311+68
 6376 00a2 9342     		cmp	r3, r2
 6377 00a4 04D0     		beq	.L267
 6378              		.loc 1 687 3 discriminator 17
 6379 00a6 40F2AF21 		movw	r1, #687
 6380 00aa 5C48     		ldr	r0, .L311
 6381 00ac FFF7FEFF 		bl	assert_failed
 6382              	.L267:
 688:STM32Cube_FW_N6/Drivers/STM32N6xx_HAL_Driver/Src/stm32n6xx_hal_rif.c ****   assert_param(IS_RISAF_REGION(Region));
 6383              		.loc 1 688 3 is_stmt 1
 6384 00b0 BB68     		ldr	r3, [r7, #8]
 6385 00b2 002B     		cmp	r3, #0
 6386 00b4 2ED0     		beq	.L268
 6387              		.loc 1 688 3 is_stmt 0 discriminator 1
 6388 00b6 BB68     		ldr	r3, [r7, #8]
 6389 00b8 012B     		cmp	r3, #1
 6390 00ba 2BD0     		beq	.L268
 6391              		.loc 1 688 3 discriminator 2
 6392 00bc BB68     		ldr	r3, [r7, #8]
 6393 00be 022B     		cmp	r3, #2
 6394 00c0 28D0     		beq	.L268
 6395              		.loc 1 688 3 discriminator 3
 6396 00c2 BB68     		ldr	r3, [r7, #8]
ARM GAS  /tmp/ccRTEIeG.s 			page 135


 6397 00c4 032B     		cmp	r3, #3
 6398 00c6 25D0     		beq	.L268
 6399              		.loc 1 688 3 discriminator 4
 6400 00c8 BB68     		ldr	r3, [r7, #8]
 6401 00ca 042B     		cmp	r3, #4
 6402 00cc 22D0     		beq	.L268
 6403              		.loc 1 688 3 discriminator 5
 6404 00ce BB68     		ldr	r3, [r7, #8]
 6405 00d0 052B     		cmp	r3, #5
 6406 00d2 1FD0     		beq	.L268
 6407              		.loc 1 688 3 discriminator 6
 6408 00d4 BB68     		ldr	r3, [r7, #8]
 6409 00d6 062B     		cmp	r3, #6
 6410 00d8 1CD0     		beq	.L268
 6411              		.loc 1 688 3 discriminator 7
 6412 00da BB68     		ldr	r3, [r7, #8]
 6413 00dc 072B     		cmp	r3, #7
 6414 00de 19D0     		beq	.L268
 6415              		.loc 1 688 3 discriminator 8
 6416 00e0 BB68     		ldr	r3, [r7, #8]
 6417 00e2 082B     		cmp	r3, #8
 6418 00e4 16D0     		beq	.L268
 6419              		.loc 1 688 3 discriminator 9
 6420 00e6 BB68     		ldr	r3, [r7, #8]
 6421 00e8 092B     		cmp	r3, #9
 6422 00ea 13D0     		beq	.L268
 6423              		.loc 1 688 3 discriminator 10
 6424 00ec BB68     		ldr	r3, [r7, #8]
 6425 00ee 0A2B     		cmp	r3, #10
 6426 00f0 10D0     		beq	.L268
 6427              		.loc 1 688 3 discriminator 11
 6428 00f2 BB68     		ldr	r3, [r7, #8]
 6429 00f4 0B2B     		cmp	r3, #11
 6430 00f6 0DD0     		beq	.L268
 6431              		.loc 1 688 3 discriminator 12
 6432 00f8 BB68     		ldr	r3, [r7, #8]
 6433 00fa 0C2B     		cmp	r3, #12
 6434 00fc 0AD0     		beq	.L268
 6435              		.loc 1 688 3 discriminator 13
 6436 00fe BB68     		ldr	r3, [r7, #8]
 6437 0100 0D2B     		cmp	r3, #13
 6438 0102 07D0     		beq	.L268
 6439              		.loc 1 688 3 discriminator 14
 6440 0104 BB68     		ldr	r3, [r7, #8]
 6441 0106 0E2B     		cmp	r3, #14
 6442 0108 04D0     		beq	.L268
 6443              		.loc 1 688 3 discriminator 15
 6444 010a 4FF42C71 		mov	r1, #688
 6445 010e 4348     		ldr	r0, .L311
 6446 0110 FFF7FEFF 		bl	assert_failed
 6447              	.L268:
 689:STM32Cube_FW_N6/Drivers/STM32N6xx_HAL_Driver/Src/stm32n6xx_hal_rif.c ****   assert_param(IS_RISAF_MAX_REGION(RISAFx, Region));
 6448              		.loc 1 689 3 is_stmt 1
 6449 0114 FB68     		ldr	r3, [r7, #12]
 6450 0116 424A     		ldr	r2, .L311+4
 6451 0118 9342     		cmp	r3, r2
 6452 011a 06D1     		bne	.L269
ARM GAS  /tmp/ccRTEIeG.s 			page 136


 6453              		.loc 1 689 3 is_stmt 0 discriminator 1
 6454 011c BB68     		ldr	r3, [r7, #8]
 6455 011e 062B     		cmp	r3, #6
 6456 0120 94BF     		ite	ls
 6457 0122 0123     		movls	r3, #1
 6458 0124 0023     		movhi	r3, #0
 6459 0126 DBB2     		uxtb	r3, r3
 6460 0128 CEE0     		b	.L270
 6461              	.L269:
 6462              		.loc 1 689 3 discriminator 2
 6463 012a FB68     		ldr	r3, [r7, #12]
 6464 012c 3D4A     		ldr	r2, .L311+8
 6465 012e 9342     		cmp	r3, r2
 6466 0130 06D1     		bne	.L271
 6467              		.loc 1 689 3 discriminator 4
 6468 0132 BB68     		ldr	r3, [r7, #8]
 6469 0134 062B     		cmp	r3, #6
 6470 0136 94BF     		ite	ls
 6471 0138 0123     		movls	r3, #1
 6472 013a 0023     		movhi	r3, #0
 6473 013c DBB2     		uxtb	r3, r3
 6474 013e C3E0     		b	.L270
 6475              	.L271:
 6476              		.loc 1 689 3 discriminator 5
 6477 0140 FB68     		ldr	r3, [r7, #12]
 6478 0142 394A     		ldr	r2, .L311+12
 6479 0144 9342     		cmp	r3, r2
 6480 0146 06D1     		bne	.L273
 6481              		.loc 1 689 3 discriminator 7
 6482 0148 BB68     		ldr	r3, [r7, #8]
 6483 014a 062B     		cmp	r3, #6
 6484 014c 94BF     		ite	ls
 6485 014e 0123     		movls	r3, #1
 6486 0150 0023     		movhi	r3, #0
 6487 0152 DBB2     		uxtb	r3, r3
 6488 0154 B8E0     		b	.L270
 6489              	.L273:
 6490              		.loc 1 689 3 discriminator 8
 6491 0156 FB68     		ldr	r3, [r7, #12]
 6492 0158 344A     		ldr	r2, .L311+16
 6493 015a 9342     		cmp	r3, r2
 6494 015c 06D1     		bne	.L275
 6495              		.loc 1 689 3 discriminator 10
 6496 015e BB68     		ldr	r3, [r7, #8]
 6497 0160 0A2B     		cmp	r3, #10
 6498 0162 94BF     		ite	ls
 6499 0164 0123     		movls	r3, #1
 6500 0166 0023     		movhi	r3, #0
 6501 0168 DBB2     		uxtb	r3, r3
 6502 016a ADE0     		b	.L270
 6503              	.L275:
 6504              		.loc 1 689 3 discriminator 11
 6505 016c FB68     		ldr	r3, [r7, #12]
 6506 016e 304A     		ldr	r2, .L311+20
 6507 0170 9342     		cmp	r3, r2
 6508 0172 06D1     		bne	.L277
 6509              		.loc 1 689 3 discriminator 13
ARM GAS  /tmp/ccRTEIeG.s 			page 137


 6510 0174 BB68     		ldr	r3, [r7, #8]
 6511 0176 0A2B     		cmp	r3, #10
 6512 0178 94BF     		ite	ls
 6513 017a 0123     		movls	r3, #1
 6514 017c 0023     		movhi	r3, #0
 6515 017e DBB2     		uxtb	r3, r3
 6516 0180 A2E0     		b	.L270
 6517              	.L277:
 6518              		.loc 1 689 3 discriminator 14
 6519 0182 FB68     		ldr	r3, [r7, #12]
 6520 0184 2B4A     		ldr	r2, .L311+24
 6521 0186 9342     		cmp	r3, r2
 6522 0188 06D1     		bne	.L279
 6523              		.loc 1 689 3 discriminator 16
 6524 018a BB68     		ldr	r3, [r7, #8]
 6525 018c 0A2B     		cmp	r3, #10
 6526 018e 94BF     		ite	ls
 6527 0190 0123     		movls	r3, #1
 6528 0192 0023     		movhi	r3, #0
 6529 0194 DBB2     		uxtb	r3, r3
 6530 0196 97E0     		b	.L270
 6531              	.L279:
 6532              		.loc 1 689 3 discriminator 17
 6533 0198 FB68     		ldr	r3, [r7, #12]
 6534 019a 274A     		ldr	r2, .L311+28
 6535 019c 9342     		cmp	r3, r2
 6536 019e 06D1     		bne	.L281
 6537              		.loc 1 689 3 discriminator 19
 6538 01a0 BB68     		ldr	r3, [r7, #8]
 6539 01a2 062B     		cmp	r3, #6
 6540 01a4 94BF     		ite	ls
 6541 01a6 0123     		movls	r3, #1
 6542 01a8 0023     		movhi	r3, #0
 6543 01aa DBB2     		uxtb	r3, r3
 6544 01ac 8CE0     		b	.L270
 6545              	.L281:
 6546              		.loc 1 689 3 discriminator 20
 6547 01ae FB68     		ldr	r3, [r7, #12]
 6548 01b0 224A     		ldr	r2, .L311+32
 6549 01b2 9342     		cmp	r3, r2
 6550 01b4 06D1     		bne	.L283
 6551              		.loc 1 689 3 discriminator 22
 6552 01b6 BB68     		ldr	r3, [r7, #8]
 6553 01b8 062B     		cmp	r3, #6
 6554 01ba 94BF     		ite	ls
 6555 01bc 0123     		movls	r3, #1
 6556 01be 0023     		movhi	r3, #0
 6557 01c0 DBB2     		uxtb	r3, r3
 6558 01c2 81E0     		b	.L270
 6559              	.L283:
 6560              		.loc 1 689 3 discriminator 23
 6561 01c4 FB68     		ldr	r3, [r7, #12]
 6562 01c6 1E4A     		ldr	r2, .L311+36
 6563 01c8 9342     		cmp	r3, r2
 6564 01ca 06D1     		bne	.L285
 6565              		.loc 1 689 3 discriminator 25
 6566 01cc BB68     		ldr	r3, [r7, #8]
ARM GAS  /tmp/ccRTEIeG.s 			page 138


 6567 01ce 062B     		cmp	r3, #6
 6568 01d0 94BF     		ite	ls
 6569 01d2 0123     		movls	r3, #1
 6570 01d4 0023     		movhi	r3, #0
 6571 01d6 DBB2     		uxtb	r3, r3
 6572 01d8 76E0     		b	.L270
 6573              	.L285:
 6574              		.loc 1 689 3 discriminator 26
 6575 01da FB68     		ldr	r3, [r7, #12]
 6576 01dc 194A     		ldr	r2, .L311+40
 6577 01de 9342     		cmp	r3, r2
 6578 01e0 06D1     		bne	.L287
 6579              		.loc 1 689 3 discriminator 28
 6580 01e2 BB68     		ldr	r3, [r7, #8]
 6581 01e4 062B     		cmp	r3, #6
 6582 01e6 94BF     		ite	ls
 6583 01e8 0123     		movls	r3, #1
 6584 01ea 0023     		movhi	r3, #0
 6585 01ec DBB2     		uxtb	r3, r3
 6586 01ee 6BE0     		b	.L270
 6587              	.L287:
 6588              		.loc 1 689 3 discriminator 29
 6589 01f0 FB68     		ldr	r3, [r7, #12]
 6590 01f2 154A     		ldr	r2, .L311+44
 6591 01f4 9342     		cmp	r3, r2
 6592 01f6 06D1     		bne	.L289
 6593              		.loc 1 689 3 discriminator 31
 6594 01f8 BB68     		ldr	r3, [r7, #8]
 6595 01fa 062B     		cmp	r3, #6
 6596 01fc 94BF     		ite	ls
 6597 01fe 0123     		movls	r3, #1
 6598 0200 0023     		movhi	r3, #0
 6599 0202 DBB2     		uxtb	r3, r3
 6600 0204 60E0     		b	.L270
 6601              	.L289:
 6602              		.loc 1 689 3 discriminator 32
 6603 0206 FB68     		ldr	r3, [r7, #12]
 6604 0208 104A     		ldr	r2, .L311+48
 6605 020a 9342     		cmp	r3, r2
 6606 020c 2AD1     		bne	.L291
 6607              		.loc 1 689 3 discriminator 34
 6608 020e BB68     		ldr	r3, [r7, #8]
 6609 0210 062B     		cmp	r3, #6
 6610 0212 94BF     		ite	ls
 6611 0214 0123     		movls	r3, #1
 6612 0216 0023     		movhi	r3, #0
 6613 0218 DBB2     		uxtb	r3, r3
 6614 021a 55E0     		b	.L270
 6615              	.L312:
 6616              		.align	2
 6617              	.L311:
 6618 021c 00000000 		.word	.LC0
 6619 0220 00600254 		.word	1409441792
 6620 0224 00700254 		.word	1409445888
 6621 0228 00800254 		.word	1409449984
 6622 022c 00900254 		.word	1409454080
 6623 0230 00A00254 		.word	1409458176
ARM GAS  /tmp/ccRTEIeG.s 			page 139


 6624 0234 00B00254 		.word	1409462272
 6625 0238 00C00254 		.word	1409466368
 6626 023c 00D00254 		.word	1409470464
 6627 0240 00E00254 		.word	1409474560
 6628 0244 00000354 		.word	1409482752
 6629 0248 00100354 		.word	1409486848
 6630 024c 00200354 		.word	1409490944
 6631 0250 00300354 		.word	1409495040
 6632 0254 00400354 		.word	1409499136
 6633 0258 00500354 		.word	1409503232
 6634 025c 00600354 		.word	1409507328
 6635 0260 00700354 		.word	1409511424
 6636              	.L291:
 6637              		.loc 1 689 3 discriminator 35
 6638 0264 FB68     		ldr	r3, [r7, #12]
 6639 0266 624A     		ldr	r2, .L313
 6640 0268 9342     		cmp	r3, r2
 6641 026a 06D1     		bne	.L293
 6642              		.loc 1 689 3 discriminator 37
 6643 026c BB68     		ldr	r3, [r7, #8]
 6644 026e 062B     		cmp	r3, #6
 6645 0270 94BF     		ite	ls
 6646 0272 0123     		movls	r3, #1
 6647 0274 0023     		movhi	r3, #0
 6648 0276 DBB2     		uxtb	r3, r3
 6649 0278 26E0     		b	.L270
 6650              	.L293:
 6651              		.loc 1 689 3 discriminator 38
 6652 027a FB68     		ldr	r3, [r7, #12]
 6653 027c 5D4A     		ldr	r2, .L313+4
 6654 027e 9342     		cmp	r3, r2
 6655 0280 06D1     		bne	.L295
 6656              		.loc 1 689 3 discriminator 40
 6657 0282 BB68     		ldr	r3, [r7, #8]
 6658 0284 012B     		cmp	r3, #1
 6659 0286 94BF     		ite	ls
 6660 0288 0123     		movls	r3, #1
 6661 028a 0023     		movhi	r3, #0
 6662 028c DBB2     		uxtb	r3, r3
 6663 028e 1BE0     		b	.L270
 6664              	.L295:
 6665              		.loc 1 689 3 discriminator 41
 6666 0290 FB68     		ldr	r3, [r7, #12]
 6667 0292 594A     		ldr	r2, .L313+8
 6668 0294 9342     		cmp	r3, r2
 6669 0296 06D1     		bne	.L297
 6670              		.loc 1 689 3 discriminator 43
 6671 0298 BB68     		ldr	r3, [r7, #8]
 6672 029a 062B     		cmp	r3, #6
 6673 029c 94BF     		ite	ls
 6674 029e 0123     		movls	r3, #1
 6675 02a0 0023     		movhi	r3, #0
 6676 02a2 DBB2     		uxtb	r3, r3
 6677 02a4 10E0     		b	.L270
 6678              	.L297:
 6679              		.loc 1 689 3 discriminator 44
 6680 02a6 FB68     		ldr	r3, [r7, #12]
ARM GAS  /tmp/ccRTEIeG.s 			page 140


 6681 02a8 544A     		ldr	r2, .L313+12
 6682 02aa 9342     		cmp	r3, r2
 6683 02ac 06D1     		bne	.L299
 6684              		.loc 1 689 3 discriminator 46
 6685 02ae BB68     		ldr	r3, [r7, #8]
 6686 02b0 062B     		cmp	r3, #6
 6687 02b2 94BF     		ite	ls
 6688 02b4 0123     		movls	r3, #1
 6689 02b6 0023     		movhi	r3, #0
 6690 02b8 DBB2     		uxtb	r3, r3
 6691 02ba 05E0     		b	.L270
 6692              	.L299:
 6693              		.loc 1 689 3 discriminator 47
 6694 02bc BB68     		ldr	r3, [r7, #8]
 6695 02be 022B     		cmp	r3, #2
 6696 02c0 94BF     		ite	ls
 6697 02c2 0123     		movls	r3, #1
 6698 02c4 0023     		movhi	r3, #0
 6699 02c6 DBB2     		uxtb	r3, r3
 6700              	.L270:
 6701              		.loc 1 689 3 discriminator 64
 6702 02c8 002B     		cmp	r3, #0
 6703 02ca 04D1     		bne	.L301
 6704              		.loc 1 689 3 discriminator 65
 6705 02cc 40F2B121 		movw	r1, #689
 6706 02d0 4B48     		ldr	r0, .L313+16
 6707 02d2 FFF7FEFF 		bl	assert_failed
 6708              	.L301:
 690:STM32Cube_FW_N6/Drivers/STM32N6xx_HAL_Driver/Src/stm32n6xx_hal_rif.c ****   assert_param(IS_RISAF_SUBREGION(SubRegion));
 6709              		.loc 1 690 3 is_stmt 1
 6710 02d6 7B68     		ldr	r3, [r7, #4]
 6711 02d8 002B     		cmp	r3, #0
 6712 02da 07D0     		beq	.L302
 6713              		.loc 1 690 3 is_stmt 0 discriminator 1
 6714 02dc 7B68     		ldr	r3, [r7, #4]
 6715 02de 012B     		cmp	r3, #1
 6716 02e0 04D0     		beq	.L302
 6717              		.loc 1 690 3 discriminator 2
 6718 02e2 40F2B221 		movw	r1, #690
 6719 02e6 4648     		ldr	r0, .L313+16
 6720 02e8 FFF7FEFF 		bl	assert_failed
 6721              	.L302:
 691:STM32Cube_FW_N6/Drivers/STM32N6xx_HAL_Driver/Src/stm32n6xx_hal_rif.c ****   assert_param(IS_RISAF_DELEGATION(pConfig->Delegation));
 6722              		.loc 1 691 3 is_stmt 1
 6723 02ec 3B68     		ldr	r3, [r7]
 6724 02ee 1B68     		ldr	r3, [r3]
 6725 02f0 002B     		cmp	r3, #0
 6726 02f2 08D0     		beq	.L303
 6727              		.loc 1 691 3 is_stmt 0 discriminator 1
 6728 02f4 3B68     		ldr	r3, [r7]
 6729 02f6 1B68     		ldr	r3, [r3]
 6730 02f8 042B     		cmp	r3, #4
 6731 02fa 04D0     		beq	.L303
 6732              		.loc 1 691 3 discriminator 2
 6733 02fc 40F2B321 		movw	r1, #691
 6734 0300 3F48     		ldr	r0, .L313+16
 6735 0302 FFF7FEFF 		bl	assert_failed
ARM GAS  /tmp/ccRTEIeG.s 			page 141


 6736              	.L303:
 692:STM32Cube_FW_N6/Drivers/STM32N6xx_HAL_Driver/Src/stm32n6xx_hal_rif.c ****   assert_param(IS_RIF_SINGLE_CID(pConfig->DelegatedCID));
 6737              		.loc 1 692 3 is_stmt 1
 6738 0306 3B68     		ldr	r3, [r7]
 6739 0308 5B68     		ldr	r3, [r3, #4]
 6740 030a 012B     		cmp	r3, #1
 6741 030c 20D0     		beq	.L304
 6742              		.loc 1 692 3 is_stmt 0 discriminator 1
 6743 030e 3B68     		ldr	r3, [r7]
 6744 0310 5B68     		ldr	r3, [r3, #4]
 6745 0312 022B     		cmp	r3, #2
 6746 0314 1CD0     		beq	.L304
 6747              		.loc 1 692 3 discriminator 2
 6748 0316 3B68     		ldr	r3, [r7]
 6749 0318 5B68     		ldr	r3, [r3, #4]
 6750 031a 042B     		cmp	r3, #4
 6751 031c 18D0     		beq	.L304
 6752              		.loc 1 692 3 discriminator 3
 6753 031e 3B68     		ldr	r3, [r7]
 6754 0320 5B68     		ldr	r3, [r3, #4]
 6755 0322 082B     		cmp	r3, #8
 6756 0324 14D0     		beq	.L304
 6757              		.loc 1 692 3 discriminator 4
 6758 0326 3B68     		ldr	r3, [r7]
 6759 0328 5B68     		ldr	r3, [r3, #4]
 6760 032a 102B     		cmp	r3, #16
 6761 032c 10D0     		beq	.L304
 6762              		.loc 1 692 3 discriminator 5
 6763 032e 3B68     		ldr	r3, [r7]
 6764 0330 5B68     		ldr	r3, [r3, #4]
 6765 0332 202B     		cmp	r3, #32
 6766 0334 0CD0     		beq	.L304
 6767              		.loc 1 692 3 discriminator 6
 6768 0336 3B68     		ldr	r3, [r7]
 6769 0338 5B68     		ldr	r3, [r3, #4]
 6770 033a 402B     		cmp	r3, #64
 6771 033c 08D0     		beq	.L304
 6772              		.loc 1 692 3 discriminator 7
 6773 033e 3B68     		ldr	r3, [r7]
 6774 0340 5B68     		ldr	r3, [r3, #4]
 6775 0342 802B     		cmp	r3, #128
 6776 0344 04D0     		beq	.L304
 6777              		.loc 1 692 3 discriminator 8
 6778 0346 4FF42D71 		mov	r1, #692
 6779 034a 2D48     		ldr	r0, .L313+16
 6780 034c FFF7FEFF 		bl	assert_failed
 6781              	.L304:
 693:STM32Cube_FW_N6/Drivers/STM32N6xx_HAL_Driver/Src/stm32n6xx_hal_rif.c **** 
 694:STM32Cube_FW_N6/Drivers/STM32N6xx_HAL_Driver/Src/stm32n6xx_hal_rif.c ****   /* Convert mask into bit position */
 695:STM32Cube_FW_N6/Drivers/STM32N6xx_HAL_Driver/Src/stm32n6xx_hal_rif.c ****   cid = POSITION_VAL(pConfig->DelegatedCID);
 6782              		.loc 1 695 9 is_stmt 1
 6783 0350 3B68     		ldr	r3, [r7]
 6784 0352 5B68     		ldr	r3, [r3, #4]
 6785 0354 BB61     		str	r3, [r7, #24]
 6786              	.LBB26:
 6787              	.LBB27:
 380:STM32Cube_FW_N6/Drivers/CMSIS/Include/cmsis_gcc.h **** #else
ARM GAS  /tmp/ccRTEIeG.s 			page 142


 6788              		.loc 2 380 4
 6789 0356 BB69     		ldr	r3, [r7, #24]
 6790              		.syntax unified
 6791              	@ 380 "STM32Cube_FW_N6/Drivers/CMSIS/Include/cmsis_gcc.h" 1
 6792 0358 93FAA3F3 		rbit r3, r3
 6793              	@ 0 "" 2
 6794              		.thumb
 6795              		.syntax unified
 6796 035c 7B61     		str	r3, [r7, #20]
 393:STM32Cube_FW_N6/Drivers/CMSIS/Include/cmsis_gcc.h **** }
 6797              		.loc 2 393 10
 6798 035e 7B69     		ldr	r3, [r7, #20]
 6799 0360 FB61     		str	r3, [r7, #28]
 6800              	.LBE27:
 6801              	.LBE26:
 6802              	.LBB28:
 6803              	.LBB29:
 414:STM32Cube_FW_N6/Drivers/CMSIS/Include/cmsis_gcc.h ****   {
 6804              		.loc 2 414 6
 6805 0362 FB69     		ldr	r3, [r7, #28]
 6806 0364 002B     		cmp	r3, #0
 6807 0366 01D1     		bne	.L306
 416:STM32Cube_FW_N6/Drivers/CMSIS/Include/cmsis_gcc.h ****   }
 6808              		.loc 2 416 12
 6809 0368 2023     		movs	r3, #32
 6810 036a 03E0     		b	.L307
 6811              	.L306:
 6812              		.loc 2 418 10
 6813 036c FB69     		ldr	r3, [r7, #28]
 6814 036e B3FA83F3 		clz	r3, r3
 6815              		.loc 2 418 10 is_stmt 0 discriminator 1
 6816 0372 DBB2     		uxtb	r3, r3
 6817              	.L307:
 6818              	.LBE29:
 6819              	.LBE28:
 6820              		.loc 1 695 7 is_stmt 1 discriminator 2
 6821 0374 7B62     		str	r3, [r7, #36]
 696:STM32Cube_FW_N6/Drivers/STM32N6xx_HAL_Driver/Src/stm32n6xx_hal_rif.c **** 
 697:STM32Cube_FW_N6/Drivers/STM32N6xx_HAL_Driver/Src/stm32n6xx_hal_rif.c ****   if (SubRegion == RISAF_SUBREGION_A)
 6822              		.loc 1 697 6
 6823 0376 7B68     		ldr	r3, [r7, #4]
 6824 0378 002B     		cmp	r3, #0
 6825 037a 1AD1     		bne	.L308
 698:STM32Cube_FW_N6/Drivers/STM32N6xx_HAL_Driver/Src/stm32n6xx_hal_rif.c ****   {
 699:STM32Cube_FW_N6/Drivers/STM32N6xx_HAL_Driver/Src/stm32n6xx_hal_rif.c ****     nestr_reg = RISAFx->REG[Region].ANESTR;
 6826              		.loc 1 699 15
 6827 037c FA68     		ldr	r2, [r7, #12]
 6828 037e BB68     		ldr	r3, [r7, #8]
 6829 0380 9B01     		lsls	r3, r3, #6
 6830 0382 1344     		add	r3, r3, r2
 6831 0384 5C33     		adds	r3, r3, #92
 6832 0386 1B68     		ldr	r3, [r3]
 6833 0388 3B62     		str	r3, [r7, #32]
 700:STM32Cube_FW_N6/Drivers/STM32N6xx_HAL_Driver/Src/stm32n6xx_hal_rif.c ****     nestr_reg &= (~(RISAF_REGx_zNESTR_DCCID | RISAF_REGx_zNESTR_DCEN));
 6834              		.loc 1 700 15
 6835 038a 3B6A     		ldr	r3, [r7, #32]
 6836 038c 23F07403 		bic	r3, r3, #116
ARM GAS  /tmp/ccRTEIeG.s 			page 143


 6837 0390 3B62     		str	r3, [r7, #32]
 701:STM32Cube_FW_N6/Drivers/STM32N6xx_HAL_Driver/Src/stm32n6xx_hal_rif.c ****     nestr_reg |= ((cid << RISAF_REGx_zNESTR_DCCID_Pos) | pConfig->Delegation);
 6838              		.loc 1 701 24
 6839 0392 7B6A     		ldr	r3, [r7, #36]
 6840 0394 1A01     		lsls	r2, r3, #4
 6841              		.loc 1 701 65
 6842 0396 3B68     		ldr	r3, [r7]
 6843 0398 1B68     		ldr	r3, [r3]
 6844              		.loc 1 701 56
 6845 039a 1343     		orrs	r3, r3, r2
 6846              		.loc 1 701 15
 6847 039c 3A6A     		ldr	r2, [r7, #32]
 6848 039e 1343     		orrs	r3, r3, r2
 6849 03a0 3B62     		str	r3, [r7, #32]
 702:STM32Cube_FW_N6/Drivers/STM32N6xx_HAL_Driver/Src/stm32n6xx_hal_rif.c ****     RISAFx->REG[Region].ANESTR = nestr_reg;
 6850              		.loc 1 702 32
 6851 03a2 FA68     		ldr	r2, [r7, #12]
 6852 03a4 BB68     		ldr	r3, [r7, #8]
 6853 03a6 9B01     		lsls	r3, r3, #6
 6854 03a8 1344     		add	r3, r3, r2
 6855 03aa 5C33     		adds	r3, r3, #92
 6856 03ac 3A6A     		ldr	r2, [r7, #32]
 6857 03ae 1A60     		str	r2, [r3]
 703:STM32Cube_FW_N6/Drivers/STM32N6xx_HAL_Driver/Src/stm32n6xx_hal_rif.c ****   }
 704:STM32Cube_FW_N6/Drivers/STM32N6xx_HAL_Driver/Src/stm32n6xx_hal_rif.c ****   else
 705:STM32Cube_FW_N6/Drivers/STM32N6xx_HAL_Driver/Src/stm32n6xx_hal_rif.c ****   {
 706:STM32Cube_FW_N6/Drivers/STM32N6xx_HAL_Driver/Src/stm32n6xx_hal_rif.c ****     nestr_reg = RISAFx->REG[Region].BNESTR;
 707:STM32Cube_FW_N6/Drivers/STM32N6xx_HAL_Driver/Src/stm32n6xx_hal_rif.c ****     nestr_reg &= (~(RISAF_REGx_zNESTR_DCCID | RISAF_REGx_zNESTR_DCEN));
 708:STM32Cube_FW_N6/Drivers/STM32N6xx_HAL_Driver/Src/stm32n6xx_hal_rif.c ****     nestr_reg |= ((cid << RISAF_REGx_zNESTR_DCCID_Pos) | pConfig->Delegation);
 709:STM32Cube_FW_N6/Drivers/STM32N6xx_HAL_Driver/Src/stm32n6xx_hal_rif.c ****     RISAFx->REG[Region].BNESTR = nestr_reg;
 710:STM32Cube_FW_N6/Drivers/STM32N6xx_HAL_Driver/Src/stm32n6xx_hal_rif.c ****   }
 711:STM32Cube_FW_N6/Drivers/STM32N6xx_HAL_Driver/Src/stm32n6xx_hal_rif.c **** }
 6858              		.loc 1 711 1
 6859 03b0 19E0     		b	.L310
 6860              	.L308:
 706:STM32Cube_FW_N6/Drivers/STM32N6xx_HAL_Driver/Src/stm32n6xx_hal_rif.c ****     nestr_reg &= (~(RISAF_REGx_zNESTR_DCCID | RISAF_REGx_zNESTR_DCEN));
 6861              		.loc 1 706 15
 6862 03b2 FA68     		ldr	r2, [r7, #12]
 6863 03b4 BB68     		ldr	r3, [r7, #8]
 6864 03b6 9B01     		lsls	r3, r3, #6
 6865 03b8 1344     		add	r3, r3, r2
 6866 03ba 6C33     		adds	r3, r3, #108
 6867 03bc 1B68     		ldr	r3, [r3]
 6868 03be 3B62     		str	r3, [r7, #32]
 707:STM32Cube_FW_N6/Drivers/STM32N6xx_HAL_Driver/Src/stm32n6xx_hal_rif.c ****     nestr_reg |= ((cid << RISAF_REGx_zNESTR_DCCID_Pos) | pConfig->Delegation);
 6869              		.loc 1 707 15
 6870 03c0 3B6A     		ldr	r3, [r7, #32]
 6871 03c2 23F07403 		bic	r3, r3, #116
 6872 03c6 3B62     		str	r3, [r7, #32]
 708:STM32Cube_FW_N6/Drivers/STM32N6xx_HAL_Driver/Src/stm32n6xx_hal_rif.c ****     RISAFx->REG[Region].BNESTR = nestr_reg;
 6873              		.loc 1 708 24
 6874 03c8 7B6A     		ldr	r3, [r7, #36]
 6875 03ca 1A01     		lsls	r2, r3, #4
 708:STM32Cube_FW_N6/Drivers/STM32N6xx_HAL_Driver/Src/stm32n6xx_hal_rif.c ****     RISAFx->REG[Region].BNESTR = nestr_reg;
 6876              		.loc 1 708 65
 6877 03cc 3B68     		ldr	r3, [r7]
 6878 03ce 1B68     		ldr	r3, [r3]
ARM GAS  /tmp/ccRTEIeG.s 			page 144


 708:STM32Cube_FW_N6/Drivers/STM32N6xx_HAL_Driver/Src/stm32n6xx_hal_rif.c ****     RISAFx->REG[Region].BNESTR = nestr_reg;
 6879              		.loc 1 708 56
 6880 03d0 1343     		orrs	r3, r3, r2
 708:STM32Cube_FW_N6/Drivers/STM32N6xx_HAL_Driver/Src/stm32n6xx_hal_rif.c ****     RISAFx->REG[Region].BNESTR = nestr_reg;
 6881              		.loc 1 708 15
 6882 03d2 3A6A     		ldr	r2, [r7, #32]
 6883 03d4 1343     		orrs	r3, r3, r2
 6884 03d6 3B62     		str	r3, [r7, #32]
 709:STM32Cube_FW_N6/Drivers/STM32N6xx_HAL_Driver/Src/stm32n6xx_hal_rif.c ****   }
 6885              		.loc 1 709 32
 6886 03d8 FA68     		ldr	r2, [r7, #12]
 6887 03da BB68     		ldr	r3, [r7, #8]
 6888 03dc 9B01     		lsls	r3, r3, #6
 6889 03de 1344     		add	r3, r3, r2
 6890 03e0 6C33     		adds	r3, r3, #108
 6891 03e2 3A6A     		ldr	r2, [r7, #32]
 6892 03e4 1A60     		str	r2, [r3]
 6893              	.L310:
 6894              		.loc 1 711 1
 6895 03e6 00BF     		nop
 6896 03e8 2837     		adds	r7, r7, #40
 6897              		.cfi_def_cfa_offset 8
 6898 03ea BD46     		mov	sp, r7
 6899              		.cfi_def_cfa_register 13
 6900              		@ sp needed
 6901 03ec 80BD     		pop	{r7, pc}
 6902              	.L314:
 6903 03ee 00BF     		.align	2
 6904              	.L313:
 6905 03f0 00300354 		.word	1409495040
 6906 03f4 00400354 		.word	1409499136
 6907 03f8 00500354 		.word	1409503232
 6908 03fc 00600354 		.word	1409507328
 6909 0400 00000000 		.word	.LC0
 6910              		.cfi_endproc
 6911              	.LFE851:
 6913              		.section	.text.HAL_RIF_RISAF_GetConfigSubRegionDelegation,"ax",%progbits
 6914              		.align	1
 6915              		.global	HAL_RIF_RISAF_GetConfigSubRegionDelegation
 6916              		.syntax unified
 6917              		.thumb
 6918              		.thumb_func
 6920              	HAL_RIF_RISAF_GetConfigSubRegionDelegation:
 6921              	.LFB852:
 712:STM32Cube_FW_N6/Drivers/STM32N6xx_HAL_Driver/Src/stm32n6xx_hal_rif.c **** #endif /* defined(CPU_AS_TRUSTED_DOMAIN) */
 713:STM32Cube_FW_N6/Drivers/STM32N6xx_HAL_Driver/Src/stm32n6xx_hal_rif.c **** 
 714:STM32Cube_FW_N6/Drivers/STM32N6xx_HAL_Driver/Src/stm32n6xx_hal_rif.c **** /**
 715:STM32Cube_FW_N6/Drivers/STM32N6xx_HAL_Driver/Src/stm32n6xx_hal_rif.c ****   * @brief  Get the delegation configuration of a RISAF Subregion.
 716:STM32Cube_FW_N6/Drivers/STM32N6xx_HAL_Driver/Src/stm32n6xx_hal_rif.c ****   * @param  RISAFx specifies the RISAF instance.
 717:STM32Cube_FW_N6/Drivers/STM32N6xx_HAL_Driver/Src/stm32n6xx_hal_rif.c ****   *         This parameter is one of the RISAF instances defined in the CMSIS.
 718:STM32Cube_FW_N6/Drivers/STM32N6xx_HAL_Driver/Src/stm32n6xx_hal_rif.c ****   * @param  Region specifies the RISAF region index
 719:STM32Cube_FW_N6/Drivers/STM32N6xx_HAL_Driver/Src/stm32n6xx_hal_rif.c ****   *         This parameter can be one one of the following values:
 720:STM32Cube_FW_N6/Drivers/STM32N6xx_HAL_Driver/Src/stm32n6xx_hal_rif.c ****   *           @arg @ref RISAF_REGION_1
 721:STM32Cube_FW_N6/Drivers/STM32N6xx_HAL_Driver/Src/stm32n6xx_hal_rif.c ****   *           @arg @ref RISAF_REGION_2
 722:STM32Cube_FW_N6/Drivers/STM32N6xx_HAL_Driver/Src/stm32n6xx_hal_rif.c ****   *           @arg @ref RISAF_REGION_3
 723:STM32Cube_FW_N6/Drivers/STM32N6xx_HAL_Driver/Src/stm32n6xx_hal_rif.c ****   *           @arg @ref RISAF_REGION_4
 724:STM32Cube_FW_N6/Drivers/STM32N6xx_HAL_Driver/Src/stm32n6xx_hal_rif.c ****   *           @arg @ref RISAF_REGION_5
ARM GAS  /tmp/ccRTEIeG.s 			page 145


 725:STM32Cube_FW_N6/Drivers/STM32N6xx_HAL_Driver/Src/stm32n6xx_hal_rif.c ****   *           @arg @ref RISAF_REGION_6
 726:STM32Cube_FW_N6/Drivers/STM32N6xx_HAL_Driver/Src/stm32n6xx_hal_rif.c ****   *           @arg @ref RISAF_REGION_7
 727:STM32Cube_FW_N6/Drivers/STM32N6xx_HAL_Driver/Src/stm32n6xx_hal_rif.c ****   *           @arg @ref RISAF_REGION_8
 728:STM32Cube_FW_N6/Drivers/STM32N6xx_HAL_Driver/Src/stm32n6xx_hal_rif.c ****   *           @arg @ref RISAF_REGION_9
 729:STM32Cube_FW_N6/Drivers/STM32N6xx_HAL_Driver/Src/stm32n6xx_hal_rif.c ****   *           @arg @ref RISAF_REGION_10
 730:STM32Cube_FW_N6/Drivers/STM32N6xx_HAL_Driver/Src/stm32n6xx_hal_rif.c ****   *           @arg @ref RISAF_REGION_11
 731:STM32Cube_FW_N6/Drivers/STM32N6xx_HAL_Driver/Src/stm32n6xx_hal_rif.c ****   *           @arg @ref RISAF_REGION_12
 732:STM32Cube_FW_N6/Drivers/STM32N6xx_HAL_Driver/Src/stm32n6xx_hal_rif.c ****   *           @arg @ref RISAF_REGION_13
 733:STM32Cube_FW_N6/Drivers/STM32N6xx_HAL_Driver/Src/stm32n6xx_hal_rif.c ****   *           @arg @ref RISAF_REGION_14
 734:STM32Cube_FW_N6/Drivers/STM32N6xx_HAL_Driver/Src/stm32n6xx_hal_rif.c ****   *           @arg @ref RISAF_REGION_15
 735:STM32Cube_FW_N6/Drivers/STM32N6xx_HAL_Driver/Src/stm32n6xx_hal_rif.c ****   * @param  SubRegion specifies the RISAB Subregion index
 736:STM32Cube_FW_N6/Drivers/STM32N6xx_HAL_Driver/Src/stm32n6xx_hal_rif.c ****   *         This parameter can be one of the following values:
 737:STM32Cube_FW_N6/Drivers/STM32N6xx_HAL_Driver/Src/stm32n6xx_hal_rif.c ****   *           @arg @ref RISAF_SUBREGION_A
 738:STM32Cube_FW_N6/Drivers/STM32N6xx_HAL_Driver/Src/stm32n6xx_hal_rif.c ****   *           @arg @ref RISAF_SUBREGION_B
 739:STM32Cube_FW_N6/Drivers/STM32N6xx_HAL_Driver/Src/stm32n6xx_hal_rif.c ****   * @param  pConfig Pointer on RISAF Subregion configuration structure
 740:STM32Cube_FW_N6/Drivers/STM32N6xx_HAL_Driver/Src/stm32n6xx_hal_rif.c ****   * @retval None
 741:STM32Cube_FW_N6/Drivers/STM32N6xx_HAL_Driver/Src/stm32n6xx_hal_rif.c ****   */
 742:STM32Cube_FW_N6/Drivers/STM32N6xx_HAL_Driver/Src/stm32n6xx_hal_rif.c **** void HAL_RIF_RISAF_GetConfigSubRegionDelegation(const RISAF_TypeDef *RISAFx, uint32_t Region, uint3
 743:STM32Cube_FW_N6/Drivers/STM32N6xx_HAL_Driver/Src/stm32n6xx_hal_rif.c ****                                                 RISAF_DelegationConfig_t *pConfig)
 744:STM32Cube_FW_N6/Drivers/STM32N6xx_HAL_Driver/Src/stm32n6xx_hal_rif.c **** {
 6922              		.loc 1 744 1
 6923              		.cfi_startproc
 6924              		@ args = 0, pretend = 0, frame = 24
 6925              		@ frame_needed = 1, uses_anonymous_args = 0
 6926 0000 80B5     		push	{r7, lr}
 6927              		.cfi_def_cfa_offset 8
 6928              		.cfi_offset 7, -8
 6929              		.cfi_offset 14, -4
 6930 0002 86B0     		sub	sp, sp, #24
 6931              		.cfi_def_cfa_offset 32
 6932 0004 00AF     		add	r7, sp, #0
 6933              		.cfi_def_cfa_register 7
 6934 0006 F860     		str	r0, [r7, #12]
 6935 0008 B960     		str	r1, [r7, #8]
 6936 000a 7A60     		str	r2, [r7, #4]
 6937 000c 3B60     		str	r3, [r7]
 745:STM32Cube_FW_N6/Drivers/STM32N6xx_HAL_Driver/Src/stm32n6xx_hal_rif.c ****   uint32_t cid;
 746:STM32Cube_FW_N6/Drivers/STM32N6xx_HAL_Driver/Src/stm32n6xx_hal_rif.c **** 
 747:STM32Cube_FW_N6/Drivers/STM32N6xx_HAL_Driver/Src/stm32n6xx_hal_rif.c ****   /* Check the parameters */
 748:STM32Cube_FW_N6/Drivers/STM32N6xx_HAL_Driver/Src/stm32n6xx_hal_rif.c ****   assert_param(pConfig != (void *)NULL);
 6938              		.loc 1 748 3
 6939 000e 3B68     		ldr	r3, [r7]
 6940 0010 002B     		cmp	r3, #0
 6941 0012 04D1     		bne	.L316
 6942              		.loc 1 748 3 is_stmt 0 discriminator 1
 6943 0014 4FF43B71 		mov	r1, #748
 6944 0018 8048     		ldr	r0, .L355
 6945 001a FFF7FEFF 		bl	assert_failed
 6946              	.L316:
 749:STM32Cube_FW_N6/Drivers/STM32N6xx_HAL_Driver/Src/stm32n6xx_hal_rif.c ****   assert_param(IS_RISAF_INSTANCE(RISAFx));
 6947              		.loc 1 749 3 is_stmt 1
 6948 001e FB68     		ldr	r3, [r7, #12]
 6949 0020 7F4A     		ldr	r2, .L355+4
 6950 0022 9342     		cmp	r3, r2
 6951 0024 44D0     		beq	.L317
 6952              		.loc 1 749 3 is_stmt 0 discriminator 1
 6953 0026 FB68     		ldr	r3, [r7, #12]
ARM GAS  /tmp/ccRTEIeG.s 			page 146


 6954 0028 7E4A     		ldr	r2, .L355+8
 6955 002a 9342     		cmp	r3, r2
 6956 002c 40D0     		beq	.L317
 6957              		.loc 1 749 3 discriminator 2
 6958 002e FB68     		ldr	r3, [r7, #12]
 6959 0030 7D4A     		ldr	r2, .L355+12
 6960 0032 9342     		cmp	r3, r2
 6961 0034 3CD0     		beq	.L317
 6962              		.loc 1 749 3 discriminator 3
 6963 0036 FB68     		ldr	r3, [r7, #12]
 6964 0038 7C4A     		ldr	r2, .L355+16
 6965 003a 9342     		cmp	r3, r2
 6966 003c 38D0     		beq	.L317
 6967              		.loc 1 749 3 discriminator 4
 6968 003e FB68     		ldr	r3, [r7, #12]
 6969 0040 7B4A     		ldr	r2, .L355+20
 6970 0042 9342     		cmp	r3, r2
 6971 0044 34D0     		beq	.L317
 6972              		.loc 1 749 3 discriminator 5
 6973 0046 FB68     		ldr	r3, [r7, #12]
 6974 0048 7A4A     		ldr	r2, .L355+24
 6975 004a 9342     		cmp	r3, r2
 6976 004c 30D0     		beq	.L317
 6977              		.loc 1 749 3 discriminator 6
 6978 004e FB68     		ldr	r3, [r7, #12]
 6979 0050 794A     		ldr	r2, .L355+28
 6980 0052 9342     		cmp	r3, r2
 6981 0054 2CD0     		beq	.L317
 6982              		.loc 1 749 3 discriminator 7
 6983 0056 FB68     		ldr	r3, [r7, #12]
 6984 0058 784A     		ldr	r2, .L355+32
 6985 005a 9342     		cmp	r3, r2
 6986 005c 28D0     		beq	.L317
 6987              		.loc 1 749 3 discriminator 8
 6988 005e FB68     		ldr	r3, [r7, #12]
 6989 0060 774A     		ldr	r2, .L355+36
 6990 0062 9342     		cmp	r3, r2
 6991 0064 24D0     		beq	.L317
 6992              		.loc 1 749 3 discriminator 9
 6993 0066 FB68     		ldr	r3, [r7, #12]
 6994 0068 764A     		ldr	r2, .L355+40
 6995 006a 9342     		cmp	r3, r2
 6996 006c 20D0     		beq	.L317
 6997              		.loc 1 749 3 discriminator 10
 6998 006e FB68     		ldr	r3, [r7, #12]
 6999 0070 754A     		ldr	r2, .L355+44
 7000 0072 9342     		cmp	r3, r2
 7001 0074 1CD0     		beq	.L317
 7002              		.loc 1 749 3 discriminator 11
 7003 0076 FB68     		ldr	r3, [r7, #12]
 7004 0078 744A     		ldr	r2, .L355+48
 7005 007a 9342     		cmp	r3, r2
 7006 007c 18D0     		beq	.L317
 7007              		.loc 1 749 3 discriminator 12
 7008 007e FB68     		ldr	r3, [r7, #12]
 7009 0080 734A     		ldr	r2, .L355+52
 7010 0082 9342     		cmp	r3, r2
ARM GAS  /tmp/ccRTEIeG.s 			page 147


 7011 0084 14D0     		beq	.L317
 7012              		.loc 1 749 3 discriminator 13
 7013 0086 FB68     		ldr	r3, [r7, #12]
 7014 0088 724A     		ldr	r2, .L355+56
 7015 008a 9342     		cmp	r3, r2
 7016 008c 10D0     		beq	.L317
 7017              		.loc 1 749 3 discriminator 14
 7018 008e FB68     		ldr	r3, [r7, #12]
 7019 0090 714A     		ldr	r2, .L355+60
 7020 0092 9342     		cmp	r3, r2
 7021 0094 0CD0     		beq	.L317
 7022              		.loc 1 749 3 discriminator 15
 7023 0096 FB68     		ldr	r3, [r7, #12]
 7024 0098 704A     		ldr	r2, .L355+64
 7025 009a 9342     		cmp	r3, r2
 7026 009c 08D0     		beq	.L317
 7027              		.loc 1 749 3 discriminator 16
 7028 009e FB68     		ldr	r3, [r7, #12]
 7029 00a0 6F4A     		ldr	r2, .L355+68
 7030 00a2 9342     		cmp	r3, r2
 7031 00a4 04D0     		beq	.L317
 7032              		.loc 1 749 3 discriminator 17
 7033 00a6 40F2ED21 		movw	r1, #749
 7034 00aa 5C48     		ldr	r0, .L355
 7035 00ac FFF7FEFF 		bl	assert_failed
 7036              	.L317:
 750:STM32Cube_FW_N6/Drivers/STM32N6xx_HAL_Driver/Src/stm32n6xx_hal_rif.c ****   assert_param(IS_RISAF_REGION(Region));
 7037              		.loc 1 750 3 is_stmt 1
 7038 00b0 BB68     		ldr	r3, [r7, #8]
 7039 00b2 002B     		cmp	r3, #0
 7040 00b4 2ED0     		beq	.L318
 7041              		.loc 1 750 3 is_stmt 0 discriminator 1
 7042 00b6 BB68     		ldr	r3, [r7, #8]
 7043 00b8 012B     		cmp	r3, #1
 7044 00ba 2BD0     		beq	.L318
 7045              		.loc 1 750 3 discriminator 2
 7046 00bc BB68     		ldr	r3, [r7, #8]
 7047 00be 022B     		cmp	r3, #2
 7048 00c0 28D0     		beq	.L318
 7049              		.loc 1 750 3 discriminator 3
 7050 00c2 BB68     		ldr	r3, [r7, #8]
 7051 00c4 032B     		cmp	r3, #3
 7052 00c6 25D0     		beq	.L318
 7053              		.loc 1 750 3 discriminator 4
 7054 00c8 BB68     		ldr	r3, [r7, #8]
 7055 00ca 042B     		cmp	r3, #4
 7056 00cc 22D0     		beq	.L318
 7057              		.loc 1 750 3 discriminator 5
 7058 00ce BB68     		ldr	r3, [r7, #8]
 7059 00d0 052B     		cmp	r3, #5
 7060 00d2 1FD0     		beq	.L318
 7061              		.loc 1 750 3 discriminator 6
 7062 00d4 BB68     		ldr	r3, [r7, #8]
 7063 00d6 062B     		cmp	r3, #6
 7064 00d8 1CD0     		beq	.L318
 7065              		.loc 1 750 3 discriminator 7
 7066 00da BB68     		ldr	r3, [r7, #8]
ARM GAS  /tmp/ccRTEIeG.s 			page 148


 7067 00dc 072B     		cmp	r3, #7
 7068 00de 19D0     		beq	.L318
 7069              		.loc 1 750 3 discriminator 8
 7070 00e0 BB68     		ldr	r3, [r7, #8]
 7071 00e2 082B     		cmp	r3, #8
 7072 00e4 16D0     		beq	.L318
 7073              		.loc 1 750 3 discriminator 9
 7074 00e6 BB68     		ldr	r3, [r7, #8]
 7075 00e8 092B     		cmp	r3, #9
 7076 00ea 13D0     		beq	.L318
 7077              		.loc 1 750 3 discriminator 10
 7078 00ec BB68     		ldr	r3, [r7, #8]
 7079 00ee 0A2B     		cmp	r3, #10
 7080 00f0 10D0     		beq	.L318
 7081              		.loc 1 750 3 discriminator 11
 7082 00f2 BB68     		ldr	r3, [r7, #8]
 7083 00f4 0B2B     		cmp	r3, #11
 7084 00f6 0DD0     		beq	.L318
 7085              		.loc 1 750 3 discriminator 12
 7086 00f8 BB68     		ldr	r3, [r7, #8]
 7087 00fa 0C2B     		cmp	r3, #12
 7088 00fc 0AD0     		beq	.L318
 7089              		.loc 1 750 3 discriminator 13
 7090 00fe BB68     		ldr	r3, [r7, #8]
 7091 0100 0D2B     		cmp	r3, #13
 7092 0102 07D0     		beq	.L318
 7093              		.loc 1 750 3 discriminator 14
 7094 0104 BB68     		ldr	r3, [r7, #8]
 7095 0106 0E2B     		cmp	r3, #14
 7096 0108 04D0     		beq	.L318
 7097              		.loc 1 750 3 discriminator 15
 7098 010a 40F2EE21 		movw	r1, #750
 7099 010e 4348     		ldr	r0, .L355
 7100 0110 FFF7FEFF 		bl	assert_failed
 7101              	.L318:
 751:STM32Cube_FW_N6/Drivers/STM32N6xx_HAL_Driver/Src/stm32n6xx_hal_rif.c ****   assert_param(IS_RISAF_MAX_REGION(RISAFx, Region));
 7102              		.loc 1 751 3 is_stmt 1
 7103 0114 FB68     		ldr	r3, [r7, #12]
 7104 0116 424A     		ldr	r2, .L355+4
 7105 0118 9342     		cmp	r3, r2
 7106 011a 06D1     		bne	.L319
 7107              		.loc 1 751 3 is_stmt 0 discriminator 1
 7108 011c BB68     		ldr	r3, [r7, #8]
 7109 011e 062B     		cmp	r3, #6
 7110 0120 94BF     		ite	ls
 7111 0122 0123     		movls	r3, #1
 7112 0124 0023     		movhi	r3, #0
 7113 0126 DBB2     		uxtb	r3, r3
 7114 0128 CEE0     		b	.L320
 7115              	.L319:
 7116              		.loc 1 751 3 discriminator 2
 7117 012a FB68     		ldr	r3, [r7, #12]
 7118 012c 3D4A     		ldr	r2, .L355+8
 7119 012e 9342     		cmp	r3, r2
 7120 0130 06D1     		bne	.L321
 7121              		.loc 1 751 3 discriminator 4
 7122 0132 BB68     		ldr	r3, [r7, #8]
ARM GAS  /tmp/ccRTEIeG.s 			page 149


 7123 0134 062B     		cmp	r3, #6
 7124 0136 94BF     		ite	ls
 7125 0138 0123     		movls	r3, #1
 7126 013a 0023     		movhi	r3, #0
 7127 013c DBB2     		uxtb	r3, r3
 7128 013e C3E0     		b	.L320
 7129              	.L321:
 7130              		.loc 1 751 3 discriminator 5
 7131 0140 FB68     		ldr	r3, [r7, #12]
 7132 0142 394A     		ldr	r2, .L355+12
 7133 0144 9342     		cmp	r3, r2
 7134 0146 06D1     		bne	.L323
 7135              		.loc 1 751 3 discriminator 7
 7136 0148 BB68     		ldr	r3, [r7, #8]
 7137 014a 062B     		cmp	r3, #6
 7138 014c 94BF     		ite	ls
 7139 014e 0123     		movls	r3, #1
 7140 0150 0023     		movhi	r3, #0
 7141 0152 DBB2     		uxtb	r3, r3
 7142 0154 B8E0     		b	.L320
 7143              	.L323:
 7144              		.loc 1 751 3 discriminator 8
 7145 0156 FB68     		ldr	r3, [r7, #12]
 7146 0158 344A     		ldr	r2, .L355+16
 7147 015a 9342     		cmp	r3, r2
 7148 015c 06D1     		bne	.L325
 7149              		.loc 1 751 3 discriminator 10
 7150 015e BB68     		ldr	r3, [r7, #8]
 7151 0160 0A2B     		cmp	r3, #10
 7152 0162 94BF     		ite	ls
 7153 0164 0123     		movls	r3, #1
 7154 0166 0023     		movhi	r3, #0
 7155 0168 DBB2     		uxtb	r3, r3
 7156 016a ADE0     		b	.L320
 7157              	.L325:
 7158              		.loc 1 751 3 discriminator 11
 7159 016c FB68     		ldr	r3, [r7, #12]
 7160 016e 304A     		ldr	r2, .L355+20
 7161 0170 9342     		cmp	r3, r2
 7162 0172 06D1     		bne	.L327
 7163              		.loc 1 751 3 discriminator 13
 7164 0174 BB68     		ldr	r3, [r7, #8]
 7165 0176 0A2B     		cmp	r3, #10
 7166 0178 94BF     		ite	ls
 7167 017a 0123     		movls	r3, #1
 7168 017c 0023     		movhi	r3, #0
 7169 017e DBB2     		uxtb	r3, r3
 7170 0180 A2E0     		b	.L320
 7171              	.L327:
 7172              		.loc 1 751 3 discriminator 14
 7173 0182 FB68     		ldr	r3, [r7, #12]
 7174 0184 2B4A     		ldr	r2, .L355+24
 7175 0186 9342     		cmp	r3, r2
 7176 0188 06D1     		bne	.L329
 7177              		.loc 1 751 3 discriminator 16
 7178 018a BB68     		ldr	r3, [r7, #8]
 7179 018c 0A2B     		cmp	r3, #10
ARM GAS  /tmp/ccRTEIeG.s 			page 150


 7180 018e 94BF     		ite	ls
 7181 0190 0123     		movls	r3, #1
 7182 0192 0023     		movhi	r3, #0
 7183 0194 DBB2     		uxtb	r3, r3
 7184 0196 97E0     		b	.L320
 7185              	.L329:
 7186              		.loc 1 751 3 discriminator 17
 7187 0198 FB68     		ldr	r3, [r7, #12]
 7188 019a 274A     		ldr	r2, .L355+28
 7189 019c 9342     		cmp	r3, r2
 7190 019e 06D1     		bne	.L331
 7191              		.loc 1 751 3 discriminator 19
 7192 01a0 BB68     		ldr	r3, [r7, #8]
 7193 01a2 062B     		cmp	r3, #6
 7194 01a4 94BF     		ite	ls
 7195 01a6 0123     		movls	r3, #1
 7196 01a8 0023     		movhi	r3, #0
 7197 01aa DBB2     		uxtb	r3, r3
 7198 01ac 8CE0     		b	.L320
 7199              	.L331:
 7200              		.loc 1 751 3 discriminator 20
 7201 01ae FB68     		ldr	r3, [r7, #12]
 7202 01b0 224A     		ldr	r2, .L355+32
 7203 01b2 9342     		cmp	r3, r2
 7204 01b4 06D1     		bne	.L333
 7205              		.loc 1 751 3 discriminator 22
 7206 01b6 BB68     		ldr	r3, [r7, #8]
 7207 01b8 062B     		cmp	r3, #6
 7208 01ba 94BF     		ite	ls
 7209 01bc 0123     		movls	r3, #1
 7210 01be 0023     		movhi	r3, #0
 7211 01c0 DBB2     		uxtb	r3, r3
 7212 01c2 81E0     		b	.L320
 7213              	.L333:
 7214              		.loc 1 751 3 discriminator 23
 7215 01c4 FB68     		ldr	r3, [r7, #12]
 7216 01c6 1E4A     		ldr	r2, .L355+36
 7217 01c8 9342     		cmp	r3, r2
 7218 01ca 06D1     		bne	.L335
 7219              		.loc 1 751 3 discriminator 25
 7220 01cc BB68     		ldr	r3, [r7, #8]
 7221 01ce 062B     		cmp	r3, #6
 7222 01d0 94BF     		ite	ls
 7223 01d2 0123     		movls	r3, #1
 7224 01d4 0023     		movhi	r3, #0
 7225 01d6 DBB2     		uxtb	r3, r3
 7226 01d8 76E0     		b	.L320
 7227              	.L335:
 7228              		.loc 1 751 3 discriminator 26
 7229 01da FB68     		ldr	r3, [r7, #12]
 7230 01dc 194A     		ldr	r2, .L355+40
 7231 01de 9342     		cmp	r3, r2
 7232 01e0 06D1     		bne	.L337
 7233              		.loc 1 751 3 discriminator 28
 7234 01e2 BB68     		ldr	r3, [r7, #8]
 7235 01e4 062B     		cmp	r3, #6
 7236 01e6 94BF     		ite	ls
ARM GAS  /tmp/ccRTEIeG.s 			page 151


 7237 01e8 0123     		movls	r3, #1
 7238 01ea 0023     		movhi	r3, #0
 7239 01ec DBB2     		uxtb	r3, r3
 7240 01ee 6BE0     		b	.L320
 7241              	.L337:
 7242              		.loc 1 751 3 discriminator 29
 7243 01f0 FB68     		ldr	r3, [r7, #12]
 7244 01f2 154A     		ldr	r2, .L355+44
 7245 01f4 9342     		cmp	r3, r2
 7246 01f6 06D1     		bne	.L339
 7247              		.loc 1 751 3 discriminator 31
 7248 01f8 BB68     		ldr	r3, [r7, #8]
 7249 01fa 062B     		cmp	r3, #6
 7250 01fc 94BF     		ite	ls
 7251 01fe 0123     		movls	r3, #1
 7252 0200 0023     		movhi	r3, #0
 7253 0202 DBB2     		uxtb	r3, r3
 7254 0204 60E0     		b	.L320
 7255              	.L339:
 7256              		.loc 1 751 3 discriminator 32
 7257 0206 FB68     		ldr	r3, [r7, #12]
 7258 0208 104A     		ldr	r2, .L355+48
 7259 020a 9342     		cmp	r3, r2
 7260 020c 2AD1     		bne	.L341
 7261              		.loc 1 751 3 discriminator 34
 7262 020e BB68     		ldr	r3, [r7, #8]
 7263 0210 062B     		cmp	r3, #6
 7264 0212 94BF     		ite	ls
 7265 0214 0123     		movls	r3, #1
 7266 0216 0023     		movhi	r3, #0
 7267 0218 DBB2     		uxtb	r3, r3
 7268 021a 55E0     		b	.L320
 7269              	.L356:
 7270              		.align	2
 7271              	.L355:
 7272 021c 00000000 		.word	.LC0
 7273 0220 00600254 		.word	1409441792
 7274 0224 00700254 		.word	1409445888
 7275 0228 00800254 		.word	1409449984
 7276 022c 00900254 		.word	1409454080
 7277 0230 00A00254 		.word	1409458176
 7278 0234 00B00254 		.word	1409462272
 7279 0238 00C00254 		.word	1409466368
 7280 023c 00D00254 		.word	1409470464
 7281 0240 00E00254 		.word	1409474560
 7282 0244 00000354 		.word	1409482752
 7283 0248 00100354 		.word	1409486848
 7284 024c 00200354 		.word	1409490944
 7285 0250 00300354 		.word	1409495040
 7286 0254 00400354 		.word	1409499136
 7287 0258 00500354 		.word	1409503232
 7288 025c 00600354 		.word	1409507328
 7289 0260 00700354 		.word	1409511424
 7290              	.L341:
 7291              		.loc 1 751 3 discriminator 35
 7292 0264 FB68     		ldr	r3, [r7, #12]
 7293 0266 3C4A     		ldr	r2, .L357
ARM GAS  /tmp/ccRTEIeG.s 			page 152


 7294 0268 9342     		cmp	r3, r2
 7295 026a 06D1     		bne	.L343
 7296              		.loc 1 751 3 discriminator 37
 7297 026c BB68     		ldr	r3, [r7, #8]
 7298 026e 062B     		cmp	r3, #6
 7299 0270 94BF     		ite	ls
 7300 0272 0123     		movls	r3, #1
 7301 0274 0023     		movhi	r3, #0
 7302 0276 DBB2     		uxtb	r3, r3
 7303 0278 26E0     		b	.L320
 7304              	.L343:
 7305              		.loc 1 751 3 discriminator 38
 7306 027a FB68     		ldr	r3, [r7, #12]
 7307 027c 374A     		ldr	r2, .L357+4
 7308 027e 9342     		cmp	r3, r2
 7309 0280 06D1     		bne	.L345
 7310              		.loc 1 751 3 discriminator 40
 7311 0282 BB68     		ldr	r3, [r7, #8]
 7312 0284 012B     		cmp	r3, #1
 7313 0286 94BF     		ite	ls
 7314 0288 0123     		movls	r3, #1
 7315 028a 0023     		movhi	r3, #0
 7316 028c DBB2     		uxtb	r3, r3
 7317 028e 1BE0     		b	.L320
 7318              	.L345:
 7319              		.loc 1 751 3 discriminator 41
 7320 0290 FB68     		ldr	r3, [r7, #12]
 7321 0292 334A     		ldr	r2, .L357+8
 7322 0294 9342     		cmp	r3, r2
 7323 0296 06D1     		bne	.L347
 7324              		.loc 1 751 3 discriminator 43
 7325 0298 BB68     		ldr	r3, [r7, #8]
 7326 029a 062B     		cmp	r3, #6
 7327 029c 94BF     		ite	ls
 7328 029e 0123     		movls	r3, #1
 7329 02a0 0023     		movhi	r3, #0
 7330 02a2 DBB2     		uxtb	r3, r3
 7331 02a4 10E0     		b	.L320
 7332              	.L347:
 7333              		.loc 1 751 3 discriminator 44
 7334 02a6 FB68     		ldr	r3, [r7, #12]
 7335 02a8 2E4A     		ldr	r2, .L357+12
 7336 02aa 9342     		cmp	r3, r2
 7337 02ac 06D1     		bne	.L349
 7338              		.loc 1 751 3 discriminator 46
 7339 02ae BB68     		ldr	r3, [r7, #8]
 7340 02b0 062B     		cmp	r3, #6
 7341 02b2 94BF     		ite	ls
 7342 02b4 0123     		movls	r3, #1
 7343 02b6 0023     		movhi	r3, #0
 7344 02b8 DBB2     		uxtb	r3, r3
 7345 02ba 05E0     		b	.L320
 7346              	.L349:
 7347              		.loc 1 751 3 discriminator 47
 7348 02bc BB68     		ldr	r3, [r7, #8]
 7349 02be 022B     		cmp	r3, #2
 7350 02c0 94BF     		ite	ls
ARM GAS  /tmp/ccRTEIeG.s 			page 153


 7351 02c2 0123     		movls	r3, #1
 7352 02c4 0023     		movhi	r3, #0
 7353 02c6 DBB2     		uxtb	r3, r3
 7354              	.L320:
 7355              		.loc 1 751 3 discriminator 64
 7356 02c8 002B     		cmp	r3, #0
 7357 02ca 04D1     		bne	.L351
 7358              		.loc 1 751 3 discriminator 65
 7359 02cc 40F2EF21 		movw	r1, #751
 7360 02d0 2548     		ldr	r0, .L357+16
 7361 02d2 FFF7FEFF 		bl	assert_failed
 7362              	.L351:
 752:STM32Cube_FW_N6/Drivers/STM32N6xx_HAL_Driver/Src/stm32n6xx_hal_rif.c ****   assert_param(IS_RISAF_SUBREGION(SubRegion));
 7363              		.loc 1 752 3 is_stmt 1
 7364 02d6 7B68     		ldr	r3, [r7, #4]
 7365 02d8 002B     		cmp	r3, #0
 7366 02da 07D0     		beq	.L352
 7367              		.loc 1 752 3 is_stmt 0 discriminator 1
 7368 02dc 7B68     		ldr	r3, [r7, #4]
 7369 02de 012B     		cmp	r3, #1
 7370 02e0 04D0     		beq	.L352
 7371              		.loc 1 752 3 discriminator 2
 7372 02e2 4FF43C71 		mov	r1, #752
 7373 02e6 2048     		ldr	r0, .L357+16
 7374 02e8 FFF7FEFF 		bl	assert_failed
 7375              	.L352:
 753:STM32Cube_FW_N6/Drivers/STM32N6xx_HAL_Driver/Src/stm32n6xx_hal_rif.c **** 
 754:STM32Cube_FW_N6/Drivers/STM32N6xx_HAL_Driver/Src/stm32n6xx_hal_rif.c ****   if (SubRegion == RISAF_SUBREGION_A)
 7376              		.loc 1 754 6 is_stmt 1
 7377 02ec 7B68     		ldr	r3, [r7, #4]
 7378 02ee 002B     		cmp	r3, #0
 7379 02f0 14D1     		bne	.L353
 755:STM32Cube_FW_N6/Drivers/STM32N6xx_HAL_Driver/Src/stm32n6xx_hal_rif.c ****   {
 756:STM32Cube_FW_N6/Drivers/STM32N6xx_HAL_Driver/Src/stm32n6xx_hal_rif.c ****     pConfig->Delegation = (RISAFx->REG[Region].ANESTR & RISAF_REGx_zNESTR_DCEN);
 7380              		.loc 1 756 47
 7381 02f2 FA68     		ldr	r2, [r7, #12]
 7382 02f4 BB68     		ldr	r3, [r7, #8]
 7383 02f6 9B01     		lsls	r3, r3, #6
 7384 02f8 1344     		add	r3, r3, r2
 7385 02fa 5C33     		adds	r3, r3, #92
 7386 02fc 1B68     		ldr	r3, [r3]
 7387              		.loc 1 756 55
 7388 02fe 03F00402 		and	r2, r3, #4
 7389              		.loc 1 756 25
 7390 0302 3B68     		ldr	r3, [r7]
 7391 0304 1A60     		str	r2, [r3]
 757:STM32Cube_FW_N6/Drivers/STM32N6xx_HAL_Driver/Src/stm32n6xx_hal_rif.c ****     cid = ((RISAFx->REG[Region].ANESTR & RISAF_REGx_zNESTR_DCCID) >> RISAF_REGx_zNESTR_DCCID_Pos);
 7392              		.loc 1 757 32
 7393 0306 FA68     		ldr	r2, [r7, #12]
 7394 0308 BB68     		ldr	r3, [r7, #8]
 7395 030a 9B01     		lsls	r3, r3, #6
 7396 030c 1344     		add	r3, r3, r2
 7397 030e 5C33     		adds	r3, r3, #92
 7398 0310 1B68     		ldr	r3, [r3]
 7399              		.loc 1 757 67
 7400 0312 1B09     		lsrs	r3, r3, #4
 7401              		.loc 1 757 9
ARM GAS  /tmp/ccRTEIeG.s 			page 154


 7402 0314 03F00703 		and	r3, r3, #7
 7403 0318 7B61     		str	r3, [r7, #20]
 7404 031a 13E0     		b	.L354
 7405              	.L353:
 758:STM32Cube_FW_N6/Drivers/STM32N6xx_HAL_Driver/Src/stm32n6xx_hal_rif.c ****   }
 759:STM32Cube_FW_N6/Drivers/STM32N6xx_HAL_Driver/Src/stm32n6xx_hal_rif.c ****   else
 760:STM32Cube_FW_N6/Drivers/STM32N6xx_HAL_Driver/Src/stm32n6xx_hal_rif.c ****   {
 761:STM32Cube_FW_N6/Drivers/STM32N6xx_HAL_Driver/Src/stm32n6xx_hal_rif.c ****     pConfig->Delegation = (RISAFx->REG[Region].BNESTR & RISAF_REGx_zNESTR_DCEN);
 7406              		.loc 1 761 47
 7407 031c FA68     		ldr	r2, [r7, #12]
 7408 031e BB68     		ldr	r3, [r7, #8]
 7409 0320 9B01     		lsls	r3, r3, #6
 7410 0322 1344     		add	r3, r3, r2
 7411 0324 6C33     		adds	r3, r3, #108
 7412 0326 1B68     		ldr	r3, [r3]
 7413              		.loc 1 761 55
 7414 0328 03F00402 		and	r2, r3, #4
 7415              		.loc 1 761 25
 7416 032c 3B68     		ldr	r3, [r7]
 7417 032e 1A60     		str	r2, [r3]
 762:STM32Cube_FW_N6/Drivers/STM32N6xx_HAL_Driver/Src/stm32n6xx_hal_rif.c ****     cid = ((RISAFx->REG[Region].BNESTR & RISAF_REGx_zNESTR_DCCID) >> RISAF_REGx_zNESTR_DCCID_Pos);
 7418              		.loc 1 762 32
 7419 0330 FA68     		ldr	r2, [r7, #12]
 7420 0332 BB68     		ldr	r3, [r7, #8]
 7421 0334 9B01     		lsls	r3, r3, #6
 7422 0336 1344     		add	r3, r3, r2
 7423 0338 6C33     		adds	r3, r3, #108
 7424 033a 1B68     		ldr	r3, [r3]
 7425              		.loc 1 762 67
 7426 033c 1B09     		lsrs	r3, r3, #4
 7427              		.loc 1 762 9
 7428 033e 03F00703 		and	r3, r3, #7
 7429 0342 7B61     		str	r3, [r7, #20]
 7430              	.L354:
 763:STM32Cube_FW_N6/Drivers/STM32N6xx_HAL_Driver/Src/stm32n6xx_hal_rif.c ****   }
 764:STM32Cube_FW_N6/Drivers/STM32N6xx_HAL_Driver/Src/stm32n6xx_hal_rif.c **** 
 765:STM32Cube_FW_N6/Drivers/STM32N6xx_HAL_Driver/Src/stm32n6xx_hal_rif.c ****   pConfig->DelegatedCID = (1UL << cid);
 7431              		.loc 1 765 32
 7432 0344 0122     		movs	r2, #1
 7433 0346 7B69     		ldr	r3, [r7, #20]
 7434 0348 9A40     		lsls	r2, r2, r3
 7435              		.loc 1 765 25
 7436 034a 3B68     		ldr	r3, [r7]
 7437 034c 5A60     		str	r2, [r3, #4]
 766:STM32Cube_FW_N6/Drivers/STM32N6xx_HAL_Driver/Src/stm32n6xx_hal_rif.c **** }
 7438              		.loc 1 766 1
 7439 034e 00BF     		nop
 7440 0350 1837     		adds	r7, r7, #24
 7441              		.cfi_def_cfa_offset 8
 7442 0352 BD46     		mov	sp, r7
 7443              		.cfi_def_cfa_register 13
 7444              		@ sp needed
 7445 0354 80BD     		pop	{r7, pc}
 7446              	.L358:
 7447 0356 00BF     		.align	2
 7448              	.L357:
 7449 0358 00300354 		.word	1409495040
ARM GAS  /tmp/ccRTEIeG.s 			page 155


 7450 035c 00400354 		.word	1409499136
 7451 0360 00500354 		.word	1409503232
 7452 0364 00600354 		.word	1409507328
 7453 0368 00000000 		.word	.LC0
 7454              		.cfi_endproc
 7455              	.LFE852:
 7457              		.section	.text.HAL_RIF_RISAF_ConfigSubRegion,"ax",%progbits
 7458              		.align	1
 7459              		.global	HAL_RIF_RISAF_ConfigSubRegion
 7460              		.syntax unified
 7461              		.thumb
 7462              		.thumb_func
 7464              	HAL_RIF_RISAF_ConfigSubRegion:
 7465              	.LFB853:
 767:STM32Cube_FW_N6/Drivers/STM32N6xx_HAL_Driver/Src/stm32n6xx_hal_rif.c **** 
 768:STM32Cube_FW_N6/Drivers/STM32N6xx_HAL_Driver/Src/stm32n6xx_hal_rif.c **** /**
 769:STM32Cube_FW_N6/Drivers/STM32N6xx_HAL_Driver/Src/stm32n6xx_hal_rif.c ****   * @brief  Configure a RISAF subregion.
 770:STM32Cube_FW_N6/Drivers/STM32N6xx_HAL_Driver/Src/stm32n6xx_hal_rif.c ****   * @note   If pConfig->Filtering is equal to RISAF_FILTER_DISABLE, this API only disable the filte
 771:STM32Cube_FW_N6/Drivers/STM32N6xx_HAL_Driver/Src/stm32n6xx_hal_rif.c ****   *         its configuration. It also can lock the current subregion configuration.
 772:STM32Cube_FW_N6/Drivers/STM32N6xx_HAL_Driver/Src/stm32n6xx_hal_rif.c ****   * @note   It is not possible to modify the start and end address of a subregion if the filtering 
 773:STM32Cube_FW_N6/Drivers/STM32N6xx_HAL_Driver/Src/stm32n6xx_hal_rif.c ****   * @param  RISAFx specifies the RISAF instance.
 774:STM32Cube_FW_N6/Drivers/STM32N6xx_HAL_Driver/Src/stm32n6xx_hal_rif.c ****   *         This parameter is one of the RISAF instances defined in the CMSIS.
 775:STM32Cube_FW_N6/Drivers/STM32N6xx_HAL_Driver/Src/stm32n6xx_hal_rif.c ****   * @param  Region specifies the RISAF region index
 776:STM32Cube_FW_N6/Drivers/STM32N6xx_HAL_Driver/Src/stm32n6xx_hal_rif.c ****   *         This parameter can be one one of the following values:
 777:STM32Cube_FW_N6/Drivers/STM32N6xx_HAL_Driver/Src/stm32n6xx_hal_rif.c ****   *           @arg @ref RISAF_REGION_1
 778:STM32Cube_FW_N6/Drivers/STM32N6xx_HAL_Driver/Src/stm32n6xx_hal_rif.c ****   *           @arg @ref RISAF_REGION_2
 779:STM32Cube_FW_N6/Drivers/STM32N6xx_HAL_Driver/Src/stm32n6xx_hal_rif.c ****   *           @arg @ref RISAF_REGION_3
 780:STM32Cube_FW_N6/Drivers/STM32N6xx_HAL_Driver/Src/stm32n6xx_hal_rif.c ****   *           @arg @ref RISAF_REGION_4
 781:STM32Cube_FW_N6/Drivers/STM32N6xx_HAL_Driver/Src/stm32n6xx_hal_rif.c ****   *           @arg @ref RISAF_REGION_5
 782:STM32Cube_FW_N6/Drivers/STM32N6xx_HAL_Driver/Src/stm32n6xx_hal_rif.c ****   *           @arg @ref RISAF_REGION_6
 783:STM32Cube_FW_N6/Drivers/STM32N6xx_HAL_Driver/Src/stm32n6xx_hal_rif.c ****   *           @arg @ref RISAF_REGION_7
 784:STM32Cube_FW_N6/Drivers/STM32N6xx_HAL_Driver/Src/stm32n6xx_hal_rif.c ****   *           @arg @ref RISAF_REGION_8
 785:STM32Cube_FW_N6/Drivers/STM32N6xx_HAL_Driver/Src/stm32n6xx_hal_rif.c ****   *           @arg @ref RISAF_REGION_9
 786:STM32Cube_FW_N6/Drivers/STM32N6xx_HAL_Driver/Src/stm32n6xx_hal_rif.c ****   *           @arg @ref RISAF_REGION_10
 787:STM32Cube_FW_N6/Drivers/STM32N6xx_HAL_Driver/Src/stm32n6xx_hal_rif.c ****   *           @arg @ref RISAF_REGION_11
 788:STM32Cube_FW_N6/Drivers/STM32N6xx_HAL_Driver/Src/stm32n6xx_hal_rif.c ****   *           @arg @ref RISAF_REGION_12
 789:STM32Cube_FW_N6/Drivers/STM32N6xx_HAL_Driver/Src/stm32n6xx_hal_rif.c ****   *           @arg @ref RISAF_REGION_13
 790:STM32Cube_FW_N6/Drivers/STM32N6xx_HAL_Driver/Src/stm32n6xx_hal_rif.c ****   *           @arg @ref RISAF_REGION_14
 791:STM32Cube_FW_N6/Drivers/STM32N6xx_HAL_Driver/Src/stm32n6xx_hal_rif.c ****   *           @arg @ref RISAF_REGION_15
 792:STM32Cube_FW_N6/Drivers/STM32N6xx_HAL_Driver/Src/stm32n6xx_hal_rif.c ****   * @param  SubRegion specifies the RISAB Subregion index
 793:STM32Cube_FW_N6/Drivers/STM32N6xx_HAL_Driver/Src/stm32n6xx_hal_rif.c ****   *         This parameter can be one of the following values:
 794:STM32Cube_FW_N6/Drivers/STM32N6xx_HAL_Driver/Src/stm32n6xx_hal_rif.c ****   *           @arg @ref RISAF_SUBREGION_A
 795:STM32Cube_FW_N6/Drivers/STM32N6xx_HAL_Driver/Src/stm32n6xx_hal_rif.c ****   *           @arg @ref RISAF_SUBREGION_B
 796:STM32Cube_FW_N6/Drivers/STM32N6xx_HAL_Driver/Src/stm32n6xx_hal_rif.c ****   * @param  pConfig Pointer on RISAF Base Region configuration structure
 797:STM32Cube_FW_N6/Drivers/STM32N6xx_HAL_Driver/Src/stm32n6xx_hal_rif.c ****   * @retval None
 798:STM32Cube_FW_N6/Drivers/STM32N6xx_HAL_Driver/Src/stm32n6xx_hal_rif.c ****   */
 799:STM32Cube_FW_N6/Drivers/STM32N6xx_HAL_Driver/Src/stm32n6xx_hal_rif.c **** void HAL_RIF_RISAF_ConfigSubRegion(RISAF_TypeDef *RISAFx, uint32_t Region, uint32_t SubRegion,
 800:STM32Cube_FW_N6/Drivers/STM32N6xx_HAL_Driver/Src/stm32n6xx_hal_rif.c ****                                    const RISAF_SubRegionConfig_t *pConfig)
 801:STM32Cube_FW_N6/Drivers/STM32N6xx_HAL_Driver/Src/stm32n6xx_hal_rif.c **** {
 7466              		.loc 1 801 1
 7467              		.cfi_startproc
 7468              		@ args = 0, pretend = 0, frame = 32
 7469              		@ frame_needed = 1, uses_anonymous_args = 0
 7470 0000 80B5     		push	{r7, lr}
 7471              		.cfi_def_cfa_offset 8
 7472              		.cfi_offset 7, -8
 7473              		.cfi_offset 14, -4
ARM GAS  /tmp/ccRTEIeG.s 			page 156


 7474 0002 88B0     		sub	sp, sp, #32
 7475              		.cfi_def_cfa_offset 40
 7476 0004 00AF     		add	r7, sp, #0
 7477              		.cfi_def_cfa_register 7
 7478 0006 F860     		str	r0, [r7, #12]
 7479 0008 B960     		str	r1, [r7, #8]
 7480 000a 7A60     		str	r2, [r7, #4]
 7481 000c 3B60     		str	r3, [r7]
 802:STM32Cube_FW_N6/Drivers/STM32N6xx_HAL_Driver/Src/stm32n6xx_hal_rif.c ****   uint32_t cid;
 803:STM32Cube_FW_N6/Drivers/STM32N6xx_HAL_Driver/Src/stm32n6xx_hal_rif.c **** 
 804:STM32Cube_FW_N6/Drivers/STM32N6xx_HAL_Driver/Src/stm32n6xx_hal_rif.c ****   /* Check the parameters */
 805:STM32Cube_FW_N6/Drivers/STM32N6xx_HAL_Driver/Src/stm32n6xx_hal_rif.c ****   assert_param(pConfig != (void *)NULL);
 7482              		.loc 1 805 3
 7483 000e 3B68     		ldr	r3, [r7]
 7484 0010 002B     		cmp	r3, #0
 7485 0012 04D1     		bne	.L360
 7486              		.loc 1 805 3 is_stmt 0 discriminator 1
 7487 0014 40F22531 		movw	r1, #805
 7488 0018 8048     		ldr	r0, .L589
 7489 001a FFF7FEFF 		bl	assert_failed
 7490              	.L360:
 806:STM32Cube_FW_N6/Drivers/STM32N6xx_HAL_Driver/Src/stm32n6xx_hal_rif.c ****   assert_param(IS_RISAF_INSTANCE(RISAFx));
 7491              		.loc 1 806 3 is_stmt 1
 7492 001e FB68     		ldr	r3, [r7, #12]
 7493 0020 7F4A     		ldr	r2, .L589+4
 7494 0022 9342     		cmp	r3, r2
 7495 0024 44D0     		beq	.L361
 7496              		.loc 1 806 3 is_stmt 0 discriminator 1
 7497 0026 FB68     		ldr	r3, [r7, #12]
 7498 0028 7E4A     		ldr	r2, .L589+8
 7499 002a 9342     		cmp	r3, r2
 7500 002c 40D0     		beq	.L361
 7501              		.loc 1 806 3 discriminator 2
 7502 002e FB68     		ldr	r3, [r7, #12]
 7503 0030 7D4A     		ldr	r2, .L589+12
 7504 0032 9342     		cmp	r3, r2
 7505 0034 3CD0     		beq	.L361
 7506              		.loc 1 806 3 discriminator 3
 7507 0036 FB68     		ldr	r3, [r7, #12]
 7508 0038 7C4A     		ldr	r2, .L589+16
 7509 003a 9342     		cmp	r3, r2
 7510 003c 38D0     		beq	.L361
 7511              		.loc 1 806 3 discriminator 4
 7512 003e FB68     		ldr	r3, [r7, #12]
 7513 0040 7B4A     		ldr	r2, .L589+20
 7514 0042 9342     		cmp	r3, r2
 7515 0044 34D0     		beq	.L361
 7516              		.loc 1 806 3 discriminator 5
 7517 0046 FB68     		ldr	r3, [r7, #12]
 7518 0048 7A4A     		ldr	r2, .L589+24
 7519 004a 9342     		cmp	r3, r2
 7520 004c 30D0     		beq	.L361
 7521              		.loc 1 806 3 discriminator 6
 7522 004e FB68     		ldr	r3, [r7, #12]
 7523 0050 794A     		ldr	r2, .L589+28
 7524 0052 9342     		cmp	r3, r2
 7525 0054 2CD0     		beq	.L361
ARM GAS  /tmp/ccRTEIeG.s 			page 157


 7526              		.loc 1 806 3 discriminator 7
 7527 0056 FB68     		ldr	r3, [r7, #12]
 7528 0058 784A     		ldr	r2, .L589+32
 7529 005a 9342     		cmp	r3, r2
 7530 005c 28D0     		beq	.L361
 7531              		.loc 1 806 3 discriminator 8
 7532 005e FB68     		ldr	r3, [r7, #12]
 7533 0060 774A     		ldr	r2, .L589+36
 7534 0062 9342     		cmp	r3, r2
 7535 0064 24D0     		beq	.L361
 7536              		.loc 1 806 3 discriminator 9
 7537 0066 FB68     		ldr	r3, [r7, #12]
 7538 0068 764A     		ldr	r2, .L589+40
 7539 006a 9342     		cmp	r3, r2
 7540 006c 20D0     		beq	.L361
 7541              		.loc 1 806 3 discriminator 10
 7542 006e FB68     		ldr	r3, [r7, #12]
 7543 0070 754A     		ldr	r2, .L589+44
 7544 0072 9342     		cmp	r3, r2
 7545 0074 1CD0     		beq	.L361
 7546              		.loc 1 806 3 discriminator 11
 7547 0076 FB68     		ldr	r3, [r7, #12]
 7548 0078 744A     		ldr	r2, .L589+48
 7549 007a 9342     		cmp	r3, r2
 7550 007c 18D0     		beq	.L361
 7551              		.loc 1 806 3 discriminator 12
 7552 007e FB68     		ldr	r3, [r7, #12]
 7553 0080 734A     		ldr	r2, .L589+52
 7554 0082 9342     		cmp	r3, r2
 7555 0084 14D0     		beq	.L361
 7556              		.loc 1 806 3 discriminator 13
 7557 0086 FB68     		ldr	r3, [r7, #12]
 7558 0088 724A     		ldr	r2, .L589+56
 7559 008a 9342     		cmp	r3, r2
 7560 008c 10D0     		beq	.L361
 7561              		.loc 1 806 3 discriminator 14
 7562 008e FB68     		ldr	r3, [r7, #12]
 7563 0090 714A     		ldr	r2, .L589+60
 7564 0092 9342     		cmp	r3, r2
 7565 0094 0CD0     		beq	.L361
 7566              		.loc 1 806 3 discriminator 15
 7567 0096 FB68     		ldr	r3, [r7, #12]
 7568 0098 704A     		ldr	r2, .L589+64
 7569 009a 9342     		cmp	r3, r2
 7570 009c 08D0     		beq	.L361
 7571              		.loc 1 806 3 discriminator 16
 7572 009e FB68     		ldr	r3, [r7, #12]
 7573 00a0 6F4A     		ldr	r2, .L589+68
 7574 00a2 9342     		cmp	r3, r2
 7575 00a4 04D0     		beq	.L361
 7576              		.loc 1 806 3 discriminator 17
 7577 00a6 40F22631 		movw	r1, #806
 7578 00aa 5C48     		ldr	r0, .L589
 7579 00ac FFF7FEFF 		bl	assert_failed
 7580              	.L361:
 807:STM32Cube_FW_N6/Drivers/STM32N6xx_HAL_Driver/Src/stm32n6xx_hal_rif.c ****   assert_param(IS_RISAF_REGION(Region));
 7581              		.loc 1 807 3 is_stmt 1
ARM GAS  /tmp/ccRTEIeG.s 			page 158


 7582 00b0 BB68     		ldr	r3, [r7, #8]
 7583 00b2 002B     		cmp	r3, #0
 7584 00b4 2ED0     		beq	.L362
 7585              		.loc 1 807 3 is_stmt 0 discriminator 1
 7586 00b6 BB68     		ldr	r3, [r7, #8]
 7587 00b8 012B     		cmp	r3, #1
 7588 00ba 2BD0     		beq	.L362
 7589              		.loc 1 807 3 discriminator 2
 7590 00bc BB68     		ldr	r3, [r7, #8]
 7591 00be 022B     		cmp	r3, #2
 7592 00c0 28D0     		beq	.L362
 7593              		.loc 1 807 3 discriminator 3
 7594 00c2 BB68     		ldr	r3, [r7, #8]
 7595 00c4 032B     		cmp	r3, #3
 7596 00c6 25D0     		beq	.L362
 7597              		.loc 1 807 3 discriminator 4
 7598 00c8 BB68     		ldr	r3, [r7, #8]
 7599 00ca 042B     		cmp	r3, #4
 7600 00cc 22D0     		beq	.L362
 7601              		.loc 1 807 3 discriminator 5
 7602 00ce BB68     		ldr	r3, [r7, #8]
 7603 00d0 052B     		cmp	r3, #5
 7604 00d2 1FD0     		beq	.L362
 7605              		.loc 1 807 3 discriminator 6
 7606 00d4 BB68     		ldr	r3, [r7, #8]
 7607 00d6 062B     		cmp	r3, #6
 7608 00d8 1CD0     		beq	.L362
 7609              		.loc 1 807 3 discriminator 7
 7610 00da BB68     		ldr	r3, [r7, #8]
 7611 00dc 072B     		cmp	r3, #7
 7612 00de 19D0     		beq	.L362
 7613              		.loc 1 807 3 discriminator 8
 7614 00e0 BB68     		ldr	r3, [r7, #8]
 7615 00e2 082B     		cmp	r3, #8
 7616 00e4 16D0     		beq	.L362
 7617              		.loc 1 807 3 discriminator 9
 7618 00e6 BB68     		ldr	r3, [r7, #8]
 7619 00e8 092B     		cmp	r3, #9
 7620 00ea 13D0     		beq	.L362
 7621              		.loc 1 807 3 discriminator 10
 7622 00ec BB68     		ldr	r3, [r7, #8]
 7623 00ee 0A2B     		cmp	r3, #10
 7624 00f0 10D0     		beq	.L362
 7625              		.loc 1 807 3 discriminator 11
 7626 00f2 BB68     		ldr	r3, [r7, #8]
 7627 00f4 0B2B     		cmp	r3, #11
 7628 00f6 0DD0     		beq	.L362
 7629              		.loc 1 807 3 discriminator 12
 7630 00f8 BB68     		ldr	r3, [r7, #8]
 7631 00fa 0C2B     		cmp	r3, #12
 7632 00fc 0AD0     		beq	.L362
 7633              		.loc 1 807 3 discriminator 13
 7634 00fe BB68     		ldr	r3, [r7, #8]
 7635 0100 0D2B     		cmp	r3, #13
 7636 0102 07D0     		beq	.L362
 7637              		.loc 1 807 3 discriminator 14
 7638 0104 BB68     		ldr	r3, [r7, #8]
ARM GAS  /tmp/ccRTEIeG.s 			page 159


 7639 0106 0E2B     		cmp	r3, #14
 7640 0108 04D0     		beq	.L362
 7641              		.loc 1 807 3 discriminator 15
 7642 010a 40F22731 		movw	r1, #807
 7643 010e 4348     		ldr	r0, .L589
 7644 0110 FFF7FEFF 		bl	assert_failed
 7645              	.L362:
 808:STM32Cube_FW_N6/Drivers/STM32N6xx_HAL_Driver/Src/stm32n6xx_hal_rif.c ****   assert_param(IS_RISAF_MAX_REGION(RISAFx, Region));
 7646              		.loc 1 808 3 is_stmt 1
 7647 0114 FB68     		ldr	r3, [r7, #12]
 7648 0116 424A     		ldr	r2, .L589+4
 7649 0118 9342     		cmp	r3, r2
 7650 011a 06D1     		bne	.L363
 7651              		.loc 1 808 3 is_stmt 0 discriminator 1
 7652 011c BB68     		ldr	r3, [r7, #8]
 7653 011e 062B     		cmp	r3, #6
 7654 0120 94BF     		ite	ls
 7655 0122 0123     		movls	r3, #1
 7656 0124 0023     		movhi	r3, #0
 7657 0126 DBB2     		uxtb	r3, r3
 7658 0128 CEE0     		b	.L364
 7659              	.L363:
 7660              		.loc 1 808 3 discriminator 2
 7661 012a FB68     		ldr	r3, [r7, #12]
 7662 012c 3D4A     		ldr	r2, .L589+8
 7663 012e 9342     		cmp	r3, r2
 7664 0130 06D1     		bne	.L365
 7665              		.loc 1 808 3 discriminator 4
 7666 0132 BB68     		ldr	r3, [r7, #8]
 7667 0134 062B     		cmp	r3, #6
 7668 0136 94BF     		ite	ls
 7669 0138 0123     		movls	r3, #1
 7670 013a 0023     		movhi	r3, #0
 7671 013c DBB2     		uxtb	r3, r3
 7672 013e C3E0     		b	.L364
 7673              	.L365:
 7674              		.loc 1 808 3 discriminator 5
 7675 0140 FB68     		ldr	r3, [r7, #12]
 7676 0142 394A     		ldr	r2, .L589+12
 7677 0144 9342     		cmp	r3, r2
 7678 0146 06D1     		bne	.L367
 7679              		.loc 1 808 3 discriminator 7
 7680 0148 BB68     		ldr	r3, [r7, #8]
 7681 014a 062B     		cmp	r3, #6
 7682 014c 94BF     		ite	ls
 7683 014e 0123     		movls	r3, #1
 7684 0150 0023     		movhi	r3, #0
 7685 0152 DBB2     		uxtb	r3, r3
 7686 0154 B8E0     		b	.L364
 7687              	.L367:
 7688              		.loc 1 808 3 discriminator 8
 7689 0156 FB68     		ldr	r3, [r7, #12]
 7690 0158 344A     		ldr	r2, .L589+16
 7691 015a 9342     		cmp	r3, r2
 7692 015c 06D1     		bne	.L369
 7693              		.loc 1 808 3 discriminator 10
 7694 015e BB68     		ldr	r3, [r7, #8]
ARM GAS  /tmp/ccRTEIeG.s 			page 160


 7695 0160 0A2B     		cmp	r3, #10
 7696 0162 94BF     		ite	ls
 7697 0164 0123     		movls	r3, #1
 7698 0166 0023     		movhi	r3, #0
 7699 0168 DBB2     		uxtb	r3, r3
 7700 016a ADE0     		b	.L364
 7701              	.L369:
 7702              		.loc 1 808 3 discriminator 11
 7703 016c FB68     		ldr	r3, [r7, #12]
 7704 016e 304A     		ldr	r2, .L589+20
 7705 0170 9342     		cmp	r3, r2
 7706 0172 06D1     		bne	.L371
 7707              		.loc 1 808 3 discriminator 13
 7708 0174 BB68     		ldr	r3, [r7, #8]
 7709 0176 0A2B     		cmp	r3, #10
 7710 0178 94BF     		ite	ls
 7711 017a 0123     		movls	r3, #1
 7712 017c 0023     		movhi	r3, #0
 7713 017e DBB2     		uxtb	r3, r3
 7714 0180 A2E0     		b	.L364
 7715              	.L371:
 7716              		.loc 1 808 3 discriminator 14
 7717 0182 FB68     		ldr	r3, [r7, #12]
 7718 0184 2B4A     		ldr	r2, .L589+24
 7719 0186 9342     		cmp	r3, r2
 7720 0188 06D1     		bne	.L373
 7721              		.loc 1 808 3 discriminator 16
 7722 018a BB68     		ldr	r3, [r7, #8]
 7723 018c 0A2B     		cmp	r3, #10
 7724 018e 94BF     		ite	ls
 7725 0190 0123     		movls	r3, #1
 7726 0192 0023     		movhi	r3, #0
 7727 0194 DBB2     		uxtb	r3, r3
 7728 0196 97E0     		b	.L364
 7729              	.L373:
 7730              		.loc 1 808 3 discriminator 17
 7731 0198 FB68     		ldr	r3, [r7, #12]
 7732 019a 274A     		ldr	r2, .L589+28
 7733 019c 9342     		cmp	r3, r2
 7734 019e 06D1     		bne	.L375
 7735              		.loc 1 808 3 discriminator 19
 7736 01a0 BB68     		ldr	r3, [r7, #8]
 7737 01a2 062B     		cmp	r3, #6
 7738 01a4 94BF     		ite	ls
 7739 01a6 0123     		movls	r3, #1
 7740 01a8 0023     		movhi	r3, #0
 7741 01aa DBB2     		uxtb	r3, r3
 7742 01ac 8CE0     		b	.L364
 7743              	.L375:
 7744              		.loc 1 808 3 discriminator 20
 7745 01ae FB68     		ldr	r3, [r7, #12]
 7746 01b0 224A     		ldr	r2, .L589+32
 7747 01b2 9342     		cmp	r3, r2
 7748 01b4 06D1     		bne	.L377
 7749              		.loc 1 808 3 discriminator 22
 7750 01b6 BB68     		ldr	r3, [r7, #8]
 7751 01b8 062B     		cmp	r3, #6
ARM GAS  /tmp/ccRTEIeG.s 			page 161


 7752 01ba 94BF     		ite	ls
 7753 01bc 0123     		movls	r3, #1
 7754 01be 0023     		movhi	r3, #0
 7755 01c0 DBB2     		uxtb	r3, r3
 7756 01c2 81E0     		b	.L364
 7757              	.L377:
 7758              		.loc 1 808 3 discriminator 23
 7759 01c4 FB68     		ldr	r3, [r7, #12]
 7760 01c6 1E4A     		ldr	r2, .L589+36
 7761 01c8 9342     		cmp	r3, r2
 7762 01ca 06D1     		bne	.L379
 7763              		.loc 1 808 3 discriminator 25
 7764 01cc BB68     		ldr	r3, [r7, #8]
 7765 01ce 062B     		cmp	r3, #6
 7766 01d0 94BF     		ite	ls
 7767 01d2 0123     		movls	r3, #1
 7768 01d4 0023     		movhi	r3, #0
 7769 01d6 DBB2     		uxtb	r3, r3
 7770 01d8 76E0     		b	.L364
 7771              	.L379:
 7772              		.loc 1 808 3 discriminator 26
 7773 01da FB68     		ldr	r3, [r7, #12]
 7774 01dc 194A     		ldr	r2, .L589+40
 7775 01de 9342     		cmp	r3, r2
 7776 01e0 06D1     		bne	.L381
 7777              		.loc 1 808 3 discriminator 28
 7778 01e2 BB68     		ldr	r3, [r7, #8]
 7779 01e4 062B     		cmp	r3, #6
 7780 01e6 94BF     		ite	ls
 7781 01e8 0123     		movls	r3, #1
 7782 01ea 0023     		movhi	r3, #0
 7783 01ec DBB2     		uxtb	r3, r3
 7784 01ee 6BE0     		b	.L364
 7785              	.L381:
 7786              		.loc 1 808 3 discriminator 29
 7787 01f0 FB68     		ldr	r3, [r7, #12]
 7788 01f2 154A     		ldr	r2, .L589+44
 7789 01f4 9342     		cmp	r3, r2
 7790 01f6 06D1     		bne	.L383
 7791              		.loc 1 808 3 discriminator 31
 7792 01f8 BB68     		ldr	r3, [r7, #8]
 7793 01fa 062B     		cmp	r3, #6
 7794 01fc 94BF     		ite	ls
 7795 01fe 0123     		movls	r3, #1
 7796 0200 0023     		movhi	r3, #0
 7797 0202 DBB2     		uxtb	r3, r3
 7798 0204 60E0     		b	.L364
 7799              	.L383:
 7800              		.loc 1 808 3 discriminator 32
 7801 0206 FB68     		ldr	r3, [r7, #12]
 7802 0208 104A     		ldr	r2, .L589+48
 7803 020a 9342     		cmp	r3, r2
 7804 020c 2AD1     		bne	.L385
 7805              		.loc 1 808 3 discriminator 34
 7806 020e BB68     		ldr	r3, [r7, #8]
 7807 0210 062B     		cmp	r3, #6
 7808 0212 94BF     		ite	ls
ARM GAS  /tmp/ccRTEIeG.s 			page 162


 7809 0214 0123     		movls	r3, #1
 7810 0216 0023     		movhi	r3, #0
 7811 0218 DBB2     		uxtb	r3, r3
 7812 021a 55E0     		b	.L364
 7813              	.L590:
 7814              		.align	2
 7815              	.L589:
 7816 021c 00000000 		.word	.LC0
 7817 0220 00600254 		.word	1409441792
 7818 0224 00700254 		.word	1409445888
 7819 0228 00800254 		.word	1409449984
 7820 022c 00900254 		.word	1409454080
 7821 0230 00A00254 		.word	1409458176
 7822 0234 00B00254 		.word	1409462272
 7823 0238 00C00254 		.word	1409466368
 7824 023c 00D00254 		.word	1409470464
 7825 0240 00E00254 		.word	1409474560
 7826 0244 00000354 		.word	1409482752
 7827 0248 00100354 		.word	1409486848
 7828 024c 00200354 		.word	1409490944
 7829 0250 00300354 		.word	1409495040
 7830 0254 00400354 		.word	1409499136
 7831 0258 00500354 		.word	1409503232
 7832 025c 00600354 		.word	1409507328
 7833 0260 00700354 		.word	1409511424
 7834              	.L385:
 7835              		.loc 1 808 3 discriminator 35
 7836 0264 FB68     		ldr	r3, [r7, #12]
 7837 0266 904A     		ldr	r2, .L591
 7838 0268 9342     		cmp	r3, r2
 7839 026a 06D1     		bne	.L387
 7840              		.loc 1 808 3 discriminator 37
 7841 026c BB68     		ldr	r3, [r7, #8]
 7842 026e 062B     		cmp	r3, #6
 7843 0270 94BF     		ite	ls
 7844 0272 0123     		movls	r3, #1
 7845 0274 0023     		movhi	r3, #0
 7846 0276 DBB2     		uxtb	r3, r3
 7847 0278 26E0     		b	.L364
 7848              	.L387:
 7849              		.loc 1 808 3 discriminator 38
 7850 027a FB68     		ldr	r3, [r7, #12]
 7851 027c 8B4A     		ldr	r2, .L591+4
 7852 027e 9342     		cmp	r3, r2
 7853 0280 06D1     		bne	.L389
 7854              		.loc 1 808 3 discriminator 40
 7855 0282 BB68     		ldr	r3, [r7, #8]
 7856 0284 012B     		cmp	r3, #1
 7857 0286 94BF     		ite	ls
 7858 0288 0123     		movls	r3, #1
 7859 028a 0023     		movhi	r3, #0
 7860 028c DBB2     		uxtb	r3, r3
 7861 028e 1BE0     		b	.L364
 7862              	.L389:
 7863              		.loc 1 808 3 discriminator 41
 7864 0290 FB68     		ldr	r3, [r7, #12]
 7865 0292 874A     		ldr	r2, .L591+8
ARM GAS  /tmp/ccRTEIeG.s 			page 163


 7866 0294 9342     		cmp	r3, r2
 7867 0296 06D1     		bne	.L391
 7868              		.loc 1 808 3 discriminator 43
 7869 0298 BB68     		ldr	r3, [r7, #8]
 7870 029a 062B     		cmp	r3, #6
 7871 029c 94BF     		ite	ls
 7872 029e 0123     		movls	r3, #1
 7873 02a0 0023     		movhi	r3, #0
 7874 02a2 DBB2     		uxtb	r3, r3
 7875 02a4 10E0     		b	.L364
 7876              	.L391:
 7877              		.loc 1 808 3 discriminator 44
 7878 02a6 FB68     		ldr	r3, [r7, #12]
 7879 02a8 824A     		ldr	r2, .L591+12
 7880 02aa 9342     		cmp	r3, r2
 7881 02ac 06D1     		bne	.L393
 7882              		.loc 1 808 3 discriminator 46
 7883 02ae BB68     		ldr	r3, [r7, #8]
 7884 02b0 062B     		cmp	r3, #6
 7885 02b2 94BF     		ite	ls
 7886 02b4 0123     		movls	r3, #1
 7887 02b6 0023     		movhi	r3, #0
 7888 02b8 DBB2     		uxtb	r3, r3
 7889 02ba 05E0     		b	.L364
 7890              	.L393:
 7891              		.loc 1 808 3 discriminator 47
 7892 02bc BB68     		ldr	r3, [r7, #8]
 7893 02be 022B     		cmp	r3, #2
 7894 02c0 94BF     		ite	ls
 7895 02c2 0123     		movls	r3, #1
 7896 02c4 0023     		movhi	r3, #0
 7897 02c6 DBB2     		uxtb	r3, r3
 7898              	.L364:
 7899              		.loc 1 808 3 discriminator 64
 7900 02c8 002B     		cmp	r3, #0
 7901 02ca 04D1     		bne	.L395
 7902              		.loc 1 808 3 discriminator 65
 7903 02cc 4FF44A71 		mov	r1, #808
 7904 02d0 7948     		ldr	r0, .L591+16
 7905 02d2 FFF7FEFF 		bl	assert_failed
 7906              	.L395:
 809:STM32Cube_FW_N6/Drivers/STM32N6xx_HAL_Driver/Src/stm32n6xx_hal_rif.c ****   assert_param(IS_RISAF_SUBREGION(SubRegion));
 7907              		.loc 1 809 3 is_stmt 1
 7908 02d6 7B68     		ldr	r3, [r7, #4]
 7909 02d8 002B     		cmp	r3, #0
 7910 02da 07D0     		beq	.L396
 7911              		.loc 1 809 3 is_stmt 0 discriminator 1
 7912 02dc 7B68     		ldr	r3, [r7, #4]
 7913 02de 012B     		cmp	r3, #1
 7914 02e0 04D0     		beq	.L396
 7915              		.loc 1 809 3 discriminator 2
 7916 02e2 40F22931 		movw	r1, #809
 7917 02e6 7448     		ldr	r0, .L591+16
 7918 02e8 FFF7FEFF 		bl	assert_failed
 7919              	.L396:
 810:STM32Cube_FW_N6/Drivers/STM32N6xx_HAL_Driver/Src/stm32n6xx_hal_rif.c ****   assert_param(IS_RISAF_FILTERING(pConfig->Filtering));
 7920              		.loc 1 810 3 is_stmt 1
ARM GAS  /tmp/ccRTEIeG.s 			page 164


 7921 02ec 3B68     		ldr	r3, [r7]
 7922 02ee 1B68     		ldr	r3, [r3]
 7923 02f0 002B     		cmp	r3, #0
 7924 02f2 08D0     		beq	.L397
 7925              		.loc 1 810 3 is_stmt 0 discriminator 1
 7926 02f4 3B68     		ldr	r3, [r7]
 7927 02f6 1B68     		ldr	r3, [r3]
 7928 02f8 012B     		cmp	r3, #1
 7929 02fa 04D0     		beq	.L397
 7930              		.loc 1 810 3 discriminator 2
 7931 02fc 40F22A31 		movw	r1, #810
 7932 0300 6D48     		ldr	r0, .L591+16
 7933 0302 FFF7FEFF 		bl	assert_failed
 7934              	.L397:
 811:STM32Cube_FW_N6/Drivers/STM32N6xx_HAL_Driver/Src/stm32n6xx_hal_rif.c ****   assert_param(IS_RIF_LOCK_STATE(pConfig->Lock));
 7935              		.loc 1 811 3 is_stmt 1
 7936 0306 3B68     		ldr	r3, [r7]
 7937 0308 1B69     		ldr	r3, [r3, #16]
 7938 030a 002B     		cmp	r3, #0
 7939 030c 08D0     		beq	.L398
 7940              		.loc 1 811 3 is_stmt 0 discriminator 1
 7941 030e 3B68     		ldr	r3, [r7]
 7942 0310 1B69     		ldr	r3, [r3, #16]
 7943 0312 012B     		cmp	r3, #1
 7944 0314 04D0     		beq	.L398
 7945              		.loc 1 811 3 discriminator 2
 7946 0316 40F22B31 		movw	r1, #811
 7947 031a 6748     		ldr	r0, .L591+16
 7948 031c FFF7FEFF 		bl	assert_failed
 7949              	.L398:
 812:STM32Cube_FW_N6/Drivers/STM32N6xx_HAL_Driver/Src/stm32n6xx_hal_rif.c **** 
 813:STM32Cube_FW_N6/Drivers/STM32N6xx_HAL_Driver/Src/stm32n6xx_hal_rif.c ****   /* Convert mask into bit position */
 814:STM32Cube_FW_N6/Drivers/STM32N6xx_HAL_Driver/Src/stm32n6xx_hal_rif.c ****   cid = POSITION_VAL(pConfig->CID);
 7950              		.loc 1 814 9 is_stmt 1
 7951 0320 3B68     		ldr	r3, [r7]
 7952 0322 5B68     		ldr	r3, [r3, #4]
 7953 0324 7B61     		str	r3, [r7, #20]
 7954              	.LBB30:
 7955              	.LBB31:
 380:STM32Cube_FW_N6/Drivers/CMSIS/Include/cmsis_gcc.h **** #else
 7956              		.loc 2 380 4
 7957 0326 7B69     		ldr	r3, [r7, #20]
 7958              		.syntax unified
 7959              	@ 380 "STM32Cube_FW_N6/Drivers/CMSIS/Include/cmsis_gcc.h" 1
 7960 0328 93FAA3F3 		rbit r3, r3
 7961              	@ 0 "" 2
 7962              		.thumb
 7963              		.syntax unified
 7964 032c BB61     		str	r3, [r7, #24]
 393:STM32Cube_FW_N6/Drivers/CMSIS/Include/cmsis_gcc.h **** }
 7965              		.loc 2 393 10
 7966 032e BB69     		ldr	r3, [r7, #24]
 7967 0330 3B61     		str	r3, [r7, #16]
 7968              	.LBE31:
 7969              	.LBE30:
 7970              	.LBB32:
 7971              	.LBB33:
ARM GAS  /tmp/ccRTEIeG.s 			page 165


 414:STM32Cube_FW_N6/Drivers/CMSIS/Include/cmsis_gcc.h ****   {
 7972              		.loc 2 414 6
 7973 0332 3B69     		ldr	r3, [r7, #16]
 7974 0334 002B     		cmp	r3, #0
 7975 0336 01D1     		bne	.L400
 416:STM32Cube_FW_N6/Drivers/CMSIS/Include/cmsis_gcc.h ****   }
 7976              		.loc 2 416 12
 7977 0338 2023     		movs	r3, #32
 7978 033a 03E0     		b	.L401
 7979              	.L400:
 7980              		.loc 2 418 10
 7981 033c 3B69     		ldr	r3, [r7, #16]
 7982 033e B3FA83F3 		clz	r3, r3
 7983              		.loc 2 418 10 is_stmt 0 discriminator 1
 7984 0342 DBB2     		uxtb	r3, r3
 7985              	.L401:
 7986              	.LBE33:
 7987              	.LBE32:
 7988              		.loc 1 814 7 is_stmt 1 discriminator 2
 7989 0344 FB61     		str	r3, [r7, #28]
 815:STM32Cube_FW_N6/Drivers/STM32N6xx_HAL_Driver/Src/stm32n6xx_hal_rif.c **** 
 816:STM32Cube_FW_N6/Drivers/STM32N6xx_HAL_Driver/Src/stm32n6xx_hal_rif.c ****   if (SubRegion == RISAF_SUBREGION_A)
 7990              		.loc 1 816 6
 7991 0346 7B68     		ldr	r3, [r7, #4]
 7992 0348 002B     		cmp	r3, #0
 7993 034a 40F09C83 		bne	.L402
 817:STM32Cube_FW_N6/Drivers/STM32N6xx_HAL_Driver/Src/stm32n6xx_hal_rif.c ****   {
 818:STM32Cube_FW_N6/Drivers/STM32N6xx_HAL_Driver/Src/stm32n6xx_hal_rif.c ****     if (pConfig->Filtering == RISAF_FILTER_DISABLE)
 7994              		.loc 1 818 16
 7995 034e 3B68     		ldr	r3, [r7]
 7996 0350 1B68     		ldr	r3, [r3]
 7997              		.loc 1 818 8
 7998 0352 002B     		cmp	r3, #0
 7999 0354 1FD1     		bne	.L403
 819:STM32Cube_FW_N6/Drivers/STM32N6xx_HAL_Driver/Src/stm32n6xx_hal_rif.c ****     {
 820:STM32Cube_FW_N6/Drivers/STM32N6xx_HAL_Driver/Src/stm32n6xx_hal_rif.c ****       RISAFx->REG[Region].ACFGR &= (~(RISAF_FILTER_ENABLE | RISAF_REGx_zCFGR_RLOCK));
 8000              		.loc 1 820 26
 8001 0356 FA68     		ldr	r2, [r7, #12]
 8002 0358 BB68     		ldr	r3, [r7, #8]
 8003 035a 9B01     		lsls	r3, r3, #6
 8004 035c 1344     		add	r3, r3, r2
 8005 035e 5033     		adds	r3, r3, #80
 8006 0360 1B68     		ldr	r3, [r3]
 8007              		.loc 1 820 33
 8008 0362 23F00302 		bic	r2, r3, #3
 8009 0366 F968     		ldr	r1, [r7, #12]
 8010 0368 BB68     		ldr	r3, [r7, #8]
 8011 036a 9B01     		lsls	r3, r3, #6
 8012 036c 0B44     		add	r3, r3, r1
 8013 036e 5033     		adds	r3, r3, #80
 8014 0370 1A60     		str	r2, [r3]
 821:STM32Cube_FW_N6/Drivers/STM32N6xx_HAL_Driver/Src/stm32n6xx_hal_rif.c ****       RISAFx->REG[Region].ACFGR |= (pConfig->Lock << RISAF_REGx_zCFGR_RLOCK_Pos);
 8015              		.loc 1 821 26
 8016 0372 FA68     		ldr	r2, [r7, #12]
 8017 0374 BB68     		ldr	r3, [r7, #8]
 8018 0376 9B01     		lsls	r3, r3, #6
 8019 0378 1344     		add	r3, r3, r2
ARM GAS  /tmp/ccRTEIeG.s 			page 166


 8020 037a 5033     		adds	r3, r3, #80
 8021 037c 1A68     		ldr	r2, [r3]
 8022              		.loc 1 821 44
 8023 037e 3B68     		ldr	r3, [r7]
 8024 0380 1B69     		ldr	r3, [r3, #16]
 8025              		.loc 1 821 51
 8026 0382 5B00     		lsls	r3, r3, #1
 8027              		.loc 1 821 33
 8028 0384 1A43     		orrs	r2, r2, r3
 8029 0386 F968     		ldr	r1, [r7, #12]
 8030 0388 BB68     		ldr	r3, [r7, #8]
 8031 038a 9B01     		lsls	r3, r3, #6
 8032 038c 0B44     		add	r3, r3, r1
 8033 038e 5033     		adds	r3, r3, #80
 8034 0390 1A60     		str	r2, [r3]
 822:STM32Cube_FW_N6/Drivers/STM32N6xx_HAL_Driver/Src/stm32n6xx_hal_rif.c ****     }
 823:STM32Cube_FW_N6/Drivers/STM32N6xx_HAL_Driver/Src/stm32n6xx_hal_rif.c ****     else
 824:STM32Cube_FW_N6/Drivers/STM32N6xx_HAL_Driver/Src/stm32n6xx_hal_rif.c ****     {
 825:STM32Cube_FW_N6/Drivers/STM32N6xx_HAL_Driver/Src/stm32n6xx_hal_rif.c ****       /* Check the parameters */
 826:STM32Cube_FW_N6/Drivers/STM32N6xx_HAL_Driver/Src/stm32n6xx_hal_rif.c ****       assert_param(IS_RISAF_READ_WRITE(pConfig->ReadWrite));
 827:STM32Cube_FW_N6/Drivers/STM32N6xx_HAL_Driver/Src/stm32n6xx_hal_rif.c ****       assert_param(IS_RIF_SEC_PRIV_ATTRIBUTE(pConfig->SecPriv));
 828:STM32Cube_FW_N6/Drivers/STM32N6xx_HAL_Driver/Src/stm32n6xx_hal_rif.c ****       assert_param(IS_RISAF_GRANULARITY(RISAFx, pConfig->StartAddress));
 829:STM32Cube_FW_N6/Drivers/STM32N6xx_HAL_Driver/Src/stm32n6xx_hal_rif.c ****       assert_param(IS_RISAF_LIMIT_ADDRESS_SPACE_SIZE(RISAFx, pConfig->StartAddress));
 830:STM32Cube_FW_N6/Drivers/STM32N6xx_HAL_Driver/Src/stm32n6xx_hal_rif.c ****       assert_param(IS_RISAF_GRANULARITY(RISAFx, (pConfig->EndAddress + 1U)));
 831:STM32Cube_FW_N6/Drivers/STM32N6xx_HAL_Driver/Src/stm32n6xx_hal_rif.c ****       assert_param(IS_RISAF_LIMIT_ADDRESS_SPACE_SIZE(RISAFx, pConfig->EndAddress));
 832:STM32Cube_FW_N6/Drivers/STM32N6xx_HAL_Driver/Src/stm32n6xx_hal_rif.c ****       assert_param(pConfig->StartAddress < pConfig->EndAddress);
 833:STM32Cube_FW_N6/Drivers/STM32N6xx_HAL_Driver/Src/stm32n6xx_hal_rif.c **** 
 834:STM32Cube_FW_N6/Drivers/STM32N6xx_HAL_Driver/Src/stm32n6xx_hal_rif.c ****       RISAFx->REG[Region].ASTARTR = pConfig->StartAddress;
 835:STM32Cube_FW_N6/Drivers/STM32N6xx_HAL_Driver/Src/stm32n6xx_hal_rif.c ****       RISAFx->REG[Region].AENDR = pConfig->EndAddress;
 836:STM32Cube_FW_N6/Drivers/STM32N6xx_HAL_Driver/Src/stm32n6xx_hal_rif.c ****       RISAFx->REG[Region].ACFGR = (pConfig->Filtering  | (pConfig->Lock << RISAF_REGx_zCFGR_RLOCK_P
 837:STM32Cube_FW_N6/Drivers/STM32N6xx_HAL_Driver/Src/stm32n6xx_hal_rif.c ****                                    | (cid << RISAF_REGx_zCFGR_SRCID_Pos) | (pConfig->SecPriv << RIS
 838:STM32Cube_FW_N6/Drivers/STM32N6xx_HAL_Driver/Src/stm32n6xx_hal_rif.c ****                                    | (pConfig->ReadWrite));
 839:STM32Cube_FW_N6/Drivers/STM32N6xx_HAL_Driver/Src/stm32n6xx_hal_rif.c ****     }
 840:STM32Cube_FW_N6/Drivers/STM32N6xx_HAL_Driver/Src/stm32n6xx_hal_rif.c ****   }
 841:STM32Cube_FW_N6/Drivers/STM32N6xx_HAL_Driver/Src/stm32n6xx_hal_rif.c ****   else
 842:STM32Cube_FW_N6/Drivers/STM32N6xx_HAL_Driver/Src/stm32n6xx_hal_rif.c ****   {
 843:STM32Cube_FW_N6/Drivers/STM32N6xx_HAL_Driver/Src/stm32n6xx_hal_rif.c ****     if (pConfig->Filtering == RISAF_FILTER_DISABLE)
 844:STM32Cube_FW_N6/Drivers/STM32N6xx_HAL_Driver/Src/stm32n6xx_hal_rif.c ****     {
 845:STM32Cube_FW_N6/Drivers/STM32N6xx_HAL_Driver/Src/stm32n6xx_hal_rif.c ****       RISAFx->REG[Region].BCFGR &= (~(RISAF_FILTER_ENABLE | RISAF_REGx_zCFGR_RLOCK));
 846:STM32Cube_FW_N6/Drivers/STM32N6xx_HAL_Driver/Src/stm32n6xx_hal_rif.c ****       RISAFx->REG[Region].BCFGR |= (pConfig->Lock << RISAF_REGx_zCFGR_RLOCK_Pos);
 847:STM32Cube_FW_N6/Drivers/STM32N6xx_HAL_Driver/Src/stm32n6xx_hal_rif.c ****     }
 848:STM32Cube_FW_N6/Drivers/STM32N6xx_HAL_Driver/Src/stm32n6xx_hal_rif.c ****     else
 849:STM32Cube_FW_N6/Drivers/STM32N6xx_HAL_Driver/Src/stm32n6xx_hal_rif.c ****     {
 850:STM32Cube_FW_N6/Drivers/STM32N6xx_HAL_Driver/Src/stm32n6xx_hal_rif.c ****       /* Check the parameters */
 851:STM32Cube_FW_N6/Drivers/STM32N6xx_HAL_Driver/Src/stm32n6xx_hal_rif.c ****       assert_param(IS_RISAF_READ_WRITE(pConfig->ReadWrite));
 852:STM32Cube_FW_N6/Drivers/STM32N6xx_HAL_Driver/Src/stm32n6xx_hal_rif.c ****       assert_param(IS_RIF_SEC_PRIV_ATTRIBUTE(pConfig->SecPriv));
 853:STM32Cube_FW_N6/Drivers/STM32N6xx_HAL_Driver/Src/stm32n6xx_hal_rif.c ****       assert_param(IS_RISAF_GRANULARITY(RISAFx, pConfig->StartAddress));
 854:STM32Cube_FW_N6/Drivers/STM32N6xx_HAL_Driver/Src/stm32n6xx_hal_rif.c ****       assert_param(IS_RISAF_LIMIT_ADDRESS_SPACE_SIZE(RISAFx, pConfig->StartAddress));
 855:STM32Cube_FW_N6/Drivers/STM32N6xx_HAL_Driver/Src/stm32n6xx_hal_rif.c ****       assert_param(IS_RISAF_GRANULARITY(RISAFx, (pConfig->EndAddress + 1U)));
 856:STM32Cube_FW_N6/Drivers/STM32N6xx_HAL_Driver/Src/stm32n6xx_hal_rif.c ****       assert_param(IS_RISAF_LIMIT_ADDRESS_SPACE_SIZE(RISAFx, pConfig->EndAddress));
 857:STM32Cube_FW_N6/Drivers/STM32N6xx_HAL_Driver/Src/stm32n6xx_hal_rif.c ****       assert_param(pConfig->StartAddress < pConfig->EndAddress);
 858:STM32Cube_FW_N6/Drivers/STM32N6xx_HAL_Driver/Src/stm32n6xx_hal_rif.c **** 
 859:STM32Cube_FW_N6/Drivers/STM32N6xx_HAL_Driver/Src/stm32n6xx_hal_rif.c ****       RISAFx->REG[Region].BSTARTR = pConfig->StartAddress;
 860:STM32Cube_FW_N6/Drivers/STM32N6xx_HAL_Driver/Src/stm32n6xx_hal_rif.c ****       RISAFx->REG[Region].BENDR = pConfig->EndAddress;
 861:STM32Cube_FW_N6/Drivers/STM32N6xx_HAL_Driver/Src/stm32n6xx_hal_rif.c ****       RISAFx->REG[Region].BCFGR = (pConfig->Filtering  | (pConfig->Lock << RISAF_REGx_zCFGR_RLOCK_P
 862:STM32Cube_FW_N6/Drivers/STM32N6xx_HAL_Driver/Src/stm32n6xx_hal_rif.c ****                                    | (cid << RISAF_REGx_zCFGR_SRCID_Pos) | (pConfig->SecPriv << RIS
 863:STM32Cube_FW_N6/Drivers/STM32N6xx_HAL_Driver/Src/stm32n6xx_hal_rif.c ****                                    | (pConfig->ReadWrite));
ARM GAS  /tmp/ccRTEIeG.s 			page 167


 864:STM32Cube_FW_N6/Drivers/STM32N6xx_HAL_Driver/Src/stm32n6xx_hal_rif.c ****     }
 865:STM32Cube_FW_N6/Drivers/STM32N6xx_HAL_Driver/Src/stm32n6xx_hal_rif.c ****   }
 866:STM32Cube_FW_N6/Drivers/STM32N6xx_HAL_Driver/Src/stm32n6xx_hal_rif.c **** }
 8035              		.loc 1 866 1
 8036 0392 00F01CBF 		b	.L588
 8037              	.L403:
 826:STM32Cube_FW_N6/Drivers/STM32N6xx_HAL_Driver/Src/stm32n6xx_hal_rif.c ****       assert_param(IS_RIF_SEC_PRIV_ATTRIBUTE(pConfig->SecPriv));
 8038              		.loc 1 826 7
 8039 0396 3B68     		ldr	r3, [r7]
 8040 0398 DB68     		ldr	r3, [r3, #12]
 8041 039a 002B     		cmp	r3, #0
 8042 039c 0AD0     		beq	.L405
 826:STM32Cube_FW_N6/Drivers/STM32N6xx_HAL_Driver/Src/stm32n6xx_hal_rif.c ****       assert_param(IS_RIF_SEC_PRIV_ATTRIBUTE(pConfig->SecPriv));
 8043              		.loc 1 826 7 is_stmt 0 discriminator 1
 8044 039e 3B68     		ldr	r3, [r7]
 8045 03a0 DB68     		ldr	r3, [r3, #12]
 8046 03a2 23F44053 		bic	r3, r3, #12288
 8047 03a6 002B     		cmp	r3, #0
 8048 03a8 04D0     		beq	.L405
 826:STM32Cube_FW_N6/Drivers/STM32N6xx_HAL_Driver/Src/stm32n6xx_hal_rif.c ****       assert_param(IS_RIF_SEC_PRIV_ATTRIBUTE(pConfig->SecPriv));
 8049              		.loc 1 826 7 discriminator 2
 8050 03aa 40F23A31 		movw	r1, #826
 8051 03ae 4248     		ldr	r0, .L591+16
 8052 03b0 FFF7FEFF 		bl	assert_failed
 8053              	.L405:
 827:STM32Cube_FW_N6/Drivers/STM32N6xx_HAL_Driver/Src/stm32n6xx_hal_rif.c ****       assert_param(IS_RISAF_GRANULARITY(RISAFx, pConfig->StartAddress));
 8054              		.loc 1 827 7 is_stmt 1
 8055 03b4 3B68     		ldr	r3, [r7]
 8056 03b6 9B68     		ldr	r3, [r3, #8]
 8057 03b8 032B     		cmp	r3, #3
 8058 03ba 04D9     		bls	.L406
 827:STM32Cube_FW_N6/Drivers/STM32N6xx_HAL_Driver/Src/stm32n6xx_hal_rif.c ****       assert_param(IS_RISAF_GRANULARITY(RISAFx, pConfig->StartAddress));
 8059              		.loc 1 827 7 is_stmt 0 discriminator 1
 8060 03bc 40F23B31 		movw	r1, #827
 8061 03c0 3D48     		ldr	r0, .L591+16
 8062 03c2 FFF7FEFF 		bl	assert_failed
 8063              	.L406:
 828:STM32Cube_FW_N6/Drivers/STM32N6xx_HAL_Driver/Src/stm32n6xx_hal_rif.c ****       assert_param(IS_RISAF_LIMIT_ADDRESS_SPACE_SIZE(RISAFx, pConfig->StartAddress));
 8064              		.loc 1 828 7 is_stmt 1
 8065 03c6 FB68     		ldr	r3, [r7, #12]
 8066 03c8 3C4A     		ldr	r2, .L591+20
 8067 03ca 9342     		cmp	r3, r2
 8068 03cc 09D1     		bne	.L407
 828:STM32Cube_FW_N6/Drivers/STM32N6xx_HAL_Driver/Src/stm32n6xx_hal_rif.c ****       assert_param(IS_RISAF_LIMIT_ADDRESS_SPACE_SIZE(RISAFx, pConfig->StartAddress));
 8069              		.loc 1 828 7 is_stmt 0 discriminator 1
 8070 03ce 3B68     		ldr	r3, [r7]
 8071 03d0 5B69     		ldr	r3, [r3, #20]
 8072 03d2 C3F30B03 		ubfx	r3, r3, #0, #12
 8073 03d6 002B     		cmp	r3, #0
 8074 03d8 0CBF     		ite	eq
 8075 03da 0123     		moveq	r3, #1
 8076 03dc 0023     		movne	r3, #0
 8077 03de DBB2     		uxtb	r3, r3
 8078 03e0 D9E0     		b	.L408
 8079              	.L407:
 828:STM32Cube_FW_N6/Drivers/STM32N6xx_HAL_Driver/Src/stm32n6xx_hal_rif.c ****       assert_param(IS_RISAF_LIMIT_ADDRESS_SPACE_SIZE(RISAFx, pConfig->StartAddress));
 8080              		.loc 1 828 7 discriminator 2
ARM GAS  /tmp/ccRTEIeG.s 			page 168


 8081 03e2 FB68     		ldr	r3, [r7, #12]
 8082 03e4 364A     		ldr	r2, .L591+24
 8083 03e6 9342     		cmp	r3, r2
 8084 03e8 09D1     		bne	.L409
 828:STM32Cube_FW_N6/Drivers/STM32N6xx_HAL_Driver/Src/stm32n6xx_hal_rif.c ****       assert_param(IS_RISAF_LIMIT_ADDRESS_SPACE_SIZE(RISAFx, pConfig->StartAddress));
 8085              		.loc 1 828 7 discriminator 4
 8086 03ea 3B68     		ldr	r3, [r7]
 8087 03ec 5B69     		ldr	r3, [r3, #20]
 8088 03ee C3F30B03 		ubfx	r3, r3, #0, #12
 8089 03f2 002B     		cmp	r3, #0
 8090 03f4 0CBF     		ite	eq
 8091 03f6 0123     		moveq	r3, #1
 8092 03f8 0023     		movne	r3, #0
 8093 03fa DBB2     		uxtb	r3, r3
 8094 03fc CBE0     		b	.L408
 8095              	.L409:
 828:STM32Cube_FW_N6/Drivers/STM32N6xx_HAL_Driver/Src/stm32n6xx_hal_rif.c ****       assert_param(IS_RISAF_LIMIT_ADDRESS_SPACE_SIZE(RISAFx, pConfig->StartAddress));
 8096              		.loc 1 828 7 discriminator 5
 8097 03fe FB68     		ldr	r3, [r7, #12]
 8098 0400 304A     		ldr	r2, .L591+28
 8099 0402 9342     		cmp	r3, r2
 8100 0404 09D1     		bne	.L411
 828:STM32Cube_FW_N6/Drivers/STM32N6xx_HAL_Driver/Src/stm32n6xx_hal_rif.c ****       assert_param(IS_RISAF_LIMIT_ADDRESS_SPACE_SIZE(RISAFx, pConfig->StartAddress));
 8101              		.loc 1 828 7 discriminator 7
 8102 0406 3B68     		ldr	r3, [r7]
 8103 0408 5B69     		ldr	r3, [r3, #20]
 8104 040a C3F30B03 		ubfx	r3, r3, #0, #12
 8105 040e 002B     		cmp	r3, #0
 8106 0410 0CBF     		ite	eq
 8107 0412 0123     		moveq	r3, #1
 8108 0414 0023     		movne	r3, #0
 8109 0416 DBB2     		uxtb	r3, r3
 8110 0418 BDE0     		b	.L408
 8111              	.L411:
 828:STM32Cube_FW_N6/Drivers/STM32N6xx_HAL_Driver/Src/stm32n6xx_hal_rif.c ****       assert_param(IS_RISAF_LIMIT_ADDRESS_SPACE_SIZE(RISAFx, pConfig->StartAddress));
 8112              		.loc 1 828 7 discriminator 8
 8113 041a FB68     		ldr	r3, [r7, #12]
 8114 041c 2A4A     		ldr	r2, .L591+32
 8115 041e 9342     		cmp	r3, r2
 8116 0420 09D1     		bne	.L413
 828:STM32Cube_FW_N6/Drivers/STM32N6xx_HAL_Driver/Src/stm32n6xx_hal_rif.c ****       assert_param(IS_RISAF_LIMIT_ADDRESS_SPACE_SIZE(RISAFx, pConfig->StartAddress));
 8117              		.loc 1 828 7 discriminator 10
 8118 0422 3B68     		ldr	r3, [r7]
 8119 0424 5B69     		ldr	r3, [r3, #20]
 8120 0426 C3F30B03 		ubfx	r3, r3, #0, #12
 8121 042a 002B     		cmp	r3, #0
 8122 042c 0CBF     		ite	eq
 8123 042e 0123     		moveq	r3, #1
 8124 0430 0023     		movne	r3, #0
 8125 0432 DBB2     		uxtb	r3, r3
 8126 0434 AFE0     		b	.L408
 8127              	.L413:
 828:STM32Cube_FW_N6/Drivers/STM32N6xx_HAL_Driver/Src/stm32n6xx_hal_rif.c ****       assert_param(IS_RISAF_LIMIT_ADDRESS_SPACE_SIZE(RISAFx, pConfig->StartAddress));
 8128              		.loc 1 828 7 discriminator 11
 8129 0436 FB68     		ldr	r3, [r7, #12]
 8130 0438 244A     		ldr	r2, .L591+36
 8131 043a 9342     		cmp	r3, r2
ARM GAS  /tmp/ccRTEIeG.s 			page 169


 8132 043c 09D1     		bne	.L415
 828:STM32Cube_FW_N6/Drivers/STM32N6xx_HAL_Driver/Src/stm32n6xx_hal_rif.c ****       assert_param(IS_RISAF_LIMIT_ADDRESS_SPACE_SIZE(RISAFx, pConfig->StartAddress));
 8133              		.loc 1 828 7 discriminator 13
 8134 043e 3B68     		ldr	r3, [r7]
 8135 0440 5B69     		ldr	r3, [r3, #20]
 8136 0442 C3F30B03 		ubfx	r3, r3, #0, #12
 8137 0446 002B     		cmp	r3, #0
 8138 0448 0CBF     		ite	eq
 8139 044a 0123     		moveq	r3, #1
 8140 044c 0023     		movne	r3, #0
 8141 044e DBB2     		uxtb	r3, r3
 8142 0450 A1E0     		b	.L408
 8143              	.L415:
 828:STM32Cube_FW_N6/Drivers/STM32N6xx_HAL_Driver/Src/stm32n6xx_hal_rif.c ****       assert_param(IS_RISAF_LIMIT_ADDRESS_SPACE_SIZE(RISAFx, pConfig->StartAddress));
 8144              		.loc 1 828 7 discriminator 14
 8145 0452 FB68     		ldr	r3, [r7, #12]
 8146 0454 1E4A     		ldr	r2, .L591+40
 8147 0456 9342     		cmp	r3, r2
 8148 0458 09D1     		bne	.L417
 828:STM32Cube_FW_N6/Drivers/STM32N6xx_HAL_Driver/Src/stm32n6xx_hal_rif.c ****       assert_param(IS_RISAF_LIMIT_ADDRESS_SPACE_SIZE(RISAFx, pConfig->StartAddress));
 8149              		.loc 1 828 7 discriminator 16
 8150 045a 3B68     		ldr	r3, [r7]
 8151 045c 5B69     		ldr	r3, [r3, #20]
 8152 045e C3F30B03 		ubfx	r3, r3, #0, #12
 8153 0462 002B     		cmp	r3, #0
 8154 0464 0CBF     		ite	eq
 8155 0466 0123     		moveq	r3, #1
 8156 0468 0023     		movne	r3, #0
 8157 046a DBB2     		uxtb	r3, r3
 8158 046c 93E0     		b	.L408
 8159              	.L417:
 828:STM32Cube_FW_N6/Drivers/STM32N6xx_HAL_Driver/Src/stm32n6xx_hal_rif.c ****       assert_param(IS_RISAF_LIMIT_ADDRESS_SPACE_SIZE(RISAFx, pConfig->StartAddress));
 8160              		.loc 1 828 7 discriminator 17
 8161 046e FB68     		ldr	r3, [r7, #12]
 8162 0470 184A     		ldr	r2, .L591+44
 8163 0472 9342     		cmp	r3, r2
 8164 0474 09D1     		bne	.L419
 828:STM32Cube_FW_N6/Drivers/STM32N6xx_HAL_Driver/Src/stm32n6xx_hal_rif.c ****       assert_param(IS_RISAF_LIMIT_ADDRESS_SPACE_SIZE(RISAFx, pConfig->StartAddress));
 8165              		.loc 1 828 7 discriminator 19
 8166 0476 3B68     		ldr	r3, [r7]
 8167 0478 5B69     		ldr	r3, [r3, #20]
 8168 047a C3F30B03 		ubfx	r3, r3, #0, #12
 8169 047e 002B     		cmp	r3, #0
 8170 0480 0CBF     		ite	eq
 8171 0482 0123     		moveq	r3, #1
 8172 0484 0023     		movne	r3, #0
 8173 0486 DBB2     		uxtb	r3, r3
 8174 0488 85E0     		b	.L408
 8175              	.L419:
 828:STM32Cube_FW_N6/Drivers/STM32N6xx_HAL_Driver/Src/stm32n6xx_hal_rif.c ****       assert_param(IS_RISAF_LIMIT_ADDRESS_SPACE_SIZE(RISAFx, pConfig->StartAddress));
 8176              		.loc 1 828 7 discriminator 20
 8177 048a FB68     		ldr	r3, [r7, #12]
 8178 048c 124A     		ldr	r2, .L591+48
 8179 048e 9342     		cmp	r3, r2
 8180 0490 24D1     		bne	.L421
 828:STM32Cube_FW_N6/Drivers/STM32N6xx_HAL_Driver/Src/stm32n6xx_hal_rif.c ****       assert_param(IS_RISAF_LIMIT_ADDRESS_SPACE_SIZE(RISAFx, pConfig->StartAddress));
 8181              		.loc 1 828 7 discriminator 22
ARM GAS  /tmp/ccRTEIeG.s 			page 170


 8182 0492 3B68     		ldr	r3, [r7]
 8183 0494 5B69     		ldr	r3, [r3, #20]
 8184 0496 C3F30B03 		ubfx	r3, r3, #0, #12
 8185 049a 002B     		cmp	r3, #0
 8186 049c 0CBF     		ite	eq
 8187 049e 0123     		moveq	r3, #1
 8188 04a0 0023     		movne	r3, #0
 8189 04a2 DBB2     		uxtb	r3, r3
 8190 04a4 77E0     		b	.L408
 8191              	.L592:
 8192 04a6 00BF     		.align	2
 8193              	.L591:
 8194 04a8 00300354 		.word	1409495040
 8195 04ac 00400354 		.word	1409499136
 8196 04b0 00500354 		.word	1409503232
 8197 04b4 00600354 		.word	1409507328
 8198 04b8 00000000 		.word	.LC0
 8199 04bc 00600254 		.word	1409441792
 8200 04c0 00700254 		.word	1409445888
 8201 04c4 00800254 		.word	1409449984
 8202 04c8 00900254 		.word	1409454080
 8203 04cc 00A00254 		.word	1409458176
 8204 04d0 00B00254 		.word	1409462272
 8205 04d4 00C00254 		.word	1409466368
 8206 04d8 00D00254 		.word	1409470464
 8207              	.L421:
 828:STM32Cube_FW_N6/Drivers/STM32N6xx_HAL_Driver/Src/stm32n6xx_hal_rif.c ****       assert_param(IS_RISAF_LIMIT_ADDRESS_SPACE_SIZE(RISAFx, pConfig->StartAddress));
 8208              		.loc 1 828 7 discriminator 23
 8209 04dc FB68     		ldr	r3, [r7, #12]
 8210 04de 884A     		ldr	r2, .L593
 8211 04e0 9342     		cmp	r3, r2
 8212 04e2 09D1     		bne	.L423
 828:STM32Cube_FW_N6/Drivers/STM32N6xx_HAL_Driver/Src/stm32n6xx_hal_rif.c ****       assert_param(IS_RISAF_LIMIT_ADDRESS_SPACE_SIZE(RISAFx, pConfig->StartAddress));
 8213              		.loc 1 828 7 discriminator 25
 8214 04e4 3B68     		ldr	r3, [r7]
 8215 04e6 5B69     		ldr	r3, [r3, #20]
 8216 04e8 C3F30B03 		ubfx	r3, r3, #0, #12
 8217 04ec 002B     		cmp	r3, #0
 8218 04ee 0CBF     		ite	eq
 8219 04f0 0123     		moveq	r3, #1
 8220 04f2 0023     		movne	r3, #0
 8221 04f4 DBB2     		uxtb	r3, r3
 8222 04f6 4EE0     		b	.L408
 8223              	.L423:
 828:STM32Cube_FW_N6/Drivers/STM32N6xx_HAL_Driver/Src/stm32n6xx_hal_rif.c ****       assert_param(IS_RISAF_LIMIT_ADDRESS_SPACE_SIZE(RISAFx, pConfig->StartAddress));
 8224              		.loc 1 828 7 discriminator 26
 8225 04f8 FB68     		ldr	r3, [r7, #12]
 8226 04fa 824A     		ldr	r2, .L593+4
 8227 04fc 9342     		cmp	r3, r2
 8228 04fe 09D1     		bne	.L425
 828:STM32Cube_FW_N6/Drivers/STM32N6xx_HAL_Driver/Src/stm32n6xx_hal_rif.c ****       assert_param(IS_RISAF_LIMIT_ADDRESS_SPACE_SIZE(RISAFx, pConfig->StartAddress));
 8229              		.loc 1 828 7 discriminator 28
 8230 0500 3B68     		ldr	r3, [r7]
 8231 0502 5B69     		ldr	r3, [r3, #20]
 8232 0504 C3F30B03 		ubfx	r3, r3, #0, #12
 8233 0508 002B     		cmp	r3, #0
 8234 050a 0CBF     		ite	eq
ARM GAS  /tmp/ccRTEIeG.s 			page 171


 8235 050c 0123     		moveq	r3, #1
 8236 050e 0023     		movne	r3, #0
 8237 0510 DBB2     		uxtb	r3, r3
 8238 0512 40E0     		b	.L408
 8239              	.L425:
 828:STM32Cube_FW_N6/Drivers/STM32N6xx_HAL_Driver/Src/stm32n6xx_hal_rif.c ****       assert_param(IS_RISAF_LIMIT_ADDRESS_SPACE_SIZE(RISAFx, pConfig->StartAddress));
 8240              		.loc 1 828 7 discriminator 29
 8241 0514 FB68     		ldr	r3, [r7, #12]
 8242 0516 7C4A     		ldr	r2, .L593+8
 8243 0518 9342     		cmp	r3, r2
 8244 051a 09D1     		bne	.L427
 828:STM32Cube_FW_N6/Drivers/STM32N6xx_HAL_Driver/Src/stm32n6xx_hal_rif.c ****       assert_param(IS_RISAF_LIMIT_ADDRESS_SPACE_SIZE(RISAFx, pConfig->StartAddress));
 8245              		.loc 1 828 7 discriminator 31
 8246 051c 3B68     		ldr	r3, [r7]
 8247 051e 5B69     		ldr	r3, [r3, #20]
 8248 0520 C3F30B03 		ubfx	r3, r3, #0, #12
 8249 0524 002B     		cmp	r3, #0
 8250 0526 0CBF     		ite	eq
 8251 0528 0123     		moveq	r3, #1
 8252 052a 0023     		movne	r3, #0
 8253 052c DBB2     		uxtb	r3, r3
 8254 052e 32E0     		b	.L408
 8255              	.L427:
 828:STM32Cube_FW_N6/Drivers/STM32N6xx_HAL_Driver/Src/stm32n6xx_hal_rif.c ****       assert_param(IS_RISAF_LIMIT_ADDRESS_SPACE_SIZE(RISAFx, pConfig->StartAddress));
 8256              		.loc 1 828 7 discriminator 32
 8257 0530 FB68     		ldr	r3, [r7, #12]
 8258 0532 764A     		ldr	r2, .L593+12
 8259 0534 9342     		cmp	r3, r2
 8260 0536 09D1     		bne	.L429
 828:STM32Cube_FW_N6/Drivers/STM32N6xx_HAL_Driver/Src/stm32n6xx_hal_rif.c ****       assert_param(IS_RISAF_LIMIT_ADDRESS_SPACE_SIZE(RISAFx, pConfig->StartAddress));
 8261              		.loc 1 828 7 discriminator 34
 8262 0538 3B68     		ldr	r3, [r7]
 8263 053a 5B69     		ldr	r3, [r3, #20]
 8264 053c C3F30B03 		ubfx	r3, r3, #0, #12
 8265 0540 002B     		cmp	r3, #0
 8266 0542 0CBF     		ite	eq
 8267 0544 0123     		moveq	r3, #1
 8268 0546 0023     		movne	r3, #0
 8269 0548 DBB2     		uxtb	r3, r3
 8270 054a 24E0     		b	.L408
 8271              	.L429:
 828:STM32Cube_FW_N6/Drivers/STM32N6xx_HAL_Driver/Src/stm32n6xx_hal_rif.c ****       assert_param(IS_RISAF_LIMIT_ADDRESS_SPACE_SIZE(RISAFx, pConfig->StartAddress));
 8272              		.loc 1 828 7 discriminator 35
 8273 054c FB68     		ldr	r3, [r7, #12]
 8274 054e 704A     		ldr	r2, .L593+16
 8275 0550 9342     		cmp	r3, r2
 8276 0552 09D1     		bne	.L431
 828:STM32Cube_FW_N6/Drivers/STM32N6xx_HAL_Driver/Src/stm32n6xx_hal_rif.c ****       assert_param(IS_RISAF_LIMIT_ADDRESS_SPACE_SIZE(RISAFx, pConfig->StartAddress));
 8277              		.loc 1 828 7 discriminator 37
 8278 0554 3B68     		ldr	r3, [r7]
 8279 0556 5B69     		ldr	r3, [r3, #20]
 8280 0558 C3F30B03 		ubfx	r3, r3, #0, #12
 8281 055c 002B     		cmp	r3, #0
 8282 055e 0CBF     		ite	eq
 8283 0560 0123     		moveq	r3, #1
 8284 0562 0023     		movne	r3, #0
 8285 0564 DBB2     		uxtb	r3, r3
ARM GAS  /tmp/ccRTEIeG.s 			page 172


 8286 0566 16E0     		b	.L408
 8287              	.L431:
 828:STM32Cube_FW_N6/Drivers/STM32N6xx_HAL_Driver/Src/stm32n6xx_hal_rif.c ****       assert_param(IS_RISAF_LIMIT_ADDRESS_SPACE_SIZE(RISAFx, pConfig->StartAddress));
 8288              		.loc 1 828 7 discriminator 38
 8289 0568 FB68     		ldr	r3, [r7, #12]
 8290 056a 6A4A     		ldr	r2, .L593+20
 8291 056c 9342     		cmp	r3, r2
 8292 056e 09D1     		bne	.L433
 828:STM32Cube_FW_N6/Drivers/STM32N6xx_HAL_Driver/Src/stm32n6xx_hal_rif.c ****       assert_param(IS_RISAF_LIMIT_ADDRESS_SPACE_SIZE(RISAFx, pConfig->StartAddress));
 8293              		.loc 1 828 7 discriminator 40
 8294 0570 3B68     		ldr	r3, [r7]
 8295 0572 5B69     		ldr	r3, [r3, #20]
 8296 0574 03F00303 		and	r3, r3, #3
 8297 0578 002B     		cmp	r3, #0
 8298 057a 0CBF     		ite	eq
 8299 057c 0123     		moveq	r3, #1
 8300 057e 0023     		movne	r3, #0
 8301 0580 DBB2     		uxtb	r3, r3
 8302 0582 08E0     		b	.L408
 8303              	.L433:
 828:STM32Cube_FW_N6/Drivers/STM32N6xx_HAL_Driver/Src/stm32n6xx_hal_rif.c ****       assert_param(IS_RISAF_LIMIT_ADDRESS_SPACE_SIZE(RISAFx, pConfig->StartAddress));
 8304              		.loc 1 828 7 discriminator 41
 8305 0584 3B68     		ldr	r3, [r7]
 8306 0586 5B69     		ldr	r3, [r3, #20]
 8307 0588 C3F30803 		ubfx	r3, r3, #0, #9
 8308 058c 002B     		cmp	r3, #0
 8309 058e 0CBF     		ite	eq
 8310 0590 0123     		moveq	r3, #1
 8311 0592 0023     		movne	r3, #0
 8312 0594 DBB2     		uxtb	r3, r3
 8313              	.L408:
 828:STM32Cube_FW_N6/Drivers/STM32N6xx_HAL_Driver/Src/stm32n6xx_hal_rif.c ****       assert_param(IS_RISAF_LIMIT_ADDRESS_SPACE_SIZE(RISAFx, pConfig->StartAddress));
 8314              		.loc 1 828 7 discriminator 56
 8315 0596 002B     		cmp	r3, #0
 8316 0598 04D1     		bne	.L435
 828:STM32Cube_FW_N6/Drivers/STM32N6xx_HAL_Driver/Src/stm32n6xx_hal_rif.c ****       assert_param(IS_RISAF_LIMIT_ADDRESS_SPACE_SIZE(RISAFx, pConfig->StartAddress));
 8317              		.loc 1 828 7 discriminator 57
 8318 059a 4FF44F71 		mov	r1, #828
 8319 059e 5E48     		ldr	r0, .L593+24
 8320 05a0 FFF7FEFF 		bl	assert_failed
 8321              	.L435:
 829:STM32Cube_FW_N6/Drivers/STM32N6xx_HAL_Driver/Src/stm32n6xx_hal_rif.c ****       assert_param(IS_RISAF_GRANULARITY(RISAFx, (pConfig->EndAddress + 1U)));
 8322              		.loc 1 829 7 is_stmt 1
 8323 05a4 FB68     		ldr	r3, [r7, #12]
 8324 05a6 5D4A     		ldr	r2, .L593+28
 8325 05a8 9342     		cmp	r3, r2
 8326 05aa 05D1     		bne	.L436
 829:STM32Cube_FW_N6/Drivers/STM32N6xx_HAL_Driver/Src/stm32n6xx_hal_rif.c ****       assert_param(IS_RISAF_GRANULARITY(RISAFx, (pConfig->EndAddress + 1U)));
 8327              		.loc 1 829 7 is_stmt 0 discriminator 2
 8328 05ac 3B68     		ldr	r3, [r7]
 8329 05ae 5B69     		ldr	r3, [r3, #20]
 8330 05b0 B3F1804F 		cmp	r3, #1073741824
 8331 05b4 C0F08680 		bcc	.L437
 8332              	.L436:
 829:STM32Cube_FW_N6/Drivers/STM32N6xx_HAL_Driver/Src/stm32n6xx_hal_rif.c ****       assert_param(IS_RISAF_GRANULARITY(RISAFx, (pConfig->EndAddress + 1U)));
 8333              		.loc 1 829 7 discriminator 3
 8334 05b8 FB68     		ldr	r3, [r7, #12]
ARM GAS  /tmp/ccRTEIeG.s 			page 173


 8335 05ba 594A     		ldr	r2, .L593+32
 8336 05bc 9342     		cmp	r3, r2
 8337 05be 04D1     		bne	.L438
 829:STM32Cube_FW_N6/Drivers/STM32N6xx_HAL_Driver/Src/stm32n6xx_hal_rif.c ****       assert_param(IS_RISAF_GRANULARITY(RISAFx, (pConfig->EndAddress + 1U)));
 8338              		.loc 1 829 7 discriminator 5
 8339 05c0 3B68     		ldr	r3, [r7]
 8340 05c2 5B69     		ldr	r3, [r3, #20]
 8341 05c4 B3F5801F 		cmp	r3, #1048576
 8342 05c8 7CD3     		bcc	.L437
 8343              	.L438:
 829:STM32Cube_FW_N6/Drivers/STM32N6xx_HAL_Driver/Src/stm32n6xx_hal_rif.c ****       assert_param(IS_RISAF_GRANULARITY(RISAFx, (pConfig->EndAddress + 1U)));
 8344              		.loc 1 829 7 discriminator 6
 8345 05ca FB68     		ldr	r3, [r7, #12]
 8346 05cc 554A     		ldr	r2, .L593+36
 8347 05ce 9342     		cmp	r3, r2
 8348 05d0 04D1     		bne	.L439
 829:STM32Cube_FW_N6/Drivers/STM32N6xx_HAL_Driver/Src/stm32n6xx_hal_rif.c ****       assert_param(IS_RISAF_GRANULARITY(RISAFx, (pConfig->EndAddress + 1U)));
 8349              		.loc 1 829 7 discriminator 8
 8350 05d2 3B68     		ldr	r3, [r7]
 8351 05d4 5B69     		ldr	r3, [r3, #20]
 8352 05d6 B3F5801F 		cmp	r3, #1048576
 8353 05da 73D3     		bcc	.L437
 8354              	.L439:
 829:STM32Cube_FW_N6/Drivers/STM32N6xx_HAL_Driver/Src/stm32n6xx_hal_rif.c ****       assert_param(IS_RISAF_GRANULARITY(RISAFx, (pConfig->EndAddress + 1U)));
 8355              		.loc 1 829 7 discriminator 9
 8356 05dc FB68     		ldr	r3, [r7, #12]
 8357 05de 524A     		ldr	r2, .L593+40
 8358 05e0 9342     		cmp	r3, r2
 8359 05e2 6FD0     		beq	.L437
 829:STM32Cube_FW_N6/Drivers/STM32N6xx_HAL_Driver/Src/stm32n6xx_hal_rif.c ****       assert_param(IS_RISAF_GRANULARITY(RISAFx, (pConfig->EndAddress + 1U)));
 8360              		.loc 1 829 7 discriminator 10
 8361 05e4 FB68     		ldr	r3, [r7, #12]
 8362 05e6 514A     		ldr	r2, .L593+44
 8363 05e8 9342     		cmp	r3, r2
 8364 05ea 6BD0     		beq	.L437
 829:STM32Cube_FW_N6/Drivers/STM32N6xx_HAL_Driver/Src/stm32n6xx_hal_rif.c ****       assert_param(IS_RISAF_GRANULARITY(RISAFx, (pConfig->EndAddress + 1U)));
 8365              		.loc 1 829 7 discriminator 11
 8366 05ec FB68     		ldr	r3, [r7, #12]
 8367 05ee 504A     		ldr	r2, .L593+48
 8368 05f0 9342     		cmp	r3, r2
 8369 05f2 67D0     		beq	.L437
 829:STM32Cube_FW_N6/Drivers/STM32N6xx_HAL_Driver/Src/stm32n6xx_hal_rif.c ****       assert_param(IS_RISAF_GRANULARITY(RISAFx, (pConfig->EndAddress + 1U)));
 8370              		.loc 1 829 7 discriminator 12
 8371 05f4 FB68     		ldr	r3, [r7, #12]
 8372 05f6 4F4A     		ldr	r2, .L593+52
 8373 05f8 9342     		cmp	r3, r2
 8374 05fa 04D1     		bne	.L440
 829:STM32Cube_FW_N6/Drivers/STM32N6xx_HAL_Driver/Src/stm32n6xx_hal_rif.c ****       assert_param(IS_RISAF_GRANULARITY(RISAFx, (pConfig->EndAddress + 1U)));
 8375              		.loc 1 829 7 discriminator 14
 8376 05fc 3B68     		ldr	r3, [r7]
 8377 05fe 5B69     		ldr	r3, [r3, #20]
 8378 0600 B3F5002F 		cmp	r3, #524288
 8379 0604 5ED3     		bcc	.L437
 8380              	.L440:
 829:STM32Cube_FW_N6/Drivers/STM32N6xx_HAL_Driver/Src/stm32n6xx_hal_rif.c ****       assert_param(IS_RISAF_GRANULARITY(RISAFx, (pConfig->EndAddress + 1U)));
 8381              		.loc 1 829 7 discriminator 15
 8382 0606 FB68     		ldr	r3, [r7, #12]
ARM GAS  /tmp/ccRTEIeG.s 			page 174


 8383 0608 4B4A     		ldr	r2, .L593+56
 8384 060a 9342     		cmp	r3, r2
 8385 060c 04D1     		bne	.L441
 829:STM32Cube_FW_N6/Drivers/STM32N6xx_HAL_Driver/Src/stm32n6xx_hal_rif.c ****       assert_param(IS_RISAF_GRANULARITY(RISAFx, (pConfig->EndAddress + 1U)));
 8386              		.loc 1 829 7 discriminator 17
 8387 060e 3B68     		ldr	r3, [r7]
 8388 0610 5B69     		ldr	r3, [r3, #20]
 8389 0612 B3F5802F 		cmp	r3, #262144
 8390 0616 55D3     		bcc	.L437
 8391              	.L441:
 829:STM32Cube_FW_N6/Drivers/STM32N6xx_HAL_Driver/Src/stm32n6xx_hal_rif.c ****       assert_param(IS_RISAF_GRANULARITY(RISAFx, (pConfig->EndAddress + 1U)));
 8392              		.loc 1 829 7 discriminator 18
 8393 0618 FB68     		ldr	r3, [r7, #12]
 8394 061a 394A     		ldr	r2, .L593
 8395 061c 9342     		cmp	r3, r2
 8396 061e 04D1     		bne	.L442
 829:STM32Cube_FW_N6/Drivers/STM32N6xx_HAL_Driver/Src/stm32n6xx_hal_rif.c ****       assert_param(IS_RISAF_GRANULARITY(RISAFx, (pConfig->EndAddress + 1U)));
 8397              		.loc 1 829 7 discriminator 20
 8398 0620 3B68     		ldr	r3, [r7]
 8399 0622 5B69     		ldr	r3, [r3, #20]
 8400 0624 B3F5003F 		cmp	r3, #131072
 8401 0628 4CD3     		bcc	.L437
 8402              	.L442:
 829:STM32Cube_FW_N6/Drivers/STM32N6xx_HAL_Driver/Src/stm32n6xx_hal_rif.c ****       assert_param(IS_RISAF_GRANULARITY(RISAFx, (pConfig->EndAddress + 1U)));
 8403              		.loc 1 829 7 discriminator 21
 8404 062a FB68     		ldr	r3, [r7, #12]
 8405 062c 354A     		ldr	r2, .L593+4
 8406 062e 9342     		cmp	r3, r2
 8407 0630 04D1     		bne	.L443
 829:STM32Cube_FW_N6/Drivers/STM32N6xx_HAL_Driver/Src/stm32n6xx_hal_rif.c ****       assert_param(IS_RISAF_GRANULARITY(RISAFx, (pConfig->EndAddress + 1U)));
 8408              		.loc 1 829 7 discriminator 23
 8409 0632 3B68     		ldr	r3, [r7]
 8410 0634 5B69     		ldr	r3, [r3, #20]
 8411 0636 B3F1805F 		cmp	r3, #268435456
 8412 063a 43D3     		bcc	.L437
 8413              	.L443:
 829:STM32Cube_FW_N6/Drivers/STM32N6xx_HAL_Driver/Src/stm32n6xx_hal_rif.c ****       assert_param(IS_RISAF_GRANULARITY(RISAFx, (pConfig->EndAddress + 1U)));
 8414              		.loc 1 829 7 discriminator 24
 8415 063c FB68     		ldr	r3, [r7, #12]
 8416 063e 324A     		ldr	r2, .L593+8
 8417 0640 9342     		cmp	r3, r2
 8418 0642 04D1     		bne	.L444
 829:STM32Cube_FW_N6/Drivers/STM32N6xx_HAL_Driver/Src/stm32n6xx_hal_rif.c ****       assert_param(IS_RISAF_GRANULARITY(RISAFx, (pConfig->EndAddress + 1U)));
 8419              		.loc 1 829 7 discriminator 26
 8420 0644 3B68     		ldr	r3, [r7]
 8421 0646 5B69     		ldr	r3, [r3, #20]
 8422 0648 B3F1805F 		cmp	r3, #268435456
 8423 064c 3AD3     		bcc	.L437
 8424              	.L444:
 829:STM32Cube_FW_N6/Drivers/STM32N6xx_HAL_Driver/Src/stm32n6xx_hal_rif.c ****       assert_param(IS_RISAF_GRANULARITY(RISAFx, (pConfig->EndAddress + 1U)));
 8425              		.loc 1 829 7 discriminator 27
 8426 064e FB68     		ldr	r3, [r7, #12]
 8427 0650 2E4A     		ldr	r2, .L593+12
 8428 0652 9342     		cmp	r3, r2
 8429 0654 04D1     		bne	.L445
 829:STM32Cube_FW_N6/Drivers/STM32N6xx_HAL_Driver/Src/stm32n6xx_hal_rif.c ****       assert_param(IS_RISAF_GRANULARITY(RISAFx, (pConfig->EndAddress + 1U)));
 8430              		.loc 1 829 7 discriminator 29
ARM GAS  /tmp/ccRTEIeG.s 			page 175


 8431 0656 3B68     		ldr	r3, [r7]
 8432 0658 5B69     		ldr	r3, [r3, #20]
 8433 065a B3F1805F 		cmp	r3, #268435456
 8434 065e 31D3     		bcc	.L437
 8435              	.L445:
 829:STM32Cube_FW_N6/Drivers/STM32N6xx_HAL_Driver/Src/stm32n6xx_hal_rif.c ****       assert_param(IS_RISAF_GRANULARITY(RISAFx, (pConfig->EndAddress + 1U)));
 8436              		.loc 1 829 7 discriminator 30
 8437 0660 FB68     		ldr	r3, [r7, #12]
 8438 0662 2B4A     		ldr	r2, .L593+16
 8439 0664 9342     		cmp	r3, r2
 8440 0666 04D1     		bne	.L446
 829:STM32Cube_FW_N6/Drivers/STM32N6xx_HAL_Driver/Src/stm32n6xx_hal_rif.c ****       assert_param(IS_RISAF_GRANULARITY(RISAFx, (pConfig->EndAddress + 1U)));
 8441              		.loc 1 829 7 discriminator 32
 8442 0668 3B68     		ldr	r3, [r7]
 8443 066a 5B69     		ldr	r3, [r3, #20]
 8444 066c B3F1805F 		cmp	r3, #268435456
 8445 0670 28D3     		bcc	.L437
 8446              	.L446:
 829:STM32Cube_FW_N6/Drivers/STM32N6xx_HAL_Driver/Src/stm32n6xx_hal_rif.c ****       assert_param(IS_RISAF_GRANULARITY(RISAFx, (pConfig->EndAddress + 1U)));
 8447              		.loc 1 829 7 discriminator 33
 8448 0672 FB68     		ldr	r3, [r7, #12]
 8449 0674 274A     		ldr	r2, .L593+20
 8450 0676 9342     		cmp	r3, r2
 8451 0678 04D1     		bne	.L447
 829:STM32Cube_FW_N6/Drivers/STM32N6xx_HAL_Driver/Src/stm32n6xx_hal_rif.c ****       assert_param(IS_RISAF_GRANULARITY(RISAFx, (pConfig->EndAddress + 1U)));
 8452              		.loc 1 829 7 discriminator 35
 8453 067a 3B68     		ldr	r3, [r7]
 8454 067c 5B69     		ldr	r3, [r3, #20]
 8455 067e B3F5805F 		cmp	r3, #4096
 8456 0682 1FD3     		bcc	.L437
 8457              	.L447:
 829:STM32Cube_FW_N6/Drivers/STM32N6xx_HAL_Driver/Src/stm32n6xx_hal_rif.c ****       assert_param(IS_RISAF_GRANULARITY(RISAFx, (pConfig->EndAddress + 1U)));
 8458              		.loc 1 829 7 discriminator 36
 8459 0684 FB68     		ldr	r3, [r7, #12]
 8460 0686 2D4A     		ldr	r2, .L593+60
 8461 0688 9342     		cmp	r3, r2
 8462 068a 04D1     		bne	.L448
 829:STM32Cube_FW_N6/Drivers/STM32N6xx_HAL_Driver/Src/stm32n6xx_hal_rif.c ****       assert_param(IS_RISAF_GRANULARITY(RISAFx, (pConfig->EndAddress + 1U)));
 8463              		.loc 1 829 7 discriminator 38
 8464 068c 3B68     		ldr	r3, [r7]
 8465 068e 5B69     		ldr	r3, [r3, #20]
 8466 0690 B3F5005F 		cmp	r3, #8192
 8467 0694 16D3     		bcc	.L437
 8468              	.L448:
 829:STM32Cube_FW_N6/Drivers/STM32N6xx_HAL_Driver/Src/stm32n6xx_hal_rif.c ****       assert_param(IS_RISAF_GRANULARITY(RISAFx, (pConfig->EndAddress + 1U)));
 8469              		.loc 1 829 7 discriminator 39
 8470 0696 FB68     		ldr	r3, [r7, #12]
 8471 0698 294A     		ldr	r2, .L593+64
 8472 069a 9342     		cmp	r3, r2
 8473 069c 04D1     		bne	.L449
 829:STM32Cube_FW_N6/Drivers/STM32N6xx_HAL_Driver/Src/stm32n6xx_hal_rif.c ****       assert_param(IS_RISAF_GRANULARITY(RISAFx, (pConfig->EndAddress + 1U)));
 8474              		.loc 1 829 7 discriminator 41
 8475 069e 3B68     		ldr	r3, [r7]
 8476 06a0 5B69     		ldr	r3, [r3, #20]
 8477 06a2 B3F5005F 		cmp	r3, #8192
 8478 06a6 0DD3     		bcc	.L437
 8479              	.L449:
ARM GAS  /tmp/ccRTEIeG.s 			page 176


 829:STM32Cube_FW_N6/Drivers/STM32N6xx_HAL_Driver/Src/stm32n6xx_hal_rif.c ****       assert_param(IS_RISAF_GRANULARITY(RISAFx, (pConfig->EndAddress + 1U)));
 8480              		.loc 1 829 7 discriminator 42
 8481 06a8 FB68     		ldr	r3, [r7, #12]
 8482 06aa 264A     		ldr	r2, .L593+68
 8483 06ac 9342     		cmp	r3, r2
 8484 06ae 04D1     		bne	.L450
 829:STM32Cube_FW_N6/Drivers/STM32N6xx_HAL_Driver/Src/stm32n6xx_hal_rif.c ****       assert_param(IS_RISAF_GRANULARITY(RISAFx, (pConfig->EndAddress + 1U)));
 8485              		.loc 1 829 7 discriminator 44
 8486 06b0 3B68     		ldr	r3, [r7]
 8487 06b2 5B69     		ldr	r3, [r3, #20]
 8488 06b4 B3F5805F 		cmp	r3, #4096
 8489 06b8 04D3     		bcc	.L437
 8490              	.L450:
 829:STM32Cube_FW_N6/Drivers/STM32N6xx_HAL_Driver/Src/stm32n6xx_hal_rif.c ****       assert_param(IS_RISAF_GRANULARITY(RISAFx, (pConfig->EndAddress + 1U)));
 8491              		.loc 1 829 7 discriminator 45
 8492 06ba 40F23D31 		movw	r1, #829
 8493 06be 1648     		ldr	r0, .L593+24
 8494 06c0 FFF7FEFF 		bl	assert_failed
 8495              	.L437:
 830:STM32Cube_FW_N6/Drivers/STM32N6xx_HAL_Driver/Src/stm32n6xx_hal_rif.c ****       assert_param(IS_RISAF_LIMIT_ADDRESS_SPACE_SIZE(RISAFx, pConfig->EndAddress));
 8496              		.loc 1 830 7 is_stmt 1
 8497 06c4 FB68     		ldr	r3, [r7, #12]
 8498 06c6 154A     		ldr	r2, .L593+28
 8499 06c8 9342     		cmp	r3, r2
 8500 06ca 0AD1     		bne	.L451
 830:STM32Cube_FW_N6/Drivers/STM32N6xx_HAL_Driver/Src/stm32n6xx_hal_rif.c ****       assert_param(IS_RISAF_LIMIT_ADDRESS_SPACE_SIZE(RISAFx, pConfig->EndAddress));
 8501              		.loc 1 830 7 is_stmt 0 discriminator 1
 8502 06cc 3B68     		ldr	r3, [r7]
 8503 06ce 9B69     		ldr	r3, [r3, #24]
 8504 06d0 0133     		adds	r3, r3, #1
 8505 06d2 C3F30B03 		ubfx	r3, r3, #0, #12
 8506 06d6 002B     		cmp	r3, #0
 8507 06d8 0CBF     		ite	eq
 8508 06da 0123     		moveq	r3, #1
 8509 06dc 0023     		movne	r3, #0
 8510 06de DBB2     		uxtb	r3, r3
 8511 06e0 08E1     		b	.L452
 8512              	.L451:
 830:STM32Cube_FW_N6/Drivers/STM32N6xx_HAL_Driver/Src/stm32n6xx_hal_rif.c ****       assert_param(IS_RISAF_LIMIT_ADDRESS_SPACE_SIZE(RISAFx, pConfig->EndAddress));
 8513              		.loc 1 830 7 discriminator 2
 8514 06e2 FB68     		ldr	r3, [r7, #12]
 8515 06e4 0E4A     		ldr	r2, .L593+32
 8516 06e6 9342     		cmp	r3, r2
 8517 06e8 2ED1     		bne	.L453
 830:STM32Cube_FW_N6/Drivers/STM32N6xx_HAL_Driver/Src/stm32n6xx_hal_rif.c ****       assert_param(IS_RISAF_LIMIT_ADDRESS_SPACE_SIZE(RISAFx, pConfig->EndAddress));
 8518              		.loc 1 830 7 discriminator 4
 8519 06ea 3B68     		ldr	r3, [r7]
 8520 06ec 9B69     		ldr	r3, [r3, #24]
 8521 06ee 0133     		adds	r3, r3, #1
 8522 06f0 C3F30B03 		ubfx	r3, r3, #0, #12
 8523 06f4 002B     		cmp	r3, #0
 8524 06f6 0CBF     		ite	eq
 8525 06f8 0123     		moveq	r3, #1
 8526 06fa 0023     		movne	r3, #0
 8527 06fc DBB2     		uxtb	r3, r3
 8528 06fe F9E0     		b	.L452
 8529              	.L594:
ARM GAS  /tmp/ccRTEIeG.s 			page 177


 8530              		.align	2
 8531              	.L593:
 8532 0700 00E00254 		.word	1409474560
 8533 0704 00000354 		.word	1409482752
 8534 0708 00100354 		.word	1409486848
 8535 070c 00200354 		.word	1409490944
 8536 0710 00300354 		.word	1409495040
 8537 0714 00400354 		.word	1409499136
 8538 0718 00000000 		.word	.LC0
 8539 071c 00600254 		.word	1409441792
 8540 0720 00700254 		.word	1409445888
 8541 0724 00800254 		.word	1409449984
 8542 0728 00900254 		.word	1409454080
 8543 072c 00A00254 		.word	1409458176
 8544 0730 00B00254 		.word	1409462272
 8545 0734 00C00254 		.word	1409466368
 8546 0738 00D00254 		.word	1409470464
 8547 073c 00500354 		.word	1409503232
 8548 0740 00600354 		.word	1409507328
 8549 0744 00700354 		.word	1409511424
 8550              	.L453:
 830:STM32Cube_FW_N6/Drivers/STM32N6xx_HAL_Driver/Src/stm32n6xx_hal_rif.c ****       assert_param(IS_RISAF_LIMIT_ADDRESS_SPACE_SIZE(RISAFx, pConfig->EndAddress));
 8551              		.loc 1 830 7 discriminator 5
 8552 0748 FB68     		ldr	r3, [r7, #12]
 8553 074a 594A     		ldr	r2, .L595
 8554 074c 9342     		cmp	r3, r2
 8555 074e 0AD1     		bne	.L455
 830:STM32Cube_FW_N6/Drivers/STM32N6xx_HAL_Driver/Src/stm32n6xx_hal_rif.c ****       assert_param(IS_RISAF_LIMIT_ADDRESS_SPACE_SIZE(RISAFx, pConfig->EndAddress));
 8556              		.loc 1 830 7 discriminator 7
 8557 0750 3B68     		ldr	r3, [r7]
 8558 0752 9B69     		ldr	r3, [r3, #24]
 8559 0754 0133     		adds	r3, r3, #1
 8560 0756 C3F30B03 		ubfx	r3, r3, #0, #12
 8561 075a 002B     		cmp	r3, #0
 8562 075c 0CBF     		ite	eq
 8563 075e 0123     		moveq	r3, #1
 8564 0760 0023     		movne	r3, #0
 8565 0762 DBB2     		uxtb	r3, r3
 8566 0764 C6E0     		b	.L452
 8567              	.L455:
 830:STM32Cube_FW_N6/Drivers/STM32N6xx_HAL_Driver/Src/stm32n6xx_hal_rif.c ****       assert_param(IS_RISAF_LIMIT_ADDRESS_SPACE_SIZE(RISAFx, pConfig->EndAddress));
 8568              		.loc 1 830 7 discriminator 8
 8569 0766 FB68     		ldr	r3, [r7, #12]
 8570 0768 524A     		ldr	r2, .L595+4
 8571 076a 9342     		cmp	r3, r2
 8572 076c 0AD1     		bne	.L457
 830:STM32Cube_FW_N6/Drivers/STM32N6xx_HAL_Driver/Src/stm32n6xx_hal_rif.c ****       assert_param(IS_RISAF_LIMIT_ADDRESS_SPACE_SIZE(RISAFx, pConfig->EndAddress));
 8573              		.loc 1 830 7 discriminator 10
 8574 076e 3B68     		ldr	r3, [r7]
 8575 0770 9B69     		ldr	r3, [r3, #24]
 8576 0772 0133     		adds	r3, r3, #1
 8577 0774 C3F30B03 		ubfx	r3, r3, #0, #12
 8578 0778 002B     		cmp	r3, #0
 8579 077a 0CBF     		ite	eq
 8580 077c 0123     		moveq	r3, #1
 8581 077e 0023     		movne	r3, #0
 8582 0780 DBB2     		uxtb	r3, r3
ARM GAS  /tmp/ccRTEIeG.s 			page 178


 8583 0782 B7E0     		b	.L452
 8584              	.L457:
 830:STM32Cube_FW_N6/Drivers/STM32N6xx_HAL_Driver/Src/stm32n6xx_hal_rif.c ****       assert_param(IS_RISAF_LIMIT_ADDRESS_SPACE_SIZE(RISAFx, pConfig->EndAddress));
 8585              		.loc 1 830 7 discriminator 11
 8586 0784 FB68     		ldr	r3, [r7, #12]
 8587 0786 4C4A     		ldr	r2, .L595+8
 8588 0788 9342     		cmp	r3, r2
 8589 078a 0AD1     		bne	.L459
 830:STM32Cube_FW_N6/Drivers/STM32N6xx_HAL_Driver/Src/stm32n6xx_hal_rif.c ****       assert_param(IS_RISAF_LIMIT_ADDRESS_SPACE_SIZE(RISAFx, pConfig->EndAddress));
 8590              		.loc 1 830 7 discriminator 13
 8591 078c 3B68     		ldr	r3, [r7]
 8592 078e 9B69     		ldr	r3, [r3, #24]
 8593 0790 0133     		adds	r3, r3, #1
 8594 0792 C3F30B03 		ubfx	r3, r3, #0, #12
 8595 0796 002B     		cmp	r3, #0
 8596 0798 0CBF     		ite	eq
 8597 079a 0123     		moveq	r3, #1
 8598 079c 0023     		movne	r3, #0
 8599 079e DBB2     		uxtb	r3, r3
 8600 07a0 A8E0     		b	.L452
 8601              	.L459:
 830:STM32Cube_FW_N6/Drivers/STM32N6xx_HAL_Driver/Src/stm32n6xx_hal_rif.c ****       assert_param(IS_RISAF_LIMIT_ADDRESS_SPACE_SIZE(RISAFx, pConfig->EndAddress));
 8602              		.loc 1 830 7 discriminator 14
 8603 07a2 FB68     		ldr	r3, [r7, #12]
 8604 07a4 454A     		ldr	r2, .L595+12
 8605 07a6 9342     		cmp	r3, r2
 8606 07a8 0AD1     		bne	.L461
 830:STM32Cube_FW_N6/Drivers/STM32N6xx_HAL_Driver/Src/stm32n6xx_hal_rif.c ****       assert_param(IS_RISAF_LIMIT_ADDRESS_SPACE_SIZE(RISAFx, pConfig->EndAddress));
 8607              		.loc 1 830 7 discriminator 16
 8608 07aa 3B68     		ldr	r3, [r7]
 8609 07ac 9B69     		ldr	r3, [r3, #24]
 8610 07ae 0133     		adds	r3, r3, #1
 8611 07b0 C3F30B03 		ubfx	r3, r3, #0, #12
 8612 07b4 002B     		cmp	r3, #0
 8613 07b6 0CBF     		ite	eq
 8614 07b8 0123     		moveq	r3, #1
 8615 07ba 0023     		movne	r3, #0
 8616 07bc DBB2     		uxtb	r3, r3
 8617 07be 99E0     		b	.L452
 8618              	.L461:
 830:STM32Cube_FW_N6/Drivers/STM32N6xx_HAL_Driver/Src/stm32n6xx_hal_rif.c ****       assert_param(IS_RISAF_LIMIT_ADDRESS_SPACE_SIZE(RISAFx, pConfig->EndAddress));
 8619              		.loc 1 830 7 discriminator 17
 8620 07c0 FB68     		ldr	r3, [r7, #12]
 8621 07c2 3F4A     		ldr	r2, .L595+16
 8622 07c4 9342     		cmp	r3, r2
 8623 07c6 0AD1     		bne	.L463
 830:STM32Cube_FW_N6/Drivers/STM32N6xx_HAL_Driver/Src/stm32n6xx_hal_rif.c ****       assert_param(IS_RISAF_LIMIT_ADDRESS_SPACE_SIZE(RISAFx, pConfig->EndAddress));
 8624              		.loc 1 830 7 discriminator 19
 8625 07c8 3B68     		ldr	r3, [r7]
 8626 07ca 9B69     		ldr	r3, [r3, #24]
 8627 07cc 0133     		adds	r3, r3, #1
 8628 07ce C3F30B03 		ubfx	r3, r3, #0, #12
 8629 07d2 002B     		cmp	r3, #0
 8630 07d4 0CBF     		ite	eq
 8631 07d6 0123     		moveq	r3, #1
 8632 07d8 0023     		movne	r3, #0
 8633 07da DBB2     		uxtb	r3, r3
ARM GAS  /tmp/ccRTEIeG.s 			page 179


 8634 07dc 8AE0     		b	.L452
 8635              	.L463:
 830:STM32Cube_FW_N6/Drivers/STM32N6xx_HAL_Driver/Src/stm32n6xx_hal_rif.c ****       assert_param(IS_RISAF_LIMIT_ADDRESS_SPACE_SIZE(RISAFx, pConfig->EndAddress));
 8636              		.loc 1 830 7 discriminator 20
 8637 07de FB68     		ldr	r3, [r7, #12]
 8638 07e0 384A     		ldr	r2, .L595+20
 8639 07e2 9342     		cmp	r3, r2
 8640 07e4 0AD1     		bne	.L465
 830:STM32Cube_FW_N6/Drivers/STM32N6xx_HAL_Driver/Src/stm32n6xx_hal_rif.c ****       assert_param(IS_RISAF_LIMIT_ADDRESS_SPACE_SIZE(RISAFx, pConfig->EndAddress));
 8641              		.loc 1 830 7 discriminator 22
 8642 07e6 3B68     		ldr	r3, [r7]
 8643 07e8 9B69     		ldr	r3, [r3, #24]
 8644 07ea 0133     		adds	r3, r3, #1
 8645 07ec C3F30B03 		ubfx	r3, r3, #0, #12
 8646 07f0 002B     		cmp	r3, #0
 8647 07f2 0CBF     		ite	eq
 8648 07f4 0123     		moveq	r3, #1
 8649 07f6 0023     		movne	r3, #0
 8650 07f8 DBB2     		uxtb	r3, r3
 8651 07fa 7BE0     		b	.L452
 8652              	.L465:
 830:STM32Cube_FW_N6/Drivers/STM32N6xx_HAL_Driver/Src/stm32n6xx_hal_rif.c ****       assert_param(IS_RISAF_LIMIT_ADDRESS_SPACE_SIZE(RISAFx, pConfig->EndAddress));
 8653              		.loc 1 830 7 discriminator 23
 8654 07fc FB68     		ldr	r3, [r7, #12]
 8655 07fe 324A     		ldr	r2, .L595+24
 8656 0800 9342     		cmp	r3, r2
 8657 0802 0AD1     		bne	.L467
 830:STM32Cube_FW_N6/Drivers/STM32N6xx_HAL_Driver/Src/stm32n6xx_hal_rif.c ****       assert_param(IS_RISAF_LIMIT_ADDRESS_SPACE_SIZE(RISAFx, pConfig->EndAddress));
 8658              		.loc 1 830 7 discriminator 25
 8659 0804 3B68     		ldr	r3, [r7]
 8660 0806 9B69     		ldr	r3, [r3, #24]
 8661 0808 0133     		adds	r3, r3, #1
 8662 080a C3F30B03 		ubfx	r3, r3, #0, #12
 8663 080e 002B     		cmp	r3, #0
 8664 0810 0CBF     		ite	eq
 8665 0812 0123     		moveq	r3, #1
 8666 0814 0023     		movne	r3, #0
 8667 0816 DBB2     		uxtb	r3, r3
 8668 0818 6CE0     		b	.L452
 8669              	.L467:
 830:STM32Cube_FW_N6/Drivers/STM32N6xx_HAL_Driver/Src/stm32n6xx_hal_rif.c ****       assert_param(IS_RISAF_LIMIT_ADDRESS_SPACE_SIZE(RISAFx, pConfig->EndAddress));
 8670              		.loc 1 830 7 discriminator 26
 8671 081a FB68     		ldr	r3, [r7, #12]
 8672 081c 2B4A     		ldr	r2, .L595+28
 8673 081e 9342     		cmp	r3, r2
 8674 0820 0AD1     		bne	.L469
 830:STM32Cube_FW_N6/Drivers/STM32N6xx_HAL_Driver/Src/stm32n6xx_hal_rif.c ****       assert_param(IS_RISAF_LIMIT_ADDRESS_SPACE_SIZE(RISAFx, pConfig->EndAddress));
 8675              		.loc 1 830 7 discriminator 28
 8676 0822 3B68     		ldr	r3, [r7]
 8677 0824 9B69     		ldr	r3, [r3, #24]
 8678 0826 0133     		adds	r3, r3, #1
 8679 0828 C3F30B03 		ubfx	r3, r3, #0, #12
 8680 082c 002B     		cmp	r3, #0
 8681 082e 0CBF     		ite	eq
 8682 0830 0123     		moveq	r3, #1
 8683 0832 0023     		movne	r3, #0
 8684 0834 DBB2     		uxtb	r3, r3
ARM GAS  /tmp/ccRTEIeG.s 			page 180


 8685 0836 5DE0     		b	.L452
 8686              	.L469:
 830:STM32Cube_FW_N6/Drivers/STM32N6xx_HAL_Driver/Src/stm32n6xx_hal_rif.c ****       assert_param(IS_RISAF_LIMIT_ADDRESS_SPACE_SIZE(RISAFx, pConfig->EndAddress));
 8687              		.loc 1 830 7 discriminator 29
 8688 0838 FB68     		ldr	r3, [r7, #12]
 8689 083a 254A     		ldr	r2, .L595+32
 8690 083c 9342     		cmp	r3, r2
 8691 083e 0AD1     		bne	.L471
 830:STM32Cube_FW_N6/Drivers/STM32N6xx_HAL_Driver/Src/stm32n6xx_hal_rif.c ****       assert_param(IS_RISAF_LIMIT_ADDRESS_SPACE_SIZE(RISAFx, pConfig->EndAddress));
 8692              		.loc 1 830 7 discriminator 31
 8693 0840 3B68     		ldr	r3, [r7]
 8694 0842 9B69     		ldr	r3, [r3, #24]
 8695 0844 0133     		adds	r3, r3, #1
 8696 0846 C3F30B03 		ubfx	r3, r3, #0, #12
 8697 084a 002B     		cmp	r3, #0
 8698 084c 0CBF     		ite	eq
 8699 084e 0123     		moveq	r3, #1
 8700 0850 0023     		movne	r3, #0
 8701 0852 DBB2     		uxtb	r3, r3
 8702 0854 4EE0     		b	.L452
 8703              	.L471:
 830:STM32Cube_FW_N6/Drivers/STM32N6xx_HAL_Driver/Src/stm32n6xx_hal_rif.c ****       assert_param(IS_RISAF_LIMIT_ADDRESS_SPACE_SIZE(RISAFx, pConfig->EndAddress));
 8704              		.loc 1 830 7 discriminator 32
 8705 0856 FB68     		ldr	r3, [r7, #12]
 8706 0858 1E4A     		ldr	r2, .L595+36
 8707 085a 9342     		cmp	r3, r2
 8708 085c 0AD1     		bne	.L473
 830:STM32Cube_FW_N6/Drivers/STM32N6xx_HAL_Driver/Src/stm32n6xx_hal_rif.c ****       assert_param(IS_RISAF_LIMIT_ADDRESS_SPACE_SIZE(RISAFx, pConfig->EndAddress));
 8709              		.loc 1 830 7 discriminator 34
 8710 085e 3B68     		ldr	r3, [r7]
 8711 0860 9B69     		ldr	r3, [r3, #24]
 8712 0862 0133     		adds	r3, r3, #1
 8713 0864 C3F30B03 		ubfx	r3, r3, #0, #12
 8714 0868 002B     		cmp	r3, #0
 8715 086a 0CBF     		ite	eq
 8716 086c 0123     		moveq	r3, #1
 8717 086e 0023     		movne	r3, #0
 8718 0870 DBB2     		uxtb	r3, r3
 8719 0872 3FE0     		b	.L452
 8720              	.L473:
 830:STM32Cube_FW_N6/Drivers/STM32N6xx_HAL_Driver/Src/stm32n6xx_hal_rif.c ****       assert_param(IS_RISAF_LIMIT_ADDRESS_SPACE_SIZE(RISAFx, pConfig->EndAddress));
 8721              		.loc 1 830 7 discriminator 35
 8722 0874 FB68     		ldr	r3, [r7, #12]
 8723 0876 184A     		ldr	r2, .L595+40
 8724 0878 9342     		cmp	r3, r2
 8725 087a 0AD1     		bne	.L475
 830:STM32Cube_FW_N6/Drivers/STM32N6xx_HAL_Driver/Src/stm32n6xx_hal_rif.c ****       assert_param(IS_RISAF_LIMIT_ADDRESS_SPACE_SIZE(RISAFx, pConfig->EndAddress));
 8726              		.loc 1 830 7 discriminator 37
 8727 087c 3B68     		ldr	r3, [r7]
 8728 087e 9B69     		ldr	r3, [r3, #24]
 8729 0880 0133     		adds	r3, r3, #1
 8730 0882 C3F30B03 		ubfx	r3, r3, #0, #12
 8731 0886 002B     		cmp	r3, #0
 8732 0888 0CBF     		ite	eq
 8733 088a 0123     		moveq	r3, #1
 8734 088c 0023     		movne	r3, #0
 8735 088e DBB2     		uxtb	r3, r3
ARM GAS  /tmp/ccRTEIeG.s 			page 181


 8736 0890 30E0     		b	.L452
 8737              	.L475:
 830:STM32Cube_FW_N6/Drivers/STM32N6xx_HAL_Driver/Src/stm32n6xx_hal_rif.c ****       assert_param(IS_RISAF_LIMIT_ADDRESS_SPACE_SIZE(RISAFx, pConfig->EndAddress));
 8738              		.loc 1 830 7 discriminator 38
 8739 0892 FB68     		ldr	r3, [r7, #12]
 8740 0894 114A     		ldr	r2, .L595+44
 8741 0896 9342     		cmp	r3, r2
 8742 0898 22D1     		bne	.L477
 830:STM32Cube_FW_N6/Drivers/STM32N6xx_HAL_Driver/Src/stm32n6xx_hal_rif.c ****       assert_param(IS_RISAF_LIMIT_ADDRESS_SPACE_SIZE(RISAFx, pConfig->EndAddress));
 8743              		.loc 1 830 7 discriminator 40
 8744 089a 3B68     		ldr	r3, [r7]
 8745 089c 9B69     		ldr	r3, [r3, #24]
 8746 089e 0133     		adds	r3, r3, #1
 8747 08a0 03F00303 		and	r3, r3, #3
 8748 08a4 002B     		cmp	r3, #0
 8749 08a6 0CBF     		ite	eq
 8750 08a8 0123     		moveq	r3, #1
 8751 08aa 0023     		movne	r3, #0
 8752 08ac DBB2     		uxtb	r3, r3
 8753 08ae 21E0     		b	.L452
 8754              	.L596:
 8755              		.align	2
 8756              	.L595:
 8757 08b0 00800254 		.word	1409449984
 8758 08b4 00900254 		.word	1409454080
 8759 08b8 00A00254 		.word	1409458176
 8760 08bc 00B00254 		.word	1409462272
 8761 08c0 00C00254 		.word	1409466368
 8762 08c4 00D00254 		.word	1409470464
 8763 08c8 00E00254 		.word	1409474560
 8764 08cc 00000354 		.word	1409482752
 8765 08d0 00100354 		.word	1409486848
 8766 08d4 00200354 		.word	1409490944
 8767 08d8 00300354 		.word	1409495040
 8768 08dc 00400354 		.word	1409499136
 8769              	.L477:
 830:STM32Cube_FW_N6/Drivers/STM32N6xx_HAL_Driver/Src/stm32n6xx_hal_rif.c ****       assert_param(IS_RISAF_LIMIT_ADDRESS_SPACE_SIZE(RISAFx, pConfig->EndAddress));
 8770              		.loc 1 830 7 discriminator 41
 8771 08e0 3B68     		ldr	r3, [r7]
 8772 08e2 9B69     		ldr	r3, [r3, #24]
 8773 08e4 0133     		adds	r3, r3, #1
 8774 08e6 C3F30803 		ubfx	r3, r3, #0, #9
 8775 08ea 002B     		cmp	r3, #0
 8776 08ec 0CBF     		ite	eq
 8777 08ee 0123     		moveq	r3, #1
 8778 08f0 0023     		movne	r3, #0
 8779 08f2 DBB2     		uxtb	r3, r3
 8780              	.L452:
 830:STM32Cube_FW_N6/Drivers/STM32N6xx_HAL_Driver/Src/stm32n6xx_hal_rif.c ****       assert_param(IS_RISAF_LIMIT_ADDRESS_SPACE_SIZE(RISAFx, pConfig->EndAddress));
 8781              		.loc 1 830 7 discriminator 56
 8782 08f4 002B     		cmp	r3, #0
 8783 08f6 04D1     		bne	.L479
 830:STM32Cube_FW_N6/Drivers/STM32N6xx_HAL_Driver/Src/stm32n6xx_hal_rif.c ****       assert_param(IS_RISAF_LIMIT_ADDRESS_SPACE_SIZE(RISAFx, pConfig->EndAddress));
 8784              		.loc 1 830 7 discriminator 57
 8785 08f8 40F23E31 		movw	r1, #830
 8786 08fc 8D48     		ldr	r0, .L597
 8787 08fe FFF7FEFF 		bl	assert_failed
ARM GAS  /tmp/ccRTEIeG.s 			page 182


 8788              	.L479:
 831:STM32Cube_FW_N6/Drivers/STM32N6xx_HAL_Driver/Src/stm32n6xx_hal_rif.c ****       assert_param(pConfig->StartAddress < pConfig->EndAddress);
 8789              		.loc 1 831 7 is_stmt 1
 8790 0902 FB68     		ldr	r3, [r7, #12]
 8791 0904 8C4A     		ldr	r2, .L597+4
 8792 0906 9342     		cmp	r3, r2
 8793 0908 05D1     		bne	.L480
 831:STM32Cube_FW_N6/Drivers/STM32N6xx_HAL_Driver/Src/stm32n6xx_hal_rif.c ****       assert_param(pConfig->StartAddress < pConfig->EndAddress);
 8794              		.loc 1 831 7 is_stmt 0 discriminator 2
 8795 090a 3B68     		ldr	r3, [r7]
 8796 090c 9B69     		ldr	r3, [r3, #24]
 8797 090e B3F1804F 		cmp	r3, #1073741824
 8798 0912 C0F08680 		bcc	.L481
 8799              	.L480:
 831:STM32Cube_FW_N6/Drivers/STM32N6xx_HAL_Driver/Src/stm32n6xx_hal_rif.c ****       assert_param(pConfig->StartAddress < pConfig->EndAddress);
 8800              		.loc 1 831 7 discriminator 3
 8801 0916 FB68     		ldr	r3, [r7, #12]
 8802 0918 884A     		ldr	r2, .L597+8
 8803 091a 9342     		cmp	r3, r2
 8804 091c 04D1     		bne	.L482
 831:STM32Cube_FW_N6/Drivers/STM32N6xx_HAL_Driver/Src/stm32n6xx_hal_rif.c ****       assert_param(pConfig->StartAddress < pConfig->EndAddress);
 8805              		.loc 1 831 7 discriminator 5
 8806 091e 3B68     		ldr	r3, [r7]
 8807 0920 9B69     		ldr	r3, [r3, #24]
 8808 0922 B3F5801F 		cmp	r3, #1048576
 8809 0926 7CD3     		bcc	.L481
 8810              	.L482:
 831:STM32Cube_FW_N6/Drivers/STM32N6xx_HAL_Driver/Src/stm32n6xx_hal_rif.c ****       assert_param(pConfig->StartAddress < pConfig->EndAddress);
 8811              		.loc 1 831 7 discriminator 6
 8812 0928 FB68     		ldr	r3, [r7, #12]
 8813 092a 854A     		ldr	r2, .L597+12
 8814 092c 9342     		cmp	r3, r2
 8815 092e 04D1     		bne	.L483
 831:STM32Cube_FW_N6/Drivers/STM32N6xx_HAL_Driver/Src/stm32n6xx_hal_rif.c ****       assert_param(pConfig->StartAddress < pConfig->EndAddress);
 8816              		.loc 1 831 7 discriminator 8
 8817 0930 3B68     		ldr	r3, [r7]
 8818 0932 9B69     		ldr	r3, [r3, #24]
 8819 0934 B3F5801F 		cmp	r3, #1048576
 8820 0938 73D3     		bcc	.L481
 8821              	.L483:
 831:STM32Cube_FW_N6/Drivers/STM32N6xx_HAL_Driver/Src/stm32n6xx_hal_rif.c ****       assert_param(pConfig->StartAddress < pConfig->EndAddress);
 8822              		.loc 1 831 7 discriminator 9
 8823 093a FB68     		ldr	r3, [r7, #12]
 8824 093c 814A     		ldr	r2, .L597+16
 8825 093e 9342     		cmp	r3, r2
 8826 0940 6FD0     		beq	.L481
 831:STM32Cube_FW_N6/Drivers/STM32N6xx_HAL_Driver/Src/stm32n6xx_hal_rif.c ****       assert_param(pConfig->StartAddress < pConfig->EndAddress);
 8827              		.loc 1 831 7 discriminator 10
 8828 0942 FB68     		ldr	r3, [r7, #12]
 8829 0944 804A     		ldr	r2, .L597+20
 8830 0946 9342     		cmp	r3, r2
 8831 0948 6BD0     		beq	.L481
 831:STM32Cube_FW_N6/Drivers/STM32N6xx_HAL_Driver/Src/stm32n6xx_hal_rif.c ****       assert_param(pConfig->StartAddress < pConfig->EndAddress);
 8832              		.loc 1 831 7 discriminator 11
 8833 094a FB68     		ldr	r3, [r7, #12]
 8834 094c 7F4A     		ldr	r2, .L597+24
 8835 094e 9342     		cmp	r3, r2
ARM GAS  /tmp/ccRTEIeG.s 			page 183


 8836 0950 67D0     		beq	.L481
 831:STM32Cube_FW_N6/Drivers/STM32N6xx_HAL_Driver/Src/stm32n6xx_hal_rif.c ****       assert_param(pConfig->StartAddress < pConfig->EndAddress);
 8837              		.loc 1 831 7 discriminator 12
 8838 0952 FB68     		ldr	r3, [r7, #12]
 8839 0954 7E4A     		ldr	r2, .L597+28
 8840 0956 9342     		cmp	r3, r2
 8841 0958 04D1     		bne	.L484
 831:STM32Cube_FW_N6/Drivers/STM32N6xx_HAL_Driver/Src/stm32n6xx_hal_rif.c ****       assert_param(pConfig->StartAddress < pConfig->EndAddress);
 8842              		.loc 1 831 7 discriminator 14
 8843 095a 3B68     		ldr	r3, [r7]
 8844 095c 9B69     		ldr	r3, [r3, #24]
 8845 095e B3F5002F 		cmp	r3, #524288
 8846 0962 5ED3     		bcc	.L481
 8847              	.L484:
 831:STM32Cube_FW_N6/Drivers/STM32N6xx_HAL_Driver/Src/stm32n6xx_hal_rif.c ****       assert_param(pConfig->StartAddress < pConfig->EndAddress);
 8848              		.loc 1 831 7 discriminator 15
 8849 0964 FB68     		ldr	r3, [r7, #12]
 8850 0966 7B4A     		ldr	r2, .L597+32
 8851 0968 9342     		cmp	r3, r2
 8852 096a 04D1     		bne	.L485
 831:STM32Cube_FW_N6/Drivers/STM32N6xx_HAL_Driver/Src/stm32n6xx_hal_rif.c ****       assert_param(pConfig->StartAddress < pConfig->EndAddress);
 8853              		.loc 1 831 7 discriminator 17
 8854 096c 3B68     		ldr	r3, [r7]
 8855 096e 9B69     		ldr	r3, [r3, #24]
 8856 0970 B3F5802F 		cmp	r3, #262144
 8857 0974 55D3     		bcc	.L481
 8858              	.L485:
 831:STM32Cube_FW_N6/Drivers/STM32N6xx_HAL_Driver/Src/stm32n6xx_hal_rif.c ****       assert_param(pConfig->StartAddress < pConfig->EndAddress);
 8859              		.loc 1 831 7 discriminator 18
 8860 0976 FB68     		ldr	r3, [r7, #12]
 8861 0978 774A     		ldr	r2, .L597+36
 8862 097a 9342     		cmp	r3, r2
 8863 097c 04D1     		bne	.L486
 831:STM32Cube_FW_N6/Drivers/STM32N6xx_HAL_Driver/Src/stm32n6xx_hal_rif.c ****       assert_param(pConfig->StartAddress < pConfig->EndAddress);
 8864              		.loc 1 831 7 discriminator 20
 8865 097e 3B68     		ldr	r3, [r7]
 8866 0980 9B69     		ldr	r3, [r3, #24]
 8867 0982 B3F5003F 		cmp	r3, #131072
 8868 0986 4CD3     		bcc	.L481
 8869              	.L486:
 831:STM32Cube_FW_N6/Drivers/STM32N6xx_HAL_Driver/Src/stm32n6xx_hal_rif.c ****       assert_param(pConfig->StartAddress < pConfig->EndAddress);
 8870              		.loc 1 831 7 discriminator 21
 8871 0988 FB68     		ldr	r3, [r7, #12]
 8872 098a 744A     		ldr	r2, .L597+40
 8873 098c 9342     		cmp	r3, r2
 8874 098e 04D1     		bne	.L487
 831:STM32Cube_FW_N6/Drivers/STM32N6xx_HAL_Driver/Src/stm32n6xx_hal_rif.c ****       assert_param(pConfig->StartAddress < pConfig->EndAddress);
 8875              		.loc 1 831 7 discriminator 23
 8876 0990 3B68     		ldr	r3, [r7]
 8877 0992 9B69     		ldr	r3, [r3, #24]
 8878 0994 B3F1805F 		cmp	r3, #268435456
 8879 0998 43D3     		bcc	.L481
 8880              	.L487:
 831:STM32Cube_FW_N6/Drivers/STM32N6xx_HAL_Driver/Src/stm32n6xx_hal_rif.c ****       assert_param(pConfig->StartAddress < pConfig->EndAddress);
 8881              		.loc 1 831 7 discriminator 24
 8882 099a FB68     		ldr	r3, [r7, #12]
 8883 099c 704A     		ldr	r2, .L597+44
ARM GAS  /tmp/ccRTEIeG.s 			page 184


 8884 099e 9342     		cmp	r3, r2
 8885 09a0 04D1     		bne	.L488
 831:STM32Cube_FW_N6/Drivers/STM32N6xx_HAL_Driver/Src/stm32n6xx_hal_rif.c ****       assert_param(pConfig->StartAddress < pConfig->EndAddress);
 8886              		.loc 1 831 7 discriminator 26
 8887 09a2 3B68     		ldr	r3, [r7]
 8888 09a4 9B69     		ldr	r3, [r3, #24]
 8889 09a6 B3F1805F 		cmp	r3, #268435456
 8890 09aa 3AD3     		bcc	.L481
 8891              	.L488:
 831:STM32Cube_FW_N6/Drivers/STM32N6xx_HAL_Driver/Src/stm32n6xx_hal_rif.c ****       assert_param(pConfig->StartAddress < pConfig->EndAddress);
 8892              		.loc 1 831 7 discriminator 27
 8893 09ac FB68     		ldr	r3, [r7, #12]
 8894 09ae 6D4A     		ldr	r2, .L597+48
 8895 09b0 9342     		cmp	r3, r2
 8896 09b2 04D1     		bne	.L489
 831:STM32Cube_FW_N6/Drivers/STM32N6xx_HAL_Driver/Src/stm32n6xx_hal_rif.c ****       assert_param(pConfig->StartAddress < pConfig->EndAddress);
 8897              		.loc 1 831 7 discriminator 29
 8898 09b4 3B68     		ldr	r3, [r7]
 8899 09b6 9B69     		ldr	r3, [r3, #24]
 8900 09b8 B3F1805F 		cmp	r3, #268435456
 8901 09bc 31D3     		bcc	.L481
 8902              	.L489:
 831:STM32Cube_FW_N6/Drivers/STM32N6xx_HAL_Driver/Src/stm32n6xx_hal_rif.c ****       assert_param(pConfig->StartAddress < pConfig->EndAddress);
 8903              		.loc 1 831 7 discriminator 30
 8904 09be FB68     		ldr	r3, [r7, #12]
 8905 09c0 694A     		ldr	r2, .L597+52
 8906 09c2 9342     		cmp	r3, r2
 8907 09c4 04D1     		bne	.L490
 831:STM32Cube_FW_N6/Drivers/STM32N6xx_HAL_Driver/Src/stm32n6xx_hal_rif.c ****       assert_param(pConfig->StartAddress < pConfig->EndAddress);
 8908              		.loc 1 831 7 discriminator 32
 8909 09c6 3B68     		ldr	r3, [r7]
 8910 09c8 9B69     		ldr	r3, [r3, #24]
 8911 09ca B3F1805F 		cmp	r3, #268435456
 8912 09ce 28D3     		bcc	.L481
 8913              	.L490:
 831:STM32Cube_FW_N6/Drivers/STM32N6xx_HAL_Driver/Src/stm32n6xx_hal_rif.c ****       assert_param(pConfig->StartAddress < pConfig->EndAddress);
 8914              		.loc 1 831 7 discriminator 33
 8915 09d0 FB68     		ldr	r3, [r7, #12]
 8916 09d2 664A     		ldr	r2, .L597+56
 8917 09d4 9342     		cmp	r3, r2
 8918 09d6 04D1     		bne	.L491
 831:STM32Cube_FW_N6/Drivers/STM32N6xx_HAL_Driver/Src/stm32n6xx_hal_rif.c ****       assert_param(pConfig->StartAddress < pConfig->EndAddress);
 8919              		.loc 1 831 7 discriminator 35
 8920 09d8 3B68     		ldr	r3, [r7]
 8921 09da 9B69     		ldr	r3, [r3, #24]
 8922 09dc B3F5805F 		cmp	r3, #4096
 8923 09e0 1FD3     		bcc	.L481
 8924              	.L491:
 831:STM32Cube_FW_N6/Drivers/STM32N6xx_HAL_Driver/Src/stm32n6xx_hal_rif.c ****       assert_param(pConfig->StartAddress < pConfig->EndAddress);
 8925              		.loc 1 831 7 discriminator 36
 8926 09e2 FB68     		ldr	r3, [r7, #12]
 8927 09e4 624A     		ldr	r2, .L597+60
 8928 09e6 9342     		cmp	r3, r2
 8929 09e8 04D1     		bne	.L492
 831:STM32Cube_FW_N6/Drivers/STM32N6xx_HAL_Driver/Src/stm32n6xx_hal_rif.c ****       assert_param(pConfig->StartAddress < pConfig->EndAddress);
 8930              		.loc 1 831 7 discriminator 38
 8931 09ea 3B68     		ldr	r3, [r7]
ARM GAS  /tmp/ccRTEIeG.s 			page 185


 8932 09ec 9B69     		ldr	r3, [r3, #24]
 8933 09ee B3F5005F 		cmp	r3, #8192
 8934 09f2 16D3     		bcc	.L481
 8935              	.L492:
 831:STM32Cube_FW_N6/Drivers/STM32N6xx_HAL_Driver/Src/stm32n6xx_hal_rif.c ****       assert_param(pConfig->StartAddress < pConfig->EndAddress);
 8936              		.loc 1 831 7 discriminator 39
 8937 09f4 FB68     		ldr	r3, [r7, #12]
 8938 09f6 5F4A     		ldr	r2, .L597+64
 8939 09f8 9342     		cmp	r3, r2
 8940 09fa 04D1     		bne	.L493
 831:STM32Cube_FW_N6/Drivers/STM32N6xx_HAL_Driver/Src/stm32n6xx_hal_rif.c ****       assert_param(pConfig->StartAddress < pConfig->EndAddress);
 8941              		.loc 1 831 7 discriminator 41
 8942 09fc 3B68     		ldr	r3, [r7]
 8943 09fe 9B69     		ldr	r3, [r3, #24]
 8944 0a00 B3F5005F 		cmp	r3, #8192
 8945 0a04 0DD3     		bcc	.L481
 8946              	.L493:
 831:STM32Cube_FW_N6/Drivers/STM32N6xx_HAL_Driver/Src/stm32n6xx_hal_rif.c ****       assert_param(pConfig->StartAddress < pConfig->EndAddress);
 8947              		.loc 1 831 7 discriminator 42
 8948 0a06 FB68     		ldr	r3, [r7, #12]
 8949 0a08 5B4A     		ldr	r2, .L597+68
 8950 0a0a 9342     		cmp	r3, r2
 8951 0a0c 04D1     		bne	.L494
 831:STM32Cube_FW_N6/Drivers/STM32N6xx_HAL_Driver/Src/stm32n6xx_hal_rif.c ****       assert_param(pConfig->StartAddress < pConfig->EndAddress);
 8952              		.loc 1 831 7 discriminator 44
 8953 0a0e 3B68     		ldr	r3, [r7]
 8954 0a10 9B69     		ldr	r3, [r3, #24]
 8955 0a12 B3F5805F 		cmp	r3, #4096
 8956 0a16 04D3     		bcc	.L481
 8957              	.L494:
 831:STM32Cube_FW_N6/Drivers/STM32N6xx_HAL_Driver/Src/stm32n6xx_hal_rif.c ****       assert_param(pConfig->StartAddress < pConfig->EndAddress);
 8958              		.loc 1 831 7 discriminator 45
 8959 0a18 40F23F31 		movw	r1, #831
 8960 0a1c 4548     		ldr	r0, .L597
 8961 0a1e FFF7FEFF 		bl	assert_failed
 8962              	.L481:
 832:STM32Cube_FW_N6/Drivers/STM32N6xx_HAL_Driver/Src/stm32n6xx_hal_rif.c **** 
 8963              		.loc 1 832 7 is_stmt 1
 8964 0a22 3B68     		ldr	r3, [r7]
 8965 0a24 5A69     		ldr	r2, [r3, #20]
 8966 0a26 3B68     		ldr	r3, [r7]
 8967 0a28 9B69     		ldr	r3, [r3, #24]
 8968 0a2a 9A42     		cmp	r2, r3
 8969 0a2c 04D3     		bcc	.L495
 832:STM32Cube_FW_N6/Drivers/STM32N6xx_HAL_Driver/Src/stm32n6xx_hal_rif.c **** 
 8970              		.loc 1 832 7 is_stmt 0 discriminator 1
 8971 0a2e 4FF45071 		mov	r1, #832
 8972 0a32 4048     		ldr	r0, .L597
 8973 0a34 FFF7FEFF 		bl	assert_failed
 8974              	.L495:
 834:STM32Cube_FW_N6/Drivers/STM32N6xx_HAL_Driver/Src/stm32n6xx_hal_rif.c ****       RISAFx->REG[Region].AENDR = pConfig->EndAddress;
 8975              		.loc 1 834 44 is_stmt 1
 8976 0a38 3B68     		ldr	r3, [r7]
 8977 0a3a 5A69     		ldr	r2, [r3, #20]
 834:STM32Cube_FW_N6/Drivers/STM32N6xx_HAL_Driver/Src/stm32n6xx_hal_rif.c ****       RISAFx->REG[Region].AENDR = pConfig->EndAddress;
 8978              		.loc 1 834 35
 8979 0a3c F968     		ldr	r1, [r7, #12]
ARM GAS  /tmp/ccRTEIeG.s 			page 186


 8980 0a3e BB68     		ldr	r3, [r7, #8]
 8981 0a40 9B01     		lsls	r3, r3, #6
 8982 0a42 0B44     		add	r3, r3, r1
 8983 0a44 5433     		adds	r3, r3, #84
 8984 0a46 1A60     		str	r2, [r3]
 835:STM32Cube_FW_N6/Drivers/STM32N6xx_HAL_Driver/Src/stm32n6xx_hal_rif.c ****       RISAFx->REG[Region].ACFGR = (pConfig->Filtering  | (pConfig->Lock << RISAF_REGx_zCFGR_RLOCK_P
 8985              		.loc 1 835 42
 8986 0a48 3B68     		ldr	r3, [r7]
 8987 0a4a 9A69     		ldr	r2, [r3, #24]
 835:STM32Cube_FW_N6/Drivers/STM32N6xx_HAL_Driver/Src/stm32n6xx_hal_rif.c ****       RISAFx->REG[Region].ACFGR = (pConfig->Filtering  | (pConfig->Lock << RISAF_REGx_zCFGR_RLOCK_P
 8988              		.loc 1 835 33
 8989 0a4c F968     		ldr	r1, [r7, #12]
 8990 0a4e BB68     		ldr	r3, [r7, #8]
 8991 0a50 9B01     		lsls	r3, r3, #6
 8992 0a52 0B44     		add	r3, r3, r1
 8993 0a54 5833     		adds	r3, r3, #88
 8994 0a56 1A60     		str	r2, [r3]
 836:STM32Cube_FW_N6/Drivers/STM32N6xx_HAL_Driver/Src/stm32n6xx_hal_rif.c ****                                    | (cid << RISAF_REGx_zCFGR_SRCID_Pos) | (pConfig->SecPriv << RIS
 8995              		.loc 1 836 43
 8996 0a58 3B68     		ldr	r3, [r7]
 8997 0a5a 1A68     		ldr	r2, [r3]
 836:STM32Cube_FW_N6/Drivers/STM32N6xx_HAL_Driver/Src/stm32n6xx_hal_rif.c ****                                    | (cid << RISAF_REGx_zCFGR_SRCID_Pos) | (pConfig->SecPriv << RIS
 8998              		.loc 1 836 66
 8999 0a5c 3B68     		ldr	r3, [r7]
 9000 0a5e 1B69     		ldr	r3, [r3, #16]
 836:STM32Cube_FW_N6/Drivers/STM32N6xx_HAL_Driver/Src/stm32n6xx_hal_rif.c ****                                    | (cid << RISAF_REGx_zCFGR_SRCID_Pos) | (pConfig->SecPriv << RIS
 9001              		.loc 1 836 73
 9002 0a60 5B00     		lsls	r3, r3, #1
 836:STM32Cube_FW_N6/Drivers/STM32N6xx_HAL_Driver/Src/stm32n6xx_hal_rif.c ****                                    | (cid << RISAF_REGx_zCFGR_SRCID_Pos) | (pConfig->SecPriv << RIS
 9003              		.loc 1 836 56
 9004 0a62 1A43     		orrs	r2, r2, r3
 837:STM32Cube_FW_N6/Drivers/STM32N6xx_HAL_Driver/Src/stm32n6xx_hal_rif.c ****                                    | (pConfig->ReadWrite));
 9005              		.loc 1 837 43
 9006 0a64 FB69     		ldr	r3, [r7, #28]
 9007 0a66 1B01     		lsls	r3, r3, #4
 837:STM32Cube_FW_N6/Drivers/STM32N6xx_HAL_Driver/Src/stm32n6xx_hal_rif.c ****                                    | (pConfig->ReadWrite));
 9008              		.loc 1 837 36
 9009 0a68 1A43     		orrs	r2, r2, r3
 837:STM32Cube_FW_N6/Drivers/STM32N6xx_HAL_Driver/Src/stm32n6xx_hal_rif.c ****                                    | (pConfig->ReadWrite));
 9010              		.loc 1 837 84
 9011 0a6a 3B68     		ldr	r3, [r7]
 9012 0a6c 9B68     		ldr	r3, [r3, #8]
 837:STM32Cube_FW_N6/Drivers/STM32N6xx_HAL_Driver/Src/stm32n6xx_hal_rif.c ****                                    | (pConfig->ReadWrite));
 9013              		.loc 1 837 94
 9014 0a6e 1B02     		lsls	r3, r3, #8
 837:STM32Cube_FW_N6/Drivers/STM32N6xx_HAL_Driver/Src/stm32n6xx_hal_rif.c ****                                    | (pConfig->ReadWrite));
 9015              		.loc 1 837 74
 9016 0a70 1A43     		orrs	r2, r2, r3
 838:STM32Cube_FW_N6/Drivers/STM32N6xx_HAL_Driver/Src/stm32n6xx_hal_rif.c ****     }
 9017              		.loc 1 838 46
 9018 0a72 3B68     		ldr	r3, [r7]
 9019 0a74 DB68     		ldr	r3, [r3, #12]
 838:STM32Cube_FW_N6/Drivers/STM32N6xx_HAL_Driver/Src/stm32n6xx_hal_rif.c ****     }
 9020              		.loc 1 838 36
 9021 0a76 1A43     		orrs	r2, r2, r3
 836:STM32Cube_FW_N6/Drivers/STM32N6xx_HAL_Driver/Src/stm32n6xx_hal_rif.c ****                                    | (cid << RISAF_REGx_zCFGR_SRCID_Pos) | (pConfig->SecPriv << RIS
 9022              		.loc 1 836 33
ARM GAS  /tmp/ccRTEIeG.s 			page 187


 9023 0a78 F968     		ldr	r1, [r7, #12]
 9024 0a7a BB68     		ldr	r3, [r7, #8]
 9025 0a7c 9B01     		lsls	r3, r3, #6
 9026 0a7e 0B44     		add	r3, r3, r1
 9027 0a80 5033     		adds	r3, r3, #80
 9028 0a82 1A60     		str	r2, [r3]
 9029              		.loc 1 866 1
 9030 0a84 A3E3     		b	.L588
 9031              	.L402:
 843:STM32Cube_FW_N6/Drivers/STM32N6xx_HAL_Driver/Src/stm32n6xx_hal_rif.c ****     {
 9032              		.loc 1 843 16
 9033 0a86 3B68     		ldr	r3, [r7]
 9034 0a88 1B68     		ldr	r3, [r3]
 843:STM32Cube_FW_N6/Drivers/STM32N6xx_HAL_Driver/Src/stm32n6xx_hal_rif.c ****     {
 9035              		.loc 1 843 8
 9036 0a8a 002B     		cmp	r3, #0
 9037 0a8c 1ED1     		bne	.L496
 845:STM32Cube_FW_N6/Drivers/STM32N6xx_HAL_Driver/Src/stm32n6xx_hal_rif.c ****       RISAFx->REG[Region].BCFGR |= (pConfig->Lock << RISAF_REGx_zCFGR_RLOCK_Pos);
 9038              		.loc 1 845 26
 9039 0a8e FA68     		ldr	r2, [r7, #12]
 9040 0a90 BB68     		ldr	r3, [r7, #8]
 9041 0a92 9B01     		lsls	r3, r3, #6
 9042 0a94 1344     		add	r3, r3, r2
 9043 0a96 6033     		adds	r3, r3, #96
 9044 0a98 1B68     		ldr	r3, [r3]
 845:STM32Cube_FW_N6/Drivers/STM32N6xx_HAL_Driver/Src/stm32n6xx_hal_rif.c ****       RISAFx->REG[Region].BCFGR |= (pConfig->Lock << RISAF_REGx_zCFGR_RLOCK_Pos);
 9045              		.loc 1 845 33
 9046 0a9a 23F00302 		bic	r2, r3, #3
 9047 0a9e F968     		ldr	r1, [r7, #12]
 9048 0aa0 BB68     		ldr	r3, [r7, #8]
 9049 0aa2 9B01     		lsls	r3, r3, #6
 9050 0aa4 0B44     		add	r3, r3, r1
 9051 0aa6 6033     		adds	r3, r3, #96
 9052 0aa8 1A60     		str	r2, [r3]
 846:STM32Cube_FW_N6/Drivers/STM32N6xx_HAL_Driver/Src/stm32n6xx_hal_rif.c ****     }
 9053              		.loc 1 846 26
 9054 0aaa FA68     		ldr	r2, [r7, #12]
 9055 0aac BB68     		ldr	r3, [r7, #8]
 9056 0aae 9B01     		lsls	r3, r3, #6
 9057 0ab0 1344     		add	r3, r3, r2
 9058 0ab2 6033     		adds	r3, r3, #96
 9059 0ab4 1A68     		ldr	r2, [r3]
 846:STM32Cube_FW_N6/Drivers/STM32N6xx_HAL_Driver/Src/stm32n6xx_hal_rif.c ****     }
 9060              		.loc 1 846 44
 9061 0ab6 3B68     		ldr	r3, [r7]
 9062 0ab8 1B69     		ldr	r3, [r3, #16]
 846:STM32Cube_FW_N6/Drivers/STM32N6xx_HAL_Driver/Src/stm32n6xx_hal_rif.c ****     }
 9063              		.loc 1 846 51
 9064 0aba 5B00     		lsls	r3, r3, #1
 846:STM32Cube_FW_N6/Drivers/STM32N6xx_HAL_Driver/Src/stm32n6xx_hal_rif.c ****     }
 9065              		.loc 1 846 33
 9066 0abc 1A43     		orrs	r2, r2, r3
 9067 0abe F968     		ldr	r1, [r7, #12]
 9068 0ac0 BB68     		ldr	r3, [r7, #8]
 9069 0ac2 9B01     		lsls	r3, r3, #6
 9070 0ac4 0B44     		add	r3, r3, r1
 9071 0ac6 6033     		adds	r3, r3, #96
ARM GAS  /tmp/ccRTEIeG.s 			page 188


 9072 0ac8 1A60     		str	r2, [r3]
 9073              		.loc 1 866 1
 9074 0aca 80E3     		b	.L588
 9075              	.L496:
 851:STM32Cube_FW_N6/Drivers/STM32N6xx_HAL_Driver/Src/stm32n6xx_hal_rif.c ****       assert_param(IS_RIF_SEC_PRIV_ATTRIBUTE(pConfig->SecPriv));
 9076              		.loc 1 851 7
 9077 0acc 3B68     		ldr	r3, [r7]
 9078 0ace DB68     		ldr	r3, [r3, #12]
 9079 0ad0 002B     		cmp	r3, #0
 9080 0ad2 0AD0     		beq	.L497
 851:STM32Cube_FW_N6/Drivers/STM32N6xx_HAL_Driver/Src/stm32n6xx_hal_rif.c ****       assert_param(IS_RIF_SEC_PRIV_ATTRIBUTE(pConfig->SecPriv));
 9081              		.loc 1 851 7 is_stmt 0 discriminator 1
 9082 0ad4 3B68     		ldr	r3, [r7]
 9083 0ad6 DB68     		ldr	r3, [r3, #12]
 9084 0ad8 23F44053 		bic	r3, r3, #12288
 9085 0adc 002B     		cmp	r3, #0
 9086 0ade 04D0     		beq	.L497
 851:STM32Cube_FW_N6/Drivers/STM32N6xx_HAL_Driver/Src/stm32n6xx_hal_rif.c ****       assert_param(IS_RIF_SEC_PRIV_ATTRIBUTE(pConfig->SecPriv));
 9087              		.loc 1 851 7 discriminator 2
 9088 0ae0 40F25331 		movw	r1, #851
 9089 0ae4 1348     		ldr	r0, .L597
 9090 0ae6 FFF7FEFF 		bl	assert_failed
 9091              	.L497:
 852:STM32Cube_FW_N6/Drivers/STM32N6xx_HAL_Driver/Src/stm32n6xx_hal_rif.c ****       assert_param(IS_RISAF_GRANULARITY(RISAFx, pConfig->StartAddress));
 9092              		.loc 1 852 7 is_stmt 1
 9093 0aea 3B68     		ldr	r3, [r7]
 9094 0aec 9B68     		ldr	r3, [r3, #8]
 9095 0aee 032B     		cmp	r3, #3
 9096 0af0 04D9     		bls	.L498
 852:STM32Cube_FW_N6/Drivers/STM32N6xx_HAL_Driver/Src/stm32n6xx_hal_rif.c ****       assert_param(IS_RISAF_GRANULARITY(RISAFx, pConfig->StartAddress));
 9097              		.loc 1 852 7 is_stmt 0 discriminator 1
 9098 0af2 4FF45571 		mov	r1, #852
 9099 0af6 0F48     		ldr	r0, .L597
 9100 0af8 FFF7FEFF 		bl	assert_failed
 9101              	.L498:
 853:STM32Cube_FW_N6/Drivers/STM32N6xx_HAL_Driver/Src/stm32n6xx_hal_rif.c ****       assert_param(IS_RISAF_LIMIT_ADDRESS_SPACE_SIZE(RISAFx, pConfig->StartAddress));
 9102              		.loc 1 853 7 is_stmt 1
 9103 0afc FB68     		ldr	r3, [r7, #12]
 9104 0afe 0E4A     		ldr	r2, .L597+4
 9105 0b00 9342     		cmp	r3, r2
 9106 0b02 09D1     		bne	.L499
 853:STM32Cube_FW_N6/Drivers/STM32N6xx_HAL_Driver/Src/stm32n6xx_hal_rif.c ****       assert_param(IS_RISAF_LIMIT_ADDRESS_SPACE_SIZE(RISAFx, pConfig->StartAddress));
 9107              		.loc 1 853 7 is_stmt 0 discriminator 1
 9108 0b04 3B68     		ldr	r3, [r7]
 9109 0b06 5B69     		ldr	r3, [r3, #20]
 9110 0b08 C3F30B03 		ubfx	r3, r3, #0, #12
 9111 0b0c 002B     		cmp	r3, #0
 9112 0b0e 0CBF     		ite	eq
 9113 0b10 0123     		moveq	r3, #1
 9114 0b12 0023     		movne	r3, #0
 9115 0b14 DBB2     		uxtb	r3, r3
 9116 0b16 FAE0     		b	.L500
 9117              	.L499:
 853:STM32Cube_FW_N6/Drivers/STM32N6xx_HAL_Driver/Src/stm32n6xx_hal_rif.c ****       assert_param(IS_RISAF_LIMIT_ADDRESS_SPACE_SIZE(RISAFx, pConfig->StartAddress));
 9118              		.loc 1 853 7 discriminator 2
 9119 0b18 FB68     		ldr	r3, [r7, #12]
 9120 0b1a 084A     		ldr	r2, .L597+8
ARM GAS  /tmp/ccRTEIeG.s 			page 189


 9121 0b1c 9342     		cmp	r3, r2
 9122 0b1e 2DD1     		bne	.L501
 853:STM32Cube_FW_N6/Drivers/STM32N6xx_HAL_Driver/Src/stm32n6xx_hal_rif.c ****       assert_param(IS_RISAF_LIMIT_ADDRESS_SPACE_SIZE(RISAFx, pConfig->StartAddress));
 9123              		.loc 1 853 7 discriminator 4
 9124 0b20 3B68     		ldr	r3, [r7]
 9125 0b22 5B69     		ldr	r3, [r3, #20]
 9126 0b24 C3F30B03 		ubfx	r3, r3, #0, #12
 9127 0b28 002B     		cmp	r3, #0
 9128 0b2a 0CBF     		ite	eq
 9129 0b2c 0123     		moveq	r3, #1
 9130 0b2e 0023     		movne	r3, #0
 9131 0b30 DBB2     		uxtb	r3, r3
 9132 0b32 ECE0     		b	.L500
 9133              	.L598:
 9134              		.align	2
 9135              	.L597:
 9136 0b34 00000000 		.word	.LC0
 9137 0b38 00600254 		.word	1409441792
 9138 0b3c 00700254 		.word	1409445888
 9139 0b40 00800254 		.word	1409449984
 9140 0b44 00900254 		.word	1409454080
 9141 0b48 00A00254 		.word	1409458176
 9142 0b4c 00B00254 		.word	1409462272
 9143 0b50 00C00254 		.word	1409466368
 9144 0b54 00D00254 		.word	1409470464
 9145 0b58 00E00254 		.word	1409474560
 9146 0b5c 00000354 		.word	1409482752
 9147 0b60 00100354 		.word	1409486848
 9148 0b64 00200354 		.word	1409490944
 9149 0b68 00300354 		.word	1409495040
 9150 0b6c 00400354 		.word	1409499136
 9151 0b70 00500354 		.word	1409503232
 9152 0b74 00600354 		.word	1409507328
 9153 0b78 00700354 		.word	1409511424
 9154              	.L501:
 853:STM32Cube_FW_N6/Drivers/STM32N6xx_HAL_Driver/Src/stm32n6xx_hal_rif.c ****       assert_param(IS_RISAF_LIMIT_ADDRESS_SPACE_SIZE(RISAFx, pConfig->StartAddress));
 9155              		.loc 1 853 7 discriminator 5
 9156 0b7c FB68     		ldr	r3, [r7, #12]
 9157 0b7e 534A     		ldr	r2, .L599
 9158 0b80 9342     		cmp	r3, r2
 9159 0b82 09D1     		bne	.L503
 853:STM32Cube_FW_N6/Drivers/STM32N6xx_HAL_Driver/Src/stm32n6xx_hal_rif.c ****       assert_param(IS_RISAF_LIMIT_ADDRESS_SPACE_SIZE(RISAFx, pConfig->StartAddress));
 9160              		.loc 1 853 7 discriminator 7
 9161 0b84 3B68     		ldr	r3, [r7]
 9162 0b86 5B69     		ldr	r3, [r3, #20]
 9163 0b88 C3F30B03 		ubfx	r3, r3, #0, #12
 9164 0b8c 002B     		cmp	r3, #0
 9165 0b8e 0CBF     		ite	eq
 9166 0b90 0123     		moveq	r3, #1
 9167 0b92 0023     		movne	r3, #0
 9168 0b94 DBB2     		uxtb	r3, r3
 9169 0b96 BAE0     		b	.L500
 9170              	.L503:
 853:STM32Cube_FW_N6/Drivers/STM32N6xx_HAL_Driver/Src/stm32n6xx_hal_rif.c ****       assert_param(IS_RISAF_LIMIT_ADDRESS_SPACE_SIZE(RISAFx, pConfig->StartAddress));
 9171              		.loc 1 853 7 discriminator 8
 9172 0b98 FB68     		ldr	r3, [r7, #12]
 9173 0b9a 4D4A     		ldr	r2, .L599+4
ARM GAS  /tmp/ccRTEIeG.s 			page 190


 9174 0b9c 9342     		cmp	r3, r2
 9175 0b9e 09D1     		bne	.L505
 853:STM32Cube_FW_N6/Drivers/STM32N6xx_HAL_Driver/Src/stm32n6xx_hal_rif.c ****       assert_param(IS_RISAF_LIMIT_ADDRESS_SPACE_SIZE(RISAFx, pConfig->StartAddress));
 9176              		.loc 1 853 7 discriminator 10
 9177 0ba0 3B68     		ldr	r3, [r7]
 9178 0ba2 5B69     		ldr	r3, [r3, #20]
 9179 0ba4 C3F30B03 		ubfx	r3, r3, #0, #12
 9180 0ba8 002B     		cmp	r3, #0
 9181 0baa 0CBF     		ite	eq
 9182 0bac 0123     		moveq	r3, #1
 9183 0bae 0023     		movne	r3, #0
 9184 0bb0 DBB2     		uxtb	r3, r3
 9185 0bb2 ACE0     		b	.L500
 9186              	.L505:
 853:STM32Cube_FW_N6/Drivers/STM32N6xx_HAL_Driver/Src/stm32n6xx_hal_rif.c ****       assert_param(IS_RISAF_LIMIT_ADDRESS_SPACE_SIZE(RISAFx, pConfig->StartAddress));
 9187              		.loc 1 853 7 discriminator 11
 9188 0bb4 FB68     		ldr	r3, [r7, #12]
 9189 0bb6 474A     		ldr	r2, .L599+8
 9190 0bb8 9342     		cmp	r3, r2
 9191 0bba 09D1     		bne	.L507
 853:STM32Cube_FW_N6/Drivers/STM32N6xx_HAL_Driver/Src/stm32n6xx_hal_rif.c ****       assert_param(IS_RISAF_LIMIT_ADDRESS_SPACE_SIZE(RISAFx, pConfig->StartAddress));
 9192              		.loc 1 853 7 discriminator 13
 9193 0bbc 3B68     		ldr	r3, [r7]
 9194 0bbe 5B69     		ldr	r3, [r3, #20]
 9195 0bc0 C3F30B03 		ubfx	r3, r3, #0, #12
 9196 0bc4 002B     		cmp	r3, #0
 9197 0bc6 0CBF     		ite	eq
 9198 0bc8 0123     		moveq	r3, #1
 9199 0bca 0023     		movne	r3, #0
 9200 0bcc DBB2     		uxtb	r3, r3
 9201 0bce 9EE0     		b	.L500
 9202              	.L507:
 853:STM32Cube_FW_N6/Drivers/STM32N6xx_HAL_Driver/Src/stm32n6xx_hal_rif.c ****       assert_param(IS_RISAF_LIMIT_ADDRESS_SPACE_SIZE(RISAFx, pConfig->StartAddress));
 9203              		.loc 1 853 7 discriminator 14
 9204 0bd0 FB68     		ldr	r3, [r7, #12]
 9205 0bd2 414A     		ldr	r2, .L599+12
 9206 0bd4 9342     		cmp	r3, r2
 9207 0bd6 09D1     		bne	.L509
 853:STM32Cube_FW_N6/Drivers/STM32N6xx_HAL_Driver/Src/stm32n6xx_hal_rif.c ****       assert_param(IS_RISAF_LIMIT_ADDRESS_SPACE_SIZE(RISAFx, pConfig->StartAddress));
 9208              		.loc 1 853 7 discriminator 16
 9209 0bd8 3B68     		ldr	r3, [r7]
 9210 0bda 5B69     		ldr	r3, [r3, #20]
 9211 0bdc C3F30B03 		ubfx	r3, r3, #0, #12
 9212 0be0 002B     		cmp	r3, #0
 9213 0be2 0CBF     		ite	eq
 9214 0be4 0123     		moveq	r3, #1
 9215 0be6 0023     		movne	r3, #0
 9216 0be8 DBB2     		uxtb	r3, r3
 9217 0bea 90E0     		b	.L500
 9218              	.L509:
 853:STM32Cube_FW_N6/Drivers/STM32N6xx_HAL_Driver/Src/stm32n6xx_hal_rif.c ****       assert_param(IS_RISAF_LIMIT_ADDRESS_SPACE_SIZE(RISAFx, pConfig->StartAddress));
 9219              		.loc 1 853 7 discriminator 17
 9220 0bec FB68     		ldr	r3, [r7, #12]
 9221 0bee 3B4A     		ldr	r2, .L599+16
 9222 0bf0 9342     		cmp	r3, r2
 9223 0bf2 09D1     		bne	.L511
 853:STM32Cube_FW_N6/Drivers/STM32N6xx_HAL_Driver/Src/stm32n6xx_hal_rif.c ****       assert_param(IS_RISAF_LIMIT_ADDRESS_SPACE_SIZE(RISAFx, pConfig->StartAddress));
ARM GAS  /tmp/ccRTEIeG.s 			page 191


 9224              		.loc 1 853 7 discriminator 19
 9225 0bf4 3B68     		ldr	r3, [r7]
 9226 0bf6 5B69     		ldr	r3, [r3, #20]
 9227 0bf8 C3F30B03 		ubfx	r3, r3, #0, #12
 9228 0bfc 002B     		cmp	r3, #0
 9229 0bfe 0CBF     		ite	eq
 9230 0c00 0123     		moveq	r3, #1
 9231 0c02 0023     		movne	r3, #0
 9232 0c04 DBB2     		uxtb	r3, r3
 9233 0c06 82E0     		b	.L500
 9234              	.L511:
 853:STM32Cube_FW_N6/Drivers/STM32N6xx_HAL_Driver/Src/stm32n6xx_hal_rif.c ****       assert_param(IS_RISAF_LIMIT_ADDRESS_SPACE_SIZE(RISAFx, pConfig->StartAddress));
 9235              		.loc 1 853 7 discriminator 20
 9236 0c08 FB68     		ldr	r3, [r7, #12]
 9237 0c0a 354A     		ldr	r2, .L599+20
 9238 0c0c 9342     		cmp	r3, r2
 9239 0c0e 09D1     		bne	.L513
 853:STM32Cube_FW_N6/Drivers/STM32N6xx_HAL_Driver/Src/stm32n6xx_hal_rif.c ****       assert_param(IS_RISAF_LIMIT_ADDRESS_SPACE_SIZE(RISAFx, pConfig->StartAddress));
 9240              		.loc 1 853 7 discriminator 22
 9241 0c10 3B68     		ldr	r3, [r7]
 9242 0c12 5B69     		ldr	r3, [r3, #20]
 9243 0c14 C3F30B03 		ubfx	r3, r3, #0, #12
 9244 0c18 002B     		cmp	r3, #0
 9245 0c1a 0CBF     		ite	eq
 9246 0c1c 0123     		moveq	r3, #1
 9247 0c1e 0023     		movne	r3, #0
 9248 0c20 DBB2     		uxtb	r3, r3
 9249 0c22 74E0     		b	.L500
 9250              	.L513:
 853:STM32Cube_FW_N6/Drivers/STM32N6xx_HAL_Driver/Src/stm32n6xx_hal_rif.c ****       assert_param(IS_RISAF_LIMIT_ADDRESS_SPACE_SIZE(RISAFx, pConfig->StartAddress));
 9251              		.loc 1 853 7 discriminator 23
 9252 0c24 FB68     		ldr	r3, [r7, #12]
 9253 0c26 2F4A     		ldr	r2, .L599+24
 9254 0c28 9342     		cmp	r3, r2
 9255 0c2a 09D1     		bne	.L515
 853:STM32Cube_FW_N6/Drivers/STM32N6xx_HAL_Driver/Src/stm32n6xx_hal_rif.c ****       assert_param(IS_RISAF_LIMIT_ADDRESS_SPACE_SIZE(RISAFx, pConfig->StartAddress));
 9256              		.loc 1 853 7 discriminator 25
 9257 0c2c 3B68     		ldr	r3, [r7]
 9258 0c2e 5B69     		ldr	r3, [r3, #20]
 9259 0c30 C3F30B03 		ubfx	r3, r3, #0, #12
 9260 0c34 002B     		cmp	r3, #0
 9261 0c36 0CBF     		ite	eq
 9262 0c38 0123     		moveq	r3, #1
 9263 0c3a 0023     		movne	r3, #0
 9264 0c3c DBB2     		uxtb	r3, r3
 9265 0c3e 66E0     		b	.L500
 9266              	.L515:
 853:STM32Cube_FW_N6/Drivers/STM32N6xx_HAL_Driver/Src/stm32n6xx_hal_rif.c ****       assert_param(IS_RISAF_LIMIT_ADDRESS_SPACE_SIZE(RISAFx, pConfig->StartAddress));
 9267              		.loc 1 853 7 discriminator 26
 9268 0c40 FB68     		ldr	r3, [r7, #12]
 9269 0c42 294A     		ldr	r2, .L599+28
 9270 0c44 9342     		cmp	r3, r2
 9271 0c46 09D1     		bne	.L517
 853:STM32Cube_FW_N6/Drivers/STM32N6xx_HAL_Driver/Src/stm32n6xx_hal_rif.c ****       assert_param(IS_RISAF_LIMIT_ADDRESS_SPACE_SIZE(RISAFx, pConfig->StartAddress));
 9272              		.loc 1 853 7 discriminator 28
 9273 0c48 3B68     		ldr	r3, [r7]
 9274 0c4a 5B69     		ldr	r3, [r3, #20]
ARM GAS  /tmp/ccRTEIeG.s 			page 192


 9275 0c4c C3F30B03 		ubfx	r3, r3, #0, #12
 9276 0c50 002B     		cmp	r3, #0
 9277 0c52 0CBF     		ite	eq
 9278 0c54 0123     		moveq	r3, #1
 9279 0c56 0023     		movne	r3, #0
 9280 0c58 DBB2     		uxtb	r3, r3
 9281 0c5a 58E0     		b	.L500
 9282              	.L517:
 853:STM32Cube_FW_N6/Drivers/STM32N6xx_HAL_Driver/Src/stm32n6xx_hal_rif.c ****       assert_param(IS_RISAF_LIMIT_ADDRESS_SPACE_SIZE(RISAFx, pConfig->StartAddress));
 9283              		.loc 1 853 7 discriminator 29
 9284 0c5c FB68     		ldr	r3, [r7, #12]
 9285 0c5e 234A     		ldr	r2, .L599+32
 9286 0c60 9342     		cmp	r3, r2
 9287 0c62 09D1     		bne	.L519
 853:STM32Cube_FW_N6/Drivers/STM32N6xx_HAL_Driver/Src/stm32n6xx_hal_rif.c ****       assert_param(IS_RISAF_LIMIT_ADDRESS_SPACE_SIZE(RISAFx, pConfig->StartAddress));
 9288              		.loc 1 853 7 discriminator 31
 9289 0c64 3B68     		ldr	r3, [r7]
 9290 0c66 5B69     		ldr	r3, [r3, #20]
 9291 0c68 C3F30B03 		ubfx	r3, r3, #0, #12
 9292 0c6c 002B     		cmp	r3, #0
 9293 0c6e 0CBF     		ite	eq
 9294 0c70 0123     		moveq	r3, #1
 9295 0c72 0023     		movne	r3, #0
 9296 0c74 DBB2     		uxtb	r3, r3
 9297 0c76 4AE0     		b	.L500
 9298              	.L519:
 853:STM32Cube_FW_N6/Drivers/STM32N6xx_HAL_Driver/Src/stm32n6xx_hal_rif.c ****       assert_param(IS_RISAF_LIMIT_ADDRESS_SPACE_SIZE(RISAFx, pConfig->StartAddress));
 9299              		.loc 1 853 7 discriminator 32
 9300 0c78 FB68     		ldr	r3, [r7, #12]
 9301 0c7a 1D4A     		ldr	r2, .L599+36
 9302 0c7c 9342     		cmp	r3, r2
 9303 0c7e 09D1     		bne	.L521
 853:STM32Cube_FW_N6/Drivers/STM32N6xx_HAL_Driver/Src/stm32n6xx_hal_rif.c ****       assert_param(IS_RISAF_LIMIT_ADDRESS_SPACE_SIZE(RISAFx, pConfig->StartAddress));
 9304              		.loc 1 853 7 discriminator 34
 9305 0c80 3B68     		ldr	r3, [r7]
 9306 0c82 5B69     		ldr	r3, [r3, #20]
 9307 0c84 C3F30B03 		ubfx	r3, r3, #0, #12
 9308 0c88 002B     		cmp	r3, #0
 9309 0c8a 0CBF     		ite	eq
 9310 0c8c 0123     		moveq	r3, #1
 9311 0c8e 0023     		movne	r3, #0
 9312 0c90 DBB2     		uxtb	r3, r3
 9313 0c92 3CE0     		b	.L500
 9314              	.L521:
 853:STM32Cube_FW_N6/Drivers/STM32N6xx_HAL_Driver/Src/stm32n6xx_hal_rif.c ****       assert_param(IS_RISAF_LIMIT_ADDRESS_SPACE_SIZE(RISAFx, pConfig->StartAddress));
 9315              		.loc 1 853 7 discriminator 35
 9316 0c94 FB68     		ldr	r3, [r7, #12]
 9317 0c96 174A     		ldr	r2, .L599+40
 9318 0c98 9342     		cmp	r3, r2
 9319 0c9a 09D1     		bne	.L523
 853:STM32Cube_FW_N6/Drivers/STM32N6xx_HAL_Driver/Src/stm32n6xx_hal_rif.c ****       assert_param(IS_RISAF_LIMIT_ADDRESS_SPACE_SIZE(RISAFx, pConfig->StartAddress));
 9320              		.loc 1 853 7 discriminator 37
 9321 0c9c 3B68     		ldr	r3, [r7]
 9322 0c9e 5B69     		ldr	r3, [r3, #20]
 9323 0ca0 C3F30B03 		ubfx	r3, r3, #0, #12
 9324 0ca4 002B     		cmp	r3, #0
 9325 0ca6 0CBF     		ite	eq
ARM GAS  /tmp/ccRTEIeG.s 			page 193


 9326 0ca8 0123     		moveq	r3, #1
 9327 0caa 0023     		movne	r3, #0
 9328 0cac DBB2     		uxtb	r3, r3
 9329 0cae 2EE0     		b	.L500
 9330              	.L523:
 853:STM32Cube_FW_N6/Drivers/STM32N6xx_HAL_Driver/Src/stm32n6xx_hal_rif.c ****       assert_param(IS_RISAF_LIMIT_ADDRESS_SPACE_SIZE(RISAFx, pConfig->StartAddress));
 9331              		.loc 1 853 7 discriminator 38
 9332 0cb0 FB68     		ldr	r3, [r7, #12]
 9333 0cb2 114A     		ldr	r2, .L599+44
 9334 0cb4 9342     		cmp	r3, r2
 9335 0cb6 21D1     		bne	.L525
 853:STM32Cube_FW_N6/Drivers/STM32N6xx_HAL_Driver/Src/stm32n6xx_hal_rif.c ****       assert_param(IS_RISAF_LIMIT_ADDRESS_SPACE_SIZE(RISAFx, pConfig->StartAddress));
 9336              		.loc 1 853 7 discriminator 40
 9337 0cb8 3B68     		ldr	r3, [r7]
 9338 0cba 5B69     		ldr	r3, [r3, #20]
 9339 0cbc 03F00303 		and	r3, r3, #3
 9340 0cc0 002B     		cmp	r3, #0
 9341 0cc2 0CBF     		ite	eq
 9342 0cc4 0123     		moveq	r3, #1
 9343 0cc6 0023     		movne	r3, #0
 9344 0cc8 DBB2     		uxtb	r3, r3
 9345 0cca 20E0     		b	.L500
 9346              	.L600:
 9347              		.align	2
 9348              	.L599:
 9349 0ccc 00800254 		.word	1409449984
 9350 0cd0 00900254 		.word	1409454080
 9351 0cd4 00A00254 		.word	1409458176
 9352 0cd8 00B00254 		.word	1409462272
 9353 0cdc 00C00254 		.word	1409466368
 9354 0ce0 00D00254 		.word	1409470464
 9355 0ce4 00E00254 		.word	1409474560
 9356 0ce8 00000354 		.word	1409482752
 9357 0cec 00100354 		.word	1409486848
 9358 0cf0 00200354 		.word	1409490944
 9359 0cf4 00300354 		.word	1409495040
 9360 0cf8 00400354 		.word	1409499136
 9361              	.L525:
 853:STM32Cube_FW_N6/Drivers/STM32N6xx_HAL_Driver/Src/stm32n6xx_hal_rif.c ****       assert_param(IS_RISAF_LIMIT_ADDRESS_SPACE_SIZE(RISAFx, pConfig->StartAddress));
 9362              		.loc 1 853 7 discriminator 41
 9363 0cfc 3B68     		ldr	r3, [r7]
 9364 0cfe 5B69     		ldr	r3, [r3, #20]
 9365 0d00 C3F30803 		ubfx	r3, r3, #0, #9
 9366 0d04 002B     		cmp	r3, #0
 9367 0d06 0CBF     		ite	eq
 9368 0d08 0123     		moveq	r3, #1
 9369 0d0a 0023     		movne	r3, #0
 9370 0d0c DBB2     		uxtb	r3, r3
 9371              	.L500:
 853:STM32Cube_FW_N6/Drivers/STM32N6xx_HAL_Driver/Src/stm32n6xx_hal_rif.c ****       assert_param(IS_RISAF_LIMIT_ADDRESS_SPACE_SIZE(RISAFx, pConfig->StartAddress));
 9372              		.loc 1 853 7 discriminator 56
 9373 0d0e 002B     		cmp	r3, #0
 9374 0d10 04D1     		bne	.L527
 853:STM32Cube_FW_N6/Drivers/STM32N6xx_HAL_Driver/Src/stm32n6xx_hal_rif.c ****       assert_param(IS_RISAF_LIMIT_ADDRESS_SPACE_SIZE(RISAFx, pConfig->StartAddress));
 9375              		.loc 1 853 7 discriminator 57
 9376 0d12 40F25531 		movw	r1, #853
 9377 0d16 8D48     		ldr	r0, .L601
ARM GAS  /tmp/ccRTEIeG.s 			page 194


 9378 0d18 FFF7FEFF 		bl	assert_failed
 9379              	.L527:
 854:STM32Cube_FW_N6/Drivers/STM32N6xx_HAL_Driver/Src/stm32n6xx_hal_rif.c ****       assert_param(IS_RISAF_GRANULARITY(RISAFx, (pConfig->EndAddress + 1U)));
 9380              		.loc 1 854 7 is_stmt 1
 9381 0d1c FB68     		ldr	r3, [r7, #12]
 9382 0d1e 8C4A     		ldr	r2, .L601+4
 9383 0d20 9342     		cmp	r3, r2
 9384 0d22 05D1     		bne	.L528
 854:STM32Cube_FW_N6/Drivers/STM32N6xx_HAL_Driver/Src/stm32n6xx_hal_rif.c ****       assert_param(IS_RISAF_GRANULARITY(RISAFx, (pConfig->EndAddress + 1U)));
 9385              		.loc 1 854 7 is_stmt 0 discriminator 2
 9386 0d24 3B68     		ldr	r3, [r7]
 9387 0d26 5B69     		ldr	r3, [r3, #20]
 9388 0d28 B3F1804F 		cmp	r3, #1073741824
 9389 0d2c C0F08680 		bcc	.L529
 9390              	.L528:
 854:STM32Cube_FW_N6/Drivers/STM32N6xx_HAL_Driver/Src/stm32n6xx_hal_rif.c ****       assert_param(IS_RISAF_GRANULARITY(RISAFx, (pConfig->EndAddress + 1U)));
 9391              		.loc 1 854 7 discriminator 3
 9392 0d30 FB68     		ldr	r3, [r7, #12]
 9393 0d32 884A     		ldr	r2, .L601+8
 9394 0d34 9342     		cmp	r3, r2
 9395 0d36 04D1     		bne	.L530
 854:STM32Cube_FW_N6/Drivers/STM32N6xx_HAL_Driver/Src/stm32n6xx_hal_rif.c ****       assert_param(IS_RISAF_GRANULARITY(RISAFx, (pConfig->EndAddress + 1U)));
 9396              		.loc 1 854 7 discriminator 5
 9397 0d38 3B68     		ldr	r3, [r7]
 9398 0d3a 5B69     		ldr	r3, [r3, #20]
 9399 0d3c B3F5801F 		cmp	r3, #1048576
 9400 0d40 7CD3     		bcc	.L529
 9401              	.L530:
 854:STM32Cube_FW_N6/Drivers/STM32N6xx_HAL_Driver/Src/stm32n6xx_hal_rif.c ****       assert_param(IS_RISAF_GRANULARITY(RISAFx, (pConfig->EndAddress + 1U)));
 9402              		.loc 1 854 7 discriminator 6
 9403 0d42 FB68     		ldr	r3, [r7, #12]
 9404 0d44 844A     		ldr	r2, .L601+12
 9405 0d46 9342     		cmp	r3, r2
 9406 0d48 04D1     		bne	.L531
 854:STM32Cube_FW_N6/Drivers/STM32N6xx_HAL_Driver/Src/stm32n6xx_hal_rif.c ****       assert_param(IS_RISAF_GRANULARITY(RISAFx, (pConfig->EndAddress + 1U)));
 9407              		.loc 1 854 7 discriminator 8
 9408 0d4a 3B68     		ldr	r3, [r7]
 9409 0d4c 5B69     		ldr	r3, [r3, #20]
 9410 0d4e B3F5801F 		cmp	r3, #1048576
 9411 0d52 73D3     		bcc	.L529
 9412              	.L531:
 854:STM32Cube_FW_N6/Drivers/STM32N6xx_HAL_Driver/Src/stm32n6xx_hal_rif.c ****       assert_param(IS_RISAF_GRANULARITY(RISAFx, (pConfig->EndAddress + 1U)));
 9413              		.loc 1 854 7 discriminator 9
 9414 0d54 FB68     		ldr	r3, [r7, #12]
 9415 0d56 814A     		ldr	r2, .L601+16
 9416 0d58 9342     		cmp	r3, r2
 9417 0d5a 6FD0     		beq	.L529
 854:STM32Cube_FW_N6/Drivers/STM32N6xx_HAL_Driver/Src/stm32n6xx_hal_rif.c ****       assert_param(IS_RISAF_GRANULARITY(RISAFx, (pConfig->EndAddress + 1U)));
 9418              		.loc 1 854 7 discriminator 10
 9419 0d5c FB68     		ldr	r3, [r7, #12]
 9420 0d5e 804A     		ldr	r2, .L601+20
 9421 0d60 9342     		cmp	r3, r2
 9422 0d62 6BD0     		beq	.L529
 854:STM32Cube_FW_N6/Drivers/STM32N6xx_HAL_Driver/Src/stm32n6xx_hal_rif.c ****       assert_param(IS_RISAF_GRANULARITY(RISAFx, (pConfig->EndAddress + 1U)));
 9423              		.loc 1 854 7 discriminator 11
 9424 0d64 FB68     		ldr	r3, [r7, #12]
 9425 0d66 7F4A     		ldr	r2, .L601+24
ARM GAS  /tmp/ccRTEIeG.s 			page 195


 9426 0d68 9342     		cmp	r3, r2
 9427 0d6a 67D0     		beq	.L529
 854:STM32Cube_FW_N6/Drivers/STM32N6xx_HAL_Driver/Src/stm32n6xx_hal_rif.c ****       assert_param(IS_RISAF_GRANULARITY(RISAFx, (pConfig->EndAddress + 1U)));
 9428              		.loc 1 854 7 discriminator 12
 9429 0d6c FB68     		ldr	r3, [r7, #12]
 9430 0d6e 7E4A     		ldr	r2, .L601+28
 9431 0d70 9342     		cmp	r3, r2
 9432 0d72 04D1     		bne	.L532
 854:STM32Cube_FW_N6/Drivers/STM32N6xx_HAL_Driver/Src/stm32n6xx_hal_rif.c ****       assert_param(IS_RISAF_GRANULARITY(RISAFx, (pConfig->EndAddress + 1U)));
 9433              		.loc 1 854 7 discriminator 14
 9434 0d74 3B68     		ldr	r3, [r7]
 9435 0d76 5B69     		ldr	r3, [r3, #20]
 9436 0d78 B3F5002F 		cmp	r3, #524288
 9437 0d7c 5ED3     		bcc	.L529
 9438              	.L532:
 854:STM32Cube_FW_N6/Drivers/STM32N6xx_HAL_Driver/Src/stm32n6xx_hal_rif.c ****       assert_param(IS_RISAF_GRANULARITY(RISAFx, (pConfig->EndAddress + 1U)));
 9439              		.loc 1 854 7 discriminator 15
 9440 0d7e FB68     		ldr	r3, [r7, #12]
 9441 0d80 7A4A     		ldr	r2, .L601+32
 9442 0d82 9342     		cmp	r3, r2
 9443 0d84 04D1     		bne	.L533
 854:STM32Cube_FW_N6/Drivers/STM32N6xx_HAL_Driver/Src/stm32n6xx_hal_rif.c ****       assert_param(IS_RISAF_GRANULARITY(RISAFx, (pConfig->EndAddress + 1U)));
 9444              		.loc 1 854 7 discriminator 17
 9445 0d86 3B68     		ldr	r3, [r7]
 9446 0d88 5B69     		ldr	r3, [r3, #20]
 9447 0d8a B3F5802F 		cmp	r3, #262144
 9448 0d8e 55D3     		bcc	.L529
 9449              	.L533:
 854:STM32Cube_FW_N6/Drivers/STM32N6xx_HAL_Driver/Src/stm32n6xx_hal_rif.c ****       assert_param(IS_RISAF_GRANULARITY(RISAFx, (pConfig->EndAddress + 1U)));
 9450              		.loc 1 854 7 discriminator 18
 9451 0d90 FB68     		ldr	r3, [r7, #12]
 9452 0d92 774A     		ldr	r2, .L601+36
 9453 0d94 9342     		cmp	r3, r2
 9454 0d96 04D1     		bne	.L534
 854:STM32Cube_FW_N6/Drivers/STM32N6xx_HAL_Driver/Src/stm32n6xx_hal_rif.c ****       assert_param(IS_RISAF_GRANULARITY(RISAFx, (pConfig->EndAddress + 1U)));
 9455              		.loc 1 854 7 discriminator 20
 9456 0d98 3B68     		ldr	r3, [r7]
 9457 0d9a 5B69     		ldr	r3, [r3, #20]
 9458 0d9c B3F5003F 		cmp	r3, #131072
 9459 0da0 4CD3     		bcc	.L529
 9460              	.L534:
 854:STM32Cube_FW_N6/Drivers/STM32N6xx_HAL_Driver/Src/stm32n6xx_hal_rif.c ****       assert_param(IS_RISAF_GRANULARITY(RISAFx, (pConfig->EndAddress + 1U)));
 9461              		.loc 1 854 7 discriminator 21
 9462 0da2 FB68     		ldr	r3, [r7, #12]
 9463 0da4 734A     		ldr	r2, .L601+40
 9464 0da6 9342     		cmp	r3, r2
 9465 0da8 04D1     		bne	.L535
 854:STM32Cube_FW_N6/Drivers/STM32N6xx_HAL_Driver/Src/stm32n6xx_hal_rif.c ****       assert_param(IS_RISAF_GRANULARITY(RISAFx, (pConfig->EndAddress + 1U)));
 9466              		.loc 1 854 7 discriminator 23
 9467 0daa 3B68     		ldr	r3, [r7]
 9468 0dac 5B69     		ldr	r3, [r3, #20]
 9469 0dae B3F1805F 		cmp	r3, #268435456
 9470 0db2 43D3     		bcc	.L529
 9471              	.L535:
 854:STM32Cube_FW_N6/Drivers/STM32N6xx_HAL_Driver/Src/stm32n6xx_hal_rif.c ****       assert_param(IS_RISAF_GRANULARITY(RISAFx, (pConfig->EndAddress + 1U)));
 9472              		.loc 1 854 7 discriminator 24
 9473 0db4 FB68     		ldr	r3, [r7, #12]
ARM GAS  /tmp/ccRTEIeG.s 			page 196


 9474 0db6 704A     		ldr	r2, .L601+44
 9475 0db8 9342     		cmp	r3, r2
 9476 0dba 04D1     		bne	.L536
 854:STM32Cube_FW_N6/Drivers/STM32N6xx_HAL_Driver/Src/stm32n6xx_hal_rif.c ****       assert_param(IS_RISAF_GRANULARITY(RISAFx, (pConfig->EndAddress + 1U)));
 9477              		.loc 1 854 7 discriminator 26
 9478 0dbc 3B68     		ldr	r3, [r7]
 9479 0dbe 5B69     		ldr	r3, [r3, #20]
 9480 0dc0 B3F1805F 		cmp	r3, #268435456
 9481 0dc4 3AD3     		bcc	.L529
 9482              	.L536:
 854:STM32Cube_FW_N6/Drivers/STM32N6xx_HAL_Driver/Src/stm32n6xx_hal_rif.c ****       assert_param(IS_RISAF_GRANULARITY(RISAFx, (pConfig->EndAddress + 1U)));
 9483              		.loc 1 854 7 discriminator 27
 9484 0dc6 FB68     		ldr	r3, [r7, #12]
 9485 0dc8 6C4A     		ldr	r2, .L601+48
 9486 0dca 9342     		cmp	r3, r2
 9487 0dcc 04D1     		bne	.L537
 854:STM32Cube_FW_N6/Drivers/STM32N6xx_HAL_Driver/Src/stm32n6xx_hal_rif.c ****       assert_param(IS_RISAF_GRANULARITY(RISAFx, (pConfig->EndAddress + 1U)));
 9488              		.loc 1 854 7 discriminator 29
 9489 0dce 3B68     		ldr	r3, [r7]
 9490 0dd0 5B69     		ldr	r3, [r3, #20]
 9491 0dd2 B3F1805F 		cmp	r3, #268435456
 9492 0dd6 31D3     		bcc	.L529
 9493              	.L537:
 854:STM32Cube_FW_N6/Drivers/STM32N6xx_HAL_Driver/Src/stm32n6xx_hal_rif.c ****       assert_param(IS_RISAF_GRANULARITY(RISAFx, (pConfig->EndAddress + 1U)));
 9494              		.loc 1 854 7 discriminator 30
 9495 0dd8 FB68     		ldr	r3, [r7, #12]
 9496 0dda 694A     		ldr	r2, .L601+52
 9497 0ddc 9342     		cmp	r3, r2
 9498 0dde 04D1     		bne	.L538
 854:STM32Cube_FW_N6/Drivers/STM32N6xx_HAL_Driver/Src/stm32n6xx_hal_rif.c ****       assert_param(IS_RISAF_GRANULARITY(RISAFx, (pConfig->EndAddress + 1U)));
 9499              		.loc 1 854 7 discriminator 32
 9500 0de0 3B68     		ldr	r3, [r7]
 9501 0de2 5B69     		ldr	r3, [r3, #20]
 9502 0de4 B3F1805F 		cmp	r3, #268435456
 9503 0de8 28D3     		bcc	.L529
 9504              	.L538:
 854:STM32Cube_FW_N6/Drivers/STM32N6xx_HAL_Driver/Src/stm32n6xx_hal_rif.c ****       assert_param(IS_RISAF_GRANULARITY(RISAFx, (pConfig->EndAddress + 1U)));
 9505              		.loc 1 854 7 discriminator 33
 9506 0dea FB68     		ldr	r3, [r7, #12]
 9507 0dec 654A     		ldr	r2, .L601+56
 9508 0dee 9342     		cmp	r3, r2
 9509 0df0 04D1     		bne	.L539
 854:STM32Cube_FW_N6/Drivers/STM32N6xx_HAL_Driver/Src/stm32n6xx_hal_rif.c ****       assert_param(IS_RISAF_GRANULARITY(RISAFx, (pConfig->EndAddress + 1U)));
 9510              		.loc 1 854 7 discriminator 35
 9511 0df2 3B68     		ldr	r3, [r7]
 9512 0df4 5B69     		ldr	r3, [r3, #20]
 9513 0df6 B3F5805F 		cmp	r3, #4096
 9514 0dfa 1FD3     		bcc	.L529
 9515              	.L539:
 854:STM32Cube_FW_N6/Drivers/STM32N6xx_HAL_Driver/Src/stm32n6xx_hal_rif.c ****       assert_param(IS_RISAF_GRANULARITY(RISAFx, (pConfig->EndAddress + 1U)));
 9516              		.loc 1 854 7 discriminator 36
 9517 0dfc FB68     		ldr	r3, [r7, #12]
 9518 0dfe 624A     		ldr	r2, .L601+60
 9519 0e00 9342     		cmp	r3, r2
 9520 0e02 04D1     		bne	.L540
 854:STM32Cube_FW_N6/Drivers/STM32N6xx_HAL_Driver/Src/stm32n6xx_hal_rif.c ****       assert_param(IS_RISAF_GRANULARITY(RISAFx, (pConfig->EndAddress + 1U)));
 9521              		.loc 1 854 7 discriminator 38
ARM GAS  /tmp/ccRTEIeG.s 			page 197


 9522 0e04 3B68     		ldr	r3, [r7]
 9523 0e06 5B69     		ldr	r3, [r3, #20]
 9524 0e08 B3F5005F 		cmp	r3, #8192
 9525 0e0c 16D3     		bcc	.L529
 9526              	.L540:
 854:STM32Cube_FW_N6/Drivers/STM32N6xx_HAL_Driver/Src/stm32n6xx_hal_rif.c ****       assert_param(IS_RISAF_GRANULARITY(RISAFx, (pConfig->EndAddress + 1U)));
 9527              		.loc 1 854 7 discriminator 39
 9528 0e0e FB68     		ldr	r3, [r7, #12]
 9529 0e10 5E4A     		ldr	r2, .L601+64
 9530 0e12 9342     		cmp	r3, r2
 9531 0e14 04D1     		bne	.L541
 854:STM32Cube_FW_N6/Drivers/STM32N6xx_HAL_Driver/Src/stm32n6xx_hal_rif.c ****       assert_param(IS_RISAF_GRANULARITY(RISAFx, (pConfig->EndAddress + 1U)));
 9532              		.loc 1 854 7 discriminator 41
 9533 0e16 3B68     		ldr	r3, [r7]
 9534 0e18 5B69     		ldr	r3, [r3, #20]
 9535 0e1a B3F5005F 		cmp	r3, #8192
 9536 0e1e 0DD3     		bcc	.L529
 9537              	.L541:
 854:STM32Cube_FW_N6/Drivers/STM32N6xx_HAL_Driver/Src/stm32n6xx_hal_rif.c ****       assert_param(IS_RISAF_GRANULARITY(RISAFx, (pConfig->EndAddress + 1U)));
 9538              		.loc 1 854 7 discriminator 42
 9539 0e20 FB68     		ldr	r3, [r7, #12]
 9540 0e22 5B4A     		ldr	r2, .L601+68
 9541 0e24 9342     		cmp	r3, r2
 9542 0e26 04D1     		bne	.L542
 854:STM32Cube_FW_N6/Drivers/STM32N6xx_HAL_Driver/Src/stm32n6xx_hal_rif.c ****       assert_param(IS_RISAF_GRANULARITY(RISAFx, (pConfig->EndAddress + 1U)));
 9543              		.loc 1 854 7 discriminator 44
 9544 0e28 3B68     		ldr	r3, [r7]
 9545 0e2a 5B69     		ldr	r3, [r3, #20]
 9546 0e2c B3F5805F 		cmp	r3, #4096
 9547 0e30 04D3     		bcc	.L529
 9548              	.L542:
 854:STM32Cube_FW_N6/Drivers/STM32N6xx_HAL_Driver/Src/stm32n6xx_hal_rif.c ****       assert_param(IS_RISAF_GRANULARITY(RISAFx, (pConfig->EndAddress + 1U)));
 9549              		.loc 1 854 7 discriminator 45
 9550 0e32 40F25631 		movw	r1, #854
 9551 0e36 4548     		ldr	r0, .L601
 9552 0e38 FFF7FEFF 		bl	assert_failed
 9553              	.L529:
 855:STM32Cube_FW_N6/Drivers/STM32N6xx_HAL_Driver/Src/stm32n6xx_hal_rif.c ****       assert_param(IS_RISAF_LIMIT_ADDRESS_SPACE_SIZE(RISAFx, pConfig->EndAddress));
 9554              		.loc 1 855 7 is_stmt 1
 9555 0e3c FB68     		ldr	r3, [r7, #12]
 9556 0e3e 444A     		ldr	r2, .L601+4
 9557 0e40 9342     		cmp	r3, r2
 9558 0e42 0AD1     		bne	.L543
 855:STM32Cube_FW_N6/Drivers/STM32N6xx_HAL_Driver/Src/stm32n6xx_hal_rif.c ****       assert_param(IS_RISAF_LIMIT_ADDRESS_SPACE_SIZE(RISAFx, pConfig->EndAddress));
 9559              		.loc 1 855 7 is_stmt 0 discriminator 1
 9560 0e44 3B68     		ldr	r3, [r7]
 9561 0e46 9B69     		ldr	r3, [r3, #24]
 9562 0e48 0133     		adds	r3, r3, #1
 9563 0e4a C3F30B03 		ubfx	r3, r3, #0, #12
 9564 0e4e 002B     		cmp	r3, #0
 9565 0e50 0CBF     		ite	eq
 9566 0e52 0123     		moveq	r3, #1
 9567 0e54 0023     		movne	r3, #0
 9568 0e56 DBB2     		uxtb	r3, r3
 9569 0e58 F1E0     		b	.L544
 9570              	.L543:
 855:STM32Cube_FW_N6/Drivers/STM32N6xx_HAL_Driver/Src/stm32n6xx_hal_rif.c ****       assert_param(IS_RISAF_LIMIT_ADDRESS_SPACE_SIZE(RISAFx, pConfig->EndAddress));
ARM GAS  /tmp/ccRTEIeG.s 			page 198


 9571              		.loc 1 855 7 discriminator 2
 9572 0e5a FB68     		ldr	r3, [r7, #12]
 9573 0e5c 3D4A     		ldr	r2, .L601+8
 9574 0e5e 9342     		cmp	r3, r2
 9575 0e60 0AD1     		bne	.L545
 855:STM32Cube_FW_N6/Drivers/STM32N6xx_HAL_Driver/Src/stm32n6xx_hal_rif.c ****       assert_param(IS_RISAF_LIMIT_ADDRESS_SPACE_SIZE(RISAFx, pConfig->EndAddress));
 9576              		.loc 1 855 7 discriminator 4
 9577 0e62 3B68     		ldr	r3, [r7]
 9578 0e64 9B69     		ldr	r3, [r3, #24]
 9579 0e66 0133     		adds	r3, r3, #1
 9580 0e68 C3F30B03 		ubfx	r3, r3, #0, #12
 9581 0e6c 002B     		cmp	r3, #0
 9582 0e6e 0CBF     		ite	eq
 9583 0e70 0123     		moveq	r3, #1
 9584 0e72 0023     		movne	r3, #0
 9585 0e74 DBB2     		uxtb	r3, r3
 9586 0e76 E2E0     		b	.L544
 9587              	.L545:
 855:STM32Cube_FW_N6/Drivers/STM32N6xx_HAL_Driver/Src/stm32n6xx_hal_rif.c ****       assert_param(IS_RISAF_LIMIT_ADDRESS_SPACE_SIZE(RISAFx, pConfig->EndAddress));
 9588              		.loc 1 855 7 discriminator 5
 9589 0e78 FB68     		ldr	r3, [r7, #12]
 9590 0e7a 374A     		ldr	r2, .L601+12
 9591 0e7c 9342     		cmp	r3, r2
 9592 0e7e 0AD1     		bne	.L547
 855:STM32Cube_FW_N6/Drivers/STM32N6xx_HAL_Driver/Src/stm32n6xx_hal_rif.c ****       assert_param(IS_RISAF_LIMIT_ADDRESS_SPACE_SIZE(RISAFx, pConfig->EndAddress));
 9593              		.loc 1 855 7 discriminator 7
 9594 0e80 3B68     		ldr	r3, [r7]
 9595 0e82 9B69     		ldr	r3, [r3, #24]
 9596 0e84 0133     		adds	r3, r3, #1
 9597 0e86 C3F30B03 		ubfx	r3, r3, #0, #12
 9598 0e8a 002B     		cmp	r3, #0
 9599 0e8c 0CBF     		ite	eq
 9600 0e8e 0123     		moveq	r3, #1
 9601 0e90 0023     		movne	r3, #0
 9602 0e92 DBB2     		uxtb	r3, r3
 9603 0e94 D3E0     		b	.L544
 9604              	.L547:
 855:STM32Cube_FW_N6/Drivers/STM32N6xx_HAL_Driver/Src/stm32n6xx_hal_rif.c ****       assert_param(IS_RISAF_LIMIT_ADDRESS_SPACE_SIZE(RISAFx, pConfig->EndAddress));
 9605              		.loc 1 855 7 discriminator 8
 9606 0e96 FB68     		ldr	r3, [r7, #12]
 9607 0e98 304A     		ldr	r2, .L601+16
 9608 0e9a 9342     		cmp	r3, r2
 9609 0e9c 0AD1     		bne	.L549
 855:STM32Cube_FW_N6/Drivers/STM32N6xx_HAL_Driver/Src/stm32n6xx_hal_rif.c ****       assert_param(IS_RISAF_LIMIT_ADDRESS_SPACE_SIZE(RISAFx, pConfig->EndAddress));
 9610              		.loc 1 855 7 discriminator 10
 9611 0e9e 3B68     		ldr	r3, [r7]
 9612 0ea0 9B69     		ldr	r3, [r3, #24]
 9613 0ea2 0133     		adds	r3, r3, #1
 9614 0ea4 C3F30B03 		ubfx	r3, r3, #0, #12
 9615 0ea8 002B     		cmp	r3, #0
 9616 0eaa 0CBF     		ite	eq
 9617 0eac 0123     		moveq	r3, #1
 9618 0eae 0023     		movne	r3, #0
 9619 0eb0 DBB2     		uxtb	r3, r3
 9620 0eb2 C4E0     		b	.L544
 9621              	.L549:
 855:STM32Cube_FW_N6/Drivers/STM32N6xx_HAL_Driver/Src/stm32n6xx_hal_rif.c ****       assert_param(IS_RISAF_LIMIT_ADDRESS_SPACE_SIZE(RISAFx, pConfig->EndAddress));
ARM GAS  /tmp/ccRTEIeG.s 			page 199


 9622              		.loc 1 855 7 discriminator 11
 9623 0eb4 FB68     		ldr	r3, [r7, #12]
 9624 0eb6 2A4A     		ldr	r2, .L601+20
 9625 0eb8 9342     		cmp	r3, r2
 9626 0eba 0AD1     		bne	.L551
 855:STM32Cube_FW_N6/Drivers/STM32N6xx_HAL_Driver/Src/stm32n6xx_hal_rif.c ****       assert_param(IS_RISAF_LIMIT_ADDRESS_SPACE_SIZE(RISAFx, pConfig->EndAddress));
 9627              		.loc 1 855 7 discriminator 13
 9628 0ebc 3B68     		ldr	r3, [r7]
 9629 0ebe 9B69     		ldr	r3, [r3, #24]
 9630 0ec0 0133     		adds	r3, r3, #1
 9631 0ec2 C3F30B03 		ubfx	r3, r3, #0, #12
 9632 0ec6 002B     		cmp	r3, #0
 9633 0ec8 0CBF     		ite	eq
 9634 0eca 0123     		moveq	r3, #1
 9635 0ecc 0023     		movne	r3, #0
 9636 0ece DBB2     		uxtb	r3, r3
 9637 0ed0 B5E0     		b	.L544
 9638              	.L551:
 855:STM32Cube_FW_N6/Drivers/STM32N6xx_HAL_Driver/Src/stm32n6xx_hal_rif.c ****       assert_param(IS_RISAF_LIMIT_ADDRESS_SPACE_SIZE(RISAFx, pConfig->EndAddress));
 9639              		.loc 1 855 7 discriminator 14
 9640 0ed2 FB68     		ldr	r3, [r7, #12]
 9641 0ed4 234A     		ldr	r2, .L601+24
 9642 0ed6 9342     		cmp	r3, r2
 9643 0ed8 0AD1     		bne	.L553
 855:STM32Cube_FW_N6/Drivers/STM32N6xx_HAL_Driver/Src/stm32n6xx_hal_rif.c ****       assert_param(IS_RISAF_LIMIT_ADDRESS_SPACE_SIZE(RISAFx, pConfig->EndAddress));
 9644              		.loc 1 855 7 discriminator 16
 9645 0eda 3B68     		ldr	r3, [r7]
 9646 0edc 9B69     		ldr	r3, [r3, #24]
 9647 0ede 0133     		adds	r3, r3, #1
 9648 0ee0 C3F30B03 		ubfx	r3, r3, #0, #12
 9649 0ee4 002B     		cmp	r3, #0
 9650 0ee6 0CBF     		ite	eq
 9651 0ee8 0123     		moveq	r3, #1
 9652 0eea 0023     		movne	r3, #0
 9653 0eec DBB2     		uxtb	r3, r3
 9654 0eee A6E0     		b	.L544
 9655              	.L553:
 855:STM32Cube_FW_N6/Drivers/STM32N6xx_HAL_Driver/Src/stm32n6xx_hal_rif.c ****       assert_param(IS_RISAF_LIMIT_ADDRESS_SPACE_SIZE(RISAFx, pConfig->EndAddress));
 9656              		.loc 1 855 7 discriminator 17
 9657 0ef0 FB68     		ldr	r3, [r7, #12]
 9658 0ef2 1D4A     		ldr	r2, .L601+28
 9659 0ef4 9342     		cmp	r3, r2
 9660 0ef6 0AD1     		bne	.L555
 855:STM32Cube_FW_N6/Drivers/STM32N6xx_HAL_Driver/Src/stm32n6xx_hal_rif.c ****       assert_param(IS_RISAF_LIMIT_ADDRESS_SPACE_SIZE(RISAFx, pConfig->EndAddress));
 9661              		.loc 1 855 7 discriminator 19
 9662 0ef8 3B68     		ldr	r3, [r7]
 9663 0efa 9B69     		ldr	r3, [r3, #24]
 9664 0efc 0133     		adds	r3, r3, #1
 9665 0efe C3F30B03 		ubfx	r3, r3, #0, #12
 9666 0f02 002B     		cmp	r3, #0
 9667 0f04 0CBF     		ite	eq
 9668 0f06 0123     		moveq	r3, #1
 9669 0f08 0023     		movne	r3, #0
 9670 0f0a DBB2     		uxtb	r3, r3
 9671 0f0c 97E0     		b	.L544
 9672              	.L555:
 855:STM32Cube_FW_N6/Drivers/STM32N6xx_HAL_Driver/Src/stm32n6xx_hal_rif.c ****       assert_param(IS_RISAF_LIMIT_ADDRESS_SPACE_SIZE(RISAFx, pConfig->EndAddress));
ARM GAS  /tmp/ccRTEIeG.s 			page 200


 9673              		.loc 1 855 7 discriminator 20
 9674 0f0e FB68     		ldr	r3, [r7, #12]
 9675 0f10 164A     		ldr	r2, .L601+32
 9676 0f12 9342     		cmp	r3, r2
 9677 0f14 0AD1     		bne	.L557
 855:STM32Cube_FW_N6/Drivers/STM32N6xx_HAL_Driver/Src/stm32n6xx_hal_rif.c ****       assert_param(IS_RISAF_LIMIT_ADDRESS_SPACE_SIZE(RISAFx, pConfig->EndAddress));
 9678              		.loc 1 855 7 discriminator 22
 9679 0f16 3B68     		ldr	r3, [r7]
 9680 0f18 9B69     		ldr	r3, [r3, #24]
 9681 0f1a 0133     		adds	r3, r3, #1
 9682 0f1c C3F30B03 		ubfx	r3, r3, #0, #12
 9683 0f20 002B     		cmp	r3, #0
 9684 0f22 0CBF     		ite	eq
 9685 0f24 0123     		moveq	r3, #1
 9686 0f26 0023     		movne	r3, #0
 9687 0f28 DBB2     		uxtb	r3, r3
 9688 0f2a 88E0     		b	.L544
 9689              	.L557:
 855:STM32Cube_FW_N6/Drivers/STM32N6xx_HAL_Driver/Src/stm32n6xx_hal_rif.c ****       assert_param(IS_RISAF_LIMIT_ADDRESS_SPACE_SIZE(RISAFx, pConfig->EndAddress));
 9690              		.loc 1 855 7 discriminator 23
 9691 0f2c FB68     		ldr	r3, [r7, #12]
 9692 0f2e 104A     		ldr	r2, .L601+36
 9693 0f30 9342     		cmp	r3, r2
 9694 0f32 2FD1     		bne	.L559
 855:STM32Cube_FW_N6/Drivers/STM32N6xx_HAL_Driver/Src/stm32n6xx_hal_rif.c ****       assert_param(IS_RISAF_LIMIT_ADDRESS_SPACE_SIZE(RISAFx, pConfig->EndAddress));
 9695              		.loc 1 855 7 discriminator 25
 9696 0f34 3B68     		ldr	r3, [r7]
 9697 0f36 9B69     		ldr	r3, [r3, #24]
 9698 0f38 0133     		adds	r3, r3, #1
 9699 0f3a C3F30B03 		ubfx	r3, r3, #0, #12
 9700 0f3e 002B     		cmp	r3, #0
 9701 0f40 0CBF     		ite	eq
 9702 0f42 0123     		moveq	r3, #1
 9703 0f44 0023     		movne	r3, #0
 9704 0f46 DBB2     		uxtb	r3, r3
 9705 0f48 79E0     		b	.L544
 9706              	.L602:
 9707 0f4a 00BF     		.align	2
 9708              	.L601:
 9709 0f4c 00000000 		.word	.LC0
 9710 0f50 00600254 		.word	1409441792
 9711 0f54 00700254 		.word	1409445888
 9712 0f58 00800254 		.word	1409449984
 9713 0f5c 00900254 		.word	1409454080
 9714 0f60 00A00254 		.word	1409458176
 9715 0f64 00B00254 		.word	1409462272
 9716 0f68 00C00254 		.word	1409466368
 9717 0f6c 00D00254 		.word	1409470464
 9718 0f70 00E00254 		.word	1409474560
 9719 0f74 00000354 		.word	1409482752
 9720 0f78 00100354 		.word	1409486848
 9721 0f7c 00200354 		.word	1409490944
 9722 0f80 00300354 		.word	1409495040
 9723 0f84 00400354 		.word	1409499136
 9724 0f88 00500354 		.word	1409503232
 9725 0f8c 00600354 		.word	1409507328
 9726 0f90 00700354 		.word	1409511424
ARM GAS  /tmp/ccRTEIeG.s 			page 201


 9727              	.L559:
 855:STM32Cube_FW_N6/Drivers/STM32N6xx_HAL_Driver/Src/stm32n6xx_hal_rif.c ****       assert_param(IS_RISAF_LIMIT_ADDRESS_SPACE_SIZE(RISAFx, pConfig->EndAddress));
 9728              		.loc 1 855 7 discriminator 26
 9729 0f94 FB68     		ldr	r3, [r7, #12]
 9730 0f96 904A     		ldr	r2, .L603
 9731 0f98 9342     		cmp	r3, r2
 9732 0f9a 0AD1     		bne	.L561
 855:STM32Cube_FW_N6/Drivers/STM32N6xx_HAL_Driver/Src/stm32n6xx_hal_rif.c ****       assert_param(IS_RISAF_LIMIT_ADDRESS_SPACE_SIZE(RISAFx, pConfig->EndAddress));
 9733              		.loc 1 855 7 discriminator 28
 9734 0f9c 3B68     		ldr	r3, [r7]
 9735 0f9e 9B69     		ldr	r3, [r3, #24]
 9736 0fa0 0133     		adds	r3, r3, #1
 9737 0fa2 C3F30B03 		ubfx	r3, r3, #0, #12
 9738 0fa6 002B     		cmp	r3, #0
 9739 0fa8 0CBF     		ite	eq
 9740 0faa 0123     		moveq	r3, #1
 9741 0fac 0023     		movne	r3, #0
 9742 0fae DBB2     		uxtb	r3, r3
 9743 0fb0 45E0     		b	.L544
 9744              	.L561:
 855:STM32Cube_FW_N6/Drivers/STM32N6xx_HAL_Driver/Src/stm32n6xx_hal_rif.c ****       assert_param(IS_RISAF_LIMIT_ADDRESS_SPACE_SIZE(RISAFx, pConfig->EndAddress));
 9745              		.loc 1 855 7 discriminator 29
 9746 0fb2 FB68     		ldr	r3, [r7, #12]
 9747 0fb4 894A     		ldr	r2, .L603+4
 9748 0fb6 9342     		cmp	r3, r2
 9749 0fb8 0AD1     		bne	.L563
 855:STM32Cube_FW_N6/Drivers/STM32N6xx_HAL_Driver/Src/stm32n6xx_hal_rif.c ****       assert_param(IS_RISAF_LIMIT_ADDRESS_SPACE_SIZE(RISAFx, pConfig->EndAddress));
 9750              		.loc 1 855 7 discriminator 31
 9751 0fba 3B68     		ldr	r3, [r7]
 9752 0fbc 9B69     		ldr	r3, [r3, #24]
 9753 0fbe 0133     		adds	r3, r3, #1
 9754 0fc0 C3F30B03 		ubfx	r3, r3, #0, #12
 9755 0fc4 002B     		cmp	r3, #0
 9756 0fc6 0CBF     		ite	eq
 9757 0fc8 0123     		moveq	r3, #1
 9758 0fca 0023     		movne	r3, #0
 9759 0fcc DBB2     		uxtb	r3, r3
 9760 0fce 36E0     		b	.L544
 9761              	.L563:
 855:STM32Cube_FW_N6/Drivers/STM32N6xx_HAL_Driver/Src/stm32n6xx_hal_rif.c ****       assert_param(IS_RISAF_LIMIT_ADDRESS_SPACE_SIZE(RISAFx, pConfig->EndAddress));
 9762              		.loc 1 855 7 discriminator 32
 9763 0fd0 FB68     		ldr	r3, [r7, #12]
 9764 0fd2 834A     		ldr	r2, .L603+8
 9765 0fd4 9342     		cmp	r3, r2
 9766 0fd6 0AD1     		bne	.L565
 855:STM32Cube_FW_N6/Drivers/STM32N6xx_HAL_Driver/Src/stm32n6xx_hal_rif.c ****       assert_param(IS_RISAF_LIMIT_ADDRESS_SPACE_SIZE(RISAFx, pConfig->EndAddress));
 9767              		.loc 1 855 7 discriminator 34
 9768 0fd8 3B68     		ldr	r3, [r7]
 9769 0fda 9B69     		ldr	r3, [r3, #24]
 9770 0fdc 0133     		adds	r3, r3, #1
 9771 0fde C3F30B03 		ubfx	r3, r3, #0, #12
 9772 0fe2 002B     		cmp	r3, #0
 9773 0fe4 0CBF     		ite	eq
 9774 0fe6 0123     		moveq	r3, #1
 9775 0fe8 0023     		movne	r3, #0
 9776 0fea DBB2     		uxtb	r3, r3
 9777 0fec 27E0     		b	.L544
ARM GAS  /tmp/ccRTEIeG.s 			page 202


 9778              	.L565:
 855:STM32Cube_FW_N6/Drivers/STM32N6xx_HAL_Driver/Src/stm32n6xx_hal_rif.c ****       assert_param(IS_RISAF_LIMIT_ADDRESS_SPACE_SIZE(RISAFx, pConfig->EndAddress));
 9779              		.loc 1 855 7 discriminator 35
 9780 0fee FB68     		ldr	r3, [r7, #12]
 9781 0ff0 7C4A     		ldr	r2, .L603+12
 9782 0ff2 9342     		cmp	r3, r2
 9783 0ff4 0AD1     		bne	.L567
 855:STM32Cube_FW_N6/Drivers/STM32N6xx_HAL_Driver/Src/stm32n6xx_hal_rif.c ****       assert_param(IS_RISAF_LIMIT_ADDRESS_SPACE_SIZE(RISAFx, pConfig->EndAddress));
 9784              		.loc 1 855 7 discriminator 37
 9785 0ff6 3B68     		ldr	r3, [r7]
 9786 0ff8 9B69     		ldr	r3, [r3, #24]
 9787 0ffa 0133     		adds	r3, r3, #1
 9788 0ffc C3F30B03 		ubfx	r3, r3, #0, #12
 9789 1000 002B     		cmp	r3, #0
 9790 1002 0CBF     		ite	eq
 9791 1004 0123     		moveq	r3, #1
 9792 1006 0023     		movne	r3, #0
 9793 1008 DBB2     		uxtb	r3, r3
 9794 100a 18E0     		b	.L544
 9795              	.L567:
 855:STM32Cube_FW_N6/Drivers/STM32N6xx_HAL_Driver/Src/stm32n6xx_hal_rif.c ****       assert_param(IS_RISAF_LIMIT_ADDRESS_SPACE_SIZE(RISAFx, pConfig->EndAddress));
 9796              		.loc 1 855 7 discriminator 38
 9797 100c FB68     		ldr	r3, [r7, #12]
 9798 100e 764A     		ldr	r2, .L603+16
 9799 1010 9342     		cmp	r3, r2
 9800 1012 0AD1     		bne	.L569
 855:STM32Cube_FW_N6/Drivers/STM32N6xx_HAL_Driver/Src/stm32n6xx_hal_rif.c ****       assert_param(IS_RISAF_LIMIT_ADDRESS_SPACE_SIZE(RISAFx, pConfig->EndAddress));
 9801              		.loc 1 855 7 discriminator 40
 9802 1014 3B68     		ldr	r3, [r7]
 9803 1016 9B69     		ldr	r3, [r3, #24]
 9804 1018 0133     		adds	r3, r3, #1
 9805 101a 03F00303 		and	r3, r3, #3
 9806 101e 002B     		cmp	r3, #0
 9807 1020 0CBF     		ite	eq
 9808 1022 0123     		moveq	r3, #1
 9809 1024 0023     		movne	r3, #0
 9810 1026 DBB2     		uxtb	r3, r3
 9811 1028 09E0     		b	.L544
 9812              	.L569:
 855:STM32Cube_FW_N6/Drivers/STM32N6xx_HAL_Driver/Src/stm32n6xx_hal_rif.c ****       assert_param(IS_RISAF_LIMIT_ADDRESS_SPACE_SIZE(RISAFx, pConfig->EndAddress));
 9813              		.loc 1 855 7 discriminator 41
 9814 102a 3B68     		ldr	r3, [r7]
 9815 102c 9B69     		ldr	r3, [r3, #24]
 9816 102e 0133     		adds	r3, r3, #1
 9817 1030 C3F30803 		ubfx	r3, r3, #0, #9
 9818 1034 002B     		cmp	r3, #0
 9819 1036 0CBF     		ite	eq
 9820 1038 0123     		moveq	r3, #1
 9821 103a 0023     		movne	r3, #0
 9822 103c DBB2     		uxtb	r3, r3
 9823              	.L544:
 855:STM32Cube_FW_N6/Drivers/STM32N6xx_HAL_Driver/Src/stm32n6xx_hal_rif.c ****       assert_param(IS_RISAF_LIMIT_ADDRESS_SPACE_SIZE(RISAFx, pConfig->EndAddress));
 9824              		.loc 1 855 7 discriminator 56
 9825 103e 002B     		cmp	r3, #0
 9826 1040 04D1     		bne	.L571
 855:STM32Cube_FW_N6/Drivers/STM32N6xx_HAL_Driver/Src/stm32n6xx_hal_rif.c ****       assert_param(IS_RISAF_LIMIT_ADDRESS_SPACE_SIZE(RISAFx, pConfig->EndAddress));
 9827              		.loc 1 855 7 discriminator 57
ARM GAS  /tmp/ccRTEIeG.s 			page 203


 9828 1042 40F25731 		movw	r1, #855
 9829 1046 6948     		ldr	r0, .L603+20
 9830 1048 FFF7FEFF 		bl	assert_failed
 9831              	.L571:
 856:STM32Cube_FW_N6/Drivers/STM32N6xx_HAL_Driver/Src/stm32n6xx_hal_rif.c ****       assert_param(pConfig->StartAddress < pConfig->EndAddress);
 9832              		.loc 1 856 7 is_stmt 1
 9833 104c FB68     		ldr	r3, [r7, #12]
 9834 104e 684A     		ldr	r2, .L603+24
 9835 1050 9342     		cmp	r3, r2
 9836 1052 05D1     		bne	.L572
 856:STM32Cube_FW_N6/Drivers/STM32N6xx_HAL_Driver/Src/stm32n6xx_hal_rif.c ****       assert_param(pConfig->StartAddress < pConfig->EndAddress);
 9837              		.loc 1 856 7 is_stmt 0 discriminator 2
 9838 1054 3B68     		ldr	r3, [r7]
 9839 1056 9B69     		ldr	r3, [r3, #24]
 9840 1058 B3F1804F 		cmp	r3, #1073741824
 9841 105c C0F08680 		bcc	.L573
 9842              	.L572:
 856:STM32Cube_FW_N6/Drivers/STM32N6xx_HAL_Driver/Src/stm32n6xx_hal_rif.c ****       assert_param(pConfig->StartAddress < pConfig->EndAddress);
 9843              		.loc 1 856 7 discriminator 3
 9844 1060 FB68     		ldr	r3, [r7, #12]
 9845 1062 644A     		ldr	r2, .L603+28
 9846 1064 9342     		cmp	r3, r2
 9847 1066 04D1     		bne	.L574
 856:STM32Cube_FW_N6/Drivers/STM32N6xx_HAL_Driver/Src/stm32n6xx_hal_rif.c ****       assert_param(pConfig->StartAddress < pConfig->EndAddress);
 9848              		.loc 1 856 7 discriminator 5
 9849 1068 3B68     		ldr	r3, [r7]
 9850 106a 9B69     		ldr	r3, [r3, #24]
 9851 106c B3F5801F 		cmp	r3, #1048576
 9852 1070 7CD3     		bcc	.L573
 9853              	.L574:
 856:STM32Cube_FW_N6/Drivers/STM32N6xx_HAL_Driver/Src/stm32n6xx_hal_rif.c ****       assert_param(pConfig->StartAddress < pConfig->EndAddress);
 9854              		.loc 1 856 7 discriminator 6
 9855 1072 FB68     		ldr	r3, [r7, #12]
 9856 1074 604A     		ldr	r2, .L603+32
 9857 1076 9342     		cmp	r3, r2
 9858 1078 04D1     		bne	.L575
 856:STM32Cube_FW_N6/Drivers/STM32N6xx_HAL_Driver/Src/stm32n6xx_hal_rif.c ****       assert_param(pConfig->StartAddress < pConfig->EndAddress);
 9859              		.loc 1 856 7 discriminator 8
 9860 107a 3B68     		ldr	r3, [r7]
 9861 107c 9B69     		ldr	r3, [r3, #24]
 9862 107e B3F5801F 		cmp	r3, #1048576
 9863 1082 73D3     		bcc	.L573
 9864              	.L575:
 856:STM32Cube_FW_N6/Drivers/STM32N6xx_HAL_Driver/Src/stm32n6xx_hal_rif.c ****       assert_param(pConfig->StartAddress < pConfig->EndAddress);
 9865              		.loc 1 856 7 discriminator 9
 9866 1084 FB68     		ldr	r3, [r7, #12]
 9867 1086 5D4A     		ldr	r2, .L603+36
 9868 1088 9342     		cmp	r3, r2
 9869 108a 6FD0     		beq	.L573
 856:STM32Cube_FW_N6/Drivers/STM32N6xx_HAL_Driver/Src/stm32n6xx_hal_rif.c ****       assert_param(pConfig->StartAddress < pConfig->EndAddress);
 9870              		.loc 1 856 7 discriminator 10
 9871 108c FB68     		ldr	r3, [r7, #12]
 9872 108e 5C4A     		ldr	r2, .L603+40
 9873 1090 9342     		cmp	r3, r2
 9874 1092 6BD0     		beq	.L573
 856:STM32Cube_FW_N6/Drivers/STM32N6xx_HAL_Driver/Src/stm32n6xx_hal_rif.c ****       assert_param(pConfig->StartAddress < pConfig->EndAddress);
 9875              		.loc 1 856 7 discriminator 11
ARM GAS  /tmp/ccRTEIeG.s 			page 204


 9876 1094 FB68     		ldr	r3, [r7, #12]
 9877 1096 5B4A     		ldr	r2, .L603+44
 9878 1098 9342     		cmp	r3, r2
 9879 109a 67D0     		beq	.L573
 856:STM32Cube_FW_N6/Drivers/STM32N6xx_HAL_Driver/Src/stm32n6xx_hal_rif.c ****       assert_param(pConfig->StartAddress < pConfig->EndAddress);
 9880              		.loc 1 856 7 discriminator 12
 9881 109c FB68     		ldr	r3, [r7, #12]
 9882 109e 5A4A     		ldr	r2, .L603+48
 9883 10a0 9342     		cmp	r3, r2
 9884 10a2 04D1     		bne	.L576
 856:STM32Cube_FW_N6/Drivers/STM32N6xx_HAL_Driver/Src/stm32n6xx_hal_rif.c ****       assert_param(pConfig->StartAddress < pConfig->EndAddress);
 9885              		.loc 1 856 7 discriminator 14
 9886 10a4 3B68     		ldr	r3, [r7]
 9887 10a6 9B69     		ldr	r3, [r3, #24]
 9888 10a8 B3F5002F 		cmp	r3, #524288
 9889 10ac 5ED3     		bcc	.L573
 9890              	.L576:
 856:STM32Cube_FW_N6/Drivers/STM32N6xx_HAL_Driver/Src/stm32n6xx_hal_rif.c ****       assert_param(pConfig->StartAddress < pConfig->EndAddress);
 9891              		.loc 1 856 7 discriminator 15
 9892 10ae FB68     		ldr	r3, [r7, #12]
 9893 10b0 564A     		ldr	r2, .L603+52
 9894 10b2 9342     		cmp	r3, r2
 9895 10b4 04D1     		bne	.L577
 856:STM32Cube_FW_N6/Drivers/STM32N6xx_HAL_Driver/Src/stm32n6xx_hal_rif.c ****       assert_param(pConfig->StartAddress < pConfig->EndAddress);
 9896              		.loc 1 856 7 discriminator 17
 9897 10b6 3B68     		ldr	r3, [r7]
 9898 10b8 9B69     		ldr	r3, [r3, #24]
 9899 10ba B3F5802F 		cmp	r3, #262144
 9900 10be 55D3     		bcc	.L573
 9901              	.L577:
 856:STM32Cube_FW_N6/Drivers/STM32N6xx_HAL_Driver/Src/stm32n6xx_hal_rif.c ****       assert_param(pConfig->StartAddress < pConfig->EndAddress);
 9902              		.loc 1 856 7 discriminator 18
 9903 10c0 FB68     		ldr	r3, [r7, #12]
 9904 10c2 534A     		ldr	r2, .L603+56
 9905 10c4 9342     		cmp	r3, r2
 9906 10c6 04D1     		bne	.L578
 856:STM32Cube_FW_N6/Drivers/STM32N6xx_HAL_Driver/Src/stm32n6xx_hal_rif.c ****       assert_param(pConfig->StartAddress < pConfig->EndAddress);
 9907              		.loc 1 856 7 discriminator 20
 9908 10c8 3B68     		ldr	r3, [r7]
 9909 10ca 9B69     		ldr	r3, [r3, #24]
 9910 10cc B3F5003F 		cmp	r3, #131072
 9911 10d0 4CD3     		bcc	.L573
 9912              	.L578:
 856:STM32Cube_FW_N6/Drivers/STM32N6xx_HAL_Driver/Src/stm32n6xx_hal_rif.c ****       assert_param(pConfig->StartAddress < pConfig->EndAddress);
 9913              		.loc 1 856 7 discriminator 21
 9914 10d2 FB68     		ldr	r3, [r7, #12]
 9915 10d4 404A     		ldr	r2, .L603
 9916 10d6 9342     		cmp	r3, r2
 9917 10d8 04D1     		bne	.L579
 856:STM32Cube_FW_N6/Drivers/STM32N6xx_HAL_Driver/Src/stm32n6xx_hal_rif.c ****       assert_param(pConfig->StartAddress < pConfig->EndAddress);
 9918              		.loc 1 856 7 discriminator 23
 9919 10da 3B68     		ldr	r3, [r7]
 9920 10dc 9B69     		ldr	r3, [r3, #24]
 9921 10de B3F1805F 		cmp	r3, #268435456
 9922 10e2 43D3     		bcc	.L573
 9923              	.L579:
 856:STM32Cube_FW_N6/Drivers/STM32N6xx_HAL_Driver/Src/stm32n6xx_hal_rif.c ****       assert_param(pConfig->StartAddress < pConfig->EndAddress);
ARM GAS  /tmp/ccRTEIeG.s 			page 205


 9924              		.loc 1 856 7 discriminator 24
 9925 10e4 FB68     		ldr	r3, [r7, #12]
 9926 10e6 3D4A     		ldr	r2, .L603+4
 9927 10e8 9342     		cmp	r3, r2
 9928 10ea 04D1     		bne	.L580
 856:STM32Cube_FW_N6/Drivers/STM32N6xx_HAL_Driver/Src/stm32n6xx_hal_rif.c ****       assert_param(pConfig->StartAddress < pConfig->EndAddress);
 9929              		.loc 1 856 7 discriminator 26
 9930 10ec 3B68     		ldr	r3, [r7]
 9931 10ee 9B69     		ldr	r3, [r3, #24]
 9932 10f0 B3F1805F 		cmp	r3, #268435456
 9933 10f4 3AD3     		bcc	.L573
 9934              	.L580:
 856:STM32Cube_FW_N6/Drivers/STM32N6xx_HAL_Driver/Src/stm32n6xx_hal_rif.c ****       assert_param(pConfig->StartAddress < pConfig->EndAddress);
 9935              		.loc 1 856 7 discriminator 27
 9936 10f6 FB68     		ldr	r3, [r7, #12]
 9937 10f8 394A     		ldr	r2, .L603+8
 9938 10fa 9342     		cmp	r3, r2
 9939 10fc 04D1     		bne	.L581
 856:STM32Cube_FW_N6/Drivers/STM32N6xx_HAL_Driver/Src/stm32n6xx_hal_rif.c ****       assert_param(pConfig->StartAddress < pConfig->EndAddress);
 9940              		.loc 1 856 7 discriminator 29
 9941 10fe 3B68     		ldr	r3, [r7]
 9942 1100 9B69     		ldr	r3, [r3, #24]
 9943 1102 B3F1805F 		cmp	r3, #268435456
 9944 1106 31D3     		bcc	.L573
 9945              	.L581:
 856:STM32Cube_FW_N6/Drivers/STM32N6xx_HAL_Driver/Src/stm32n6xx_hal_rif.c ****       assert_param(pConfig->StartAddress < pConfig->EndAddress);
 9946              		.loc 1 856 7 discriminator 30
 9947 1108 FB68     		ldr	r3, [r7, #12]
 9948 110a 364A     		ldr	r2, .L603+12
 9949 110c 9342     		cmp	r3, r2
 9950 110e 04D1     		bne	.L582
 856:STM32Cube_FW_N6/Drivers/STM32N6xx_HAL_Driver/Src/stm32n6xx_hal_rif.c ****       assert_param(pConfig->StartAddress < pConfig->EndAddress);
 9951              		.loc 1 856 7 discriminator 32
 9952 1110 3B68     		ldr	r3, [r7]
 9953 1112 9B69     		ldr	r3, [r3, #24]
 9954 1114 B3F1805F 		cmp	r3, #268435456
 9955 1118 28D3     		bcc	.L573
 9956              	.L582:
 856:STM32Cube_FW_N6/Drivers/STM32N6xx_HAL_Driver/Src/stm32n6xx_hal_rif.c ****       assert_param(pConfig->StartAddress < pConfig->EndAddress);
 9957              		.loc 1 856 7 discriminator 33
 9958 111a FB68     		ldr	r3, [r7, #12]
 9959 111c 324A     		ldr	r2, .L603+16
 9960 111e 9342     		cmp	r3, r2
 9961 1120 04D1     		bne	.L583
 856:STM32Cube_FW_N6/Drivers/STM32N6xx_HAL_Driver/Src/stm32n6xx_hal_rif.c ****       assert_param(pConfig->StartAddress < pConfig->EndAddress);
 9962              		.loc 1 856 7 discriminator 35
 9963 1122 3B68     		ldr	r3, [r7]
 9964 1124 9B69     		ldr	r3, [r3, #24]
 9965 1126 B3F5805F 		cmp	r3, #4096
 9966 112a 1FD3     		bcc	.L573
 9967              	.L583:
 856:STM32Cube_FW_N6/Drivers/STM32N6xx_HAL_Driver/Src/stm32n6xx_hal_rif.c ****       assert_param(pConfig->StartAddress < pConfig->EndAddress);
 9968              		.loc 1 856 7 discriminator 36
 9969 112c FB68     		ldr	r3, [r7, #12]
 9970 112e 394A     		ldr	r2, .L603+60
 9971 1130 9342     		cmp	r3, r2
 9972 1132 04D1     		bne	.L584
ARM GAS  /tmp/ccRTEIeG.s 			page 206


 856:STM32Cube_FW_N6/Drivers/STM32N6xx_HAL_Driver/Src/stm32n6xx_hal_rif.c ****       assert_param(pConfig->StartAddress < pConfig->EndAddress);
 9973              		.loc 1 856 7 discriminator 38
 9974 1134 3B68     		ldr	r3, [r7]
 9975 1136 9B69     		ldr	r3, [r3, #24]
 9976 1138 B3F5005F 		cmp	r3, #8192
 9977 113c 16D3     		bcc	.L573
 9978              	.L584:
 856:STM32Cube_FW_N6/Drivers/STM32N6xx_HAL_Driver/Src/stm32n6xx_hal_rif.c ****       assert_param(pConfig->StartAddress < pConfig->EndAddress);
 9979              		.loc 1 856 7 discriminator 39
 9980 113e FB68     		ldr	r3, [r7, #12]
 9981 1140 354A     		ldr	r2, .L603+64
 9982 1142 9342     		cmp	r3, r2
 9983 1144 04D1     		bne	.L585
 856:STM32Cube_FW_N6/Drivers/STM32N6xx_HAL_Driver/Src/stm32n6xx_hal_rif.c ****       assert_param(pConfig->StartAddress < pConfig->EndAddress);
 9984              		.loc 1 856 7 discriminator 41
 9985 1146 3B68     		ldr	r3, [r7]
 9986 1148 9B69     		ldr	r3, [r3, #24]
 9987 114a B3F5005F 		cmp	r3, #8192
 9988 114e 0DD3     		bcc	.L573
 9989              	.L585:
 856:STM32Cube_FW_N6/Drivers/STM32N6xx_HAL_Driver/Src/stm32n6xx_hal_rif.c ****       assert_param(pConfig->StartAddress < pConfig->EndAddress);
 9990              		.loc 1 856 7 discriminator 42
 9991 1150 FB68     		ldr	r3, [r7, #12]
 9992 1152 324A     		ldr	r2, .L603+68
 9993 1154 9342     		cmp	r3, r2
 9994 1156 04D1     		bne	.L586
 856:STM32Cube_FW_N6/Drivers/STM32N6xx_HAL_Driver/Src/stm32n6xx_hal_rif.c ****       assert_param(pConfig->StartAddress < pConfig->EndAddress);
 9995              		.loc 1 856 7 discriminator 44
 9996 1158 3B68     		ldr	r3, [r7]
 9997 115a 9B69     		ldr	r3, [r3, #24]
 9998 115c B3F5805F 		cmp	r3, #4096
 9999 1160 04D3     		bcc	.L573
 10000              	.L586:
 856:STM32Cube_FW_N6/Drivers/STM32N6xx_HAL_Driver/Src/stm32n6xx_hal_rif.c ****       assert_param(pConfig->StartAddress < pConfig->EndAddress);
 10001              		.loc 1 856 7 discriminator 45
 10002 1162 4FF45671 		mov	r1, #856
 10003 1166 2148     		ldr	r0, .L603+20
 10004 1168 FFF7FEFF 		bl	assert_failed
 10005              	.L573:
 857:STM32Cube_FW_N6/Drivers/STM32N6xx_HAL_Driver/Src/stm32n6xx_hal_rif.c **** 
 10006              		.loc 1 857 7 is_stmt 1
 10007 116c 3B68     		ldr	r3, [r7]
 10008 116e 5A69     		ldr	r2, [r3, #20]
 10009 1170 3B68     		ldr	r3, [r7]
 10010 1172 9B69     		ldr	r3, [r3, #24]
 10011 1174 9A42     		cmp	r2, r3
 10012 1176 04D3     		bcc	.L587
 857:STM32Cube_FW_N6/Drivers/STM32N6xx_HAL_Driver/Src/stm32n6xx_hal_rif.c **** 
 10013              		.loc 1 857 7 is_stmt 0 discriminator 1
 10014 1178 40F25931 		movw	r1, #857
 10015 117c 1B48     		ldr	r0, .L603+20
 10016 117e FFF7FEFF 		bl	assert_failed
 10017              	.L587:
 859:STM32Cube_FW_N6/Drivers/STM32N6xx_HAL_Driver/Src/stm32n6xx_hal_rif.c ****       RISAFx->REG[Region].BENDR = pConfig->EndAddress;
 10018              		.loc 1 859 44 is_stmt 1
 10019 1182 3B68     		ldr	r3, [r7]
 10020 1184 5A69     		ldr	r2, [r3, #20]
ARM GAS  /tmp/ccRTEIeG.s 			page 207


 859:STM32Cube_FW_N6/Drivers/STM32N6xx_HAL_Driver/Src/stm32n6xx_hal_rif.c ****       RISAFx->REG[Region].BENDR = pConfig->EndAddress;
 10021              		.loc 1 859 35
 10022 1186 F968     		ldr	r1, [r7, #12]
 10023 1188 BB68     		ldr	r3, [r7, #8]
 10024 118a 9B01     		lsls	r3, r3, #6
 10025 118c 0B44     		add	r3, r3, r1
 10026 118e 6433     		adds	r3, r3, #100
 10027 1190 1A60     		str	r2, [r3]
 860:STM32Cube_FW_N6/Drivers/STM32N6xx_HAL_Driver/Src/stm32n6xx_hal_rif.c ****       RISAFx->REG[Region].BCFGR = (pConfig->Filtering  | (pConfig->Lock << RISAF_REGx_zCFGR_RLOCK_P
 10028              		.loc 1 860 42
 10029 1192 3B68     		ldr	r3, [r7]
 10030 1194 9A69     		ldr	r2, [r3, #24]
 860:STM32Cube_FW_N6/Drivers/STM32N6xx_HAL_Driver/Src/stm32n6xx_hal_rif.c ****       RISAFx->REG[Region].BCFGR = (pConfig->Filtering  | (pConfig->Lock << RISAF_REGx_zCFGR_RLOCK_P
 10031              		.loc 1 860 33
 10032 1196 F968     		ldr	r1, [r7, #12]
 10033 1198 BB68     		ldr	r3, [r7, #8]
 10034 119a 9B01     		lsls	r3, r3, #6
 10035 119c 0B44     		add	r3, r3, r1
 10036 119e 6833     		adds	r3, r3, #104
 10037 11a0 1A60     		str	r2, [r3]
 861:STM32Cube_FW_N6/Drivers/STM32N6xx_HAL_Driver/Src/stm32n6xx_hal_rif.c ****                                    | (cid << RISAF_REGx_zCFGR_SRCID_Pos) | (pConfig->SecPriv << RIS
 10038              		.loc 1 861 43
 10039 11a2 3B68     		ldr	r3, [r7]
 10040 11a4 1A68     		ldr	r2, [r3]
 861:STM32Cube_FW_N6/Drivers/STM32N6xx_HAL_Driver/Src/stm32n6xx_hal_rif.c ****                                    | (cid << RISAF_REGx_zCFGR_SRCID_Pos) | (pConfig->SecPriv << RIS
 10041              		.loc 1 861 66
 10042 11a6 3B68     		ldr	r3, [r7]
 10043 11a8 1B69     		ldr	r3, [r3, #16]
 861:STM32Cube_FW_N6/Drivers/STM32N6xx_HAL_Driver/Src/stm32n6xx_hal_rif.c ****                                    | (cid << RISAF_REGx_zCFGR_SRCID_Pos) | (pConfig->SecPriv << RIS
 10044              		.loc 1 861 73
 10045 11aa 5B00     		lsls	r3, r3, #1
 861:STM32Cube_FW_N6/Drivers/STM32N6xx_HAL_Driver/Src/stm32n6xx_hal_rif.c ****                                    | (cid << RISAF_REGx_zCFGR_SRCID_Pos) | (pConfig->SecPriv << RIS
 10046              		.loc 1 861 56
 10047 11ac 1A43     		orrs	r2, r2, r3
 862:STM32Cube_FW_N6/Drivers/STM32N6xx_HAL_Driver/Src/stm32n6xx_hal_rif.c ****                                    | (pConfig->ReadWrite));
 10048              		.loc 1 862 43
 10049 11ae FB69     		ldr	r3, [r7, #28]
 10050 11b0 1B01     		lsls	r3, r3, #4
 862:STM32Cube_FW_N6/Drivers/STM32N6xx_HAL_Driver/Src/stm32n6xx_hal_rif.c ****                                    | (pConfig->ReadWrite));
 10051              		.loc 1 862 36
 10052 11b2 1A43     		orrs	r2, r2, r3
 862:STM32Cube_FW_N6/Drivers/STM32N6xx_HAL_Driver/Src/stm32n6xx_hal_rif.c ****                                    | (pConfig->ReadWrite));
 10053              		.loc 1 862 84
 10054 11b4 3B68     		ldr	r3, [r7]
 10055 11b6 9B68     		ldr	r3, [r3, #8]
 862:STM32Cube_FW_N6/Drivers/STM32N6xx_HAL_Driver/Src/stm32n6xx_hal_rif.c ****                                    | (pConfig->ReadWrite));
 10056              		.loc 1 862 94
 10057 11b8 1B02     		lsls	r3, r3, #8
 862:STM32Cube_FW_N6/Drivers/STM32N6xx_HAL_Driver/Src/stm32n6xx_hal_rif.c ****                                    | (pConfig->ReadWrite));
 10058              		.loc 1 862 74
 10059 11ba 1A43     		orrs	r2, r2, r3
 863:STM32Cube_FW_N6/Drivers/STM32N6xx_HAL_Driver/Src/stm32n6xx_hal_rif.c ****     }
 10060              		.loc 1 863 46
 10061 11bc 3B68     		ldr	r3, [r7]
 10062 11be DB68     		ldr	r3, [r3, #12]
 863:STM32Cube_FW_N6/Drivers/STM32N6xx_HAL_Driver/Src/stm32n6xx_hal_rif.c ****     }
 10063              		.loc 1 863 36
ARM GAS  /tmp/ccRTEIeG.s 			page 208


 10064 11c0 1A43     		orrs	r2, r2, r3
 861:STM32Cube_FW_N6/Drivers/STM32N6xx_HAL_Driver/Src/stm32n6xx_hal_rif.c ****                                    | (cid << RISAF_REGx_zCFGR_SRCID_Pos) | (pConfig->SecPriv << RIS
 10065              		.loc 1 861 33
 10066 11c2 F968     		ldr	r1, [r7, #12]
 10067 11c4 BB68     		ldr	r3, [r7, #8]
 10068 11c6 9B01     		lsls	r3, r3, #6
 10069 11c8 0B44     		add	r3, r3, r1
 10070 11ca 6033     		adds	r3, r3, #96
 10071 11cc 1A60     		str	r2, [r3]
 10072              	.L588:
 10073              		.loc 1 866 1
 10074 11ce 00BF     		nop
 10075 11d0 2037     		adds	r7, r7, #32
 10076              		.cfi_def_cfa_offset 8
 10077 11d2 BD46     		mov	sp, r7
 10078              		.cfi_def_cfa_register 13
 10079              		@ sp needed
 10080 11d4 80BD     		pop	{r7, pc}
 10081              	.L604:
 10082 11d6 00BF     		.align	2
 10083              	.L603:
 10084 11d8 00000354 		.word	1409482752
 10085 11dc 00100354 		.word	1409486848
 10086 11e0 00200354 		.word	1409490944
 10087 11e4 00300354 		.word	1409495040
 10088 11e8 00400354 		.word	1409499136
 10089 11ec 00000000 		.word	.LC0
 10090 11f0 00600254 		.word	1409441792
 10091 11f4 00700254 		.word	1409445888
 10092 11f8 00800254 		.word	1409449984
 10093 11fc 00900254 		.word	1409454080
 10094 1200 00A00254 		.word	1409458176
 10095 1204 00B00254 		.word	1409462272
 10096 1208 00C00254 		.word	1409466368
 10097 120c 00D00254 		.word	1409470464
 10098 1210 00E00254 		.word	1409474560
 10099 1214 00500354 		.word	1409503232
 10100 1218 00600354 		.word	1409507328
 10101 121c 00700354 		.word	1409511424
 10102              		.cfi_endproc
 10103              	.LFE853:
 10105              		.section	.text.HAL_RIF_RISAF_GetConfigSubRegion,"ax",%progbits
 10106              		.align	1
 10107              		.global	HAL_RIF_RISAF_GetConfigSubRegion
 10108              		.syntax unified
 10109              		.thumb
 10110              		.thumb_func
 10112              	HAL_RIF_RISAF_GetConfigSubRegion:
 10113              	.LFB854:
 867:STM32Cube_FW_N6/Drivers/STM32N6xx_HAL_Driver/Src/stm32n6xx_hal_rif.c **** 
 868:STM32Cube_FW_N6/Drivers/STM32N6xx_HAL_Driver/Src/stm32n6xx_hal_rif.c **** /**
 869:STM32Cube_FW_N6/Drivers/STM32N6xx_HAL_Driver/Src/stm32n6xx_hal_rif.c ****   * @brief  Get the configuration of a RISAF Subregion.
 870:STM32Cube_FW_N6/Drivers/STM32N6xx_HAL_Driver/Src/stm32n6xx_hal_rif.c ****   * @param  RISAFx specifies the RISAF instance.
 871:STM32Cube_FW_N6/Drivers/STM32N6xx_HAL_Driver/Src/stm32n6xx_hal_rif.c ****   *         This parameter is one of the RISAF instances defined in the CMSIS.
 872:STM32Cube_FW_N6/Drivers/STM32N6xx_HAL_Driver/Src/stm32n6xx_hal_rif.c ****   * @param  Region specifies the RISAF region index
 873:STM32Cube_FW_N6/Drivers/STM32N6xx_HAL_Driver/Src/stm32n6xx_hal_rif.c ****   *         This parameter can be one one of the following values:
 874:STM32Cube_FW_N6/Drivers/STM32N6xx_HAL_Driver/Src/stm32n6xx_hal_rif.c ****   *           @arg @ref RISAF_REGION_1
ARM GAS  /tmp/ccRTEIeG.s 			page 209


 875:STM32Cube_FW_N6/Drivers/STM32N6xx_HAL_Driver/Src/stm32n6xx_hal_rif.c ****   *           @arg @ref RISAF_REGION_2
 876:STM32Cube_FW_N6/Drivers/STM32N6xx_HAL_Driver/Src/stm32n6xx_hal_rif.c ****   *           @arg @ref RISAF_REGION_3
 877:STM32Cube_FW_N6/Drivers/STM32N6xx_HAL_Driver/Src/stm32n6xx_hal_rif.c ****   *           @arg @ref RISAF_REGION_4
 878:STM32Cube_FW_N6/Drivers/STM32N6xx_HAL_Driver/Src/stm32n6xx_hal_rif.c ****   *           @arg @ref RISAF_REGION_5
 879:STM32Cube_FW_N6/Drivers/STM32N6xx_HAL_Driver/Src/stm32n6xx_hal_rif.c ****   *           @arg @ref RISAF_REGION_6
 880:STM32Cube_FW_N6/Drivers/STM32N6xx_HAL_Driver/Src/stm32n6xx_hal_rif.c ****   *           @arg @ref RISAF_REGION_7
 881:STM32Cube_FW_N6/Drivers/STM32N6xx_HAL_Driver/Src/stm32n6xx_hal_rif.c ****   *           @arg @ref RISAF_REGION_8
 882:STM32Cube_FW_N6/Drivers/STM32N6xx_HAL_Driver/Src/stm32n6xx_hal_rif.c ****   *           @arg @ref RISAF_REGION_9
 883:STM32Cube_FW_N6/Drivers/STM32N6xx_HAL_Driver/Src/stm32n6xx_hal_rif.c ****   *           @arg @ref RISAF_REGION_10
 884:STM32Cube_FW_N6/Drivers/STM32N6xx_HAL_Driver/Src/stm32n6xx_hal_rif.c ****   *           @arg @ref RISAF_REGION_11
 885:STM32Cube_FW_N6/Drivers/STM32N6xx_HAL_Driver/Src/stm32n6xx_hal_rif.c ****   *           @arg @ref RISAF_REGION_12
 886:STM32Cube_FW_N6/Drivers/STM32N6xx_HAL_Driver/Src/stm32n6xx_hal_rif.c ****   *           @arg @ref RISAF_REGION_13
 887:STM32Cube_FW_N6/Drivers/STM32N6xx_HAL_Driver/Src/stm32n6xx_hal_rif.c ****   *           @arg @ref RISAF_REGION_14
 888:STM32Cube_FW_N6/Drivers/STM32N6xx_HAL_Driver/Src/stm32n6xx_hal_rif.c ****   *           @arg @ref RISAF_REGION_15
 889:STM32Cube_FW_N6/Drivers/STM32N6xx_HAL_Driver/Src/stm32n6xx_hal_rif.c ****   * @param  SubRegion specifies the RISAB Subregion index
 890:STM32Cube_FW_N6/Drivers/STM32N6xx_HAL_Driver/Src/stm32n6xx_hal_rif.c ****   *         This parameter can be one of the following values:
 891:STM32Cube_FW_N6/Drivers/STM32N6xx_HAL_Driver/Src/stm32n6xx_hal_rif.c ****   *           @arg @ref RISAF_SUBREGION_A
 892:STM32Cube_FW_N6/Drivers/STM32N6xx_HAL_Driver/Src/stm32n6xx_hal_rif.c ****   *           @arg @ref RISAF_SUBREGION_B
 893:STM32Cube_FW_N6/Drivers/STM32N6xx_HAL_Driver/Src/stm32n6xx_hal_rif.c ****   * @param  pConfig Pointer on RISAF Base Region configuration structure
 894:STM32Cube_FW_N6/Drivers/STM32N6xx_HAL_Driver/Src/stm32n6xx_hal_rif.c ****   * @retval None
 895:STM32Cube_FW_N6/Drivers/STM32N6xx_HAL_Driver/Src/stm32n6xx_hal_rif.c ****   */
 896:STM32Cube_FW_N6/Drivers/STM32N6xx_HAL_Driver/Src/stm32n6xx_hal_rif.c **** void HAL_RIF_RISAF_GetConfigSubRegion(const RISAF_TypeDef *RISAFx, uint32_t Region, uint32_t SubReg
 897:STM32Cube_FW_N6/Drivers/STM32N6xx_HAL_Driver/Src/stm32n6xx_hal_rif.c ****                                       RISAF_SubRegionConfig_t *pConfig)
 898:STM32Cube_FW_N6/Drivers/STM32N6xx_HAL_Driver/Src/stm32n6xx_hal_rif.c **** {
 10114              		.loc 1 898 1
 10115              		.cfi_startproc
 10116              		@ args = 0, pretend = 0, frame = 24
 10117              		@ frame_needed = 1, uses_anonymous_args = 0
 10118 0000 80B5     		push	{r7, lr}
 10119              		.cfi_def_cfa_offset 8
 10120              		.cfi_offset 7, -8
 10121              		.cfi_offset 14, -4
 10122 0002 86B0     		sub	sp, sp, #24
 10123              		.cfi_def_cfa_offset 32
 10124 0004 00AF     		add	r7, sp, #0
 10125              		.cfi_def_cfa_register 7
 10126 0006 F860     		str	r0, [r7, #12]
 10127 0008 B960     		str	r1, [r7, #8]
 10128 000a 7A60     		str	r2, [r7, #4]
 10129 000c 3B60     		str	r3, [r7]
 899:STM32Cube_FW_N6/Drivers/STM32N6xx_HAL_Driver/Src/stm32n6xx_hal_rif.c ****   uint32_t cid;
 900:STM32Cube_FW_N6/Drivers/STM32N6xx_HAL_Driver/Src/stm32n6xx_hal_rif.c ****   uint32_t cfgr_reg;
 901:STM32Cube_FW_N6/Drivers/STM32N6xx_HAL_Driver/Src/stm32n6xx_hal_rif.c **** 
 902:STM32Cube_FW_N6/Drivers/STM32N6xx_HAL_Driver/Src/stm32n6xx_hal_rif.c ****   /* Check the parameters */
 903:STM32Cube_FW_N6/Drivers/STM32N6xx_HAL_Driver/Src/stm32n6xx_hal_rif.c ****   assert_param(pConfig != (void *)NULL);
 10130              		.loc 1 903 3
 10131 000e 3B68     		ldr	r3, [r7]
 10132 0010 002B     		cmp	r3, #0
 10133 0012 04D1     		bne	.L606
 10134              		.loc 1 903 3 is_stmt 0 discriminator 1
 10135 0014 40F28731 		movw	r1, #903
 10136 0018 8048     		ldr	r0, .L645
 10137 001a FFF7FEFF 		bl	assert_failed
 10138              	.L606:
 904:STM32Cube_FW_N6/Drivers/STM32N6xx_HAL_Driver/Src/stm32n6xx_hal_rif.c ****   assert_param(IS_RISAF_INSTANCE(RISAFx));
 10139              		.loc 1 904 3 is_stmt 1
 10140 001e FB68     		ldr	r3, [r7, #12]
ARM GAS  /tmp/ccRTEIeG.s 			page 210


 10141 0020 7F4A     		ldr	r2, .L645+4
 10142 0022 9342     		cmp	r3, r2
 10143 0024 44D0     		beq	.L607
 10144              		.loc 1 904 3 is_stmt 0 discriminator 1
 10145 0026 FB68     		ldr	r3, [r7, #12]
 10146 0028 7E4A     		ldr	r2, .L645+8
 10147 002a 9342     		cmp	r3, r2
 10148 002c 40D0     		beq	.L607
 10149              		.loc 1 904 3 discriminator 2
 10150 002e FB68     		ldr	r3, [r7, #12]
 10151 0030 7D4A     		ldr	r2, .L645+12
 10152 0032 9342     		cmp	r3, r2
 10153 0034 3CD0     		beq	.L607
 10154              		.loc 1 904 3 discriminator 3
 10155 0036 FB68     		ldr	r3, [r7, #12]
 10156 0038 7C4A     		ldr	r2, .L645+16
 10157 003a 9342     		cmp	r3, r2
 10158 003c 38D0     		beq	.L607
 10159              		.loc 1 904 3 discriminator 4
 10160 003e FB68     		ldr	r3, [r7, #12]
 10161 0040 7B4A     		ldr	r2, .L645+20
 10162 0042 9342     		cmp	r3, r2
 10163 0044 34D0     		beq	.L607
 10164              		.loc 1 904 3 discriminator 5
 10165 0046 FB68     		ldr	r3, [r7, #12]
 10166 0048 7A4A     		ldr	r2, .L645+24
 10167 004a 9342     		cmp	r3, r2
 10168 004c 30D0     		beq	.L607
 10169              		.loc 1 904 3 discriminator 6
 10170 004e FB68     		ldr	r3, [r7, #12]
 10171 0050 794A     		ldr	r2, .L645+28
 10172 0052 9342     		cmp	r3, r2
 10173 0054 2CD0     		beq	.L607
 10174              		.loc 1 904 3 discriminator 7
 10175 0056 FB68     		ldr	r3, [r7, #12]
 10176 0058 784A     		ldr	r2, .L645+32
 10177 005a 9342     		cmp	r3, r2
 10178 005c 28D0     		beq	.L607
 10179              		.loc 1 904 3 discriminator 8
 10180 005e FB68     		ldr	r3, [r7, #12]
 10181 0060 774A     		ldr	r2, .L645+36
 10182 0062 9342     		cmp	r3, r2
 10183 0064 24D0     		beq	.L607
 10184              		.loc 1 904 3 discriminator 9
 10185 0066 FB68     		ldr	r3, [r7, #12]
 10186 0068 764A     		ldr	r2, .L645+40
 10187 006a 9342     		cmp	r3, r2
 10188 006c 20D0     		beq	.L607
 10189              		.loc 1 904 3 discriminator 10
 10190 006e FB68     		ldr	r3, [r7, #12]
 10191 0070 754A     		ldr	r2, .L645+44
 10192 0072 9342     		cmp	r3, r2
 10193 0074 1CD0     		beq	.L607
 10194              		.loc 1 904 3 discriminator 11
 10195 0076 FB68     		ldr	r3, [r7, #12]
 10196 0078 744A     		ldr	r2, .L645+48
 10197 007a 9342     		cmp	r3, r2
ARM GAS  /tmp/ccRTEIeG.s 			page 211


 10198 007c 18D0     		beq	.L607
 10199              		.loc 1 904 3 discriminator 12
 10200 007e FB68     		ldr	r3, [r7, #12]
 10201 0080 734A     		ldr	r2, .L645+52
 10202 0082 9342     		cmp	r3, r2
 10203 0084 14D0     		beq	.L607
 10204              		.loc 1 904 3 discriminator 13
 10205 0086 FB68     		ldr	r3, [r7, #12]
 10206 0088 724A     		ldr	r2, .L645+56
 10207 008a 9342     		cmp	r3, r2
 10208 008c 10D0     		beq	.L607
 10209              		.loc 1 904 3 discriminator 14
 10210 008e FB68     		ldr	r3, [r7, #12]
 10211 0090 714A     		ldr	r2, .L645+60
 10212 0092 9342     		cmp	r3, r2
 10213 0094 0CD0     		beq	.L607
 10214              		.loc 1 904 3 discriminator 15
 10215 0096 FB68     		ldr	r3, [r7, #12]
 10216 0098 704A     		ldr	r2, .L645+64
 10217 009a 9342     		cmp	r3, r2
 10218 009c 08D0     		beq	.L607
 10219              		.loc 1 904 3 discriminator 16
 10220 009e FB68     		ldr	r3, [r7, #12]
 10221 00a0 6F4A     		ldr	r2, .L645+68
 10222 00a2 9342     		cmp	r3, r2
 10223 00a4 04D0     		beq	.L607
 10224              		.loc 1 904 3 discriminator 17
 10225 00a6 4FF46271 		mov	r1, #904
 10226 00aa 5C48     		ldr	r0, .L645
 10227 00ac FFF7FEFF 		bl	assert_failed
 10228              	.L607:
 905:STM32Cube_FW_N6/Drivers/STM32N6xx_HAL_Driver/Src/stm32n6xx_hal_rif.c ****   assert_param(IS_RISAF_REGION(Region));
 10229              		.loc 1 905 3 is_stmt 1
 10230 00b0 BB68     		ldr	r3, [r7, #8]
 10231 00b2 002B     		cmp	r3, #0
 10232 00b4 2ED0     		beq	.L608
 10233              		.loc 1 905 3 is_stmt 0 discriminator 1
 10234 00b6 BB68     		ldr	r3, [r7, #8]
 10235 00b8 012B     		cmp	r3, #1
 10236 00ba 2BD0     		beq	.L608
 10237              		.loc 1 905 3 discriminator 2
 10238 00bc BB68     		ldr	r3, [r7, #8]
 10239 00be 022B     		cmp	r3, #2
 10240 00c0 28D0     		beq	.L608
 10241              		.loc 1 905 3 discriminator 3
 10242 00c2 BB68     		ldr	r3, [r7, #8]
 10243 00c4 032B     		cmp	r3, #3
 10244 00c6 25D0     		beq	.L608
 10245              		.loc 1 905 3 discriminator 4
 10246 00c8 BB68     		ldr	r3, [r7, #8]
 10247 00ca 042B     		cmp	r3, #4
 10248 00cc 22D0     		beq	.L608
 10249              		.loc 1 905 3 discriminator 5
 10250 00ce BB68     		ldr	r3, [r7, #8]
 10251 00d0 052B     		cmp	r3, #5
 10252 00d2 1FD0     		beq	.L608
 10253              		.loc 1 905 3 discriminator 6
ARM GAS  /tmp/ccRTEIeG.s 			page 212


 10254 00d4 BB68     		ldr	r3, [r7, #8]
 10255 00d6 062B     		cmp	r3, #6
 10256 00d8 1CD0     		beq	.L608
 10257              		.loc 1 905 3 discriminator 7
 10258 00da BB68     		ldr	r3, [r7, #8]
 10259 00dc 072B     		cmp	r3, #7
 10260 00de 19D0     		beq	.L608
 10261              		.loc 1 905 3 discriminator 8
 10262 00e0 BB68     		ldr	r3, [r7, #8]
 10263 00e2 082B     		cmp	r3, #8
 10264 00e4 16D0     		beq	.L608
 10265              		.loc 1 905 3 discriminator 9
 10266 00e6 BB68     		ldr	r3, [r7, #8]
 10267 00e8 092B     		cmp	r3, #9
 10268 00ea 13D0     		beq	.L608
 10269              		.loc 1 905 3 discriminator 10
 10270 00ec BB68     		ldr	r3, [r7, #8]
 10271 00ee 0A2B     		cmp	r3, #10
 10272 00f0 10D0     		beq	.L608
 10273              		.loc 1 905 3 discriminator 11
 10274 00f2 BB68     		ldr	r3, [r7, #8]
 10275 00f4 0B2B     		cmp	r3, #11
 10276 00f6 0DD0     		beq	.L608
 10277              		.loc 1 905 3 discriminator 12
 10278 00f8 BB68     		ldr	r3, [r7, #8]
 10279 00fa 0C2B     		cmp	r3, #12
 10280 00fc 0AD0     		beq	.L608
 10281              		.loc 1 905 3 discriminator 13
 10282 00fe BB68     		ldr	r3, [r7, #8]
 10283 0100 0D2B     		cmp	r3, #13
 10284 0102 07D0     		beq	.L608
 10285              		.loc 1 905 3 discriminator 14
 10286 0104 BB68     		ldr	r3, [r7, #8]
 10287 0106 0E2B     		cmp	r3, #14
 10288 0108 04D0     		beq	.L608
 10289              		.loc 1 905 3 discriminator 15
 10290 010a 40F28931 		movw	r1, #905
 10291 010e 4348     		ldr	r0, .L645
 10292 0110 FFF7FEFF 		bl	assert_failed
 10293              	.L608:
 906:STM32Cube_FW_N6/Drivers/STM32N6xx_HAL_Driver/Src/stm32n6xx_hal_rif.c ****   assert_param(IS_RISAF_MAX_REGION(RISAFx, Region));
 10294              		.loc 1 906 3 is_stmt 1
 10295 0114 FB68     		ldr	r3, [r7, #12]
 10296 0116 424A     		ldr	r2, .L645+4
 10297 0118 9342     		cmp	r3, r2
 10298 011a 06D1     		bne	.L609
 10299              		.loc 1 906 3 is_stmt 0 discriminator 1
 10300 011c BB68     		ldr	r3, [r7, #8]
 10301 011e 062B     		cmp	r3, #6
 10302 0120 94BF     		ite	ls
 10303 0122 0123     		movls	r3, #1
 10304 0124 0023     		movhi	r3, #0
 10305 0126 DBB2     		uxtb	r3, r3
 10306 0128 CEE0     		b	.L610
 10307              	.L609:
 10308              		.loc 1 906 3 discriminator 2
 10309 012a FB68     		ldr	r3, [r7, #12]
ARM GAS  /tmp/ccRTEIeG.s 			page 213


 10310 012c 3D4A     		ldr	r2, .L645+8
 10311 012e 9342     		cmp	r3, r2
 10312 0130 06D1     		bne	.L611
 10313              		.loc 1 906 3 discriminator 4
 10314 0132 BB68     		ldr	r3, [r7, #8]
 10315 0134 062B     		cmp	r3, #6
 10316 0136 94BF     		ite	ls
 10317 0138 0123     		movls	r3, #1
 10318 013a 0023     		movhi	r3, #0
 10319 013c DBB2     		uxtb	r3, r3
 10320 013e C3E0     		b	.L610
 10321              	.L611:
 10322              		.loc 1 906 3 discriminator 5
 10323 0140 FB68     		ldr	r3, [r7, #12]
 10324 0142 394A     		ldr	r2, .L645+12
 10325 0144 9342     		cmp	r3, r2
 10326 0146 06D1     		bne	.L613
 10327              		.loc 1 906 3 discriminator 7
 10328 0148 BB68     		ldr	r3, [r7, #8]
 10329 014a 062B     		cmp	r3, #6
 10330 014c 94BF     		ite	ls
 10331 014e 0123     		movls	r3, #1
 10332 0150 0023     		movhi	r3, #0
 10333 0152 DBB2     		uxtb	r3, r3
 10334 0154 B8E0     		b	.L610
 10335              	.L613:
 10336              		.loc 1 906 3 discriminator 8
 10337 0156 FB68     		ldr	r3, [r7, #12]
 10338 0158 344A     		ldr	r2, .L645+16
 10339 015a 9342     		cmp	r3, r2
 10340 015c 06D1     		bne	.L615
 10341              		.loc 1 906 3 discriminator 10
 10342 015e BB68     		ldr	r3, [r7, #8]
 10343 0160 0A2B     		cmp	r3, #10
 10344 0162 94BF     		ite	ls
 10345 0164 0123     		movls	r3, #1
 10346 0166 0023     		movhi	r3, #0
 10347 0168 DBB2     		uxtb	r3, r3
 10348 016a ADE0     		b	.L610
 10349              	.L615:
 10350              		.loc 1 906 3 discriminator 11
 10351 016c FB68     		ldr	r3, [r7, #12]
 10352 016e 304A     		ldr	r2, .L645+20
 10353 0170 9342     		cmp	r3, r2
 10354 0172 06D1     		bne	.L617
 10355              		.loc 1 906 3 discriminator 13
 10356 0174 BB68     		ldr	r3, [r7, #8]
 10357 0176 0A2B     		cmp	r3, #10
 10358 0178 94BF     		ite	ls
 10359 017a 0123     		movls	r3, #1
 10360 017c 0023     		movhi	r3, #0
 10361 017e DBB2     		uxtb	r3, r3
 10362 0180 A2E0     		b	.L610
 10363              	.L617:
 10364              		.loc 1 906 3 discriminator 14
 10365 0182 FB68     		ldr	r3, [r7, #12]
 10366 0184 2B4A     		ldr	r2, .L645+24
ARM GAS  /tmp/ccRTEIeG.s 			page 214


 10367 0186 9342     		cmp	r3, r2
 10368 0188 06D1     		bne	.L619
 10369              		.loc 1 906 3 discriminator 16
 10370 018a BB68     		ldr	r3, [r7, #8]
 10371 018c 0A2B     		cmp	r3, #10
 10372 018e 94BF     		ite	ls
 10373 0190 0123     		movls	r3, #1
 10374 0192 0023     		movhi	r3, #0
 10375 0194 DBB2     		uxtb	r3, r3
 10376 0196 97E0     		b	.L610
 10377              	.L619:
 10378              		.loc 1 906 3 discriminator 17
 10379 0198 FB68     		ldr	r3, [r7, #12]
 10380 019a 274A     		ldr	r2, .L645+28
 10381 019c 9342     		cmp	r3, r2
 10382 019e 06D1     		bne	.L621
 10383              		.loc 1 906 3 discriminator 19
 10384 01a0 BB68     		ldr	r3, [r7, #8]
 10385 01a2 062B     		cmp	r3, #6
 10386 01a4 94BF     		ite	ls
 10387 01a6 0123     		movls	r3, #1
 10388 01a8 0023     		movhi	r3, #0
 10389 01aa DBB2     		uxtb	r3, r3
 10390 01ac 8CE0     		b	.L610
 10391              	.L621:
 10392              		.loc 1 906 3 discriminator 20
 10393 01ae FB68     		ldr	r3, [r7, #12]
 10394 01b0 224A     		ldr	r2, .L645+32
 10395 01b2 9342     		cmp	r3, r2
 10396 01b4 06D1     		bne	.L623
 10397              		.loc 1 906 3 discriminator 22
 10398 01b6 BB68     		ldr	r3, [r7, #8]
 10399 01b8 062B     		cmp	r3, #6
 10400 01ba 94BF     		ite	ls
 10401 01bc 0123     		movls	r3, #1
 10402 01be 0023     		movhi	r3, #0
 10403 01c0 DBB2     		uxtb	r3, r3
 10404 01c2 81E0     		b	.L610
 10405              	.L623:
 10406              		.loc 1 906 3 discriminator 23
 10407 01c4 FB68     		ldr	r3, [r7, #12]
 10408 01c6 1E4A     		ldr	r2, .L645+36
 10409 01c8 9342     		cmp	r3, r2
 10410 01ca 06D1     		bne	.L625
 10411              		.loc 1 906 3 discriminator 25
 10412 01cc BB68     		ldr	r3, [r7, #8]
 10413 01ce 062B     		cmp	r3, #6
 10414 01d0 94BF     		ite	ls
 10415 01d2 0123     		movls	r3, #1
 10416 01d4 0023     		movhi	r3, #0
 10417 01d6 DBB2     		uxtb	r3, r3
 10418 01d8 76E0     		b	.L610
 10419              	.L625:
 10420              		.loc 1 906 3 discriminator 26
 10421 01da FB68     		ldr	r3, [r7, #12]
 10422 01dc 194A     		ldr	r2, .L645+40
 10423 01de 9342     		cmp	r3, r2
ARM GAS  /tmp/ccRTEIeG.s 			page 215


 10424 01e0 06D1     		bne	.L627
 10425              		.loc 1 906 3 discriminator 28
 10426 01e2 BB68     		ldr	r3, [r7, #8]
 10427 01e4 062B     		cmp	r3, #6
 10428 01e6 94BF     		ite	ls
 10429 01e8 0123     		movls	r3, #1
 10430 01ea 0023     		movhi	r3, #0
 10431 01ec DBB2     		uxtb	r3, r3
 10432 01ee 6BE0     		b	.L610
 10433              	.L627:
 10434              		.loc 1 906 3 discriminator 29
 10435 01f0 FB68     		ldr	r3, [r7, #12]
 10436 01f2 154A     		ldr	r2, .L645+44
 10437 01f4 9342     		cmp	r3, r2
 10438 01f6 06D1     		bne	.L629
 10439              		.loc 1 906 3 discriminator 31
 10440 01f8 BB68     		ldr	r3, [r7, #8]
 10441 01fa 062B     		cmp	r3, #6
 10442 01fc 94BF     		ite	ls
 10443 01fe 0123     		movls	r3, #1
 10444 0200 0023     		movhi	r3, #0
 10445 0202 DBB2     		uxtb	r3, r3
 10446 0204 60E0     		b	.L610
 10447              	.L629:
 10448              		.loc 1 906 3 discriminator 32
 10449 0206 FB68     		ldr	r3, [r7, #12]
 10450 0208 104A     		ldr	r2, .L645+48
 10451 020a 9342     		cmp	r3, r2
 10452 020c 2AD1     		bne	.L631
 10453              		.loc 1 906 3 discriminator 34
 10454 020e BB68     		ldr	r3, [r7, #8]
 10455 0210 062B     		cmp	r3, #6
 10456 0212 94BF     		ite	ls
 10457 0214 0123     		movls	r3, #1
 10458 0216 0023     		movhi	r3, #0
 10459 0218 DBB2     		uxtb	r3, r3
 10460 021a 55E0     		b	.L610
 10461              	.L646:
 10462              		.align	2
 10463              	.L645:
 10464 021c 00000000 		.word	.LC0
 10465 0220 00600254 		.word	1409441792
 10466 0224 00700254 		.word	1409445888
 10467 0228 00800254 		.word	1409449984
 10468 022c 00900254 		.word	1409454080
 10469 0230 00A00254 		.word	1409458176
 10470 0234 00B00254 		.word	1409462272
 10471 0238 00C00254 		.word	1409466368
 10472 023c 00D00254 		.word	1409470464
 10473 0240 00E00254 		.word	1409474560
 10474 0244 00000354 		.word	1409482752
 10475 0248 00100354 		.word	1409486848
 10476 024c 00200354 		.word	1409490944
 10477 0250 00300354 		.word	1409495040
 10478 0254 00400354 		.word	1409499136
 10479 0258 00500354 		.word	1409503232
 10480 025c 00600354 		.word	1409507328
ARM GAS  /tmp/ccRTEIeG.s 			page 216


 10481 0260 00700354 		.word	1409511424
 10482              	.L631:
 10483              		.loc 1 906 3 discriminator 35
 10484 0264 FB68     		ldr	r3, [r7, #12]
 10485 0266 4C4A     		ldr	r2, .L647
 10486 0268 9342     		cmp	r3, r2
 10487 026a 06D1     		bne	.L633
 10488              		.loc 1 906 3 discriminator 37
 10489 026c BB68     		ldr	r3, [r7, #8]
 10490 026e 062B     		cmp	r3, #6
 10491 0270 94BF     		ite	ls
 10492 0272 0123     		movls	r3, #1
 10493 0274 0023     		movhi	r3, #0
 10494 0276 DBB2     		uxtb	r3, r3
 10495 0278 26E0     		b	.L610
 10496              	.L633:
 10497              		.loc 1 906 3 discriminator 38
 10498 027a FB68     		ldr	r3, [r7, #12]
 10499 027c 474A     		ldr	r2, .L647+4
 10500 027e 9342     		cmp	r3, r2
 10501 0280 06D1     		bne	.L635
 10502              		.loc 1 906 3 discriminator 40
 10503 0282 BB68     		ldr	r3, [r7, #8]
 10504 0284 012B     		cmp	r3, #1
 10505 0286 94BF     		ite	ls
 10506 0288 0123     		movls	r3, #1
 10507 028a 0023     		movhi	r3, #0
 10508 028c DBB2     		uxtb	r3, r3
 10509 028e 1BE0     		b	.L610
 10510              	.L635:
 10511              		.loc 1 906 3 discriminator 41
 10512 0290 FB68     		ldr	r3, [r7, #12]
 10513 0292 434A     		ldr	r2, .L647+8
 10514 0294 9342     		cmp	r3, r2
 10515 0296 06D1     		bne	.L637
 10516              		.loc 1 906 3 discriminator 43
 10517 0298 BB68     		ldr	r3, [r7, #8]
 10518 029a 062B     		cmp	r3, #6
 10519 029c 94BF     		ite	ls
 10520 029e 0123     		movls	r3, #1
 10521 02a0 0023     		movhi	r3, #0
 10522 02a2 DBB2     		uxtb	r3, r3
 10523 02a4 10E0     		b	.L610
 10524              	.L637:
 10525              		.loc 1 906 3 discriminator 44
 10526 02a6 FB68     		ldr	r3, [r7, #12]
 10527 02a8 3E4A     		ldr	r2, .L647+12
 10528 02aa 9342     		cmp	r3, r2
 10529 02ac 06D1     		bne	.L639
 10530              		.loc 1 906 3 discriminator 46
 10531 02ae BB68     		ldr	r3, [r7, #8]
 10532 02b0 062B     		cmp	r3, #6
 10533 02b2 94BF     		ite	ls
 10534 02b4 0123     		movls	r3, #1
 10535 02b6 0023     		movhi	r3, #0
 10536 02b8 DBB2     		uxtb	r3, r3
 10537 02ba 05E0     		b	.L610
ARM GAS  /tmp/ccRTEIeG.s 			page 217


 10538              	.L639:
 10539              		.loc 1 906 3 discriminator 47
 10540 02bc BB68     		ldr	r3, [r7, #8]
 10541 02be 022B     		cmp	r3, #2
 10542 02c0 94BF     		ite	ls
 10543 02c2 0123     		movls	r3, #1
 10544 02c4 0023     		movhi	r3, #0
 10545 02c6 DBB2     		uxtb	r3, r3
 10546              	.L610:
 10547              		.loc 1 906 3 discriminator 64
 10548 02c8 002B     		cmp	r3, #0
 10549 02ca 04D1     		bne	.L641
 10550              		.loc 1 906 3 discriminator 65
 10551 02cc 40F28A31 		movw	r1, #906
 10552 02d0 3548     		ldr	r0, .L647+16
 10553 02d2 FFF7FEFF 		bl	assert_failed
 10554              	.L641:
 907:STM32Cube_FW_N6/Drivers/STM32N6xx_HAL_Driver/Src/stm32n6xx_hal_rif.c ****   assert_param(IS_RISAF_SUBREGION(SubRegion));
 10555              		.loc 1 907 3 is_stmt 1
 10556 02d6 7B68     		ldr	r3, [r7, #4]
 10557 02d8 002B     		cmp	r3, #0
 10558 02da 07D0     		beq	.L642
 10559              		.loc 1 907 3 is_stmt 0 discriminator 1
 10560 02dc 7B68     		ldr	r3, [r7, #4]
 10561 02de 012B     		cmp	r3, #1
 10562 02e0 04D0     		beq	.L642
 10563              		.loc 1 907 3 discriminator 2
 10564 02e2 40F28B31 		movw	r1, #907
 10565 02e6 3048     		ldr	r0, .L647+16
 10566 02e8 FFF7FEFF 		bl	assert_failed
 10567              	.L642:
 908:STM32Cube_FW_N6/Drivers/STM32N6xx_HAL_Driver/Src/stm32n6xx_hal_rif.c **** 
 909:STM32Cube_FW_N6/Drivers/STM32N6xx_HAL_Driver/Src/stm32n6xx_hal_rif.c ****   if (SubRegion == RISAF_SUBREGION_A)
 10568              		.loc 1 909 6 is_stmt 1
 10569 02ec 7B68     		ldr	r3, [r7, #4]
 10570 02ee 002B     		cmp	r3, #0
 10571 02f0 17D1     		bne	.L643
 910:STM32Cube_FW_N6/Drivers/STM32N6xx_HAL_Driver/Src/stm32n6xx_hal_rif.c ****   {
 911:STM32Cube_FW_N6/Drivers/STM32N6xx_HAL_Driver/Src/stm32n6xx_hal_rif.c ****     cfgr_reg = RISAFx->REG[Region].ACFGR;
 10572              		.loc 1 911 14
 10573 02f2 FA68     		ldr	r2, [r7, #12]
 10574 02f4 BB68     		ldr	r3, [r7, #8]
 10575 02f6 9B01     		lsls	r3, r3, #6
 10576 02f8 1344     		add	r3, r3, r2
 10577 02fa 5033     		adds	r3, r3, #80
 10578 02fc 1B68     		ldr	r3, [r3]
 10579 02fe 7B61     		str	r3, [r7, #20]
 912:STM32Cube_FW_N6/Drivers/STM32N6xx_HAL_Driver/Src/stm32n6xx_hal_rif.c ****     pConfig->StartAddress = RISAFx->REG[Region].ASTARTR;
 10580              		.loc 1 912 48
 10581 0300 FA68     		ldr	r2, [r7, #12]
 10582 0302 BB68     		ldr	r3, [r7, #8]
 10583 0304 9B01     		lsls	r3, r3, #6
 10584 0306 1344     		add	r3, r3, r2
 10585 0308 5433     		adds	r3, r3, #84
 10586 030a 1A68     		ldr	r2, [r3]
 10587              		.loc 1 912 27
 10588 030c 3B68     		ldr	r3, [r7]
ARM GAS  /tmp/ccRTEIeG.s 			page 218


 10589 030e 5A61     		str	r2, [r3, #20]
 913:STM32Cube_FW_N6/Drivers/STM32N6xx_HAL_Driver/Src/stm32n6xx_hal_rif.c ****     pConfig->EndAddress = RISAFx->REG[Region].AENDR;
 10590              		.loc 1 913 46
 10591 0310 FA68     		ldr	r2, [r7, #12]
 10592 0312 BB68     		ldr	r3, [r7, #8]
 10593 0314 9B01     		lsls	r3, r3, #6
 10594 0316 1344     		add	r3, r3, r2
 10595 0318 5833     		adds	r3, r3, #88
 10596 031a 1A68     		ldr	r2, [r3]
 10597              		.loc 1 913 25
 10598 031c 3B68     		ldr	r3, [r7]
 10599 031e 9A61     		str	r2, [r3, #24]
 10600 0320 16E0     		b	.L644
 10601              	.L643:
 914:STM32Cube_FW_N6/Drivers/STM32N6xx_HAL_Driver/Src/stm32n6xx_hal_rif.c ****   }
 915:STM32Cube_FW_N6/Drivers/STM32N6xx_HAL_Driver/Src/stm32n6xx_hal_rif.c ****   else
 916:STM32Cube_FW_N6/Drivers/STM32N6xx_HAL_Driver/Src/stm32n6xx_hal_rif.c ****   {
 917:STM32Cube_FW_N6/Drivers/STM32N6xx_HAL_Driver/Src/stm32n6xx_hal_rif.c ****     cfgr_reg = RISAFx->REG[Region].BCFGR;
 10602              		.loc 1 917 14
 10603 0322 FA68     		ldr	r2, [r7, #12]
 10604 0324 BB68     		ldr	r3, [r7, #8]
 10605 0326 9B01     		lsls	r3, r3, #6
 10606 0328 1344     		add	r3, r3, r2
 10607 032a 6033     		adds	r3, r3, #96
 10608 032c 1B68     		ldr	r3, [r3]
 10609 032e 7B61     		str	r3, [r7, #20]
 918:STM32Cube_FW_N6/Drivers/STM32N6xx_HAL_Driver/Src/stm32n6xx_hal_rif.c ****     pConfig->StartAddress = RISAFx->REG[Region].BSTARTR;
 10610              		.loc 1 918 48
 10611 0330 FA68     		ldr	r2, [r7, #12]
 10612 0332 BB68     		ldr	r3, [r7, #8]
 10613 0334 9B01     		lsls	r3, r3, #6
 10614 0336 1344     		add	r3, r3, r2
 10615 0338 6433     		adds	r3, r3, #100
 10616 033a 1A68     		ldr	r2, [r3]
 10617              		.loc 1 918 27
 10618 033c 3B68     		ldr	r3, [r7]
 10619 033e 5A61     		str	r2, [r3, #20]
 919:STM32Cube_FW_N6/Drivers/STM32N6xx_HAL_Driver/Src/stm32n6xx_hal_rif.c ****     pConfig->EndAddress = RISAFx->REG[Region].BENDR;
 10620              		.loc 1 919 46
 10621 0340 FA68     		ldr	r2, [r7, #12]
 10622 0342 BB68     		ldr	r3, [r7, #8]
 10623 0344 9B01     		lsls	r3, r3, #6
 10624 0346 1344     		add	r3, r3, r2
 10625 0348 6833     		adds	r3, r3, #104
 10626 034a 1A68     		ldr	r2, [r3]
 10627              		.loc 1 919 25
 10628 034c 3B68     		ldr	r3, [r7]
 10629 034e 9A61     		str	r2, [r3, #24]
 10630              	.L644:
 920:STM32Cube_FW_N6/Drivers/STM32N6xx_HAL_Driver/Src/stm32n6xx_hal_rif.c ****   }
 921:STM32Cube_FW_N6/Drivers/STM32N6xx_HAL_Driver/Src/stm32n6xx_hal_rif.c **** 
 922:STM32Cube_FW_N6/Drivers/STM32N6xx_HAL_Driver/Src/stm32n6xx_hal_rif.c ****   pConfig->Filtering = (cfgr_reg & RISAF_REGx_zCFGR_SREN);
 10631              		.loc 1 922 34
 10632 0350 7B69     		ldr	r3, [r7, #20]
 10633 0352 03F00102 		and	r2, r3, #1
 10634              		.loc 1 922 22
 10635 0356 3B68     		ldr	r3, [r7]
ARM GAS  /tmp/ccRTEIeG.s 			page 219


 10636 0358 1A60     		str	r2, [r3]
 923:STM32Cube_FW_N6/Drivers/STM32N6xx_HAL_Driver/Src/stm32n6xx_hal_rif.c ****   cid = ((cfgr_reg & RISAF_REGx_zCFGR_SRCID) >> RISAF_REGx_zCFGR_SRCID_Pos);
 10637              		.loc 1 923 46
 10638 035a 7B69     		ldr	r3, [r7, #20]
 10639 035c 1B09     		lsrs	r3, r3, #4
 10640              		.loc 1 923 7
 10641 035e 03F00703 		and	r3, r3, #7
 10642 0362 3B61     		str	r3, [r7, #16]
 924:STM32Cube_FW_N6/Drivers/STM32N6xx_HAL_Driver/Src/stm32n6xx_hal_rif.c ****   pConfig->CID = (1UL << cid);
 10643              		.loc 1 924 23
 10644 0364 0122     		movs	r2, #1
 10645 0366 3B69     		ldr	r3, [r7, #16]
 10646 0368 9A40     		lsls	r2, r2, r3
 10647              		.loc 1 924 16
 10648 036a 3B68     		ldr	r3, [r7]
 10649 036c 5A60     		str	r2, [r3, #4]
 925:STM32Cube_FW_N6/Drivers/STM32N6xx_HAL_Driver/Src/stm32n6xx_hal_rif.c ****   pConfig->SecPriv = ((cfgr_reg & (RISAF_REGx_zCFGR_PRIV | RISAF_REGx_zCFGR_SEC)) >> RISAF_REGx_zCF
 10650              		.loc 1 925 83
 10651 036e 7B69     		ldr	r3, [r7, #20]
 10652 0370 1B0A     		lsrs	r3, r3, #8
 10653 0372 03F00302 		and	r2, r3, #3
 10654              		.loc 1 925 20
 10655 0376 3B68     		ldr	r3, [r7]
 10656 0378 9A60     		str	r2, [r3, #8]
 926:STM32Cube_FW_N6/Drivers/STM32N6xx_HAL_Driver/Src/stm32n6xx_hal_rif.c ****   pConfig->ReadWrite = (cfgr_reg & (RISAF_REGx_zCFGR_WREN | RISAF_REGx_zCFGR_RDEN));
 10657              		.loc 1 926 34
 10658 037a 7B69     		ldr	r3, [r7, #20]
 10659 037c 03F44052 		and	r2, r3, #12288
 10660              		.loc 1 926 22
 10661 0380 3B68     		ldr	r3, [r7]
 10662 0382 DA60     		str	r2, [r3, #12]
 927:STM32Cube_FW_N6/Drivers/STM32N6xx_HAL_Driver/Src/stm32n6xx_hal_rif.c ****   pConfig->Lock = ((cfgr_reg & RISAF_REGx_zCFGR_RLOCK) >> RISAF_REGx_zCFGR_RLOCK_Pos);
 10663              		.loc 1 927 56
 10664 0384 7B69     		ldr	r3, [r7, #20]
 10665 0386 5B08     		lsrs	r3, r3, #1
 10666 0388 03F00102 		and	r2, r3, #1
 10667              		.loc 1 927 17
 10668 038c 3B68     		ldr	r3, [r7]
 10669 038e 1A61     		str	r2, [r3, #16]
 928:STM32Cube_FW_N6/Drivers/STM32N6xx_HAL_Driver/Src/stm32n6xx_hal_rif.c **** }
 10670              		.loc 1 928 1
 10671 0390 00BF     		nop
 10672 0392 1837     		adds	r7, r7, #24
 10673              		.cfi_def_cfa_offset 8
 10674 0394 BD46     		mov	sp, r7
 10675              		.cfi_def_cfa_register 13
 10676              		@ sp needed
 10677 0396 80BD     		pop	{r7, pc}
 10678              	.L648:
 10679              		.align	2
 10680              	.L647:
 10681 0398 00300354 		.word	1409495040
 10682 039c 00400354 		.word	1409499136
 10683 03a0 00500354 		.word	1409503232
 10684 03a4 00600354 		.word	1409507328
 10685 03a8 00000000 		.word	.LC0
 10686              		.cfi_endproc
ARM GAS  /tmp/ccRTEIeG.s 			page 220


 10687              	.LFE854:
 10689              		.section	.text.HAL_RIF_RISAF_GetIllegalAccess,"ax",%progbits
 10690              		.align	1
 10691              		.global	HAL_RIF_RISAF_GetIllegalAccess
 10692              		.syntax unified
 10693              		.thumb
 10694              		.thumb_func
 10696              	HAL_RIF_RISAF_GetIllegalAccess:
 10697              	.LFB855:
 929:STM32Cube_FW_N6/Drivers/STM32N6xx_HAL_Driver/Src/stm32n6xx_hal_rif.c **** 
 930:STM32Cube_FW_N6/Drivers/STM32N6xx_HAL_Driver/Src/stm32n6xx_hal_rif.c **** #if defined(CPU_AS_TRUSTED_DOMAIN)
 931:STM32Cube_FW_N6/Drivers/STM32N6xx_HAL_Driver/Src/stm32n6xx_hal_rif.c **** /**
 932:STM32Cube_FW_N6/Drivers/STM32N6xx_HAL_Driver/Src/stm32n6xx_hal_rif.c ****   * @brief  Get the error detected by the RISAF control block,
 933:STM32Cube_FW_N6/Drivers/STM32N6xx_HAL_Driver/Src/stm32n6xx_hal_rif.c ****   *         the illegal access data and clear related flags.
 934:STM32Cube_FW_N6/Drivers/STM32N6xx_HAL_Driver/Src/stm32n6xx_hal_rif.c ****   *         Error information can be illegal access or control access type. In case of an illegal a
 935:STM32Cube_FW_N6/Drivers/STM32N6xx_HAL_Driver/Src/stm32n6xx_hal_rif.c ****   *         error information is:
 936:STM32Cube_FW_N6/Drivers/STM32N6xx_HAL_Driver/Src/stm32n6xx_hal_rif.c ****   *           - responsible CID;
 937:STM32Cube_FW_N6/Drivers/STM32N6xx_HAL_Driver/Src/stm32n6xx_hal_rif.c ****   *           - security access type;
 938:STM32Cube_FW_N6/Drivers/STM32N6xx_HAL_Driver/Src/stm32n6xx_hal_rif.c ****   *           - privilege access type;
 939:STM32Cube_FW_N6/Drivers/STM32N6xx_HAL_Driver/Src/stm32n6xx_hal_rif.c ****   *           - read (fetch) or write access type;
 940:STM32Cube_FW_N6/Drivers/STM32N6xx_HAL_Driver/Src/stm32n6xx_hal_rif.c ****   *           - targeted address.
 941:STM32Cube_FW_N6/Drivers/STM32N6xx_HAL_Driver/Src/stm32n6xx_hal_rif.c ****   * @note   This API is protected by the Trusted Domain compilation directive.
 942:STM32Cube_FW_N6/Drivers/STM32N6xx_HAL_Driver/Src/stm32n6xx_hal_rif.c ****   * @param  RISAFx specifies the RISAF instance.
 943:STM32Cube_FW_N6/Drivers/STM32N6xx_HAL_Driver/Src/stm32n6xx_hal_rif.c ****   *         This parameter is one of the RISAF instances defined in the CMSIS.
 944:STM32Cube_FW_N6/Drivers/STM32N6xx_HAL_Driver/Src/stm32n6xx_hal_rif.c ****   * @param  IllegalAccess Pointer on illegal access structure
 945:STM32Cube_FW_N6/Drivers/STM32N6xx_HAL_Driver/Src/stm32n6xx_hal_rif.c ****   * @retval None
 946:STM32Cube_FW_N6/Drivers/STM32N6xx_HAL_Driver/Src/stm32n6xx_hal_rif.c ****   */
 947:STM32Cube_FW_N6/Drivers/STM32N6xx_HAL_Driver/Src/stm32n6xx_hal_rif.c **** void HAL_RIF_RISAF_GetIllegalAccess(RISAF_TypeDef *RISAFx, RISAF_IllegalAccess_t *IllegalAccess)
 948:STM32Cube_FW_N6/Drivers/STM32N6xx_HAL_Driver/Src/stm32n6xx_hal_rif.c **** {
 10698              		.loc 1 948 1
 10699              		.cfi_startproc
 10700              		@ args = 0, pretend = 0, frame = 16
 10701              		@ frame_needed = 1, uses_anonymous_args = 0
 10702 0000 80B5     		push	{r7, lr}
 10703              		.cfi_def_cfa_offset 8
 10704              		.cfi_offset 7, -8
 10705              		.cfi_offset 14, -4
 10706 0002 84B0     		sub	sp, sp, #16
 10707              		.cfi_def_cfa_offset 24
 10708 0004 00AF     		add	r7, sp, #0
 10709              		.cfi_def_cfa_register 7
 10710 0006 7860     		str	r0, [r7, #4]
 10711 0008 3960     		str	r1, [r7]
 949:STM32Cube_FW_N6/Drivers/STM32N6xx_HAL_Driver/Src/stm32n6xx_hal_rif.c ****   uint32_t cid;
 950:STM32Cube_FW_N6/Drivers/STM32N6xx_HAL_Driver/Src/stm32n6xx_hal_rif.c ****   uint32_t secpriv;
 951:STM32Cube_FW_N6/Drivers/STM32N6xx_HAL_Driver/Src/stm32n6xx_hal_rif.c **** 
 952:STM32Cube_FW_N6/Drivers/STM32N6xx_HAL_Driver/Src/stm32n6xx_hal_rif.c ****   /* Check the parameters */
 953:STM32Cube_FW_N6/Drivers/STM32N6xx_HAL_Driver/Src/stm32n6xx_hal_rif.c ****   assert_param(IllegalAccess != (void *)NULL);
 10712              		.loc 1 953 3
 10713 000a 3B68     		ldr	r3, [r7]
 10714 000c 002B     		cmp	r3, #0
 10715 000e 04D1     		bne	.L650
 10716              		.loc 1 953 3 is_stmt 0 discriminator 1
 10717 0010 40F2B931 		movw	r1, #953
 10718 0014 4548     		ldr	r0, .L656
 10719 0016 FFF7FEFF 		bl	assert_failed
 10720              	.L650:
ARM GAS  /tmp/ccRTEIeG.s 			page 221


 954:STM32Cube_FW_N6/Drivers/STM32N6xx_HAL_Driver/Src/stm32n6xx_hal_rif.c ****   assert_param(IS_RISAF_INSTANCE(RISAFx));
 10721              		.loc 1 954 3 is_stmt 1
 10722 001a 7B68     		ldr	r3, [r7, #4]
 10723 001c 444A     		ldr	r2, .L656+4
 10724 001e 9342     		cmp	r3, r2
 10725 0020 44D0     		beq	.L651
 10726              		.loc 1 954 3 is_stmt 0 discriminator 1
 10727 0022 7B68     		ldr	r3, [r7, #4]
 10728 0024 434A     		ldr	r2, .L656+8
 10729 0026 9342     		cmp	r3, r2
 10730 0028 40D0     		beq	.L651
 10731              		.loc 1 954 3 discriminator 2
 10732 002a 7B68     		ldr	r3, [r7, #4]
 10733 002c 424A     		ldr	r2, .L656+12
 10734 002e 9342     		cmp	r3, r2
 10735 0030 3CD0     		beq	.L651
 10736              		.loc 1 954 3 discriminator 3
 10737 0032 7B68     		ldr	r3, [r7, #4]
 10738 0034 414A     		ldr	r2, .L656+16
 10739 0036 9342     		cmp	r3, r2
 10740 0038 38D0     		beq	.L651
 10741              		.loc 1 954 3 discriminator 4
 10742 003a 7B68     		ldr	r3, [r7, #4]
 10743 003c 404A     		ldr	r2, .L656+20
 10744 003e 9342     		cmp	r3, r2
 10745 0040 34D0     		beq	.L651
 10746              		.loc 1 954 3 discriminator 5
 10747 0042 7B68     		ldr	r3, [r7, #4]
 10748 0044 3F4A     		ldr	r2, .L656+24
 10749 0046 9342     		cmp	r3, r2
 10750 0048 30D0     		beq	.L651
 10751              		.loc 1 954 3 discriminator 6
 10752 004a 7B68     		ldr	r3, [r7, #4]
 10753 004c 3E4A     		ldr	r2, .L656+28
 10754 004e 9342     		cmp	r3, r2
 10755 0050 2CD0     		beq	.L651
 10756              		.loc 1 954 3 discriminator 7
 10757 0052 7B68     		ldr	r3, [r7, #4]
 10758 0054 3D4A     		ldr	r2, .L656+32
 10759 0056 9342     		cmp	r3, r2
 10760 0058 28D0     		beq	.L651
 10761              		.loc 1 954 3 discriminator 8
 10762 005a 7B68     		ldr	r3, [r7, #4]
 10763 005c 3C4A     		ldr	r2, .L656+36
 10764 005e 9342     		cmp	r3, r2
 10765 0060 24D0     		beq	.L651
 10766              		.loc 1 954 3 discriminator 9
 10767 0062 7B68     		ldr	r3, [r7, #4]
 10768 0064 3B4A     		ldr	r2, .L656+40
 10769 0066 9342     		cmp	r3, r2
 10770 0068 20D0     		beq	.L651
 10771              		.loc 1 954 3 discriminator 10
 10772 006a 7B68     		ldr	r3, [r7, #4]
 10773 006c 3A4A     		ldr	r2, .L656+44
 10774 006e 9342     		cmp	r3, r2
 10775 0070 1CD0     		beq	.L651
 10776              		.loc 1 954 3 discriminator 11
ARM GAS  /tmp/ccRTEIeG.s 			page 222


 10777 0072 7B68     		ldr	r3, [r7, #4]
 10778 0074 394A     		ldr	r2, .L656+48
 10779 0076 9342     		cmp	r3, r2
 10780 0078 18D0     		beq	.L651
 10781              		.loc 1 954 3 discriminator 12
 10782 007a 7B68     		ldr	r3, [r7, #4]
 10783 007c 384A     		ldr	r2, .L656+52
 10784 007e 9342     		cmp	r3, r2
 10785 0080 14D0     		beq	.L651
 10786              		.loc 1 954 3 discriminator 13
 10787 0082 7B68     		ldr	r3, [r7, #4]
 10788 0084 374A     		ldr	r2, .L656+56
 10789 0086 9342     		cmp	r3, r2
 10790 0088 10D0     		beq	.L651
 10791              		.loc 1 954 3 discriminator 14
 10792 008a 7B68     		ldr	r3, [r7, #4]
 10793 008c 364A     		ldr	r2, .L656+60
 10794 008e 9342     		cmp	r3, r2
 10795 0090 0CD0     		beq	.L651
 10796              		.loc 1 954 3 discriminator 15
 10797 0092 7B68     		ldr	r3, [r7, #4]
 10798 0094 354A     		ldr	r2, .L656+64
 10799 0096 9342     		cmp	r3, r2
 10800 0098 08D0     		beq	.L651
 10801              		.loc 1 954 3 discriminator 16
 10802 009a 7B68     		ldr	r3, [r7, #4]
 10803 009c 344A     		ldr	r2, .L656+68
 10804 009e 9342     		cmp	r3, r2
 10805 00a0 04D0     		beq	.L651
 10806              		.loc 1 954 3 discriminator 17
 10807 00a2 40F2BA31 		movw	r1, #954
 10808 00a6 2148     		ldr	r0, .L656
 10809 00a8 FFF7FEFF 		bl	assert_failed
 10810              	.L651:
 955:STM32Cube_FW_N6/Drivers/STM32N6xx_HAL_Driver/Src/stm32n6xx_hal_rif.c **** 
 956:STM32Cube_FW_N6/Drivers/STM32N6xx_HAL_Driver/Src/stm32n6xx_hal_rif.c ****   /* Get illegal access type */
 957:STM32Cube_FW_N6/Drivers/STM32N6xx_HAL_Driver/Src/stm32n6xx_hal_rif.c ****   IllegalAccess->ErrorType = (RISAFx->IASR & (RISAF_IASR_IAEF | RISAF_IASR_CAEF));
 10811              		.loc 1 957 37 is_stmt 1
 10812 00ac 7B68     		ldr	r3, [r7, #4]
 10813 00ae 9B68     		ldr	r3, [r3, #8]
 10814              		.loc 1 957 44
 10815 00b0 03F00302 		and	r2, r3, #3
 10816              		.loc 1 957 28
 10817 00b4 3B68     		ldr	r3, [r7]
 10818 00b6 1A60     		str	r2, [r3]
 958:STM32Cube_FW_N6/Drivers/STM32N6xx_HAL_Driver/Src/stm32n6xx_hal_rif.c **** 
 959:STM32Cube_FW_N6/Drivers/STM32N6xx_HAL_Driver/Src/stm32n6xx_hal_rif.c ****   if (IllegalAccess->ErrorType != RISAF_ILLEGAL_ACCESS_NONE)
 10819              		.loc 1 959 20
 10820 00b8 3B68     		ldr	r3, [r7]
 10821 00ba 1B68     		ldr	r3, [r3]
 10822              		.loc 1 959 6
 10823 00bc 002B     		cmp	r3, #0
 10824 00be 30D0     		beq	.L655
 960:STM32Cube_FW_N6/Drivers/STM32N6xx_HAL_Driver/Src/stm32n6xx_hal_rif.c ****   {
 961:STM32Cube_FW_N6/Drivers/STM32N6xx_HAL_Driver/Src/stm32n6xx_hal_rif.c ****     /* Get illegal access data */
 962:STM32Cube_FW_N6/Drivers/STM32N6xx_HAL_Driver/Src/stm32n6xx_hal_rif.c ****     cid = (RISAFx->IAR->IAESR & RISAF_IAESR_IACID);
 10825              		.loc 1 962 23
ARM GAS  /tmp/ccRTEIeG.s 			page 223


 10826 00c0 7B68     		ldr	r3, [r7, #4]
 10827 00c2 1B6A     		ldr	r3, [r3, #32]
 10828              		.loc 1 962 9
 10829 00c4 03F00703 		and	r3, r3, #7
 10830 00c8 FB60     		str	r3, [r7, #12]
 963:STM32Cube_FW_N6/Drivers/STM32N6xx_HAL_Driver/Src/stm32n6xx_hal_rif.c ****     IllegalAccess->Data.CID = (1UL << cid);
 10831              		.loc 1 963 36
 10832 00ca 0122     		movs	r2, #1
 10833 00cc FB68     		ldr	r3, [r7, #12]
 10834 00ce 9A40     		lsls	r2, r2, r3
 10835              		.loc 1 963 29
 10836 00d0 3B68     		ldr	r3, [r7]
 10837 00d2 5A60     		str	r2, [r3, #4]
 964:STM32Cube_FW_N6/Drivers/STM32N6xx_HAL_Driver/Src/stm32n6xx_hal_rif.c ****     secpriv = ((RISAFx->IAR->IAESR & (RISAF_IAESR_IASEC | RISAF_IAESR_IAPRIV)) >> RISAF_IAESR_IAPRI
 10838              		.loc 1 964 28
 10839 00d4 7B68     		ldr	r3, [r7, #4]
 10840 00d6 1B6A     		ldr	r3, [r3, #32]
 10841              		.loc 1 964 80
 10842 00d8 1B09     		lsrs	r3, r3, #4
 10843              		.loc 1 964 13
 10844 00da 03F00303 		and	r3, r3, #3
 10845 00de BB60     		str	r3, [r7, #8]
 965:STM32Cube_FW_N6/Drivers/STM32N6xx_HAL_Driver/Src/stm32n6xx_hal_rif.c ****     IllegalAccess->Data.SecPriv = ((secpriv >> 1UL) | (secpriv << 1UL)) & 3UL;
 10846              		.loc 1 965 45
 10847 00e0 BB68     		ldr	r3, [r7, #8]
 10848 00e2 5A08     		lsrs	r2, r3, #1
 10849              		.loc 1 965 64
 10850 00e4 BB68     		ldr	r3, [r7, #8]
 10851 00e6 5B00     		lsls	r3, r3, #1
 10852              		.loc 1 965 53
 10853 00e8 1343     		orrs	r3, r3, r2
 10854              		.loc 1 965 73
 10855 00ea 03F00302 		and	r2, r3, #3
 10856              		.loc 1 965 33
 10857 00ee 3B68     		ldr	r3, [r7]
 10858 00f0 9A60     		str	r2, [r3, #8]
 966:STM32Cube_FW_N6/Drivers/STM32N6xx_HAL_Driver/Src/stm32n6xx_hal_rif.c ****     IllegalAccess->Data.AccessType = ((RISAFx->IAR->IAESR & RISAF_IAESR_IANRW) >> RISAF_IAESR_IANRW
 10859              		.loc 1 966 51
 10860 00f2 7B68     		ldr	r3, [r7, #4]
 10861 00f4 1B6A     		ldr	r3, [r3, #32]
 10862              		.loc 1 966 80
 10863 00f6 DB09     		lsrs	r3, r3, #7
 10864 00f8 03F00102 		and	r2, r3, #1
 10865              		.loc 1 966 36
 10866 00fc 3B68     		ldr	r3, [r7]
 10867 00fe DA60     		str	r2, [r3, #12]
 967:STM32Cube_FW_N6/Drivers/STM32N6xx_HAL_Driver/Src/stm32n6xx_hal_rif.c **** 
 968:STM32Cube_FW_N6/Drivers/STM32N6xx_HAL_Driver/Src/stm32n6xx_hal_rif.c ****     if ((IllegalAccess->ErrorType & RISAF_ILLEGAL_ACCESS) != 0U)
 10868              		.loc 1 968 23
 10869 0100 3B68     		ldr	r3, [r7]
 10870 0102 1B68     		ldr	r3, [r3]
 10871              		.loc 1 968 35
 10872 0104 03F00203 		and	r3, r3, #2
 10873              		.loc 1 968 8
 10874 0108 002B     		cmp	r3, #0
 10875 010a 04D0     		beq	.L653
 969:STM32Cube_FW_N6/Drivers/STM32N6xx_HAL_Driver/Src/stm32n6xx_hal_rif.c ****     {
ARM GAS  /tmp/ccRTEIeG.s 			page 224


 970:STM32Cube_FW_N6/Drivers/STM32N6xx_HAL_Driver/Src/stm32n6xx_hal_rif.c ****       IllegalAccess->Data.Address = RISAFx->IAR->IADDR;
 10876              		.loc 1 970 48
 10877 010c 7B68     		ldr	r3, [r7, #4]
 10878 010e 5A6A     		ldr	r2, [r3, #36]
 10879              		.loc 1 970 35
 10880 0110 3B68     		ldr	r3, [r7]
 10881 0112 1A61     		str	r2, [r3, #16]
 10882 0114 02E0     		b	.L654
 10883              	.L653:
 971:STM32Cube_FW_N6/Drivers/STM32N6xx_HAL_Driver/Src/stm32n6xx_hal_rif.c ****     }
 972:STM32Cube_FW_N6/Drivers/STM32N6xx_HAL_Driver/Src/stm32n6xx_hal_rif.c ****     else
 973:STM32Cube_FW_N6/Drivers/STM32N6xx_HAL_Driver/Src/stm32n6xx_hal_rif.c ****     {
 974:STM32Cube_FW_N6/Drivers/STM32N6xx_HAL_Driver/Src/stm32n6xx_hal_rif.c ****       IllegalAccess->Data.Address = 0U;
 10884              		.loc 1 974 35
 10885 0116 3B68     		ldr	r3, [r7]
 10886 0118 0022     		movs	r2, #0
 10887 011a 1A61     		str	r2, [r3, #16]
 10888              	.L654:
 975:STM32Cube_FW_N6/Drivers/STM32N6xx_HAL_Driver/Src/stm32n6xx_hal_rif.c ****     }
 976:STM32Cube_FW_N6/Drivers/STM32N6xx_HAL_Driver/Src/stm32n6xx_hal_rif.c **** 
 977:STM32Cube_FW_N6/Drivers/STM32N6xx_HAL_Driver/Src/stm32n6xx_hal_rif.c ****     /* Clear flags */
 978:STM32Cube_FW_N6/Drivers/STM32N6xx_HAL_Driver/Src/stm32n6xx_hal_rif.c ****     RISAFx->IACR = (RISAF_IACR_IAEF | RISAF_IACR_CAEF);
 10889              		.loc 1 978 18
 10890 011c 7B68     		ldr	r3, [r7, #4]
 10891 011e 0322     		movs	r2, #3
 10892 0120 DA60     		str	r2, [r3, #12]
 10893              	.L655:
 979:STM32Cube_FW_N6/Drivers/STM32N6xx_HAL_Driver/Src/stm32n6xx_hal_rif.c ****   }
 980:STM32Cube_FW_N6/Drivers/STM32N6xx_HAL_Driver/Src/stm32n6xx_hal_rif.c **** }
 10894              		.loc 1 980 1
 10895 0122 00BF     		nop
 10896 0124 1037     		adds	r7, r7, #16
 10897              		.cfi_def_cfa_offset 8
 10898 0126 BD46     		mov	sp, r7
 10899              		.cfi_def_cfa_register 13
 10900              		@ sp needed
 10901 0128 80BD     		pop	{r7, pc}
 10902              	.L657:
 10903 012a 00BF     		.align	2
 10904              	.L656:
 10905 012c 00000000 		.word	.LC0
 10906 0130 00600254 		.word	1409441792
 10907 0134 00700254 		.word	1409445888
 10908 0138 00800254 		.word	1409449984
 10909 013c 00900254 		.word	1409454080
 10910 0140 00A00254 		.word	1409458176
 10911 0144 00B00254 		.word	1409462272
 10912 0148 00C00254 		.word	1409466368
 10913 014c 00D00254 		.word	1409470464
 10914 0150 00E00254 		.word	1409474560
 10915 0154 00000354 		.word	1409482752
 10916 0158 00100354 		.word	1409486848
 10917 015c 00200354 		.word	1409490944
 10918 0160 00300354 		.word	1409495040
 10919 0164 00400354 		.word	1409499136
 10920 0168 00500354 		.word	1409503232
 10921 016c 00600354 		.word	1409507328
ARM GAS  /tmp/ccRTEIeG.s 			page 225


 10922 0170 00700354 		.word	1409511424
 10923              		.cfi_endproc
 10924              	.LFE855:
 10926              		.section	.text.HAL_RIF_IAC_EnableIT,"ax",%progbits
 10927              		.align	1
 10928              		.global	HAL_RIF_IAC_EnableIT
 10929              		.syntax unified
 10930              		.thumb
 10931              		.thumb_func
 10933              	HAL_RIF_IAC_EnableIT:
 10934              	.LFB856:
 981:STM32Cube_FW_N6/Drivers/STM32N6xx_HAL_Driver/Src/stm32n6xx_hal_rif.c **** #endif /* defined(CPU_AS_TRUSTED_DOMAIN) */
 982:STM32Cube_FW_N6/Drivers/STM32N6xx_HAL_Driver/Src/stm32n6xx_hal_rif.c **** /**
 983:STM32Cube_FW_N6/Drivers/STM32N6xx_HAL_Driver/Src/stm32n6xx_hal_rif.c ****   * @}
 984:STM32Cube_FW_N6/Drivers/STM32N6xx_HAL_Driver/Src/stm32n6xx_hal_rif.c ****   */
 985:STM32Cube_FW_N6/Drivers/STM32N6xx_HAL_Driver/Src/stm32n6xx_hal_rif.c **** 
 986:STM32Cube_FW_N6/Drivers/STM32N6xx_HAL_Driver/Src/stm32n6xx_hal_rif.c **** /** @defgroup RIF_Exported_Functions_Group6  IAC Configuration functions
 987:STM32Cube_FW_N6/Drivers/STM32N6xx_HAL_Driver/Src/stm32n6xx_hal_rif.c ****   * @brief    IAC Configuration functions
 988:STM32Cube_FW_N6/Drivers/STM32N6xx_HAL_Driver/Src/stm32n6xx_hal_rif.c ****   *
 989:STM32Cube_FW_N6/Drivers/STM32N6xx_HAL_Driver/Src/stm32n6xx_hal_rif.c **** @verbatim
 990:STM32Cube_FW_N6/Drivers/STM32N6xx_HAL_Driver/Src/stm32n6xx_hal_rif.c ****   ==============================================================================
 991:STM32Cube_FW_N6/Drivers/STM32N6xx_HAL_Driver/Src/stm32n6xx_hal_rif.c ****             ##### IAC Configuration functions #####
 992:STM32Cube_FW_N6/Drivers/STM32N6xx_HAL_Driver/Src/stm32n6xx_hal_rif.c ****   ==============================================================================
 993:STM32Cube_FW_N6/Drivers/STM32N6xx_HAL_Driver/Src/stm32n6xx_hal_rif.c ****   [..]
 994:STM32Cube_FW_N6/Drivers/STM32N6xx_HAL_Driver/Src/stm32n6xx_hal_rif.c ****     This section provides functions allowing to configure IAC
 995:STM32Cube_FW_N6/Drivers/STM32N6xx_HAL_Driver/Src/stm32n6xx_hal_rif.c ****     IAC is Illegal Access Controller
 996:STM32Cube_FW_N6/Drivers/STM32N6xx_HAL_Driver/Src/stm32n6xx_hal_rif.c **** @endverbatim
 997:STM32Cube_FW_N6/Drivers/STM32N6xx_HAL_Driver/Src/stm32n6xx_hal_rif.c ****   * @{
 998:STM32Cube_FW_N6/Drivers/STM32N6xx_HAL_Driver/Src/stm32n6xx_hal_rif.c ****   */
 999:STM32Cube_FW_N6/Drivers/STM32N6xx_HAL_Driver/Src/stm32n6xx_hal_rif.c **** #if defined(CPU_AS_TRUSTED_DOMAIN) && defined(CPU_IN_SECURE_STATE)
1000:STM32Cube_FW_N6/Drivers/STM32N6xx_HAL_Driver/Src/stm32n6xx_hal_rif.c **** /**
1001:STM32Cube_FW_N6/Drivers/STM32N6xx_HAL_Driver/Src/stm32n6xx_hal_rif.c ****   * @brief  Enable interrupt generation on illegal access detection on peripheral or memory access.
1002:STM32Cube_FW_N6/Drivers/STM32N6xx_HAL_Driver/Src/stm32n6xx_hal_rif.c ****   * @note   This API is protected by the Trusted Domain compilation directive.
1003:STM32Cube_FW_N6/Drivers/STM32N6xx_HAL_Driver/Src/stm32n6xx_hal_rif.c ****   * @note   This API is protected by the TrustZone Enabled compilation directive.
1004:STM32Cube_FW_N6/Drivers/STM32N6xx_HAL_Driver/Src/stm32n6xx_hal_rif.c ****   * @param  PeriphId specifies the index of the bus slave.
1005:STM32Cube_FW_N6/Drivers/STM32N6xx_HAL_Driver/Src/stm32n6xx_hal_rif.c ****   *         This parameter can be one of @ref RIF_PERIPHERAL_INDEX
1006:STM32Cube_FW_N6/Drivers/STM32N6xx_HAL_Driver/Src/stm32n6xx_hal_rif.c ****   *         bits[31:28] define the register index a peripheral belongs to, value from 0 to 5
1007:STM32Cube_FW_N6/Drivers/STM32N6xx_HAL_Driver/Src/stm32n6xx_hal_rif.c ****   *         bits[4:0]   define the bit position within the register, value from 0 to 31
1008:STM32Cube_FW_N6/Drivers/STM32N6xx_HAL_Driver/Src/stm32n6xx_hal_rif.c ****   * @retval None
1009:STM32Cube_FW_N6/Drivers/STM32N6xx_HAL_Driver/Src/stm32n6xx_hal_rif.c ****   */
1010:STM32Cube_FW_N6/Drivers/STM32N6xx_HAL_Driver/Src/stm32n6xx_hal_rif.c **** void HAL_RIF_IAC_EnableIT(uint32_t PeriphId)
1011:STM32Cube_FW_N6/Drivers/STM32N6xx_HAL_Driver/Src/stm32n6xx_hal_rif.c **** {
 10935              		.loc 1 1011 1
 10936              		.cfi_startproc
 10937              		@ args = 0, pretend = 0, frame = 16
 10938              		@ frame_needed = 1, uses_anonymous_args = 0
 10939 0000 80B5     		push	{r7, lr}
 10940              		.cfi_def_cfa_offset 8
 10941              		.cfi_offset 7, -8
 10942              		.cfi_offset 14, -4
 10943 0002 84B0     		sub	sp, sp, #16
 10944              		.cfi_def_cfa_offset 24
 10945 0004 00AF     		add	r7, sp, #0
 10946              		.cfi_def_cfa_register 7
 10947 0006 7860     		str	r0, [r7, #4]
1012:STM32Cube_FW_N6/Drivers/STM32N6xx_HAL_Driver/Src/stm32n6xx_hal_rif.c ****   __IO uint32_t *p_interrupt_reg;
1013:STM32Cube_FW_N6/Drivers/STM32N6xx_HAL_Driver/Src/stm32n6xx_hal_rif.c **** 
ARM GAS  /tmp/ccRTEIeG.s 			page 226


1014:STM32Cube_FW_N6/Drivers/STM32N6xx_HAL_Driver/Src/stm32n6xx_hal_rif.c ****   /* Check parameters */
1015:STM32Cube_FW_N6/Drivers/STM32N6xx_HAL_Driver/Src/stm32n6xx_hal_rif.c ****   assert_param(IS_RIF_RISC_PERIPH_INDEX(PeriphId) || IS_RIF_AWARE_PERIPH_INDEX(PeriphId));
 10948              		.loc 1 1015 3
 10949 0008 7B68     		ldr	r3, [r7, #4]
 10950 000a 002B     		cmp	r3, #0
 10951 000c 00F0A182 		beq	.L659
 10952              		.loc 1 1015 3 is_stmt 0 discriminator 1
 10953 0010 7B68     		ldr	r3, [r7, #4]
 10954 0012 012B     		cmp	r3, #1
 10955 0014 00F09D82 		beq	.L659
 10956              		.loc 1 1015 3 discriminator 2
 10957 0018 7B68     		ldr	r3, [r7, #4]
 10958 001a 022B     		cmp	r3, #2
 10959 001c 00F09982 		beq	.L659
 10960              		.loc 1 1015 3 discriminator 3
 10961 0020 7B68     		ldr	r3, [r7, #4]
 10962 0022 032B     		cmp	r3, #3
 10963 0024 00F09582 		beq	.L659
 10964              		.loc 1 1015 3 discriminator 4
 10965 0028 7B68     		ldr	r3, [r7, #4]
 10966 002a 042B     		cmp	r3, #4
 10967 002c 00F09182 		beq	.L659
 10968              		.loc 1 1015 3 discriminator 5
 10969 0030 7B68     		ldr	r3, [r7, #4]
 10970 0032 052B     		cmp	r3, #5
 10971 0034 00F08D82 		beq	.L659
 10972              		.loc 1 1015 3 discriminator 6
 10973 0038 7B68     		ldr	r3, [r7, #4]
 10974 003a 062B     		cmp	r3, #6
 10975 003c 00F08982 		beq	.L659
 10976              		.loc 1 1015 3 discriminator 7
 10977 0040 7B68     		ldr	r3, [r7, #4]
 10978 0042 082B     		cmp	r3, #8
 10979 0044 00F08582 		beq	.L659
 10980              		.loc 1 1015 3 discriminator 8
 10981 0048 7B68     		ldr	r3, [r7, #4]
 10982 004a 092B     		cmp	r3, #9
 10983 004c 00F08182 		beq	.L659
 10984              		.loc 1 1015 3 discriminator 9
 10985 0050 7B68     		ldr	r3, [r7, #4]
 10986 0052 0A2B     		cmp	r3, #10
 10987 0054 00F07D82 		beq	.L659
 10988              		.loc 1 1015 3 discriminator 10
 10989 0058 7B68     		ldr	r3, [r7, #4]
 10990 005a 0B2B     		cmp	r3, #11
 10991 005c 00F07982 		beq	.L659
 10992              		.loc 1 1015 3 discriminator 11
 10993 0060 7B68     		ldr	r3, [r7, #4]
 10994 0062 0C2B     		cmp	r3, #12
 10995 0064 00F07582 		beq	.L659
 10996              		.loc 1 1015 3 discriminator 12
 10997 0068 7B68     		ldr	r3, [r7, #4]
 10998 006a 0D2B     		cmp	r3, #13
 10999 006c 00F07182 		beq	.L659
 11000              		.loc 1 1015 3 discriminator 13
 11001 0070 7B68     		ldr	r3, [r7, #4]
 11002 0072 0E2B     		cmp	r3, #14
ARM GAS  /tmp/ccRTEIeG.s 			page 227


 11003 0074 00F06D82 		beq	.L659
 11004              		.loc 1 1015 3 discriminator 14
 11005 0078 7B68     		ldr	r3, [r7, #4]
 11006 007a 0F2B     		cmp	r3, #15
 11007 007c 00F06982 		beq	.L659
 11008              		.loc 1 1015 3 discriminator 15
 11009 0080 7B68     		ldr	r3, [r7, #4]
 11010 0082 102B     		cmp	r3, #16
 11011 0084 00F06582 		beq	.L659
 11012              		.loc 1 1015 3 discriminator 16
 11013 0088 7B68     		ldr	r3, [r7, #4]
 11014 008a 112B     		cmp	r3, #17
 11015 008c 00F06182 		beq	.L659
 11016              		.loc 1 1015 3 discriminator 17
 11017 0090 7B68     		ldr	r3, [r7, #4]
 11018 0092 122B     		cmp	r3, #18
 11019 0094 00F05D82 		beq	.L659
 11020              		.loc 1 1015 3 discriminator 18
 11021 0098 7B68     		ldr	r3, [r7, #4]
 11022 009a 132B     		cmp	r3, #19
 11023 009c 00F05982 		beq	.L659
 11024              		.loc 1 1015 3 discriminator 19
 11025 00a0 7B68     		ldr	r3, [r7, #4]
 11026 00a2 142B     		cmp	r3, #20
 11027 00a4 00F05582 		beq	.L659
 11028              		.loc 1 1015 3 discriminator 20
 11029 00a8 7B68     		ldr	r3, [r7, #4]
 11030 00aa 152B     		cmp	r3, #21
 11031 00ac 00F05182 		beq	.L659
 11032              		.loc 1 1015 3 discriminator 21
 11033 00b0 7B68     		ldr	r3, [r7, #4]
 11034 00b2 162B     		cmp	r3, #22
 11035 00b4 00F04D82 		beq	.L659
 11036              		.loc 1 1015 3 discriminator 22
 11037 00b8 7B68     		ldr	r3, [r7, #4]
 11038 00ba 172B     		cmp	r3, #23
 11039 00bc 00F04982 		beq	.L659
 11040              		.loc 1 1015 3 discriminator 23
 11041 00c0 7B68     		ldr	r3, [r7, #4]
 11042 00c2 182B     		cmp	r3, #24
 11043 00c4 00F04582 		beq	.L659
 11044              		.loc 1 1015 3 discriminator 24
 11045 00c8 7B68     		ldr	r3, [r7, #4]
 11046 00ca 192B     		cmp	r3, #25
 11047 00cc 00F04182 		beq	.L659
 11048              		.loc 1 1015 3 discriminator 25
 11049 00d0 7B68     		ldr	r3, [r7, #4]
 11050 00d2 1A2B     		cmp	r3, #26
 11051 00d4 00F03D82 		beq	.L659
 11052              		.loc 1 1015 3 discriminator 26
 11053 00d8 7B68     		ldr	r3, [r7, #4]
 11054 00da 1B2B     		cmp	r3, #27
 11055 00dc 00F03982 		beq	.L659
 11056              		.loc 1 1015 3 discriminator 27
 11057 00e0 7B68     		ldr	r3, [r7, #4]
 11058 00e2 1C2B     		cmp	r3, #28
 11059 00e4 00F03582 		beq	.L659
ARM GAS  /tmp/ccRTEIeG.s 			page 228


 11060              		.loc 1 1015 3 discriminator 28
 11061 00e8 7B68     		ldr	r3, [r7, #4]
 11062 00ea 1D2B     		cmp	r3, #29
 11063 00ec 00F03182 		beq	.L659
 11064              		.loc 1 1015 3 discriminator 29
 11065 00f0 7B68     		ldr	r3, [r7, #4]
 11066 00f2 1E2B     		cmp	r3, #30
 11067 00f4 00F02D82 		beq	.L659
 11068              		.loc 1 1015 3 discriminator 30
 11069 00f8 7B68     		ldr	r3, [r7, #4]
 11070 00fa 1F2B     		cmp	r3, #31
 11071 00fc 00F02982 		beq	.L659
 11072              		.loc 1 1015 3 discriminator 31
 11073 0100 7B68     		ldr	r3, [r7, #4]
 11074 0102 B3F1805F 		cmp	r3, #268435456
 11075 0106 00F02482 		beq	.L659
 11076              		.loc 1 1015 3 discriminator 32
 11077 010a 7B68     		ldr	r3, [r7, #4]
 11078 010c 9F4A     		ldr	r2, .L660
 11079 010e 9342     		cmp	r3, r2
 11080 0110 00F01F82 		beq	.L659
 11081              		.loc 1 1015 3 discriminator 33
 11082 0114 7B68     		ldr	r3, [r7, #4]
 11083 0116 9E4A     		ldr	r2, .L660+4
 11084 0118 9342     		cmp	r3, r2
 11085 011a 00F01A82 		beq	.L659
 11086              		.loc 1 1015 3 discriminator 34
 11087 011e 7B68     		ldr	r3, [r7, #4]
 11088 0120 9C4A     		ldr	r2, .L660+8
 11089 0122 9342     		cmp	r3, r2
 11090 0124 00F01582 		beq	.L659
 11091              		.loc 1 1015 3 discriminator 35
 11092 0128 7B68     		ldr	r3, [r7, #4]
 11093 012a 9B4A     		ldr	r2, .L660+12
 11094 012c 9342     		cmp	r3, r2
 11095 012e 00F01082 		beq	.L659
 11096              		.loc 1 1015 3 discriminator 36
 11097 0132 7B68     		ldr	r3, [r7, #4]
 11098 0134 994A     		ldr	r2, .L660+16
 11099 0136 9342     		cmp	r3, r2
 11100 0138 00F00B82 		beq	.L659
 11101              		.loc 1 1015 3 discriminator 37
 11102 013c 7B68     		ldr	r3, [r7, #4]
 11103 013e 984A     		ldr	r2, .L660+20
 11104 0140 9342     		cmp	r3, r2
 11105 0142 00F00682 		beq	.L659
 11106              		.loc 1 1015 3 discriminator 38
 11107 0146 7B68     		ldr	r3, [r7, #4]
 11108 0148 964A     		ldr	r2, .L660+24
 11109 014a 9342     		cmp	r3, r2
 11110 014c 00F00182 		beq	.L659
 11111              		.loc 1 1015 3 discriminator 39
 11112 0150 7B68     		ldr	r3, [r7, #4]
 11113 0152 954A     		ldr	r2, .L660+28
 11114 0154 9342     		cmp	r3, r2
 11115 0156 00F0FC81 		beq	.L659
 11116              		.loc 1 1015 3 discriminator 40
ARM GAS  /tmp/ccRTEIeG.s 			page 229


 11117 015a 7B68     		ldr	r3, [r7, #4]
 11118 015c 934A     		ldr	r2, .L660+32
 11119 015e 9342     		cmp	r3, r2
 11120 0160 00F0F781 		beq	.L659
 11121              		.loc 1 1015 3 discriminator 41
 11122 0164 7B68     		ldr	r3, [r7, #4]
 11123 0166 924A     		ldr	r2, .L660+36
 11124 0168 9342     		cmp	r3, r2
 11125 016a 00F0F281 		beq	.L659
 11126              		.loc 1 1015 3 discriminator 42
 11127 016e 7B68     		ldr	r3, [r7, #4]
 11128 0170 904A     		ldr	r2, .L660+40
 11129 0172 9342     		cmp	r3, r2
 11130 0174 00F0ED81 		beq	.L659
 11131              		.loc 1 1015 3 discriminator 43
 11132 0178 7B68     		ldr	r3, [r7, #4]
 11133 017a 8F4A     		ldr	r2, .L660+44
 11134 017c 9342     		cmp	r3, r2
 11135 017e 00F0E881 		beq	.L659
 11136              		.loc 1 1015 3 discriminator 44
 11137 0182 7B68     		ldr	r3, [r7, #4]
 11138 0184 8D4A     		ldr	r2, .L660+48
 11139 0186 9342     		cmp	r3, r2
 11140 0188 00F0E381 		beq	.L659
 11141              		.loc 1 1015 3 discriminator 45
 11142 018c 7B68     		ldr	r3, [r7, #4]
 11143 018e 8C4A     		ldr	r2, .L660+52
 11144 0190 9342     		cmp	r3, r2
 11145 0192 00F0DE81 		beq	.L659
 11146              		.loc 1 1015 3 discriminator 46
 11147 0196 7B68     		ldr	r3, [r7, #4]
 11148 0198 8A4A     		ldr	r2, .L660+56
 11149 019a 9342     		cmp	r3, r2
 11150 019c 00F0D981 		beq	.L659
 11151              		.loc 1 1015 3 discriminator 47
 11152 01a0 7B68     		ldr	r3, [r7, #4]
 11153 01a2 894A     		ldr	r2, .L660+60
 11154 01a4 9342     		cmp	r3, r2
 11155 01a6 00F0D481 		beq	.L659
 11156              		.loc 1 1015 3 discriminator 48
 11157 01aa 7B68     		ldr	r3, [r7, #4]
 11158 01ac 874A     		ldr	r2, .L660+64
 11159 01ae 9342     		cmp	r3, r2
 11160 01b0 00F0CF81 		beq	.L659
 11161              		.loc 1 1015 3 discriminator 49
 11162 01b4 7B68     		ldr	r3, [r7, #4]
 11163 01b6 864A     		ldr	r2, .L660+68
 11164 01b8 9342     		cmp	r3, r2
 11165 01ba 00F0CA81 		beq	.L659
 11166              		.loc 1 1015 3 discriminator 50
 11167 01be 7B68     		ldr	r3, [r7, #4]
 11168 01c0 844A     		ldr	r2, .L660+72
 11169 01c2 9342     		cmp	r3, r2
 11170 01c4 00F0C581 		beq	.L659
 11171              		.loc 1 1015 3 discriminator 51
 11172 01c8 7B68     		ldr	r3, [r7, #4]
 11173 01ca 834A     		ldr	r2, .L660+76
ARM GAS  /tmp/ccRTEIeG.s 			page 230


 11174 01cc 9342     		cmp	r3, r2
 11175 01ce 00F0C081 		beq	.L659
 11176              		.loc 1 1015 3 discriminator 52
 11177 01d2 7B68     		ldr	r3, [r7, #4]
 11178 01d4 814A     		ldr	r2, .L660+80
 11179 01d6 9342     		cmp	r3, r2
 11180 01d8 00F0BB81 		beq	.L659
 11181              		.loc 1 1015 3 discriminator 53
 11182 01dc 7B68     		ldr	r3, [r7, #4]
 11183 01de 804A     		ldr	r2, .L660+84
 11184 01e0 9342     		cmp	r3, r2
 11185 01e2 00F0B681 		beq	.L659
 11186              		.loc 1 1015 3 discriminator 54
 11187 01e6 7B68     		ldr	r3, [r7, #4]
 11188 01e8 7E4A     		ldr	r2, .L660+88
 11189 01ea 9342     		cmp	r3, r2
 11190 01ec 00F0B181 		beq	.L659
 11191              		.loc 1 1015 3 discriminator 55
 11192 01f0 7B68     		ldr	r3, [r7, #4]
 11193 01f2 7D4A     		ldr	r2, .L660+92
 11194 01f4 9342     		cmp	r3, r2
 11195 01f6 00F0AC81 		beq	.L659
 11196              		.loc 1 1015 3 discriminator 56
 11197 01fa 7B68     		ldr	r3, [r7, #4]
 11198 01fc 7B4A     		ldr	r2, .L660+96
 11199 01fe 9342     		cmp	r3, r2
 11200 0200 00F0A781 		beq	.L659
 11201              		.loc 1 1015 3 discriminator 57
 11202 0204 7B68     		ldr	r3, [r7, #4]
 11203 0206 7A4A     		ldr	r2, .L660+100
 11204 0208 9342     		cmp	r3, r2
 11205 020a 00F0A281 		beq	.L659
 11206              		.loc 1 1015 3 discriminator 58
 11207 020e 7B68     		ldr	r3, [r7, #4]
 11208 0210 784A     		ldr	r2, .L660+104
 11209 0212 9342     		cmp	r3, r2
 11210 0214 00F09D81 		beq	.L659
 11211              		.loc 1 1015 3 discriminator 59
 11212 0218 7B68     		ldr	r3, [r7, #4]
 11213 021a 774A     		ldr	r2, .L660+108
 11214 021c 9342     		cmp	r3, r2
 11215 021e 00F09881 		beq	.L659
 11216              		.loc 1 1015 3 discriminator 60
 11217 0222 7B68     		ldr	r3, [r7, #4]
 11218 0224 754A     		ldr	r2, .L660+112
 11219 0226 9342     		cmp	r3, r2
 11220 0228 00F09381 		beq	.L659
 11221              		.loc 1 1015 3 discriminator 61
 11222 022c 7B68     		ldr	r3, [r7, #4]
 11223 022e B3F1005F 		cmp	r3, #536870912
 11224 0232 00F08E81 		beq	.L659
 11225              		.loc 1 1015 3 discriminator 62
 11226 0236 7B68     		ldr	r3, [r7, #4]
 11227 0238 714A     		ldr	r2, .L660+116
 11228 023a 9342     		cmp	r3, r2
 11229 023c 00F08981 		beq	.L659
 11230              		.loc 1 1015 3 discriminator 63
ARM GAS  /tmp/ccRTEIeG.s 			page 231


 11231 0240 7B68     		ldr	r3, [r7, #4]
 11232 0242 704A     		ldr	r2, .L660+120
 11233 0244 9342     		cmp	r3, r2
 11234 0246 00F08481 		beq	.L659
 11235              		.loc 1 1015 3 discriminator 64
 11236 024a 7B68     		ldr	r3, [r7, #4]
 11237 024c 6E4A     		ldr	r2, .L660+124
 11238 024e 9342     		cmp	r3, r2
 11239 0250 00F07F81 		beq	.L659
 11240              		.loc 1 1015 3 discriminator 65
 11241 0254 7B68     		ldr	r3, [r7, #4]
 11242 0256 6D4A     		ldr	r2, .L660+128
 11243 0258 9342     		cmp	r3, r2
 11244 025a 00F07A81 		beq	.L659
 11245              		.loc 1 1015 3 discriminator 66
 11246 025e 7B68     		ldr	r3, [r7, #4]
 11247 0260 6B4A     		ldr	r2, .L660+132
 11248 0262 9342     		cmp	r3, r2
 11249 0264 00F07581 		beq	.L659
 11250              		.loc 1 1015 3 discriminator 67
 11251 0268 7B68     		ldr	r3, [r7, #4]
 11252 026a 6A4A     		ldr	r2, .L660+136
 11253 026c 9342     		cmp	r3, r2
 11254 026e 00F07081 		beq	.L659
 11255              		.loc 1 1015 3 discriminator 68
 11256 0272 7B68     		ldr	r3, [r7, #4]
 11257 0274 684A     		ldr	r2, .L660+140
 11258 0276 9342     		cmp	r3, r2
 11259 0278 00F06B81 		beq	.L659
 11260              		.loc 1 1015 3 discriminator 69
 11261 027c 7B68     		ldr	r3, [r7, #4]
 11262 027e 674A     		ldr	r2, .L660+144
 11263 0280 9342     		cmp	r3, r2
 11264 0282 00F06681 		beq	.L659
 11265              		.loc 1 1015 3 discriminator 70
 11266 0286 7B68     		ldr	r3, [r7, #4]
 11267 0288 654A     		ldr	r2, .L660+148
 11268 028a 9342     		cmp	r3, r2
 11269 028c 00F06181 		beq	.L659
 11270              		.loc 1 1015 3 discriminator 71
 11271 0290 7B68     		ldr	r3, [r7, #4]
 11272 0292 644A     		ldr	r2, .L660+152
 11273 0294 9342     		cmp	r3, r2
 11274 0296 00F05C81 		beq	.L659
 11275              		.loc 1 1015 3 discriminator 72
 11276 029a 7B68     		ldr	r3, [r7, #4]
 11277 029c 624A     		ldr	r2, .L660+156
 11278 029e 9342     		cmp	r3, r2
 11279 02a0 00F05781 		beq	.L659
 11280              		.loc 1 1015 3 discriminator 73
 11281 02a4 7B68     		ldr	r3, [r7, #4]
 11282 02a6 614A     		ldr	r2, .L660+160
 11283 02a8 9342     		cmp	r3, r2
 11284 02aa 00F05281 		beq	.L659
 11285              		.loc 1 1015 3 discriminator 74
 11286 02ae 7B68     		ldr	r3, [r7, #4]
 11287 02b0 5F4A     		ldr	r2, .L660+164
ARM GAS  /tmp/ccRTEIeG.s 			page 232


 11288 02b2 9342     		cmp	r3, r2
 11289 02b4 00F04D81 		beq	.L659
 11290              		.loc 1 1015 3 discriminator 75
 11291 02b8 7B68     		ldr	r3, [r7, #4]
 11292 02ba 5E4A     		ldr	r2, .L660+168
 11293 02bc 9342     		cmp	r3, r2
 11294 02be 00F04881 		beq	.L659
 11295              		.loc 1 1015 3 discriminator 76
 11296 02c2 7B68     		ldr	r3, [r7, #4]
 11297 02c4 5C4A     		ldr	r2, .L660+172
 11298 02c6 9342     		cmp	r3, r2
 11299 02c8 00F04381 		beq	.L659
 11300              		.loc 1 1015 3 discriminator 77
 11301 02cc 7B68     		ldr	r3, [r7, #4]
 11302 02ce 5B4A     		ldr	r2, .L660+176
 11303 02d0 9342     		cmp	r3, r2
 11304 02d2 00F03E81 		beq	.L659
 11305              		.loc 1 1015 3 discriminator 78
 11306 02d6 7B68     		ldr	r3, [r7, #4]
 11307 02d8 594A     		ldr	r2, .L660+180
 11308 02da 9342     		cmp	r3, r2
 11309 02dc 00F03981 		beq	.L659
 11310              		.loc 1 1015 3 discriminator 79
 11311 02e0 7B68     		ldr	r3, [r7, #4]
 11312 02e2 584A     		ldr	r2, .L660+184
 11313 02e4 9342     		cmp	r3, r2
 11314 02e6 00F03481 		beq	.L659
 11315              		.loc 1 1015 3 discriminator 80
 11316 02ea 7B68     		ldr	r3, [r7, #4]
 11317 02ec 564A     		ldr	r2, .L660+188
 11318 02ee 9342     		cmp	r3, r2
 11319 02f0 00F02F81 		beq	.L659
 11320              		.loc 1 1015 3 discriminator 81
 11321 02f4 7B68     		ldr	r3, [r7, #4]
 11322 02f6 554A     		ldr	r2, .L660+192
 11323 02f8 9342     		cmp	r3, r2
 11324 02fa 00F02A81 		beq	.L659
 11325              		.loc 1 1015 3 discriminator 82
 11326 02fe 7B68     		ldr	r3, [r7, #4]
 11327 0300 534A     		ldr	r2, .L660+196
 11328 0302 9342     		cmp	r3, r2
 11329 0304 00F02581 		beq	.L659
 11330              		.loc 1 1015 3 discriminator 83
 11331 0308 7B68     		ldr	r3, [r7, #4]
 11332 030a B3F1405F 		cmp	r3, #805306368
 11333 030e 00F02081 		beq	.L659
 11334              		.loc 1 1015 3 discriminator 84
 11335 0312 7B68     		ldr	r3, [r7, #4]
 11336 0314 4F4A     		ldr	r2, .L660+200
 11337 0316 9342     		cmp	r3, r2
 11338 0318 00F01B81 		beq	.L659
 11339              		.loc 1 1015 3 discriminator 85
 11340 031c 7B68     		ldr	r3, [r7, #4]
 11341 031e 4E4A     		ldr	r2, .L660+204
 11342 0320 9342     		cmp	r3, r2
 11343 0322 00F01681 		beq	.L659
 11344              		.loc 1 1015 3 discriminator 86
ARM GAS  /tmp/ccRTEIeG.s 			page 233


 11345 0326 7B68     		ldr	r3, [r7, #4]
 11346 0328 4C4A     		ldr	r2, .L660+208
 11347 032a 9342     		cmp	r3, r2
 11348 032c 00F01181 		beq	.L659
 11349              		.loc 1 1015 3 discriminator 87
 11350 0330 7B68     		ldr	r3, [r7, #4]
 11351 0332 4B4A     		ldr	r2, .L660+212
 11352 0334 9342     		cmp	r3, r2
 11353 0336 00F00C81 		beq	.L659
 11354              		.loc 1 1015 3 discriminator 88
 11355 033a 7B68     		ldr	r3, [r7, #4]
 11356 033c 494A     		ldr	r2, .L660+216
 11357 033e 9342     		cmp	r3, r2
 11358 0340 00F00781 		beq	.L659
 11359              		.loc 1 1015 3 discriminator 89
 11360 0344 7B68     		ldr	r3, [r7, #4]
 11361 0346 484A     		ldr	r2, .L660+220
 11362 0348 9342     		cmp	r3, r2
 11363 034a 00F00281 		beq	.L659
 11364              		.loc 1 1015 3 discriminator 90
 11365 034e 7B68     		ldr	r3, [r7, #4]
 11366 0350 464A     		ldr	r2, .L660+224
 11367 0352 9342     		cmp	r3, r2
 11368 0354 00F0FD80 		beq	.L659
 11369              		.loc 1 1015 3 discriminator 91
 11370 0358 7B68     		ldr	r3, [r7, #4]
 11371 035a 454A     		ldr	r2, .L660+228
 11372 035c 9342     		cmp	r3, r2
 11373 035e 00F0F880 		beq	.L659
 11374              		.loc 1 1015 3 discriminator 92
 11375 0362 7B68     		ldr	r3, [r7, #4]
 11376 0364 434A     		ldr	r2, .L660+232
 11377 0366 9342     		cmp	r3, r2
 11378 0368 00F0F380 		beq	.L659
 11379              		.loc 1 1015 3 discriminator 93
 11380 036c 7B68     		ldr	r3, [r7, #4]
 11381 036e B3F1804F 		cmp	r3, #1073741824
 11382 0372 00F0EE80 		beq	.L659
 11383              		.loc 1 1015 3 discriminator 94
 11384 0376 7B68     		ldr	r3, [r7, #4]
 11385 0378 3F4A     		ldr	r2, .L660+236
 11386 037a 9342     		cmp	r3, r2
 11387 037c 00F0E980 		beq	.L659
 11388              		.loc 1 1015 3 discriminator 95
 11389 0380 7B68     		ldr	r3, [r7, #4]
 11390 0382 3E4A     		ldr	r2, .L660+240
 11391 0384 9342     		cmp	r3, r2
 11392 0386 00F0E480 		beq	.L659
 11393 038a 79E0     		b	.L661
 11394              	.L662:
 11395              		.align	2
 11396              	.L660:
 11397 038c 01000010 		.word	268435457
 11398 0390 02000010 		.word	268435458
 11399 0394 03000010 		.word	268435459
 11400 0398 04000010 		.word	268435460
 11401 039c 05000010 		.word	268435461
ARM GAS  /tmp/ccRTEIeG.s 			page 234


 11402 03a0 06000010 		.word	268435462
 11403 03a4 07000010 		.word	268435463
 11404 03a8 08000010 		.word	268435464
 11405 03ac 09000010 		.word	268435465
 11406 03b0 0A000010 		.word	268435466
 11407 03b4 0B000010 		.word	268435467
 11408 03b8 0C000010 		.word	268435468
 11409 03bc 0D000010 		.word	268435469
 11410 03c0 0E000010 		.word	268435470
 11411 03c4 0F000010 		.word	268435471
 11412 03c8 10000010 		.word	268435472
 11413 03cc 11000010 		.word	268435473
 11414 03d0 12000010 		.word	268435474
 11415 03d4 13000010 		.word	268435475
 11416 03d8 14000010 		.word	268435476
 11417 03dc 15000010 		.word	268435477
 11418 03e0 16000010 		.word	268435478
 11419 03e4 17000010 		.word	268435479
 11420 03e8 18000010 		.word	268435480
 11421 03ec 19000010 		.word	268435481
 11422 03f0 1A000010 		.word	268435482
 11423 03f4 1C000010 		.word	268435484
 11424 03f8 1D000010 		.word	268435485
 11425 03fc 1E000010 		.word	268435486
 11426 0400 01000020 		.word	536870913
 11427 0404 03000020 		.word	536870915
 11428 0408 04000020 		.word	536870916
 11429 040c 05000020 		.word	536870917
 11430 0410 0C000020 		.word	536870924
 11431 0414 0D000020 		.word	536870925
 11432 0418 0E000020 		.word	536870926
 11433 041c 0F000020 		.word	536870927
 11434 0420 10000020 		.word	536870928
 11435 0424 11000020 		.word	536870929
 11436 0428 12000020 		.word	536870930
 11437 042c 13000020 		.word	536870931
 11438 0430 14000020 		.word	536870932
 11439 0434 16000020 		.word	536870934
 11440 0438 17000020 		.word	536870935
 11441 043c 18000020 		.word	536870936
 11442 0440 19000020 		.word	536870937
 11443 0444 1A000020 		.word	536870938
 11444 0448 1C000020 		.word	536870940
 11445 044c 1D000020 		.word	536870941
 11446 0450 1E000020 		.word	536870942
 11447 0454 01000030 		.word	805306369
 11448 0458 02000030 		.word	805306370
 11449 045c 03000030 		.word	805306371
 11450 0460 04000030 		.word	805306372
 11451 0464 05000030 		.word	805306373
 11452 0468 06000030 		.word	805306374
 11453 046c 07000030 		.word	805306375
 11454 0470 08000030 		.word	805306376
 11455 0474 0A000030 		.word	805306378
 11456 0478 01000040 		.word	1073741825
 11457 047c 02000040 		.word	1073741826
 11458              	.L661:
ARM GAS  /tmp/ccRTEIeG.s 			page 235


 11459              		.loc 1 1015 3 discriminator 96
 11460 0480 7B68     		ldr	r3, [r7, #4]
 11461 0482 3F4A     		ldr	r2, .L663
 11462 0484 9342     		cmp	r3, r2
 11463 0486 64D0     		beq	.L659
 11464              		.loc 1 1015 3 discriminator 97
 11465 0488 7B68     		ldr	r3, [r7, #4]
 11466 048a 3E4A     		ldr	r2, .L663+4
 11467 048c 9342     		cmp	r3, r2
 11468 048e 60D0     		beq	.L659
 11469              		.loc 1 1015 3 discriminator 98
 11470 0490 7B68     		ldr	r3, [r7, #4]
 11471 0492 3D4A     		ldr	r2, .L663+8
 11472 0494 9342     		cmp	r3, r2
 11473 0496 5CD0     		beq	.L659
 11474              		.loc 1 1015 3 discriminator 99
 11475 0498 7B68     		ldr	r3, [r7, #4]
 11476 049a 3C4A     		ldr	r2, .L663+12
 11477 049c 9342     		cmp	r3, r2
 11478 049e 58D0     		beq	.L659
 11479              		.loc 1 1015 3 discriminator 100
 11480 04a0 7B68     		ldr	r3, [r7, #4]
 11481 04a2 3B4A     		ldr	r2, .L663+16
 11482 04a4 9342     		cmp	r3, r2
 11483 04a6 54D0     		beq	.L659
 11484              		.loc 1 1015 3 discriminator 101
 11485 04a8 7B68     		ldr	r3, [r7, #4]
 11486 04aa 3A4A     		ldr	r2, .L663+20
 11487 04ac 9342     		cmp	r3, r2
 11488 04ae 50D0     		beq	.L659
 11489              		.loc 1 1015 3 discriminator 102
 11490 04b0 7B68     		ldr	r3, [r7, #4]
 11491 04b2 394A     		ldr	r2, .L663+24
 11492 04b4 9342     		cmp	r3, r2
 11493 04b6 4CD0     		beq	.L659
 11494              		.loc 1 1015 3 discriminator 103
 11495 04b8 7B68     		ldr	r3, [r7, #4]
 11496 04ba 384A     		ldr	r2, .L663+28
 11497 04bc 9342     		cmp	r3, r2
 11498 04be 48D0     		beq	.L659
 11499              		.loc 1 1015 3 discriminator 104
 11500 04c0 7B68     		ldr	r3, [r7, #4]
 11501 04c2 374A     		ldr	r2, .L663+32
 11502 04c4 9342     		cmp	r3, r2
 11503 04c6 44D0     		beq	.L659
 11504              		.loc 1 1015 3 discriminator 105
 11505 04c8 7B68     		ldr	r3, [r7, #4]
 11506 04ca 364A     		ldr	r2, .L663+36
 11507 04cc 9342     		cmp	r3, r2
 11508 04ce 40D0     		beq	.L659
 11509              		.loc 1 1015 3 discriminator 106
 11510 04d0 7B68     		ldr	r3, [r7, #4]
 11511 04d2 354A     		ldr	r2, .L663+40
 11512 04d4 9342     		cmp	r3, r2
 11513 04d6 3CD0     		beq	.L659
 11514              		.loc 1 1015 3 discriminator 107
 11515 04d8 7B68     		ldr	r3, [r7, #4]
ARM GAS  /tmp/ccRTEIeG.s 			page 236


 11516 04da 344A     		ldr	r2, .L663+44
 11517 04dc 9342     		cmp	r3, r2
 11518 04de 38D0     		beq	.L659
 11519              		.loc 1 1015 3 discriminator 108
 11520 04e0 7B68     		ldr	r3, [r7, #4]
 11521 04e2 334A     		ldr	r2, .L663+48
 11522 04e4 9342     		cmp	r3, r2
 11523 04e6 34D0     		beq	.L659
 11524              		.loc 1 1015 3 discriminator 109
 11525 04e8 7B68     		ldr	r3, [r7, #4]
 11526 04ea 324A     		ldr	r2, .L663+52
 11527 04ec 9342     		cmp	r3, r2
 11528 04ee 30D0     		beq	.L659
 11529              		.loc 1 1015 3 discriminator 110
 11530 04f0 7B68     		ldr	r3, [r7, #4]
 11531 04f2 314A     		ldr	r2, .L663+56
 11532 04f4 9342     		cmp	r3, r2
 11533 04f6 2CD0     		beq	.L659
 11534              		.loc 1 1015 3 discriminator 111
 11535 04f8 7B68     		ldr	r3, [r7, #4]
 11536 04fa 304A     		ldr	r2, .L663+60
 11537 04fc 9342     		cmp	r3, r2
 11538 04fe 28D0     		beq	.L659
 11539              		.loc 1 1015 3 discriminator 112
 11540 0500 7B68     		ldr	r3, [r7, #4]
 11541 0502 2F4A     		ldr	r2, .L663+64
 11542 0504 9342     		cmp	r3, r2
 11543 0506 24D0     		beq	.L659
 11544              		.loc 1 1015 3 discriminator 113
 11545 0508 7B68     		ldr	r3, [r7, #4]
 11546 050a 2E4A     		ldr	r2, .L663+68
 11547 050c 9342     		cmp	r3, r2
 11548 050e 20D0     		beq	.L659
 11549              		.loc 1 1015 3 discriminator 114
 11550 0510 7B68     		ldr	r3, [r7, #4]
 11551 0512 2D4A     		ldr	r2, .L663+72
 11552 0514 9342     		cmp	r3, r2
 11553 0516 1CD0     		beq	.L659
 11554              		.loc 1 1015 3 discriminator 115
 11555 0518 7B68     		ldr	r3, [r7, #4]
 11556 051a 2C4A     		ldr	r2, .L663+76
 11557 051c 9342     		cmp	r3, r2
 11558 051e 18D0     		beq	.L659
 11559              		.loc 1 1015 3 discriminator 116
 11560 0520 7B68     		ldr	r3, [r7, #4]
 11561 0522 2B4A     		ldr	r2, .L663+80
 11562 0524 9342     		cmp	r3, r2
 11563 0526 14D0     		beq	.L659
 11564              		.loc 1 1015 3 discriminator 117
 11565 0528 7B68     		ldr	r3, [r7, #4]
 11566 052a 2A4A     		ldr	r2, .L663+84
 11567 052c 9342     		cmp	r3, r2
 11568 052e 10D0     		beq	.L659
 11569              		.loc 1 1015 3 discriminator 118
 11570 0530 7B68     		ldr	r3, [r7, #4]
 11571 0532 294A     		ldr	r2, .L663+88
 11572 0534 9342     		cmp	r3, r2
ARM GAS  /tmp/ccRTEIeG.s 			page 237


 11573 0536 0CD0     		beq	.L659
 11574              		.loc 1 1015 3 discriminator 119
 11575 0538 7B68     		ldr	r3, [r7, #4]
 11576 053a 284A     		ldr	r2, .L663+92
 11577 053c 9342     		cmp	r3, r2
 11578 053e 08D0     		beq	.L659
 11579              		.loc 1 1015 3 discriminator 120
 11580 0540 7B68     		ldr	r3, [r7, #4]
 11581 0542 274A     		ldr	r2, .L663+96
 11582 0544 9342     		cmp	r3, r2
 11583 0546 04D0     		beq	.L659
 11584              		.loc 1 1015 3 discriminator 121
 11585 0548 40F2F731 		movw	r1, #1015
 11586 054c 2548     		ldr	r0, .L663+100
 11587 054e FFF7FEFF 		bl	assert_failed
 11588              	.L659:
1016:STM32Cube_FW_N6/Drivers/STM32N6xx_HAL_Driver/Src/stm32n6xx_hal_rif.c **** 
1017:STM32Cube_FW_N6/Drivers/STM32N6xx_HAL_Driver/Src/stm32n6xx_hal_rif.c ****   p_interrupt_reg = &(IAC->IER[PeriphId >> RIF_PERIPH_REG_SHIFT]);
 11589              		.loc 1 1017 41 is_stmt 1
 11590 0552 7B68     		ldr	r3, [r7, #4]
 11591 0554 1B0F     		lsrs	r3, r3, #28
 11592              		.loc 1 1017 21
 11593 0556 9B00     		lsls	r3, r3, #2
 11594              		.loc 1 1017 19
 11595 0558 03F1A843 		add	r3, r3, #1409286144
 11596 055c 03F51433 		add	r3, r3, #151552
 11597 0560 FB60     		str	r3, [r7, #12]
1018:STM32Cube_FW_N6/Drivers/STM32N6xx_HAL_Driver/Src/stm32n6xx_hal_rif.c ****   *p_interrupt_reg |= (1UL << (PeriphId & RIF_PERIPH_BIT_POSITION));
 11598              		.loc 1 1018 3
 11599 0562 FB68     		ldr	r3, [r7, #12]
 11600 0564 1A68     		ldr	r2, [r3]
 11601              		.loc 1 1018 41
 11602 0566 7B68     		ldr	r3, [r7, #4]
 11603 0568 03F01F03 		and	r3, r3, #31
 11604              		.loc 1 1018 28
 11605 056c 0121     		movs	r1, #1
 11606 056e 01FA03F3 		lsl	r3, r1, r3
 11607              		.loc 1 1018 20
 11608 0572 1A43     		orrs	r2, r2, r3
 11609 0574 FB68     		ldr	r3, [r7, #12]
 11610 0576 1A60     		str	r2, [r3]
1019:STM32Cube_FW_N6/Drivers/STM32N6xx_HAL_Driver/Src/stm32n6xx_hal_rif.c **** 
1020:STM32Cube_FW_N6/Drivers/STM32N6xx_HAL_Driver/Src/stm32n6xx_hal_rif.c **** }
 11611              		.loc 1 1020 1
 11612 0578 00BF     		nop
 11613 057a 1037     		adds	r7, r7, #16
 11614              		.cfi_def_cfa_offset 8
 11615 057c BD46     		mov	sp, r7
 11616              		.cfi_def_cfa_register 13
 11617              		@ sp needed
 11618 057e 80BD     		pop	{r7, pc}
 11619              	.L664:
 11620              		.align	2
 11621              	.L663:
 11622 0580 03000040 		.word	1073741827
 11623 0584 05000040 		.word	1073741829
 11624 0588 06000040 		.word	1073741830
ARM GAS  /tmp/ccRTEIeG.s 			page 238


 11625 058c 07000040 		.word	1073741831
 11626 0590 08000040 		.word	1073741832
 11627 0594 09000040 		.word	1073741833
 11628 0598 0A000040 		.word	1073741834
 11629 059c 0B000040 		.word	1073741835
 11630 05a0 0C000040 		.word	1073741836
 11631 05a4 0D000040 		.word	1073741837
 11632 05a8 0E000040 		.word	1073741838
 11633 05ac 0F000040 		.word	1073741839
 11634 05b0 10000040 		.word	1073741840
 11635 05b4 11000040 		.word	1073741841
 11636 05b8 12000040 		.word	1073741842
 11637 05bc 13000040 		.word	1073741843
 11638 05c0 15000040 		.word	1073741845
 11639 05c4 16000040 		.word	1073741846
 11640 05c8 17000040 		.word	1073741847
 11641 05cc 18000040 		.word	1073741848
 11642 05d0 19000040 		.word	1073741849
 11643 05d4 1B000040 		.word	1073741851
 11644 05d8 1C000040 		.word	1073741852
 11645 05dc 1D000040 		.word	1073741853
 11646 05e0 1E000040 		.word	1073741854
 11647 05e4 00000000 		.word	.LC0
 11648              		.cfi_endproc
 11649              	.LFE856:
 11651              		.section	.text.HAL_RIF_IAC_DisableIT,"ax",%progbits
 11652              		.align	1
 11653              		.global	HAL_RIF_IAC_DisableIT
 11654              		.syntax unified
 11655              		.thumb
 11656              		.thumb_func
 11658              	HAL_RIF_IAC_DisableIT:
 11659              	.LFB857:
1021:STM32Cube_FW_N6/Drivers/STM32N6xx_HAL_Driver/Src/stm32n6xx_hal_rif.c **** 
1022:STM32Cube_FW_N6/Drivers/STM32N6xx_HAL_Driver/Src/stm32n6xx_hal_rif.c **** /**
1023:STM32Cube_FW_N6/Drivers/STM32N6xx_HAL_Driver/Src/stm32n6xx_hal_rif.c ****   * @brief  Disable interrupt generation on illegal access detection on peripheral or memory access
1024:STM32Cube_FW_N6/Drivers/STM32N6xx_HAL_Driver/Src/stm32n6xx_hal_rif.c ****   * @note   This API is protected by the Trusted Domain compilation directive.
1025:STM32Cube_FW_N6/Drivers/STM32N6xx_HAL_Driver/Src/stm32n6xx_hal_rif.c ****   * @param  PeriphId specifies the index of the bus slave.
1026:STM32Cube_FW_N6/Drivers/STM32N6xx_HAL_Driver/Src/stm32n6xx_hal_rif.c ****   *         This parameter can be one of @ref RIF_PERIPHERAL_INDEX
1027:STM32Cube_FW_N6/Drivers/STM32N6xx_HAL_Driver/Src/stm32n6xx_hal_rif.c ****   *         bits[31:28] define the register index a peripheral belongs to, value from 0 to 5
1028:STM32Cube_FW_N6/Drivers/STM32N6xx_HAL_Driver/Src/stm32n6xx_hal_rif.c ****   *         bits[4:0]   define the bit position within the register, value from 0 to 31
1029:STM32Cube_FW_N6/Drivers/STM32N6xx_HAL_Driver/Src/stm32n6xx_hal_rif.c ****   * @retval None
1030:STM32Cube_FW_N6/Drivers/STM32N6xx_HAL_Driver/Src/stm32n6xx_hal_rif.c ****   */
1031:STM32Cube_FW_N6/Drivers/STM32N6xx_HAL_Driver/Src/stm32n6xx_hal_rif.c **** void HAL_RIF_IAC_DisableIT(uint32_t PeriphId)
1032:STM32Cube_FW_N6/Drivers/STM32N6xx_HAL_Driver/Src/stm32n6xx_hal_rif.c **** {
 11660              		.loc 1 1032 1
 11661              		.cfi_startproc
 11662              		@ args = 0, pretend = 0, frame = 16
 11663              		@ frame_needed = 1, uses_anonymous_args = 0
 11664 0000 80B5     		push	{r7, lr}
 11665              		.cfi_def_cfa_offset 8
 11666              		.cfi_offset 7, -8
 11667              		.cfi_offset 14, -4
 11668 0002 84B0     		sub	sp, sp, #16
 11669              		.cfi_def_cfa_offset 24
 11670 0004 00AF     		add	r7, sp, #0
 11671              		.cfi_def_cfa_register 7
ARM GAS  /tmp/ccRTEIeG.s 			page 239


 11672 0006 7860     		str	r0, [r7, #4]
1033:STM32Cube_FW_N6/Drivers/STM32N6xx_HAL_Driver/Src/stm32n6xx_hal_rif.c ****   __IO uint32_t *p_interrupt_reg;
1034:STM32Cube_FW_N6/Drivers/STM32N6xx_HAL_Driver/Src/stm32n6xx_hal_rif.c **** 
1035:STM32Cube_FW_N6/Drivers/STM32N6xx_HAL_Driver/Src/stm32n6xx_hal_rif.c ****   /* Check parameters */
1036:STM32Cube_FW_N6/Drivers/STM32N6xx_HAL_Driver/Src/stm32n6xx_hal_rif.c ****   assert_param(IS_RIF_RISC_PERIPH_INDEX(PeriphId) || IS_RIF_AWARE_PERIPH_INDEX(PeriphId));
 11673              		.loc 1 1036 3
 11674 0008 7B68     		ldr	r3, [r7, #4]
 11675 000a 002B     		cmp	r3, #0
 11676 000c 00F0A182 		beq	.L666
 11677              		.loc 1 1036 3 is_stmt 0 discriminator 1
 11678 0010 7B68     		ldr	r3, [r7, #4]
 11679 0012 012B     		cmp	r3, #1
 11680 0014 00F09D82 		beq	.L666
 11681              		.loc 1 1036 3 discriminator 2
 11682 0018 7B68     		ldr	r3, [r7, #4]
 11683 001a 022B     		cmp	r3, #2
 11684 001c 00F09982 		beq	.L666
 11685              		.loc 1 1036 3 discriminator 3
 11686 0020 7B68     		ldr	r3, [r7, #4]
 11687 0022 032B     		cmp	r3, #3
 11688 0024 00F09582 		beq	.L666
 11689              		.loc 1 1036 3 discriminator 4
 11690 0028 7B68     		ldr	r3, [r7, #4]
 11691 002a 042B     		cmp	r3, #4
 11692 002c 00F09182 		beq	.L666
 11693              		.loc 1 1036 3 discriminator 5
 11694 0030 7B68     		ldr	r3, [r7, #4]
 11695 0032 052B     		cmp	r3, #5
 11696 0034 00F08D82 		beq	.L666
 11697              		.loc 1 1036 3 discriminator 6
 11698 0038 7B68     		ldr	r3, [r7, #4]
 11699 003a 062B     		cmp	r3, #6
 11700 003c 00F08982 		beq	.L666
 11701              		.loc 1 1036 3 discriminator 7
 11702 0040 7B68     		ldr	r3, [r7, #4]
 11703 0042 082B     		cmp	r3, #8
 11704 0044 00F08582 		beq	.L666
 11705              		.loc 1 1036 3 discriminator 8
 11706 0048 7B68     		ldr	r3, [r7, #4]
 11707 004a 092B     		cmp	r3, #9
 11708 004c 00F08182 		beq	.L666
 11709              		.loc 1 1036 3 discriminator 9
 11710 0050 7B68     		ldr	r3, [r7, #4]
 11711 0052 0A2B     		cmp	r3, #10
 11712 0054 00F07D82 		beq	.L666
 11713              		.loc 1 1036 3 discriminator 10
 11714 0058 7B68     		ldr	r3, [r7, #4]
 11715 005a 0B2B     		cmp	r3, #11
 11716 005c 00F07982 		beq	.L666
 11717              		.loc 1 1036 3 discriminator 11
 11718 0060 7B68     		ldr	r3, [r7, #4]
 11719 0062 0C2B     		cmp	r3, #12
 11720 0064 00F07582 		beq	.L666
 11721              		.loc 1 1036 3 discriminator 12
 11722 0068 7B68     		ldr	r3, [r7, #4]
 11723 006a 0D2B     		cmp	r3, #13
 11724 006c 00F07182 		beq	.L666
ARM GAS  /tmp/ccRTEIeG.s 			page 240


 11725              		.loc 1 1036 3 discriminator 13
 11726 0070 7B68     		ldr	r3, [r7, #4]
 11727 0072 0E2B     		cmp	r3, #14
 11728 0074 00F06D82 		beq	.L666
 11729              		.loc 1 1036 3 discriminator 14
 11730 0078 7B68     		ldr	r3, [r7, #4]
 11731 007a 0F2B     		cmp	r3, #15
 11732 007c 00F06982 		beq	.L666
 11733              		.loc 1 1036 3 discriminator 15
 11734 0080 7B68     		ldr	r3, [r7, #4]
 11735 0082 102B     		cmp	r3, #16
 11736 0084 00F06582 		beq	.L666
 11737              		.loc 1 1036 3 discriminator 16
 11738 0088 7B68     		ldr	r3, [r7, #4]
 11739 008a 112B     		cmp	r3, #17
 11740 008c 00F06182 		beq	.L666
 11741              		.loc 1 1036 3 discriminator 17
 11742 0090 7B68     		ldr	r3, [r7, #4]
 11743 0092 122B     		cmp	r3, #18
 11744 0094 00F05D82 		beq	.L666
 11745              		.loc 1 1036 3 discriminator 18
 11746 0098 7B68     		ldr	r3, [r7, #4]
 11747 009a 132B     		cmp	r3, #19
 11748 009c 00F05982 		beq	.L666
 11749              		.loc 1 1036 3 discriminator 19
 11750 00a0 7B68     		ldr	r3, [r7, #4]
 11751 00a2 142B     		cmp	r3, #20
 11752 00a4 00F05582 		beq	.L666
 11753              		.loc 1 1036 3 discriminator 20
 11754 00a8 7B68     		ldr	r3, [r7, #4]
 11755 00aa 152B     		cmp	r3, #21
 11756 00ac 00F05182 		beq	.L666
 11757              		.loc 1 1036 3 discriminator 21
 11758 00b0 7B68     		ldr	r3, [r7, #4]
 11759 00b2 162B     		cmp	r3, #22
 11760 00b4 00F04D82 		beq	.L666
 11761              		.loc 1 1036 3 discriminator 22
 11762 00b8 7B68     		ldr	r3, [r7, #4]
 11763 00ba 172B     		cmp	r3, #23
 11764 00bc 00F04982 		beq	.L666
 11765              		.loc 1 1036 3 discriminator 23
 11766 00c0 7B68     		ldr	r3, [r7, #4]
 11767 00c2 182B     		cmp	r3, #24
 11768 00c4 00F04582 		beq	.L666
 11769              		.loc 1 1036 3 discriminator 24
 11770 00c8 7B68     		ldr	r3, [r7, #4]
 11771 00ca 192B     		cmp	r3, #25
 11772 00cc 00F04182 		beq	.L666
 11773              		.loc 1 1036 3 discriminator 25
 11774 00d0 7B68     		ldr	r3, [r7, #4]
 11775 00d2 1A2B     		cmp	r3, #26
 11776 00d4 00F03D82 		beq	.L666
 11777              		.loc 1 1036 3 discriminator 26
 11778 00d8 7B68     		ldr	r3, [r7, #4]
 11779 00da 1B2B     		cmp	r3, #27
 11780 00dc 00F03982 		beq	.L666
 11781              		.loc 1 1036 3 discriminator 27
ARM GAS  /tmp/ccRTEIeG.s 			page 241


 11782 00e0 7B68     		ldr	r3, [r7, #4]
 11783 00e2 1C2B     		cmp	r3, #28
 11784 00e4 00F03582 		beq	.L666
 11785              		.loc 1 1036 3 discriminator 28
 11786 00e8 7B68     		ldr	r3, [r7, #4]
 11787 00ea 1D2B     		cmp	r3, #29
 11788 00ec 00F03182 		beq	.L666
 11789              		.loc 1 1036 3 discriminator 29
 11790 00f0 7B68     		ldr	r3, [r7, #4]
 11791 00f2 1E2B     		cmp	r3, #30
 11792 00f4 00F02D82 		beq	.L666
 11793              		.loc 1 1036 3 discriminator 30
 11794 00f8 7B68     		ldr	r3, [r7, #4]
 11795 00fa 1F2B     		cmp	r3, #31
 11796 00fc 00F02982 		beq	.L666
 11797              		.loc 1 1036 3 discriminator 31
 11798 0100 7B68     		ldr	r3, [r7, #4]
 11799 0102 B3F1805F 		cmp	r3, #268435456
 11800 0106 00F02482 		beq	.L666
 11801              		.loc 1 1036 3 discriminator 32
 11802 010a 7B68     		ldr	r3, [r7, #4]
 11803 010c 9F4A     		ldr	r2, .L667
 11804 010e 9342     		cmp	r3, r2
 11805 0110 00F01F82 		beq	.L666
 11806              		.loc 1 1036 3 discriminator 33
 11807 0114 7B68     		ldr	r3, [r7, #4]
 11808 0116 9E4A     		ldr	r2, .L667+4
 11809 0118 9342     		cmp	r3, r2
 11810 011a 00F01A82 		beq	.L666
 11811              		.loc 1 1036 3 discriminator 34
 11812 011e 7B68     		ldr	r3, [r7, #4]
 11813 0120 9C4A     		ldr	r2, .L667+8
 11814 0122 9342     		cmp	r3, r2
 11815 0124 00F01582 		beq	.L666
 11816              		.loc 1 1036 3 discriminator 35
 11817 0128 7B68     		ldr	r3, [r7, #4]
 11818 012a 9B4A     		ldr	r2, .L667+12
 11819 012c 9342     		cmp	r3, r2
 11820 012e 00F01082 		beq	.L666
 11821              		.loc 1 1036 3 discriminator 36
 11822 0132 7B68     		ldr	r3, [r7, #4]
 11823 0134 994A     		ldr	r2, .L667+16
 11824 0136 9342     		cmp	r3, r2
 11825 0138 00F00B82 		beq	.L666
 11826              		.loc 1 1036 3 discriminator 37
 11827 013c 7B68     		ldr	r3, [r7, #4]
 11828 013e 984A     		ldr	r2, .L667+20
 11829 0140 9342     		cmp	r3, r2
 11830 0142 00F00682 		beq	.L666
 11831              		.loc 1 1036 3 discriminator 38
 11832 0146 7B68     		ldr	r3, [r7, #4]
 11833 0148 964A     		ldr	r2, .L667+24
 11834 014a 9342     		cmp	r3, r2
 11835 014c 00F00182 		beq	.L666
 11836              		.loc 1 1036 3 discriminator 39
 11837 0150 7B68     		ldr	r3, [r7, #4]
 11838 0152 954A     		ldr	r2, .L667+28
ARM GAS  /tmp/ccRTEIeG.s 			page 242


 11839 0154 9342     		cmp	r3, r2
 11840 0156 00F0FC81 		beq	.L666
 11841              		.loc 1 1036 3 discriminator 40
 11842 015a 7B68     		ldr	r3, [r7, #4]
 11843 015c 934A     		ldr	r2, .L667+32
 11844 015e 9342     		cmp	r3, r2
 11845 0160 00F0F781 		beq	.L666
 11846              		.loc 1 1036 3 discriminator 41
 11847 0164 7B68     		ldr	r3, [r7, #4]
 11848 0166 924A     		ldr	r2, .L667+36
 11849 0168 9342     		cmp	r3, r2
 11850 016a 00F0F281 		beq	.L666
 11851              		.loc 1 1036 3 discriminator 42
 11852 016e 7B68     		ldr	r3, [r7, #4]
 11853 0170 904A     		ldr	r2, .L667+40
 11854 0172 9342     		cmp	r3, r2
 11855 0174 00F0ED81 		beq	.L666
 11856              		.loc 1 1036 3 discriminator 43
 11857 0178 7B68     		ldr	r3, [r7, #4]
 11858 017a 8F4A     		ldr	r2, .L667+44
 11859 017c 9342     		cmp	r3, r2
 11860 017e 00F0E881 		beq	.L666
 11861              		.loc 1 1036 3 discriminator 44
 11862 0182 7B68     		ldr	r3, [r7, #4]
 11863 0184 8D4A     		ldr	r2, .L667+48
 11864 0186 9342     		cmp	r3, r2
 11865 0188 00F0E381 		beq	.L666
 11866              		.loc 1 1036 3 discriminator 45
 11867 018c 7B68     		ldr	r3, [r7, #4]
 11868 018e 8C4A     		ldr	r2, .L667+52
 11869 0190 9342     		cmp	r3, r2
 11870 0192 00F0DE81 		beq	.L666
 11871              		.loc 1 1036 3 discriminator 46
 11872 0196 7B68     		ldr	r3, [r7, #4]
 11873 0198 8A4A     		ldr	r2, .L667+56
 11874 019a 9342     		cmp	r3, r2
 11875 019c 00F0D981 		beq	.L666
 11876              		.loc 1 1036 3 discriminator 47
 11877 01a0 7B68     		ldr	r3, [r7, #4]
 11878 01a2 894A     		ldr	r2, .L667+60
 11879 01a4 9342     		cmp	r3, r2
 11880 01a6 00F0D481 		beq	.L666
 11881              		.loc 1 1036 3 discriminator 48
 11882 01aa 7B68     		ldr	r3, [r7, #4]
 11883 01ac 874A     		ldr	r2, .L667+64
 11884 01ae 9342     		cmp	r3, r2
 11885 01b0 00F0CF81 		beq	.L666
 11886              		.loc 1 1036 3 discriminator 49
 11887 01b4 7B68     		ldr	r3, [r7, #4]
 11888 01b6 864A     		ldr	r2, .L667+68
 11889 01b8 9342     		cmp	r3, r2
 11890 01ba 00F0CA81 		beq	.L666
 11891              		.loc 1 1036 3 discriminator 50
 11892 01be 7B68     		ldr	r3, [r7, #4]
 11893 01c0 844A     		ldr	r2, .L667+72
 11894 01c2 9342     		cmp	r3, r2
 11895 01c4 00F0C581 		beq	.L666
ARM GAS  /tmp/ccRTEIeG.s 			page 243


 11896              		.loc 1 1036 3 discriminator 51
 11897 01c8 7B68     		ldr	r3, [r7, #4]
 11898 01ca 834A     		ldr	r2, .L667+76
 11899 01cc 9342     		cmp	r3, r2
 11900 01ce 00F0C081 		beq	.L666
 11901              		.loc 1 1036 3 discriminator 52
 11902 01d2 7B68     		ldr	r3, [r7, #4]
 11903 01d4 814A     		ldr	r2, .L667+80
 11904 01d6 9342     		cmp	r3, r2
 11905 01d8 00F0BB81 		beq	.L666
 11906              		.loc 1 1036 3 discriminator 53
 11907 01dc 7B68     		ldr	r3, [r7, #4]
 11908 01de 804A     		ldr	r2, .L667+84
 11909 01e0 9342     		cmp	r3, r2
 11910 01e2 00F0B681 		beq	.L666
 11911              		.loc 1 1036 3 discriminator 54
 11912 01e6 7B68     		ldr	r3, [r7, #4]
 11913 01e8 7E4A     		ldr	r2, .L667+88
 11914 01ea 9342     		cmp	r3, r2
 11915 01ec 00F0B181 		beq	.L666
 11916              		.loc 1 1036 3 discriminator 55
 11917 01f0 7B68     		ldr	r3, [r7, #4]
 11918 01f2 7D4A     		ldr	r2, .L667+92
 11919 01f4 9342     		cmp	r3, r2
 11920 01f6 00F0AC81 		beq	.L666
 11921              		.loc 1 1036 3 discriminator 56
 11922 01fa 7B68     		ldr	r3, [r7, #4]
 11923 01fc 7B4A     		ldr	r2, .L667+96
 11924 01fe 9342     		cmp	r3, r2
 11925 0200 00F0A781 		beq	.L666
 11926              		.loc 1 1036 3 discriminator 57
 11927 0204 7B68     		ldr	r3, [r7, #4]
 11928 0206 7A4A     		ldr	r2, .L667+100
 11929 0208 9342     		cmp	r3, r2
 11930 020a 00F0A281 		beq	.L666
 11931              		.loc 1 1036 3 discriminator 58
 11932 020e 7B68     		ldr	r3, [r7, #4]
 11933 0210 784A     		ldr	r2, .L667+104
 11934 0212 9342     		cmp	r3, r2
 11935 0214 00F09D81 		beq	.L666
 11936              		.loc 1 1036 3 discriminator 59
 11937 0218 7B68     		ldr	r3, [r7, #4]
 11938 021a 774A     		ldr	r2, .L667+108
 11939 021c 9342     		cmp	r3, r2
 11940 021e 00F09881 		beq	.L666
 11941              		.loc 1 1036 3 discriminator 60
 11942 0222 7B68     		ldr	r3, [r7, #4]
 11943 0224 754A     		ldr	r2, .L667+112
 11944 0226 9342     		cmp	r3, r2
 11945 0228 00F09381 		beq	.L666
 11946              		.loc 1 1036 3 discriminator 61
 11947 022c 7B68     		ldr	r3, [r7, #4]
 11948 022e B3F1005F 		cmp	r3, #536870912
 11949 0232 00F08E81 		beq	.L666
 11950              		.loc 1 1036 3 discriminator 62
 11951 0236 7B68     		ldr	r3, [r7, #4]
 11952 0238 714A     		ldr	r2, .L667+116
ARM GAS  /tmp/ccRTEIeG.s 			page 244


 11953 023a 9342     		cmp	r3, r2
 11954 023c 00F08981 		beq	.L666
 11955              		.loc 1 1036 3 discriminator 63
 11956 0240 7B68     		ldr	r3, [r7, #4]
 11957 0242 704A     		ldr	r2, .L667+120
 11958 0244 9342     		cmp	r3, r2
 11959 0246 00F08481 		beq	.L666
 11960              		.loc 1 1036 3 discriminator 64
 11961 024a 7B68     		ldr	r3, [r7, #4]
 11962 024c 6E4A     		ldr	r2, .L667+124
 11963 024e 9342     		cmp	r3, r2
 11964 0250 00F07F81 		beq	.L666
 11965              		.loc 1 1036 3 discriminator 65
 11966 0254 7B68     		ldr	r3, [r7, #4]
 11967 0256 6D4A     		ldr	r2, .L667+128
 11968 0258 9342     		cmp	r3, r2
 11969 025a 00F07A81 		beq	.L666
 11970              		.loc 1 1036 3 discriminator 66
 11971 025e 7B68     		ldr	r3, [r7, #4]
 11972 0260 6B4A     		ldr	r2, .L667+132
 11973 0262 9342     		cmp	r3, r2
 11974 0264 00F07581 		beq	.L666
 11975              		.loc 1 1036 3 discriminator 67
 11976 0268 7B68     		ldr	r3, [r7, #4]
 11977 026a 6A4A     		ldr	r2, .L667+136
 11978 026c 9342     		cmp	r3, r2
 11979 026e 00F07081 		beq	.L666
 11980              		.loc 1 1036 3 discriminator 68
 11981 0272 7B68     		ldr	r3, [r7, #4]
 11982 0274 684A     		ldr	r2, .L667+140
 11983 0276 9342     		cmp	r3, r2
 11984 0278 00F06B81 		beq	.L666
 11985              		.loc 1 1036 3 discriminator 69
 11986 027c 7B68     		ldr	r3, [r7, #4]
 11987 027e 674A     		ldr	r2, .L667+144
 11988 0280 9342     		cmp	r3, r2
 11989 0282 00F06681 		beq	.L666
 11990              		.loc 1 1036 3 discriminator 70
 11991 0286 7B68     		ldr	r3, [r7, #4]
 11992 0288 654A     		ldr	r2, .L667+148
 11993 028a 9342     		cmp	r3, r2
 11994 028c 00F06181 		beq	.L666
 11995              		.loc 1 1036 3 discriminator 71
 11996 0290 7B68     		ldr	r3, [r7, #4]
 11997 0292 644A     		ldr	r2, .L667+152
 11998 0294 9342     		cmp	r3, r2
 11999 0296 00F05C81 		beq	.L666
 12000              		.loc 1 1036 3 discriminator 72
 12001 029a 7B68     		ldr	r3, [r7, #4]
 12002 029c 624A     		ldr	r2, .L667+156
 12003 029e 9342     		cmp	r3, r2
 12004 02a0 00F05781 		beq	.L666
 12005              		.loc 1 1036 3 discriminator 73
 12006 02a4 7B68     		ldr	r3, [r7, #4]
 12007 02a6 614A     		ldr	r2, .L667+160
 12008 02a8 9342     		cmp	r3, r2
 12009 02aa 00F05281 		beq	.L666
ARM GAS  /tmp/ccRTEIeG.s 			page 245


 12010              		.loc 1 1036 3 discriminator 74
 12011 02ae 7B68     		ldr	r3, [r7, #4]
 12012 02b0 5F4A     		ldr	r2, .L667+164
 12013 02b2 9342     		cmp	r3, r2
 12014 02b4 00F04D81 		beq	.L666
 12015              		.loc 1 1036 3 discriminator 75
 12016 02b8 7B68     		ldr	r3, [r7, #4]
 12017 02ba 5E4A     		ldr	r2, .L667+168
 12018 02bc 9342     		cmp	r3, r2
 12019 02be 00F04881 		beq	.L666
 12020              		.loc 1 1036 3 discriminator 76
 12021 02c2 7B68     		ldr	r3, [r7, #4]
 12022 02c4 5C4A     		ldr	r2, .L667+172
 12023 02c6 9342     		cmp	r3, r2
 12024 02c8 00F04381 		beq	.L666
 12025              		.loc 1 1036 3 discriminator 77
 12026 02cc 7B68     		ldr	r3, [r7, #4]
 12027 02ce 5B4A     		ldr	r2, .L667+176
 12028 02d0 9342     		cmp	r3, r2
 12029 02d2 00F03E81 		beq	.L666
 12030              		.loc 1 1036 3 discriminator 78
 12031 02d6 7B68     		ldr	r3, [r7, #4]
 12032 02d8 594A     		ldr	r2, .L667+180
 12033 02da 9342     		cmp	r3, r2
 12034 02dc 00F03981 		beq	.L666
 12035              		.loc 1 1036 3 discriminator 79
 12036 02e0 7B68     		ldr	r3, [r7, #4]
 12037 02e2 584A     		ldr	r2, .L667+184
 12038 02e4 9342     		cmp	r3, r2
 12039 02e6 00F03481 		beq	.L666
 12040              		.loc 1 1036 3 discriminator 80
 12041 02ea 7B68     		ldr	r3, [r7, #4]
 12042 02ec 564A     		ldr	r2, .L667+188
 12043 02ee 9342     		cmp	r3, r2
 12044 02f0 00F02F81 		beq	.L666
 12045              		.loc 1 1036 3 discriminator 81
 12046 02f4 7B68     		ldr	r3, [r7, #4]
 12047 02f6 554A     		ldr	r2, .L667+192
 12048 02f8 9342     		cmp	r3, r2
 12049 02fa 00F02A81 		beq	.L666
 12050              		.loc 1 1036 3 discriminator 82
 12051 02fe 7B68     		ldr	r3, [r7, #4]
 12052 0300 534A     		ldr	r2, .L667+196
 12053 0302 9342     		cmp	r3, r2
 12054 0304 00F02581 		beq	.L666
 12055              		.loc 1 1036 3 discriminator 83
 12056 0308 7B68     		ldr	r3, [r7, #4]
 12057 030a B3F1405F 		cmp	r3, #805306368
 12058 030e 00F02081 		beq	.L666
 12059              		.loc 1 1036 3 discriminator 84
 12060 0312 7B68     		ldr	r3, [r7, #4]
 12061 0314 4F4A     		ldr	r2, .L667+200
 12062 0316 9342     		cmp	r3, r2
 12063 0318 00F01B81 		beq	.L666
 12064              		.loc 1 1036 3 discriminator 85
 12065 031c 7B68     		ldr	r3, [r7, #4]
 12066 031e 4E4A     		ldr	r2, .L667+204
ARM GAS  /tmp/ccRTEIeG.s 			page 246


 12067 0320 9342     		cmp	r3, r2
 12068 0322 00F01681 		beq	.L666
 12069              		.loc 1 1036 3 discriminator 86
 12070 0326 7B68     		ldr	r3, [r7, #4]
 12071 0328 4C4A     		ldr	r2, .L667+208
 12072 032a 9342     		cmp	r3, r2
 12073 032c 00F01181 		beq	.L666
 12074              		.loc 1 1036 3 discriminator 87
 12075 0330 7B68     		ldr	r3, [r7, #4]
 12076 0332 4B4A     		ldr	r2, .L667+212
 12077 0334 9342     		cmp	r3, r2
 12078 0336 00F00C81 		beq	.L666
 12079              		.loc 1 1036 3 discriminator 88
 12080 033a 7B68     		ldr	r3, [r7, #4]
 12081 033c 494A     		ldr	r2, .L667+216
 12082 033e 9342     		cmp	r3, r2
 12083 0340 00F00781 		beq	.L666
 12084              		.loc 1 1036 3 discriminator 89
 12085 0344 7B68     		ldr	r3, [r7, #4]
 12086 0346 484A     		ldr	r2, .L667+220
 12087 0348 9342     		cmp	r3, r2
 12088 034a 00F00281 		beq	.L666
 12089              		.loc 1 1036 3 discriminator 90
 12090 034e 7B68     		ldr	r3, [r7, #4]
 12091 0350 464A     		ldr	r2, .L667+224
 12092 0352 9342     		cmp	r3, r2
 12093 0354 00F0FD80 		beq	.L666
 12094              		.loc 1 1036 3 discriminator 91
 12095 0358 7B68     		ldr	r3, [r7, #4]
 12096 035a 454A     		ldr	r2, .L667+228
 12097 035c 9342     		cmp	r3, r2
 12098 035e 00F0F880 		beq	.L666
 12099              		.loc 1 1036 3 discriminator 92
 12100 0362 7B68     		ldr	r3, [r7, #4]
 12101 0364 434A     		ldr	r2, .L667+232
 12102 0366 9342     		cmp	r3, r2
 12103 0368 00F0F380 		beq	.L666
 12104              		.loc 1 1036 3 discriminator 93
 12105 036c 7B68     		ldr	r3, [r7, #4]
 12106 036e B3F1804F 		cmp	r3, #1073741824
 12107 0372 00F0EE80 		beq	.L666
 12108              		.loc 1 1036 3 discriminator 94
 12109 0376 7B68     		ldr	r3, [r7, #4]
 12110 0378 3F4A     		ldr	r2, .L667+236
 12111 037a 9342     		cmp	r3, r2
 12112 037c 00F0E980 		beq	.L666
 12113              		.loc 1 1036 3 discriminator 95
 12114 0380 7B68     		ldr	r3, [r7, #4]
 12115 0382 3E4A     		ldr	r2, .L667+240
 12116 0384 9342     		cmp	r3, r2
 12117 0386 00F0E480 		beq	.L666
 12118 038a 79E0     		b	.L668
 12119              	.L669:
 12120              		.align	2
 12121              	.L667:
 12122 038c 01000010 		.word	268435457
 12123 0390 02000010 		.word	268435458
ARM GAS  /tmp/ccRTEIeG.s 			page 247


 12124 0394 03000010 		.word	268435459
 12125 0398 04000010 		.word	268435460
 12126 039c 05000010 		.word	268435461
 12127 03a0 06000010 		.word	268435462
 12128 03a4 07000010 		.word	268435463
 12129 03a8 08000010 		.word	268435464
 12130 03ac 09000010 		.word	268435465
 12131 03b0 0A000010 		.word	268435466
 12132 03b4 0B000010 		.word	268435467
 12133 03b8 0C000010 		.word	268435468
 12134 03bc 0D000010 		.word	268435469
 12135 03c0 0E000010 		.word	268435470
 12136 03c4 0F000010 		.word	268435471
 12137 03c8 10000010 		.word	268435472
 12138 03cc 11000010 		.word	268435473
 12139 03d0 12000010 		.word	268435474
 12140 03d4 13000010 		.word	268435475
 12141 03d8 14000010 		.word	268435476
 12142 03dc 15000010 		.word	268435477
 12143 03e0 16000010 		.word	268435478
 12144 03e4 17000010 		.word	268435479
 12145 03e8 18000010 		.word	268435480
 12146 03ec 19000010 		.word	268435481
 12147 03f0 1A000010 		.word	268435482
 12148 03f4 1C000010 		.word	268435484
 12149 03f8 1D000010 		.word	268435485
 12150 03fc 1E000010 		.word	268435486
 12151 0400 01000020 		.word	536870913
 12152 0404 03000020 		.word	536870915
 12153 0408 04000020 		.word	536870916
 12154 040c 05000020 		.word	536870917
 12155 0410 0C000020 		.word	536870924
 12156 0414 0D000020 		.word	536870925
 12157 0418 0E000020 		.word	536870926
 12158 041c 0F000020 		.word	536870927
 12159 0420 10000020 		.word	536870928
 12160 0424 11000020 		.word	536870929
 12161 0428 12000020 		.word	536870930
 12162 042c 13000020 		.word	536870931
 12163 0430 14000020 		.word	536870932
 12164 0434 16000020 		.word	536870934
 12165 0438 17000020 		.word	536870935
 12166 043c 18000020 		.word	536870936
 12167 0440 19000020 		.word	536870937
 12168 0444 1A000020 		.word	536870938
 12169 0448 1C000020 		.word	536870940
 12170 044c 1D000020 		.word	536870941
 12171 0450 1E000020 		.word	536870942
 12172 0454 01000030 		.word	805306369
 12173 0458 02000030 		.word	805306370
 12174 045c 03000030 		.word	805306371
 12175 0460 04000030 		.word	805306372
 12176 0464 05000030 		.word	805306373
 12177 0468 06000030 		.word	805306374
 12178 046c 07000030 		.word	805306375
 12179 0470 08000030 		.word	805306376
 12180 0474 0A000030 		.word	805306378
ARM GAS  /tmp/ccRTEIeG.s 			page 248


 12181 0478 01000040 		.word	1073741825
 12182 047c 02000040 		.word	1073741826
 12183              	.L668:
 12184              		.loc 1 1036 3 discriminator 96
 12185 0480 7B68     		ldr	r3, [r7, #4]
 12186 0482 404A     		ldr	r2, .L670
 12187 0484 9342     		cmp	r3, r2
 12188 0486 64D0     		beq	.L666
 12189              		.loc 1 1036 3 discriminator 97
 12190 0488 7B68     		ldr	r3, [r7, #4]
 12191 048a 3F4A     		ldr	r2, .L670+4
 12192 048c 9342     		cmp	r3, r2
 12193 048e 60D0     		beq	.L666
 12194              		.loc 1 1036 3 discriminator 98
 12195 0490 7B68     		ldr	r3, [r7, #4]
 12196 0492 3E4A     		ldr	r2, .L670+8
 12197 0494 9342     		cmp	r3, r2
 12198 0496 5CD0     		beq	.L666
 12199              		.loc 1 1036 3 discriminator 99
 12200 0498 7B68     		ldr	r3, [r7, #4]
 12201 049a 3D4A     		ldr	r2, .L670+12
 12202 049c 9342     		cmp	r3, r2
 12203 049e 58D0     		beq	.L666
 12204              		.loc 1 1036 3 discriminator 100
 12205 04a0 7B68     		ldr	r3, [r7, #4]
 12206 04a2 3C4A     		ldr	r2, .L670+16
 12207 04a4 9342     		cmp	r3, r2
 12208 04a6 54D0     		beq	.L666
 12209              		.loc 1 1036 3 discriminator 101
 12210 04a8 7B68     		ldr	r3, [r7, #4]
 12211 04aa 3B4A     		ldr	r2, .L670+20
 12212 04ac 9342     		cmp	r3, r2
 12213 04ae 50D0     		beq	.L666
 12214              		.loc 1 1036 3 discriminator 102
 12215 04b0 7B68     		ldr	r3, [r7, #4]
 12216 04b2 3A4A     		ldr	r2, .L670+24
 12217 04b4 9342     		cmp	r3, r2
 12218 04b6 4CD0     		beq	.L666
 12219              		.loc 1 1036 3 discriminator 103
 12220 04b8 7B68     		ldr	r3, [r7, #4]
 12221 04ba 394A     		ldr	r2, .L670+28
 12222 04bc 9342     		cmp	r3, r2
 12223 04be 48D0     		beq	.L666
 12224              		.loc 1 1036 3 discriminator 104
 12225 04c0 7B68     		ldr	r3, [r7, #4]
 12226 04c2 384A     		ldr	r2, .L670+32
 12227 04c4 9342     		cmp	r3, r2
 12228 04c6 44D0     		beq	.L666
 12229              		.loc 1 1036 3 discriminator 105
 12230 04c8 7B68     		ldr	r3, [r7, #4]
 12231 04ca 374A     		ldr	r2, .L670+36
 12232 04cc 9342     		cmp	r3, r2
 12233 04ce 40D0     		beq	.L666
 12234              		.loc 1 1036 3 discriminator 106
 12235 04d0 7B68     		ldr	r3, [r7, #4]
 12236 04d2 364A     		ldr	r2, .L670+40
 12237 04d4 9342     		cmp	r3, r2
ARM GAS  /tmp/ccRTEIeG.s 			page 249


 12238 04d6 3CD0     		beq	.L666
 12239              		.loc 1 1036 3 discriminator 107
 12240 04d8 7B68     		ldr	r3, [r7, #4]
 12241 04da 354A     		ldr	r2, .L670+44
 12242 04dc 9342     		cmp	r3, r2
 12243 04de 38D0     		beq	.L666
 12244              		.loc 1 1036 3 discriminator 108
 12245 04e0 7B68     		ldr	r3, [r7, #4]
 12246 04e2 344A     		ldr	r2, .L670+48
 12247 04e4 9342     		cmp	r3, r2
 12248 04e6 34D0     		beq	.L666
 12249              		.loc 1 1036 3 discriminator 109
 12250 04e8 7B68     		ldr	r3, [r7, #4]
 12251 04ea 334A     		ldr	r2, .L670+52
 12252 04ec 9342     		cmp	r3, r2
 12253 04ee 30D0     		beq	.L666
 12254              		.loc 1 1036 3 discriminator 110
 12255 04f0 7B68     		ldr	r3, [r7, #4]
 12256 04f2 324A     		ldr	r2, .L670+56
 12257 04f4 9342     		cmp	r3, r2
 12258 04f6 2CD0     		beq	.L666
 12259              		.loc 1 1036 3 discriminator 111
 12260 04f8 7B68     		ldr	r3, [r7, #4]
 12261 04fa 314A     		ldr	r2, .L670+60
 12262 04fc 9342     		cmp	r3, r2
 12263 04fe 28D0     		beq	.L666
 12264              		.loc 1 1036 3 discriminator 112
 12265 0500 7B68     		ldr	r3, [r7, #4]
 12266 0502 304A     		ldr	r2, .L670+64
 12267 0504 9342     		cmp	r3, r2
 12268 0506 24D0     		beq	.L666
 12269              		.loc 1 1036 3 discriminator 113
 12270 0508 7B68     		ldr	r3, [r7, #4]
 12271 050a 2F4A     		ldr	r2, .L670+68
 12272 050c 9342     		cmp	r3, r2
 12273 050e 20D0     		beq	.L666
 12274              		.loc 1 1036 3 discriminator 114
 12275 0510 7B68     		ldr	r3, [r7, #4]
 12276 0512 2E4A     		ldr	r2, .L670+72
 12277 0514 9342     		cmp	r3, r2
 12278 0516 1CD0     		beq	.L666
 12279              		.loc 1 1036 3 discriminator 115
 12280 0518 7B68     		ldr	r3, [r7, #4]
 12281 051a 2D4A     		ldr	r2, .L670+76
 12282 051c 9342     		cmp	r3, r2
 12283 051e 18D0     		beq	.L666
 12284              		.loc 1 1036 3 discriminator 116
 12285 0520 7B68     		ldr	r3, [r7, #4]
 12286 0522 2C4A     		ldr	r2, .L670+80
 12287 0524 9342     		cmp	r3, r2
 12288 0526 14D0     		beq	.L666
 12289              		.loc 1 1036 3 discriminator 117
 12290 0528 7B68     		ldr	r3, [r7, #4]
 12291 052a 2B4A     		ldr	r2, .L670+84
 12292 052c 9342     		cmp	r3, r2
 12293 052e 10D0     		beq	.L666
 12294              		.loc 1 1036 3 discriminator 118
ARM GAS  /tmp/ccRTEIeG.s 			page 250


 12295 0530 7B68     		ldr	r3, [r7, #4]
 12296 0532 2A4A     		ldr	r2, .L670+88
 12297 0534 9342     		cmp	r3, r2
 12298 0536 0CD0     		beq	.L666
 12299              		.loc 1 1036 3 discriminator 119
 12300 0538 7B68     		ldr	r3, [r7, #4]
 12301 053a 294A     		ldr	r2, .L670+92
 12302 053c 9342     		cmp	r3, r2
 12303 053e 08D0     		beq	.L666
 12304              		.loc 1 1036 3 discriminator 120
 12305 0540 7B68     		ldr	r3, [r7, #4]
 12306 0542 284A     		ldr	r2, .L670+96
 12307 0544 9342     		cmp	r3, r2
 12308 0546 04D0     		beq	.L666
 12309              		.loc 1 1036 3 discriminator 121
 12310 0548 40F20C41 		movw	r1, #1036
 12311 054c 2648     		ldr	r0, .L670+100
 12312 054e FFF7FEFF 		bl	assert_failed
 12313              	.L666:
1037:STM32Cube_FW_N6/Drivers/STM32N6xx_HAL_Driver/Src/stm32n6xx_hal_rif.c **** 
1038:STM32Cube_FW_N6/Drivers/STM32N6xx_HAL_Driver/Src/stm32n6xx_hal_rif.c ****   p_interrupt_reg = &(IAC->IER[PeriphId >> RIF_PERIPH_REG_SHIFT]);
 12314              		.loc 1 1038 41 is_stmt 1
 12315 0552 7B68     		ldr	r3, [r7, #4]
 12316 0554 1B0F     		lsrs	r3, r3, #28
 12317              		.loc 1 1038 21
 12318 0556 9B00     		lsls	r3, r3, #2
 12319              		.loc 1 1038 19
 12320 0558 03F1A843 		add	r3, r3, #1409286144
 12321 055c 03F51433 		add	r3, r3, #151552
 12322 0560 FB60     		str	r3, [r7, #12]
1039:STM32Cube_FW_N6/Drivers/STM32N6xx_HAL_Driver/Src/stm32n6xx_hal_rif.c ****   *p_interrupt_reg &= (~(1UL << (PeriphId & RIF_PERIPH_BIT_POSITION)));
 12323              		.loc 1 1039 3
 12324 0562 FB68     		ldr	r3, [r7, #12]
 12325 0564 1A68     		ldr	r2, [r3]
 12326              		.loc 1 1039 43
 12327 0566 7B68     		ldr	r3, [r7, #4]
 12328 0568 03F01F03 		and	r3, r3, #31
 12329              		.loc 1 1039 30
 12330 056c 0121     		movs	r1, #1
 12331 056e 01FA03F3 		lsl	r3, r1, r3
 12332              		.loc 1 1039 24
 12333 0572 DB43     		mvns	r3, r3
 12334              		.loc 1 1039 20
 12335 0574 1A40     		ands	r2, r2, r3
 12336 0576 FB68     		ldr	r3, [r7, #12]
 12337 0578 1A60     		str	r2, [r3]
1040:STM32Cube_FW_N6/Drivers/STM32N6xx_HAL_Driver/Src/stm32n6xx_hal_rif.c **** }
 12338              		.loc 1 1040 1
 12339 057a 00BF     		nop
 12340 057c 1037     		adds	r7, r7, #16
 12341              		.cfi_def_cfa_offset 8
 12342 057e BD46     		mov	sp, r7
 12343              		.cfi_def_cfa_register 13
 12344              		@ sp needed
 12345 0580 80BD     		pop	{r7, pc}
 12346              	.L671:
 12347 0582 00BF     		.align	2
ARM GAS  /tmp/ccRTEIeG.s 			page 251


 12348              	.L670:
 12349 0584 03000040 		.word	1073741827
 12350 0588 05000040 		.word	1073741829
 12351 058c 06000040 		.word	1073741830
 12352 0590 07000040 		.word	1073741831
 12353 0594 08000040 		.word	1073741832
 12354 0598 09000040 		.word	1073741833
 12355 059c 0A000040 		.word	1073741834
 12356 05a0 0B000040 		.word	1073741835
 12357 05a4 0C000040 		.word	1073741836
 12358 05a8 0D000040 		.word	1073741837
 12359 05ac 0E000040 		.word	1073741838
 12360 05b0 0F000040 		.word	1073741839
 12361 05b4 10000040 		.word	1073741840
 12362 05b8 11000040 		.word	1073741841
 12363 05bc 12000040 		.word	1073741842
 12364 05c0 13000040 		.word	1073741843
 12365 05c4 15000040 		.word	1073741845
 12366 05c8 16000040 		.word	1073741846
 12367 05cc 17000040 		.word	1073741847
 12368 05d0 18000040 		.word	1073741848
 12369 05d4 19000040 		.word	1073741849
 12370 05d8 1B000040 		.word	1073741851
 12371 05dc 1C000040 		.word	1073741852
 12372 05e0 1D000040 		.word	1073741853
 12373 05e4 1E000040 		.word	1073741854
 12374 05e8 00000000 		.word	.LC0
 12375              		.cfi_endproc
 12376              	.LFE857:
 12378              		.section	.text.HAL_RIF_IAC_GetFlag,"ax",%progbits
 12379              		.align	1
 12380              		.global	HAL_RIF_IAC_GetFlag
 12381              		.syntax unified
 12382              		.thumb
 12383              		.thumb_func
 12385              	HAL_RIF_IAC_GetFlag:
 12386              	.LFB858:
1041:STM32Cube_FW_N6/Drivers/STM32N6xx_HAL_Driver/Src/stm32n6xx_hal_rif.c **** 
1042:STM32Cube_FW_N6/Drivers/STM32N6xx_HAL_Driver/Src/stm32n6xx_hal_rif.c **** /**
1043:STM32Cube_FW_N6/Drivers/STM32N6xx_HAL_Driver/Src/stm32n6xx_hal_rif.c ****   * @brief  Get illegal access detection flag.
1044:STM32Cube_FW_N6/Drivers/STM32N6xx_HAL_Driver/Src/stm32n6xx_hal_rif.c ****   * @note   This API is protected by the Trusted Domain compilation directive.
1045:STM32Cube_FW_N6/Drivers/STM32N6xx_HAL_Driver/Src/stm32n6xx_hal_rif.c ****   * @param  PeriphId specifies the index of the bus slave.
1046:STM32Cube_FW_N6/Drivers/STM32N6xx_HAL_Driver/Src/stm32n6xx_hal_rif.c ****   *         This parameter can be one of @ref RIF_PERIPHERAL_INDEX
1047:STM32Cube_FW_N6/Drivers/STM32N6xx_HAL_Driver/Src/stm32n6xx_hal_rif.c ****   *         bits[31:28] define the register index a peripheral belongs to, value from 0 to 5
1048:STM32Cube_FW_N6/Drivers/STM32N6xx_HAL_Driver/Src/stm32n6xx_hal_rif.c ****   *         bits[4:0]   define the bit position within the register, value from 0 to 31
1049:STM32Cube_FW_N6/Drivers/STM32N6xx_HAL_Driver/Src/stm32n6xx_hal_rif.c ****   * @retval Detection flag value
1050:STM32Cube_FW_N6/Drivers/STM32N6xx_HAL_Driver/Src/stm32n6xx_hal_rif.c ****   */
1051:STM32Cube_FW_N6/Drivers/STM32N6xx_HAL_Driver/Src/stm32n6xx_hal_rif.c **** uint32_t HAL_RIF_IAC_GetFlag(uint32_t PeriphId)
1052:STM32Cube_FW_N6/Drivers/STM32N6xx_HAL_Driver/Src/stm32n6xx_hal_rif.c **** {
 12387              		.loc 1 1052 1
 12388              		.cfi_startproc
 12389              		@ args = 0, pretend = 0, frame = 24
 12390              		@ frame_needed = 1, uses_anonymous_args = 0
 12391 0000 80B5     		push	{r7, lr}
 12392              		.cfi_def_cfa_offset 8
 12393              		.cfi_offset 7, -8
 12394              		.cfi_offset 14, -4
ARM GAS  /tmp/ccRTEIeG.s 			page 252


 12395 0002 86B0     		sub	sp, sp, #24
 12396              		.cfi_def_cfa_offset 32
 12397 0004 00AF     		add	r7, sp, #0
 12398              		.cfi_def_cfa_register 7
 12399 0006 7860     		str	r0, [r7, #4]
1053:STM32Cube_FW_N6/Drivers/STM32N6xx_HAL_Driver/Src/stm32n6xx_hal_rif.c ****   uint32_t interrupt_flag;
1054:STM32Cube_FW_N6/Drivers/STM32N6xx_HAL_Driver/Src/stm32n6xx_hal_rif.c ****   const __IO uint32_t *p_interrupt_reg;
1055:STM32Cube_FW_N6/Drivers/STM32N6xx_HAL_Driver/Src/stm32n6xx_hal_rif.c ****   uint32_t shift_var;
1056:STM32Cube_FW_N6/Drivers/STM32N6xx_HAL_Driver/Src/stm32n6xx_hal_rif.c **** 
1057:STM32Cube_FW_N6/Drivers/STM32N6xx_HAL_Driver/Src/stm32n6xx_hal_rif.c ****   /* Check parameters */
1058:STM32Cube_FW_N6/Drivers/STM32N6xx_HAL_Driver/Src/stm32n6xx_hal_rif.c ****   assert_param(IS_RIF_RISC_PERIPH_INDEX(PeriphId) || IS_RIF_AWARE_PERIPH_INDEX(PeriphId));
 12400              		.loc 1 1058 3
 12401 0008 7B68     		ldr	r3, [r7, #4]
 12402 000a 002B     		cmp	r3, #0
 12403 000c 00F0A182 		beq	.L673
 12404              		.loc 1 1058 3 is_stmt 0 discriminator 1
 12405 0010 7B68     		ldr	r3, [r7, #4]
 12406 0012 012B     		cmp	r3, #1
 12407 0014 00F09D82 		beq	.L673
 12408              		.loc 1 1058 3 discriminator 2
 12409 0018 7B68     		ldr	r3, [r7, #4]
 12410 001a 022B     		cmp	r3, #2
 12411 001c 00F09982 		beq	.L673
 12412              		.loc 1 1058 3 discriminator 3
 12413 0020 7B68     		ldr	r3, [r7, #4]
 12414 0022 032B     		cmp	r3, #3
 12415 0024 00F09582 		beq	.L673
 12416              		.loc 1 1058 3 discriminator 4
 12417 0028 7B68     		ldr	r3, [r7, #4]
 12418 002a 042B     		cmp	r3, #4
 12419 002c 00F09182 		beq	.L673
 12420              		.loc 1 1058 3 discriminator 5
 12421 0030 7B68     		ldr	r3, [r7, #4]
 12422 0032 052B     		cmp	r3, #5
 12423 0034 00F08D82 		beq	.L673
 12424              		.loc 1 1058 3 discriminator 6
 12425 0038 7B68     		ldr	r3, [r7, #4]
 12426 003a 062B     		cmp	r3, #6
 12427 003c 00F08982 		beq	.L673
 12428              		.loc 1 1058 3 discriminator 7
 12429 0040 7B68     		ldr	r3, [r7, #4]
 12430 0042 082B     		cmp	r3, #8
 12431 0044 00F08582 		beq	.L673
 12432              		.loc 1 1058 3 discriminator 8
 12433 0048 7B68     		ldr	r3, [r7, #4]
 12434 004a 092B     		cmp	r3, #9
 12435 004c 00F08182 		beq	.L673
 12436              		.loc 1 1058 3 discriminator 9
 12437 0050 7B68     		ldr	r3, [r7, #4]
 12438 0052 0A2B     		cmp	r3, #10
 12439 0054 00F07D82 		beq	.L673
 12440              		.loc 1 1058 3 discriminator 10
 12441 0058 7B68     		ldr	r3, [r7, #4]
 12442 005a 0B2B     		cmp	r3, #11
 12443 005c 00F07982 		beq	.L673
 12444              		.loc 1 1058 3 discriminator 11
 12445 0060 7B68     		ldr	r3, [r7, #4]
ARM GAS  /tmp/ccRTEIeG.s 			page 253


 12446 0062 0C2B     		cmp	r3, #12
 12447 0064 00F07582 		beq	.L673
 12448              		.loc 1 1058 3 discriminator 12
 12449 0068 7B68     		ldr	r3, [r7, #4]
 12450 006a 0D2B     		cmp	r3, #13
 12451 006c 00F07182 		beq	.L673
 12452              		.loc 1 1058 3 discriminator 13
 12453 0070 7B68     		ldr	r3, [r7, #4]
 12454 0072 0E2B     		cmp	r3, #14
 12455 0074 00F06D82 		beq	.L673
 12456              		.loc 1 1058 3 discriminator 14
 12457 0078 7B68     		ldr	r3, [r7, #4]
 12458 007a 0F2B     		cmp	r3, #15
 12459 007c 00F06982 		beq	.L673
 12460              		.loc 1 1058 3 discriminator 15
 12461 0080 7B68     		ldr	r3, [r7, #4]
 12462 0082 102B     		cmp	r3, #16
 12463 0084 00F06582 		beq	.L673
 12464              		.loc 1 1058 3 discriminator 16
 12465 0088 7B68     		ldr	r3, [r7, #4]
 12466 008a 112B     		cmp	r3, #17
 12467 008c 00F06182 		beq	.L673
 12468              		.loc 1 1058 3 discriminator 17
 12469 0090 7B68     		ldr	r3, [r7, #4]
 12470 0092 122B     		cmp	r3, #18
 12471 0094 00F05D82 		beq	.L673
 12472              		.loc 1 1058 3 discriminator 18
 12473 0098 7B68     		ldr	r3, [r7, #4]
 12474 009a 132B     		cmp	r3, #19
 12475 009c 00F05982 		beq	.L673
 12476              		.loc 1 1058 3 discriminator 19
 12477 00a0 7B68     		ldr	r3, [r7, #4]
 12478 00a2 142B     		cmp	r3, #20
 12479 00a4 00F05582 		beq	.L673
 12480              		.loc 1 1058 3 discriminator 20
 12481 00a8 7B68     		ldr	r3, [r7, #4]
 12482 00aa 152B     		cmp	r3, #21
 12483 00ac 00F05182 		beq	.L673
 12484              		.loc 1 1058 3 discriminator 21
 12485 00b0 7B68     		ldr	r3, [r7, #4]
 12486 00b2 162B     		cmp	r3, #22
 12487 00b4 00F04D82 		beq	.L673
 12488              		.loc 1 1058 3 discriminator 22
 12489 00b8 7B68     		ldr	r3, [r7, #4]
 12490 00ba 172B     		cmp	r3, #23
 12491 00bc 00F04982 		beq	.L673
 12492              		.loc 1 1058 3 discriminator 23
 12493 00c0 7B68     		ldr	r3, [r7, #4]
 12494 00c2 182B     		cmp	r3, #24
 12495 00c4 00F04582 		beq	.L673
 12496              		.loc 1 1058 3 discriminator 24
 12497 00c8 7B68     		ldr	r3, [r7, #4]
 12498 00ca 192B     		cmp	r3, #25
 12499 00cc 00F04182 		beq	.L673
 12500              		.loc 1 1058 3 discriminator 25
 12501 00d0 7B68     		ldr	r3, [r7, #4]
 12502 00d2 1A2B     		cmp	r3, #26
ARM GAS  /tmp/ccRTEIeG.s 			page 254


 12503 00d4 00F03D82 		beq	.L673
 12504              		.loc 1 1058 3 discriminator 26
 12505 00d8 7B68     		ldr	r3, [r7, #4]
 12506 00da 1B2B     		cmp	r3, #27
 12507 00dc 00F03982 		beq	.L673
 12508              		.loc 1 1058 3 discriminator 27
 12509 00e0 7B68     		ldr	r3, [r7, #4]
 12510 00e2 1C2B     		cmp	r3, #28
 12511 00e4 00F03582 		beq	.L673
 12512              		.loc 1 1058 3 discriminator 28
 12513 00e8 7B68     		ldr	r3, [r7, #4]
 12514 00ea 1D2B     		cmp	r3, #29
 12515 00ec 00F03182 		beq	.L673
 12516              		.loc 1 1058 3 discriminator 29
 12517 00f0 7B68     		ldr	r3, [r7, #4]
 12518 00f2 1E2B     		cmp	r3, #30
 12519 00f4 00F02D82 		beq	.L673
 12520              		.loc 1 1058 3 discriminator 30
 12521 00f8 7B68     		ldr	r3, [r7, #4]
 12522 00fa 1F2B     		cmp	r3, #31
 12523 00fc 00F02982 		beq	.L673
 12524              		.loc 1 1058 3 discriminator 31
 12525 0100 7B68     		ldr	r3, [r7, #4]
 12526 0102 B3F1805F 		cmp	r3, #268435456
 12527 0106 00F02482 		beq	.L673
 12528              		.loc 1 1058 3 discriminator 32
 12529 010a 7B68     		ldr	r3, [r7, #4]
 12530 010c 9F4A     		ldr	r2, .L675
 12531 010e 9342     		cmp	r3, r2
 12532 0110 00F01F82 		beq	.L673
 12533              		.loc 1 1058 3 discriminator 33
 12534 0114 7B68     		ldr	r3, [r7, #4]
 12535 0116 9E4A     		ldr	r2, .L675+4
 12536 0118 9342     		cmp	r3, r2
 12537 011a 00F01A82 		beq	.L673
 12538              		.loc 1 1058 3 discriminator 34
 12539 011e 7B68     		ldr	r3, [r7, #4]
 12540 0120 9C4A     		ldr	r2, .L675+8
 12541 0122 9342     		cmp	r3, r2
 12542 0124 00F01582 		beq	.L673
 12543              		.loc 1 1058 3 discriminator 35
 12544 0128 7B68     		ldr	r3, [r7, #4]
 12545 012a 9B4A     		ldr	r2, .L675+12
 12546 012c 9342     		cmp	r3, r2
 12547 012e 00F01082 		beq	.L673
 12548              		.loc 1 1058 3 discriminator 36
 12549 0132 7B68     		ldr	r3, [r7, #4]
 12550 0134 994A     		ldr	r2, .L675+16
 12551 0136 9342     		cmp	r3, r2
 12552 0138 00F00B82 		beq	.L673
 12553              		.loc 1 1058 3 discriminator 37
 12554 013c 7B68     		ldr	r3, [r7, #4]
 12555 013e 984A     		ldr	r2, .L675+20
 12556 0140 9342     		cmp	r3, r2
 12557 0142 00F00682 		beq	.L673
 12558              		.loc 1 1058 3 discriminator 38
 12559 0146 7B68     		ldr	r3, [r7, #4]
ARM GAS  /tmp/ccRTEIeG.s 			page 255


 12560 0148 964A     		ldr	r2, .L675+24
 12561 014a 9342     		cmp	r3, r2
 12562 014c 00F00182 		beq	.L673
 12563              		.loc 1 1058 3 discriminator 39
 12564 0150 7B68     		ldr	r3, [r7, #4]
 12565 0152 954A     		ldr	r2, .L675+28
 12566 0154 9342     		cmp	r3, r2
 12567 0156 00F0FC81 		beq	.L673
 12568              		.loc 1 1058 3 discriminator 40
 12569 015a 7B68     		ldr	r3, [r7, #4]
 12570 015c 934A     		ldr	r2, .L675+32
 12571 015e 9342     		cmp	r3, r2
 12572 0160 00F0F781 		beq	.L673
 12573              		.loc 1 1058 3 discriminator 41
 12574 0164 7B68     		ldr	r3, [r7, #4]
 12575 0166 924A     		ldr	r2, .L675+36
 12576 0168 9342     		cmp	r3, r2
 12577 016a 00F0F281 		beq	.L673
 12578              		.loc 1 1058 3 discriminator 42
 12579 016e 7B68     		ldr	r3, [r7, #4]
 12580 0170 904A     		ldr	r2, .L675+40
 12581 0172 9342     		cmp	r3, r2
 12582 0174 00F0ED81 		beq	.L673
 12583              		.loc 1 1058 3 discriminator 43
 12584 0178 7B68     		ldr	r3, [r7, #4]
 12585 017a 8F4A     		ldr	r2, .L675+44
 12586 017c 9342     		cmp	r3, r2
 12587 017e 00F0E881 		beq	.L673
 12588              		.loc 1 1058 3 discriminator 44
 12589 0182 7B68     		ldr	r3, [r7, #4]
 12590 0184 8D4A     		ldr	r2, .L675+48
 12591 0186 9342     		cmp	r3, r2
 12592 0188 00F0E381 		beq	.L673
 12593              		.loc 1 1058 3 discriminator 45
 12594 018c 7B68     		ldr	r3, [r7, #4]
 12595 018e 8C4A     		ldr	r2, .L675+52
 12596 0190 9342     		cmp	r3, r2
 12597 0192 00F0DE81 		beq	.L673
 12598              		.loc 1 1058 3 discriminator 46
 12599 0196 7B68     		ldr	r3, [r7, #4]
 12600 0198 8A4A     		ldr	r2, .L675+56
 12601 019a 9342     		cmp	r3, r2
 12602 019c 00F0D981 		beq	.L673
 12603              		.loc 1 1058 3 discriminator 47
 12604 01a0 7B68     		ldr	r3, [r7, #4]
 12605 01a2 894A     		ldr	r2, .L675+60
 12606 01a4 9342     		cmp	r3, r2
 12607 01a6 00F0D481 		beq	.L673
 12608              		.loc 1 1058 3 discriminator 48
 12609 01aa 7B68     		ldr	r3, [r7, #4]
 12610 01ac 874A     		ldr	r2, .L675+64
 12611 01ae 9342     		cmp	r3, r2
 12612 01b0 00F0CF81 		beq	.L673
 12613              		.loc 1 1058 3 discriminator 49
 12614 01b4 7B68     		ldr	r3, [r7, #4]
 12615 01b6 864A     		ldr	r2, .L675+68
 12616 01b8 9342     		cmp	r3, r2
ARM GAS  /tmp/ccRTEIeG.s 			page 256


 12617 01ba 00F0CA81 		beq	.L673
 12618              		.loc 1 1058 3 discriminator 50
 12619 01be 7B68     		ldr	r3, [r7, #4]
 12620 01c0 844A     		ldr	r2, .L675+72
 12621 01c2 9342     		cmp	r3, r2
 12622 01c4 00F0C581 		beq	.L673
 12623              		.loc 1 1058 3 discriminator 51
 12624 01c8 7B68     		ldr	r3, [r7, #4]
 12625 01ca 834A     		ldr	r2, .L675+76
 12626 01cc 9342     		cmp	r3, r2
 12627 01ce 00F0C081 		beq	.L673
 12628              		.loc 1 1058 3 discriminator 52
 12629 01d2 7B68     		ldr	r3, [r7, #4]
 12630 01d4 814A     		ldr	r2, .L675+80
 12631 01d6 9342     		cmp	r3, r2
 12632 01d8 00F0BB81 		beq	.L673
 12633              		.loc 1 1058 3 discriminator 53
 12634 01dc 7B68     		ldr	r3, [r7, #4]
 12635 01de 804A     		ldr	r2, .L675+84
 12636 01e0 9342     		cmp	r3, r2
 12637 01e2 00F0B681 		beq	.L673
 12638              		.loc 1 1058 3 discriminator 54
 12639 01e6 7B68     		ldr	r3, [r7, #4]
 12640 01e8 7E4A     		ldr	r2, .L675+88
 12641 01ea 9342     		cmp	r3, r2
 12642 01ec 00F0B181 		beq	.L673
 12643              		.loc 1 1058 3 discriminator 55
 12644 01f0 7B68     		ldr	r3, [r7, #4]
 12645 01f2 7D4A     		ldr	r2, .L675+92
 12646 01f4 9342     		cmp	r3, r2
 12647 01f6 00F0AC81 		beq	.L673
 12648              		.loc 1 1058 3 discriminator 56
 12649 01fa 7B68     		ldr	r3, [r7, #4]
 12650 01fc 7B4A     		ldr	r2, .L675+96
 12651 01fe 9342     		cmp	r3, r2
 12652 0200 00F0A781 		beq	.L673
 12653              		.loc 1 1058 3 discriminator 57
 12654 0204 7B68     		ldr	r3, [r7, #4]
 12655 0206 7A4A     		ldr	r2, .L675+100
 12656 0208 9342     		cmp	r3, r2
 12657 020a 00F0A281 		beq	.L673
 12658              		.loc 1 1058 3 discriminator 58
 12659 020e 7B68     		ldr	r3, [r7, #4]
 12660 0210 784A     		ldr	r2, .L675+104
 12661 0212 9342     		cmp	r3, r2
 12662 0214 00F09D81 		beq	.L673
 12663              		.loc 1 1058 3 discriminator 59
 12664 0218 7B68     		ldr	r3, [r7, #4]
 12665 021a 774A     		ldr	r2, .L675+108
 12666 021c 9342     		cmp	r3, r2
 12667 021e 00F09881 		beq	.L673
 12668              		.loc 1 1058 3 discriminator 60
 12669 0222 7B68     		ldr	r3, [r7, #4]
 12670 0224 754A     		ldr	r2, .L675+112
 12671 0226 9342     		cmp	r3, r2
 12672 0228 00F09381 		beq	.L673
 12673              		.loc 1 1058 3 discriminator 61
ARM GAS  /tmp/ccRTEIeG.s 			page 257


 12674 022c 7B68     		ldr	r3, [r7, #4]
 12675 022e B3F1005F 		cmp	r3, #536870912
 12676 0232 00F08E81 		beq	.L673
 12677              		.loc 1 1058 3 discriminator 62
 12678 0236 7B68     		ldr	r3, [r7, #4]
 12679 0238 714A     		ldr	r2, .L675+116
 12680 023a 9342     		cmp	r3, r2
 12681 023c 00F08981 		beq	.L673
 12682              		.loc 1 1058 3 discriminator 63
 12683 0240 7B68     		ldr	r3, [r7, #4]
 12684 0242 704A     		ldr	r2, .L675+120
 12685 0244 9342     		cmp	r3, r2
 12686 0246 00F08481 		beq	.L673
 12687              		.loc 1 1058 3 discriminator 64
 12688 024a 7B68     		ldr	r3, [r7, #4]
 12689 024c 6E4A     		ldr	r2, .L675+124
 12690 024e 9342     		cmp	r3, r2
 12691 0250 00F07F81 		beq	.L673
 12692              		.loc 1 1058 3 discriminator 65
 12693 0254 7B68     		ldr	r3, [r7, #4]
 12694 0256 6D4A     		ldr	r2, .L675+128
 12695 0258 9342     		cmp	r3, r2
 12696 025a 00F07A81 		beq	.L673
 12697              		.loc 1 1058 3 discriminator 66
 12698 025e 7B68     		ldr	r3, [r7, #4]
 12699 0260 6B4A     		ldr	r2, .L675+132
 12700 0262 9342     		cmp	r3, r2
 12701 0264 00F07581 		beq	.L673
 12702              		.loc 1 1058 3 discriminator 67
 12703 0268 7B68     		ldr	r3, [r7, #4]
 12704 026a 6A4A     		ldr	r2, .L675+136
 12705 026c 9342     		cmp	r3, r2
 12706 026e 00F07081 		beq	.L673
 12707              		.loc 1 1058 3 discriminator 68
 12708 0272 7B68     		ldr	r3, [r7, #4]
 12709 0274 684A     		ldr	r2, .L675+140
 12710 0276 9342     		cmp	r3, r2
 12711 0278 00F06B81 		beq	.L673
 12712              		.loc 1 1058 3 discriminator 69
 12713 027c 7B68     		ldr	r3, [r7, #4]
 12714 027e 674A     		ldr	r2, .L675+144
 12715 0280 9342     		cmp	r3, r2
 12716 0282 00F06681 		beq	.L673
 12717              		.loc 1 1058 3 discriminator 70
 12718 0286 7B68     		ldr	r3, [r7, #4]
 12719 0288 654A     		ldr	r2, .L675+148
 12720 028a 9342     		cmp	r3, r2
 12721 028c 00F06181 		beq	.L673
 12722              		.loc 1 1058 3 discriminator 71
 12723 0290 7B68     		ldr	r3, [r7, #4]
 12724 0292 644A     		ldr	r2, .L675+152
 12725 0294 9342     		cmp	r3, r2
 12726 0296 00F05C81 		beq	.L673
 12727              		.loc 1 1058 3 discriminator 72
 12728 029a 7B68     		ldr	r3, [r7, #4]
 12729 029c 624A     		ldr	r2, .L675+156
 12730 029e 9342     		cmp	r3, r2
ARM GAS  /tmp/ccRTEIeG.s 			page 258


 12731 02a0 00F05781 		beq	.L673
 12732              		.loc 1 1058 3 discriminator 73
 12733 02a4 7B68     		ldr	r3, [r7, #4]
 12734 02a6 614A     		ldr	r2, .L675+160
 12735 02a8 9342     		cmp	r3, r2
 12736 02aa 00F05281 		beq	.L673
 12737              		.loc 1 1058 3 discriminator 74
 12738 02ae 7B68     		ldr	r3, [r7, #4]
 12739 02b0 5F4A     		ldr	r2, .L675+164
 12740 02b2 9342     		cmp	r3, r2
 12741 02b4 00F04D81 		beq	.L673
 12742              		.loc 1 1058 3 discriminator 75
 12743 02b8 7B68     		ldr	r3, [r7, #4]
 12744 02ba 5E4A     		ldr	r2, .L675+168
 12745 02bc 9342     		cmp	r3, r2
 12746 02be 00F04881 		beq	.L673
 12747              		.loc 1 1058 3 discriminator 76
 12748 02c2 7B68     		ldr	r3, [r7, #4]
 12749 02c4 5C4A     		ldr	r2, .L675+172
 12750 02c6 9342     		cmp	r3, r2
 12751 02c8 00F04381 		beq	.L673
 12752              		.loc 1 1058 3 discriminator 77
 12753 02cc 7B68     		ldr	r3, [r7, #4]
 12754 02ce 5B4A     		ldr	r2, .L675+176
 12755 02d0 9342     		cmp	r3, r2
 12756 02d2 00F03E81 		beq	.L673
 12757              		.loc 1 1058 3 discriminator 78
 12758 02d6 7B68     		ldr	r3, [r7, #4]
 12759 02d8 594A     		ldr	r2, .L675+180
 12760 02da 9342     		cmp	r3, r2
 12761 02dc 00F03981 		beq	.L673
 12762              		.loc 1 1058 3 discriminator 79
 12763 02e0 7B68     		ldr	r3, [r7, #4]
 12764 02e2 584A     		ldr	r2, .L675+184
 12765 02e4 9342     		cmp	r3, r2
 12766 02e6 00F03481 		beq	.L673
 12767              		.loc 1 1058 3 discriminator 80
 12768 02ea 7B68     		ldr	r3, [r7, #4]
 12769 02ec 564A     		ldr	r2, .L675+188
 12770 02ee 9342     		cmp	r3, r2
 12771 02f0 00F02F81 		beq	.L673
 12772              		.loc 1 1058 3 discriminator 81
 12773 02f4 7B68     		ldr	r3, [r7, #4]
 12774 02f6 554A     		ldr	r2, .L675+192
 12775 02f8 9342     		cmp	r3, r2
 12776 02fa 00F02A81 		beq	.L673
 12777              		.loc 1 1058 3 discriminator 82
 12778 02fe 7B68     		ldr	r3, [r7, #4]
 12779 0300 534A     		ldr	r2, .L675+196
 12780 0302 9342     		cmp	r3, r2
 12781 0304 00F02581 		beq	.L673
 12782              		.loc 1 1058 3 discriminator 83
 12783 0308 7B68     		ldr	r3, [r7, #4]
 12784 030a B3F1405F 		cmp	r3, #805306368
 12785 030e 00F02081 		beq	.L673
 12786              		.loc 1 1058 3 discriminator 84
 12787 0312 7B68     		ldr	r3, [r7, #4]
ARM GAS  /tmp/ccRTEIeG.s 			page 259


 12788 0314 4F4A     		ldr	r2, .L675+200
 12789 0316 9342     		cmp	r3, r2
 12790 0318 00F01B81 		beq	.L673
 12791              		.loc 1 1058 3 discriminator 85
 12792 031c 7B68     		ldr	r3, [r7, #4]
 12793 031e 4E4A     		ldr	r2, .L675+204
 12794 0320 9342     		cmp	r3, r2
 12795 0322 00F01681 		beq	.L673
 12796              		.loc 1 1058 3 discriminator 86
 12797 0326 7B68     		ldr	r3, [r7, #4]
 12798 0328 4C4A     		ldr	r2, .L675+208
 12799 032a 9342     		cmp	r3, r2
 12800 032c 00F01181 		beq	.L673
 12801              		.loc 1 1058 3 discriminator 87
 12802 0330 7B68     		ldr	r3, [r7, #4]
 12803 0332 4B4A     		ldr	r2, .L675+212
 12804 0334 9342     		cmp	r3, r2
 12805 0336 00F00C81 		beq	.L673
 12806              		.loc 1 1058 3 discriminator 88
 12807 033a 7B68     		ldr	r3, [r7, #4]
 12808 033c 494A     		ldr	r2, .L675+216
 12809 033e 9342     		cmp	r3, r2
 12810 0340 00F00781 		beq	.L673
 12811              		.loc 1 1058 3 discriminator 89
 12812 0344 7B68     		ldr	r3, [r7, #4]
 12813 0346 484A     		ldr	r2, .L675+220
 12814 0348 9342     		cmp	r3, r2
 12815 034a 00F00281 		beq	.L673
 12816              		.loc 1 1058 3 discriminator 90
 12817 034e 7B68     		ldr	r3, [r7, #4]
 12818 0350 464A     		ldr	r2, .L675+224
 12819 0352 9342     		cmp	r3, r2
 12820 0354 00F0FD80 		beq	.L673
 12821              		.loc 1 1058 3 discriminator 91
 12822 0358 7B68     		ldr	r3, [r7, #4]
 12823 035a 454A     		ldr	r2, .L675+228
 12824 035c 9342     		cmp	r3, r2
 12825 035e 00F0F880 		beq	.L673
 12826              		.loc 1 1058 3 discriminator 92
 12827 0362 7B68     		ldr	r3, [r7, #4]
 12828 0364 434A     		ldr	r2, .L675+232
 12829 0366 9342     		cmp	r3, r2
 12830 0368 00F0F380 		beq	.L673
 12831              		.loc 1 1058 3 discriminator 93
 12832 036c 7B68     		ldr	r3, [r7, #4]
 12833 036e B3F1804F 		cmp	r3, #1073741824
 12834 0372 00F0EE80 		beq	.L673
 12835              		.loc 1 1058 3 discriminator 94
 12836 0376 7B68     		ldr	r3, [r7, #4]
 12837 0378 3F4A     		ldr	r2, .L675+236
 12838 037a 9342     		cmp	r3, r2
 12839 037c 00F0E980 		beq	.L673
 12840              		.loc 1 1058 3 discriminator 95
 12841 0380 7B68     		ldr	r3, [r7, #4]
 12842 0382 3E4A     		ldr	r2, .L675+240
 12843 0384 9342     		cmp	r3, r2
 12844 0386 00F0E480 		beq	.L673
ARM GAS  /tmp/ccRTEIeG.s 			page 260


 12845 038a 79E0     		b	.L676
 12846              	.L677:
 12847              		.align	2
 12848              	.L675:
 12849 038c 01000010 		.word	268435457
 12850 0390 02000010 		.word	268435458
 12851 0394 03000010 		.word	268435459
 12852 0398 04000010 		.word	268435460
 12853 039c 05000010 		.word	268435461
 12854 03a0 06000010 		.word	268435462
 12855 03a4 07000010 		.word	268435463
 12856 03a8 08000010 		.word	268435464
 12857 03ac 09000010 		.word	268435465
 12858 03b0 0A000010 		.word	268435466
 12859 03b4 0B000010 		.word	268435467
 12860 03b8 0C000010 		.word	268435468
 12861 03bc 0D000010 		.word	268435469
 12862 03c0 0E000010 		.word	268435470
 12863 03c4 0F000010 		.word	268435471
 12864 03c8 10000010 		.word	268435472
 12865 03cc 11000010 		.word	268435473
 12866 03d0 12000010 		.word	268435474
 12867 03d4 13000010 		.word	268435475
 12868 03d8 14000010 		.word	268435476
 12869 03dc 15000010 		.word	268435477
 12870 03e0 16000010 		.word	268435478
 12871 03e4 17000010 		.word	268435479
 12872 03e8 18000010 		.word	268435480
 12873 03ec 19000010 		.word	268435481
 12874 03f0 1A000010 		.word	268435482
 12875 03f4 1C000010 		.word	268435484
 12876 03f8 1D000010 		.word	268435485
 12877 03fc 1E000010 		.word	268435486
 12878 0400 01000020 		.word	536870913
 12879 0404 03000020 		.word	536870915
 12880 0408 04000020 		.word	536870916
 12881 040c 05000020 		.word	536870917
 12882 0410 0C000020 		.word	536870924
 12883 0414 0D000020 		.word	536870925
 12884 0418 0E000020 		.word	536870926
 12885 041c 0F000020 		.word	536870927
 12886 0420 10000020 		.word	536870928
 12887 0424 11000020 		.word	536870929
 12888 0428 12000020 		.word	536870930
 12889 042c 13000020 		.word	536870931
 12890 0430 14000020 		.word	536870932
 12891 0434 16000020 		.word	536870934
 12892 0438 17000020 		.word	536870935
 12893 043c 18000020 		.word	536870936
 12894 0440 19000020 		.word	536870937
 12895 0444 1A000020 		.word	536870938
 12896 0448 1C000020 		.word	536870940
 12897 044c 1D000020 		.word	536870941
 12898 0450 1E000020 		.word	536870942
 12899 0454 01000030 		.word	805306369
 12900 0458 02000030 		.word	805306370
 12901 045c 03000030 		.word	805306371
ARM GAS  /tmp/ccRTEIeG.s 			page 261


 12902 0460 04000030 		.word	805306372
 12903 0464 05000030 		.word	805306373
 12904 0468 06000030 		.word	805306374
 12905 046c 07000030 		.word	805306375
 12906 0470 08000030 		.word	805306376
 12907 0474 0A000030 		.word	805306378
 12908 0478 01000040 		.word	1073741825
 12909 047c 02000040 		.word	1073741826
 12910              	.L676:
 12911              		.loc 1 1058 3 discriminator 96
 12912 0480 7B68     		ldr	r3, [r7, #4]
 12913 0482 414A     		ldr	r2, .L678
 12914 0484 9342     		cmp	r3, r2
 12915 0486 64D0     		beq	.L673
 12916              		.loc 1 1058 3 discriminator 97
 12917 0488 7B68     		ldr	r3, [r7, #4]
 12918 048a 404A     		ldr	r2, .L678+4
 12919 048c 9342     		cmp	r3, r2
 12920 048e 60D0     		beq	.L673
 12921              		.loc 1 1058 3 discriminator 98
 12922 0490 7B68     		ldr	r3, [r7, #4]
 12923 0492 3F4A     		ldr	r2, .L678+8
 12924 0494 9342     		cmp	r3, r2
 12925 0496 5CD0     		beq	.L673
 12926              		.loc 1 1058 3 discriminator 99
 12927 0498 7B68     		ldr	r3, [r7, #4]
 12928 049a 3E4A     		ldr	r2, .L678+12
 12929 049c 9342     		cmp	r3, r2
 12930 049e 58D0     		beq	.L673
 12931              		.loc 1 1058 3 discriminator 100
 12932 04a0 7B68     		ldr	r3, [r7, #4]
 12933 04a2 3D4A     		ldr	r2, .L678+16
 12934 04a4 9342     		cmp	r3, r2
 12935 04a6 54D0     		beq	.L673
 12936              		.loc 1 1058 3 discriminator 101
 12937 04a8 7B68     		ldr	r3, [r7, #4]
 12938 04aa 3C4A     		ldr	r2, .L678+20
 12939 04ac 9342     		cmp	r3, r2
 12940 04ae 50D0     		beq	.L673
 12941              		.loc 1 1058 3 discriminator 102
 12942 04b0 7B68     		ldr	r3, [r7, #4]
 12943 04b2 3B4A     		ldr	r2, .L678+24
 12944 04b4 9342     		cmp	r3, r2
 12945 04b6 4CD0     		beq	.L673
 12946              		.loc 1 1058 3 discriminator 103
 12947 04b8 7B68     		ldr	r3, [r7, #4]
 12948 04ba 3A4A     		ldr	r2, .L678+28
 12949 04bc 9342     		cmp	r3, r2
 12950 04be 48D0     		beq	.L673
 12951              		.loc 1 1058 3 discriminator 104
 12952 04c0 7B68     		ldr	r3, [r7, #4]
 12953 04c2 394A     		ldr	r2, .L678+32
 12954 04c4 9342     		cmp	r3, r2
 12955 04c6 44D0     		beq	.L673
 12956              		.loc 1 1058 3 discriminator 105
 12957 04c8 7B68     		ldr	r3, [r7, #4]
 12958 04ca 384A     		ldr	r2, .L678+36
ARM GAS  /tmp/ccRTEIeG.s 			page 262


 12959 04cc 9342     		cmp	r3, r2
 12960 04ce 40D0     		beq	.L673
 12961              		.loc 1 1058 3 discriminator 106
 12962 04d0 7B68     		ldr	r3, [r7, #4]
 12963 04d2 374A     		ldr	r2, .L678+40
 12964 04d4 9342     		cmp	r3, r2
 12965 04d6 3CD0     		beq	.L673
 12966              		.loc 1 1058 3 discriminator 107
 12967 04d8 7B68     		ldr	r3, [r7, #4]
 12968 04da 364A     		ldr	r2, .L678+44
 12969 04dc 9342     		cmp	r3, r2
 12970 04de 38D0     		beq	.L673
 12971              		.loc 1 1058 3 discriminator 108
 12972 04e0 7B68     		ldr	r3, [r7, #4]
 12973 04e2 354A     		ldr	r2, .L678+48
 12974 04e4 9342     		cmp	r3, r2
 12975 04e6 34D0     		beq	.L673
 12976              		.loc 1 1058 3 discriminator 109
 12977 04e8 7B68     		ldr	r3, [r7, #4]
 12978 04ea 344A     		ldr	r2, .L678+52
 12979 04ec 9342     		cmp	r3, r2
 12980 04ee 30D0     		beq	.L673
 12981              		.loc 1 1058 3 discriminator 110
 12982 04f0 7B68     		ldr	r3, [r7, #4]
 12983 04f2 334A     		ldr	r2, .L678+56
 12984 04f4 9342     		cmp	r3, r2
 12985 04f6 2CD0     		beq	.L673
 12986              		.loc 1 1058 3 discriminator 111
 12987 04f8 7B68     		ldr	r3, [r7, #4]
 12988 04fa 324A     		ldr	r2, .L678+60
 12989 04fc 9342     		cmp	r3, r2
 12990 04fe 28D0     		beq	.L673
 12991              		.loc 1 1058 3 discriminator 112
 12992 0500 7B68     		ldr	r3, [r7, #4]
 12993 0502 314A     		ldr	r2, .L678+64
 12994 0504 9342     		cmp	r3, r2
 12995 0506 24D0     		beq	.L673
 12996              		.loc 1 1058 3 discriminator 113
 12997 0508 7B68     		ldr	r3, [r7, #4]
 12998 050a 304A     		ldr	r2, .L678+68
 12999 050c 9342     		cmp	r3, r2
 13000 050e 20D0     		beq	.L673
 13001              		.loc 1 1058 3 discriminator 114
 13002 0510 7B68     		ldr	r3, [r7, #4]
 13003 0512 2F4A     		ldr	r2, .L678+72
 13004 0514 9342     		cmp	r3, r2
 13005 0516 1CD0     		beq	.L673
 13006              		.loc 1 1058 3 discriminator 115
 13007 0518 7B68     		ldr	r3, [r7, #4]
 13008 051a 2E4A     		ldr	r2, .L678+76
 13009 051c 9342     		cmp	r3, r2
 13010 051e 18D0     		beq	.L673
 13011              		.loc 1 1058 3 discriminator 116
 13012 0520 7B68     		ldr	r3, [r7, #4]
 13013 0522 2D4A     		ldr	r2, .L678+80
 13014 0524 9342     		cmp	r3, r2
 13015 0526 14D0     		beq	.L673
ARM GAS  /tmp/ccRTEIeG.s 			page 263


 13016              		.loc 1 1058 3 discriminator 117
 13017 0528 7B68     		ldr	r3, [r7, #4]
 13018 052a 2C4A     		ldr	r2, .L678+84
 13019 052c 9342     		cmp	r3, r2
 13020 052e 10D0     		beq	.L673
 13021              		.loc 1 1058 3 discriminator 118
 13022 0530 7B68     		ldr	r3, [r7, #4]
 13023 0532 2B4A     		ldr	r2, .L678+88
 13024 0534 9342     		cmp	r3, r2
 13025 0536 0CD0     		beq	.L673
 13026              		.loc 1 1058 3 discriminator 119
 13027 0538 7B68     		ldr	r3, [r7, #4]
 13028 053a 2A4A     		ldr	r2, .L678+92
 13029 053c 9342     		cmp	r3, r2
 13030 053e 08D0     		beq	.L673
 13031              		.loc 1 1058 3 discriminator 120
 13032 0540 7B68     		ldr	r3, [r7, #4]
 13033 0542 294A     		ldr	r2, .L678+96
 13034 0544 9342     		cmp	r3, r2
 13035 0546 04D0     		beq	.L673
 13036              		.loc 1 1058 3 discriminator 121
 13037 0548 40F22241 		movw	r1, #1058
 13038 054c 2748     		ldr	r0, .L678+100
 13039 054e FFF7FEFF 		bl	assert_failed
 13040              	.L673:
1059:STM32Cube_FW_N6/Drivers/STM32N6xx_HAL_Driver/Src/stm32n6xx_hal_rif.c **** 
1060:STM32Cube_FW_N6/Drivers/STM32N6xx_HAL_Driver/Src/stm32n6xx_hal_rif.c ****   shift_var = (PeriphId & RIF_PERIPH_BIT_POSITION);
 13041              		.loc 1 1060 13 is_stmt 1
 13042 0552 7B68     		ldr	r3, [r7, #4]
 13043 0554 03F01F03 		and	r3, r3, #31
 13044 0558 7B61     		str	r3, [r7, #20]
1061:STM32Cube_FW_N6/Drivers/STM32N6xx_HAL_Driver/Src/stm32n6xx_hal_rif.c ****   p_interrupt_reg = &(IAC->ISR[PeriphId >> RIF_PERIPH_REG_SHIFT]);
 13045              		.loc 1 1061 41
 13046 055a 7B68     		ldr	r3, [r7, #4]
 13047 055c 1B0F     		lsrs	r3, r3, #28
 13048              		.loc 1 1061 21
 13049 055e 9A00     		lsls	r2, r3, #2
 13050              		.loc 1 1061 19
 13051 0560 234B     		ldr	r3, .L678+104
 13052 0562 1344     		add	r3, r3, r2
 13053 0564 3B61     		str	r3, [r7, #16]
1062:STM32Cube_FW_N6/Drivers/STM32N6xx_HAL_Driver/Src/stm32n6xx_hal_rif.c ****   interrupt_flag = ((*p_interrupt_reg & (1UL << shift_var)) >> shift_var);
 13054              		.loc 1 1062 22
 13055 0566 3B69     		ldr	r3, [r7, #16]
 13056 0568 1A68     		ldr	r2, [r3]
 13057              		.loc 1 1062 46
 13058 056a 0121     		movs	r1, #1
 13059 056c 7B69     		ldr	r3, [r7, #20]
 13060 056e 01FA03F3 		lsl	r3, r1, r3
 13061              		.loc 1 1062 39
 13062 0572 1A40     		ands	r2, r2, r3
 13063              		.loc 1 1062 18
 13064 0574 7B69     		ldr	r3, [r7, #20]
 13065 0576 22FA03F3 		lsr	r3, r2, r3
 13066 057a FB60     		str	r3, [r7, #12]
1063:STM32Cube_FW_N6/Drivers/STM32N6xx_HAL_Driver/Src/stm32n6xx_hal_rif.c **** 
1064:STM32Cube_FW_N6/Drivers/STM32N6xx_HAL_Driver/Src/stm32n6xx_hal_rif.c ****   return interrupt_flag;
ARM GAS  /tmp/ccRTEIeG.s 			page 264


 13067              		.loc 1 1064 10
 13068 057c FB68     		ldr	r3, [r7, #12]
1065:STM32Cube_FW_N6/Drivers/STM32N6xx_HAL_Driver/Src/stm32n6xx_hal_rif.c **** }
 13069              		.loc 1 1065 1
 13070 057e 1846     		mov	r0, r3
 13071 0580 1837     		adds	r7, r7, #24
 13072              		.cfi_def_cfa_offset 8
 13073 0582 BD46     		mov	sp, r7
 13074              		.cfi_def_cfa_register 13
 13075              		@ sp needed
 13076 0584 80BD     		pop	{r7, pc}
 13077              	.L679:
 13078 0586 00BF     		.align	2
 13079              	.L678:
 13080 0588 03000040 		.word	1073741827
 13081 058c 05000040 		.word	1073741829
 13082 0590 06000040 		.word	1073741830
 13083 0594 07000040 		.word	1073741831
 13084 0598 08000040 		.word	1073741832
 13085 059c 09000040 		.word	1073741833
 13086 05a0 0A000040 		.word	1073741834
 13087 05a4 0B000040 		.word	1073741835
 13088 05a8 0C000040 		.word	1073741836
 13089 05ac 0D000040 		.word	1073741837
 13090 05b0 0E000040 		.word	1073741838
 13091 05b4 0F000040 		.word	1073741839
 13092 05b8 10000040 		.word	1073741840
 13093 05bc 11000040 		.word	1073741841
 13094 05c0 12000040 		.word	1073741842
 13095 05c4 13000040 		.word	1073741843
 13096 05c8 15000040 		.word	1073741845
 13097 05cc 16000040 		.word	1073741846
 13098 05d0 17000040 		.word	1073741847
 13099 05d4 18000040 		.word	1073741848
 13100 05d8 19000040 		.word	1073741849
 13101 05dc 1B000040 		.word	1073741851
 13102 05e0 1C000040 		.word	1073741852
 13103 05e4 1D000040 		.word	1073741853
 13104 05e8 1E000040 		.word	1073741854
 13105 05ec 00000000 		.word	.LC0
 13106 05f0 80500254 		.word	1409437824
 13107              		.cfi_endproc
 13108              	.LFE858:
 13110              		.section	.text.HAL_RIF_IAC_ClearFlag,"ax",%progbits
 13111              		.align	1
 13112              		.global	HAL_RIF_IAC_ClearFlag
 13113              		.syntax unified
 13114              		.thumb
 13115              		.thumb_func
 13117              	HAL_RIF_IAC_ClearFlag:
 13118              	.LFB859:
1066:STM32Cube_FW_N6/Drivers/STM32N6xx_HAL_Driver/Src/stm32n6xx_hal_rif.c **** 
1067:STM32Cube_FW_N6/Drivers/STM32N6xx_HAL_Driver/Src/stm32n6xx_hal_rif.c **** /**
1068:STM32Cube_FW_N6/Drivers/STM32N6xx_HAL_Driver/Src/stm32n6xx_hal_rif.c ****   * @brief  Clear illegal access detection flag.
1069:STM32Cube_FW_N6/Drivers/STM32N6xx_HAL_Driver/Src/stm32n6xx_hal_rif.c ****   * @note   This API is protected by the Trusted Domain compilation directive.
1070:STM32Cube_FW_N6/Drivers/STM32N6xx_HAL_Driver/Src/stm32n6xx_hal_rif.c ****   * @param  PeriphId specifies the index of the bus slave.
1071:STM32Cube_FW_N6/Drivers/STM32N6xx_HAL_Driver/Src/stm32n6xx_hal_rif.c ****   *         This parameter can be one of @ref RIF_PERIPHERAL_INDEX
ARM GAS  /tmp/ccRTEIeG.s 			page 265


1072:STM32Cube_FW_N6/Drivers/STM32N6xx_HAL_Driver/Src/stm32n6xx_hal_rif.c ****   *         bits[31:28] define the register index a peripheral belongs to, value from 0 to 5
1073:STM32Cube_FW_N6/Drivers/STM32N6xx_HAL_Driver/Src/stm32n6xx_hal_rif.c ****   *         bits[4:0]   define the bit position within the register, value from 0 to 31
1074:STM32Cube_FW_N6/Drivers/STM32N6xx_HAL_Driver/Src/stm32n6xx_hal_rif.c ****   * @retval None
1075:STM32Cube_FW_N6/Drivers/STM32N6xx_HAL_Driver/Src/stm32n6xx_hal_rif.c ****   */
1076:STM32Cube_FW_N6/Drivers/STM32N6xx_HAL_Driver/Src/stm32n6xx_hal_rif.c **** void HAL_RIF_IAC_ClearFlag(uint32_t PeriphId)
1077:STM32Cube_FW_N6/Drivers/STM32N6xx_HAL_Driver/Src/stm32n6xx_hal_rif.c **** {
 13119              		.loc 1 1077 1
 13120              		.cfi_startproc
 13121              		@ args = 0, pretend = 0, frame = 16
 13122              		@ frame_needed = 1, uses_anonymous_args = 0
 13123 0000 80B5     		push	{r7, lr}
 13124              		.cfi_def_cfa_offset 8
 13125              		.cfi_offset 7, -8
 13126              		.cfi_offset 14, -4
 13127 0002 84B0     		sub	sp, sp, #16
 13128              		.cfi_def_cfa_offset 24
 13129 0004 00AF     		add	r7, sp, #0
 13130              		.cfi_def_cfa_register 7
 13131 0006 7860     		str	r0, [r7, #4]
1078:STM32Cube_FW_N6/Drivers/STM32N6xx_HAL_Driver/Src/stm32n6xx_hal_rif.c ****   __IO uint32_t *p_interrupt_reg;
1079:STM32Cube_FW_N6/Drivers/STM32N6xx_HAL_Driver/Src/stm32n6xx_hal_rif.c **** 
1080:STM32Cube_FW_N6/Drivers/STM32N6xx_HAL_Driver/Src/stm32n6xx_hal_rif.c ****   /* Check parameters */
1081:STM32Cube_FW_N6/Drivers/STM32N6xx_HAL_Driver/Src/stm32n6xx_hal_rif.c ****   assert_param(IS_RIF_RISC_PERIPH_INDEX(PeriphId) || IS_RIF_AWARE_PERIPH_INDEX(PeriphId));
 13132              		.loc 1 1081 3
 13133 0008 7B68     		ldr	r3, [r7, #4]
 13134 000a 002B     		cmp	r3, #0
 13135 000c 00F0A182 		beq	.L681
 13136              		.loc 1 1081 3 is_stmt 0 discriminator 1
 13137 0010 7B68     		ldr	r3, [r7, #4]
 13138 0012 012B     		cmp	r3, #1
 13139 0014 00F09D82 		beq	.L681
 13140              		.loc 1 1081 3 discriminator 2
 13141 0018 7B68     		ldr	r3, [r7, #4]
 13142 001a 022B     		cmp	r3, #2
 13143 001c 00F09982 		beq	.L681
 13144              		.loc 1 1081 3 discriminator 3
 13145 0020 7B68     		ldr	r3, [r7, #4]
 13146 0022 032B     		cmp	r3, #3
 13147 0024 00F09582 		beq	.L681
 13148              		.loc 1 1081 3 discriminator 4
 13149 0028 7B68     		ldr	r3, [r7, #4]
 13150 002a 042B     		cmp	r3, #4
 13151 002c 00F09182 		beq	.L681
 13152              		.loc 1 1081 3 discriminator 5
 13153 0030 7B68     		ldr	r3, [r7, #4]
 13154 0032 052B     		cmp	r3, #5
 13155 0034 00F08D82 		beq	.L681
 13156              		.loc 1 1081 3 discriminator 6
 13157 0038 7B68     		ldr	r3, [r7, #4]
 13158 003a 062B     		cmp	r3, #6
 13159 003c 00F08982 		beq	.L681
 13160              		.loc 1 1081 3 discriminator 7
 13161 0040 7B68     		ldr	r3, [r7, #4]
 13162 0042 082B     		cmp	r3, #8
 13163 0044 00F08582 		beq	.L681
 13164              		.loc 1 1081 3 discriminator 8
 13165 0048 7B68     		ldr	r3, [r7, #4]
ARM GAS  /tmp/ccRTEIeG.s 			page 266


 13166 004a 092B     		cmp	r3, #9
 13167 004c 00F08182 		beq	.L681
 13168              		.loc 1 1081 3 discriminator 9
 13169 0050 7B68     		ldr	r3, [r7, #4]
 13170 0052 0A2B     		cmp	r3, #10
 13171 0054 00F07D82 		beq	.L681
 13172              		.loc 1 1081 3 discriminator 10
 13173 0058 7B68     		ldr	r3, [r7, #4]
 13174 005a 0B2B     		cmp	r3, #11
 13175 005c 00F07982 		beq	.L681
 13176              		.loc 1 1081 3 discriminator 11
 13177 0060 7B68     		ldr	r3, [r7, #4]
 13178 0062 0C2B     		cmp	r3, #12
 13179 0064 00F07582 		beq	.L681
 13180              		.loc 1 1081 3 discriminator 12
 13181 0068 7B68     		ldr	r3, [r7, #4]
 13182 006a 0D2B     		cmp	r3, #13
 13183 006c 00F07182 		beq	.L681
 13184              		.loc 1 1081 3 discriminator 13
 13185 0070 7B68     		ldr	r3, [r7, #4]
 13186 0072 0E2B     		cmp	r3, #14
 13187 0074 00F06D82 		beq	.L681
 13188              		.loc 1 1081 3 discriminator 14
 13189 0078 7B68     		ldr	r3, [r7, #4]
 13190 007a 0F2B     		cmp	r3, #15
 13191 007c 00F06982 		beq	.L681
 13192              		.loc 1 1081 3 discriminator 15
 13193 0080 7B68     		ldr	r3, [r7, #4]
 13194 0082 102B     		cmp	r3, #16
 13195 0084 00F06582 		beq	.L681
 13196              		.loc 1 1081 3 discriminator 16
 13197 0088 7B68     		ldr	r3, [r7, #4]
 13198 008a 112B     		cmp	r3, #17
 13199 008c 00F06182 		beq	.L681
 13200              		.loc 1 1081 3 discriminator 17
 13201 0090 7B68     		ldr	r3, [r7, #4]
 13202 0092 122B     		cmp	r3, #18
 13203 0094 00F05D82 		beq	.L681
 13204              		.loc 1 1081 3 discriminator 18
 13205 0098 7B68     		ldr	r3, [r7, #4]
 13206 009a 132B     		cmp	r3, #19
 13207 009c 00F05982 		beq	.L681
 13208              		.loc 1 1081 3 discriminator 19
 13209 00a0 7B68     		ldr	r3, [r7, #4]
 13210 00a2 142B     		cmp	r3, #20
 13211 00a4 00F05582 		beq	.L681
 13212              		.loc 1 1081 3 discriminator 20
 13213 00a8 7B68     		ldr	r3, [r7, #4]
 13214 00aa 152B     		cmp	r3, #21
 13215 00ac 00F05182 		beq	.L681
 13216              		.loc 1 1081 3 discriminator 21
 13217 00b0 7B68     		ldr	r3, [r7, #4]
 13218 00b2 162B     		cmp	r3, #22
 13219 00b4 00F04D82 		beq	.L681
 13220              		.loc 1 1081 3 discriminator 22
 13221 00b8 7B68     		ldr	r3, [r7, #4]
 13222 00ba 172B     		cmp	r3, #23
ARM GAS  /tmp/ccRTEIeG.s 			page 267


 13223 00bc 00F04982 		beq	.L681
 13224              		.loc 1 1081 3 discriminator 23
 13225 00c0 7B68     		ldr	r3, [r7, #4]
 13226 00c2 182B     		cmp	r3, #24
 13227 00c4 00F04582 		beq	.L681
 13228              		.loc 1 1081 3 discriminator 24
 13229 00c8 7B68     		ldr	r3, [r7, #4]
 13230 00ca 192B     		cmp	r3, #25
 13231 00cc 00F04182 		beq	.L681
 13232              		.loc 1 1081 3 discriminator 25
 13233 00d0 7B68     		ldr	r3, [r7, #4]
 13234 00d2 1A2B     		cmp	r3, #26
 13235 00d4 00F03D82 		beq	.L681
 13236              		.loc 1 1081 3 discriminator 26
 13237 00d8 7B68     		ldr	r3, [r7, #4]
 13238 00da 1B2B     		cmp	r3, #27
 13239 00dc 00F03982 		beq	.L681
 13240              		.loc 1 1081 3 discriminator 27
 13241 00e0 7B68     		ldr	r3, [r7, #4]
 13242 00e2 1C2B     		cmp	r3, #28
 13243 00e4 00F03582 		beq	.L681
 13244              		.loc 1 1081 3 discriminator 28
 13245 00e8 7B68     		ldr	r3, [r7, #4]
 13246 00ea 1D2B     		cmp	r3, #29
 13247 00ec 00F03182 		beq	.L681
 13248              		.loc 1 1081 3 discriminator 29
 13249 00f0 7B68     		ldr	r3, [r7, #4]
 13250 00f2 1E2B     		cmp	r3, #30
 13251 00f4 00F02D82 		beq	.L681
 13252              		.loc 1 1081 3 discriminator 30
 13253 00f8 7B68     		ldr	r3, [r7, #4]
 13254 00fa 1F2B     		cmp	r3, #31
 13255 00fc 00F02982 		beq	.L681
 13256              		.loc 1 1081 3 discriminator 31
 13257 0100 7B68     		ldr	r3, [r7, #4]
 13258 0102 B3F1805F 		cmp	r3, #268435456
 13259 0106 00F02482 		beq	.L681
 13260              		.loc 1 1081 3 discriminator 32
 13261 010a 7B68     		ldr	r3, [r7, #4]
 13262 010c 9F4A     		ldr	r2, .L682
 13263 010e 9342     		cmp	r3, r2
 13264 0110 00F01F82 		beq	.L681
 13265              		.loc 1 1081 3 discriminator 33
 13266 0114 7B68     		ldr	r3, [r7, #4]
 13267 0116 9E4A     		ldr	r2, .L682+4
 13268 0118 9342     		cmp	r3, r2
 13269 011a 00F01A82 		beq	.L681
 13270              		.loc 1 1081 3 discriminator 34
 13271 011e 7B68     		ldr	r3, [r7, #4]
 13272 0120 9C4A     		ldr	r2, .L682+8
 13273 0122 9342     		cmp	r3, r2
 13274 0124 00F01582 		beq	.L681
 13275              		.loc 1 1081 3 discriminator 35
 13276 0128 7B68     		ldr	r3, [r7, #4]
 13277 012a 9B4A     		ldr	r2, .L682+12
 13278 012c 9342     		cmp	r3, r2
 13279 012e 00F01082 		beq	.L681
ARM GAS  /tmp/ccRTEIeG.s 			page 268


 13280              		.loc 1 1081 3 discriminator 36
 13281 0132 7B68     		ldr	r3, [r7, #4]
 13282 0134 994A     		ldr	r2, .L682+16
 13283 0136 9342     		cmp	r3, r2
 13284 0138 00F00B82 		beq	.L681
 13285              		.loc 1 1081 3 discriminator 37
 13286 013c 7B68     		ldr	r3, [r7, #4]
 13287 013e 984A     		ldr	r2, .L682+20
 13288 0140 9342     		cmp	r3, r2
 13289 0142 00F00682 		beq	.L681
 13290              		.loc 1 1081 3 discriminator 38
 13291 0146 7B68     		ldr	r3, [r7, #4]
 13292 0148 964A     		ldr	r2, .L682+24
 13293 014a 9342     		cmp	r3, r2
 13294 014c 00F00182 		beq	.L681
 13295              		.loc 1 1081 3 discriminator 39
 13296 0150 7B68     		ldr	r3, [r7, #4]
 13297 0152 954A     		ldr	r2, .L682+28
 13298 0154 9342     		cmp	r3, r2
 13299 0156 00F0FC81 		beq	.L681
 13300              		.loc 1 1081 3 discriminator 40
 13301 015a 7B68     		ldr	r3, [r7, #4]
 13302 015c 934A     		ldr	r2, .L682+32
 13303 015e 9342     		cmp	r3, r2
 13304 0160 00F0F781 		beq	.L681
 13305              		.loc 1 1081 3 discriminator 41
 13306 0164 7B68     		ldr	r3, [r7, #4]
 13307 0166 924A     		ldr	r2, .L682+36
 13308 0168 9342     		cmp	r3, r2
 13309 016a 00F0F281 		beq	.L681
 13310              		.loc 1 1081 3 discriminator 42
 13311 016e 7B68     		ldr	r3, [r7, #4]
 13312 0170 904A     		ldr	r2, .L682+40
 13313 0172 9342     		cmp	r3, r2
 13314 0174 00F0ED81 		beq	.L681
 13315              		.loc 1 1081 3 discriminator 43
 13316 0178 7B68     		ldr	r3, [r7, #4]
 13317 017a 8F4A     		ldr	r2, .L682+44
 13318 017c 9342     		cmp	r3, r2
 13319 017e 00F0E881 		beq	.L681
 13320              		.loc 1 1081 3 discriminator 44
 13321 0182 7B68     		ldr	r3, [r7, #4]
 13322 0184 8D4A     		ldr	r2, .L682+48
 13323 0186 9342     		cmp	r3, r2
 13324 0188 00F0E381 		beq	.L681
 13325              		.loc 1 1081 3 discriminator 45
 13326 018c 7B68     		ldr	r3, [r7, #4]
 13327 018e 8C4A     		ldr	r2, .L682+52
 13328 0190 9342     		cmp	r3, r2
 13329 0192 00F0DE81 		beq	.L681
 13330              		.loc 1 1081 3 discriminator 46
 13331 0196 7B68     		ldr	r3, [r7, #4]
 13332 0198 8A4A     		ldr	r2, .L682+56
 13333 019a 9342     		cmp	r3, r2
 13334 019c 00F0D981 		beq	.L681
 13335              		.loc 1 1081 3 discriminator 47
 13336 01a0 7B68     		ldr	r3, [r7, #4]
ARM GAS  /tmp/ccRTEIeG.s 			page 269


 13337 01a2 894A     		ldr	r2, .L682+60
 13338 01a4 9342     		cmp	r3, r2
 13339 01a6 00F0D481 		beq	.L681
 13340              		.loc 1 1081 3 discriminator 48
 13341 01aa 7B68     		ldr	r3, [r7, #4]
 13342 01ac 874A     		ldr	r2, .L682+64
 13343 01ae 9342     		cmp	r3, r2
 13344 01b0 00F0CF81 		beq	.L681
 13345              		.loc 1 1081 3 discriminator 49
 13346 01b4 7B68     		ldr	r3, [r7, #4]
 13347 01b6 864A     		ldr	r2, .L682+68
 13348 01b8 9342     		cmp	r3, r2
 13349 01ba 00F0CA81 		beq	.L681
 13350              		.loc 1 1081 3 discriminator 50
 13351 01be 7B68     		ldr	r3, [r7, #4]
 13352 01c0 844A     		ldr	r2, .L682+72
 13353 01c2 9342     		cmp	r3, r2
 13354 01c4 00F0C581 		beq	.L681
 13355              		.loc 1 1081 3 discriminator 51
 13356 01c8 7B68     		ldr	r3, [r7, #4]
 13357 01ca 834A     		ldr	r2, .L682+76
 13358 01cc 9342     		cmp	r3, r2
 13359 01ce 00F0C081 		beq	.L681
 13360              		.loc 1 1081 3 discriminator 52
 13361 01d2 7B68     		ldr	r3, [r7, #4]
 13362 01d4 814A     		ldr	r2, .L682+80
 13363 01d6 9342     		cmp	r3, r2
 13364 01d8 00F0BB81 		beq	.L681
 13365              		.loc 1 1081 3 discriminator 53
 13366 01dc 7B68     		ldr	r3, [r7, #4]
 13367 01de 804A     		ldr	r2, .L682+84
 13368 01e0 9342     		cmp	r3, r2
 13369 01e2 00F0B681 		beq	.L681
 13370              		.loc 1 1081 3 discriminator 54
 13371 01e6 7B68     		ldr	r3, [r7, #4]
 13372 01e8 7E4A     		ldr	r2, .L682+88
 13373 01ea 9342     		cmp	r3, r2
 13374 01ec 00F0B181 		beq	.L681
 13375              		.loc 1 1081 3 discriminator 55
 13376 01f0 7B68     		ldr	r3, [r7, #4]
 13377 01f2 7D4A     		ldr	r2, .L682+92
 13378 01f4 9342     		cmp	r3, r2
 13379 01f6 00F0AC81 		beq	.L681
 13380              		.loc 1 1081 3 discriminator 56
 13381 01fa 7B68     		ldr	r3, [r7, #4]
 13382 01fc 7B4A     		ldr	r2, .L682+96
 13383 01fe 9342     		cmp	r3, r2
 13384 0200 00F0A781 		beq	.L681
 13385              		.loc 1 1081 3 discriminator 57
 13386 0204 7B68     		ldr	r3, [r7, #4]
 13387 0206 7A4A     		ldr	r2, .L682+100
 13388 0208 9342     		cmp	r3, r2
 13389 020a 00F0A281 		beq	.L681
 13390              		.loc 1 1081 3 discriminator 58
 13391 020e 7B68     		ldr	r3, [r7, #4]
 13392 0210 784A     		ldr	r2, .L682+104
 13393 0212 9342     		cmp	r3, r2
ARM GAS  /tmp/ccRTEIeG.s 			page 270


 13394 0214 00F09D81 		beq	.L681
 13395              		.loc 1 1081 3 discriminator 59
 13396 0218 7B68     		ldr	r3, [r7, #4]
 13397 021a 774A     		ldr	r2, .L682+108
 13398 021c 9342     		cmp	r3, r2
 13399 021e 00F09881 		beq	.L681
 13400              		.loc 1 1081 3 discriminator 60
 13401 0222 7B68     		ldr	r3, [r7, #4]
 13402 0224 754A     		ldr	r2, .L682+112
 13403 0226 9342     		cmp	r3, r2
 13404 0228 00F09381 		beq	.L681
 13405              		.loc 1 1081 3 discriminator 61
 13406 022c 7B68     		ldr	r3, [r7, #4]
 13407 022e B3F1005F 		cmp	r3, #536870912
 13408 0232 00F08E81 		beq	.L681
 13409              		.loc 1 1081 3 discriminator 62
 13410 0236 7B68     		ldr	r3, [r7, #4]
 13411 0238 714A     		ldr	r2, .L682+116
 13412 023a 9342     		cmp	r3, r2
 13413 023c 00F08981 		beq	.L681
 13414              		.loc 1 1081 3 discriminator 63
 13415 0240 7B68     		ldr	r3, [r7, #4]
 13416 0242 704A     		ldr	r2, .L682+120
 13417 0244 9342     		cmp	r3, r2
 13418 0246 00F08481 		beq	.L681
 13419              		.loc 1 1081 3 discriminator 64
 13420 024a 7B68     		ldr	r3, [r7, #4]
 13421 024c 6E4A     		ldr	r2, .L682+124
 13422 024e 9342     		cmp	r3, r2
 13423 0250 00F07F81 		beq	.L681
 13424              		.loc 1 1081 3 discriminator 65
 13425 0254 7B68     		ldr	r3, [r7, #4]
 13426 0256 6D4A     		ldr	r2, .L682+128
 13427 0258 9342     		cmp	r3, r2
 13428 025a 00F07A81 		beq	.L681
 13429              		.loc 1 1081 3 discriminator 66
 13430 025e 7B68     		ldr	r3, [r7, #4]
 13431 0260 6B4A     		ldr	r2, .L682+132
 13432 0262 9342     		cmp	r3, r2
 13433 0264 00F07581 		beq	.L681
 13434              		.loc 1 1081 3 discriminator 67
 13435 0268 7B68     		ldr	r3, [r7, #4]
 13436 026a 6A4A     		ldr	r2, .L682+136
 13437 026c 9342     		cmp	r3, r2
 13438 026e 00F07081 		beq	.L681
 13439              		.loc 1 1081 3 discriminator 68
 13440 0272 7B68     		ldr	r3, [r7, #4]
 13441 0274 684A     		ldr	r2, .L682+140
 13442 0276 9342     		cmp	r3, r2
 13443 0278 00F06B81 		beq	.L681
 13444              		.loc 1 1081 3 discriminator 69
 13445 027c 7B68     		ldr	r3, [r7, #4]
 13446 027e 674A     		ldr	r2, .L682+144
 13447 0280 9342     		cmp	r3, r2
 13448 0282 00F06681 		beq	.L681
 13449              		.loc 1 1081 3 discriminator 70
 13450 0286 7B68     		ldr	r3, [r7, #4]
ARM GAS  /tmp/ccRTEIeG.s 			page 271


 13451 0288 654A     		ldr	r2, .L682+148
 13452 028a 9342     		cmp	r3, r2
 13453 028c 00F06181 		beq	.L681
 13454              		.loc 1 1081 3 discriminator 71
 13455 0290 7B68     		ldr	r3, [r7, #4]
 13456 0292 644A     		ldr	r2, .L682+152
 13457 0294 9342     		cmp	r3, r2
 13458 0296 00F05C81 		beq	.L681
 13459              		.loc 1 1081 3 discriminator 72
 13460 029a 7B68     		ldr	r3, [r7, #4]
 13461 029c 624A     		ldr	r2, .L682+156
 13462 029e 9342     		cmp	r3, r2
 13463 02a0 00F05781 		beq	.L681
 13464              		.loc 1 1081 3 discriminator 73
 13465 02a4 7B68     		ldr	r3, [r7, #4]
 13466 02a6 614A     		ldr	r2, .L682+160
 13467 02a8 9342     		cmp	r3, r2
 13468 02aa 00F05281 		beq	.L681
 13469              		.loc 1 1081 3 discriminator 74
 13470 02ae 7B68     		ldr	r3, [r7, #4]
 13471 02b0 5F4A     		ldr	r2, .L682+164
 13472 02b2 9342     		cmp	r3, r2
 13473 02b4 00F04D81 		beq	.L681
 13474              		.loc 1 1081 3 discriminator 75
 13475 02b8 7B68     		ldr	r3, [r7, #4]
 13476 02ba 5E4A     		ldr	r2, .L682+168
 13477 02bc 9342     		cmp	r3, r2
 13478 02be 00F04881 		beq	.L681
 13479              		.loc 1 1081 3 discriminator 76
 13480 02c2 7B68     		ldr	r3, [r7, #4]
 13481 02c4 5C4A     		ldr	r2, .L682+172
 13482 02c6 9342     		cmp	r3, r2
 13483 02c8 00F04381 		beq	.L681
 13484              		.loc 1 1081 3 discriminator 77
 13485 02cc 7B68     		ldr	r3, [r7, #4]
 13486 02ce 5B4A     		ldr	r2, .L682+176
 13487 02d0 9342     		cmp	r3, r2
 13488 02d2 00F03E81 		beq	.L681
 13489              		.loc 1 1081 3 discriminator 78
 13490 02d6 7B68     		ldr	r3, [r7, #4]
 13491 02d8 594A     		ldr	r2, .L682+180
 13492 02da 9342     		cmp	r3, r2
 13493 02dc 00F03981 		beq	.L681
 13494              		.loc 1 1081 3 discriminator 79
 13495 02e0 7B68     		ldr	r3, [r7, #4]
 13496 02e2 584A     		ldr	r2, .L682+184
 13497 02e4 9342     		cmp	r3, r2
 13498 02e6 00F03481 		beq	.L681
 13499              		.loc 1 1081 3 discriminator 80
 13500 02ea 7B68     		ldr	r3, [r7, #4]
 13501 02ec 564A     		ldr	r2, .L682+188
 13502 02ee 9342     		cmp	r3, r2
 13503 02f0 00F02F81 		beq	.L681
 13504              		.loc 1 1081 3 discriminator 81
 13505 02f4 7B68     		ldr	r3, [r7, #4]
 13506 02f6 554A     		ldr	r2, .L682+192
 13507 02f8 9342     		cmp	r3, r2
ARM GAS  /tmp/ccRTEIeG.s 			page 272


 13508 02fa 00F02A81 		beq	.L681
 13509              		.loc 1 1081 3 discriminator 82
 13510 02fe 7B68     		ldr	r3, [r7, #4]
 13511 0300 534A     		ldr	r2, .L682+196
 13512 0302 9342     		cmp	r3, r2
 13513 0304 00F02581 		beq	.L681
 13514              		.loc 1 1081 3 discriminator 83
 13515 0308 7B68     		ldr	r3, [r7, #4]
 13516 030a B3F1405F 		cmp	r3, #805306368
 13517 030e 00F02081 		beq	.L681
 13518              		.loc 1 1081 3 discriminator 84
 13519 0312 7B68     		ldr	r3, [r7, #4]
 13520 0314 4F4A     		ldr	r2, .L682+200
 13521 0316 9342     		cmp	r3, r2
 13522 0318 00F01B81 		beq	.L681
 13523              		.loc 1 1081 3 discriminator 85
 13524 031c 7B68     		ldr	r3, [r7, #4]
 13525 031e 4E4A     		ldr	r2, .L682+204
 13526 0320 9342     		cmp	r3, r2
 13527 0322 00F01681 		beq	.L681
 13528              		.loc 1 1081 3 discriminator 86
 13529 0326 7B68     		ldr	r3, [r7, #4]
 13530 0328 4C4A     		ldr	r2, .L682+208
 13531 032a 9342     		cmp	r3, r2
 13532 032c 00F01181 		beq	.L681
 13533              		.loc 1 1081 3 discriminator 87
 13534 0330 7B68     		ldr	r3, [r7, #4]
 13535 0332 4B4A     		ldr	r2, .L682+212
 13536 0334 9342     		cmp	r3, r2
 13537 0336 00F00C81 		beq	.L681
 13538              		.loc 1 1081 3 discriminator 88
 13539 033a 7B68     		ldr	r3, [r7, #4]
 13540 033c 494A     		ldr	r2, .L682+216
 13541 033e 9342     		cmp	r3, r2
 13542 0340 00F00781 		beq	.L681
 13543              		.loc 1 1081 3 discriminator 89
 13544 0344 7B68     		ldr	r3, [r7, #4]
 13545 0346 484A     		ldr	r2, .L682+220
 13546 0348 9342     		cmp	r3, r2
 13547 034a 00F00281 		beq	.L681
 13548              		.loc 1 1081 3 discriminator 90
 13549 034e 7B68     		ldr	r3, [r7, #4]
 13550 0350 464A     		ldr	r2, .L682+224
 13551 0352 9342     		cmp	r3, r2
 13552 0354 00F0FD80 		beq	.L681
 13553              		.loc 1 1081 3 discriminator 91
 13554 0358 7B68     		ldr	r3, [r7, #4]
 13555 035a 454A     		ldr	r2, .L682+228
 13556 035c 9342     		cmp	r3, r2
 13557 035e 00F0F880 		beq	.L681
 13558              		.loc 1 1081 3 discriminator 92
 13559 0362 7B68     		ldr	r3, [r7, #4]
 13560 0364 434A     		ldr	r2, .L682+232
 13561 0366 9342     		cmp	r3, r2
 13562 0368 00F0F380 		beq	.L681
 13563              		.loc 1 1081 3 discriminator 93
 13564 036c 7B68     		ldr	r3, [r7, #4]
ARM GAS  /tmp/ccRTEIeG.s 			page 273


 13565 036e B3F1804F 		cmp	r3, #1073741824
 13566 0372 00F0EE80 		beq	.L681
 13567              		.loc 1 1081 3 discriminator 94
 13568 0376 7B68     		ldr	r3, [r7, #4]
 13569 0378 3F4A     		ldr	r2, .L682+236
 13570 037a 9342     		cmp	r3, r2
 13571 037c 00F0E980 		beq	.L681
 13572              		.loc 1 1081 3 discriminator 95
 13573 0380 7B68     		ldr	r3, [r7, #4]
 13574 0382 3E4A     		ldr	r2, .L682+240
 13575 0384 9342     		cmp	r3, r2
 13576 0386 00F0E480 		beq	.L681
 13577 038a 79E0     		b	.L683
 13578              	.L684:
 13579              		.align	2
 13580              	.L682:
 13581 038c 01000010 		.word	268435457
 13582 0390 02000010 		.word	268435458
 13583 0394 03000010 		.word	268435459
 13584 0398 04000010 		.word	268435460
 13585 039c 05000010 		.word	268435461
 13586 03a0 06000010 		.word	268435462
 13587 03a4 07000010 		.word	268435463
 13588 03a8 08000010 		.word	268435464
 13589 03ac 09000010 		.word	268435465
 13590 03b0 0A000010 		.word	268435466
 13591 03b4 0B000010 		.word	268435467
 13592 03b8 0C000010 		.word	268435468
 13593 03bc 0D000010 		.word	268435469
 13594 03c0 0E000010 		.word	268435470
 13595 03c4 0F000010 		.word	268435471
 13596 03c8 10000010 		.word	268435472
 13597 03cc 11000010 		.word	268435473
 13598 03d0 12000010 		.word	268435474
 13599 03d4 13000010 		.word	268435475
 13600 03d8 14000010 		.word	268435476
 13601 03dc 15000010 		.word	268435477
 13602 03e0 16000010 		.word	268435478
 13603 03e4 17000010 		.word	268435479
 13604 03e8 18000010 		.word	268435480
 13605 03ec 19000010 		.word	268435481
 13606 03f0 1A000010 		.word	268435482
 13607 03f4 1C000010 		.word	268435484
 13608 03f8 1D000010 		.word	268435485
 13609 03fc 1E000010 		.word	268435486
 13610 0400 01000020 		.word	536870913
 13611 0404 03000020 		.word	536870915
 13612 0408 04000020 		.word	536870916
 13613 040c 05000020 		.word	536870917
 13614 0410 0C000020 		.word	536870924
 13615 0414 0D000020 		.word	536870925
 13616 0418 0E000020 		.word	536870926
 13617 041c 0F000020 		.word	536870927
 13618 0420 10000020 		.word	536870928
 13619 0424 11000020 		.word	536870929
 13620 0428 12000020 		.word	536870930
 13621 042c 13000020 		.word	536870931
ARM GAS  /tmp/ccRTEIeG.s 			page 274


 13622 0430 14000020 		.word	536870932
 13623 0434 16000020 		.word	536870934
 13624 0438 17000020 		.word	536870935
 13625 043c 18000020 		.word	536870936
 13626 0440 19000020 		.word	536870937
 13627 0444 1A000020 		.word	536870938
 13628 0448 1C000020 		.word	536870940
 13629 044c 1D000020 		.word	536870941
 13630 0450 1E000020 		.word	536870942
 13631 0454 01000030 		.word	805306369
 13632 0458 02000030 		.word	805306370
 13633 045c 03000030 		.word	805306371
 13634 0460 04000030 		.word	805306372
 13635 0464 05000030 		.word	805306373
 13636 0468 06000030 		.word	805306374
 13637 046c 07000030 		.word	805306375
 13638 0470 08000030 		.word	805306376
 13639 0474 0A000030 		.word	805306378
 13640 0478 01000040 		.word	1073741825
 13641 047c 02000040 		.word	1073741826
 13642              	.L683:
 13643              		.loc 1 1081 3 discriminator 96
 13644 0480 7B68     		ldr	r3, [r7, #4]
 13645 0482 3C4A     		ldr	r2, .L685
 13646 0484 9342     		cmp	r3, r2
 13647 0486 64D0     		beq	.L681
 13648              		.loc 1 1081 3 discriminator 97
 13649 0488 7B68     		ldr	r3, [r7, #4]
 13650 048a 3B4A     		ldr	r2, .L685+4
 13651 048c 9342     		cmp	r3, r2
 13652 048e 60D0     		beq	.L681
 13653              		.loc 1 1081 3 discriminator 98
 13654 0490 7B68     		ldr	r3, [r7, #4]
 13655 0492 3A4A     		ldr	r2, .L685+8
 13656 0494 9342     		cmp	r3, r2
 13657 0496 5CD0     		beq	.L681
 13658              		.loc 1 1081 3 discriminator 99
 13659 0498 7B68     		ldr	r3, [r7, #4]
 13660 049a 394A     		ldr	r2, .L685+12
 13661 049c 9342     		cmp	r3, r2
 13662 049e 58D0     		beq	.L681
 13663              		.loc 1 1081 3 discriminator 100
 13664 04a0 7B68     		ldr	r3, [r7, #4]
 13665 04a2 384A     		ldr	r2, .L685+16
 13666 04a4 9342     		cmp	r3, r2
 13667 04a6 54D0     		beq	.L681
 13668              		.loc 1 1081 3 discriminator 101
 13669 04a8 7B68     		ldr	r3, [r7, #4]
 13670 04aa 374A     		ldr	r2, .L685+20
 13671 04ac 9342     		cmp	r3, r2
 13672 04ae 50D0     		beq	.L681
 13673              		.loc 1 1081 3 discriminator 102
 13674 04b0 7B68     		ldr	r3, [r7, #4]
 13675 04b2 364A     		ldr	r2, .L685+24
 13676 04b4 9342     		cmp	r3, r2
 13677 04b6 4CD0     		beq	.L681
 13678              		.loc 1 1081 3 discriminator 103
ARM GAS  /tmp/ccRTEIeG.s 			page 275


 13679 04b8 7B68     		ldr	r3, [r7, #4]
 13680 04ba 354A     		ldr	r2, .L685+28
 13681 04bc 9342     		cmp	r3, r2
 13682 04be 48D0     		beq	.L681
 13683              		.loc 1 1081 3 discriminator 104
 13684 04c0 7B68     		ldr	r3, [r7, #4]
 13685 04c2 344A     		ldr	r2, .L685+32
 13686 04c4 9342     		cmp	r3, r2
 13687 04c6 44D0     		beq	.L681
 13688              		.loc 1 1081 3 discriminator 105
 13689 04c8 7B68     		ldr	r3, [r7, #4]
 13690 04ca 334A     		ldr	r2, .L685+36
 13691 04cc 9342     		cmp	r3, r2
 13692 04ce 40D0     		beq	.L681
 13693              		.loc 1 1081 3 discriminator 106
 13694 04d0 7B68     		ldr	r3, [r7, #4]
 13695 04d2 324A     		ldr	r2, .L685+40
 13696 04d4 9342     		cmp	r3, r2
 13697 04d6 3CD0     		beq	.L681
 13698              		.loc 1 1081 3 discriminator 107
 13699 04d8 7B68     		ldr	r3, [r7, #4]
 13700 04da 314A     		ldr	r2, .L685+44
 13701 04dc 9342     		cmp	r3, r2
 13702 04de 38D0     		beq	.L681
 13703              		.loc 1 1081 3 discriminator 108
 13704 04e0 7B68     		ldr	r3, [r7, #4]
 13705 04e2 304A     		ldr	r2, .L685+48
 13706 04e4 9342     		cmp	r3, r2
 13707 04e6 34D0     		beq	.L681
 13708              		.loc 1 1081 3 discriminator 109
 13709 04e8 7B68     		ldr	r3, [r7, #4]
 13710 04ea 2F4A     		ldr	r2, .L685+52
 13711 04ec 9342     		cmp	r3, r2
 13712 04ee 30D0     		beq	.L681
 13713              		.loc 1 1081 3 discriminator 110
 13714 04f0 7B68     		ldr	r3, [r7, #4]
 13715 04f2 2E4A     		ldr	r2, .L685+56
 13716 04f4 9342     		cmp	r3, r2
 13717 04f6 2CD0     		beq	.L681
 13718              		.loc 1 1081 3 discriminator 111
 13719 04f8 7B68     		ldr	r3, [r7, #4]
 13720 04fa 2D4A     		ldr	r2, .L685+60
 13721 04fc 9342     		cmp	r3, r2
 13722 04fe 28D0     		beq	.L681
 13723              		.loc 1 1081 3 discriminator 112
 13724 0500 7B68     		ldr	r3, [r7, #4]
 13725 0502 2C4A     		ldr	r2, .L685+64
 13726 0504 9342     		cmp	r3, r2
 13727 0506 24D0     		beq	.L681
 13728              		.loc 1 1081 3 discriminator 113
 13729 0508 7B68     		ldr	r3, [r7, #4]
 13730 050a 2B4A     		ldr	r2, .L685+68
 13731 050c 9342     		cmp	r3, r2
 13732 050e 20D0     		beq	.L681
 13733              		.loc 1 1081 3 discriminator 114
 13734 0510 7B68     		ldr	r3, [r7, #4]
 13735 0512 2A4A     		ldr	r2, .L685+72
ARM GAS  /tmp/ccRTEIeG.s 			page 276


 13736 0514 9342     		cmp	r3, r2
 13737 0516 1CD0     		beq	.L681
 13738              		.loc 1 1081 3 discriminator 115
 13739 0518 7B68     		ldr	r3, [r7, #4]
 13740 051a 294A     		ldr	r2, .L685+76
 13741 051c 9342     		cmp	r3, r2
 13742 051e 18D0     		beq	.L681
 13743              		.loc 1 1081 3 discriminator 116
 13744 0520 7B68     		ldr	r3, [r7, #4]
 13745 0522 284A     		ldr	r2, .L685+80
 13746 0524 9342     		cmp	r3, r2
 13747 0526 14D0     		beq	.L681
 13748              		.loc 1 1081 3 discriminator 117
 13749 0528 7B68     		ldr	r3, [r7, #4]
 13750 052a 274A     		ldr	r2, .L685+84
 13751 052c 9342     		cmp	r3, r2
 13752 052e 10D0     		beq	.L681
 13753              		.loc 1 1081 3 discriminator 118
 13754 0530 7B68     		ldr	r3, [r7, #4]
 13755 0532 264A     		ldr	r2, .L685+88
 13756 0534 9342     		cmp	r3, r2
 13757 0536 0CD0     		beq	.L681
 13758              		.loc 1 1081 3 discriminator 119
 13759 0538 7B68     		ldr	r3, [r7, #4]
 13760 053a 254A     		ldr	r2, .L685+92
 13761 053c 9342     		cmp	r3, r2
 13762 053e 08D0     		beq	.L681
 13763              		.loc 1 1081 3 discriminator 120
 13764 0540 7B68     		ldr	r3, [r7, #4]
 13765 0542 244A     		ldr	r2, .L685+96
 13766 0544 9342     		cmp	r3, r2
 13767 0546 04D0     		beq	.L681
 13768              		.loc 1 1081 3 discriminator 121
 13769 0548 40F23941 		movw	r1, #1081
 13770 054c 2248     		ldr	r0, .L685+100
 13771 054e FFF7FEFF 		bl	assert_failed
 13772              	.L681:
1082:STM32Cube_FW_N6/Drivers/STM32N6xx_HAL_Driver/Src/stm32n6xx_hal_rif.c **** 
1083:STM32Cube_FW_N6/Drivers/STM32N6xx_HAL_Driver/Src/stm32n6xx_hal_rif.c ****   p_interrupt_reg = &(IAC->ICR[PeriphId >> RIF_PERIPH_REG_SHIFT]);
 13773              		.loc 1 1083 41 is_stmt 1
 13774 0552 7B68     		ldr	r3, [r7, #4]
 13775 0554 1B0F     		lsrs	r3, r3, #28
 13776              		.loc 1 1083 21
 13777 0556 9A00     		lsls	r2, r3, #2
 13778              		.loc 1 1083 19
 13779 0558 204B     		ldr	r3, .L685+104
 13780 055a 1344     		add	r3, r3, r2
 13781 055c FB60     		str	r3, [r7, #12]
1084:STM32Cube_FW_N6/Drivers/STM32N6xx_HAL_Driver/Src/stm32n6xx_hal_rif.c ****   *p_interrupt_reg = (1UL << (PeriphId & RIF_PERIPH_BIT_POSITION));
 13782              		.loc 1 1084 40
 13783 055e 7B68     		ldr	r3, [r7, #4]
 13784 0560 03F01F03 		and	r3, r3, #31
 13785              		.loc 1 1084 27
 13786 0564 0122     		movs	r2, #1
 13787 0566 9A40     		lsls	r2, r2, r3
 13788              		.loc 1 1084 20
 13789 0568 FB68     		ldr	r3, [r7, #12]
ARM GAS  /tmp/ccRTEIeG.s 			page 277


 13790 056a 1A60     		str	r2, [r3]
1085:STM32Cube_FW_N6/Drivers/STM32N6xx_HAL_Driver/Src/stm32n6xx_hal_rif.c **** }
 13791              		.loc 1 1085 1
 13792 056c 00BF     		nop
 13793 056e 1037     		adds	r7, r7, #16
 13794              		.cfi_def_cfa_offset 8
 13795 0570 BD46     		mov	sp, r7
 13796              		.cfi_def_cfa_register 13
 13797              		@ sp needed
 13798 0572 80BD     		pop	{r7, pc}
 13799              	.L686:
 13800              		.align	2
 13801              	.L685:
 13802 0574 03000040 		.word	1073741827
 13803 0578 05000040 		.word	1073741829
 13804 057c 06000040 		.word	1073741830
 13805 0580 07000040 		.word	1073741831
 13806 0584 08000040 		.word	1073741832
 13807 0588 09000040 		.word	1073741833
 13808 058c 0A000040 		.word	1073741834
 13809 0590 0B000040 		.word	1073741835
 13810 0594 0C000040 		.word	1073741836
 13811 0598 0D000040 		.word	1073741837
 13812 059c 0E000040 		.word	1073741838
 13813 05a0 0F000040 		.word	1073741839
 13814 05a4 10000040 		.word	1073741840
 13815 05a8 11000040 		.word	1073741841
 13816 05ac 12000040 		.word	1073741842
 13817 05b0 13000040 		.word	1073741843
 13818 05b4 15000040 		.word	1073741845
 13819 05b8 16000040 		.word	1073741846
 13820 05bc 17000040 		.word	1073741847
 13821 05c0 18000040 		.word	1073741848
 13822 05c4 19000040 		.word	1073741849
 13823 05c8 1B000040 		.word	1073741851
 13824 05cc 1C000040 		.word	1073741852
 13825 05d0 1D000040 		.word	1073741853
 13826 05d4 1E000040 		.word	1073741854
 13827 05d8 00000000 		.word	.LC0
 13828 05dc 00510254 		.word	1409437952
 13829              		.cfi_endproc
 13830              	.LFE859:
 13832              		.section	.text.HAL_RIF_IRQHandler,"ax",%progbits
 13833              		.align	1
 13834              		.global	HAL_RIF_IRQHandler
 13835              		.syntax unified
 13836              		.thumb
 13837              		.thumb_func
 13839              	HAL_RIF_IRQHandler:
 13840              	.LFB860:
1086:STM32Cube_FW_N6/Drivers/STM32N6xx_HAL_Driver/Src/stm32n6xx_hal_rif.c **** 
1087:STM32Cube_FW_N6/Drivers/STM32N6xx_HAL_Driver/Src/stm32n6xx_hal_rif.c **** /**
1088:STM32Cube_FW_N6/Drivers/STM32N6xx_HAL_Driver/Src/stm32n6xx_hal_rif.c ****   * @brief  Parse all pending flags and call callback when necessary.
1089:STM32Cube_FW_N6/Drivers/STM32N6xx_HAL_Driver/Src/stm32n6xx_hal_rif.c ****   * @note   This API is protected by the Trusted Domain compilation directive.
1090:STM32Cube_FW_N6/Drivers/STM32N6xx_HAL_Driver/Src/stm32n6xx_hal_rif.c ****   * @retval None
1091:STM32Cube_FW_N6/Drivers/STM32N6xx_HAL_Driver/Src/stm32n6xx_hal_rif.c ****   */
1092:STM32Cube_FW_N6/Drivers/STM32N6xx_HAL_Driver/Src/stm32n6xx_hal_rif.c **** void HAL_RIF_IRQHandler(void)
ARM GAS  /tmp/ccRTEIeG.s 			page 278


1093:STM32Cube_FW_N6/Drivers/STM32N6xx_HAL_Driver/Src/stm32n6xx_hal_rif.c **** {
 13841              		.loc 1 1093 1
 13842              		.cfi_startproc
 13843              		@ args = 0, pretend = 0, frame = 16
 13844              		@ frame_needed = 1, uses_anonymous_args = 0
 13845 0000 80B5     		push	{r7, lr}
 13846              		.cfi_def_cfa_offset 8
 13847              		.cfi_offset 7, -8
 13848              		.cfi_offset 14, -4
 13849 0002 84B0     		sub	sp, sp, #16
 13850              		.cfi_def_cfa_offset 24
 13851 0004 00AF     		add	r7, sp, #0
 13852              		.cfi_def_cfa_register 7
1094:STM32Cube_FW_N6/Drivers/STM32N6xx_HAL_Driver/Src/stm32n6xx_hal_rif.c ****   uint32_t reg_index;
1095:STM32Cube_FW_N6/Drivers/STM32N6xx_HAL_Driver/Src/stm32n6xx_hal_rif.c ****   uint32_t flag_mask;
1096:STM32Cube_FW_N6/Drivers/STM32N6xx_HAL_Driver/Src/stm32n6xx_hal_rif.c ****   uint32_t position;
1097:STM32Cube_FW_N6/Drivers/STM32N6xx_HAL_Driver/Src/stm32n6xx_hal_rif.c ****   uint32_t periph_id;
1098:STM32Cube_FW_N6/Drivers/STM32N6xx_HAL_Driver/Src/stm32n6xx_hal_rif.c **** 
1099:STM32Cube_FW_N6/Drivers/STM32N6xx_HAL_Driver/Src/stm32n6xx_hal_rif.c ****   for (reg_index = 0 ; reg_index < (RIF_PERIPH_IAC_REG_MAX + 1U) ; reg_index++)
 13853              		.loc 1 1099 18
 13854 0006 0023     		movs	r3, #0
 13855 0008 FB60     		str	r3, [r7, #12]
 13856              		.loc 1 1099 3
 13857 000a 27E0     		b	.L688
 13858              	.L692:
1100:STM32Cube_FW_N6/Drivers/STM32N6xx_HAL_Driver/Src/stm32n6xx_hal_rif.c ****   {
1101:STM32Cube_FW_N6/Drivers/STM32N6xx_HAL_Driver/Src/stm32n6xx_hal_rif.c ****     flag_mask = IAC->ISR[reg_index];
 13859              		.loc 1 1101 20
 13860 000c 174A     		ldr	r2, .L693
 13861              		.loc 1 1101 15
 13862 000e FB68     		ldr	r3, [r7, #12]
 13863 0010 2033     		adds	r3, r3, #32
 13864 0012 52F82330 		ldr	r3, [r2, r3, lsl #2]
 13865 0016 7B60     		str	r3, [r7, #4]
1102:STM32Cube_FW_N6/Drivers/STM32N6xx_HAL_Driver/Src/stm32n6xx_hal_rif.c **** 
1103:STM32Cube_FW_N6/Drivers/STM32N6xx_HAL_Driver/Src/stm32n6xx_hal_rif.c ****     position = 0U;
 13866              		.loc 1 1103 14
 13867 0018 0023     		movs	r3, #0
 13868 001a BB60     		str	r3, [r7, #8]
1104:STM32Cube_FW_N6/Drivers/STM32N6xx_HAL_Driver/Src/stm32n6xx_hal_rif.c ****     while ((flag_mask >> position) != 0U)
 13869              		.loc 1 1104 11
 13870 001c 15E0     		b	.L689
 13871              	.L691:
1105:STM32Cube_FW_N6/Drivers/STM32N6xx_HAL_Driver/Src/stm32n6xx_hal_rif.c ****     {
1106:STM32Cube_FW_N6/Drivers/STM32N6xx_HAL_Driver/Src/stm32n6xx_hal_rif.c ****       if ((flag_mask & (1UL << position)) != 0U)
 13872              		.loc 1 1106 43
 13873 001e 7A68     		ldr	r2, [r7, #4]
 13874 0020 BB68     		ldr	r3, [r7, #8]
 13875 0022 22FA03F3 		lsr	r3, r2, r3
 13876 0026 03F00103 		and	r3, r3, #1
 13877              		.loc 1 1106 10
 13878 002a 002B     		cmp	r3, #0
 13879 002c 0AD0     		beq	.L690
1107:STM32Cube_FW_N6/Drivers/STM32N6xx_HAL_Driver/Src/stm32n6xx_hal_rif.c ****       {
1108:STM32Cube_FW_N6/Drivers/STM32N6xx_HAL_Driver/Src/stm32n6xx_hal_rif.c ****         periph_id = ((reg_index << RIF_PERIPH_REG_SHIFT) | position);
 13880              		.loc 1 1108 33
 13881 002e FB68     		ldr	r3, [r7, #12]
ARM GAS  /tmp/ccRTEIeG.s 			page 279


 13882 0030 1B07     		lsls	r3, r3, #28
 13883              		.loc 1 1108 19
 13884 0032 BA68     		ldr	r2, [r7, #8]
 13885 0034 1343     		orrs	r3, r3, r2
 13886 0036 3B60     		str	r3, [r7]
1109:STM32Cube_FW_N6/Drivers/STM32N6xx_HAL_Driver/Src/stm32n6xx_hal_rif.c ****         HAL_RIF_IAC_ClearFlag(periph_id);
 13887              		.loc 1 1109 9
 13888 0038 3868     		ldr	r0, [r7]
 13889 003a FFF7FEFF 		bl	HAL_RIF_IAC_ClearFlag
1110:STM32Cube_FW_N6/Drivers/STM32N6xx_HAL_Driver/Src/stm32n6xx_hal_rif.c ****         HAL_RIF_ILA_Callback(periph_id);
 13890              		.loc 1 1110 9
 13891 003e 3868     		ldr	r0, [r7]
 13892 0040 FFF7FEFF 		bl	HAL_RIF_ILA_Callback
 13893              	.L690:
1111:STM32Cube_FW_N6/Drivers/STM32N6xx_HAL_Driver/Src/stm32n6xx_hal_rif.c ****       }
1112:STM32Cube_FW_N6/Drivers/STM32N6xx_HAL_Driver/Src/stm32n6xx_hal_rif.c ****       position++;
 13894              		.loc 1 1112 15
 13895 0044 BB68     		ldr	r3, [r7, #8]
 13896 0046 0133     		adds	r3, r3, #1
 13897 0048 BB60     		str	r3, [r7, #8]
 13898              	.L689:
1104:STM32Cube_FW_N6/Drivers/STM32N6xx_HAL_Driver/Src/stm32n6xx_hal_rif.c ****     {
 13899              		.loc 1 1104 23
 13900 004a 7A68     		ldr	r2, [r7, #4]
 13901 004c BB68     		ldr	r3, [r7, #8]
 13902 004e 22FA03F3 		lsr	r3, r2, r3
1104:STM32Cube_FW_N6/Drivers/STM32N6xx_HAL_Driver/Src/stm32n6xx_hal_rif.c ****     {
 13903              		.loc 1 1104 36
 13904 0052 002B     		cmp	r3, #0
 13905 0054 E3D1     		bne	.L691
1099:STM32Cube_FW_N6/Drivers/STM32N6xx_HAL_Driver/Src/stm32n6xx_hal_rif.c ****   {
 13906              		.loc 1 1099 77 discriminator 2
 13907 0056 FB68     		ldr	r3, [r7, #12]
 13908 0058 0133     		adds	r3, r3, #1
 13909 005a FB60     		str	r3, [r7, #12]
 13910              	.L688:
1099:STM32Cube_FW_N6/Drivers/STM32N6xx_HAL_Driver/Src/stm32n6xx_hal_rif.c ****   {
 13911              		.loc 1 1099 34 discriminator 1
 13912 005c FB68     		ldr	r3, [r7, #12]
 13913 005e 042B     		cmp	r3, #4
 13914 0060 D4D9     		bls	.L692
1113:STM32Cube_FW_N6/Drivers/STM32N6xx_HAL_Driver/Src/stm32n6xx_hal_rif.c ****     }
1114:STM32Cube_FW_N6/Drivers/STM32N6xx_HAL_Driver/Src/stm32n6xx_hal_rif.c ****   }
1115:STM32Cube_FW_N6/Drivers/STM32N6xx_HAL_Driver/Src/stm32n6xx_hal_rif.c **** }
 13915              		.loc 1 1115 1
 13916 0062 00BF     		nop
 13917 0064 00BF     		nop
 13918 0066 1037     		adds	r7, r7, #16
 13919              		.cfi_def_cfa_offset 8
 13920 0068 BD46     		mov	sp, r7
 13921              		.cfi_def_cfa_register 13
 13922              		@ sp needed
 13923 006a 80BD     		pop	{r7, pc}
 13924              	.L694:
 13925              		.align	2
 13926              	.L693:
 13927 006c 00500254 		.word	1409437696
ARM GAS  /tmp/ccRTEIeG.s 			page 280


 13928              		.cfi_endproc
 13929              	.LFE860:
 13931              		.section	.text.HAL_RIF_ILA_Callback,"ax",%progbits
 13932              		.align	1
 13933              		.weak	HAL_RIF_ILA_Callback
 13934              		.syntax unified
 13935              		.thumb
 13936              		.thumb_func
 13938              	HAL_RIF_ILA_Callback:
 13939              	.LFB861:
1116:STM32Cube_FW_N6/Drivers/STM32N6xx_HAL_Driver/Src/stm32n6xx_hal_rif.c **** 
1117:STM32Cube_FW_N6/Drivers/STM32N6xx_HAL_Driver/Src/stm32n6xx_hal_rif.c **** /**
1118:STM32Cube_FW_N6/Drivers/STM32N6xx_HAL_Driver/Src/stm32n6xx_hal_rif.c ****   * @brief  RIF illegal access callback.
1119:STM32Cube_FW_N6/Drivers/STM32N6xx_HAL_Driver/Src/stm32n6xx_hal_rif.c ****   * @note   This API is protected by the Trusted Domain compilation directive.
1120:STM32Cube_FW_N6/Drivers/STM32N6xx_HAL_Driver/Src/stm32n6xx_hal_rif.c ****   * @note   This API is protected by the TrustZone Enabled compilation directive.
1121:STM32Cube_FW_N6/Drivers/STM32N6xx_HAL_Driver/Src/stm32n6xx_hal_rif.c ****   * @param  PeriphId specifies the index of the bus slave.
1122:STM32Cube_FW_N6/Drivers/STM32N6xx_HAL_Driver/Src/stm32n6xx_hal_rif.c ****   *         This parameter can be one of @ref RIF_PERIPHERAL_INDEX
1123:STM32Cube_FW_N6/Drivers/STM32N6xx_HAL_Driver/Src/stm32n6xx_hal_rif.c ****   *         bits[31:28] define the register index a peripheral belongs to, value from 0 to 5
1124:STM32Cube_FW_N6/Drivers/STM32N6xx_HAL_Driver/Src/stm32n6xx_hal_rif.c ****   *         bits[4:0]   define the bit position within the register, value from 0 to 31
1125:STM32Cube_FW_N6/Drivers/STM32N6xx_HAL_Driver/Src/stm32n6xx_hal_rif.c ****   * @retval None
1126:STM32Cube_FW_N6/Drivers/STM32N6xx_HAL_Driver/Src/stm32n6xx_hal_rif.c ****   */
1127:STM32Cube_FW_N6/Drivers/STM32N6xx_HAL_Driver/Src/stm32n6xx_hal_rif.c **** __weak void HAL_RIF_ILA_Callback(uint32_t PeriphId)
1128:STM32Cube_FW_N6/Drivers/STM32N6xx_HAL_Driver/Src/stm32n6xx_hal_rif.c **** {
 13940              		.loc 1 1128 1
 13941              		.cfi_startproc
 13942              		@ args = 0, pretend = 0, frame = 8
 13943              		@ frame_needed = 1, uses_anonymous_args = 0
 13944              		@ link register save eliminated.
 13945 0000 80B4     		push	{r7}
 13946              		.cfi_def_cfa_offset 4
 13947              		.cfi_offset 7, -4
 13948 0002 83B0     		sub	sp, sp, #12
 13949              		.cfi_def_cfa_offset 16
 13950 0004 00AF     		add	r7, sp, #0
 13951              		.cfi_def_cfa_register 7
 13952 0006 7860     		str	r0, [r7, #4]
1129:STM32Cube_FW_N6/Drivers/STM32N6xx_HAL_Driver/Src/stm32n6xx_hal_rif.c ****   /* Prevent unused argument(s) compilation warning */
1130:STM32Cube_FW_N6/Drivers/STM32N6xx_HAL_Driver/Src/stm32n6xx_hal_rif.c ****   UNUSED(PeriphId);
1131:STM32Cube_FW_N6/Drivers/STM32N6xx_HAL_Driver/Src/stm32n6xx_hal_rif.c **** 
1132:STM32Cube_FW_N6/Drivers/STM32N6xx_HAL_Driver/Src/stm32n6xx_hal_rif.c ****   /* NOTE: This function should not be modified, when the callback is needed,
1133:STM32Cube_FW_N6/Drivers/STM32N6xx_HAL_Driver/Src/stm32n6xx_hal_rif.c ****                  the HAL_RIF_ILA_Callback could be implemented in the user file
1134:STM32Cube_FW_N6/Drivers/STM32N6xx_HAL_Driver/Src/stm32n6xx_hal_rif.c ****   */
1135:STM32Cube_FW_N6/Drivers/STM32N6xx_HAL_Driver/Src/stm32n6xx_hal_rif.c **** }
 13953              		.loc 1 1135 1
 13954 0008 00BF     		nop
 13955 000a 0C37     		adds	r7, r7, #12
 13956              		.cfi_def_cfa_offset 4
 13957 000c BD46     		mov	sp, r7
 13958              		.cfi_def_cfa_register 13
 13959              		@ sp needed
 13960 000e 5DF8047B 		ldr	r7, [sp], #4
 13961              		.cfi_restore 7
 13962              		.cfi_def_cfa_offset 0
 13963 0012 7047     		bx	lr
 13964              		.cfi_endproc
 13965              	.LFE861:
 13967              		.text
ARM GAS  /tmp/ccRTEIeG.s 			page 281


 13968              	.Letext0:
 13969              		.file 3 "/home/tanjiajun2002/renesas/rzv/e2studio_v2025-01_fsp_v3.1.0/toolchains/gcc_arm/arm-gnu-t
 13970              		.file 4 "/home/tanjiajun2002/renesas/rzv/e2studio_v2025-01_fsp_v3.1.0/toolchains/gcc_arm/arm-gnu-t
 13971              		.file 5 "STM32Cube_FW_N6/Drivers/CMSIS/Device/ST/STM32N6xx/Include/stm32n657xx.h"
 13972              		.file 6 "STM32Cube_FW_N6/Drivers/STM32N6xx_HAL_Driver/Inc/stm32n6xx_hal_rif.h"
 13973              		.file 7 "Inc/stm32n6xx_hal_conf.h"
ARM GAS  /tmp/ccRTEIeG.s 			page 282


DEFINED SYMBOLS
                            *ABS*:00000000 stm32n6xx_hal_rif.c
     /tmp/ccRTEIeG.s:26     .text.HAL_RIF_RIMC_Lock:00000000 $t
     /tmp/ccRTEIeG.s:32     .text.HAL_RIF_RIMC_Lock:00000000 HAL_RIF_RIMC_Lock
     /tmp/ccRTEIeG.s:63     .text.HAL_RIF_RIMC_Lock:00000020 $d
     /tmp/ccRTEIeG.s:68     .text.HAL_RIF_RIMC_GetLock:00000000 $t
     /tmp/ccRTEIeG.s:74     .text.HAL_RIF_RIMC_GetLock:00000000 HAL_RIF_RIMC_GetLock
     /tmp/ccRTEIeG.s:110    .text.HAL_RIF_RIMC_GetLock:00000020 $d
     /tmp/ccRTEIeG.s:115    .rodata:00000000 $d
     /tmp/ccRTEIeG.s:120    .text.HAL_RIF_RIMC_SetDebugAccessPortCID:00000000 $t
     /tmp/ccRTEIeG.s:126    .text.HAL_RIF_RIMC_SetDebugAccessPortCID:00000000 HAL_RIF_RIMC_SetDebugAccessPortCID
     /tmp/ccRTEIeG.s:249    .text.HAL_RIF_RIMC_SetDebugAccessPortCID:00000090 $d
     /tmp/ccRTEIeG.s:255    .text.HAL_RIF_RIMC_GetDebugAccessPortCID:00000000 $t
     /tmp/ccRTEIeG.s:261    .text.HAL_RIF_RIMC_GetDebugAccessPortCID:00000000 HAL_RIF_RIMC_GetDebugAccessPortCID
     /tmp/ccRTEIeG.s:304    .text.HAL_RIF_RIMC_GetDebugAccessPortCID:0000002c $d
     /tmp/ccRTEIeG.s:309    .text.HAL_RIF_RIMC_ConfigMasterAttributes:00000000 $t
     /tmp/ccRTEIeG.s:315    .text.HAL_RIF_RIMC_ConfigMasterAttributes:00000000 HAL_RIF_RIMC_ConfigMasterAttributes
     /tmp/ccRTEIeG.s:551    .text.HAL_RIF_RIMC_ConfigMasterAttributes:0000014c $d
     /tmp/ccRTEIeG.s:557    .text.HAL_RIF_RIMC_GetConfigMasterAttributes:00000000 $t
     /tmp/ccRTEIeG.s:563    .text.HAL_RIF_RIMC_GetConfigMasterAttributes:00000000 HAL_RIF_RIMC_GetConfigMasterAttributes
     /tmp/ccRTEIeG.s:683    .text.HAL_RIF_RIMC_GetConfigMasterAttributes:000000a8 $d
     /tmp/ccRTEIeG.s:689    .text.HAL_RIF_RISC_Lock:00000000 $t
     /tmp/ccRTEIeG.s:695    .text.HAL_RIF_RISC_Lock:00000000 HAL_RIF_RISC_Lock
     /tmp/ccRTEIeG.s:726    .text.HAL_RIF_RISC_Lock:0000001c $d
     /tmp/ccRTEIeG.s:731    .text.HAL_RIF_RISC_GetLock:00000000 $t
     /tmp/ccRTEIeG.s:737    .text.HAL_RIF_RISC_GetLock:00000000 HAL_RIF_RISC_GetLock
     /tmp/ccRTEIeG.s:773    .text.HAL_RIF_RISC_GetLock:00000020 $d
     /tmp/ccRTEIeG.s:778    .text.HAL_RIF_RISC_SetSlaveSecureAttributes:00000000 $t
     /tmp/ccRTEIeG.s:784    .text.HAL_RIF_RISC_SetSlaveSecureAttributes:00000000 HAL_RIF_RISC_SetSlaveSecureAttributes
     /tmp/ccRTEIeG.s:1250   .text.HAL_RIF_RISC_SetSlaveSecureAttributes:00000390 $d
     /tmp/ccRTEIeG.s:1314   .text.HAL_RIF_RISC_SetSlaveSecureAttributes:00000488 $t
     /tmp/ccRTEIeG.s:1589   .text.HAL_RIF_RISC_SetSlaveSecureAttributes:00000640 $d
     /tmp/ccRTEIeG.s:1627   .text.HAL_RIF_RISC_GetSlaveSecureAttributes:00000000 $t
     /tmp/ccRTEIeG.s:1633   .text.HAL_RIF_RISC_GetSlaveSecureAttributes:00000000 HAL_RIF_RISC_GetSlaveSecureAttributes
     /tmp/ccRTEIeG.s:2098   .text.HAL_RIF_RISC_GetSlaveSecureAttributes:0000038c $d
     /tmp/ccRTEIeG.s:2162   .text.HAL_RIF_RISC_GetSlaveSecureAttributes:00000484 $t
     /tmp/ccRTEIeG.s:2400   .text.HAL_RIF_RISC_GetSlaveSecureAttributes:00000600 $d
     /tmp/ccRTEIeG.s:2439   .text.HAL_RIF_RISC_SlaveConfigLock:00000000 $t
     /tmp/ccRTEIeG.s:2445   .text.HAL_RIF_RISC_SlaveConfigLock:00000000 HAL_RIF_RISC_SlaveConfigLock
     /tmp/ccRTEIeG.s:2910   .text.HAL_RIF_RISC_SlaveConfigLock:0000038c $d
     /tmp/ccRTEIeG.s:2974   .text.HAL_RIF_RISC_SlaveConfigLock:00000484 $t
     /tmp/ccRTEIeG.s:3175   .text.HAL_RIF_RISC_SlaveConfigLock:000005c4 $d
     /tmp/ccRTEIeG.s:3213   .text.HAL_RIF_RISC_GetSlaveConfigLock:00000000 $t
     /tmp/ccRTEIeG.s:3219   .text.HAL_RIF_RISC_GetSlaveConfigLock:00000000 HAL_RIF_RISC_GetSlaveConfigLock
     /tmp/ccRTEIeG.s:3684   .text.HAL_RIF_RISC_GetSlaveConfigLock:0000038c $d
     /tmp/ccRTEIeG.s:3748   .text.HAL_RIF_RISC_GetSlaveConfigLock:00000484 $t
     /tmp/ccRTEIeG.s:3955   .text.HAL_RIF_RISC_GetSlaveConfigLock:000005d0 $d
     /tmp/ccRTEIeG.s:3993   .text.HAL_RIF_RISAF_Lock:00000000 $t
     /tmp/ccRTEIeG.s:3999   .text.HAL_RIF_RISAF_Lock:00000000 HAL_RIF_RISAF_Lock
     /tmp/ccRTEIeG.s:4122   .text.HAL_RIF_RISAF_Lock:000000b0 $d
     /tmp/ccRTEIeG.s:4144   .text.HAL_RIF_RISAF_GetLock:00000000 $t
     /tmp/ccRTEIeG.s:4150   .text.HAL_RIF_RISAF_GetLock:00000000 HAL_RIF_RISAF_GetLock
     /tmp/ccRTEIeG.s:4188   .text.HAL_RIF_RISAF_ConfigBaseRegion:00000000 $t
     /tmp/ccRTEIeG.s:4194   .text.HAL_RIF_RISAF_ConfigBaseRegion:00000000 HAL_RIF_RISAF_ConfigBaseRegion
     /tmp/ccRTEIeG.s:4545   .text.HAL_RIF_RISAF_ConfigBaseRegion:0000021c $d
     /tmp/ccRTEIeG.s:4565   .text.HAL_RIF_RISAF_ConfigBaseRegion:00000264 $t
     /tmp/ccRTEIeG.s:4893   .text.HAL_RIF_RISAF_ConfigBaseRegion:00000494 $d
ARM GAS  /tmp/ccRTEIeG.s 			page 283


     /tmp/ccRTEIeG.s:4911   .text.HAL_RIF_RISAF_ConfigBaseRegion:000004d4 $t
     /tmp/ccRTEIeG.s:5237   .text.HAL_RIF_RISAF_ConfigBaseRegion:00000700 $d
     /tmp/ccRTEIeG.s:5257   .text.HAL_RIF_RISAF_ConfigBaseRegion:00000748 $t
     /tmp/ccRTEIeG.s:5411   .text.HAL_RIF_RISAF_ConfigBaseRegion:00000858 $d
     /tmp/ccRTEIeG.s:5422   .text.HAL_RIF_RISAF_ConfigBaseRegion:0000087c $t
     /tmp/ccRTEIeG.s:5700   .text.HAL_RIF_RISAF_ConfigBaseRegion:00000a38 $d
     /tmp/ccRTEIeG.s:5722   .text.HAL_RIF_RISAF_GetConfigBaseRegion:00000000 $t
     /tmp/ccRTEIeG.s:5728   .text.HAL_RIF_RISAF_GetConfigBaseRegion:00000000 HAL_RIF_RISAF_GetConfigBaseRegion
     /tmp/ccRTEIeG.s:6070   .text.HAL_RIF_RISAF_GetConfigBaseRegion:0000020c $d
     /tmp/ccRTEIeG.s:6090   .text.HAL_RIF_RISAF_GetConfigBaseRegion:00000254 $t
     /tmp/ccRTEIeG.s:6251   .text.HAL_RIF_RISAF_GetConfigBaseRegion:00000350 $d
     /tmp/ccRTEIeG.s:6260   .text.HAL_RIF_RISAF_ConfigSubRegionDelegation:00000000 $t
     /tmp/ccRTEIeG.s:6266   .text.HAL_RIF_RISAF_ConfigSubRegionDelegation:00000000 HAL_RIF_RISAF_ConfigSubRegionDelegation
     /tmp/ccRTEIeG.s:6618   .text.HAL_RIF_RISAF_ConfigSubRegionDelegation:0000021c $d
     /tmp/ccRTEIeG.s:6638   .text.HAL_RIF_RISAF_ConfigSubRegionDelegation:00000264 $t
     /tmp/ccRTEIeG.s:6905   .text.HAL_RIF_RISAF_ConfigSubRegionDelegation:000003f0 $d
     /tmp/ccRTEIeG.s:6914   .text.HAL_RIF_RISAF_GetConfigSubRegionDelegation:00000000 $t
     /tmp/ccRTEIeG.s:6920   .text.HAL_RIF_RISAF_GetConfigSubRegionDelegation:00000000 HAL_RIF_RISAF_GetConfigSubRegionDelegation
     /tmp/ccRTEIeG.s:7272   .text.HAL_RIF_RISAF_GetConfigSubRegionDelegation:0000021c $d
     /tmp/ccRTEIeG.s:7292   .text.HAL_RIF_RISAF_GetConfigSubRegionDelegation:00000264 $t
     /tmp/ccRTEIeG.s:7449   .text.HAL_RIF_RISAF_GetConfigSubRegionDelegation:00000358 $d
     /tmp/ccRTEIeG.s:7458   .text.HAL_RIF_RISAF_ConfigSubRegion:00000000 $t
     /tmp/ccRTEIeG.s:7464   .text.HAL_RIF_RISAF_ConfigSubRegion:00000000 HAL_RIF_RISAF_ConfigSubRegion
     /tmp/ccRTEIeG.s:7816   .text.HAL_RIF_RISAF_ConfigSubRegion:0000021c $d
     /tmp/ccRTEIeG.s:7836   .text.HAL_RIF_RISAF_ConfigSubRegion:00000264 $t
     /tmp/ccRTEIeG.s:8194   .text.HAL_RIF_RISAF_ConfigSubRegion:000004a8 $d
     /tmp/ccRTEIeG.s:8209   .text.HAL_RIF_RISAF_ConfigSubRegion:000004dc $t
     /tmp/ccRTEIeG.s:8532   .text.HAL_RIF_RISAF_ConfigSubRegion:00000700 $d
     /tmp/ccRTEIeG.s:8552   .text.HAL_RIF_RISAF_ConfigSubRegion:00000748 $t
     /tmp/ccRTEIeG.s:8757   .text.HAL_RIF_RISAF_ConfigSubRegion:000008b0 $d
     /tmp/ccRTEIeG.s:8771   .text.HAL_RIF_RISAF_ConfigSubRegion:000008e0 $t
     /tmp/ccRTEIeG.s:9136   .text.HAL_RIF_RISAF_ConfigSubRegion:00000b34 $d
     /tmp/ccRTEIeG.s:9156   .text.HAL_RIF_RISAF_ConfigSubRegion:00000b7c $t
     /tmp/ccRTEIeG.s:9349   .text.HAL_RIF_RISAF_ConfigSubRegion:00000ccc $d
     /tmp/ccRTEIeG.s:9363   .text.HAL_RIF_RISAF_ConfigSubRegion:00000cfc $t
     /tmp/ccRTEIeG.s:9709   .text.HAL_RIF_RISAF_ConfigSubRegion:00000f4c $d
     /tmp/ccRTEIeG.s:9729   .text.HAL_RIF_RISAF_ConfigSubRegion:00000f94 $t
     /tmp/ccRTEIeG.s:10084  .text.HAL_RIF_RISAF_ConfigSubRegion:000011d8 $d
     /tmp/ccRTEIeG.s:10106  .text.HAL_RIF_RISAF_GetConfigSubRegion:00000000 $t
     /tmp/ccRTEIeG.s:10112  .text.HAL_RIF_RISAF_GetConfigSubRegion:00000000 HAL_RIF_RISAF_GetConfigSubRegion
     /tmp/ccRTEIeG.s:10464  .text.HAL_RIF_RISAF_GetConfigSubRegion:0000021c $d
     /tmp/ccRTEIeG.s:10484  .text.HAL_RIF_RISAF_GetConfigSubRegion:00000264 $t
     /tmp/ccRTEIeG.s:10681  .text.HAL_RIF_RISAF_GetConfigSubRegion:00000398 $d
     /tmp/ccRTEIeG.s:10690  .text.HAL_RIF_RISAF_GetIllegalAccess:00000000 $t
     /tmp/ccRTEIeG.s:10696  .text.HAL_RIF_RISAF_GetIllegalAccess:00000000 HAL_RIF_RISAF_GetIllegalAccess
     /tmp/ccRTEIeG.s:10905  .text.HAL_RIF_RISAF_GetIllegalAccess:0000012c $d
     /tmp/ccRTEIeG.s:10927  .text.HAL_RIF_IAC_EnableIT:00000000 $t
     /tmp/ccRTEIeG.s:10933  .text.HAL_RIF_IAC_EnableIT:00000000 HAL_RIF_IAC_EnableIT
     /tmp/ccRTEIeG.s:11397  .text.HAL_RIF_IAC_EnableIT:0000038c $d
     /tmp/ccRTEIeG.s:11460  .text.HAL_RIF_IAC_EnableIT:00000480 $t
     /tmp/ccRTEIeG.s:11622  .text.HAL_RIF_IAC_EnableIT:00000580 $d
     /tmp/ccRTEIeG.s:11652  .text.HAL_RIF_IAC_DisableIT:00000000 $t
     /tmp/ccRTEIeG.s:11658  .text.HAL_RIF_IAC_DisableIT:00000000 HAL_RIF_IAC_DisableIT
     /tmp/ccRTEIeG.s:12122  .text.HAL_RIF_IAC_DisableIT:0000038c $d
     /tmp/ccRTEIeG.s:12185  .text.HAL_RIF_IAC_DisableIT:00000480 $t
     /tmp/ccRTEIeG.s:12349  .text.HAL_RIF_IAC_DisableIT:00000584 $d
     /tmp/ccRTEIeG.s:12379  .text.HAL_RIF_IAC_GetFlag:00000000 $t
ARM GAS  /tmp/ccRTEIeG.s 			page 284


     /tmp/ccRTEIeG.s:12385  .text.HAL_RIF_IAC_GetFlag:00000000 HAL_RIF_IAC_GetFlag
     /tmp/ccRTEIeG.s:12849  .text.HAL_RIF_IAC_GetFlag:0000038c $d
     /tmp/ccRTEIeG.s:12912  .text.HAL_RIF_IAC_GetFlag:00000480 $t
     /tmp/ccRTEIeG.s:13080  .text.HAL_RIF_IAC_GetFlag:00000588 $d
     /tmp/ccRTEIeG.s:13111  .text.HAL_RIF_IAC_ClearFlag:00000000 $t
     /tmp/ccRTEIeG.s:13117  .text.HAL_RIF_IAC_ClearFlag:00000000 HAL_RIF_IAC_ClearFlag
     /tmp/ccRTEIeG.s:13581  .text.HAL_RIF_IAC_ClearFlag:0000038c $d
     /tmp/ccRTEIeG.s:13644  .text.HAL_RIF_IAC_ClearFlag:00000480 $t
     /tmp/ccRTEIeG.s:13802  .text.HAL_RIF_IAC_ClearFlag:00000574 $d
     /tmp/ccRTEIeG.s:13833  .text.HAL_RIF_IRQHandler:00000000 $t
     /tmp/ccRTEIeG.s:13839  .text.HAL_RIF_IRQHandler:00000000 HAL_RIF_IRQHandler
     /tmp/ccRTEIeG.s:13938  .text.HAL_RIF_ILA_Callback:00000000 HAL_RIF_ILA_Callback
     /tmp/ccRTEIeG.s:13927  .text.HAL_RIF_IRQHandler:0000006c $d
     /tmp/ccRTEIeG.s:13932  .text.HAL_RIF_ILA_Callback:00000000 $t
                           .group:00000000 wm4.0.2a10773746a5c5ebb5552f50e466f80b
                           .group:00000000 wm4.stm32n6xx_hal_conf.h.21.004a06df6e15ac197e03f723792da58a
                           .group:00000000 wm4.stddef.h.39.0dc9006b34572d4d9cae4c8b422c4971
                           .group:00000000 wm4.arm_cmse.h.103.a0d15a79c4c9a67da8d5831704d7248e
                           .group:00000000 wm4.stm32n6xx.h.34.80585dd08aa426c932f6311fdb7386da
                           .group:00000000 wm4.stm32n657xx.h.26.acd272cb67318cc1a4791ce2f0720ca6
                           .group:00000000 wm4._newlib_version.h.4.411db44ea2338a62eca2f0777f81481b
                           .group:00000000 wm4.features.h.33.e0c9f337c65cb9f22ed5f23d082bc78b
                           .group:00000000 wm4._default_types.h.15.247e5cd201eca3442cbf5404108c4935
                           .group:00000000 wm4._intsup.h.10.48bafbb683905c4daa4565a85aeeb264
                           .group:00000000 wm4._stdint.h.10.c24fa3af3bc1706662bb5593a907e841
                           .group:00000000 wm4.stdint.h.23.d53047a68f4a85177f80b422d52785ed
                           .group:00000000 wm4.cmsis_version.h.32.0ac195c83bb4537824e6ad1c47474b79
                           .group:00000000 wm4.core_cm55.h.68.832d5cf835639cc0d28219c3d2867330
                           .group:00000000 wm4.cmsis_gcc.h.26.7a5fd1a99dbedde687044a4433ab3e15
                           .group:00000000 wm4.core_cm55.h.196.52e437a270752da561676e507b35baeb
                           .group:00000000 wm4.mpu_armv8.h.32.9d72426c8e2b47753456dcb84802c5b3
                           .group:00000000 wm4.pmu_armv8.h.32.eaa95f88a71b29390b135fd81c071b6b
                           .group:00000000 wm4.core_cm55.h.4411.860dad8650880893dd57b815844f7186
                           .group:00000000 wm4.cachel1_armv7.h.32.abd77761a989e008b0c60891114a33c7
                           .group:00000000 wm4.stm32n657xx.h.575.1c2a5e6bedffc6f9083dcc857bc6d09d
                           .group:00000000 wm4.stm32n6xx.h.114.5cf793d8af485e14f110e3e24bde1aa5
                           .group:00000000 wm4.stm32_hal_legacy.h.22.87fb12bf5a1a1e00fc134f22bc9aa8c4
                           .group:00000000 wm4.newlib.h.7.591ac1bd65c1f5b34864757667a05252
                           .group:00000000 wm4.ieeefp.h.77.bd5feb87d9990dd328793ced294f6a87
                           .group:00000000 wm4.config.h.224.10ee1ad185d877c6e334e6581faab44d
                           .group:00000000 wm4._ansi.h.31.de524f58584151836e90d8620a16f8e8
                           .group:00000000 wm4.cdefs.h.49.70fc7af612f78ddcace70fdd90b5623b
                           .group:00000000 wm4._types.h.20.dd0d04dca3800a0d2a6129b87f3adbb2
                           .group:00000000 wm4.stddef.h.158.6f8e08a347b1cff664332fa350bfceb3
                           .group:00000000 wm4._types.h.127.3bdfe3ff8ea2d0985b03d9cbe93480e3
                           .group:00000000 wm4.reent.h.18.25503cdc8b7e55dd0d6ea7b3e5af7a03
                           .group:00000000 wm4.lock.h.2.1461d1fff82dffe8bfddc23307f6484f
                           .group:00000000 wm4.reent.h.78.6b87466b04591b1f1cb88c14fdf2ba9e
                           .group:00000000 wm4.math.h.13.47cfc34cae8a1153323939c4d32cf7c2
                           .group:00000000 wm4.stm32n6xx_hal_def.h.63.3a8f01490e8852464e9fcb69092e9c75
                           .group:00000000 wm4.stm32n6xx_ll_bus.h.38.2366a295ee4cdb04833997d3787fcd2d
                           .group:00000000 wm4.stm32n6xx_ll_rcc.h.21.002e22a16fd7f67dde6dce41e8ba9620
                           .group:00000000 wm4.stm32n6xx_hal_rcc.h.194.1cb1283e40f9bebcd3fba2a9a961838e
                           .group:00000000 wm4.stm32n6xx_hal_rcc_ex.h.21.79aa32178dfef625fbd20d362449acfa
                           .group:00000000 wm4.stm32n6xx_hal_rcc.h.4359.3f0b7ad33826d95438602c9aebc08af9
                           .group:00000000 wm4.stm32n6xx_hal_gpio.h.21.89d54af663b98eb8fc098192053f7eeb
                           .group:00000000 wm4.stm32n6xx_hal_gpio_ex.h.22.4acb2e3511a98bb48b81cfc8e09fd59e
ARM GAS  /tmp/ccRTEIeG.s 			page 285


                           .group:00000000 wm4.stm32n6xx_hal_rif.h.21.424d0bafb874a777dee3742a22e13037
                           .group:00000000 wm4.stm32n6xx_hal_dma.h.21.61e48c5c2e8d25d22177834b232fe45c
                           .group:00000000 wm4.stm32n6xx_hal_dma_ex.h.21.66e597beb090a165329d6ccf665e41bc
                           .group:00000000 wm4.stm32n6xx_hal_dma.h.1020.87e2180c009560b617c1f8208140c950
                           .group:00000000 wm4.stm32n6xx_hal_cortex.h.21.f493623cc58f9454ab4eae41e395c5cc
                           .group:00000000 wm4.stm32n6xx_hal_bsec.h.21.61b309e67dd810e28897a01b1b21a97f
                           .group:00000000 wm4.stm32n6xx_hal_dcmipp.h.21.f538bfd785c6469670251ac9bc7af55d
                           .group:00000000 wm4.stm32n6xx_hal_dma2d.h.21.75c8d46cdbb72970123b3f34ae2043d7
                           .group:00000000 wm4.stm32n6xx_hal_exti.h.21.fda87e715ea6b98239ec30171d1df594
                           .group:00000000 wm4.stm32n6xx_hal_gfxmmu.h.21.9784a9103143d48bd3c37389d0e0b8e6
                           .group:00000000 wm4.stm32n6xx_hal_i2c.h.21.3f483626ff64c5bf027265bb2e1d1331
                           .group:00000000 wm4.stm32n6xx_hal_i2c_ex.h.21.79e9196c22282cdaf6b4047893638c45
                           .group:00000000 wm4.stm32n6xx_hal_i2c.h.741.1084702632703acc669e4282b3043372
                           .group:00000000 wm4.stm32n6xx_hal_icache.h.21.194b4ec6e76f32b14f65c85616854850
                           .group:00000000 wm4.stm32n6xx_hal_ltdc.h.21.ae1eb09930e7e550e48e418ac5849e4d
                           .group:00000000 wm4.stm32n6xx_hal_ltdc.h.1002.b13ede7fc94ed5ad1c6768a157d2149a
                           .group:00000000 wm4.stm32n6xx_ll_usb.h.21.d518a5d97876c2ff49040c20a2c4a120
                           .group:00000000 wm4.stm32n6xx_hal_pcd.h.155.27040aac6844effe2af8c180caf1dd2e
                           .group:00000000 wm4.stm32n6xx_hal_pwr.h.21.cdb73e4869c3fed3fc84f901ec0e5f0a
                           .group:00000000 wm4.stm32n6xx_hal_pwr_ex.h.21.1a673224a58b0c1e5fad8eeda6514208
                           .group:00000000 wm4.stm32n6xx_hal_ramcfg.h.21.a62dfbb4d2c14e9a8c634a215e37bd3d
                           .group:00000000 wm4.stm32n6xx_hal_spi.h.21.9f810303326e2d91749800e9911f8e4d
                           .group:00000000 wm4.stm32n6xx_hal_spi.h.906.93ec0695066db4253cdbcb7d84358a0b
                           .group:00000000 wm4.stm32n6xx_hal_tim.h.21.839dd2b2a70382fb2c44f8f293a84d5f
                           .group:00000000 wm4.stm32n6xx_hal_tim_ex.h.21.e372d5ac63c13441211ea4ecbd353150
                           .group:00000000 wm4.stm32n6xx_hal_uart.h.21.230f549bfa0d5ebfd77bfb311b2aca15
                           .group:00000000 wm4.stm32n6xx_hal_uart_ex.h.21.a0d5511e1d0703b7b5278c8f5472b96d
                           .group:00000000 wm4.stm32n6xx_hal_xspi.h.21.e17898be2073b6b6b19faf30b4e304e9
                           .group:00000000 wm4.stm32n6xx_hal_cacheaxi.h.21.7c3375b7903ec42376e4883320997f74
                           .group:00000000 wm4.stm32n6xx_hal_gpu2d.h.21.48d0249122abad294a630c39cc4ebaed
                           .group:00000000 wm4.stm32n6xx_hal.h.81.5e59143eba07faca3e9aeaa5470826c8

UNDEFINED SYMBOLS
assert_failed
