ARM GAS  /tmp/ccM4Rtv8.s 			page 1


   1              		.arch armv8.1-m.main
   2              		.fpu fpv5-d16
   3              		.arch_extension dsp
   4              		.arch_extension fp
   5              		.arch_extension fp.dp
   6              		.arch_extension mve
   7              		.arch_extension mve.fp
   8              		.eabi_attribute 5, "cortex-m55"
   9              		.eabi_attribute 28, 1
  10              		.eabi_attribute 20, 1
  11              		.eabi_attribute 21, 1
  12              		.eabi_attribute 23, 3
  13              		.eabi_attribute 24, 1
  14              		.eabi_attribute 25, 1
  15              		.eabi_attribute 26, 1
  16              		.eabi_attribute 30, 6
  17              		.eabi_attribute 34, 1
  18              		.eabi_attribute 38, 1
  19              		.eabi_attribute 18, 4
  20              		.file	"stm32n6xx_hal_ltdc.c"
  21              		.text
  22              	.Ltext0:
  23              		.cfi_sections	.debug_frame
  24              		.file 1 "STM32Cube_FW_N6/Drivers/STM32N6xx_HAL_Driver/Src/stm32n6xx_hal_ltdc.c"
  25              		.section	.rodata.V2R,"a"
  26              		.align	2
  29              	V2R:
  30 0000 93010000 		.word	403
  31 0004 CB010000 		.word	459
  32 0008 67010000 		.word	359
  33 000c 99010000 		.word	409
  34              		.section	.rodata.U2G,"a"
  35              		.align	2
  38              	U2G:
  39 0000 30000000 		.word	48
  40 0004 37000000 		.word	55
  41 0008 58000000 		.word	88
  42 000c 64000000 		.word	100
  43              		.section	.rodata.V2G,"a"
  44              		.align	2
  47              	V2G:
  48 0000 78000000 		.word	120
  49 0004 88000000 		.word	136
  50 0008 B7000000 		.word	183
  51 000c D0000000 		.word	208
  52              		.section	.rodata.U2B,"a"
  53              		.align	2
  56              	U2B:
  57 0000 DB010000 		.word	475
  58 0004 1D020000 		.word	541
  59 0008 C6010000 		.word	454
  60 000c 04020000 		.word	516
  61              		.section	.rodata
  62              		.align	2
  63              	.LC0:
  64 0000 53544D33 		.ascii	"STM32Cube_FW_N6/Drivers/STM32N6xx_HAL_Driver/Src/st"
  64      32437562 
ARM GAS  /tmp/ccM4Rtv8.s 			page 2


  64      655F4657 
  64      5F4E362F 
  64      44726976 
  65 0033 6D33326E 		.ascii	"m32n6xx_hal_ltdc.c\000"
  65      3678785F 
  65      68616C5F 
  65      6C746463 
  65      2E6300
  66              		.section	.text.HAL_LTDC_Init,"ax",%progbits
  67              		.align	1
  68              		.global	HAL_LTDC_Init
  69              		.syntax unified
  70              		.thumb
  71              		.thumb_func
  73              	HAL_LTDC_Init:
  74              	.LFB835:
   1:STM32Cube_FW_N6/Drivers/STM32N6xx_HAL_Driver/Src/stm32n6xx_hal_ltdc.c **** /**
   2:STM32Cube_FW_N6/Drivers/STM32N6xx_HAL_Driver/Src/stm32n6xx_hal_ltdc.c ****   ******************************************************************************
   3:STM32Cube_FW_N6/Drivers/STM32N6xx_HAL_Driver/Src/stm32n6xx_hal_ltdc.c ****   * @file    stm32n6xx_hal_ltdc.c
   4:STM32Cube_FW_N6/Drivers/STM32N6xx_HAL_Driver/Src/stm32n6xx_hal_ltdc.c ****   * @author  MCD Application Team
   5:STM32Cube_FW_N6/Drivers/STM32N6xx_HAL_Driver/Src/stm32n6xx_hal_ltdc.c ****   * @brief   LTDC HAL module driver.
   6:STM32Cube_FW_N6/Drivers/STM32N6xx_HAL_Driver/Src/stm32n6xx_hal_ltdc.c ****   *          This file provides firmware functions to manage the following
   7:STM32Cube_FW_N6/Drivers/STM32N6xx_HAL_Driver/Src/stm32n6xx_hal_ltdc.c ****   *          functionalities of the LTDC peripheral:
   8:STM32Cube_FW_N6/Drivers/STM32N6xx_HAL_Driver/Src/stm32n6xx_hal_ltdc.c ****   *           + Initialization and de-initialization functions
   9:STM32Cube_FW_N6/Drivers/STM32N6xx_HAL_Driver/Src/stm32n6xx_hal_ltdc.c ****   *           + IO operation functions
  10:STM32Cube_FW_N6/Drivers/STM32N6xx_HAL_Driver/Src/stm32n6xx_hal_ltdc.c ****   *           + Peripheral Control functions
  11:STM32Cube_FW_N6/Drivers/STM32N6xx_HAL_Driver/Src/stm32n6xx_hal_ltdc.c ****   *           + Peripheral State and Errors functions
  12:STM32Cube_FW_N6/Drivers/STM32N6xx_HAL_Driver/Src/stm32n6xx_hal_ltdc.c ****   *
  13:STM32Cube_FW_N6/Drivers/STM32N6xx_HAL_Driver/Src/stm32n6xx_hal_ltdc.c ****   ******************************************************************************
  14:STM32Cube_FW_N6/Drivers/STM32N6xx_HAL_Driver/Src/stm32n6xx_hal_ltdc.c ****   * @attention
  15:STM32Cube_FW_N6/Drivers/STM32N6xx_HAL_Driver/Src/stm32n6xx_hal_ltdc.c ****   *
  16:STM32Cube_FW_N6/Drivers/STM32N6xx_HAL_Driver/Src/stm32n6xx_hal_ltdc.c ****   * Copyright (c) 2023 STMicroelectronics.
  17:STM32Cube_FW_N6/Drivers/STM32N6xx_HAL_Driver/Src/stm32n6xx_hal_ltdc.c ****   * All rights reserved.
  18:STM32Cube_FW_N6/Drivers/STM32N6xx_HAL_Driver/Src/stm32n6xx_hal_ltdc.c ****   *
  19:STM32Cube_FW_N6/Drivers/STM32N6xx_HAL_Driver/Src/stm32n6xx_hal_ltdc.c ****   * This software is licensed under terms that can be found in the LICENSE file
  20:STM32Cube_FW_N6/Drivers/STM32N6xx_HAL_Driver/Src/stm32n6xx_hal_ltdc.c ****   * in the root directory of this software component.
  21:STM32Cube_FW_N6/Drivers/STM32N6xx_HAL_Driver/Src/stm32n6xx_hal_ltdc.c ****   * If no LICENSE file comes with this software, it is provided AS-IS.
  22:STM32Cube_FW_N6/Drivers/STM32N6xx_HAL_Driver/Src/stm32n6xx_hal_ltdc.c ****   *
  23:STM32Cube_FW_N6/Drivers/STM32N6xx_HAL_Driver/Src/stm32n6xx_hal_ltdc.c ****   ******************************************************************************
  24:STM32Cube_FW_N6/Drivers/STM32N6xx_HAL_Driver/Src/stm32n6xx_hal_ltdc.c ****   @verbatim
  25:STM32Cube_FW_N6/Drivers/STM32N6xx_HAL_Driver/Src/stm32n6xx_hal_ltdc.c ****   ==============================================================================
  26:STM32Cube_FW_N6/Drivers/STM32N6xx_HAL_Driver/Src/stm32n6xx_hal_ltdc.c ****                         ##### How to use this driver #####
  27:STM32Cube_FW_N6/Drivers/STM32N6xx_HAL_Driver/Src/stm32n6xx_hal_ltdc.c ****   ==============================================================================
  28:STM32Cube_FW_N6/Drivers/STM32N6xx_HAL_Driver/Src/stm32n6xx_hal_ltdc.c ****      [..]
  29:STM32Cube_FW_N6/Drivers/STM32N6xx_HAL_Driver/Src/stm32n6xx_hal_ltdc.c ****      The LTDC HAL driver can be used as follows:
  30:STM32Cube_FW_N6/Drivers/STM32N6xx_HAL_Driver/Src/stm32n6xx_hal_ltdc.c **** 
  31:STM32Cube_FW_N6/Drivers/STM32N6xx_HAL_Driver/Src/stm32n6xx_hal_ltdc.c ****      (#) Declare a LTDC_HandleTypeDef handle structure, for example: LTDC_HandleTypeDef  hltdc;
  32:STM32Cube_FW_N6/Drivers/STM32N6xx_HAL_Driver/Src/stm32n6xx_hal_ltdc.c **** 
  33:STM32Cube_FW_N6/Drivers/STM32N6xx_HAL_Driver/Src/stm32n6xx_hal_ltdc.c ****      (#) Initialize the LTDC low level resources by implementing the HAL_LTDC_MspInit() API:
  34:STM32Cube_FW_N6/Drivers/STM32N6xx_HAL_Driver/Src/stm32n6xx_hal_ltdc.c ****          (##) Enable the LTDC interface clock
  35:STM32Cube_FW_N6/Drivers/STM32N6xx_HAL_Driver/Src/stm32n6xx_hal_ltdc.c ****          (##) NVIC configuration if you need to use interrupt process
  36:STM32Cube_FW_N6/Drivers/STM32N6xx_HAL_Driver/Src/stm32n6xx_hal_ltdc.c ****              (+++) Configure the LTDC interrupt priority
  37:STM32Cube_FW_N6/Drivers/STM32N6xx_HAL_Driver/Src/stm32n6xx_hal_ltdc.c ****              (+++) Enable the NVIC LTDC IRQ Channel
  38:STM32Cube_FW_N6/Drivers/STM32N6xx_HAL_Driver/Src/stm32n6xx_hal_ltdc.c **** 
  39:STM32Cube_FW_N6/Drivers/STM32N6xx_HAL_Driver/Src/stm32n6xx_hal_ltdc.c ****      (#) Initialize the required configuration through the following parameters:
  40:STM32Cube_FW_N6/Drivers/STM32N6xx_HAL_Driver/Src/stm32n6xx_hal_ltdc.c ****          the LTDC timing, the horizontal and vertical polarity, the pixel clock polarity,
  41:STM32Cube_FW_N6/Drivers/STM32N6xx_HAL_Driver/Src/stm32n6xx_hal_ltdc.c ****          Data Enable polarity and the LTDC background color value using HAL_LTDC_Init() function
ARM GAS  /tmp/ccM4Rtv8.s 			page 3


  42:STM32Cube_FW_N6/Drivers/STM32N6xx_HAL_Driver/Src/stm32n6xx_hal_ltdc.c **** 
  43:STM32Cube_FW_N6/Drivers/STM32N6xx_HAL_Driver/Src/stm32n6xx_hal_ltdc.c ****      *** Configuration ***
  44:STM32Cube_FW_N6/Drivers/STM32N6xx_HAL_Driver/Src/stm32n6xx_hal_ltdc.c ****      =========================
  45:STM32Cube_FW_N6/Drivers/STM32N6xx_HAL_Driver/Src/stm32n6xx_hal_ltdc.c ****      [..]
  46:STM32Cube_FW_N6/Drivers/STM32N6xx_HAL_Driver/Src/stm32n6xx_hal_ltdc.c ****      (#) Program the required configuration through the following parameters:
  47:STM32Cube_FW_N6/Drivers/STM32N6xx_HAL_Driver/Src/stm32n6xx_hal_ltdc.c ****          the pixel format, the blending factors, input alpha value, the window size
  48:STM32Cube_FW_N6/Drivers/STM32N6xx_HAL_Driver/Src/stm32n6xx_hal_ltdc.c ****          and the image size using HAL_LTDC_ConfigLayer() function for foreground
  49:STM32Cube_FW_N6/Drivers/STM32N6xx_HAL_Driver/Src/stm32n6xx_hal_ltdc.c ****          or/and background layer.
  50:STM32Cube_FW_N6/Drivers/STM32N6xx_HAL_Driver/Src/stm32n6xx_hal_ltdc.c **** 
  51:STM32Cube_FW_N6/Drivers/STM32N6xx_HAL_Driver/Src/stm32n6xx_hal_ltdc.c ****      (#) Optionally, configure and enable the CLUT using HAL_LTDC_ConfigCLUT() and
  52:STM32Cube_FW_N6/Drivers/STM32N6xx_HAL_Driver/Src/stm32n6xx_hal_ltdc.c ****          HAL_LTDC_EnableCLUT functions.
  53:STM32Cube_FW_N6/Drivers/STM32N6xx_HAL_Driver/Src/stm32n6xx_hal_ltdc.c **** 
  54:STM32Cube_FW_N6/Drivers/STM32N6xx_HAL_Driver/Src/stm32n6xx_hal_ltdc.c ****      (#) Optionally, enable the Dither using HAL_LTDC_EnableDither().
  55:STM32Cube_FW_N6/Drivers/STM32N6xx_HAL_Driver/Src/stm32n6xx_hal_ltdc.c **** 
  56:STM32Cube_FW_N6/Drivers/STM32N6xx_HAL_Driver/Src/stm32n6xx_hal_ltdc.c ****      (#) Optionally, configure and enable the Color keying using HAL_LTDC_ConfigColorKeying()
  57:STM32Cube_FW_N6/Drivers/STM32N6xx_HAL_Driver/Src/stm32n6xx_hal_ltdc.c ****          and HAL_LTDC_EnableColorKeying functions.
  58:STM32Cube_FW_N6/Drivers/STM32N6xx_HAL_Driver/Src/stm32n6xx_hal_ltdc.c **** 
  59:STM32Cube_FW_N6/Drivers/STM32N6xx_HAL_Driver/Src/stm32n6xx_hal_ltdc.c ****      (#) Optionally, configure LineInterrupt using HAL_LTDC_ProgramLineEvent()
  60:STM32Cube_FW_N6/Drivers/STM32N6xx_HAL_Driver/Src/stm32n6xx_hal_ltdc.c ****          function
  61:STM32Cube_FW_N6/Drivers/STM32N6xx_HAL_Driver/Src/stm32n6xx_hal_ltdc.c **** 
  62:STM32Cube_FW_N6/Drivers/STM32N6xx_HAL_Driver/Src/stm32n6xx_hal_ltdc.c ****      (#) If needed, reconfigure and change the pixel format value, the alpha value
  63:STM32Cube_FW_N6/Drivers/STM32N6xx_HAL_Driver/Src/stm32n6xx_hal_ltdc.c ****          value, the window size, the window position and the layer start address
  64:STM32Cube_FW_N6/Drivers/STM32N6xx_HAL_Driver/Src/stm32n6xx_hal_ltdc.c ****          for foreground or/and background layer using respectively the following
  65:STM32Cube_FW_N6/Drivers/STM32N6xx_HAL_Driver/Src/stm32n6xx_hal_ltdc.c ****          functions: HAL_LTDC_SetPixelFormat(), HAL_LTDC_SetAlpha(), HAL_LTDC_SetWindowSize(),
  66:STM32Cube_FW_N6/Drivers/STM32N6xx_HAL_Driver/Src/stm32n6xx_hal_ltdc.c ****          HAL_LTDC_SetWindowPosition() and HAL_LTDC_SetAddress().
  67:STM32Cube_FW_N6/Drivers/STM32N6xx_HAL_Driver/Src/stm32n6xx_hal_ltdc.c **** 
  68:STM32Cube_FW_N6/Drivers/STM32N6xx_HAL_Driver/Src/stm32n6xx_hal_ltdc.c ****      (#) Variant functions with _NoReload suffix allows to set the LTDC configuration/settings with
  69:STM32Cube_FW_N6/Drivers/STM32N6xx_HAL_Driver/Src/stm32n6xx_hal_ltdc.c ****          This is useful in case when the program requires to modify serval LTDC settings (on one or
  70:STM32Cube_FW_N6/Drivers/STM32N6xx_HAL_Driver/Src/stm32n6xx_hal_ltdc.c ****          then applying(reload) these settings in one shot by calling the function HAL_LTDC_Reload()
  71:STM32Cube_FW_N6/Drivers/STM32N6xx_HAL_Driver/Src/stm32n6xx_hal_ltdc.c **** 
  72:STM32Cube_FW_N6/Drivers/STM32N6xx_HAL_Driver/Src/stm32n6xx_hal_ltdc.c ****          After calling the _NoReload functions to set different color/format/layer settings,
  73:STM32Cube_FW_N6/Drivers/STM32N6xx_HAL_Driver/Src/stm32n6xx_hal_ltdc.c ****          the program shall call the function HAL_LTDC_Reload() to apply(reload) these settings.
  74:STM32Cube_FW_N6/Drivers/STM32N6xx_HAL_Driver/Src/stm32n6xx_hal_ltdc.c ****          Function HAL_LTDC_Reload() can be called with the parameter ReloadType set to LTDC_RELOAD_
  75:STM32Cube_FW_N6/Drivers/STM32N6xx_HAL_Driver/Src/stm32n6xx_hal_ltdc.c ****          an immediate reload is required.
  76:STM32Cube_FW_N6/Drivers/STM32N6xx_HAL_Driver/Src/stm32n6xx_hal_ltdc.c ****          Function HAL_LTDC_Reload() can be called with the parameter ReloadType set to LTDC_RELOAD_
  77:STM32Cube_FW_N6/Drivers/STM32N6xx_HAL_Driver/Src/stm32n6xx_hal_ltdc.c ****          the reload should be done in the next vertical blanking period,
  78:STM32Cube_FW_N6/Drivers/STM32N6xx_HAL_Driver/Src/stm32n6xx_hal_ltdc.c ****          this option allows to avoid display flicker by applying the new settings during the vertic
  79:STM32Cube_FW_N6/Drivers/STM32N6xx_HAL_Driver/Src/stm32n6xx_hal_ltdc.c **** 
  80:STM32Cube_FW_N6/Drivers/STM32N6xx_HAL_Driver/Src/stm32n6xx_hal_ltdc.c **** 
  81:STM32Cube_FW_N6/Drivers/STM32N6xx_HAL_Driver/Src/stm32n6xx_hal_ltdc.c ****      (#) To control LTDC state you can use the following function: HAL_LTDC_GetState()
  82:STM32Cube_FW_N6/Drivers/STM32N6xx_HAL_Driver/Src/stm32n6xx_hal_ltdc.c **** 
  83:STM32Cube_FW_N6/Drivers/STM32N6xx_HAL_Driver/Src/stm32n6xx_hal_ltdc.c ****      *** LTDC HAL driver macros list ***
  84:STM32Cube_FW_N6/Drivers/STM32N6xx_HAL_Driver/Src/stm32n6xx_hal_ltdc.c ****      =============================================
  85:STM32Cube_FW_N6/Drivers/STM32N6xx_HAL_Driver/Src/stm32n6xx_hal_ltdc.c ****      [..]
  86:STM32Cube_FW_N6/Drivers/STM32N6xx_HAL_Driver/Src/stm32n6xx_hal_ltdc.c ****        Below the list of most used macros in LTDC HAL driver.
  87:STM32Cube_FW_N6/Drivers/STM32N6xx_HAL_Driver/Src/stm32n6xx_hal_ltdc.c **** 
  88:STM32Cube_FW_N6/Drivers/STM32N6xx_HAL_Driver/Src/stm32n6xx_hal_ltdc.c ****       (+) __HAL_LTDC_ENABLE: Enable the LTDC.
  89:STM32Cube_FW_N6/Drivers/STM32N6xx_HAL_Driver/Src/stm32n6xx_hal_ltdc.c ****       (+) __HAL_LTDC_DISABLE: Disable the LTDC.
  90:STM32Cube_FW_N6/Drivers/STM32N6xx_HAL_Driver/Src/stm32n6xx_hal_ltdc.c ****       (+) __HAL_LTDC_LAYER_ENABLE: Enable an LTDC Layer.
  91:STM32Cube_FW_N6/Drivers/STM32N6xx_HAL_Driver/Src/stm32n6xx_hal_ltdc.c ****       (+) __HAL_LTDC_LAYER_DISABLE: Disable an LTDC Layer.
  92:STM32Cube_FW_N6/Drivers/STM32N6xx_HAL_Driver/Src/stm32n6xx_hal_ltdc.c ****       (+) __HAL_LTDC_RELOAD_IMMEDIATE_CONFIG: Reload  Layer Configuration.
  93:STM32Cube_FW_N6/Drivers/STM32N6xx_HAL_Driver/Src/stm32n6xx_hal_ltdc.c ****       (+) __HAL_LTDC_GET_FLAG: Get the LTDC pending flags.
  94:STM32Cube_FW_N6/Drivers/STM32N6xx_HAL_Driver/Src/stm32n6xx_hal_ltdc.c ****       (+) __HAL_LTDC_CLEAR_FLAG: Clear the LTDC pending flags.
  95:STM32Cube_FW_N6/Drivers/STM32N6xx_HAL_Driver/Src/stm32n6xx_hal_ltdc.c ****       (+) __HAL_LTDC_ENABLE_IT: Enable the specified LTDC interrupts.
  96:STM32Cube_FW_N6/Drivers/STM32N6xx_HAL_Driver/Src/stm32n6xx_hal_ltdc.c ****       (+) __HAL_LTDC_DISABLE_IT: Disable the specified LTDC interrupts.
  97:STM32Cube_FW_N6/Drivers/STM32N6xx_HAL_Driver/Src/stm32n6xx_hal_ltdc.c ****       (+) __HAL_LTDC_GET_IT_SOURCE: Check whether the specified LTDC interrupt has occurred or not.
  98:STM32Cube_FW_N6/Drivers/STM32N6xx_HAL_Driver/Src/stm32n6xx_hal_ltdc.c **** 
ARM GAS  /tmp/ccM4Rtv8.s 			page 4


  99:STM32Cube_FW_N6/Drivers/STM32N6xx_HAL_Driver/Src/stm32n6xx_hal_ltdc.c ****      [..]
 100:STM32Cube_FW_N6/Drivers/STM32N6xx_HAL_Driver/Src/stm32n6xx_hal_ltdc.c ****        (@) You can refer to the LTDC HAL driver header file for more useful macros
 101:STM32Cube_FW_N6/Drivers/STM32N6xx_HAL_Driver/Src/stm32n6xx_hal_ltdc.c **** 
 102:STM32Cube_FW_N6/Drivers/STM32N6xx_HAL_Driver/Src/stm32n6xx_hal_ltdc.c **** 
 103:STM32Cube_FW_N6/Drivers/STM32N6xx_HAL_Driver/Src/stm32n6xx_hal_ltdc.c ****      *** Callback registration ***
 104:STM32Cube_FW_N6/Drivers/STM32N6xx_HAL_Driver/Src/stm32n6xx_hal_ltdc.c ****      =============================================
 105:STM32Cube_FW_N6/Drivers/STM32N6xx_HAL_Driver/Src/stm32n6xx_hal_ltdc.c ****      [..]
 106:STM32Cube_FW_N6/Drivers/STM32N6xx_HAL_Driver/Src/stm32n6xx_hal_ltdc.c ****      The compilation define  USE_HAL_LTDC_REGISTER_CALLBACKS when set to 1
 107:STM32Cube_FW_N6/Drivers/STM32N6xx_HAL_Driver/Src/stm32n6xx_hal_ltdc.c ****      allows the user to configure dynamically the driver callbacks.
 108:STM32Cube_FW_N6/Drivers/STM32N6xx_HAL_Driver/Src/stm32n6xx_hal_ltdc.c ****      Use function HAL_LTDC_RegisterCallback() to register a callback.
 109:STM32Cube_FW_N6/Drivers/STM32N6xx_HAL_Driver/Src/stm32n6xx_hal_ltdc.c **** 
 110:STM32Cube_FW_N6/Drivers/STM32N6xx_HAL_Driver/Src/stm32n6xx_hal_ltdc.c ****     [..]
 111:STM32Cube_FW_N6/Drivers/STM32N6xx_HAL_Driver/Src/stm32n6xx_hal_ltdc.c ****     Function HAL_LTDC_RegisterCallback() allows to register following callbacks:
 112:STM32Cube_FW_N6/Drivers/STM32N6xx_HAL_Driver/Src/stm32n6xx_hal_ltdc.c ****       (+) LineEventCallback   : LTDC Line Event Callback.
 113:STM32Cube_FW_N6/Drivers/STM32N6xx_HAL_Driver/Src/stm32n6xx_hal_ltdc.c ****       (+) ReloadEventCallback : LTDC Reload Event Callback.
 114:STM32Cube_FW_N6/Drivers/STM32N6xx_HAL_Driver/Src/stm32n6xx_hal_ltdc.c ****       (+) ErrorCallback       : LTDC Error Callback
 115:STM32Cube_FW_N6/Drivers/STM32N6xx_HAL_Driver/Src/stm32n6xx_hal_ltdc.c ****       (+) MspInitCallback     : LTDC MspInit.
 116:STM32Cube_FW_N6/Drivers/STM32N6xx_HAL_Driver/Src/stm32n6xx_hal_ltdc.c ****       (+) MspDeInitCallback   : LTDC MspDeInit.
 117:STM32Cube_FW_N6/Drivers/STM32N6xx_HAL_Driver/Src/stm32n6xx_hal_ltdc.c ****     [..]
 118:STM32Cube_FW_N6/Drivers/STM32N6xx_HAL_Driver/Src/stm32n6xx_hal_ltdc.c ****     This function takes as parameters the HAL peripheral handle, the callback ID
 119:STM32Cube_FW_N6/Drivers/STM32N6xx_HAL_Driver/Src/stm32n6xx_hal_ltdc.c ****     and a pointer to the user callback function.
 120:STM32Cube_FW_N6/Drivers/STM32N6xx_HAL_Driver/Src/stm32n6xx_hal_ltdc.c **** 
 121:STM32Cube_FW_N6/Drivers/STM32N6xx_HAL_Driver/Src/stm32n6xx_hal_ltdc.c ****     [..]
 122:STM32Cube_FW_N6/Drivers/STM32N6xx_HAL_Driver/Src/stm32n6xx_hal_ltdc.c ****     Use function HAL_LTDC_UnRegisterCallback() to reset a callback to the default
 123:STM32Cube_FW_N6/Drivers/STM32N6xx_HAL_Driver/Src/stm32n6xx_hal_ltdc.c ****     weak function.
 124:STM32Cube_FW_N6/Drivers/STM32N6xx_HAL_Driver/Src/stm32n6xx_hal_ltdc.c ****     HAL_LTDC_UnRegisterCallback() takes as parameters the HAL peripheral handle
 125:STM32Cube_FW_N6/Drivers/STM32N6xx_HAL_Driver/Src/stm32n6xx_hal_ltdc.c ****     and the callback ID.
 126:STM32Cube_FW_N6/Drivers/STM32N6xx_HAL_Driver/Src/stm32n6xx_hal_ltdc.c ****     [..]
 127:STM32Cube_FW_N6/Drivers/STM32N6xx_HAL_Driver/Src/stm32n6xx_hal_ltdc.c ****     This function allows to reset following callbacks:
 128:STM32Cube_FW_N6/Drivers/STM32N6xx_HAL_Driver/Src/stm32n6xx_hal_ltdc.c ****       (+) LineEventCallback   : LTDC Line Event Callback
 129:STM32Cube_FW_N6/Drivers/STM32N6xx_HAL_Driver/Src/stm32n6xx_hal_ltdc.c ****       (+) ReloadEventCallback : LTDC Reload Event Callback
 130:STM32Cube_FW_N6/Drivers/STM32N6xx_HAL_Driver/Src/stm32n6xx_hal_ltdc.c ****       (+) ErrorCallback       : LTDC Error Callback
 131:STM32Cube_FW_N6/Drivers/STM32N6xx_HAL_Driver/Src/stm32n6xx_hal_ltdc.c ****       (+) MspInitCallback     : LTDC MspInit
 132:STM32Cube_FW_N6/Drivers/STM32N6xx_HAL_Driver/Src/stm32n6xx_hal_ltdc.c ****       (+) MspDeInitCallback   : LTDC MspDeInit.
 133:STM32Cube_FW_N6/Drivers/STM32N6xx_HAL_Driver/Src/stm32n6xx_hal_ltdc.c **** 
 134:STM32Cube_FW_N6/Drivers/STM32N6xx_HAL_Driver/Src/stm32n6xx_hal_ltdc.c ****     [..]
 135:STM32Cube_FW_N6/Drivers/STM32N6xx_HAL_Driver/Src/stm32n6xx_hal_ltdc.c ****     By default, after the HAL_LTDC_Init and when the state is HAL_LTDC_STATE_RESET
 136:STM32Cube_FW_N6/Drivers/STM32N6xx_HAL_Driver/Src/stm32n6xx_hal_ltdc.c ****     all callbacks are set to the corresponding weak functions:
 137:STM32Cube_FW_N6/Drivers/STM32N6xx_HAL_Driver/Src/stm32n6xx_hal_ltdc.c ****     examples HAL_LTDC_LineEventCallback(), HAL_LTDC_ErrorCallback().
 138:STM32Cube_FW_N6/Drivers/STM32N6xx_HAL_Driver/Src/stm32n6xx_hal_ltdc.c ****     Exception done for MspInit and MspDeInit functions that are
 139:STM32Cube_FW_N6/Drivers/STM32N6xx_HAL_Driver/Src/stm32n6xx_hal_ltdc.c ****     reset to the legacy weak (surcharged) functions in the HAL_LTDC_Init() and HAL_LTDC_DeInit()
 140:STM32Cube_FW_N6/Drivers/STM32N6xx_HAL_Driver/Src/stm32n6xx_hal_ltdc.c ****     only when these callbacks are null (not registered beforehand).
 141:STM32Cube_FW_N6/Drivers/STM32N6xx_HAL_Driver/Src/stm32n6xx_hal_ltdc.c ****     If not, MspInit or MspDeInit are not null, the HAL_LTDC_Init() and HAL_LTDC_DeInit()
 142:STM32Cube_FW_N6/Drivers/STM32N6xx_HAL_Driver/Src/stm32n6xx_hal_ltdc.c ****     keep and use the user MspInit/MspDeInit callbacks (registered beforehand).
 143:STM32Cube_FW_N6/Drivers/STM32N6xx_HAL_Driver/Src/stm32n6xx_hal_ltdc.c **** 
 144:STM32Cube_FW_N6/Drivers/STM32N6xx_HAL_Driver/Src/stm32n6xx_hal_ltdc.c ****     [..]
 145:STM32Cube_FW_N6/Drivers/STM32N6xx_HAL_Driver/Src/stm32n6xx_hal_ltdc.c ****     Callbacks can be registered/unregistered in HAL_LTDC_STATE_READY state only.
 146:STM32Cube_FW_N6/Drivers/STM32N6xx_HAL_Driver/Src/stm32n6xx_hal_ltdc.c ****     Exception done MspInit/MspDeInit that can be registered/unregistered
 147:STM32Cube_FW_N6/Drivers/STM32N6xx_HAL_Driver/Src/stm32n6xx_hal_ltdc.c ****     in HAL_LTDC_STATE_READY or HAL_LTDC_STATE_RESET state,
 148:STM32Cube_FW_N6/Drivers/STM32N6xx_HAL_Driver/Src/stm32n6xx_hal_ltdc.c ****     thus registered (user) MspInit/DeInit callbacks can be used during the Init/DeInit.
 149:STM32Cube_FW_N6/Drivers/STM32N6xx_HAL_Driver/Src/stm32n6xx_hal_ltdc.c ****     In that case first register the MspInit/MspDeInit user callbacks
 150:STM32Cube_FW_N6/Drivers/STM32N6xx_HAL_Driver/Src/stm32n6xx_hal_ltdc.c ****     using HAL_LTDC_RegisterCallback() before calling HAL_LTDC_DeInit()
 151:STM32Cube_FW_N6/Drivers/STM32N6xx_HAL_Driver/Src/stm32n6xx_hal_ltdc.c ****     or HAL_LTDC_Init() function.
 152:STM32Cube_FW_N6/Drivers/STM32N6xx_HAL_Driver/Src/stm32n6xx_hal_ltdc.c **** 
 153:STM32Cube_FW_N6/Drivers/STM32N6xx_HAL_Driver/Src/stm32n6xx_hal_ltdc.c ****     [..]
 154:STM32Cube_FW_N6/Drivers/STM32N6xx_HAL_Driver/Src/stm32n6xx_hal_ltdc.c ****     When the compilation define USE_HAL_LTDC_REGISTER_CALLBACKS is set to 0 or
 155:STM32Cube_FW_N6/Drivers/STM32N6xx_HAL_Driver/Src/stm32n6xx_hal_ltdc.c ****     not defined, the callback registration feature is not available and all callbacks
ARM GAS  /tmp/ccM4Rtv8.s 			page 5


 156:STM32Cube_FW_N6/Drivers/STM32N6xx_HAL_Driver/Src/stm32n6xx_hal_ltdc.c ****     are set to the corresponding weak functions.
 157:STM32Cube_FW_N6/Drivers/STM32N6xx_HAL_Driver/Src/stm32n6xx_hal_ltdc.c **** 
 158:STM32Cube_FW_N6/Drivers/STM32N6xx_HAL_Driver/Src/stm32n6xx_hal_ltdc.c ****   @endverbatim
 159:STM32Cube_FW_N6/Drivers/STM32N6xx_HAL_Driver/Src/stm32n6xx_hal_ltdc.c ****   ******************************************************************************
 160:STM32Cube_FW_N6/Drivers/STM32N6xx_HAL_Driver/Src/stm32n6xx_hal_ltdc.c ****   */
 161:STM32Cube_FW_N6/Drivers/STM32N6xx_HAL_Driver/Src/stm32n6xx_hal_ltdc.c **** 
 162:STM32Cube_FW_N6/Drivers/STM32N6xx_HAL_Driver/Src/stm32n6xx_hal_ltdc.c **** /* Includes ------------------------------------------------------------------*/
 163:STM32Cube_FW_N6/Drivers/STM32N6xx_HAL_Driver/Src/stm32n6xx_hal_ltdc.c **** #include "stm32n6xx_hal.h"
 164:STM32Cube_FW_N6/Drivers/STM32N6xx_HAL_Driver/Src/stm32n6xx_hal_ltdc.c **** 
 165:STM32Cube_FW_N6/Drivers/STM32N6xx_HAL_Driver/Src/stm32n6xx_hal_ltdc.c **** /** @addtogroup STM32N6xx_HAL_Driver
 166:STM32Cube_FW_N6/Drivers/STM32N6xx_HAL_Driver/Src/stm32n6xx_hal_ltdc.c ****   * @{
 167:STM32Cube_FW_N6/Drivers/STM32N6xx_HAL_Driver/Src/stm32n6xx_hal_ltdc.c ****   */
 168:STM32Cube_FW_N6/Drivers/STM32N6xx_HAL_Driver/Src/stm32n6xx_hal_ltdc.c **** 
 169:STM32Cube_FW_N6/Drivers/STM32N6xx_HAL_Driver/Src/stm32n6xx_hal_ltdc.c **** #ifdef HAL_LTDC_MODULE_ENABLED
 170:STM32Cube_FW_N6/Drivers/STM32N6xx_HAL_Driver/Src/stm32n6xx_hal_ltdc.c **** 
 171:STM32Cube_FW_N6/Drivers/STM32N6xx_HAL_Driver/Src/stm32n6xx_hal_ltdc.c **** #if defined (LTDC)
 172:STM32Cube_FW_N6/Drivers/STM32N6xx_HAL_Driver/Src/stm32n6xx_hal_ltdc.c **** 
 173:STM32Cube_FW_N6/Drivers/STM32N6xx_HAL_Driver/Src/stm32n6xx_hal_ltdc.c **** /** @defgroup LTDC LTDC
 174:STM32Cube_FW_N6/Drivers/STM32N6xx_HAL_Driver/Src/stm32n6xx_hal_ltdc.c ****   * @brief LTDC HAL module driver
 175:STM32Cube_FW_N6/Drivers/STM32N6xx_HAL_Driver/Src/stm32n6xx_hal_ltdc.c ****   * @{
 176:STM32Cube_FW_N6/Drivers/STM32N6xx_HAL_Driver/Src/stm32n6xx_hal_ltdc.c ****   */
 177:STM32Cube_FW_N6/Drivers/STM32N6xx_HAL_Driver/Src/stm32n6xx_hal_ltdc.c **** 
 178:STM32Cube_FW_N6/Drivers/STM32N6xx_HAL_Driver/Src/stm32n6xx_hal_ltdc.c **** 
 179:STM32Cube_FW_N6/Drivers/STM32N6xx_HAL_Driver/Src/stm32n6xx_hal_ltdc.c **** /* Private typedef -----------------------------------------------------------*/
 180:STM32Cube_FW_N6/Drivers/STM32N6xx_HAL_Driver/Src/stm32n6xx_hal_ltdc.c **** /* Private define ------------------------------------------------------------*/
 181:STM32Cube_FW_N6/Drivers/STM32N6xx_HAL_Driver/Src/stm32n6xx_hal_ltdc.c **** /** @defgroup LTDC_Private_Define LTDC Private Define
 182:STM32Cube_FW_N6/Drivers/STM32N6xx_HAL_Driver/Src/stm32n6xx_hal_ltdc.c ****   * @{
 183:STM32Cube_FW_N6/Drivers/STM32N6xx_HAL_Driver/Src/stm32n6xx_hal_ltdc.c ****   */
 184:STM32Cube_FW_N6/Drivers/STM32N6xx_HAL_Driver/Src/stm32n6xx_hal_ltdc.c **** #define LTDC_TIMEOUT_VALUE ((uint32_t)100U)  /* 100ms */
 185:STM32Cube_FW_N6/Drivers/STM32N6xx_HAL_Driver/Src/stm32n6xx_hal_ltdc.c **** #define LTDC_PIXEL_FORMAT_FLEX_ARGB               0x00CU       /*!< Flexible ARGB format LTDC pixel
 186:STM32Cube_FW_N6/Drivers/STM32N6xx_HAL_Driver/Src/stm32n6xx_hal_ltdc.c **** #define LTDC_PIXEL_FORMAT_FLEX_YUV_COPLANAR       0x00DU       /*!< Flexible Co-planar format*/
 187:STM32Cube_FW_N6/Drivers/STM32N6xx_HAL_Driver/Src/stm32n6xx_hal_ltdc.c **** #define LTDC_PIXEL_FORMAT_FLEX_YUV_SEMIPLANAR     0x10DU       /*!< Flexible Semi planar format*/
 188:STM32Cube_FW_N6/Drivers/STM32N6xx_HAL_Driver/Src/stm32n6xx_hal_ltdc.c **** #define LTDC_PIXEL_FORMAT_FLEX_YUV_FULLPLANAR     0x20DU       /*!< Flexible Full planar format*/
 189:STM32Cube_FW_N6/Drivers/STM32N6xx_HAL_Driver/Src/stm32n6xx_hal_ltdc.c **** #define LTDC_FLEXIBLE_PIXEL_FORMAT                0x007U       /*!< Flexible pixel format selection
 190:STM32Cube_FW_N6/Drivers/STM32N6xx_HAL_Driver/Src/stm32n6xx_hal_ltdc.c **** #define LTDC_PITCH_SIGN_MSK                       0x40000000U  /*!< Mask to check Pitch sign  */
 191:STM32Cube_FW_N6/Drivers/STM32N6xx_HAL_Driver/Src/stm32n6xx_hal_ltdc.c **** /**
 192:STM32Cube_FW_N6/Drivers/STM32N6xx_HAL_Driver/Src/stm32n6xx_hal_ltdc.c ****   * @}
 193:STM32Cube_FW_N6/Drivers/STM32N6xx_HAL_Driver/Src/stm32n6xx_hal_ltdc.c ****   */
 194:STM32Cube_FW_N6/Drivers/STM32N6xx_HAL_Driver/Src/stm32n6xx_hal_ltdc.c **** /* Private macro -------------------------------------------------------------*/
 195:STM32Cube_FW_N6/Drivers/STM32N6xx_HAL_Driver/Src/stm32n6xx_hal_ltdc.c **** /* Private variables ---------------------------------------------------------*/
 196:STM32Cube_FW_N6/Drivers/STM32N6xx_HAL_Driver/Src/stm32n6xx_hal_ltdc.c **** /* YUV to RGB conversion coefficients for BT601/709 Full/Reduced Luminance */
 197:STM32Cube_FW_N6/Drivers/STM32N6xx_HAL_Driver/Src/stm32n6xx_hal_ltdc.c **** static const uint32_t V2R[4] = {403, 459, 359, 409};
 198:STM32Cube_FW_N6/Drivers/STM32N6xx_HAL_Driver/Src/stm32n6xx_hal_ltdc.c **** static const uint32_t U2G[4] = {48, 55, 88, 100};
 199:STM32Cube_FW_N6/Drivers/STM32N6xx_HAL_Driver/Src/stm32n6xx_hal_ltdc.c **** static const uint32_t V2G[4] = {120, 136, 183, 208};
 200:STM32Cube_FW_N6/Drivers/STM32N6xx_HAL_Driver/Src/stm32n6xx_hal_ltdc.c **** static const uint32_t U2B[4] = {475, 541, 454, 516};
 201:STM32Cube_FW_N6/Drivers/STM32N6xx_HAL_Driver/Src/stm32n6xx_hal_ltdc.c **** 
 202:STM32Cube_FW_N6/Drivers/STM32N6xx_HAL_Driver/Src/stm32n6xx_hal_ltdc.c **** /* Private function prototypes -----------------------------------------------*/
 203:STM32Cube_FW_N6/Drivers/STM32N6xx_HAL_Driver/Src/stm32n6xx_hal_ltdc.c **** static void LTDC_SetConfig(LTDC_HandleTypeDef *hltdc,  uint32_t Aux0Addr, uint32_t Aux1Addr, uint32
 204:STM32Cube_FW_N6/Drivers/STM32N6xx_HAL_Driver/Src/stm32n6xx_hal_ltdc.c ****                            uint32_t LayerIdx);
 205:STM32Cube_FW_N6/Drivers/STM32N6xx_HAL_Driver/Src/stm32n6xx_hal_ltdc.c **** static void LTDC_SetCompositionConfig(LTDC_HandleTypeDef *hltdc,  uint32_t LayerIdx);
 206:STM32Cube_FW_N6/Drivers/STM32N6xx_HAL_Driver/Src/stm32n6xx_hal_ltdc.c **** static void LTDC_SetPredefFormat(LTDC_HandleTypeDef *hltdc,  uint32_t LayerIdx);
 207:STM32Cube_FW_N6/Drivers/STM32N6xx_HAL_Driver/Src/stm32n6xx_hal_ltdc.c **** static void LTDC_RetrieveUserConfig(LTDC_HandleTypeDef *hltdc, uint32_t *Mirror, uint32_t *Aux0Addr
 208:STM32Cube_FW_N6/Drivers/STM32N6xx_HAL_Driver/Src/stm32n6xx_hal_ltdc.c ****                                     uint32_t *Aux1Addr, uint32_t LayerIdx);
 209:STM32Cube_FW_N6/Drivers/STM32N6xx_HAL_Driver/Src/stm32n6xx_hal_ltdc.c **** /* Private functions ---------------------------------------------------------*/
 210:STM32Cube_FW_N6/Drivers/STM32N6xx_HAL_Driver/Src/stm32n6xx_hal_ltdc.c **** 
 211:STM32Cube_FW_N6/Drivers/STM32N6xx_HAL_Driver/Src/stm32n6xx_hal_ltdc.c **** /** @defgroup LTDC_Exported_Functions LTDC Exported Functions
 212:STM32Cube_FW_N6/Drivers/STM32N6xx_HAL_Driver/Src/stm32n6xx_hal_ltdc.c ****   * @{
ARM GAS  /tmp/ccM4Rtv8.s 			page 6


 213:STM32Cube_FW_N6/Drivers/STM32N6xx_HAL_Driver/Src/stm32n6xx_hal_ltdc.c ****   */
 214:STM32Cube_FW_N6/Drivers/STM32N6xx_HAL_Driver/Src/stm32n6xx_hal_ltdc.c **** 
 215:STM32Cube_FW_N6/Drivers/STM32N6xx_HAL_Driver/Src/stm32n6xx_hal_ltdc.c **** /** @defgroup LTDC_Exported_Functions_Group1 Initialization and Configuration functions
 216:STM32Cube_FW_N6/Drivers/STM32N6xx_HAL_Driver/Src/stm32n6xx_hal_ltdc.c ****   *  @brief   Initialization and Configuration functions
 217:STM32Cube_FW_N6/Drivers/STM32N6xx_HAL_Driver/Src/stm32n6xx_hal_ltdc.c ****   *
 218:STM32Cube_FW_N6/Drivers/STM32N6xx_HAL_Driver/Src/stm32n6xx_hal_ltdc.c **** @verbatim
 219:STM32Cube_FW_N6/Drivers/STM32N6xx_HAL_Driver/Src/stm32n6xx_hal_ltdc.c ****  ===============================================================================
 220:STM32Cube_FW_N6/Drivers/STM32N6xx_HAL_Driver/Src/stm32n6xx_hal_ltdc.c ****                 ##### Initialization and Configuration functions #####
 221:STM32Cube_FW_N6/Drivers/STM32N6xx_HAL_Driver/Src/stm32n6xx_hal_ltdc.c ****  ===============================================================================
 222:STM32Cube_FW_N6/Drivers/STM32N6xx_HAL_Driver/Src/stm32n6xx_hal_ltdc.c ****     [..]  This section provides functions allowing to:
 223:STM32Cube_FW_N6/Drivers/STM32N6xx_HAL_Driver/Src/stm32n6xx_hal_ltdc.c ****       (+) Initialize and configure the LTDC
 224:STM32Cube_FW_N6/Drivers/STM32N6xx_HAL_Driver/Src/stm32n6xx_hal_ltdc.c ****       (+) De-initialize the LTDC
 225:STM32Cube_FW_N6/Drivers/STM32N6xx_HAL_Driver/Src/stm32n6xx_hal_ltdc.c **** 
 226:STM32Cube_FW_N6/Drivers/STM32N6xx_HAL_Driver/Src/stm32n6xx_hal_ltdc.c **** @endverbatim
 227:STM32Cube_FW_N6/Drivers/STM32N6xx_HAL_Driver/Src/stm32n6xx_hal_ltdc.c ****   * @{
 228:STM32Cube_FW_N6/Drivers/STM32N6xx_HAL_Driver/Src/stm32n6xx_hal_ltdc.c ****   */
 229:STM32Cube_FW_N6/Drivers/STM32N6xx_HAL_Driver/Src/stm32n6xx_hal_ltdc.c **** 
 230:STM32Cube_FW_N6/Drivers/STM32N6xx_HAL_Driver/Src/stm32n6xx_hal_ltdc.c **** /**
 231:STM32Cube_FW_N6/Drivers/STM32N6xx_HAL_Driver/Src/stm32n6xx_hal_ltdc.c ****   * @brief  Initialize the LTDC according to the specified parameters in the LTDC_InitTypeDef.
 232:STM32Cube_FW_N6/Drivers/STM32N6xx_HAL_Driver/Src/stm32n6xx_hal_ltdc.c ****   * @param  hltdc  pointer to a LTDC_HandleTypeDef structure that contains
 233:STM32Cube_FW_N6/Drivers/STM32N6xx_HAL_Driver/Src/stm32n6xx_hal_ltdc.c ****   *                the configuration information for the LTDC.
 234:STM32Cube_FW_N6/Drivers/STM32N6xx_HAL_Driver/Src/stm32n6xx_hal_ltdc.c ****   * @retval HAL status
 235:STM32Cube_FW_N6/Drivers/STM32N6xx_HAL_Driver/Src/stm32n6xx_hal_ltdc.c ****   */
 236:STM32Cube_FW_N6/Drivers/STM32N6xx_HAL_Driver/Src/stm32n6xx_hal_ltdc.c **** HAL_StatusTypeDef HAL_LTDC_Init(LTDC_HandleTypeDef *hltdc)
 237:STM32Cube_FW_N6/Drivers/STM32N6xx_HAL_Driver/Src/stm32n6xx_hal_ltdc.c **** {
  75              		.loc 1 237 1
  76              		.cfi_startproc
  77              		@ args = 0, pretend = 0, frame = 16
  78              		@ frame_needed = 1, uses_anonymous_args = 0
  79 0000 80B5     		push	{r7, lr}
  80              		.cfi_def_cfa_offset 8
  81              		.cfi_offset 7, -8
  82              		.cfi_offset 14, -4
  83 0002 84B0     		sub	sp, sp, #16
  84              		.cfi_def_cfa_offset 24
  85 0004 00AF     		add	r7, sp, #0
  86              		.cfi_def_cfa_register 7
  87 0006 7860     		str	r0, [r7, #4]
 238:STM32Cube_FW_N6/Drivers/STM32N6xx_HAL_Driver/Src/stm32n6xx_hal_ltdc.c ****   uint32_t tmp;
 239:STM32Cube_FW_N6/Drivers/STM32N6xx_HAL_Driver/Src/stm32n6xx_hal_ltdc.c ****   uint32_t tmp1;
 240:STM32Cube_FW_N6/Drivers/STM32N6xx_HAL_Driver/Src/stm32n6xx_hal_ltdc.c **** 
 241:STM32Cube_FW_N6/Drivers/STM32N6xx_HAL_Driver/Src/stm32n6xx_hal_ltdc.c ****   /* Check the LTDC peripheral state */
 242:STM32Cube_FW_N6/Drivers/STM32N6xx_HAL_Driver/Src/stm32n6xx_hal_ltdc.c ****   if (hltdc == NULL)
  88              		.loc 1 242 6
  89 0008 7B68     		ldr	r3, [r7, #4]
  90 000a 002B     		cmp	r3, #0
  91 000c 01D1     		bne	.L2
 243:STM32Cube_FW_N6/Drivers/STM32N6xx_HAL_Driver/Src/stm32n6xx_hal_ltdc.c ****   {
 244:STM32Cube_FW_N6/Drivers/STM32N6xx_HAL_Driver/Src/stm32n6xx_hal_ltdc.c ****     return HAL_ERROR;
  92              		.loc 1 244 12
  93 000e 0123     		movs	r3, #1
  94 0010 2CE1     		b	.L3
  95              	.L2:
 245:STM32Cube_FW_N6/Drivers/STM32N6xx_HAL_Driver/Src/stm32n6xx_hal_ltdc.c ****   }
 246:STM32Cube_FW_N6/Drivers/STM32N6xx_HAL_Driver/Src/stm32n6xx_hal_ltdc.c **** 
 247:STM32Cube_FW_N6/Drivers/STM32N6xx_HAL_Driver/Src/stm32n6xx_hal_ltdc.c ****   /* Check function parameters */
 248:STM32Cube_FW_N6/Drivers/STM32N6xx_HAL_Driver/Src/stm32n6xx_hal_ltdc.c ****   assert_param(IS_LTDC_ALL_INSTANCE(hltdc->Instance));
ARM GAS  /tmp/ccM4Rtv8.s 			page 7


  96              		.loc 1 248 3
  97 0012 7B68     		ldr	r3, [r7, #4]
  98 0014 1B68     		ldr	r3, [r3]
  99 0016 974A     		ldr	r2, .L18
 100 0018 9342     		cmp	r3, r2
 101 001a 08D0     		beq	.L4
 102              		.loc 1 248 3 is_stmt 0 discriminator 1
 103 001c 7B68     		ldr	r3, [r7, #4]
 104 001e 1B68     		ldr	r3, [r3]
 105 0020 954A     		ldr	r2, .L18+4
 106 0022 9342     		cmp	r3, r2
 107 0024 03D0     		beq	.L4
 108              		.loc 1 248 3 discriminator 2
 109 0026 F821     		movs	r1, #248
 110 0028 9448     		ldr	r0, .L18+8
 111 002a FFF7FEFF 		bl	assert_failed
 112              	.L4:
 249:STM32Cube_FW_N6/Drivers/STM32N6xx_HAL_Driver/Src/stm32n6xx_hal_ltdc.c ****   assert_param(IS_LTDC_HSYNC(hltdc->Init.HorizontalSync));
 113              		.loc 1 249 3 is_stmt 1
 114 002e 7B68     		ldr	r3, [r7, #4]
 115 0030 5B69     		ldr	r3, [r3, #20]
 116 0032 B3F5805F 		cmp	r3, #4096
 117 0036 03D3     		bcc	.L5
 118              		.loc 1 249 3 is_stmt 0 discriminator 1
 119 0038 F921     		movs	r1, #249
 120 003a 9048     		ldr	r0, .L18+8
 121 003c FFF7FEFF 		bl	assert_failed
 122              	.L5:
 250:STM32Cube_FW_N6/Drivers/STM32N6xx_HAL_Driver/Src/stm32n6xx_hal_ltdc.c ****   assert_param(IS_LTDC_VSYNC(hltdc->Init.VerticalSync));
 123              		.loc 1 250 3 is_stmt 1
 124 0040 7B68     		ldr	r3, [r7, #4]
 125 0042 9B69     		ldr	r3, [r3, #24]
 126 0044 B3F5805F 		cmp	r3, #4096
 127 0048 03D3     		bcc	.L6
 128              		.loc 1 250 3 is_stmt 0 discriminator 1
 129 004a FA21     		movs	r1, #250
 130 004c 8B48     		ldr	r0, .L18+8
 131 004e FFF7FEFF 		bl	assert_failed
 132              	.L6:
 251:STM32Cube_FW_N6/Drivers/STM32N6xx_HAL_Driver/Src/stm32n6xx_hal_ltdc.c ****   assert_param(IS_LTDC_AHBP(hltdc->Init.AccumulatedHBP));
 133              		.loc 1 251 3 is_stmt 1
 134 0052 7B68     		ldr	r3, [r7, #4]
 135 0054 DB69     		ldr	r3, [r3, #28]
 136 0056 B3F5805F 		cmp	r3, #4096
 137 005a 03D3     		bcc	.L7
 138              		.loc 1 251 3 is_stmt 0 discriminator 1
 139 005c FB21     		movs	r1, #251
 140 005e 8748     		ldr	r0, .L18+8
 141 0060 FFF7FEFF 		bl	assert_failed
 142              	.L7:
 252:STM32Cube_FW_N6/Drivers/STM32N6xx_HAL_Driver/Src/stm32n6xx_hal_ltdc.c ****   assert_param(IS_LTDC_AVBP(hltdc->Init.AccumulatedVBP));
 143              		.loc 1 252 3 is_stmt 1
 144 0064 7B68     		ldr	r3, [r7, #4]
 145 0066 1B6A     		ldr	r3, [r3, #32]
 146 0068 B3F5805F 		cmp	r3, #4096
 147 006c 03D3     		bcc	.L8
 148              		.loc 1 252 3 is_stmt 0 discriminator 1
ARM GAS  /tmp/ccM4Rtv8.s 			page 8


 149 006e FC21     		movs	r1, #252
 150 0070 8248     		ldr	r0, .L18+8
 151 0072 FFF7FEFF 		bl	assert_failed
 152              	.L8:
 253:STM32Cube_FW_N6/Drivers/STM32N6xx_HAL_Driver/Src/stm32n6xx_hal_ltdc.c ****   assert_param(IS_LTDC_AAH(hltdc->Init.AccumulatedActiveH));
 153              		.loc 1 253 3 is_stmt 1
 154 0076 7B68     		ldr	r3, [r7, #4]
 155 0078 9B6A     		ldr	r3, [r3, #40]
 156 007a B3F5805F 		cmp	r3, #4096
 157 007e 03D3     		bcc	.L9
 158              		.loc 1 253 3 is_stmt 0 discriminator 1
 159 0080 FD21     		movs	r1, #253
 160 0082 7E48     		ldr	r0, .L18+8
 161 0084 FFF7FEFF 		bl	assert_failed
 162              	.L9:
 254:STM32Cube_FW_N6/Drivers/STM32N6xx_HAL_Driver/Src/stm32n6xx_hal_ltdc.c ****   assert_param(IS_LTDC_AAW(hltdc->Init.AccumulatedActiveW));
 163              		.loc 1 254 3 is_stmt 1
 164 0088 7B68     		ldr	r3, [r7, #4]
 165 008a 5B6A     		ldr	r3, [r3, #36]
 166 008c B3F5805F 		cmp	r3, #4096
 167 0090 03D3     		bcc	.L10
 168              		.loc 1 254 3 is_stmt 0 discriminator 1
 169 0092 FE21     		movs	r1, #254
 170 0094 7948     		ldr	r0, .L18+8
 171 0096 FFF7FEFF 		bl	assert_failed
 172              	.L10:
 255:STM32Cube_FW_N6/Drivers/STM32N6xx_HAL_Driver/Src/stm32n6xx_hal_ltdc.c ****   assert_param(IS_LTDC_TOTALH(hltdc->Init.TotalHeigh));
 173              		.loc 1 255 3 is_stmt 1
 174 009a 7B68     		ldr	r3, [r7, #4]
 175 009c 1B6B     		ldr	r3, [r3, #48]
 176 009e B3F5805F 		cmp	r3, #4096
 177 00a2 03D3     		bcc	.L11
 178              		.loc 1 255 3 is_stmt 0 discriminator 1
 179 00a4 FF21     		movs	r1, #255
 180 00a6 7548     		ldr	r0, .L18+8
 181 00a8 FFF7FEFF 		bl	assert_failed
 182              	.L11:
 256:STM32Cube_FW_N6/Drivers/STM32N6xx_HAL_Driver/Src/stm32n6xx_hal_ltdc.c ****   assert_param(IS_LTDC_TOTALW(hltdc->Init.TotalWidth));
 183              		.loc 1 256 3 is_stmt 1
 184 00ac 7B68     		ldr	r3, [r7, #4]
 185 00ae DB6A     		ldr	r3, [r3, #44]
 186 00b0 B3F5805F 		cmp	r3, #4096
 187 00b4 04D3     		bcc	.L12
 188              		.loc 1 256 3 is_stmt 0 discriminator 1
 189 00b6 4FF48071 		mov	r1, #256
 190 00ba 7048     		ldr	r0, .L18+8
 191 00bc FFF7FEFF 		bl	assert_failed
 192              	.L12:
 257:STM32Cube_FW_N6/Drivers/STM32N6xx_HAL_Driver/Src/stm32n6xx_hal_ltdc.c ****   assert_param(IS_LTDC_HSPOL(hltdc->Init.HSPolarity));
 193              		.loc 1 257 3 is_stmt 1
 194 00c0 7B68     		ldr	r3, [r7, #4]
 195 00c2 5B68     		ldr	r3, [r3, #4]
 196 00c4 002B     		cmp	r3, #0
 197 00c6 09D0     		beq	.L13
 198              		.loc 1 257 3 is_stmt 0 discriminator 1
 199 00c8 7B68     		ldr	r3, [r7, #4]
 200 00ca 5B68     		ldr	r3, [r3, #4]
ARM GAS  /tmp/ccM4Rtv8.s 			page 9


 201 00cc B3F1004F 		cmp	r3, #-2147483648
 202 00d0 04D0     		beq	.L13
 203              		.loc 1 257 3 discriminator 2
 204 00d2 40F20111 		movw	r1, #257
 205 00d6 6948     		ldr	r0, .L18+8
 206 00d8 FFF7FEFF 		bl	assert_failed
 207              	.L13:
 258:STM32Cube_FW_N6/Drivers/STM32N6xx_HAL_Driver/Src/stm32n6xx_hal_ltdc.c ****   assert_param(IS_LTDC_VSPOL(hltdc->Init.VSPolarity));
 208              		.loc 1 258 3 is_stmt 1
 209 00dc 7B68     		ldr	r3, [r7, #4]
 210 00de 9B68     		ldr	r3, [r3, #8]
 211 00e0 002B     		cmp	r3, #0
 212 00e2 09D0     		beq	.L14
 213              		.loc 1 258 3 is_stmt 0 discriminator 1
 214 00e4 7B68     		ldr	r3, [r7, #4]
 215 00e6 9B68     		ldr	r3, [r3, #8]
 216 00e8 B3F1804F 		cmp	r3, #1073741824
 217 00ec 04D0     		beq	.L14
 218              		.loc 1 258 3 discriminator 2
 219 00ee 4FF48171 		mov	r1, #258
 220 00f2 6248     		ldr	r0, .L18+8
 221 00f4 FFF7FEFF 		bl	assert_failed
 222              	.L14:
 259:STM32Cube_FW_N6/Drivers/STM32N6xx_HAL_Driver/Src/stm32n6xx_hal_ltdc.c ****   assert_param(IS_LTDC_DEPOL(hltdc->Init.DEPolarity));
 223              		.loc 1 259 3 is_stmt 1
 224 00f8 7B68     		ldr	r3, [r7, #4]
 225 00fa DB68     		ldr	r3, [r3, #12]
 226 00fc 002B     		cmp	r3, #0
 227 00fe 09D0     		beq	.L15
 228              		.loc 1 259 3 is_stmt 0 discriminator 1
 229 0100 7B68     		ldr	r3, [r7, #4]
 230 0102 DB68     		ldr	r3, [r3, #12]
 231 0104 B3F1005F 		cmp	r3, #536870912
 232 0108 04D0     		beq	.L15
 233              		.loc 1 259 3 discriminator 2
 234 010a 40F20311 		movw	r1, #259
 235 010e 5B48     		ldr	r0, .L18+8
 236 0110 FFF7FEFF 		bl	assert_failed
 237              	.L15:
 260:STM32Cube_FW_N6/Drivers/STM32N6xx_HAL_Driver/Src/stm32n6xx_hal_ltdc.c ****   assert_param(IS_LTDC_PCPOL(hltdc->Init.PCPolarity));
 238              		.loc 1 260 3 is_stmt 1
 239 0114 7B68     		ldr	r3, [r7, #4]
 240 0116 1B69     		ldr	r3, [r3, #16]
 241 0118 002B     		cmp	r3, #0
 242 011a 09D0     		beq	.L16
 243              		.loc 1 260 3 is_stmt 0 discriminator 1
 244 011c 7B68     		ldr	r3, [r7, #4]
 245 011e 1B69     		ldr	r3, [r3, #16]
 246 0120 B3F1805F 		cmp	r3, #268435456
 247 0124 04D0     		beq	.L16
 248              		.loc 1 260 3 discriminator 2
 249 0126 4FF48271 		mov	r1, #260
 250 012a 5448     		ldr	r0, .L18+8
 251 012c FFF7FEFF 		bl	assert_failed
 252              	.L16:
 261:STM32Cube_FW_N6/Drivers/STM32N6xx_HAL_Driver/Src/stm32n6xx_hal_ltdc.c **** 
 262:STM32Cube_FW_N6/Drivers/STM32N6xx_HAL_Driver/Src/stm32n6xx_hal_ltdc.c **** #if (USE_HAL_LTDC_REGISTER_CALLBACKS == 1)
ARM GAS  /tmp/ccM4Rtv8.s 			page 10


 263:STM32Cube_FW_N6/Drivers/STM32N6xx_HAL_Driver/Src/stm32n6xx_hal_ltdc.c ****   if (hltdc->State == HAL_LTDC_STATE_RESET)
 264:STM32Cube_FW_N6/Drivers/STM32N6xx_HAL_Driver/Src/stm32n6xx_hal_ltdc.c ****   {
 265:STM32Cube_FW_N6/Drivers/STM32N6xx_HAL_Driver/Src/stm32n6xx_hal_ltdc.c ****     /* Allocate lock resource and initialize it */
 266:STM32Cube_FW_N6/Drivers/STM32N6xx_HAL_Driver/Src/stm32n6xx_hal_ltdc.c ****     hltdc->Lock = HAL_UNLOCKED;
 267:STM32Cube_FW_N6/Drivers/STM32N6xx_HAL_Driver/Src/stm32n6xx_hal_ltdc.c **** 
 268:STM32Cube_FW_N6/Drivers/STM32N6xx_HAL_Driver/Src/stm32n6xx_hal_ltdc.c ****     /* Reset the LTDC callback to the legacy weak callbacks */
 269:STM32Cube_FW_N6/Drivers/STM32N6xx_HAL_Driver/Src/stm32n6xx_hal_ltdc.c ****     hltdc->LineEventCallback   = HAL_LTDC_LineEventCallback;    /* Legacy weak LineEventCallback   
 270:STM32Cube_FW_N6/Drivers/STM32N6xx_HAL_Driver/Src/stm32n6xx_hal_ltdc.c ****     hltdc->ReloadEventCallback = HAL_LTDC_ReloadEventCallback;  /* Legacy weak ReloadEventCallback 
 271:STM32Cube_FW_N6/Drivers/STM32N6xx_HAL_Driver/Src/stm32n6xx_hal_ltdc.c ****     hltdc->ErrorCallback       = HAL_LTDC_ErrorCallback;        /* Legacy weak ErrorCallback       
 272:STM32Cube_FW_N6/Drivers/STM32N6xx_HAL_Driver/Src/stm32n6xx_hal_ltdc.c **** 
 273:STM32Cube_FW_N6/Drivers/STM32N6xx_HAL_Driver/Src/stm32n6xx_hal_ltdc.c ****     if (hltdc->MspInitCallback == NULL)
 274:STM32Cube_FW_N6/Drivers/STM32N6xx_HAL_Driver/Src/stm32n6xx_hal_ltdc.c ****     {
 275:STM32Cube_FW_N6/Drivers/STM32N6xx_HAL_Driver/Src/stm32n6xx_hal_ltdc.c ****       hltdc->MspInitCallback = HAL_LTDC_MspInit;
 276:STM32Cube_FW_N6/Drivers/STM32N6xx_HAL_Driver/Src/stm32n6xx_hal_ltdc.c ****     }
 277:STM32Cube_FW_N6/Drivers/STM32N6xx_HAL_Driver/Src/stm32n6xx_hal_ltdc.c ****     /* Init the low level hardware */
 278:STM32Cube_FW_N6/Drivers/STM32N6xx_HAL_Driver/Src/stm32n6xx_hal_ltdc.c ****     hltdc->MspInitCallback(hltdc);
 279:STM32Cube_FW_N6/Drivers/STM32N6xx_HAL_Driver/Src/stm32n6xx_hal_ltdc.c ****   }
 280:STM32Cube_FW_N6/Drivers/STM32N6xx_HAL_Driver/Src/stm32n6xx_hal_ltdc.c **** #else
 281:STM32Cube_FW_N6/Drivers/STM32N6xx_HAL_Driver/Src/stm32n6xx_hal_ltdc.c ****   if (hltdc->State == HAL_LTDC_STATE_RESET)
 253              		.loc 1 281 12 is_stmt 1
 254 0130 7B68     		ldr	r3, [r7, #4]
 255 0132 93F8A130 		ldrb	r3, [r3, #161]
 256 0136 DBB2     		uxtb	r3, r3
 257              		.loc 1 281 6
 258 0138 002B     		cmp	r3, #0
 259 013a 06D1     		bne	.L17
 282:STM32Cube_FW_N6/Drivers/STM32N6xx_HAL_Driver/Src/stm32n6xx_hal_ltdc.c ****   {
 283:STM32Cube_FW_N6/Drivers/STM32N6xx_HAL_Driver/Src/stm32n6xx_hal_ltdc.c ****     /* Allocate lock resource and initialize it */
 284:STM32Cube_FW_N6/Drivers/STM32N6xx_HAL_Driver/Src/stm32n6xx_hal_ltdc.c ****     hltdc->Lock = HAL_UNLOCKED;
 260              		.loc 1 284 17
 261 013c 7B68     		ldr	r3, [r7, #4]
 262 013e 0022     		movs	r2, #0
 263 0140 83F8A020 		strb	r2, [r3, #160]
 285:STM32Cube_FW_N6/Drivers/STM32N6xx_HAL_Driver/Src/stm32n6xx_hal_ltdc.c ****     /* Init the low level hardware */
 286:STM32Cube_FW_N6/Drivers/STM32N6xx_HAL_Driver/Src/stm32n6xx_hal_ltdc.c ****     HAL_LTDC_MspInit(hltdc);
 264              		.loc 1 286 5
 265 0144 7868     		ldr	r0, [r7, #4]
 266 0146 FFF7FEFF 		bl	HAL_LTDC_MspInit
 267              	.L17:
 287:STM32Cube_FW_N6/Drivers/STM32N6xx_HAL_Driver/Src/stm32n6xx_hal_ltdc.c ****   }
 288:STM32Cube_FW_N6/Drivers/STM32N6xx_HAL_Driver/Src/stm32n6xx_hal_ltdc.c **** #endif /* USE_HAL_LTDC_REGISTER_CALLBACKS */
 289:STM32Cube_FW_N6/Drivers/STM32N6xx_HAL_Driver/Src/stm32n6xx_hal_ltdc.c **** 
 290:STM32Cube_FW_N6/Drivers/STM32N6xx_HAL_Driver/Src/stm32n6xx_hal_ltdc.c ****   /* Change LTDC peripheral state */
 291:STM32Cube_FW_N6/Drivers/STM32N6xx_HAL_Driver/Src/stm32n6xx_hal_ltdc.c ****   hltdc->State = HAL_LTDC_STATE_BUSY;
 268              		.loc 1 291 16
 269 014a 7B68     		ldr	r3, [r7, #4]
 270 014c 0222     		movs	r2, #2
 271 014e 83F8A120 		strb	r2, [r3, #161]
 292:STM32Cube_FW_N6/Drivers/STM32N6xx_HAL_Driver/Src/stm32n6xx_hal_ltdc.c **** 
 293:STM32Cube_FW_N6/Drivers/STM32N6xx_HAL_Driver/Src/stm32n6xx_hal_ltdc.c ****   /* Configure the HS, VS, DE and PC polarity */
 294:STM32Cube_FW_N6/Drivers/STM32N6xx_HAL_Driver/Src/stm32n6xx_hal_ltdc.c ****   hltdc->Instance->GCR &= ~(LTDC_GCR_HSPOL | LTDC_GCR_VSPOL | LTDC_GCR_DEPOL | LTDC_GCR_PCPOL);
 272              		.loc 1 294 8
 273 0152 7B68     		ldr	r3, [r7, #4]
 274 0154 1B68     		ldr	r3, [r3]
 275              		.loc 1 294 18
 276 0156 9A69     		ldr	r2, [r3, #24]
 277              		.loc 1 294 8
ARM GAS  /tmp/ccM4Rtv8.s 			page 11


 278 0158 7B68     		ldr	r3, [r7, #4]
 279 015a 1B68     		ldr	r3, [r3]
 280              		.loc 1 294 24
 281 015c 22F07042 		bic	r2, r2, #-268435456
 282 0160 9A61     		str	r2, [r3, #24]
 295:STM32Cube_FW_N6/Drivers/STM32N6xx_HAL_Driver/Src/stm32n6xx_hal_ltdc.c ****   hltdc->Instance->GCR |= (uint32_t)(hltdc->Init.HSPolarity | hltdc->Init.VSPolarity | \
 283              		.loc 1 295 8
 284 0162 7B68     		ldr	r3, [r7, #4]
 285 0164 1B68     		ldr	r3, [r3]
 286              		.loc 1 295 18
 287 0166 9969     		ldr	r1, [r3, #24]
 288              		.loc 1 295 49
 289 0168 7B68     		ldr	r3, [r7, #4]
 290 016a 5A68     		ldr	r2, [r3, #4]
 291              		.loc 1 295 74
 292 016c 7B68     		ldr	r3, [r7, #4]
 293 016e 9B68     		ldr	r3, [r3, #8]
 294              		.loc 1 295 61
 295 0170 1A43     		orrs	r2, r2, r3
 296:STM32Cube_FW_N6/Drivers/STM32N6xx_HAL_Driver/Src/stm32n6xx_hal_ltdc.c ****                                      hltdc->Init.DEPolarity | hltdc->Init.PCPolarity);
 296              		.loc 1 296 49
 297 0172 7B68     		ldr	r3, [r7, #4]
 298 0174 DB68     		ldr	r3, [r3, #12]
 295:STM32Cube_FW_N6/Drivers/STM32N6xx_HAL_Driver/Src/stm32n6xx_hal_ltdc.c ****   hltdc->Instance->GCR |= (uint32_t)(hltdc->Init.HSPolarity | hltdc->Init.VSPolarity | \
 299              		.loc 1 295 86
 300 0176 1A43     		orrs	r2, r2, r3
 301              		.loc 1 296 74
 302 0178 7B68     		ldr	r3, [r7, #4]
 303 017a 1B69     		ldr	r3, [r3, #16]
 304              		.loc 1 296 61
 305 017c 1A43     		orrs	r2, r2, r3
 295:STM32Cube_FW_N6/Drivers/STM32N6xx_HAL_Driver/Src/stm32n6xx_hal_ltdc.c ****   hltdc->Instance->GCR |= (uint32_t)(hltdc->Init.HSPolarity | hltdc->Init.VSPolarity | \
 306              		.loc 1 295 8
 307 017e 7B68     		ldr	r3, [r7, #4]
 308 0180 1B68     		ldr	r3, [r3]
 295:STM32Cube_FW_N6/Drivers/STM32N6xx_HAL_Driver/Src/stm32n6xx_hal_ltdc.c ****   hltdc->Instance->GCR |= (uint32_t)(hltdc->Init.HSPolarity | hltdc->Init.VSPolarity | \
 309              		.loc 1 295 24
 310 0182 0A43     		orrs	r2, r2, r1
 311 0184 9A61     		str	r2, [r3, #24]
 297:STM32Cube_FW_N6/Drivers/STM32N6xx_HAL_Driver/Src/stm32n6xx_hal_ltdc.c **** 
 298:STM32Cube_FW_N6/Drivers/STM32N6xx_HAL_Driver/Src/stm32n6xx_hal_ltdc.c ****   /* Set Synchronization size */
 299:STM32Cube_FW_N6/Drivers/STM32N6xx_HAL_Driver/Src/stm32n6xx_hal_ltdc.c ****   tmp = (hltdc->Init.HorizontalSync << 16U);
 312              		.loc 1 299 21
 313 0186 7B68     		ldr	r3, [r7, #4]
 314 0188 5B69     		ldr	r3, [r3, #20]
 315              		.loc 1 299 7
 316 018a 1B04     		lsls	r3, r3, #16
 317 018c FB60     		str	r3, [r7, #12]
 300:STM32Cube_FW_N6/Drivers/STM32N6xx_HAL_Driver/Src/stm32n6xx_hal_ltdc.c ****   WRITE_REG(hltdc->Instance->SSCR, (tmp | hltdc->Init.VerticalSync));
 318              		.loc 1 300 3
 319 018e 7B68     		ldr	r3, [r7, #4]
 320 0190 9969     		ldr	r1, [r3, #24]
 321 0192 7B68     		ldr	r3, [r7, #4]
 322 0194 1B68     		ldr	r3, [r3]
 323 0196 FA68     		ldr	r2, [r7, #12]
 324 0198 0A43     		orrs	r2, r2, r1
 325 019a 9A60     		str	r2, [r3, #8]
ARM GAS  /tmp/ccM4Rtv8.s 			page 12


 301:STM32Cube_FW_N6/Drivers/STM32N6xx_HAL_Driver/Src/stm32n6xx_hal_ltdc.c **** 
 302:STM32Cube_FW_N6/Drivers/STM32N6xx_HAL_Driver/Src/stm32n6xx_hal_ltdc.c ****   /* Set Accumulated Back porch */
 303:STM32Cube_FW_N6/Drivers/STM32N6xx_HAL_Driver/Src/stm32n6xx_hal_ltdc.c ****   tmp = (hltdc->Init.AccumulatedHBP << 16U);
 326              		.loc 1 303 21
 327 019c 7B68     		ldr	r3, [r7, #4]
 328 019e DB69     		ldr	r3, [r3, #28]
 329              		.loc 1 303 7
 330 01a0 1B04     		lsls	r3, r3, #16
 331 01a2 FB60     		str	r3, [r7, #12]
 304:STM32Cube_FW_N6/Drivers/STM32N6xx_HAL_Driver/Src/stm32n6xx_hal_ltdc.c ****   WRITE_REG(hltdc->Instance->BPCR, (tmp | hltdc->Init.AccumulatedVBP));
 332              		.loc 1 304 3
 333 01a4 7B68     		ldr	r3, [r7, #4]
 334 01a6 196A     		ldr	r1, [r3, #32]
 335 01a8 7B68     		ldr	r3, [r7, #4]
 336 01aa 1B68     		ldr	r3, [r3]
 337 01ac FA68     		ldr	r2, [r7, #12]
 338 01ae 0A43     		orrs	r2, r2, r1
 339 01b0 DA60     		str	r2, [r3, #12]
 305:STM32Cube_FW_N6/Drivers/STM32N6xx_HAL_Driver/Src/stm32n6xx_hal_ltdc.c **** 
 306:STM32Cube_FW_N6/Drivers/STM32N6xx_HAL_Driver/Src/stm32n6xx_hal_ltdc.c ****   /* Set Accumulated Active Width */
 307:STM32Cube_FW_N6/Drivers/STM32N6xx_HAL_Driver/Src/stm32n6xx_hal_ltdc.c ****   tmp = (hltdc->Init.AccumulatedActiveW << 16U);
 340              		.loc 1 307 21
 341 01b2 7B68     		ldr	r3, [r7, #4]
 342 01b4 5B6A     		ldr	r3, [r3, #36]
 343              		.loc 1 307 7
 344 01b6 1B04     		lsls	r3, r3, #16
 345 01b8 FB60     		str	r3, [r7, #12]
 308:STM32Cube_FW_N6/Drivers/STM32N6xx_HAL_Driver/Src/stm32n6xx_hal_ltdc.c ****   WRITE_REG(hltdc->Instance->AWCR, (tmp | hltdc->Init.AccumulatedActiveH));
 346              		.loc 1 308 3
 347 01ba 7B68     		ldr	r3, [r7, #4]
 348 01bc 996A     		ldr	r1, [r3, #40]
 349 01be 7B68     		ldr	r3, [r7, #4]
 350 01c0 1B68     		ldr	r3, [r3]
 351 01c2 FA68     		ldr	r2, [r7, #12]
 352 01c4 0A43     		orrs	r2, r2, r1
 353 01c6 1A61     		str	r2, [r3, #16]
 309:STM32Cube_FW_N6/Drivers/STM32N6xx_HAL_Driver/Src/stm32n6xx_hal_ltdc.c **** 
 310:STM32Cube_FW_N6/Drivers/STM32N6xx_HAL_Driver/Src/stm32n6xx_hal_ltdc.c ****   /* Set Total Width */
 311:STM32Cube_FW_N6/Drivers/STM32N6xx_HAL_Driver/Src/stm32n6xx_hal_ltdc.c ****   tmp = (hltdc->Init.TotalWidth << 16U);
 354              		.loc 1 311 21
 355 01c8 7B68     		ldr	r3, [r7, #4]
 356 01ca DB6A     		ldr	r3, [r3, #44]
 357              		.loc 1 311 7
 358 01cc 1B04     		lsls	r3, r3, #16
 359 01ce FB60     		str	r3, [r7, #12]
 312:STM32Cube_FW_N6/Drivers/STM32N6xx_HAL_Driver/Src/stm32n6xx_hal_ltdc.c ****   WRITE_REG(hltdc->Instance->TWCR, (tmp | hltdc->Init.TotalHeigh));
 360              		.loc 1 312 3
 361 01d0 7B68     		ldr	r3, [r7, #4]
 362 01d2 196B     		ldr	r1, [r3, #48]
 363 01d4 7B68     		ldr	r3, [r7, #4]
 364 01d6 1B68     		ldr	r3, [r3]
 365 01d8 FA68     		ldr	r2, [r7, #12]
 366 01da 0A43     		orrs	r2, r2, r1
 367 01dc 5A61     		str	r2, [r3, #20]
 313:STM32Cube_FW_N6/Drivers/STM32N6xx_HAL_Driver/Src/stm32n6xx_hal_ltdc.c **** 
 314:STM32Cube_FW_N6/Drivers/STM32N6xx_HAL_Driver/Src/stm32n6xx_hal_ltdc.c ****   /* Set the background color value */
 315:STM32Cube_FW_N6/Drivers/STM32N6xx_HAL_Driver/Src/stm32n6xx_hal_ltdc.c ****   tmp = ((uint32_t)(hltdc->Init.Backcolor.Green) << 8U);
ARM GAS  /tmp/ccM4Rtv8.s 			page 13


 368              		.loc 1 315 42
 369 01de 7B68     		ldr	r3, [r7, #4]
 370 01e0 93F83530 		ldrb	r3, [r3, #53]	@ zero_extendqisi2
 371              		.loc 1 315 7
 372 01e4 1B02     		lsls	r3, r3, #8
 373 01e6 FB60     		str	r3, [r7, #12]
 316:STM32Cube_FW_N6/Drivers/STM32N6xx_HAL_Driver/Src/stm32n6xx_hal_ltdc.c ****   tmp1 = ((uint32_t)(hltdc->Init.Backcolor.Red) << 16U);
 374              		.loc 1 316 43
 375 01e8 7B68     		ldr	r3, [r7, #4]
 376 01ea 93F83630 		ldrb	r3, [r3, #54]	@ zero_extendqisi2
 377              		.loc 1 316 8
 378 01ee 1B04     		lsls	r3, r3, #16
 379 01f0 BB60     		str	r3, [r7, #8]
 317:STM32Cube_FW_N6/Drivers/STM32N6xx_HAL_Driver/Src/stm32n6xx_hal_ltdc.c ****   hltdc->Instance->BCCR &= ~(LTDC_BCCR_BCBLUE | LTDC_BCCR_BCGREEN | LTDC_BCCR_BCRED);
 380              		.loc 1 317 8
 381 01f2 7B68     		ldr	r3, [r7, #4]
 382 01f4 1B68     		ldr	r3, [r3]
 383              		.loc 1 317 18
 384 01f6 DA6A     		ldr	r2, [r3, #44]
 385              		.loc 1 317 8
 386 01f8 7B68     		ldr	r3, [r7, #4]
 387 01fa 1B68     		ldr	r3, [r3]
 388              		.loc 1 317 25
 389 01fc 02F07F42 		and	r2, r2, #-16777216
 390 0200 DA62     		str	r2, [r3, #44]
 318:STM32Cube_FW_N6/Drivers/STM32N6xx_HAL_Driver/Src/stm32n6xx_hal_ltdc.c ****   hltdc->Instance->BCCR |= (tmp1 | tmp | hltdc->Init.Backcolor.Blue);
 391              		.loc 1 318 8
 392 0202 7B68     		ldr	r3, [r7, #4]
 393 0204 1B68     		ldr	r3, [r3]
 394              		.loc 1 318 18
 395 0206 D96A     		ldr	r1, [r3, #44]
 396              		.loc 1 318 34
 397 0208 BA68     		ldr	r2, [r7, #8]
 398 020a FB68     		ldr	r3, [r7, #12]
 399 020c 1343     		orrs	r3, r3, r2
 400              		.loc 1 318 63
 401 020e 7A68     		ldr	r2, [r7, #4]
 402 0210 92F83420 		ldrb	r2, [r2, #52]	@ zero_extendqisi2
 403              		.loc 1 318 40
 404 0214 1A43     		orrs	r2, r2, r3
 405              		.loc 1 318 8
 406 0216 7B68     		ldr	r3, [r7, #4]
 407 0218 1B68     		ldr	r3, [r3]
 408              		.loc 1 318 25
 409 021a 0A43     		orrs	r2, r2, r1
 410 021c DA62     		str	r2, [r3, #44]
 319:STM32Cube_FW_N6/Drivers/STM32N6xx_HAL_Driver/Src/stm32n6xx_hal_ltdc.c **** 
 320:STM32Cube_FW_N6/Drivers/STM32N6xx_HAL_Driver/Src/stm32n6xx_hal_ltdc.c ****   /* Activate Global Reload for Layer 1 and Layer 2 */
 321:STM32Cube_FW_N6/Drivers/STM32N6xx_HAL_Driver/Src/stm32n6xx_hal_ltdc.c ****   WRITE_REG(LTDC_LAYER(hltdc, LTDC_LAYER_1)->RCR, LTDC_LxRCR_GRMSK);
 411              		.loc 1 321 3
 412 021e 7B68     		ldr	r3, [r7, #4]
 413 0220 1B68     		ldr	r3, [r3]
 414 0222 03F58073 		add	r3, r3, #256
 415 0226 1A46     		mov	r2, r3
 416 0228 0423     		movs	r3, #4
 417 022a 9360     		str	r3, [r2, #8]
 322:STM32Cube_FW_N6/Drivers/STM32N6xx_HAL_Driver/Src/stm32n6xx_hal_ltdc.c ****   WRITE_REG(LTDC_LAYER(hltdc, LTDC_LAYER_2)->RCR, LTDC_LxRCR_GRMSK);
ARM GAS  /tmp/ccM4Rtv8.s 			page 14


 418              		.loc 1 322 3
 419 022c 7B68     		ldr	r3, [r7, #4]
 420 022e 1B68     		ldr	r3, [r3]
 421 0230 03F50073 		add	r3, r3, #512
 422 0234 1A46     		mov	r2, r3
 423 0236 0423     		movs	r3, #4
 424 0238 9360     		str	r3, [r2, #8]
 323:STM32Cube_FW_N6/Drivers/STM32N6xx_HAL_Driver/Src/stm32n6xx_hal_ltdc.c **** 
 324:STM32Cube_FW_N6/Drivers/STM32N6xx_HAL_Driver/Src/stm32n6xx_hal_ltdc.c ****   /* Enable the Transfer Error and FIFO underrun interrupts */
 325:STM32Cube_FW_N6/Drivers/STM32N6xx_HAL_Driver/Src/stm32n6xx_hal_ltdc.c ****   __HAL_LTDC_ENABLE_IT(hltdc, LTDC_IT_TE | LTDC_IT_FU);
 425              		.loc 1 325 3
 426 023a 7B68     		ldr	r3, [r7, #4]
 427 023c 1B68     		ldr	r3, [r3]
 428 023e 5A6E     		ldr	r2, [r3, #100]
 429 0240 7B68     		ldr	r3, [r7, #4]
 430 0242 1B68     		ldr	r3, [r3]
 431 0244 42F04402 		orr	r2, r2, #68
 432 0248 5A66     		str	r2, [r3, #100]
 326:STM32Cube_FW_N6/Drivers/STM32N6xx_HAL_Driver/Src/stm32n6xx_hal_ltdc.c **** 
 327:STM32Cube_FW_N6/Drivers/STM32N6xx_HAL_Driver/Src/stm32n6xx_hal_ltdc.c ****   /* Enable LTDC by setting LTDCEN bit */
 328:STM32Cube_FW_N6/Drivers/STM32N6xx_HAL_Driver/Src/stm32n6xx_hal_ltdc.c ****   __HAL_LTDC_ENABLE(hltdc);
 433              		.loc 1 328 3
 434 024a 7B68     		ldr	r3, [r7, #4]
 435 024c 1B68     		ldr	r3, [r3]
 436 024e 9A69     		ldr	r2, [r3, #24]
 437 0250 7B68     		ldr	r3, [r7, #4]
 438 0252 1B68     		ldr	r3, [r3]
 439 0254 42F00102 		orr	r2, r2, #1
 440 0258 9A61     		str	r2, [r3, #24]
 329:STM32Cube_FW_N6/Drivers/STM32N6xx_HAL_Driver/Src/stm32n6xx_hal_ltdc.c **** 
 330:STM32Cube_FW_N6/Drivers/STM32N6xx_HAL_Driver/Src/stm32n6xx_hal_ltdc.c ****   /* Initialize the error code */
 331:STM32Cube_FW_N6/Drivers/STM32N6xx_HAL_Driver/Src/stm32n6xx_hal_ltdc.c ****   hltdc->ErrorCode = HAL_LTDC_ERROR_NONE;
 441              		.loc 1 331 20
 442 025a 7B68     		ldr	r3, [r7, #4]
 443 025c 0022     		movs	r2, #0
 444 025e C3F8A420 		str	r2, [r3, #164]
 332:STM32Cube_FW_N6/Drivers/STM32N6xx_HAL_Driver/Src/stm32n6xx_hal_ltdc.c **** 
 333:STM32Cube_FW_N6/Drivers/STM32N6xx_HAL_Driver/Src/stm32n6xx_hal_ltdc.c ****   /* Initialize the LTDC state*/
 334:STM32Cube_FW_N6/Drivers/STM32N6xx_HAL_Driver/Src/stm32n6xx_hal_ltdc.c ****   hltdc->State = HAL_LTDC_STATE_READY;
 445              		.loc 1 334 16
 446 0262 7B68     		ldr	r3, [r7, #4]
 447 0264 0122     		movs	r2, #1
 448 0266 83F8A120 		strb	r2, [r3, #161]
 335:STM32Cube_FW_N6/Drivers/STM32N6xx_HAL_Driver/Src/stm32n6xx_hal_ltdc.c **** 
 336:STM32Cube_FW_N6/Drivers/STM32N6xx_HAL_Driver/Src/stm32n6xx_hal_ltdc.c ****   return HAL_OK;
 449              		.loc 1 336 10
 450 026a 0023     		movs	r3, #0
 451              	.L3:
 337:STM32Cube_FW_N6/Drivers/STM32N6xx_HAL_Driver/Src/stm32n6xx_hal_ltdc.c **** }
 452              		.loc 1 337 1
 453 026c 1846     		mov	r0, r3
 454 026e 1037     		adds	r7, r7, #16
 455              		.cfi_def_cfa_offset 8
 456 0270 BD46     		mov	sp, r7
 457              		.cfi_def_cfa_register 13
 458              		@ sp needed
 459 0272 80BD     		pop	{r7, pc}
ARM GAS  /tmp/ccM4Rtv8.s 			page 15


 460              	.L19:
 461              		.align	2
 462              	.L18:
 463 0274 00100058 		.word	1476399104
 464 0278 00100048 		.word	1207963648
 465 027c 00000000 		.word	.LC0
 466              		.cfi_endproc
 467              	.LFE835:
 469              		.section	.text.HAL_LTDC_DeInit,"ax",%progbits
 470              		.align	1
 471              		.global	HAL_LTDC_DeInit
 472              		.syntax unified
 473              		.thumb
 474              		.thumb_func
 476              	HAL_LTDC_DeInit:
 477              	.LFB836:
 338:STM32Cube_FW_N6/Drivers/STM32N6xx_HAL_Driver/Src/stm32n6xx_hal_ltdc.c **** 
 339:STM32Cube_FW_N6/Drivers/STM32N6xx_HAL_Driver/Src/stm32n6xx_hal_ltdc.c **** /**
 340:STM32Cube_FW_N6/Drivers/STM32N6xx_HAL_Driver/Src/stm32n6xx_hal_ltdc.c ****   * @brief  De-initialize the LTDC peripheral.
 341:STM32Cube_FW_N6/Drivers/STM32N6xx_HAL_Driver/Src/stm32n6xx_hal_ltdc.c ****   * @param  hltdc  pointer to a LTDC_HandleTypeDef structure that contains
 342:STM32Cube_FW_N6/Drivers/STM32N6xx_HAL_Driver/Src/stm32n6xx_hal_ltdc.c ****   *                the configuration information for the LTDC.
 343:STM32Cube_FW_N6/Drivers/STM32N6xx_HAL_Driver/Src/stm32n6xx_hal_ltdc.c ****   * @retval None
 344:STM32Cube_FW_N6/Drivers/STM32N6xx_HAL_Driver/Src/stm32n6xx_hal_ltdc.c ****   */
 345:STM32Cube_FW_N6/Drivers/STM32N6xx_HAL_Driver/Src/stm32n6xx_hal_ltdc.c **** 
 346:STM32Cube_FW_N6/Drivers/STM32N6xx_HAL_Driver/Src/stm32n6xx_hal_ltdc.c **** HAL_StatusTypeDef HAL_LTDC_DeInit(LTDC_HandleTypeDef *hltdc)
 347:STM32Cube_FW_N6/Drivers/STM32N6xx_HAL_Driver/Src/stm32n6xx_hal_ltdc.c **** {
 478              		.loc 1 347 1
 479              		.cfi_startproc
 480              		@ args = 0, pretend = 0, frame = 16
 481              		@ frame_needed = 1, uses_anonymous_args = 0
 482 0000 80B5     		push	{r7, lr}
 483              		.cfi_def_cfa_offset 8
 484              		.cfi_offset 7, -8
 485              		.cfi_offset 14, -4
 486 0002 84B0     		sub	sp, sp, #16
 487              		.cfi_def_cfa_offset 24
 488 0004 00AF     		add	r7, sp, #0
 489              		.cfi_def_cfa_register 7
 490 0006 7860     		str	r0, [r7, #4]
 348:STM32Cube_FW_N6/Drivers/STM32N6xx_HAL_Driver/Src/stm32n6xx_hal_ltdc.c ****   uint32_t tickstart;
 349:STM32Cube_FW_N6/Drivers/STM32N6xx_HAL_Driver/Src/stm32n6xx_hal_ltdc.c **** 
 350:STM32Cube_FW_N6/Drivers/STM32N6xx_HAL_Driver/Src/stm32n6xx_hal_ltdc.c ****   /* Check the LTDC peripheral state */
 351:STM32Cube_FW_N6/Drivers/STM32N6xx_HAL_Driver/Src/stm32n6xx_hal_ltdc.c ****   if (hltdc == NULL)
 491              		.loc 1 351 6
 492 0008 7B68     		ldr	r3, [r7, #4]
 493 000a 002B     		cmp	r3, #0
 494 000c 01D1     		bne	.L21
 352:STM32Cube_FW_N6/Drivers/STM32N6xx_HAL_Driver/Src/stm32n6xx_hal_ltdc.c ****   {
 353:STM32Cube_FW_N6/Drivers/STM32N6xx_HAL_Driver/Src/stm32n6xx_hal_ltdc.c ****     return HAL_ERROR;
 495              		.loc 1 353 12
 496 000e 0123     		movs	r3, #1
 497 0010 5AE0     		b	.L22
 498              	.L21:
 354:STM32Cube_FW_N6/Drivers/STM32N6xx_HAL_Driver/Src/stm32n6xx_hal_ltdc.c ****   }
 355:STM32Cube_FW_N6/Drivers/STM32N6xx_HAL_Driver/Src/stm32n6xx_hal_ltdc.c **** 
 356:STM32Cube_FW_N6/Drivers/STM32N6xx_HAL_Driver/Src/stm32n6xx_hal_ltdc.c ****   /* Check function parameters */
 357:STM32Cube_FW_N6/Drivers/STM32N6xx_HAL_Driver/Src/stm32n6xx_hal_ltdc.c ****   assert_param(IS_LTDC_ALL_INSTANCE(hltdc->Instance));
ARM GAS  /tmp/ccM4Rtv8.s 			page 16


 499              		.loc 1 357 3
 500 0012 7B68     		ldr	r3, [r7, #4]
 501 0014 1B68     		ldr	r3, [r3]
 502 0016 2E4A     		ldr	r2, .L28
 503 0018 9342     		cmp	r3, r2
 504 001a 09D0     		beq	.L23
 505              		.loc 1 357 3 is_stmt 0 discriminator 1
 506 001c 7B68     		ldr	r3, [r7, #4]
 507 001e 1B68     		ldr	r3, [r3]
 508 0020 2C4A     		ldr	r2, .L28+4
 509 0022 9342     		cmp	r3, r2
 510 0024 04D0     		beq	.L23
 511              		.loc 1 357 3 discriminator 2
 512 0026 40F26511 		movw	r1, #357
 513 002a 2B48     		ldr	r0, .L28+8
 514 002c FFF7FEFF 		bl	assert_failed
 515              	.L23:
 358:STM32Cube_FW_N6/Drivers/STM32N6xx_HAL_Driver/Src/stm32n6xx_hal_ltdc.c **** 
 359:STM32Cube_FW_N6/Drivers/STM32N6xx_HAL_Driver/Src/stm32n6xx_hal_ltdc.c ****   /* Disable LTDC Layer 1 */
 360:STM32Cube_FW_N6/Drivers/STM32N6xx_HAL_Driver/Src/stm32n6xx_hal_ltdc.c ****   __HAL_LTDC_LAYER_DISABLE(hltdc, LTDC_LAYER_1);
 516              		.loc 1 360 3 is_stmt 1
 517 0030 7B68     		ldr	r3, [r7, #4]
 518 0032 1B68     		ldr	r3, [r3]
 519 0034 03F58073 		add	r3, r3, #256
 520 0038 DB68     		ldr	r3, [r3, #12]
 521 003a 7A68     		ldr	r2, [r7, #4]
 522 003c 1268     		ldr	r2, [r2]
 523 003e 02F58072 		add	r2, r2, #256
 524 0042 23F00103 		bic	r3, r3, #1
 525 0046 D360     		str	r3, [r2, #12]
 361:STM32Cube_FW_N6/Drivers/STM32N6xx_HAL_Driver/Src/stm32n6xx_hal_ltdc.c **** 
 362:STM32Cube_FW_N6/Drivers/STM32N6xx_HAL_Driver/Src/stm32n6xx_hal_ltdc.c **** #if defined(LTDC_Layer2_BASE)
 363:STM32Cube_FW_N6/Drivers/STM32N6xx_HAL_Driver/Src/stm32n6xx_hal_ltdc.c ****   /* Disable LTDC Layer 2 */
 364:STM32Cube_FW_N6/Drivers/STM32N6xx_HAL_Driver/Src/stm32n6xx_hal_ltdc.c ****   __HAL_LTDC_LAYER_DISABLE(hltdc, LTDC_LAYER_2);
 526              		.loc 1 364 3
 527 0048 7B68     		ldr	r3, [r7, #4]
 528 004a 1B68     		ldr	r3, [r3]
 529 004c 03F50073 		add	r3, r3, #512
 530 0050 DB68     		ldr	r3, [r3, #12]
 531 0052 7A68     		ldr	r2, [r7, #4]
 532 0054 1268     		ldr	r2, [r2]
 533 0056 02F50072 		add	r2, r2, #512
 534 005a 23F00103 		bic	r3, r3, #1
 535 005e D360     		str	r3, [r2, #12]
 365:STM32Cube_FW_N6/Drivers/STM32N6xx_HAL_Driver/Src/stm32n6xx_hal_ltdc.c **** #endif /* LTDC_Layer2_BASE */
 366:STM32Cube_FW_N6/Drivers/STM32N6xx_HAL_Driver/Src/stm32n6xx_hal_ltdc.c **** 
 367:STM32Cube_FW_N6/Drivers/STM32N6xx_HAL_Driver/Src/stm32n6xx_hal_ltdc.c ****   /* Reload during vertical blanking period */
 368:STM32Cube_FW_N6/Drivers/STM32N6xx_HAL_Driver/Src/stm32n6xx_hal_ltdc.c ****   __HAL_LTDC_VERTICAL_BLANKING_RELOAD_CONFIG(hltdc);
 536              		.loc 1 368 3
 537 0060 7B68     		ldr	r3, [r7, #4]
 538 0062 1B68     		ldr	r3, [r3]
 539 0064 5A6A     		ldr	r2, [r3, #36]
 540 0066 7B68     		ldr	r3, [r7, #4]
 541 0068 1B68     		ldr	r3, [r3]
 542 006a 42F00202 		orr	r2, r2, #2
 543 006e 5A62     		str	r2, [r3, #36]
 369:STM32Cube_FW_N6/Drivers/STM32N6xx_HAL_Driver/Src/stm32n6xx_hal_ltdc.c **** 
ARM GAS  /tmp/ccM4Rtv8.s 			page 17


 370:STM32Cube_FW_N6/Drivers/STM32N6xx_HAL_Driver/Src/stm32n6xx_hal_ltdc.c ****   /* Get tick */
 371:STM32Cube_FW_N6/Drivers/STM32N6xx_HAL_Driver/Src/stm32n6xx_hal_ltdc.c ****   tickstart = HAL_GetTick();
 544              		.loc 1 371 15
 545 0070 FFF7FEFF 		bl	HAL_GetTick
 546 0074 F860     		str	r0, [r7, #12]
 372:STM32Cube_FW_N6/Drivers/STM32N6xx_HAL_Driver/Src/stm32n6xx_hal_ltdc.c **** 
 373:STM32Cube_FW_N6/Drivers/STM32N6xx_HAL_Driver/Src/stm32n6xx_hal_ltdc.c ****   /* Wait for VSYNC Interrupt */
 374:STM32Cube_FW_N6/Drivers/STM32N6xx_HAL_Driver/Src/stm32n6xx_hal_ltdc.c ****   while (READ_BIT(hltdc->Instance->CDSR, LTDC_CDSR_VSYNCS) == 0U)
 547              		.loc 1 374 9
 548 0076 06E0     		b	.L24
 549              	.L26:
 375:STM32Cube_FW_N6/Drivers/STM32N6xx_HAL_Driver/Src/stm32n6xx_hal_ltdc.c ****   {
 376:STM32Cube_FW_N6/Drivers/STM32N6xx_HAL_Driver/Src/stm32n6xx_hal_ltdc.c ****     /* Check for the Timeout */
 377:STM32Cube_FW_N6/Drivers/STM32N6xx_HAL_Driver/Src/stm32n6xx_hal_ltdc.c ****     if ((HAL_GetTick() - tickstart) > LTDC_TIMEOUT_VALUE)
 550              		.loc 1 377 10
 551 0078 FFF7FEFF 		bl	HAL_GetTick
 552 007c 0246     		mov	r2, r0
 553              		.loc 1 377 24 discriminator 1
 554 007e FB68     		ldr	r3, [r7, #12]
 555 0080 D31A     		subs	r3, r2, r3
 556              		.loc 1 377 8 discriminator 1
 557 0082 642B     		cmp	r3, #100
 558 0084 07D8     		bhi	.L27
 559              	.L24:
 374:STM32Cube_FW_N6/Drivers/STM32N6xx_HAL_Driver/Src/stm32n6xx_hal_ltdc.c ****   {
 560              		.loc 1 374 10
 561 0086 7B68     		ldr	r3, [r7, #4]
 562 0088 1B68     		ldr	r3, [r3]
 563 008a 9B6C     		ldr	r3, [r3, #72]
 564 008c 03F00403 		and	r3, r3, #4
 374:STM32Cube_FW_N6/Drivers/STM32N6xx_HAL_Driver/Src/stm32n6xx_hal_ltdc.c ****   {
 565              		.loc 1 374 60
 566 0090 002B     		cmp	r3, #0
 567 0092 F1D0     		beq	.L26
 568 0094 00E0     		b	.L25
 569              	.L27:
 378:STM32Cube_FW_N6/Drivers/STM32N6xx_HAL_Driver/Src/stm32n6xx_hal_ltdc.c ****     {
 379:STM32Cube_FW_N6/Drivers/STM32N6xx_HAL_Driver/Src/stm32n6xx_hal_ltdc.c ****       break;
 570              		.loc 1 379 7
 571 0096 00BF     		nop
 572              	.L25:
 380:STM32Cube_FW_N6/Drivers/STM32N6xx_HAL_Driver/Src/stm32n6xx_hal_ltdc.c ****     }
 381:STM32Cube_FW_N6/Drivers/STM32N6xx_HAL_Driver/Src/stm32n6xx_hal_ltdc.c ****   }
 382:STM32Cube_FW_N6/Drivers/STM32N6xx_HAL_Driver/Src/stm32n6xx_hal_ltdc.c **** 
 383:STM32Cube_FW_N6/Drivers/STM32N6xx_HAL_Driver/Src/stm32n6xx_hal_ltdc.c ****   /* Disable LTDC  */
 384:STM32Cube_FW_N6/Drivers/STM32N6xx_HAL_Driver/Src/stm32n6xx_hal_ltdc.c ****   __HAL_LTDC_DISABLE(hltdc);
 573              		.loc 1 384 3
 574 0098 7B68     		ldr	r3, [r7, #4]
 575 009a 1B68     		ldr	r3, [r3]
 576 009c 9A69     		ldr	r2, [r3, #24]
 577 009e 7B68     		ldr	r3, [r7, #4]
 578 00a0 1B68     		ldr	r3, [r3]
 579 00a2 22F00102 		bic	r2, r2, #1
 580 00a6 9A61     		str	r2, [r3, #24]
 385:STM32Cube_FW_N6/Drivers/STM32N6xx_HAL_Driver/Src/stm32n6xx_hal_ltdc.c **** 
 386:STM32Cube_FW_N6/Drivers/STM32N6xx_HAL_Driver/Src/stm32n6xx_hal_ltdc.c **** #if (USE_HAL_LTDC_REGISTER_CALLBACKS == 1)
 387:STM32Cube_FW_N6/Drivers/STM32N6xx_HAL_Driver/Src/stm32n6xx_hal_ltdc.c ****   if (hltdc->MspDeInitCallback == NULL)
ARM GAS  /tmp/ccM4Rtv8.s 			page 18


 388:STM32Cube_FW_N6/Drivers/STM32N6xx_HAL_Driver/Src/stm32n6xx_hal_ltdc.c ****   {
 389:STM32Cube_FW_N6/Drivers/STM32N6xx_HAL_Driver/Src/stm32n6xx_hal_ltdc.c ****     hltdc->MspDeInitCallback = HAL_LTDC_MspDeInit;
 390:STM32Cube_FW_N6/Drivers/STM32N6xx_HAL_Driver/Src/stm32n6xx_hal_ltdc.c ****   }
 391:STM32Cube_FW_N6/Drivers/STM32N6xx_HAL_Driver/Src/stm32n6xx_hal_ltdc.c ****   /* DeInit the low level hardware */
 392:STM32Cube_FW_N6/Drivers/STM32N6xx_HAL_Driver/Src/stm32n6xx_hal_ltdc.c ****   hltdc->MspDeInitCallback(hltdc);
 393:STM32Cube_FW_N6/Drivers/STM32N6xx_HAL_Driver/Src/stm32n6xx_hal_ltdc.c **** #else
 394:STM32Cube_FW_N6/Drivers/STM32N6xx_HAL_Driver/Src/stm32n6xx_hal_ltdc.c ****   /* DeInit the low level hardware */
 395:STM32Cube_FW_N6/Drivers/STM32N6xx_HAL_Driver/Src/stm32n6xx_hal_ltdc.c ****   HAL_LTDC_MspDeInit(hltdc);
 581              		.loc 1 395 3
 582 00a8 7868     		ldr	r0, [r7, #4]
 583 00aa FFF7FEFF 		bl	HAL_LTDC_MspDeInit
 396:STM32Cube_FW_N6/Drivers/STM32N6xx_HAL_Driver/Src/stm32n6xx_hal_ltdc.c **** #endif /* USE_HAL_LTDC_REGISTER_CALLBACKS */
 397:STM32Cube_FW_N6/Drivers/STM32N6xx_HAL_Driver/Src/stm32n6xx_hal_ltdc.c **** 
 398:STM32Cube_FW_N6/Drivers/STM32N6xx_HAL_Driver/Src/stm32n6xx_hal_ltdc.c ****   /* Initialize the error code */
 399:STM32Cube_FW_N6/Drivers/STM32N6xx_HAL_Driver/Src/stm32n6xx_hal_ltdc.c ****   hltdc->ErrorCode = HAL_LTDC_ERROR_NONE;
 584              		.loc 1 399 20
 585 00ae 7B68     		ldr	r3, [r7, #4]
 586 00b0 0022     		movs	r2, #0
 587 00b2 C3F8A420 		str	r2, [r3, #164]
 400:STM32Cube_FW_N6/Drivers/STM32N6xx_HAL_Driver/Src/stm32n6xx_hal_ltdc.c **** 
 401:STM32Cube_FW_N6/Drivers/STM32N6xx_HAL_Driver/Src/stm32n6xx_hal_ltdc.c ****   /* Initialize the LTDC state*/
 402:STM32Cube_FW_N6/Drivers/STM32N6xx_HAL_Driver/Src/stm32n6xx_hal_ltdc.c ****   hltdc->State = HAL_LTDC_STATE_RESET;
 588              		.loc 1 402 16
 589 00b6 7B68     		ldr	r3, [r7, #4]
 590 00b8 0022     		movs	r2, #0
 591 00ba 83F8A120 		strb	r2, [r3, #161]
 403:STM32Cube_FW_N6/Drivers/STM32N6xx_HAL_Driver/Src/stm32n6xx_hal_ltdc.c **** 
 404:STM32Cube_FW_N6/Drivers/STM32N6xx_HAL_Driver/Src/stm32n6xx_hal_ltdc.c ****   /* Release Lock */
 405:STM32Cube_FW_N6/Drivers/STM32N6xx_HAL_Driver/Src/stm32n6xx_hal_ltdc.c ****   __HAL_UNLOCK(hltdc);
 592              		.loc 1 405 3
 593 00be 7B68     		ldr	r3, [r7, #4]
 594 00c0 0022     		movs	r2, #0
 595 00c2 83F8A020 		strb	r2, [r3, #160]
 406:STM32Cube_FW_N6/Drivers/STM32N6xx_HAL_Driver/Src/stm32n6xx_hal_ltdc.c **** 
 407:STM32Cube_FW_N6/Drivers/STM32N6xx_HAL_Driver/Src/stm32n6xx_hal_ltdc.c ****   return HAL_OK;
 596              		.loc 1 407 10
 597 00c6 0023     		movs	r3, #0
 598              	.L22:
 408:STM32Cube_FW_N6/Drivers/STM32N6xx_HAL_Driver/Src/stm32n6xx_hal_ltdc.c **** }
 599              		.loc 1 408 1
 600 00c8 1846     		mov	r0, r3
 601 00ca 1037     		adds	r7, r7, #16
 602              		.cfi_def_cfa_offset 8
 603 00cc BD46     		mov	sp, r7
 604              		.cfi_def_cfa_register 13
 605              		@ sp needed
 606 00ce 80BD     		pop	{r7, pc}
 607              	.L29:
 608              		.align	2
 609              	.L28:
 610 00d0 00100058 		.word	1476399104
 611 00d4 00100048 		.word	1207963648
 612 00d8 00000000 		.word	.LC0
 613              		.cfi_endproc
 614              	.LFE836:
 616              		.section	.text.HAL_LTDC_MspInit,"ax",%progbits
 617              		.align	1
ARM GAS  /tmp/ccM4Rtv8.s 			page 19


 618              		.weak	HAL_LTDC_MspInit
 619              		.syntax unified
 620              		.thumb
 621              		.thumb_func
 623              	HAL_LTDC_MspInit:
 624              	.LFB837:
 409:STM32Cube_FW_N6/Drivers/STM32N6xx_HAL_Driver/Src/stm32n6xx_hal_ltdc.c **** 
 410:STM32Cube_FW_N6/Drivers/STM32N6xx_HAL_Driver/Src/stm32n6xx_hal_ltdc.c **** /**
 411:STM32Cube_FW_N6/Drivers/STM32N6xx_HAL_Driver/Src/stm32n6xx_hal_ltdc.c ****   * @brief  Initialize the LTDC MSP.
 412:STM32Cube_FW_N6/Drivers/STM32N6xx_HAL_Driver/Src/stm32n6xx_hal_ltdc.c ****   * @param  hltdc  pointer to a LTDC_HandleTypeDef structure that contains
 413:STM32Cube_FW_N6/Drivers/STM32N6xx_HAL_Driver/Src/stm32n6xx_hal_ltdc.c ****   *                the configuration information for the LTDC.
 414:STM32Cube_FW_N6/Drivers/STM32N6xx_HAL_Driver/Src/stm32n6xx_hal_ltdc.c ****   * @retval None
 415:STM32Cube_FW_N6/Drivers/STM32N6xx_HAL_Driver/Src/stm32n6xx_hal_ltdc.c ****   */
 416:STM32Cube_FW_N6/Drivers/STM32N6xx_HAL_Driver/Src/stm32n6xx_hal_ltdc.c **** __weak void HAL_LTDC_MspInit(LTDC_HandleTypeDef *hltdc)
 417:STM32Cube_FW_N6/Drivers/STM32N6xx_HAL_Driver/Src/stm32n6xx_hal_ltdc.c **** {
 625              		.loc 1 417 1
 626              		.cfi_startproc
 627              		@ args = 0, pretend = 0, frame = 8
 628              		@ frame_needed = 1, uses_anonymous_args = 0
 629              		@ link register save eliminated.
 630 0000 80B4     		push	{r7}
 631              		.cfi_def_cfa_offset 4
 632              		.cfi_offset 7, -4
 633 0002 83B0     		sub	sp, sp, #12
 634              		.cfi_def_cfa_offset 16
 635 0004 00AF     		add	r7, sp, #0
 636              		.cfi_def_cfa_register 7
 637 0006 7860     		str	r0, [r7, #4]
 418:STM32Cube_FW_N6/Drivers/STM32N6xx_HAL_Driver/Src/stm32n6xx_hal_ltdc.c ****   /* Prevent unused argument(s) compilation warning */
 419:STM32Cube_FW_N6/Drivers/STM32N6xx_HAL_Driver/Src/stm32n6xx_hal_ltdc.c ****   UNUSED(hltdc);
 420:STM32Cube_FW_N6/Drivers/STM32N6xx_HAL_Driver/Src/stm32n6xx_hal_ltdc.c **** 
 421:STM32Cube_FW_N6/Drivers/STM32N6xx_HAL_Driver/Src/stm32n6xx_hal_ltdc.c ****   /* NOTE : This function should not be modified, when the callback is needed,
 422:STM32Cube_FW_N6/Drivers/STM32N6xx_HAL_Driver/Src/stm32n6xx_hal_ltdc.c ****             the HAL_LTDC_MspInit could be implemented in the user file
 423:STM32Cube_FW_N6/Drivers/STM32N6xx_HAL_Driver/Src/stm32n6xx_hal_ltdc.c ****    */
 424:STM32Cube_FW_N6/Drivers/STM32N6xx_HAL_Driver/Src/stm32n6xx_hal_ltdc.c **** }
 638              		.loc 1 424 1
 639 0008 00BF     		nop
 640 000a 0C37     		adds	r7, r7, #12
 641              		.cfi_def_cfa_offset 4
 642 000c BD46     		mov	sp, r7
 643              		.cfi_def_cfa_register 13
 644              		@ sp needed
 645 000e 5DF8047B 		ldr	r7, [sp], #4
 646              		.cfi_restore 7
 647              		.cfi_def_cfa_offset 0
 648 0012 7047     		bx	lr
 649              		.cfi_endproc
 650              	.LFE837:
 652              		.section	.text.HAL_LTDC_MspDeInit,"ax",%progbits
 653              		.align	1
 654              		.weak	HAL_LTDC_MspDeInit
 655              		.syntax unified
 656              		.thumb
 657              		.thumb_func
 659              	HAL_LTDC_MspDeInit:
 660              	.LFB838:
 425:STM32Cube_FW_N6/Drivers/STM32N6xx_HAL_Driver/Src/stm32n6xx_hal_ltdc.c **** 
ARM GAS  /tmp/ccM4Rtv8.s 			page 20


 426:STM32Cube_FW_N6/Drivers/STM32N6xx_HAL_Driver/Src/stm32n6xx_hal_ltdc.c **** /**
 427:STM32Cube_FW_N6/Drivers/STM32N6xx_HAL_Driver/Src/stm32n6xx_hal_ltdc.c ****   * @brief  De-initialize the LTDC MSP.
 428:STM32Cube_FW_N6/Drivers/STM32N6xx_HAL_Driver/Src/stm32n6xx_hal_ltdc.c ****   * @param  hltdc  pointer to a LTDC_HandleTypeDef structure that contains
 429:STM32Cube_FW_N6/Drivers/STM32N6xx_HAL_Driver/Src/stm32n6xx_hal_ltdc.c ****   *                the configuration information for the LTDC.
 430:STM32Cube_FW_N6/Drivers/STM32N6xx_HAL_Driver/Src/stm32n6xx_hal_ltdc.c ****   * @retval None
 431:STM32Cube_FW_N6/Drivers/STM32N6xx_HAL_Driver/Src/stm32n6xx_hal_ltdc.c ****   */
 432:STM32Cube_FW_N6/Drivers/STM32N6xx_HAL_Driver/Src/stm32n6xx_hal_ltdc.c **** __weak void HAL_LTDC_MspDeInit(LTDC_HandleTypeDef *hltdc)
 433:STM32Cube_FW_N6/Drivers/STM32N6xx_HAL_Driver/Src/stm32n6xx_hal_ltdc.c **** {
 661              		.loc 1 433 1
 662              		.cfi_startproc
 663              		@ args = 0, pretend = 0, frame = 8
 664              		@ frame_needed = 1, uses_anonymous_args = 0
 665              		@ link register save eliminated.
 666 0000 80B4     		push	{r7}
 667              		.cfi_def_cfa_offset 4
 668              		.cfi_offset 7, -4
 669 0002 83B0     		sub	sp, sp, #12
 670              		.cfi_def_cfa_offset 16
 671 0004 00AF     		add	r7, sp, #0
 672              		.cfi_def_cfa_register 7
 673 0006 7860     		str	r0, [r7, #4]
 434:STM32Cube_FW_N6/Drivers/STM32N6xx_HAL_Driver/Src/stm32n6xx_hal_ltdc.c ****   /* Prevent unused argument(s) compilation warning */
 435:STM32Cube_FW_N6/Drivers/STM32N6xx_HAL_Driver/Src/stm32n6xx_hal_ltdc.c ****   UNUSED(hltdc);
 436:STM32Cube_FW_N6/Drivers/STM32N6xx_HAL_Driver/Src/stm32n6xx_hal_ltdc.c **** 
 437:STM32Cube_FW_N6/Drivers/STM32N6xx_HAL_Driver/Src/stm32n6xx_hal_ltdc.c ****   /* NOTE : This function should not be modified, when the callback is needed,
 438:STM32Cube_FW_N6/Drivers/STM32N6xx_HAL_Driver/Src/stm32n6xx_hal_ltdc.c ****             the HAL_LTDC_MspDeInit could be implemented in the user file
 439:STM32Cube_FW_N6/Drivers/STM32N6xx_HAL_Driver/Src/stm32n6xx_hal_ltdc.c ****    */
 440:STM32Cube_FW_N6/Drivers/STM32N6xx_HAL_Driver/Src/stm32n6xx_hal_ltdc.c **** }
 674              		.loc 1 440 1
 675 0008 00BF     		nop
 676 000a 0C37     		adds	r7, r7, #12
 677              		.cfi_def_cfa_offset 4
 678 000c BD46     		mov	sp, r7
 679              		.cfi_def_cfa_register 13
 680              		@ sp needed
 681 000e 5DF8047B 		ldr	r7, [sp], #4
 682              		.cfi_restore 7
 683              		.cfi_def_cfa_offset 0
 684 0012 7047     		bx	lr
 685              		.cfi_endproc
 686              	.LFE838:
 688              		.section	.text.HAL_LTDC_ConfigBurstLength,"ax",%progbits
 689              		.align	1
 690              		.global	HAL_LTDC_ConfigBurstLength
 691              		.syntax unified
 692              		.thumb
 693              		.thumb_func
 695              	HAL_LTDC_ConfigBurstLength:
 696              	.LFB839:
 441:STM32Cube_FW_N6/Drivers/STM32N6xx_HAL_Driver/Src/stm32n6xx_hal_ltdc.c **** 
 442:STM32Cube_FW_N6/Drivers/STM32N6xx_HAL_Driver/Src/stm32n6xx_hal_ltdc.c **** #if (USE_HAL_LTDC_REGISTER_CALLBACKS == 1)
 443:STM32Cube_FW_N6/Drivers/STM32N6xx_HAL_Driver/Src/stm32n6xx_hal_ltdc.c **** /**
 444:STM32Cube_FW_N6/Drivers/STM32N6xx_HAL_Driver/Src/stm32n6xx_hal_ltdc.c ****   * @brief  Register a User LTDC Callback
 445:STM32Cube_FW_N6/Drivers/STM32N6xx_HAL_Driver/Src/stm32n6xx_hal_ltdc.c ****   *         To be used instead of the weak predefined callback
 446:STM32Cube_FW_N6/Drivers/STM32N6xx_HAL_Driver/Src/stm32n6xx_hal_ltdc.c ****   * @param hltdc ltdc handle
 447:STM32Cube_FW_N6/Drivers/STM32N6xx_HAL_Driver/Src/stm32n6xx_hal_ltdc.c ****   * @param CallbackID ID of the callback to be registered
 448:STM32Cube_FW_N6/Drivers/STM32N6xx_HAL_Driver/Src/stm32n6xx_hal_ltdc.c ****   *        This parameter can be one of the following values:
ARM GAS  /tmp/ccM4Rtv8.s 			page 21


 449:STM32Cube_FW_N6/Drivers/STM32N6xx_HAL_Driver/Src/stm32n6xx_hal_ltdc.c ****   *          @arg @ref HAL_LTDC_LINE_EVENT_CB_ID Line Event Callback ID
 450:STM32Cube_FW_N6/Drivers/STM32N6xx_HAL_Driver/Src/stm32n6xx_hal_ltdc.c ****   *          @arg @ref HAL_LTDC_RELOAD_EVENT_CB_ID Reload Event Callback ID
 451:STM32Cube_FW_N6/Drivers/STM32N6xx_HAL_Driver/Src/stm32n6xx_hal_ltdc.c ****   *          @arg @ref HAL_LTDC_ERROR_CB_ID Error Callback ID
 452:STM32Cube_FW_N6/Drivers/STM32N6xx_HAL_Driver/Src/stm32n6xx_hal_ltdc.c ****   *          @ref @ref HAL_LTDC_WARNING_EVENT_CB_ID Warning Event Callback ID
 453:STM32Cube_FW_N6/Drivers/STM32N6xx_HAL_Driver/Src/stm32n6xx_hal_ltdc.c ****   *          @arg @ref HAL_LTDC_MSPINIT_CB_ID MspInit callback ID
 454:STM32Cube_FW_N6/Drivers/STM32N6xx_HAL_Driver/Src/stm32n6xx_hal_ltdc.c ****   *          @arg @ref HAL_LTDC_MSPDEINIT_CB_ID MspDeInit callback ID
 455:STM32Cube_FW_N6/Drivers/STM32N6xx_HAL_Driver/Src/stm32n6xx_hal_ltdc.c ****   * @param pCallback pointer to the Callback function
 456:STM32Cube_FW_N6/Drivers/STM32N6xx_HAL_Driver/Src/stm32n6xx_hal_ltdc.c ****   * @retval status
 457:STM32Cube_FW_N6/Drivers/STM32N6xx_HAL_Driver/Src/stm32n6xx_hal_ltdc.c ****   */
 458:STM32Cube_FW_N6/Drivers/STM32N6xx_HAL_Driver/Src/stm32n6xx_hal_ltdc.c **** HAL_StatusTypeDef HAL_LTDC_RegisterCallback(LTDC_HandleTypeDef *hltdc, HAL_LTDC_CallbackIDTypeDef C
 459:STM32Cube_FW_N6/Drivers/STM32N6xx_HAL_Driver/Src/stm32n6xx_hal_ltdc.c ****                                             pLTDC_CallbackTypeDef pCallback)
 460:STM32Cube_FW_N6/Drivers/STM32N6xx_HAL_Driver/Src/stm32n6xx_hal_ltdc.c **** {
 461:STM32Cube_FW_N6/Drivers/STM32N6xx_HAL_Driver/Src/stm32n6xx_hal_ltdc.c ****   HAL_StatusTypeDef status = HAL_OK;
 462:STM32Cube_FW_N6/Drivers/STM32N6xx_HAL_Driver/Src/stm32n6xx_hal_ltdc.c **** 
 463:STM32Cube_FW_N6/Drivers/STM32N6xx_HAL_Driver/Src/stm32n6xx_hal_ltdc.c ****   if (pCallback == NULL)
 464:STM32Cube_FW_N6/Drivers/STM32N6xx_HAL_Driver/Src/stm32n6xx_hal_ltdc.c ****   {
 465:STM32Cube_FW_N6/Drivers/STM32N6xx_HAL_Driver/Src/stm32n6xx_hal_ltdc.c ****     /* Update the error code */
 466:STM32Cube_FW_N6/Drivers/STM32N6xx_HAL_Driver/Src/stm32n6xx_hal_ltdc.c ****     hltdc->ErrorCode |= HAL_LTDC_ERROR_INVALID_CALLBACK;
 467:STM32Cube_FW_N6/Drivers/STM32N6xx_HAL_Driver/Src/stm32n6xx_hal_ltdc.c **** 
 468:STM32Cube_FW_N6/Drivers/STM32N6xx_HAL_Driver/Src/stm32n6xx_hal_ltdc.c ****     return HAL_ERROR;
 469:STM32Cube_FW_N6/Drivers/STM32N6xx_HAL_Driver/Src/stm32n6xx_hal_ltdc.c ****   }
 470:STM32Cube_FW_N6/Drivers/STM32N6xx_HAL_Driver/Src/stm32n6xx_hal_ltdc.c ****   /* Process locked */
 471:STM32Cube_FW_N6/Drivers/STM32N6xx_HAL_Driver/Src/stm32n6xx_hal_ltdc.c ****   __HAL_LOCK(hltdc);
 472:STM32Cube_FW_N6/Drivers/STM32N6xx_HAL_Driver/Src/stm32n6xx_hal_ltdc.c **** 
 473:STM32Cube_FW_N6/Drivers/STM32N6xx_HAL_Driver/Src/stm32n6xx_hal_ltdc.c ****   if (hltdc->State == HAL_LTDC_STATE_READY)
 474:STM32Cube_FW_N6/Drivers/STM32N6xx_HAL_Driver/Src/stm32n6xx_hal_ltdc.c ****   {
 475:STM32Cube_FW_N6/Drivers/STM32N6xx_HAL_Driver/Src/stm32n6xx_hal_ltdc.c ****     switch (CallbackID)
 476:STM32Cube_FW_N6/Drivers/STM32N6xx_HAL_Driver/Src/stm32n6xx_hal_ltdc.c ****     {
 477:STM32Cube_FW_N6/Drivers/STM32N6xx_HAL_Driver/Src/stm32n6xx_hal_ltdc.c ****       case HAL_LTDC_LINE_EVENT_CB_ID :
 478:STM32Cube_FW_N6/Drivers/STM32N6xx_HAL_Driver/Src/stm32n6xx_hal_ltdc.c ****         hltdc->LineEventCallback = pCallback;
 479:STM32Cube_FW_N6/Drivers/STM32N6xx_HAL_Driver/Src/stm32n6xx_hal_ltdc.c ****         break;
 480:STM32Cube_FW_N6/Drivers/STM32N6xx_HAL_Driver/Src/stm32n6xx_hal_ltdc.c **** 
 481:STM32Cube_FW_N6/Drivers/STM32N6xx_HAL_Driver/Src/stm32n6xx_hal_ltdc.c ****       case HAL_LTDC_RELOAD_EVENT_CB_ID :
 482:STM32Cube_FW_N6/Drivers/STM32N6xx_HAL_Driver/Src/stm32n6xx_hal_ltdc.c ****         hltdc->ReloadEventCallback = pCallback;
 483:STM32Cube_FW_N6/Drivers/STM32N6xx_HAL_Driver/Src/stm32n6xx_hal_ltdc.c ****         break;
 484:STM32Cube_FW_N6/Drivers/STM32N6xx_HAL_Driver/Src/stm32n6xx_hal_ltdc.c **** 
 485:STM32Cube_FW_N6/Drivers/STM32N6xx_HAL_Driver/Src/stm32n6xx_hal_ltdc.c ****       case HAL_LTDC_ERROR_CB_ID :
 486:STM32Cube_FW_N6/Drivers/STM32N6xx_HAL_Driver/Src/stm32n6xx_hal_ltdc.c ****         hltdc->ErrorCallback = pCallback;
 487:STM32Cube_FW_N6/Drivers/STM32N6xx_HAL_Driver/Src/stm32n6xx_hal_ltdc.c ****         break;
 488:STM32Cube_FW_N6/Drivers/STM32N6xx_HAL_Driver/Src/stm32n6xx_hal_ltdc.c **** 
 489:STM32Cube_FW_N6/Drivers/STM32N6xx_HAL_Driver/Src/stm32n6xx_hal_ltdc.c ****       case HAL_LTDC_WARNING_EVENT_CB_ID:
 490:STM32Cube_FW_N6/Drivers/STM32N6xx_HAL_Driver/Src/stm32n6xx_hal_ltdc.c ****         hltdc->WarningEventCallback = pCallback;
 491:STM32Cube_FW_N6/Drivers/STM32N6xx_HAL_Driver/Src/stm32n6xx_hal_ltdc.c ****         break;
 492:STM32Cube_FW_N6/Drivers/STM32N6xx_HAL_Driver/Src/stm32n6xx_hal_ltdc.c **** 
 493:STM32Cube_FW_N6/Drivers/STM32N6xx_HAL_Driver/Src/stm32n6xx_hal_ltdc.c ****       case HAL_LTDC_MSPINIT_CB_ID :
 494:STM32Cube_FW_N6/Drivers/STM32N6xx_HAL_Driver/Src/stm32n6xx_hal_ltdc.c ****         hltdc->MspInitCallback = pCallback;
 495:STM32Cube_FW_N6/Drivers/STM32N6xx_HAL_Driver/Src/stm32n6xx_hal_ltdc.c ****         break;
 496:STM32Cube_FW_N6/Drivers/STM32N6xx_HAL_Driver/Src/stm32n6xx_hal_ltdc.c **** 
 497:STM32Cube_FW_N6/Drivers/STM32N6xx_HAL_Driver/Src/stm32n6xx_hal_ltdc.c ****       case HAL_LTDC_MSPDEINIT_CB_ID :
 498:STM32Cube_FW_N6/Drivers/STM32N6xx_HAL_Driver/Src/stm32n6xx_hal_ltdc.c ****         hltdc->MspDeInitCallback = pCallback;
 499:STM32Cube_FW_N6/Drivers/STM32N6xx_HAL_Driver/Src/stm32n6xx_hal_ltdc.c ****         break;
 500:STM32Cube_FW_N6/Drivers/STM32N6xx_HAL_Driver/Src/stm32n6xx_hal_ltdc.c **** 
 501:STM32Cube_FW_N6/Drivers/STM32N6xx_HAL_Driver/Src/stm32n6xx_hal_ltdc.c ****       default :
 502:STM32Cube_FW_N6/Drivers/STM32N6xx_HAL_Driver/Src/stm32n6xx_hal_ltdc.c ****         /* Update the error code */
 503:STM32Cube_FW_N6/Drivers/STM32N6xx_HAL_Driver/Src/stm32n6xx_hal_ltdc.c ****         hltdc->ErrorCode |= HAL_LTDC_ERROR_INVALID_CALLBACK;
 504:STM32Cube_FW_N6/Drivers/STM32N6xx_HAL_Driver/Src/stm32n6xx_hal_ltdc.c ****         /* Return error status */
 505:STM32Cube_FW_N6/Drivers/STM32N6xx_HAL_Driver/Src/stm32n6xx_hal_ltdc.c ****         status =  HAL_ERROR;
ARM GAS  /tmp/ccM4Rtv8.s 			page 22


 506:STM32Cube_FW_N6/Drivers/STM32N6xx_HAL_Driver/Src/stm32n6xx_hal_ltdc.c ****         break;
 507:STM32Cube_FW_N6/Drivers/STM32N6xx_HAL_Driver/Src/stm32n6xx_hal_ltdc.c ****     }
 508:STM32Cube_FW_N6/Drivers/STM32N6xx_HAL_Driver/Src/stm32n6xx_hal_ltdc.c ****   }
 509:STM32Cube_FW_N6/Drivers/STM32N6xx_HAL_Driver/Src/stm32n6xx_hal_ltdc.c ****   else if (hltdc->State == HAL_LTDC_STATE_RESET)
 510:STM32Cube_FW_N6/Drivers/STM32N6xx_HAL_Driver/Src/stm32n6xx_hal_ltdc.c ****   {
 511:STM32Cube_FW_N6/Drivers/STM32N6xx_HAL_Driver/Src/stm32n6xx_hal_ltdc.c ****     switch (CallbackID)
 512:STM32Cube_FW_N6/Drivers/STM32N6xx_HAL_Driver/Src/stm32n6xx_hal_ltdc.c ****     {
 513:STM32Cube_FW_N6/Drivers/STM32N6xx_HAL_Driver/Src/stm32n6xx_hal_ltdc.c ****       case HAL_LTDC_MSPINIT_CB_ID :
 514:STM32Cube_FW_N6/Drivers/STM32N6xx_HAL_Driver/Src/stm32n6xx_hal_ltdc.c ****         hltdc->MspInitCallback = pCallback;
 515:STM32Cube_FW_N6/Drivers/STM32N6xx_HAL_Driver/Src/stm32n6xx_hal_ltdc.c ****         break;
 516:STM32Cube_FW_N6/Drivers/STM32N6xx_HAL_Driver/Src/stm32n6xx_hal_ltdc.c **** 
 517:STM32Cube_FW_N6/Drivers/STM32N6xx_HAL_Driver/Src/stm32n6xx_hal_ltdc.c ****       case HAL_LTDC_MSPDEINIT_CB_ID :
 518:STM32Cube_FW_N6/Drivers/STM32N6xx_HAL_Driver/Src/stm32n6xx_hal_ltdc.c ****         hltdc->MspDeInitCallback = pCallback;
 519:STM32Cube_FW_N6/Drivers/STM32N6xx_HAL_Driver/Src/stm32n6xx_hal_ltdc.c ****         break;
 520:STM32Cube_FW_N6/Drivers/STM32N6xx_HAL_Driver/Src/stm32n6xx_hal_ltdc.c **** 
 521:STM32Cube_FW_N6/Drivers/STM32N6xx_HAL_Driver/Src/stm32n6xx_hal_ltdc.c ****       default :
 522:STM32Cube_FW_N6/Drivers/STM32N6xx_HAL_Driver/Src/stm32n6xx_hal_ltdc.c ****         /* Update the error code */
 523:STM32Cube_FW_N6/Drivers/STM32N6xx_HAL_Driver/Src/stm32n6xx_hal_ltdc.c ****         hltdc->ErrorCode |= HAL_LTDC_ERROR_INVALID_CALLBACK;
 524:STM32Cube_FW_N6/Drivers/STM32N6xx_HAL_Driver/Src/stm32n6xx_hal_ltdc.c ****         /* Return error status */
 525:STM32Cube_FW_N6/Drivers/STM32N6xx_HAL_Driver/Src/stm32n6xx_hal_ltdc.c ****         status =  HAL_ERROR;
 526:STM32Cube_FW_N6/Drivers/STM32N6xx_HAL_Driver/Src/stm32n6xx_hal_ltdc.c ****         break;
 527:STM32Cube_FW_N6/Drivers/STM32N6xx_HAL_Driver/Src/stm32n6xx_hal_ltdc.c ****     }
 528:STM32Cube_FW_N6/Drivers/STM32N6xx_HAL_Driver/Src/stm32n6xx_hal_ltdc.c ****   }
 529:STM32Cube_FW_N6/Drivers/STM32N6xx_HAL_Driver/Src/stm32n6xx_hal_ltdc.c ****   else
 530:STM32Cube_FW_N6/Drivers/STM32N6xx_HAL_Driver/Src/stm32n6xx_hal_ltdc.c ****   {
 531:STM32Cube_FW_N6/Drivers/STM32N6xx_HAL_Driver/Src/stm32n6xx_hal_ltdc.c ****     /* Update the error code */
 532:STM32Cube_FW_N6/Drivers/STM32N6xx_HAL_Driver/Src/stm32n6xx_hal_ltdc.c ****     hltdc->ErrorCode |= HAL_LTDC_ERROR_INVALID_CALLBACK;
 533:STM32Cube_FW_N6/Drivers/STM32N6xx_HAL_Driver/Src/stm32n6xx_hal_ltdc.c ****     /* Return error status */
 534:STM32Cube_FW_N6/Drivers/STM32N6xx_HAL_Driver/Src/stm32n6xx_hal_ltdc.c ****     status =  HAL_ERROR;
 535:STM32Cube_FW_N6/Drivers/STM32N6xx_HAL_Driver/Src/stm32n6xx_hal_ltdc.c ****   }
 536:STM32Cube_FW_N6/Drivers/STM32N6xx_HAL_Driver/Src/stm32n6xx_hal_ltdc.c **** 
 537:STM32Cube_FW_N6/Drivers/STM32N6xx_HAL_Driver/Src/stm32n6xx_hal_ltdc.c ****   /* Release Lock */
 538:STM32Cube_FW_N6/Drivers/STM32N6xx_HAL_Driver/Src/stm32n6xx_hal_ltdc.c ****   __HAL_UNLOCK(hltdc);
 539:STM32Cube_FW_N6/Drivers/STM32N6xx_HAL_Driver/Src/stm32n6xx_hal_ltdc.c **** 
 540:STM32Cube_FW_N6/Drivers/STM32N6xx_HAL_Driver/Src/stm32n6xx_hal_ltdc.c ****   return status;
 541:STM32Cube_FW_N6/Drivers/STM32N6xx_HAL_Driver/Src/stm32n6xx_hal_ltdc.c **** }
 542:STM32Cube_FW_N6/Drivers/STM32N6xx_HAL_Driver/Src/stm32n6xx_hal_ltdc.c **** 
 543:STM32Cube_FW_N6/Drivers/STM32N6xx_HAL_Driver/Src/stm32n6xx_hal_ltdc.c **** /**
 544:STM32Cube_FW_N6/Drivers/STM32N6xx_HAL_Driver/Src/stm32n6xx_hal_ltdc.c ****   * @brief  Unregister an LTDC Callback
 545:STM32Cube_FW_N6/Drivers/STM32N6xx_HAL_Driver/Src/stm32n6xx_hal_ltdc.c ****   *         LTDC callback is redirected to the weak predefined callback
 546:STM32Cube_FW_N6/Drivers/STM32N6xx_HAL_Driver/Src/stm32n6xx_hal_ltdc.c ****   * @param hltdc ltdc handle
 547:STM32Cube_FW_N6/Drivers/STM32N6xx_HAL_Driver/Src/stm32n6xx_hal_ltdc.c ****   * @param CallbackID ID of the callback to be unregistered
 548:STM32Cube_FW_N6/Drivers/STM32N6xx_HAL_Driver/Src/stm32n6xx_hal_ltdc.c ****   *        This parameter can be one of the following values:
 549:STM32Cube_FW_N6/Drivers/STM32N6xx_HAL_Driver/Src/stm32n6xx_hal_ltdc.c ****   *          @arg @ref HAL_LTDC_LINE_EVENT_CB_ID Line Event Callback ID
 550:STM32Cube_FW_N6/Drivers/STM32N6xx_HAL_Driver/Src/stm32n6xx_hal_ltdc.c ****   *          @arg @ref HAL_LTDC_RELOAD_EVENT_CB_ID Reload Event Callback ID
 551:STM32Cube_FW_N6/Drivers/STM32N6xx_HAL_Driver/Src/stm32n6xx_hal_ltdc.c ****   *          @arg @ref HAL_LTDC_ERROR_CB_ID Error Callback ID
 552:STM32Cube_FW_N6/Drivers/STM32N6xx_HAL_Driver/Src/stm32n6xx_hal_ltdc.c ****   *          @arg @ref HAL_LTDC_WARNING_EVENT_CB_ID Warning Event Callback ID
 553:STM32Cube_FW_N6/Drivers/STM32N6xx_HAL_Driver/Src/stm32n6xx_hal_ltdc.c ****   *          @arg @ref HAL_LTDC_MSPINIT_CB_ID MspInit callback ID
 554:STM32Cube_FW_N6/Drivers/STM32N6xx_HAL_Driver/Src/stm32n6xx_hal_ltdc.c ****   *          @arg @ref HAL_LTDC_MSPDEINIT_CB_ID MspDeInit callback ID
 555:STM32Cube_FW_N6/Drivers/STM32N6xx_HAL_Driver/Src/stm32n6xx_hal_ltdc.c ****   * @retval status
 556:STM32Cube_FW_N6/Drivers/STM32N6xx_HAL_Driver/Src/stm32n6xx_hal_ltdc.c ****   */
 557:STM32Cube_FW_N6/Drivers/STM32N6xx_HAL_Driver/Src/stm32n6xx_hal_ltdc.c **** HAL_StatusTypeDef HAL_LTDC_UnRegisterCallback(LTDC_HandleTypeDef *hltdc, HAL_LTDC_CallbackIDTypeDef
 558:STM32Cube_FW_N6/Drivers/STM32N6xx_HAL_Driver/Src/stm32n6xx_hal_ltdc.c **** {
 559:STM32Cube_FW_N6/Drivers/STM32N6xx_HAL_Driver/Src/stm32n6xx_hal_ltdc.c ****   HAL_StatusTypeDef status = HAL_OK;
 560:STM32Cube_FW_N6/Drivers/STM32N6xx_HAL_Driver/Src/stm32n6xx_hal_ltdc.c **** 
 561:STM32Cube_FW_N6/Drivers/STM32N6xx_HAL_Driver/Src/stm32n6xx_hal_ltdc.c ****   /* Process locked */
 562:STM32Cube_FW_N6/Drivers/STM32N6xx_HAL_Driver/Src/stm32n6xx_hal_ltdc.c ****   __HAL_LOCK(hltdc);
ARM GAS  /tmp/ccM4Rtv8.s 			page 23


 563:STM32Cube_FW_N6/Drivers/STM32N6xx_HAL_Driver/Src/stm32n6xx_hal_ltdc.c **** 
 564:STM32Cube_FW_N6/Drivers/STM32N6xx_HAL_Driver/Src/stm32n6xx_hal_ltdc.c ****   if (hltdc->State == HAL_LTDC_STATE_READY)
 565:STM32Cube_FW_N6/Drivers/STM32N6xx_HAL_Driver/Src/stm32n6xx_hal_ltdc.c ****   {
 566:STM32Cube_FW_N6/Drivers/STM32N6xx_HAL_Driver/Src/stm32n6xx_hal_ltdc.c ****     switch (CallbackID)
 567:STM32Cube_FW_N6/Drivers/STM32N6xx_HAL_Driver/Src/stm32n6xx_hal_ltdc.c ****     {
 568:STM32Cube_FW_N6/Drivers/STM32N6xx_HAL_Driver/Src/stm32n6xx_hal_ltdc.c ****       case HAL_LTDC_LINE_EVENT_CB_ID :
 569:STM32Cube_FW_N6/Drivers/STM32N6xx_HAL_Driver/Src/stm32n6xx_hal_ltdc.c ****         hltdc->LineEventCallback = HAL_LTDC_LineEventCallback;      /* Legacy weak LineEventCallbac
 570:STM32Cube_FW_N6/Drivers/STM32N6xx_HAL_Driver/Src/stm32n6xx_hal_ltdc.c ****         break;
 571:STM32Cube_FW_N6/Drivers/STM32N6xx_HAL_Driver/Src/stm32n6xx_hal_ltdc.c **** 
 572:STM32Cube_FW_N6/Drivers/STM32N6xx_HAL_Driver/Src/stm32n6xx_hal_ltdc.c ****       case HAL_LTDC_RELOAD_EVENT_CB_ID :
 573:STM32Cube_FW_N6/Drivers/STM32N6xx_HAL_Driver/Src/stm32n6xx_hal_ltdc.c ****         hltdc->ReloadEventCallback = HAL_LTDC_ReloadEventCallback;  /* Legacy weak ReloadEventCallb
 574:STM32Cube_FW_N6/Drivers/STM32N6xx_HAL_Driver/Src/stm32n6xx_hal_ltdc.c ****         break;
 575:STM32Cube_FW_N6/Drivers/STM32N6xx_HAL_Driver/Src/stm32n6xx_hal_ltdc.c **** 
 576:STM32Cube_FW_N6/Drivers/STM32N6xx_HAL_Driver/Src/stm32n6xx_hal_ltdc.c ****       case HAL_LTDC_ERROR_CB_ID :
 577:STM32Cube_FW_N6/Drivers/STM32N6xx_HAL_Driver/Src/stm32n6xx_hal_ltdc.c ****         hltdc->ErrorCallback       = HAL_LTDC_ErrorCallback;        /* Legacy weak ErrorCallback   
 578:STM32Cube_FW_N6/Drivers/STM32N6xx_HAL_Driver/Src/stm32n6xx_hal_ltdc.c ****         break;
 579:STM32Cube_FW_N6/Drivers/STM32N6xx_HAL_Driver/Src/stm32n6xx_hal_ltdc.c **** 
 580:STM32Cube_FW_N6/Drivers/STM32N6xx_HAL_Driver/Src/stm32n6xx_hal_ltdc.c ****       case HAL_LTDC_WARNING_EVENT_CB_ID :
 581:STM32Cube_FW_N6/Drivers/STM32N6xx_HAL_Driver/Src/stm32n6xx_hal_ltdc.c ****         hltdc->WarningEventCallback = HAL_LTDC_WarningEventCallback;
 582:STM32Cube_FW_N6/Drivers/STM32N6xx_HAL_Driver/Src/stm32n6xx_hal_ltdc.c ****         break;
 583:STM32Cube_FW_N6/Drivers/STM32N6xx_HAL_Driver/Src/stm32n6xx_hal_ltdc.c **** 
 584:STM32Cube_FW_N6/Drivers/STM32N6xx_HAL_Driver/Src/stm32n6xx_hal_ltdc.c ****       case HAL_LTDC_MSPINIT_CB_ID :
 585:STM32Cube_FW_N6/Drivers/STM32N6xx_HAL_Driver/Src/stm32n6xx_hal_ltdc.c ****         hltdc->MspInitCallback = HAL_LTDC_MspInit;                  /* Legcay weak MspInit Callback
 586:STM32Cube_FW_N6/Drivers/STM32N6xx_HAL_Driver/Src/stm32n6xx_hal_ltdc.c ****         break;
 587:STM32Cube_FW_N6/Drivers/STM32N6xx_HAL_Driver/Src/stm32n6xx_hal_ltdc.c **** 
 588:STM32Cube_FW_N6/Drivers/STM32N6xx_HAL_Driver/Src/stm32n6xx_hal_ltdc.c ****       case HAL_LTDC_MSPDEINIT_CB_ID :
 589:STM32Cube_FW_N6/Drivers/STM32N6xx_HAL_Driver/Src/stm32n6xx_hal_ltdc.c ****         hltdc->MspDeInitCallback = HAL_LTDC_MspDeInit;              /* Legcay weak MspDeInit Callba
 590:STM32Cube_FW_N6/Drivers/STM32N6xx_HAL_Driver/Src/stm32n6xx_hal_ltdc.c ****         break;
 591:STM32Cube_FW_N6/Drivers/STM32N6xx_HAL_Driver/Src/stm32n6xx_hal_ltdc.c **** 
 592:STM32Cube_FW_N6/Drivers/STM32N6xx_HAL_Driver/Src/stm32n6xx_hal_ltdc.c ****       default :
 593:STM32Cube_FW_N6/Drivers/STM32N6xx_HAL_Driver/Src/stm32n6xx_hal_ltdc.c ****         /* Update the error code */
 594:STM32Cube_FW_N6/Drivers/STM32N6xx_HAL_Driver/Src/stm32n6xx_hal_ltdc.c ****         hltdc->ErrorCode |= HAL_LTDC_ERROR_INVALID_CALLBACK;
 595:STM32Cube_FW_N6/Drivers/STM32N6xx_HAL_Driver/Src/stm32n6xx_hal_ltdc.c ****         /* Return error status */
 596:STM32Cube_FW_N6/Drivers/STM32N6xx_HAL_Driver/Src/stm32n6xx_hal_ltdc.c ****         status =  HAL_ERROR;
 597:STM32Cube_FW_N6/Drivers/STM32N6xx_HAL_Driver/Src/stm32n6xx_hal_ltdc.c ****         break;
 598:STM32Cube_FW_N6/Drivers/STM32N6xx_HAL_Driver/Src/stm32n6xx_hal_ltdc.c ****     }
 599:STM32Cube_FW_N6/Drivers/STM32N6xx_HAL_Driver/Src/stm32n6xx_hal_ltdc.c ****   }
 600:STM32Cube_FW_N6/Drivers/STM32N6xx_HAL_Driver/Src/stm32n6xx_hal_ltdc.c ****   else if (hltdc->State == HAL_LTDC_STATE_RESET)
 601:STM32Cube_FW_N6/Drivers/STM32N6xx_HAL_Driver/Src/stm32n6xx_hal_ltdc.c ****   {
 602:STM32Cube_FW_N6/Drivers/STM32N6xx_HAL_Driver/Src/stm32n6xx_hal_ltdc.c ****     switch (CallbackID)
 603:STM32Cube_FW_N6/Drivers/STM32N6xx_HAL_Driver/Src/stm32n6xx_hal_ltdc.c ****     {
 604:STM32Cube_FW_N6/Drivers/STM32N6xx_HAL_Driver/Src/stm32n6xx_hal_ltdc.c ****       case HAL_LTDC_MSPINIT_CB_ID :
 605:STM32Cube_FW_N6/Drivers/STM32N6xx_HAL_Driver/Src/stm32n6xx_hal_ltdc.c ****         hltdc->MspInitCallback = HAL_LTDC_MspInit;                  /* Legcay weak MspInit Callback
 606:STM32Cube_FW_N6/Drivers/STM32N6xx_HAL_Driver/Src/stm32n6xx_hal_ltdc.c ****         break;
 607:STM32Cube_FW_N6/Drivers/STM32N6xx_HAL_Driver/Src/stm32n6xx_hal_ltdc.c **** 
 608:STM32Cube_FW_N6/Drivers/STM32N6xx_HAL_Driver/Src/stm32n6xx_hal_ltdc.c ****       case HAL_LTDC_MSPDEINIT_CB_ID :
 609:STM32Cube_FW_N6/Drivers/STM32N6xx_HAL_Driver/Src/stm32n6xx_hal_ltdc.c ****         hltdc->MspDeInitCallback = HAL_LTDC_MspDeInit;              /* Legcay weak MspDeInit Callba
 610:STM32Cube_FW_N6/Drivers/STM32N6xx_HAL_Driver/Src/stm32n6xx_hal_ltdc.c ****         break;
 611:STM32Cube_FW_N6/Drivers/STM32N6xx_HAL_Driver/Src/stm32n6xx_hal_ltdc.c **** 
 612:STM32Cube_FW_N6/Drivers/STM32N6xx_HAL_Driver/Src/stm32n6xx_hal_ltdc.c ****       default :
 613:STM32Cube_FW_N6/Drivers/STM32N6xx_HAL_Driver/Src/stm32n6xx_hal_ltdc.c ****         /* Update the error code */
 614:STM32Cube_FW_N6/Drivers/STM32N6xx_HAL_Driver/Src/stm32n6xx_hal_ltdc.c ****         hltdc->ErrorCode |= HAL_LTDC_ERROR_INVALID_CALLBACK;
 615:STM32Cube_FW_N6/Drivers/STM32N6xx_HAL_Driver/Src/stm32n6xx_hal_ltdc.c ****         /* Return error status */
 616:STM32Cube_FW_N6/Drivers/STM32N6xx_HAL_Driver/Src/stm32n6xx_hal_ltdc.c ****         status =  HAL_ERROR;
 617:STM32Cube_FW_N6/Drivers/STM32N6xx_HAL_Driver/Src/stm32n6xx_hal_ltdc.c ****         break;
 618:STM32Cube_FW_N6/Drivers/STM32N6xx_HAL_Driver/Src/stm32n6xx_hal_ltdc.c ****     }
 619:STM32Cube_FW_N6/Drivers/STM32N6xx_HAL_Driver/Src/stm32n6xx_hal_ltdc.c ****   }
ARM GAS  /tmp/ccM4Rtv8.s 			page 24


 620:STM32Cube_FW_N6/Drivers/STM32N6xx_HAL_Driver/Src/stm32n6xx_hal_ltdc.c ****   else
 621:STM32Cube_FW_N6/Drivers/STM32N6xx_HAL_Driver/Src/stm32n6xx_hal_ltdc.c ****   {
 622:STM32Cube_FW_N6/Drivers/STM32N6xx_HAL_Driver/Src/stm32n6xx_hal_ltdc.c ****     /* Update the error code */
 623:STM32Cube_FW_N6/Drivers/STM32N6xx_HAL_Driver/Src/stm32n6xx_hal_ltdc.c ****     hltdc->ErrorCode |= HAL_LTDC_ERROR_INVALID_CALLBACK;
 624:STM32Cube_FW_N6/Drivers/STM32N6xx_HAL_Driver/Src/stm32n6xx_hal_ltdc.c ****     /* Return error status */
 625:STM32Cube_FW_N6/Drivers/STM32N6xx_HAL_Driver/Src/stm32n6xx_hal_ltdc.c ****     status =  HAL_ERROR;
 626:STM32Cube_FW_N6/Drivers/STM32N6xx_HAL_Driver/Src/stm32n6xx_hal_ltdc.c ****   }
 627:STM32Cube_FW_N6/Drivers/STM32N6xx_HAL_Driver/Src/stm32n6xx_hal_ltdc.c **** 
 628:STM32Cube_FW_N6/Drivers/STM32N6xx_HAL_Driver/Src/stm32n6xx_hal_ltdc.c ****   /* Release Lock */
 629:STM32Cube_FW_N6/Drivers/STM32N6xx_HAL_Driver/Src/stm32n6xx_hal_ltdc.c ****   __HAL_UNLOCK(hltdc);
 630:STM32Cube_FW_N6/Drivers/STM32N6xx_HAL_Driver/Src/stm32n6xx_hal_ltdc.c **** 
 631:STM32Cube_FW_N6/Drivers/STM32N6xx_HAL_Driver/Src/stm32n6xx_hal_ltdc.c ****   return status;
 632:STM32Cube_FW_N6/Drivers/STM32N6xx_HAL_Driver/Src/stm32n6xx_hal_ltdc.c **** }
 633:STM32Cube_FW_N6/Drivers/STM32N6xx_HAL_Driver/Src/stm32n6xx_hal_ltdc.c **** #endif /* USE_HAL_LTDC_REGISTER_CALLBACKS */
 634:STM32Cube_FW_N6/Drivers/STM32N6xx_HAL_Driver/Src/stm32n6xx_hal_ltdc.c **** 
 635:STM32Cube_FW_N6/Drivers/STM32N6xx_HAL_Driver/Src/stm32n6xx_hal_ltdc.c **** /**
 636:STM32Cube_FW_N6/Drivers/STM32N6xx_HAL_Driver/Src/stm32n6xx_hal_ltdc.c ****   * @brief  Configure the LTDC Layer burst length
 637:STM32Cube_FW_N6/Drivers/STM32N6xx_HAL_Driver/Src/stm32n6xx_hal_ltdc.c ****   * @param  hltdc        Pointer to a LTDC_HandleTypeDef structure that contains
 638:STM32Cube_FW_N6/Drivers/STM32N6xx_HAL_Driver/Src/stm32n6xx_hal_ltdc.c ****   *                       the configuration information for the LTDC.
 639:STM32Cube_FW_N6/Drivers/STM32N6xx_HAL_Driver/Src/stm32n6xx_hal_ltdc.c ****   * @param  BurstLength  Burst length.
 640:STM32Cube_FW_N6/Drivers/STM32N6xx_HAL_Driver/Src/stm32n6xx_hal_ltdc.c ****   *                       This parameter can be a value between 1-16
 641:STM32Cube_FW_N6/Drivers/STM32N6xx_HAL_Driver/Src/stm32n6xx_hal_ltdc.c ****   * @param  LayerIdx     LTDC Layer index.
 642:STM32Cube_FW_N6/Drivers/STM32N6xx_HAL_Driver/Src/stm32n6xx_hal_ltdc.c ****   *                       This parameter can be one of the following values:
 643:STM32Cube_FW_N6/Drivers/STM32N6xx_HAL_Driver/Src/stm32n6xx_hal_ltdc.c ****   *                       LTDC_LAYER_1 (0) or LTDC_LAYER_2 (1)
 644:STM32Cube_FW_N6/Drivers/STM32N6xx_HAL_Driver/Src/stm32n6xx_hal_ltdc.c ****   * @retval HAL status
 645:STM32Cube_FW_N6/Drivers/STM32N6xx_HAL_Driver/Src/stm32n6xx_hal_ltdc.c ****   */
 646:STM32Cube_FW_N6/Drivers/STM32N6xx_HAL_Driver/Src/stm32n6xx_hal_ltdc.c **** HAL_StatusTypeDef HAL_LTDC_ConfigBurstLength(LTDC_HandleTypeDef *hltdc, uint32_t BurstLength, uint3
 647:STM32Cube_FW_N6/Drivers/STM32N6xx_HAL_Driver/Src/stm32n6xx_hal_ltdc.c **** {
 697              		.loc 1 647 1
 698              		.cfi_startproc
 699              		@ args = 0, pretend = 0, frame = 16
 700              		@ frame_needed = 1, uses_anonymous_args = 0
 701 0000 80B5     		push	{r7, lr}
 702              		.cfi_def_cfa_offset 8
 703              		.cfi_offset 7, -8
 704              		.cfi_offset 14, -4
 705 0002 84B0     		sub	sp, sp, #16
 706              		.cfi_def_cfa_offset 24
 707 0004 00AF     		add	r7, sp, #0
 708              		.cfi_def_cfa_register 7
 709 0006 F860     		str	r0, [r7, #12]
 710 0008 B960     		str	r1, [r7, #8]
 711 000a 7A60     		str	r2, [r7, #4]
 648:STM32Cube_FW_N6/Drivers/STM32N6xx_HAL_Driver/Src/stm32n6xx_hal_ltdc.c ****   /* Check the parameters */
 649:STM32Cube_FW_N6/Drivers/STM32N6xx_HAL_Driver/Src/stm32n6xx_hal_ltdc.c ****   assert_param(IS_LTDC_LAYER(LayerIdx));
 712              		.loc 1 649 3
 713 000c 7B68     		ldr	r3, [r7, #4]
 714 000e 012B     		cmp	r3, #1
 715 0010 04D9     		bls	.L33
 716              		.loc 1 649 3 is_stmt 0 discriminator 1
 717 0012 40F28921 		movw	r1, #649
 718 0016 2448     		ldr	r0, .L38
 719 0018 FFF7FEFF 		bl	assert_failed
 720              	.L33:
 650:STM32Cube_FW_N6/Drivers/STM32N6xx_HAL_Driver/Src/stm32n6xx_hal_ltdc.c ****   assert_param(IS_LTDC_BURST_LENGTH(BurstLength));
 721              		.loc 1 650 3 is_stmt 1
 722 001c BB68     		ldr	r3, [r7, #8]
ARM GAS  /tmp/ccM4Rtv8.s 			page 25


 723 001e 102B     		cmp	r3, #16
 724 0020 02D8     		bhi	.L34
 725              		.loc 1 650 3 is_stmt 0 discriminator 2
 726 0022 BB68     		ldr	r3, [r7, #8]
 727 0024 002B     		cmp	r3, #0
 728 0026 04D1     		bne	.L35
 729              	.L34:
 730              		.loc 1 650 3 discriminator 3
 731 0028 40F28A21 		movw	r1, #650
 732 002c 1E48     		ldr	r0, .L38
 733 002e FFF7FEFF 		bl	assert_failed
 734              	.L35:
 651:STM32Cube_FW_N6/Drivers/STM32N6xx_HAL_Driver/Src/stm32n6xx_hal_ltdc.c **** 
 652:STM32Cube_FW_N6/Drivers/STM32N6xx_HAL_Driver/Src/stm32n6xx_hal_ltdc.c ****   /* Process locked */
 653:STM32Cube_FW_N6/Drivers/STM32N6xx_HAL_Driver/Src/stm32n6xx_hal_ltdc.c ****   __HAL_LOCK(hltdc);
 735              		.loc 1 653 3 is_stmt 1
 736 0032 FB68     		ldr	r3, [r7, #12]
 737 0034 93F8A030 		ldrb	r3, [r3, #160]	@ zero_extendqisi2
 738 0038 012B     		cmp	r3, #1
 739 003a 01D1     		bne	.L36
 740              		.loc 1 653 3 is_stmt 0 discriminator 1
 741 003c 0223     		movs	r3, #2
 742              		.loc 1 653 3
 743 003e 2FE0     		b	.L37
 744              	.L36:
 745              		.loc 1 653 3 discriminator 2
 746 0040 FB68     		ldr	r3, [r7, #12]
 747 0042 0122     		movs	r2, #1
 748 0044 83F8A020 		strb	r2, [r3, #160]
 654:STM32Cube_FW_N6/Drivers/STM32N6xx_HAL_Driver/Src/stm32n6xx_hal_ltdc.c **** 
 655:STM32Cube_FW_N6/Drivers/STM32N6xx_HAL_Driver/Src/stm32n6xx_hal_ltdc.c ****   /* Change LTDC peripheral state */
 656:STM32Cube_FW_N6/Drivers/STM32N6xx_HAL_Driver/Src/stm32n6xx_hal_ltdc.c ****   hltdc->State = HAL_LTDC_STATE_BUSY;
 749              		.loc 1 656 16 is_stmt 1
 750 0048 FB68     		ldr	r3, [r7, #12]
 751 004a 0222     		movs	r2, #2
 752 004c 83F8A120 		strb	r2, [r3, #161]
 657:STM32Cube_FW_N6/Drivers/STM32N6xx_HAL_Driver/Src/stm32n6xx_hal_ltdc.c **** 
 658:STM32Cube_FW_N6/Drivers/STM32N6xx_HAL_Driver/Src/stm32n6xx_hal_ltdc.c ****   /* Configure the layer burst length configuration register */
 659:STM32Cube_FW_N6/Drivers/STM32N6xx_HAL_Driver/Src/stm32n6xx_hal_ltdc.c ****   LTDC_LAYER(hltdc, LayerIdx)->BLCR  &= ~(LTDC_LxBLCR_BL);
 753              		.loc 1 659 3
 754 0050 FB68     		ldr	r3, [r7, #12]
 755 0052 1B68     		ldr	r3, [r3]
 756              		.loc 1 659 30
 757 0054 1A46     		mov	r2, r3
 758 0056 7B68     		ldr	r3, [r7, #4]
 759 0058 1B02     		lsls	r3, r3, #8
 760 005a 1344     		add	r3, r3, r2
 761 005c 03F58073 		add	r3, r3, #256
 762 0060 DB6A     		ldr	r3, [r3, #44]
 763              		.loc 1 659 3
 764 0062 FA68     		ldr	r2, [r7, #12]
 765 0064 1268     		ldr	r2, [r2]
 766              		.loc 1 659 30
 767 0066 1146     		mov	r1, r2
 768 0068 7A68     		ldr	r2, [r7, #4]
 769 006a 1202     		lsls	r2, r2, #8
 770 006c 0A44     		add	r2, r2, r1
ARM GAS  /tmp/ccM4Rtv8.s 			page 26


 771 006e 02F58072 		add	r2, r2, #256
 772              		.loc 1 659 38
 773 0072 23F01F03 		bic	r3, r3, #31
 774 0076 D362     		str	r3, [r2, #44]
 660:STM32Cube_FW_N6/Drivers/STM32N6xx_HAL_Driver/Src/stm32n6xx_hal_ltdc.c ****   LTDC_LAYER(hltdc, LayerIdx)->BLCR  = BurstLength;
 775              		.loc 1 660 3
 776 0078 FB68     		ldr	r3, [r7, #12]
 777 007a 1B68     		ldr	r3, [r3]
 778 007c 1A46     		mov	r2, r3
 779 007e 7B68     		ldr	r3, [r7, #4]
 780 0080 1B02     		lsls	r3, r3, #8
 781 0082 1344     		add	r3, r3, r2
 782 0084 03F58073 		add	r3, r3, #256
 783 0088 1A46     		mov	r2, r3
 784              		.loc 1 660 38
 785 008a BB68     		ldr	r3, [r7, #8]
 786 008c D362     		str	r3, [r2, #44]
 661:STM32Cube_FW_N6/Drivers/STM32N6xx_HAL_Driver/Src/stm32n6xx_hal_ltdc.c **** 
 662:STM32Cube_FW_N6/Drivers/STM32N6xx_HAL_Driver/Src/stm32n6xx_hal_ltdc.c ****   /* Initialize the LTDC state*/
 663:STM32Cube_FW_N6/Drivers/STM32N6xx_HAL_Driver/Src/stm32n6xx_hal_ltdc.c ****   hltdc->State  = HAL_LTDC_STATE_READY;
 787              		.loc 1 663 17
 788 008e FB68     		ldr	r3, [r7, #12]
 789 0090 0122     		movs	r2, #1
 790 0092 83F8A120 		strb	r2, [r3, #161]
 664:STM32Cube_FW_N6/Drivers/STM32N6xx_HAL_Driver/Src/stm32n6xx_hal_ltdc.c **** 
 665:STM32Cube_FW_N6/Drivers/STM32N6xx_HAL_Driver/Src/stm32n6xx_hal_ltdc.c ****   /* Process unlocked */
 666:STM32Cube_FW_N6/Drivers/STM32N6xx_HAL_Driver/Src/stm32n6xx_hal_ltdc.c ****   __HAL_UNLOCK(hltdc);
 791              		.loc 1 666 3
 792 0096 FB68     		ldr	r3, [r7, #12]
 793 0098 0022     		movs	r2, #0
 794 009a 83F8A020 		strb	r2, [r3, #160]
 667:STM32Cube_FW_N6/Drivers/STM32N6xx_HAL_Driver/Src/stm32n6xx_hal_ltdc.c **** 
 668:STM32Cube_FW_N6/Drivers/STM32N6xx_HAL_Driver/Src/stm32n6xx_hal_ltdc.c ****   return HAL_OK;
 795              		.loc 1 668 10
 796 009e 0023     		movs	r3, #0
 797              	.L37:
 669:STM32Cube_FW_N6/Drivers/STM32N6xx_HAL_Driver/Src/stm32n6xx_hal_ltdc.c **** }
 798              		.loc 1 669 1
 799 00a0 1846     		mov	r0, r3
 800 00a2 1037     		adds	r7, r7, #16
 801              		.cfi_def_cfa_offset 8
 802 00a4 BD46     		mov	sp, r7
 803              		.cfi_def_cfa_register 13
 804              		@ sp needed
 805 00a6 80BD     		pop	{r7, pc}
 806              	.L39:
 807              		.align	2
 808              	.L38:
 809 00a8 00000000 		.word	.LC0
 810              		.cfi_endproc
 811              	.LFE839:
 813              		.section	.text.HAL_LTDC_ConfigUnderrunThreshold,"ax",%progbits
 814              		.align	1
 815              		.global	HAL_LTDC_ConfigUnderrunThreshold
 816              		.syntax unified
 817              		.thumb
 818              		.thumb_func
ARM GAS  /tmp/ccM4Rtv8.s 			page 27


 820              	HAL_LTDC_ConfigUnderrunThreshold:
 821              	.LFB840:
 670:STM32Cube_FW_N6/Drivers/STM32N6xx_HAL_Driver/Src/stm32n6xx_hal_ltdc.c **** 
 671:STM32Cube_FW_N6/Drivers/STM32N6xx_HAL_Driver/Src/stm32n6xx_hal_ltdc.c **** 
 672:STM32Cube_FW_N6/Drivers/STM32N6xx_HAL_Driver/Src/stm32n6xx_hal_ltdc.c **** /**
 673:STM32Cube_FW_N6/Drivers/STM32N6xx_HAL_Driver/Src/stm32n6xx_hal_ltdc.c ****   * @brief               Configure the LTDC Underrun Threshold.
 674:STM32Cube_FW_N6/Drivers/STM32N6xx_HAL_Driver/Src/stm32n6xx_hal_ltdc.c ****   * @param  hltdc        Pointer to a LTDC_HandleTypeDef structure that contains
 675:STM32Cube_FW_N6/Drivers/STM32N6xx_HAL_Driver/Src/stm32n6xx_hal_ltdc.c ****   *                       the configuration information for the LTDC.
 676:STM32Cube_FW_N6/Drivers/STM32N6xx_HAL_Driver/Src/stm32n6xx_hal_ltdc.c ****   * @param  Threshold    Threshold above which
 677:STM32Cube_FW_N6/Drivers/STM32N6xx_HAL_Driver/Src/stm32n6xx_hal_ltdc.c ****   *                       a FIFO underrun warning becomes a FIFO underrun error.
 678:STM32Cube_FW_N6/Drivers/STM32N6xx_HAL_Driver/Src/stm32n6xx_hal_ltdc.c ****   *                       This parameter can be a value between 0 - 0XFFFF
 679:STM32Cube_FW_N6/Drivers/STM32N6xx_HAL_Driver/Src/stm32n6xx_hal_ltdc.c ****   * @retval HAL status
 680:STM32Cube_FW_N6/Drivers/STM32N6xx_HAL_Driver/Src/stm32n6xx_hal_ltdc.c ****   */
 681:STM32Cube_FW_N6/Drivers/STM32N6xx_HAL_Driver/Src/stm32n6xx_hal_ltdc.c **** HAL_StatusTypeDef HAL_LTDC_ConfigUnderrunThreshold(LTDC_HandleTypeDef *hltdc, uint16_t Threshold)
 682:STM32Cube_FW_N6/Drivers/STM32N6xx_HAL_Driver/Src/stm32n6xx_hal_ltdc.c **** {
 822              		.loc 1 682 1
 823              		.cfi_startproc
 824              		@ args = 0, pretend = 0, frame = 8
 825              		@ frame_needed = 1, uses_anonymous_args = 0
 826              		@ link register save eliminated.
 827 0000 80B4     		push	{r7}
 828              		.cfi_def_cfa_offset 4
 829              		.cfi_offset 7, -4
 830 0002 83B0     		sub	sp, sp, #12
 831              		.cfi_def_cfa_offset 16
 832 0004 00AF     		add	r7, sp, #0
 833              		.cfi_def_cfa_register 7
 834 0006 7860     		str	r0, [r7, #4]
 835 0008 0B46     		mov	r3, r1
 836 000a 7B80     		strh	r3, [r7, #2]	@ movhi
 683:STM32Cube_FW_N6/Drivers/STM32N6xx_HAL_Driver/Src/stm32n6xx_hal_ltdc.c ****   /* Process locked */
 684:STM32Cube_FW_N6/Drivers/STM32N6xx_HAL_Driver/Src/stm32n6xx_hal_ltdc.c ****   __HAL_LOCK(hltdc);
 837              		.loc 1 684 3
 838 000c 7B68     		ldr	r3, [r7, #4]
 839 000e 93F8A030 		ldrb	r3, [r3, #160]	@ zero_extendqisi2
 840 0012 012B     		cmp	r3, #1
 841 0014 01D1     		bne	.L41
 842              		.loc 1 684 3 is_stmt 0 discriminator 1
 843 0016 0223     		movs	r3, #2
 844              		.loc 1 684 3
 845 0018 1FE0     		b	.L42
 846              	.L41:
 847              		.loc 1 684 3 discriminator 2
 848 001a 7B68     		ldr	r3, [r7, #4]
 849 001c 0122     		movs	r2, #1
 850 001e 83F8A020 		strb	r2, [r3, #160]
 685:STM32Cube_FW_N6/Drivers/STM32N6xx_HAL_Driver/Src/stm32n6xx_hal_ltdc.c **** 
 686:STM32Cube_FW_N6/Drivers/STM32N6xx_HAL_Driver/Src/stm32n6xx_hal_ltdc.c ****   /* Change LTDC peripheral state */
 687:STM32Cube_FW_N6/Drivers/STM32N6xx_HAL_Driver/Src/stm32n6xx_hal_ltdc.c ****   hltdc->State = HAL_LTDC_STATE_BUSY;
 851              		.loc 1 687 16 is_stmt 1
 852 0022 7B68     		ldr	r3, [r7, #4]
 853 0024 0222     		movs	r2, #2
 854 0026 83F8A120 		strb	r2, [r3, #161]
 688:STM32Cube_FW_N6/Drivers/STM32N6xx_HAL_Driver/Src/stm32n6xx_hal_ltdc.c **** 
 689:STM32Cube_FW_N6/Drivers/STM32N6xx_HAL_Driver/Src/stm32n6xx_hal_ltdc.c ****   /* Configure the Fifo Underrun Threshold register */
 690:STM32Cube_FW_N6/Drivers/STM32N6xx_HAL_Driver/Src/stm32n6xx_hal_ltdc.c ****   hltdc->Instance->FUTR &= ~(LTDC_FUTR_THRE);
 855              		.loc 1 690 8
ARM GAS  /tmp/ccM4Rtv8.s 			page 28


 856 002a 7B68     		ldr	r3, [r7, #4]
 857 002c 1B68     		ldr	r3, [r3]
 858              		.loc 1 690 18
 859 002e D3F89030 		ldr	r3, [r3, #144]
 860              		.loc 1 690 8
 861 0032 7A68     		ldr	r2, [r7, #4]
 862 0034 1268     		ldr	r2, [r2]
 863              		.loc 1 690 25
 864 0036 1B0C     		lsrs	r3, r3, #16
 865 0038 1B04     		lsls	r3, r3, #16
 866 003a C2F89030 		str	r3, [r2, #144]
 691:STM32Cube_FW_N6/Drivers/STM32N6xx_HAL_Driver/Src/stm32n6xx_hal_ltdc.c ****   hltdc->Instance->FUTR = (uint32_t) Threshold;
 867              		.loc 1 691 8
 868 003e 7B68     		ldr	r3, [r7, #4]
 869 0040 1B68     		ldr	r3, [r3]
 870              		.loc 1 691 27
 871 0042 7A88     		ldrh	r2, [r7, #2]
 872              		.loc 1 691 25
 873 0044 C3F89020 		str	r2, [r3, #144]
 692:STM32Cube_FW_N6/Drivers/STM32N6xx_HAL_Driver/Src/stm32n6xx_hal_ltdc.c **** 
 693:STM32Cube_FW_N6/Drivers/STM32N6xx_HAL_Driver/Src/stm32n6xx_hal_ltdc.c ****   /* Initialize the LTDC state*/
 694:STM32Cube_FW_N6/Drivers/STM32N6xx_HAL_Driver/Src/stm32n6xx_hal_ltdc.c ****   hltdc->State  = HAL_LTDC_STATE_READY;
 874              		.loc 1 694 17
 875 0048 7B68     		ldr	r3, [r7, #4]
 876 004a 0122     		movs	r2, #1
 877 004c 83F8A120 		strb	r2, [r3, #161]
 695:STM32Cube_FW_N6/Drivers/STM32N6xx_HAL_Driver/Src/stm32n6xx_hal_ltdc.c **** 
 696:STM32Cube_FW_N6/Drivers/STM32N6xx_HAL_Driver/Src/stm32n6xx_hal_ltdc.c ****   /* Process unlocked */
 697:STM32Cube_FW_N6/Drivers/STM32N6xx_HAL_Driver/Src/stm32n6xx_hal_ltdc.c ****   __HAL_UNLOCK(hltdc);
 878              		.loc 1 697 3
 879 0050 7B68     		ldr	r3, [r7, #4]
 880 0052 0022     		movs	r2, #0
 881 0054 83F8A020 		strb	r2, [r3, #160]
 698:STM32Cube_FW_N6/Drivers/STM32N6xx_HAL_Driver/Src/stm32n6xx_hal_ltdc.c **** 
 699:STM32Cube_FW_N6/Drivers/STM32N6xx_HAL_Driver/Src/stm32n6xx_hal_ltdc.c ****   return HAL_OK;
 882              		.loc 1 699 10
 883 0058 0023     		movs	r3, #0
 884              	.L42:
 700:STM32Cube_FW_N6/Drivers/STM32N6xx_HAL_Driver/Src/stm32n6xx_hal_ltdc.c **** }
 885              		.loc 1 700 1
 886 005a 1846     		mov	r0, r3
 887 005c 0C37     		adds	r7, r7, #12
 888              		.cfi_def_cfa_offset 4
 889 005e BD46     		mov	sp, r7
 890              		.cfi_def_cfa_register 13
 891              		@ sp needed
 892 0060 5DF8047B 		ldr	r7, [sp], #4
 893              		.cfi_restore 7
 894              		.cfi_def_cfa_offset 0
 895 0064 7047     		bx	lr
 896              		.cfi_endproc
 897              	.LFE840:
 899              		.section	.text.HAL_LTDC_IRQHandler,"ax",%progbits
 900              		.align	1
 901              		.global	HAL_LTDC_IRQHandler
 902              		.syntax unified
 903              		.thumb
ARM GAS  /tmp/ccM4Rtv8.s 			page 29


 904              		.thumb_func
 906              	HAL_LTDC_IRQHandler:
 907              	.LFB841:
 701:STM32Cube_FW_N6/Drivers/STM32N6xx_HAL_Driver/Src/stm32n6xx_hal_ltdc.c **** 
 702:STM32Cube_FW_N6/Drivers/STM32N6xx_HAL_Driver/Src/stm32n6xx_hal_ltdc.c **** /**
 703:STM32Cube_FW_N6/Drivers/STM32N6xx_HAL_Driver/Src/stm32n6xx_hal_ltdc.c ****   * @}
 704:STM32Cube_FW_N6/Drivers/STM32N6xx_HAL_Driver/Src/stm32n6xx_hal_ltdc.c ****   */
 705:STM32Cube_FW_N6/Drivers/STM32N6xx_HAL_Driver/Src/stm32n6xx_hal_ltdc.c **** 
 706:STM32Cube_FW_N6/Drivers/STM32N6xx_HAL_Driver/Src/stm32n6xx_hal_ltdc.c **** /** @defgroup LTDC_Exported_Functions_Group2 IO operation functions
 707:STM32Cube_FW_N6/Drivers/STM32N6xx_HAL_Driver/Src/stm32n6xx_hal_ltdc.c ****   *  @brief   IO operation functions
 708:STM32Cube_FW_N6/Drivers/STM32N6xx_HAL_Driver/Src/stm32n6xx_hal_ltdc.c ****   *
 709:STM32Cube_FW_N6/Drivers/STM32N6xx_HAL_Driver/Src/stm32n6xx_hal_ltdc.c **** @verbatim
 710:STM32Cube_FW_N6/Drivers/STM32N6xx_HAL_Driver/Src/stm32n6xx_hal_ltdc.c ****  ===============================================================================
 711:STM32Cube_FW_N6/Drivers/STM32N6xx_HAL_Driver/Src/stm32n6xx_hal_ltdc.c ****                       #####  IO operation functions  #####
 712:STM32Cube_FW_N6/Drivers/STM32N6xx_HAL_Driver/Src/stm32n6xx_hal_ltdc.c ****  ===============================================================================
 713:STM32Cube_FW_N6/Drivers/STM32N6xx_HAL_Driver/Src/stm32n6xx_hal_ltdc.c ****     [..]  This section provides function allowing to:
 714:STM32Cube_FW_N6/Drivers/STM32N6xx_HAL_Driver/Src/stm32n6xx_hal_ltdc.c ****       (+) Handle LTDC interrupt request
 715:STM32Cube_FW_N6/Drivers/STM32N6xx_HAL_Driver/Src/stm32n6xx_hal_ltdc.c **** 
 716:STM32Cube_FW_N6/Drivers/STM32N6xx_HAL_Driver/Src/stm32n6xx_hal_ltdc.c **** @endverbatim
 717:STM32Cube_FW_N6/Drivers/STM32N6xx_HAL_Driver/Src/stm32n6xx_hal_ltdc.c ****   * @{
 718:STM32Cube_FW_N6/Drivers/STM32N6xx_HAL_Driver/Src/stm32n6xx_hal_ltdc.c ****   */
 719:STM32Cube_FW_N6/Drivers/STM32N6xx_HAL_Driver/Src/stm32n6xx_hal_ltdc.c **** /**
 720:STM32Cube_FW_N6/Drivers/STM32N6xx_HAL_Driver/Src/stm32n6xx_hal_ltdc.c ****   * @brief  Handle LTDC interrupt request.
 721:STM32Cube_FW_N6/Drivers/STM32N6xx_HAL_Driver/Src/stm32n6xx_hal_ltdc.c ****   * @param  hltdc  pointer to a LTDC_HandleTypeDef structure that contains
 722:STM32Cube_FW_N6/Drivers/STM32N6xx_HAL_Driver/Src/stm32n6xx_hal_ltdc.c ****   *                the configuration information for the LTDC.
 723:STM32Cube_FW_N6/Drivers/STM32N6xx_HAL_Driver/Src/stm32n6xx_hal_ltdc.c ****   * @retval HAL status
 724:STM32Cube_FW_N6/Drivers/STM32N6xx_HAL_Driver/Src/stm32n6xx_hal_ltdc.c ****   */
 725:STM32Cube_FW_N6/Drivers/STM32N6xx_HAL_Driver/Src/stm32n6xx_hal_ltdc.c **** void HAL_LTDC_IRQHandler(LTDC_HandleTypeDef *hltdc)
 726:STM32Cube_FW_N6/Drivers/STM32N6xx_HAL_Driver/Src/stm32n6xx_hal_ltdc.c **** {
 908              		.loc 1 726 1
 909              		.cfi_startproc
 910              		@ args = 0, pretend = 0, frame = 16
 911              		@ frame_needed = 1, uses_anonymous_args = 0
 912 0000 80B5     		push	{r7, lr}
 913              		.cfi_def_cfa_offset 8
 914              		.cfi_offset 7, -8
 915              		.cfi_offset 14, -4
 916 0002 84B0     		sub	sp, sp, #16
 917              		.cfi_def_cfa_offset 24
 918 0004 00AF     		add	r7, sp, #0
 919              		.cfi_def_cfa_register 7
 920 0006 7860     		str	r0, [r7, #4]
 727:STM32Cube_FW_N6/Drivers/STM32N6xx_HAL_Driver/Src/stm32n6xx_hal_ltdc.c **** #if defined(__ARM_FEATURE_CMSE) && (__ARM_FEATURE_CMSE == 3U)
 728:STM32Cube_FW_N6/Drivers/STM32N6xx_HAL_Driver/Src/stm32n6xx_hal_ltdc.c ****   uint32_t isrflags = READ_REG(hltdc->Instance->ISR2);
 921              		.loc 1 728 23
 922 0008 7B68     		ldr	r3, [r7, #4]
 923 000a 1B68     		ldr	r3, [r3]
 924              		.loc 1 728 12
 925 000c 9B6E     		ldr	r3, [r3, #104]
 926 000e FB60     		str	r3, [r7, #12]
 729:STM32Cube_FW_N6/Drivers/STM32N6xx_HAL_Driver/Src/stm32n6xx_hal_ltdc.c ****   uint32_t itsources = READ_REG(hltdc->Instance->IER2);
 927              		.loc 1 729 24
 928 0010 7B68     		ldr	r3, [r7, #4]
 929 0012 1B68     		ldr	r3, [r3]
 930              		.loc 1 729 12
 931 0014 5B6E     		ldr	r3, [r3, #100]
 932 0016 BB60     		str	r3, [r7, #8]
ARM GAS  /tmp/ccM4Rtv8.s 			page 30


 730:STM32Cube_FW_N6/Drivers/STM32N6xx_HAL_Driver/Src/stm32n6xx_hal_ltdc.c **** #else
 731:STM32Cube_FW_N6/Drivers/STM32N6xx_HAL_Driver/Src/stm32n6xx_hal_ltdc.c ****   uint32_t isrflags = READ_REG(hltdc->Instance->ISR);
 732:STM32Cube_FW_N6/Drivers/STM32N6xx_HAL_Driver/Src/stm32n6xx_hal_ltdc.c ****   uint32_t itsources = READ_REG(hltdc->Instance->IER);
 733:STM32Cube_FW_N6/Drivers/STM32N6xx_HAL_Driver/Src/stm32n6xx_hal_ltdc.c **** #endif /* __ARM_FEATURE_CMSE & __ARM_FEATURE_CMSE == 3U */
 734:STM32Cube_FW_N6/Drivers/STM32N6xx_HAL_Driver/Src/stm32n6xx_hal_ltdc.c **** 
 735:STM32Cube_FW_N6/Drivers/STM32N6xx_HAL_Driver/Src/stm32n6xx_hal_ltdc.c **** 
 736:STM32Cube_FW_N6/Drivers/STM32N6xx_HAL_Driver/Src/stm32n6xx_hal_ltdc.c ****   /* CRC Interrupt management ***************************************/
 737:STM32Cube_FW_N6/Drivers/STM32N6xx_HAL_Driver/Src/stm32n6xx_hal_ltdc.c ****   if (((isrflags & LTDC_ISR_CRCIF) != 0U) && ((itsources & LTDC_IER_CRCIE) != 0U))
 933              		.loc 1 737 18
 934 0018 FB68     		ldr	r3, [r7, #12]
 935 001a 03F08003 		and	r3, r3, #128
 936              		.loc 1 737 6
 937 001e 002B     		cmp	r3, #0
 938 0020 23D0     		beq	.L44
 939              		.loc 1 737 58 discriminator 1
 940 0022 BB68     		ldr	r3, [r7, #8]
 941 0024 03F08003 		and	r3, r3, #128
 942              		.loc 1 737 43 discriminator 1
 943 0028 002B     		cmp	r3, #0
 944 002a 1ED0     		beq	.L44
 738:STM32Cube_FW_N6/Drivers/STM32N6xx_HAL_Driver/Src/stm32n6xx_hal_ltdc.c ****   {
 739:STM32Cube_FW_N6/Drivers/STM32N6xx_HAL_Driver/Src/stm32n6xx_hal_ltdc.c ****     /* Disable the transfer Error interrupt */
 740:STM32Cube_FW_N6/Drivers/STM32N6xx_HAL_Driver/Src/stm32n6xx_hal_ltdc.c ****     __HAL_LTDC_DISABLE_IT(hltdc, LTDC_IT_CRC);
 945              		.loc 1 740 5
 946 002c 7B68     		ldr	r3, [r7, #4]
 947 002e 1B68     		ldr	r3, [r3]
 948 0030 5A6E     		ldr	r2, [r3, #100]
 949 0032 7B68     		ldr	r3, [r7, #4]
 950 0034 1B68     		ldr	r3, [r3]
 951 0036 22F08002 		bic	r2, r2, #128
 952 003a 5A66     		str	r2, [r3, #100]
 741:STM32Cube_FW_N6/Drivers/STM32N6xx_HAL_Driver/Src/stm32n6xx_hal_ltdc.c **** 
 742:STM32Cube_FW_N6/Drivers/STM32N6xx_HAL_Driver/Src/stm32n6xx_hal_ltdc.c ****     /* Clear the crc flag */
 743:STM32Cube_FW_N6/Drivers/STM32N6xx_HAL_Driver/Src/stm32n6xx_hal_ltdc.c ****     __HAL_LTDC_CLEAR_FLAG(hltdc, LTDC_FLAG_CRC);
 953              		.loc 1 743 5
 954 003c 7B68     		ldr	r3, [r7, #4]
 955 003e 1B68     		ldr	r3, [r3]
 956 0040 8022     		movs	r2, #128
 957 0042 DA66     		str	r2, [r3, #108]
 744:STM32Cube_FW_N6/Drivers/STM32N6xx_HAL_Driver/Src/stm32n6xx_hal_ltdc.c **** 
 745:STM32Cube_FW_N6/Drivers/STM32N6xx_HAL_Driver/Src/stm32n6xx_hal_ltdc.c ****     /* Update error code */
 746:STM32Cube_FW_N6/Drivers/STM32N6xx_HAL_Driver/Src/stm32n6xx_hal_ltdc.c ****     hltdc->ErrorCode |= HAL_LTDC_ERROR_CRC;
 958              		.loc 1 746 10
 959 0044 7B68     		ldr	r3, [r7, #4]
 960 0046 D3F8A430 		ldr	r3, [r3, #164]
 961              		.loc 1 746 22
 962 004a 43F00402 		orr	r2, r3, #4
 963 004e 7B68     		ldr	r3, [r7, #4]
 964 0050 C3F8A420 		str	r2, [r3, #164]
 747:STM32Cube_FW_N6/Drivers/STM32N6xx_HAL_Driver/Src/stm32n6xx_hal_ltdc.c **** 
 748:STM32Cube_FW_N6/Drivers/STM32N6xx_HAL_Driver/Src/stm32n6xx_hal_ltdc.c ****     /* Change LTDC state */
 749:STM32Cube_FW_N6/Drivers/STM32N6xx_HAL_Driver/Src/stm32n6xx_hal_ltdc.c ****     hltdc->State = HAL_LTDC_STATE_ERROR;
 965              		.loc 1 749 18
 966 0054 7B68     		ldr	r3, [r7, #4]
 967 0056 0422     		movs	r2, #4
 968 0058 83F8A120 		strb	r2, [r3, #161]
 750:STM32Cube_FW_N6/Drivers/STM32N6xx_HAL_Driver/Src/stm32n6xx_hal_ltdc.c **** 
ARM GAS  /tmp/ccM4Rtv8.s 			page 31


 751:STM32Cube_FW_N6/Drivers/STM32N6xx_HAL_Driver/Src/stm32n6xx_hal_ltdc.c ****     /* Process unlocked */
 752:STM32Cube_FW_N6/Drivers/STM32N6xx_HAL_Driver/Src/stm32n6xx_hal_ltdc.c ****     __HAL_UNLOCK(hltdc);
 969              		.loc 1 752 5
 970 005c 7B68     		ldr	r3, [r7, #4]
 971 005e 0022     		movs	r2, #0
 972 0060 83F8A020 		strb	r2, [r3, #160]
 753:STM32Cube_FW_N6/Drivers/STM32N6xx_HAL_Driver/Src/stm32n6xx_hal_ltdc.c **** 
 754:STM32Cube_FW_N6/Drivers/STM32N6xx_HAL_Driver/Src/stm32n6xx_hal_ltdc.c ****     /* Transfer error Callback */
 755:STM32Cube_FW_N6/Drivers/STM32N6xx_HAL_Driver/Src/stm32n6xx_hal_ltdc.c **** #if (USE_HAL_LTDC_REGISTER_CALLBACKS == 1)
 756:STM32Cube_FW_N6/Drivers/STM32N6xx_HAL_Driver/Src/stm32n6xx_hal_ltdc.c ****     /*Call registered error callback*/
 757:STM32Cube_FW_N6/Drivers/STM32N6xx_HAL_Driver/Src/stm32n6xx_hal_ltdc.c ****     hltdc->ErrorCallback(hltdc);
 758:STM32Cube_FW_N6/Drivers/STM32N6xx_HAL_Driver/Src/stm32n6xx_hal_ltdc.c **** #else
 759:STM32Cube_FW_N6/Drivers/STM32N6xx_HAL_Driver/Src/stm32n6xx_hal_ltdc.c ****     /* Call legacy error callback*/
 760:STM32Cube_FW_N6/Drivers/STM32N6xx_HAL_Driver/Src/stm32n6xx_hal_ltdc.c ****     HAL_LTDC_ErrorCallback(hltdc);
 973              		.loc 1 760 5
 974 0064 7868     		ldr	r0, [r7, #4]
 975 0066 FFF7FEFF 		bl	HAL_LTDC_ErrorCallback
 976              	.L44:
 761:STM32Cube_FW_N6/Drivers/STM32N6xx_HAL_Driver/Src/stm32n6xx_hal_ltdc.c **** #endif /* USE_HAL_LTDC_REGISTER_CALLBACKS */
 762:STM32Cube_FW_N6/Drivers/STM32N6xx_HAL_Driver/Src/stm32n6xx_hal_ltdc.c ****   }
 763:STM32Cube_FW_N6/Drivers/STM32N6xx_HAL_Driver/Src/stm32n6xx_hal_ltdc.c **** 
 764:STM32Cube_FW_N6/Drivers/STM32N6xx_HAL_Driver/Src/stm32n6xx_hal_ltdc.c ****   /* Fifo Underrun Interrupt management ***************************************/
 765:STM32Cube_FW_N6/Drivers/STM32N6xx_HAL_Driver/Src/stm32n6xx_hal_ltdc.c ****   if (((isrflags & LTDC_ISR_FUIF) != 0U) && ((itsources & LTDC_IER_FUIE) != 0U))
 977              		.loc 1 765 18
 978 006a FB68     		ldr	r3, [r7, #12]
 979 006c 03F04003 		and	r3, r3, #64
 980              		.loc 1 765 6
 981 0070 002B     		cmp	r3, #0
 982 0072 23D0     		beq	.L45
 983              		.loc 1 765 57 discriminator 1
 984 0074 BB68     		ldr	r3, [r7, #8]
 985 0076 03F04003 		and	r3, r3, #64
 986              		.loc 1 765 42 discriminator 1
 987 007a 002B     		cmp	r3, #0
 988 007c 1ED0     		beq	.L45
 766:STM32Cube_FW_N6/Drivers/STM32N6xx_HAL_Driver/Src/stm32n6xx_hal_ltdc.c ****   {
 767:STM32Cube_FW_N6/Drivers/STM32N6xx_HAL_Driver/Src/stm32n6xx_hal_ltdc.c ****     /* Disable the transfer Error interrupt */
 768:STM32Cube_FW_N6/Drivers/STM32N6xx_HAL_Driver/Src/stm32n6xx_hal_ltdc.c ****     __HAL_LTDC_DISABLE_IT(hltdc, LTDC_IT_FU);
 989              		.loc 1 768 5
 990 007e 7B68     		ldr	r3, [r7, #4]
 991 0080 1B68     		ldr	r3, [r3]
 992 0082 5A6E     		ldr	r2, [r3, #100]
 993 0084 7B68     		ldr	r3, [r7, #4]
 994 0086 1B68     		ldr	r3, [r3]
 995 0088 22F04002 		bic	r2, r2, #64
 996 008c 5A66     		str	r2, [r3, #100]
 769:STM32Cube_FW_N6/Drivers/STM32N6xx_HAL_Driver/Src/stm32n6xx_hal_ltdc.c **** 
 770:STM32Cube_FW_N6/Drivers/STM32N6xx_HAL_Driver/Src/stm32n6xx_hal_ltdc.c ****     /* Clear the UK flag */
 771:STM32Cube_FW_N6/Drivers/STM32N6xx_HAL_Driver/Src/stm32n6xx_hal_ltdc.c ****     __HAL_LTDC_CLEAR_FLAG(hltdc, LTDC_FLAG_FU);
 997              		.loc 1 771 5
 998 008e 7B68     		ldr	r3, [r7, #4]
 999 0090 1B68     		ldr	r3, [r3]
 1000 0092 4022     		movs	r2, #64
 1001 0094 DA66     		str	r2, [r3, #108]
 772:STM32Cube_FW_N6/Drivers/STM32N6xx_HAL_Driver/Src/stm32n6xx_hal_ltdc.c **** 
 773:STM32Cube_FW_N6/Drivers/STM32N6xx_HAL_Driver/Src/stm32n6xx_hal_ltdc.c ****     /* Update error code */
 774:STM32Cube_FW_N6/Drivers/STM32N6xx_HAL_Driver/Src/stm32n6xx_hal_ltdc.c ****     hltdc->ErrorCode |= HAL_LTDC_ERROR_FU;
ARM GAS  /tmp/ccM4Rtv8.s 			page 32


 1002              		.loc 1 774 10
 1003 0096 7B68     		ldr	r3, [r7, #4]
 1004 0098 D3F8A430 		ldr	r3, [r3, #164]
 1005              		.loc 1 774 22
 1006 009c 43F00202 		orr	r2, r3, #2
 1007 00a0 7B68     		ldr	r3, [r7, #4]
 1008 00a2 C3F8A420 		str	r2, [r3, #164]
 775:STM32Cube_FW_N6/Drivers/STM32N6xx_HAL_Driver/Src/stm32n6xx_hal_ltdc.c **** 
 776:STM32Cube_FW_N6/Drivers/STM32N6xx_HAL_Driver/Src/stm32n6xx_hal_ltdc.c ****     /* Change LTDC state */
 777:STM32Cube_FW_N6/Drivers/STM32N6xx_HAL_Driver/Src/stm32n6xx_hal_ltdc.c ****     hltdc->State = HAL_LTDC_STATE_ERROR;
 1009              		.loc 1 777 18
 1010 00a6 7B68     		ldr	r3, [r7, #4]
 1011 00a8 0422     		movs	r2, #4
 1012 00aa 83F8A120 		strb	r2, [r3, #161]
 778:STM32Cube_FW_N6/Drivers/STM32N6xx_HAL_Driver/Src/stm32n6xx_hal_ltdc.c **** 
 779:STM32Cube_FW_N6/Drivers/STM32N6xx_HAL_Driver/Src/stm32n6xx_hal_ltdc.c ****     /* Process unlocked */
 780:STM32Cube_FW_N6/Drivers/STM32N6xx_HAL_Driver/Src/stm32n6xx_hal_ltdc.c ****     __HAL_UNLOCK(hltdc);
 1013              		.loc 1 780 5
 1014 00ae 7B68     		ldr	r3, [r7, #4]
 1015 00b0 0022     		movs	r2, #0
 1016 00b2 83F8A020 		strb	r2, [r3, #160]
 781:STM32Cube_FW_N6/Drivers/STM32N6xx_HAL_Driver/Src/stm32n6xx_hal_ltdc.c **** 
 782:STM32Cube_FW_N6/Drivers/STM32N6xx_HAL_Driver/Src/stm32n6xx_hal_ltdc.c ****     /* Transfer error Callback */
 783:STM32Cube_FW_N6/Drivers/STM32N6xx_HAL_Driver/Src/stm32n6xx_hal_ltdc.c **** #if (USE_HAL_LTDC_REGISTER_CALLBACKS == 1)
 784:STM32Cube_FW_N6/Drivers/STM32N6xx_HAL_Driver/Src/stm32n6xx_hal_ltdc.c ****     /*Call registered error callback*/
 785:STM32Cube_FW_N6/Drivers/STM32N6xx_HAL_Driver/Src/stm32n6xx_hal_ltdc.c ****     hltdc->ErrorCallback(hltdc);
 786:STM32Cube_FW_N6/Drivers/STM32N6xx_HAL_Driver/Src/stm32n6xx_hal_ltdc.c **** #else
 787:STM32Cube_FW_N6/Drivers/STM32N6xx_HAL_Driver/Src/stm32n6xx_hal_ltdc.c ****     /* Call legacy error callback*/
 788:STM32Cube_FW_N6/Drivers/STM32N6xx_HAL_Driver/Src/stm32n6xx_hal_ltdc.c ****     HAL_LTDC_ErrorCallback(hltdc);
 1017              		.loc 1 788 5
 1018 00b6 7868     		ldr	r0, [r7, #4]
 1019 00b8 FFF7FEFF 		bl	HAL_LTDC_ErrorCallback
 1020              	.L45:
 789:STM32Cube_FW_N6/Drivers/STM32N6xx_HAL_Driver/Src/stm32n6xx_hal_ltdc.c **** #endif /* USE_HAL_LTDC_REGISTER_CALLBACKS */
 790:STM32Cube_FW_N6/Drivers/STM32N6xx_HAL_Driver/Src/stm32n6xx_hal_ltdc.c ****   }
 791:STM32Cube_FW_N6/Drivers/STM32N6xx_HAL_Driver/Src/stm32n6xx_hal_ltdc.c **** 
 792:STM32Cube_FW_N6/Drivers/STM32N6xx_HAL_Driver/Src/stm32n6xx_hal_ltdc.c ****   /* Transfer Error Interrupt management ***************************************/
 793:STM32Cube_FW_N6/Drivers/STM32N6xx_HAL_Driver/Src/stm32n6xx_hal_ltdc.c ****   if (((isrflags & LTDC_ISR_TERRIF) != 0U) && ((itsources & LTDC_IER_TERRIE) != 0U))
 1021              		.loc 1 793 18
 1022 00bc FB68     		ldr	r3, [r7, #12]
 1023 00be 03F00403 		and	r3, r3, #4
 1024              		.loc 1 793 6
 1025 00c2 002B     		cmp	r3, #0
 1026 00c4 23D0     		beq	.L46
 1027              		.loc 1 793 59 discriminator 1
 1028 00c6 BB68     		ldr	r3, [r7, #8]
 1029 00c8 03F00403 		and	r3, r3, #4
 1030              		.loc 1 793 44 discriminator 1
 1031 00cc 002B     		cmp	r3, #0
 1032 00ce 1ED0     		beq	.L46
 794:STM32Cube_FW_N6/Drivers/STM32N6xx_HAL_Driver/Src/stm32n6xx_hal_ltdc.c ****   {
 795:STM32Cube_FW_N6/Drivers/STM32N6xx_HAL_Driver/Src/stm32n6xx_hal_ltdc.c ****     /* Disable the transfer Error interrupt */
 796:STM32Cube_FW_N6/Drivers/STM32N6xx_HAL_Driver/Src/stm32n6xx_hal_ltdc.c ****     __HAL_LTDC_DISABLE_IT(hltdc, LTDC_IT_TE);
 1033              		.loc 1 796 5
 1034 00d0 7B68     		ldr	r3, [r7, #4]
 1035 00d2 1B68     		ldr	r3, [r3]
 1036 00d4 5A6E     		ldr	r2, [r3, #100]
ARM GAS  /tmp/ccM4Rtv8.s 			page 33


 1037 00d6 7B68     		ldr	r3, [r7, #4]
 1038 00d8 1B68     		ldr	r3, [r3]
 1039 00da 22F00402 		bic	r2, r2, #4
 1040 00de 5A66     		str	r2, [r3, #100]
 797:STM32Cube_FW_N6/Drivers/STM32N6xx_HAL_Driver/Src/stm32n6xx_hal_ltdc.c **** 
 798:STM32Cube_FW_N6/Drivers/STM32N6xx_HAL_Driver/Src/stm32n6xx_hal_ltdc.c ****     /* Clear the transfer error flag */
 799:STM32Cube_FW_N6/Drivers/STM32N6xx_HAL_Driver/Src/stm32n6xx_hal_ltdc.c ****     __HAL_LTDC_CLEAR_FLAG(hltdc, LTDC_FLAG_TE);
 1041              		.loc 1 799 5
 1042 00e0 7B68     		ldr	r3, [r7, #4]
 1043 00e2 1B68     		ldr	r3, [r3]
 1044 00e4 0422     		movs	r2, #4
 1045 00e6 DA66     		str	r2, [r3, #108]
 800:STM32Cube_FW_N6/Drivers/STM32N6xx_HAL_Driver/Src/stm32n6xx_hal_ltdc.c **** 
 801:STM32Cube_FW_N6/Drivers/STM32N6xx_HAL_Driver/Src/stm32n6xx_hal_ltdc.c ****     /* Update error code */
 802:STM32Cube_FW_N6/Drivers/STM32N6xx_HAL_Driver/Src/stm32n6xx_hal_ltdc.c ****     hltdc->ErrorCode |= HAL_LTDC_ERROR_TE;
 1046              		.loc 1 802 10
 1047 00e8 7B68     		ldr	r3, [r7, #4]
 1048 00ea D3F8A430 		ldr	r3, [r3, #164]
 1049              		.loc 1 802 22
 1050 00ee 43F00102 		orr	r2, r3, #1
 1051 00f2 7B68     		ldr	r3, [r7, #4]
 1052 00f4 C3F8A420 		str	r2, [r3, #164]
 803:STM32Cube_FW_N6/Drivers/STM32N6xx_HAL_Driver/Src/stm32n6xx_hal_ltdc.c **** 
 804:STM32Cube_FW_N6/Drivers/STM32N6xx_HAL_Driver/Src/stm32n6xx_hal_ltdc.c ****     /* Change LTDC state */
 805:STM32Cube_FW_N6/Drivers/STM32N6xx_HAL_Driver/Src/stm32n6xx_hal_ltdc.c ****     hltdc->State = HAL_LTDC_STATE_ERROR;
 1053              		.loc 1 805 18
 1054 00f8 7B68     		ldr	r3, [r7, #4]
 1055 00fa 0422     		movs	r2, #4
 1056 00fc 83F8A120 		strb	r2, [r3, #161]
 806:STM32Cube_FW_N6/Drivers/STM32N6xx_HAL_Driver/Src/stm32n6xx_hal_ltdc.c **** 
 807:STM32Cube_FW_N6/Drivers/STM32N6xx_HAL_Driver/Src/stm32n6xx_hal_ltdc.c ****     /* Process unlocked */
 808:STM32Cube_FW_N6/Drivers/STM32N6xx_HAL_Driver/Src/stm32n6xx_hal_ltdc.c ****     __HAL_UNLOCK(hltdc);
 1057              		.loc 1 808 5
 1058 0100 7B68     		ldr	r3, [r7, #4]
 1059 0102 0022     		movs	r2, #0
 1060 0104 83F8A020 		strb	r2, [r3, #160]
 809:STM32Cube_FW_N6/Drivers/STM32N6xx_HAL_Driver/Src/stm32n6xx_hal_ltdc.c **** 
 810:STM32Cube_FW_N6/Drivers/STM32N6xx_HAL_Driver/Src/stm32n6xx_hal_ltdc.c ****     /* Transfer error Callback */
 811:STM32Cube_FW_N6/Drivers/STM32N6xx_HAL_Driver/Src/stm32n6xx_hal_ltdc.c **** #if (USE_HAL_LTDC_REGISTER_CALLBACKS == 1)
 812:STM32Cube_FW_N6/Drivers/STM32N6xx_HAL_Driver/Src/stm32n6xx_hal_ltdc.c ****     /*Call registered error callback*/
 813:STM32Cube_FW_N6/Drivers/STM32N6xx_HAL_Driver/Src/stm32n6xx_hal_ltdc.c ****     hltdc->ErrorCallback(hltdc);
 814:STM32Cube_FW_N6/Drivers/STM32N6xx_HAL_Driver/Src/stm32n6xx_hal_ltdc.c **** #else
 815:STM32Cube_FW_N6/Drivers/STM32N6xx_HAL_Driver/Src/stm32n6xx_hal_ltdc.c ****     /* Call legacy error callback*/
 816:STM32Cube_FW_N6/Drivers/STM32N6xx_HAL_Driver/Src/stm32n6xx_hal_ltdc.c ****     HAL_LTDC_ErrorCallback(hltdc);
 1061              		.loc 1 816 5
 1062 0108 7868     		ldr	r0, [r7, #4]
 1063 010a FFF7FEFF 		bl	HAL_LTDC_ErrorCallback
 1064              	.L46:
 817:STM32Cube_FW_N6/Drivers/STM32N6xx_HAL_Driver/Src/stm32n6xx_hal_ltdc.c **** #endif /* USE_HAL_LTDC_REGISTER_CALLBACKS */
 818:STM32Cube_FW_N6/Drivers/STM32N6xx_HAL_Driver/Src/stm32n6xx_hal_ltdc.c ****   }
 819:STM32Cube_FW_N6/Drivers/STM32N6xx_HAL_Driver/Src/stm32n6xx_hal_ltdc.c **** 
 820:STM32Cube_FW_N6/Drivers/STM32N6xx_HAL_Driver/Src/stm32n6xx_hal_ltdc.c ****   /* FIFO underrun Interrupt management ***************************************/
 821:STM32Cube_FW_N6/Drivers/STM32N6xx_HAL_Driver/Src/stm32n6xx_hal_ltdc.c ****   if (((isrflags & LTDC_ISR_FUIF) != 0U) && ((itsources & LTDC_IER_FUIE) != 0U))
 1065              		.loc 1 821 18
 1066 010e FB68     		ldr	r3, [r7, #12]
 1067 0110 03F04003 		and	r3, r3, #64
 1068              		.loc 1 821 6
ARM GAS  /tmp/ccM4Rtv8.s 			page 34


 1069 0114 002B     		cmp	r3, #0
 1070 0116 23D0     		beq	.L47
 1071              		.loc 1 821 57 discriminator 1
 1072 0118 BB68     		ldr	r3, [r7, #8]
 1073 011a 03F04003 		and	r3, r3, #64
 1074              		.loc 1 821 42 discriminator 1
 1075 011e 002B     		cmp	r3, #0
 1076 0120 1ED0     		beq	.L47
 822:STM32Cube_FW_N6/Drivers/STM32N6xx_HAL_Driver/Src/stm32n6xx_hal_ltdc.c ****   {
 823:STM32Cube_FW_N6/Drivers/STM32N6xx_HAL_Driver/Src/stm32n6xx_hal_ltdc.c ****     /* Disable the FIFO underrun interrupt */
 824:STM32Cube_FW_N6/Drivers/STM32N6xx_HAL_Driver/Src/stm32n6xx_hal_ltdc.c ****     __HAL_LTDC_DISABLE_IT(hltdc, LTDC_IT_FU);
 1077              		.loc 1 824 5
 1078 0122 7B68     		ldr	r3, [r7, #4]
 1079 0124 1B68     		ldr	r3, [r3]
 1080 0126 5A6E     		ldr	r2, [r3, #100]
 1081 0128 7B68     		ldr	r3, [r7, #4]
 1082 012a 1B68     		ldr	r3, [r3]
 1083 012c 22F04002 		bic	r2, r2, #64
 1084 0130 5A66     		str	r2, [r3, #100]
 825:STM32Cube_FW_N6/Drivers/STM32N6xx_HAL_Driver/Src/stm32n6xx_hal_ltdc.c **** 
 826:STM32Cube_FW_N6/Drivers/STM32N6xx_HAL_Driver/Src/stm32n6xx_hal_ltdc.c ****     /* Clear the FIFO underrun flag */
 827:STM32Cube_FW_N6/Drivers/STM32N6xx_HAL_Driver/Src/stm32n6xx_hal_ltdc.c ****     __HAL_LTDC_CLEAR_FLAG(hltdc, LTDC_FLAG_FU);
 1085              		.loc 1 827 5
 1086 0132 7B68     		ldr	r3, [r7, #4]
 1087 0134 1B68     		ldr	r3, [r3]
 1088 0136 4022     		movs	r2, #64
 1089 0138 DA66     		str	r2, [r3, #108]
 828:STM32Cube_FW_N6/Drivers/STM32N6xx_HAL_Driver/Src/stm32n6xx_hal_ltdc.c **** 
 829:STM32Cube_FW_N6/Drivers/STM32N6xx_HAL_Driver/Src/stm32n6xx_hal_ltdc.c ****     /* Update error code */
 830:STM32Cube_FW_N6/Drivers/STM32N6xx_HAL_Driver/Src/stm32n6xx_hal_ltdc.c ****     hltdc->ErrorCode |= HAL_LTDC_ERROR_FU;
 1090              		.loc 1 830 10
 1091 013a 7B68     		ldr	r3, [r7, #4]
 1092 013c D3F8A430 		ldr	r3, [r3, #164]
 1093              		.loc 1 830 22
 1094 0140 43F00202 		orr	r2, r3, #2
 1095 0144 7B68     		ldr	r3, [r7, #4]
 1096 0146 C3F8A420 		str	r2, [r3, #164]
 831:STM32Cube_FW_N6/Drivers/STM32N6xx_HAL_Driver/Src/stm32n6xx_hal_ltdc.c **** 
 832:STM32Cube_FW_N6/Drivers/STM32N6xx_HAL_Driver/Src/stm32n6xx_hal_ltdc.c ****     /* Change LTDC state */
 833:STM32Cube_FW_N6/Drivers/STM32N6xx_HAL_Driver/Src/stm32n6xx_hal_ltdc.c ****     hltdc->State = HAL_LTDC_STATE_ERROR;
 1097              		.loc 1 833 18
 1098 014a 7B68     		ldr	r3, [r7, #4]
 1099 014c 0422     		movs	r2, #4
 1100 014e 83F8A120 		strb	r2, [r3, #161]
 834:STM32Cube_FW_N6/Drivers/STM32N6xx_HAL_Driver/Src/stm32n6xx_hal_ltdc.c **** 
 835:STM32Cube_FW_N6/Drivers/STM32N6xx_HAL_Driver/Src/stm32n6xx_hal_ltdc.c ****     /* Process unlocked */
 836:STM32Cube_FW_N6/Drivers/STM32N6xx_HAL_Driver/Src/stm32n6xx_hal_ltdc.c ****     __HAL_UNLOCK(hltdc);
 1101              		.loc 1 836 5
 1102 0152 7B68     		ldr	r3, [r7, #4]
 1103 0154 0022     		movs	r2, #0
 1104 0156 83F8A020 		strb	r2, [r3, #160]
 837:STM32Cube_FW_N6/Drivers/STM32N6xx_HAL_Driver/Src/stm32n6xx_hal_ltdc.c **** 
 838:STM32Cube_FW_N6/Drivers/STM32N6xx_HAL_Driver/Src/stm32n6xx_hal_ltdc.c ****     /* Transfer error Callback */
 839:STM32Cube_FW_N6/Drivers/STM32N6xx_HAL_Driver/Src/stm32n6xx_hal_ltdc.c **** #if (USE_HAL_LTDC_REGISTER_CALLBACKS == 1)
 840:STM32Cube_FW_N6/Drivers/STM32N6xx_HAL_Driver/Src/stm32n6xx_hal_ltdc.c ****     /*Call registered error callback*/
 841:STM32Cube_FW_N6/Drivers/STM32N6xx_HAL_Driver/Src/stm32n6xx_hal_ltdc.c ****     hltdc->ErrorCallback(hltdc);
 842:STM32Cube_FW_N6/Drivers/STM32N6xx_HAL_Driver/Src/stm32n6xx_hal_ltdc.c **** #else
ARM GAS  /tmp/ccM4Rtv8.s 			page 35


 843:STM32Cube_FW_N6/Drivers/STM32N6xx_HAL_Driver/Src/stm32n6xx_hal_ltdc.c ****     /* Call legacy error callback*/
 844:STM32Cube_FW_N6/Drivers/STM32N6xx_HAL_Driver/Src/stm32n6xx_hal_ltdc.c ****     HAL_LTDC_ErrorCallback(hltdc);
 1105              		.loc 1 844 5
 1106 015a 7868     		ldr	r0, [r7, #4]
 1107 015c FFF7FEFF 		bl	HAL_LTDC_ErrorCallback
 1108              	.L47:
 845:STM32Cube_FW_N6/Drivers/STM32N6xx_HAL_Driver/Src/stm32n6xx_hal_ltdc.c **** #endif /* USE_HAL_LTDC_REGISTER_CALLBACKS */
 846:STM32Cube_FW_N6/Drivers/STM32N6xx_HAL_Driver/Src/stm32n6xx_hal_ltdc.c ****   }
 847:STM32Cube_FW_N6/Drivers/STM32N6xx_HAL_Driver/Src/stm32n6xx_hal_ltdc.c **** 
 848:STM32Cube_FW_N6/Drivers/STM32N6xx_HAL_Driver/Src/stm32n6xx_hal_ltdc.c ****   /* FIFO underrun Warning Interrupt management ***************************************/
 849:STM32Cube_FW_N6/Drivers/STM32N6xx_HAL_Driver/Src/stm32n6xx_hal_ltdc.c ****   if (((isrflags & LTDC_ISR_FUWIF) != 0U) && ((itsources & LTDC_IER_FUWIE) != 0U))
 1109              		.loc 1 849 18
 1110 0160 FB68     		ldr	r3, [r7, #12]
 1111 0162 03F00203 		and	r3, r3, #2
 1112              		.loc 1 849 6
 1113 0166 002B     		cmp	r3, #0
 1114 0168 17D0     		beq	.L48
 1115              		.loc 1 849 58 discriminator 1
 1116 016a BB68     		ldr	r3, [r7, #8]
 1117 016c 03F00203 		and	r3, r3, #2
 1118              		.loc 1 849 43 discriminator 1
 1119 0170 002B     		cmp	r3, #0
 1120 0172 12D0     		beq	.L48
 850:STM32Cube_FW_N6/Drivers/STM32N6xx_HAL_Driver/Src/stm32n6xx_hal_ltdc.c ****   {
 851:STM32Cube_FW_N6/Drivers/STM32N6xx_HAL_Driver/Src/stm32n6xx_hal_ltdc.c ****     /* Disable the FIFO underrun interrupt */
 852:STM32Cube_FW_N6/Drivers/STM32N6xx_HAL_Driver/Src/stm32n6xx_hal_ltdc.c ****     __HAL_LTDC_DISABLE_IT(hltdc, LTDC_IT_FUW);
 1121              		.loc 1 852 5
 1122 0174 7B68     		ldr	r3, [r7, #4]
 1123 0176 1B68     		ldr	r3, [r3]
 1124 0178 5A6E     		ldr	r2, [r3, #100]
 1125 017a 7B68     		ldr	r3, [r7, #4]
 1126 017c 1B68     		ldr	r3, [r3]
 1127 017e 22F00202 		bic	r2, r2, #2
 1128 0182 5A66     		str	r2, [r3, #100]
 853:STM32Cube_FW_N6/Drivers/STM32N6xx_HAL_Driver/Src/stm32n6xx_hal_ltdc.c **** 
 854:STM32Cube_FW_N6/Drivers/STM32N6xx_HAL_Driver/Src/stm32n6xx_hal_ltdc.c ****     /* Clear the FIFO underrun flag */
 855:STM32Cube_FW_N6/Drivers/STM32N6xx_HAL_Driver/Src/stm32n6xx_hal_ltdc.c ****     __HAL_LTDC_CLEAR_FLAG(hltdc, LTDC_FLAG_FUW);
 1129              		.loc 1 855 5
 1130 0184 7B68     		ldr	r3, [r7, #4]
 1131 0186 1B68     		ldr	r3, [r3]
 1132 0188 0222     		movs	r2, #2
 1133 018a DA66     		str	r2, [r3, #108]
 856:STM32Cube_FW_N6/Drivers/STM32N6xx_HAL_Driver/Src/stm32n6xx_hal_ltdc.c **** 
 857:STM32Cube_FW_N6/Drivers/STM32N6xx_HAL_Driver/Src/stm32n6xx_hal_ltdc.c ****     /* Process unlocked */
 858:STM32Cube_FW_N6/Drivers/STM32N6xx_HAL_Driver/Src/stm32n6xx_hal_ltdc.c ****     __HAL_UNLOCK(hltdc);
 1134              		.loc 1 858 5
 1135 018c 7B68     		ldr	r3, [r7, #4]
 1136 018e 0022     		movs	r2, #0
 1137 0190 83F8A020 		strb	r2, [r3, #160]
 859:STM32Cube_FW_N6/Drivers/STM32N6xx_HAL_Driver/Src/stm32n6xx_hal_ltdc.c **** 
 860:STM32Cube_FW_N6/Drivers/STM32N6xx_HAL_Driver/Src/stm32n6xx_hal_ltdc.c ****     /* Transfer error Callback */
 861:STM32Cube_FW_N6/Drivers/STM32N6xx_HAL_Driver/Src/stm32n6xx_hal_ltdc.c **** #if (USE_HAL_LTDC_REGISTER_CALLBACKS == 1)
 862:STM32Cube_FW_N6/Drivers/STM32N6xx_HAL_Driver/Src/stm32n6xx_hal_ltdc.c ****     /*Call registered error callback*/
 863:STM32Cube_FW_N6/Drivers/STM32N6xx_HAL_Driver/Src/stm32n6xx_hal_ltdc.c ****     hltdc->WarningEventCallback(hltdc);
 864:STM32Cube_FW_N6/Drivers/STM32N6xx_HAL_Driver/Src/stm32n6xx_hal_ltdc.c **** #else
 865:STM32Cube_FW_N6/Drivers/STM32N6xx_HAL_Driver/Src/stm32n6xx_hal_ltdc.c ****     /* Call legacy error callback*/
 866:STM32Cube_FW_N6/Drivers/STM32N6xx_HAL_Driver/Src/stm32n6xx_hal_ltdc.c ****     HAL_LTDC_WarningEventCallback(hltdc);
ARM GAS  /tmp/ccM4Rtv8.s 			page 36


 1138              		.loc 1 866 5
 1139 0194 7868     		ldr	r0, [r7, #4]
 1140 0196 FFF7FEFF 		bl	HAL_LTDC_WarningEventCallback
 1141              	.L48:
 867:STM32Cube_FW_N6/Drivers/STM32N6xx_HAL_Driver/Src/stm32n6xx_hal_ltdc.c **** #endif /* USE_HAL_LTDC_REGISTER_CALLBACKS */
 868:STM32Cube_FW_N6/Drivers/STM32N6xx_HAL_Driver/Src/stm32n6xx_hal_ltdc.c ****   }
 869:STM32Cube_FW_N6/Drivers/STM32N6xx_HAL_Driver/Src/stm32n6xx_hal_ltdc.c **** 
 870:STM32Cube_FW_N6/Drivers/STM32N6xx_HAL_Driver/Src/stm32n6xx_hal_ltdc.c ****   /* Line Interrupt management ************************************************/
 871:STM32Cube_FW_N6/Drivers/STM32N6xx_HAL_Driver/Src/stm32n6xx_hal_ltdc.c ****   if (((isrflags & LTDC_ISR_LIF) != 0U) && ((itsources & LTDC_IER_LIE) != 0U))
 1142              		.loc 1 871 18
 1143 019a FB68     		ldr	r3, [r7, #12]
 1144 019c 03F00103 		and	r3, r3, #1
 1145              		.loc 1 871 6
 1146 01a0 002B     		cmp	r3, #0
 1147 01a2 1BD0     		beq	.L49
 1148              		.loc 1 871 56 discriminator 1
 1149 01a4 BB68     		ldr	r3, [r7, #8]
 1150 01a6 03F00103 		and	r3, r3, #1
 1151              		.loc 1 871 41 discriminator 1
 1152 01aa 002B     		cmp	r3, #0
 1153 01ac 16D0     		beq	.L49
 872:STM32Cube_FW_N6/Drivers/STM32N6xx_HAL_Driver/Src/stm32n6xx_hal_ltdc.c ****   {
 873:STM32Cube_FW_N6/Drivers/STM32N6xx_HAL_Driver/Src/stm32n6xx_hal_ltdc.c ****     /* Disable the Line interrupt */
 874:STM32Cube_FW_N6/Drivers/STM32N6xx_HAL_Driver/Src/stm32n6xx_hal_ltdc.c ****     __HAL_LTDC_DISABLE_IT(hltdc, LTDC_IT_LI);
 1154              		.loc 1 874 5
 1155 01ae 7B68     		ldr	r3, [r7, #4]
 1156 01b0 1B68     		ldr	r3, [r3]
 1157 01b2 5A6E     		ldr	r2, [r3, #100]
 1158 01b4 7B68     		ldr	r3, [r7, #4]
 1159 01b6 1B68     		ldr	r3, [r3]
 1160 01b8 22F00102 		bic	r2, r2, #1
 1161 01bc 5A66     		str	r2, [r3, #100]
 875:STM32Cube_FW_N6/Drivers/STM32N6xx_HAL_Driver/Src/stm32n6xx_hal_ltdc.c **** 
 876:STM32Cube_FW_N6/Drivers/STM32N6xx_HAL_Driver/Src/stm32n6xx_hal_ltdc.c ****     /* Clear the Line interrupt flag */
 877:STM32Cube_FW_N6/Drivers/STM32N6xx_HAL_Driver/Src/stm32n6xx_hal_ltdc.c ****     __HAL_LTDC_CLEAR_FLAG(hltdc, LTDC_FLAG_LI);
 1162              		.loc 1 877 5
 1163 01be 7B68     		ldr	r3, [r7, #4]
 1164 01c0 1B68     		ldr	r3, [r3]
 1165 01c2 0122     		movs	r2, #1
 1166 01c4 DA66     		str	r2, [r3, #108]
 878:STM32Cube_FW_N6/Drivers/STM32N6xx_HAL_Driver/Src/stm32n6xx_hal_ltdc.c **** 
 879:STM32Cube_FW_N6/Drivers/STM32N6xx_HAL_Driver/Src/stm32n6xx_hal_ltdc.c ****     /* Change LTDC state */
 880:STM32Cube_FW_N6/Drivers/STM32N6xx_HAL_Driver/Src/stm32n6xx_hal_ltdc.c ****     hltdc->State = HAL_LTDC_STATE_READY;
 1167              		.loc 1 880 18
 1168 01c6 7B68     		ldr	r3, [r7, #4]
 1169 01c8 0122     		movs	r2, #1
 1170 01ca 83F8A120 		strb	r2, [r3, #161]
 881:STM32Cube_FW_N6/Drivers/STM32N6xx_HAL_Driver/Src/stm32n6xx_hal_ltdc.c **** 
 882:STM32Cube_FW_N6/Drivers/STM32N6xx_HAL_Driver/Src/stm32n6xx_hal_ltdc.c ****     /* Process unlocked */
 883:STM32Cube_FW_N6/Drivers/STM32N6xx_HAL_Driver/Src/stm32n6xx_hal_ltdc.c ****     __HAL_UNLOCK(hltdc);
 1171              		.loc 1 883 5
 1172 01ce 7B68     		ldr	r3, [r7, #4]
 1173 01d0 0022     		movs	r2, #0
 1174 01d2 83F8A020 		strb	r2, [r3, #160]
 884:STM32Cube_FW_N6/Drivers/STM32N6xx_HAL_Driver/Src/stm32n6xx_hal_ltdc.c **** 
 885:STM32Cube_FW_N6/Drivers/STM32N6xx_HAL_Driver/Src/stm32n6xx_hal_ltdc.c ****     /* Line interrupt Callback */
 886:STM32Cube_FW_N6/Drivers/STM32N6xx_HAL_Driver/Src/stm32n6xx_hal_ltdc.c **** #if (USE_HAL_LTDC_REGISTER_CALLBACKS == 1)
ARM GAS  /tmp/ccM4Rtv8.s 			page 37


 887:STM32Cube_FW_N6/Drivers/STM32N6xx_HAL_Driver/Src/stm32n6xx_hal_ltdc.c ****     /*Call registered Line Event callback */
 888:STM32Cube_FW_N6/Drivers/STM32N6xx_HAL_Driver/Src/stm32n6xx_hal_ltdc.c ****     hltdc->LineEventCallback(hltdc);
 889:STM32Cube_FW_N6/Drivers/STM32N6xx_HAL_Driver/Src/stm32n6xx_hal_ltdc.c **** #else
 890:STM32Cube_FW_N6/Drivers/STM32N6xx_HAL_Driver/Src/stm32n6xx_hal_ltdc.c ****     /*Call Legacy Line Event callback */
 891:STM32Cube_FW_N6/Drivers/STM32N6xx_HAL_Driver/Src/stm32n6xx_hal_ltdc.c ****     HAL_LTDC_LineEventCallback(hltdc);
 1175              		.loc 1 891 5
 1176 01d6 7868     		ldr	r0, [r7, #4]
 1177 01d8 FFF7FEFF 		bl	HAL_LTDC_LineEventCallback
 1178              	.L49:
 892:STM32Cube_FW_N6/Drivers/STM32N6xx_HAL_Driver/Src/stm32n6xx_hal_ltdc.c **** #endif /* USE_HAL_LTDC_REGISTER_CALLBACKS */
 893:STM32Cube_FW_N6/Drivers/STM32N6xx_HAL_Driver/Src/stm32n6xx_hal_ltdc.c ****   }
 894:STM32Cube_FW_N6/Drivers/STM32N6xx_HAL_Driver/Src/stm32n6xx_hal_ltdc.c **** 
 895:STM32Cube_FW_N6/Drivers/STM32N6xx_HAL_Driver/Src/stm32n6xx_hal_ltdc.c ****   /* Register reload Interrupt management ***************************************/
 896:STM32Cube_FW_N6/Drivers/STM32N6xx_HAL_Driver/Src/stm32n6xx_hal_ltdc.c ****   if (((isrflags & LTDC_ISR_RRIF) != 0U) && ((itsources & LTDC_IER_RRIE) != 0U))
 1179              		.loc 1 896 18
 1180 01dc FB68     		ldr	r3, [r7, #12]
 1181 01de 03F00803 		and	r3, r3, #8
 1182              		.loc 1 896 6
 1183 01e2 002B     		cmp	r3, #0
 1184 01e4 1BD0     		beq	.L51
 1185              		.loc 1 896 57 discriminator 1
 1186 01e6 BB68     		ldr	r3, [r7, #8]
 1187 01e8 03F00803 		and	r3, r3, #8
 1188              		.loc 1 896 42 discriminator 1
 1189 01ec 002B     		cmp	r3, #0
 1190 01ee 16D0     		beq	.L51
 897:STM32Cube_FW_N6/Drivers/STM32N6xx_HAL_Driver/Src/stm32n6xx_hal_ltdc.c ****   {
 898:STM32Cube_FW_N6/Drivers/STM32N6xx_HAL_Driver/Src/stm32n6xx_hal_ltdc.c ****     /* Disable the register reload interrupt */
 899:STM32Cube_FW_N6/Drivers/STM32N6xx_HAL_Driver/Src/stm32n6xx_hal_ltdc.c ****     __HAL_LTDC_DISABLE_IT(hltdc, LTDC_IT_RR);
 1191              		.loc 1 899 5
 1192 01f0 7B68     		ldr	r3, [r7, #4]
 1193 01f2 1B68     		ldr	r3, [r3]
 1194 01f4 5A6E     		ldr	r2, [r3, #100]
 1195 01f6 7B68     		ldr	r3, [r7, #4]
 1196 01f8 1B68     		ldr	r3, [r3]
 1197 01fa 22F00802 		bic	r2, r2, #8
 1198 01fe 5A66     		str	r2, [r3, #100]
 900:STM32Cube_FW_N6/Drivers/STM32N6xx_HAL_Driver/Src/stm32n6xx_hal_ltdc.c **** 
 901:STM32Cube_FW_N6/Drivers/STM32N6xx_HAL_Driver/Src/stm32n6xx_hal_ltdc.c ****     /* Clear the register reload flag */
 902:STM32Cube_FW_N6/Drivers/STM32N6xx_HAL_Driver/Src/stm32n6xx_hal_ltdc.c ****     __HAL_LTDC_CLEAR_FLAG(hltdc, LTDC_FLAG_RR);
 1199              		.loc 1 902 5
 1200 0200 7B68     		ldr	r3, [r7, #4]
 1201 0202 1B68     		ldr	r3, [r3]
 1202 0204 0822     		movs	r2, #8
 1203 0206 DA66     		str	r2, [r3, #108]
 903:STM32Cube_FW_N6/Drivers/STM32N6xx_HAL_Driver/Src/stm32n6xx_hal_ltdc.c **** 
 904:STM32Cube_FW_N6/Drivers/STM32N6xx_HAL_Driver/Src/stm32n6xx_hal_ltdc.c ****     /* Change LTDC state */
 905:STM32Cube_FW_N6/Drivers/STM32N6xx_HAL_Driver/Src/stm32n6xx_hal_ltdc.c ****     hltdc->State = HAL_LTDC_STATE_READY;
 1204              		.loc 1 905 18
 1205 0208 7B68     		ldr	r3, [r7, #4]
 1206 020a 0122     		movs	r2, #1
 1207 020c 83F8A120 		strb	r2, [r3, #161]
 906:STM32Cube_FW_N6/Drivers/STM32N6xx_HAL_Driver/Src/stm32n6xx_hal_ltdc.c **** 
 907:STM32Cube_FW_N6/Drivers/STM32N6xx_HAL_Driver/Src/stm32n6xx_hal_ltdc.c ****     /* Process unlocked */
 908:STM32Cube_FW_N6/Drivers/STM32N6xx_HAL_Driver/Src/stm32n6xx_hal_ltdc.c ****     __HAL_UNLOCK(hltdc);
 1208              		.loc 1 908 5
 1209 0210 7B68     		ldr	r3, [r7, #4]
ARM GAS  /tmp/ccM4Rtv8.s 			page 38


 1210 0212 0022     		movs	r2, #0
 1211 0214 83F8A020 		strb	r2, [r3, #160]
 909:STM32Cube_FW_N6/Drivers/STM32N6xx_HAL_Driver/Src/stm32n6xx_hal_ltdc.c **** 
 910:STM32Cube_FW_N6/Drivers/STM32N6xx_HAL_Driver/Src/stm32n6xx_hal_ltdc.c ****     /* Reload interrupt Callback */
 911:STM32Cube_FW_N6/Drivers/STM32N6xx_HAL_Driver/Src/stm32n6xx_hal_ltdc.c **** #if (USE_HAL_LTDC_REGISTER_CALLBACKS == 1)
 912:STM32Cube_FW_N6/Drivers/STM32N6xx_HAL_Driver/Src/stm32n6xx_hal_ltdc.c ****     /*Call registered reload Event callback */
 913:STM32Cube_FW_N6/Drivers/STM32N6xx_HAL_Driver/Src/stm32n6xx_hal_ltdc.c ****     hltdc->ReloadEventCallback(hltdc);
 914:STM32Cube_FW_N6/Drivers/STM32N6xx_HAL_Driver/Src/stm32n6xx_hal_ltdc.c **** #else
 915:STM32Cube_FW_N6/Drivers/STM32N6xx_HAL_Driver/Src/stm32n6xx_hal_ltdc.c ****     /*Call Legacy Reload Event callback */
 916:STM32Cube_FW_N6/Drivers/STM32N6xx_HAL_Driver/Src/stm32n6xx_hal_ltdc.c ****     HAL_LTDC_ReloadEventCallback(hltdc);
 1212              		.loc 1 916 5
 1213 0218 7868     		ldr	r0, [r7, #4]
 1214 021a FFF7FEFF 		bl	HAL_LTDC_ReloadEventCallback
 1215              	.L51:
 917:STM32Cube_FW_N6/Drivers/STM32N6xx_HAL_Driver/Src/stm32n6xx_hal_ltdc.c **** #endif /* USE_HAL_LTDC_REGISTER_CALLBACKS */
 918:STM32Cube_FW_N6/Drivers/STM32N6xx_HAL_Driver/Src/stm32n6xx_hal_ltdc.c ****   }
 919:STM32Cube_FW_N6/Drivers/STM32N6xx_HAL_Driver/Src/stm32n6xx_hal_ltdc.c **** }
 1216              		.loc 1 919 1
 1217 021e 00BF     		nop
 1218 0220 1037     		adds	r7, r7, #16
 1219              		.cfi_def_cfa_offset 8
 1220 0222 BD46     		mov	sp, r7
 1221              		.cfi_def_cfa_register 13
 1222              		@ sp needed
 1223 0224 80BD     		pop	{r7, pc}
 1224              		.cfi_endproc
 1225              	.LFE841:
 1227              		.section	.text.HAL_LTDC_ErrorCallback,"ax",%progbits
 1228              		.align	1
 1229              		.weak	HAL_LTDC_ErrorCallback
 1230              		.syntax unified
 1231              		.thumb
 1232              		.thumb_func
 1234              	HAL_LTDC_ErrorCallback:
 1235              	.LFB842:
 920:STM32Cube_FW_N6/Drivers/STM32N6xx_HAL_Driver/Src/stm32n6xx_hal_ltdc.c **** 
 921:STM32Cube_FW_N6/Drivers/STM32N6xx_HAL_Driver/Src/stm32n6xx_hal_ltdc.c **** /**
 922:STM32Cube_FW_N6/Drivers/STM32N6xx_HAL_Driver/Src/stm32n6xx_hal_ltdc.c ****   * @brief  Error LTDC callback.
 923:STM32Cube_FW_N6/Drivers/STM32N6xx_HAL_Driver/Src/stm32n6xx_hal_ltdc.c ****   * @param  hltdc  pointer to a LTDC_HandleTypeDef structure that contains
 924:STM32Cube_FW_N6/Drivers/STM32N6xx_HAL_Driver/Src/stm32n6xx_hal_ltdc.c ****   *                the configuration information for the LTDC.
 925:STM32Cube_FW_N6/Drivers/STM32N6xx_HAL_Driver/Src/stm32n6xx_hal_ltdc.c ****   * @retval None
 926:STM32Cube_FW_N6/Drivers/STM32N6xx_HAL_Driver/Src/stm32n6xx_hal_ltdc.c ****   */
 927:STM32Cube_FW_N6/Drivers/STM32N6xx_HAL_Driver/Src/stm32n6xx_hal_ltdc.c **** __weak void HAL_LTDC_ErrorCallback(LTDC_HandleTypeDef *hltdc)
 928:STM32Cube_FW_N6/Drivers/STM32N6xx_HAL_Driver/Src/stm32n6xx_hal_ltdc.c **** {
 1236              		.loc 1 928 1
 1237              		.cfi_startproc
 1238              		@ args = 0, pretend = 0, frame = 8
 1239              		@ frame_needed = 1, uses_anonymous_args = 0
 1240              		@ link register save eliminated.
 1241 0000 80B4     		push	{r7}
 1242              		.cfi_def_cfa_offset 4
 1243              		.cfi_offset 7, -4
 1244 0002 83B0     		sub	sp, sp, #12
 1245              		.cfi_def_cfa_offset 16
 1246 0004 00AF     		add	r7, sp, #0
 1247              		.cfi_def_cfa_register 7
 1248 0006 7860     		str	r0, [r7, #4]
ARM GAS  /tmp/ccM4Rtv8.s 			page 39


 929:STM32Cube_FW_N6/Drivers/STM32N6xx_HAL_Driver/Src/stm32n6xx_hal_ltdc.c ****   /* Prevent unused argument(s) compilation warning */
 930:STM32Cube_FW_N6/Drivers/STM32N6xx_HAL_Driver/Src/stm32n6xx_hal_ltdc.c ****   UNUSED(hltdc);
 931:STM32Cube_FW_N6/Drivers/STM32N6xx_HAL_Driver/Src/stm32n6xx_hal_ltdc.c **** 
 932:STM32Cube_FW_N6/Drivers/STM32N6xx_HAL_Driver/Src/stm32n6xx_hal_ltdc.c ****   /* NOTE : This function should not be modified, when the callback is needed,
 933:STM32Cube_FW_N6/Drivers/STM32N6xx_HAL_Driver/Src/stm32n6xx_hal_ltdc.c ****             the HAL_LTDC_ErrorCallback could be implemented in the user file
 934:STM32Cube_FW_N6/Drivers/STM32N6xx_HAL_Driver/Src/stm32n6xx_hal_ltdc.c ****    */
 935:STM32Cube_FW_N6/Drivers/STM32N6xx_HAL_Driver/Src/stm32n6xx_hal_ltdc.c **** }
 1249              		.loc 1 935 1
 1250 0008 00BF     		nop
 1251 000a 0C37     		adds	r7, r7, #12
 1252              		.cfi_def_cfa_offset 4
 1253 000c BD46     		mov	sp, r7
 1254              		.cfi_def_cfa_register 13
 1255              		@ sp needed
 1256 000e 5DF8047B 		ldr	r7, [sp], #4
 1257              		.cfi_restore 7
 1258              		.cfi_def_cfa_offset 0
 1259 0012 7047     		bx	lr
 1260              		.cfi_endproc
 1261              	.LFE842:
 1263              		.section	.text.HAL_LTDC_LineEventCallback,"ax",%progbits
 1264              		.align	1
 1265              		.weak	HAL_LTDC_LineEventCallback
 1266              		.syntax unified
 1267              		.thumb
 1268              		.thumb_func
 1270              	HAL_LTDC_LineEventCallback:
 1271              	.LFB843:
 936:STM32Cube_FW_N6/Drivers/STM32N6xx_HAL_Driver/Src/stm32n6xx_hal_ltdc.c **** 
 937:STM32Cube_FW_N6/Drivers/STM32N6xx_HAL_Driver/Src/stm32n6xx_hal_ltdc.c **** /**
 938:STM32Cube_FW_N6/Drivers/STM32N6xx_HAL_Driver/Src/stm32n6xx_hal_ltdc.c ****   * @brief  Line Event callback.
 939:STM32Cube_FW_N6/Drivers/STM32N6xx_HAL_Driver/Src/stm32n6xx_hal_ltdc.c ****   * @param  hltdc  pointer to a LTDC_HandleTypeDef structure that contains
 940:STM32Cube_FW_N6/Drivers/STM32N6xx_HAL_Driver/Src/stm32n6xx_hal_ltdc.c ****   *                the configuration information for the LTDC.
 941:STM32Cube_FW_N6/Drivers/STM32N6xx_HAL_Driver/Src/stm32n6xx_hal_ltdc.c ****   * @retval None
 942:STM32Cube_FW_N6/Drivers/STM32N6xx_HAL_Driver/Src/stm32n6xx_hal_ltdc.c ****   */
 943:STM32Cube_FW_N6/Drivers/STM32N6xx_HAL_Driver/Src/stm32n6xx_hal_ltdc.c **** __weak void HAL_LTDC_LineEventCallback(LTDC_HandleTypeDef *hltdc)
 944:STM32Cube_FW_N6/Drivers/STM32N6xx_HAL_Driver/Src/stm32n6xx_hal_ltdc.c **** {
 1272              		.loc 1 944 1
 1273              		.cfi_startproc
 1274              		@ args = 0, pretend = 0, frame = 8
 1275              		@ frame_needed = 1, uses_anonymous_args = 0
 1276              		@ link register save eliminated.
 1277 0000 80B4     		push	{r7}
 1278              		.cfi_def_cfa_offset 4
 1279              		.cfi_offset 7, -4
 1280 0002 83B0     		sub	sp, sp, #12
 1281              		.cfi_def_cfa_offset 16
 1282 0004 00AF     		add	r7, sp, #0
 1283              		.cfi_def_cfa_register 7
 1284 0006 7860     		str	r0, [r7, #4]
 945:STM32Cube_FW_N6/Drivers/STM32N6xx_HAL_Driver/Src/stm32n6xx_hal_ltdc.c ****   /* Prevent unused argument(s) compilation warning */
 946:STM32Cube_FW_N6/Drivers/STM32N6xx_HAL_Driver/Src/stm32n6xx_hal_ltdc.c ****   UNUSED(hltdc);
 947:STM32Cube_FW_N6/Drivers/STM32N6xx_HAL_Driver/Src/stm32n6xx_hal_ltdc.c **** 
 948:STM32Cube_FW_N6/Drivers/STM32N6xx_HAL_Driver/Src/stm32n6xx_hal_ltdc.c ****   /* NOTE : This function should not be modified, when the callback is needed,
 949:STM32Cube_FW_N6/Drivers/STM32N6xx_HAL_Driver/Src/stm32n6xx_hal_ltdc.c ****             the HAL_LTDC_LineEventCallback could be implemented in the user file
 950:STM32Cube_FW_N6/Drivers/STM32N6xx_HAL_Driver/Src/stm32n6xx_hal_ltdc.c ****    */
 951:STM32Cube_FW_N6/Drivers/STM32N6xx_HAL_Driver/Src/stm32n6xx_hal_ltdc.c **** }
ARM GAS  /tmp/ccM4Rtv8.s 			page 40


 1285              		.loc 1 951 1
 1286 0008 00BF     		nop
 1287 000a 0C37     		adds	r7, r7, #12
 1288              		.cfi_def_cfa_offset 4
 1289 000c BD46     		mov	sp, r7
 1290              		.cfi_def_cfa_register 13
 1291              		@ sp needed
 1292 000e 5DF8047B 		ldr	r7, [sp], #4
 1293              		.cfi_restore 7
 1294              		.cfi_def_cfa_offset 0
 1295 0012 7047     		bx	lr
 1296              		.cfi_endproc
 1297              	.LFE843:
 1299              		.section	.text.HAL_LTDC_ReloadEventCallback,"ax",%progbits
 1300              		.align	1
 1301              		.weak	HAL_LTDC_ReloadEventCallback
 1302              		.syntax unified
 1303              		.thumb
 1304              		.thumb_func
 1306              	HAL_LTDC_ReloadEventCallback:
 1307              	.LFB844:
 952:STM32Cube_FW_N6/Drivers/STM32N6xx_HAL_Driver/Src/stm32n6xx_hal_ltdc.c **** 
 953:STM32Cube_FW_N6/Drivers/STM32N6xx_HAL_Driver/Src/stm32n6xx_hal_ltdc.c **** /**
 954:STM32Cube_FW_N6/Drivers/STM32N6xx_HAL_Driver/Src/stm32n6xx_hal_ltdc.c ****   * @brief  Reload Event callback.
 955:STM32Cube_FW_N6/Drivers/STM32N6xx_HAL_Driver/Src/stm32n6xx_hal_ltdc.c ****   * @param  hltdc  pointer to a LTDC_HandleTypeDef structure that contains
 956:STM32Cube_FW_N6/Drivers/STM32N6xx_HAL_Driver/Src/stm32n6xx_hal_ltdc.c ****   *                the configuration information for the LTDC.
 957:STM32Cube_FW_N6/Drivers/STM32N6xx_HAL_Driver/Src/stm32n6xx_hal_ltdc.c ****   * @retval None
 958:STM32Cube_FW_N6/Drivers/STM32N6xx_HAL_Driver/Src/stm32n6xx_hal_ltdc.c ****   */
 959:STM32Cube_FW_N6/Drivers/STM32N6xx_HAL_Driver/Src/stm32n6xx_hal_ltdc.c **** __weak void HAL_LTDC_ReloadEventCallback(LTDC_HandleTypeDef *hltdc)
 960:STM32Cube_FW_N6/Drivers/STM32N6xx_HAL_Driver/Src/stm32n6xx_hal_ltdc.c **** {
 1308              		.loc 1 960 1
 1309              		.cfi_startproc
 1310              		@ args = 0, pretend = 0, frame = 8
 1311              		@ frame_needed = 1, uses_anonymous_args = 0
 1312              		@ link register save eliminated.
 1313 0000 80B4     		push	{r7}
 1314              		.cfi_def_cfa_offset 4
 1315              		.cfi_offset 7, -4
 1316 0002 83B0     		sub	sp, sp, #12
 1317              		.cfi_def_cfa_offset 16
 1318 0004 00AF     		add	r7, sp, #0
 1319              		.cfi_def_cfa_register 7
 1320 0006 7860     		str	r0, [r7, #4]
 961:STM32Cube_FW_N6/Drivers/STM32N6xx_HAL_Driver/Src/stm32n6xx_hal_ltdc.c ****   /* Prevent unused argument(s) compilation warning */
 962:STM32Cube_FW_N6/Drivers/STM32N6xx_HAL_Driver/Src/stm32n6xx_hal_ltdc.c ****   UNUSED(hltdc);
 963:STM32Cube_FW_N6/Drivers/STM32N6xx_HAL_Driver/Src/stm32n6xx_hal_ltdc.c **** 
 964:STM32Cube_FW_N6/Drivers/STM32N6xx_HAL_Driver/Src/stm32n6xx_hal_ltdc.c ****   /* NOTE : This function should not be modified, when the callback is needed,
 965:STM32Cube_FW_N6/Drivers/STM32N6xx_HAL_Driver/Src/stm32n6xx_hal_ltdc.c ****             the HAL_LTDC_ReloadEvenCallback could be implemented in the user file
 966:STM32Cube_FW_N6/Drivers/STM32N6xx_HAL_Driver/Src/stm32n6xx_hal_ltdc.c ****    */
 967:STM32Cube_FW_N6/Drivers/STM32N6xx_HAL_Driver/Src/stm32n6xx_hal_ltdc.c **** }
 1321              		.loc 1 967 1
 1322 0008 00BF     		nop
 1323 000a 0C37     		adds	r7, r7, #12
 1324              		.cfi_def_cfa_offset 4
 1325 000c BD46     		mov	sp, r7
 1326              		.cfi_def_cfa_register 13
 1327              		@ sp needed
ARM GAS  /tmp/ccM4Rtv8.s 			page 41


 1328 000e 5DF8047B 		ldr	r7, [sp], #4
 1329              		.cfi_restore 7
 1330              		.cfi_def_cfa_offset 0
 1331 0012 7047     		bx	lr
 1332              		.cfi_endproc
 1333              	.LFE844:
 1335              		.section	.text.HAL_LTDC_WarningEventCallback,"ax",%progbits
 1336              		.align	1
 1337              		.weak	HAL_LTDC_WarningEventCallback
 1338              		.syntax unified
 1339              		.thumb
 1340              		.thumb_func
 1342              	HAL_LTDC_WarningEventCallback:
 1343              	.LFB845:
 968:STM32Cube_FW_N6/Drivers/STM32N6xx_HAL_Driver/Src/stm32n6xx_hal_ltdc.c **** 
 969:STM32Cube_FW_N6/Drivers/STM32N6xx_HAL_Driver/Src/stm32n6xx_hal_ltdc.c **** /**
 970:STM32Cube_FW_N6/Drivers/STM32N6xx_HAL_Driver/Src/stm32n6xx_hal_ltdc.c ****   * @brief  LTDC FIFO Uderrun Warning callback.
 971:STM32Cube_FW_N6/Drivers/STM32N6xx_HAL_Driver/Src/stm32n6xx_hal_ltdc.c ****   * @param  hltdc  pointer to a LTDC_HandleTypeDef structure that contains
 972:STM32Cube_FW_N6/Drivers/STM32N6xx_HAL_Driver/Src/stm32n6xx_hal_ltdc.c ****   *                the configuration information for the LTDC.
 973:STM32Cube_FW_N6/Drivers/STM32N6xx_HAL_Driver/Src/stm32n6xx_hal_ltdc.c ****   * @retval None
 974:STM32Cube_FW_N6/Drivers/STM32N6xx_HAL_Driver/Src/stm32n6xx_hal_ltdc.c ****   */
 975:STM32Cube_FW_N6/Drivers/STM32N6xx_HAL_Driver/Src/stm32n6xx_hal_ltdc.c **** __weak void HAL_LTDC_WarningEventCallback(LTDC_HandleTypeDef *hltdc)
 976:STM32Cube_FW_N6/Drivers/STM32N6xx_HAL_Driver/Src/stm32n6xx_hal_ltdc.c **** {
 1344              		.loc 1 976 1
 1345              		.cfi_startproc
 1346              		@ args = 0, pretend = 0, frame = 8
 1347              		@ frame_needed = 1, uses_anonymous_args = 0
 1348              		@ link register save eliminated.
 1349 0000 80B4     		push	{r7}
 1350              		.cfi_def_cfa_offset 4
 1351              		.cfi_offset 7, -4
 1352 0002 83B0     		sub	sp, sp, #12
 1353              		.cfi_def_cfa_offset 16
 1354 0004 00AF     		add	r7, sp, #0
 1355              		.cfi_def_cfa_register 7
 1356 0006 7860     		str	r0, [r7, #4]
 977:STM32Cube_FW_N6/Drivers/STM32N6xx_HAL_Driver/Src/stm32n6xx_hal_ltdc.c ****   /* Prevent unused argument(s) compilation warning */
 978:STM32Cube_FW_N6/Drivers/STM32N6xx_HAL_Driver/Src/stm32n6xx_hal_ltdc.c ****   UNUSED(hltdc);
 979:STM32Cube_FW_N6/Drivers/STM32N6xx_HAL_Driver/Src/stm32n6xx_hal_ltdc.c **** 
 980:STM32Cube_FW_N6/Drivers/STM32N6xx_HAL_Driver/Src/stm32n6xx_hal_ltdc.c ****   /* NOTE : This function should not be modified, when the callback is needed,
 981:STM32Cube_FW_N6/Drivers/STM32N6xx_HAL_Driver/Src/stm32n6xx_hal_ltdc.c ****             the HAL_LTDC_SErrorCallback could be implemented in the user file
 982:STM32Cube_FW_N6/Drivers/STM32N6xx_HAL_Driver/Src/stm32n6xx_hal_ltdc.c ****    */
 983:STM32Cube_FW_N6/Drivers/STM32N6xx_HAL_Driver/Src/stm32n6xx_hal_ltdc.c **** }
 1357              		.loc 1 983 1
 1358 0008 00BF     		nop
 1359 000a 0C37     		adds	r7, r7, #12
 1360              		.cfi_def_cfa_offset 4
 1361 000c BD46     		mov	sp, r7
 1362              		.cfi_def_cfa_register 13
 1363              		@ sp needed
 1364 000e 5DF8047B 		ldr	r7, [sp], #4
 1365              		.cfi_restore 7
 1366              		.cfi_def_cfa_offset 0
 1367 0012 7047     		bx	lr
 1368              		.cfi_endproc
 1369              	.LFE845:
 1371              		.section	.text.HAL_LTDC_ConfigLayer,"ax",%progbits
ARM GAS  /tmp/ccM4Rtv8.s 			page 42


 1372              		.align	1
 1373              		.global	HAL_LTDC_ConfigLayer
 1374              		.syntax unified
 1375              		.thumb
 1376              		.thumb_func
 1378              	HAL_LTDC_ConfigLayer:
 1379              	.LFB846:
 984:STM32Cube_FW_N6/Drivers/STM32N6xx_HAL_Driver/Src/stm32n6xx_hal_ltdc.c **** 
 985:STM32Cube_FW_N6/Drivers/STM32N6xx_HAL_Driver/Src/stm32n6xx_hal_ltdc.c **** /**
 986:STM32Cube_FW_N6/Drivers/STM32N6xx_HAL_Driver/Src/stm32n6xx_hal_ltdc.c ****   * @}
 987:STM32Cube_FW_N6/Drivers/STM32N6xx_HAL_Driver/Src/stm32n6xx_hal_ltdc.c ****   */
 988:STM32Cube_FW_N6/Drivers/STM32N6xx_HAL_Driver/Src/stm32n6xx_hal_ltdc.c **** 
 989:STM32Cube_FW_N6/Drivers/STM32N6xx_HAL_Driver/Src/stm32n6xx_hal_ltdc.c **** /** @defgroup LTDC_Exported_Functions_Group3 Peripheral Control functions
 990:STM32Cube_FW_N6/Drivers/STM32N6xx_HAL_Driver/Src/stm32n6xx_hal_ltdc.c ****   *  @brief    Peripheral Control functions
 991:STM32Cube_FW_N6/Drivers/STM32N6xx_HAL_Driver/Src/stm32n6xx_hal_ltdc.c ****   *
 992:STM32Cube_FW_N6/Drivers/STM32N6xx_HAL_Driver/Src/stm32n6xx_hal_ltdc.c **** @verbatim
 993:STM32Cube_FW_N6/Drivers/STM32N6xx_HAL_Driver/Src/stm32n6xx_hal_ltdc.c ****  ===============================================================================
 994:STM32Cube_FW_N6/Drivers/STM32N6xx_HAL_Driver/Src/stm32n6xx_hal_ltdc.c ****                     ##### Peripheral Control functions #####
 995:STM32Cube_FW_N6/Drivers/STM32N6xx_HAL_Driver/Src/stm32n6xx_hal_ltdc.c ****  ===============================================================================
 996:STM32Cube_FW_N6/Drivers/STM32N6xx_HAL_Driver/Src/stm32n6xx_hal_ltdc.c ****     [..]  This section provides functions allowing to:
 997:STM32Cube_FW_N6/Drivers/STM32N6xx_HAL_Driver/Src/stm32n6xx_hal_ltdc.c ****       (+) Configure the LTDC foreground or/and background parameters.
 998:STM32Cube_FW_N6/Drivers/STM32N6xx_HAL_Driver/Src/stm32n6xx_hal_ltdc.c ****       (+) Set the active layer.
 999:STM32Cube_FW_N6/Drivers/STM32N6xx_HAL_Driver/Src/stm32n6xx_hal_ltdc.c ****       (+) Configure the color keying.
1000:STM32Cube_FW_N6/Drivers/STM32N6xx_HAL_Driver/Src/stm32n6xx_hal_ltdc.c ****       (+) Configure the C-LUT.
1001:STM32Cube_FW_N6/Drivers/STM32N6xx_HAL_Driver/Src/stm32n6xx_hal_ltdc.c ****       (+) Enable / Disable the color keying.
1002:STM32Cube_FW_N6/Drivers/STM32N6xx_HAL_Driver/Src/stm32n6xx_hal_ltdc.c ****       (+) Enable / Disable the C-LUT.
1003:STM32Cube_FW_N6/Drivers/STM32N6xx_HAL_Driver/Src/stm32n6xx_hal_ltdc.c ****       (+) Update the layer position.
1004:STM32Cube_FW_N6/Drivers/STM32N6xx_HAL_Driver/Src/stm32n6xx_hal_ltdc.c ****       (+) Update the layer size.
1005:STM32Cube_FW_N6/Drivers/STM32N6xx_HAL_Driver/Src/stm32n6xx_hal_ltdc.c ****       (+) Update pixel format on the fly.
1006:STM32Cube_FW_N6/Drivers/STM32N6xx_HAL_Driver/Src/stm32n6xx_hal_ltdc.c ****       (+) Update transparency on the fly.
1007:STM32Cube_FW_N6/Drivers/STM32N6xx_HAL_Driver/Src/stm32n6xx_hal_ltdc.c ****       (+) Update address on the fly.
1008:STM32Cube_FW_N6/Drivers/STM32N6xx_HAL_Driver/Src/stm32n6xx_hal_ltdc.c **** 
1009:STM32Cube_FW_N6/Drivers/STM32N6xx_HAL_Driver/Src/stm32n6xx_hal_ltdc.c **** @endverbatim
1010:STM32Cube_FW_N6/Drivers/STM32N6xx_HAL_Driver/Src/stm32n6xx_hal_ltdc.c ****   * @{
1011:STM32Cube_FW_N6/Drivers/STM32N6xx_HAL_Driver/Src/stm32n6xx_hal_ltdc.c ****   */
1012:STM32Cube_FW_N6/Drivers/STM32N6xx_HAL_Driver/Src/stm32n6xx_hal_ltdc.c **** 
1013:STM32Cube_FW_N6/Drivers/STM32N6xx_HAL_Driver/Src/stm32n6xx_hal_ltdc.c **** /**
1014:STM32Cube_FW_N6/Drivers/STM32N6xx_HAL_Driver/Src/stm32n6xx_hal_ltdc.c ****   * @brief  Configure the LTDC Layer according to the specified
1015:STM32Cube_FW_N6/Drivers/STM32N6xx_HAL_Driver/Src/stm32n6xx_hal_ltdc.c ****   *         parameters in the LTDC_InitTypeDef and create the associated handle.
1016:STM32Cube_FW_N6/Drivers/STM32N6xx_HAL_Driver/Src/stm32n6xx_hal_ltdc.c ****   * @param  hltdc      pointer to a LTDC_HandleTypeDef structure that contains
1017:STM32Cube_FW_N6/Drivers/STM32N6xx_HAL_Driver/Src/stm32n6xx_hal_ltdc.c ****   *                    the configuration information for the LTDC.
1018:STM32Cube_FW_N6/Drivers/STM32N6xx_HAL_Driver/Src/stm32n6xx_hal_ltdc.c ****   * @param  pLayerCfg  pointer to a LTDC_LayerCfgTypeDef structure that contains
1019:STM32Cube_FW_N6/Drivers/STM32N6xx_HAL_Driver/Src/stm32n6xx_hal_ltdc.c ****   *                    the configuration information for the Layer.
1020:STM32Cube_FW_N6/Drivers/STM32N6xx_HAL_Driver/Src/stm32n6xx_hal_ltdc.c ****   * @param  LayerIdx  LTDC Layer index.
1021:STM32Cube_FW_N6/Drivers/STM32N6xx_HAL_Driver/Src/stm32n6xx_hal_ltdc.c ****   *                    This parameter can be one of the following values:
1022:STM32Cube_FW_N6/Drivers/STM32N6xx_HAL_Driver/Src/stm32n6xx_hal_ltdc.c ****   *                    LTDC_LAYER_1 (0) or LTDC_LAYER_2 (1)
1023:STM32Cube_FW_N6/Drivers/STM32N6xx_HAL_Driver/Src/stm32n6xx_hal_ltdc.c ****   * @retval HAL status
1024:STM32Cube_FW_N6/Drivers/STM32N6xx_HAL_Driver/Src/stm32n6xx_hal_ltdc.c ****   */
1025:STM32Cube_FW_N6/Drivers/STM32N6xx_HAL_Driver/Src/stm32n6xx_hal_ltdc.c **** HAL_StatusTypeDef HAL_LTDC_ConfigLayer(LTDC_HandleTypeDef *hltdc, LTDC_LayerCfgTypeDef *pLayerCfg, 
1026:STM32Cube_FW_N6/Drivers/STM32N6xx_HAL_Driver/Src/stm32n6xx_hal_ltdc.c **** {
 1380              		.loc 1 1026 1
 1381              		.cfi_startproc
 1382              		@ args = 0, pretend = 0, frame = 16
 1383              		@ frame_needed = 1, uses_anonymous_args = 0
 1384 0000 B0B5     		push	{r4, r5, r7, lr}
 1385              		.cfi_def_cfa_offset 16
 1386              		.cfi_offset 4, -16
ARM GAS  /tmp/ccM4Rtv8.s 			page 43


 1387              		.cfi_offset 5, -12
 1388              		.cfi_offset 7, -8
 1389              		.cfi_offset 14, -4
 1390 0002 86B0     		sub	sp, sp, #24
 1391              		.cfi_def_cfa_offset 40
 1392 0004 02AF     		add	r7, sp, #8
 1393              		.cfi_def_cfa 7, 32
 1394 0006 F860     		str	r0, [r7, #12]
 1395 0008 B960     		str	r1, [r7, #8]
 1396 000a 7A60     		str	r2, [r7, #4]
1027:STM32Cube_FW_N6/Drivers/STM32N6xx_HAL_Driver/Src/stm32n6xx_hal_ltdc.c ****   /* Check the parameters */
1028:STM32Cube_FW_N6/Drivers/STM32N6xx_HAL_Driver/Src/stm32n6xx_hal_ltdc.c ****   assert_param(IS_LTDC_LAYER(LayerIdx));
 1397              		.loc 1 1028 3
 1398 000c 7B68     		ldr	r3, [r7, #4]
 1399 000e 012B     		cmp	r3, #1
 1400 0010 04D9     		bls	.L57
 1401              		.loc 1 1028 3 is_stmt 0 discriminator 1
 1402 0012 40F20441 		movw	r1, #1028
 1403 0016 8048     		ldr	r0, .L71
 1404 0018 FFF7FEFF 		bl	assert_failed
 1405              	.L57:
1029:STM32Cube_FW_N6/Drivers/STM32N6xx_HAL_Driver/Src/stm32n6xx_hal_ltdc.c ****   assert_param(IS_LTDC_HCONFIGST(pLayerCfg->WindowX0));
 1406              		.loc 1 1029 3 is_stmt 1
 1407 001c BB68     		ldr	r3, [r7, #8]
 1408 001e 1B68     		ldr	r3, [r3]
 1409 0020 B3F5805F 		cmp	r3, #4096
 1410 0024 04D3     		bcc	.L58
 1411              		.loc 1 1029 3 is_stmt 0 discriminator 1
 1412 0026 40F20541 		movw	r1, #1029
 1413 002a 7B48     		ldr	r0, .L71
 1414 002c FFF7FEFF 		bl	assert_failed
 1415              	.L58:
1030:STM32Cube_FW_N6/Drivers/STM32N6xx_HAL_Driver/Src/stm32n6xx_hal_ltdc.c ****   assert_param(IS_LTDC_HCONFIGSP(pLayerCfg->WindowX1));
 1416              		.loc 1 1030 3 is_stmt 1
 1417 0030 BB68     		ldr	r3, [r7, #8]
 1418 0032 5B68     		ldr	r3, [r3, #4]
 1419 0034 B3F5805F 		cmp	r3, #4096
 1420 0038 04D3     		bcc	.L59
 1421              		.loc 1 1030 3 is_stmt 0 discriminator 1
 1422 003a 40F20641 		movw	r1, #1030
 1423 003e 7648     		ldr	r0, .L71
 1424 0040 FFF7FEFF 		bl	assert_failed
 1425              	.L59:
1031:STM32Cube_FW_N6/Drivers/STM32N6xx_HAL_Driver/Src/stm32n6xx_hal_ltdc.c ****   assert_param(IS_LTDC_VCONFIGST(pLayerCfg->WindowY0));
 1426              		.loc 1 1031 3 is_stmt 1
 1427 0044 BB68     		ldr	r3, [r7, #8]
 1428 0046 9B68     		ldr	r3, [r3, #8]
 1429 0048 B3F5805F 		cmp	r3, #4096
 1430 004c 04D3     		bcc	.L60
 1431              		.loc 1 1031 3 is_stmt 0 discriminator 1
 1432 004e 40F20741 		movw	r1, #1031
 1433 0052 7148     		ldr	r0, .L71
 1434 0054 FFF7FEFF 		bl	assert_failed
 1435              	.L60:
1032:STM32Cube_FW_N6/Drivers/STM32N6xx_HAL_Driver/Src/stm32n6xx_hal_ltdc.c ****   assert_param(IS_LTDC_VCONFIGSP(pLayerCfg->WindowY1));
 1436              		.loc 1 1032 3 is_stmt 1
 1437 0058 BB68     		ldr	r3, [r7, #8]
ARM GAS  /tmp/ccM4Rtv8.s 			page 44


 1438 005a DB68     		ldr	r3, [r3, #12]
 1439 005c B3F5805F 		cmp	r3, #4096
 1440 0060 04D3     		bcc	.L61
 1441              		.loc 1 1032 3 is_stmt 0 discriminator 1
 1442 0062 4FF48161 		mov	r1, #1032
 1443 0066 6C48     		ldr	r0, .L71
 1444 0068 FFF7FEFF 		bl	assert_failed
 1445              	.L61:
1033:STM32Cube_FW_N6/Drivers/STM32N6xx_HAL_Driver/Src/stm32n6xx_hal_ltdc.c ****   assert_param(IS_LTDC_PIXEL_FORMAT(pLayerCfg->PixelFormat));
 1446              		.loc 1 1033 3 is_stmt 1
 1447 006c BB68     		ldr	r3, [r7, #8]
 1448 006e 1B69     		ldr	r3, [r3, #16]
 1449 0070 002B     		cmp	r3, #0
 1450 0072 30D0     		beq	.L62
 1451              		.loc 1 1033 3 is_stmt 0 discriminator 1
 1452 0074 BB68     		ldr	r3, [r7, #8]
 1453 0076 1B69     		ldr	r3, [r3, #16]
 1454 0078 012B     		cmp	r3, #1
 1455 007a 2CD0     		beq	.L62
 1456              		.loc 1 1033 3 discriminator 2
 1457 007c BB68     		ldr	r3, [r7, #8]
 1458 007e 1B69     		ldr	r3, [r3, #16]
 1459 0080 022B     		cmp	r3, #2
 1460 0082 28D0     		beq	.L62
 1461              		.loc 1 1033 3 discriminator 3
 1462 0084 BB68     		ldr	r3, [r7, #8]
 1463 0086 1B69     		ldr	r3, [r3, #16]
 1464 0088 032B     		cmp	r3, #3
 1465 008a 24D0     		beq	.L62
 1466              		.loc 1 1033 3 discriminator 4
 1467 008c BB68     		ldr	r3, [r7, #8]
 1468 008e 1B69     		ldr	r3, [r3, #16]
 1469 0090 042B     		cmp	r3, #4
 1470 0092 20D0     		beq	.L62
 1471              		.loc 1 1033 3 discriminator 5
 1472 0094 BB68     		ldr	r3, [r7, #8]
 1473 0096 1B69     		ldr	r3, [r3, #16]
 1474 0098 052B     		cmp	r3, #5
 1475 009a 1CD0     		beq	.L62
 1476              		.loc 1 1033 3 discriminator 6
 1477 009c BB68     		ldr	r3, [r7, #8]
 1478 009e 1B69     		ldr	r3, [r3, #16]
 1479 00a0 062B     		cmp	r3, #6
 1480 00a2 18D0     		beq	.L62
 1481              		.loc 1 1033 3 discriminator 7
 1482 00a4 BB68     		ldr	r3, [r7, #8]
 1483 00a6 1B69     		ldr	r3, [r3, #16]
 1484 00a8 072B     		cmp	r3, #7
 1485 00aa 14D0     		beq	.L62
 1486              		.loc 1 1033 3 discriminator 8
 1487 00ac BB68     		ldr	r3, [r7, #8]
 1488 00ae 1B69     		ldr	r3, [r3, #16]
 1489 00b0 082B     		cmp	r3, #8
 1490 00b2 10D0     		beq	.L62
 1491              		.loc 1 1033 3 discriminator 9
 1492 00b4 BB68     		ldr	r3, [r7, #8]
 1493 00b6 1B69     		ldr	r3, [r3, #16]
ARM GAS  /tmp/ccM4Rtv8.s 			page 45


 1494 00b8 092B     		cmp	r3, #9
 1495 00ba 0CD0     		beq	.L62
 1496              		.loc 1 1033 3 discriminator 10
 1497 00bc BB68     		ldr	r3, [r7, #8]
 1498 00be 1B69     		ldr	r3, [r3, #16]
 1499 00c0 0A2B     		cmp	r3, #10
 1500 00c2 08D0     		beq	.L62
 1501              		.loc 1 1033 3 discriminator 11
 1502 00c4 BB68     		ldr	r3, [r7, #8]
 1503 00c6 1B69     		ldr	r3, [r3, #16]
 1504 00c8 0B2B     		cmp	r3, #11
 1505 00ca 04D0     		beq	.L62
 1506              		.loc 1 1033 3 discriminator 12
 1507 00cc 40F20941 		movw	r1, #1033
 1508 00d0 5148     		ldr	r0, .L71
 1509 00d2 FFF7FEFF 		bl	assert_failed
 1510              	.L62:
1034:STM32Cube_FW_N6/Drivers/STM32N6xx_HAL_Driver/Src/stm32n6xx_hal_ltdc.c ****   assert_param(IS_LTDC_ALPHA(pLayerCfg->Alpha));
 1511              		.loc 1 1034 3 is_stmt 1
 1512 00d6 BB68     		ldr	r3, [r7, #8]
 1513 00d8 5B69     		ldr	r3, [r3, #20]
 1514 00da FF2B     		cmp	r3, #255
 1515 00dc 04D9     		bls	.L63
 1516              		.loc 1 1034 3 is_stmt 0 discriminator 1
 1517 00de 40F20A41 		movw	r1, #1034
 1518 00e2 4D48     		ldr	r0, .L71
 1519 00e4 FFF7FEFF 		bl	assert_failed
 1520              	.L63:
1035:STM32Cube_FW_N6/Drivers/STM32N6xx_HAL_Driver/Src/stm32n6xx_hal_ltdc.c ****   assert_param(IS_LTDC_ALPHA(pLayerCfg->Alpha0));
 1521              		.loc 1 1035 3 is_stmt 1
 1522 00e8 BB68     		ldr	r3, [r7, #8]
 1523 00ea 9B69     		ldr	r3, [r3, #24]
 1524 00ec FF2B     		cmp	r3, #255
 1525 00ee 04D9     		bls	.L64
 1526              		.loc 1 1035 3 is_stmt 0 discriminator 1
 1527 00f0 40F20B41 		movw	r1, #1035
 1528 00f4 4848     		ldr	r0, .L71
 1529 00f6 FFF7FEFF 		bl	assert_failed
 1530              	.L64:
1036:STM32Cube_FW_N6/Drivers/STM32N6xx_HAL_Driver/Src/stm32n6xx_hal_ltdc.c ****   assert_param(IS_LTDC_BLENDING_FACTOR1(pLayerCfg->BlendingFactor1));
 1531              		.loc 1 1036 3 is_stmt 1
 1532 00fa BB68     		ldr	r3, [r7, #8]
 1533 00fc DB69     		ldr	r3, [r3, #28]
 1534 00fe B3F5806F 		cmp	r3, #1024
 1535 0102 09D0     		beq	.L65
 1536              		.loc 1 1036 3 is_stmt 0 discriminator 1
 1537 0104 BB68     		ldr	r3, [r7, #8]
 1538 0106 DB69     		ldr	r3, [r3, #28]
 1539 0108 B3F5C06F 		cmp	r3, #1536
 1540 010c 04D0     		beq	.L65
 1541              		.loc 1 1036 3 discriminator 2
 1542 010e 40F20C41 		movw	r1, #1036
 1543 0112 4148     		ldr	r0, .L71
 1544 0114 FFF7FEFF 		bl	assert_failed
 1545              	.L65:
1037:STM32Cube_FW_N6/Drivers/STM32N6xx_HAL_Driver/Src/stm32n6xx_hal_ltdc.c ****   assert_param(IS_LTDC_BLENDING_FACTOR2(pLayerCfg->BlendingFactor2));
 1546              		.loc 1 1037 3 is_stmt 1
ARM GAS  /tmp/ccM4Rtv8.s 			page 46


 1547 0118 BB68     		ldr	r3, [r7, #8]
 1548 011a 1B6A     		ldr	r3, [r3, #32]
 1549 011c 052B     		cmp	r3, #5
 1550 011e 08D0     		beq	.L66
 1551              		.loc 1 1037 3 is_stmt 0 discriminator 1
 1552 0120 BB68     		ldr	r3, [r7, #8]
 1553 0122 1B6A     		ldr	r3, [r3, #32]
 1554 0124 072B     		cmp	r3, #7
 1555 0126 04D0     		beq	.L66
 1556              		.loc 1 1037 3 discriminator 2
 1557 0128 40F20D41 		movw	r1, #1037
 1558 012c 3A48     		ldr	r0, .L71
 1559 012e FFF7FEFF 		bl	assert_failed
 1560              	.L66:
1038:STM32Cube_FW_N6/Drivers/STM32N6xx_HAL_Driver/Src/stm32n6xx_hal_ltdc.c ****   assert_param(IS_LTDC_CFBLL(pLayerCfg->ImageWidth));
 1561              		.loc 1 1038 3 is_stmt 1
 1562 0132 BB68     		ldr	r3, [r7, #8]
 1563 0134 9B6A     		ldr	r3, [r3, #40]
 1564 0136 B3F5804F 		cmp	r3, #16384
 1565 013a 04D3     		bcc	.L67
 1566              		.loc 1 1038 3 is_stmt 0 discriminator 1
 1567 013c 40F20E41 		movw	r1, #1038
 1568 0140 3548     		ldr	r0, .L71
 1569 0142 FFF7FEFF 		bl	assert_failed
 1570              	.L67:
1039:STM32Cube_FW_N6/Drivers/STM32N6xx_HAL_Driver/Src/stm32n6xx_hal_ltdc.c ****   assert_param(IS_LTDC_CFBLNBR(pLayerCfg->ImageHeight));
 1571              		.loc 1 1039 3 is_stmt 1
 1572 0146 BB68     		ldr	r3, [r7, #8]
 1573 0148 DB6A     		ldr	r3, [r3, #44]
 1574 014a B3F5805F 		cmp	r3, #4096
 1575 014e 04D3     		bcc	.L68
 1576              		.loc 1 1039 3 is_stmt 0 discriminator 1
 1577 0150 40F20F41 		movw	r1, #1039
 1578 0154 3048     		ldr	r0, .L71
 1579 0156 FFF7FEFF 		bl	assert_failed
 1580              	.L68:
1040:STM32Cube_FW_N6/Drivers/STM32N6xx_HAL_Driver/Src/stm32n6xx_hal_ltdc.c **** 
1041:STM32Cube_FW_N6/Drivers/STM32N6xx_HAL_Driver/Src/stm32n6xx_hal_ltdc.c ****   /* Process locked */
1042:STM32Cube_FW_N6/Drivers/STM32N6xx_HAL_Driver/Src/stm32n6xx_hal_ltdc.c ****   __HAL_LOCK(hltdc);
 1581              		.loc 1 1042 3 is_stmt 1
 1582 015a FB68     		ldr	r3, [r7, #12]
 1583 015c 93F8A030 		ldrb	r3, [r3, #160]	@ zero_extendqisi2
 1584 0160 012B     		cmp	r3, #1
 1585 0162 01D1     		bne	.L69
 1586              		.loc 1 1042 3 is_stmt 0 discriminator 1
 1587 0164 0223     		movs	r3, #2
 1588              		.loc 1 1042 3
 1589 0166 52E0     		b	.L70
 1590              	.L69:
 1591              		.loc 1 1042 3 discriminator 2
 1592 0168 FB68     		ldr	r3, [r7, #12]
 1593 016a 0122     		movs	r2, #1
 1594 016c 83F8A020 		strb	r2, [r3, #160]
1043:STM32Cube_FW_N6/Drivers/STM32N6xx_HAL_Driver/Src/stm32n6xx_hal_ltdc.c **** 
1044:STM32Cube_FW_N6/Drivers/STM32N6xx_HAL_Driver/Src/stm32n6xx_hal_ltdc.c ****   /* Change LTDC peripheral state */
1045:STM32Cube_FW_N6/Drivers/STM32N6xx_HAL_Driver/Src/stm32n6xx_hal_ltdc.c ****   hltdc->State = HAL_LTDC_STATE_BUSY;
 1595              		.loc 1 1045 16 is_stmt 1
ARM GAS  /tmp/ccM4Rtv8.s 			page 47


 1596 0170 FB68     		ldr	r3, [r7, #12]
 1597 0172 0222     		movs	r2, #2
 1598 0174 83F8A120 		strb	r2, [r3, #161]
1046:STM32Cube_FW_N6/Drivers/STM32N6xx_HAL_Driver/Src/stm32n6xx_hal_ltdc.c **** 
1047:STM32Cube_FW_N6/Drivers/STM32N6xx_HAL_Driver/Src/stm32n6xx_hal_ltdc.c ****   /* Copy new layer configuration into handle structure */
1048:STM32Cube_FW_N6/Drivers/STM32N6xx_HAL_Driver/Src/stm32n6xx_hal_ltdc.c ****   hltdc->LayerCfg[LayerIdx] = *pLayerCfg;
 1599              		.loc 1 1048 29
 1600 0178 FA68     		ldr	r2, [r7, #12]
 1601 017a 7B68     		ldr	r3, [r7, #4]
 1602 017c 3421     		movs	r1, #52
 1603 017e 01FB03F3 		mul	r3, r1, r3
 1604 0182 1344     		add	r3, r3, r2
 1605 0184 03F13802 		add	r2, r3, #56
 1606 0188 BB68     		ldr	r3, [r7, #8]
 1607 018a 1446     		mov	r4, r2
 1608 018c 1D46     		mov	r5, r3
 1609 018e 0FCD     		ldmia	r5!, {r0, r1, r2, r3}
 1610 0190 0FC4     		stmia	r4!, {r0, r1, r2, r3}
 1611 0192 0FCD     		ldmia	r5!, {r0, r1, r2, r3}
 1612 0194 0FC4     		stmia	r4!, {r0, r1, r2, r3}
 1613 0196 0FCD     		ldmia	r5!, {r0, r1, r2, r3}
 1614 0198 0FC4     		stmia	r4!, {r0, r1, r2, r3}
 1615 019a 2B68     		ldr	r3, [r5]
 1616 019c 2360     		str	r3, [r4]
1049:STM32Cube_FW_N6/Drivers/STM32N6xx_HAL_Driver/Src/stm32n6xx_hal_ltdc.c **** 
1050:STM32Cube_FW_N6/Drivers/STM32N6xx_HAL_Driver/Src/stm32n6xx_hal_ltdc.c ****   /* Configure Predefined format */
1051:STM32Cube_FW_N6/Drivers/STM32N6xx_HAL_Driver/Src/stm32n6xx_hal_ltdc.c ****   LTDC_SetPredefFormat(hltdc, LayerIdx);
 1617              		.loc 1 1051 3
 1618 019e 7968     		ldr	r1, [r7, #4]
 1619 01a0 F868     		ldr	r0, [r7, #12]
 1620 01a2 FFF7FEFF 		bl	LTDC_SetPredefFormat
1052:STM32Cube_FW_N6/Drivers/STM32N6xx_HAL_Driver/Src/stm32n6xx_hal_ltdc.c **** 
1053:STM32Cube_FW_N6/Drivers/STM32N6xx_HAL_Driver/Src/stm32n6xx_hal_ltdc.c ****   /* Configure composition and blending*/
1054:STM32Cube_FW_N6/Drivers/STM32N6xx_HAL_Driver/Src/stm32n6xx_hal_ltdc.c ****   LTDC_SetCompositionConfig(hltdc, LayerIdx);
 1621              		.loc 1 1054 3
 1622 01a6 7968     		ldr	r1, [r7, #4]
 1623 01a8 F868     		ldr	r0, [r7, #12]
 1624 01aa FFF7FEFF 		bl	LTDC_SetCompositionConfig
1055:STM32Cube_FW_N6/Drivers/STM32N6xx_HAL_Driver/Src/stm32n6xx_hal_ltdc.c **** 
1056:STM32Cube_FW_N6/Drivers/STM32N6xx_HAL_Driver/Src/stm32n6xx_hal_ltdc.c ****   /* Disable YUV format */
1057:STM32Cube_FW_N6/Drivers/STM32N6xx_HAL_Driver/Src/stm32n6xx_hal_ltdc.c ****   CLEAR_BIT(LTDC_LAYER(hltdc, LayerIdx)->PCR, LTDC_LxPCR_YCEN);
 1625              		.loc 1 1057 3
 1626 01ae FB68     		ldr	r3, [r7, #12]
 1627 01b0 1B68     		ldr	r3, [r3]
 1628 01b2 1A46     		mov	r2, r3
 1629 01b4 7B68     		ldr	r3, [r7, #4]
 1630 01b6 1B02     		lsls	r3, r3, #8
 1631 01b8 1344     		add	r3, r3, r2
 1632 01ba 03F58073 		add	r3, r3, #256
 1633 01be 1B6B     		ldr	r3, [r3, #48]
 1634 01c0 FA68     		ldr	r2, [r7, #12]
 1635 01c2 1268     		ldr	r2, [r2]
 1636 01c4 1146     		mov	r1, r2
 1637 01c6 7A68     		ldr	r2, [r7, #4]
 1638 01c8 1202     		lsls	r2, r2, #8
 1639 01ca 0A44     		add	r2, r2, r1
 1640 01cc 02F58072 		add	r2, r2, #256
ARM GAS  /tmp/ccM4Rtv8.s 			page 48


 1641 01d0 23F00803 		bic	r3, r3, #8
 1642 01d4 1363     		str	r3, [r2, #48]
1058:STM32Cube_FW_N6/Drivers/STM32N6xx_HAL_Driver/Src/stm32n6xx_hal_ltdc.c **** 
1059:STM32Cube_FW_N6/Drivers/STM32N6xx_HAL_Driver/Src/stm32n6xx_hal_ltdc.c ****   /* Configure the LTDC Layer */
1060:STM32Cube_FW_N6/Drivers/STM32N6xx_HAL_Driver/Src/stm32n6xx_hal_ltdc.c ****   LTDC_SetConfig(hltdc, 0U, 0U, LTDC_MIRROR_NONE, LayerIdx);
 1643              		.loc 1 1060 3
 1644 01d6 7B68     		ldr	r3, [r7, #4]
 1645 01d8 0093     		str	r3, [sp]
 1646 01da 0323     		movs	r3, #3
 1647 01dc 0022     		movs	r2, #0
 1648 01de 0021     		movs	r1, #0
 1649 01e0 F868     		ldr	r0, [r7, #12]
 1650 01e2 FFF7FEFF 		bl	LTDC_SetConfig
1061:STM32Cube_FW_N6/Drivers/STM32N6xx_HAL_Driver/Src/stm32n6xx_hal_ltdc.c **** 
1062:STM32Cube_FW_N6/Drivers/STM32N6xx_HAL_Driver/Src/stm32n6xx_hal_ltdc.c ****   /* Set the Immediate Reload type */
1063:STM32Cube_FW_N6/Drivers/STM32N6xx_HAL_Driver/Src/stm32n6xx_hal_ltdc.c ****   WRITE_REG(LTDC_LAYER(hltdc, LayerIdx)->RCR, LTDC_LxRCR_IMR | LTDC_LxRCR_GRMSK);
 1651              		.loc 1 1063 3
 1652 01e6 FB68     		ldr	r3, [r7, #12]
 1653 01e8 1B68     		ldr	r3, [r3]
 1654 01ea 1A46     		mov	r2, r3
 1655 01ec 7B68     		ldr	r3, [r7, #4]
 1656 01ee 1B02     		lsls	r3, r3, #8
 1657 01f0 1344     		add	r3, r3, r2
 1658 01f2 03F58073 		add	r3, r3, #256
 1659 01f6 1A46     		mov	r2, r3
 1660 01f8 0523     		movs	r3, #5
 1661 01fa 9360     		str	r3, [r2, #8]
1064:STM32Cube_FW_N6/Drivers/STM32N6xx_HAL_Driver/Src/stm32n6xx_hal_ltdc.c **** 
1065:STM32Cube_FW_N6/Drivers/STM32N6xx_HAL_Driver/Src/stm32n6xx_hal_ltdc.c ****   /* Initialize the LTDC state*/
1066:STM32Cube_FW_N6/Drivers/STM32N6xx_HAL_Driver/Src/stm32n6xx_hal_ltdc.c ****   hltdc->State  = HAL_LTDC_STATE_READY;
 1662              		.loc 1 1066 17
 1663 01fc FB68     		ldr	r3, [r7, #12]
 1664 01fe 0122     		movs	r2, #1
 1665 0200 83F8A120 		strb	r2, [r3, #161]
1067:STM32Cube_FW_N6/Drivers/STM32N6xx_HAL_Driver/Src/stm32n6xx_hal_ltdc.c **** 
1068:STM32Cube_FW_N6/Drivers/STM32N6xx_HAL_Driver/Src/stm32n6xx_hal_ltdc.c ****   /* Process unlocked */
1069:STM32Cube_FW_N6/Drivers/STM32N6xx_HAL_Driver/Src/stm32n6xx_hal_ltdc.c ****   __HAL_UNLOCK(hltdc);
 1666              		.loc 1 1069 3
 1667 0204 FB68     		ldr	r3, [r7, #12]
 1668 0206 0022     		movs	r2, #0
 1669 0208 83F8A020 		strb	r2, [r3, #160]
1070:STM32Cube_FW_N6/Drivers/STM32N6xx_HAL_Driver/Src/stm32n6xx_hal_ltdc.c **** 
1071:STM32Cube_FW_N6/Drivers/STM32N6xx_HAL_Driver/Src/stm32n6xx_hal_ltdc.c ****   return HAL_OK;
 1670              		.loc 1 1071 10
 1671 020c 0023     		movs	r3, #0
 1672              	.L70:
1072:STM32Cube_FW_N6/Drivers/STM32N6xx_HAL_Driver/Src/stm32n6xx_hal_ltdc.c **** }
 1673              		.loc 1 1072 1
 1674 020e 1846     		mov	r0, r3
 1675 0210 1037     		adds	r7, r7, #16
 1676              		.cfi_def_cfa_offset 16
 1677 0212 BD46     		mov	sp, r7
 1678              		.cfi_def_cfa_register 13
 1679              		@ sp needed
 1680 0214 B0BD     		pop	{r4, r5, r7, pc}
 1681              	.L72:
 1682 0216 00BF     		.align	2
ARM GAS  /tmp/ccM4Rtv8.s 			page 49


 1683              	.L71:
 1684 0218 00000000 		.word	.LC0
 1685              		.cfi_endproc
 1686              	.LFE846:
 1688              		.section	.text.HAL_LTDC_ConfigColorKeying,"ax",%progbits
 1689              		.align	1
 1690              		.global	HAL_LTDC_ConfigColorKeying
 1691              		.syntax unified
 1692              		.thumb
 1693              		.thumb_func
 1695              	HAL_LTDC_ConfigColorKeying:
 1696              	.LFB847:
1073:STM32Cube_FW_N6/Drivers/STM32N6xx_HAL_Driver/Src/stm32n6xx_hal_ltdc.c **** 
1074:STM32Cube_FW_N6/Drivers/STM32N6xx_HAL_Driver/Src/stm32n6xx_hal_ltdc.c **** /**
1075:STM32Cube_FW_N6/Drivers/STM32N6xx_HAL_Driver/Src/stm32n6xx_hal_ltdc.c ****   * @brief  Configure the color keying.
1076:STM32Cube_FW_N6/Drivers/STM32N6xx_HAL_Driver/Src/stm32n6xx_hal_ltdc.c ****   * @param  hltdc     pointer to a LTDC_HandleTypeDef structure that contains
1077:STM32Cube_FW_N6/Drivers/STM32N6xx_HAL_Driver/Src/stm32n6xx_hal_ltdc.c ****   *                   the configuration information for the LTDC.
1078:STM32Cube_FW_N6/Drivers/STM32N6xx_HAL_Driver/Src/stm32n6xx_hal_ltdc.c ****   * @param  RGBValue  the color key value
1079:STM32Cube_FW_N6/Drivers/STM32N6xx_HAL_Driver/Src/stm32n6xx_hal_ltdc.c ****   * @param  LayerIdx  LTDC Layer index.
1080:STM32Cube_FW_N6/Drivers/STM32N6xx_HAL_Driver/Src/stm32n6xx_hal_ltdc.c ****   *                   This parameter can be one of the following values:
1081:STM32Cube_FW_N6/Drivers/STM32N6xx_HAL_Driver/Src/stm32n6xx_hal_ltdc.c ****   *                   LTDC_LAYER_1 (0) or LTDC_LAYER_2 (1)
1082:STM32Cube_FW_N6/Drivers/STM32N6xx_HAL_Driver/Src/stm32n6xx_hal_ltdc.c ****   * @retval HAL status
1083:STM32Cube_FW_N6/Drivers/STM32N6xx_HAL_Driver/Src/stm32n6xx_hal_ltdc.c ****   */
1084:STM32Cube_FW_N6/Drivers/STM32N6xx_HAL_Driver/Src/stm32n6xx_hal_ltdc.c **** HAL_StatusTypeDef HAL_LTDC_ConfigColorKeying(LTDC_HandleTypeDef *hltdc, uint32_t RGBValue, uint32_t
1085:STM32Cube_FW_N6/Drivers/STM32N6xx_HAL_Driver/Src/stm32n6xx_hal_ltdc.c **** {
 1697              		.loc 1 1085 1
 1698              		.cfi_startproc
 1699              		@ args = 0, pretend = 0, frame = 16
 1700              		@ frame_needed = 1, uses_anonymous_args = 0
 1701 0000 80B5     		push	{r7, lr}
 1702              		.cfi_def_cfa_offset 8
 1703              		.cfi_offset 7, -8
 1704              		.cfi_offset 14, -4
 1705 0002 84B0     		sub	sp, sp, #16
 1706              		.cfi_def_cfa_offset 24
 1707 0004 00AF     		add	r7, sp, #0
 1708              		.cfi_def_cfa_register 7
 1709 0006 F860     		str	r0, [r7, #12]
 1710 0008 B960     		str	r1, [r7, #8]
 1711 000a 7A60     		str	r2, [r7, #4]
1086:STM32Cube_FW_N6/Drivers/STM32N6xx_HAL_Driver/Src/stm32n6xx_hal_ltdc.c ****   /* Check the parameters */
1087:STM32Cube_FW_N6/Drivers/STM32N6xx_HAL_Driver/Src/stm32n6xx_hal_ltdc.c ****   assert_param(IS_LTDC_LAYER(LayerIdx));
 1712              		.loc 1 1087 3
 1713 000c 7B68     		ldr	r3, [r7, #4]
 1714 000e 012B     		cmp	r3, #1
 1715 0010 04D9     		bls	.L74
 1716              		.loc 1 1087 3 is_stmt 0 discriminator 1
 1717 0012 40F23F41 		movw	r1, #1087
 1718 0016 2448     		ldr	r0, .L77
 1719 0018 FFF7FEFF 		bl	assert_failed
 1720              	.L74:
1088:STM32Cube_FW_N6/Drivers/STM32N6xx_HAL_Driver/Src/stm32n6xx_hal_ltdc.c **** 
1089:STM32Cube_FW_N6/Drivers/STM32N6xx_HAL_Driver/Src/stm32n6xx_hal_ltdc.c ****   /* Process locked */
1090:STM32Cube_FW_N6/Drivers/STM32N6xx_HAL_Driver/Src/stm32n6xx_hal_ltdc.c ****   __HAL_LOCK(hltdc);
 1721              		.loc 1 1090 3 is_stmt 1
 1722 001c FB68     		ldr	r3, [r7, #12]
 1723 001e 93F8A030 		ldrb	r3, [r3, #160]	@ zero_extendqisi2
ARM GAS  /tmp/ccM4Rtv8.s 			page 50


 1724 0022 012B     		cmp	r3, #1
 1725 0024 01D1     		bne	.L75
 1726              		.loc 1 1090 3 is_stmt 0 discriminator 1
 1727 0026 0223     		movs	r3, #2
 1728              		.loc 1 1090 3
 1729 0028 3AE0     		b	.L76
 1730              	.L75:
 1731              		.loc 1 1090 3 discriminator 2
 1732 002a FB68     		ldr	r3, [r7, #12]
 1733 002c 0122     		movs	r2, #1
 1734 002e 83F8A020 		strb	r2, [r3, #160]
1091:STM32Cube_FW_N6/Drivers/STM32N6xx_HAL_Driver/Src/stm32n6xx_hal_ltdc.c **** 
1092:STM32Cube_FW_N6/Drivers/STM32N6xx_HAL_Driver/Src/stm32n6xx_hal_ltdc.c ****   /* Change LTDC peripheral state */
1093:STM32Cube_FW_N6/Drivers/STM32N6xx_HAL_Driver/Src/stm32n6xx_hal_ltdc.c ****   hltdc->State = HAL_LTDC_STATE_BUSY;
 1735              		.loc 1 1093 16 is_stmt 1
 1736 0032 FB68     		ldr	r3, [r7, #12]
 1737 0034 0222     		movs	r2, #2
 1738 0036 83F8A120 		strb	r2, [r3, #161]
1094:STM32Cube_FW_N6/Drivers/STM32N6xx_HAL_Driver/Src/stm32n6xx_hal_ltdc.c **** 
1095:STM32Cube_FW_N6/Drivers/STM32N6xx_HAL_Driver/Src/stm32n6xx_hal_ltdc.c ****   /* Configure the default color values */
1096:STM32Cube_FW_N6/Drivers/STM32N6xx_HAL_Driver/Src/stm32n6xx_hal_ltdc.c ****   LTDC_LAYER(hltdc, LayerIdx)->CKCR &=  ~(LTDC_LxCKCR_CKBLUE | LTDC_LxCKCR_CKGREEN | LTDC_LxCKCR_CK
 1739              		.loc 1 1096 3
 1740 003a FB68     		ldr	r3, [r7, #12]
 1741 003c 1B68     		ldr	r3, [r3]
 1742              		.loc 1 1096 30
 1743 003e 1A46     		mov	r2, r3
 1744 0040 7B68     		ldr	r3, [r7, #4]
 1745 0042 1B02     		lsls	r3, r3, #8
 1746 0044 1344     		add	r3, r3, r2
 1747 0046 03F58073 		add	r3, r3, #256
 1748 004a 9B69     		ldr	r3, [r3, #24]
 1749              		.loc 1 1096 3
 1750 004c FA68     		ldr	r2, [r7, #12]
 1751 004e 1268     		ldr	r2, [r2]
 1752              		.loc 1 1096 30
 1753 0050 1146     		mov	r1, r2
 1754 0052 7A68     		ldr	r2, [r7, #4]
 1755 0054 1202     		lsls	r2, r2, #8
 1756 0056 0A44     		add	r2, r2, r1
 1757 0058 02F58072 		add	r2, r2, #256
 1758              		.loc 1 1096 37
 1759 005c 03F07F43 		and	r3, r3, #-16777216
 1760 0060 9361     		str	r3, [r2, #24]
1097:STM32Cube_FW_N6/Drivers/STM32N6xx_HAL_Driver/Src/stm32n6xx_hal_ltdc.c ****   LTDC_LAYER(hltdc, LayerIdx)->CKCR  = RGBValue;
 1761              		.loc 1 1097 3
 1762 0062 FB68     		ldr	r3, [r7, #12]
 1763 0064 1B68     		ldr	r3, [r3]
 1764 0066 1A46     		mov	r2, r3
 1765 0068 7B68     		ldr	r3, [r7, #4]
 1766 006a 1B02     		lsls	r3, r3, #8
 1767 006c 1344     		add	r3, r3, r2
 1768 006e 03F58073 		add	r3, r3, #256
 1769 0072 1A46     		mov	r2, r3
 1770              		.loc 1 1097 38
 1771 0074 BB68     		ldr	r3, [r7, #8]
 1772 0076 9361     		str	r3, [r2, #24]
1098:STM32Cube_FW_N6/Drivers/STM32N6xx_HAL_Driver/Src/stm32n6xx_hal_ltdc.c **** 
ARM GAS  /tmp/ccM4Rtv8.s 			page 51


1099:STM32Cube_FW_N6/Drivers/STM32N6xx_HAL_Driver/Src/stm32n6xx_hal_ltdc.c ****   /* Set the Immediate Reload type */
1100:STM32Cube_FW_N6/Drivers/STM32N6xx_HAL_Driver/Src/stm32n6xx_hal_ltdc.c ****   WRITE_REG(LTDC_LAYER(hltdc, LayerIdx)->RCR, LTDC_LxRCR_IMR | LTDC_LxRCR_GRMSK);
 1773              		.loc 1 1100 3
 1774 0078 FB68     		ldr	r3, [r7, #12]
 1775 007a 1B68     		ldr	r3, [r3]
 1776 007c 1A46     		mov	r2, r3
 1777 007e 7B68     		ldr	r3, [r7, #4]
 1778 0080 1B02     		lsls	r3, r3, #8
 1779 0082 1344     		add	r3, r3, r2
 1780 0084 03F58073 		add	r3, r3, #256
 1781 0088 1A46     		mov	r2, r3
 1782 008a 0523     		movs	r3, #5
 1783 008c 9360     		str	r3, [r2, #8]
1101:STM32Cube_FW_N6/Drivers/STM32N6xx_HAL_Driver/Src/stm32n6xx_hal_ltdc.c **** 
1102:STM32Cube_FW_N6/Drivers/STM32N6xx_HAL_Driver/Src/stm32n6xx_hal_ltdc.c ****   /* Change the LTDC state*/
1103:STM32Cube_FW_N6/Drivers/STM32N6xx_HAL_Driver/Src/stm32n6xx_hal_ltdc.c ****   hltdc->State = HAL_LTDC_STATE_READY;
 1784              		.loc 1 1103 16
 1785 008e FB68     		ldr	r3, [r7, #12]
 1786 0090 0122     		movs	r2, #1
 1787 0092 83F8A120 		strb	r2, [r3, #161]
1104:STM32Cube_FW_N6/Drivers/STM32N6xx_HAL_Driver/Src/stm32n6xx_hal_ltdc.c **** 
1105:STM32Cube_FW_N6/Drivers/STM32N6xx_HAL_Driver/Src/stm32n6xx_hal_ltdc.c ****   /* Process unlocked */
1106:STM32Cube_FW_N6/Drivers/STM32N6xx_HAL_Driver/Src/stm32n6xx_hal_ltdc.c ****   __HAL_UNLOCK(hltdc);
 1788              		.loc 1 1106 3
 1789 0096 FB68     		ldr	r3, [r7, #12]
 1790 0098 0022     		movs	r2, #0
 1791 009a 83F8A020 		strb	r2, [r3, #160]
1107:STM32Cube_FW_N6/Drivers/STM32N6xx_HAL_Driver/Src/stm32n6xx_hal_ltdc.c **** 
1108:STM32Cube_FW_N6/Drivers/STM32N6xx_HAL_Driver/Src/stm32n6xx_hal_ltdc.c ****   return HAL_OK;
 1792              		.loc 1 1108 10
 1793 009e 0023     		movs	r3, #0
 1794              	.L76:
1109:STM32Cube_FW_N6/Drivers/STM32N6xx_HAL_Driver/Src/stm32n6xx_hal_ltdc.c **** }
 1795              		.loc 1 1109 1
 1796 00a0 1846     		mov	r0, r3
 1797 00a2 1037     		adds	r7, r7, #16
 1798              		.cfi_def_cfa_offset 8
 1799 00a4 BD46     		mov	sp, r7
 1800              		.cfi_def_cfa_register 13
 1801              		@ sp needed
 1802 00a6 80BD     		pop	{r7, pc}
 1803              	.L78:
 1804              		.align	2
 1805              	.L77:
 1806 00a8 00000000 		.word	.LC0
 1807              		.cfi_endproc
 1808              	.LFE847:
 1810              		.section	.text.HAL_LTDC_ConfigCLUT,"ax",%progbits
 1811              		.align	1
 1812              		.global	HAL_LTDC_ConfigCLUT
 1813              		.syntax unified
 1814              		.thumb
 1815              		.thumb_func
 1817              	HAL_LTDC_ConfigCLUT:
 1818              	.LFB848:
1110:STM32Cube_FW_N6/Drivers/STM32N6xx_HAL_Driver/Src/stm32n6xx_hal_ltdc.c **** 
1111:STM32Cube_FW_N6/Drivers/STM32N6xx_HAL_Driver/Src/stm32n6xx_hal_ltdc.c **** /**
ARM GAS  /tmp/ccM4Rtv8.s 			page 52


1112:STM32Cube_FW_N6/Drivers/STM32N6xx_HAL_Driver/Src/stm32n6xx_hal_ltdc.c ****   * @brief  Load the color lookup table.
1113:STM32Cube_FW_N6/Drivers/STM32N6xx_HAL_Driver/Src/stm32n6xx_hal_ltdc.c ****   * @param  hltdc     pointer to a LTDC_HandleTypeDef structure that contains
1114:STM32Cube_FW_N6/Drivers/STM32N6xx_HAL_Driver/Src/stm32n6xx_hal_ltdc.c ****   *                   the configuration information for the LTDC.
1115:STM32Cube_FW_N6/Drivers/STM32N6xx_HAL_Driver/Src/stm32n6xx_hal_ltdc.c ****   * @param  pCLUT     pointer to the color lookup table address.
1116:STM32Cube_FW_N6/Drivers/STM32N6xx_HAL_Driver/Src/stm32n6xx_hal_ltdc.c ****   * @param  CLUTSize  the color lookup table size.
1117:STM32Cube_FW_N6/Drivers/STM32N6xx_HAL_Driver/Src/stm32n6xx_hal_ltdc.c ****   * @param  LayerIdx  LTDC Layer index.
1118:STM32Cube_FW_N6/Drivers/STM32N6xx_HAL_Driver/Src/stm32n6xx_hal_ltdc.c ****   *                   This parameter can be one of the following values:
1119:STM32Cube_FW_N6/Drivers/STM32N6xx_HAL_Driver/Src/stm32n6xx_hal_ltdc.c ****   *                   LTDC_LAYER_1 (0) or LTDC_LAYER_2 (1)
1120:STM32Cube_FW_N6/Drivers/STM32N6xx_HAL_Driver/Src/stm32n6xx_hal_ltdc.c ****   * @retval HAL status
1121:STM32Cube_FW_N6/Drivers/STM32N6xx_HAL_Driver/Src/stm32n6xx_hal_ltdc.c ****   */
1122:STM32Cube_FW_N6/Drivers/STM32N6xx_HAL_Driver/Src/stm32n6xx_hal_ltdc.c **** HAL_StatusTypeDef HAL_LTDC_ConfigCLUT(LTDC_HandleTypeDef *hltdc, const uint32_t *pCLUT, uint32_t CL
1123:STM32Cube_FW_N6/Drivers/STM32N6xx_HAL_Driver/Src/stm32n6xx_hal_ltdc.c ****                                       uint32_t LayerIdx)
1124:STM32Cube_FW_N6/Drivers/STM32N6xx_HAL_Driver/Src/stm32n6xx_hal_ltdc.c **** {
 1819              		.loc 1 1124 1
 1820              		.cfi_startproc
 1821              		@ args = 0, pretend = 0, frame = 32
 1822              		@ frame_needed = 1, uses_anonymous_args = 0
 1823 0000 80B5     		push	{r7, lr}
 1824              		.cfi_def_cfa_offset 8
 1825              		.cfi_offset 7, -8
 1826              		.cfi_offset 14, -4
 1827 0002 88B0     		sub	sp, sp, #32
 1828              		.cfi_def_cfa_offset 40
 1829 0004 00AF     		add	r7, sp, #0
 1830              		.cfi_def_cfa_register 7
 1831 0006 F860     		str	r0, [r7, #12]
 1832 0008 B960     		str	r1, [r7, #8]
 1833 000a 7A60     		str	r2, [r7, #4]
 1834 000c 3B60     		str	r3, [r7]
1125:STM32Cube_FW_N6/Drivers/STM32N6xx_HAL_Driver/Src/stm32n6xx_hal_ltdc.c ****   uint32_t tmp;
1126:STM32Cube_FW_N6/Drivers/STM32N6xx_HAL_Driver/Src/stm32n6xx_hal_ltdc.c ****   uint32_t counter;
1127:STM32Cube_FW_N6/Drivers/STM32N6xx_HAL_Driver/Src/stm32n6xx_hal_ltdc.c ****   const uint32_t *pcolorlut = pCLUT;
 1835              		.loc 1 1127 19
 1836 000e BB68     		ldr	r3, [r7, #8]
 1837 0010 7B61     		str	r3, [r7, #20]
1128:STM32Cube_FW_N6/Drivers/STM32N6xx_HAL_Driver/Src/stm32n6xx_hal_ltdc.c ****   /* Check the parameters */
1129:STM32Cube_FW_N6/Drivers/STM32N6xx_HAL_Driver/Src/stm32n6xx_hal_ltdc.c ****   assert_param(IS_LTDC_LAYER(LayerIdx));
 1838              		.loc 1 1129 3
 1839 0012 3B68     		ldr	r3, [r7]
 1840 0014 012B     		cmp	r3, #1
 1841 0016 04D9     		bls	.L80
 1842              		.loc 1 1129 3 is_stmt 0 discriminator 1
 1843 0018 40F26941 		movw	r1, #1129
 1844 001c 3348     		ldr	r0, .L87
 1845 001e FFF7FEFF 		bl	assert_failed
 1846              	.L80:
1130:STM32Cube_FW_N6/Drivers/STM32N6xx_HAL_Driver/Src/stm32n6xx_hal_ltdc.c **** 
1131:STM32Cube_FW_N6/Drivers/STM32N6xx_HAL_Driver/Src/stm32n6xx_hal_ltdc.c ****   /* Process locked */
1132:STM32Cube_FW_N6/Drivers/STM32N6xx_HAL_Driver/Src/stm32n6xx_hal_ltdc.c ****   __HAL_LOCK(hltdc);
 1847              		.loc 1 1132 3 is_stmt 1
 1848 0022 FB68     		ldr	r3, [r7, #12]
 1849 0024 93F8A030 		ldrb	r3, [r3, #160]	@ zero_extendqisi2
 1850 0028 012B     		cmp	r3, #1
 1851 002a 01D1     		bne	.L81
 1852              		.loc 1 1132 3 is_stmt 0 discriminator 1
 1853 002c 0223     		movs	r3, #2
 1854              		.loc 1 1132 3
ARM GAS  /tmp/ccM4Rtv8.s 			page 53


 1855 002e 58E0     		b	.L82
 1856              	.L81:
 1857              		.loc 1 1132 3 discriminator 2
 1858 0030 FB68     		ldr	r3, [r7, #12]
 1859 0032 0122     		movs	r2, #1
 1860 0034 83F8A020 		strb	r2, [r3, #160]
1133:STM32Cube_FW_N6/Drivers/STM32N6xx_HAL_Driver/Src/stm32n6xx_hal_ltdc.c **** 
1134:STM32Cube_FW_N6/Drivers/STM32N6xx_HAL_Driver/Src/stm32n6xx_hal_ltdc.c ****   /* Change LTDC peripheral state */
1135:STM32Cube_FW_N6/Drivers/STM32N6xx_HAL_Driver/Src/stm32n6xx_hal_ltdc.c ****   hltdc->State = HAL_LTDC_STATE_BUSY;
 1861              		.loc 1 1135 16 is_stmt 1
 1862 0038 FB68     		ldr	r3, [r7, #12]
 1863 003a 0222     		movs	r2, #2
 1864 003c 83F8A120 		strb	r2, [r3, #161]
1136:STM32Cube_FW_N6/Drivers/STM32N6xx_HAL_Driver/Src/stm32n6xx_hal_ltdc.c **** 
1137:STM32Cube_FW_N6/Drivers/STM32N6xx_HAL_Driver/Src/stm32n6xx_hal_ltdc.c ****   for (counter = 0U; (counter < CLUTSize); counter++)
 1865              		.loc 1 1137 16
 1866 0040 0023     		movs	r3, #0
 1867 0042 BB61     		str	r3, [r7, #24]
 1868              		.loc 1 1137 3
 1869 0044 40E0     		b	.L83
 1870              	.L86:
1138:STM32Cube_FW_N6/Drivers/STM32N6xx_HAL_Driver/Src/stm32n6xx_hal_ltdc.c ****   {
1139:STM32Cube_FW_N6/Drivers/STM32N6xx_HAL_Driver/Src/stm32n6xx_hal_ltdc.c ****     if (hltdc->LayerCfg[LayerIdx].PixelFormat == LTDC_PIXEL_FORMAT_AL44)
 1871              		.loc 1 1139 34
 1872 0046 FA68     		ldr	r2, [r7, #12]
 1873 0048 3B68     		ldr	r3, [r7]
 1874 004a 3421     		movs	r1, #52
 1875 004c 01FB03F3 		mul	r3, r1, r3
 1876 0050 1344     		add	r3, r3, r2
 1877 0052 4833     		adds	r3, r3, #72
 1878 0054 1B68     		ldr	r3, [r3]
 1879              		.loc 1 1139 8
 1880 0056 0A2B     		cmp	r3, #10
 1881 0058 14D1     		bne	.L84
1140:STM32Cube_FW_N6/Drivers/STM32N6xx_HAL_Driver/Src/stm32n6xx_hal_ltdc.c ****     {
1141:STM32Cube_FW_N6/Drivers/STM32N6xx_HAL_Driver/Src/stm32n6xx_hal_ltdc.c ****       tmp  = (((counter + (16U * counter)) << 24U) | ((uint32_t)(*pcolorlut) & 0xFFU) | \
 1882              		.loc 1 1141 25
 1883 005a BA69     		ldr	r2, [r7, #24]
 1884 005c 1346     		mov	r3, r2
 1885 005e 1B01     		lsls	r3, r3, #4
 1886 0060 1344     		add	r3, r3, r2
 1887              		.loc 1 1141 44
 1888 0062 1A06     		lsls	r2, r3, #24
 1889              		.loc 1 1141 55
 1890 0064 7B69     		ldr	r3, [r7, #20]
 1891 0066 1B68     		ldr	r3, [r3]
 1892              		.loc 1 1141 78
 1893 0068 DBB2     		uxtb	r3, r3
 1894              		.loc 1 1141 52
 1895 006a 1A43     		orrs	r2, r2, r3
1142:STM32Cube_FW_N6/Drivers/STM32N6xx_HAL_Driver/Src/stm32n6xx_hal_ltdc.c ****               ((uint32_t)(*pcolorlut) & 0xFF00U) | ((uint32_t)(*pcolorlut) & 0xFF0000U));
 1896              		.loc 1 1142 16
 1897 006c 7B69     		ldr	r3, [r7, #20]
 1898 006e 1B68     		ldr	r3, [r3]
 1899              		.loc 1 1142 39
 1900 0070 03F47F43 		and	r3, r3, #65280
1141:STM32Cube_FW_N6/Drivers/STM32N6xx_HAL_Driver/Src/stm32n6xx_hal_ltdc.c ****               ((uint32_t)(*pcolorlut) & 0xFF00U) | ((uint32_t)(*pcolorlut) & 0xFF0000U));
ARM GAS  /tmp/ccM4Rtv8.s 			page 54


 1901              		.loc 1 1141 87
 1902 0074 1A43     		orrs	r2, r2, r3
 1903              		.loc 1 1142 53
 1904 0076 7B69     		ldr	r3, [r7, #20]
 1905 0078 1B68     		ldr	r3, [r3]
 1906              		.loc 1 1142 76
 1907 007a 03F47F03 		and	r3, r3, #16711680
1141:STM32Cube_FW_N6/Drivers/STM32N6xx_HAL_Driver/Src/stm32n6xx_hal_ltdc.c ****               ((uint32_t)(*pcolorlut) & 0xFF00U) | ((uint32_t)(*pcolorlut) & 0xFF0000U));
 1908              		.loc 1 1141 12
 1909 007e 1343     		orrs	r3, r3, r2
 1910 0080 FB61     		str	r3, [r7, #28]
 1911 0082 10E0     		b	.L85
 1912              	.L84:
1143:STM32Cube_FW_N6/Drivers/STM32N6xx_HAL_Driver/Src/stm32n6xx_hal_ltdc.c ****     }
1144:STM32Cube_FW_N6/Drivers/STM32N6xx_HAL_Driver/Src/stm32n6xx_hal_ltdc.c ****     else
1145:STM32Cube_FW_N6/Drivers/STM32N6xx_HAL_Driver/Src/stm32n6xx_hal_ltdc.c ****     {
1146:STM32Cube_FW_N6/Drivers/STM32N6xx_HAL_Driver/Src/stm32n6xx_hal_ltdc.c ****       tmp  = ((counter << 24U) | ((uint32_t)(*pcolorlut) & 0xFFU) | \
 1913              		.loc 1 1146 24
 1914 0084 BB69     		ldr	r3, [r7, #24]
 1915 0086 1A06     		lsls	r2, r3, #24
 1916              		.loc 1 1146 35
 1917 0088 7B69     		ldr	r3, [r7, #20]
 1918 008a 1B68     		ldr	r3, [r3]
 1919              		.loc 1 1146 58
 1920 008c DBB2     		uxtb	r3, r3
 1921              		.loc 1 1146 32
 1922 008e 1A43     		orrs	r2, r2, r3
1147:STM32Cube_FW_N6/Drivers/STM32N6xx_HAL_Driver/Src/stm32n6xx_hal_ltdc.c ****               ((uint32_t)(*pcolorlut) & 0xFF00U) | ((uint32_t)(*pcolorlut) & 0xFF0000U));
 1923              		.loc 1 1147 16
 1924 0090 7B69     		ldr	r3, [r7, #20]
 1925 0092 1B68     		ldr	r3, [r3]
 1926              		.loc 1 1147 39
 1927 0094 03F47F43 		and	r3, r3, #65280
1146:STM32Cube_FW_N6/Drivers/STM32N6xx_HAL_Driver/Src/stm32n6xx_hal_ltdc.c ****               ((uint32_t)(*pcolorlut) & 0xFF00U) | ((uint32_t)(*pcolorlut) & 0xFF0000U));
 1928              		.loc 1 1146 67
 1929 0098 1A43     		orrs	r2, r2, r3
 1930              		.loc 1 1147 53
 1931 009a 7B69     		ldr	r3, [r7, #20]
 1932 009c 1B68     		ldr	r3, [r3]
 1933              		.loc 1 1147 76
 1934 009e 03F47F03 		and	r3, r3, #16711680
1146:STM32Cube_FW_N6/Drivers/STM32N6xx_HAL_Driver/Src/stm32n6xx_hal_ltdc.c ****               ((uint32_t)(*pcolorlut) & 0xFF00U) | ((uint32_t)(*pcolorlut) & 0xFF0000U));
 1935              		.loc 1 1146 12
 1936 00a2 1343     		orrs	r3, r3, r2
 1937 00a4 FB61     		str	r3, [r7, #28]
 1938              	.L85:
1148:STM32Cube_FW_N6/Drivers/STM32N6xx_HAL_Driver/Src/stm32n6xx_hal_ltdc.c ****     }
1149:STM32Cube_FW_N6/Drivers/STM32N6xx_HAL_Driver/Src/stm32n6xx_hal_ltdc.c **** 
1150:STM32Cube_FW_N6/Drivers/STM32N6xx_HAL_Driver/Src/stm32n6xx_hal_ltdc.c ****     pcolorlut++;
 1939              		.loc 1 1150 14
 1940 00a6 7B69     		ldr	r3, [r7, #20]
 1941 00a8 0433     		adds	r3, r3, #4
 1942 00aa 7B61     		str	r3, [r7, #20]
1151:STM32Cube_FW_N6/Drivers/STM32N6xx_HAL_Driver/Src/stm32n6xx_hal_ltdc.c **** 
1152:STM32Cube_FW_N6/Drivers/STM32N6xx_HAL_Driver/Src/stm32n6xx_hal_ltdc.c ****     /* Specifies the C-LUT address and RGB value */
1153:STM32Cube_FW_N6/Drivers/STM32N6xx_HAL_Driver/Src/stm32n6xx_hal_ltdc.c ****     LTDC_LAYER(hltdc, LayerIdx)->CLUTWR  = tmp;
 1943              		.loc 1 1153 5
ARM GAS  /tmp/ccM4Rtv8.s 			page 55


 1944 00ac FB68     		ldr	r3, [r7, #12]
 1945 00ae 1B68     		ldr	r3, [r3]
 1946 00b0 1A46     		mov	r2, r3
 1947 00b2 3B68     		ldr	r3, [r7]
 1948 00b4 1B02     		lsls	r3, r3, #8
 1949 00b6 1344     		add	r3, r3, r2
 1950 00b8 03F58073 		add	r3, r3, #256
 1951 00bc 1A46     		mov	r2, r3
 1952              		.loc 1 1153 42
 1953 00be FB69     		ldr	r3, [r7, #28]
 1954 00c0 1365     		str	r3, [r2, #80]
1137:STM32Cube_FW_N6/Drivers/STM32N6xx_HAL_Driver/Src/stm32n6xx_hal_ltdc.c ****   {
 1955              		.loc 1 1137 51 discriminator 2
 1956 00c2 BB69     		ldr	r3, [r7, #24]
 1957 00c4 0133     		adds	r3, r3, #1
 1958 00c6 BB61     		str	r3, [r7, #24]
 1959              	.L83:
1137:STM32Cube_FW_N6/Drivers/STM32N6xx_HAL_Driver/Src/stm32n6xx_hal_ltdc.c ****   {
 1960              		.loc 1 1137 31 discriminator 1
 1961 00c8 BA69     		ldr	r2, [r7, #24]
 1962 00ca 7B68     		ldr	r3, [r7, #4]
 1963 00cc 9A42     		cmp	r2, r3
 1964 00ce BAD3     		bcc	.L86
1154:STM32Cube_FW_N6/Drivers/STM32N6xx_HAL_Driver/Src/stm32n6xx_hal_ltdc.c ****   }
1155:STM32Cube_FW_N6/Drivers/STM32N6xx_HAL_Driver/Src/stm32n6xx_hal_ltdc.c **** 
1156:STM32Cube_FW_N6/Drivers/STM32N6xx_HAL_Driver/Src/stm32n6xx_hal_ltdc.c ****   /* Change the LTDC state*/
1157:STM32Cube_FW_N6/Drivers/STM32N6xx_HAL_Driver/Src/stm32n6xx_hal_ltdc.c ****   hltdc->State = HAL_LTDC_STATE_READY;
 1965              		.loc 1 1157 16
 1966 00d0 FB68     		ldr	r3, [r7, #12]
 1967 00d2 0122     		movs	r2, #1
 1968 00d4 83F8A120 		strb	r2, [r3, #161]
1158:STM32Cube_FW_N6/Drivers/STM32N6xx_HAL_Driver/Src/stm32n6xx_hal_ltdc.c **** 
1159:STM32Cube_FW_N6/Drivers/STM32N6xx_HAL_Driver/Src/stm32n6xx_hal_ltdc.c ****   /* Process unlocked */
1160:STM32Cube_FW_N6/Drivers/STM32N6xx_HAL_Driver/Src/stm32n6xx_hal_ltdc.c ****   __HAL_UNLOCK(hltdc);
 1969              		.loc 1 1160 3
 1970 00d8 FB68     		ldr	r3, [r7, #12]
 1971 00da 0022     		movs	r2, #0
 1972 00dc 83F8A020 		strb	r2, [r3, #160]
1161:STM32Cube_FW_N6/Drivers/STM32N6xx_HAL_Driver/Src/stm32n6xx_hal_ltdc.c **** 
1162:STM32Cube_FW_N6/Drivers/STM32N6xx_HAL_Driver/Src/stm32n6xx_hal_ltdc.c ****   return HAL_OK;
 1973              		.loc 1 1162 10
 1974 00e0 0023     		movs	r3, #0
 1975              	.L82:
1163:STM32Cube_FW_N6/Drivers/STM32N6xx_HAL_Driver/Src/stm32n6xx_hal_ltdc.c **** }
 1976              		.loc 1 1163 1
 1977 00e2 1846     		mov	r0, r3
 1978 00e4 2037     		adds	r7, r7, #32
 1979              		.cfi_def_cfa_offset 8
 1980 00e6 BD46     		mov	sp, r7
 1981              		.cfi_def_cfa_register 13
 1982              		@ sp needed
 1983 00e8 80BD     		pop	{r7, pc}
 1984              	.L88:
 1985 00ea 00BF     		.align	2
 1986              	.L87:
 1987 00ec 00000000 		.word	.LC0
 1988              		.cfi_endproc
ARM GAS  /tmp/ccM4Rtv8.s 			page 56


 1989              	.LFE848:
 1991              		.section	.rodata
 1992 0046 0000     		.align	2
 1993              	.LC1:
 1994 0048 20406080 		.ascii	" @`\200\240\300\340"
 1994      A0C0E0
 1995 004f 00       		.align	2
 1996              	.LC2:
 1997 0050 6F93ADC2 		.ascii	"o\223\255\302\324\344\362Z\200\234\265\312\335\357I"
 1997      D4E4F25A 
 1997      809CB5CA 
 1997      DDEF49
 1998 005f 6F8EA9C1 		.ascii	"o\216\251\301\327\354<a\201\235\270\321\3510Tu\223\260"
 1998      D7EC3C61 
 1998      819DB8D1 
 1998      E9305475 
 1998      93B0
 1999 0071 CBE62749 		.ascii	"\313\346'Ij\211\250\306\343 @`\200\240\300\340\0328"
 1999      6A89A8C6 
 1999      E3204060 
 1999      80A0C0E0 
 1999      1A38
 2000 0083 577799BB 		.ascii	"Ww\231\273\335\0251Op\222\265\332\021*Hh\213\260\327"
 2000      DD15314F 
 2000      7092B5DA 
 2000      112A4868 
 2000      8BB0D7
 2001 0096 0E254161 		.ascii	"\016%Aa\205\253\325\013 ;[\177\247\322\011\0345Uy\242"
 2001      85ABD50B 
 2001      203B5B7F 
 2001      A7D2091C 
 2001      355579A2 
 2002 00aa CF071830 		.ascii	"\317\007\0300Os\235\315\006\025,Jn\231\312\005\022("
 2002      4F739DCD 
 2002      06152C4A 
 2002      6E99CA05 
 2002      1228
 2003 00bc 456995C7 		.ascii	"Ei\225\307\004\020$@d\221\305\003\016!<`\215\302\003"
 2003      04102440 
 2003      6491C503 
 2003      0E213C60 
 2003      8DC203
 2004 00cf 0C1E385B 		.ascii	"\014\0368[\211\300\002\013\0334W\205\275\002\011\030"
 2004      89C0020B 
 2004      1B345785 
 2004      BD020918 
 2005 00df 315381BB 		.ascii	"1S\201\273\001\010\026.P}\270\001\007\024*Lz\266\001"
 2005      0108162E 
 2005      507DB801 
 2005      07142A4C 
 2005      7AB601
 2006 00f2 06122848 		.ascii	"\006\022(Hw\264\001\005\021%Es\261\001\005\017#Bp\257"
 2006      77B40105 
 2006      11254573 
 2006      B101050F 
 2006      234270AF 
 2007              		.section	.text.HAL_LTDC_ConfigGammaCorrection,"ax",%progbits
ARM GAS  /tmp/ccM4Rtv8.s 			page 57


 2008              		.align	1
 2009              		.global	HAL_LTDC_ConfigGammaCorrection
 2010              		.syntax unified
 2011              		.thumb
 2012              		.thumb_func
 2014              	HAL_LTDC_ConfigGammaCorrection:
 2015              	.LFB849:
1164:STM32Cube_FW_N6/Drivers/STM32N6xx_HAL_Driver/Src/stm32n6xx_hal_ltdc.c **** 
1165:STM32Cube_FW_N6/Drivers/STM32N6xx_HAL_Driver/Src/stm32n6xx_hal_ltdc.c **** /**
1166:STM32Cube_FW_N6/Drivers/STM32N6xx_HAL_Driver/Src/stm32n6xx_hal_ltdc.c ****   * @brief Configures the gamma correction for the LTDC peripheral.
1167:STM32Cube_FW_N6/Drivers/STM32N6xx_HAL_Driver/Src/stm32n6xx_hal_ltdc.c ****   *
1168:STM32Cube_FW_N6/Drivers/STM32N6xx_HAL_Driver/Src/stm32n6xx_hal_ltdc.c ****   * This function sets up the gamma correction feature of the LTDC (Liquid Crystal Display Controll
1169:STM32Cube_FW_N6/Drivers/STM32N6xx_HAL_Driver/Src/stm32n6xx_hal_ltdc.c ****   * peripheral. Gamma correction helps in adjusting the brightness of the output image. This functi
1170:STM32Cube_FW_N6/Drivers/STM32N6xx_HAL_Driver/Src/stm32n6xx_hal_ltdc.c ****   * allows the configuration of the gamma curve by setting the values for ones, tenths, and the spe
1171:STM32Cube_FW_N6/Drivers/STM32N6xx_HAL_Driver/Src/stm32n6xx_hal_ltdc.c ****   * RGB component to be adjusted.
1172:STM32Cube_FW_N6/Drivers/STM32N6xx_HAL_Driver/Src/stm32n6xx_hal_ltdc.c ****   *
1173:STM32Cube_FW_N6/Drivers/STM32N6xx_HAL_Driver/Src/stm32n6xx_hal_ltdc.c ****   * @param  hltdc      pointer to a LTDC_HandleTypeDef structure that contains
1174:STM32Cube_FW_N6/Drivers/STM32N6xx_HAL_Driver/Src/stm32n6xx_hal_ltdc.c ****   *                    the configuration information for the LTDC.
1175:STM32Cube_FW_N6/Drivers/STM32N6xx_HAL_Driver/Src/stm32n6xx_hal_ltdc.c ****   * @param GammaOnes Specifies the value for the ones place in the gamma correction factor.
1176:STM32Cube_FW_N6/Drivers/STM32N6xx_HAL_Driver/Src/stm32n6xx_hal_ltdc.c ****   *                  This parameter can be a value between 0 and 2.
1177:STM32Cube_FW_N6/Drivers/STM32N6xx_HAL_Driver/Src/stm32n6xx_hal_ltdc.c ****   * @param GammaTenths Specifies the value for the tenths place in the gamma correction factor.
1178:STM32Cube_FW_N6/Drivers/STM32N6xx_HAL_Driver/Src/stm32n6xx_hal_ltdc.c ****   *                    This parameter can be a value between 0 and 9 if GammaOnes > 0 else between 
1179:STM32Cube_FW_N6/Drivers/STM32N6xx_HAL_Driver/Src/stm32n6xx_hal_ltdc.c ****   * @param RGBComponent Specifies the RGB component to which the gamma correction is applied.
1180:STM32Cube_FW_N6/Drivers/STM32N6xx_HAL_Driver/Src/stm32n6xx_hal_ltdc.c ****   *                     This parameter can be one of the following values:
1181:STM32Cube_FW_N6/Drivers/STM32N6xx_HAL_Driver/Src/stm32n6xx_hal_ltdc.c ****   *                     @arg LTDC_RGB_COMPONENT_RED  : Gamma correction for the red component.
1182:STM32Cube_FW_N6/Drivers/STM32N6xx_HAL_Driver/Src/stm32n6xx_hal_ltdc.c ****   *                     @arg LTDC_RGB_COMPONENT_GREEN: Gamma correction for the green component.
1183:STM32Cube_FW_N6/Drivers/STM32N6xx_HAL_Driver/Src/stm32n6xx_hal_ltdc.c ****   *                     @arg LTDC_RGB_COMPONENT_BLUE : Gamma correction for the blue component.
1184:STM32Cube_FW_N6/Drivers/STM32N6xx_HAL_Driver/Src/stm32n6xx_hal_ltdc.c ****   *                     @arg LTDC_RGB_COMPONENT_ALL  : Gamma correction for all components.
1185:STM32Cube_FW_N6/Drivers/STM32N6xx_HAL_Driver/Src/stm32n6xx_hal_ltdc.c ****   * @retval HAL status
1186:STM32Cube_FW_N6/Drivers/STM32N6xx_HAL_Driver/Src/stm32n6xx_hal_ltdc.c ****   */
1187:STM32Cube_FW_N6/Drivers/STM32N6xx_HAL_Driver/Src/stm32n6xx_hal_ltdc.c **** HAL_StatusTypeDef HAL_LTDC_ConfigGammaCorrection(LTDC_HandleTypeDef *hltdc, uint32_t GammaOnes,
1188:STM32Cube_FW_N6/Drivers/STM32N6xx_HAL_Driver/Src/stm32n6xx_hal_ltdc.c ****                                                  uint32_t GammaTenths, uint32_t RGBComponent)
1189:STM32Cube_FW_N6/Drivers/STM32N6xx_HAL_Driver/Src/stm32n6xx_hal_ltdc.c **** {
 2016              		.loc 1 1189 1
 2017              		.cfi_startproc
 2018              		@ args = 0, pretend = 0, frame = 216
 2019              		@ frame_needed = 1, uses_anonymous_args = 0
 2020 0000 80B5     		push	{r7, lr}
 2021              		.cfi_def_cfa_offset 8
 2022              		.cfi_offset 7, -8
 2023              		.cfi_offset 14, -4
 2024 0002 B6B0     		sub	sp, sp, #216
 2025              		.cfi_def_cfa_offset 224
 2026 0004 00AF     		add	r7, sp, #0
 2027              		.cfi_def_cfa_register 7
 2028 0006 F860     		str	r0, [r7, #12]
 2029 0008 B960     		str	r1, [r7, #8]
 2030 000a 7A60     		str	r2, [r7, #4]
 2031 000c 3B60     		str	r3, [r7]
1190:STM32Cube_FW_N6/Drivers/STM32N6xx_HAL_Driver/Src/stm32n6xx_hal_ltdc.c ****   const uint32_t gammaindex = (GammaOnes * 70U) + (GammaTenths  * 7U) - 28U;
 2032              		.loc 1 1190 42
 2033 000e BB68     		ldr	r3, [r7, #8]
 2034 0010 4622     		movs	r2, #70
 2035 0012 02FB03F1 		mul	r1, r2, r3
 2036              		.loc 1 1190 65
 2037 0016 7A68     		ldr	r2, [r7, #4]
 2038 0018 1346     		mov	r3, r2
ARM GAS  /tmp/ccM4Rtv8.s 			page 58


 2039 001a DB00     		lsls	r3, r3, #3
 2040 001c 9B1A     		subs	r3, r3, r2
 2041              		.loc 1 1190 49
 2042 001e 0B44     		add	r3, r3, r1
 2043              		.loc 1 1190 18
 2044 0020 1C3B     		subs	r3, r3, #28
 2045 0022 C7F8D030 		str	r3, [r7, #208]
1191:STM32Cube_FW_N6/Drivers/STM32N6xx_HAL_Driver/Src/stm32n6xx_hal_ltdc.c ****   uint8_t gammasegment;
1192:STM32Cube_FW_N6/Drivers/STM32N6xx_HAL_Driver/Src/stm32n6xx_hal_ltdc.c ****   const uint8_t GammaAdress[7] = {32, 64, 96, 128, 160, 192, 224};
 2046              		.loc 1 1192 17
 2047 0026 474A     		ldr	r2, .L98
 2048 0028 07F1C803 		add	r3, r7, #200
 2049 002c 92E80300 		ldm	r2, {r0, r1}
 2050 0030 1860     		str	r0, [r3]
 2051 0032 0433     		adds	r3, r3, #4
 2052 0034 1980     		strh	r1, [r3]	@ movhi
 2053 0036 0233     		adds	r3, r3, #2
 2054 0038 0A0C     		lsrs	r2, r1, #16
 2055 003a 1A70     		strb	r2, [r3]
1193:STM32Cube_FW_N6/Drivers/STM32N6xx_HAL_Driver/Src/stm32n6xx_hal_ltdc.c ****   /* Gamma Mapped coefficients for segments 1 to 7 */
1194:STM32Cube_FW_N6/Drivers/STM32N6xx_HAL_Driver/Src/stm32n6xx_hal_ltdc.c ****   const uint8_t GammaLUT[182] =
 2056              		.loc 1 1194 17
 2057 003c 424A     		ldr	r2, .L98+4
 2058 003e 07F11003 		add	r3, r7, #16
 2059 0042 1146     		mov	r1, r2
 2060 0044 B622     		movs	r2, #182
 2061 0046 1846     		mov	r0, r3
 2062 0048 FFF7FEFF 		bl	memcpy
1195:STM32Cube_FW_N6/Drivers/STM32N6xx_HAL_Driver/Src/stm32n6xx_hal_ltdc.c ****   {
1196:STM32Cube_FW_N6/Drivers/STM32N6xx_HAL_Driver/Src/stm32n6xx_hal_ltdc.c ****     111, 147, 173, 194, 212, 228, 242,  /* Gamma = 0.4 */
1197:STM32Cube_FW_N6/Drivers/STM32N6xx_HAL_Driver/Src/stm32n6xx_hal_ltdc.c ****     90, 128, 156, 181, 202, 221, 239,   /* Gamma = 0.5 */
1198:STM32Cube_FW_N6/Drivers/STM32N6xx_HAL_Driver/Src/stm32n6xx_hal_ltdc.c ****     73, 111, 142, 169, 193, 215, 236,   /* Gamma = 0.6 */
1199:STM32Cube_FW_N6/Drivers/STM32N6xx_HAL_Driver/Src/stm32n6xx_hal_ltdc.c ****     60, 97, 129, 157, 184, 209, 233,    /* Gamma = 0.7 */
1200:STM32Cube_FW_N6/Drivers/STM32N6xx_HAL_Driver/Src/stm32n6xx_hal_ltdc.c ****     48, 84, 117, 147, 176, 203, 230,    /* Gamma = 0.8 */
1201:STM32Cube_FW_N6/Drivers/STM32N6xx_HAL_Driver/Src/stm32n6xx_hal_ltdc.c ****     39, 73, 106, 137, 168, 198, 227,    /* Gamma = 0.9 */
1202:STM32Cube_FW_N6/Drivers/STM32N6xx_HAL_Driver/Src/stm32n6xx_hal_ltdc.c ****     32, 64, 96, 128, 160, 192, 224,     /* Gamma = 1.0 */
1203:STM32Cube_FW_N6/Drivers/STM32N6xx_HAL_Driver/Src/stm32n6xx_hal_ltdc.c ****     26, 56, 87, 119, 153, 187, 221,     /* Gamma = 1.1 */
1204:STM32Cube_FW_N6/Drivers/STM32N6xx_HAL_Driver/Src/stm32n6xx_hal_ltdc.c ****     21, 49, 79, 112, 146, 181, 218,     /* Gamma = 1.2 */
1205:STM32Cube_FW_N6/Drivers/STM32N6xx_HAL_Driver/Src/stm32n6xx_hal_ltdc.c ****     17, 42, 72, 104, 139, 176, 215,     /* Gamma = 1.3 */
1206:STM32Cube_FW_N6/Drivers/STM32N6xx_HAL_Driver/Src/stm32n6xx_hal_ltdc.c ****     14, 37, 65, 97, 133, 171, 213,      /* Gamma = 1.4 */
1207:STM32Cube_FW_N6/Drivers/STM32N6xx_HAL_Driver/Src/stm32n6xx_hal_ltdc.c ****     11, 32, 59, 91, 127, 167, 210,      /* Gamma = 1.5 */
1208:STM32Cube_FW_N6/Drivers/STM32N6xx_HAL_Driver/Src/stm32n6xx_hal_ltdc.c ****     9, 28, 53, 85, 121, 162, 207,       /* Gamma = 1.6 */
1209:STM32Cube_FW_N6/Drivers/STM32N6xx_HAL_Driver/Src/stm32n6xx_hal_ltdc.c ****     7, 24, 48, 79, 115, 157, 205,       /* Gamma = 1.7 */
1210:STM32Cube_FW_N6/Drivers/STM32N6xx_HAL_Driver/Src/stm32n6xx_hal_ltdc.c ****     6, 21, 44, 74, 110, 153, 202,       /* Gamma = 1.8 */
1211:STM32Cube_FW_N6/Drivers/STM32N6xx_HAL_Driver/Src/stm32n6xx_hal_ltdc.c ****     5, 18, 40, 69, 105, 149, 199,       /* Gamma = 1.9 */
1212:STM32Cube_FW_N6/Drivers/STM32N6xx_HAL_Driver/Src/stm32n6xx_hal_ltdc.c ****     4, 16, 36, 64, 100, 145, 197,       /* Gamma = 2.0 */
1213:STM32Cube_FW_N6/Drivers/STM32N6xx_HAL_Driver/Src/stm32n6xx_hal_ltdc.c ****     3, 14, 33, 60, 96, 141, 194,        /* Gamma = 2.1 */
1214:STM32Cube_FW_N6/Drivers/STM32N6xx_HAL_Driver/Src/stm32n6xx_hal_ltdc.c ****     3, 12, 30, 56, 91, 137, 192,        /* Gamma = 2.2 */
1215:STM32Cube_FW_N6/Drivers/STM32N6xx_HAL_Driver/Src/stm32n6xx_hal_ltdc.c ****     2, 11, 27, 52, 87, 133, 189,        /* Gamma = 2.3 */
1216:STM32Cube_FW_N6/Drivers/STM32N6xx_HAL_Driver/Src/stm32n6xx_hal_ltdc.c ****     2, 9, 24, 49, 83, 129, 187,         /* Gamma = 2.4 */
1217:STM32Cube_FW_N6/Drivers/STM32N6xx_HAL_Driver/Src/stm32n6xx_hal_ltdc.c ****     1, 8, 22, 46, 80, 125, 184,         /* Gamma = 2.5 */
1218:STM32Cube_FW_N6/Drivers/STM32N6xx_HAL_Driver/Src/stm32n6xx_hal_ltdc.c ****     1, 7, 20, 42, 76, 122, 182,         /* Gamma = 2.6 */
1219:STM32Cube_FW_N6/Drivers/STM32N6xx_HAL_Driver/Src/stm32n6xx_hal_ltdc.c ****     1, 6, 18, 40, 72, 119, 180,         /* Gamma = 2.7 */
1220:STM32Cube_FW_N6/Drivers/STM32N6xx_HAL_Driver/Src/stm32n6xx_hal_ltdc.c ****     1, 5, 17, 37, 69, 115, 177,         /* Gamma = 2.8 */
1221:STM32Cube_FW_N6/Drivers/STM32N6xx_HAL_Driver/Src/stm32n6xx_hal_ltdc.c ****     1, 5, 15, 35, 66, 112, 175,         /* Gamma = 2.9 */
1222:STM32Cube_FW_N6/Drivers/STM32N6xx_HAL_Driver/Src/stm32n6xx_hal_ltdc.c ****   };
1223:STM32Cube_FW_N6/Drivers/STM32N6xx_HAL_Driver/Src/stm32n6xx_hal_ltdc.c **** 
ARM GAS  /tmp/ccM4Rtv8.s 			page 59


1224:STM32Cube_FW_N6/Drivers/STM32N6xx_HAL_Driver/Src/stm32n6xx_hal_ltdc.c ****   /* Check the parameters */
1225:STM32Cube_FW_N6/Drivers/STM32N6xx_HAL_Driver/Src/stm32n6xx_hal_ltdc.c ****   assert_param(IS_LTDC_RGB_COMPONENT(RGBComponent));
 2063              		.loc 1 1225 3
 2064 004c 3B68     		ldr	r3, [r7]
 2065 004e B3F5802F 		cmp	r3, #262144
 2066 0052 10D0     		beq	.L90
 2067              		.loc 1 1225 3 is_stmt 0 discriminator 1
 2068 0054 3B68     		ldr	r3, [r7]
 2069 0056 B3F5003F 		cmp	r3, #131072
 2070 005a 0CD0     		beq	.L90
 2071              		.loc 1 1225 3 discriminator 2
 2072 005c 3B68     		ldr	r3, [r7]
 2073 005e B3F5803F 		cmp	r3, #65536
 2074 0062 08D0     		beq	.L90
 2075              		.loc 1 1225 3 discriminator 3
 2076 0064 3B68     		ldr	r3, [r7]
 2077 0066 B3F5E02F 		cmp	r3, #458752
 2078 006a 04D0     		beq	.L90
 2079              		.loc 1 1225 3 discriminator 4
 2080 006c 40F2C941 		movw	r1, #1225
 2081 0070 3648     		ldr	r0, .L98+8
 2082 0072 FFF7FEFF 		bl	assert_failed
 2083              	.L90:
1226:STM32Cube_FW_N6/Drivers/STM32N6xx_HAL_Driver/Src/stm32n6xx_hal_ltdc.c ****   assert_param(IS_LTDC_GAMMA_VALUE(GammaOnes, GammaTenths));
 2084              		.loc 1 1226 3 is_stmt 1
 2085 0076 BA68     		ldr	r2, [r7, #8]
 2086 0078 1346     		mov	r3, r2
 2087 007a 9B00     		lsls	r3, r3, #2
 2088 007c 1344     		add	r3, r3, r2
 2089 007e 5B00     		lsls	r3, r3, #1
 2090 0080 1A46     		mov	r2, r3
 2091 0082 7B68     		ldr	r3, [r7, #4]
 2092 0084 1344     		add	r3, r3, r2
 2093 0086 032B     		cmp	r3, #3
 2094 0088 09D9     		bls	.L91
 2095              		.loc 1 1226 3 is_stmt 0 discriminator 2
 2096 008a BA68     		ldr	r2, [r7, #8]
 2097 008c 1346     		mov	r3, r2
 2098 008e 9B00     		lsls	r3, r3, #2
 2099 0090 1344     		add	r3, r3, r2
 2100 0092 5B00     		lsls	r3, r3, #1
 2101 0094 1A46     		mov	r2, r3
 2102 0096 7B68     		ldr	r3, [r7, #4]
 2103 0098 1344     		add	r3, r3, r2
 2104 009a 1D2B     		cmp	r3, #29
 2105 009c 04D9     		bls	.L92
 2106              	.L91:
 2107              		.loc 1 1226 3 discriminator 3
 2108 009e 40F2CA41 		movw	r1, #1226
 2109 00a2 2A48     		ldr	r0, .L98+8
 2110 00a4 FFF7FEFF 		bl	assert_failed
 2111              	.L92:
1227:STM32Cube_FW_N6/Drivers/STM32N6xx_HAL_Driver/Src/stm32n6xx_hal_ltdc.c **** 
1228:STM32Cube_FW_N6/Drivers/STM32N6xx_HAL_Driver/Src/stm32n6xx_hal_ltdc.c ****   /* Process locked */
1229:STM32Cube_FW_N6/Drivers/STM32N6xx_HAL_Driver/Src/stm32n6xx_hal_ltdc.c ****   __HAL_LOCK(hltdc);
 2112              		.loc 1 1229 3 is_stmt 1
 2113 00a8 FB68     		ldr	r3, [r7, #12]
ARM GAS  /tmp/ccM4Rtv8.s 			page 60


 2114 00aa 93F8A030 		ldrb	r3, [r3, #160]	@ zero_extendqisi2
 2115 00ae 012B     		cmp	r3, #1
 2116 00b0 01D1     		bne	.L93
 2117              		.loc 1 1229 3 is_stmt 0 discriminator 1
 2118 00b2 0223     		movs	r3, #2
 2119              		.loc 1 1229 3
 2120 00b4 41E0     		b	.L97
 2121              	.L93:
 2122              		.loc 1 1229 3 discriminator 2
 2123 00b6 FB68     		ldr	r3, [r7, #12]
 2124 00b8 0122     		movs	r2, #1
 2125 00ba 83F8A020 		strb	r2, [r3, #160]
1230:STM32Cube_FW_N6/Drivers/STM32N6xx_HAL_Driver/Src/stm32n6xx_hal_ltdc.c **** 
1231:STM32Cube_FW_N6/Drivers/STM32N6xx_HAL_Driver/Src/stm32n6xx_hal_ltdc.c ****   /* Change LTDC peripheral state */
1232:STM32Cube_FW_N6/Drivers/STM32N6xx_HAL_Driver/Src/stm32n6xx_hal_ltdc.c ****   hltdc->State = HAL_LTDC_STATE_BUSY;
 2126              		.loc 1 1232 16 is_stmt 1
 2127 00be FB68     		ldr	r3, [r7, #12]
 2128 00c0 0222     		movs	r2, #2
 2129 00c2 83F8A120 		strb	r2, [r3, #161]
1233:STM32Cube_FW_N6/Drivers/STM32N6xx_HAL_Driver/Src/stm32n6xx_hal_ltdc.c **** 
1234:STM32Cube_FW_N6/Drivers/STM32N6xx_HAL_Driver/Src/stm32n6xx_hal_ltdc.c ****   /* Set Gamma interpolated segments*/
1235:STM32Cube_FW_N6/Drivers/STM32N6xx_HAL_Driver/Src/stm32n6xx_hal_ltdc.c ****   hltdc->Instance->GCCR = RGBComponent ;
 2130              		.loc 1 1235 8
 2131 00c6 FB68     		ldr	r3, [r7, #12]
 2132 00c8 1B68     		ldr	r3, [r3]
 2133              		.loc 1 1235 25
 2134 00ca 3A68     		ldr	r2, [r7]
 2135 00cc 9A62     		str	r2, [r3, #40]
1236:STM32Cube_FW_N6/Drivers/STM32N6xx_HAL_Driver/Src/stm32n6xx_hal_ltdc.c ****   for (gammasegment = 0U; (gammasegment < 7U); gammasegment++)
 2136              		.loc 1 1236 21
 2137 00ce 0023     		movs	r3, #0
 2138 00d0 87F8D730 		strb	r3, [r7, #215]
 2139              		.loc 1 1236 3
 2140 00d4 1CE0     		b	.L95
 2141              	.L96:
1237:STM32Cube_FW_N6/Drivers/STM32N6xx_HAL_Driver/Src/stm32n6xx_hal_ltdc.c ****   {
1238:STM32Cube_FW_N6/Drivers/STM32N6xx_HAL_Driver/Src/stm32n6xx_hal_ltdc.c ****     hltdc->Instance->GCCR = RGBComponent | ((uint32_t) GammaAdress[gammasegment] << LTDC_GCCR_ADDR_
 2142              		.loc 1 1238 67
 2143 00d6 97F8D730 		ldrb	r3, [r7, #215]	@ zero_extendqisi2
 2144 00da D833     		adds	r3, r3, #216
 2145 00dc 3B44     		add	r3, r3, r7
 2146 00de 13F8103C 		ldrb	r3, [r3, #-16]	@ zero_extendqisi2
 2147              		.loc 1 1238 82
 2148 00e2 1A46     		mov	r2, r3
 2149              		.loc 1 1238 42
 2150 00e4 3B68     		ldr	r3, [r7]
 2151 00e6 42EA0301 		orr	r1, r2, r3
1239:STM32Cube_FW_N6/Drivers/STM32N6xx_HAL_Driver/Src/stm32n6xx_hal_ltdc.c ****                             ((uint32_t) GammaLUT[gammasegment + gammaindex] << LTDC_GCCR_COMP_Pos);
 2152              		.loc 1 1239 63
 2153 00ea 97F8D720 		ldrb	r2, [r7, #215]	@ zero_extendqisi2
 2154 00ee D7F8D030 		ldr	r3, [r7, #208]
 2155 00f2 1344     		add	r3, r3, r2
 2156              		.loc 1 1239 49
 2157 00f4 D833     		adds	r3, r3, #216
 2158 00f6 3B44     		add	r3, r3, r7
 2159 00f8 13F8C83C 		ldrb	r3, [r3, #-200]	@ zero_extendqisi2
 2160              		.loc 1 1239 77
ARM GAS  /tmp/ccM4Rtv8.s 			page 61


 2161 00fc 1A02     		lsls	r2, r3, #8
1238:STM32Cube_FW_N6/Drivers/STM32N6xx_HAL_Driver/Src/stm32n6xx_hal_ltdc.c ****                             ((uint32_t) GammaLUT[gammasegment + gammaindex] << LTDC_GCCR_COMP_Pos);
 2162              		.loc 1 1238 10
 2163 00fe FB68     		ldr	r3, [r7, #12]
 2164 0100 1B68     		ldr	r3, [r3]
1238:STM32Cube_FW_N6/Drivers/STM32N6xx_HAL_Driver/Src/stm32n6xx_hal_ltdc.c ****                             ((uint32_t) GammaLUT[gammasegment + gammaindex] << LTDC_GCCR_COMP_Pos);
 2165              		.loc 1 1238 105
 2166 0102 0A43     		orrs	r2, r2, r1
1238:STM32Cube_FW_N6/Drivers/STM32N6xx_HAL_Driver/Src/stm32n6xx_hal_ltdc.c ****                             ((uint32_t) GammaLUT[gammasegment + gammaindex] << LTDC_GCCR_COMP_Pos);
 2167              		.loc 1 1238 27
 2168 0104 9A62     		str	r2, [r3, #40]
1236:STM32Cube_FW_N6/Drivers/STM32N6xx_HAL_Driver/Src/stm32n6xx_hal_ltdc.c ****   {
 2169              		.loc 1 1236 60 discriminator 3
 2170 0106 97F8D730 		ldrb	r3, [r7, #215]	@ zero_extendqisi2
 2171 010a 0133     		adds	r3, r3, #1
 2172 010c 87F8D730 		strb	r3, [r7, #215]
 2173              	.L95:
1236:STM32Cube_FW_N6/Drivers/STM32N6xx_HAL_Driver/Src/stm32n6xx_hal_ltdc.c ****   {
 2174              		.loc 1 1236 41 discriminator 1
 2175 0110 97F8D730 		ldrb	r3, [r7, #215]	@ zero_extendqisi2
 2176 0114 062B     		cmp	r3, #6
 2177 0116 DED9     		bls	.L96
1240:STM32Cube_FW_N6/Drivers/STM32N6xx_HAL_Driver/Src/stm32n6xx_hal_ltdc.c ****   }
1241:STM32Cube_FW_N6/Drivers/STM32N6xx_HAL_Driver/Src/stm32n6xx_hal_ltdc.c ****   hltdc->Instance->GCCR = RGBComponent | (0xFFU << LTDC_GCCR_COMP_Pos) | LTDC_GCCR_ADDR;
 2178              		.loc 1 1241 8
 2179 0118 FB68     		ldr	r3, [r7, #12]
 2180 011a 1A68     		ldr	r2, [r3]
 2181              		.loc 1 1241 72
 2182 011c 3B68     		ldr	r3, [r7]
 2183 011e 6FEA1343 		mvn	r3, r3, lsr #16
 2184 0122 6FEA0343 		mvn	r3, r3, lsl #16
 2185              		.loc 1 1241 25
 2186 0126 9362     		str	r3, [r2, #40]
1242:STM32Cube_FW_N6/Drivers/STM32N6xx_HAL_Driver/Src/stm32n6xx_hal_ltdc.c **** 
1243:STM32Cube_FW_N6/Drivers/STM32N6xx_HAL_Driver/Src/stm32n6xx_hal_ltdc.c ****   /* Change the LTDC state*/
1244:STM32Cube_FW_N6/Drivers/STM32N6xx_HAL_Driver/Src/stm32n6xx_hal_ltdc.c ****   hltdc->State = HAL_LTDC_STATE_READY;
 2187              		.loc 1 1244 16
 2188 0128 FB68     		ldr	r3, [r7, #12]
 2189 012a 0122     		movs	r2, #1
 2190 012c 83F8A120 		strb	r2, [r3, #161]
1245:STM32Cube_FW_N6/Drivers/STM32N6xx_HAL_Driver/Src/stm32n6xx_hal_ltdc.c **** 
1246:STM32Cube_FW_N6/Drivers/STM32N6xx_HAL_Driver/Src/stm32n6xx_hal_ltdc.c ****   /* Process unlocked */
1247:STM32Cube_FW_N6/Drivers/STM32N6xx_HAL_Driver/Src/stm32n6xx_hal_ltdc.c ****   __HAL_UNLOCK(hltdc);
 2191              		.loc 1 1247 3
 2192 0130 FB68     		ldr	r3, [r7, #12]
 2193 0132 0022     		movs	r2, #0
 2194 0134 83F8A020 		strb	r2, [r3, #160]
1248:STM32Cube_FW_N6/Drivers/STM32N6xx_HAL_Driver/Src/stm32n6xx_hal_ltdc.c **** 
1249:STM32Cube_FW_N6/Drivers/STM32N6xx_HAL_Driver/Src/stm32n6xx_hal_ltdc.c ****   return HAL_OK;
 2195              		.loc 1 1249 10
 2196 0138 0023     		movs	r3, #0
 2197              	.L97:
1250:STM32Cube_FW_N6/Drivers/STM32N6xx_HAL_Driver/Src/stm32n6xx_hal_ltdc.c **** }
 2198              		.loc 1 1250 1
 2199 013a 1846     		mov	r0, r3
 2200 013c D837     		adds	r7, r7, #216
 2201              		.cfi_def_cfa_offset 8
ARM GAS  /tmp/ccM4Rtv8.s 			page 62


 2202 013e BD46     		mov	sp, r7
 2203              		.cfi_def_cfa_register 13
 2204              		@ sp needed
 2205 0140 80BD     		pop	{r7, pc}
 2206              	.L99:
 2207 0142 00BF     		.align	2
 2208              	.L98:
 2209 0144 48000000 		.word	.LC1
 2210 0148 50000000 		.word	.LC2
 2211 014c 00000000 		.word	.LC0
 2212              		.cfi_endproc
 2213              	.LFE849:
 2215              		.section	.text.HAL_LTDC_EnableColorKeying,"ax",%progbits
 2216              		.align	1
 2217              		.global	HAL_LTDC_EnableColorKeying
 2218              		.syntax unified
 2219              		.thumb
 2220              		.thumb_func
 2222              	HAL_LTDC_EnableColorKeying:
 2223              	.LFB850:
1251:STM32Cube_FW_N6/Drivers/STM32N6xx_HAL_Driver/Src/stm32n6xx_hal_ltdc.c **** 
1252:STM32Cube_FW_N6/Drivers/STM32N6xx_HAL_Driver/Src/stm32n6xx_hal_ltdc.c **** /**
1253:STM32Cube_FW_N6/Drivers/STM32N6xx_HAL_Driver/Src/stm32n6xx_hal_ltdc.c ****   * @brief  Enable the color keying.
1254:STM32Cube_FW_N6/Drivers/STM32N6xx_HAL_Driver/Src/stm32n6xx_hal_ltdc.c ****   * @param  hltdc     pointer to a LTDC_HandleTypeDef structure that contains
1255:STM32Cube_FW_N6/Drivers/STM32N6xx_HAL_Driver/Src/stm32n6xx_hal_ltdc.c ****   *                   the configuration information for the LTDC.
1256:STM32Cube_FW_N6/Drivers/STM32N6xx_HAL_Driver/Src/stm32n6xx_hal_ltdc.c ****   * @param  LayerIdx  LTDC Layer index.
1257:STM32Cube_FW_N6/Drivers/STM32N6xx_HAL_Driver/Src/stm32n6xx_hal_ltdc.c ****   *                   This parameter can be one of the following values:
1258:STM32Cube_FW_N6/Drivers/STM32N6xx_HAL_Driver/Src/stm32n6xx_hal_ltdc.c ****   *                   LTDC_LAYER_1 (0) or LTDC_LAYER_2 (1)
1259:STM32Cube_FW_N6/Drivers/STM32N6xx_HAL_Driver/Src/stm32n6xx_hal_ltdc.c ****   * @retval  HAL status
1260:STM32Cube_FW_N6/Drivers/STM32N6xx_HAL_Driver/Src/stm32n6xx_hal_ltdc.c ****   */
1261:STM32Cube_FW_N6/Drivers/STM32N6xx_HAL_Driver/Src/stm32n6xx_hal_ltdc.c **** HAL_StatusTypeDef HAL_LTDC_EnableColorKeying(LTDC_HandleTypeDef *hltdc, uint32_t LayerIdx)
1262:STM32Cube_FW_N6/Drivers/STM32N6xx_HAL_Driver/Src/stm32n6xx_hal_ltdc.c **** {
 2224              		.loc 1 1262 1
 2225              		.cfi_startproc
 2226              		@ args = 0, pretend = 0, frame = 8
 2227              		@ frame_needed = 1, uses_anonymous_args = 0
 2228 0000 80B5     		push	{r7, lr}
 2229              		.cfi_def_cfa_offset 8
 2230              		.cfi_offset 7, -8
 2231              		.cfi_offset 14, -4
 2232 0002 82B0     		sub	sp, sp, #8
 2233              		.cfi_def_cfa_offset 16
 2234 0004 00AF     		add	r7, sp, #0
 2235              		.cfi_def_cfa_register 7
 2236 0006 7860     		str	r0, [r7, #4]
 2237 0008 3960     		str	r1, [r7]
1263:STM32Cube_FW_N6/Drivers/STM32N6xx_HAL_Driver/Src/stm32n6xx_hal_ltdc.c ****   /* Check the parameters */
1264:STM32Cube_FW_N6/Drivers/STM32N6xx_HAL_Driver/Src/stm32n6xx_hal_ltdc.c ****   assert_param(IS_LTDC_LAYER(LayerIdx));
 2238              		.loc 1 1264 3
 2239 000a 3B68     		ldr	r3, [r7]
 2240 000c 012B     		cmp	r3, #1
 2241 000e 04D9     		bls	.L101
 2242              		.loc 1 1264 3 is_stmt 0 discriminator 1
 2243 0010 4FF49E61 		mov	r1, #1264
 2244 0014 1E48     		ldr	r0, .L104
 2245 0016 FFF7FEFF 		bl	assert_failed
 2246              	.L101:
ARM GAS  /tmp/ccM4Rtv8.s 			page 63


1265:STM32Cube_FW_N6/Drivers/STM32N6xx_HAL_Driver/Src/stm32n6xx_hal_ltdc.c **** 
1266:STM32Cube_FW_N6/Drivers/STM32N6xx_HAL_Driver/Src/stm32n6xx_hal_ltdc.c ****   /* Process locked */
1267:STM32Cube_FW_N6/Drivers/STM32N6xx_HAL_Driver/Src/stm32n6xx_hal_ltdc.c ****   __HAL_LOCK(hltdc);
 2247              		.loc 1 1267 3 is_stmt 1
 2248 001a 7B68     		ldr	r3, [r7, #4]
 2249 001c 93F8A030 		ldrb	r3, [r3, #160]	@ zero_extendqisi2
 2250 0020 012B     		cmp	r3, #1
 2251 0022 01D1     		bne	.L102
 2252              		.loc 1 1267 3 is_stmt 0 discriminator 1
 2253 0024 0223     		movs	r3, #2
 2254              		.loc 1 1267 3
 2255 0026 2FE0     		b	.L103
 2256              	.L102:
 2257              		.loc 1 1267 3 discriminator 2
 2258 0028 7B68     		ldr	r3, [r7, #4]
 2259 002a 0122     		movs	r2, #1
 2260 002c 83F8A020 		strb	r2, [r3, #160]
1268:STM32Cube_FW_N6/Drivers/STM32N6xx_HAL_Driver/Src/stm32n6xx_hal_ltdc.c **** 
1269:STM32Cube_FW_N6/Drivers/STM32N6xx_HAL_Driver/Src/stm32n6xx_hal_ltdc.c ****   /* Change LTDC peripheral state */
1270:STM32Cube_FW_N6/Drivers/STM32N6xx_HAL_Driver/Src/stm32n6xx_hal_ltdc.c ****   hltdc->State = HAL_LTDC_STATE_BUSY;
 2261              		.loc 1 1270 16 is_stmt 1
 2262 0030 7B68     		ldr	r3, [r7, #4]
 2263 0032 0222     		movs	r2, #2
 2264 0034 83F8A120 		strb	r2, [r3, #161]
1271:STM32Cube_FW_N6/Drivers/STM32N6xx_HAL_Driver/Src/stm32n6xx_hal_ltdc.c **** 
1272:STM32Cube_FW_N6/Drivers/STM32N6xx_HAL_Driver/Src/stm32n6xx_hal_ltdc.c ****   /* Enable LTDC color keying by setting COLKEN bit */
1273:STM32Cube_FW_N6/Drivers/STM32N6xx_HAL_Driver/Src/stm32n6xx_hal_ltdc.c ****   LTDC_LAYER(hltdc, LayerIdx)->CR |= (uint32_t)LTDC_LxCR_CKEN;
 2265              		.loc 1 1273 3
 2266 0038 7B68     		ldr	r3, [r7, #4]
 2267 003a 1B68     		ldr	r3, [r3]
 2268              		.loc 1 1273 30
 2269 003c 1A46     		mov	r2, r3
 2270 003e 3B68     		ldr	r3, [r7]
 2271 0040 1B02     		lsls	r3, r3, #8
 2272 0042 1344     		add	r3, r3, r2
 2273 0044 03F58073 		add	r3, r3, #256
 2274 0048 DB68     		ldr	r3, [r3, #12]
 2275              		.loc 1 1273 3
 2276 004a 7A68     		ldr	r2, [r7, #4]
 2277 004c 1268     		ldr	r2, [r2]
 2278              		.loc 1 1273 30
 2279 004e 1146     		mov	r1, r2
 2280 0050 3A68     		ldr	r2, [r7]
 2281 0052 1202     		lsls	r2, r2, #8
 2282 0054 0A44     		add	r2, r2, r1
 2283 0056 02F58072 		add	r2, r2, #256
 2284              		.loc 1 1273 35
 2285 005a 43F00203 		orr	r3, r3, #2
 2286 005e D360     		str	r3, [r2, #12]
1274:STM32Cube_FW_N6/Drivers/STM32N6xx_HAL_Driver/Src/stm32n6xx_hal_ltdc.c **** 
1275:STM32Cube_FW_N6/Drivers/STM32N6xx_HAL_Driver/Src/stm32n6xx_hal_ltdc.c ****   /* Set the Immediate Reload type */
1276:STM32Cube_FW_N6/Drivers/STM32N6xx_HAL_Driver/Src/stm32n6xx_hal_ltdc.c ****   WRITE_REG(LTDC_LAYER(hltdc, LayerIdx)->RCR, LTDC_LxRCR_IMR | LTDC_LxRCR_GRMSK);
 2287              		.loc 1 1276 3
 2288 0060 7B68     		ldr	r3, [r7, #4]
 2289 0062 1B68     		ldr	r3, [r3]
 2290 0064 1A46     		mov	r2, r3
 2291 0066 3B68     		ldr	r3, [r7]
ARM GAS  /tmp/ccM4Rtv8.s 			page 64


 2292 0068 1B02     		lsls	r3, r3, #8
 2293 006a 1344     		add	r3, r3, r2
 2294 006c 03F58073 		add	r3, r3, #256
 2295 0070 1A46     		mov	r2, r3
 2296 0072 0523     		movs	r3, #5
 2297 0074 9360     		str	r3, [r2, #8]
1277:STM32Cube_FW_N6/Drivers/STM32N6xx_HAL_Driver/Src/stm32n6xx_hal_ltdc.c **** 
1278:STM32Cube_FW_N6/Drivers/STM32N6xx_HAL_Driver/Src/stm32n6xx_hal_ltdc.c ****   /* Change the LTDC state*/
1279:STM32Cube_FW_N6/Drivers/STM32N6xx_HAL_Driver/Src/stm32n6xx_hal_ltdc.c ****   hltdc->State = HAL_LTDC_STATE_READY;
 2298              		.loc 1 1279 16
 2299 0076 7B68     		ldr	r3, [r7, #4]
 2300 0078 0122     		movs	r2, #1
 2301 007a 83F8A120 		strb	r2, [r3, #161]
1280:STM32Cube_FW_N6/Drivers/STM32N6xx_HAL_Driver/Src/stm32n6xx_hal_ltdc.c **** 
1281:STM32Cube_FW_N6/Drivers/STM32N6xx_HAL_Driver/Src/stm32n6xx_hal_ltdc.c ****   /* Process unlocked */
1282:STM32Cube_FW_N6/Drivers/STM32N6xx_HAL_Driver/Src/stm32n6xx_hal_ltdc.c ****   __HAL_UNLOCK(hltdc);
 2302              		.loc 1 1282 3
 2303 007e 7B68     		ldr	r3, [r7, #4]
 2304 0080 0022     		movs	r2, #0
 2305 0082 83F8A020 		strb	r2, [r3, #160]
1283:STM32Cube_FW_N6/Drivers/STM32N6xx_HAL_Driver/Src/stm32n6xx_hal_ltdc.c **** 
1284:STM32Cube_FW_N6/Drivers/STM32N6xx_HAL_Driver/Src/stm32n6xx_hal_ltdc.c ****   return HAL_OK;
 2306              		.loc 1 1284 10
 2307 0086 0023     		movs	r3, #0
 2308              	.L103:
1285:STM32Cube_FW_N6/Drivers/STM32N6xx_HAL_Driver/Src/stm32n6xx_hal_ltdc.c **** }
 2309              		.loc 1 1285 1
 2310 0088 1846     		mov	r0, r3
 2311 008a 0837     		adds	r7, r7, #8
 2312              		.cfi_def_cfa_offset 8
 2313 008c BD46     		mov	sp, r7
 2314              		.cfi_def_cfa_register 13
 2315              		@ sp needed
 2316 008e 80BD     		pop	{r7, pc}
 2317              	.L105:
 2318              		.align	2
 2319              	.L104:
 2320 0090 00000000 		.word	.LC0
 2321              		.cfi_endproc
 2322              	.LFE850:
 2324              		.section	.text.HAL_LTDC_DisableColorKeying,"ax",%progbits
 2325              		.align	1
 2326              		.global	HAL_LTDC_DisableColorKeying
 2327              		.syntax unified
 2328              		.thumb
 2329              		.thumb_func
 2331              	HAL_LTDC_DisableColorKeying:
 2332              	.LFB851:
1286:STM32Cube_FW_N6/Drivers/STM32N6xx_HAL_Driver/Src/stm32n6xx_hal_ltdc.c **** 
1287:STM32Cube_FW_N6/Drivers/STM32N6xx_HAL_Driver/Src/stm32n6xx_hal_ltdc.c **** /**
1288:STM32Cube_FW_N6/Drivers/STM32N6xx_HAL_Driver/Src/stm32n6xx_hal_ltdc.c ****   * @brief  Disable the color keying.
1289:STM32Cube_FW_N6/Drivers/STM32N6xx_HAL_Driver/Src/stm32n6xx_hal_ltdc.c ****   * @param  hltdc     pointer to a LTDC_HandleTypeDef structure that contains
1290:STM32Cube_FW_N6/Drivers/STM32N6xx_HAL_Driver/Src/stm32n6xx_hal_ltdc.c ****   *                   the configuration information for the LTDC.
1291:STM32Cube_FW_N6/Drivers/STM32N6xx_HAL_Driver/Src/stm32n6xx_hal_ltdc.c ****   * @param  LayerIdx  LTDC Layer index.
1292:STM32Cube_FW_N6/Drivers/STM32N6xx_HAL_Driver/Src/stm32n6xx_hal_ltdc.c ****   *                   This parameter can be one of the following values:
1293:STM32Cube_FW_N6/Drivers/STM32N6xx_HAL_Driver/Src/stm32n6xx_hal_ltdc.c ****   *                   LTDC_LAYER_1 (0) or LTDC_LAYER_2 (1)
1294:STM32Cube_FW_N6/Drivers/STM32N6xx_HAL_Driver/Src/stm32n6xx_hal_ltdc.c ****   * @retval  HAL status
ARM GAS  /tmp/ccM4Rtv8.s 			page 65


1295:STM32Cube_FW_N6/Drivers/STM32N6xx_HAL_Driver/Src/stm32n6xx_hal_ltdc.c ****   */
1296:STM32Cube_FW_N6/Drivers/STM32N6xx_HAL_Driver/Src/stm32n6xx_hal_ltdc.c **** HAL_StatusTypeDef HAL_LTDC_DisableColorKeying(LTDC_HandleTypeDef *hltdc, uint32_t LayerIdx)
1297:STM32Cube_FW_N6/Drivers/STM32N6xx_HAL_Driver/Src/stm32n6xx_hal_ltdc.c **** {
 2333              		.loc 1 1297 1
 2334              		.cfi_startproc
 2335              		@ args = 0, pretend = 0, frame = 8
 2336              		@ frame_needed = 1, uses_anonymous_args = 0
 2337 0000 80B5     		push	{r7, lr}
 2338              		.cfi_def_cfa_offset 8
 2339              		.cfi_offset 7, -8
 2340              		.cfi_offset 14, -4
 2341 0002 82B0     		sub	sp, sp, #8
 2342              		.cfi_def_cfa_offset 16
 2343 0004 00AF     		add	r7, sp, #0
 2344              		.cfi_def_cfa_register 7
 2345 0006 7860     		str	r0, [r7, #4]
 2346 0008 3960     		str	r1, [r7]
1298:STM32Cube_FW_N6/Drivers/STM32N6xx_HAL_Driver/Src/stm32n6xx_hal_ltdc.c ****   /* Check the parameters */
1299:STM32Cube_FW_N6/Drivers/STM32N6xx_HAL_Driver/Src/stm32n6xx_hal_ltdc.c ****   assert_param(IS_LTDC_LAYER(LayerIdx));
 2347              		.loc 1 1299 3
 2348 000a 3B68     		ldr	r3, [r7]
 2349 000c 012B     		cmp	r3, #1
 2350 000e 04D9     		bls	.L107
 2351              		.loc 1 1299 3 is_stmt 0 discriminator 1
 2352 0010 40F21351 		movw	r1, #1299
 2353 0014 1E48     		ldr	r0, .L110
 2354 0016 FFF7FEFF 		bl	assert_failed
 2355              	.L107:
1300:STM32Cube_FW_N6/Drivers/STM32N6xx_HAL_Driver/Src/stm32n6xx_hal_ltdc.c **** 
1301:STM32Cube_FW_N6/Drivers/STM32N6xx_HAL_Driver/Src/stm32n6xx_hal_ltdc.c ****   /* Process locked */
1302:STM32Cube_FW_N6/Drivers/STM32N6xx_HAL_Driver/Src/stm32n6xx_hal_ltdc.c ****   __HAL_LOCK(hltdc);
 2356              		.loc 1 1302 3 is_stmt 1
 2357 001a 7B68     		ldr	r3, [r7, #4]
 2358 001c 93F8A030 		ldrb	r3, [r3, #160]	@ zero_extendqisi2
 2359 0020 012B     		cmp	r3, #1
 2360 0022 01D1     		bne	.L108
 2361              		.loc 1 1302 3 is_stmt 0 discriminator 1
 2362 0024 0223     		movs	r3, #2
 2363              		.loc 1 1302 3
 2364 0026 2FE0     		b	.L109
 2365              	.L108:
 2366              		.loc 1 1302 3 discriminator 2
 2367 0028 7B68     		ldr	r3, [r7, #4]
 2368 002a 0122     		movs	r2, #1
 2369 002c 83F8A020 		strb	r2, [r3, #160]
1303:STM32Cube_FW_N6/Drivers/STM32N6xx_HAL_Driver/Src/stm32n6xx_hal_ltdc.c **** 
1304:STM32Cube_FW_N6/Drivers/STM32N6xx_HAL_Driver/Src/stm32n6xx_hal_ltdc.c ****   /* Change LTDC peripheral state */
1305:STM32Cube_FW_N6/Drivers/STM32N6xx_HAL_Driver/Src/stm32n6xx_hal_ltdc.c ****   hltdc->State = HAL_LTDC_STATE_BUSY;
 2370              		.loc 1 1305 16 is_stmt 1
 2371 0030 7B68     		ldr	r3, [r7, #4]
 2372 0032 0222     		movs	r2, #2
 2373 0034 83F8A120 		strb	r2, [r3, #161]
1306:STM32Cube_FW_N6/Drivers/STM32N6xx_HAL_Driver/Src/stm32n6xx_hal_ltdc.c **** 
1307:STM32Cube_FW_N6/Drivers/STM32N6xx_HAL_Driver/Src/stm32n6xx_hal_ltdc.c ****   /* Disable LTDC color keying by setting COLKEN bit */
1308:STM32Cube_FW_N6/Drivers/STM32N6xx_HAL_Driver/Src/stm32n6xx_hal_ltdc.c ****   LTDC_LAYER(hltdc, LayerIdx)->CR &= ~(uint32_t)LTDC_LxCR_CKEN;
 2374              		.loc 1 1308 3
 2375 0038 7B68     		ldr	r3, [r7, #4]
ARM GAS  /tmp/ccM4Rtv8.s 			page 66


 2376 003a 1B68     		ldr	r3, [r3]
 2377              		.loc 1 1308 30
 2378 003c 1A46     		mov	r2, r3
 2379 003e 3B68     		ldr	r3, [r7]
 2380 0040 1B02     		lsls	r3, r3, #8
 2381 0042 1344     		add	r3, r3, r2
 2382 0044 03F58073 		add	r3, r3, #256
 2383 0048 DB68     		ldr	r3, [r3, #12]
 2384              		.loc 1 1308 3
 2385 004a 7A68     		ldr	r2, [r7, #4]
 2386 004c 1268     		ldr	r2, [r2]
 2387              		.loc 1 1308 30
 2388 004e 1146     		mov	r1, r2
 2389 0050 3A68     		ldr	r2, [r7]
 2390 0052 1202     		lsls	r2, r2, #8
 2391 0054 0A44     		add	r2, r2, r1
 2392 0056 02F58072 		add	r2, r2, #256
 2393              		.loc 1 1308 35
 2394 005a 23F00203 		bic	r3, r3, #2
 2395 005e D360     		str	r3, [r2, #12]
1309:STM32Cube_FW_N6/Drivers/STM32N6xx_HAL_Driver/Src/stm32n6xx_hal_ltdc.c **** 
1310:STM32Cube_FW_N6/Drivers/STM32N6xx_HAL_Driver/Src/stm32n6xx_hal_ltdc.c ****   /* Set the Immediate Reload type */
1311:STM32Cube_FW_N6/Drivers/STM32N6xx_HAL_Driver/Src/stm32n6xx_hal_ltdc.c ****   WRITE_REG(LTDC_LAYER(hltdc, LayerIdx)->RCR, LTDC_LxRCR_IMR | LTDC_LxRCR_GRMSK);
 2396              		.loc 1 1311 3
 2397 0060 7B68     		ldr	r3, [r7, #4]
 2398 0062 1B68     		ldr	r3, [r3]
 2399 0064 1A46     		mov	r2, r3
 2400 0066 3B68     		ldr	r3, [r7]
 2401 0068 1B02     		lsls	r3, r3, #8
 2402 006a 1344     		add	r3, r3, r2
 2403 006c 03F58073 		add	r3, r3, #256
 2404 0070 1A46     		mov	r2, r3
 2405 0072 0523     		movs	r3, #5
 2406 0074 9360     		str	r3, [r2, #8]
1312:STM32Cube_FW_N6/Drivers/STM32N6xx_HAL_Driver/Src/stm32n6xx_hal_ltdc.c **** 
1313:STM32Cube_FW_N6/Drivers/STM32N6xx_HAL_Driver/Src/stm32n6xx_hal_ltdc.c ****   /* Change the LTDC state*/
1314:STM32Cube_FW_N6/Drivers/STM32N6xx_HAL_Driver/Src/stm32n6xx_hal_ltdc.c ****   hltdc->State = HAL_LTDC_STATE_READY;
 2407              		.loc 1 1314 16
 2408 0076 7B68     		ldr	r3, [r7, #4]
 2409 0078 0122     		movs	r2, #1
 2410 007a 83F8A120 		strb	r2, [r3, #161]
1315:STM32Cube_FW_N6/Drivers/STM32N6xx_HAL_Driver/Src/stm32n6xx_hal_ltdc.c **** 
1316:STM32Cube_FW_N6/Drivers/STM32N6xx_HAL_Driver/Src/stm32n6xx_hal_ltdc.c ****   /* Process unlocked */
1317:STM32Cube_FW_N6/Drivers/STM32N6xx_HAL_Driver/Src/stm32n6xx_hal_ltdc.c ****   __HAL_UNLOCK(hltdc);
 2411              		.loc 1 1317 3
 2412 007e 7B68     		ldr	r3, [r7, #4]
 2413 0080 0022     		movs	r2, #0
 2414 0082 83F8A020 		strb	r2, [r3, #160]
1318:STM32Cube_FW_N6/Drivers/STM32N6xx_HAL_Driver/Src/stm32n6xx_hal_ltdc.c **** 
1319:STM32Cube_FW_N6/Drivers/STM32N6xx_HAL_Driver/Src/stm32n6xx_hal_ltdc.c ****   return HAL_OK;
 2415              		.loc 1 1319 10
 2416 0086 0023     		movs	r3, #0
 2417              	.L109:
1320:STM32Cube_FW_N6/Drivers/STM32N6xx_HAL_Driver/Src/stm32n6xx_hal_ltdc.c **** }
 2418              		.loc 1 1320 1
 2419 0088 1846     		mov	r0, r3
 2420 008a 0837     		adds	r7, r7, #8
ARM GAS  /tmp/ccM4Rtv8.s 			page 67


 2421              		.cfi_def_cfa_offset 8
 2422 008c BD46     		mov	sp, r7
 2423              		.cfi_def_cfa_register 13
 2424              		@ sp needed
 2425 008e 80BD     		pop	{r7, pc}
 2426              	.L111:
 2427              		.align	2
 2428              	.L110:
 2429 0090 00000000 		.word	.LC0
 2430              		.cfi_endproc
 2431              	.LFE851:
 2433              		.section	.text.HAL_LTDC_EnableCLUT,"ax",%progbits
 2434              		.align	1
 2435              		.global	HAL_LTDC_EnableCLUT
 2436              		.syntax unified
 2437              		.thumb
 2438              		.thumb_func
 2440              	HAL_LTDC_EnableCLUT:
 2441              	.LFB852:
1321:STM32Cube_FW_N6/Drivers/STM32N6xx_HAL_Driver/Src/stm32n6xx_hal_ltdc.c **** 
1322:STM32Cube_FW_N6/Drivers/STM32N6xx_HAL_Driver/Src/stm32n6xx_hal_ltdc.c **** /**
1323:STM32Cube_FW_N6/Drivers/STM32N6xx_HAL_Driver/Src/stm32n6xx_hal_ltdc.c ****   * @brief  Enable the color lookup table.
1324:STM32Cube_FW_N6/Drivers/STM32N6xx_HAL_Driver/Src/stm32n6xx_hal_ltdc.c ****   * @param  hltdc     pointer to a LTDC_HandleTypeDef structure that contains
1325:STM32Cube_FW_N6/Drivers/STM32N6xx_HAL_Driver/Src/stm32n6xx_hal_ltdc.c ****   *                   the configuration information for the LTDC.
1326:STM32Cube_FW_N6/Drivers/STM32N6xx_HAL_Driver/Src/stm32n6xx_hal_ltdc.c ****   * @param  LayerIdx  LTDC Layer index.
1327:STM32Cube_FW_N6/Drivers/STM32N6xx_HAL_Driver/Src/stm32n6xx_hal_ltdc.c ****   *                   This parameter can be one of the following values:
1328:STM32Cube_FW_N6/Drivers/STM32N6xx_HAL_Driver/Src/stm32n6xx_hal_ltdc.c ****   *                   LTDC_LAYER_1 (0) or LTDC_LAYER_2 (1)
1329:STM32Cube_FW_N6/Drivers/STM32N6xx_HAL_Driver/Src/stm32n6xx_hal_ltdc.c ****   * @retval  HAL status
