ARM GAS  /tmp/ccRTEIeG.s 			page 1


   1              		.arch armv8.1-m.main
   2              		.fpu fpv5-d16
   3              		.arch_extension dsp
   4              		.arch_extension fp
   5              		.arch_extension fp.dp
   6              		.arch_extension mve
   7              		.arch_extension mve.fp
   8              		.eabi_attribute 5, "cortex-m55"
   9              		.eabi_attribute 28, 1
  10              		.eabi_attribute 20, 1
  11              		.eabi_attribute 21, 1
  12              		.eabi_attribute 23, 3
  13              		.eabi_attribute 24, 1
  14              		.eabi_attribute 25, 1
  15              		.eabi_attribute 26, 1
  16              		.eabi_attribute 30, 6
  17              		.eabi_attribute 34, 1
  18              		.eabi_attribute 38, 1
  19              		.eabi_attribute 18, 4
  20              		.file	"stm32n6xx_hal_rif.c"
  21              		.text
  22              	.Ltext0:
  23              		.cfi_sections	.debug_frame
  24              		.file 1 "STM32Cube_FW_N6/Drivers/STM32N6xx_HAL_Driver/Src/stm32n6xx_hal_rif.c"
  25              		.section	.text.HAL_RIF_RIMC_Lock,"ax",%progbits
  26              		.align	1
  27              		.global	HAL_RIF_RIMC_Lock
  28              		.syntax unified
  29              		.thumb
  30              		.thumb_func
  32              	HAL_RIF_RIMC_Lock:
  33              	.LFB835:
   1:STM32Cube_FW_N6/Drivers/STM32N6xx_HAL_Driver/Src/stm32n6xx_hal_rif.c **** /**
   2:STM32Cube_FW_N6/Drivers/STM32N6xx_HAL_Driver/Src/stm32n6xx_hal_rif.c ****   ******************************************************************************
   3:STM32Cube_FW_N6/Drivers/STM32N6xx_HAL_Driver/Src/stm32n6xx_hal_rif.c ****   * @file    stm32n6xx_hal_rif.c
   4:STM32Cube_FW_N6/Drivers/STM32N6xx_HAL_Driver/Src/stm32n6xx_hal_rif.c ****   * @author  MCD Application Team
   5:STM32Cube_FW_N6/Drivers/STM32N6xx_HAL_Driver/Src/stm32n6xx_hal_rif.c ****   * @brief   RIF HAL module driver.
   6:STM32Cube_FW_N6/Drivers/STM32N6xx_HAL_Driver/Src/stm32n6xx_hal_rif.c ****   *          This file provides firmware functions to manage the following
   7:STM32Cube_FW_N6/Drivers/STM32N6xx_HAL_Driver/Src/stm32n6xx_hal_rif.c ****   *          functionalities of the Resource Isolation Framework (RIF) peripheral:
   8:STM32Cube_FW_N6/Drivers/STM32N6xx_HAL_Driver/Src/stm32n6xx_hal_rif.c ****   *           + Initialization and de-initialization functions
   9:STM32Cube_FW_N6/Drivers/STM32N6xx_HAL_Driver/Src/stm32n6xx_hal_rif.c ****   *           + Peripheral Control functions
  10:STM32Cube_FW_N6/Drivers/STM32N6xx_HAL_Driver/Src/stm32n6xx_hal_rif.c ****   *
  11:STM32Cube_FW_N6/Drivers/STM32N6xx_HAL_Driver/Src/stm32n6xx_hal_rif.c ****   ******************************************************************************
  12:STM32Cube_FW_N6/Drivers/STM32N6xx_HAL_Driver/Src/stm32n6xx_hal_rif.c ****   * @attention
  13:STM32Cube_FW_N6/Drivers/STM32N6xx_HAL_Driver/Src/stm32n6xx_hal_rif.c ****   *
  14:STM32Cube_FW_N6/Drivers/STM32N6xx_HAL_Driver/Src/stm32n6xx_hal_rif.c ****   * Copyright (c) 2023 STMicroelectronics.
  15:STM32Cube_FW_N6/Drivers/STM32N6xx_HAL_Driver/Src/stm32n6xx_hal_rif.c ****   * All rights reserved.
  16:STM32Cube_FW_N6/Drivers/STM32N6xx_HAL_Driver/Src/stm32n6xx_hal_rif.c ****   *
  17:STM32Cube_FW_N6/Drivers/STM32N6xx_HAL_Driver/Src/stm32n6xx_hal_rif.c ****   * This software is licensed under terms that can be found in the LICENSE file
  18:STM32Cube_FW_N6/Drivers/STM32N6xx_HAL_Driver/Src/stm32n6xx_hal_rif.c ****   * in the root directory of this software component.
  19:STM32Cube_FW_N6/Drivers/STM32N6xx_HAL_Driver/Src/stm32n6xx_hal_rif.c ****   * If no LICENSE file comes with this software, it is provided AS-IS.
  20:STM32Cube_FW_N6/Drivers/STM32N6xx_HAL_Driver/Src/stm32n6xx_hal_rif.c ****   *
  21:STM32Cube_FW_N6/Drivers/STM32N6xx_HAL_Driver/Src/stm32n6xx_hal_rif.c ****   ******************************************************************************
  22:STM32Cube_FW_N6/Drivers/STM32N6xx_HAL_Driver/Src/stm32n6xx_hal_rif.c ****   @verbatim
  23:STM32Cube_FW_N6/Drivers/STM32N6xx_HAL_Driver/Src/stm32n6xx_hal_rif.c ****   ==============================================================================
  24:STM32Cube_FW_N6/Drivers/STM32N6xx_HAL_Driver/Src/stm32n6xx_hal_rif.c ****                 ##### RIF main features #####
  25:STM32Cube_FW_N6/Drivers/STM32N6xx_HAL_Driver/Src/stm32n6xx_hal_rif.c ****   ==============================================================================
ARM GAS  /tmp/ccRTEIeG.s 			page 2


  26:STM32Cube_FW_N6/Drivers/STM32N6xx_HAL_Driver/Src/stm32n6xx_hal_rif.c ****   [..]
  27:STM32Cube_FW_N6/Drivers/STM32N6xx_HAL_Driver/Src/stm32n6xx_hal_rif.c ****     (+) Resource Isolation framework (RIF) is a comprehensive set of hardware
  28:STM32Cube_FW_N6/Drivers/STM32N6xx_HAL_Driver/Src/stm32n6xx_hal_rif.c ****     blocks designed to enforce and manage isolation of STM32 hardware resources
  29:STM32Cube_FW_N6/Drivers/STM32N6xx_HAL_Driver/Src/stm32n6xx_hal_rif.c ****     like memory and peripherals.
  30:STM32Cube_FW_N6/Drivers/STM32N6xx_HAL_Driver/Src/stm32n6xx_hal_rif.c **** 
  31:STM32Cube_FW_N6/Drivers/STM32N6xx_HAL_Driver/Src/stm32n6xx_hal_rif.c ****     (+) Resource Isolation Framework (RIF) composed of the following sub-blocks:
  32:STM32Cube_FW_N6/Drivers/STM32N6xx_HAL_Driver/Src/stm32n6xx_hal_rif.c ****       (++) RIMC:  Resource Isolation Master Controller
  33:STM32Cube_FW_N6/Drivers/STM32N6xx_HAL_Driver/Src/stm32n6xx_hal_rif.c ****                   This sub-block assigns all non RIF-aware bus master to one
  34:STM32Cube_FW_N6/Drivers/STM32N6xx_HAL_Driver/Src/stm32n6xx_hal_rif.c ****                   security domain by setting secure, privileged and compartment
  35:STM32Cube_FW_N6/Drivers/STM32N6xx_HAL_Driver/Src/stm32n6xx_hal_rif.c ****                   information on the system bus.
  36:STM32Cube_FW_N6/Drivers/STM32N6xx_HAL_Driver/Src/stm32n6xx_hal_rif.c ****                   Note that if non-secure software is permitted to configure one of
  37:STM32Cube_FW_N6/Drivers/STM32N6xx_HAL_Driver/Src/stm32n6xx_hal_rif.c ****                   these peripherals, then this setting is ignored and all accesses
  38:STM32Cube_FW_N6/Drivers/STM32N6xx_HAL_Driver/Src/stm32n6xx_hal_rif.c ****                   initiated by the peripheral are forced to be non-secure.
  39:STM32Cube_FW_N6/Drivers/STM32N6xx_HAL_Driver/Src/stm32n6xx_hal_rif.c ****       (++) RISC:  Resource Isolation Slave Controller
  40:STM32Cube_FW_N6/Drivers/STM32N6xx_HAL_Driver/Src/stm32n6xx_hal_rif.c ****                   This sub-block assigns all non-RIF aware peripherals to zero,
  41:STM32Cube_FW_N6/Drivers/STM32N6xx_HAL_Driver/Src/stm32n6xx_hal_rif.c ****                   one or any security domains (secure, privilege, compartment).
  42:STM32Cube_FW_N6/Drivers/STM32N6xx_HAL_Driver/Src/stm32n6xx_hal_rif.c ****       (++) RISAF: Resource Isolation Slave unit for Address space (Full version)
  43:STM32Cube_FW_N6/Drivers/STM32N6xx_HAL_Driver/Src/stm32n6xx_hal_rif.c ****                   This sub-block assigns memory regions and subregions to one or
  44:STM32Cube_FW_N6/Drivers/STM32N6xx_HAL_Driver/Src/stm32n6xx_hal_rif.c ****                   more security domains (secure, privilege, compartment).
  45:STM32Cube_FW_N6/Drivers/STM32N6xx_HAL_Driver/Src/stm32n6xx_hal_rif.c ****       (++) IAC:   Illegal Access Controller
  46:STM32Cube_FW_N6/Drivers/STM32N6xx_HAL_Driver/Src/stm32n6xx_hal_rif.c ****                   This sub-block centralizes detection of RIF-related accesses,
  47:STM32Cube_FW_N6/Drivers/STM32N6xx_HAL_Driver/Src/stm32n6xx_hal_rif.c ****                   managed by a secure application. Supported illegal accesses are:
  48:STM32Cube_FW_N6/Drivers/STM32N6xx_HAL_Driver/Src/stm32n6xx_hal_rif.c ****                   secure, privileged.
  49:STM32Cube_FW_N6/Drivers/STM32N6xx_HAL_Driver/Src/stm32n6xx_hal_rif.c **** 
  50:STM32Cube_FW_N6/Drivers/STM32N6xx_HAL_Driver/Src/stm32n6xx_hal_rif.c ****   [..]
  51:STM32Cube_FW_N6/Drivers/STM32N6xx_HAL_Driver/Src/stm32n6xx_hal_rif.c ****     (+) All the setter functions are protected under the CPU_AS_TRUSTED_DOMAIN
  52:STM32Cube_FW_N6/Drivers/STM32N6xx_HAL_Driver/Src/stm32n6xx_hal_rif.c ****         directive.
  53:STM32Cube_FW_N6/Drivers/STM32N6xx_HAL_Driver/Src/stm32n6xx_hal_rif.c ****         It ensures that only the trusted domain can manage the critical
  54:STM32Cube_FW_N6/Drivers/STM32N6xx_HAL_Driver/Src/stm32n6xx_hal_rif.c ****         configurations of the RIF.
  55:STM32Cube_FW_N6/Drivers/STM32N6xx_HAL_Driver/Src/stm32n6xx_hal_rif.c ****         This directive is defined in the CMSIS file.
  56:STM32Cube_FW_N6/Drivers/STM32N6xx_HAL_Driver/Src/stm32n6xx_hal_rif.c **** 
  57:STM32Cube_FW_N6/Drivers/STM32N6xx_HAL_Driver/Src/stm32n6xx_hal_rif.c ****  ===============================================================================
  58:STM32Cube_FW_N6/Drivers/STM32N6xx_HAL_Driver/Src/stm32n6xx_hal_rif.c ****                      ##### How to use this driver #####
  59:STM32Cube_FW_N6/Drivers/STM32N6xx_HAL_Driver/Src/stm32n6xx_hal_rif.c ****  ===============================================================================
  60:STM32Cube_FW_N6/Drivers/STM32N6xx_HAL_Driver/Src/stm32n6xx_hal_rif.c ****   [..]
  61:STM32Cube_FW_N6/Drivers/STM32N6xx_HAL_Driver/Src/stm32n6xx_hal_rif.c ****     *** Locking RIF components configuration ***
  62:STM32Cube_FW_N6/Drivers/STM32N6xx_HAL_Driver/Src/stm32n6xx_hal_rif.c ****     ============================================================
  63:STM32Cube_FW_N6/Drivers/STM32N6xx_HAL_Driver/Src/stm32n6xx_hal_rif.c ****     [..]
  64:STM32Cube_FW_N6/Drivers/STM32N6xx_HAL_Driver/Src/stm32n6xx_hal_rif.c ****     (#) Lock and get the lock configuration of RIMC registers until next reset
  65:STM32Cube_FW_N6/Drivers/STM32N6xx_HAL_Driver/Src/stm32n6xx_hal_rif.c ****         with HAL_RIF_RIMC_Lock / HAL_RIF_RIMC_GetLock.
  66:STM32Cube_FW_N6/Drivers/STM32N6xx_HAL_Driver/Src/stm32n6xx_hal_rif.c ****     (#) Lock and get the lock configuration of RISC registers until next reset
  67:STM32Cube_FW_N6/Drivers/STM32N6xx_HAL_Driver/Src/stm32n6xx_hal_rif.c ****         with HAL_RIF_RISC_Lock / HAL_RIF_RISC_GetLock.
  68:STM32Cube_FW_N6/Drivers/STM32N6xx_HAL_Driver/Src/stm32n6xx_hal_rif.c ****     (#) Lock and get the lock configuration of slave resources registers until
  69:STM32Cube_FW_N6/Drivers/STM32N6xx_HAL_Driver/Src/stm32n6xx_hal_rif.c ****         next reset with HAL_RIF_RISC_SlaveConfigLock / HAL_RIF_RISC_GetSlaveConfigLock.
  70:STM32Cube_FW_N6/Drivers/STM32N6xx_HAL_Driver/Src/stm32n6xx_hal_rif.c ****     (#) Lock and get the lock configuration of RISAF registers until next reset
  71:STM32Cube_FW_N6/Drivers/STM32N6xx_HAL_Driver/Src/stm32n6xx_hal_rif.c ****         with HAL_RIF_RISAF_Lock / HAL_RIF_RISAF_GetLock.
  72:STM32Cube_FW_N6/Drivers/STM32N6xx_HAL_Driver/Src/stm32n6xx_hal_rif.c **** 
  73:STM32Cube_FW_N6/Drivers/STM32N6xx_HAL_Driver/Src/stm32n6xx_hal_rif.c ****     *** Context-related functions ***
  74:STM32Cube_FW_N6/Drivers/STM32N6xx_HAL_Driver/Src/stm32n6xx_hal_rif.c ****     ============================================================
  75:STM32Cube_FW_N6/Drivers/STM32N6xx_HAL_Driver/Src/stm32n6xx_hal_rif.c ****     [..]
  76:STM32Cube_FW_N6/Drivers/STM32N6xx_HAL_Driver/Src/stm32n6xx_hal_rif.c ****     (#) Set or get Debugger Access Port Compartment ID with HAL_RIF_RIMC_SetDebugAccessPortCID /
  77:STM32Cube_FW_N6/Drivers/STM32N6xx_HAL_Driver/Src/stm32n6xx_hal_rif.c ****         HAL_RIF_RIMC_GetDebugAccessPortCID functions.
  78:STM32Cube_FW_N6/Drivers/STM32N6xx_HAL_Driver/Src/stm32n6xx_hal_rif.c ****     (#) Check the Debug Domain and Global Debug Domain status with
  79:STM32Cube_FW_N6/Drivers/STM32N6xx_HAL_Driver/Src/stm32n6xx_hal_rif.c ****         HAL_RIF_RIMC_GetDebugStatus.
  80:STM32Cube_FW_N6/Drivers/STM32N6xx_HAL_Driver/Src/stm32n6xx_hal_rif.c **** 
  81:STM32Cube_FW_N6/Drivers/STM32N6xx_HAL_Driver/Src/stm32n6xx_hal_rif.c **** #if defined(GENERATOR_RIF_FEATURE_ENCRYPTION_IMPLEMENTED)
  82:STM32Cube_FW_N6/Drivers/STM32N6xx_HAL_Driver/Src/stm32n6xx_hal_rif.c ****     *** Encryption-related functions ***
ARM GAS  /tmp/ccRTEIeG.s 			page 3


  83:STM32Cube_FW_N6/Drivers/STM32N6xx_HAL_Driver/Src/stm32n6xx_hal_rif.c ****     ============================================================
  84:STM32Cube_FW_N6/Drivers/STM32N6xx_HAL_Driver/Src/stm32n6xx_hal_rif.c ****     [..]
  85:STM32Cube_FW_N6/Drivers/STM32N6xx_HAL_Driver/Src/stm32n6xx_hal_rif.c ****     (#) Read of write RISAF encryption keys and related flags.
  86:STM32Cube_FW_N6/Drivers/STM32N6xx_HAL_Driver/Src/stm32n6xx_hal_rif.c **** 
  87:STM32Cube_FW_N6/Drivers/STM32N6xx_HAL_Driver/Src/stm32n6xx_hal_rif.c **** #endif
  88:STM32Cube_FW_N6/Drivers/STM32N6xx_HAL_Driver/Src/stm32n6xx_hal_rif.c ****      *** Configuration of master-related attributes ***
  89:STM32Cube_FW_N6/Drivers/STM32N6xx_HAL_Driver/Src/stm32n6xx_hal_rif.c ****     ============================================================
  90:STM32Cube_FW_N6/Drivers/STM32N6xx_HAL_Driver/Src/stm32n6xx_hal_rif.c ****     [..]
  91:STM32Cube_FW_N6/Drivers/STM32N6xx_HAL_Driver/Src/stm32n6xx_hal_rif.c ****     (#) Set or get the secure, privilege and compartment configuration of a
  92:STM32Cube_FW_N6/Drivers/STM32N6xx_HAL_Driver/Src/stm32n6xx_hal_rif.c ****         bus master thanks to the HAL_RIF_RIMC_ConfigMasterAttributes /
  93:STM32Cube_FW_N6/Drivers/STM32N6xx_HAL_Driver/Src/stm32n6xx_hal_rif.c ****         HAL_RIF_RIMC_GetConfigMasterAttributes functions.
  94:STM32Cube_FW_N6/Drivers/STM32N6xx_HAL_Driver/Src/stm32n6xx_hal_rif.c ****     (#) Lock and get lock status the bus master attributes configuration until
  95:STM32Cube_FW_N6/Drivers/STM32N6xx_HAL_Driver/Src/stm32n6xx_hal_rif.c ****         next system reset using HAL_RIF_RIMC_Lock.
  96:STM32Cube_FW_N6/Drivers/STM32N6xx_HAL_Driver/Src/stm32n6xx_hal_rif.c **** 
  97:STM32Cube_FW_N6/Drivers/STM32N6xx_HAL_Driver/Src/stm32n6xx_hal_rif.c ****      *** Configuration of slave-related attributes ***
  98:STM32Cube_FW_N6/Drivers/STM32N6xx_HAL_Driver/Src/stm32n6xx_hal_rif.c ****     ============================================================
  99:STM32Cube_FW_N6/Drivers/STM32N6xx_HAL_Driver/Src/stm32n6xx_hal_rif.c ****     [..]
 100:STM32Cube_FW_N6/Drivers/STM32N6xx_HAL_Driver/Src/stm32n6xx_hal_rif.c ****     (#) Set or get the secure and privilege configuration of a bus slave
 101:STM32Cube_FW_N6/Drivers/STM32N6xx_HAL_Driver/Src/stm32n6xx_hal_rif.c ****         thanks to the HAL_RIF_RISC_SetSlaveSecureAttributes /
 102:STM32Cube_FW_N6/Drivers/STM32N6xx_HAL_Driver/Src/stm32n6xx_hal_rif.c ****         HAL_RIF_RISC_GetSlaveSecureAttributes functions.
 103:STM32Cube_FW_N6/Drivers/STM32N6xx_HAL_Driver/Src/stm32n6xx_hal_rif.c ****     (#) Lock and get lock status each bus slave attributes configuration using
 104:STM32Cube_FW_N6/Drivers/STM32N6xx_HAL_Driver/Src/stm32n6xx_hal_rif.c ****         HAL_RIF_RISC_SlaveConfigLock or lock the whole RISC configuration with
 105:STM32Cube_FW_N6/Drivers/STM32N6xx_HAL_Driver/Src/stm32n6xx_hal_rif.c ****         HAL_RIF_RISC_Lock until next system reset.
 106:STM32Cube_FW_N6/Drivers/STM32N6xx_HAL_Driver/Src/stm32n6xx_hal_rif.c **** 
 107:STM32Cube_FW_N6/Drivers/STM32N6xx_HAL_Driver/Src/stm32n6xx_hal_rif.c ****      *** Configuration of RISAF attributes ***
 108:STM32Cube_FW_N6/Drivers/STM32N6xx_HAL_Driver/Src/stm32n6xx_hal_rif.c ****     ============================================================
 109:STM32Cube_FW_N6/Drivers/STM32N6xx_HAL_Driver/Src/stm32n6xx_hal_rif.c ****     [..]
 110:STM32Cube_FW_N6/Drivers/STM32N6xx_HAL_Driver/Src/stm32n6xx_hal_rif.c ****     (#) Set or get a base region configuration with HAL_RIF_RISAF_ConfigBaseRegion /
 111:STM32Cube_FW_N6/Drivers/STM32N6xx_HAL_Driver/Src/stm32n6xx_hal_rif.c ****         HAL_RIF_RISAF_GetConfigBaseRegion.
 112:STM32Cube_FW_N6/Drivers/STM32N6xx_HAL_Driver/Src/stm32n6xx_hal_rif.c ****     (#) Set or get a subregion configuration with HAL_RIF_RISAF_ConfigSubRegion /
 113:STM32Cube_FW_N6/Drivers/STM32N6xx_HAL_Driver/Src/stm32n6xx_hal_rif.c ****         HAL_RIF_RISAF_GetConfigSubRegion.
 114:STM32Cube_FW_N6/Drivers/STM32N6xx_HAL_Driver/Src/stm32n6xx_hal_rif.c ****     (#) Delegate a subregion configuration to another CID with HAL_RIF_RISAF_ConfigSubRegionDelegat
 115:STM32Cube_FW_N6/Drivers/STM32N6xx_HAL_Driver/Src/stm32n6xx_hal_rif.c ****     (#) Get the data from an illegal access to a protected memory region with
 116:STM32Cube_FW_N6/Drivers/STM32N6xx_HAL_Driver/Src/stm32n6xx_hal_rif.c ****         HAL_RIF_RISAF_GetIllegalAccess.
 117:STM32Cube_FW_N6/Drivers/STM32N6xx_HAL_Driver/Src/stm32n6xx_hal_rif.c **** 
 118:STM32Cube_FW_N6/Drivers/STM32N6xx_HAL_Driver/Src/stm32n6xx_hal_rif.c ****      *** IAC related functions ***
 119:STM32Cube_FW_N6/Drivers/STM32N6xx_HAL_Driver/Src/stm32n6xx_hal_rif.c ****     ============================================================
 120:STM32Cube_FW_N6/Drivers/STM32N6xx_HAL_Driver/Src/stm32n6xx_hal_rif.c ****     [..]
 121:STM32Cube_FW_N6/Drivers/STM32N6xx_HAL_Driver/Src/stm32n6xx_hal_rif.c ****     (#) Enable or disable peripheral illegal access detection with HAL_RIF_IAC_EnableIT /
 122:STM32Cube_FW_N6/Drivers/STM32N6xx_HAL_Driver/Src/stm32n6xx_hal_rif.c ****         HAL_RIF_IAC_DisableIT.
 123:STM32Cube_FW_N6/Drivers/STM32N6xx_HAL_Driver/Src/stm32n6xx_hal_rif.c ****     (#) Retrieve an illegal access flag from a designated peripheral with HAL_RIF_IAC_GetFlag
 124:STM32Cube_FW_N6/Drivers/STM32N6xx_HAL_Driver/Src/stm32n6xx_hal_rif.c ****         or clear it with HAL_RIF_IAC_ClearFlag.
 125:STM32Cube_FW_N6/Drivers/STM32N6xx_HAL_Driver/Src/stm32n6xx_hal_rif.c ****     (#) Illegal access interrupt service routines are served by HAL_RIF_IRQHandler()
 126:STM32Cube_FW_N6/Drivers/STM32N6xx_HAL_Driver/Src/stm32n6xx_hal_rif.c ****         and user can add his own code using HAL_RIF_ILA_Callback().
 127:STM32Cube_FW_N6/Drivers/STM32N6xx_HAL_Driver/Src/stm32n6xx_hal_rif.c **** 
 128:STM32Cube_FW_N6/Drivers/STM32N6xx_HAL_Driver/Src/stm32n6xx_hal_rif.c ****   @endverbatim
 129:STM32Cube_FW_N6/Drivers/STM32N6xx_HAL_Driver/Src/stm32n6xx_hal_rif.c ****   ******************************************************************************
 130:STM32Cube_FW_N6/Drivers/STM32N6xx_HAL_Driver/Src/stm32n6xx_hal_rif.c ****   */
 131:STM32Cube_FW_N6/Drivers/STM32N6xx_HAL_Driver/Src/stm32n6xx_hal_rif.c **** 
 132:STM32Cube_FW_N6/Drivers/STM32N6xx_HAL_Driver/Src/stm32n6xx_hal_rif.c **** /* Includes ------------------------------------------------------------------*/
 133:STM32Cube_FW_N6/Drivers/STM32N6xx_HAL_Driver/Src/stm32n6xx_hal_rif.c **** #include "stm32n6xx_hal.h"
 134:STM32Cube_FW_N6/Drivers/STM32N6xx_HAL_Driver/Src/stm32n6xx_hal_rif.c **** 
 135:STM32Cube_FW_N6/Drivers/STM32N6xx_HAL_Driver/Src/stm32n6xx_hal_rif.c **** /** @addtogroup STM32N6xx_HAL_Driver
 136:STM32Cube_FW_N6/Drivers/STM32N6xx_HAL_Driver/Src/stm32n6xx_hal_rif.c ****   * @{
 137:STM32Cube_FW_N6/Drivers/STM32N6xx_HAL_Driver/Src/stm32n6xx_hal_rif.c ****   */
 138:STM32Cube_FW_N6/Drivers/STM32N6xx_HAL_Driver/Src/stm32n6xx_hal_rif.c **** 
 139:STM32Cube_FW_N6/Drivers/STM32N6xx_HAL_Driver/Src/stm32n6xx_hal_rif.c **** /** @defgroup RIF RIF
ARM GAS  /tmp/ccRTEIeG.s 			page 4


 140:STM32Cube_FW_N6/Drivers/STM32N6xx_HAL_Driver/Src/stm32n6xx_hal_rif.c ****   * @brief RIF HAL module driver.
 141:STM32Cube_FW_N6/Drivers/STM32N6xx_HAL_Driver/Src/stm32n6xx_hal_rif.c ****   * @{
 142:STM32Cube_FW_N6/Drivers/STM32N6xx_HAL_Driver/Src/stm32n6xx_hal_rif.c ****   */
 143:STM32Cube_FW_N6/Drivers/STM32N6xx_HAL_Driver/Src/stm32n6xx_hal_rif.c **** 
 144:STM32Cube_FW_N6/Drivers/STM32N6xx_HAL_Driver/Src/stm32n6xx_hal_rif.c **** #ifdef HAL_RIF_MODULE_ENABLED
 145:STM32Cube_FW_N6/Drivers/STM32N6xx_HAL_Driver/Src/stm32n6xx_hal_rif.c **** 
 146:STM32Cube_FW_N6/Drivers/STM32N6xx_HAL_Driver/Src/stm32n6xx_hal_rif.c **** /* Private typedef -----------------------------------------------------------*/
 147:STM32Cube_FW_N6/Drivers/STM32N6xx_HAL_Driver/Src/stm32n6xx_hal_rif.c **** /* Private defines ------------------------------------------------------------*/
 148:STM32Cube_FW_N6/Drivers/STM32N6xx_HAL_Driver/Src/stm32n6xx_hal_rif.c **** /** @addtogroup RIF_Private_Defines RIF Private Defines
 149:STM32Cube_FW_N6/Drivers/STM32N6xx_HAL_Driver/Src/stm32n6xx_hal_rif.c ****   * @{
 150:STM32Cube_FW_N6/Drivers/STM32N6xx_HAL_Driver/Src/stm32n6xx_hal_rif.c ****   */
 151:STM32Cube_FW_N6/Drivers/STM32N6xx_HAL_Driver/Src/stm32n6xx_hal_rif.c **** #define RIF_PERIPH_IAC_REG_MAX             4U
 152:STM32Cube_FW_N6/Drivers/STM32N6xx_HAL_Driver/Src/stm32n6xx_hal_rif.c **** /**
 153:STM32Cube_FW_N6/Drivers/STM32N6xx_HAL_Driver/Src/stm32n6xx_hal_rif.c ****   * @}
 154:STM32Cube_FW_N6/Drivers/STM32N6xx_HAL_Driver/Src/stm32n6xx_hal_rif.c ****   */
 155:STM32Cube_FW_N6/Drivers/STM32N6xx_HAL_Driver/Src/stm32n6xx_hal_rif.c **** 
 156:STM32Cube_FW_N6/Drivers/STM32N6xx_HAL_Driver/Src/stm32n6xx_hal_rif.c **** /* Private macro -------------------------------------------------------------*/
 157:STM32Cube_FW_N6/Drivers/STM32N6xx_HAL_Driver/Src/stm32n6xx_hal_rif.c **** /* Private variables ---------------------------------------------------------*/
 158:STM32Cube_FW_N6/Drivers/STM32N6xx_HAL_Driver/Src/stm32n6xx_hal_rif.c **** /* Private function prototypes -----------------------------------------------*/
 159:STM32Cube_FW_N6/Drivers/STM32N6xx_HAL_Driver/Src/stm32n6xx_hal_rif.c **** /* Exported functions --------------------------------------------------------*/
 160:STM32Cube_FW_N6/Drivers/STM32N6xx_HAL_Driver/Src/stm32n6xx_hal_rif.c **** 
 161:STM32Cube_FW_N6/Drivers/STM32N6xx_HAL_Driver/Src/stm32n6xx_hal_rif.c **** /** @defgroup RIF_Exported_Functions RIF Exported Functions
 162:STM32Cube_FW_N6/Drivers/STM32N6xx_HAL_Driver/Src/stm32n6xx_hal_rif.c ****   *  @{
 163:STM32Cube_FW_N6/Drivers/STM32N6xx_HAL_Driver/Src/stm32n6xx_hal_rif.c ****   */
 164:STM32Cube_FW_N6/Drivers/STM32N6xx_HAL_Driver/Src/stm32n6xx_hal_rif.c **** 
 165:STM32Cube_FW_N6/Drivers/STM32N6xx_HAL_Driver/Src/stm32n6xx_hal_rif.c **** /** @defgroup RIF_Exported_Functions_Group1  RIMC Configuration functions
 166:STM32Cube_FW_N6/Drivers/STM32N6xx_HAL_Driver/Src/stm32n6xx_hal_rif.c ****   *  @brief    RIMC Configuration functions
 167:STM32Cube_FW_N6/Drivers/STM32N6xx_HAL_Driver/Src/stm32n6xx_hal_rif.c ****   *
 168:STM32Cube_FW_N6/Drivers/STM32N6xx_HAL_Driver/Src/stm32n6xx_hal_rif.c **** @verbatim
 169:STM32Cube_FW_N6/Drivers/STM32N6xx_HAL_Driver/Src/stm32n6xx_hal_rif.c ****   ==============================================================================
 170:STM32Cube_FW_N6/Drivers/STM32N6xx_HAL_Driver/Src/stm32n6xx_hal_rif.c ****             ##### RIMC Configuration functions #####
 171:STM32Cube_FW_N6/Drivers/STM32N6xx_HAL_Driver/Src/stm32n6xx_hal_rif.c ****   ==============================================================================
 172:STM32Cube_FW_N6/Drivers/STM32N6xx_HAL_Driver/Src/stm32n6xx_hal_rif.c ****   [..]
 173:STM32Cube_FW_N6/Drivers/STM32N6xx_HAL_Driver/Src/stm32n6xx_hal_rif.c ****     This section provides functions allowing to configure RIMC
 174:STM32Cube_FW_N6/Drivers/STM32N6xx_HAL_Driver/Src/stm32n6xx_hal_rif.c ****     RIMC is Resource Isolation Master Controller
 175:STM32Cube_FW_N6/Drivers/STM32N6xx_HAL_Driver/Src/stm32n6xx_hal_rif.c **** @endverbatim
 176:STM32Cube_FW_N6/Drivers/STM32N6xx_HAL_Driver/Src/stm32n6xx_hal_rif.c ****   * @{
 177:STM32Cube_FW_N6/Drivers/STM32N6xx_HAL_Driver/Src/stm32n6xx_hal_rif.c ****   */
 178:STM32Cube_FW_N6/Drivers/STM32N6xx_HAL_Driver/Src/stm32n6xx_hal_rif.c **** #if defined(CPU_AS_TRUSTED_DOMAIN) && defined(CPU_IN_SECURE_STATE)
 179:STM32Cube_FW_N6/Drivers/STM32N6xx_HAL_Driver/Src/stm32n6xx_hal_rif.c **** /**
 180:STM32Cube_FW_N6/Drivers/STM32N6xx_HAL_Driver/Src/stm32n6xx_hal_rif.c ****   * @brief  Lock overall configuration of RIMC.
 181:STM32Cube_FW_N6/Drivers/STM32N6xx_HAL_Driver/Src/stm32n6xx_hal_rif.c ****   * @note   Once set, the overall configuration of RIMC cannot be modified
 182:STM32Cube_FW_N6/Drivers/STM32N6xx_HAL_Driver/Src/stm32n6xx_hal_rif.c ****   *         upon next system reset.
 183:STM32Cube_FW_N6/Drivers/STM32N6xx_HAL_Driver/Src/stm32n6xx_hal_rif.c ****   * @note   This API is protected by the Trusted Domain compilation directive.
 184:STM32Cube_FW_N6/Drivers/STM32N6xx_HAL_Driver/Src/stm32n6xx_hal_rif.c ****   * @note   This API is protected by the TrustZone Enabled compilation directive.
 185:STM32Cube_FW_N6/Drivers/STM32N6xx_HAL_Driver/Src/stm32n6xx_hal_rif.c ****   * @retval None
 186:STM32Cube_FW_N6/Drivers/STM32N6xx_HAL_Driver/Src/stm32n6xx_hal_rif.c ****   */
 187:STM32Cube_FW_N6/Drivers/STM32N6xx_HAL_Driver/Src/stm32n6xx_hal_rif.c **** void HAL_RIF_RIMC_Lock(void)
 188:STM32Cube_FW_N6/Drivers/STM32N6xx_HAL_Driver/Src/stm32n6xx_hal_rif.c **** {
  34              		.loc 1 188 1
  35              		.cfi_startproc
  36              		@ args = 0, pretend = 0, frame = 0
  37              		@ frame_needed = 1, uses_anonymous_args = 0
  38              		@ link register save eliminated.
  39 0000 80B4     		push	{r7}
  40              		.cfi_def_cfa_offset 4
  41              		.cfi_offset 7, -4
ARM GAS  /tmp/ccRTEIeG.s 			page 5


  42 0002 00AF     		add	r7, sp, #0
  43              		.cfi_def_cfa_register 7
 189:STM32Cube_FW_N6/Drivers/STM32N6xx_HAL_Driver/Src/stm32n6xx_hal_rif.c ****   /* Set RIMC Lock bit */
 190:STM32Cube_FW_N6/Drivers/STM32N6xx_HAL_Driver/Src/stm32n6xx_hal_rif.c ****   RIFSC->RIMC_CR |= RIFSC_RIMC_CR_GLOCK;
  44              		.loc 1 190 8
  45 0004 064B     		ldr	r3, .L2
  46 0006 D3F8003C 		ldr	r3, [r3, #3072]
  47 000a 054A     		ldr	r2, .L2
  48              		.loc 1 190 18
  49 000c 43F00103 		orr	r3, r3, #1
  50 0010 C2F8003C 		str	r3, [r2, #3072]
 191:STM32Cube_FW_N6/Drivers/STM32N6xx_HAL_Driver/Src/stm32n6xx_hal_rif.c **** }
  51              		.loc 1 191 1
  52 0014 00BF     		nop
  53 0016 BD46     		mov	sp, r7
  54              		.cfi_def_cfa_register 13
  55              		@ sp needed
  56 0018 5DF8047B 		ldr	r7, [sp], #4
  57              		.cfi_restore 7
  58              		.cfi_def_cfa_offset 0
  59 001c 7047     		bx	lr
  60              	.L3:
  61 001e 00BF     		.align	2
  62              	.L2:
  63 0020 00400254 		.word	1409433600
  64              		.cfi_endproc
  65              	.LFE835:
  67              		.section	.text.HAL_RIF_RIMC_GetLock,"ax",%progbits
  68              		.align	1
  69              		.global	HAL_RIF_RIMC_GetLock
  70              		.syntax unified
  71              		.thumb
  72              		.thumb_func
  74              	HAL_RIF_RIMC_GetLock:
  75              	.LFB836:
 192:STM32Cube_FW_N6/Drivers/STM32N6xx_HAL_Driver/Src/stm32n6xx_hal_rif.c **** #endif /* defined(CPU_AS_TRUSTED_DOMAIN) && defined(CPU_IN_SECURE_STATE) */
 193:STM32Cube_FW_N6/Drivers/STM32N6xx_HAL_Driver/Src/stm32n6xx_hal_rif.c **** 
 194:STM32Cube_FW_N6/Drivers/STM32N6xx_HAL_Driver/Src/stm32n6xx_hal_rif.c **** /**
 195:STM32Cube_FW_N6/Drivers/STM32N6xx_HAL_Driver/Src/stm32n6xx_hal_rif.c ****   * @brief  Get RIMC global lock status.
 196:STM32Cube_FW_N6/Drivers/STM32N6xx_HAL_Driver/Src/stm32n6xx_hal_rif.c ****   * @retval RIF_LOCK_ENABLE if RIMC configuration is locked, else RIF_LOCK_DISABLE
 197:STM32Cube_FW_N6/Drivers/STM32N6xx_HAL_Driver/Src/stm32n6xx_hal_rif.c ****   */
 198:STM32Cube_FW_N6/Drivers/STM32N6xx_HAL_Driver/Src/stm32n6xx_hal_rif.c **** uint32_t HAL_RIF_RIMC_GetLock(void)
 199:STM32Cube_FW_N6/Drivers/STM32N6xx_HAL_Driver/Src/stm32n6xx_hal_rif.c **** {
  76              		.loc 1 199 1
  77              		.cfi_startproc
  78              		@ args = 0, pretend = 0, frame = 8
  79              		@ frame_needed = 1, uses_anonymous_args = 0
  80              		@ link register save eliminated.
  81 0000 80B4     		push	{r7}
  82              		.cfi_def_cfa_offset 4
  83              		.cfi_offset 7, -4
  84 0002 83B0     		sub	sp, sp, #12
  85              		.cfi_def_cfa_offset 16
  86 0004 00AF     		add	r7, sp, #0
  87              		.cfi_def_cfa_register 7
 200:STM32Cube_FW_N6/Drivers/STM32N6xx_HAL_Driver/Src/stm32n6xx_hal_rif.c ****   uint32_t lock_status;
 201:STM32Cube_FW_N6/Drivers/STM32N6xx_HAL_Driver/Src/stm32n6xx_hal_rif.c **** 
ARM GAS  /tmp/ccRTEIeG.s 			page 6


 202:STM32Cube_FW_N6/Drivers/STM32N6xx_HAL_Driver/Src/stm32n6xx_hal_rif.c ****   /* Read RIMC lock bit */
 203:STM32Cube_FW_N6/Drivers/STM32N6xx_HAL_Driver/Src/stm32n6xx_hal_rif.c ****   lock_status = (RIFSC->RIMC_CR & RIF_LOCK_ENABLE);
  88              		.loc 1 203 23
  89 0006 064B     		ldr	r3, .L6
  90 0008 D3F8003C 		ldr	r3, [r3, #3072]
  91              		.loc 1 203 15
  92 000c 03F00103 		and	r3, r3, #1
  93 0010 7B60     		str	r3, [r7, #4]
 204:STM32Cube_FW_N6/Drivers/STM32N6xx_HAL_Driver/Src/stm32n6xx_hal_rif.c **** 
 205:STM32Cube_FW_N6/Drivers/STM32N6xx_HAL_Driver/Src/stm32n6xx_hal_rif.c ****   return lock_status;
  94              		.loc 1 205 10
  95 0012 7B68     		ldr	r3, [r7, #4]
 206:STM32Cube_FW_N6/Drivers/STM32N6xx_HAL_Driver/Src/stm32n6xx_hal_rif.c **** }
  96              		.loc 1 206 1
  97 0014 1846     		mov	r0, r3
  98 0016 0C37     		adds	r7, r7, #12
  99              		.cfi_def_cfa_offset 4
 100 0018 BD46     		mov	sp, r7
 101              		.cfi_def_cfa_register 13
 102              		@ sp needed
 103 001a 5DF8047B 		ldr	r7, [sp], #4
 104              		.cfi_restore 7
 105              		.cfi_def_cfa_offset 0
 106 001e 7047     		bx	lr
 107              	.L7:
 108              		.align	2
 109              	.L6:
 110 0020 00400254 		.word	1409433600
 111              		.cfi_endproc
 112              	.LFE836:
 114              		.section	.rodata
 115              		.align	2
 116              	.LC0:
 117 0000 53544D33 		.ascii	"STM32Cube_FW_N6/Drivers/STM32N6xx_HAL_Driver/Src/st"
 117      32437562 
 117      655F4657 
 117      5F4E362F 
 117      44726976 
 118 0033 6D33326E 		.ascii	"m32n6xx_hal_rif.c\000"
 118      3678785F 
 118      68616C5F 
 118      7269662E 
 118      6300
 119              		.section	.text.HAL_RIF_RIMC_SetDebugAccessPortCID,"ax",%progbits
 120              		.align	1
 121              		.global	HAL_RIF_RIMC_SetDebugAccessPortCID
 122              		.syntax unified
 123              		.thumb
 124              		.thumb_func
 126              	HAL_RIF_RIMC_SetDebugAccessPortCID:
 127              	.LFB837:
 207:STM32Cube_FW_N6/Drivers/STM32N6xx_HAL_Driver/Src/stm32n6xx_hal_rif.c **** 
 208:STM32Cube_FW_N6/Drivers/STM32N6xx_HAL_Driver/Src/stm32n6xx_hal_rif.c **** #if defined(CPU_AS_TRUSTED_DOMAIN) && defined(CPU_IN_SECURE_STATE)
 209:STM32Cube_FW_N6/Drivers/STM32N6xx_HAL_Driver/Src/stm32n6xx_hal_rif.c **** /**
 210:STM32Cube_FW_N6/Drivers/STM32N6xx_HAL_Driver/Src/stm32n6xx_hal_rif.c ****   * @brief  Change the Debugger Access Port ID
 211:STM32Cube_FW_N6/Drivers/STM32N6xx_HAL_Driver/Src/stm32n6xx_hal_rif.c ****   * @note   This API is protected by the Trusted Domain compilation directive.
 212:STM32Cube_FW_N6/Drivers/STM32N6xx_HAL_Driver/Src/stm32n6xx_hal_rif.c ****   * @note   This API is protected by the TrustZone Enabled compilation directive.
ARM GAS  /tmp/ccRTEIeG.s 			page 7


 213:STM32Cube_FW_N6/Drivers/STM32N6xx_HAL_Driver/Src/stm32n6xx_hal_rif.c ****   * @param  CID  specifies the Debugger Access Port CID
 214:STM32Cube_FW_N6/Drivers/STM32N6xx_HAL_Driver/Src/stm32n6xx_hal_rif.c ****   *         This parameter can be a combination of following values:
 215:STM32Cube_FW_N6/Drivers/STM32N6xx_HAL_Driver/Src/stm32n6xx_hal_rif.c ****   *           @arg @ref RIF_CID_0    Compartment 0 ID selected as Debug access port ID
 216:STM32Cube_FW_N6/Drivers/STM32N6xx_HAL_Driver/Src/stm32n6xx_hal_rif.c ****   *           @arg @ref RIF_CID_1    Compartment 1 ID selected as Debug access port ID
 217:STM32Cube_FW_N6/Drivers/STM32N6xx_HAL_Driver/Src/stm32n6xx_hal_rif.c ****   *           @arg @ref RIF_CID_2    Compartment 2 ID selected as Debug access port ID
 218:STM32Cube_FW_N6/Drivers/STM32N6xx_HAL_Driver/Src/stm32n6xx_hal_rif.c ****   *           @arg @ref RIF_CID_3    Compartment 3 ID selected as Debug access port ID
 219:STM32Cube_FW_N6/Drivers/STM32N6xx_HAL_Driver/Src/stm32n6xx_hal_rif.c ****   *           @arg @ref RIF_CID_4    Compartment 4 ID selected as Debug access port ID
 220:STM32Cube_FW_N6/Drivers/STM32N6xx_HAL_Driver/Src/stm32n6xx_hal_rif.c ****   *           @arg @ref RIF_CID_5    Compartment 5 ID selected as Debug access port ID
 221:STM32Cube_FW_N6/Drivers/STM32N6xx_HAL_Driver/Src/stm32n6xx_hal_rif.c ****   *           @arg @ref RIF_CID_6    Compartment 6 ID selected as Debug access port ID
 222:STM32Cube_FW_N6/Drivers/STM32N6xx_HAL_Driver/Src/stm32n6xx_hal_rif.c ****   *           @arg @ref RIF_CID_7    Compartment 7 ID selected as Debug access port ID
 223:STM32Cube_FW_N6/Drivers/STM32N6xx_HAL_Driver/Src/stm32n6xx_hal_rif.c ****   * @retval None
 224:STM32Cube_FW_N6/Drivers/STM32N6xx_HAL_Driver/Src/stm32n6xx_hal_rif.c ****   */
 225:STM32Cube_FW_N6/Drivers/STM32N6xx_HAL_Driver/Src/stm32n6xx_hal_rif.c **** void HAL_RIF_RIMC_SetDebugAccessPortCID(uint32_t CID)
 226:STM32Cube_FW_N6/Drivers/STM32N6xx_HAL_Driver/Src/stm32n6xx_hal_rif.c **** {
 128              		.loc 1 226 1
 129              		.cfi_startproc
 130              		@ args = 0, pretend = 0, frame = 32
 131              		@ frame_needed = 1, uses_anonymous_args = 0
 132 0000 80B5     		push	{r7, lr}
 133              		.cfi_def_cfa_offset 8
 134              		.cfi_offset 7, -8
 135              		.cfi_offset 14, -4
 136 0002 88B0     		sub	sp, sp, #32
 137              		.cfi_def_cfa_offset 40
 138 0004 00AF     		add	r7, sp, #0
 139              		.cfi_def_cfa_register 7
 140 0006 7860     		str	r0, [r7, #4]
 227:STM32Cube_FW_N6/Drivers/STM32N6xx_HAL_Driver/Src/stm32n6xx_hal_rif.c ****   uint32_t dap_cid;
 228:STM32Cube_FW_N6/Drivers/STM32N6xx_HAL_Driver/Src/stm32n6xx_hal_rif.c ****   uint32_t rimc_cr_reg;
 229:STM32Cube_FW_N6/Drivers/STM32N6xx_HAL_Driver/Src/stm32n6xx_hal_rif.c **** 
 230:STM32Cube_FW_N6/Drivers/STM32N6xx_HAL_Driver/Src/stm32n6xx_hal_rif.c ****   /* Check the parameter */
 231:STM32Cube_FW_N6/Drivers/STM32N6xx_HAL_Driver/Src/stm32n6xx_hal_rif.c ****   assert_param(IS_RIF_SINGLE_CID(CID));
 141              		.loc 1 231 3
 142 0008 7B68     		ldr	r3, [r7, #4]
 143 000a 012B     		cmp	r3, #1
 144 000c 18D0     		beq	.L9
 145              		.loc 1 231 3 is_stmt 0 discriminator 1
 146 000e 7B68     		ldr	r3, [r7, #4]
 147 0010 022B     		cmp	r3, #2
 148 0012 15D0     		beq	.L9
 149              		.loc 1 231 3 discriminator 2
 150 0014 7B68     		ldr	r3, [r7, #4]
 151 0016 042B     		cmp	r3, #4
 152 0018 12D0     		beq	.L9
 153              		.loc 1 231 3 discriminator 3
 154 001a 7B68     		ldr	r3, [r7, #4]
 155 001c 082B     		cmp	r3, #8
 156 001e 0FD0     		beq	.L9
 157              		.loc 1 231 3 discriminator 4
 158 0020 7B68     		ldr	r3, [r7, #4]
 159 0022 102B     		cmp	r3, #16
 160 0024 0CD0     		beq	.L9
 161              		.loc 1 231 3 discriminator 5
 162 0026 7B68     		ldr	r3, [r7, #4]
 163 0028 202B     		cmp	r3, #32
 164 002a 09D0     		beq	.L9
 165              		.loc 1 231 3 discriminator 6
ARM GAS  /tmp/ccRTEIeG.s 			page 8


 166 002c 7B68     		ldr	r3, [r7, #4]
 167 002e 402B     		cmp	r3, #64
 168 0030 06D0     		beq	.L9
 169              		.loc 1 231 3 discriminator 7
 170 0032 7B68     		ldr	r3, [r7, #4]
 171 0034 802B     		cmp	r3, #128
 172 0036 03D0     		beq	.L9
 173              		.loc 1 231 3 discriminator 8
 174 0038 E721     		movs	r1, #231
 175 003a 1548     		ldr	r0, .L13
 176 003c FFF7FEFF 		bl	assert_failed
 177              	.L9:
 178 0040 7B68     		ldr	r3, [r7, #4]
 179 0042 3B61     		str	r3, [r7, #16]
 180              	.LBB18:
 181              	.LBB19:
 182              		.file 2 "STM32Cube_FW_N6/Drivers/CMSIS/Include/cmsis_gcc.h"
   1:STM32Cube_FW_N6/Drivers/CMSIS/Include/cmsis_gcc.h **** /**************************************************************************//**
   2:STM32Cube_FW_N6/Drivers/CMSIS/Include/cmsis_gcc.h ****  * @file     cmsis_gcc.h
   3:STM32Cube_FW_N6/Drivers/CMSIS/Include/cmsis_gcc.h ****  * @brief    CMSIS compiler GCC header file
   4:STM32Cube_FW_N6/Drivers/CMSIS/Include/cmsis_gcc.h ****  * @version  V5.4.1
   5:STM32Cube_FW_N6/Drivers/CMSIS/Include/cmsis_gcc.h ****  * @date     27. May 2021
   6:STM32Cube_FW_N6/Drivers/CMSIS/Include/cmsis_gcc.h ****  ******************************************************************************/
   7:STM32Cube_FW_N6/Drivers/CMSIS/Include/cmsis_gcc.h **** /*
   8:STM32Cube_FW_N6/Drivers/CMSIS/Include/cmsis_gcc.h ****  * Copyright (c) 2009-2021 Arm Limited. All rights reserved.
   9:STM32Cube_FW_N6/Drivers/CMSIS/Include/cmsis_gcc.h ****  *
  10:STM32Cube_FW_N6/Drivers/CMSIS/Include/cmsis_gcc.h ****  * SPDX-License-Identifier: Apache-2.0
  11:STM32Cube_FW_N6/Drivers/CMSIS/Include/cmsis_gcc.h ****  *
  12:STM32Cube_FW_N6/Drivers/CMSIS/Include/cmsis_gcc.h ****  * Licensed under the Apache License, Version 2.0 (the License); you may
  13:STM32Cube_FW_N6/Drivers/CMSIS/Include/cmsis_gcc.h ****  * not use this file except in compliance with the License.
  14:STM32Cube_FW_N6/Drivers/CMSIS/Include/cmsis_gcc.h ****  * You may obtain a copy of the License at
  15:STM32Cube_FW_N6/Drivers/CMSIS/Include/cmsis_gcc.h ****  *
  16:STM32Cube_FW_N6/Drivers/CMSIS/Include/cmsis_gcc.h ****  * www.apache.org/licenses/LICENSE-2.0
  17:STM32Cube_FW_N6/Drivers/CMSIS/Include/cmsis_gcc.h ****  *
  18:STM32Cube_FW_N6/Drivers/CMSIS/Include/cmsis_gcc.h ****  * Unless required by applicable law or agreed to in writing, software
  19:STM32Cube_FW_N6/Drivers/CMSIS/Include/cmsis_gcc.h ****  * distributed under the License is distributed on an AS IS BASIS, WITHOUT
  20:STM32Cube_FW_N6/Drivers/CMSIS/Include/cmsis_gcc.h ****  * WARRANTIES OR CONDITIONS OF ANY KIND, either express or implied.
  21:STM32Cube_FW_N6/Drivers/CMSIS/Include/cmsis_gcc.h ****  * See the License for the specific language governing permissions and
  22:STM32Cube_FW_N6/Drivers/CMSIS/Include/cmsis_gcc.h ****  * limitations under the License.
  23:STM32Cube_FW_N6/Drivers/CMSIS/Include/cmsis_gcc.h ****  */
  24:STM32Cube_FW_N6/Drivers/CMSIS/Include/cmsis_gcc.h **** 
  25:STM32Cube_FW_N6/Drivers/CMSIS/Include/cmsis_gcc.h **** #ifndef __CMSIS_GCC_H
  26:STM32Cube_FW_N6/Drivers/CMSIS/Include/cmsis_gcc.h **** #define __CMSIS_GCC_H
  27:STM32Cube_FW_N6/Drivers/CMSIS/Include/cmsis_gcc.h **** 
  28:STM32Cube_FW_N6/Drivers/CMSIS/Include/cmsis_gcc.h **** /* ignore some GCC warnings */
  29:STM32Cube_FW_N6/Drivers/CMSIS/Include/cmsis_gcc.h **** #pragma GCC diagnostic push
  30:STM32Cube_FW_N6/Drivers/CMSIS/Include/cmsis_gcc.h **** #pragma GCC diagnostic ignored "-Wsign-conversion"
  31:STM32Cube_FW_N6/Drivers/CMSIS/Include/cmsis_gcc.h **** #pragma GCC diagnostic ignored "-Wconversion"
  32:STM32Cube_FW_N6/Drivers/CMSIS/Include/cmsis_gcc.h **** #pragma GCC diagnostic ignored "-Wunused-parameter"
  33:STM32Cube_FW_N6/Drivers/CMSIS/Include/cmsis_gcc.h **** 
  34:STM32Cube_FW_N6/Drivers/CMSIS/Include/cmsis_gcc.h **** /* Fallback for __has_builtin */
  35:STM32Cube_FW_N6/Drivers/CMSIS/Include/cmsis_gcc.h **** #ifndef __has_builtin
  36:STM32Cube_FW_N6/Drivers/CMSIS/Include/cmsis_gcc.h ****   #define __has_builtin(x) (0)
  37:STM32Cube_FW_N6/Drivers/CMSIS/Include/cmsis_gcc.h **** #endif
  38:STM32Cube_FW_N6/Drivers/CMSIS/Include/cmsis_gcc.h **** 
  39:STM32Cube_FW_N6/Drivers/CMSIS/Include/cmsis_gcc.h **** /* CMSIS compiler specific defines */
  40:STM32Cube_FW_N6/Drivers/CMSIS/Include/cmsis_gcc.h **** #ifndef   __ASM
ARM GAS  /tmp/ccRTEIeG.s 			page 9


  41:STM32Cube_FW_N6/Drivers/CMSIS/Include/cmsis_gcc.h ****   #define __ASM                                  __asm
  42:STM32Cube_FW_N6/Drivers/CMSIS/Include/cmsis_gcc.h **** #endif
  43:STM32Cube_FW_N6/Drivers/CMSIS/Include/cmsis_gcc.h **** #ifndef   __INLINE
  44:STM32Cube_FW_N6/Drivers/CMSIS/Include/cmsis_gcc.h ****   #define __INLINE                               inline
  45:STM32Cube_FW_N6/Drivers/CMSIS/Include/cmsis_gcc.h **** #endif
  46:STM32Cube_FW_N6/Drivers/CMSIS/Include/cmsis_gcc.h **** #ifndef   __STATIC_INLINE
  47:STM32Cube_FW_N6/Drivers/CMSIS/Include/cmsis_gcc.h ****   #define __STATIC_INLINE                        static inline
  48:STM32Cube_FW_N6/Drivers/CMSIS/Include/cmsis_gcc.h **** #endif
  49:STM32Cube_FW_N6/Drivers/CMSIS/Include/cmsis_gcc.h **** #ifndef   __STATIC_FORCEINLINE
  50:STM32Cube_FW_N6/Drivers/CMSIS/Include/cmsis_gcc.h ****   #define __STATIC_FORCEINLINE                   __attribute__((always_inline)) static inline
  51:STM32Cube_FW_N6/Drivers/CMSIS/Include/cmsis_gcc.h **** #endif
  52:STM32Cube_FW_N6/Drivers/CMSIS/Include/cmsis_gcc.h **** #ifndef   __NO_RETURN
  53:STM32Cube_FW_N6/Drivers/CMSIS/Include/cmsis_gcc.h ****   #define __NO_RETURN                            __attribute__((__noreturn__))
  54:STM32Cube_FW_N6/Drivers/CMSIS/Include/cmsis_gcc.h **** #endif
  55:STM32Cube_FW_N6/Drivers/CMSIS/Include/cmsis_gcc.h **** #ifndef   __USED
  56:STM32Cube_FW_N6/Drivers/CMSIS/Include/cmsis_gcc.h ****   #define __USED                                 __attribute__((used))
  57:STM32Cube_FW_N6/Drivers/CMSIS/Include/cmsis_gcc.h **** #endif
  58:STM32Cube_FW_N6/Drivers/CMSIS/Include/cmsis_gcc.h **** #ifndef   __WEAK
  59:STM32Cube_FW_N6/Drivers/CMSIS/Include/cmsis_gcc.h ****   #define __WEAK                                 __attribute__((weak))
  60:STM32Cube_FW_N6/Drivers/CMSIS/Include/cmsis_gcc.h **** #endif
  61:STM32Cube_FW_N6/Drivers/CMSIS/Include/cmsis_gcc.h **** #ifndef   __PACKED
  62:STM32Cube_FW_N6/Drivers/CMSIS/Include/cmsis_gcc.h ****   #define __PACKED                               __attribute__((packed, aligned(1)))
  63:STM32Cube_FW_N6/Drivers/CMSIS/Include/cmsis_gcc.h **** #endif
  64:STM32Cube_FW_N6/Drivers/CMSIS/Include/cmsis_gcc.h **** #ifndef   __PACKED_STRUCT
  65:STM32Cube_FW_N6/Drivers/CMSIS/Include/cmsis_gcc.h ****   #define __PACKED_STRUCT                        struct __attribute__((packed, aligned(1)))
  66:STM32Cube_FW_N6/Drivers/CMSIS/Include/cmsis_gcc.h **** #endif
  67:STM32Cube_FW_N6/Drivers/CMSIS/Include/cmsis_gcc.h **** #ifndef   __PACKED_UNION
  68:STM32Cube_FW_N6/Drivers/CMSIS/Include/cmsis_gcc.h ****   #define __PACKED_UNION                         union __attribute__((packed, aligned(1)))
  69:STM32Cube_FW_N6/Drivers/CMSIS/Include/cmsis_gcc.h **** #endif
  70:STM32Cube_FW_N6/Drivers/CMSIS/Include/cmsis_gcc.h **** #ifndef   __UNALIGNED_UINT32        /* deprecated */
  71:STM32Cube_FW_N6/Drivers/CMSIS/Include/cmsis_gcc.h ****   #pragma GCC diagnostic push
  72:STM32Cube_FW_N6/Drivers/CMSIS/Include/cmsis_gcc.h ****   #pragma GCC diagnostic ignored "-Wpacked"
  73:STM32Cube_FW_N6/Drivers/CMSIS/Include/cmsis_gcc.h ****   #pragma GCC diagnostic ignored "-Wattributes"
  74:STM32Cube_FW_N6/Drivers/CMSIS/Include/cmsis_gcc.h ****   struct __attribute__((packed)) T_UINT32 { uint32_t v; };
  75:STM32Cube_FW_N6/Drivers/CMSIS/Include/cmsis_gcc.h ****   #pragma GCC diagnostic pop
  76:STM32Cube_FW_N6/Drivers/CMSIS/Include/cmsis_gcc.h ****   #define __UNALIGNED_UINT32(x)                  (((struct T_UINT32 *)(x))->v)
  77:STM32Cube_FW_N6/Drivers/CMSIS/Include/cmsis_gcc.h **** #endif
  78:STM32Cube_FW_N6/Drivers/CMSIS/Include/cmsis_gcc.h **** #ifndef   __UNALIGNED_UINT16_WRITE
  79:STM32Cube_FW_N6/Drivers/CMSIS/Include/cmsis_gcc.h ****   #pragma GCC diagnostic push
  80:STM32Cube_FW_N6/Drivers/CMSIS/Include/cmsis_gcc.h ****   #pragma GCC diagnostic ignored "-Wpacked"
  81:STM32Cube_FW_N6/Drivers/CMSIS/Include/cmsis_gcc.h ****   #pragma GCC diagnostic ignored "-Wattributes"
  82:STM32Cube_FW_N6/Drivers/CMSIS/Include/cmsis_gcc.h ****   __PACKED_STRUCT T_UINT16_WRITE { uint16_t v; };
  83:STM32Cube_FW_N6/Drivers/CMSIS/Include/cmsis_gcc.h ****   #pragma GCC diagnostic pop
  84:STM32Cube_FW_N6/Drivers/CMSIS/Include/cmsis_gcc.h ****   #define __UNALIGNED_UINT16_WRITE(addr, val)    (void)((((struct T_UINT16_WRITE *)(void *)(addr))-
  85:STM32Cube_FW_N6/Drivers/CMSIS/Include/cmsis_gcc.h **** #endif
  86:STM32Cube_FW_N6/Drivers/CMSIS/Include/cmsis_gcc.h **** #ifndef   __UNALIGNED_UINT16_READ
  87:STM32Cube_FW_N6/Drivers/CMSIS/Include/cmsis_gcc.h ****   #pragma GCC diagnostic push
  88:STM32Cube_FW_N6/Drivers/CMSIS/Include/cmsis_gcc.h ****   #pragma GCC diagnostic ignored "-Wpacked"
  89:STM32Cube_FW_N6/Drivers/CMSIS/Include/cmsis_gcc.h ****   #pragma GCC diagnostic ignored "-Wattributes"
  90:STM32Cube_FW_N6/Drivers/CMSIS/Include/cmsis_gcc.h ****   __PACKED_STRUCT T_UINT16_READ { uint16_t v; };
  91:STM32Cube_FW_N6/Drivers/CMSIS/Include/cmsis_gcc.h ****   #pragma GCC diagnostic pop
  92:STM32Cube_FW_N6/Drivers/CMSIS/Include/cmsis_gcc.h ****   #define __UNALIGNED_UINT16_READ(addr)          (((const struct T_UINT16_READ *)(const void *)(add
  93:STM32Cube_FW_N6/Drivers/CMSIS/Include/cmsis_gcc.h **** #endif
  94:STM32Cube_FW_N6/Drivers/CMSIS/Include/cmsis_gcc.h **** #ifndef   __UNALIGNED_UINT32_WRITE
  95:STM32Cube_FW_N6/Drivers/CMSIS/Include/cmsis_gcc.h ****   #pragma GCC diagnostic push
  96:STM32Cube_FW_N6/Drivers/CMSIS/Include/cmsis_gcc.h ****   #pragma GCC diagnostic ignored "-Wpacked"
  97:STM32Cube_FW_N6/Drivers/CMSIS/Include/cmsis_gcc.h ****   #pragma GCC diagnostic ignored "-Wattributes"
ARM GAS  /tmp/ccRTEIeG.s 			page 10


  98:STM32Cube_FW_N6/Drivers/CMSIS/Include/cmsis_gcc.h ****   __PACKED_STRUCT T_UINT32_WRITE { uint32_t v; };
  99:STM32Cube_FW_N6/Drivers/CMSIS/Include/cmsis_gcc.h ****   #pragma GCC diagnostic pop
 100:STM32Cube_FW_N6/Drivers/CMSIS/Include/cmsis_gcc.h ****   #define __UNALIGNED_UINT32_WRITE(addr, val)    (void)((((struct T_UINT32_WRITE *)(void *)(addr))-
 101:STM32Cube_FW_N6/Drivers/CMSIS/Include/cmsis_gcc.h **** #endif
 102:STM32Cube_FW_N6/Drivers/CMSIS/Include/cmsis_gcc.h **** #ifndef   __UNALIGNED_UINT32_READ
 103:STM32Cube_FW_N6/Drivers/CMSIS/Include/cmsis_gcc.h ****   #pragma GCC diagnostic push
 104:STM32Cube_FW_N6/Drivers/CMSIS/Include/cmsis_gcc.h ****   #pragma GCC diagnostic ignored "-Wpacked"
 105:STM32Cube_FW_N6/Drivers/CMSIS/Include/cmsis_gcc.h ****   #pragma GCC diagnostic ignored "-Wattributes"
 106:STM32Cube_FW_N6/Drivers/CMSIS/Include/cmsis_gcc.h ****   __PACKED_STRUCT T_UINT32_READ { uint32_t v; };
 107:STM32Cube_FW_N6/Drivers/CMSIS/Include/cmsis_gcc.h ****   #pragma GCC diagnostic pop
 108:STM32Cube_FW_N6/Drivers/CMSIS/Include/cmsis_gcc.h ****   #define __UNALIGNED_UINT32_READ(addr)          (((const struct T_UINT32_READ *)(const void *)(add
 109:STM32Cube_FW_N6/Drivers/CMSIS/Include/cmsis_gcc.h **** #endif
 110:STM32Cube_FW_N6/Drivers/CMSIS/Include/cmsis_gcc.h **** #ifndef   __ALIGNED
 111:STM32Cube_FW_N6/Drivers/CMSIS/Include/cmsis_gcc.h ****   #define __ALIGNED(x)                           __attribute__((aligned(x)))
 112:STM32Cube_FW_N6/Drivers/CMSIS/Include/cmsis_gcc.h **** #endif
 113:STM32Cube_FW_N6/Drivers/CMSIS/Include/cmsis_gcc.h **** #ifndef   __RESTRICT
 114:STM32Cube_FW_N6/Drivers/CMSIS/Include/cmsis_gcc.h ****   #define __RESTRICT                             __restrict
 115:STM32Cube_FW_N6/Drivers/CMSIS/Include/cmsis_gcc.h **** #endif
 116:STM32Cube_FW_N6/Drivers/CMSIS/Include/cmsis_gcc.h **** #ifndef   __COMPILER_BARRIER
 117:STM32Cube_FW_N6/Drivers/CMSIS/Include/cmsis_gcc.h ****   #define __COMPILER_BARRIER()                   __ASM volatile("":::"memory")
 118:STM32Cube_FW_N6/Drivers/CMSIS/Include/cmsis_gcc.h **** #endif
 119:STM32Cube_FW_N6/Drivers/CMSIS/Include/cmsis_gcc.h **** 
 120:STM32Cube_FW_N6/Drivers/CMSIS/Include/cmsis_gcc.h **** /* #########################  Startup and Lowlevel Init  ######################## */
 121:STM32Cube_FW_N6/Drivers/CMSIS/Include/cmsis_gcc.h **** 
 122:STM32Cube_FW_N6/Drivers/CMSIS/Include/cmsis_gcc.h **** #ifndef __PROGRAM_START
 123:STM32Cube_FW_N6/Drivers/CMSIS/Include/cmsis_gcc.h **** 
 124:STM32Cube_FW_N6/Drivers/CMSIS/Include/cmsis_gcc.h **** /**
 125:STM32Cube_FW_N6/Drivers/CMSIS/Include/cmsis_gcc.h ****   \brief   Initializes data and bss sections
 126:STM32Cube_FW_N6/Drivers/CMSIS/Include/cmsis_gcc.h ****   \details This default implementations initialized all data and additional bss
 127:STM32Cube_FW_N6/Drivers/CMSIS/Include/cmsis_gcc.h ****            sections relying on .copy.table and .zero.table specified properly
 128:STM32Cube_FW_N6/Drivers/CMSIS/Include/cmsis_gcc.h ****            in the used linker script.
 129:STM32Cube_FW_N6/Drivers/CMSIS/Include/cmsis_gcc.h **** 
 130:STM32Cube_FW_N6/Drivers/CMSIS/Include/cmsis_gcc.h ****  */
 131:STM32Cube_FW_N6/Drivers/CMSIS/Include/cmsis_gcc.h **** __STATIC_FORCEINLINE __NO_RETURN void __cmsis_start(void)
 132:STM32Cube_FW_N6/Drivers/CMSIS/Include/cmsis_gcc.h **** {
 133:STM32Cube_FW_N6/Drivers/CMSIS/Include/cmsis_gcc.h ****   extern void _start(void) __NO_RETURN;
 134:STM32Cube_FW_N6/Drivers/CMSIS/Include/cmsis_gcc.h **** 
 135:STM32Cube_FW_N6/Drivers/CMSIS/Include/cmsis_gcc.h ****   typedef struct {
 136:STM32Cube_FW_N6/Drivers/CMSIS/Include/cmsis_gcc.h ****     uint32_t const* src;
 137:STM32Cube_FW_N6/Drivers/CMSIS/Include/cmsis_gcc.h ****     uint32_t* dest;
 138:STM32Cube_FW_N6/Drivers/CMSIS/Include/cmsis_gcc.h ****     uint32_t  wlen;
 139:STM32Cube_FW_N6/Drivers/CMSIS/Include/cmsis_gcc.h ****   } __copy_table_t;
 140:STM32Cube_FW_N6/Drivers/CMSIS/Include/cmsis_gcc.h **** 
 141:STM32Cube_FW_N6/Drivers/CMSIS/Include/cmsis_gcc.h ****   typedef struct {
 142:STM32Cube_FW_N6/Drivers/CMSIS/Include/cmsis_gcc.h ****     uint32_t* dest;
 143:STM32Cube_FW_N6/Drivers/CMSIS/Include/cmsis_gcc.h ****     uint32_t  wlen;
 144:STM32Cube_FW_N6/Drivers/CMSIS/Include/cmsis_gcc.h ****   } __zero_table_t;
 145:STM32Cube_FW_N6/Drivers/CMSIS/Include/cmsis_gcc.h **** 
 146:STM32Cube_FW_N6/Drivers/CMSIS/Include/cmsis_gcc.h ****   extern const __copy_table_t __copy_table_start__;
 147:STM32Cube_FW_N6/Drivers/CMSIS/Include/cmsis_gcc.h ****   extern const __copy_table_t __copy_table_end__;
 148:STM32Cube_FW_N6/Drivers/CMSIS/Include/cmsis_gcc.h ****   extern const __zero_table_t __zero_table_start__;
 149:STM32Cube_FW_N6/Drivers/CMSIS/Include/cmsis_gcc.h ****   extern const __zero_table_t __zero_table_end__;
 150:STM32Cube_FW_N6/Drivers/CMSIS/Include/cmsis_gcc.h **** 
 151:STM32Cube_FW_N6/Drivers/CMSIS/Include/cmsis_gcc.h ****   for (__copy_table_t const* pTable = &__copy_table_start__; pTable < &__copy_table_end__; ++pTable
 152:STM32Cube_FW_N6/Drivers/CMSIS/Include/cmsis_gcc.h ****     for(uint32_t i=0u; i<pTable->wlen; ++i) {
 153:STM32Cube_FW_N6/Drivers/CMSIS/Include/cmsis_gcc.h ****       pTable->dest[i] = pTable->src[i];
 154:STM32Cube_FW_N6/Drivers/CMSIS/Include/cmsis_gcc.h ****     }
ARM GAS  /tmp/ccRTEIeG.s 			page 11


 155:STM32Cube_FW_N6/Drivers/CMSIS/Include/cmsis_gcc.h ****   }
 156:STM32Cube_FW_N6/Drivers/CMSIS/Include/cmsis_gcc.h **** 
 157:STM32Cube_FW_N6/Drivers/CMSIS/Include/cmsis_gcc.h ****   for (__zero_table_t const* pTable = &__zero_table_start__; pTable < &__zero_table_end__; ++pTable
 158:STM32Cube_FW_N6/Drivers/CMSIS/Include/cmsis_gcc.h ****     for(uint32_t i=0u; i<pTable->wlen; ++i) {
 159:STM32Cube_FW_N6/Drivers/CMSIS/Include/cmsis_gcc.h ****       pTable->dest[i] = 0u;
 160:STM32Cube_FW_N6/Drivers/CMSIS/Include/cmsis_gcc.h ****     }
 161:STM32Cube_FW_N6/Drivers/CMSIS/Include/cmsis_gcc.h ****   }
 162:STM32Cube_FW_N6/Drivers/CMSIS/Include/cmsis_gcc.h **** 
 163:STM32Cube_FW_N6/Drivers/CMSIS/Include/cmsis_gcc.h ****   _start();
 164:STM32Cube_FW_N6/Drivers/CMSIS/Include/cmsis_gcc.h **** }
 165:STM32Cube_FW_N6/Drivers/CMSIS/Include/cmsis_gcc.h **** 
 166:STM32Cube_FW_N6/Drivers/CMSIS/Include/cmsis_gcc.h **** #define __PROGRAM_START           __cmsis_start
 167:STM32Cube_FW_N6/Drivers/CMSIS/Include/cmsis_gcc.h **** #endif
 168:STM32Cube_FW_N6/Drivers/CMSIS/Include/cmsis_gcc.h **** 
 169:STM32Cube_FW_N6/Drivers/CMSIS/Include/cmsis_gcc.h **** #ifndef __INITIAL_SP
 170:STM32Cube_FW_N6/Drivers/CMSIS/Include/cmsis_gcc.h **** #define __INITIAL_SP              __StackTop
 171:STM32Cube_FW_N6/Drivers/CMSIS/Include/cmsis_gcc.h **** #endif
 172:STM32Cube_FW_N6/Drivers/CMSIS/Include/cmsis_gcc.h **** 
 173:STM32Cube_FW_N6/Drivers/CMSIS/Include/cmsis_gcc.h **** #ifndef __STACK_LIMIT
 174:STM32Cube_FW_N6/Drivers/CMSIS/Include/cmsis_gcc.h **** #define __STACK_LIMIT             __StackLimit
 175:STM32Cube_FW_N6/Drivers/CMSIS/Include/cmsis_gcc.h **** #endif
 176:STM32Cube_FW_N6/Drivers/CMSIS/Include/cmsis_gcc.h **** 
 177:STM32Cube_FW_N6/Drivers/CMSIS/Include/cmsis_gcc.h **** #ifndef __VECTOR_TABLE
 178:STM32Cube_FW_N6/Drivers/CMSIS/Include/cmsis_gcc.h **** #define __VECTOR_TABLE            __Vectors
 179:STM32Cube_FW_N6/Drivers/CMSIS/Include/cmsis_gcc.h **** #endif
 180:STM32Cube_FW_N6/Drivers/CMSIS/Include/cmsis_gcc.h **** 
 181:STM32Cube_FW_N6/Drivers/CMSIS/Include/cmsis_gcc.h **** #ifndef __VECTOR_TABLE_ATTRIBUTE
 182:STM32Cube_FW_N6/Drivers/CMSIS/Include/cmsis_gcc.h **** #define __VECTOR_TABLE_ATTRIBUTE  __attribute__((used, section(".vectors")))
 183:STM32Cube_FW_N6/Drivers/CMSIS/Include/cmsis_gcc.h **** #endif
 184:STM32Cube_FW_N6/Drivers/CMSIS/Include/cmsis_gcc.h **** 
 185:STM32Cube_FW_N6/Drivers/CMSIS/Include/cmsis_gcc.h **** #if defined (__ARM_FEATURE_CMSE) && (__ARM_FEATURE_CMSE == 3U)
 186:STM32Cube_FW_N6/Drivers/CMSIS/Include/cmsis_gcc.h **** #ifndef __STACK_SEAL
 187:STM32Cube_FW_N6/Drivers/CMSIS/Include/cmsis_gcc.h **** #define __STACK_SEAL              __StackSeal
 188:STM32Cube_FW_N6/Drivers/CMSIS/Include/cmsis_gcc.h **** #endif
 189:STM32Cube_FW_N6/Drivers/CMSIS/Include/cmsis_gcc.h **** 
 190:STM32Cube_FW_N6/Drivers/CMSIS/Include/cmsis_gcc.h **** #ifndef __TZ_STACK_SEAL_SIZE
 191:STM32Cube_FW_N6/Drivers/CMSIS/Include/cmsis_gcc.h **** #define __TZ_STACK_SEAL_SIZE      8U
 192:STM32Cube_FW_N6/Drivers/CMSIS/Include/cmsis_gcc.h **** #endif
 193:STM32Cube_FW_N6/Drivers/CMSIS/Include/cmsis_gcc.h **** 
 194:STM32Cube_FW_N6/Drivers/CMSIS/Include/cmsis_gcc.h **** #ifndef __TZ_STACK_SEAL_VALUE
 195:STM32Cube_FW_N6/Drivers/CMSIS/Include/cmsis_gcc.h **** #define __TZ_STACK_SEAL_VALUE     0xFEF5EDA5FEF5EDA5ULL
 196:STM32Cube_FW_N6/Drivers/CMSIS/Include/cmsis_gcc.h **** #endif
 197:STM32Cube_FW_N6/Drivers/CMSIS/Include/cmsis_gcc.h **** 
 198:STM32Cube_FW_N6/Drivers/CMSIS/Include/cmsis_gcc.h **** 
 199:STM32Cube_FW_N6/Drivers/CMSIS/Include/cmsis_gcc.h **** __STATIC_FORCEINLINE void __TZ_set_STACKSEAL_S (uint32_t* stackTop) {
 200:STM32Cube_FW_N6/Drivers/CMSIS/Include/cmsis_gcc.h ****   *((uint64_t *)stackTop) = __TZ_STACK_SEAL_VALUE;
 201:STM32Cube_FW_N6/Drivers/CMSIS/Include/cmsis_gcc.h **** }
 202:STM32Cube_FW_N6/Drivers/CMSIS/Include/cmsis_gcc.h **** #endif
 203:STM32Cube_FW_N6/Drivers/CMSIS/Include/cmsis_gcc.h **** 
 204:STM32Cube_FW_N6/Drivers/CMSIS/Include/cmsis_gcc.h **** 
 205:STM32Cube_FW_N6/Drivers/CMSIS/Include/cmsis_gcc.h **** /* ##########################  Core Instruction Access  ######################### */
 206:STM32Cube_FW_N6/Drivers/CMSIS/Include/cmsis_gcc.h **** /** \defgroup CMSIS_Core_InstructionInterface CMSIS Core Instruction Interface
 207:STM32Cube_FW_N6/Drivers/CMSIS/Include/cmsis_gcc.h ****   Access to dedicated instructions
 208:STM32Cube_FW_N6/Drivers/CMSIS/Include/cmsis_gcc.h ****   @{
 209:STM32Cube_FW_N6/Drivers/CMSIS/Include/cmsis_gcc.h **** */
 210:STM32Cube_FW_N6/Drivers/CMSIS/Include/cmsis_gcc.h **** 
 211:STM32Cube_FW_N6/Drivers/CMSIS/Include/cmsis_gcc.h **** /* Define macros for porting to both thumb1 and thumb2.
ARM GAS  /tmp/ccRTEIeG.s 			page 12


 212:STM32Cube_FW_N6/Drivers/CMSIS/Include/cmsis_gcc.h ****  * For thumb1, use low register (r0-r7), specified by constraint "l"
 213:STM32Cube_FW_N6/Drivers/CMSIS/Include/cmsis_gcc.h ****  * Otherwise, use general registers, specified by constraint "r" */
 214:STM32Cube_FW_N6/Drivers/CMSIS/Include/cmsis_gcc.h **** #if defined (__thumb__) && !defined (__thumb2__)
 215:STM32Cube_FW_N6/Drivers/CMSIS/Include/cmsis_gcc.h **** #define __CMSIS_GCC_OUT_REG(r) "=l" (r)
 216:STM32Cube_FW_N6/Drivers/CMSIS/Include/cmsis_gcc.h **** #define __CMSIS_GCC_RW_REG(r) "+l" (r)
 217:STM32Cube_FW_N6/Drivers/CMSIS/Include/cmsis_gcc.h **** #define __CMSIS_GCC_USE_REG(r) "l" (r)
 218:STM32Cube_FW_N6/Drivers/CMSIS/Include/cmsis_gcc.h **** #else
 219:STM32Cube_FW_N6/Drivers/CMSIS/Include/cmsis_gcc.h **** #define __CMSIS_GCC_OUT_REG(r) "=r" (r)
 220:STM32Cube_FW_N6/Drivers/CMSIS/Include/cmsis_gcc.h **** #define __CMSIS_GCC_RW_REG(r) "+r" (r)
 221:STM32Cube_FW_N6/Drivers/CMSIS/Include/cmsis_gcc.h **** #define __CMSIS_GCC_USE_REG(r) "r" (r)
 222:STM32Cube_FW_N6/Drivers/CMSIS/Include/cmsis_gcc.h **** #endif
 223:STM32Cube_FW_N6/Drivers/CMSIS/Include/cmsis_gcc.h **** 
 224:STM32Cube_FW_N6/Drivers/CMSIS/Include/cmsis_gcc.h **** /**
 225:STM32Cube_FW_N6/Drivers/CMSIS/Include/cmsis_gcc.h ****   \brief   No Operation
 226:STM32Cube_FW_N6/Drivers/CMSIS/Include/cmsis_gcc.h ****   \details No Operation does nothing. This instruction can be used for code alignment purposes.
 227:STM32Cube_FW_N6/Drivers/CMSIS/Include/cmsis_gcc.h ****  */
 228:STM32Cube_FW_N6/Drivers/CMSIS/Include/cmsis_gcc.h **** #define __NOP()                             __ASM volatile ("nop")
 229:STM32Cube_FW_N6/Drivers/CMSIS/Include/cmsis_gcc.h **** 
 230:STM32Cube_FW_N6/Drivers/CMSIS/Include/cmsis_gcc.h **** /**
 231:STM32Cube_FW_N6/Drivers/CMSIS/Include/cmsis_gcc.h ****   \brief   Wait For Interrupt
 232:STM32Cube_FW_N6/Drivers/CMSIS/Include/cmsis_gcc.h ****   \details Wait For Interrupt is a hint instruction that suspends execution until one of a number o
 233:STM32Cube_FW_N6/Drivers/CMSIS/Include/cmsis_gcc.h ****  */
 234:STM32Cube_FW_N6/Drivers/CMSIS/Include/cmsis_gcc.h **** #define __WFI()                             __ASM volatile ("wfi":::"memory")
 235:STM32Cube_FW_N6/Drivers/CMSIS/Include/cmsis_gcc.h **** 
 236:STM32Cube_FW_N6/Drivers/CMSIS/Include/cmsis_gcc.h **** 
 237:STM32Cube_FW_N6/Drivers/CMSIS/Include/cmsis_gcc.h **** /**
 238:STM32Cube_FW_N6/Drivers/CMSIS/Include/cmsis_gcc.h ****   \brief   Wait For Event
 239:STM32Cube_FW_N6/Drivers/CMSIS/Include/cmsis_gcc.h ****   \details Wait For Event is a hint instruction that permits the processor to enter
 240:STM32Cube_FW_N6/Drivers/CMSIS/Include/cmsis_gcc.h ****            a low-power state until one of a number of events occurs.
 241:STM32Cube_FW_N6/Drivers/CMSIS/Include/cmsis_gcc.h ****  */
 242:STM32Cube_FW_N6/Drivers/CMSIS/Include/cmsis_gcc.h **** #define __WFE()                             __ASM volatile ("wfe":::"memory")
 243:STM32Cube_FW_N6/Drivers/CMSIS/Include/cmsis_gcc.h **** 
 244:STM32Cube_FW_N6/Drivers/CMSIS/Include/cmsis_gcc.h **** 
 245:STM32Cube_FW_N6/Drivers/CMSIS/Include/cmsis_gcc.h **** /**
 246:STM32Cube_FW_N6/Drivers/CMSIS/Include/cmsis_gcc.h ****   \brief   Send Event
 247:STM32Cube_FW_N6/Drivers/CMSIS/Include/cmsis_gcc.h ****   \details Send Event is a hint instruction. It causes an event to be signaled to the CPU.
 248:STM32Cube_FW_N6/Drivers/CMSIS/Include/cmsis_gcc.h ****  */
 249:STM32Cube_FW_N6/Drivers/CMSIS/Include/cmsis_gcc.h **** #define __SEV()                             __ASM volatile ("sev")
 250:STM32Cube_FW_N6/Drivers/CMSIS/Include/cmsis_gcc.h **** 
 251:STM32Cube_FW_N6/Drivers/CMSIS/Include/cmsis_gcc.h **** 
 252:STM32Cube_FW_N6/Drivers/CMSIS/Include/cmsis_gcc.h **** /**
 253:STM32Cube_FW_N6/Drivers/CMSIS/Include/cmsis_gcc.h ****   \brief   Instruction Synchronization Barrier
 254:STM32Cube_FW_N6/Drivers/CMSIS/Include/cmsis_gcc.h ****   \details Instruction Synchronization Barrier flushes the pipeline in the processor,
 255:STM32Cube_FW_N6/Drivers/CMSIS/Include/cmsis_gcc.h ****            so that all instructions following the ISB are fetched from cache or memory,
 256:STM32Cube_FW_N6/Drivers/CMSIS/Include/cmsis_gcc.h ****            after the instruction has been completed.
 257:STM32Cube_FW_N6/Drivers/CMSIS/Include/cmsis_gcc.h ****  */
 258:STM32Cube_FW_N6/Drivers/CMSIS/Include/cmsis_gcc.h **** __STATIC_FORCEINLINE void __ISB(void)
 259:STM32Cube_FW_N6/Drivers/CMSIS/Include/cmsis_gcc.h **** {
 260:STM32Cube_FW_N6/Drivers/CMSIS/Include/cmsis_gcc.h ****   __ASM volatile ("isb 0xF":::"memory");
 261:STM32Cube_FW_N6/Drivers/CMSIS/Include/cmsis_gcc.h **** }
 262:STM32Cube_FW_N6/Drivers/CMSIS/Include/cmsis_gcc.h **** 
 263:STM32Cube_FW_N6/Drivers/CMSIS/Include/cmsis_gcc.h **** 
 264:STM32Cube_FW_N6/Drivers/CMSIS/Include/cmsis_gcc.h **** /**
 265:STM32Cube_FW_N6/Drivers/CMSIS/Include/cmsis_gcc.h ****   \brief   Data Synchronization Barrier
 266:STM32Cube_FW_N6/Drivers/CMSIS/Include/cmsis_gcc.h ****   \details Acts as a special kind of Data Memory Barrier.
 267:STM32Cube_FW_N6/Drivers/CMSIS/Include/cmsis_gcc.h ****            It completes when all explicit memory accesses before this instruction complete.
 268:STM32Cube_FW_N6/Drivers/CMSIS/Include/cmsis_gcc.h ****  */
ARM GAS  /tmp/ccRTEIeG.s 			page 13


 269:STM32Cube_FW_N6/Drivers/CMSIS/Include/cmsis_gcc.h **** __STATIC_FORCEINLINE void __DSB(void)
 270:STM32Cube_FW_N6/Drivers/CMSIS/Include/cmsis_gcc.h **** {
 271:STM32Cube_FW_N6/Drivers/CMSIS/Include/cmsis_gcc.h ****   __ASM volatile ("dsb 0xF":::"memory");
 272:STM32Cube_FW_N6/Drivers/CMSIS/Include/cmsis_gcc.h **** }
 273:STM32Cube_FW_N6/Drivers/CMSIS/Include/cmsis_gcc.h **** 
 274:STM32Cube_FW_N6/Drivers/CMSIS/Include/cmsis_gcc.h **** 
 275:STM32Cube_FW_N6/Drivers/CMSIS/Include/cmsis_gcc.h **** /**
 276:STM32Cube_FW_N6/Drivers/CMSIS/Include/cmsis_gcc.h ****   \brief   Data Memory Barrier
 277:STM32Cube_FW_N6/Drivers/CMSIS/Include/cmsis_gcc.h ****   \details Ensures the apparent order of the explicit memory operations before
 278:STM32Cube_FW_N6/Drivers/CMSIS/Include/cmsis_gcc.h ****            and after the instruction, without ensuring their completion.
 279:STM32Cube_FW_N6/Drivers/CMSIS/Include/cmsis_gcc.h ****  */
 280:STM32Cube_FW_N6/Drivers/CMSIS/Include/cmsis_gcc.h **** __STATIC_FORCEINLINE void __DMB(void)
 281:STM32Cube_FW_N6/Drivers/CMSIS/Include/cmsis_gcc.h **** {
 282:STM32Cube_FW_N6/Drivers/CMSIS/Include/cmsis_gcc.h ****   __ASM volatile ("dmb 0xF":::"memory");
 283:STM32Cube_FW_N6/Drivers/CMSIS/Include/cmsis_gcc.h **** }
 284:STM32Cube_FW_N6/Drivers/CMSIS/Include/cmsis_gcc.h **** 
 285:STM32Cube_FW_N6/Drivers/CMSIS/Include/cmsis_gcc.h **** 
 286:STM32Cube_FW_N6/Drivers/CMSIS/Include/cmsis_gcc.h **** /**
 287:STM32Cube_FW_N6/Drivers/CMSIS/Include/cmsis_gcc.h ****   \brief   Reverse byte order (32 bit)
 288:STM32Cube_FW_N6/Drivers/CMSIS/Include/cmsis_gcc.h ****   \details Reverses the byte order in unsigned integer value. For example, 0x12345678 becomes 0x785
 289:STM32Cube_FW_N6/Drivers/CMSIS/Include/cmsis_gcc.h ****   \param [in]    value  Value to reverse
 290:STM32Cube_FW_N6/Drivers/CMSIS/Include/cmsis_gcc.h ****   \return               Reversed value
 291:STM32Cube_FW_N6/Drivers/CMSIS/Include/cmsis_gcc.h ****  */
 292:STM32Cube_FW_N6/Drivers/CMSIS/Include/cmsis_gcc.h **** __STATIC_FORCEINLINE uint32_t __REV(uint32_t value)
 293:STM32Cube_FW_N6/Drivers/CMSIS/Include/cmsis_gcc.h **** {
 294:STM32Cube_FW_N6/Drivers/CMSIS/Include/cmsis_gcc.h **** #if (__GNUC__ > 4) || (__GNUC__ == 4 && __GNUC_MINOR__ >= 5)
 295:STM32Cube_FW_N6/Drivers/CMSIS/Include/cmsis_gcc.h ****   return __builtin_bswap32(value);
 296:STM32Cube_FW_N6/Drivers/CMSIS/Include/cmsis_gcc.h **** #else
 297:STM32Cube_FW_N6/Drivers/CMSIS/Include/cmsis_gcc.h ****   uint32_t result;
 298:STM32Cube_FW_N6/Drivers/CMSIS/Include/cmsis_gcc.h **** 
 299:STM32Cube_FW_N6/Drivers/CMSIS/Include/cmsis_gcc.h ****   __ASM ("rev %0, %1" : __CMSIS_GCC_OUT_REG (result) : __CMSIS_GCC_USE_REG (value) );
 300:STM32Cube_FW_N6/Drivers/CMSIS/Include/cmsis_gcc.h ****   return result;
 301:STM32Cube_FW_N6/Drivers/CMSIS/Include/cmsis_gcc.h **** #endif
 302:STM32Cube_FW_N6/Drivers/CMSIS/Include/cmsis_gcc.h **** }
 303:STM32Cube_FW_N6/Drivers/CMSIS/Include/cmsis_gcc.h **** 
 304:STM32Cube_FW_N6/Drivers/CMSIS/Include/cmsis_gcc.h **** 
 305:STM32Cube_FW_N6/Drivers/CMSIS/Include/cmsis_gcc.h **** /**
 306:STM32Cube_FW_N6/Drivers/CMSIS/Include/cmsis_gcc.h ****   \brief   Reverse byte order (16 bit)
 307:STM32Cube_FW_N6/Drivers/CMSIS/Include/cmsis_gcc.h ****   \details Reverses the byte order within each halfword of a word. For example, 0x12345678 becomes 
 308:STM32Cube_FW_N6/Drivers/CMSIS/Include/cmsis_gcc.h ****   \param [in]    value  Value to reverse
 309:STM32Cube_FW_N6/Drivers/CMSIS/Include/cmsis_gcc.h ****   \return               Reversed value
 310:STM32Cube_FW_N6/Drivers/CMSIS/Include/cmsis_gcc.h ****  */
 311:STM32Cube_FW_N6/Drivers/CMSIS/Include/cmsis_gcc.h **** __STATIC_FORCEINLINE uint32_t __REV16(uint32_t value)
 312:STM32Cube_FW_N6/Drivers/CMSIS/Include/cmsis_gcc.h **** {
 313:STM32Cube_FW_N6/Drivers/CMSIS/Include/cmsis_gcc.h ****   uint32_t result;
 314:STM32Cube_FW_N6/Drivers/CMSIS/Include/cmsis_gcc.h **** 
 315:STM32Cube_FW_N6/Drivers/CMSIS/Include/cmsis_gcc.h ****   __ASM ("rev16 %0, %1" : __CMSIS_GCC_OUT_REG (result) : __CMSIS_GCC_USE_REG (value) );
 316:STM32Cube_FW_N6/Drivers/CMSIS/Include/cmsis_gcc.h ****   return result;
 317:STM32Cube_FW_N6/Drivers/CMSIS/Include/cmsis_gcc.h **** }
 318:STM32Cube_FW_N6/Drivers/CMSIS/Include/cmsis_gcc.h **** 
 319:STM32Cube_FW_N6/Drivers/CMSIS/Include/cmsis_gcc.h **** 
 320:STM32Cube_FW_N6/Drivers/CMSIS/Include/cmsis_gcc.h **** /**
 321:STM32Cube_FW_N6/Drivers/CMSIS/Include/cmsis_gcc.h ****   \brief   Reverse byte order (16 bit)
 322:STM32Cube_FW_N6/Drivers/CMSIS/Include/cmsis_gcc.h ****   \details Reverses the byte order in a 16-bit value and returns the signed 16-bit result. For exam
 323:STM32Cube_FW_N6/Drivers/CMSIS/Include/cmsis_gcc.h ****   \param [in]    value  Value to reverse
 324:STM32Cube_FW_N6/Drivers/CMSIS/Include/cmsis_gcc.h ****   \return               Reversed value
 325:STM32Cube_FW_N6/Drivers/CMSIS/Include/cmsis_gcc.h ****  */
ARM GAS  /tmp/ccRTEIeG.s 			page 14


 326:STM32Cube_FW_N6/Drivers/CMSIS/Include/cmsis_gcc.h **** __STATIC_FORCEINLINE int16_t __REVSH(int16_t value)
 327:STM32Cube_FW_N6/Drivers/CMSIS/Include/cmsis_gcc.h **** {
 328:STM32Cube_FW_N6/Drivers/CMSIS/Include/cmsis_gcc.h **** #if (__GNUC__ > 4) || (__GNUC__ == 4 && __GNUC_MINOR__ >= 8)
 329:STM32Cube_FW_N6/Drivers/CMSIS/Include/cmsis_gcc.h ****   return (int16_t)__builtin_bswap16(value);
 330:STM32Cube_FW_N6/Drivers/CMSIS/Include/cmsis_gcc.h **** #else
 331:STM32Cube_FW_N6/Drivers/CMSIS/Include/cmsis_gcc.h ****   int16_t result;
 332:STM32Cube_FW_N6/Drivers/CMSIS/Include/cmsis_gcc.h **** 
 333:STM32Cube_FW_N6/Drivers/CMSIS/Include/cmsis_gcc.h ****   __ASM ("revsh %0, %1" : __CMSIS_GCC_OUT_REG (result) : __CMSIS_GCC_USE_REG (value) );
 334:STM32Cube_FW_N6/Drivers/CMSIS/Include/cmsis_gcc.h ****   return result;
 335:STM32Cube_FW_N6/Drivers/CMSIS/Include/cmsis_gcc.h **** #endif
 336:STM32Cube_FW_N6/Drivers/CMSIS/Include/cmsis_gcc.h **** }
 337:STM32Cube_FW_N6/Drivers/CMSIS/Include/cmsis_gcc.h **** 
 338:STM32Cube_FW_N6/Drivers/CMSIS/Include/cmsis_gcc.h **** 
 339:STM32Cube_FW_N6/Drivers/CMSIS/Include/cmsis_gcc.h **** /**
 340:STM32Cube_FW_N6/Drivers/CMSIS/Include/cmsis_gcc.h ****   \brief   Rotate Right in unsigned value (32 bit)
 341:STM32Cube_FW_N6/Drivers/CMSIS/Include/cmsis_gcc.h ****   \details Rotate Right (immediate) provides the value of the contents of a register rotated by a v
 342:STM32Cube_FW_N6/Drivers/CMSIS/Include/cmsis_gcc.h ****   \param [in]    op1  Value to rotate
 343:STM32Cube_FW_N6/Drivers/CMSIS/Include/cmsis_gcc.h ****   \param [in]    op2  Number of Bits to rotate
 344:STM32Cube_FW_N6/Drivers/CMSIS/Include/cmsis_gcc.h ****   \return               Rotated value
 345:STM32Cube_FW_N6/Drivers/CMSIS/Include/cmsis_gcc.h ****  */
 346:STM32Cube_FW_N6/Drivers/CMSIS/Include/cmsis_gcc.h **** __STATIC_FORCEINLINE uint32_t __ROR(uint32_t op1, uint32_t op2)
 347:STM32Cube_FW_N6/Drivers/CMSIS/Include/cmsis_gcc.h **** {
 348:STM32Cube_FW_N6/Drivers/CMSIS/Include/cmsis_gcc.h ****   op2 %= 32U;
 349:STM32Cube_FW_N6/Drivers/CMSIS/Include/cmsis_gcc.h ****   if (op2 == 0U)
 350:STM32Cube_FW_N6/Drivers/CMSIS/Include/cmsis_gcc.h ****   {
 351:STM32Cube_FW_N6/Drivers/CMSIS/Include/cmsis_gcc.h ****     return op1;
 352:STM32Cube_FW_N6/Drivers/CMSIS/Include/cmsis_gcc.h ****   }
 353:STM32Cube_FW_N6/Drivers/CMSIS/Include/cmsis_gcc.h ****   return (op1 >> op2) | (op1 << (32U - op2));
 354:STM32Cube_FW_N6/Drivers/CMSIS/Include/cmsis_gcc.h **** }
 355:STM32Cube_FW_N6/Drivers/CMSIS/Include/cmsis_gcc.h **** 
 356:STM32Cube_FW_N6/Drivers/CMSIS/Include/cmsis_gcc.h **** 
 357:STM32Cube_FW_N6/Drivers/CMSIS/Include/cmsis_gcc.h **** /**
 358:STM32Cube_FW_N6/Drivers/CMSIS/Include/cmsis_gcc.h ****   \brief   Breakpoint
 359:STM32Cube_FW_N6/Drivers/CMSIS/Include/cmsis_gcc.h ****   \details Causes the processor to enter Debug state.
 360:STM32Cube_FW_N6/Drivers/CMSIS/Include/cmsis_gcc.h ****            Debug tools can use this to investigate system state when the instruction at a particula
 361:STM32Cube_FW_N6/Drivers/CMSIS/Include/cmsis_gcc.h ****   \param [in]    value  is ignored by the processor.
 362:STM32Cube_FW_N6/Drivers/CMSIS/Include/cmsis_gcc.h ****                  If required, a debugger can use it to store additional information about the break
 363:STM32Cube_FW_N6/Drivers/CMSIS/Include/cmsis_gcc.h ****  */
 364:STM32Cube_FW_N6/Drivers/CMSIS/Include/cmsis_gcc.h **** #define __BKPT(value)                       __ASM volatile ("bkpt "#value)
 365:STM32Cube_FW_N6/Drivers/CMSIS/Include/cmsis_gcc.h **** 
 366:STM32Cube_FW_N6/Drivers/CMSIS/Include/cmsis_gcc.h **** 
 367:STM32Cube_FW_N6/Drivers/CMSIS/Include/cmsis_gcc.h **** /**
 368:STM32Cube_FW_N6/Drivers/CMSIS/Include/cmsis_gcc.h ****   \brief   Reverse bit order of value
 369:STM32Cube_FW_N6/Drivers/CMSIS/Include/cmsis_gcc.h ****   \details Reverses the bit order of the given value.
 370:STM32Cube_FW_N6/Drivers/CMSIS/Include/cmsis_gcc.h ****   \param [in]    value  Value to reverse
 371:STM32Cube_FW_N6/Drivers/CMSIS/Include/cmsis_gcc.h ****   \return               Reversed value
 372:STM32Cube_FW_N6/Drivers/CMSIS/Include/cmsis_gcc.h ****  */
 373:STM32Cube_FW_N6/Drivers/CMSIS/Include/cmsis_gcc.h **** __STATIC_FORCEINLINE uint32_t __RBIT(uint32_t value)
 374:STM32Cube_FW_N6/Drivers/CMSIS/Include/cmsis_gcc.h **** {
 375:STM32Cube_FW_N6/Drivers/CMSIS/Include/cmsis_gcc.h ****   uint32_t result;
 376:STM32Cube_FW_N6/Drivers/CMSIS/Include/cmsis_gcc.h **** 
 377:STM32Cube_FW_N6/Drivers/CMSIS/Include/cmsis_gcc.h **** #if ((defined (__ARM_ARCH_7M__      ) && (__ARM_ARCH_7M__      == 1)) || \
 378:STM32Cube_FW_N6/Drivers/CMSIS/Include/cmsis_gcc.h ****      (defined (__ARM_ARCH_7EM__     ) && (__ARM_ARCH_7EM__     == 1)) || \
 379:STM32Cube_FW_N6/Drivers/CMSIS/Include/cmsis_gcc.h ****      (defined (__ARM_ARCH_8M_MAIN__ ) && (__ARM_ARCH_8M_MAIN__ == 1))    )
 380:STM32Cube_FW_N6/Drivers/CMSIS/Include/cmsis_gcc.h ****    __ASM ("rbit %0, %1" : "=r" (result) : "r" (value) );
 183              		.loc 2 380 4 is_stmt 1
 184 0044 3B69     		ldr	r3, [r7, #16]
ARM GAS  /tmp/ccRTEIeG.s 			page 15


 185              		.syntax unified
 186              	@ 380 "STM32Cube_FW_N6/Drivers/CMSIS/Include/cmsis_gcc.h" 1
 187 0046 93FAA3F3 		rbit r3, r3
 188              	@ 0 "" 2
 189              		.thumb
 190              		.syntax unified
 191 004a FB60     		str	r3, [r7, #12]
 381:STM32Cube_FW_N6/Drivers/CMSIS/Include/cmsis_gcc.h **** #else
 382:STM32Cube_FW_N6/Drivers/CMSIS/Include/cmsis_gcc.h ****   uint32_t s = (4U /*sizeof(v)*/ * 8U) - 1U; /* extra shift needed at end */
 383:STM32Cube_FW_N6/Drivers/CMSIS/Include/cmsis_gcc.h **** 
 384:STM32Cube_FW_N6/Drivers/CMSIS/Include/cmsis_gcc.h ****   result = value;                      /* r will be reversed bits of v; first get LSB of v */
 385:STM32Cube_FW_N6/Drivers/CMSIS/Include/cmsis_gcc.h ****   for (value >>= 1U; value != 0U; value >>= 1U)
 386:STM32Cube_FW_N6/Drivers/CMSIS/Include/cmsis_gcc.h ****   {
 387:STM32Cube_FW_N6/Drivers/CMSIS/Include/cmsis_gcc.h ****     result <<= 1U;
 388:STM32Cube_FW_N6/Drivers/CMSIS/Include/cmsis_gcc.h ****     result |= value & 1U;
 389:STM32Cube_FW_N6/Drivers/CMSIS/Include/cmsis_gcc.h ****     s--;
 390:STM32Cube_FW_N6/Drivers/CMSIS/Include/cmsis_gcc.h ****   }
 391:STM32Cube_FW_N6/Drivers/CMSIS/Include/cmsis_gcc.h ****   result <<= s;                        /* shift when v's highest bits are zero */
 392:STM32Cube_FW_N6/Drivers/CMSIS/Include/cmsis_gcc.h **** #endif
 393:STM32Cube_FW_N6/Drivers/CMSIS/Include/cmsis_gcc.h ****   return result;
 192              		.loc 2 393 10
 193 004c FB68     		ldr	r3, [r7, #12]
 194 004e 7B61     		str	r3, [r7, #20]
 195              	.LBE19:
 196              	.LBE18:
 197              	.LBB20:
 198              	.LBB21:
 394:STM32Cube_FW_N6/Drivers/CMSIS/Include/cmsis_gcc.h **** }
 395:STM32Cube_FW_N6/Drivers/CMSIS/Include/cmsis_gcc.h **** 
 396:STM32Cube_FW_N6/Drivers/CMSIS/Include/cmsis_gcc.h **** 
 397:STM32Cube_FW_N6/Drivers/CMSIS/Include/cmsis_gcc.h **** /**
 398:STM32Cube_FW_N6/Drivers/CMSIS/Include/cmsis_gcc.h ****   \brief   Count leading zeros
 399:STM32Cube_FW_N6/Drivers/CMSIS/Include/cmsis_gcc.h ****   \details Counts the number of leading zeros of a data value.
 400:STM32Cube_FW_N6/Drivers/CMSIS/Include/cmsis_gcc.h ****   \param [in]  value  Value to count the leading zeros
 401:STM32Cube_FW_N6/Drivers/CMSIS/Include/cmsis_gcc.h ****   \return             number of leading zeros in value
 402:STM32Cube_FW_N6/Drivers/CMSIS/Include/cmsis_gcc.h ****  */
 403:STM32Cube_FW_N6/Drivers/CMSIS/Include/cmsis_gcc.h **** __STATIC_FORCEINLINE uint8_t __CLZ(uint32_t value)
 404:STM32Cube_FW_N6/Drivers/CMSIS/Include/cmsis_gcc.h **** {
 405:STM32Cube_FW_N6/Drivers/CMSIS/Include/cmsis_gcc.h ****   /* Even though __builtin_clz produces a CLZ instruction on ARM, formally
 406:STM32Cube_FW_N6/Drivers/CMSIS/Include/cmsis_gcc.h ****      __builtin_clz(0) is undefined behaviour, so handle this case specially.
 407:STM32Cube_FW_N6/Drivers/CMSIS/Include/cmsis_gcc.h ****      This guarantees ARM-compatible results if happening to compile on a non-ARM
 408:STM32Cube_FW_N6/Drivers/CMSIS/Include/cmsis_gcc.h ****      target, and ensures the compiler doesn't decide to activate any
 409:STM32Cube_FW_N6/Drivers/CMSIS/Include/cmsis_gcc.h ****      optimisations using the logic "value was passed to __builtin_clz, so it
 410:STM32Cube_FW_N6/Drivers/CMSIS/Include/cmsis_gcc.h ****      is non-zero".
 411:STM32Cube_FW_N6/Drivers/CMSIS/Include/cmsis_gcc.h ****      ARM GCC 7.3 and possibly earlier will optimise this test away, leaving a
 412:STM32Cube_FW_N6/Drivers/CMSIS/Include/cmsis_gcc.h ****      single CLZ instruction.
 413:STM32Cube_FW_N6/Drivers/CMSIS/Include/cmsis_gcc.h ****    */
 414:STM32Cube_FW_N6/Drivers/CMSIS/Include/cmsis_gcc.h ****   if (value == 0U)
 199              		.loc 2 414 6
 200 0050 7B69     		ldr	r3, [r7, #20]
 201 0052 002B     		cmp	r3, #0
 202 0054 01D1     		bne	.L11
 415:STM32Cube_FW_N6/Drivers/CMSIS/Include/cmsis_gcc.h ****   {
 416:STM32Cube_FW_N6/Drivers/CMSIS/Include/cmsis_gcc.h ****     return 32U;
 203              		.loc 2 416 12
 204 0056 2023     		movs	r3, #32
 205 0058 03E0     		b	.L12
ARM GAS  /tmp/ccRTEIeG.s 			page 16


 206              	.L11:
 417:STM32Cube_FW_N6/Drivers/CMSIS/Include/cmsis_gcc.h ****   }
 418:STM32Cube_FW_N6/Drivers/CMSIS/Include/cmsis_gcc.h ****   return __builtin_clz(value);
 207              		.loc 2 418 10
 208 005a 7B69     		ldr	r3, [r7, #20]
 209 005c B3FA83F3 		clz	r3, r3
 210              		.loc 2 418 10 is_stmt 0 discriminator 1
 211 0060 DBB2     		uxtb	r3, r3
 212              	.L12:
 213              	.LBE21:
 214              	.LBE20:
 232:STM32Cube_FW_N6/Drivers/STM32N6xx_HAL_Driver/Src/stm32n6xx_hal_rif.c **** 
 233:STM32Cube_FW_N6/Drivers/STM32N6xx_HAL_Driver/Src/stm32n6xx_hal_rif.c ****   /* Set Debug Access Port CID bits */
 234:STM32Cube_FW_N6/Drivers/STM32N6xx_HAL_Driver/Src/stm32n6xx_hal_rif.c ****   dap_cid = POSITION_VAL(CID);
 215              		.loc 1 234 11 is_stmt 1 discriminator 2
 216 0062 FB61     		str	r3, [r7, #28]
 235:STM32Cube_FW_N6/Drivers/STM32N6xx_HAL_Driver/Src/stm32n6xx_hal_rif.c ****   rimc_cr_reg = RIFSC->RIMC_CR;
 217              		.loc 1 235 22
 218 0064 0B4B     		ldr	r3, .L13+4
 219              		.loc 1 235 15
 220 0066 D3F8003C 		ldr	r3, [r3, #3072]
 221 006a BB61     		str	r3, [r7, #24]
 236:STM32Cube_FW_N6/Drivers/STM32N6xx_HAL_Driver/Src/stm32n6xx_hal_rif.c ****   rimc_cr_reg &= (~RIFSC_RIMC_CR_DAPCID);
 222              		.loc 1 236 15
 223 006c BB69     		ldr	r3, [r7, #24]
 224 006e 23F4E063 		bic	r3, r3, #1792
 225 0072 BB61     		str	r3, [r7, #24]
 237:STM32Cube_FW_N6/Drivers/STM32N6xx_HAL_Driver/Src/stm32n6xx_hal_rif.c ****   rimc_cr_reg |= (dap_cid << RIFSC_RIMC_CR_DAPCID_Pos);
 226              		.loc 1 237 27
 227 0074 FB69     		ldr	r3, [r7, #28]
 228 0076 1B02     		lsls	r3, r3, #8
 229              		.loc 1 237 15
 230 0078 BA69     		ldr	r2, [r7, #24]
 231 007a 1343     		orrs	r3, r3, r2
 232 007c BB61     		str	r3, [r7, #24]
 238:STM32Cube_FW_N6/Drivers/STM32N6xx_HAL_Driver/Src/stm32n6xx_hal_rif.c ****   RIFSC->RIMC_CR = rimc_cr_reg;
 233              		.loc 1 238 8
 234 007e 054A     		ldr	r2, .L13+4
 235              		.loc 1 238 18
 236 0080 BB69     		ldr	r3, [r7, #24]
 237 0082 C2F8003C 		str	r3, [r2, #3072]
 239:STM32Cube_FW_N6/Drivers/STM32N6xx_HAL_Driver/Src/stm32n6xx_hal_rif.c **** }
 238              		.loc 1 239 1
 239 0086 00BF     		nop
 240 0088 2037     		adds	r7, r7, #32
 241              		.cfi_def_cfa_offset 8
 242 008a BD46     		mov	sp, r7
 243              		.cfi_def_cfa_register 13
 244              		@ sp needed
 245 008c 80BD     		pop	{r7, pc}
 246              	.L14:
 247 008e 00BF     		.align	2
 248              	.L13:
 249 0090 00000000 		.word	.LC0
 250 0094 00400254 		.word	1409433600
 251              		.cfi_endproc
 252              	.LFE837:
ARM GAS  /tmp/ccRTEIeG.s 			page 17


 254              		.section	.text.HAL_RIF_RIMC_GetDebugAccessPortCID,"ax",%progbits
 255              		.align	1
 256              		.global	HAL_RIF_RIMC_GetDebugAccessPortCID
 257              		.syntax unified
 258              		.thumb
 259              		.thumb_func
 261              	HAL_RIF_RIMC_GetDebugAccessPortCID:
 262              	.LFB838:
 240:STM32Cube_FW_N6/Drivers/STM32N6xx_HAL_Driver/Src/stm32n6xx_hal_rif.c **** #endif /* defined(CPU_AS_TRUSTED_DOMAIN) && defined(CPU_IN_SECURE_STATE) */
 241:STM32Cube_FW_N6/Drivers/STM32N6xx_HAL_Driver/Src/stm32n6xx_hal_rif.c **** 
 242:STM32Cube_FW_N6/Drivers/STM32N6xx_HAL_Driver/Src/stm32n6xx_hal_rif.c **** /**
 243:STM32Cube_FW_N6/Drivers/STM32N6xx_HAL_Driver/Src/stm32n6xx_hal_rif.c ****   * @brief  Get the Debugger Access Port ID
 244:STM32Cube_FW_N6/Drivers/STM32N6xx_HAL_Driver/Src/stm32n6xx_hal_rif.c ****   * @retval Debugger Access Port ID
 245:STM32Cube_FW_N6/Drivers/STM32N6xx_HAL_Driver/Src/stm32n6xx_hal_rif.c ****   */
 246:STM32Cube_FW_N6/Drivers/STM32N6xx_HAL_Driver/Src/stm32n6xx_hal_rif.c **** uint32_t HAL_RIF_RIMC_GetDebugAccessPortCID(void)
 247:STM32Cube_FW_N6/Drivers/STM32N6xx_HAL_Driver/Src/stm32n6xx_hal_rif.c **** {
 263              		.loc 1 247 1
 264              		.cfi_startproc
 265              		@ args = 0, pretend = 0, frame = 8
 266              		@ frame_needed = 1, uses_anonymous_args = 0
 267              		@ link register save eliminated.
 268 0000 80B4     		push	{r7}
 269              		.cfi_def_cfa_offset 4
 270              		.cfi_offset 7, -4
 271 0002 83B0     		sub	sp, sp, #12
 272              		.cfi_def_cfa_offset 16
 273 0004 00AF     		add	r7, sp, #0
 274              		.cfi_def_cfa_register 7
 248:STM32Cube_FW_N6/Drivers/STM32N6xx_HAL_Driver/Src/stm32n6xx_hal_rif.c ****   uint32_t dap_cid;
 249:STM32Cube_FW_N6/Drivers/STM32N6xx_HAL_Driver/Src/stm32n6xx_hal_rif.c **** 
 250:STM32Cube_FW_N6/Drivers/STM32N6xx_HAL_Driver/Src/stm32n6xx_hal_rif.c ****   /* Read Debug Access Port CID bits */
 251:STM32Cube_FW_N6/Drivers/STM32N6xx_HAL_Driver/Src/stm32n6xx_hal_rif.c ****   dap_cid = (RIFSC->RIMC_CR & RIFSC_RIMC_CR_DAPCID) >> RIFSC_RIMC_CR_DAPCID_Pos;
 275              		.loc 1 251 19
 276 0006 094B     		ldr	r3, .L17
 277 0008 D3F8003C 		ldr	r3, [r3, #3072]
 278              		.loc 1 251 53
 279 000c 1B0A     		lsrs	r3, r3, #8
 280              		.loc 1 251 11
 281 000e 03F00703 		and	r3, r3, #7
 282 0012 7B60     		str	r3, [r7, #4]
 252:STM32Cube_FW_N6/Drivers/STM32N6xx_HAL_Driver/Src/stm32n6xx_hal_rif.c ****   dap_cid = (1UL << dap_cid);
 283              		.loc 1 252 11
 284 0014 0122     		movs	r2, #1
 285 0016 7B68     		ldr	r3, [r7, #4]
 286 0018 02FA03F3 		lsl	r3, r2, r3
 287 001c 7B60     		str	r3, [r7, #4]
 253:STM32Cube_FW_N6/Drivers/STM32N6xx_HAL_Driver/Src/stm32n6xx_hal_rif.c ****   return dap_cid;
 288              		.loc 1 253 10
 289 001e 7B68     		ldr	r3, [r7, #4]
 254:STM32Cube_FW_N6/Drivers/STM32N6xx_HAL_Driver/Src/stm32n6xx_hal_rif.c **** }
 290              		.loc 1 254 1
 291 0020 1846     		mov	r0, r3
 292 0022 0C37     		adds	r7, r7, #12
 293              		.cfi_def_cfa_offset 4
 294 0024 BD46     		mov	sp, r7
 295              		.cfi_def_cfa_register 13
 296              		@ sp needed
ARM GAS  /tmp/ccRTEIeG.s 			page 18


 297 0026 5DF8047B 		ldr	r7, [sp], #4
 298              		.cfi_restore 7
 299              		.cfi_def_cfa_offset 0
 300 002a 7047     		bx	lr
 301              	.L18:
 302              		.align	2
 303              	.L17:
 304 002c 00400254 		.word	1409433600
 305              		.cfi_endproc
 306              	.LFE838:
 308              		.section	.text.HAL_RIF_RIMC_ConfigMasterAttributes,"ax",%progbits
 309              		.align	1
 310              		.global	HAL_RIF_RIMC_ConfigMasterAttributes
 311              		.syntax unified
 312              		.thumb
 313              		.thumb_func
 315              	HAL_RIF_RIMC_ConfigMasterAttributes:
 316              	.LFB839:
 255:STM32Cube_FW_N6/Drivers/STM32N6xx_HAL_Driver/Src/stm32n6xx_hal_rif.c **** 
 256:STM32Cube_FW_N6/Drivers/STM32N6xx_HAL_Driver/Src/stm32n6xx_hal_rif.c **** #if defined(CPU_AS_TRUSTED_DOMAIN) && defined(CPU_IN_SECURE_STATE)
 257:STM32Cube_FW_N6/Drivers/STM32N6xx_HAL_Driver/Src/stm32n6xx_hal_rif.c **** /**
 258:STM32Cube_FW_N6/Drivers/STM32N6xx_HAL_Driver/Src/stm32n6xx_hal_rif.c ****   * @brief  Configure CID, Secure and Privilege attributes for the designated master.
 259:STM32Cube_FW_N6/Drivers/STM32N6xx_HAL_Driver/Src/stm32n6xx_hal_rif.c ****   * @note   RIF_CID_7 is not an authorized value for the MasterCID field.
 260:STM32Cube_FW_N6/Drivers/STM32N6xx_HAL_Driver/Src/stm32n6xx_hal_rif.c ****   * @note   This API is protected by the Trusted Domain compilation directive.
 261:STM32Cube_FW_N6/Drivers/STM32N6xx_HAL_Driver/Src/stm32n6xx_hal_rif.c ****   * @note   This API is protected by the TrustZone Enabled compilation directive.
 262:STM32Cube_FW_N6/Drivers/STM32N6xx_HAL_Driver/Src/stm32n6xx_hal_rif.c ****   * @param  MasterId specifies the index of the bus master.
 263:STM32Cube_FW_N6/Drivers/STM32N6xx_HAL_Driver/Src/stm32n6xx_hal_rif.c ****   *         This parameter can be one of @ref RIF_MASTER_INDEX
 264:STM32Cube_FW_N6/Drivers/STM32N6xx_HAL_Driver/Src/stm32n6xx_hal_rif.c ****   * @param  pConfig Pointer on Master Isolation configuration structure
 265:STM32Cube_FW_N6/Drivers/STM32N6xx_HAL_Driver/Src/stm32n6xx_hal_rif.c ****   * @retval None
 266:STM32Cube_FW_N6/Drivers/STM32N6xx_HAL_Driver/Src/stm32n6xx_hal_rif.c ****   */
 267:STM32Cube_FW_N6/Drivers/STM32N6xx_HAL_Driver/Src/stm32n6xx_hal_rif.c **** void HAL_RIF_RIMC_ConfigMasterAttributes(uint32_t MasterId, const RIMC_MasterConfig_t *pConfig)
 268:STM32Cube_FW_N6/Drivers/STM32N6xx_HAL_Driver/Src/stm32n6xx_hal_rif.c **** {
 317              		.loc 1 268 1
 318              		.cfi_startproc
 319              		@ args = 0, pretend = 0, frame = 32
 320              		@ frame_needed = 1, uses_anonymous_args = 0
 321 0000 80B5     		push	{r7, lr}
 322              		.cfi_def_cfa_offset 8
 323              		.cfi_offset 7, -8
 324              		.cfi_offset 14, -4
 325 0002 88B0     		sub	sp, sp, #32
 326              		.cfi_def_cfa_offset 40
 327 0004 00AF     		add	r7, sp, #0
 328              		.cfi_def_cfa_register 7
 329 0006 7860     		str	r0, [r7, #4]
 330 0008 3960     		str	r1, [r7]
 269:STM32Cube_FW_N6/Drivers/STM32N6xx_HAL_Driver/Src/stm32n6xx_hal_rif.c ****   uint32_t master_cid;
 270:STM32Cube_FW_N6/Drivers/STM32N6xx_HAL_Driver/Src/stm32n6xx_hal_rif.c ****   uint32_t rimc_attr_val;
 271:STM32Cube_FW_N6/Drivers/STM32N6xx_HAL_Driver/Src/stm32n6xx_hal_rif.c **** 
 272:STM32Cube_FW_N6/Drivers/STM32N6xx_HAL_Driver/Src/stm32n6xx_hal_rif.c ****   /* Check the parameter */
 273:STM32Cube_FW_N6/Drivers/STM32N6xx_HAL_Driver/Src/stm32n6xx_hal_rif.c ****   assert_param(pConfig != (void *)NULL);
 331              		.loc 1 273 3
 332 000a 3B68     		ldr	r3, [r7]
 333 000c 002B     		cmp	r3, #0
 334 000e 04D1     		bne	.L20
 335              		.loc 1 273 3 is_stmt 0 discriminator 1
 336 0010 40F21111 		movw	r1, #273
ARM GAS  /tmp/ccRTEIeG.s 			page 19


 337 0014 4D48     		ldr	r0, .L29
 338 0016 FFF7FEFF 		bl	assert_failed
 339              	.L20:
 274:STM32Cube_FW_N6/Drivers/STM32N6xx_HAL_Driver/Src/stm32n6xx_hal_rif.c ****   assert_param(IS_RIF_MASTER_INDEX(MasterId));
 340              		.loc 1 274 3 is_stmt 1
 341 001a 7B68     		ldr	r3, [r7, #4]
 342 001c 002B     		cmp	r3, #0
 343 001e 28D0     		beq	.L21
 344              		.loc 1 274 3 is_stmt 0 discriminator 1
 345 0020 7B68     		ldr	r3, [r7, #4]
 346 0022 012B     		cmp	r3, #1
 347 0024 25D0     		beq	.L21
 348              		.loc 1 274 3 discriminator 2
 349 0026 7B68     		ldr	r3, [r7, #4]
 350 0028 022B     		cmp	r3, #2
 351 002a 22D0     		beq	.L21
 352              		.loc 1 274 3 discriminator 3
 353 002c 7B68     		ldr	r3, [r7, #4]
 354 002e 032B     		cmp	r3, #3
 355 0030 1FD0     		beq	.L21
 356              		.loc 1 274 3 discriminator 4
 357 0032 7B68     		ldr	r3, [r7, #4]
 358 0034 042B     		cmp	r3, #4
 359 0036 1CD0     		beq	.L21
 360              		.loc 1 274 3 discriminator 5
 361 0038 7B68     		ldr	r3, [r7, #4]
 362 003a 052B     		cmp	r3, #5
 363 003c 19D0     		beq	.L21
 364              		.loc 1 274 3 discriminator 6
 365 003e 7B68     		ldr	r3, [r7, #4]
 366 0040 062B     		cmp	r3, #6
 367 0042 16D0     		beq	.L21
 368              		.loc 1 274 3 discriminator 7
 369 0044 7B68     		ldr	r3, [r7, #4]
 370 0046 072B     		cmp	r3, #7
 371 0048 13D0     		beq	.L21
 372              		.loc 1 274 3 discriminator 8
 373 004a 7B68     		ldr	r3, [r7, #4]
 374 004c 082B     		cmp	r3, #8
 375 004e 10D0     		beq	.L21
 376              		.loc 1 274 3 discriminator 9
 377 0050 7B68     		ldr	r3, [r7, #4]
 378 0052 092B     		cmp	r3, #9
 379 0054 0DD0     		beq	.L21
 380              		.loc 1 274 3 discriminator 10
 381 0056 7B68     		ldr	r3, [r7, #4]
 382 0058 0A2B     		cmp	r3, #10
 383 005a 0AD0     		beq	.L21
 384              		.loc 1 274 3 discriminator 11
 385 005c 7B68     		ldr	r3, [r7, #4]
 386 005e 0B2B     		cmp	r3, #11
 387 0060 07D0     		beq	.L21
 388              		.loc 1 274 3 discriminator 12
 389 0062 7B68     		ldr	r3, [r7, #4]
 390 0064 0C2B     		cmp	r3, #12
 391 0066 04D0     		beq	.L21
 392              		.loc 1 274 3 discriminator 13
ARM GAS  /tmp/ccRTEIeG.s 			page 20


 393 0068 4FF48971 		mov	r1, #274
 394 006c 3748     		ldr	r0, .L29
 395 006e FFF7FEFF 		bl	assert_failed
 396              	.L21:
 275:STM32Cube_FW_N6/Drivers/STM32N6xx_HAL_Driver/Src/stm32n6xx_hal_rif.c ****   assert_param(IS_RIF_SINGLE_CID(pConfig->MasterCID));
 397              		.loc 1 275 3 is_stmt 1
 398 0072 3B68     		ldr	r3, [r7]
 399 0074 1B68     		ldr	r3, [r3]
 400 0076 012B     		cmp	r3, #1
 401 0078 20D0     		beq	.L22
 402              		.loc 1 275 3 is_stmt 0 discriminator 1
 403 007a 3B68     		ldr	r3, [r7]
 404 007c 1B68     		ldr	r3, [r3]
 405 007e 022B     		cmp	r3, #2
 406 0080 1CD0     		beq	.L22
 407              		.loc 1 275 3 discriminator 2
 408 0082 3B68     		ldr	r3, [r7]
 409 0084 1B68     		ldr	r3, [r3]
 410 0086 042B     		cmp	r3, #4
 411 0088 18D0     		beq	.L22
 412              		.loc 1 275 3 discriminator 3
 413 008a 3B68     		ldr	r3, [r7]
 414 008c 1B68     		ldr	r3, [r3]
 415 008e 082B     		cmp	r3, #8
 416 0090 14D0     		beq	.L22
 417              		.loc 1 275 3 discriminator 4
 418 0092 3B68     		ldr	r3, [r7]
 419 0094 1B68     		ldr	r3, [r3]
 420 0096 102B     		cmp	r3, #16
 421 0098 10D0     		beq	.L22
 422              		.loc 1 275 3 discriminator 5
 423 009a 3B68     		ldr	r3, [r7]
 424 009c 1B68     		ldr	r3, [r3]
 425 009e 202B     		cmp	r3, #32
 426 00a0 0CD0     		beq	.L22
 427              		.loc 1 275 3 discriminator 6
 428 00a2 3B68     		ldr	r3, [r7]
 429 00a4 1B68     		ldr	r3, [r3]
 430 00a6 402B     		cmp	r3, #64
 431 00a8 08D0     		beq	.L22
 432              		.loc 1 275 3 discriminator 7
 433 00aa 3B68     		ldr	r3, [r7]
 434 00ac 1B68     		ldr	r3, [r3]
 435 00ae 802B     		cmp	r3, #128
 436 00b0 04D0     		beq	.L22
 437              		.loc 1 275 3 discriminator 8
 438 00b2 40F21311 		movw	r1, #275
 439 00b6 2548     		ldr	r0, .L29
 440 00b8 FFF7FEFF 		bl	assert_failed
 441              	.L22:
 276:STM32Cube_FW_N6/Drivers/STM32N6xx_HAL_Driver/Src/stm32n6xx_hal_rif.c ****   assert_param(IS_RIF_MASTER_CID(pConfig->MasterCID));
 442              		.loc 1 276 3 is_stmt 1
 443 00bc 3B68     		ldr	r3, [r7]
 444 00be 1B68     		ldr	r3, [r3]
 445 00c0 802B     		cmp	r3, #128
 446 00c2 03D0     		beq	.L23
 447              		.loc 1 276 3 is_stmt 0 discriminator 2
ARM GAS  /tmp/ccRTEIeG.s 			page 21


 448 00c4 3B68     		ldr	r3, [r7]
 449 00c6 1B68     		ldr	r3, [r3]
 450 00c8 FF2B     		cmp	r3, #255
 451 00ca 04D9     		bls	.L24
 452              	.L23:
 453              		.loc 1 276 3 discriminator 3
 454 00cc 4FF48A71 		mov	r1, #276
 455 00d0 1E48     		ldr	r0, .L29
 456 00d2 FFF7FEFF 		bl	assert_failed
 457              	.L24:
 277:STM32Cube_FW_N6/Drivers/STM32N6xx_HAL_Driver/Src/stm32n6xx_hal_rif.c ****   assert_param(IS_RIF_SEC_PRIV_ATTRIBUTE(pConfig->SecPriv));
 458              		.loc 1 277 3 is_stmt 1
 459 00d6 3B68     		ldr	r3, [r7]
 460 00d8 5B68     		ldr	r3, [r3, #4]
 461 00da 032B     		cmp	r3, #3
 462 00dc 04D9     		bls	.L25
 463              		.loc 1 277 3 is_stmt 0 discriminator 1
 464 00de 40F21511 		movw	r1, #277
 465 00e2 1A48     		ldr	r0, .L29
 466 00e4 FFF7FEFF 		bl	assert_failed
 467              	.L25:
 278:STM32Cube_FW_N6/Drivers/STM32N6xx_HAL_Driver/Src/stm32n6xx_hal_rif.c **** 
 279:STM32Cube_FW_N6/Drivers/STM32N6xx_HAL_Driver/Src/stm32n6xx_hal_rif.c ****   master_cid = POSITION_VAL(pConfig->MasterCID);
 468              		.loc 1 279 16 is_stmt 1
 469 00e8 3B68     		ldr	r3, [r7]
 470 00ea 1B68     		ldr	r3, [r3]
 471 00ec 3B61     		str	r3, [r7, #16]
 472              	.LBB22:
 473              	.LBB23:
 380:STM32Cube_FW_N6/Drivers/CMSIS/Include/cmsis_gcc.h **** #else
 474              		.loc 2 380 4
 475 00ee 3B69     		ldr	r3, [r7, #16]
 476              		.syntax unified
 477              	@ 380 "STM32Cube_FW_N6/Drivers/CMSIS/Include/cmsis_gcc.h" 1
 478 00f0 93FAA3F3 		rbit r3, r3
 479              	@ 0 "" 2
 480              		.thumb
 481              		.syntax unified
 482 00f4 FB60     		str	r3, [r7, #12]
 393:STM32Cube_FW_N6/Drivers/CMSIS/Include/cmsis_gcc.h **** }
 483              		.loc 2 393 10
 484 00f6 FB68     		ldr	r3, [r7, #12]
 485 00f8 7B61     		str	r3, [r7, #20]
 486              	.LBE23:
 487              	.LBE22:
 488              	.LBB24:
 489              	.LBB25:
 414:STM32Cube_FW_N6/Drivers/CMSIS/Include/cmsis_gcc.h ****   {
 490              		.loc 2 414 6
 491 00fa 7B69     		ldr	r3, [r7, #20]
 492 00fc 002B     		cmp	r3, #0
 493 00fe 01D1     		bne	.L27
 416:STM32Cube_FW_N6/Drivers/CMSIS/Include/cmsis_gcc.h ****   }
 494              		.loc 2 416 12
 495 0100 2023     		movs	r3, #32
 496 0102 03E0     		b	.L28
 497              	.L27:
ARM GAS  /tmp/ccRTEIeG.s 			page 22


 498              		.loc 2 418 10
 499 0104 7B69     		ldr	r3, [r7, #20]
 500 0106 B3FA83F3 		clz	r3, r3
 501              		.loc 2 418 10 is_stmt 0 discriminator 1
 502 010a DBB2     		uxtb	r3, r3
 503              	.L28:
 504              	.LBE25:
 505              	.LBE24:
 506              		.loc 1 279 14 is_stmt 1 discriminator 2
 507 010c FB61     		str	r3, [r7, #28]
 280:STM32Cube_FW_N6/Drivers/STM32N6xx_HAL_Driver/Src/stm32n6xx_hal_rif.c ****   rimc_attr_val = RIFSC->RIMC_ATTRx[MasterId];
 508              		.loc 1 280 24
 509 010e 104A     		ldr	r2, .L29+4
 510              		.loc 1 280 17
 511 0110 7B68     		ldr	r3, [r7, #4]
 512 0112 03F54173 		add	r3, r3, #772
 513 0116 52F82330 		ldr	r3, [r2, r3, lsl #2]
 514 011a BB61     		str	r3, [r7, #24]
 281:STM32Cube_FW_N6/Drivers/STM32N6xx_HAL_Driver/Src/stm32n6xx_hal_rif.c ****   rimc_attr_val &= (~(RIFSC_RIMC_ATTRx_MCID | RIFSC_RIMC_ATTRx_MPRIV | RIFSC_RIMC_ATTRx_MSEC));
 515              		.loc 1 281 17
 516 011c BB69     		ldr	r3, [r7, #24]
 517 011e 23F45C73 		bic	r3, r3, #880
 518 0122 BB61     		str	r3, [r7, #24]
 282:STM32Cube_FW_N6/Drivers/STM32N6xx_HAL_Driver/Src/stm32n6xx_hal_rif.c ****   rimc_attr_val |= ((master_cid << RIFSC_RIMC_ATTRx_MCID_Pos) | (pConfig->SecPriv << RIFSC_RIMC_ATT
 519              		.loc 1 282 33
 520 0124 FB69     		ldr	r3, [r7, #28]
 521 0126 1A01     		lsls	r2, r3, #4
 522              		.loc 1 282 73
 523 0128 3B68     		ldr	r3, [r7]
 524 012a 5B68     		ldr	r3, [r3, #4]
 525              		.loc 1 282 83
 526 012c 1B02     		lsls	r3, r3, #8
 527              		.loc 1 282 63
 528 012e 1343     		orrs	r3, r3, r2
 529              		.loc 1 282 17
 530 0130 BA69     		ldr	r2, [r7, #24]
 531 0132 1343     		orrs	r3, r3, r2
 532 0134 BB61     		str	r3, [r7, #24]
 283:STM32Cube_FW_N6/Drivers/STM32N6xx_HAL_Driver/Src/stm32n6xx_hal_rif.c ****   RIFSC->RIMC_ATTRx[MasterId] = rimc_attr_val;
 533              		.loc 1 283 8
 534 0136 0649     		ldr	r1, .L29+4
 535              		.loc 1 283 31
 536 0138 7B68     		ldr	r3, [r7, #4]
 537 013a 03F54173 		add	r3, r3, #772
 538 013e BA69     		ldr	r2, [r7, #24]
 539 0140 41F82320 		str	r2, [r1, r3, lsl #2]
 284:STM32Cube_FW_N6/Drivers/STM32N6xx_HAL_Driver/Src/stm32n6xx_hal_rif.c **** }
 540              		.loc 1 284 1
 541 0144 00BF     		nop
 542 0146 2037     		adds	r7, r7, #32
 543              		.cfi_def_cfa_offset 8
 544 0148 BD46     		mov	sp, r7
 545              		.cfi_def_cfa_register 13
 546              		@ sp needed
 547 014a 80BD     		pop	{r7, pc}
 548              	.L30:
 549              		.align	2
ARM GAS  /tmp/ccRTEIeG.s 			page 23


 550              	.L29:
 551 014c 00000000 		.word	.LC0
 552 0150 00400254 		.word	1409433600
 553              		.cfi_endproc
 554              	.LFE839:
 556              		.section	.text.HAL_RIF_RIMC_GetConfigMasterAttributes,"ax",%progbits
 557              		.align	1
 558              		.global	HAL_RIF_RIMC_GetConfigMasterAttributes
 559              		.syntax unified
 560              		.thumb
 561              		.thumb_func
 563              	HAL_RIF_RIMC_GetConfigMasterAttributes:
 564              	.LFB840:
 285:STM32Cube_FW_N6/Drivers/STM32N6xx_HAL_Driver/Src/stm32n6xx_hal_rif.c **** #endif /* defined(CPU_AS_TRUSTED_DOMAIN) && defined(CPU_IN_SECURE_STATE) */
 286:STM32Cube_FW_N6/Drivers/STM32N6xx_HAL_Driver/Src/stm32n6xx_hal_rif.c **** 
 287:STM32Cube_FW_N6/Drivers/STM32N6xx_HAL_Driver/Src/stm32n6xx_hal_rif.c **** /**
 288:STM32Cube_FW_N6/Drivers/STM32N6xx_HAL_Driver/Src/stm32n6xx_hal_rif.c ****   * @brief  Get the CID, Secure and Privilege attributes for the designated master.
 289:STM32Cube_FW_N6/Drivers/STM32N6xx_HAL_Driver/Src/stm32n6xx_hal_rif.c ****   * @note   This API is protected by the Trusted Domain compilation directive.
 290:STM32Cube_FW_N6/Drivers/STM32N6xx_HAL_Driver/Src/stm32n6xx_hal_rif.c ****   * @param  MasterId specifies the index of the bus master.
 291:STM32Cube_FW_N6/Drivers/STM32N6xx_HAL_Driver/Src/stm32n6xx_hal_rif.c ****   *         This parameter can be one of @ref RIF_MASTER_INDEX
 292:STM32Cube_FW_N6/Drivers/STM32N6xx_HAL_Driver/Src/stm32n6xx_hal_rif.c ****   * @param  pConfig Pointer on Master Isolation configuration structure
 293:STM32Cube_FW_N6/Drivers/STM32N6xx_HAL_Driver/Src/stm32n6xx_hal_rif.c ****   * @retval None
 294:STM32Cube_FW_N6/Drivers/STM32N6xx_HAL_Driver/Src/stm32n6xx_hal_rif.c ****   */
 295:STM32Cube_FW_N6/Drivers/STM32N6xx_HAL_Driver/Src/stm32n6xx_hal_rif.c **** void HAL_RIF_RIMC_GetConfigMasterAttributes(uint32_t MasterId, RIMC_MasterConfig_t *pConfig)
 296:STM32Cube_FW_N6/Drivers/STM32N6xx_HAL_Driver/Src/stm32n6xx_hal_rif.c **** {
 565              		.loc 1 296 1
 566              		.cfi_startproc
 567              		@ args = 0, pretend = 0, frame = 16
 568              		@ frame_needed = 1, uses_anonymous_args = 0
 569 0000 80B5     		push	{r7, lr}
 570              		.cfi_def_cfa_offset 8
 571              		.cfi_offset 7, -8
 572              		.cfi_offset 14, -4
 573 0002 84B0     		sub	sp, sp, #16
 574              		.cfi_def_cfa_offset 24
 575 0004 00AF     		add	r7, sp, #0
 576              		.cfi_def_cfa_register 7
 577 0006 7860     		str	r0, [r7, #4]
 578 0008 3960     		str	r1, [r7]
 297:STM32Cube_FW_N6/Drivers/STM32N6xx_HAL_Driver/Src/stm32n6xx_hal_rif.c ****   uint32_t master_cid;
 298:STM32Cube_FW_N6/Drivers/STM32N6xx_HAL_Driver/Src/stm32n6xx_hal_rif.c ****   uint32_t rimc_attr_val;
 299:STM32Cube_FW_N6/Drivers/STM32N6xx_HAL_Driver/Src/stm32n6xx_hal_rif.c **** 
 300:STM32Cube_FW_N6/Drivers/STM32N6xx_HAL_Driver/Src/stm32n6xx_hal_rif.c ****   /* Check the parameter */
 301:STM32Cube_FW_N6/Drivers/STM32N6xx_HAL_Driver/Src/stm32n6xx_hal_rif.c ****   assert_param(pConfig != (void *)NULL);
 579              		.loc 1 301 3
 580 000a 3B68     		ldr	r3, [r7]
 581 000c 002B     		cmp	r3, #0
 582 000e 04D1     		bne	.L32
 583              		.loc 1 301 3 is_stmt 0 discriminator 1
 584 0010 40F22D11 		movw	r1, #301
 585 0014 2448     		ldr	r0, .L34
 586 0016 FFF7FEFF 		bl	assert_failed
 587              	.L32:
 302:STM32Cube_FW_N6/Drivers/STM32N6xx_HAL_Driver/Src/stm32n6xx_hal_rif.c ****   assert_param(IS_RIF_MASTER_INDEX(MasterId));
 588              		.loc 1 302 3 is_stmt 1
 589 001a 7B68     		ldr	r3, [r7, #4]
 590 001c 002B     		cmp	r3, #0
ARM GAS  /tmp/ccRTEIeG.s 			page 24


 591 001e 28D0     		beq	.L33
 592              		.loc 1 302 3 is_stmt 0 discriminator 1
 593 0020 7B68     		ldr	r3, [r7, #4]
 594 0022 012B     		cmp	r3, #1
 595 0024 25D0     		beq	.L33
 596              		.loc 1 302 3 discriminator 2
 597 0026 7B68     		ldr	r3, [r7, #4]
 598 0028 022B     		cmp	r3, #2
 599 002a 22D0     		beq	.L33
 600              		.loc 1 302 3 discriminator 3
 601 002c 7B68     		ldr	r3, [r7, #4]
 602 002e 032B     		cmp	r3, #3
 603 0030 1FD0     		beq	.L33
 604              		.loc 1 302 3 discriminator 4
 605 0032 7B68     		ldr	r3, [r7, #4]
 606 0034 042B     		cmp	r3, #4
 607 0036 1CD0     		beq	.L33
 608              		.loc 1 302 3 discriminator 5
 609 0038 7B68     		ldr	r3, [r7, #4]
 610 003a 052B     		cmp	r3, #5
 611 003c 19D0     		beq	.L33
 612              		.loc 1 302 3 discriminator 6
 613 003e 7B68     		ldr	r3, [r7, #4]
 614 0040 062B     		cmp	r3, #6
 615 0042 16D0     		beq	.L33
 616              		.loc 1 302 3 discriminator 7
 617 0044 7B68     		ldr	r3, [r7, #4]
 618 0046 072B     		cmp	r3, #7
 619 0048 13D0     		beq	.L33
 620              		.loc 1 302 3 discriminator 8
 621 004a 7B68     		ldr	r3, [r7, #4]
 622 004c 082B     		cmp	r3, #8
 623 004e 10D0     		beq	.L33
 624              		.loc 1 302 3 discriminator 9
 625 0050 7B68     		ldr	r3, [r7, #4]
 626 0052 092B     		cmp	r3, #9
 627 0054 0DD0     		beq	.L33
 628              		.loc 1 302 3 discriminator 10
 629 0056 7B68     		ldr	r3, [r7, #4]
 630 0058 0A2B     		cmp	r3, #10
 631 005a 0AD0     		beq	.L33
 632              		.loc 1 302 3 discriminator 11
 633 005c 7B68     		ldr	r3, [r7, #4]
 634 005e 0B2B     		cmp	r3, #11
 635 0060 07D0     		beq	.L33
 636              		.loc 1 302 3 discriminator 12
 637 0062 7B68     		ldr	r3, [r7, #4]
 638 0064 0C2B     		cmp	r3, #12
 639 0066 04D0     		beq	.L33
 640              		.loc 1 302 3 discriminator 13
 641 0068 4FF49771 		mov	r1, #302
 642 006c 0E48     		ldr	r0, .L34
 643 006e FFF7FEFF 		bl	assert_failed
 644              	.L33:
 303:STM32Cube_FW_N6/Drivers/STM32N6xx_HAL_Driver/Src/stm32n6xx_hal_rif.c **** 
 304:STM32Cube_FW_N6/Drivers/STM32N6xx_HAL_Driver/Src/stm32n6xx_hal_rif.c ****   rimc_attr_val = RIFSC->RIMC_ATTRx[MasterId];
 645              		.loc 1 304 24 is_stmt 1
ARM GAS  /tmp/ccRTEIeG.s 			page 25


 646 0072 0E4A     		ldr	r2, .L34+4
 647              		.loc 1 304 17
 648 0074 7B68     		ldr	r3, [r7, #4]
 649 0076 03F54173 		add	r3, r3, #772
 650 007a 52F82330 		ldr	r3, [r2, r3, lsl #2]
 651 007e FB60     		str	r3, [r7, #12]
 305:STM32Cube_FW_N6/Drivers/STM32N6xx_HAL_Driver/Src/stm32n6xx_hal_rif.c ****   pConfig->SecPriv = ((rimc_attr_val & (RIFSC_RIMC_ATTRx_MPRIV | RIFSC_RIMC_ATTRx_MSEC))
 306:STM32Cube_FW_N6/Drivers/STM32N6xx_HAL_Driver/Src/stm32n6xx_hal_rif.c ****                       >> RIFSC_RIMC_ATTRx_MSEC_Pos);
 652              		.loc 1 306 23
 653 0080 FB68     		ldr	r3, [r7, #12]
 654 0082 1B0A     		lsrs	r3, r3, #8
 655 0084 03F00302 		and	r2, r3, #3
 305:STM32Cube_FW_N6/Drivers/STM32N6xx_HAL_Driver/Src/stm32n6xx_hal_rif.c ****   pConfig->SecPriv = ((rimc_attr_val & (RIFSC_RIMC_ATTRx_MPRIV | RIFSC_RIMC_ATTRx_MSEC))
 656              		.loc 1 305 20
 657 0088 3B68     		ldr	r3, [r7]
 658 008a 5A60     		str	r2, [r3, #4]
 307:STM32Cube_FW_N6/Drivers/STM32N6xx_HAL_Driver/Src/stm32n6xx_hal_rif.c ****   master_cid = ((rimc_attr_val & RIFSC_RIMC_ATTRx_MCID) >> RIFSC_RIMC_ATTRx_MCID_Pos);
 659              		.loc 1 307 57
 660 008c FB68     		ldr	r3, [r7, #12]
 661 008e 1B09     		lsrs	r3, r3, #4
 662              		.loc 1 307 14
 663 0090 03F00703 		and	r3, r3, #7
 664 0094 BB60     		str	r3, [r7, #8]
 308:STM32Cube_FW_N6/Drivers/STM32N6xx_HAL_Driver/Src/stm32n6xx_hal_rif.c ****   pConfig->MasterCID = (1UL << master_cid);
 665              		.loc 1 308 29
 666 0096 0122     		movs	r2, #1
 667 0098 BB68     		ldr	r3, [r7, #8]
 668 009a 9A40     		lsls	r2, r2, r3
 669              		.loc 1 308 22
 670 009c 3B68     		ldr	r3, [r7]
 671 009e 1A60     		str	r2, [r3]
 309:STM32Cube_FW_N6/Drivers/STM32N6xx_HAL_Driver/Src/stm32n6xx_hal_rif.c **** }
 672              		.loc 1 309 1
 673 00a0 00BF     		nop
 674 00a2 1037     		adds	r7, r7, #16
 675              		.cfi_def_cfa_offset 8
 676 00a4 BD46     		mov	sp, r7
 677              		.cfi_def_cfa_register 13
 678              		@ sp needed
 679 00a6 80BD     		pop	{r7, pc}
 680              	.L35:
 681              		.align	2
 682              	.L34:
 683 00a8 00000000 		.word	.LC0
 684 00ac 00400254 		.word	1409433600
 685              		.cfi_endproc
 686              	.LFE840:
 688              		.section	.text.HAL_RIF_RISC_Lock,"ax",%progbits
 689              		.align	1
 690              		.global	HAL_RIF_RISC_Lock
 691              		.syntax unified
 692              		.thumb
 693              		.thumb_func
 695              	HAL_RIF_RISC_Lock:
 696              	.LFB841:
 310:STM32Cube_FW_N6/Drivers/STM32N6xx_HAL_Driver/Src/stm32n6xx_hal_rif.c **** /**
 311:STM32Cube_FW_N6/Drivers/STM32N6xx_HAL_Driver/Src/stm32n6xx_hal_rif.c ****   * @}
ARM GAS  /tmp/ccRTEIeG.s 			page 26


 312:STM32Cube_FW_N6/Drivers/STM32N6xx_HAL_Driver/Src/stm32n6xx_hal_rif.c ****   */
 313:STM32Cube_FW_N6/Drivers/STM32N6xx_HAL_Driver/Src/stm32n6xx_hal_rif.c **** 
 314:STM32Cube_FW_N6/Drivers/STM32N6xx_HAL_Driver/Src/stm32n6xx_hal_rif.c **** /** @defgroup RIF_Exported_Functions_Group2  RIFSC Configuration functions
 315:STM32Cube_FW_N6/Drivers/STM32N6xx_HAL_Driver/Src/stm32n6xx_hal_rif.c ****   *  @brief    RIFSC Configuration functions
 316:STM32Cube_FW_N6/Drivers/STM32N6xx_HAL_Driver/Src/stm32n6xx_hal_rif.c ****   *
 317:STM32Cube_FW_N6/Drivers/STM32N6xx_HAL_Driver/Src/stm32n6xx_hal_rif.c **** @verbatim
 318:STM32Cube_FW_N6/Drivers/STM32N6xx_HAL_Driver/Src/stm32n6xx_hal_rif.c ****   ==============================================================================
 319:STM32Cube_FW_N6/Drivers/STM32N6xx_HAL_Driver/Src/stm32n6xx_hal_rif.c ****             ##### RIFSC Configuration functions #####
 320:STM32Cube_FW_N6/Drivers/STM32N6xx_HAL_Driver/Src/stm32n6xx_hal_rif.c ****   ==============================================================================
 321:STM32Cube_FW_N6/Drivers/STM32N6xx_HAL_Driver/Src/stm32n6xx_hal_rif.c ****   [..]
 322:STM32Cube_FW_N6/Drivers/STM32N6xx_HAL_Driver/Src/stm32n6xx_hal_rif.c ****     This section provides functions allowing to configure RIFSC
 323:STM32Cube_FW_N6/Drivers/STM32N6xx_HAL_Driver/Src/stm32n6xx_hal_rif.c ****     RIFSC is Resource Isolation Framework Secure Controller
 324:STM32Cube_FW_N6/Drivers/STM32N6xx_HAL_Driver/Src/stm32n6xx_hal_rif.c **** @endverbatim
 325:STM32Cube_FW_N6/Drivers/STM32N6xx_HAL_Driver/Src/stm32n6xx_hal_rif.c ****   * @{
 326:STM32Cube_FW_N6/Drivers/STM32N6xx_HAL_Driver/Src/stm32n6xx_hal_rif.c ****   */
 327:STM32Cube_FW_N6/Drivers/STM32N6xx_HAL_Driver/Src/stm32n6xx_hal_rif.c **** #if defined(CPU_AS_TRUSTED_DOMAIN) && defined(CPU_IN_SECURE_STATE)
 328:STM32Cube_FW_N6/Drivers/STM32N6xx_HAL_Driver/Src/stm32n6xx_hal_rif.c **** /**
 329:STM32Cube_FW_N6/Drivers/STM32N6xx_HAL_Driver/Src/stm32n6xx_hal_rif.c ****   * @brief  Lock overall configuration of RISC.
 330:STM32Cube_FW_N6/Drivers/STM32N6xx_HAL_Driver/Src/stm32n6xx_hal_rif.c ****   * @note   Once set, the overall configuration of RIFSC cannot be modified
 331:STM32Cube_FW_N6/Drivers/STM32N6xx_HAL_Driver/Src/stm32n6xx_hal_rif.c ****   *         upon next system reset.
 332:STM32Cube_FW_N6/Drivers/STM32N6xx_HAL_Driver/Src/stm32n6xx_hal_rif.c ****   * @note   This API is protected by the Trusted Domain compilation directive.
 333:STM32Cube_FW_N6/Drivers/STM32N6xx_HAL_Driver/Src/stm32n6xx_hal_rif.c ****   * @note   This API is protected by the TrustZone Enabled compilation directive.
 334:STM32Cube_FW_N6/Drivers/STM32N6xx_HAL_Driver/Src/stm32n6xx_hal_rif.c ****   * @retval None
 335:STM32Cube_FW_N6/Drivers/STM32N6xx_HAL_Driver/Src/stm32n6xx_hal_rif.c ****   */
 336:STM32Cube_FW_N6/Drivers/STM32N6xx_HAL_Driver/Src/stm32n6xx_hal_rif.c **** void HAL_RIF_RISC_Lock(void)
 337:STM32Cube_FW_N6/Drivers/STM32N6xx_HAL_Driver/Src/stm32n6xx_hal_rif.c **** {
 697              		.loc 1 337 1
 698              		.cfi_startproc
 699              		@ args = 0, pretend = 0, frame = 0
 700              		@ frame_needed = 1, uses_anonymous_args = 0
 701              		@ link register save eliminated.
 702 0000 80B4     		push	{r7}
 703              		.cfi_def_cfa_offset 4
 704              		.cfi_offset 7, -4
 705 0002 00AF     		add	r7, sp, #0
 706              		.cfi_def_cfa_register 7
 338:STM32Cube_FW_N6/Drivers/STM32N6xx_HAL_Driver/Src/stm32n6xx_hal_rif.c ****   /* Set RISC Lock bit */
 339:STM32Cube_FW_N6/Drivers/STM32N6xx_HAL_Driver/Src/stm32n6xx_hal_rif.c ****   RIFSC->RISC_CR |= RIFSC_RISC_CR_GLOCK;
 707              		.loc 1 339 8
 708 0004 054B     		ldr	r3, .L37
 709 0006 1B68     		ldr	r3, [r3]
 710 0008 044A     		ldr	r2, .L37
 711              		.loc 1 339 18
 712 000a 43F00103 		orr	r3, r3, #1
 713 000e 1360     		str	r3, [r2]
 340:STM32Cube_FW_N6/Drivers/STM32N6xx_HAL_Driver/Src/stm32n6xx_hal_rif.c **** }
 714              		.loc 1 340 1
 715 0010 00BF     		nop
 716 0012 BD46     		mov	sp, r7
 717              		.cfi_def_cfa_register 13
 718              		@ sp needed
 719 0014 5DF8047B 		ldr	r7, [sp], #4
 720              		.cfi_restore 7
 721              		.cfi_def_cfa_offset 0
 722 0018 7047     		bx	lr
 723              	.L38:
 724 001a 00BF     		.align	2
ARM GAS  /tmp/ccRTEIeG.s 			page 27


 725              	.L37:
 726 001c 00400254 		.word	1409433600
 727              		.cfi_endproc
 728              	.LFE841:
 730              		.section	.text.HAL_RIF_RISC_GetLock,"ax",%progbits
 731              		.align	1
 732              		.global	HAL_RIF_RISC_GetLock
 733              		.syntax unified
 734              		.thumb
 735              		.thumb_func
 737              	HAL_RIF_RISC_GetLock:
 738              	.LFB842:
 341:STM32Cube_FW_N6/Drivers/STM32N6xx_HAL_Driver/Src/stm32n6xx_hal_rif.c **** #endif /* defined(CPU_AS_TRUSTED_DOMAIN) && defined(CPU_IN_SECURE_STATE) */
 342:STM32Cube_FW_N6/Drivers/STM32N6xx_HAL_Driver/Src/stm32n6xx_hal_rif.c **** 
 343:STM32Cube_FW_N6/Drivers/STM32N6xx_HAL_Driver/Src/stm32n6xx_hal_rif.c **** /**
 344:STM32Cube_FW_N6/Drivers/STM32N6xx_HAL_Driver/Src/stm32n6xx_hal_rif.c ****   * @brief  Get the RIFSC global lock status.
 345:STM32Cube_FW_N6/Drivers/STM32N6xx_HAL_Driver/Src/stm32n6xx_hal_rif.c ****   * @retval 1 if RISC configuration is locked, else 0
 346:STM32Cube_FW_N6/Drivers/STM32N6xx_HAL_Driver/Src/stm32n6xx_hal_rif.c ****   */
 347:STM32Cube_FW_N6/Drivers/STM32N6xx_HAL_Driver/Src/stm32n6xx_hal_rif.c **** uint32_t HAL_RIF_RISC_GetLock(void)
 348:STM32Cube_FW_N6/Drivers/STM32N6xx_HAL_Driver/Src/stm32n6xx_hal_rif.c **** {
 739              		.loc 1 348 1
 740              		.cfi_startproc
 741              		@ args = 0, pretend = 0, frame = 8
 742              		@ frame_needed = 1, uses_anonymous_args = 0
 743              		@ link register save eliminated.
 744 0000 80B4     		push	{r7}
 745              		.cfi_def_cfa_offset 4
 746              		.cfi_offset 7, -4
 747 0002 83B0     		sub	sp, sp, #12
 748              		.cfi_def_cfa_offset 16
 749 0004 00AF     		add	r7, sp, #0
 750              		.cfi_def_cfa_register 7
 349:STM32Cube_FW_N6/Drivers/STM32N6xx_HAL_Driver/Src/stm32n6xx_hal_rif.c ****   uint32_t lock_status;
 350:STM32Cube_FW_N6/Drivers/STM32N6xx_HAL_Driver/Src/stm32n6xx_hal_rif.c **** 
 351:STM32Cube_FW_N6/Drivers/STM32N6xx_HAL_Driver/Src/stm32n6xx_hal_rif.c ****   /* Read RISC lock bit */
 352:STM32Cube_FW_N6/Drivers/STM32N6xx_HAL_Driver/Src/stm32n6xx_hal_rif.c ****   lock_status = (RIFSC->RISC_CR & RIF_LOCK_ENABLE);
 751              		.loc 1 352 23
 752 0006 064B     		ldr	r3, .L41
 753 0008 1B68     		ldr	r3, [r3]
 754              		.loc 1 352 15
 755 000a 03F00103 		and	r3, r3, #1
 756 000e 7B60     		str	r3, [r7, #4]
 353:STM32Cube_FW_N6/Drivers/STM32N6xx_HAL_Driver/Src/stm32n6xx_hal_rif.c **** 
 354:STM32Cube_FW_N6/Drivers/STM32N6xx_HAL_Driver/Src/stm32n6xx_hal_rif.c ****   return lock_status;
 757              		.loc 1 354 10
 758 0010 7B68     		ldr	r3, [r7, #4]
 355:STM32Cube_FW_N6/Drivers/STM32N6xx_HAL_Driver/Src/stm32n6xx_hal_rif.c **** }
 759              		.loc 1 355 1
 760 0012 1846     		mov	r0, r3
 761 0014 0C37     		adds	r7, r7, #12
 762              		.cfi_def_cfa_offset 4
 763 0016 BD46     		mov	sp, r7
 764              		.cfi_def_cfa_register 13
 765              		@ sp needed
 766 0018 5DF8047B 		ldr	r7, [sp], #4
 767              		.cfi_restore 7
 768              		.cfi_def_cfa_offset 0
ARM GAS  /tmp/ccRTEIeG.s 			page 28


 769 001c 7047     		bx	lr
 770              	.L42:
 771 001e 00BF     		.align	2
 772              	.L41:
 773 0020 00400254 		.word	1409433600
 774              		.cfi_endproc
 775              	.LFE842:
 777              		.section	.text.HAL_RIF_RISC_SetSlaveSecureAttributes,"ax",%progbits
 778              		.align	1
 779              		.global	HAL_RIF_RISC_SetSlaveSecureAttributes
 780              		.syntax unified
 781              		.thumb
 782              		.thumb_func
 784              	HAL_RIF_RISC_SetSlaveSecureAttributes:
 785              	.LFB843:
 356:STM32Cube_FW_N6/Drivers/STM32N6xx_HAL_Driver/Src/stm32n6xx_hal_rif.c **** 
 357:STM32Cube_FW_N6/Drivers/STM32N6xx_HAL_Driver/Src/stm32n6xx_hal_rif.c **** /**
 358:STM32Cube_FW_N6/Drivers/STM32N6xx_HAL_Driver/Src/stm32n6xx_hal_rif.c ****   * @brief  Configure the Security and Privilege of a designated slave peripheral.
 359:STM32Cube_FW_N6/Drivers/STM32N6xx_HAL_Driver/Src/stm32n6xx_hal_rif.c ****   * @param  PeriphId specifies the index of the bus slave.
 360:STM32Cube_FW_N6/Drivers/STM32N6xx_HAL_Driver/Src/stm32n6xx_hal_rif.c ****   *         This parameter can be one of @ref RIF_PERIPHERAL_INDEX
 361:STM32Cube_FW_N6/Drivers/STM32N6xx_HAL_Driver/Src/stm32n6xx_hal_rif.c ****   *         bits[31:28] define the register index a peripheral belongs to, value from 0 to 5
 362:STM32Cube_FW_N6/Drivers/STM32N6xx_HAL_Driver/Src/stm32n6xx_hal_rif.c ****   *         bits[4:0]   define the bit position within the register, value from 0 to 31
 363:STM32Cube_FW_N6/Drivers/STM32N6xx_HAL_Driver/Src/stm32n6xx_hal_rif.c ****   * @param  SecPriv specifies the security and privilege attributes of the peripheral.
 364:STM32Cube_FW_N6/Drivers/STM32N6xx_HAL_Driver/Src/stm32n6xx_hal_rif.c ****   *         This parameter can be one or a combination of @ref RIF_SEC_PRIV
 365:STM32Cube_FW_N6/Drivers/STM32N6xx_HAL_Driver/Src/stm32n6xx_hal_rif.c ****   * @retval None
 366:STM32Cube_FW_N6/Drivers/STM32N6xx_HAL_Driver/Src/stm32n6xx_hal_rif.c ****   */
 367:STM32Cube_FW_N6/Drivers/STM32N6xx_HAL_Driver/Src/stm32n6xx_hal_rif.c **** void HAL_RIF_RISC_SetSlaveSecureAttributes(uint32_t PeriphId, uint32_t SecPriv)
 368:STM32Cube_FW_N6/Drivers/STM32N6xx_HAL_Driver/Src/stm32n6xx_hal_rif.c **** {
 786              		.loc 1 368 1
 787              		.cfi_startproc
 788              		@ args = 0, pretend = 0, frame = 16
 789              		@ frame_needed = 1, uses_anonymous_args = 0
 790 0000 80B5     		push	{r7, lr}
 791              		.cfi_def_cfa_offset 8
 792              		.cfi_offset 7, -8
 793              		.cfi_offset 14, -4
 794 0002 84B0     		sub	sp, sp, #16
 795              		.cfi_def_cfa_offset 24
 796 0004 00AF     		add	r7, sp, #0
 797              		.cfi_def_cfa_register 7
 798 0006 7860     		str	r0, [r7, #4]
 799 0008 3960     		str	r1, [r7]
 369:STM32Cube_FW_N6/Drivers/STM32N6xx_HAL_Driver/Src/stm32n6xx_hal_rif.c ****   __IO uint32_t sec_reg_val;
 370:STM32Cube_FW_N6/Drivers/STM32N6xx_HAL_Driver/Src/stm32n6xx_hal_rif.c **** 
 371:STM32Cube_FW_N6/Drivers/STM32N6xx_HAL_Driver/Src/stm32n6xx_hal_rif.c ****   assert_param(IS_RIF_RISC_PERIPH_INDEX(PeriphId) || IS_RIF_RCC_PERIPH_INDEX(PeriphId));
 800              		.loc 1 371 3
 801 000a 7B68     		ldr	r3, [r7, #4]
 802 000c 002B     		cmp	r3, #0
 803 000e 00F0C682 		beq	.L44
 804              		.loc 1 371 3 is_stmt 0 discriminator 1
 805 0012 7B68     		ldr	r3, [r7, #4]
 806 0014 012B     		cmp	r3, #1
 807 0016 00F0C282 		beq	.L44
 808              		.loc 1 371 3 discriminator 2
 809 001a 7B68     		ldr	r3, [r7, #4]
 810 001c 022B     		cmp	r3, #2
 811 001e 00F0BE82 		beq	.L44
ARM GAS  /tmp/ccRTEIeG.s 			page 29


 812              		.loc 1 371 3 discriminator 3
 813 0022 7B68     		ldr	r3, [r7, #4]
 814 0024 032B     		cmp	r3, #3
 815 0026 00F0BA82 		beq	.L44
 816              		.loc 1 371 3 discriminator 4
 817 002a 7B68     		ldr	r3, [r7, #4]
 818 002c 042B     		cmp	r3, #4
 819 002e 00F0B682 		beq	.L44
 820              		.loc 1 371 3 discriminator 5
 821 0032 7B68     		ldr	r3, [r7, #4]
 822 0034 052B     		cmp	r3, #5
 823 0036 00F0B282 		beq	.L44
 824              		.loc 1 371 3 discriminator 6
 825 003a 7B68     		ldr	r3, [r7, #4]
 826 003c 062B     		cmp	r3, #6
 827 003e 00F0AE82 		beq	.L44
 828              		.loc 1 371 3 discriminator 7
 829 0042 7B68     		ldr	r3, [r7, #4]
 830 0044 082B     		cmp	r3, #8
 831 0046 00F0AA82 		beq	.L44
 832              		.loc 1 371 3 discriminator 8
 833 004a 7B68     		ldr	r3, [r7, #4]
 834 004c 092B     		cmp	r3, #9
 835 004e 00F0A682 		beq	.L44
 836              		.loc 1 371 3 discriminator 9
 837 0052 7B68     		ldr	r3, [r7, #4]
 838 0054 0A2B     		cmp	r3, #10
 839 0056 00F0A282 		beq	.L44
 840              		.loc 1 371 3 discriminator 10
 841 005a 7B68     		ldr	r3, [r7, #4]
 842 005c 0B2B     		cmp	r3, #11
 843 005e 00F09E82 		beq	.L44
 844              		.loc 1 371 3 discriminator 11
 845 0062 7B68     		ldr	r3, [r7, #4]
 846 0064 0C2B     		cmp	r3, #12
 847 0066 00F09A82 		beq	.L44
 848              		.loc 1 371 3 discriminator 12
 849 006a 7B68     		ldr	r3, [r7, #4]
 850 006c 0D2B     		cmp	r3, #13
 851 006e 00F09682 		beq	.L44
 852              		.loc 1 371 3 discriminator 13
 853 0072 7B68     		ldr	r3, [r7, #4]
 854 0074 0E2B     		cmp	r3, #14
 855 0076 00F09282 		beq	.L44
 856              		.loc 1 371 3 discriminator 14
 857 007a 7B68     		ldr	r3, [r7, #4]
 858 007c 0F2B     		cmp	r3, #15
 859 007e 00F08E82 		beq	.L44
 860              		.loc 1 371 3 discriminator 15
 861 0082 7B68     		ldr	r3, [r7, #4]
 862 0084 102B     		cmp	r3, #16
 863 0086 00F08A82 		beq	.L44
 864              		.loc 1 371 3 discriminator 16
 865 008a 7B68     		ldr	r3, [r7, #4]
 866 008c 112B     		cmp	r3, #17
 867 008e 00F08682 		beq	.L44
 868              		.loc 1 371 3 discriminator 17
ARM GAS  /tmp/ccRTEIeG.s 			page 30


 869 0092 7B68     		ldr	r3, [r7, #4]
 870 0094 122B     		cmp	r3, #18
 871 0096 00F08282 		beq	.L44
 872              		.loc 1 371 3 discriminator 18
 873 009a 7B68     		ldr	r3, [r7, #4]
 874 009c 132B     		cmp	r3, #19
 875 009e 00F07E82 		beq	.L44
 876              		.loc 1 371 3 discriminator 19
 877 00a2 7B68     		ldr	r3, [r7, #4]
 878 00a4 142B     		cmp	r3, #20
 879 00a6 00F07A82 		beq	.L44
 880              		.loc 1 371 3 discriminator 20
 881 00aa 7B68     		ldr	r3, [r7, #4]
 882 00ac 152B     		cmp	r3, #21
 883 00ae 00F07682 		beq	.L44
 884              		.loc 1 371 3 discriminator 21
 885 00b2 7B68     		ldr	r3, [r7, #4]
 886 00b4 162B     		cmp	r3, #22
 887 00b6 00F07282 		beq	.L44
 888              		.loc 1 371 3 discriminator 22
 889 00ba 7B68     		ldr	r3, [r7, #4]
 890 00bc 172B     		cmp	r3, #23
 891 00be 00F06E82 		beq	.L44
 892              		.loc 1 371 3 discriminator 23
 893 00c2 7B68     		ldr	r3, [r7, #4]
 894 00c4 182B     		cmp	r3, #24
 895 00c6 00F06A82 		beq	.L44
 896              		.loc 1 371 3 discriminator 24
 897 00ca 7B68     		ldr	r3, [r7, #4]
 898 00cc 192B     		cmp	r3, #25
 899 00ce 00F06682 		beq	.L44
 900              		.loc 1 371 3 discriminator 25
 901 00d2 7B68     		ldr	r3, [r7, #4]
 902 00d4 1A2B     		cmp	r3, #26
 903 00d6 00F06282 		beq	.L44
 904              		.loc 1 371 3 discriminator 26
 905 00da 7B68     		ldr	r3, [r7, #4]
 906 00dc 1B2B     		cmp	r3, #27
 907 00de 00F05E82 		beq	.L44
 908              		.loc 1 371 3 discriminator 27
 909 00e2 7B68     		ldr	r3, [r7, #4]
 910 00e4 1C2B     		cmp	r3, #28
 911 00e6 00F05A82 		beq	.L44
 912              		.loc 1 371 3 discriminator 28
 913 00ea 7B68     		ldr	r3, [r7, #4]
 914 00ec 1D2B     		cmp	r3, #29
 915 00ee 00F05682 		beq	.L44
 916              		.loc 1 371 3 discriminator 29
 917 00f2 7B68     		ldr	r3, [r7, #4]
 918 00f4 1E2B     		cmp	r3, #30
 919 00f6 00F05282 		beq	.L44
 920              		.loc 1 371 3 discriminator 30
 921 00fa 7B68     		ldr	r3, [r7, #4]
 922 00fc 1F2B     		cmp	r3, #31
 923 00fe 00F04E82 		beq	.L44
 924              		.loc 1 371 3 discriminator 31
 925 0102 7B68     		ldr	r3, [r7, #4]
ARM GAS  /tmp/ccRTEIeG.s 			page 31


 926 0104 B3F1805F 		cmp	r3, #268435456
 927 0108 00F04982 		beq	.L44
 928              		.loc 1 371 3 discriminator 32
 929 010c 7B68     		ldr	r3, [r7, #4]
 930 010e A04A     		ldr	r2, .L46
 931 0110 9342     		cmp	r3, r2
 932 0112 00F04482 		beq	.L44
 933              		.loc 1 371 3 discriminator 33
 934 0116 7B68     		ldr	r3, [r7, #4]
 935 0118 9E4A     		ldr	r2, .L46+4
 936 011a 9342     		cmp	r3, r2
 937 011c 00F03F82 		beq	.L44
 938              		.loc 1 371 3 discriminator 34
 939 0120 7B68     		ldr	r3, [r7, #4]
 940 0122 9D4A     		ldr	r2, .L46+8
 941 0124 9342     		cmp	r3, r2
 942 0126 00F03A82 		beq	.L44
 943              		.loc 1 371 3 discriminator 35
 944 012a 7B68     		ldr	r3, [r7, #4]
 945 012c 9B4A     		ldr	r2, .L46+12
 946 012e 9342     		cmp	r3, r2
 947 0130 00F03582 		beq	.L44
 948              		.loc 1 371 3 discriminator 36
 949 0134 7B68     		ldr	r3, [r7, #4]
 950 0136 9A4A     		ldr	r2, .L46+16
 951 0138 9342     		cmp	r3, r2
 952 013a 00F03082 		beq	.L44
 953              		.loc 1 371 3 discriminator 37
 954 013e 7B68     		ldr	r3, [r7, #4]
 955 0140 984A     		ldr	r2, .L46+20
 956 0142 9342     		cmp	r3, r2
 957 0144 00F02B82 		beq	.L44
 958              		.loc 1 371 3 discriminator 38
 959 0148 7B68     		ldr	r3, [r7, #4]
 960 014a 974A     		ldr	r2, .L46+24
 961 014c 9342     		cmp	r3, r2
 962 014e 00F02682 		beq	.L44
 963              		.loc 1 371 3 discriminator 39
 964 0152 7B68     		ldr	r3, [r7, #4]
 965 0154 954A     		ldr	r2, .L46+28
 966 0156 9342     		cmp	r3, r2
 967 0158 00F02182 		beq	.L44
 968              		.loc 1 371 3 discriminator 40
 969 015c 7B68     		ldr	r3, [r7, #4]
 970 015e 944A     		ldr	r2, .L46+32
 971 0160 9342     		cmp	r3, r2
 972 0162 00F01C82 		beq	.L44
 973              		.loc 1 371 3 discriminator 41
 974 0166 7B68     		ldr	r3, [r7, #4]
 975 0168 924A     		ldr	r2, .L46+36
 976 016a 9342     		cmp	r3, r2
 977 016c 00F01782 		beq	.L44
 978              		.loc 1 371 3 discriminator 42
 979 0170 7B68     		ldr	r3, [r7, #4]
 980 0172 914A     		ldr	r2, .L46+40
 981 0174 9342     		cmp	r3, r2
 982 0176 00F01282 		beq	.L44
ARM GAS  /tmp/ccRTEIeG.s 			page 32


 983              		.loc 1 371 3 discriminator 43
 984 017a 7B68     		ldr	r3, [r7, #4]
 985 017c 8F4A     		ldr	r2, .L46+44
 986 017e 9342     		cmp	r3, r2
 987 0180 00F00D82 		beq	.L44
 988              		.loc 1 371 3 discriminator 44
 989 0184 7B68     		ldr	r3, [r7, #4]
 990 0186 8E4A     		ldr	r2, .L46+48
 991 0188 9342     		cmp	r3, r2
 992 018a 00F00882 		beq	.L44
 993              		.loc 1 371 3 discriminator 45
 994 018e 7B68     		ldr	r3, [r7, #4]
 995 0190 8C4A     		ldr	r2, .L46+52
 996 0192 9342     		cmp	r3, r2
 997 0194 00F00382 		beq	.L44
 998              		.loc 1 371 3 discriminator 46
 999 0198 7B68     		ldr	r3, [r7, #4]
 1000 019a 8B4A     		ldr	r2, .L46+56
 1001 019c 9342     		cmp	r3, r2
 1002 019e 00F0FE81 		beq	.L44
 1003              		.loc 1 371 3 discriminator 47
 1004 01a2 7B68     		ldr	r3, [r7, #4]
 1005 01a4 894A     		ldr	r2, .L46+60
 1006 01a6 9342     		cmp	r3, r2
 1007 01a8 00F0F981 		beq	.L44
 1008              		.loc 1 371 3 discriminator 48
 1009 01ac 7B68     		ldr	r3, [r7, #4]
 1010 01ae 884A     		ldr	r2, .L46+64
 1011 01b0 9342     		cmp	r3, r2
 1012 01b2 00F0F481 		beq	.L44
 1013              		.loc 1 371 3 discriminator 49
 1014 01b6 7B68     		ldr	r3, [r7, #4]
 1015 01b8 864A     		ldr	r2, .L46+68
 1016 01ba 9342     		cmp	r3, r2
 1017 01bc 00F0EF81 		beq	.L44
 1018              		.loc 1 371 3 discriminator 50
 1019 01c0 7B68     		ldr	r3, [r7, #4]
 1020 01c2 854A     		ldr	r2, .L46+72
 1021 01c4 9342     		cmp	r3, r2
 1022 01c6 00F0EA81 		beq	.L44
 1023              		.loc 1 371 3 discriminator 51
 1024 01ca 7B68     		ldr	r3, [r7, #4]
 1025 01cc 834A     		ldr	r2, .L46+76
 1026 01ce 9342     		cmp	r3, r2
 1027 01d0 00F0E581 		beq	.L44
 1028              		.loc 1 371 3 discriminator 52
 1029 01d4 7B68     		ldr	r3, [r7, #4]
 1030 01d6 824A     		ldr	r2, .L46+80
 1031 01d8 9342     		cmp	r3, r2
 1032 01da 00F0E081 		beq	.L44
 1033              		.loc 1 371 3 discriminator 53
 1034 01de 7B68     		ldr	r3, [r7, #4]
 1035 01e0 804A     		ldr	r2, .L46+84
 1036 01e2 9342     		cmp	r3, r2
 1037 01e4 00F0DB81 		beq	.L44
 1038              		.loc 1 371 3 discriminator 54
 1039 01e8 7B68     		ldr	r3, [r7, #4]
ARM GAS  /tmp/ccRTEIeG.s 			page 33


 1040 01ea 7F4A     		ldr	r2, .L46+88
 1041 01ec 9342     		cmp	r3, r2
 1042 01ee 00F0D681 		beq	.L44
 1043              		.loc 1 371 3 discriminator 55
 1044 01f2 7B68     		ldr	r3, [r7, #4]
 1045 01f4 7D4A     		ldr	r2, .L46+92
 1046 01f6 9342     		cmp	r3, r2
 1047 01f8 00F0D181 		beq	.L44
 1048              		.loc 1 371 3 discriminator 56
 1049 01fc 7B68     		ldr	r3, [r7, #4]
 1050 01fe 7C4A     		ldr	r2, .L46+96
 1051 0200 9342     		cmp	r3, r2
 1052 0202 00F0CC81 		beq	.L44
 1053              		.loc 1 371 3 discriminator 57
 1054 0206 7B68     		ldr	r3, [r7, #4]
 1055 0208 7A4A     		ldr	r2, .L46+100
 1056 020a 9342     		cmp	r3, r2
 1057 020c 00F0C781 		beq	.L44
 1058              		.loc 1 371 3 discriminator 58
 1059 0210 7B68     		ldr	r3, [r7, #4]
 1060 0212 794A     		ldr	r2, .L46+104
 1061 0214 9342     		cmp	r3, r2
 1062 0216 00F0C281 		beq	.L44
 1063              		.loc 1 371 3 discriminator 59
 1064 021a 7B68     		ldr	r3, [r7, #4]
 1065 021c 774A     		ldr	r2, .L46+108
 1066 021e 9342     		cmp	r3, r2
 1067 0220 00F0BD81 		beq	.L44
 1068              		.loc 1 371 3 discriminator 60
 1069 0224 7B68     		ldr	r3, [r7, #4]
 1070 0226 764A     		ldr	r2, .L46+112
 1071 0228 9342     		cmp	r3, r2
 1072 022a 00F0B881 		beq	.L44
 1073              		.loc 1 371 3 discriminator 61
 1074 022e 7B68     		ldr	r3, [r7, #4]
 1075 0230 B3F1005F 		cmp	r3, #536870912
 1076 0234 00F0B381 		beq	.L44
 1077              		.loc 1 371 3 discriminator 62
 1078 0238 7B68     		ldr	r3, [r7, #4]
 1079 023a 724A     		ldr	r2, .L46+116
 1080 023c 9342     		cmp	r3, r2
 1081 023e 00F0AE81 		beq	.L44
 1082              		.loc 1 371 3 discriminator 63
 1083 0242 7B68     		ldr	r3, [r7, #4]
 1084 0244 704A     		ldr	r2, .L46+120
 1085 0246 9342     		cmp	r3, r2
 1086 0248 00F0A981 		beq	.L44
 1087              		.loc 1 371 3 discriminator 64
 1088 024c 7B68     		ldr	r3, [r7, #4]
 1089 024e 6F4A     		ldr	r2, .L46+124
 1090 0250 9342     		cmp	r3, r2
 1091 0252 00F0A481 		beq	.L44
 1092              		.loc 1 371 3 discriminator 65
 1093 0256 7B68     		ldr	r3, [r7, #4]
 1094 0258 6D4A     		ldr	r2, .L46+128
 1095 025a 9342     		cmp	r3, r2
 1096 025c 00F09F81 		beq	.L44
ARM GAS  /tmp/ccRTEIeG.s 			page 34


 1097              		.loc 1 371 3 discriminator 66
 1098 0260 7B68     		ldr	r3, [r7, #4]
 1099 0262 6C4A     		ldr	r2, .L46+132
 1100 0264 9342     		cmp	r3, r2
 1101 0266 00F09A81 		beq	.L44
 1102              		.loc 1 371 3 discriminator 67
 1103 026a 7B68     		ldr	r3, [r7, #4]
 1104 026c 6A4A     		ldr	r2, .L46+136
 1105 026e 9342     		cmp	r3, r2
 1106 0270 00F09581 		beq	.L44
 1107              		.loc 1 371 3 discriminator 68
 1108 0274 7B68     		ldr	r3, [r7, #4]
 1109 0276 694A     		ldr	r2, .L46+140
 1110 0278 9342     		cmp	r3, r2
 1111 027a 00F09081 		beq	.L44
 1112              		.loc 1 371 3 discriminator 69
 1113 027e 7B68     		ldr	r3, [r7, #4]
 1114 0280 674A     		ldr	r2, .L46+144
 1115 0282 9342     		cmp	r3, r2
 1116 0284 00F08B81 		beq	.L44
 1117              		.loc 1 371 3 discriminator 70
 1118 0288 7B68     		ldr	r3, [r7, #4]
 1119 028a 664A     		ldr	r2, .L46+148
 1120 028c 9342     		cmp	r3, r2
 1121 028e 00F08681 		beq	.L44
 1122              		.loc 1 371 3 discriminator 71
 1123 0292 7B68     		ldr	r3, [r7, #4]
 1124 0294 644A     		ldr	r2, .L46+152
 1125 0296 9342     		cmp	r3, r2
 1126 0298 00F08181 		beq	.L44
 1127              		.loc 1 371 3 discriminator 72
 1128 029c 7B68     		ldr	r3, [r7, #4]
 1129 029e 634A     		ldr	r2, .L46+156
 1130 02a0 9342     		cmp	r3, r2
 1131 02a2 00F07C81 		beq	.L44
 1132              		.loc 1 371 3 discriminator 73
 1133 02a6 7B68     		ldr	r3, [r7, #4]
 1134 02a8 614A     		ldr	r2, .L46+160
 1135 02aa 9342     		cmp	r3, r2
 1136 02ac 00F07781 		beq	.L44
 1137              		.loc 1 371 3 discriminator 74
 1138 02b0 7B68     		ldr	r3, [r7, #4]
 1139 02b2 604A     		ldr	r2, .L46+164
 1140 02b4 9342     		cmp	r3, r2
 1141 02b6 00F07281 		beq	.L44
 1142              		.loc 1 371 3 discriminator 75
 1143 02ba 7B68     		ldr	r3, [r7, #4]
 1144 02bc 5E4A     		ldr	r2, .L46+168
 1145 02be 9342     		cmp	r3, r2
 1146 02c0 00F06D81 		beq	.L44
 1147              		.loc 1 371 3 discriminator 76
 1148 02c4 7B68     		ldr	r3, [r7, #4]
 1149 02c6 5D4A     		ldr	r2, .L46+172
 1150 02c8 9342     		cmp	r3, r2
 1151 02ca 00F06881 		beq	.L44
 1152              		.loc 1 371 3 discriminator 77
 1153 02ce 7B68     		ldr	r3, [r7, #4]
ARM GAS  /tmp/ccRTEIeG.s 			page 35


 1154 02d0 5B4A     		ldr	r2, .L46+176
 1155 02d2 9342     		cmp	r3, r2
 1156 02d4 00F06381 		beq	.L44
 1157              		.loc 1 371 3 discriminator 78
 1158 02d8 7B68     		ldr	r3, [r7, #4]
 1159 02da 5A4A     		ldr	r2, .L46+180
 1160 02dc 9342     		cmp	r3, r2
 1161 02de 00F05E81 		beq	.L44
 1162              		.loc 1 371 3 discriminator 79
 1163 02e2 7B68     		ldr	r3, [r7, #4]
 1164 02e4 584A     		ldr	r2, .L46+184
 1165 02e6 9342     		cmp	r3, r2
 1166 02e8 00F05981 		beq	.L44
 1167              		.loc 1 371 3 discriminator 80
 1168 02ec 7B68     		ldr	r3, [r7, #4]
 1169 02ee 574A     		ldr	r2, .L46+188
 1170 02f0 9342     		cmp	r3, r2
 1171 02f2 00F05481 		beq	.L44
 1172              		.loc 1 371 3 discriminator 81
 1173 02f6 7B68     		ldr	r3, [r7, #4]
 1174 02f8 554A     		ldr	r2, .L46+192
 1175 02fa 9342     		cmp	r3, r2
 1176 02fc 00F04F81 		beq	.L44
 1177              		.loc 1 371 3 discriminator 82
 1178 0300 7B68     		ldr	r3, [r7, #4]
 1179 0302 544A     		ldr	r2, .L46+196
 1180 0304 9342     		cmp	r3, r2
 1181 0306 00F04A81 		beq	.L44
 1182              		.loc 1 371 3 discriminator 83
 1183 030a 7B68     		ldr	r3, [r7, #4]
 1184 030c B3F1405F 		cmp	r3, #805306368
 1185 0310 00F04581 		beq	.L44
 1186              		.loc 1 371 3 discriminator 84
 1187 0314 7B68     		ldr	r3, [r7, #4]
 1188 0316 504A     		ldr	r2, .L46+200
 1189 0318 9342     		cmp	r3, r2
 1190 031a 00F04081 		beq	.L44
 1191              		.loc 1 371 3 discriminator 85
 1192 031e 7B68     		ldr	r3, [r7, #4]
 1193 0320 4E4A     		ldr	r2, .L46+204
 1194 0322 9342     		cmp	r3, r2
 1195 0324 00F03B81 		beq	.L44
 1196              		.loc 1 371 3 discriminator 86
 1197 0328 7B68     		ldr	r3, [r7, #4]
 1198 032a 4D4A     		ldr	r2, .L46+208
 1199 032c 9342     		cmp	r3, r2
 1200 032e 00F03681 		beq	.L44
 1201              		.loc 1 371 3 discriminator 87
 1202 0332 7B68     		ldr	r3, [r7, #4]
 1203 0334 4B4A     		ldr	r2, .L46+212
 1204 0336 9342     		cmp	r3, r2
 1205 0338 00F03181 		beq	.L44
 1206              		.loc 1 371 3 discriminator 88
 1207 033c 7B68     		ldr	r3, [r7, #4]
 1208 033e 4A4A     		ldr	r2, .L46+216
 1209 0340 9342     		cmp	r3, r2
 1210 0342 00F02C81 		beq	.L44
ARM GAS  /tmp/ccRTEIeG.s 			page 36


 1211              		.loc 1 371 3 discriminator 89
 1212 0346 7B68     		ldr	r3, [r7, #4]
 1213 0348 484A     		ldr	r2, .L46+220
 1214 034a 9342     		cmp	r3, r2
 1215 034c 00F02781 		beq	.L44
 1216              		.loc 1 371 3 discriminator 90
 1217 0350 7B68     		ldr	r3, [r7, #4]
 1218 0352 474A     		ldr	r2, .L46+224
 1219 0354 9342     		cmp	r3, r2
 1220 0356 00F02281 		beq	.L44
 1221              		.loc 1 371 3 discriminator 91
 1222 035a 7B68     		ldr	r3, [r7, #4]
 1223 035c 454A     		ldr	r2, .L46+228
 1224 035e 9342     		cmp	r3, r2
 1225 0360 00F01D81 		beq	.L44
 1226              		.loc 1 371 3 discriminator 92
 1227 0364 7B68     		ldr	r3, [r7, #4]
 1228 0366 444A     		ldr	r2, .L46+232
 1229 0368 9342     		cmp	r3, r2
 1230 036a 00F01881 		beq	.L44
 1231              		.loc 1 371 3 discriminator 93
 1232 036e 7B68     		ldr	r3, [r7, #4]
 1233 0370 424A     		ldr	r2, .L46+236
 1234 0372 9342     		cmp	r3, r2
 1235 0374 00F01381 		beq	.L44
 1236              		.loc 1 371 3 discriminator 94
 1237 0378 7B68     		ldr	r3, [r7, #4]
 1238 037a 414A     		ldr	r2, .L46+240
 1239 037c 9342     		cmp	r3, r2
 1240 037e 00F00E81 		beq	.L44
 1241              		.loc 1 371 3 discriminator 95
 1242 0382 7B68     		ldr	r3, [r7, #4]
 1243 0384 3F4A     		ldr	r2, .L46+244
 1244 0386 9342     		cmp	r3, r2
 1245 0388 00F00981 		beq	.L44
 1246 038c 7CE0     		b	.L47
 1247              	.L48:
 1248 038e 00BF     		.align	2
 1249              	.L46:
 1250 0390 01000010 		.word	268435457
 1251 0394 02000010 		.word	268435458
 1252 0398 03000010 		.word	268435459
 1253 039c 04000010 		.word	268435460
 1254 03a0 05000010 		.word	268435461
 1255 03a4 06000010 		.word	268435462
 1256 03a8 07000010 		.word	268435463
 1257 03ac 08000010 		.word	268435464
 1258 03b0 09000010 		.word	268435465
 1259 03b4 0A000010 		.word	268435466
 1260 03b8 0B000010 		.word	268435467
 1261 03bc 0C000010 		.word	268435468
 1262 03c0 0D000010 		.word	268435469
 1263 03c4 0E000010 		.word	268435470
 1264 03c8 0F000010 		.word	268435471
 1265 03cc 10000010 		.word	268435472
 1266 03d0 11000010 		.word	268435473
 1267 03d4 12000010 		.word	268435474
ARM GAS  /tmp/ccRTEIeG.s 			page 37


 1268 03d8 13000010 		.word	268435475
 1269 03dc 14000010 		.word	268435476
 1270 03e0 15000010 		.word	268435477
 1271 03e4 16000010 		.word	268435478
 1272 03e8 17000010 		.word	268435479
 1273 03ec 18000010 		.word	268435480
 1274 03f0 19000010 		.word	268435481
 1275 03f4 1A000010 		.word	268435482
 1276 03f8 1C000010 		.word	268435484
 1277 03fc 1D000010 		.word	268435485
 1278 0400 1E000010 		.word	268435486
 1279 0404 01000020 		.word	536870913
 1280 0408 03000020 		.word	536870915
 1281 040c 04000020 		.word	536870916
 1282 0410 05000020 		.word	536870917
 1283 0414 0C000020 		.word	536870924
 1284 0418 0D000020 		.word	536870925
 1285 041c 0E000020 		.word	536870926
 1286 0420 0F000020 		.word	536870927
 1287 0424 10000020 		.word	536870928
 1288 0428 11000020 		.word	536870929
 1289 042c 12000020 		.word	536870930
 1290 0430 13000020 		.word	536870931
 1291 0434 14000020 		.word	536870932
 1292 0438 16000020 		.word	536870934
 1293 043c 17000020 		.word	536870935
 1294 0440 18000020 		.word	536870936
 1295 0444 19000020 		.word	536870937
 1296 0448 1A000020 		.word	536870938
 1297 044c 1C000020 		.word	536870940
 1298 0450 1D000020 		.word	536870941
 1299 0454 1E000020 		.word	536870942
 1300 0458 01000030 		.word	805306369
 1301 045c 02000030 		.word	805306370
 1302 0460 03000030 		.word	805306371
 1303 0464 04000030 		.word	805306372
 1304 0468 05000030 		.word	805306373
 1305 046c 06000030 		.word	805306374
 1306 0470 07000030 		.word	805306375
 1307 0474 08000030 		.word	805306376
 1308 0478 0A000030 		.word	805306378
 1309 047c 02000040 		.word	1073741826
 1310 0480 03000040 		.word	1073741827
 1311 0484 05000040 		.word	1073741829
 1312              	.L47:
 1313              		.loc 1 371 3 discriminator 96
 1314 0488 7B68     		ldr	r3, [r7, #4]
 1315 048a 6D4A     		ldr	r2, .L49
 1316 048c 9342     		cmp	r3, r2
 1317 048e 00F08680 		beq	.L44
 1318              		.loc 1 371 3 discriminator 97
 1319 0492 7B68     		ldr	r3, [r7, #4]
 1320 0494 6B4A     		ldr	r2, .L49+4
 1321 0496 9342     		cmp	r3, r2
 1322 0498 00F08180 		beq	.L44
 1323              		.loc 1 371 3 discriminator 98
 1324 049c 7B68     		ldr	r3, [r7, #4]
ARM GAS  /tmp/ccRTEIeG.s 			page 38


 1325 049e 6A4A     		ldr	r2, .L49+8
 1326 04a0 9342     		cmp	r3, r2
 1327 04a2 7CD0     		beq	.L44
 1328              		.loc 1 371 3 discriminator 99
 1329 04a4 7B68     		ldr	r3, [r7, #4]
 1330 04a6 694A     		ldr	r2, .L49+12
 1331 04a8 9342     		cmp	r3, r2
 1332 04aa 78D0     		beq	.L44
 1333              		.loc 1 371 3 discriminator 100
 1334 04ac 7B68     		ldr	r3, [r7, #4]
 1335 04ae 684A     		ldr	r2, .L49+16
 1336 04b0 9342     		cmp	r3, r2
 1337 04b2 74D0     		beq	.L44
 1338              		.loc 1 371 3 discriminator 101
 1339 04b4 7B68     		ldr	r3, [r7, #4]
 1340 04b6 674A     		ldr	r2, .L49+20
 1341 04b8 9342     		cmp	r3, r2
 1342 04ba 70D0     		beq	.L44
 1343              		.loc 1 371 3 discriminator 102
 1344 04bc 7B68     		ldr	r3, [r7, #4]
 1345 04be 664A     		ldr	r2, .L49+24
 1346 04c0 9342     		cmp	r3, r2
 1347 04c2 6CD0     		beq	.L44
 1348              		.loc 1 371 3 discriminator 103
 1349 04c4 7B68     		ldr	r3, [r7, #4]
 1350 04c6 654A     		ldr	r2, .L49+28
 1351 04c8 9342     		cmp	r3, r2
 1352 04ca 68D0     		beq	.L44
 1353              		.loc 1 371 3 discriminator 104
 1354 04cc 7B68     		ldr	r3, [r7, #4]
 1355 04ce 644A     		ldr	r2, .L49+32
 1356 04d0 9342     		cmp	r3, r2
 1357 04d2 64D0     		beq	.L44
 1358              		.loc 1 371 3 discriminator 105
 1359 04d4 7B68     		ldr	r3, [r7, #4]
 1360 04d6 634A     		ldr	r2, .L49+36
 1361 04d8 9342     		cmp	r3, r2
 1362 04da 60D0     		beq	.L44
 1363              		.loc 1 371 3 discriminator 106
 1364 04dc 7B68     		ldr	r3, [r7, #4]
 1365 04de B3F1A04F 		cmp	r3, #1342177280
 1366 04e2 5CD0     		beq	.L44
 1367              		.loc 1 371 3 discriminator 107
 1368 04e4 7B68     		ldr	r3, [r7, #4]
 1369 04e6 604A     		ldr	r2, .L49+40
 1370 04e8 9342     		cmp	r3, r2
 1371 04ea 58D0     		beq	.L44
 1372              		.loc 1 371 3 discriminator 108
 1373 04ec 7B68     		ldr	r3, [r7, #4]
 1374 04ee 5F4A     		ldr	r2, .L49+44
 1375 04f0 9342     		cmp	r3, r2
 1376 04f2 54D0     		beq	.L44
 1377              		.loc 1 371 3 discriminator 109
 1378 04f4 7B68     		ldr	r3, [r7, #4]
 1379 04f6 5E4A     		ldr	r2, .L49+48
 1380 04f8 9342     		cmp	r3, r2
 1381 04fa 50D0     		beq	.L44
ARM GAS  /tmp/ccRTEIeG.s 			page 39


 1382              		.loc 1 371 3 discriminator 110
 1383 04fc 7B68     		ldr	r3, [r7, #4]
 1384 04fe 5D4A     		ldr	r2, .L49+52
 1385 0500 9342     		cmp	r3, r2
 1386 0502 4CD0     		beq	.L44
 1387              		.loc 1 371 3 discriminator 111
 1388 0504 7B68     		ldr	r3, [r7, #4]
 1389 0506 5C4A     		ldr	r2, .L49+56
 1390 0508 9342     		cmp	r3, r2
 1391 050a 48D0     		beq	.L44
 1392              		.loc 1 371 3 discriminator 112
 1393 050c 7B68     		ldr	r3, [r7, #4]
 1394 050e 5B4A     		ldr	r2, .L49+60
 1395 0510 9342     		cmp	r3, r2
 1396 0512 44D0     		beq	.L44
 1397              		.loc 1 371 3 discriminator 113
 1398 0514 7B68     		ldr	r3, [r7, #4]
 1399 0516 5A4A     		ldr	r2, .L49+64
 1400 0518 9342     		cmp	r3, r2
 1401 051a 40D0     		beq	.L44
 1402              		.loc 1 371 3 discriminator 114
 1403 051c 7B68     		ldr	r3, [r7, #4]
 1404 051e 594A     		ldr	r2, .L49+68
 1405 0520 9342     		cmp	r3, r2
 1406 0522 3CD0     		beq	.L44
 1407              		.loc 1 371 3 discriminator 115
 1408 0524 7B68     		ldr	r3, [r7, #4]
 1409 0526 584A     		ldr	r2, .L49+72
 1410 0528 9342     		cmp	r3, r2
 1411 052a 38D0     		beq	.L44
 1412              		.loc 1 371 3 discriminator 116
 1413 052c 7B68     		ldr	r3, [r7, #4]
 1414 052e 574A     		ldr	r2, .L49+76
 1415 0530 9342     		cmp	r3, r2
 1416 0532 34D0     		beq	.L44
 1417              		.loc 1 371 3 discriminator 117
 1418 0534 7B68     		ldr	r3, [r7, #4]
 1419 0536 564A     		ldr	r2, .L49+80
 1420 0538 9342     		cmp	r3, r2
 1421 053a 30D0     		beq	.L44
 1422              		.loc 1 371 3 discriminator 118
 1423 053c 7B68     		ldr	r3, [r7, #4]
 1424 053e 554A     		ldr	r2, .L49+84
 1425 0540 9342     		cmp	r3, r2
 1426 0542 2CD0     		beq	.L44
 1427              		.loc 1 371 3 discriminator 119
 1428 0544 7B68     		ldr	r3, [r7, #4]
 1429 0546 544A     		ldr	r2, .L49+88
 1430 0548 9342     		cmp	r3, r2
 1431 054a 28D0     		beq	.L44
 1432              		.loc 1 371 3 discriminator 120
 1433 054c 7B68     		ldr	r3, [r7, #4]
 1434 054e 534A     		ldr	r2, .L49+92
 1435 0550 9342     		cmp	r3, r2
 1436 0552 24D0     		beq	.L44
 1437              		.loc 1 371 3 discriminator 121
 1438 0554 7B68     		ldr	r3, [r7, #4]
ARM GAS  /tmp/ccRTEIeG.s 			page 40


 1439 0556 524A     		ldr	r2, .L49+96
 1440 0558 9342     		cmp	r3, r2
 1441 055a 20D0     		beq	.L44
 1442              		.loc 1 371 3 discriminator 122
 1443 055c 7B68     		ldr	r3, [r7, #4]
 1444 055e 514A     		ldr	r2, .L49+100
 1445 0560 9342     		cmp	r3, r2
 1446 0562 1CD0     		beq	.L44
 1447              		.loc 1 371 3 discriminator 123
 1448 0564 7B68     		ldr	r3, [r7, #4]
 1449 0566 504A     		ldr	r2, .L49+104
 1450 0568 9342     		cmp	r3, r2
 1451 056a 18D0     		beq	.L44
 1452              		.loc 1 371 3 discriminator 124
 1453 056c 7B68     		ldr	r3, [r7, #4]
 1454 056e 4F4A     		ldr	r2, .L49+108
 1455 0570 9342     		cmp	r3, r2
 1456 0572 14D0     		beq	.L44
 1457              		.loc 1 371 3 discriminator 125
 1458 0574 7B68     		ldr	r3, [r7, #4]
 1459 0576 4E4A     		ldr	r2, .L49+112
 1460 0578 9342     		cmp	r3, r2
 1461 057a 10D0     		beq	.L44
 1462              		.loc 1 371 3 discriminator 126
 1463 057c 7B68     		ldr	r3, [r7, #4]
 1464 057e 4D4A     		ldr	r2, .L49+116
 1465 0580 9342     		cmp	r3, r2
 1466 0582 0CD0     		beq	.L44
 1467              		.loc 1 371 3 discriminator 127
 1468 0584 7B68     		ldr	r3, [r7, #4]
 1469 0586 4C4A     		ldr	r2, .L49+120
 1470 0588 9342     		cmp	r3, r2
 1471 058a 08D0     		beq	.L44
 1472              		.loc 1 371 3 discriminator 128
 1473 058c 7B68     		ldr	r3, [r7, #4]
 1474 058e 4B4A     		ldr	r2, .L49+124
 1475 0590 9342     		cmp	r3, r2
 1476 0592 04D0     		beq	.L44
 1477              		.loc 1 371 3 discriminator 129
 1478 0594 40F27311 		movw	r1, #371
 1479 0598 4948     		ldr	r0, .L49+128
 1480 059a FFF7FEFF 		bl	assert_failed
 1481              	.L44:
 372:STM32Cube_FW_N6/Drivers/STM32N6xx_HAL_Driver/Src/stm32n6xx_hal_rif.c ****   assert_param(IS_RIF_SEC_PRIV_ATTRIBUTE(SecPriv));
 1482              		.loc 1 372 3 is_stmt 1
 1483 059e 3B68     		ldr	r3, [r7]
 1484 05a0 032B     		cmp	r3, #3
 1485 05a2 04D9     		bls	.L45
 1486              		.loc 1 372 3 is_stmt 0 discriminator 1
 1487 05a4 4FF4BA71 		mov	r1, #372
 1488 05a8 4548     		ldr	r0, .L49+128
 1489 05aa FFF7FEFF 		bl	assert_failed
 1490              	.L45:
 373:STM32Cube_FW_N6/Drivers/STM32N6xx_HAL_Driver/Src/stm32n6xx_hal_rif.c **** 
 374:STM32Cube_FW_N6/Drivers/STM32N6xx_HAL_Driver/Src/stm32n6xx_hal_rif.c ****   sec_reg_val = RIFSC->RISC_SECCFGRx[PeriphId >> RIF_PERIPH_REG_SHIFT];
 1491              		.loc 1 374 22 is_stmt 1
 1492 05ae 454A     		ldr	r2, .L49+132
ARM GAS  /tmp/ccRTEIeG.s 			page 41


 1493              		.loc 1 374 47
 1494 05b0 7B68     		ldr	r3, [r7, #4]
 1495 05b2 1B0F     		lsrs	r3, r3, #28
 1496              		.loc 1 374 37
 1497 05b4 0433     		adds	r3, r3, #4
 1498 05b6 52F82330 		ldr	r3, [r2, r3, lsl #2]
 1499              		.loc 1 374 15
 1500 05ba FB60     		str	r3, [r7, #12]
 375:STM32Cube_FW_N6/Drivers/STM32N6xx_HAL_Driver/Src/stm32n6xx_hal_rif.c ****   sec_reg_val &= (~(1U << (PeriphId & RIF_PERIPH_BIT_POSITION)));
 1501              		.loc 1 375 37
 1502 05bc 7B68     		ldr	r3, [r7, #4]
 1503 05be 03F01F03 		and	r3, r3, #31
 1504              		.loc 1 375 24
 1505 05c2 0122     		movs	r2, #1
 1506 05c4 02FA03F3 		lsl	r3, r2, r3
 1507              		.loc 1 375 19
 1508 05c8 DA43     		mvns	r2, r3
 1509              		.loc 1 375 15
 1510 05ca FB68     		ldr	r3, [r7, #12]
 1511 05cc 1340     		ands	r3, r3, r2
 1512 05ce FB60     		str	r3, [r7, #12]
 376:STM32Cube_FW_N6/Drivers/STM32N6xx_HAL_Driver/Src/stm32n6xx_hal_rif.c ****   sec_reg_val |= ((SecPriv & RIF_ATTRIBUTE_SEC) << (PeriphId & RIF_PERIPH_BIT_POSITION));
 1513              		.loc 1 376 28
 1514 05d0 3B68     		ldr	r3, [r7]
 1515 05d2 03F00102 		and	r2, r3, #1
 1516              		.loc 1 376 62
 1517 05d6 7B68     		ldr	r3, [r7, #4]
 1518 05d8 03F01F03 		and	r3, r3, #31
 1519              		.loc 1 376 49
 1520 05dc 9A40     		lsls	r2, r2, r3
 1521              		.loc 1 376 15
 1522 05de FB68     		ldr	r3, [r7, #12]
 1523 05e0 1343     		orrs	r3, r3, r2
 1524 05e2 FB60     		str	r3, [r7, #12]
 377:STM32Cube_FW_N6/Drivers/STM32N6xx_HAL_Driver/Src/stm32n6xx_hal_rif.c ****   RIFSC->RISC_SECCFGRx[PeriphId >> RIF_PERIPH_REG_SHIFT] = sec_reg_val;
 1525              		.loc 1 377 8
 1526 05e4 3749     		ldr	r1, .L49+132
 1527              		.loc 1 377 33
 1528 05e6 7B68     		ldr	r3, [r7, #4]
 1529 05e8 1B0F     		lsrs	r3, r3, #28
 1530              		.loc 1 377 58
 1531 05ea FA68     		ldr	r2, [r7, #12]
 1532 05ec 0433     		adds	r3, r3, #4
 1533 05ee 41F82320 		str	r2, [r1, r3, lsl #2]
 378:STM32Cube_FW_N6/Drivers/STM32N6xx_HAL_Driver/Src/stm32n6xx_hal_rif.c **** 
 379:STM32Cube_FW_N6/Drivers/STM32N6xx_HAL_Driver/Src/stm32n6xx_hal_rif.c ****   sec_reg_val = RIFSC->RISC_PRIVCFGRx[PeriphId >> RIF_PERIPH_REG_SHIFT];
 1534              		.loc 1 379 22
 1535 05f2 344A     		ldr	r2, .L49+132
 1536              		.loc 1 379 48
 1537 05f4 7B68     		ldr	r3, [r7, #4]
 1538 05f6 1B0F     		lsrs	r3, r3, #28
 1539              		.loc 1 379 38
 1540 05f8 0C33     		adds	r3, r3, #12
 1541 05fa 52F82330 		ldr	r3, [r2, r3, lsl #2]
 1542              		.loc 1 379 15
 1543 05fe FB60     		str	r3, [r7, #12]
 380:STM32Cube_FW_N6/Drivers/STM32N6xx_HAL_Driver/Src/stm32n6xx_hal_rif.c ****   sec_reg_val &= (~(1U << (PeriphId & RIF_PERIPH_BIT_POSITION)));
ARM GAS  /tmp/ccRTEIeG.s 			page 42


 1544              		.loc 1 380 37
 1545 0600 7B68     		ldr	r3, [r7, #4]
 1546 0602 03F01F03 		and	r3, r3, #31
 1547              		.loc 1 380 24
 1548 0606 0122     		movs	r2, #1
 1549 0608 02FA03F3 		lsl	r3, r2, r3
 1550              		.loc 1 380 19
 1551 060c DA43     		mvns	r2, r3
 1552              		.loc 1 380 15
 1553 060e FB68     		ldr	r3, [r7, #12]
 1554 0610 1340     		ands	r3, r3, r2
 1555 0612 FB60     		str	r3, [r7, #12]
 381:STM32Cube_FW_N6/Drivers/STM32N6xx_HAL_Driver/Src/stm32n6xx_hal_rif.c ****   sec_reg_val |= (((SecPriv & RIF_ATTRIBUTE_PRIV) >> 1U) << (PeriphId & RIF_PERIPH_BIT_POSITION));
 1556              		.loc 1 381 51
 1557 0614 3B68     		ldr	r3, [r7]
 1558 0616 5B08     		lsrs	r3, r3, #1
 1559 0618 03F00102 		and	r2, r3, #1
 1560              		.loc 1 381 71
 1561 061c 7B68     		ldr	r3, [r7, #4]
 1562 061e 03F01F03 		and	r3, r3, #31
 1563              		.loc 1 381 58
 1564 0622 9A40     		lsls	r2, r2, r3
 1565              		.loc 1 381 15
 1566 0624 FB68     		ldr	r3, [r7, #12]
 1567 0626 1343     		orrs	r3, r3, r2
 1568 0628 FB60     		str	r3, [r7, #12]
 382:STM32Cube_FW_N6/Drivers/STM32N6xx_HAL_Driver/Src/stm32n6xx_hal_rif.c ****   RIFSC->RISC_PRIVCFGRx[PeriphId >> RIF_PERIPH_REG_SHIFT] = sec_reg_val;
 1569              		.loc 1 382 8
 1570 062a 2649     		ldr	r1, .L49+132
 1571              		.loc 1 382 34
 1572 062c 7B68     		ldr	r3, [r7, #4]
 1573 062e 1B0F     		lsrs	r3, r3, #28
 1574              		.loc 1 382 59
 1575 0630 FA68     		ldr	r2, [r7, #12]
 1576 0632 0C33     		adds	r3, r3, #12
 1577 0634 41F82320 		str	r2, [r1, r3, lsl #2]
 383:STM32Cube_FW_N6/Drivers/STM32N6xx_HAL_Driver/Src/stm32n6xx_hal_rif.c **** }
 1578              		.loc 1 383 1
 1579 0638 00BF     		nop
 1580 063a 1037     		adds	r7, r7, #16
 1581              		.cfi_def_cfa_offset 8
 1582 063c BD46     		mov	sp, r7
 1583              		.cfi_def_cfa_register 13
 1584              		@ sp needed
 1585 063e 80BD     		pop	{r7, pc}
 1586              	.L50:
 1587              		.align	2
 1588              	.L49:
 1589 0640 0C000040 		.word	1073741836
 1590 0644 0D000040 		.word	1073741837
 1591 0648 11000040 		.word	1073741841
 1592 064c 12000040 		.word	1073741842
 1593 0650 13000040 		.word	1073741843
 1594 0654 19000040 		.word	1073741849
 1595 0658 1B000040 		.word	1073741851
 1596 065c 1C000040 		.word	1073741852
 1597 0660 1D000040 		.word	1073741853
ARM GAS  /tmp/ccRTEIeG.s 			page 43


 1598 0664 1F000040 		.word	1073741855
 1599 0668 01000050 		.word	1342177281
 1600 066c 02000050 		.word	1342177282
 1601 0670 03000050 		.word	1342177283
 1602 0674 04000050 		.word	1342177284
 1603 0678 05000050 		.word	1342177285
 1604 067c 06000050 		.word	1342177286
 1605 0680 08000050 		.word	1342177288
 1606 0684 09000050 		.word	1342177289
 1607 0688 0A000050 		.word	1342177290
 1608 068c 0B000050 		.word	1342177291
 1609 0690 0D000050 		.word	1342177293
 1610 0694 0E000050 		.word	1342177294
 1611 0698 0F000050 		.word	1342177295
 1612 069c 11000050 		.word	1342177297
 1613 06a0 12000050 		.word	1342177298
 1614 06a4 13000050 		.word	1342177299
 1615 06a8 14000050 		.word	1342177300
 1616 06ac 16000050 		.word	1342177302
 1617 06b0 17000050 		.word	1342177303
 1618 06b4 18000050 		.word	1342177304
 1619 06b8 1B000050 		.word	1342177307
 1620 06bc 1E000050 		.word	1342177310
 1621 06c0 00000000 		.word	.LC0
 1622 06c4 00400254 		.word	1409433600
 1623              		.cfi_endproc
 1624              	.LFE843:
 1626              		.section	.text.HAL_RIF_RISC_GetSlaveSecureAttributes,"ax",%progbits
 1627              		.align	1
 1628              		.global	HAL_RIF_RISC_GetSlaveSecureAttributes
 1629              		.syntax unified
 1630              		.thumb
 1631              		.thumb_func
 1633              	HAL_RIF_RISC_GetSlaveSecureAttributes:
 1634              	.LFB844:
 384:STM32Cube_FW_N6/Drivers/STM32N6xx_HAL_Driver/Src/stm32n6xx_hal_rif.c **** 
 385:STM32Cube_FW_N6/Drivers/STM32N6xx_HAL_Driver/Src/stm32n6xx_hal_rif.c **** /**
 386:STM32Cube_FW_N6/Drivers/STM32N6xx_HAL_Driver/Src/stm32n6xx_hal_rif.c ****   * @brief  Get the Security and Privilege configuration of a designated slave peripheral.
 387:STM32Cube_FW_N6/Drivers/STM32N6xx_HAL_Driver/Src/stm32n6xx_hal_rif.c ****   * @param  PeriphId specifies the index of the bus slave.
 388:STM32Cube_FW_N6/Drivers/STM32N6xx_HAL_Driver/Src/stm32n6xx_hal_rif.c ****   *         This parameter can be one of @ref RIF_PERIPHERAL_INDEX
 389:STM32Cube_FW_N6/Drivers/STM32N6xx_HAL_Driver/Src/stm32n6xx_hal_rif.c ****   *         bits[31:28] define the register index a peripheral belongs to, value from 0 to 5
 390:STM32Cube_FW_N6/Drivers/STM32N6xx_HAL_Driver/Src/stm32n6xx_hal_rif.c ****   *         bits[4:0]   define the bit position within the register, value from 0 to 31
 391:STM32Cube_FW_N6/Drivers/STM32N6xx_HAL_Driver/Src/stm32n6xx_hal_rif.c ****   * @retval can be a combination of @ref RIF_SEC_PRIV
 392:STM32Cube_FW_N6/Drivers/STM32N6xx_HAL_Driver/Src/stm32n6xx_hal_rif.c ****   */
 393:STM32Cube_FW_N6/Drivers/STM32N6xx_HAL_Driver/Src/stm32n6xx_hal_rif.c **** uint32_t HAL_RIF_RISC_GetSlaveSecureAttributes(uint32_t PeriphId)
 394:STM32Cube_FW_N6/Drivers/STM32N6xx_HAL_Driver/Src/stm32n6xx_hal_rif.c **** {
 1635              		.loc 1 394 1
 1636              		.cfi_startproc
 1637              		@ args = 0, pretend = 0, frame = 16
 1638              		@ frame_needed = 1, uses_anonymous_args = 0
 1639 0000 80B5     		push	{r7, lr}
 1640              		.cfi_def_cfa_offset 8
 1641              		.cfi_offset 7, -8
 1642              		.cfi_offset 14, -4
 1643 0002 84B0     		sub	sp, sp, #16
 1644              		.cfi_def_cfa_offset 24
 1645 0004 00AF     		add	r7, sp, #0
ARM GAS  /tmp/ccRTEIeG.s 			page 44


 1646              		.cfi_def_cfa_register 7
 1647 0006 7860     		str	r0, [r7, #4]
 395:STM32Cube_FW_N6/Drivers/STM32N6xx_HAL_Driver/Src/stm32n6xx_hal_rif.c ****   uint32_t sec_attr;
 396:STM32Cube_FW_N6/Drivers/STM32N6xx_HAL_Driver/Src/stm32n6xx_hal_rif.c ****   const __IO uint32_t *p_sec_reg;
 397:STM32Cube_FW_N6/Drivers/STM32N6xx_HAL_Driver/Src/stm32n6xx_hal_rif.c **** 
 398:STM32Cube_FW_N6/Drivers/STM32N6xx_HAL_Driver/Src/stm32n6xx_hal_rif.c ****   assert_param(IS_RIF_RISC_PERIPH_INDEX(PeriphId) || IS_RIF_RCC_PERIPH_INDEX(PeriphId));
 1648              		.loc 1 398 3
 1649 0008 7B68     		ldr	r3, [r7, #4]
 1650 000a 002B     		cmp	r3, #0
 1651 000c 00F0C582 		beq	.L52
 1652              		.loc 1 398 3 is_stmt 0 discriminator 1
 1653 0010 7B68     		ldr	r3, [r7, #4]
 1654 0012 012B     		cmp	r3, #1
 1655 0014 00F0C182 		beq	.L52
 1656              		.loc 1 398 3 discriminator 2
 1657 0018 7B68     		ldr	r3, [r7, #4]
 1658 001a 022B     		cmp	r3, #2
 1659 001c 00F0BD82 		beq	.L52
 1660              		.loc 1 398 3 discriminator 3
 1661 0020 7B68     		ldr	r3, [r7, #4]
 1662 0022 032B     		cmp	r3, #3
 1663 0024 00F0B982 		beq	.L52
 1664              		.loc 1 398 3 discriminator 4
 1665 0028 7B68     		ldr	r3, [r7, #4]
 1666 002a 042B     		cmp	r3, #4
 1667 002c 00F0B582 		beq	.L52
 1668              		.loc 1 398 3 discriminator 5
 1669 0030 7B68     		ldr	r3, [r7, #4]
 1670 0032 052B     		cmp	r3, #5
 1671 0034 00F0B182 		beq	.L52
 1672              		.loc 1 398 3 discriminator 6
 1673 0038 7B68     		ldr	r3, [r7, #4]
 1674 003a 062B     		cmp	r3, #6
 1675 003c 00F0AD82 		beq	.L52
 1676              		.loc 1 398 3 discriminator 7
 1677 0040 7B68     		ldr	r3, [r7, #4]
 1678 0042 082B     		cmp	r3, #8
 1679 0044 00F0A982 		beq	.L52
 1680              		.loc 1 398 3 discriminator 8
 1681 0048 7B68     		ldr	r3, [r7, #4]
 1682 004a 092B     		cmp	r3, #9
 1683 004c 00F0A582 		beq	.L52
 1684              		.loc 1 398 3 discriminator 9
 1685 0050 7B68     		ldr	r3, [r7, #4]
 1686 0052 0A2B     		cmp	r3, #10
 1687 0054 00F0A182 		beq	.L52
 1688              		.loc 1 398 3 discriminator 10
 1689 0058 7B68     		ldr	r3, [r7, #4]
 1690 005a 0B2B     		cmp	r3, #11
 1691 005c 00F09D82 		beq	.L52
 1692              		.loc 1 398 3 discriminator 11
 1693 0060 7B68     		ldr	r3, [r7, #4]
 1694 0062 0C2B     		cmp	r3, #12
 1695 0064 00F09982 		beq	.L52
 1696              		.loc 1 398 3 discriminator 12
 1697 0068 7B68     		ldr	r3, [r7, #4]
 1698 006a 0D2B     		cmp	r3, #13
ARM GAS  /tmp/ccRTEIeG.s 			page 45


 1699 006c 00F09582 		beq	.L52
 1700              		.loc 1 398 3 discriminator 13
 1701 0070 7B68     		ldr	r3, [r7, #4]
 1702 0072 0E2B     		cmp	r3, #14
 1703 0074 00F09182 		beq	.L52
 1704              		.loc 1 398 3 discriminator 14
 1705 0078 7B68     		ldr	r3, [r7, #4]
 1706 007a 0F2B     		cmp	r3, #15
 1707 007c 00F08D82 		beq	.L52
 1708              		.loc 1 398 3 discriminator 15
 1709 0080 7B68     		ldr	r3, [r7, #4]
 1710 0082 102B     		cmp	r3, #16
 1711 0084 00F08982 		beq	.L52
 1712              		.loc 1 398 3 discriminator 16
 1713 0088 7B68     		ldr	r3, [r7, #4]
 1714 008a 112B     		cmp	r3, #17
 1715 008c 00F08582 		beq	.L52
 1716              		.loc 1 398 3 discriminator 17
 1717 0090 7B68     		ldr	r3, [r7, #4]
 1718 0092 122B     		cmp	r3, #18
 1719 0094 00F08182 		beq	.L52
 1720              		.loc 1 398 3 discriminator 18
 1721 0098 7B68     		ldr	r3, [r7, #4]
 1722 009a 132B     		cmp	r3, #19
 1723 009c 00F07D82 		beq	.L52
 1724              		.loc 1 398 3 discriminator 19
 1725 00a0 7B68     		ldr	r3, [r7, #4]
 1726 00a2 142B     		cmp	r3, #20
 1727 00a4 00F07982 		beq	.L52
 1728              		.loc 1 398 3 discriminator 20
 1729 00a8 7B68     		ldr	r3, [r7, #4]
 1730 00aa 152B     		cmp	r3, #21
 1731 00ac 00F07582 		beq	.L52
 1732              		.loc 1 398 3 discriminator 21
 1733 00b0 7B68     		ldr	r3, [r7, #4]
 1734 00b2 162B     		cmp	r3, #22
 1735 00b4 00F07182 		beq	.L52
 1736              		.loc 1 398 3 discriminator 22
 1737 00b8 7B68     		ldr	r3, [r7, #4]
 1738 00ba 172B     		cmp	r3, #23
 1739 00bc 00F06D82 		beq	.L52
 1740              		.loc 1 398 3 discriminator 23
 1741 00c0 7B68     		ldr	r3, [r7, #4]
 1742 00c2 182B     		cmp	r3, #24
 1743 00c4 00F06982 		beq	.L52
 1744              		.loc 1 398 3 discriminator 24
 1745 00c8 7B68     		ldr	r3, [r7, #4]
 1746 00ca 192B     		cmp	r3, #25
 1747 00cc 00F06582 		beq	.L52
 1748              		.loc 1 398 3 discriminator 25
 1749 00d0 7B68     		ldr	r3, [r7, #4]
 1750 00d2 1A2B     		cmp	r3, #26
 1751 00d4 00F06182 		beq	.L52
 1752              		.loc 1 398 3 discriminator 26
 1753 00d8 7B68     		ldr	r3, [r7, #4]
 1754 00da 1B2B     		cmp	r3, #27
 1755 00dc 00F05D82 		beq	.L52
ARM GAS  /tmp/ccRTEIeG.s 			page 46


 1756              		.loc 1 398 3 discriminator 27
 1757 00e0 7B68     		ldr	r3, [r7, #4]
 1758 00e2 1C2B     		cmp	r3, #28
 1759 00e4 00F05982 		beq	.L52
 1760              		.loc 1 398 3 discriminator 28
 1761 00e8 7B68     		ldr	r3, [r7, #4]
 1762 00ea 1D2B     		cmp	r3, #29
 1763 00ec 00F05582 		beq	.L52
 1764              		.loc 1 398 3 discriminator 29
 1765 00f0 7B68     		ldr	r3, [r7, #4]
 1766 00f2 1E2B     		cmp	r3, #30
 1767 00f4 00F05182 		beq	.L52
 1768              		.loc 1 398 3 discriminator 30
 1769 00f8 7B68     		ldr	r3, [r7, #4]
 1770 00fa 1F2B     		cmp	r3, #31
 1771 00fc 00F04D82 		beq	.L52
 1772              		.loc 1 398 3 discriminator 31
 1773 0100 7B68     		ldr	r3, [r7, #4]
 1774 0102 B3F1805F 		cmp	r3, #268435456
 1775 0106 00F04882 		beq	.L52
 1776              		.loc 1 398 3 discriminator 32
 1777 010a 7B68     		ldr	r3, [r7, #4]
 1778 010c 9F4A     		ldr	r2, .L54
 1779 010e 9342     		cmp	r3, r2
 1780 0110 00F04382 		beq	.L52
 1781              		.loc 1 398 3 discriminator 33
 1782 0114 7B68     		ldr	r3, [r7, #4]
 1783 0116 9E4A     		ldr	r2, .L54+4
 1784 0118 9342     		cmp	r3, r2
 1785 011a 00F03E82 		beq	.L52
 1786              		.loc 1 398 3 discriminator 34
 1787 011e 7B68     		ldr	r3, [r7, #4]
 1788 0120 9C4A     		ldr	r2, .L54+8
 1789 0122 9342     		cmp	r3, r2
 1790 0124 00F03982 		beq	.L52
 1791              		.loc 1 398 3 discriminator 35
 1792 0128 7B68     		ldr	r3, [r7, #4]
 1793 012a 9B4A     		ldr	r2, .L54+12
 1794 012c 9342     		cmp	r3, r2
 1795 012e 00F03482 		beq	.L52
 1796              		.loc 1 398 3 discriminator 36
 1797 0132 7B68     		ldr	r3, [r7, #4]
 1798 0134 994A     		ldr	r2, .L54+16
 1799 0136 9342     		cmp	r3, r2
 1800 0138 00F02F82 		beq	.L52
 1801              		.loc 1 398 3 discriminator 37
 1802 013c 7B68     		ldr	r3, [r7, #4]
 1803 013e 984A     		ldr	r2, .L54+20
 1804 0140 9342     		cmp	r3, r2
 1805 0142 00F02A82 		beq	.L52
 1806              		.loc 1 398 3 discriminator 38
 1807 0146 7B68     		ldr	r3, [r7, #4]
 1808 0148 964A     		ldr	r2, .L54+24
 1809 014a 9342     		cmp	r3, r2
 1810 014c 00F02582 		beq	.L52
 1811              		.loc 1 398 3 discriminator 39
 1812 0150 7B68     		ldr	r3, [r7, #4]
ARM GAS  /tmp/ccRTEIeG.s 			page 47


 1813 0152 954A     		ldr	r2, .L54+28
 1814 0154 9342     		cmp	r3, r2
 1815 0156 00F02082 		beq	.L52
 1816              		.loc 1 398 3 discriminator 40
 1817 015a 7B68     		ldr	r3, [r7, #4]
 1818 015c 934A     		ldr	r2, .L54+32
 1819 015e 9342     		cmp	r3, r2
 1820 0160 00F01B82 		beq	.L52
 1821              		.loc 1 398 3 discriminator 41
 1822 0164 7B68     		ldr	r3, [r7, #4]
 1823 0166 924A     		ldr	r2, .L54+36
 1824 0168 9342     		cmp	r3, r2
 1825 016a 00F01682 		beq	.L52
 1826              		.loc 1 398 3 discriminator 42
 1827 016e 7B68     		ldr	r3, [r7, #4]
 1828 0170 904A     		ldr	r2, .L54+40
 1829 0172 9342     		cmp	r3, r2
 1830 0174 00F01182 		beq	.L52
 1831              		.loc 1 398 3 discriminator 43
 1832 0178 7B68     		ldr	r3, [r7, #4]
 1833 017a 8F4A     		ldr	r2, .L54+44
 1834 017c 9342     		cmp	r3, r2
 1835 017e 00F00C82 		beq	.L52
 1836              		.loc 1 398 3 discriminator 44
 1837 0182 7B68     		ldr	r3, [r7, #4]
 1838 0184 8D4A     		ldr	r2, .L54+48
 1839 0186 9342     		cmp	r3, r2
 1840 0188 00F00782 		beq	.L52
 1841              		.loc 1 398 3 discriminator 45
 1842 018c 7B68     		ldr	r3, [r7, #4]
 1843 018e 8C4A     		ldr	r2, .L54+52
 1844 0190 9342     		cmp	r3, r2
 1845 0192 00F00282 		beq	.L52
 1846              		.loc 1 398 3 discriminator 46
 1847 0196 7B68     		ldr	r3, [r7, #4]
 1848 0198 8A4A     		ldr	r2, .L54+56
 1849 019a 9342     		cmp	r3, r2
 1850 019c 00F0FD81 		beq	.L52
 1851              		.loc 1 398 3 discriminator 47
 1852 01a0 7B68     		ldr	r3, [r7, #4]
 1853 01a2 894A     		ldr	r2, .L54+60
 1854 01a4 9342     		cmp	r3, r2
 1855 01a6 00F0F881 		beq	.L52
 1856              		.loc 1 398 3 discriminator 48
 1857 01aa 7B68     		ldr	r3, [r7, #4]
 1858 01ac 874A     		ldr	r2, .L54+64
 1859 01ae 9342     		cmp	r3, r2
 1860 01b0 00F0F381 		beq	.L52
 1861              		.loc 1 398 3 discriminator 49
 1862 01b4 7B68     		ldr	r3, [r7, #4]
 1863 01b6 864A     		ldr	r2, .L54+68
 1864 01b8 9342     		cmp	r3, r2
 1865 01ba 00F0EE81 		beq	.L52
 1866              		.loc 1 398 3 discriminator 50
 1867 01be 7B68     		ldr	r3, [r7, #4]
 1868 01c0 844A     		ldr	r2, .L54+72
 1869 01c2 9342     		cmp	r3, r2
ARM GAS  /tmp/ccRTEIeG.s 			page 48


 1870 01c4 00F0E981 		beq	.L52
 1871              		.loc 1 398 3 discriminator 51
 1872 01c8 7B68     		ldr	r3, [r7, #4]
 1873 01ca 834A     		ldr	r2, .L54+76
 1874 01cc 9342     		cmp	r3, r2
 1875 01ce 00F0E481 		beq	.L52
 1876              		.loc 1 398 3 discriminator 52
 1877 01d2 7B68     		ldr	r3, [r7, #4]
 1878 01d4 814A     		ldr	r2, .L54+80
 1879 01d6 9342     		cmp	r3, r2
 1880 01d8 00F0DF81 		beq	.L52
 1881              		.loc 1 398 3 discriminator 53
 1882 01dc 7B68     		ldr	r3, [r7, #4]
 1883 01de 804A     		ldr	r2, .L54+84
 1884 01e0 9342     		cmp	r3, r2
 1885 01e2 00F0DA81 		beq	.L52
 1886              		.loc 1 398 3 discriminator 54
 1887 01e6 7B68     		ldr	r3, [r7, #4]
 1888 01e8 7E4A     		ldr	r2, .L54+88
 1889 01ea 9342     		cmp	r3, r2
 1890 01ec 00F0D581 		beq	.L52
 1891              		.loc 1 398 3 discriminator 55
 1892 01f0 7B68     		ldr	r3, [r7, #4]
 1893 01f2 7D4A     		ldr	r2, .L54+92
 1894 01f4 9342     		cmp	r3, r2
 1895 01f6 00F0D081 		beq	.L52
 1896              		.loc 1 398 3 discriminator 56
 1897 01fa 7B68     		ldr	r3, [r7, #4]
 1898 01fc 7B4A     		ldr	r2, .L54+96
 1899 01fe 9342     		cmp	r3, r2
 1900 0200 00F0CB81 		beq	.L52
 1901              		.loc 1 398 3 discriminator 57
 1902 0204 7B68     		ldr	r3, [r7, #4]
 1903 0206 7A4A     		ldr	r2, .L54+100
 1904 0208 9342     		cmp	r3, r2
 1905 020a 00F0C681 		beq	.L52
 1906              		.loc 1 398 3 discriminator 58
 1907 020e 7B68     		ldr	r3, [r7, #4]
 1908 0210 784A     		ldr	r2, .L54+104
 1909 0212 9342     		cmp	r3, r2
 1910 0214 00F0C181 		beq	.L52
 1911              		.loc 1 398 3 discriminator 59
 1912 0218 7B68     		ldr	r3, [r7, #4]
 1913 021a 774A     		ldr	r2, .L54+108
 1914 021c 9342     		cmp	r3, r2
 1915 021e 00F0BC81 		beq	.L52
 1916              		.loc 1 398 3 discriminator 60
 1917 0222 7B68     		ldr	r3, [r7, #4]
 1918 0224 754A     		ldr	r2, .L54+112
 1919 0226 9342     		cmp	r3, r2
 1920 0228 00F0B781 		beq	.L52
 1921              		.loc 1 398 3 discriminator 61
 1922 022c 7B68     		ldr	r3, [r7, #4]
 1923 022e B3F1005F 		cmp	r3, #536870912
 1924 0232 00F0B281 		beq	.L52
 1925              		.loc 1 398 3 discriminator 62
 1926 0236 7B68     		ldr	r3, [r7, #4]
ARM GAS  /tmp/ccRTEIeG.s 			page 49


 1927 0238 714A     		ldr	r2, .L54+116
 1928 023a 9342     		cmp	r3, r2
 1929 023c 00F0AD81 		beq	.L52
 1930              		.loc 1 398 3 discriminator 63
 1931 0240 7B68     		ldr	r3, [r7, #4]
 1932 0242 704A     		ldr	r2, .L54+120
 1933 0244 9342     		cmp	r3, r2
 1934 0246 00F0A881 		beq	.L52
 1935              		.loc 1 398 3 discriminator 64
 1936 024a 7B68     		ldr	r3, [r7, #4]
 1937 024c 6E4A     		ldr	r2, .L54+124
 1938 024e 9342     		cmp	r3, r2
 1939 0250 00F0A381 		beq	.L52
 1940              		.loc 1 398 3 discriminator 65
 1941 0254 7B68     		ldr	r3, [r7, #4]
 1942 0256 6D4A     		ldr	r2, .L54+128
 1943 0258 9342     		cmp	r3, r2
 1944 025a 00F09E81 		beq	.L52
 1945              		.loc 1 398 3 discriminator 66
 1946 025e 7B68     		ldr	r3, [r7, #4]
 1947 0260 6B4A     		ldr	r2, .L54+132
 1948 0262 9342     		cmp	r3, r2
 1949 0264 00F09981 		beq	.L52
 1950              		.loc 1 398 3 discriminator 67
 1951 0268 7B68     		ldr	r3, [r7, #4]
 1952 026a 6A4A     		ldr	r2, .L54+136
 1953 026c 9342     		cmp	r3, r2
 1954 026e 00F09481 		beq	.L52
 1955              		.loc 1 398 3 discriminator 68
 1956 0272 7B68     		ldr	r3, [r7, #4]
 1957 0274 684A     		ldr	r2, .L54+140
 1958 0276 9342     		cmp	r3, r2
 1959 0278 00F08F81 		beq	.L52
 1960              		.loc 1 398 3 discriminator 69
 1961 027c 7B68     		ldr	r3, [r7, #4]
 1962 027e 674A     		ldr	r2, .L54+144
 1963 0280 9342     		cmp	r3, r2
 1964 0282 00F08A81 		beq	.L52
 1965              		.loc 1 398 3 discriminator 70
 1966 0286 7B68     		ldr	r3, [r7, #4]
 1967 0288 654A     		ldr	r2, .L54+148
 1968 028a 9342     		cmp	r3, r2
 1969 028c 00F08581 		beq	.L52
 1970              		.loc 1 398 3 discriminator 71
 1971 0290 7B68     		ldr	r3, [r7, #4]
 1972 0292 644A     		ldr	r2, .L54+152
 1973 0294 9342     		cmp	r3, r2
 1974 0296 00F08081 		beq	.L52
 1975              		.loc 1 398 3 discriminator 72
 1976 029a 7B68     		ldr	r3, [r7, #4]
 1977 029c 624A     		ldr	r2, .L54+156
 1978 029e 9342     		cmp	r3, r2
 1979 02a0 00F07B81 		beq	.L52
 1980              		.loc 1 398 3 discriminator 73
 1981 02a4 7B68     		ldr	r3, [r7, #4]
 1982 02a6 614A     		ldr	r2, .L54+160
 1983 02a8 9342     		cmp	r3, r2
ARM GAS  /tmp/ccRTEIeG.s 			page 50


 1984 02aa 00F07681 		beq	.L52
 1985              		.loc 1 398 3 discriminator 74
 1986 02ae 7B68     		ldr	r3, [r7, #4]
 1987 02b0 5F4A     		ldr	r2, .L54+164
 1988 02b2 9342     		cmp	r3, r2
 1989 02b4 00F07181 		beq	.L52
 1990              		.loc 1 398 3 discriminator 75
 1991 02b8 7B68     		ldr	r3, [r7, #4]
 1992 02ba 5E4A     		ldr	r2, .L54+168
 1993 02bc 9342     		cmp	r3, r2
 1994 02be 00F06C81 		beq	.L52
 1995              		.loc 1 398 3 discriminator 76
 1996 02c2 7B68     		ldr	r3, [r7, #4]
 1997 02c4 5C4A     		ldr	r2, .L54+172
 1998 02c6 9342     		cmp	r3, r2
 1999 02c8 00F06781 		beq	.L52
 2000              		.loc 1 398 3 discriminator 77
 2001 02cc 7B68     		ldr	r3, [r7, #4]
 2002 02ce 5B4A     		ldr	r2, .L54+176
 2003 02d0 9342     		cmp	r3, r2
 2004 02d2 00F06281 		beq	.L52
 2005              		.loc 1 398 3 discriminator 78
 2006 02d6 7B68     		ldr	r3, [r7, #4]
 2007 02d8 594A     		ldr	r2, .L54+180
 2008 02da 9342     		cmp	r3, r2
 2009 02dc 00F05D81 		beq	.L52
 2010              		.loc 1 398 3 discriminator 79
 2011 02e0 7B68     		ldr	r3, [r7, #4]
 2012 02e2 584A     		ldr	r2, .L54+184
 2013 02e4 9342     		cmp	r3, r2
 2014 02e6 00F05881 		beq	.L52
 2015              		.loc 1 398 3 discriminator 80
 2016 02ea 7B68     		ldr	r3, [r7, #4]
 2017 02ec 564A     		ldr	r2, .L54+188
 2018 02ee 9342     		cmp	r3, r2
 2019 02f0 00F05381 		beq	.L52
 2020              		.loc 1 398 3 discriminator 81
 2021 02f4 7B68     		ldr	r3, [r7, #4]
 2022 02f6 554A     		ldr	r2, .L54+192
 2023 02f8 9342     		cmp	r3, r2
 2024 02fa 00F04E81 		beq	.L52
 2025              		.loc 1 398 3 discriminator 82
 2026 02fe 7B68     		ldr	r3, [r7, #4]
 2027 0300 534A     		ldr	r2, .L54+196
 2028 0302 9342     		cmp	r3, r2
 2029 0304 00F04981 		beq	.L52
 2030              		.loc 1 398 3 discriminator 83
 2031 0308 7B68     		ldr	r3, [r7, #4]
 2032 030a B3F1405F 		cmp	r3, #805306368
 2033 030e 00F04481 		beq	.L52
 2034              		.loc 1 398 3 discriminator 84
 2035 0312 7B68     		ldr	r3, [r7, #4]
 2036 0314 4F4A     		ldr	r2, .L54+200
 2037 0316 9342     		cmp	r3, r2
 2038 0318 00F03F81 		beq	.L52
 2039              		.loc 1 398 3 discriminator 85
 2040 031c 7B68     		ldr	r3, [r7, #4]
ARM GAS  /tmp/ccRTEIeG.s 			page 51


 2041 031e 4E4A     		ldr	r2, .L54+204
 2042 0320 9342     		cmp	r3, r2
 2043 0322 00F03A81 		beq	.L52
 2044              		.loc 1 398 3 discriminator 86
 2045 0326 7B68     		ldr	r3, [r7, #4]
 2046 0328 4C4A     		ldr	r2, .L54+208
 2047 032a 9342     		cmp	r3, r2
 2048 032c 00F03581 		beq	.L52
 2049              		.loc 1 398 3 discriminator 87
 2050 0330 7B68     		ldr	r3, [r7, #4]
 2051 0332 4B4A     		ldr	r2, .L54+212
 2052 0334 9342     		cmp	r3, r2
 2053 0336 00F03081 		beq	.L52
 2054              		.loc 1 398 3 discriminator 88
 2055 033a 7B68     		ldr	r3, [r7, #4]
 2056 033c 494A     		ldr	r2, .L54+216
 2057 033e 9342     		cmp	r3, r2
 2058 0340 00F02B81 		beq	.L52
 2059              		.loc 1 398 3 discriminator 89
 2060 0344 7B68     		ldr	r3, [r7, #4]
 2061 0346 484A     		ldr	r2, .L54+220
 2062 0348 9342     		cmp	r3, r2
 2063 034a 00F02681 		beq	.L52
 2064              		.loc 1 398 3 discriminator 90
 2065 034e 7B68     		ldr	r3, [r7, #4]
 2066 0350 464A     		ldr	r2, .L54+224
 2067 0352 9342     		cmp	r3, r2
 2068 0354 00F02181 		beq	.L52
 2069              		.loc 1 398 3 discriminator 91
 2070 0358 7B68     		ldr	r3, [r7, #4]
 2071 035a 454A     		ldr	r2, .L54+228
 2072 035c 9342     		cmp	r3, r2
 2073 035e 00F01C81 		beq	.L52
 2074              		.loc 1 398 3 discriminator 92
 2075 0362 7B68     		ldr	r3, [r7, #4]
 2076 0364 434A     		ldr	r2, .L54+232
 2077 0366 9342     		cmp	r3, r2
 2078 0368 00F01781 		beq	.L52
 2079              		.loc 1 398 3 discriminator 93
 2080 036c 7B68     		ldr	r3, [r7, #4]
 2081 036e 424A     		ldr	r2, .L54+236
 2082 0370 9342     		cmp	r3, r2
 2083 0372 00F01281 		beq	.L52
 2084              		.loc 1 398 3 discriminator 94
 2085 0376 7B68     		ldr	r3, [r7, #4]
 2086 0378 404A     		ldr	r2, .L54+240
 2087 037a 9342     		cmp	r3, r2
 2088 037c 00F00D81 		beq	.L52
 2089              		.loc 1 398 3 discriminator 95
 2090 0380 7B68     		ldr	r3, [r7, #4]
 2091 0382 3F4A     		ldr	r2, .L54+244
 2092 0384 9342     		cmp	r3, r2
 2093 0386 00F00881 		beq	.L52
 2094 038a 7BE0     		b	.L55
 2095              	.L56:
 2096              		.align	2
 2097              	.L54:
ARM GAS  /tmp/ccRTEIeG.s 			page 52


 2098 038c 01000010 		.word	268435457
 2099 0390 02000010 		.word	268435458
 2100 0394 03000010 		.word	268435459
 2101 0398 04000010 		.word	268435460
 2102 039c 05000010 		.word	268435461
 2103 03a0 06000010 		.word	268435462
 2104 03a4 07000010 		.word	268435463
 2105 03a8 08000010 		.word	268435464
 2106 03ac 09000010 		.word	268435465
 2107 03b0 0A000010 		.word	268435466
 2108 03b4 0B000010 		.word	268435467
 2109 03b8 0C000010 		.word	268435468
 2110 03bc 0D000010 		.word	268435469
 2111 03c0 0E000010 		.word	268435470
 2112 03c4 0F000010 		.word	268435471
 2113 03c8 10000010 		.word	268435472
 2114 03cc 11000010 		.word	268435473
 2115 03d0 12000010 		.word	268435474
 2116 03d4 13000010 		.word	268435475
 2117 03d8 14000010 		.word	268435476
 2118 03dc 15000010 		.word	268435477
 2119 03e0 16000010 		.word	268435478
 2120 03e4 17000010 		.word	268435479
 2121 03e8 18000010 		.word	268435480
 2122 03ec 19000010 		.word	268435481
 2123 03f0 1A000010 		.word	268435482
 2124 03f4 1C000010 		.word	268435484
 2125 03f8 1D000010 		.word	268435485
 2126 03fc 1E000010 		.word	268435486
 2127 0400 01000020 		.word	536870913
 2128 0404 03000020 		.word	536870915
 2129 0408 04000020 		.word	536870916
 2130 040c 05000020 		.word	536870917
 2131 0410 0C000020 		.word	536870924
 2132 0414 0D000020 		.word	536870925
 2133 0418 0E000020 		.word	536870926
 2134 041c 0F000020 		.word	536870927
 2135 0420 10000020 		.word	536870928
 2136 0424 11000020 		.word	536870929
 2137 0428 12000020 		.word	536870930
 2138 042c 13000020 		.word	536870931
 2139 0430 14000020 		.word	536870932
 2140 0434 16000020 		.word	536870934
 2141 0438 17000020 		.word	536870935
 2142 043c 18000020 		.word	536870936
 2143 0440 19000020 		.word	536870937
 2144 0444 1A000020 		.word	536870938
 2145 0448 1C000020 		.word	536870940
 2146 044c 1D000020 		.word	536870941
 2147 0450 1E000020 		.word	536870942
 2148 0454 01000030 		.word	805306369
 2149 0458 02000030 		.word	805306370
 2150 045c 03000030 		.word	805306371
 2151 0460 04000030 		.word	805306372
 2152 0464 05000030 		.word	805306373
 2153 0468 06000030 		.word	805306374
 2154 046c 07000030 		.word	805306375
ARM GAS  /tmp/ccRTEIeG.s 			page 53


 2155 0470 08000030 		.word	805306376
 2156 0474 0A000030 		.word	805306378
 2157 0478 02000040 		.word	1073741826
 2158 047c 03000040 		.word	1073741827
 2159 0480 05000040 		.word	1073741829
 2160              	.L55:
 2161              		.loc 1 398 3 discriminator 96
 2162 0484 7B68     		ldr	r3, [r7, #4]
 2163 0486 5E4A     		ldr	r2, .L57
 2164 0488 9342     		cmp	r3, r2
 2165 048a 00F08680 		beq	.L52
 2166              		.loc 1 398 3 discriminator 97
 2167 048e 7B68     		ldr	r3, [r7, #4]
 2168 0490 5C4A     		ldr	r2, .L57+4
 2169 0492 9342     		cmp	r3, r2
 2170 0494 00F08180 		beq	.L52
 2171              		.loc 1 398 3 discriminator 98
 2172 0498 7B68     		ldr	r3, [r7, #4]
 2173 049a 5B4A     		ldr	r2, .L57+8
 2174 049c 9342     		cmp	r3, r2
 2175 049e 7CD0     		beq	.L52
 2176              		.loc 1 398 3 discriminator 99
 2177 04a0 7B68     		ldr	r3, [r7, #4]
 2178 04a2 5A4A     		ldr	r2, .L57+12
 2179 04a4 9342     		cmp	r3, r2
 2180 04a6 78D0     		beq	.L52
 2181              		.loc 1 398 3 discriminator 100
 2182 04a8 7B68     		ldr	r3, [r7, #4]
 2183 04aa 594A     		ldr	r2, .L57+16
 2184 04ac 9342     		cmp	r3, r2
 2185 04ae 74D0     		beq	.L52
 2186              		.loc 1 398 3 discriminator 101
 2187 04b0 7B68     		ldr	r3, [r7, #4]
 2188 04b2 584A     		ldr	r2, .L57+20
 2189 04b4 9342     		cmp	r3, r2
 2190 04b6 70D0     		beq	.L52
 2191              		.loc 1 398 3 discriminator 102
 2192 04b8 7B68     		ldr	r3, [r7, #4]
 2193 04ba 574A     		ldr	r2, .L57+24
 2194 04bc 9342     		cmp	r3, r2
 2195 04be 6CD0     		beq	.L52
 2196              		.loc 1 398 3 discriminator 103
 2197 04c0 7B68     		ldr	r3, [r7, #4]
 2198 04c2 564A     		ldr	r2, .L57+28
 2199 04c4 9342     		cmp	r3, r2
 2200 04c6 68D0     		beq	.L52
 2201              		.loc 1 398 3 discriminator 104
 2202 04c8 7B68     		ldr	r3, [r7, #4]
 2203 04ca 554A     		ldr	r2, .L57+32
 2204 04cc 9342     		cmp	r3, r2
 2205 04ce 64D0     		beq	.L52
 2206              		.loc 1 398 3 discriminator 105
 2207 04d0 7B68     		ldr	r3, [r7, #4]
 2208 04d2 544A     		ldr	r2, .L57+36
 2209 04d4 9342     		cmp	r3, r2
 2210 04d6 60D0     		beq	.L52
 2211              		.loc 1 398 3 discriminator 106
ARM GAS  /tmp/ccRTEIeG.s 			page 54


 2212 04d8 7B68     		ldr	r3, [r7, #4]
 2213 04da B3F1A04F 		cmp	r3, #1342177280
 2214 04de 5CD0     		beq	.L52
 2215              		.loc 1 398 3 discriminator 107
 2216 04e0 7B68     		ldr	r3, [r7, #4]
 2217 04e2 514A     		ldr	r2, .L57+40
 2218 04e4 9342     		cmp	r3, r2
 2219 04e6 58D0     		beq	.L52
 2220              		.loc 1 398 3 discriminator 108
 2221 04e8 7B68     		ldr	r3, [r7, #4]
 2222 04ea 504A     		ldr	r2, .L57+44
 2223 04ec 9342     		cmp	r3, r2
 2224 04ee 54D0     		beq	.L52
 2225              		.loc 1 398 3 discriminator 109
 2226 04f0 7B68     		ldr	r3, [r7, #4]
 2227 04f2 4F4A     		ldr	r2, .L57+48
 2228 04f4 9342     		cmp	r3, r2
 2229 04f6 50D0     		beq	.L52
 2230              		.loc 1 398 3 discriminator 110
 2231 04f8 7B68     		ldr	r3, [r7, #4]
 2232 04fa 4E4A     		ldr	r2, .L57+52
 2233 04fc 9342     		cmp	r3, r2
 2234 04fe 4CD0     		beq	.L52
 2235              		.loc 1 398 3 discriminator 111
 2236 0500 7B68     		ldr	r3, [r7, #4]
 2237 0502 4D4A     		ldr	r2, .L57+56
 2238 0504 9342     		cmp	r3, r2
 2239 0506 48D0     		beq	.L52
 2240              		.loc 1 398 3 discriminator 112
 2241 0508 7B68     		ldr	r3, [r7, #4]
 2242 050a 4C4A     		ldr	r2, .L57+60
 2243 050c 9342     		cmp	r3, r2
 2244 050e 44D0     		beq	.L52
 2245              		.loc 1 398 3 discriminator 113
 2246 0510 7B68     		ldr	r3, [r7, #4]
 2247 0512 4B4A     		ldr	r2, .L57+64
 2248 0514 9342     		cmp	r3, r2
 2249 0516 40D0     		beq	.L52
 2250              		.loc 1 398 3 discriminator 114
 2251 0518 7B68     		ldr	r3, [r7, #4]
 2252 051a 4A4A     		ldr	r2, .L57+68
 2253 051c 9342     		cmp	r3, r2
 2254 051e 3CD0     		beq	.L52
 2255              		.loc 1 398 3 discriminator 115
 2256 0520 7B68     		ldr	r3, [r7, #4]
 2257 0522 494A     		ldr	r2, .L57+72
 2258 0524 9342     		cmp	r3, r2
 2259 0526 38D0     		beq	.L52
 2260              		.loc 1 398 3 discriminator 116
 2261 0528 7B68     		ldr	r3, [r7, #4]
 2262 052a 484A     		ldr	r2, .L57+76
 2263 052c 9342     		cmp	r3, r2
 2264 052e 34D0     		beq	.L52
 2265              		.loc 1 398 3 discriminator 117
 2266 0530 7B68     		ldr	r3, [r7, #4]
 2267 0532 474A     		ldr	r2, .L57+80
 2268 0534 9342     		cmp	r3, r2
ARM GAS  /tmp/ccRTEIeG.s 			page 55


 2269 0536 30D0     		beq	.L52
 2270              		.loc 1 398 3 discriminator 118
 2271 0538 7B68     		ldr	r3, [r7, #4]
 2272 053a 464A     		ldr	r2, .L57+84
 2273 053c 9342     		cmp	r3, r2
 2274 053e 2CD0     		beq	.L52
 2275              		.loc 1 398 3 discriminator 119
 2276 0540 7B68     		ldr	r3, [r7, #4]
 2277 0542 454A     		ldr	r2, .L57+88
 2278 0544 9342     		cmp	r3, r2
 2279 0546 28D0     		beq	.L52
 2280              		.loc 1 398 3 discriminator 120
 2281 0548 7B68     		ldr	r3, [r7, #4]
 2282 054a 444A     		ldr	r2, .L57+92
 2283 054c 9342     		cmp	r3, r2
 2284 054e 24D0     		beq	.L52
 2285              		.loc 1 398 3 discriminator 121
 2286 0550 7B68     		ldr	r3, [r7, #4]
 2287 0552 434A     		ldr	r2, .L57+96
 2288 0554 9342     		cmp	r3, r2
 2289 0556 20D0     		beq	.L52
 2290              		.loc 1 398 3 discriminator 122
 2291 0558 7B68     		ldr	r3, [r7, #4]
 2292 055a 424A     		ldr	r2, .L57+100
 2293 055c 9342     		cmp	r3, r2
 2294 055e 1CD0     		beq	.L52
 2295              		.loc 1 398 3 discriminator 123
 2296 0560 7B68     		ldr	r3, [r7, #4]
 2297 0562 414A     		ldr	r2, .L57+104
 2298 0564 9342     		cmp	r3, r2
 2299 0566 18D0     		beq	.L52
 2300              		.loc 1 398 3 discriminator 124
 2301 0568 7B68     		ldr	r3, [r7, #4]
 2302 056a 404A     		ldr	r2, .L57+108
 2303 056c 9342     		cmp	r3, r2
 2304 056e 14D0     		beq	.L52
 2305              		.loc 1 398 3 discriminator 125
 2306 0570 7B68     		ldr	r3, [r7, #4]
 2307 0572 3F4A     		ldr	r2, .L57+112
 2308 0574 9342     		cmp	r3, r2
 2309 0576 10D0     		beq	.L52
 2310              		.loc 1 398 3 discriminator 126
 2311 0578 7B68     		ldr	r3, [r7, #4]
 2312 057a 3E4A     		ldr	r2, .L57+116
 2313 057c 9342     		cmp	r3, r2
 2314 057e 0CD0     		beq	.L52
 2315              		.loc 1 398 3 discriminator 127
 2316 0580 7B68     		ldr	r3, [r7, #4]
 2317 0582 3D4A     		ldr	r2, .L57+120
 2318 0584 9342     		cmp	r3, r2
 2319 0586 08D0     		beq	.L52
 2320              		.loc 1 398 3 discriminator 128
 2321 0588 7B68     		ldr	r3, [r7, #4]
 2322 058a 3C4A     		ldr	r2, .L57+124
 2323 058c 9342     		cmp	r3, r2
 2324 058e 04D0     		beq	.L52
 2325              		.loc 1 398 3 discriminator 129
ARM GAS  /tmp/ccRTEIeG.s 			page 56


 2326 0590 4FF4C771 		mov	r1, #398
 2327 0594 3A48     		ldr	r0, .L57+128
 2328 0596 FFF7FEFF 		bl	assert_failed
 2329              	.L52:
 399:STM32Cube_FW_N6/Drivers/STM32N6xx_HAL_Driver/Src/stm32n6xx_hal_rif.c **** 
 400:STM32Cube_FW_N6/Drivers/STM32N6xx_HAL_Driver/Src/stm32n6xx_hal_rif.c ****   p_sec_reg = &(RIFSC->RISC_SECCFGRx[PeriphId >> RIF_PERIPH_REG_SHIFT]);
 2330              		.loc 1 400 47 is_stmt 1
 2331 059a 7B68     		ldr	r3, [r7, #4]
 2332 059c 1B0F     		lsrs	r3, r3, #28
 2333              		.loc 1 400 15
 2334 059e 9A00     		lsls	r2, r3, #2
 2335              		.loc 1 400 13
 2336 05a0 384B     		ldr	r3, .L57+132
 2337 05a2 1344     		add	r3, r3, r2
 2338 05a4 FB60     		str	r3, [r7, #12]
 401:STM32Cube_FW_N6/Drivers/STM32N6xx_HAL_Driver/Src/stm32n6xx_hal_rif.c ****   sec_attr = ((*p_sec_reg & ((uint32_t)RIF_ATTRIBUTE_SEC << (PeriphId & RIF_PERIPH_BIT_POSITION))) 
 2339              		.loc 1 401 16
 2340 05a6 FB68     		ldr	r3, [r7, #12]
 2341 05a8 1A68     		ldr	r2, [r3]
 2342              		.loc 1 401 71
 2343 05aa 7B68     		ldr	r3, [r7, #4]
 2344 05ac 03F01F03 		and	r3, r3, #31
 2345              		.loc 1 401 58
 2346 05b0 0121     		movs	r1, #1
 2347 05b2 01FA03F3 		lsl	r3, r1, r3
 2348              		.loc 1 401 27
 2349 05b6 1A40     		ands	r2, r2, r3
 2350              		.loc 1 401 113
 2351 05b8 7B68     		ldr	r3, [r7, #4]
 2352 05ba 03F01F03 		and	r3, r3, #31
 2353              		.loc 1 401 12
 2354 05be 22FA03F3 		lsr	r3, r2, r3
 2355 05c2 BB60     		str	r3, [r7, #8]
 402:STM32Cube_FW_N6/Drivers/STM32N6xx_HAL_Driver/Src/stm32n6xx_hal_rif.c **** 
 403:STM32Cube_FW_N6/Drivers/STM32N6xx_HAL_Driver/Src/stm32n6xx_hal_rif.c ****   p_sec_reg = &(RIFSC->RISC_PRIVCFGRx[PeriphId >> RIF_PERIPH_REG_SHIFT]);
 2356              		.loc 1 403 48
 2357 05c4 7B68     		ldr	r3, [r7, #4]
 2358 05c6 1B0F     		lsrs	r3, r3, #28
 2359              		.loc 1 403 15
 2360 05c8 9A00     		lsls	r2, r3, #2
 2361              		.loc 1 403 13
 2362 05ca 2F4B     		ldr	r3, .L57+136
 2363 05cc 1344     		add	r3, r3, r2
 2364 05ce FB60     		str	r3, [r7, #12]
 404:STM32Cube_FW_N6/Drivers/STM32N6xx_HAL_Driver/Src/stm32n6xx_hal_rif.c ****   sec_attr |= (((*p_sec_reg & ((uint32_t)RIF_ATTRIBUTE_SEC << (PeriphId & RIF_PERIPH_BIT_POSITION))
 2365              		.loc 1 404 18
 2366 05d0 FB68     		ldr	r3, [r7, #12]
 2367 05d2 1A68     		ldr	r2, [r3]
 2368              		.loc 1 404 73
 2369 05d4 7B68     		ldr	r3, [r7, #4]
 2370 05d6 03F01F03 		and	r3, r3, #31
 2371              		.loc 1 404 60
 2372 05da 0121     		movs	r1, #1
 2373 05dc 01FA03F3 		lsl	r3, r1, r3
 2374              		.loc 1 404 29
 2375 05e0 1A40     		ands	r2, r2, r3
 2376              		.loc 1 404 115
ARM GAS  /tmp/ccRTEIeG.s 			page 57


 2377 05e2 7B68     		ldr	r3, [r7, #4]
 2378 05e4 03F01F03 		and	r3, r3, #31
 2379              		.loc 1 404 102
 2380 05e8 22FA03F3 		lsr	r3, r2, r3
 2381              		.loc 1 404 143
 2382 05ec 5B00     		lsls	r3, r3, #1
 2383              		.loc 1 404 12
 2384 05ee BA68     		ldr	r2, [r7, #8]
 2385 05f0 1343     		orrs	r3, r3, r2
 2386 05f2 BB60     		str	r3, [r7, #8]
 405:STM32Cube_FW_N6/Drivers/STM32N6xx_HAL_Driver/Src/stm32n6xx_hal_rif.c **** 
 406:STM32Cube_FW_N6/Drivers/STM32N6xx_HAL_Driver/Src/stm32n6xx_hal_rif.c ****   return sec_attr;
 2387              		.loc 1 406 10
 2388 05f4 BB68     		ldr	r3, [r7, #8]
 407:STM32Cube_FW_N6/Drivers/STM32N6xx_HAL_Driver/Src/stm32n6xx_hal_rif.c **** }
 2389              		.loc 1 407 1
 2390 05f6 1846     		mov	r0, r3
 2391 05f8 1037     		adds	r7, r7, #16
 2392              		.cfi_def_cfa_offset 8
 2393 05fa BD46     		mov	sp, r7
 2394              		.cfi_def_cfa_register 13
 2395              		@ sp needed
 2396 05fc 80BD     		pop	{r7, pc}
 2397              	.L58:
 2398 05fe 00BF     		.align	2
 2399              	.L57:
 2400 0600 0C000040 		.word	1073741836
 2401 0604 0D000040 		.word	1073741837
 2402 0608 11000040 		.word	1073741841
 2403 060c 12000040 		.word	1073741842
 2404 0610 13000040 		.word	1073741843
 2405 0614 19000040 		.word	1073741849
 2406 0618 1B000040 		.word	1073741851
 2407 061c 1C000040 		.word	1073741852
 2408 0620 1D000040 		.word	1073741853
 2409 0624 1F000040 		.word	1073741855
 2410 0628 01000050 		.word	1342177281
 2411 062c 02000050 		.word	1342177282
 2412 0630 03000050 		.word	1342177283
 2413 0634 04000050 		.word	1342177284
 2414 0638 05000050 		.word	1342177285
 2415 063c 06000050 		.word	1342177286
 2416 0640 08000050 		.word	1342177288
 2417 0644 09000050 		.word	1342177289
 2418 0648 0A000050 		.word	1342177290
 2419 064c 0B000050 		.word	1342177291
 2420 0650 0D000050 		.word	1342177293
 2421 0654 0E000050 		.word	1342177294
 2422 0658 0F000050 		.word	1342177295
 2423 065c 11000050 		.word	1342177297
 2424 0660 12000050 		.word	1342177298
 2425 0664 13000050 		.word	1342177299
 2426 0668 14000050 		.word	1342177300
 2427 066c 16000050 		.word	1342177302
 2428 0670 17000050 		.word	1342177303
 2429 0674 18000050 		.word	1342177304
 2430 0678 1B000050 		.word	1342177307
ARM GAS  /tmp/ccRTEIeG.s 			page 58


 2431 067c 1E000050 		.word	1342177310
 2432 0680 00000000 		.word	.LC0
 2433 0684 10400254 		.word	1409433616
 2434 0688 30400254 		.word	1409433648
 2435              		.cfi_endproc
 2436              	.LFE844:
 2438              		.section	.text.HAL_RIF_RISC_SlaveConfigLock,"ax",%progbits
 2439              		.align	1
 2440              		.global	HAL_RIF_RISC_SlaveConfigLock
 2441              		.syntax unified
 2442              		.thumb
 2443              		.thumb_func
 2445              	HAL_RIF_RISC_SlaveConfigLock:
 2446              	.LFB845:
 408:STM32Cube_FW_N6/Drivers/STM32N6xx_HAL_Driver/Src/stm32n6xx_hal_rif.c **** 
 409:STM32Cube_FW_N6/Drivers/STM32N6xx_HAL_Driver/Src/stm32n6xx_hal_rif.c **** #if defined(CPU_AS_TRUSTED_DOMAIN)
 410:STM32Cube_FW_N6/Drivers/STM32N6xx_HAL_Driver/Src/stm32n6xx_hal_rif.c **** /**
 411:STM32Cube_FW_N6/Drivers/STM32N6xx_HAL_Driver/Src/stm32n6xx_hal_rif.c ****   * @brief  Lock the Isolation and Security configuration of the designated slave peripheral.
 412:STM32Cube_FW_N6/Drivers/STM32N6xx_HAL_Driver/Src/stm32n6xx_hal_rif.c ****   * @note   This API is protected by the Trusted Domain compilation directive.
 413:STM32Cube_FW_N6/Drivers/STM32N6xx_HAL_Driver/Src/stm32n6xx_hal_rif.c ****   * @param  PeriphId specifies the index of the bus slave.
 414:STM32Cube_FW_N6/Drivers/STM32N6xx_HAL_Driver/Src/stm32n6xx_hal_rif.c ****   *         This parameter can be one of @ref RIF_PERIPHERAL_INDEX
 415:STM32Cube_FW_N6/Drivers/STM32N6xx_HAL_Driver/Src/stm32n6xx_hal_rif.c ****   *         bits[31:28] define the register index a peripheral belongs to, value from 0 to 5
 416:STM32Cube_FW_N6/Drivers/STM32N6xx_HAL_Driver/Src/stm32n6xx_hal_rif.c ****   *         bits[4:0]   define the bit position within the register, value from 0 to 31
 417:STM32Cube_FW_N6/Drivers/STM32N6xx_HAL_Driver/Src/stm32n6xx_hal_rif.c ****   * @retval None
 418:STM32Cube_FW_N6/Drivers/STM32N6xx_HAL_Driver/Src/stm32n6xx_hal_rif.c ****   */
 419:STM32Cube_FW_N6/Drivers/STM32N6xx_HAL_Driver/Src/stm32n6xx_hal_rif.c **** void HAL_RIF_RISC_SlaveConfigLock(uint32_t PeriphId)
 420:STM32Cube_FW_N6/Drivers/STM32N6xx_HAL_Driver/Src/stm32n6xx_hal_rif.c **** {
 2447              		.loc 1 420 1
 2448              		.cfi_startproc
 2449              		@ args = 0, pretend = 0, frame = 16
 2450              		@ frame_needed = 1, uses_anonymous_args = 0
 2451 0000 80B5     		push	{r7, lr}
 2452              		.cfi_def_cfa_offset 8
 2453              		.cfi_offset 7, -8
 2454              		.cfi_offset 14, -4
 2455 0002 84B0     		sub	sp, sp, #16
 2456              		.cfi_def_cfa_offset 24
 2457 0004 00AF     		add	r7, sp, #0
 2458              		.cfi_def_cfa_register 7
 2459 0006 7860     		str	r0, [r7, #4]
 421:STM32Cube_FW_N6/Drivers/STM32N6xx_HAL_Driver/Src/stm32n6xx_hal_rif.c ****   __IO uint32_t *p_lock_reg;
 422:STM32Cube_FW_N6/Drivers/STM32N6xx_HAL_Driver/Src/stm32n6xx_hal_rif.c **** 
 423:STM32Cube_FW_N6/Drivers/STM32N6xx_HAL_Driver/Src/stm32n6xx_hal_rif.c ****   assert_param(IS_RIF_RISC_PERIPH_INDEX(PeriphId) || IS_RIF_RCC_PERIPH_INDEX(PeriphId));
 2460              		.loc 1 423 3
 2461 0008 7B68     		ldr	r3, [r7, #4]
 2462 000a 002B     		cmp	r3, #0
 2463 000c 00F0C582 		beq	.L60
 2464              		.loc 1 423 3 is_stmt 0 discriminator 1
 2465 0010 7B68     		ldr	r3, [r7, #4]
 2466 0012 012B     		cmp	r3, #1
 2467 0014 00F0C182 		beq	.L60
 2468              		.loc 1 423 3 discriminator 2
 2469 0018 7B68     		ldr	r3, [r7, #4]
 2470 001a 022B     		cmp	r3, #2
 2471 001c 00F0BD82 		beq	.L60
 2472              		.loc 1 423 3 discriminator 3
 2473 0020 7B68     		ldr	r3, [r7, #4]
ARM GAS  /tmp/ccRTEIeG.s 			page 59


 2474 0022 032B     		cmp	r3, #3
 2475 0024 00F0B982 		beq	.L60
 2476              		.loc 1 423 3 discriminator 4
 2477 0028 7B68     		ldr	r3, [r7, #4]
 2478 002a 042B     		cmp	r3, #4
 2479 002c 00F0B582 		beq	.L60
 2480              		.loc 1 423 3 discriminator 5
 2481 0030 7B68     		ldr	r3, [r7, #4]
 2482 0032 052B     		cmp	r3, #5
 2483 0034 00F0B182 		beq	.L60
 2484              		.loc 1 423 3 discriminator 6
 2485 0038 7B68     		ldr	r3, [r7, #4]
 2486 003a 062B     		cmp	r3, #6
 2487 003c 00F0AD82 		beq	.L60
 2488              		.loc 1 423 3 discriminator 7
 2489 0040 7B68     		ldr	r3, [r7, #4]
 2490 0042 082B     		cmp	r3, #8
 2491 0044 00F0A982 		beq	.L60
 2492              		.loc 1 423 3 discriminator 8
 2493 0048 7B68     		ldr	r3, [r7, #4]
 2494 004a 092B     		cmp	r3, #9
 2495 004c 00F0A582 		beq	.L60
 2496              		.loc 1 423 3 discriminator 9
 2497 0050 7B68     		ldr	r3, [r7, #4]
 2498 0052 0A2B     		cmp	r3, #10
 2499 0054 00F0A182 		beq	.L60
 2500              		.loc 1 423 3 discriminator 10
 2501 0058 7B68     		ldr	r3, [r7, #4]
 2502 005a 0B2B     		cmp	r3, #11
 2503 005c 00F09D82 		beq	.L60
 2504              		.loc 1 423 3 discriminator 11
 2505 0060 7B68     		ldr	r3, [r7, #4]
 2506 0062 0C2B     		cmp	r3, #12
 2507 0064 00F09982 		beq	.L60
 2508              		.loc 1 423 3 discriminator 12
 2509 0068 7B68     		ldr	r3, [r7, #4]
 2510 006a 0D2B     		cmp	r3, #13
 2511 006c 00F09582 		beq	.L60
 2512              		.loc 1 423 3 discriminator 13
 2513 0070 7B68     		ldr	r3, [r7, #4]
 2514 0072 0E2B     		cmp	r3, #14
 2515 0074 00F09182 		beq	.L60
 2516              		.loc 1 423 3 discriminator 14
 2517 0078 7B68     		ldr	r3, [r7, #4]
 2518 007a 0F2B     		cmp	r3, #15
 2519 007c 00F08D82 		beq	.L60
 2520              		.loc 1 423 3 discriminator 15
 2521 0080 7B68     		ldr	r3, [r7, #4]
 2522 0082 102B     		cmp	r3, #16
 2523 0084 00F08982 		beq	.L60
 2524              		.loc 1 423 3 discriminator 16
 2525 0088 7B68     		ldr	r3, [r7, #4]
 2526 008a 112B     		cmp	r3, #17
 2527 008c 00F08582 		beq	.L60
 2528              		.loc 1 423 3 discriminator 17
 2529 0090 7B68     		ldr	r3, [r7, #4]
 2530 0092 122B     		cmp	r3, #18
ARM GAS  /tmp/ccRTEIeG.s 			page 60


 2531 0094 00F08182 		beq	.L60
 2532              		.loc 1 423 3 discriminator 18
 2533 0098 7B68     		ldr	r3, [r7, #4]
 2534 009a 132B     		cmp	r3, #19
 2535 009c 00F07D82 		beq	.L60
 2536              		.loc 1 423 3 discriminator 19
 2537 00a0 7B68     		ldr	r3, [r7, #4]
 2538 00a2 142B     		cmp	r3, #20
 2539 00a4 00F07982 		beq	.L60
 2540              		.loc 1 423 3 discriminator 20
 2541 00a8 7B68     		ldr	r3, [r7, #4]
 2542 00aa 152B     		cmp	r3, #21
 2543 00ac 00F07582 		beq	.L60
 2544              		.loc 1 423 3 discriminator 21
 2545 00b0 7B68     		ldr	r3, [r7, #4]
 2546 00b2 162B     		cmp	r3, #22
 2547 00b4 00F07182 		beq	.L60
 2548              		.loc 1 423 3 discriminator 22
 2549 00b8 7B68     		ldr	r3, [r7, #4]
 2550 00ba 172B     		cmp	r3, #23
 2551 00bc 00F06D82 		beq	.L60
 2552              		.loc 1 423 3 discriminator 23
 2553 00c0 7B68     		ldr	r3, [r7, #4]
 2554 00c2 182B     		cmp	r3, #24
 2555 00c4 00F06982 		beq	.L60
 2556              		.loc 1 423 3 discriminator 24
 2557 00c8 7B68     		ldr	r3, [r7, #4]
 2558 00ca 192B     		cmp	r3, #25
 2559 00cc 00F06582 		beq	.L60
 2560              		.loc 1 423 3 discriminator 25
 2561 00d0 7B68     		ldr	r3, [r7, #4]
 2562 00d2 1A2B     		cmp	r3, #26
 2563 00d4 00F06182 		beq	.L60
 2564              		.loc 1 423 3 discriminator 26
 2565 00d8 7B68     		ldr	r3, [r7, #4]
 2566 00da 1B2B     		cmp	r3, #27
 2567 00dc 00F05D82 		beq	.L60
 2568              		.loc 1 423 3 discriminator 27
 2569 00e0 7B68     		ldr	r3, [r7, #4]
 2570 00e2 1C2B     		cmp	r3, #28
 2571 00e4 00F05982 		beq	.L60
 2572              		.loc 1 423 3 discriminator 28
 2573 00e8 7B68     		ldr	r3, [r7, #4]
 2574 00ea 1D2B     		cmp	r3, #29
 2575 00ec 00F05582 		beq	.L60
 2576              		.loc 1 423 3 discriminator 29
 2577 00f0 7B68     		ldr	r3, [r7, #4]
 2578 00f2 1E2B     		cmp	r3, #30
 2579 00f4 00F05182 		beq	.L60
 2580              		.loc 1 423 3 discriminator 30
 2581 00f8 7B68     		ldr	r3, [r7, #4]
 2582 00fa 1F2B     		cmp	r3, #31
 2583 00fc 00F04D82 		beq	.L60
 2584              		.loc 1 423 3 discriminator 31
 2585 0100 7B68     		ldr	r3, [r7, #4]
 2586 0102 B3F1805F 		cmp	r3, #268435456
 2587 0106 00F04882 		beq	.L60
ARM GAS  /tmp/ccRTEIeG.s 			page 61


 2588              		.loc 1 423 3 discriminator 32
 2589 010a 7B68     		ldr	r3, [r7, #4]
 2590 010c 9F4A     		ldr	r2, .L61
 2591 010e 9342     		cmp	r3, r2
 2592 0110 00F04382 		beq	.L60
 2593              		.loc 1 423 3 discriminator 33
 2594 0114 7B68     		ldr	r3, [r7, #4]
 2595 0116 9E4A     		ldr	r2, .L61+4
 2596 0118 9342     		cmp	r3, r2
 2597 011a 00F03E82 		beq	.L60
 2598              		.loc 1 423 3 discriminator 34
 2599 011e 7B68     		ldr	r3, [r7, #4]
 2600 0120 9C4A     		ldr	r2, .L61+8
 2601 0122 9342     		cmp	r3, r2
 2602 0124 00F03982 		beq	.L60
 2603              		.loc 1 423 3 discriminator 35
 2604 0128 7B68     		ldr	r3, [r7, #4]
 2605 012a 9B4A     		ldr	r2, .L61+12
 2606 012c 9342     		cmp	r3, r2
 2607 012e 00F03482 		beq	.L60
 2608              		.loc 1 423 3 discriminator 36
 2609 0132 7B68     		ldr	r3, [r7, #4]
 2610 0134 994A     		ldr	r2, .L61+16
 2611 0136 9342     		cmp	r3, r2
 2612 0138 00F02F82 		beq	.L60
 2613              		.loc 1 423 3 discriminator 37
 2614 013c 7B68     		ldr	r3, [r7, #4]
 2615 013e 984A     		ldr	r2, .L61+20
 2616 0140 9342     		cmp	r3, r2
 2617 0142 00F02A82 		beq	.L60
 2618              		.loc 1 423 3 discriminator 38
 2619 0146 7B68     		ldr	r3, [r7, #4]
 2620 0148 964A     		ldr	r2, .L61+24
 2621 014a 9342     		cmp	r3, r2
 2622 014c 00F02582 		beq	.L60
 2623              		.loc 1 423 3 discriminator 39
 2624 0150 7B68     		ldr	r3, [r7, #4]
 2625 0152 954A     		ldr	r2, .L61+28
 2626 0154 9342     		cmp	r3, r2
 2627 0156 00F02082 		beq	.L60
 2628              		.loc 1 423 3 discriminator 40
 2629 015a 7B68     		ldr	r3, [r7, #4]
 2630 015c 934A     		ldr	r2, .L61+32
 2631 015e 9342     		cmp	r3, r2
 2632 0160 00F01B82 		beq	.L60
 2633              		.loc 1 423 3 discriminator 41
 2634 0164 7B68     		ldr	r3, [r7, #4]
 2635 0166 924A     		ldr	r2, .L61+36
 2636 0168 9342     		cmp	r3, r2
 2637 016a 00F01682 		beq	.L60
 2638              		.loc 1 423 3 discriminator 42
 2639 016e 7B68     		ldr	r3, [r7, #4]
 2640 0170 904A     		ldr	r2, .L61+40
 2641 0172 9342     		cmp	r3, r2
 2642 0174 00F01182 		beq	.L60
 2643              		.loc 1 423 3 discriminator 43
 2644 0178 7B68     		ldr	r3, [r7, #4]
ARM GAS  /tmp/ccRTEIeG.s 			page 62


 2645 017a 8F4A     		ldr	r2, .L61+44
 2646 017c 9342     		cmp	r3, r2
 2647 017e 00F00C82 		beq	.L60
 2648              		.loc 1 423 3 discriminator 44
 2649 0182 7B68     		ldr	r3, [r7, #4]
 2650 0184 8D4A     		ldr	r2, .L61+48
 2651 0186 9342     		cmp	r3, r2
 2652 0188 00F00782 		beq	.L60
 2653              		.loc 1 423 3 discriminator 45
 2654 018c 7B68     		ldr	r3, [r7, #4]
 2655 018e 8C4A     		ldr	r2, .L61+52
 2656 0190 9342     		cmp	r3, r2
 2657 0192 00F00282 		beq	.L60
 2658              		.loc 1 423 3 discriminator 46
 2659 0196 7B68     		ldr	r3, [r7, #4]
 2660 0198 8A4A     		ldr	r2, .L61+56
 2661 019a 9342     		cmp	r3, r2
 2662 019c 00F0FD81 		beq	.L60
 2663              		.loc 1 423 3 discriminator 47
 2664 01a0 7B68     		ldr	r3, [r7, #4]
 2665 01a2 894A     		ldr	r2, .L61+60
 2666 01a4 9342     		cmp	r3, r2
 2667 01a6 00F0F881 		beq	.L60
 2668              		.loc 1 423 3 discriminator 48
 2669 01aa 7B68     		ldr	r3, [r7, #4]
 2670 01ac 874A     		ldr	r2, .L61+64
 2671 01ae 9342     		cmp	r3, r2
 2672 01b0 00F0F381 		beq	.L60
 2673              		.loc 1 423 3 discriminator 49
 2674 01b4 7B68     		ldr	r3, [r7, #4]
 2675 01b6 864A     		ldr	r2, .L61+68
 2676 01b8 9342     		cmp	r3, r2
 2677 01ba 00F0EE81 		beq	.L60
 2678              		.loc 1 423 3 discriminator 50
 2679 01be 7B68     		ldr	r3, [r7, #4]
 2680 01c0 844A     		ldr	r2, .L61+72
 2681 01c2 9342     		cmp	r3, r2
 2682 01c4 00F0E981 		beq	.L60
 2683              		.loc 1 423 3 discriminator 51
 2684 01c8 7B68     		ldr	r3, [r7, #4]
 2685 01ca 834A     		ldr	r2, .L61+76
 2686 01cc 9342     		cmp	r3, r2
 2687 01ce 00F0E481 		beq	.L60
 2688              		.loc 1 423 3 discriminator 52
 2689 01d2 7B68     		ldr	r3, [r7, #4]
 2690 01d4 814A     		ldr	r2, .L61+80
 2691 01d6 9342     		cmp	r3, r2
 2692 01d8 00F0DF81 		beq	.L60
 2693              		.loc 1 423 3 discriminator 53
 2694 01dc 7B68     		ldr	r3, [r7, #4]
 2695 01de 804A     		ldr	r2, .L61+84
 2696 01e0 9342     		cmp	r3, r2
 2697 01e2 00F0DA81 		beq	.L60
 2698              		.loc 1 423 3 discriminator 54
 2699 01e6 7B68     		ldr	r3, [r7, #4]
 2700 01e8 7E4A     		ldr	r2, .L61+88
 2701 01ea 9342     		cmp	r3, r2
ARM GAS  /tmp/ccRTEIeG.s 			page 63


 2702 01ec 00F0D581 		beq	.L60
 2703              		.loc 1 423 3 discriminator 55
 2704 01f0 7B68     		ldr	r3, [r7, #4]
 2705 01f2 7D4A     		ldr	r2, .L61+92
 2706 01f4 9342     		cmp	r3, r2
 2707 01f6 00F0D081 		beq	.L60
 2708              		.loc 1 423 3 discriminator 56
 2709 01fa 7B68     		ldr	r3, [r7, #4]
 2710 01fc 7B4A     		ldr	r2, .L61+96
 2711 01fe 9342     		cmp	r3, r2
 2712 0200 00F0CB81 		beq	.L60
 2713              		.loc 1 423 3 discriminator 57
 2714 0204 7B68     		ldr	r3, [r7, #4]
 2715 0206 7A4A     		ldr	r2, .L61+100
 2716 0208 9342     		cmp	r3, r2
 2717 020a 00F0C681 		beq	.L60
 2718              		.loc 1 423 3 discriminator 58
 2719 020e 7B68     		ldr	r3, [r7, #4]
 2720 0210 784A     		ldr	r2, .L61+104
 2721 0212 9342     		cmp	r3, r2
 2722 0214 00F0C181 		beq	.L60
 2723              		.loc 1 423 3 discriminator 59
 2724 0218 7B68     		ldr	r3, [r7, #4]
 2725 021a 774A     		ldr	r2, .L61+108
 2726 021c 9342     		cmp	r3, r2
 2727 021e 00F0BC81 		beq	.L60
 2728              		.loc 1 423 3 discriminator 60
 2729 0222 7B68     		ldr	r3, [r7, #4]
 2730 0224 754A     		ldr	r2, .L61+112
 2731 0226 9342     		cmp	r3, r2
 2732 0228 00F0B781 		beq	.L60
 2733              		.loc 1 423 3 discriminator 61
 2734 022c 7B68     		ldr	r3, [r7, #4]
 2735 022e B3F1005F 		cmp	r3, #536870912
 2736 0232 00F0B281 		beq	.L60
 2737              		.loc 1 423 3 discriminator 62
 2738 0236 7B68     		ldr	r3, [r7, #4]
 2739 0238 714A     		ldr	r2, .L61+116
 2740 023a 9342     		cmp	r3, r2
 2741 023c 00F0AD81 		beq	.L60
 2742              		.loc 1 423 3 discriminator 63
 2743 0240 7B68     		ldr	r3, [r7, #4]
 2744 0242 704A     		ldr	r2, .L61+120
 2745 0244 9342     		cmp	r3, r2
 2746 0246 00F0A881 		beq	.L60
 2747              		.loc 1 423 3 discriminator 64
 2748 024a 7B68     		ldr	r3, [r7, #4]
 2749 024c 6E4A     		ldr	r2, .L61+124
 2750 024e 9342     		cmp	r3, r2
 2751 0250 00F0A381 		beq	.L60
 2752              		.loc 1 423 3 discriminator 65
 2753 0254 7B68     		ldr	r3, [r7, #4]
 2754 0256 6D4A     		ldr	r2, .L61+128
 2755 0258 9342     		cmp	r3, r2
 2756 025a 00F09E81 		beq	.L60
 2757              		.loc 1 423 3 discriminator 66
 2758 025e 7B68     		ldr	r3, [r7, #4]
ARM GAS  /tmp/ccRTEIeG.s 			page 64


 2759 0260 6B4A     		ldr	r2, .L61+132
 2760 0262 9342     		cmp	r3, r2
 2761 0264 00F09981 		beq	.L60
 2762              		.loc 1 423 3 discriminator 67
 2763 0268 7B68     		ldr	r3, [r7, #4]
 2764 026a 6A4A     		ldr	r2, .L61+136
 2765 026c 9342     		cmp	r3, r2
 2766 026e 00F09481 		beq	.L60
 2767              		.loc 1 423 3 discriminator 68
 2768 0272 7B68     		ldr	r3, [r7, #4]
 2769 0274 684A     		ldr	r2, .L61+140
 2770 0276 9342     		cmp	r3, r2
 2771 0278 00F08F81 		beq	.L60
 2772              		.loc 1 423 3 discriminator 69
 2773 027c 7B68     		ldr	r3, [r7, #4]
 2774 027e 674A     		ldr	r2, .L61+144
 2775 0280 9342     		cmp	r3, r2
 2776 0282 00F08A81 		beq	.L60
 2777              		.loc 1 423 3 discriminator 70
 2778 0286 7B68     		ldr	r3, [r7, #4]
 2779 0288 654A     		ldr	r2, .L61+148
 2780 028a 9342     		cmp	r3, r2
 2781 028c 00F08581 		beq	.L60
 2782              		.loc 1 423 3 discriminator 71
 2783 0290 7B68     		ldr	r3, [r7, #4]
 2784 0292 644A     		ldr	r2, .L61+152
 2785 0294 9342     		cmp	r3, r2
 2786 0296 00F08081 		beq	.L60
 2787              		.loc 1 423 3 discriminator 72
 2788 029a 7B68     		ldr	r3, [r7, #4]
 2789 029c 624A     		ldr	r2, .L61+156
 2790 029e 9342     		cmp	r3, r2
 2791 02a0 00F07B81 		beq	.L60
 2792              		.loc 1 423 3 discriminator 73
 2793 02a4 7B68     		ldr	r3, [r7, #4]
 2794 02a6 614A     		ldr	r2, .L61+160
 2795 02a8 9342     		cmp	r3, r2
 2796 02aa 00F07681 		beq	.L60
 2797              		.loc 1 423 3 discriminator 74
 2798 02ae 7B68     		ldr	r3, [r7, #4]
 2799 02b0 5F4A     		ldr	r2, .L61+164
 2800 02b2 9342     		cmp	r3, r2
 2801 02b4 00F07181 		beq	.L60
 2802              		.loc 1 423 3 discriminator 75
 2803 02b8 7B68     		ldr	r3, [r7, #4]
 2804 02ba 5E4A     		ldr	r2, .L61+168
 2805 02bc 9342     		cmp	r3, r2
 2806 02be 00F06C81 		beq	.L60
 2807              		.loc 1 423 3 discriminator 76
 2808 02c2 7B68     		ldr	r3, [r7, #4]
 2809 02c4 5C4A     		ldr	r2, .L61+172
 2810 02c6 9342     		cmp	r3, r2
 2811 02c8 00F06781 		beq	.L60
 2812              		.loc 1 423 3 discriminator 77
 2813 02cc 7B68     		ldr	r3, [r7, #4]
 2814 02ce 5B4A     		ldr	r2, .L61+176
 2815 02d0 9342     		cmp	r3, r2
ARM GAS  /tmp/ccRTEIeG.s 			page 65


 2816 02d2 00F06281 		beq	.L60
 2817              		.loc 1 423 3 discriminator 78
 2818 02d6 7B68     		ldr	r3, [r7, #4]
 2819 02d8 594A     		ldr	r2, .L61+180
 2820 02da 9342     		cmp	r3, r2
 2821 02dc 00F05D81 		beq	.L60
 2822              		.loc 1 423 3 discriminator 79
 2823 02e0 7B68     		ldr	r3, [r7, #4]
 2824 02e2 584A     		ldr	r2, .L61+184
 2825 02e4 9342     		cmp	r3, r2
 2826 02e6 00F05881 		beq	.L60
 2827              		.loc 1 423 3 discriminator 80
 2828 02ea 7B68     		ldr	r3, [r7, #4]
 2829 02ec 564A     		ldr	r2, .L61+188
 2830 02ee 9342     		cmp	r3, r2
 2831 02f0 00F05381 		beq	.L60
 2832              		.loc 1 423 3 discriminator 81
 2833 02f4 7B68     		ldr	r3, [r7, #4]
 2834 02f6 554A     		ldr	r2, .L61+192
 2835 02f8 9342     		cmp	r3, r2
 2836 02fa 00F04E81 		beq	.L60
 2837              		.loc 1 423 3 discriminator 82
 2838 02fe 7B68     		ldr	r3, [r7, #4]
 2839 0300 534A     		ldr	r2, .L61+196
 2840 0302 9342     		cmp	r3, r2
 2841 0304 00F04981 		beq	.L60
 2842              		.loc 1 423 3 discriminator 83
 2843 0308 7B68     		ldr	r3, [r7, #4]
 2844 030a B3F1405F 		cmp	r3, #805306368
 2845 030e 00F04481 		beq	.L60
 2846              		.loc 1 423 3 discriminator 84
 2847 0312 7B68     		ldr	r3, [r7, #4]
 2848 0314 4F4A     		ldr	r2, .L61+200
 2849 0316 9342     		cmp	r3, r2
 2850 0318 00F03F81 		beq	.L60
 2851              		.loc 1 423 3 discriminator 85
 2852 031c 7B68     		ldr	r3, [r7, #4]
 2853 031e 4E4A     		ldr	r2, .L61+204
 2854 0320 9342     		cmp	r3, r2
 2855 0322 00F03A81 		beq	.L60
 2856              		.loc 1 423 3 discriminator 86
 2857 0326 7B68     		ldr	r3, [r7, #4]
 2858 0328 4C4A     		ldr	r2, .L61+208
 2859 032a 9342     		cmp	r3, r2
 2860 032c 00F03581 		beq	.L60
 2861              		.loc 1 423 3 discriminator 87
 2862 0330 7B68     		ldr	r3, [r7, #4]
 2863 0332 4B4A     		ldr	r2, .L61+212
 2864 0334 9342     		cmp	r3, r2
 2865 0336 00F03081 		beq	.L60
 2866              		.loc 1 423 3 discriminator 88
 2867 033a 7B68     		ldr	r3, [r7, #4]
 2868 033c 494A     		ldr	r2, .L61+216
 2869 033e 9342     		cmp	r3, r2
 2870 0340 00F02B81 		beq	.L60
 2871              		.loc 1 423 3 discriminator 89
 2872 0344 7B68     		ldr	r3, [r7, #4]
ARM GAS  /tmp/ccRTEIeG.s 			page 66


 2873 0346 484A     		ldr	r2, .L61+220
 2874 0348 9342     		cmp	r3, r2
 2875 034a 00F02681 		beq	.L60
 2876              		.loc 1 423 3 discriminator 90
 2877 034e 7B68     		ldr	r3, [r7, #4]
 2878 0350 464A     		ldr	r2, .L61+224
 2879 0352 9342     		cmp	r3, r2
 2880 0354 00F02181 		beq	.L60
 2881              		.loc 1 423 3 discriminator 91
 2882 0358 7B68     		ldr	r3, [r7, #4]
 2883 035a 454A     		ldr	r2, .L61+228
 2884 035c 9342     		cmp	r3, r2
 2885 035e 00F01C81 		beq	.L60
 2886              		.loc 1 423 3 discriminator 92
 2887 0362 7B68     		ldr	r3, [r7, #4]
 2888 0364 434A     		ldr	r2, .L61+232
 2889 0366 9342     		cmp	r3, r2
 2890 0368 00F01781 		beq	.L60
 2891              		.loc 1 423 3 discriminator 93
 2892 036c 7B68     		ldr	r3, [r7, #4]
 2893 036e 424A     		ldr	r2, .L61+236
 2894 0370 9342     		cmp	r3, r2
 2895 0372 00F01281 		beq	.L60
 2896              		.loc 1 423 3 discriminator 94
 2897 0376 7B68     		ldr	r3, [r7, #4]
 2898 0378 404A     		ldr	r2, .L61+240
 2899 037a 9342     		cmp	r3, r2
 2900 037c 00F00D81 		beq	.L60
 2901              		.loc 1 423 3 discriminator 95
 2902 0380 7B68     		ldr	r3, [r7, #4]
 2903 0382 3F4A     		ldr	r2, .L61+244
 2904 0384 9342     		cmp	r3, r2
 2905 0386 00F00881 		beq	.L60
 2906 038a 7BE0     		b	.L62
 2907              	.L63:
 2908              		.align	2
 2909              	.L61:
 2910 038c 01000010 		.word	268435457
 2911 0390 02000010 		.word	268435458
 2912 0394 03000010 		.word	268435459
 2913 0398 04000010 		.word	268435460
 2914 039c 05000010 		.word	268435461
 2915 03a0 06000010 		.word	268435462
 2916 03a4 07000010 		.word	268435463
 2917 03a8 08000010 		.word	268435464
 2918 03ac 09000010 		.word	268435465
 2919 03b0 0A000010 		.word	268435466
 2920 03b4 0B000010 		.word	268435467
 2921 03b8 0C000010 		.word	268435468
 2922 03bc 0D000010 		.word	268435469
 2923 03c0 0E000010 		.word	268435470
 2924 03c4 0F000010 		.word	268435471
 2925 03c8 10000010 		.word	268435472
 2926 03cc 11000010 		.word	268435473
 2927 03d0 12000010 		.word	268435474
 2928 03d4 13000010 		.word	268435475
 2929 03d8 14000010 		.word	268435476
ARM GAS  /tmp/ccRTEIeG.s 			page 67


 2930 03dc 15000010 		.word	268435477
 2931 03e0 16000010 		.word	268435478
 2932 03e4 17000010 		.word	268435479
 2933 03e8 18000010 		.word	268435480
 2934 03ec 19000010 		.word	268435481
 2935 03f0 1A000010 		.word	268435482
 2936 03f4 1C000010 		.word	268435484
 2937 03f8 1D000010 		.word	268435485
 2938 03fc 1E000010 		.word	268435486
 2939 0400 01000020 		.word	536870913
 2940 0404 03000020 		.word	536870915
 2941 0408 04000020 		.word	536870916
 2942 040c 05000020 		.word	536870917
 2943 0410 0C000020 		.word	536870924
 2944 0414 0D000020 		.word	536870925
 2945 0418 0E000020 		.word	536870926
 2946 041c 0F000020 		.word	536870927
 2947 0420 10000020 		.word	536870928
 2948 0424 11000020 		.word	536870929
 2949 0428 12000020 		.word	536870930
 2950 042c 13000020 		.word	536870931
 2951 0430 14000020 		.word	536870932
 2952 0434 16000020 		.word	536870934
 2953 0438 17000020 		.word	536870935
 2954 043c 18000020 		.word	536870936
 2955 0440 19000020 		.word	536870937
 2956 0444 1A000020 		.word	536870938
 2957 0448 1C000020 		.word	536870940
 2958 044c 1D000020 		.word	536870941
 2959 0450 1E000020 		.word	536870942
 2960 0454 01000030 		.word	805306369
 2961 0458 02000030 		.word	805306370
 2962 045c 03000030 		.word	805306371
 2963 0460 04000030 		.word	805306372
 2964 0464 05000030 		.word	805306373
 2965 0468 06000030 		.word	805306374
 2966 046c 07000030 		.word	805306375
 2967 0470 08000030 		.word	805306376
 2968 0474 0A000030 		.word	805306378
 2969 0478 02000040 		.word	1073741826
 2970 047c 03000040 		.word	1073741827
 2971 0480 05000040 		.word	1073741829
 2972              	.L62:
 2973              		.loc 1 423 3 discriminator 96
 2974 0484 7B68     		ldr	r3, [r7, #4]
 2975 0486 4F4A     		ldr	r2, .L64
 2976 0488 9342     		cmp	r3, r2
 2977 048a 00F08680 		beq	.L60
 2978              		.loc 1 423 3 discriminator 97
 2979 048e 7B68     		ldr	r3, [r7, #4]
 2980 0490 4D4A     		ldr	r2, .L64+4
 2981 0492 9342     		cmp	r3, r2
 2982 0494 00F08180 		beq	.L60
 2983              		.loc 1 423 3 discriminator 98
 2984 0498 7B68     		ldr	r3, [r7, #4]
 2985 049a 4C4A     		ldr	r2, .L64+8
 2986 049c 9342     		cmp	r3, r2
ARM GAS  /tmp/ccRTEIeG.s 			page 68


 2987 049e 7CD0     		beq	.L60
 2988              		.loc 1 423 3 discriminator 99
 2989 04a0 7B68     		ldr	r3, [r7, #4]
 2990 04a2 4B4A     		ldr	r2, .L64+12
 2991 04a4 9342     		cmp	r3, r2
 2992 04a6 78D0     		beq	.L60
 2993              		.loc 1 423 3 discriminator 100
 2994 04a8 7B68     		ldr	r3, [r7, #4]
 2995 04aa 4A4A     		ldr	r2, .L64+16
 2996 04ac 9342     		cmp	r3, r2
 2997 04ae 74D0     		beq	.L60
 2998              		.loc 1 423 3 discriminator 101
 2999 04b0 7B68     		ldr	r3, [r7, #4]
 3000 04b2 494A     		ldr	r2, .L64+20
 3001 04b4 9342     		cmp	r3, r2
 3002 04b6 70D0     		beq	.L60
 3003              		.loc 1 423 3 discriminator 102
 3004 04b8 7B68     		ldr	r3, [r7, #4]
 3005 04ba 484A     		ldr	r2, .L64+24
 3006 04bc 9342     		cmp	r3, r2
 3007 04be 6CD0     		beq	.L60
 3008              		.loc 1 423 3 discriminator 103
 3009 04c0 7B68     		ldr	r3, [r7, #4]
 3010 04c2 474A     		ldr	r2, .L64+28
 3011 04c4 9342     		cmp	r3, r2
 3012 04c6 68D0     		beq	.L60
 3013              		.loc 1 423 3 discriminator 104
 3014 04c8 7B68     		ldr	r3, [r7, #4]
 3015 04ca 464A     		ldr	r2, .L64+32
 3016 04cc 9342     		cmp	r3, r2
 3017 04ce 64D0     		beq	.L60
 3018              		.loc 1 423 3 discriminator 105
 3019 04d0 7B68     		ldr	r3, [r7, #4]
 3020 04d2 454A     		ldr	r2, .L64+36
 3021 04d4 9342     		cmp	r3, r2
 3022 04d6 60D0     		beq	.L60
 3023              		.loc 1 423 3 discriminator 106
 3024 04d8 7B68     		ldr	r3, [r7, #4]
 3025 04da B3F1A04F 		cmp	r3, #1342177280
 3026 04de 5CD0     		beq	.L60
 3027              		.loc 1 423 3 discriminator 107
 3028 04e0 7B68     		ldr	r3, [r7, #4]
 3029 04e2 424A     		ldr	r2, .L64+40
 3030 04e4 9342     		cmp	r3, r2
 3031 04e6 58D0     		beq	.L60
 3032              		.loc 1 423 3 discriminator 108
 3033 04e8 7B68     		ldr	r3, [r7, #4]
 3034 04ea 414A     		ldr	r2, .L64+44
 3035 04ec 9342     		cmp	r3, r2
 3036 04ee 54D0     		beq	.L60
 3037              		.loc 1 423 3 discriminator 109
 3038 04f0 7B68     		ldr	r3, [r7, #4]
 3039 04f2 404A     		ldr	r2, .L64+48
 3040 04f4 9342     		cmp	r3, r2
 3041 04f6 50D0     		beq	.L60
 3042              		.loc 1 423 3 discriminator 110
 3043 04f8 7B68     		ldr	r3, [r7, #4]
ARM GAS  /tmp/ccRTEIeG.s 			page 69


 3044 04fa 3F4A     		ldr	r2, .L64+52
 3045 04fc 9342     		cmp	r3, r2
 3046 04fe 4CD0     		beq	.L60
 3047              		.loc 1 423 3 discriminator 111
 3048 0500 7B68     		ldr	r3, [r7, #4]
 3049 0502 3E4A     		ldr	r2, .L64+56
 3050 0504 9342     		cmp	r3, r2
 3051 0506 48D0     		beq	.L60
 3052              		.loc 1 423 3 discriminator 112
 3053 0508 7B68     		ldr	r3, [r7, #4]
 3054 050a 3D4A     		ldr	r2, .L64+60
 3055 050c 9342     		cmp	r3, r2
 3056 050e 44D0     		beq	.L60
 3057              		.loc 1 423 3 discriminator 113
 3058 0510 7B68     		ldr	r3, [r7, #4]
 3059 0512 3C4A     		ldr	r2, .L64+64
 3060 0514 9342     		cmp	r3, r2
 3061 0516 40D0     		beq	.L60
 3062              		.loc 1 423 3 discriminator 114
 3063 0518 7B68     		ldr	r3, [r7, #4]
 3064 051a 3B4A     		ldr	r2, .L64+68
 3065 051c 9342     		cmp	r3, r2
 3066 051e 3CD0     		beq	.L60
 3067              		.loc 1 423 3 discriminator 115
 3068 0520 7B68     		ldr	r3, [r7, #4]
 3069 0522 3A4A     		ldr	r2, .L64+72
 3070 0524 9342     		cmp	r3, r2
 3071 0526 38D0     		beq	.L60
 3072              		.loc 1 423 3 discriminator 116
 3073 0528 7B68     		ldr	r3, [r7, #4]
 3074 052a 394A     		ldr	r2, .L64+76
 3075 052c 9342     		cmp	r3, r2
 3076 052e 34D0     		beq	.L60
 3077              		.loc 1 423 3 discriminator 117
 3078 0530 7B68     		ldr	r3, [r7, #4]
 3079 0532 384A     		ldr	r2, .L64+80
 3080 0534 9342     		cmp	r3, r2
 3081 0536 30D0     		beq	.L60
 3082              		.loc 1 423 3 discriminator 118
 3083 0538 7B68     		ldr	r3, [r7, #4]
 3084 053a 374A     		ldr	r2, .L64+84
 3085 053c 9342     		cmp	r3, r2
 3086 053e 2CD0     		beq	.L60
 3087              		.loc 1 423 3 discriminator 119
 3088 0540 7B68     		ldr	r3, [r7, #4]
 3089 0542 364A     		ldr	r2, .L64+88
 3090 0544 9342     		cmp	r3, r2
 3091 0546 28D0     		beq	.L60
 3092              		.loc 1 423 3 discriminator 120
 3093 0548 7B68     		ldr	r3, [r7, #4]
 3094 054a 354A     		ldr	r2, .L64+92
 3095 054c 9342     		cmp	r3, r2
 3096 054e 24D0     		beq	.L60
 3097              		.loc 1 423 3 discriminator 121
 3098 0550 7B68     		ldr	r3, [r7, #4]
 3099 0552 344A     		ldr	r2, .L64+96
 3100 0554 9342     		cmp	r3, r2
ARM GAS  /tmp/ccRTEIeG.s 			page 70


 3101 0556 20D0     		beq	.L60
 3102              		.loc 1 423 3 discriminator 122
 3103 0558 7B68     		ldr	r3, [r7, #4]
 3104 055a 334A     		ldr	r2, .L64+100
 3105 055c 9342     		cmp	r3, r2
 3106 055e 1CD0     		beq	.L60
 3107              		.loc 1 423 3 discriminator 123
 3108 0560 7B68     		ldr	r3, [r7, #4]
 3109 0562 324A     		ldr	r2, .L64+104
 3110 0564 9342     		cmp	r3, r2
 3111 0566 18D0     		beq	.L60
 3112              		.loc 1 423 3 discriminator 124
 3113 0568 7B68     		ldr	r3, [r7, #4]
 3114 056a 314A     		ldr	r2, .L64+108
 3115 056c 9342     		cmp	r3, r2
 3116 056e 14D0     		beq	.L60
 3117              		.loc 1 423 3 discriminator 125
 3118 0570 7B68     		ldr	r3, [r7, #4]
 3119 0572 304A     		ldr	r2, .L64+112
 3120 0574 9342     		cmp	r3, r2
 3121 0576 10D0     		beq	.L60
 3122              		.loc 1 423 3 discriminator 126
 3123 0578 7B68     		ldr	r3, [r7, #4]
 3124 057a 2F4A     		ldr	r2, .L64+116
 3125 057c 9342     		cmp	r3, r2
 3126 057e 0CD0     		beq	.L60
 3127              		.loc 1 423 3 discriminator 127
 3128 0580 7B68     		ldr	r3, [r7, #4]
 3129 0582 2E4A     		ldr	r2, .L64+120
 3130 0584 9342     		cmp	r3, r2
 3131 0586 08D0     		beq	.L60
 3132              		.loc 1 423 3 discriminator 128
 3133 0588 7B68     		ldr	r3, [r7, #4]
 3134 058a 2D4A     		ldr	r2, .L64+124
 3135 058c 9342     		cmp	r3, r2
 3136 058e 04D0     		beq	.L60
 3137              		.loc 1 423 3 discriminator 129
 3138 0590 40F2A711 		movw	r1, #423
 3139 0594 2B48     		ldr	r0, .L64+128
 3140 0596 FFF7FEFF 		bl	assert_failed
 3141              	.L60:
 424:STM32Cube_FW_N6/Drivers/STM32N6xx_HAL_Driver/Src/stm32n6xx_hal_rif.c **** 
 425:STM32Cube_FW_N6/Drivers/STM32N6xx_HAL_Driver/Src/stm32n6xx_hal_rif.c ****   /* Set RISC Peripheral Lock bit */
 426:STM32Cube_FW_N6/Drivers/STM32N6xx_HAL_Driver/Src/stm32n6xx_hal_rif.c ****   p_lock_reg = &(RIFSC->RISC_RCFGLOCKRx[PeriphId >> RIF_PERIPH_REG_SHIFT]);
 3142              		.loc 1 426 50 is_stmt 1
 3143 059a 7B68     		ldr	r3, [r7, #4]
 3144 059c 1B0F     		lsrs	r3, r3, #28
 3145              		.loc 1 426 16
 3146 059e 9A00     		lsls	r2, r3, #2
 3147              		.loc 1 426 14
 3148 05a0 294B     		ldr	r3, .L64+132
 3149 05a2 1344     		add	r3, r3, r2
 3150 05a4 FB60     		str	r3, [r7, #12]
 427:STM32Cube_FW_N6/Drivers/STM32N6xx_HAL_Driver/Src/stm32n6xx_hal_rif.c ****   *p_lock_reg |= (RIF_LOCK_ENABLE << (PeriphId & RIF_PERIPH_BIT_POSITION));
 3151              		.loc 1 427 3
 3152 05a6 FB68     		ldr	r3, [r7, #12]
 3153 05a8 1A68     		ldr	r2, [r3]
ARM GAS  /tmp/ccRTEIeG.s 			page 71


 3154              		.loc 1 427 48
 3155 05aa 7B68     		ldr	r3, [r7, #4]
 3156 05ac 03F01F03 		and	r3, r3, #31
 3157              		.loc 1 427 35
 3158 05b0 0121     		movs	r1, #1
 3159 05b2 01FA03F3 		lsl	r3, r1, r3
 3160              		.loc 1 427 15
 3161 05b6 1A43     		orrs	r2, r2, r3
 3162 05b8 FB68     		ldr	r3, [r7, #12]
 3163 05ba 1A60     		str	r2, [r3]
 428:STM32Cube_FW_N6/Drivers/STM32N6xx_HAL_Driver/Src/stm32n6xx_hal_rif.c **** }
 3164              		.loc 1 428 1
 3165 05bc 00BF     		nop
 3166 05be 1037     		adds	r7, r7, #16
 3167              		.cfi_def_cfa_offset 8
 3168 05c0 BD46     		mov	sp, r7
 3169              		.cfi_def_cfa_register 13
 3170              		@ sp needed
 3171 05c2 80BD     		pop	{r7, pc}
 3172              	.L65:
 3173              		.align	2
 3174              	.L64:
 3175 05c4 0C000040 		.word	1073741836
 3176 05c8 0D000040 		.word	1073741837
 3177 05cc 11000040 		.word	1073741841
 3178 05d0 12000040 		.word	1073741842
 3179 05d4 13000040 		.word	1073741843
 3180 05d8 19000040 		.word	1073741849
 3181 05dc 1B000040 		.word	1073741851
 3182 05e0 1C000040 		.word	1073741852
 3183 05e4 1D000040 		.word	1073741853
 3184 05e8 1F000040 		.word	1073741855
 3185 05ec 01000050 		.word	1342177281
 3186 05f0 02000050 		.word	1342177282
 3187 05f4 03000050 		.word	1342177283
 3188 05f8 04000050 		.word	1342177284
 3189 05fc 05000050 		.word	1342177285
 3190 0600 06000050 		.word	1342177286
 3191 0604 08000050 		.word	1342177288
 3192 0608 09000050 		.word	1342177289
 3193 060c 0A000050 		.word	1342177290
 3194 0610 0B000050 		.word	1342177291
 3195 0614 0D000050 		.word	1342177293
 3196 0618 0E000050 		.word	1342177294
 3197 061c 0F000050 		.word	1342177295
 3198 0620 11000050 		.word	1342177297
 3199 0624 12000050 		.word	1342177298
 3200 0628 13000050 		.word	1342177299
 3201 062c 14000050 		.word	1342177300
 3202 0630 16000050 		.word	1342177302
 3203 0634 17000050 		.word	1342177303
 3204 0638 18000050 		.word	1342177304
 3205 063c 1B000050 		.word	1342177307
 3206 0640 1E000050 		.word	1342177310
 3207 0644 00000000 		.word	.LC0
 3208 0648 50400254 		.word	1409433680
 3209              		.cfi_endproc
ARM GAS  /tmp/ccRTEIeG.s 			page 72


 3210              	.LFE845:
 3212              		.section	.text.HAL_RIF_RISC_GetSlaveConfigLock,"ax",%progbits
 3213              		.align	1
 3214              		.global	HAL_RIF_RISC_GetSlaveConfigLock
 3215              		.syntax unified
 3216              		.thumb
 3217              		.thumb_func
 3219              	HAL_RIF_RISC_GetSlaveConfigLock:
 3220              	.LFB846:
 429:STM32Cube_FW_N6/Drivers/STM32N6xx_HAL_Driver/Src/stm32n6xx_hal_rif.c **** #endif /* defined(CPU_AS_TRUSTED_DOMAIN) */
 430:STM32Cube_FW_N6/Drivers/STM32N6xx_HAL_Driver/Src/stm32n6xx_hal_rif.c **** 
 431:STM32Cube_FW_N6/Drivers/STM32N6xx_HAL_Driver/Src/stm32n6xx_hal_rif.c **** /**
 432:STM32Cube_FW_N6/Drivers/STM32N6xx_HAL_Driver/Src/stm32n6xx_hal_rif.c ****   * @brief  Get the Isolation and Security configuration lock status.
 433:STM32Cube_FW_N6/Drivers/STM32N6xx_HAL_Driver/Src/stm32n6xx_hal_rif.c ****   * @param  PeriphId specifies the index of the bus slave.
 434:STM32Cube_FW_N6/Drivers/STM32N6xx_HAL_Driver/Src/stm32n6xx_hal_rif.c ****   *         This parameter can be one of @ref RIF_PERIPHERAL_INDEX
 435:STM32Cube_FW_N6/Drivers/STM32N6xx_HAL_Driver/Src/stm32n6xx_hal_rif.c ****   *         bits[31:28] define the register index a peripheral belongs to, value from 0 to 5
 436:STM32Cube_FW_N6/Drivers/STM32N6xx_HAL_Driver/Src/stm32n6xx_hal_rif.c ****   *         bits[4:0]   define the bit position within the register, value from 0 to 31
 437:STM32Cube_FW_N6/Drivers/STM32N6xx_HAL_Driver/Src/stm32n6xx_hal_rif.c ****   * @retval 1 if the Isolation and Security configuration is locked, else 0
 438:STM32Cube_FW_N6/Drivers/STM32N6xx_HAL_Driver/Src/stm32n6xx_hal_rif.c ****   */
 439:STM32Cube_FW_N6/Drivers/STM32N6xx_HAL_Driver/Src/stm32n6xx_hal_rif.c **** uint32_t HAL_RIF_RISC_GetSlaveConfigLock(uint32_t PeriphId)
 440:STM32Cube_FW_N6/Drivers/STM32N6xx_HAL_Driver/Src/stm32n6xx_hal_rif.c **** {
 3221              		.loc 1 440 1
 3222              		.cfi_startproc
 3223              		@ args = 0, pretend = 0, frame = 16
 3224              		@ frame_needed = 1, uses_anonymous_args = 0
 3225 0000 80B5     		push	{r7, lr}
 3226              		.cfi_def_cfa_offset 8
 3227              		.cfi_offset 7, -8
 3228              		.cfi_offset 14, -4
 3229 0002 84B0     		sub	sp, sp, #16
 3230              		.cfi_def_cfa_offset 24
 3231 0004 00AF     		add	r7, sp, #0
 3232              		.cfi_def_cfa_register 7
 3233 0006 7860     		str	r0, [r7, #4]
 441:STM32Cube_FW_N6/Drivers/STM32N6xx_HAL_Driver/Src/stm32n6xx_hal_rif.c ****   uint32_t lock_status;
 442:STM32Cube_FW_N6/Drivers/STM32N6xx_HAL_Driver/Src/stm32n6xx_hal_rif.c ****   const __IO uint32_t *p_lock_reg;
 443:STM32Cube_FW_N6/Drivers/STM32N6xx_HAL_Driver/Src/stm32n6xx_hal_rif.c **** 
 444:STM32Cube_FW_N6/Drivers/STM32N6xx_HAL_Driver/Src/stm32n6xx_hal_rif.c ****   assert_param(IS_RIF_RISC_PERIPH_INDEX(PeriphId) || IS_RIF_RCC_PERIPH_INDEX(PeriphId));
 3234              		.loc 1 444 3
 3235 0008 7B68     		ldr	r3, [r7, #4]
 3236 000a 002B     		cmp	r3, #0
 3237 000c 00F0C582 		beq	.L67
 3238              		.loc 1 444 3 is_stmt 0 discriminator 1
 3239 0010 7B68     		ldr	r3, [r7, #4]
 3240 0012 012B     		cmp	r3, #1
 3241 0014 00F0C182 		beq	.L67
 3242              		.loc 1 444 3 discriminator 2
 3243 0018 7B68     		ldr	r3, [r7, #4]
 3244 001a 022B     		cmp	r3, #2
 3245 001c 00F0BD82 		beq	.L67
 3246              		.loc 1 444 3 discriminator 3
 3247 0020 7B68     		ldr	r3, [r7, #4]
 3248 0022 032B     		cmp	r3, #3
 3249 0024 00F0B982 		beq	.L67
 3250              		.loc 1 444 3 discriminator 4
 3251 0028 7B68     		ldr	r3, [r7, #4]
 3252 002a 042B     		cmp	r3, #4
ARM GAS  /tmp/ccRTEIeG.s 			page 73


 3253 002c 00F0B582 		beq	.L67
 3254              		.loc 1 444 3 discriminator 5
 3255 0030 7B68     		ldr	r3, [r7, #4]
 3256 0032 052B     		cmp	r3, #5
 3257 0034 00F0B182 		beq	.L67
 3258              		.loc 1 444 3 discriminator 6
 3259 0038 7B68     		ldr	r3, [r7, #4]
 3260 003a 062B     		cmp	r3, #6
 3261 003c 00F0AD82 		beq	.L67
 3262              		.loc 1 444 3 discriminator 7
 3263 0040 7B68     		ldr	r3, [r7, #4]
 3264 0042 082B     		cmp	r3, #8
 3265 0044 00F0A982 		beq	.L67
 3266              		.loc 1 444 3 discriminator 8
 3267 0048 7B68     		ldr	r3, [r7, #4]
 3268 004a 092B     		cmp	r3, #9
 3269 004c 00F0A582 		beq	.L67
 3270              		.loc 1 444 3 discriminator 9
 3271 0050 7B68     		ldr	r3, [r7, #4]
 3272 0052 0A2B     		cmp	r3, #10
 3273 0054 00F0A182 		beq	.L67
 3274              		.loc 1 444 3 discriminator 10
 3275 0058 7B68     		ldr	r3, [r7, #4]
 3276 005a 0B2B     		cmp	r3, #11
 3277 005c 00F09D82 		beq	.L67
 3278              		.loc 1 444 3 discriminator 11
 3279 0060 7B68     		ldr	r3, [r7, #4]
 3280 0062 0C2B     		cmp	r3, #12
 3281 0064 00F09982 		beq	.L67
 3282              		.loc 1 444 3 discriminator 12
 3283 0068 7B68     		ldr	r3, [r7, #4]
 3284 006a 0D2B     		cmp	r3, #13
 3285 006c 00F09582 		beq	.L67
 3286              		.loc 1 444 3 discriminator 13
 3287 0070 7B68     		ldr	r3, [r7, #4]
 3288 0072 0E2B     		cmp	r3, #14
 3289 0074 00F09182 		beq	.L67
 3290              		.loc 1 444 3 discriminator 14
 3291 0078 7B68     		ldr	r3, [r7, #4]
 3292 007a 0F2B     		cmp	r3, #15
 3293 007c 00F08D82 		beq	.L67
 3294              		.loc 1 444 3 discriminator 15
 3295 0080 7B68     		ldr	r3, [r7, #4]
 3296 0082 102B     		cmp	r3, #16
 3297 0084 00F08982 		beq	.L67
 3298              		.loc 1 444 3 discriminator 16
 3299 0088 7B68     		ldr	r3, [r7, #4]
 3300 008a 112B     		cmp	r3, #17
 3301 008c 00F08582 		beq	.L67
 3302              		.loc 1 444 3 discriminator 17
 3303 0090 7B68     		ldr	r3, [r7, #4]
 3304 0092 122B     		cmp	r3, #18
 3305 0094 00F08182 		beq	.L67
 3306              		.loc 1 444 3 discriminator 18
 3307 0098 7B68     		ldr	r3, [r7, #4]
 3308 009a 132B     		cmp	r3, #19
 3309 009c 00F07D82 		beq	.L67
ARM GAS  /tmp/ccRTEIeG.s 			page 74


 3310              		.loc 1 444 3 discriminator 19
 3311 00a0 7B68     		ldr	r3, [r7, #4]
 3312 00a2 142B     		cmp	r3, #20
 3313 00a4 00F07982 		beq	.L67
 3314              		.loc 1 444 3 discriminator 20
 3315 00a8 7B68     		ldr	r3, [r7, #4]
 3316 00aa 152B     		cmp	r3, #21
 3317 00ac 00F07582 		beq	.L67
 3318              		.loc 1 444 3 discriminator 21
 3319 00b0 7B68     		ldr	r3, [r7, #4]
 3320 00b2 162B     		cmp	r3, #22
 3321 00b4 00F07182 		beq	.L67
 3322              		.loc 1 444 3 discriminator 22
 3323 00b8 7B68     		ldr	r3, [r7, #4]
 3324 00ba 172B     		cmp	r3, #23
 3325 00bc 00F06D82 		beq	.L67
 3326              		.loc 1 444 3 discriminator 23
 3327 00c0 7B68     		ldr	r3, [r7, #4]
 3328 00c2 182B     		cmp	r3, #24
 3329 00c4 00F06982 		beq	.L67
 3330              		.loc 1 444 3 discriminator 24
 3331 00c8 7B68     		ldr	r3, [r7, #4]
 3332 00ca 192B     		cmp	r3, #25
 3333 00cc 00F06582 		beq	.L67
 3334              		.loc 1 444 3 discriminator 25
 3335 00d0 7B68     		ldr	r3, [r7, #4]
 3336 00d2 1A2B     		cmp	r3, #26
 3337 00d4 00F06182 		beq	.L67
 3338              		.loc 1 444 3 discriminator 26
 3339 00d8 7B68     		ldr	r3, [r7, #4]
 3340 00da 1B2B     		cmp	r3, #27
 3341 00dc 00F05D82 		beq	.L67
 3342              		.loc 1 444 3 discriminator 27
 3343 00e0 7B68     		ldr	r3, [r7, #4]
 3344 00e2 1C2B     		cmp	r3, #28
 3345 00e4 00F05982 		beq	.L67
 3346              		.loc 1 444 3 discriminator 28
 3347 00e8 7B68     		ldr	r3, [r7, #4]
 3348 00ea 1D2B     		cmp	r3, #29
 3349 00ec 00F05582 		beq	.L67
 3350              		.loc 1 444 3 discriminator 29
 3351 00f0 7B68     		ldr	r3, [r7, #4]
 3352 00f2 1E2B     		cmp	r3, #30
 3353 00f4 00F05182 		beq	.L67
 3354              		.loc 1 444 3 discriminator 30
 3355 00f8 7B68     		ldr	r3, [r7, #4]
 3356 00fa 1F2B     		cmp	r3, #31
 3357 00fc 00F04D82 		beq	.L67
 3358              		.loc 1 444 3 discriminator 31
 3359 0100 7B68     		ldr	r3, [r7, #4]
 3360 0102 B3F1805F 		cmp	r3, #268435456
 3361 0106 00F04882 		beq	.L67
 3362              		.loc 1 444 3 discriminator 32
 3363 010a 7B68     		ldr	r3, [r7, #4]
 3364 010c 9F4A     		ldr	r2, .L69
 3365 010e 9342     		cmp	r3, r2
 3366 0110 00F04382 		beq	.L67
ARM GAS  /tmp/ccRTEIeG.s 			page 75


 3367              		.loc 1 444 3 discriminator 33
 3368 0114 7B68     		ldr	r3, [r7, #4]
 3369 0116 9E4A     		ldr	r2, .L69+4
 3370 0118 9342     		cmp	r3, r2
 3371 011a 00F03E82 		beq	.L67
 3372              		.loc 1 444 3 discriminator 34
 3373 011e 7B68     		ldr	r3, [r7, #4]
 3374 0120 9C4A     		ldr	r2, .L69+8
 3375 0122 9342     		cmp	r3, r2
 3376 0124 00F03982 		beq	.L67
 3377              		.loc 1 444 3 discriminator 35
 3378 0128 7B68     		ldr	r3, [r7, #4]
 3379 012a 9B4A     		ldr	r2, .L69+12
 3380 012c 9342     		cmp	r3, r2
 3381 012e 00F03482 		beq	.L67
 3382              		.loc 1 444 3 discriminator 36
 3383 0132 7B68     		ldr	r3, [r7, #4]
 3384 0134 994A     		ldr	r2, .L69+16
 3385 0136 9342     		cmp	r3, r2
 3386 0138 00F02F82 		beq	.L67
 3387              		.loc 1 444 3 discriminator 37
 3388 013c 7B68     		ldr	r3, [r7, #4]
 3389 013e 984A     		ldr	r2, .L69+20
 3390 0140 9342     		cmp	r3, r2
 3391 0142 00F02A82 		beq	.L67
 3392              		.loc 1 444 3 discriminator 38
 3393 0146 7B68     		ldr	r3, [r7, #4]
 3394 0148 964A     		ldr	r2, .L69+24
 3395 014a 9342     		cmp	r3, r2
 3396 014c 00F02582 		beq	.L67
 3397              		.loc 1 444 3 discriminator 39
 3398 0150 7B68     		ldr	r3, [r7, #4]
 3399 0152 954A     		ldr	r2, .L69+28
 3400 0154 9342     		cmp	r3, r2
 3401 0156 00F02082 		beq	.L67
 3402              		.loc 1 444 3 discriminator 40
 3403 015a 7B68     		ldr	r3, [r7, #4]
 3404 015c 934A     		ldr	r2, .L69+32
 3405 015e 9342     		cmp	r3, r2
 3406 0160 00F01B82 		beq	.L67
 3407              		.loc 1 444 3 discriminator 41
 3408 0164 7B68     		ldr	r3, [r7, #4]
 3409 0166 924A     		ldr	r2, .L69+36
 3410 0168 9342     		cmp	r3, r2
 3411 016a 00F01682 		beq	.L67
 3412              		.loc 1 444 3 discriminator 42
 3413 016e 7B68     		ldr	r3, [r7, #4]
 3414 0170 904A     		ldr	r2, .L69+40
 3415 0172 9342     		cmp	r3, r2
 3416 0174 00F01182 		beq	.L67
 3417              		.loc 1 444 3 discriminator 43
 3418 0178 7B68     		ldr	r3, [r7, #4]
 3419 017a 8F4A     		ldr	r2, .L69+44
 3420 017c 9342     		cmp	r3, r2
 3421 017e 00F00C82 		beq	.L67
 3422              		.loc 1 444 3 discriminator 44
 3423 0182 7B68     		ldr	r3, [r7, #4]
ARM GAS  /tmp/ccRTEIeG.s 			page 76


 3424 0184 8D4A     		ldr	r2, .L69+48
 3425 0186 9342     		cmp	r3, r2
 3426 0188 00F00782 		beq	.L67
 3427              		.loc 1 444 3 discriminator 45
 3428 018c 7B68     		ldr	r3, [r7, #4]
 3429 018e 8C4A     		ldr	r2, .L69+52
 3430 0190 9342     		cmp	r3, r2
 3431 0192 00F00282 		beq	.L67
 3432              		.loc 1 444 3 discriminator 46
 3433 0196 7B68     		ldr	r3, [r7, #4]
 3434 0198 8A4A     		ldr	r2, .L69+56
 3435 019a 9342     		cmp	r3, r2
 3436 019c 00F0FD81 		beq	.L67
 3437              		.loc 1 444 3 discriminator 47
 3438 01a0 7B68     		ldr	r3, [r7, #4]
 3439 01a2 894A     		ldr	r2, .L69+60
 3440 01a4 9342     		cmp	r3, r2
 3441 01a6 00F0F881 		beq	.L67
 3442              		.loc 1 444 3 discriminator 48
 3443 01aa 7B68     		ldr	r3, [r7, #4]
 3444 01ac 874A     		ldr	r2, .L69+64
 3445 01ae 9342     		cmp	r3, r2
 3446 01b0 00F0F381 		beq	.L67
 3447              		.loc 1 444 3 discriminator 49
 3448 01b4 7B68     		ldr	r3, [r7, #4]
 3449 01b6 864A     		ldr	r2, .L69+68
 3450 01b8 9342     		cmp	r3, r2
 3451 01ba 00F0EE81 		beq	.L67
 3452              		.loc 1 444 3 discriminator 50
 3453 01be 7B68     		ldr	r3, [r7, #4]
 3454 01c0 844A     		ldr	r2, .L69+72
 3455 01c2 9342     		cmp	r3, r2
 3456 01c4 00F0E981 		beq	.L67
 3457              		.loc 1 444 3 discriminator 51
 3458 01c8 7B68     		ldr	r3, [r7, #4]
 3459 01ca 834A     		ldr	r2, .L69+76
 3460 01cc 9342     		cmp	r3, r2
 3461 01ce 00F0E481 		beq	.L67
 3462              		.loc 1 444 3 discriminator 52
 3463 01d2 7B68     		ldr	r3, [r7, #4]
 3464 01d4 814A     		ldr	r2, .L69+80
 3465 01d6 9342     		cmp	r3, r2
 3466 01d8 00F0DF81 		beq	.L67
 3467              		.loc 1 444 3 discriminator 53
 3468 01dc 7B68     		ldr	r3, [r7, #4]
 3469 01de 804A     		ldr	r2, .L69+84
 3470 01e0 9342     		cmp	r3, r2
 3471 01e2 00F0DA81 		beq	.L67
 3472              		.loc 1 444 3 discriminator 54
 3473 01e6 7B68     		ldr	r3, [r7, #4]
 3474 01e8 7E4A     		ldr	r2, .L69+88
 3475 01ea 9342     		cmp	r3, r2
 3476 01ec 00F0D581 		beq	.L67
 3477              		.loc 1 444 3 discriminator 55
 3478 01f0 7B68     		ldr	r3, [r7, #4]
 3479 01f2 7D4A     		ldr	r2, .L69+92
 3480 01f4 9342     		cmp	r3, r2
ARM GAS  /tmp/ccRTEIeG.s 			page 77


 3481 01f6 00F0D081 		beq	.L67
 3482              		.loc 1 444 3 discriminator 56
 3483 01fa 7B68     		ldr	r3, [r7, #4]
 3484 01fc 7B4A     		ldr	r2, .L69+96
 3485 01fe 9342     		cmp	r3, r2
 3486 0200 00F0CB81 		beq	.L67
 3487              		.loc 1 444 3 discriminator 57
 3488 0204 7B68     		ldr	r3, [r7, #4]
 3489 0206 7A4A     		ldr	r2, .L69+100
 3490 0208 9342     		cmp	r3, r2
 3491 020a 00F0C681 		beq	.L67
 3492              		.loc 1 444 3 discriminator 58
 3493 020e 7B68     		ldr	r3, [r7, #4]
 3494 0210 784A     		ldr	r2, .L69+104
 3495 0212 9342     		cmp	r3, r2
 3496 0214 00F0C181 		beq	.L67
 3497              		.loc 1 444 3 discriminator 59
 3498 0218 7B68     		ldr	r3, [r7, #4]
 3499 021a 774A     		ldr	r2, .L69+108
 3500 021c 9342     		cmp	r3, r2
 3501 021e 00F0BC81 		beq	.L67
 3502              		.loc 1 444 3 discriminator 60
 3503 0222 7B68     		ldr	r3, [r7, #4]
 3504 0224 754A     		ldr	r2, .L69+112
 3505 0226 9342     		cmp	r3, r2
 3506 0228 00F0B781 		beq	.L67
 3507              		.loc 1 444 3 discriminator 61
 3508 022c 7B68     		ldr	r3, [r7, #4]
 3509 022e B3F1005F 		cmp	r3, #536870912
 3510 0232 00F0B281 		beq	.L67
 3511              		.loc 1 444 3 discriminator 62
 3512 0236 7B68     		ldr	r3, [r7, #4]
 3513 0238 714A     		ldr	r2, .L69+116
 3514 023a 9342     		cmp	r3, r2
 3515 023c 00F0AD81 		beq	.L67
 3516              		.loc 1 444 3 discriminator 63
 3517 0240 7B68     		ldr	r3, [r7, #4]
 3518 0242 704A     		ldr	r2, .L69+120
 3519 0244 9342     		cmp	r3, r2
 3520 0246 00F0A881 		beq	.L67
 3521              		.loc 1 444 3 discriminator 64
 3522 024a 7B68     		ldr	r3, [r7, #4]
 3523 024c 6E4A     		ldr	r2, .L69+124
 3524 024e 9342     		cmp	r3, r2
 3525 0250 00F0A381 		beq	.L67
 3526              		.loc 1 444 3 discriminator 65
 3527 0254 7B68     		ldr	r3, [r7, #4]
 3528 0256 6D4A     		ldr	r2, .L69+128
 3529 0258 9342     		cmp	r3, r2
 3530 025a 00F09E81 		beq	.L67
 3531              		.loc 1 444 3 discriminator 66
 3532 025e 7B68     		ldr	r3, [r7, #4]
 3533 0260 6B4A     		ldr	r2, .L69+132
 3534 0262 9342     		cmp	r3, r2
 3535 0264 00F09981 		beq	.L67
 3536              		.loc 1 444 3 discriminator 67
 3537 0268 7B68     		ldr	r3, [r7, #4]
ARM GAS  /tmp/ccRTEIeG.s 			page 78


 3538 026a 6A4A     		ldr	r2, .L69+136
 3539 026c 9342     		cmp	r3, r2
 3540 026e 00F09481 		beq	.L67
 3541              		.loc 1 444 3 discriminator 68
 3542 0272 7B68     		ldr	r3, [r7, #4]
 3543 0274 684A     		ldr	r2, .L69+140
 3544 0276 9342     		cmp	r3, r2
 3545 0278 00F08F81 		beq	.L67
 3546              		.loc 1 444 3 discriminator 69
 3547 027c 7B68     		ldr	r3, [r7, #4]
 3548 027e 674A     		ldr	r2, .L69+144
 3549 0280 9342     		cmp	r3, r2
 3550 0282 00F08A81 		beq	.L67
 3551              		.loc 1 444 3 discriminator 70
 3552 0286 7B68     		ldr	r3, [r7, #4]
 3553 0288 654A     		ldr	r2, .L69+148
 3554 028a 9342     		cmp	r3, r2
 3555 028c 00F08581 		beq	.L67
 3556              		.loc 1 444 3 discriminator 71
 3557 0290 7B68     		ldr	r3, [r7, #4]
 3558 0292 644A     		ldr	r2, .L69+152
 3559 0294 9342     		cmp	r3, r2
 3560 0296 00F08081 		beq	.L67
 3561              		.loc 1 444 3 discriminator 72
 3562 029a 7B68     		ldr	r3, [r7, #4]
 3563 029c 624A     		ldr	r2, .L69+156
 3564 029e 9342     		cmp	r3, r2
 3565 02a0 00F07B81 		beq	.L67
 3566              		.loc 1 444 3 discriminator 73
 3567 02a4 7B68     		ldr	r3, [r7, #4]
 3568 02a6 614A     		ldr	r2, .L69+160
 3569 02a8 9342     		cmp	r3, r2
 3570 02aa 00F07681 		beq	.L67
 3571              		.loc 1 444 3 discriminator 74
 3572 02ae 7B68     		ldr	r3, [r7, #4]
 3573 02b0 5F4A     		ldr	r2, .L69+164
 3574 02b2 9342     		cmp	r3, r2
 3575 02b4 00F07181 		beq	.L67
 3576              		.loc 1 444 3 discriminator 75
 3577 02b8 7B68     		ldr	r3, [r7, #4]
 3578 02ba 5E4A     		ldr	r2, .L69+168
 3579 02bc 9342     		cmp	r3, r2
 3580 02be 00F06C81 		beq	.L67
 3581              		.loc 1 444 3 discriminator 76
 3582 02c2 7B68     		ldr	r3, [r7, #4]
 3583 02c4 5C4A     		ldr	r2, .L69+172
 3584 02c6 9342     		cmp	r3, r2
 3585 02c8 00F06781 		beq	.L67
 3586              		.loc 1 444 3 discriminator 77
 3587 02cc 7B68     		ldr	r3, [r7, #4]
 3588 02ce 5B4A     		ldr	r2, .L69+176
 3589 02d0 9342     		cmp	r3, r2
 3590 02d2 00F06281 		beq	.L67
 3591              		.loc 1 444 3 discriminator 78
 3592 02d6 7B68     		ldr	r3, [r7, #4]
 3593 02d8 594A     		ldr	r2, .L69+180
 3594 02da 9342     		cmp	r3, r2
ARM GAS  /tmp/ccRTEIeG.s 			page 79


 3595 02dc 00F05D81 		beq	.L67
 3596              		.loc 1 444 3 discriminator 79
 3597 02e0 7B68     		ldr	r3, [r7, #4]
 3598 02e2 584A     		ldr	r2, .L69+184
 3599 02e4 9342     		cmp	r3, r2
 3600 02e6 00F05881 		beq	.L67
 3601              		.loc 1 444 3 discriminator 80
 3602 02ea 7B68     		ldr	r3, [r7, #4]
 3603 02ec 564A     		ldr	r2, .L69+188
 3604 02ee 9342     		cmp	r3, r2
 3605 02f0 00F05381 		beq	.L67
 3606              		.loc 1 444 3 discriminator 81
 3607 02f4 7B68     		ldr	r3, [r7, #4]
 3608 02f6 554A     		ldr	r2, .L69+192
 3609 02f8 9342     		cmp	r3, r2
 3610 02fa 00F04E81 		beq	.L67
 3611              		.loc 1 444 3 discriminator 82
 3612 02fe 7B68     		ldr	r3, [r7, #4]
 3613 0300 534A     		ldr	r2, .L69+196
 3614 0302 9342     		cmp	r3, r2
 3615 0304 00F04981 		beq	.L67
 3616              		.loc 1 444 3 discriminator 83
 3617 0308 7B68     		ldr	r3, [r7, #4]
 3618 030a B3F1405F 		cmp	r3, #805306368
 3619 030e 00F04481 		beq	.L67
 3620              		.loc 1 444 3 discriminator 84
 3621 0312 7B68     		ldr	r3, [r7, #4]
 3622 0314 4F4A     		ldr	r2, .L69+200
 3623 0316 9342     		cmp	r3, r2
 3624 0318 00F03F81 		beq	.L67
 3625              		.loc 1 444 3 discriminator 85
 3626 031c 7B68     		ldr	r3, [r7, #4]
 3627 031e 4E4A     		ldr	r2, .L69+204
 3628 0320 9342     		cmp	r3, r2
 3629 0322 00F03A81 		beq	.L67
 3630              		.loc 1 444 3 discriminator 86
 3631 0326 7B68     		ldr	r3, [r7, #4]
 3632 0328 4C4A     		ldr	r2, .L69+208
 3633 032a 9342     		cmp	r3, r2
 3634 032c 00F03581 		beq	.L67
 3635              		.loc 1 444 3 discriminator 87
 3636 0330 7B68     		ldr	r3, [r7, #4]
 3637 0332 4B4A     		ldr	r2, .L69+212
 3638 0334 9342     		cmp	r3, r2
 3639 0336 00F03081 		beq	.L67
 3640              		.loc 1 444 3 discriminator 88
 3641 033a 7B68     		ldr	r3, [r7, #4]
 3642 033c 494A     		ldr	r2, .L69+216
 3643 033e 9342     		cmp	r3, r2
 3644 0340 00F02B81 		beq	.L67
 3645              		.loc 1 444 3 discriminator 89
 3646 0344 7B68     		ldr	r3, [r7, #4]
 3647 0346 484A     		ldr	r2, .L69+220
 3648 0348 9342     		cmp	r3, r2
 3649 034a 00F02681 		beq	.L67
 3650              		.loc 1 444 3 discriminator 90
 3651 034e 7B68     		ldr	r3, [r7, #4]
ARM GAS  /tmp/ccRTEIeG.s 			page 80


 3652 0350 464A     		ldr	r2, .L69+224
 3653 0352 9342     		cmp	r3, r2
 3654 0354 00F02181 		beq	.L67
 3655              		.loc 1 444 3 discriminator 91
 3656 0358 7B68     		ldr	r3, [r7, #4]
 3657 035a 454A     		ldr	r2, .L69+228
 3658 035c 9342     		cmp	r3, r2
 3659 035e 00F01C81 		beq	.L67
 3660              		.loc 1 444 3 discriminator 92
 3661 0362 7B68     		ldr	r3, [r7, #4]
 3662 0364 434A     		ldr	r2, .L69+232
 3663 0366 9342     		cmp	r3, r2
 3664 0368 00F01781 		beq	.L67
 3665              		.loc 1 444 3 discriminator 93
 3666 036c 7B68     		ldr	r3, [r7, #4]
 3667 036e 424A     		ldr	r2, .L69+236
 3668 0370 9342     		cmp	r3, r2
 3669 0372 00F01281 		beq	.L67
 3670              		.loc 1 444 3 discriminator 94
 3671 0376 7B68     		ldr	r3, [r7, #4]
 3672 0378 404A     		ldr	r2, .L69+240
 3673 037a 9342     		cmp	r3, r2
 3674 037c 00F00D81 		beq	.L67
 3675              		.loc 1 444 3 discriminator 95
 3676 0380 7B68     		ldr	r3, [r7, #4]
 3677 0382 3F4A     		ldr	r2, .L69+244
 3678 0384 9342     		cmp	r3, r2
 3679 0386 00F00881 		beq	.L67
 3680 038a 7BE0     		b	.L70
 3681              	.L71:
 3682              		.align	2
 3683              	.L69:
 3684 038c 01000010 		.word	268435457
 3685 0390 02000010 		.word	268435458
 3686 0394 03000010 		.word	268435459
 3687 0398 04000010 		.word	268435460
 3688 039c 05000010 		.word	268435461
 3689 03a0 06000010 		.word	268435462
 3690 03a4 07000010 		.word	268435463
 3691 03a8 08000010 		.word	268435464
 3692 03ac 09000010 		.word	268435465
 3693 03b0 0A000010 		.word	268435466
 3694 03b4 0B000010 		.word	268435467
 3695 03b8 0C000010 		.word	268435468
 3696 03bc 0D000010 		.word	268435469
 3697 03c0 0E000010 		.word	268435470
 3698 03c4 0F000010 		.word	268435471
 3699 03c8 10000010 		.word	268435472
 3700 03cc 11000010 		.word	268435473
 3701 03d0 12000010 		.word	268435474
 3702 03d4 13000010 		.word	268435475
 3703 03d8 14000010 		.word	268435476
 3704 03dc 15000010 		.word	268435477
 3705 03e0 16000010 		.word	268435478
 3706 03e4 17000010 		.word	268435479
 3707 03e8 18000010 		.word	268435480
 3708 03ec 19000010 		.word	268435481
ARM GAS  /tmp/ccRTEIeG.s 			page 81


 3709 03f0 1A000010 		.word	268435482
 3710 03f4 1C000010 		.word	268435484
 3711 03f8 1D000010 		.word	268435485
 3712 03fc 1E000010 		.word	268435486
 3713 0400 01000020 		.word	536870913
 3714 0404 03000020 		.word	536870915
 3715 0408 04000020 		.word	536870916
 3716 040c 05000020 		.word	536870917
 3717 0410 0C000020 		.word	536870924
 3718 0414 0D000020 		.word	536870925
 3719 0418 0E000020 		.word	536870926
 3720 041c 0F000020 		.word	536870927
 3721 0420 10000020 		.word	536870928
 3722 0424 11000020 		.word	536870929
 3723 0428 12000020 		.word	536870930
 3724 042c 13000020 		.word	536870931
 3725 0430 14000020 		.word	536870932
 3726 0434 16000020 		.word	536870934
 3727 0438 17000020 		.word	536870935
 3728 043c 18000020 		.word	536870936
 3729 0440 19000020 		.word	536870937
 3730 0444 1A000020 		.word	536870938
 3731 0448 1C000020 		.word	536870940
 3732 044c 1D000020 		.word	536870941
 3733 0450 1E000020 		.word	536870942
 3734 0454 01000030 		.word	805306369
 3735 0458 02000030 		.word	805306370
 3736 045c 03000030 		.word	805306371
 3737 0460 04000030 		.word	805306372
 3738 0464 05000030 		.word	805306373
 3739 0468 06000030 		.word	805306374
 3740 046c 07000030 		.word	805306375
 3741 0470 08000030 		.word	805306376
 3742 0474 0A000030 		.word	805306378
 3743 0478 02000040 		.word	1073741826
 3744 047c 03000040 		.word	1073741827
 3745 0480 05000040 		.word	1073741829
 3746              	.L70:
 3747              		.loc 1 444 3 discriminator 96
 3748 0484 7B68     		ldr	r3, [r7, #4]
 3749 0486 524A     		ldr	r2, .L72
 3750 0488 9342     		cmp	r3, r2
 3751 048a 00F08680 		beq	.L67
 3752              		.loc 1 444 3 discriminator 97
 3753 048e 7B68     		ldr	r3, [r7, #4]
 3754 0490 504A     		ldr	r2, .L72+4
 3755 0492 9342     		cmp	r3, r2
 3756 0494 00F08180 		beq	.L67
 3757              		.loc 1 444 3 discriminator 98
 3758 0498 7B68     		ldr	r3, [r7, #4]
 3759 049a 4F4A     		ldr	r2, .L72+8
 3760 049c 9342     		cmp	r3, r2
 3761 049e 7CD0     		beq	.L67
 3762              		.loc 1 444 3 discriminator 99
 3763 04a0 7B68     		ldr	r3, [r7, #4]
 3764 04a2 4E4A     		ldr	r2, .L72+12
 3765 04a4 9342     		cmp	r3, r2
ARM GAS  /tmp/ccRTEIeG.s 			page 82


 3766 04a6 78D0     		beq	.L67
 3767              		.loc 1 444 3 discriminator 100
 3768 04a8 7B68     		ldr	r3, [r7, #4]
 3769 04aa 4D4A     		ldr	r2, .L72+16
 3770 04ac 9342     		cmp	r3, r2
 3771 04ae 74D0     		beq	.L67
 3772              		.loc 1 444 3 discriminator 101
 3773 04b0 7B68     		ldr	r3, [r7, #4]
 3774 04b2 4C4A     		ldr	r2, .L72+20
 3775 04b4 9342     		cmp	r3, r2
 3776 04b6 70D0     		beq	.L67
 3777              		.loc 1 444 3 discriminator 102
 3778 04b8 7B68     		ldr	r3, [r7, #4]
 3779 04ba 4B4A     		ldr	r2, .L72+24
 3780 04bc 9342     		cmp	r3, r2
 3781 04be 6CD0     		beq	.L67
 3782              		.loc 1 444 3 discriminator 103
 3783 04c0 7B68     		ldr	r3, [r7, #4]
 3784 04c2 4A4A     		ldr	r2, .L72+28
 3785 04c4 9342     		cmp	r3, r2
 3786 04c6 68D0     		beq	.L67
 3787              		.loc 1 444 3 discriminator 104
 3788 04c8 7B68     		ldr	r3, [r7, #4]
 3789 04ca 494A     		ldr	r2, .L72+32
 3790 04cc 9342     		cmp	r3, r2
 3791 04ce 64D0     		beq	.L67
 3792              		.loc 1 444 3 discriminator 105
 3793 04d0 7B68     		ldr	r3, [r7, #4]
 3794 04d2 484A     		ldr	r2, .L72+36
 3795 04d4 9342     		cmp	r3, r2
 3796 04d6 60D0     		beq	.L67
 3797              		.loc 1 444 3 discriminator 106
 3798 04d8 7B68     		ldr	r3, [r7, #4]
 3799 04da B3F1A04F 		cmp	r3, #1342177280
 3800 04de 5CD0     		beq	.L67
 3801              		.loc 1 444 3 discriminator 107
 3802 04e0 7B68     		ldr	r3, [r7, #4]
 3803 04e2 454A     		ldr	r2, .L72+40
 3804 04e4 9342     		cmp	r3, r2
 3805 04e6 58D0     		beq	.L67
 3806              		.loc 1 444 3 discriminator 108
 3807 04e8 7B68     		ldr	r3, [r7, #4]
 3808 04ea 444A     		ldr	r2, .L72+44
 3809 04ec 9342     		cmp	r3, r2
 3810 04ee 54D0     		beq	.L67
 3811              		.loc 1 444 3 discriminator 109
 3812 04f0 7B68     		ldr	r3, [r7, #4]
 3813 04f2 434A     		ldr	r2, .L72+48
 3814 04f4 9342     		cmp	r3, r2
 3815 04f6 50D0     		beq	.L67
 3816              		.loc 1 444 3 discriminator 110
 3817 04f8 7B68     		ldr	r3, [r7, #4]
 3818 04fa 424A     		ldr	r2, .L72+52
 3819 04fc 9342     		cmp	r3, r2
 3820 04fe 4CD0     		beq	.L67
 3821              		.loc 1 444 3 discriminator 111
 3822 0500 7B68     		ldr	r3, [r7, #4]
ARM GAS  /tmp/ccRTEIeG.s 			page 83


 3823 0502 414A     		ldr	r2, .L72+56
 3824 0504 9342     		cmp	r3, r2
 3825 0506 48D0     		beq	.L67
 3826              		.loc 1 444 3 discriminator 112
 3827 0508 7B68     		ldr	r3, [r7, #4]
 3828 050a 404A     		ldr	r2, .L72+60
 3829 050c 9342     		cmp	r3, r2
 3830 050e 44D0     		beq	.L67
 3831              		.loc 1 444 3 discriminator 113
 3832 0510 7B68     		ldr	r3, [r7, #4]
 3833 0512 3F4A     		ldr	r2, .L72+64
 3834 0514 9342     		cmp	r3, r2
 3835 0516 40D0     		beq	.L67
 3836              		.loc 1 444 3 discriminator 114
 3837 0518 7B68     		ldr	r3, [r7, #4]
 3838 051a 3E4A     		ldr	r2, .L72+68
 3839 051c 9342     		cmp	r3, r2
 3840 051e 3CD0     		beq	.L67
 3841              		.loc 1 444 3 discriminator 115
 3842 0520 7B68     		ldr	r3, [r7, #4]
 3843 0522 3D4A     		ldr	r2, .L72+72
 3844 0524 9342     		cmp	r3, r2
 3845 0526 38D0     		beq	.L67
 3846              		.loc 1 444 3 discriminator 116
 3847 0528 7B68     		ldr	r3, [r7, #4]
 3848 052a 3C4A     		ldr	r2, .L72+76
 3849 052c 9342     		cmp	r3, r2
 3850 052e 34D0     		beq	.L67
 3851              		.loc 1 444 3 discriminator 117
 3852 0530 7B68     		ldr	r3, [r7, #4]
 3853 0532 3B4A     		ldr	r2, .L72+80
 3854 0534 9342     		cmp	r3, r2
 3855 0536 30D0     		beq	.L67
 3856              		.loc 1 444 3 discriminator 118
 3857 0538 7B68     		ldr	r3, [r7, #4]
 3858 053a 3A4A     		ldr	r2, .L72+84
 3859 053c 9342     		cmp	r3, r2
 3860 053e 2CD0     		beq	.L67
 3861              		.loc 1 444 3 discriminator 119
 3862 0540 7B68     		ldr	r3, [r7, #4]
 3863 0542 394A     		ldr	r2, .L72+88
 3864 0544 9342     		cmp	r3, r2
 3865 0546 28D0     		beq	.L67
 3866              		.loc 1 444 3 discriminator 120
 3867 0548 7B68     		ldr	r3, [r7, #4]
 3868 054a 384A     		ldr	r2, .L72+92
 3869 054c 9342     		cmp	r3, r2
 3870 054e 24D0     		beq	.L67
 3871              		.loc 1 444 3 discriminator 121
 3872 0550 7B68     		ldr	r3, [r7, #4]
 3873 0552 374A     		ldr	r2, .L72+96
 3874 0554 9342     		cmp	r3, r2
 3875 0556 20D0     		beq	.L67
 3876              		.loc 1 444 3 discriminator 122
 3877 0558 7B68     		ldr	r3, [r7, #4]
 3878 055a 364A     		ldr	r2, .L72+100
 3879 055c 9342     		cmp	r3, r2
ARM GAS  /tmp/ccRTEIeG.s 			page 84


 3880 055e 1CD0     		beq	.L67
 3881              		.loc 1 444 3 discriminator 123
 3882 0560 7B68     		ldr	r3, [r7, #4]
 3883 0562 354A     		ldr	r2, .L72+104
 3884 0564 9342     		cmp	r3, r2
 3885 0566 18D0     		beq	.L67
 3886              		.loc 1 444 3 discriminator 124
 3887 0568 7B68     		ldr	r3, [r7, #4]
 3888 056a 344A     		ldr	r2, .L72+108
 3889 056c 9342     		cmp	r3, r2
 3890 056e 14D0     		beq	.L67
 3891              		.loc 1 444 3 discriminator 125
 3892 0570 7B68     		ldr	r3, [r7, #4]
 3893 0572 334A     		ldr	r2, .L72+112
 3894 0574 9342     		cmp	r3, r2
 3895 0576 10D0     		beq	.L67
 3896              		.loc 1 444 3 discriminator 126
 3897 0578 7B68     		ldr	r3, [r7, #4]
 3898 057a 324A     		ldr	r2, .L72+116
 3899 057c 9342     		cmp	r3, r2
 3900 057e 0CD0     		beq	.L67
 3901              		.loc 1 444 3 discriminator 127
 3902 0580 7B68     		ldr	r3, [r7, #4]
 3903 0582 314A     		ldr	r2, .L72+120
 3904 0584 9342     		cmp	r3, r2
 3905 0586 08D0     		beq	.L67
 3906              		.loc 1 444 3 discriminator 128
 3907 0588 7B68     		ldr	r3, [r7, #4]
 3908 058a 304A     		ldr	r2, .L72+124
 3909 058c 9342     		cmp	r3, r2
 3910 058e 04D0     		beq	.L67
 3911              		.loc 1 444 3 discriminator 129
 3912 0590 4FF4DE71 		mov	r1, #444
 3913 0594 2E48     		ldr	r0, .L72+128
 3914 0596 FFF7FEFF 		bl	assert_failed
 3915              	.L67:
 445:STM32Cube_FW_N6/Drivers/STM32N6xx_HAL_Driver/Src/stm32n6xx_hal_rif.c **** 
 446:STM32Cube_FW_N6/Drivers/STM32N6xx_HAL_Driver/Src/stm32n6xx_hal_rif.c ****   p_lock_reg = &(RIFSC->RISC_RCFGLOCKRx[PeriphId >> RIF_PERIPH_REG_SHIFT]);
 3916              		.loc 1 446 50 is_stmt 1
 3917 059a 7B68     		ldr	r3, [r7, #4]
 3918 059c 1B0F     		lsrs	r3, r3, #28
 3919              		.loc 1 446 16
 3920 059e 9A00     		lsls	r2, r3, #2
 3921              		.loc 1 446 14
 3922 05a0 2C4B     		ldr	r3, .L72+132
 3923 05a2 1344     		add	r3, r3, r2
 3924 05a4 FB60     		str	r3, [r7, #12]
 447:STM32Cube_FW_N6/Drivers/STM32N6xx_HAL_Driver/Src/stm32n6xx_hal_rif.c ****   lock_status = ((*p_lock_reg & (RIF_LOCK_ENABLE << (PeriphId & RIF_PERIPH_BIT_POSITION))) >> (Peri
 3925              		.loc 1 447 19
 3926 05a6 FB68     		ldr	r3, [r7, #12]
 3927 05a8 1A68     		ldr	r2, [r3]
 3928              		.loc 1 447 63
 3929 05aa 7B68     		ldr	r3, [r7, #4]
 3930 05ac 03F01F03 		and	r3, r3, #31
 3931              		.loc 1 447 50
 3932 05b0 0121     		movs	r1, #1
 3933 05b2 01FA03F3 		lsl	r3, r1, r3
ARM GAS  /tmp/ccRTEIeG.s 			page 85


 3934              		.loc 1 447 31
 3935 05b6 1A40     		ands	r2, r2, r3
 3936              		.loc 1 447 105
 3937 05b8 7B68     		ldr	r3, [r7, #4]
 3938 05ba 03F01F03 		and	r3, r3, #31
 3939              		.loc 1 447 15
 3940 05be 22FA03F3 		lsr	r3, r2, r3
 3941 05c2 BB60     		str	r3, [r7, #8]
 448:STM32Cube_FW_N6/Drivers/STM32N6xx_HAL_Driver/Src/stm32n6xx_hal_rif.c **** 
 449:STM32Cube_FW_N6/Drivers/STM32N6xx_HAL_Driver/Src/stm32n6xx_hal_rif.c ****   return lock_status;
 3942              		.loc 1 449 10
 3943 05c4 BB68     		ldr	r3, [r7, #8]
 450:STM32Cube_FW_N6/Drivers/STM32N6xx_HAL_Driver/Src/stm32n6xx_hal_rif.c **** }
 3944              		.loc 1 450 1
 3945 05c6 1846     		mov	r0, r3
 3946 05c8 1037     		adds	r7, r7, #16
 3947              		.cfi_def_cfa_offset 8
 3948 05ca BD46     		mov	sp, r7
 3949              		.cfi_def_cfa_register 13
 3950              		@ sp needed
 3951 05cc 80BD     		pop	{r7, pc}
 3952              	.L73:
 3953 05ce 00BF     		.align	2
 3954              	.L72:
 3955 05d0 0C000040 		.word	1073741836
 3956 05d4 0D000040 		.word	1073741837
 3957 05d8 11000040 		.word	1073741841
 3958 05dc 12000040 		.word	1073741842
 3959 05e0 13000040 		.word	1073741843
 3960 05e4 19000040 		.word	1073741849
 3961 05e8 1B000040 		.word	1073741851
 3962 05ec 1C000040 		.word	1073741852
 3963 05f0 1D000040 		.word	1073741853
 3964 05f4 1F000040 		.word	1073741855
 3965 05f8 01000050 		.word	1342177281
 3966 05fc 02000050 		.word	1342177282
 3967 0600 03000050 		.word	1342177283
 3968 0604 04000050 		.word	1342177284
 3969 0608 05000050 		.word	1342177285
 3970 060c 06000050 		.word	1342177286
 3971 0610 08000050 		.word	1342177288
 3972 0614 09000050 		.word	1342177289
 3973 0618 0A000050 		.word	1342177290
 3974 061c 0B000050 		.word	1342177291
 3975 0620 0D000050 		.word	1342177293
 3976 0624 0E000050 		.word	1342177294
 3977 0628 0F000050 		.word	1342177295
 3978 062c 11000050 		.word	1342177297
 3979 0630 12000050 		.word	1342177298
 3980 0634 13000050 		.word	1342177299
 3981 0638 14000050 		.word	1342177300
 3982 063c 16000050 		.word	1342177302
 3983 0640 17000050 		.word	1342177303
 3984 0644 18000050 		.word	1342177304
 3985 0648 1B000050 		.word	1342177307
 3986 064c 1E000050 		.word	1342177310
 3987 0650 00000000 		.word	.LC0
ARM GAS  /tmp/ccRTEIeG.s 			page 86


 3988 0654 50400254 		.word	1409433680
 3989              		.cfi_endproc
 3990              	.LFE846:
 3992              		.section	.text.HAL_RIF_RISAF_Lock,"ax",%progbits
 3993              		.align	1
 3994              		.global	HAL_RIF_RISAF_Lock
 3995              		.syntax unified
 3996              		.thumb
 3997              		.thumb_func
 3999              	HAL_RIF_RISAF_Lock:
 4000              	.LFB847:
 451:STM32Cube_FW_N6/Drivers/STM32N6xx_HAL_Driver/Src/stm32n6xx_hal_rif.c **** 
 452:STM32Cube_FW_N6/Drivers/STM32N6xx_HAL_Driver/Src/stm32n6xx_hal_rif.c **** /**
 453:STM32Cube_FW_N6/Drivers/STM32N6xx_HAL_Driver/Src/stm32n6xx_hal_rif.c ****   * @}
 454:STM32Cube_FW_N6/Drivers/STM32N6xx_HAL_Driver/Src/stm32n6xx_hal_rif.c ****   */
 455:STM32Cube_FW_N6/Drivers/STM32N6xx_HAL_Driver/Src/stm32n6xx_hal_rif.c **** 
 456:STM32Cube_FW_N6/Drivers/STM32N6xx_HAL_Driver/Src/stm32n6xx_hal_rif.c **** /** @defgroup RIF_Exported_Functions_Group4  RISAF Configuration functions
 457:STM32Cube_FW_N6/Drivers/STM32N6xx_HAL_Driver/Src/stm32n6xx_hal_rif.c ****   *  @brief    RISAF Configuration functions
 458:STM32Cube_FW_N6/Drivers/STM32N6xx_HAL_Driver/Src/stm32n6xx_hal_rif.c ****   *
 459:STM32Cube_FW_N6/Drivers/STM32N6xx_HAL_Driver/Src/stm32n6xx_hal_rif.c **** @verbatim
 460:STM32Cube_FW_N6/Drivers/STM32N6xx_HAL_Driver/Src/stm32n6xx_hal_rif.c ****   ==============================================================================
 461:STM32Cube_FW_N6/Drivers/STM32N6xx_HAL_Driver/Src/stm32n6xx_hal_rif.c ****             ##### RISAF Configuration functions #####
 462:STM32Cube_FW_N6/Drivers/STM32N6xx_HAL_Driver/Src/stm32n6xx_hal_rif.c ****   ==============================================================================
 463:STM32Cube_FW_N6/Drivers/STM32N6xx_HAL_Driver/Src/stm32n6xx_hal_rif.c ****   [..]
