ARM GAS  /tmp/ccuUFTu8.s 			page 1


   1              		.arch armv8.1-m.main
   2              		.fpu fpv5-d16
   3              		.arch_extension dsp
   4              		.arch_extension fp
   5              		.arch_extension fp.dp
   6              		.arch_extension mve
   7              		.arch_extension mve.fp
   8              		.eabi_attribute 5, "cortex-m55"
   9              		.eabi_attribute 28, 1
  10              		.eabi_attribute 20, 1
  11              		.eabi_attribute 21, 1
  12              		.eabi_attribute 23, 3
  13              		.eabi_attribute 24, 1
  14              		.eabi_attribute 25, 1
  15              		.eabi_attribute 26, 1
  16              		.eabi_attribute 30, 6
  17              		.eabi_attribute 34, 1
  18              		.eabi_attribute 38, 1
  19              		.eabi_attribute 18, 4
  20              		.file	"stm32n6xx_hal_dma_ex.c"
  21              		.text
  22              	.Ltext0:
  23              		.cfi_sections	.debug_frame
  24              		.file 1 "STM32Cube_FW_N6/Drivers/STM32N6xx_HAL_Driver/Src/stm32n6xx_hal_dma_ex.c"
  25              		.section	.rodata
  26              		.align	2
  27              	.LC1:
  28 0000 53544D33 		.ascii	"STM32Cube_FW_N6/Drivers/STM32N6xx_HAL_Driver/Src/st"
  28      32437562 
  28      655F4657 
  28      5F4E362F 
  28      44726976 
  29 0033 6D33326E 		.ascii	"m32n6xx_hal_dma_ex.c\000"
  29      3678785F 
  29      68616C5F 
  29      646D615F 
  29      65782E63 
  30              		.section	.text.HAL_DMAEx_List_Init,"ax",%progbits
  31              		.align	1
  32              		.global	HAL_DMAEx_List_Init
  33              		.syntax unified
  34              		.thumb
  35              		.thumb_func
  37              	HAL_DMAEx_List_Init:
  38              	.LFB835:
   1:STM32Cube_FW_N6/Drivers/STM32N6xx_HAL_Driver/Src/stm32n6xx_hal_dma_ex.c **** /**
   2:STM32Cube_FW_N6/Drivers/STM32N6xx_HAL_Driver/Src/stm32n6xx_hal_dma_ex.c ****   *************************************************************************************************
   3:STM32Cube_FW_N6/Drivers/STM32N6xx_HAL_Driver/Src/stm32n6xx_hal_dma_ex.c ****   * @file    stm32n6xx_hal_dma_ex.c
   4:STM32Cube_FW_N6/Drivers/STM32N6xx_HAL_Driver/Src/stm32n6xx_hal_dma_ex.c ****   * @author  MCD Application Team
   5:STM32Cube_FW_N6/Drivers/STM32N6xx_HAL_Driver/Src/stm32n6xx_hal_dma_ex.c ****   * @brief   DMA Extension HAL module driver
   6:STM32Cube_FW_N6/Drivers/STM32N6xx_HAL_Driver/Src/stm32n6xx_hal_dma_ex.c ****   *          This file provides firmware functions to manage the following functionalities of the D
   7:STM32Cube_FW_N6/Drivers/STM32N6xx_HAL_Driver/Src/stm32n6xx_hal_dma_ex.c ****   *          peripheral:
   8:STM32Cube_FW_N6/Drivers/STM32N6xx_HAL_Driver/Src/stm32n6xx_hal_dma_ex.c ****   *           + Linked-List Initialization and De-Initialization Functions
   9:STM32Cube_FW_N6/Drivers/STM32N6xx_HAL_Driver/Src/stm32n6xx_hal_dma_ex.c ****   *           + Linked-List I/O Operation Functions
  10:STM32Cube_FW_N6/Drivers/STM32N6xx_HAL_Driver/Src/stm32n6xx_hal_dma_ex.c ****   *           + Linked-List Management Functions
  11:STM32Cube_FW_N6/Drivers/STM32N6xx_HAL_Driver/Src/stm32n6xx_hal_dma_ex.c ****   *           + Data Handling, Repeated Block and Trigger Configuration Functions
  12:STM32Cube_FW_N6/Drivers/STM32N6xx_HAL_Driver/Src/stm32n6xx_hal_dma_ex.c ****   *           + Suspend and Resume Operation Functions
ARM GAS  /tmp/ccuUFTu8.s 			page 2


  13:STM32Cube_FW_N6/Drivers/STM32N6xx_HAL_Driver/Src/stm32n6xx_hal_dma_ex.c ****   *           + FIFO Status Function
  14:STM32Cube_FW_N6/Drivers/STM32N6xx_HAL_Driver/Src/stm32n6xx_hal_dma_ex.c ****   *
  15:STM32Cube_FW_N6/Drivers/STM32N6xx_HAL_Driver/Src/stm32n6xx_hal_dma_ex.c ****   *************************************************************************************************
  16:STM32Cube_FW_N6/Drivers/STM32N6xx_HAL_Driver/Src/stm32n6xx_hal_dma_ex.c ****   * @attention
  17:STM32Cube_FW_N6/Drivers/STM32N6xx_HAL_Driver/Src/stm32n6xx_hal_dma_ex.c ****   *
  18:STM32Cube_FW_N6/Drivers/STM32N6xx_HAL_Driver/Src/stm32n6xx_hal_dma_ex.c ****   * Copyright (c) 2023 STMicroelectronics.
  19:STM32Cube_FW_N6/Drivers/STM32N6xx_HAL_Driver/Src/stm32n6xx_hal_dma_ex.c ****   * All rights reserved.
  20:STM32Cube_FW_N6/Drivers/STM32N6xx_HAL_Driver/Src/stm32n6xx_hal_dma_ex.c ****   *
  21:STM32Cube_FW_N6/Drivers/STM32N6xx_HAL_Driver/Src/stm32n6xx_hal_dma_ex.c ****   * This software is licensed under terms that can be found in the LICENSE file
  22:STM32Cube_FW_N6/Drivers/STM32N6xx_HAL_Driver/Src/stm32n6xx_hal_dma_ex.c ****   * in the root directory of this software component.
  23:STM32Cube_FW_N6/Drivers/STM32N6xx_HAL_Driver/Src/stm32n6xx_hal_dma_ex.c ****   * If no LICENSE file comes with this software, it is provided AS-IS.
  24:STM32Cube_FW_N6/Drivers/STM32N6xx_HAL_Driver/Src/stm32n6xx_hal_dma_ex.c ****   *
  25:STM32Cube_FW_N6/Drivers/STM32N6xx_HAL_Driver/Src/stm32n6xx_hal_dma_ex.c ****   *************************************************************************************************
  26:STM32Cube_FW_N6/Drivers/STM32N6xx_HAL_Driver/Src/stm32n6xx_hal_dma_ex.c ****   @verbatim
  27:STM32Cube_FW_N6/Drivers/STM32N6xx_HAL_Driver/Src/stm32n6xx_hal_dma_ex.c ****   =================================================================================================
  28:STM32Cube_FW_N6/Drivers/STM32N6xx_HAL_Driver/Src/stm32n6xx_hal_dma_ex.c ****                                  ##### How to use this driver #####
  29:STM32Cube_FW_N6/Drivers/STM32N6xx_HAL_Driver/Src/stm32n6xx_hal_dma_ex.c ****   =================================================================================================
  30:STM32Cube_FW_N6/Drivers/STM32N6xx_HAL_Driver/Src/stm32n6xx_hal_dma_ex.c ****     [..]
  31:STM32Cube_FW_N6/Drivers/STM32N6xx_HAL_Driver/Src/stm32n6xx_hal_dma_ex.c ****       Alternatively to the normal programming mode, a DMA channel can be programmed by a list of tr
  32:STM32Cube_FW_N6/Drivers/STM32N6xx_HAL_Driver/Src/stm32n6xx_hal_dma_ex.c ****       linked-list (list of Node items). Each node is defined by its data structure.
  33:STM32Cube_FW_N6/Drivers/STM32N6xx_HAL_Driver/Src/stm32n6xx_hal_dma_ex.c ****       Each node specifies a standalone DMA channel.
  34:STM32Cube_FW_N6/Drivers/STM32N6xx_HAL_Driver/Src/stm32n6xx_hal_dma_ex.c ****       When enabled, the DMA channel fetch the first linked-list node from SRAM (known as head node)
  35:STM32Cube_FW_N6/Drivers/STM32N6xx_HAL_Driver/Src/stm32n6xx_hal_dma_ex.c ****       next linked list node will be fetched and executed. This operation is repeated until the end 
  36:STM32Cube_FW_N6/Drivers/STM32N6xx_HAL_Driver/Src/stm32n6xx_hal_dma_ex.c ****       linked-list queue. Optionally, the linked-list can be linear where the last linked-list queue
  37:STM32Cube_FW_N6/Drivers/STM32N6xx_HAL_Driver/Src/stm32n6xx_hal_dma_ex.c ****       to another queue node or circular where the last linked-list node is linked to any linked-lis
  38:STM32Cube_FW_N6/Drivers/STM32N6xx_HAL_Driver/Src/stm32n6xx_hal_dma_ex.c **** 
  39:STM32Cube_FW_N6/Drivers/STM32N6xx_HAL_Driver/Src/stm32n6xx_hal_dma_ex.c ****           (+) Linear linked-list:
  40:STM32Cube_FW_N6/Drivers/STM32N6xx_HAL_Driver/Src/stm32n6xx_hal_dma_ex.c ****               The DMA channel fetch and execute all DMA linked-list queue from first node (head nod
  41:STM32Cube_FW_N6/Drivers/STM32N6xx_HAL_Driver/Src/stm32n6xx_hal_dma_ex.c ****               (tail node) ones. When the last node is completed, the DMA channel remains in idle st
  42:STM32Cube_FW_N6/Drivers/STM32N6xx_HAL_Driver/Src/stm32n6xx_hal_dma_ex.c ****               transfer can be lunched.
  43:STM32Cube_FW_N6/Drivers/STM32N6xx_HAL_Driver/Src/stm32n6xx_hal_dma_ex.c **** 
  44:STM32Cube_FW_N6/Drivers/STM32N6xx_HAL_Driver/Src/stm32n6xx_hal_dma_ex.c ****           (+) Circular linked-list:
  45:STM32Cube_FW_N6/Drivers/STM32N6xx_HAL_Driver/Src/stm32n6xx_hal_dma_ex.c ****               The DMA channel fetch and execute all DMA linked-list queue from first node (head nod
  46:STM32Cube_FW_N6/Drivers/STM32N6xx_HAL_Driver/Src/stm32n6xx_hal_dma_ex.c ****               node). When last node is executed, the DMA channel fetches the first circular node an
  47:STM32Cube_FW_N6/Drivers/STM32N6xx_HAL_Driver/Src/stm32n6xx_hal_dma_ex.c ****               the same sequence in an infinite loop (Circular transfer). To stop the DMA channel, a
  48:STM32Cube_FW_N6/Drivers/STM32N6xx_HAL_Driver/Src/stm32n6xx_hal_dma_ex.c ****               required. This linked-list mode replaces the legacy circular transfers.
  49:STM32Cube_FW_N6/Drivers/STM32N6xx_HAL_Driver/Src/stm32n6xx_hal_dma_ex.c **** 
  50:STM32Cube_FW_N6/Drivers/STM32N6xx_HAL_Driver/Src/stm32n6xx_hal_dma_ex.c ****     [..]
  51:STM32Cube_FW_N6/Drivers/STM32N6xx_HAL_Driver/Src/stm32n6xx_hal_dma_ex.c ****       In order to reduce linked-list queue executing time and power consumption, the DMA channel su
  52:STM32Cube_FW_N6/Drivers/STM32N6xx_HAL_Driver/Src/stm32n6xx_hal_dma_ex.c ****       dynamic linked-list format. In fact, the DMA supports the execution of 2 types of linked-list
  53:STM32Cube_FW_N6/Drivers/STM32N6xx_HAL_Driver/Src/stm32n6xx_hal_dma_ex.c ****       dynamic.
  54:STM32Cube_FW_N6/Drivers/STM32N6xx_HAL_Driver/Src/stm32n6xx_hal_dma_ex.c **** 
  55:STM32Cube_FW_N6/Drivers/STM32N6xx_HAL_Driver/Src/stm32n6xx_hal_dma_ex.c ****           (+) Static linked-list:
  56:STM32Cube_FW_N6/Drivers/STM32N6xx_HAL_Driver/Src/stm32n6xx_hal_dma_ex.c ****               The static linked-list format refers to the full linked-list node where all DMA chann
  57:STM32Cube_FW_N6/Drivers/STM32N6xx_HAL_Driver/Src/stm32n6xx_hal_dma_ex.c ****               fetched and executed independently of the redundancy of information.
  58:STM32Cube_FW_N6/Drivers/STM32N6xx_HAL_Driver/Src/stm32n6xx_hal_dma_ex.c **** 
  59:STM32Cube_FW_N6/Drivers/STM32N6xx_HAL_Driver/Src/stm32n6xx_hal_dma_ex.c ****           (+) Dynamic linked-list:
  60:STM32Cube_FW_N6/Drivers/STM32N6xx_HAL_Driver/Src/stm32n6xx_hal_dma_ex.c ****               The dynamic linked-list format refer to the customized linked-list node where only DM
  61:STM32Cube_FW_N6/Drivers/STM32N6xx_HAL_Driver/Src/stm32n6xx_hal_dma_ex.c ****               parameters are fetched and executed (Example: data size = 20 on previous node, and da
  62:STM32Cube_FW_N6/Drivers/STM32N6xx_HAL_Driver/Src/stm32n6xx_hal_dma_ex.c ****               current node => No need to update it).
  63:STM32Cube_FW_N6/Drivers/STM32N6xx_HAL_Driver/Src/stm32n6xx_hal_dma_ex.c **** 
  64:STM32Cube_FW_N6/Drivers/STM32N6xx_HAL_Driver/Src/stm32n6xx_hal_dma_ex.c ****       For linked-list transfers, the DMA channel can execute the linked-list queue node by node. Th
  65:STM32Cube_FW_N6/Drivers/STM32N6xx_HAL_Driver/Src/stm32n6xx_hal_dma_ex.c ****       link step mode. When activated, enabling the DMA channel first time allows to fetch the head 
  66:STM32Cube_FW_N6/Drivers/STM32N6xx_HAL_Driver/Src/stm32n6xx_hal_dma_ex.c ****       then it stops. Then, another DMA channel enable is needed to execute the node. After that, ke
  67:STM32Cube_FW_N6/Drivers/STM32N6xx_HAL_Driver/Src/stm32n6xx_hal_dma_ex.c ****       DMA channel is needed to execute each node until the end of linked-list queue. When the linke
  68:STM32Cube_FW_N6/Drivers/STM32N6xx_HAL_Driver/Src/stm32n6xx_hal_dma_ex.c ****       circular, enabling the DMA channel in an infinite loop is required to keep the DMA channel ru
  69:STM32Cube_FW_N6/Drivers/STM32N6xx_HAL_Driver/Src/stm32n6xx_hal_dma_ex.c ****       is useful for debug purpose or asynchronously executing queue nodes.
ARM GAS  /tmp/ccuUFTu8.s 			page 3


  70:STM32Cube_FW_N6/Drivers/STM32N6xx_HAL_Driver/Src/stm32n6xx_hal_dma_ex.c **** 
  71:STM32Cube_FW_N6/Drivers/STM32N6xx_HAL_Driver/Src/stm32n6xx_hal_dma_ex.c ****     [..]
  72:STM32Cube_FW_N6/Drivers/STM32N6xx_HAL_Driver/Src/stm32n6xx_hal_dma_ex.c ****       Each DMA channel transfer (normal or linked-list), is highly configurable according to DMA ch
  73:STM32Cube_FW_N6/Drivers/STM32N6xx_HAL_Driver/Src/stm32n6xx_hal_dma_ex.c ****       integrated in devices. These configuration can be :
  74:STM32Cube_FW_N6/Drivers/STM32N6xx_HAL_Driver/Src/stm32n6xx_hal_dma_ex.c **** 
  75:STM32Cube_FW_N6/Drivers/STM32N6xx_HAL_Driver/Src/stm32n6xx_hal_dma_ex.c ****           (+) Repeated block configuration :
  76:STM32Cube_FW_N6/Drivers/STM32N6xx_HAL_Driver/Src/stm32n6xx_hal_dma_ex.c ****               If the feature is supported, the DMA channel can performs a repeated block transfers.
  77:STM32Cube_FW_N6/Drivers/STM32N6xx_HAL_Driver/Src/stm32n6xx_hal_dma_ex.c ****               dimension addressing transfers, this feature can transfer n iteration of programmed b
  78:STM32Cube_FW_N6/Drivers/STM32N6xx_HAL_Driver/Src/stm32n6xx_hal_dma_ex.c ****               transfer is the legacy data size). Additional to the repeat count of a block, DMA cha
  79:STM32Cube_FW_N6/Drivers/STM32N6xx_HAL_Driver/Src/stm32n6xx_hal_dma_ex.c ****               jump after at burst and block level. The jump length is a programmable parameter defi
  80:STM32Cube_FW_N6/Drivers/STM32N6xx_HAL_Driver/Src/stm32n6xx_hal_dma_ex.c ****                (++) Jump at burst level :
  81:STM32Cube_FW_N6/Drivers/STM32N6xx_HAL_Driver/Src/stm32n6xx_hal_dma_ex.c ****                     The DMA channel keep an empty area, between each 2 consecutive bursts transmitt
  82:STM32Cube_FW_N6/Drivers/STM32N6xx_HAL_Driver/Src/stm32n6xx_hal_dma_ex.c ****                (++) Jump at block level :
  83:STM32Cube_FW_N6/Drivers/STM32N6xx_HAL_Driver/Src/stm32n6xx_hal_dma_ex.c ****                     The DMA channel keep an empty area, between each 2 consecutive blocks transmitt
  84:STM32Cube_FW_N6/Drivers/STM32N6xx_HAL_Driver/Src/stm32n6xx_hal_dma_ex.c **** 
  85:STM32Cube_FW_N6/Drivers/STM32N6xx_HAL_Driver/Src/stm32n6xx_hal_dma_ex.c ****           (+) Trigger :
  86:STM32Cube_FW_N6/Drivers/STM32N6xx_HAL_Driver/Src/stm32n6xx_hal_dma_ex.c ****               The DMA channel transfers can be conditioned by hardware signals edges (rising or fal
  87:STM32Cube_FW_N6/Drivers/STM32N6xx_HAL_Driver/Src/stm32n6xx_hal_dma_ex.c ****               triggers. Trigger condition can be applied at :
  88:STM32Cube_FW_N6/Drivers/STM32N6xx_HAL_Driver/Src/stm32n6xx_hal_dma_ex.c ****                (++) Single/Burst level :
  89:STM32Cube_FW_N6/Drivers/STM32N6xx_HAL_Driver/Src/stm32n6xx_hal_dma_ex.c ****                     Each single/burst data transmission is conditioned by a signal trigger hit.
  90:STM32Cube_FW_N6/Drivers/STM32N6xx_HAL_Driver/Src/stm32n6xx_hal_dma_ex.c ****                (++) Block level :
  91:STM32Cube_FW_N6/Drivers/STM32N6xx_HAL_Driver/Src/stm32n6xx_hal_dma_ex.c ****                     Each block data transmission is conditioned by a signal trigger hit.
  92:STM32Cube_FW_N6/Drivers/STM32N6xx_HAL_Driver/Src/stm32n6xx_hal_dma_ex.c ****                (++) Repeated block level :
  93:STM32Cube_FW_N6/Drivers/STM32N6xx_HAL_Driver/Src/stm32n6xx_hal_dma_ex.c ****                     Each repeated block data transmission is conditioned by a signal trigger hit.
  94:STM32Cube_FW_N6/Drivers/STM32N6xx_HAL_Driver/Src/stm32n6xx_hal_dma_ex.c ****                (++) Node level :
  95:STM32Cube_FW_N6/Drivers/STM32N6xx_HAL_Driver/Src/stm32n6xx_hal_dma_ex.c ****                     Each node execution is conditioned by a signal trigger hit.
  96:STM32Cube_FW_N6/Drivers/STM32N6xx_HAL_Driver/Src/stm32n6xx_hal_dma_ex.c ****               The DMA channel can report a trigger overrun when detects more than 2 trigger signal 
  97:STM32Cube_FW_N6/Drivers/STM32N6xx_HAL_Driver/Src/stm32n6xx_hal_dma_ex.c ****               executing the current transfer.
  98:STM32Cube_FW_N6/Drivers/STM32N6xx_HAL_Driver/Src/stm32n6xx_hal_dma_ex.c **** 
  99:STM32Cube_FW_N6/Drivers/STM32N6xx_HAL_Driver/Src/stm32n6xx_hal_dma_ex.c ****           (+) Data handling :
 100:STM32Cube_FW_N6/Drivers/STM32N6xx_HAL_Driver/Src/stm32n6xx_hal_dma_ex.c ****               The data handling feature is a FIFO capability that can be :
 101:STM32Cube_FW_N6/Drivers/STM32N6xx_HAL_Driver/Src/stm32n6xx_hal_dma_ex.c ****                 (++) Padding pattern :
 102:STM32Cube_FW_N6/Drivers/STM32N6xx_HAL_Driver/Src/stm32n6xx_hal_dma_ex.c ****                      Padding selected pattern (zero padding or sign extension) when the source data
 103:STM32Cube_FW_N6/Drivers/STM32N6xx_HAL_Driver/Src/stm32n6xx_hal_dma_ex.c ****                      than the destination data width at single level.
 104:STM32Cube_FW_N6/Drivers/STM32N6xx_HAL_Driver/Src/stm32n6xx_hal_dma_ex.c ****                 (++) Truncation :
 105:STM32Cube_FW_N6/Drivers/STM32N6xx_HAL_Driver/Src/stm32n6xx_hal_dma_ex.c ****                      Truncate section from the source data single when the source data width is big
 106:STM32Cube_FW_N6/Drivers/STM32N6xx_HAL_Driver/Src/stm32n6xx_hal_dma_ex.c ****                      destination data width.
 107:STM32Cube_FW_N6/Drivers/STM32N6xx_HAL_Driver/Src/stm32n6xx_hal_dma_ex.c ****                 (++) Pack/Unpack :
 108:STM32Cube_FW_N6/Drivers/STM32N6xx_HAL_Driver/Src/stm32n6xx_hal_dma_ex.c ****                      Pack a set of data when source data width is smaller than the destination data
 109:STM32Cube_FW_N6/Drivers/STM32N6xx_HAL_Driver/Src/stm32n6xx_hal_dma_ex.c ****                      Unpack a set of data when source data width is bigger than the destination dat
 110:STM32Cube_FW_N6/Drivers/STM32N6xx_HAL_Driver/Src/stm32n6xx_hal_dma_ex.c ****                 (++) Exchange :
 111:STM32Cube_FW_N6/Drivers/STM32N6xx_HAL_Driver/Src/stm32n6xx_hal_dma_ex.c ****                      Exchange data at byte, half-word and word on the destination and at byte level
 112:STM32Cube_FW_N6/Drivers/STM32N6xx_HAL_Driver/Src/stm32n6xx_hal_dma_ex.c **** 
 113:STM32Cube_FW_N6/Drivers/STM32N6xx_HAL_Driver/Src/stm32n6xx_hal_dma_ex.c ****     [..]
 114:STM32Cube_FW_N6/Drivers/STM32N6xx_HAL_Driver/Src/stm32n6xx_hal_dma_ex.c ****       Each DMA channel transfer (normal or linked-list) when it is active, can be suspended and res
 115:STM32Cube_FW_N6/Drivers/STM32N6xx_HAL_Driver/Src/stm32n6xx_hal_dma_ex.c ****       application. When trying to suspend an ongoing transfer, the DMA channel isn't suspended inst
 116:STM32Cube_FW_N6/Drivers/STM32N6xx_HAL_Driver/Src/stm32n6xx_hal_dma_ex.c ****       the current ongoing single/burst then it stops.
 117:STM32Cube_FW_N6/Drivers/STM32N6xx_HAL_Driver/Src/stm32n6xx_hal_dma_ex.c ****       When the DMA channel is suspended, the current transfer can be resumed instantly.
 118:STM32Cube_FW_N6/Drivers/STM32N6xx_HAL_Driver/Src/stm32n6xx_hal_dma_ex.c **** 
 119:STM32Cube_FW_N6/Drivers/STM32N6xx_HAL_Driver/Src/stm32n6xx_hal_dma_ex.c ****     [..]
 120:STM32Cube_FW_N6/Drivers/STM32N6xx_HAL_Driver/Src/stm32n6xx_hal_dma_ex.c ****       The DMA channel that supports FIFO, can report in real time the number of beats remains on de
 121:STM32Cube_FW_N6/Drivers/STM32N6xx_HAL_Driver/Src/stm32n6xx_hal_dma_ex.c ****       FIFO level.
 122:STM32Cube_FW_N6/Drivers/STM32N6xx_HAL_Driver/Src/stm32n6xx_hal_dma_ex.c **** 
 123:STM32Cube_FW_N6/Drivers/STM32N6xx_HAL_Driver/Src/stm32n6xx_hal_dma_ex.c ****     *** Linked-List Initialization and De-Initialization operation ***
 124:STM32Cube_FW_N6/Drivers/STM32N6xx_HAL_Driver/Src/stm32n6xx_hal_dma_ex.c ****     ==================================================================
 125:STM32Cube_FW_N6/Drivers/STM32N6xx_HAL_Driver/Src/stm32n6xx_hal_dma_ex.c ****     [..]
 126:STM32Cube_FW_N6/Drivers/STM32N6xx_HAL_Driver/Src/stm32n6xx_hal_dma_ex.c ****       Differently from normal transfers, DMA channel initialization and de-initialization need less
ARM GAS  /tmp/ccuUFTu8.s 			page 4


 127:STM32Cube_FW_N6/Drivers/STM32N6xx_HAL_Driver/Src/stm32n6xx_hal_dma_ex.c ****       remaining transfer parameters are defined by linked-list nodes.
 128:STM32Cube_FW_N6/Drivers/STM32N6xx_HAL_Driver/Src/stm32n6xx_hal_dma_ex.c **** 
 129:STM32Cube_FW_N6/Drivers/STM32N6xx_HAL_Driver/Src/stm32n6xx_hal_dma_ex.c ****           (+) Use HAL_DMAEx_List_Init() to initialize a DMA channel in linked-list mode according t
 130:STM32Cube_FW_N6/Drivers/STM32N6xx_HAL_Driver/Src/stm32n6xx_hal_dma_ex.c ****               When called, the DMA channel will be ready to execute linked-list queues.
 131:STM32Cube_FW_N6/Drivers/STM32N6xx_HAL_Driver/Src/stm32n6xx_hal_dma_ex.c **** 
 132:STM32Cube_FW_N6/Drivers/STM32N6xx_HAL_Driver/Src/stm32n6xx_hal_dma_ex.c ****           (+) Use HAL_DMAEx_List_DeInit() to de-initialize a DMA channel in linked-list mode.
 133:STM32Cube_FW_N6/Drivers/STM32N6xx_HAL_Driver/Src/stm32n6xx_hal_dma_ex.c ****               When called, the DMA channel will be in reset. It is mandatory to reinitialize it for
 134:STM32Cube_FW_N6/Drivers/STM32N6xx_HAL_Driver/Src/stm32n6xx_hal_dma_ex.c **** 
 135:STM32Cube_FW_N6/Drivers/STM32N6xx_HAL_Driver/Src/stm32n6xx_hal_dma_ex.c ****     *** Linked-List I/O Operation ***
 136:STM32Cube_FW_N6/Drivers/STM32N6xx_HAL_Driver/Src/stm32n6xx_hal_dma_ex.c ****     =================================
 137:STM32Cube_FW_N6/Drivers/STM32N6xx_HAL_Driver/Src/stm32n6xx_hal_dma_ex.c ****     [..]
 138:STM32Cube_FW_N6/Drivers/STM32N6xx_HAL_Driver/Src/stm32n6xx_hal_dma_ex.c ****           (+) Use HAL_DMAEx_List_Start() to start a DMA transfer in linked-list mode after the conf
 139:STM32Cube_FW_N6/Drivers/STM32N6xx_HAL_Driver/Src/stm32n6xx_hal_dma_ex.c ****               linked-list queue base address and offset in polling mode (Blocking mode).
 140:STM32Cube_FW_N6/Drivers/STM32N6xx_HAL_Driver/Src/stm32n6xx_hal_dma_ex.c **** 
 141:STM32Cube_FW_N6/Drivers/STM32N6xx_HAL_Driver/Src/stm32n6xx_hal_dma_ex.c ****           (+) Use HAL_DMAEx_List_Start_IT() to start a DMA transfer in linked-list mode after the c
 142:STM32Cube_FW_N6/Drivers/STM32N6xx_HAL_Driver/Src/stm32n6xx_hal_dma_ex.c ****               linked-list queue base address and offset in interrupt mode (Non-blocking mode).
 143:STM32Cube_FW_N6/Drivers/STM32N6xx_HAL_Driver/Src/stm32n6xx_hal_dma_ex.c **** 
 144:STM32Cube_FW_N6/Drivers/STM32N6xx_HAL_Driver/Src/stm32n6xx_hal_dma_ex.c ****     *** Linked-List Management ***
 145:STM32Cube_FW_N6/Drivers/STM32N6xx_HAL_Driver/Src/stm32n6xx_hal_dma_ex.c ****     ==============================
 146:STM32Cube_FW_N6/Drivers/STM32N6xx_HAL_Driver/Src/stm32n6xx_hal_dma_ex.c ****     [..]
 147:STM32Cube_FW_N6/Drivers/STM32N6xx_HAL_Driver/Src/stm32n6xx_hal_dma_ex.c ****       The linked-list management is a software processing independently of DMA channel hardware. It
 148:STM32Cube_FW_N6/Drivers/STM32N6xx_HAL_Driver/Src/stm32n6xx_hal_dma_ex.c ****       build, create, insert, remove, replace, circularize, convert both nodes and queue in order to
 149:STM32Cube_FW_N6/Drivers/STM32N6xx_HAL_Driver/Src/stm32n6xx_hal_dma_ex.c ****       channel transfers in linked-list mode.
 150:STM32Cube_FW_N6/Drivers/STM32N6xx_HAL_Driver/Src/stm32n6xx_hal_dma_ex.c ****       Linked-list APIs and types are adapted to reduce memory footprint.
 151:STM32Cube_FW_N6/Drivers/STM32N6xx_HAL_Driver/Src/stm32n6xx_hal_dma_ex.c **** 
 152:STM32Cube_FW_N6/Drivers/STM32N6xx_HAL_Driver/Src/stm32n6xx_hal_dma_ex.c ****     *** Linked-list nodes building ***
 153:STM32Cube_FW_N6/Drivers/STM32N6xx_HAL_Driver/Src/stm32n6xx_hal_dma_ex.c ****     [..]
 154:STM32Cube_FW_N6/Drivers/STM32N6xx_HAL_Driver/Src/stm32n6xx_hal_dma_ex.c ****       At node level, the operations that can be done are building a new linked-list node or get a l
 155:STM32Cube_FW_N6/Drivers/STM32N6xx_HAL_Driver/Src/stm32n6xx_hal_dma_ex.c ****       information from a built node. The linked-list nodes have two forms according to 2 dimensions
 156:STM32Cube_FW_N6/Drivers/STM32N6xx_HAL_Driver/Src/stm32n6xx_hal_dma_ex.c ****       capability. The linear addressing nodes contains the information of all DMA channel features 
 157:STM32Cube_FW_N6/Drivers/STM32N6xx_HAL_Driver/Src/stm32n6xx_hal_dma_ex.c ****       dimension addressing features and the 2 dimensions addressing nodes contain the information o
 158:STM32Cube_FW_N6/Drivers/STM32N6xx_HAL_Driver/Src/stm32n6xx_hal_dma_ex.c ****       features.
 159:STM32Cube_FW_N6/Drivers/STM32N6xx_HAL_Driver/Src/stm32n6xx_hal_dma_ex.c **** 
 160:STM32Cube_FW_N6/Drivers/STM32N6xx_HAL_Driver/Src/stm32n6xx_hal_dma_ex.c ****           (+) Use HAL_DMAEx_List_BuildNode() to build the DMA linked-list node according to the spe
 161:STM32Cube_FW_N6/Drivers/STM32N6xx_HAL_Driver/Src/stm32n6xx_hal_dma_ex.c ****               Build operation allow to convert the specified parameter in values known by the DMA c
 162:STM32Cube_FW_N6/Drivers/STM32N6xx_HAL_Driver/Src/stm32n6xx_hal_dma_ex.c ****               in memory.
 163:STM32Cube_FW_N6/Drivers/STM32N6xx_HAL_Driver/Src/stm32n6xx_hal_dma_ex.c ****               Placing DMA linked-list in SRAM must be done in accordance to product specification t
 164:STM32Cube_FW_N6/Drivers/STM32N6xx_HAL_Driver/Src/stm32n6xx_hal_dma_ex.c ****               link access port can access to the specified SRAM.
 165:STM32Cube_FW_N6/Drivers/STM32N6xx_HAL_Driver/Src/stm32n6xx_hal_dma_ex.c ****               (++) The DMA linked-list node parameter address should be 32bit aligned and should no
 166:STM32Cube_FW_N6/Drivers/STM32N6xx_HAL_Driver/Src/stm32n6xx_hal_dma_ex.c ****               addressable space.
 167:STM32Cube_FW_N6/Drivers/STM32N6xx_HAL_Driver/Src/stm32n6xx_hal_dma_ex.c **** 
 168:STM32Cube_FW_N6/Drivers/STM32N6xx_HAL_Driver/Src/stm32n6xx_hal_dma_ex.c ****           (+) Use HAL_DMAEx_List_GetNodeConfig() to get the specified configuration parameter on bu
 169:STM32Cube_FW_N6/Drivers/STM32N6xx_HAL_Driver/Src/stm32n6xx_hal_dma_ex.c ****               This API can be used when need to change few parameter to build new node.
 170:STM32Cube_FW_N6/Drivers/STM32N6xx_HAL_Driver/Src/stm32n6xx_hal_dma_ex.c **** 
 171:STM32Cube_FW_N6/Drivers/STM32N6xx_HAL_Driver/Src/stm32n6xx_hal_dma_ex.c ****     *** Inserting nodes to linked-list queue ***
 172:STM32Cube_FW_N6/Drivers/STM32N6xx_HAL_Driver/Src/stm32n6xx_hal_dma_ex.c ****     [..]
 173:STM32Cube_FW_N6/Drivers/STM32N6xx_HAL_Driver/Src/stm32n6xx_hal_dma_ex.c ****       In order to build a sequence of DMA transaction with different configuration, we need to inse
 174:STM32Cube_FW_N6/Drivers/STM32N6xx_HAL_Driver/Src/stm32n6xx_hal_dma_ex.c ****       linked-list queue (node present an elementary DMA transaction) in linked-list queue on any po
 175:STM32Cube_FW_N6/Drivers/STM32N6xx_HAL_Driver/Src/stm32n6xx_hal_dma_ex.c ****       full flexibility of ordering nodes or extend the sequence of queue transactions.
 176:STM32Cube_FW_N6/Drivers/STM32N6xx_HAL_Driver/Src/stm32n6xx_hal_dma_ex.c **** 
 177:STM32Cube_FW_N6/Drivers/STM32N6xx_HAL_Driver/Src/stm32n6xx_hal_dma_ex.c ****           (+) Use HAL_DMAEx_List_InsertNode() to insert new built node in any queue position of lin
 178:STM32Cube_FW_N6/Drivers/STM32N6xx_HAL_Driver/Src/stm32n6xx_hal_dma_ex.c ****               according to selecting previous node. When calling this API with previous node parame
 179:STM32Cube_FW_N6/Drivers/STM32N6xx_HAL_Driver/Src/stm32n6xx_hal_dma_ex.c ****               inserted node will be placed at the head of the linked-list queue.
 180:STM32Cube_FW_N6/Drivers/STM32N6xx_HAL_Driver/Src/stm32n6xx_hal_dma_ex.c ****               (++) This API must be used after HAL_DMAEx_List_BuildNode() otherwise an error will b
 181:STM32Cube_FW_N6/Drivers/STM32N6xx_HAL_Driver/Src/stm32n6xx_hal_dma_ex.c ****               (++) This API must be called for static queues format.
 182:STM32Cube_FW_N6/Drivers/STM32N6xx_HAL_Driver/Src/stm32n6xx_hal_dma_ex.c ****               (++) This API shall be avoided when adding new node at the head or the tail of queue 
 183:STM32Cube_FW_N6/Drivers/STM32N6xx_HAL_Driver/Src/stm32n6xx_hal_dma_ex.c ****                    footprint and performance : use HAL_DMAEx_List_InsertNode_Head() or HAL_DMAEx_Li
ARM GAS  /tmp/ccuUFTu8.s 			page 5


 184:STM32Cube_FW_N6/Drivers/STM32N6xx_HAL_Driver/Src/stm32n6xx_hal_dma_ex.c ****                    instead).
 185:STM32Cube_FW_N6/Drivers/STM32N6xx_HAL_Driver/Src/stm32n6xx_hal_dma_ex.c **** 
 186:STM32Cube_FW_N6/Drivers/STM32N6xx_HAL_Driver/Src/stm32n6xx_hal_dma_ex.c ****           (+) Use HAL_DMAEx_List_InsertNode_Head() to insert new built node at the head of linked-l
 187:STM32Cube_FW_N6/Drivers/STM32N6xx_HAL_Driver/Src/stm32n6xx_hal_dma_ex.c ****               node will not be overwritten but will be the second queue node.
 188:STM32Cube_FW_N6/Drivers/STM32N6xx_HAL_Driver/Src/stm32n6xx_hal_dma_ex.c ****               (++) This API must be used after HAL_DMAEx_List_BuildNode() otherwise an error will b
 189:STM32Cube_FW_N6/Drivers/STM32N6xx_HAL_Driver/Src/stm32n6xx_hal_dma_ex.c ****               (++) This API must be called for static queues format.
 190:STM32Cube_FW_N6/Drivers/STM32N6xx_HAL_Driver/Src/stm32n6xx_hal_dma_ex.c **** 
 191:STM32Cube_FW_N6/Drivers/STM32N6xx_HAL_Driver/Src/stm32n6xx_hal_dma_ex.c ****           (+) Use HAL_DMAEx_List_InsertNode_Tail() to insert new built node at the tail of linked-l
 192:STM32Cube_FW_N6/Drivers/STM32N6xx_HAL_Driver/Src/stm32n6xx_hal_dma_ex.c ****               node will not be overwritten but will be the penultimate queue node.
 193:STM32Cube_FW_N6/Drivers/STM32N6xx_HAL_Driver/Src/stm32n6xx_hal_dma_ex.c ****               (++) This API must be used after HAL_DMAEx_List_BuildNode() otherwise an error will b
 194:STM32Cube_FW_N6/Drivers/STM32N6xx_HAL_Driver/Src/stm32n6xx_hal_dma_ex.c ****               (++) This API must be called for static queues format.
 195:STM32Cube_FW_N6/Drivers/STM32N6xx_HAL_Driver/Src/stm32n6xx_hal_dma_ex.c **** 
 196:STM32Cube_FW_N6/Drivers/STM32N6xx_HAL_Driver/Src/stm32n6xx_hal_dma_ex.c ****     *** Removing nodes from linked-list queue ***
 197:STM32Cube_FW_N6/Drivers/STM32N6xx_HAL_Driver/Src/stm32n6xx_hal_dma_ex.c ****     [..]
 198:STM32Cube_FW_N6/Drivers/STM32N6xx_HAL_Driver/Src/stm32n6xx_hal_dma_ex.c ****       There is some cases when removing a node from linked-list queue is needed (need to remove an 
 199:STM32Cube_FW_N6/Drivers/STM32N6xx_HAL_Driver/Src/stm32n6xx_hal_dma_ex.c ****       transaction). Removing node allows to unlink a node from DMA linked-list queue (NOT DELETED),
 200:STM32Cube_FW_N6/Drivers/STM32N6xx_HAL_Driver/Src/stm32n6xx_hal_dma_ex.c ****       can be reused for another queue or to be added to the same queue without need to rebuild it i
 201:STM32Cube_FW_N6/Drivers/STM32N6xx_HAL_Driver/Src/stm32n6xx_hal_dma_ex.c **** 
 202:STM32Cube_FW_N6/Drivers/STM32N6xx_HAL_Driver/Src/stm32n6xx_hal_dma_ex.c ****           (+) Use HAL_DMAEx_List_RemoveNode() to remove any yet built and inserted node from linked
 203:STM32Cube_FW_N6/Drivers/STM32N6xx_HAL_Driver/Src/stm32n6xx_hal_dma_ex.c ****               to selected node.
 204:STM32Cube_FW_N6/Drivers/STM32N6xx_HAL_Driver/Src/stm32n6xx_hal_dma_ex.c ****               (++) This API must be called for static queues format.
 205:STM32Cube_FW_N6/Drivers/STM32N6xx_HAL_Driver/Src/stm32n6xx_hal_dma_ex.c ****               (++) This API shall be avoided when removing the head or the tail of linked-list queu
 206:STM32Cube_FW_N6/Drivers/STM32N6xx_HAL_Driver/Src/stm32n6xx_hal_dma_ex.c ****                    footprint and performance : use HAL_DMAEx_List_RemoveNode_Head() or HAL_DMAEx_Li
 207:STM32Cube_FW_N6/Drivers/STM32N6xx_HAL_Driver/Src/stm32n6xx_hal_dma_ex.c ****                    instead).
 208:STM32Cube_FW_N6/Drivers/STM32N6xx_HAL_Driver/Src/stm32n6xx_hal_dma_ex.c **** 
 209:STM32Cube_FW_N6/Drivers/STM32N6xx_HAL_Driver/Src/stm32n6xx_hal_dma_ex.c ****           (+) Use HAL_DMAEx_List_RemoveNode_Head() to remove the head node from linked-list queue.
 210:STM32Cube_FW_N6/Drivers/STM32N6xx_HAL_Driver/Src/stm32n6xx_hal_dma_ex.c ****               (++) This API must be called for static queues format.
 211:STM32Cube_FW_N6/Drivers/STM32N6xx_HAL_Driver/Src/stm32n6xx_hal_dma_ex.c **** 
 212:STM32Cube_FW_N6/Drivers/STM32N6xx_HAL_Driver/Src/stm32n6xx_hal_dma_ex.c ****           (+) Use HAL_DMAEx_List_RemoveNode_Tail() to remove the tail node from linked-list queue.
 213:STM32Cube_FW_N6/Drivers/STM32N6xx_HAL_Driver/Src/stm32n6xx_hal_dma_ex.c ****               (++) This API must be called for static queues format.
 214:STM32Cube_FW_N6/Drivers/STM32N6xx_HAL_Driver/Src/stm32n6xx_hal_dma_ex.c **** 
 215:STM32Cube_FW_N6/Drivers/STM32N6xx_HAL_Driver/Src/stm32n6xx_hal_dma_ex.c ****     *** Replacing nodes on linked-list queue ***
 216:STM32Cube_FW_N6/Drivers/STM32N6xx_HAL_Driver/Src/stm32n6xx_hal_dma_ex.c ****     [..]
 217:STM32Cube_FW_N6/Drivers/STM32N6xx_HAL_Driver/Src/stm32n6xx_hal_dma_ex.c ****       There is some cases when replacing a node from linked-list queue is needed (need to replace a
 218:STM32Cube_FW_N6/Drivers/STM32N6xx_HAL_Driver/Src/stm32n6xx_hal_dma_ex.c ****       transfer, by another one that have not the same configuration). Replacing node allows to unli
 219:STM32Cube_FW_N6/Drivers/STM32N6xx_HAL_Driver/Src/stm32n6xx_hal_dma_ex.c ****       replaced from DMA linked-list queue (NOT DELETED) and link instead a new node. So the replace
 220:STM32Cube_FW_N6/Drivers/STM32N6xx_HAL_Driver/Src/stm32n6xx_hal_dma_ex.c ****       for another queue or to be added to the same queue without need to rebuild it in next step an
 221:STM32Cube_FW_N6/Drivers/STM32N6xx_HAL_Driver/Src/stm32n6xx_hal_dma_ex.c ****       be reused except when remove it or replaced in next step.
 222:STM32Cube_FW_N6/Drivers/STM32N6xx_HAL_Driver/Src/stm32n6xx_hal_dma_ex.c **** 
 223:STM32Cube_FW_N6/Drivers/STM32N6xx_HAL_Driver/Src/stm32n6xx_hal_dma_ex.c ****           (+) Use HAL_DMAEx_List_ReplaceNode() to replace any yet built and inserted node on linked
 224:STM32Cube_FW_N6/Drivers/STM32N6xx_HAL_Driver/Src/stm32n6xx_hal_dma_ex.c ****               to selected node.
 225:STM32Cube_FW_N6/Drivers/STM32N6xx_HAL_Driver/Src/stm32n6xx_hal_dma_ex.c ****               (++) This API must be called for static queues format.
 226:STM32Cube_FW_N6/Drivers/STM32N6xx_HAL_Driver/Src/stm32n6xx_hal_dma_ex.c ****               (++) This API shall be avoided when replacing the head or the tail linked-list queue 
 227:STM32Cube_FW_N6/Drivers/STM32N6xx_HAL_Driver/Src/stm32n6xx_hal_dma_ex.c ****                    footprint and performance : use HAL_DMAEx_List_ReplaceNode_Head() or
 228:STM32Cube_FW_N6/Drivers/STM32N6xx_HAL_Driver/Src/stm32n6xx_hal_dma_ex.c ****                    HAL_DMAEx_List_ReplaceNode_Tail() instead).
 229:STM32Cube_FW_N6/Drivers/STM32N6xx_HAL_Driver/Src/stm32n6xx_hal_dma_ex.c **** 
 230:STM32Cube_FW_N6/Drivers/STM32N6xx_HAL_Driver/Src/stm32n6xx_hal_dma_ex.c ****           (+) Use HAL_DMAEx_List_ReplaceNode_Head() to replace the head node of linked-list queue.
 231:STM32Cube_FW_N6/Drivers/STM32N6xx_HAL_Driver/Src/stm32n6xx_hal_dma_ex.c ****               (++) This API must be called for static queues format.
 232:STM32Cube_FW_N6/Drivers/STM32N6xx_HAL_Driver/Src/stm32n6xx_hal_dma_ex.c **** 
 233:STM32Cube_FW_N6/Drivers/STM32N6xx_HAL_Driver/Src/stm32n6xx_hal_dma_ex.c ****           (+) Use HAL_DMAEx_List_ReplaceNode_Tail() to replace the tail node from linked-list queue
 234:STM32Cube_FW_N6/Drivers/STM32N6xx_HAL_Driver/Src/stm32n6xx_hal_dma_ex.c ****               (++) This API must be called for static queues format.
 235:STM32Cube_FW_N6/Drivers/STM32N6xx_HAL_Driver/Src/stm32n6xx_hal_dma_ex.c **** 
 236:STM32Cube_FW_N6/Drivers/STM32N6xx_HAL_Driver/Src/stm32n6xx_hal_dma_ex.c ****     *** Reset linked-list queue ***
 237:STM32Cube_FW_N6/Drivers/STM32N6xx_HAL_Driver/Src/stm32n6xx_hal_dma_ex.c ****     [..]
 238:STM32Cube_FW_N6/Drivers/STM32N6xx_HAL_Driver/Src/stm32n6xx_hal_dma_ex.c ****       After finishing using a linked-list queue, it can be reset and cleared and it's content nodes
 239:STM32Cube_FW_N6/Drivers/STM32N6xx_HAL_Driver/Src/stm32n6xx_hal_dma_ex.c ****       unlinked (NOT DELETED) and reused on another queue.
 240:STM32Cube_FW_N6/Drivers/STM32N6xx_HAL_Driver/Src/stm32n6xx_hal_dma_ex.c **** 
ARM GAS  /tmp/ccuUFTu8.s 			page 6


 241:STM32Cube_FW_N6/Drivers/STM32N6xx_HAL_Driver/Src/stm32n6xx_hal_dma_ex.c ****           (+) Use HAL_DMAEx_List_ResetQ() to reset a linked-list queue and unlink all it's content 
 242:STM32Cube_FW_N6/Drivers/STM32N6xx_HAL_Driver/Src/stm32n6xx_hal_dma_ex.c ****               (++) This API must be called for ready state queues.
 243:STM32Cube_FW_N6/Drivers/STM32N6xx_HAL_Driver/Src/stm32n6xx_hal_dma_ex.c ****               (++) This API must be called for static queues format.
 244:STM32Cube_FW_N6/Drivers/STM32N6xx_HAL_Driver/Src/stm32n6xx_hal_dma_ex.c **** 
 245:STM32Cube_FW_N6/Drivers/STM32N6xx_HAL_Driver/Src/stm32n6xx_hal_dma_ex.c ****     *** Inserting linked-list queue ***
 246:STM32Cube_FW_N6/Drivers/STM32N6xx_HAL_Driver/Src/stm32n6xx_hal_dma_ex.c ****     [..]
 247:STM32Cube_FW_N6/Drivers/STM32N6xx_HAL_Driver/Src/stm32n6xx_hal_dma_ex.c ****       To ensure the flexibility of building linked-list queue by their targeted functionalities (Ex
 248:STM32Cube_FW_N6/Drivers/STM32N6xx_HAL_Driver/Src/stm32n6xx_hal_dma_ex.c ****       action 1 and 5 nodes for action 2), it is possible to build a queue for action 1 that contain
 249:STM32Cube_FW_N6/Drivers/STM32N6xx_HAL_Driver/Src/stm32n6xx_hal_dma_ex.c ****       a queue for action 2 that contains action 2 nodes then concatenating the 2 queues. So, there 
 250:STM32Cube_FW_N6/Drivers/STM32N6xx_HAL_Driver/Src/stm32n6xx_hal_dma_ex.c ****       the management of linked-list at queue granularity is needed.
 251:STM32Cube_FW_N6/Drivers/STM32N6xx_HAL_Driver/Src/stm32n6xx_hal_dma_ex.c **** 
 252:STM32Cube_FW_N6/Drivers/STM32N6xx_HAL_Driver/Src/stm32n6xx_hal_dma_ex.c ****           (+) Use HAL_DMAEx_List_InsertQ() to insert source linked-list queue to a destination link
 253:STM32Cube_FW_N6/Drivers/STM32N6xx_HAL_Driver/Src/stm32n6xx_hal_dma_ex.c ****               according to selecting previous node.
 254:STM32Cube_FW_N6/Drivers/STM32N6xx_HAL_Driver/Src/stm32n6xx_hal_dma_ex.c ****               (++) This API must be called for static queues format.
 255:STM32Cube_FW_N6/Drivers/STM32N6xx_HAL_Driver/Src/stm32n6xx_hal_dma_ex.c ****               (++) This API shall be avoided when inserting source linked-list queue at the head or
 256:STM32Cube_FW_N6/Drivers/STM32N6xx_HAL_Driver/Src/stm32n6xx_hal_dma_ex.c ****                    destination queue (overhead of footprint and performance : use HAL_DMAEx_List_In
 257:STM32Cube_FW_N6/Drivers/STM32N6xx_HAL_Driver/Src/stm32n6xx_hal_dma_ex.c ****                    HAL_DMAEx_List_InsertQ_Tail() instead).
 258:STM32Cube_FW_N6/Drivers/STM32N6xx_HAL_Driver/Src/stm32n6xx_hal_dma_ex.c **** 
 259:STM32Cube_FW_N6/Drivers/STM32N6xx_HAL_Driver/Src/stm32n6xx_hal_dma_ex.c ****           (+) Use HAL_DMAEx_List_InsertQ_Head() to insert a source linked-list queue at the head of
 260:STM32Cube_FW_N6/Drivers/STM32N6xx_HAL_Driver/Src/stm32n6xx_hal_dma_ex.c ****               destination queue.
 261:STM32Cube_FW_N6/Drivers/STM32N6xx_HAL_Driver/Src/stm32n6xx_hal_dma_ex.c ****               (++) This API must be called for static queues format.
 262:STM32Cube_FW_N6/Drivers/STM32N6xx_HAL_Driver/Src/stm32n6xx_hal_dma_ex.c **** 
 263:STM32Cube_FW_N6/Drivers/STM32N6xx_HAL_Driver/Src/stm32n6xx_hal_dma_ex.c ****           (+) Use HAL_DMAEx_List_InsertQ_Tail() to insert a source linked-list queue at the tail of
 264:STM32Cube_FW_N6/Drivers/STM32N6xx_HAL_Driver/Src/stm32n6xx_hal_dma_ex.c ****               destination queue.
 265:STM32Cube_FW_N6/Drivers/STM32N6xx_HAL_Driver/Src/stm32n6xx_hal_dma_ex.c ****               (++) This API must be called for static queues format.
 266:STM32Cube_FW_N6/Drivers/STM32N6xx_HAL_Driver/Src/stm32n6xx_hal_dma_ex.c **** 
 267:STM32Cube_FW_N6/Drivers/STM32N6xx_HAL_Driver/Src/stm32n6xx_hal_dma_ex.c ****     *** Circularizing linked-list queue ***
 268:STM32Cube_FW_N6/Drivers/STM32N6xx_HAL_Driver/Src/stm32n6xx_hal_dma_ex.c ****     [..]
 269:STM32Cube_FW_N6/Drivers/STM32N6xx_HAL_Driver/Src/stm32n6xx_hal_dma_ex.c ****       In order to perform tasks in infinite loop with DMA channel, it is possible to circularize th
 270:STM32Cube_FW_N6/Drivers/STM32N6xx_HAL_Driver/Src/stm32n6xx_hal_dma_ex.c ****       Circularizing queue allows to link last linked-list queue node to any previous node of the sa
 271:STM32Cube_FW_N6/Drivers/STM32N6xx_HAL_Driver/Src/stm32n6xx_hal_dma_ex.c ****       is named first circular queue). When the first circular node is the head node, all linked-lis
 272:STM32Cube_FW_N6/Drivers/STM32N6xx_HAL_Driver/Src/stm32n6xx_hal_dma_ex.c ****       executed in infinite loop. When the first circular node is not the head nodes, all precedent 
 273:STM32Cube_FW_N6/Drivers/STM32N6xx_HAL_Driver/Src/stm32n6xx_hal_dma_ex.c ****       once and all remaining nodes are executed in an infinite loop.
 274:STM32Cube_FW_N6/Drivers/STM32N6xx_HAL_Driver/Src/stm32n6xx_hal_dma_ex.c **** 
 275:STM32Cube_FW_N6/Drivers/STM32N6xx_HAL_Driver/Src/stm32n6xx_hal_dma_ex.c ****           (+) Use HAL_DMAEx_List_SetCircularModeConfig() to circularize the linked-list queue accor
 276:STM32Cube_FW_N6/Drivers/STM32N6xx_HAL_Driver/Src/stm32n6xx_hal_dma_ex.c ****               circular node selected.
 277:STM32Cube_FW_N6/Drivers/STM32N6xx_HAL_Driver/Src/stm32n6xx_hal_dma_ex.c ****               (++) This API must be called for static queues format.
 278:STM32Cube_FW_N6/Drivers/STM32N6xx_HAL_Driver/Src/stm32n6xx_hal_dma_ex.c ****               (++) This API shall be avoided when first circular node is the head linked-list queue
 279:STM32Cube_FW_N6/Drivers/STM32N6xx_HAL_Driver/Src/stm32n6xx_hal_dma_ex.c ****                    footprint and performance : use HAL_DMAEx_List_SetCircularMode() instead).
 280:STM32Cube_FW_N6/Drivers/STM32N6xx_HAL_Driver/Src/stm32n6xx_hal_dma_ex.c **** 
 281:STM32Cube_FW_N6/Drivers/STM32N6xx_HAL_Driver/Src/stm32n6xx_hal_dma_ex.c ****           (+) Use HAL_DMAEx_List_SetCircularMode() to circularize the linked-list queue with linkin
 282:STM32Cube_FW_N6/Drivers/STM32N6xx_HAL_Driver/Src/stm32n6xx_hal_dma_ex.c ****               with first queue node.
 283:STM32Cube_FW_N6/Drivers/STM32N6xx_HAL_Driver/Src/stm32n6xx_hal_dma_ex.c ****               (++) This API must be called for static queues format.
 284:STM32Cube_FW_N6/Drivers/STM32N6xx_HAL_Driver/Src/stm32n6xx_hal_dma_ex.c **** 
 285:STM32Cube_FW_N6/Drivers/STM32N6xx_HAL_Driver/Src/stm32n6xx_hal_dma_ex.c ****           (+) Use HAL_DMAEx_List_ClearCircularMode() to clear any linked-list queue circular config
 286:STM32Cube_FW_N6/Drivers/STM32N6xx_HAL_Driver/Src/stm32n6xx_hal_dma_ex.c ****               (++) This API must be called for static queues format.
 287:STM32Cube_FW_N6/Drivers/STM32N6xx_HAL_Driver/Src/stm32n6xx_hal_dma_ex.c **** 
 288:STM32Cube_FW_N6/Drivers/STM32N6xx_HAL_Driver/Src/stm32n6xx_hal_dma_ex.c **** 
 289:STM32Cube_FW_N6/Drivers/STM32N6xx_HAL_Driver/Src/stm32n6xx_hal_dma_ex.c ****     *** Converting linked-list queue ***
 290:STM32Cube_FW_N6/Drivers/STM32N6xx_HAL_Driver/Src/stm32n6xx_hal_dma_ex.c ****     [..]
 291:STM32Cube_FW_N6/Drivers/STM32N6xx_HAL_Driver/Src/stm32n6xx_hal_dma_ex.c ****       To have the best DMA channel linked-list queue execution, it is recommended to convert yet bu
 292:STM32Cube_FW_N6/Drivers/STM32N6xx_HAL_Driver/Src/stm32n6xx_hal_dma_ex.c ****       to dynamic format (Static is the default format). When linked-list queue becomes dynamic, all
 293:STM32Cube_FW_N6/Drivers/STM32N6xx_HAL_Driver/Src/stm32n6xx_hal_dma_ex.c ****       optimized and only changed parameters will be updated between nodes. So, the DMA will fetch o
 294:STM32Cube_FW_N6/Drivers/STM32N6xx_HAL_Driver/Src/stm32n6xx_hal_dma_ex.c ****       parameters instead of the whole node.
 295:STM32Cube_FW_N6/Drivers/STM32N6xx_HAL_Driver/Src/stm32n6xx_hal_dma_ex.c **** 
 296:STM32Cube_FW_N6/Drivers/STM32N6xx_HAL_Driver/Src/stm32n6xx_hal_dma_ex.c ****           (+) Use HAL_DMAEx_List_ConvertQToDynamic() to convert a linked-list queue to dynamic form
 297:STM32Cube_FW_N6/Drivers/STM32N6xx_HAL_Driver/Src/stm32n6xx_hal_dma_ex.c ****               (++) This API must be called for ready state queues.
ARM GAS  /tmp/ccuUFTu8.s 			page 7


 298:STM32Cube_FW_N6/Drivers/STM32N6xx_HAL_Driver/Src/stm32n6xx_hal_dma_ex.c ****               (++) This API must be called for static queues format.
 299:STM32Cube_FW_N6/Drivers/STM32N6xx_HAL_Driver/Src/stm32n6xx_hal_dma_ex.c ****               (++) This API must be called as the last API before starting the DMA channel in linke
 300:STM32Cube_FW_N6/Drivers/STM32N6xx_HAL_Driver/Src/stm32n6xx_hal_dma_ex.c **** 
 301:STM32Cube_FW_N6/Drivers/STM32N6xx_HAL_Driver/Src/stm32n6xx_hal_dma_ex.c ****           (+) Use HAL_DMAEx_List_ConvertQToStatic() to convert a linked-list queue to static format
 302:STM32Cube_FW_N6/Drivers/STM32N6xx_HAL_Driver/Src/stm32n6xx_hal_dma_ex.c ****               (++) This API must be called for ready state queues.
 303:STM32Cube_FW_N6/Drivers/STM32N6xx_HAL_Driver/Src/stm32n6xx_hal_dma_ex.c ****               (++) This API must be called for dynamic queues format.
 304:STM32Cube_FW_N6/Drivers/STM32N6xx_HAL_Driver/Src/stm32n6xx_hal_dma_ex.c ****               (++) This API must be called as the first API after the full execution of linked-list
 305:STM32Cube_FW_N6/Drivers/STM32N6xx_HAL_Driver/Src/stm32n6xx_hal_dma_ex.c ****                    execution mode is linear (not circular) if it is dynamic and a linked-list queue
 306:STM32Cube_FW_N6/Drivers/STM32N6xx_HAL_Driver/Src/stm32n6xx_hal_dma_ex.c ****                    needed.
 307:STM32Cube_FW_N6/Drivers/STM32N6xx_HAL_Driver/Src/stm32n6xx_hal_dma_ex.c ****               (++) This API must be called as the first API after the aborting the execution of the
 308:STM32Cube_FW_N6/Drivers/STM32N6xx_HAL_Driver/Src/stm32n6xx_hal_dma_ex.c ****                    queue when the execution mode is linear (not circular) if it is dynamic and a li
 309:STM32Cube_FW_N6/Drivers/STM32N6xx_HAL_Driver/Src/stm32n6xx_hal_dma_ex.c ****                    management is needed.
 310:STM32Cube_FW_N6/Drivers/STM32N6xx_HAL_Driver/Src/stm32n6xx_hal_dma_ex.c **** 
 311:STM32Cube_FW_N6/Drivers/STM32N6xx_HAL_Driver/Src/stm32n6xx_hal_dma_ex.c ****     [..]
 312:STM32Cube_FW_N6/Drivers/STM32N6xx_HAL_Driver/Src/stm32n6xx_hal_dma_ex.c ****       When converting a circular queue to dynamic format and when the first circular node is the la
 313:STM32Cube_FW_N6/Drivers/STM32N6xx_HAL_Driver/Src/stm32n6xx_hal_dma_ex.c ****       recommended to duplicate the last circular node in order to ensure the full optimization when
 314:STM32Cube_FW_N6/Drivers/STM32N6xx_HAL_Driver/Src/stm32n6xx_hal_dma_ex.c ****       HAL_DMAEx_List_ConvertQToDynamic() API. In this case, updated information are only addresses 
 315:STM32Cube_FW_N6/Drivers/STM32N6xx_HAL_Driver/Src/stm32n6xx_hal_dma_ex.c ****       4 words of update for linear nodes per node execution and 6 words update for 2 dimensions add
 316:STM32Cube_FW_N6/Drivers/STM32N6xx_HAL_Driver/Src/stm32n6xx_hal_dma_ex.c ****       node execution.
 317:STM32Cube_FW_N6/Drivers/STM32N6xx_HAL_Driver/Src/stm32n6xx_hal_dma_ex.c **** 
 318:STM32Cube_FW_N6/Drivers/STM32N6xx_HAL_Driver/Src/stm32n6xx_hal_dma_ex.c **** 
 319:STM32Cube_FW_N6/Drivers/STM32N6xx_HAL_Driver/Src/stm32n6xx_hal_dma_ex.c ****     *** Linking linked-list queue to DMA channel ***
 320:STM32Cube_FW_N6/Drivers/STM32N6xx_HAL_Driver/Src/stm32n6xx_hal_dma_ex.c ****     [..]
 321:STM32Cube_FW_N6/Drivers/STM32N6xx_HAL_Driver/Src/stm32n6xx_hal_dma_ex.c ****       In order to have the possibility of the creation of an infinity queues (limited by available 
 322:STM32Cube_FW_N6/Drivers/STM32N6xx_HAL_Driver/Src/stm32n6xx_hal_dma_ex.c ****       building of linked-list queue is fully independent from DMA channels. It is possible to build
 323:STM32Cube_FW_N6/Drivers/STM32N6xx_HAL_Driver/Src/stm32n6xx_hal_dma_ex.c ****       their size is less then available memory at startup time, then linking each time when needed 
 324:STM32Cube_FW_N6/Drivers/STM32N6xx_HAL_Driver/Src/stm32n6xx_hal_dma_ex.c ****       to an idle DMA channel.
 325:STM32Cube_FW_N6/Drivers/STM32N6xx_HAL_Driver/Src/stm32n6xx_hal_dma_ex.c **** 
 326:STM32Cube_FW_N6/Drivers/STM32N6xx_HAL_Driver/Src/stm32n6xx_hal_dma_ex.c ****           (+) Use HAL_DMAEx_List_LinkQ() to link a ready linked-list queue to ready DMA channel.
 327:STM32Cube_FW_N6/Drivers/STM32N6xx_HAL_Driver/Src/stm32n6xx_hal_dma_ex.c ****               (++) This API supports the two format of linked-list (Static and dynamic).
 328:STM32Cube_FW_N6/Drivers/STM32N6xx_HAL_Driver/Src/stm32n6xx_hal_dma_ex.c ****               (++) This API must be called for ready state queues and DMA channels.
 329:STM32Cube_FW_N6/Drivers/STM32N6xx_HAL_Driver/Src/stm32n6xx_hal_dma_ex.c **** 
 330:STM32Cube_FW_N6/Drivers/STM32N6xx_HAL_Driver/Src/stm32n6xx_hal_dma_ex.c ****           (+) Use HAL_DMAEx_List_ConvertQToStatic() to unlink a ready linked-list queue to ready DM
 331:STM32Cube_FW_N6/Drivers/STM32N6xx_HAL_Driver/Src/stm32n6xx_hal_dma_ex.c ****               (++) This API supports the two format of linked-list (Static and dynamic).
 332:STM32Cube_FW_N6/Drivers/STM32N6xx_HAL_Driver/Src/stm32n6xx_hal_dma_ex.c ****               (++) This API must be called for ready state queues and DMA channels.
 333:STM32Cube_FW_N6/Drivers/STM32N6xx_HAL_Driver/Src/stm32n6xx_hal_dma_ex.c **** 
 334:STM32Cube_FW_N6/Drivers/STM32N6xx_HAL_Driver/Src/stm32n6xx_hal_dma_ex.c ****     *** User sequence ***
 335:STM32Cube_FW_N6/Drivers/STM32N6xx_HAL_Driver/Src/stm32n6xx_hal_dma_ex.c ****     [..]
 336:STM32Cube_FW_N6/Drivers/STM32N6xx_HAL_Driver/Src/stm32n6xx_hal_dma_ex.c ****       To use cleanly the DMA linked-list library, ensure to apply the following call sequences :
 337:STM32Cube_FW_N6/Drivers/STM32N6xx_HAL_Driver/Src/stm32n6xx_hal_dma_ex.c **** 
 338:STM32Cube_FW_N6/Drivers/STM32N6xx_HAL_Driver/Src/stm32n6xx_hal_dma_ex.c ****           (+) Linear transfer :
 339:STM32Cube_FW_N6/Drivers/STM32N6xx_HAL_Driver/Src/stm32n6xx_hal_dma_ex.c ****               Linked-list queue building
 340:STM32Cube_FW_N6/Drivers/STM32N6xx_HAL_Driver/Src/stm32n6xx_hal_dma_ex.c ****               (++) HAL_DMAEx_List_BuildNode()
 341:STM32Cube_FW_N6/Drivers/STM32N6xx_HAL_Driver/Src/stm32n6xx_hal_dma_ex.c ****               (++) HAL_DMAEx_List_InsertNode_Tail()
 342:STM32Cube_FW_N6/Drivers/STM32N6xx_HAL_Driver/Src/stm32n6xx_hal_dma_ex.c ****                               .
 343:STM32Cube_FW_N6/Drivers/STM32N6xx_HAL_Driver/Src/stm32n6xx_hal_dma_ex.c ****                               .
 344:STM32Cube_FW_N6/Drivers/STM32N6xx_HAL_Driver/Src/stm32n6xx_hal_dma_ex.c ****                               .
 345:STM32Cube_FW_N6/Drivers/STM32N6xx_HAL_Driver/Src/stm32n6xx_hal_dma_ex.c ****               (++) HAL_DMAEx_List_BuildNode()
 346:STM32Cube_FW_N6/Drivers/STM32N6xx_HAL_Driver/Src/stm32n6xx_hal_dma_ex.c ****               (++) HAL_DMAEx_List_InsertNode_Tail()
 347:STM32Cube_FW_N6/Drivers/STM32N6xx_HAL_Driver/Src/stm32n6xx_hal_dma_ex.c ****               (++) HAL_DMAEx_List_ConvertQToDynamic()
 348:STM32Cube_FW_N6/Drivers/STM32N6xx_HAL_Driver/Src/stm32n6xx_hal_dma_ex.c ****               Linked-list queue execution
 349:STM32Cube_FW_N6/Drivers/STM32N6xx_HAL_Driver/Src/stm32n6xx_hal_dma_ex.c ****               (++) HAL_DMAEx_List_Init()
 350:STM32Cube_FW_N6/Drivers/STM32N6xx_HAL_Driver/Src/stm32n6xx_hal_dma_ex.c ****               (++) HAL_DMAEx_List_LinkQ()
 351:STM32Cube_FW_N6/Drivers/STM32N6xx_HAL_Driver/Src/stm32n6xx_hal_dma_ex.c ****               (++) HAL_DMAEx_List_Start() / HAL_DMAEx_List_Start_IT()
 352:STM32Cube_FW_N6/Drivers/STM32N6xx_HAL_Driver/Src/stm32n6xx_hal_dma_ex.c ****               (++) HAL_DMAEx_List_UnLinkQ()
 353:STM32Cube_FW_N6/Drivers/STM32N6xx_HAL_Driver/Src/stm32n6xx_hal_dma_ex.c ****               (++) HAL_DMAEx_List_DeInit()
 354:STM32Cube_FW_N6/Drivers/STM32N6xx_HAL_Driver/Src/stm32n6xx_hal_dma_ex.c **** 
ARM GAS  /tmp/ccuUFTu8.s 			page 8


 355:STM32Cube_FW_N6/Drivers/STM32N6xx_HAL_Driver/Src/stm32n6xx_hal_dma_ex.c ****           (+) Circular transfer :
 356:STM32Cube_FW_N6/Drivers/STM32N6xx_HAL_Driver/Src/stm32n6xx_hal_dma_ex.c ****               Linked-list queue building
 357:STM32Cube_FW_N6/Drivers/STM32N6xx_HAL_Driver/Src/stm32n6xx_hal_dma_ex.c ****               (++) HAL_DMAEx_List_BuildNode()
 358:STM32Cube_FW_N6/Drivers/STM32N6xx_HAL_Driver/Src/stm32n6xx_hal_dma_ex.c ****               (++) HAL_DMAEx_List_InsertNode_Tail()
 359:STM32Cube_FW_N6/Drivers/STM32N6xx_HAL_Driver/Src/stm32n6xx_hal_dma_ex.c ****                               .
 360:STM32Cube_FW_N6/Drivers/STM32N6xx_HAL_Driver/Src/stm32n6xx_hal_dma_ex.c ****                               .
 361:STM32Cube_FW_N6/Drivers/STM32N6xx_HAL_Driver/Src/stm32n6xx_hal_dma_ex.c ****                               .
 362:STM32Cube_FW_N6/Drivers/STM32N6xx_HAL_Driver/Src/stm32n6xx_hal_dma_ex.c ****               (++) HAL_DMAEx_List_BuildNode()
 363:STM32Cube_FW_N6/Drivers/STM32N6xx_HAL_Driver/Src/stm32n6xx_hal_dma_ex.c ****               (++) HAL_DMAEx_List_InsertNode_Tail()
 364:STM32Cube_FW_N6/Drivers/STM32N6xx_HAL_Driver/Src/stm32n6xx_hal_dma_ex.c ****               (++) HAL_DMAEx_List_SetCircularModeConfig() / HAL_DMAEx_List_SetCircularMode()
 365:STM32Cube_FW_N6/Drivers/STM32N6xx_HAL_Driver/Src/stm32n6xx_hal_dma_ex.c ****               (++) HAL_DMAEx_List_ConvertQToDynamic()
 366:STM32Cube_FW_N6/Drivers/STM32N6xx_HAL_Driver/Src/stm32n6xx_hal_dma_ex.c ****               Linked-list queue execution
 367:STM32Cube_FW_N6/Drivers/STM32N6xx_HAL_Driver/Src/stm32n6xx_hal_dma_ex.c ****               (++) HAL_DMAEx_List_Init()
 368:STM32Cube_FW_N6/Drivers/STM32N6xx_HAL_Driver/Src/stm32n6xx_hal_dma_ex.c ****               (++) HAL_DMAEx_List_LinkQ()
 369:STM32Cube_FW_N6/Drivers/STM32N6xx_HAL_Driver/Src/stm32n6xx_hal_dma_ex.c ****               (++) HAL_DMAEx_List_Start() / HAL_DMAEx_List_Start_IT()
 370:STM32Cube_FW_N6/Drivers/STM32N6xx_HAL_Driver/Src/stm32n6xx_hal_dma_ex.c ****               (++) HAL_DMA_Abort() / HAL_DMA_Abort_IT()
 371:STM32Cube_FW_N6/Drivers/STM32N6xx_HAL_Driver/Src/stm32n6xx_hal_dma_ex.c ****               (++) HAL_DMAEx_List_UnLinkQ()
 372:STM32Cube_FW_N6/Drivers/STM32N6xx_HAL_Driver/Src/stm32n6xx_hal_dma_ex.c ****               (++) HAL_DMAEx_List_DeInit()
 373:STM32Cube_FW_N6/Drivers/STM32N6xx_HAL_Driver/Src/stm32n6xx_hal_dma_ex.c **** 
 374:STM32Cube_FW_N6/Drivers/STM32N6xx_HAL_Driver/Src/stm32n6xx_hal_dma_ex.c **** 
 375:STM32Cube_FW_N6/Drivers/STM32N6xx_HAL_Driver/Src/stm32n6xx_hal_dma_ex.c ****     *** Data Handling ***
 376:STM32Cube_FW_N6/Drivers/STM32N6xx_HAL_Driver/Src/stm32n6xx_hal_dma_ex.c ****     =====================
 377:STM32Cube_FW_N6/Drivers/STM32N6xx_HAL_Driver/Src/stm32n6xx_hal_dma_ex.c ****     [..]
 378:STM32Cube_FW_N6/Drivers/STM32N6xx_HAL_Driver/Src/stm32n6xx_hal_dma_ex.c ****       In order to avoid some CPU data processing in several cases, the DMA channel provides some fe
 379:STM32Cube_FW_N6/Drivers/STM32N6xx_HAL_Driver/Src/stm32n6xx_hal_dma_ex.c ****       FIFO capabilities titled data handling.
 380:STM32Cube_FW_N6/Drivers/STM32N6xx_HAL_Driver/Src/stm32n6xx_hal_dma_ex.c ****                 (++) Padding pattern
 381:STM32Cube_FW_N6/Drivers/STM32N6xx_HAL_Driver/Src/stm32n6xx_hal_dma_ex.c ****                      Padding selected pattern (zero padding or sign extension) when the source data
 382:STM32Cube_FW_N6/Drivers/STM32N6xx_HAL_Driver/Src/stm32n6xx_hal_dma_ex.c ****                      than the destination data width at single level.
 383:STM32Cube_FW_N6/Drivers/STM32N6xx_HAL_Driver/Src/stm32n6xx_hal_dma_ex.c ****                      Zero padding       (Source : 0xABAB ------> Destination : 0xABAB0000)
 384:STM32Cube_FW_N6/Drivers/STM32N6xx_HAL_Driver/Src/stm32n6xx_hal_dma_ex.c ****                      Sign bit extension (Source : 0x0ABA ------> Destination : 0x00000ABA)
 385:STM32Cube_FW_N6/Drivers/STM32N6xx_HAL_Driver/Src/stm32n6xx_hal_dma_ex.c ****                                         (Source : 0xFABA ------> Destination : 0xFFFFFABA)
 386:STM32Cube_FW_N6/Drivers/STM32N6xx_HAL_Driver/Src/stm32n6xx_hal_dma_ex.c ****                 (++) Truncation :
 387:STM32Cube_FW_N6/Drivers/STM32N6xx_HAL_Driver/Src/stm32n6xx_hal_dma_ex.c ****                      Truncate section from the source data single when the source data width is big
 388:STM32Cube_FW_N6/Drivers/STM32N6xx_HAL_Driver/Src/stm32n6xx_hal_dma_ex.c ****                      destination data width.
 389:STM32Cube_FW_N6/Drivers/STM32N6xx_HAL_Driver/Src/stm32n6xx_hal_dma_ex.c ****                      Left truncation  (Source : 0xABABCDCD ------> Destination : 0xCDCD)
 390:STM32Cube_FW_N6/Drivers/STM32N6xx_HAL_Driver/Src/stm32n6xx_hal_dma_ex.c ****                      Right truncation (Source : 0xABABCDCD ------> Destination : 0xABAB)
 391:STM32Cube_FW_N6/Drivers/STM32N6xx_HAL_Driver/Src/stm32n6xx_hal_dma_ex.c ****                 (++) Pack/Unpack :
 392:STM32Cube_FW_N6/Drivers/STM32N6xx_HAL_Driver/Src/stm32n6xx_hal_dma_ex.c ****                      Pack a set of data when source data width is smaller than the destination data
 393:STM32Cube_FW_N6/Drivers/STM32N6xx_HAL_Driver/Src/stm32n6xx_hal_dma_ex.c ****                      Unpack a set of data when source data width is bigger than the destination dat
 394:STM32Cube_FW_N6/Drivers/STM32N6xx_HAL_Driver/Src/stm32n6xx_hal_dma_ex.c ****                      Pack   (Source : 0xAB, 0xCD ------> Destination : 0xABCD)
 395:STM32Cube_FW_N6/Drivers/STM32N6xx_HAL_Driver/Src/stm32n6xx_hal_dma_ex.c ****                      UnPack (Source : 0xABCD     ------> Destination : 0xAB, 0xCD)
 396:STM32Cube_FW_N6/Drivers/STM32N6xx_HAL_Driver/Src/stm32n6xx_hal_dma_ex.c ****                 (++) Exchange :
 397:STM32Cube_FW_N6/Drivers/STM32N6xx_HAL_Driver/Src/stm32n6xx_hal_dma_ex.c ****                      Exchange data at byte and half-word on the destination and at byte level on th
 398:STM32Cube_FW_N6/Drivers/STM32N6xx_HAL_Driver/Src/stm32n6xx_hal_dma_ex.c ****                      Considering source and destination are both word type. Exchange operation can 
 399:STM32Cube_FW_N6/Drivers/STM32N6xx_HAL_Driver/Src/stm32n6xx_hal_dma_ex.c ****                      In examples below, one exchange setting is enabled at a time.
 400:STM32Cube_FW_N6/Drivers/STM32N6xx_HAL_Driver/Src/stm32n6xx_hal_dma_ex.c ****                      Source byte exchange only (Source : 0xAB12CD34 ------> Destination : 0xABCD123
 401:STM32Cube_FW_N6/Drivers/STM32N6xx_HAL_Driver/Src/stm32n6xx_hal_dma_ex.c ****                      Destination byte exchange only (Source : 0xAB12CD34 ------> Destination : 0x12
 402:STM32Cube_FW_N6/Drivers/STM32N6xx_HAL_Driver/Src/stm32n6xx_hal_dma_ex.c ****                      Destination half-word exchange only (Source : 0xAB12CD34 ------> Destination :
 403:STM32Cube_FW_N6/Drivers/STM32N6xx_HAL_Driver/Src/stm32n6xx_hal_dma_ex.c ****                      In addition, in case of double-word, Exchange data at word level on the destin
 404:STM32Cube_FW_N6/Drivers/STM32N6xx_HAL_Driver/Src/stm32n6xx_hal_dma_ex.c ****                      available.
 405:STM32Cube_FW_N6/Drivers/STM32N6xx_HAL_Driver/Src/stm32n6xx_hal_dma_ex.c ****                      Considering source and destination are both double-word type.
 406:STM32Cube_FW_N6/Drivers/STM32N6xx_HAL_Driver/Src/stm32n6xx_hal_dma_ex.c ****                      word exchange only (Source : 0xAB12CD34EF567890 ------> Destination : 0xEF5678
 407:STM32Cube_FW_N6/Drivers/STM32N6xx_HAL_Driver/Src/stm32n6xx_hal_dma_ex.c **** 
 408:STM32Cube_FW_N6/Drivers/STM32N6xx_HAL_Driver/Src/stm32n6xx_hal_dma_ex.c ****           (+) Use HAL_DMAEx_ConfigDataHandling() to configure data handling features. Previous elem
 409:STM32Cube_FW_N6/Drivers/STM32N6xx_HAL_Driver/Src/stm32n6xx_hal_dma_ex.c ****               can be combined according to application needs.
 410:STM32Cube_FW_N6/Drivers/STM32N6xx_HAL_Driver/Src/stm32n6xx_hal_dma_ex.c ****               (++) This API is complementary of normal transfers.
 411:STM32Cube_FW_N6/Drivers/STM32N6xx_HAL_Driver/Src/stm32n6xx_hal_dma_ex.c ****               (++) This API must not be called for linked-list transfers as data handling informati
ARM GAS  /tmp/ccuUFTu8.s 			page 9


 412:STM32Cube_FW_N6/Drivers/STM32N6xx_HAL_Driver/Src/stm32n6xx_hal_dma_ex.c ****                    node level.
 413:STM32Cube_FW_N6/Drivers/STM32N6xx_HAL_Driver/Src/stm32n6xx_hal_dma_ex.c **** 
 414:STM32Cube_FW_N6/Drivers/STM32N6xx_HAL_Driver/Src/stm32n6xx_hal_dma_ex.c ****     *** User sequence ***
 415:STM32Cube_FW_N6/Drivers/STM32N6xx_HAL_Driver/Src/stm32n6xx_hal_dma_ex.c ****     [..]
 416:STM32Cube_FW_N6/Drivers/STM32N6xx_HAL_Driver/Src/stm32n6xx_hal_dma_ex.c ****       To configure cleanly the DMA channel data handling, ensure to apply the following call sequen
 417:STM32Cube_FW_N6/Drivers/STM32N6xx_HAL_Driver/Src/stm32n6xx_hal_dma_ex.c **** 
 418:STM32Cube_FW_N6/Drivers/STM32N6xx_HAL_Driver/Src/stm32n6xx_hal_dma_ex.c ****           (+) Linear transfer :
 419:STM32Cube_FW_N6/Drivers/STM32N6xx_HAL_Driver/Src/stm32n6xx_hal_dma_ex.c ****               (++) HAL_DMA_Init()
 420:STM32Cube_FW_N6/Drivers/STM32N6xx_HAL_Driver/Src/stm32n6xx_hal_dma_ex.c ****               (++) HAL_DMAEx_ConfigDataHandling()
 421:STM32Cube_FW_N6/Drivers/STM32N6xx_HAL_Driver/Src/stm32n6xx_hal_dma_ex.c ****               (++) HAL_DMA_Start()
 422:STM32Cube_FW_N6/Drivers/STM32N6xx_HAL_Driver/Src/stm32n6xx_hal_dma_ex.c **** 
 423:STM32Cube_FW_N6/Drivers/STM32N6xx_HAL_Driver/Src/stm32n6xx_hal_dma_ex.c ****     *** Repeated Block ***
 424:STM32Cube_FW_N6/Drivers/STM32N6xx_HAL_Driver/Src/stm32n6xx_hal_dma_ex.c ****     ======================
 425:STM32Cube_FW_N6/Drivers/STM32N6xx_HAL_Driver/Src/stm32n6xx_hal_dma_ex.c ****     [..]
 426:STM32Cube_FW_N6/Drivers/STM32N6xx_HAL_Driver/Src/stm32n6xx_hal_dma_ex.c ****       When available, this feature is used when the data size is higher then 65535 bytes (Maximum b
 427:STM32Cube_FW_N6/Drivers/STM32N6xx_HAL_Driver/Src/stm32n6xx_hal_dma_ex.c ****       scattering / gathering data.
 428:STM32Cube_FW_N6/Drivers/STM32N6xx_HAL_Driver/Src/stm32n6xx_hal_dma_ex.c ****                 (++) Gather data
 429:STM32Cube_FW_N6/Drivers/STM32N6xx_HAL_Driver/Src/stm32n6xx_hal_dma_ex.c ****                      Source            Destination
 430:STM32Cube_FW_N6/Drivers/STM32N6xx_HAL_Driver/Src/stm32n6xx_hal_dma_ex.c ****                      0xAA              0xAA
 431:STM32Cube_FW_N6/Drivers/STM32N6xx_HAL_Driver/Src/stm32n6xx_hal_dma_ex.c ****                      0xBB              0xAA
 432:STM32Cube_FW_N6/Drivers/STM32N6xx_HAL_Driver/Src/stm32n6xx_hal_dma_ex.c ****                      0xAA      ==>     0xAA
 433:STM32Cube_FW_N6/Drivers/STM32N6xx_HAL_Driver/Src/stm32n6xx_hal_dma_ex.c ****                      0xCC
 434:STM32Cube_FW_N6/Drivers/STM32N6xx_HAL_Driver/Src/stm32n6xx_hal_dma_ex.c ****                      0xAA
 435:STM32Cube_FW_N6/Drivers/STM32N6xx_HAL_Driver/Src/stm32n6xx_hal_dma_ex.c ****                 (++) Scatter data
 436:STM32Cube_FW_N6/Drivers/STM32N6xx_HAL_Driver/Src/stm32n6xx_hal_dma_ex.c ****                      Source            Destination
 437:STM32Cube_FW_N6/Drivers/STM32N6xx_HAL_Driver/Src/stm32n6xx_hal_dma_ex.c ****                      0xAA              0xAA
 438:STM32Cube_FW_N6/Drivers/STM32N6xx_HAL_Driver/Src/stm32n6xx_hal_dma_ex.c ****                      0xAA              0xBB
 439:STM32Cube_FW_N6/Drivers/STM32N6xx_HAL_Driver/Src/stm32n6xx_hal_dma_ex.c ****                      0xAA      ==>     0xAA
 440:STM32Cube_FW_N6/Drivers/STM32N6xx_HAL_Driver/Src/stm32n6xx_hal_dma_ex.c ****                                        0xBB
 441:STM32Cube_FW_N6/Drivers/STM32N6xx_HAL_Driver/Src/stm32n6xx_hal_dma_ex.c ****                                        0xAA
 442:STM32Cube_FW_N6/Drivers/STM32N6xx_HAL_Driver/Src/stm32n6xx_hal_dma_ex.c **** 
 443:STM32Cube_FW_N6/Drivers/STM32N6xx_HAL_Driver/Src/stm32n6xx_hal_dma_ex.c ****           (+) Use HAL_DMAEx_ConfigRepeatBlock() to configure data repeated block feature. Jump addr
 444:STM32Cube_FW_N6/Drivers/STM32N6xx_HAL_Driver/Src/stm32n6xx_hal_dma_ex.c ****               incrementing or decrementing on source and destination can be combined to have the ne
 445:STM32Cube_FW_N6/Drivers/STM32N6xx_HAL_Driver/Src/stm32n6xx_hal_dma_ex.c ****               behavior.
 446:STM32Cube_FW_N6/Drivers/STM32N6xx_HAL_Driver/Src/stm32n6xx_hal_dma_ex.c ****               (++) This API is complementary of normal transfers.
 447:STM32Cube_FW_N6/Drivers/STM32N6xx_HAL_Driver/Src/stm32n6xx_hal_dma_ex.c ****               (++) This API must not be called for linked-list transfers as repeated block informat
 448:STM32Cube_FW_N6/Drivers/STM32N6xx_HAL_Driver/Src/stm32n6xx_hal_dma_ex.c ****                    node level.
 449:STM32Cube_FW_N6/Drivers/STM32N6xx_HAL_Driver/Src/stm32n6xx_hal_dma_ex.c ****               (++) This API must be called only for DMA channel that supports repeated block featur
 450:STM32Cube_FW_N6/Drivers/STM32N6xx_HAL_Driver/Src/stm32n6xx_hal_dma_ex.c **** 
 451:STM32Cube_FW_N6/Drivers/STM32N6xx_HAL_Driver/Src/stm32n6xx_hal_dma_ex.c ****     *** User sequence ***
 452:STM32Cube_FW_N6/Drivers/STM32N6xx_HAL_Driver/Src/stm32n6xx_hal_dma_ex.c ****     [..]
 453:STM32Cube_FW_N6/Drivers/STM32N6xx_HAL_Driver/Src/stm32n6xx_hal_dma_ex.c ****       To configure cleanly the DMA channel repeated block, ensure to apply the following call seque
 454:STM32Cube_FW_N6/Drivers/STM32N6xx_HAL_Driver/Src/stm32n6xx_hal_dma_ex.c **** 
 455:STM32Cube_FW_N6/Drivers/STM32N6xx_HAL_Driver/Src/stm32n6xx_hal_dma_ex.c ****           (+) Linear transfer :
 456:STM32Cube_FW_N6/Drivers/STM32N6xx_HAL_Driver/Src/stm32n6xx_hal_dma_ex.c ****               (++) HAL_DMA_Init()
 457:STM32Cube_FW_N6/Drivers/STM32N6xx_HAL_Driver/Src/stm32n6xx_hal_dma_ex.c ****               (++) HAL_DMAEx_ConfigRepeatBlock()
 458:STM32Cube_FW_N6/Drivers/STM32N6xx_HAL_Driver/Src/stm32n6xx_hal_dma_ex.c ****               (++) HAL_DMA_Start()
 459:STM32Cube_FW_N6/Drivers/STM32N6xx_HAL_Driver/Src/stm32n6xx_hal_dma_ex.c **** 
 460:STM32Cube_FW_N6/Drivers/STM32N6xx_HAL_Driver/Src/stm32n6xx_hal_dma_ex.c ****     *** Trigger Configuration ***
 461:STM32Cube_FW_N6/Drivers/STM32N6xx_HAL_Driver/Src/stm32n6xx_hal_dma_ex.c ****     =============================
 462:STM32Cube_FW_N6/Drivers/STM32N6xx_HAL_Driver/Src/stm32n6xx_hal_dma_ex.c ****     [..]
 463:STM32Cube_FW_N6/Drivers/STM32N6xx_HAL_Driver/Src/stm32n6xx_hal_dma_ex.c ****       When application needs that DMA transfers are conditioned by internal or external events, the
 464:STM32Cube_FW_N6/Drivers/STM32N6xx_HAL_Driver/Src/stm32n6xx_hal_dma_ex.c ****       do that. Trigger signals are a set of device signal that are linked to DMA trigger inputs tha
 465:STM32Cube_FW_N6/Drivers/STM32N6xx_HAL_Driver/Src/stm32n6xx_hal_dma_ex.c ****       DMA transfers.
 466:STM32Cube_FW_N6/Drivers/STM32N6xx_HAL_Driver/Src/stm32n6xx_hal_dma_ex.c ****       To setup a trigger transfers, three DMA channel parameters are needed:
 467:STM32Cube_FW_N6/Drivers/STM32N6xx_HAL_Driver/Src/stm32n6xx_hal_dma_ex.c **** 
 468:STM32Cube_FW_N6/Drivers/STM32N6xx_HAL_Driver/Src/stm32n6xx_hal_dma_ex.c ****           (+) Trigger mode
ARM GAS  /tmp/ccuUFTu8.s 			page 10


 469:STM32Cube_FW_N6/Drivers/STM32N6xx_HAL_Driver/Src/stm32n6xx_hal_dma_ex.c ****               This parameter specifies the trig level.
 470:STM32Cube_FW_N6/Drivers/STM32N6xx_HAL_Driver/Src/stm32n6xx_hal_dma_ex.c ****                (++) Block level
 471:STM32Cube_FW_N6/Drivers/STM32N6xx_HAL_Driver/Src/stm32n6xx_hal_dma_ex.c ****                (++) Repeated block level
 472:STM32Cube_FW_N6/Drivers/STM32N6xx_HAL_Driver/Src/stm32n6xx_hal_dma_ex.c ****                (++) Node level
 473:STM32Cube_FW_N6/Drivers/STM32N6xx_HAL_Driver/Src/stm32n6xx_hal_dma_ex.c ****                (++) Single / Burst level
 474:STM32Cube_FW_N6/Drivers/STM32N6xx_HAL_Driver/Src/stm32n6xx_hal_dma_ex.c **** 
 475:STM32Cube_FW_N6/Drivers/STM32N6xx_HAL_Driver/Src/stm32n6xx_hal_dma_ex.c ****           (+) Trigger polarity
 476:STM32Cube_FW_N6/Drivers/STM32N6xx_HAL_Driver/Src/stm32n6xx_hal_dma_ex.c ****               This parameter specifies the DMA trigger sensitivity (Rising or falling).
 477:STM32Cube_FW_N6/Drivers/STM32N6xx_HAL_Driver/Src/stm32n6xx_hal_dma_ex.c **** 
 478:STM32Cube_FW_N6/Drivers/STM32N6xx_HAL_Driver/Src/stm32n6xx_hal_dma_ex.c ****           (+) Trigger selection
 479:STM32Cube_FW_N6/Drivers/STM32N6xx_HAL_Driver/Src/stm32n6xx_hal_dma_ex.c ****               This parameter specifies the DMA trigger hardware signal.
 480:STM32Cube_FW_N6/Drivers/STM32N6xx_HAL_Driver/Src/stm32n6xx_hal_dma_ex.c **** 
 481:STM32Cube_FW_N6/Drivers/STM32N6xx_HAL_Driver/Src/stm32n6xx_hal_dma_ex.c ****           (+) Use HAL_DMAEx_ConfigTrigger() to configure trigger feature.
 482:STM32Cube_FW_N6/Drivers/STM32N6xx_HAL_Driver/Src/stm32n6xx_hal_dma_ex.c ****               (++) This API is complementary to normal transfers APIs.
 483:STM32Cube_FW_N6/Drivers/STM32N6xx_HAL_Driver/Src/stm32n6xx_hal_dma_ex.c ****               (++) This API must not be called for linked-list transfers as trigger information are
 484:STM32Cube_FW_N6/Drivers/STM32N6xx_HAL_Driver/Src/stm32n6xx_hal_dma_ex.c ****                    node level.
 485:STM32Cube_FW_N6/Drivers/STM32N6xx_HAL_Driver/Src/stm32n6xx_hal_dma_ex.c **** 
 486:STM32Cube_FW_N6/Drivers/STM32N6xx_HAL_Driver/Src/stm32n6xx_hal_dma_ex.c ****     *** User sequence ***
 487:STM32Cube_FW_N6/Drivers/STM32N6xx_HAL_Driver/Src/stm32n6xx_hal_dma_ex.c ****     [..]
 488:STM32Cube_FW_N6/Drivers/STM32N6xx_HAL_Driver/Src/stm32n6xx_hal_dma_ex.c ****       To configure cleanly the DMA channel trigger, ensure to apply the following call sequence :
 489:STM32Cube_FW_N6/Drivers/STM32N6xx_HAL_Driver/Src/stm32n6xx_hal_dma_ex.c ****           (+) Linear transfer :
 490:STM32Cube_FW_N6/Drivers/STM32N6xx_HAL_Driver/Src/stm32n6xx_hal_dma_ex.c ****               (++) HAL_DMA_Init()
 491:STM32Cube_FW_N6/Drivers/STM32N6xx_HAL_Driver/Src/stm32n6xx_hal_dma_ex.c ****               (++) HAL_DMAEx_ConfigTrigger()
 492:STM32Cube_FW_N6/Drivers/STM32N6xx_HAL_Driver/Src/stm32n6xx_hal_dma_ex.c ****               (++) HAL_DMA_Start()
 493:STM32Cube_FW_N6/Drivers/STM32N6xx_HAL_Driver/Src/stm32n6xx_hal_dma_ex.c **** 
 494:STM32Cube_FW_N6/Drivers/STM32N6xx_HAL_Driver/Src/stm32n6xx_hal_dma_ex.c ****     *** Suspend and resume operation ***
 495:STM32Cube_FW_N6/Drivers/STM32N6xx_HAL_Driver/Src/stm32n6xx_hal_dma_ex.c ****     ====================================
 496:STM32Cube_FW_N6/Drivers/STM32N6xx_HAL_Driver/Src/stm32n6xx_hal_dma_ex.c ****     [..]
 497:STM32Cube_FW_N6/Drivers/STM32N6xx_HAL_Driver/Src/stm32n6xx_hal_dma_ex.c ****       There are several cases when needs to suspend a DMA current transfer (Example: liberate bandw
 498:STM32Cube_FW_N6/Drivers/STM32N6xx_HAL_Driver/Src/stm32n6xx_hal_dma_ex.c ****       priority DMA channel transfer). Suspending DMA channel (same as abort) is available in pollin
 499:STM32Cube_FW_N6/Drivers/STM32N6xx_HAL_Driver/Src/stm32n6xx_hal_dma_ex.c ****       interrupt (non-blocking mode) modes. When suspended, a DMA channel can be instantly resumed.
 500:STM32Cube_FW_N6/Drivers/STM32N6xx_HAL_Driver/Src/stm32n6xx_hal_dma_ex.c **** 
 501:STM32Cube_FW_N6/Drivers/STM32N6xx_HAL_Driver/Src/stm32n6xx_hal_dma_ex.c ****           (+) Use HAL_DMAEx_Suspend() to suspend an ongoing DMA channel transfer in polling mode (B
 502:STM32Cube_FW_N6/Drivers/STM32N6xx_HAL_Driver/Src/stm32n6xx_hal_dma_ex.c **** 
 503:STM32Cube_FW_N6/Drivers/STM32N6xx_HAL_Driver/Src/stm32n6xx_hal_dma_ex.c ****           (+) Use HAL_DMAEx_Suspend_IT() to suspend an ongoing DMA channel transfer in interrupt mo
 504:STM32Cube_FW_N6/Drivers/STM32N6xx_HAL_Driver/Src/stm32n6xx_hal_dma_ex.c ****               mode).
 505:STM32Cube_FW_N6/Drivers/STM32N6xx_HAL_Driver/Src/stm32n6xx_hal_dma_ex.c **** 
 506:STM32Cube_FW_N6/Drivers/STM32N6xx_HAL_Driver/Src/stm32n6xx_hal_dma_ex.c ****           (+) Use HAL_DMAEx_Resume() to resume a suspended DMA channel transfer execution.
 507:STM32Cube_FW_N6/Drivers/STM32N6xx_HAL_Driver/Src/stm32n6xx_hal_dma_ex.c **** 
 508:STM32Cube_FW_N6/Drivers/STM32N6xx_HAL_Driver/Src/stm32n6xx_hal_dma_ex.c ****     *** FIFO status ***
 509:STM32Cube_FW_N6/Drivers/STM32N6xx_HAL_Driver/Src/stm32n6xx_hal_dma_ex.c ****     ===================
 510:STM32Cube_FW_N6/Drivers/STM32N6xx_HAL_Driver/Src/stm32n6xx_hal_dma_ex.c ****     [..]
 511:STM32Cube_FW_N6/Drivers/STM32N6xx_HAL_Driver/Src/stm32n6xx_hal_dma_ex.c ****       In several cases, the information of FIFO level is useful to inform at application level how 
 512:STM32Cube_FW_N6/Drivers/STM32N6xx_HAL_Driver/Src/stm32n6xx_hal_dma_ex.c ****       data. When not empty, the DMA channel FIFO cannot be flashed only by reset.
 513:STM32Cube_FW_N6/Drivers/STM32N6xx_HAL_Driver/Src/stm32n6xx_hal_dma_ex.c **** 
 514:STM32Cube_FW_N6/Drivers/STM32N6xx_HAL_Driver/Src/stm32n6xx_hal_dma_ex.c ****           (+) Use HAL_DMAEx_GetFifoLevel() to get the DMA channel FIFO level (available beats in FI
 515:STM32Cube_FW_N6/Drivers/STM32N6xx_HAL_Driver/Src/stm32n6xx_hal_dma_ex.c **** 
 516:STM32Cube_FW_N6/Drivers/STM32N6xx_HAL_Driver/Src/stm32n6xx_hal_dma_ex.c ****     @endverbatim
 517:STM32Cube_FW_N6/Drivers/STM32N6xx_HAL_Driver/Src/stm32n6xx_hal_dma_ex.c ****   *************************************************************************************************
 518:STM32Cube_FW_N6/Drivers/STM32N6xx_HAL_Driver/Src/stm32n6xx_hal_dma_ex.c ****   */
 519:STM32Cube_FW_N6/Drivers/STM32N6xx_HAL_Driver/Src/stm32n6xx_hal_dma_ex.c **** 
 520:STM32Cube_FW_N6/Drivers/STM32N6xx_HAL_Driver/Src/stm32n6xx_hal_dma_ex.c **** /* Includes ---------------------------------------------------------------------------------------
 521:STM32Cube_FW_N6/Drivers/STM32N6xx_HAL_Driver/Src/stm32n6xx_hal_dma_ex.c **** #include "stm32n6xx_hal.h"
 522:STM32Cube_FW_N6/Drivers/STM32N6xx_HAL_Driver/Src/stm32n6xx_hal_dma_ex.c **** 
 523:STM32Cube_FW_N6/Drivers/STM32N6xx_HAL_Driver/Src/stm32n6xx_hal_dma_ex.c **** /** @addtogroup STM32N6xx_HAL_Driver
 524:STM32Cube_FW_N6/Drivers/STM32N6xx_HAL_Driver/Src/stm32n6xx_hal_dma_ex.c ****   * @{
 525:STM32Cube_FW_N6/Drivers/STM32N6xx_HAL_Driver/Src/stm32n6xx_hal_dma_ex.c ****   */
ARM GAS  /tmp/ccuUFTu8.s 			page 11


 526:STM32Cube_FW_N6/Drivers/STM32N6xx_HAL_Driver/Src/stm32n6xx_hal_dma_ex.c **** 
 527:STM32Cube_FW_N6/Drivers/STM32N6xx_HAL_Driver/Src/stm32n6xx_hal_dma_ex.c **** /** @defgroup DMAEx DMAEx
 528:STM32Cube_FW_N6/Drivers/STM32N6xx_HAL_Driver/Src/stm32n6xx_hal_dma_ex.c ****   * @brief DMA Extended HAL module driver
 529:STM32Cube_FW_N6/Drivers/STM32N6xx_HAL_Driver/Src/stm32n6xx_hal_dma_ex.c ****   * @{
 530:STM32Cube_FW_N6/Drivers/STM32N6xx_HAL_Driver/Src/stm32n6xx_hal_dma_ex.c ****   */
 531:STM32Cube_FW_N6/Drivers/STM32N6xx_HAL_Driver/Src/stm32n6xx_hal_dma_ex.c **** 
 532:STM32Cube_FW_N6/Drivers/STM32N6xx_HAL_Driver/Src/stm32n6xx_hal_dma_ex.c **** #ifdef HAL_DMA_MODULE_ENABLED
 533:STM32Cube_FW_N6/Drivers/STM32N6xx_HAL_Driver/Src/stm32n6xx_hal_dma_ex.c **** 
 534:STM32Cube_FW_N6/Drivers/STM32N6xx_HAL_Driver/Src/stm32n6xx_hal_dma_ex.c **** /* Private types ----------------------------------------------------------------------------------
 535:STM32Cube_FW_N6/Drivers/STM32N6xx_HAL_Driver/Src/stm32n6xx_hal_dma_ex.c **** /* Private variables ------------------------------------------------------------------------------
 536:STM32Cube_FW_N6/Drivers/STM32N6xx_HAL_Driver/Src/stm32n6xx_hal_dma_ex.c **** /* Private Constants ------------------------------------------------------------------------------
 537:STM32Cube_FW_N6/Drivers/STM32N6xx_HAL_Driver/Src/stm32n6xx_hal_dma_ex.c **** /* Private macros ---------------------------------------------------------------------------------
 538:STM32Cube_FW_N6/Drivers/STM32N6xx_HAL_Driver/Src/stm32n6xx_hal_dma_ex.c **** /* Private function prototypes --------------------------------------------------------------------
 539:STM32Cube_FW_N6/Drivers/STM32N6xx_HAL_Driver/Src/stm32n6xx_hal_dma_ex.c **** static void DMA_List_Init(DMA_HandleTypeDef const *const hdma);
 540:STM32Cube_FW_N6/Drivers/STM32N6xx_HAL_Driver/Src/stm32n6xx_hal_dma_ex.c **** static void DMA_List_BuildNode(DMA_NodeConfTypeDef const *const pNodeConfig,
 541:STM32Cube_FW_N6/Drivers/STM32N6xx_HAL_Driver/Src/stm32n6xx_hal_dma_ex.c ****                                DMA_NodeTypeDef *const pNode);
 542:STM32Cube_FW_N6/Drivers/STM32N6xx_HAL_Driver/Src/stm32n6xx_hal_dma_ex.c **** static void DMA_List_GetNodeConfig(DMA_NodeConfTypeDef *const pNodeConfig,
 543:STM32Cube_FW_N6/Drivers/STM32N6xx_HAL_Driver/Src/stm32n6xx_hal_dma_ex.c ****                                    DMA_NodeTypeDef const *const pNode);
 544:STM32Cube_FW_N6/Drivers/STM32N6xx_HAL_Driver/Src/stm32n6xx_hal_dma_ex.c **** static uint32_t DMA_List_CheckNodesBaseAddresses(DMA_NodeTypeDef const *const pNode1,
 545:STM32Cube_FW_N6/Drivers/STM32N6xx_HAL_Driver/Src/stm32n6xx_hal_dma_ex.c ****                                                  DMA_NodeTypeDef const *const pNode2,
 546:STM32Cube_FW_N6/Drivers/STM32N6xx_HAL_Driver/Src/stm32n6xx_hal_dma_ex.c ****                                                  DMA_NodeTypeDef const *const pNode3);
 547:STM32Cube_FW_N6/Drivers/STM32N6xx_HAL_Driver/Src/stm32n6xx_hal_dma_ex.c **** static uint32_t DMA_List_CheckNodesTypes(DMA_NodeTypeDef const *const pNode1,
 548:STM32Cube_FW_N6/Drivers/STM32N6xx_HAL_Driver/Src/stm32n6xx_hal_dma_ex.c ****                                          DMA_NodeTypeDef const *const pNode2,
 549:STM32Cube_FW_N6/Drivers/STM32N6xx_HAL_Driver/Src/stm32n6xx_hal_dma_ex.c ****                                          DMA_NodeTypeDef const *const pNode3);
 550:STM32Cube_FW_N6/Drivers/STM32N6xx_HAL_Driver/Src/stm32n6xx_hal_dma_ex.c **** static void DMA_List_GetCLLRNodeInfo(DMA_NodeTypeDef const *const pNode,
 551:STM32Cube_FW_N6/Drivers/STM32N6xx_HAL_Driver/Src/stm32n6xx_hal_dma_ex.c ****                                      uint32_t *const cllr_mask,
 552:STM32Cube_FW_N6/Drivers/STM32N6xx_HAL_Driver/Src/stm32n6xx_hal_dma_ex.c ****                                      uint32_t *const cllr_offset);
 553:STM32Cube_FW_N6/Drivers/STM32N6xx_HAL_Driver/Src/stm32n6xx_hal_dma_ex.c **** static uint32_t DMA_List_FindNode(DMA_QListTypeDef const *const pQList,
 554:STM32Cube_FW_N6/Drivers/STM32N6xx_HAL_Driver/Src/stm32n6xx_hal_dma_ex.c ****                                   DMA_NodeTypeDef const *const pNode,
 555:STM32Cube_FW_N6/Drivers/STM32N6xx_HAL_Driver/Src/stm32n6xx_hal_dma_ex.c ****                                   DMA_NodeInQInfoTypeDef *const NodeInfo);
 556:STM32Cube_FW_N6/Drivers/STM32N6xx_HAL_Driver/Src/stm32n6xx_hal_dma_ex.c **** static void DMA_List_ResetQueueNodes(DMA_QListTypeDef const *const pQList,
 557:STM32Cube_FW_N6/Drivers/STM32N6xx_HAL_Driver/Src/stm32n6xx_hal_dma_ex.c ****                                      DMA_NodeInQInfoTypeDef const *const NodeInfo);
 558:STM32Cube_FW_N6/Drivers/STM32N6xx_HAL_Driver/Src/stm32n6xx_hal_dma_ex.c **** static void DMA_List_FillNode(DMA_NodeTypeDef const *const pSrcNode,
 559:STM32Cube_FW_N6/Drivers/STM32N6xx_HAL_Driver/Src/stm32n6xx_hal_dma_ex.c ****                               DMA_NodeTypeDef *const pDestNode);
 560:STM32Cube_FW_N6/Drivers/STM32N6xx_HAL_Driver/Src/stm32n6xx_hal_dma_ex.c **** static void DMA_List_ConvertNodeToDynamic(uint32_t ContextNodeAddr,
 561:STM32Cube_FW_N6/Drivers/STM32N6xx_HAL_Driver/Src/stm32n6xx_hal_dma_ex.c ****                                           uint32_t CurrentNodeAddr,
 562:STM32Cube_FW_N6/Drivers/STM32N6xx_HAL_Driver/Src/stm32n6xx_hal_dma_ex.c ****                                           uint32_t RegisterNumber);
 563:STM32Cube_FW_N6/Drivers/STM32N6xx_HAL_Driver/Src/stm32n6xx_hal_dma_ex.c **** static void DMA_List_ConvertNodeToStatic(uint32_t ContextNodeAddr,
 564:STM32Cube_FW_N6/Drivers/STM32N6xx_HAL_Driver/Src/stm32n6xx_hal_dma_ex.c ****                                          uint32_t CurrentNodeAddr,
 565:STM32Cube_FW_N6/Drivers/STM32N6xx_HAL_Driver/Src/stm32n6xx_hal_dma_ex.c ****                                          uint32_t RegisterNumber);
 566:STM32Cube_FW_N6/Drivers/STM32N6xx_HAL_Driver/Src/stm32n6xx_hal_dma_ex.c **** static void DMA_List_UpdateDynamicQueueNodesCLLR(DMA_QListTypeDef const *const pQList,
 567:STM32Cube_FW_N6/Drivers/STM32N6xx_HAL_Driver/Src/stm32n6xx_hal_dma_ex.c ****                                                  uint32_t LastNode_IsCircular);
 568:STM32Cube_FW_N6/Drivers/STM32N6xx_HAL_Driver/Src/stm32n6xx_hal_dma_ex.c **** static void DMA_List_UpdateStaticQueueNodesCLLR(DMA_QListTypeDef const *const pQList,
 569:STM32Cube_FW_N6/Drivers/STM32N6xx_HAL_Driver/Src/stm32n6xx_hal_dma_ex.c ****                                                 uint32_t operation);
 570:STM32Cube_FW_N6/Drivers/STM32N6xx_HAL_Driver/Src/stm32n6xx_hal_dma_ex.c **** static void DMA_List_FormatNode(DMA_NodeTypeDef *const pNode,
 571:STM32Cube_FW_N6/Drivers/STM32N6xx_HAL_Driver/Src/stm32n6xx_hal_dma_ex.c ****                                 uint32_t RegisterIdx,
 572:STM32Cube_FW_N6/Drivers/STM32N6xx_HAL_Driver/Src/stm32n6xx_hal_dma_ex.c ****                                 uint32_t RegisterNumber,
 573:STM32Cube_FW_N6/Drivers/STM32N6xx_HAL_Driver/Src/stm32n6xx_hal_dma_ex.c ****                                 uint32_t Format);
 574:STM32Cube_FW_N6/Drivers/STM32N6xx_HAL_Driver/Src/stm32n6xx_hal_dma_ex.c **** static void DMA_List_ClearUnusedFields(DMA_NodeTypeDef *const pNode,
 575:STM32Cube_FW_N6/Drivers/STM32N6xx_HAL_Driver/Src/stm32n6xx_hal_dma_ex.c ****                                        uint32_t FirstUnusedField);
 576:STM32Cube_FW_N6/Drivers/STM32N6xx_HAL_Driver/Src/stm32n6xx_hal_dma_ex.c **** static void DMA_List_CleanQueue(DMA_QListTypeDef *const pQList);
 577:STM32Cube_FW_N6/Drivers/STM32N6xx_HAL_Driver/Src/stm32n6xx_hal_dma_ex.c **** 
 578:STM32Cube_FW_N6/Drivers/STM32N6xx_HAL_Driver/Src/stm32n6xx_hal_dma_ex.c **** /* Exported functions -----------------------------------------------------------------------------
 579:STM32Cube_FW_N6/Drivers/STM32N6xx_HAL_Driver/Src/stm32n6xx_hal_dma_ex.c **** 
 580:STM32Cube_FW_N6/Drivers/STM32N6xx_HAL_Driver/Src/stm32n6xx_hal_dma_ex.c **** /** @addtogroup DMAEx_Exported_Functions
 581:STM32Cube_FW_N6/Drivers/STM32N6xx_HAL_Driver/Src/stm32n6xx_hal_dma_ex.c ****   * @{
 582:STM32Cube_FW_N6/Drivers/STM32N6xx_HAL_Driver/Src/stm32n6xx_hal_dma_ex.c ****   */
ARM GAS  /tmp/ccuUFTu8.s 			page 12


 583:STM32Cube_FW_N6/Drivers/STM32N6xx_HAL_Driver/Src/stm32n6xx_hal_dma_ex.c **** 
 584:STM32Cube_FW_N6/Drivers/STM32N6xx_HAL_Driver/Src/stm32n6xx_hal_dma_ex.c **** /** @addtogroup DMAEx_Exported_Functions_Group1
 585:STM32Cube_FW_N6/Drivers/STM32N6xx_HAL_Driver/Src/stm32n6xx_hal_dma_ex.c ****   *
 586:STM32Cube_FW_N6/Drivers/STM32N6xx_HAL_Driver/Src/stm32n6xx_hal_dma_ex.c **** @verbatim
 587:STM32Cube_FW_N6/Drivers/STM32N6xx_HAL_Driver/Src/stm32n6xx_hal_dma_ex.c ****   =================================================================================================
 588:STM32Cube_FW_N6/Drivers/STM32N6xx_HAL_Driver/Src/stm32n6xx_hal_dma_ex.c ****                  ##### Linked-List Initialization and De-Initialization Functions #####
 589:STM32Cube_FW_N6/Drivers/STM32N6xx_HAL_Driver/Src/stm32n6xx_hal_dma_ex.c ****   =================================================================================================
 590:STM32Cube_FW_N6/Drivers/STM32N6xx_HAL_Driver/Src/stm32n6xx_hal_dma_ex.c ****     [..]
 591:STM32Cube_FW_N6/Drivers/STM32N6xx_HAL_Driver/Src/stm32n6xx_hal_dma_ex.c ****       This section provides functions allowing to initialize and de-initialize the DMA channel in l
 592:STM32Cube_FW_N6/Drivers/STM32N6xx_HAL_Driver/Src/stm32n6xx_hal_dma_ex.c ****     [..]
 593:STM32Cube_FW_N6/Drivers/STM32N6xx_HAL_Driver/Src/stm32n6xx_hal_dma_ex.c ****       (+) The HAL_DMAEx_List_Init() function follows the DMA channel linked-list mode configuration
 594:STM32Cube_FW_N6/Drivers/STM32N6xx_HAL_Driver/Src/stm32n6xx_hal_dma_ex.c ****           described in reference manual.
 595:STM32Cube_FW_N6/Drivers/STM32N6xx_HAL_Driver/Src/stm32n6xx_hal_dma_ex.c ****       (+) The HAL_DMAEx_List_DeInit() function allows to de-initialize the DMA channel in linked-li
 596:STM32Cube_FW_N6/Drivers/STM32N6xx_HAL_Driver/Src/stm32n6xx_hal_dma_ex.c **** 
 597:STM32Cube_FW_N6/Drivers/STM32N6xx_HAL_Driver/Src/stm32n6xx_hal_dma_ex.c **** @endverbatim
 598:STM32Cube_FW_N6/Drivers/STM32N6xx_HAL_Driver/Src/stm32n6xx_hal_dma_ex.c ****   * @{
 599:STM32Cube_FW_N6/Drivers/STM32N6xx_HAL_Driver/Src/stm32n6xx_hal_dma_ex.c ****   */
 600:STM32Cube_FW_N6/Drivers/STM32N6xx_HAL_Driver/Src/stm32n6xx_hal_dma_ex.c **** 
 601:STM32Cube_FW_N6/Drivers/STM32N6xx_HAL_Driver/Src/stm32n6xx_hal_dma_ex.c **** /**
 602:STM32Cube_FW_N6/Drivers/STM32N6xx_HAL_Driver/Src/stm32n6xx_hal_dma_ex.c ****   * @brief  Initialize the DMA channel in linked-list mode according to the specified parameters in
 603:STM32Cube_FW_N6/Drivers/STM32N6xx_HAL_Driver/Src/stm32n6xx_hal_dma_ex.c ****   *         DMA_InitLinkedListTypeDef and create the associated handle.
 604:STM32Cube_FW_N6/Drivers/STM32N6xx_HAL_Driver/Src/stm32n6xx_hal_dma_ex.c ****   * @param  hdma : Pointer to a DMA_HandleTypeDef structure that contains the configuration informa
 605:STM32Cube_FW_N6/Drivers/STM32N6xx_HAL_Driver/Src/stm32n6xx_hal_dma_ex.c ****   *                specified DMA Channel.
 606:STM32Cube_FW_N6/Drivers/STM32N6xx_HAL_Driver/Src/stm32n6xx_hal_dma_ex.c ****   * @retval HAL status.
 607:STM32Cube_FW_N6/Drivers/STM32N6xx_HAL_Driver/Src/stm32n6xx_hal_dma_ex.c ****   */
 608:STM32Cube_FW_N6/Drivers/STM32N6xx_HAL_Driver/Src/stm32n6xx_hal_dma_ex.c **** HAL_StatusTypeDef HAL_DMAEx_List_Init(DMA_HandleTypeDef *const hdma)
 609:STM32Cube_FW_N6/Drivers/STM32N6xx_HAL_Driver/Src/stm32n6xx_hal_dma_ex.c **** {
  39              		.loc 1 609 1
  40              		.cfi_startproc
  41              		@ args = 0, pretend = 0, frame = 16
  42              		@ frame_needed = 1, uses_anonymous_args = 0
  43 0000 80B5     		push	{r7, lr}
  44              		.cfi_def_cfa_offset 8
  45              		.cfi_offset 7, -8
  46              		.cfi_offset 14, -4
  47 0002 84B0     		sub	sp, sp, #16
  48              		.cfi_def_cfa_offset 24
  49 0004 00AF     		add	r7, sp, #0
  50              		.cfi_def_cfa_register 7
  51 0006 7860     		str	r0, [r7, #4]
 610:STM32Cube_FW_N6/Drivers/STM32N6xx_HAL_Driver/Src/stm32n6xx_hal_dma_ex.c ****   /* Get tick number */
 611:STM32Cube_FW_N6/Drivers/STM32N6xx_HAL_Driver/Src/stm32n6xx_hal_dma_ex.c ****   uint32_t tickstart = HAL_GetTick();
  52              		.loc 1 611 24
  53 0008 FFF7FEFF 		bl	HAL_GetTick
  54 000c F860     		str	r0, [r7, #12]
 612:STM32Cube_FW_N6/Drivers/STM32N6xx_HAL_Driver/Src/stm32n6xx_hal_dma_ex.c **** 
 613:STM32Cube_FW_N6/Drivers/STM32N6xx_HAL_Driver/Src/stm32n6xx_hal_dma_ex.c ****   /* Check the DMA channel handle parameter */
 614:STM32Cube_FW_N6/Drivers/STM32N6xx_HAL_Driver/Src/stm32n6xx_hal_dma_ex.c ****   if (hdma == NULL)
  55              		.loc 1 614 6
  56 000e 7B68     		ldr	r3, [r7, #4]
  57 0010 002B     		cmp	r3, #0
  58 0012 02D1     		bne	.L2
 615:STM32Cube_FW_N6/Drivers/STM32N6xx_HAL_Driver/Src/stm32n6xx_hal_dma_ex.c ****   {
 616:STM32Cube_FW_N6/Drivers/STM32N6xx_HAL_Driver/Src/stm32n6xx_hal_dma_ex.c ****     return HAL_ERROR;
  59              		.loc 1 616 12
  60 0014 0123     		movs	r3, #1
  61 0016 00F014BC 		b	.L3
ARM GAS  /tmp/ccuUFTu8.s 			page 13


  62              	.L2:
 617:STM32Cube_FW_N6/Drivers/STM32N6xx_HAL_Driver/Src/stm32n6xx_hal_dma_ex.c ****   }
 618:STM32Cube_FW_N6/Drivers/STM32N6xx_HAL_Driver/Src/stm32n6xx_hal_dma_ex.c **** 
 619:STM32Cube_FW_N6/Drivers/STM32N6xx_HAL_Driver/Src/stm32n6xx_hal_dma_ex.c ****   /* Check the parameters */
 620:STM32Cube_FW_N6/Drivers/STM32N6xx_HAL_Driver/Src/stm32n6xx_hal_dma_ex.c ****   assert_param(IS_DMA_ALL_INSTANCE(hdma->Instance));
  63              		.loc 1 620 3
  64 001a 7B68     		ldr	r3, [r7, #4]
  65 001c 1B68     		ldr	r3, [r3]
  66 001e 984A     		ldr	r2, .L19
  67 0020 9342     		cmp	r3, r2
  68 0022 00F0D981 		beq	.L4
  69              		.loc 1 620 3 is_stmt 0 discriminator 1
  70 0026 7B68     		ldr	r3, [r7, #4]
  71 0028 1B68     		ldr	r3, [r3]
  72 002a 964A     		ldr	r2, .L19+4
  73 002c 9342     		cmp	r3, r2
  74 002e 00F0D381 		beq	.L4
  75              		.loc 1 620 3 discriminator 2
  76 0032 7B68     		ldr	r3, [r7, #4]
  77 0034 1B68     		ldr	r3, [r3]
  78 0036 944A     		ldr	r2, .L19+8
  79 0038 9342     		cmp	r3, r2
  80 003a 00F0CD81 		beq	.L4
  81              		.loc 1 620 3 discriminator 3
  82 003e 7B68     		ldr	r3, [r7, #4]
  83 0040 1B68     		ldr	r3, [r3]
  84 0042 924A     		ldr	r2, .L19+12
  85 0044 9342     		cmp	r3, r2
  86 0046 00F0C781 		beq	.L4
  87              		.loc 1 620 3 discriminator 4
  88 004a 7B68     		ldr	r3, [r7, #4]
  89 004c 1B68     		ldr	r3, [r3]
  90 004e 904A     		ldr	r2, .L19+16
  91 0050 9342     		cmp	r3, r2
  92 0052 00F0C181 		beq	.L4
  93              		.loc 1 620 3 discriminator 5
  94 0056 7B68     		ldr	r3, [r7, #4]
  95 0058 1B68     		ldr	r3, [r3]
  96 005a 8E4A     		ldr	r2, .L19+20
  97 005c 9342     		cmp	r3, r2
  98 005e 00F0BB81 		beq	.L4
  99              		.loc 1 620 3 discriminator 6
 100 0062 7B68     		ldr	r3, [r7, #4]
 101 0064 1B68     		ldr	r3, [r3]
 102 0066 8C4A     		ldr	r2, .L19+24
 103 0068 9342     		cmp	r3, r2
 104 006a 00F0B581 		beq	.L4
 105              		.loc 1 620 3 discriminator 7
 106 006e 7B68     		ldr	r3, [r7, #4]
 107 0070 1B68     		ldr	r3, [r3]
 108 0072 8A4A     		ldr	r2, .L19+28
 109 0074 9342     		cmp	r3, r2
 110 0076 00F0AF81 		beq	.L4
 111              		.loc 1 620 3 discriminator 8
 112 007a 7B68     		ldr	r3, [r7, #4]
 113 007c 1B68     		ldr	r3, [r3]
 114 007e 884A     		ldr	r2, .L19+32
ARM GAS  /tmp/ccuUFTu8.s 			page 14


 115 0080 9342     		cmp	r3, r2
 116 0082 00F0A981 		beq	.L4
 117              		.loc 1 620 3 discriminator 9
 118 0086 7B68     		ldr	r3, [r7, #4]
 119 0088 1B68     		ldr	r3, [r3]
 120 008a 864A     		ldr	r2, .L19+36
 121 008c 9342     		cmp	r3, r2
 122 008e 00F0A381 		beq	.L4
 123              		.loc 1 620 3 discriminator 10
 124 0092 7B68     		ldr	r3, [r7, #4]
 125 0094 1B68     		ldr	r3, [r3]
 126 0096 844A     		ldr	r2, .L19+40
 127 0098 9342     		cmp	r3, r2
 128 009a 00F09D81 		beq	.L4
 129              		.loc 1 620 3 discriminator 11
 130 009e 7B68     		ldr	r3, [r7, #4]
 131 00a0 1B68     		ldr	r3, [r3]
 132 00a2 824A     		ldr	r2, .L19+44
 133 00a4 9342     		cmp	r3, r2
 134 00a6 00F09781 		beq	.L4
 135              		.loc 1 620 3 discriminator 12
 136 00aa 7B68     		ldr	r3, [r7, #4]
 137 00ac 1B68     		ldr	r3, [r3]
 138 00ae 804A     		ldr	r2, .L19+48
 139 00b0 9342     		cmp	r3, r2
 140 00b2 00F09181 		beq	.L4
 141              		.loc 1 620 3 discriminator 13
 142 00b6 7B68     		ldr	r3, [r7, #4]
 143 00b8 1B68     		ldr	r3, [r3]
 144 00ba 7E4A     		ldr	r2, .L19+52
 145 00bc 9342     		cmp	r3, r2
 146 00be 00F08B81 		beq	.L4
 147              		.loc 1 620 3 discriminator 14
 148 00c2 7B68     		ldr	r3, [r7, #4]
 149 00c4 1B68     		ldr	r3, [r3]
 150 00c6 7C4A     		ldr	r2, .L19+56
 151 00c8 9342     		cmp	r3, r2
 152 00ca 00F08581 		beq	.L4
 153              		.loc 1 620 3 discriminator 15
 154 00ce 7B68     		ldr	r3, [r7, #4]
 155 00d0 1B68     		ldr	r3, [r3]
 156 00d2 7A4A     		ldr	r2, .L19+60
 157 00d4 9342     		cmp	r3, r2
 158 00d6 00F07F81 		beq	.L4
 159              		.loc 1 620 3 discriminator 16
 160 00da 7B68     		ldr	r3, [r7, #4]
 161 00dc 1B68     		ldr	r3, [r3]
 162 00de 784A     		ldr	r2, .L19+64
 163 00e0 9342     		cmp	r3, r2
 164 00e2 00F07981 		beq	.L4
 165              		.loc 1 620 3 discriminator 17
 166 00e6 7B68     		ldr	r3, [r7, #4]
 167 00e8 1B68     		ldr	r3, [r3]
 168 00ea 764A     		ldr	r2, .L19+68
 169 00ec 9342     		cmp	r3, r2
 170 00ee 00F07381 		beq	.L4
 171              		.loc 1 620 3 discriminator 18
ARM GAS  /tmp/ccuUFTu8.s 			page 15


 172 00f2 7B68     		ldr	r3, [r7, #4]
 173 00f4 1B68     		ldr	r3, [r3]
 174 00f6 744A     		ldr	r2, .L19+72
 175 00f8 9342     		cmp	r3, r2
 176 00fa 00F06D81 		beq	.L4
 177              		.loc 1 620 3 discriminator 19
 178 00fe 7B68     		ldr	r3, [r7, #4]
 179 0100 1B68     		ldr	r3, [r3]
 180 0102 724A     		ldr	r2, .L19+76
 181 0104 9342     		cmp	r3, r2
 182 0106 00F06781 		beq	.L4
 183              		.loc 1 620 3 discriminator 20
 184 010a 7B68     		ldr	r3, [r7, #4]
 185 010c 1B68     		ldr	r3, [r3]
 186 010e 704A     		ldr	r2, .L19+80
 187 0110 9342     		cmp	r3, r2
 188 0112 00F06181 		beq	.L4
 189              		.loc 1 620 3 discriminator 21
 190 0116 7B68     		ldr	r3, [r7, #4]
 191 0118 1B68     		ldr	r3, [r3]
 192 011a 6E4A     		ldr	r2, .L19+84
 193 011c 9342     		cmp	r3, r2
 194 011e 00F05B81 		beq	.L4
 195              		.loc 1 620 3 discriminator 22
 196 0122 7B68     		ldr	r3, [r7, #4]
 197 0124 1B68     		ldr	r3, [r3]
 198 0126 6C4A     		ldr	r2, .L19+88
 199 0128 9342     		cmp	r3, r2
 200 012a 00F05581 		beq	.L4
 201              		.loc 1 620 3 discriminator 23
 202 012e 7B68     		ldr	r3, [r7, #4]
 203 0130 1B68     		ldr	r3, [r3]
 204 0132 6A4A     		ldr	r2, .L19+92
 205 0134 9342     		cmp	r3, r2
 206 0136 00F04F81 		beq	.L4
 207              		.loc 1 620 3 discriminator 24
 208 013a 7B68     		ldr	r3, [r7, #4]
 209 013c 1B68     		ldr	r3, [r3]
 210 013e 684A     		ldr	r2, .L19+96
 211 0140 9342     		cmp	r3, r2
 212 0142 00F04981 		beq	.L4
 213              		.loc 1 620 3 discriminator 25
 214 0146 7B68     		ldr	r3, [r7, #4]
 215 0148 1B68     		ldr	r3, [r3]
 216 014a 664A     		ldr	r2, .L19+100
 217 014c 9342     		cmp	r3, r2
 218 014e 00F04381 		beq	.L4
 219              		.loc 1 620 3 discriminator 26
 220 0152 7B68     		ldr	r3, [r7, #4]
 221 0154 1B68     		ldr	r3, [r3]
 222 0156 644A     		ldr	r2, .L19+104
 223 0158 9342     		cmp	r3, r2
 224 015a 00F03D81 		beq	.L4
 225              		.loc 1 620 3 discriminator 27
 226 015e 7B68     		ldr	r3, [r7, #4]
 227 0160 1B68     		ldr	r3, [r3]
 228 0162 624A     		ldr	r2, .L19+108
ARM GAS  /tmp/ccuUFTu8.s 			page 16


 229 0164 9342     		cmp	r3, r2
 230 0166 00F03781 		beq	.L4
 231              		.loc 1 620 3 discriminator 28
 232 016a 7B68     		ldr	r3, [r7, #4]
 233 016c 1B68     		ldr	r3, [r3]
 234 016e 604A     		ldr	r2, .L19+112
 235 0170 9342     		cmp	r3, r2
 236 0172 00F03181 		beq	.L4
 237              		.loc 1 620 3 discriminator 29
 238 0176 7B68     		ldr	r3, [r7, #4]
 239 0178 1B68     		ldr	r3, [r3]
 240 017a 5E4A     		ldr	r2, .L19+116
 241 017c 9342     		cmp	r3, r2
 242 017e 00F02B81 		beq	.L4
 243              		.loc 1 620 3 discriminator 30
 244 0182 7B68     		ldr	r3, [r7, #4]
 245 0184 1B68     		ldr	r3, [r3]
 246 0186 5C4A     		ldr	r2, .L19+120
 247 0188 9342     		cmp	r3, r2
 248 018a 00F02581 		beq	.L4
 249              		.loc 1 620 3 discriminator 31
 250 018e 7B68     		ldr	r3, [r7, #4]
 251 0190 1B68     		ldr	r3, [r3]
 252 0192 5A4A     		ldr	r2, .L19+124
 253 0194 9342     		cmp	r3, r2
 254 0196 00F01F81 		beq	.L4
 255              		.loc 1 620 3 discriminator 32
 256 019a 7B68     		ldr	r3, [r7, #4]
 257 019c 1B68     		ldr	r3, [r3]
 258 019e 584A     		ldr	r2, .L19+128
 259 01a0 9342     		cmp	r3, r2
 260 01a2 00F01981 		beq	.L4
 261              		.loc 1 620 3 discriminator 33
 262 01a6 7B68     		ldr	r3, [r7, #4]
 263 01a8 1B68     		ldr	r3, [r3]
 264 01aa 564A     		ldr	r2, .L19+132
 265 01ac 9342     		cmp	r3, r2
 266 01ae 00F01381 		beq	.L4
 267              		.loc 1 620 3 discriminator 34
 268 01b2 7B68     		ldr	r3, [r7, #4]
 269 01b4 1B68     		ldr	r3, [r3]
 270 01b6 544A     		ldr	r2, .L19+136
 271 01b8 9342     		cmp	r3, r2
 272 01ba 00F00D81 		beq	.L4
 273              		.loc 1 620 3 discriminator 35
 274 01be 7B68     		ldr	r3, [r7, #4]
 275 01c0 1B68     		ldr	r3, [r3]
 276 01c2 524A     		ldr	r2, .L19+140
 277 01c4 9342     		cmp	r3, r2
 278 01c6 00F00781 		beq	.L4
 279              		.loc 1 620 3 discriminator 36
 280 01ca 7B68     		ldr	r3, [r7, #4]
 281 01cc 1B68     		ldr	r3, [r3]
 282 01ce 504A     		ldr	r2, .L19+144
 283 01d0 9342     		cmp	r3, r2
 284 01d2 00F00181 		beq	.L4
 285              		.loc 1 620 3 discriminator 37
ARM GAS  /tmp/ccuUFTu8.s 			page 17


 286 01d6 7B68     		ldr	r3, [r7, #4]
 287 01d8 1B68     		ldr	r3, [r3]
 288 01da 4E4A     		ldr	r2, .L19+148
 289 01dc 9342     		cmp	r3, r2
 290 01de 00F0FB80 		beq	.L4
 291              		.loc 1 620 3 discriminator 38
 292 01e2 7B68     		ldr	r3, [r7, #4]
 293 01e4 1B68     		ldr	r3, [r3]
 294 01e6 4C4A     		ldr	r2, .L19+152
 295 01e8 9342     		cmp	r3, r2
 296 01ea 00F0F580 		beq	.L4
 297              		.loc 1 620 3 discriminator 39
 298 01ee 7B68     		ldr	r3, [r7, #4]
 299 01f0 1B68     		ldr	r3, [r3]
 300 01f2 4A4A     		ldr	r2, .L19+156
 301 01f4 9342     		cmp	r3, r2
 302 01f6 00F0EF80 		beq	.L4
 303              		.loc 1 620 3 discriminator 40
 304 01fa 7B68     		ldr	r3, [r7, #4]
 305 01fc 1B68     		ldr	r3, [r3]
 306 01fe 484A     		ldr	r2, .L19+160
 307 0200 9342     		cmp	r3, r2
 308 0202 00F0E980 		beq	.L4
 309              		.loc 1 620 3 discriminator 41
 310 0206 7B68     		ldr	r3, [r7, #4]
 311 0208 1B68     		ldr	r3, [r3]
 312 020a 464A     		ldr	r2, .L19+164
 313 020c 9342     		cmp	r3, r2
 314 020e 00F0E380 		beq	.L4
 315              		.loc 1 620 3 discriminator 42
 316 0212 7B68     		ldr	r3, [r7, #4]
 317 0214 1B68     		ldr	r3, [r3]
 318 0216 444A     		ldr	r2, .L19+168
 319 0218 9342     		cmp	r3, r2
 320 021a 00F0DD80 		beq	.L4
 321              		.loc 1 620 3 discriminator 43
 322 021e 7B68     		ldr	r3, [r7, #4]
 323 0220 1B68     		ldr	r3, [r3]
 324 0222 424A     		ldr	r2, .L19+172
 325 0224 9342     		cmp	r3, r2
 326 0226 00F0D780 		beq	.L4
 327              		.loc 1 620 3 discriminator 44
 328 022a 7B68     		ldr	r3, [r7, #4]
 329 022c 1B68     		ldr	r3, [r3]
 330 022e 404A     		ldr	r2, .L19+176
 331 0230 9342     		cmp	r3, r2
 332 0232 00F0D180 		beq	.L4
 333              		.loc 1 620 3 discriminator 45
 334 0236 7B68     		ldr	r3, [r7, #4]
 335 0238 1B68     		ldr	r3, [r3]
 336 023a 3E4A     		ldr	r2, .L19+180
 337 023c 9342     		cmp	r3, r2
 338 023e 00F0CB80 		beq	.L4
 339              		.loc 1 620 3 discriminator 46
 340 0242 7B68     		ldr	r3, [r7, #4]
 341 0244 1B68     		ldr	r3, [r3]
 342 0246 3C4A     		ldr	r2, .L19+184
ARM GAS  /tmp/ccuUFTu8.s 			page 18


 343 0248 9342     		cmp	r3, r2
 344 024a 00F0C580 		beq	.L4
 345              		.loc 1 620 3 discriminator 47
 346 024e 7B68     		ldr	r3, [r7, #4]
 347 0250 1B68     		ldr	r3, [r3]
 348 0252 3A4A     		ldr	r2, .L19+188
 349 0254 9342     		cmp	r3, r2
 350 0256 00F0BF80 		beq	.L4
 351              		.loc 1 620 3 discriminator 48
 352 025a 7B68     		ldr	r3, [r7, #4]
 353 025c 1B68     		ldr	r3, [r3]
 354 025e 384A     		ldr	r2, .L19+192
 355 0260 9342     		cmp	r3, r2
 356 0262 00F0B980 		beq	.L4
 357              		.loc 1 620 3 discriminator 49
 358 0266 7B68     		ldr	r3, [r7, #4]
 359 0268 1B68     		ldr	r3, [r3]
 360 026a 364A     		ldr	r2, .L19+196
 361 026c 9342     		cmp	r3, r2
 362 026e 00F0B380 		beq	.L4
 363              		.loc 1 620 3 discriminator 50
 364 0272 7B68     		ldr	r3, [r7, #4]
 365 0274 1B68     		ldr	r3, [r3]
 366 0276 344A     		ldr	r2, .L19+200
 367 0278 9342     		cmp	r3, r2
 368 027a 00F0AD80 		beq	.L4
 369 027e 65E0     		b	.L20
 370              	.L21:
 371              		.align	2
 372              	.L19:
 373 0280 50100250 		.word	1342312528
 374 0284 50100240 		.word	1073877072
 375 0288 D0100250 		.word	1342312656
 376 028c D0100240 		.word	1073877200
 377 0290 50110250 		.word	1342312784
 378 0294 50110240 		.word	1073877328
 379 0298 D0110250 		.word	1342312912
 380 029c D0110240 		.word	1073877456
 381 02a0 50120250 		.word	1342313040
 382 02a4 50120240 		.word	1073877584
 383 02a8 D0120250 		.word	1342313168
 384 02ac D0120240 		.word	1073877712
 385 02b0 50130250 		.word	1342313296
 386 02b4 50130240 		.word	1073877840
 387 02b8 D0130250 		.word	1342313424
 388 02bc D0130240 		.word	1073877968
 389 02c0 50140250 		.word	1342313552
 390 02c4 50140240 		.word	1073878096
 391 02c8 D0140250 		.word	1342313680
 392 02cc D0140240 		.word	1073878224
 393 02d0 50150250 		.word	1342313808
 394 02d4 50150240 		.word	1073878352
 395 02d8 D0150250 		.word	1342313936
 396 02dc D0150240 		.word	1073878480
 397 02e0 50160250 		.word	1342314064
 398 02e4 50160240 		.word	1073878608
 399 02e8 D0160250 		.word	1342314192
ARM GAS  /tmp/ccuUFTu8.s 			page 19


 400 02ec D0160240 		.word	1073878736
 401 02f0 50170250 		.word	1342314320
 402 02f4 50170240 		.word	1073878864
 403 02f8 D0170250 		.word	1342314448
 404 02fc D0170240 		.word	1073878992
 405 0300 50000258 		.word	1476526160
 406 0304 50000248 		.word	1208090704
 407 0308 D0000258 		.word	1476526288
 408 030c D0000248 		.word	1208090832
 409 0310 50010258 		.word	1476526416
 410 0314 50010248 		.word	1208090960
 411 0318 D0010258 		.word	1476526544
 412 031c D0010248 		.word	1208091088
 413 0320 50020258 		.word	1476526672
 414 0324 50020248 		.word	1208091216
 415 0328 D0020258 		.word	1476526800
 416 032c D0020248 		.word	1208091344
 417 0330 50030258 		.word	1476526928
 418 0334 50030248 		.word	1208091472
 419 0338 D0030258 		.word	1476527056
 420 033c D0030248 		.word	1208091600
 421 0340 50040258 		.word	1476527184
 422 0344 50040248 		.word	1208091728
 423 0348 D0040258 		.word	1476527312
 424              	.L20:
 425              		.loc 1 620 3 discriminator 51
 426 034c 7B68     		ldr	r3, [r7, #4]
 427 034e 1B68     		ldr	r3, [r3]
 428 0350 8F4A     		ldr	r2, .L22
 429 0352 9342     		cmp	r3, r2
 430 0354 40D0     		beq	.L4
 431              		.loc 1 620 3 discriminator 52
 432 0356 7B68     		ldr	r3, [r7, #4]
 433 0358 1B68     		ldr	r3, [r3]
 434 035a 8E4A     		ldr	r2, .L22+4
 435 035c 9342     		cmp	r3, r2
 436 035e 3BD0     		beq	.L4
 437              		.loc 1 620 3 discriminator 53
 438 0360 7B68     		ldr	r3, [r7, #4]
 439 0362 1B68     		ldr	r3, [r3]
 440 0364 8C4A     		ldr	r2, .L22+8
 441 0366 9342     		cmp	r3, r2
 442 0368 36D0     		beq	.L4
 443              		.loc 1 620 3 discriminator 54
 444 036a 7B68     		ldr	r3, [r7, #4]
 445 036c 1B68     		ldr	r3, [r3]
 446 036e 8B4A     		ldr	r2, .L22+12
 447 0370 9342     		cmp	r3, r2
 448 0372 31D0     		beq	.L4
 449              		.loc 1 620 3 discriminator 55
 450 0374 7B68     		ldr	r3, [r7, #4]
 451 0376 1B68     		ldr	r3, [r3]
 452 0378 894A     		ldr	r2, .L22+16
 453 037a 9342     		cmp	r3, r2
 454 037c 2CD0     		beq	.L4
 455              		.loc 1 620 3 discriminator 56
 456 037e 7B68     		ldr	r3, [r7, #4]
ARM GAS  /tmp/ccuUFTu8.s 			page 20


 457 0380 1B68     		ldr	r3, [r3]
 458 0382 884A     		ldr	r2, .L22+20
 459 0384 9342     		cmp	r3, r2
 460 0386 27D0     		beq	.L4
 461              		.loc 1 620 3 discriminator 57
 462 0388 7B68     		ldr	r3, [r7, #4]
 463 038a 1B68     		ldr	r3, [r3]
 464 038c 864A     		ldr	r2, .L22+24
 465 038e 9342     		cmp	r3, r2
 466 0390 22D0     		beq	.L4
 467              		.loc 1 620 3 discriminator 58
 468 0392 7B68     		ldr	r3, [r7, #4]
 469 0394 1B68     		ldr	r3, [r3]
 470 0396 854A     		ldr	r2, .L22+28
 471 0398 9342     		cmp	r3, r2
 472 039a 1DD0     		beq	.L4
 473              		.loc 1 620 3 discriminator 59
 474 039c 7B68     		ldr	r3, [r7, #4]
 475 039e 1B68     		ldr	r3, [r3]
 476 03a0 834A     		ldr	r2, .L22+32
 477 03a2 9342     		cmp	r3, r2
 478 03a4 18D0     		beq	.L4
 479              		.loc 1 620 3 discriminator 60
 480 03a6 7B68     		ldr	r3, [r7, #4]
 481 03a8 1B68     		ldr	r3, [r3]
 482 03aa 824A     		ldr	r2, .L22+36
 483 03ac 9342     		cmp	r3, r2
 484 03ae 13D0     		beq	.L4
 485              		.loc 1 620 3 discriminator 61
 486 03b0 7B68     		ldr	r3, [r7, #4]
 487 03b2 1B68     		ldr	r3, [r3]
 488 03b4 804A     		ldr	r2, .L22+40
 489 03b6 9342     		cmp	r3, r2
 490 03b8 0ED0     		beq	.L4
 491              		.loc 1 620 3 discriminator 62
 492 03ba 7B68     		ldr	r3, [r7, #4]
 493 03bc 1B68     		ldr	r3, [r3]
 494 03be 7F4A     		ldr	r2, .L22+44
 495 03c0 9342     		cmp	r3, r2
 496 03c2 09D0     		beq	.L4
 497              		.loc 1 620 3 discriminator 63
 498 03c4 7B68     		ldr	r3, [r7, #4]
 499 03c6 1B68     		ldr	r3, [r3]
 500 03c8 7D4A     		ldr	r2, .L22+48
 501 03ca 9342     		cmp	r3, r2
 502 03cc 04D0     		beq	.L4
 503              		.loc 1 620 3 discriminator 64
 504 03ce 4FF41B71 		mov	r1, #620
 505 03d2 7C48     		ldr	r0, .L22+52
 506 03d4 FFF7FEFF 		bl	assert_failed
 507              	.L4:
 621:STM32Cube_FW_N6/Drivers/STM32N6xx_HAL_Driver/Src/stm32n6xx_hal_dma_ex.c ****   assert_param(IS_DMA_PRIORITY(hdma->InitLinkedList.Priority));
 508              		.loc 1 621 3 is_stmt 1
 509 03d8 7B68     		ldr	r3, [r7, #4]
 510 03da 9B6B     		ldr	r3, [r3, #56]
 511 03dc 002B     		cmp	r3, #0
 512 03de 13D0     		beq	.L5
ARM GAS  /tmp/ccuUFTu8.s 			page 21


 513              		.loc 1 621 3 is_stmt 0 discriminator 1
 514 03e0 7B68     		ldr	r3, [r7, #4]
 515 03e2 9B6B     		ldr	r3, [r3, #56]
 516 03e4 B3F5800F 		cmp	r3, #4194304
 517 03e8 0ED0     		beq	.L5
 518              		.loc 1 621 3 discriminator 2
 519 03ea 7B68     		ldr	r3, [r7, #4]
 520 03ec 9B6B     		ldr	r3, [r3, #56]
 521 03ee B3F5000F 		cmp	r3, #8388608
 522 03f2 09D0     		beq	.L5
 523              		.loc 1 621 3 discriminator 3
 524 03f4 7B68     		ldr	r3, [r7, #4]
 525 03f6 9B6B     		ldr	r3, [r3, #56]
 526 03f8 B3F5400F 		cmp	r3, #12582912
 527 03fc 04D0     		beq	.L5
 528              		.loc 1 621 3 discriminator 4
 529 03fe 40F26D21 		movw	r1, #621
 530 0402 7048     		ldr	r0, .L22+52
 531 0404 FFF7FEFF 		bl	assert_failed
 532              	.L5:
 622:STM32Cube_FW_N6/Drivers/STM32N6xx_HAL_Driver/Src/stm32n6xx_hal_dma_ex.c ****   assert_param(IS_DMA_LINK_STEP_MODE(hdma->InitLinkedList.LinkStepMode));
 533              		.loc 1 622 3 is_stmt 1
 534 0408 7B68     		ldr	r3, [r7, #4]
 535 040a DB6B     		ldr	r3, [r3, #60]
 536 040c 002B     		cmp	r3, #0
 537 040e 09D0     		beq	.L6
 538              		.loc 1 622 3 is_stmt 0 discriminator 1
 539 0410 7B68     		ldr	r3, [r7, #4]
 540 0412 DB6B     		ldr	r3, [r3, #60]
 541 0414 B3F5803F 		cmp	r3, #65536
 542 0418 04D0     		beq	.L6
 543              		.loc 1 622 3 discriminator 2
 544 041a 40F26E21 		movw	r1, #622
 545 041e 6948     		ldr	r0, .L22+52
 546 0420 FFF7FEFF 		bl	assert_failed
 547              	.L6:
 623:STM32Cube_FW_N6/Drivers/STM32N6xx_HAL_Driver/Src/stm32n6xx_hal_dma_ex.c ****   assert_param(IS_DMA_TCEM_LINKEDLIST_EVENT_MODE(hdma->InitLinkedList.TransferEventMode));
 548              		.loc 1 623 3 is_stmt 1
 549 0424 7B68     		ldr	r3, [r7, #4]
 550 0426 5B6C     		ldr	r3, [r3, #68]
 551 0428 002B     		cmp	r3, #0
 552 042a 13D0     		beq	.L7
 553              		.loc 1 623 3 is_stmt 0 discriminator 1
 554 042c 7B68     		ldr	r3, [r7, #4]
 555 042e 5B6C     		ldr	r3, [r3, #68]
 556 0430 B3F1804F 		cmp	r3, #1073741824
 557 0434 0ED0     		beq	.L7
 558              		.loc 1 623 3 discriminator 2
 559 0436 7B68     		ldr	r3, [r7, #4]
 560 0438 5B6C     		ldr	r3, [r3, #68]
 561 043a B3F1004F 		cmp	r3, #-2147483648
 562 043e 09D0     		beq	.L7
 563              		.loc 1 623 3 discriminator 3
 564 0440 7B68     		ldr	r3, [r7, #4]
 565 0442 5B6C     		ldr	r3, [r3, #68]
 566 0444 B3F1404F 		cmp	r3, #-1073741824
 567 0448 04D0     		beq	.L7
ARM GAS  /tmp/ccuUFTu8.s 			page 22


 568              		.loc 1 623 3 discriminator 4
 569 044a 40F26F21 		movw	r1, #623
 570 044e 5D48     		ldr	r0, .L22+52
 571 0450 FFF7FEFF 		bl	assert_failed
 572              	.L7:
 624:STM32Cube_FW_N6/Drivers/STM32N6xx_HAL_Driver/Src/stm32n6xx_hal_dma_ex.c ****   assert_param(IS_DMA_LINKEDLIST_MODE(hdma->InitLinkedList.LinkedListMode));
 573              		.loc 1 624 3 is_stmt 1
 574 0454 7B68     		ldr	r3, [r7, #4]
 575 0456 9B6C     		ldr	r3, [r3, #72]
 576 0458 802B     		cmp	r3, #128
 577 045a 08D0     		beq	.L8
 578              		.loc 1 624 3 is_stmt 0 discriminator 1
 579 045c 7B68     		ldr	r3, [r7, #4]
 580 045e 9B6C     		ldr	r3, [r3, #72]
 581 0460 812B     		cmp	r3, #129
 582 0462 04D0     		beq	.L8
 583              		.loc 1 624 3 discriminator 2
 584 0464 4FF41C71 		mov	r1, #624
 585 0468 5648     		ldr	r0, .L22+52
 586 046a FFF7FEFF 		bl	assert_failed
 587              	.L8:
 625:STM32Cube_FW_N6/Drivers/STM32N6xx_HAL_Driver/Src/stm32n6xx_hal_dma_ex.c ****   /* Check DMA channel instance */
 626:STM32Cube_FW_N6/Drivers/STM32N6xx_HAL_Driver/Src/stm32n6xx_hal_dma_ex.c ****   if ((IS_HPDMA_INSTANCE(hdma->Instance) != 0U) || (IS_GPDMA_INSTANCE(hdma->Instance) != 0U))
 588              		.loc 1 626 8 is_stmt 1
 589 046e 7B68     		ldr	r3, [r7, #4]
 590 0470 1B68     		ldr	r3, [r3]
 591 0472 554A     		ldr	r2, .L22+56
 592 0474 9342     		cmp	r3, r2
 593 0476 00F0F180 		beq	.L9
 594              		.loc 1 626 8 is_stmt 0 discriminator 2
 595 047a 7B68     		ldr	r3, [r7, #4]
 596 047c 1B68     		ldr	r3, [r3]
 597 047e 534A     		ldr	r2, .L22+60
 598 0480 9342     		cmp	r3, r2
 599 0482 00F0EB80 		beq	.L9
 600              		.loc 1 626 8 discriminator 4
 601 0486 7B68     		ldr	r3, [r7, #4]
 602 0488 1B68     		ldr	r3, [r3]
 603 048a 514A     		ldr	r2, .L22+64
 604 048c 9342     		cmp	r3, r2
 605 048e 00F0E580 		beq	.L9
 606              		.loc 1 626 8 discriminator 6
 607 0492 7B68     		ldr	r3, [r7, #4]
 608 0494 1B68     		ldr	r3, [r3]
 609 0496 4F4A     		ldr	r2, .L22+68
 610 0498 9342     		cmp	r3, r2
 611 049a 00F0DF80 		beq	.L9
 612              		.loc 1 626 8 discriminator 8
 613 049e 7B68     		ldr	r3, [r7, #4]
 614 04a0 1B68     		ldr	r3, [r3]
 615 04a2 4D4A     		ldr	r2, .L22+72
 616 04a4 9342     		cmp	r3, r2
 617 04a6 00F0D980 		beq	.L9
 618              		.loc 1 626 8 discriminator 10
 619 04aa 7B68     		ldr	r3, [r7, #4]
 620 04ac 1B68     		ldr	r3, [r3]
 621 04ae 4B4A     		ldr	r2, .L22+76
ARM GAS  /tmp/ccuUFTu8.s 			page 23


 622 04b0 9342     		cmp	r3, r2
 623 04b2 00F0D380 		beq	.L9
 624              		.loc 1 626 8 discriminator 12
 625 04b6 7B68     		ldr	r3, [r7, #4]
 626 04b8 1B68     		ldr	r3, [r3]
 627 04ba 494A     		ldr	r2, .L22+80
 628 04bc 9342     		cmp	r3, r2
 629 04be 00F0CD80 		beq	.L9
 630              		.loc 1 626 8 discriminator 14
 631 04c2 7B68     		ldr	r3, [r7, #4]
 632 04c4 1B68     		ldr	r3, [r3]
 633 04c6 474A     		ldr	r2, .L22+84
 634 04c8 9342     		cmp	r3, r2
 635 04ca 00F0C780 		beq	.L9
 636              		.loc 1 626 8 discriminator 16
 637 04ce 7B68     		ldr	r3, [r7, #4]
 638 04d0 1B68     		ldr	r3, [r3]
 639 04d2 454A     		ldr	r2, .L22+88
 640 04d4 9342     		cmp	r3, r2
 641 04d6 00F0C180 		beq	.L9
 642              		.loc 1 626 8 discriminator 18
 643 04da 7B68     		ldr	r3, [r7, #4]
 644 04dc 1B68     		ldr	r3, [r3]
 645 04de 434A     		ldr	r2, .L22+92
 646 04e0 9342     		cmp	r3, r2
 647 04e2 00F0BB80 		beq	.L9
 648              		.loc 1 626 8 discriminator 20
 649 04e6 7B68     		ldr	r3, [r7, #4]
 650 04e8 1B68     		ldr	r3, [r3]
 651 04ea 414A     		ldr	r2, .L22+96
 652 04ec 9342     		cmp	r3, r2
 653 04ee 00F0B580 		beq	.L9
 654              		.loc 1 626 8 discriminator 22
 655 04f2 7B68     		ldr	r3, [r7, #4]
 656 04f4 1B68     		ldr	r3, [r3]
 657 04f6 3F4A     		ldr	r2, .L22+100
 658 04f8 9342     		cmp	r3, r2
 659 04fa 00F0AF80 		beq	.L9
 660              		.loc 1 626 8 discriminator 24
 661 04fe 7B68     		ldr	r3, [r7, #4]
 662 0500 1B68     		ldr	r3, [r3]
 663 0502 3D4A     		ldr	r2, .L22+104
 664 0504 9342     		cmp	r3, r2
 665 0506 00F0A980 		beq	.L9
 666              		.loc 1 626 8 discriminator 26
 667 050a 7B68     		ldr	r3, [r7, #4]
 668 050c 1B68     		ldr	r3, [r3]
 669 050e 3B4A     		ldr	r2, .L22+108
 670 0510 9342     		cmp	r3, r2
 671 0512 00F0A380 		beq	.L9
 672              		.loc 1 626 8 discriminator 28
 673 0516 7B68     		ldr	r3, [r7, #4]
 674 0518 1B68     		ldr	r3, [r3]
 675 051a 394A     		ldr	r2, .L22+112
 676 051c 9342     		cmp	r3, r2
 677 051e 00F09D80 		beq	.L9
 678              		.loc 1 626 8 discriminator 30
ARM GAS  /tmp/ccuUFTu8.s 			page 24


 679 0522 7B68     		ldr	r3, [r7, #4]
 680 0524 1B68     		ldr	r3, [r3]
 681 0526 374A     		ldr	r2, .L22+116
 682 0528 9342     		cmp	r3, r2
 683 052a 00F09780 		beq	.L9
 684              		.loc 1 626 8 discriminator 32
 685 052e 7B68     		ldr	r3, [r7, #4]
 686 0530 1B68     		ldr	r3, [r3]
 687 0532 354A     		ldr	r2, .L22+120
 688 0534 9342     		cmp	r3, r2
 689 0536 00F09180 		beq	.L9
 690              		.loc 1 626 8 discriminator 34
 691 053a 7B68     		ldr	r3, [r7, #4]
 692 053c 1B68     		ldr	r3, [r3]
 693 053e 334A     		ldr	r2, .L22+124
 694 0540 9342     		cmp	r3, r2
 695 0542 00F08B80 		beq	.L9
 696              		.loc 1 626 8 discriminator 36
 697 0546 7B68     		ldr	r3, [r7, #4]
 698 0548 1B68     		ldr	r3, [r3]
 699 054a 314A     		ldr	r2, .L22+128
 700 054c 9342     		cmp	r3, r2
 701 054e 00F08580 		beq	.L9
 702              		.loc 1 626 8 discriminator 38
 703 0552 7B68     		ldr	r3, [r7, #4]
 704 0554 1B68     		ldr	r3, [r3]
 705 0556 0E4A     		ldr	r2, .L22
 706 0558 9342     		cmp	r3, r2
 707 055a 7FD0     		beq	.L9
 708              		.loc 1 626 8 discriminator 40
 709 055c 7B68     		ldr	r3, [r7, #4]
 710 055e 1B68     		ldr	r3, [r3]
 711 0560 0C4A     		ldr	r2, .L22+4
 712 0562 9342     		cmp	r3, r2
 713 0564 7AD0     		beq	.L9
 714              		.loc 1 626 8 discriminator 42
 715 0566 7B68     		ldr	r3, [r7, #4]
 716 0568 1B68     		ldr	r3, [r3]
 717 056a 0B4A     		ldr	r2, .L22+8
 718 056c 9342     		cmp	r3, r2
 719 056e 75D0     		beq	.L9
 720              		.loc 1 626 8 discriminator 44
 721 0570 7B68     		ldr	r3, [r7, #4]
 722 0572 1B68     		ldr	r3, [r3]
 723 0574 094A     		ldr	r2, .L22+12
 724 0576 9342     		cmp	r3, r2
 725 0578 70D0     		beq	.L9
 726              		.loc 1 626 8 discriminator 46
 727 057a 7B68     		ldr	r3, [r7, #4]
 728 057c 1B68     		ldr	r3, [r3]
 729 057e 084A     		ldr	r2, .L22+16
 730 0580 9342     		cmp	r3, r2
 731 0582 6BD0     		beq	.L9
 732              		.loc 1 626 8 discriminator 48
 733 0584 7B68     		ldr	r3, [r7, #4]
 734 0586 1B68     		ldr	r3, [r3]
 735 0588 064A     		ldr	r2, .L22+20
ARM GAS  /tmp/ccuUFTu8.s 			page 25


 736 058a 9342     		cmp	r3, r2
 737 058c 42E0     		b	.L23
 738              	.L24:
 739 058e 00BF     		.align	2
 740              	.L22:
 741 0590 D0040248 		.word	1208091856
 742 0594 50050258 		.word	1476527440
 743 0598 50050248 		.word	1208091984
 744 059c D0050258 		.word	1476527568
 745 05a0 D0050248 		.word	1208092112
 746 05a4 50060258 		.word	1476527696
 747 05a8 50060248 		.word	1208092240
 748 05ac D0060258 		.word	1476527824
 749 05b0 D0060248 		.word	1208092368
 750 05b4 50070258 		.word	1476527952
 751 05b8 50070248 		.word	1208092496
 752 05bc D0070258 		.word	1476528080
 753 05c0 D0070248 		.word	1208092624
 754 05c4 00000000 		.word	.LC1
 755 05c8 50000258 		.word	1476526160
 756 05cc 50000248 		.word	1208090704
 757 05d0 D0000258 		.word	1476526288
 758 05d4 D0000248 		.word	1208090832
 759 05d8 50010258 		.word	1476526416
 760 05dc 50010248 		.word	1208090960
 761 05e0 D0010258 		.word	1476526544
 762 05e4 D0010248 		.word	1208091088
 763 05e8 50020258 		.word	1476526672
 764 05ec 50020248 		.word	1208091216
 765 05f0 D0020258 		.word	1476526800
 766 05f4 D0020248 		.word	1208091344
 767 05f8 50030258 		.word	1476526928
 768 05fc 50030248 		.word	1208091472
 769 0600 D0030258 		.word	1476527056
 770 0604 D0030248 		.word	1208091600
 771 0608 50040258 		.word	1476527184
 772 060c 50040248 		.word	1208091728
 773 0610 D0040258 		.word	1476527312
 774              	.L23:
 775 0614 22D0     		beq	.L9
 776              		.loc 1 626 8 discriminator 50
 777 0616 7B68     		ldr	r3, [r7, #4]
 778 0618 1B68     		ldr	r3, [r3]
 779 061a 8C4A     		ldr	r2, .L25
 780 061c 9342     		cmp	r3, r2
 781 061e 1DD0     		beq	.L9
 782              		.loc 1 626 8 discriminator 52
 783 0620 7B68     		ldr	r3, [r7, #4]
 784 0622 1B68     		ldr	r3, [r3]
 785 0624 8A4A     		ldr	r2, .L25+4
 786 0626 9342     		cmp	r3, r2
 787 0628 18D0     		beq	.L9
 788              		.loc 1 626 8 discriminator 54
 789 062a 7B68     		ldr	r3, [r7, #4]
 790 062c 1B68     		ldr	r3, [r3]
 791 062e 894A     		ldr	r2, .L25+8
 792 0630 9342     		cmp	r3, r2
ARM GAS  /tmp/ccuUFTu8.s 			page 26


 793 0632 13D0     		beq	.L9
 794              		.loc 1 626 8 discriminator 56
 795 0634 7B68     		ldr	r3, [r7, #4]
 796 0636 1B68     		ldr	r3, [r3]
 797 0638 874A     		ldr	r2, .L25+12
 798 063a 9342     		cmp	r3, r2
 799 063c 0ED0     		beq	.L9
 800              		.loc 1 626 8 discriminator 58
 801 063e 7B68     		ldr	r3, [r7, #4]
 802 0640 1B68     		ldr	r3, [r3]
 803 0642 864A     		ldr	r2, .L25+16
 804 0644 9342     		cmp	r3, r2
 805 0646 09D0     		beq	.L9
 806              		.loc 1 626 8 discriminator 60
 807 0648 7B68     		ldr	r3, [r7, #4]
 808 064a 1B68     		ldr	r3, [r3]
 809 064c 844A     		ldr	r2, .L25+20
 810 064e 9342     		cmp	r3, r2
 811 0650 04D0     		beq	.L9
 812              		.loc 1 626 8 discriminator 62
 813 0652 7B68     		ldr	r3, [r7, #4]
 814 0654 1B68     		ldr	r3, [r3]
 815 0656 834A     		ldr	r2, .L25+24
 816 0658 9342     		cmp	r3, r2
 817 065a 01D1     		bne	.L10
 818              	.L9:
 819              		.loc 1 626 8 discriminator 63
 820 065c 0123     		movs	r3, #1
 821              		.loc 1 626 8
 822 065e 00E0     		b	.L11
 823              	.L10:
 824              		.loc 1 626 8 discriminator 64
 825 0660 0023     		movs	r3, #0
 826              	.L11:
 827              		.loc 1 626 6 is_stmt 1 discriminator 66
 828 0662 002B     		cmp	r3, #0
 829 0664 40F0AB80 		bne	.L12
 830              		.loc 1 626 53 discriminator 67
 831 0668 7B68     		ldr	r3, [r7, #4]
 832 066a 1B68     		ldr	r3, [r3]
 833 066c 7E4A     		ldr	r2, .L25+28
 834 066e 9342     		cmp	r3, r2
 835 0670 00F0A080 		beq	.L13
 836              		.loc 1 626 53 is_stmt 0 discriminator 69
 837 0674 7B68     		ldr	r3, [r7, #4]
 838 0676 1B68     		ldr	r3, [r3]
 839 0678 7C4A     		ldr	r2, .L25+32
 840 067a 9342     		cmp	r3, r2
 841 067c 00F09A80 		beq	.L13
 842              		.loc 1 626 53 discriminator 71
 843 0680 7B68     		ldr	r3, [r7, #4]
 844 0682 1B68     		ldr	r3, [r3]
 845 0684 7A4A     		ldr	r2, .L25+36
 846 0686 9342     		cmp	r3, r2
 847 0688 00F09480 		beq	.L13
 848              		.loc 1 626 53 discriminator 73
 849 068c 7B68     		ldr	r3, [r7, #4]
ARM GAS  /tmp/ccuUFTu8.s 			page 27


 850 068e 1B68     		ldr	r3, [r3]
 851 0690 784A     		ldr	r2, .L25+40
 852 0692 9342     		cmp	r3, r2
 853 0694 00F08E80 		beq	.L13
 854              		.loc 1 626 53 discriminator 75
 855 0698 7B68     		ldr	r3, [r7, #4]
 856 069a 1B68     		ldr	r3, [r3]
 857 069c 764A     		ldr	r2, .L25+44
 858 069e 9342     		cmp	r3, r2
 859 06a0 00F08880 		beq	.L13
 860              		.loc 1 626 53 discriminator 77
 861 06a4 7B68     		ldr	r3, [r7, #4]
 862 06a6 1B68     		ldr	r3, [r3]
 863 06a8 744A     		ldr	r2, .L25+48
 864 06aa 9342     		cmp	r3, r2
 865 06ac 00F08280 		beq	.L13
 866              		.loc 1 626 53 discriminator 79
 867 06b0 7B68     		ldr	r3, [r7, #4]
 868 06b2 1B68     		ldr	r3, [r3]
 869 06b4 724A     		ldr	r2, .L25+52
 870 06b6 9342     		cmp	r3, r2
 871 06b8 7CD0     		beq	.L13
 872              		.loc 1 626 53 discriminator 81
 873 06ba 7B68     		ldr	r3, [r7, #4]
 874 06bc 1B68     		ldr	r3, [r3]
 875 06be 714A     		ldr	r2, .L25+56
 876 06c0 9342     		cmp	r3, r2
 877 06c2 77D0     		beq	.L13
 878              		.loc 1 626 53 discriminator 83
 879 06c4 7B68     		ldr	r3, [r7, #4]
 880 06c6 1B68     		ldr	r3, [r3]
 881 06c8 6F4A     		ldr	r2, .L25+60
 882 06ca 9342     		cmp	r3, r2
 883 06cc 72D0     		beq	.L13
 884              		.loc 1 626 53 discriminator 85
 885 06ce 7B68     		ldr	r3, [r7, #4]
 886 06d0 1B68     		ldr	r3, [r3]
 887 06d2 6E4A     		ldr	r2, .L25+64
 888 06d4 9342     		cmp	r3, r2
 889 06d6 6DD0     		beq	.L13
 890              		.loc 1 626 53 discriminator 87
 891 06d8 7B68     		ldr	r3, [r7, #4]
 892 06da 1B68     		ldr	r3, [r3]
 893 06dc 6C4A     		ldr	r2, .L25+68
 894 06de 9342     		cmp	r3, r2
 895 06e0 68D0     		beq	.L13
 896              		.loc 1 626 53 discriminator 89
 897 06e2 7B68     		ldr	r3, [r7, #4]
 898 06e4 1B68     		ldr	r3, [r3]
 899 06e6 6B4A     		ldr	r2, .L25+72
 900 06e8 9342     		cmp	r3, r2
 901 06ea 63D0     		beq	.L13
 902              		.loc 1 626 53 discriminator 91
 903 06ec 7B68     		ldr	r3, [r7, #4]
 904 06ee 1B68     		ldr	r3, [r3]
 905 06f0 694A     		ldr	r2, .L25+76
 906 06f2 9342     		cmp	r3, r2
ARM GAS  /tmp/ccuUFTu8.s 			page 28


 907 06f4 5ED0     		beq	.L13
 908              		.loc 1 626 53 discriminator 93
 909 06f6 7B68     		ldr	r3, [r7, #4]
 910 06f8 1B68     		ldr	r3, [r3]
 911 06fa 684A     		ldr	r2, .L25+80
 912 06fc 9342     		cmp	r3, r2
 913 06fe 59D0     		beq	.L13
 914              		.loc 1 626 53 discriminator 95
 915 0700 7B68     		ldr	r3, [r7, #4]
 916 0702 1B68     		ldr	r3, [r3]
 917 0704 664A     		ldr	r2, .L25+84
 918 0706 9342     		cmp	r3, r2
 919 0708 54D0     		beq	.L13
 920              		.loc 1 626 53 discriminator 97
 921 070a 7B68     		ldr	r3, [r7, #4]
 922 070c 1B68     		ldr	r3, [r3]
 923 070e 654A     		ldr	r2, .L25+88
 924 0710 9342     		cmp	r3, r2
 925 0712 4FD0     		beq	.L13
 926              		.loc 1 626 53 discriminator 99
 927 0714 7B68     		ldr	r3, [r7, #4]
 928 0716 1B68     		ldr	r3, [r3]
 929 0718 634A     		ldr	r2, .L25+92
 930 071a 9342     		cmp	r3, r2
 931 071c 4AD0     		beq	.L13
 932              		.loc 1 626 53 discriminator 101
 933 071e 7B68     		ldr	r3, [r7, #4]
 934 0720 1B68     		ldr	r3, [r3]
 935 0722 624A     		ldr	r2, .L25+96
 936 0724 9342     		cmp	r3, r2
 937 0726 45D0     		beq	.L13
 938              		.loc 1 626 53 discriminator 103
 939 0728 7B68     		ldr	r3, [r7, #4]
 940 072a 1B68     		ldr	r3, [r3]
 941 072c 604A     		ldr	r2, .L25+100
 942 072e 9342     		cmp	r3, r2
 943 0730 40D0     		beq	.L13
 944              		.loc 1 626 53 discriminator 105
 945 0732 7B68     		ldr	r3, [r7, #4]
 946 0734 1B68     		ldr	r3, [r3]
 947 0736 5F4A     		ldr	r2, .L25+104
 948 0738 9342     		cmp	r3, r2
 949 073a 3BD0     		beq	.L13
 950              		.loc 1 626 53 discriminator 107
 951 073c 7B68     		ldr	r3, [r7, #4]
 952 073e 1B68     		ldr	r3, [r3]
 953 0740 5D4A     		ldr	r2, .L25+108
 954 0742 9342     		cmp	r3, r2
 955 0744 36D0     		beq	.L13
 956              		.loc 1 626 53 discriminator 109
 957 0746 7B68     		ldr	r3, [r7, #4]
 958 0748 1B68     		ldr	r3, [r3]
 959 074a 5C4A     		ldr	r2, .L25+112
 960 074c 9342     		cmp	r3, r2
 961 074e 31D0     		beq	.L13
 962              		.loc 1 626 53 discriminator 111
 963 0750 7B68     		ldr	r3, [r7, #4]
ARM GAS  /tmp/ccuUFTu8.s 			page 29


 964 0752 1B68     		ldr	r3, [r3]
 965 0754 5A4A     		ldr	r2, .L25+116
 966 0756 9342     		cmp	r3, r2
 967 0758 2CD0     		beq	.L13
 968              		.loc 1 626 53 discriminator 113
 969 075a 7B68     		ldr	r3, [r7, #4]
 970 075c 1B68     		ldr	r3, [r3]
 971 075e 594A     		ldr	r2, .L25+120
 972 0760 9342     		cmp	r3, r2
 973 0762 27D0     		beq	.L13
 974              		.loc 1 626 53 discriminator 115
 975 0764 7B68     		ldr	r3, [r7, #4]
 976 0766 1B68     		ldr	r3, [r3]
 977 0768 574A     		ldr	r2, .L25+124
 978 076a 9342     		cmp	r3, r2
 979 076c 22D0     		beq	.L13
 980              		.loc 1 626 53 discriminator 117
 981 076e 7B68     		ldr	r3, [r7, #4]
 982 0770 1B68     		ldr	r3, [r3]
 983 0772 564A     		ldr	r2, .L25+128
 984 0774 9342     		cmp	r3, r2
 985 0776 1DD0     		beq	.L13
 986              		.loc 1 626 53 discriminator 119
 987 0778 7B68     		ldr	r3, [r7, #4]
 988 077a 1B68     		ldr	r3, [r3]
 989 077c 544A     		ldr	r2, .L25+132
 990 077e 9342     		cmp	r3, r2
 991 0780 18D0     		beq	.L13
 992              		.loc 1 626 53 discriminator 121
 993 0782 7B68     		ldr	r3, [r7, #4]
 994 0784 1B68     		ldr	r3, [r3]
 995 0786 534A     		ldr	r2, .L25+136
 996 0788 9342     		cmp	r3, r2
 997 078a 13D0     		beq	.L13
 998              		.loc 1 626 53 discriminator 123
 999 078c 7B68     		ldr	r3, [r7, #4]
 1000 078e 1B68     		ldr	r3, [r3]
 1001 0790 514A     		ldr	r2, .L25+140
 1002 0792 9342     		cmp	r3, r2
 1003 0794 0ED0     		beq	.L13
 1004              		.loc 1 626 53 discriminator 125
 1005 0796 7B68     		ldr	r3, [r7, #4]
 1006 0798 1B68     		ldr	r3, [r3]
 1007 079a 504A     		ldr	r2, .L25+144
 1008 079c 9342     		cmp	r3, r2
 1009 079e 09D0     		beq	.L13
 1010              		.loc 1 626 53 discriminator 127
 1011 07a0 7B68     		ldr	r3, [r7, #4]
 1012 07a2 1B68     		ldr	r3, [r3]
 1013 07a4 4E4A     		ldr	r2, .L25+148
 1014 07a6 9342     		cmp	r3, r2
 1015 07a8 04D0     		beq	.L13
 1016              		.loc 1 626 53 discriminator 129
 1017 07aa 7B68     		ldr	r3, [r7, #4]
 1018 07ac 1B68     		ldr	r3, [r3]
 1019 07ae 4D4A     		ldr	r2, .L25+152
 1020 07b0 9342     		cmp	r3, r2
ARM GAS  /tmp/ccuUFTu8.s 			page 30


 1021 07b2 01D1     		bne	.L14
 1022              	.L13:
 1023              		.loc 1 626 53 discriminator 130
 1024 07b4 0123     		movs	r3, #1
 1025              		.loc 1 626 53
 1026 07b6 00E0     		b	.L15
 1027              	.L14:
 1028              		.loc 1 626 53 discriminator 131
 1029 07b8 0023     		movs	r3, #0
 1030              	.L15:
 1031              		.loc 1 626 49 is_stmt 1 discriminator 133
 1032 07ba 002B     		cmp	r3, #0
 1033 07bc 0AD0     		beq	.L16
 1034              	.L12:
 627:STM32Cube_FW_N6/Drivers/STM32N6xx_HAL_Driver/Src/stm32n6xx_hal_dma_ex.c ****   {
 628:STM32Cube_FW_N6/Drivers/STM32N6xx_HAL_Driver/Src/stm32n6xx_hal_dma_ex.c ****     assert_param(IS_DMA_LINK_ALLOCATED_PORT(hdma->InitLinkedList.LinkAllocatedPort));
 1035              		.loc 1 628 5
 1036 07be 7B68     		ldr	r3, [r7, #4]
 1037 07c0 1B6C     		ldr	r3, [r3, #64]
 1038 07c2 23F40033 		bic	r3, r3, #131072
 1039 07c6 002B     		cmp	r3, #0
 1040 07c8 04D0     		beq	.L16
 1041              		.loc 1 628 5 is_stmt 0 discriminator 1
 1042 07ca 4FF41D71 		mov	r1, #628
 1043 07ce 4648     		ldr	r0, .L25+156
 1044 07d0 FFF7FEFF 		bl	assert_failed
 1045              	.L16:
 629:STM32Cube_FW_N6/Drivers/STM32N6xx_HAL_Driver/Src/stm32n6xx_hal_dma_ex.c ****   }
 630:STM32Cube_FW_N6/Drivers/STM32N6xx_HAL_Driver/Src/stm32n6xx_hal_dma_ex.c **** 
 631:STM32Cube_FW_N6/Drivers/STM32N6xx_HAL_Driver/Src/stm32n6xx_hal_dma_ex.c ****   /* Allocate lock resource */
 632:STM32Cube_FW_N6/Drivers/STM32N6xx_HAL_Driver/Src/stm32n6xx_hal_dma_ex.c ****   __HAL_UNLOCK(hdma);
 1046              		.loc 1 632 3 is_stmt 1
 1047 07d4 7B68     		ldr	r3, [r7, #4]
 1048 07d6 0022     		movs	r2, #0
 1049 07d8 83F84C20 		strb	r2, [r3, #76]
 633:STM32Cube_FW_N6/Drivers/STM32N6xx_HAL_Driver/Src/stm32n6xx_hal_dma_ex.c **** 
 634:STM32Cube_FW_N6/Drivers/STM32N6xx_HAL_Driver/Src/stm32n6xx_hal_dma_ex.c ****   /* Change DMA peripheral state */
 635:STM32Cube_FW_N6/Drivers/STM32N6xx_HAL_Driver/Src/stm32n6xx_hal_dma_ex.c ****   hdma->State = HAL_DMA_STATE_BUSY;
 1050              		.loc 1 635 15
 1051 07dc 7B68     		ldr	r3, [r7, #4]
 1052 07de 0222     		movs	r2, #2
 1053 07e0 83F85420 		strb	r2, [r3, #84]
 636:STM32Cube_FW_N6/Drivers/STM32N6xx_HAL_Driver/Src/stm32n6xx_hal_dma_ex.c **** 
 637:STM32Cube_FW_N6/Drivers/STM32N6xx_HAL_Driver/Src/stm32n6xx_hal_dma_ex.c ****   /* Disable the DMA channel */
 638:STM32Cube_FW_N6/Drivers/STM32N6xx_HAL_Driver/Src/stm32n6xx_hal_dma_ex.c ****   __HAL_DMA_DISABLE(hdma);
 1054              		.loc 1 638 3
 1055 07e4 7B68     		ldr	r3, [r7, #4]
 1056 07e6 1B68     		ldr	r3, [r3]
 1057 07e8 5A69     		ldr	r2, [r3, #20]
 1058 07ea 7B68     		ldr	r3, [r7, #4]
 1059 07ec 1B68     		ldr	r3, [r3]
 1060 07ee 42F00602 		orr	r2, r2, #6
 1061 07f2 5A61     		str	r2, [r3, #20]
 639:STM32Cube_FW_N6/Drivers/STM32N6xx_HAL_Driver/Src/stm32n6xx_hal_dma_ex.c **** 
 640:STM32Cube_FW_N6/Drivers/STM32N6xx_HAL_Driver/Src/stm32n6xx_hal_dma_ex.c ****   /* Check if the DMA channel is effectively disabled */
 641:STM32Cube_FW_N6/Drivers/STM32N6xx_HAL_Driver/Src/stm32n6xx_hal_dma_ex.c ****   while ((hdma->Instance->CCR & DMA_CCR_EN) != 0U)
 1062              		.loc 1 641 9
ARM GAS  /tmp/ccuUFTu8.s 			page 31


 1063 07f4 0FE0     		b	.L17
 1064              	.L18:
 642:STM32Cube_FW_N6/Drivers/STM32N6xx_HAL_Driver/Src/stm32n6xx_hal_dma_ex.c ****   {
 643:STM32Cube_FW_N6/Drivers/STM32N6xx_HAL_Driver/Src/stm32n6xx_hal_dma_ex.c ****     /* Check for the Timeout */
 644:STM32Cube_FW_N6/Drivers/STM32N6xx_HAL_Driver/Src/stm32n6xx_hal_dma_ex.c ****     if ((HAL_GetTick() - tickstart) > HAL_TIMEOUT_DMA_ABORT)
 1065              		.loc 1 644 10
 1066 07f6 FFF7FEFF 		bl	HAL_GetTick
 1067 07fa 0246     		mov	r2, r0
 1068              		.loc 1 644 24 discriminator 1
 1069 07fc FB68     		ldr	r3, [r7, #12]
 1070 07fe D31A     		subs	r3, r2, r3
 1071              		.loc 1 644 8 discriminator 1
 1072 0800 052B     		cmp	r3, #5
 1073 0802 08D9     		bls	.L17
 645:STM32Cube_FW_N6/Drivers/STM32N6xx_HAL_Driver/Src/stm32n6xx_hal_dma_ex.c ****     {
 646:STM32Cube_FW_N6/Drivers/STM32N6xx_HAL_Driver/Src/stm32n6xx_hal_dma_ex.c ****       /* Update error code */
 647:STM32Cube_FW_N6/Drivers/STM32N6xx_HAL_Driver/Src/stm32n6xx_hal_dma_ex.c ****       hdma->ErrorCode = HAL_DMA_ERROR_TIMEOUT;
 1074              		.loc 1 647 23
 1075 0804 7B68     		ldr	r3, [r7, #4]
 1076 0806 1022     		movs	r2, #16
 1077 0808 9A65     		str	r2, [r3, #88]
 648:STM32Cube_FW_N6/Drivers/STM32N6xx_HAL_Driver/Src/stm32n6xx_hal_dma_ex.c **** 
 649:STM32Cube_FW_N6/Drivers/STM32N6xx_HAL_Driver/Src/stm32n6xx_hal_dma_ex.c ****       /* Change the DMA state */
 650:STM32Cube_FW_N6/Drivers/STM32N6xx_HAL_Driver/Src/stm32n6xx_hal_dma_ex.c ****       hdma->State = HAL_DMA_STATE_ERROR;
 1078              		.loc 1 650 19
 1079 080a 7B68     		ldr	r3, [r7, #4]
 1080 080c 0322     		movs	r2, #3
 1081 080e 83F85420 		strb	r2, [r3, #84]
 651:STM32Cube_FW_N6/Drivers/STM32N6xx_HAL_Driver/Src/stm32n6xx_hal_dma_ex.c **** 
 652:STM32Cube_FW_N6/Drivers/STM32N6xx_HAL_Driver/Src/stm32n6xx_hal_dma_ex.c ****       return HAL_ERROR;
 1082              		.loc 1 652 14
 1083 0812 0123     		movs	r3, #1
 1084 0814 15E0     		b	.L3
 1085              	.L17:
 641:STM32Cube_FW_N6/Drivers/STM32N6xx_HAL_Driver/Src/stm32n6xx_hal_dma_ex.c ****   {
 1086              		.loc 1 641 15
 1087 0816 7B68     		ldr	r3, [r7, #4]
 1088 0818 1B68     		ldr	r3, [r3]
 641:STM32Cube_FW_N6/Drivers/STM32N6xx_HAL_Driver/Src/stm32n6xx_hal_dma_ex.c ****   {
 1089              		.loc 1 641 25
 1090 081a 5B69     		ldr	r3, [r3, #20]
 641:STM32Cube_FW_N6/Drivers/STM32N6xx_HAL_Driver/Src/stm32n6xx_hal_dma_ex.c ****   {
 1091              		.loc 1 641 31
 1092 081c 03F00103 		and	r3, r3, #1
 641:STM32Cube_FW_N6/Drivers/STM32N6xx_HAL_Driver/Src/stm32n6xx_hal_dma_ex.c ****   {
 1093              		.loc 1 641 45
 1094 0820 002B     		cmp	r3, #0
 1095 0822 E8D1     		bne	.L18
 653:STM32Cube_FW_N6/Drivers/STM32N6xx_HAL_Driver/Src/stm32n6xx_hal_dma_ex.c ****     }
 654:STM32Cube_FW_N6/Drivers/STM32N6xx_HAL_Driver/Src/stm32n6xx_hal_dma_ex.c ****   }
 655:STM32Cube_FW_N6/Drivers/STM32N6xx_HAL_Driver/Src/stm32n6xx_hal_dma_ex.c **** 
 656:STM32Cube_FW_N6/Drivers/STM32N6xx_HAL_Driver/Src/stm32n6xx_hal_dma_ex.c ****   /* Initialize the DMA channel registers */
 657:STM32Cube_FW_N6/Drivers/STM32N6xx_HAL_Driver/Src/stm32n6xx_hal_dma_ex.c ****   DMA_List_Init(hdma);
 1096              		.loc 1 657 3
 1097 0824 7868     		ldr	r0, [r7, #4]
 1098 0826 FFF7FEFF 		bl	DMA_List_Init
 658:STM32Cube_FW_N6/Drivers/STM32N6xx_HAL_Driver/Src/stm32n6xx_hal_dma_ex.c **** 
ARM GAS  /tmp/ccuUFTu8.s 			page 32


 659:STM32Cube_FW_N6/Drivers/STM32N6xx_HAL_Driver/Src/stm32n6xx_hal_dma_ex.c ****   /* Update DMA channel operation mode */
 660:STM32Cube_FW_N6/Drivers/STM32N6xx_HAL_Driver/Src/stm32n6xx_hal_dma_ex.c ****   hdma->Mode = hdma->InitLinkedList.LinkedListMode;
 1099              		.loc 1 660 36
 1100 082a 7B68     		ldr	r3, [r7, #4]
 1101 082c 9A6C     		ldr	r2, [r3, #72]
 1102              		.loc 1 660 14
 1103 082e 7B68     		ldr	r3, [r7, #4]
 1104 0830 1A65     		str	r2, [r3, #80]
 661:STM32Cube_FW_N6/Drivers/STM32N6xx_HAL_Driver/Src/stm32n6xx_hal_dma_ex.c **** 
 662:STM32Cube_FW_N6/Drivers/STM32N6xx_HAL_Driver/Src/stm32n6xx_hal_dma_ex.c ****   /* Update the DMA channel error code */
 663:STM32Cube_FW_N6/Drivers/STM32N6xx_HAL_Driver/Src/stm32n6xx_hal_dma_ex.c ****   hdma->ErrorCode = HAL_DMA_ERROR_NONE;
 1105              		.loc 1 663 19
 1106 0832 7B68     		ldr	r3, [r7, #4]
 1107 0834 0022     		movs	r2, #0
 1108 0836 9A65     		str	r2, [r3, #88]
 664:STM32Cube_FW_N6/Drivers/STM32N6xx_HAL_Driver/Src/stm32n6xx_hal_dma_ex.c **** 
 665:STM32Cube_FW_N6/Drivers/STM32N6xx_HAL_Driver/Src/stm32n6xx_hal_dma_ex.c ****   /* Update the DMA channel state */
 666:STM32Cube_FW_N6/Drivers/STM32N6xx_HAL_Driver/Src/stm32n6xx_hal_dma_ex.c ****   hdma->State = HAL_DMA_STATE_READY;
 1109              		.loc 1 666 15
 1110 0838 7B68     		ldr	r3, [r7, #4]
 1111 083a 0122     		movs	r2, #1
 1112 083c 83F85420 		strb	r2, [r3, #84]
 667:STM32Cube_FW_N6/Drivers/STM32N6xx_HAL_Driver/Src/stm32n6xx_hal_dma_ex.c **** 
 668:STM32Cube_FW_N6/Drivers/STM32N6xx_HAL_Driver/Src/stm32n6xx_hal_dma_ex.c ****   return HAL_OK;
 1113              		.loc 1 668 10
 1114 0840 0023     		movs	r3, #0
 1115              	.L3:
 669:STM32Cube_FW_N6/Drivers/STM32N6xx_HAL_Driver/Src/stm32n6xx_hal_dma_ex.c **** }
 1116              		.loc 1 669 1
 1117 0842 1846     		mov	r0, r3
 1118 0844 1037     		adds	r7, r7, #16
 1119              		.cfi_def_cfa_offset 8
 1120 0846 BD46     		mov	sp, r7
 1121              		.cfi_def_cfa_register 13
 1122              		@ sp needed
 1123 0848 80BD     		pop	{r7, pc}
 1124              	.L26:
 1125 084a 00BF     		.align	2
 1126              	.L25:
 1127 084c 50060248 		.word	1208092240
 1128 0850 D0060258 		.word	1476527824
 1129 0854 D0060248 		.word	1208092368
 1130 0858 50070258 		.word	1476527952
 1131 085c 50070248 		.word	1208092496
 1132 0860 D0070258 		.word	1476528080
 1133 0864 D0070248 		.word	1208092624
 1134 0868 50100250 		.word	1342312528
 1135 086c 50100240 		.word	1073877072
 1136 0870 D0100250 		.word	1342312656
 1137 0874 D0100240 		.word	1073877200
 1138 0878 50110250 		.word	1342312784
 1139 087c 50110240 		.word	1073877328
 1140 0880 D0110250 		.word	1342312912
 1141 0884 D0110240 		.word	1073877456
 1142 0888 50120250 		.word	1342313040
 1143 088c 50120240 		.word	1073877584
 1144 0890 D0120250 		.word	1342313168
ARM GAS  /tmp/ccuUFTu8.s 			page 33


 1145 0894 D0120240 		.word	1073877712
 1146 0898 50130250 		.word	1342313296
 1147 089c 50130240 		.word	1073877840
 1148 08a0 D0130250 		.word	1342313424
 1149 08a4 D0130240 		.word	1073877968
 1150 08a8 50140250 		.word	1342313552
 1151 08ac 50140240 		.word	1073878096
 1152 08b0 D0140250 		.word	1342313680
 1153 08b4 D0140240 		.word	1073878224
 1154 08b8 50150250 		.word	1342313808
 1155 08bc 50150240 		.word	1073878352
 1156 08c0 D0150250 		.word	1342313936
 1157 08c4 D0150240 		.word	1073878480
 1158 08c8 50160250 		.word	1342314064
 1159 08cc 50160240 		.word	1073878608
 1160 08d0 D0160250 		.word	1342314192
 1161 08d4 D0160240 		.word	1073878736
 1162 08d8 50170250 		.word	1342314320
 1163 08dc 50170240 		.word	1073878864
 1164 08e0 D0170250 		.word	1342314448
 1165 08e4 D0170240 		.word	1073878992
 1166 08e8 00000000 		.word	.LC1
 1167              		.cfi_endproc
 1168              	.LFE835:
 1170              		.section	.text.HAL_DMAEx_List_DeInit,"ax",%progbits
 1171              		.align	1
 1172              		.global	HAL_DMAEx_List_DeInit
 1173              		.syntax unified
 1174              		.thumb
 1175              		.thumb_func
 1177              	HAL_DMAEx_List_DeInit:
 1178              	.LFB836:
 670:STM32Cube_FW_N6/Drivers/STM32N6xx_HAL_Driver/Src/stm32n6xx_hal_dma_ex.c **** 
 671:STM32Cube_FW_N6/Drivers/STM32N6xx_HAL_Driver/Src/stm32n6xx_hal_dma_ex.c **** /**
 672:STM32Cube_FW_N6/Drivers/STM32N6xx_HAL_Driver/Src/stm32n6xx_hal_dma_ex.c ****   * @brief  DeInitialize the DMA channel when it is configured in linked-list mode.
 673:STM32Cube_FW_N6/Drivers/STM32N6xx_HAL_Driver/Src/stm32n6xx_hal_dma_ex.c ****   * @param  hdma : Pointer to a DMA_HandleTypeDef structure that contains the configuration informa
 674:STM32Cube_FW_N6/Drivers/STM32N6xx_HAL_Driver/Src/stm32n6xx_hal_dma_ex.c ****   *                specified DMA Channel.
 675:STM32Cube_FW_N6/Drivers/STM32N6xx_HAL_Driver/Src/stm32n6xx_hal_dma_ex.c ****   * @retval HAL status.
 676:STM32Cube_FW_N6/Drivers/STM32N6xx_HAL_Driver/Src/stm32n6xx_hal_dma_ex.c ****   */
 677:STM32Cube_FW_N6/Drivers/STM32N6xx_HAL_Driver/Src/stm32n6xx_hal_dma_ex.c **** HAL_StatusTypeDef HAL_DMAEx_List_DeInit(DMA_HandleTypeDef *const hdma)
 678:STM32Cube_FW_N6/Drivers/STM32N6xx_HAL_Driver/Src/stm32n6xx_hal_dma_ex.c **** {
 1179              		.loc 1 678 1
 1180              		.cfi_startproc
 1181              		@ args = 0, pretend = 0, frame = 16
 1182              		@ frame_needed = 1, uses_anonymous_args = 0
 1183 0000 80B5     		push	{r7, lr}
 1184              		.cfi_def_cfa_offset 8
 1185              		.cfi_offset 7, -8
 1186              		.cfi_offset 14, -4
 1187 0002 84B0     		sub	sp, sp, #16
 1188              		.cfi_def_cfa_offset 24
 1189 0004 00AF     		add	r7, sp, #0
 1190              		.cfi_def_cfa_register 7
 1191 0006 7860     		str	r0, [r7, #4]
 679:STM32Cube_FW_N6/Drivers/STM32N6xx_HAL_Driver/Src/stm32n6xx_hal_dma_ex.c **** 
 680:STM32Cube_FW_N6/Drivers/STM32N6xx_HAL_Driver/Src/stm32n6xx_hal_dma_ex.c ****   /* Get DMA instance */
 681:STM32Cube_FW_N6/Drivers/STM32N6xx_HAL_Driver/Src/stm32n6xx_hal_dma_ex.c ****   DMA_TypeDef *p_dma_instance;
ARM GAS  /tmp/ccuUFTu8.s 			page 34


 682:STM32Cube_FW_N6/Drivers/STM32N6xx_HAL_Driver/Src/stm32n6xx_hal_dma_ex.c **** 
 683:STM32Cube_FW_N6/Drivers/STM32N6xx_HAL_Driver/Src/stm32n6xx_hal_dma_ex.c ****   /* Get tick number */
 684:STM32Cube_FW_N6/Drivers/STM32N6xx_HAL_Driver/Src/stm32n6xx_hal_dma_ex.c ****   uint32_t tickstart = HAL_GetTick();
 1192              		.loc 1 684 24
 1193 0008 FFF7FEFF 		bl	HAL_GetTick
 1194 000c F860     		str	r0, [r7, #12]
 685:STM32Cube_FW_N6/Drivers/STM32N6xx_HAL_Driver/Src/stm32n6xx_hal_dma_ex.c **** 
 686:STM32Cube_FW_N6/Drivers/STM32N6xx_HAL_Driver/Src/stm32n6xx_hal_dma_ex.c ****   /* Check the DMA peripheral handle parameter */
 687:STM32Cube_FW_N6/Drivers/STM32N6xx_HAL_Driver/Src/stm32n6xx_hal_dma_ex.c ****   if (hdma == NULL)
 1195              		.loc 1 687 6
 1196 000e 7B68     		ldr	r3, [r7, #4]
 1197 0010 002B     		cmp	r3, #0
 1198 0012 01D1     		bne	.L28
 688:STM32Cube_FW_N6/Drivers/STM32N6xx_HAL_Driver/Src/stm32n6xx_hal_dma_ex.c ****   {
 689:STM32Cube_FW_N6/Drivers/STM32N6xx_HAL_Driver/Src/stm32n6xx_hal_dma_ex.c ****     return HAL_ERROR;
 1199              		.loc 1 689 12
 1200 0014 0123     		movs	r3, #1
 1201 0016 0BE3     		b	.L29
 1202              	.L28:
 690:STM32Cube_FW_N6/Drivers/STM32N6xx_HAL_Driver/Src/stm32n6xx_hal_dma_ex.c ****   }
 691:STM32Cube_FW_N6/Drivers/STM32N6xx_HAL_Driver/Src/stm32n6xx_hal_dma_ex.c **** 
 692:STM32Cube_FW_N6/Drivers/STM32N6xx_HAL_Driver/Src/stm32n6xx_hal_dma_ex.c ****   /* Check the parameters */
 693:STM32Cube_FW_N6/Drivers/STM32N6xx_HAL_Driver/Src/stm32n6xx_hal_dma_ex.c ****   assert_param(IS_DMA_ALL_INSTANCE(hdma->Instance));
 1203              		.loc 1 693 3
 1204 0018 7B68     		ldr	r3, [r7, #4]
 1205 001a 1B68     		ldr	r3, [r3]
 1206 001c 984A     		ldr	r2, .L39
 1207 001e 9342     		cmp	r3, r2
 1208 0020 00F0DA81 		beq	.L30
 1209              		.loc 1 693 3 is_stmt 0 discriminator 1
 1210 0024 7B68     		ldr	r3, [r7, #4]
 1211 0026 1B68     		ldr	r3, [r3]
 1212 0028 964A     		ldr	r2, .L39+4
 1213 002a 9342     		cmp	r3, r2
 1214 002c 00F0D481 		beq	.L30
 1215              		.loc 1 693 3 discriminator 2
 1216 0030 7B68     		ldr	r3, [r7, #4]
 1217 0032 1B68     		ldr	r3, [r3]
 1218 0034 944A     		ldr	r2, .L39+8
 1219 0036 9342     		cmp	r3, r2
 1220 0038 00F0CE81 		beq	.L30
 1221              		.loc 1 693 3 discriminator 3
 1222 003c 7B68     		ldr	r3, [r7, #4]
 1223 003e 1B68     		ldr	r3, [r3]
 1224 0040 924A     		ldr	r2, .L39+12
 1225 0042 9342     		cmp	r3, r2
 1226 0044 00F0C881 		beq	.L30
 1227              		.loc 1 693 3 discriminator 4
 1228 0048 7B68     		ldr	r3, [r7, #4]
 1229 004a 1B68     		ldr	r3, [r3]
 1230 004c 904A     		ldr	r2, .L39+16
 1231 004e 9342     		cmp	r3, r2
 1232 0050 00F0C281 		beq	.L30
 1233              		.loc 1 693 3 discriminator 5
 1234 0054 7B68     		ldr	r3, [r7, #4]
 1235 0056 1B68     		ldr	r3, [r3]
 1236 0058 8E4A     		ldr	r2, .L39+20
ARM GAS  /tmp/ccuUFTu8.s 			page 35


 1237 005a 9342     		cmp	r3, r2
 1238 005c 00F0BC81 		beq	.L30
 1239              		.loc 1 693 3 discriminator 6
 1240 0060 7B68     		ldr	r3, [r7, #4]
 1241 0062 1B68     		ldr	r3, [r3]
 1242 0064 8C4A     		ldr	r2, .L39+24
 1243 0066 9342     		cmp	r3, r2
 1244 0068 00F0B681 		beq	.L30
 1245              		.loc 1 693 3 discriminator 7
 1246 006c 7B68     		ldr	r3, [r7, #4]
 1247 006e 1B68     		ldr	r3, [r3]
 1248 0070 8A4A     		ldr	r2, .L39+28
 1249 0072 9342     		cmp	r3, r2
 1250 0074 00F0B081 		beq	.L30
 1251              		.loc 1 693 3 discriminator 8
 1252 0078 7B68     		ldr	r3, [r7, #4]
 1253 007a 1B68     		ldr	r3, [r3]
 1254 007c 884A     		ldr	r2, .L39+32
 1255 007e 9342     		cmp	r3, r2
 1256 0080 00F0AA81 		beq	.L30
 1257              		.loc 1 693 3 discriminator 9
 1258 0084 7B68     		ldr	r3, [r7, #4]
 1259 0086 1B68     		ldr	r3, [r3]
 1260 0088 864A     		ldr	r2, .L39+36
 1261 008a 9342     		cmp	r3, r2
 1262 008c 00F0A481 		beq	.L30
 1263              		.loc 1 693 3 discriminator 10
 1264 0090 7B68     		ldr	r3, [r7, #4]
 1265 0092 1B68     		ldr	r3, [r3]
 1266 0094 844A     		ldr	r2, .L39+40
 1267 0096 9342     		cmp	r3, r2
 1268 0098 00F09E81 		beq	.L30
 1269              		.loc 1 693 3 discriminator 11
 1270 009c 7B68     		ldr	r3, [r7, #4]
 1271 009e 1B68     		ldr	r3, [r3]
 1272 00a0 824A     		ldr	r2, .L39+44
 1273 00a2 9342     		cmp	r3, r2
 1274 00a4 00F09881 		beq	.L30
 1275              		.loc 1 693 3 discriminator 12
 1276 00a8 7B68     		ldr	r3, [r7, #4]
 1277 00aa 1B68     		ldr	r3, [r3]
 1278 00ac 804A     		ldr	r2, .L39+48
 1279 00ae 9342     		cmp	r3, r2
 1280 00b0 00F09281 		beq	.L30
 1281              		.loc 1 693 3 discriminator 13
 1282 00b4 7B68     		ldr	r3, [r7, #4]
 1283 00b6 1B68     		ldr	r3, [r3]
 1284 00b8 7E4A     		ldr	r2, .L39+52
 1285 00ba 9342     		cmp	r3, r2
 1286 00bc 00F08C81 		beq	.L30
 1287              		.loc 1 693 3 discriminator 14
 1288 00c0 7B68     		ldr	r3, [r7, #4]
 1289 00c2 1B68     		ldr	r3, [r3]
 1290 00c4 7C4A     		ldr	r2, .L39+56
 1291 00c6 9342     		cmp	r3, r2
 1292 00c8 00F08681 		beq	.L30
 1293              		.loc 1 693 3 discriminator 15
ARM GAS  /tmp/ccuUFTu8.s 			page 36


 1294 00cc 7B68     		ldr	r3, [r7, #4]
 1295 00ce 1B68     		ldr	r3, [r3]
 1296 00d0 7A4A     		ldr	r2, .L39+60
 1297 00d2 9342     		cmp	r3, r2
 1298 00d4 00F08081 		beq	.L30
 1299              		.loc 1 693 3 discriminator 16
 1300 00d8 7B68     		ldr	r3, [r7, #4]
 1301 00da 1B68     		ldr	r3, [r3]
 1302 00dc 784A     		ldr	r2, .L39+64
 1303 00de 9342     		cmp	r3, r2
 1304 00e0 00F07A81 		beq	.L30
 1305              		.loc 1 693 3 discriminator 17
 1306 00e4 7B68     		ldr	r3, [r7, #4]
 1307 00e6 1B68     		ldr	r3, [r3]
 1308 00e8 764A     		ldr	r2, .L39+68
 1309 00ea 9342     		cmp	r3, r2
 1310 00ec 00F07481 		beq	.L30
 1311              		.loc 1 693 3 discriminator 18
 1312 00f0 7B68     		ldr	r3, [r7, #4]
 1313 00f2 1B68     		ldr	r3, [r3]
 1314 00f4 744A     		ldr	r2, .L39+72
 1315 00f6 9342     		cmp	r3, r2
 1316 00f8 00F06E81 		beq	.L30
 1317              		.loc 1 693 3 discriminator 19
 1318 00fc 7B68     		ldr	r3, [r7, #4]
 1319 00fe 1B68     		ldr	r3, [r3]
 1320 0100 724A     		ldr	r2, .L39+76
 1321 0102 9342     		cmp	r3, r2
 1322 0104 00F06881 		beq	.L30
 1323              		.loc 1 693 3 discriminator 20
 1324 0108 7B68     		ldr	r3, [r7, #4]
 1325 010a 1B68     		ldr	r3, [r3]
 1326 010c 704A     		ldr	r2, .L39+80
 1327 010e 9342     		cmp	r3, r2
 1328 0110 00F06281 		beq	.L30
 1329              		.loc 1 693 3 discriminator 21
 1330 0114 7B68     		ldr	r3, [r7, #4]
 1331 0116 1B68     		ldr	r3, [r3]
 1332 0118 6E4A     		ldr	r2, .L39+84
 1333 011a 9342     		cmp	r3, r2
 1334 011c 00F05C81 		beq	.L30
 1335              		.loc 1 693 3 discriminator 22
 1336 0120 7B68     		ldr	r3, [r7, #4]
 1337 0122 1B68     		ldr	r3, [r3]
 1338 0124 6C4A     		ldr	r2, .L39+88
 1339 0126 9342     		cmp	r3, r2
 1340 0128 00F05681 		beq	.L30
 1341              		.loc 1 693 3 discriminator 23
 1342 012c 7B68     		ldr	r3, [r7, #4]
 1343 012e 1B68     		ldr	r3, [r3]
 1344 0130 6A4A     		ldr	r2, .L39+92
 1345 0132 9342     		cmp	r3, r2
 1346 0134 00F05081 		beq	.L30
 1347              		.loc 1 693 3 discriminator 24
 1348 0138 7B68     		ldr	r3, [r7, #4]
 1349 013a 1B68     		ldr	r3, [r3]
 1350 013c 684A     		ldr	r2, .L39+96
ARM GAS  /tmp/ccuUFTu8.s 			page 37


 1351 013e 9342     		cmp	r3, r2
 1352 0140 00F04A81 		beq	.L30
 1353              		.loc 1 693 3 discriminator 25
 1354 0144 7B68     		ldr	r3, [r7, #4]
 1355 0146 1B68     		ldr	r3, [r3]
 1356 0148 664A     		ldr	r2, .L39+100
 1357 014a 9342     		cmp	r3, r2
 1358 014c 00F04481 		beq	.L30
 1359              		.loc 1 693 3 discriminator 26
 1360 0150 7B68     		ldr	r3, [r7, #4]
 1361 0152 1B68     		ldr	r3, [r3]
 1362 0154 644A     		ldr	r2, .L39+104
 1363 0156 9342     		cmp	r3, r2
 1364 0158 00F03E81 		beq	.L30
 1365              		.loc 1 693 3 discriminator 27
 1366 015c 7B68     		ldr	r3, [r7, #4]
 1367 015e 1B68     		ldr	r3, [r3]
 1368 0160 624A     		ldr	r2, .L39+108
 1369 0162 9342     		cmp	r3, r2
 1370 0164 00F03881 		beq	.L30
 1371              		.loc 1 693 3 discriminator 28
 1372 0168 7B68     		ldr	r3, [r7, #4]
 1373 016a 1B68     		ldr	r3, [r3]
 1374 016c 604A     		ldr	r2, .L39+112
 1375 016e 9342     		cmp	r3, r2
 1376 0170 00F03281 		beq	.L30
 1377              		.loc 1 693 3 discriminator 29
 1378 0174 7B68     		ldr	r3, [r7, #4]
 1379 0176 1B68     		ldr	r3, [r3]
 1380 0178 5E4A     		ldr	r2, .L39+116
 1381 017a 9342     		cmp	r3, r2
 1382 017c 00F02C81 		beq	.L30
 1383              		.loc 1 693 3 discriminator 30
 1384 0180 7B68     		ldr	r3, [r7, #4]
 1385 0182 1B68     		ldr	r3, [r3]
 1386 0184 5C4A     		ldr	r2, .L39+120
 1387 0186 9342     		cmp	r3, r2
 1388 0188 00F02681 		beq	.L30
 1389              		.loc 1 693 3 discriminator 31
 1390 018c 7B68     		ldr	r3, [r7, #4]
 1391 018e 1B68     		ldr	r3, [r3]
 1392 0190 5A4A     		ldr	r2, .L39+124
 1393 0192 9342     		cmp	r3, r2
 1394 0194 00F02081 		beq	.L30
 1395              		.loc 1 693 3 discriminator 32
 1396 0198 7B68     		ldr	r3, [r7, #4]
 1397 019a 1B68     		ldr	r3, [r3]
 1398 019c 584A     		ldr	r2, .L39+128
 1399 019e 9342     		cmp	r3, r2
 1400 01a0 00F01A81 		beq	.L30
 1401              		.loc 1 693 3 discriminator 33
 1402 01a4 7B68     		ldr	r3, [r7, #4]
 1403 01a6 1B68     		ldr	r3, [r3]
 1404 01a8 564A     		ldr	r2, .L39+132
 1405 01aa 9342     		cmp	r3, r2
 1406 01ac 00F01481 		beq	.L30
 1407              		.loc 1 693 3 discriminator 34
ARM GAS  /tmp/ccuUFTu8.s 			page 38


 1408 01b0 7B68     		ldr	r3, [r7, #4]
 1409 01b2 1B68     		ldr	r3, [r3]
 1410 01b4 544A     		ldr	r2, .L39+136
 1411 01b6 9342     		cmp	r3, r2
 1412 01b8 00F00E81 		beq	.L30
 1413              		.loc 1 693 3 discriminator 35
 1414 01bc 7B68     		ldr	r3, [r7, #4]
 1415 01be 1B68     		ldr	r3, [r3]
 1416 01c0 524A     		ldr	r2, .L39+140
 1417 01c2 9342     		cmp	r3, r2
 1418 01c4 00F00881 		beq	.L30
 1419              		.loc 1 693 3 discriminator 36
 1420 01c8 7B68     		ldr	r3, [r7, #4]
 1421 01ca 1B68     		ldr	r3, [r3]
 1422 01cc 504A     		ldr	r2, .L39+144
 1423 01ce 9342     		cmp	r3, r2
 1424 01d0 00F00281 		beq	.L30
 1425              		.loc 1 693 3 discriminator 37
 1426 01d4 7B68     		ldr	r3, [r7, #4]
 1427 01d6 1B68     		ldr	r3, [r3]
 1428 01d8 4E4A     		ldr	r2, .L39+148
 1429 01da 9342     		cmp	r3, r2
 1430 01dc 00F0FC80 		beq	.L30
 1431              		.loc 1 693 3 discriminator 38
 1432 01e0 7B68     		ldr	r3, [r7, #4]
 1433 01e2 1B68     		ldr	r3, [r3]
 1434 01e4 4C4A     		ldr	r2, .L39+152
 1435 01e6 9342     		cmp	r3, r2
 1436 01e8 00F0F680 		beq	.L30
 1437              		.loc 1 693 3 discriminator 39
 1438 01ec 7B68     		ldr	r3, [r7, #4]
 1439 01ee 1B68     		ldr	r3, [r3]
 1440 01f0 4A4A     		ldr	r2, .L39+156
 1441 01f2 9342     		cmp	r3, r2
 1442 01f4 00F0F080 		beq	.L30
 1443              		.loc 1 693 3 discriminator 40
 1444 01f8 7B68     		ldr	r3, [r7, #4]
 1445 01fa 1B68     		ldr	r3, [r3]
 1446 01fc 484A     		ldr	r2, .L39+160
 1447 01fe 9342     		cmp	r3, r2
 1448 0200 00F0EA80 		beq	.L30
 1449              		.loc 1 693 3 discriminator 41
 1450 0204 7B68     		ldr	r3, [r7, #4]
 1451 0206 1B68     		ldr	r3, [r3]
 1452 0208 464A     		ldr	r2, .L39+164
 1453 020a 9342     		cmp	r3, r2
 1454 020c 00F0E480 		beq	.L30
 1455              		.loc 1 693 3 discriminator 42
 1456 0210 7B68     		ldr	r3, [r7, #4]
 1457 0212 1B68     		ldr	r3, [r3]
 1458 0214 444A     		ldr	r2, .L39+168
 1459 0216 9342     		cmp	r3, r2
 1460 0218 00F0DE80 		beq	.L30
 1461              		.loc 1 693 3 discriminator 43
 1462 021c 7B68     		ldr	r3, [r7, #4]
 1463 021e 1B68     		ldr	r3, [r3]
 1464 0220 424A     		ldr	r2, .L39+172
ARM GAS  /tmp/ccuUFTu8.s 			page 39


 1465 0222 9342     		cmp	r3, r2
 1466 0224 00F0D880 		beq	.L30
 1467              		.loc 1 693 3 discriminator 44
 1468 0228 7B68     		ldr	r3, [r7, #4]
 1469 022a 1B68     		ldr	r3, [r3]
 1470 022c 404A     		ldr	r2, .L39+176
 1471 022e 9342     		cmp	r3, r2
 1472 0230 00F0D280 		beq	.L30
 1473              		.loc 1 693 3 discriminator 45
 1474 0234 7B68     		ldr	r3, [r7, #4]
 1475 0236 1B68     		ldr	r3, [r3]
 1476 0238 3E4A     		ldr	r2, .L39+180
 1477 023a 9342     		cmp	r3, r2
 1478 023c 00F0CC80 		beq	.L30
 1479              		.loc 1 693 3 discriminator 46
 1480 0240 7B68     		ldr	r3, [r7, #4]
 1481 0242 1B68     		ldr	r3, [r3]
 1482 0244 3C4A     		ldr	r2, .L39+184
 1483 0246 9342     		cmp	r3, r2
 1484 0248 00F0C680 		beq	.L30
 1485              		.loc 1 693 3 discriminator 47
 1486 024c 7B68     		ldr	r3, [r7, #4]
 1487 024e 1B68     		ldr	r3, [r3]
 1488 0250 3A4A     		ldr	r2, .L39+188
 1489 0252 9342     		cmp	r3, r2
 1490 0254 00F0C080 		beq	.L30
 1491              		.loc 1 693 3 discriminator 48
 1492 0258 7B68     		ldr	r3, [r7, #4]
 1493 025a 1B68     		ldr	r3, [r3]
 1494 025c 384A     		ldr	r2, .L39+192
 1495 025e 9342     		cmp	r3, r2
 1496 0260 00F0BA80 		beq	.L30
 1497              		.loc 1 693 3 discriminator 49
 1498 0264 7B68     		ldr	r3, [r7, #4]
 1499 0266 1B68     		ldr	r3, [r3]
 1500 0268 364A     		ldr	r2, .L39+196
 1501 026a 9342     		cmp	r3, r2
 1502 026c 00F0B480 		beq	.L30
 1503              		.loc 1 693 3 discriminator 50
 1504 0270 7B68     		ldr	r3, [r7, #4]
 1505 0272 1B68     		ldr	r3, [r3]
 1506 0274 344A     		ldr	r2, .L39+200
 1507 0276 9342     		cmp	r3, r2
 1508 0278 00F0AE80 		beq	.L30
 1509 027c 66E0     		b	.L40
 1510              	.L41:
 1511 027e 00BF     		.align	2
 1512              	.L39:
 1513 0280 50100250 		.word	1342312528
 1514 0284 50100240 		.word	1073877072
 1515 0288 D0100250 		.word	1342312656
 1516 028c D0100240 		.word	1073877200
 1517 0290 50110250 		.word	1342312784
 1518 0294 50110240 		.word	1073877328
 1519 0298 D0110250 		.word	1342312912
 1520 029c D0110240 		.word	1073877456
 1521 02a0 50120250 		.word	1342313040
ARM GAS  /tmp/ccuUFTu8.s 			page 40


 1522 02a4 50120240 		.word	1073877584
 1523 02a8 D0120250 		.word	1342313168
 1524 02ac D0120240 		.word	1073877712
 1525 02b0 50130250 		.word	1342313296
 1526 02b4 50130240 		.word	1073877840
 1527 02b8 D0130250 		.word	1342313424
 1528 02bc D0130240 		.word	1073877968
 1529 02c0 50140250 		.word	1342313552
 1530 02c4 50140240 		.word	1073878096
 1531 02c8 D0140250 		.word	1342313680
 1532 02cc D0140240 		.word	1073878224
 1533 02d0 50150250 		.word	1342313808
 1534 02d4 50150240 		.word	1073878352
 1535 02d8 D0150250 		.word	1342313936
 1536 02dc D0150240 		.word	1073878480
 1537 02e0 50160250 		.word	1342314064
 1538 02e4 50160240 		.word	1073878608
 1539 02e8 D0160250 		.word	1342314192
 1540 02ec D0160240 		.word	1073878736
 1541 02f0 50170250 		.word	1342314320
 1542 02f4 50170240 		.word	1073878864
 1543 02f8 D0170250 		.word	1342314448
 1544 02fc D0170240 		.word	1073878992
 1545 0300 50000258 		.word	1476526160
 1546 0304 50000248 		.word	1208090704
 1547 0308 D0000258 		.word	1476526288
 1548 030c D0000248 		.word	1208090832
 1549 0310 50010258 		.word	1476526416
 1550 0314 50010248 		.word	1208090960
 1551 0318 D0010258 		.word	1476526544
 1552 031c D0010248 		.word	1208091088
 1553 0320 50020258 		.word	1476526672
 1554 0324 50020248 		.word	1208091216
 1555 0328 D0020258 		.word	1476526800
 1556 032c D0020248 		.word	1208091344
 1557 0330 50030258 		.word	1476526928
 1558 0334 50030248 		.word	1208091472
 1559 0338 D0030258 		.word	1476527056
 1560 033c D0030248 		.word	1208091600
 1561 0340 50040258 		.word	1476527184
 1562 0344 50040248 		.word	1208091728
 1563 0348 D0040258 		.word	1476527312
 1564              	.L40:
 1565              		.loc 1 693 3 discriminator 51
 1566 034c 7B68     		ldr	r3, [r7, #4]
 1567 034e 1B68     		ldr	r3, [r3]
 1568 0350 6E4A     		ldr	r2, .L42
 1569 0352 9342     		cmp	r3, r2
 1570 0354 40D0     		beq	.L30
 1571              		.loc 1 693 3 discriminator 52
 1572 0356 7B68     		ldr	r3, [r7, #4]
 1573 0358 1B68     		ldr	r3, [r3]
 1574 035a 6D4A     		ldr	r2, .L42+4
 1575 035c 9342     		cmp	r3, r2
 1576 035e 3BD0     		beq	.L30
 1577              		.loc 1 693 3 discriminator 53
 1578 0360 7B68     		ldr	r3, [r7, #4]
ARM GAS  /tmp/ccuUFTu8.s 			page 41


 1579 0362 1B68     		ldr	r3, [r3]
 1580 0364 6B4A     		ldr	r2, .L42+8
 1581 0366 9342     		cmp	r3, r2
 1582 0368 36D0     		beq	.L30
 1583              		.loc 1 693 3 discriminator 54
 1584 036a 7B68     		ldr	r3, [r7, #4]
 1585 036c 1B68     		ldr	r3, [r3]
 1586 036e 6A4A     		ldr	r2, .L42+12
 1587 0370 9342     		cmp	r3, r2
 1588 0372 31D0     		beq	.L30
 1589              		.loc 1 693 3 discriminator 55
 1590 0374 7B68     		ldr	r3, [r7, #4]
 1591 0376 1B68     		ldr	r3, [r3]
 1592 0378 684A     		ldr	r2, .L42+16
 1593 037a 9342     		cmp	r3, r2
 1594 037c 2CD0     		beq	.L30
 1595              		.loc 1 693 3 discriminator 56
 1596 037e 7B68     		ldr	r3, [r7, #4]
 1597 0380 1B68     		ldr	r3, [r3]
 1598 0382 674A     		ldr	r2, .L42+20
 1599 0384 9342     		cmp	r3, r2
 1600 0386 27D0     		beq	.L30
 1601              		.loc 1 693 3 discriminator 57
 1602 0388 7B68     		ldr	r3, [r7, #4]
 1603 038a 1B68     		ldr	r3, [r3]
 1604 038c 654A     		ldr	r2, .L42+24
 1605 038e 9342     		cmp	r3, r2
 1606 0390 22D0     		beq	.L30
 1607              		.loc 1 693 3 discriminator 58
 1608 0392 7B68     		ldr	r3, [r7, #4]
 1609 0394 1B68     		ldr	r3, [r3]
 1610 0396 644A     		ldr	r2, .L42+28
 1611 0398 9342     		cmp	r3, r2
 1612 039a 1DD0     		beq	.L30
 1613              		.loc 1 693 3 discriminator 59
 1614 039c 7B68     		ldr	r3, [r7, #4]
 1615 039e 1B68     		ldr	r3, [r3]
 1616 03a0 624A     		ldr	r2, .L42+32
 1617 03a2 9342     		cmp	r3, r2
 1618 03a4 18D0     		beq	.L30
 1619              		.loc 1 693 3 discriminator 60
 1620 03a6 7B68     		ldr	r3, [r7, #4]
 1621 03a8 1B68     		ldr	r3, [r3]
 1622 03aa 614A     		ldr	r2, .L42+36
 1623 03ac 9342     		cmp	r3, r2
 1624 03ae 13D0     		beq	.L30
 1625              		.loc 1 693 3 discriminator 61
 1626 03b0 7B68     		ldr	r3, [r7, #4]
 1627 03b2 1B68     		ldr	r3, [r3]
 1628 03b4 5F4A     		ldr	r2, .L42+40
 1629 03b6 9342     		cmp	r3, r2
 1630 03b8 0ED0     		beq	.L30
 1631              		.loc 1 693 3 discriminator 62
 1632 03ba 7B68     		ldr	r3, [r7, #4]
 1633 03bc 1B68     		ldr	r3, [r3]
 1634 03be 5E4A     		ldr	r2, .L42+44
 1635 03c0 9342     		cmp	r3, r2
ARM GAS  /tmp/ccuUFTu8.s 			page 42


 1636 03c2 09D0     		beq	.L30
 1637              		.loc 1 693 3 discriminator 63
 1638 03c4 7B68     		ldr	r3, [r7, #4]
 1639 03c6 1B68     		ldr	r3, [r3]
 1640 03c8 5C4A     		ldr	r2, .L42+48
 1641 03ca 9342     		cmp	r3, r2
 1642 03cc 04D0     		beq	.L30
 1643              		.loc 1 693 3 discriminator 64
 1644 03ce 40F2B521 		movw	r1, #693
 1645 03d2 5B48     		ldr	r0, .L42+52
 1646 03d4 FFF7FEFF 		bl	assert_failed
 1647              	.L30:
 694:STM32Cube_FW_N6/Drivers/STM32N6xx_HAL_Driver/Src/stm32n6xx_hal_dma_ex.c **** 
 695:STM32Cube_FW_N6/Drivers/STM32N6xx_HAL_Driver/Src/stm32n6xx_hal_dma_ex.c **** 
 696:STM32Cube_FW_N6/Drivers/STM32N6xx_HAL_Driver/Src/stm32n6xx_hal_dma_ex.c ****   /* Get DMA instance */
 697:STM32Cube_FW_N6/Drivers/STM32N6xx_HAL_Driver/Src/stm32n6xx_hal_dma_ex.c ****   p_dma_instance = GET_DMA_INSTANCE(hdma);
 1648              		.loc 1 697 20 is_stmt 1
 1649 03d8 7B68     		ldr	r3, [r7, #4]
 1650 03da 1B68     		ldr	r3, [r3]
 1651 03dc 23F47F63 		bic	r3, r3, #4080
 1652 03e0 23F00F03 		bic	r3, r3, #15
 1653              		.loc 1 697 18
 1654 03e4 BB60     		str	r3, [r7, #8]
 698:STM32Cube_FW_N6/Drivers/STM32N6xx_HAL_Driver/Src/stm32n6xx_hal_dma_ex.c **** 
 699:STM32Cube_FW_N6/Drivers/STM32N6xx_HAL_Driver/Src/stm32n6xx_hal_dma_ex.c ****   /* Disable the selected DMA Channel */
 700:STM32Cube_FW_N6/Drivers/STM32N6xx_HAL_Driver/Src/stm32n6xx_hal_dma_ex.c ****   __HAL_DMA_DISABLE(hdma);
 1655              		.loc 1 700 3
 1656 03e6 7B68     		ldr	r3, [r7, #4]
 1657 03e8 1B68     		ldr	r3, [r3]
 1658 03ea 5A69     		ldr	r2, [r3, #20]
 1659 03ec 7B68     		ldr	r3, [r7, #4]
 1660 03ee 1B68     		ldr	r3, [r3]
 1661 03f0 42F00602 		orr	r2, r2, #6
 1662 03f4 5A61     		str	r2, [r3, #20]
 701:STM32Cube_FW_N6/Drivers/STM32N6xx_HAL_Driver/Src/stm32n6xx_hal_dma_ex.c **** 
 702:STM32Cube_FW_N6/Drivers/STM32N6xx_HAL_Driver/Src/stm32n6xx_hal_dma_ex.c ****   /* Check if the DMA channel is effectively disabled */
 703:STM32Cube_FW_N6/Drivers/STM32N6xx_HAL_Driver/Src/stm32n6xx_hal_dma_ex.c ****   while ((hdma->Instance->CCR & DMA_CCR_EN) != 0U)
 1663              		.loc 1 703 9
 1664 03f6 0FE0     		b	.L31
 1665              	.L32:
 704:STM32Cube_FW_N6/Drivers/STM32N6xx_HAL_Driver/Src/stm32n6xx_hal_dma_ex.c ****   {
 705:STM32Cube_FW_N6/Drivers/STM32N6xx_HAL_Driver/Src/stm32n6xx_hal_dma_ex.c ****     /* Check for the Timeout */
 706:STM32Cube_FW_N6/Drivers/STM32N6xx_HAL_Driver/Src/stm32n6xx_hal_dma_ex.c ****     if ((HAL_GetTick() - tickstart) > HAL_TIMEOUT_DMA_ABORT)
 1666              		.loc 1 706 10
 1667 03f8 FFF7FEFF 		bl	HAL_GetTick
 1668 03fc 0246     		mov	r2, r0
 1669              		.loc 1 706 24 discriminator 1
 1670 03fe FB68     		ldr	r3, [r7, #12]
 1671 0400 D31A     		subs	r3, r2, r3
 1672              		.loc 1 706 8 discriminator 1
 1673 0402 052B     		cmp	r3, #5
 1674 0404 08D9     		bls	.L31
 707:STM32Cube_FW_N6/Drivers/STM32N6xx_HAL_Driver/Src/stm32n6xx_hal_dma_ex.c ****     {
 708:STM32Cube_FW_N6/Drivers/STM32N6xx_HAL_Driver/Src/stm32n6xx_hal_dma_ex.c ****       /* Update error code */
 709:STM32Cube_FW_N6/Drivers/STM32N6xx_HAL_Driver/Src/stm32n6xx_hal_dma_ex.c ****       hdma->ErrorCode = HAL_DMA_ERROR_TIMEOUT;
 1675              		.loc 1 709 23
 1676 0406 7B68     		ldr	r3, [r7, #4]
ARM GAS  /tmp/ccuUFTu8.s 			page 43


 1677 0408 1022     		movs	r2, #16
 1678 040a 9A65     		str	r2, [r3, #88]
 710:STM32Cube_FW_N6/Drivers/STM32N6xx_HAL_Driver/Src/stm32n6xx_hal_dma_ex.c **** 
 711:STM32Cube_FW_N6/Drivers/STM32N6xx_HAL_Driver/Src/stm32n6xx_hal_dma_ex.c ****       /* Change the DMA state */
 712:STM32Cube_FW_N6/Drivers/STM32N6xx_HAL_Driver/Src/stm32n6xx_hal_dma_ex.c ****       hdma->State = HAL_DMA_STATE_ERROR;
 1679              		.loc 1 712 19
 1680 040c 7B68     		ldr	r3, [r7, #4]
 1681 040e 0322     		movs	r2, #3
 1682 0410 83F85420 		strb	r2, [r3, #84]
 713:STM32Cube_FW_N6/Drivers/STM32N6xx_HAL_Driver/Src/stm32n6xx_hal_dma_ex.c **** 
 714:STM32Cube_FW_N6/Drivers/STM32N6xx_HAL_Driver/Src/stm32n6xx_hal_dma_ex.c ****       return HAL_ERROR;
 1683              		.loc 1 714 14
 1684 0414 0123     		movs	r3, #1
 1685 0416 0BE1     		b	.L29
 1686              	.L31:
 703:STM32Cube_FW_N6/Drivers/STM32N6xx_HAL_Driver/Src/stm32n6xx_hal_dma_ex.c ****   {
 1687              		.loc 1 703 15
 1688 0418 7B68     		ldr	r3, [r7, #4]
 1689 041a 1B68     		ldr	r3, [r3]
 703:STM32Cube_FW_N6/Drivers/STM32N6xx_HAL_Driver/Src/stm32n6xx_hal_dma_ex.c ****   {
 1690              		.loc 1 703 25
 1691 041c 5B69     		ldr	r3, [r3, #20]
 703:STM32Cube_FW_N6/Drivers/STM32N6xx_HAL_Driver/Src/stm32n6xx_hal_dma_ex.c ****   {
 1692              		.loc 1 703 31
 1693 041e 03F00103 		and	r3, r3, #1
 703:STM32Cube_FW_N6/Drivers/STM32N6xx_HAL_Driver/Src/stm32n6xx_hal_dma_ex.c ****   {
 1694              		.loc 1 703 45
 1695 0422 002B     		cmp	r3, #0
 1696 0424 E8D1     		bne	.L32
 715:STM32Cube_FW_N6/Drivers/STM32N6xx_HAL_Driver/Src/stm32n6xx_hal_dma_ex.c ****     }
 716:STM32Cube_FW_N6/Drivers/STM32N6xx_HAL_Driver/Src/stm32n6xx_hal_dma_ex.c ****   }
 717:STM32Cube_FW_N6/Drivers/STM32N6xx_HAL_Driver/Src/stm32n6xx_hal_dma_ex.c **** 
 718:STM32Cube_FW_N6/Drivers/STM32N6xx_HAL_Driver/Src/stm32n6xx_hal_dma_ex.c ****   /* Reset DMA Channel registers */
 719:STM32Cube_FW_N6/Drivers/STM32N6xx_HAL_Driver/Src/stm32n6xx_hal_dma_ex.c ****   hdma->Instance->CCR   = 0U;
 1697              		.loc 1 719 7
 1698 0426 7B68     		ldr	r3, [r7, #4]
 1699 0428 1B68     		ldr	r3, [r3]
 1700              		.loc 1 719 25
 1701 042a 0022     		movs	r2, #0
 1702 042c 5A61     		str	r2, [r3, #20]
 720:STM32Cube_FW_N6/Drivers/STM32N6xx_HAL_Driver/Src/stm32n6xx_hal_dma_ex.c ****   hdma->Instance->CLBAR = 0U;
 1703              		.loc 1 720 7
 1704 042e 7B68     		ldr	r3, [r7, #4]
 1705 0430 1B68     		ldr	r3, [r3]
 1706              		.loc 1 720 25
 1707 0432 0022     		movs	r2, #0
 1708 0434 1A60     		str	r2, [r3]
 721:STM32Cube_FW_N6/Drivers/STM32N6xx_HAL_Driver/Src/stm32n6xx_hal_dma_ex.c ****   hdma->Instance->CTR1  = 0U;
 1709              		.loc 1 721 7
 1710 0436 7B68     		ldr	r3, [r7, #4]
 1711 0438 1B68     		ldr	r3, [r3]
 1712              		.loc 1 721 25
 1713 043a 0022     		movs	r2, #0
 1714 043c 1A64     		str	r2, [r3, #64]
 722:STM32Cube_FW_N6/Drivers/STM32N6xx_HAL_Driver/Src/stm32n6xx_hal_dma_ex.c ****   hdma->Instance->CTR2  = 0U;
 1715              		.loc 1 722 7
 1716 043e 7B68     		ldr	r3, [r7, #4]
ARM GAS  /tmp/ccuUFTu8.s 			page 44


 1717 0440 1B68     		ldr	r3, [r3]
 1718              		.loc 1 722 25
 1719 0442 0022     		movs	r2, #0
 1720 0444 5A64     		str	r2, [r3, #68]
 723:STM32Cube_FW_N6/Drivers/STM32N6xx_HAL_Driver/Src/stm32n6xx_hal_dma_ex.c ****   hdma->Instance->CBR1  = 0U;
 1721              		.loc 1 723 7
 1722 0446 7B68     		ldr	r3, [r7, #4]
 1723 0448 1B68     		ldr	r3, [r3]
 1724              		.loc 1 723 25
 1725 044a 0022     		movs	r2, #0
 1726 044c 9A64     		str	r2, [r3, #72]
 724:STM32Cube_FW_N6/Drivers/STM32N6xx_HAL_Driver/Src/stm32n6xx_hal_dma_ex.c ****   hdma->Instance->CSAR  = 0U;
 1727              		.loc 1 724 7
 1728 044e 7B68     		ldr	r3, [r7, #4]
 1729 0450 1B68     		ldr	r3, [r3]
 1730              		.loc 1 724 25
 1731 0452 0022     		movs	r2, #0
 1732 0454 DA64     		str	r2, [r3, #76]
 725:STM32Cube_FW_N6/Drivers/STM32N6xx_HAL_Driver/Src/stm32n6xx_hal_dma_ex.c ****   hdma->Instance->CDAR  = 0U;
 1733              		.loc 1 725 7
 1734 0456 7B68     		ldr	r3, [r7, #4]
 1735 0458 1B68     		ldr	r3, [r3]
 1736              		.loc 1 725 25
 1737 045a 0022     		movs	r2, #0
 1738 045c 1A65     		str	r2, [r3, #80]
 726:STM32Cube_FW_N6/Drivers/STM32N6xx_HAL_Driver/Src/stm32n6xx_hal_dma_ex.c ****   hdma->Instance->CLLR  = 0U;
 1739              		.loc 1 726 7
 1740 045e 7B68     		ldr	r3, [r7, #4]
 1741 0460 1B68     		ldr	r3, [r3]
 1742              		.loc 1 726 25
 1743 0462 0022     		movs	r2, #0
 1744 0464 DA67     		str	r2, [r3, #124]
 727:STM32Cube_FW_N6/Drivers/STM32N6xx_HAL_Driver/Src/stm32n6xx_hal_dma_ex.c **** 
 728:STM32Cube_FW_N6/Drivers/STM32N6xx_HAL_Driver/Src/stm32n6xx_hal_dma_ex.c ****   /* Reset 2D Addressing registers */
 729:STM32Cube_FW_N6/Drivers/STM32N6xx_HAL_Driver/Src/stm32n6xx_hal_dma_ex.c ****   if (IS_DMA_2D_ADDRESSING_INSTANCE(hdma->Instance) != 0U)
 1745              		.loc 1 729 7
 1746 0466 7B68     		ldr	r3, [r7, #4]
 1747 0468 1B68     		ldr	r3, [r3]
 1748 046a 364A     		ldr	r2, .L42+56
 1749 046c 9342     		cmp	r3, r2
 1750 046e 4AD0     		beq	.L33
 1751              		.loc 1 729 7 is_stmt 0 discriminator 2
 1752 0470 7B68     		ldr	r3, [r7, #4]
 1753 0472 1B68     		ldr	r3, [r3]
 1754 0474 344A     		ldr	r2, .L42+60
 1755 0476 9342     		cmp	r3, r2
 1756 0478 45D0     		beq	.L33
 1757              		.loc 1 729 7 discriminator 4
 1758 047a 7B68     		ldr	r3, [r7, #4]
 1759 047c 1B68     		ldr	r3, [r3]
 1760 047e 334A     		ldr	r2, .L42+64
 1761 0480 9342     		cmp	r3, r2
 1762 0482 40D0     		beq	.L33
 1763              		.loc 1 729 7 discriminator 6
 1764 0484 7B68     		ldr	r3, [r7, #4]
 1765 0486 1B68     		ldr	r3, [r3]
 1766 0488 314A     		ldr	r2, .L42+68
ARM GAS  /tmp/ccuUFTu8.s 			page 45


 1767 048a 9342     		cmp	r3, r2
 1768 048c 3BD0     		beq	.L33
 1769              		.loc 1 729 7 discriminator 8
 1770 048e 7B68     		ldr	r3, [r7, #4]
 1771 0490 1B68     		ldr	r3, [r3]
 1772 0492 304A     		ldr	r2, .L42+72
 1773 0494 9342     		cmp	r3, r2
 1774 0496 36D0     		beq	.L33
 1775              		.loc 1 729 7 discriminator 10
 1776 0498 7B68     		ldr	r3, [r7, #4]
 1777 049a 1B68     		ldr	r3, [r3]
 1778 049c 2E4A     		ldr	r2, .L42+76
 1779 049e 9342     		cmp	r3, r2
 1780 04a0 31D0     		beq	.L33
 1781              		.loc 1 729 7 discriminator 12
 1782 04a2 7B68     		ldr	r3, [r7, #4]
 1783 04a4 1B68     		ldr	r3, [r3]
 1784 04a6 2D4A     		ldr	r2, .L42+80
 1785 04a8 9342     		cmp	r3, r2
 1786 04aa 2CD0     		beq	.L33
 1787              		.loc 1 729 7 discriminator 14
 1788 04ac 7B68     		ldr	r3, [r7, #4]
 1789 04ae 1B68     		ldr	r3, [r3]
 1790 04b0 2B4A     		ldr	r2, .L42+84
 1791 04b2 9342     		cmp	r3, r2
 1792 04b4 27D0     		beq	.L33
 1793              		.loc 1 729 7 discriminator 16
 1794 04b6 7B68     		ldr	r3, [r7, #4]
 1795 04b8 1B68     		ldr	r3, [r3]
 1796 04ba 194A     		ldr	r2, .L42+20
 1797 04bc 9342     		cmp	r3, r2
 1798 04be 22D0     		beq	.L33
 1799              		.loc 1 729 7 discriminator 18
 1800 04c0 7B68     		ldr	r3, [r7, #4]
 1801 04c2 1B68     		ldr	r3, [r3]
 1802 04c4 174A     		ldr	r2, .L42+24
 1803 04c6 9342     		cmp	r3, r2
 1804 04c8 1DD0     		beq	.L33
 1805              		.loc 1 729 7 discriminator 20
 1806 04ca 7B68     		ldr	r3, [r7, #4]
 1807 04cc 1B68     		ldr	r3, [r3]
 1808 04ce 164A     		ldr	r2, .L42+28
 1809 04d0 9342     		cmp	r3, r2
 1810 04d2 18D0     		beq	.L33
 1811              		.loc 1 729 7 discriminator 22
 1812 04d4 7B68     		ldr	r3, [r7, #4]
 1813 04d6 1B68     		ldr	r3, [r3]
 1814 04d8 144A     		ldr	r2, .L42+32
 1815 04da 9342     		cmp	r3, r2
 1816 04dc 13D0     		beq	.L33
 1817              		.loc 1 729 7 discriminator 24
 1818 04de 7B68     		ldr	r3, [r7, #4]
 1819 04e0 1B68     		ldr	r3, [r3]
 1820 04e2 134A     		ldr	r2, .L42+36
 1821 04e4 9342     		cmp	r3, r2
 1822 04e6 0ED0     		beq	.L33
 1823              		.loc 1 729 7 discriminator 26
ARM GAS  /tmp/ccuUFTu8.s 			page 46


 1824 04e8 7B68     		ldr	r3, [r7, #4]
 1825 04ea 1B68     		ldr	r3, [r3]
 1826 04ec 114A     		ldr	r2, .L42+40
 1827 04ee 9342     		cmp	r3, r2
 1828 04f0 09D0     		beq	.L33
 1829              		.loc 1 729 7 discriminator 28
 1830 04f2 7B68     		ldr	r3, [r7, #4]
 1831 04f4 1B68     		ldr	r3, [r3]
 1832 04f6 104A     		ldr	r2, .L42+44
 1833 04f8 9342     		cmp	r3, r2
 1834 04fa 04D0     		beq	.L33
 1835              		.loc 1 729 7 discriminator 30
 1836 04fc 7B68     		ldr	r3, [r7, #4]
 1837 04fe 1B68     		ldr	r3, [r3]
 1838 0500 0E4A     		ldr	r2, .L42+48
 1839 0502 9342     		cmp	r3, r2
 1840 0504 2ED1     		bne	.L34
 1841              	.L33:
 1842              		.loc 1 729 7 discriminator 31
 1843 0506 0123     		movs	r3, #1
 1844              		.loc 1 729 7
 1845 0508 2DE0     		b	.L35
 1846              	.L43:
 1847 050a 00BF     		.align	2
 1848              	.L42:
 1849 050c D0040248 		.word	1208091856
 1850 0510 50050258 		.word	1476527440
 1851 0514 50050248 		.word	1208091984
 1852 0518 D0050258 		.word	1476527568
 1853 051c D0050248 		.word	1208092112
 1854 0520 50060258 		.word	1476527696
 1855 0524 50060248 		.word	1208092240
 1856 0528 D0060258 		.word	1476527824
 1857 052c D0060248 		.word	1208092368
 1858 0530 50070258 		.word	1476527952
 1859 0534 50070248 		.word	1208092496
 1860 0538 D0070258 		.word	1476528080
 1861 053c D0070248 		.word	1208092624
 1862 0540 00000000 		.word	.LC1
 1863 0544 50160250 		.word	1342314064
 1864 0548 50160240 		.word	1073878608
 1865 054c D0160250 		.word	1342314192
 1866 0550 D0160240 		.word	1073878736
 1867 0554 50170250 		.word	1342314320
 1868 0558 50170240 		.word	1073878864
 1869 055c D0170250 		.word	1342314448
 1870 0560 D0170240 		.word	1073878992
 1871              	.L34:
 1872              		.loc 1 729 7 discriminator 32
 1873 0564 0023     		movs	r3, #0
 1874              	.L35:
 1875              		.loc 1 729 6 is_stmt 1 discriminator 34
 1876 0566 002B     		cmp	r3, #0
 1877 0568 07D0     		beq	.L36
 730:STM32Cube_FW_N6/Drivers/STM32N6xx_HAL_Driver/Src/stm32n6xx_hal_dma_ex.c ****   {
 731:STM32Cube_FW_N6/Drivers/STM32N6xx_HAL_Driver/Src/stm32n6xx_hal_dma_ex.c ****     hdma->Instance->CTR3 = 0U;
 1878              		.loc 1 731 9
ARM GAS  /tmp/ccuUFTu8.s 			page 47


 1879 056a 7B68     		ldr	r3, [r7, #4]
 1880 056c 1B68     		ldr	r3, [r3]
 1881              		.loc 1 731 26
 1882 056e 0022     		movs	r2, #0
 1883 0570 5A65     		str	r2, [r3, #84]
 732:STM32Cube_FW_N6/Drivers/STM32N6xx_HAL_Driver/Src/stm32n6xx_hal_dma_ex.c ****     hdma->Instance->CBR2 = 0U;
 1884              		.loc 1 732 9
 1885 0572 7B68     		ldr	r3, [r7, #4]
 1886 0574 1B68     		ldr	r3, [r3]
 1887              		.loc 1 732 26
 1888 0576 0022     		movs	r2, #0
 1889 0578 9A65     		str	r2, [r3, #88]
 1890              	.L36:
 733:STM32Cube_FW_N6/Drivers/STM32N6xx_HAL_Driver/Src/stm32n6xx_hal_dma_ex.c ****   }
 734:STM32Cube_FW_N6/Drivers/STM32N6xx_HAL_Driver/Src/stm32n6xx_hal_dma_ex.c **** 
 735:STM32Cube_FW_N6/Drivers/STM32N6xx_HAL_Driver/Src/stm32n6xx_hal_dma_ex.c **** 
 736:STM32Cube_FW_N6/Drivers/STM32N6xx_HAL_Driver/Src/stm32n6xx_hal_dma_ex.c ****   /* Clear privilege attribute */
 737:STM32Cube_FW_N6/Drivers/STM32N6xx_HAL_Driver/Src/stm32n6xx_hal_dma_ex.c ****   CLEAR_BIT(p_dma_instance->PRIVCFGR, (1UL << (GET_DMA_CHANNEL(hdma) & 0x1FU)));
 1891              		.loc 1 737 3
 1892 057a BB68     		ldr	r3, [r7, #8]
 1893 057c 5A68     		ldr	r2, [r3, #4]
 1894 057e 7B68     		ldr	r3, [r7, #4]
 1895 0580 1B68     		ldr	r3, [r3]
 1896 0582 C3F30B03 		ubfx	r3, r3, #0, #12
 1897 0586 503B     		subs	r3, r3, #80
 1898 0588 DB09     		lsrs	r3, r3, #7
 1899 058a 03F01F03 		and	r3, r3, #31
 1900 058e 0121     		movs	r1, #1
 1901 0590 01FA03F3 		lsl	r3, r1, r3
 1902 0594 DB43     		mvns	r3, r3
 1903 0596 1A40     		ands	r2, r2, r3
 1904 0598 BB68     		ldr	r3, [r7, #8]
 1905 059a 5A60     		str	r2, [r3, #4]
 738:STM32Cube_FW_N6/Drivers/STM32N6xx_HAL_Driver/Src/stm32n6xx_hal_dma_ex.c **** 
 739:STM32Cube_FW_N6/Drivers/STM32N6xx_HAL_Driver/Src/stm32n6xx_hal_dma_ex.c **** 
 740:STM32Cube_FW_N6/Drivers/STM32N6xx_HAL_Driver/Src/stm32n6xx_hal_dma_ex.c **** #if defined (CPU_IN_SECURE_STATE)
 741:STM32Cube_FW_N6/Drivers/STM32N6xx_HAL_Driver/Src/stm32n6xx_hal_dma_ex.c ****   /* Clear secure attribute */
 742:STM32Cube_FW_N6/Drivers/STM32N6xx_HAL_Driver/Src/stm32n6xx_hal_dma_ex.c ****   CLEAR_BIT(p_dma_instance->SECCFGR, (1UL << (GET_DMA_CHANNEL(hdma) & 0x1FU)));
 1906              		.loc 1 742 3
 1907 059c BB68     		ldr	r3, [r7, #8]
 1908 059e 1A68     		ldr	r2, [r3]
 1909 05a0 7B68     		ldr	r3, [r7, #4]
 1910 05a2 1B68     		ldr	r3, [r3]
 1911 05a4 C3F30B03 		ubfx	r3, r3, #0, #12
 1912 05a8 503B     		subs	r3, r3, #80
 1913 05aa DB09     		lsrs	r3, r3, #7
 1914 05ac 03F01F03 		and	r3, r3, #31
 1915 05b0 0121     		movs	r1, #1
 1916 05b2 01FA03F3 		lsl	r3, r1, r3
 1917 05b6 DB43     		mvns	r3, r3
 1918 05b8 1A40     		ands	r2, r2, r3
 1919 05ba BB68     		ldr	r3, [r7, #8]
 1920 05bc 1A60     		str	r2, [r3]
 743:STM32Cube_FW_N6/Drivers/STM32N6xx_HAL_Driver/Src/stm32n6xx_hal_dma_ex.c **** #endif /* CPU_IN_SECURE_STATE */
 744:STM32Cube_FW_N6/Drivers/STM32N6xx_HAL_Driver/Src/stm32n6xx_hal_dma_ex.c **** 
 745:STM32Cube_FW_N6/Drivers/STM32N6xx_HAL_Driver/Src/stm32n6xx_hal_dma_ex.c ****   /* Clear all flags */
 746:STM32Cube_FW_N6/Drivers/STM32N6xx_HAL_Driver/Src/stm32n6xx_hal_dma_ex.c ****   __HAL_DMA_CLEAR_FLAG(hdma, (DMA_FLAG_TC | DMA_FLAG_HT | DMA_FLAG_DTE | DMA_FLAG_ULE | DMA_FLAG_US
ARM GAS  /tmp/ccuUFTu8.s 			page 48


 1921              		.loc 1 746 3
 1922 05be 7B68     		ldr	r3, [r7, #4]
 1923 05c0 1B68     		ldr	r3, [r3]
 1924 05c2 4FF4FE42 		mov	r2, #32512
 1925 05c6 DA60     		str	r2, [r3, #12]
 747:STM32Cube_FW_N6/Drivers/STM32N6xx_HAL_Driver/Src/stm32n6xx_hal_dma_ex.c ****                               DMA_FLAG_TO));
 748:STM32Cube_FW_N6/Drivers/STM32N6xx_HAL_Driver/Src/stm32n6xx_hal_dma_ex.c **** 
 749:STM32Cube_FW_N6/Drivers/STM32N6xx_HAL_Driver/Src/stm32n6xx_hal_dma_ex.c ****   /* Clean all callbacks */
 750:STM32Cube_FW_N6/Drivers/STM32N6xx_HAL_Driver/Src/stm32n6xx_hal_dma_ex.c ****   hdma->XferCpltCallback     = NULL;
 1926              		.loc 1 750 30
 1927 05c8 7B68     		ldr	r3, [r7, #4]
 1928 05ca 0022     		movs	r2, #0
 1929 05cc 1A66     		str	r2, [r3, #96]
 751:STM32Cube_FW_N6/Drivers/STM32N6xx_HAL_Driver/Src/stm32n6xx_hal_dma_ex.c ****   hdma->XferHalfCpltCallback = NULL;
 1930              		.loc 1 751 30
 1931 05ce 7B68     		ldr	r3, [r7, #4]
 1932 05d0 0022     		movs	r2, #0
 1933 05d2 5A66     		str	r2, [r3, #100]
 752:STM32Cube_FW_N6/Drivers/STM32N6xx_HAL_Driver/Src/stm32n6xx_hal_dma_ex.c ****   hdma->XferErrorCallback    = NULL;
 1934              		.loc 1 752 30
 1935 05d4 7B68     		ldr	r3, [r7, #4]
 1936 05d6 0022     		movs	r2, #0
 1937 05d8 9A66     		str	r2, [r3, #104]
 753:STM32Cube_FW_N6/Drivers/STM32N6xx_HAL_Driver/Src/stm32n6xx_hal_dma_ex.c ****   hdma->XferAbortCallback    = NULL;
 1938              		.loc 1 753 30
 1939 05da 7B68     		ldr	r3, [r7, #4]
 1940 05dc 0022     		movs	r2, #0
 1941 05de DA66     		str	r2, [r3, #108]
 754:STM32Cube_FW_N6/Drivers/STM32N6xx_HAL_Driver/Src/stm32n6xx_hal_dma_ex.c ****   hdma->XferSuspendCallback  = NULL;
 1942              		.loc 1 754 30
 1943 05e0 7B68     		ldr	r3, [r7, #4]
 1944 05e2 0022     		movs	r2, #0
 1945 05e4 1A67     		str	r2, [r3, #112]
 755:STM32Cube_FW_N6/Drivers/STM32N6xx_HAL_Driver/Src/stm32n6xx_hal_dma_ex.c **** 
 756:STM32Cube_FW_N6/Drivers/STM32N6xx_HAL_Driver/Src/stm32n6xx_hal_dma_ex.c ****   /* Check the linked-list queue */
 757:STM32Cube_FW_N6/Drivers/STM32N6xx_HAL_Driver/Src/stm32n6xx_hal_dma_ex.c ****   if (hdma->LinkedListQueue != NULL)
 1946              		.loc 1 757 11
 1947 05e6 7B68     		ldr	r3, [r7, #4]
 1948 05e8 5B6F     		ldr	r3, [r3, #116]
 1949              		.loc 1 757 6
 1950 05ea 002B     		cmp	r3, #0
 1951 05ec 0AD0     		beq	.L37
 758:STM32Cube_FW_N6/Drivers/STM32N6xx_HAL_Driver/Src/stm32n6xx_hal_dma_ex.c ****   {
 759:STM32Cube_FW_N6/Drivers/STM32N6xx_HAL_Driver/Src/stm32n6xx_hal_dma_ex.c ****     /* Update the queue state and error code */
 760:STM32Cube_FW_N6/Drivers/STM32N6xx_HAL_Driver/Src/stm32n6xx_hal_dma_ex.c ****     hdma->LinkedListQueue->State     = HAL_DMA_QUEUE_STATE_READY;
 1952              		.loc 1 760 9
 1953 05ee 7B68     		ldr	r3, [r7, #4]
 1954 05f0 5B6F     		ldr	r3, [r3, #116]
 1955              		.loc 1 760 38
 1956 05f2 0122     		movs	r2, #1
 1957 05f4 1A73     		strb	r2, [r3, #12]
 761:STM32Cube_FW_N6/Drivers/STM32N6xx_HAL_Driver/Src/stm32n6xx_hal_dma_ex.c ****     hdma->LinkedListQueue->ErrorCode = HAL_DMA_QUEUE_ERROR_NONE;
 1958              		.loc 1 761 9
 1959 05f6 7B68     		ldr	r3, [r7, #4]
 1960 05f8 5B6F     		ldr	r3, [r3, #116]
 1961              		.loc 1 761 38
 1962 05fa 0022     		movs	r2, #0
ARM GAS  /tmp/ccuUFTu8.s 			page 49


 1963 05fc 1A61     		str	r2, [r3, #16]
 762:STM32Cube_FW_N6/Drivers/STM32N6xx_HAL_Driver/Src/stm32n6xx_hal_dma_ex.c **** 
 763:STM32Cube_FW_N6/Drivers/STM32N6xx_HAL_Driver/Src/stm32n6xx_hal_dma_ex.c ****     /* Clean DMA queue */
 764:STM32Cube_FW_N6/Drivers/STM32N6xx_HAL_Driver/Src/stm32n6xx_hal_dma_ex.c ****     hdma->LinkedListQueue = NULL;
 1964              		.loc 1 764 27
 1965 05fe 7B68     		ldr	r3, [r7, #4]
 1966 0600 0022     		movs	r2, #0
 1967 0602 5A67     		str	r2, [r3, #116]
 1968              	.L37:
 765:STM32Cube_FW_N6/Drivers/STM32N6xx_HAL_Driver/Src/stm32n6xx_hal_dma_ex.c ****   }
 766:STM32Cube_FW_N6/Drivers/STM32N6xx_HAL_Driver/Src/stm32n6xx_hal_dma_ex.c **** 
 767:STM32Cube_FW_N6/Drivers/STM32N6xx_HAL_Driver/Src/stm32n6xx_hal_dma_ex.c ****   /* Clean DMA parent */
 768:STM32Cube_FW_N6/Drivers/STM32N6xx_HAL_Driver/Src/stm32n6xx_hal_dma_ex.c ****   if (hdma->Parent != NULL)
 1969              		.loc 1 768 11
 1970 0604 7B68     		ldr	r3, [r7, #4]
 1971 0606 DB6D     		ldr	r3, [r3, #92]
 1972              		.loc 1 768 6
 1973 0608 002B     		cmp	r3, #0
 1974 060a 02D0     		beq	.L38
 769:STM32Cube_FW_N6/Drivers/STM32N6xx_HAL_Driver/Src/stm32n6xx_hal_dma_ex.c ****   {
 770:STM32Cube_FW_N6/Drivers/STM32N6xx_HAL_Driver/Src/stm32n6xx_hal_dma_ex.c ****     hdma->Parent = NULL;
 1975              		.loc 1 770 18
 1976 060c 7B68     		ldr	r3, [r7, #4]
 1977 060e 0022     		movs	r2, #0
 1978 0610 DA65     		str	r2, [r3, #92]
 1979              	.L38:
 771:STM32Cube_FW_N6/Drivers/STM32N6xx_HAL_Driver/Src/stm32n6xx_hal_dma_ex.c ****   }
 772:STM32Cube_FW_N6/Drivers/STM32N6xx_HAL_Driver/Src/stm32n6xx_hal_dma_ex.c **** 
 773:STM32Cube_FW_N6/Drivers/STM32N6xx_HAL_Driver/Src/stm32n6xx_hal_dma_ex.c ****   /* Update DMA channel operation mode */
 774:STM32Cube_FW_N6/Drivers/STM32N6xx_HAL_Driver/Src/stm32n6xx_hal_dma_ex.c ****   hdma->Mode = DMA_NORMAL;
 1980              		.loc 1 774 14
 1981 0612 7B68     		ldr	r3, [r7, #4]
 1982 0614 0022     		movs	r2, #0
 1983 0616 1A65     		str	r2, [r3, #80]
 775:STM32Cube_FW_N6/Drivers/STM32N6xx_HAL_Driver/Src/stm32n6xx_hal_dma_ex.c **** 
 776:STM32Cube_FW_N6/Drivers/STM32N6xx_HAL_Driver/Src/stm32n6xx_hal_dma_ex.c ****   /* Update the DMA channel error code */
 777:STM32Cube_FW_N6/Drivers/STM32N6xx_HAL_Driver/Src/stm32n6xx_hal_dma_ex.c ****   hdma->ErrorCode = HAL_DMA_ERROR_NONE;
 1984              		.loc 1 777 19
 1985 0618 7B68     		ldr	r3, [r7, #4]
 1986 061a 0022     		movs	r2, #0
 1987 061c 9A65     		str	r2, [r3, #88]
 778:STM32Cube_FW_N6/Drivers/STM32N6xx_HAL_Driver/Src/stm32n6xx_hal_dma_ex.c **** 
 779:STM32Cube_FW_N6/Drivers/STM32N6xx_HAL_Driver/Src/stm32n6xx_hal_dma_ex.c ****   /* Update the DMA channel state */
 780:STM32Cube_FW_N6/Drivers/STM32N6xx_HAL_Driver/Src/stm32n6xx_hal_dma_ex.c ****   hdma->State = HAL_DMA_STATE_RESET;
 1988              		.loc 1 780 15
 1989 061e 7B68     		ldr	r3, [r7, #4]
 1990 0620 0022     		movs	r2, #0
 1991 0622 83F85420 		strb	r2, [r3, #84]
 781:STM32Cube_FW_N6/Drivers/STM32N6xx_HAL_Driver/Src/stm32n6xx_hal_dma_ex.c **** 
 782:STM32Cube_FW_N6/Drivers/STM32N6xx_HAL_Driver/Src/stm32n6xx_hal_dma_ex.c ****   /* Release Lock */
 783:STM32Cube_FW_N6/Drivers/STM32N6xx_HAL_Driver/Src/stm32n6xx_hal_dma_ex.c ****   __HAL_UNLOCK(hdma);
 1992              		.loc 1 783 3
 1993 0626 7B68     		ldr	r3, [r7, #4]
 1994 0628 0022     		movs	r2, #0
 1995 062a 83F84C20 		strb	r2, [r3, #76]
 784:STM32Cube_FW_N6/Drivers/STM32N6xx_HAL_Driver/Src/stm32n6xx_hal_dma_ex.c **** 
 785:STM32Cube_FW_N6/Drivers/STM32N6xx_HAL_Driver/Src/stm32n6xx_hal_dma_ex.c ****   return HAL_OK;
ARM GAS  /tmp/ccuUFTu8.s 			page 50


 1996              		.loc 1 785 10
 1997 062e 0023     		movs	r3, #0
 1998              	.L29:
 786:STM32Cube_FW_N6/Drivers/STM32N6xx_HAL_Driver/Src/stm32n6xx_hal_dma_ex.c **** }
 1999              		.loc 1 786 1
 2000 0630 1846     		mov	r0, r3
 2001 0632 1037     		adds	r7, r7, #16
 2002              		.cfi_def_cfa_offset 8
 2003 0634 BD46     		mov	sp, r7
 2004              		.cfi_def_cfa_register 13
 2005              		@ sp needed
 2006 0636 80BD     		pop	{r7, pc}
 2007              		.cfi_endproc
 2008              	.LFE836:
 2010              		.section	.text.HAL_DMAEx_List_Start,"ax",%progbits
 2011              		.align	1
 2012              		.global	HAL_DMAEx_List_Start
 2013              		.syntax unified
 2014              		.thumb
 2015              		.thumb_func
 2017              	HAL_DMAEx_List_Start:
 2018              	.LFB837:
 787:STM32Cube_FW_N6/Drivers/STM32N6xx_HAL_Driver/Src/stm32n6xx_hal_dma_ex.c **** /**
 788:STM32Cube_FW_N6/Drivers/STM32N6xx_HAL_Driver/Src/stm32n6xx_hal_dma_ex.c ****   * @}
 789:STM32Cube_FW_N6/Drivers/STM32N6xx_HAL_Driver/Src/stm32n6xx_hal_dma_ex.c ****   */
 790:STM32Cube_FW_N6/Drivers/STM32N6xx_HAL_Driver/Src/stm32n6xx_hal_dma_ex.c **** 
 791:STM32Cube_FW_N6/Drivers/STM32N6xx_HAL_Driver/Src/stm32n6xx_hal_dma_ex.c **** /** @addtogroup DMAEx_Exported_Functions_Group2
 792:STM32Cube_FW_N6/Drivers/STM32N6xx_HAL_Driver/Src/stm32n6xx_hal_dma_ex.c ****   *
 793:STM32Cube_FW_N6/Drivers/STM32N6xx_HAL_Driver/Src/stm32n6xx_hal_dma_ex.c **** @verbatim
 794:STM32Cube_FW_N6/Drivers/STM32N6xx_HAL_Driver/Src/stm32n6xx_hal_dma_ex.c ****   =================================================================================================
 795:STM32Cube_FW_N6/Drivers/STM32N6xx_HAL_Driver/Src/stm32n6xx_hal_dma_ex.c ****                          ##### Linked-List IO Operation Functions #####
 796:STM32Cube_FW_N6/Drivers/STM32N6xx_HAL_Driver/Src/stm32n6xx_hal_dma_ex.c ****   =================================================================================================
 797:STM32Cube_FW_N6/Drivers/STM32N6xx_HAL_Driver/Src/stm32n6xx_hal_dma_ex.c ****     [..]
 798:STM32Cube_FW_N6/Drivers/STM32N6xx_HAL_Driver/Src/stm32n6xx_hal_dma_ex.c ****       This section provides functions allowing to :
 799:STM32Cube_FW_N6/Drivers/STM32N6xx_HAL_Driver/Src/stm32n6xx_hal_dma_ex.c ****       (+) Configure to start DMA transfer in linked-list mode.
 800:STM32Cube_FW_N6/Drivers/STM32N6xx_HAL_Driver/Src/stm32n6xx_hal_dma_ex.c **** 
 801:STM32Cube_FW_N6/Drivers/STM32N6xx_HAL_Driver/Src/stm32n6xx_hal_dma_ex.c ****     [..]
 802:STM32Cube_FW_N6/Drivers/STM32N6xx_HAL_Driver/Src/stm32n6xx_hal_dma_ex.c ****       (+) The HAL_DMAEx_List_Start() function allows to start the DMA channel transfer in linked-li
 803:STM32Cube_FW_N6/Drivers/STM32N6xx_HAL_Driver/Src/stm32n6xx_hal_dma_ex.c ****           mode).
 804:STM32Cube_FW_N6/Drivers/STM32N6xx_HAL_Driver/Src/stm32n6xx_hal_dma_ex.c ****       (+) The HAL_DMAEx_List_Start_IT() function allows to start the DMA channel transfer in linked
 805:STM32Cube_FW_N6/Drivers/STM32N6xx_HAL_Driver/Src/stm32n6xx_hal_dma_ex.c ****           (Non-blocking mode).
 806:STM32Cube_FW_N6/Drivers/STM32N6xx_HAL_Driver/Src/stm32n6xx_hal_dma_ex.c ****               (++) It is mandatory to register a linked-list queue to be executed by a DMA channel 
 807:STM32Cube_FW_N6/Drivers/STM32N6xx_HAL_Driver/Src/stm32n6xx_hal_dma_ex.c ****                    transfer otherwise a HAL_ERROR will be returned.
 808:STM32Cube_FW_N6/Drivers/STM32N6xx_HAL_Driver/Src/stm32n6xx_hal_dma_ex.c **** 
 809:STM32Cube_FW_N6/Drivers/STM32N6xx_HAL_Driver/Src/stm32n6xx_hal_dma_ex.c **** @endverbatim
 810:STM32Cube_FW_N6/Drivers/STM32N6xx_HAL_Driver/Src/stm32n6xx_hal_dma_ex.c ****   * @{
 811:STM32Cube_FW_N6/Drivers/STM32N6xx_HAL_Driver/Src/stm32n6xx_hal_dma_ex.c ****   */
 812:STM32Cube_FW_N6/Drivers/STM32N6xx_HAL_Driver/Src/stm32n6xx_hal_dma_ex.c **** 
 813:STM32Cube_FW_N6/Drivers/STM32N6xx_HAL_Driver/Src/stm32n6xx_hal_dma_ex.c **** /**
 814:STM32Cube_FW_N6/Drivers/STM32N6xx_HAL_Driver/Src/stm32n6xx_hal_dma_ex.c ****   * @brief  Start the DMA channel transfer in linked-list mode (Blocking mode).
 815:STM32Cube_FW_N6/Drivers/STM32N6xx_HAL_Driver/Src/stm32n6xx_hal_dma_ex.c ****   * @param  hdma : Pointer to a DMA_HandleTypeDef structure that contains the configuration informa
 816:STM32Cube_FW_N6/Drivers/STM32N6xx_HAL_Driver/Src/stm32n6xx_hal_dma_ex.c ****   *                specified DMA Channel.
 817:STM32Cube_FW_N6/Drivers/STM32N6xx_HAL_Driver/Src/stm32n6xx_hal_dma_ex.c ****   * @retval HAL status.
 818:STM32Cube_FW_N6/Drivers/STM32N6xx_HAL_Driver/Src/stm32n6xx_hal_dma_ex.c ****   */
 819:STM32Cube_FW_N6/Drivers/STM32N6xx_HAL_Driver/Src/stm32n6xx_hal_dma_ex.c **** HAL_StatusTypeDef HAL_DMAEx_List_Start(DMA_HandleTypeDef *const hdma)
 820:STM32Cube_FW_N6/Drivers/STM32N6xx_HAL_Driver/Src/stm32n6xx_hal_dma_ex.c **** {
 2019              		.loc 1 820 1
ARM GAS  /tmp/ccuUFTu8.s 			page 51


 2020              		.cfi_startproc
 2021              		@ args = 0, pretend = 0, frame = 24
 2022              		@ frame_needed = 1, uses_anonymous_args = 0
 2023 0000 80B5     		push	{r7, lr}
 2024              		.cfi_def_cfa_offset 8
 2025              		.cfi_offset 7, -8
 2026              		.cfi_offset 14, -4
 2027 0002 86B0     		sub	sp, sp, #24
 2028              		.cfi_def_cfa_offset 32
 2029 0004 00AF     		add	r7, sp, #0
 2030              		.cfi_def_cfa_register 7
 2031 0006 7860     		str	r0, [r7, #4]
 821:STM32Cube_FW_N6/Drivers/STM32N6xx_HAL_Driver/Src/stm32n6xx_hal_dma_ex.c ****   HAL_DMA_StateTypeDef dma_state;
 822:STM32Cube_FW_N6/Drivers/STM32N6xx_HAL_Driver/Src/stm32n6xx_hal_dma_ex.c ****   uint32_t ccr_value;
 823:STM32Cube_FW_N6/Drivers/STM32N6xx_HAL_Driver/Src/stm32n6xx_hal_dma_ex.c ****   uint32_t cllr_mask;
 824:STM32Cube_FW_N6/Drivers/STM32N6xx_HAL_Driver/Src/stm32n6xx_hal_dma_ex.c **** 
 825:STM32Cube_FW_N6/Drivers/STM32N6xx_HAL_Driver/Src/stm32n6xx_hal_dma_ex.c ****   /* Check the DMA peripheral handle and the linked-list queue parameters */
 826:STM32Cube_FW_N6/Drivers/STM32N6xx_HAL_Driver/Src/stm32n6xx_hal_dma_ex.c ****   if ((hdma == NULL) || (hdma->LinkedListQueue == NULL))
 2032              		.loc 1 826 6
 2033 0008 7B68     		ldr	r3, [r7, #4]
 2034 000a 002B     		cmp	r3, #0
 2035 000c 03D0     		beq	.L45
 2036              		.loc 1 826 30 discriminator 1
 2037 000e 7B68     		ldr	r3, [r7, #4]
 2038 0010 5B6F     		ldr	r3, [r3, #116]
 2039              		.loc 1 826 22 discriminator 1
 2040 0012 002B     		cmp	r3, #0
 2041 0014 01D1     		bne	.L46
 2042              	.L45:
 827:STM32Cube_FW_N6/Drivers/STM32N6xx_HAL_Driver/Src/stm32n6xx_hal_dma_ex.c ****   {
 828:STM32Cube_FW_N6/Drivers/STM32N6xx_HAL_Driver/Src/stm32n6xx_hal_dma_ex.c ****     return HAL_ERROR;
 2043              		.loc 1 828 12
 2044 0016 0123     		movs	r3, #1
 2045 0018 62E0     		b	.L52
 2046              	.L46:
 829:STM32Cube_FW_N6/Drivers/STM32N6xx_HAL_Driver/Src/stm32n6xx_hal_dma_ex.c ****   }
 830:STM32Cube_FW_N6/Drivers/STM32N6xx_HAL_Driver/Src/stm32n6xx_hal_dma_ex.c **** 
 831:STM32Cube_FW_N6/Drivers/STM32N6xx_HAL_Driver/Src/stm32n6xx_hal_dma_ex.c ****   /* Check DMA channel state */
 832:STM32Cube_FW_N6/Drivers/STM32N6xx_HAL_Driver/Src/stm32n6xx_hal_dma_ex.c ****   dma_state = hdma->State;
 2047              		.loc 1 832 13
 2048 001a 7B68     		ldr	r3, [r7, #4]
 2049 001c 93F85430 		ldrb	r3, [r3, #84]
 2050 0020 FB75     		strb	r3, [r7, #23]
 833:STM32Cube_FW_N6/Drivers/STM32N6xx_HAL_Driver/Src/stm32n6xx_hal_dma_ex.c ****   ccr_value = hdma->Instance->CCR & DMA_CCR_LSM;
 2051              		.loc 1 833 19
 2052 0022 7B68     		ldr	r3, [r7, #4]
 2053 0024 1B68     		ldr	r3, [r3]
 2054              		.loc 1 833 29
 2055 0026 5B69     		ldr	r3, [r3, #20]
 2056              		.loc 1 833 13
 2057 0028 03F48033 		and	r3, r3, #65536
 2058 002c 3B61     		str	r3, [r7, #16]
 834:STM32Cube_FW_N6/Drivers/STM32N6xx_HAL_Driver/Src/stm32n6xx_hal_dma_ex.c ****   if ((dma_state == HAL_DMA_STATE_READY) || ((dma_state == HAL_DMA_STATE_BUSY) && (ccr_value != 0U)
 2059              		.loc 1 834 6
 2060 002e FB7D     		ldrb	r3, [r7, #23]	@ zero_extendqisi2
 2061 0030 012B     		cmp	r3, #1
 2062 0032 05D0     		beq	.L48
ARM GAS  /tmp/ccuUFTu8.s 			page 52


 2063              		.loc 1 834 42 discriminator 1
 2064 0034 FB7D     		ldrb	r3, [r7, #23]	@ zero_extendqisi2
 2065 0036 022B     		cmp	r3, #2
 2066 0038 4AD1     		bne	.L49
 2067              		.loc 1 834 80 discriminator 2
 2068 003a 3B69     		ldr	r3, [r7, #16]
 2069 003c 002B     		cmp	r3, #0
 2070 003e 47D0     		beq	.L49
 2071              	.L48:
 835:STM32Cube_FW_N6/Drivers/STM32N6xx_HAL_Driver/Src/stm32n6xx_hal_dma_ex.c ****   {
 836:STM32Cube_FW_N6/Drivers/STM32N6xx_HAL_Driver/Src/stm32n6xx_hal_dma_ex.c ****     /* Check DMA channel state is ready */
 837:STM32Cube_FW_N6/Drivers/STM32N6xx_HAL_Driver/Src/stm32n6xx_hal_dma_ex.c ****     if (hdma->State == HAL_DMA_STATE_READY)
 2072              		.loc 1 837 13
 2073 0040 7B68     		ldr	r3, [r7, #4]
 2074 0042 93F85430 		ldrb	r3, [r3, #84]
 2075 0046 DBB2     		uxtb	r3, r3
 2076              		.loc 1 837 8
 2077 0048 012B     		cmp	r3, #1
 2078 004a 37D1     		bne	.L50
 838:STM32Cube_FW_N6/Drivers/STM32N6xx_HAL_Driver/Src/stm32n6xx_hal_dma_ex.c ****     {
 839:STM32Cube_FW_N6/Drivers/STM32N6xx_HAL_Driver/Src/stm32n6xx_hal_dma_ex.c ****       /* Process locked */
 840:STM32Cube_FW_N6/Drivers/STM32N6xx_HAL_Driver/Src/stm32n6xx_hal_dma_ex.c ****       __HAL_LOCK(hdma);
 2079              		.loc 1 840 7
 2080 004c 7B68     		ldr	r3, [r7, #4]
 2081 004e 93F84C30 		ldrb	r3, [r3, #76]	@ zero_extendqisi2
 2082 0052 012B     		cmp	r3, #1
 2083 0054 01D1     		bne	.L51
 2084              		.loc 1 840 7 is_stmt 0 discriminator 1
 2085 0056 0223     		movs	r3, #2
 2086              		.loc 1 840 7
 2087 0058 42E0     		b	.L52
 2088              	.L51:
 2089              		.loc 1 840 7 discriminator 2
 2090 005a 7B68     		ldr	r3, [r7, #4]
 2091 005c 0122     		movs	r2, #1
 2092 005e 83F84C20 		strb	r2, [r3, #76]
 841:STM32Cube_FW_N6/Drivers/STM32N6xx_HAL_Driver/Src/stm32n6xx_hal_dma_ex.c **** 
 842:STM32Cube_FW_N6/Drivers/STM32N6xx_HAL_Driver/Src/stm32n6xx_hal_dma_ex.c ****       /* Update the DMA channel and the queue states */
 843:STM32Cube_FW_N6/Drivers/STM32N6xx_HAL_Driver/Src/stm32n6xx_hal_dma_ex.c ****       hdma->State                  = HAL_DMA_STATE_BUSY;
 2093              		.loc 1 843 36 is_stmt 1
 2094 0062 7B68     		ldr	r3, [r7, #4]
 2095 0064 0222     		movs	r2, #2
 2096 0066 83F85420 		strb	r2, [r3, #84]
 844:STM32Cube_FW_N6/Drivers/STM32N6xx_HAL_Driver/Src/stm32n6xx_hal_dma_ex.c ****       hdma->LinkedListQueue->State = HAL_DMA_QUEUE_STATE_BUSY;
 2097              		.loc 1 844 11
 2098 006a 7B68     		ldr	r3, [r7, #4]
 2099 006c 5B6F     		ldr	r3, [r3, #116]
 2100              		.loc 1 844 36
 2101 006e 0222     		movs	r2, #2
 2102 0070 1A73     		strb	r2, [r3, #12]
 845:STM32Cube_FW_N6/Drivers/STM32N6xx_HAL_Driver/Src/stm32n6xx_hal_dma_ex.c **** 
 846:STM32Cube_FW_N6/Drivers/STM32N6xx_HAL_Driver/Src/stm32n6xx_hal_dma_ex.c ****       /* Update the DMA channel and the queue error codes */
 847:STM32Cube_FW_N6/Drivers/STM32N6xx_HAL_Driver/Src/stm32n6xx_hal_dma_ex.c ****       hdma->ErrorCode                  = HAL_DMA_ERROR_NONE;
 2103              		.loc 1 847 40
 2104 0072 7B68     		ldr	r3, [r7, #4]
 2105 0074 0022     		movs	r2, #0
 2106 0076 9A65     		str	r2, [r3, #88]
ARM GAS  /tmp/ccuUFTu8.s 			page 53


 848:STM32Cube_FW_N6/Drivers/STM32N6xx_HAL_Driver/Src/stm32n6xx_hal_dma_ex.c ****       hdma->LinkedListQueue->ErrorCode = HAL_DMA_QUEUE_ERROR_NONE;
 2107              		.loc 1 848 11
 2108 0078 7B68     		ldr	r3, [r7, #4]
 2109 007a 5B6F     		ldr	r3, [r3, #116]
 2110              		.loc 1 848 40
 2111 007c 0022     		movs	r2, #0
 2112 007e 1A61     		str	r2, [r3, #16]
 849:STM32Cube_FW_N6/Drivers/STM32N6xx_HAL_Driver/Src/stm32n6xx_hal_dma_ex.c **** 
 850:STM32Cube_FW_N6/Drivers/STM32N6xx_HAL_Driver/Src/stm32n6xx_hal_dma_ex.c ****       /* Get CLLR register mask and offset */
 851:STM32Cube_FW_N6/Drivers/STM32N6xx_HAL_Driver/Src/stm32n6xx_hal_dma_ex.c ****       DMA_List_GetCLLRNodeInfo(hdma->LinkedListQueue->Head, &cllr_mask, NULL);
 2113              		.loc 1 851 36
 2114 0080 7B68     		ldr	r3, [r7, #4]
 2115 0082 5B6F     		ldr	r3, [r3, #116]
 2116              		.loc 1 851 53
 2117 0084 1B68     		ldr	r3, [r3]
 2118              		.loc 1 851 7
 2119 0086 07F10C01 		add	r1, r7, #12
 2120 008a 0022     		movs	r2, #0
 2121 008c 1846     		mov	r0, r3
 2122 008e FFF7FEFF 		bl	DMA_List_GetCLLRNodeInfo
 852:STM32Cube_FW_N6/Drivers/STM32N6xx_HAL_Driver/Src/stm32n6xx_hal_dma_ex.c **** 
 853:STM32Cube_FW_N6/Drivers/STM32N6xx_HAL_Driver/Src/stm32n6xx_hal_dma_ex.c ****       /* Update DMA registers for linked-list transfer */
 854:STM32Cube_FW_N6/Drivers/STM32N6xx_HAL_Driver/Src/stm32n6xx_hal_dma_ex.c ****       hdma->Instance->CLBAR = ((uint32_t)hdma->LinkedListQueue->Head & DMA_CLBAR_LBA);
 2123              		.loc 1 854 46
 2124 0092 7B68     		ldr	r3, [r7, #4]
 2125 0094 5B6F     		ldr	r3, [r3, #116]
 2126              		.loc 1 854 63
 2127 0096 1B68     		ldr	r3, [r3]
 2128              		.loc 1 854 32
 2129 0098 1946     		mov	r1, r3
 2130              		.loc 1 854 11
 2131 009a 7B68     		ldr	r3, [r7, #4]
 2132 009c 1A68     		ldr	r2, [r3]
 2133              		.loc 1 854 70
 2134 009e 0B0C     		lsrs	r3, r1, #16
 2135 00a0 1B04     		lsls	r3, r3, #16
 2136              		.loc 1 854 29
 2137 00a2 1360     		str	r3, [r2]
 855:STM32Cube_FW_N6/Drivers/STM32N6xx_HAL_Driver/Src/stm32n6xx_hal_dma_ex.c ****       hdma->Instance->CLLR  = ((uint32_t)hdma->LinkedListQueue->Head & DMA_CLLR_LA) | cllr_mask;
 2138              		.loc 1 855 46
 2139 00a4 7B68     		ldr	r3, [r7, #4]
 2140 00a6 5B6F     		ldr	r3, [r3, #116]
 2141              		.loc 1 855 63
 2142 00a8 1B68     		ldr	r3, [r3]
 2143              		.loc 1 855 32
 2144 00aa 1A46     		mov	r2, r3
 2145              		.loc 1 855 70
 2146 00ac 4FF6FC73 		movw	r3, #65532
 2147 00b0 1340     		ands	r3, r3, r2
 2148              		.loc 1 855 85
 2149 00b2 F968     		ldr	r1, [r7, #12]
 2150              		.loc 1 855 11
 2151 00b4 7A68     		ldr	r2, [r7, #4]
 2152 00b6 1268     		ldr	r2, [r2]
 2153              		.loc 1 855 85
 2154 00b8 0B43     		orrs	r3, r3, r1
 2155              		.loc 1 855 29
ARM GAS  /tmp/ccuUFTu8.s 			page 54


 2156 00ba D367     		str	r3, [r2, #124]
 2157              	.L50:
 856:STM32Cube_FW_N6/Drivers/STM32N6xx_HAL_Driver/Src/stm32n6xx_hal_dma_ex.c ****     }
 857:STM32Cube_FW_N6/Drivers/STM32N6xx_HAL_Driver/Src/stm32n6xx_hal_dma_ex.c **** 
 858:STM32Cube_FW_N6/Drivers/STM32N6xx_HAL_Driver/Src/stm32n6xx_hal_dma_ex.c ****     /* Enable DMA channel */
 859:STM32Cube_FW_N6/Drivers/STM32N6xx_HAL_Driver/Src/stm32n6xx_hal_dma_ex.c ****     __HAL_DMA_ENABLE(hdma);
 2158              		.loc 1 859 5
 2159 00bc 7B68     		ldr	r3, [r7, #4]
 2160 00be 1B68     		ldr	r3, [r3]
 2161 00c0 5A69     		ldr	r2, [r3, #20]
 2162 00c2 7B68     		ldr	r3, [r7, #4]
 2163 00c4 1B68     		ldr	r3, [r3]
 2164 00c6 42F00102 		orr	r2, r2, #1
 2165 00ca 5A61     		str	r2, [r3, #20]
 860:STM32Cube_FW_N6/Drivers/STM32N6xx_HAL_Driver/Src/stm32n6xx_hal_dma_ex.c ****   }
 861:STM32Cube_FW_N6/Drivers/STM32N6xx_HAL_Driver/Src/stm32n6xx_hal_dma_ex.c ****   else
 862:STM32Cube_FW_N6/Drivers/STM32N6xx_HAL_Driver/Src/stm32n6xx_hal_dma_ex.c ****   {
 863:STM32Cube_FW_N6/Drivers/STM32N6xx_HAL_Driver/Src/stm32n6xx_hal_dma_ex.c ****     /* Update the DMA channel error code */
 864:STM32Cube_FW_N6/Drivers/STM32N6xx_HAL_Driver/Src/stm32n6xx_hal_dma_ex.c ****     hdma->ErrorCode = HAL_DMA_ERROR_BUSY;
 865:STM32Cube_FW_N6/Drivers/STM32N6xx_HAL_Driver/Src/stm32n6xx_hal_dma_ex.c **** 
 866:STM32Cube_FW_N6/Drivers/STM32N6xx_HAL_Driver/Src/stm32n6xx_hal_dma_ex.c ****     /* Process unlocked */
 867:STM32Cube_FW_N6/Drivers/STM32N6xx_HAL_Driver/Src/stm32n6xx_hal_dma_ex.c ****     __HAL_UNLOCK(hdma);
 868:STM32Cube_FW_N6/Drivers/STM32N6xx_HAL_Driver/Src/stm32n6xx_hal_dma_ex.c **** 
 869:STM32Cube_FW_N6/Drivers/STM32N6xx_HAL_Driver/Src/stm32n6xx_hal_dma_ex.c ****     return HAL_ERROR;
 870:STM32Cube_FW_N6/Drivers/STM32N6xx_HAL_Driver/Src/stm32n6xx_hal_dma_ex.c ****   }
 871:STM32Cube_FW_N6/Drivers/STM32N6xx_HAL_Driver/Src/stm32n6xx_hal_dma_ex.c **** 
 872:STM32Cube_FW_N6/Drivers/STM32N6xx_HAL_Driver/Src/stm32n6xx_hal_dma_ex.c ****   return HAL_OK;
 2166              		.loc 1 872 10
 2167 00cc 0023     		movs	r3, #0
 2168 00ce 07E0     		b	.L52
 2169              	.L49:
 864:STM32Cube_FW_N6/Drivers/STM32N6xx_HAL_Driver/Src/stm32n6xx_hal_dma_ex.c **** 
 2170              		.loc 1 864 21
 2171 00d0 7B68     		ldr	r3, [r7, #4]
 2172 00d2 4022     		movs	r2, #64
 2173 00d4 9A65     		str	r2, [r3, #88]
 867:STM32Cube_FW_N6/Drivers/STM32N6xx_HAL_Driver/Src/stm32n6xx_hal_dma_ex.c **** 
 2174              		.loc 1 867 5
 2175 00d6 7B68     		ldr	r3, [r7, #4]
 2176 00d8 0022     		movs	r2, #0
 2177 00da 83F84C20 		strb	r2, [r3, #76]
 869:STM32Cube_FW_N6/Drivers/STM32N6xx_HAL_Driver/Src/stm32n6xx_hal_dma_ex.c ****   }
 2178              		.loc 1 869 12
 2179 00de 0123     		movs	r3, #1
 2180              	.L52:
 873:STM32Cube_FW_N6/Drivers/STM32N6xx_HAL_Driver/Src/stm32n6xx_hal_dma_ex.c **** }
 2181              		.loc 1 873 1
 2182 00e0 1846     		mov	r0, r3
 2183 00e2 1837     		adds	r7, r7, #24
 2184              		.cfi_def_cfa_offset 8
 2185 00e4 BD46     		mov	sp, r7
 2186              		.cfi_def_cfa_register 13
 2187              		@ sp needed
 2188 00e6 80BD     		pop	{r7, pc}
 2189              		.cfi_endproc
 2190              	.LFE837:
 2192              		.section	.text.HAL_DMAEx_List_Start_IT,"ax",%progbits
ARM GAS  /tmp/ccuUFTu8.s 			page 55


 2193              		.align	1
 2194              		.global	HAL_DMAEx_List_Start_IT
 2195              		.syntax unified
 2196              		.thumb
 2197              		.thumb_func
 2199              	HAL_DMAEx_List_Start_IT:
 2200              	.LFB838:
 874:STM32Cube_FW_N6/Drivers/STM32N6xx_HAL_Driver/Src/stm32n6xx_hal_dma_ex.c **** 
 875:STM32Cube_FW_N6/Drivers/STM32N6xx_HAL_Driver/Src/stm32n6xx_hal_dma_ex.c **** /**
 876:STM32Cube_FW_N6/Drivers/STM32N6xx_HAL_Driver/Src/stm32n6xx_hal_dma_ex.c ****   * @brief  Starts the DMA channel transfer in linked-list mode with interrupts enabled (Non-blocki
 877:STM32Cube_FW_N6/Drivers/STM32N6xx_HAL_Driver/Src/stm32n6xx_hal_dma_ex.c ****   * @param  hdma : Pointer to a DMA_HandleTypeDef structure that contains the configuration informa
 878:STM32Cube_FW_N6/Drivers/STM32N6xx_HAL_Driver/Src/stm32n6xx_hal_dma_ex.c ****   *                specified DMA Channel.
 879:STM32Cube_FW_N6/Drivers/STM32N6xx_HAL_Driver/Src/stm32n6xx_hal_dma_ex.c ****   * @retval HAL status.
 880:STM32Cube_FW_N6/Drivers/STM32N6xx_HAL_Driver/Src/stm32n6xx_hal_dma_ex.c ****   */
 881:STM32Cube_FW_N6/Drivers/STM32N6xx_HAL_Driver/Src/stm32n6xx_hal_dma_ex.c **** HAL_StatusTypeDef HAL_DMAEx_List_Start_IT(DMA_HandleTypeDef *const hdma)
 882:STM32Cube_FW_N6/Drivers/STM32N6xx_HAL_Driver/Src/stm32n6xx_hal_dma_ex.c **** {
 2201              		.loc 1 882 1
 2202              		.cfi_startproc
 2203              		@ args = 0, pretend = 0, frame = 24
 2204              		@ frame_needed = 1, uses_anonymous_args = 0
 2205 0000 80B5     		push	{r7, lr}
 2206              		.cfi_def_cfa_offset 8
 2207              		.cfi_offset 7, -8
 2208              		.cfi_offset 14, -4
 2209 0002 86B0     		sub	sp, sp, #24
 2210              		.cfi_def_cfa_offset 32
 2211 0004 00AF     		add	r7, sp, #0
 2212              		.cfi_def_cfa_register 7
 2213 0006 7860     		str	r0, [r7, #4]
 883:STM32Cube_FW_N6/Drivers/STM32N6xx_HAL_Driver/Src/stm32n6xx_hal_dma_ex.c ****   HAL_DMA_StateTypeDef dma_state;
 884:STM32Cube_FW_N6/Drivers/STM32N6xx_HAL_Driver/Src/stm32n6xx_hal_dma_ex.c ****   uint32_t ccr_value;
 885:STM32Cube_FW_N6/Drivers/STM32N6xx_HAL_Driver/Src/stm32n6xx_hal_dma_ex.c ****   uint32_t cllr_mask;
 886:STM32Cube_FW_N6/Drivers/STM32N6xx_HAL_Driver/Src/stm32n6xx_hal_dma_ex.c **** 
 887:STM32Cube_FW_N6/Drivers/STM32N6xx_HAL_Driver/Src/stm32n6xx_hal_dma_ex.c ****   /* Check the DMA peripheral handle and the linked-list queue parameters */
 888:STM32Cube_FW_N6/Drivers/STM32N6xx_HAL_Driver/Src/stm32n6xx_hal_dma_ex.c ****   if ((hdma == NULL) || (hdma->LinkedListQueue == NULL))
 2214              		.loc 1 888 6
 2215 0008 7B68     		ldr	r3, [r7, #4]
 2216 000a 002B     		cmp	r3, #0
 2217 000c 03D0     		beq	.L54
 2218              		.loc 1 888 30 discriminator 1
 2219 000e 7B68     		ldr	r3, [r7, #4]
 2220 0010 5B6F     		ldr	r3, [r3, #116]
 2221              		.loc 1 888 22 discriminator 1
 2222 0012 002B     		cmp	r3, #0
 2223 0014 01D1     		bne	.L55
 2224              	.L54:
 889:STM32Cube_FW_N6/Drivers/STM32N6xx_HAL_Driver/Src/stm32n6xx_hal_dma_ex.c ****   {
 890:STM32Cube_FW_N6/Drivers/STM32N6xx_HAL_Driver/Src/stm32n6xx_hal_dma_ex.c ****     return HAL_ERROR;
 2225              		.loc 1 890 12
 2226 0016 0123     		movs	r3, #1
 2227 0018 82E0     		b	.L63
 2228              	.L55:
 891:STM32Cube_FW_N6/Drivers/STM32N6xx_HAL_Driver/Src/stm32n6xx_hal_dma_ex.c ****   }
 892:STM32Cube_FW_N6/Drivers/STM32N6xx_HAL_Driver/Src/stm32n6xx_hal_dma_ex.c **** 
 893:STM32Cube_FW_N6/Drivers/STM32N6xx_HAL_Driver/Src/stm32n6xx_hal_dma_ex.c ****   /* Check DMA channel state */
 894:STM32Cube_FW_N6/Drivers/STM32N6xx_HAL_Driver/Src/stm32n6xx_hal_dma_ex.c ****   dma_state = hdma->State;
 2229              		.loc 1 894 13
ARM GAS  /tmp/ccuUFTu8.s 			page 56


 2230 001a 7B68     		ldr	r3, [r7, #4]
 2231 001c 93F85430 		ldrb	r3, [r3, #84]
 2232 0020 FB75     		strb	r3, [r7, #23]
 895:STM32Cube_FW_N6/Drivers/STM32N6xx_HAL_Driver/Src/stm32n6xx_hal_dma_ex.c ****   ccr_value = hdma->Instance->CCR & DMA_CCR_LSM;
 2233              		.loc 1 895 19
 2234 0022 7B68     		ldr	r3, [r7, #4]
 2235 0024 1B68     		ldr	r3, [r3]
 2236              		.loc 1 895 29
 2237 0026 5B69     		ldr	r3, [r3, #20]
 2238              		.loc 1 895 13
 2239 0028 03F48033 		and	r3, r3, #65536
 2240 002c 3B61     		str	r3, [r7, #16]
 896:STM32Cube_FW_N6/Drivers/STM32N6xx_HAL_Driver/Src/stm32n6xx_hal_dma_ex.c ****   if ((dma_state == HAL_DMA_STATE_READY) || ((dma_state == HAL_DMA_STATE_BUSY) && (ccr_value != 0U)
 2241              		.loc 1 896 6
 2242 002e FB7D     		ldrb	r3, [r7, #23]	@ zero_extendqisi2
 2243 0030 012B     		cmp	r3, #1
 2244 0032 05D0     		beq	.L57
 2245              		.loc 1 896 42 discriminator 1
 2246 0034 FB7D     		ldrb	r3, [r7, #23]	@ zero_extendqisi2
 2247 0036 022B     		cmp	r3, #2
 2248 0038 6AD1     		bne	.L58
 2249              		.loc 1 896 80 discriminator 2
 2250 003a 3B69     		ldr	r3, [r7, #16]
 2251 003c 002B     		cmp	r3, #0
 2252 003e 67D0     		beq	.L58
 2253              	.L57:
 897:STM32Cube_FW_N6/Drivers/STM32N6xx_HAL_Driver/Src/stm32n6xx_hal_dma_ex.c ****   {
 898:STM32Cube_FW_N6/Drivers/STM32N6xx_HAL_Driver/Src/stm32n6xx_hal_dma_ex.c ****     /* Check DMA channel state is ready */
 899:STM32Cube_FW_N6/Drivers/STM32N6xx_HAL_Driver/Src/stm32n6xx_hal_dma_ex.c ****     if (hdma->State == HAL_DMA_STATE_READY)
 2254              		.loc 1 899 13
 2255 0040 7B68     		ldr	r3, [r7, #4]
 2256 0042 93F85430 		ldrb	r3, [r3, #84]
 2257 0046 DBB2     		uxtb	r3, r3
 2258              		.loc 1 899 8
 2259 0048 012B     		cmp	r3, #1
 2260 004a 57D1     		bne	.L59
 900:STM32Cube_FW_N6/Drivers/STM32N6xx_HAL_Driver/Src/stm32n6xx_hal_dma_ex.c ****     {
 901:STM32Cube_FW_N6/Drivers/STM32N6xx_HAL_Driver/Src/stm32n6xx_hal_dma_ex.c ****       /* Process locked */
 902:STM32Cube_FW_N6/Drivers/STM32N6xx_HAL_Driver/Src/stm32n6xx_hal_dma_ex.c ****       __HAL_LOCK(hdma);
 2261              		.loc 1 902 7
 2262 004c 7B68     		ldr	r3, [r7, #4]
 2263 004e 93F84C30 		ldrb	r3, [r3, #76]	@ zero_extendqisi2
 2264 0052 012B     		cmp	r3, #1
 2265 0054 01D1     		bne	.L60
 2266              		.loc 1 902 7 is_stmt 0 discriminator 1
 2267 0056 0223     		movs	r3, #2
 2268              		.loc 1 902 7
 2269 0058 62E0     		b	.L63
 2270              	.L60:
 2271              		.loc 1 902 7 discriminator 2
 2272 005a 7B68     		ldr	r3, [r7, #4]
 2273 005c 0122     		movs	r2, #1
 2274 005e 83F84C20 		strb	r2, [r3, #76]
 903:STM32Cube_FW_N6/Drivers/STM32N6xx_HAL_Driver/Src/stm32n6xx_hal_dma_ex.c **** 
 904:STM32Cube_FW_N6/Drivers/STM32N6xx_HAL_Driver/Src/stm32n6xx_hal_dma_ex.c ****       /* Update the DMA channel and the queue states */
 905:STM32Cube_FW_N6/Drivers/STM32N6xx_HAL_Driver/Src/stm32n6xx_hal_dma_ex.c ****       hdma->State                  = HAL_DMA_STATE_BUSY;
 2275              		.loc 1 905 36 is_stmt 1
ARM GAS  /tmp/ccuUFTu8.s 			page 57


 2276 0062 7B68     		ldr	r3, [r7, #4]
 2277 0064 0222     		movs	r2, #2
 2278 0066 83F85420 		strb	r2, [r3, #84]
 906:STM32Cube_FW_N6/Drivers/STM32N6xx_HAL_Driver/Src/stm32n6xx_hal_dma_ex.c ****       hdma->LinkedListQueue->State = HAL_DMA_QUEUE_STATE_BUSY;
 2279              		.loc 1 906 11
 2280 006a 7B68     		ldr	r3, [r7, #4]
 2281 006c 5B6F     		ldr	r3, [r3, #116]
 2282              		.loc 1 906 36
 2283 006e 0222     		movs	r2, #2
 2284 0070 1A73     		strb	r2, [r3, #12]
 907:STM32Cube_FW_N6/Drivers/STM32N6xx_HAL_Driver/Src/stm32n6xx_hal_dma_ex.c **** 
 908:STM32Cube_FW_N6/Drivers/STM32N6xx_HAL_Driver/Src/stm32n6xx_hal_dma_ex.c ****       /* Update the DMA channel and the queue error codes */
 909:STM32Cube_FW_N6/Drivers/STM32N6xx_HAL_Driver/Src/stm32n6xx_hal_dma_ex.c ****       hdma->ErrorCode                  = HAL_DMA_ERROR_NONE;
 2285              		.loc 1 909 40
 2286 0072 7B68     		ldr	r3, [r7, #4]
 2287 0074 0022     		movs	r2, #0
 2288 0076 9A65     		str	r2, [r3, #88]
 910:STM32Cube_FW_N6/Drivers/STM32N6xx_HAL_Driver/Src/stm32n6xx_hal_dma_ex.c ****       hdma->LinkedListQueue->ErrorCode = HAL_DMA_QUEUE_ERROR_NONE;
 2289              		.loc 1 910 11
 2290 0078 7B68     		ldr	r3, [r7, #4]
 2291 007a 5B6F     		ldr	r3, [r3, #116]
 2292              		.loc 1 910 40
 2293 007c 0022     		movs	r2, #0
 2294 007e 1A61     		str	r2, [r3, #16]
 911:STM32Cube_FW_N6/Drivers/STM32N6xx_HAL_Driver/Src/stm32n6xx_hal_dma_ex.c **** 
 912:STM32Cube_FW_N6/Drivers/STM32N6xx_HAL_Driver/Src/stm32n6xx_hal_dma_ex.c ****       /* Enable common interrupts: Transfer Complete and Transfer Errors ITs */
 913:STM32Cube_FW_N6/Drivers/STM32N6xx_HAL_Driver/Src/stm32n6xx_hal_dma_ex.c ****       __HAL_DMA_ENABLE_IT(hdma, (DMA_IT_TC | DMA_IT_DTE | DMA_IT_ULE | DMA_IT_USE | DMA_IT_TO));
 2295              		.loc 1 913 7
 2296 0080 7B68     		ldr	r3, [r7, #4]
 2297 0082 1B68     		ldr	r3, [r3]
 2298 0084 5A69     		ldr	r2, [r3, #20]
 2299 0086 7B68     		ldr	r3, [r7, #4]
 2300 0088 1B68     		ldr	r3, [r3]
 2301 008a 42F4BA42 		orr	r2, r2, #23808
 2302 008e 5A61     		str	r2, [r3, #20]
 914:STM32Cube_FW_N6/Drivers/STM32N6xx_HAL_Driver/Src/stm32n6xx_hal_dma_ex.c **** 
 915:STM32Cube_FW_N6/Drivers/STM32N6xx_HAL_Driver/Src/stm32n6xx_hal_dma_ex.c ****       /* Check half transfer complete callback */
 916:STM32Cube_FW_N6/Drivers/STM32N6xx_HAL_Driver/Src/stm32n6xx_hal_dma_ex.c ****       if (hdma->XferHalfCpltCallback != NULL)
 2303              		.loc 1 916 15
 2304 0090 7B68     		ldr	r3, [r7, #4]
 2305 0092 5B6E     		ldr	r3, [r3, #100]
 2306              		.loc 1 916 10
 2307 0094 002B     		cmp	r3, #0
 2308 0096 07D0     		beq	.L61
 917:STM32Cube_FW_N6/Drivers/STM32N6xx_HAL_Driver/Src/stm32n6xx_hal_dma_ex.c ****       {
 918:STM32Cube_FW_N6/Drivers/STM32N6xx_HAL_Driver/Src/stm32n6xx_hal_dma_ex.c ****         /* If half transfer complete callback is set, enable the corresponding IT */
 919:STM32Cube_FW_N6/Drivers/STM32N6xx_HAL_Driver/Src/stm32n6xx_hal_dma_ex.c ****         __HAL_DMA_ENABLE_IT(hdma, DMA_IT_HT);
 2309              		.loc 1 919 9
 2310 0098 7B68     		ldr	r3, [r7, #4]
 2311 009a 1B68     		ldr	r3, [r3]
 2312 009c 5A69     		ldr	r2, [r3, #20]
 2313 009e 7B68     		ldr	r3, [r7, #4]
 2314 00a0 1B68     		ldr	r3, [r3]
 2315 00a2 42F40072 		orr	r2, r2, #512
 2316 00a6 5A61     		str	r2, [r3, #20]
 2317              	.L61:
 920:STM32Cube_FW_N6/Drivers/STM32N6xx_HAL_Driver/Src/stm32n6xx_hal_dma_ex.c ****       }
ARM GAS  /tmp/ccuUFTu8.s 			page 58


 921:STM32Cube_FW_N6/Drivers/STM32N6xx_HAL_Driver/Src/stm32n6xx_hal_dma_ex.c **** 
 922:STM32Cube_FW_N6/Drivers/STM32N6xx_HAL_Driver/Src/stm32n6xx_hal_dma_ex.c ****       /* Check suspend callback */
 923:STM32Cube_FW_N6/Drivers/STM32N6xx_HAL_Driver/Src/stm32n6xx_hal_dma_ex.c ****       if (hdma->XferSuspendCallback != NULL)
 2318              		.loc 1 923 15
 2319 00a8 7B68     		ldr	r3, [r7, #4]
 2320 00aa 1B6F     		ldr	r3, [r3, #112]
 2321              		.loc 1 923 10
 2322 00ac 002B     		cmp	r3, #0
 2323 00ae 07D0     		beq	.L62
 924:STM32Cube_FW_N6/Drivers/STM32N6xx_HAL_Driver/Src/stm32n6xx_hal_dma_ex.c ****       {
 925:STM32Cube_FW_N6/Drivers/STM32N6xx_HAL_Driver/Src/stm32n6xx_hal_dma_ex.c ****         /* If transfer suspend callback is set, enable the corresponding IT */
 926:STM32Cube_FW_N6/Drivers/STM32N6xx_HAL_Driver/Src/stm32n6xx_hal_dma_ex.c ****         __HAL_DMA_ENABLE_IT(hdma, DMA_IT_SUSP);
 2324              		.loc 1 926 9
 2325 00b0 7B68     		ldr	r3, [r7, #4]
 2326 00b2 1B68     		ldr	r3, [r3]
 2327 00b4 5A69     		ldr	r2, [r3, #20]
 2328 00b6 7B68     		ldr	r3, [r7, #4]
 2329 00b8 1B68     		ldr	r3, [r3]
 2330 00ba 42F40052 		orr	r2, r2, #8192
 2331 00be 5A61     		str	r2, [r3, #20]
 2332              	.L62:
 927:STM32Cube_FW_N6/Drivers/STM32N6xx_HAL_Driver/Src/stm32n6xx_hal_dma_ex.c ****       }
 928:STM32Cube_FW_N6/Drivers/STM32N6xx_HAL_Driver/Src/stm32n6xx_hal_dma_ex.c **** 
 929:STM32Cube_FW_N6/Drivers/STM32N6xx_HAL_Driver/Src/stm32n6xx_hal_dma_ex.c ****       /* Get CLLR register mask and offset */
 930:STM32Cube_FW_N6/Drivers/STM32N6xx_HAL_Driver/Src/stm32n6xx_hal_dma_ex.c ****       DMA_List_GetCLLRNodeInfo(hdma->LinkedListQueue->Head, &cllr_mask, NULL);
 2333              		.loc 1 930 36
 2334 00c0 7B68     		ldr	r3, [r7, #4]
 2335 00c2 5B6F     		ldr	r3, [r3, #116]
 2336              		.loc 1 930 53
 2337 00c4 1B68     		ldr	r3, [r3]
 2338              		.loc 1 930 7
 2339 00c6 07F10C01 		add	r1, r7, #12
 2340 00ca 0022     		movs	r2, #0
 2341 00cc 1846     		mov	r0, r3
 2342 00ce FFF7FEFF 		bl	DMA_List_GetCLLRNodeInfo
 931:STM32Cube_FW_N6/Drivers/STM32N6xx_HAL_Driver/Src/stm32n6xx_hal_dma_ex.c **** 
 932:STM32Cube_FW_N6/Drivers/STM32N6xx_HAL_Driver/Src/stm32n6xx_hal_dma_ex.c ****       /* Update DMA registers for linked-list transfer */
 933:STM32Cube_FW_N6/Drivers/STM32N6xx_HAL_Driver/Src/stm32n6xx_hal_dma_ex.c ****       hdma->Instance->CLBAR = ((uint32_t)hdma->LinkedListQueue->Head & DMA_CLBAR_LBA);
 2343              		.loc 1 933 46
 2344 00d2 7B68     		ldr	r3, [r7, #4]
 2345 00d4 5B6F     		ldr	r3, [r3, #116]
 2346              		.loc 1 933 63
 2347 00d6 1B68     		ldr	r3, [r3]
 2348              		.loc 1 933 32
 2349 00d8 1946     		mov	r1, r3
 2350              		.loc 1 933 11
 2351 00da 7B68     		ldr	r3, [r7, #4]
 2352 00dc 1A68     		ldr	r2, [r3]
 2353              		.loc 1 933 70
 2354 00de 0B0C     		lsrs	r3, r1, #16
 2355 00e0 1B04     		lsls	r3, r3, #16
 2356              		.loc 1 933 29
 2357 00e2 1360     		str	r3, [r2]
 934:STM32Cube_FW_N6/Drivers/STM32N6xx_HAL_Driver/Src/stm32n6xx_hal_dma_ex.c ****       hdma->Instance->CLLR  = ((uint32_t)hdma->LinkedListQueue->Head & DMA_CLLR_LA) | cllr_mask;
 2358              		.loc 1 934 46
 2359 00e4 7B68     		ldr	r3, [r7, #4]
 2360 00e6 5B6F     		ldr	r3, [r3, #116]
ARM GAS  /tmp/ccuUFTu8.s 			page 59


 2361              		.loc 1 934 63
 2362 00e8 1B68     		ldr	r3, [r3]
 2363              		.loc 1 934 32
 2364 00ea 1A46     		mov	r2, r3
 2365              		.loc 1 934 70
 2366 00ec 4FF6FC73 		movw	r3, #65532
 2367 00f0 1340     		ands	r3, r3, r2
 2368              		.loc 1 934 85
 2369 00f2 F968     		ldr	r1, [r7, #12]
 2370              		.loc 1 934 11
 2371 00f4 7A68     		ldr	r2, [r7, #4]
 2372 00f6 1268     		ldr	r2, [r2]
 2373              		.loc 1 934 85
 2374 00f8 0B43     		orrs	r3, r3, r1
 2375              		.loc 1 934 29
 2376 00fa D367     		str	r3, [r2, #124]
 2377              	.L59:
 935:STM32Cube_FW_N6/Drivers/STM32N6xx_HAL_Driver/Src/stm32n6xx_hal_dma_ex.c ****     }
 936:STM32Cube_FW_N6/Drivers/STM32N6xx_HAL_Driver/Src/stm32n6xx_hal_dma_ex.c **** 
 937:STM32Cube_FW_N6/Drivers/STM32N6xx_HAL_Driver/Src/stm32n6xx_hal_dma_ex.c ****     /* Enable DMA channel */
 938:STM32Cube_FW_N6/Drivers/STM32N6xx_HAL_Driver/Src/stm32n6xx_hal_dma_ex.c ****     __HAL_DMA_ENABLE(hdma);
 2378              		.loc 1 938 5
 2379 00fc 7B68     		ldr	r3, [r7, #4]
 2380 00fe 1B68     		ldr	r3, [r3]
 2381 0100 5A69     		ldr	r2, [r3, #20]
 2382 0102 7B68     		ldr	r3, [r7, #4]
 2383 0104 1B68     		ldr	r3, [r3]
 2384 0106 42F00102 		orr	r2, r2, #1
 2385 010a 5A61     		str	r2, [r3, #20]
 939:STM32Cube_FW_N6/Drivers/STM32N6xx_HAL_Driver/Src/stm32n6xx_hal_dma_ex.c ****   }
 940:STM32Cube_FW_N6/Drivers/STM32N6xx_HAL_Driver/Src/stm32n6xx_hal_dma_ex.c ****   else
 941:STM32Cube_FW_N6/Drivers/STM32N6xx_HAL_Driver/Src/stm32n6xx_hal_dma_ex.c ****   {
 942:STM32Cube_FW_N6/Drivers/STM32N6xx_HAL_Driver/Src/stm32n6xx_hal_dma_ex.c ****     /* Change the error code */
 943:STM32Cube_FW_N6/Drivers/STM32N6xx_HAL_Driver/Src/stm32n6xx_hal_dma_ex.c ****     hdma->ErrorCode = HAL_DMA_ERROR_BUSY;
 944:STM32Cube_FW_N6/Drivers/STM32N6xx_HAL_Driver/Src/stm32n6xx_hal_dma_ex.c **** 
 945:STM32Cube_FW_N6/Drivers/STM32N6xx_HAL_Driver/Src/stm32n6xx_hal_dma_ex.c ****     /* Process unlocked */
 946:STM32Cube_FW_N6/Drivers/STM32N6xx_HAL_Driver/Src/stm32n6xx_hal_dma_ex.c ****     __HAL_UNLOCK(hdma);
 947:STM32Cube_FW_N6/Drivers/STM32N6xx_HAL_Driver/Src/stm32n6xx_hal_dma_ex.c **** 
 948:STM32Cube_FW_N6/Drivers/STM32N6xx_HAL_Driver/Src/stm32n6xx_hal_dma_ex.c ****     return HAL_ERROR;
 949:STM32Cube_FW_N6/Drivers/STM32N6xx_HAL_Driver/Src/stm32n6xx_hal_dma_ex.c ****   }
 950:STM32Cube_FW_N6/Drivers/STM32N6xx_HAL_Driver/Src/stm32n6xx_hal_dma_ex.c **** 
 951:STM32Cube_FW_N6/Drivers/STM32N6xx_HAL_Driver/Src/stm32n6xx_hal_dma_ex.c ****   return HAL_OK;
 2386              		.loc 1 951 10
 2387 010c 0023     		movs	r3, #0
 2388 010e 07E0     		b	.L63
 2389              	.L58:
 943:STM32Cube_FW_N6/Drivers/STM32N6xx_HAL_Driver/Src/stm32n6xx_hal_dma_ex.c **** 
 2390              		.loc 1 943 21
 2391 0110 7B68     		ldr	r3, [r7, #4]
 2392 0112 4022     		movs	r2, #64
 2393 0114 9A65     		str	r2, [r3, #88]
 946:STM32Cube_FW_N6/Drivers/STM32N6xx_HAL_Driver/Src/stm32n6xx_hal_dma_ex.c **** 
 2394              		.loc 1 946 5
 2395 0116 7B68     		ldr	r3, [r7, #4]
 2396 0118 0022     		movs	r2, #0
 2397 011a 83F84C20 		strb	r2, [r3, #76]
 948:STM32Cube_FW_N6/Drivers/STM32N6xx_HAL_Driver/Src/stm32n6xx_hal_dma_ex.c ****   }
ARM GAS  /tmp/ccuUFTu8.s 			page 60


 2398              		.loc 1 948 12
 2399 011e 0123     		movs	r3, #1
 2400              	.L63:
 952:STM32Cube_FW_N6/Drivers/STM32N6xx_HAL_Driver/Src/stm32n6xx_hal_dma_ex.c **** }
 2401              		.loc 1 952 1
 2402 0120 1846     		mov	r0, r3
 2403 0122 1837     		adds	r7, r7, #24
 2404              		.cfi_def_cfa_offset 8
 2405 0124 BD46     		mov	sp, r7
 2406              		.cfi_def_cfa_register 13
 2407              		@ sp needed
 2408 0126 80BD     		pop	{r7, pc}
 2409              		.cfi_endproc
 2410              	.LFE838:
 2412              		.section	.text.HAL_DMAEx_List_BuildNode,"ax",%progbits
 2413              		.align	1
 2414              		.global	HAL_DMAEx_List_BuildNode
 2415              		.syntax unified
 2416              		.thumb
 2417              		.thumb_func
 2419              	HAL_DMAEx_List_BuildNode:
 2420              	.LFB839:
 953:STM32Cube_FW_N6/Drivers/STM32N6xx_HAL_Driver/Src/stm32n6xx_hal_dma_ex.c **** /**
 954:STM32Cube_FW_N6/Drivers/STM32N6xx_HAL_Driver/Src/stm32n6xx_hal_dma_ex.c ****   * @}
 955:STM32Cube_FW_N6/Drivers/STM32N6xx_HAL_Driver/Src/stm32n6xx_hal_dma_ex.c ****   */
 956:STM32Cube_FW_N6/Drivers/STM32N6xx_HAL_Driver/Src/stm32n6xx_hal_dma_ex.c **** 
 957:STM32Cube_FW_N6/Drivers/STM32N6xx_HAL_Driver/Src/stm32n6xx_hal_dma_ex.c **** /** @addtogroup DMAEx_Exported_Functions_Group3
 958:STM32Cube_FW_N6/Drivers/STM32N6xx_HAL_Driver/Src/stm32n6xx_hal_dma_ex.c ****   *
 959:STM32Cube_FW_N6/Drivers/STM32N6xx_HAL_Driver/Src/stm32n6xx_hal_dma_ex.c **** @verbatim
 960:STM32Cube_FW_N6/Drivers/STM32N6xx_HAL_Driver/Src/stm32n6xx_hal_dma_ex.c ****   =================================================================================================
 961:STM32Cube_FW_N6/Drivers/STM32N6xx_HAL_Driver/Src/stm32n6xx_hal_dma_ex.c ****                          ##### Linked-List Management Functions #####
 962:STM32Cube_FW_N6/Drivers/STM32N6xx_HAL_Driver/Src/stm32n6xx_hal_dma_ex.c ****   =================================================================================================
 963:STM32Cube_FW_N6/Drivers/STM32N6xx_HAL_Driver/Src/stm32n6xx_hal_dma_ex.c ****     [..]
 964:STM32Cube_FW_N6/Drivers/STM32N6xx_HAL_Driver/Src/stm32n6xx_hal_dma_ex.c ****       This section provides functions allowing to :
 965:STM32Cube_FW_N6/Drivers/STM32N6xx_HAL_Driver/Src/stm32n6xx_hal_dma_ex.c ****       (+) Build linked-list node.
 966:STM32Cube_FW_N6/Drivers/STM32N6xx_HAL_Driver/Src/stm32n6xx_hal_dma_ex.c ****       (+) Get linked-list node configuration.
 967:STM32Cube_FW_N6/Drivers/STM32N6xx_HAL_Driver/Src/stm32n6xx_hal_dma_ex.c ****       (+) Insert node to linked-list queue in any queue position.
 968:STM32Cube_FW_N6/Drivers/STM32N6xx_HAL_Driver/Src/stm32n6xx_hal_dma_ex.c ****       (+) Remove any node from linked-list queue.
 969:STM32Cube_FW_N6/Drivers/STM32N6xx_HAL_Driver/Src/stm32n6xx_hal_dma_ex.c ****       (+) Replace any node from linked-list queue.
 970:STM32Cube_FW_N6/Drivers/STM32N6xx_HAL_Driver/Src/stm32n6xx_hal_dma_ex.c ****       (+) Reset linked-list queue.
 971:STM32Cube_FW_N6/Drivers/STM32N6xx_HAL_Driver/Src/stm32n6xx_hal_dma_ex.c ****       (+) Insert linked-list queue in any queue position.
 972:STM32Cube_FW_N6/Drivers/STM32N6xx_HAL_Driver/Src/stm32n6xx_hal_dma_ex.c ****       (+) Set circular mode configuration to linked-list queue.
 973:STM32Cube_FW_N6/Drivers/STM32N6xx_HAL_Driver/Src/stm32n6xx_hal_dma_ex.c ****       (+) Clear circular mode configuration from linked-list queue.
 974:STM32Cube_FW_N6/Drivers/STM32N6xx_HAL_Driver/Src/stm32n6xx_hal_dma_ex.c ****       (+) Convert static linked-list queue to dynamic format.
 975:STM32Cube_FW_N6/Drivers/STM32N6xx_HAL_Driver/Src/stm32n6xx_hal_dma_ex.c ****       (+) Convert dynamic linked-list queue to static format.
 976:STM32Cube_FW_N6/Drivers/STM32N6xx_HAL_Driver/Src/stm32n6xx_hal_dma_ex.c ****       (+) Link linked-list queue to DMA channel.
 977:STM32Cube_FW_N6/Drivers/STM32N6xx_HAL_Driver/Src/stm32n6xx_hal_dma_ex.c ****       (+) Unlink linked-list queue from DMA channel.
 978:STM32Cube_FW_N6/Drivers/STM32N6xx_HAL_Driver/Src/stm32n6xx_hal_dma_ex.c **** 
 979:STM32Cube_FW_N6/Drivers/STM32N6xx_HAL_Driver/Src/stm32n6xx_hal_dma_ex.c ****     [..]
 980:STM32Cube_FW_N6/Drivers/STM32N6xx_HAL_Driver/Src/stm32n6xx_hal_dma_ex.c ****       (+) The HAL_DMAEx_List_BuildNode() function allows to build linked-list node.
 981:STM32Cube_FW_N6/Drivers/STM32N6xx_HAL_Driver/Src/stm32n6xx_hal_dma_ex.c ****           Node type can be :
 982:STM32Cube_FW_N6/Drivers/STM32N6xx_HAL_Driver/Src/stm32n6xx_hal_dma_ex.c ****               (++) 2 dimensions addressing node.
 983:STM32Cube_FW_N6/Drivers/STM32N6xx_HAL_Driver/Src/stm32n6xx_hal_dma_ex.c ****               (++) Linear addressing node.
 984:STM32Cube_FW_N6/Drivers/STM32N6xx_HAL_Driver/Src/stm32n6xx_hal_dma_ex.c **** 
 985:STM32Cube_FW_N6/Drivers/STM32N6xx_HAL_Driver/Src/stm32n6xx_hal_dma_ex.c ****       (+) The HAL_DMAEx_List_GetNodeConfig() function allows to get the linked-list node configurat
 986:STM32Cube_FW_N6/Drivers/STM32N6xx_HAL_Driver/Src/stm32n6xx_hal_dma_ex.c **** 
 987:STM32Cube_FW_N6/Drivers/STM32N6xx_HAL_Driver/Src/stm32n6xx_hal_dma_ex.c ****       (+) The HAL_DMAEx_List_InsertNode() function allows to insert built linked-list node to stati
ARM GAS  /tmp/ccuUFTu8.s 			page 61


 988:STM32Cube_FW_N6/Drivers/STM32N6xx_HAL_Driver/Src/stm32n6xx_hal_dma_ex.c ****           according to selected position.
 989:STM32Cube_FW_N6/Drivers/STM32N6xx_HAL_Driver/Src/stm32n6xx_hal_dma_ex.c **** 
 990:STM32Cube_FW_N6/Drivers/STM32N6xx_HAL_Driver/Src/stm32n6xx_hal_dma_ex.c ****       (+) The HAL_DMAEx_List_InsertNode_Head() and HAL_DMAEx_List_InsertNode_Tail() functions allow
 991:STM32Cube_FW_N6/Drivers/STM32N6xx_HAL_Driver/Src/stm32n6xx_hal_dma_ex.c ****           linked-list node to the head (respectively the tail) of static linked-list queue.
 992:STM32Cube_FW_N6/Drivers/STM32N6xx_HAL_Driver/Src/stm32n6xx_hal_dma_ex.c **** 
 993:STM32Cube_FW_N6/Drivers/STM32N6xx_HAL_Driver/Src/stm32n6xx_hal_dma_ex.c ****       (+) The HAL_DMAEx_List_RemoveNode() function allows to remove selected built linked-list node
 994:STM32Cube_FW_N6/Drivers/STM32N6xx_HAL_Driver/Src/stm32n6xx_hal_dma_ex.c ****           linked-list queue.
 995:STM32Cube_FW_N6/Drivers/STM32N6xx_HAL_Driver/Src/stm32n6xx_hal_dma_ex.c **** 
 996:STM32Cube_FW_N6/Drivers/STM32N6xx_HAL_Driver/Src/stm32n6xx_hal_dma_ex.c ****       (+) The HAL_DMAEx_List_RemoveNode_Head() and HAL_DMAEx_List_RemoveNode_Tail() functions allow
 997:STM32Cube_FW_N6/Drivers/STM32N6xx_HAL_Driver/Src/stm32n6xx_hal_dma_ex.c ****           (respectively the tail) built linked-list node from static linked-list queue.
 998:STM32Cube_FW_N6/Drivers/STM32N6xx_HAL_Driver/Src/stm32n6xx_hal_dma_ex.c **** 
 999:STM32Cube_FW_N6/Drivers/STM32N6xx_HAL_Driver/Src/stm32n6xx_hal_dma_ex.c ****       (+) The HAL_DMAEx_List_ReplaceNode() function allows to replace selected built linked-list no
1000:STM32Cube_FW_N6/Drivers/STM32N6xx_HAL_Driver/Src/stm32n6xx_hal_dma_ex.c ****           linked-list queue.
1001:STM32Cube_FW_N6/Drivers/STM32N6xx_HAL_Driver/Src/stm32n6xx_hal_dma_ex.c **** 
1002:STM32Cube_FW_N6/Drivers/STM32N6xx_HAL_Driver/Src/stm32n6xx_hal_dma_ex.c ****       (+) The HAL_DMAEx_List_ReplaceNode_Head() and HAL_DMAEx_List_ReplaceNode_Tail() functions all
1003:STM32Cube_FW_N6/Drivers/STM32N6xx_HAL_Driver/Src/stm32n6xx_hal_dma_ex.c ****           head (respectively the tail) built linked-list node of static linked-list queue.
1004:STM32Cube_FW_N6/Drivers/STM32N6xx_HAL_Driver/Src/stm32n6xx_hal_dma_ex.c **** 
1005:STM32Cube_FW_N6/Drivers/STM32N6xx_HAL_Driver/Src/stm32n6xx_hal_dma_ex.c ****       (+) The HAL_DMAEx_List_ResetQ() function allows to reset static linked-list queue and unlink 
1006:STM32Cube_FW_N6/Drivers/STM32N6xx_HAL_Driver/Src/stm32n6xx_hal_dma_ex.c ****           nodes.
1007:STM32Cube_FW_N6/Drivers/STM32N6xx_HAL_Driver/Src/stm32n6xx_hal_dma_ex.c **** 
1008:STM32Cube_FW_N6/Drivers/STM32N6xx_HAL_Driver/Src/stm32n6xx_hal_dma_ex.c ****       (+) The HAL_DMAEx_List_InsertQ() function allows to insert static linked-list source queue to
1009:STM32Cube_FW_N6/Drivers/STM32N6xx_HAL_Driver/Src/stm32n6xx_hal_dma_ex.c ****           destination queue according to selected position.
1010:STM32Cube_FW_N6/Drivers/STM32N6xx_HAL_Driver/Src/stm32n6xx_hal_dma_ex.c **** 
1011:STM32Cube_FW_N6/Drivers/STM32N6xx_HAL_Driver/Src/stm32n6xx_hal_dma_ex.c ****       (+) The HAL_DMAEx_List_InsertQ_Head() and HAL_DMAEx_List_InsertQ_Tail() functions allow to in
1012:STM32Cube_FW_N6/Drivers/STM32N6xx_HAL_Driver/Src/stm32n6xx_hal_dma_ex.c ****           linked-list source queue to the head (respectively the tail) of static linked-list destin
1013:STM32Cube_FW_N6/Drivers/STM32N6xx_HAL_Driver/Src/stm32n6xx_hal_dma_ex.c **** 
1014:STM32Cube_FW_N6/Drivers/STM32N6xx_HAL_Driver/Src/stm32n6xx_hal_dma_ex.c ****       (+) The HAL_DMAEx_List_SetCircularModeConfig() function allows to link the last static linked
1015:STM32Cube_FW_N6/Drivers/STM32N6xx_HAL_Driver/Src/stm32n6xx_hal_dma_ex.c ****           the selected first circular node.
1016:STM32Cube_FW_N6/Drivers/STM32N6xx_HAL_Driver/Src/stm32n6xx_hal_dma_ex.c **** 
1017:STM32Cube_FW_N6/Drivers/STM32N6xx_HAL_Driver/Src/stm32n6xx_hal_dma_ex.c ****       (+) The HAL_DMAEx_List_SetCircularMode() function allows to link the last static linked-list 
1018:STM32Cube_FW_N6/Drivers/STM32N6xx_HAL_Driver/Src/stm32n6xx_hal_dma_ex.c ****           first static linked-list queue node.
1019:STM32Cube_FW_N6/Drivers/STM32N6xx_HAL_Driver/Src/stm32n6xx_hal_dma_ex.c **** 
1020:STM32Cube_FW_N6/Drivers/STM32N6xx_HAL_Driver/Src/stm32n6xx_hal_dma_ex.c ****       (+) The HAL_DMAEx_List_ClearCircularMode() function allows to unlink the last static linked-l
1021:STM32Cube_FW_N6/Drivers/STM32N6xx_HAL_Driver/Src/stm32n6xx_hal_dma_ex.c ****           any first circular node position.
1022:STM32Cube_FW_N6/Drivers/STM32N6xx_HAL_Driver/Src/stm32n6xx_hal_dma_ex.c **** 
1023:STM32Cube_FW_N6/Drivers/STM32N6xx_HAL_Driver/Src/stm32n6xx_hal_dma_ex.c ****       (+) The HAL_DMAEx_List_ConvertQToDynamic() function allows to convert the static linked-list 
1024:STM32Cube_FW_N6/Drivers/STM32N6xx_HAL_Driver/Src/stm32n6xx_hal_dma_ex.c ****           format. (Optimized queue execution)
1025:STM32Cube_FW_N6/Drivers/STM32N6xx_HAL_Driver/Src/stm32n6xx_hal_dma_ex.c **** 
1026:STM32Cube_FW_N6/Drivers/STM32N6xx_HAL_Driver/Src/stm32n6xx_hal_dma_ex.c ****       (+) The HAL_DMAEx_List_ConvertQToStatic() function allows to convert the dynamic linked-list 
1027:STM32Cube_FW_N6/Drivers/STM32N6xx_HAL_Driver/Src/stm32n6xx_hal_dma_ex.c ****           format. (Not optimized queue execution)
1028:STM32Cube_FW_N6/Drivers/STM32N6xx_HAL_Driver/Src/stm32n6xx_hal_dma_ex.c **** 
1029:STM32Cube_FW_N6/Drivers/STM32N6xx_HAL_Driver/Src/stm32n6xx_hal_dma_ex.c ****       (+) The HAL_DMAEx_List_LinkQ() function allows to link the (Dynamic / Static) linked-list que
1030:STM32Cube_FW_N6/Drivers/STM32N6xx_HAL_Driver/Src/stm32n6xx_hal_dma_ex.c ****           be executed.
1031:STM32Cube_FW_N6/Drivers/STM32N6xx_HAL_Driver/Src/stm32n6xx_hal_dma_ex.c **** 
1032:STM32Cube_FW_N6/Drivers/STM32N6xx_HAL_Driver/Src/stm32n6xx_hal_dma_ex.c ****       (+) The HAL_DMAEx_List_UnLinkQ() function allows to unlink the (Dynamic / Static) linked-list
1033:STM32Cube_FW_N6/Drivers/STM32N6xx_HAL_Driver/Src/stm32n6xx_hal_dma_ex.c ****           channel when execution is completed.
1034:STM32Cube_FW_N6/Drivers/STM32N6xx_HAL_Driver/Src/stm32n6xx_hal_dma_ex.c **** 
1035:STM32Cube_FW_N6/Drivers/STM32N6xx_HAL_Driver/Src/stm32n6xx_hal_dma_ex.c **** @endverbatim
1036:STM32Cube_FW_N6/Drivers/STM32N6xx_HAL_Driver/Src/stm32n6xx_hal_dma_ex.c ****   * @{
1037:STM32Cube_FW_N6/Drivers/STM32N6xx_HAL_Driver/Src/stm32n6xx_hal_dma_ex.c ****   */
1038:STM32Cube_FW_N6/Drivers/STM32N6xx_HAL_Driver/Src/stm32n6xx_hal_dma_ex.c **** 
1039:STM32Cube_FW_N6/Drivers/STM32N6xx_HAL_Driver/Src/stm32n6xx_hal_dma_ex.c **** /**
1040:STM32Cube_FW_N6/Drivers/STM32N6xx_HAL_Driver/Src/stm32n6xx_hal_dma_ex.c ****   * @brief  Build a DMA channel node according to the specified parameters in the DMA_NodeConfTypeD
1041:STM32Cube_FW_N6/Drivers/STM32N6xx_HAL_Driver/Src/stm32n6xx_hal_dma_ex.c ****   * @param  pNodeConfig : Pointer to a DMA_NodeConfTypeDef structure that contains the configuratio
1042:STM32Cube_FW_N6/Drivers/STM32N6xx_HAL_Driver/Src/stm32n6xx_hal_dma_ex.c ****   *                       specified DMA linked-list Node.
1043:STM32Cube_FW_N6/Drivers/STM32N6xx_HAL_Driver/Src/stm32n6xx_hal_dma_ex.c ****   * @param  pNode       : Pointer to a DMA_NodeTypeDef structure that contains linked-list node reg
1044:STM32Cube_FW_N6/Drivers/STM32N6xx_HAL_Driver/Src/stm32n6xx_hal_dma_ex.c ****   *                       configurations.
ARM GAS  /tmp/ccuUFTu8.s 			page 62


1045:STM32Cube_FW_N6/Drivers/STM32N6xx_HAL_Driver/Src/stm32n6xx_hal_dma_ex.c ****   * @note   The DMA linked-list node parameter address should be 32bit aligned and should not excee
1046:STM32Cube_FW_N6/Drivers/STM32N6xx_HAL_Driver/Src/stm32n6xx_hal_dma_ex.c ****   *         addressable space.
1047:STM32Cube_FW_N6/Drivers/STM32N6xx_HAL_Driver/Src/stm32n6xx_hal_dma_ex.c ****   * @note   Warning if AXI port is selected with HPDMA, the maximum source (and destination) length
1048:STM32Cube_FW_N6/Drivers/STM32N6xx_HAL_Driver/Src/stm32n6xx_hal_dma_ex.c ****   *         than 17. Otherwise, an error will be returned and no initialization performed.
1049:STM32Cube_FW_N6/Drivers/STM32N6xx_HAL_Driver/Src/stm32n6xx_hal_dma_ex.c ****   * @retval HAL status.
1050:STM32Cube_FW_N6/Drivers/STM32N6xx_HAL_Driver/Src/stm32n6xx_hal_dma_ex.c ****   */
1051:STM32Cube_FW_N6/Drivers/STM32N6xx_HAL_Driver/Src/stm32n6xx_hal_dma_ex.c **** HAL_StatusTypeDef HAL_DMAEx_List_BuildNode(DMA_NodeConfTypeDef const *const pNodeConfig,
1052:STM32Cube_FW_N6/Drivers/STM32N6xx_HAL_Driver/Src/stm32n6xx_hal_dma_ex.c ****                                            DMA_NodeTypeDef *const pNode)
1053:STM32Cube_FW_N6/Drivers/STM32N6xx_HAL_Driver/Src/stm32n6xx_hal_dma_ex.c **** {
 2421              		.loc 1 1053 1
 2422              		.cfi_startproc
 2423              		@ args = 0, pretend = 0, frame = 8
 2424              		@ frame_needed = 1, uses_anonymous_args = 0
 2425 0000 80B5     		push	{r7, lr}
 2426              		.cfi_def_cfa_offset 8
 2427              		.cfi_offset 7, -8
 2428              		.cfi_offset 14, -4
 2429 0002 82B0     		sub	sp, sp, #8
 2430              		.cfi_def_cfa_offset 16
 2431 0004 00AF     		add	r7, sp, #0
 2432              		.cfi_def_cfa_register 7
 2433 0006 7860     		str	r0, [r7, #4]
 2434 0008 3960     		str	r1, [r7]
1054:STM32Cube_FW_N6/Drivers/STM32N6xx_HAL_Driver/Src/stm32n6xx_hal_dma_ex.c ****   /* Check the node configuration and physical node parameters */
1055:STM32Cube_FW_N6/Drivers/STM32N6xx_HAL_Driver/Src/stm32n6xx_hal_dma_ex.c ****   if ((pNodeConfig == NULL) || (pNode == NULL))
 2435              		.loc 1 1055 6
 2436 000a 7B68     		ldr	r3, [r7, #4]
 2437 000c 002B     		cmp	r3, #0
 2438 000e 02D0     		beq	.L65
 2439              		.loc 1 1055 29 discriminator 1
 2440 0010 3B68     		ldr	r3, [r7]
 2441 0012 002B     		cmp	r3, #0
 2442 0014 01D1     		bne	.L66
 2443              	.L65:
1056:STM32Cube_FW_N6/Drivers/STM32N6xx_HAL_Driver/Src/stm32n6xx_hal_dma_ex.c ****   {
1057:STM32Cube_FW_N6/Drivers/STM32N6xx_HAL_Driver/Src/stm32n6xx_hal_dma_ex.c ****     return HAL_ERROR;
 2444              		.loc 1 1057 12
 2445 0016 0123     		movs	r3, #1
 2446 0018 DBE1     		b	.L67
 2447              	.L66:
1058:STM32Cube_FW_N6/Drivers/STM32N6xx_HAL_Driver/Src/stm32n6xx_hal_dma_ex.c ****   }
1059:STM32Cube_FW_N6/Drivers/STM32N6xx_HAL_Driver/Src/stm32n6xx_hal_dma_ex.c **** 
1060:STM32Cube_FW_N6/Drivers/STM32N6xx_HAL_Driver/Src/stm32n6xx_hal_dma_ex.c ****   /* Check node type parameter */
1061:STM32Cube_FW_N6/Drivers/STM32N6xx_HAL_Driver/Src/stm32n6xx_hal_dma_ex.c ****   assert_param(IS_DMA_NODE_TYPE(pNodeConfig->NodeType));
 2448              		.loc 1 1061 3
 2449 001a 7B68     		ldr	r3, [r7, #4]
 2450 001c 1B68     		ldr	r3, [r3]
 2451 001e 212B     		cmp	r3, #33
 2452 0020 10D0     		beq	.L68
 2453              		.loc 1 1061 3 is_stmt 0 discriminator 1
 2454 0022 7B68     		ldr	r3, [r7, #4]
 2455 0024 1B68     		ldr	r3, [r3]
 2456 0026 222B     		cmp	r3, #34
 2457 0028 0CD0     		beq	.L68
 2458              		.loc 1 1061 3 discriminator 2
 2459 002a 7B68     		ldr	r3, [r7, #4]
 2460 002c 1B68     		ldr	r3, [r3]
ARM GAS  /tmp/ccuUFTu8.s 			page 63


 2461 002e 412B     		cmp	r3, #65
 2462 0030 08D0     		beq	.L68
 2463              		.loc 1 1061 3 discriminator 3
 2464 0032 7B68     		ldr	r3, [r7, #4]
 2465 0034 1B68     		ldr	r3, [r3]
 2466 0036 422B     		cmp	r3, #66
 2467 0038 04D0     		beq	.L68
 2468              		.loc 1 1061 3 discriminator 4
 2469 003a 40F22541 		movw	r1, #1061
 2470 003e 9248     		ldr	r0, .L104
 2471 0040 FFF7FEFF 		bl	assert_failed
 2472              	.L68:
1062:STM32Cube_FW_N6/Drivers/STM32N6xx_HAL_Driver/Src/stm32n6xx_hal_dma_ex.c **** 
1063:STM32Cube_FW_N6/Drivers/STM32N6xx_HAL_Driver/Src/stm32n6xx_hal_dma_ex.c ****   /* Check DMA channel basic transfer parameters */
1064:STM32Cube_FW_N6/Drivers/STM32N6xx_HAL_Driver/Src/stm32n6xx_hal_dma_ex.c ****   assert_param(IS_DMA_SOURCE_INC(pNodeConfig->Init.SrcInc));
 2473              		.loc 1 1064 3 is_stmt 1
 2474 0044 7B68     		ldr	r3, [r7, #4]
 2475 0046 1B69     		ldr	r3, [r3, #16]
 2476 0048 002B     		cmp	r3, #0
 2477 004a 08D0     		beq	.L69
 2478              		.loc 1 1064 3 is_stmt 0 discriminator 1
 2479 004c 7B68     		ldr	r3, [r7, #4]
 2480 004e 1B69     		ldr	r3, [r3, #16]
 2481 0050 082B     		cmp	r3, #8
 2482 0052 04D0     		beq	.L69
 2483              		.loc 1 1064 3 discriminator 2
 2484 0054 4FF48561 		mov	r1, #1064
 2485 0058 8B48     		ldr	r0, .L104
 2486 005a FFF7FEFF 		bl	assert_failed
 2487              	.L69:
1065:STM32Cube_FW_N6/Drivers/STM32N6xx_HAL_Driver/Src/stm32n6xx_hal_dma_ex.c ****   assert_param(IS_DMA_DESTINATION_INC(pNodeConfig->Init.DestInc));
 2488              		.loc 1 1065 3 is_stmt 1
 2489 005e 7B68     		ldr	r3, [r7, #4]
 2490 0060 5B69     		ldr	r3, [r3, #20]
 2491 0062 002B     		cmp	r3, #0
 2492 0064 09D0     		beq	.L70
 2493              		.loc 1 1065 3 is_stmt 0 discriminator 1
 2494 0066 7B68     		ldr	r3, [r7, #4]
 2495 0068 5B69     		ldr	r3, [r3, #20]
 2496 006a B3F5002F 		cmp	r3, #524288
 2497 006e 04D0     		beq	.L70
 2498              		.loc 1 1065 3 discriminator 2
 2499 0070 40F22941 		movw	r1, #1065
 2500 0074 8448     		ldr	r0, .L104
 2501 0076 FFF7FEFF 		bl	assert_failed
 2502              	.L70:
1066:STM32Cube_FW_N6/Drivers/STM32N6xx_HAL_Driver/Src/stm32n6xx_hal_dma_ex.c ****   assert_param(IS_DMA_SOURCE_DATA_WIDTH(pNodeConfig->Init.SrcDataWidth));
 2503              		.loc 1 1066 3 is_stmt 1
 2504 007a 7B68     		ldr	r3, [r7, #4]
 2505 007c 9B69     		ldr	r3, [r3, #24]
 2506 007e 002B     		cmp	r3, #0
 2507 0080 10D0     		beq	.L71
 2508              		.loc 1 1066 3 is_stmt 0 discriminator 1
 2509 0082 7B68     		ldr	r3, [r7, #4]
 2510 0084 9B69     		ldr	r3, [r3, #24]
 2511 0086 012B     		cmp	r3, #1
 2512 0088 0CD0     		beq	.L71
ARM GAS  /tmp/ccuUFTu8.s 			page 64


 2513              		.loc 1 1066 3 discriminator 2
 2514 008a 7B68     		ldr	r3, [r7, #4]
 2515 008c 9B69     		ldr	r3, [r3, #24]
 2516 008e 022B     		cmp	r3, #2
 2517 0090 08D0     		beq	.L71
 2518              		.loc 1 1066 3 discriminator 3
 2519 0092 7B68     		ldr	r3, [r7, #4]
 2520 0094 9B69     		ldr	r3, [r3, #24]
 2521 0096 032B     		cmp	r3, #3
 2522 0098 04D0     		beq	.L71
 2523              		.loc 1 1066 3 discriminator 4
 2524 009a 40F22A41 		movw	r1, #1066
 2525 009e 7A48     		ldr	r0, .L104
 2526 00a0 FFF7FEFF 		bl	assert_failed
 2527              	.L71:
1067:STM32Cube_FW_N6/Drivers/STM32N6xx_HAL_Driver/Src/stm32n6xx_hal_dma_ex.c ****   assert_param(IS_DMA_DESTINATION_DATA_WIDTH(pNodeConfig->Init.DestDataWidth));
 2528              		.loc 1 1067 3 is_stmt 1
 2529 00a4 7B68     		ldr	r3, [r7, #4]
 2530 00a6 DB69     		ldr	r3, [r3, #28]
 2531 00a8 002B     		cmp	r3, #0
 2532 00aa 13D0     		beq	.L72
 2533              		.loc 1 1067 3 is_stmt 0 discriminator 1
 2534 00ac 7B68     		ldr	r3, [r7, #4]
 2535 00ae DB69     		ldr	r3, [r3, #28]
 2536 00b0 B3F5803F 		cmp	r3, #65536
 2537 00b4 0ED0     		beq	.L72
 2538              		.loc 1 1067 3 discriminator 2
 2539 00b6 7B68     		ldr	r3, [r7, #4]
 2540 00b8 DB69     		ldr	r3, [r3, #28]
 2541 00ba B3F5003F 		cmp	r3, #131072
 2542 00be 09D0     		beq	.L72
 2543              		.loc 1 1067 3 discriminator 3
 2544 00c0 7B68     		ldr	r3, [r7, #4]
 2545 00c2 DB69     		ldr	r3, [r3, #28]
 2546 00c4 B3F5403F 		cmp	r3, #196608
 2547 00c8 04D0     		beq	.L72
 2548              		.loc 1 1067 3 discriminator 4
 2549 00ca 40F22B41 		movw	r1, #1067
 2550 00ce 6E48     		ldr	r0, .L104
 2551 00d0 FFF7FEFF 		bl	assert_failed
 2552              	.L72:
1068:STM32Cube_FW_N6/Drivers/STM32N6xx_HAL_Driver/Src/stm32n6xx_hal_dma_ex.c ****   assert_param(IS_DMA_DATA_ALIGNMENT(pNodeConfig->DataHandlingConfig.DataAlignment));
 2553              		.loc 1 1068 3 is_stmt 1
 2554 00d4 7B68     		ldr	r3, [r7, #4]
 2555 00d6 DB6B     		ldr	r3, [r3, #60]
 2556 00d8 002B     		cmp	r3, #0
 2557 00da 0ED0     		beq	.L73
 2558              		.loc 1 1068 3 is_stmt 0 discriminator 1
 2559 00dc 7B68     		ldr	r3, [r7, #4]
 2560 00de DB6B     		ldr	r3, [r3, #60]
 2561 00e0 B3F5006F 		cmp	r3, #2048
 2562 00e4 09D0     		beq	.L73
 2563              		.loc 1 1068 3 discriminator 2
 2564 00e6 7B68     		ldr	r3, [r7, #4]
 2565 00e8 DB6B     		ldr	r3, [r3, #60]
 2566 00ea B3F5805F 		cmp	r3, #4096
 2567 00ee 04D0     		beq	.L73
ARM GAS  /tmp/ccuUFTu8.s 			page 65


 2568              		.loc 1 1068 3 discriminator 3
 2569 00f0 40F22C41 		movw	r1, #1068
 2570 00f4 6448     		ldr	r0, .L104
 2571 00f6 FFF7FEFF 		bl	assert_failed
 2572              	.L73:
1069:STM32Cube_FW_N6/Drivers/STM32N6xx_HAL_Driver/Src/stm32n6xx_hal_dma_ex.c ****   assert_param(IS_DMA_REQUEST(pNodeConfig->Init.Request));
 2573              		.loc 1 1069 3 is_stmt 1
 2574 00fa 7B68     		ldr	r3, [r7, #4]
 2575 00fc 5B68     		ldr	r3, [r3, #4]
 2576 00fe B3F5007F 		cmp	r3, #512
 2577 0102 08D0     		beq	.L74
 2578              		.loc 1 1069 3 is_stmt 0 discriminator 1
 2579 0104 7B68     		ldr	r3, [r7, #4]
 2580 0106 5B68     		ldr	r3, [r3, #4]
 2581 0108 902B     		cmp	r3, #144
 2582 010a 04D9     		bls	.L74
 2583              		.loc 1 1069 3 discriminator 2
 2584 010c 40F22D41 		movw	r1, #1069
 2585 0110 5D48     		ldr	r0, .L104
 2586 0112 FFF7FEFF 		bl	assert_failed
 2587              	.L74:
1070:STM32Cube_FW_N6/Drivers/STM32N6xx_HAL_Driver/Src/stm32n6xx_hal_dma_ex.c ****   assert_param(IS_DMA_DIRECTION(pNodeConfig->Init.Direction));
 2588              		.loc 1 1070 3 is_stmt 1
 2589 0116 7B68     		ldr	r3, [r7, #4]
 2590 0118 DB68     		ldr	r3, [r3, #12]
 2591 011a 002B     		cmp	r3, #0
 2592 011c 0ED0     		beq	.L75
 2593              		.loc 1 1070 3 is_stmt 0 discriminator 1
 2594 011e 7B68     		ldr	r3, [r7, #4]
 2595 0120 DB68     		ldr	r3, [r3, #12]
 2596 0122 B3F5806F 		cmp	r3, #1024
 2597 0126 09D0     		beq	.L75
 2598              		.loc 1 1070 3 discriminator 2
 2599 0128 7B68     		ldr	r3, [r7, #4]
 2600 012a DB68     		ldr	r3, [r3, #12]
 2601 012c B3F5007F 		cmp	r3, #512
 2602 0130 04D0     		beq	.L75
 2603              		.loc 1 1070 3 discriminator 3
 2604 0132 40F22E41 		movw	r1, #1070
 2605 0136 5448     		ldr	r0, .L104
 2606 0138 FFF7FEFF 		bl	assert_failed
 2607              	.L75:
1071:STM32Cube_FW_N6/Drivers/STM32N6xx_HAL_Driver/Src/stm32n6xx_hal_dma_ex.c ****   assert_param(IS_DMA_TCEM_EVENT_MODE(pNodeConfig->Init.TransferEventMode));
 2608              		.loc 1 1071 3 is_stmt 1
 2609 013c 7B68     		ldr	r3, [r7, #4]
 2610 013e 1B6B     		ldr	r3, [r3, #48]
 2611 0140 002B     		cmp	r3, #0
 2612 0142 13D0     		beq	.L76
 2613              		.loc 1 1071 3 is_stmt 0 discriminator 1
 2614 0144 7B68     		ldr	r3, [r7, #4]
 2615 0146 1B6B     		ldr	r3, [r3, #48]
 2616 0148 B3F1804F 		cmp	r3, #1073741824
 2617 014c 0ED0     		beq	.L76
 2618              		.loc 1 1071 3 discriminator 2
 2619 014e 7B68     		ldr	r3, [r7, #4]
 2620 0150 1B6B     		ldr	r3, [r3, #48]
 2621 0152 B3F1004F 		cmp	r3, #-2147483648
ARM GAS  /tmp/ccuUFTu8.s 			page 66


 2622 0156 09D0     		beq	.L76
 2623              		.loc 1 1071 3 discriminator 3
 2624 0158 7B68     		ldr	r3, [r7, #4]
 2625 015a 1B6B     		ldr	r3, [r3, #48]
 2626 015c B3F1404F 		cmp	r3, #-1073741824
 2627 0160 04D0     		beq	.L76
 2628              		.loc 1 1071 3 discriminator 4
 2629 0162 40F22F41 		movw	r1, #1071
 2630 0166 4848     		ldr	r0, .L104
 2631 0168 FFF7FEFF 		bl	assert_failed
 2632              	.L76:
1072:STM32Cube_FW_N6/Drivers/STM32N6xx_HAL_Driver/Src/stm32n6xx_hal_dma_ex.c ****   assert_param(IS_DMA_BLOCK_HW_REQUEST(pNodeConfig->Init.BlkHWRequest));
 2633              		.loc 1 1072 3 is_stmt 1
 2634 016c 7B68     		ldr	r3, [r7, #4]
 2635 016e 9B68     		ldr	r3, [r3, #8]
 2636 0170 002B     		cmp	r3, #0
 2637 0172 09D0     		beq	.L77
 2638              		.loc 1 1072 3 is_stmt 0 discriminator 1
 2639 0174 7B68     		ldr	r3, [r7, #4]
 2640 0176 9B68     		ldr	r3, [r3, #8]
 2641 0178 B3F5006F 		cmp	r3, #2048
 2642 017c 04D0     		beq	.L77
 2643              		.loc 1 1072 3 discriminator 2
 2644 017e 4FF48661 		mov	r1, #1072
 2645 0182 4148     		ldr	r0, .L104
 2646 0184 FFF7FEFF 		bl	assert_failed
 2647              	.L77:
1073:STM32Cube_FW_N6/Drivers/STM32N6xx_HAL_Driver/Src/stm32n6xx_hal_dma_ex.c ****   assert_param(IS_DMA_MODE(pNodeConfig->Init.Mode));
 2648              		.loc 1 1073 3 is_stmt 1
 2649 0188 7B68     		ldr	r3, [r7, #4]
 2650 018a 5B6B     		ldr	r3, [r3, #52]
 2651 018c 002B     		cmp	r3, #0
 2652 018e 09D0     		beq	.L78
 2653              		.loc 1 1073 3 is_stmt 0 discriminator 1
 2654 0190 7B68     		ldr	r3, [r7, #4]
 2655 0192 5B6B     		ldr	r3, [r3, #52]
 2656 0194 B3F5805F 		cmp	r3, #4096
 2657 0198 04D0     		beq	.L78
 2658              		.loc 1 1073 3 discriminator 2
 2659 019a 40F23141 		movw	r1, #1073
 2660 019e 3A48     		ldr	r0, .L104
 2661 01a0 FFF7FEFF 		bl	assert_failed
 2662              	.L78:
1074:STM32Cube_FW_N6/Drivers/STM32N6xx_HAL_Driver/Src/stm32n6xx_hal_dma_ex.c **** 
1075:STM32Cube_FW_N6/Drivers/STM32N6xx_HAL_Driver/Src/stm32n6xx_hal_dma_ex.c ****   /* Check DMA channel parameters */
1076:STM32Cube_FW_N6/Drivers/STM32N6xx_HAL_Driver/Src/stm32n6xx_hal_dma_ex.c ****   if ((pNodeConfig->NodeType & (DMA_CHANNEL_TYPE_GPDMA | DMA_CHANNEL_TYPE_HPDMA)) != 0U)
 2663              		.loc 1 1076 19 is_stmt 1
 2664 01a4 7B68     		ldr	r3, [r7, #4]
 2665 01a6 1B68     		ldr	r3, [r3]
 2666              		.loc 1 1076 30
 2667 01a8 03F06003 		and	r3, r3, #96
 2668              		.loc 1 1076 6
 2669 01ac 002B     		cmp	r3, #0
 2670 01ae 31D0     		beq	.L79
1077:STM32Cube_FW_N6/Drivers/STM32N6xx_HAL_Driver/Src/stm32n6xx_hal_dma_ex.c ****   {
1078:STM32Cube_FW_N6/Drivers/STM32N6xx_HAL_Driver/Src/stm32n6xx_hal_dma_ex.c ****     assert_param(IS_DMA_BURST_LENGTH(pNodeConfig->Init.SrcBurstLength));
 2671              		.loc 1 1078 5
ARM GAS  /tmp/ccuUFTu8.s 			page 67


 2672 01b0 7B68     		ldr	r3, [r7, #4]
 2673 01b2 5B6A     		ldr	r3, [r3, #36]
 2674 01b4 002B     		cmp	r3, #0
 2675 01b6 03D0     		beq	.L80
 2676              		.loc 1 1078 5 is_stmt 0 discriminator 2
 2677 01b8 7B68     		ldr	r3, [r7, #4]
 2678 01ba 5B6A     		ldr	r3, [r3, #36]
 2679 01bc 402B     		cmp	r3, #64
 2680 01be 04D9     		bls	.L81
 2681              	.L80:
 2682              		.loc 1 1078 5 discriminator 3
 2683 01c0 40F23641 		movw	r1, #1078
 2684 01c4 3048     		ldr	r0, .L104
 2685 01c6 FFF7FEFF 		bl	assert_failed
 2686              	.L81:
1079:STM32Cube_FW_N6/Drivers/STM32N6xx_HAL_Driver/Src/stm32n6xx_hal_dma_ex.c ****     assert_param(IS_DMA_BURST_LENGTH(pNodeConfig->Init.DestBurstLength));
 2687              		.loc 1 1079 5 is_stmt 1
 2688 01ca 7B68     		ldr	r3, [r7, #4]
 2689 01cc 9B6A     		ldr	r3, [r3, #40]
 2690 01ce 002B     		cmp	r3, #0
 2691 01d0 03D0     		beq	.L82
 2692              		.loc 1 1079 5 is_stmt 0 discriminator 2
 2693 01d2 7B68     		ldr	r3, [r7, #4]
 2694 01d4 9B6A     		ldr	r3, [r3, #40]
 2695 01d6 402B     		cmp	r3, #64
 2696 01d8 04D9     		bls	.L83
 2697              	.L82:
 2698              		.loc 1 1079 5 discriminator 3
 2699 01da 40F23741 		movw	r1, #1079
 2700 01de 2A48     		ldr	r0, .L104
 2701 01e0 FFF7FEFF 		bl	assert_failed
 2702              	.L83:
1080:STM32Cube_FW_N6/Drivers/STM32N6xx_HAL_Driver/Src/stm32n6xx_hal_dma_ex.c ****     assert_param(IS_DMA_DATA_EXCHANGE(pNodeConfig->DataHandlingConfig.DataExchange));
 2703              		.loc 1 1080 5 is_stmt 1
 2704 01e4 7B68     		ldr	r3, [r7, #4]
 2705 01e6 9B6B     		ldr	r3, [r3, #56]
 2706 01e8 23F0E053 		bic	r3, r3, #469762048
 2707 01ec 23F40053 		bic	r3, r3, #8192
 2708 01f0 002B     		cmp	r3, #0
 2709 01f2 04D0     		beq	.L84
 2710              		.loc 1 1080 5 is_stmt 0 discriminator 1
 2711 01f4 4FF48761 		mov	r1, #1080
 2712 01f8 2348     		ldr	r0, .L104
 2713 01fa FFF7FEFF 		bl	assert_failed
 2714              	.L84:
1081:STM32Cube_FW_N6/Drivers/STM32N6xx_HAL_Driver/Src/stm32n6xx_hal_dma_ex.c ****     assert_param(IS_DMA_TRANSFER_ALLOCATED_PORT(pNodeConfig->Init.TransferAllocatedPort));
 2715              		.loc 1 1081 5 is_stmt 1
 2716 01fe 7B68     		ldr	r3, [r7, #4]
 2717 0200 DB6A     		ldr	r3, [r3, #44]
 2718 0202 23F04023 		bic	r3, r3, #1073758208
 2719 0206 002B     		cmp	r3, #0
 2720 0208 04D0     		beq	.L79
 2721              		.loc 1 1081 5 is_stmt 0 discriminator 1
 2722 020a 40F23941 		movw	r1, #1081
 2723 020e 1E48     		ldr	r0, .L104
 2724 0210 FFF7FEFF 		bl	assert_failed
 2725              	.L79:
ARM GAS  /tmp/ccuUFTu8.s 			page 68


1082:STM32Cube_FW_N6/Drivers/STM32N6xx_HAL_Driver/Src/stm32n6xx_hal_dma_ex.c ****   }
1083:STM32Cube_FW_N6/Drivers/STM32N6xx_HAL_Driver/Src/stm32n6xx_hal_dma_ex.c **** 
1084:STM32Cube_FW_N6/Drivers/STM32N6xx_HAL_Driver/Src/stm32n6xx_hal_dma_ex.c ****   /* Check DMA channel trigger parameters */
1085:STM32Cube_FW_N6/Drivers/STM32N6xx_HAL_Driver/Src/stm32n6xx_hal_dma_ex.c ****   assert_param(IS_DMA_TRIGGER_POLARITY(pNodeConfig->TriggerConfig.TriggerPolarity));
 2726              		.loc 1 1085 3 is_stmt 1
 2727 0214 7B68     		ldr	r3, [r7, #4]
 2728 0216 5B6C     		ldr	r3, [r3, #68]
 2729 0218 002B     		cmp	r3, #0
 2730 021a 0ED0     		beq	.L85
 2731              		.loc 1 1085 3 is_stmt 0 discriminator 1
 2732 021c 7B68     		ldr	r3, [r7, #4]
 2733 021e 5B6C     		ldr	r3, [r3, #68]
 2734 0220 B3F1807F 		cmp	r3, #16777216
 2735 0224 09D0     		beq	.L85
 2736              		.loc 1 1085 3 discriminator 2
 2737 0226 7B68     		ldr	r3, [r7, #4]
 2738 0228 5B6C     		ldr	r3, [r3, #68]
 2739 022a B3F1007F 		cmp	r3, #33554432
 2740 022e 04D0     		beq	.L85
 2741              		.loc 1 1085 3 discriminator 3
 2742 0230 40F23D41 		movw	r1, #1085
 2743 0234 1448     		ldr	r0, .L104
 2744 0236 FFF7FEFF 		bl	assert_failed
 2745              	.L85:
1086:STM32Cube_FW_N6/Drivers/STM32N6xx_HAL_Driver/Src/stm32n6xx_hal_dma_ex.c ****   if (pNodeConfig->TriggerConfig.TriggerPolarity != DMA_TRIG_POLARITY_MASKED)
 2746              		.loc 1 1086 33 is_stmt 1
 2747 023a 7B68     		ldr	r3, [r7, #4]
 2748 023c 5B6C     		ldr	r3, [r3, #68]
 2749              		.loc 1 1086 6
 2750 023e 002B     		cmp	r3, #0
 2751 0240 24D0     		beq	.L86
1087:STM32Cube_FW_N6/Drivers/STM32N6xx_HAL_Driver/Src/stm32n6xx_hal_dma_ex.c ****   {
1088:STM32Cube_FW_N6/Drivers/STM32N6xx_HAL_Driver/Src/stm32n6xx_hal_dma_ex.c ****     assert_param(IS_DMA_TRIGGER_MODE(pNodeConfig->TriggerConfig.TriggerMode));
 2752              		.loc 1 1088 5
 2753 0242 7B68     		ldr	r3, [r7, #4]
 2754 0244 1B6C     		ldr	r3, [r3, #64]
 2755 0246 002B     		cmp	r3, #0
 2756 0248 13D0     		beq	.L87
 2757              		.loc 1 1088 5 is_stmt 0 discriminator 1
 2758 024a 7B68     		ldr	r3, [r7, #4]
 2759 024c 1B6C     		ldr	r3, [r3, #64]
 2760 024e B3F5804F 		cmp	r3, #16384
 2761 0252 0ED0     		beq	.L87
 2762              		.loc 1 1088 5 discriminator 2
 2763 0254 7B68     		ldr	r3, [r7, #4]
 2764 0256 1B6C     		ldr	r3, [r3, #64]
 2765 0258 B3F5004F 		cmp	r3, #32768
 2766 025c 09D0     		beq	.L87
 2767              		.loc 1 1088 5 discriminator 3
 2768 025e 7B68     		ldr	r3, [r7, #4]
 2769 0260 1B6C     		ldr	r3, [r3, #64]
 2770 0262 B3F5404F 		cmp	r3, #49152
 2771 0266 04D0     		beq	.L87
 2772              		.loc 1 1088 5 discriminator 4
 2773 0268 4FF48861 		mov	r1, #1088
 2774 026c 0648     		ldr	r0, .L104
 2775 026e FFF7FEFF 		bl	assert_failed
ARM GAS  /tmp/ccuUFTu8.s 			page 69


 2776              	.L87:
1089:STM32Cube_FW_N6/Drivers/STM32N6xx_HAL_Driver/Src/stm32n6xx_hal_dma_ex.c ****     assert_param(IS_DMA_TRIGGER_SELECTION(pNodeConfig->TriggerConfig.TriggerSelection));
 2777              		.loc 1 1089 5 is_stmt 1
 2778 0272 7B68     		ldr	r3, [r7, #4]
 2779 0274 9B6C     		ldr	r3, [r3, #72]
 2780 0276 6C2B     		cmp	r3, #108
 2781 0278 08D9     		bls	.L86
 2782              		.loc 1 1089 5 is_stmt 0 discriminator 1
 2783 027a 40F24141 		movw	r1, #1089
 2784 027e 0248     		ldr	r0, .L104
 2785 0280 FFF7FEFF 		bl	assert_failed
 2786 0284 02E0     		b	.L105
 2787              	.L106:
 2788 0286 00BF     		.align	2
 2789              	.L104:
 2790 0288 00000000 		.word	.LC1
 2791              	.L105:
 2792              	.L86:
1090:STM32Cube_FW_N6/Drivers/STM32N6xx_HAL_Driver/Src/stm32n6xx_hal_dma_ex.c ****   }
1091:STM32Cube_FW_N6/Drivers/STM32N6xx_HAL_Driver/Src/stm32n6xx_hal_dma_ex.c **** 
1092:STM32Cube_FW_N6/Drivers/STM32N6xx_HAL_Driver/Src/stm32n6xx_hal_dma_ex.c ****   /* Check DMA channel repeated block parameters */
1093:STM32Cube_FW_N6/Drivers/STM32N6xx_HAL_Driver/Src/stm32n6xx_hal_dma_ex.c ****   if ((pNodeConfig->NodeType & DMA_CHANNEL_TYPE_2D_ADDR) == DMA_CHANNEL_TYPE_2D_ADDR)
 2793              		.loc 1 1093 19 is_stmt 1
 2794 028c 7B68     		ldr	r3, [r7, #4]
 2795 028e 1B68     		ldr	r3, [r3]
 2796              		.loc 1 1093 30
 2797 0290 03F00203 		and	r3, r3, #2
 2798              		.loc 1 1093 6
 2799 0294 002B     		cmp	r3, #0
 2800 0296 49D0     		beq	.L88
1094:STM32Cube_FW_N6/Drivers/STM32N6xx_HAL_Driver/Src/stm32n6xx_hal_dma_ex.c ****   {
1095:STM32Cube_FW_N6/Drivers/STM32N6xx_HAL_Driver/Src/stm32n6xx_hal_dma_ex.c ****     assert_param(IS_DMA_REPEAT_COUNT(pNodeConfig->RepeatBlockConfig.RepeatCount));
 2801              		.loc 1 1095 5
 2802 0298 7B68     		ldr	r3, [r7, #4]
 2803 029a DB6C     		ldr	r3, [r3, #76]
 2804 029c 002B     		cmp	r3, #0
 2805 029e 04D0     		beq	.L89
 2806              		.loc 1 1095 5 is_stmt 0 discriminator 2
 2807 02a0 7B68     		ldr	r3, [r7, #4]
 2808 02a2 DB6C     		ldr	r3, [r3, #76]
 2809 02a4 B3F5006F 		cmp	r3, #2048
 2810 02a8 04D3     		bcc	.L90
 2811              	.L89:
 2812              		.loc 1 1095 5 discriminator 3
 2813 02aa 40F24741 		movw	r1, #1095
 2814 02ae 4B48     		ldr	r0, .L107
 2815 02b0 FFF7FEFF 		bl	assert_failed
 2816              	.L90:
1096:STM32Cube_FW_N6/Drivers/STM32N6xx_HAL_Driver/Src/stm32n6xx_hal_dma_ex.c ****     assert_param(IS_DMA_BURST_ADDR_OFFSET(pNodeConfig->RepeatBlockConfig.SrcAddrOffset));
 2817              		.loc 1 1096 5 is_stmt 1
 2818 02b4 7B68     		ldr	r3, [r7, #4]
 2819 02b6 1B6D     		ldr	r3, [r3, #80]
 2820 02b8 13F5005F 		cmn	r3, #8192
 2821 02bc 04DD     		ble	.L91
