ARM GAS  /tmp/ccEPgY0u.s 			page 1


   1              		.arch armv8.1-m.main
   2              		.fpu fpv5-d16
   3              		.arch_extension dsp
   4              		.arch_extension fp
   5              		.arch_extension fp.dp
   6              		.arch_extension mve
   7              		.arch_extension mve.fp
   8              		.eabi_attribute 5, "cortex-m55"
   9              		.eabi_attribute 28, 1
  10              		.eabi_attribute 20, 1
  11              		.eabi_attribute 21, 1
  12              		.eabi_attribute 23, 3
  13              		.eabi_attribute 24, 1
  14              		.eabi_attribute 25, 1
  15              		.eabi_attribute 26, 1
  16              		.eabi_attribute 30, 6
  17              		.eabi_attribute 34, 1
  18              		.eabi_attribute 38, 1
  19              		.eabi_attribute 18, 4
  20              		.file	"stm32n6xx_hal_gpio.c"
  21              		.text
  22              	.Ltext0:
  23              		.cfi_sections	.debug_frame
  24              		.file 1 "STM32Cube_FW_N6/Drivers/STM32N6xx_HAL_Driver/Src/stm32n6xx_hal_gpio.c"
  25              		.section	.rodata
  26              		.align	2
  27              	.LC0:
  28 0000 53544D33 		.ascii	"STM32Cube_FW_N6/Drivers/STM32N6xx_HAL_Driver/Src/st"
  28      32437562 
  28      655F4657 
  28      5F4E362F 
  28      44726976 
  29 0033 6D33326E 		.ascii	"m32n6xx_hal_gpio.c\000"
  29      3678785F 
  29      68616C5F 
  29      6770696F 
  29      2E6300
  30              		.section	.text.HAL_GPIO_Init,"ax",%progbits
  31              		.align	1
  32              		.global	HAL_GPIO_Init
  33              		.syntax unified
  34              		.thumb
  35              		.thumb_func
  37              	HAL_GPIO_Init:
  38              	.LFB835:
   1:STM32Cube_FW_N6/Drivers/STM32N6xx_HAL_Driver/Src/stm32n6xx_hal_gpio.c **** /**
   2:STM32Cube_FW_N6/Drivers/STM32N6xx_HAL_Driver/Src/stm32n6xx_hal_gpio.c ****   ******************************************************************************
   3:STM32Cube_FW_N6/Drivers/STM32N6xx_HAL_Driver/Src/stm32n6xx_hal_gpio.c ****   * @file    stm32n6xx_hal_gpio.c
   4:STM32Cube_FW_N6/Drivers/STM32N6xx_HAL_Driver/Src/stm32n6xx_hal_gpio.c ****   * @author  GPM Application Team
   5:STM32Cube_FW_N6/Drivers/STM32N6xx_HAL_Driver/Src/stm32n6xx_hal_gpio.c ****   * @brief   GPIO HAL module driver.
   6:STM32Cube_FW_N6/Drivers/STM32N6xx_HAL_Driver/Src/stm32n6xx_hal_gpio.c ****   *          This file provides firmware functions to manage the following
   7:STM32Cube_FW_N6/Drivers/STM32N6xx_HAL_Driver/Src/stm32n6xx_hal_gpio.c ****   *          functionalities of the General Purpose Input/Output (GPIO) peripheral:
   8:STM32Cube_FW_N6/Drivers/STM32N6xx_HAL_Driver/Src/stm32n6xx_hal_gpio.c ****   *           + Initialization and de-initialization functions
   9:STM32Cube_FW_N6/Drivers/STM32N6xx_HAL_Driver/Src/stm32n6xx_hal_gpio.c ****   *           + IO operation functions
  10:STM32Cube_FW_N6/Drivers/STM32N6xx_HAL_Driver/Src/stm32n6xx_hal_gpio.c ****   *
  11:STM32Cube_FW_N6/Drivers/STM32N6xx_HAL_Driver/Src/stm32n6xx_hal_gpio.c ****   ******************************************************************************
  12:STM32Cube_FW_N6/Drivers/STM32N6xx_HAL_Driver/Src/stm32n6xx_hal_gpio.c ****   * @attention
ARM GAS  /tmp/ccEPgY0u.s 			page 2


  13:STM32Cube_FW_N6/Drivers/STM32N6xx_HAL_Driver/Src/stm32n6xx_hal_gpio.c ****   *
  14:STM32Cube_FW_N6/Drivers/STM32N6xx_HAL_Driver/Src/stm32n6xx_hal_gpio.c ****   * Copyright (c) 2023 STMicroelectronics.
  15:STM32Cube_FW_N6/Drivers/STM32N6xx_HAL_Driver/Src/stm32n6xx_hal_gpio.c ****   * All rights reserved.
  16:STM32Cube_FW_N6/Drivers/STM32N6xx_HAL_Driver/Src/stm32n6xx_hal_gpio.c ****   *
  17:STM32Cube_FW_N6/Drivers/STM32N6xx_HAL_Driver/Src/stm32n6xx_hal_gpio.c ****   * This software is licensed under terms that can be found in the LICENSE file
  18:STM32Cube_FW_N6/Drivers/STM32N6xx_HAL_Driver/Src/stm32n6xx_hal_gpio.c ****   * in the root directory of this software component.
  19:STM32Cube_FW_N6/Drivers/STM32N6xx_HAL_Driver/Src/stm32n6xx_hal_gpio.c ****   * If no LICENSE file comes with this software, it is provided AS-IS.
  20:STM32Cube_FW_N6/Drivers/STM32N6xx_HAL_Driver/Src/stm32n6xx_hal_gpio.c ****   *
  21:STM32Cube_FW_N6/Drivers/STM32N6xx_HAL_Driver/Src/stm32n6xx_hal_gpio.c ****   ******************************************************************************
  22:STM32Cube_FW_N6/Drivers/STM32N6xx_HAL_Driver/Src/stm32n6xx_hal_gpio.c ****   @verbatim
  23:STM32Cube_FW_N6/Drivers/STM32N6xx_HAL_Driver/Src/stm32n6xx_hal_gpio.c ****   ==============================================================================
  24:STM32Cube_FW_N6/Drivers/STM32N6xx_HAL_Driver/Src/stm32n6xx_hal_gpio.c ****                     ##### GPIO Peripheral features #####
  25:STM32Cube_FW_N6/Drivers/STM32N6xx_HAL_Driver/Src/stm32n6xx_hal_gpio.c ****   ==============================================================================
  26:STM32Cube_FW_N6/Drivers/STM32N6xx_HAL_Driver/Src/stm32n6xx_hal_gpio.c ****   [..]
  27:STM32Cube_FW_N6/Drivers/STM32N6xx_HAL_Driver/Src/stm32n6xx_hal_gpio.c ****     (+) Each port bit of the general-purpose I/O (GPIO) ports can be individually
  28:STM32Cube_FW_N6/Drivers/STM32N6xx_HAL_Driver/Src/stm32n6xx_hal_gpio.c ****         configured by software in several modes:
  29:STM32Cube_FW_N6/Drivers/STM32N6xx_HAL_Driver/Src/stm32n6xx_hal_gpio.c ****         (++) Input mode
  30:STM32Cube_FW_N6/Drivers/STM32N6xx_HAL_Driver/Src/stm32n6xx_hal_gpio.c ****         (++) Analog mode
  31:STM32Cube_FW_N6/Drivers/STM32N6xx_HAL_Driver/Src/stm32n6xx_hal_gpio.c ****         (++) Output mode
  32:STM32Cube_FW_N6/Drivers/STM32N6xx_HAL_Driver/Src/stm32n6xx_hal_gpio.c ****         (++) Alternate function mode
  33:STM32Cube_FW_N6/Drivers/STM32N6xx_HAL_Driver/Src/stm32n6xx_hal_gpio.c ****         (++) External interrupt/event lines
  34:STM32Cube_FW_N6/Drivers/STM32N6xx_HAL_Driver/Src/stm32n6xx_hal_gpio.c **** 
  35:STM32Cube_FW_N6/Drivers/STM32N6xx_HAL_Driver/Src/stm32n6xx_hal_gpio.c ****     (+) During and just after reset, the alternate functions and external interrupt
  36:STM32Cube_FW_N6/Drivers/STM32N6xx_HAL_Driver/Src/stm32n6xx_hal_gpio.c ****         lines are not active and the I/O ports are configured in analog mode.
  37:STM32Cube_FW_N6/Drivers/STM32N6xx_HAL_Driver/Src/stm32n6xx_hal_gpio.c **** 
  38:STM32Cube_FW_N6/Drivers/STM32N6xx_HAL_Driver/Src/stm32n6xx_hal_gpio.c ****     (+) All GPIO pins have weak internal pull-up and pull-down resistors, which can be
  39:STM32Cube_FW_N6/Drivers/STM32N6xx_HAL_Driver/Src/stm32n6xx_hal_gpio.c ****         activated or not.
  40:STM32Cube_FW_N6/Drivers/STM32N6xx_HAL_Driver/Src/stm32n6xx_hal_gpio.c **** 
  41:STM32Cube_FW_N6/Drivers/STM32N6xx_HAL_Driver/Src/stm32n6xx_hal_gpio.c ****     (+) In Output or Alternate mode, each IO can be configured on open-drain or push-pull
  42:STM32Cube_FW_N6/Drivers/STM32N6xx_HAL_Driver/Src/stm32n6xx_hal_gpio.c ****         type and the IO speed can be selected depending on the VDD value.
  43:STM32Cube_FW_N6/Drivers/STM32N6xx_HAL_Driver/Src/stm32n6xx_hal_gpio.c **** 
  44:STM32Cube_FW_N6/Drivers/STM32N6xx_HAL_Driver/Src/stm32n6xx_hal_gpio.c ****     (+) The microcontroller IO pins are connected to onboard peripherals/modules through a
  45:STM32Cube_FW_N6/Drivers/STM32N6xx_HAL_Driver/Src/stm32n6xx_hal_gpio.c ****         multiplexer that allows only one peripheral alternate function (AF) connected
  46:STM32Cube_FW_N6/Drivers/STM32N6xx_HAL_Driver/Src/stm32n6xx_hal_gpio.c ****         to an IO pin at a time. In this way, there can be no conflict between peripherals
  47:STM32Cube_FW_N6/Drivers/STM32N6xx_HAL_Driver/Src/stm32n6xx_hal_gpio.c ****         sharing the same IO pin.
  48:STM32Cube_FW_N6/Drivers/STM32N6xx_HAL_Driver/Src/stm32n6xx_hal_gpio.c **** 
  49:STM32Cube_FW_N6/Drivers/STM32N6xx_HAL_Driver/Src/stm32n6xx_hal_gpio.c ****     (+) All ports have external interrupt/event capability. To use external interrupt
  50:STM32Cube_FW_N6/Drivers/STM32N6xx_HAL_Driver/Src/stm32n6xx_hal_gpio.c ****         lines, the port must be configured in input mode. All available GPIO pins are
  51:STM32Cube_FW_N6/Drivers/STM32N6xx_HAL_Driver/Src/stm32n6xx_hal_gpio.c ****         connected to the 16 external interrupt/event lines from EXTI0 to EXTI15.
  52:STM32Cube_FW_N6/Drivers/STM32N6xx_HAL_Driver/Src/stm32n6xx_hal_gpio.c **** 
  53:STM32Cube_FW_N6/Drivers/STM32N6xx_HAL_Driver/Src/stm32n6xx_hal_gpio.c ****     (+) The external interrupt/event controller consists of up to 73 edge detectors
  54:STM32Cube_FW_N6/Drivers/STM32N6xx_HAL_Driver/Src/stm32n6xx_hal_gpio.c ****         (16 lines are connected to GPIO) for generating event/interrupt requests (each
  55:STM32Cube_FW_N6/Drivers/STM32N6xx_HAL_Driver/Src/stm32n6xx_hal_gpio.c ****         input line can be independently configured to select the type (interrupt or event)
  56:STM32Cube_FW_N6/Drivers/STM32N6xx_HAL_Driver/Src/stm32n6xx_hal_gpio.c ****         and the corresponding trigger event (rising or falling or both). Each line can
  57:STM32Cube_FW_N6/Drivers/STM32N6xx_HAL_Driver/Src/stm32n6xx_hal_gpio.c ****         also be masked independently.
  58:STM32Cube_FW_N6/Drivers/STM32N6xx_HAL_Driver/Src/stm32n6xx_hal_gpio.c **** 
  59:STM32Cube_FW_N6/Drivers/STM32N6xx_HAL_Driver/Src/stm32n6xx_hal_gpio.c ****                      ##### How to use this driver #####
  60:STM32Cube_FW_N6/Drivers/STM32N6xx_HAL_Driver/Src/stm32n6xx_hal_gpio.c ****   ==============================================================================
  61:STM32Cube_FW_N6/Drivers/STM32N6xx_HAL_Driver/Src/stm32n6xx_hal_gpio.c ****   [..]
  62:STM32Cube_FW_N6/Drivers/STM32N6xx_HAL_Driver/Src/stm32n6xx_hal_gpio.c ****     (#) Enable the GPIO AHB clock using the following function: __HAL_RCC_GPIOx_CLK_ENABLE().
  63:STM32Cube_FW_N6/Drivers/STM32N6xx_HAL_Driver/Src/stm32n6xx_hal_gpio.c **** 
  64:STM32Cube_FW_N6/Drivers/STM32N6xx_HAL_Driver/Src/stm32n6xx_hal_gpio.c ****     (#) Configure the GPIO pin(s) using HAL_GPIO_Init().
  65:STM32Cube_FW_N6/Drivers/STM32N6xx_HAL_Driver/Src/stm32n6xx_hal_gpio.c ****         (++) Configure the IO mode using "Mode" member from GPIO_InitTypeDef structure
  66:STM32Cube_FW_N6/Drivers/STM32N6xx_HAL_Driver/Src/stm32n6xx_hal_gpio.c ****         (++) Activate Pull-up, Pull-down resistor using "Pull" member from GPIO_InitTypeDef
  67:STM32Cube_FW_N6/Drivers/STM32N6xx_HAL_Driver/Src/stm32n6xx_hal_gpio.c ****              structure.
  68:STM32Cube_FW_N6/Drivers/STM32N6xx_HAL_Driver/Src/stm32n6xx_hal_gpio.c ****         (++) In case of Output or alternate function mode selection: the speed is
  69:STM32Cube_FW_N6/Drivers/STM32N6xx_HAL_Driver/Src/stm32n6xx_hal_gpio.c ****              configured through "Speed" member from GPIO_InitTypeDef structure.
ARM GAS  /tmp/ccEPgY0u.s 			page 3


  70:STM32Cube_FW_N6/Drivers/STM32N6xx_HAL_Driver/Src/stm32n6xx_hal_gpio.c ****         (++) In alternate mode is selection, the alternate function connected to the IO
  71:STM32Cube_FW_N6/Drivers/STM32N6xx_HAL_Driver/Src/stm32n6xx_hal_gpio.c ****              is configured through "Alternate" member from GPIO_InitTypeDef structure.
  72:STM32Cube_FW_N6/Drivers/STM32N6xx_HAL_Driver/Src/stm32n6xx_hal_gpio.c ****         (++) Analog mode is required when a pin is to be used as ADC channel
  73:STM32Cube_FW_N6/Drivers/STM32N6xx_HAL_Driver/Src/stm32n6xx_hal_gpio.c ****              or DAC output.
  74:STM32Cube_FW_N6/Drivers/STM32N6xx_HAL_Driver/Src/stm32n6xx_hal_gpio.c ****         (++) In case of external interrupt/event selection the "Mode" member from
  75:STM32Cube_FW_N6/Drivers/STM32N6xx_HAL_Driver/Src/stm32n6xx_hal_gpio.c ****              GPIO_InitTypeDef structure select the type (interrupt or event) and
  76:STM32Cube_FW_N6/Drivers/STM32N6xx_HAL_Driver/Src/stm32n6xx_hal_gpio.c ****              the corresponding trigger event (rising or falling or both).
  77:STM32Cube_FW_N6/Drivers/STM32N6xx_HAL_Driver/Src/stm32n6xx_hal_gpio.c **** 
  78:STM32Cube_FW_N6/Drivers/STM32N6xx_HAL_Driver/Src/stm32n6xx_hal_gpio.c ****     (#) In case of external interrupt/event mode selection, configure NVIC IRQ priority
  79:STM32Cube_FW_N6/Drivers/STM32N6xx_HAL_Driver/Src/stm32n6xx_hal_gpio.c ****         mapped to the EXTI line using HAL_NVIC_SetPriority() and enable it using
  80:STM32Cube_FW_N6/Drivers/STM32N6xx_HAL_Driver/Src/stm32n6xx_hal_gpio.c ****         HAL_NVIC_EnableIRQ().
  81:STM32Cube_FW_N6/Drivers/STM32N6xx_HAL_Driver/Src/stm32n6xx_hal_gpio.c **** 
  82:STM32Cube_FW_N6/Drivers/STM32N6xx_HAL_Driver/Src/stm32n6xx_hal_gpio.c ****     (#) To get the level of a pin configured in input mode use HAL_GPIO_ReadPin().
  83:STM32Cube_FW_N6/Drivers/STM32N6xx_HAL_Driver/Src/stm32n6xx_hal_gpio.c **** 
  84:STM32Cube_FW_N6/Drivers/STM32N6xx_HAL_Driver/Src/stm32n6xx_hal_gpio.c ****     (#) To set/reset the level of a pin configured in output mode use
  85:STM32Cube_FW_N6/Drivers/STM32N6xx_HAL_Driver/Src/stm32n6xx_hal_gpio.c ****         HAL_GPIO_WritePin()/HAL_GPIO_TogglePin().
  86:STM32Cube_FW_N6/Drivers/STM32N6xx_HAL_Driver/Src/stm32n6xx_hal_gpio.c **** 
  87:STM32Cube_FW_N6/Drivers/STM32N6xx_HAL_Driver/Src/stm32n6xx_hal_gpio.c ****     (#) To set the level of several pins and reset level of several other pins in
  88:STM32Cube_FW_N6/Drivers/STM32N6xx_HAL_Driver/Src/stm32n6xx_hal_gpio.c ****         same cycle, use HAL_GPIO_WriteMultipleStatePin().
  89:STM32Cube_FW_N6/Drivers/STM32N6xx_HAL_Driver/Src/stm32n6xx_hal_gpio.c **** 
  90:STM32Cube_FW_N6/Drivers/STM32N6xx_HAL_Driver/Src/stm32n6xx_hal_gpio.c ****     (#) To lock pin configuration until next reset use HAL_GPIO_LockPin().
  91:STM32Cube_FW_N6/Drivers/STM32N6xx_HAL_Driver/Src/stm32n6xx_hal_gpio.c **** 
  92:STM32Cube_FW_N6/Drivers/STM32N6xx_HAL_Driver/Src/stm32n6xx_hal_gpio.c ****     (#) During and just after reset, the alternate functions are not
  93:STM32Cube_FW_N6/Drivers/STM32N6xx_HAL_Driver/Src/stm32n6xx_hal_gpio.c ****         active and the GPIO pins are configured in analog mode (except JTAG
  94:STM32Cube_FW_N6/Drivers/STM32N6xx_HAL_Driver/Src/stm32n6xx_hal_gpio.c ****         pins).
  95:STM32Cube_FW_N6/Drivers/STM32N6xx_HAL_Driver/Src/stm32n6xx_hal_gpio.c **** 
  96:STM32Cube_FW_N6/Drivers/STM32N6xx_HAL_Driver/Src/stm32n6xx_hal_gpio.c ****     (#) The LSE oscillator pins OSC32_IN and OSC32_OUT can be used as general purpose
  97:STM32Cube_FW_N6/Drivers/STM32N6xx_HAL_Driver/Src/stm32n6xx_hal_gpio.c ****         (PC14 and PC15, respectively) when the LSE oscillator is off. The LSE has
  98:STM32Cube_FW_N6/Drivers/STM32N6xx_HAL_Driver/Src/stm32n6xx_hal_gpio.c ****         priority over the GPIO function.
  99:STM32Cube_FW_N6/Drivers/STM32N6xx_HAL_Driver/Src/stm32n6xx_hal_gpio.c **** 
 100:STM32Cube_FW_N6/Drivers/STM32N6xx_HAL_Driver/Src/stm32n6xx_hal_gpio.c ****     (#) The HSE oscillator pins OSC_IN/OSC_OUT can be used as
 101:STM32Cube_FW_N6/Drivers/STM32N6xx_HAL_Driver/Src/stm32n6xx_hal_gpio.c ****         general purpose PH0 and PH1, respectively, when the HSE oscillator is off.
 102:STM32Cube_FW_N6/Drivers/STM32N6xx_HAL_Driver/Src/stm32n6xx_hal_gpio.c ****         The HSE has priority over the GPIO function.
 103:STM32Cube_FW_N6/Drivers/STM32N6xx_HAL_Driver/Src/stm32n6xx_hal_gpio.c **** 
 104:STM32Cube_FW_N6/Drivers/STM32N6xx_HAL_Driver/Src/stm32n6xx_hal_gpio.c ****   @endverbatim
 105:STM32Cube_FW_N6/Drivers/STM32N6xx_HAL_Driver/Src/stm32n6xx_hal_gpio.c ****   */
 106:STM32Cube_FW_N6/Drivers/STM32N6xx_HAL_Driver/Src/stm32n6xx_hal_gpio.c **** 
 107:STM32Cube_FW_N6/Drivers/STM32N6xx_HAL_Driver/Src/stm32n6xx_hal_gpio.c **** /* Includes ------------------------------------------------------------------*/
 108:STM32Cube_FW_N6/Drivers/STM32N6xx_HAL_Driver/Src/stm32n6xx_hal_gpio.c **** #include "stm32n6xx_hal.h"
 109:STM32Cube_FW_N6/Drivers/STM32N6xx_HAL_Driver/Src/stm32n6xx_hal_gpio.c **** 
 110:STM32Cube_FW_N6/Drivers/STM32N6xx_HAL_Driver/Src/stm32n6xx_hal_gpio.c **** /** @addtogroup STM32N6xx_HAL_Driver
 111:STM32Cube_FW_N6/Drivers/STM32N6xx_HAL_Driver/Src/stm32n6xx_hal_gpio.c ****   * @{
 112:STM32Cube_FW_N6/Drivers/STM32N6xx_HAL_Driver/Src/stm32n6xx_hal_gpio.c ****   */
 113:STM32Cube_FW_N6/Drivers/STM32N6xx_HAL_Driver/Src/stm32n6xx_hal_gpio.c **** 
 114:STM32Cube_FW_N6/Drivers/STM32N6xx_HAL_Driver/Src/stm32n6xx_hal_gpio.c **** /** @addtogroup GPIO
 115:STM32Cube_FW_N6/Drivers/STM32N6xx_HAL_Driver/Src/stm32n6xx_hal_gpio.c ****   * @{
 116:STM32Cube_FW_N6/Drivers/STM32N6xx_HAL_Driver/Src/stm32n6xx_hal_gpio.c ****   */
 117:STM32Cube_FW_N6/Drivers/STM32N6xx_HAL_Driver/Src/stm32n6xx_hal_gpio.c **** /** MISRA C:2012 deviation rule has been granted for following rules:
 118:STM32Cube_FW_N6/Drivers/STM32N6xx_HAL_Driver/Src/stm32n6xx_hal_gpio.c ****   * Rule-12.2 - Medium: RHS argument is in interval [0,INF] which is out of
 119:STM32Cube_FW_N6/Drivers/STM32N6xx_HAL_Driver/Src/stm32n6xx_hal_gpio.c ****   * range of the shift operator in following API :
 120:STM32Cube_FW_N6/Drivers/STM32N6xx_HAL_Driver/Src/stm32n6xx_hal_gpio.c ****   * HAL_GPIO_Init
 121:STM32Cube_FW_N6/Drivers/STM32N6xx_HAL_Driver/Src/stm32n6xx_hal_gpio.c ****   * HAL_GPIO_DeInit
 122:STM32Cube_FW_N6/Drivers/STM32N6xx_HAL_Driver/Src/stm32n6xx_hal_gpio.c ****   */
 123:STM32Cube_FW_N6/Drivers/STM32N6xx_HAL_Driver/Src/stm32n6xx_hal_gpio.c **** 
 124:STM32Cube_FW_N6/Drivers/STM32N6xx_HAL_Driver/Src/stm32n6xx_hal_gpio.c **** #ifdef HAL_GPIO_MODULE_ENABLED
 125:STM32Cube_FW_N6/Drivers/STM32N6xx_HAL_Driver/Src/stm32n6xx_hal_gpio.c **** 
 126:STM32Cube_FW_N6/Drivers/STM32N6xx_HAL_Driver/Src/stm32n6xx_hal_gpio.c **** /* Private typedef -----------------------------------------------------------*/
ARM GAS  /tmp/ccEPgY0u.s 			page 4


 127:STM32Cube_FW_N6/Drivers/STM32N6xx_HAL_Driver/Src/stm32n6xx_hal_gpio.c **** /* Private defines ------------------------------------------------------------*/
 128:STM32Cube_FW_N6/Drivers/STM32N6xx_HAL_Driver/Src/stm32n6xx_hal_gpio.c **** /** @addtogroup GPIO_Private_Constants
 129:STM32Cube_FW_N6/Drivers/STM32N6xx_HAL_Driver/Src/stm32n6xx_hal_gpio.c ****   * @{
 130:STM32Cube_FW_N6/Drivers/STM32N6xx_HAL_Driver/Src/stm32n6xx_hal_gpio.c ****   */
 131:STM32Cube_FW_N6/Drivers/STM32N6xx_HAL_Driver/Src/stm32n6xx_hal_gpio.c **** #define GPIO_NUMBER           (16u)
 132:STM32Cube_FW_N6/Drivers/STM32N6xx_HAL_Driver/Src/stm32n6xx_hal_gpio.c **** /**
 133:STM32Cube_FW_N6/Drivers/STM32N6xx_HAL_Driver/Src/stm32n6xx_hal_gpio.c ****   * @}
 134:STM32Cube_FW_N6/Drivers/STM32N6xx_HAL_Driver/Src/stm32n6xx_hal_gpio.c ****   */
 135:STM32Cube_FW_N6/Drivers/STM32N6xx_HAL_Driver/Src/stm32n6xx_hal_gpio.c **** 
 136:STM32Cube_FW_N6/Drivers/STM32N6xx_HAL_Driver/Src/stm32n6xx_hal_gpio.c **** /* Private macros ------------------------------------------------------------*/
 137:STM32Cube_FW_N6/Drivers/STM32N6xx_HAL_Driver/Src/stm32n6xx_hal_gpio.c **** /* Private variables ---------------------------------------------------------*/
 138:STM32Cube_FW_N6/Drivers/STM32N6xx_HAL_Driver/Src/stm32n6xx_hal_gpio.c **** /* Private function prototypes -----------------------------------------------*/
 139:STM32Cube_FW_N6/Drivers/STM32N6xx_HAL_Driver/Src/stm32n6xx_hal_gpio.c **** /* Exported functions --------------------------------------------------------*/
 140:STM32Cube_FW_N6/Drivers/STM32N6xx_HAL_Driver/Src/stm32n6xx_hal_gpio.c **** 
 141:STM32Cube_FW_N6/Drivers/STM32N6xx_HAL_Driver/Src/stm32n6xx_hal_gpio.c **** /** @addtogroup GPIO_Exported_Functions
 142:STM32Cube_FW_N6/Drivers/STM32N6xx_HAL_Driver/Src/stm32n6xx_hal_gpio.c ****   * @{
 143:STM32Cube_FW_N6/Drivers/STM32N6xx_HAL_Driver/Src/stm32n6xx_hal_gpio.c ****   */
 144:STM32Cube_FW_N6/Drivers/STM32N6xx_HAL_Driver/Src/stm32n6xx_hal_gpio.c **** 
 145:STM32Cube_FW_N6/Drivers/STM32N6xx_HAL_Driver/Src/stm32n6xx_hal_gpio.c **** /** @addtogroup GPIO_Exported_Functions_Group1
 146:STM32Cube_FW_N6/Drivers/STM32N6xx_HAL_Driver/Src/stm32n6xx_hal_gpio.c ****   *  @brief    Initialization and Configuration functions
 147:STM32Cube_FW_N6/Drivers/STM32N6xx_HAL_Driver/Src/stm32n6xx_hal_gpio.c ****   *
 148:STM32Cube_FW_N6/Drivers/STM32N6xx_HAL_Driver/Src/stm32n6xx_hal_gpio.c **** @verbatim
 149:STM32Cube_FW_N6/Drivers/STM32N6xx_HAL_Driver/Src/stm32n6xx_hal_gpio.c ****  ===============================================================================
 150:STM32Cube_FW_N6/Drivers/STM32N6xx_HAL_Driver/Src/stm32n6xx_hal_gpio.c ****               ##### Initialization and de-initialization functions #####
 151:STM32Cube_FW_N6/Drivers/STM32N6xx_HAL_Driver/Src/stm32n6xx_hal_gpio.c ****  ===============================================================================
 152:STM32Cube_FW_N6/Drivers/STM32N6xx_HAL_Driver/Src/stm32n6xx_hal_gpio.c **** 
 153:STM32Cube_FW_N6/Drivers/STM32N6xx_HAL_Driver/Src/stm32n6xx_hal_gpio.c **** @endverbatim
 154:STM32Cube_FW_N6/Drivers/STM32N6xx_HAL_Driver/Src/stm32n6xx_hal_gpio.c ****   * @{
 155:STM32Cube_FW_N6/Drivers/STM32N6xx_HAL_Driver/Src/stm32n6xx_hal_gpio.c ****   */
 156:STM32Cube_FW_N6/Drivers/STM32N6xx_HAL_Driver/Src/stm32n6xx_hal_gpio.c **** 
 157:STM32Cube_FW_N6/Drivers/STM32N6xx_HAL_Driver/Src/stm32n6xx_hal_gpio.c **** /**
 158:STM32Cube_FW_N6/Drivers/STM32N6xx_HAL_Driver/Src/stm32n6xx_hal_gpio.c ****   * @brief  Initialize the GPIOx peripheral according to the specified parameters in the GPIO_Init.
 159:STM32Cube_FW_N6/Drivers/STM32N6xx_HAL_Driver/Src/stm32n6xx_hal_gpio.c ****   * @note   If GPIOx peripheral pin is used in EXTI_MODE and the pin is secure/privilege, it is up
 160:STM32Cube_FW_N6/Drivers/STM32N6xx_HAL_Driver/Src/stm32n6xx_hal_gpio.c ****   *         to the application to insure that the corresponding EXTI line is set secure/privilege.
 161:STM32Cube_FW_N6/Drivers/STM32N6xx_HAL_Driver/Src/stm32n6xx_hal_gpio.c ****   * @param  GPIOx where x can be (A..H and N..Q) to select the GPIO peripheral for STM32N6xx family
 162:STM32Cube_FW_N6/Drivers/STM32N6xx_HAL_Driver/Src/stm32n6xx_hal_gpio.c ****   * @param  GPIO_Init pointer to a GPIO_InitTypeDef structure that contains
 163:STM32Cube_FW_N6/Drivers/STM32N6xx_HAL_Driver/Src/stm32n6xx_hal_gpio.c ****   *         the configuration information for the specified GPIO peripheral.
 164:STM32Cube_FW_N6/Drivers/STM32N6xx_HAL_Driver/Src/stm32n6xx_hal_gpio.c ****   * @retval None
 165:STM32Cube_FW_N6/Drivers/STM32N6xx_HAL_Driver/Src/stm32n6xx_hal_gpio.c ****   */
 166:STM32Cube_FW_N6/Drivers/STM32N6xx_HAL_Driver/Src/stm32n6xx_hal_gpio.c **** void HAL_GPIO_Init(GPIO_TypeDef  *GPIOx, const GPIO_InitTypeDef *GPIO_Init)
 167:STM32Cube_FW_N6/Drivers/STM32N6xx_HAL_Driver/Src/stm32n6xx_hal_gpio.c **** {
  39              		.loc 1 167 1
  40              		.cfi_startproc
  41              		@ args = 0, pretend = 0, frame = 24
  42              		@ frame_needed = 1, uses_anonymous_args = 0
  43 0000 80B5     		push	{r7, lr}
  44              		.cfi_def_cfa_offset 8
  45              		.cfi_offset 7, -8
  46              		.cfi_offset 14, -4
  47 0002 86B0     		sub	sp, sp, #24
  48              		.cfi_def_cfa_offset 32
  49 0004 00AF     		add	r7, sp, #0
  50              		.cfi_def_cfa_register 7
  51 0006 7860     		str	r0, [r7, #4]
  52 0008 3960     		str	r1, [r7]
 168:STM32Cube_FW_N6/Drivers/STM32N6xx_HAL_Driver/Src/stm32n6xx_hal_gpio.c ****   uint32_t position = 0x00u;
  53              		.loc 1 168 12
ARM GAS  /tmp/ccEPgY0u.s 			page 5


  54 000a 0023     		movs	r3, #0
  55 000c 7B61     		str	r3, [r7, #20]
 169:STM32Cube_FW_N6/Drivers/STM32N6xx_HAL_Driver/Src/stm32n6xx_hal_gpio.c ****   uint32_t iocurrent;
 170:STM32Cube_FW_N6/Drivers/STM32N6xx_HAL_Driver/Src/stm32n6xx_hal_gpio.c ****   uint32_t temp;
 171:STM32Cube_FW_N6/Drivers/STM32N6xx_HAL_Driver/Src/stm32n6xx_hal_gpio.c **** 
 172:STM32Cube_FW_N6/Drivers/STM32N6xx_HAL_Driver/Src/stm32n6xx_hal_gpio.c ****   /* Check the parameters */
 173:STM32Cube_FW_N6/Drivers/STM32N6xx_HAL_Driver/Src/stm32n6xx_hal_gpio.c ****   assert_param(IS_GPIO_ALL_INSTANCE(GPIOx));
  56              		.loc 1 173 3
  57 000e 7B68     		ldr	r3, [r7, #4]
  58 0010 5B4A     		ldr	r2, .L46
  59 0012 9342     		cmp	r3, r2
  60 0014 5FD0     		beq	.L2
  61              		.loc 1 173 3 is_stmt 0 discriminator 1
  62 0016 7B68     		ldr	r3, [r7, #4]
  63 0018 5A4A     		ldr	r2, .L46+4
  64 001a 9342     		cmp	r3, r2
  65 001c 5BD0     		beq	.L2
  66              		.loc 1 173 3 discriminator 2
  67 001e 7B68     		ldr	r3, [r7, #4]
  68 0020 594A     		ldr	r2, .L46+8
  69 0022 9342     		cmp	r3, r2
  70 0024 57D0     		beq	.L2
  71              		.loc 1 173 3 discriminator 3
  72 0026 7B68     		ldr	r3, [r7, #4]
  73 0028 584A     		ldr	r2, .L46+12
  74 002a 9342     		cmp	r3, r2
  75 002c 53D0     		beq	.L2
  76              		.loc 1 173 3 discriminator 4
  77 002e 7B68     		ldr	r3, [r7, #4]
  78 0030 574A     		ldr	r2, .L46+16
  79 0032 9342     		cmp	r3, r2
  80 0034 4FD0     		beq	.L2
  81              		.loc 1 173 3 discriminator 5
  82 0036 7B68     		ldr	r3, [r7, #4]
  83 0038 564A     		ldr	r2, .L46+20
  84 003a 9342     		cmp	r3, r2
  85 003c 4BD0     		beq	.L2
  86              		.loc 1 173 3 discriminator 6
  87 003e 7B68     		ldr	r3, [r7, #4]
  88 0040 554A     		ldr	r2, .L46+24
  89 0042 9342     		cmp	r3, r2
  90 0044 47D0     		beq	.L2
  91              		.loc 1 173 3 discriminator 7
  92 0046 7B68     		ldr	r3, [r7, #4]
  93 0048 544A     		ldr	r2, .L46+28
  94 004a 9342     		cmp	r3, r2
  95 004c 43D0     		beq	.L2
  96              		.loc 1 173 3 discriminator 8
  97 004e 7B68     		ldr	r3, [r7, #4]
  98 0050 534A     		ldr	r2, .L46+32
  99 0052 9342     		cmp	r3, r2
 100 0054 3FD0     		beq	.L2
 101              		.loc 1 173 3 discriminator 9
 102 0056 7B68     		ldr	r3, [r7, #4]
 103 0058 524A     		ldr	r2, .L46+36
 104 005a 9342     		cmp	r3, r2
 105 005c 3BD0     		beq	.L2
ARM GAS  /tmp/ccEPgY0u.s 			page 6


 106              		.loc 1 173 3 discriminator 10
 107 005e 7B68     		ldr	r3, [r7, #4]
 108 0060 514A     		ldr	r2, .L46+40
 109 0062 9342     		cmp	r3, r2
 110 0064 37D0     		beq	.L2
 111              		.loc 1 173 3 discriminator 11
 112 0066 7B68     		ldr	r3, [r7, #4]
 113 0068 504A     		ldr	r2, .L46+44
 114 006a 9342     		cmp	r3, r2
 115 006c 33D0     		beq	.L2
 116              		.loc 1 173 3 discriminator 12
 117 006e 7B68     		ldr	r3, [r7, #4]
 118 0070 4F4A     		ldr	r2, .L46+48
 119 0072 9342     		cmp	r3, r2
 120 0074 2FD0     		beq	.L2
 121              		.loc 1 173 3 discriminator 13
 122 0076 7B68     		ldr	r3, [r7, #4]
 123 0078 4E4A     		ldr	r2, .L46+52
 124 007a 9342     		cmp	r3, r2
 125 007c 2BD0     		beq	.L2
 126              		.loc 1 173 3 discriminator 14
 127 007e 7B68     		ldr	r3, [r7, #4]
 128 0080 4D4A     		ldr	r2, .L46+56
 129 0082 9342     		cmp	r3, r2
 130 0084 27D0     		beq	.L2
 131              		.loc 1 173 3 discriminator 15
 132 0086 7B68     		ldr	r3, [r7, #4]
 133 0088 4C4A     		ldr	r2, .L46+60
 134 008a 9342     		cmp	r3, r2
 135 008c 23D0     		beq	.L2
 136              		.loc 1 173 3 discriminator 16
 137 008e 7B68     		ldr	r3, [r7, #4]
 138 0090 4B4A     		ldr	r2, .L46+64
 139 0092 9342     		cmp	r3, r2
 140 0094 1FD0     		beq	.L2
 141              		.loc 1 173 3 discriminator 17
 142 0096 7B68     		ldr	r3, [r7, #4]
 143 0098 4A4A     		ldr	r2, .L46+68
 144 009a 9342     		cmp	r3, r2
 145 009c 1BD0     		beq	.L2
 146              		.loc 1 173 3 discriminator 18
 147 009e 7B68     		ldr	r3, [r7, #4]
 148 00a0 494A     		ldr	r2, .L46+72
 149 00a2 9342     		cmp	r3, r2
 150 00a4 17D0     		beq	.L2
 151              		.loc 1 173 3 discriminator 19
 152 00a6 7B68     		ldr	r3, [r7, #4]
 153 00a8 484A     		ldr	r2, .L46+76
 154 00aa 9342     		cmp	r3, r2
 155 00ac 13D0     		beq	.L2
 156              		.loc 1 173 3 discriminator 20
 157 00ae 7B68     		ldr	r3, [r7, #4]
 158 00b0 474A     		ldr	r2, .L46+80
 159 00b2 9342     		cmp	r3, r2
 160 00b4 0FD0     		beq	.L2
 161              		.loc 1 173 3 discriminator 21
 162 00b6 7B68     		ldr	r3, [r7, #4]
ARM GAS  /tmp/ccEPgY0u.s 			page 7


 163 00b8 464A     		ldr	r2, .L46+84
 164 00ba 9342     		cmp	r3, r2
 165 00bc 0BD0     		beq	.L2
 166              		.loc 1 173 3 discriminator 22
 167 00be 7B68     		ldr	r3, [r7, #4]
 168 00c0 454A     		ldr	r2, .L46+88
 169 00c2 9342     		cmp	r3, r2
 170 00c4 07D0     		beq	.L2
 171              		.loc 1 173 3 discriminator 23
 172 00c6 7B68     		ldr	r3, [r7, #4]
 173 00c8 444A     		ldr	r2, .L46+92
 174 00ca 9342     		cmp	r3, r2
 175 00cc 03D0     		beq	.L2
 176              		.loc 1 173 3 discriminator 24
 177 00ce AD21     		movs	r1, #173
 178 00d0 4348     		ldr	r0, .L46+96
 179 00d2 FFF7FEFF 		bl	assert_failed
 180              	.L2:
 174:STM32Cube_FW_N6/Drivers/STM32N6xx_HAL_Driver/Src/stm32n6xx_hal_gpio.c ****   assert_param(IS_GPIO_PIN(GPIO_Init->Pin));
 181              		.loc 1 174 3 is_stmt 1
 182 00d6 3B68     		ldr	r3, [r7]
 183 00d8 1B68     		ldr	r3, [r3]
 184 00da 9BB2     		uxth	r3, r3
 185 00dc 002B     		cmp	r3, #0
 186 00de 04D0     		beq	.L3
 187              		.loc 1 174 3 is_stmt 0 discriminator 2
 188 00e0 3B68     		ldr	r3, [r7]
 189 00e2 1B68     		ldr	r3, [r3]
 190 00e4 B3F5803F 		cmp	r3, #65536
 191 00e8 03D3     		bcc	.L4
 192              	.L3:
 193              		.loc 1 174 3 discriminator 3
 194 00ea AE21     		movs	r1, #174
 195 00ec 3C48     		ldr	r0, .L46+96
 196 00ee FFF7FEFF 		bl	assert_failed
 197              	.L4:
 175:STM32Cube_FW_N6/Drivers/STM32N6xx_HAL_Driver/Src/stm32n6xx_hal_gpio.c ****   assert_param(IS_GPIO_MODE(GPIO_Init->Mode));
 198              		.loc 1 175 3 is_stmt 1
 199 00f2 3B68     		ldr	r3, [r7]
 200 00f4 5B68     		ldr	r3, [r3, #4]
 201 00f6 002B     		cmp	r3, #0
 202 00f8 00F0BB82 		beq	.L6
 203              		.loc 1 175 3 is_stmt 0 discriminator 1
 204 00fc 3B68     		ldr	r3, [r7]
 205 00fe 5B68     		ldr	r3, [r3, #4]
 206 0100 012B     		cmp	r3, #1
 207 0102 00F0B682 		beq	.L6
 208              		.loc 1 175 3 discriminator 2
 209 0106 3B68     		ldr	r3, [r7]
 210 0108 5B68     		ldr	r3, [r3, #4]
 211 010a 112B     		cmp	r3, #17
 212 010c 00F0B182 		beq	.L6
 213              		.loc 1 175 3 discriminator 3
 214 0110 3B68     		ldr	r3, [r7]
 215 0112 5B68     		ldr	r3, [r3, #4]
 216 0114 022B     		cmp	r3, #2
 217 0116 00F0AC82 		beq	.L6
ARM GAS  /tmp/ccEPgY0u.s 			page 8


 218              		.loc 1 175 3 discriminator 4
 219 011a 3B68     		ldr	r3, [r7]
 220 011c 5B68     		ldr	r3, [r3, #4]
 221 011e 122B     		cmp	r3, #18
 222 0120 00F0A782 		beq	.L6
 223              		.loc 1 175 3 discriminator 5
 224 0124 3B68     		ldr	r3, [r7]
 225 0126 5B68     		ldr	r3, [r3, #4]
 226 0128 B3F5881F 		cmp	r3, #1114112
 227 012c 00F0A182 		beq	.L6
 228              		.loc 1 175 3 discriminator 6
 229 0130 3B68     		ldr	r3, [r7]
 230 0132 5B68     		ldr	r3, [r3, #4]
 231 0134 B3F5041F 		cmp	r3, #2162688
 232 0138 00F09B82 		beq	.L6
 233              		.loc 1 175 3 discriminator 7
 234 013c 3B68     		ldr	r3, [r7]
 235 013e 5B68     		ldr	r3, [r3, #4]
 236 0140 B3F5441F 		cmp	r3, #3211264
 237 0144 00F09582 		beq	.L6
 238              		.loc 1 175 3 discriminator 8
 239 0148 3B68     		ldr	r3, [r7]
 240 014a 5B68     		ldr	r3, [r3, #4]
 241 014c B3F5901F 		cmp	r3, #1179648
 242 0150 00F08F82 		beq	.L6
 243              		.loc 1 175 3 discriminator 9
 244 0154 3B68     		ldr	r3, [r7]
 245 0156 5B68     		ldr	r3, [r3, #4]
 246 0158 B3F5081F 		cmp	r3, #2228224
 247 015c 00F08982 		beq	.L6
 248              		.loc 1 175 3 discriminator 10
 249 0160 3B68     		ldr	r3, [r7]
 250 0162 5B68     		ldr	r3, [r3, #4]
 251 0164 B3F5481F 		cmp	r3, #3276800
 252 0168 00F08382 		beq	.L6
 253              		.loc 1 175 3 discriminator 11
 254 016c 3B68     		ldr	r3, [r7]
 255 016e 5B68     		ldr	r3, [r3, #4]
 256 0170 032B     		cmp	r3, #3
 257 0172 00F07E82 		beq	.L6
 258              		.loc 1 175 3 discriminator 12
 259 0176 AF21     		movs	r1, #175
 260 0178 1948     		ldr	r0, .L46+96
 261 017a FFF7FEFF 		bl	assert_failed
 176:STM32Cube_FW_N6/Drivers/STM32N6xx_HAL_Driver/Src/stm32n6xx_hal_gpio.c **** 
 177:STM32Cube_FW_N6/Drivers/STM32N6xx_HAL_Driver/Src/stm32n6xx_hal_gpio.c ****   /* Configure the port pins */
 178:STM32Cube_FW_N6/Drivers/STM32N6xx_HAL_Driver/Src/stm32n6xx_hal_gpio.c ****   while (((GPIO_Init->Pin) >> position) != 0x00u)
 262              		.loc 1 178 9 is_stmt 1
 263 017e 78E2     		b	.L6
 264              	.L47:
 265              		.align	2
 266              	.L46:
 267 0180 00000256 		.word	1442971648
 268 0184 00000246 		.word	1174536192
 269 0188 00040256 		.word	1442972672
 270 018c 00040246 		.word	1174537216
 271 0190 00080256 		.word	1442973696
ARM GAS  /tmp/ccEPgY0u.s 			page 9


 272 0194 00080246 		.word	1174538240
 273 0198 000C0256 		.word	1442974720
 274 019c 000C0246 		.word	1174539264
 275 01a0 00100256 		.word	1442975744
 276 01a4 00100246 		.word	1174540288
 277 01a8 00140256 		.word	1442976768
 278 01ac 00140246 		.word	1174541312
 279 01b0 00180256 		.word	1442977792
 280 01b4 00180246 		.word	1174542336
 281 01b8 001C0256 		.word	1442978816
 282 01bc 001C0246 		.word	1174543360
 283 01c0 00340256 		.word	1442984960
 284 01c4 00340246 		.word	1174549504
 285 01c8 00380256 		.word	1442985984
 286 01cc 00380246 		.word	1174550528
 287 01d0 003C0256 		.word	1442987008
 288 01d4 003C0246 		.word	1174551552
 289 01d8 00400256 		.word	1442988032
 290 01dc 00400246 		.word	1174552576
 291 01e0 00000000 		.word	.LC0
 292              	.L45:
 179:STM32Cube_FW_N6/Drivers/STM32N6xx_HAL_Driver/Src/stm32n6xx_hal_gpio.c ****   {
 180:STM32Cube_FW_N6/Drivers/STM32N6xx_HAL_Driver/Src/stm32n6xx_hal_gpio.c ****     /* Get current io position */
 181:STM32Cube_FW_N6/Drivers/STM32N6xx_HAL_Driver/Src/stm32n6xx_hal_gpio.c ****     iocurrent = (GPIO_Init->Pin) & (1uL << position);
 293              		.loc 1 181 27
 294 01e4 3B68     		ldr	r3, [r7]
 295 01e6 1A68     		ldr	r2, [r3]
 296              		.loc 1 181 41
 297 01e8 0121     		movs	r1, #1
 298 01ea 7B69     		ldr	r3, [r7, #20]
 299 01ec 01FA03F3 		lsl	r3, r1, r3
 300              		.loc 1 181 15
 301 01f0 1340     		ands	r3, r3, r2
 302 01f2 FB60     		str	r3, [r7, #12]
 182:STM32Cube_FW_N6/Drivers/STM32N6xx_HAL_Driver/Src/stm32n6xx_hal_gpio.c **** 
 183:STM32Cube_FW_N6/Drivers/STM32N6xx_HAL_Driver/Src/stm32n6xx_hal_gpio.c ****     if (iocurrent != 0x00u)
 303              		.loc 1 183 8
 304 01f4 FB68     		ldr	r3, [r7, #12]
 305 01f6 002B     		cmp	r3, #0
 306 01f8 00F03882 		beq	.L7
 184:STM32Cube_FW_N6/Drivers/STM32N6xx_HAL_Driver/Src/stm32n6xx_hal_gpio.c ****     {
 185:STM32Cube_FW_N6/Drivers/STM32N6xx_HAL_Driver/Src/stm32n6xx_hal_gpio.c ****       /*--------------------- GPIO Mode Configuration ------------------------*/
 186:STM32Cube_FW_N6/Drivers/STM32N6xx_HAL_Driver/Src/stm32n6xx_hal_gpio.c ****       /* In case of Output or Alternate function mode selection */
 187:STM32Cube_FW_N6/Drivers/STM32N6xx_HAL_Driver/Src/stm32n6xx_hal_gpio.c ****       if (((GPIO_Init->Mode & GPIO_MODE) == MODE_OUTPUT) || ((GPIO_Init->Mode & GPIO_MODE) == MODE_
 307              		.loc 1 187 22
 308 01fc 3B68     		ldr	r3, [r7]
 309 01fe 5B68     		ldr	r3, [r3, #4]
 310              		.loc 1 187 29
 311 0200 03F00303 		and	r3, r3, #3
 312              		.loc 1 187 10
 313 0204 012B     		cmp	r3, #1
 314 0206 05D0     		beq	.L8
 315              		.loc 1 187 72 discriminator 1
 316 0208 3B68     		ldr	r3, [r7]
 317 020a 5B68     		ldr	r3, [r3, #4]
 318              		.loc 1 187 79 discriminator 1
 319 020c 03F00303 		and	r3, r3, #3
ARM GAS  /tmp/ccEPgY0u.s 			page 10


 320              		.loc 1 187 58 discriminator 1
 321 0210 022B     		cmp	r3, #2
 322 0212 44D1     		bne	.L9
 323              	.L8:
 188:STM32Cube_FW_N6/Drivers/STM32N6xx_HAL_Driver/Src/stm32n6xx_hal_gpio.c ****       {
 189:STM32Cube_FW_N6/Drivers/STM32N6xx_HAL_Driver/Src/stm32n6xx_hal_gpio.c ****         /* Check the Speed parameter */
 190:STM32Cube_FW_N6/Drivers/STM32N6xx_HAL_Driver/Src/stm32n6xx_hal_gpio.c ****         assert_param(IS_GPIO_SPEED(GPIO_Init->Speed));
 324              		.loc 1 190 9
 325 0214 3B68     		ldr	r3, [r7]
 326 0216 DB68     		ldr	r3, [r3, #12]
 327 0218 002B     		cmp	r3, #0
 328 021a 0FD0     		beq	.L10
 329              		.loc 1 190 9 is_stmt 0 discriminator 1
 330 021c 3B68     		ldr	r3, [r7]
 331 021e DB68     		ldr	r3, [r3, #12]
 332 0220 012B     		cmp	r3, #1
 333 0222 0BD0     		beq	.L10
 334              		.loc 1 190 9 discriminator 2
 335 0224 3B68     		ldr	r3, [r7]
 336 0226 DB68     		ldr	r3, [r3, #12]
 337 0228 022B     		cmp	r3, #2
 338 022a 07D0     		beq	.L10
 339              		.loc 1 190 9 discriminator 3
 340 022c 3B68     		ldr	r3, [r7]
 341 022e DB68     		ldr	r3, [r3, #12]
 342 0230 032B     		cmp	r3, #3
 343 0232 03D0     		beq	.L10
 344              		.loc 1 190 9 discriminator 4
 345 0234 BE21     		movs	r1, #190
 346 0236 9648     		ldr	r0, .L48
 347 0238 FFF7FEFF 		bl	assert_failed
 348              	.L10:
 191:STM32Cube_FW_N6/Drivers/STM32N6xx_HAL_Driver/Src/stm32n6xx_hal_gpio.c **** 
 192:STM32Cube_FW_N6/Drivers/STM32N6xx_HAL_Driver/Src/stm32n6xx_hal_gpio.c ****         /* Configure the IO Speed */
 193:STM32Cube_FW_N6/Drivers/STM32N6xx_HAL_Driver/Src/stm32n6xx_hal_gpio.c ****         temp = GPIOx->OSPEEDR;
 349              		.loc 1 193 14 is_stmt 1
 350 023c 7B68     		ldr	r3, [r7, #4]
 351 023e 9B68     		ldr	r3, [r3, #8]
 352 0240 3B61     		str	r3, [r7, #16]
 194:STM32Cube_FW_N6/Drivers/STM32N6xx_HAL_Driver/Src/stm32n6xx_hal_gpio.c ****         temp &= ~(GPIO_OSPEEDR_OSPEED0 << (position * GPIO_OSPEEDR_OSPEED1_Pos));
 353              		.loc 1 194 53
 354 0242 7B69     		ldr	r3, [r7, #20]
 355 0244 5B00     		lsls	r3, r3, #1
 356              		.loc 1 194 40
 357 0246 0322     		movs	r2, #3
 358 0248 02FA03F3 		lsl	r3, r2, r3
 359              		.loc 1 194 17
 360 024c DB43     		mvns	r3, r3
 361              		.loc 1 194 14
 362 024e 3A69     		ldr	r2, [r7, #16]
 363 0250 1340     		ands	r3, r3, r2
 364 0252 3B61     		str	r3, [r7, #16]
 195:STM32Cube_FW_N6/Drivers/STM32N6xx_HAL_Driver/Src/stm32n6xx_hal_gpio.c ****         temp |= (GPIO_Init->Speed << (position * GPIO_OSPEEDR_OSPEED1_Pos));
 365              		.loc 1 195 27
 366 0254 3B68     		ldr	r3, [r7]
 367 0256 DA68     		ldr	r2, [r3, #12]
 368              		.loc 1 195 48
ARM GAS  /tmp/ccEPgY0u.s 			page 11


 369 0258 7B69     		ldr	r3, [r7, #20]
 370 025a 5B00     		lsls	r3, r3, #1
 371              		.loc 1 195 35
 372 025c 02FA03F3 		lsl	r3, r2, r3
 373              		.loc 1 195 14
 374 0260 3A69     		ldr	r2, [r7, #16]
 375 0262 1343     		orrs	r3, r3, r2
 376 0264 3B61     		str	r3, [r7, #16]
 196:STM32Cube_FW_N6/Drivers/STM32N6xx_HAL_Driver/Src/stm32n6xx_hal_gpio.c ****         GPIOx->OSPEEDR = temp;
 377              		.loc 1 196 24
 378 0266 7B68     		ldr	r3, [r7, #4]
 379 0268 3A69     		ldr	r2, [r7, #16]
 380 026a 9A60     		str	r2, [r3, #8]
 197:STM32Cube_FW_N6/Drivers/STM32N6xx_HAL_Driver/Src/stm32n6xx_hal_gpio.c **** 
 198:STM32Cube_FW_N6/Drivers/STM32N6xx_HAL_Driver/Src/stm32n6xx_hal_gpio.c ****         /* Configure the IO Output Type */
 199:STM32Cube_FW_N6/Drivers/STM32N6xx_HAL_Driver/Src/stm32n6xx_hal_gpio.c ****         temp = GPIOx->OTYPER;
 381              		.loc 1 199 14
 382 026c 7B68     		ldr	r3, [r7, #4]
 383 026e 5B68     		ldr	r3, [r3, #4]
 384 0270 3B61     		str	r3, [r7, #16]
 200:STM32Cube_FW_N6/Drivers/STM32N6xx_HAL_Driver/Src/stm32n6xx_hal_gpio.c ****         temp &= ~(GPIO_OTYPER_OT0 << position) ;
 385              		.loc 1 200 35
 386 0272 0122     		movs	r2, #1
 387 0274 7B69     		ldr	r3, [r7, #20]
 388 0276 02FA03F3 		lsl	r3, r2, r3
 389              		.loc 1 200 17
 390 027a DB43     		mvns	r3, r3
 391              		.loc 1 200 14
 392 027c 3A69     		ldr	r2, [r7, #16]
 393 027e 1340     		ands	r3, r3, r2
 394 0280 3B61     		str	r3, [r7, #16]
 201:STM32Cube_FW_N6/Drivers/STM32N6xx_HAL_Driver/Src/stm32n6xx_hal_gpio.c ****         temp |= (((GPIO_Init->Mode & OUTPUT_TYPE) >> OUTPUT_TYPE_Pos) << position);
 395              		.loc 1 201 29
 396 0282 3B68     		ldr	r3, [r7]
 397 0284 5B68     		ldr	r3, [r3, #4]
 398              		.loc 1 201 51
 399 0286 1B09     		lsrs	r3, r3, #4
 400 0288 03F00102 		and	r2, r3, #1
 401              		.loc 1 201 71
 402 028c 7B69     		ldr	r3, [r7, #20]
 403 028e 02FA03F3 		lsl	r3, r2, r3
 404              		.loc 1 201 14
 405 0292 3A69     		ldr	r2, [r7, #16]
 406 0294 1343     		orrs	r3, r3, r2
 407 0296 3B61     		str	r3, [r7, #16]
 202:STM32Cube_FW_N6/Drivers/STM32N6xx_HAL_Driver/Src/stm32n6xx_hal_gpio.c ****         GPIOx->OTYPER = temp;
 408              		.loc 1 202 23
 409 0298 7B68     		ldr	r3, [r7, #4]
 410 029a 3A69     		ldr	r2, [r7, #16]
 411 029c 5A60     		str	r2, [r3, #4]
 412              	.L9:
 203:STM32Cube_FW_N6/Drivers/STM32N6xx_HAL_Driver/Src/stm32n6xx_hal_gpio.c ****       }
 204:STM32Cube_FW_N6/Drivers/STM32N6xx_HAL_Driver/Src/stm32n6xx_hal_gpio.c **** 
 205:STM32Cube_FW_N6/Drivers/STM32N6xx_HAL_Driver/Src/stm32n6xx_hal_gpio.c ****       if (((GPIO_Init->Mode & GPIO_MODE) != MODE_ANALOG) ||
 413              		.loc 1 205 22
 414 029e 3B68     		ldr	r3, [r7]
 415 02a0 5B68     		ldr	r3, [r3, #4]
ARM GAS  /tmp/ccEPgY0u.s 			page 12


 416              		.loc 1 205 29
 417 02a2 03F00303 		and	r3, r3, #3
 418              		.loc 1 205 10
 419 02a6 032B     		cmp	r3, #3
 420 02a8 09D1     		bne	.L11
 206:STM32Cube_FW_N6/Drivers/STM32N6xx_HAL_Driver/Src/stm32n6xx_hal_gpio.c ****           (((GPIO_Init->Mode & GPIO_MODE) == MODE_ANALOG) && (GPIO_Init->Pull != GPIO_PULLUP)))
 421              		.loc 1 206 23
 422 02aa 3B68     		ldr	r3, [r7]
 423 02ac 5B68     		ldr	r3, [r3, #4]
 424              		.loc 1 206 30
 425 02ae 03F00303 		and	r3, r3, #3
 205:STM32Cube_FW_N6/Drivers/STM32N6xx_HAL_Driver/Src/stm32n6xx_hal_gpio.c ****           (((GPIO_Init->Mode & GPIO_MODE) == MODE_ANALOG) && (GPIO_Init->Pull != GPIO_PULLUP)))
 426              		.loc 1 205 58 discriminator 1
 427 02b2 032B     		cmp	r3, #3
 428 02b4 2BD1     		bne	.L12
 429              		.loc 1 206 72
 430 02b6 3B68     		ldr	r3, [r7]
 431 02b8 9B68     		ldr	r3, [r3, #8]
 432              		.loc 1 206 59
 433 02ba 012B     		cmp	r3, #1
 434 02bc 27D0     		beq	.L12
 435              	.L11:
 207:STM32Cube_FW_N6/Drivers/STM32N6xx_HAL_Driver/Src/stm32n6xx_hal_gpio.c ****       {
 208:STM32Cube_FW_N6/Drivers/STM32N6xx_HAL_Driver/Src/stm32n6xx_hal_gpio.c ****         /* Check the Pull parameter */
 209:STM32Cube_FW_N6/Drivers/STM32N6xx_HAL_Driver/Src/stm32n6xx_hal_gpio.c ****         assert_param(IS_GPIO_PULL(GPIO_Init->Pull));
 436              		.loc 1 209 9
 437 02be 3B68     		ldr	r3, [r7]
 438 02c0 9B68     		ldr	r3, [r3, #8]
 439 02c2 002B     		cmp	r3, #0
 440 02c4 0BD0     		beq	.L13
 441              		.loc 1 209 9 is_stmt 0 discriminator 1
 442 02c6 3B68     		ldr	r3, [r7]
 443 02c8 9B68     		ldr	r3, [r3, #8]
 444 02ca 012B     		cmp	r3, #1
 445 02cc 07D0     		beq	.L13
 446              		.loc 1 209 9 discriminator 2
 447 02ce 3B68     		ldr	r3, [r7]
 448 02d0 9B68     		ldr	r3, [r3, #8]
 449 02d2 022B     		cmp	r3, #2
 450 02d4 03D0     		beq	.L13
 451              		.loc 1 209 9 discriminator 3
 452 02d6 D121     		movs	r1, #209
 453 02d8 6D48     		ldr	r0, .L48
 454 02da FFF7FEFF 		bl	assert_failed
 455              	.L13:
 210:STM32Cube_FW_N6/Drivers/STM32N6xx_HAL_Driver/Src/stm32n6xx_hal_gpio.c **** 
 211:STM32Cube_FW_N6/Drivers/STM32N6xx_HAL_Driver/Src/stm32n6xx_hal_gpio.c ****         /* Activate the Pull-up or Pull down resistor for the current IO */
 212:STM32Cube_FW_N6/Drivers/STM32N6xx_HAL_Driver/Src/stm32n6xx_hal_gpio.c ****         temp = GPIOx->PUPDR;
 456              		.loc 1 212 14 is_stmt 1
 457 02de 7B68     		ldr	r3, [r7, #4]
 458 02e0 DB68     		ldr	r3, [r3, #12]
 459 02e2 3B61     		str	r3, [r7, #16]
 213:STM32Cube_FW_N6/Drivers/STM32N6xx_HAL_Driver/Src/stm32n6xx_hal_gpio.c ****         temp &= ~(GPIO_PUPDR_PUPD0 << (position * GPIO_PUPDR_PUPD1_Pos));
 460              		.loc 1 213 49
 461 02e4 7B69     		ldr	r3, [r7, #20]
 462 02e6 5B00     		lsls	r3, r3, #1
 463              		.loc 1 213 36
ARM GAS  /tmp/ccEPgY0u.s 			page 13


 464 02e8 0322     		movs	r2, #3
 465 02ea 02FA03F3 		lsl	r3, r2, r3
 466              		.loc 1 213 17
 467 02ee DB43     		mvns	r3, r3
 468              		.loc 1 213 14
 469 02f0 3A69     		ldr	r2, [r7, #16]
 470 02f2 1340     		ands	r3, r3, r2
 471 02f4 3B61     		str	r3, [r7, #16]
 214:STM32Cube_FW_N6/Drivers/STM32N6xx_HAL_Driver/Src/stm32n6xx_hal_gpio.c ****         temp |= ((GPIO_Init->Pull) << (position * GPIO_PUPDR_PUPD1_Pos));
 472              		.loc 1 214 28
 473 02f6 3B68     		ldr	r3, [r7]
 474 02f8 9A68     		ldr	r2, [r3, #8]
 475              		.loc 1 214 49
 476 02fa 7B69     		ldr	r3, [r7, #20]
 477 02fc 5B00     		lsls	r3, r3, #1
 478              		.loc 1 214 36
 479 02fe 02FA03F3 		lsl	r3, r2, r3
 480              		.loc 1 214 14
 481 0302 3A69     		ldr	r2, [r7, #16]
 482 0304 1343     		orrs	r3, r3, r2
 483 0306 3B61     		str	r3, [r7, #16]
 215:STM32Cube_FW_N6/Drivers/STM32N6xx_HAL_Driver/Src/stm32n6xx_hal_gpio.c ****         GPIOx->PUPDR = temp;
 484              		.loc 1 215 22
 485 0308 7B68     		ldr	r3, [r7, #4]
 486 030a 3A69     		ldr	r2, [r7, #16]
 487 030c DA60     		str	r2, [r3, #12]
 488              	.L12:
 216:STM32Cube_FW_N6/Drivers/STM32N6xx_HAL_Driver/Src/stm32n6xx_hal_gpio.c ****       }
 217:STM32Cube_FW_N6/Drivers/STM32N6xx_HAL_Driver/Src/stm32n6xx_hal_gpio.c **** 
 218:STM32Cube_FW_N6/Drivers/STM32N6xx_HAL_Driver/Src/stm32n6xx_hal_gpio.c ****       /* In case of Alternate function mode selection */
 219:STM32Cube_FW_N6/Drivers/STM32N6xx_HAL_Driver/Src/stm32n6xx_hal_gpio.c ****       if ((GPIO_Init->Mode & GPIO_MODE) == MODE_AF)
 489              		.loc 1 219 21
 490 030e 3B68     		ldr	r3, [r7]
 491 0310 5B68     		ldr	r3, [r3, #4]
 492              		.loc 1 219 28
 493 0312 03F00303 		and	r3, r3, #3
 494              		.loc 1 219 10
 495 0316 022B     		cmp	r3, #2
 496 0318 40F09080 		bne	.L14
 220:STM32Cube_FW_N6/Drivers/STM32N6xx_HAL_Driver/Src/stm32n6xx_hal_gpio.c ****       {
 221:STM32Cube_FW_N6/Drivers/STM32N6xx_HAL_Driver/Src/stm32n6xx_hal_gpio.c ****         /* Check the Alternate function parameters */
 222:STM32Cube_FW_N6/Drivers/STM32N6xx_HAL_Driver/Src/stm32n6xx_hal_gpio.c ****         assert_param(IS_GPIO_AF_INSTANCE(GPIOx));
 497              		.loc 1 222 9
 498 031c 7B68     		ldr	r3, [r7, #4]
 499 031e 5D4A     		ldr	r2, .L48+4
 500 0320 9342     		cmp	r3, r2
 501 0322 5FD0     		beq	.L15
 502              		.loc 1 222 9 is_stmt 0 discriminator 1
 503 0324 7B68     		ldr	r3, [r7, #4]
 504 0326 5C4A     		ldr	r2, .L48+8
 505 0328 9342     		cmp	r3, r2
 506 032a 5BD0     		beq	.L15
 507              		.loc 1 222 9 discriminator 2
 508 032c 7B68     		ldr	r3, [r7, #4]
 509 032e 5B4A     		ldr	r2, .L48+12
 510 0330 9342     		cmp	r3, r2
 511 0332 57D0     		beq	.L15
ARM GAS  /tmp/ccEPgY0u.s 			page 14


 512              		.loc 1 222 9 discriminator 3
 513 0334 7B68     		ldr	r3, [r7, #4]
 514 0336 5A4A     		ldr	r2, .L48+16
 515 0338 9342     		cmp	r3, r2
 516 033a 53D0     		beq	.L15
 517              		.loc 1 222 9 discriminator 4
 518 033c 7B68     		ldr	r3, [r7, #4]
 519 033e 594A     		ldr	r2, .L48+20
 520 0340 9342     		cmp	r3, r2
 521 0342 4FD0     		beq	.L15
 522              		.loc 1 222 9 discriminator 5
 523 0344 7B68     		ldr	r3, [r7, #4]
 524 0346 584A     		ldr	r2, .L48+24
 525 0348 9342     		cmp	r3, r2
 526 034a 4BD0     		beq	.L15
 527              		.loc 1 222 9 discriminator 6
 528 034c 7B68     		ldr	r3, [r7, #4]
 529 034e 574A     		ldr	r2, .L48+28
 530 0350 9342     		cmp	r3, r2
 531 0352 47D0     		beq	.L15
 532              		.loc 1 222 9 discriminator 7
 533 0354 7B68     		ldr	r3, [r7, #4]
 534 0356 564A     		ldr	r2, .L48+32
 535 0358 9342     		cmp	r3, r2
 536 035a 43D0     		beq	.L15
 537              		.loc 1 222 9 discriminator 8
 538 035c 7B68     		ldr	r3, [r7, #4]
 539 035e 554A     		ldr	r2, .L48+36
 540 0360 9342     		cmp	r3, r2
 541 0362 3FD0     		beq	.L15
 542              		.loc 1 222 9 discriminator 9
 543 0364 7B68     		ldr	r3, [r7, #4]
 544 0366 544A     		ldr	r2, .L48+40
 545 0368 9342     		cmp	r3, r2
 546 036a 3BD0     		beq	.L15
 547              		.loc 1 222 9 discriminator 10
 548 036c 7B68     		ldr	r3, [r7, #4]
 549 036e 534A     		ldr	r2, .L48+44
 550 0370 9342     		cmp	r3, r2
 551 0372 37D0     		beq	.L15
 552              		.loc 1 222 9 discriminator 11
 553 0374 7B68     		ldr	r3, [r7, #4]
 554 0376 524A     		ldr	r2, .L48+48
 555 0378 9342     		cmp	r3, r2
 556 037a 33D0     		beq	.L15
 557              		.loc 1 222 9 discriminator 12
 558 037c 7B68     		ldr	r3, [r7, #4]
 559 037e 514A     		ldr	r2, .L48+52
 560 0380 9342     		cmp	r3, r2
 561 0382 2FD0     		beq	.L15
 562              		.loc 1 222 9 discriminator 13
 563 0384 7B68     		ldr	r3, [r7, #4]
 564 0386 504A     		ldr	r2, .L48+56
 565 0388 9342     		cmp	r3, r2
 566 038a 2BD0     		beq	.L15
 567              		.loc 1 222 9 discriminator 14
 568 038c 7B68     		ldr	r3, [r7, #4]
ARM GAS  /tmp/ccEPgY0u.s 			page 15


 569 038e 4F4A     		ldr	r2, .L48+60
 570 0390 9342     		cmp	r3, r2
 571 0392 27D0     		beq	.L15
 572              		.loc 1 222 9 discriminator 15
 573 0394 7B68     		ldr	r3, [r7, #4]
 574 0396 4E4A     		ldr	r2, .L48+64
 575 0398 9342     		cmp	r3, r2
 576 039a 23D0     		beq	.L15
 577              		.loc 1 222 9 discriminator 16
 578 039c 7B68     		ldr	r3, [r7, #4]
 579 039e 4D4A     		ldr	r2, .L48+68
 580 03a0 9342     		cmp	r3, r2
 581 03a2 1FD0     		beq	.L15
 582              		.loc 1 222 9 discriminator 17
 583 03a4 7B68     		ldr	r3, [r7, #4]
 584 03a6 4C4A     		ldr	r2, .L48+72
 585 03a8 9342     		cmp	r3, r2
 586 03aa 1BD0     		beq	.L15
 587              		.loc 1 222 9 discriminator 18
 588 03ac 7B68     		ldr	r3, [r7, #4]
 589 03ae 4B4A     		ldr	r2, .L48+76
 590 03b0 9342     		cmp	r3, r2
 591 03b2 17D0     		beq	.L15
 592              		.loc 1 222 9 discriminator 19
 593 03b4 7B68     		ldr	r3, [r7, #4]
 594 03b6 4A4A     		ldr	r2, .L48+80
 595 03b8 9342     		cmp	r3, r2
 596 03ba 13D0     		beq	.L15
 597              		.loc 1 222 9 discriminator 20
 598 03bc 7B68     		ldr	r3, [r7, #4]
 599 03be 494A     		ldr	r2, .L48+84
 600 03c0 9342     		cmp	r3, r2
 601 03c2 0FD0     		beq	.L15
 602              		.loc 1 222 9 discriminator 21
 603 03c4 7B68     		ldr	r3, [r7, #4]
 604 03c6 484A     		ldr	r2, .L48+88
 605 03c8 9342     		cmp	r3, r2
 606 03ca 0BD0     		beq	.L15
 607              		.loc 1 222 9 discriminator 22
 608 03cc 7B68     		ldr	r3, [r7, #4]
 609 03ce 474A     		ldr	r2, .L48+92
 610 03d0 9342     		cmp	r3, r2
 611 03d2 07D0     		beq	.L15
 612              		.loc 1 222 9 discriminator 23
 613 03d4 7B68     		ldr	r3, [r7, #4]
 614 03d6 464A     		ldr	r2, .L48+96
 615 03d8 9342     		cmp	r3, r2
 616 03da 03D0     		beq	.L15
 617              		.loc 1 222 9 discriminator 24
 618 03dc DE21     		movs	r1, #222
 619 03de 2C48     		ldr	r0, .L48
 620 03e0 FFF7FEFF 		bl	assert_failed
 621              	.L15:
 223:STM32Cube_FW_N6/Drivers/STM32N6xx_HAL_Driver/Src/stm32n6xx_hal_gpio.c ****         assert_param(IS_GPIO_AF(GPIO_Init->Alternate));
 622              		.loc 1 223 9 is_stmt 1
 623 03e4 3B68     		ldr	r3, [r7]
 624 03e6 1B69     		ldr	r3, [r3, #16]
ARM GAS  /tmp/ccEPgY0u.s 			page 16


 625 03e8 0F2B     		cmp	r3, #15
 626 03ea 03D9     		bls	.L16
 627              		.loc 1 223 9 is_stmt 0 discriminator 1
 628 03ec DF21     		movs	r1, #223
 629 03ee 2848     		ldr	r0, .L48
 630 03f0 FFF7FEFF 		bl	assert_failed
 631              	.L16:
 224:STM32Cube_FW_N6/Drivers/STM32N6xx_HAL_Driver/Src/stm32n6xx_hal_gpio.c **** 
 225:STM32Cube_FW_N6/Drivers/STM32N6xx_HAL_Driver/Src/stm32n6xx_hal_gpio.c ****         /* Configure Alternate function mapped with the current IO */
 226:STM32Cube_FW_N6/Drivers/STM32N6xx_HAL_Driver/Src/stm32n6xx_hal_gpio.c ****         temp = GPIOx->AFR[position >> 3u];
 632              		.loc 1 226 36 is_stmt 1
 633 03f4 7B69     		ldr	r3, [r7, #20]
 634 03f6 DA08     		lsrs	r2, r3, #3
 635              		.loc 1 226 14
 636 03f8 7B68     		ldr	r3, [r7, #4]
 637 03fa 0832     		adds	r2, r2, #8
 638 03fc 53F82230 		ldr	r3, [r3, r2, lsl #2]
 639 0400 3B61     		str	r3, [r7, #16]
 227:STM32Cube_FW_N6/Drivers/STM32N6xx_HAL_Driver/Src/stm32n6xx_hal_gpio.c ****         temp &= ~(0xFu << ((position & 0x07u) * GPIO_AFRL_AFSEL1_Pos));
 640              		.loc 1 227 38
 641 0402 7B69     		ldr	r3, [r7, #20]
 642 0404 03F00703 		and	r3, r3, #7
 643              		.loc 1 227 47
 644 0408 9B00     		lsls	r3, r3, #2
 645              		.loc 1 227 24
 646 040a 0F22     		movs	r2, #15
 647 040c 02FA03F3 		lsl	r3, r2, r3
 648              		.loc 1 227 17
 649 0410 DB43     		mvns	r3, r3
 650              		.loc 1 227 14
 651 0412 3A69     		ldr	r2, [r7, #16]
 652 0414 1340     		ands	r3, r3, r2
 653 0416 3B61     		str	r3, [r7, #16]
 228:STM32Cube_FW_N6/Drivers/STM32N6xx_HAL_Driver/Src/stm32n6xx_hal_gpio.c ****         temp |= ((GPIO_Init->Alternate) << ((position & 0x07u) * GPIO_AFRL_AFSEL1_Pos));
 654              		.loc 1 228 28
 655 0418 3B68     		ldr	r3, [r7]
 656 041a 1A69     		ldr	r2, [r3, #16]
 657              		.loc 1 228 55
 658 041c 7B69     		ldr	r3, [r7, #20]
 659 041e 03F00703 		and	r3, r3, #7
 660              		.loc 1 228 64
 661 0422 9B00     		lsls	r3, r3, #2
 662              		.loc 1 228 41
 663 0424 02FA03F3 		lsl	r3, r2, r3
 664              		.loc 1 228 14
 665 0428 3A69     		ldr	r2, [r7, #16]
 666 042a 1343     		orrs	r3, r3, r2
 667 042c 3B61     		str	r3, [r7, #16]
 229:STM32Cube_FW_N6/Drivers/STM32N6xx_HAL_Driver/Src/stm32n6xx_hal_gpio.c ****         GPIOx->AFR[position >> 3u] = temp;
 668              		.loc 1 229 29
 669 042e 7B69     		ldr	r3, [r7, #20]
 670 0430 DA08     		lsrs	r2, r3, #3
 671              		.loc 1 229 36
 672 0432 7B68     		ldr	r3, [r7, #4]
 673 0434 0832     		adds	r2, r2, #8
 674 0436 3969     		ldr	r1, [r7, #16]
 675 0438 43F82210 		str	r1, [r3, r2, lsl #2]
ARM GAS  /tmp/ccEPgY0u.s 			page 17


 676              	.L14:
 230:STM32Cube_FW_N6/Drivers/STM32N6xx_HAL_Driver/Src/stm32n6xx_hal_gpio.c ****       }
 231:STM32Cube_FW_N6/Drivers/STM32N6xx_HAL_Driver/Src/stm32n6xx_hal_gpio.c **** 
 232:STM32Cube_FW_N6/Drivers/STM32N6xx_HAL_Driver/Src/stm32n6xx_hal_gpio.c ****       /* Configure IO Direction mode (Input, Output, Alternate or Analog) */
 233:STM32Cube_FW_N6/Drivers/STM32N6xx_HAL_Driver/Src/stm32n6xx_hal_gpio.c ****       temp = GPIOx->MODER;
 677              		.loc 1 233 12
 678 043c 7B68     		ldr	r3, [r7, #4]
 679 043e 1B68     		ldr	r3, [r3]
 680 0440 3B61     		str	r3, [r7, #16]
 234:STM32Cube_FW_N6/Drivers/STM32N6xx_HAL_Driver/Src/stm32n6xx_hal_gpio.c ****       temp &= ~(GPIO_MODER_MODE0 << (position * GPIO_MODER_MODE1_Pos));
 681              		.loc 1 234 47
 682 0442 7B69     		ldr	r3, [r7, #20]
 683 0444 5B00     		lsls	r3, r3, #1
 684              		.loc 1 234 34
 685 0446 0322     		movs	r2, #3
 686 0448 02FA03F3 		lsl	r3, r2, r3
 687              		.loc 1 234 15
 688 044c DB43     		mvns	r3, r3
 689              		.loc 1 234 12
 690 044e 3A69     		ldr	r2, [r7, #16]
 691 0450 1340     		ands	r3, r3, r2
 692 0452 3B61     		str	r3, [r7, #16]
 235:STM32Cube_FW_N6/Drivers/STM32N6xx_HAL_Driver/Src/stm32n6xx_hal_gpio.c ****       temp |= ((GPIO_Init->Mode & GPIO_MODE) << (position * GPIO_MODER_MODE1_Pos));
 693              		.loc 1 235 26
 694 0454 3B68     		ldr	r3, [r7]
 695 0456 5B68     		ldr	r3, [r3, #4]
 696              		.loc 1 235 33
 697 0458 03F00302 		and	r2, r3, #3
 698              		.loc 1 235 59
 699 045c 7B69     		ldr	r3, [r7, #20]
 700 045e 5B00     		lsls	r3, r3, #1
 701              		.loc 1 235 46
 702 0460 02FA03F3 		lsl	r3, r2, r3
 703              		.loc 1 235 12
 704 0464 3A69     		ldr	r2, [r7, #16]
 705 0466 1343     		orrs	r3, r3, r2
 706 0468 3B61     		str	r3, [r7, #16]
 236:STM32Cube_FW_N6/Drivers/STM32N6xx_HAL_Driver/Src/stm32n6xx_hal_gpio.c ****       GPIOx->MODER = temp;
 707              		.loc 1 236 20
 708 046a 7B68     		ldr	r3, [r7, #4]
 709 046c 3A69     		ldr	r2, [r7, #16]
 710 046e 1A60     		str	r2, [r3]
 237:STM32Cube_FW_N6/Drivers/STM32N6xx_HAL_Driver/Src/stm32n6xx_hal_gpio.c **** 
 238:STM32Cube_FW_N6/Drivers/STM32N6xx_HAL_Driver/Src/stm32n6xx_hal_gpio.c ****       /*--------------------- EXTI Mode Configuration ------------------------*/
 239:STM32Cube_FW_N6/Drivers/STM32N6xx_HAL_Driver/Src/stm32n6xx_hal_gpio.c ****       /* Configure the External Interrupt or event for the current IO */
 240:STM32Cube_FW_N6/Drivers/STM32N6xx_HAL_Driver/Src/stm32n6xx_hal_gpio.c ****       if ((GPIO_Init->Mode & EXTI_MODE) != 0x00u)
 711              		.loc 1 240 21
 712 0470 3B68     		ldr	r3, [r7]
 713 0472 5B68     		ldr	r3, [r3, #4]
 714              		.loc 1 240 28
 715 0474 03F44033 		and	r3, r3, #196608
 716              		.loc 1 240 10
 717 0478 002B     		cmp	r3, #0
 718 047a 00F0F780 		beq	.L7
 241:STM32Cube_FW_N6/Drivers/STM32N6xx_HAL_Driver/Src/stm32n6xx_hal_gpio.c ****       {
 242:STM32Cube_FW_N6/Drivers/STM32N6xx_HAL_Driver/Src/stm32n6xx_hal_gpio.c ****         temp = EXTI->EXTICR[position >> 2u];
 719              		.loc 1 242 20
ARM GAS  /tmp/ccEPgY0u.s 			page 18


 720 047e 1D4A     		ldr	r2, .L48+100
 721              		.loc 1 242 38
 722 0480 7B69     		ldr	r3, [r7, #20]
 723 0482 9B08     		lsrs	r3, r3, #2
 724              		.loc 1 242 14
 725 0484 1833     		adds	r3, r3, #24
 726 0486 52F82330 		ldr	r3, [r2, r3, lsl #2]
 727 048a 3B61     		str	r3, [r7, #16]
 243:STM32Cube_FW_N6/Drivers/STM32N6xx_HAL_Driver/Src/stm32n6xx_hal_gpio.c ****         temp &= ~(0x0FuL << ((position & 0x03u) * EXTI_EXTICR1_EXTI1_Pos));
 728              		.loc 1 243 40
 729 048c 7B69     		ldr	r3, [r7, #20]
 730 048e 33E0     		b	.L49
 731              	.L50:
 732              		.align	2
 733              	.L48:
 734 0490 00000000 		.word	.LC0
 735 0494 00000256 		.word	1442971648
 736 0498 00000246 		.word	1174536192
 737 049c 00040256 		.word	1442972672
 738 04a0 00040246 		.word	1174537216
 739 04a4 00080256 		.word	1442973696
 740 04a8 00080246 		.word	1174538240
 741 04ac 000C0256 		.word	1442974720
 742 04b0 000C0246 		.word	1174539264
 743 04b4 00100256 		.word	1442975744
 744 04b8 00100246 		.word	1174540288
 745 04bc 00140256 		.word	1442976768
 746 04c0 00140246 		.word	1174541312
 747 04c4 00180256 		.word	1442977792
 748 04c8 00180246 		.word	1174542336
 749 04cc 001C0256 		.word	1442978816
 750 04d0 001C0246 		.word	1174543360
 751 04d4 00340256 		.word	1442984960
 752 04d8 00340246 		.word	1174549504
 753 04dc 00380256 		.word	1442985984
 754 04e0 00380246 		.word	1174550528
 755 04e4 003C0256 		.word	1442987008
 756 04e8 003C0246 		.word	1174551552
 757 04ec 00400256 		.word	1442988032
 758 04f0 00400246 		.word	1174552576
 759 04f4 00500256 		.word	1442992128
 760              	.L49:
 761 04f8 03F00303 		and	r3, r3, #3
 762              		.loc 1 243 49
 763 04fc DB00     		lsls	r3, r3, #3
 764              		.loc 1 243 26
 765 04fe 0F22     		movs	r2, #15
 766 0500 02FA03F3 		lsl	r3, r2, r3
 767              		.loc 1 243 17
 768 0504 DB43     		mvns	r3, r3
 769              		.loc 1 243 14
 770 0506 3A69     		ldr	r2, [r7, #16]
 771 0508 1340     		ands	r3, r3, r2
 772 050a 3B61     		str	r3, [r7, #16]
 244:STM32Cube_FW_N6/Drivers/STM32N6xx_HAL_Driver/Src/stm32n6xx_hal_gpio.c ****         temp |= (GPIO_GET_INDEX(GPIOx) << ((position & 0x03u) * EXTI_EXTICR1_EXTI1_Pos));
 773              		.loc 1 244 18
 774 050c 7B68     		ldr	r3, [r7, #4]
ARM GAS  /tmp/ccEPgY0u.s 			page 19


 775 050e 5F4A     		ldr	r2, .L51
 776 0510 9342     		cmp	r3, r2
 777 0512 43D0     		beq	.L17
 778              		.loc 1 244 18 is_stmt 0 discriminator 1
 779 0514 7B68     		ldr	r3, [r7, #4]
 780 0516 5E4A     		ldr	r2, .L51+4
 781 0518 9342     		cmp	r3, r2
 782 051a 3DD0     		beq	.L18
 783              		.loc 1 244 18 discriminator 3
 784 051c 7B68     		ldr	r3, [r7, #4]
 785 051e 5D4A     		ldr	r2, .L51+8
 786 0520 9342     		cmp	r3, r2
 787 0522 37D0     		beq	.L19
 788              		.loc 1 244 18 discriminator 5
 789 0524 7B68     		ldr	r3, [r7, #4]
 790 0526 5C4A     		ldr	r2, .L51+12
 791 0528 9342     		cmp	r3, r2
 792 052a 31D0     		beq	.L20
 793              		.loc 1 244 18 discriminator 7
 794 052c 7B68     		ldr	r3, [r7, #4]
 795 052e 5B4A     		ldr	r2, .L51+16
 796 0530 9342     		cmp	r3, r2
 797 0532 2BD0     		beq	.L21
 798              		.loc 1 244 18 discriminator 9
 799 0534 7B68     		ldr	r3, [r7, #4]
 800 0536 5A4A     		ldr	r2, .L51+20
 801 0538 9342     		cmp	r3, r2
 802 053a 25D0     		beq	.L22
 803              		.loc 1 244 18 discriminator 11
 804 053c 7B68     		ldr	r3, [r7, #4]
 805 053e 594A     		ldr	r2, .L51+24
 806 0540 9342     		cmp	r3, r2
 807 0542 1FD0     		beq	.L23
 808              		.loc 1 244 18 discriminator 13
 809 0544 7B68     		ldr	r3, [r7, #4]
 810 0546 584A     		ldr	r2, .L51+28
 811 0548 9342     		cmp	r3, r2
 812 054a 19D0     		beq	.L24
 813              		.loc 1 244 18 discriminator 15
 814 054c 7B68     		ldr	r3, [r7, #4]
 815 054e 574A     		ldr	r2, .L51+32
 816 0550 9342     		cmp	r3, r2
 817 0552 13D0     		beq	.L25
 818              		.loc 1 244 18 discriminator 17
 819 0554 7B68     		ldr	r3, [r7, #4]
 820 0556 564A     		ldr	r2, .L51+36
 821 0558 9342     		cmp	r3, r2
 822 055a 0DD0     		beq	.L26
 823              		.loc 1 244 18 discriminator 19
 824 055c 7B68     		ldr	r3, [r7, #4]
 825 055e 554A     		ldr	r2, .L51+40
 826 0560 9342     		cmp	r3, r2
 827 0562 07D0     		beq	.L27
 828              		.loc 1 244 18 discriminator 21
 829 0564 7B68     		ldr	r3, [r7, #4]
 830 0566 544A     		ldr	r2, .L51+44
 831 0568 9342     		cmp	r3, r2
ARM GAS  /tmp/ccEPgY0u.s 			page 20


 832 056a 01D1     		bne	.L28
 833              		.loc 1 244 18 discriminator 23
 834 056c 0B23     		movs	r3, #11
 835 056e 16E0     		b	.L40
 836              	.L28:
 837              		.loc 1 244 18 discriminator 24
 838 0570 1023     		movs	r3, #16
 839 0572 14E0     		b	.L40
 840              	.L27:
 841              		.loc 1 244 18 discriminator 22
 842 0574 0A23     		movs	r3, #10
 843 0576 12E0     		b	.L40
 844              	.L26:
 845              		.loc 1 244 18 discriminator 20
 846 0578 0923     		movs	r3, #9
 847 057a 10E0     		b	.L40
 848              	.L25:
 849              		.loc 1 244 18 discriminator 18
 850 057c 0823     		movs	r3, #8
 851 057e 0EE0     		b	.L40
 852              	.L24:
 853              		.loc 1 244 18 discriminator 16
 854 0580 0723     		movs	r3, #7
 855 0582 0CE0     		b	.L40
 856              	.L23:
 857              		.loc 1 244 18 discriminator 14
 858 0584 0623     		movs	r3, #6
 859 0586 0AE0     		b	.L40
 860              	.L22:
 861              		.loc 1 244 18 discriminator 12
 862 0588 0523     		movs	r3, #5
 863 058a 08E0     		b	.L40
 864              	.L21:
 865              		.loc 1 244 18 discriminator 10
 866 058c 0423     		movs	r3, #4
 867 058e 06E0     		b	.L40
 868              	.L20:
 869              		.loc 1 244 18 discriminator 8
 870 0590 0323     		movs	r3, #3
 871 0592 04E0     		b	.L40
 872              	.L19:
 873              		.loc 1 244 18 discriminator 6
 874 0594 0223     		movs	r3, #2
 875 0596 02E0     		b	.L40
 876              	.L18:
 877              		.loc 1 244 18 discriminator 4
 878 0598 0123     		movs	r3, #1
 879 059a 00E0     		b	.L40
 880              	.L17:
 881              		.loc 1 244 18 discriminator 2
 882 059c 0023     		movs	r3, #0
 883              	.L40:
 884              		.loc 1 244 54 is_stmt 1 discriminator 48
 885 059e 7A69     		ldr	r2, [r7, #20]
 886 05a0 02F00302 		and	r2, r2, #3
 887              		.loc 1 244 63 discriminator 48
 888 05a4 D200     		lsls	r2, r2, #3
ARM GAS  /tmp/ccEPgY0u.s 			page 21


 889              		.loc 1 244 40 discriminator 48
 890 05a6 9340     		lsls	r3, r3, r2
 891              		.loc 1 244 14 discriminator 48
 892 05a8 3A69     		ldr	r2, [r7, #16]
 893 05aa 1343     		orrs	r3, r3, r2
 894 05ac 3B61     		str	r3, [r7, #16]
 245:STM32Cube_FW_N6/Drivers/STM32N6xx_HAL_Driver/Src/stm32n6xx_hal_gpio.c ****         EXTI->EXTICR[position >> 2u] = temp;
 895              		.loc 1 245 13
 896 05ae 4349     		ldr	r1, .L51+48
 897              		.loc 1 245 31
 898 05b0 7B69     		ldr	r3, [r7, #20]
 899 05b2 9B08     		lsrs	r3, r3, #2
 900              		.loc 1 245 38
 901 05b4 1833     		adds	r3, r3, #24
 902 05b6 3A69     		ldr	r2, [r7, #16]
 903 05b8 41F82320 		str	r2, [r1, r3, lsl #2]
 246:STM32Cube_FW_N6/Drivers/STM32N6xx_HAL_Driver/Src/stm32n6xx_hal_gpio.c **** 
 247:STM32Cube_FW_N6/Drivers/STM32N6xx_HAL_Driver/Src/stm32n6xx_hal_gpio.c ****         /* Clear EXTI line configuration */
 248:STM32Cube_FW_N6/Drivers/STM32N6xx_HAL_Driver/Src/stm32n6xx_hal_gpio.c ****         temp = EXTI->IMR1;
 904              		.loc 1 248 20
 905 05bc 3F4B     		ldr	r3, .L51+48
 906              		.loc 1 248 14
 907 05be D3F88030 		ldr	r3, [r3, #128]
 908 05c2 3B61     		str	r3, [r7, #16]
 249:STM32Cube_FW_N6/Drivers/STM32N6xx_HAL_Driver/Src/stm32n6xx_hal_gpio.c ****         temp &= ~(iocurrent);
 909              		.loc 1 249 17
 910 05c4 FB68     		ldr	r3, [r7, #12]
 911 05c6 DB43     		mvns	r3, r3
 912              		.loc 1 249 14
 913 05c8 3A69     		ldr	r2, [r7, #16]
 914 05ca 1340     		ands	r3, r3, r2
 915 05cc 3B61     		str	r3, [r7, #16]
 250:STM32Cube_FW_N6/Drivers/STM32N6xx_HAL_Driver/Src/stm32n6xx_hal_gpio.c ****         if ((GPIO_Init->Mode & EXTI_IT) != 0x00u)
 916              		.loc 1 250 23
 917 05ce 3B68     		ldr	r3, [r7]
 918 05d0 5B68     		ldr	r3, [r3, #4]
 919              		.loc 1 250 30
 920 05d2 03F48033 		and	r3, r3, #65536
 921              		.loc 1 250 12
 922 05d6 002B     		cmp	r3, #0
 923 05d8 03D0     		beq	.L41
 251:STM32Cube_FW_N6/Drivers/STM32N6xx_HAL_Driver/Src/stm32n6xx_hal_gpio.c ****         {
 252:STM32Cube_FW_N6/Drivers/STM32N6xx_HAL_Driver/Src/stm32n6xx_hal_gpio.c ****           temp |= iocurrent;
 924              		.loc 1 252 16
 925 05da 3A69     		ldr	r2, [r7, #16]
 926 05dc FB68     		ldr	r3, [r7, #12]
 927 05de 1343     		orrs	r3, r3, r2
 928 05e0 3B61     		str	r3, [r7, #16]
 929              	.L41:
 253:STM32Cube_FW_N6/Drivers/STM32N6xx_HAL_Driver/Src/stm32n6xx_hal_gpio.c ****         }
 254:STM32Cube_FW_N6/Drivers/STM32N6xx_HAL_Driver/Src/stm32n6xx_hal_gpio.c ****         EXTI->IMR1 = temp;
 930              		.loc 1 254 13
 931 05e2 364A     		ldr	r2, .L51+48
 932              		.loc 1 254 20
 933 05e4 3B69     		ldr	r3, [r7, #16]
 934 05e6 C2F88030 		str	r3, [r2, #128]
 255:STM32Cube_FW_N6/Drivers/STM32N6xx_HAL_Driver/Src/stm32n6xx_hal_gpio.c **** 
ARM GAS  /tmp/ccEPgY0u.s 			page 22


 256:STM32Cube_FW_N6/Drivers/STM32N6xx_HAL_Driver/Src/stm32n6xx_hal_gpio.c ****         temp = EXTI->EMR1;
 935              		.loc 1 256 20
 936 05ea 344B     		ldr	r3, .L51+48
 937              		.loc 1 256 14
 938 05ec D3F88430 		ldr	r3, [r3, #132]
 939 05f0 3B61     		str	r3, [r7, #16]
 257:STM32Cube_FW_N6/Drivers/STM32N6xx_HAL_Driver/Src/stm32n6xx_hal_gpio.c ****         temp &= ~(iocurrent);
 940              		.loc 1 257 17
 941 05f2 FB68     		ldr	r3, [r7, #12]
 942 05f4 DB43     		mvns	r3, r3
 943              		.loc 1 257 14
 944 05f6 3A69     		ldr	r2, [r7, #16]
 945 05f8 1340     		ands	r3, r3, r2
 946 05fa 3B61     		str	r3, [r7, #16]
 258:STM32Cube_FW_N6/Drivers/STM32N6xx_HAL_Driver/Src/stm32n6xx_hal_gpio.c ****         if ((GPIO_Init->Mode & EXTI_EVT) != 0x00u)
 947              		.loc 1 258 23
 948 05fc 3B68     		ldr	r3, [r7]
 949 05fe 5B68     		ldr	r3, [r3, #4]
 950              		.loc 1 258 30
 951 0600 03F40033 		and	r3, r3, #131072
 952              		.loc 1 258 12
 953 0604 002B     		cmp	r3, #0
 954 0606 03D0     		beq	.L42
 259:STM32Cube_FW_N6/Drivers/STM32N6xx_HAL_Driver/Src/stm32n6xx_hal_gpio.c ****         {
 260:STM32Cube_FW_N6/Drivers/STM32N6xx_HAL_Driver/Src/stm32n6xx_hal_gpio.c ****           temp |= iocurrent;
 955              		.loc 1 260 16
 956 0608 3A69     		ldr	r2, [r7, #16]
 957 060a FB68     		ldr	r3, [r7, #12]
 958 060c 1343     		orrs	r3, r3, r2
 959 060e 3B61     		str	r3, [r7, #16]
 960              	.L42:
 261:STM32Cube_FW_N6/Drivers/STM32N6xx_HAL_Driver/Src/stm32n6xx_hal_gpio.c ****         }
 262:STM32Cube_FW_N6/Drivers/STM32N6xx_HAL_Driver/Src/stm32n6xx_hal_gpio.c ****         EXTI->EMR1 = temp;
 961              		.loc 1 262 13
 962 0610 2A4A     		ldr	r2, .L51+48
 963              		.loc 1 262 20
 964 0612 3B69     		ldr	r3, [r7, #16]
 965 0614 C2F88430 		str	r3, [r2, #132]
 263:STM32Cube_FW_N6/Drivers/STM32N6xx_HAL_Driver/Src/stm32n6xx_hal_gpio.c **** 
 264:STM32Cube_FW_N6/Drivers/STM32N6xx_HAL_Driver/Src/stm32n6xx_hal_gpio.c ****         /* Clear Rising Falling edge configuration */
 265:STM32Cube_FW_N6/Drivers/STM32N6xx_HAL_Driver/Src/stm32n6xx_hal_gpio.c ****         temp = EXTI->RTSR1;
 966              		.loc 1 265 20
 967 0618 284B     		ldr	r3, .L51+48
 968              		.loc 1 265 14
 969 061a 1B68     		ldr	r3, [r3]
 970 061c 3B61     		str	r3, [r7, #16]
 266:STM32Cube_FW_N6/Drivers/STM32N6xx_HAL_Driver/Src/stm32n6xx_hal_gpio.c ****         temp &= ~(iocurrent);
 971              		.loc 1 266 17
 972 061e FB68     		ldr	r3, [r7, #12]
 973 0620 DB43     		mvns	r3, r3
 974              		.loc 1 266 14
 975 0622 3A69     		ldr	r2, [r7, #16]
 976 0624 1340     		ands	r3, r3, r2
 977 0626 3B61     		str	r3, [r7, #16]
 267:STM32Cube_FW_N6/Drivers/STM32N6xx_HAL_Driver/Src/stm32n6xx_hal_gpio.c ****         if ((GPIO_Init->Mode & TRIGGER_RISING) != 0x00u)
 978              		.loc 1 267 23
 979 0628 3B68     		ldr	r3, [r7]
ARM GAS  /tmp/ccEPgY0u.s 			page 23


 980 062a 5B68     		ldr	r3, [r3, #4]
 981              		.loc 1 267 30
 982 062c 03F48013 		and	r3, r3, #1048576
 983              		.loc 1 267 12
 984 0630 002B     		cmp	r3, #0
 985 0632 03D0     		beq	.L43
 268:STM32Cube_FW_N6/Drivers/STM32N6xx_HAL_Driver/Src/stm32n6xx_hal_gpio.c ****         {
 269:STM32Cube_FW_N6/Drivers/STM32N6xx_HAL_Driver/Src/stm32n6xx_hal_gpio.c ****           temp |= iocurrent;
 986              		.loc 1 269 16
 987 0634 3A69     		ldr	r2, [r7, #16]
 988 0636 FB68     		ldr	r3, [r7, #12]
 989 0638 1343     		orrs	r3, r3, r2
 990 063a 3B61     		str	r3, [r7, #16]
 991              	.L43:
 270:STM32Cube_FW_N6/Drivers/STM32N6xx_HAL_Driver/Src/stm32n6xx_hal_gpio.c ****         }
 271:STM32Cube_FW_N6/Drivers/STM32N6xx_HAL_Driver/Src/stm32n6xx_hal_gpio.c ****         EXTI->RTSR1 = temp;
 992              		.loc 1 271 13
 993 063c 1F4A     		ldr	r2, .L51+48
 994              		.loc 1 271 21
 995 063e 3B69     		ldr	r3, [r7, #16]
 996 0640 1360     		str	r3, [r2]
 272:STM32Cube_FW_N6/Drivers/STM32N6xx_HAL_Driver/Src/stm32n6xx_hal_gpio.c **** 
 273:STM32Cube_FW_N6/Drivers/STM32N6xx_HAL_Driver/Src/stm32n6xx_hal_gpio.c ****         temp = EXTI->FTSR1;
 997              		.loc 1 273 20
 998 0642 1E4B     		ldr	r3, .L51+48
 999              		.loc 1 273 14
 1000 0644 5B68     		ldr	r3, [r3, #4]
 1001 0646 3B61     		str	r3, [r7, #16]
 274:STM32Cube_FW_N6/Drivers/STM32N6xx_HAL_Driver/Src/stm32n6xx_hal_gpio.c ****         temp &= ~(iocurrent);
 1002              		.loc 1 274 17
 1003 0648 FB68     		ldr	r3, [r7, #12]
 1004 064a DB43     		mvns	r3, r3
 1005              		.loc 1 274 14
 1006 064c 3A69     		ldr	r2, [r7, #16]
 1007 064e 1340     		ands	r3, r3, r2
 1008 0650 3B61     		str	r3, [r7, #16]
 275:STM32Cube_FW_N6/Drivers/STM32N6xx_HAL_Driver/Src/stm32n6xx_hal_gpio.c ****         if ((GPIO_Init->Mode & TRIGGER_FALLING) != 0x00u)
 1009              		.loc 1 275 23
 1010 0652 3B68     		ldr	r3, [r7]
 1011 0654 5B68     		ldr	r3, [r3, #4]
 1012              		.loc 1 275 30
 1013 0656 03F40013 		and	r3, r3, #2097152
 1014              		.loc 1 275 12
 1015 065a 002B     		cmp	r3, #0
 1016 065c 03D0     		beq	.L44
 276:STM32Cube_FW_N6/Drivers/STM32N6xx_HAL_Driver/Src/stm32n6xx_hal_gpio.c ****         {
 277:STM32Cube_FW_N6/Drivers/STM32N6xx_HAL_Driver/Src/stm32n6xx_hal_gpio.c ****           temp |= iocurrent;
 1017              		.loc 1 277 16
 1018 065e 3A69     		ldr	r2, [r7, #16]
 1019 0660 FB68     		ldr	r3, [r7, #12]
 1020 0662 1343     		orrs	r3, r3, r2
 1021 0664 3B61     		str	r3, [r7, #16]
 1022              	.L44:
 278:STM32Cube_FW_N6/Drivers/STM32N6xx_HAL_Driver/Src/stm32n6xx_hal_gpio.c ****         }
 279:STM32Cube_FW_N6/Drivers/STM32N6xx_HAL_Driver/Src/stm32n6xx_hal_gpio.c ****         EXTI->FTSR1 = temp;
 1023              		.loc 1 279 13
 1024 0666 154A     		ldr	r2, .L51+48
ARM GAS  /tmp/ccEPgY0u.s 			page 24


 1025              		.loc 1 279 21
 1026 0668 3B69     		ldr	r3, [r7, #16]
 1027 066a 5360     		str	r3, [r2, #4]
 1028              	.L7:
 280:STM32Cube_FW_N6/Drivers/STM32N6xx_HAL_Driver/Src/stm32n6xx_hal_gpio.c ****       }
 281:STM32Cube_FW_N6/Drivers/STM32N6xx_HAL_Driver/Src/stm32n6xx_hal_gpio.c ****     }
 282:STM32Cube_FW_N6/Drivers/STM32N6xx_HAL_Driver/Src/stm32n6xx_hal_gpio.c **** 
 283:STM32Cube_FW_N6/Drivers/STM32N6xx_HAL_Driver/Src/stm32n6xx_hal_gpio.c ****     position++;
 1029              		.loc 1 283 13
 1030 066c 7B69     		ldr	r3, [r7, #20]
 1031 066e 0133     		adds	r3, r3, #1
 1032 0670 7B61     		str	r3, [r7, #20]
 1033              	.L6:
 178:STM32Cube_FW_N6/Drivers/STM32N6xx_HAL_Driver/Src/stm32n6xx_hal_gpio.c ****   {
 1034              		.loc 1 178 21
 1035 0672 3B68     		ldr	r3, [r7]
 1036 0674 1A68     		ldr	r2, [r3]
 178:STM32Cube_FW_N6/Drivers/STM32N6xx_HAL_Driver/Src/stm32n6xx_hal_gpio.c ****   {
 1037              		.loc 1 178 28
 1038 0676 7B69     		ldr	r3, [r7, #20]
 1039 0678 22FA03F3 		lsr	r3, r2, r3
 178:STM32Cube_FW_N6/Drivers/STM32N6xx_HAL_Driver/Src/stm32n6xx_hal_gpio.c ****   {
 1040              		.loc 1 178 41
 1041 067c 002B     		cmp	r3, #0
 1042 067e 7FF4B1AD 		bne	.L45
 284:STM32Cube_FW_N6/Drivers/STM32N6xx_HAL_Driver/Src/stm32n6xx_hal_gpio.c ****   }
 285:STM32Cube_FW_N6/Drivers/STM32N6xx_HAL_Driver/Src/stm32n6xx_hal_gpio.c **** }
 1043              		.loc 1 285 1
 1044 0682 00BF     		nop
 1045 0684 00BF     		nop
 1046 0686 1837     		adds	r7, r7, #24
 1047              		.cfi_def_cfa_offset 8
 1048 0688 BD46     		mov	sp, r7
 1049              		.cfi_def_cfa_register 13
 1050              		@ sp needed
 1051 068a 80BD     		pop	{r7, pc}
 1052              	.L52:
 1053              		.align	2
 1054              	.L51:
 1055 068c 00000256 		.word	1442971648
 1056 0690 00040256 		.word	1442972672
 1057 0694 00080256 		.word	1442973696
 1058 0698 000C0256 		.word	1442974720
 1059 069c 00100256 		.word	1442975744
 1060 06a0 00140256 		.word	1442976768
 1061 06a4 00180256 		.word	1442977792
 1062 06a8 001C0256 		.word	1442978816
 1063 06ac 00340256 		.word	1442984960
 1064 06b0 00380256 		.word	1442985984
 1065 06b4 003C0256 		.word	1442987008
 1066 06b8 00400256 		.word	1442988032
 1067 06bc 00500256 		.word	1442992128
 1068              		.cfi_endproc
 1069              	.LFE835:
 1071              		.section	.text.HAL_GPIO_DeInit,"ax",%progbits
 1072              		.align	1
 1073              		.global	HAL_GPIO_DeInit
ARM GAS  /tmp/ccEPgY0u.s 			page 25


 1074              		.syntax unified
 1075              		.thumb
 1076              		.thumb_func
 1078              	HAL_GPIO_DeInit:
 1079              	.LFB836:
 286:STM32Cube_FW_N6/Drivers/STM32N6xx_HAL_Driver/Src/stm32n6xx_hal_gpio.c **** 
 287:STM32Cube_FW_N6/Drivers/STM32N6xx_HAL_Driver/Src/stm32n6xx_hal_gpio.c **** /**
 288:STM32Cube_FW_N6/Drivers/STM32N6xx_HAL_Driver/Src/stm32n6xx_hal_gpio.c ****   * @brief  De-initialize the GPIOx peripheral registers to their default reset values.
 289:STM32Cube_FW_N6/Drivers/STM32N6xx_HAL_Driver/Src/stm32n6xx_hal_gpio.c ****   * @param  GPIOx where x can be (A..H and N..Q) to select the GPIO peripheral for STM32N6xx family
 290:STM32Cube_FW_N6/Drivers/STM32N6xx_HAL_Driver/Src/stm32n6xx_hal_gpio.c ****   * @param  GPIO_Pin specifies the port bit to be written.
 291:STM32Cube_FW_N6/Drivers/STM32N6xx_HAL_Driver/Src/stm32n6xx_hal_gpio.c ****   *         This parameter can be any combination of GPIO_Pin_x where x can be (0..15).
 292:STM32Cube_FW_N6/Drivers/STM32N6xx_HAL_Driver/Src/stm32n6xx_hal_gpio.c ****   * @retval None
 293:STM32Cube_FW_N6/Drivers/STM32N6xx_HAL_Driver/Src/stm32n6xx_hal_gpio.c ****   */
 294:STM32Cube_FW_N6/Drivers/STM32N6xx_HAL_Driver/Src/stm32n6xx_hal_gpio.c **** void HAL_GPIO_DeInit(GPIO_TypeDef  *GPIOx, uint32_t GPIO_Pin)
 295:STM32Cube_FW_N6/Drivers/STM32N6xx_HAL_Driver/Src/stm32n6xx_hal_gpio.c **** {
 1080              		.loc 1 295 1
 1081              		.cfi_startproc
 1082              		@ args = 0, pretend = 0, frame = 24
 1083              		@ frame_needed = 1, uses_anonymous_args = 0
 1084 0000 80B5     		push	{r7, lr}
 1085              		.cfi_def_cfa_offset 8
 1086              		.cfi_offset 7, -8
 1087              		.cfi_offset 14, -4
 1088 0002 86B0     		sub	sp, sp, #24
 1089              		.cfi_def_cfa_offset 32
 1090 0004 00AF     		add	r7, sp, #0
 1091              		.cfi_def_cfa_register 7
 1092 0006 7860     		str	r0, [r7, #4]
 1093 0008 3960     		str	r1, [r7]
 296:STM32Cube_FW_N6/Drivers/STM32N6xx_HAL_Driver/Src/stm32n6xx_hal_gpio.c ****   uint32_t position = 0x00u;
 1094              		.loc 1 296 12
 1095 000a 0023     		movs	r3, #0
 1096 000c 7B61     		str	r3, [r7, #20]
 297:STM32Cube_FW_N6/Drivers/STM32N6xx_HAL_Driver/Src/stm32n6xx_hal_gpio.c ****   uint32_t iocurrent;
 298:STM32Cube_FW_N6/Drivers/STM32N6xx_HAL_Driver/Src/stm32n6xx_hal_gpio.c ****   uint32_t tmp;
 299:STM32Cube_FW_N6/Drivers/STM32N6xx_HAL_Driver/Src/stm32n6xx_hal_gpio.c **** 
 300:STM32Cube_FW_N6/Drivers/STM32N6xx_HAL_Driver/Src/stm32n6xx_hal_gpio.c ****   /* Check the parameters */
 301:STM32Cube_FW_N6/Drivers/STM32N6xx_HAL_Driver/Src/stm32n6xx_hal_gpio.c ****   assert_param(IS_GPIO_ALL_INSTANCE(GPIOx));
 1097              		.loc 1 301 3
 1098 000e 7B68     		ldr	r3, [r7, #4]
 1099 0010 6B4A     		ldr	r2, .L85
 1100 0012 9342     		cmp	r3, r2
 1101 0014 60D0     		beq	.L54
 1102              		.loc 1 301 3 is_stmt 0 discriminator 1
 1103 0016 7B68     		ldr	r3, [r7, #4]
 1104 0018 6A4A     		ldr	r2, .L85+4
 1105 001a 9342     		cmp	r3, r2
 1106 001c 5CD0     		beq	.L54
 1107              		.loc 1 301 3 discriminator 2
 1108 001e 7B68     		ldr	r3, [r7, #4]
 1109 0020 694A     		ldr	r2, .L85+8
 1110 0022 9342     		cmp	r3, r2
 1111 0024 58D0     		beq	.L54
 1112              		.loc 1 301 3 discriminator 3
 1113 0026 7B68     		ldr	r3, [r7, #4]
 1114 0028 684A     		ldr	r2, .L85+12
 1115 002a 9342     		cmp	r3, r2
ARM GAS  /tmp/ccEPgY0u.s 			page 26


 1116 002c 54D0     		beq	.L54
 1117              		.loc 1 301 3 discriminator 4
 1118 002e 7B68     		ldr	r3, [r7, #4]
 1119 0030 674A     		ldr	r2, .L85+16
 1120 0032 9342     		cmp	r3, r2
 1121 0034 50D0     		beq	.L54
 1122              		.loc 1 301 3 discriminator 5
 1123 0036 7B68     		ldr	r3, [r7, #4]
 1124 0038 664A     		ldr	r2, .L85+20
 1125 003a 9342     		cmp	r3, r2
 1126 003c 4CD0     		beq	.L54
 1127              		.loc 1 301 3 discriminator 6
 1128 003e 7B68     		ldr	r3, [r7, #4]
 1129 0040 654A     		ldr	r2, .L85+24
 1130 0042 9342     		cmp	r3, r2
 1131 0044 48D0     		beq	.L54
 1132              		.loc 1 301 3 discriminator 7
 1133 0046 7B68     		ldr	r3, [r7, #4]
 1134 0048 644A     		ldr	r2, .L85+28
 1135 004a 9342     		cmp	r3, r2
 1136 004c 44D0     		beq	.L54
 1137              		.loc 1 301 3 discriminator 8
 1138 004e 7B68     		ldr	r3, [r7, #4]
 1139 0050 634A     		ldr	r2, .L85+32
 1140 0052 9342     		cmp	r3, r2
 1141 0054 40D0     		beq	.L54
 1142              		.loc 1 301 3 discriminator 9
 1143 0056 7B68     		ldr	r3, [r7, #4]
 1144 0058 624A     		ldr	r2, .L85+36
 1145 005a 9342     		cmp	r3, r2
 1146 005c 3CD0     		beq	.L54
 1147              		.loc 1 301 3 discriminator 10
 1148 005e 7B68     		ldr	r3, [r7, #4]
 1149 0060 614A     		ldr	r2, .L85+40
 1150 0062 9342     		cmp	r3, r2
 1151 0064 38D0     		beq	.L54
 1152              		.loc 1 301 3 discriminator 11
 1153 0066 7B68     		ldr	r3, [r7, #4]
 1154 0068 604A     		ldr	r2, .L85+44
 1155 006a 9342     		cmp	r3, r2
 1156 006c 34D0     		beq	.L54
 1157              		.loc 1 301 3 discriminator 12
 1158 006e 7B68     		ldr	r3, [r7, #4]
 1159 0070 5F4A     		ldr	r2, .L85+48
 1160 0072 9342     		cmp	r3, r2
 1161 0074 30D0     		beq	.L54
 1162              		.loc 1 301 3 discriminator 13
 1163 0076 7B68     		ldr	r3, [r7, #4]
 1164 0078 5E4A     		ldr	r2, .L85+52
 1165 007a 9342     		cmp	r3, r2
 1166 007c 2CD0     		beq	.L54
 1167              		.loc 1 301 3 discriminator 14
 1168 007e 7B68     		ldr	r3, [r7, #4]
 1169 0080 5D4A     		ldr	r2, .L85+56
 1170 0082 9342     		cmp	r3, r2
 1171 0084 28D0     		beq	.L54
 1172              		.loc 1 301 3 discriminator 15
ARM GAS  /tmp/ccEPgY0u.s 			page 27


 1173 0086 7B68     		ldr	r3, [r7, #4]
 1174 0088 5C4A     		ldr	r2, .L85+60
 1175 008a 9342     		cmp	r3, r2
 1176 008c 24D0     		beq	.L54
 1177              		.loc 1 301 3 discriminator 16
 1178 008e 7B68     		ldr	r3, [r7, #4]
 1179 0090 5B4A     		ldr	r2, .L85+64
 1180 0092 9342     		cmp	r3, r2
 1181 0094 20D0     		beq	.L54
 1182              		.loc 1 301 3 discriminator 17
 1183 0096 7B68     		ldr	r3, [r7, #4]
 1184 0098 5A4A     		ldr	r2, .L85+68
 1185 009a 9342     		cmp	r3, r2
 1186 009c 1CD0     		beq	.L54
 1187              		.loc 1 301 3 discriminator 18
 1188 009e 7B68     		ldr	r3, [r7, #4]
 1189 00a0 594A     		ldr	r2, .L85+72
 1190 00a2 9342     		cmp	r3, r2
 1191 00a4 18D0     		beq	.L54
 1192              		.loc 1 301 3 discriminator 19
 1193 00a6 7B68     		ldr	r3, [r7, #4]
 1194 00a8 584A     		ldr	r2, .L85+76
 1195 00aa 9342     		cmp	r3, r2
 1196 00ac 14D0     		beq	.L54
 1197              		.loc 1 301 3 discriminator 20
 1198 00ae 7B68     		ldr	r3, [r7, #4]
 1199 00b0 574A     		ldr	r2, .L85+80
 1200 00b2 9342     		cmp	r3, r2
 1201 00b4 10D0     		beq	.L54
 1202              		.loc 1 301 3 discriminator 21
 1203 00b6 7B68     		ldr	r3, [r7, #4]
 1204 00b8 564A     		ldr	r2, .L85+84
 1205 00ba 9342     		cmp	r3, r2
 1206 00bc 0CD0     		beq	.L54
 1207              		.loc 1 301 3 discriminator 22
 1208 00be 7B68     		ldr	r3, [r7, #4]
 1209 00c0 554A     		ldr	r2, .L85+88
 1210 00c2 9342     		cmp	r3, r2
 1211 00c4 08D0     		beq	.L54
 1212              		.loc 1 301 3 discriminator 23
 1213 00c6 7B68     		ldr	r3, [r7, #4]
 1214 00c8 544A     		ldr	r2, .L85+92
 1215 00ca 9342     		cmp	r3, r2
 1216 00cc 04D0     		beq	.L54
 1217              		.loc 1 301 3 discriminator 24
 1218 00ce 40F22D11 		movw	r1, #301
 1219 00d2 5348     		ldr	r0, .L85+96
 1220 00d4 FFF7FEFF 		bl	assert_failed
 1221              	.L54:
 302:STM32Cube_FW_N6/Drivers/STM32N6xx_HAL_Driver/Src/stm32n6xx_hal_gpio.c ****   assert_param(IS_GPIO_PIN(GPIO_Pin));
 1222              		.loc 1 302 3 is_stmt 1
 1223 00d8 3B68     		ldr	r3, [r7]
 1224 00da 9BB2     		uxth	r3, r3
 1225 00dc 002B     		cmp	r3, #0
 1226 00de 04D0     		beq	.L55
 1227              		.loc 1 302 3 is_stmt 0 discriminator 2
 1228 00e0 3B68     		ldr	r3, [r7]
ARM GAS  /tmp/ccEPgY0u.s 			page 28


 1229 00e2 B3F5803F 		cmp	r3, #65536
 1230 00e6 C0F04B81 		bcc	.L57
 1231              	.L55:
 1232              		.loc 1 302 3 discriminator 3
 1233 00ea 4FF49771 		mov	r1, #302
 1234 00ee 4C48     		ldr	r0, .L85+96
 1235 00f0 FFF7FEFF 		bl	assert_failed
 303:STM32Cube_FW_N6/Drivers/STM32N6xx_HAL_Driver/Src/stm32n6xx_hal_gpio.c **** 
 304:STM32Cube_FW_N6/Drivers/STM32N6xx_HAL_Driver/Src/stm32n6xx_hal_gpio.c ****   /* Configure the port pins */
 305:STM32Cube_FW_N6/Drivers/STM32N6xx_HAL_Driver/Src/stm32n6xx_hal_gpio.c ****   while ((GPIO_Pin >> position) != 0x00u)
 1236              		.loc 1 305 9 is_stmt 1
 1237 00f4 44E1     		b	.L57
 1238              	.L84:
 306:STM32Cube_FW_N6/Drivers/STM32N6xx_HAL_Driver/Src/stm32n6xx_hal_gpio.c ****   {
 307:STM32Cube_FW_N6/Drivers/STM32N6xx_HAL_Driver/Src/stm32n6xx_hal_gpio.c ****     /* Get current io position */
 308:STM32Cube_FW_N6/Drivers/STM32N6xx_HAL_Driver/Src/stm32n6xx_hal_gpio.c ****     iocurrent = (GPIO_Pin) & (1uL << position);
 1239              		.loc 1 308 35
 1240 00f6 0122     		movs	r2, #1
 1241 00f8 7B69     		ldr	r3, [r7, #20]
 1242 00fa 02FA03F3 		lsl	r3, r2, r3
 1243              		.loc 1 308 15
 1244 00fe 3A68     		ldr	r2, [r7]
 1245 0100 1340     		ands	r3, r3, r2
 1246 0102 3B61     		str	r3, [r7, #16]
 309:STM32Cube_FW_N6/Drivers/STM32N6xx_HAL_Driver/Src/stm32n6xx_hal_gpio.c **** 
 310:STM32Cube_FW_N6/Drivers/STM32N6xx_HAL_Driver/Src/stm32n6xx_hal_gpio.c ****     if (iocurrent != 0x00u)
 1247              		.loc 1 310 8
 1248 0104 3B69     		ldr	r3, [r7, #16]
 1249 0106 002B     		cmp	r3, #0
 1250 0108 00F03781 		beq	.L58
 311:STM32Cube_FW_N6/Drivers/STM32N6xx_HAL_Driver/Src/stm32n6xx_hal_gpio.c ****     {
 312:STM32Cube_FW_N6/Drivers/STM32N6xx_HAL_Driver/Src/stm32n6xx_hal_gpio.c ****       /*------------------------- EXTI Mode Configuration --------------------*/
 313:STM32Cube_FW_N6/Drivers/STM32N6xx_HAL_Driver/Src/stm32n6xx_hal_gpio.c ****       /* Clear the External Interrupt or Event for the current IO */
 314:STM32Cube_FW_N6/Drivers/STM32N6xx_HAL_Driver/Src/stm32n6xx_hal_gpio.c **** 
 315:STM32Cube_FW_N6/Drivers/STM32N6xx_HAL_Driver/Src/stm32n6xx_hal_gpio.c ****       tmp = EXTI->EXTICR[position >> 2u];
 1251              		.loc 1 315 17
 1252 010c 454A     		ldr	r2, .L85+100
 1253              		.loc 1 315 35
 1254 010e 7B69     		ldr	r3, [r7, #20]
 1255 0110 9B08     		lsrs	r3, r3, #2
 1256              		.loc 1 315 11
 1257 0112 1833     		adds	r3, r3, #24
 1258 0114 52F82330 		ldr	r3, [r2, r3, lsl #2]
 1259 0118 FB60     		str	r3, [r7, #12]
 316:STM32Cube_FW_N6/Drivers/STM32N6xx_HAL_Driver/Src/stm32n6xx_hal_gpio.c ****       tmp &= (0x0FuL << ((position & 0x03u) * EXTI_EXTICR1_EXTI1_Pos));
 1260              		.loc 1 316 36
 1261 011a 7B69     		ldr	r3, [r7, #20]
 1262 011c 03F00303 		and	r3, r3, #3
 1263              		.loc 1 316 45
 1264 0120 DB00     		lsls	r3, r3, #3
 1265              		.loc 1 316 22
 1266 0122 0F22     		movs	r2, #15
 1267 0124 02FA03F3 		lsl	r3, r2, r3
 1268              		.loc 1 316 11
 1269 0128 FA68     		ldr	r2, [r7, #12]
 1270 012a 1340     		ands	r3, r3, r2
 1271 012c FB60     		str	r3, [r7, #12]
ARM GAS  /tmp/ccEPgY0u.s 			page 29


 317:STM32Cube_FW_N6/Drivers/STM32N6xx_HAL_Driver/Src/stm32n6xx_hal_gpio.c ****       if (tmp == (GPIO_GET_INDEX(GPIOx) << ((position & 0x03u) * EXTI_EXTICR1_EXTI1_Pos)))
 1272              		.loc 1 317 19
 1273 012e 7B68     		ldr	r3, [r7, #4]
 1274 0130 234A     		ldr	r2, .L85
 1275 0132 9342     		cmp	r3, r2
 1276 0134 78D0     		beq	.L59
 1277              		.loc 1 317 19 is_stmt 0 discriminator 1
 1278 0136 7B68     		ldr	r3, [r7, #4]
 1279 0138 234A     		ldr	r2, .L85+8
 1280 013a 9342     		cmp	r3, r2
 1281 013c 3DD0     		beq	.L60
 1282              		.loc 1 317 19 discriminator 3
 1283 013e 7B68     		ldr	r3, [r7, #4]
 1284 0140 234A     		ldr	r2, .L85+16
 1285 0142 9342     		cmp	r3, r2
 1286 0144 37D0     		beq	.L61
 1287              		.loc 1 317 19 discriminator 5
 1288 0146 7B68     		ldr	r3, [r7, #4]
 1289 0148 234A     		ldr	r2, .L85+24
 1290 014a 9342     		cmp	r3, r2
 1291 014c 31D0     		beq	.L62
 1292              		.loc 1 317 19 discriminator 7
 1293 014e 7B68     		ldr	r3, [r7, #4]
 1294 0150 234A     		ldr	r2, .L85+32
 1295 0152 9342     		cmp	r3, r2
 1296 0154 2BD0     		beq	.L63
 1297              		.loc 1 317 19 discriminator 9
 1298 0156 7B68     		ldr	r3, [r7, #4]
 1299 0158 234A     		ldr	r2, .L85+40
 1300 015a 9342     		cmp	r3, r2
 1301 015c 25D0     		beq	.L64
 1302              		.loc 1 317 19 discriminator 11
 1303 015e 7B68     		ldr	r3, [r7, #4]
 1304 0160 234A     		ldr	r2, .L85+48
 1305 0162 9342     		cmp	r3, r2
 1306 0164 1FD0     		beq	.L65
 1307              		.loc 1 317 19 discriminator 13
 1308 0166 7B68     		ldr	r3, [r7, #4]
 1309 0168 234A     		ldr	r2, .L85+56
 1310 016a 9342     		cmp	r3, r2
 1311 016c 19D0     		beq	.L66
 1312              		.loc 1 317 19 discriminator 15
 1313 016e 7B68     		ldr	r3, [r7, #4]
 1314 0170 234A     		ldr	r2, .L85+64
 1315 0172 9342     		cmp	r3, r2
 1316 0174 13D0     		beq	.L67
 1317              		.loc 1 317 19 discriminator 17
 1318 0176 7B68     		ldr	r3, [r7, #4]
 1319 0178 234A     		ldr	r2, .L85+72
 1320 017a 9342     		cmp	r3, r2
 1321 017c 0DD0     		beq	.L68
 1322              		.loc 1 317 19 discriminator 19
 1323 017e 7B68     		ldr	r3, [r7, #4]
 1324 0180 234A     		ldr	r2, .L85+80
 1325 0182 9342     		cmp	r3, r2
 1326 0184 07D0     		beq	.L69
 1327              		.loc 1 317 19 discriminator 21
ARM GAS  /tmp/ccEPgY0u.s 			page 30


 1328 0186 7B68     		ldr	r3, [r7, #4]
 1329 0188 234A     		ldr	r2, .L85+88
 1330 018a 9342     		cmp	r3, r2
 1331 018c 01D1     		bne	.L70
 1332              		.loc 1 317 19 discriminator 23
 1333 018e 0B23     		movs	r3, #11
 1334 0190 4BE0     		b	.L82
 1335              	.L70:
 1336              		.loc 1 317 19 discriminator 24
 1337 0192 1023     		movs	r3, #16
 1338 0194 49E0     		b	.L82
 1339              	.L69:
 1340              		.loc 1 317 19 discriminator 22
 1341 0196 0A23     		movs	r3, #10
 1342 0198 47E0     		b	.L82
 1343              	.L68:
 1344              		.loc 1 317 19 discriminator 20
 1345 019a 0923     		movs	r3, #9
 1346 019c 45E0     		b	.L82
 1347              	.L67:
 1348              		.loc 1 317 19 discriminator 18
 1349 019e 0823     		movs	r3, #8
 1350 01a0 43E0     		b	.L82
 1351              	.L66:
 1352              		.loc 1 317 19 discriminator 16
 1353 01a2 0723     		movs	r3, #7
 1354 01a4 41E0     		b	.L82
 1355              	.L65:
 1356              		.loc 1 317 19 discriminator 14
 1357 01a6 0623     		movs	r3, #6
 1358 01a8 3FE0     		b	.L82
 1359              	.L64:
 1360              		.loc 1 317 19 discriminator 12
 1361 01aa 0523     		movs	r3, #5
 1362 01ac 3DE0     		b	.L82
 1363              	.L63:
 1364              		.loc 1 317 19 discriminator 10
 1365 01ae 0423     		movs	r3, #4
 1366 01b0 3BE0     		b	.L82
 1367              	.L62:
 1368              		.loc 1 317 19 discriminator 8
 1369 01b2 0323     		movs	r3, #3
 1370 01b4 39E0     		b	.L82
 1371              	.L61:
 1372              		.loc 1 317 19 discriminator 6
 1373 01b6 0223     		movs	r3, #2
 1374 01b8 37E0     		b	.L82
 1375              	.L60:
 1376              		.loc 1 317 19 discriminator 4
 1377 01ba 0123     		movs	r3, #1
 1378 01bc 35E0     		b	.L82
 1379              	.L86:
 1380 01be 00BF     		.align	2
 1381              	.L85:
 1382 01c0 00000256 		.word	1442971648
 1383 01c4 00000246 		.word	1174536192
 1384 01c8 00040256 		.word	1442972672
ARM GAS  /tmp/ccEPgY0u.s 			page 31


 1385 01cc 00040246 		.word	1174537216
 1386 01d0 00080256 		.word	1442973696
 1387 01d4 00080246 		.word	1174538240
 1388 01d8 000C0256 		.word	1442974720
 1389 01dc 000C0246 		.word	1174539264
 1390 01e0 00100256 		.word	1442975744
 1391 01e4 00100246 		.word	1174540288
 1392 01e8 00140256 		.word	1442976768
 1393 01ec 00140246 		.word	1174541312
 1394 01f0 00180256 		.word	1442977792
 1395 01f4 00180246 		.word	1174542336
 1396 01f8 001C0256 		.word	1442978816
 1397 01fc 001C0246 		.word	1174543360
 1398 0200 00340256 		.word	1442984960
 1399 0204 00340246 		.word	1174549504
 1400 0208 00380256 		.word	1442985984
 1401 020c 00380246 		.word	1174550528
 1402 0210 003C0256 		.word	1442987008
 1403 0214 003C0246 		.word	1174551552
 1404 0218 00400256 		.word	1442988032
 1405 021c 00400246 		.word	1174552576
 1406 0220 00000000 		.word	.LC0
 1407 0224 00500256 		.word	1442992128
 1408              	.L59:
 1409              		.loc 1 317 19 discriminator 2
 1410 0228 0023     		movs	r3, #0
 1411              	.L82:
 1412              		.loc 1 317 55 is_stmt 1 discriminator 48
 1413 022a 7A69     		ldr	r2, [r7, #20]
 1414 022c 02F00302 		and	r2, r2, #3
 1415              		.loc 1 317 64 discriminator 48
 1416 0230 D200     		lsls	r2, r2, #3
 1417              		.loc 1 317 41 discriminator 48
 1418 0232 9340     		lsls	r3, r3, r2
 1419              		.loc 1 317 10 discriminator 48
 1420 0234 FA68     		ldr	r2, [r7, #12]
 1421 0236 9A42     		cmp	r2, r3
 1422 0238 36D1     		bne	.L83
 318:STM32Cube_FW_N6/Drivers/STM32N6xx_HAL_Driver/Src/stm32n6xx_hal_gpio.c ****       {
 319:STM32Cube_FW_N6/Drivers/STM32N6xx_HAL_Driver/Src/stm32n6xx_hal_gpio.c ****         /* Clear EXTI line configuration */
 320:STM32Cube_FW_N6/Drivers/STM32N6xx_HAL_Driver/Src/stm32n6xx_hal_gpio.c ****         EXTI->IMR1 &= ~(iocurrent);
 1423              		.loc 1 320 13
 1424 023a 574B     		ldr	r3, .L87
 1425 023c D3F88020 		ldr	r2, [r3, #128]
 1426              		.loc 1 320 23
 1427 0240 3B69     		ldr	r3, [r7, #16]
 1428 0242 DB43     		mvns	r3, r3
 1429              		.loc 1 320 13
 1430 0244 5449     		ldr	r1, .L87
 1431              		.loc 1 320 20
 1432 0246 1340     		ands	r3, r3, r2
 1433 0248 C1F88030 		str	r3, [r1, #128]
 321:STM32Cube_FW_N6/Drivers/STM32N6xx_HAL_Driver/Src/stm32n6xx_hal_gpio.c ****         EXTI->EMR1 &= ~(iocurrent);
 1434              		.loc 1 321 13
 1435 024c 524B     		ldr	r3, .L87
 1436 024e D3F88420 		ldr	r2, [r3, #132]
 1437              		.loc 1 321 23
ARM GAS  /tmp/ccEPgY0u.s 			page 32


 1438 0252 3B69     		ldr	r3, [r7, #16]
 1439 0254 DB43     		mvns	r3, r3
 1440              		.loc 1 321 13
 1441 0256 5049     		ldr	r1, .L87
 1442              		.loc 1 321 20
 1443 0258 1340     		ands	r3, r3, r2
 1444 025a C1F88430 		str	r3, [r1, #132]
 322:STM32Cube_FW_N6/Drivers/STM32N6xx_HAL_Driver/Src/stm32n6xx_hal_gpio.c **** 
 323:STM32Cube_FW_N6/Drivers/STM32N6xx_HAL_Driver/Src/stm32n6xx_hal_gpio.c ****         /* Clear Rising Falling edge configuration */
 324:STM32Cube_FW_N6/Drivers/STM32N6xx_HAL_Driver/Src/stm32n6xx_hal_gpio.c ****         EXTI->RTSR1 &= ~(iocurrent);
 1445              		.loc 1 324 13
 1446 025e 4E4B     		ldr	r3, .L87
 1447 0260 1A68     		ldr	r2, [r3]
 1448              		.loc 1 324 24
 1449 0262 3B69     		ldr	r3, [r7, #16]
 1450 0264 DB43     		mvns	r3, r3
 1451              		.loc 1 324 13
 1452 0266 4C49     		ldr	r1, .L87
 1453              		.loc 1 324 21
 1454 0268 1340     		ands	r3, r3, r2
 1455 026a 0B60     		str	r3, [r1]
 325:STM32Cube_FW_N6/Drivers/STM32N6xx_HAL_Driver/Src/stm32n6xx_hal_gpio.c ****         EXTI->FTSR1 &= ~(iocurrent);
 1456              		.loc 1 325 13
 1457 026c 4A4B     		ldr	r3, .L87
 1458 026e 5A68     		ldr	r2, [r3, #4]
 1459              		.loc 1 325 24
 1460 0270 3B69     		ldr	r3, [r7, #16]
 1461 0272 DB43     		mvns	r3, r3
 1462              		.loc 1 325 13
 1463 0274 4849     		ldr	r1, .L87
 1464              		.loc 1 325 21
 1465 0276 1340     		ands	r3, r3, r2
 1466 0278 4B60     		str	r3, [r1, #4]
 326:STM32Cube_FW_N6/Drivers/STM32N6xx_HAL_Driver/Src/stm32n6xx_hal_gpio.c **** 
 327:STM32Cube_FW_N6/Drivers/STM32N6xx_HAL_Driver/Src/stm32n6xx_hal_gpio.c ****         tmp = 0x0FuL << ((position & 0x03u) * EXTI_EXTICR1_EXTI1_Pos);
 1467              		.loc 1 327 36
 1468 027a 7B69     		ldr	r3, [r7, #20]
 1469 027c 03F00303 		and	r3, r3, #3
 1470              		.loc 1 327 45
 1471 0280 DB00     		lsls	r3, r3, #3
 1472              		.loc 1 327 13
 1473 0282 0F22     		movs	r2, #15
 1474 0284 02FA03F3 		lsl	r3, r2, r3
 1475 0288 FB60     		str	r3, [r7, #12]
 328:STM32Cube_FW_N6/Drivers/STM32N6xx_HAL_Driver/Src/stm32n6xx_hal_gpio.c ****         EXTI->EXTICR[position >> 2u] &= ~tmp;
 1476              		.loc 1 328 13
 1477 028a 434A     		ldr	r2, .L87
 1478              		.loc 1 328 21
 1479 028c 7B69     		ldr	r3, [r7, #20]
 1480 028e 9B08     		lsrs	r3, r3, #2
 1481 0290 1833     		adds	r3, r3, #24
 1482 0292 52F82310 		ldr	r1, [r2, r3, lsl #2]
 1483              		.loc 1 328 41
 1484 0296 FB68     		ldr	r3, [r7, #12]
 1485 0298 DA43     		mvns	r2, r3
 1486              		.loc 1 328 13
 1487 029a 3F48     		ldr	r0, .L87
ARM GAS  /tmp/ccEPgY0u.s 			page 33


 1488              		.loc 1 328 21
 1489 029c 7B69     		ldr	r3, [r7, #20]
 1490 029e 9B08     		lsrs	r3, r3, #2
 1491              		.loc 1 328 38
 1492 02a0 0A40     		ands	r2, r2, r1
 1493 02a2 1833     		adds	r3, r3, #24
 1494 02a4 40F82320 		str	r2, [r0, r3, lsl #2]
 1495              	.L83:
 329:STM32Cube_FW_N6/Drivers/STM32N6xx_HAL_Driver/Src/stm32n6xx_hal_gpio.c ****       }
 330:STM32Cube_FW_N6/Drivers/STM32N6xx_HAL_Driver/Src/stm32n6xx_hal_gpio.c **** 
 331:STM32Cube_FW_N6/Drivers/STM32N6xx_HAL_Driver/Src/stm32n6xx_hal_gpio.c ****       /*------------------------- GPIO Mode Configuration --------------------*/
 332:STM32Cube_FW_N6/Drivers/STM32N6xx_HAL_Driver/Src/stm32n6xx_hal_gpio.c ****       /* Configure IO in Analog Mode */
 333:STM32Cube_FW_N6/Drivers/STM32N6xx_HAL_Driver/Src/stm32n6xx_hal_gpio.c ****       GPIOx->MODER |= (GPIO_MODER_MODE0 << (position * GPIO_MODER_MODE1_Pos));
 1496              		.loc 1 333 12
 1497 02a8 7B68     		ldr	r3, [r7, #4]
 1498 02aa 1A68     		ldr	r2, [r3]
 1499              		.loc 1 333 54
 1500 02ac 7B69     		ldr	r3, [r7, #20]
 1501 02ae 5B00     		lsls	r3, r3, #1
 1502              		.loc 1 333 41
 1503 02b0 0321     		movs	r1, #3
 1504 02b2 01FA03F3 		lsl	r3, r1, r3
 1505              		.loc 1 333 20
 1506 02b6 1A43     		orrs	r2, r2, r3
 1507 02b8 7B68     		ldr	r3, [r7, #4]
 1508 02ba 1A60     		str	r2, [r3]
 334:STM32Cube_FW_N6/Drivers/STM32N6xx_HAL_Driver/Src/stm32n6xx_hal_gpio.c **** 
 335:STM32Cube_FW_N6/Drivers/STM32N6xx_HAL_Driver/Src/stm32n6xx_hal_gpio.c ****       /* Configure the default Alternate Function in current IO */
 336:STM32Cube_FW_N6/Drivers/STM32N6xx_HAL_Driver/Src/stm32n6xx_hal_gpio.c ****       GPIOx->AFR[position >> 3u] &= ~(0xFu << ((position & 0x07u) * GPIO_AFRL_AFSEL1_Pos)) ;
 1509              		.loc 1 336 17
 1510 02bc 7B69     		ldr	r3, [r7, #20]
 1511 02be DA08     		lsrs	r2, r3, #3
 1512 02c0 7B68     		ldr	r3, [r7, #4]
 1513 02c2 0832     		adds	r2, r2, #8
 1514 02c4 53F82210 		ldr	r1, [r3, r2, lsl #2]
 1515              		.loc 1 336 58
 1516 02c8 7B69     		ldr	r3, [r7, #20]
 1517 02ca 03F00703 		and	r3, r3, #7
 1518              		.loc 1 336 67
 1519 02ce 9B00     		lsls	r3, r3, #2
 1520              		.loc 1 336 44
 1521 02d0 0F22     		movs	r2, #15
 1522 02d2 02FA03F3 		lsl	r3, r2, r3
 1523              		.loc 1 336 37
 1524 02d6 DB43     		mvns	r3, r3
 1525              		.loc 1 336 17
 1526 02d8 7A69     		ldr	r2, [r7, #20]
 1527 02da D208     		lsrs	r2, r2, #3
 1528              		.loc 1 336 34
 1529 02dc 1940     		ands	r1, r1, r3
 1530 02de 7B68     		ldr	r3, [r7, #4]
 1531 02e0 0832     		adds	r2, r2, #8
 1532 02e2 43F82210 		str	r1, [r3, r2, lsl #2]
 337:STM32Cube_FW_N6/Drivers/STM32N6xx_HAL_Driver/Src/stm32n6xx_hal_gpio.c **** 
 338:STM32Cube_FW_N6/Drivers/STM32N6xx_HAL_Driver/Src/stm32n6xx_hal_gpio.c ****       /* Configure the default value for IO Speed */
 339:STM32Cube_FW_N6/Drivers/STM32N6xx_HAL_Driver/Src/stm32n6xx_hal_gpio.c ****       GPIOx->OSPEEDR &= ~(GPIO_OSPEEDR_OSPEED0 << (position * GPIO_OSPEEDR_OSPEED1_Pos));
 1533              		.loc 1 339 12
ARM GAS  /tmp/ccEPgY0u.s 			page 34


 1534 02e6 7B68     		ldr	r3, [r7, #4]
 1535 02e8 9A68     		ldr	r2, [r3, #8]
 1536              		.loc 1 339 61
 1537 02ea 7B69     		ldr	r3, [r7, #20]
 1538 02ec 5B00     		lsls	r3, r3, #1
 1539              		.loc 1 339 48
 1540 02ee 0321     		movs	r1, #3
 1541 02f0 01FA03F3 		lsl	r3, r1, r3
 1542              		.loc 1 339 25
 1543 02f4 DB43     		mvns	r3, r3
 1544              		.loc 1 339 22
 1545 02f6 1A40     		ands	r2, r2, r3
 1546 02f8 7B68     		ldr	r3, [r7, #4]
 1547 02fa 9A60     		str	r2, [r3, #8]
 340:STM32Cube_FW_N6/Drivers/STM32N6xx_HAL_Driver/Src/stm32n6xx_hal_gpio.c **** 
 341:STM32Cube_FW_N6/Drivers/STM32N6xx_HAL_Driver/Src/stm32n6xx_hal_gpio.c ****       /* Configure the default value IO Output Type */
 342:STM32Cube_FW_N6/Drivers/STM32N6xx_HAL_Driver/Src/stm32n6xx_hal_gpio.c ****       GPIOx->OTYPER  &= ~(GPIO_OTYPER_OT0 << position) ;
 1548              		.loc 1 342 12
 1549 02fc 7B68     		ldr	r3, [r7, #4]
 1550 02fe 5A68     		ldr	r2, [r3, #4]
 1551              		.loc 1 342 43
 1552 0300 0121     		movs	r1, #1
 1553 0302 7B69     		ldr	r3, [r7, #20]
 1554 0304 01FA03F3 		lsl	r3, r1, r3
 1555              		.loc 1 342 25
 1556 0308 DB43     		mvns	r3, r3
 1557              		.loc 1 342 22
 1558 030a 1A40     		ands	r2, r2, r3
 1559 030c 7B68     		ldr	r3, [r7, #4]
 1560 030e 5A60     		str	r2, [r3, #4]
 343:STM32Cube_FW_N6/Drivers/STM32N6xx_HAL_Driver/Src/stm32n6xx_hal_gpio.c **** 
 344:STM32Cube_FW_N6/Drivers/STM32N6xx_HAL_Driver/Src/stm32n6xx_hal_gpio.c ****       /* Deactivate the Pull-up and Pull-down resistor for the current IO */
 345:STM32Cube_FW_N6/Drivers/STM32N6xx_HAL_Driver/Src/stm32n6xx_hal_gpio.c ****       GPIOx->PUPDR &= ~(GPIO_PUPDR_PUPD0 << (position * GPIO_PUPDR_PUPD1_Pos));
 1561              		.loc 1 345 12
 1562 0310 7B68     		ldr	r3, [r7, #4]
 1563 0312 DA68     		ldr	r2, [r3, #12]
 1564              		.loc 1 345 55
 1565 0314 7B69     		ldr	r3, [r7, #20]
 1566 0316 5B00     		lsls	r3, r3, #1
 1567              		.loc 1 345 42
 1568 0318 0321     		movs	r1, #3
 1569 031a 01FA03F3 		lsl	r3, r1, r3
 1570              		.loc 1 345 23
 1571 031e DB43     		mvns	r3, r3
 1572              		.loc 1 345 20
 1573 0320 1A40     		ands	r2, r2, r3
 1574 0322 7B68     		ldr	r3, [r7, #4]
 1575 0324 DA60     		str	r2, [r3, #12]
 346:STM32Cube_FW_N6/Drivers/STM32N6xx_HAL_Driver/Src/stm32n6xx_hal_gpio.c **** 
 347:STM32Cube_FW_N6/Drivers/STM32N6xx_HAL_Driver/Src/stm32n6xx_hal_gpio.c ****       /* Reset delay settings for the current IO */
 348:STM32Cube_FW_N6/Drivers/STM32N6xx_HAL_Driver/Src/stm32n6xx_hal_gpio.c ****       GPIOx->DELAYR[position >> 3u] &= ~(0xFu << ((position & 0x07u) * GPIO_DELAYRL_DLY1_Pos)) ;
 1576              		.loc 1 348 20
 1577 0326 7B69     		ldr	r3, [r7, #20]
 1578 0328 DA08     		lsrs	r2, r3, #3
 1579 032a 7B68     		ldr	r3, [r7, #4]
 1580 032c 1032     		adds	r2, r2, #16
 1581 032e 53F82210 		ldr	r1, [r3, r2, lsl #2]
ARM GAS  /tmp/ccEPgY0u.s 			page 35


 1582              		.loc 1 348 61
 1583 0332 7B69     		ldr	r3, [r7, #20]
 1584 0334 03F00703 		and	r3, r3, #7
 1585              		.loc 1 348 70
 1586 0338 9B00     		lsls	r3, r3, #2
 1587              		.loc 1 348 47
 1588 033a 0F22     		movs	r2, #15
 1589 033c 02FA03F3 		lsl	r3, r2, r3
 1590              		.loc 1 348 40
 1591 0340 DB43     		mvns	r3, r3
 1592              		.loc 1 348 20
 1593 0342 7A69     		ldr	r2, [r7, #20]
 1594 0344 D208     		lsrs	r2, r2, #3
 1595              		.loc 1 348 37
 1596 0346 1940     		ands	r1, r1, r3
 1597 0348 7B68     		ldr	r3, [r7, #4]
 1598 034a 1032     		adds	r2, r2, #16
 1599 034c 43F82210 		str	r1, [r3, r2, lsl #2]
 349:STM32Cube_FW_N6/Drivers/STM32N6xx_HAL_Driver/Src/stm32n6xx_hal_gpio.c **** 
 350:STM32Cube_FW_N6/Drivers/STM32N6xx_HAL_Driver/Src/stm32n6xx_hal_gpio.c ****       /* Reset control settings for the current IO */
 351:STM32Cube_FW_N6/Drivers/STM32N6xx_HAL_Driver/Src/stm32n6xx_hal_gpio.c ****       GPIOx->ADVCFGR[position >> 3u] &= ~(0xFu << ((position & 0x07u) * GPIO_ADVCFGRL_1_Pos)) ;
 1600              		.loc 1 351 21
 1601 0350 7B69     		ldr	r3, [r7, #20]
 1602 0352 DA08     		lsrs	r2, r3, #3
 1603 0354 7B68     		ldr	r3, [r7, #4]
 1604 0356 1232     		adds	r2, r2, #18
 1605 0358 53F82210 		ldr	r1, [r3, r2, lsl #2]
 1606              		.loc 1 351 62
 1607 035c 7B69     		ldr	r3, [r7, #20]
 1608 035e 03F00703 		and	r3, r3, #7
 1609              		.loc 1 351 71
 1610 0362 9B00     		lsls	r3, r3, #2
 1611              		.loc 1 351 48
 1612 0364 0F22     		movs	r2, #15
 1613 0366 02FA03F3 		lsl	r3, r2, r3
 1614              		.loc 1 351 41
 1615 036a DB43     		mvns	r3, r3
 1616              		.loc 1 351 21
 1617 036c 7A69     		ldr	r2, [r7, #20]
 1618 036e D208     		lsrs	r2, r2, #3
 1619              		.loc 1 351 38
 1620 0370 1940     		ands	r1, r1, r3
 1621 0372 7B68     		ldr	r3, [r7, #4]
 1622 0374 1232     		adds	r2, r2, #18
 1623 0376 43F82210 		str	r1, [r3, r2, lsl #2]
 1624              	.L58:
 352:STM32Cube_FW_N6/Drivers/STM32N6xx_HAL_Driver/Src/stm32n6xx_hal_gpio.c ****     }
 353:STM32Cube_FW_N6/Drivers/STM32N6xx_HAL_Driver/Src/stm32n6xx_hal_gpio.c **** 
 354:STM32Cube_FW_N6/Drivers/STM32N6xx_HAL_Driver/Src/stm32n6xx_hal_gpio.c ****     position++;
 1625              		.loc 1 354 13
 1626 037a 7B69     		ldr	r3, [r7, #20]
 1627 037c 0133     		adds	r3, r3, #1
 1628 037e 7B61     		str	r3, [r7, #20]
 1629              	.L57:
 305:STM32Cube_FW_N6/Drivers/STM32N6xx_HAL_Driver/Src/stm32n6xx_hal_gpio.c ****   {
 1630              		.loc 1 305 20
 1631 0380 3A68     		ldr	r2, [r7]
ARM GAS  /tmp/ccEPgY0u.s 			page 36


 1632 0382 7B69     		ldr	r3, [r7, #20]
 1633 0384 22FA03F3 		lsr	r3, r2, r3
 305:STM32Cube_FW_N6/Drivers/STM32N6xx_HAL_Driver/Src/stm32n6xx_hal_gpio.c ****   {
 1634              		.loc 1 305 33
 1635 0388 002B     		cmp	r3, #0
 1636 038a 7FF4B4AE 		bne	.L84
 355:STM32Cube_FW_N6/Drivers/STM32N6xx_HAL_Driver/Src/stm32n6xx_hal_gpio.c ****   }
 356:STM32Cube_FW_N6/Drivers/STM32N6xx_HAL_Driver/Src/stm32n6xx_hal_gpio.c **** }
 1637              		.loc 1 356 1
 1638 038e 00BF     		nop
 1639 0390 00BF     		nop
 1640 0392 1837     		adds	r7, r7, #24
 1641              		.cfi_def_cfa_offset 8
 1642 0394 BD46     		mov	sp, r7
 1643              		.cfi_def_cfa_register 13
 1644              		@ sp needed
 1645 0396 80BD     		pop	{r7, pc}
 1646              	.L88:
 1647              		.align	2
 1648              	.L87:
 1649 0398 00500256 		.word	1442992128
 1650              		.cfi_endproc
 1651              	.LFE836:
 1653              		.section	.text.HAL_GPIO_ReadPin,"ax",%progbits
 1654              		.align	1
 1655              		.global	HAL_GPIO_ReadPin
 1656              		.syntax unified
 1657              		.thumb
 1658              		.thumb_func
 1660              	HAL_GPIO_ReadPin:
 1661              	.LFB837:
 357:STM32Cube_FW_N6/Drivers/STM32N6xx_HAL_Driver/Src/stm32n6xx_hal_gpio.c **** 
 358:STM32Cube_FW_N6/Drivers/STM32N6xx_HAL_Driver/Src/stm32n6xx_hal_gpio.c **** /**
 359:STM32Cube_FW_N6/Drivers/STM32N6xx_HAL_Driver/Src/stm32n6xx_hal_gpio.c ****   * @}
 360:STM32Cube_FW_N6/Drivers/STM32N6xx_HAL_Driver/Src/stm32n6xx_hal_gpio.c ****   */
 361:STM32Cube_FW_N6/Drivers/STM32N6xx_HAL_Driver/Src/stm32n6xx_hal_gpio.c **** 
 362:STM32Cube_FW_N6/Drivers/STM32N6xx_HAL_Driver/Src/stm32n6xx_hal_gpio.c **** /** @addtogroup GPIO_Exported_Functions_Group2
 363:STM32Cube_FW_N6/Drivers/STM32N6xx_HAL_Driver/Src/stm32n6xx_hal_gpio.c ****   *  @brief GPIO Read, Write, Toggle, Lock and EXTI management functions.
 364:STM32Cube_FW_N6/Drivers/STM32N6xx_HAL_Driver/Src/stm32n6xx_hal_gpio.c ****   *
 365:STM32Cube_FW_N6/Drivers/STM32N6xx_HAL_Driver/Src/stm32n6xx_hal_gpio.c **** @verbatim
 366:STM32Cube_FW_N6/Drivers/STM32N6xx_HAL_Driver/Src/stm32n6xx_hal_gpio.c ****  ===============================================================================
 367:STM32Cube_FW_N6/Drivers/STM32N6xx_HAL_Driver/Src/stm32n6xx_hal_gpio.c ****                        ##### IO operation functions #####
 368:STM32Cube_FW_N6/Drivers/STM32N6xx_HAL_Driver/Src/stm32n6xx_hal_gpio.c ****  ===============================================================================
 369:STM32Cube_FW_N6/Drivers/STM32N6xx_HAL_Driver/Src/stm32n6xx_hal_gpio.c **** 
 370:STM32Cube_FW_N6/Drivers/STM32N6xx_HAL_Driver/Src/stm32n6xx_hal_gpio.c **** @endverbatim
 371:STM32Cube_FW_N6/Drivers/STM32N6xx_HAL_Driver/Src/stm32n6xx_hal_gpio.c ****   * @{
 372:STM32Cube_FW_N6/Drivers/STM32N6xx_HAL_Driver/Src/stm32n6xx_hal_gpio.c ****   */
 373:STM32Cube_FW_N6/Drivers/STM32N6xx_HAL_Driver/Src/stm32n6xx_hal_gpio.c **** 
 374:STM32Cube_FW_N6/Drivers/STM32N6xx_HAL_Driver/Src/stm32n6xx_hal_gpio.c **** /**
 375:STM32Cube_FW_N6/Drivers/STM32N6xx_HAL_Driver/Src/stm32n6xx_hal_gpio.c ****   * @brief  Read the specified input port pin.
 376:STM32Cube_FW_N6/Drivers/STM32N6xx_HAL_Driver/Src/stm32n6xx_hal_gpio.c ****   * @param  GPIOx where x can be (A..H and N..Q) to select the GPIO peripheral for STM32N6xx family
 377:STM32Cube_FW_N6/Drivers/STM32N6xx_HAL_Driver/Src/stm32n6xx_hal_gpio.c ****   * @param  GPIO_Pin specifies the port bit to read.
 378:STM32Cube_FW_N6/Drivers/STM32N6xx_HAL_Driver/Src/stm32n6xx_hal_gpio.c ****   *         This parameter can be any combination of GPIO_Pin_x where x can be (0..15).
 379:STM32Cube_FW_N6/Drivers/STM32N6xx_HAL_Driver/Src/stm32n6xx_hal_gpio.c ****   * @retval The input port pin value.
 380:STM32Cube_FW_N6/Drivers/STM32N6xx_HAL_Driver/Src/stm32n6xx_hal_gpio.c ****   */
 381:STM32Cube_FW_N6/Drivers/STM32N6xx_HAL_Driver/Src/stm32n6xx_hal_gpio.c **** GPIO_PinState HAL_GPIO_ReadPin(const GPIO_TypeDef *GPIOx, uint16_t GPIO_Pin)
 382:STM32Cube_FW_N6/Drivers/STM32N6xx_HAL_Driver/Src/stm32n6xx_hal_gpio.c **** {
ARM GAS  /tmp/ccEPgY0u.s 			page 37


 1662              		.loc 1 382 1
 1663              		.cfi_startproc
 1664              		@ args = 0, pretend = 0, frame = 16
 1665              		@ frame_needed = 1, uses_anonymous_args = 0
 1666 0000 80B5     		push	{r7, lr}
 1667              		.cfi_def_cfa_offset 8
 1668              		.cfi_offset 7, -8
 1669              		.cfi_offset 14, -4
 1670 0002 84B0     		sub	sp, sp, #16
 1671              		.cfi_def_cfa_offset 24
 1672 0004 00AF     		add	r7, sp, #0
 1673              		.cfi_def_cfa_register 7
 1674 0006 7860     		str	r0, [r7, #4]
 1675 0008 0B46     		mov	r3, r1
 1676 000a 7B80     		strh	r3, [r7, #2]	@ movhi
 383:STM32Cube_FW_N6/Drivers/STM32N6xx_HAL_Driver/Src/stm32n6xx_hal_gpio.c ****   GPIO_PinState bitstatus;
 384:STM32Cube_FW_N6/Drivers/STM32N6xx_HAL_Driver/Src/stm32n6xx_hal_gpio.c **** 
 385:STM32Cube_FW_N6/Drivers/STM32N6xx_HAL_Driver/Src/stm32n6xx_hal_gpio.c ****   /* Check the parameters */
 386:STM32Cube_FW_N6/Drivers/STM32N6xx_HAL_Driver/Src/stm32n6xx_hal_gpio.c ****   assert_param(IS_GPIO_PIN(GPIO_Pin));
 1677              		.loc 1 386 3
 1678 000c 7B88     		ldrh	r3, [r7, #2]
 1679 000e 002B     		cmp	r3, #0
 1680 0010 04D1     		bne	.L90
 1681              		.loc 1 386 3 is_stmt 0 discriminator 1
 1682 0012 4FF4C171 		mov	r1, #386
 1683 0016 0948     		ldr	r0, .L94
 1684 0018 FFF7FEFF 		bl	assert_failed
 1685              	.L90:
 387:STM32Cube_FW_N6/Drivers/STM32N6xx_HAL_Driver/Src/stm32n6xx_hal_gpio.c **** 
 388:STM32Cube_FW_N6/Drivers/STM32N6xx_HAL_Driver/Src/stm32n6xx_hal_gpio.c ****   if ((GPIOx->IDR & GPIO_Pin) != 0x00u)
 1686              		.loc 1 388 13 is_stmt 1
 1687 001c 7B68     		ldr	r3, [r7, #4]
 1688 001e 1A69     		ldr	r2, [r3, #16]
 1689              		.loc 1 388 19
 1690 0020 7B88     		ldrh	r3, [r7, #2]
 1691 0022 1340     		ands	r3, r3, r2
 1692              		.loc 1 388 6
 1693 0024 002B     		cmp	r3, #0
 1694 0026 02D0     		beq	.L91
 389:STM32Cube_FW_N6/Drivers/STM32N6xx_HAL_Driver/Src/stm32n6xx_hal_gpio.c ****   {
 390:STM32Cube_FW_N6/Drivers/STM32N6xx_HAL_Driver/Src/stm32n6xx_hal_gpio.c ****     bitstatus = GPIO_PIN_SET;
 1695              		.loc 1 390 15
 1696 0028 0123     		movs	r3, #1
 1697 002a FB73     		strb	r3, [r7, #15]
 1698 002c 01E0     		b	.L92
 1699              	.L91:
 391:STM32Cube_FW_N6/Drivers/STM32N6xx_HAL_Driver/Src/stm32n6xx_hal_gpio.c ****   }
 392:STM32Cube_FW_N6/Drivers/STM32N6xx_HAL_Driver/Src/stm32n6xx_hal_gpio.c ****   else
 393:STM32Cube_FW_N6/Drivers/STM32N6xx_HAL_Driver/Src/stm32n6xx_hal_gpio.c ****   {
 394:STM32Cube_FW_N6/Drivers/STM32N6xx_HAL_Driver/Src/stm32n6xx_hal_gpio.c ****     bitstatus = GPIO_PIN_RESET;
 1700              		.loc 1 394 15
 1701 002e 0023     		movs	r3, #0
 1702 0030 FB73     		strb	r3, [r7, #15]
 1703              	.L92:
 395:STM32Cube_FW_N6/Drivers/STM32N6xx_HAL_Driver/Src/stm32n6xx_hal_gpio.c ****   }
 396:STM32Cube_FW_N6/Drivers/STM32N6xx_HAL_Driver/Src/stm32n6xx_hal_gpio.c ****   return bitstatus;
 1704              		.loc 1 396 10
ARM GAS  /tmp/ccEPgY0u.s 			page 38


 1705 0032 FB7B     		ldrb	r3, [r7, #15]	@ zero_extendqisi2
 397:STM32Cube_FW_N6/Drivers/STM32N6xx_HAL_Driver/Src/stm32n6xx_hal_gpio.c **** }
 1706              		.loc 1 397 1
 1707 0034 1846     		mov	r0, r3
 1708 0036 1037     		adds	r7, r7, #16
 1709              		.cfi_def_cfa_offset 8
 1710 0038 BD46     		mov	sp, r7
 1711              		.cfi_def_cfa_register 13
 1712              		@ sp needed
 1713 003a 80BD     		pop	{r7, pc}
 1714              	.L95:
 1715              		.align	2
 1716              	.L94:
 1717 003c 00000000 		.word	.LC0
 1718              		.cfi_endproc
 1719              	.LFE837:
 1721              		.section	.text.HAL_GPIO_WritePin,"ax",%progbits
 1722              		.align	1
 1723              		.global	HAL_GPIO_WritePin
 1724              		.syntax unified
 1725              		.thumb
 1726              		.thumb_func
 1728              	HAL_GPIO_WritePin:
 1729              	.LFB838:
 398:STM32Cube_FW_N6/Drivers/STM32N6xx_HAL_Driver/Src/stm32n6xx_hal_gpio.c **** 
 399:STM32Cube_FW_N6/Drivers/STM32N6xx_HAL_Driver/Src/stm32n6xx_hal_gpio.c **** /**
 400:STM32Cube_FW_N6/Drivers/STM32N6xx_HAL_Driver/Src/stm32n6xx_hal_gpio.c ****   * @brief  Set or clear the selected data port bit.
 401:STM32Cube_FW_N6/Drivers/STM32N6xx_HAL_Driver/Src/stm32n6xx_hal_gpio.c ****   * @note   This function uses GPIOx_BSRR and GPIOx_BRR registers to allow atomic read/modify
 402:STM32Cube_FW_N6/Drivers/STM32N6xx_HAL_Driver/Src/stm32n6xx_hal_gpio.c ****   *         accesses. In this way, there is no risk of an IRQ occurring between
 403:STM32Cube_FW_N6/Drivers/STM32N6xx_HAL_Driver/Src/stm32n6xx_hal_gpio.c ****   *         the read and the modify access.
 404:STM32Cube_FW_N6/Drivers/STM32N6xx_HAL_Driver/Src/stm32n6xx_hal_gpio.c ****   * @param  GPIOx where x can be (A..H and N..Q) to select the GPIO peripheral for STM32N6xx family
 405:STM32Cube_FW_N6/Drivers/STM32N6xx_HAL_Driver/Src/stm32n6xx_hal_gpio.c ****   * @param  GPIO_Pin specifies the port bit to be written.
 406:STM32Cube_FW_N6/Drivers/STM32N6xx_HAL_Driver/Src/stm32n6xx_hal_gpio.c ****   *         This parameter can be any combination of GPIO_Pin_x where x can be (0..15).
 407:STM32Cube_FW_N6/Drivers/STM32N6xx_HAL_Driver/Src/stm32n6xx_hal_gpio.c ****   * @param  PinState specifies the value to be written to the selected bit.
 408:STM32Cube_FW_N6/Drivers/STM32N6xx_HAL_Driver/Src/stm32n6xx_hal_gpio.c ****   *         This parameter can be one of the GPIO_PinState enum values:
 409:STM32Cube_FW_N6/Drivers/STM32N6xx_HAL_Driver/Src/stm32n6xx_hal_gpio.c ****   *            @arg GPIO_PIN_RESET: to clear the port pin
 410:STM32Cube_FW_N6/Drivers/STM32N6xx_HAL_Driver/Src/stm32n6xx_hal_gpio.c ****   *            @arg GPIO_PIN_SET: to set the port pin
 411:STM32Cube_FW_N6/Drivers/STM32N6xx_HAL_Driver/Src/stm32n6xx_hal_gpio.c ****   * @retval None
 412:STM32Cube_FW_N6/Drivers/STM32N6xx_HAL_Driver/Src/stm32n6xx_hal_gpio.c ****   */
 413:STM32Cube_FW_N6/Drivers/STM32N6xx_HAL_Driver/Src/stm32n6xx_hal_gpio.c **** void HAL_GPIO_WritePin(GPIO_TypeDef *GPIOx, uint16_t GPIO_Pin, GPIO_PinState PinState)
 414:STM32Cube_FW_N6/Drivers/STM32N6xx_HAL_Driver/Src/stm32n6xx_hal_gpio.c **** {
 1730              		.loc 1 414 1
 1731              		.cfi_startproc
 1732              		@ args = 0, pretend = 0, frame = 8
 1733              		@ frame_needed = 1, uses_anonymous_args = 0
 1734 0000 80B5     		push	{r7, lr}
 1735              		.cfi_def_cfa_offset 8
 1736              		.cfi_offset 7, -8
 1737              		.cfi_offset 14, -4
 1738 0002 82B0     		sub	sp, sp, #8
 1739              		.cfi_def_cfa_offset 16
 1740 0004 00AF     		add	r7, sp, #0
 1741              		.cfi_def_cfa_register 7
 1742 0006 7860     		str	r0, [r7, #4]
 1743 0008 0B46     		mov	r3, r1
 1744 000a 7B80     		strh	r3, [r7, #2]	@ movhi
 1745 000c 1346     		mov	r3, r2
ARM GAS  /tmp/ccEPgY0u.s 			page 39


 1746 000e 7B70     		strb	r3, [r7, #1]
 415:STM32Cube_FW_N6/Drivers/STM32N6xx_HAL_Driver/Src/stm32n6xx_hal_gpio.c ****   /* Check the parameters */
 416:STM32Cube_FW_N6/Drivers/STM32N6xx_HAL_Driver/Src/stm32n6xx_hal_gpio.c ****   assert_param(IS_GPIO_PIN(GPIO_Pin));
 1747              		.loc 1 416 3
 1748 0010 7B88     		ldrh	r3, [r7, #2]
 1749 0012 002B     		cmp	r3, #0
 1750 0014 04D1     		bne	.L97
 1751              		.loc 1 416 3 is_stmt 0 discriminator 1
 1752 0016 4FF4D071 		mov	r1, #416
 1753 001a 0E48     		ldr	r0, .L102
 1754 001c FFF7FEFF 		bl	assert_failed
 1755              	.L97:
 417:STM32Cube_FW_N6/Drivers/STM32N6xx_HAL_Driver/Src/stm32n6xx_hal_gpio.c ****   assert_param(IS_GPIO_PIN_ACTION(PinState));
 1756              		.loc 1 417 3 is_stmt 1
 1757 0020 7B78     		ldrb	r3, [r7, #1]	@ zero_extendqisi2
 1758 0022 002B     		cmp	r3, #0
 1759 0024 07D0     		beq	.L98
 1760              		.loc 1 417 3 is_stmt 0 discriminator 1
 1761 0026 7B78     		ldrb	r3, [r7, #1]	@ zero_extendqisi2
 1762 0028 012B     		cmp	r3, #1
 1763 002a 04D0     		beq	.L98
 1764              		.loc 1 417 3 discriminator 2
 1765 002c 40F2A111 		movw	r1, #417
 1766 0030 0848     		ldr	r0, .L102
 1767 0032 FFF7FEFF 		bl	assert_failed
 1768              	.L98:
 418:STM32Cube_FW_N6/Drivers/STM32N6xx_HAL_Driver/Src/stm32n6xx_hal_gpio.c **** 
 419:STM32Cube_FW_N6/Drivers/STM32N6xx_HAL_Driver/Src/stm32n6xx_hal_gpio.c ****   if (PinState != GPIO_PIN_RESET)
 1769              		.loc 1 419 6 is_stmt 1
 1770 0036 7B78     		ldrb	r3, [r7, #1]	@ zero_extendqisi2
 1771 0038 002B     		cmp	r3, #0
 1772 003a 03D0     		beq	.L99
 420:STM32Cube_FW_N6/Drivers/STM32N6xx_HAL_Driver/Src/stm32n6xx_hal_gpio.c ****   {
 421:STM32Cube_FW_N6/Drivers/STM32N6xx_HAL_Driver/Src/stm32n6xx_hal_gpio.c ****     GPIOx->BSRR = (uint32_t)GPIO_Pin;
 1773              		.loc 1 421 19
 1774 003c 7A88     		ldrh	r2, [r7, #2]
 1775              		.loc 1 421 17
 1776 003e 7B68     		ldr	r3, [r7, #4]
 1777 0040 9A61     		str	r2, [r3, #24]
 422:STM32Cube_FW_N6/Drivers/STM32N6xx_HAL_Driver/Src/stm32n6xx_hal_gpio.c ****   }
 423:STM32Cube_FW_N6/Drivers/STM32N6xx_HAL_Driver/Src/stm32n6xx_hal_gpio.c ****   else
 424:STM32Cube_FW_N6/Drivers/STM32N6xx_HAL_Driver/Src/stm32n6xx_hal_gpio.c ****   {
 425:STM32Cube_FW_N6/Drivers/STM32N6xx_HAL_Driver/Src/stm32n6xx_hal_gpio.c ****     GPIOx->BRR = (uint32_t)GPIO_Pin;
 426:STM32Cube_FW_N6/Drivers/STM32N6xx_HAL_Driver/Src/stm32n6xx_hal_gpio.c ****   }
 427:STM32Cube_FW_N6/Drivers/STM32N6xx_HAL_Driver/Src/stm32n6xx_hal_gpio.c **** }
 1778              		.loc 1 427 1
 1779 0042 02E0     		b	.L101
 1780              	.L99:
 425:STM32Cube_FW_N6/Drivers/STM32N6xx_HAL_Driver/Src/stm32n6xx_hal_gpio.c ****   }
 1781              		.loc 1 425 18
 1782 0044 7A88     		ldrh	r2, [r7, #2]
 425:STM32Cube_FW_N6/Drivers/STM32N6xx_HAL_Driver/Src/stm32n6xx_hal_gpio.c ****   }
 1783              		.loc 1 425 16
 1784 0046 7B68     		ldr	r3, [r7, #4]
 1785 0048 9A62     		str	r2, [r3, #40]
 1786              	.L101:
 1787              		.loc 1 427 1
ARM GAS  /tmp/ccEPgY0u.s 			page 40


 1788 004a 00BF     		nop
 1789 004c 0837     		adds	r7, r7, #8
 1790              		.cfi_def_cfa_offset 8
 1791 004e BD46     		mov	sp, r7
 1792              		.cfi_def_cfa_register 13
 1793              		@ sp needed
 1794 0050 80BD     		pop	{r7, pc}
 1795              	.L103:
 1796 0052 00BF     		.align	2
 1797              	.L102:
 1798 0054 00000000 		.word	.LC0
 1799              		.cfi_endproc
 1800              	.LFE838:
 1802              		.section	.text.HAL_GPIO_TogglePin,"ax",%progbits
 1803              		.align	1
 1804              		.global	HAL_GPIO_TogglePin
 1805              		.syntax unified
 1806              		.thumb
 1807              		.thumb_func
 1809              	HAL_GPIO_TogglePin:
 1810              	.LFB839:
 428:STM32Cube_FW_N6/Drivers/STM32N6xx_HAL_Driver/Src/stm32n6xx_hal_gpio.c **** 
 429:STM32Cube_FW_N6/Drivers/STM32N6xx_HAL_Driver/Src/stm32n6xx_hal_gpio.c **** /**
 430:STM32Cube_FW_N6/Drivers/STM32N6xx_HAL_Driver/Src/stm32n6xx_hal_gpio.c ****   * @brief  Toggle the specified GPIO pin.
 431:STM32Cube_FW_N6/Drivers/STM32N6xx_HAL_Driver/Src/stm32n6xx_hal_gpio.c ****   * @param  GPIOx where x can be (A..H and N..Q) to select the GPIO peripheral for STM32N6xx family
 432:STM32Cube_FW_N6/Drivers/STM32N6xx_HAL_Driver/Src/stm32n6xx_hal_gpio.c ****   * @param  GPIO_Pin specifies the pin to be toggled.
 433:STM32Cube_FW_N6/Drivers/STM32N6xx_HAL_Driver/Src/stm32n6xx_hal_gpio.c ****   *         This parameter can be any combination of GPIO_Pin_x where x can be (0..15).
 434:STM32Cube_FW_N6/Drivers/STM32N6xx_HAL_Driver/Src/stm32n6xx_hal_gpio.c ****   * @retval None
 435:STM32Cube_FW_N6/Drivers/STM32N6xx_HAL_Driver/Src/stm32n6xx_hal_gpio.c ****   */
 436:STM32Cube_FW_N6/Drivers/STM32N6xx_HAL_Driver/Src/stm32n6xx_hal_gpio.c **** void HAL_GPIO_TogglePin(GPIO_TypeDef *GPIOx, uint16_t GPIO_Pin)
 437:STM32Cube_FW_N6/Drivers/STM32N6xx_HAL_Driver/Src/stm32n6xx_hal_gpio.c **** {
 1811              		.loc 1 437 1
 1812              		.cfi_startproc
 1813              		@ args = 0, pretend = 0, frame = 16
 1814              		@ frame_needed = 1, uses_anonymous_args = 0
 1815 0000 80B5     		push	{r7, lr}
 1816              		.cfi_def_cfa_offset 8
 1817              		.cfi_offset 7, -8
 1818              		.cfi_offset 14, -4
 1819 0002 84B0     		sub	sp, sp, #16
 1820              		.cfi_def_cfa_offset 24
 1821 0004 00AF     		add	r7, sp, #0
 1822              		.cfi_def_cfa_register 7
 1823 0006 7860     		str	r0, [r7, #4]
 1824 0008 0B46     		mov	r3, r1
 1825 000a 7B80     		strh	r3, [r7, #2]	@ movhi
 438:STM32Cube_FW_N6/Drivers/STM32N6xx_HAL_Driver/Src/stm32n6xx_hal_gpio.c ****   uint32_t odr;
 439:STM32Cube_FW_N6/Drivers/STM32N6xx_HAL_Driver/Src/stm32n6xx_hal_gpio.c **** 
 440:STM32Cube_FW_N6/Drivers/STM32N6xx_HAL_Driver/Src/stm32n6xx_hal_gpio.c ****   /* Check the parameters */
 441:STM32Cube_FW_N6/Drivers/STM32N6xx_HAL_Driver/Src/stm32n6xx_hal_gpio.c ****   assert_param(IS_GPIO_PIN(GPIO_Pin));
 1826              		.loc 1 441 3
 1827 000c 7B88     		ldrh	r3, [r7, #2]
 1828 000e 002B     		cmp	r3, #0
 1829 0010 04D1     		bne	.L105
 1830              		.loc 1 441 3 is_stmt 0 discriminator 1
 1831 0012 40F2B911 		movw	r1, #441
 1832 0016 0A48     		ldr	r0, .L106
ARM GAS  /tmp/ccEPgY0u.s 			page 41


 1833 0018 FFF7FEFF 		bl	assert_failed
 1834              	.L105:
 442:STM32Cube_FW_N6/Drivers/STM32N6xx_HAL_Driver/Src/stm32n6xx_hal_gpio.c **** 
 443:STM32Cube_FW_N6/Drivers/STM32N6xx_HAL_Driver/Src/stm32n6xx_hal_gpio.c ****   /* get current Output Data Register value */
 444:STM32Cube_FW_N6/Drivers/STM32N6xx_HAL_Driver/Src/stm32n6xx_hal_gpio.c ****   odr = GPIOx->ODR;
 1835              		.loc 1 444 7 is_stmt 1
 1836 001c 7B68     		ldr	r3, [r7, #4]
 1837 001e 5B69     		ldr	r3, [r3, #20]
 1838 0020 FB60     		str	r3, [r7, #12]
 445:STM32Cube_FW_N6/Drivers/STM32N6xx_HAL_Driver/Src/stm32n6xx_hal_gpio.c **** 
 446:STM32Cube_FW_N6/Drivers/STM32N6xx_HAL_Driver/Src/stm32n6xx_hal_gpio.c ****   /* Set selected pins that were at low level, and reset ones that were high */
 447:STM32Cube_FW_N6/Drivers/STM32N6xx_HAL_Driver/Src/stm32n6xx_hal_gpio.c ****   GPIOx->BSRR = ((odr & GPIO_Pin) << GPIO_NUMBER) | (~odr & GPIO_Pin);
 1839              		.loc 1 447 23
 1840 0022 7A88     		ldrh	r2, [r7, #2]
 1841 0024 FB68     		ldr	r3, [r7, #12]
 1842 0026 1340     		ands	r3, r3, r2
 1843              		.loc 1 447 35
 1844 0028 1A04     		lsls	r2, r3, #16
 1845              		.loc 1 447 54
 1846 002a FB68     		ldr	r3, [r7, #12]
 1847 002c D943     		mvns	r1, r3
 1848              		.loc 1 447 59
 1849 002e 7B88     		ldrh	r3, [r7, #2]
 1850 0030 0B40     		ands	r3, r3, r1
 1851              		.loc 1 447 51
 1852 0032 1A43     		orrs	r2, r2, r3
 1853              		.loc 1 447 15
 1854 0034 7B68     		ldr	r3, [r7, #4]
 1855 0036 9A61     		str	r2, [r3, #24]
 448:STM32Cube_FW_N6/Drivers/STM32N6xx_HAL_Driver/Src/stm32n6xx_hal_gpio.c **** }
 1856              		.loc 1 448 1
 1857 0038 00BF     		nop
 1858 003a 1037     		adds	r7, r7, #16
 1859              		.cfi_def_cfa_offset 8
 1860 003c BD46     		mov	sp, r7
 1861              		.cfi_def_cfa_register 13
 1862              		@ sp needed
 1863 003e 80BD     		pop	{r7, pc}
 1864              	.L107:
 1865              		.align	2
 1866              	.L106:
 1867 0040 00000000 		.word	.LC0
 1868              		.cfi_endproc
 1869              	.LFE839:
 1871              		.section	.text.HAL_GPIO_WriteMultipleStatePin,"ax",%progbits
 1872              		.align	1
 1873              		.global	HAL_GPIO_WriteMultipleStatePin
 1874              		.syntax unified
 1875              		.thumb
 1876              		.thumb_func
 1878              	HAL_GPIO_WriteMultipleStatePin:
 1879              	.LFB840:
 449:STM32Cube_FW_N6/Drivers/STM32N6xx_HAL_Driver/Src/stm32n6xx_hal_gpio.c **** 
 450:STM32Cube_FW_N6/Drivers/STM32N6xx_HAL_Driver/Src/stm32n6xx_hal_gpio.c **** /**
 451:STM32Cube_FW_N6/Drivers/STM32N6xx_HAL_Driver/Src/stm32n6xx_hal_gpio.c ****   * @brief  Set and clear several pins of a dedicated port in same cycle.
 452:STM32Cube_FW_N6/Drivers/STM32N6xx_HAL_Driver/Src/stm32n6xx_hal_gpio.c ****   * @param  GPIOx where x can be (A..H and N..Q) to select the GPIO peripheral for STM32N6xx family
 453:STM32Cube_FW_N6/Drivers/STM32N6xx_HAL_Driver/Src/stm32n6xx_hal_gpio.c ****   * @param  PinReset specifies the port bits to be reset
ARM GAS  /tmp/ccEPgY0u.s 			page 42


 454:STM32Cube_FW_N6/Drivers/STM32N6xx_HAL_Driver/Src/stm32n6xx_hal_gpio.c ****   *         This parameter can be any combination of GPIO_Pin_x where x can be (0..15) or zero.
 455:STM32Cube_FW_N6/Drivers/STM32N6xx_HAL_Driver/Src/stm32n6xx_hal_gpio.c ****   * @param  PinSet specifies the port bits to be set
 456:STM32Cube_FW_N6/Drivers/STM32N6xx_HAL_Driver/Src/stm32n6xx_hal_gpio.c ****   *         This parameter can be any combination of GPIO_Pin_x where x can be (0..15) or zero.
 457:STM32Cube_FW_N6/Drivers/STM32N6xx_HAL_Driver/Src/stm32n6xx_hal_gpio.c ****   * @note   Both PinReset and PinSet combinations shall not get any common bit, else
 458:STM32Cube_FW_N6/Drivers/STM32N6xx_HAL_Driver/Src/stm32n6xx_hal_gpio.c ****   *         assert would be triggered.
 459:STM32Cube_FW_N6/Drivers/STM32N6xx_HAL_Driver/Src/stm32n6xx_hal_gpio.c ****   * @note   At least one of the two parameters used to set or reset shall be different from zero.
 460:STM32Cube_FW_N6/Drivers/STM32N6xx_HAL_Driver/Src/stm32n6xx_hal_gpio.c ****   * @retval None
 461:STM32Cube_FW_N6/Drivers/STM32N6xx_HAL_Driver/Src/stm32n6xx_hal_gpio.c ****   */
 462:STM32Cube_FW_N6/Drivers/STM32N6xx_HAL_Driver/Src/stm32n6xx_hal_gpio.c **** void HAL_GPIO_WriteMultipleStatePin(GPIO_TypeDef *GPIOx, uint16_t PinReset, uint16_t PinSet)
 463:STM32Cube_FW_N6/Drivers/STM32N6xx_HAL_Driver/Src/stm32n6xx_hal_gpio.c **** {
 1880              		.loc 1 463 1
 1881              		.cfi_startproc
 1882              		@ args = 0, pretend = 0, frame = 16
 1883              		@ frame_needed = 1, uses_anonymous_args = 0
 1884 0000 80B5     		push	{r7, lr}
 1885              		.cfi_def_cfa_offset 8
 1886              		.cfi_offset 7, -8
 1887              		.cfi_offset 14, -4
 1888 0002 84B0     		sub	sp, sp, #16
 1889              		.cfi_def_cfa_offset 24
 1890 0004 00AF     		add	r7, sp, #0
 1891              		.cfi_def_cfa_register 7
 1892 0006 7860     		str	r0, [r7, #4]
 1893 0008 0B46     		mov	r3, r1
 1894 000a 7B80     		strh	r3, [r7, #2]	@ movhi
 1895 000c 1346     		mov	r3, r2	@ movhi
 1896 000e 3B80     		strh	r3, [r7]	@ movhi
 464:STM32Cube_FW_N6/Drivers/STM32N6xx_HAL_Driver/Src/stm32n6xx_hal_gpio.c ****   uint32_t tmp;
 465:STM32Cube_FW_N6/Drivers/STM32N6xx_HAL_Driver/Src/stm32n6xx_hal_gpio.c **** 
 466:STM32Cube_FW_N6/Drivers/STM32N6xx_HAL_Driver/Src/stm32n6xx_hal_gpio.c ****   /* Check the parameters */
 467:STM32Cube_FW_N6/Drivers/STM32N6xx_HAL_Driver/Src/stm32n6xx_hal_gpio.c ****   /* Make sure at least one parameter is different from zero and that there is no common pin */
 468:STM32Cube_FW_N6/Drivers/STM32N6xx_HAL_Driver/Src/stm32n6xx_hal_gpio.c ****   assert_param(IS_GPIO_PIN((uint32_t)PinReset | (uint32_t)PinSet));
 1897              		.loc 1 468 3
 1898 0010 7A88     		ldrh	r2, [r7, #2]	@ movhi
 1899 0012 3B88     		ldrh	r3, [r7]	@ movhi
 1900 0014 1343     		orrs	r3, r3, r2
 1901 0016 9BB2     		uxth	r3, r3
 1902 0018 002B     		cmp	r3, #0
 1903 001a 04D1     		bne	.L109
 1904              		.loc 1 468 3 is_stmt 0 discriminator 1
 1905 001c 4FF4EA71 		mov	r1, #468
 1906 0020 0C48     		ldr	r0, .L111
 1907 0022 FFF7FEFF 		bl	assert_failed
 1908              	.L109:
 469:STM32Cube_FW_N6/Drivers/STM32N6xx_HAL_Driver/Src/stm32n6xx_hal_gpio.c ****   assert_param(IS_GPIO_COMMON_PIN(PinReset, PinSet));
 1909              		.loc 1 469 3 is_stmt 1
 1910 0026 7A88     		ldrh	r2, [r7, #2]	@ movhi
 1911 0028 3B88     		ldrh	r3, [r7]	@ movhi
 1912 002a 1340     		ands	r3, r3, r2
 1913 002c 9BB2     		uxth	r3, r3
 1914 002e 002B     		cmp	r3, #0
 1915 0030 04D0     		beq	.L110
 1916              		.loc 1 469 3 is_stmt 0 discriminator 1
 1917 0032 40F2D511 		movw	r1, #469
 1918 0036 0748     		ldr	r0, .L111
 1919 0038 FFF7FEFF 		bl	assert_failed
 1920              	.L110:
ARM GAS  /tmp/ccEPgY0u.s 			page 43


 470:STM32Cube_FW_N6/Drivers/STM32N6xx_HAL_Driver/Src/stm32n6xx_hal_gpio.c **** 
 471:STM32Cube_FW_N6/Drivers/STM32N6xx_HAL_Driver/Src/stm32n6xx_hal_gpio.c ****   tmp = (((uint32_t)PinReset << 16) | PinSet);
 1921              		.loc 1 471 11 is_stmt 1
 1922 003c 7B88     		ldrh	r3, [r7, #2]
 1923              		.loc 1 471 30
 1924 003e 1A04     		lsls	r2, r3, #16
 1925              		.loc 1 471 37
 1926 0040 3B88     		ldrh	r3, [r7]
 1927              		.loc 1 471 7
 1928 0042 1343     		orrs	r3, r3, r2
 1929 0044 FB60     		str	r3, [r7, #12]
 472:STM32Cube_FW_N6/Drivers/STM32N6xx_HAL_Driver/Src/stm32n6xx_hal_gpio.c ****   GPIOx->BSRR = tmp;
 1930              		.loc 1 472 15
 1931 0046 7B68     		ldr	r3, [r7, #4]
 1932 0048 FA68     		ldr	r2, [r7, #12]
 1933 004a 9A61     		str	r2, [r3, #24]
 473:STM32Cube_FW_N6/Drivers/STM32N6xx_HAL_Driver/Src/stm32n6xx_hal_gpio.c **** }
 1934              		.loc 1 473 1
 1935 004c 00BF     		nop
 1936 004e 1037     		adds	r7, r7, #16
 1937              		.cfi_def_cfa_offset 8
 1938 0050 BD46     		mov	sp, r7
 1939              		.cfi_def_cfa_register 13
 1940              		@ sp needed
 1941 0052 80BD     		pop	{r7, pc}
 1942              	.L112:
 1943              		.align	2
 1944              	.L111:
 1945 0054 00000000 		.word	.LC0
 1946              		.cfi_endproc
 1947              	.LFE840:
 1949              		.section	.text.HAL_GPIO_LockPin,"ax",%progbits
 1950              		.align	1
 1951              		.global	HAL_GPIO_LockPin
 1952              		.syntax unified
 1953              		.thumb
 1954              		.thumb_func
 1956              	HAL_GPIO_LockPin:
 1957              	.LFB841:
 474:STM32Cube_FW_N6/Drivers/STM32N6xx_HAL_Driver/Src/stm32n6xx_hal_gpio.c **** 
 475:STM32Cube_FW_N6/Drivers/STM32N6xx_HAL_Driver/Src/stm32n6xx_hal_gpio.c **** /**
 476:STM32Cube_FW_N6/Drivers/STM32N6xx_HAL_Driver/Src/stm32n6xx_hal_gpio.c ****   * @brief  Lock GPIO Pins configuration registers.
 477:STM32Cube_FW_N6/Drivers/STM32N6xx_HAL_Driver/Src/stm32n6xx_hal_gpio.c ****   * @note   The locked registers are GPIOx_MODER, GPIOx_OTYPER, GPIOx_OSPEEDR,
 478:STM32Cube_FW_N6/Drivers/STM32N6xx_HAL_Driver/Src/stm32n6xx_hal_gpio.c ****   *         GPIOx_PUPDR, GPIOx_AFRL, GPIOx_AFRH, GPIOx_DELAYRL, GPIOx_DELAYRH, GPIOx_ADVCFGRL, GPIO
 479:STM32Cube_FW_N6/Drivers/STM32N6xx_HAL_Driver/Src/stm32n6xx_hal_gpio.c ****   * @note   The configuration of the locked GPIO pins can no longer be modified until the next rese
 480:STM32Cube_FW_N6/Drivers/STM32N6xx_HAL_Driver/Src/stm32n6xx_hal_gpio.c ****   * @param  GPIOx where x can be (A..H and N..Q) to select the GPIO peripheral for STM32N6xx family
 481:STM32Cube_FW_N6/Drivers/STM32N6xx_HAL_Driver/Src/stm32n6xx_hal_gpio.c ****   * @param  GPIO_Pin specifies the port bits to be locked.
 482:STM32Cube_FW_N6/Drivers/STM32N6xx_HAL_Driver/Src/stm32n6xx_hal_gpio.c ****   *         This parameter can be any combination of GPIO_Pin_x where x can be (0..15).
 483:STM32Cube_FW_N6/Drivers/STM32N6xx_HAL_Driver/Src/stm32n6xx_hal_gpio.c ****   * @retval HAL_OK if success, HAL_ERROR otherwise
 484:STM32Cube_FW_N6/Drivers/STM32N6xx_HAL_Driver/Src/stm32n6xx_hal_gpio.c ****   */
 485:STM32Cube_FW_N6/Drivers/STM32N6xx_HAL_Driver/Src/stm32n6xx_hal_gpio.c **** HAL_StatusTypeDef HAL_GPIO_LockPin(GPIO_TypeDef *GPIOx, uint16_t GPIO_Pin)
 486:STM32Cube_FW_N6/Drivers/STM32N6xx_HAL_Driver/Src/stm32n6xx_hal_gpio.c **** {
 1958              		.loc 1 486 1
 1959              		.cfi_startproc
 1960              		@ args = 0, pretend = 0, frame = 16
 1961              		@ frame_needed = 1, uses_anonymous_args = 0
 1962 0000 80B5     		push	{r7, lr}
ARM GAS  /tmp/ccEPgY0u.s 			page 44


 1963              		.cfi_def_cfa_offset 8
 1964              		.cfi_offset 7, -8
 1965              		.cfi_offset 14, -4
 1966 0002 84B0     		sub	sp, sp, #16
 1967              		.cfi_def_cfa_offset 24
 1968 0004 00AF     		add	r7, sp, #0
 1969              		.cfi_def_cfa_register 7
 1970 0006 7860     		str	r0, [r7, #4]
 1971 0008 0B46     		mov	r3, r1
 1972 000a 7B80     		strh	r3, [r7, #2]	@ movhi
 487:STM32Cube_FW_N6/Drivers/STM32N6xx_HAL_Driver/Src/stm32n6xx_hal_gpio.c ****   __IO uint32_t tmp = GPIO_LCKR_LCKK;
 1973              		.loc 1 487 17
 1974 000c 4FF48033 		mov	r3, #65536
 1975 0010 FB60     		str	r3, [r7, #12]
 488:STM32Cube_FW_N6/Drivers/STM32N6xx_HAL_Driver/Src/stm32n6xx_hal_gpio.c **** 
 489:STM32Cube_FW_N6/Drivers/STM32N6xx_HAL_Driver/Src/stm32n6xx_hal_gpio.c ****   /* Check the parameters */
 490:STM32Cube_FW_N6/Drivers/STM32N6xx_HAL_Driver/Src/stm32n6xx_hal_gpio.c ****   assert_param(IS_GPIO_LOCK_INSTANCE(GPIOx));
 1976              		.loc 1 490 3
 1977 0012 7B68     		ldr	r3, [r7, #4]
 1978 0014 444A     		ldr	r2, .L118
 1979 0016 9342     		cmp	r3, r2
 1980 0018 60D0     		beq	.L114
 1981              		.loc 1 490 3 is_stmt 0 discriminator 1
 1982 001a 7B68     		ldr	r3, [r7, #4]
 1983 001c 434A     		ldr	r2, .L118+4
 1984 001e 9342     		cmp	r3, r2
 1985 0020 5CD0     		beq	.L114
 1986              		.loc 1 490 3 discriminator 2
 1987 0022 7B68     		ldr	r3, [r7, #4]
 1988 0024 424A     		ldr	r2, .L118+8
 1989 0026 9342     		cmp	r3, r2
 1990 0028 58D0     		beq	.L114
 1991              		.loc 1 490 3 discriminator 3
 1992 002a 7B68     		ldr	r3, [r7, #4]
 1993 002c 414A     		ldr	r2, .L118+12
 1994 002e 9342     		cmp	r3, r2
 1995 0030 54D0     		beq	.L114
 1996              		.loc 1 490 3 discriminator 4
 1997 0032 7B68     		ldr	r3, [r7, #4]
 1998 0034 404A     		ldr	r2, .L118+16
 1999 0036 9342     		cmp	r3, r2
 2000 0038 50D0     		beq	.L114
 2001              		.loc 1 490 3 discriminator 5
 2002 003a 7B68     		ldr	r3, [r7, #4]
 2003 003c 3F4A     		ldr	r2, .L118+20
 2004 003e 9342     		cmp	r3, r2
 2005 0040 4CD0     		beq	.L114
 2006              		.loc 1 490 3 discriminator 6
 2007 0042 7B68     		ldr	r3, [r7, #4]
 2008 0044 3E4A     		ldr	r2, .L118+24
 2009 0046 9342     		cmp	r3, r2
 2010 0048 48D0     		beq	.L114
 2011              		.loc 1 490 3 discriminator 7
 2012 004a 7B68     		ldr	r3, [r7, #4]
 2013 004c 3D4A     		ldr	r2, .L118+28
 2014 004e 9342     		cmp	r3, r2
 2015 0050 44D0     		beq	.L114
ARM GAS  /tmp/ccEPgY0u.s 			page 45


 2016              		.loc 1 490 3 discriminator 8
 2017 0052 7B68     		ldr	r3, [r7, #4]
 2018 0054 3C4A     		ldr	r2, .L118+32
 2019 0056 9342     		cmp	r3, r2
 2020 0058 40D0     		beq	.L114
 2021              		.loc 1 490 3 discriminator 9
 2022 005a 7B68     		ldr	r3, [r7, #4]
 2023 005c 3B4A     		ldr	r2, .L118+36
 2024 005e 9342     		cmp	r3, r2
 2025 0060 3CD0     		beq	.L114
 2026              		.loc 1 490 3 discriminator 10
 2027 0062 7B68     		ldr	r3, [r7, #4]
 2028 0064 3A4A     		ldr	r2, .L118+40
 2029 0066 9342     		cmp	r3, r2
 2030 0068 38D0     		beq	.L114
 2031              		.loc 1 490 3 discriminator 11
 2032 006a 7B68     		ldr	r3, [r7, #4]
 2033 006c 394A     		ldr	r2, .L118+44
 2034 006e 9342     		cmp	r3, r2
 2035 0070 34D0     		beq	.L114
 2036              		.loc 1 490 3 discriminator 12
 2037 0072 7B68     		ldr	r3, [r7, #4]
 2038 0074 384A     		ldr	r2, .L118+48
 2039 0076 9342     		cmp	r3, r2
 2040 0078 30D0     		beq	.L114
 2041              		.loc 1 490 3 discriminator 13
 2042 007a 7B68     		ldr	r3, [r7, #4]
 2043 007c 374A     		ldr	r2, .L118+52
 2044 007e 9342     		cmp	r3, r2
 2045 0080 2CD0     		beq	.L114
 2046              		.loc 1 490 3 discriminator 14
 2047 0082 7B68     		ldr	r3, [r7, #4]
 2048 0084 364A     		ldr	r2, .L118+56
 2049 0086 9342     		cmp	r3, r2
 2050 0088 28D0     		beq	.L114
 2051              		.loc 1 490 3 discriminator 15
 2052 008a 7B68     		ldr	r3, [r7, #4]
 2053 008c 354A     		ldr	r2, .L118+60
 2054 008e 9342     		cmp	r3, r2
 2055 0090 24D0     		beq	.L114
 2056              		.loc 1 490 3 discriminator 16
 2057 0092 7B68     		ldr	r3, [r7, #4]
 2058 0094 344A     		ldr	r2, .L118+64
 2059 0096 9342     		cmp	r3, r2
 2060 0098 20D0     		beq	.L114
 2061              		.loc 1 490 3 discriminator 17
 2062 009a 7B68     		ldr	r3, [r7, #4]
 2063 009c 334A     		ldr	r2, .L118+68
 2064 009e 9342     		cmp	r3, r2
 2065 00a0 1CD0     		beq	.L114
 2066              		.loc 1 490 3 discriminator 18
 2067 00a2 7B68     		ldr	r3, [r7, #4]
 2068 00a4 324A     		ldr	r2, .L118+72
 2069 00a6 9342     		cmp	r3, r2
 2070 00a8 18D0     		beq	.L114
 2071              		.loc 1 490 3 discriminator 19
 2072 00aa 7B68     		ldr	r3, [r7, #4]
ARM GAS  /tmp/ccEPgY0u.s 			page 46


 2073 00ac 314A     		ldr	r2, .L118+76
 2074 00ae 9342     		cmp	r3, r2
 2075 00b0 14D0     		beq	.L114
 2076              		.loc 1 490 3 discriminator 20
 2077 00b2 7B68     		ldr	r3, [r7, #4]
 2078 00b4 304A     		ldr	r2, .L118+80
 2079 00b6 9342     		cmp	r3, r2
 2080 00b8 10D0     		beq	.L114
 2081              		.loc 1 490 3 discriminator 21
 2082 00ba 7B68     		ldr	r3, [r7, #4]
 2083 00bc 2F4A     		ldr	r2, .L118+84
 2084 00be 9342     		cmp	r3, r2
 2085 00c0 0CD0     		beq	.L114
 2086              		.loc 1 490 3 discriminator 22
 2087 00c2 7B68     		ldr	r3, [r7, #4]
 2088 00c4 2E4A     		ldr	r2, .L118+88
 2089 00c6 9342     		cmp	r3, r2
 2090 00c8 08D0     		beq	.L114
 2091              		.loc 1 490 3 discriminator 23
 2092 00ca 7B68     		ldr	r3, [r7, #4]
 2093 00cc 2D4A     		ldr	r2, .L118+92
 2094 00ce 9342     		cmp	r3, r2
 2095 00d0 04D0     		beq	.L114
 2096              		.loc 1 490 3 discriminator 24
 2097 00d2 4FF4F571 		mov	r1, #490
 2098 00d6 2C48     		ldr	r0, .L118+96
 2099 00d8 FFF7FEFF 		bl	assert_failed
 2100              	.L114:
 491:STM32Cube_FW_N6/Drivers/STM32N6xx_HAL_Driver/Src/stm32n6xx_hal_gpio.c ****   assert_param(IS_GPIO_PIN(GPIO_Pin));
 2101              		.loc 1 491 3 is_stmt 1
 2102 00dc 7B88     		ldrh	r3, [r7, #2]
 2103 00de 002B     		cmp	r3, #0
 2104 00e0 04D1     		bne	.L115
 2105              		.loc 1 491 3 is_stmt 0 discriminator 1
 2106 00e2 40F2EB11 		movw	r1, #491
 2107 00e6 2848     		ldr	r0, .L118+96
 2108 00e8 FFF7FEFF 		bl	assert_failed
 2109              	.L115:
 492:STM32Cube_FW_N6/Drivers/STM32N6xx_HAL_Driver/Src/stm32n6xx_hal_gpio.c **** 
 493:STM32Cube_FW_N6/Drivers/STM32N6xx_HAL_Driver/Src/stm32n6xx_hal_gpio.c ****   /* Apply lock key write sequence */
 494:STM32Cube_FW_N6/Drivers/STM32N6xx_HAL_Driver/Src/stm32n6xx_hal_gpio.c ****   tmp |= GPIO_Pin;
 2110              		.loc 1 494 7 is_stmt 1
 2111 00ec 7A88     		ldrh	r2, [r7, #2]
 2112 00ee FB68     		ldr	r3, [r7, #12]
 2113 00f0 1343     		orrs	r3, r3, r2
 2114 00f2 FB60     		str	r3, [r7, #12]
 495:STM32Cube_FW_N6/Drivers/STM32N6xx_HAL_Driver/Src/stm32n6xx_hal_gpio.c ****   /* Set LCKx bit(s): LCKK='1' + LCK[15-0] */
 496:STM32Cube_FW_N6/Drivers/STM32N6xx_HAL_Driver/Src/stm32n6xx_hal_gpio.c ****   GPIOx->LCKR = tmp;
 2115              		.loc 1 496 15
 2116 00f4 FA68     		ldr	r2, [r7, #12]
 2117 00f6 7B68     		ldr	r3, [r7, #4]
 2118 00f8 DA61     		str	r2, [r3, #28]
 497:STM32Cube_FW_N6/Drivers/STM32N6xx_HAL_Driver/Src/stm32n6xx_hal_gpio.c ****   /* Reset LCKx bit(s): LCKK='0' + LCK[15-0] */
 498:STM32Cube_FW_N6/Drivers/STM32N6xx_HAL_Driver/Src/stm32n6xx_hal_gpio.c ****   GPIOx->LCKR = GPIO_Pin;
 2119              		.loc 1 498 15
 2120 00fa 7A88     		ldrh	r2, [r7, #2]
 2121 00fc 7B68     		ldr	r3, [r7, #4]
ARM GAS  /tmp/ccEPgY0u.s 			page 47


 2122 00fe DA61     		str	r2, [r3, #28]
 499:STM32Cube_FW_N6/Drivers/STM32N6xx_HAL_Driver/Src/stm32n6xx_hal_gpio.c ****   /* Set LCKx bit(s): LCKK='1' + LCK[15-0] */
 500:STM32Cube_FW_N6/Drivers/STM32N6xx_HAL_Driver/Src/stm32n6xx_hal_gpio.c ****   GPIOx->LCKR = tmp;
 2123              		.loc 1 500 15
 2124 0100 FA68     		ldr	r2, [r7, #12]
 2125 0102 7B68     		ldr	r3, [r7, #4]
 2126 0104 DA61     		str	r2, [r3, #28]
 501:STM32Cube_FW_N6/Drivers/STM32N6xx_HAL_Driver/Src/stm32n6xx_hal_gpio.c ****   /* Read LCKK register. This read is mandatory to complete key lock sequence */
 502:STM32Cube_FW_N6/Drivers/STM32N6xx_HAL_Driver/Src/stm32n6xx_hal_gpio.c ****   tmp = GPIOx->LCKR;
 2127              		.loc 1 502 14
 2128 0106 7B68     		ldr	r3, [r7, #4]
 2129 0108 DB69     		ldr	r3, [r3, #28]
 2130              		.loc 1 502 7
 2131 010a FB60     		str	r3, [r7, #12]
 503:STM32Cube_FW_N6/Drivers/STM32N6xx_HAL_Driver/Src/stm32n6xx_hal_gpio.c **** 
 504:STM32Cube_FW_N6/Drivers/STM32N6xx_HAL_Driver/Src/stm32n6xx_hal_gpio.c ****   /* read again in order to confirm lock is active */
 505:STM32Cube_FW_N6/Drivers/STM32N6xx_HAL_Driver/Src/stm32n6xx_hal_gpio.c ****   if ((GPIOx->LCKR & GPIO_LCKR_LCKK) != 0x00u)
 2132              		.loc 1 505 13
 2133 010c 7B68     		ldr	r3, [r7, #4]
 2134 010e DB69     		ldr	r3, [r3, #28]
 2135              		.loc 1 505 20
 2136 0110 03F48033 		and	r3, r3, #65536
 2137              		.loc 1 505 6
 2138 0114 002B     		cmp	r3, #0
 2139 0116 01D0     		beq	.L116
 506:STM32Cube_FW_N6/Drivers/STM32N6xx_HAL_Driver/Src/stm32n6xx_hal_gpio.c ****   {
 507:STM32Cube_FW_N6/Drivers/STM32N6xx_HAL_Driver/Src/stm32n6xx_hal_gpio.c ****     return HAL_OK;
 2140              		.loc 1 507 12
 2141 0118 0023     		movs	r3, #0
 2142 011a 00E0     		b	.L117
 2143              	.L116:
 508:STM32Cube_FW_N6/Drivers/STM32N6xx_HAL_Driver/Src/stm32n6xx_hal_gpio.c ****   }
 509:STM32Cube_FW_N6/Drivers/STM32N6xx_HAL_Driver/Src/stm32n6xx_hal_gpio.c ****   else
 510:STM32Cube_FW_N6/Drivers/STM32N6xx_HAL_Driver/Src/stm32n6xx_hal_gpio.c ****   {
 511:STM32Cube_FW_N6/Drivers/STM32N6xx_HAL_Driver/Src/stm32n6xx_hal_gpio.c ****     return HAL_ERROR;
 2144              		.loc 1 511 12
 2145 011c 0123     		movs	r3, #1
 2146              	.L117:
 512:STM32Cube_FW_N6/Drivers/STM32N6xx_HAL_Driver/Src/stm32n6xx_hal_gpio.c ****   }
 513:STM32Cube_FW_N6/Drivers/STM32N6xx_HAL_Driver/Src/stm32n6xx_hal_gpio.c **** }
 2147              		.loc 1 513 1
 2148 011e 1846     		mov	r0, r3
 2149 0120 1037     		adds	r7, r7, #16
 2150              		.cfi_def_cfa_offset 8
 2151 0122 BD46     		mov	sp, r7
 2152              		.cfi_def_cfa_register 13
 2153              		@ sp needed
 2154 0124 80BD     		pop	{r7, pc}
 2155              	.L119:
 2156 0126 00BF     		.align	2
 2157              	.L118:
 2158 0128 00000256 		.word	1442971648
 2159 012c 00000246 		.word	1174536192
 2160 0130 00040256 		.word	1442972672
 2161 0134 00040246 		.word	1174537216
 2162 0138 00080256 		.word	1442973696
 2163 013c 00080246 		.word	1174538240
ARM GAS  /tmp/ccEPgY0u.s 			page 48


 2164 0140 000C0256 		.word	1442974720
 2165 0144 000C0246 		.word	1174539264
 2166 0148 00100256 		.word	1442975744
 2167 014c 00100246 		.word	1174540288
 2168 0150 00140256 		.word	1442976768
 2169 0154 00140246 		.word	1174541312
 2170 0158 00180256 		.word	1442977792
 2171 015c 00180246 		.word	1174542336
 2172 0160 001C0256 		.word	1442978816
 2173 0164 001C0246 		.word	1174543360
 2174 0168 00340256 		.word	1442984960
 2175 016c 00340246 		.word	1174549504
 2176 0170 00380256 		.word	1442985984
 2177 0174 00380246 		.word	1174550528
 2178 0178 003C0256 		.word	1442987008
 2179 017c 003C0246 		.word	1174551552
 2180 0180 00400256 		.word	1442988032
 2181 0184 00400246 		.word	1174552576
 2182 0188 00000000 		.word	.LC0
 2183              		.cfi_endproc
 2184              	.LFE841:
 2186              		.section	.text.HAL_GPIO_SetRetime,"ax",%progbits
 2187              		.align	1
 2188              		.global	HAL_GPIO_SetRetime
 2189              		.syntax unified
 2190              		.thumb
 2191              		.thumb_func
 2193              	HAL_GPIO_SetRetime:
 2194              	.LFB842:
 514:STM32Cube_FW_N6/Drivers/STM32N6xx_HAL_Driver/Src/stm32n6xx_hal_gpio.c **** 
 515:STM32Cube_FW_N6/Drivers/STM32N6xx_HAL_Driver/Src/stm32n6xx_hal_gpio.c **** /**
 516:STM32Cube_FW_N6/Drivers/STM32N6xx_HAL_Driver/Src/stm32n6xx_hal_gpio.c ****   * @brief  Configure GPIO retime on specified GPIO pin.
 517:STM32Cube_FW_N6/Drivers/STM32N6xx_HAL_Driver/Src/stm32n6xx_hal_gpio.c ****   * @param  GPIOx where x can be (A..H and N..Q)
 518:STM32Cube_FW_N6/Drivers/STM32N6xx_HAL_Driver/Src/stm32n6xx_hal_gpio.c ****   * @param  GPIO_Pin specifies the port bit to be written.
 519:STM32Cube_FW_N6/Drivers/STM32N6xx_HAL_Driver/Src/stm32n6xx_hal_gpio.c ****   *         This parameter can be any combination of GPIO_Pin_x where x can be (0..15).
 520:STM32Cube_FW_N6/Drivers/STM32N6xx_HAL_Driver/Src/stm32n6xx_hal_gpio.c ****   * @param  pRet_Init pointer to a GPIO_RetimeTypeDef structure that contains
 521:STM32Cube_FW_N6/Drivers/STM32N6xx_HAL_Driver/Src/stm32n6xx_hal_gpio.c ****   *         the retime configuration information for the specified GPIO peripheral.
 522:STM32Cube_FW_N6/Drivers/STM32N6xx_HAL_Driver/Src/stm32n6xx_hal_gpio.c ****   * @retval None
 523:STM32Cube_FW_N6/Drivers/STM32N6xx_HAL_Driver/Src/stm32n6xx_hal_gpio.c ****   */
 524:STM32Cube_FW_N6/Drivers/STM32N6xx_HAL_Driver/Src/stm32n6xx_hal_gpio.c **** void HAL_GPIO_SetRetime(GPIO_TypeDef *GPIOx, uint16_t GPIO_Pin, const GPIO_RetimeTypeDef *pRet_Init
 525:STM32Cube_FW_N6/Drivers/STM32N6xx_HAL_Driver/Src/stm32n6xx_hal_gpio.c **** {
 2195              		.loc 1 525 1
 2196              		.cfi_startproc
 2197              		@ args = 0, pretend = 0, frame = 32
 2198              		@ frame_needed = 1, uses_anonymous_args = 0
 2199 0000 80B5     		push	{r7, lr}
 2200              		.cfi_def_cfa_offset 8
 2201              		.cfi_offset 7, -8
 2202              		.cfi_offset 14, -4
 2203 0002 88B0     		sub	sp, sp, #32
 2204              		.cfi_def_cfa_offset 40
 2205 0004 00AF     		add	r7, sp, #0
 2206              		.cfi_def_cfa_register 7
 2207 0006 F860     		str	r0, [r7, #12]
 2208 0008 0B46     		mov	r3, r1
 2209 000a 7A60     		str	r2, [r7, #4]
 2210 000c 7B81     		strh	r3, [r7, #10]	@ movhi
ARM GAS  /tmp/ccEPgY0u.s 			page 49


 526:STM32Cube_FW_N6/Drivers/STM32N6xx_HAL_Driver/Src/stm32n6xx_hal_gpio.c ****   uint32_t position = 0x00u;
 2211              		.loc 1 526 12
 2212 000e 0023     		movs	r3, #0
 2213 0010 FB61     		str	r3, [r7, #28]
 527:STM32Cube_FW_N6/Drivers/STM32N6xx_HAL_Driver/Src/stm32n6xx_hal_gpio.c ****   uint32_t iocurrent;
 528:STM32Cube_FW_N6/Drivers/STM32N6xx_HAL_Driver/Src/stm32n6xx_hal_gpio.c ****   uint32_t temp;
 529:STM32Cube_FW_N6/Drivers/STM32N6xx_HAL_Driver/Src/stm32n6xx_hal_gpio.c **** 
 530:STM32Cube_FW_N6/Drivers/STM32N6xx_HAL_Driver/Src/stm32n6xx_hal_gpio.c ****   /* Check the parameters */
 531:STM32Cube_FW_N6/Drivers/STM32N6xx_HAL_Driver/Src/stm32n6xx_hal_gpio.c ****   assert_param(IS_GPIO_ALL_INSTANCE(GPIOx));
 2214              		.loc 1 531 3
 2215 0012 FB68     		ldr	r3, [r7, #12]
 2216 0014 684A     		ldr	r2, .L128
 2217 0016 9342     		cmp	r3, r2
 2218 0018 60D0     		beq	.L121
 2219              		.loc 1 531 3 is_stmt 0 discriminator 1
 2220 001a FB68     		ldr	r3, [r7, #12]
 2221 001c 674A     		ldr	r2, .L128+4
 2222 001e 9342     		cmp	r3, r2
 2223 0020 5CD0     		beq	.L121
 2224              		.loc 1 531 3 discriminator 2
 2225 0022 FB68     		ldr	r3, [r7, #12]
 2226 0024 664A     		ldr	r2, .L128+8
 2227 0026 9342     		cmp	r3, r2
 2228 0028 58D0     		beq	.L121
 2229              		.loc 1 531 3 discriminator 3
 2230 002a FB68     		ldr	r3, [r7, #12]
 2231 002c 654A     		ldr	r2, .L128+12
 2232 002e 9342     		cmp	r3, r2
 2233 0030 54D0     		beq	.L121
 2234              		.loc 1 531 3 discriminator 4
 2235 0032 FB68     		ldr	r3, [r7, #12]
 2236 0034 644A     		ldr	r2, .L128+16
 2237 0036 9342     		cmp	r3, r2
 2238 0038 50D0     		beq	.L121
 2239              		.loc 1 531 3 discriminator 5
 2240 003a FB68     		ldr	r3, [r7, #12]
 2241 003c 634A     		ldr	r2, .L128+20
 2242 003e 9342     		cmp	r3, r2
 2243 0040 4CD0     		beq	.L121
 2244              		.loc 1 531 3 discriminator 6
 2245 0042 FB68     		ldr	r3, [r7, #12]
 2246 0044 624A     		ldr	r2, .L128+24
 2247 0046 9342     		cmp	r3, r2
 2248 0048 48D0     		beq	.L121
 2249              		.loc 1 531 3 discriminator 7
 2250 004a FB68     		ldr	r3, [r7, #12]
 2251 004c 614A     		ldr	r2, .L128+28
 2252 004e 9342     		cmp	r3, r2
 2253 0050 44D0     		beq	.L121
 2254              		.loc 1 531 3 discriminator 8
 2255 0052 FB68     		ldr	r3, [r7, #12]
 2256 0054 604A     		ldr	r2, .L128+32
 2257 0056 9342     		cmp	r3, r2
 2258 0058 40D0     		beq	.L121
 2259              		.loc 1 531 3 discriminator 9
 2260 005a FB68     		ldr	r3, [r7, #12]
 2261 005c 5F4A     		ldr	r2, .L128+36
ARM GAS  /tmp/ccEPgY0u.s 			page 50


 2262 005e 9342     		cmp	r3, r2
 2263 0060 3CD0     		beq	.L121
 2264              		.loc 1 531 3 discriminator 10
 2265 0062 FB68     		ldr	r3, [r7, #12]
 2266 0064 5E4A     		ldr	r2, .L128+40
 2267 0066 9342     		cmp	r3, r2
 2268 0068 38D0     		beq	.L121
 2269              		.loc 1 531 3 discriminator 11
 2270 006a FB68     		ldr	r3, [r7, #12]
 2271 006c 5D4A     		ldr	r2, .L128+44
 2272 006e 9342     		cmp	r3, r2
 2273 0070 34D0     		beq	.L121
 2274              		.loc 1 531 3 discriminator 12
 2275 0072 FB68     		ldr	r3, [r7, #12]
 2276 0074 5C4A     		ldr	r2, .L128+48
 2277 0076 9342     		cmp	r3, r2
 2278 0078 30D0     		beq	.L121
 2279              		.loc 1 531 3 discriminator 13
 2280 007a FB68     		ldr	r3, [r7, #12]
 2281 007c 5B4A     		ldr	r2, .L128+52
 2282 007e 9342     		cmp	r3, r2
 2283 0080 2CD0     		beq	.L121
 2284              		.loc 1 531 3 discriminator 14
 2285 0082 FB68     		ldr	r3, [r7, #12]
 2286 0084 5A4A     		ldr	r2, .L128+56
 2287 0086 9342     		cmp	r3, r2
 2288 0088 28D0     		beq	.L121
 2289              		.loc 1 531 3 discriminator 15
 2290 008a FB68     		ldr	r3, [r7, #12]
 2291 008c 594A     		ldr	r2, .L128+60
 2292 008e 9342     		cmp	r3, r2
 2293 0090 24D0     		beq	.L121
 2294              		.loc 1 531 3 discriminator 16
 2295 0092 FB68     		ldr	r3, [r7, #12]
 2296 0094 584A     		ldr	r2, .L128+64
 2297 0096 9342     		cmp	r3, r2
 2298 0098 20D0     		beq	.L121
 2299              		.loc 1 531 3 discriminator 17
 2300 009a FB68     		ldr	r3, [r7, #12]
 2301 009c 574A     		ldr	r2, .L128+68
 2302 009e 9342     		cmp	r3, r2
 2303 00a0 1CD0     		beq	.L121
 2304              		.loc 1 531 3 discriminator 18
 2305 00a2 FB68     		ldr	r3, [r7, #12]
 2306 00a4 564A     		ldr	r2, .L128+72
 2307 00a6 9342     		cmp	r3, r2
 2308 00a8 18D0     		beq	.L121
 2309              		.loc 1 531 3 discriminator 19
 2310 00aa FB68     		ldr	r3, [r7, #12]
 2311 00ac 554A     		ldr	r2, .L128+76
 2312 00ae 9342     		cmp	r3, r2
 2313 00b0 14D0     		beq	.L121
 2314              		.loc 1 531 3 discriminator 20
 2315 00b2 FB68     		ldr	r3, [r7, #12]
 2316 00b4 544A     		ldr	r2, .L128+80
 2317 00b6 9342     		cmp	r3, r2
 2318 00b8 10D0     		beq	.L121
ARM GAS  /tmp/ccEPgY0u.s 			page 51


 2319              		.loc 1 531 3 discriminator 21
 2320 00ba FB68     		ldr	r3, [r7, #12]
 2321 00bc 534A     		ldr	r2, .L128+84
 2322 00be 9342     		cmp	r3, r2
 2323 00c0 0CD0     		beq	.L121
 2324              		.loc 1 531 3 discriminator 22
 2325 00c2 FB68     		ldr	r3, [r7, #12]
 2326 00c4 524A     		ldr	r2, .L128+88
 2327 00c6 9342     		cmp	r3, r2
 2328 00c8 08D0     		beq	.L121
 2329              		.loc 1 531 3 discriminator 23
 2330 00ca FB68     		ldr	r3, [r7, #12]
 2331 00cc 514A     		ldr	r2, .L128+92
 2332 00ce 9342     		cmp	r3, r2
 2333 00d0 04D0     		beq	.L121
 2334              		.loc 1 531 3 discriminator 24
 2335 00d2 40F21321 		movw	r1, #531
 2336 00d6 5048     		ldr	r0, .L128+96
 2337 00d8 FFF7FEFF 		bl	assert_failed
 2338              	.L121:
 532:STM32Cube_FW_N6/Drivers/STM32N6xx_HAL_Driver/Src/stm32n6xx_hal_gpio.c ****   assert_param(IS_GPIO_PIN(GPIO_Pin));
 2339              		.loc 1 532 3 is_stmt 1
 2340 00dc 7B89     		ldrh	r3, [r7, #10]
 2341 00de 002B     		cmp	r3, #0
 2342 00e0 04D1     		bne	.L122
 2343              		.loc 1 532 3 is_stmt 0 discriminator 1
 2344 00e2 4FF40571 		mov	r1, #532
 2345 00e6 4C48     		ldr	r0, .L128+96
 2346 00e8 FFF7FEFF 		bl	assert_failed
 2347              	.L122:
 533:STM32Cube_FW_N6/Drivers/STM32N6xx_HAL_Driver/Src/stm32n6xx_hal_gpio.c ****   assert_param(IS_GPIO_RETIME(pRet_Init->Retime));
 2348              		.loc 1 533 3 is_stmt 1
 2349 00ec 7B68     		ldr	r3, [r7, #4]
 2350 00ee 1B68     		ldr	r3, [r3]
 2351 00f0 082B     		cmp	r3, #8
 2352 00f2 08D0     		beq	.L123
 2353              		.loc 1 533 3 is_stmt 0 discriminator 1
 2354 00f4 7B68     		ldr	r3, [r7, #4]
 2355 00f6 1B68     		ldr	r3, [r3]
 2356 00f8 002B     		cmp	r3, #0
 2357 00fa 04D0     		beq	.L123
 2358              		.loc 1 533 3 discriminator 2
 2359 00fc 40F21521 		movw	r1, #533
 2360 0100 4548     		ldr	r0, .L128+96
 2361 0102 FFF7FEFF 		bl	assert_failed
 2362              	.L123:
 534:STM32Cube_FW_N6/Drivers/STM32N6xx_HAL_Driver/Src/stm32n6xx_hal_gpio.c ****   assert_param(IS_GPIO_CLOCK(pRet_Init->Edge));
 2363              		.loc 1 534 3 is_stmt 1
 2364 0106 7B68     		ldr	r3, [r7, #4]
 2365 0108 5B68     		ldr	r3, [r3, #4]
 2366 010a 002B     		cmp	r3, #0
 2367 010c 49D0     		beq	.L125
 2368              		.loc 1 534 3 is_stmt 0 discriminator 1
 2369 010e 7B68     		ldr	r3, [r7, #4]
 2370 0110 5B68     		ldr	r3, [r3, #4]
 2371 0112 042B     		cmp	r3, #4
 2372 0114 45D0     		beq	.L125
ARM GAS  /tmp/ccEPgY0u.s 			page 52


 2373              		.loc 1 534 3 discriminator 2
 2374 0116 7B68     		ldr	r3, [r7, #4]
 2375 0118 5B68     		ldr	r3, [r3, #4]
 2376 011a 022B     		cmp	r3, #2
 2377 011c 41D0     		beq	.L125
 2378              		.loc 1 534 3 discriminator 3
 2379 011e 40F21621 		movw	r1, #534
 2380 0122 3D48     		ldr	r0, .L128+96
 2381 0124 FFF7FEFF 		bl	assert_failed
 535:STM32Cube_FW_N6/Drivers/STM32N6xx_HAL_Driver/Src/stm32n6xx_hal_gpio.c **** 
 536:STM32Cube_FW_N6/Drivers/STM32N6xx_HAL_Driver/Src/stm32n6xx_hal_gpio.c ****   /* Configure the port pins */
 537:STM32Cube_FW_N6/Drivers/STM32N6xx_HAL_Driver/Src/stm32n6xx_hal_gpio.c ****   while ((GPIO_Pin >> position) != 0x00u)
 2382              		.loc 1 537 9 is_stmt 1
 2383 0128 3BE0     		b	.L125
 2384              	.L127:
 538:STM32Cube_FW_N6/Drivers/STM32N6xx_HAL_Driver/Src/stm32n6xx_hal_gpio.c ****   {
 539:STM32Cube_FW_N6/Drivers/STM32N6xx_HAL_Driver/Src/stm32n6xx_hal_gpio.c ****     /* Get current io position */
 540:STM32Cube_FW_N6/Drivers/STM32N6xx_HAL_Driver/Src/stm32n6xx_hal_gpio.c ****     iocurrent = (GPIO_Pin) & (1uL << position);
 2385              		.loc 1 540 28
 2386 012a 7A89     		ldrh	r2, [r7, #10]
 2387              		.loc 1 540 35
 2388 012c 0121     		movs	r1, #1
 2389 012e FB69     		ldr	r3, [r7, #28]
 2390 0130 01FA03F3 		lsl	r3, r1, r3
 2391              		.loc 1 540 15
 2392 0134 1340     		ands	r3, r3, r2
 2393 0136 BB61     		str	r3, [r7, #24]
 541:STM32Cube_FW_N6/Drivers/STM32N6xx_HAL_Driver/Src/stm32n6xx_hal_gpio.c **** 
 542:STM32Cube_FW_N6/Drivers/STM32N6xx_HAL_Driver/Src/stm32n6xx_hal_gpio.c ****     if (iocurrent != 0x00u)
 2394              		.loc 1 542 8
 2395 0138 BB69     		ldr	r3, [r7, #24]
 2396 013a 002B     		cmp	r3, #0
 2397 013c 2ED0     		beq	.L126
 543:STM32Cube_FW_N6/Drivers/STM32N6xx_HAL_Driver/Src/stm32n6xx_hal_gpio.c ****     {
 544:STM32Cube_FW_N6/Drivers/STM32N6xx_HAL_Driver/Src/stm32n6xx_hal_gpio.c ****       /* Configure the IO Retime */
 545:STM32Cube_FW_N6/Drivers/STM32N6xx_HAL_Driver/Src/stm32n6xx_hal_gpio.c ****       temp = GPIOx->ADVCFGR[position >> 3u];
 2398              		.loc 1 545 38
 2399 013e FB69     		ldr	r3, [r7, #28]
 2400 0140 DA08     		lsrs	r2, r3, #3
 2401              		.loc 1 545 12
 2402 0142 FB68     		ldr	r3, [r7, #12]
 2403 0144 1232     		adds	r2, r2, #18
 2404 0146 53F82230 		ldr	r3, [r3, r2, lsl #2]
 2405 014a 7B61     		str	r3, [r7, #20]
 546:STM32Cube_FW_N6/Drivers/STM32N6xx_HAL_Driver/Src/stm32n6xx_hal_gpio.c ****       temp &= ~((GPIO_ADVCFGRL_RET0 | GPIO_ADVCFGRL_INVCLK0 | GPIO_ADVCFGRL_DE0)
 547:STM32Cube_FW_N6/Drivers/STM32N6xx_HAL_Driver/Src/stm32n6xx_hal_gpio.c ****                 << ((position & 0x07u) * GPIO_ADVCFGRL_1_Pos));
 2406              		.loc 1 547 31
 2407 014c FB69     		ldr	r3, [r7, #28]
 2408 014e 03F00703 		and	r3, r3, #7
 2409              		.loc 1 547 40
 2410 0152 9B00     		lsls	r3, r3, #2
 2411              		.loc 1 547 17
 2412 0154 0E22     		movs	r2, #14
 2413 0156 02FA03F3 		lsl	r3, r2, r3
 546:STM32Cube_FW_N6/Drivers/STM32N6xx_HAL_Driver/Src/stm32n6xx_hal_gpio.c ****       temp &= ~((GPIO_ADVCFGRL_RET0 | GPIO_ADVCFGRL_INVCLK0 | GPIO_ADVCFGRL_DE0)
 2414              		.loc 1 546 15
 2415 015a DB43     		mvns	r3, r3
ARM GAS  /tmp/ccEPgY0u.s 			page 53


 546:STM32Cube_FW_N6/Drivers/STM32N6xx_HAL_Driver/Src/stm32n6xx_hal_gpio.c ****       temp &= ~((GPIO_ADVCFGRL_RET0 | GPIO_ADVCFGRL_INVCLK0 | GPIO_ADVCFGRL_DE0)
 2416              		.loc 1 546 12
 2417 015c 7A69     		ldr	r2, [r7, #20]
 2418 015e 1340     		ands	r3, r3, r2
 2419 0160 7B61     		str	r3, [r7, #20]
 548:STM32Cube_FW_N6/Drivers/STM32N6xx_HAL_Driver/Src/stm32n6xx_hal_gpio.c ****       temp |= (pRet_Init->Retime << ((position & 0x07u) * GPIO_ADVCFGRL_1_Pos));
 2420              		.loc 1 548 25
 2421 0162 7B68     		ldr	r3, [r7, #4]
 2422 0164 1A68     		ldr	r2, [r3]
 2423              		.loc 1 548 48
 2424 0166 FB69     		ldr	r3, [r7, #28]
 2425 0168 03F00703 		and	r3, r3, #7
 2426              		.loc 1 548 57
 2427 016c 9B00     		lsls	r3, r3, #2
 2428              		.loc 1 548 34
 2429 016e 02FA03F3 		lsl	r3, r2, r3
 2430              		.loc 1 548 12
 2431 0172 7A69     		ldr	r2, [r7, #20]
 2432 0174 1343     		orrs	r3, r3, r2
 2433 0176 7B61     		str	r3, [r7, #20]
 549:STM32Cube_FW_N6/Drivers/STM32N6xx_HAL_Driver/Src/stm32n6xx_hal_gpio.c ****       temp |= (pRet_Init->Edge << ((position & 0x07u) * GPIO_ADVCFGRL_1_Pos));
 2434              		.loc 1 549 25
 2435 0178 7B68     		ldr	r3, [r7, #4]
 2436 017a 5A68     		ldr	r2, [r3, #4]
 2437              		.loc 1 549 46
 2438 017c FB69     		ldr	r3, [r7, #28]
 2439 017e 03F00703 		and	r3, r3, #7
 2440              		.loc 1 549 55
 2441 0182 9B00     		lsls	r3, r3, #2
 2442              		.loc 1 549 32
 2443 0184 02FA03F3 		lsl	r3, r2, r3
 2444              		.loc 1 549 12
 2445 0188 7A69     		ldr	r2, [r7, #20]
 2446 018a 1343     		orrs	r3, r3, r2
 2447 018c 7B61     		str	r3, [r7, #20]
 550:STM32Cube_FW_N6/Drivers/STM32N6xx_HAL_Driver/Src/stm32n6xx_hal_gpio.c ****       GPIOx->ADVCFGR[position >> 3u] = temp;
 2448              		.loc 1 550 31
 2449 018e FB69     		ldr	r3, [r7, #28]
 2450 0190 DA08     		lsrs	r2, r3, #3
 2451              		.loc 1 550 38
 2452 0192 FB68     		ldr	r3, [r7, #12]
 2453 0194 1232     		adds	r2, r2, #18
 2454 0196 7969     		ldr	r1, [r7, #20]
 2455 0198 43F82210 		str	r1, [r3, r2, lsl #2]
 2456              	.L126:
 551:STM32Cube_FW_N6/Drivers/STM32N6xx_HAL_Driver/Src/stm32n6xx_hal_gpio.c ****     }
 552:STM32Cube_FW_N6/Drivers/STM32N6xx_HAL_Driver/Src/stm32n6xx_hal_gpio.c ****     position++;
 2457              		.loc 1 552 13
 2458 019c FB69     		ldr	r3, [r7, #28]
 2459 019e 0133     		adds	r3, r3, #1
 2460 01a0 FB61     		str	r3, [r7, #28]
 2461              	.L125:
 537:STM32Cube_FW_N6/Drivers/STM32N6xx_HAL_Driver/Src/stm32n6xx_hal_gpio.c ****   {
 2462              		.loc 1 537 20
 2463 01a2 7A89     		ldrh	r2, [r7, #10]
 2464 01a4 FB69     		ldr	r3, [r7, #28]
 2465 01a6 42FA03F3 		asr	r3, r2, r3
ARM GAS  /tmp/ccEPgY0u.s 			page 54


 537:STM32Cube_FW_N6/Drivers/STM32N6xx_HAL_Driver/Src/stm32n6xx_hal_gpio.c ****   {
 2466              		.loc 1 537 33
 2467 01aa 002B     		cmp	r3, #0
 2468 01ac BDD1     		bne	.L127
 553:STM32Cube_FW_N6/Drivers/STM32N6xx_HAL_Driver/Src/stm32n6xx_hal_gpio.c ****   }
 554:STM32Cube_FW_N6/Drivers/STM32N6xx_HAL_Driver/Src/stm32n6xx_hal_gpio.c **** }
 2469              		.loc 1 554 1
 2470 01ae 00BF     		nop
 2471 01b0 00BF     		nop
 2472 01b2 2037     		adds	r7, r7, #32
 2473              		.cfi_def_cfa_offset 8
 2474 01b4 BD46     		mov	sp, r7
 2475              		.cfi_def_cfa_register 13
 2476              		@ sp needed
 2477 01b6 80BD     		pop	{r7, pc}
 2478              	.L129:
 2479              		.align	2
 2480              	.L128:
 2481 01b8 00000256 		.word	1442971648
 2482 01bc 00000246 		.word	1174536192
 2483 01c0 00040256 		.word	1442972672
 2484 01c4 00040246 		.word	1174537216
 2485 01c8 00080256 		.word	1442973696
 2486 01cc 00080246 		.word	1174538240
 2487 01d0 000C0256 		.word	1442974720
 2488 01d4 000C0246 		.word	1174539264
 2489 01d8 00100256 		.word	1442975744
 2490 01dc 00100246 		.word	1174540288
 2491 01e0 00140256 		.word	1442976768
 2492 01e4 00140246 		.word	1174541312
 2493 01e8 00180256 		.word	1442977792
 2494 01ec 00180246 		.word	1174542336
 2495 01f0 001C0256 		.word	1442978816
 2496 01f4 001C0246 		.word	1174543360
 2497 01f8 00340256 		.word	1442984960
 2498 01fc 00340246 		.word	1174549504
 2499 0200 00380256 		.word	1442985984
 2500 0204 00380246 		.word	1174550528
 2501 0208 003C0256 		.word	1442987008
 2502 020c 003C0246 		.word	1174551552
 2503 0210 00400256 		.word	1442988032
 2504 0214 00400246 		.word	1174552576
 2505 0218 00000000 		.word	.LC0
 2506              		.cfi_endproc
 2507              	.LFE842:
 2509              		.section	.text.HAL_GPIO_GetRetime,"ax",%progbits
 2510              		.align	1
 2511              		.global	HAL_GPIO_GetRetime
 2512              		.syntax unified
 2513              		.thumb
 2514              		.thumb_func
 2516              	HAL_GPIO_GetRetime:
 2517              	.LFB843:
 555:STM32Cube_FW_N6/Drivers/STM32N6xx_HAL_Driver/Src/stm32n6xx_hal_gpio.c **** 
 556:STM32Cube_FW_N6/Drivers/STM32N6xx_HAL_Driver/Src/stm32n6xx_hal_gpio.c **** /**
 557:STM32Cube_FW_N6/Drivers/STM32N6xx_HAL_Driver/Src/stm32n6xx_hal_gpio.c ****   * @brief  Get GPIO retime configuration on specified GPIO pin.
 558:STM32Cube_FW_N6/Drivers/STM32N6xx_HAL_Driver/Src/stm32n6xx_hal_gpio.c ****   * @param  GPIOx where x can be (A..H and N..Q)
ARM GAS  /tmp/ccEPgY0u.s 			page 55


 559:STM32Cube_FW_N6/Drivers/STM32N6xx_HAL_Driver/Src/stm32n6xx_hal_gpio.c ****   * @param  GPIO_Pin specifies the port bit to read.
 560:STM32Cube_FW_N6/Drivers/STM32N6xx_HAL_Driver/Src/stm32n6xx_hal_gpio.c ****   *         This parameter can be GPIO_PIN_x where x can be (0..15).
 561:STM32Cube_FW_N6/Drivers/STM32N6xx_HAL_Driver/Src/stm32n6xx_hal_gpio.c ****   * @param  pRet_Init pointer to the return GPIO_RetimeTypeDef structure that contains the retime i
 562:STM32Cube_FW_N6/Drivers/STM32N6xx_HAL_Driver/Src/stm32n6xx_hal_gpio.c ****   * @retval HAL Status
 563:STM32Cube_FW_N6/Drivers/STM32N6xx_HAL_Driver/Src/stm32n6xx_hal_gpio.c ****   */
 564:STM32Cube_FW_N6/Drivers/STM32N6xx_HAL_Driver/Src/stm32n6xx_hal_gpio.c **** HAL_StatusTypeDef HAL_GPIO_GetRetime(const GPIO_TypeDef *GPIOx, uint16_t GPIO_Pin, GPIO_RetimeTypeD
 565:STM32Cube_FW_N6/Drivers/STM32N6xx_HAL_Driver/Src/stm32n6xx_hal_gpio.c **** {
 2518              		.loc 1 565 1
 2519              		.cfi_startproc
 2520              		@ args = 0, pretend = 0, frame = 40
 2521              		@ frame_needed = 1, uses_anonymous_args = 0
 2522 0000 80B5     		push	{r7, lr}
 2523              		.cfi_def_cfa_offset 8
 2524              		.cfi_offset 7, -8
 2525              		.cfi_offset 14, -4
 2526 0002 8AB0     		sub	sp, sp, #40
 2527              		.cfi_def_cfa_offset 48
 2528 0004 00AF     		add	r7, sp, #0
 2529              		.cfi_def_cfa_register 7
 2530 0006 F860     		str	r0, [r7, #12]
 2531 0008 0B46     		mov	r3, r1
 2532 000a 7A60     		str	r2, [r7, #4]
 2533 000c 7B81     		strh	r3, [r7, #10]	@ movhi
 566:STM32Cube_FW_N6/Drivers/STM32N6xx_HAL_Driver/Src/stm32n6xx_hal_gpio.c ****   uint32_t position;
 567:STM32Cube_FW_N6/Drivers/STM32N6xx_HAL_Driver/Src/stm32n6xx_hal_gpio.c ****   uint32_t index;
 568:STM32Cube_FW_N6/Drivers/STM32N6xx_HAL_Driver/Src/stm32n6xx_hal_gpio.c **** 
 569:STM32Cube_FW_N6/Drivers/STM32N6xx_HAL_Driver/Src/stm32n6xx_hal_gpio.c ****   /* Check the parameters */
 570:STM32Cube_FW_N6/Drivers/STM32N6xx_HAL_Driver/Src/stm32n6xx_hal_gpio.c ****   assert_param(IS_GPIO_ALL_INSTANCE(GPIOx));
 2534              		.loc 1 570 3
 2535 000e FB68     		ldr	r3, [r7, #12]
 2536 0010 6F4A     		ldr	r2, .L138
 2537 0012 9342     		cmp	r3, r2
 2538 0014 60D0     		beq	.L131
 2539              		.loc 1 570 3 is_stmt 0 discriminator 1
 2540 0016 FB68     		ldr	r3, [r7, #12]
 2541 0018 6E4A     		ldr	r2, .L138+4
 2542 001a 9342     		cmp	r3, r2
 2543 001c 5CD0     		beq	.L131
 2544              		.loc 1 570 3 discriminator 2
 2545 001e FB68     		ldr	r3, [r7, #12]
 2546 0020 6D4A     		ldr	r2, .L138+8
 2547 0022 9342     		cmp	r3, r2
 2548 0024 58D0     		beq	.L131
 2549              		.loc 1 570 3 discriminator 3
 2550 0026 FB68     		ldr	r3, [r7, #12]
 2551 0028 6C4A     		ldr	r2, .L138+12
 2552 002a 9342     		cmp	r3, r2
 2553 002c 54D0     		beq	.L131
 2554              		.loc 1 570 3 discriminator 4
 2555 002e FB68     		ldr	r3, [r7, #12]
 2556 0030 6B4A     		ldr	r2, .L138+16
 2557 0032 9342     		cmp	r3, r2
 2558 0034 50D0     		beq	.L131
 2559              		.loc 1 570 3 discriminator 5
 2560 0036 FB68     		ldr	r3, [r7, #12]
 2561 0038 6A4A     		ldr	r2, .L138+20
 2562 003a 9342     		cmp	r3, r2
ARM GAS  /tmp/ccEPgY0u.s 			page 56


 2563 003c 4CD0     		beq	.L131
 2564              		.loc 1 570 3 discriminator 6
 2565 003e FB68     		ldr	r3, [r7, #12]
 2566 0040 694A     		ldr	r2, .L138+24
 2567 0042 9342     		cmp	r3, r2
 2568 0044 48D0     		beq	.L131
 2569              		.loc 1 570 3 discriminator 7
 2570 0046 FB68     		ldr	r3, [r7, #12]
 2571 0048 684A     		ldr	r2, .L138+28
 2572 004a 9342     		cmp	r3, r2
 2573 004c 44D0     		beq	.L131
 2574              		.loc 1 570 3 discriminator 8
 2575 004e FB68     		ldr	r3, [r7, #12]
 2576 0050 674A     		ldr	r2, .L138+32
 2577 0052 9342     		cmp	r3, r2
 2578 0054 40D0     		beq	.L131
 2579              		.loc 1 570 3 discriminator 9
 2580 0056 FB68     		ldr	r3, [r7, #12]
 2581 0058 664A     		ldr	r2, .L138+36
 2582 005a 9342     		cmp	r3, r2
 2583 005c 3CD0     		beq	.L131
 2584              		.loc 1 570 3 discriminator 10
 2585 005e FB68     		ldr	r3, [r7, #12]
 2586 0060 654A     		ldr	r2, .L138+40
 2587 0062 9342     		cmp	r3, r2
 2588 0064 38D0     		beq	.L131
 2589              		.loc 1 570 3 discriminator 11
 2590 0066 FB68     		ldr	r3, [r7, #12]
 2591 0068 644A     		ldr	r2, .L138+44
 2592 006a 9342     		cmp	r3, r2
 2593 006c 34D0     		beq	.L131
 2594              		.loc 1 570 3 discriminator 12
 2595 006e FB68     		ldr	r3, [r7, #12]
 2596 0070 634A     		ldr	r2, .L138+48
 2597 0072 9342     		cmp	r3, r2
 2598 0074 30D0     		beq	.L131
 2599              		.loc 1 570 3 discriminator 13
 2600 0076 FB68     		ldr	r3, [r7, #12]
 2601 0078 624A     		ldr	r2, .L138+52
 2602 007a 9342     		cmp	r3, r2
 2603 007c 2CD0     		beq	.L131
 2604              		.loc 1 570 3 discriminator 14
 2605 007e FB68     		ldr	r3, [r7, #12]
 2606 0080 614A     		ldr	r2, .L138+56
 2607 0082 9342     		cmp	r3, r2
 2608 0084 28D0     		beq	.L131
 2609              		.loc 1 570 3 discriminator 15
 2610 0086 FB68     		ldr	r3, [r7, #12]
 2611 0088 604A     		ldr	r2, .L138+60
 2612 008a 9342     		cmp	r3, r2
 2613 008c 24D0     		beq	.L131
 2614              		.loc 1 570 3 discriminator 16
 2615 008e FB68     		ldr	r3, [r7, #12]
 2616 0090 5F4A     		ldr	r2, .L138+64
 2617 0092 9342     		cmp	r3, r2
 2618 0094 20D0     		beq	.L131
 2619              		.loc 1 570 3 discriminator 17
ARM GAS  /tmp/ccEPgY0u.s 			page 57


 2620 0096 FB68     		ldr	r3, [r7, #12]
 2621 0098 5E4A     		ldr	r2, .L138+68
 2622 009a 9342     		cmp	r3, r2
 2623 009c 1CD0     		beq	.L131
 2624              		.loc 1 570 3 discriminator 18
 2625 009e FB68     		ldr	r3, [r7, #12]
 2626 00a0 5D4A     		ldr	r2, .L138+72
 2627 00a2 9342     		cmp	r3, r2
 2628 00a4 18D0     		beq	.L131
 2629              		.loc 1 570 3 discriminator 19
 2630 00a6 FB68     		ldr	r3, [r7, #12]
 2631 00a8 5C4A     		ldr	r2, .L138+76
 2632 00aa 9342     		cmp	r3, r2
 2633 00ac 14D0     		beq	.L131
 2634              		.loc 1 570 3 discriminator 20
 2635 00ae FB68     		ldr	r3, [r7, #12]
 2636 00b0 5B4A     		ldr	r2, .L138+80
 2637 00b2 9342     		cmp	r3, r2
 2638 00b4 10D0     		beq	.L131
 2639              		.loc 1 570 3 discriminator 21
 2640 00b6 FB68     		ldr	r3, [r7, #12]
 2641 00b8 5A4A     		ldr	r2, .L138+84
 2642 00ba 9342     		cmp	r3, r2
 2643 00bc 0CD0     		beq	.L131
 2644              		.loc 1 570 3 discriminator 22
 2645 00be FB68     		ldr	r3, [r7, #12]
 2646 00c0 594A     		ldr	r2, .L138+88
 2647 00c2 9342     		cmp	r3, r2
 2648 00c4 08D0     		beq	.L131
 2649              		.loc 1 570 3 discriminator 23
 2650 00c6 FB68     		ldr	r3, [r7, #12]
 2651 00c8 584A     		ldr	r2, .L138+92
 2652 00ca 9342     		cmp	r3, r2
 2653 00cc 04D0     		beq	.L131
 2654              		.loc 1 570 3 discriminator 24
 2655 00ce 40F23A21 		movw	r1, #570
 2656 00d2 5748     		ldr	r0, .L138+96
 2657 00d4 FFF7FEFF 		bl	assert_failed
 2658              	.L131:
 571:STM32Cube_FW_N6/Drivers/STM32N6xx_HAL_Driver/Src/stm32n6xx_hal_gpio.c ****   assert_param(IS_GPIO_SINGLE_PIN(GPIO_Pin));
 2659              		.loc 1 571 3 is_stmt 1
 2660 00d8 7B89     		ldrh	r3, [r7, #10]
 2661 00da 012B     		cmp	r3, #1
 2662 00dc 39D0     		beq	.L132
 2663              		.loc 1 571 3 is_stmt 0 discriminator 1
 2664 00de 7B89     		ldrh	r3, [r7, #10]
 2665 00e0 022B     		cmp	r3, #2
 2666 00e2 36D0     		beq	.L132
 2667              		.loc 1 571 3 discriminator 2
 2668 00e4 7B89     		ldrh	r3, [r7, #10]
 2669 00e6 042B     		cmp	r3, #4
 2670 00e8 33D0     		beq	.L132
 2671              		.loc 1 571 3 discriminator 3
 2672 00ea 7B89     		ldrh	r3, [r7, #10]
 2673 00ec 082B     		cmp	r3, #8
 2674 00ee 30D0     		beq	.L132
 2675              		.loc 1 571 3 discriminator 4
ARM GAS  /tmp/ccEPgY0u.s 			page 58


 2676 00f0 7B89     		ldrh	r3, [r7, #10]
 2677 00f2 102B     		cmp	r3, #16
 2678 00f4 2DD0     		beq	.L132
 2679              		.loc 1 571 3 discriminator 5
 2680 00f6 7B89     		ldrh	r3, [r7, #10]
 2681 00f8 202B     		cmp	r3, #32
 2682 00fa 2AD0     		beq	.L132
 2683              		.loc 1 571 3 discriminator 6
 2684 00fc 7B89     		ldrh	r3, [r7, #10]
 2685 00fe 402B     		cmp	r3, #64
 2686 0100 27D0     		beq	.L132
 2687              		.loc 1 571 3 discriminator 7
 2688 0102 7B89     		ldrh	r3, [r7, #10]
 2689 0104 802B     		cmp	r3, #128
 2690 0106 24D0     		beq	.L132
 2691              		.loc 1 571 3 discriminator 8
 2692 0108 7B89     		ldrh	r3, [r7, #10]
 2693 010a B3F5807F 		cmp	r3, #256
 2694 010e 20D0     		beq	.L132
 2695              		.loc 1 571 3 discriminator 9
 2696 0110 7B89     		ldrh	r3, [r7, #10]
 2697 0112 B3F5007F 		cmp	r3, #512
 2698 0116 1CD0     		beq	.L132
 2699              		.loc 1 571 3 discriminator 10
 2700 0118 7B89     		ldrh	r3, [r7, #10]
 2701 011a B3F5806F 		cmp	r3, #1024
 2702 011e 18D0     		beq	.L132
 2703              		.loc 1 571 3 discriminator 11
 2704 0120 7B89     		ldrh	r3, [r7, #10]
 2705 0122 B3F5006F 		cmp	r3, #2048
 2706 0126 14D0     		beq	.L132
 2707              		.loc 1 571 3 discriminator 12
 2708 0128 7B89     		ldrh	r3, [r7, #10]
 2709 012a B3F5805F 		cmp	r3, #4096
 2710 012e 10D0     		beq	.L132
 2711              		.loc 1 571 3 discriminator 13
 2712 0130 7B89     		ldrh	r3, [r7, #10]
 2713 0132 B3F5005F 		cmp	r3, #8192
 2714 0136 0CD0     		beq	.L132
 2715              		.loc 1 571 3 discriminator 14
 2716 0138 7B89     		ldrh	r3, [r7, #10]
 2717 013a B3F5804F 		cmp	r3, #16384
 2718 013e 08D0     		beq	.L132
 2719              		.loc 1 571 3 discriminator 15
 2720 0140 7B89     		ldrh	r3, [r7, #10]
 2721 0142 B3F5004F 		cmp	r3, #32768
 2722 0146 04D0     		beq	.L132
 2723              		.loc 1 571 3 discriminator 16
 2724 0148 40F23B21 		movw	r1, #571
 2725 014c 3848     		ldr	r0, .L138+96
 2726 014e FFF7FEFF 		bl	assert_failed
 2727              	.L132:
 572:STM32Cube_FW_N6/Drivers/STM32N6xx_HAL_Driver/Src/stm32n6xx_hal_gpio.c **** 
 573:STM32Cube_FW_N6/Drivers/STM32N6xx_HAL_Driver/Src/stm32n6xx_hal_gpio.c ****   /* Check null pointer */
 574:STM32Cube_FW_N6/Drivers/STM32N6xx_HAL_Driver/Src/stm32n6xx_hal_gpio.c ****   if (pRet_Init == NULL)
 2728              		.loc 1 574 6 is_stmt 1
 2729 0152 7B68     		ldr	r3, [r7, #4]
ARM GAS  /tmp/ccEPgY0u.s 			page 59


 2730 0154 002B     		cmp	r3, #0
 2731 0156 01D1     		bne	.L133
 575:STM32Cube_FW_N6/Drivers/STM32N6xx_HAL_Driver/Src/stm32n6xx_hal_gpio.c ****   {
 576:STM32Cube_FW_N6/Drivers/STM32N6xx_HAL_Driver/Src/stm32n6xx_hal_gpio.c ****     return HAL_ERROR;
 2732              		.loc 1 576 12
 2733 0158 0123     		movs	r3, #1
 2734 015a 35E0     		b	.L134
 2735              	.L133:
 577:STM32Cube_FW_N6/Drivers/STM32N6xx_HAL_Driver/Src/stm32n6xx_hal_gpio.c ****   }
 578:STM32Cube_FW_N6/Drivers/STM32N6xx_HAL_Driver/Src/stm32n6xx_hal_gpio.c **** 
 579:STM32Cube_FW_N6/Drivers/STM32N6xx_HAL_Driver/Src/stm32n6xx_hal_gpio.c ****   /* get IO position */
 580:STM32Cube_FW_N6/Drivers/STM32N6xx_HAL_Driver/Src/stm32n6xx_hal_gpio.c ****   position = POSITION_VAL(GPIO_Pin);
 2736              		.loc 1 580 14
 2737 015c 7B89     		ldrh	r3, [r7, #10]
 2738 015e BB61     		str	r3, [r7, #24]
 2739              	.LBB10:
 2740              	.LBB11:
 2741              		.file 2 "STM32Cube_FW_N6/Drivers/CMSIS/Include/cmsis_gcc.h"
   1:STM32Cube_FW_N6/Drivers/CMSIS/Include/cmsis_gcc.h **** /**************************************************************************//**
   2:STM32Cube_FW_N6/Drivers/CMSIS/Include/cmsis_gcc.h ****  * @file     cmsis_gcc.h
   3:STM32Cube_FW_N6/Drivers/CMSIS/Include/cmsis_gcc.h ****  * @brief    CMSIS compiler GCC header file
   4:STM32Cube_FW_N6/Drivers/CMSIS/Include/cmsis_gcc.h ****  * @version  V5.4.1
   5:STM32Cube_FW_N6/Drivers/CMSIS/Include/cmsis_gcc.h ****  * @date     27. May 2021
   6:STM32Cube_FW_N6/Drivers/CMSIS/Include/cmsis_gcc.h ****  ******************************************************************************/
   7:STM32Cube_FW_N6/Drivers/CMSIS/Include/cmsis_gcc.h **** /*
   8:STM32Cube_FW_N6/Drivers/CMSIS/Include/cmsis_gcc.h ****  * Copyright (c) 2009-2021 Arm Limited. All rights reserved.
   9:STM32Cube_FW_N6/Drivers/CMSIS/Include/cmsis_gcc.h ****  *
  10:STM32Cube_FW_N6/Drivers/CMSIS/Include/cmsis_gcc.h ****  * SPDX-License-Identifier: Apache-2.0
  11:STM32Cube_FW_N6/Drivers/CMSIS/Include/cmsis_gcc.h ****  *
  12:STM32Cube_FW_N6/Drivers/CMSIS/Include/cmsis_gcc.h ****  * Licensed under the Apache License, Version 2.0 (the License); you may
  13:STM32Cube_FW_N6/Drivers/CMSIS/Include/cmsis_gcc.h ****  * not use this file except in compliance with the License.
  14:STM32Cube_FW_N6/Drivers/CMSIS/Include/cmsis_gcc.h ****  * You may obtain a copy of the License at
  15:STM32Cube_FW_N6/Drivers/CMSIS/Include/cmsis_gcc.h ****  *
  16:STM32Cube_FW_N6/Drivers/CMSIS/Include/cmsis_gcc.h ****  * www.apache.org/licenses/LICENSE-2.0
  17:STM32Cube_FW_N6/Drivers/CMSIS/Include/cmsis_gcc.h ****  *
  18:STM32Cube_FW_N6/Drivers/CMSIS/Include/cmsis_gcc.h ****  * Unless required by applicable law or agreed to in writing, software
  19:STM32Cube_FW_N6/Drivers/CMSIS/Include/cmsis_gcc.h ****  * distributed under the License is distributed on an AS IS BASIS, WITHOUT
  20:STM32Cube_FW_N6/Drivers/CMSIS/Include/cmsis_gcc.h ****  * WARRANTIES OR CONDITIONS OF ANY KIND, either express or implied.
  21:STM32Cube_FW_N6/Drivers/CMSIS/Include/cmsis_gcc.h ****  * See the License for the specific language governing permissions and
  22:STM32Cube_FW_N6/Drivers/CMSIS/Include/cmsis_gcc.h ****  * limitations under the License.
  23:STM32Cube_FW_N6/Drivers/CMSIS/Include/cmsis_gcc.h ****  */
  24:STM32Cube_FW_N6/Drivers/CMSIS/Include/cmsis_gcc.h **** 
  25:STM32Cube_FW_N6/Drivers/CMSIS/Include/cmsis_gcc.h **** #ifndef __CMSIS_GCC_H
  26:STM32Cube_FW_N6/Drivers/CMSIS/Include/cmsis_gcc.h **** #define __CMSIS_GCC_H
  27:STM32Cube_FW_N6/Drivers/CMSIS/Include/cmsis_gcc.h **** 
  28:STM32Cube_FW_N6/Drivers/CMSIS/Include/cmsis_gcc.h **** /* ignore some GCC warnings */
  29:STM32Cube_FW_N6/Drivers/CMSIS/Include/cmsis_gcc.h **** #pragma GCC diagnostic push
  30:STM32Cube_FW_N6/Drivers/CMSIS/Include/cmsis_gcc.h **** #pragma GCC diagnostic ignored "-Wsign-conversion"
  31:STM32Cube_FW_N6/Drivers/CMSIS/Include/cmsis_gcc.h **** #pragma GCC diagnostic ignored "-Wconversion"
  32:STM32Cube_FW_N6/Drivers/CMSIS/Include/cmsis_gcc.h **** #pragma GCC diagnostic ignored "-Wunused-parameter"
  33:STM32Cube_FW_N6/Drivers/CMSIS/Include/cmsis_gcc.h **** 
  34:STM32Cube_FW_N6/Drivers/CMSIS/Include/cmsis_gcc.h **** /* Fallback for __has_builtin */
  35:STM32Cube_FW_N6/Drivers/CMSIS/Include/cmsis_gcc.h **** #ifndef __has_builtin
  36:STM32Cube_FW_N6/Drivers/CMSIS/Include/cmsis_gcc.h ****   #define __has_builtin(x) (0)
  37:STM32Cube_FW_N6/Drivers/CMSIS/Include/cmsis_gcc.h **** #endif
  38:STM32Cube_FW_N6/Drivers/CMSIS/Include/cmsis_gcc.h **** 
  39:STM32Cube_FW_N6/Drivers/CMSIS/Include/cmsis_gcc.h **** /* CMSIS compiler specific defines */
ARM GAS  /tmp/ccEPgY0u.s 			page 60


  40:STM32Cube_FW_N6/Drivers/CMSIS/Include/cmsis_gcc.h **** #ifndef   __ASM
  41:STM32Cube_FW_N6/Drivers/CMSIS/Include/cmsis_gcc.h ****   #define __ASM                                  __asm
  42:STM32Cube_FW_N6/Drivers/CMSIS/Include/cmsis_gcc.h **** #endif
  43:STM32Cube_FW_N6/Drivers/CMSIS/Include/cmsis_gcc.h **** #ifndef   __INLINE
  44:STM32Cube_FW_N6/Drivers/CMSIS/Include/cmsis_gcc.h ****   #define __INLINE                               inline
  45:STM32Cube_FW_N6/Drivers/CMSIS/Include/cmsis_gcc.h **** #endif
  46:STM32Cube_FW_N6/Drivers/CMSIS/Include/cmsis_gcc.h **** #ifndef   __STATIC_INLINE
  47:STM32Cube_FW_N6/Drivers/CMSIS/Include/cmsis_gcc.h ****   #define __STATIC_INLINE                        static inline
  48:STM32Cube_FW_N6/Drivers/CMSIS/Include/cmsis_gcc.h **** #endif
  49:STM32Cube_FW_N6/Drivers/CMSIS/Include/cmsis_gcc.h **** #ifndef   __STATIC_FORCEINLINE
  50:STM32Cube_FW_N6/Drivers/CMSIS/Include/cmsis_gcc.h ****   #define __STATIC_FORCEINLINE                   __attribute__((always_inline)) static inline
  51:STM32Cube_FW_N6/Drivers/CMSIS/Include/cmsis_gcc.h **** #endif
  52:STM32Cube_FW_N6/Drivers/CMSIS/Include/cmsis_gcc.h **** #ifndef   __NO_RETURN
  53:STM32Cube_FW_N6/Drivers/CMSIS/Include/cmsis_gcc.h ****   #define __NO_RETURN                            __attribute__((__noreturn__))
  54:STM32Cube_FW_N6/Drivers/CMSIS/Include/cmsis_gcc.h **** #endif
  55:STM32Cube_FW_N6/Drivers/CMSIS/Include/cmsis_gcc.h **** #ifndef   __USED
  56:STM32Cube_FW_N6/Drivers/CMSIS/Include/cmsis_gcc.h ****   #define __USED                                 __attribute__((used))
  57:STM32Cube_FW_N6/Drivers/CMSIS/Include/cmsis_gcc.h **** #endif
  58:STM32Cube_FW_N6/Drivers/CMSIS/Include/cmsis_gcc.h **** #ifndef   __WEAK
  59:STM32Cube_FW_N6/Drivers/CMSIS/Include/cmsis_gcc.h ****   #define __WEAK                                 __attribute__((weak))
  60:STM32Cube_FW_N6/Drivers/CMSIS/Include/cmsis_gcc.h **** #endif
  61:STM32Cube_FW_N6/Drivers/CMSIS/Include/cmsis_gcc.h **** #ifndef   __PACKED
  62:STM32Cube_FW_N6/Drivers/CMSIS/Include/cmsis_gcc.h ****   #define __PACKED                               __attribute__((packed, aligned(1)))
  63:STM32Cube_FW_N6/Drivers/CMSIS/Include/cmsis_gcc.h **** #endif
  64:STM32Cube_FW_N6/Drivers/CMSIS/Include/cmsis_gcc.h **** #ifndef   __PACKED_STRUCT
  65:STM32Cube_FW_N6/Drivers/CMSIS/Include/cmsis_gcc.h ****   #define __PACKED_STRUCT                        struct __attribute__((packed, aligned(1)))
  66:STM32Cube_FW_N6/Drivers/CMSIS/Include/cmsis_gcc.h **** #endif
  67:STM32Cube_FW_N6/Drivers/CMSIS/Include/cmsis_gcc.h **** #ifndef   __PACKED_UNION
  68:STM32Cube_FW_N6/Drivers/CMSIS/Include/cmsis_gcc.h ****   #define __PACKED_UNION                         union __attribute__((packed, aligned(1)))
  69:STM32Cube_FW_N6/Drivers/CMSIS/Include/cmsis_gcc.h **** #endif
  70:STM32Cube_FW_N6/Drivers/CMSIS/Include/cmsis_gcc.h **** #ifndef   __UNALIGNED_UINT32        /* deprecated */
  71:STM32Cube_FW_N6/Drivers/CMSIS/Include/cmsis_gcc.h ****   #pragma GCC diagnostic push
  72:STM32Cube_FW_N6/Drivers/CMSIS/Include/cmsis_gcc.h ****   #pragma GCC diagnostic ignored "-Wpacked"
  73:STM32Cube_FW_N6/Drivers/CMSIS/Include/cmsis_gcc.h ****   #pragma GCC diagnostic ignored "-Wattributes"
  74:STM32Cube_FW_N6/Drivers/CMSIS/Include/cmsis_gcc.h ****   struct __attribute__((packed)) T_UINT32 { uint32_t v; };
  75:STM32Cube_FW_N6/Drivers/CMSIS/Include/cmsis_gcc.h ****   #pragma GCC diagnostic pop
  76:STM32Cube_FW_N6/Drivers/CMSIS/Include/cmsis_gcc.h ****   #define __UNALIGNED_UINT32(x)                  (((struct T_UINT32 *)(x))->v)
  77:STM32Cube_FW_N6/Drivers/CMSIS/Include/cmsis_gcc.h **** #endif
  78:STM32Cube_FW_N6/Drivers/CMSIS/Include/cmsis_gcc.h **** #ifndef   __UNALIGNED_UINT16_WRITE
  79:STM32Cube_FW_N6/Drivers/CMSIS/Include/cmsis_gcc.h ****   #pragma GCC diagnostic push
  80:STM32Cube_FW_N6/Drivers/CMSIS/Include/cmsis_gcc.h ****   #pragma GCC diagnostic ignored "-Wpacked"
  81:STM32Cube_FW_N6/Drivers/CMSIS/Include/cmsis_gcc.h ****   #pragma GCC diagnostic ignored "-Wattributes"
  82:STM32Cube_FW_N6/Drivers/CMSIS/Include/cmsis_gcc.h ****   __PACKED_STRUCT T_UINT16_WRITE { uint16_t v; };
  83:STM32Cube_FW_N6/Drivers/CMSIS/Include/cmsis_gcc.h ****   #pragma GCC diagnostic pop
  84:STM32Cube_FW_N6/Drivers/CMSIS/Include/cmsis_gcc.h ****   #define __UNALIGNED_UINT16_WRITE(addr, val)    (void)((((struct T_UINT16_WRITE *)(void *)(addr))-
  85:STM32Cube_FW_N6/Drivers/CMSIS/Include/cmsis_gcc.h **** #endif
  86:STM32Cube_FW_N6/Drivers/CMSIS/Include/cmsis_gcc.h **** #ifndef   __UNALIGNED_UINT16_READ
  87:STM32Cube_FW_N6/Drivers/CMSIS/Include/cmsis_gcc.h ****   #pragma GCC diagnostic push
  88:STM32Cube_FW_N6/Drivers/CMSIS/Include/cmsis_gcc.h ****   #pragma GCC diagnostic ignored "-Wpacked"
  89:STM32Cube_FW_N6/Drivers/CMSIS/Include/cmsis_gcc.h ****   #pragma GCC diagnostic ignored "-Wattributes"
  90:STM32Cube_FW_N6/Drivers/CMSIS/Include/cmsis_gcc.h ****   __PACKED_STRUCT T_UINT16_READ { uint16_t v; };
  91:STM32Cube_FW_N6/Drivers/CMSIS/Include/cmsis_gcc.h ****   #pragma GCC diagnostic pop
  92:STM32Cube_FW_N6/Drivers/CMSIS/Include/cmsis_gcc.h ****   #define __UNALIGNED_UINT16_READ(addr)          (((const struct T_UINT16_READ *)(const void *)(add
  93:STM32Cube_FW_N6/Drivers/CMSIS/Include/cmsis_gcc.h **** #endif
  94:STM32Cube_FW_N6/Drivers/CMSIS/Include/cmsis_gcc.h **** #ifndef   __UNALIGNED_UINT32_WRITE
  95:STM32Cube_FW_N6/Drivers/CMSIS/Include/cmsis_gcc.h ****   #pragma GCC diagnostic push
  96:STM32Cube_FW_N6/Drivers/CMSIS/Include/cmsis_gcc.h ****   #pragma GCC diagnostic ignored "-Wpacked"
ARM GAS  /tmp/ccEPgY0u.s 			page 61


  97:STM32Cube_FW_N6/Drivers/CMSIS/Include/cmsis_gcc.h ****   #pragma GCC diagnostic ignored "-Wattributes"
  98:STM32Cube_FW_N6/Drivers/CMSIS/Include/cmsis_gcc.h ****   __PACKED_STRUCT T_UINT32_WRITE { uint32_t v; };
  99:STM32Cube_FW_N6/Drivers/CMSIS/Include/cmsis_gcc.h ****   #pragma GCC diagnostic pop
 100:STM32Cube_FW_N6/Drivers/CMSIS/Include/cmsis_gcc.h ****   #define __UNALIGNED_UINT32_WRITE(addr, val)    (void)((((struct T_UINT32_WRITE *)(void *)(addr))-
 101:STM32Cube_FW_N6/Drivers/CMSIS/Include/cmsis_gcc.h **** #endif
 102:STM32Cube_FW_N6/Drivers/CMSIS/Include/cmsis_gcc.h **** #ifndef   __UNALIGNED_UINT32_READ
 103:STM32Cube_FW_N6/Drivers/CMSIS/Include/cmsis_gcc.h ****   #pragma GCC diagnostic push
 104:STM32Cube_FW_N6/Drivers/CMSIS/Include/cmsis_gcc.h ****   #pragma GCC diagnostic ignored "-Wpacked"
 105:STM32Cube_FW_N6/Drivers/CMSIS/Include/cmsis_gcc.h ****   #pragma GCC diagnostic ignored "-Wattributes"
 106:STM32Cube_FW_N6/Drivers/CMSIS/Include/cmsis_gcc.h ****   __PACKED_STRUCT T_UINT32_READ { uint32_t v; };
 107:STM32Cube_FW_N6/Drivers/CMSIS/Include/cmsis_gcc.h ****   #pragma GCC diagnostic pop
 108:STM32Cube_FW_N6/Drivers/CMSIS/Include/cmsis_gcc.h ****   #define __UNALIGNED_UINT32_READ(addr)          (((const struct T_UINT32_READ *)(const void *)(add
 109:STM32Cube_FW_N6/Drivers/CMSIS/Include/cmsis_gcc.h **** #endif
 110:STM32Cube_FW_N6/Drivers/CMSIS/Include/cmsis_gcc.h **** #ifndef   __ALIGNED
 111:STM32Cube_FW_N6/Drivers/CMSIS/Include/cmsis_gcc.h ****   #define __ALIGNED(x)                           __attribute__((aligned(x)))
 112:STM32Cube_FW_N6/Drivers/CMSIS/Include/cmsis_gcc.h **** #endif
 113:STM32Cube_FW_N6/Drivers/CMSIS/Include/cmsis_gcc.h **** #ifndef   __RESTRICT
 114:STM32Cube_FW_N6/Drivers/CMSIS/Include/cmsis_gcc.h ****   #define __RESTRICT                             __restrict
 115:STM32Cube_FW_N6/Drivers/CMSIS/Include/cmsis_gcc.h **** #endif
 116:STM32Cube_FW_N6/Drivers/CMSIS/Include/cmsis_gcc.h **** #ifndef   __COMPILER_BARRIER
 117:STM32Cube_FW_N6/Drivers/CMSIS/Include/cmsis_gcc.h ****   #define __COMPILER_BARRIER()                   __ASM volatile("":::"memory")
 118:STM32Cube_FW_N6/Drivers/CMSIS/Include/cmsis_gcc.h **** #endif
 119:STM32Cube_FW_N6/Drivers/CMSIS/Include/cmsis_gcc.h **** 
 120:STM32Cube_FW_N6/Drivers/CMSIS/Include/cmsis_gcc.h **** /* #########################  Startup and Lowlevel Init  ######################## */
 121:STM32Cube_FW_N6/Drivers/CMSIS/Include/cmsis_gcc.h **** 
 122:STM32Cube_FW_N6/Drivers/CMSIS/Include/cmsis_gcc.h **** #ifndef __PROGRAM_START
 123:STM32Cube_FW_N6/Drivers/CMSIS/Include/cmsis_gcc.h **** 
 124:STM32Cube_FW_N6/Drivers/CMSIS/Include/cmsis_gcc.h **** /**
 125:STM32Cube_FW_N6/Drivers/CMSIS/Include/cmsis_gcc.h ****   \brief   Initializes data and bss sections
 126:STM32Cube_FW_N6/Drivers/CMSIS/Include/cmsis_gcc.h ****   \details This default implementations initialized all data and additional bss
 127:STM32Cube_FW_N6/Drivers/CMSIS/Include/cmsis_gcc.h ****            sections relying on .copy.table and .zero.table specified properly
 128:STM32Cube_FW_N6/Drivers/CMSIS/Include/cmsis_gcc.h ****            in the used linker script.
 129:STM32Cube_FW_N6/Drivers/CMSIS/Include/cmsis_gcc.h **** 
 130:STM32Cube_FW_N6/Drivers/CMSIS/Include/cmsis_gcc.h ****  */
 131:STM32Cube_FW_N6/Drivers/CMSIS/Include/cmsis_gcc.h **** __STATIC_FORCEINLINE __NO_RETURN void __cmsis_start(void)
 132:STM32Cube_FW_N6/Drivers/CMSIS/Include/cmsis_gcc.h **** {
 133:STM32Cube_FW_N6/Drivers/CMSIS/Include/cmsis_gcc.h ****   extern void _start(void) __NO_RETURN;
 134:STM32Cube_FW_N6/Drivers/CMSIS/Include/cmsis_gcc.h **** 
 135:STM32Cube_FW_N6/Drivers/CMSIS/Include/cmsis_gcc.h ****   typedef struct {
 136:STM32Cube_FW_N6/Drivers/CMSIS/Include/cmsis_gcc.h ****     uint32_t const* src;
 137:STM32Cube_FW_N6/Drivers/CMSIS/Include/cmsis_gcc.h ****     uint32_t* dest;
 138:STM32Cube_FW_N6/Drivers/CMSIS/Include/cmsis_gcc.h ****     uint32_t  wlen;
 139:STM32Cube_FW_N6/Drivers/CMSIS/Include/cmsis_gcc.h ****   } __copy_table_t;
 140:STM32Cube_FW_N6/Drivers/CMSIS/Include/cmsis_gcc.h **** 
 141:STM32Cube_FW_N6/Drivers/CMSIS/Include/cmsis_gcc.h ****   typedef struct {
 142:STM32Cube_FW_N6/Drivers/CMSIS/Include/cmsis_gcc.h ****     uint32_t* dest;
 143:STM32Cube_FW_N6/Drivers/CMSIS/Include/cmsis_gcc.h ****     uint32_t  wlen;
 144:STM32Cube_FW_N6/Drivers/CMSIS/Include/cmsis_gcc.h ****   } __zero_table_t;
 145:STM32Cube_FW_N6/Drivers/CMSIS/Include/cmsis_gcc.h **** 
 146:STM32Cube_FW_N6/Drivers/CMSIS/Include/cmsis_gcc.h ****   extern const __copy_table_t __copy_table_start__;
 147:STM32Cube_FW_N6/Drivers/CMSIS/Include/cmsis_gcc.h ****   extern const __copy_table_t __copy_table_end__;
 148:STM32Cube_FW_N6/Drivers/CMSIS/Include/cmsis_gcc.h ****   extern const __zero_table_t __zero_table_start__;
 149:STM32Cube_FW_N6/Drivers/CMSIS/Include/cmsis_gcc.h ****   extern const __zero_table_t __zero_table_end__;
 150:STM32Cube_FW_N6/Drivers/CMSIS/Include/cmsis_gcc.h **** 
 151:STM32Cube_FW_N6/Drivers/CMSIS/Include/cmsis_gcc.h ****   for (__copy_table_t const* pTable = &__copy_table_start__; pTable < &__copy_table_end__; ++pTable
 152:STM32Cube_FW_N6/Drivers/CMSIS/Include/cmsis_gcc.h ****     for(uint32_t i=0u; i<pTable->wlen; ++i) {
 153:STM32Cube_FW_N6/Drivers/CMSIS/Include/cmsis_gcc.h ****       pTable->dest[i] = pTable->src[i];
ARM GAS  /tmp/ccEPgY0u.s 			page 62


 154:STM32Cube_FW_N6/Drivers/CMSIS/Include/cmsis_gcc.h ****     }
 155:STM32Cube_FW_N6/Drivers/CMSIS/Include/cmsis_gcc.h ****   }
 156:STM32Cube_FW_N6/Drivers/CMSIS/Include/cmsis_gcc.h **** 
 157:STM32Cube_FW_N6/Drivers/CMSIS/Include/cmsis_gcc.h ****   for (__zero_table_t const* pTable = &__zero_table_start__; pTable < &__zero_table_end__; ++pTable
 158:STM32Cube_FW_N6/Drivers/CMSIS/Include/cmsis_gcc.h ****     for(uint32_t i=0u; i<pTable->wlen; ++i) {
 159:STM32Cube_FW_N6/Drivers/CMSIS/Include/cmsis_gcc.h ****       pTable->dest[i] = 0u;
 160:STM32Cube_FW_N6/Drivers/CMSIS/Include/cmsis_gcc.h ****     }
 161:STM32Cube_FW_N6/Drivers/CMSIS/Include/cmsis_gcc.h ****   }
 162:STM32Cube_FW_N6/Drivers/CMSIS/Include/cmsis_gcc.h **** 
 163:STM32Cube_FW_N6/Drivers/CMSIS/Include/cmsis_gcc.h ****   _start();
 164:STM32Cube_FW_N6/Drivers/CMSIS/Include/cmsis_gcc.h **** }
 165:STM32Cube_FW_N6/Drivers/CMSIS/Include/cmsis_gcc.h **** 
 166:STM32Cube_FW_N6/Drivers/CMSIS/Include/cmsis_gcc.h **** #define __PROGRAM_START           __cmsis_start
 167:STM32Cube_FW_N6/Drivers/CMSIS/Include/cmsis_gcc.h **** #endif
 168:STM32Cube_FW_N6/Drivers/CMSIS/Include/cmsis_gcc.h **** 
 169:STM32Cube_FW_N6/Drivers/CMSIS/Include/cmsis_gcc.h **** #ifndef __INITIAL_SP
 170:STM32Cube_FW_N6/Drivers/CMSIS/Include/cmsis_gcc.h **** #define __INITIAL_SP              __StackTop
 171:STM32Cube_FW_N6/Drivers/CMSIS/Include/cmsis_gcc.h **** #endif
 172:STM32Cube_FW_N6/Drivers/CMSIS/Include/cmsis_gcc.h **** 
 173:STM32Cube_FW_N6/Drivers/CMSIS/Include/cmsis_gcc.h **** #ifndef __STACK_LIMIT
 174:STM32Cube_FW_N6/Drivers/CMSIS/Include/cmsis_gcc.h **** #define __STACK_LIMIT             __StackLimit
 175:STM32Cube_FW_N6/Drivers/CMSIS/Include/cmsis_gcc.h **** #endif
 176:STM32Cube_FW_N6/Drivers/CMSIS/Include/cmsis_gcc.h **** 
 177:STM32Cube_FW_N6/Drivers/CMSIS/Include/cmsis_gcc.h **** #ifndef __VECTOR_TABLE
 178:STM32Cube_FW_N6/Drivers/CMSIS/Include/cmsis_gcc.h **** #define __VECTOR_TABLE            __Vectors
 179:STM32Cube_FW_N6/Drivers/CMSIS/Include/cmsis_gcc.h **** #endif
 180:STM32Cube_FW_N6/Drivers/CMSIS/Include/cmsis_gcc.h **** 
 181:STM32Cube_FW_N6/Drivers/CMSIS/Include/cmsis_gcc.h **** #ifndef __VECTOR_TABLE_ATTRIBUTE
 182:STM32Cube_FW_N6/Drivers/CMSIS/Include/cmsis_gcc.h **** #define __VECTOR_TABLE_ATTRIBUTE  __attribute__((used, section(".vectors")))
 183:STM32Cube_FW_N6/Drivers/CMSIS/Include/cmsis_gcc.h **** #endif
 184:STM32Cube_FW_N6/Drivers/CMSIS/Include/cmsis_gcc.h **** 
 185:STM32Cube_FW_N6/Drivers/CMSIS/Include/cmsis_gcc.h **** #if defined (__ARM_FEATURE_CMSE) && (__ARM_FEATURE_CMSE == 3U)
 186:STM32Cube_FW_N6/Drivers/CMSIS/Include/cmsis_gcc.h **** #ifndef __STACK_SEAL
 187:STM32Cube_FW_N6/Drivers/CMSIS/Include/cmsis_gcc.h **** #define __STACK_SEAL              __StackSeal
 188:STM32Cube_FW_N6/Drivers/CMSIS/Include/cmsis_gcc.h **** #endif
 189:STM32Cube_FW_N6/Drivers/CMSIS/Include/cmsis_gcc.h **** 
 190:STM32Cube_FW_N6/Drivers/CMSIS/Include/cmsis_gcc.h **** #ifndef __TZ_STACK_SEAL_SIZE
 191:STM32Cube_FW_N6/Drivers/CMSIS/Include/cmsis_gcc.h **** #define __TZ_STACK_SEAL_SIZE      8U
 192:STM32Cube_FW_N6/Drivers/CMSIS/Include/cmsis_gcc.h **** #endif
 193:STM32Cube_FW_N6/Drivers/CMSIS/Include/cmsis_gcc.h **** 
 194:STM32Cube_FW_N6/Drivers/CMSIS/Include/cmsis_gcc.h **** #ifndef __TZ_STACK_SEAL_VALUE
 195:STM32Cube_FW_N6/Drivers/CMSIS/Include/cmsis_gcc.h **** #define __TZ_STACK_SEAL_VALUE     0xFEF5EDA5FEF5EDA5ULL
 196:STM32Cube_FW_N6/Drivers/CMSIS/Include/cmsis_gcc.h **** #endif
 197:STM32Cube_FW_N6/Drivers/CMSIS/Include/cmsis_gcc.h **** 
 198:STM32Cube_FW_N6/Drivers/CMSIS/Include/cmsis_gcc.h **** 
 199:STM32Cube_FW_N6/Drivers/CMSIS/Include/cmsis_gcc.h **** __STATIC_FORCEINLINE void __TZ_set_STACKSEAL_S (uint32_t* stackTop) {
 200:STM32Cube_FW_N6/Drivers/CMSIS/Include/cmsis_gcc.h ****   *((uint64_t *)stackTop) = __TZ_STACK_SEAL_VALUE;
 201:STM32Cube_FW_N6/Drivers/CMSIS/Include/cmsis_gcc.h **** }
 202:STM32Cube_FW_N6/Drivers/CMSIS/Include/cmsis_gcc.h **** #endif
 203:STM32Cube_FW_N6/Drivers/CMSIS/Include/cmsis_gcc.h **** 
 204:STM32Cube_FW_N6/Drivers/CMSIS/Include/cmsis_gcc.h **** 
 205:STM32Cube_FW_N6/Drivers/CMSIS/Include/cmsis_gcc.h **** /* ##########################  Core Instruction Access  ######################### */
 206:STM32Cube_FW_N6/Drivers/CMSIS/Include/cmsis_gcc.h **** /** \defgroup CMSIS_Core_InstructionInterface CMSIS Core Instruction Interface
 207:STM32Cube_FW_N6/Drivers/CMSIS/Include/cmsis_gcc.h ****   Access to dedicated instructions
 208:STM32Cube_FW_N6/Drivers/CMSIS/Include/cmsis_gcc.h ****   @{
 209:STM32Cube_FW_N6/Drivers/CMSIS/Include/cmsis_gcc.h **** */
 210:STM32Cube_FW_N6/Drivers/CMSIS/Include/cmsis_gcc.h **** 
ARM GAS  /tmp/ccEPgY0u.s 			page 63


 211:STM32Cube_FW_N6/Drivers/CMSIS/Include/cmsis_gcc.h **** /* Define macros for porting to both thumb1 and thumb2.
 212:STM32Cube_FW_N6/Drivers/CMSIS/Include/cmsis_gcc.h ****  * For thumb1, use low register (r0-r7), specified by constraint "l"
 213:STM32Cube_FW_N6/Drivers/CMSIS/Include/cmsis_gcc.h ****  * Otherwise, use general registers, specified by constraint "r" */
 214:STM32Cube_FW_N6/Drivers/CMSIS/Include/cmsis_gcc.h **** #if defined (__thumb__) && !defined (__thumb2__)
 215:STM32Cube_FW_N6/Drivers/CMSIS/Include/cmsis_gcc.h **** #define __CMSIS_GCC_OUT_REG(r) "=l" (r)
 216:STM32Cube_FW_N6/Drivers/CMSIS/Include/cmsis_gcc.h **** #define __CMSIS_GCC_RW_REG(r) "+l" (r)
 217:STM32Cube_FW_N6/Drivers/CMSIS/Include/cmsis_gcc.h **** #define __CMSIS_GCC_USE_REG(r) "l" (r)
 218:STM32Cube_FW_N6/Drivers/CMSIS/Include/cmsis_gcc.h **** #else
 219:STM32Cube_FW_N6/Drivers/CMSIS/Include/cmsis_gcc.h **** #define __CMSIS_GCC_OUT_REG(r) "=r" (r)
 220:STM32Cube_FW_N6/Drivers/CMSIS/Include/cmsis_gcc.h **** #define __CMSIS_GCC_RW_REG(r) "+r" (r)
 221:STM32Cube_FW_N6/Drivers/CMSIS/Include/cmsis_gcc.h **** #define __CMSIS_GCC_USE_REG(r) "r" (r)
 222:STM32Cube_FW_N6/Drivers/CMSIS/Include/cmsis_gcc.h **** #endif
 223:STM32Cube_FW_N6/Drivers/CMSIS/Include/cmsis_gcc.h **** 
 224:STM32Cube_FW_N6/Drivers/CMSIS/Include/cmsis_gcc.h **** /**
 225:STM32Cube_FW_N6/Drivers/CMSIS/Include/cmsis_gcc.h ****   \brief   No Operation
 226:STM32Cube_FW_N6/Drivers/CMSIS/Include/cmsis_gcc.h ****   \details No Operation does nothing. This instruction can be used for code alignment purposes.
 227:STM32Cube_FW_N6/Drivers/CMSIS/Include/cmsis_gcc.h ****  */
 228:STM32Cube_FW_N6/Drivers/CMSIS/Include/cmsis_gcc.h **** #define __NOP()                             __ASM volatile ("nop")
 229:STM32Cube_FW_N6/Drivers/CMSIS/Include/cmsis_gcc.h **** 
 230:STM32Cube_FW_N6/Drivers/CMSIS/Include/cmsis_gcc.h **** /**
 231:STM32Cube_FW_N6/Drivers/CMSIS/Include/cmsis_gcc.h ****   \brief   Wait For Interrupt
 232:STM32Cube_FW_N6/Drivers/CMSIS/Include/cmsis_gcc.h ****   \details Wait For Interrupt is a hint instruction that suspends execution until one of a number o
 233:STM32Cube_FW_N6/Drivers/CMSIS/Include/cmsis_gcc.h ****  */
 234:STM32Cube_FW_N6/Drivers/CMSIS/Include/cmsis_gcc.h **** #define __WFI()                             __ASM volatile ("wfi":::"memory")
 235:STM32Cube_FW_N6/Drivers/CMSIS/Include/cmsis_gcc.h **** 
 236:STM32Cube_FW_N6/Drivers/CMSIS/Include/cmsis_gcc.h **** 
 237:STM32Cube_FW_N6/Drivers/CMSIS/Include/cmsis_gcc.h **** /**
 238:STM32Cube_FW_N6/Drivers/CMSIS/Include/cmsis_gcc.h ****   \brief   Wait For Event
 239:STM32Cube_FW_N6/Drivers/CMSIS/Include/cmsis_gcc.h ****   \details Wait For Event is a hint instruction that permits the processor to enter
 240:STM32Cube_FW_N6/Drivers/CMSIS/Include/cmsis_gcc.h ****            a low-power state until one of a number of events occurs.
 241:STM32Cube_FW_N6/Drivers/CMSIS/Include/cmsis_gcc.h ****  */
 242:STM32Cube_FW_N6/Drivers/CMSIS/Include/cmsis_gcc.h **** #define __WFE()                             __ASM volatile ("wfe":::"memory")
 243:STM32Cube_FW_N6/Drivers/CMSIS/Include/cmsis_gcc.h **** 
 244:STM32Cube_FW_N6/Drivers/CMSIS/Include/cmsis_gcc.h **** 
 245:STM32Cube_FW_N6/Drivers/CMSIS/Include/cmsis_gcc.h **** /**
 246:STM32Cube_FW_N6/Drivers/CMSIS/Include/cmsis_gcc.h ****   \brief   Send Event
 247:STM32Cube_FW_N6/Drivers/CMSIS/Include/cmsis_gcc.h ****   \details Send Event is a hint instruction. It causes an event to be signaled to the CPU.
 248:STM32Cube_FW_N6/Drivers/CMSIS/Include/cmsis_gcc.h ****  */
 249:STM32Cube_FW_N6/Drivers/CMSIS/Include/cmsis_gcc.h **** #define __SEV()                             __ASM volatile ("sev")
 250:STM32Cube_FW_N6/Drivers/CMSIS/Include/cmsis_gcc.h **** 
 251:STM32Cube_FW_N6/Drivers/CMSIS/Include/cmsis_gcc.h **** 
 252:STM32Cube_FW_N6/Drivers/CMSIS/Include/cmsis_gcc.h **** /**
 253:STM32Cube_FW_N6/Drivers/CMSIS/Include/cmsis_gcc.h ****   \brief   Instruction Synchronization Barrier
 254:STM32Cube_FW_N6/Drivers/CMSIS/Include/cmsis_gcc.h ****   \details Instruction Synchronization Barrier flushes the pipeline in the processor,
 255:STM32Cube_FW_N6/Drivers/CMSIS/Include/cmsis_gcc.h ****            so that all instructions following the ISB are fetched from cache or memory,
 256:STM32Cube_FW_N6/Drivers/CMSIS/Include/cmsis_gcc.h ****            after the instruction has been completed.
 257:STM32Cube_FW_N6/Drivers/CMSIS/Include/cmsis_gcc.h ****  */
 258:STM32Cube_FW_N6/Drivers/CMSIS/Include/cmsis_gcc.h **** __STATIC_FORCEINLINE void __ISB(void)
 259:STM32Cube_FW_N6/Drivers/CMSIS/Include/cmsis_gcc.h **** {
 260:STM32Cube_FW_N6/Drivers/CMSIS/Include/cmsis_gcc.h ****   __ASM volatile ("isb 0xF":::"memory");
 261:STM32Cube_FW_N6/Drivers/CMSIS/Include/cmsis_gcc.h **** }
 262:STM32Cube_FW_N6/Drivers/CMSIS/Include/cmsis_gcc.h **** 
 263:STM32Cube_FW_N6/Drivers/CMSIS/Include/cmsis_gcc.h **** 
 264:STM32Cube_FW_N6/Drivers/CMSIS/Include/cmsis_gcc.h **** /**
 265:STM32Cube_FW_N6/Drivers/CMSIS/Include/cmsis_gcc.h ****   \brief   Data Synchronization Barrier
 266:STM32Cube_FW_N6/Drivers/CMSIS/Include/cmsis_gcc.h ****   \details Acts as a special kind of Data Memory Barrier.
 267:STM32Cube_FW_N6/Drivers/CMSIS/Include/cmsis_gcc.h ****            It completes when all explicit memory accesses before this instruction complete.
ARM GAS  /tmp/ccEPgY0u.s 			page 64


 268:STM32Cube_FW_N6/Drivers/CMSIS/Include/cmsis_gcc.h ****  */
 269:STM32Cube_FW_N6/Drivers/CMSIS/Include/cmsis_gcc.h **** __STATIC_FORCEINLINE void __DSB(void)
 270:STM32Cube_FW_N6/Drivers/CMSIS/Include/cmsis_gcc.h **** {
 271:STM32Cube_FW_N6/Drivers/CMSIS/Include/cmsis_gcc.h ****   __ASM volatile ("dsb 0xF":::"memory");
 272:STM32Cube_FW_N6/Drivers/CMSIS/Include/cmsis_gcc.h **** }
 273:STM32Cube_FW_N6/Drivers/CMSIS/Include/cmsis_gcc.h **** 
 274:STM32Cube_FW_N6/Drivers/CMSIS/Include/cmsis_gcc.h **** 
 275:STM32Cube_FW_N6/Drivers/CMSIS/Include/cmsis_gcc.h **** /**
 276:STM32Cube_FW_N6/Drivers/CMSIS/Include/cmsis_gcc.h ****   \brief   Data Memory Barrier
 277:STM32Cube_FW_N6/Drivers/CMSIS/Include/cmsis_gcc.h ****   \details Ensures the apparent order of the explicit memory operations before
 278:STM32Cube_FW_N6/Drivers/CMSIS/Include/cmsis_gcc.h ****            and after the instruction, without ensuring their completion.
 279:STM32Cube_FW_N6/Drivers/CMSIS/Include/cmsis_gcc.h ****  */
 280:STM32Cube_FW_N6/Drivers/CMSIS/Include/cmsis_gcc.h **** __STATIC_FORCEINLINE void __DMB(void)
 281:STM32Cube_FW_N6/Drivers/CMSIS/Include/cmsis_gcc.h **** {
 282:STM32Cube_FW_N6/Drivers/CMSIS/Include/cmsis_gcc.h ****   __ASM volatile ("dmb 0xF":::"memory");
 283:STM32Cube_FW_N6/Drivers/CMSIS/Include/cmsis_gcc.h **** }
 284:STM32Cube_FW_N6/Drivers/CMSIS/Include/cmsis_gcc.h **** 
 285:STM32Cube_FW_N6/Drivers/CMSIS/Include/cmsis_gcc.h **** 
 286:STM32Cube_FW_N6/Drivers/CMSIS/Include/cmsis_gcc.h **** /**
 287:STM32Cube_FW_N6/Drivers/CMSIS/Include/cmsis_gcc.h ****   \brief   Reverse byte order (32 bit)
 288:STM32Cube_FW_N6/Drivers/CMSIS/Include/cmsis_gcc.h ****   \details Reverses the byte order in unsigned integer value. For example, 0x12345678 becomes 0x785
 289:STM32Cube_FW_N6/Drivers/CMSIS/Include/cmsis_gcc.h ****   \param [in]    value  Value to reverse
 290:STM32Cube_FW_N6/Drivers/CMSIS/Include/cmsis_gcc.h ****   \return               Reversed value
 291:STM32Cube_FW_N6/Drivers/CMSIS/Include/cmsis_gcc.h ****  */
 292:STM32Cube_FW_N6/Drivers/CMSIS/Include/cmsis_gcc.h **** __STATIC_FORCEINLINE uint32_t __REV(uint32_t value)
 293:STM32Cube_FW_N6/Drivers/CMSIS/Include/cmsis_gcc.h **** {
 294:STM32Cube_FW_N6/Drivers/CMSIS/Include/cmsis_gcc.h **** #if (__GNUC__ > 4) || (__GNUC__ == 4 && __GNUC_MINOR__ >= 5)
 295:STM32Cube_FW_N6/Drivers/CMSIS/Include/cmsis_gcc.h ****   return __builtin_bswap32(value);
 296:STM32Cube_FW_N6/Drivers/CMSIS/Include/cmsis_gcc.h **** #else
 297:STM32Cube_FW_N6/Drivers/CMSIS/Include/cmsis_gcc.h ****   uint32_t result;
 298:STM32Cube_FW_N6/Drivers/CMSIS/Include/cmsis_gcc.h **** 
 299:STM32Cube_FW_N6/Drivers/CMSIS/Include/cmsis_gcc.h ****   __ASM ("rev %0, %1" : __CMSIS_GCC_OUT_REG (result) : __CMSIS_GCC_USE_REG (value) );
 300:STM32Cube_FW_N6/Drivers/CMSIS/Include/cmsis_gcc.h ****   return result;
 301:STM32Cube_FW_N6/Drivers/CMSIS/Include/cmsis_gcc.h **** #endif
 302:STM32Cube_FW_N6/Drivers/CMSIS/Include/cmsis_gcc.h **** }
 303:STM32Cube_FW_N6/Drivers/CMSIS/Include/cmsis_gcc.h **** 
 304:STM32Cube_FW_N6/Drivers/CMSIS/Include/cmsis_gcc.h **** 
 305:STM32Cube_FW_N6/Drivers/CMSIS/Include/cmsis_gcc.h **** /**
 306:STM32Cube_FW_N6/Drivers/CMSIS/Include/cmsis_gcc.h ****   \brief   Reverse byte order (16 bit)
 307:STM32Cube_FW_N6/Drivers/CMSIS/Include/cmsis_gcc.h ****   \details Reverses the byte order within each halfword of a word. For example, 0x12345678 becomes 
 308:STM32Cube_FW_N6/Drivers/CMSIS/Include/cmsis_gcc.h ****   \param [in]    value  Value to reverse
 309:STM32Cube_FW_N6/Drivers/CMSIS/Include/cmsis_gcc.h ****   \return               Reversed value
 310:STM32Cube_FW_N6/Drivers/CMSIS/Include/cmsis_gcc.h ****  */
 311:STM32Cube_FW_N6/Drivers/CMSIS/Include/cmsis_gcc.h **** __STATIC_FORCEINLINE uint32_t __REV16(uint32_t value)
 312:STM32Cube_FW_N6/Drivers/CMSIS/Include/cmsis_gcc.h **** {
 313:STM32Cube_FW_N6/Drivers/CMSIS/Include/cmsis_gcc.h ****   uint32_t result;
 314:STM32Cube_FW_N6/Drivers/CMSIS/Include/cmsis_gcc.h **** 
 315:STM32Cube_FW_N6/Drivers/CMSIS/Include/cmsis_gcc.h ****   __ASM ("rev16 %0, %1" : __CMSIS_GCC_OUT_REG (result) : __CMSIS_GCC_USE_REG (value) );
 316:STM32Cube_FW_N6/Drivers/CMSIS/Include/cmsis_gcc.h ****   return result;
 317:STM32Cube_FW_N6/Drivers/CMSIS/Include/cmsis_gcc.h **** }
 318:STM32Cube_FW_N6/Drivers/CMSIS/Include/cmsis_gcc.h **** 
 319:STM32Cube_FW_N6/Drivers/CMSIS/Include/cmsis_gcc.h **** 
 320:STM32Cube_FW_N6/Drivers/CMSIS/Include/cmsis_gcc.h **** /**
 321:STM32Cube_FW_N6/Drivers/CMSIS/Include/cmsis_gcc.h ****   \brief   Reverse byte order (16 bit)
 322:STM32Cube_FW_N6/Drivers/CMSIS/Include/cmsis_gcc.h ****   \details Reverses the byte order in a 16-bit value and returns the signed 16-bit result. For exam
 323:STM32Cube_FW_N6/Drivers/CMSIS/Include/cmsis_gcc.h ****   \param [in]    value  Value to reverse
 324:STM32Cube_FW_N6/Drivers/CMSIS/Include/cmsis_gcc.h ****   \return               Reversed value
ARM GAS  /tmp/ccEPgY0u.s 			page 65


 325:STM32Cube_FW_N6/Drivers/CMSIS/Include/cmsis_gcc.h ****  */
 326:STM32Cube_FW_N6/Drivers/CMSIS/Include/cmsis_gcc.h **** __STATIC_FORCEINLINE int16_t __REVSH(int16_t value)
 327:STM32Cube_FW_N6/Drivers/CMSIS/Include/cmsis_gcc.h **** {
 328:STM32Cube_FW_N6/Drivers/CMSIS/Include/cmsis_gcc.h **** #if (__GNUC__ > 4) || (__GNUC__ == 4 && __GNUC_MINOR__ >= 8)
 329:STM32Cube_FW_N6/Drivers/CMSIS/Include/cmsis_gcc.h ****   return (int16_t)__builtin_bswap16(value);
 330:STM32Cube_FW_N6/Drivers/CMSIS/Include/cmsis_gcc.h **** #else
 331:STM32Cube_FW_N6/Drivers/CMSIS/Include/cmsis_gcc.h ****   int16_t result;
 332:STM32Cube_FW_N6/Drivers/CMSIS/Include/cmsis_gcc.h **** 
 333:STM32Cube_FW_N6/Drivers/CMSIS/Include/cmsis_gcc.h ****   __ASM ("revsh %0, %1" : __CMSIS_GCC_OUT_REG (result) : __CMSIS_GCC_USE_REG (value) );
 334:STM32Cube_FW_N6/Drivers/CMSIS/Include/cmsis_gcc.h ****   return result;
 335:STM32Cube_FW_N6/Drivers/CMSIS/Include/cmsis_gcc.h **** #endif
 336:STM32Cube_FW_N6/Drivers/CMSIS/Include/cmsis_gcc.h **** }
 337:STM32Cube_FW_N6/Drivers/CMSIS/Include/cmsis_gcc.h **** 
 338:STM32Cube_FW_N6/Drivers/CMSIS/Include/cmsis_gcc.h **** 
 339:STM32Cube_FW_N6/Drivers/CMSIS/Include/cmsis_gcc.h **** /**
 340:STM32Cube_FW_N6/Drivers/CMSIS/Include/cmsis_gcc.h ****   \brief   Rotate Right in unsigned value (32 bit)
 341:STM32Cube_FW_N6/Drivers/CMSIS/Include/cmsis_gcc.h ****   \details Rotate Right (immediate) provides the value of the contents of a register rotated by a v
 342:STM32Cube_FW_N6/Drivers/CMSIS/Include/cmsis_gcc.h ****   \param [in]    op1  Value to rotate
 343:STM32Cube_FW_N6/Drivers/CMSIS/Include/cmsis_gcc.h ****   \param [in]    op2  Number of Bits to rotate
 344:STM32Cube_FW_N6/Drivers/CMSIS/Include/cmsis_gcc.h ****   \return               Rotated value
 345:STM32Cube_FW_N6/Drivers/CMSIS/Include/cmsis_gcc.h ****  */
 346:STM32Cube_FW_N6/Drivers/CMSIS/Include/cmsis_gcc.h **** __STATIC_FORCEINLINE uint32_t __ROR(uint32_t op1, uint32_t op2)
 347:STM32Cube_FW_N6/Drivers/CMSIS/Include/cmsis_gcc.h **** {
 348:STM32Cube_FW_N6/Drivers/CMSIS/Include/cmsis_gcc.h ****   op2 %= 32U;
 349:STM32Cube_FW_N6/Drivers/CMSIS/Include/cmsis_gcc.h ****   if (op2 == 0U)
 350:STM32Cube_FW_N6/Drivers/CMSIS/Include/cmsis_gcc.h ****   {
 351:STM32Cube_FW_N6/Drivers/CMSIS/Include/cmsis_gcc.h ****     return op1;
 352:STM32Cube_FW_N6/Drivers/CMSIS/Include/cmsis_gcc.h ****   }
 353:STM32Cube_FW_N6/Drivers/CMSIS/Include/cmsis_gcc.h ****   return (op1 >> op2) | (op1 << (32U - op2));
 354:STM32Cube_FW_N6/Drivers/CMSIS/Include/cmsis_gcc.h **** }
 355:STM32Cube_FW_N6/Drivers/CMSIS/Include/cmsis_gcc.h **** 
 356:STM32Cube_FW_N6/Drivers/CMSIS/Include/cmsis_gcc.h **** 
 357:STM32Cube_FW_N6/Drivers/CMSIS/Include/cmsis_gcc.h **** /**
 358:STM32Cube_FW_N6/Drivers/CMSIS/Include/cmsis_gcc.h ****   \brief   Breakpoint
 359:STM32Cube_FW_N6/Drivers/CMSIS/Include/cmsis_gcc.h ****   \details Causes the processor to enter Debug state.
 360:STM32Cube_FW_N6/Drivers/CMSIS/Include/cmsis_gcc.h ****            Debug tools can use this to investigate system state when the instruction at a particula
 361:STM32Cube_FW_N6/Drivers/CMSIS/Include/cmsis_gcc.h ****   \param [in]    value  is ignored by the processor.
 362:STM32Cube_FW_N6/Drivers/CMSIS/Include/cmsis_gcc.h ****                  If required, a debugger can use it to store additional information about the break
 363:STM32Cube_FW_N6/Drivers/CMSIS/Include/cmsis_gcc.h ****  */
 364:STM32Cube_FW_N6/Drivers/CMSIS/Include/cmsis_gcc.h **** #define __BKPT(value)                       __ASM volatile ("bkpt "#value)
 365:STM32Cube_FW_N6/Drivers/CMSIS/Include/cmsis_gcc.h **** 
 366:STM32Cube_FW_N6/Drivers/CMSIS/Include/cmsis_gcc.h **** 
 367:STM32Cube_FW_N6/Drivers/CMSIS/Include/cmsis_gcc.h **** /**
 368:STM32Cube_FW_N6/Drivers/CMSIS/Include/cmsis_gcc.h ****   \brief   Reverse bit order of value
 369:STM32Cube_FW_N6/Drivers/CMSIS/Include/cmsis_gcc.h ****   \details Reverses the bit order of the given value.
 370:STM32Cube_FW_N6/Drivers/CMSIS/Include/cmsis_gcc.h ****   \param [in]    value  Value to reverse
 371:STM32Cube_FW_N6/Drivers/CMSIS/Include/cmsis_gcc.h ****   \return               Reversed value
 372:STM32Cube_FW_N6/Drivers/CMSIS/Include/cmsis_gcc.h ****  */
 373:STM32Cube_FW_N6/Drivers/CMSIS/Include/cmsis_gcc.h **** __STATIC_FORCEINLINE uint32_t __RBIT(uint32_t value)
 374:STM32Cube_FW_N6/Drivers/CMSIS/Include/cmsis_gcc.h **** {
 375:STM32Cube_FW_N6/Drivers/CMSIS/Include/cmsis_gcc.h ****   uint32_t result;
 376:STM32Cube_FW_N6/Drivers/CMSIS/Include/cmsis_gcc.h **** 
 377:STM32Cube_FW_N6/Drivers/CMSIS/Include/cmsis_gcc.h **** #if ((defined (__ARM_ARCH_7M__      ) && (__ARM_ARCH_7M__      == 1)) || \
 378:STM32Cube_FW_N6/Drivers/CMSIS/Include/cmsis_gcc.h ****      (defined (__ARM_ARCH_7EM__     ) && (__ARM_ARCH_7EM__     == 1)) || \
 379:STM32Cube_FW_N6/Drivers/CMSIS/Include/cmsis_gcc.h ****      (defined (__ARM_ARCH_8M_MAIN__ ) && (__ARM_ARCH_8M_MAIN__ == 1))    )
 380:STM32Cube_FW_N6/Drivers/CMSIS/Include/cmsis_gcc.h ****    __ASM ("rbit %0, %1" : "=r" (result) : "r" (value) );
 2742              		.loc 2 380 4
ARM GAS  /tmp/ccEPgY0u.s 			page 66


 2743 0160 BB69     		ldr	r3, [r7, #24]
 2744              		.syntax unified
 2745              	@ 380 "STM32Cube_FW_N6/Drivers/CMSIS/Include/cmsis_gcc.h" 1
 2746 0162 93FAA3F3 		rbit r3, r3
 2747              	@ 0 "" 2
 2748              		.thumb
 2749              		.syntax unified
 2750 0166 7B61     		str	r3, [r7, #20]
 381:STM32Cube_FW_N6/Drivers/CMSIS/Include/cmsis_gcc.h **** #else
 382:STM32Cube_FW_N6/Drivers/CMSIS/Include/cmsis_gcc.h ****   uint32_t s = (4U /*sizeof(v)*/ * 8U) - 1U; /* extra shift needed at end */
 383:STM32Cube_FW_N6/Drivers/CMSIS/Include/cmsis_gcc.h **** 
 384:STM32Cube_FW_N6/Drivers/CMSIS/Include/cmsis_gcc.h ****   result = value;                      /* r will be reversed bits of v; first get LSB of v */
 385:STM32Cube_FW_N6/Drivers/CMSIS/Include/cmsis_gcc.h ****   for (value >>= 1U; value != 0U; value >>= 1U)
 386:STM32Cube_FW_N6/Drivers/CMSIS/Include/cmsis_gcc.h ****   {
 387:STM32Cube_FW_N6/Drivers/CMSIS/Include/cmsis_gcc.h ****     result <<= 1U;
 388:STM32Cube_FW_N6/Drivers/CMSIS/Include/cmsis_gcc.h ****     result |= value & 1U;
 389:STM32Cube_FW_N6/Drivers/CMSIS/Include/cmsis_gcc.h ****     s--;
 390:STM32Cube_FW_N6/Drivers/CMSIS/Include/cmsis_gcc.h ****   }
 391:STM32Cube_FW_N6/Drivers/CMSIS/Include/cmsis_gcc.h ****   result <<= s;                        /* shift when v's highest bits are zero */
 392:STM32Cube_FW_N6/Drivers/CMSIS/Include/cmsis_gcc.h **** #endif
 393:STM32Cube_FW_N6/Drivers/CMSIS/Include/cmsis_gcc.h ****   return result;
 2751              		.loc 2 393 10
 2752 0168 7B69     		ldr	r3, [r7, #20]
 2753 016a FB61     		str	r3, [r7, #28]
 2754              	.LBE11:
 2755              	.LBE10:
 2756              	.LBB12:
 2757              	.LBB13:
 394:STM32Cube_FW_N6/Drivers/CMSIS/Include/cmsis_gcc.h **** }
 395:STM32Cube_FW_N6/Drivers/CMSIS/Include/cmsis_gcc.h **** 
 396:STM32Cube_FW_N6/Drivers/CMSIS/Include/cmsis_gcc.h **** 
 397:STM32Cube_FW_N6/Drivers/CMSIS/Include/cmsis_gcc.h **** /**
 398:STM32Cube_FW_N6/Drivers/CMSIS/Include/cmsis_gcc.h ****   \brief   Count leading zeros
 399:STM32Cube_FW_N6/Drivers/CMSIS/Include/cmsis_gcc.h ****   \details Counts the number of leading zeros of a data value.
 400:STM32Cube_FW_N6/Drivers/CMSIS/Include/cmsis_gcc.h ****   \param [in]  value  Value to count the leading zeros
 401:STM32Cube_FW_N6/Drivers/CMSIS/Include/cmsis_gcc.h ****   \return             number of leading zeros in value
 402:STM32Cube_FW_N6/Drivers/CMSIS/Include/cmsis_gcc.h ****  */
 403:STM32Cube_FW_N6/Drivers/CMSIS/Include/cmsis_gcc.h **** __STATIC_FORCEINLINE uint8_t __CLZ(uint32_t value)
 404:STM32Cube_FW_N6/Drivers/CMSIS/Include/cmsis_gcc.h **** {
 405:STM32Cube_FW_N6/Drivers/CMSIS/Include/cmsis_gcc.h ****   /* Even though __builtin_clz produces a CLZ instruction on ARM, formally
 406:STM32Cube_FW_N6/Drivers/CMSIS/Include/cmsis_gcc.h ****      __builtin_clz(0) is undefined behaviour, so handle this case specially.
 407:STM32Cube_FW_N6/Drivers/CMSIS/Include/cmsis_gcc.h ****      This guarantees ARM-compatible results if happening to compile on a non-ARM
 408:STM32Cube_FW_N6/Drivers/CMSIS/Include/cmsis_gcc.h ****      target, and ensures the compiler doesn't decide to activate any
 409:STM32Cube_FW_N6/Drivers/CMSIS/Include/cmsis_gcc.h ****      optimisations using the logic "value was passed to __builtin_clz, so it
 410:STM32Cube_FW_N6/Drivers/CMSIS/Include/cmsis_gcc.h ****      is non-zero".
 411:STM32Cube_FW_N6/Drivers/CMSIS/Include/cmsis_gcc.h ****      ARM GCC 7.3 and possibly earlier will optimise this test away, leaving a
 412:STM32Cube_FW_N6/Drivers/CMSIS/Include/cmsis_gcc.h ****      single CLZ instruction.
 413:STM32Cube_FW_N6/Drivers/CMSIS/Include/cmsis_gcc.h ****    */
 414:STM32Cube_FW_N6/Drivers/CMSIS/Include/cmsis_gcc.h ****   if (value == 0U)
 2758              		.loc 2 414 6
 2759 016c FB69     		ldr	r3, [r7, #28]
 2760 016e 002B     		cmp	r3, #0
 2761 0170 01D1     		bne	.L136
 415:STM32Cube_FW_N6/Drivers/CMSIS/Include/cmsis_gcc.h ****   {
 416:STM32Cube_FW_N6/Drivers/CMSIS/Include/cmsis_gcc.h ****     return 32U;
 2762              		.loc 2 416 12
 2763 0172 2023     		movs	r3, #32
ARM GAS  /tmp/ccEPgY0u.s 			page 67


 2764 0174 03E0     		b	.L137
 2765              	.L136:
 417:STM32Cube_FW_N6/Drivers/CMSIS/Include/cmsis_gcc.h ****   }
 418:STM32Cube_FW_N6/Drivers/CMSIS/Include/cmsis_gcc.h ****   return __builtin_clz(value);
 2766              		.loc 2 418 10
 2767 0176 FB69     		ldr	r3, [r7, #28]
 2768 0178 B3FA83F3 		clz	r3, r3
 2769              		.loc 2 418 10 is_stmt 0 discriminator 1
 2770 017c DBB2     		uxtb	r3, r3
 2771              	.L137:
 2772              	.LBE13:
 2773              	.LBE12:
 2774              		.loc 1 580 12 is_stmt 1 discriminator 2
 2775 017e 7B62     		str	r3, [r7, #36]
 581:STM32Cube_FW_N6/Drivers/STM32N6xx_HAL_Driver/Src/stm32n6xx_hal_gpio.c **** 
 582:STM32Cube_FW_N6/Drivers/STM32N6xx_HAL_Driver/Src/stm32n6xx_hal_gpio.c ****   /* Get the IO advanced configuration */
 583:STM32Cube_FW_N6/Drivers/STM32N6xx_HAL_Driver/Src/stm32n6xx_hal_gpio.c ****   index = (position & 0x07u) * GPIO_ADVCFGRL_1_Pos;
 2776              		.loc 1 583 21
 2777 0180 7B6A     		ldr	r3, [r7, #36]
 2778 0182 03F00703 		and	r3, r3, #7
 2779              		.loc 1 583 9
 2780 0186 9B00     		lsls	r3, r3, #2
 2781 0188 3B62     		str	r3, [r7, #32]
 584:STM32Cube_FW_N6/Drivers/STM32N6xx_HAL_Driver/Src/stm32n6xx_hal_gpio.c ****   pRet_Init->Edge = ((GPIOx->ADVCFGR[position >> 3u]
 2782              		.loc 1 584 47
 2783 018a 7B6A     		ldr	r3, [r7, #36]
 2784 018c DA08     		lsrs	r2, r3, #3
 2785              		.loc 1 584 37
 2786 018e FB68     		ldr	r3, [r7, #12]
 2787 0190 1232     		adds	r2, r2, #18
 2788 0192 53F82220 		ldr	r2, [r3, r2, lsl #2]
 585:STM32Cube_FW_N6/Drivers/STM32N6xx_HAL_Driver/Src/stm32n6xx_hal_gpio.c ****                       & ((GPIO_ADVCFGRL_DE0 << index) | (GPIO_ADVCFGRL_INVCLK0 << index))) >> index
 2789              		.loc 1 585 55
 2790 0196 0621     		movs	r1, #6
 2791 0198 3B6A     		ldr	r3, [r7, #32]
 2792 019a 01FA03F3 		lsl	r3, r1, r3
 2793              		.loc 1 585 23
 2794 019e 1A40     		ands	r2, r2, r3
 2795              		.loc 1 585 92
 2796 01a0 3B6A     		ldr	r3, [r7, #32]
 2797 01a2 DA40     		lsrs	r2, r2, r3
 584:STM32Cube_FW_N6/Drivers/STM32N6xx_HAL_Driver/Src/stm32n6xx_hal_gpio.c ****   pRet_Init->Edge = ((GPIOx->ADVCFGR[position >> 3u]
 2798              		.loc 1 584 19
 2799 01a4 7B68     		ldr	r3, [r7, #4]
 2800 01a6 5A60     		str	r2, [r3, #4]
 586:STM32Cube_FW_N6/Drivers/STM32N6xx_HAL_Driver/Src/stm32n6xx_hal_gpio.c ****   pRet_Init->Retime = ((GPIOx->ADVCFGR[position >> 3u] & (GPIO_ADVCFGRL_RET0 << index)) >> index);
 2801              		.loc 1 586 49
 2802 01a8 7B6A     		ldr	r3, [r7, #36]
 2803 01aa DA08     		lsrs	r2, r3, #3
 2804              		.loc 1 586 39
 2805 01ac FB68     		ldr	r3, [r7, #12]
 2806 01ae 1232     		adds	r2, r2, #18
 2807 01b0 53F82220 		ldr	r2, [r3, r2, lsl #2]
 2808              		.loc 1 586 78
 2809 01b4 0821     		movs	r1, #8
 2810 01b6 3B6A     		ldr	r3, [r7, #32]
 2811 01b8 01FA03F3 		lsl	r3, r1, r3
ARM GAS  /tmp/ccEPgY0u.s 			page 68


 2812              		.loc 1 586 56
 2813 01bc 1A40     		ands	r2, r2, r3
 2814              		.loc 1 586 89
 2815 01be 3B6A     		ldr	r3, [r7, #32]
 2816 01c0 DA40     		lsrs	r2, r2, r3
 2817              		.loc 1 586 21
 2818 01c2 7B68     		ldr	r3, [r7, #4]
 2819 01c4 1A60     		str	r2, [r3]
 587:STM32Cube_FW_N6/Drivers/STM32N6xx_HAL_Driver/Src/stm32n6xx_hal_gpio.c **** 
 588:STM32Cube_FW_N6/Drivers/STM32N6xx_HAL_Driver/Src/stm32n6xx_hal_gpio.c ****   return HAL_OK;
 2820              		.loc 1 588 10
 2821 01c6 0023     		movs	r3, #0
 2822              	.L134:
 589:STM32Cube_FW_N6/Drivers/STM32N6xx_HAL_Driver/Src/stm32n6xx_hal_gpio.c **** }
 2823              		.loc 1 589 1
 2824 01c8 1846     		mov	r0, r3
 2825 01ca 2837     		adds	r7, r7, #40
 2826              		.cfi_def_cfa_offset 8
 2827 01cc BD46     		mov	sp, r7
 2828              		.cfi_def_cfa_register 13
 2829              		@ sp needed
 2830 01ce 80BD     		pop	{r7, pc}
 2831              	.L139:
 2832              		.align	2
 2833              	.L138:
 2834 01d0 00000256 		.word	1442971648
 2835 01d4 00000246 		.word	1174536192
 2836 01d8 00040256 		.word	1442972672
 2837 01dc 00040246 		.word	1174537216
 2838 01e0 00080256 		.word	1442973696
 2839 01e4 00080246 		.word	1174538240
 2840 01e8 000C0256 		.word	1442974720
 2841 01ec 000C0246 		.word	1174539264
 2842 01f0 00100256 		.word	1442975744
 2843 01f4 00100246 		.word	1174540288
 2844 01f8 00140256 		.word	1442976768
 2845 01fc 00140246 		.word	1174541312
 2846 0200 00180256 		.word	1442977792
 2847 0204 00180246 		.word	1174542336
 2848 0208 001C0256 		.word	1442978816
 2849 020c 001C0246 		.word	1174543360
 2850 0210 00340256 		.word	1442984960
 2851 0214 00340246 		.word	1174549504
 2852 0218 00380256 		.word	1442985984
 2853 021c 00380246 		.word	1174550528
 2854 0220 003C0256 		.word	1442987008
 2855 0224 003C0246 		.word	1174551552
 2856 0228 00400256 		.word	1442988032
 2857 022c 00400246 		.word	1174552576
 2858 0230 00000000 		.word	.LC0
 2859              		.cfi_endproc
 2860              	.LFE843:
 2862              		.section	.text.HAL_GPIO_SetDelay,"ax",%progbits
 2863              		.align	1
 2864              		.global	HAL_GPIO_SetDelay
 2865              		.syntax unified
 2866              		.thumb
ARM GAS  /tmp/ccEPgY0u.s 			page 69


 2867              		.thumb_func
 2869              	HAL_GPIO_SetDelay:
 2870              	.LFB844:
 590:STM32Cube_FW_N6/Drivers/STM32N6xx_HAL_Driver/Src/stm32n6xx_hal_gpio.c **** 
 591:STM32Cube_FW_N6/Drivers/STM32N6xx_HAL_Driver/Src/stm32n6xx_hal_gpio.c **** 
 592:STM32Cube_FW_N6/Drivers/STM32N6xx_HAL_Driver/Src/stm32n6xx_hal_gpio.c **** /**
 593:STM32Cube_FW_N6/Drivers/STM32N6xx_HAL_Driver/Src/stm32n6xx_hal_gpio.c ****   * @brief  Configure GPIO delay on specified GPIO pin.
 594:STM32Cube_FW_N6/Drivers/STM32N6xx_HAL_Driver/Src/stm32n6xx_hal_gpio.c ****   * @param  GPIOx where x can be (A..H and N..Q)
 595:STM32Cube_FW_N6/Drivers/STM32N6xx_HAL_Driver/Src/stm32n6xx_hal_gpio.c ****   * @param  GPIO_Pin specifies the port bit to be written.
 596:STM32Cube_FW_N6/Drivers/STM32N6xx_HAL_Driver/Src/stm32n6xx_hal_gpio.c ****   *         This parameter can be any combination of GPIO_Pin_x where x can be (0..15).
 597:STM32Cube_FW_N6/Drivers/STM32N6xx_HAL_Driver/Src/stm32n6xx_hal_gpio.c ****   * @param  pDly_Init pointer to a GPIO_DelayTypeDef structure that contains
 598:STM32Cube_FW_N6/Drivers/STM32N6xx_HAL_Driver/Src/stm32n6xx_hal_gpio.c ****   *         the delay configuration information for the specified GPIO peripheral.
 599:STM32Cube_FW_N6/Drivers/STM32N6xx_HAL_Driver/Src/stm32n6xx_hal_gpio.c ****   * @retval None
 600:STM32Cube_FW_N6/Drivers/STM32N6xx_HAL_Driver/Src/stm32n6xx_hal_gpio.c ****   */
 601:STM32Cube_FW_N6/Drivers/STM32N6xx_HAL_Driver/Src/stm32n6xx_hal_gpio.c **** void HAL_GPIO_SetDelay(GPIO_TypeDef *GPIOx, uint16_t GPIO_Pin, const GPIO_DelayTypeDef *pDly_Init)
 602:STM32Cube_FW_N6/Drivers/STM32N6xx_HAL_Driver/Src/stm32n6xx_hal_gpio.c **** {
 2871              		.loc 1 602 1
 2872              		.cfi_startproc
 2873              		@ args = 0, pretend = 0, frame = 32
 2874              		@ frame_needed = 1, uses_anonymous_args = 0
 2875 0000 80B5     		push	{r7, lr}
 2876              		.cfi_def_cfa_offset 8
 2877              		.cfi_offset 7, -8
 2878              		.cfi_offset 14, -4
 2879 0002 88B0     		sub	sp, sp, #32
 2880              		.cfi_def_cfa_offset 40
 2881 0004 00AF     		add	r7, sp, #0
 2882              		.cfi_def_cfa_register 7
 2883 0006 F860     		str	r0, [r7, #12]
 2884 0008 0B46     		mov	r3, r1
 2885 000a 7A60     		str	r2, [r7, #4]
 2886 000c 7B81     		strh	r3, [r7, #10]	@ movhi
 603:STM32Cube_FW_N6/Drivers/STM32N6xx_HAL_Driver/Src/stm32n6xx_hal_gpio.c ****   uint32_t position = 0x00u;
 2887              		.loc 1 603 12
 2888 000e 0023     		movs	r3, #0
 2889 0010 FB61     		str	r3, [r7, #28]
 604:STM32Cube_FW_N6/Drivers/STM32N6xx_HAL_Driver/Src/stm32n6xx_hal_gpio.c ****   uint32_t iocurrent;
 605:STM32Cube_FW_N6/Drivers/STM32N6xx_HAL_Driver/Src/stm32n6xx_hal_gpio.c ****   uint32_t temp;
 606:STM32Cube_FW_N6/Drivers/STM32N6xx_HAL_Driver/Src/stm32n6xx_hal_gpio.c **** 
 607:STM32Cube_FW_N6/Drivers/STM32N6xx_HAL_Driver/Src/stm32n6xx_hal_gpio.c ****   /* Check the parameters */
 608:STM32Cube_FW_N6/Drivers/STM32N6xx_HAL_Driver/Src/stm32n6xx_hal_gpio.c ****   assert_param(IS_GPIO_ALL_INSTANCE(GPIOx));
 2890              		.loc 1 608 3
 2891 0012 FB68     		ldr	r3, [r7, #12]
 2892 0014 8B4A     		ldr	r2, .L148
 2893 0016 9342     		cmp	r3, r2
 2894 0018 60D0     		beq	.L141
 2895              		.loc 1 608 3 is_stmt 0 discriminator 1
 2896 001a FB68     		ldr	r3, [r7, #12]
 2897 001c 8A4A     		ldr	r2, .L148+4
 2898 001e 9342     		cmp	r3, r2
 2899 0020 5CD0     		beq	.L141
 2900              		.loc 1 608 3 discriminator 2
 2901 0022 FB68     		ldr	r3, [r7, #12]
 2902 0024 894A     		ldr	r2, .L148+8
 2903 0026 9342     		cmp	r3, r2
 2904 0028 58D0     		beq	.L141
 2905              		.loc 1 608 3 discriminator 3
ARM GAS  /tmp/ccEPgY0u.s 			page 70


 2906 002a FB68     		ldr	r3, [r7, #12]
 2907 002c 884A     		ldr	r2, .L148+12
 2908 002e 9342     		cmp	r3, r2
 2909 0030 54D0     		beq	.L141
 2910              		.loc 1 608 3 discriminator 4
 2911 0032 FB68     		ldr	r3, [r7, #12]
 2912 0034 874A     		ldr	r2, .L148+16
 2913 0036 9342     		cmp	r3, r2
 2914 0038 50D0     		beq	.L141
 2915              		.loc 1 608 3 discriminator 5
 2916 003a FB68     		ldr	r3, [r7, #12]
 2917 003c 864A     		ldr	r2, .L148+20
 2918 003e 9342     		cmp	r3, r2
 2919 0040 4CD0     		beq	.L141
 2920              		.loc 1 608 3 discriminator 6
 2921 0042 FB68     		ldr	r3, [r7, #12]
 2922 0044 854A     		ldr	r2, .L148+24
 2923 0046 9342     		cmp	r3, r2
 2924 0048 48D0     		beq	.L141
 2925              		.loc 1 608 3 discriminator 7
 2926 004a FB68     		ldr	r3, [r7, #12]
 2927 004c 844A     		ldr	r2, .L148+28
 2928 004e 9342     		cmp	r3, r2
 2929 0050 44D0     		beq	.L141
 2930              		.loc 1 608 3 discriminator 8
 2931 0052 FB68     		ldr	r3, [r7, #12]
 2932 0054 834A     		ldr	r2, .L148+32
 2933 0056 9342     		cmp	r3, r2
 2934 0058 40D0     		beq	.L141
 2935              		.loc 1 608 3 discriminator 9
 2936 005a FB68     		ldr	r3, [r7, #12]
 2937 005c 824A     		ldr	r2, .L148+36
 2938 005e 9342     		cmp	r3, r2
 2939 0060 3CD0     		beq	.L141
 2940              		.loc 1 608 3 discriminator 10
 2941 0062 FB68     		ldr	r3, [r7, #12]
 2942 0064 814A     		ldr	r2, .L148+40
 2943 0066 9342     		cmp	r3, r2
 2944 0068 38D0     		beq	.L141
 2945              		.loc 1 608 3 discriminator 11
 2946 006a FB68     		ldr	r3, [r7, #12]
 2947 006c 804A     		ldr	r2, .L148+44
 2948 006e 9342     		cmp	r3, r2
 2949 0070 34D0     		beq	.L141
 2950              		.loc 1 608 3 discriminator 12
 2951 0072 FB68     		ldr	r3, [r7, #12]
 2952 0074 7F4A     		ldr	r2, .L148+48
 2953 0076 9342     		cmp	r3, r2
 2954 0078 30D0     		beq	.L141
 2955              		.loc 1 608 3 discriminator 13
 2956 007a FB68     		ldr	r3, [r7, #12]
 2957 007c 7E4A     		ldr	r2, .L148+52
 2958 007e 9342     		cmp	r3, r2
 2959 0080 2CD0     		beq	.L141
 2960              		.loc 1 608 3 discriminator 14
 2961 0082 FB68     		ldr	r3, [r7, #12]
 2962 0084 7D4A     		ldr	r2, .L148+56
ARM GAS  /tmp/ccEPgY0u.s 			page 71


 2963 0086 9342     		cmp	r3, r2
 2964 0088 28D0     		beq	.L141
 2965              		.loc 1 608 3 discriminator 15
 2966 008a FB68     		ldr	r3, [r7, #12]
 2967 008c 7C4A     		ldr	r2, .L148+60
 2968 008e 9342     		cmp	r3, r2
 2969 0090 24D0     		beq	.L141
 2970              		.loc 1 608 3 discriminator 16
 2971 0092 FB68     		ldr	r3, [r7, #12]
 2972 0094 7B4A     		ldr	r2, .L148+64
 2973 0096 9342     		cmp	r3, r2
 2974 0098 20D0     		beq	.L141
 2975              		.loc 1 608 3 discriminator 17
 2976 009a FB68     		ldr	r3, [r7, #12]
 2977 009c 7A4A     		ldr	r2, .L148+68
 2978 009e 9342     		cmp	r3, r2
 2979 00a0 1CD0     		beq	.L141
 2980              		.loc 1 608 3 discriminator 18
 2981 00a2 FB68     		ldr	r3, [r7, #12]
 2982 00a4 794A     		ldr	r2, .L148+72
 2983 00a6 9342     		cmp	r3, r2
 2984 00a8 18D0     		beq	.L141
 2985              		.loc 1 608 3 discriminator 19
 2986 00aa FB68     		ldr	r3, [r7, #12]
 2987 00ac 784A     		ldr	r2, .L148+76
 2988 00ae 9342     		cmp	r3, r2
 2989 00b0 14D0     		beq	.L141
 2990              		.loc 1 608 3 discriminator 20
 2991 00b2 FB68     		ldr	r3, [r7, #12]
 2992 00b4 774A     		ldr	r2, .L148+80
 2993 00b6 9342     		cmp	r3, r2
 2994 00b8 10D0     		beq	.L141
 2995              		.loc 1 608 3 discriminator 21
 2996 00ba FB68     		ldr	r3, [r7, #12]
 2997 00bc 764A     		ldr	r2, .L148+84
 2998 00be 9342     		cmp	r3, r2
 2999 00c0 0CD0     		beq	.L141
 3000              		.loc 1 608 3 discriminator 22
 3001 00c2 FB68     		ldr	r3, [r7, #12]
 3002 00c4 754A     		ldr	r2, .L148+88
 3003 00c6 9342     		cmp	r3, r2
 3004 00c8 08D0     		beq	.L141
 3005              		.loc 1 608 3 discriminator 23
 3006 00ca FB68     		ldr	r3, [r7, #12]
 3007 00cc 744A     		ldr	r2, .L148+92
 3008 00ce 9342     		cmp	r3, r2
 3009 00d0 04D0     		beq	.L141
 3010              		.loc 1 608 3 discriminator 24
 3011 00d2 4FF41871 		mov	r1, #608
 3012 00d6 7348     		ldr	r0, .L148+96
 3013 00d8 FFF7FEFF 		bl	assert_failed
 3014              	.L141:
 609:STM32Cube_FW_N6/Drivers/STM32N6xx_HAL_Driver/Src/stm32n6xx_hal_gpio.c ****   assert_param(IS_GPIO_PIN(GPIO_Pin));
 3015              		.loc 1 609 3 is_stmt 1
 3016 00dc 7B89     		ldrh	r3, [r7, #10]
 3017 00de 002B     		cmp	r3, #0
 3018 00e0 04D1     		bne	.L142
ARM GAS  /tmp/ccEPgY0u.s 			page 72


 3019              		.loc 1 609 3 is_stmt 0 discriminator 1
 3020 00e2 40F26121 		movw	r1, #609
 3021 00e6 6F48     		ldr	r0, .L148+96
 3022 00e8 FFF7FEFF 		bl	assert_failed
 3023              	.L142:
 610:STM32Cube_FW_N6/Drivers/STM32N6xx_HAL_Driver/Src/stm32n6xx_hal_gpio.c ****   assert_param(IS_GPIO_DELAY(pDly_Init->Delay));
 3024              		.loc 1 610 3 is_stmt 1
 3025 00ec 7B68     		ldr	r3, [r7, #4]
 3026 00ee 1B68     		ldr	r3, [r3]
 3027 00f0 002B     		cmp	r3, #0
 3028 00f2 38D0     		beq	.L143
 3029              		.loc 1 610 3 is_stmt 0 discriminator 1
 3030 00f4 7B68     		ldr	r3, [r7, #4]
 3031 00f6 1B68     		ldr	r3, [r3]
 3032 00f8 012B     		cmp	r3, #1
 3033 00fa 34D0     		beq	.L143
 3034              		.loc 1 610 3 discriminator 2
 3035 00fc 7B68     		ldr	r3, [r7, #4]
 3036 00fe 1B68     		ldr	r3, [r3]
 3037 0100 022B     		cmp	r3, #2
 3038 0102 30D0     		beq	.L143
 3039              		.loc 1 610 3 discriminator 3
 3040 0104 7B68     		ldr	r3, [r7, #4]
 3041 0106 1B68     		ldr	r3, [r3]
 3042 0108 032B     		cmp	r3, #3
 3043 010a 2CD0     		beq	.L143
 3044              		.loc 1 610 3 discriminator 4
 3045 010c 7B68     		ldr	r3, [r7, #4]
 3046 010e 1B68     		ldr	r3, [r3]
 3047 0110 042B     		cmp	r3, #4
 3048 0112 28D0     		beq	.L143
 3049              		.loc 1 610 3 discriminator 5
 3050 0114 7B68     		ldr	r3, [r7, #4]
 3051 0116 1B68     		ldr	r3, [r3]
 3052 0118 052B     		cmp	r3, #5
 3053 011a 24D0     		beq	.L143
 3054              		.loc 1 610 3 discriminator 6
 3055 011c 7B68     		ldr	r3, [r7, #4]
 3056 011e 1B68     		ldr	r3, [r3]
 3057 0120 062B     		cmp	r3, #6
 3058 0122 20D0     		beq	.L143
 3059              		.loc 1 610 3 discriminator 7
 3060 0124 7B68     		ldr	r3, [r7, #4]
 3061 0126 1B68     		ldr	r3, [r3]
 3062 0128 072B     		cmp	r3, #7
 3063 012a 1CD0     		beq	.L143
 3064              		.loc 1 610 3 discriminator 8
 3065 012c 7B68     		ldr	r3, [r7, #4]
 3066 012e 1B68     		ldr	r3, [r3]
 3067 0130 082B     		cmp	r3, #8
 3068 0132 18D0     		beq	.L143
 3069              		.loc 1 610 3 discriminator 9
 3070 0134 7B68     		ldr	r3, [r7, #4]
 3071 0136 1B68     		ldr	r3, [r3]
 3072 0138 092B     		cmp	r3, #9
 3073 013a 14D0     		beq	.L143
 3074              		.loc 1 610 3 discriminator 10
ARM GAS  /tmp/ccEPgY0u.s 			page 73


 3075 013c 7B68     		ldr	r3, [r7, #4]
 3076 013e 1B68     		ldr	r3, [r3]
 3077 0140 0A2B     		cmp	r3, #10
 3078 0142 10D0     		beq	.L143
 3079              		.loc 1 610 3 discriminator 11
 3080 0144 7B68     		ldr	r3, [r7, #4]
 3081 0146 1B68     		ldr	r3, [r3]
 3082 0148 0B2B     		cmp	r3, #11
 3083 014a 0CD0     		beq	.L143
 3084              		.loc 1 610 3 discriminator 12
 3085 014c 7B68     		ldr	r3, [r7, #4]
 3086 014e 1B68     		ldr	r3, [r3]
 3087 0150 0C2B     		cmp	r3, #12
 3088 0152 08D0     		beq	.L143
 3089              		.loc 1 610 3 discriminator 13
 3090 0154 7B68     		ldr	r3, [r7, #4]
 3091 0156 1B68     		ldr	r3, [r3]
 3092 0158 0D2B     		cmp	r3, #13
 3093 015a 04D0     		beq	.L143
 3094              		.loc 1 610 3 discriminator 14
 3095 015c 40F26221 		movw	r1, #610
 3096 0160 5048     		ldr	r0, .L148+96
 3097 0162 FFF7FEFF 		bl	assert_failed
 3098              	.L143:
 611:STM32Cube_FW_N6/Drivers/STM32N6xx_HAL_Driver/Src/stm32n6xx_hal_gpio.c ****   assert_param(IS_GPIO_PATH(pDly_Init->Path));
 3099              		.loc 1 611 3 is_stmt 1
 3100 0166 7B68     		ldr	r3, [r7, #4]
 3101 0168 5B68     		ldr	r3, [r3, #4]
 3102 016a 002B     		cmp	r3, #0
 3103 016c 5ED0     		beq	.L145
 3104              		.loc 1 611 3 is_stmt 0 discriminator 1
 3105 016e 7B68     		ldr	r3, [r7, #4]
 3106 0170 5B68     		ldr	r3, [r3, #4]
 3107 0172 012B     		cmp	r3, #1
 3108 0174 5AD0     		beq	.L145
 3109              		.loc 1 611 3 discriminator 2
 3110 0176 40F26321 		movw	r1, #611
 3111 017a 4A48     		ldr	r0, .L148+96
 3112 017c FFF7FEFF 		bl	assert_failed
 612:STM32Cube_FW_N6/Drivers/STM32N6xx_HAL_Driver/Src/stm32n6xx_hal_gpio.c **** 
 613:STM32Cube_FW_N6/Drivers/STM32N6xx_HAL_Driver/Src/stm32n6xx_hal_gpio.c ****   /* Configure the port pins */
 614:STM32Cube_FW_N6/Drivers/STM32N6xx_HAL_Driver/Src/stm32n6xx_hal_gpio.c ****   while ((GPIO_Pin >> position) != 0x00u)
 3113              		.loc 1 614 9 is_stmt 1
 3114 0180 54E0     		b	.L145
 3115              	.L147:
 615:STM32Cube_FW_N6/Drivers/STM32N6xx_HAL_Driver/Src/stm32n6xx_hal_gpio.c ****   {
 616:STM32Cube_FW_N6/Drivers/STM32N6xx_HAL_Driver/Src/stm32n6xx_hal_gpio.c ****     /* Get current io position */
 617:STM32Cube_FW_N6/Drivers/STM32N6xx_HAL_Driver/Src/stm32n6xx_hal_gpio.c ****     iocurrent = (GPIO_Pin) & (1uL << position);
 3116              		.loc 1 617 28
 3117 0182 7A89     		ldrh	r2, [r7, #10]
 3118              		.loc 1 617 35
 3119 0184 0121     		movs	r1, #1
 3120 0186 FB69     		ldr	r3, [r7, #28]
 3121 0188 01FA03F3 		lsl	r3, r1, r3
 3122              		.loc 1 617 15
 3123 018c 1340     		ands	r3, r3, r2
 3124 018e BB61     		str	r3, [r7, #24]
ARM GAS  /tmp/ccEPgY0u.s 			page 74


 618:STM32Cube_FW_N6/Drivers/STM32N6xx_HAL_Driver/Src/stm32n6xx_hal_gpio.c **** 
 619:STM32Cube_FW_N6/Drivers/STM32N6xx_HAL_Driver/Src/stm32n6xx_hal_gpio.c ****     if (iocurrent != 0x00u)
 3125              		.loc 1 619 8
 3126 0190 BB69     		ldr	r3, [r7, #24]
 3127 0192 002B     		cmp	r3, #0
 3128 0194 47D0     		beq	.L146
 620:STM32Cube_FW_N6/Drivers/STM32N6xx_HAL_Driver/Src/stm32n6xx_hal_gpio.c ****     {
 621:STM32Cube_FW_N6/Drivers/STM32N6xx_HAL_Driver/Src/stm32n6xx_hal_gpio.c ****       /* Configure the IO Delay path */
 622:STM32Cube_FW_N6/Drivers/STM32N6xx_HAL_Driver/Src/stm32n6xx_hal_gpio.c ****       temp = GPIOx->ADVCFGR[position >> 3u];
 3129              		.loc 1 622 38
 3130 0196 FB69     		ldr	r3, [r7, #28]
 3131 0198 DA08     		lsrs	r2, r3, #3
 3132              		.loc 1 622 12
 3133 019a FB68     		ldr	r3, [r7, #12]
 3134 019c 1232     		adds	r2, r2, #18
 3135 019e 53F82230 		ldr	r3, [r3, r2, lsl #2]
 3136 01a2 7B61     		str	r3, [r7, #20]
 623:STM32Cube_FW_N6/Drivers/STM32N6xx_HAL_Driver/Src/stm32n6xx_hal_gpio.c ****       temp &= ~(GPIO_ADVCFGRL_DLYPATH0 << ((position & 0x07u) * GPIO_ADVCFGRL_1_Pos));
 3137              		.loc 1 623 54
 3138 01a4 FB69     		ldr	r3, [r7, #28]
 3139 01a6 03F00703 		and	r3, r3, #7
 3140              		.loc 1 623 63
 3141 01aa 9B00     		lsls	r3, r3, #2
 3142              		.loc 1 623 40
 3143 01ac 0122     		movs	r2, #1
 3144 01ae 02FA03F3 		lsl	r3, r2, r3
 3145              		.loc 1 623 15
 3146 01b2 DB43     		mvns	r3, r3
 3147              		.loc 1 623 12
 3148 01b4 7A69     		ldr	r2, [r7, #20]
 3149 01b6 1340     		ands	r3, r3, r2
 3150 01b8 7B61     		str	r3, [r7, #20]
 624:STM32Cube_FW_N6/Drivers/STM32N6xx_HAL_Driver/Src/stm32n6xx_hal_gpio.c ****       temp |= (pDly_Init->Path << ((position & 0x07u) * GPIO_ADVCFGRL_1_Pos));
 3151              		.loc 1 624 25
 3152 01ba 7B68     		ldr	r3, [r7, #4]
 3153 01bc 5A68     		ldr	r2, [r3, #4]
 3154              		.loc 1 624 46
 3155 01be FB69     		ldr	r3, [r7, #28]
 3156 01c0 03F00703 		and	r3, r3, #7
 3157              		.loc 1 624 55
 3158 01c4 9B00     		lsls	r3, r3, #2
 3159              		.loc 1 624 32
 3160 01c6 02FA03F3 		lsl	r3, r2, r3
 3161              		.loc 1 624 12
 3162 01ca 7A69     		ldr	r2, [r7, #20]
 3163 01cc 1343     		orrs	r3, r3, r2
 3164 01ce 7B61     		str	r3, [r7, #20]
 625:STM32Cube_FW_N6/Drivers/STM32N6xx_HAL_Driver/Src/stm32n6xx_hal_gpio.c ****       GPIOx->ADVCFGR[position >> 3u] = temp;
 3165              		.loc 1 625 31
 3166 01d0 FB69     		ldr	r3, [r7, #28]
 3167 01d2 DA08     		lsrs	r2, r3, #3
 3168              		.loc 1 625 38
 3169 01d4 FB68     		ldr	r3, [r7, #12]
 3170 01d6 1232     		adds	r2, r2, #18
 3171 01d8 7969     		ldr	r1, [r7, #20]
 3172 01da 43F82210 		str	r1, [r3, r2, lsl #2]
 626:STM32Cube_FW_N6/Drivers/STM32N6xx_HAL_Driver/Src/stm32n6xx_hal_gpio.c **** 
ARM GAS  /tmp/ccEPgY0u.s 			page 75


 627:STM32Cube_FW_N6/Drivers/STM32N6xx_HAL_Driver/Src/stm32n6xx_hal_gpio.c ****       /* Configure the IO Delay */
 628:STM32Cube_FW_N6/Drivers/STM32N6xx_HAL_Driver/Src/stm32n6xx_hal_gpio.c ****       temp = GPIOx->DELAYR[position >> 3u];
 3173              		.loc 1 628 37
 3174 01de FB69     		ldr	r3, [r7, #28]
 3175 01e0 DA08     		lsrs	r2, r3, #3
 3176              		.loc 1 628 12
 3177 01e2 FB68     		ldr	r3, [r7, #12]
 3178 01e4 1032     		adds	r2, r2, #16
 3179 01e6 53F82230 		ldr	r3, [r3, r2, lsl #2]
 3180 01ea 7B61     		str	r3, [r7, #20]
 629:STM32Cube_FW_N6/Drivers/STM32N6xx_HAL_Driver/Src/stm32n6xx_hal_gpio.c ****       temp &= ~(GPIO_DELAYRL_DLY0_Msk << ((position & 0x07u) * GPIO_ADVCFGRL_1_Pos));
 3181              		.loc 1 629 53
 3182 01ec FB69     		ldr	r3, [r7, #28]
 3183 01ee 03F00703 		and	r3, r3, #7
 3184              		.loc 1 629 62
 3185 01f2 9B00     		lsls	r3, r3, #2
 3186              		.loc 1 629 39
 3187 01f4 0F22     		movs	r2, #15
 3188 01f6 02FA03F3 		lsl	r3, r2, r3
 3189              		.loc 1 629 15
 3190 01fa DB43     		mvns	r3, r3
 3191              		.loc 1 629 12
 3192 01fc 7A69     		ldr	r2, [r7, #20]
 3193 01fe 1340     		ands	r3, r3, r2
 3194 0200 7B61     		str	r3, [r7, #20]
 630:STM32Cube_FW_N6/Drivers/STM32N6xx_HAL_Driver/Src/stm32n6xx_hal_gpio.c ****       temp |= (pDly_Init->Delay << ((position & 0x07u) * GPIO_ADVCFGRL_1_Pos));
 3195              		.loc 1 630 25
 3196 0202 7B68     		ldr	r3, [r7, #4]
 3197 0204 1A68     		ldr	r2, [r3]
 3198              		.loc 1 630 47
 3199 0206 FB69     		ldr	r3, [r7, #28]
 3200 0208 03F00703 		and	r3, r3, #7
 3201              		.loc 1 630 56
 3202 020c 9B00     		lsls	r3, r3, #2
 3203              		.loc 1 630 33
 3204 020e 02FA03F3 		lsl	r3, r2, r3
 3205              		.loc 1 630 12
 3206 0212 7A69     		ldr	r2, [r7, #20]
 3207 0214 1343     		orrs	r3, r3, r2
 3208 0216 7B61     		str	r3, [r7, #20]
 631:STM32Cube_FW_N6/Drivers/STM32N6xx_HAL_Driver/Src/stm32n6xx_hal_gpio.c ****       GPIOx->DELAYR[position >> 3u] = temp;
 3209              		.loc 1 631 30
 3210 0218 FB69     		ldr	r3, [r7, #28]
 3211 021a DA08     		lsrs	r2, r3, #3
 3212              		.loc 1 631 37
 3213 021c FB68     		ldr	r3, [r7, #12]
 3214 021e 1032     		adds	r2, r2, #16
 3215 0220 7969     		ldr	r1, [r7, #20]
 3216 0222 43F82210 		str	r1, [r3, r2, lsl #2]
 3217              	.L146:
 632:STM32Cube_FW_N6/Drivers/STM32N6xx_HAL_Driver/Src/stm32n6xx_hal_gpio.c ****     }
 633:STM32Cube_FW_N6/Drivers/STM32N6xx_HAL_Driver/Src/stm32n6xx_hal_gpio.c ****     position++;
 3218              		.loc 1 633 13
 3219 0226 FB69     		ldr	r3, [r7, #28]
 3220 0228 0133     		adds	r3, r3, #1
 3221 022a FB61     		str	r3, [r7, #28]
 3222              	.L145:
ARM GAS  /tmp/ccEPgY0u.s 			page 76


 614:STM32Cube_FW_N6/Drivers/STM32N6xx_HAL_Driver/Src/stm32n6xx_hal_gpio.c ****   {
 3223              		.loc 1 614 20
 3224 022c 7A89     		ldrh	r2, [r7, #10]
 3225 022e FB69     		ldr	r3, [r7, #28]
 3226 0230 42FA03F3 		asr	r3, r2, r3
 614:STM32Cube_FW_N6/Drivers/STM32N6xx_HAL_Driver/Src/stm32n6xx_hal_gpio.c ****   {
 3227              		.loc 1 614 33
 3228 0234 002B     		cmp	r3, #0
 3229 0236 A4D1     		bne	.L147
 634:STM32Cube_FW_N6/Drivers/STM32N6xx_HAL_Driver/Src/stm32n6xx_hal_gpio.c ****   }
 635:STM32Cube_FW_N6/Drivers/STM32N6xx_HAL_Driver/Src/stm32n6xx_hal_gpio.c **** }
 3230              		.loc 1 635 1
 3231 0238 00BF     		nop
 3232 023a 00BF     		nop
 3233 023c 2037     		adds	r7, r7, #32
 3234              		.cfi_def_cfa_offset 8
 3235 023e BD46     		mov	sp, r7
 3236              		.cfi_def_cfa_register 13
 3237              		@ sp needed
 3238 0240 80BD     		pop	{r7, pc}
 3239              	.L149:
 3240 0242 00BF     		.align	2
 3241              	.L148:
 3242 0244 00000256 		.word	1442971648
 3243 0248 00000246 		.word	1174536192
 3244 024c 00040256 		.word	1442972672
 3245 0250 00040246 		.word	1174537216
 3246 0254 00080256 		.word	1442973696
 3247 0258 00080246 		.word	1174538240
 3248 025c 000C0256 		.word	1442974720
 3249 0260 000C0246 		.word	1174539264
 3250 0264 00100256 		.word	1442975744
 3251 0268 00100246 		.word	1174540288
 3252 026c 00140256 		.word	1442976768
 3253 0270 00140246 		.word	1174541312
 3254 0274 00180256 		.word	1442977792
 3255 0278 00180246 		.word	1174542336
 3256 027c 001C0256 		.word	1442978816
 3257 0280 001C0246 		.word	1174543360
 3258 0284 00340256 		.word	1442984960
 3259 0288 00340246 		.word	1174549504
 3260 028c 00380256 		.word	1442985984
 3261 0290 00380246 		.word	1174550528
 3262 0294 003C0256 		.word	1442987008
 3263 0298 003C0246 		.word	1174551552
 3264 029c 00400256 		.word	1442988032
 3265 02a0 00400246 		.word	1174552576
 3266 02a4 00000000 		.word	.LC0
 3267              		.cfi_endproc
 3268              	.LFE844:
 3270              		.section	.text.HAL_GPIO_GetDelay,"ax",%progbits
 3271              		.align	1
 3272              		.global	HAL_GPIO_GetDelay
 3273              		.syntax unified
 3274              		.thumb
 3275              		.thumb_func
 3277              	HAL_GPIO_GetDelay:
ARM GAS  /tmp/ccEPgY0u.s 			page 77


 3278              	.LFB845:
 636:STM32Cube_FW_N6/Drivers/STM32N6xx_HAL_Driver/Src/stm32n6xx_hal_gpio.c **** 
 637:STM32Cube_FW_N6/Drivers/STM32N6xx_HAL_Driver/Src/stm32n6xx_hal_gpio.c **** /**
 638:STM32Cube_FW_N6/Drivers/STM32N6xx_HAL_Driver/Src/stm32n6xx_hal_gpio.c ****   * @brief  Get GPIO delay configuration on specified GPIO pin.
 639:STM32Cube_FW_N6/Drivers/STM32N6xx_HAL_Driver/Src/stm32n6xx_hal_gpio.c ****   * @param  GPIOx where x can be (A..H and N..Q)
 640:STM32Cube_FW_N6/Drivers/STM32N6xx_HAL_Driver/Src/stm32n6xx_hal_gpio.c ****   * @param  GPIO_Pin specifies the port bit to read.
 641:STM32Cube_FW_N6/Drivers/STM32N6xx_HAL_Driver/Src/stm32n6xx_hal_gpio.c ****   *         This parameter can be GPIO_PIN_x where x can be (0..15).
 642:STM32Cube_FW_N6/Drivers/STM32N6xx_HAL_Driver/Src/stm32n6xx_hal_gpio.c ****   * @param  pDly_Init pointer to the return GPIO_DelayTypeDef structure that contains the delay inf
 643:STM32Cube_FW_N6/Drivers/STM32N6xx_HAL_Driver/Src/stm32n6xx_hal_gpio.c ****   * @retval HAL Status
 644:STM32Cube_FW_N6/Drivers/STM32N6xx_HAL_Driver/Src/stm32n6xx_hal_gpio.c ****   */
 645:STM32Cube_FW_N6/Drivers/STM32N6xx_HAL_Driver/Src/stm32n6xx_hal_gpio.c **** HAL_StatusTypeDef HAL_GPIO_GetDelay(const GPIO_TypeDef *GPIOx, uint16_t GPIO_Pin, GPIO_DelayTypeDef
 646:STM32Cube_FW_N6/Drivers/STM32N6xx_HAL_Driver/Src/stm32n6xx_hal_gpio.c **** {
 3279              		.loc 1 646 1
 3280              		.cfi_startproc
 3281              		@ args = 0, pretend = 0, frame = 40
 3282              		@ frame_needed = 1, uses_anonymous_args = 0
 3283 0000 80B5     		push	{r7, lr}
 3284              		.cfi_def_cfa_offset 8
 3285              		.cfi_offset 7, -8
 3286              		.cfi_offset 14, -4
 3287 0002 8AB0     		sub	sp, sp, #40
 3288              		.cfi_def_cfa_offset 48
 3289 0004 00AF     		add	r7, sp, #0
 3290              		.cfi_def_cfa_register 7
 3291 0006 F860     		str	r0, [r7, #12]
 3292 0008 0B46     		mov	r3, r1
 3293 000a 7A60     		str	r2, [r7, #4]
 3294 000c 7B81     		strh	r3, [r7, #10]	@ movhi
 647:STM32Cube_FW_N6/Drivers/STM32N6xx_HAL_Driver/Src/stm32n6xx_hal_gpio.c ****   uint32_t position;
 648:STM32Cube_FW_N6/Drivers/STM32N6xx_HAL_Driver/Src/stm32n6xx_hal_gpio.c ****   uint32_t index;
 649:STM32Cube_FW_N6/Drivers/STM32N6xx_HAL_Driver/Src/stm32n6xx_hal_gpio.c **** 
 650:STM32Cube_FW_N6/Drivers/STM32N6xx_HAL_Driver/Src/stm32n6xx_hal_gpio.c ****   /* Check the parameters */
 651:STM32Cube_FW_N6/Drivers/STM32N6xx_HAL_Driver/Src/stm32n6xx_hal_gpio.c ****   assert_param(IS_GPIO_ALL_INSTANCE(GPIOx));
 3295              		.loc 1 651 3
 3296 000e FB68     		ldr	r3, [r7, #12]
 3297 0010 6F4A     		ldr	r2, .L158
 3298 0012 9342     		cmp	r3, r2
 3299 0014 60D0     		beq	.L151
 3300              		.loc 1 651 3 is_stmt 0 discriminator 1
 3301 0016 FB68     		ldr	r3, [r7, #12]
 3302 0018 6E4A     		ldr	r2, .L158+4
 3303 001a 9342     		cmp	r3, r2
 3304 001c 5CD0     		beq	.L151
 3305              		.loc 1 651 3 discriminator 2
 3306 001e FB68     		ldr	r3, [r7, #12]
 3307 0020 6D4A     		ldr	r2, .L158+8
 3308 0022 9342     		cmp	r3, r2
 3309 0024 58D0     		beq	.L151
 3310              		.loc 1 651 3 discriminator 3
 3311 0026 FB68     		ldr	r3, [r7, #12]
 3312 0028 6C4A     		ldr	r2, .L158+12
 3313 002a 9342     		cmp	r3, r2
 3314 002c 54D0     		beq	.L151
 3315              		.loc 1 651 3 discriminator 4
 3316 002e FB68     		ldr	r3, [r7, #12]
 3317 0030 6B4A     		ldr	r2, .L158+16
 3318 0032 9342     		cmp	r3, r2
ARM GAS  /tmp/ccEPgY0u.s 			page 78


 3319 0034 50D0     		beq	.L151
 3320              		.loc 1 651 3 discriminator 5
 3321 0036 FB68     		ldr	r3, [r7, #12]
 3322 0038 6A4A     		ldr	r2, .L158+20
 3323 003a 9342     		cmp	r3, r2
 3324 003c 4CD0     		beq	.L151
 3325              		.loc 1 651 3 discriminator 6
 3326 003e FB68     		ldr	r3, [r7, #12]
 3327 0040 694A     		ldr	r2, .L158+24
 3328 0042 9342     		cmp	r3, r2
 3329 0044 48D0     		beq	.L151
 3330              		.loc 1 651 3 discriminator 7
 3331 0046 FB68     		ldr	r3, [r7, #12]
 3332 0048 684A     		ldr	r2, .L158+28
 3333 004a 9342     		cmp	r3, r2
 3334 004c 44D0     		beq	.L151
 3335              		.loc 1 651 3 discriminator 8
 3336 004e FB68     		ldr	r3, [r7, #12]
 3337 0050 674A     		ldr	r2, .L158+32
 3338 0052 9342     		cmp	r3, r2
 3339 0054 40D0     		beq	.L151
 3340              		.loc 1 651 3 discriminator 9
 3341 0056 FB68     		ldr	r3, [r7, #12]
 3342 0058 664A     		ldr	r2, .L158+36
 3343 005a 9342     		cmp	r3, r2
 3344 005c 3CD0     		beq	.L151
 3345              		.loc 1 651 3 discriminator 10
 3346 005e FB68     		ldr	r3, [r7, #12]
 3347 0060 654A     		ldr	r2, .L158+40
 3348 0062 9342     		cmp	r3, r2
 3349 0064 38D0     		beq	.L151
 3350              		.loc 1 651 3 discriminator 11
 3351 0066 FB68     		ldr	r3, [r7, #12]
 3352 0068 644A     		ldr	r2, .L158+44
 3353 006a 9342     		cmp	r3, r2
 3354 006c 34D0     		beq	.L151
 3355              		.loc 1 651 3 discriminator 12
 3356 006e FB68     		ldr	r3, [r7, #12]
 3357 0070 634A     		ldr	r2, .L158+48
 3358 0072 9342     		cmp	r3, r2
 3359 0074 30D0     		beq	.L151
 3360              		.loc 1 651 3 discriminator 13
 3361 0076 FB68     		ldr	r3, [r7, #12]
 3362 0078 624A     		ldr	r2, .L158+52
 3363 007a 9342     		cmp	r3, r2
 3364 007c 2CD0     		beq	.L151
 3365              		.loc 1 651 3 discriminator 14
 3366 007e FB68     		ldr	r3, [r7, #12]
 3367 0080 614A     		ldr	r2, .L158+56
 3368 0082 9342     		cmp	r3, r2
 3369 0084 28D0     		beq	.L151
 3370              		.loc 1 651 3 discriminator 15
 3371 0086 FB68     		ldr	r3, [r7, #12]
 3372 0088 604A     		ldr	r2, .L158+60
 3373 008a 9342     		cmp	r3, r2
 3374 008c 24D0     		beq	.L151
 3375              		.loc 1 651 3 discriminator 16
ARM GAS  /tmp/ccEPgY0u.s 			page 79


 3376 008e FB68     		ldr	r3, [r7, #12]
 3377 0090 5F4A     		ldr	r2, .L158+64
 3378 0092 9342     		cmp	r3, r2
 3379 0094 20D0     		beq	.L151
 3380              		.loc 1 651 3 discriminator 17
 3381 0096 FB68     		ldr	r3, [r7, #12]
 3382 0098 5E4A     		ldr	r2, .L158+68
 3383 009a 9342     		cmp	r3, r2
 3384 009c 1CD0     		beq	.L151
 3385              		.loc 1 651 3 discriminator 18
 3386 009e FB68     		ldr	r3, [r7, #12]
 3387 00a0 5D4A     		ldr	r2, .L158+72
 3388 00a2 9342     		cmp	r3, r2
 3389 00a4 18D0     		beq	.L151
 3390              		.loc 1 651 3 discriminator 19
 3391 00a6 FB68     		ldr	r3, [r7, #12]
 3392 00a8 5C4A     		ldr	r2, .L158+76
 3393 00aa 9342     		cmp	r3, r2
 3394 00ac 14D0     		beq	.L151
 3395              		.loc 1 651 3 discriminator 20
 3396 00ae FB68     		ldr	r3, [r7, #12]
 3397 00b0 5B4A     		ldr	r2, .L158+80
 3398 00b2 9342     		cmp	r3, r2
 3399 00b4 10D0     		beq	.L151
 3400              		.loc 1 651 3 discriminator 21
 3401 00b6 FB68     		ldr	r3, [r7, #12]
 3402 00b8 5A4A     		ldr	r2, .L158+84
 3403 00ba 9342     		cmp	r3, r2
 3404 00bc 0CD0     		beq	.L151
 3405              		.loc 1 651 3 discriminator 22
 3406 00be FB68     		ldr	r3, [r7, #12]
 3407 00c0 594A     		ldr	r2, .L158+88
 3408 00c2 9342     		cmp	r3, r2
 3409 00c4 08D0     		beq	.L151
 3410              		.loc 1 651 3 discriminator 23
 3411 00c6 FB68     		ldr	r3, [r7, #12]
 3412 00c8 584A     		ldr	r2, .L158+92
 3413 00ca 9342     		cmp	r3, r2
 3414 00cc 04D0     		beq	.L151
 3415              		.loc 1 651 3 discriminator 24
 3416 00ce 40F28B21 		movw	r1, #651
 3417 00d2 5748     		ldr	r0, .L158+96
 3418 00d4 FFF7FEFF 		bl	assert_failed
 3419              	.L151:
 652:STM32Cube_FW_N6/Drivers/STM32N6xx_HAL_Driver/Src/stm32n6xx_hal_gpio.c ****   assert_param(IS_GPIO_SINGLE_PIN(GPIO_Pin));
 3420              		.loc 1 652 3 is_stmt 1
 3421 00d8 7B89     		ldrh	r3, [r7, #10]
 3422 00da 012B     		cmp	r3, #1
 3423 00dc 39D0     		beq	.L152
 3424              		.loc 1 652 3 is_stmt 0 discriminator 1
 3425 00de 7B89     		ldrh	r3, [r7, #10]
 3426 00e0 022B     		cmp	r3, #2
 3427 00e2 36D0     		beq	.L152
 3428              		.loc 1 652 3 discriminator 2
 3429 00e4 7B89     		ldrh	r3, [r7, #10]
 3430 00e6 042B     		cmp	r3, #4
 3431 00e8 33D0     		beq	.L152
ARM GAS  /tmp/ccEPgY0u.s 			page 80


 3432              		.loc 1 652 3 discriminator 3
 3433 00ea 7B89     		ldrh	r3, [r7, #10]
 3434 00ec 082B     		cmp	r3, #8
 3435 00ee 30D0     		beq	.L152
 3436              		.loc 1 652 3 discriminator 4
 3437 00f0 7B89     		ldrh	r3, [r7, #10]
 3438 00f2 102B     		cmp	r3, #16
 3439 00f4 2DD0     		beq	.L152
 3440              		.loc 1 652 3 discriminator 5
 3441 00f6 7B89     		ldrh	r3, [r7, #10]
 3442 00f8 202B     		cmp	r3, #32
 3443 00fa 2AD0     		beq	.L152
 3444              		.loc 1 652 3 discriminator 6
 3445 00fc 7B89     		ldrh	r3, [r7, #10]
 3446 00fe 402B     		cmp	r3, #64
 3447 0100 27D0     		beq	.L152
 3448              		.loc 1 652 3 discriminator 7
 3449 0102 7B89     		ldrh	r3, [r7, #10]
 3450 0104 802B     		cmp	r3, #128
 3451 0106 24D0     		beq	.L152
 3452              		.loc 1 652 3 discriminator 8
 3453 0108 7B89     		ldrh	r3, [r7, #10]
 3454 010a B3F5807F 		cmp	r3, #256
 3455 010e 20D0     		beq	.L152
 3456              		.loc 1 652 3 discriminator 9
 3457 0110 7B89     		ldrh	r3, [r7, #10]
 3458 0112 B3F5007F 		cmp	r3, #512
 3459 0116 1CD0     		beq	.L152
 3460              		.loc 1 652 3 discriminator 10
 3461 0118 7B89     		ldrh	r3, [r7, #10]
 3462 011a B3F5806F 		cmp	r3, #1024
 3463 011e 18D0     		beq	.L152
 3464              		.loc 1 652 3 discriminator 11
 3465 0120 7B89     		ldrh	r3, [r7, #10]
 3466 0122 B3F5006F 		cmp	r3, #2048
 3467 0126 14D0     		beq	.L152
 3468              		.loc 1 652 3 discriminator 12
 3469 0128 7B89     		ldrh	r3, [r7, #10]
 3470 012a B3F5805F 		cmp	r3, #4096
 3471 012e 10D0     		beq	.L152
 3472              		.loc 1 652 3 discriminator 13
 3473 0130 7B89     		ldrh	r3, [r7, #10]
 3474 0132 B3F5005F 		cmp	r3, #8192
 3475 0136 0CD0     		beq	.L152
 3476              		.loc 1 652 3 discriminator 14
 3477 0138 7B89     		ldrh	r3, [r7, #10]
 3478 013a B3F5804F 		cmp	r3, #16384
 3479 013e 08D0     		beq	.L152
