ARM GAS  /tmp/cc9usRe3.s 			page 1


   1              		.arch armv8.1-m.main
   2              		.fpu fpv5-d16
   3              		.arch_extension dsp
   4              		.arch_extension fp
   5              		.arch_extension fp.dp
   6              		.arch_extension mve
   7              		.arch_extension mve.fp
   8              		.eabi_attribute 5, "cortex-m55"
   9              		.eabi_attribute 28, 1
  10              		.eabi_attribute 20, 1
  11              		.eabi_attribute 21, 1
  12              		.eabi_attribute 23, 3
  13              		.eabi_attribute 24, 1
  14              		.eabi_attribute 25, 1
  15              		.eabi_attribute 26, 1
  16              		.eabi_attribute 30, 6
  17              		.eabi_attribute 34, 1
  18              		.eabi_attribute 38, 1
  19              		.eabi_attribute 18, 4
  20              		.file	"stm32n6xx_hal_i2c_ex.c"
  21              		.text
  22              	.Ltext0:
  23              		.cfi_sections	.debug_frame
  24              		.file 1 "STM32Cube_FW_N6/Drivers/STM32N6xx_HAL_Driver/Src/stm32n6xx_hal_i2c_ex.c"
  25              		.section	.rodata
  26              		.align	2
  27              	.LC0:
  28 0000 53544D33 		.ascii	"STM32Cube_FW_N6/Drivers/STM32N6xx_HAL_Driver/Src/st"
  28      32437562 
  28      655F4657 
  28      5F4E362F 
  28      44726976 
  29 0033 6D33326E 		.ascii	"m32n6xx_hal_i2c_ex.c\000"
  29      3678785F 
  29      68616C5F 
  29      6932635F 
  29      65782E63 
  30              		.section	.text.HAL_I2CEx_ConfigAnalogFilter,"ax",%progbits
  31              		.align	1
  32              		.global	HAL_I2CEx_ConfigAnalogFilter
  33              		.syntax unified
  34              		.thumb
  35              		.thumb_func
  37              	HAL_I2CEx_ConfigAnalogFilter:
  38              	.LFB835:
   1:STM32Cube_FW_N6/Drivers/STM32N6xx_HAL_Driver/Src/stm32n6xx_hal_i2c_ex.c **** /**
   2:STM32Cube_FW_N6/Drivers/STM32N6xx_HAL_Driver/Src/stm32n6xx_hal_i2c_ex.c ****   ******************************************************************************
   3:STM32Cube_FW_N6/Drivers/STM32N6xx_HAL_Driver/Src/stm32n6xx_hal_i2c_ex.c ****   * @file    stm32n6xx_hal_i2c_ex.c
   4:STM32Cube_FW_N6/Drivers/STM32N6xx_HAL_Driver/Src/stm32n6xx_hal_i2c_ex.c ****   * @author  MCD Application Team
   5:STM32Cube_FW_N6/Drivers/STM32N6xx_HAL_Driver/Src/stm32n6xx_hal_i2c_ex.c ****   * @brief   I2C Extended HAL module driver.
   6:STM32Cube_FW_N6/Drivers/STM32N6xx_HAL_Driver/Src/stm32n6xx_hal_i2c_ex.c ****   *          This file provides firmware functions to manage the following
   7:STM32Cube_FW_N6/Drivers/STM32N6xx_HAL_Driver/Src/stm32n6xx_hal_i2c_ex.c ****   *          functionalities of I2C Extended peripheral:
   8:STM32Cube_FW_N6/Drivers/STM32N6xx_HAL_Driver/Src/stm32n6xx_hal_i2c_ex.c ****   *           + Filter Mode Functions
   9:STM32Cube_FW_N6/Drivers/STM32N6xx_HAL_Driver/Src/stm32n6xx_hal_i2c_ex.c ****   *           + WakeUp Mode Functions
  10:STM32Cube_FW_N6/Drivers/STM32N6xx_HAL_Driver/Src/stm32n6xx_hal_i2c_ex.c ****   *           + FastModePlus Functions
  11:STM32Cube_FW_N6/Drivers/STM32N6xx_HAL_Driver/Src/stm32n6xx_hal_i2c_ex.c ****   *
  12:STM32Cube_FW_N6/Drivers/STM32N6xx_HAL_Driver/Src/stm32n6xx_hal_i2c_ex.c ****   ******************************************************************************
ARM GAS  /tmp/cc9usRe3.s 			page 2


  13:STM32Cube_FW_N6/Drivers/STM32N6xx_HAL_Driver/Src/stm32n6xx_hal_i2c_ex.c ****   * @attention
  14:STM32Cube_FW_N6/Drivers/STM32N6xx_HAL_Driver/Src/stm32n6xx_hal_i2c_ex.c ****   *
  15:STM32Cube_FW_N6/Drivers/STM32N6xx_HAL_Driver/Src/stm32n6xx_hal_i2c_ex.c ****   * Copyright (c) 2023 STMicroelectronics.
  16:STM32Cube_FW_N6/Drivers/STM32N6xx_HAL_Driver/Src/stm32n6xx_hal_i2c_ex.c ****   * All rights reserved.
  17:STM32Cube_FW_N6/Drivers/STM32N6xx_HAL_Driver/Src/stm32n6xx_hal_i2c_ex.c ****   *
  18:STM32Cube_FW_N6/Drivers/STM32N6xx_HAL_Driver/Src/stm32n6xx_hal_i2c_ex.c ****   * This software is licensed under terms that can be found in the LICENSE file
  19:STM32Cube_FW_N6/Drivers/STM32N6xx_HAL_Driver/Src/stm32n6xx_hal_i2c_ex.c ****   * in the root directory of this software component.
  20:STM32Cube_FW_N6/Drivers/STM32N6xx_HAL_Driver/Src/stm32n6xx_hal_i2c_ex.c ****   * If no LICENSE file comes with this software, it is provided AS-IS.
  21:STM32Cube_FW_N6/Drivers/STM32N6xx_HAL_Driver/Src/stm32n6xx_hal_i2c_ex.c ****   *
  22:STM32Cube_FW_N6/Drivers/STM32N6xx_HAL_Driver/Src/stm32n6xx_hal_i2c_ex.c ****   ******************************************************************************
  23:STM32Cube_FW_N6/Drivers/STM32N6xx_HAL_Driver/Src/stm32n6xx_hal_i2c_ex.c ****   @verbatim
  24:STM32Cube_FW_N6/Drivers/STM32N6xx_HAL_Driver/Src/stm32n6xx_hal_i2c_ex.c ****   ==============================================================================
  25:STM32Cube_FW_N6/Drivers/STM32N6xx_HAL_Driver/Src/stm32n6xx_hal_i2c_ex.c ****                ##### I2C peripheral Extended features  #####
  26:STM32Cube_FW_N6/Drivers/STM32N6xx_HAL_Driver/Src/stm32n6xx_hal_i2c_ex.c ****   ==============================================================================
  27:STM32Cube_FW_N6/Drivers/STM32N6xx_HAL_Driver/Src/stm32n6xx_hal_i2c_ex.c **** 
  28:STM32Cube_FW_N6/Drivers/STM32N6xx_HAL_Driver/Src/stm32n6xx_hal_i2c_ex.c ****   [..] Comparing to other previous devices, the I2C interface for STM32N6xx
  29:STM32Cube_FW_N6/Drivers/STM32N6xx_HAL_Driver/Src/stm32n6xx_hal_i2c_ex.c ****        devices contains the following additional features
  30:STM32Cube_FW_N6/Drivers/STM32N6xx_HAL_Driver/Src/stm32n6xx_hal_i2c_ex.c **** 
  31:STM32Cube_FW_N6/Drivers/STM32N6xx_HAL_Driver/Src/stm32n6xx_hal_i2c_ex.c ****        (+) Possibility to disable or enable Analog Noise Filter
  32:STM32Cube_FW_N6/Drivers/STM32N6xx_HAL_Driver/Src/stm32n6xx_hal_i2c_ex.c ****        (+) Use of a configured Digital Noise Filter
  33:STM32Cube_FW_N6/Drivers/STM32N6xx_HAL_Driver/Src/stm32n6xx_hal_i2c_ex.c ****        (+) Disable or enable wakeup from Stop mode(s)
  34:STM32Cube_FW_N6/Drivers/STM32N6xx_HAL_Driver/Src/stm32n6xx_hal_i2c_ex.c ****        (+) Disable or enable Fast Mode Plus
  35:STM32Cube_FW_N6/Drivers/STM32N6xx_HAL_Driver/Src/stm32n6xx_hal_i2c_ex.c **** 
  36:STM32Cube_FW_N6/Drivers/STM32N6xx_HAL_Driver/Src/stm32n6xx_hal_i2c_ex.c ****                      ##### How to use this driver #####
  37:STM32Cube_FW_N6/Drivers/STM32N6xx_HAL_Driver/Src/stm32n6xx_hal_i2c_ex.c ****   ==============================================================================
  38:STM32Cube_FW_N6/Drivers/STM32N6xx_HAL_Driver/Src/stm32n6xx_hal_i2c_ex.c ****   [..] This driver provides functions to configure Noise Filter and Wake Up Feature
  39:STM32Cube_FW_N6/Drivers/STM32N6xx_HAL_Driver/Src/stm32n6xx_hal_i2c_ex.c ****     (#) Configure I2C Analog noise filter using the function HAL_I2CEx_ConfigAnalogFilter()
  40:STM32Cube_FW_N6/Drivers/STM32N6xx_HAL_Driver/Src/stm32n6xx_hal_i2c_ex.c ****     (#) Configure I2C Digital noise filter using the function HAL_I2CEx_ConfigDigitalFilter()
  41:STM32Cube_FW_N6/Drivers/STM32N6xx_HAL_Driver/Src/stm32n6xx_hal_i2c_ex.c ****     (#) Configure the enable or disable of I2C Wake Up Mode using the functions :
  42:STM32Cube_FW_N6/Drivers/STM32N6xx_HAL_Driver/Src/stm32n6xx_hal_i2c_ex.c ****           (++) HAL_I2CEx_EnableWakeUp()
  43:STM32Cube_FW_N6/Drivers/STM32N6xx_HAL_Driver/Src/stm32n6xx_hal_i2c_ex.c ****           (++) HAL_I2CEx_DisableWakeUp()
  44:STM32Cube_FW_N6/Drivers/STM32N6xx_HAL_Driver/Src/stm32n6xx_hal_i2c_ex.c ****     (#) Configure the enable or disable of fast mode plus driving capability using the functions :
  45:STM32Cube_FW_N6/Drivers/STM32N6xx_HAL_Driver/Src/stm32n6xx_hal_i2c_ex.c ****           (++) HAL_I2CEx_ConfigFastModePlus()
  46:STM32Cube_FW_N6/Drivers/STM32N6xx_HAL_Driver/Src/stm32n6xx_hal_i2c_ex.c ****   @endverbatim
  47:STM32Cube_FW_N6/Drivers/STM32N6xx_HAL_Driver/Src/stm32n6xx_hal_i2c_ex.c ****   */
  48:STM32Cube_FW_N6/Drivers/STM32N6xx_HAL_Driver/Src/stm32n6xx_hal_i2c_ex.c **** 
  49:STM32Cube_FW_N6/Drivers/STM32N6xx_HAL_Driver/Src/stm32n6xx_hal_i2c_ex.c **** /* Includes ------------------------------------------------------------------*/
  50:STM32Cube_FW_N6/Drivers/STM32N6xx_HAL_Driver/Src/stm32n6xx_hal_i2c_ex.c **** #include "stm32n6xx_hal.h"
  51:STM32Cube_FW_N6/Drivers/STM32N6xx_HAL_Driver/Src/stm32n6xx_hal_i2c_ex.c **** 
  52:STM32Cube_FW_N6/Drivers/STM32N6xx_HAL_Driver/Src/stm32n6xx_hal_i2c_ex.c **** /** @addtogroup STM32N6xx_HAL_Driver
  53:STM32Cube_FW_N6/Drivers/STM32N6xx_HAL_Driver/Src/stm32n6xx_hal_i2c_ex.c ****   * @{
  54:STM32Cube_FW_N6/Drivers/STM32N6xx_HAL_Driver/Src/stm32n6xx_hal_i2c_ex.c ****   */
  55:STM32Cube_FW_N6/Drivers/STM32N6xx_HAL_Driver/Src/stm32n6xx_hal_i2c_ex.c **** 
  56:STM32Cube_FW_N6/Drivers/STM32N6xx_HAL_Driver/Src/stm32n6xx_hal_i2c_ex.c **** /** @defgroup I2CEx I2CEx
  57:STM32Cube_FW_N6/Drivers/STM32N6xx_HAL_Driver/Src/stm32n6xx_hal_i2c_ex.c ****   * @brief I2C Extended HAL module driver
  58:STM32Cube_FW_N6/Drivers/STM32N6xx_HAL_Driver/Src/stm32n6xx_hal_i2c_ex.c ****   * @{
  59:STM32Cube_FW_N6/Drivers/STM32N6xx_HAL_Driver/Src/stm32n6xx_hal_i2c_ex.c ****   */
  60:STM32Cube_FW_N6/Drivers/STM32N6xx_HAL_Driver/Src/stm32n6xx_hal_i2c_ex.c **** 
  61:STM32Cube_FW_N6/Drivers/STM32N6xx_HAL_Driver/Src/stm32n6xx_hal_i2c_ex.c **** #ifdef HAL_I2C_MODULE_ENABLED
  62:STM32Cube_FW_N6/Drivers/STM32N6xx_HAL_Driver/Src/stm32n6xx_hal_i2c_ex.c **** 
  63:STM32Cube_FW_N6/Drivers/STM32N6xx_HAL_Driver/Src/stm32n6xx_hal_i2c_ex.c **** /* Private typedef -----------------------------------------------------------*/
  64:STM32Cube_FW_N6/Drivers/STM32N6xx_HAL_Driver/Src/stm32n6xx_hal_i2c_ex.c **** /* Private define ------------------------------------------------------------*/
  65:STM32Cube_FW_N6/Drivers/STM32N6xx_HAL_Driver/Src/stm32n6xx_hal_i2c_ex.c **** /* Private macro -------------------------------------------------------------*/
  66:STM32Cube_FW_N6/Drivers/STM32N6xx_HAL_Driver/Src/stm32n6xx_hal_i2c_ex.c **** /* Private variables ---------------------------------------------------------*/
  67:STM32Cube_FW_N6/Drivers/STM32N6xx_HAL_Driver/Src/stm32n6xx_hal_i2c_ex.c **** /* Private function prototypes -----------------------------------------------*/
  68:STM32Cube_FW_N6/Drivers/STM32N6xx_HAL_Driver/Src/stm32n6xx_hal_i2c_ex.c **** /* Private functions ---------------------------------------------------------*/
  69:STM32Cube_FW_N6/Drivers/STM32N6xx_HAL_Driver/Src/stm32n6xx_hal_i2c_ex.c **** 
ARM GAS  /tmp/cc9usRe3.s 			page 3


  70:STM32Cube_FW_N6/Drivers/STM32N6xx_HAL_Driver/Src/stm32n6xx_hal_i2c_ex.c **** /** @defgroup I2CEx_Exported_Functions I2C Extended Exported Functions
  71:STM32Cube_FW_N6/Drivers/STM32N6xx_HAL_Driver/Src/stm32n6xx_hal_i2c_ex.c ****   * @{
  72:STM32Cube_FW_N6/Drivers/STM32N6xx_HAL_Driver/Src/stm32n6xx_hal_i2c_ex.c ****   */
  73:STM32Cube_FW_N6/Drivers/STM32N6xx_HAL_Driver/Src/stm32n6xx_hal_i2c_ex.c **** 
  74:STM32Cube_FW_N6/Drivers/STM32N6xx_HAL_Driver/Src/stm32n6xx_hal_i2c_ex.c **** /** @defgroup I2CEx_Exported_Functions_Group1 Filter Mode Functions
  75:STM32Cube_FW_N6/Drivers/STM32N6xx_HAL_Driver/Src/stm32n6xx_hal_i2c_ex.c ****   * @brief    Filter Mode Functions
  76:STM32Cube_FW_N6/Drivers/STM32N6xx_HAL_Driver/Src/stm32n6xx_hal_i2c_ex.c ****   *
  77:STM32Cube_FW_N6/Drivers/STM32N6xx_HAL_Driver/Src/stm32n6xx_hal_i2c_ex.c **** @verbatim
  78:STM32Cube_FW_N6/Drivers/STM32N6xx_HAL_Driver/Src/stm32n6xx_hal_i2c_ex.c ****  ===============================================================================
  79:STM32Cube_FW_N6/Drivers/STM32N6xx_HAL_Driver/Src/stm32n6xx_hal_i2c_ex.c ****                       ##### Filter Mode Functions #####
  80:STM32Cube_FW_N6/Drivers/STM32N6xx_HAL_Driver/Src/stm32n6xx_hal_i2c_ex.c ****  ===============================================================================
  81:STM32Cube_FW_N6/Drivers/STM32N6xx_HAL_Driver/Src/stm32n6xx_hal_i2c_ex.c ****     [..] This section provides functions allowing to:
  82:STM32Cube_FW_N6/Drivers/STM32N6xx_HAL_Driver/Src/stm32n6xx_hal_i2c_ex.c ****       (+) Configure Noise Filters
  83:STM32Cube_FW_N6/Drivers/STM32N6xx_HAL_Driver/Src/stm32n6xx_hal_i2c_ex.c **** 
  84:STM32Cube_FW_N6/Drivers/STM32N6xx_HAL_Driver/Src/stm32n6xx_hal_i2c_ex.c **** @endverbatim
  85:STM32Cube_FW_N6/Drivers/STM32N6xx_HAL_Driver/Src/stm32n6xx_hal_i2c_ex.c ****   * @{
  86:STM32Cube_FW_N6/Drivers/STM32N6xx_HAL_Driver/Src/stm32n6xx_hal_i2c_ex.c ****   */
  87:STM32Cube_FW_N6/Drivers/STM32N6xx_HAL_Driver/Src/stm32n6xx_hal_i2c_ex.c **** 
  88:STM32Cube_FW_N6/Drivers/STM32N6xx_HAL_Driver/Src/stm32n6xx_hal_i2c_ex.c **** /**
  89:STM32Cube_FW_N6/Drivers/STM32N6xx_HAL_Driver/Src/stm32n6xx_hal_i2c_ex.c ****   * @brief  Configure I2C Analog noise filter.
  90:STM32Cube_FW_N6/Drivers/STM32N6xx_HAL_Driver/Src/stm32n6xx_hal_i2c_ex.c ****   * @param  hi2c Pointer to a I2C_HandleTypeDef structure that contains
  91:STM32Cube_FW_N6/Drivers/STM32N6xx_HAL_Driver/Src/stm32n6xx_hal_i2c_ex.c ****   *                the configuration information for the specified I2Cx peripheral.
  92:STM32Cube_FW_N6/Drivers/STM32N6xx_HAL_Driver/Src/stm32n6xx_hal_i2c_ex.c ****   * @param  AnalogFilter New state of the Analog filter.
  93:STM32Cube_FW_N6/Drivers/STM32N6xx_HAL_Driver/Src/stm32n6xx_hal_i2c_ex.c ****   * @retval HAL status
  94:STM32Cube_FW_N6/Drivers/STM32N6xx_HAL_Driver/Src/stm32n6xx_hal_i2c_ex.c ****   */
  95:STM32Cube_FW_N6/Drivers/STM32N6xx_HAL_Driver/Src/stm32n6xx_hal_i2c_ex.c **** HAL_StatusTypeDef HAL_I2CEx_ConfigAnalogFilter(I2C_HandleTypeDef *hi2c, uint32_t AnalogFilter)
  96:STM32Cube_FW_N6/Drivers/STM32N6xx_HAL_Driver/Src/stm32n6xx_hal_i2c_ex.c **** {
  39              		.loc 1 96 1
  40              		.cfi_startproc
  41              		@ args = 0, pretend = 0, frame = 8
  42              		@ frame_needed = 1, uses_anonymous_args = 0
  43 0000 80B5     		push	{r7, lr}
  44              		.cfi_def_cfa_offset 8
  45              		.cfi_offset 7, -8
  46              		.cfi_offset 14, -4
  47 0002 82B0     		sub	sp, sp, #8
  48              		.cfi_def_cfa_offset 16
  49 0004 00AF     		add	r7, sp, #0
  50              		.cfi_def_cfa_register 7
  51 0006 7860     		str	r0, [r7, #4]
  52 0008 3960     		str	r1, [r7]
  97:STM32Cube_FW_N6/Drivers/STM32N6xx_HAL_Driver/Src/stm32n6xx_hal_i2c_ex.c ****   /* Check the parameters */
  98:STM32Cube_FW_N6/Drivers/STM32N6xx_HAL_Driver/Src/stm32n6xx_hal_i2c_ex.c ****   assert_param(IS_I2C_ALL_INSTANCE(hi2c->Instance));
  53              		.loc 1 98 3
  54 000a 7B68     		ldr	r3, [r7, #4]
  55 000c 1B68     		ldr	r3, [r3]
  56 000e 3C4A     		ldr	r2, .L7
  57 0010 9342     		cmp	r3, r2
  58 0012 26D0     		beq	.L2
  59              		.loc 1 98 3 is_stmt 0 discriminator 1
  60 0014 7B68     		ldr	r3, [r7, #4]
  61 0016 1B68     		ldr	r3, [r3]
  62 0018 3A4A     		ldr	r2, .L7+4
  63 001a 9342     		cmp	r3, r2
  64 001c 21D0     		beq	.L2
  65              		.loc 1 98 3 discriminator 2
  66 001e 7B68     		ldr	r3, [r7, #4]
ARM GAS  /tmp/cc9usRe3.s 			page 4


  67 0020 1B68     		ldr	r3, [r3]
  68 0022 394A     		ldr	r2, .L7+8
  69 0024 9342     		cmp	r3, r2
  70 0026 1CD0     		beq	.L2
  71              		.loc 1 98 3 discriminator 3
  72 0028 7B68     		ldr	r3, [r7, #4]
  73 002a 1B68     		ldr	r3, [r3]
  74 002c 374A     		ldr	r2, .L7+12
  75 002e 9342     		cmp	r3, r2
  76 0030 17D0     		beq	.L2
  77              		.loc 1 98 3 discriminator 4
  78 0032 7B68     		ldr	r3, [r7, #4]
  79 0034 1B68     		ldr	r3, [r3]
  80 0036 364A     		ldr	r2, .L7+16
  81 0038 9342     		cmp	r3, r2
  82 003a 12D0     		beq	.L2
  83              		.loc 1 98 3 discriminator 5
  84 003c 7B68     		ldr	r3, [r7, #4]
  85 003e 1B68     		ldr	r3, [r3]
  86 0040 344A     		ldr	r2, .L7+20
  87 0042 9342     		cmp	r3, r2
  88 0044 0DD0     		beq	.L2
  89              		.loc 1 98 3 discriminator 6
  90 0046 7B68     		ldr	r3, [r7, #4]
  91 0048 1B68     		ldr	r3, [r3]
  92 004a 334A     		ldr	r2, .L7+24
  93 004c 9342     		cmp	r3, r2
  94 004e 08D0     		beq	.L2
  95              		.loc 1 98 3 discriminator 7
  96 0050 7B68     		ldr	r3, [r7, #4]
  97 0052 1B68     		ldr	r3, [r3]
  98 0054 314A     		ldr	r2, .L7+28
  99 0056 9342     		cmp	r3, r2
 100 0058 03D0     		beq	.L2
 101              		.loc 1 98 3 discriminator 8
 102 005a 6221     		movs	r1, #98
 103 005c 3048     		ldr	r0, .L7+32
 104 005e FFF7FEFF 		bl	assert_failed
 105              	.L2:
  99:STM32Cube_FW_N6/Drivers/STM32N6xx_HAL_Driver/Src/stm32n6xx_hal_i2c_ex.c ****   assert_param(IS_I2C_ANALOG_FILTER(AnalogFilter));
 106              		.loc 1 99 3 is_stmt 1
 107 0062 3B68     		ldr	r3, [r7]
 108 0064 002B     		cmp	r3, #0
 109 0066 07D0     		beq	.L3
 110              		.loc 1 99 3 is_stmt 0 discriminator 1
 111 0068 3B68     		ldr	r3, [r7]
 112 006a B3F5805F 		cmp	r3, #4096
 113 006e 03D0     		beq	.L3
 114              		.loc 1 99 3 discriminator 2
 115 0070 6321     		movs	r1, #99
 116 0072 2B48     		ldr	r0, .L7+32
 117 0074 FFF7FEFF 		bl	assert_failed
 118              	.L3:
 100:STM32Cube_FW_N6/Drivers/STM32N6xx_HAL_Driver/Src/stm32n6xx_hal_i2c_ex.c **** 
 101:STM32Cube_FW_N6/Drivers/STM32N6xx_HAL_Driver/Src/stm32n6xx_hal_i2c_ex.c ****   if (hi2c->State == HAL_I2C_STATE_READY)
 119              		.loc 1 101 11 is_stmt 1
 120 0078 7B68     		ldr	r3, [r7, #4]
ARM GAS  /tmp/cc9usRe3.s 			page 5


 121 007a 93F84130 		ldrb	r3, [r3, #65]
 122 007e DBB2     		uxtb	r3, r3
 123              		.loc 1 101 6
 124 0080 202B     		cmp	r3, #32
 125 0082 38D1     		bne	.L4
 102:STM32Cube_FW_N6/Drivers/STM32N6xx_HAL_Driver/Src/stm32n6xx_hal_i2c_ex.c ****   {
 103:STM32Cube_FW_N6/Drivers/STM32N6xx_HAL_Driver/Src/stm32n6xx_hal_i2c_ex.c ****     /* Process Locked */
 104:STM32Cube_FW_N6/Drivers/STM32N6xx_HAL_Driver/Src/stm32n6xx_hal_i2c_ex.c ****     __HAL_LOCK(hi2c);
 126              		.loc 1 104 5
 127 0084 7B68     		ldr	r3, [r7, #4]
 128 0086 93F84030 		ldrb	r3, [r3, #64]	@ zero_extendqisi2
 129 008a 012B     		cmp	r3, #1
 130 008c 01D1     		bne	.L5
 131              		.loc 1 104 5 is_stmt 0 discriminator 1
 132 008e 0223     		movs	r3, #2
 133              		.loc 1 104 5
 134 0090 32E0     		b	.L6
 135              	.L5:
 136              		.loc 1 104 5 discriminator 2
 137 0092 7B68     		ldr	r3, [r7, #4]
 138 0094 0122     		movs	r2, #1
 139 0096 83F84020 		strb	r2, [r3, #64]
 105:STM32Cube_FW_N6/Drivers/STM32N6xx_HAL_Driver/Src/stm32n6xx_hal_i2c_ex.c **** 
 106:STM32Cube_FW_N6/Drivers/STM32N6xx_HAL_Driver/Src/stm32n6xx_hal_i2c_ex.c ****     hi2c->State = HAL_I2C_STATE_BUSY;
 140              		.loc 1 106 17 is_stmt 1
 141 009a 7B68     		ldr	r3, [r7, #4]
 142 009c 2422     		movs	r2, #36
 143 009e 83F84120 		strb	r2, [r3, #65]
 107:STM32Cube_FW_N6/Drivers/STM32N6xx_HAL_Driver/Src/stm32n6xx_hal_i2c_ex.c **** 
 108:STM32Cube_FW_N6/Drivers/STM32N6xx_HAL_Driver/Src/stm32n6xx_hal_i2c_ex.c ****     /* Disable the selected I2C peripheral */
 109:STM32Cube_FW_N6/Drivers/STM32N6xx_HAL_Driver/Src/stm32n6xx_hal_i2c_ex.c ****     __HAL_I2C_DISABLE(hi2c);
 144              		.loc 1 109 5
 145 00a2 7B68     		ldr	r3, [r7, #4]
 146 00a4 1B68     		ldr	r3, [r3]
 147 00a6 1A68     		ldr	r2, [r3]
 148 00a8 7B68     		ldr	r3, [r7, #4]
 149 00aa 1B68     		ldr	r3, [r3]
 150 00ac 22F00102 		bic	r2, r2, #1
 151 00b0 1A60     		str	r2, [r3]
 110:STM32Cube_FW_N6/Drivers/STM32N6xx_HAL_Driver/Src/stm32n6xx_hal_i2c_ex.c **** 
 111:STM32Cube_FW_N6/Drivers/STM32N6xx_HAL_Driver/Src/stm32n6xx_hal_i2c_ex.c ****     /* Reset I2Cx ANOFF bit */
 112:STM32Cube_FW_N6/Drivers/STM32N6xx_HAL_Driver/Src/stm32n6xx_hal_i2c_ex.c ****     hi2c->Instance->CR1 &= ~(I2C_CR1_ANFOFF);
 152              		.loc 1 112 9
 153 00b2 7B68     		ldr	r3, [r7, #4]
 154 00b4 1B68     		ldr	r3, [r3]
 155              		.loc 1 112 19
 156 00b6 1A68     		ldr	r2, [r3]
 157              		.loc 1 112 9
 158 00b8 7B68     		ldr	r3, [r7, #4]
 159 00ba 1B68     		ldr	r3, [r3]
 160              		.loc 1 112 25
 161 00bc 22F48052 		bic	r2, r2, #4096
 162 00c0 1A60     		str	r2, [r3]
 113:STM32Cube_FW_N6/Drivers/STM32N6xx_HAL_Driver/Src/stm32n6xx_hal_i2c_ex.c **** 
 114:STM32Cube_FW_N6/Drivers/STM32N6xx_HAL_Driver/Src/stm32n6xx_hal_i2c_ex.c ****     /* Set analog filter bit*/
 115:STM32Cube_FW_N6/Drivers/STM32N6xx_HAL_Driver/Src/stm32n6xx_hal_i2c_ex.c ****     hi2c->Instance->CR1 |= AnalogFilter;
 163              		.loc 1 115 9
ARM GAS  /tmp/cc9usRe3.s 			page 6


 164 00c2 7B68     		ldr	r3, [r7, #4]
 165 00c4 1B68     		ldr	r3, [r3]
 166              		.loc 1 115 19
 167 00c6 1968     		ldr	r1, [r3]
 168              		.loc 1 115 9
 169 00c8 7B68     		ldr	r3, [r7, #4]
 170 00ca 1B68     		ldr	r3, [r3]
 171              		.loc 1 115 25
 172 00cc 3A68     		ldr	r2, [r7]
 173 00ce 0A43     		orrs	r2, r2, r1
 174 00d0 1A60     		str	r2, [r3]
 116:STM32Cube_FW_N6/Drivers/STM32N6xx_HAL_Driver/Src/stm32n6xx_hal_i2c_ex.c **** 
 117:STM32Cube_FW_N6/Drivers/STM32N6xx_HAL_Driver/Src/stm32n6xx_hal_i2c_ex.c ****     __HAL_I2C_ENABLE(hi2c);
 175              		.loc 1 117 5
 176 00d2 7B68     		ldr	r3, [r7, #4]
 177 00d4 1B68     		ldr	r3, [r3]
 178 00d6 1A68     		ldr	r2, [r3]
 179 00d8 7B68     		ldr	r3, [r7, #4]
 180 00da 1B68     		ldr	r3, [r3]
 181 00dc 42F00102 		orr	r2, r2, #1
 182 00e0 1A60     		str	r2, [r3]
 118:STM32Cube_FW_N6/Drivers/STM32N6xx_HAL_Driver/Src/stm32n6xx_hal_i2c_ex.c **** 
 119:STM32Cube_FW_N6/Drivers/STM32N6xx_HAL_Driver/Src/stm32n6xx_hal_i2c_ex.c ****     hi2c->State = HAL_I2C_STATE_READY;
 183              		.loc 1 119 17
 184 00e2 7B68     		ldr	r3, [r7, #4]
 185 00e4 2022     		movs	r2, #32
 186 00e6 83F84120 		strb	r2, [r3, #65]
 120:STM32Cube_FW_N6/Drivers/STM32N6xx_HAL_Driver/Src/stm32n6xx_hal_i2c_ex.c **** 
 121:STM32Cube_FW_N6/Drivers/STM32N6xx_HAL_Driver/Src/stm32n6xx_hal_i2c_ex.c ****     /* Process Unlocked */
 122:STM32Cube_FW_N6/Drivers/STM32N6xx_HAL_Driver/Src/stm32n6xx_hal_i2c_ex.c ****     __HAL_UNLOCK(hi2c);
 187              		.loc 1 122 5
 188 00ea 7B68     		ldr	r3, [r7, #4]
 189 00ec 0022     		movs	r2, #0
 190 00ee 83F84020 		strb	r2, [r3, #64]
 123:STM32Cube_FW_N6/Drivers/STM32N6xx_HAL_Driver/Src/stm32n6xx_hal_i2c_ex.c **** 
 124:STM32Cube_FW_N6/Drivers/STM32N6xx_HAL_Driver/Src/stm32n6xx_hal_i2c_ex.c ****     return HAL_OK;
 191              		.loc 1 124 12
 192 00f2 0023     		movs	r3, #0
 193 00f4 00E0     		b	.L6
 194              	.L4:
 125:STM32Cube_FW_N6/Drivers/STM32N6xx_HAL_Driver/Src/stm32n6xx_hal_i2c_ex.c ****   }
 126:STM32Cube_FW_N6/Drivers/STM32N6xx_HAL_Driver/Src/stm32n6xx_hal_i2c_ex.c ****   else
 127:STM32Cube_FW_N6/Drivers/STM32N6xx_HAL_Driver/Src/stm32n6xx_hal_i2c_ex.c ****   {
 128:STM32Cube_FW_N6/Drivers/STM32N6xx_HAL_Driver/Src/stm32n6xx_hal_i2c_ex.c ****     return HAL_BUSY;
 195              		.loc 1 128 12
 196 00f6 0223     		movs	r3, #2
 197              	.L6:
 129:STM32Cube_FW_N6/Drivers/STM32N6xx_HAL_Driver/Src/stm32n6xx_hal_i2c_ex.c ****   }
 130:STM32Cube_FW_N6/Drivers/STM32N6xx_HAL_Driver/Src/stm32n6xx_hal_i2c_ex.c **** }
 198              		.loc 1 130 1
 199 00f8 1846     		mov	r0, r3
 200 00fa 0837     		adds	r7, r7, #8
 201              		.cfi_def_cfa_offset 8
 202 00fc BD46     		mov	sp, r7
 203              		.cfi_def_cfa_register 13
 204              		@ sp needed
 205 00fe 80BD     		pop	{r7, pc}
ARM GAS  /tmp/cc9usRe3.s 			page 7


 206              	.L8:
 207              		.align	2
 208              	.L7:
 209 0100 00540050 		.word	1342198784
 210 0104 00540040 		.word	1073763328
 211 0108 00580050 		.word	1342199808
 212 010c 00580040 		.word	1073764352
 213 0110 005C0050 		.word	1342200832
 214 0114 005C0040 		.word	1073765376
 215 0118 001C0056 		.word	1442847744
 216 011c 001C0046 		.word	1174412288
 217 0120 00000000 		.word	.LC0
 218              		.cfi_endproc
 219              	.LFE835:
 221              		.section	.text.HAL_I2CEx_ConfigDigitalFilter,"ax",%progbits
 222              		.align	1
 223              		.global	HAL_I2CEx_ConfigDigitalFilter
 224              		.syntax unified
 225              		.thumb
 226              		.thumb_func
 228              	HAL_I2CEx_ConfigDigitalFilter:
 229              	.LFB836:
 131:STM32Cube_FW_N6/Drivers/STM32N6xx_HAL_Driver/Src/stm32n6xx_hal_i2c_ex.c **** 
 132:STM32Cube_FW_N6/Drivers/STM32N6xx_HAL_Driver/Src/stm32n6xx_hal_i2c_ex.c **** /**
 133:STM32Cube_FW_N6/Drivers/STM32N6xx_HAL_Driver/Src/stm32n6xx_hal_i2c_ex.c ****   * @brief  Configure I2C Digital noise filter.
 134:STM32Cube_FW_N6/Drivers/STM32N6xx_HAL_Driver/Src/stm32n6xx_hal_i2c_ex.c ****   * @param  hi2c Pointer to a I2C_HandleTypeDef structure that contains
 135:STM32Cube_FW_N6/Drivers/STM32N6xx_HAL_Driver/Src/stm32n6xx_hal_i2c_ex.c ****   *                the configuration information for the specified I2Cx peripheral.
 136:STM32Cube_FW_N6/Drivers/STM32N6xx_HAL_Driver/Src/stm32n6xx_hal_i2c_ex.c ****   * @param  DigitalFilter Coefficient of digital noise filter between Min_Data=0x00 and Max_Data=0x
 137:STM32Cube_FW_N6/Drivers/STM32N6xx_HAL_Driver/Src/stm32n6xx_hal_i2c_ex.c ****   * @retval HAL status
 138:STM32Cube_FW_N6/Drivers/STM32N6xx_HAL_Driver/Src/stm32n6xx_hal_i2c_ex.c ****   */
 139:STM32Cube_FW_N6/Drivers/STM32N6xx_HAL_Driver/Src/stm32n6xx_hal_i2c_ex.c **** HAL_StatusTypeDef HAL_I2CEx_ConfigDigitalFilter(I2C_HandleTypeDef *hi2c, uint32_t DigitalFilter)
 140:STM32Cube_FW_N6/Drivers/STM32N6xx_HAL_Driver/Src/stm32n6xx_hal_i2c_ex.c **** {
 230              		.loc 1 140 1
 231              		.cfi_startproc
 232              		@ args = 0, pretend = 0, frame = 16
 233              		@ frame_needed = 1, uses_anonymous_args = 0
 234 0000 80B5     		push	{r7, lr}
 235              		.cfi_def_cfa_offset 8
 236              		.cfi_offset 7, -8
 237              		.cfi_offset 14, -4
 238 0002 84B0     		sub	sp, sp, #16
 239              		.cfi_def_cfa_offset 24
 240 0004 00AF     		add	r7, sp, #0
 241              		.cfi_def_cfa_register 7
 242 0006 7860     		str	r0, [r7, #4]
 243 0008 3960     		str	r1, [r7]
 141:STM32Cube_FW_N6/Drivers/STM32N6xx_HAL_Driver/Src/stm32n6xx_hal_i2c_ex.c ****   uint32_t tmpreg;
 142:STM32Cube_FW_N6/Drivers/STM32N6xx_HAL_Driver/Src/stm32n6xx_hal_i2c_ex.c **** 
 143:STM32Cube_FW_N6/Drivers/STM32N6xx_HAL_Driver/Src/stm32n6xx_hal_i2c_ex.c ****   /* Check the parameters */
 144:STM32Cube_FW_N6/Drivers/STM32N6xx_HAL_Driver/Src/stm32n6xx_hal_i2c_ex.c ****   assert_param(IS_I2C_ALL_INSTANCE(hi2c->Instance));
 244              		.loc 1 144 3
 245 000a 7B68     		ldr	r3, [r7, #4]
 246 000c 1B68     		ldr	r3, [r3]
 247 000e 3B4A     		ldr	r2, .L15
 248 0010 9342     		cmp	r3, r2
 249 0012 26D0     		beq	.L10
 250              		.loc 1 144 3 is_stmt 0 discriminator 1
ARM GAS  /tmp/cc9usRe3.s 			page 8


 251 0014 7B68     		ldr	r3, [r7, #4]
 252 0016 1B68     		ldr	r3, [r3]
 253 0018 394A     		ldr	r2, .L15+4
 254 001a 9342     		cmp	r3, r2
 255 001c 21D0     		beq	.L10
 256              		.loc 1 144 3 discriminator 2
 257 001e 7B68     		ldr	r3, [r7, #4]
 258 0020 1B68     		ldr	r3, [r3]
 259 0022 384A     		ldr	r2, .L15+8
 260 0024 9342     		cmp	r3, r2
 261 0026 1CD0     		beq	.L10
 262              		.loc 1 144 3 discriminator 3
 263 0028 7B68     		ldr	r3, [r7, #4]
 264 002a 1B68     		ldr	r3, [r3]
 265 002c 364A     		ldr	r2, .L15+12
 266 002e 9342     		cmp	r3, r2
 267 0030 17D0     		beq	.L10
 268              		.loc 1 144 3 discriminator 4
 269 0032 7B68     		ldr	r3, [r7, #4]
 270 0034 1B68     		ldr	r3, [r3]
 271 0036 354A     		ldr	r2, .L15+16
 272 0038 9342     		cmp	r3, r2
 273 003a 12D0     		beq	.L10
 274              		.loc 1 144 3 discriminator 5
 275 003c 7B68     		ldr	r3, [r7, #4]
 276 003e 1B68     		ldr	r3, [r3]
 277 0040 334A     		ldr	r2, .L15+20
 278 0042 9342     		cmp	r3, r2
 279 0044 0DD0     		beq	.L10
 280              		.loc 1 144 3 discriminator 6
 281 0046 7B68     		ldr	r3, [r7, #4]
 282 0048 1B68     		ldr	r3, [r3]
 283 004a 324A     		ldr	r2, .L15+24
 284 004c 9342     		cmp	r3, r2
 285 004e 08D0     		beq	.L10
 286              		.loc 1 144 3 discriminator 7
 287 0050 7B68     		ldr	r3, [r7, #4]
 288 0052 1B68     		ldr	r3, [r3]
 289 0054 304A     		ldr	r2, .L15+28
 290 0056 9342     		cmp	r3, r2
 291 0058 03D0     		beq	.L10
 292              		.loc 1 144 3 discriminator 8
 293 005a 9021     		movs	r1, #144
 294 005c 2F48     		ldr	r0, .L15+32
 295 005e FFF7FEFF 		bl	assert_failed
 296              	.L10:
 145:STM32Cube_FW_N6/Drivers/STM32N6xx_HAL_Driver/Src/stm32n6xx_hal_i2c_ex.c ****   assert_param(IS_I2C_DIGITAL_FILTER(DigitalFilter));
 297              		.loc 1 145 3 is_stmt 1
 298 0062 3B68     		ldr	r3, [r7]
 299 0064 0F2B     		cmp	r3, #15
 300 0066 03D9     		bls	.L11
 301              		.loc 1 145 3 is_stmt 0 discriminator 1
 302 0068 9121     		movs	r1, #145
 303 006a 2C48     		ldr	r0, .L15+32
 304 006c FFF7FEFF 		bl	assert_failed
 305              	.L11:
 146:STM32Cube_FW_N6/Drivers/STM32N6xx_HAL_Driver/Src/stm32n6xx_hal_i2c_ex.c **** 
ARM GAS  /tmp/cc9usRe3.s 			page 9


 147:STM32Cube_FW_N6/Drivers/STM32N6xx_HAL_Driver/Src/stm32n6xx_hal_i2c_ex.c ****   if (hi2c->State == HAL_I2C_STATE_READY)
 306              		.loc 1 147 11 is_stmt 1
 307 0070 7B68     		ldr	r3, [r7, #4]
 308 0072 93F84130 		ldrb	r3, [r3, #65]
 309 0076 DBB2     		uxtb	r3, r3
 310              		.loc 1 147 6
 311 0078 202B     		cmp	r3, #32
 312 007a 39D1     		bne	.L12
 148:STM32Cube_FW_N6/Drivers/STM32N6xx_HAL_Driver/Src/stm32n6xx_hal_i2c_ex.c ****   {
 149:STM32Cube_FW_N6/Drivers/STM32N6xx_HAL_Driver/Src/stm32n6xx_hal_i2c_ex.c ****     /* Process Locked */
 150:STM32Cube_FW_N6/Drivers/STM32N6xx_HAL_Driver/Src/stm32n6xx_hal_i2c_ex.c ****     __HAL_LOCK(hi2c);
 313              		.loc 1 150 5
 314 007c 7B68     		ldr	r3, [r7, #4]
 315 007e 93F84030 		ldrb	r3, [r3, #64]	@ zero_extendqisi2
 316 0082 012B     		cmp	r3, #1
 317 0084 01D1     		bne	.L13
 318              		.loc 1 150 5 is_stmt 0 discriminator 1
 319 0086 0223     		movs	r3, #2
 320              		.loc 1 150 5
 321 0088 33E0     		b	.L14
 322              	.L13:
 323              		.loc 1 150 5 discriminator 2
 324 008a 7B68     		ldr	r3, [r7, #4]
 325 008c 0122     		movs	r2, #1
 326 008e 83F84020 		strb	r2, [r3, #64]
 151:STM32Cube_FW_N6/Drivers/STM32N6xx_HAL_Driver/Src/stm32n6xx_hal_i2c_ex.c **** 
 152:STM32Cube_FW_N6/Drivers/STM32N6xx_HAL_Driver/Src/stm32n6xx_hal_i2c_ex.c ****     hi2c->State = HAL_I2C_STATE_BUSY;
 327              		.loc 1 152 17 is_stmt 1
 328 0092 7B68     		ldr	r3, [r7, #4]
 329 0094 2422     		movs	r2, #36
 330 0096 83F84120 		strb	r2, [r3, #65]
 153:STM32Cube_FW_N6/Drivers/STM32N6xx_HAL_Driver/Src/stm32n6xx_hal_i2c_ex.c **** 
 154:STM32Cube_FW_N6/Drivers/STM32N6xx_HAL_Driver/Src/stm32n6xx_hal_i2c_ex.c ****     /* Disable the selected I2C peripheral */
 155:STM32Cube_FW_N6/Drivers/STM32N6xx_HAL_Driver/Src/stm32n6xx_hal_i2c_ex.c ****     __HAL_I2C_DISABLE(hi2c);
 331              		.loc 1 155 5
 332 009a 7B68     		ldr	r3, [r7, #4]
 333 009c 1B68     		ldr	r3, [r3]
 334 009e 1A68     		ldr	r2, [r3]
 335 00a0 7B68     		ldr	r3, [r7, #4]
 336 00a2 1B68     		ldr	r3, [r3]
 337 00a4 22F00102 		bic	r2, r2, #1
 338 00a8 1A60     		str	r2, [r3]
 156:STM32Cube_FW_N6/Drivers/STM32N6xx_HAL_Driver/Src/stm32n6xx_hal_i2c_ex.c **** 
 157:STM32Cube_FW_N6/Drivers/STM32N6xx_HAL_Driver/Src/stm32n6xx_hal_i2c_ex.c ****     /* Get the old register value */
 158:STM32Cube_FW_N6/Drivers/STM32N6xx_HAL_Driver/Src/stm32n6xx_hal_i2c_ex.c ****     tmpreg = hi2c->Instance->CR1;
 339              		.loc 1 158 18
 340 00aa 7B68     		ldr	r3, [r7, #4]
 341 00ac 1B68     		ldr	r3, [r3]
 342              		.loc 1 158 12
 343 00ae 1B68     		ldr	r3, [r3]
 344 00b0 FB60     		str	r3, [r7, #12]
 159:STM32Cube_FW_N6/Drivers/STM32N6xx_HAL_Driver/Src/stm32n6xx_hal_i2c_ex.c **** 
 160:STM32Cube_FW_N6/Drivers/STM32N6xx_HAL_Driver/Src/stm32n6xx_hal_i2c_ex.c ****     /* Reset I2Cx DNF bits [11:8] */
 161:STM32Cube_FW_N6/Drivers/STM32N6xx_HAL_Driver/Src/stm32n6xx_hal_i2c_ex.c ****     tmpreg &= ~(I2C_CR1_DNF);
 345              		.loc 1 161 12
 346 00b2 FB68     		ldr	r3, [r7, #12]
 347 00b4 23F47063 		bic	r3, r3, #3840
ARM GAS  /tmp/cc9usRe3.s 			page 10


 348 00b8 FB60     		str	r3, [r7, #12]
 162:STM32Cube_FW_N6/Drivers/STM32N6xx_HAL_Driver/Src/stm32n6xx_hal_i2c_ex.c **** 
 163:STM32Cube_FW_N6/Drivers/STM32N6xx_HAL_Driver/Src/stm32n6xx_hal_i2c_ex.c ****     /* Set I2Cx DNF coefficient */
 164:STM32Cube_FW_N6/Drivers/STM32N6xx_HAL_Driver/Src/stm32n6xx_hal_i2c_ex.c ****     tmpreg |= DigitalFilter << 8U;
 349              		.loc 1 164 29
 350 00ba 3B68     		ldr	r3, [r7]
 351 00bc 1B02     		lsls	r3, r3, #8
 352              		.loc 1 164 12
 353 00be FA68     		ldr	r2, [r7, #12]
 354 00c0 1343     		orrs	r3, r3, r2
 355 00c2 FB60     		str	r3, [r7, #12]
 165:STM32Cube_FW_N6/Drivers/STM32N6xx_HAL_Driver/Src/stm32n6xx_hal_i2c_ex.c **** 
 166:STM32Cube_FW_N6/Drivers/STM32N6xx_HAL_Driver/Src/stm32n6xx_hal_i2c_ex.c ****     /* Store the new register value */
 167:STM32Cube_FW_N6/Drivers/STM32N6xx_HAL_Driver/Src/stm32n6xx_hal_i2c_ex.c ****     hi2c->Instance->CR1 = tmpreg;
 356              		.loc 1 167 9
 357 00c4 7B68     		ldr	r3, [r7, #4]
 358 00c6 1B68     		ldr	r3, [r3]
 359              		.loc 1 167 25
 360 00c8 FA68     		ldr	r2, [r7, #12]
 361 00ca 1A60     		str	r2, [r3]
 168:STM32Cube_FW_N6/Drivers/STM32N6xx_HAL_Driver/Src/stm32n6xx_hal_i2c_ex.c **** 
 169:STM32Cube_FW_N6/Drivers/STM32N6xx_HAL_Driver/Src/stm32n6xx_hal_i2c_ex.c ****     __HAL_I2C_ENABLE(hi2c);
 362              		.loc 1 169 5
 363 00cc 7B68     		ldr	r3, [r7, #4]
 364 00ce 1B68     		ldr	r3, [r3]
 365 00d0 1A68     		ldr	r2, [r3]
 366 00d2 7B68     		ldr	r3, [r7, #4]
 367 00d4 1B68     		ldr	r3, [r3]
 368 00d6 42F00102 		orr	r2, r2, #1
 369 00da 1A60     		str	r2, [r3]
 170:STM32Cube_FW_N6/Drivers/STM32N6xx_HAL_Driver/Src/stm32n6xx_hal_i2c_ex.c **** 
 171:STM32Cube_FW_N6/Drivers/STM32N6xx_HAL_Driver/Src/stm32n6xx_hal_i2c_ex.c ****     hi2c->State = HAL_I2C_STATE_READY;
 370              		.loc 1 171 17
 371 00dc 7B68     		ldr	r3, [r7, #4]
 372 00de 2022     		movs	r2, #32
 373 00e0 83F84120 		strb	r2, [r3, #65]
 172:STM32Cube_FW_N6/Drivers/STM32N6xx_HAL_Driver/Src/stm32n6xx_hal_i2c_ex.c **** 
 173:STM32Cube_FW_N6/Drivers/STM32N6xx_HAL_Driver/Src/stm32n6xx_hal_i2c_ex.c ****     /* Process Unlocked */
 174:STM32Cube_FW_N6/Drivers/STM32N6xx_HAL_Driver/Src/stm32n6xx_hal_i2c_ex.c ****     __HAL_UNLOCK(hi2c);
 374              		.loc 1 174 5
 375 00e4 7B68     		ldr	r3, [r7, #4]
 376 00e6 0022     		movs	r2, #0
 377 00e8 83F84020 		strb	r2, [r3, #64]
 175:STM32Cube_FW_N6/Drivers/STM32N6xx_HAL_Driver/Src/stm32n6xx_hal_i2c_ex.c **** 
 176:STM32Cube_FW_N6/Drivers/STM32N6xx_HAL_Driver/Src/stm32n6xx_hal_i2c_ex.c ****     return HAL_OK;
 378              		.loc 1 176 12
 379 00ec 0023     		movs	r3, #0
 380 00ee 00E0     		b	.L14
 381              	.L12:
 177:STM32Cube_FW_N6/Drivers/STM32N6xx_HAL_Driver/Src/stm32n6xx_hal_i2c_ex.c ****   }
 178:STM32Cube_FW_N6/Drivers/STM32N6xx_HAL_Driver/Src/stm32n6xx_hal_i2c_ex.c ****   else
 179:STM32Cube_FW_N6/Drivers/STM32N6xx_HAL_Driver/Src/stm32n6xx_hal_i2c_ex.c ****   {
 180:STM32Cube_FW_N6/Drivers/STM32N6xx_HAL_Driver/Src/stm32n6xx_hal_i2c_ex.c ****     return HAL_BUSY;
 382              		.loc 1 180 12
 383 00f0 0223     		movs	r3, #2
 384              	.L14:
 181:STM32Cube_FW_N6/Drivers/STM32N6xx_HAL_Driver/Src/stm32n6xx_hal_i2c_ex.c ****   }
ARM GAS  /tmp/cc9usRe3.s 			page 11


 182:STM32Cube_FW_N6/Drivers/STM32N6xx_HAL_Driver/Src/stm32n6xx_hal_i2c_ex.c **** }
 385              		.loc 1 182 1
 386 00f2 1846     		mov	r0, r3
 387 00f4 1037     		adds	r7, r7, #16
 388              		.cfi_def_cfa_offset 8
 389 00f6 BD46     		mov	sp, r7
 390              		.cfi_def_cfa_register 13
 391              		@ sp needed
 392 00f8 80BD     		pop	{r7, pc}
 393              	.L16:
 394 00fa 00BF     		.align	2
 395              	.L15:
 396 00fc 00540050 		.word	1342198784
 397 0100 00540040 		.word	1073763328
 398 0104 00580050 		.word	1342199808
 399 0108 00580040 		.word	1073764352
 400 010c 005C0050 		.word	1342200832
 401 0110 005C0040 		.word	1073765376
 402 0114 001C0056 		.word	1442847744
 403 0118 001C0046 		.word	1174412288
 404 011c 00000000 		.word	.LC0
 405              		.cfi_endproc
 406              	.LFE836:
 408              		.section	.text.HAL_I2CEx_EnableWakeUp,"ax",%progbits
 409              		.align	1
 410              		.global	HAL_I2CEx_EnableWakeUp
 411              		.syntax unified
 412              		.thumb
 413              		.thumb_func
 415              	HAL_I2CEx_EnableWakeUp:
 416              	.LFB837:
 183:STM32Cube_FW_N6/Drivers/STM32N6xx_HAL_Driver/Src/stm32n6xx_hal_i2c_ex.c **** /**
 184:STM32Cube_FW_N6/Drivers/STM32N6xx_HAL_Driver/Src/stm32n6xx_hal_i2c_ex.c ****   * @}
 185:STM32Cube_FW_N6/Drivers/STM32N6xx_HAL_Driver/Src/stm32n6xx_hal_i2c_ex.c ****   */
 186:STM32Cube_FW_N6/Drivers/STM32N6xx_HAL_Driver/Src/stm32n6xx_hal_i2c_ex.c **** 
 187:STM32Cube_FW_N6/Drivers/STM32N6xx_HAL_Driver/Src/stm32n6xx_hal_i2c_ex.c **** /** @defgroup I2CEx_Exported_Functions_Group2 WakeUp Mode Functions
 188:STM32Cube_FW_N6/Drivers/STM32N6xx_HAL_Driver/Src/stm32n6xx_hal_i2c_ex.c ****   * @brief    WakeUp Mode Functions
 189:STM32Cube_FW_N6/Drivers/STM32N6xx_HAL_Driver/Src/stm32n6xx_hal_i2c_ex.c ****   *
 190:STM32Cube_FW_N6/Drivers/STM32N6xx_HAL_Driver/Src/stm32n6xx_hal_i2c_ex.c **** @verbatim
 191:STM32Cube_FW_N6/Drivers/STM32N6xx_HAL_Driver/Src/stm32n6xx_hal_i2c_ex.c ****  ===============================================================================
 192:STM32Cube_FW_N6/Drivers/STM32N6xx_HAL_Driver/Src/stm32n6xx_hal_i2c_ex.c ****                       ##### WakeUp Mode Functions #####
 193:STM32Cube_FW_N6/Drivers/STM32N6xx_HAL_Driver/Src/stm32n6xx_hal_i2c_ex.c ****  ===============================================================================
 194:STM32Cube_FW_N6/Drivers/STM32N6xx_HAL_Driver/Src/stm32n6xx_hal_i2c_ex.c ****     [..] This section provides functions allowing to:
 195:STM32Cube_FW_N6/Drivers/STM32N6xx_HAL_Driver/Src/stm32n6xx_hal_i2c_ex.c ****       (+) Configure Wake Up Feature
 196:STM32Cube_FW_N6/Drivers/STM32N6xx_HAL_Driver/Src/stm32n6xx_hal_i2c_ex.c **** 
 197:STM32Cube_FW_N6/Drivers/STM32N6xx_HAL_Driver/Src/stm32n6xx_hal_i2c_ex.c **** @endverbatim
 198:STM32Cube_FW_N6/Drivers/STM32N6xx_HAL_Driver/Src/stm32n6xx_hal_i2c_ex.c ****   * @{
 199:STM32Cube_FW_N6/Drivers/STM32N6xx_HAL_Driver/Src/stm32n6xx_hal_i2c_ex.c ****   */
 200:STM32Cube_FW_N6/Drivers/STM32N6xx_HAL_Driver/Src/stm32n6xx_hal_i2c_ex.c **** 
 201:STM32Cube_FW_N6/Drivers/STM32N6xx_HAL_Driver/Src/stm32n6xx_hal_i2c_ex.c **** /**
 202:STM32Cube_FW_N6/Drivers/STM32N6xx_HAL_Driver/Src/stm32n6xx_hal_i2c_ex.c ****   * @brief  Enable I2C wakeup from Stop mode(s).
 203:STM32Cube_FW_N6/Drivers/STM32N6xx_HAL_Driver/Src/stm32n6xx_hal_i2c_ex.c ****   * @param  hi2c Pointer to a I2C_HandleTypeDef structure that contains
 204:STM32Cube_FW_N6/Drivers/STM32N6xx_HAL_Driver/Src/stm32n6xx_hal_i2c_ex.c ****   *                the configuration information for the specified I2Cx peripheral.
 205:STM32Cube_FW_N6/Drivers/STM32N6xx_HAL_Driver/Src/stm32n6xx_hal_i2c_ex.c ****   * @retval HAL status
 206:STM32Cube_FW_N6/Drivers/STM32N6xx_HAL_Driver/Src/stm32n6xx_hal_i2c_ex.c ****   */
 207:STM32Cube_FW_N6/Drivers/STM32N6xx_HAL_Driver/Src/stm32n6xx_hal_i2c_ex.c **** HAL_StatusTypeDef HAL_I2CEx_EnableWakeUp(I2C_HandleTypeDef *hi2c)
 208:STM32Cube_FW_N6/Drivers/STM32N6xx_HAL_Driver/Src/stm32n6xx_hal_i2c_ex.c **** {
ARM GAS  /tmp/cc9usRe3.s 			page 12


 417              		.loc 1 208 1
 418              		.cfi_startproc
 419              		@ args = 0, pretend = 0, frame = 8
 420              		@ frame_needed = 1, uses_anonymous_args = 0
 421 0000 80B5     		push	{r7, lr}
 422              		.cfi_def_cfa_offset 8
 423              		.cfi_offset 7, -8
 424              		.cfi_offset 14, -4
 425 0002 82B0     		sub	sp, sp, #8
 426              		.cfi_def_cfa_offset 16
 427 0004 00AF     		add	r7, sp, #0
 428              		.cfi_def_cfa_register 7
 429 0006 7860     		str	r0, [r7, #4]
 209:STM32Cube_FW_N6/Drivers/STM32N6xx_HAL_Driver/Src/stm32n6xx_hal_i2c_ex.c ****   /* Check the parameters */
 210:STM32Cube_FW_N6/Drivers/STM32N6xx_HAL_Driver/Src/stm32n6xx_hal_i2c_ex.c ****   assert_param(IS_I2C_WAKEUP_FROMSTOP_INSTANCE(hi2c->Instance));
 430              		.loc 1 210 3
 431 0008 7B68     		ldr	r3, [r7, #4]
 432 000a 1B68     		ldr	r3, [r3]
 433 000c 324A     		ldr	r2, .L22
 434 000e 9342     		cmp	r3, r2
 435 0010 26D0     		beq	.L18
 436              		.loc 1 210 3 is_stmt 0 discriminator 1
 437 0012 7B68     		ldr	r3, [r7, #4]
 438 0014 1B68     		ldr	r3, [r3]
 439 0016 314A     		ldr	r2, .L22+4
 440 0018 9342     		cmp	r3, r2
 441 001a 21D0     		beq	.L18
 442              		.loc 1 210 3 discriminator 2
 443 001c 7B68     		ldr	r3, [r7, #4]
 444 001e 1B68     		ldr	r3, [r3]
 445 0020 2F4A     		ldr	r2, .L22+8
 446 0022 9342     		cmp	r3, r2
 447 0024 1CD0     		beq	.L18
 448              		.loc 1 210 3 discriminator 3
 449 0026 7B68     		ldr	r3, [r7, #4]
 450 0028 1B68     		ldr	r3, [r3]
 451 002a 2E4A     		ldr	r2, .L22+12
 452 002c 9342     		cmp	r3, r2
 453 002e 17D0     		beq	.L18
 454              		.loc 1 210 3 discriminator 4
 455 0030 7B68     		ldr	r3, [r7, #4]
 456 0032 1B68     		ldr	r3, [r3]
 457 0034 2C4A     		ldr	r2, .L22+16
 458 0036 9342     		cmp	r3, r2
 459 0038 12D0     		beq	.L18
 460              		.loc 1 210 3 discriminator 5
 461 003a 7B68     		ldr	r3, [r7, #4]
 462 003c 1B68     		ldr	r3, [r3]
 463 003e 2B4A     		ldr	r2, .L22+20
 464 0040 9342     		cmp	r3, r2
 465 0042 0DD0     		beq	.L18
 466              		.loc 1 210 3 discriminator 6
 467 0044 7B68     		ldr	r3, [r7, #4]
 468 0046 1B68     		ldr	r3, [r3]
 469 0048 294A     		ldr	r2, .L22+24
 470 004a 9342     		cmp	r3, r2
 471 004c 08D0     		beq	.L18
ARM GAS  /tmp/cc9usRe3.s 			page 13


 472              		.loc 1 210 3 discriminator 7
 473 004e 7B68     		ldr	r3, [r7, #4]
 474 0050 1B68     		ldr	r3, [r3]
 475 0052 284A     		ldr	r2, .L22+28
 476 0054 9342     		cmp	r3, r2
 477 0056 03D0     		beq	.L18
 478              		.loc 1 210 3 discriminator 8
 479 0058 D221     		movs	r1, #210
 480 005a 2748     		ldr	r0, .L22+32
 481 005c FFF7FEFF 		bl	assert_failed
 482              	.L18:
 211:STM32Cube_FW_N6/Drivers/STM32N6xx_HAL_Driver/Src/stm32n6xx_hal_i2c_ex.c **** 
 212:STM32Cube_FW_N6/Drivers/STM32N6xx_HAL_Driver/Src/stm32n6xx_hal_i2c_ex.c ****   if (hi2c->State == HAL_I2C_STATE_READY)
 483              		.loc 1 212 11 is_stmt 1
 484 0060 7B68     		ldr	r3, [r7, #4]
 485 0062 93F84130 		ldrb	r3, [r3, #65]
 486 0066 DBB2     		uxtb	r3, r3
 487              		.loc 1 212 6
 488 0068 202B     		cmp	r3, #32
 489 006a 30D1     		bne	.L19
 213:STM32Cube_FW_N6/Drivers/STM32N6xx_HAL_Driver/Src/stm32n6xx_hal_i2c_ex.c ****   {
 214:STM32Cube_FW_N6/Drivers/STM32N6xx_HAL_Driver/Src/stm32n6xx_hal_i2c_ex.c ****     /* Process Locked */
 215:STM32Cube_FW_N6/Drivers/STM32N6xx_HAL_Driver/Src/stm32n6xx_hal_i2c_ex.c ****     __HAL_LOCK(hi2c);
 490              		.loc 1 215 5
 491 006c 7B68     		ldr	r3, [r7, #4]
 492 006e 93F84030 		ldrb	r3, [r3, #64]	@ zero_extendqisi2
 493 0072 012B     		cmp	r3, #1
 494 0074 01D1     		bne	.L20
 495              		.loc 1 215 5 is_stmt 0 discriminator 1
 496 0076 0223     		movs	r3, #2
 497              		.loc 1 215 5
 498 0078 2AE0     		b	.L21
 499              	.L20:
 500              		.loc 1 215 5 discriminator 2
 501 007a 7B68     		ldr	r3, [r7, #4]
 502 007c 0122     		movs	r2, #1
 503 007e 83F84020 		strb	r2, [r3, #64]
 216:STM32Cube_FW_N6/Drivers/STM32N6xx_HAL_Driver/Src/stm32n6xx_hal_i2c_ex.c **** 
 217:STM32Cube_FW_N6/Drivers/STM32N6xx_HAL_Driver/Src/stm32n6xx_hal_i2c_ex.c ****     hi2c->State = HAL_I2C_STATE_BUSY;
 504              		.loc 1 217 17 is_stmt 1
 505 0082 7B68     		ldr	r3, [r7, #4]
 506 0084 2422     		movs	r2, #36
 507 0086 83F84120 		strb	r2, [r3, #65]
 218:STM32Cube_FW_N6/Drivers/STM32N6xx_HAL_Driver/Src/stm32n6xx_hal_i2c_ex.c **** 
 219:STM32Cube_FW_N6/Drivers/STM32N6xx_HAL_Driver/Src/stm32n6xx_hal_i2c_ex.c ****     /* Disable the selected I2C peripheral */
 220:STM32Cube_FW_N6/Drivers/STM32N6xx_HAL_Driver/Src/stm32n6xx_hal_i2c_ex.c ****     __HAL_I2C_DISABLE(hi2c);
 508              		.loc 1 220 5
 509 008a 7B68     		ldr	r3, [r7, #4]
 510 008c 1B68     		ldr	r3, [r3]
 511 008e 1A68     		ldr	r2, [r3]
 512 0090 7B68     		ldr	r3, [r7, #4]
 513 0092 1B68     		ldr	r3, [r3]
 514 0094 22F00102 		bic	r2, r2, #1
 515 0098 1A60     		str	r2, [r3]
 221:STM32Cube_FW_N6/Drivers/STM32N6xx_HAL_Driver/Src/stm32n6xx_hal_i2c_ex.c **** 
 222:STM32Cube_FW_N6/Drivers/STM32N6xx_HAL_Driver/Src/stm32n6xx_hal_i2c_ex.c ****     /* Enable wakeup from stop mode */
 223:STM32Cube_FW_N6/Drivers/STM32N6xx_HAL_Driver/Src/stm32n6xx_hal_i2c_ex.c ****     hi2c->Instance->CR1 |= I2C_CR1_WUPEN;
ARM GAS  /tmp/cc9usRe3.s 			page 14


 516              		.loc 1 223 9
 517 009a 7B68     		ldr	r3, [r7, #4]
 518 009c 1B68     		ldr	r3, [r3]
 519              		.loc 1 223 19
 520 009e 1A68     		ldr	r2, [r3]
 521              		.loc 1 223 9
 522 00a0 7B68     		ldr	r3, [r7, #4]
 523 00a2 1B68     		ldr	r3, [r3]
 524              		.loc 1 223 25
 525 00a4 42F48022 		orr	r2, r2, #262144
 526 00a8 1A60     		str	r2, [r3]
 224:STM32Cube_FW_N6/Drivers/STM32N6xx_HAL_Driver/Src/stm32n6xx_hal_i2c_ex.c **** 
 225:STM32Cube_FW_N6/Drivers/STM32N6xx_HAL_Driver/Src/stm32n6xx_hal_i2c_ex.c ****     __HAL_I2C_ENABLE(hi2c);
 527              		.loc 1 225 5
 528 00aa 7B68     		ldr	r3, [r7, #4]
 529 00ac 1B68     		ldr	r3, [r3]
 530 00ae 1A68     		ldr	r2, [r3]
 531 00b0 7B68     		ldr	r3, [r7, #4]
 532 00b2 1B68     		ldr	r3, [r3]
 533 00b4 42F00102 		orr	r2, r2, #1
 534 00b8 1A60     		str	r2, [r3]
 226:STM32Cube_FW_N6/Drivers/STM32N6xx_HAL_Driver/Src/stm32n6xx_hal_i2c_ex.c **** 
 227:STM32Cube_FW_N6/Drivers/STM32N6xx_HAL_Driver/Src/stm32n6xx_hal_i2c_ex.c ****     hi2c->State = HAL_I2C_STATE_READY;
 535              		.loc 1 227 17
 536 00ba 7B68     		ldr	r3, [r7, #4]
 537 00bc 2022     		movs	r2, #32
 538 00be 83F84120 		strb	r2, [r3, #65]
 228:STM32Cube_FW_N6/Drivers/STM32N6xx_HAL_Driver/Src/stm32n6xx_hal_i2c_ex.c **** 
 229:STM32Cube_FW_N6/Drivers/STM32N6xx_HAL_Driver/Src/stm32n6xx_hal_i2c_ex.c ****     /* Process Unlocked */
 230:STM32Cube_FW_N6/Drivers/STM32N6xx_HAL_Driver/Src/stm32n6xx_hal_i2c_ex.c ****     __HAL_UNLOCK(hi2c);
 539              		.loc 1 230 5
 540 00c2 7B68     		ldr	r3, [r7, #4]
 541 00c4 0022     		movs	r2, #0
 542 00c6 83F84020 		strb	r2, [r3, #64]
 231:STM32Cube_FW_N6/Drivers/STM32N6xx_HAL_Driver/Src/stm32n6xx_hal_i2c_ex.c **** 
 232:STM32Cube_FW_N6/Drivers/STM32N6xx_HAL_Driver/Src/stm32n6xx_hal_i2c_ex.c ****     return HAL_OK;
 543              		.loc 1 232 12
 544 00ca 0023     		movs	r3, #0
 545 00cc 00E0     		b	.L21
 546              	.L19:
 233:STM32Cube_FW_N6/Drivers/STM32N6xx_HAL_Driver/Src/stm32n6xx_hal_i2c_ex.c ****   }
 234:STM32Cube_FW_N6/Drivers/STM32N6xx_HAL_Driver/Src/stm32n6xx_hal_i2c_ex.c ****   else
 235:STM32Cube_FW_N6/Drivers/STM32N6xx_HAL_Driver/Src/stm32n6xx_hal_i2c_ex.c ****   {
 236:STM32Cube_FW_N6/Drivers/STM32N6xx_HAL_Driver/Src/stm32n6xx_hal_i2c_ex.c ****     return HAL_BUSY;
 547              		.loc 1 236 12
 548 00ce 0223     		movs	r3, #2
 549              	.L21:
 237:STM32Cube_FW_N6/Drivers/STM32N6xx_HAL_Driver/Src/stm32n6xx_hal_i2c_ex.c ****   }
 238:STM32Cube_FW_N6/Drivers/STM32N6xx_HAL_Driver/Src/stm32n6xx_hal_i2c_ex.c **** }
 550              		.loc 1 238 1
 551 00d0 1846     		mov	r0, r3
 552 00d2 0837     		adds	r7, r7, #8
 553              		.cfi_def_cfa_offset 8
 554 00d4 BD46     		mov	sp, r7
 555              		.cfi_def_cfa_register 13
 556              		@ sp needed
 557 00d6 80BD     		pop	{r7, pc}
ARM GAS  /tmp/cc9usRe3.s 			page 15


 558              	.L23:
 559              		.align	2
 560              	.L22:
 561 00d8 00540050 		.word	1342198784
 562 00dc 00540040 		.word	1073763328
 563 00e0 00580050 		.word	1342199808
 564 00e4 00580040 		.word	1073764352
 565 00e8 005C0050 		.word	1342200832
 566 00ec 005C0040 		.word	1073765376
 567 00f0 001C0056 		.word	1442847744
 568 00f4 001C0046 		.word	1174412288
 569 00f8 00000000 		.word	.LC0
 570              		.cfi_endproc
 571              	.LFE837:
 573              		.section	.text.HAL_I2CEx_DisableWakeUp,"ax",%progbits
 574              		.align	1
 575              		.global	HAL_I2CEx_DisableWakeUp
 576              		.syntax unified
 577              		.thumb
 578              		.thumb_func
 580              	HAL_I2CEx_DisableWakeUp:
 581              	.LFB838:
 239:STM32Cube_FW_N6/Drivers/STM32N6xx_HAL_Driver/Src/stm32n6xx_hal_i2c_ex.c **** 
 240:STM32Cube_FW_N6/Drivers/STM32N6xx_HAL_Driver/Src/stm32n6xx_hal_i2c_ex.c **** /**
 241:STM32Cube_FW_N6/Drivers/STM32N6xx_HAL_Driver/Src/stm32n6xx_hal_i2c_ex.c ****   * @brief  Disable I2C wakeup from Stop mode(s).
 242:STM32Cube_FW_N6/Drivers/STM32N6xx_HAL_Driver/Src/stm32n6xx_hal_i2c_ex.c ****   * @param  hi2c Pointer to a I2C_HandleTypeDef structure that contains
 243:STM32Cube_FW_N6/Drivers/STM32N6xx_HAL_Driver/Src/stm32n6xx_hal_i2c_ex.c ****   *                the configuration information for the specified I2Cx peripheral.
 244:STM32Cube_FW_N6/Drivers/STM32N6xx_HAL_Driver/Src/stm32n6xx_hal_i2c_ex.c ****   * @retval HAL status
 245:STM32Cube_FW_N6/Drivers/STM32N6xx_HAL_Driver/Src/stm32n6xx_hal_i2c_ex.c ****   */
 246:STM32Cube_FW_N6/Drivers/STM32N6xx_HAL_Driver/Src/stm32n6xx_hal_i2c_ex.c **** HAL_StatusTypeDef HAL_I2CEx_DisableWakeUp(I2C_HandleTypeDef *hi2c)
 247:STM32Cube_FW_N6/Drivers/STM32N6xx_HAL_Driver/Src/stm32n6xx_hal_i2c_ex.c **** {
 582              		.loc 1 247 1
 583              		.cfi_startproc
 584              		@ args = 0, pretend = 0, frame = 8
 585              		@ frame_needed = 1, uses_anonymous_args = 0
 586 0000 80B5     		push	{r7, lr}
 587              		.cfi_def_cfa_offset 8
 588              		.cfi_offset 7, -8
 589              		.cfi_offset 14, -4
 590 0002 82B0     		sub	sp, sp, #8
 591              		.cfi_def_cfa_offset 16
 592 0004 00AF     		add	r7, sp, #0
 593              		.cfi_def_cfa_register 7
 594 0006 7860     		str	r0, [r7, #4]
 248:STM32Cube_FW_N6/Drivers/STM32N6xx_HAL_Driver/Src/stm32n6xx_hal_i2c_ex.c ****   /* Check the parameters */
 249:STM32Cube_FW_N6/Drivers/STM32N6xx_HAL_Driver/Src/stm32n6xx_hal_i2c_ex.c ****   assert_param(IS_I2C_WAKEUP_FROMSTOP_INSTANCE(hi2c->Instance));
 595              		.loc 1 249 3
 596 0008 7B68     		ldr	r3, [r7, #4]
 597 000a 1B68     		ldr	r3, [r3]
 598 000c 324A     		ldr	r2, .L29
 599 000e 9342     		cmp	r3, r2
 600 0010 26D0     		beq	.L25
 601              		.loc 1 249 3 is_stmt 0 discriminator 1
 602 0012 7B68     		ldr	r3, [r7, #4]
 603 0014 1B68     		ldr	r3, [r3]
 604 0016 314A     		ldr	r2, .L29+4
 605 0018 9342     		cmp	r3, r2
ARM GAS  /tmp/cc9usRe3.s 			page 16


 606 001a 21D0     		beq	.L25
 607              		.loc 1 249 3 discriminator 2
 608 001c 7B68     		ldr	r3, [r7, #4]
 609 001e 1B68     		ldr	r3, [r3]
 610 0020 2F4A     		ldr	r2, .L29+8
 611 0022 9342     		cmp	r3, r2
 612 0024 1CD0     		beq	.L25
 613              		.loc 1 249 3 discriminator 3
 614 0026 7B68     		ldr	r3, [r7, #4]
 615 0028 1B68     		ldr	r3, [r3]
 616 002a 2E4A     		ldr	r2, .L29+12
 617 002c 9342     		cmp	r3, r2
 618 002e 17D0     		beq	.L25
 619              		.loc 1 249 3 discriminator 4
 620 0030 7B68     		ldr	r3, [r7, #4]
 621 0032 1B68     		ldr	r3, [r3]
 622 0034 2C4A     		ldr	r2, .L29+16
 623 0036 9342     		cmp	r3, r2
 624 0038 12D0     		beq	.L25
 625              		.loc 1 249 3 discriminator 5
 626 003a 7B68     		ldr	r3, [r7, #4]
 627 003c 1B68     		ldr	r3, [r3]
 628 003e 2B4A     		ldr	r2, .L29+20
 629 0040 9342     		cmp	r3, r2
 630 0042 0DD0     		beq	.L25
 631              		.loc 1 249 3 discriminator 6
 632 0044 7B68     		ldr	r3, [r7, #4]
 633 0046 1B68     		ldr	r3, [r3]
 634 0048 294A     		ldr	r2, .L29+24
 635 004a 9342     		cmp	r3, r2
 636 004c 08D0     		beq	.L25
 637              		.loc 1 249 3 discriminator 7
 638 004e 7B68     		ldr	r3, [r7, #4]
 639 0050 1B68     		ldr	r3, [r3]
 640 0052 284A     		ldr	r2, .L29+28
 641 0054 9342     		cmp	r3, r2
 642 0056 03D0     		beq	.L25
 643              		.loc 1 249 3 discriminator 8
 644 0058 F921     		movs	r1, #249
 645 005a 2748     		ldr	r0, .L29+32
 646 005c FFF7FEFF 		bl	assert_failed
 647              	.L25:
 250:STM32Cube_FW_N6/Drivers/STM32N6xx_HAL_Driver/Src/stm32n6xx_hal_i2c_ex.c **** 
 251:STM32Cube_FW_N6/Drivers/STM32N6xx_HAL_Driver/Src/stm32n6xx_hal_i2c_ex.c ****   if (hi2c->State == HAL_I2C_STATE_READY)
 648              		.loc 1 251 11 is_stmt 1
 649 0060 7B68     		ldr	r3, [r7, #4]
 650 0062 93F84130 		ldrb	r3, [r3, #65]
 651 0066 DBB2     		uxtb	r3, r3
 652              		.loc 1 251 6
 653 0068 202B     		cmp	r3, #32
 654 006a 30D1     		bne	.L26
 252:STM32Cube_FW_N6/Drivers/STM32N6xx_HAL_Driver/Src/stm32n6xx_hal_i2c_ex.c ****   {
 253:STM32Cube_FW_N6/Drivers/STM32N6xx_HAL_Driver/Src/stm32n6xx_hal_i2c_ex.c ****     /* Process Locked */
 254:STM32Cube_FW_N6/Drivers/STM32N6xx_HAL_Driver/Src/stm32n6xx_hal_i2c_ex.c ****     __HAL_LOCK(hi2c);
 655              		.loc 1 254 5
 656 006c 7B68     		ldr	r3, [r7, #4]
 657 006e 93F84030 		ldrb	r3, [r3, #64]	@ zero_extendqisi2
ARM GAS  /tmp/cc9usRe3.s 			page 17


 658 0072 012B     		cmp	r3, #1
 659 0074 01D1     		bne	.L27
 660              		.loc 1 254 5 is_stmt 0 discriminator 1
 661 0076 0223     		movs	r3, #2
 662              		.loc 1 254 5
 663 0078 2AE0     		b	.L28
 664              	.L27:
 665              		.loc 1 254 5 discriminator 2
 666 007a 7B68     		ldr	r3, [r7, #4]
 667 007c 0122     		movs	r2, #1
 668 007e 83F84020 		strb	r2, [r3, #64]
 255:STM32Cube_FW_N6/Drivers/STM32N6xx_HAL_Driver/Src/stm32n6xx_hal_i2c_ex.c **** 
 256:STM32Cube_FW_N6/Drivers/STM32N6xx_HAL_Driver/Src/stm32n6xx_hal_i2c_ex.c ****     hi2c->State = HAL_I2C_STATE_BUSY;
 669              		.loc 1 256 17 is_stmt 1
 670 0082 7B68     		ldr	r3, [r7, #4]
 671 0084 2422     		movs	r2, #36
 672 0086 83F84120 		strb	r2, [r3, #65]
 257:STM32Cube_FW_N6/Drivers/STM32N6xx_HAL_Driver/Src/stm32n6xx_hal_i2c_ex.c **** 
 258:STM32Cube_FW_N6/Drivers/STM32N6xx_HAL_Driver/Src/stm32n6xx_hal_i2c_ex.c ****     /* Disable the selected I2C peripheral */
 259:STM32Cube_FW_N6/Drivers/STM32N6xx_HAL_Driver/Src/stm32n6xx_hal_i2c_ex.c ****     __HAL_I2C_DISABLE(hi2c);
 673              		.loc 1 259 5
 674 008a 7B68     		ldr	r3, [r7, #4]
 675 008c 1B68     		ldr	r3, [r3]
 676 008e 1A68     		ldr	r2, [r3]
 677 0090 7B68     		ldr	r3, [r7, #4]
 678 0092 1B68     		ldr	r3, [r3]
 679 0094 22F00102 		bic	r2, r2, #1
 680 0098 1A60     		str	r2, [r3]
 260:STM32Cube_FW_N6/Drivers/STM32N6xx_HAL_Driver/Src/stm32n6xx_hal_i2c_ex.c **** 
 261:STM32Cube_FW_N6/Drivers/STM32N6xx_HAL_Driver/Src/stm32n6xx_hal_i2c_ex.c ****     /* Enable wakeup from stop mode */
 262:STM32Cube_FW_N6/Drivers/STM32N6xx_HAL_Driver/Src/stm32n6xx_hal_i2c_ex.c ****     hi2c->Instance->CR1 &= ~(I2C_CR1_WUPEN);
 681              		.loc 1 262 9
 682 009a 7B68     		ldr	r3, [r7, #4]
 683 009c 1B68     		ldr	r3, [r3]
 684              		.loc 1 262 19
 685 009e 1A68     		ldr	r2, [r3]
 686              		.loc 1 262 9
 687 00a0 7B68     		ldr	r3, [r7, #4]
 688 00a2 1B68     		ldr	r3, [r3]
 689              		.loc 1 262 25
 690 00a4 22F48022 		bic	r2, r2, #262144
 691 00a8 1A60     		str	r2, [r3]
 263:STM32Cube_FW_N6/Drivers/STM32N6xx_HAL_Driver/Src/stm32n6xx_hal_i2c_ex.c **** 
 264:STM32Cube_FW_N6/Drivers/STM32N6xx_HAL_Driver/Src/stm32n6xx_hal_i2c_ex.c ****     __HAL_I2C_ENABLE(hi2c);
 692              		.loc 1 264 5
 693 00aa 7B68     		ldr	r3, [r7, #4]
 694 00ac 1B68     		ldr	r3, [r3]
 695 00ae 1A68     		ldr	r2, [r3]
 696 00b0 7B68     		ldr	r3, [r7, #4]
 697 00b2 1B68     		ldr	r3, [r3]
 698 00b4 42F00102 		orr	r2, r2, #1
 699 00b8 1A60     		str	r2, [r3]
 265:STM32Cube_FW_N6/Drivers/STM32N6xx_HAL_Driver/Src/stm32n6xx_hal_i2c_ex.c **** 
 266:STM32Cube_FW_N6/Drivers/STM32N6xx_HAL_Driver/Src/stm32n6xx_hal_i2c_ex.c ****     hi2c->State = HAL_I2C_STATE_READY;
 700              		.loc 1 266 17
 701 00ba 7B68     		ldr	r3, [r7, #4]
 702 00bc 2022     		movs	r2, #32
ARM GAS  /tmp/cc9usRe3.s 			page 18


 703 00be 83F84120 		strb	r2, [r3, #65]
 267:STM32Cube_FW_N6/Drivers/STM32N6xx_HAL_Driver/Src/stm32n6xx_hal_i2c_ex.c **** 
 268:STM32Cube_FW_N6/Drivers/STM32N6xx_HAL_Driver/Src/stm32n6xx_hal_i2c_ex.c ****     /* Process Unlocked */
 269:STM32Cube_FW_N6/Drivers/STM32N6xx_HAL_Driver/Src/stm32n6xx_hal_i2c_ex.c ****     __HAL_UNLOCK(hi2c);
 704              		.loc 1 269 5
 705 00c2 7B68     		ldr	r3, [r7, #4]
 706 00c4 0022     		movs	r2, #0
 707 00c6 83F84020 		strb	r2, [r3, #64]
 270:STM32Cube_FW_N6/Drivers/STM32N6xx_HAL_Driver/Src/stm32n6xx_hal_i2c_ex.c **** 
 271:STM32Cube_FW_N6/Drivers/STM32N6xx_HAL_Driver/Src/stm32n6xx_hal_i2c_ex.c ****     return HAL_OK;
 708              		.loc 1 271 12
 709 00ca 0023     		movs	r3, #0
 710 00cc 00E0     		b	.L28
 711              	.L26:
 272:STM32Cube_FW_N6/Drivers/STM32N6xx_HAL_Driver/Src/stm32n6xx_hal_i2c_ex.c ****   }
 273:STM32Cube_FW_N6/Drivers/STM32N6xx_HAL_Driver/Src/stm32n6xx_hal_i2c_ex.c ****   else
 274:STM32Cube_FW_N6/Drivers/STM32N6xx_HAL_Driver/Src/stm32n6xx_hal_i2c_ex.c ****   {
 275:STM32Cube_FW_N6/Drivers/STM32N6xx_HAL_Driver/Src/stm32n6xx_hal_i2c_ex.c ****     return HAL_BUSY;
 712              		.loc 1 275 12
 713 00ce 0223     		movs	r3, #2
 714              	.L28:
 276:STM32Cube_FW_N6/Drivers/STM32N6xx_HAL_Driver/Src/stm32n6xx_hal_i2c_ex.c ****   }
 277:STM32Cube_FW_N6/Drivers/STM32N6xx_HAL_Driver/Src/stm32n6xx_hal_i2c_ex.c **** }
 715              		.loc 1 277 1
 716 00d0 1846     		mov	r0, r3
 717 00d2 0837     		adds	r7, r7, #8
 718              		.cfi_def_cfa_offset 8
 719 00d4 BD46     		mov	sp, r7
 720              		.cfi_def_cfa_register 13
 721              		@ sp needed
 722 00d6 80BD     		pop	{r7, pc}
 723              	.L30:
 724              		.align	2
 725              	.L29:
 726 00d8 00540050 		.word	1342198784
 727 00dc 00540040 		.word	1073763328
 728 00e0 00580050 		.word	1342199808
 729 00e4 00580040 		.word	1073764352
 730 00e8 005C0050 		.word	1342200832
 731 00ec 005C0040 		.word	1073765376
 732 00f0 001C0056 		.word	1442847744
 733 00f4 001C0046 		.word	1174412288
 734 00f8 00000000 		.word	.LC0
 735              		.cfi_endproc
 736              	.LFE838:
 738              		.section	.text.HAL_I2CEx_ConfigFastModePlus,"ax",%progbits
 739              		.align	1
 740              		.global	HAL_I2CEx_ConfigFastModePlus
 741              		.syntax unified
 742              		.thumb
 743              		.thumb_func
 745              	HAL_I2CEx_ConfigFastModePlus:
 746              	.LFB839:
 278:STM32Cube_FW_N6/Drivers/STM32N6xx_HAL_Driver/Src/stm32n6xx_hal_i2c_ex.c **** /**
 279:STM32Cube_FW_N6/Drivers/STM32N6xx_HAL_Driver/Src/stm32n6xx_hal_i2c_ex.c ****   * @}
 280:STM32Cube_FW_N6/Drivers/STM32N6xx_HAL_Driver/Src/stm32n6xx_hal_i2c_ex.c ****   */
 281:STM32Cube_FW_N6/Drivers/STM32N6xx_HAL_Driver/Src/stm32n6xx_hal_i2c_ex.c **** 
ARM GAS  /tmp/cc9usRe3.s 			page 19


 282:STM32Cube_FW_N6/Drivers/STM32N6xx_HAL_Driver/Src/stm32n6xx_hal_i2c_ex.c **** /** @defgroup I2CEx_Exported_Functions_Group3 Fast Mode Plus Functions
 283:STM32Cube_FW_N6/Drivers/STM32N6xx_HAL_Driver/Src/stm32n6xx_hal_i2c_ex.c ****   * @brief    Fast Mode Plus Functions
 284:STM32Cube_FW_N6/Drivers/STM32N6xx_HAL_Driver/Src/stm32n6xx_hal_i2c_ex.c ****   *
 285:STM32Cube_FW_N6/Drivers/STM32N6xx_HAL_Driver/Src/stm32n6xx_hal_i2c_ex.c **** @verbatim
 286:STM32Cube_FW_N6/Drivers/STM32N6xx_HAL_Driver/Src/stm32n6xx_hal_i2c_ex.c ****  ===============================================================================
 287:STM32Cube_FW_N6/Drivers/STM32N6xx_HAL_Driver/Src/stm32n6xx_hal_i2c_ex.c ****                       ##### Fast Mode Plus Functions #####
 288:STM32Cube_FW_N6/Drivers/STM32N6xx_HAL_Driver/Src/stm32n6xx_hal_i2c_ex.c ****  ===============================================================================
 289:STM32Cube_FW_N6/Drivers/STM32N6xx_HAL_Driver/Src/stm32n6xx_hal_i2c_ex.c ****     [..] This section provides functions allowing to:
 290:STM32Cube_FW_N6/Drivers/STM32N6xx_HAL_Driver/Src/stm32n6xx_hal_i2c_ex.c ****       (+) Configure Fast Mode Plus
 291:STM32Cube_FW_N6/Drivers/STM32N6xx_HAL_Driver/Src/stm32n6xx_hal_i2c_ex.c **** 
 292:STM32Cube_FW_N6/Drivers/STM32N6xx_HAL_Driver/Src/stm32n6xx_hal_i2c_ex.c **** @endverbatim
 293:STM32Cube_FW_N6/Drivers/STM32N6xx_HAL_Driver/Src/stm32n6xx_hal_i2c_ex.c ****   * @{
 294:STM32Cube_FW_N6/Drivers/STM32N6xx_HAL_Driver/Src/stm32n6xx_hal_i2c_ex.c ****   */
 295:STM32Cube_FW_N6/Drivers/STM32N6xx_HAL_Driver/Src/stm32n6xx_hal_i2c_ex.c **** 
 296:STM32Cube_FW_N6/Drivers/STM32N6xx_HAL_Driver/Src/stm32n6xx_hal_i2c_ex.c **** /**
 297:STM32Cube_FW_N6/Drivers/STM32N6xx_HAL_Driver/Src/stm32n6xx_hal_i2c_ex.c ****   * @brief  Configure I2C Fast Mode Plus.
 298:STM32Cube_FW_N6/Drivers/STM32N6xx_HAL_Driver/Src/stm32n6xx_hal_i2c_ex.c ****   * @param  hi2c Pointer to a I2C_HandleTypeDef structure that contains
 299:STM32Cube_FW_N6/Drivers/STM32N6xx_HAL_Driver/Src/stm32n6xx_hal_i2c_ex.c ****   *                the configuration information for the specified I2Cx peripheral.
 300:STM32Cube_FW_N6/Drivers/STM32N6xx_HAL_Driver/Src/stm32n6xx_hal_i2c_ex.c ****   * @param  FastModePlus New state of the Fast Mode Plus.
 301:STM32Cube_FW_N6/Drivers/STM32N6xx_HAL_Driver/Src/stm32n6xx_hal_i2c_ex.c ****   * @retval HAL status
 302:STM32Cube_FW_N6/Drivers/STM32N6xx_HAL_Driver/Src/stm32n6xx_hal_i2c_ex.c ****   */
 303:STM32Cube_FW_N6/Drivers/STM32N6xx_HAL_Driver/Src/stm32n6xx_hal_i2c_ex.c **** HAL_StatusTypeDef HAL_I2CEx_ConfigFastModePlus(I2C_HandleTypeDef *hi2c, uint32_t FastModePlus)
 304:STM32Cube_FW_N6/Drivers/STM32N6xx_HAL_Driver/Src/stm32n6xx_hal_i2c_ex.c **** {
 747              		.loc 1 304 1
 748              		.cfi_startproc
 749              		@ args = 0, pretend = 0, frame = 8
 750              		@ frame_needed = 1, uses_anonymous_args = 0
 751 0000 80B5     		push	{r7, lr}
 752              		.cfi_def_cfa_offset 8
 753              		.cfi_offset 7, -8
 754              		.cfi_offset 14, -4
 755 0002 82B0     		sub	sp, sp, #8
 756              		.cfi_def_cfa_offset 16
 757 0004 00AF     		add	r7, sp, #0
 758              		.cfi_def_cfa_register 7
 759 0006 7860     		str	r0, [r7, #4]
 760 0008 3960     		str	r1, [r7]
 305:STM32Cube_FW_N6/Drivers/STM32N6xx_HAL_Driver/Src/stm32n6xx_hal_i2c_ex.c ****   /* Check the parameters */
 306:STM32Cube_FW_N6/Drivers/STM32N6xx_HAL_Driver/Src/stm32n6xx_hal_i2c_ex.c ****   assert_param(IS_I2C_ALL_INSTANCE(hi2c->Instance));
 761              		.loc 1 306 3
 762 000a 7B68     		ldr	r3, [r7, #4]
 763 000c 1B68     		ldr	r3, [r3]
 764 000e 3F4A     		ldr	r2, .L39
 765 0010 9342     		cmp	r3, r2
 766 0012 27D0     		beq	.L32
 767              		.loc 1 306 3 is_stmt 0 discriminator 1
 768 0014 7B68     		ldr	r3, [r7, #4]
 769 0016 1B68     		ldr	r3, [r3]
 770 0018 3D4A     		ldr	r2, .L39+4
 771 001a 9342     		cmp	r3, r2
 772 001c 22D0     		beq	.L32
 773              		.loc 1 306 3 discriminator 2
 774 001e 7B68     		ldr	r3, [r7, #4]
 775 0020 1B68     		ldr	r3, [r3]
 776 0022 3C4A     		ldr	r2, .L39+8
 777 0024 9342     		cmp	r3, r2
 778 0026 1DD0     		beq	.L32
ARM GAS  /tmp/cc9usRe3.s 			page 20


 779              		.loc 1 306 3 discriminator 3
 780 0028 7B68     		ldr	r3, [r7, #4]
 781 002a 1B68     		ldr	r3, [r3]
 782 002c 3A4A     		ldr	r2, .L39+12
 783 002e 9342     		cmp	r3, r2
 784 0030 18D0     		beq	.L32
 785              		.loc 1 306 3 discriminator 4
 786 0032 7B68     		ldr	r3, [r7, #4]
 787 0034 1B68     		ldr	r3, [r3]
 788 0036 394A     		ldr	r2, .L39+16
 789 0038 9342     		cmp	r3, r2
 790 003a 13D0     		beq	.L32
 791              		.loc 1 306 3 discriminator 5
 792 003c 7B68     		ldr	r3, [r7, #4]
 793 003e 1B68     		ldr	r3, [r3]
 794 0040 374A     		ldr	r2, .L39+20
 795 0042 9342     		cmp	r3, r2
 796 0044 0ED0     		beq	.L32
 797              		.loc 1 306 3 discriminator 6
 798 0046 7B68     		ldr	r3, [r7, #4]
 799 0048 1B68     		ldr	r3, [r3]
 800 004a 364A     		ldr	r2, .L39+24
 801 004c 9342     		cmp	r3, r2
 802 004e 09D0     		beq	.L32
 803              		.loc 1 306 3 discriminator 7
 804 0050 7B68     		ldr	r3, [r7, #4]
 805 0052 1B68     		ldr	r3, [r3]
 806 0054 344A     		ldr	r2, .L39+28
 807 0056 9342     		cmp	r3, r2
 808 0058 04D0     		beq	.L32
 809              		.loc 1 306 3 discriminator 8
 810 005a 4FF49971 		mov	r1, #306
 811 005e 3348     		ldr	r0, .L39+32
 812 0060 FFF7FEFF 		bl	assert_failed
 813              	.L32:
 307:STM32Cube_FW_N6/Drivers/STM32N6xx_HAL_Driver/Src/stm32n6xx_hal_i2c_ex.c ****   assert_param(IS_I2C_FASTMODEPLUS(FastModePlus));
 814              		.loc 1 307 3 is_stmt 1
 815 0064 3B68     		ldr	r3, [r7]
 816 0066 002B     		cmp	r3, #0
 817 0068 07D0     		beq	.L33
 818              		.loc 1 307 3 is_stmt 0 discriminator 1
 819 006a 3B68     		ldr	r3, [r7]
 820 006c 012B     		cmp	r3, #1
 821 006e 04D0     		beq	.L33
 822              		.loc 1 307 3 discriminator 2
 823 0070 40F23311 		movw	r1, #307
 824 0074 2D48     		ldr	r0, .L39+32
 825 0076 FFF7FEFF 		bl	assert_failed
 826              	.L33:
 308:STM32Cube_FW_N6/Drivers/STM32N6xx_HAL_Driver/Src/stm32n6xx_hal_i2c_ex.c **** 
 309:STM32Cube_FW_N6/Drivers/STM32N6xx_HAL_Driver/Src/stm32n6xx_hal_i2c_ex.c ****   if (hi2c->State == HAL_I2C_STATE_READY)
 827              		.loc 1 309 11 is_stmt 1
 828 007a 7B68     		ldr	r3, [r7, #4]
 829 007c 93F84130 		ldrb	r3, [r3, #65]
 830 0080 DBB2     		uxtb	r3, r3
 831              		.loc 1 309 6
 832 0082 202B     		cmp	r3, #32
ARM GAS  /tmp/cc9usRe3.s 			page 21


 833 0084 3CD1     		bne	.L34
 310:STM32Cube_FW_N6/Drivers/STM32N6xx_HAL_Driver/Src/stm32n6xx_hal_i2c_ex.c ****   {
 311:STM32Cube_FW_N6/Drivers/STM32N6xx_HAL_Driver/Src/stm32n6xx_hal_i2c_ex.c ****     /* Process Locked */
 312:STM32Cube_FW_N6/Drivers/STM32N6xx_HAL_Driver/Src/stm32n6xx_hal_i2c_ex.c ****     __HAL_LOCK(hi2c);
 834              		.loc 1 312 5
 835 0086 7B68     		ldr	r3, [r7, #4]
 836 0088 93F84030 		ldrb	r3, [r3, #64]	@ zero_extendqisi2
 837 008c 012B     		cmp	r3, #1
 838 008e 01D1     		bne	.L35
 839              		.loc 1 312 5 is_stmt 0 discriminator 1
 840 0090 0223     		movs	r3, #2
 841              		.loc 1 312 5
 842 0092 36E0     		b	.L36
 843              	.L35:
 844              		.loc 1 312 5 discriminator 2
 845 0094 7B68     		ldr	r3, [r7, #4]
 846 0096 0122     		movs	r2, #1
 847 0098 83F84020 		strb	r2, [r3, #64]
 313:STM32Cube_FW_N6/Drivers/STM32N6xx_HAL_Driver/Src/stm32n6xx_hal_i2c_ex.c **** 
 314:STM32Cube_FW_N6/Drivers/STM32N6xx_HAL_Driver/Src/stm32n6xx_hal_i2c_ex.c ****     hi2c->State = HAL_I2C_STATE_BUSY;
 848              		.loc 1 314 17 is_stmt 1
 849 009c 7B68     		ldr	r3, [r7, #4]
 850 009e 2422     		movs	r2, #36
 851 00a0 83F84120 		strb	r2, [r3, #65]
 315:STM32Cube_FW_N6/Drivers/STM32N6xx_HAL_Driver/Src/stm32n6xx_hal_i2c_ex.c **** 
 316:STM32Cube_FW_N6/Drivers/STM32N6xx_HAL_Driver/Src/stm32n6xx_hal_i2c_ex.c ****     /* Disable the selected I2C peripheral */
 317:STM32Cube_FW_N6/Drivers/STM32N6xx_HAL_Driver/Src/stm32n6xx_hal_i2c_ex.c ****     __HAL_I2C_DISABLE(hi2c);
 852              		.loc 1 317 5
 853 00a4 7B68     		ldr	r3, [r7, #4]
 854 00a6 1B68     		ldr	r3, [r3]
 855 00a8 1A68     		ldr	r2, [r3]
 856 00aa 7B68     		ldr	r3, [r7, #4]
 857 00ac 1B68     		ldr	r3, [r3]
 858 00ae 22F00102 		bic	r2, r2, #1
 859 00b2 1A60     		str	r2, [r3]
 318:STM32Cube_FW_N6/Drivers/STM32N6xx_HAL_Driver/Src/stm32n6xx_hal_i2c_ex.c **** 
 319:STM32Cube_FW_N6/Drivers/STM32N6xx_HAL_Driver/Src/stm32n6xx_hal_i2c_ex.c ****     if (FastModePlus == I2C_FASTMODEPLUS_ENABLE)
 860              		.loc 1 319 8
 861 00b4 3B68     		ldr	r3, [r7]
 862 00b6 002B     		cmp	r3, #0
 863 00b8 08D1     		bne	.L37
 320:STM32Cube_FW_N6/Drivers/STM32N6xx_HAL_Driver/Src/stm32n6xx_hal_i2c_ex.c ****     {
 321:STM32Cube_FW_N6/Drivers/STM32N6xx_HAL_Driver/Src/stm32n6xx_hal_i2c_ex.c ****       /* Set I2Cx FMP bit */
 322:STM32Cube_FW_N6/Drivers/STM32N6xx_HAL_Driver/Src/stm32n6xx_hal_i2c_ex.c ****       hi2c->Instance->CR1 |= (I2C_CR1_FMP);
 864              		.loc 1 322 11
 865 00ba 7B68     		ldr	r3, [r7, #4]
 866 00bc 1B68     		ldr	r3, [r3]
 867              		.loc 1 322 21
 868 00be 1A68     		ldr	r2, [r3]
 869              		.loc 1 322 11
 870 00c0 7B68     		ldr	r3, [r7, #4]
 871 00c2 1B68     		ldr	r3, [r3]
 872              		.loc 1 322 27
 873 00c4 42F08072 		orr	r2, r2, #16777216
 874 00c8 1A60     		str	r2, [r3]
 875 00ca 07E0     		b	.L38
 876              	.L37:
ARM GAS  /tmp/cc9usRe3.s 			page 22


 323:STM32Cube_FW_N6/Drivers/STM32N6xx_HAL_Driver/Src/stm32n6xx_hal_i2c_ex.c ****     }
 324:STM32Cube_FW_N6/Drivers/STM32N6xx_HAL_Driver/Src/stm32n6xx_hal_i2c_ex.c ****     else
 325:STM32Cube_FW_N6/Drivers/STM32N6xx_HAL_Driver/Src/stm32n6xx_hal_i2c_ex.c ****     {
 326:STM32Cube_FW_N6/Drivers/STM32N6xx_HAL_Driver/Src/stm32n6xx_hal_i2c_ex.c ****       /* Reset I2Cx FMP bit */
 327:STM32Cube_FW_N6/Drivers/STM32N6xx_HAL_Driver/Src/stm32n6xx_hal_i2c_ex.c ****       hi2c->Instance->CR1 &= ~(I2C_CR1_FMP);
 877              		.loc 1 327 11
 878 00cc 7B68     		ldr	r3, [r7, #4]
 879 00ce 1B68     		ldr	r3, [r3]
 880              		.loc 1 327 21
 881 00d0 1A68     		ldr	r2, [r3]
 882              		.loc 1 327 11
 883 00d2 7B68     		ldr	r3, [r7, #4]
 884 00d4 1B68     		ldr	r3, [r3]
 885              		.loc 1 327 27
 886 00d6 22F08072 		bic	r2, r2, #16777216
 887 00da 1A60     		str	r2, [r3]
 888              	.L38:
 328:STM32Cube_FW_N6/Drivers/STM32N6xx_HAL_Driver/Src/stm32n6xx_hal_i2c_ex.c ****     }
 329:STM32Cube_FW_N6/Drivers/STM32N6xx_HAL_Driver/Src/stm32n6xx_hal_i2c_ex.c **** 
 330:STM32Cube_FW_N6/Drivers/STM32N6xx_HAL_Driver/Src/stm32n6xx_hal_i2c_ex.c ****     __HAL_I2C_ENABLE(hi2c);
 889              		.loc 1 330 5
 890 00dc 7B68     		ldr	r3, [r7, #4]
 891 00de 1B68     		ldr	r3, [r3]
 892 00e0 1A68     		ldr	r2, [r3]
 893 00e2 7B68     		ldr	r3, [r7, #4]
 894 00e4 1B68     		ldr	r3, [r3]
 895 00e6 42F00102 		orr	r2, r2, #1
 896 00ea 1A60     		str	r2, [r3]
 331:STM32Cube_FW_N6/Drivers/STM32N6xx_HAL_Driver/Src/stm32n6xx_hal_i2c_ex.c **** 
 332:STM32Cube_FW_N6/Drivers/STM32N6xx_HAL_Driver/Src/stm32n6xx_hal_i2c_ex.c ****     hi2c->State = HAL_I2C_STATE_READY;
 897              		.loc 1 332 17
 898 00ec 7B68     		ldr	r3, [r7, #4]
 899 00ee 2022     		movs	r2, #32
 900 00f0 83F84120 		strb	r2, [r3, #65]
 333:STM32Cube_FW_N6/Drivers/STM32N6xx_HAL_Driver/Src/stm32n6xx_hal_i2c_ex.c **** 
 334:STM32Cube_FW_N6/Drivers/STM32N6xx_HAL_Driver/Src/stm32n6xx_hal_i2c_ex.c ****     /* Process Unlocked */
 335:STM32Cube_FW_N6/Drivers/STM32N6xx_HAL_Driver/Src/stm32n6xx_hal_i2c_ex.c ****     __HAL_UNLOCK(hi2c);
 901              		.loc 1 335 5
 902 00f4 7B68     		ldr	r3, [r7, #4]
 903 00f6 0022     		movs	r2, #0
 904 00f8 83F84020 		strb	r2, [r3, #64]
 336:STM32Cube_FW_N6/Drivers/STM32N6xx_HAL_Driver/Src/stm32n6xx_hal_i2c_ex.c **** 
 337:STM32Cube_FW_N6/Drivers/STM32N6xx_HAL_Driver/Src/stm32n6xx_hal_i2c_ex.c ****     return HAL_OK;
 905              		.loc 1 337 12
 906 00fc 0023     		movs	r3, #0
 907 00fe 00E0     		b	.L36
 908              	.L34:
 338:STM32Cube_FW_N6/Drivers/STM32N6xx_HAL_Driver/Src/stm32n6xx_hal_i2c_ex.c ****   }
 339:STM32Cube_FW_N6/Drivers/STM32N6xx_HAL_Driver/Src/stm32n6xx_hal_i2c_ex.c ****   else
 340:STM32Cube_FW_N6/Drivers/STM32N6xx_HAL_Driver/Src/stm32n6xx_hal_i2c_ex.c ****   {
 341:STM32Cube_FW_N6/Drivers/STM32N6xx_HAL_Driver/Src/stm32n6xx_hal_i2c_ex.c ****     return HAL_BUSY;
 909              		.loc 1 341 12
 910 0100 0223     		movs	r3, #2
 911              	.L36:
 342:STM32Cube_FW_N6/Drivers/STM32N6xx_HAL_Driver/Src/stm32n6xx_hal_i2c_ex.c ****   }
 343:STM32Cube_FW_N6/Drivers/STM32N6xx_HAL_Driver/Src/stm32n6xx_hal_i2c_ex.c **** }
 912              		.loc 1 343 1
ARM GAS  /tmp/cc9usRe3.s 			page 23


 913 0102 1846     		mov	r0, r3
 914 0104 0837     		adds	r7, r7, #8
 915              		.cfi_def_cfa_offset 8
 916 0106 BD46     		mov	sp, r7
 917              		.cfi_def_cfa_register 13
 918              		@ sp needed
 919 0108 80BD     		pop	{r7, pc}
 920              	.L40:
 921 010a 00BF     		.align	2
 922              	.L39:
 923 010c 00540050 		.word	1342198784
 924 0110 00540040 		.word	1073763328
 925 0114 00580050 		.word	1342199808
 926 0118 00580040 		.word	1073764352
 927 011c 005C0050 		.word	1342200832
 928 0120 005C0040 		.word	1073765376
 929 0124 001C0056 		.word	1442847744
 930 0128 001C0046 		.word	1174412288
 931 012c 00000000 		.word	.LC0
 932              		.cfi_endproc
 933              	.LFE839:
 935              		.text
 936              	.Letext0:
 937              		.file 2 "/home/tanjiajun2002/renesas/rzv/e2studio_v2025-01_fsp_v3.1.0/toolchains/gcc_arm/arm-gnu-t
 938              		.file 3 "/home/tanjiajun2002/renesas/rzv/e2studio_v2025-01_fsp_v3.1.0/toolchains/gcc_arm/arm-gnu-t
 939              		.file 4 "STM32Cube_FW_N6/Drivers/CMSIS/Device/ST/STM32N6xx/Include/stm32n657xx.h"
 940              		.file 5 "STM32Cube_FW_N6/Drivers/STM32N6xx_HAL_Driver/Inc/stm32n6xx_hal_def.h"
 941              		.file 6 "STM32Cube_FW_N6/Drivers/STM32N6xx_HAL_Driver/Inc/stm32n6xx_hal_dma.h"
 942              		.file 7 "STM32Cube_FW_N6/Drivers/STM32N6xx_HAL_Driver/Inc/stm32n6xx_hal_dma_ex.h"
 943              		.file 8 "STM32Cube_FW_N6/Drivers/STM32N6xx_HAL_Driver/Inc/stm32n6xx_hal_i2c.h"
 944              		.file 9 "Inc/stm32n6xx_hal_conf.h"
ARM GAS  /tmp/cc9usRe3.s 			page 24

