ARM GAS  /tmp/ccTFOe4z.s 			page 1


   1              		.arch armv8.1-m.main
   2              		.fpu fpv5-d16
   3              		.arch_extension dsp
   4              		.arch_extension fp
   5              		.arch_extension fp.dp
   6              		.arch_extension mve
   7              		.arch_extension mve.fp
   8              		.eabi_attribute 5, "cortex-m55"
   9              		.eabi_attribute 28, 1
  10              		.eabi_attribute 20, 1
  11              		.eabi_attribute 21, 1
  12              		.eabi_attribute 23, 3
  13              		.eabi_attribute 24, 1
  14              		.eabi_attribute 25, 1
  15              		.eabi_attribute 26, 1
  16              		.eabi_attribute 30, 6
  17              		.eabi_attribute 34, 1
  18              		.eabi_attribute 38, 1
  19              		.eabi_attribute 18, 4
  20              		.file	"tasks.c"
  21              		.text
  22              	.Ltext0:
  23              		.cfi_sections	.debug_frame
  24              		.file 1 "Lib/FreeRTOS/Source/tasks.c"
  25              		.global	pxCurrentTCB
  26              		.section	.bss.pxCurrentTCB,"aw",%nobits
  27              		.align	2
  30              	pxCurrentTCB:
  31 0000 00000000 		.space	4
  32              		.section	.bss.pxReadyTasksLists,"aw",%nobits
  33              		.align	2
  36              	pxReadyTasksLists:
  37 0000 00000000 		.space	1120
  37      00000000 
  37      00000000 
  37      00000000 
  37      00000000 
  38              		.section	.bss.xDelayedTaskList1,"aw",%nobits
  39              		.align	2
  42              	xDelayedTaskList1:
  43 0000 00000000 		.space	20
  43      00000000 
  43      00000000 
  43      00000000 
  43      00000000 
  44              		.section	.bss.xDelayedTaskList2,"aw",%nobits
  45              		.align	2
  48              	xDelayedTaskList2:
  49 0000 00000000 		.space	20
  49      00000000 
  49      00000000 
  49      00000000 
  49      00000000 
  50              		.section	.bss.pxDelayedTaskList,"aw",%nobits
  51              		.align	2
  54              	pxDelayedTaskList:
  55 0000 00000000 		.space	4
ARM GAS  /tmp/ccTFOe4z.s 			page 2


  56              		.section	.bss.pxOverflowDelayedTaskList,"aw",%nobits
  57              		.align	2
  60              	pxOverflowDelayedTaskList:
  61 0000 00000000 		.space	4
  62              		.section	.bss.xPendingReadyList,"aw",%nobits
  63              		.align	2
  66              	xPendingReadyList:
  67 0000 00000000 		.space	20
  67      00000000 
  67      00000000 
  67      00000000 
  67      00000000 
  68              		.section	.bss.xTasksWaitingTermination,"aw",%nobits
  69              		.align	2
  72              	xTasksWaitingTermination:
  73 0000 00000000 		.space	20
  73      00000000 
  73      00000000 
  73      00000000 
  73      00000000 
  74              		.section	.bss.uxDeletedTasksWaitingCleanUp,"aw",%nobits
  75              		.align	2
  78              	uxDeletedTasksWaitingCleanUp:
  79 0000 00000000 		.space	4
  80              		.section	.bss.xSuspendedTaskList,"aw",%nobits
  81              		.align	2
  84              	xSuspendedTaskList:
  85 0000 00000000 		.space	20
  85      00000000 
  85      00000000 
  85      00000000 
  85      00000000 
  86              		.section	.bss.uxCurrentNumberOfTasks,"aw",%nobits
  87              		.align	2
  90              	uxCurrentNumberOfTasks:
  91 0000 00000000 		.space	4
  92              		.section	.bss.xTickCount,"aw",%nobits
  93              		.align	2
  96              	xTickCount:
  97 0000 00000000 		.space	4
  98              		.section	.bss.uxTopReadyPriority,"aw",%nobits
  99              		.align	2
 102              	uxTopReadyPriority:
 103 0000 00000000 		.space	4
 104              		.section	.bss.xSchedulerRunning,"aw",%nobits
 105              		.align	2
 108              	xSchedulerRunning:
 109 0000 00000000 		.space	4
 110              		.section	.bss.xPendedTicks,"aw",%nobits
 111              		.align	2
 114              	xPendedTicks:
 115 0000 00000000 		.space	4
 116              		.section	.bss.xYieldPending,"aw",%nobits
 117              		.align	2
 120              	xYieldPending:
 121 0000 00000000 		.space	4
 122              		.section	.bss.xNumOfOverflows,"aw",%nobits
ARM GAS  /tmp/ccTFOe4z.s 			page 3


 123              		.align	2
 126              	xNumOfOverflows:
 127 0000 00000000 		.space	4
 128              		.section	.bss.uxTaskNumber,"aw",%nobits
 129              		.align	2
 132              	uxTaskNumber:
 133 0000 00000000 		.space	4
 134              		.section	.bss.xNextTaskUnblockTime,"aw",%nobits
 135              		.align	2
 138              	xNextTaskUnblockTime:
 139 0000 00000000 		.space	4
 140              		.section	.bss.xIdleTaskHandle,"aw",%nobits
 141              		.align	2
 144              	xIdleTaskHandle:
 145 0000 00000000 		.space	4
 146              		.global	uxTopUsedPriority
 147              		.section	.rodata.uxTopUsedPriority,"a"
 148              		.align	2
 151              	uxTopUsedPriority:
 152 0000 37000000 		.word	55
 153              		.section	.bss.uxSchedulerSuspended,"aw",%nobits
 154              		.align	2
 157              	uxSchedulerSuspended:
 158 0000 00000000 		.space	4
 159              		.section	.bss.ulTaskSwitchedInTime,"aw",%nobits
 160              		.align	2
 163              	ulTaskSwitchedInTime:
 164 0000 00000000 		.space	4
 165              		.section	.bss.ulTotalRunTime,"aw",%nobits
 166              		.align	2
 169              	ulTotalRunTime:
 170 0000 00000000 		.space	4
 171              		.section	.rodata
 172              		.align	2
 173              	.LC0:
 174 0000 3000     		.ascii	"0\000"
 175 0002 0000     		.align	2
 176              	.LC1:
 177 0004 4C69622F 		.ascii	"Lib/FreeRTOS/Source/tasks.c\000"
 177      46726565 
 177      52544F53 
 177      2F536F75 
 177      7263652F 
 178              		.section	.text.xTaskCreateStatic,"ax",%progbits
 179              		.align	1
 180              		.global	xTaskCreateStatic
 181              		.syntax unified
 182              		.thumb
 183              		.thumb_func
 185              	xTaskCreateStatic:
 186              	.LFB0:
   1:Lib/FreeRTOS/Source/tasks.c **** /*
   2:Lib/FreeRTOS/Source/tasks.c ****  * FreeRTOS Kernel V10.6.2
   3:Lib/FreeRTOS/Source/tasks.c ****  * Copyright (C) 2021 Amazon.com, Inc. or its affiliates.  All Rights Reserved.
   4:Lib/FreeRTOS/Source/tasks.c ****  *
   5:Lib/FreeRTOS/Source/tasks.c ****  * SPDX-License-Identifier: MIT
   6:Lib/FreeRTOS/Source/tasks.c ****  *
ARM GAS  /tmp/ccTFOe4z.s 			page 4


   7:Lib/FreeRTOS/Source/tasks.c ****  * Permission is hereby granted, free of charge, to any person obtaining a copy of
   8:Lib/FreeRTOS/Source/tasks.c ****  * this software and associated documentation files (the "Software"), to deal in
   9:Lib/FreeRTOS/Source/tasks.c ****  * the Software without restriction, including without limitation the rights to
  10:Lib/FreeRTOS/Source/tasks.c ****  * use, copy, modify, merge, publish, distribute, sublicense, and/or sell copies of
  11:Lib/FreeRTOS/Source/tasks.c ****  * the Software, and to permit persons to whom the Software is furnished to do so,
  12:Lib/FreeRTOS/Source/tasks.c ****  * subject to the following conditions:
  13:Lib/FreeRTOS/Source/tasks.c ****  *
  14:Lib/FreeRTOS/Source/tasks.c ****  * The above copyright notice and this permission notice shall be included in all
  15:Lib/FreeRTOS/Source/tasks.c ****  * copies or substantial portions of the Software.
  16:Lib/FreeRTOS/Source/tasks.c ****  *
  17:Lib/FreeRTOS/Source/tasks.c ****  * THE SOFTWARE IS PROVIDED "AS IS", WITHOUT WARRANTY OF ANY KIND, EXPRESS OR
  18:Lib/FreeRTOS/Source/tasks.c ****  * IMPLIED, INCLUDING BUT NOT LIMITED TO THE WARRANTIES OF MERCHANTABILITY, FITNESS
  19:Lib/FreeRTOS/Source/tasks.c ****  * FOR A PARTICULAR PURPOSE AND NONINFRINGEMENT. IN NO EVENT SHALL THE AUTHORS OR
  20:Lib/FreeRTOS/Source/tasks.c ****  * COPYRIGHT HOLDERS BE LIABLE FOR ANY CLAIM, DAMAGES OR OTHER LIABILITY, WHETHER
  21:Lib/FreeRTOS/Source/tasks.c ****  * IN AN ACTION OF CONTRACT, TORT OR OTHERWISE, ARISING FROM, OUT OF OR IN
  22:Lib/FreeRTOS/Source/tasks.c ****  * CONNECTION WITH THE SOFTWARE OR THE USE OR OTHER DEALINGS IN THE SOFTWARE.
  23:Lib/FreeRTOS/Source/tasks.c ****  *
  24:Lib/FreeRTOS/Source/tasks.c ****  * https://www.FreeRTOS.org
  25:Lib/FreeRTOS/Source/tasks.c ****  * https://github.com/FreeRTOS
  26:Lib/FreeRTOS/Source/tasks.c ****  *
  27:Lib/FreeRTOS/Source/tasks.c ****  */
  28:Lib/FreeRTOS/Source/tasks.c **** 
  29:Lib/FreeRTOS/Source/tasks.c **** /* Standard includes. */
  30:Lib/FreeRTOS/Source/tasks.c **** #include <stdlib.h>
  31:Lib/FreeRTOS/Source/tasks.c **** #include <string.h>
  32:Lib/FreeRTOS/Source/tasks.c **** 
  33:Lib/FreeRTOS/Source/tasks.c **** /* Defining MPU_WRAPPERS_INCLUDED_FROM_API_FILE prevents task.h from redefining
  34:Lib/FreeRTOS/Source/tasks.c ****  * all the API functions to use the MPU wrappers.  That should only be done when
  35:Lib/FreeRTOS/Source/tasks.c ****  * task.h is included from an application file. */
  36:Lib/FreeRTOS/Source/tasks.c **** #define MPU_WRAPPERS_INCLUDED_FROM_API_FILE
  37:Lib/FreeRTOS/Source/tasks.c **** 
  38:Lib/FreeRTOS/Source/tasks.c **** /* FreeRTOS includes. */
  39:Lib/FreeRTOS/Source/tasks.c **** #include "FreeRTOS.h"
  40:Lib/FreeRTOS/Source/tasks.c **** #include "task.h"
  41:Lib/FreeRTOS/Source/tasks.c **** #include "timers.h"
  42:Lib/FreeRTOS/Source/tasks.c **** #include "stack_macros.h"
  43:Lib/FreeRTOS/Source/tasks.c **** 
  44:Lib/FreeRTOS/Source/tasks.c **** /* Lint e9021, e961 and e750 are suppressed as a MISRA exception justified
  45:Lib/FreeRTOS/Source/tasks.c ****  * because the MPU ports require MPU_WRAPPERS_INCLUDED_FROM_API_FILE to be defined
  46:Lib/FreeRTOS/Source/tasks.c ****  * for the header files above, but not in this file, in order to generate the
  47:Lib/FreeRTOS/Source/tasks.c ****  * correct privileged Vs unprivileged linkage and placement. */
  48:Lib/FreeRTOS/Source/tasks.c **** #undef MPU_WRAPPERS_INCLUDED_FROM_API_FILE /*lint !e961 !e750 !e9021. */
  49:Lib/FreeRTOS/Source/tasks.c **** 
  50:Lib/FreeRTOS/Source/tasks.c **** /* Set configUSE_STATS_FORMATTING_FUNCTIONS to 2 to include the stats formatting
  51:Lib/FreeRTOS/Source/tasks.c ****  * functions but without including stdio.h here. */
  52:Lib/FreeRTOS/Source/tasks.c **** #if ( configUSE_STATS_FORMATTING_FUNCTIONS == 1 )
  53:Lib/FreeRTOS/Source/tasks.c **** 
  54:Lib/FreeRTOS/Source/tasks.c **** /* At the bottom of this file are two optional functions that can be used
  55:Lib/FreeRTOS/Source/tasks.c ****  * to generate human readable text from the raw data generated by the
  56:Lib/FreeRTOS/Source/tasks.c ****  * uxTaskGetSystemState() function.  Note the formatting functions are provided
  57:Lib/FreeRTOS/Source/tasks.c ****  * for convenience only, and are NOT considered part of the kernel. */
  58:Lib/FreeRTOS/Source/tasks.c ****     #include <stdio.h>
  59:Lib/FreeRTOS/Source/tasks.c **** #endif /* configUSE_STATS_FORMATTING_FUNCTIONS == 1 ) */
  60:Lib/FreeRTOS/Source/tasks.c **** 
  61:Lib/FreeRTOS/Source/tasks.c **** #if ( configUSE_PREEMPTION == 0 )
  62:Lib/FreeRTOS/Source/tasks.c **** 
  63:Lib/FreeRTOS/Source/tasks.c **** /* If the cooperative scheduler is being used then a yield should not be
ARM GAS  /tmp/ccTFOe4z.s 			page 5


  64:Lib/FreeRTOS/Source/tasks.c ****  * performed just because a higher priority task has been woken. */
  65:Lib/FreeRTOS/Source/tasks.c ****     #define taskYIELD_IF_USING_PREEMPTION()
  66:Lib/FreeRTOS/Source/tasks.c **** #else
  67:Lib/FreeRTOS/Source/tasks.c ****     #define taskYIELD_IF_USING_PREEMPTION()    portYIELD_WITHIN_API()
  68:Lib/FreeRTOS/Source/tasks.c **** #endif
  69:Lib/FreeRTOS/Source/tasks.c **** 
  70:Lib/FreeRTOS/Source/tasks.c **** /* Values that can be assigned to the ucNotifyState member of the TCB. */
  71:Lib/FreeRTOS/Source/tasks.c **** #define taskNOT_WAITING_NOTIFICATION              ( ( uint8_t ) 0 ) /* Must be zero as it is the in
  72:Lib/FreeRTOS/Source/tasks.c **** #define taskWAITING_NOTIFICATION                  ( ( uint8_t ) 1 )
  73:Lib/FreeRTOS/Source/tasks.c **** #define taskNOTIFICATION_RECEIVED                 ( ( uint8_t ) 2 )
  74:Lib/FreeRTOS/Source/tasks.c **** 
  75:Lib/FreeRTOS/Source/tasks.c **** /*
  76:Lib/FreeRTOS/Source/tasks.c ****  * The value used to fill the stack of a task when the task is created.  This
  77:Lib/FreeRTOS/Source/tasks.c ****  * is used purely for checking the high water mark for tasks.
  78:Lib/FreeRTOS/Source/tasks.c ****  */
  79:Lib/FreeRTOS/Source/tasks.c **** #define tskSTACK_FILL_BYTE                        ( 0xa5U )
  80:Lib/FreeRTOS/Source/tasks.c **** 
  81:Lib/FreeRTOS/Source/tasks.c **** /* Bits used to record how a task's stack and TCB were allocated. */
  82:Lib/FreeRTOS/Source/tasks.c **** #define tskDYNAMICALLY_ALLOCATED_STACK_AND_TCB    ( ( uint8_t ) 0 )
  83:Lib/FreeRTOS/Source/tasks.c **** #define tskSTATICALLY_ALLOCATED_STACK_ONLY        ( ( uint8_t ) 1 )
  84:Lib/FreeRTOS/Source/tasks.c **** #define tskSTATICALLY_ALLOCATED_STACK_AND_TCB     ( ( uint8_t ) 2 )
  85:Lib/FreeRTOS/Source/tasks.c **** 
  86:Lib/FreeRTOS/Source/tasks.c **** /* If any of the following are set then task stacks are filled with a known
  87:Lib/FreeRTOS/Source/tasks.c ****  * value so the high water mark can be determined.  If none of the following are
  88:Lib/FreeRTOS/Source/tasks.c ****  * set then don't fill the stack so there is no unnecessary dependency on memset. */
  89:Lib/FreeRTOS/Source/tasks.c **** #if ( ( configCHECK_FOR_STACK_OVERFLOW > 1 ) || ( configUSE_TRACE_FACILITY == 1 ) || ( INCLUDE_uxTa
  90:Lib/FreeRTOS/Source/tasks.c ****     #define tskSET_NEW_STACKS_TO_KNOWN_VALUE    1
  91:Lib/FreeRTOS/Source/tasks.c **** #else
  92:Lib/FreeRTOS/Source/tasks.c ****     #define tskSET_NEW_STACKS_TO_KNOWN_VALUE    0
  93:Lib/FreeRTOS/Source/tasks.c **** #endif
  94:Lib/FreeRTOS/Source/tasks.c **** 
  95:Lib/FreeRTOS/Source/tasks.c **** /*
  96:Lib/FreeRTOS/Source/tasks.c ****  * Macros used by vListTask to indicate which state a task is in.
  97:Lib/FreeRTOS/Source/tasks.c ****  */
  98:Lib/FreeRTOS/Source/tasks.c **** #define tskRUNNING_CHAR      ( 'X' )
  99:Lib/FreeRTOS/Source/tasks.c **** #define tskBLOCKED_CHAR      ( 'B' )
 100:Lib/FreeRTOS/Source/tasks.c **** #define tskREADY_CHAR        ( 'R' )
 101:Lib/FreeRTOS/Source/tasks.c **** #define tskDELETED_CHAR      ( 'D' )
 102:Lib/FreeRTOS/Source/tasks.c **** #define tskSUSPENDED_CHAR    ( 'S' )
 103:Lib/FreeRTOS/Source/tasks.c **** 
 104:Lib/FreeRTOS/Source/tasks.c **** /*
 105:Lib/FreeRTOS/Source/tasks.c ****  * Some kernel aware debuggers require the data the debugger needs access to to
 106:Lib/FreeRTOS/Source/tasks.c ****  * be global, rather than file scope.
 107:Lib/FreeRTOS/Source/tasks.c ****  */
 108:Lib/FreeRTOS/Source/tasks.c **** #ifdef portREMOVE_STATIC_QUALIFIER
 109:Lib/FreeRTOS/Source/tasks.c ****     #define static
 110:Lib/FreeRTOS/Source/tasks.c **** #endif
 111:Lib/FreeRTOS/Source/tasks.c **** 
 112:Lib/FreeRTOS/Source/tasks.c **** /* The name allocated to the Idle task.  This can be overridden by defining
 113:Lib/FreeRTOS/Source/tasks.c ****  * configIDLE_TASK_NAME in FreeRTOSConfig.h. */
 114:Lib/FreeRTOS/Source/tasks.c **** #ifndef configIDLE_TASK_NAME
 115:Lib/FreeRTOS/Source/tasks.c ****     #define configIDLE_TASK_NAME    "IDLE"
 116:Lib/FreeRTOS/Source/tasks.c **** #endif
 117:Lib/FreeRTOS/Source/tasks.c **** 
 118:Lib/FreeRTOS/Source/tasks.c **** #if ( configUSE_PORT_OPTIMISED_TASK_SELECTION == 0 )
 119:Lib/FreeRTOS/Source/tasks.c **** 
 120:Lib/FreeRTOS/Source/tasks.c **** /* If configUSE_PORT_OPTIMISED_TASK_SELECTION is 0 then task selection is
ARM GAS  /tmp/ccTFOe4z.s 			page 6


 121:Lib/FreeRTOS/Source/tasks.c ****  * performed in a generic way that is not optimised to any particular
 122:Lib/FreeRTOS/Source/tasks.c ****  * microcontroller architecture. */
 123:Lib/FreeRTOS/Source/tasks.c **** 
 124:Lib/FreeRTOS/Source/tasks.c **** /* uxTopReadyPriority holds the priority of the highest priority ready
 125:Lib/FreeRTOS/Source/tasks.c ****  * state task. */
 126:Lib/FreeRTOS/Source/tasks.c ****     #define taskRECORD_READY_PRIORITY( uxPriority ) \
 127:Lib/FreeRTOS/Source/tasks.c ****     do {                                            \
 128:Lib/FreeRTOS/Source/tasks.c ****         if( ( uxPriority ) > uxTopReadyPriority )   \
 129:Lib/FreeRTOS/Source/tasks.c ****         {                                           \
 130:Lib/FreeRTOS/Source/tasks.c ****             uxTopReadyPriority = ( uxPriority );    \
 131:Lib/FreeRTOS/Source/tasks.c ****         }                                           \
 132:Lib/FreeRTOS/Source/tasks.c ****     } while( 0 ) /* taskRECORD_READY_PRIORITY */
 133:Lib/FreeRTOS/Source/tasks.c **** 
 134:Lib/FreeRTOS/Source/tasks.c **** /*-----------------------------------------------------------*/
 135:Lib/FreeRTOS/Source/tasks.c **** 
 136:Lib/FreeRTOS/Source/tasks.c ****     #define taskSELECT_HIGHEST_PRIORITY_TASK()                                \
 137:Lib/FreeRTOS/Source/tasks.c ****     do {                                                                      \
 138:Lib/FreeRTOS/Source/tasks.c ****         UBaseType_t uxTopPriority = uxTopReadyPriority;                       \
 139:Lib/FreeRTOS/Source/tasks.c ****                                                                               \
 140:Lib/FreeRTOS/Source/tasks.c ****         /* Find the highest priority queue that contains ready tasks. */      \
 141:Lib/FreeRTOS/Source/tasks.c ****         while( listLIST_IS_EMPTY( &( pxReadyTasksLists[ uxTopPriority ] ) ) ) \
 142:Lib/FreeRTOS/Source/tasks.c ****         {                                                                     \
 143:Lib/FreeRTOS/Source/tasks.c ****             configASSERT( uxTopPriority );                                    \
 144:Lib/FreeRTOS/Source/tasks.c ****             --uxTopPriority;                                                  \
 145:Lib/FreeRTOS/Source/tasks.c ****         }                                                                     \
 146:Lib/FreeRTOS/Source/tasks.c ****                                                                               \
 147:Lib/FreeRTOS/Source/tasks.c ****         /* listGET_OWNER_OF_NEXT_ENTRY indexes through the list, so the tasks of \
 148:Lib/FreeRTOS/Source/tasks.c ****          * the  same priority get an equal share of the processor time. */                    \
 149:Lib/FreeRTOS/Source/tasks.c ****         listGET_OWNER_OF_NEXT_ENTRY( pxCurrentTCB, &( pxReadyTasksLists[ uxTopPriority ] ) ); \
 150:Lib/FreeRTOS/Source/tasks.c ****         uxTopReadyPriority = uxTopPriority;                                                   \
 151:Lib/FreeRTOS/Source/tasks.c ****     } while( 0 ) /* taskSELECT_HIGHEST_PRIORITY_TASK */
 152:Lib/FreeRTOS/Source/tasks.c **** 
 153:Lib/FreeRTOS/Source/tasks.c **** /*-----------------------------------------------------------*/
 154:Lib/FreeRTOS/Source/tasks.c **** 
 155:Lib/FreeRTOS/Source/tasks.c **** /* Define away taskRESET_READY_PRIORITY() and portRESET_READY_PRIORITY() as
 156:Lib/FreeRTOS/Source/tasks.c ****  * they are only required when a port optimised method of task selection is
 157:Lib/FreeRTOS/Source/tasks.c ****  * being used. */
 158:Lib/FreeRTOS/Source/tasks.c ****     #define taskRESET_READY_PRIORITY( uxPriority )
 159:Lib/FreeRTOS/Source/tasks.c ****     #define portRESET_READY_PRIORITY( uxPriority, uxTopReadyPriority )
 160:Lib/FreeRTOS/Source/tasks.c **** 
 161:Lib/FreeRTOS/Source/tasks.c **** #else /* configUSE_PORT_OPTIMISED_TASK_SELECTION */
 162:Lib/FreeRTOS/Source/tasks.c **** 
 163:Lib/FreeRTOS/Source/tasks.c **** /* If configUSE_PORT_OPTIMISED_TASK_SELECTION is 1 then task selection is
 164:Lib/FreeRTOS/Source/tasks.c ****  * performed in a way that is tailored to the particular microcontroller
 165:Lib/FreeRTOS/Source/tasks.c ****  * architecture being used. */
 166:Lib/FreeRTOS/Source/tasks.c **** 
 167:Lib/FreeRTOS/Source/tasks.c **** /* A port optimised version is provided.  Call the port defined macros. */
 168:Lib/FreeRTOS/Source/tasks.c ****     #define taskRECORD_READY_PRIORITY( uxPriority )    portRECORD_READY_PRIORITY( ( uxPriority ), u
 169:Lib/FreeRTOS/Source/tasks.c **** 
 170:Lib/FreeRTOS/Source/tasks.c **** /*-----------------------------------------------------------*/
 171:Lib/FreeRTOS/Source/tasks.c **** 
 172:Lib/FreeRTOS/Source/tasks.c ****     #define taskSELECT_HIGHEST_PRIORITY_TASK()                                                  \
 173:Lib/FreeRTOS/Source/tasks.c ****     do {                                                                                        \
 174:Lib/FreeRTOS/Source/tasks.c ****         UBaseType_t uxTopPriority;                                                              \
 175:Lib/FreeRTOS/Source/tasks.c ****                                                                                                 \
 176:Lib/FreeRTOS/Source/tasks.c ****         /* Find the highest priority list that contains ready tasks. */                         \
 177:Lib/FreeRTOS/Source/tasks.c ****         portGET_HIGHEST_PRIORITY( uxTopPriority, uxTopReadyPriority );                          \
ARM GAS  /tmp/ccTFOe4z.s 			page 7


 178:Lib/FreeRTOS/Source/tasks.c ****         configASSERT( listCURRENT_LIST_LENGTH( &( pxReadyTasksLists[ uxTopPriority ] ) ) > 0 ); \
 179:Lib/FreeRTOS/Source/tasks.c ****         listGET_OWNER_OF_NEXT_ENTRY( pxCurrentTCB, &( pxReadyTasksLists[ uxTopPriority ] ) );   \
 180:Lib/FreeRTOS/Source/tasks.c ****     } while( 0 )
 181:Lib/FreeRTOS/Source/tasks.c **** 
 182:Lib/FreeRTOS/Source/tasks.c **** /*-----------------------------------------------------------*/
 183:Lib/FreeRTOS/Source/tasks.c **** 
 184:Lib/FreeRTOS/Source/tasks.c **** /* A port optimised version is provided, call it only if the TCB being reset
 185:Lib/FreeRTOS/Source/tasks.c ****  * is being referenced from a ready list.  If it is referenced from a delayed
 186:Lib/FreeRTOS/Source/tasks.c ****  * or suspended list then it won't be in a ready list. */
 187:Lib/FreeRTOS/Source/tasks.c ****     #define taskRESET_READY_PRIORITY( uxPriority )                                                 
 188:Lib/FreeRTOS/Source/tasks.c ****     do {                                                                                           
 189:Lib/FreeRTOS/Source/tasks.c ****         if( listCURRENT_LIST_LENGTH( &( pxReadyTasksLists[ ( uxPriority ) ] ) ) == ( UBaseType_t ) 
 190:Lib/FreeRTOS/Source/tasks.c ****         {                                                                                          
 191:Lib/FreeRTOS/Source/tasks.c ****             portRESET_READY_PRIORITY( ( uxPriority ), ( uxTopReadyPriority ) );                    
 192:Lib/FreeRTOS/Source/tasks.c ****         }                                                                                          
 193:Lib/FreeRTOS/Source/tasks.c ****     } while( 0 )
 194:Lib/FreeRTOS/Source/tasks.c **** 
 195:Lib/FreeRTOS/Source/tasks.c **** #endif /* configUSE_PORT_OPTIMISED_TASK_SELECTION */
 196:Lib/FreeRTOS/Source/tasks.c **** 
 197:Lib/FreeRTOS/Source/tasks.c **** /*-----------------------------------------------------------*/
 198:Lib/FreeRTOS/Source/tasks.c **** 
 199:Lib/FreeRTOS/Source/tasks.c **** /* pxDelayedTaskList and pxOverflowDelayedTaskList are switched when the tick
 200:Lib/FreeRTOS/Source/tasks.c ****  * count overflows. */
 201:Lib/FreeRTOS/Source/tasks.c **** #define taskSWITCH_DELAYED_LISTS()                                                \
 202:Lib/FreeRTOS/Source/tasks.c ****     do {                                                                          \
 203:Lib/FreeRTOS/Source/tasks.c ****         List_t * pxTemp;                                                          \
 204:Lib/FreeRTOS/Source/tasks.c ****                                                                                   \
 205:Lib/FreeRTOS/Source/tasks.c ****         /* The delayed tasks list should be empty when the lists are switched. */ \
 206:Lib/FreeRTOS/Source/tasks.c ****         configASSERT( ( listLIST_IS_EMPTY( pxDelayedTaskList ) ) );               \
 207:Lib/FreeRTOS/Source/tasks.c ****                                                                                   \
 208:Lib/FreeRTOS/Source/tasks.c ****         pxTemp = pxDelayedTaskList;                                               \
 209:Lib/FreeRTOS/Source/tasks.c ****         pxDelayedTaskList = pxOverflowDelayedTaskList;                            \
 210:Lib/FreeRTOS/Source/tasks.c ****         pxOverflowDelayedTaskList = pxTemp;                                       \
 211:Lib/FreeRTOS/Source/tasks.c ****         xNumOfOverflows++;                                                        \
 212:Lib/FreeRTOS/Source/tasks.c ****         prvResetNextTaskUnblockTime();                                            \
 213:Lib/FreeRTOS/Source/tasks.c ****     } while( 0 )
 214:Lib/FreeRTOS/Source/tasks.c **** 
 215:Lib/FreeRTOS/Source/tasks.c **** /*-----------------------------------------------------------*/
 216:Lib/FreeRTOS/Source/tasks.c **** 
 217:Lib/FreeRTOS/Source/tasks.c **** /*
 218:Lib/FreeRTOS/Source/tasks.c ****  * Place the task represented by pxTCB into the appropriate ready list for
 219:Lib/FreeRTOS/Source/tasks.c ****  * the task.  It is inserted at the end of the list.
 220:Lib/FreeRTOS/Source/tasks.c ****  */
 221:Lib/FreeRTOS/Source/tasks.c **** #define prvAddTaskToReadyList( pxTCB )                                                             
 222:Lib/FreeRTOS/Source/tasks.c ****     do {                                                                                           
 223:Lib/FreeRTOS/Source/tasks.c ****         traceMOVED_TASK_TO_READY_STATE( pxTCB );                                                   
 224:Lib/FreeRTOS/Source/tasks.c ****         taskRECORD_READY_PRIORITY( ( pxTCB )->uxPriority );                                        
 225:Lib/FreeRTOS/Source/tasks.c ****         listINSERT_END( &( pxReadyTasksLists[ ( pxTCB )->uxPriority ] ), &( ( pxTCB )->xStateListIt
 226:Lib/FreeRTOS/Source/tasks.c ****         tracePOST_MOVED_TASK_TO_READY_STATE( pxTCB );                                              
 227:Lib/FreeRTOS/Source/tasks.c ****     } while( 0 )
 228:Lib/FreeRTOS/Source/tasks.c **** /*-----------------------------------------------------------*/
 229:Lib/FreeRTOS/Source/tasks.c **** 
 230:Lib/FreeRTOS/Source/tasks.c **** /*
 231:Lib/FreeRTOS/Source/tasks.c ****  * Several functions take a TaskHandle_t parameter that can optionally be NULL,
 232:Lib/FreeRTOS/Source/tasks.c ****  * where NULL is used to indicate that the handle of the currently executing
 233:Lib/FreeRTOS/Source/tasks.c ****  * task should be used in place of the parameter.  This macro simply checks to
 234:Lib/FreeRTOS/Source/tasks.c ****  * see if the parameter is NULL and returns a pointer to the appropriate TCB.
ARM GAS  /tmp/ccTFOe4z.s 			page 8


 235:Lib/FreeRTOS/Source/tasks.c ****  */
 236:Lib/FreeRTOS/Source/tasks.c **** #define prvGetTCBFromHandle( pxHandle )    ( ( ( pxHandle ) == NULL ) ? pxCurrentTCB : ( pxHandle )
 237:Lib/FreeRTOS/Source/tasks.c **** 
 238:Lib/FreeRTOS/Source/tasks.c **** /* The item value of the event list item is normally used to hold the priority
 239:Lib/FreeRTOS/Source/tasks.c ****  * of the task to which it belongs (coded to allow it to be held in reverse
 240:Lib/FreeRTOS/Source/tasks.c ****  * priority order).  However, it is occasionally borrowed for other purposes.  It
 241:Lib/FreeRTOS/Source/tasks.c ****  * is important its value is not updated due to a task priority change while it is
 242:Lib/FreeRTOS/Source/tasks.c ****  * being used for another purpose.  The following bit definition is used to inform
 243:Lib/FreeRTOS/Source/tasks.c ****  * the scheduler that the value should not be changed - in which case it is the
 244:Lib/FreeRTOS/Source/tasks.c ****  * responsibility of whichever module is using the value to ensure it gets set back
 245:Lib/FreeRTOS/Source/tasks.c ****  * to its original value when it is released. */
 246:Lib/FreeRTOS/Source/tasks.c **** #if ( configTICK_TYPE_WIDTH_IN_BITS == TICK_TYPE_WIDTH_16_BITS )
 247:Lib/FreeRTOS/Source/tasks.c ****     #define taskEVENT_LIST_ITEM_VALUE_IN_USE    0x8000U
 248:Lib/FreeRTOS/Source/tasks.c **** #elif ( configTICK_TYPE_WIDTH_IN_BITS == TICK_TYPE_WIDTH_32_BITS )
 249:Lib/FreeRTOS/Source/tasks.c ****     #define taskEVENT_LIST_ITEM_VALUE_IN_USE    0x80000000UL
 250:Lib/FreeRTOS/Source/tasks.c **** #elif ( configTICK_TYPE_WIDTH_IN_BITS == TICK_TYPE_WIDTH_64_BITS )
 251:Lib/FreeRTOS/Source/tasks.c ****     #define taskEVENT_LIST_ITEM_VALUE_IN_USE    0x8000000000000000ULL
 252:Lib/FreeRTOS/Source/tasks.c **** #endif
 253:Lib/FreeRTOS/Source/tasks.c **** 
 254:Lib/FreeRTOS/Source/tasks.c **** /*
 255:Lib/FreeRTOS/Source/tasks.c ****  * Task control block.  A task control block (TCB) is allocated for each task,
 256:Lib/FreeRTOS/Source/tasks.c ****  * and stores task state information, including a pointer to the task's context
 257:Lib/FreeRTOS/Source/tasks.c ****  * (the task's run time environment, including register values)
 258:Lib/FreeRTOS/Source/tasks.c ****  */
 259:Lib/FreeRTOS/Source/tasks.c **** typedef struct tskTaskControlBlock       /* The old naming convention is used to prevent breaking k
 260:Lib/FreeRTOS/Source/tasks.c **** {
 261:Lib/FreeRTOS/Source/tasks.c ****     volatile StackType_t * pxTopOfStack; /**< Points to the location of the last item placed on the
 262:Lib/FreeRTOS/Source/tasks.c **** 
 263:Lib/FreeRTOS/Source/tasks.c ****     #if ( portUSING_MPU_WRAPPERS == 1 )
 264:Lib/FreeRTOS/Source/tasks.c ****         xMPU_SETTINGS xMPUSettings; /**< The MPU settings are defined as part of the port layer.  T
 265:Lib/FreeRTOS/Source/tasks.c ****     #endif
 266:Lib/FreeRTOS/Source/tasks.c **** 
 267:Lib/FreeRTOS/Source/tasks.c ****     ListItem_t xStateListItem;                  /**< The list that the state list item of a task is
 268:Lib/FreeRTOS/Source/tasks.c ****     ListItem_t xEventListItem;                  /**< Used to reference a task from an event list. *
 269:Lib/FreeRTOS/Source/tasks.c ****     UBaseType_t uxPriority;                     /**< The priority of the task.  0 is the lowest pri
 270:Lib/FreeRTOS/Source/tasks.c ****     StackType_t * pxStack;                      /**< Points to the start of the stack. */
 271:Lib/FreeRTOS/Source/tasks.c ****     char pcTaskName[ configMAX_TASK_NAME_LEN ]; /**< Descriptive name given to the task when create
 272:Lib/FreeRTOS/Source/tasks.c **** 
 273:Lib/FreeRTOS/Source/tasks.c ****     #if ( ( portSTACK_GROWTH > 0 ) || ( configRECORD_STACK_HIGH_ADDRESS == 1 ) )
 274:Lib/FreeRTOS/Source/tasks.c ****         StackType_t * pxEndOfStack; /**< Points to the highest valid address for the stack. */
 275:Lib/FreeRTOS/Source/tasks.c ****     #endif
 276:Lib/FreeRTOS/Source/tasks.c **** 
 277:Lib/FreeRTOS/Source/tasks.c ****     #if ( portCRITICAL_NESTING_IN_TCB == 1 )
 278:Lib/FreeRTOS/Source/tasks.c ****         UBaseType_t uxCriticalNesting; /**< Holds the critical section nesting depth for ports that
 279:Lib/FreeRTOS/Source/tasks.c ****     #endif
 280:Lib/FreeRTOS/Source/tasks.c **** 
 281:Lib/FreeRTOS/Source/tasks.c ****     #if ( configUSE_TRACE_FACILITY == 1 )
 282:Lib/FreeRTOS/Source/tasks.c ****         UBaseType_t uxTCBNumber;  /**< Stores a number that increments each time a TCB is created. 
 283:Lib/FreeRTOS/Source/tasks.c ****         UBaseType_t uxTaskNumber; /**< Stores a number specifically for use by third party trace co
 284:Lib/FreeRTOS/Source/tasks.c ****     #endif
 285:Lib/FreeRTOS/Source/tasks.c **** 
 286:Lib/FreeRTOS/Source/tasks.c ****     #if ( configUSE_MUTEXES == 1 )
 287:Lib/FreeRTOS/Source/tasks.c ****         UBaseType_t uxBasePriority; /**< The priority last assigned to the task - used by the prior
 288:Lib/FreeRTOS/Source/tasks.c ****         UBaseType_t uxMutexesHeld;
 289:Lib/FreeRTOS/Source/tasks.c ****     #endif
 290:Lib/FreeRTOS/Source/tasks.c **** 
 291:Lib/FreeRTOS/Source/tasks.c ****     #if ( configUSE_APPLICATION_TASK_TAG == 1 )
ARM GAS  /tmp/ccTFOe4z.s 			page 9


 292:Lib/FreeRTOS/Source/tasks.c ****         TaskHookFunction_t pxTaskTag;
 293:Lib/FreeRTOS/Source/tasks.c ****     #endif
 294:Lib/FreeRTOS/Source/tasks.c **** 
 295:Lib/FreeRTOS/Source/tasks.c ****     #if ( configNUM_THREAD_LOCAL_STORAGE_POINTERS > 0 )
 296:Lib/FreeRTOS/Source/tasks.c ****         void * pvThreadLocalStoragePointers[ configNUM_THREAD_LOCAL_STORAGE_POINTERS ];
 297:Lib/FreeRTOS/Source/tasks.c ****     #endif
 298:Lib/FreeRTOS/Source/tasks.c **** 
 299:Lib/FreeRTOS/Source/tasks.c ****     #if ( configGENERATE_RUN_TIME_STATS == 1 )
 300:Lib/FreeRTOS/Source/tasks.c ****         configRUN_TIME_COUNTER_TYPE ulRunTimeCounter; /**< Stores the amount of time the task has s
 301:Lib/FreeRTOS/Source/tasks.c ****     #endif
 302:Lib/FreeRTOS/Source/tasks.c **** 
 303:Lib/FreeRTOS/Source/tasks.c ****     #if ( configUSE_C_RUNTIME_TLS_SUPPORT == 1 )
 304:Lib/FreeRTOS/Source/tasks.c ****         configTLS_BLOCK_TYPE xTLSBlock; /**< Memory block used as Thread Local Storage (TLS) Block 
 305:Lib/FreeRTOS/Source/tasks.c ****     #endif
 306:Lib/FreeRTOS/Source/tasks.c **** 
 307:Lib/FreeRTOS/Source/tasks.c ****     #if ( configUSE_TASK_NOTIFICATIONS == 1 )
 308:Lib/FreeRTOS/Source/tasks.c ****         volatile uint32_t ulNotifiedValue[ configTASK_NOTIFICATION_ARRAY_ENTRIES ];
 309:Lib/FreeRTOS/Source/tasks.c ****         volatile uint8_t ucNotifyState[ configTASK_NOTIFICATION_ARRAY_ENTRIES ];
 310:Lib/FreeRTOS/Source/tasks.c ****     #endif
 311:Lib/FreeRTOS/Source/tasks.c **** 
 312:Lib/FreeRTOS/Source/tasks.c ****     /* See the comments in FreeRTOS.h with the definition of
 313:Lib/FreeRTOS/Source/tasks.c ****      * tskSTATIC_AND_DYNAMIC_ALLOCATION_POSSIBLE. */
 314:Lib/FreeRTOS/Source/tasks.c ****     #if ( tskSTATIC_AND_DYNAMIC_ALLOCATION_POSSIBLE != 0 ) /*lint !e731 !e9029 Macro has been conso
 315:Lib/FreeRTOS/Source/tasks.c ****         uint8_t ucStaticallyAllocated;                     /**< Set to pdTRUE if the task is a stat
 316:Lib/FreeRTOS/Source/tasks.c ****     #endif
 317:Lib/FreeRTOS/Source/tasks.c **** 
 318:Lib/FreeRTOS/Source/tasks.c ****     #if ( INCLUDE_xTaskAbortDelay == 1 )
 319:Lib/FreeRTOS/Source/tasks.c ****         uint8_t ucDelayAborted;
 320:Lib/FreeRTOS/Source/tasks.c ****     #endif
 321:Lib/FreeRTOS/Source/tasks.c **** 
 322:Lib/FreeRTOS/Source/tasks.c ****     #if ( configUSE_POSIX_ERRNO == 1 )
 323:Lib/FreeRTOS/Source/tasks.c ****         int iTaskErrno;
 324:Lib/FreeRTOS/Source/tasks.c ****     #endif
 325:Lib/FreeRTOS/Source/tasks.c **** } tskTCB;
 326:Lib/FreeRTOS/Source/tasks.c **** 
 327:Lib/FreeRTOS/Source/tasks.c **** /* The old tskTCB name is maintained above then typedefed to the new TCB_t name
 328:Lib/FreeRTOS/Source/tasks.c ****  * below to enable the use of older kernel aware debuggers. */
 329:Lib/FreeRTOS/Source/tasks.c **** typedef tskTCB TCB_t;
 330:Lib/FreeRTOS/Source/tasks.c **** 
 331:Lib/FreeRTOS/Source/tasks.c **** /*lint -save -e956 A manual analysis and inspection has been used to determine
 332:Lib/FreeRTOS/Source/tasks.c ****  * which static variables must be declared volatile. */
 333:Lib/FreeRTOS/Source/tasks.c **** portDONT_DISCARD PRIVILEGED_DATA TCB_t * volatile pxCurrentTCB = NULL;
 334:Lib/FreeRTOS/Source/tasks.c **** 
 335:Lib/FreeRTOS/Source/tasks.c **** /* Lists for ready and blocked tasks. --------------------
 336:Lib/FreeRTOS/Source/tasks.c ****  * xDelayedTaskList1 and xDelayedTaskList2 could be moved to function scope but
 337:Lib/FreeRTOS/Source/tasks.c ****  * doing so breaks some kernel aware debuggers and debuggers that rely on removing
 338:Lib/FreeRTOS/Source/tasks.c ****  * the static qualifier. */
 339:Lib/FreeRTOS/Source/tasks.c **** PRIVILEGED_DATA static List_t pxReadyTasksLists[ configMAX_PRIORITIES ]; /**< Prioritised ready tas
 340:Lib/FreeRTOS/Source/tasks.c **** PRIVILEGED_DATA static List_t xDelayedTaskList1;                         /**< Delayed tasks. */
 341:Lib/FreeRTOS/Source/tasks.c **** PRIVILEGED_DATA static List_t xDelayedTaskList2;                         /**< Delayed tasks (two li
 342:Lib/FreeRTOS/Source/tasks.c **** PRIVILEGED_DATA static List_t * volatile pxDelayedTaskList;              /**< Points to the delayed
 343:Lib/FreeRTOS/Source/tasks.c **** PRIVILEGED_DATA static List_t * volatile pxOverflowDelayedTaskList;      /**< Points to the delayed
 344:Lib/FreeRTOS/Source/tasks.c **** PRIVILEGED_DATA static List_t xPendingReadyList;                         /**< Tasks that have been 
 345:Lib/FreeRTOS/Source/tasks.c **** 
 346:Lib/FreeRTOS/Source/tasks.c **** #if ( INCLUDE_vTaskDelete == 1 )
 347:Lib/FreeRTOS/Source/tasks.c **** 
 348:Lib/FreeRTOS/Source/tasks.c ****     PRIVILEGED_DATA static List_t xTasksWaitingTermination; /**< Tasks that have been deleted - but
ARM GAS  /tmp/ccTFOe4z.s 			page 10


 349:Lib/FreeRTOS/Source/tasks.c ****     PRIVILEGED_DATA static volatile UBaseType_t uxDeletedTasksWaitingCleanUp = ( UBaseType_t ) 0U;
 350:Lib/FreeRTOS/Source/tasks.c **** 
 351:Lib/FreeRTOS/Source/tasks.c **** #endif
 352:Lib/FreeRTOS/Source/tasks.c **** 
 353:Lib/FreeRTOS/Source/tasks.c **** #if ( INCLUDE_vTaskSuspend == 1 )
 354:Lib/FreeRTOS/Source/tasks.c **** 
 355:Lib/FreeRTOS/Source/tasks.c ****     PRIVILEGED_DATA static List_t xSuspendedTaskList; /**< Tasks that are currently suspended. */
 356:Lib/FreeRTOS/Source/tasks.c **** 
 357:Lib/FreeRTOS/Source/tasks.c **** #endif
 358:Lib/FreeRTOS/Source/tasks.c **** 
 359:Lib/FreeRTOS/Source/tasks.c **** /* Global POSIX errno. Its value is changed upon context switching to match
 360:Lib/FreeRTOS/Source/tasks.c ****  * the errno of the currently running task. */
 361:Lib/FreeRTOS/Source/tasks.c **** #if ( configUSE_POSIX_ERRNO == 1 )
 362:Lib/FreeRTOS/Source/tasks.c ****     int FreeRTOS_errno = 0;
 363:Lib/FreeRTOS/Source/tasks.c **** #endif
 364:Lib/FreeRTOS/Source/tasks.c **** 
 365:Lib/FreeRTOS/Source/tasks.c **** /* Other file private variables. --------------------------------*/
 366:Lib/FreeRTOS/Source/tasks.c **** PRIVILEGED_DATA static volatile UBaseType_t uxCurrentNumberOfTasks = ( UBaseType_t ) 0U;
 367:Lib/FreeRTOS/Source/tasks.c **** PRIVILEGED_DATA static volatile TickType_t xTickCount = ( TickType_t ) configINITIAL_TICK_COUNT;
 368:Lib/FreeRTOS/Source/tasks.c **** PRIVILEGED_DATA static volatile UBaseType_t uxTopReadyPriority = tskIDLE_PRIORITY;
 369:Lib/FreeRTOS/Source/tasks.c **** PRIVILEGED_DATA static volatile BaseType_t xSchedulerRunning = pdFALSE;
 370:Lib/FreeRTOS/Source/tasks.c **** PRIVILEGED_DATA static volatile TickType_t xPendedTicks = ( TickType_t ) 0U;
 371:Lib/FreeRTOS/Source/tasks.c **** PRIVILEGED_DATA static volatile BaseType_t xYieldPending = pdFALSE;
 372:Lib/FreeRTOS/Source/tasks.c **** PRIVILEGED_DATA static volatile BaseType_t xNumOfOverflows = ( BaseType_t ) 0;
 373:Lib/FreeRTOS/Source/tasks.c **** PRIVILEGED_DATA static UBaseType_t uxTaskNumber = ( UBaseType_t ) 0U;
 374:Lib/FreeRTOS/Source/tasks.c **** PRIVILEGED_DATA static volatile TickType_t xNextTaskUnblockTime = ( TickType_t ) 0U; /* Initialised
 375:Lib/FreeRTOS/Source/tasks.c **** PRIVILEGED_DATA static TaskHandle_t xIdleTaskHandle = NULL;                          /**< Holds the
 376:Lib/FreeRTOS/Source/tasks.c **** 
 377:Lib/FreeRTOS/Source/tasks.c **** /* Improve support for OpenOCD. The kernel tracks Ready tasks via priority lists.
 378:Lib/FreeRTOS/Source/tasks.c ****  * For tracking the state of remote threads, OpenOCD uses uxTopUsedPriority
 379:Lib/FreeRTOS/Source/tasks.c ****  * to determine the number of priority lists to read back from the remote target. */
 380:Lib/FreeRTOS/Source/tasks.c **** const volatile UBaseType_t uxTopUsedPriority = configMAX_PRIORITIES - 1U;
 381:Lib/FreeRTOS/Source/tasks.c **** 
 382:Lib/FreeRTOS/Source/tasks.c **** /* Context switches are held pending while the scheduler is suspended.  Also,
 383:Lib/FreeRTOS/Source/tasks.c ****  * interrupts must not manipulate the xStateListItem of a TCB, or any of the
 384:Lib/FreeRTOS/Source/tasks.c ****  * lists the xStateListItem can be referenced from, if the scheduler is suspended.
 385:Lib/FreeRTOS/Source/tasks.c ****  * If an interrupt needs to unblock a task while the scheduler is suspended then it
 386:Lib/FreeRTOS/Source/tasks.c ****  * moves the task's event list item into the xPendingReadyList, ready for the
 387:Lib/FreeRTOS/Source/tasks.c ****  * kernel to move the task from the pending ready list into the real ready list
 388:Lib/FreeRTOS/Source/tasks.c ****  * when the scheduler is unsuspended.  The pending ready list itself can only be
 389:Lib/FreeRTOS/Source/tasks.c ****  * accessed from a critical section. */
 390:Lib/FreeRTOS/Source/tasks.c **** PRIVILEGED_DATA static volatile UBaseType_t uxSchedulerSuspended = ( UBaseType_t ) 0U;
 391:Lib/FreeRTOS/Source/tasks.c **** 
 392:Lib/FreeRTOS/Source/tasks.c **** #if ( configGENERATE_RUN_TIME_STATS == 1 )
 393:Lib/FreeRTOS/Source/tasks.c **** 
 394:Lib/FreeRTOS/Source/tasks.c **** /* Do not move these variables to function scope as doing so prevents the
 395:Lib/FreeRTOS/Source/tasks.c ****  * code working with debuggers that need to remove the static qualifier. */
 396:Lib/FreeRTOS/Source/tasks.c ****     PRIVILEGED_DATA static configRUN_TIME_COUNTER_TYPE ulTaskSwitchedInTime = 0UL;    /**< Holds th
 397:Lib/FreeRTOS/Source/tasks.c ****     PRIVILEGED_DATA static volatile configRUN_TIME_COUNTER_TYPE ulTotalRunTime = 0UL; /**< Holds th
 398:Lib/FreeRTOS/Source/tasks.c **** 
 399:Lib/FreeRTOS/Source/tasks.c **** #endif
 400:Lib/FreeRTOS/Source/tasks.c **** 
 401:Lib/FreeRTOS/Source/tasks.c **** /*lint -restore */
 402:Lib/FreeRTOS/Source/tasks.c **** 
 403:Lib/FreeRTOS/Source/tasks.c **** /*-----------------------------------------------------------*/
 404:Lib/FreeRTOS/Source/tasks.c **** 
 405:Lib/FreeRTOS/Source/tasks.c **** /* File private functions. --------------------------------*/
ARM GAS  /tmp/ccTFOe4z.s 			page 11


 406:Lib/FreeRTOS/Source/tasks.c **** 
 407:Lib/FreeRTOS/Source/tasks.c **** /**
 408:Lib/FreeRTOS/Source/tasks.c ****  * Utility task that simply returns pdTRUE if the task referenced by xTask is
 409:Lib/FreeRTOS/Source/tasks.c ****  * currently in the Suspended state, or pdFALSE if the task referenced by xTask
 410:Lib/FreeRTOS/Source/tasks.c ****  * is in any other state.
 411:Lib/FreeRTOS/Source/tasks.c ****  */
 412:Lib/FreeRTOS/Source/tasks.c **** #if ( INCLUDE_vTaskSuspend == 1 )
 413:Lib/FreeRTOS/Source/tasks.c **** 
 414:Lib/FreeRTOS/Source/tasks.c ****     static BaseType_t prvTaskIsTaskSuspended( const TaskHandle_t xTask ) PRIVILEGED_FUNCTION;
 415:Lib/FreeRTOS/Source/tasks.c **** 
 416:Lib/FreeRTOS/Source/tasks.c **** #endif /* INCLUDE_vTaskSuspend */
 417:Lib/FreeRTOS/Source/tasks.c **** 
 418:Lib/FreeRTOS/Source/tasks.c **** /*
 419:Lib/FreeRTOS/Source/tasks.c ****  * Utility to ready all the lists used by the scheduler.  This is called
 420:Lib/FreeRTOS/Source/tasks.c ****  * automatically upon the creation of the first task.
 421:Lib/FreeRTOS/Source/tasks.c ****  */
 422:Lib/FreeRTOS/Source/tasks.c **** static void prvInitialiseTaskLists( void ) PRIVILEGED_FUNCTION;
 423:Lib/FreeRTOS/Source/tasks.c **** 
 424:Lib/FreeRTOS/Source/tasks.c **** /*
 425:Lib/FreeRTOS/Source/tasks.c ****  * The idle task, which as all tasks is implemented as a never ending loop.
 426:Lib/FreeRTOS/Source/tasks.c ****  * The idle task is automatically created and added to the ready lists upon
 427:Lib/FreeRTOS/Source/tasks.c ****  * creation of the first user task.
 428:Lib/FreeRTOS/Source/tasks.c ****  *
 429:Lib/FreeRTOS/Source/tasks.c ****  * The portTASK_FUNCTION_PROTO() macro is used to allow port/compiler specific
 430:Lib/FreeRTOS/Source/tasks.c ****  * language extensions.  The equivalent prototype for this function is:
 431:Lib/FreeRTOS/Source/tasks.c ****  *
 432:Lib/FreeRTOS/Source/tasks.c ****  * void prvIdleTask( void *pvParameters );
 433:Lib/FreeRTOS/Source/tasks.c ****  *
 434:Lib/FreeRTOS/Source/tasks.c ****  */
 435:Lib/FreeRTOS/Source/tasks.c **** static portTASK_FUNCTION_PROTO( prvIdleTask, pvParameters ) PRIVILEGED_FUNCTION;
 436:Lib/FreeRTOS/Source/tasks.c **** 
 437:Lib/FreeRTOS/Source/tasks.c **** /*
 438:Lib/FreeRTOS/Source/tasks.c ****  * Utility to free all memory allocated by the scheduler to hold a TCB,
 439:Lib/FreeRTOS/Source/tasks.c ****  * including the stack pointed to by the TCB.
 440:Lib/FreeRTOS/Source/tasks.c ****  *
 441:Lib/FreeRTOS/Source/tasks.c ****  * This does not free memory allocated by the task itself (i.e. memory
 442:Lib/FreeRTOS/Source/tasks.c ****  * allocated by calls to pvPortMalloc from within the tasks application code).
 443:Lib/FreeRTOS/Source/tasks.c ****  */
 444:Lib/FreeRTOS/Source/tasks.c **** #if ( INCLUDE_vTaskDelete == 1 )
 445:Lib/FreeRTOS/Source/tasks.c **** 
 446:Lib/FreeRTOS/Source/tasks.c ****     static void prvDeleteTCB( TCB_t * pxTCB ) PRIVILEGED_FUNCTION;
 447:Lib/FreeRTOS/Source/tasks.c **** 
 448:Lib/FreeRTOS/Source/tasks.c **** #endif
 449:Lib/FreeRTOS/Source/tasks.c **** 
 450:Lib/FreeRTOS/Source/tasks.c **** /*
 451:Lib/FreeRTOS/Source/tasks.c ****  * Used only by the idle task.  This checks to see if anything has been placed
 452:Lib/FreeRTOS/Source/tasks.c ****  * in the list of tasks waiting to be deleted.  If so the task is cleaned up
 453:Lib/FreeRTOS/Source/tasks.c ****  * and its TCB deleted.
 454:Lib/FreeRTOS/Source/tasks.c ****  */
 455:Lib/FreeRTOS/Source/tasks.c **** static void prvCheckTasksWaitingTermination( void ) PRIVILEGED_FUNCTION;
 456:Lib/FreeRTOS/Source/tasks.c **** 
 457:Lib/FreeRTOS/Source/tasks.c **** /*
 458:Lib/FreeRTOS/Source/tasks.c ****  * The currently executing task is entering the Blocked state.  Add the task to
 459:Lib/FreeRTOS/Source/tasks.c ****  * either the current or the overflow delayed task list.
 460:Lib/FreeRTOS/Source/tasks.c ****  */
 461:Lib/FreeRTOS/Source/tasks.c **** static void prvAddCurrentTaskToDelayedList( TickType_t xTicksToWait,
 462:Lib/FreeRTOS/Source/tasks.c ****                                             const BaseType_t xCanBlockIndefinitely ) PRIVILEGED_FUN
ARM GAS  /tmp/ccTFOe4z.s 			page 12


 463:Lib/FreeRTOS/Source/tasks.c **** 
 464:Lib/FreeRTOS/Source/tasks.c **** /*
 465:Lib/FreeRTOS/Source/tasks.c ****  * Fills an TaskStatus_t structure with information on each task that is
 466:Lib/FreeRTOS/Source/tasks.c ****  * referenced from the pxList list (which may be a ready list, a delayed list,
 467:Lib/FreeRTOS/Source/tasks.c ****  * a suspended list, etc.).
 468:Lib/FreeRTOS/Source/tasks.c ****  *
 469:Lib/FreeRTOS/Source/tasks.c ****  * THIS FUNCTION IS INTENDED FOR DEBUGGING ONLY, AND SHOULD NOT BE CALLED FROM
 470:Lib/FreeRTOS/Source/tasks.c ****  * NORMAL APPLICATION CODE.
 471:Lib/FreeRTOS/Source/tasks.c ****  */
 472:Lib/FreeRTOS/Source/tasks.c **** #if ( configUSE_TRACE_FACILITY == 1 )
 473:Lib/FreeRTOS/Source/tasks.c **** 
 474:Lib/FreeRTOS/Source/tasks.c ****     static UBaseType_t prvListTasksWithinSingleList( TaskStatus_t * pxTaskStatusArray,
 475:Lib/FreeRTOS/Source/tasks.c ****                                                      List_t * pxList,
 476:Lib/FreeRTOS/Source/tasks.c ****                                                      eTaskState eState ) PRIVILEGED_FUNCTION;
 477:Lib/FreeRTOS/Source/tasks.c **** 
 478:Lib/FreeRTOS/Source/tasks.c **** #endif
 479:Lib/FreeRTOS/Source/tasks.c **** 
 480:Lib/FreeRTOS/Source/tasks.c **** /*
 481:Lib/FreeRTOS/Source/tasks.c ****  * Searches pxList for a task with name pcNameToQuery - returning a handle to
 482:Lib/FreeRTOS/Source/tasks.c ****  * the task if it is found, or NULL if the task is not found.
 483:Lib/FreeRTOS/Source/tasks.c ****  */
 484:Lib/FreeRTOS/Source/tasks.c **** #if ( INCLUDE_xTaskGetHandle == 1 )
 485:Lib/FreeRTOS/Source/tasks.c **** 
 486:Lib/FreeRTOS/Source/tasks.c ****     static TCB_t * prvSearchForNameWithinSingleList( List_t * pxList,
 487:Lib/FreeRTOS/Source/tasks.c ****                                                      const char pcNameToQuery[] ) PRIVILEGED_FUNCTI
 488:Lib/FreeRTOS/Source/tasks.c **** 
 489:Lib/FreeRTOS/Source/tasks.c **** #endif
 490:Lib/FreeRTOS/Source/tasks.c **** 
 491:Lib/FreeRTOS/Source/tasks.c **** /*
 492:Lib/FreeRTOS/Source/tasks.c ****  * When a task is created, the stack of the task is filled with a known value.
 493:Lib/FreeRTOS/Source/tasks.c ****  * This function determines the 'high water mark' of the task stack by
 494:Lib/FreeRTOS/Source/tasks.c ****  * determining how much of the stack remains at the original preset value.
 495:Lib/FreeRTOS/Source/tasks.c ****  */
 496:Lib/FreeRTOS/Source/tasks.c **** #if ( ( configUSE_TRACE_FACILITY == 1 ) || ( INCLUDE_uxTaskGetStackHighWaterMark == 1 ) || ( INCLUD
 497:Lib/FreeRTOS/Source/tasks.c **** 
 498:Lib/FreeRTOS/Source/tasks.c ****     static configSTACK_DEPTH_TYPE prvTaskCheckFreeStackSpace( const uint8_t * pucStackByte ) PRIVIL
 499:Lib/FreeRTOS/Source/tasks.c **** 
 500:Lib/FreeRTOS/Source/tasks.c **** #endif
 501:Lib/FreeRTOS/Source/tasks.c **** 
 502:Lib/FreeRTOS/Source/tasks.c **** /*
 503:Lib/FreeRTOS/Source/tasks.c ****  * Return the amount of time, in ticks, that will pass before the kernel will
 504:Lib/FreeRTOS/Source/tasks.c ****  * next move a task from the Blocked state to the Running state.
 505:Lib/FreeRTOS/Source/tasks.c ****  *
 506:Lib/FreeRTOS/Source/tasks.c ****  * This conditional compilation should use inequality to 0, not equality to 1.
 507:Lib/FreeRTOS/Source/tasks.c ****  * This is to ensure portSUPPRESS_TICKS_AND_SLEEP() can be called when user
 508:Lib/FreeRTOS/Source/tasks.c ****  * defined low power mode implementations require configUSE_TICKLESS_IDLE to be
 509:Lib/FreeRTOS/Source/tasks.c ****  * set to a value other than 1.
 510:Lib/FreeRTOS/Source/tasks.c ****  */
 511:Lib/FreeRTOS/Source/tasks.c **** #if ( configUSE_TICKLESS_IDLE != 0 )
 512:Lib/FreeRTOS/Source/tasks.c **** 
 513:Lib/FreeRTOS/Source/tasks.c ****     static TickType_t prvGetExpectedIdleTime( void ) PRIVILEGED_FUNCTION;
 514:Lib/FreeRTOS/Source/tasks.c **** 
 515:Lib/FreeRTOS/Source/tasks.c **** #endif
 516:Lib/FreeRTOS/Source/tasks.c **** 
 517:Lib/FreeRTOS/Source/tasks.c **** /*
 518:Lib/FreeRTOS/Source/tasks.c ****  * Set xNextTaskUnblockTime to the time at which the next Blocked state task
 519:Lib/FreeRTOS/Source/tasks.c ****  * will exit the Blocked state.
ARM GAS  /tmp/ccTFOe4z.s 			page 13


 520:Lib/FreeRTOS/Source/tasks.c ****  */
 521:Lib/FreeRTOS/Source/tasks.c **** static void prvResetNextTaskUnblockTime( void ) PRIVILEGED_FUNCTION;
 522:Lib/FreeRTOS/Source/tasks.c **** 
 523:Lib/FreeRTOS/Source/tasks.c **** #if ( configUSE_STATS_FORMATTING_FUNCTIONS > 0 )
 524:Lib/FreeRTOS/Source/tasks.c **** 
 525:Lib/FreeRTOS/Source/tasks.c **** /*
 526:Lib/FreeRTOS/Source/tasks.c ****  * Helper function used to pad task names with spaces when printing out
 527:Lib/FreeRTOS/Source/tasks.c ****  * human readable tables of task information.
 528:Lib/FreeRTOS/Source/tasks.c ****  */
 529:Lib/FreeRTOS/Source/tasks.c ****     static char * prvWriteNameToBuffer( char * pcBuffer,
 530:Lib/FreeRTOS/Source/tasks.c ****                                         const char * pcTaskName ) PRIVILEGED_FUNCTION;
 531:Lib/FreeRTOS/Source/tasks.c **** 
 532:Lib/FreeRTOS/Source/tasks.c **** #endif
 533:Lib/FreeRTOS/Source/tasks.c **** 
 534:Lib/FreeRTOS/Source/tasks.c **** /*
 535:Lib/FreeRTOS/Source/tasks.c ****  * Called after a Task_t structure has been allocated either statically or
 536:Lib/FreeRTOS/Source/tasks.c ****  * dynamically to fill in the structure's members.
 537:Lib/FreeRTOS/Source/tasks.c ****  */
 538:Lib/FreeRTOS/Source/tasks.c **** static void prvInitialiseNewTask( TaskFunction_t pxTaskCode,
 539:Lib/FreeRTOS/Source/tasks.c ****                                   const char * const pcName, /*lint !e971 Unqualified char types ar
 540:Lib/FreeRTOS/Source/tasks.c ****                                   const uint32_t ulStackDepth,
 541:Lib/FreeRTOS/Source/tasks.c ****                                   void * const pvParameters,
 542:Lib/FreeRTOS/Source/tasks.c ****                                   UBaseType_t uxPriority,
 543:Lib/FreeRTOS/Source/tasks.c ****                                   TaskHandle_t * const pxCreatedTask,
 544:Lib/FreeRTOS/Source/tasks.c ****                                   TCB_t * pxNewTCB,
 545:Lib/FreeRTOS/Source/tasks.c ****                                   const MemoryRegion_t * const xRegions ) PRIVILEGED_FUNCTION;
 546:Lib/FreeRTOS/Source/tasks.c **** 
 547:Lib/FreeRTOS/Source/tasks.c **** /*
 548:Lib/FreeRTOS/Source/tasks.c ****  * Called after a new task has been created and initialised to place the task
 549:Lib/FreeRTOS/Source/tasks.c ****  * under the control of the scheduler.
 550:Lib/FreeRTOS/Source/tasks.c ****  */
 551:Lib/FreeRTOS/Source/tasks.c **** static void prvAddNewTaskToReadyList( TCB_t * pxNewTCB ) PRIVILEGED_FUNCTION;
 552:Lib/FreeRTOS/Source/tasks.c **** 
 553:Lib/FreeRTOS/Source/tasks.c **** /*
 554:Lib/FreeRTOS/Source/tasks.c ****  * freertos_tasks_c_additions_init() should only be called if the user definable
 555:Lib/FreeRTOS/Source/tasks.c ****  * macro FREERTOS_TASKS_C_ADDITIONS_INIT() is defined, as that is the only macro
 556:Lib/FreeRTOS/Source/tasks.c ****  * called by the function.
 557:Lib/FreeRTOS/Source/tasks.c ****  */
 558:Lib/FreeRTOS/Source/tasks.c **** #ifdef FREERTOS_TASKS_C_ADDITIONS_INIT
 559:Lib/FreeRTOS/Source/tasks.c **** 
 560:Lib/FreeRTOS/Source/tasks.c ****     static void freertos_tasks_c_additions_init( void ) PRIVILEGED_FUNCTION;
 561:Lib/FreeRTOS/Source/tasks.c **** 
 562:Lib/FreeRTOS/Source/tasks.c **** #endif
 563:Lib/FreeRTOS/Source/tasks.c **** 
 564:Lib/FreeRTOS/Source/tasks.c **** /*-----------------------------------------------------------*/
 565:Lib/FreeRTOS/Source/tasks.c **** 
 566:Lib/FreeRTOS/Source/tasks.c **** #if ( configSUPPORT_STATIC_ALLOCATION == 1 )
 567:Lib/FreeRTOS/Source/tasks.c **** 
 568:Lib/FreeRTOS/Source/tasks.c ****     TaskHandle_t xTaskCreateStatic( TaskFunction_t pxTaskCode,
 569:Lib/FreeRTOS/Source/tasks.c ****                                     const char * const pcName, /*lint !e971 Unqualified char types 
 570:Lib/FreeRTOS/Source/tasks.c ****                                     const uint32_t ulStackDepth,
 571:Lib/FreeRTOS/Source/tasks.c ****                                     void * const pvParameters,
 572:Lib/FreeRTOS/Source/tasks.c ****                                     UBaseType_t uxPriority,
 573:Lib/FreeRTOS/Source/tasks.c ****                                     StackType_t * const puxStackBuffer,
 574:Lib/FreeRTOS/Source/tasks.c ****                                     StaticTask_t * const pxTaskBuffer )
 575:Lib/FreeRTOS/Source/tasks.c ****     {
 187              		.loc 1 575 5
ARM GAS  /tmp/ccTFOe4z.s 			page 14


 188              		.cfi_startproc
 189              		@ args = 12, pretend = 0, frame = 32
 190              		@ frame_needed = 1, uses_anonymous_args = 0
 191 0000 80B5     		push	{r7, lr}
 192              		.cfi_def_cfa_offset 8
 193              		.cfi_offset 7, -8
 194              		.cfi_offset 14, -4
 195 0002 8CB0     		sub	sp, sp, #48
 196              		.cfi_def_cfa_offset 56
 197 0004 04AF     		add	r7, sp, #16
 198              		.cfi_def_cfa 7, 40
 199 0006 F860     		str	r0, [r7, #12]
 200 0008 B960     		str	r1, [r7, #8]
 201 000a 7A60     		str	r2, [r7, #4]
 202 000c 3B60     		str	r3, [r7]
 576:Lib/FreeRTOS/Source/tasks.c ****         TCB_t * pxNewTCB;
 577:Lib/FreeRTOS/Source/tasks.c ****         TaskHandle_t xReturn;
 578:Lib/FreeRTOS/Source/tasks.c **** 
 579:Lib/FreeRTOS/Source/tasks.c ****         configASSERT( puxStackBuffer != NULL );
 203              		.loc 1 579 9
 204 000e FB6A     		ldr	r3, [r7, #44]
 205 0010 002B     		cmp	r3, #0
 206 0012 08D1     		bne	.L2
 207              		.loc 1 579 9 is_stmt 0 discriminator 1
 208 0014 FFF7FEFF 		bl	ulSetInterruptMask
 209 0018 254B     		ldr	r3, .L8
 210 001a 264A     		ldr	r2, .L8+4
 211 001c 40F24321 		movw	r1, #579
 212 0020 2548     		ldr	r0, .L8+8
 213 0022 FFF7FEFF 		bl	__assert_func
 214              	.L2:
 580:Lib/FreeRTOS/Source/tasks.c ****         configASSERT( pxTaskBuffer != NULL );
 215              		.loc 1 580 9 is_stmt 1
 216 0026 3B6B     		ldr	r3, [r7, #48]
 217 0028 002B     		cmp	r3, #0
 218 002a 08D1     		bne	.L3
 219              		.loc 1 580 9 is_stmt 0 discriminator 1
 220 002c FFF7FEFF 		bl	ulSetInterruptMask
 221 0030 1F4B     		ldr	r3, .L8
 222 0032 204A     		ldr	r2, .L8+4
 223 0034 4FF41171 		mov	r1, #580
 224 0038 1F48     		ldr	r0, .L8+8
 225 003a FFF7FEFF 		bl	__assert_func
 226              	.L3:
 227              	.LBB2:
 581:Lib/FreeRTOS/Source/tasks.c **** 
 582:Lib/FreeRTOS/Source/tasks.c ****         #if ( configASSERT_DEFINED == 1 )
 583:Lib/FreeRTOS/Source/tasks.c ****         {
 584:Lib/FreeRTOS/Source/tasks.c ****             /* Sanity check that the size of the structure used to declare a
 585:Lib/FreeRTOS/Source/tasks.c ****              * variable of type StaticTask_t equals the size of the real task
 586:Lib/FreeRTOS/Source/tasks.c ****              * structure. */
 587:Lib/FreeRTOS/Source/tasks.c ****             volatile size_t xSize = sizeof( StaticTask_t );
 228              		.loc 1 587 29 is_stmt 1
 229 003e 6023     		movs	r3, #96
 230 0040 7B61     		str	r3, [r7, #20]
 588:Lib/FreeRTOS/Source/tasks.c ****             configASSERT( xSize == sizeof( TCB_t ) );
 231              		.loc 1 588 13
ARM GAS  /tmp/ccTFOe4z.s 			page 15


 232 0042 7B69     		ldr	r3, [r7, #20]
 233 0044 602B     		cmp	r3, #96
 234 0046 08D0     		beq	.L4
 235              		.loc 1 588 13 is_stmt 0 discriminator 1
 236 0048 FFF7FEFF 		bl	ulSetInterruptMask
 237 004c 184B     		ldr	r3, .L8
 238 004e 194A     		ldr	r2, .L8+4
 239 0050 4FF41371 		mov	r1, #588
 240 0054 1848     		ldr	r0, .L8+8
 241 0056 FFF7FEFF 		bl	__assert_func
 242              	.L4:
 589:Lib/FreeRTOS/Source/tasks.c ****             ( void ) xSize; /* Prevent lint warning when configASSERT() is not used. */
 243              		.loc 1 589 13 is_stmt 1
 244 005a 7B69     		ldr	r3, [r7, #20]
 245              	.LBE2:
 590:Lib/FreeRTOS/Source/tasks.c ****         }
 591:Lib/FreeRTOS/Source/tasks.c ****         #endif /* configASSERT_DEFINED */
 592:Lib/FreeRTOS/Source/tasks.c **** 
 593:Lib/FreeRTOS/Source/tasks.c ****         if( ( pxTaskBuffer != NULL ) && ( puxStackBuffer != NULL ) )
 246              		.loc 1 593 11
 247 005c 3B6B     		ldr	r3, [r7, #48]
 248 005e 002B     		cmp	r3, #0
 249 0060 1FD0     		beq	.L5
 250              		.loc 1 593 38 discriminator 1
 251 0062 FB6A     		ldr	r3, [r7, #44]
 252 0064 002B     		cmp	r3, #0
 253 0066 1CD0     		beq	.L5
 594:Lib/FreeRTOS/Source/tasks.c ****         {
 595:Lib/FreeRTOS/Source/tasks.c ****             /* The memory used for the task's TCB and stack are passed into this
 596:Lib/FreeRTOS/Source/tasks.c ****              * function - use them. */
 597:Lib/FreeRTOS/Source/tasks.c ****             pxNewTCB = ( TCB_t * ) pxTaskBuffer; /*lint !e740 !e9087 Unusual cast is ok as the stru
 254              		.loc 1 597 22
 255 0068 3B6B     		ldr	r3, [r7, #48]
 256 006a FB61     		str	r3, [r7, #28]
 598:Lib/FreeRTOS/Source/tasks.c ****             memset( ( void * ) pxNewTCB, 0x00, sizeof( TCB_t ) );
 257              		.loc 1 598 13
 258 006c 6022     		movs	r2, #96
 259 006e 0021     		movs	r1, #0
 260 0070 F869     		ldr	r0, [r7, #28]
 261 0072 FFF7FEFF 		bl	memset
 599:Lib/FreeRTOS/Source/tasks.c ****             pxNewTCB->pxStack = ( StackType_t * ) puxStackBuffer;
 262              		.loc 1 599 31
 263 0076 FB69     		ldr	r3, [r7, #28]
 264 0078 FA6A     		ldr	r2, [r7, #44]
 265 007a 1A63     		str	r2, [r3, #48]
 600:Lib/FreeRTOS/Source/tasks.c **** 
 601:Lib/FreeRTOS/Source/tasks.c ****             #if ( tskSTATIC_AND_DYNAMIC_ALLOCATION_POSSIBLE != 0 ) /*lint !e731 !e9029 Macro has be
 602:Lib/FreeRTOS/Source/tasks.c ****             {
 603:Lib/FreeRTOS/Source/tasks.c ****                 /* Tasks can be created statically or dynamically, so note this
 604:Lib/FreeRTOS/Source/tasks.c ****                  * task was created statically in case the task is later deleted. */
 605:Lib/FreeRTOS/Source/tasks.c ****                 pxNewTCB->ucStaticallyAllocated = tskSTATICALLY_ALLOCATED_STACK_AND_TCB;
 606:Lib/FreeRTOS/Source/tasks.c ****             }
 607:Lib/FreeRTOS/Source/tasks.c ****             #endif /* tskSTATIC_AND_DYNAMIC_ALLOCATION_POSSIBLE */
 608:Lib/FreeRTOS/Source/tasks.c **** 
 609:Lib/FreeRTOS/Source/tasks.c ****             prvInitialiseNewTask( pxTaskCode, pcName, ulStackDepth, pvParameters, uxPriority, &xRet
 266              		.loc 1 609 13
 267 007c 0023     		movs	r3, #0
ARM GAS  /tmp/ccTFOe4z.s 			page 16


 268 007e 0393     		str	r3, [sp, #12]
 269 0080 FB69     		ldr	r3, [r7, #28]
 270 0082 0293     		str	r3, [sp, #8]
 271 0084 07F11803 		add	r3, r7, #24
 272 0088 0193     		str	r3, [sp, #4]
 273 008a BB6A     		ldr	r3, [r7, #40]
 274 008c 0093     		str	r3, [sp]
 275 008e 3B68     		ldr	r3, [r7]
 276 0090 7A68     		ldr	r2, [r7, #4]
 277 0092 B968     		ldr	r1, [r7, #8]
 278 0094 F868     		ldr	r0, [r7, #12]
 279 0096 FFF7FEFF 		bl	prvInitialiseNewTask
 610:Lib/FreeRTOS/Source/tasks.c ****             prvAddNewTaskToReadyList( pxNewTCB );
 280              		.loc 1 610 13
 281 009a F869     		ldr	r0, [r7, #28]
 282 009c FFF7FEFF 		bl	prvAddNewTaskToReadyList
 283 00a0 01E0     		b	.L6
 284              	.L5:
 611:Lib/FreeRTOS/Source/tasks.c ****         }
 612:Lib/FreeRTOS/Source/tasks.c ****         else
 613:Lib/FreeRTOS/Source/tasks.c ****         {
 614:Lib/FreeRTOS/Source/tasks.c ****             xReturn = NULL;
 285              		.loc 1 614 21
 286 00a2 0023     		movs	r3, #0
 287 00a4 BB61     		str	r3, [r7, #24]
 288              	.L6:
 615:Lib/FreeRTOS/Source/tasks.c ****         }
 616:Lib/FreeRTOS/Source/tasks.c **** 
 617:Lib/FreeRTOS/Source/tasks.c ****         return xReturn;
 289              		.loc 1 617 16
 290 00a6 BB69     		ldr	r3, [r7, #24]
 618:Lib/FreeRTOS/Source/tasks.c ****     }
 291              		.loc 1 618 5
 292 00a8 1846     		mov	r0, r3
 293 00aa 2037     		adds	r7, r7, #32
 294              		.cfi_def_cfa_offset 8
 295 00ac BD46     		mov	sp, r7
 296              		.cfi_def_cfa_register 13
 297              		@ sp needed
 298 00ae 80BD     		pop	{r7, pc}
 299              	.L9:
 300              		.align	2
 301              	.L8:
 302 00b0 00000000 		.word	.LC0
 303 00b4 00000000 		.word	__func__.34
 304 00b8 04000000 		.word	.LC1
 305              		.cfi_endproc
 306              	.LFE0:
 308              		.section	.text.prvInitialiseNewTask,"ax",%progbits
 309              		.align	1
 310              		.syntax unified
 311              		.thumb
 312              		.thumb_func
 314              	prvInitialiseNewTask:
 315              	.LFB1:
 619:Lib/FreeRTOS/Source/tasks.c **** 
 620:Lib/FreeRTOS/Source/tasks.c **** #endif /* SUPPORT_STATIC_ALLOCATION */
ARM GAS  /tmp/ccTFOe4z.s 			page 17


 621:Lib/FreeRTOS/Source/tasks.c **** /*-----------------------------------------------------------*/
 622:Lib/FreeRTOS/Source/tasks.c **** 
 623:Lib/FreeRTOS/Source/tasks.c **** #if ( ( portUSING_MPU_WRAPPERS == 1 ) && ( configSUPPORT_STATIC_ALLOCATION == 1 ) )
 624:Lib/FreeRTOS/Source/tasks.c **** 
 625:Lib/FreeRTOS/Source/tasks.c ****     BaseType_t xTaskCreateRestrictedStatic( const TaskParameters_t * const pxTaskDefinition,
 626:Lib/FreeRTOS/Source/tasks.c ****                                             TaskHandle_t * pxCreatedTask )
 627:Lib/FreeRTOS/Source/tasks.c ****     {
 628:Lib/FreeRTOS/Source/tasks.c ****         TCB_t * pxNewTCB;
 629:Lib/FreeRTOS/Source/tasks.c ****         BaseType_t xReturn = errCOULD_NOT_ALLOCATE_REQUIRED_MEMORY;
 630:Lib/FreeRTOS/Source/tasks.c **** 
 631:Lib/FreeRTOS/Source/tasks.c ****         configASSERT( pxTaskDefinition->puxStackBuffer != NULL );
 632:Lib/FreeRTOS/Source/tasks.c ****         configASSERT( pxTaskDefinition->pxTaskBuffer != NULL );
 633:Lib/FreeRTOS/Source/tasks.c **** 
 634:Lib/FreeRTOS/Source/tasks.c ****         if( ( pxTaskDefinition->puxStackBuffer != NULL ) && ( pxTaskDefinition->pxTaskBuffer != NUL
 635:Lib/FreeRTOS/Source/tasks.c ****         {
 636:Lib/FreeRTOS/Source/tasks.c ****             /* Allocate space for the TCB.  Where the memory comes from depends
 637:Lib/FreeRTOS/Source/tasks.c ****              * on the implementation of the port malloc function and whether or
 638:Lib/FreeRTOS/Source/tasks.c ****              * not static allocation is being used. */
 639:Lib/FreeRTOS/Source/tasks.c ****             pxNewTCB = ( TCB_t * ) pxTaskDefinition->pxTaskBuffer;
 640:Lib/FreeRTOS/Source/tasks.c ****             memset( ( void * ) pxNewTCB, 0x00, sizeof( TCB_t ) );
 641:Lib/FreeRTOS/Source/tasks.c **** 
 642:Lib/FreeRTOS/Source/tasks.c ****             /* Store the stack location in the TCB. */
 643:Lib/FreeRTOS/Source/tasks.c ****             pxNewTCB->pxStack = pxTaskDefinition->puxStackBuffer;
 644:Lib/FreeRTOS/Source/tasks.c **** 
 645:Lib/FreeRTOS/Source/tasks.c ****             #if ( tskSTATIC_AND_DYNAMIC_ALLOCATION_POSSIBLE != 0 )
 646:Lib/FreeRTOS/Source/tasks.c ****             {
 647:Lib/FreeRTOS/Source/tasks.c ****                 /* Tasks can be created statically or dynamically, so note this
 648:Lib/FreeRTOS/Source/tasks.c ****                  * task was created statically in case the task is later deleted. */
 649:Lib/FreeRTOS/Source/tasks.c ****                 pxNewTCB->ucStaticallyAllocated = tskSTATICALLY_ALLOCATED_STACK_AND_TCB;
 650:Lib/FreeRTOS/Source/tasks.c ****             }
 651:Lib/FreeRTOS/Source/tasks.c ****             #endif /* tskSTATIC_AND_DYNAMIC_ALLOCATION_POSSIBLE */
 652:Lib/FreeRTOS/Source/tasks.c **** 
 653:Lib/FreeRTOS/Source/tasks.c ****             prvInitialiseNewTask( pxTaskDefinition->pvTaskCode,
 654:Lib/FreeRTOS/Source/tasks.c ****                                   pxTaskDefinition->pcName,
 655:Lib/FreeRTOS/Source/tasks.c ****                                   ( uint32_t ) pxTaskDefinition->usStackDepth,
 656:Lib/FreeRTOS/Source/tasks.c ****                                   pxTaskDefinition->pvParameters,
 657:Lib/FreeRTOS/Source/tasks.c ****                                   pxTaskDefinition->uxPriority,
 658:Lib/FreeRTOS/Source/tasks.c ****                                   pxCreatedTask, pxNewTCB,
 659:Lib/FreeRTOS/Source/tasks.c ****                                   pxTaskDefinition->xRegions );
 660:Lib/FreeRTOS/Source/tasks.c **** 
 661:Lib/FreeRTOS/Source/tasks.c ****             prvAddNewTaskToReadyList( pxNewTCB );
 662:Lib/FreeRTOS/Source/tasks.c ****             xReturn = pdPASS;
 663:Lib/FreeRTOS/Source/tasks.c ****         }
 664:Lib/FreeRTOS/Source/tasks.c **** 
 665:Lib/FreeRTOS/Source/tasks.c ****         return xReturn;
 666:Lib/FreeRTOS/Source/tasks.c ****     }
 667:Lib/FreeRTOS/Source/tasks.c **** 
 668:Lib/FreeRTOS/Source/tasks.c **** #endif /* ( portUSING_MPU_WRAPPERS == 1 ) && ( configSUPPORT_STATIC_ALLOCATION == 1 ) */
 669:Lib/FreeRTOS/Source/tasks.c **** /*-----------------------------------------------------------*/
 670:Lib/FreeRTOS/Source/tasks.c **** 
 671:Lib/FreeRTOS/Source/tasks.c **** #if ( ( portUSING_MPU_WRAPPERS == 1 ) && ( configSUPPORT_DYNAMIC_ALLOCATION == 1 ) )
 672:Lib/FreeRTOS/Source/tasks.c **** 
 673:Lib/FreeRTOS/Source/tasks.c ****     BaseType_t xTaskCreateRestricted( const TaskParameters_t * const pxTaskDefinition,
 674:Lib/FreeRTOS/Source/tasks.c ****                                       TaskHandle_t * pxCreatedTask )
 675:Lib/FreeRTOS/Source/tasks.c ****     {
 676:Lib/FreeRTOS/Source/tasks.c ****         TCB_t * pxNewTCB;
 677:Lib/FreeRTOS/Source/tasks.c ****         BaseType_t xReturn = errCOULD_NOT_ALLOCATE_REQUIRED_MEMORY;
ARM GAS  /tmp/ccTFOe4z.s 			page 18


 678:Lib/FreeRTOS/Source/tasks.c **** 
 679:Lib/FreeRTOS/Source/tasks.c ****         configASSERT( pxTaskDefinition->puxStackBuffer );
 680:Lib/FreeRTOS/Source/tasks.c **** 
 681:Lib/FreeRTOS/Source/tasks.c ****         if( pxTaskDefinition->puxStackBuffer != NULL )
 682:Lib/FreeRTOS/Source/tasks.c ****         {
 683:Lib/FreeRTOS/Source/tasks.c ****             /* Allocate space for the TCB.  Where the memory comes from depends
 684:Lib/FreeRTOS/Source/tasks.c ****              * on the implementation of the port malloc function and whether or
 685:Lib/FreeRTOS/Source/tasks.c ****              * not static allocation is being used. */
 686:Lib/FreeRTOS/Source/tasks.c ****             pxNewTCB = ( TCB_t * ) pvPortMalloc( sizeof( TCB_t ) );
 687:Lib/FreeRTOS/Source/tasks.c **** 
 688:Lib/FreeRTOS/Source/tasks.c ****             if( pxNewTCB != NULL )
 689:Lib/FreeRTOS/Source/tasks.c ****             {
 690:Lib/FreeRTOS/Source/tasks.c ****                 memset( ( void * ) pxNewTCB, 0x00, sizeof( TCB_t ) );
 691:Lib/FreeRTOS/Source/tasks.c **** 
 692:Lib/FreeRTOS/Source/tasks.c ****                 /* Store the stack location in the TCB. */
 693:Lib/FreeRTOS/Source/tasks.c ****                 pxNewTCB->pxStack = pxTaskDefinition->puxStackBuffer;
 694:Lib/FreeRTOS/Source/tasks.c **** 
 695:Lib/FreeRTOS/Source/tasks.c ****                 #if ( tskSTATIC_AND_DYNAMIC_ALLOCATION_POSSIBLE != 0 )
 696:Lib/FreeRTOS/Source/tasks.c ****                 {
 697:Lib/FreeRTOS/Source/tasks.c ****                     /* Tasks can be created statically or dynamically, so note
 698:Lib/FreeRTOS/Source/tasks.c ****                      * this task had a statically allocated stack in case it is
 699:Lib/FreeRTOS/Source/tasks.c ****                      * later deleted.  The TCB was allocated dynamically. */
 700:Lib/FreeRTOS/Source/tasks.c ****                     pxNewTCB->ucStaticallyAllocated = tskSTATICALLY_ALLOCATED_STACK_ONLY;
 701:Lib/FreeRTOS/Source/tasks.c ****                 }
 702:Lib/FreeRTOS/Source/tasks.c ****                 #endif /* tskSTATIC_AND_DYNAMIC_ALLOCATION_POSSIBLE */
 703:Lib/FreeRTOS/Source/tasks.c **** 
 704:Lib/FreeRTOS/Source/tasks.c ****                 prvInitialiseNewTask( pxTaskDefinition->pvTaskCode,
 705:Lib/FreeRTOS/Source/tasks.c ****                                       pxTaskDefinition->pcName,
 706:Lib/FreeRTOS/Source/tasks.c ****                                       ( uint32_t ) pxTaskDefinition->usStackDepth,
 707:Lib/FreeRTOS/Source/tasks.c ****                                       pxTaskDefinition->pvParameters,
 708:Lib/FreeRTOS/Source/tasks.c ****                                       pxTaskDefinition->uxPriority,
 709:Lib/FreeRTOS/Source/tasks.c ****                                       pxCreatedTask, pxNewTCB,
 710:Lib/FreeRTOS/Source/tasks.c ****                                       pxTaskDefinition->xRegions );
 711:Lib/FreeRTOS/Source/tasks.c **** 
 712:Lib/FreeRTOS/Source/tasks.c ****                 prvAddNewTaskToReadyList( pxNewTCB );
 713:Lib/FreeRTOS/Source/tasks.c ****                 xReturn = pdPASS;
 714:Lib/FreeRTOS/Source/tasks.c ****             }
 715:Lib/FreeRTOS/Source/tasks.c ****         }
 716:Lib/FreeRTOS/Source/tasks.c **** 
 717:Lib/FreeRTOS/Source/tasks.c ****         return xReturn;
 718:Lib/FreeRTOS/Source/tasks.c ****     }
 719:Lib/FreeRTOS/Source/tasks.c **** 
 720:Lib/FreeRTOS/Source/tasks.c **** #endif /* portUSING_MPU_WRAPPERS */
 721:Lib/FreeRTOS/Source/tasks.c **** /*-----------------------------------------------------------*/
 722:Lib/FreeRTOS/Source/tasks.c **** 
 723:Lib/FreeRTOS/Source/tasks.c **** #if ( configSUPPORT_DYNAMIC_ALLOCATION == 1 )
 724:Lib/FreeRTOS/Source/tasks.c **** 
 725:Lib/FreeRTOS/Source/tasks.c ****     BaseType_t xTaskCreate( TaskFunction_t pxTaskCode,
 726:Lib/FreeRTOS/Source/tasks.c ****                             const char * const pcName, /*lint !e971 Unqualified char types are allo
 727:Lib/FreeRTOS/Source/tasks.c ****                             const configSTACK_DEPTH_TYPE usStackDepth,
 728:Lib/FreeRTOS/Source/tasks.c ****                             void * const pvParameters,
 729:Lib/FreeRTOS/Source/tasks.c ****                             UBaseType_t uxPriority,
 730:Lib/FreeRTOS/Source/tasks.c ****                             TaskHandle_t * const pxCreatedTask )
 731:Lib/FreeRTOS/Source/tasks.c ****     {
 732:Lib/FreeRTOS/Source/tasks.c ****         TCB_t * pxNewTCB;
 733:Lib/FreeRTOS/Source/tasks.c ****         BaseType_t xReturn;
 734:Lib/FreeRTOS/Source/tasks.c **** 
ARM GAS  /tmp/ccTFOe4z.s 			page 19


 735:Lib/FreeRTOS/Source/tasks.c ****         /* If the stack grows down then allocate the stack then the TCB so the stack
 736:Lib/FreeRTOS/Source/tasks.c ****          * does not grow into the TCB.  Likewise if the stack grows up then allocate
 737:Lib/FreeRTOS/Source/tasks.c ****          * the TCB then the stack. */
 738:Lib/FreeRTOS/Source/tasks.c ****         #if ( portSTACK_GROWTH > 0 )
 739:Lib/FreeRTOS/Source/tasks.c ****         {
 740:Lib/FreeRTOS/Source/tasks.c ****             /* Allocate space for the TCB.  Where the memory comes from depends on
 741:Lib/FreeRTOS/Source/tasks.c ****              * the implementation of the port malloc function and whether or not static
 742:Lib/FreeRTOS/Source/tasks.c ****              * allocation is being used. */
 743:Lib/FreeRTOS/Source/tasks.c ****             pxNewTCB = ( TCB_t * ) pvPortMalloc( sizeof( TCB_t ) );
 744:Lib/FreeRTOS/Source/tasks.c **** 
 745:Lib/FreeRTOS/Source/tasks.c ****             if( pxNewTCB != NULL )
 746:Lib/FreeRTOS/Source/tasks.c ****             {
 747:Lib/FreeRTOS/Source/tasks.c ****                 memset( ( void * ) pxNewTCB, 0x00, sizeof( TCB_t ) );
 748:Lib/FreeRTOS/Source/tasks.c **** 
 749:Lib/FreeRTOS/Source/tasks.c ****                 /* Allocate space for the stack used by the task being created.
 750:Lib/FreeRTOS/Source/tasks.c ****                  * The base of the stack memory stored in the TCB so the task can
 751:Lib/FreeRTOS/Source/tasks.c ****                  * be deleted later if required. */
 752:Lib/FreeRTOS/Source/tasks.c ****                 pxNewTCB->pxStack = ( StackType_t * ) pvPortMallocStack( ( ( ( size_t ) usStackDept
 753:Lib/FreeRTOS/Source/tasks.c **** 
 754:Lib/FreeRTOS/Source/tasks.c ****                 if( pxNewTCB->pxStack == NULL )
 755:Lib/FreeRTOS/Source/tasks.c ****                 {
 756:Lib/FreeRTOS/Source/tasks.c ****                     /* Could not allocate the stack.  Delete the allocated TCB. */
 757:Lib/FreeRTOS/Source/tasks.c ****                     vPortFree( pxNewTCB );
 758:Lib/FreeRTOS/Source/tasks.c ****                     pxNewTCB = NULL;
 759:Lib/FreeRTOS/Source/tasks.c ****                 }
 760:Lib/FreeRTOS/Source/tasks.c ****             }
 761:Lib/FreeRTOS/Source/tasks.c ****         }
 762:Lib/FreeRTOS/Source/tasks.c ****         #else /* portSTACK_GROWTH */
 763:Lib/FreeRTOS/Source/tasks.c ****         {
 764:Lib/FreeRTOS/Source/tasks.c ****             StackType_t * pxStack;
 765:Lib/FreeRTOS/Source/tasks.c **** 
 766:Lib/FreeRTOS/Source/tasks.c ****             /* Allocate space for the stack used by the task being created. */
 767:Lib/FreeRTOS/Source/tasks.c ****             pxStack = pvPortMallocStack( ( ( ( size_t ) usStackDepth ) * sizeof( StackType_t ) ) );
 768:Lib/FreeRTOS/Source/tasks.c **** 
 769:Lib/FreeRTOS/Source/tasks.c ****             if( pxStack != NULL )
 770:Lib/FreeRTOS/Source/tasks.c ****             {
 771:Lib/FreeRTOS/Source/tasks.c ****                 /* Allocate space for the TCB. */
 772:Lib/FreeRTOS/Source/tasks.c ****                 pxNewTCB = ( TCB_t * ) pvPortMalloc( sizeof( TCB_t ) ); /*lint !e9087 !e9079 All va
 773:Lib/FreeRTOS/Source/tasks.c **** 
 774:Lib/FreeRTOS/Source/tasks.c ****                 if( pxNewTCB != NULL )
 775:Lib/FreeRTOS/Source/tasks.c ****                 {
 776:Lib/FreeRTOS/Source/tasks.c ****                     memset( ( void * ) pxNewTCB, 0x00, sizeof( TCB_t ) );
 777:Lib/FreeRTOS/Source/tasks.c **** 
 778:Lib/FreeRTOS/Source/tasks.c ****                     /* Store the stack location in the TCB. */
 779:Lib/FreeRTOS/Source/tasks.c ****                     pxNewTCB->pxStack = pxStack;
 780:Lib/FreeRTOS/Source/tasks.c ****                 }
 781:Lib/FreeRTOS/Source/tasks.c ****                 else
 782:Lib/FreeRTOS/Source/tasks.c ****                 {
 783:Lib/FreeRTOS/Source/tasks.c ****                     /* The stack cannot be used as the TCB was not created.  Free
 784:Lib/FreeRTOS/Source/tasks.c ****                      * it again. */
 785:Lib/FreeRTOS/Source/tasks.c ****                     vPortFreeStack( pxStack );
 786:Lib/FreeRTOS/Source/tasks.c ****                 }
 787:Lib/FreeRTOS/Source/tasks.c ****             }
 788:Lib/FreeRTOS/Source/tasks.c ****             else
 789:Lib/FreeRTOS/Source/tasks.c ****             {
 790:Lib/FreeRTOS/Source/tasks.c ****                 pxNewTCB = NULL;
 791:Lib/FreeRTOS/Source/tasks.c ****             }
ARM GAS  /tmp/ccTFOe4z.s 			page 20


 792:Lib/FreeRTOS/Source/tasks.c ****         }
 793:Lib/FreeRTOS/Source/tasks.c ****         #endif /* portSTACK_GROWTH */
 794:Lib/FreeRTOS/Source/tasks.c **** 
 795:Lib/FreeRTOS/Source/tasks.c ****         if( pxNewTCB != NULL )
 796:Lib/FreeRTOS/Source/tasks.c ****         {
 797:Lib/FreeRTOS/Source/tasks.c ****             #if ( tskSTATIC_AND_DYNAMIC_ALLOCATION_POSSIBLE != 0 ) /*lint !e9029 !e731 Macro has be
 798:Lib/FreeRTOS/Source/tasks.c ****             {
 799:Lib/FreeRTOS/Source/tasks.c ****                 /* Tasks can be created statically or dynamically, so note this
 800:Lib/FreeRTOS/Source/tasks.c ****                  * task was created dynamically in case it is later deleted. */
 801:Lib/FreeRTOS/Source/tasks.c ****                 pxNewTCB->ucStaticallyAllocated = tskDYNAMICALLY_ALLOCATED_STACK_AND_TCB;
 802:Lib/FreeRTOS/Source/tasks.c ****             }
 803:Lib/FreeRTOS/Source/tasks.c ****             #endif /* tskSTATIC_AND_DYNAMIC_ALLOCATION_POSSIBLE */
 804:Lib/FreeRTOS/Source/tasks.c **** 
 805:Lib/FreeRTOS/Source/tasks.c ****             prvInitialiseNewTask( pxTaskCode, pcName, ( uint32_t ) usStackDepth, pvParameters, uxPr
 806:Lib/FreeRTOS/Source/tasks.c ****             prvAddNewTaskToReadyList( pxNewTCB );
 807:Lib/FreeRTOS/Source/tasks.c ****             xReturn = pdPASS;
 808:Lib/FreeRTOS/Source/tasks.c ****         }
 809:Lib/FreeRTOS/Source/tasks.c ****         else
 810:Lib/FreeRTOS/Source/tasks.c ****         {
 811:Lib/FreeRTOS/Source/tasks.c ****             xReturn = errCOULD_NOT_ALLOCATE_REQUIRED_MEMORY;
 812:Lib/FreeRTOS/Source/tasks.c ****         }
 813:Lib/FreeRTOS/Source/tasks.c **** 
 814:Lib/FreeRTOS/Source/tasks.c ****         return xReturn;
 815:Lib/FreeRTOS/Source/tasks.c ****     }
 816:Lib/FreeRTOS/Source/tasks.c **** 
 817:Lib/FreeRTOS/Source/tasks.c **** #endif /* configSUPPORT_DYNAMIC_ALLOCATION */
 818:Lib/FreeRTOS/Source/tasks.c **** /*-----------------------------------------------------------*/
 819:Lib/FreeRTOS/Source/tasks.c **** 
 820:Lib/FreeRTOS/Source/tasks.c **** static void prvInitialiseNewTask( TaskFunction_t pxTaskCode,
 821:Lib/FreeRTOS/Source/tasks.c ****                                   const char * const pcName, /*lint !e971 Unqualified char types ar
 822:Lib/FreeRTOS/Source/tasks.c ****                                   const uint32_t ulStackDepth,
 823:Lib/FreeRTOS/Source/tasks.c ****                                   void * const pvParameters,
 824:Lib/FreeRTOS/Source/tasks.c ****                                   UBaseType_t uxPriority,
 825:Lib/FreeRTOS/Source/tasks.c ****                                   TaskHandle_t * const pxCreatedTask,
 826:Lib/FreeRTOS/Source/tasks.c ****                                   TCB_t * pxNewTCB,
 827:Lib/FreeRTOS/Source/tasks.c ****                                   const MemoryRegion_t * const xRegions )
 828:Lib/FreeRTOS/Source/tasks.c **** {
 316              		.loc 1 828 1
 317              		.cfi_startproc
 318              		@ args = 16, pretend = 0, frame = 24
 319              		@ frame_needed = 1, uses_anonymous_args = 0
 320 0000 80B5     		push	{r7, lr}
 321              		.cfi_def_cfa_offset 8
 322              		.cfi_offset 7, -8
 323              		.cfi_offset 14, -4
 324 0002 86B0     		sub	sp, sp, #24
 325              		.cfi_def_cfa_offset 32
 326 0004 00AF     		add	r7, sp, #0
 327              		.cfi_def_cfa_register 7
 328 0006 F860     		str	r0, [r7, #12]
 329 0008 B960     		str	r1, [r7, #8]
 330 000a 7A60     		str	r2, [r7, #4]
 331 000c 3B60     		str	r3, [r7]
 829:Lib/FreeRTOS/Source/tasks.c ****     StackType_t * pxTopOfStack;
 830:Lib/FreeRTOS/Source/tasks.c ****     UBaseType_t x;
 831:Lib/FreeRTOS/Source/tasks.c **** 
 832:Lib/FreeRTOS/Source/tasks.c ****     #if ( portUSING_MPU_WRAPPERS == 1 )
ARM GAS  /tmp/ccTFOe4z.s 			page 21


 833:Lib/FreeRTOS/Source/tasks.c ****         /* Should the task be created in privileged mode? */
 834:Lib/FreeRTOS/Source/tasks.c ****         BaseType_t xRunPrivileged;
 835:Lib/FreeRTOS/Source/tasks.c **** 
 836:Lib/FreeRTOS/Source/tasks.c ****         if( ( uxPriority & portPRIVILEGE_BIT ) != 0U )
 837:Lib/FreeRTOS/Source/tasks.c ****         {
 838:Lib/FreeRTOS/Source/tasks.c ****             xRunPrivileged = pdTRUE;
 839:Lib/FreeRTOS/Source/tasks.c ****         }
 840:Lib/FreeRTOS/Source/tasks.c ****         else
 841:Lib/FreeRTOS/Source/tasks.c ****         {
 842:Lib/FreeRTOS/Source/tasks.c ****             xRunPrivileged = pdFALSE;
 843:Lib/FreeRTOS/Source/tasks.c ****         }
 844:Lib/FreeRTOS/Source/tasks.c ****         uxPriority &= ~portPRIVILEGE_BIT;
 845:Lib/FreeRTOS/Source/tasks.c ****     #endif /* portUSING_MPU_WRAPPERS == 1 */
 846:Lib/FreeRTOS/Source/tasks.c **** 
 847:Lib/FreeRTOS/Source/tasks.c ****     /* Avoid dependency on memset() if it is not required. */
 848:Lib/FreeRTOS/Source/tasks.c ****     #if ( tskSET_NEW_STACKS_TO_KNOWN_VALUE == 1 )
 849:Lib/FreeRTOS/Source/tasks.c ****     {
 850:Lib/FreeRTOS/Source/tasks.c ****         /* Fill the stack with a known value to assist debugging. */
 851:Lib/FreeRTOS/Source/tasks.c ****         ( void ) memset( pxNewTCB->pxStack, ( int ) tskSTACK_FILL_BYTE, ( size_t ) ulStackDepth * s
 332              		.loc 1 851 34
 333 000e BB6A     		ldr	r3, [r7, #40]
 334 0010 186B     		ldr	r0, [r3, #48]
 335              		.loc 1 851 18
 336 0012 7B68     		ldr	r3, [r7, #4]
 337 0014 9B00     		lsls	r3, r3, #2
 338 0016 1A46     		mov	r2, r3
 339 0018 A521     		movs	r1, #165
 340 001a FFF7FEFF 		bl	memset
 852:Lib/FreeRTOS/Source/tasks.c ****     }
 853:Lib/FreeRTOS/Source/tasks.c ****     #endif /* tskSET_NEW_STACKS_TO_KNOWN_VALUE */
 854:Lib/FreeRTOS/Source/tasks.c **** 
 855:Lib/FreeRTOS/Source/tasks.c ****     /* Calculate the top of stack address.  This depends on whether the stack
 856:Lib/FreeRTOS/Source/tasks.c ****      * grows from high memory to low (as per the 80x86) or vice versa.
 857:Lib/FreeRTOS/Source/tasks.c ****      * portSTACK_GROWTH is used to make the result positive or negative as required
 858:Lib/FreeRTOS/Source/tasks.c ****      * by the port. */
 859:Lib/FreeRTOS/Source/tasks.c ****     #if ( portSTACK_GROWTH < 0 )
 860:Lib/FreeRTOS/Source/tasks.c ****     {
 861:Lib/FreeRTOS/Source/tasks.c ****         pxTopOfStack = &( pxNewTCB->pxStack[ ulStackDepth - ( uint32_t ) 1 ] );
 341              		.loc 1 861 35
 342 001e BB6A     		ldr	r3, [r7, #40]
 343 0020 1A6B     		ldr	r2, [r3, #48]
 344              		.loc 1 861 44
 345 0022 7B68     		ldr	r3, [r7, #4]
 346 0024 03F18043 		add	r3, r3, #1073741824
 347 0028 013B     		subs	r3, r3, #1
 348 002a 9B00     		lsls	r3, r3, #2
 349              		.loc 1 861 22
 350 002c 1344     		add	r3, r3, r2
 351 002e 3B61     		str	r3, [r7, #16]
 862:Lib/FreeRTOS/Source/tasks.c ****         pxTopOfStack = ( StackType_t * ) ( ( ( portPOINTER_SIZE_TYPE ) pxTopOfStack ) & ( ~( ( port
 352              		.loc 1 862 46
 353 0030 3B69     		ldr	r3, [r7, #16]
 354              		.loc 1 862 87
 355 0032 23F00703 		bic	r3, r3, #7
 356              		.loc 1 862 22
 357 0036 3B61     		str	r3, [r7, #16]
 863:Lib/FreeRTOS/Source/tasks.c **** 
ARM GAS  /tmp/ccTFOe4z.s 			page 22


 864:Lib/FreeRTOS/Source/tasks.c ****         /* Check the alignment of the calculated top of stack is correct. */
 865:Lib/FreeRTOS/Source/tasks.c ****         configASSERT( ( ( ( portPOINTER_SIZE_TYPE ) pxTopOfStack & ( portPOINTER_SIZE_TYPE ) portBY
 358              		.loc 1 865 9
 359 0038 3B69     		ldr	r3, [r7, #16]
 360 003a 03F00703 		and	r3, r3, #7
 361 003e 002B     		cmp	r3, #0
 362 0040 08D0     		beq	.L11
 363              		.loc 1 865 9 is_stmt 0 discriminator 1
 364 0042 FFF7FEFF 		bl	ulSetInterruptMask
 365 0046 344B     		ldr	r3, .L22
 366 0048 344A     		ldr	r2, .L22+4
 367 004a 40F26131 		movw	r1, #865
 368 004e 3448     		ldr	r0, .L22+8
 369 0050 FFF7FEFF 		bl	__assert_func
 370              	.L11:
 866:Lib/FreeRTOS/Source/tasks.c **** 
 867:Lib/FreeRTOS/Source/tasks.c ****         #if ( configRECORD_STACK_HIGH_ADDRESS == 1 )
 868:Lib/FreeRTOS/Source/tasks.c ****         {
 869:Lib/FreeRTOS/Source/tasks.c ****             /* Also record the stack's high address, which may assist
 870:Lib/FreeRTOS/Source/tasks.c ****              * debugging. */
 871:Lib/FreeRTOS/Source/tasks.c ****             pxNewTCB->pxEndOfStack = pxTopOfStack;
 872:Lib/FreeRTOS/Source/tasks.c ****         }
 873:Lib/FreeRTOS/Source/tasks.c ****         #endif /* configRECORD_STACK_HIGH_ADDRESS */
 874:Lib/FreeRTOS/Source/tasks.c ****     }
 875:Lib/FreeRTOS/Source/tasks.c ****     #else /* portSTACK_GROWTH */
 876:Lib/FreeRTOS/Source/tasks.c ****     {
 877:Lib/FreeRTOS/Source/tasks.c ****         pxTopOfStack = pxNewTCB->pxStack;
 878:Lib/FreeRTOS/Source/tasks.c **** 
 879:Lib/FreeRTOS/Source/tasks.c ****         /* Check the alignment of the stack buffer is correct. */
 880:Lib/FreeRTOS/Source/tasks.c ****         configASSERT( ( ( ( portPOINTER_SIZE_TYPE ) pxNewTCB->pxStack & ( portPOINTER_SIZE_TYPE ) p
 881:Lib/FreeRTOS/Source/tasks.c **** 
 882:Lib/FreeRTOS/Source/tasks.c ****         /* The other extreme of the stack space is required if stack checking is
 883:Lib/FreeRTOS/Source/tasks.c ****          * performed. */
 884:Lib/FreeRTOS/Source/tasks.c ****         pxNewTCB->pxEndOfStack = pxNewTCB->pxStack + ( ulStackDepth - ( uint32_t ) 1 );
 885:Lib/FreeRTOS/Source/tasks.c ****     }
 886:Lib/FreeRTOS/Source/tasks.c ****     #endif /* portSTACK_GROWTH */
 887:Lib/FreeRTOS/Source/tasks.c **** 
 888:Lib/FreeRTOS/Source/tasks.c ****     /* Store the task name in the TCB. */
 889:Lib/FreeRTOS/Source/tasks.c ****     if( pcName != NULL )
 371              		.loc 1 889 7 is_stmt 1
 372 0054 BB68     		ldr	r3, [r7, #8]
 373 0056 002B     		cmp	r3, #0
 374 0058 1ED0     		beq	.L12
 890:Lib/FreeRTOS/Source/tasks.c ****     {
 891:Lib/FreeRTOS/Source/tasks.c ****         for( x = ( UBaseType_t ) 0; x < ( UBaseType_t ) configMAX_TASK_NAME_LEN; x++ )
 375              		.loc 1 891 16
 376 005a 0023     		movs	r3, #0
 377 005c 7B61     		str	r3, [r7, #20]
 378              		.loc 1 891 9
 379 005e 12E0     		b	.L13
 380              	.L16:
 892:Lib/FreeRTOS/Source/tasks.c ****         {
 893:Lib/FreeRTOS/Source/tasks.c ****             pxNewTCB->pcTaskName[ x ] = pcName[ x ];
 381              		.loc 1 893 47
 382 0060 BA68     		ldr	r2, [r7, #8]
 383 0062 7B69     		ldr	r3, [r7, #20]
 384 0064 1344     		add	r3, r3, r2
ARM GAS  /tmp/ccTFOe4z.s 			page 23


 385 0066 1978     		ldrb	r1, [r3]	@ zero_extendqisi2
 386              		.loc 1 893 39
 387 0068 BA6A     		ldr	r2, [r7, #40]
 388 006a 7B69     		ldr	r3, [r7, #20]
 389 006c 1344     		add	r3, r3, r2
 390 006e 3433     		adds	r3, r3, #52
 391 0070 0A46     		mov	r2, r1
 392 0072 1A70     		strb	r2, [r3]
 894:Lib/FreeRTOS/Source/tasks.c **** 
 895:Lib/FreeRTOS/Source/tasks.c ****             /* Don't copy all configMAX_TASK_NAME_LEN if the string is shorter than
 896:Lib/FreeRTOS/Source/tasks.c ****              * configMAX_TASK_NAME_LEN characters just in case the memory after the
 897:Lib/FreeRTOS/Source/tasks.c ****              * string is not accessible (extremely unlikely). */
 898:Lib/FreeRTOS/Source/tasks.c ****             if( pcName[ x ] == ( char ) 0x00 )
 393              		.loc 1 898 23
 394 0074 BA68     		ldr	r2, [r7, #8]
 395 0076 7B69     		ldr	r3, [r7, #20]
 396 0078 1344     		add	r3, r3, r2
 397 007a 1B78     		ldrb	r3, [r3]	@ zero_extendqisi2
 398              		.loc 1 898 15
 399 007c 002B     		cmp	r3, #0
 400 007e 06D0     		beq	.L20
 891:Lib/FreeRTOS/Source/tasks.c ****         {
 401              		.loc 1 891 83 discriminator 2
 402 0080 7B69     		ldr	r3, [r7, #20]
 403 0082 0133     		adds	r3, r3, #1
 404 0084 7B61     		str	r3, [r7, #20]
 405              	.L13:
 891:Lib/FreeRTOS/Source/tasks.c ****         {
 406              		.loc 1 891 39 discriminator 1
 407 0086 7B69     		ldr	r3, [r7, #20]
 408 0088 0F2B     		cmp	r3, #15
 409 008a E9D9     		bls	.L16
 410 008c 00E0     		b	.L15
 411              	.L20:
 899:Lib/FreeRTOS/Source/tasks.c ****             {
 900:Lib/FreeRTOS/Source/tasks.c ****                 break;
 412              		.loc 1 900 17
 413 008e 00BF     		nop
 414              	.L15:
 901:Lib/FreeRTOS/Source/tasks.c ****             }
 902:Lib/FreeRTOS/Source/tasks.c ****             else
 903:Lib/FreeRTOS/Source/tasks.c ****             {
 904:Lib/FreeRTOS/Source/tasks.c ****                 mtCOVERAGE_TEST_MARKER();
 905:Lib/FreeRTOS/Source/tasks.c ****             }
 906:Lib/FreeRTOS/Source/tasks.c ****         }
 907:Lib/FreeRTOS/Source/tasks.c **** 
 908:Lib/FreeRTOS/Source/tasks.c ****         /* Ensure the name string is terminated in the case that the string length
 909:Lib/FreeRTOS/Source/tasks.c ****          * was greater or equal to configMAX_TASK_NAME_LEN. */
 910:Lib/FreeRTOS/Source/tasks.c ****         pxNewTCB->pcTaskName[ configMAX_TASK_NAME_LEN - 1 ] = '\0';
 415              		.loc 1 910 61
 416 0090 BB6A     		ldr	r3, [r7, #40]
 417 0092 0022     		movs	r2, #0
 418 0094 83F84320 		strb	r2, [r3, #67]
 419              	.L12:
 911:Lib/FreeRTOS/Source/tasks.c ****     }
 912:Lib/FreeRTOS/Source/tasks.c ****     else
 913:Lib/FreeRTOS/Source/tasks.c ****     {
ARM GAS  /tmp/ccTFOe4z.s 			page 24


 914:Lib/FreeRTOS/Source/tasks.c ****         mtCOVERAGE_TEST_MARKER();
 915:Lib/FreeRTOS/Source/tasks.c ****     }
 916:Lib/FreeRTOS/Source/tasks.c **** 
 917:Lib/FreeRTOS/Source/tasks.c ****     /* This is used as an array index so must ensure it's not too large. */
 918:Lib/FreeRTOS/Source/tasks.c ****     configASSERT( uxPriority < configMAX_PRIORITIES );
 420              		.loc 1 918 5
 421 0098 3B6A     		ldr	r3, [r7, #32]
 422 009a 372B     		cmp	r3, #55
 423 009c 08D9     		bls	.L17
 424              		.loc 1 918 5 is_stmt 0 discriminator 1
 425 009e FFF7FEFF 		bl	ulSetInterruptMask
 426 00a2 1D4B     		ldr	r3, .L22
 427 00a4 1D4A     		ldr	r2, .L22+4
 428 00a6 40F29631 		movw	r1, #918
 429 00aa 1D48     		ldr	r0, .L22+8
 430 00ac FFF7FEFF 		bl	__assert_func
 431              	.L17:
 919:Lib/FreeRTOS/Source/tasks.c **** 
 920:Lib/FreeRTOS/Source/tasks.c ****     if( uxPriority >= ( UBaseType_t ) configMAX_PRIORITIES )
 432              		.loc 1 920 7 is_stmt 1
 433 00b0 3B6A     		ldr	r3, [r7, #32]
 434 00b2 372B     		cmp	r3, #55
 435 00b4 01D9     		bls	.L18
 921:Lib/FreeRTOS/Source/tasks.c ****     {
 922:Lib/FreeRTOS/Source/tasks.c ****         uxPriority = ( UBaseType_t ) configMAX_PRIORITIES - ( UBaseType_t ) 1U;
 436              		.loc 1 922 20
 437 00b6 3723     		movs	r3, #55
 438 00b8 3B62     		str	r3, [r7, #32]
 439              	.L18:
 923:Lib/FreeRTOS/Source/tasks.c ****     }
 924:Lib/FreeRTOS/Source/tasks.c ****     else
 925:Lib/FreeRTOS/Source/tasks.c ****     {
 926:Lib/FreeRTOS/Source/tasks.c ****         mtCOVERAGE_TEST_MARKER();
 927:Lib/FreeRTOS/Source/tasks.c ****     }
 928:Lib/FreeRTOS/Source/tasks.c **** 
 929:Lib/FreeRTOS/Source/tasks.c ****     pxNewTCB->uxPriority = uxPriority;
 440              		.loc 1 929 26
 441 00ba BB6A     		ldr	r3, [r7, #40]
 442 00bc 3A6A     		ldr	r2, [r7, #32]
 443 00be DA62     		str	r2, [r3, #44]
 930:Lib/FreeRTOS/Source/tasks.c ****     #if ( configUSE_MUTEXES == 1 )
 931:Lib/FreeRTOS/Source/tasks.c ****     {
 932:Lib/FreeRTOS/Source/tasks.c ****         pxNewTCB->uxBasePriority = uxPriority;
 444              		.loc 1 932 34
 445 00c0 BB6A     		ldr	r3, [r7, #40]
 446 00c2 3A6A     		ldr	r2, [r7, #32]
 447 00c4 DA64     		str	r2, [r3, #76]
 933:Lib/FreeRTOS/Source/tasks.c ****     }
 934:Lib/FreeRTOS/Source/tasks.c ****     #endif /* configUSE_MUTEXES */
 935:Lib/FreeRTOS/Source/tasks.c **** 
 936:Lib/FreeRTOS/Source/tasks.c ****     vListInitialiseItem( &( pxNewTCB->xStateListItem ) );
 448              		.loc 1 936 5
 449 00c6 BB6A     		ldr	r3, [r7, #40]
 450 00c8 0433     		adds	r3, r3, #4
 451 00ca 1846     		mov	r0, r3
 452 00cc FFF7FEFF 		bl	vListInitialiseItem
 937:Lib/FreeRTOS/Source/tasks.c ****     vListInitialiseItem( &( pxNewTCB->xEventListItem ) );
ARM GAS  /tmp/ccTFOe4z.s 			page 25


 453              		.loc 1 937 5
 454 00d0 BB6A     		ldr	r3, [r7, #40]
 455 00d2 1833     		adds	r3, r3, #24
 456 00d4 1846     		mov	r0, r3
 457 00d6 FFF7FEFF 		bl	vListInitialiseItem
 938:Lib/FreeRTOS/Source/tasks.c **** 
 939:Lib/FreeRTOS/Source/tasks.c ****     /* Set the pxNewTCB as a link back from the ListItem_t.  This is so we can get
 940:Lib/FreeRTOS/Source/tasks.c ****      * back to  the containing TCB from a generic item in a list. */
 941:Lib/FreeRTOS/Source/tasks.c ****     listSET_LIST_ITEM_OWNER( &( pxNewTCB->xStateListItem ), pxNewTCB );
 458              		.loc 1 941 5
 459 00da BB6A     		ldr	r3, [r7, #40]
 460 00dc BA6A     		ldr	r2, [r7, #40]
 461 00de 1A61     		str	r2, [r3, #16]
 942:Lib/FreeRTOS/Source/tasks.c **** 
 943:Lib/FreeRTOS/Source/tasks.c ****     /* Event lists are always in priority order. */
 944:Lib/FreeRTOS/Source/tasks.c ****     listSET_LIST_ITEM_VALUE( &( pxNewTCB->xEventListItem ), ( TickType_t ) configMAX_PRIORITIES - (
 462              		.loc 1 944 5
 463 00e0 3B6A     		ldr	r3, [r7, #32]
 464 00e2 C3F13802 		rsb	r2, r3, #56
 465 00e6 BB6A     		ldr	r3, [r7, #40]
 466 00e8 9A61     		str	r2, [r3, #24]
 945:Lib/FreeRTOS/Source/tasks.c ****     listSET_LIST_ITEM_OWNER( &( pxNewTCB->xEventListItem ), pxNewTCB );
 467              		.loc 1 945 5
 468 00ea BB6A     		ldr	r3, [r7, #40]
 469 00ec BA6A     		ldr	r2, [r7, #40]
 470 00ee 5A62     		str	r2, [r3, #36]
 946:Lib/FreeRTOS/Source/tasks.c **** 
 947:Lib/FreeRTOS/Source/tasks.c ****     #if ( portUSING_MPU_WRAPPERS == 1 )
 948:Lib/FreeRTOS/Source/tasks.c ****     {
 949:Lib/FreeRTOS/Source/tasks.c ****         vPortStoreTaskMPUSettings( &( pxNewTCB->xMPUSettings ), xRegions, pxNewTCB->pxStack, ulStac
 950:Lib/FreeRTOS/Source/tasks.c ****     }
 951:Lib/FreeRTOS/Source/tasks.c ****     #else
 952:Lib/FreeRTOS/Source/tasks.c ****     {
 953:Lib/FreeRTOS/Source/tasks.c ****         /* Avoid compiler warning about unreferenced parameter. */
 954:Lib/FreeRTOS/Source/tasks.c ****         ( void ) xRegions;
 955:Lib/FreeRTOS/Source/tasks.c ****     }
 956:Lib/FreeRTOS/Source/tasks.c ****     #endif
 957:Lib/FreeRTOS/Source/tasks.c **** 
 958:Lib/FreeRTOS/Source/tasks.c ****     #if ( configUSE_C_RUNTIME_TLS_SUPPORT == 1 )
 959:Lib/FreeRTOS/Source/tasks.c ****     {
 960:Lib/FreeRTOS/Source/tasks.c ****         /* Allocate and initialize memory for the task's TLS Block. */
 961:Lib/FreeRTOS/Source/tasks.c ****         configINIT_TLS_BLOCK( pxNewTCB->xTLSBlock, pxTopOfStack );
 962:Lib/FreeRTOS/Source/tasks.c ****     }
 963:Lib/FreeRTOS/Source/tasks.c ****     #endif
 964:Lib/FreeRTOS/Source/tasks.c **** 
 965:Lib/FreeRTOS/Source/tasks.c ****     /* Initialize the TCB stack to look as if the task was already running,
 966:Lib/FreeRTOS/Source/tasks.c ****      * but had been interrupted by the scheduler.  The return address is set
 967:Lib/FreeRTOS/Source/tasks.c ****      * to the start of the task function. Once the stack has been initialised
 968:Lib/FreeRTOS/Source/tasks.c ****      * the top of stack variable is updated. */
 969:Lib/FreeRTOS/Source/tasks.c ****     #if ( portUSING_MPU_WRAPPERS == 1 )
 970:Lib/FreeRTOS/Source/tasks.c ****     {
 971:Lib/FreeRTOS/Source/tasks.c ****         /* If the port has capability to detect stack overflow,
 972:Lib/FreeRTOS/Source/tasks.c ****          * pass the stack end address to the stack initialization
 973:Lib/FreeRTOS/Source/tasks.c ****          * function as well. */
 974:Lib/FreeRTOS/Source/tasks.c ****         #if ( portHAS_STACK_OVERFLOW_CHECKING == 1 )
 975:Lib/FreeRTOS/Source/tasks.c ****         {
 976:Lib/FreeRTOS/Source/tasks.c ****             #if ( portSTACK_GROWTH < 0 )
ARM GAS  /tmp/ccTFOe4z.s 			page 26


 977:Lib/FreeRTOS/Source/tasks.c ****             {
 978:Lib/FreeRTOS/Source/tasks.c ****                 pxNewTCB->pxTopOfStack = pxPortInitialiseStack( pxTopOfStack, pxNewTCB->pxStack, px
 979:Lib/FreeRTOS/Source/tasks.c ****             }
 980:Lib/FreeRTOS/Source/tasks.c ****             #else /* portSTACK_GROWTH */
 981:Lib/FreeRTOS/Source/tasks.c ****             {
 982:Lib/FreeRTOS/Source/tasks.c ****                 pxNewTCB->pxTopOfStack = pxPortInitialiseStack( pxTopOfStack, pxNewTCB->pxEndOfStac
 983:Lib/FreeRTOS/Source/tasks.c ****             }
 984:Lib/FreeRTOS/Source/tasks.c ****             #endif /* portSTACK_GROWTH */
 985:Lib/FreeRTOS/Source/tasks.c ****         }
 986:Lib/FreeRTOS/Source/tasks.c ****         #else /* portHAS_STACK_OVERFLOW_CHECKING */
 987:Lib/FreeRTOS/Source/tasks.c ****         {
 988:Lib/FreeRTOS/Source/tasks.c ****             pxNewTCB->pxTopOfStack = pxPortInitialiseStack( pxTopOfStack, pxTaskCode, pvParameters,
 989:Lib/FreeRTOS/Source/tasks.c ****         }
 990:Lib/FreeRTOS/Source/tasks.c ****         #endif /* portHAS_STACK_OVERFLOW_CHECKING */
 991:Lib/FreeRTOS/Source/tasks.c ****     }
 992:Lib/FreeRTOS/Source/tasks.c ****     #else /* portUSING_MPU_WRAPPERS */
 993:Lib/FreeRTOS/Source/tasks.c ****     {
 994:Lib/FreeRTOS/Source/tasks.c ****         /* If the port has capability to detect stack overflow,
 995:Lib/FreeRTOS/Source/tasks.c ****          * pass the stack end address to the stack initialization
 996:Lib/FreeRTOS/Source/tasks.c ****          * function as well. */
 997:Lib/FreeRTOS/Source/tasks.c ****         #if ( portHAS_STACK_OVERFLOW_CHECKING == 1 )
 998:Lib/FreeRTOS/Source/tasks.c ****         {
 999:Lib/FreeRTOS/Source/tasks.c ****             #if ( portSTACK_GROWTH < 0 )
1000:Lib/FreeRTOS/Source/tasks.c ****             {
1001:Lib/FreeRTOS/Source/tasks.c ****                 pxNewTCB->pxTopOfStack = pxPortInitialiseStack( pxTopOfStack, pxNewTCB->pxStack, px
 471              		.loc 1 1001 42
 472 00f0 BB6A     		ldr	r3, [r7, #40]
 473 00f2 196B     		ldr	r1, [r3, #48]
 474 00f4 3B68     		ldr	r3, [r7]
 475 00f6 FA68     		ldr	r2, [r7, #12]
 476 00f8 3869     		ldr	r0, [r7, #16]
 477 00fa FFF7FEFF 		bl	pxPortInitialiseStack
 478 00fe 0246     		mov	r2, r0
 479              		.loc 1 1001 40 discriminator 1
 480 0100 BB6A     		ldr	r3, [r7, #40]
 481 0102 1A60     		str	r2, [r3]
1002:Lib/FreeRTOS/Source/tasks.c ****             }
1003:Lib/FreeRTOS/Source/tasks.c ****             #else /* portSTACK_GROWTH */
1004:Lib/FreeRTOS/Source/tasks.c ****             {
1005:Lib/FreeRTOS/Source/tasks.c ****                 pxNewTCB->pxTopOfStack = pxPortInitialiseStack( pxTopOfStack, pxNewTCB->pxEndOfStac
1006:Lib/FreeRTOS/Source/tasks.c ****             }
1007:Lib/FreeRTOS/Source/tasks.c ****             #endif /* portSTACK_GROWTH */
1008:Lib/FreeRTOS/Source/tasks.c ****         }
1009:Lib/FreeRTOS/Source/tasks.c ****         #else /* portHAS_STACK_OVERFLOW_CHECKING */
1010:Lib/FreeRTOS/Source/tasks.c ****         {
1011:Lib/FreeRTOS/Source/tasks.c ****             pxNewTCB->pxTopOfStack = pxPortInitialiseStack( pxTopOfStack, pxTaskCode, pvParameters 
1012:Lib/FreeRTOS/Source/tasks.c ****         }
1013:Lib/FreeRTOS/Source/tasks.c ****         #endif /* portHAS_STACK_OVERFLOW_CHECKING */
1014:Lib/FreeRTOS/Source/tasks.c ****     }
1015:Lib/FreeRTOS/Source/tasks.c ****     #endif /* portUSING_MPU_WRAPPERS */
1016:Lib/FreeRTOS/Source/tasks.c **** 
1017:Lib/FreeRTOS/Source/tasks.c ****     if( pxCreatedTask != NULL )
 482              		.loc 1 1017 7
 483 0104 7B6A     		ldr	r3, [r7, #36]
 484 0106 002B     		cmp	r3, #0
 485 0108 02D0     		beq	.L21
1018:Lib/FreeRTOS/Source/tasks.c ****     {
ARM GAS  /tmp/ccTFOe4z.s 			page 27


1019:Lib/FreeRTOS/Source/tasks.c ****         /* Pass the handle out in an anonymous way.  The handle can be used to
1020:Lib/FreeRTOS/Source/tasks.c ****          * change the created task's priority, delete the created task, etc.*/
1021:Lib/FreeRTOS/Source/tasks.c ****         *pxCreatedTask = ( TaskHandle_t ) pxNewTCB;
 486              		.loc 1 1021 24
 487 010a 7B6A     		ldr	r3, [r7, #36]
 488 010c BA6A     		ldr	r2, [r7, #40]
 489 010e 1A60     		str	r2, [r3]
 490              	.L21:
1022:Lib/FreeRTOS/Source/tasks.c ****     }
1023:Lib/FreeRTOS/Source/tasks.c ****     else
1024:Lib/FreeRTOS/Source/tasks.c ****     {
1025:Lib/FreeRTOS/Source/tasks.c ****         mtCOVERAGE_TEST_MARKER();
1026:Lib/FreeRTOS/Source/tasks.c ****     }
1027:Lib/FreeRTOS/Source/tasks.c **** }
 491              		.loc 1 1027 1
 492 0110 00BF     		nop
 493 0112 1837     		adds	r7, r7, #24
 494              		.cfi_def_cfa_offset 8
 495 0114 BD46     		mov	sp, r7
 496              		.cfi_def_cfa_register 13
 497              		@ sp needed
 498 0116 80BD     		pop	{r7, pc}
 499              	.L23:
 500              		.align	2
 501              	.L22:
 502 0118 00000000 		.word	.LC0
 503 011c 00000000 		.word	__func__.33
 504 0120 04000000 		.word	.LC1
 505              		.cfi_endproc
 506              	.LFE1:
 508              		.section	.text.prvAddNewTaskToReadyList,"ax",%progbits
 509              		.align	1
 510              		.syntax unified
 511              		.thumb
 512              		.thumb_func
 514              	prvAddNewTaskToReadyList:
 515              	.LFB2:
1028:Lib/FreeRTOS/Source/tasks.c **** /*-----------------------------------------------------------*/
1029:Lib/FreeRTOS/Source/tasks.c **** 
1030:Lib/FreeRTOS/Source/tasks.c **** static void prvAddNewTaskToReadyList( TCB_t * pxNewTCB )
1031:Lib/FreeRTOS/Source/tasks.c **** {
 516              		.loc 1 1031 1
 517              		.cfi_startproc
 518              		@ args = 0, pretend = 0, frame = 16
 519              		@ frame_needed = 1, uses_anonymous_args = 0
 520 0000 80B5     		push	{r7, lr}
 521              		.cfi_def_cfa_offset 8
 522              		.cfi_offset 7, -8
 523              		.cfi_offset 14, -4
 524 0002 84B0     		sub	sp, sp, #16
 525              		.cfi_def_cfa_offset 24
 526 0004 00AF     		add	r7, sp, #0
 527              		.cfi_def_cfa_register 7
 528 0006 7860     		str	r0, [r7, #4]
1032:Lib/FreeRTOS/Source/tasks.c ****     /* Ensure interrupts don't access the task lists while the lists are being
1033:Lib/FreeRTOS/Source/tasks.c ****      * updated. */
1034:Lib/FreeRTOS/Source/tasks.c ****     taskENTER_CRITICAL();
ARM GAS  /tmp/ccTFOe4z.s 			page 28


 529              		.loc 1 1034 5
 530 0008 FFF7FEFF 		bl	vPortEnterCritical
1035:Lib/FreeRTOS/Source/tasks.c ****     {
1036:Lib/FreeRTOS/Source/tasks.c ****         uxCurrentNumberOfTasks++;
 531              		.loc 1 1036 31
 532 000c 3E4B     		ldr	r3, .L30
 533 000e 1B68     		ldr	r3, [r3]
 534 0010 0133     		adds	r3, r3, #1
 535 0012 3D4A     		ldr	r2, .L30
 536 0014 1360     		str	r3, [r2]
1037:Lib/FreeRTOS/Source/tasks.c **** 
1038:Lib/FreeRTOS/Source/tasks.c ****         if( pxCurrentTCB == NULL )
 537              		.loc 1 1038 26
 538 0016 3D4B     		ldr	r3, .L30+4
 539 0018 1B68     		ldr	r3, [r3]
 540              		.loc 1 1038 11
 541 001a 002B     		cmp	r3, #0
 542 001c 09D1     		bne	.L25
1039:Lib/FreeRTOS/Source/tasks.c ****         {
1040:Lib/FreeRTOS/Source/tasks.c ****             /* There are no other tasks, or all the other tasks are in
1041:Lib/FreeRTOS/Source/tasks.c ****              * the suspended state - make this the current task. */
1042:Lib/FreeRTOS/Source/tasks.c ****             pxCurrentTCB = pxNewTCB;
 543              		.loc 1 1042 26
 544 001e 3B4A     		ldr	r2, .L30+4
 545 0020 7B68     		ldr	r3, [r7, #4]
 546 0022 1360     		str	r3, [r2]
1043:Lib/FreeRTOS/Source/tasks.c **** 
1044:Lib/FreeRTOS/Source/tasks.c ****             if( uxCurrentNumberOfTasks == ( UBaseType_t ) 1 )
 547              		.loc 1 1044 40
 548 0024 384B     		ldr	r3, .L30
 549 0026 1B68     		ldr	r3, [r3]
 550              		.loc 1 1044 15
 551 0028 012B     		cmp	r3, #1
 552 002a 10D1     		bne	.L26
1045:Lib/FreeRTOS/Source/tasks.c ****             {
1046:Lib/FreeRTOS/Source/tasks.c ****                 /* This is the first task to be created so do the preliminary
1047:Lib/FreeRTOS/Source/tasks.c ****                  * initialisation required.  We will not recover if this call
1048:Lib/FreeRTOS/Source/tasks.c ****                  * fails, but we will report the failure. */
1049:Lib/FreeRTOS/Source/tasks.c ****                 prvInitialiseTaskLists();
 553              		.loc 1 1049 17
 554 002c FFF7FEFF 		bl	prvInitialiseTaskLists
 555 0030 0DE0     		b	.L26
 556              	.L25:
1050:Lib/FreeRTOS/Source/tasks.c ****             }
1051:Lib/FreeRTOS/Source/tasks.c ****             else
1052:Lib/FreeRTOS/Source/tasks.c ****             {
1053:Lib/FreeRTOS/Source/tasks.c ****                 mtCOVERAGE_TEST_MARKER();
1054:Lib/FreeRTOS/Source/tasks.c ****             }
1055:Lib/FreeRTOS/Source/tasks.c ****         }
1056:Lib/FreeRTOS/Source/tasks.c ****         else
1057:Lib/FreeRTOS/Source/tasks.c ****         {
1058:Lib/FreeRTOS/Source/tasks.c ****             /* If the scheduler is not already running, make this task the
1059:Lib/FreeRTOS/Source/tasks.c ****              * current task if it is the highest priority task to be created
1060:Lib/FreeRTOS/Source/tasks.c ****              * so far. */
1061:Lib/FreeRTOS/Source/tasks.c ****             if( xSchedulerRunning == pdFALSE )
 557              		.loc 1 1061 35
 558 0032 374B     		ldr	r3, .L30+8
ARM GAS  /tmp/ccTFOe4z.s 			page 29


 559 0034 1B68     		ldr	r3, [r3]
 560              		.loc 1 1061 15
 561 0036 002B     		cmp	r3, #0
 562 0038 09D1     		bne	.L26
1062:Lib/FreeRTOS/Source/tasks.c ****             {
1063:Lib/FreeRTOS/Source/tasks.c ****                 if( pxCurrentTCB->uxPriority <= pxNewTCB->uxPriority )
 563              		.loc 1 1063 33
 564 003a 344B     		ldr	r3, .L30+4
 565 003c 1B68     		ldr	r3, [r3]
 566 003e DA6A     		ldr	r2, [r3, #44]
 567              		.loc 1 1063 57
 568 0040 7B68     		ldr	r3, [r7, #4]
 569 0042 DB6A     		ldr	r3, [r3, #44]
 570              		.loc 1 1063 19
 571 0044 9A42     		cmp	r2, r3
 572 0046 02D8     		bhi	.L26
1064:Lib/FreeRTOS/Source/tasks.c ****                 {
1065:Lib/FreeRTOS/Source/tasks.c ****                     pxCurrentTCB = pxNewTCB;
 573              		.loc 1 1065 34
 574 0048 304A     		ldr	r2, .L30+4
 575 004a 7B68     		ldr	r3, [r7, #4]
 576 004c 1360     		str	r3, [r2]
 577              	.L26:
1066:Lib/FreeRTOS/Source/tasks.c ****                 }
1067:Lib/FreeRTOS/Source/tasks.c ****                 else
1068:Lib/FreeRTOS/Source/tasks.c ****                 {
1069:Lib/FreeRTOS/Source/tasks.c ****                     mtCOVERAGE_TEST_MARKER();
1070:Lib/FreeRTOS/Source/tasks.c ****                 }
1071:Lib/FreeRTOS/Source/tasks.c ****             }
1072:Lib/FreeRTOS/Source/tasks.c ****             else
1073:Lib/FreeRTOS/Source/tasks.c ****             {
1074:Lib/FreeRTOS/Source/tasks.c ****                 mtCOVERAGE_TEST_MARKER();
1075:Lib/FreeRTOS/Source/tasks.c ****             }
1076:Lib/FreeRTOS/Source/tasks.c ****         }
1077:Lib/FreeRTOS/Source/tasks.c **** 
1078:Lib/FreeRTOS/Source/tasks.c ****         uxTaskNumber++;
 578              		.loc 1 1078 21
 579 004e 314B     		ldr	r3, .L30+12
 580 0050 1B68     		ldr	r3, [r3]
 581 0052 0133     		adds	r3, r3, #1
 582 0054 2F4A     		ldr	r2, .L30+12
 583 0056 1360     		str	r3, [r2]
1079:Lib/FreeRTOS/Source/tasks.c **** 
1080:Lib/FreeRTOS/Source/tasks.c ****         #if ( configUSE_TRACE_FACILITY == 1 )
1081:Lib/FreeRTOS/Source/tasks.c ****         {
1082:Lib/FreeRTOS/Source/tasks.c ****             /* Add a counter into the TCB for tracing only. */
1083:Lib/FreeRTOS/Source/tasks.c ****             pxNewTCB->uxTCBNumber = uxTaskNumber;
 584              		.loc 1 1083 35
 585 0058 2E4B     		ldr	r3, .L30+12
 586 005a 1A68     		ldr	r2, [r3]
 587 005c 7B68     		ldr	r3, [r7, #4]
 588 005e 5A64     		str	r2, [r3, #68]
1084:Lib/FreeRTOS/Source/tasks.c ****         }
1085:Lib/FreeRTOS/Source/tasks.c ****         #endif /* configUSE_TRACE_FACILITY */
1086:Lib/FreeRTOS/Source/tasks.c ****         traceTASK_CREATE( pxNewTCB );
1087:Lib/FreeRTOS/Source/tasks.c **** 
1088:Lib/FreeRTOS/Source/tasks.c ****         prvAddTaskToReadyList( pxNewTCB );
ARM GAS  /tmp/ccTFOe4z.s 			page 30


 589              		.loc 1 1088 9
 590 0060 7B68     		ldr	r3, [r7, #4]
 591 0062 DA6A     		ldr	r2, [r3, #44]
 592 0064 2C4B     		ldr	r3, .L30+16
 593 0066 1B68     		ldr	r3, [r3]
 594 0068 9A42     		cmp	r2, r3
 595 006a 03D9     		bls	.L27
 596              		.loc 1 1088 9 is_stmt 0 discriminator 1
 597 006c 7B68     		ldr	r3, [r7, #4]
 598 006e DB6A     		ldr	r3, [r3, #44]
 599 0070 294A     		ldr	r2, .L30+16
 600 0072 1360     		str	r3, [r2]
 601              	.L27:
 602              	.LBB3:
 603              		.loc 1 1088 9 discriminator 3
 604 0074 7B68     		ldr	r3, [r7, #4]
 605 0076 DA6A     		ldr	r2, [r3, #44]
 606 0078 2849     		ldr	r1, .L30+20
 607 007a 1346     		mov	r3, r2
 608 007c 9B00     		lsls	r3, r3, #2
 609 007e 1344     		add	r3, r3, r2
 610 0080 9B00     		lsls	r3, r3, #2
 611 0082 0B44     		add	r3, r3, r1
 612 0084 0433     		adds	r3, r3, #4
 613 0086 1B68     		ldr	r3, [r3]
 614 0088 FB60     		str	r3, [r7, #12]
 615 008a 7B68     		ldr	r3, [r7, #4]
 616 008c FA68     		ldr	r2, [r7, #12]
 617 008e 9A60     		str	r2, [r3, #8]
 618 0090 FB68     		ldr	r3, [r7, #12]
 619 0092 9A68     		ldr	r2, [r3, #8]
 620 0094 7B68     		ldr	r3, [r7, #4]
 621 0096 DA60     		str	r2, [r3, #12]
 622 0098 FB68     		ldr	r3, [r7, #12]
 623 009a 9B68     		ldr	r3, [r3, #8]
 624 009c 7A68     		ldr	r2, [r7, #4]
 625 009e 0432     		adds	r2, r2, #4
 626 00a0 5A60     		str	r2, [r3, #4]
 627 00a2 7B68     		ldr	r3, [r7, #4]
 628 00a4 1A1D     		adds	r2, r3, #4
 629 00a6 FB68     		ldr	r3, [r7, #12]
 630 00a8 9A60     		str	r2, [r3, #8]
 631 00aa 7B68     		ldr	r3, [r7, #4]
 632 00ac DA6A     		ldr	r2, [r3, #44]
 633 00ae 1346     		mov	r3, r2
 634 00b0 9B00     		lsls	r3, r3, #2
 635 00b2 1344     		add	r3, r3, r2
 636 00b4 9B00     		lsls	r3, r3, #2
 637 00b6 194A     		ldr	r2, .L30+20
 638 00b8 1A44     		add	r2, r2, r3
 639 00ba 7B68     		ldr	r3, [r7, #4]
 640 00bc 5A61     		str	r2, [r3, #20]
 641 00be 7B68     		ldr	r3, [r7, #4]
 642 00c0 DA6A     		ldr	r2, [r3, #44]
 643 00c2 1649     		ldr	r1, .L30+20
 644 00c4 1346     		mov	r3, r2
 645 00c6 9B00     		lsls	r3, r3, #2
ARM GAS  /tmp/ccTFOe4z.s 			page 31


 646 00c8 1344     		add	r3, r3, r2
 647 00ca 9B00     		lsls	r3, r3, #2
 648 00cc 0B44     		add	r3, r3, r1
 649 00ce 1B68     		ldr	r3, [r3]
 650 00d0 591C     		adds	r1, r3, #1
 651 00d2 1248     		ldr	r0, .L30+20
 652 00d4 1346     		mov	r3, r2
 653 00d6 9B00     		lsls	r3, r3, #2
 654 00d8 1344     		add	r3, r3, r2
 655 00da 9B00     		lsls	r3, r3, #2
 656 00dc 0344     		add	r3, r3, r0
 657 00de 1960     		str	r1, [r3]
 658              	.LBE3:
1089:Lib/FreeRTOS/Source/tasks.c **** 
1090:Lib/FreeRTOS/Source/tasks.c ****         portSETUP_TCB( pxNewTCB );
1091:Lib/FreeRTOS/Source/tasks.c ****     }
1092:Lib/FreeRTOS/Source/tasks.c ****     taskEXIT_CRITICAL();
 659              		.loc 1 1092 5 is_stmt 1
 660 00e0 FFF7FEFF 		bl	vPortExitCritical
1093:Lib/FreeRTOS/Source/tasks.c **** 
1094:Lib/FreeRTOS/Source/tasks.c ****     if( xSchedulerRunning != pdFALSE )
 661              		.loc 1 1094 27
 662 00e4 0A4B     		ldr	r3, .L30+8
 663 00e6 1B68     		ldr	r3, [r3]
 664              		.loc 1 1094 7
 665 00e8 002B     		cmp	r3, #0
 666 00ea 08D0     		beq	.L29
1095:Lib/FreeRTOS/Source/tasks.c ****     {
1096:Lib/FreeRTOS/Source/tasks.c ****         /* If the created task is of a higher priority than the current task
1097:Lib/FreeRTOS/Source/tasks.c ****          * then it should run now. */
1098:Lib/FreeRTOS/Source/tasks.c ****         if( pxCurrentTCB->uxPriority < pxNewTCB->uxPriority )
 667              		.loc 1 1098 25
 668 00ec 074B     		ldr	r3, .L30+4
 669 00ee 1B68     		ldr	r3, [r3]
 670 00f0 DA6A     		ldr	r2, [r3, #44]
 671              		.loc 1 1098 48
 672 00f2 7B68     		ldr	r3, [r7, #4]
 673 00f4 DB6A     		ldr	r3, [r3, #44]
 674              		.loc 1 1098 11
 675 00f6 9A42     		cmp	r2, r3
 676 00f8 01D2     		bcs	.L29
1099:Lib/FreeRTOS/Source/tasks.c ****         {
1100:Lib/FreeRTOS/Source/tasks.c ****             taskYIELD_IF_USING_PREEMPTION();
 677              		.loc 1 1100 13
 678 00fa FFF7FEFF 		bl	vPortYield
 679              	.L29:
1101:Lib/FreeRTOS/Source/tasks.c ****         }
1102:Lib/FreeRTOS/Source/tasks.c ****         else
1103:Lib/FreeRTOS/Source/tasks.c ****         {
1104:Lib/FreeRTOS/Source/tasks.c ****             mtCOVERAGE_TEST_MARKER();
1105:Lib/FreeRTOS/Source/tasks.c ****         }
1106:Lib/FreeRTOS/Source/tasks.c ****     }
1107:Lib/FreeRTOS/Source/tasks.c ****     else
1108:Lib/FreeRTOS/Source/tasks.c ****     {
1109:Lib/FreeRTOS/Source/tasks.c ****         mtCOVERAGE_TEST_MARKER();
1110:Lib/FreeRTOS/Source/tasks.c ****     }
1111:Lib/FreeRTOS/Source/tasks.c **** }
ARM GAS  /tmp/ccTFOe4z.s 			page 32


 680              		.loc 1 1111 1
 681 00fe 00BF     		nop
 682 0100 1037     		adds	r7, r7, #16
 683              		.cfi_def_cfa_offset 8
 684 0102 BD46     		mov	sp, r7
 685              		.cfi_def_cfa_register 13
 686              		@ sp needed
 687 0104 80BD     		pop	{r7, pc}
 688              	.L31:
 689 0106 00BF     		.align	2
 690              	.L30:
 691 0108 00000000 		.word	uxCurrentNumberOfTasks
 692 010c 00000000 		.word	pxCurrentTCB
 693 0110 00000000 		.word	xSchedulerRunning
 694 0114 00000000 		.word	uxTaskNumber
 695 0118 00000000 		.word	uxTopReadyPriority
 696 011c 00000000 		.word	pxReadyTasksLists
 697              		.cfi_endproc
 698              	.LFE2:
 700              		.section	.text.vTaskDelete,"ax",%progbits
 701              		.align	1
 702              		.global	vTaskDelete
 703              		.syntax unified
 704              		.thumb
 705              		.thumb_func
 707              	vTaskDelete:
 708              	.LFB3:
1112:Lib/FreeRTOS/Source/tasks.c **** /*-----------------------------------------------------------*/
1113:Lib/FreeRTOS/Source/tasks.c **** 
1114:Lib/FreeRTOS/Source/tasks.c **** #if ( INCLUDE_vTaskDelete == 1 )
1115:Lib/FreeRTOS/Source/tasks.c **** 
1116:Lib/FreeRTOS/Source/tasks.c ****     void vTaskDelete( TaskHandle_t xTaskToDelete )
1117:Lib/FreeRTOS/Source/tasks.c ****     {
 709              		.loc 1 1117 5
 710              		.cfi_startproc
 711              		@ args = 0, pretend = 0, frame = 16
 712              		@ frame_needed = 1, uses_anonymous_args = 0
 713 0000 80B5     		push	{r7, lr}
 714              		.cfi_def_cfa_offset 8
 715              		.cfi_offset 7, -8
 716              		.cfi_offset 14, -4
 717 0002 84B0     		sub	sp, sp, #16
 718              		.cfi_def_cfa_offset 24
 719 0004 00AF     		add	r7, sp, #0
 720              		.cfi_def_cfa_register 7
 721 0006 7860     		str	r0, [r7, #4]
1118:Lib/FreeRTOS/Source/tasks.c ****         TCB_t * pxTCB;
1119:Lib/FreeRTOS/Source/tasks.c **** 
1120:Lib/FreeRTOS/Source/tasks.c ****         taskENTER_CRITICAL();
 722              		.loc 1 1120 9
 723 0008 FFF7FEFF 		bl	vPortEnterCritical
1121:Lib/FreeRTOS/Source/tasks.c ****         {
1122:Lib/FreeRTOS/Source/tasks.c ****             /* If null is passed in here then it is the calling task that is
1123:Lib/FreeRTOS/Source/tasks.c ****              * being deleted. */
1124:Lib/FreeRTOS/Source/tasks.c ****             pxTCB = prvGetTCBFromHandle( xTaskToDelete );
 724              		.loc 1 1124 21
 725 000c 7B68     		ldr	r3, [r7, #4]
ARM GAS  /tmp/ccTFOe4z.s 			page 33


 726 000e 002B     		cmp	r3, #0
 727 0010 02D1     		bne	.L33
 728              		.loc 1 1124 21 is_stmt 0 discriminator 1
 729 0012 2B4B     		ldr	r3, .L42
 730 0014 1B68     		ldr	r3, [r3]
 731 0016 00E0     		b	.L34
 732              	.L33:
 733              		.loc 1 1124 21 discriminator 2
 734 0018 7B68     		ldr	r3, [r7, #4]
 735              	.L34:
 736              		.loc 1 1124 19 is_stmt 1 discriminator 4
 737 001a FB60     		str	r3, [r7, #12]
1125:Lib/FreeRTOS/Source/tasks.c **** 
1126:Lib/FreeRTOS/Source/tasks.c ****             /* Remove task from the ready/delayed list. */
1127:Lib/FreeRTOS/Source/tasks.c ****             if( uxListRemove( &( pxTCB->xStateListItem ) ) == ( UBaseType_t ) 0 )
 738              		.loc 1 1127 17
 739 001c FB68     		ldr	r3, [r7, #12]
 740 001e 0433     		adds	r3, r3, #4
 741 0020 1846     		mov	r0, r3
 742 0022 FFF7FEFF 		bl	uxListRemove
1128:Lib/FreeRTOS/Source/tasks.c ****             {
1129:Lib/FreeRTOS/Source/tasks.c ****                 taskRESET_READY_PRIORITY( pxTCB->uxPriority );
1130:Lib/FreeRTOS/Source/tasks.c ****             }
1131:Lib/FreeRTOS/Source/tasks.c ****             else
1132:Lib/FreeRTOS/Source/tasks.c ****             {
1133:Lib/FreeRTOS/Source/tasks.c ****                 mtCOVERAGE_TEST_MARKER();
1134:Lib/FreeRTOS/Source/tasks.c ****             }
1135:Lib/FreeRTOS/Source/tasks.c **** 
1136:Lib/FreeRTOS/Source/tasks.c ****             /* Is the task waiting on an event also? */
1137:Lib/FreeRTOS/Source/tasks.c ****             if( listLIST_ITEM_CONTAINER( &( pxTCB->xEventListItem ) ) != NULL )
 743              		.loc 1 1137 17
 744 0026 FB68     		ldr	r3, [r7, #12]
 745 0028 9B6A     		ldr	r3, [r3, #40]
 746              		.loc 1 1137 15
 747 002a 002B     		cmp	r3, #0
 748 002c 04D0     		beq	.L35
1138:Lib/FreeRTOS/Source/tasks.c ****             {
1139:Lib/FreeRTOS/Source/tasks.c ****                 ( void ) uxListRemove( &( pxTCB->xEventListItem ) );
 749              		.loc 1 1139 26
 750 002e FB68     		ldr	r3, [r7, #12]
 751 0030 1833     		adds	r3, r3, #24
 752 0032 1846     		mov	r0, r3
 753 0034 FFF7FEFF 		bl	uxListRemove
 754              	.L35:
1140:Lib/FreeRTOS/Source/tasks.c ****             }
1141:Lib/FreeRTOS/Source/tasks.c ****             else
1142:Lib/FreeRTOS/Source/tasks.c ****             {
1143:Lib/FreeRTOS/Source/tasks.c ****                 mtCOVERAGE_TEST_MARKER();
1144:Lib/FreeRTOS/Source/tasks.c ****             }
1145:Lib/FreeRTOS/Source/tasks.c **** 
1146:Lib/FreeRTOS/Source/tasks.c ****             /* Increment the uxTaskNumber also so kernel aware debuggers can
1147:Lib/FreeRTOS/Source/tasks.c ****              * detect that the task lists need re-generating.  This is done before
1148:Lib/FreeRTOS/Source/tasks.c ****              * portPRE_TASK_DELETE_HOOK() as in the Windows port that macro will
1149:Lib/FreeRTOS/Source/tasks.c ****              * not return. */
1150:Lib/FreeRTOS/Source/tasks.c ****             uxTaskNumber++;
 755              		.loc 1 1150 25
 756 0038 224B     		ldr	r3, .L42+4
ARM GAS  /tmp/ccTFOe4z.s 			page 34


 757 003a 1B68     		ldr	r3, [r3]
 758 003c 0133     		adds	r3, r3, #1
 759 003e 214A     		ldr	r2, .L42+4
 760 0040 1360     		str	r3, [r2]
1151:Lib/FreeRTOS/Source/tasks.c **** 
1152:Lib/FreeRTOS/Source/tasks.c ****             if( pxTCB == pxCurrentTCB )
 761              		.loc 1 1152 23
 762 0042 1F4B     		ldr	r3, .L42
 763 0044 1B68     		ldr	r3, [r3]
 764              		.loc 1 1152 15
 765 0046 FA68     		ldr	r2, [r7, #12]
 766 0048 9A42     		cmp	r2, r3
 767 004a 0BD1     		bne	.L36
1153:Lib/FreeRTOS/Source/tasks.c ****             {
1154:Lib/FreeRTOS/Source/tasks.c ****                 /* A task is deleting itself.  This cannot complete within the
1155:Lib/FreeRTOS/Source/tasks.c ****                  * task itself, as a context switch to another task is required.
1156:Lib/FreeRTOS/Source/tasks.c ****                  * Place the task in the termination list.  The idle task will
1157:Lib/FreeRTOS/Source/tasks.c ****                  * check the termination list and free up any memory allocated by
1158:Lib/FreeRTOS/Source/tasks.c ****                  * the scheduler for the TCB and stack of the deleted task. */
1159:Lib/FreeRTOS/Source/tasks.c ****                 vListInsertEnd( &xTasksWaitingTermination, &( pxTCB->xStateListItem ) );
 768              		.loc 1 1159 17
 769 004c FB68     		ldr	r3, [r7, #12]
 770 004e 0433     		adds	r3, r3, #4
 771 0050 1946     		mov	r1, r3
 772 0052 1D48     		ldr	r0, .L42+8
 773 0054 FFF7FEFF 		bl	vListInsertEnd
1160:Lib/FreeRTOS/Source/tasks.c **** 
1161:Lib/FreeRTOS/Source/tasks.c ****                 /* Increment the ucTasksDeleted variable so the idle task knows
1162:Lib/FreeRTOS/Source/tasks.c ****                  * there is a task that has been deleted and that it should therefore
1163:Lib/FreeRTOS/Source/tasks.c ****                  * check the xTasksWaitingTermination list. */
1164:Lib/FreeRTOS/Source/tasks.c ****                 ++uxDeletedTasksWaitingCleanUp;
 774              		.loc 1 1164 17
 775 0058 1C4B     		ldr	r3, .L42+12
 776 005a 1B68     		ldr	r3, [r3]
 777 005c 0133     		adds	r3, r3, #1
 778 005e 1B4A     		ldr	r2, .L42+12
 779 0060 1360     		str	r3, [r2]
 780 0062 06E0     		b	.L37
 781              	.L36:
1165:Lib/FreeRTOS/Source/tasks.c **** 
1166:Lib/FreeRTOS/Source/tasks.c ****                 /* Call the delete hook before portPRE_TASK_DELETE_HOOK() as
1167:Lib/FreeRTOS/Source/tasks.c ****                  * portPRE_TASK_DELETE_HOOK() does not return in the Win32 port. */
1168:Lib/FreeRTOS/Source/tasks.c ****                 traceTASK_DELETE( pxTCB );
1169:Lib/FreeRTOS/Source/tasks.c **** 
1170:Lib/FreeRTOS/Source/tasks.c ****                 /* The pre-delete hook is primarily for the Windows simulator,
1171:Lib/FreeRTOS/Source/tasks.c ****                  * in which Windows specific clean up operations are performed,
1172:Lib/FreeRTOS/Source/tasks.c ****                  * after which it is not possible to yield away from this task -
1173:Lib/FreeRTOS/Source/tasks.c ****                  * hence xYieldPending is used to latch that a context switch is
1174:Lib/FreeRTOS/Source/tasks.c ****                  * required. */
1175:Lib/FreeRTOS/Source/tasks.c ****                 portPRE_TASK_DELETE_HOOK( pxTCB, &xYieldPending );
1176:Lib/FreeRTOS/Source/tasks.c ****             }
1177:Lib/FreeRTOS/Source/tasks.c ****             else
1178:Lib/FreeRTOS/Source/tasks.c ****             {
1179:Lib/FreeRTOS/Source/tasks.c ****                 --uxCurrentNumberOfTasks;
 782              		.loc 1 1179 17
 783 0064 1A4B     		ldr	r3, .L42+16
 784 0066 1B68     		ldr	r3, [r3]
ARM GAS  /tmp/ccTFOe4z.s 			page 35


 785 0068 013B     		subs	r3, r3, #1
 786 006a 194A     		ldr	r2, .L42+16
 787 006c 1360     		str	r3, [r2]
1180:Lib/FreeRTOS/Source/tasks.c ****                 traceTASK_DELETE( pxTCB );
1181:Lib/FreeRTOS/Source/tasks.c **** 
1182:Lib/FreeRTOS/Source/tasks.c ****                 /* Reset the next expected unblock time in case it referred to
1183:Lib/FreeRTOS/Source/tasks.c ****                  * the task that has just been deleted. */
1184:Lib/FreeRTOS/Source/tasks.c ****                 prvResetNextTaskUnblockTime();
 788              		.loc 1 1184 17
 789 006e FFF7FEFF 		bl	prvResetNextTaskUnblockTime
 790              	.L37:
1185:Lib/FreeRTOS/Source/tasks.c ****             }
1186:Lib/FreeRTOS/Source/tasks.c ****         }
1187:Lib/FreeRTOS/Source/tasks.c ****         taskEXIT_CRITICAL();
 791              		.loc 1 1187 9
 792 0072 FFF7FEFF 		bl	vPortExitCritical
1188:Lib/FreeRTOS/Source/tasks.c **** 
1189:Lib/FreeRTOS/Source/tasks.c ****         /* If the task is not deleting itself, call prvDeleteTCB from outside of
1190:Lib/FreeRTOS/Source/tasks.c ****          * critical section. If a task deletes itself, prvDeleteTCB is called
1191:Lib/FreeRTOS/Source/tasks.c ****          * from prvCheckTasksWaitingTermination which is called from Idle task. */
1192:Lib/FreeRTOS/Source/tasks.c ****         if( pxTCB != pxCurrentTCB )
 793              		.loc 1 1192 19
 794 0076 124B     		ldr	r3, .L42
 795 0078 1B68     		ldr	r3, [r3]
 796              		.loc 1 1192 11
 797 007a FA68     		ldr	r2, [r7, #12]
 798 007c 9A42     		cmp	r2, r3
 799 007e 02D0     		beq	.L38
1193:Lib/FreeRTOS/Source/tasks.c ****         {
1194:Lib/FreeRTOS/Source/tasks.c ****             prvDeleteTCB( pxTCB );
 800              		.loc 1 1194 13
 801 0080 F868     		ldr	r0, [r7, #12]
 802 0082 FFF7FEFF 		bl	prvDeleteTCB
 803              	.L38:
1195:Lib/FreeRTOS/Source/tasks.c ****         }
1196:Lib/FreeRTOS/Source/tasks.c **** 
1197:Lib/FreeRTOS/Source/tasks.c ****         /* Force a reschedule if it is the currently running task that has just
1198:Lib/FreeRTOS/Source/tasks.c ****          * been deleted. */
1199:Lib/FreeRTOS/Source/tasks.c ****         if( xSchedulerRunning != pdFALSE )
 804              		.loc 1 1199 31
 805 0086 134B     		ldr	r3, .L42+20
 806 0088 1B68     		ldr	r3, [r3]
 807              		.loc 1 1199 11
 808 008a 002B     		cmp	r3, #0
 809 008c 13D0     		beq	.L41
1200:Lib/FreeRTOS/Source/tasks.c ****         {
1201:Lib/FreeRTOS/Source/tasks.c ****             if( pxTCB == pxCurrentTCB )
 810              		.loc 1 1201 23
 811 008e 0C4B     		ldr	r3, .L42
 812 0090 1B68     		ldr	r3, [r3]
 813              		.loc 1 1201 15
 814 0092 FA68     		ldr	r2, [r7, #12]
 815 0094 9A42     		cmp	r2, r3
 816 0096 0ED1     		bne	.L41
1202:Lib/FreeRTOS/Source/tasks.c ****             {
1203:Lib/FreeRTOS/Source/tasks.c ****                 configASSERT( uxSchedulerSuspended == ( UBaseType_t ) 0U );
 817              		.loc 1 1203 17
ARM GAS  /tmp/ccTFOe4z.s 			page 36


 818 0098 0F4B     		ldr	r3, .L42+24
 819 009a 1B68     		ldr	r3, [r3]
 820 009c 002B     		cmp	r3, #0
 821 009e 08D0     		beq	.L40
 822              		.loc 1 1203 17 is_stmt 0 discriminator 1
 823 00a0 FFF7FEFF 		bl	ulSetInterruptMask
 824 00a4 0D4B     		ldr	r3, .L42+28
 825 00a6 0E4A     		ldr	r2, .L42+32
 826 00a8 40F2B341 		movw	r1, #1203
 827 00ac 0D48     		ldr	r0, .L42+36
 828 00ae FFF7FEFF 		bl	__assert_func
 829              	.L40:
1204:Lib/FreeRTOS/Source/tasks.c ****                 portYIELD_WITHIN_API();
 830              		.loc 1 1204 17 is_stmt 1
 831 00b2 FFF7FEFF 		bl	vPortYield
 832              	.L41:
1205:Lib/FreeRTOS/Source/tasks.c ****             }
1206:Lib/FreeRTOS/Source/tasks.c ****             else
1207:Lib/FreeRTOS/Source/tasks.c ****             {
1208:Lib/FreeRTOS/Source/tasks.c ****                 mtCOVERAGE_TEST_MARKER();
1209:Lib/FreeRTOS/Source/tasks.c ****             }
1210:Lib/FreeRTOS/Source/tasks.c ****         }
1211:Lib/FreeRTOS/Source/tasks.c ****     }
 833              		.loc 1 1211 5
 834 00b6 00BF     		nop
 835 00b8 1037     		adds	r7, r7, #16
 836              		.cfi_def_cfa_offset 8
 837 00ba BD46     		mov	sp, r7
 838              		.cfi_def_cfa_register 13
 839              		@ sp needed
 840 00bc 80BD     		pop	{r7, pc}
 841              	.L43:
 842 00be 00BF     		.align	2
 843              	.L42:
 844 00c0 00000000 		.word	pxCurrentTCB
 845 00c4 00000000 		.word	uxTaskNumber
 846 00c8 00000000 		.word	xTasksWaitingTermination
 847 00cc 00000000 		.word	uxDeletedTasksWaitingCleanUp
 848 00d0 00000000 		.word	uxCurrentNumberOfTasks
 849 00d4 00000000 		.word	xSchedulerRunning
 850 00d8 00000000 		.word	uxSchedulerSuspended
 851 00dc 00000000 		.word	.LC0
 852 00e0 00000000 		.word	__func__.32
 853 00e4 04000000 		.word	.LC1
 854              		.cfi_endproc
 855              	.LFE3:
 857              		.section	.text.xTaskDelayUntil,"ax",%progbits
 858              		.align	1
 859              		.global	xTaskDelayUntil
 860              		.syntax unified
 861              		.thumb
 862              		.thumb_func
 864              	xTaskDelayUntil:
 865              	.LFB4:
1212:Lib/FreeRTOS/Source/tasks.c **** 
1213:Lib/FreeRTOS/Source/tasks.c **** #endif /* INCLUDE_vTaskDelete */
1214:Lib/FreeRTOS/Source/tasks.c **** /*-----------------------------------------------------------*/
ARM GAS  /tmp/ccTFOe4z.s 			page 37


1215:Lib/FreeRTOS/Source/tasks.c **** 
1216:Lib/FreeRTOS/Source/tasks.c **** #if ( INCLUDE_xTaskDelayUntil == 1 )
1217:Lib/FreeRTOS/Source/tasks.c **** 
1218:Lib/FreeRTOS/Source/tasks.c ****     BaseType_t xTaskDelayUntil( TickType_t * const pxPreviousWakeTime,
1219:Lib/FreeRTOS/Source/tasks.c ****                                 const TickType_t xTimeIncrement )
1220:Lib/FreeRTOS/Source/tasks.c ****     {
 866              		.loc 1 1220 5
 867              		.cfi_startproc
 868              		@ args = 0, pretend = 0, frame = 24
 869              		@ frame_needed = 1, uses_anonymous_args = 0
 870 0000 80B5     		push	{r7, lr}
 871              		.cfi_def_cfa_offset 8
 872              		.cfi_offset 7, -8
 873              		.cfi_offset 14, -4
 874 0002 86B0     		sub	sp, sp, #24
 875              		.cfi_def_cfa_offset 32
 876 0004 00AF     		add	r7, sp, #0
 877              		.cfi_def_cfa_register 7
 878 0006 7860     		str	r0, [r7, #4]
 879 0008 3960     		str	r1, [r7]
1221:Lib/FreeRTOS/Source/tasks.c ****         TickType_t xTimeToWake;
1222:Lib/FreeRTOS/Source/tasks.c ****         BaseType_t xAlreadyYielded, xShouldDelay = pdFALSE;
 880              		.loc 1 1222 37
 881 000a 0023     		movs	r3, #0
 882 000c 7B61     		str	r3, [r7, #20]
1223:Lib/FreeRTOS/Source/tasks.c **** 
1224:Lib/FreeRTOS/Source/tasks.c ****         configASSERT( pxPreviousWakeTime );
 883              		.loc 1 1224 9
 884 000e 7B68     		ldr	r3, [r7, #4]
 885 0010 002B     		cmp	r3, #0
 886 0012 08D1     		bne	.L45
 887              		.loc 1 1224 9 is_stmt 0 discriminator 1
 888 0014 FFF7FEFF 		bl	ulSetInterruptMask
 889 0018 2F4B     		ldr	r3, .L54
 890 001a 304A     		ldr	r2, .L54+4
 891 001c 4FF49961 		mov	r1, #1224
 892 0020 2F48     		ldr	r0, .L54+8
 893 0022 FFF7FEFF 		bl	__assert_func
 894              	.L45:
1225:Lib/FreeRTOS/Source/tasks.c ****         configASSERT( ( xTimeIncrement > 0U ) );
 895              		.loc 1 1225 9 is_stmt 1
 896 0026 3B68     		ldr	r3, [r7]
 897 0028 002B     		cmp	r3, #0
 898 002a 08D1     		bne	.L46
 899              		.loc 1 1225 9 is_stmt 0 discriminator 1
 900 002c FFF7FEFF 		bl	ulSetInterruptMask
 901 0030 294B     		ldr	r3, .L54
 902 0032 2A4A     		ldr	r2, .L54+4
 903 0034 40F2C941 		movw	r1, #1225
 904 0038 2948     		ldr	r0, .L54+8
 905 003a FFF7FEFF 		bl	__assert_func
 906              	.L46:
1226:Lib/FreeRTOS/Source/tasks.c ****         configASSERT( uxSchedulerSuspended == ( UBaseType_t ) 0U );
 907              		.loc 1 1226 9 is_stmt 1
 908 003e 294B     		ldr	r3, .L54+12
 909 0040 1B68     		ldr	r3, [r3]
 910 0042 002B     		cmp	r3, #0
ARM GAS  /tmp/ccTFOe4z.s 			page 38


 911 0044 08D0     		beq	.L47
 912              		.loc 1 1226 9 is_stmt 0 discriminator 1
 913 0046 FFF7FEFF 		bl	ulSetInterruptMask
 914 004a 234B     		ldr	r3, .L54
 915 004c 234A     		ldr	r2, .L54+4
 916 004e 40F2CA41 		movw	r1, #1226
 917 0052 2348     		ldr	r0, .L54+8
 918 0054 FFF7FEFF 		bl	__assert_func
 919              	.L47:
1227:Lib/FreeRTOS/Source/tasks.c **** 
1228:Lib/FreeRTOS/Source/tasks.c ****         vTaskSuspendAll();
 920              		.loc 1 1228 9 is_stmt 1
 921 0058 FFF7FEFF 		bl	vTaskSuspendAll
 922              	.LBB4:
1229:Lib/FreeRTOS/Source/tasks.c ****         {
1230:Lib/FreeRTOS/Source/tasks.c ****             /* Minor optimisation.  The tick count cannot change in this
1231:Lib/FreeRTOS/Source/tasks.c ****              * block. */
1232:Lib/FreeRTOS/Source/tasks.c ****             const TickType_t xConstTickCount = xTickCount;
 923              		.loc 1 1232 30
 924 005c 224B     		ldr	r3, .L54+16
 925 005e 1B68     		ldr	r3, [r3]
 926 0060 3B61     		str	r3, [r7, #16]
1233:Lib/FreeRTOS/Source/tasks.c **** 
1234:Lib/FreeRTOS/Source/tasks.c ****             /* Generate the tick time at which the task wants to wake. */
1235:Lib/FreeRTOS/Source/tasks.c ****             xTimeToWake = *pxPreviousWakeTime + xTimeIncrement;
 927              		.loc 1 1235 27
 928 0062 7B68     		ldr	r3, [r7, #4]
 929 0064 1B68     		ldr	r3, [r3]
 930              		.loc 1 1235 25
 931 0066 3A68     		ldr	r2, [r7]
 932 0068 1344     		add	r3, r3, r2
 933 006a FB60     		str	r3, [r7, #12]
1236:Lib/FreeRTOS/Source/tasks.c **** 
1237:Lib/FreeRTOS/Source/tasks.c ****             if( xConstTickCount < *pxPreviousWakeTime )
 934              		.loc 1 1237 35
 935 006c 7B68     		ldr	r3, [r7, #4]
 936 006e 1B68     		ldr	r3, [r3]
 937              		.loc 1 1237 15
 938 0070 3A69     		ldr	r2, [r7, #16]
 939 0072 9A42     		cmp	r2, r3
 940 0074 0BD2     		bcs	.L48
1238:Lib/FreeRTOS/Source/tasks.c ****             {
1239:Lib/FreeRTOS/Source/tasks.c ****                 /* The tick count has overflowed since this function was
1240:Lib/FreeRTOS/Source/tasks.c ****                  * lasted called.  In this case the only time we should ever
1241:Lib/FreeRTOS/Source/tasks.c ****                  * actually delay is if the wake time has also  overflowed,
1242:Lib/FreeRTOS/Source/tasks.c ****                  * and the wake time is greater than the tick time.  When this
1243:Lib/FreeRTOS/Source/tasks.c ****                  * is the case it is as if neither time had overflowed. */
1244:Lib/FreeRTOS/Source/tasks.c ****                 if( ( xTimeToWake < *pxPreviousWakeTime ) && ( xTimeToWake > xConstTickCount ) )
 941              		.loc 1 1244 37
 942 0076 7B68     		ldr	r3, [r7, #4]
 943 0078 1B68     		ldr	r3, [r3]
 944              		.loc 1 1244 19
 945 007a FA68     		ldr	r2, [r7, #12]
 946 007c 9A42     		cmp	r2, r3
 947 007e 11D2     		bcs	.L49
 948              		.loc 1 1244 59 discriminator 1
 949 0080 FA68     		ldr	r2, [r7, #12]
ARM GAS  /tmp/ccTFOe4z.s 			page 39


 950 0082 3B69     		ldr	r3, [r7, #16]
 951 0084 9A42     		cmp	r2, r3
 952 0086 0DD9     		bls	.L49
1245:Lib/FreeRTOS/Source/tasks.c ****                 {
1246:Lib/FreeRTOS/Source/tasks.c ****                     xShouldDelay = pdTRUE;
 953              		.loc 1 1246 34
 954 0088 0123     		movs	r3, #1
 955 008a 7B61     		str	r3, [r7, #20]
 956 008c 0AE0     		b	.L49
 957              	.L48:
1247:Lib/FreeRTOS/Source/tasks.c ****                 }
1248:Lib/FreeRTOS/Source/tasks.c ****                 else
1249:Lib/FreeRTOS/Source/tasks.c ****                 {
1250:Lib/FreeRTOS/Source/tasks.c ****                     mtCOVERAGE_TEST_MARKER();
1251:Lib/FreeRTOS/Source/tasks.c ****                 }
1252:Lib/FreeRTOS/Source/tasks.c ****             }
1253:Lib/FreeRTOS/Source/tasks.c ****             else
1254:Lib/FreeRTOS/Source/tasks.c ****             {
1255:Lib/FreeRTOS/Source/tasks.c ****                 /* The tick time has not overflowed.  In this case we will
1256:Lib/FreeRTOS/Source/tasks.c ****                  * delay if either the wake time has overflowed, and/or the
1257:Lib/FreeRTOS/Source/tasks.c ****                  * tick time is less than the wake time. */
1258:Lib/FreeRTOS/Source/tasks.c ****                 if( ( xTimeToWake < *pxPreviousWakeTime ) || ( xTimeToWake > xConstTickCount ) )
 958              		.loc 1 1258 37
 959 008e 7B68     		ldr	r3, [r7, #4]
 960 0090 1B68     		ldr	r3, [r3]
 961              		.loc 1 1258 19
 962 0092 FA68     		ldr	r2, [r7, #12]
 963 0094 9A42     		cmp	r2, r3
 964 0096 03D3     		bcc	.L50
 965              		.loc 1 1258 59 discriminator 1
 966 0098 FA68     		ldr	r2, [r7, #12]
 967 009a 3B69     		ldr	r3, [r7, #16]
 968 009c 9A42     		cmp	r2, r3
 969 009e 01D9     		bls	.L49
 970              	.L50:
1259:Lib/FreeRTOS/Source/tasks.c ****                 {
1260:Lib/FreeRTOS/Source/tasks.c ****                     xShouldDelay = pdTRUE;
 971              		.loc 1 1260 34
 972 00a0 0123     		movs	r3, #1
 973 00a2 7B61     		str	r3, [r7, #20]
 974              	.L49:
1261:Lib/FreeRTOS/Source/tasks.c ****                 }
1262:Lib/FreeRTOS/Source/tasks.c ****                 else
1263:Lib/FreeRTOS/Source/tasks.c ****                 {
1264:Lib/FreeRTOS/Source/tasks.c ****                     mtCOVERAGE_TEST_MARKER();
1265:Lib/FreeRTOS/Source/tasks.c ****                 }
1266:Lib/FreeRTOS/Source/tasks.c ****             }
1267:Lib/FreeRTOS/Source/tasks.c **** 
1268:Lib/FreeRTOS/Source/tasks.c ****             /* Update the wake time ready for the next call. */
1269:Lib/FreeRTOS/Source/tasks.c ****             *pxPreviousWakeTime = xTimeToWake;
 975              		.loc 1 1269 33
 976 00a4 7B68     		ldr	r3, [r7, #4]
 977 00a6 FA68     		ldr	r2, [r7, #12]
 978 00a8 1A60     		str	r2, [r3]
1270:Lib/FreeRTOS/Source/tasks.c **** 
1271:Lib/FreeRTOS/Source/tasks.c ****             if( xShouldDelay != pdFALSE )
 979              		.loc 1 1271 15
ARM GAS  /tmp/ccTFOe4z.s 			page 40


 980 00aa 7B69     		ldr	r3, [r7, #20]
 981 00ac 002B     		cmp	r3, #0
 982 00ae 06D0     		beq	.L51
1272:Lib/FreeRTOS/Source/tasks.c ****             {
1273:Lib/FreeRTOS/Source/tasks.c ****                 traceTASK_DELAY_UNTIL( xTimeToWake );
1274:Lib/FreeRTOS/Source/tasks.c **** 
1275:Lib/FreeRTOS/Source/tasks.c ****                 /* prvAddCurrentTaskToDelayedList() needs the block time, not
1276:Lib/FreeRTOS/Source/tasks.c ****                  * the time to wake, so subtract the current tick count. */
1277:Lib/FreeRTOS/Source/tasks.c ****                 prvAddCurrentTaskToDelayedList( xTimeToWake - xConstTickCount, pdFALSE );
 983              		.loc 1 1277 17
 984 00b0 FA68     		ldr	r2, [r7, #12]
 985 00b2 3B69     		ldr	r3, [r7, #16]
 986 00b4 D31A     		subs	r3, r2, r3
 987 00b6 0021     		movs	r1, #0
 988 00b8 1846     		mov	r0, r3
 989 00ba FFF7FEFF 		bl	prvAddCurrentTaskToDelayedList
 990              	.L51:
 991              	.LBE4:
1278:Lib/FreeRTOS/Source/tasks.c ****             }
1279:Lib/FreeRTOS/Source/tasks.c ****             else
1280:Lib/FreeRTOS/Source/tasks.c ****             {
1281:Lib/FreeRTOS/Source/tasks.c ****                 mtCOVERAGE_TEST_MARKER();
1282:Lib/FreeRTOS/Source/tasks.c ****             }
1283:Lib/FreeRTOS/Source/tasks.c ****         }
1284:Lib/FreeRTOS/Source/tasks.c ****         xAlreadyYielded = xTaskResumeAll();
 992              		.loc 1 1284 27
 993 00be FFF7FEFF 		bl	xTaskResumeAll
 994 00c2 B860     		str	r0, [r7, #8]
1285:Lib/FreeRTOS/Source/tasks.c **** 
1286:Lib/FreeRTOS/Source/tasks.c ****         /* Force a reschedule if xTaskResumeAll has not already done so, we may
1287:Lib/FreeRTOS/Source/tasks.c ****          * have put ourselves to sleep. */
1288:Lib/FreeRTOS/Source/tasks.c ****         if( xAlreadyYielded == pdFALSE )
 995              		.loc 1 1288 11
 996 00c4 BB68     		ldr	r3, [r7, #8]
 997 00c6 002B     		cmp	r3, #0
 998 00c8 01D1     		bne	.L52
1289:Lib/FreeRTOS/Source/tasks.c ****         {
1290:Lib/FreeRTOS/Source/tasks.c ****             portYIELD_WITHIN_API();
 999              		.loc 1 1290 13
 1000 00ca FFF7FEFF 		bl	vPortYield
 1001              	.L52:
1291:Lib/FreeRTOS/Source/tasks.c ****         }
1292:Lib/FreeRTOS/Source/tasks.c ****         else
1293:Lib/FreeRTOS/Source/tasks.c ****         {
1294:Lib/FreeRTOS/Source/tasks.c ****             mtCOVERAGE_TEST_MARKER();
1295:Lib/FreeRTOS/Source/tasks.c ****         }
1296:Lib/FreeRTOS/Source/tasks.c **** 
1297:Lib/FreeRTOS/Source/tasks.c ****         return xShouldDelay;
 1002              		.loc 1 1297 16
 1003 00ce 7B69     		ldr	r3, [r7, #20]
1298:Lib/FreeRTOS/Source/tasks.c ****     }
 1004              		.loc 1 1298 5
 1005 00d0 1846     		mov	r0, r3
 1006 00d2 1837     		adds	r7, r7, #24
 1007              		.cfi_def_cfa_offset 8
 1008 00d4 BD46     		mov	sp, r7
 1009              		.cfi_def_cfa_register 13
ARM GAS  /tmp/ccTFOe4z.s 			page 41


 1010              		@ sp needed
 1011 00d6 80BD     		pop	{r7, pc}
 1012              	.L55:
 1013              		.align	2
 1014              	.L54:
 1015 00d8 00000000 		.word	.LC0
 1016 00dc 00000000 		.word	__func__.31
 1017 00e0 04000000 		.word	.LC1
 1018 00e4 00000000 		.word	uxSchedulerSuspended
 1019 00e8 00000000 		.word	xTickCount
 1020              		.cfi_endproc
 1021              	.LFE4:
 1023              		.section	.text.vTaskDelay,"ax",%progbits
 1024              		.align	1
 1025              		.global	vTaskDelay
 1026              		.syntax unified
 1027              		.thumb
 1028              		.thumb_func
 1030              	vTaskDelay:
 1031              	.LFB5:
1299:Lib/FreeRTOS/Source/tasks.c **** 
1300:Lib/FreeRTOS/Source/tasks.c **** #endif /* INCLUDE_xTaskDelayUntil */
1301:Lib/FreeRTOS/Source/tasks.c **** /*-----------------------------------------------------------*/
1302:Lib/FreeRTOS/Source/tasks.c **** 
1303:Lib/FreeRTOS/Source/tasks.c **** #if ( INCLUDE_vTaskDelay == 1 )
1304:Lib/FreeRTOS/Source/tasks.c **** 
1305:Lib/FreeRTOS/Source/tasks.c ****     void vTaskDelay( const TickType_t xTicksToDelay )
1306:Lib/FreeRTOS/Source/tasks.c ****     {
 1032              		.loc 1 1306 5
 1033              		.cfi_startproc
 1034              		@ args = 0, pretend = 0, frame = 16
 1035              		@ frame_needed = 1, uses_anonymous_args = 0
 1036 0000 80B5     		push	{r7, lr}
 1037              		.cfi_def_cfa_offset 8
 1038              		.cfi_offset 7, -8
 1039              		.cfi_offset 14, -4
 1040 0002 84B0     		sub	sp, sp, #16
 1041              		.cfi_def_cfa_offset 24
 1042 0004 00AF     		add	r7, sp, #0
 1043              		.cfi_def_cfa_register 7
 1044 0006 7860     		str	r0, [r7, #4]
1307:Lib/FreeRTOS/Source/tasks.c ****         BaseType_t xAlreadyYielded = pdFALSE;
 1045              		.loc 1 1307 20
 1046 0008 0023     		movs	r3, #0
 1047 000a FB60     		str	r3, [r7, #12]
1308:Lib/FreeRTOS/Source/tasks.c **** 
1309:Lib/FreeRTOS/Source/tasks.c ****         /* A delay time of zero just forces a reschedule. */
1310:Lib/FreeRTOS/Source/tasks.c ****         if( xTicksToDelay > ( TickType_t ) 0U )
 1048              		.loc 1 1310 11
 1049 000c 7B68     		ldr	r3, [r7, #4]
 1050 000e 002B     		cmp	r3, #0
 1051 0010 15D0     		beq	.L57
1311:Lib/FreeRTOS/Source/tasks.c ****         {
1312:Lib/FreeRTOS/Source/tasks.c ****             configASSERT( uxSchedulerSuspended == ( UBaseType_t ) 0U );
 1052              		.loc 1 1312 13
 1053 0012 0F4B     		ldr	r3, .L61
 1054 0014 1B68     		ldr	r3, [r3]
ARM GAS  /tmp/ccTFOe4z.s 			page 42


 1055 0016 002B     		cmp	r3, #0
 1056 0018 08D0     		beq	.L58
 1057              		.loc 1 1312 13 is_stmt 0 discriminator 1
 1058 001a FFF7FEFF 		bl	ulSetInterruptMask
 1059 001e 0D4B     		ldr	r3, .L61+4
 1060 0020 0D4A     		ldr	r2, .L61+8
 1061 0022 4FF4A461 		mov	r1, #1312
 1062 0026 0D48     		ldr	r0, .L61+12
 1063 0028 FFF7FEFF 		bl	__assert_func
 1064              	.L58:
1313:Lib/FreeRTOS/Source/tasks.c ****             vTaskSuspendAll();
 1065              		.loc 1 1313 13 is_stmt 1
 1066 002c FFF7FEFF 		bl	vTaskSuspendAll
1314:Lib/FreeRTOS/Source/tasks.c ****             {
1315:Lib/FreeRTOS/Source/tasks.c ****                 traceTASK_DELAY();
1316:Lib/FreeRTOS/Source/tasks.c **** 
1317:Lib/FreeRTOS/Source/tasks.c ****                 /* A task that is removed from the event list while the
1318:Lib/FreeRTOS/Source/tasks.c ****                  * scheduler is suspended will not get placed in the ready
1319:Lib/FreeRTOS/Source/tasks.c ****                  * list or removed from the blocked list until the scheduler
1320:Lib/FreeRTOS/Source/tasks.c ****                  * is resumed.
1321:Lib/FreeRTOS/Source/tasks.c ****                  *
1322:Lib/FreeRTOS/Source/tasks.c ****                  * This task cannot be in an event list as it is the currently
1323:Lib/FreeRTOS/Source/tasks.c ****                  * executing task. */
1324:Lib/FreeRTOS/Source/tasks.c ****                 prvAddCurrentTaskToDelayedList( xTicksToDelay, pdFALSE );
 1067              		.loc 1 1324 17
 1068 0030 0021     		movs	r1, #0
 1069 0032 7868     		ldr	r0, [r7, #4]
 1070 0034 FFF7FEFF 		bl	prvAddCurrentTaskToDelayedList
1325:Lib/FreeRTOS/Source/tasks.c ****             }
1326:Lib/FreeRTOS/Source/tasks.c ****             xAlreadyYielded = xTaskResumeAll();
 1071              		.loc 1 1326 31
 1072 0038 FFF7FEFF 		bl	xTaskResumeAll
 1073 003c F860     		str	r0, [r7, #12]
 1074              	.L57:
1327:Lib/FreeRTOS/Source/tasks.c ****         }
1328:Lib/FreeRTOS/Source/tasks.c ****         else
1329:Lib/FreeRTOS/Source/tasks.c ****         {
1330:Lib/FreeRTOS/Source/tasks.c ****             mtCOVERAGE_TEST_MARKER();
1331:Lib/FreeRTOS/Source/tasks.c ****         }
1332:Lib/FreeRTOS/Source/tasks.c **** 
1333:Lib/FreeRTOS/Source/tasks.c ****         /* Force a reschedule if xTaskResumeAll has not already done so, we may
1334:Lib/FreeRTOS/Source/tasks.c ****          * have put ourselves to sleep. */
1335:Lib/FreeRTOS/Source/tasks.c ****         if( xAlreadyYielded == pdFALSE )
 1075              		.loc 1 1335 11
 1076 003e FB68     		ldr	r3, [r7, #12]
 1077 0040 002B     		cmp	r3, #0
 1078 0042 01D1     		bne	.L60
1336:Lib/FreeRTOS/Source/tasks.c ****         {
1337:Lib/FreeRTOS/Source/tasks.c ****             portYIELD_WITHIN_API();
 1079              		.loc 1 1337 13
 1080 0044 FFF7FEFF 		bl	vPortYield
 1081              	.L60:
1338:Lib/FreeRTOS/Source/tasks.c ****         }
1339:Lib/FreeRTOS/Source/tasks.c ****         else
1340:Lib/FreeRTOS/Source/tasks.c ****         {
1341:Lib/FreeRTOS/Source/tasks.c ****             mtCOVERAGE_TEST_MARKER();
1342:Lib/FreeRTOS/Source/tasks.c ****         }
ARM GAS  /tmp/ccTFOe4z.s 			page 43


1343:Lib/FreeRTOS/Source/tasks.c ****     }
 1082              		.loc 1 1343 5
 1083 0048 00BF     		nop
 1084 004a 1037     		adds	r7, r7, #16
 1085              		.cfi_def_cfa_offset 8
 1086 004c BD46     		mov	sp, r7
 1087              		.cfi_def_cfa_register 13
 1088              		@ sp needed
 1089 004e 80BD     		pop	{r7, pc}
 1090              	.L62:
 1091              		.align	2
 1092              	.L61:
 1093 0050 00000000 		.word	uxSchedulerSuspended
 1094 0054 00000000 		.word	.LC0
 1095 0058 00000000 		.word	__func__.30
 1096 005c 04000000 		.word	.LC1
 1097              		.cfi_endproc
 1098              	.LFE5:
 1100              		.section	.text.eTaskGetState,"ax",%progbits
 1101              		.align	1
 1102              		.global	eTaskGetState
 1103              		.syntax unified
 1104              		.thumb
 1105              		.thumb_func
 1107              	eTaskGetState:
 1108              	.LFB6:
1344:Lib/FreeRTOS/Source/tasks.c **** 
1345:Lib/FreeRTOS/Source/tasks.c **** #endif /* INCLUDE_vTaskDelay */
1346:Lib/FreeRTOS/Source/tasks.c **** /*-----------------------------------------------------------*/
1347:Lib/FreeRTOS/Source/tasks.c **** 
1348:Lib/FreeRTOS/Source/tasks.c **** #if ( ( INCLUDE_eTaskGetState == 1 ) || ( configUSE_TRACE_FACILITY == 1 ) || ( INCLUDE_xTaskAbortDe
1349:Lib/FreeRTOS/Source/tasks.c **** 
1350:Lib/FreeRTOS/Source/tasks.c ****     eTaskState eTaskGetState( TaskHandle_t xTask )
1351:Lib/FreeRTOS/Source/tasks.c ****     {
 1109              		.loc 1 1351 5
 1110              		.cfi_startproc
 1111              		@ args = 0, pretend = 0, frame = 40
 1112              		@ frame_needed = 1, uses_anonymous_args = 0
 1113 0000 80B5     		push	{r7, lr}
 1114              		.cfi_def_cfa_offset 8
 1115              		.cfi_offset 7, -8
 1116              		.cfi_offset 14, -4
 1117 0002 8AB0     		sub	sp, sp, #40
 1118              		.cfi_def_cfa_offset 48
 1119 0004 00AF     		add	r7, sp, #0
 1120              		.cfi_def_cfa_register 7
 1121 0006 7860     		str	r0, [r7, #4]
1352:Lib/FreeRTOS/Source/tasks.c ****         eTaskState eReturn;
1353:Lib/FreeRTOS/Source/tasks.c ****         List_t const * pxStateList;
1354:Lib/FreeRTOS/Source/tasks.c ****         List_t const * pxEventList;
1355:Lib/FreeRTOS/Source/tasks.c ****         List_t const * pxDelayedList;
1356:Lib/FreeRTOS/Source/tasks.c ****         List_t const * pxOverflowedDelayedList;
1357:Lib/FreeRTOS/Source/tasks.c ****         const TCB_t * const pxTCB = xTask;
 1122              		.loc 1 1357 29
 1123 0008 7B68     		ldr	r3, [r7, #4]
 1124 000a FB61     		str	r3, [r7, #28]
1358:Lib/FreeRTOS/Source/tasks.c **** 
ARM GAS  /tmp/ccTFOe4z.s 			page 44


1359:Lib/FreeRTOS/Source/tasks.c ****         configASSERT( pxTCB );
 1125              		.loc 1 1359 9
 1126 000c FB69     		ldr	r3, [r7, #28]
 1127 000e 002B     		cmp	r3, #0
 1128 0010 08D1     		bne	.L64
 1129              		.loc 1 1359 9 is_stmt 0 discriminator 1
 1130 0012 FFF7FEFF 		bl	ulSetInterruptMask
 1131 0016 364B     		ldr	r3, .L79
 1132 0018 364A     		ldr	r2, .L79+4
 1133 001a 40F24F51 		movw	r1, #1359
 1134 001e 3648     		ldr	r0, .L79+8
 1135 0020 FFF7FEFF 		bl	__assert_func
 1136              	.L64:
1360:Lib/FreeRTOS/Source/tasks.c **** 
1361:Lib/FreeRTOS/Source/tasks.c ****         if( pxTCB == pxCurrentTCB )
 1137              		.loc 1 1361 19 is_stmt 1
 1138 0024 354B     		ldr	r3, .L79+12
 1139 0026 1B68     		ldr	r3, [r3]
 1140              		.loc 1 1361 11
 1141 0028 FA69     		ldr	r2, [r7, #28]
 1142 002a 9A42     		cmp	r2, r3
 1143 002c 03D1     		bne	.L65
1362:Lib/FreeRTOS/Source/tasks.c ****         {
1363:Lib/FreeRTOS/Source/tasks.c ****             /* The task calling this function is querying its own state. */
1364:Lib/FreeRTOS/Source/tasks.c ****             eReturn = eRunning;
 1144              		.loc 1 1364 21
 1145 002e 0023     		movs	r3, #0
 1146 0030 87F82730 		strb	r3, [r7, #39]
 1147 0034 56E0     		b	.L66
 1148              	.L65:
1365:Lib/FreeRTOS/Source/tasks.c ****         }
1366:Lib/FreeRTOS/Source/tasks.c ****         else
1367:Lib/FreeRTOS/Source/tasks.c ****         {
1368:Lib/FreeRTOS/Source/tasks.c ****             taskENTER_CRITICAL();
 1149              		.loc 1 1368 13
 1150 0036 FFF7FEFF 		bl	vPortEnterCritical
1369:Lib/FreeRTOS/Source/tasks.c ****             {
1370:Lib/FreeRTOS/Source/tasks.c ****                 pxStateList = listLIST_ITEM_CONTAINER( &( pxTCB->xStateListItem ) );
 1151              		.loc 1 1370 29
 1152 003a FB69     		ldr	r3, [r7, #28]
 1153 003c 5B69     		ldr	r3, [r3, #20]
 1154 003e BB61     		str	r3, [r7, #24]
1371:Lib/FreeRTOS/Source/tasks.c ****                 pxEventList = listLIST_ITEM_CONTAINER( &( pxTCB->xEventListItem ) );
 1155              		.loc 1 1371 29
 1156 0040 FB69     		ldr	r3, [r7, #28]
 1157 0042 9B6A     		ldr	r3, [r3, #40]
 1158 0044 7B61     		str	r3, [r7, #20]
1372:Lib/FreeRTOS/Source/tasks.c ****                 pxDelayedList = pxDelayedTaskList;
 1159              		.loc 1 1372 31
 1160 0046 2E4B     		ldr	r3, .L79+16
 1161 0048 1B68     		ldr	r3, [r3]
 1162 004a 3B61     		str	r3, [r7, #16]
1373:Lib/FreeRTOS/Source/tasks.c ****                 pxOverflowedDelayedList = pxOverflowDelayedTaskList;
 1163              		.loc 1 1373 41
 1164 004c 2D4B     		ldr	r3, .L79+20
 1165 004e 1B68     		ldr	r3, [r3]
 1166 0050 FB60     		str	r3, [r7, #12]
ARM GAS  /tmp/ccTFOe4z.s 			page 45


1374:Lib/FreeRTOS/Source/tasks.c ****             }
1375:Lib/FreeRTOS/Source/tasks.c ****             taskEXIT_CRITICAL();
 1167              		.loc 1 1375 13
 1168 0052 FFF7FEFF 		bl	vPortExitCritical
1376:Lib/FreeRTOS/Source/tasks.c **** 
1377:Lib/FreeRTOS/Source/tasks.c ****             if( pxEventList == &xPendingReadyList )
 1169              		.loc 1 1377 15
 1170 0056 7B69     		ldr	r3, [r7, #20]
 1171 0058 2B4A     		ldr	r2, .L79+24
 1172 005a 9342     		cmp	r3, r2
 1173 005c 03D1     		bne	.L67
1378:Lib/FreeRTOS/Source/tasks.c ****             {
1379:Lib/FreeRTOS/Source/tasks.c ****                 /* The task has been placed on the pending ready list, so its
1380:Lib/FreeRTOS/Source/tasks.c ****                  * state is eReady regardless of what list the task's state list
1381:Lib/FreeRTOS/Source/tasks.c ****                  * item is currently placed on. */
1382:Lib/FreeRTOS/Source/tasks.c ****                 eReturn = eReady;
 1174              		.loc 1 1382 25
 1175 005e 0123     		movs	r3, #1
 1176 0060 87F82730 		strb	r3, [r7, #39]
 1177 0064 3EE0     		b	.L66
 1178              	.L67:
1383:Lib/FreeRTOS/Source/tasks.c ****             }
1384:Lib/FreeRTOS/Source/tasks.c ****             else if( ( pxStateList == pxDelayedList ) || ( pxStateList == pxOverflowedDelayedList )
 1179              		.loc 1 1384 20
 1180 0066 BA69     		ldr	r2, [r7, #24]
 1181 0068 3B69     		ldr	r3, [r7, #16]
 1182 006a 9A42     		cmp	r2, r3
 1183 006c 03D0     		beq	.L68
 1184              		.loc 1 1384 55 discriminator 1
 1185 006e BA69     		ldr	r2, [r7, #24]
 1186 0070 FB68     		ldr	r3, [r7, #12]
 1187 0072 9A42     		cmp	r2, r3
 1188 0074 03D1     		bne	.L69
 1189              	.L68:
1385:Lib/FreeRTOS/Source/tasks.c ****             {
1386:Lib/FreeRTOS/Source/tasks.c ****                 /* The task being queried is referenced from one of the Blocked
1387:Lib/FreeRTOS/Source/tasks.c ****                  * lists. */
1388:Lib/FreeRTOS/Source/tasks.c ****                 eReturn = eBlocked;
 1190              		.loc 1 1388 25
 1191 0076 0223     		movs	r3, #2
 1192 0078 87F82730 		strb	r3, [r7, #39]
 1193 007c 32E0     		b	.L66
 1194              	.L69:
1389:Lib/FreeRTOS/Source/tasks.c ****             }
1390:Lib/FreeRTOS/Source/tasks.c **** 
1391:Lib/FreeRTOS/Source/tasks.c ****             #if ( INCLUDE_vTaskSuspend == 1 )
1392:Lib/FreeRTOS/Source/tasks.c ****                 else if( pxStateList == &xSuspendedTaskList )
 1195              		.loc 1 1392 24
 1196 007e BB69     		ldr	r3, [r7, #24]
 1197 0080 224A     		ldr	r2, .L79+28
 1198 0082 9342     		cmp	r3, r2
 1199 0084 20D1     		bne	.L70
1393:Lib/FreeRTOS/Source/tasks.c ****                 {
1394:Lib/FreeRTOS/Source/tasks.c ****                     /* The task being queried is referenced from the suspended
1395:Lib/FreeRTOS/Source/tasks.c ****                      * list.  Is it genuinely suspended or is it blocked
1396:Lib/FreeRTOS/Source/tasks.c ****                      * indefinitely? */
1397:Lib/FreeRTOS/Source/tasks.c ****                     if( listLIST_ITEM_CONTAINER( &( pxTCB->xEventListItem ) ) == NULL )
ARM GAS  /tmp/ccTFOe4z.s 			page 46


 1200              		.loc 1 1397 25
 1201 0086 FB69     		ldr	r3, [r7, #28]
 1202 0088 9B6A     		ldr	r3, [r3, #40]
 1203              		.loc 1 1397 23
 1204 008a 002B     		cmp	r3, #0
 1205 008c 18D1     		bne	.L71
 1206              	.LBB5:
1398:Lib/FreeRTOS/Source/tasks.c ****                     {
1399:Lib/FreeRTOS/Source/tasks.c ****                         #if ( configUSE_TASK_NOTIFICATIONS == 1 )
1400:Lib/FreeRTOS/Source/tasks.c ****                         {
1401:Lib/FreeRTOS/Source/tasks.c ****                             BaseType_t x;
1402:Lib/FreeRTOS/Source/tasks.c **** 
1403:Lib/FreeRTOS/Source/tasks.c ****                             /* The task does not appear on the event list item of
1404:Lib/FreeRTOS/Source/tasks.c ****                              * and of the RTOS objects, but could still be in the
1405:Lib/FreeRTOS/Source/tasks.c ****                              * blocked state if it is waiting on its notification
1406:Lib/FreeRTOS/Source/tasks.c ****                              * rather than waiting on an object.  If not, is
1407:Lib/FreeRTOS/Source/tasks.c ****                              * suspended. */
1408:Lib/FreeRTOS/Source/tasks.c ****                             eReturn = eSuspended;
 1207              		.loc 1 1408 37
 1208 008e 0323     		movs	r3, #3
 1209 0090 87F82730 		strb	r3, [r7, #39]
1409:Lib/FreeRTOS/Source/tasks.c **** 
1410:Lib/FreeRTOS/Source/tasks.c ****                             for( x = 0; x < configTASK_NOTIFICATION_ARRAY_ENTRIES; x++ )
 1210              		.loc 1 1410 36
 1211 0094 0023     		movs	r3, #0
 1212 0096 3B62     		str	r3, [r7, #32]
 1213              		.loc 1 1410 29
 1214 0098 0EE0     		b	.L72
 1215              	.L75:
1411:Lib/FreeRTOS/Source/tasks.c ****                             {
1412:Lib/FreeRTOS/Source/tasks.c ****                                 if( pxTCB->ucNotifyState[ x ] == taskWAITING_NOTIFICATION )
 1216              		.loc 1 1412 57
 1217 009a FA69     		ldr	r2, [r7, #28]
 1218 009c 3B6A     		ldr	r3, [r7, #32]
 1219 009e 1344     		add	r3, r3, r2
 1220 00a0 5C33     		adds	r3, r3, #92
 1221 00a2 1B78     		ldrb	r3, [r3]
 1222 00a4 DBB2     		uxtb	r3, r3
 1223              		.loc 1 1412 35
 1224 00a6 012B     		cmp	r3, #1
 1225 00a8 03D1     		bne	.L73
1413:Lib/FreeRTOS/Source/tasks.c ****                                 {
1414:Lib/FreeRTOS/Source/tasks.c ****                                     eReturn = eBlocked;
 1226              		.loc 1 1414 45
 1227 00aa 0223     		movs	r3, #2
 1228 00ac 87F82730 		strb	r3, [r7, #39]
1415:Lib/FreeRTOS/Source/tasks.c ****                                     break;
 1229              		.loc 1 1415 37
 1230 00b0 18E0     		b	.L66
 1231              	.L73:
1410:Lib/FreeRTOS/Source/tasks.c ****                             {
 1232              		.loc 1 1410 85 discriminator 2
 1233 00b2 3B6A     		ldr	r3, [r7, #32]
 1234 00b4 0133     		adds	r3, r3, #1
 1235 00b6 3B62     		str	r3, [r7, #32]
 1236              	.L72:
1410:Lib/FreeRTOS/Source/tasks.c ****                             {
ARM GAS  /tmp/ccTFOe4z.s 			page 47


 1237              		.loc 1 1410 43 discriminator 1
 1238 00b8 3B6A     		ldr	r3, [r7, #32]
 1239 00ba 002B     		cmp	r3, #0
 1240 00bc EDDD     		ble	.L75
 1241 00be 11E0     		b	.L66
 1242              	.L71:
 1243              	.LBE5:
1416:Lib/FreeRTOS/Source/tasks.c ****                                 }
1417:Lib/FreeRTOS/Source/tasks.c ****                             }
1418:Lib/FreeRTOS/Source/tasks.c ****                         }
1419:Lib/FreeRTOS/Source/tasks.c ****                         #else /* if ( configUSE_TASK_NOTIFICATIONS == 1 ) */
1420:Lib/FreeRTOS/Source/tasks.c ****                         {
1421:Lib/FreeRTOS/Source/tasks.c ****                             eReturn = eSuspended;
1422:Lib/FreeRTOS/Source/tasks.c ****                         }
1423:Lib/FreeRTOS/Source/tasks.c ****                         #endif /* if ( configUSE_TASK_NOTIFICATIONS == 1 ) */
1424:Lib/FreeRTOS/Source/tasks.c ****                     }
1425:Lib/FreeRTOS/Source/tasks.c ****                     else
1426:Lib/FreeRTOS/Source/tasks.c ****                     {
1427:Lib/FreeRTOS/Source/tasks.c ****                         eReturn = eBlocked;
 1244              		.loc 1 1427 33
 1245 00c0 0223     		movs	r3, #2
 1246 00c2 87F82730 		strb	r3, [r7, #39]
 1247 00c6 0DE0     		b	.L66
 1248              	.L70:
1428:Lib/FreeRTOS/Source/tasks.c ****                     }
1429:Lib/FreeRTOS/Source/tasks.c ****                 }
1430:Lib/FreeRTOS/Source/tasks.c ****             #endif /* if ( INCLUDE_vTaskSuspend == 1 ) */
1431:Lib/FreeRTOS/Source/tasks.c **** 
1432:Lib/FreeRTOS/Source/tasks.c ****             #if ( INCLUDE_vTaskDelete == 1 )
1433:Lib/FreeRTOS/Source/tasks.c ****                 else if( ( pxStateList == &xTasksWaitingTermination ) || ( pxStateList == NULL ) )
 1249              		.loc 1 1433 24
 1250 00c8 BB69     		ldr	r3, [r7, #24]
 1251 00ca 114A     		ldr	r2, .L79+32
 1252 00cc 9342     		cmp	r3, r2
 1253 00ce 02D0     		beq	.L76
 1254              		.loc 1 1433 71 discriminator 1
 1255 00d0 BB69     		ldr	r3, [r7, #24]
 1256 00d2 002B     		cmp	r3, #0
 1257 00d4 03D1     		bne	.L77
 1258              	.L76:
1434:Lib/FreeRTOS/Source/tasks.c ****                 {
1435:Lib/FreeRTOS/Source/tasks.c ****                     /* The task being queried is referenced from the deleted
1436:Lib/FreeRTOS/Source/tasks.c ****                      * tasks list, or it is not referenced from any lists at
1437:Lib/FreeRTOS/Source/tasks.c ****                      * all. */
1438:Lib/FreeRTOS/Source/tasks.c ****                     eReturn = eDeleted;
 1259              		.loc 1 1438 29
 1260 00d6 0423     		movs	r3, #4
 1261 00d8 87F82730 		strb	r3, [r7, #39]
 1262 00dc 02E0     		b	.L66
 1263              	.L77:
1439:Lib/FreeRTOS/Source/tasks.c ****                 }
1440:Lib/FreeRTOS/Source/tasks.c ****             #endif
1441:Lib/FreeRTOS/Source/tasks.c **** 
1442:Lib/FreeRTOS/Source/tasks.c ****             else /*lint !e525 Negative indentation is intended to make use of pre-processor clearer
1443:Lib/FreeRTOS/Source/tasks.c ****             {
1444:Lib/FreeRTOS/Source/tasks.c ****                 /* If the task is not in any other state, it must be in the
1445:Lib/FreeRTOS/Source/tasks.c ****                  * Ready (including pending ready) state. */
ARM GAS  /tmp/ccTFOe4z.s 			page 48


1446:Lib/FreeRTOS/Source/tasks.c ****                 eReturn = eReady;
 1264              		.loc 1 1446 25
 1265 00de 0123     		movs	r3, #1
 1266 00e0 87F82730 		strb	r3, [r7, #39]
 1267              	.L66:
1447:Lib/FreeRTOS/Source/tasks.c ****             }
1448:Lib/FreeRTOS/Source/tasks.c ****         }
1449:Lib/FreeRTOS/Source/tasks.c **** 
1450:Lib/FreeRTOS/Source/tasks.c ****         return eReturn;
 1268              		.loc 1 1450 16
 1269 00e4 97F82730 		ldrb	r3, [r7, #39]	@ zero_extendqisi2
1451:Lib/FreeRTOS/Source/tasks.c ****     } /*lint !e818 xTask cannot be a pointer to const because it is a typedef. */
 1270              		.loc 1 1451 5
 1271 00e8 1846     		mov	r0, r3
 1272 00ea 2837     		adds	r7, r7, #40
 1273              		.cfi_def_cfa_offset 8
 1274 00ec BD46     		mov	sp, r7
 1275              		.cfi_def_cfa_register 13
 1276              		@ sp needed
 1277 00ee 80BD     		pop	{r7, pc}
 1278              	.L80:
 1279              		.align	2
 1280              	.L79:
 1281 00f0 00000000 		.word	.LC0
 1282 00f4 00000000 		.word	__func__.29
 1283 00f8 04000000 		.word	.LC1
 1284 00fc 00000000 		.word	pxCurrentTCB
 1285 0100 00000000 		.word	pxDelayedTaskList
 1286 0104 00000000 		.word	pxOverflowDelayedTaskList
 1287 0108 00000000 		.word	xPendingReadyList
 1288 010c 00000000 		.word	xSuspendedTaskList
 1289 0110 00000000 		.word	xTasksWaitingTermination
 1290              		.cfi_endproc
 1291              	.LFE6:
 1293              		.section	.text.uxTaskPriorityGet,"ax",%progbits
 1294              		.align	1
 1295              		.global	uxTaskPriorityGet
 1296              		.syntax unified
 1297              		.thumb
 1298              		.thumb_func
 1300              	uxTaskPriorityGet:
 1301              	.LFB7:
1452:Lib/FreeRTOS/Source/tasks.c **** 
1453:Lib/FreeRTOS/Source/tasks.c **** #endif /* INCLUDE_eTaskGetState */
1454:Lib/FreeRTOS/Source/tasks.c **** /*-----------------------------------------------------------*/
1455:Lib/FreeRTOS/Source/tasks.c **** 
1456:Lib/FreeRTOS/Source/tasks.c **** #if ( INCLUDE_uxTaskPriorityGet == 1 )
1457:Lib/FreeRTOS/Source/tasks.c **** 
1458:Lib/FreeRTOS/Source/tasks.c ****     UBaseType_t uxTaskPriorityGet( const TaskHandle_t xTask )
1459:Lib/FreeRTOS/Source/tasks.c ****     {
 1302              		.loc 1 1459 5
 1303              		.cfi_startproc
 1304              		@ args = 0, pretend = 0, frame = 16
 1305              		@ frame_needed = 1, uses_anonymous_args = 0
 1306 0000 80B5     		push	{r7, lr}
 1307              		.cfi_def_cfa_offset 8
 1308              		.cfi_offset 7, -8
ARM GAS  /tmp/ccTFOe4z.s 			page 49


 1309              		.cfi_offset 14, -4
 1310 0002 84B0     		sub	sp, sp, #16
 1311              		.cfi_def_cfa_offset 24
 1312 0004 00AF     		add	r7, sp, #0
 1313              		.cfi_def_cfa_register 7
 1314 0006 7860     		str	r0, [r7, #4]
1460:Lib/FreeRTOS/Source/tasks.c ****         TCB_t const * pxTCB;
1461:Lib/FreeRTOS/Source/tasks.c ****         UBaseType_t uxReturn;
1462:Lib/FreeRTOS/Source/tasks.c **** 
1463:Lib/FreeRTOS/Source/tasks.c ****         taskENTER_CRITICAL();
 1315              		.loc 1 1463 9
 1316 0008 FFF7FEFF 		bl	vPortEnterCritical
1464:Lib/FreeRTOS/Source/tasks.c ****         {
1465:Lib/FreeRTOS/Source/tasks.c ****             /* If null is passed in here then it is the priority of the task
1466:Lib/FreeRTOS/Source/tasks.c ****              * that called uxTaskPriorityGet() that is being queried. */
1467:Lib/FreeRTOS/Source/tasks.c ****             pxTCB = prvGetTCBFromHandle( xTask );
 1317              		.loc 1 1467 21
 1318 000c 7B68     		ldr	r3, [r7, #4]
 1319 000e 002B     		cmp	r3, #0
 1320 0010 02D1     		bne	.L82
 1321              		.loc 1 1467 21 is_stmt 0 discriminator 1
 1322 0012 074B     		ldr	r3, .L85
 1323 0014 1B68     		ldr	r3, [r3]
 1324 0016 00E0     		b	.L83
 1325              	.L82:
 1326              		.loc 1 1467 21 discriminator 2
 1327 0018 7B68     		ldr	r3, [r7, #4]
 1328              	.L83:
 1329              		.loc 1 1467 19 is_stmt 1 discriminator 4
 1330 001a FB60     		str	r3, [r7, #12]
1468:Lib/FreeRTOS/Source/tasks.c ****             uxReturn = pxTCB->uxPriority;
 1331              		.loc 1 1468 22
 1332 001c FB68     		ldr	r3, [r7, #12]
 1333 001e DB6A     		ldr	r3, [r3, #44]
 1334 0020 BB60     		str	r3, [r7, #8]
1469:Lib/FreeRTOS/Source/tasks.c ****         }
1470:Lib/FreeRTOS/Source/tasks.c ****         taskEXIT_CRITICAL();
 1335              		.loc 1 1470 9
 1336 0022 FFF7FEFF 		bl	vPortExitCritical
1471:Lib/FreeRTOS/Source/tasks.c **** 
1472:Lib/FreeRTOS/Source/tasks.c ****         return uxReturn;
 1337              		.loc 1 1472 16
 1338 0026 BB68     		ldr	r3, [r7, #8]
1473:Lib/FreeRTOS/Source/tasks.c ****     }
 1339              		.loc 1 1473 5
 1340 0028 1846     		mov	r0, r3
 1341 002a 1037     		adds	r7, r7, #16
 1342              		.cfi_def_cfa_offset 8
 1343 002c BD46     		mov	sp, r7
 1344              		.cfi_def_cfa_register 13
 1345              		@ sp needed
 1346 002e 80BD     		pop	{r7, pc}
 1347              	.L86:
 1348              		.align	2
 1349              	.L85:
 1350 0030 00000000 		.word	pxCurrentTCB
 1351              		.cfi_endproc
ARM GAS  /tmp/ccTFOe4z.s 			page 50


 1352              	.LFE7:
 1354              		.section	.text.uxTaskPriorityGetFromISR,"ax",%progbits
 1355              		.align	1
 1356              		.global	uxTaskPriorityGetFromISR
 1357              		.syntax unified
 1358              		.thumb
 1359              		.thumb_func
 1361              	uxTaskPriorityGetFromISR:
 1362              	.LFB8:
1474:Lib/FreeRTOS/Source/tasks.c **** 
1475:Lib/FreeRTOS/Source/tasks.c **** #endif /* INCLUDE_uxTaskPriorityGet */
1476:Lib/FreeRTOS/Source/tasks.c **** /*-----------------------------------------------------------*/
1477:Lib/FreeRTOS/Source/tasks.c **** 
1478:Lib/FreeRTOS/Source/tasks.c **** #if ( INCLUDE_uxTaskPriorityGet == 1 )
1479:Lib/FreeRTOS/Source/tasks.c **** 
1480:Lib/FreeRTOS/Source/tasks.c ****     UBaseType_t uxTaskPriorityGetFromISR( const TaskHandle_t xTask )
1481:Lib/FreeRTOS/Source/tasks.c ****     {
 1363              		.loc 1 1481 5
 1364              		.cfi_startproc
 1365              		@ args = 0, pretend = 0, frame = 24
 1366              		@ frame_needed = 1, uses_anonymous_args = 0
 1367 0000 80B5     		push	{r7, lr}
 1368              		.cfi_def_cfa_offset 8
 1369              		.cfi_offset 7, -8
 1370              		.cfi_offset 14, -4
 1371 0002 86B0     		sub	sp, sp, #24
 1372              		.cfi_def_cfa_offset 32
 1373 0004 00AF     		add	r7, sp, #0
 1374              		.cfi_def_cfa_register 7
 1375 0006 7860     		str	r0, [r7, #4]
1482:Lib/FreeRTOS/Source/tasks.c ****         TCB_t const * pxTCB;
1483:Lib/FreeRTOS/Source/tasks.c ****         UBaseType_t uxReturn;
1484:Lib/FreeRTOS/Source/tasks.c ****         UBaseType_t uxSavedInterruptState;
1485:Lib/FreeRTOS/Source/tasks.c **** 
1486:Lib/FreeRTOS/Source/tasks.c ****         /* RTOS ports that support interrupt nesting have the concept of a
1487:Lib/FreeRTOS/Source/tasks.c ****          * maximum  system call (or maximum API call) interrupt priority.
1488:Lib/FreeRTOS/Source/tasks.c ****          * Interrupts that are  above the maximum system call priority are keep
1489:Lib/FreeRTOS/Source/tasks.c ****          * permanently enabled, even when the RTOS kernel is in a critical section,
1490:Lib/FreeRTOS/Source/tasks.c ****          * but cannot make any calls to FreeRTOS API functions.  If configASSERT()
1491:Lib/FreeRTOS/Source/tasks.c ****          * is defined in FreeRTOSConfig.h then
1492:Lib/FreeRTOS/Source/tasks.c ****          * portASSERT_IF_INTERRUPT_PRIORITY_INVALID() will result in an assertion
1493:Lib/FreeRTOS/Source/tasks.c ****          * failure if a FreeRTOS API function is called from an interrupt that has
1494:Lib/FreeRTOS/Source/tasks.c ****          * been assigned a priority above the configured maximum system call
1495:Lib/FreeRTOS/Source/tasks.c ****          * priority.  Only FreeRTOS functions that end in FromISR can be called
1496:Lib/FreeRTOS/Source/tasks.c ****          * from interrupts  that have been assigned a priority at or (logically)
1497:Lib/FreeRTOS/Source/tasks.c ****          * below the maximum system call interrupt priority.  FreeRTOS maintains a
1498:Lib/FreeRTOS/Source/tasks.c ****          * separate interrupt safe API to ensure interrupt entry is as fast and as
1499:Lib/FreeRTOS/Source/tasks.c ****          * simple as possible.  More information (albeit Cortex-M specific) is
1500:Lib/FreeRTOS/Source/tasks.c ****          * provided on the following link:
1501:Lib/FreeRTOS/Source/tasks.c ****          * https://www.FreeRTOS.org/RTOS-Cortex-M3-M4.html */
1502:Lib/FreeRTOS/Source/tasks.c ****         portASSERT_IF_INTERRUPT_PRIORITY_INVALID();
 1376              		.loc 1 1502 9
 1377 0008 FFF7FEFF 		bl	vPortValidateInterruptPriority
1503:Lib/FreeRTOS/Source/tasks.c **** 
1504:Lib/FreeRTOS/Source/tasks.c ****         uxSavedInterruptState = portSET_INTERRUPT_MASK_FROM_ISR();
 1378              		.loc 1 1504 33
 1379 000c FFF7FEFF 		bl	ulSetInterruptMask
ARM GAS  /tmp/ccTFOe4z.s 			page 51


 1380 0010 7861     		str	r0, [r7, #20]
1505:Lib/FreeRTOS/Source/tasks.c ****         {
1506:Lib/FreeRTOS/Source/tasks.c ****             /* If null is passed in here then it is the priority of the calling
1507:Lib/FreeRTOS/Source/tasks.c ****              * task that is being queried. */
1508:Lib/FreeRTOS/Source/tasks.c ****             pxTCB = prvGetTCBFromHandle( xTask );
 1381              		.loc 1 1508 21
 1382 0012 7B68     		ldr	r3, [r7, #4]
 1383 0014 002B     		cmp	r3, #0
 1384 0016 02D1     		bne	.L88
 1385              		.loc 1 1508 21 is_stmt 0 discriminator 1
 1386 0018 074B     		ldr	r3, .L91
 1387 001a 1B68     		ldr	r3, [r3]
 1388 001c 00E0     		b	.L89
 1389              	.L88:
 1390              		.loc 1 1508 21 discriminator 2
 1391 001e 7B68     		ldr	r3, [r7, #4]
 1392              	.L89:
 1393              		.loc 1 1508 19 is_stmt 1 discriminator 4
 1394 0020 3B61     		str	r3, [r7, #16]
1509:Lib/FreeRTOS/Source/tasks.c ****             uxReturn = pxTCB->uxPriority;
 1395              		.loc 1 1509 22
 1396 0022 3B69     		ldr	r3, [r7, #16]
 1397 0024 DB6A     		ldr	r3, [r3, #44]
 1398 0026 FB60     		str	r3, [r7, #12]
1510:Lib/FreeRTOS/Source/tasks.c ****         }
1511:Lib/FreeRTOS/Source/tasks.c ****         portCLEAR_INTERRUPT_MASK_FROM_ISR( uxSavedInterruptState );
 1399              		.loc 1 1511 9
 1400 0028 7869     		ldr	r0, [r7, #20]
 1401 002a FFF7FEFF 		bl	vClearInterruptMask
1512:Lib/FreeRTOS/Source/tasks.c **** 
1513:Lib/FreeRTOS/Source/tasks.c ****         return uxReturn;
 1402              		.loc 1 1513 16
 1403 002e FB68     		ldr	r3, [r7, #12]
1514:Lib/FreeRTOS/Source/tasks.c ****     }
 1404              		.loc 1 1514 5
 1405 0030 1846     		mov	r0, r3
 1406 0032 1837     		adds	r7, r7, #24
 1407              		.cfi_def_cfa_offset 8
 1408 0034 BD46     		mov	sp, r7
 1409              		.cfi_def_cfa_register 13
 1410              		@ sp needed
 1411 0036 80BD     		pop	{r7, pc}
 1412              	.L92:
 1413              		.align	2
 1414              	.L91:
 1415 0038 00000000 		.word	pxCurrentTCB
 1416              		.cfi_endproc
 1417              	.LFE8:
 1419              		.section	.text.vTaskPrioritySet,"ax",%progbits
 1420              		.align	1
 1421              		.global	vTaskPrioritySet
 1422              		.syntax unified
 1423              		.thumb
 1424              		.thumb_func
 1426              	vTaskPrioritySet:
 1427              	.LFB9:
1515:Lib/FreeRTOS/Source/tasks.c **** 
ARM GAS  /tmp/ccTFOe4z.s 			page 52


1516:Lib/FreeRTOS/Source/tasks.c **** #endif /* INCLUDE_uxTaskPriorityGet */
1517:Lib/FreeRTOS/Source/tasks.c **** /*-----------------------------------------------------------*/
1518:Lib/FreeRTOS/Source/tasks.c **** 
1519:Lib/FreeRTOS/Source/tasks.c **** #if ( INCLUDE_vTaskPrioritySet == 1 )
1520:Lib/FreeRTOS/Source/tasks.c **** 
1521:Lib/FreeRTOS/Source/tasks.c ****     void vTaskPrioritySet( TaskHandle_t xTask,
1522:Lib/FreeRTOS/Source/tasks.c ****                            UBaseType_t uxNewPriority )
1523:Lib/FreeRTOS/Source/tasks.c ****     {
 1428              		.loc 1 1523 5
 1429              		.cfi_startproc
 1430              		@ args = 0, pretend = 0, frame = 32
 1431              		@ frame_needed = 1, uses_anonymous_args = 0
 1432 0000 80B5     		push	{r7, lr}
 1433              		.cfi_def_cfa_offset 8
 1434              		.cfi_offset 7, -8
 1435              		.cfi_offset 14, -4
 1436 0002 88B0     		sub	sp, sp, #32
 1437              		.cfi_def_cfa_offset 40
 1438 0004 00AF     		add	r7, sp, #0
 1439              		.cfi_def_cfa_register 7
 1440 0006 7860     		str	r0, [r7, #4]
 1441 0008 3960     		str	r1, [r7]
1524:Lib/FreeRTOS/Source/tasks.c ****         TCB_t * pxTCB;
1525:Lib/FreeRTOS/Source/tasks.c ****         UBaseType_t uxCurrentBasePriority, uxPriorityUsedOnEntry;
1526:Lib/FreeRTOS/Source/tasks.c ****         BaseType_t xYieldRequired = pdFALSE;
 1442              		.loc 1 1526 20
 1443 000a 0023     		movs	r3, #0
 1444 000c FB61     		str	r3, [r7, #28]
1527:Lib/FreeRTOS/Source/tasks.c **** 
1528:Lib/FreeRTOS/Source/tasks.c ****         configASSERT( uxNewPriority < configMAX_PRIORITIES );
 1445              		.loc 1 1528 9
 1446 000e 3B68     		ldr	r3, [r7]
 1447 0010 372B     		cmp	r3, #55
 1448 0012 08D9     		bls	.L94
 1449              		.loc 1 1528 9 is_stmt 0 discriminator 1
 1450 0014 FFF7FEFF 		bl	ulSetInterruptMask
 1451 0018 544B     		ldr	r3, .L105
 1452 001a 554A     		ldr	r2, .L105+4
 1453 001c 4FF4BF61 		mov	r1, #1528
 1454 0020 5448     		ldr	r0, .L105+8
 1455 0022 FFF7FEFF 		bl	__assert_func
 1456              	.L94:
1529:Lib/FreeRTOS/Source/tasks.c **** 
1530:Lib/FreeRTOS/Source/tasks.c ****         /* Ensure the new priority is valid. */
1531:Lib/FreeRTOS/Source/tasks.c ****         if( uxNewPriority >= ( UBaseType_t ) configMAX_PRIORITIES )
 1457              		.loc 1 1531 11 is_stmt 1
 1458 0026 3B68     		ldr	r3, [r7]
 1459 0028 372B     		cmp	r3, #55
 1460 002a 01D9     		bls	.L95
1532:Lib/FreeRTOS/Source/tasks.c ****         {
1533:Lib/FreeRTOS/Source/tasks.c ****             uxNewPriority = ( UBaseType_t ) configMAX_PRIORITIES - ( UBaseType_t ) 1U;
 1461              		.loc 1 1533 27
 1462 002c 3723     		movs	r3, #55
 1463 002e 3B60     		str	r3, [r7]
 1464              	.L95:
1534:Lib/FreeRTOS/Source/tasks.c ****         }
1535:Lib/FreeRTOS/Source/tasks.c ****         else
ARM GAS  /tmp/ccTFOe4z.s 			page 53


1536:Lib/FreeRTOS/Source/tasks.c ****         {
1537:Lib/FreeRTOS/Source/tasks.c ****             mtCOVERAGE_TEST_MARKER();
1538:Lib/FreeRTOS/Source/tasks.c ****         }
1539:Lib/FreeRTOS/Source/tasks.c **** 
1540:Lib/FreeRTOS/Source/tasks.c ****         taskENTER_CRITICAL();
 1465              		.loc 1 1540 9
 1466 0030 FFF7FEFF 		bl	vPortEnterCritical
1541:Lib/FreeRTOS/Source/tasks.c ****         {
1542:Lib/FreeRTOS/Source/tasks.c ****             /* If null is passed in here then it is the priority of the calling
1543:Lib/FreeRTOS/Source/tasks.c ****              * task that is being changed. */
1544:Lib/FreeRTOS/Source/tasks.c ****             pxTCB = prvGetTCBFromHandle( xTask );
 1467              		.loc 1 1544 21
 1468 0034 7B68     		ldr	r3, [r7, #4]
 1469 0036 002B     		cmp	r3, #0
 1470 0038 02D1     		bne	.L96
 1471              		.loc 1 1544 21 is_stmt 0 discriminator 1
 1472 003a 4F4B     		ldr	r3, .L105+12
 1473 003c 1B68     		ldr	r3, [r3]
 1474 003e 00E0     		b	.L97
 1475              	.L96:
 1476              		.loc 1 1544 21 discriminator 2
 1477 0040 7B68     		ldr	r3, [r7, #4]
 1478              	.L97:
 1479              		.loc 1 1544 19 is_stmt 1 discriminator 4
 1480 0042 BB61     		str	r3, [r7, #24]
1545:Lib/FreeRTOS/Source/tasks.c **** 
1546:Lib/FreeRTOS/Source/tasks.c ****             traceTASK_PRIORITY_SET( pxTCB, uxNewPriority );
1547:Lib/FreeRTOS/Source/tasks.c **** 
1548:Lib/FreeRTOS/Source/tasks.c ****             #if ( configUSE_MUTEXES == 1 )
1549:Lib/FreeRTOS/Source/tasks.c ****             {
1550:Lib/FreeRTOS/Source/tasks.c ****                 uxCurrentBasePriority = pxTCB->uxBasePriority;
 1481              		.loc 1 1550 39
 1482 0044 BB69     		ldr	r3, [r7, #24]
 1483 0046 DB6C     		ldr	r3, [r3, #76]
 1484 0048 7B61     		str	r3, [r7, #20]
1551:Lib/FreeRTOS/Source/tasks.c ****             }
1552:Lib/FreeRTOS/Source/tasks.c ****             #else
1553:Lib/FreeRTOS/Source/tasks.c ****             {
1554:Lib/FreeRTOS/Source/tasks.c ****                 uxCurrentBasePriority = pxTCB->uxPriority;
1555:Lib/FreeRTOS/Source/tasks.c ****             }
1556:Lib/FreeRTOS/Source/tasks.c ****             #endif
1557:Lib/FreeRTOS/Source/tasks.c **** 
1558:Lib/FreeRTOS/Source/tasks.c ****             if( uxCurrentBasePriority != uxNewPriority )
 1485              		.loc 1 1558 15
 1486 004a 7A69     		ldr	r2, [r7, #20]
 1487 004c 3B68     		ldr	r3, [r7]
 1488 004e 9A42     		cmp	r2, r3
 1489 0050 00F08680 		beq	.L98
1559:Lib/FreeRTOS/Source/tasks.c ****             {
1560:Lib/FreeRTOS/Source/tasks.c ****                 /* The priority change may have readied a task of higher
1561:Lib/FreeRTOS/Source/tasks.c ****                  * priority than the calling task. */
1562:Lib/FreeRTOS/Source/tasks.c ****                 if( uxNewPriority > uxCurrentBasePriority )
 1490              		.loc 1 1562 19
 1491 0054 3A68     		ldr	r2, [r7]
 1492 0056 7B69     		ldr	r3, [r7, #20]
 1493 0058 9A42     		cmp	r2, r3
 1494 005a 0DD9     		bls	.L99
ARM GAS  /tmp/ccTFOe4z.s 			page 54


1563:Lib/FreeRTOS/Source/tasks.c ****                 {
1564:Lib/FreeRTOS/Source/tasks.c ****                     if( pxTCB != pxCurrentTCB )
 1495              		.loc 1 1564 31
 1496 005c 464B     		ldr	r3, .L105+12
 1497 005e 1B68     		ldr	r3, [r3]
 1498              		.loc 1 1564 23
 1499 0060 BA69     		ldr	r2, [r7, #24]
 1500 0062 9A42     		cmp	r2, r3
 1501 0064 0FD0     		beq	.L100
1565:Lib/FreeRTOS/Source/tasks.c ****                     {
1566:Lib/FreeRTOS/Source/tasks.c ****                         /* The priority of a task other than the currently
1567:Lib/FreeRTOS/Source/tasks.c ****                          * running task is being raised.  Is the priority being
1568:Lib/FreeRTOS/Source/tasks.c ****                          * raised above that of the running task? */
1569:Lib/FreeRTOS/Source/tasks.c ****                         if( uxNewPriority > pxCurrentTCB->uxPriority )
 1502              		.loc 1 1569 57
 1503 0066 444B     		ldr	r3, .L105+12
 1504 0068 1B68     		ldr	r3, [r3]
 1505 006a DB6A     		ldr	r3, [r3, #44]
 1506              		.loc 1 1569 27
 1507 006c 3A68     		ldr	r2, [r7]
 1508 006e 9A42     		cmp	r2, r3
 1509 0070 09D9     		bls	.L100
1570:Lib/FreeRTOS/Source/tasks.c ****                         {
1571:Lib/FreeRTOS/Source/tasks.c ****                             xYieldRequired = pdTRUE;
 1510              		.loc 1 1571 44
 1511 0072 0123     		movs	r3, #1
 1512 0074 FB61     		str	r3, [r7, #28]
 1513 0076 06E0     		b	.L100
 1514              	.L99:
1572:Lib/FreeRTOS/Source/tasks.c ****                         }
1573:Lib/FreeRTOS/Source/tasks.c ****                         else
1574:Lib/FreeRTOS/Source/tasks.c ****                         {
1575:Lib/FreeRTOS/Source/tasks.c ****                             mtCOVERAGE_TEST_MARKER();
1576:Lib/FreeRTOS/Source/tasks.c ****                         }
1577:Lib/FreeRTOS/Source/tasks.c ****                     }
1578:Lib/FreeRTOS/Source/tasks.c ****                     else
1579:Lib/FreeRTOS/Source/tasks.c ****                     {
1580:Lib/FreeRTOS/Source/tasks.c ****                         /* The priority of the running task is being raised,
1581:Lib/FreeRTOS/Source/tasks.c ****                          * but the running task must already be the highest
1582:Lib/FreeRTOS/Source/tasks.c ****                          * priority task able to run so no yield is required. */
1583:Lib/FreeRTOS/Source/tasks.c ****                     }
1584:Lib/FreeRTOS/Source/tasks.c ****                 }
1585:Lib/FreeRTOS/Source/tasks.c ****                 else if( pxTCB == pxCurrentTCB )
 1515              		.loc 1 1585 32
 1516 0078 3F4B     		ldr	r3, .L105+12
 1517 007a 1B68     		ldr	r3, [r3]
 1518              		.loc 1 1585 24
 1519 007c BA69     		ldr	r2, [r7, #24]
 1520 007e 9A42     		cmp	r2, r3
 1521 0080 01D1     		bne	.L100
1586:Lib/FreeRTOS/Source/tasks.c ****                 {
1587:Lib/FreeRTOS/Source/tasks.c ****                     /* Setting the priority of the running task down means
1588:Lib/FreeRTOS/Source/tasks.c ****                      * there may now be another task of higher priority that
1589:Lib/FreeRTOS/Source/tasks.c ****                      * is ready to execute. */
1590:Lib/FreeRTOS/Source/tasks.c ****                     xYieldRequired = pdTRUE;
 1522              		.loc 1 1590 36
 1523 0082 0123     		movs	r3, #1
ARM GAS  /tmp/ccTFOe4z.s 			page 55


 1524 0084 FB61     		str	r3, [r7, #28]
 1525              	.L100:
1591:Lib/FreeRTOS/Source/tasks.c ****                 }
1592:Lib/FreeRTOS/Source/tasks.c ****                 else
1593:Lib/FreeRTOS/Source/tasks.c ****                 {
1594:Lib/FreeRTOS/Source/tasks.c ****                     /* Setting the priority of any other task down does not
1595:Lib/FreeRTOS/Source/tasks.c ****                      * require a yield as the running task must be above the
1596:Lib/FreeRTOS/Source/tasks.c ****                      * new priority of the task being modified. */
1597:Lib/FreeRTOS/Source/tasks.c ****                 }
1598:Lib/FreeRTOS/Source/tasks.c **** 
1599:Lib/FreeRTOS/Source/tasks.c ****                 /* Remember the ready list the task might be referenced from
1600:Lib/FreeRTOS/Source/tasks.c ****                  * before its uxPriority member is changed so the
1601:Lib/FreeRTOS/Source/tasks.c ****                  * taskRESET_READY_PRIORITY() macro can function correctly. */
1602:Lib/FreeRTOS/Source/tasks.c ****                 uxPriorityUsedOnEntry = pxTCB->uxPriority;
 1526              		.loc 1 1602 39
 1527 0086 BB69     		ldr	r3, [r7, #24]
 1528 0088 DB6A     		ldr	r3, [r3, #44]
 1529 008a 3B61     		str	r3, [r7, #16]
1603:Lib/FreeRTOS/Source/tasks.c **** 
1604:Lib/FreeRTOS/Source/tasks.c ****                 #if ( configUSE_MUTEXES == 1 )
1605:Lib/FreeRTOS/Source/tasks.c ****                 {
1606:Lib/FreeRTOS/Source/tasks.c ****                     /* Only change the priority being used if the task is not
1607:Lib/FreeRTOS/Source/tasks.c ****                      * currently using an inherited priority. */
1608:Lib/FreeRTOS/Source/tasks.c ****                     if( pxTCB->uxBasePriority == pxTCB->uxPriority )
 1530              		.loc 1 1608 30
 1531 008c BB69     		ldr	r3, [r7, #24]
 1532 008e DA6C     		ldr	r2, [r3, #76]
 1533              		.loc 1 1608 55
 1534 0090 BB69     		ldr	r3, [r7, #24]
 1535 0092 DB6A     		ldr	r3, [r3, #44]
 1536              		.loc 1 1608 23
 1537 0094 9A42     		cmp	r2, r3
 1538 0096 02D1     		bne	.L101
1609:Lib/FreeRTOS/Source/tasks.c ****                     {
1610:Lib/FreeRTOS/Source/tasks.c ****                         pxTCB->uxPriority = uxNewPriority;
 1539              		.loc 1 1610 43
 1540 0098 BB69     		ldr	r3, [r7, #24]
 1541 009a 3A68     		ldr	r2, [r7]
 1542 009c DA62     		str	r2, [r3, #44]
 1543              	.L101:
1611:Lib/FreeRTOS/Source/tasks.c ****                     }
1612:Lib/FreeRTOS/Source/tasks.c ****                     else
1613:Lib/FreeRTOS/Source/tasks.c ****                     {
1614:Lib/FreeRTOS/Source/tasks.c ****                         mtCOVERAGE_TEST_MARKER();
1615:Lib/FreeRTOS/Source/tasks.c ****                     }
1616:Lib/FreeRTOS/Source/tasks.c **** 
1617:Lib/FreeRTOS/Source/tasks.c ****                     /* The base priority gets set whatever. */
1618:Lib/FreeRTOS/Source/tasks.c ****                     pxTCB->uxBasePriority = uxNewPriority;
 1544              		.loc 1 1618 43
 1545 009e BB69     		ldr	r3, [r7, #24]
 1546 00a0 3A68     		ldr	r2, [r7]
 1547 00a2 DA64     		str	r2, [r3, #76]
1619:Lib/FreeRTOS/Source/tasks.c ****                 }
1620:Lib/FreeRTOS/Source/tasks.c ****                 #else /* if ( configUSE_MUTEXES == 1 ) */
1621:Lib/FreeRTOS/Source/tasks.c ****                 {
1622:Lib/FreeRTOS/Source/tasks.c ****                     pxTCB->uxPriority = uxNewPriority;
1623:Lib/FreeRTOS/Source/tasks.c ****                 }
ARM GAS  /tmp/ccTFOe4z.s 			page 56


1624:Lib/FreeRTOS/Source/tasks.c ****                 #endif /* if ( configUSE_MUTEXES == 1 ) */
1625:Lib/FreeRTOS/Source/tasks.c **** 
1626:Lib/FreeRTOS/Source/tasks.c ****                 /* Only reset the event list item value if the value is not
1627:Lib/FreeRTOS/Source/tasks.c ****                  * being used for anything else. */
1628:Lib/FreeRTOS/Source/tasks.c ****                 if( ( listGET_LIST_ITEM_VALUE( &( pxTCB->xEventListItem ) ) & taskEVENT_LIST_ITEM_V
 1548              		.loc 1 1628 23
 1549 00a4 BB69     		ldr	r3, [r7, #24]
 1550 00a6 9B69     		ldr	r3, [r3, #24]
 1551              		.loc 1 1628 19
 1552 00a8 002B     		cmp	r3, #0
 1553 00aa 04DB     		blt	.L102
1629:Lib/FreeRTOS/Source/tasks.c ****                 {
1630:Lib/FreeRTOS/Source/tasks.c ****                     listSET_LIST_ITEM_VALUE( &( pxTCB->xEventListItem ), ( ( TickType_t ) configMAX
 1554              		.loc 1 1630 21
 1555 00ac 3B68     		ldr	r3, [r7]
 1556 00ae C3F13802 		rsb	r2, r3, #56
 1557 00b2 BB69     		ldr	r3, [r7, #24]
 1558 00b4 9A61     		str	r2, [r3, #24]
 1559              	.L102:
1631:Lib/FreeRTOS/Source/tasks.c ****                 }
1632:Lib/FreeRTOS/Source/tasks.c ****                 else
1633:Lib/FreeRTOS/Source/tasks.c ****                 {
1634:Lib/FreeRTOS/Source/tasks.c ****                     mtCOVERAGE_TEST_MARKER();
1635:Lib/FreeRTOS/Source/tasks.c ****                 }
1636:Lib/FreeRTOS/Source/tasks.c **** 
1637:Lib/FreeRTOS/Source/tasks.c ****                 /* If the task is in the blocked or suspended list we need do
1638:Lib/FreeRTOS/Source/tasks.c ****                  * nothing more than change its priority variable. However, if
1639:Lib/FreeRTOS/Source/tasks.c ****                  * the task is in a ready list it needs to be removed and placed
1640:Lib/FreeRTOS/Source/tasks.c ****                  * in the list appropriate to its new priority. */
1641:Lib/FreeRTOS/Source/tasks.c ****                 if( listIS_CONTAINED_WITHIN( &( pxReadyTasksLists[ uxPriorityUsedOnEntry ] ), &( px
 1560              		.loc 1 1641 21
 1561 00b6 BB69     		ldr	r3, [r7, #24]
 1562 00b8 5969     		ldr	r1, [r3, #20]
 1563 00ba 3A69     		ldr	r2, [r7, #16]
 1564 00bc 1346     		mov	r3, r2
 1565 00be 9B00     		lsls	r3, r3, #2
 1566 00c0 1344     		add	r3, r3, r2
 1567 00c2 9B00     		lsls	r3, r3, #2
 1568 00c4 2D4A     		ldr	r2, .L105+16
 1569 00c6 1344     		add	r3, r3, r2
 1570              		.loc 1 1641 19
 1571 00c8 9942     		cmp	r1, r3
 1572 00ca 44D1     		bne	.L103
1642:Lib/FreeRTOS/Source/tasks.c ****                 {
1643:Lib/FreeRTOS/Source/tasks.c ****                     /* The task is currently in its ready list - remove before
1644:Lib/FreeRTOS/Source/tasks.c ****                      * adding it to its new ready list.  As we are in a critical
1645:Lib/FreeRTOS/Source/tasks.c ****                      * section we can do this even if the scheduler is suspended. */
1646:Lib/FreeRTOS/Source/tasks.c ****                     if( uxListRemove( &( pxTCB->xStateListItem ) ) == ( UBaseType_t ) 0 )
 1573              		.loc 1 1646 25
 1574 00cc BB69     		ldr	r3, [r7, #24]
 1575 00ce 0433     		adds	r3, r3, #4
 1576 00d0 1846     		mov	r0, r3
 1577 00d2 FFF7FEFF 		bl	uxListRemove
1647:Lib/FreeRTOS/Source/tasks.c ****                     {
1648:Lib/FreeRTOS/Source/tasks.c ****                         /* It is known that the task is in its ready list so
1649:Lib/FreeRTOS/Source/tasks.c ****                          * there is no need to check again and the port level
1650:Lib/FreeRTOS/Source/tasks.c ****                          * reset macro can be called directly. */
ARM GAS  /tmp/ccTFOe4z.s 			page 57


1651:Lib/FreeRTOS/Source/tasks.c ****                         portRESET_READY_PRIORITY( uxPriorityUsedOnEntry, uxTopReadyPriority );
1652:Lib/FreeRTOS/Source/tasks.c ****                     }
1653:Lib/FreeRTOS/Source/tasks.c ****                     else
1654:Lib/FreeRTOS/Source/tasks.c ****                     {
1655:Lib/FreeRTOS/Source/tasks.c ****                         mtCOVERAGE_TEST_MARKER();
1656:Lib/FreeRTOS/Source/tasks.c ****                     }
1657:Lib/FreeRTOS/Source/tasks.c **** 
1658:Lib/FreeRTOS/Source/tasks.c ****                     prvAddTaskToReadyList( pxTCB );
 1578              		.loc 1 1658 21
 1579 00d6 BB69     		ldr	r3, [r7, #24]
 1580 00d8 DA6A     		ldr	r2, [r3, #44]
 1581 00da 294B     		ldr	r3, .L105+20
 1582 00dc 1B68     		ldr	r3, [r3]
 1583 00de 9A42     		cmp	r2, r3
 1584 00e0 03D9     		bls	.L104
 1585              		.loc 1 1658 21 is_stmt 0 discriminator 1
 1586 00e2 BB69     		ldr	r3, [r7, #24]
 1587 00e4 DB6A     		ldr	r3, [r3, #44]
 1588 00e6 264A     		ldr	r2, .L105+20
 1589 00e8 1360     		str	r3, [r2]
 1590              	.L104:
 1591              	.LBB6:
 1592              		.loc 1 1658 21 discriminator 3
 1593 00ea BB69     		ldr	r3, [r7, #24]
 1594 00ec DA6A     		ldr	r2, [r3, #44]
 1595 00ee 2349     		ldr	r1, .L105+16
 1596 00f0 1346     		mov	r3, r2
 1597 00f2 9B00     		lsls	r3, r3, #2
 1598 00f4 1344     		add	r3, r3, r2
 1599 00f6 9B00     		lsls	r3, r3, #2
 1600 00f8 0B44     		add	r3, r3, r1
 1601 00fa 0433     		adds	r3, r3, #4
 1602 00fc 1B68     		ldr	r3, [r3]
 1603 00fe FB60     		str	r3, [r7, #12]
 1604 0100 BB69     		ldr	r3, [r7, #24]
 1605 0102 FA68     		ldr	r2, [r7, #12]
 1606 0104 9A60     		str	r2, [r3, #8]
 1607 0106 FB68     		ldr	r3, [r7, #12]
 1608 0108 9A68     		ldr	r2, [r3, #8]
 1609 010a BB69     		ldr	r3, [r7, #24]
 1610 010c DA60     		str	r2, [r3, #12]
 1611 010e FB68     		ldr	r3, [r7, #12]
 1612 0110 9B68     		ldr	r3, [r3, #8]
 1613 0112 BA69     		ldr	r2, [r7, #24]
 1614 0114 0432     		adds	r2, r2, #4
 1615 0116 5A60     		str	r2, [r3, #4]
 1616 0118 BB69     		ldr	r3, [r7, #24]
 1617 011a 1A1D     		adds	r2, r3, #4
 1618 011c FB68     		ldr	r3, [r7, #12]
 1619 011e 9A60     		str	r2, [r3, #8]
 1620 0120 BB69     		ldr	r3, [r7, #24]
 1621 0122 DA6A     		ldr	r2, [r3, #44]
 1622 0124 1346     		mov	r3, r2
 1623 0126 9B00     		lsls	r3, r3, #2
 1624 0128 1344     		add	r3, r3, r2
 1625 012a 9B00     		lsls	r3, r3, #2
 1626 012c 134A     		ldr	r2, .L105+16
ARM GAS  /tmp/ccTFOe4z.s 			page 58


 1627 012e 1A44     		add	r2, r2, r3
 1628 0130 BB69     		ldr	r3, [r7, #24]
 1629 0132 5A61     		str	r2, [r3, #20]
 1630 0134 BB69     		ldr	r3, [r7, #24]
 1631 0136 DA6A     		ldr	r2, [r3, #44]
 1632 0138 1049     		ldr	r1, .L105+16
 1633 013a 1346     		mov	r3, r2
 1634 013c 9B00     		lsls	r3, r3, #2
 1635 013e 1344     		add	r3, r3, r2
 1636 0140 9B00     		lsls	r3, r3, #2
 1637 0142 0B44     		add	r3, r3, r1
 1638 0144 1B68     		ldr	r3, [r3]
 1639 0146 591C     		adds	r1, r3, #1
 1640 0148 0C48     		ldr	r0, .L105+16
 1641 014a 1346     		mov	r3, r2
 1642 014c 9B00     		lsls	r3, r3, #2
 1643 014e 1344     		add	r3, r3, r2
 1644 0150 9B00     		lsls	r3, r3, #2
 1645 0152 0344     		add	r3, r3, r0
 1646 0154 1960     		str	r1, [r3]
 1647              	.L103:
 1648              	.LBE6:
1659:Lib/FreeRTOS/Source/tasks.c ****                 }
1660:Lib/FreeRTOS/Source/tasks.c ****                 else
1661:Lib/FreeRTOS/Source/tasks.c ****                 {
1662:Lib/FreeRTOS/Source/tasks.c ****                     mtCOVERAGE_TEST_MARKER();
1663:Lib/FreeRTOS/Source/tasks.c ****                 }
1664:Lib/FreeRTOS/Source/tasks.c **** 
1665:Lib/FreeRTOS/Source/tasks.c ****                 if( xYieldRequired != pdFALSE )
 1649              		.loc 1 1665 19 is_stmt 1
 1650 0156 FB69     		ldr	r3, [r7, #28]
 1651 0158 002B     		cmp	r3, #0
 1652 015a 01D0     		beq	.L98
1666:Lib/FreeRTOS/Source/tasks.c ****                 {
1667:Lib/FreeRTOS/Source/tasks.c ****                     taskYIELD_IF_USING_PREEMPTION();
 1653              		.loc 1 1667 21
 1654 015c FFF7FEFF 		bl	vPortYield
 1655              	.L98:
1668:Lib/FreeRTOS/Source/tasks.c ****                 }
1669:Lib/FreeRTOS/Source/tasks.c ****                 else
1670:Lib/FreeRTOS/Source/tasks.c ****                 {
1671:Lib/FreeRTOS/Source/tasks.c ****                     mtCOVERAGE_TEST_MARKER();
1672:Lib/FreeRTOS/Source/tasks.c ****                 }
1673:Lib/FreeRTOS/Source/tasks.c **** 
1674:Lib/FreeRTOS/Source/tasks.c ****                 /* Remove compiler warning about unused variables when the port
1675:Lib/FreeRTOS/Source/tasks.c ****                  * optimised task selection is not being used. */
1676:Lib/FreeRTOS/Source/tasks.c ****                 ( void ) uxPriorityUsedOnEntry;
1677:Lib/FreeRTOS/Source/tasks.c ****             }
1678:Lib/FreeRTOS/Source/tasks.c ****         }
1679:Lib/FreeRTOS/Source/tasks.c ****         taskEXIT_CRITICAL();
 1656              		.loc 1 1679 9
 1657 0160 FFF7FEFF 		bl	vPortExitCritical
1680:Lib/FreeRTOS/Source/tasks.c ****     }
 1658              		.loc 1 1680 5
 1659 0164 00BF     		nop
 1660 0166 2037     		adds	r7, r7, #32
 1661              		.cfi_def_cfa_offset 8
ARM GAS  /tmp/ccTFOe4z.s 			page 59


 1662 0168 BD46     		mov	sp, r7
 1663              		.cfi_def_cfa_register 13
 1664              		@ sp needed
 1665 016a 80BD     		pop	{r7, pc}
 1666              	.L106:
 1667              		.align	2
 1668              	.L105:
 1669 016c 00000000 		.word	.LC0
 1670 0170 00000000 		.word	__func__.28
 1671 0174 04000000 		.word	.LC1
 1672 0178 00000000 		.word	pxCurrentTCB
 1673 017c 00000000 		.word	pxReadyTasksLists
 1674 0180 00000000 		.word	uxTopReadyPriority
 1675              		.cfi_endproc
 1676              	.LFE9:
 1678              		.section	.text.vTaskSuspend,"ax",%progbits
 1679              		.align	1
 1680              		.global	vTaskSuspend
 1681              		.syntax unified
 1682              		.thumb
 1683              		.thumb_func
 1685              	vTaskSuspend:
 1686              	.LFB10:
1681:Lib/FreeRTOS/Source/tasks.c **** 
1682:Lib/FreeRTOS/Source/tasks.c **** #endif /* INCLUDE_vTaskPrioritySet */
1683:Lib/FreeRTOS/Source/tasks.c **** /*-----------------------------------------------------------*/
1684:Lib/FreeRTOS/Source/tasks.c **** 
1685:Lib/FreeRTOS/Source/tasks.c **** #if ( INCLUDE_vTaskSuspend == 1 )
1686:Lib/FreeRTOS/Source/tasks.c **** 
1687:Lib/FreeRTOS/Source/tasks.c ****     void vTaskSuspend( TaskHandle_t xTaskToSuspend )
1688:Lib/FreeRTOS/Source/tasks.c ****     {
 1687              		.loc 1 1688 5
 1688              		.cfi_startproc
 1689              		@ args = 0, pretend = 0, frame = 16
 1690              		@ frame_needed = 1, uses_anonymous_args = 0
 1691 0000 80B5     		push	{r7, lr}
 1692              		.cfi_def_cfa_offset 8
 1693              		.cfi_offset 7, -8
 1694              		.cfi_offset 14, -4
 1695 0002 84B0     		sub	sp, sp, #16
 1696              		.cfi_def_cfa_offset 24
 1697 0004 00AF     		add	r7, sp, #0
 1698              		.cfi_def_cfa_register 7
 1699 0006 7860     		str	r0, [r7, #4]
1689:Lib/FreeRTOS/Source/tasks.c ****         TCB_t * pxTCB;
1690:Lib/FreeRTOS/Source/tasks.c **** 
1691:Lib/FreeRTOS/Source/tasks.c ****         taskENTER_CRITICAL();
 1700              		.loc 1 1691 9
 1701 0008 FFF7FEFF 		bl	vPortEnterCritical
1692:Lib/FreeRTOS/Source/tasks.c ****         {
1693:Lib/FreeRTOS/Source/tasks.c ****             /* If null is passed in here then it is the running task that is
1694:Lib/FreeRTOS/Source/tasks.c ****              * being suspended. */
1695:Lib/FreeRTOS/Source/tasks.c ****             pxTCB = prvGetTCBFromHandle( xTaskToSuspend );
 1702              		.loc 1 1695 21
 1703 000c 7B68     		ldr	r3, [r7, #4]
 1704 000e 002B     		cmp	r3, #0
 1705 0010 02D1     		bne	.L108
ARM GAS  /tmp/ccTFOe4z.s 			page 60


 1706              		.loc 1 1695 21 is_stmt 0 discriminator 1
 1707 0012 324B     		ldr	r3, .L120
 1708 0014 1B68     		ldr	r3, [r3]
 1709 0016 00E0     		b	.L109
 1710              	.L108:
 1711              		.loc 1 1695 21 discriminator 2
 1712 0018 7B68     		ldr	r3, [r7, #4]
 1713              	.L109:
 1714              		.loc 1 1695 19 is_stmt 1 discriminator 4
 1715 001a BB60     		str	r3, [r7, #8]
1696:Lib/FreeRTOS/Source/tasks.c **** 
1697:Lib/FreeRTOS/Source/tasks.c ****             traceTASK_SUSPEND( pxTCB );
1698:Lib/FreeRTOS/Source/tasks.c **** 
1699:Lib/FreeRTOS/Source/tasks.c ****             /* Remove task from the ready/delayed list and place in the
1700:Lib/FreeRTOS/Source/tasks.c ****              * suspended list. */
1701:Lib/FreeRTOS/Source/tasks.c ****             if( uxListRemove( &( pxTCB->xStateListItem ) ) == ( UBaseType_t ) 0 )
 1716              		.loc 1 1701 17
 1717 001c BB68     		ldr	r3, [r7, #8]
 1718 001e 0433     		adds	r3, r3, #4
 1719 0020 1846     		mov	r0, r3
 1720 0022 FFF7FEFF 		bl	uxListRemove
1702:Lib/FreeRTOS/Source/tasks.c ****             {
1703:Lib/FreeRTOS/Source/tasks.c ****                 taskRESET_READY_PRIORITY( pxTCB->uxPriority );
1704:Lib/FreeRTOS/Source/tasks.c ****             }
1705:Lib/FreeRTOS/Source/tasks.c ****             else
1706:Lib/FreeRTOS/Source/tasks.c ****             {
1707:Lib/FreeRTOS/Source/tasks.c ****                 mtCOVERAGE_TEST_MARKER();
1708:Lib/FreeRTOS/Source/tasks.c ****             }
1709:Lib/FreeRTOS/Source/tasks.c **** 
1710:Lib/FreeRTOS/Source/tasks.c ****             /* Is the task waiting on an event also? */
1711:Lib/FreeRTOS/Source/tasks.c ****             if( listLIST_ITEM_CONTAINER( &( pxTCB->xEventListItem ) ) != NULL )
 1721              		.loc 1 1711 17
 1722 0026 BB68     		ldr	r3, [r7, #8]
 1723 0028 9B6A     		ldr	r3, [r3, #40]
 1724              		.loc 1 1711 15
 1725 002a 002B     		cmp	r3, #0
 1726 002c 04D0     		beq	.L110
1712:Lib/FreeRTOS/Source/tasks.c ****             {
1713:Lib/FreeRTOS/Source/tasks.c ****                 ( void ) uxListRemove( &( pxTCB->xEventListItem ) );
 1727              		.loc 1 1713 26
 1728 002e BB68     		ldr	r3, [r7, #8]
 1729 0030 1833     		adds	r3, r3, #24
 1730 0032 1846     		mov	r0, r3
 1731 0034 FFF7FEFF 		bl	uxListRemove
 1732              	.L110:
1714:Lib/FreeRTOS/Source/tasks.c ****             }
1715:Lib/FreeRTOS/Source/tasks.c ****             else
1716:Lib/FreeRTOS/Source/tasks.c ****             {
1717:Lib/FreeRTOS/Source/tasks.c ****                 mtCOVERAGE_TEST_MARKER();
1718:Lib/FreeRTOS/Source/tasks.c ****             }
1719:Lib/FreeRTOS/Source/tasks.c **** 
1720:Lib/FreeRTOS/Source/tasks.c ****             vListInsertEnd( &xSuspendedTaskList, &( pxTCB->xStateListItem ) );
 1733              		.loc 1 1720 13
 1734 0038 BB68     		ldr	r3, [r7, #8]
 1735 003a 0433     		adds	r3, r3, #4
 1736 003c 1946     		mov	r1, r3
 1737 003e 2848     		ldr	r0, .L120+4
ARM GAS  /tmp/ccTFOe4z.s 			page 61


 1738 0040 FFF7FEFF 		bl	vListInsertEnd
 1739              	.LBB7:
1721:Lib/FreeRTOS/Source/tasks.c **** 
1722:Lib/FreeRTOS/Source/tasks.c ****             #if ( configUSE_TASK_NOTIFICATIONS == 1 )
1723:Lib/FreeRTOS/Source/tasks.c ****             {
1724:Lib/FreeRTOS/Source/tasks.c ****                 BaseType_t x;
1725:Lib/FreeRTOS/Source/tasks.c **** 
1726:Lib/FreeRTOS/Source/tasks.c ****                 for( x = 0; x < configTASK_NOTIFICATION_ARRAY_ENTRIES; x++ )
 1740              		.loc 1 1726 24
 1741 0044 0023     		movs	r3, #0
 1742 0046 FB60     		str	r3, [r7, #12]
 1743              		.loc 1 1726 17
 1744 0048 10E0     		b	.L111
 1745              	.L113:
1727:Lib/FreeRTOS/Source/tasks.c ****                 {
1728:Lib/FreeRTOS/Source/tasks.c ****                     if( pxTCB->ucNotifyState[ x ] == taskWAITING_NOTIFICATION )
 1746              		.loc 1 1728 45
 1747 004a BA68     		ldr	r2, [r7, #8]
 1748 004c FB68     		ldr	r3, [r7, #12]
 1749 004e 1344     		add	r3, r3, r2
 1750 0050 5C33     		adds	r3, r3, #92
 1751 0052 1B78     		ldrb	r3, [r3]
 1752 0054 DBB2     		uxtb	r3, r3
 1753              		.loc 1 1728 23
 1754 0056 012B     		cmp	r3, #1
 1755 0058 05D1     		bne	.L112
1729:Lib/FreeRTOS/Source/tasks.c ****                     {
1730:Lib/FreeRTOS/Source/tasks.c ****                         /* The task was blocked to wait for a notification, but is
1731:Lib/FreeRTOS/Source/tasks.c ****                          * now suspended, so no notification was received. */
1732:Lib/FreeRTOS/Source/tasks.c ****                         pxTCB->ucNotifyState[ x ] = taskNOT_WAITING_NOTIFICATION;
 1756              		.loc 1 1732 51
 1757 005a BA68     		ldr	r2, [r7, #8]
 1758 005c FB68     		ldr	r3, [r7, #12]
 1759 005e 1344     		add	r3, r3, r2
 1760 0060 5C33     		adds	r3, r3, #92
 1761 0062 0022     		movs	r2, #0
 1762 0064 1A70     		strb	r2, [r3]
 1763              	.L112:
1726:Lib/FreeRTOS/Source/tasks.c ****                 {
 1764              		.loc 1 1726 73 discriminator 2
 1765 0066 FB68     		ldr	r3, [r7, #12]
 1766 0068 0133     		adds	r3, r3, #1
 1767 006a FB60     		str	r3, [r7, #12]
 1768              	.L111:
1726:Lib/FreeRTOS/Source/tasks.c ****                 {
 1769              		.loc 1 1726 31 discriminator 1
 1770 006c FB68     		ldr	r3, [r7, #12]
 1771 006e 002B     		cmp	r3, #0
 1772 0070 EBDD     		ble	.L113
 1773              	.LBE7:
1733:Lib/FreeRTOS/Source/tasks.c ****                     }
1734:Lib/FreeRTOS/Source/tasks.c ****                 }
1735:Lib/FreeRTOS/Source/tasks.c ****             }
1736:Lib/FreeRTOS/Source/tasks.c ****             #endif /* if ( configUSE_TASK_NOTIFICATIONS == 1 ) */
1737:Lib/FreeRTOS/Source/tasks.c ****         }
1738:Lib/FreeRTOS/Source/tasks.c ****         taskEXIT_CRITICAL();
 1774              		.loc 1 1738 9
ARM GAS  /tmp/ccTFOe4z.s 			page 62


 1775 0072 FFF7FEFF 		bl	vPortExitCritical
1739:Lib/FreeRTOS/Source/tasks.c **** 
1740:Lib/FreeRTOS/Source/tasks.c ****         if( xSchedulerRunning != pdFALSE )
 1776              		.loc 1 1740 31
 1777 0076 1B4B     		ldr	r3, .L120+8
 1778 0078 1B68     		ldr	r3, [r3]
 1779              		.loc 1 1740 11
 1780 007a 002B     		cmp	r3, #0
 1781 007c 05D0     		beq	.L114
1741:Lib/FreeRTOS/Source/tasks.c ****         {
1742:Lib/FreeRTOS/Source/tasks.c ****             /* Reset the next expected unblock time in case it referred to the
1743:Lib/FreeRTOS/Source/tasks.c ****              * task that is now in the Suspended state. */
1744:Lib/FreeRTOS/Source/tasks.c ****             taskENTER_CRITICAL();
 1782              		.loc 1 1744 13
 1783 007e FFF7FEFF 		bl	vPortEnterCritical
1745:Lib/FreeRTOS/Source/tasks.c ****             {
1746:Lib/FreeRTOS/Source/tasks.c ****                 prvResetNextTaskUnblockTime();
 1784              		.loc 1 1746 17
 1785 0082 FFF7FEFF 		bl	prvResetNextTaskUnblockTime
1747:Lib/FreeRTOS/Source/tasks.c ****             }
1748:Lib/FreeRTOS/Source/tasks.c ****             taskEXIT_CRITICAL();
 1786              		.loc 1 1748 13
 1787 0086 FFF7FEFF 		bl	vPortExitCritical
 1788              	.L114:
1749:Lib/FreeRTOS/Source/tasks.c ****         }
1750:Lib/FreeRTOS/Source/tasks.c ****         else
1751:Lib/FreeRTOS/Source/tasks.c ****         {
1752:Lib/FreeRTOS/Source/tasks.c ****             mtCOVERAGE_TEST_MARKER();
1753:Lib/FreeRTOS/Source/tasks.c ****         }
1754:Lib/FreeRTOS/Source/tasks.c **** 
1755:Lib/FreeRTOS/Source/tasks.c ****         if( pxTCB == pxCurrentTCB )
 1789              		.loc 1 1755 19
 1790 008a 144B     		ldr	r3, .L120
 1791 008c 1B68     		ldr	r3, [r3]
 1792              		.loc 1 1755 11
 1793 008e BA68     		ldr	r2, [r7, #8]
 1794 0090 9A42     		cmp	r2, r3
 1795 0092 1FD1     		bne	.L119
1756:Lib/FreeRTOS/Source/tasks.c ****         {
1757:Lib/FreeRTOS/Source/tasks.c ****             if( xSchedulerRunning != pdFALSE )
 1796              		.loc 1 1757 35
 1797 0094 134B     		ldr	r3, .L120+8
 1798 0096 1B68     		ldr	r3, [r3]
 1799              		.loc 1 1757 15
 1800 0098 002B     		cmp	r3, #0
 1801 009a 0FD0     		beq	.L116
1758:Lib/FreeRTOS/Source/tasks.c ****             {
1759:Lib/FreeRTOS/Source/tasks.c ****                 /* The current task has just been suspended. */
1760:Lib/FreeRTOS/Source/tasks.c ****                 configASSERT( uxSchedulerSuspended == ( UBaseType_t ) 0U );
 1802              		.loc 1 1760 17
 1803 009c 124B     		ldr	r3, .L120+12
 1804 009e 1B68     		ldr	r3, [r3]
 1805 00a0 002B     		cmp	r3, #0
 1806 00a2 08D0     		beq	.L117
 1807              		.loc 1 1760 17 is_stmt 0 discriminator 1
 1808 00a4 FFF7FEFF 		bl	ulSetInterruptMask
 1809 00a8 104B     		ldr	r3, .L120+16
ARM GAS  /tmp/ccTFOe4z.s 			page 63


 1810 00aa 114A     		ldr	r2, .L120+20
 1811 00ac 4FF4DC61 		mov	r1, #1760
 1812 00b0 1048     		ldr	r0, .L120+24
 1813 00b2 FFF7FEFF 		bl	__assert_func
 1814              	.L117:
1761:Lib/FreeRTOS/Source/tasks.c ****                 portYIELD_WITHIN_API();
 1815              		.loc 1 1761 17 is_stmt 1
 1816 00b6 FFF7FEFF 		bl	vPortYield
1762:Lib/FreeRTOS/Source/tasks.c ****             }
1763:Lib/FreeRTOS/Source/tasks.c ****             else
1764:Lib/FreeRTOS/Source/tasks.c ****             {
1765:Lib/FreeRTOS/Source/tasks.c ****                 /* The scheduler is not running, but the task that was pointed
1766:Lib/FreeRTOS/Source/tasks.c ****                  * to by pxCurrentTCB has just been suspended and pxCurrentTCB
1767:Lib/FreeRTOS/Source/tasks.c ****                  * must be adjusted to point to a different task. */
1768:Lib/FreeRTOS/Source/tasks.c ****                 if( listCURRENT_LIST_LENGTH( &xSuspendedTaskList ) == uxCurrentNumberOfTasks ) /*li
1769:Lib/FreeRTOS/Source/tasks.c ****                 {
1770:Lib/FreeRTOS/Source/tasks.c ****                     /* No other tasks are ready, so set pxCurrentTCB back to
1771:Lib/FreeRTOS/Source/tasks.c ****                      * NULL so when the next task is created pxCurrentTCB will
1772:Lib/FreeRTOS/Source/tasks.c ****                      * be set to point to it no matter what its relative priority
1773:Lib/FreeRTOS/Source/tasks.c ****                      * is. */
1774:Lib/FreeRTOS/Source/tasks.c ****                     pxCurrentTCB = NULL;
1775:Lib/FreeRTOS/Source/tasks.c ****                 }
1776:Lib/FreeRTOS/Source/tasks.c ****                 else
1777:Lib/FreeRTOS/Source/tasks.c ****                 {
1778:Lib/FreeRTOS/Source/tasks.c ****                     vTaskSwitchContext();
1779:Lib/FreeRTOS/Source/tasks.c ****                 }
1780:Lib/FreeRTOS/Source/tasks.c ****             }
1781:Lib/FreeRTOS/Source/tasks.c ****         }
1782:Lib/FreeRTOS/Source/tasks.c ****         else
1783:Lib/FreeRTOS/Source/tasks.c ****         {
1784:Lib/FreeRTOS/Source/tasks.c ****             mtCOVERAGE_TEST_MARKER();
1785:Lib/FreeRTOS/Source/tasks.c ****         }
1786:Lib/FreeRTOS/Source/tasks.c ****     }
 1817              		.loc 1 1786 5
 1818 00ba 0BE0     		b	.L119
 1819              	.L116:
1768:Lib/FreeRTOS/Source/tasks.c ****                 {
 1820              		.loc 1 1768 21
 1821 00bc 084B     		ldr	r3, .L120+4
 1822 00be 1A68     		ldr	r2, [r3]
1768:Lib/FreeRTOS/Source/tasks.c ****                 {
 1823              		.loc 1 1768 68
 1824 00c0 0D4B     		ldr	r3, .L120+28
 1825 00c2 1B68     		ldr	r3, [r3]
1768:Lib/FreeRTOS/Source/tasks.c ****                 {
 1826              		.loc 1 1768 19
 1827 00c4 9A42     		cmp	r2, r3
 1828 00c6 03D1     		bne	.L118
1774:Lib/FreeRTOS/Source/tasks.c ****                 }
 1829              		.loc 1 1774 34
 1830 00c8 044B     		ldr	r3, .L120
 1831 00ca 0022     		movs	r2, #0
 1832 00cc 1A60     		str	r2, [r3]
 1833              		.loc 1 1786 5
 1834 00ce 01E0     		b	.L119
 1835              	.L118:
1778:Lib/FreeRTOS/Source/tasks.c ****                 }
ARM GAS  /tmp/ccTFOe4z.s 			page 64


 1836              		.loc 1 1778 21
 1837 00d0 FFF7FEFF 		bl	vTaskSwitchContext
 1838              	.L119:
 1839              		.loc 1 1786 5
 1840 00d4 00BF     		nop
 1841 00d6 1037     		adds	r7, r7, #16
 1842              		.cfi_def_cfa_offset 8
 1843 00d8 BD46     		mov	sp, r7
 1844              		.cfi_def_cfa_register 13
 1845              		@ sp needed
 1846 00da 80BD     		pop	{r7, pc}
 1847              	.L121:
 1848              		.align	2
 1849              	.L120:
 1850 00dc 00000000 		.word	pxCurrentTCB
 1851 00e0 00000000 		.word	xSuspendedTaskList
 1852 00e4 00000000 		.word	xSchedulerRunning
 1853 00e8 00000000 		.word	uxSchedulerSuspended
 1854 00ec 00000000 		.word	.LC0
 1855 00f0 00000000 		.word	__func__.27
 1856 00f4 04000000 		.word	.LC1
 1857 00f8 00000000 		.word	uxCurrentNumberOfTasks
 1858              		.cfi_endproc
 1859              	.LFE10:
 1861              		.section	.text.prvTaskIsTaskSuspended,"ax",%progbits
 1862              		.align	1
 1863              		.syntax unified
 1864              		.thumb
 1865              		.thumb_func
 1867              	prvTaskIsTaskSuspended:
 1868              	.LFB11:
1787:Lib/FreeRTOS/Source/tasks.c **** 
1788:Lib/FreeRTOS/Source/tasks.c **** #endif /* INCLUDE_vTaskSuspend */
1789:Lib/FreeRTOS/Source/tasks.c **** /*-----------------------------------------------------------*/
1790:Lib/FreeRTOS/Source/tasks.c **** 
1791:Lib/FreeRTOS/Source/tasks.c **** #if ( INCLUDE_vTaskSuspend == 1 )
1792:Lib/FreeRTOS/Source/tasks.c **** 
1793:Lib/FreeRTOS/Source/tasks.c ****     static BaseType_t prvTaskIsTaskSuspended( const TaskHandle_t xTask )
1794:Lib/FreeRTOS/Source/tasks.c ****     {
 1869              		.loc 1 1794 5
 1870              		.cfi_startproc
 1871              		@ args = 0, pretend = 0, frame = 16
 1872              		@ frame_needed = 1, uses_anonymous_args = 0
 1873 0000 80B5     		push	{r7, lr}
 1874              		.cfi_def_cfa_offset 8
 1875              		.cfi_offset 7, -8
 1876              		.cfi_offset 14, -4
 1877 0002 84B0     		sub	sp, sp, #16
 1878              		.cfi_def_cfa_offset 24
 1879 0004 00AF     		add	r7, sp, #0
 1880              		.cfi_def_cfa_register 7
 1881 0006 7860     		str	r0, [r7, #4]
1795:Lib/FreeRTOS/Source/tasks.c ****         BaseType_t xReturn = pdFALSE;
 1882              		.loc 1 1795 20
 1883 0008 0023     		movs	r3, #0
 1884 000a FB60     		str	r3, [r7, #12]
1796:Lib/FreeRTOS/Source/tasks.c ****         const TCB_t * const pxTCB = xTask;
ARM GAS  /tmp/ccTFOe4z.s 			page 65


 1885              		.loc 1 1796 29
 1886 000c 7B68     		ldr	r3, [r7, #4]
 1887 000e BB60     		str	r3, [r7, #8]
1797:Lib/FreeRTOS/Source/tasks.c **** 
1798:Lib/FreeRTOS/Source/tasks.c ****         /* Accesses xPendingReadyList so must be called from a critical
1799:Lib/FreeRTOS/Source/tasks.c ****          * section. */
1800:Lib/FreeRTOS/Source/tasks.c **** 
1801:Lib/FreeRTOS/Source/tasks.c ****         /* It does not make sense to check if the calling task is suspended. */
1802:Lib/FreeRTOS/Source/tasks.c ****         configASSERT( xTask );
 1888              		.loc 1 1802 9
 1889 0010 7B68     		ldr	r3, [r7, #4]
 1890 0012 002B     		cmp	r3, #0
 1891 0014 08D1     		bne	.L123
 1892              		.loc 1 1802 9 is_stmt 0 discriminator 1
 1893 0016 FFF7FEFF 		bl	ulSetInterruptMask
 1894 001a 0E4B     		ldr	r3, .L126
 1895 001c 0E4A     		ldr	r2, .L126+4
 1896 001e 40F20A71 		movw	r1, #1802
 1897 0022 0E48     		ldr	r0, .L126+8
 1898 0024 FFF7FEFF 		bl	__assert_func
 1899              	.L123:
1803:Lib/FreeRTOS/Source/tasks.c **** 
1804:Lib/FreeRTOS/Source/tasks.c ****         /* Is the task being resumed actually in the suspended list? */
1805:Lib/FreeRTOS/Source/tasks.c ****         if( listIS_CONTAINED_WITHIN( &xSuspendedTaskList, &( pxTCB->xStateListItem ) ) != pdFALSE )
 1900              		.loc 1 1805 13 is_stmt 1
 1901 0028 BB68     		ldr	r3, [r7, #8]
 1902 002a 5B69     		ldr	r3, [r3, #20]
 1903              		.loc 1 1805 11
 1904 002c 0C4A     		ldr	r2, .L126+12
 1905 002e 9342     		cmp	r3, r2
 1906 0030 0AD1     		bne	.L124
1806:Lib/FreeRTOS/Source/tasks.c ****         {
1807:Lib/FreeRTOS/Source/tasks.c ****             /* Has the task already been resumed from within an ISR? */
1808:Lib/FreeRTOS/Source/tasks.c ****             if( listIS_CONTAINED_WITHIN( &xPendingReadyList, &( pxTCB->xEventListItem ) ) == pdFALS
 1907              		.loc 1 1808 17
 1908 0032 BB68     		ldr	r3, [r7, #8]
 1909 0034 9B6A     		ldr	r3, [r3, #40]
 1910              		.loc 1 1808 15
 1911 0036 0B4A     		ldr	r2, .L126+16
 1912 0038 9342     		cmp	r3, r2
 1913 003a 05D0     		beq	.L124
1809:Lib/FreeRTOS/Source/tasks.c ****             {
1810:Lib/FreeRTOS/Source/tasks.c ****                 /* Is it in the suspended list because it is in the Suspended
1811:Lib/FreeRTOS/Source/tasks.c ****                  * state, or because is is blocked with no timeout? */
1812:Lib/FreeRTOS/Source/tasks.c ****                 if( listIS_CONTAINED_WITHIN( NULL, &( pxTCB->xEventListItem ) ) != pdFALSE ) /*lint
 1914              		.loc 1 1812 21
 1915 003c BB68     		ldr	r3, [r7, #8]
 1916 003e 9B6A     		ldr	r3, [r3, #40]
 1917              		.loc 1 1812 19
 1918 0040 002B     		cmp	r3, #0
 1919 0042 01D1     		bne	.L124
1813:Lib/FreeRTOS/Source/tasks.c ****                 {
1814:Lib/FreeRTOS/Source/tasks.c ****                     xReturn = pdTRUE;
 1920              		.loc 1 1814 29
 1921 0044 0123     		movs	r3, #1
 1922 0046 FB60     		str	r3, [r7, #12]
 1923              	.L124:
ARM GAS  /tmp/ccTFOe4z.s 			page 66


1815:Lib/FreeRTOS/Source/tasks.c ****                 }
1816:Lib/FreeRTOS/Source/tasks.c ****                 else
1817:Lib/FreeRTOS/Source/tasks.c ****                 {
1818:Lib/FreeRTOS/Source/tasks.c ****                     mtCOVERAGE_TEST_MARKER();
1819:Lib/FreeRTOS/Source/tasks.c ****                 }
1820:Lib/FreeRTOS/Source/tasks.c ****             }
1821:Lib/FreeRTOS/Source/tasks.c ****             else
1822:Lib/FreeRTOS/Source/tasks.c ****             {
1823:Lib/FreeRTOS/Source/tasks.c ****                 mtCOVERAGE_TEST_MARKER();
1824:Lib/FreeRTOS/Source/tasks.c ****             }
1825:Lib/FreeRTOS/Source/tasks.c ****         }
1826:Lib/FreeRTOS/Source/tasks.c ****         else
1827:Lib/FreeRTOS/Source/tasks.c ****         {
1828:Lib/FreeRTOS/Source/tasks.c ****             mtCOVERAGE_TEST_MARKER();
1829:Lib/FreeRTOS/Source/tasks.c ****         }
1830:Lib/FreeRTOS/Source/tasks.c **** 
1831:Lib/FreeRTOS/Source/tasks.c ****         return xReturn;
 1924              		.loc 1 1831 16
 1925 0048 FB68     		ldr	r3, [r7, #12]
1832:Lib/FreeRTOS/Source/tasks.c ****     } /*lint !e818 xTask cannot be a pointer to const because it is a typedef. */
 1926              		.loc 1 1832 5
 1927 004a 1846     		mov	r0, r3
 1928 004c 1037     		adds	r7, r7, #16
 1929              		.cfi_def_cfa_offset 8
 1930 004e BD46     		mov	sp, r7
 1931              		.cfi_def_cfa_register 13
 1932              		@ sp needed
 1933 0050 80BD     		pop	{r7, pc}
 1934              	.L127:
 1935 0052 00BF     		.align	2
 1936              	.L126:
 1937 0054 00000000 		.word	.LC0
 1938 0058 00000000 		.word	__func__.26
 1939 005c 04000000 		.word	.LC1
 1940 0060 00000000 		.word	xSuspendedTaskList
 1941 0064 00000000 		.word	xPendingReadyList
 1942              		.cfi_endproc
 1943              	.LFE11:
 1945              		.section	.text.vTaskResume,"ax",%progbits
 1946              		.align	1
 1947              		.global	vTaskResume
 1948              		.syntax unified
 1949              		.thumb
 1950              		.thumb_func
 1952              	vTaskResume:
 1953              	.LFB12:
1833:Lib/FreeRTOS/Source/tasks.c **** 
1834:Lib/FreeRTOS/Source/tasks.c **** #endif /* INCLUDE_vTaskSuspend */
1835:Lib/FreeRTOS/Source/tasks.c **** /*-----------------------------------------------------------*/
1836:Lib/FreeRTOS/Source/tasks.c **** 
1837:Lib/FreeRTOS/Source/tasks.c **** #if ( INCLUDE_vTaskSuspend == 1 )
1838:Lib/FreeRTOS/Source/tasks.c **** 
1839:Lib/FreeRTOS/Source/tasks.c ****     void vTaskResume( TaskHandle_t xTaskToResume )
1840:Lib/FreeRTOS/Source/tasks.c ****     {
 1954              		.loc 1 1840 5
 1955              		.cfi_startproc
 1956              		@ args = 0, pretend = 0, frame = 16
ARM GAS  /tmp/ccTFOe4z.s 			page 67


 1957              		@ frame_needed = 1, uses_anonymous_args = 0
 1958 0000 80B5     		push	{r7, lr}
 1959              		.cfi_def_cfa_offset 8
 1960              		.cfi_offset 7, -8
 1961              		.cfi_offset 14, -4
 1962 0002 84B0     		sub	sp, sp, #16
 1963              		.cfi_def_cfa_offset 24
 1964 0004 00AF     		add	r7, sp, #0
 1965              		.cfi_def_cfa_register 7
 1966 0006 7860     		str	r0, [r7, #4]
1841:Lib/FreeRTOS/Source/tasks.c ****         TCB_t * const pxTCB = xTaskToResume;
 1967              		.loc 1 1841 23
 1968 0008 7B68     		ldr	r3, [r7, #4]
 1969 000a FB60     		str	r3, [r7, #12]
1842:Lib/FreeRTOS/Source/tasks.c **** 
1843:Lib/FreeRTOS/Source/tasks.c ****         /* It does not make sense to resume the calling task. */
1844:Lib/FreeRTOS/Source/tasks.c ****         configASSERT( xTaskToResume );
 1970              		.loc 1 1844 9
 1971 000c 7B68     		ldr	r3, [r7, #4]
 1972 000e 002B     		cmp	r3, #0
 1973 0010 08D1     		bne	.L129
 1974              		.loc 1 1844 9 is_stmt 0 discriminator 1
 1975 0012 FFF7FEFF 		bl	ulSetInterruptMask
 1976 0016 354B     		ldr	r3, .L134
 1977 0018 354A     		ldr	r2, .L134+4
 1978 001a 40F23471 		movw	r1, #1844
 1979 001e 3548     		ldr	r0, .L134+8
 1980 0020 FFF7FEFF 		bl	__assert_func
 1981              	.L129:
1845:Lib/FreeRTOS/Source/tasks.c **** 
1846:Lib/FreeRTOS/Source/tasks.c ****         /* The parameter cannot be NULL as it is impossible to resume the
1847:Lib/FreeRTOS/Source/tasks.c ****          * currently executing task. */
1848:Lib/FreeRTOS/Source/tasks.c ****         if( ( pxTCB != pxCurrentTCB ) && ( pxTCB != NULL ) )
 1982              		.loc 1 1848 21 is_stmt 1
 1983 0024 344B     		ldr	r3, .L134+12
 1984 0026 1B68     		ldr	r3, [r3]
 1985              		.loc 1 1848 11
 1986 0028 FA68     		ldr	r2, [r7, #12]
 1987 002a 9A42     		cmp	r2, r3
 1988 002c 5AD0     		beq	.L133
 1989              		.loc 1 1848 39 discriminator 1
 1990 002e FB68     		ldr	r3, [r7, #12]
 1991 0030 002B     		cmp	r3, #0
 1992 0032 57D0     		beq	.L133
1849:Lib/FreeRTOS/Source/tasks.c ****         {
1850:Lib/FreeRTOS/Source/tasks.c ****             taskENTER_CRITICAL();
 1993              		.loc 1 1850 13
 1994 0034 FFF7FEFF 		bl	vPortEnterCritical
1851:Lib/FreeRTOS/Source/tasks.c ****             {
1852:Lib/FreeRTOS/Source/tasks.c ****                 if( prvTaskIsTaskSuspended( pxTCB ) != pdFALSE )
 1995              		.loc 1 1852 21
 1996 0038 F868     		ldr	r0, [r7, #12]
 1997 003a FFF7FEFF 		bl	prvTaskIsTaskSuspended
 1998 003e 0346     		mov	r3, r0
 1999              		.loc 1 1852 19 discriminator 1
 2000 0040 002B     		cmp	r3, #0
 2001 0042 4DD0     		beq	.L131
ARM GAS  /tmp/ccTFOe4z.s 			page 68


1853:Lib/FreeRTOS/Source/tasks.c ****                 {
1854:Lib/FreeRTOS/Source/tasks.c ****                     traceTASK_RESUME( pxTCB );
1855:Lib/FreeRTOS/Source/tasks.c **** 
1856:Lib/FreeRTOS/Source/tasks.c ****                     /* The ready list can be accessed even if the scheduler is
1857:Lib/FreeRTOS/Source/tasks.c ****                      * suspended because this is inside a critical section. */
1858:Lib/FreeRTOS/Source/tasks.c ****                     ( void ) uxListRemove( &( pxTCB->xStateListItem ) );
 2002              		.loc 1 1858 30
 2003 0044 FB68     		ldr	r3, [r7, #12]
 2004 0046 0433     		adds	r3, r3, #4
 2005 0048 1846     		mov	r0, r3
 2006 004a FFF7FEFF 		bl	uxListRemove
1859:Lib/FreeRTOS/Source/tasks.c ****                     prvAddTaskToReadyList( pxTCB );
 2007              		.loc 1 1859 21
 2008 004e FB68     		ldr	r3, [r7, #12]
 2009 0050 DA6A     		ldr	r2, [r3, #44]
 2010 0052 2A4B     		ldr	r3, .L134+16
 2011 0054 1B68     		ldr	r3, [r3]
 2012 0056 9A42     		cmp	r2, r3
 2013 0058 03D9     		bls	.L132
 2014              		.loc 1 1859 21 is_stmt 0 discriminator 1
 2015 005a FB68     		ldr	r3, [r7, #12]
 2016 005c DB6A     		ldr	r3, [r3, #44]
 2017 005e 274A     		ldr	r2, .L134+16
 2018 0060 1360     		str	r3, [r2]
 2019              	.L132:
 2020              	.LBB8:
 2021              		.loc 1 1859 21 discriminator 3
 2022 0062 FB68     		ldr	r3, [r7, #12]
 2023 0064 DA6A     		ldr	r2, [r3, #44]
 2024 0066 2649     		ldr	r1, .L134+20
 2025 0068 1346     		mov	r3, r2
 2026 006a 9B00     		lsls	r3, r3, #2
 2027 006c 1344     		add	r3, r3, r2
 2028 006e 9B00     		lsls	r3, r3, #2
 2029 0070 0B44     		add	r3, r3, r1
 2030 0072 0433     		adds	r3, r3, #4
 2031 0074 1B68     		ldr	r3, [r3]
 2032 0076 BB60     		str	r3, [r7, #8]
 2033 0078 FB68     		ldr	r3, [r7, #12]
 2034 007a BA68     		ldr	r2, [r7, #8]
 2035 007c 9A60     		str	r2, [r3, #8]
 2036 007e BB68     		ldr	r3, [r7, #8]
 2037 0080 9A68     		ldr	r2, [r3, #8]
 2038 0082 FB68     		ldr	r3, [r7, #12]
 2039 0084 DA60     		str	r2, [r3, #12]
 2040 0086 BB68     		ldr	r3, [r7, #8]
 2041 0088 9B68     		ldr	r3, [r3, #8]
 2042 008a FA68     		ldr	r2, [r7, #12]
 2043 008c 0432     		adds	r2, r2, #4
 2044 008e 5A60     		str	r2, [r3, #4]
 2045 0090 FB68     		ldr	r3, [r7, #12]
 2046 0092 1A1D     		adds	r2, r3, #4
 2047 0094 BB68     		ldr	r3, [r7, #8]
 2048 0096 9A60     		str	r2, [r3, #8]
 2049 0098 FB68     		ldr	r3, [r7, #12]
 2050 009a DA6A     		ldr	r2, [r3, #44]
 2051 009c 1346     		mov	r3, r2
ARM GAS  /tmp/ccTFOe4z.s 			page 69


 2052 009e 9B00     		lsls	r3, r3, #2
 2053 00a0 1344     		add	r3, r3, r2
 2054 00a2 9B00     		lsls	r3, r3, #2
 2055 00a4 164A     		ldr	r2, .L134+20
 2056 00a6 1A44     		add	r2, r2, r3
 2057 00a8 FB68     		ldr	r3, [r7, #12]
 2058 00aa 5A61     		str	r2, [r3, #20]
 2059 00ac FB68     		ldr	r3, [r7, #12]
 2060 00ae DA6A     		ldr	r2, [r3, #44]
 2061 00b0 1349     		ldr	r1, .L134+20
 2062 00b2 1346     		mov	r3, r2
 2063 00b4 9B00     		lsls	r3, r3, #2
 2064 00b6 1344     		add	r3, r3, r2
 2065 00b8 9B00     		lsls	r3, r3, #2
 2066 00ba 0B44     		add	r3, r3, r1
 2067 00bc 1B68     		ldr	r3, [r3]
 2068 00be 591C     		adds	r1, r3, #1
 2069 00c0 0F48     		ldr	r0, .L134+20
 2070 00c2 1346     		mov	r3, r2
 2071 00c4 9B00     		lsls	r3, r3, #2
 2072 00c6 1344     		add	r3, r3, r2
 2073 00c8 9B00     		lsls	r3, r3, #2
 2074 00ca 0344     		add	r3, r3, r0
 2075 00cc 1960     		str	r1, [r3]
 2076              	.LBE8:
1860:Lib/FreeRTOS/Source/tasks.c **** 
1861:Lib/FreeRTOS/Source/tasks.c ****                     /* A higher priority task may have just been resumed. */
1862:Lib/FreeRTOS/Source/tasks.c ****                     if( pxTCB->uxPriority > pxCurrentTCB->uxPriority )
 2077              		.loc 1 1862 30 is_stmt 1
 2078 00ce FB68     		ldr	r3, [r7, #12]
 2079 00d0 DA6A     		ldr	r2, [r3, #44]
 2080              		.loc 1 1862 57
 2081 00d2 094B     		ldr	r3, .L134+12
 2082 00d4 1B68     		ldr	r3, [r3]
 2083 00d6 DB6A     		ldr	r3, [r3, #44]
 2084              		.loc 1 1862 23
 2085 00d8 9A42     		cmp	r2, r3
 2086 00da 01D9     		bls	.L131
1863:Lib/FreeRTOS/Source/tasks.c ****                     {
1864:Lib/FreeRTOS/Source/tasks.c ****                         /* This yield may not cause the task just resumed to run,
1865:Lib/FreeRTOS/Source/tasks.c ****                          * but will leave the lists in the correct state for the
1866:Lib/FreeRTOS/Source/tasks.c ****                          * next yield. */
1867:Lib/FreeRTOS/Source/tasks.c ****                         taskYIELD_IF_USING_PREEMPTION();
 2087              		.loc 1 1867 25
 2088 00dc FFF7FEFF 		bl	vPortYield
 2089              	.L131:
1868:Lib/FreeRTOS/Source/tasks.c ****                     }
1869:Lib/FreeRTOS/Source/tasks.c ****                     else
1870:Lib/FreeRTOS/Source/tasks.c ****                     {
1871:Lib/FreeRTOS/Source/tasks.c ****                         mtCOVERAGE_TEST_MARKER();
1872:Lib/FreeRTOS/Source/tasks.c ****                     }
1873:Lib/FreeRTOS/Source/tasks.c ****                 }
1874:Lib/FreeRTOS/Source/tasks.c ****                 else
1875:Lib/FreeRTOS/Source/tasks.c ****                 {
1876:Lib/FreeRTOS/Source/tasks.c ****                     mtCOVERAGE_TEST_MARKER();
1877:Lib/FreeRTOS/Source/tasks.c ****                 }
1878:Lib/FreeRTOS/Source/tasks.c ****             }
ARM GAS  /tmp/ccTFOe4z.s 			page 70


1879:Lib/FreeRTOS/Source/tasks.c ****             taskEXIT_CRITICAL();
 2090              		.loc 1 1879 13
 2091 00e0 FFF7FEFF 		bl	vPortExitCritical
 2092              	.L133:
1880:Lib/FreeRTOS/Source/tasks.c ****         }
1881:Lib/FreeRTOS/Source/tasks.c ****         else
1882:Lib/FreeRTOS/Source/tasks.c ****         {
1883:Lib/FreeRTOS/Source/tasks.c ****             mtCOVERAGE_TEST_MARKER();
1884:Lib/FreeRTOS/Source/tasks.c ****         }
1885:Lib/FreeRTOS/Source/tasks.c ****     }
 2093              		.loc 1 1885 5
 2094 00e4 00BF     		nop
 2095 00e6 1037     		adds	r7, r7, #16
 2096              		.cfi_def_cfa_offset 8
 2097 00e8 BD46     		mov	sp, r7
 2098              		.cfi_def_cfa_register 13
 2099              		@ sp needed
 2100 00ea 80BD     		pop	{r7, pc}
 2101              	.L135:
 2102              		.align	2
 2103              	.L134:
 2104 00ec 00000000 		.word	.LC0
 2105 00f0 00000000 		.word	__func__.25
 2106 00f4 04000000 		.word	.LC1
 2107 00f8 00000000 		.word	pxCurrentTCB
 2108 00fc 00000000 		.word	uxTopReadyPriority
 2109 0100 00000000 		.word	pxReadyTasksLists
 2110              		.cfi_endproc
 2111              	.LFE12:
 2113              		.section	.text.xTaskResumeFromISR,"ax",%progbits
 2114              		.align	1
 2115              		.global	xTaskResumeFromISR
 2116              		.syntax unified
 2117              		.thumb
 2118              		.thumb_func
 2120              	xTaskResumeFromISR:
 2121              	.LFB13:
1886:Lib/FreeRTOS/Source/tasks.c **** 
1887:Lib/FreeRTOS/Source/tasks.c **** #endif /* INCLUDE_vTaskSuspend */
1888:Lib/FreeRTOS/Source/tasks.c **** 
1889:Lib/FreeRTOS/Source/tasks.c **** /*-----------------------------------------------------------*/
1890:Lib/FreeRTOS/Source/tasks.c **** 
1891:Lib/FreeRTOS/Source/tasks.c **** #if ( ( INCLUDE_xTaskResumeFromISR == 1 ) && ( INCLUDE_vTaskSuspend == 1 ) )
1892:Lib/FreeRTOS/Source/tasks.c **** 
1893:Lib/FreeRTOS/Source/tasks.c ****     BaseType_t xTaskResumeFromISR( TaskHandle_t xTaskToResume )
1894:Lib/FreeRTOS/Source/tasks.c ****     {
 2122              		.loc 1 1894 5
 2123              		.cfi_startproc
 2124              		@ args = 0, pretend = 0, frame = 24
 2125              		@ frame_needed = 1, uses_anonymous_args = 0
 2126 0000 80B5     		push	{r7, lr}
 2127              		.cfi_def_cfa_offset 8
 2128              		.cfi_offset 7, -8
 2129              		.cfi_offset 14, -4
 2130 0002 86B0     		sub	sp, sp, #24
 2131              		.cfi_def_cfa_offset 32
 2132 0004 00AF     		add	r7, sp, #0
ARM GAS  /tmp/ccTFOe4z.s 			page 71


 2133              		.cfi_def_cfa_register 7
 2134 0006 7860     		str	r0, [r7, #4]
1895:Lib/FreeRTOS/Source/tasks.c ****         BaseType_t xYieldRequired = pdFALSE;
 2135              		.loc 1 1895 20
 2136 0008 0023     		movs	r3, #0
 2137 000a 7B61     		str	r3, [r7, #20]
1896:Lib/FreeRTOS/Source/tasks.c ****         TCB_t * const pxTCB = xTaskToResume;
 2138              		.loc 1 1896 23
 2139 000c 7B68     		ldr	r3, [r7, #4]
 2140 000e 3B61     		str	r3, [r7, #16]
1897:Lib/FreeRTOS/Source/tasks.c ****         UBaseType_t uxSavedInterruptStatus;
1898:Lib/FreeRTOS/Source/tasks.c **** 
1899:Lib/FreeRTOS/Source/tasks.c ****         configASSERT( xTaskToResume );
 2141              		.loc 1 1899 9
 2142 0010 7B68     		ldr	r3, [r7, #4]
 2143 0012 002B     		cmp	r3, #0
 2144 0014 08D1     		bne	.L137
 2145              		.loc 1 1899 9 is_stmt 0 discriminator 1
 2146 0016 FFF7FEFF 		bl	ulSetInterruptMask
 2147 001a 3B4B     		ldr	r3, .L143
 2148 001c 3B4A     		ldr	r2, .L143+4
 2149 001e 40F26B71 		movw	r1, #1899
 2150 0022 3B48     		ldr	r0, .L143+8
 2151 0024 FFF7FEFF 		bl	__assert_func
 2152              	.L137:
1900:Lib/FreeRTOS/Source/tasks.c **** 
1901:Lib/FreeRTOS/Source/tasks.c ****         /* RTOS ports that support interrupt nesting have the concept of a
1902:Lib/FreeRTOS/Source/tasks.c ****          * maximum  system call (or maximum API call) interrupt priority.
1903:Lib/FreeRTOS/Source/tasks.c ****          * Interrupts that are  above the maximum system call priority are keep
1904:Lib/FreeRTOS/Source/tasks.c ****          * permanently enabled, even when the RTOS kernel is in a critical section,
1905:Lib/FreeRTOS/Source/tasks.c ****          * but cannot make any calls to FreeRTOS API functions.  If configASSERT()
1906:Lib/FreeRTOS/Source/tasks.c ****          * is defined in FreeRTOSConfig.h then
1907:Lib/FreeRTOS/Source/tasks.c ****          * portASSERT_IF_INTERRUPT_PRIORITY_INVALID() will result in an assertion
1908:Lib/FreeRTOS/Source/tasks.c ****          * failure if a FreeRTOS API function is called from an interrupt that has
1909:Lib/FreeRTOS/Source/tasks.c ****          * been assigned a priority above the configured maximum system call
1910:Lib/FreeRTOS/Source/tasks.c ****          * priority.  Only FreeRTOS functions that end in FromISR can be called
1911:Lib/FreeRTOS/Source/tasks.c ****          * from interrupts  that have been assigned a priority at or (logically)
1912:Lib/FreeRTOS/Source/tasks.c ****          * below the maximum system call interrupt priority.  FreeRTOS maintains a
1913:Lib/FreeRTOS/Source/tasks.c ****          * separate interrupt safe API to ensure interrupt entry is as fast and as
1914:Lib/FreeRTOS/Source/tasks.c ****          * simple as possible.  More information (albeit Cortex-M specific) is
1915:Lib/FreeRTOS/Source/tasks.c ****          * provided on the following link:
1916:Lib/FreeRTOS/Source/tasks.c ****          * https://www.FreeRTOS.org/RTOS-Cortex-M3-M4.html */
1917:Lib/FreeRTOS/Source/tasks.c ****         portASSERT_IF_INTERRUPT_PRIORITY_INVALID();
 2153              		.loc 1 1917 9 is_stmt 1
 2154 0028 FFF7FEFF 		bl	vPortValidateInterruptPriority
1918:Lib/FreeRTOS/Source/tasks.c **** 
1919:Lib/FreeRTOS/Source/tasks.c ****         uxSavedInterruptStatus = portSET_INTERRUPT_MASK_FROM_ISR();
 2155              		.loc 1 1919 34
 2156 002c FFF7FEFF 		bl	ulSetInterruptMask
 2157 0030 F860     		str	r0, [r7, #12]
1920:Lib/FreeRTOS/Source/tasks.c ****         {
1921:Lib/FreeRTOS/Source/tasks.c ****             if( prvTaskIsTaskSuspended( pxTCB ) != pdFALSE )
 2158              		.loc 1 1921 17
 2159 0032 3869     		ldr	r0, [r7, #16]
 2160 0034 FFF7FEFF 		bl	prvTaskIsTaskSuspended
 2161 0038 0346     		mov	r3, r0
 2162              		.loc 1 1921 15 discriminator 1
ARM GAS  /tmp/ccTFOe4z.s 			page 72


 2163 003a 002B     		cmp	r3, #0
 2164 003c 5BD0     		beq	.L138
1922:Lib/FreeRTOS/Source/tasks.c ****             {
1923:Lib/FreeRTOS/Source/tasks.c ****                 traceTASK_RESUME_FROM_ISR( pxTCB );
1924:Lib/FreeRTOS/Source/tasks.c **** 
1925:Lib/FreeRTOS/Source/tasks.c ****                 /* Check the ready lists can be accessed. */
1926:Lib/FreeRTOS/Source/tasks.c ****                 if( uxSchedulerSuspended == ( UBaseType_t ) 0U )
 2165              		.loc 1 1926 42
 2166 003e 354B     		ldr	r3, .L143+12
 2167 0040 1B68     		ldr	r3, [r3]
 2168              		.loc 1 1926 19
 2169 0042 002B     		cmp	r3, #0
 2170 0044 51D1     		bne	.L139
1927:Lib/FreeRTOS/Source/tasks.c ****                 {
1928:Lib/FreeRTOS/Source/tasks.c ****                     /* Ready lists can be accessed so move the task from the
1929:Lib/FreeRTOS/Source/tasks.c ****                      * suspended list to the ready list directly. */
1930:Lib/FreeRTOS/Source/tasks.c ****                     if( pxTCB->uxPriority > pxCurrentTCB->uxPriority )
 2171              		.loc 1 1930 30
 2172 0046 3B69     		ldr	r3, [r7, #16]
 2173 0048 DA6A     		ldr	r2, [r3, #44]
 2174              		.loc 1 1930 57
 2175 004a 334B     		ldr	r3, .L143+16
 2176 004c 1B68     		ldr	r3, [r3]
 2177 004e DB6A     		ldr	r3, [r3, #44]
 2178              		.loc 1 1930 23
 2179 0050 9A42     		cmp	r2, r3
 2180 0052 04D9     		bls	.L140
1931:Lib/FreeRTOS/Source/tasks.c ****                     {
1932:Lib/FreeRTOS/Source/tasks.c ****                         xYieldRequired = pdTRUE;
 2181              		.loc 1 1932 40
 2182 0054 0123     		movs	r3, #1
 2183 0056 7B61     		str	r3, [r7, #20]
1933:Lib/FreeRTOS/Source/tasks.c **** 
1934:Lib/FreeRTOS/Source/tasks.c ****                         /* Mark that a yield is pending in case the user is not
1935:Lib/FreeRTOS/Source/tasks.c ****                          * using the return value to initiate a context switch
1936:Lib/FreeRTOS/Source/tasks.c ****                          * from the ISR using portYIELD_FROM_ISR. */
1937:Lib/FreeRTOS/Source/tasks.c ****                         xYieldPending = pdTRUE;
 2184              		.loc 1 1937 39
 2185 0058 304B     		ldr	r3, .L143+20
 2186 005a 0122     		movs	r2, #1
 2187 005c 1A60     		str	r2, [r3]
 2188              	.L140:
1938:Lib/FreeRTOS/Source/tasks.c ****                     }
1939:Lib/FreeRTOS/Source/tasks.c ****                     else
1940:Lib/FreeRTOS/Source/tasks.c ****                     {
1941:Lib/FreeRTOS/Source/tasks.c ****                         mtCOVERAGE_TEST_MARKER();
1942:Lib/FreeRTOS/Source/tasks.c ****                     }
1943:Lib/FreeRTOS/Source/tasks.c **** 
1944:Lib/FreeRTOS/Source/tasks.c ****                     ( void ) uxListRemove( &( pxTCB->xStateListItem ) );
 2189              		.loc 1 1944 30
 2190 005e 3B69     		ldr	r3, [r7, #16]
 2191 0060 0433     		adds	r3, r3, #4
 2192 0062 1846     		mov	r0, r3
 2193 0064 FFF7FEFF 		bl	uxListRemove
1945:Lib/FreeRTOS/Source/tasks.c ****                     prvAddTaskToReadyList( pxTCB );
 2194              		.loc 1 1945 21
 2195 0068 3B69     		ldr	r3, [r7, #16]
ARM GAS  /tmp/ccTFOe4z.s 			page 73


 2196 006a DA6A     		ldr	r2, [r3, #44]
 2197 006c 2C4B     		ldr	r3, .L143+24
 2198 006e 1B68     		ldr	r3, [r3]
 2199 0070 9A42     		cmp	r2, r3
 2200 0072 03D9     		bls	.L141
 2201              		.loc 1 1945 21 is_stmt 0 discriminator 1
 2202 0074 3B69     		ldr	r3, [r7, #16]
 2203 0076 DB6A     		ldr	r3, [r3, #44]
 2204 0078 294A     		ldr	r2, .L143+24
 2205 007a 1360     		str	r3, [r2]
 2206              	.L141:
 2207              	.LBB9:
 2208              		.loc 1 1945 21 discriminator 3
 2209 007c 3B69     		ldr	r3, [r7, #16]
 2210 007e DA6A     		ldr	r2, [r3, #44]
 2211 0080 2849     		ldr	r1, .L143+28
 2212 0082 1346     		mov	r3, r2
 2213 0084 9B00     		lsls	r3, r3, #2
 2214 0086 1344     		add	r3, r3, r2
 2215 0088 9B00     		lsls	r3, r3, #2
 2216 008a 0B44     		add	r3, r3, r1
 2217 008c 0433     		adds	r3, r3, #4
 2218 008e 1B68     		ldr	r3, [r3]
 2219 0090 BB60     		str	r3, [r7, #8]
 2220 0092 3B69     		ldr	r3, [r7, #16]
 2221 0094 BA68     		ldr	r2, [r7, #8]
 2222 0096 9A60     		str	r2, [r3, #8]
 2223 0098 BB68     		ldr	r3, [r7, #8]
 2224 009a 9A68     		ldr	r2, [r3, #8]
 2225 009c 3B69     		ldr	r3, [r7, #16]
 2226 009e DA60     		str	r2, [r3, #12]
 2227 00a0 BB68     		ldr	r3, [r7, #8]
 2228 00a2 9B68     		ldr	r3, [r3, #8]
 2229 00a4 3A69     		ldr	r2, [r7, #16]
 2230 00a6 0432     		adds	r2, r2, #4
 2231 00a8 5A60     		str	r2, [r3, #4]
 2232 00aa 3B69     		ldr	r3, [r7, #16]
 2233 00ac 1A1D     		adds	r2, r3, #4
 2234 00ae BB68     		ldr	r3, [r7, #8]
 2235 00b0 9A60     		str	r2, [r3, #8]
 2236 00b2 3B69     		ldr	r3, [r7, #16]
 2237 00b4 DA6A     		ldr	r2, [r3, #44]
 2238 00b6 1346     		mov	r3, r2
 2239 00b8 9B00     		lsls	r3, r3, #2
 2240 00ba 1344     		add	r3, r3, r2
 2241 00bc 9B00     		lsls	r3, r3, #2
 2242 00be 194A     		ldr	r2, .L143+28
 2243 00c0 1A44     		add	r2, r2, r3
 2244 00c2 3B69     		ldr	r3, [r7, #16]
 2245 00c4 5A61     		str	r2, [r3, #20]
 2246 00c6 3B69     		ldr	r3, [r7, #16]
 2247 00c8 DA6A     		ldr	r2, [r3, #44]
 2248 00ca 1649     		ldr	r1, .L143+28
 2249 00cc 1346     		mov	r3, r2
 2250 00ce 9B00     		lsls	r3, r3, #2
 2251 00d0 1344     		add	r3, r3, r2
 2252 00d2 9B00     		lsls	r3, r3, #2
ARM GAS  /tmp/ccTFOe4z.s 			page 74


 2253 00d4 0B44     		add	r3, r3, r1
 2254 00d6 1B68     		ldr	r3, [r3]
 2255 00d8 591C     		adds	r1, r3, #1
 2256 00da 1248     		ldr	r0, .L143+28
 2257 00dc 1346     		mov	r3, r2
 2258 00de 9B00     		lsls	r3, r3, #2
 2259 00e0 1344     		add	r3, r3, r2
 2260 00e2 9B00     		lsls	r3, r3, #2
 2261 00e4 0344     		add	r3, r3, r0
 2262 00e6 1960     		str	r1, [r3]
 2263              	.LBE9:
 2264 00e8 05E0     		b	.L138
 2265              	.L139:
1946:Lib/FreeRTOS/Source/tasks.c ****                 }
1947:Lib/FreeRTOS/Source/tasks.c ****                 else
1948:Lib/FreeRTOS/Source/tasks.c ****                 {
1949:Lib/FreeRTOS/Source/tasks.c ****                     /* The delayed or ready lists cannot be accessed so the task
1950:Lib/FreeRTOS/Source/tasks.c ****                      * is held in the pending ready list until the scheduler is
1951:Lib/FreeRTOS/Source/tasks.c ****                      * unsuspended. */
1952:Lib/FreeRTOS/Source/tasks.c ****                     vListInsertEnd( &( xPendingReadyList ), &( pxTCB->xEventListItem ) );
 2266              		.loc 1 1952 21 is_stmt 1
 2267 00ea 3B69     		ldr	r3, [r7, #16]
 2268 00ec 1833     		adds	r3, r3, #24
 2269 00ee 1946     		mov	r1, r3
 2270 00f0 0D48     		ldr	r0, .L143+32
 2271 00f2 FFF7FEFF 		bl	vListInsertEnd
 2272              	.L138:
1953:Lib/FreeRTOS/Source/tasks.c ****                 }
1954:Lib/FreeRTOS/Source/tasks.c ****             }
1955:Lib/FreeRTOS/Source/tasks.c ****             else
1956:Lib/FreeRTOS/Source/tasks.c ****             {
1957:Lib/FreeRTOS/Source/tasks.c ****                 mtCOVERAGE_TEST_MARKER();
1958:Lib/FreeRTOS/Source/tasks.c ****             }
1959:Lib/FreeRTOS/Source/tasks.c ****         }
1960:Lib/FreeRTOS/Source/tasks.c ****         portCLEAR_INTERRUPT_MASK_FROM_ISR( uxSavedInterruptStatus );
 2273              		.loc 1 1960 9
 2274 00f6 F868     		ldr	r0, [r7, #12]
 2275 00f8 FFF7FEFF 		bl	vClearInterruptMask
1961:Lib/FreeRTOS/Source/tasks.c **** 
1962:Lib/FreeRTOS/Source/tasks.c ****         return xYieldRequired;
 2276              		.loc 1 1962 16
 2277 00fc 7B69     		ldr	r3, [r7, #20]
1963:Lib/FreeRTOS/Source/tasks.c ****     }
 2278              		.loc 1 1963 5
 2279 00fe 1846     		mov	r0, r3
 2280 0100 1837     		adds	r7, r7, #24
 2281              		.cfi_def_cfa_offset 8
 2282 0102 BD46     		mov	sp, r7
 2283              		.cfi_def_cfa_register 13
 2284              		@ sp needed
 2285 0104 80BD     		pop	{r7, pc}
 2286              	.L144:
 2287 0106 00BF     		.align	2
 2288              	.L143:
 2289 0108 00000000 		.word	.LC0
 2290 010c 00000000 		.word	__func__.24
 2291 0110 04000000 		.word	.LC1
ARM GAS  /tmp/ccTFOe4z.s 			page 75


 2292 0114 00000000 		.word	uxSchedulerSuspended
 2293 0118 00000000 		.word	pxCurrentTCB
 2294 011c 00000000 		.word	xYieldPending
 2295 0120 00000000 		.word	uxTopReadyPriority
 2296 0124 00000000 		.word	pxReadyTasksLists
 2297 0128 00000000 		.word	xPendingReadyList
 2298              		.cfi_endproc
 2299              	.LFE13:
 2301              		.section	.rodata
 2302              		.align	2
 2303              	.LC2:
 2304 0020 49444C45 		.ascii	"IDLE\000"
 2304      00
 2305              		.section	.text.vTaskStartScheduler,"ax",%progbits
 2306              		.align	1
 2307              		.global	vTaskStartScheduler
 2308              		.syntax unified
 2309              		.thumb
 2310              		.thumb_func
 2312              	vTaskStartScheduler:
 2313              	.LFB14:
1964:Lib/FreeRTOS/Source/tasks.c **** 
1965:Lib/FreeRTOS/Source/tasks.c **** #endif /* ( ( INCLUDE_xTaskResumeFromISR == 1 ) && ( INCLUDE_vTaskSuspend == 1 ) ) */
1966:Lib/FreeRTOS/Source/tasks.c **** /*-----------------------------------------------------------*/
1967:Lib/FreeRTOS/Source/tasks.c **** 
1968:Lib/FreeRTOS/Source/tasks.c **** void vTaskStartScheduler( void )
1969:Lib/FreeRTOS/Source/tasks.c **** {
 2314              		.loc 1 1969 1
 2315              		.cfi_startproc
 2316              		@ args = 0, pretend = 0, frame = 16
 2317              		@ frame_needed = 1, uses_anonymous_args = 0
 2318 0000 80B5     		push	{r7, lr}
 2319              		.cfi_def_cfa_offset 8
 2320              		.cfi_offset 7, -8
 2321              		.cfi_offset 14, -4
 2322 0002 88B0     		sub	sp, sp, #32
 2323              		.cfi_def_cfa_offset 40
 2324 0004 04AF     		add	r7, sp, #16
 2325              		.cfi_def_cfa 7, 24
 2326              	.LBB10:
1970:Lib/FreeRTOS/Source/tasks.c ****     BaseType_t xReturn;
1971:Lib/FreeRTOS/Source/tasks.c **** 
1972:Lib/FreeRTOS/Source/tasks.c ****     /* Add the idle task at the lowest priority. */
1973:Lib/FreeRTOS/Source/tasks.c ****     #if ( configSUPPORT_STATIC_ALLOCATION == 1 )
1974:Lib/FreeRTOS/Source/tasks.c ****     {
1975:Lib/FreeRTOS/Source/tasks.c ****         StaticTask_t * pxIdleTaskTCBBuffer = NULL;
 2327              		.loc 1 1975 24
 2328 0006 0023     		movs	r3, #0
 2329 0008 BB60     		str	r3, [r7, #8]
1976:Lib/FreeRTOS/Source/tasks.c ****         StackType_t * pxIdleTaskStackBuffer = NULL;
 2330              		.loc 1 1976 23
 2331 000a 0023     		movs	r3, #0
 2332 000c 7B60     		str	r3, [r7, #4]
1977:Lib/FreeRTOS/Source/tasks.c ****         uint32_t ulIdleTaskStackSize;
1978:Lib/FreeRTOS/Source/tasks.c **** 
1979:Lib/FreeRTOS/Source/tasks.c ****         /* The Idle task is created using user provided RAM - obtain the
1980:Lib/FreeRTOS/Source/tasks.c ****          * address of the RAM then create the idle task. */
ARM GAS  /tmp/ccTFOe4z.s 			page 76


1981:Lib/FreeRTOS/Source/tasks.c ****         vApplicationGetIdleTaskMemory( &pxIdleTaskTCBBuffer, &pxIdleTaskStackBuffer, &ulIdleTaskSta
 2333              		.loc 1 1981 9
 2334 000e 3A46     		mov	r2, r7
 2335 0010 391D     		adds	r1, r7, #4
 2336 0012 07F10803 		add	r3, r7, #8
 2337 0016 1846     		mov	r0, r3
 2338 0018 FFF7FEFF 		bl	vApplicationGetIdleTaskMemory
1982:Lib/FreeRTOS/Source/tasks.c ****         xIdleTaskHandle = xTaskCreateStatic( prvIdleTask,
 2339              		.loc 1 1982 27
 2340 001c 3968     		ldr	r1, [r7]
 2341 001e 7B68     		ldr	r3, [r7, #4]
 2342 0020 BA68     		ldr	r2, [r7, #8]
 2343 0022 0292     		str	r2, [sp, #8]
 2344 0024 0193     		str	r3, [sp, #4]
 2345 0026 0023     		movs	r3, #0
 2346 0028 0093     		str	r3, [sp]
 2347 002a 0023     		movs	r3, #0
 2348 002c 0A46     		mov	r2, r1
 2349 002e 1F49     		ldr	r1, .L151
 2350 0030 1F48     		ldr	r0, .L151+4
 2351 0032 FFF7FEFF 		bl	xTaskCreateStatic
 2352 0036 0346     		mov	r3, r0
 2353              		.loc 1 1982 25 discriminator 1
 2354 0038 1E4A     		ldr	r2, .L151+8
 2355 003a 1360     		str	r3, [r2]
1983:Lib/FreeRTOS/Source/tasks.c ****                                              configIDLE_TASK_NAME,
1984:Lib/FreeRTOS/Source/tasks.c ****                                              ulIdleTaskStackSize,
1985:Lib/FreeRTOS/Source/tasks.c ****                                              ( void * ) NULL,       /*lint !e961.  The cast is not 
1986:Lib/FreeRTOS/Source/tasks.c ****                                              portPRIVILEGE_BIT,     /* In effect ( tskIDLE_PRIORITY
1987:Lib/FreeRTOS/Source/tasks.c ****                                              pxIdleTaskStackBuffer,
1988:Lib/FreeRTOS/Source/tasks.c ****                                              pxIdleTaskTCBBuffer ); /*lint !e961 MISRA exception, j
1989:Lib/FreeRTOS/Source/tasks.c **** 
1990:Lib/FreeRTOS/Source/tasks.c ****         if( xIdleTaskHandle != NULL )
 2356              		.loc 1 1990 29
 2357 003c 1D4B     		ldr	r3, .L151+8
 2358 003e 1B68     		ldr	r3, [r3]
 2359              		.loc 1 1990 11
 2360 0040 002B     		cmp	r3, #0
 2361 0042 02D0     		beq	.L146
1991:Lib/FreeRTOS/Source/tasks.c ****         {
1992:Lib/FreeRTOS/Source/tasks.c ****             xReturn = pdPASS;
 2362              		.loc 1 1992 21
 2363 0044 0123     		movs	r3, #1
 2364 0046 FB60     		str	r3, [r7, #12]
 2365 0048 01E0     		b	.L147
 2366              	.L146:
1993:Lib/FreeRTOS/Source/tasks.c ****         }
1994:Lib/FreeRTOS/Source/tasks.c ****         else
1995:Lib/FreeRTOS/Source/tasks.c ****         {
1996:Lib/FreeRTOS/Source/tasks.c ****             xReturn = pdFAIL;
 2367              		.loc 1 1996 21
 2368 004a 0023     		movs	r3, #0
 2369 004c FB60     		str	r3, [r7, #12]
 2370              	.L147:
 2371              	.LBE10:
1997:Lib/FreeRTOS/Source/tasks.c ****         }
1998:Lib/FreeRTOS/Source/tasks.c ****     }
ARM GAS  /tmp/ccTFOe4z.s 			page 77


1999:Lib/FreeRTOS/Source/tasks.c ****     #else /* if ( configSUPPORT_STATIC_ALLOCATION == 1 ) */
2000:Lib/FreeRTOS/Source/tasks.c ****     {
2001:Lib/FreeRTOS/Source/tasks.c ****         /* The Idle task is being created using dynamically allocated RAM. */
2002:Lib/FreeRTOS/Source/tasks.c ****         xReturn = xTaskCreate( prvIdleTask,
2003:Lib/FreeRTOS/Source/tasks.c ****                                configIDLE_TASK_NAME,
2004:Lib/FreeRTOS/Source/tasks.c ****                                configMINIMAL_STACK_SIZE,
2005:Lib/FreeRTOS/Source/tasks.c ****                                ( void * ) NULL,
2006:Lib/FreeRTOS/Source/tasks.c ****                                portPRIVILEGE_BIT,  /* In effect ( tskIDLE_PRIORITY | portPRIVILEGE_
2007:Lib/FreeRTOS/Source/tasks.c ****                                &xIdleTaskHandle ); /*lint !e961 MISRA exception, justified as it is
2008:Lib/FreeRTOS/Source/tasks.c ****     }
2009:Lib/FreeRTOS/Source/tasks.c ****     #endif /* configSUPPORT_STATIC_ALLOCATION */
2010:Lib/FreeRTOS/Source/tasks.c **** 
2011:Lib/FreeRTOS/Source/tasks.c ****     #if ( configUSE_TIMERS == 1 )
2012:Lib/FreeRTOS/Source/tasks.c ****     {
2013:Lib/FreeRTOS/Source/tasks.c ****         if( xReturn == pdPASS )
 2372              		.loc 1 2013 11
 2373 004e FB68     		ldr	r3, [r7, #12]
 2374 0050 012B     		cmp	r3, #1
 2375 0052 02D1     		bne	.L148
2014:Lib/FreeRTOS/Source/tasks.c ****         {
2015:Lib/FreeRTOS/Source/tasks.c ****             xReturn = xTimerCreateTimerTask();
 2376              		.loc 1 2015 23
 2377 0054 FFF7FEFF 		bl	xTimerCreateTimerTask
 2378 0058 F860     		str	r0, [r7, #12]
 2379              	.L148:
2016:Lib/FreeRTOS/Source/tasks.c ****         }
2017:Lib/FreeRTOS/Source/tasks.c ****         else
2018:Lib/FreeRTOS/Source/tasks.c ****         {
2019:Lib/FreeRTOS/Source/tasks.c ****             mtCOVERAGE_TEST_MARKER();
2020:Lib/FreeRTOS/Source/tasks.c ****         }
2021:Lib/FreeRTOS/Source/tasks.c ****     }
2022:Lib/FreeRTOS/Source/tasks.c ****     #endif /* configUSE_TIMERS */
2023:Lib/FreeRTOS/Source/tasks.c **** 
2024:Lib/FreeRTOS/Source/tasks.c ****     if( xReturn == pdPASS )
 2380              		.loc 1 2024 7
 2381 005a FB68     		ldr	r3, [r7, #12]
 2382 005c 012B     		cmp	r3, #1
 2383 005e 12D1     		bne	.L149
2025:Lib/FreeRTOS/Source/tasks.c ****     {
2026:Lib/FreeRTOS/Source/tasks.c ****         /* freertos_tasks_c_additions_init() should only be called if the user
2027:Lib/FreeRTOS/Source/tasks.c ****          * definable macro FREERTOS_TASKS_C_ADDITIONS_INIT() is defined, as that is
2028:Lib/FreeRTOS/Source/tasks.c ****          * the only macro called by the function. */
2029:Lib/FreeRTOS/Source/tasks.c ****         #ifdef FREERTOS_TASKS_C_ADDITIONS_INIT
2030:Lib/FreeRTOS/Source/tasks.c ****         {
2031:Lib/FreeRTOS/Source/tasks.c ****             freertos_tasks_c_additions_init();
 2384              		.loc 1 2031 13
 2385 0060 FFF7FEFF 		bl	freertos_tasks_c_additions_init
2032:Lib/FreeRTOS/Source/tasks.c ****         }
2033:Lib/FreeRTOS/Source/tasks.c ****         #endif
2034:Lib/FreeRTOS/Source/tasks.c **** 
2035:Lib/FreeRTOS/Source/tasks.c ****         /* Interrupts are turned off here, to ensure a tick does not occur
2036:Lib/FreeRTOS/Source/tasks.c ****          * before or during the call to xPortStartScheduler().  The stacks of
2037:Lib/FreeRTOS/Source/tasks.c ****          * the created tasks contain a status word with interrupts switched on
2038:Lib/FreeRTOS/Source/tasks.c ****          * so interrupts will automatically get re-enabled when the first task
